


Disassembly of section .text:

00000000000070a0 <_start>:
    70a0:	f3 0f 1e fa          	endbr64 
    70a4:	31 ed                	xor    %ebp,%ebp
    70a6:	49 89 d1             	mov    %rdx,%r9
    70a9:	5e                   	pop    %rsi
    70aa:	48 89 e2             	mov    %rsp,%rdx
    70ad:	48 83 e4 f0          	and    $0xfffffffffffffff0,%rsp
    70b1:	50                   	push   %rax
    70b2:	54                   	push   %rsp
    70b3:	4c 8d 05 b6 a8 00 00 	lea    0xa8b6(%rip),%r8        # 11970 <__libc_csu_fini>
    70ba:	48 8d 0d 3f a8 00 00 	lea    0xa83f(%rip),%rcx        # 11900 <__libc_csu_init>
    70c1:	48 8d 3d 25 95 00 00 	lea    0x9525(%rip),%rdi        # 105ed <main>
    70c8:	ff 15 0a df 00 00    	callq  *0xdf0a(%rip)        # 14fd8 <__libc_start_main@GLIBC_2.2.5>
    70ce:	f4                   	hlt    
    70cf:	90                   	nop

00000000000070d0 <deregister_tm_clones>:
    70d0:	48 8d 3d 51 18 01 00 	lea    0x11851(%rip),%rdi        # 18928 <__TMC_END__>
    70d7:	48 8d 05 4a 18 01 00 	lea    0x1184a(%rip),%rax        # 18928 <__TMC_END__>
    70de:	48 39 f8             	cmp    %rdi,%rax
    70e1:	74 15                	je     70f8 <deregister_tm_clones+0x28>
    70e3:	48 8b 05 e6 de 00 00 	mov    0xdee6(%rip),%rax        # 14fd0 <_ITM_deregisterTMCloneTable>
    70ea:	48 85 c0             	test   %rax,%rax
    70ed:	74 09                	je     70f8 <deregister_tm_clones+0x28>
    70ef:	ff e0                	jmpq   *%rax
    70f1:	0f 1f 80 00 00 00 00 	nopl   0x0(%rax)
    70f8:	c3                   	retq   
    70f9:	0f 1f 80 00 00 00 00 	nopl   0x0(%rax)

0000000000007100 <register_tm_clones>:
    7100:	48 8d 3d 21 18 01 00 	lea    0x11821(%rip),%rdi        # 18928 <__TMC_END__>
    7107:	48 8d 35 1a 18 01 00 	lea    0x1181a(%rip),%rsi        # 18928 <__TMC_END__>
    710e:	48 29 fe             	sub    %rdi,%rsi
    7111:	48 89 f0             	mov    %rsi,%rax
    7114:	48 c1 ee 3f          	shr    $0x3f,%rsi
    7118:	48 c1 f8 03          	sar    $0x3,%rax
    711c:	48 01 c6             	add    %rax,%rsi
    711f:	48 d1 fe             	sar    %rsi
    7122:	74 14                	je     7138 <register_tm_clones+0x38>
    7124:	48 8b 05 bd de 00 00 	mov    0xdebd(%rip),%rax        # 14fe8 <_ITM_registerTMCloneTable>
    712b:	48 85 c0             	test   %rax,%rax
    712e:	74 08                	je     7138 <register_tm_clones+0x38>
    7130:	ff e0                	jmpq   *%rax
    7132:	66 0f 1f 44 00 00    	nopw   0x0(%rax,%rax,1)
    7138:	c3                   	retq   
    7139:	0f 1f 80 00 00 00 00 	nopl   0x0(%rax)

0000000000007140 <__do_global_dtors_aux>:
    7140:	f3 0f 1e fa          	endbr64 
    7144:	80 3d f5 17 01 00 00 	cmpb   $0x0,0x117f5(%rip)        # 18940 <completed.8061>
    714b:	75 2b                	jne    7178 <__do_global_dtors_aux+0x38>
    714d:	55                   	push   %rbp
    714e:	48 83 3d 9a de 00 00 	cmpq   $0x0,0xde9a(%rip)        # 14ff0 <__cxa_finalize@GLIBC_2.2.5>
    7155:	00 
    7156:	48 89 e5             	mov    %rsp,%rbp
    7159:	74 0c                	je     7167 <__do_global_dtors_aux+0x27>
    715b:	48 8b 3d a6 de 00 00 	mov    0xdea6(%rip),%rdi        # 15008 <__dso_handle>
    7162:	e8 f9 fe ff ff       	callq  7060 <__cxa_finalize@plt>
    7167:	e8 64 ff ff ff       	callq  70d0 <deregister_tm_clones>
    716c:	c6 05 cd 17 01 00 01 	movb   $0x1,0x117cd(%rip)        # 18940 <completed.8061>
    7173:	5d                   	pop    %rbp
    7174:	c3                   	retq   
    7175:	0f 1f 00             	nopl   (%rax)
    7178:	c3                   	retq   
    7179:	0f 1f 80 00 00 00 00 	nopl   0x0(%rax)

0000000000007180 <frame_dummy>:
    7180:	f3 0f 1e fa          	endbr64 
    7184:	e9 77 ff ff ff       	jmpq   7100 <register_tm_clones>

0000000000007189 <platform_main_begin>:
    7189:	f3 0f 1e fa          	endbr64 
    718d:	55                   	push   %rbp
    718e:	48 89 e5             	mov    %rsp,%rbp
    7191:	90                   	nop
    7192:	5d                   	pop    %rbp
    7193:	c3                   	retq   

0000000000007194 <platform_main_end>:
    7194:	f3 0f 1e fa          	endbr64 
    7198:	55                   	push   %rbp
    7199:	48 89 e5             	mov    %rsp,%rbp
    719c:	48 83 ec 10          	sub    $0x10,%rsp
    71a0:	89 7d fc             	mov    %edi,-0x4(%rbp)
    71a3:	89 75 f8             	mov    %esi,-0x8(%rbp)
    71a6:	8b 45 fc             	mov    -0x4(%rbp),%eax
    71a9:	89 c6                	mov    %eax,%esi
    71ab:	48 8d 3d 6e ae 00 00 	lea    0xae6e(%rip),%rdi        # 12020 <_IO_stdin_used+0x20>
    71b2:	b8 00 00 00 00       	mov    $0x0,%eax
    71b7:	e8 c4 fe ff ff       	callq  7080 <printf@plt>
    71bc:	90                   	nop
    71bd:	c9                   	leaveq 
    71be:	c3                   	retq   

00000000000071bf <safe_unary_minus_func_int8_t_s>:
    71bf:	f3 0f 1e fa          	endbr64 
    71c3:	55                   	push   %rbp
    71c4:	48 89 e5             	mov    %rsp,%rbp
    71c7:	89 f8                	mov    %edi,%eax
    71c9:	88 45 fc             	mov    %al,-0x4(%rbp)
    71cc:	0f b6 45 fc          	movzbl -0x4(%rbp),%eax
    71d0:	f7 d8                	neg    %eax
    71d2:	5d                   	pop    %rbp
    71d3:	c3                   	retq   

00000000000071d4 <safe_add_func_int8_t_s_s>:
    71d4:	f3 0f 1e fa          	endbr64 
    71d8:	55                   	push   %rbp
    71d9:	48 89 e5             	mov    %rsp,%rbp
    71dc:	89 fa                	mov    %edi,%edx
    71de:	89 f0                	mov    %esi,%eax
    71e0:	88 55 fc             	mov    %dl,-0x4(%rbp)
    71e3:	88 45 f8             	mov    %al,-0x8(%rbp)
    71e6:	0f b6 55 fc          	movzbl -0x4(%rbp),%edx
    71ea:	0f b6 45 f8          	movzbl -0x8(%rbp),%eax
    71ee:	01 d0                	add    %edx,%eax
    71f0:	5d                   	pop    %rbp
    71f1:	c3                   	retq   

00000000000071f2 <safe_sub_func_int8_t_s_s>:
    71f2:	f3 0f 1e fa          	endbr64 
    71f6:	55                   	push   %rbp
    71f7:	48 89 e5             	mov    %rsp,%rbp
    71fa:	89 fa                	mov    %edi,%edx
    71fc:	89 f0                	mov    %esi,%eax
    71fe:	88 55 fc             	mov    %dl,-0x4(%rbp)
    7201:	88 45 f8             	mov    %al,-0x8(%rbp)
    7204:	0f b6 55 fc          	movzbl -0x4(%rbp),%edx
    7208:	0f b6 45 f8          	movzbl -0x8(%rbp),%eax
    720c:	29 c2                	sub    %eax,%edx
    720e:	89 d0                	mov    %edx,%eax
    7210:	5d                   	pop    %rbp
    7211:	c3                   	retq   

0000000000007212 <safe_mul_func_int8_t_s_s>:
    7212:	f3 0f 1e fa          	endbr64 
    7216:	55                   	push   %rbp
    7217:	48 89 e5             	mov    %rsp,%rbp
    721a:	89 fa                	mov    %edi,%edx
    721c:	89 f0                	mov    %esi,%eax
    721e:	88 55 fc             	mov    %dl,-0x4(%rbp)
    7221:	88 45 f8             	mov    %al,-0x8(%rbp)
    7224:	0f b6 45 fc          	movzbl -0x4(%rbp),%eax
    7228:	0f b6 55 f8          	movzbl -0x8(%rbp),%edx
    722c:	0f af c2             	imul   %edx,%eax
    722f:	5d                   	pop    %rbp
    7230:	c3                   	retq   

0000000000007231 <safe_mod_func_int8_t_s_s>:
    7231:	f3 0f 1e fa          	endbr64 
    7235:	55                   	push   %rbp
    7236:	48 89 e5             	mov    %rsp,%rbp
    7239:	89 fa                	mov    %edi,%edx
    723b:	89 f0                	mov    %esi,%eax
    723d:	88 55 fc             	mov    %dl,-0x4(%rbp)
    7240:	88 45 f8             	mov    %al,-0x8(%rbp)
    7243:	80 7d f8 00          	cmpb   $0x0,-0x8(%rbp)
    7247:	74 1b                	je     7264 <safe_mod_func_int8_t_s_s+0x33>
    7249:	80 7d fc 80          	cmpb   $0x80,-0x4(%rbp)
    724d:	75 06                	jne    7255 <safe_mod_func_int8_t_s_s+0x24>
    724f:	80 7d f8 ff          	cmpb   $0xff,-0x8(%rbp)
    7253:	74 0f                	je     7264 <safe_mod_func_int8_t_s_s+0x33>
    7255:	0f be 45 fc          	movsbl -0x4(%rbp),%eax
    7259:	0f be 4d f8          	movsbl -0x8(%rbp),%ecx
    725d:	99                   	cltd   
    725e:	f7 f9                	idiv   %ecx
    7260:	89 d0                	mov    %edx,%eax
    7262:	eb 04                	jmp    7268 <safe_mod_func_int8_t_s_s+0x37>
    7264:	0f b6 45 fc          	movzbl -0x4(%rbp),%eax
    7268:	5d                   	pop    %rbp
    7269:	c3                   	retq   

000000000000726a <safe_div_func_int8_t_s_s>:
    726a:	f3 0f 1e fa          	endbr64 
    726e:	55                   	push   %rbp
    726f:	48 89 e5             	mov    %rsp,%rbp
    7272:	89 fa                	mov    %edi,%edx
    7274:	89 f0                	mov    %esi,%eax
    7276:	88 55 fc             	mov    %dl,-0x4(%rbp)
    7279:	88 45 f8             	mov    %al,-0x8(%rbp)
    727c:	80 7d f8 00          	cmpb   $0x0,-0x8(%rbp)
    7280:	74 19                	je     729b <safe_div_func_int8_t_s_s+0x31>
    7282:	80 7d fc 80          	cmpb   $0x80,-0x4(%rbp)
    7286:	75 06                	jne    728e <safe_div_func_int8_t_s_s+0x24>
    7288:	80 7d f8 ff          	cmpb   $0xff,-0x8(%rbp)
    728c:	74 0d                	je     729b <safe_div_func_int8_t_s_s+0x31>
    728e:	0f be 45 fc          	movsbl -0x4(%rbp),%eax
    7292:	0f be 4d f8          	movsbl -0x8(%rbp),%ecx
    7296:	99                   	cltd   
    7297:	f7 f9                	idiv   %ecx
    7299:	eb 04                	jmp    729f <safe_div_func_int8_t_s_s+0x35>
    729b:	0f b6 45 fc          	movzbl -0x4(%rbp),%eax
    729f:	5d                   	pop    %rbp
    72a0:	c3                   	retq   

00000000000072a1 <safe_lshift_func_int8_t_s_s>:
    72a1:	f3 0f 1e fa          	endbr64 
    72a5:	55                   	push   %rbp
    72a6:	48 89 e5             	mov    %rsp,%rbp
    72a9:	89 f8                	mov    %edi,%eax
    72ab:	89 75 f8             	mov    %esi,-0x8(%rbp)
    72ae:	88 45 fc             	mov    %al,-0x4(%rbp)
    72b1:	80 7d fc 00          	cmpb   $0x0,-0x4(%rbp)
    72b5:	78 31                	js     72e8 <safe_lshift_func_int8_t_s_s+0x47>
    72b7:	83 7d f8 00          	cmpl   $0x0,-0x8(%rbp)
    72bb:	78 2b                	js     72e8 <safe_lshift_func_int8_t_s_s+0x47>
    72bd:	83 7d f8 1f          	cmpl   $0x1f,-0x8(%rbp)
    72c1:	7f 25                	jg     72e8 <safe_lshift_func_int8_t_s_s+0x47>
    72c3:	0f be 55 fc          	movsbl -0x4(%rbp),%edx
    72c7:	8b 45 f8             	mov    -0x8(%rbp),%eax
    72ca:	be 7f 00 00 00       	mov    $0x7f,%esi
    72cf:	89 c1                	mov    %eax,%ecx
    72d1:	d3 fe                	sar    %cl,%esi
    72d3:	89 f0                	mov    %esi,%eax
    72d5:	39 c2                	cmp    %eax,%edx
    72d7:	7f 0f                	jg     72e8 <safe_lshift_func_int8_t_s_s+0x47>
    72d9:	0f be 55 fc          	movsbl -0x4(%rbp),%edx
    72dd:	8b 45 f8             	mov    -0x8(%rbp),%eax
    72e0:	89 c1                	mov    %eax,%ecx
    72e2:	d3 e2                	shl    %cl,%edx
    72e4:	89 d0                	mov    %edx,%eax
    72e6:	eb 04                	jmp    72ec <safe_lshift_func_int8_t_s_s+0x4b>
    72e8:	0f b6 45 fc          	movzbl -0x4(%rbp),%eax
    72ec:	5d                   	pop    %rbp
    72ed:	c3                   	retq   

00000000000072ee <safe_lshift_func_int8_t_s_u>:
    72ee:	f3 0f 1e fa          	endbr64 
    72f2:	55                   	push   %rbp
    72f3:	48 89 e5             	mov    %rsp,%rbp
    72f6:	89 f8                	mov    %edi,%eax
    72f8:	89 75 f8             	mov    %esi,-0x8(%rbp)
    72fb:	88 45 fc             	mov    %al,-0x4(%rbp)
    72fe:	80 7d fc 00          	cmpb   $0x0,-0x4(%rbp)
    7302:	78 2b                	js     732f <safe_lshift_func_int8_t_s_u+0x41>
    7304:	83 7d f8 1f          	cmpl   $0x1f,-0x8(%rbp)
    7308:	77 25                	ja     732f <safe_lshift_func_int8_t_s_u+0x41>
    730a:	0f be 55 fc          	movsbl -0x4(%rbp),%edx
    730e:	8b 45 f8             	mov    -0x8(%rbp),%eax
    7311:	be 7f 00 00 00       	mov    $0x7f,%esi
    7316:	89 c1                	mov    %eax,%ecx
    7318:	d3 fe                	sar    %cl,%esi
    731a:	89 f0                	mov    %esi,%eax
    731c:	39 c2                	cmp    %eax,%edx
    731e:	7f 0f                	jg     732f <safe_lshift_func_int8_t_s_u+0x41>
    7320:	0f be 55 fc          	movsbl -0x4(%rbp),%edx
    7324:	8b 45 f8             	mov    -0x8(%rbp),%eax
    7327:	89 c1                	mov    %eax,%ecx
    7329:	d3 e2                	shl    %cl,%edx
    732b:	89 d0                	mov    %edx,%eax
    732d:	eb 04                	jmp    7333 <safe_lshift_func_int8_t_s_u+0x45>
    732f:	0f b6 45 fc          	movzbl -0x4(%rbp),%eax
    7333:	5d                   	pop    %rbp
    7334:	c3                   	retq   

0000000000007335 <safe_rshift_func_int8_t_s_s>:
    7335:	f3 0f 1e fa          	endbr64 
    7339:	55                   	push   %rbp
    733a:	48 89 e5             	mov    %rsp,%rbp
    733d:	89 f8                	mov    %edi,%eax
    733f:	89 75 f8             	mov    %esi,-0x8(%rbp)
    7342:	88 45 fc             	mov    %al,-0x4(%rbp)
    7345:	80 7d fc 00          	cmpb   $0x0,-0x4(%rbp)
    7349:	78 1b                	js     7366 <safe_rshift_func_int8_t_s_s+0x31>
    734b:	83 7d f8 00          	cmpl   $0x0,-0x8(%rbp)
    734f:	78 15                	js     7366 <safe_rshift_func_int8_t_s_s+0x31>
    7351:	83 7d f8 1f          	cmpl   $0x1f,-0x8(%rbp)
    7355:	7f 0f                	jg     7366 <safe_rshift_func_int8_t_s_s+0x31>
    7357:	0f be 55 fc          	movsbl -0x4(%rbp),%edx
    735b:	8b 45 f8             	mov    -0x8(%rbp),%eax
    735e:	89 c1                	mov    %eax,%ecx
    7360:	d3 fa                	sar    %cl,%edx
    7362:	89 d0                	mov    %edx,%eax
    7364:	eb 04                	jmp    736a <safe_rshift_func_int8_t_s_s+0x35>
    7366:	0f b6 45 fc          	movzbl -0x4(%rbp),%eax
    736a:	5d                   	pop    %rbp
    736b:	c3                   	retq   

000000000000736c <safe_rshift_func_int8_t_s_u>:
    736c:	f3 0f 1e fa          	endbr64 
    7370:	55                   	push   %rbp
    7371:	48 89 e5             	mov    %rsp,%rbp
    7374:	89 f8                	mov    %edi,%eax
    7376:	89 75 f8             	mov    %esi,-0x8(%rbp)
    7379:	88 45 fc             	mov    %al,-0x4(%rbp)
    737c:	80 7d fc 00          	cmpb   $0x0,-0x4(%rbp)
    7380:	78 15                	js     7397 <safe_rshift_func_int8_t_s_u+0x2b>
    7382:	83 7d f8 1f          	cmpl   $0x1f,-0x8(%rbp)
    7386:	77 0f                	ja     7397 <safe_rshift_func_int8_t_s_u+0x2b>
    7388:	0f be 55 fc          	movsbl -0x4(%rbp),%edx
    738c:	8b 45 f8             	mov    -0x8(%rbp),%eax
    738f:	89 c1                	mov    %eax,%ecx
    7391:	d3 fa                	sar    %cl,%edx
    7393:	89 d0                	mov    %edx,%eax
    7395:	eb 04                	jmp    739b <safe_rshift_func_int8_t_s_u+0x2f>
    7397:	0f b6 45 fc          	movzbl -0x4(%rbp),%eax
    739b:	5d                   	pop    %rbp
    739c:	c3                   	retq   

000000000000739d <safe_unary_minus_func_int16_t_s>:
    739d:	f3 0f 1e fa          	endbr64 
    73a1:	55                   	push   %rbp
    73a2:	48 89 e5             	mov    %rsp,%rbp
    73a5:	89 f8                	mov    %edi,%eax
    73a7:	66 89 45 fc          	mov    %ax,-0x4(%rbp)
    73ab:	0f b7 45 fc          	movzwl -0x4(%rbp),%eax
    73af:	f7 d8                	neg    %eax
    73b1:	5d                   	pop    %rbp
    73b2:	c3                   	retq   

00000000000073b3 <safe_add_func_int16_t_s_s>:
    73b3:	f3 0f 1e fa          	endbr64 
    73b7:	55                   	push   %rbp
    73b8:	48 89 e5             	mov    %rsp,%rbp
    73bb:	89 fa                	mov    %edi,%edx
    73bd:	89 f0                	mov    %esi,%eax
    73bf:	66 89 55 fc          	mov    %dx,-0x4(%rbp)
    73c3:	66 89 45 f8          	mov    %ax,-0x8(%rbp)
    73c7:	0f b7 55 fc          	movzwl -0x4(%rbp),%edx
    73cb:	0f b7 45 f8          	movzwl -0x8(%rbp),%eax
    73cf:	01 d0                	add    %edx,%eax
    73d1:	5d                   	pop    %rbp
    73d2:	c3                   	retq   

00000000000073d3 <safe_sub_func_int16_t_s_s>:
    73d3:	f3 0f 1e fa          	endbr64 
    73d7:	55                   	push   %rbp
    73d8:	48 89 e5             	mov    %rsp,%rbp
    73db:	89 fa                	mov    %edi,%edx
    73dd:	89 f0                	mov    %esi,%eax
    73df:	66 89 55 fc          	mov    %dx,-0x4(%rbp)
    73e3:	66 89 45 f8          	mov    %ax,-0x8(%rbp)
    73e7:	0f b7 55 fc          	movzwl -0x4(%rbp),%edx
    73eb:	0f b7 45 f8          	movzwl -0x8(%rbp),%eax
    73ef:	29 c2                	sub    %eax,%edx
    73f1:	89 d0                	mov    %edx,%eax
    73f3:	5d                   	pop    %rbp
    73f4:	c3                   	retq   

00000000000073f5 <safe_mul_func_int16_t_s_s>:
    73f5:	f3 0f 1e fa          	endbr64 
    73f9:	55                   	push   %rbp
    73fa:	48 89 e5             	mov    %rsp,%rbp
    73fd:	89 fa                	mov    %edi,%edx
    73ff:	89 f0                	mov    %esi,%eax
    7401:	66 89 55 fc          	mov    %dx,-0x4(%rbp)
    7405:	66 89 45 f8          	mov    %ax,-0x8(%rbp)
    7409:	0f b7 55 fc          	movzwl -0x4(%rbp),%edx
    740d:	0f b7 45 f8          	movzwl -0x8(%rbp),%eax
    7411:	0f af c2             	imul   %edx,%eax
    7414:	5d                   	pop    %rbp
    7415:	c3                   	retq   

0000000000007416 <safe_mod_func_int16_t_s_s>:
    7416:	f3 0f 1e fa          	endbr64 
    741a:	55                   	push   %rbp
    741b:	48 89 e5             	mov    %rsp,%rbp
    741e:	89 fa                	mov    %edi,%edx
    7420:	89 f0                	mov    %esi,%eax
    7422:	66 89 55 fc          	mov    %dx,-0x4(%rbp)
    7426:	66 89 45 f8          	mov    %ax,-0x8(%rbp)
    742a:	66 83 7d f8 00       	cmpw   $0x0,-0x8(%rbp)
    742f:	74 1e                	je     744f <safe_mod_func_int16_t_s_s+0x39>
    7431:	66 81 7d fc 00 80    	cmpw   $0x8000,-0x4(%rbp)
    7437:	75 07                	jne    7440 <safe_mod_func_int16_t_s_s+0x2a>
    7439:	66 83 7d f8 ff       	cmpw   $0xffff,-0x8(%rbp)
    743e:	74 0f                	je     744f <safe_mod_func_int16_t_s_s+0x39>
    7440:	0f bf 45 fc          	movswl -0x4(%rbp),%eax
    7444:	0f bf 4d f8          	movswl -0x8(%rbp),%ecx
    7448:	99                   	cltd   
    7449:	f7 f9                	idiv   %ecx
    744b:	89 d0                	mov    %edx,%eax
    744d:	eb 04                	jmp    7453 <safe_mod_func_int16_t_s_s+0x3d>
    744f:	0f b7 45 fc          	movzwl -0x4(%rbp),%eax
    7453:	5d                   	pop    %rbp
    7454:	c3                   	retq   

0000000000007455 <safe_div_func_int16_t_s_s>:
    7455:	f3 0f 1e fa          	endbr64 
    7459:	55                   	push   %rbp
    745a:	48 89 e5             	mov    %rsp,%rbp
    745d:	89 fa                	mov    %edi,%edx
    745f:	89 f0                	mov    %esi,%eax
    7461:	66 89 55 fc          	mov    %dx,-0x4(%rbp)
    7465:	66 89 45 f8          	mov    %ax,-0x8(%rbp)
    7469:	66 83 7d f8 00       	cmpw   $0x0,-0x8(%rbp)
    746e:	74 1c                	je     748c <safe_div_func_int16_t_s_s+0x37>
    7470:	66 81 7d fc 00 80    	cmpw   $0x8000,-0x4(%rbp)
    7476:	75 07                	jne    747f <safe_div_func_int16_t_s_s+0x2a>
    7478:	66 83 7d f8 ff       	cmpw   $0xffff,-0x8(%rbp)
    747d:	74 0d                	je     748c <safe_div_func_int16_t_s_s+0x37>
    747f:	0f bf 45 fc          	movswl -0x4(%rbp),%eax
    7483:	0f bf 4d f8          	movswl -0x8(%rbp),%ecx
    7487:	99                   	cltd   
    7488:	f7 f9                	idiv   %ecx
    748a:	eb 04                	jmp    7490 <safe_div_func_int16_t_s_s+0x3b>
    748c:	0f b7 45 fc          	movzwl -0x4(%rbp),%eax
    7490:	5d                   	pop    %rbp
    7491:	c3                   	retq   

0000000000007492 <safe_lshift_func_int16_t_s_s>:
    7492:	f3 0f 1e fa          	endbr64 
    7496:	55                   	push   %rbp
    7497:	48 89 e5             	mov    %rsp,%rbp
    749a:	89 f8                	mov    %edi,%eax
    749c:	89 75 f8             	mov    %esi,-0x8(%rbp)
    749f:	66 89 45 fc          	mov    %ax,-0x4(%rbp)
    74a3:	66 83 7d fc 00       	cmpw   $0x0,-0x4(%rbp)
    74a8:	78 31                	js     74db <safe_lshift_func_int16_t_s_s+0x49>
    74aa:	83 7d f8 00          	cmpl   $0x0,-0x8(%rbp)
    74ae:	78 2b                	js     74db <safe_lshift_func_int16_t_s_s+0x49>
    74b0:	83 7d f8 1f          	cmpl   $0x1f,-0x8(%rbp)
    74b4:	7f 25                	jg     74db <safe_lshift_func_int16_t_s_s+0x49>
    74b6:	0f bf 55 fc          	movswl -0x4(%rbp),%edx
    74ba:	8b 45 f8             	mov    -0x8(%rbp),%eax
    74bd:	be ff 7f 00 00       	mov    $0x7fff,%esi
    74c2:	89 c1                	mov    %eax,%ecx
    74c4:	d3 fe                	sar    %cl,%esi
    74c6:	89 f0                	mov    %esi,%eax
    74c8:	39 c2                	cmp    %eax,%edx
    74ca:	7f 0f                	jg     74db <safe_lshift_func_int16_t_s_s+0x49>
    74cc:	0f bf 55 fc          	movswl -0x4(%rbp),%edx
    74d0:	8b 45 f8             	mov    -0x8(%rbp),%eax
    74d3:	89 c1                	mov    %eax,%ecx
    74d5:	d3 e2                	shl    %cl,%edx
    74d7:	89 d0                	mov    %edx,%eax
    74d9:	eb 04                	jmp    74df <safe_lshift_func_int16_t_s_s+0x4d>
    74db:	0f b7 45 fc          	movzwl -0x4(%rbp),%eax
    74df:	5d                   	pop    %rbp
    74e0:	c3                   	retq   

00000000000074e1 <safe_lshift_func_int16_t_s_u>:
    74e1:	f3 0f 1e fa          	endbr64 
    74e5:	55                   	push   %rbp
    74e6:	48 89 e5             	mov    %rsp,%rbp
    74e9:	89 f8                	mov    %edi,%eax
    74eb:	89 75 f8             	mov    %esi,-0x8(%rbp)
    74ee:	66 89 45 fc          	mov    %ax,-0x4(%rbp)
    74f2:	66 83 7d fc 00       	cmpw   $0x0,-0x4(%rbp)
    74f7:	78 2b                	js     7524 <safe_lshift_func_int16_t_s_u+0x43>
    74f9:	83 7d f8 1f          	cmpl   $0x1f,-0x8(%rbp)
    74fd:	77 25                	ja     7524 <safe_lshift_func_int16_t_s_u+0x43>
    74ff:	0f bf 55 fc          	movswl -0x4(%rbp),%edx
    7503:	8b 45 f8             	mov    -0x8(%rbp),%eax
    7506:	be ff 7f 00 00       	mov    $0x7fff,%esi
    750b:	89 c1                	mov    %eax,%ecx
    750d:	d3 fe                	sar    %cl,%esi
    750f:	89 f0                	mov    %esi,%eax
    7511:	39 c2                	cmp    %eax,%edx
    7513:	7f 0f                	jg     7524 <safe_lshift_func_int16_t_s_u+0x43>
    7515:	0f bf 55 fc          	movswl -0x4(%rbp),%edx
    7519:	8b 45 f8             	mov    -0x8(%rbp),%eax
    751c:	89 c1                	mov    %eax,%ecx
    751e:	d3 e2                	shl    %cl,%edx
    7520:	89 d0                	mov    %edx,%eax
    7522:	eb 04                	jmp    7528 <safe_lshift_func_int16_t_s_u+0x47>
    7524:	0f b7 45 fc          	movzwl -0x4(%rbp),%eax
    7528:	5d                   	pop    %rbp
    7529:	c3                   	retq   

000000000000752a <safe_rshift_func_int16_t_s_s>:
    752a:	f3 0f 1e fa          	endbr64 
    752e:	55                   	push   %rbp
    752f:	48 89 e5             	mov    %rsp,%rbp
    7532:	89 f8                	mov    %edi,%eax
    7534:	89 75 f8             	mov    %esi,-0x8(%rbp)
    7537:	66 89 45 fc          	mov    %ax,-0x4(%rbp)
    753b:	66 83 7d fc 00       	cmpw   $0x0,-0x4(%rbp)
    7540:	78 1b                	js     755d <safe_rshift_func_int16_t_s_s+0x33>
    7542:	83 7d f8 00          	cmpl   $0x0,-0x8(%rbp)
    7546:	78 15                	js     755d <safe_rshift_func_int16_t_s_s+0x33>
    7548:	83 7d f8 1f          	cmpl   $0x1f,-0x8(%rbp)
    754c:	7f 0f                	jg     755d <safe_rshift_func_int16_t_s_s+0x33>
    754e:	0f bf 55 fc          	movswl -0x4(%rbp),%edx
    7552:	8b 45 f8             	mov    -0x8(%rbp),%eax
    7555:	89 c1                	mov    %eax,%ecx
    7557:	d3 fa                	sar    %cl,%edx
    7559:	89 d0                	mov    %edx,%eax
    755b:	eb 04                	jmp    7561 <safe_rshift_func_int16_t_s_s+0x37>
    755d:	0f b7 45 fc          	movzwl -0x4(%rbp),%eax
    7561:	5d                   	pop    %rbp
    7562:	c3                   	retq   

0000000000007563 <safe_rshift_func_int16_t_s_u>:
    7563:	f3 0f 1e fa          	endbr64 
    7567:	55                   	push   %rbp
    7568:	48 89 e5             	mov    %rsp,%rbp
    756b:	89 f8                	mov    %edi,%eax
    756d:	89 75 f8             	mov    %esi,-0x8(%rbp)
    7570:	66 89 45 fc          	mov    %ax,-0x4(%rbp)
    7574:	66 83 7d fc 00       	cmpw   $0x0,-0x4(%rbp)
    7579:	78 15                	js     7590 <safe_rshift_func_int16_t_s_u+0x2d>
    757b:	83 7d f8 1f          	cmpl   $0x1f,-0x8(%rbp)
    757f:	77 0f                	ja     7590 <safe_rshift_func_int16_t_s_u+0x2d>
    7581:	0f bf 55 fc          	movswl -0x4(%rbp),%edx
    7585:	8b 45 f8             	mov    -0x8(%rbp),%eax
    7588:	89 c1                	mov    %eax,%ecx
    758a:	d3 fa                	sar    %cl,%edx
    758c:	89 d0                	mov    %edx,%eax
    758e:	eb 04                	jmp    7594 <safe_rshift_func_int16_t_s_u+0x31>
    7590:	0f b7 45 fc          	movzwl -0x4(%rbp),%eax
    7594:	5d                   	pop    %rbp
    7595:	c3                   	retq   

0000000000007596 <safe_unary_minus_func_int32_t_s>:
    7596:	f3 0f 1e fa          	endbr64 
    759a:	55                   	push   %rbp
    759b:	48 89 e5             	mov    %rsp,%rbp
    759e:	89 7d fc             	mov    %edi,-0x4(%rbp)
    75a1:	81 7d fc 00 00 00 80 	cmpl   $0x80000000,-0x4(%rbp)
    75a8:	74 07                	je     75b1 <safe_unary_minus_func_int32_t_s+0x1b>
    75aa:	8b 45 fc             	mov    -0x4(%rbp),%eax
    75ad:	f7 d8                	neg    %eax
    75af:	eb 03                	jmp    75b4 <safe_unary_minus_func_int32_t_s+0x1e>
    75b1:	8b 45 fc             	mov    -0x4(%rbp),%eax
    75b4:	5d                   	pop    %rbp
    75b5:	c3                   	retq   

00000000000075b6 <safe_add_func_int32_t_s_s>:
    75b6:	f3 0f 1e fa          	endbr64 
    75ba:	55                   	push   %rbp
    75bb:	48 89 e5             	mov    %rsp,%rbp
    75be:	89 7d fc             	mov    %edi,-0x4(%rbp)
    75c1:	89 75 f8             	mov    %esi,-0x8(%rbp)
    75c4:	83 7d fc 00          	cmpl   $0x0,-0x4(%rbp)
    75c8:	7e 13                	jle    75dd <safe_add_func_int32_t_s_s+0x27>
    75ca:	83 7d f8 00          	cmpl   $0x0,-0x8(%rbp)
    75ce:	7e 0d                	jle    75dd <safe_add_func_int32_t_s_s+0x27>
    75d0:	b8 ff ff ff 7f       	mov    $0x7fffffff,%eax
    75d5:	2b 45 f8             	sub    -0x8(%rbp),%eax
    75d8:	39 45 fc             	cmp    %eax,-0x4(%rbp)
    75db:	7f 23                	jg     7600 <safe_add_func_int32_t_s_s+0x4a>
    75dd:	83 7d fc 00          	cmpl   $0x0,-0x4(%rbp)
    75e1:	79 13                	jns    75f6 <safe_add_func_int32_t_s_s+0x40>
    75e3:	83 7d f8 00          	cmpl   $0x0,-0x8(%rbp)
    75e7:	79 0d                	jns    75f6 <safe_add_func_int32_t_s_s+0x40>
    75e9:	b8 00 00 00 80       	mov    $0x80000000,%eax
    75ee:	2b 45 f8             	sub    -0x8(%rbp),%eax
    75f1:	39 45 fc             	cmp    %eax,-0x4(%rbp)
    75f4:	7c 0a                	jl     7600 <safe_add_func_int32_t_s_s+0x4a>
    75f6:	8b 55 fc             	mov    -0x4(%rbp),%edx
    75f9:	8b 45 f8             	mov    -0x8(%rbp),%eax
    75fc:	01 d0                	add    %edx,%eax
    75fe:	eb 03                	jmp    7603 <safe_add_func_int32_t_s_s+0x4d>
    7600:	8b 45 fc             	mov    -0x4(%rbp),%eax
    7603:	5d                   	pop    %rbp
    7604:	c3                   	retq   

0000000000007605 <safe_sub_func_int32_t_s_s>:
    7605:	f3 0f 1e fa          	endbr64 
    7609:	55                   	push   %rbp
    760a:	48 89 e5             	mov    %rsp,%rbp
    760d:	89 7d fc             	mov    %edi,-0x4(%rbp)
    7610:	89 75 f8             	mov    %esi,-0x8(%rbp)
    7613:	8b 45 fc             	mov    -0x4(%rbp),%eax
    7616:	33 45 f8             	xor    -0x8(%rbp),%eax
    7619:	89 c2                	mov    %eax,%edx
    761b:	8b 45 fc             	mov    -0x4(%rbp),%eax
    761e:	33 45 f8             	xor    -0x8(%rbp),%eax
    7621:	25 00 00 00 80       	and    $0x80000000,%eax
    7626:	33 45 fc             	xor    -0x4(%rbp),%eax
    7629:	2b 45 f8             	sub    -0x8(%rbp),%eax
    762c:	33 45 f8             	xor    -0x8(%rbp),%eax
    762f:	21 d0                	and    %edx,%eax
    7631:	85 c0                	test   %eax,%eax
    7633:	78 08                	js     763d <safe_sub_func_int32_t_s_s+0x38>
    7635:	8b 45 fc             	mov    -0x4(%rbp),%eax
    7638:	2b 45 f8             	sub    -0x8(%rbp),%eax
    763b:	eb 03                	jmp    7640 <safe_sub_func_int32_t_s_s+0x3b>
    763d:	8b 45 fc             	mov    -0x4(%rbp),%eax
    7640:	5d                   	pop    %rbp
    7641:	c3                   	retq   

0000000000007642 <safe_mul_func_int32_t_s_s>:
    7642:	f3 0f 1e fa          	endbr64 
    7646:	55                   	push   %rbp
    7647:	48 89 e5             	mov    %rsp,%rbp
    764a:	89 7d fc             	mov    %edi,-0x4(%rbp)
    764d:	89 75 f8             	mov    %esi,-0x8(%rbp)
    7650:	83 7d fc 00          	cmpl   $0x0,-0x4(%rbp)
    7654:	7e 14                	jle    766a <safe_mul_func_int32_t_s_s+0x28>
    7656:	83 7d f8 00          	cmpl   $0x0,-0x8(%rbp)
    765a:	7e 0e                	jle    766a <safe_mul_func_int32_t_s_s+0x28>
    765c:	b8 ff ff ff 7f       	mov    $0x7fffffff,%eax
    7661:	99                   	cltd   
    7662:	f7 7d f8             	idivl  -0x8(%rbp)
    7665:	39 45 fc             	cmp    %eax,-0x4(%rbp)
    7668:	7f 5d                	jg     76c7 <safe_mul_func_int32_t_s_s+0x85>
    766a:	83 7d fc 00          	cmpl   $0x0,-0x4(%rbp)
    766e:	7e 14                	jle    7684 <safe_mul_func_int32_t_s_s+0x42>
    7670:	83 7d f8 00          	cmpl   $0x0,-0x8(%rbp)
    7674:	7f 0e                	jg     7684 <safe_mul_func_int32_t_s_s+0x42>
    7676:	b8 00 00 00 80       	mov    $0x80000000,%eax
    767b:	99                   	cltd   
    767c:	f7 7d fc             	idivl  -0x4(%rbp)
    767f:	39 45 f8             	cmp    %eax,-0x8(%rbp)
    7682:	7c 43                	jl     76c7 <safe_mul_func_int32_t_s_s+0x85>
    7684:	83 7d fc 00          	cmpl   $0x0,-0x4(%rbp)
    7688:	7f 14                	jg     769e <safe_mul_func_int32_t_s_s+0x5c>
    768a:	83 7d f8 00          	cmpl   $0x0,-0x8(%rbp)
    768e:	7e 0e                	jle    769e <safe_mul_func_int32_t_s_s+0x5c>
    7690:	b8 00 00 00 80       	mov    $0x80000000,%eax
    7695:	99                   	cltd   
    7696:	f7 7d f8             	idivl  -0x8(%rbp)
    7699:	39 45 fc             	cmp    %eax,-0x4(%rbp)
    769c:	7c 29                	jl     76c7 <safe_mul_func_int32_t_s_s+0x85>
    769e:	83 7d fc 00          	cmpl   $0x0,-0x4(%rbp)
    76a2:	7f 1a                	jg     76be <safe_mul_func_int32_t_s_s+0x7c>
    76a4:	83 7d f8 00          	cmpl   $0x0,-0x8(%rbp)
    76a8:	7f 14                	jg     76be <safe_mul_func_int32_t_s_s+0x7c>
    76aa:	83 7d fc 00          	cmpl   $0x0,-0x4(%rbp)
    76ae:	74 0e                	je     76be <safe_mul_func_int32_t_s_s+0x7c>
    76b0:	b8 ff ff ff 7f       	mov    $0x7fffffff,%eax
    76b5:	99                   	cltd   
    76b6:	f7 7d fc             	idivl  -0x4(%rbp)
    76b9:	39 45 f8             	cmp    %eax,-0x8(%rbp)
    76bc:	7c 09                	jl     76c7 <safe_mul_func_int32_t_s_s+0x85>
    76be:	8b 45 fc             	mov    -0x4(%rbp),%eax
    76c1:	0f af 45 f8          	imul   -0x8(%rbp),%eax
    76c5:	eb 03                	jmp    76ca <safe_mul_func_int32_t_s_s+0x88>
    76c7:	8b 45 fc             	mov    -0x4(%rbp),%eax
    76ca:	5d                   	pop    %rbp
    76cb:	c3                   	retq   

00000000000076cc <safe_mod_func_int32_t_s_s>:
    76cc:	f3 0f 1e fa          	endbr64 
    76d0:	55                   	push   %rbp
    76d1:	48 89 e5             	mov    %rsp,%rbp
    76d4:	89 7d fc             	mov    %edi,-0x4(%rbp)
    76d7:	89 75 f8             	mov    %esi,-0x8(%rbp)
    76da:	83 7d f8 00          	cmpl   $0x0,-0x8(%rbp)
    76de:	74 1a                	je     76fa <safe_mod_func_int32_t_s_s+0x2e>
    76e0:	81 7d fc 00 00 00 80 	cmpl   $0x80000000,-0x4(%rbp)
    76e7:	75 06                	jne    76ef <safe_mod_func_int32_t_s_s+0x23>
    76e9:	83 7d f8 ff          	cmpl   $0xffffffff,-0x8(%rbp)
    76ed:	74 0b                	je     76fa <safe_mod_func_int32_t_s_s+0x2e>
    76ef:	8b 45 fc             	mov    -0x4(%rbp),%eax
    76f2:	99                   	cltd   
    76f3:	f7 7d f8             	idivl  -0x8(%rbp)
    76f6:	89 d0                	mov    %edx,%eax
    76f8:	eb 03                	jmp    76fd <safe_mod_func_int32_t_s_s+0x31>
    76fa:	8b 45 fc             	mov    -0x4(%rbp),%eax
    76fd:	5d                   	pop    %rbp
    76fe:	c3                   	retq   

00000000000076ff <safe_div_func_int32_t_s_s>:
    76ff:	f3 0f 1e fa          	endbr64 
    7703:	55                   	push   %rbp
    7704:	48 89 e5             	mov    %rsp,%rbp
    7707:	89 7d fc             	mov    %edi,-0x4(%rbp)
    770a:	89 75 f8             	mov    %esi,-0x8(%rbp)
    770d:	83 7d f8 00          	cmpl   $0x0,-0x8(%rbp)
    7711:	74 18                	je     772b <safe_div_func_int32_t_s_s+0x2c>
    7713:	81 7d fc 00 00 00 80 	cmpl   $0x80000000,-0x4(%rbp)
    771a:	75 06                	jne    7722 <safe_div_func_int32_t_s_s+0x23>
    771c:	83 7d f8 ff          	cmpl   $0xffffffff,-0x8(%rbp)
    7720:	74 09                	je     772b <safe_div_func_int32_t_s_s+0x2c>
    7722:	8b 45 fc             	mov    -0x4(%rbp),%eax
    7725:	99                   	cltd   
    7726:	f7 7d f8             	idivl  -0x8(%rbp)
    7729:	eb 03                	jmp    772e <safe_div_func_int32_t_s_s+0x2f>
    772b:	8b 45 fc             	mov    -0x4(%rbp),%eax
    772e:	5d                   	pop    %rbp
    772f:	c3                   	retq   

0000000000007730 <safe_lshift_func_int32_t_s_s>:
    7730:	f3 0f 1e fa          	endbr64 
    7734:	55                   	push   %rbp
    7735:	48 89 e5             	mov    %rsp,%rbp
    7738:	89 7d fc             	mov    %edi,-0x4(%rbp)
    773b:	89 75 f8             	mov    %esi,-0x8(%rbp)
    773e:	83 7d fc 00          	cmpl   $0x0,-0x4(%rbp)
    7742:	78 2d                	js     7771 <safe_lshift_func_int32_t_s_s+0x41>
    7744:	83 7d f8 00          	cmpl   $0x0,-0x8(%rbp)
    7748:	78 27                	js     7771 <safe_lshift_func_int32_t_s_s+0x41>
    774a:	83 7d f8 1f          	cmpl   $0x1f,-0x8(%rbp)
    774e:	7f 21                	jg     7771 <safe_lshift_func_int32_t_s_s+0x41>
    7750:	8b 45 f8             	mov    -0x8(%rbp),%eax
    7753:	ba ff ff ff 7f       	mov    $0x7fffffff,%edx
    7758:	89 c1                	mov    %eax,%ecx
    775a:	d3 fa                	sar    %cl,%edx
    775c:	89 d0                	mov    %edx,%eax
    775e:	39 45 fc             	cmp    %eax,-0x4(%rbp)
    7761:	7f 0e                	jg     7771 <safe_lshift_func_int32_t_s_s+0x41>
    7763:	8b 45 f8             	mov    -0x8(%rbp),%eax
    7766:	8b 55 fc             	mov    -0x4(%rbp),%edx
    7769:	89 c1                	mov    %eax,%ecx
    776b:	d3 e2                	shl    %cl,%edx
    776d:	89 d0                	mov    %edx,%eax
    776f:	eb 03                	jmp    7774 <safe_lshift_func_int32_t_s_s+0x44>
    7771:	8b 45 fc             	mov    -0x4(%rbp),%eax
    7774:	5d                   	pop    %rbp
    7775:	c3                   	retq   

0000000000007776 <safe_lshift_func_int32_t_s_u>:
    7776:	f3 0f 1e fa          	endbr64 
    777a:	55                   	push   %rbp
    777b:	48 89 e5             	mov    %rsp,%rbp
    777e:	89 7d fc             	mov    %edi,-0x4(%rbp)
    7781:	89 75 f8             	mov    %esi,-0x8(%rbp)
    7784:	83 7d fc 00          	cmpl   $0x0,-0x4(%rbp)
    7788:	78 27                	js     77b1 <safe_lshift_func_int32_t_s_u+0x3b>
    778a:	83 7d f8 1f          	cmpl   $0x1f,-0x8(%rbp)
    778e:	77 21                	ja     77b1 <safe_lshift_func_int32_t_s_u+0x3b>
    7790:	8b 45 f8             	mov    -0x8(%rbp),%eax
    7793:	ba ff ff ff 7f       	mov    $0x7fffffff,%edx
    7798:	89 c1                	mov    %eax,%ecx
    779a:	d3 fa                	sar    %cl,%edx
    779c:	89 d0                	mov    %edx,%eax
    779e:	39 45 fc             	cmp    %eax,-0x4(%rbp)
    77a1:	7f 0e                	jg     77b1 <safe_lshift_func_int32_t_s_u+0x3b>
    77a3:	8b 45 f8             	mov    -0x8(%rbp),%eax
    77a6:	8b 55 fc             	mov    -0x4(%rbp),%edx
    77a9:	89 c1                	mov    %eax,%ecx
    77ab:	d3 e2                	shl    %cl,%edx
    77ad:	89 d0                	mov    %edx,%eax
    77af:	eb 03                	jmp    77b4 <safe_lshift_func_int32_t_s_u+0x3e>
    77b1:	8b 45 fc             	mov    -0x4(%rbp),%eax
    77b4:	5d                   	pop    %rbp
    77b5:	c3                   	retq   

00000000000077b6 <safe_rshift_func_int32_t_s_s>:
    77b6:	f3 0f 1e fa          	endbr64 
    77ba:	55                   	push   %rbp
    77bb:	48 89 e5             	mov    %rsp,%rbp
    77be:	89 7d fc             	mov    %edi,-0x4(%rbp)
    77c1:	89 75 f8             	mov    %esi,-0x8(%rbp)
    77c4:	83 7d fc 00          	cmpl   $0x0,-0x4(%rbp)
    77c8:	78 1a                	js     77e4 <safe_rshift_func_int32_t_s_s+0x2e>
    77ca:	83 7d f8 00          	cmpl   $0x0,-0x8(%rbp)
    77ce:	78 14                	js     77e4 <safe_rshift_func_int32_t_s_s+0x2e>
    77d0:	83 7d f8 1f          	cmpl   $0x1f,-0x8(%rbp)
    77d4:	7f 0e                	jg     77e4 <safe_rshift_func_int32_t_s_s+0x2e>
    77d6:	8b 45 f8             	mov    -0x8(%rbp),%eax
    77d9:	8b 55 fc             	mov    -0x4(%rbp),%edx
    77dc:	89 c1                	mov    %eax,%ecx
    77de:	d3 fa                	sar    %cl,%edx
    77e0:	89 d0                	mov    %edx,%eax
    77e2:	eb 03                	jmp    77e7 <safe_rshift_func_int32_t_s_s+0x31>
    77e4:	8b 45 fc             	mov    -0x4(%rbp),%eax
    77e7:	5d                   	pop    %rbp
    77e8:	c3                   	retq   

00000000000077e9 <safe_rshift_func_int32_t_s_u>:
    77e9:	f3 0f 1e fa          	endbr64 
    77ed:	55                   	push   %rbp
    77ee:	48 89 e5             	mov    %rsp,%rbp
    77f1:	89 7d fc             	mov    %edi,-0x4(%rbp)
    77f4:	89 75 f8             	mov    %esi,-0x8(%rbp)
    77f7:	83 7d fc 00          	cmpl   $0x0,-0x4(%rbp)
    77fb:	78 14                	js     7811 <safe_rshift_func_int32_t_s_u+0x28>
    77fd:	83 7d f8 1f          	cmpl   $0x1f,-0x8(%rbp)
    7801:	77 0e                	ja     7811 <safe_rshift_func_int32_t_s_u+0x28>
    7803:	8b 45 f8             	mov    -0x8(%rbp),%eax
    7806:	8b 55 fc             	mov    -0x4(%rbp),%edx
    7809:	89 c1                	mov    %eax,%ecx
    780b:	d3 fa                	sar    %cl,%edx
    780d:	89 d0                	mov    %edx,%eax
    780f:	eb 03                	jmp    7814 <safe_rshift_func_int32_t_s_u+0x2b>
    7811:	8b 45 fc             	mov    -0x4(%rbp),%eax
    7814:	5d                   	pop    %rbp
    7815:	c3                   	retq   

0000000000007816 <safe_unary_minus_func_int64_t_s>:
    7816:	f3 0f 1e fa          	endbr64 
    781a:	55                   	push   %rbp
    781b:	48 89 e5             	mov    %rsp,%rbp
    781e:	48 89 7d f8          	mov    %rdi,-0x8(%rbp)
    7822:	48 b8 00 00 00 00 00 	movabs $0x8000000000000000,%rax
    7829:	00 00 80 
    782c:	48 39 45 f8          	cmp    %rax,-0x8(%rbp)
    7830:	74 09                	je     783b <safe_unary_minus_func_int64_t_s+0x25>
    7832:	48 8b 45 f8          	mov    -0x8(%rbp),%rax
    7836:	48 f7 d8             	neg    %rax
    7839:	eb 04                	jmp    783f <safe_unary_minus_func_int64_t_s+0x29>
    783b:	48 8b 45 f8          	mov    -0x8(%rbp),%rax
    783f:	5d                   	pop    %rbp
    7840:	c3                   	retq   

0000000000007841 <safe_add_func_int64_t_s_s>:
    7841:	f3 0f 1e fa          	endbr64 
    7845:	55                   	push   %rbp
    7846:	48 89 e5             	mov    %rsp,%rbp
    7849:	48 89 7d f8          	mov    %rdi,-0x8(%rbp)
    784d:	48 89 75 f0          	mov    %rsi,-0x10(%rbp)
    7851:	48 83 7d f8 00       	cmpq   $0x0,-0x8(%rbp)
    7856:	7e 1b                	jle    7873 <safe_add_func_int64_t_s_s+0x32>
    7858:	48 83 7d f0 00       	cmpq   $0x0,-0x10(%rbp)
    785d:	7e 14                	jle    7873 <safe_add_func_int64_t_s_s+0x32>
    785f:	48 b8 ff ff ff ff ff 	movabs $0x7fffffffffffffff,%rax
    7866:	ff ff 7f 
    7869:	48 2b 45 f0          	sub    -0x10(%rbp),%rax
    786d:	48 39 45 f8          	cmp    %rax,-0x8(%rbp)
    7871:	7f 2f                	jg     78a2 <safe_add_func_int64_t_s_s+0x61>
    7873:	48 83 7d f8 00       	cmpq   $0x0,-0x8(%rbp)
    7878:	79 1b                	jns    7895 <safe_add_func_int64_t_s_s+0x54>
    787a:	48 83 7d f0 00       	cmpq   $0x0,-0x10(%rbp)
    787f:	79 14                	jns    7895 <safe_add_func_int64_t_s_s+0x54>
    7881:	48 b8 00 00 00 00 00 	movabs $0x8000000000000000,%rax
    7888:	00 00 80 
    788b:	48 2b 45 f0          	sub    -0x10(%rbp),%rax
    788f:	48 39 45 f8          	cmp    %rax,-0x8(%rbp)
    7893:	7c 0d                	jl     78a2 <safe_add_func_int64_t_s_s+0x61>
    7895:	48 8b 55 f8          	mov    -0x8(%rbp),%rdx
    7899:	48 8b 45 f0          	mov    -0x10(%rbp),%rax
    789d:	48 01 d0             	add    %rdx,%rax
    78a0:	eb 04                	jmp    78a6 <safe_add_func_int64_t_s_s+0x65>
    78a2:	48 8b 45 f8          	mov    -0x8(%rbp),%rax
    78a6:	5d                   	pop    %rbp
    78a7:	c3                   	retq   

00000000000078a8 <safe_sub_func_int64_t_s_s>:
    78a8:	f3 0f 1e fa          	endbr64 
    78ac:	55                   	push   %rbp
    78ad:	48 89 e5             	mov    %rsp,%rbp
    78b0:	48 89 7d f8          	mov    %rdi,-0x8(%rbp)
    78b4:	48 89 75 f0          	mov    %rsi,-0x10(%rbp)
    78b8:	48 8b 45 f8          	mov    -0x8(%rbp),%rax
    78bc:	48 33 45 f0          	xor    -0x10(%rbp),%rax
    78c0:	48 89 c2             	mov    %rax,%rdx
    78c3:	48 8b 45 f8          	mov    -0x8(%rbp),%rax
    78c7:	48 33 45 f0          	xor    -0x10(%rbp),%rax
    78cb:	48 b9 00 00 00 00 00 	movabs $0x8000000000000000,%rcx
    78d2:	00 00 80 
    78d5:	48 21 c8             	and    %rcx,%rax
    78d8:	48 33 45 f8          	xor    -0x8(%rbp),%rax
    78dc:	48 2b 45 f0          	sub    -0x10(%rbp),%rax
    78e0:	48 33 45 f0          	xor    -0x10(%rbp),%rax
    78e4:	48 21 d0             	and    %rdx,%rax
    78e7:	48 85 c0             	test   %rax,%rax
    78ea:	78 0a                	js     78f6 <safe_sub_func_int64_t_s_s+0x4e>
    78ec:	48 8b 45 f8          	mov    -0x8(%rbp),%rax
    78f0:	48 2b 45 f0          	sub    -0x10(%rbp),%rax
    78f4:	eb 04                	jmp    78fa <safe_sub_func_int64_t_s_s+0x52>
    78f6:	48 8b 45 f8          	mov    -0x8(%rbp),%rax
    78fa:	5d                   	pop    %rbp
    78fb:	c3                   	retq   

00000000000078fc <safe_mul_func_int64_t_s_s>:
    78fc:	f3 0f 1e fa          	endbr64 
    7900:	55                   	push   %rbp
    7901:	48 89 e5             	mov    %rsp,%rbp
    7904:	48 89 7d f8          	mov    %rdi,-0x8(%rbp)
    7908:	48 89 75 f0          	mov    %rsi,-0x10(%rbp)
    790c:	48 83 7d f8 00       	cmpq   $0x0,-0x8(%rbp)
    7911:	7e 1d                	jle    7930 <safe_mul_func_int64_t_s_s+0x34>
    7913:	48 83 7d f0 00       	cmpq   $0x0,-0x10(%rbp)
    7918:	7e 16                	jle    7930 <safe_mul_func_int64_t_s_s+0x34>
    791a:	48 b8 ff ff ff ff ff 	movabs $0x7fffffffffffffff,%rax
    7921:	ff ff 7f 
    7924:	48 99                	cqto   
    7926:	48 f7 7d f0          	idivq  -0x10(%rbp)
    792a:	48 39 45 f8          	cmp    %rax,-0x8(%rbp)
    792e:	7f 7e                	jg     79ae <safe_mul_func_int64_t_s_s+0xb2>
    7930:	48 83 7d f8 00       	cmpq   $0x0,-0x8(%rbp)
    7935:	7e 1d                	jle    7954 <safe_mul_func_int64_t_s_s+0x58>
    7937:	48 83 7d f0 00       	cmpq   $0x0,-0x10(%rbp)
    793c:	7f 16                	jg     7954 <safe_mul_func_int64_t_s_s+0x58>
    793e:	48 b8 00 00 00 00 00 	movabs $0x8000000000000000,%rax
    7945:	00 00 80 
    7948:	48 99                	cqto   
    794a:	48 f7 7d f8          	idivq  -0x8(%rbp)
    794e:	48 39 45 f0          	cmp    %rax,-0x10(%rbp)
    7952:	7c 5a                	jl     79ae <safe_mul_func_int64_t_s_s+0xb2>
    7954:	48 83 7d f8 00       	cmpq   $0x0,-0x8(%rbp)
    7959:	7f 1d                	jg     7978 <safe_mul_func_int64_t_s_s+0x7c>
    795b:	48 83 7d f0 00       	cmpq   $0x0,-0x10(%rbp)
    7960:	7e 16                	jle    7978 <safe_mul_func_int64_t_s_s+0x7c>
    7962:	48 b8 00 00 00 00 00 	movabs $0x8000000000000000,%rax
    7969:	00 00 80 
    796c:	48 99                	cqto   
    796e:	48 f7 7d f0          	idivq  -0x10(%rbp)
    7972:	48 39 45 f8          	cmp    %rax,-0x8(%rbp)
    7976:	7c 36                	jl     79ae <safe_mul_func_int64_t_s_s+0xb2>
    7978:	48 83 7d f8 00       	cmpq   $0x0,-0x8(%rbp)
    797d:	7f 24                	jg     79a3 <safe_mul_func_int64_t_s_s+0xa7>
    797f:	48 83 7d f0 00       	cmpq   $0x0,-0x10(%rbp)
    7984:	7f 1d                	jg     79a3 <safe_mul_func_int64_t_s_s+0xa7>
    7986:	48 83 7d f8 00       	cmpq   $0x0,-0x8(%rbp)
    798b:	74 16                	je     79a3 <safe_mul_func_int64_t_s_s+0xa7>
    798d:	48 b8 ff ff ff ff ff 	movabs $0x7fffffffffffffff,%rax
    7994:	ff ff 7f 
    7997:	48 99                	cqto   
    7999:	48 f7 7d f8          	idivq  -0x8(%rbp)
    799d:	48 39 45 f0          	cmp    %rax,-0x10(%rbp)
    79a1:	7c 0b                	jl     79ae <safe_mul_func_int64_t_s_s+0xb2>
    79a3:	48 8b 45 f8          	mov    -0x8(%rbp),%rax
    79a7:	48 0f af 45 f0       	imul   -0x10(%rbp),%rax
    79ac:	eb 04                	jmp    79b2 <safe_mul_func_int64_t_s_s+0xb6>
    79ae:	48 8b 45 f8          	mov    -0x8(%rbp),%rax
    79b2:	5d                   	pop    %rbp
    79b3:	c3                   	retq   

00000000000079b4 <safe_mod_func_int64_t_s_s>:
    79b4:	f3 0f 1e fa          	endbr64 
    79b8:	55                   	push   %rbp
    79b9:	48 89 e5             	mov    %rsp,%rbp
    79bc:	48 89 7d f8          	mov    %rdi,-0x8(%rbp)
    79c0:	48 89 75 f0          	mov    %rsi,-0x10(%rbp)
    79c4:	48 83 7d f0 00       	cmpq   $0x0,-0x10(%rbp)
    79c9:	74 26                	je     79f1 <safe_mod_func_int64_t_s_s+0x3d>
    79cb:	48 b8 00 00 00 00 00 	movabs $0x8000000000000000,%rax
    79d2:	00 00 80 
    79d5:	48 39 45 f8          	cmp    %rax,-0x8(%rbp)
    79d9:	75 07                	jne    79e2 <safe_mod_func_int64_t_s_s+0x2e>
    79db:	48 83 7d f0 ff       	cmpq   $0xffffffffffffffff,-0x10(%rbp)
    79e0:	74 0f                	je     79f1 <safe_mod_func_int64_t_s_s+0x3d>
    79e2:	48 8b 45 f8          	mov    -0x8(%rbp),%rax
    79e6:	48 99                	cqto   
    79e8:	48 f7 7d f0          	idivq  -0x10(%rbp)
    79ec:	48 89 d0             	mov    %rdx,%rax
    79ef:	eb 04                	jmp    79f5 <safe_mod_func_int64_t_s_s+0x41>
    79f1:	48 8b 45 f8          	mov    -0x8(%rbp),%rax
    79f5:	5d                   	pop    %rbp
    79f6:	c3                   	retq   

00000000000079f7 <safe_div_func_int64_t_s_s>:
    79f7:	f3 0f 1e fa          	endbr64 
    79fb:	55                   	push   %rbp
    79fc:	48 89 e5             	mov    %rsp,%rbp
    79ff:	48 89 7d f8          	mov    %rdi,-0x8(%rbp)
    7a03:	48 89 75 f0          	mov    %rsi,-0x10(%rbp)
    7a07:	48 83 7d f0 00       	cmpq   $0x0,-0x10(%rbp)
    7a0c:	74 23                	je     7a31 <safe_div_func_int64_t_s_s+0x3a>
    7a0e:	48 b8 00 00 00 00 00 	movabs $0x8000000000000000,%rax
    7a15:	00 00 80 
    7a18:	48 39 45 f8          	cmp    %rax,-0x8(%rbp)
    7a1c:	75 07                	jne    7a25 <safe_div_func_int64_t_s_s+0x2e>
    7a1e:	48 83 7d f0 ff       	cmpq   $0xffffffffffffffff,-0x10(%rbp)
    7a23:	74 0c                	je     7a31 <safe_div_func_int64_t_s_s+0x3a>
    7a25:	48 8b 45 f8          	mov    -0x8(%rbp),%rax
    7a29:	48 99                	cqto   
    7a2b:	48 f7 7d f0          	idivq  -0x10(%rbp)
    7a2f:	eb 04                	jmp    7a35 <safe_div_func_int64_t_s_s+0x3e>
    7a31:	48 8b 45 f8          	mov    -0x8(%rbp),%rax
    7a35:	5d                   	pop    %rbp
    7a36:	c3                   	retq   

0000000000007a37 <safe_lshift_func_int64_t_s_s>:
    7a37:	f3 0f 1e fa          	endbr64 
    7a3b:	55                   	push   %rbp
    7a3c:	48 89 e5             	mov    %rsp,%rbp
    7a3f:	48 89 7d f8          	mov    %rdi,-0x8(%rbp)
    7a43:	89 75 f4             	mov    %esi,-0xc(%rbp)
    7a46:	48 83 7d f8 00       	cmpq   $0x0,-0x8(%rbp)
    7a4b:	78 38                	js     7a85 <safe_lshift_func_int64_t_s_s+0x4e>
    7a4d:	83 7d f4 00          	cmpl   $0x0,-0xc(%rbp)
    7a51:	78 32                	js     7a85 <safe_lshift_func_int64_t_s_s+0x4e>
    7a53:	83 7d f4 1f          	cmpl   $0x1f,-0xc(%rbp)
    7a57:	7f 2c                	jg     7a85 <safe_lshift_func_int64_t_s_s+0x4e>
    7a59:	8b 45 f4             	mov    -0xc(%rbp),%eax
    7a5c:	48 ba ff ff ff ff ff 	movabs $0x7fffffffffffffff,%rdx
    7a63:	ff ff 7f 
    7a66:	89 c1                	mov    %eax,%ecx
    7a68:	48 d3 fa             	sar    %cl,%rdx
    7a6b:	48 89 d0             	mov    %rdx,%rax
    7a6e:	48 39 45 f8          	cmp    %rax,-0x8(%rbp)
    7a72:	7f 11                	jg     7a85 <safe_lshift_func_int64_t_s_s+0x4e>
    7a74:	8b 45 f4             	mov    -0xc(%rbp),%eax
    7a77:	48 8b 55 f8          	mov    -0x8(%rbp),%rdx
    7a7b:	89 c1                	mov    %eax,%ecx
    7a7d:	48 d3 e2             	shl    %cl,%rdx
    7a80:	48 89 d0             	mov    %rdx,%rax
    7a83:	eb 04                	jmp    7a89 <safe_lshift_func_int64_t_s_s+0x52>
    7a85:	48 8b 45 f8          	mov    -0x8(%rbp),%rax
    7a89:	5d                   	pop    %rbp
    7a8a:	c3                   	retq   

0000000000007a8b <safe_lshift_func_int64_t_s_u>:
    7a8b:	f3 0f 1e fa          	endbr64 
    7a8f:	55                   	push   %rbp
    7a90:	48 89 e5             	mov    %rsp,%rbp
    7a93:	48 89 7d f8          	mov    %rdi,-0x8(%rbp)
    7a97:	89 75 f4             	mov    %esi,-0xc(%rbp)
    7a9a:	48 83 7d f8 00       	cmpq   $0x0,-0x8(%rbp)
    7a9f:	78 32                	js     7ad3 <safe_lshift_func_int64_t_s_u+0x48>
    7aa1:	83 7d f4 1f          	cmpl   $0x1f,-0xc(%rbp)
    7aa5:	77 2c                	ja     7ad3 <safe_lshift_func_int64_t_s_u+0x48>
    7aa7:	8b 45 f4             	mov    -0xc(%rbp),%eax
    7aaa:	48 ba ff ff ff ff ff 	movabs $0x7fffffffffffffff,%rdx
    7ab1:	ff ff 7f 
    7ab4:	89 c1                	mov    %eax,%ecx
    7ab6:	48 d3 fa             	sar    %cl,%rdx
    7ab9:	48 89 d0             	mov    %rdx,%rax
    7abc:	48 39 45 f8          	cmp    %rax,-0x8(%rbp)
    7ac0:	7f 11                	jg     7ad3 <safe_lshift_func_int64_t_s_u+0x48>
    7ac2:	8b 45 f4             	mov    -0xc(%rbp),%eax
    7ac5:	48 8b 55 f8          	mov    -0x8(%rbp),%rdx
    7ac9:	89 c1                	mov    %eax,%ecx
    7acb:	48 d3 e2             	shl    %cl,%rdx
    7ace:	48 89 d0             	mov    %rdx,%rax
    7ad1:	eb 04                	jmp    7ad7 <safe_lshift_func_int64_t_s_u+0x4c>
    7ad3:	48 8b 45 f8          	mov    -0x8(%rbp),%rax
    7ad7:	5d                   	pop    %rbp
    7ad8:	c3                   	retq   

0000000000007ad9 <safe_rshift_func_int64_t_s_s>:
    7ad9:	f3 0f 1e fa          	endbr64 
    7add:	55                   	push   %rbp
    7ade:	48 89 e5             	mov    %rsp,%rbp
    7ae1:	48 89 7d f8          	mov    %rdi,-0x8(%rbp)
    7ae5:	89 75 f4             	mov    %esi,-0xc(%rbp)
    7ae8:	48 83 7d f8 00       	cmpq   $0x0,-0x8(%rbp)
    7aed:	78 1d                	js     7b0c <safe_rshift_func_int64_t_s_s+0x33>
    7aef:	83 7d f4 00          	cmpl   $0x0,-0xc(%rbp)
    7af3:	78 17                	js     7b0c <safe_rshift_func_int64_t_s_s+0x33>
    7af5:	83 7d f4 1f          	cmpl   $0x1f,-0xc(%rbp)
    7af9:	7f 11                	jg     7b0c <safe_rshift_func_int64_t_s_s+0x33>
    7afb:	8b 45 f4             	mov    -0xc(%rbp),%eax
    7afe:	48 8b 55 f8          	mov    -0x8(%rbp),%rdx
    7b02:	89 c1                	mov    %eax,%ecx
    7b04:	48 d3 fa             	sar    %cl,%rdx
    7b07:	48 89 d0             	mov    %rdx,%rax
    7b0a:	eb 04                	jmp    7b10 <safe_rshift_func_int64_t_s_s+0x37>
    7b0c:	48 8b 45 f8          	mov    -0x8(%rbp),%rax
    7b10:	5d                   	pop    %rbp
    7b11:	c3                   	retq   

0000000000007b12 <safe_rshift_func_int64_t_s_u>:
    7b12:	f3 0f 1e fa          	endbr64 
    7b16:	55                   	push   %rbp
    7b17:	48 89 e5             	mov    %rsp,%rbp
    7b1a:	48 89 7d f8          	mov    %rdi,-0x8(%rbp)
    7b1e:	89 75 f4             	mov    %esi,-0xc(%rbp)
    7b21:	48 83 7d f8 00       	cmpq   $0x0,-0x8(%rbp)
    7b26:	78 17                	js     7b3f <safe_rshift_func_int64_t_s_u+0x2d>
    7b28:	83 7d f4 1f          	cmpl   $0x1f,-0xc(%rbp)
    7b2c:	77 11                	ja     7b3f <safe_rshift_func_int64_t_s_u+0x2d>
    7b2e:	8b 45 f4             	mov    -0xc(%rbp),%eax
    7b31:	48 8b 55 f8          	mov    -0x8(%rbp),%rdx
    7b35:	89 c1                	mov    %eax,%ecx
    7b37:	48 d3 fa             	sar    %cl,%rdx
    7b3a:	48 89 d0             	mov    %rdx,%rax
    7b3d:	eb 04                	jmp    7b43 <safe_rshift_func_int64_t_s_u+0x31>
    7b3f:	48 8b 45 f8          	mov    -0x8(%rbp),%rax
    7b43:	5d                   	pop    %rbp
    7b44:	c3                   	retq   

0000000000007b45 <safe_unary_minus_func_uint8_t_u>:
    7b45:	f3 0f 1e fa          	endbr64 
    7b49:	55                   	push   %rbp
    7b4a:	48 89 e5             	mov    %rsp,%rbp
    7b4d:	89 f8                	mov    %edi,%eax
    7b4f:	88 45 fc             	mov    %al,-0x4(%rbp)
    7b52:	0f b6 45 fc          	movzbl -0x4(%rbp),%eax
    7b56:	f7 d8                	neg    %eax
    7b58:	5d                   	pop    %rbp
    7b59:	c3                   	retq   

0000000000007b5a <safe_add_func_uint8_t_u_u>:
    7b5a:	f3 0f 1e fa          	endbr64 
    7b5e:	55                   	push   %rbp
    7b5f:	48 89 e5             	mov    %rsp,%rbp
    7b62:	89 fa                	mov    %edi,%edx
    7b64:	89 f0                	mov    %esi,%eax
    7b66:	88 55 fc             	mov    %dl,-0x4(%rbp)
    7b69:	88 45 f8             	mov    %al,-0x8(%rbp)
    7b6c:	0f b6 55 fc          	movzbl -0x4(%rbp),%edx
    7b70:	0f b6 45 f8          	movzbl -0x8(%rbp),%eax
    7b74:	01 d0                	add    %edx,%eax
    7b76:	5d                   	pop    %rbp
    7b77:	c3                   	retq   

0000000000007b78 <safe_sub_func_uint8_t_u_u>:
    7b78:	f3 0f 1e fa          	endbr64 
    7b7c:	55                   	push   %rbp
    7b7d:	48 89 e5             	mov    %rsp,%rbp
    7b80:	89 fa                	mov    %edi,%edx
    7b82:	89 f0                	mov    %esi,%eax
    7b84:	88 55 fc             	mov    %dl,-0x4(%rbp)
    7b87:	88 45 f8             	mov    %al,-0x8(%rbp)
    7b8a:	0f b6 45 fc          	movzbl -0x4(%rbp),%eax
    7b8e:	2a 45 f8             	sub    -0x8(%rbp),%al
    7b91:	5d                   	pop    %rbp
    7b92:	c3                   	retq   

0000000000007b93 <safe_mul_func_uint8_t_u_u>:
    7b93:	f3 0f 1e fa          	endbr64 
    7b97:	55                   	push   %rbp
    7b98:	48 89 e5             	mov    %rsp,%rbp
    7b9b:	89 fa                	mov    %edi,%edx
    7b9d:	89 f0                	mov    %esi,%eax
    7b9f:	88 55 fc             	mov    %dl,-0x4(%rbp)
    7ba2:	88 45 f8             	mov    %al,-0x8(%rbp)
    7ba5:	0f b6 45 fc          	movzbl -0x4(%rbp),%eax
    7ba9:	f6 65 f8             	mulb   -0x8(%rbp)
    7bac:	5d                   	pop    %rbp
    7bad:	c3                   	retq   

0000000000007bae <safe_mod_func_uint8_t_u_u>:
    7bae:	f3 0f 1e fa          	endbr64 
    7bb2:	55                   	push   %rbp
    7bb3:	48 89 e5             	mov    %rsp,%rbp
    7bb6:	89 fa                	mov    %edi,%edx
    7bb8:	89 f0                	mov    %esi,%eax
    7bba:	88 55 fc             	mov    %dl,-0x4(%rbp)
    7bbd:	88 45 f8             	mov    %al,-0x8(%rbp)
    7bc0:	80 7d f8 00          	cmpb   $0x0,-0x8(%rbp)
    7bc4:	74 0f                	je     7bd5 <safe_mod_func_uint8_t_u_u+0x27>
    7bc6:	0f b6 45 fc          	movzbl -0x4(%rbp),%eax
    7bca:	0f b6 c0             	movzbl %al,%eax
    7bcd:	f6 75 f8             	divb   -0x8(%rbp)
    7bd0:	0f b6 c4             	movzbl %ah,%eax
    7bd3:	eb 04                	jmp    7bd9 <safe_mod_func_uint8_t_u_u+0x2b>
    7bd5:	0f b6 45 fc          	movzbl -0x4(%rbp),%eax
    7bd9:	5d                   	pop    %rbp
    7bda:	c3                   	retq   

0000000000007bdb <safe_div_func_uint8_t_u_u>:
    7bdb:	f3 0f 1e fa          	endbr64 
    7bdf:	55                   	push   %rbp
    7be0:	48 89 e5             	mov    %rsp,%rbp
    7be3:	89 fa                	mov    %edi,%edx
    7be5:	89 f0                	mov    %esi,%eax
    7be7:	88 55 fc             	mov    %dl,-0x4(%rbp)
    7bea:	88 45 f8             	mov    %al,-0x8(%rbp)
    7bed:	80 7d f8 00          	cmpb   $0x0,-0x8(%rbp)
    7bf1:	74 0c                	je     7bff <safe_div_func_uint8_t_u_u+0x24>
    7bf3:	0f b6 45 fc          	movzbl -0x4(%rbp),%eax
    7bf7:	0f b6 c0             	movzbl %al,%eax
    7bfa:	f6 75 f8             	divb   -0x8(%rbp)
    7bfd:	eb 04                	jmp    7c03 <safe_div_func_uint8_t_u_u+0x28>
    7bff:	0f b6 45 fc          	movzbl -0x4(%rbp),%eax
    7c03:	5d                   	pop    %rbp
    7c04:	c3                   	retq   

0000000000007c05 <safe_lshift_func_uint8_t_u_s>:
    7c05:	f3 0f 1e fa          	endbr64 
    7c09:	55                   	push   %rbp
    7c0a:	48 89 e5             	mov    %rsp,%rbp
    7c0d:	89 f8                	mov    %edi,%eax
    7c0f:	89 75 f8             	mov    %esi,-0x8(%rbp)
    7c12:	88 45 fc             	mov    %al,-0x4(%rbp)
    7c15:	83 7d f8 00          	cmpl   $0x0,-0x8(%rbp)
    7c19:	78 2b                	js     7c46 <safe_lshift_func_uint8_t_u_s+0x41>
    7c1b:	83 7d f8 1f          	cmpl   $0x1f,-0x8(%rbp)
    7c1f:	7f 25                	jg     7c46 <safe_lshift_func_uint8_t_u_s+0x41>
    7c21:	0f b6 55 fc          	movzbl -0x4(%rbp),%edx
    7c25:	8b 45 f8             	mov    -0x8(%rbp),%eax
    7c28:	be ff 00 00 00       	mov    $0xff,%esi
    7c2d:	89 c1                	mov    %eax,%ecx
    7c2f:	d3 fe                	sar    %cl,%esi
    7c31:	89 f0                	mov    %esi,%eax
    7c33:	39 c2                	cmp    %eax,%edx
    7c35:	7f 0f                	jg     7c46 <safe_lshift_func_uint8_t_u_s+0x41>
    7c37:	0f b6 55 fc          	movzbl -0x4(%rbp),%edx
    7c3b:	8b 45 f8             	mov    -0x8(%rbp),%eax
    7c3e:	89 c1                	mov    %eax,%ecx
    7c40:	d3 e2                	shl    %cl,%edx
    7c42:	89 d0                	mov    %edx,%eax
    7c44:	eb 04                	jmp    7c4a <safe_lshift_func_uint8_t_u_s+0x45>
    7c46:	0f b6 45 fc          	movzbl -0x4(%rbp),%eax
    7c4a:	5d                   	pop    %rbp
    7c4b:	c3                   	retq   

0000000000007c4c <safe_lshift_func_uint8_t_u_u>:
    7c4c:	f3 0f 1e fa          	endbr64 
    7c50:	55                   	push   %rbp
    7c51:	48 89 e5             	mov    %rsp,%rbp
    7c54:	89 f8                	mov    %edi,%eax
    7c56:	89 75 f8             	mov    %esi,-0x8(%rbp)
    7c59:	88 45 fc             	mov    %al,-0x4(%rbp)
    7c5c:	83 7d f8 1f          	cmpl   $0x1f,-0x8(%rbp)
    7c60:	77 25                	ja     7c87 <safe_lshift_func_uint8_t_u_u+0x3b>
    7c62:	0f b6 55 fc          	movzbl -0x4(%rbp),%edx
    7c66:	8b 45 f8             	mov    -0x8(%rbp),%eax
    7c69:	be ff 00 00 00       	mov    $0xff,%esi
    7c6e:	89 c1                	mov    %eax,%ecx
    7c70:	d3 fe                	sar    %cl,%esi
    7c72:	89 f0                	mov    %esi,%eax
    7c74:	39 c2                	cmp    %eax,%edx
    7c76:	7f 0f                	jg     7c87 <safe_lshift_func_uint8_t_u_u+0x3b>
    7c78:	0f b6 55 fc          	movzbl -0x4(%rbp),%edx
    7c7c:	8b 45 f8             	mov    -0x8(%rbp),%eax
    7c7f:	89 c1                	mov    %eax,%ecx
    7c81:	d3 e2                	shl    %cl,%edx
    7c83:	89 d0                	mov    %edx,%eax
    7c85:	eb 04                	jmp    7c8b <safe_lshift_func_uint8_t_u_u+0x3f>
    7c87:	0f b6 45 fc          	movzbl -0x4(%rbp),%eax
    7c8b:	5d                   	pop    %rbp
    7c8c:	c3                   	retq   

0000000000007c8d <safe_rshift_func_uint8_t_u_s>:
    7c8d:	f3 0f 1e fa          	endbr64 
    7c91:	55                   	push   %rbp
    7c92:	48 89 e5             	mov    %rsp,%rbp
    7c95:	89 f8                	mov    %edi,%eax
    7c97:	89 75 f8             	mov    %esi,-0x8(%rbp)
    7c9a:	88 45 fc             	mov    %al,-0x4(%rbp)
    7c9d:	83 7d f8 00          	cmpl   $0x0,-0x8(%rbp)
    7ca1:	78 15                	js     7cb8 <safe_rshift_func_uint8_t_u_s+0x2b>
    7ca3:	83 7d f8 1f          	cmpl   $0x1f,-0x8(%rbp)
    7ca7:	7f 0f                	jg     7cb8 <safe_rshift_func_uint8_t_u_s+0x2b>
    7ca9:	0f b6 55 fc          	movzbl -0x4(%rbp),%edx
    7cad:	8b 45 f8             	mov    -0x8(%rbp),%eax
    7cb0:	89 c1                	mov    %eax,%ecx
    7cb2:	d3 fa                	sar    %cl,%edx
    7cb4:	89 d0                	mov    %edx,%eax
    7cb6:	eb 04                	jmp    7cbc <safe_rshift_func_uint8_t_u_s+0x2f>
    7cb8:	0f b6 45 fc          	movzbl -0x4(%rbp),%eax
    7cbc:	5d                   	pop    %rbp
    7cbd:	c3                   	retq   

0000000000007cbe <safe_rshift_func_uint8_t_u_u>:
    7cbe:	f3 0f 1e fa          	endbr64 
    7cc2:	55                   	push   %rbp
    7cc3:	48 89 e5             	mov    %rsp,%rbp
    7cc6:	89 f8                	mov    %edi,%eax
    7cc8:	89 75 f8             	mov    %esi,-0x8(%rbp)
    7ccb:	88 45 fc             	mov    %al,-0x4(%rbp)
    7cce:	83 7d f8 1f          	cmpl   $0x1f,-0x8(%rbp)
    7cd2:	77 0f                	ja     7ce3 <safe_rshift_func_uint8_t_u_u+0x25>
    7cd4:	0f b6 55 fc          	movzbl -0x4(%rbp),%edx
    7cd8:	8b 45 f8             	mov    -0x8(%rbp),%eax
    7cdb:	89 c1                	mov    %eax,%ecx
    7cdd:	d3 fa                	sar    %cl,%edx
    7cdf:	89 d0                	mov    %edx,%eax
    7ce1:	eb 04                	jmp    7ce7 <safe_rshift_func_uint8_t_u_u+0x29>
    7ce3:	0f b6 45 fc          	movzbl -0x4(%rbp),%eax
    7ce7:	5d                   	pop    %rbp
    7ce8:	c3                   	retq   

0000000000007ce9 <safe_unary_minus_func_uint16_t_u>:
    7ce9:	f3 0f 1e fa          	endbr64 
    7ced:	55                   	push   %rbp
    7cee:	48 89 e5             	mov    %rsp,%rbp
    7cf1:	89 f8                	mov    %edi,%eax
    7cf3:	66 89 45 fc          	mov    %ax,-0x4(%rbp)
    7cf7:	0f b7 45 fc          	movzwl -0x4(%rbp),%eax
    7cfb:	f7 d8                	neg    %eax
    7cfd:	5d                   	pop    %rbp
    7cfe:	c3                   	retq   

0000000000007cff <safe_add_func_uint16_t_u_u>:
    7cff:	f3 0f 1e fa          	endbr64 
    7d03:	55                   	push   %rbp
    7d04:	48 89 e5             	mov    %rsp,%rbp
    7d07:	89 fa                	mov    %edi,%edx
    7d09:	89 f0                	mov    %esi,%eax
    7d0b:	66 89 55 fc          	mov    %dx,-0x4(%rbp)
    7d0f:	66 89 45 f8          	mov    %ax,-0x8(%rbp)
    7d13:	0f b7 55 fc          	movzwl -0x4(%rbp),%edx
    7d17:	0f b7 45 f8          	movzwl -0x8(%rbp),%eax
    7d1b:	01 d0                	add    %edx,%eax
    7d1d:	5d                   	pop    %rbp
    7d1e:	c3                   	retq   

0000000000007d1f <safe_sub_func_uint16_t_u_u>:
    7d1f:	f3 0f 1e fa          	endbr64 
    7d23:	55                   	push   %rbp
    7d24:	48 89 e5             	mov    %rsp,%rbp
    7d27:	89 fa                	mov    %edi,%edx
    7d29:	89 f0                	mov    %esi,%eax
    7d2b:	66 89 55 fc          	mov    %dx,-0x4(%rbp)
    7d2f:	66 89 45 f8          	mov    %ax,-0x8(%rbp)
    7d33:	0f b7 45 fc          	movzwl -0x4(%rbp),%eax
    7d37:	66 2b 45 f8          	sub    -0x8(%rbp),%ax
    7d3b:	5d                   	pop    %rbp
    7d3c:	c3                   	retq   

0000000000007d3d <safe_mul_func_uint16_t_u_u>:
    7d3d:	f3 0f 1e fa          	endbr64 
    7d41:	55                   	push   %rbp
    7d42:	48 89 e5             	mov    %rsp,%rbp
    7d45:	89 fa                	mov    %edi,%edx
    7d47:	89 f0                	mov    %esi,%eax
    7d49:	66 89 55 fc          	mov    %dx,-0x4(%rbp)
    7d4d:	66 89 45 f8          	mov    %ax,-0x8(%rbp)
    7d51:	0f b7 45 fc          	movzwl -0x4(%rbp),%eax
    7d55:	66 0f af 45 f8       	imul   -0x8(%rbp),%ax
    7d5a:	5d                   	pop    %rbp
    7d5b:	c3                   	retq   

0000000000007d5c <safe_mod_func_uint16_t_u_u>:
    7d5c:	f3 0f 1e fa          	endbr64 
    7d60:	55                   	push   %rbp
    7d61:	48 89 e5             	mov    %rsp,%rbp
    7d64:	89 fa                	mov    %edi,%edx
    7d66:	89 f0                	mov    %esi,%eax
    7d68:	66 89 55 fc          	mov    %dx,-0x4(%rbp)
    7d6c:	66 89 45 f8          	mov    %ax,-0x8(%rbp)
    7d70:	66 83 7d f8 00       	cmpw   $0x0,-0x8(%rbp)
    7d75:	74 11                	je     7d88 <safe_mod_func_uint16_t_u_u+0x2c>
    7d77:	0f b7 45 fc          	movzwl -0x4(%rbp),%eax
    7d7b:	ba 00 00 00 00       	mov    $0x0,%edx
    7d80:	66 f7 75 f8          	divw   -0x8(%rbp)
    7d84:	89 d0                	mov    %edx,%eax
    7d86:	eb 04                	jmp    7d8c <safe_mod_func_uint16_t_u_u+0x30>
    7d88:	0f b7 45 fc          	movzwl -0x4(%rbp),%eax
    7d8c:	5d                   	pop    %rbp
    7d8d:	c3                   	retq   

0000000000007d8e <safe_div_func_uint16_t_u_u>:
    7d8e:	f3 0f 1e fa          	endbr64 
    7d92:	55                   	push   %rbp
    7d93:	48 89 e5             	mov    %rsp,%rbp
    7d96:	89 fa                	mov    %edi,%edx
    7d98:	89 f0                	mov    %esi,%eax
    7d9a:	66 89 55 fc          	mov    %dx,-0x4(%rbp)
    7d9e:	66 89 45 f8          	mov    %ax,-0x8(%rbp)
    7da2:	66 83 7d f8 00       	cmpw   $0x0,-0x8(%rbp)
    7da7:	74 0f                	je     7db8 <safe_div_func_uint16_t_u_u+0x2a>
    7da9:	0f b7 45 fc          	movzwl -0x4(%rbp),%eax
    7dad:	ba 00 00 00 00       	mov    $0x0,%edx
    7db2:	66 f7 75 f8          	divw   -0x8(%rbp)
    7db6:	eb 04                	jmp    7dbc <safe_div_func_uint16_t_u_u+0x2e>
    7db8:	0f b7 45 fc          	movzwl -0x4(%rbp),%eax
    7dbc:	5d                   	pop    %rbp
    7dbd:	c3                   	retq   

0000000000007dbe <safe_lshift_func_uint16_t_u_s>:
    7dbe:	f3 0f 1e fa          	endbr64 
    7dc2:	55                   	push   %rbp
    7dc3:	48 89 e5             	mov    %rsp,%rbp
    7dc6:	89 f8                	mov    %edi,%eax
    7dc8:	89 75 f8             	mov    %esi,-0x8(%rbp)
    7dcb:	66 89 45 fc          	mov    %ax,-0x4(%rbp)
    7dcf:	83 7d f8 00          	cmpl   $0x0,-0x8(%rbp)
    7dd3:	78 2b                	js     7e00 <safe_lshift_func_uint16_t_u_s+0x42>
    7dd5:	83 7d f8 1f          	cmpl   $0x1f,-0x8(%rbp)
    7dd9:	7f 25                	jg     7e00 <safe_lshift_func_uint16_t_u_s+0x42>
    7ddb:	0f b7 55 fc          	movzwl -0x4(%rbp),%edx
    7ddf:	8b 45 f8             	mov    -0x8(%rbp),%eax
    7de2:	be ff ff 00 00       	mov    $0xffff,%esi
    7de7:	89 c1                	mov    %eax,%ecx
    7de9:	d3 fe                	sar    %cl,%esi
    7deb:	89 f0                	mov    %esi,%eax
    7ded:	39 c2                	cmp    %eax,%edx
    7def:	7f 0f                	jg     7e00 <safe_lshift_func_uint16_t_u_s+0x42>
    7df1:	0f b7 55 fc          	movzwl -0x4(%rbp),%edx
    7df5:	8b 45 f8             	mov    -0x8(%rbp),%eax
    7df8:	89 c1                	mov    %eax,%ecx
    7dfa:	d3 e2                	shl    %cl,%edx
    7dfc:	89 d0                	mov    %edx,%eax
    7dfe:	eb 04                	jmp    7e04 <safe_lshift_func_uint16_t_u_s+0x46>
    7e00:	0f b7 45 fc          	movzwl -0x4(%rbp),%eax
    7e04:	5d                   	pop    %rbp
    7e05:	c3                   	retq   

0000000000007e06 <safe_lshift_func_uint16_t_u_u>:
    7e06:	f3 0f 1e fa          	endbr64 
    7e0a:	55                   	push   %rbp
    7e0b:	48 89 e5             	mov    %rsp,%rbp
    7e0e:	89 f8                	mov    %edi,%eax
    7e10:	89 75 f8             	mov    %esi,-0x8(%rbp)
    7e13:	66 89 45 fc          	mov    %ax,-0x4(%rbp)
    7e17:	83 7d f8 1f          	cmpl   $0x1f,-0x8(%rbp)
    7e1b:	77 25                	ja     7e42 <safe_lshift_func_uint16_t_u_u+0x3c>
    7e1d:	0f b7 55 fc          	movzwl -0x4(%rbp),%edx
    7e21:	8b 45 f8             	mov    -0x8(%rbp),%eax
    7e24:	be ff ff 00 00       	mov    $0xffff,%esi
    7e29:	89 c1                	mov    %eax,%ecx
    7e2b:	d3 fe                	sar    %cl,%esi
    7e2d:	89 f0                	mov    %esi,%eax
    7e2f:	39 c2                	cmp    %eax,%edx
    7e31:	7f 0f                	jg     7e42 <safe_lshift_func_uint16_t_u_u+0x3c>
    7e33:	0f b7 55 fc          	movzwl -0x4(%rbp),%edx
    7e37:	8b 45 f8             	mov    -0x8(%rbp),%eax
    7e3a:	89 c1                	mov    %eax,%ecx
    7e3c:	d3 e2                	shl    %cl,%edx
    7e3e:	89 d0                	mov    %edx,%eax
    7e40:	eb 04                	jmp    7e46 <safe_lshift_func_uint16_t_u_u+0x40>
    7e42:	0f b7 45 fc          	movzwl -0x4(%rbp),%eax
    7e46:	5d                   	pop    %rbp
    7e47:	c3                   	retq   

0000000000007e48 <safe_rshift_func_uint16_t_u_s>:
    7e48:	f3 0f 1e fa          	endbr64 
    7e4c:	55                   	push   %rbp
    7e4d:	48 89 e5             	mov    %rsp,%rbp
    7e50:	89 f8                	mov    %edi,%eax
    7e52:	89 75 f8             	mov    %esi,-0x8(%rbp)
    7e55:	66 89 45 fc          	mov    %ax,-0x4(%rbp)
    7e59:	83 7d f8 00          	cmpl   $0x0,-0x8(%rbp)
    7e5d:	78 15                	js     7e74 <safe_rshift_func_uint16_t_u_s+0x2c>
    7e5f:	83 7d f8 1f          	cmpl   $0x1f,-0x8(%rbp)
    7e63:	7f 0f                	jg     7e74 <safe_rshift_func_uint16_t_u_s+0x2c>
    7e65:	0f b7 55 fc          	movzwl -0x4(%rbp),%edx
    7e69:	8b 45 f8             	mov    -0x8(%rbp),%eax
    7e6c:	89 c1                	mov    %eax,%ecx
    7e6e:	d3 fa                	sar    %cl,%edx
    7e70:	89 d0                	mov    %edx,%eax
    7e72:	eb 04                	jmp    7e78 <safe_rshift_func_uint16_t_u_s+0x30>
    7e74:	0f b7 45 fc          	movzwl -0x4(%rbp),%eax
    7e78:	5d                   	pop    %rbp
    7e79:	c3                   	retq   

0000000000007e7a <safe_rshift_func_uint16_t_u_u>:
    7e7a:	f3 0f 1e fa          	endbr64 
    7e7e:	55                   	push   %rbp
    7e7f:	48 89 e5             	mov    %rsp,%rbp
    7e82:	89 f8                	mov    %edi,%eax
    7e84:	89 75 f8             	mov    %esi,-0x8(%rbp)
    7e87:	66 89 45 fc          	mov    %ax,-0x4(%rbp)
    7e8b:	83 7d f8 1f          	cmpl   $0x1f,-0x8(%rbp)
    7e8f:	77 0f                	ja     7ea0 <safe_rshift_func_uint16_t_u_u+0x26>
    7e91:	0f b7 55 fc          	movzwl -0x4(%rbp),%edx
    7e95:	8b 45 f8             	mov    -0x8(%rbp),%eax
    7e98:	89 c1                	mov    %eax,%ecx
    7e9a:	d3 fa                	sar    %cl,%edx
    7e9c:	89 d0                	mov    %edx,%eax
    7e9e:	eb 04                	jmp    7ea4 <safe_rshift_func_uint16_t_u_u+0x2a>
    7ea0:	0f b7 45 fc          	movzwl -0x4(%rbp),%eax
    7ea4:	5d                   	pop    %rbp
    7ea5:	c3                   	retq   

0000000000007ea6 <safe_unary_minus_func_uint32_t_u>:
    7ea6:	f3 0f 1e fa          	endbr64 
    7eaa:	55                   	push   %rbp
    7eab:	48 89 e5             	mov    %rsp,%rbp
    7eae:	89 7d fc             	mov    %edi,-0x4(%rbp)
    7eb1:	8b 45 fc             	mov    -0x4(%rbp),%eax
    7eb4:	f7 d8                	neg    %eax
    7eb6:	5d                   	pop    %rbp
    7eb7:	c3                   	retq   

0000000000007eb8 <safe_add_func_uint32_t_u_u>:
    7eb8:	f3 0f 1e fa          	endbr64 
    7ebc:	55                   	push   %rbp
    7ebd:	48 89 e5             	mov    %rsp,%rbp
    7ec0:	89 7d fc             	mov    %edi,-0x4(%rbp)
    7ec3:	89 75 f8             	mov    %esi,-0x8(%rbp)
    7ec6:	8b 55 fc             	mov    -0x4(%rbp),%edx
    7ec9:	8b 45 f8             	mov    -0x8(%rbp),%eax
    7ecc:	01 d0                	add    %edx,%eax
    7ece:	5d                   	pop    %rbp
    7ecf:	c3                   	retq   

0000000000007ed0 <safe_sub_func_uint32_t_u_u>:
    7ed0:	f3 0f 1e fa          	endbr64 
    7ed4:	55                   	push   %rbp
    7ed5:	48 89 e5             	mov    %rsp,%rbp
    7ed8:	89 7d fc             	mov    %edi,-0x4(%rbp)
    7edb:	89 75 f8             	mov    %esi,-0x8(%rbp)
    7ede:	8b 45 fc             	mov    -0x4(%rbp),%eax
    7ee1:	2b 45 f8             	sub    -0x8(%rbp),%eax
    7ee4:	5d                   	pop    %rbp
    7ee5:	c3                   	retq   

0000000000007ee6 <safe_mul_func_uint32_t_u_u>:
    7ee6:	f3 0f 1e fa          	endbr64 
    7eea:	55                   	push   %rbp
    7eeb:	48 89 e5             	mov    %rsp,%rbp
    7eee:	89 7d fc             	mov    %edi,-0x4(%rbp)
    7ef1:	89 75 f8             	mov    %esi,-0x8(%rbp)
    7ef4:	8b 45 fc             	mov    -0x4(%rbp),%eax
    7ef7:	0f af 45 f8          	imul   -0x8(%rbp),%eax
    7efb:	5d                   	pop    %rbp
    7efc:	c3                   	retq   

0000000000007efd <safe_mod_func_uint32_t_u_u>:
    7efd:	f3 0f 1e fa          	endbr64 
    7f01:	55                   	push   %rbp
    7f02:	48 89 e5             	mov    %rsp,%rbp
    7f05:	89 7d fc             	mov    %edi,-0x4(%rbp)
    7f08:	89 75 f8             	mov    %esi,-0x8(%rbp)
    7f0b:	83 7d f8 00          	cmpl   $0x0,-0x8(%rbp)
    7f0f:	74 0f                	je     7f20 <safe_mod_func_uint32_t_u_u+0x23>
    7f11:	8b 45 fc             	mov    -0x4(%rbp),%eax
    7f14:	ba 00 00 00 00       	mov    $0x0,%edx
    7f19:	f7 75 f8             	divl   -0x8(%rbp)
    7f1c:	89 d0                	mov    %edx,%eax
    7f1e:	eb 03                	jmp    7f23 <safe_mod_func_uint32_t_u_u+0x26>
    7f20:	8b 45 fc             	mov    -0x4(%rbp),%eax
    7f23:	5d                   	pop    %rbp
    7f24:	c3                   	retq   

0000000000007f25 <safe_div_func_uint32_t_u_u>:
    7f25:	f3 0f 1e fa          	endbr64 
    7f29:	55                   	push   %rbp
    7f2a:	48 89 e5             	mov    %rsp,%rbp
    7f2d:	89 7d fc             	mov    %edi,-0x4(%rbp)
    7f30:	89 75 f8             	mov    %esi,-0x8(%rbp)
    7f33:	83 7d f8 00          	cmpl   $0x0,-0x8(%rbp)
    7f37:	74 0d                	je     7f46 <safe_div_func_uint32_t_u_u+0x21>
    7f39:	8b 45 fc             	mov    -0x4(%rbp),%eax
    7f3c:	ba 00 00 00 00       	mov    $0x0,%edx
    7f41:	f7 75 f8             	divl   -0x8(%rbp)
    7f44:	eb 03                	jmp    7f49 <safe_div_func_uint32_t_u_u+0x24>
    7f46:	8b 45 fc             	mov    -0x4(%rbp),%eax
    7f49:	5d                   	pop    %rbp
    7f4a:	c3                   	retq   

0000000000007f4b <safe_lshift_func_uint32_t_u_s>:
    7f4b:	f3 0f 1e fa          	endbr64 
    7f4f:	55                   	push   %rbp
    7f50:	48 89 e5             	mov    %rsp,%rbp
    7f53:	89 7d fc             	mov    %edi,-0x4(%rbp)
    7f56:	89 75 f8             	mov    %esi,-0x8(%rbp)
    7f59:	83 7d f8 00          	cmpl   $0x0,-0x8(%rbp)
    7f5d:	78 27                	js     7f86 <safe_lshift_func_uint32_t_u_s+0x3b>
    7f5f:	83 7d f8 1f          	cmpl   $0x1f,-0x8(%rbp)
    7f63:	7f 21                	jg     7f86 <safe_lshift_func_uint32_t_u_s+0x3b>
    7f65:	8b 45 f8             	mov    -0x8(%rbp),%eax
    7f68:	ba ff ff ff ff       	mov    $0xffffffff,%edx
    7f6d:	89 c1                	mov    %eax,%ecx
    7f6f:	d3 ea                	shr    %cl,%edx
    7f71:	89 d0                	mov    %edx,%eax
    7f73:	39 45 fc             	cmp    %eax,-0x4(%rbp)
    7f76:	77 0e                	ja     7f86 <safe_lshift_func_uint32_t_u_s+0x3b>
    7f78:	8b 45 f8             	mov    -0x8(%rbp),%eax
    7f7b:	8b 55 fc             	mov    -0x4(%rbp),%edx
    7f7e:	89 c1                	mov    %eax,%ecx
    7f80:	d3 e2                	shl    %cl,%edx
    7f82:	89 d0                	mov    %edx,%eax
    7f84:	eb 03                	jmp    7f89 <safe_lshift_func_uint32_t_u_s+0x3e>
    7f86:	8b 45 fc             	mov    -0x4(%rbp),%eax
    7f89:	5d                   	pop    %rbp
    7f8a:	c3                   	retq   

0000000000007f8b <safe_lshift_func_uint32_t_u_u>:
    7f8b:	f3 0f 1e fa          	endbr64 
    7f8f:	55                   	push   %rbp
    7f90:	48 89 e5             	mov    %rsp,%rbp
    7f93:	89 7d fc             	mov    %edi,-0x4(%rbp)
    7f96:	89 75 f8             	mov    %esi,-0x8(%rbp)
    7f99:	83 7d f8 1f          	cmpl   $0x1f,-0x8(%rbp)
    7f9d:	77 21                	ja     7fc0 <safe_lshift_func_uint32_t_u_u+0x35>
    7f9f:	8b 45 f8             	mov    -0x8(%rbp),%eax
    7fa2:	ba ff ff ff ff       	mov    $0xffffffff,%edx
    7fa7:	89 c1                	mov    %eax,%ecx
    7fa9:	d3 ea                	shr    %cl,%edx
    7fab:	89 d0                	mov    %edx,%eax
    7fad:	39 45 fc             	cmp    %eax,-0x4(%rbp)
    7fb0:	77 0e                	ja     7fc0 <safe_lshift_func_uint32_t_u_u+0x35>
    7fb2:	8b 45 f8             	mov    -0x8(%rbp),%eax
    7fb5:	8b 55 fc             	mov    -0x4(%rbp),%edx
    7fb8:	89 c1                	mov    %eax,%ecx
    7fba:	d3 e2                	shl    %cl,%edx
    7fbc:	89 d0                	mov    %edx,%eax
    7fbe:	eb 03                	jmp    7fc3 <safe_lshift_func_uint32_t_u_u+0x38>
    7fc0:	8b 45 fc             	mov    -0x4(%rbp),%eax
    7fc3:	5d                   	pop    %rbp
    7fc4:	c3                   	retq   

0000000000007fc5 <safe_rshift_func_uint32_t_u_s>:
    7fc5:	f3 0f 1e fa          	endbr64 
    7fc9:	55                   	push   %rbp
    7fca:	48 89 e5             	mov    %rsp,%rbp
    7fcd:	89 7d fc             	mov    %edi,-0x4(%rbp)
    7fd0:	89 75 f8             	mov    %esi,-0x8(%rbp)
    7fd3:	83 7d f8 00          	cmpl   $0x0,-0x8(%rbp)
    7fd7:	78 14                	js     7fed <safe_rshift_func_uint32_t_u_s+0x28>
    7fd9:	83 7d f8 1f          	cmpl   $0x1f,-0x8(%rbp)
    7fdd:	7f 0e                	jg     7fed <safe_rshift_func_uint32_t_u_s+0x28>
    7fdf:	8b 45 f8             	mov    -0x8(%rbp),%eax
    7fe2:	8b 55 fc             	mov    -0x4(%rbp),%edx
    7fe5:	89 c1                	mov    %eax,%ecx
    7fe7:	d3 ea                	shr    %cl,%edx
    7fe9:	89 d0                	mov    %edx,%eax
    7feb:	eb 03                	jmp    7ff0 <safe_rshift_func_uint32_t_u_s+0x2b>
    7fed:	8b 45 fc             	mov    -0x4(%rbp),%eax
    7ff0:	5d                   	pop    %rbp
    7ff1:	c3                   	retq   

0000000000007ff2 <safe_rshift_func_uint32_t_u_u>:
    7ff2:	f3 0f 1e fa          	endbr64 
    7ff6:	55                   	push   %rbp
    7ff7:	48 89 e5             	mov    %rsp,%rbp
    7ffa:	89 7d fc             	mov    %edi,-0x4(%rbp)
    7ffd:	89 75 f8             	mov    %esi,-0x8(%rbp)
    8000:	83 7d f8 1f          	cmpl   $0x1f,-0x8(%rbp)
    8004:	77 0e                	ja     8014 <safe_rshift_func_uint32_t_u_u+0x22>
    8006:	8b 45 f8             	mov    -0x8(%rbp),%eax
    8009:	8b 55 fc             	mov    -0x4(%rbp),%edx
    800c:	89 c1                	mov    %eax,%ecx
    800e:	d3 ea                	shr    %cl,%edx
    8010:	89 d0                	mov    %edx,%eax
    8012:	eb 03                	jmp    8017 <safe_rshift_func_uint32_t_u_u+0x25>
    8014:	8b 45 fc             	mov    -0x4(%rbp),%eax
    8017:	5d                   	pop    %rbp
    8018:	c3                   	retq   

0000000000008019 <safe_unary_minus_func_uint64_t_u>:
    8019:	f3 0f 1e fa          	endbr64 
    801d:	55                   	push   %rbp
    801e:	48 89 e5             	mov    %rsp,%rbp
    8021:	48 89 7d f8          	mov    %rdi,-0x8(%rbp)
    8025:	48 8b 45 f8          	mov    -0x8(%rbp),%rax
    8029:	48 f7 d8             	neg    %rax
    802c:	5d                   	pop    %rbp
    802d:	c3                   	retq   

000000000000802e <safe_add_func_uint64_t_u_u>:
    802e:	f3 0f 1e fa          	endbr64 
    8032:	55                   	push   %rbp
    8033:	48 89 e5             	mov    %rsp,%rbp
    8036:	48 89 7d f8          	mov    %rdi,-0x8(%rbp)
    803a:	48 89 75 f0          	mov    %rsi,-0x10(%rbp)
    803e:	48 8b 55 f8          	mov    -0x8(%rbp),%rdx
    8042:	48 8b 45 f0          	mov    -0x10(%rbp),%rax
    8046:	48 01 d0             	add    %rdx,%rax
    8049:	5d                   	pop    %rbp
    804a:	c3                   	retq   

000000000000804b <safe_sub_func_uint64_t_u_u>:
    804b:	f3 0f 1e fa          	endbr64 
    804f:	55                   	push   %rbp
    8050:	48 89 e5             	mov    %rsp,%rbp
    8053:	48 89 7d f8          	mov    %rdi,-0x8(%rbp)
    8057:	48 89 75 f0          	mov    %rsi,-0x10(%rbp)
    805b:	48 8b 45 f8          	mov    -0x8(%rbp),%rax
    805f:	48 2b 45 f0          	sub    -0x10(%rbp),%rax
    8063:	5d                   	pop    %rbp
    8064:	c3                   	retq   

0000000000008065 <safe_mul_func_uint64_t_u_u>:
    8065:	f3 0f 1e fa          	endbr64 
    8069:	55                   	push   %rbp
    806a:	48 89 e5             	mov    %rsp,%rbp
    806d:	48 89 7d f8          	mov    %rdi,-0x8(%rbp)
    8071:	48 89 75 f0          	mov    %rsi,-0x10(%rbp)
    8075:	48 8b 45 f8          	mov    -0x8(%rbp),%rax
    8079:	48 0f af 45 f0       	imul   -0x10(%rbp),%rax
    807e:	5d                   	pop    %rbp
    807f:	c3                   	retq   

0000000000008080 <safe_mod_func_uint64_t_u_u>:
    8080:	f3 0f 1e fa          	endbr64 
    8084:	55                   	push   %rbp
    8085:	48 89 e5             	mov    %rsp,%rbp
    8088:	48 89 7d f8          	mov    %rdi,-0x8(%rbp)
    808c:	48 89 75 f0          	mov    %rsi,-0x10(%rbp)
    8090:	48 83 7d f0 00       	cmpq   $0x0,-0x10(%rbp)
    8095:	74 12                	je     80a9 <safe_mod_func_uint64_t_u_u+0x29>
    8097:	48 8b 45 f8          	mov    -0x8(%rbp),%rax
    809b:	ba 00 00 00 00       	mov    $0x0,%edx
    80a0:	48 f7 75 f0          	divq   -0x10(%rbp)
    80a4:	48 89 d0             	mov    %rdx,%rax
    80a7:	eb 04                	jmp    80ad <safe_mod_func_uint64_t_u_u+0x2d>
    80a9:	48 8b 45 f8          	mov    -0x8(%rbp),%rax
    80ad:	5d                   	pop    %rbp
    80ae:	c3                   	retq   

00000000000080af <safe_div_func_uint64_t_u_u>:
    80af:	f3 0f 1e fa          	endbr64 
    80b3:	55                   	push   %rbp
    80b4:	48 89 e5             	mov    %rsp,%rbp
    80b7:	48 89 7d f8          	mov    %rdi,-0x8(%rbp)
    80bb:	48 89 75 f0          	mov    %rsi,-0x10(%rbp)
    80bf:	48 83 7d f0 00       	cmpq   $0x0,-0x10(%rbp)
    80c4:	74 0f                	je     80d5 <safe_div_func_uint64_t_u_u+0x26>
    80c6:	48 8b 45 f8          	mov    -0x8(%rbp),%rax
    80ca:	ba 00 00 00 00       	mov    $0x0,%edx
    80cf:	48 f7 75 f0          	divq   -0x10(%rbp)
    80d3:	eb 04                	jmp    80d9 <safe_div_func_uint64_t_u_u+0x2a>
    80d5:	48 8b 45 f8          	mov    -0x8(%rbp),%rax
    80d9:	5d                   	pop    %rbp
    80da:	c3                   	retq   

00000000000080db <safe_lshift_func_uint64_t_u_s>:
    80db:	f3 0f 1e fa          	endbr64 
    80df:	55                   	push   %rbp
    80e0:	48 89 e5             	mov    %rsp,%rbp
    80e3:	48 89 7d f8          	mov    %rdi,-0x8(%rbp)
    80e7:	89 75 f4             	mov    %esi,-0xc(%rbp)
    80ea:	83 7d f4 00          	cmpl   $0x0,-0xc(%rbp)
    80ee:	78 2f                	js     811f <safe_lshift_func_uint64_t_u_s+0x44>
    80f0:	83 7d f4 1f          	cmpl   $0x1f,-0xc(%rbp)
    80f4:	7f 29                	jg     811f <safe_lshift_func_uint64_t_u_s+0x44>
    80f6:	8b 45 f4             	mov    -0xc(%rbp),%eax
    80f9:	48 c7 c2 ff ff ff ff 	mov    $0xffffffffffffffff,%rdx
    8100:	89 c1                	mov    %eax,%ecx
    8102:	48 d3 ea             	shr    %cl,%rdx
    8105:	48 89 d0             	mov    %rdx,%rax
    8108:	48 39 45 f8          	cmp    %rax,-0x8(%rbp)
    810c:	77 11                	ja     811f <safe_lshift_func_uint64_t_u_s+0x44>
    810e:	8b 45 f4             	mov    -0xc(%rbp),%eax
    8111:	48 8b 55 f8          	mov    -0x8(%rbp),%rdx
    8115:	89 c1                	mov    %eax,%ecx
    8117:	48 d3 e2             	shl    %cl,%rdx
    811a:	48 89 d0             	mov    %rdx,%rax
    811d:	eb 04                	jmp    8123 <safe_lshift_func_uint64_t_u_s+0x48>
    811f:	48 8b 45 f8          	mov    -0x8(%rbp),%rax
    8123:	5d                   	pop    %rbp
    8124:	c3                   	retq   

0000000000008125 <safe_lshift_func_uint64_t_u_u>:
    8125:	f3 0f 1e fa          	endbr64 
    8129:	55                   	push   %rbp
    812a:	48 89 e5             	mov    %rsp,%rbp
    812d:	48 89 7d f8          	mov    %rdi,-0x8(%rbp)
    8131:	89 75 f4             	mov    %esi,-0xc(%rbp)
    8134:	83 7d f4 1f          	cmpl   $0x1f,-0xc(%rbp)
    8138:	77 29                	ja     8163 <safe_lshift_func_uint64_t_u_u+0x3e>
    813a:	8b 45 f4             	mov    -0xc(%rbp),%eax
    813d:	48 c7 c2 ff ff ff ff 	mov    $0xffffffffffffffff,%rdx
    8144:	89 c1                	mov    %eax,%ecx
    8146:	48 d3 ea             	shr    %cl,%rdx
    8149:	48 89 d0             	mov    %rdx,%rax
    814c:	48 39 45 f8          	cmp    %rax,-0x8(%rbp)
    8150:	77 11                	ja     8163 <safe_lshift_func_uint64_t_u_u+0x3e>
    8152:	8b 45 f4             	mov    -0xc(%rbp),%eax
    8155:	48 8b 55 f8          	mov    -0x8(%rbp),%rdx
    8159:	89 c1                	mov    %eax,%ecx
    815b:	48 d3 e2             	shl    %cl,%rdx
    815e:	48 89 d0             	mov    %rdx,%rax
    8161:	eb 04                	jmp    8167 <safe_lshift_func_uint64_t_u_u+0x42>
    8163:	48 8b 45 f8          	mov    -0x8(%rbp),%rax
    8167:	5d                   	pop    %rbp
    8168:	c3                   	retq   

0000000000008169 <safe_rshift_func_uint64_t_u_s>:
    8169:	f3 0f 1e fa          	endbr64 
    816d:	55                   	push   %rbp
    816e:	48 89 e5             	mov    %rsp,%rbp
    8171:	48 89 7d f8          	mov    %rdi,-0x8(%rbp)
    8175:	89 75 f4             	mov    %esi,-0xc(%rbp)
    8178:	83 7d f4 00          	cmpl   $0x0,-0xc(%rbp)
    817c:	78 17                	js     8195 <safe_rshift_func_uint64_t_u_s+0x2c>
    817e:	83 7d f4 1f          	cmpl   $0x1f,-0xc(%rbp)
    8182:	7f 11                	jg     8195 <safe_rshift_func_uint64_t_u_s+0x2c>
    8184:	8b 45 f4             	mov    -0xc(%rbp),%eax
    8187:	48 8b 55 f8          	mov    -0x8(%rbp),%rdx
    818b:	89 c1                	mov    %eax,%ecx
    818d:	48 d3 ea             	shr    %cl,%rdx
    8190:	48 89 d0             	mov    %rdx,%rax
    8193:	eb 04                	jmp    8199 <safe_rshift_func_uint64_t_u_s+0x30>
    8195:	48 8b 45 f8          	mov    -0x8(%rbp),%rax
    8199:	5d                   	pop    %rbp
    819a:	c3                   	retq   

000000000000819b <safe_rshift_func_uint64_t_u_u>:
    819b:	f3 0f 1e fa          	endbr64 
    819f:	55                   	push   %rbp
    81a0:	48 89 e5             	mov    %rsp,%rbp
    81a3:	48 89 7d f8          	mov    %rdi,-0x8(%rbp)
    81a7:	89 75 f4             	mov    %esi,-0xc(%rbp)
    81aa:	83 7d f4 1f          	cmpl   $0x1f,-0xc(%rbp)
    81ae:	77 11                	ja     81c1 <safe_rshift_func_uint64_t_u_u+0x26>
    81b0:	8b 45 f4             	mov    -0xc(%rbp),%eax
    81b3:	48 8b 55 f8          	mov    -0x8(%rbp),%rdx
    81b7:	89 c1                	mov    %eax,%ecx
    81b9:	48 d3 ea             	shr    %cl,%rdx
    81bc:	48 89 d0             	mov    %rdx,%rax
    81bf:	eb 04                	jmp    81c5 <safe_rshift_func_uint64_t_u_u+0x2a>
    81c1:	48 8b 45 f8          	mov    -0x8(%rbp),%rax
    81c5:	5d                   	pop    %rbp
    81c6:	c3                   	retq   

00000000000081c7 <safe_add_func_float_f_f>:
    81c7:	f3 0f 1e fa          	endbr64 
    81cb:	55                   	push   %rbp
    81cc:	48 89 e5             	mov    %rsp,%rbp
    81cf:	f3 0f 11 45 fc       	movss  %xmm0,-0x4(%rbp)
    81d4:	f3 0f 11 4d f8       	movss  %xmm1,-0x8(%rbp)
    81d9:	f3 0f 10 4d fc       	movss  -0x4(%rbp),%xmm1
    81de:	f3 0f 10 05 c2 a6 00 	movss  0xa6c2(%rip),%xmm0        # 128a8 <l_1120.4454+0x28>
    81e5:	00 
    81e6:	f3 0f 59 c8          	mulss  %xmm0,%xmm1
    81ea:	f3 0f 10 55 f8       	movss  -0x8(%rbp),%xmm2
    81ef:	f3 0f 10 05 b1 a6 00 	movss  0xa6b1(%rip),%xmm0        # 128a8 <l_1120.4454+0x28>
    81f6:	00 
    81f7:	f3 0f 59 c2          	mulss  %xmm2,%xmm0
    81fb:	f3 0f 58 c1          	addss  %xmm1,%xmm0
    81ff:	f3 0f 10 0d a9 a6 00 	movss  0xa6a9(%rip),%xmm1        # 128b0 <l_1120.4454+0x30>
    8206:	00 
    8207:	0f 54 c1             	andps  %xmm1,%xmm0
    820a:	0f 2f 05 af a6 00 00 	comiss 0xa6af(%rip),%xmm0        # 128c0 <l_1120.4454+0x40>
    8211:	76 07                	jbe    821a <safe_add_func_float_f_f+0x53>
    8213:	f3 0f 10 45 fc       	movss  -0x4(%rbp),%xmm0
    8218:	eb 0a                	jmp    8224 <safe_add_func_float_f_f+0x5d>
    821a:	f3 0f 10 45 fc       	movss  -0x4(%rbp),%xmm0
    821f:	f3 0f 58 45 f8       	addss  -0x8(%rbp),%xmm0
    8224:	5d                   	pop    %rbp
    8225:	c3                   	retq   

0000000000008226 <safe_sub_func_float_f_f>:
    8226:	f3 0f 1e fa          	endbr64 
    822a:	55                   	push   %rbp
    822b:	48 89 e5             	mov    %rsp,%rbp
    822e:	f3 0f 11 45 fc       	movss  %xmm0,-0x4(%rbp)
    8233:	f3 0f 11 4d f8       	movss  %xmm1,-0x8(%rbp)
    8238:	f3 0f 10 4d fc       	movss  -0x4(%rbp),%xmm1
    823d:	f3 0f 10 05 63 a6 00 	movss  0xa663(%rip),%xmm0        # 128a8 <l_1120.4454+0x28>
    8244:	00 
    8245:	f3 0f 59 c1          	mulss  %xmm1,%xmm0
    8249:	f3 0f 10 55 f8       	movss  -0x8(%rbp),%xmm2
    824e:	f3 0f 10 0d 52 a6 00 	movss  0xa652(%rip),%xmm1        # 128a8 <l_1120.4454+0x28>
    8255:	00 
    8256:	f3 0f 59 ca          	mulss  %xmm2,%xmm1
    825a:	f3 0f 5c c1          	subss  %xmm1,%xmm0
    825e:	f3 0f 10 0d 4a a6 00 	movss  0xa64a(%rip),%xmm1        # 128b0 <l_1120.4454+0x30>
    8265:	00 
    8266:	0f 54 c1             	andps  %xmm1,%xmm0
    8269:	0f 2f 05 50 a6 00 00 	comiss 0xa650(%rip),%xmm0        # 128c0 <l_1120.4454+0x40>
    8270:	76 07                	jbe    8279 <safe_sub_func_float_f_f+0x53>
    8272:	f3 0f 10 45 fc       	movss  -0x4(%rbp),%xmm0
    8277:	eb 0a                	jmp    8283 <safe_sub_func_float_f_f+0x5d>
    8279:	f3 0f 10 45 fc       	movss  -0x4(%rbp),%xmm0
    827e:	f3 0f 5c 45 f8       	subss  -0x8(%rbp),%xmm0
    8283:	5d                   	pop    %rbp
    8284:	c3                   	retq   

0000000000008285 <safe_mul_func_float_f_f>:
    8285:	f3 0f 1e fa          	endbr64 
    8289:	55                   	push   %rbp
    828a:	48 89 e5             	mov    %rsp,%rbp
    828d:	f3 0f 11 45 fc       	movss  %xmm0,-0x4(%rbp)
    8292:	f3 0f 11 4d f8       	movss  %xmm1,-0x8(%rbp)
    8297:	f3 0f 10 4d fc       	movss  -0x4(%rbp),%xmm1
    829c:	f3 0f 10 05 20 a6 00 	movss  0xa620(%rip),%xmm0        # 128c4 <l_1120.4454+0x44>
    82a3:	00 
    82a4:	f3 0f 59 c8          	mulss  %xmm0,%xmm1
    82a8:	f3 0f 10 55 f8       	movss  -0x8(%rbp),%xmm2
    82ad:	f3 0f 10 05 13 a6 00 	movss  0xa613(%rip),%xmm0        # 128c8 <l_1120.4454+0x48>
    82b4:	00 
    82b5:	f3 0f 59 c2          	mulss  %xmm2,%xmm0
    82b9:	f3 0f 59 c1          	mulss  %xmm1,%xmm0
    82bd:	f3 0f 10 0d eb a5 00 	movss  0xa5eb(%rip),%xmm1        # 128b0 <l_1120.4454+0x30>
    82c4:	00 
    82c5:	0f 54 c1             	andps  %xmm1,%xmm0
    82c8:	0f 2f 05 fd a5 00 00 	comiss 0xa5fd(%rip),%xmm0        # 128cc <l_1120.4454+0x4c>
    82cf:	76 07                	jbe    82d8 <safe_mul_func_float_f_f+0x53>
    82d1:	f3 0f 10 45 fc       	movss  -0x4(%rbp),%xmm0
    82d6:	eb 0a                	jmp    82e2 <safe_mul_func_float_f_f+0x5d>
    82d8:	f3 0f 10 45 fc       	movss  -0x4(%rbp),%xmm0
    82dd:	f3 0f 59 45 f8       	mulss  -0x8(%rbp),%xmm0
    82e2:	5d                   	pop    %rbp
    82e3:	c3                   	retq   

00000000000082e4 <safe_div_func_float_f_f>:
    82e4:	f3 0f 1e fa          	endbr64 
    82e8:	55                   	push   %rbp
    82e9:	48 89 e5             	mov    %rsp,%rbp
    82ec:	f3 0f 11 45 fc       	movss  %xmm0,-0x4(%rbp)
    82f1:	f3 0f 11 4d f8       	movss  %xmm1,-0x8(%rbp)
    82f6:	f3 0f 10 45 f8       	movss  -0x8(%rbp),%xmm0
    82fb:	f3 0f 10 0d ad a5 00 	movss  0xa5ad(%rip),%xmm1        # 128b0 <l_1120.4454+0x30>
    8302:	00 
    8303:	0f 54 c8             	andps  %xmm0,%xmm1
    8306:	f3 0f 10 05 c2 a5 00 	movss  0xa5c2(%rip),%xmm0        # 128d0 <l_1120.4454+0x50>
    830d:	00 
    830e:	0f 2f c1             	comiss %xmm1,%xmm0
    8311:	0f 97 c0             	seta   %al
    8314:	83 f0 01             	xor    $0x1,%eax
    8317:	84 c0                	test   %al,%al
    8319:	75 56                	jne    8371 <safe_div_func_float_f_f+0x8d>
    831b:	66 0f ef c0          	pxor   %xmm0,%xmm0
    831f:	0f 2e 45 f8          	ucomiss -0x8(%rbp),%xmm0
    8323:	7a 0a                	jp     832f <safe_div_func_float_f_f+0x4b>
    8325:	66 0f ef c0          	pxor   %xmm0,%xmm0
    8329:	0f 2e 45 f8          	ucomiss -0x8(%rbp),%xmm0
    832d:	74 4e                	je     837d <safe_div_func_float_f_f+0x99>
    832f:	f3 0f 10 4d fc       	movss  -0x4(%rbp),%xmm1
    8334:	f3 0f 10 05 98 a5 00 	movss  0xa598(%rip),%xmm0        # 128d4 <l_1120.4454+0x54>
    833b:	00 
    833c:	f3 0f 59 c1          	mulss  %xmm1,%xmm0
    8340:	f3 0f 10 55 f8       	movss  -0x8(%rbp),%xmm2
    8345:	f3 0f 10 0d 8b a5 00 	movss  0xa58b(%rip),%xmm1        # 128d8 <l_1120.4454+0x58>
    834c:	00 
    834d:	f3 0f 59 ca          	mulss  %xmm2,%xmm1
    8351:	f3 0f 5e c1          	divss  %xmm1,%xmm0
    8355:	f3 0f 10 0d 53 a5 00 	movss  0xa553(%rip),%xmm1        # 128b0 <l_1120.4454+0x30>
    835c:	00 
    835d:	0f 54 c1             	andps  %xmm1,%xmm0
    8360:	0f 2f 05 75 a5 00 00 	comiss 0xa575(%rip),%xmm0        # 128dc <l_1120.4454+0x5c>
    8367:	0f 97 c0             	seta   %al
    836a:	83 f0 01             	xor    $0x1,%eax
    836d:	84 c0                	test   %al,%al
    836f:	74 0c                	je     837d <safe_div_func_float_f_f+0x99>
    8371:	f3 0f 10 45 fc       	movss  -0x4(%rbp),%xmm0
    8376:	f3 0f 5e 45 f8       	divss  -0x8(%rbp),%xmm0
    837b:	eb 05                	jmp    8382 <safe_div_func_float_f_f+0x9e>
    837d:	f3 0f 10 45 fc       	movss  -0x4(%rbp),%xmm0
    8382:	5d                   	pop    %rbp
    8383:	c3                   	retq   

0000000000008384 <safe_add_func_double_f_f>:
    8384:	f3 0f 1e fa          	endbr64 
    8388:	55                   	push   %rbp
    8389:	48 89 e5             	mov    %rsp,%rbp
    838c:	f2 0f 11 45 f8       	movsd  %xmm0,-0x8(%rbp)
    8391:	f2 0f 11 4d f0       	movsd  %xmm1,-0x10(%rbp)
    8396:	f2 0f 10 4d f8       	movsd  -0x8(%rbp),%xmm1
    839b:	f2 0f 10 05 3d a5 00 	movsd  0xa53d(%rip),%xmm0        # 128e0 <l_1120.4454+0x60>
    83a2:	00 
    83a3:	f2 0f 59 c8          	mulsd  %xmm0,%xmm1
    83a7:	f2 0f 10 55 f0       	movsd  -0x10(%rbp),%xmm2
    83ac:	f2 0f 10 05 2c a5 00 	movsd  0xa52c(%rip),%xmm0        # 128e0 <l_1120.4454+0x60>
    83b3:	00 
    83b4:	f2 0f 59 c2          	mulsd  %xmm2,%xmm0
    83b8:	f2 0f 58 c1          	addsd  %xmm1,%xmm0
    83bc:	f3 0f 7e 0d 2c a5 00 	movq   0xa52c(%rip),%xmm1        # 128f0 <l_1120.4454+0x70>
    83c3:	00 
    83c4:	66 0f 54 c1          	andpd  %xmm1,%xmm0
    83c8:	66 0f 2f 05 30 a5 00 	comisd 0xa530(%rip),%xmm0        # 12900 <l_1120.4454+0x80>
    83cf:	00 
    83d0:	76 07                	jbe    83d9 <safe_add_func_double_f_f+0x55>
    83d2:	f2 0f 10 45 f8       	movsd  -0x8(%rbp),%xmm0
    83d7:	eb 0a                	jmp    83e3 <safe_add_func_double_f_f+0x5f>
    83d9:	f2 0f 10 45 f8       	movsd  -0x8(%rbp),%xmm0
    83de:	f2 0f 58 45 f0       	addsd  -0x10(%rbp),%xmm0
    83e3:	5d                   	pop    %rbp
    83e4:	c3                   	retq   

00000000000083e5 <safe_sub_func_double_f_f>:
    83e5:	f3 0f 1e fa          	endbr64 
    83e9:	55                   	push   %rbp
    83ea:	48 89 e5             	mov    %rsp,%rbp
    83ed:	f2 0f 11 45 f8       	movsd  %xmm0,-0x8(%rbp)
    83f2:	f2 0f 11 4d f0       	movsd  %xmm1,-0x10(%rbp)
    83f7:	f2 0f 10 4d f8       	movsd  -0x8(%rbp),%xmm1
    83fc:	f2 0f 10 05 dc a4 00 	movsd  0xa4dc(%rip),%xmm0        # 128e0 <l_1120.4454+0x60>
    8403:	00 
    8404:	f2 0f 59 c1          	mulsd  %xmm1,%xmm0
    8408:	f2 0f 10 55 f0       	movsd  -0x10(%rbp),%xmm2
    840d:	f2 0f 10 0d cb a4 00 	movsd  0xa4cb(%rip),%xmm1        # 128e0 <l_1120.4454+0x60>
    8414:	00 
    8415:	f2 0f 59 ca          	mulsd  %xmm2,%xmm1
    8419:	f2 0f 5c c1          	subsd  %xmm1,%xmm0
    841d:	f3 0f 7e 0d cb a4 00 	movq   0xa4cb(%rip),%xmm1        # 128f0 <l_1120.4454+0x70>
    8424:	00 
    8425:	66 0f 54 c1          	andpd  %xmm1,%xmm0
    8429:	66 0f 2f 05 cf a4 00 	comisd 0xa4cf(%rip),%xmm0        # 12900 <l_1120.4454+0x80>
    8430:	00 
    8431:	76 07                	jbe    843a <safe_sub_func_double_f_f+0x55>
    8433:	f2 0f 10 45 f8       	movsd  -0x8(%rbp),%xmm0
    8438:	eb 0a                	jmp    8444 <safe_sub_func_double_f_f+0x5f>
    843a:	f2 0f 10 45 f8       	movsd  -0x8(%rbp),%xmm0
    843f:	f2 0f 5c 45 f0       	subsd  -0x10(%rbp),%xmm0
    8444:	5d                   	pop    %rbp
    8445:	c3                   	retq   

0000000000008446 <safe_mul_func_double_f_f>:
    8446:	f3 0f 1e fa          	endbr64 
    844a:	55                   	push   %rbp
    844b:	48 89 e5             	mov    %rsp,%rbp
    844e:	f2 0f 11 45 f8       	movsd  %xmm0,-0x8(%rbp)
    8453:	f2 0f 11 4d f0       	movsd  %xmm1,-0x10(%rbp)
    8458:	f2 0f 10 4d f8       	movsd  -0x8(%rbp),%xmm1
    845d:	f2 0f 10 05 a3 a4 00 	movsd  0xa4a3(%rip),%xmm0        # 12908 <l_1120.4454+0x88>
    8464:	00 
    8465:	f2 0f 59 c8          	mulsd  %xmm0,%xmm1
    8469:	f2 0f 10 55 f0       	movsd  -0x10(%rbp),%xmm2
    846e:	f2 0f 10 05 9a a4 00 	movsd  0xa49a(%rip),%xmm0        # 12910 <l_1120.4454+0x90>
    8475:	00 
    8476:	f2 0f 59 c2          	mulsd  %xmm2,%xmm0
    847a:	f2 0f 59 c1          	mulsd  %xmm1,%xmm0
    847e:	f3 0f 7e 0d 6a a4 00 	movq   0xa46a(%rip),%xmm1        # 128f0 <l_1120.4454+0x70>
    8485:	00 
    8486:	66 0f 54 c1          	andpd  %xmm1,%xmm0
    848a:	66 0f 2f 05 86 a4 00 	comisd 0xa486(%rip),%xmm0        # 12918 <l_1120.4454+0x98>
    8491:	00 
    8492:	76 07                	jbe    849b <safe_mul_func_double_f_f+0x55>
    8494:	f2 0f 10 45 f8       	movsd  -0x8(%rbp),%xmm0
    8499:	eb 0a                	jmp    84a5 <safe_mul_func_double_f_f+0x5f>
    849b:	f2 0f 10 45 f8       	movsd  -0x8(%rbp),%xmm0
    84a0:	f2 0f 59 45 f0       	mulsd  -0x10(%rbp),%xmm0
    84a5:	5d                   	pop    %rbp
    84a6:	c3                   	retq   

00000000000084a7 <safe_div_func_double_f_f>:
    84a7:	f3 0f 1e fa          	endbr64 
    84ab:	55                   	push   %rbp
    84ac:	48 89 e5             	mov    %rsp,%rbp
    84af:	f2 0f 11 45 f8       	movsd  %xmm0,-0x8(%rbp)
    84b4:	f2 0f 11 4d f0       	movsd  %xmm1,-0x10(%rbp)
    84b9:	f2 0f 10 45 f0       	movsd  -0x10(%rbp),%xmm0
    84be:	f3 0f 7e 0d 2a a4 00 	movq   0xa42a(%rip),%xmm1        # 128f0 <l_1120.4454+0x70>
    84c5:	00 
    84c6:	66 0f 54 c8          	andpd  %xmm0,%xmm1
    84ca:	f2 0f 10 05 4e a4 00 	movsd  0xa44e(%rip),%xmm0        # 12920 <l_1120.4454+0xa0>
    84d1:	00 
    84d2:	66 0f 2f c1          	comisd %xmm1,%xmm0
    84d6:	0f 97 c0             	seta   %al
    84d9:	83 f0 01             	xor    $0x1,%eax
    84dc:	84 c0                	test   %al,%al
    84de:	75 5a                	jne    853a <safe_div_func_double_f_f+0x93>
    84e0:	66 0f ef c0          	pxor   %xmm0,%xmm0
    84e4:	66 0f 2e 45 f0       	ucomisd -0x10(%rbp),%xmm0
    84e9:	7a 0b                	jp     84f6 <safe_div_func_double_f_f+0x4f>
    84eb:	66 0f ef c0          	pxor   %xmm0,%xmm0
    84ef:	66 0f 2e 45 f0       	ucomisd -0x10(%rbp),%xmm0
    84f4:	74 50                	je     8546 <safe_div_func_double_f_f+0x9f>
    84f6:	f2 0f 10 4d f8       	movsd  -0x8(%rbp),%xmm1
    84fb:	f2 0f 10 05 25 a4 00 	movsd  0xa425(%rip),%xmm0        # 12928 <l_1120.4454+0xa8>
    8502:	00 
    8503:	f2 0f 59 c1          	mulsd  %xmm1,%xmm0
    8507:	f2 0f 10 55 f0       	movsd  -0x10(%rbp),%xmm2
    850c:	f2 0f 10 0d 1c a4 00 	movsd  0xa41c(%rip),%xmm1        # 12930 <l_1120.4454+0xb0>
    8513:	00 
    8514:	f2 0f 59 ca          	mulsd  %xmm2,%xmm1
    8518:	f2 0f 5e c1          	divsd  %xmm1,%xmm0
    851c:	f3 0f 7e 0d cc a3 00 	movq   0xa3cc(%rip),%xmm1        # 128f0 <l_1120.4454+0x70>
    8523:	00 
    8524:	66 0f 54 c1          	andpd  %xmm1,%xmm0
    8528:	66 0f 2f 05 08 a4 00 	comisd 0xa408(%rip),%xmm0        # 12938 <l_1120.4454+0xb8>
    852f:	00 
    8530:	0f 97 c0             	seta   %al
    8533:	83 f0 01             	xor    $0x1,%eax
    8536:	84 c0                	test   %al,%al
    8538:	74 0c                	je     8546 <safe_div_func_double_f_f+0x9f>
    853a:	f2 0f 10 45 f8       	movsd  -0x8(%rbp),%xmm0
    853f:	f2 0f 5e 45 f0       	divsd  -0x10(%rbp),%xmm0
    8544:	eb 05                	jmp    854b <safe_div_func_double_f_f+0xa4>
    8546:	f2 0f 10 45 f8       	movsd  -0x8(%rbp),%xmm0
    854b:	5d                   	pop    %rbp
    854c:	c3                   	retq   

000000000000854d <safe_convert_func_float_to_int32_t>:
    854d:	f3 0f 1e fa          	endbr64 
    8551:	55                   	push   %rbp
    8552:	48 89 e5             	mov    %rsp,%rbp
    8555:	f3 0f 11 45 fc       	movss  %xmm0,-0x4(%rbp)
    855a:	f3 0f 10 05 de a3 00 	movss  0xa3de(%rip),%xmm0        # 12940 <l_1120.4454+0xc0>
    8561:	00 
    8562:	0f 2f 45 fc          	comiss -0x4(%rbp),%xmm0
    8566:	0f 93 c0             	setae  %al
    8569:	83 f0 01             	xor    $0x1,%eax
    856c:	84 c0                	test   %al,%al
    856e:	74 21                	je     8591 <safe_convert_func_float_to_int32_t+0x44>
    8570:	f3 0f 10 45 fc       	movss  -0x4(%rbp),%xmm0
    8575:	0f 2f 05 c8 a3 00 00 	comiss 0xa3c8(%rip),%xmm0        # 12944 <l_1120.4454+0xc4>
    857c:	0f 93 c0             	setae  %al
    857f:	83 f0 01             	xor    $0x1,%eax
    8582:	84 c0                	test   %al,%al
    8584:	74 0b                	je     8591 <safe_convert_func_float_to_int32_t+0x44>
    8586:	f3 0f 10 45 fc       	movss  -0x4(%rbp),%xmm0
    858b:	f3 0f 2c c0          	cvttss2si %xmm0,%eax
    858f:	eb 05                	jmp    8596 <safe_convert_func_float_to_int32_t+0x49>
    8591:	b8 ff ff ff 7f       	mov    $0x7fffffff,%eax
    8596:	5d                   	pop    %rbp
    8597:	c3                   	retq   

0000000000008598 <crc32_gentab>:
    8598:	f3 0f 1e fa          	endbr64 
    859c:	55                   	push   %rbp
    859d:	48 89 e5             	mov    %rsp,%rbp
    85a0:	c7 45 fc 20 83 b8 ed 	movl   $0xedb88320,-0x4(%rbp)
    85a7:	c7 45 f4 00 00 00 00 	movl   $0x0,-0xc(%rbp)
    85ae:	eb 51                	jmp    8601 <crc32_gentab+0x69>
    85b0:	8b 45 f4             	mov    -0xc(%rbp),%eax
    85b3:	89 45 f0             	mov    %eax,-0x10(%rbp)
    85b6:	c7 45 f8 08 00 00 00 	movl   $0x8,-0x8(%rbp)
    85bd:	eb 1e                	jmp    85dd <crc32_gentab+0x45>
    85bf:	8b 45 f0             	mov    -0x10(%rbp),%eax
    85c2:	83 e0 01             	and    $0x1,%eax
    85c5:	85 c0                	test   %eax,%eax
    85c7:	74 0d                	je     85d6 <crc32_gentab+0x3e>
    85c9:	8b 45 f0             	mov    -0x10(%rbp),%eax
    85cc:	d1 e8                	shr    %eax
    85ce:	33 45 fc             	xor    -0x4(%rbp),%eax
    85d1:	89 45 f0             	mov    %eax,-0x10(%rbp)
    85d4:	eb 03                	jmp    85d9 <crc32_gentab+0x41>
    85d6:	d1 6d f0             	shrl   -0x10(%rbp)
    85d9:	83 6d f8 01          	subl   $0x1,-0x8(%rbp)
    85dd:	83 7d f8 00          	cmpl   $0x0,-0x8(%rbp)
    85e1:	7f dc                	jg     85bf <crc32_gentab+0x27>
    85e3:	8b 45 f4             	mov    -0xc(%rbp),%eax
    85e6:	48 98                	cltq   
    85e8:	48 8d 0c 85 00 00 00 	lea    0x0(,%rax,4),%rcx
    85ef:	00 
    85f0:	48 8d 15 69 03 01 00 	lea    0x10369(%rip),%rdx        # 18960 <crc32_tab>
    85f7:	8b 45 f0             	mov    -0x10(%rbp),%eax
    85fa:	89 04 11             	mov    %eax,(%rcx,%rdx,1)
    85fd:	83 45 f4 01          	addl   $0x1,-0xc(%rbp)
    8601:	81 7d f4 ff 00 00 00 	cmpl   $0xff,-0xc(%rbp)
    8608:	7e a6                	jle    85b0 <crc32_gentab+0x18>
    860a:	90                   	nop
    860b:	90                   	nop
    860c:	5d                   	pop    %rbp
    860d:	c3                   	retq   

000000000000860e <crc32_byte>:
    860e:	f3 0f 1e fa          	endbr64 
    8612:	55                   	push   %rbp
    8613:	48 89 e5             	mov    %rsp,%rbp
    8616:	89 f8                	mov    %edi,%eax
    8618:	88 45 fc             	mov    %al,-0x4(%rbp)
    861b:	8b 05 ff c9 00 00    	mov    0xc9ff(%rip),%eax        # 15020 <crc32_context>
    8621:	c1 e8 08             	shr    $0x8,%eax
    8624:	89 c1                	mov    %eax,%ecx
    8626:	0f b6 55 fc          	movzbl -0x4(%rbp),%edx
    862a:	8b 05 f0 c9 00 00    	mov    0xc9f0(%rip),%eax        # 15020 <crc32_context>
    8630:	31 d0                	xor    %edx,%eax
    8632:	0f b6 c0             	movzbl %al,%eax
    8635:	89 c0                	mov    %eax,%eax
    8637:	48 8d 14 85 00 00 00 	lea    0x0(,%rax,4),%rdx
    863e:	00 
    863f:	48 8d 05 1a 03 01 00 	lea    0x1031a(%rip),%rax        # 18960 <crc32_tab>
    8646:	8b 04 02             	mov    (%rdx,%rax,1),%eax
    8649:	31 c8                	xor    %ecx,%eax
    864b:	89 05 cf c9 00 00    	mov    %eax,0xc9cf(%rip)        # 15020 <crc32_context>
    8651:	90                   	nop
    8652:	5d                   	pop    %rbp
    8653:	c3                   	retq   

0000000000008654 <crc32_8bytes>:
    8654:	f3 0f 1e fa          	endbr64 
    8658:	55                   	push   %rbp
    8659:	48 89 e5             	mov    %rsp,%rbp
    865c:	48 83 ec 08          	sub    $0x8,%rsp
    8660:	48 89 7d f8          	mov    %rdi,-0x8(%rbp)
    8664:	48 8b 45 f8          	mov    -0x8(%rbp),%rax
    8668:	0f b6 c0             	movzbl %al,%eax
    866b:	89 c7                	mov    %eax,%edi
    866d:	e8 9c ff ff ff       	callq  860e <crc32_byte>
    8672:	48 8b 45 f8          	mov    -0x8(%rbp),%rax
    8676:	48 c1 e8 08          	shr    $0x8,%rax
    867a:	0f b6 c0             	movzbl %al,%eax
    867d:	89 c7                	mov    %eax,%edi
    867f:	e8 8a ff ff ff       	callq  860e <crc32_byte>
    8684:	48 8b 45 f8          	mov    -0x8(%rbp),%rax
    8688:	48 c1 e8 10          	shr    $0x10,%rax
    868c:	0f b6 c0             	movzbl %al,%eax
    868f:	89 c7                	mov    %eax,%edi
    8691:	e8 78 ff ff ff       	callq  860e <crc32_byte>
    8696:	48 8b 45 f8          	mov    -0x8(%rbp),%rax
    869a:	48 c1 e8 18          	shr    $0x18,%rax
    869e:	0f b6 c0             	movzbl %al,%eax
    86a1:	89 c7                	mov    %eax,%edi
    86a3:	e8 66 ff ff ff       	callq  860e <crc32_byte>
    86a8:	48 8b 45 f8          	mov    -0x8(%rbp),%rax
    86ac:	48 c1 e8 20          	shr    $0x20,%rax
    86b0:	0f b6 c0             	movzbl %al,%eax
    86b3:	89 c7                	mov    %eax,%edi
    86b5:	e8 54 ff ff ff       	callq  860e <crc32_byte>
    86ba:	48 8b 45 f8          	mov    -0x8(%rbp),%rax
    86be:	48 c1 e8 28          	shr    $0x28,%rax
    86c2:	0f b6 c0             	movzbl %al,%eax
    86c5:	89 c7                	mov    %eax,%edi
    86c7:	e8 42 ff ff ff       	callq  860e <crc32_byte>
    86cc:	48 8b 45 f8          	mov    -0x8(%rbp),%rax
    86d0:	48 c1 e8 30          	shr    $0x30,%rax
    86d4:	0f b6 c0             	movzbl %al,%eax
    86d7:	89 c7                	mov    %eax,%edi
    86d9:	e8 30 ff ff ff       	callq  860e <crc32_byte>
    86de:	48 8b 45 f8          	mov    -0x8(%rbp),%rax
    86e2:	48 c1 e8 38          	shr    $0x38,%rax
    86e6:	0f b6 c0             	movzbl %al,%eax
    86e9:	89 c7                	mov    %eax,%edi
    86eb:	e8 1e ff ff ff       	callq  860e <crc32_byte>
    86f0:	90                   	nop
    86f1:	c9                   	leaveq 
    86f2:	c3                   	retq   

00000000000086f3 <transparent_crc>:
    86f3:	f3 0f 1e fa          	endbr64 
    86f7:	55                   	push   %rbp
    86f8:	48 89 e5             	mov    %rsp,%rbp
    86fb:	48 83 ec 20          	sub    $0x20,%rsp
    86ff:	48 89 7d f8          	mov    %rdi,-0x8(%rbp)
    8703:	48 89 75 f0          	mov    %rsi,-0x10(%rbp)
    8707:	89 55 ec             	mov    %edx,-0x14(%rbp)
    870a:	48 8b 45 f8          	mov    -0x8(%rbp),%rax
    870e:	48 89 c7             	mov    %rax,%rdi
    8711:	e8 3e ff ff ff       	callq  8654 <crc32_8bytes>
    8716:	83 7d ec 00          	cmpl   $0x0,-0x14(%rbp)
    871a:	74 22                	je     873e <transparent_crc+0x4b>
    871c:	8b 05 fe c8 00 00    	mov    0xc8fe(%rip),%eax        # 15020 <crc32_context>
    8722:	f7 d0                	not    %eax
    8724:	89 c2                	mov    %eax,%edx
    8726:	48 8b 45 f0          	mov    -0x10(%rbp),%rax
    872a:	48 89 c6             	mov    %rax,%rsi
    872d:	48 8d 3d fc 98 00 00 	lea    0x98fc(%rip),%rdi        # 12030 <_IO_stdin_used+0x30>
    8734:	b8 00 00 00 00       	mov    $0x0,%eax
    8739:	e8 42 e9 ff ff       	callq  7080 <printf@plt>
    873e:	90                   	nop
    873f:	c9                   	leaveq 
    8740:	c3                   	retq   

0000000000008741 <transparent_crc_bytes>:
    8741:	f3 0f 1e fa          	endbr64 
    8745:	55                   	push   %rbp
    8746:	48 89 e5             	mov    %rsp,%rbp
    8749:	48 83 ec 30          	sub    $0x30,%rsp
    874d:	48 89 7d e8          	mov    %rdi,-0x18(%rbp)
    8751:	89 75 e4             	mov    %esi,-0x1c(%rbp)
    8754:	48 89 55 d8          	mov    %rdx,-0x28(%rbp)
    8758:	89 4d e0             	mov    %ecx,-0x20(%rbp)
    875b:	c7 45 fc 00 00 00 00 	movl   $0x0,-0x4(%rbp)
    8762:	eb 1e                	jmp    8782 <transparent_crc_bytes+0x41>
    8764:	8b 45 fc             	mov    -0x4(%rbp),%eax
    8767:	48 63 d0             	movslq %eax,%rdx
    876a:	48 8b 45 e8          	mov    -0x18(%rbp),%rax
    876e:	48 01 d0             	add    %rdx,%rax
    8771:	0f b6 00             	movzbl (%rax),%eax
    8774:	0f b6 c0             	movzbl %al,%eax
    8777:	89 c7                	mov    %eax,%edi
    8779:	e8 90 fe ff ff       	callq  860e <crc32_byte>
    877e:	83 45 fc 01          	addl   $0x1,-0x4(%rbp)
    8782:	8b 45 fc             	mov    -0x4(%rbp),%eax
    8785:	3b 45 e4             	cmp    -0x1c(%rbp),%eax
    8788:	7c da                	jl     8764 <transparent_crc_bytes+0x23>
    878a:	83 7d e0 00          	cmpl   $0x0,-0x20(%rbp)
    878e:	74 22                	je     87b2 <transparent_crc_bytes+0x71>
    8790:	8b 05 8a c8 00 00    	mov    0xc88a(%rip),%eax        # 15020 <crc32_context>
    8796:	f7 d0                	not    %eax
    8798:	89 c2                	mov    %eax,%edx
    879a:	48 8b 45 d8          	mov    -0x28(%rbp),%rax
    879e:	48 89 c6             	mov    %rax,%rsi
    87a1:	48 8d 3d 88 98 00 00 	lea    0x9888(%rip),%rdi        # 12030 <_IO_stdin_used+0x30>
    87a8:	b8 00 00 00 00       	mov    $0x0,%eax
    87ad:	e8 ce e8 ff ff       	callq  7080 <printf@plt>
    87b2:	90                   	nop
    87b3:	c9                   	leaveq 
    87b4:	c3                   	retq   

00000000000087b5 <func_1>:
    87b5:	f3 0f 1e fa          	endbr64 
    87b9:	55                   	push   %rbp
    87ba:	48 89 e5             	mov    %rsp,%rbp
    87bd:	48 81 ec d0 00 00 00 	sub    $0xd0,%rsp
    87c4:	64 48 8b 04 25 28 00 	mov    %fs:0x28,%rax
    87cb:	00 00 
    87cd:	48 89 45 f8          	mov    %rax,-0x8(%rbp)
    87d1:	31 c0                	xor    %eax,%eax
    87d3:	48 c7 85 38 ff ff ff 	movq   $0x7,-0xc8(%rbp)
    87da:	07 00 00 00 
    87de:	48 8d 05 6f c8 00 00 	lea    0xc86f(%rip),%rax        # 15054 <g_94+0x14>
    87e5:	48 89 85 40 ff ff ff 	mov    %rax,-0xc0(%rbp)
    87ec:	c7 85 34 ff ff ff 01 	movl   $0x1,-0xcc(%rbp)
    87f3:	00 00 00 
    87f6:	c6 85 33 ff ff ff ff 	movb   $0xff,-0xcd(%rbp)
    87fd:	c7 45 80 22 86 4f 5b 	movl   $0x5b4f8622,-0x80(%rbp)
    8804:	c7 45 84 08 00 00 00 	movl   $0x8,-0x7c(%rbp)
    880b:	c7 45 88 22 86 4f 5b 	movl   $0x5b4f8622,-0x78(%rbp)
    8812:	c7 45 8c 81 9e 81 36 	movl   $0x36819e81,-0x74(%rbp)
    8819:	c7 45 90 81 9e 81 36 	movl   $0x36819e81,-0x70(%rbp)
    8820:	c7 45 94 22 86 4f 5b 	movl   $0x5b4f8622,-0x6c(%rbp)
    8827:	c7 45 98 08 00 00 00 	movl   $0x8,-0x68(%rbp)
    882e:	c7 45 9c 22 86 4f 5b 	movl   $0x5b4f8622,-0x64(%rbp)
    8835:	c7 45 a0 81 9e 81 36 	movl   $0x36819e81,-0x60(%rbp)
    883c:	c7 45 a4 81 9e 81 36 	movl   $0x36819e81,-0x5c(%rbp)
    8843:	c7 45 a8 22 86 4f 5b 	movl   $0x5b4f8622,-0x58(%rbp)
    884a:	c7 45 ac 08 00 00 00 	movl   $0x8,-0x54(%rbp)
    8851:	c7 45 b0 22 86 4f 5b 	movl   $0x5b4f8622,-0x50(%rbp)
    8858:	c7 45 b4 81 9e 81 36 	movl   $0x36819e81,-0x4c(%rbp)
    885f:	c7 45 b8 81 9e 81 36 	movl   $0x36819e81,-0x48(%rbp)
    8866:	c7 45 bc 22 86 4f 5b 	movl   $0x5b4f8622,-0x44(%rbp)
    886d:	c7 45 c0 08 00 00 00 	movl   $0x8,-0x40(%rbp)
    8874:	c7 45 c4 22 86 4f 5b 	movl   $0x5b4f8622,-0x3c(%rbp)
    887b:	c7 45 c8 81 9e 81 36 	movl   $0x36819e81,-0x38(%rbp)
    8882:	c7 45 cc 81 9e 81 36 	movl   $0x36819e81,-0x34(%rbp)
    8889:	c7 45 d0 22 86 4f 5b 	movl   $0x5b4f8622,-0x30(%rbp)
    8890:	c7 45 d4 08 00 00 00 	movl   $0x8,-0x2c(%rbp)
    8897:	c7 45 d8 22 86 4f 5b 	movl   $0x5b4f8622,-0x28(%rbp)
    889e:	c7 45 dc 81 9e 81 36 	movl   $0x36819e81,-0x24(%rbp)
    88a5:	c7 45 e0 81 9e 81 36 	movl   $0x36819e81,-0x20(%rbp)
    88ac:	c7 45 e4 22 86 4f 5b 	movl   $0x5b4f8622,-0x1c(%rbp)
    88b3:	c7 45 e8 08 00 00 00 	movl   $0x8,-0x18(%rbp)
    88ba:	c7 45 ec 22 86 4f 5b 	movl   $0x5b4f8622,-0x14(%rbp)
    88c1:	c7 45 f0 81 9e 81 36 	movl   $0x36819e81,-0x10(%rbp)
    88c8:	c7 45 f4 81 9e 81 36 	movl   $0x36819e81,-0xc(%rbp)
    88cf:	48 8d 05 32 fc 00 00 	lea    0xfc32(%rip),%rax        # 18508 <g_1277>
    88d6:	48 89 85 48 ff ff ff 	mov    %rax,-0xb8(%rbp)
    88dd:	48 b8 f8 0f 06 0f f8 	movabs $0x10101f80f060ff8,%rax
    88e4:	01 01 01 
    88e7:	48 89 85 50 ff ff ff 	mov    %rax,-0xb0(%rbp)
    88ee:	c6 85 58 ff ff ff fb 	movb   $0xfb,-0xa8(%rbp)
    88f5:	48 b8 72 59 72 ff b8 	movabs $0x72ffb8b8ff725972,%rax
    88fc:	b8 ff 72 
    88ff:	48 89 85 59 ff ff ff 	mov    %rax,-0xa7(%rbp)
    8906:	c6 85 61 ff ff ff 59 	movb   $0x59,-0x9f(%rbp)
    890d:	48 b8 35 f8 06 01 01 	movabs $0x35f806010106f835,%rax
    8914:	06 f8 35 
    8917:	48 89 85 62 ff ff ff 	mov    %rax,-0x9e(%rbp)
    891e:	c6 85 6a ff ff ff f8 	movb   $0xf8,-0x96(%rbp)
    8925:	48 b8 00 08 ff ff 08 	movabs $0xb80008ffff0800,%rax
    892c:	00 b8 00 
    892f:	48 89 85 6b ff ff ff 	mov    %rax,-0x95(%rbp)
    8936:	c6 85 73 ff ff ff 08 	movb   $0x8,-0x8d(%rbp)
    893d:	8b 05 85 d6 00 00    	mov    0xd685(%rip),%eax        # 15fc8 <g_2144>
    8943:	48 8b 55 f8          	mov    -0x8(%rbp),%rdx
    8947:	64 48 33 14 25 28 00 	xor    %fs:0x28,%rdx
    894e:	00 00 
    8950:	74 05                	je     8957 <func_1+0x1a2>
    8952:	e8 19 e7 ff ff       	callq  7070 <__stack_chk_fail@plt>
    8957:	c9                   	leaveq 
    8958:	c3                   	retq   

0000000000008959 <func_2>:
    8959:	f3 0f 1e fa          	endbr64 
    895d:	55                   	push   %rbp
    895e:	48 89 e5             	mov    %rsp,%rbp
    8961:	41 57                	push   %r15
    8963:	41 56                	push   %r14
    8965:	41 55                	push   %r13
    8967:	41 54                	push   %r12
    8969:	53                   	push   %rbx
    896a:	48 81 ec 88 00 00 00 	sub    $0x88,%rsp
    8971:	48 89 bd 68 ff ff ff 	mov    %rdi,-0x98(%rbp)
    8978:	64 48 8b 04 25 28 00 	mov    %fs:0x28,%rax
    897f:	00 00 
    8981:	48 89 45 c8          	mov    %rax,-0x38(%rbp)
    8985:	31 c0                	xor    %eax,%eax
    8987:	c7 85 74 ff ff ff 79 	movl   $0xb6f65e79,-0x8c(%rbp)
    898e:	5e f6 b6 
    8991:	48 8d 85 74 ff ff ff 	lea    -0x8c(%rbp),%rax
    8998:	48 89 85 78 ff ff ff 	mov    %rax,-0x88(%rbp)
    899f:	48 8d 05 fa d4 00 00 	lea    0xd4fa(%rip),%rax        # 15ea0 <g_1241+0x140>
    89a6:	48 89 45 80          	mov    %rax,-0x80(%rbp)
    89aa:	48 8d 05 ef d4 00 00 	lea    0xd4ef(%rip),%rax        # 15ea0 <g_1241+0x140>
    89b1:	48 89 45 88          	mov    %rax,-0x78(%rbp)
    89b5:	48 8d 05 e4 d4 00 00 	lea    0xd4e4(%rip),%rax        # 15ea0 <g_1241+0x140>
    89bc:	48 89 45 90          	mov    %rax,-0x70(%rbp)
    89c0:	48 8d 05 d9 d4 00 00 	lea    0xd4d9(%rip),%rax        # 15ea0 <g_1241+0x140>
    89c7:	48 89 45 98          	mov    %rax,-0x68(%rbp)
    89cb:	48 8d 05 ce d4 00 00 	lea    0xd4ce(%rip),%rax        # 15ea0 <g_1241+0x140>
    89d2:	48 89 45 a0          	mov    %rax,-0x60(%rbp)
    89d6:	48 8d 05 c3 d4 00 00 	lea    0xd4c3(%rip),%rax        # 15ea0 <g_1241+0x140>
    89dd:	48 89 45 a8          	mov    %rax,-0x58(%rbp)
    89e1:	48 8d 05 b8 d4 00 00 	lea    0xd4b8(%rip),%rax        # 15ea0 <g_1241+0x140>
    89e8:	48 89 45 b0          	mov    %rax,-0x50(%rbp)
    89ec:	48 8d 05 ad d4 00 00 	lea    0xd4ad(%rip),%rax        # 15ea0 <g_1241+0x140>
    89f3:	48 89 45 b8          	mov    %rax,-0x48(%rbp)
    89f7:	48 8d 05 a2 d4 00 00 	lea    0xd4a2(%rip),%rax        # 15ea0 <g_1241+0x140>
    89fe:	48 89 45 c0          	mov    %rax,-0x40(%rbp)
    8a02:	48 8b 85 78 ff ff ff 	mov    -0x88(%rbp),%rax
    8a09:	8b 00                	mov    (%rax),%eax
    8a0b:	48 63 d8             	movslq %eax,%rbx
    8a0e:	48 8b 85 78 ff ff ff 	mov    -0x88(%rbp),%rax
    8a15:	8b 00                	mov    (%rax),%eax
    8a17:	89 85 64 ff ff ff    	mov    %eax,-0x9c(%rbp)
    8a1d:	48 8b 05 0c fb 00 00 	mov    0xfb0c(%rip),%rax        # 18530 <g_1365>
    8a24:	48 8b 00             	mov    (%rax),%rax
    8a27:	48 8b 00             	mov    (%rax),%rax
    8a2a:	4c 8b 20             	mov    (%rax),%r12
    8a2d:	0f b7 05 2c c7 00 00 	movzwl 0xc72c(%rip),%eax        # 15160 <g_324+0x40>
    8a34:	44 0f be e8          	movsbl %al,%r13d
    8a38:	48 8b 05 79 c6 00 00 	mov    0xc679(%rip),%rax        # 150b8 <g_189>
    8a3f:	89 85 60 ff ff ff    	mov    %eax,-0xa0(%rbp)
    8a45:	48 8b 85 78 ff ff ff 	mov    -0x88(%rbp),%rax
    8a4c:	8b 00                	mov    (%rax),%eax
    8a4e:	0f bf c8             	movswl %ax,%ecx
    8a51:	89 8d 5c ff ff ff    	mov    %ecx,-0xa4(%rbp)
    8a57:	b8 94 1e 2a 94       	mov    $0x942a1e94,%eax
    8a5c:	0f bf f8             	movswl %ax,%edi
    8a5f:	89 bd 58 ff ff ff    	mov    %edi,-0xa8(%rbp)
    8a65:	8b 05 fd 02 01 00    	mov    0x102fd(%rip),%eax        # 18d68 <g_30>
    8a6b:	44 0f be f8          	movsbl %al,%r15d
    8a6f:	48 8b 85 78 ff ff ff 	mov    -0x88(%rbp),%rax
    8a76:	8b 00                	mov    (%rax),%eax
    8a78:	4c 63 f0             	movslq %eax,%r14
    8a7b:	48 8b 15 16 f3 00 00 	mov    0xf316(%rip),%rdx        # 17d98 <g_29+0x38>
    8a82:	48 8b 85 78 ff ff ff 	mov    -0x88(%rbp),%rax
    8a89:	48 89 d6             	mov    %rdx,%rsi
    8a8c:	48 89 c7             	mov    %rax,%rdi
    8a8f:	e8 05 4f 00 00       	callq  d999 <func_25>
    8a94:	44 8b 85 5c ff ff ff 	mov    -0xa4(%rbp),%r8d
    8a9b:	8b 8d 58 ff ff ff    	mov    -0xa8(%rbp),%ecx
    8aa1:	44 89 fa             	mov    %r15d,%edx
    8aa4:	4c 89 f6             	mov    %r14,%rsi
    8aa7:	48 89 c7             	mov    %rax,%rdi
    8aaa:	e8 ef 2e 00 00       	callq  b99e <func_19>
    8aaf:	0f b6 c0             	movzbl %al,%eax
    8ab2:	8b b5 60 ff ff ff    	mov    -0xa0(%rbp),%esi
    8ab8:	89 c7                	mov    %eax,%edi
    8aba:	e8 ce f1 ff ff       	callq  7c8d <safe_rshift_func_uint8_t_u_s>
    8abf:	44 89 ee             	mov    %r13d,%esi
    8ac2:	bf 00 00 00 00       	mov    $0x0,%edi
    8ac7:	e8 08 e7 ff ff       	callq  71d4 <safe_add_func_int8_t_s_s>
    8acc:	4c 89 e6             	mov    %r12,%rsi
    8acf:	bf 00 00 00 00       	mov    $0x0,%edi
    8ad4:	e8 a7 21 00 00       	callq  ac80 <func_12>
    8ad9:	8b b5 64 ff ff ff    	mov    -0x9c(%rbp),%esi
    8adf:	48 89 c7             	mov    %rax,%rdi
    8ae2:	e8 70 00 00 00       	callq  8b57 <func_9>
    8ae7:	48 89 de             	mov    %rbx,%rsi
    8aea:	bf 01 00 00 00       	mov    $0x1,%edi
    8aef:	e8 03 ef ff ff       	callq  79f7 <safe_div_func_int64_t_s_s>
    8af4:	b8 94 1e 2a 94       	mov    $0x942a1e94,%eax
    8af9:	f7 d0                	not    %eax
    8afb:	c1 e8 1f             	shr    $0x1f,%eax
    8afe:	0f b6 d0             	movzbl %al,%edx
    8b01:	48 8b 85 78 ff ff ff 	mov    -0x88(%rbp),%rax
    8b08:	8b 00                	mov    (%rax),%eax
    8b0a:	39 c2                	cmp    %eax,%edx
    8b0c:	0f 9e c0             	setle  %al
    8b0f:	0f b6 d0             	movzbl %al,%edx
    8b12:	8b 05 d0 d3 00 00    	mov    0xd3d0(%rip),%eax        # 15ee8 <g_1278>
    8b18:	09 c2                	or     %eax,%edx
    8b1a:	48 8b 05 3f d4 00 00 	mov    0xd43f(%rip),%rax        # 15f60 <g_2032>
    8b21:	89 d2                	mov    %edx,%edx
    8b23:	48 21 d0             	and    %rdx,%rax
    8b26:	48 89 05 33 d4 00 00 	mov    %rax,0xd433(%rip)        # 15f60 <g_2032>
    8b2d:	48 8b 45 a8          	mov    -0x58(%rbp),%rax
    8b31:	48 8b 5d c8          	mov    -0x38(%rbp),%rbx
    8b35:	64 48 33 1c 25 28 00 	xor    %fs:0x28,%rbx
    8b3c:	00 00 
    8b3e:	74 05                	je     8b45 <func_2+0x1ec>
    8b40:	e8 2b e5 ff ff       	callq  7070 <__stack_chk_fail@plt>
    8b45:	48 81 c4 88 00 00 00 	add    $0x88,%rsp
    8b4c:	5b                   	pop    %rbx
    8b4d:	41 5c                	pop    %r12
    8b4f:	41 5d                	pop    %r13
    8b51:	41 5e                	pop    %r14
    8b53:	41 5f                	pop    %r15
    8b55:	5d                   	pop    %rbp
    8b56:	c3                   	retq   

0000000000008b57 <func_9>:
    8b57:	f3 0f 1e fa          	endbr64 
    8b5b:	55                   	push   %rbp
    8b5c:	48 89 e5             	mov    %rsp,%rbp
    8b5f:	41 57                	push   %r15
    8b61:	41 56                	push   %r14
    8b63:	41 55                	push   %r13
    8b65:	41 54                	push   %r12
    8b67:	53                   	push   %rbx
    8b68:	48 81 ec 00 10 00 00 	sub    $0x1000,%rsp
    8b6f:	48 83 0c 24 00       	orq    $0x0,(%rsp)
    8b74:	48 81 ec e8 02 00 00 	sub    $0x2e8,%rsp
    8b7b:	48 89 bd 08 ed ff ff 	mov    %rdi,-0x12f8(%rbp)
    8b82:	89 b5 04 ed ff ff    	mov    %esi,-0x12fc(%rbp)
    8b88:	64 48 8b 04 25 28 00 	mov    %fs:0x28,%rax
    8b8f:	00 00 
    8b91:	48 89 45 c8          	mov    %rax,-0x38(%rbp)
    8b95:	31 c0                	xor    %eax,%eax
    8b97:	c7 85 20 ed ff ff f8 	movl   $0xfffffff8,-0x12e0(%rbp)
    8b9e:	ff ff ff 
    8ba1:	48 8d 05 58 f2 00 00 	lea    0xf258(%rip),%rax        # 17e00 <g_120+0x10>
    8ba8:	48 89 85 98 ed ff ff 	mov    %rax,-0x1268(%rbp)
    8baf:	48 c7 85 78 ed ff ff 	movq   $0x0,-0x1288(%rbp)
    8bb6:	00 00 00 00 
    8bba:	48 8d 05 5b d1 00 00 	lea    0xd15b(%rip),%rax        # 15d1c <g_1221+0xfc>
    8bc1:	48 89 85 30 ee ff ff 	mov    %rax,-0x11d0(%rbp)
    8bc8:	48 8d 05 4d d1 00 00 	lea    0xd14d(%rip),%rax        # 15d1c <g_1221+0xfc>
    8bcf:	48 89 85 38 ee ff ff 	mov    %rax,-0x11c8(%rbp)
    8bd6:	48 8d 05 3f d1 00 00 	lea    0xd13f(%rip),%rax        # 15d1c <g_1221+0xfc>
    8bdd:	48 89 85 40 ee ff ff 	mov    %rax,-0x11c0(%rbp)
    8be4:	48 8d 05 31 d1 00 00 	lea    0xd131(%rip),%rax        # 15d1c <g_1221+0xfc>
    8beb:	48 89 85 48 ee ff ff 	mov    %rax,-0x11b8(%rbp)
    8bf2:	c7 85 00 ef ff ff 08 	movl   $0x8,-0x1100(%rbp)
    8bf9:	00 00 00 
    8bfc:	c7 85 04 ef ff ff 00 	movl   $0x0,-0x10fc(%rbp)
    8c03:	00 00 00 
    8c06:	c7 85 08 ef ff ff 00 	movl   $0x0,-0x10f8(%rbp)
    8c0d:	00 00 00 
    8c10:	c7 85 0c ef ff ff 00 	movl   $0x0,-0x10f4(%rbp)
    8c17:	00 00 00 
    8c1a:	c7 85 10 ef ff ff f2 	movl   $0xd0a19ef2,-0x10f0(%rbp)
    8c21:	9e a1 d0 
    8c24:	c7 85 14 ef ff ff 46 	movl   $0x999a2746,-0x10ec(%rbp)
    8c2b:	27 9a 99 
    8c2e:	c7 85 18 ef ff ff 08 	movl   $0x8,-0x10e8(%rbp)
    8c35:	00 00 00 
    8c38:	c7 85 1c ef ff ff f2 	movl   $0xd0a19ef2,-0x10e4(%rbp)
    8c3f:	9e a1 d0 
    8c42:	c7 85 20 ef ff ff 08 	movl   $0x8,-0x10e0(%rbp)
    8c49:	00 00 00 
    8c4c:	c7 85 24 ef ff ff 85 	movl   $0x8880485,-0x10dc(%rbp)
    8c53:	04 88 08 
    8c56:	c7 85 28 ef ff ff 00 	movl   $0x0,-0x10d8(%rbp)
    8c5d:	00 00 00 
    8c60:	c7 85 2c ef ff ff 46 	movl   $0x999a2746,-0x10d4(%rbp)
    8c67:	27 9a 99 
    8c6a:	c7 85 30 ef ff ff 85 	movl   $0x8880485,-0x10d0(%rbp)
    8c71:	04 88 08 
    8c74:	c7 85 34 ef ff ff 85 	movl   $0x8880485,-0x10cc(%rbp)
    8c7b:	04 88 08 
    8c7e:	c7 85 38 ef ff ff 00 	movl   $0x0,-0x10c8(%rbp)
    8c85:	00 00 00 
    8c88:	c7 85 3c ef ff ff 08 	movl   $0x8,-0x10c4(%rbp)
    8c8f:	00 00 00 
    8c92:	c7 85 40 ef ff ff 00 	movl   $0x0,-0x10c0(%rbp)
    8c99:	00 00 00 
    8c9c:	c7 85 44 ef ff ff 00 	movl   $0x0,-0x10bc(%rbp)
    8ca3:	00 00 00 
    8ca6:	c7 85 48 ef ff ff 00 	movl   $0x0,-0x10b8(%rbp)
    8cad:	00 00 00 
    8cb0:	c7 85 4c ef ff ff f2 	movl   $0xd0a19ef2,-0x10b4(%rbp)
    8cb7:	9e a1 d0 
    8cba:	c7 85 50 ef ff ff 46 	movl   $0x999a2746,-0x10b0(%rbp)
    8cc1:	27 9a 99 
    8cc4:	48 8d 05 37 c4 00 00 	lea    0xc437(%rip),%rax        # 15102 <g_271+0x6>
    8ccb:	48 89 85 60 ef ff ff 	mov    %rax,-0x10a0(%rbp)
    8cd2:	48 8d 05 29 c4 00 00 	lea    0xc429(%rip),%rax        # 15102 <g_271+0x6>
    8cd9:	48 89 85 68 ef ff ff 	mov    %rax,-0x1098(%rbp)
    8ce0:	48 8d 05 a1 c4 00 00 	lea    0xc4a1(%rip),%rax        # 15188 <g_412>
    8ce7:	48 89 85 70 ef ff ff 	mov    %rax,-0x1090(%rbp)
    8cee:	48 8d 05 0d c4 00 00 	lea    0xc40d(%rip),%rax        # 15102 <g_271+0x6>
    8cf5:	48 89 85 78 ef ff ff 	mov    %rax,-0x1088(%rbp)
    8cfc:	48 8d 05 ff c3 00 00 	lea    0xc3ff(%rip),%rax        # 15102 <g_271+0x6>
    8d03:	48 89 85 80 ef ff ff 	mov    %rax,-0x1080(%rbp)
    8d0a:	48 8d 05 77 c4 00 00 	lea    0xc477(%rip),%rax        # 15188 <g_412>
    8d11:	48 89 85 88 ef ff ff 	mov    %rax,-0x1078(%rbp)
    8d18:	48 8d 05 e3 c3 00 00 	lea    0xc3e3(%rip),%rax        # 15102 <g_271+0x6>
    8d1f:	48 89 85 90 ef ff ff 	mov    %rax,-0x1070(%rbp)
    8d26:	48 8d 05 d5 c3 00 00 	lea    0xc3d5(%rip),%rax        # 15102 <g_271+0x6>
    8d2d:	48 89 85 98 ef ff ff 	mov    %rax,-0x1068(%rbp)
    8d34:	48 8d 05 4d c4 00 00 	lea    0xc44d(%rip),%rax        # 15188 <g_412>
    8d3b:	48 89 85 a0 ef ff ff 	mov    %rax,-0x1060(%rbp)
    8d42:	48 8d 05 b9 c3 00 00 	lea    0xc3b9(%rip),%rax        # 15102 <g_271+0x6>
    8d49:	48 89 85 a8 ef ff ff 	mov    %rax,-0x1058(%rbp)
    8d50:	48 8d 05 ab c3 00 00 	lea    0xc3ab(%rip),%rax        # 15102 <g_271+0x6>
    8d57:	48 89 85 b0 ef ff ff 	mov    %rax,-0x1050(%rbp)
    8d5e:	48 8d 05 23 c4 00 00 	lea    0xc423(%rip),%rax        # 15188 <g_412>
    8d65:	48 89 85 b8 ef ff ff 	mov    %rax,-0x1048(%rbp)
    8d6c:	48 8d 05 8f c3 00 00 	lea    0xc38f(%rip),%rax        # 15102 <g_271+0x6>
    8d73:	48 89 85 c0 ef ff ff 	mov    %rax,-0x1040(%rbp)
    8d7a:	48 8d 05 81 c3 00 00 	lea    0xc381(%rip),%rax        # 15102 <g_271+0x6>
    8d81:	48 89 85 c8 ef ff ff 	mov    %rax,-0x1038(%rbp)
    8d88:	48 8d 05 f9 c3 00 00 	lea    0xc3f9(%rip),%rax        # 15188 <g_412>
    8d8f:	48 89 85 d0 ef ff ff 	mov    %rax,-0x1030(%rbp)
    8d96:	c6 85 12 ed ff ff 56 	movb   $0x56,-0x12ee(%rbp)
    8d9d:	48 8d 85 60 f0 ff ff 	lea    -0xfa0(%rbp),%rax
    8da4:	48 8d 15 35 d2 00 00 	lea    0xd235(%rip),%rdx        # 15fe0 <g_2144+0x18>
    8dab:	b9 46 00 00 00       	mov    $0x46,%ecx
    8db0:	48 89 c7             	mov    %rax,%rdi
    8db3:	48 89 d6             	mov    %rdx,%rsi
    8db6:	f3 48 a5             	rep movsq %ds:(%rsi),%es:(%rdi)
    8db9:	48 c7 85 a0 ed ff ff 	movq   $0x0,-0x1260(%rbp)
    8dc0:	00 00 00 00 
    8dc4:	c7 85 38 ed ff ff ff 	movl   $0xffffffff,-0x12c8(%rbp)
    8dcb:	ff ff ff 
    8dce:	c7 85 24 ed ff ff 04 	movl   $0x4,-0x12dc(%rbp)
    8dd5:	00 00 00 
    8dd8:	c7 85 3c ed ff ff 7f 	movl   $0xe15e817f,-0x12c4(%rbp)
    8ddf:	81 5e e1 
    8de2:	c7 85 20 ee ff ff 05 	movl   $0x5,-0x11e0(%rbp)
    8de9:	00 00 00 
    8dec:	c7 85 24 ee ff ff 05 	movl   $0x5,-0x11dc(%rbp)
    8df3:	00 00 00 
    8df6:	c7 85 28 ee ff ff 05 	movl   $0x5,-0x11d8(%rbp)
    8dfd:	00 00 00 
    8e00:	c7 85 2c ee ff ff 05 	movl   $0x5,-0x11d4(%rbp)
    8e07:	00 00 00 
    8e0a:	c7 85 40 ed ff ff 67 	movl   $0xe2bc5367,-0x12c0(%rbp)
    8e11:	53 bc e2 
    8e14:	48 8d 05 05 f6 00 00 	lea    0xf605(%rip),%rax        # 18420 <g_272>
    8e1b:	48 89 85 80 ed ff ff 	mov    %rax,-0x1280(%rbp)
    8e22:	48 8d 85 80 ed ff ff 	lea    -0x1280(%rbp),%rax
    8e29:	48 89 85 50 ee ff ff 	mov    %rax,-0x11b0(%rbp)
    8e30:	48 8d 85 80 ed ff ff 	lea    -0x1280(%rbp),%rax
    8e37:	48 89 85 58 ee ff ff 	mov    %rax,-0x11a8(%rbp)
    8e3e:	48 8d 85 80 ed ff ff 	lea    -0x1280(%rbp),%rax
    8e45:	48 89 85 60 ee ff ff 	mov    %rax,-0x11a0(%rbp)
    8e4c:	48 8d 85 80 ed ff ff 	lea    -0x1280(%rbp),%rax
    8e53:	48 89 85 68 ee ff ff 	mov    %rax,-0x1198(%rbp)
    8e5a:	48 8d 85 80 ed ff ff 	lea    -0x1280(%rbp),%rax
    8e61:	48 89 85 70 ee ff ff 	mov    %rax,-0x1190(%rbp)
    8e68:	48 8d 85 80 ed ff ff 	lea    -0x1280(%rbp),%rax
    8e6f:	48 89 85 78 ee ff ff 	mov    %rax,-0x1188(%rbp)
    8e76:	c7 85 44 ed ff ff e0 	movl   $0x20dc84e0,-0x12bc(%rbp)
    8e7d:	84 dc 20 
    8e80:	48 c7 85 88 ed ff ff 	movq   $0x0,-0x1278(%rbp)
    8e87:	00 00 00 00 
    8e8b:	48 8d 85 88 ed ff ff 	lea    -0x1278(%rbp),%rax
    8e92:	48 89 85 a8 ed ff ff 	mov    %rax,-0x1258(%rbp)
    8e99:	48 b8 45 42 e3 96 bb 	movabs $0x9640dfbb96e34245,%rax
    8ea0:	df 40 96 
    8ea3:	48 89 85 b0 ed ff ff 	mov    %rax,-0x1250(%rbp)
    8eaa:	48 c7 85 b8 ed ff ff 	movq   $0x0,-0x1248(%rbp)
    8eb1:	00 00 00 00 
    8eb5:	8b 85 04 ed ff ff    	mov    -0x12fc(%rbp),%eax
    8ebb:	0f b7 d0             	movzwl %ax,%edx
    8ebe:	8b 85 04 ed ff ff    	mov    -0x12fc(%rbp),%eax
    8ec4:	89 85 30 ef ff ff    	mov    %eax,-0x10d0(%rbp)
    8eca:	8b 85 30 ef ff ff    	mov    -0x10d0(%rbp),%eax
    8ed0:	89 c1                	mov    %eax,%ecx
    8ed2:	8b 85 04 ed ff ff    	mov    -0x12fc(%rbp),%eax
    8ed8:	09 c8                	or     %ecx,%eax
    8eda:	0f b7 c0             	movzwl %ax,%eax
    8edd:	89 d6                	mov    %edx,%esi
    8edf:	89 c7                	mov    %eax,%edi
    8ee1:	e8 57 ee ff ff       	callq  7d3d <safe_mul_func_uint16_t_u_u>
    8ee6:	c7 85 14 ef ff ff 27 	movl   $0x27,-0x10ec(%rbp)
    8eed:	00 00 00 
    8ef0:	8b 85 04 ed ff ff    	mov    -0x12fc(%rbp),%eax
    8ef6:	0f b6 c0             	movzbl %al,%eax
    8ef9:	be 27 00 00 00       	mov    $0x27,%esi
    8efe:	89 c7                	mov    %eax,%edi
    8f00:	e8 d6 ec ff ff       	callq  7bdb <safe_div_func_uint8_t_u_u>
    8f05:	48 8b 85 80 f1 ff ff 	mov    -0xe80(%rbp),%rax
    8f0c:	48 85 c0             	test   %rax,%rax
    8f0f:	0f 94 c2             	sete   %dl
    8f12:	48 8b 05 0f f6 00 00 	mov    0xf60f(%rip),%rax        # 18528 <g_1366>
    8f19:	48 8b 00             	mov    (%rax),%rax
    8f1c:	48 8b 00             	mov    (%rax),%rax
    8f1f:	0f b6 d2             	movzbl %dl,%edx
    8f22:	89 10                	mov    %edx,(%rax)
    8f24:	48 8b 15 35 f6 00 00 	mov    0xf635(%rip),%rdx        # 18560 <g_1667>
    8f2b:	8b 00                	mov    (%rax),%eax
    8f2d:	89 02                	mov    %eax,(%rdx)
    8f2f:	48 8b 05 22 f6 00 00 	mov    0xf622(%rip),%rax        # 18558 <g_1457>
    8f36:	48 8b 10             	mov    (%rax),%rdx
    8f39:	48 8b 05 10 f6 00 00 	mov    0xf610(%rip),%rax        # 18550 <g_1458>
    8f40:	48 8b 12             	mov    (%rdx),%rdx
    8f43:	48 89 10             	mov    %rdx,(%rax)
    8f46:	83 bd 04 ed ff ff 00 	cmpl   $0x0,-0x12fc(%rbp)
    8f4d:	0f 84 ee 09 00 00    	je     9941 <func_9+0xdea>
    8f53:	c7 85 90 ed ff ff fc 	movl   $0xfffffffc,-0x1270(%rbp)
    8f5a:	ff ff ff 
    8f5d:	48 8d 85 30 f8 ff ff 	lea    -0x7d0(%rbp),%rax
    8f64:	48 8d 15 b5 d2 00 00 	lea    0xd2b5(%rip),%rdx        # 16220 <g_2144+0x258>
    8f6b:	b9 2d 00 00 00       	mov    $0x2d,%ecx
    8f70:	48 89 c7             	mov    %rax,%rdi
    8f73:	48 89 d6             	mov    %rdx,%rsi
    8f76:	f3 48 a5             	rep movsq %ds:(%rsi),%es:(%rdi)
    8f79:	66 c7 85 18 ed ff ff 	movw   $0x9,-0x12e8(%rbp)
    8f80:	09 00 
    8f82:	c6 85 11 ed ff ff ff 	movb   $0xff,-0x12ef(%rbp)
    8f89:	c7 85 58 ed ff ff fd 	movl   $0xfffffffd,-0x12a8(%rbp)
    8f90:	ff ff ff 
    8f93:	48 8d 05 7e cf 00 00 	lea    0xcf7e(%rip),%rax        # 15f18 <g_1441>
    8f9a:	48 89 85 e0 ed ff ff 	mov    %rax,-0x1220(%rbp)
    8fa1:	c7 05 45 cf 00 00 ec 	movl   $0xffffffec,0xcf45(%rip)        # 15ef0 <g_1298>
    8fa8:	ff ff ff 
    8fab:	eb 40                	jmp    8fed <func_9+0x496>
    8fad:	66 c7 85 1e ed ff ff 	movw   $0xaaef,-0x12e2(%rbp)
    8fb4:	ef aa 
    8fb6:	83 bd 20 ed ff ff 00 	cmpl   $0x0,-0x12e0(%rbp)
    8fbd:	74 05                	je     8fc4 <func_9+0x46d>
    8fbf:	e9 6b ff ff ff       	jmpq   8f2f <func_9+0x3d8>
    8fc4:	48 8b 05 75 ed 00 00 	mov    0xed75(%rip),%rax        # 17d40 <g_4>
    8fcb:	8b 00                	mov    (%rax),%eax
    8fcd:	85 c0                	test   %eax,%eax
    8fcf:	8b 05 1b cf 00 00    	mov    0xcf1b(%rip),%eax        # 15ef0 <g_1298>
    8fd5:	0f b7 c0             	movzwl %ax,%eax
    8fd8:	be 06 00 00 00       	mov    $0x6,%esi
    8fdd:	89 c7                	mov    %eax,%edi
    8fdf:	e8 1b ed ff ff       	callq  7cff <safe_add_func_uint16_t_u_u>
    8fe4:	0f b7 c0             	movzwl %ax,%eax
    8fe7:	89 05 03 cf 00 00    	mov    %eax,0xcf03(%rip)        # 15ef0 <g_1298>
    8fed:	8b 05 fd ce 00 00    	mov    0xcefd(%rip),%eax        # 15ef0 <g_1298>
    8ff3:	83 f8 1c             	cmp    $0x1c,%eax
    8ff6:	7e b5                	jle    8fad <func_9+0x456>
    8ff8:	c7 85 20 ed ff ff 00 	movl   $0x0,-0x12e0(%rbp)
    8fff:	00 00 00 
    9002:	e9 28 09 00 00       	jmpq   992f <func_9+0xdd8>
    9007:	48 c7 85 e8 ed ff ff 	movq   $0x0,-0x1218(%rbp)
    900e:	00 00 00 00 
    9012:	c7 85 5c ed ff ff ff 	movl   $0xffffffff,-0x12a4(%rbp)
    9019:	ff ff ff 
    901c:	48 c7 05 71 c4 00 00 	movq   $0x0,0xc471(%rip)        # 15498 <g_632>
    9023:	00 00 00 00 
    9027:	e9 b7 08 00 00       	jmpq   98e3 <func_9+0xd8c>
    902c:	48 c7 85 f0 ed ff ff 	movq   $0x6,-0x1210(%rbp)
    9033:	06 00 00 00 
    9037:	c7 85 60 ed ff ff fa 	movl   $0xfffffffa,-0x12a0(%rbp)
    903e:	ff ff ff 
    9041:	c7 85 64 ed ff ff f9 	movl   $0xfffffff9,-0x129c(%rbp)
    9048:	ff ff ff 
    904b:	c7 85 68 ed ff ff b6 	movl   $0x61853cb6,-0x1298(%rbp)
    9052:	3c 85 61 
    9055:	c7 85 6c ed ff ff 00 	movl   $0x0,-0x1294(%rbp)
    905c:	00 00 00 
    905f:	66 c7 85 1a ed ff ff 	movw   $0x9888,-0x12e6(%rbp)
    9066:	88 98 
    9068:	48 8d 85 78 ed ff ff 	lea    -0x1288(%rbp),%rax
    906f:	48 89 85 f8 ed ff ff 	mov    %rax,-0x1208(%rbp)
    9076:	48 be d9 ad b6 18 d8 	movabs $0x6618fed818b6add9,%rsi
    907d:	fe 18 66 
    9080:	bf 01 00 00 00       	mov    $0x1,%edi
    9085:	e8 2a e9 ff ff       	callq  79b4 <safe_mod_func_int64_t_s_s>
    908a:	48 ba 7a fd 3a 15 29 	movabs $0x3b7f7929153afd7a,%rdx
    9091:	79 7f 3b 
    9094:	48 39 d0             	cmp    %rdx,%rax
    9097:	0f 9f c2             	setg   %dl
    909a:	48 8b 05 8f f4 00 00 	mov    0xf48f(%rip),%rax        # 18530 <g_1365>
    90a1:	48 8b 00             	mov    (%rax),%rax
    90a4:	48 8b 00             	mov    (%rax),%rax
    90a7:	48 8b 00             	mov    (%rax),%rax
    90aa:	0f b6 d2             	movzbl %dl,%edx
    90ad:	89 10                	mov    %edx,(%rax)
    90af:	48 c7 05 ee bf 00 00 	movq   $0x2,0xbfee(%rip)        # 150a8 <g_131>
    90b6:	02 00 00 00 
    90ba:	e9 f5 07 00 00       	jmpq   98b4 <func_9+0xd5d>
    90bf:	c7 85 70 ed ff ff 01 	movl   $0x1,-0x1290(%rbp)
    90c6:	00 00 00 
    90c9:	48 c7 85 00 ee ff ff 	movq   $0x0,-0x1200(%rbp)
    90d0:	00 00 00 00 
    90d4:	c7 85 74 ed ff ff 00 	movl   $0x0,-0x128c(%rbp)
    90db:	00 00 00 
    90de:	48 c7 85 08 ee ff ff 	movq   $0x0,-0x11f8(%rbp)
    90e5:	00 00 00 00 
    90e9:	c7 85 28 ed ff ff 00 	movl   $0x0,-0x12d8(%rbp)
    90f0:	00 00 00 
    90f3:	eb 51                	jmp    9146 <func_9+0x5ef>
    90f5:	c7 85 2c ed ff ff 00 	movl   $0x0,-0x12d4(%rbp)
    90fc:	00 00 00 
    90ff:	eb 35                	jmp    9136 <func_9+0x5df>
    9101:	8b 85 2c ed ff ff    	mov    -0x12d4(%rbp),%eax
    9107:	48 63 c8             	movslq %eax,%rcx
    910a:	8b 85 28 ed ff ff    	mov    -0x12d8(%rbp),%eax
    9110:	48 63 d0             	movslq %eax,%rdx
    9113:	48 89 d0             	mov    %rdx,%rax
    9116:	48 c1 e0 02          	shl    $0x2,%rax
    911a:	48 01 d0             	add    %rdx,%rax
    911d:	48 01 c8             	add    %rcx,%rax
    9120:	48 8d 15 b9 bf 00 00 	lea    0xbfb9(%rip),%rdx        # 150e0 <g_235>
    9127:	48 89 94 c5 e0 ef ff 	mov    %rdx,-0x1020(%rbp,%rax,8)
    912e:	ff 
    912f:	83 85 2c ed ff ff 01 	addl   $0x1,-0x12d4(%rbp)
    9136:	83 bd 2c ed ff ff 04 	cmpl   $0x4,-0x12d4(%rbp)
    913d:	7e c2                	jle    9101 <func_9+0x5aa>
    913f:	83 85 28 ed ff ff 01 	addl   $0x1,-0x12d8(%rbp)
    9146:	83 bd 28 ed ff ff 02 	cmpl   $0x2,-0x12d8(%rbp)
    914d:	7e a6                	jle    90f5 <func_9+0x59e>
    914f:	48 8b 05 92 f3 00 00 	mov    0xf392(%rip),%rax        # 184e8 <g_1122>
    9156:	48 8b 00             	mov    (%rax),%rax
    9159:	48 85 c0             	test   %rax,%rax
    915c:	0f 95 c0             	setne  %al
    915f:	44 0f b6 e8          	movzbl %al,%r13d
    9163:	48 8b 85 f0 ed ff ff 	mov    -0x1210(%rbp),%rax
    916a:	41 89 c6             	mov    %eax,%r14d
    916d:	8b 05 a5 cd 00 00    	mov    0xcda5(%rip),%eax        # 15f18 <g_1441>
    9173:	0f be d8             	movsbl %al,%ebx
    9176:	8b 05 b0 cd 00 00    	mov    0xcdb0(%rip),%eax        # 15f2c <g_1714>
    917c:	83 85 04 ed ff ff 01 	addl   $0x1,-0x12fc(%rbp)
    9183:	48 8b 85 e8 ed ff ff 	mov    -0x1218(%rbp),%rax
    918a:	44 0f b7 e0          	movzwl %ax,%r12d
    918e:	48 8b 85 e8 ed ff ff 	mov    -0x1218(%rbp),%rax
    9195:	0f be d0             	movsbl %al,%edx
    9198:	48 83 bd e8 ed ff ff 	cmpq   $0x0,-0x1218(%rbp)
    919f:	00 
    91a0:	0f 95 c0             	setne  %al
    91a3:	0f b6 c0             	movzbl %al,%eax
    91a6:	89 d6                	mov    %edx,%esi
    91a8:	89 c7                	mov    %eax,%edi
    91aa:	e8 82 e0 ff ff       	callq  7231 <safe_mod_func_int8_t_s_s>
    91af:	48 8b 85 f0 ed ff ff 	mov    -0x1210(%rbp),%rax
    91b6:	48 39 85 e8 ed ff ff 	cmp    %rax,-0x1218(%rbp)
    91bd:	0f 95 c0             	setne  %al
    91c0:	0f b6 c0             	movzbl %al,%eax
    91c3:	48 39 85 f0 ed ff ff 	cmp    %rax,-0x1210(%rbp)
    91ca:	0f 94 c0             	sete   %al
    91cd:	0f b6 c0             	movzbl %al,%eax
    91d0:	44 89 e6             	mov    %r12d,%esi
    91d3:	89 c7                	mov    %eax,%edi
    91d5:	e8 45 eb ff ff       	callq  7d1f <safe_sub_func_uint16_t_u_u>
    91da:	0f b7 d0             	movzwl %ax,%edx
    91dd:	48 8b 05 3c f3 00 00 	mov    0xf33c(%rip),%rax        # 18520 <g_1368>
    91e4:	0f bf 8d 18 ed ff ff 	movswl -0x12e8(%rbp),%ecx
    91eb:	89 08                	mov    %ecx,(%rax)
    91ed:	8b 00                	mov    (%rax),%eax
    91ef:	89 d6                	mov    %edx,%esi
    91f1:	89 c7                	mov    %eax,%edi
    91f3:	e8 d4 e4 ff ff       	callq  76cc <safe_mod_func_int32_t_s_s>
    91f8:	85 c0                	test   %eax,%eax
    91fa:	74 07                	je     9203 <func_9+0x6ac>
    91fc:	83 bd 70 ed ff ff 00 	cmpl   $0x0,-0x1290(%rbp)
    9203:	89 de                	mov    %ebx,%esi
    9205:	bf 01 00 00 00       	mov    $0x1,%edi
    920a:	e8 5b e0 ff ff       	callq  726a <safe_div_func_int8_t_s_s>
    920f:	84 c0                	test   %al,%al
    9211:	75 09                	jne    921c <func_9+0x6c5>
    9213:	83 bd 04 ed ff ff 00 	cmpl   $0x0,-0x12fc(%rbp)
    921a:	74 07                	je     9223 <func_9+0x6cc>
    921c:	b8 01 00 00 00       	mov    $0x1,%eax
    9221:	eb 05                	jmp    9228 <func_9+0x6d1>
    9223:	b8 00 00 00 00       	mov    $0x0,%eax
    9228:	ba 00 00 00 00       	mov    $0x0,%edx
    922d:	39 d0                	cmp    %edx,%eax
    922f:	0f 9c c0             	setl   %al
    9232:	0f b6 c0             	movzbl %al,%eax
    9235:	89 c6                	mov    %eax,%esi
    9237:	bf a6 ff ff ff       	mov    $0xffffffa6,%edi
    923c:	e8 d1 df ff ff       	callq  7212 <safe_mul_func_int8_t_s_s>
    9241:	48 0f be c0          	movsbq %al,%rax
    9245:	48 89 05 94 be 00 00 	mov    %rax,0xbe94(%rip)        # 150e0 <g_235>
    924c:	48 8b 05 8d be 00 00 	mov    0xbe8d(%rip),%rax        # 150e0 <g_235>
    9253:	48 23 85 e8 ed ff ff 	and    -0x1218(%rbp),%rax
    925a:	48 89 c2             	mov    %rax,%rdx
    925d:	48 8b 05 dc f2 00 00 	mov    0xf2dc(%rip),%rax        # 18540 <g_1454>
    9264:	0f b6 00             	movzbl (%rax),%eax
    9267:	89 c1                	mov    %eax,%ecx
    9269:	89 d0                	mov    %edx,%eax
    926b:	09 c1                	or     %eax,%ecx
    926d:	89 ca                	mov    %ecx,%edx
    926f:	48 8b 05 ca f2 00 00 	mov    0xf2ca(%rip),%rax        # 18540 <g_1454>
    9276:	88 10                	mov    %dl,(%rax)
    9278:	0f b6 00             	movzbl (%rax),%eax
    927b:	0f be c0             	movsbl %al,%eax
    927e:	89 85 60 ed ff ff    	mov    %eax,-0x12a0(%rbp)
    9284:	8b 85 60 ed ff ff    	mov    -0x12a0(%rbp),%eax
    928a:	0f be c0             	movsbl %al,%eax
    928d:	44 89 f6             	mov    %r14d,%esi
    9290:	89 c7                	mov    %eax,%edi
    9292:	e8 d5 e0 ff ff       	callq  736c <safe_rshift_func_int8_t_s_u>
    9297:	0f be c0             	movsbl %al,%eax
    929a:	41 39 c5             	cmp    %eax,%r13d
    929d:	83 bd 64 ed ff ff 00 	cmpl   $0x0,-0x129c(%rbp)
    92a4:	0f 84 7e 04 00 00    	je     9728 <func_9+0xbd1>
    92aa:	66 c7 85 1c ed ff ff 	movw   $0x4a30,-0x12e4(%rbp)
    92b1:	30 4a 
    92b3:	c7 85 90 f2 ff ff 01 	movl   $0x1,-0xd70(%rbp)
    92ba:	00 00 00 
    92bd:	c7 85 94 f2 ff ff 19 	movl   $0x63a43119,-0xd6c(%rbp)
    92c4:	31 a4 63 
    92c7:	c7 85 98 f2 ff ff 01 	movl   $0x1,-0xd68(%rbp)
    92ce:	00 00 00 
    92d1:	c7 85 9c f2 ff ff 37 	movl   $0x25f82437,-0xd64(%rbp)
    92d8:	24 f8 25 
    92db:	c7 85 a0 f2 ff ff 58 	movl   $0xcbdb4b58,-0xd60(%rbp)
    92e2:	4b db cb 
    92e5:	c7 85 a4 f2 ff ff 01 	movl   $0x1,-0xd5c(%rbp)
    92ec:	00 00 00 
    92ef:	c7 85 a8 f2 ff ff 01 	movl   $0x1,-0xd58(%rbp)
    92f6:	00 00 00 
    92f9:	c7 85 ac f2 ff ff 01 	movl   $0x1,-0xd54(%rbp)
    9300:	00 00 00 
    9303:	c7 85 b0 f2 ff ff 75 	movl   $0x96629975,-0xd50(%rbp)
    930a:	99 62 96 
    930d:	c7 85 b4 f2 ff ff bb 	movl   $0x997bd1bb,-0xd4c(%rbp)
    9314:	d1 7b 99 
    9317:	c7 85 b8 f2 ff ff bb 	movl   $0x997bd1bb,-0xd48(%rbp)
    931e:	d1 7b 99 
    9321:	c7 85 bc f2 ff ff 75 	movl   $0x96629975,-0xd44(%rbp)
    9328:	99 62 96 
    932b:	c7 85 c0 f2 ff ff 01 	movl   $0x1,-0xd40(%rbp)
    9332:	00 00 00 
    9335:	c7 85 c4 f2 ff ff 01 	movl   $0x1,-0xd3c(%rbp)
    933c:	00 00 00 
    933f:	c7 85 c8 f2 ff ff 01 	movl   $0x1,-0xd38(%rbp)
    9346:	00 00 00 
    9349:	c7 85 cc f2 ff ff 58 	movl   $0xcbdb4b58,-0xd34(%rbp)
    9350:	4b db cb 
    9353:	c7 85 d0 f2 ff ff 37 	movl   $0x25f82437,-0xd30(%rbp)
    935a:	24 f8 25 
    935d:	c7 85 d4 f2 ff ff 01 	movl   $0x1,-0xd2c(%rbp)
    9364:	00 00 00 
    9367:	c7 85 d8 f2 ff ff 19 	movl   $0x63a43119,-0xd28(%rbp)
    936e:	31 a4 63 
    9371:	c7 85 dc f2 ff ff 01 	movl   $0x1,-0xd24(%rbp)
    9378:	00 00 00 
    937b:	c7 85 e0 f2 ff ff 37 	movl   $0x25f82437,-0xd20(%rbp)
    9382:	24 f8 25 
    9385:	c7 85 e4 f2 ff ff 58 	movl   $0xcbdb4b58,-0xd1c(%rbp)
    938c:	4b db cb 
    938f:	c7 85 e8 f2 ff ff 01 	movl   $0x1,-0xd18(%rbp)
    9396:	00 00 00 
    9399:	c7 85 ec f2 ff ff 01 	movl   $0x1,-0xd14(%rbp)
    93a0:	00 00 00 
    93a3:	c7 85 f0 f2 ff ff 01 	movl   $0x1,-0xd10(%rbp)
    93aa:	00 00 00 
    93ad:	c7 85 f4 f2 ff ff 75 	movl   $0x96629975,-0xd0c(%rbp)
    93b4:	99 62 96 
    93b7:	c7 85 f8 f2 ff ff bb 	movl   $0x997bd1bb,-0xd08(%rbp)
    93be:	d1 7b 99 
    93c1:	c7 85 fc f2 ff ff bb 	movl   $0x997bd1bb,-0xd04(%rbp)
    93c8:	d1 7b 99 
    93cb:	c7 85 00 f3 ff ff 75 	movl   $0x96629975,-0xd00(%rbp)
    93d2:	99 62 96 
    93d5:	c7 85 04 f3 ff ff 01 	movl   $0x1,-0xcfc(%rbp)
    93dc:	00 00 00 
    93df:	c7 85 08 f3 ff ff 01 	movl   $0x1,-0xcf8(%rbp)
    93e6:	00 00 00 
    93e9:	c7 85 0c f3 ff ff 01 	movl   $0x1,-0xcf4(%rbp)
    93f0:	00 00 00 
    93f3:	c7 85 10 f3 ff ff 58 	movl   $0xcbdb4b58,-0xcf0(%rbp)
    93fa:	4b db cb 
    93fd:	c7 85 14 f3 ff ff 37 	movl   $0x25f82437,-0xcec(%rbp)
    9404:	24 f8 25 
    9407:	c7 85 18 f3 ff ff 01 	movl   $0x1,-0xce8(%rbp)
    940e:	00 00 00 
    9411:	c7 85 1c f3 ff ff 19 	movl   $0x63a43119,-0xce4(%rbp)
    9418:	31 a4 63 
    941b:	c7 85 20 f3 ff ff 01 	movl   $0x1,-0xce0(%rbp)
    9422:	00 00 00 
    9425:	c7 85 24 f3 ff ff 37 	movl   $0x25f82437,-0xcdc(%rbp)
    942c:	24 f8 25 
    942f:	c7 85 28 f3 ff ff 58 	movl   $0xcbdb4b58,-0xcd8(%rbp)
    9436:	4b db cb 
    9439:	c7 85 2c f3 ff ff 01 	movl   $0x1,-0xcd4(%rbp)
    9440:	00 00 00 
    9443:	c7 85 30 f3 ff ff 01 	movl   $0x1,-0xcd0(%rbp)
    944a:	00 00 00 
    944d:	c7 85 34 f3 ff ff 01 	movl   $0x1,-0xccc(%rbp)
    9454:	00 00 00 
    9457:	c7 85 38 f3 ff ff 75 	movl   $0x96629975,-0xcc8(%rbp)
    945e:	99 62 96 
    9461:	c7 85 3c f3 ff ff bb 	movl   $0x997bd1bb,-0xcc4(%rbp)
    9468:	d1 7b 99 
    946b:	c7 85 40 f3 ff ff bb 	movl   $0x997bd1bb,-0xcc0(%rbp)
    9472:	d1 7b 99 
    9475:	c7 85 44 f3 ff ff 75 	movl   $0x96629975,-0xcbc(%rbp)
    947c:	99 62 96 
    947f:	c7 85 48 f3 ff ff 01 	movl   $0x1,-0xcb8(%rbp)
    9486:	00 00 00 
    9489:	c7 85 4c f3 ff ff 01 	movl   $0x1,-0xcb4(%rbp)
    9490:	00 00 00 
    9493:	c7 85 50 f3 ff ff 01 	movl   $0x1,-0xcb0(%rbp)
    949a:	00 00 00 
    949d:	c7 85 54 f3 ff ff 58 	movl   $0xcbdb4b58,-0xcac(%rbp)
    94a4:	4b db cb 
    94a7:	c7 85 58 f3 ff ff 37 	movl   $0x25f82437,-0xca8(%rbp)
    94ae:	24 f8 25 
    94b1:	c7 85 5c f3 ff ff 01 	movl   $0x1,-0xca4(%rbp)
    94b8:	00 00 00 
    94bb:	c7 85 60 f3 ff ff 19 	movl   $0x63a43119,-0xca0(%rbp)
    94c2:	31 a4 63 
    94c5:	c7 85 64 f3 ff ff 01 	movl   $0x1,-0xc9c(%rbp)
    94cc:	00 00 00 
    94cf:	c7 85 68 f3 ff ff 37 	movl   $0x25f82437,-0xc98(%rbp)
    94d6:	24 f8 25 
    94d9:	c7 85 6c f3 ff ff 58 	movl   $0xcbdb4b58,-0xc94(%rbp)
    94e0:	4b db cb 
    94e3:	c7 85 70 f3 ff ff 01 	movl   $0x1,-0xc90(%rbp)
    94ea:	00 00 00 
    94ed:	c7 85 74 f3 ff ff 01 	movl   $0x1,-0xc8c(%rbp)
    94f4:	00 00 00 
    94f7:	c7 85 78 f3 ff ff 01 	movl   $0x1,-0xc88(%rbp)
    94fe:	00 00 00 
    9501:	c7 85 7c f3 ff ff 75 	movl   $0x96629975,-0xc84(%rbp)
    9508:	99 62 96 
    950b:	48 c7 85 18 ee ff ff 	movq   $0x0,-0x11e8(%rbp)
    9512:	00 00 00 00 
    9516:	c7 85 30 ed ff ff 00 	movl   $0x0,-0x12d0(%rbp)
    951d:	00 00 00 
    9520:	eb 1a                	jmp    953c <func_9+0x9e5>
    9522:	8b 85 30 ed ff ff    	mov    -0x12d0(%rbp),%eax
    9528:	48 98                	cltq   
    952a:	c7 84 85 c0 ee ff ff 	movl   $0xffffffff,-0x1140(%rbp,%rax,4)
    9531:	ff ff ff ff 
    9535:	83 85 30 ed ff ff 01 	addl   $0x1,-0x12d0(%rbp)
    953c:	83 bd 30 ed ff ff 02 	cmpl   $0x2,-0x12d0(%rbp)
    9543:	7e dd                	jle    9522 <func_9+0x9cb>
    9545:	83 85 24 ed ff ff 01 	addl   $0x1,-0x12dc(%rbp)
    954c:	48 8b 05 95 f8 00 00 	mov    0xf895(%rip),%rax        # 18de8 <g_1743>
    9553:	c7 85 5c ed ff ff ff 	movl   $0xffffffff,-0x12a4(%rbp)
    955a:	ff ff ff 
    955d:	48 8b 05 bc ef 00 00 	mov    0xefbc(%rip),%rax        # 18520 <g_1368>
    9564:	8b 18                	mov    (%rax),%ebx
    9566:	8b 85 68 ed ff ff    	mov    -0x1298(%rbp),%eax
    956c:	48 98                	cltq   
    956e:	48 89 85 f8 ec ff ff 	mov    %rax,-0x1308(%rbp)
    9575:	0f b7 85 1c ed ff ff 	movzwl -0x12e4(%rbp),%eax
    957c:	44 0f b7 e0          	movzwl %ax,%r12d
    9580:	44 8b ad 04 ed ff ff 	mov    -0x12fc(%rbp),%r13d
    9587:	44 8b b5 3c ed ff ff 	mov    -0x12c4(%rbp),%r14d
    958e:	8b 85 04 ed ff ff    	mov    -0x12fc(%rbp),%eax
    9594:	44 0f be f8          	movsbl %al,%r15d
    9598:	8b 05 ca f7 00 00    	mov    0xf7ca(%rip),%eax        # 18d68 <g_30>
    959e:	85 c0                	test   %eax,%eax
    95a0:	0f 9e c0             	setle  %al
    95a3:	0f b6 c0             	movzbl %al,%eax
    95a6:	c7 85 60 f3 ff ff 88 	movl   $0x88,-0xca0(%rbp)
    95ad:	00 00 00 
    95b0:	89 c6                	mov    %eax,%esi
    95b2:	bf 88 00 00 00       	mov    $0x88,%edi
    95b7:	e8 bc e5 ff ff       	callq  7b78 <safe_sub_func_uint8_t_u_u>
    95bc:	3c dc                	cmp    $0xdc,%al
    95be:	0f 95 c2             	setne  %dl
    95c1:	48 8b 05 58 ee 00 00 	mov    0xee58(%rip),%rax        # 18420 <g_272>
    95c8:	0f b6 d2             	movzbl %dl,%edx
    95cb:	66 89 10             	mov    %dx,(%rax)
    95ce:	0f b7 00             	movzwl (%rax),%eax
    95d1:	98                   	cwtl   
    95d2:	39 85 04 ed ff ff    	cmp    %eax,-0x12fc(%rbp)
    95d8:	0f 95 c0             	setne  %al
    95db:	0f b6 c0             	movzbl %al,%eax
    95de:	44 89 fe             	mov    %r15d,%esi
    95e1:	89 c7                	mov    %eax,%edi
    95e3:	e8 49 dc ff ff       	callq  7231 <safe_mod_func_int8_t_s_s>
    95e8:	0f be c0             	movsbl %al,%eax
    95eb:	44 89 f6             	mov    %r14d,%esi
    95ee:	89 c7                	mov    %eax,%edi
    95f0:	e8 08 e9 ff ff       	callq  7efd <safe_mod_func_uint32_t_u_u>
    95f5:	85 c0                	test   %eax,%eax
    95f7:	0f 94 c0             	sete   %al
    95fa:	0f b6 c0             	movzbl %al,%eax
    95fd:	44 89 ee             	mov    %r13d,%esi
    9600:	89 c7                	mov    %eax,%edi
    9602:	e8 f8 e0 ff ff       	callq  76ff <safe_div_func_int32_t_s_s>
    9607:	89 c2                	mov    %eax,%edx
    9609:	48 8b 05 38 ef 00 00 	mov    0xef38(%rip),%rax        # 18548 <g_1453>
    9610:	48 8b 00             	mov    (%rax),%rax
    9613:	88 10                	mov    %dl,(%rax)
    9615:	0f b6 00             	movzbl (%rax),%eax
    9618:	0f be c0             	movsbl %al,%eax
    961b:	39 85 04 ed ff ff    	cmp    %eax,-0x12fc(%rbp)
    9621:	74 07                	je     962a <func_9+0xad3>
    9623:	83 bd 04 ed ff ff 00 	cmpl   $0x0,-0x12fc(%rbp)
    962a:	48 8b 85 f8 ed ff ff 	mov    -0x1208(%rbp),%rax
    9631:	48 3b 85 18 ee ff ff 	cmp    -0x11e8(%rbp),%rax
    9638:	0f 95 c0             	setne  %al
    963b:	0f b6 c0             	movzbl %al,%eax
    963e:	44 89 e6             	mov    %r12d,%esi
    9641:	89 c7                	mov    %eax,%edi
    9643:	e8 d7 e6 ff ff       	callq  7d1f <safe_sub_func_uint16_t_u_u>
    9648:	0f b7 c0             	movzwl %ax,%eax
    964b:	48 35 02 ff ff ff    	xor    $0xffffffffffffff02,%rax
    9651:	48 39 85 f8 ec ff ff 	cmp    %rax,-0x1308(%rbp)
    9658:	0f 96 c0             	setbe  %al
    965b:	0f b6 c0             	movzbl %al,%eax
    965e:	89 de                	mov    %ebx,%esi
    9660:	89 c7                	mov    %eax,%edi
    9662:	e8 4f df ff ff       	callq  75b6 <safe_add_func_int32_t_s_s>
    9667:	98                   	cwtl   
    9668:	be 04 00 00 00       	mov    $0x4,%esi
    966d:	89 c7                	mov    %eax,%edi
    966f:	e8 6d de ff ff       	callq  74e1 <safe_lshift_func_int16_t_s_u>
    9674:	89 c2                	mov    %eax,%edx
    9676:	0f b6 85 11 ed ff ff 	movzbl -0x12ef(%rbp),%eax
    967d:	09 d0                	or     %edx,%eax
    967f:	88 85 11 ed ff ff    	mov    %al,-0x12ef(%rbp)
    9685:	c7 85 6c ed ff ff 01 	movl   $0x1,-0x1294(%rbp)
    968c:	00 00 00 
    968f:	8b 85 6c ed ff ff    	mov    -0x1294(%rbp),%eax
    9695:	be ff ff ff ff       	mov    $0xffffffff,%esi
    969a:	89 c7                	mov    %eax,%edi
    969c:	e8 84 e8 ff ff       	callq  7f25 <safe_div_func_uint32_t_u_u>
    96a1:	be b9 2d e3 17       	mov    $0x17e32db9,%esi
    96a6:	89 c7                	mov    %eax,%edi
    96a8:	e8 09 df ff ff       	callq  75b6 <safe_add_func_int32_t_s_s>
    96ad:	0f b6 c0             	movzbl %al,%eax
    96b0:	be 04 00 00 00       	mov    $0x4,%esi
    96b5:	89 c7                	mov    %eax,%edi
    96b7:	e8 49 e5 ff ff       	callq  7c05 <safe_lshift_func_uint8_t_u_s>
    96bc:	bf 01 00 00 00       	mov    $0x1,%edi
    96c1:	e8 f9 da ff ff       	callq  71bf <safe_unary_minus_func_int8_t_s>
    96c6:	66 98                	cbtw   
    96c8:	f7 d0                	not    %eax
    96ca:	98                   	cwtl   
    96cb:	be 0e 00 00 00       	mov    $0xe,%esi
    96d0:	89 c7                	mov    %eax,%edi
    96d2:	e8 0a de ff ff       	callq  74e1 <safe_lshift_func_int16_t_s_u>
    96d7:	ba 01 00 00 00       	mov    $0x1,%edx
    96dc:	8b 85 c0 ee ff ff    	mov    -0x1140(%rbp),%eax
    96e2:	31 d0                	xor    %edx,%eax
    96e4:	89 85 c0 ee ff ff    	mov    %eax,-0x1140(%rbp)
    96ea:	66 83 bd 1c ed ff ff 	cmpw   $0x0,-0x12e4(%rbp)
    96f1:	00 
    96f2:	74 11                	je     9705 <func_9+0xbae>
    96f4:	48 83 bd e8 ed ff ff 	cmpq   $0x0,-0x1218(%rbp)
    96fb:	00 
    96fc:	74 07                	je     9705 <func_9+0xbae>
    96fe:	ba 01 00 00 00       	mov    $0x1,%edx
    9703:	eb 05                	jmp    970a <func_9+0xbb3>
    9705:	ba 00 00 00 00       	mov    $0x0,%edx
    970a:	48 8b 05 0f ee 00 00 	mov    0xee0f(%rip),%rax        # 18520 <g_1368>
    9711:	89 10                	mov    %edx,(%rax)
    9713:	48 8b 15 1e c8 00 00 	mov    0xc81e(%rip),%rdx        # 15f38 <g_1774>
    971a:	48 8b 05 ff ed 00 00 	mov    0xedff(%rip),%rax        # 18520 <g_1368>
    9721:	89 10                	mov    %edx,(%rax)
    9723:	e9 6c 01 00 00       	jmpq   9894 <func_9+0xd3d>
    9728:	48 c7 85 10 ee ff ff 	movq   $0x1,-0x11f0(%rbp)
    972f:	01 00 00 00 
    9733:	48 8b 85 10 ee ff ff 	mov    -0x11f0(%rbp),%rax
    973a:	41 89 c6             	mov    %eax,%r14d
    973d:	8b 85 04 ed ff ff    	mov    -0x12fc(%rbp),%eax
    9743:	0f be d8             	movsbl %al,%ebx
    9746:	8b 85 04 ed ff ff    	mov    -0x12fc(%rbp),%eax
    974c:	44 0f be e0          	movsbl %al,%r12d
    9750:	44 8b ad 04 ed ff ff 	mov    -0x12fc(%rbp),%r13d
    9757:	48 8b 85 10 ee ff ff 	mov    -0x11f0(%rbp),%rax
    975e:	0f b6 d0             	movzbl %al,%edx
    9761:	48 8b 85 10 ee ff ff 	mov    -0x11f0(%rbp),%rax
    9768:	0f b6 c0             	movzbl %al,%eax
    976b:	89 d6                	mov    %edx,%esi
    976d:	89 c7                	mov    %eax,%edi
    976f:	e8 1f e4 ff ff       	callq  7b93 <safe_mul_func_uint8_t_u_u>
    9774:	0f b6 d0             	movzbl %al,%edx
    9777:	48 8b 05 0a ed 00 00 	mov    0xed0a(%rip),%rax        # 18488 <g_574>
    977e:	48 8b 8d e0 ed ff ff 	mov    -0x1220(%rbp),%rcx
    9785:	48 89 08             	mov    %rcx,(%rax)
    9788:	48 8b 00             	mov    (%rax),%rax
    978b:	48 39 85 e0 ed ff ff 	cmp    %rax,-0x1220(%rbp)
    9792:	0f 95 c0             	setne  %al
    9795:	0f b6 c0             	movzbl %al,%eax
    9798:	89 d6                	mov    %edx,%esi
    979a:	89 c7                	mov    %eax,%edi
    979c:	e8 64 de ff ff       	callq  7605 <safe_sub_func_int32_t_s_s>
    97a1:	83 e0 94             	and    $0xffffff94,%eax
    97a4:	0f be d0             	movsbl %al,%edx
    97a7:	48 8b 05 9a ed 00 00 	mov    0xed9a(%rip),%rax        # 18548 <g_1453>
    97ae:	48 8b 00             	mov    (%rax),%rax
    97b1:	0f b6 00             	movzbl (%rax),%eax
    97b4:	0f be c0             	movsbl %al,%eax
    97b7:	89 d6                	mov    %edx,%esi
    97b9:	89 c7                	mov    %eax,%edi
    97bb:	e8 32 da ff ff       	callq  71f2 <safe_sub_func_int8_t_s_s>
    97c0:	0f be c0             	movsbl %al,%eax
    97c3:	44 89 ee             	mov    %r13d,%esi
    97c6:	89 c7                	mov    %eax,%edi
    97c8:	e8 c5 dc ff ff       	callq  7492 <safe_lshift_func_int16_t_s_s>
    97cd:	48 0f bf c0          	movswq %ax,%rax
    97d1:	25 2b 9c 93 46       	and    $0x46939c2b,%eax
    97d6:	48 89 c2             	mov    %rax,%rdx
    97d9:	48 8b 05 48 ed 00 00 	mov    0xed48(%rip),%rax        # 18528 <g_1366>
    97e0:	48 8b 00             	mov    (%rax),%rax
    97e3:	48 8b 00             	mov    (%rax),%rax
    97e6:	8b 00                	mov    (%rax),%eax
    97e8:	48 98                	cltq   
    97ea:	48 39 c2             	cmp    %rax,%rdx
    97ed:	0f 95 c0             	setne  %al
    97f0:	0f b6 d0             	movzbl %al,%edx
    97f3:	48 8b 05 9e ec 00 00 	mov    0xec9e(%rip),%rax        # 18498 <g_601>
    97fa:	48 8b 00             	mov    (%rax),%rax
    97fd:	0f b7 00             	movzwl (%rax),%eax
    9800:	89 c1                	mov    %eax,%ecx
    9802:	89 d0                	mov    %edx,%eax
    9804:	21 c1                	and    %eax,%ecx
    9806:	89 ca                	mov    %ecx,%edx
    9808:	48 8b 05 89 ec 00 00 	mov    0xec89(%rip),%rax        # 18498 <g_601>
    980f:	48 8b 00             	mov    (%rax),%rax
    9812:	66 89 10             	mov    %dx,(%rax)
    9815:	0f b7 00             	movzwl (%rax),%eax
    9818:	0f b7 c0             	movzwl %ax,%eax
    981b:	39 85 58 ed ff ff    	cmp    %eax,-0x12a8(%rbp)
    9821:	0f 9e c0             	setle  %al
    9824:	0f b6 c0             	movzbl %al,%eax
    9827:	44 89 e6             	mov    %r12d,%esi
    982a:	89 c7                	mov    %eax,%edi
    982c:	e8 39 da ff ff       	callq  726a <safe_div_func_int8_t_s_s>
    9831:	66 98                	cbtw   
    9833:	0f b7 c0             	movzwl %ax,%eax
    9836:	8b 95 04 ed ff ff    	mov    -0x12fc(%rbp),%edx
    983c:	89 d6                	mov    %edx,%esi
    983e:	89 c7                	mov    %eax,%edi
    9840:	e8 35 e6 ff ff       	callq  7e7a <safe_rshift_func_uint16_t_u_u>
    9845:	89 c2                	mov    %eax,%edx
    9847:	8b 85 04 ed ff ff    	mov    -0x12fc(%rbp),%eax
    984d:	09 d0                	or     %edx,%eax
    984f:	0f be c0             	movsbl %al,%eax
    9852:	89 de                	mov    %ebx,%esi
    9854:	89 c7                	mov    %eax,%edi
    9856:	e8 b7 d9 ff ff       	callq  7212 <safe_mul_func_int8_t_s_s>
    985b:	0f be c0             	movsbl %al,%eax
    985e:	44 89 f6             	mov    %r14d,%esi
    9861:	89 c7                	mov    %eax,%edi
    9863:	e8 9d dd ff ff       	callq  7605 <safe_sub_func_int32_t_s_s>
    9868:	85 c0                	test   %eax,%eax
    986a:	75 07                	jne    9873 <func_9+0xd1c>
    986c:	ba 7f 90 3c a4       	mov    $0xa43c907f,%edx
    9871:	eb 05                	jmp    9878 <func_9+0xd21>
    9873:	ba 7e 90 3c a4       	mov    $0xa43c907e,%edx
    9878:	8b 85 04 ed ff ff    	mov    -0x12fc(%rbp),%eax
    987e:	89 c6                	mov    %eax,%esi
    9880:	89 d7                	mov    %edx,%edi
    9882:	e8 31 e6 ff ff       	callq  7eb8 <safe_add_func_uint32_t_u_u>
    9887:	48 8b 05 92 ec 00 00 	mov    0xec92(%rip),%rax        # 18520 <g_1368>
    988e:	c7 00 d1 d5 0f 96    	movl   $0x960fd5d1,(%rax)
    9894:	48 8b 05 55 f5 00 00 	mov    0xf555(%rip),%rax        # 18df0 <g_1800>
    989b:	48 89 85 08 ee ff ff 	mov    %rax,-0x11f8(%rbp)
    98a2:	48 8b 05 ff b7 00 00 	mov    0xb7ff(%rip),%rax        # 150a8 <g_131>
    98a9:	48 83 e8 01          	sub    $0x1,%rax
    98ad:	48 89 05 f4 b7 00 00 	mov    %rax,0xb7f4(%rip)        # 150a8 <g_131>
    98b4:	48 8b 05 ed b7 00 00 	mov    0xb7ed(%rip),%rax        # 150a8 <g_131>
    98bb:	48 85 c0             	test   %rax,%rax
    98be:	0f 89 fb f7 ff ff    	jns    90bf <func_9+0x568>
    98c4:	48 8b 05 cd bb 00 00 	mov    0xbbcd(%rip),%rax        # 15498 <g_632>
    98cb:	98                   	cwtl   
    98cc:	be 03 00 00 00       	mov    $0x3,%esi
    98d1:	89 c7                	mov    %eax,%edi
    98d3:	e8 db da ff ff       	callq  73b3 <safe_add_func_int16_t_s_s>
    98d8:	48 0f bf c0          	movswq %ax,%rax
    98dc:	48 89 05 b5 bb 00 00 	mov    %rax,0xbbb5(%rip)        # 15498 <g_632>
    98e3:	48 8b 05 ae bb 00 00 	mov    0xbbae(%rip),%rax        # 15498 <g_632>
    98ea:	48 85 c0             	test   %rax,%rax
    98ed:	0f 85 39 f7 ff ff    	jne    902c <func_9+0x4d5>
    98f3:	c7 85 90 ed ff ff 1c 	movl   $0x1c,-0x1270(%rbp)
    98fa:	00 00 00 
    98fd:	90                   	nop
    98fe:	8b 85 90 ed ff ff    	mov    -0x1270(%rbp),%eax
    9904:	83 f8 29             	cmp    $0x29,%eax
    9907:	77 1f                	ja     9928 <func_9+0xdd1>
    9909:	48 8b 05 18 ec 00 00 	mov    0xec18(%rip),%rax        # 18528 <g_1366>
    9910:	48 8b 00             	mov    (%rax),%rax
    9913:	48 8b 00             	mov    (%rax),%rax
    9916:	c7 00 d7 70 56 ec    	movl   $0xec5670d7,(%rax)
    991c:	48 8b 85 08 ed ff ff 	mov    -0x12f8(%rbp),%rax
    9923:	e9 32 13 00 00       	jmpq   ac5a <func_9+0x2103>
    9928:	83 ad 20 ed ff ff 01 	subl   $0x1,-0x12e0(%rbp)
    992f:	83 bd 20 ed ff ff fa 	cmpl   $0xfffffffa,-0x12e0(%rbp)
    9936:	0f 8c cb f6 ff ff    	jl     9007 <func_9+0x4b0>
    993c:	e9 0c 13 00 00       	jmpq   ac4d <func_9+0x20f6>
    9941:	c7 85 48 ed ff ff 00 	movl   $0x0,-0x12b8(%rbp)
    9948:	00 00 00 
    994b:	48 b8 01 11 01 01 11 	movabs $0x1101011101011101,%rax
    9952:	01 01 11 
    9955:	48 89 45 bf          	mov    %rax,-0x41(%rbp)
    9959:	c6 45 c7 01          	movb   $0x1,-0x39(%rbp)
    995d:	c7 85 4c ed ff ff 01 	movl   $0x1,-0x12b4(%rbp)
    9964:	00 00 00 
    9967:	48 8d 05 86 b7 00 00 	lea    0xb786(%rip),%rax        # 150f4 <g_261+0x4>
    996e:	48 89 85 90 ed ff ff 	mov    %rax,-0x1270(%rbp)
    9975:	48 8d 85 90 ed ff ff 	lea    -0x1270(%rbp),%rax
    997c:	48 89 85 c0 ed ff ff 	mov    %rax,-0x1240(%rbp)
    9983:	48 8d 05 56 eb 00 00 	lea    0xeb56(%rip),%rax        # 184e0 <g_931>
    998a:	48 89 85 e0 ef ff ff 	mov    %rax,-0x1020(%rbp)
    9991:	48 8d 05 48 eb 00 00 	lea    0xeb48(%rip),%rax        # 184e0 <g_931>
    9998:	48 89 85 e8 ef ff ff 	mov    %rax,-0x1018(%rbp)
    999f:	48 8d 05 3a eb 00 00 	lea    0xeb3a(%rip),%rax        # 184e0 <g_931>
    99a6:	48 89 85 f0 ef ff ff 	mov    %rax,-0x1010(%rbp)
    99ad:	48 8d 05 2c eb 00 00 	lea    0xeb2c(%rip),%rax        # 184e0 <g_931>
    99b4:	48 89 85 f8 ef ff ff 	mov    %rax,-0x1008(%rbp)
    99bb:	48 8d 05 1e eb 00 00 	lea    0xeb1e(%rip),%rax        # 184e0 <g_931>
    99c2:	48 89 85 00 f0 ff ff 	mov    %rax,-0x1000(%rbp)
    99c9:	48 8d 05 10 eb 00 00 	lea    0xeb10(%rip),%rax        # 184e0 <g_931>
    99d0:	48 89 85 08 f0 ff ff 	mov    %rax,-0xff8(%rbp)
    99d7:	48 8d 05 02 eb 00 00 	lea    0xeb02(%rip),%rax        # 184e0 <g_931>
    99de:	48 89 85 10 f0 ff ff 	mov    %rax,-0xff0(%rbp)
    99e5:	48 8d 05 f4 ea 00 00 	lea    0xeaf4(%rip),%rax        # 184e0 <g_931>
    99ec:	48 89 85 18 f0 ff ff 	mov    %rax,-0xfe8(%rbp)
    99f3:	48 8d 05 e6 ea 00 00 	lea    0xeae6(%rip),%rax        # 184e0 <g_931>
    99fa:	48 89 85 20 f0 ff ff 	mov    %rax,-0xfe0(%rbp)
    9a01:	c6 85 13 ed ff ff 8c 	movb   $0x8c,-0x12ed(%rbp)
    9a08:	48 8d 85 90 f2 ff ff 	lea    -0xd70(%rbp),%rax
    9a0f:	48 8d 15 8a c9 00 00 	lea    0xc98a(%rip),%rdx        # 163a0 <g_2144+0x3d8>
    9a16:	b9 b4 00 00 00       	mov    $0xb4,%ecx
    9a1b:	48 89 c7             	mov    %rax,%rdi
    9a1e:	48 89 d6             	mov    %rdx,%rsi
    9a21:	f3 48 a5             	rep movsq %ds:(%rsi),%es:(%rdi)
    9a24:	48 8d 85 90 f2 ff ff 	lea    -0xd70(%rbp),%rax
    9a2b:	48 05 f8 04 00 00    	add    $0x4f8,%rax
    9a31:	48 89 85 30 f8 ff ff 	mov    %rax,-0x7d0(%rbp)
    9a38:	48 8d 85 90 f2 ff ff 	lea    -0xd70(%rbp),%rax
    9a3f:	48 05 f8 04 00 00    	add    $0x4f8,%rax
    9a45:	48 89 85 38 f8 ff ff 	mov    %rax,-0x7c8(%rbp)
    9a4c:	48 8d 85 90 f2 ff ff 	lea    -0xd70(%rbp),%rax
    9a53:	48 05 88 01 00 00    	add    $0x188,%rax
    9a59:	48 89 85 40 f8 ff ff 	mov    %rax,-0x7c0(%rbp)
    9a60:	48 c7 85 48 f8 ff ff 	movq   $0x0,-0x7b8(%rbp)
    9a67:	00 00 00 00 
    9a6b:	48 8d 85 90 f2 ff ff 	lea    -0xd70(%rbp),%rax
    9a72:	48 83 c0 18          	add    $0x18,%rax
    9a76:	48 89 85 50 f8 ff ff 	mov    %rax,-0x7b0(%rbp)
    9a7d:	48 8d 85 90 f2 ff ff 	lea    -0xd70(%rbp),%rax
    9a84:	48 05 e0 01 00 00    	add    $0x1e0,%rax
    9a8a:	48 89 85 58 f8 ff ff 	mov    %rax,-0x7a8(%rbp)
    9a91:	48 8d 85 90 f2 ff ff 	lea    -0xd70(%rbp),%rax
    9a98:	48 05 f8 04 00 00    	add    $0x4f8,%rax
    9a9e:	48 89 85 60 f8 ff ff 	mov    %rax,-0x7a0(%rbp)
    9aa5:	48 8d 85 90 f2 ff ff 	lea    -0xd70(%rbp),%rax
    9aac:	48 83 c0 78          	add    $0x78,%rax
    9ab0:	48 89 85 68 f8 ff ff 	mov    %rax,-0x798(%rbp)
    9ab7:	48 8d 85 90 f2 ff ff 	lea    -0xd70(%rbp),%rax
    9abe:	48 05 f8 04 00 00    	add    $0x4f8,%rax
    9ac4:	48 89 85 70 f8 ff ff 	mov    %rax,-0x790(%rbp)
    9acb:	48 8d 85 90 f2 ff ff 	lea    -0xd70(%rbp),%rax
    9ad2:	48 05 e0 01 00 00    	add    $0x1e0,%rax
    9ad8:	48 89 85 78 f8 ff ff 	mov    %rax,-0x788(%rbp)
    9adf:	48 8d 85 90 f2 ff ff 	lea    -0xd70(%rbp),%rax
    9ae6:	48 05 90 04 00 00    	add    $0x490,%rax
    9aec:	48 89 85 80 f8 ff ff 	mov    %rax,-0x780(%rbp)
    9af3:	48 8d 85 90 f2 ff ff 	lea    -0xd70(%rbp),%rax
    9afa:	48 05 70 03 00 00    	add    $0x370,%rax
    9b00:	48 89 85 88 f8 ff ff 	mov    %rax,-0x778(%rbp)
    9b07:	48 8d 85 90 f2 ff ff 	lea    -0xd70(%rbp),%rax
    9b0e:	48 05 10 05 00 00    	add    $0x510,%rax
    9b14:	48 89 85 90 f8 ff ff 	mov    %rax,-0x770(%rbp)
    9b1b:	48 8d 85 90 f2 ff ff 	lea    -0xd70(%rbp),%rax
    9b22:	48 05 98 03 00 00    	add    $0x398,%rax
    9b28:	48 89 85 98 f8 ff ff 	mov    %rax,-0x768(%rbp)
    9b2f:	48 8d 85 90 f2 ff ff 	lea    -0xd70(%rbp),%rax
    9b36:	48 05 f8 04 00 00    	add    $0x4f8,%rax
    9b3c:	48 89 85 a0 f8 ff ff 	mov    %rax,-0x760(%rbp)
    9b43:	48 8d 85 90 f2 ff ff 	lea    -0xd70(%rbp),%rax
    9b4a:	48 05 f8 04 00 00    	add    $0x4f8,%rax
    9b50:	48 89 85 a8 f8 ff ff 	mov    %rax,-0x758(%rbp)
    9b57:	48 8d 85 90 f2 ff ff 	lea    -0xd70(%rbp),%rax
    9b5e:	48 05 f8 04 00 00    	add    $0x4f8,%rax
    9b64:	48 89 85 b0 f8 ff ff 	mov    %rax,-0x750(%rbp)
    9b6b:	48 c7 85 b8 f8 ff ff 	movq   $0x0,-0x748(%rbp)
    9b72:	00 00 00 00 
    9b76:	48 8d 85 90 f2 ff ff 	lea    -0xd70(%rbp),%rax
    9b7d:	48 05 f8 04 00 00    	add    $0x4f8,%rax
    9b83:	48 89 85 c0 f8 ff ff 	mov    %rax,-0x740(%rbp)
    9b8a:	48 8d 85 90 f2 ff ff 	lea    -0xd70(%rbp),%rax
    9b91:	48 05 f8 04 00 00    	add    $0x4f8,%rax
    9b97:	48 89 85 c8 f8 ff ff 	mov    %rax,-0x738(%rbp)
    9b9e:	48 c7 85 d0 f8 ff ff 	movq   $0x0,-0x730(%rbp)
    9ba5:	00 00 00 00 
    9ba9:	48 8d 85 90 f2 ff ff 	lea    -0xd70(%rbp),%rax
    9bb0:	48 05 f8 04 00 00    	add    $0x4f8,%rax
    9bb6:	48 89 85 d8 f8 ff ff 	mov    %rax,-0x728(%rbp)
    9bbd:	48 c7 85 e0 f8 ff ff 	movq   $0x0,-0x720(%rbp)
    9bc4:	00 00 00 00 
    9bc8:	48 8d 85 90 f2 ff ff 	lea    -0xd70(%rbp),%rax
    9bcf:	48 05 70 03 00 00    	add    $0x370,%rax
    9bd5:	48 89 85 e8 f8 ff ff 	mov    %rax,-0x718(%rbp)
    9bdc:	48 8d 85 90 f2 ff ff 	lea    -0xd70(%rbp),%rax
    9be3:	48 05 f8 04 00 00    	add    $0x4f8,%rax
    9be9:	48 89 85 f0 f8 ff ff 	mov    %rax,-0x710(%rbp)
    9bf0:	48 c7 85 f8 f8 ff ff 	movq   $0x0,-0x708(%rbp)
    9bf7:	00 00 00 00 
    9bfb:	48 8d 85 90 f2 ff ff 	lea    -0xd70(%rbp),%rax
    9c02:	48 05 f8 04 00 00    	add    $0x4f8,%rax
    9c08:	48 89 85 00 f9 ff ff 	mov    %rax,-0x700(%rbp)
    9c0f:	48 8d 85 90 f2 ff ff 	lea    -0xd70(%rbp),%rax
    9c16:	48 05 f8 04 00 00    	add    $0x4f8,%rax
    9c1c:	48 89 85 08 f9 ff ff 	mov    %rax,-0x6f8(%rbp)
    9c23:	48 8d 85 90 f2 ff ff 	lea    -0xd70(%rbp),%rax
    9c2a:	48 05 f8 04 00 00    	add    $0x4f8,%rax
    9c30:	48 89 85 10 f9 ff ff 	mov    %rax,-0x6f0(%rbp)
    9c37:	48 8d 85 90 f2 ff ff 	lea    -0xd70(%rbp),%rax
    9c3e:	48 05 e0 01 00 00    	add    $0x1e0,%rax
    9c44:	48 89 85 18 f9 ff ff 	mov    %rax,-0x6e8(%rbp)
    9c4b:	48 8d 85 90 f2 ff ff 	lea    -0xd70(%rbp),%rax
    9c52:	48 05 f8 04 00 00    	add    $0x4f8,%rax
    9c58:	48 89 85 20 f9 ff ff 	mov    %rax,-0x6e0(%rbp)
    9c5f:	48 c7 85 28 f9 ff ff 	movq   $0x0,-0x6d8(%rbp)
    9c66:	00 00 00 00 
    9c6a:	48 8d 85 90 f2 ff ff 	lea    -0xd70(%rbp),%rax
    9c71:	48 05 c0 04 00 00    	add    $0x4c0,%rax
    9c77:	48 89 85 30 f9 ff ff 	mov    %rax,-0x6d0(%rbp)
    9c7e:	48 8d 85 90 f2 ff ff 	lea    -0xd70(%rbp),%rax
    9c85:	48 05 f8 04 00 00    	add    $0x4f8,%rax
    9c8b:	48 89 85 38 f9 ff ff 	mov    %rax,-0x6c8(%rbp)
    9c92:	48 8d 85 90 f2 ff ff 	lea    -0xd70(%rbp),%rax
    9c99:	48 83 c0 18          	add    $0x18,%rax
    9c9d:	48 89 85 40 f9 ff ff 	mov    %rax,-0x6c0(%rbp)
    9ca4:	48 8d 85 90 f2 ff ff 	lea    -0xd70(%rbp),%rax
    9cab:	48 05 b8 03 00 00    	add    $0x3b8,%rax
    9cb1:	48 89 85 48 f9 ff ff 	mov    %rax,-0x6b8(%rbp)
    9cb8:	48 8d 85 90 f2 ff ff 	lea    -0xd70(%rbp),%rax
    9cbf:	48 05 98 03 00 00    	add    $0x398,%rax
    9cc5:	48 89 85 50 f9 ff ff 	mov    %rax,-0x6b0(%rbp)
    9ccc:	48 8d 85 90 f2 ff ff 	lea    -0xd70(%rbp),%rax
    9cd3:	48 05 90 04 00 00    	add    $0x490,%rax
    9cd9:	48 89 85 58 f9 ff ff 	mov    %rax,-0x6a8(%rbp)
    9ce0:	48 8d 85 90 f2 ff ff 	lea    -0xd70(%rbp),%rax
    9ce7:	48 05 48 03 00 00    	add    $0x348,%rax
    9ced:	48 89 85 60 f9 ff ff 	mov    %rax,-0x6a0(%rbp)
    9cf4:	48 c7 85 68 f9 ff ff 	movq   $0x0,-0x698(%rbp)
    9cfb:	00 00 00 00 
    9cff:	48 8d 85 90 f2 ff ff 	lea    -0xd70(%rbp),%rax
    9d06:	48 05 78 05 00 00    	add    $0x578,%rax
    9d0c:	48 89 85 70 f9 ff ff 	mov    %rax,-0x690(%rbp)
    9d13:	48 8d 85 90 f2 ff ff 	lea    -0xd70(%rbp),%rax
    9d1a:	48 05 d0 03 00 00    	add    $0x3d0,%rax
    9d20:	48 89 85 78 f9 ff ff 	mov    %rax,-0x688(%rbp)
    9d27:	48 8d 85 90 f2 ff ff 	lea    -0xd70(%rbp),%rax
    9d2e:	48 05 90 04 00 00    	add    $0x490,%rax
    9d34:	48 89 85 80 f9 ff ff 	mov    %rax,-0x680(%rbp)
    9d3b:	48 8d 85 90 f2 ff ff 	lea    -0xd70(%rbp),%rax
    9d42:	48 05 f8 04 00 00    	add    $0x4f8,%rax
    9d48:	48 89 85 88 f9 ff ff 	mov    %rax,-0x678(%rbp)
    9d4f:	48 8d 85 90 f2 ff ff 	lea    -0xd70(%rbp),%rax
    9d56:	48 83 c0 78          	add    $0x78,%rax
    9d5a:	48 89 85 90 f9 ff ff 	mov    %rax,-0x670(%rbp)
    9d61:	48 8d 85 90 f2 ff ff 	lea    -0xd70(%rbp),%rax
    9d68:	48 05 48 03 00 00    	add    $0x348,%rax
    9d6e:	48 89 85 98 f9 ff ff 	mov    %rax,-0x668(%rbp)
    9d75:	48 c7 85 a0 f9 ff ff 	movq   $0x0,-0x660(%rbp)
    9d7c:	00 00 00 00 
    9d80:	48 8d 85 90 f2 ff ff 	lea    -0xd70(%rbp),%rax
    9d87:	48 05 c0 04 00 00    	add    $0x4c0,%rax
    9d8d:	48 89 85 a8 f9 ff ff 	mov    %rax,-0x658(%rbp)
    9d94:	48 8d 85 90 f2 ff ff 	lea    -0xd70(%rbp),%rax
    9d9b:	48 05 c0 04 00 00    	add    $0x4c0,%rax
    9da1:	48 89 85 b0 f9 ff ff 	mov    %rax,-0x650(%rbp)
    9da8:	48 c7 85 b8 f9 ff ff 	movq   $0x0,-0x648(%rbp)
    9daf:	00 00 00 00 
    9db3:	48 8d 85 90 f2 ff ff 	lea    -0xd70(%rbp),%rax
    9dba:	48 05 f8 04 00 00    	add    $0x4f8,%rax
    9dc0:	48 89 85 c0 f9 ff ff 	mov    %rax,-0x640(%rbp)
    9dc7:	48 8d 85 90 f2 ff ff 	lea    -0xd70(%rbp),%rax
    9dce:	48 05 48 03 00 00    	add    $0x348,%rax
    9dd4:	48 89 85 c8 f9 ff ff 	mov    %rax,-0x638(%rbp)
    9ddb:	48 8d 85 90 f2 ff ff 	lea    -0xd70(%rbp),%rax
    9de2:	48 05 f8 04 00 00    	add    $0x4f8,%rax
    9de8:	48 89 85 d0 f9 ff ff 	mov    %rax,-0x630(%rbp)
    9def:	48 c7 85 d8 f9 ff ff 	movq   $0x0,-0x628(%rbp)
    9df6:	00 00 00 00 
    9dfa:	48 c7 85 e0 f9 ff ff 	movq   $0x0,-0x620(%rbp)
    9e01:	00 00 00 00 
    9e05:	48 8d 85 90 f2 ff ff 	lea    -0xd70(%rbp),%rax
    9e0c:	48 05 f8 04 00 00    	add    $0x4f8,%rax
    9e12:	48 89 85 e8 f9 ff ff 	mov    %rax,-0x618(%rbp)
    9e19:	48 c7 85 f0 f9 ff ff 	movq   $0x0,-0x610(%rbp)
    9e20:	00 00 00 00 
    9e24:	48 c7 85 f8 f9 ff ff 	movq   $0x0,-0x608(%rbp)
    9e2b:	00 00 00 00 
    9e2f:	48 8d 85 90 f2 ff ff 	lea    -0xd70(%rbp),%rax
    9e36:	48 05 e0 01 00 00    	add    $0x1e0,%rax
    9e3c:	48 89 85 00 fa ff ff 	mov    %rax,-0x600(%rbp)
    9e43:	48 8d 85 90 f2 ff ff 	lea    -0xd70(%rbp),%rax
    9e4a:	48 05 50 02 00 00    	add    $0x250,%rax
    9e50:	48 89 85 08 fa ff ff 	mov    %rax,-0x5f8(%rbp)
    9e57:	48 8d 85 90 f2 ff ff 	lea    -0xd70(%rbp),%rax
    9e5e:	48 05 f8 04 00 00    	add    $0x4f8,%rax
    9e64:	48 89 85 10 fa ff ff 	mov    %rax,-0x5f0(%rbp)
    9e6b:	48 8d 85 90 f2 ff ff 	lea    -0xd70(%rbp),%rax
    9e72:	48 05 f8 04 00 00    	add    $0x4f8,%rax
    9e78:	48 89 85 18 fa ff ff 	mov    %rax,-0x5e8(%rbp)
    9e7f:	48 c7 85 20 fa ff ff 	movq   $0x0,-0x5e0(%rbp)
    9e86:	00 00 00 00 
    9e8a:	48 c7 85 28 fa ff ff 	movq   $0x0,-0x5d8(%rbp)
    9e91:	00 00 00 00 
    9e95:	48 8d 85 90 f2 ff ff 	lea    -0xd70(%rbp),%rax
    9e9c:	48 05 f8 04 00 00    	add    $0x4f8,%rax
    9ea2:	48 89 85 30 fa ff ff 	mov    %rax,-0x5d0(%rbp)
    9ea9:	48 8d 85 90 f2 ff ff 	lea    -0xd70(%rbp),%rax
    9eb0:	48 05 f8 04 00 00    	add    $0x4f8,%rax
    9eb6:	48 89 85 38 fa ff ff 	mov    %rax,-0x5c8(%rbp)
    9ebd:	48 8d 85 90 f2 ff ff 	lea    -0xd70(%rbp),%rax
    9ec4:	48 05 f8 04 00 00    	add    $0x4f8,%rax
    9eca:	48 89 85 40 fa ff ff 	mov    %rax,-0x5c0(%rbp)
    9ed1:	48 8d 85 90 f2 ff ff 	lea    -0xd70(%rbp),%rax
    9ed8:	48 05 10 05 00 00    	add    $0x510,%rax
    9ede:	48 89 85 48 fa ff ff 	mov    %rax,-0x5b8(%rbp)
    9ee5:	48 8d 85 90 f2 ff ff 	lea    -0xd70(%rbp),%rax
    9eec:	48 05 b8 03 00 00    	add    $0x3b8,%rax
    9ef2:	48 89 85 50 fa ff ff 	mov    %rax,-0x5b0(%rbp)
    9ef9:	48 8d 85 90 f2 ff ff 	lea    -0xd70(%rbp),%rax
    9f00:	48 05 d0 03 00 00    	add    $0x3d0,%rax
    9f06:	48 89 85 58 fa ff ff 	mov    %rax,-0x5a8(%rbp)
    9f0d:	48 8d 85 90 f2 ff ff 	lea    -0xd70(%rbp),%rax
    9f14:	48 05 f8 04 00 00    	add    $0x4f8,%rax
    9f1a:	48 89 85 60 fa ff ff 	mov    %rax,-0x5a0(%rbp)
    9f21:	48 8d 85 90 f2 ff ff 	lea    -0xd70(%rbp),%rax
    9f28:	48 05 f8 04 00 00    	add    $0x4f8,%rax
    9f2e:	48 89 85 68 fa ff ff 	mov    %rax,-0x598(%rbp)
    9f35:	48 8d 85 90 f2 ff ff 	lea    -0xd70(%rbp),%rax
    9f3c:	48 83 c0 78          	add    $0x78,%rax
    9f40:	48 89 85 70 fa ff ff 	mov    %rax,-0x590(%rbp)
    9f47:	48 8d 85 90 f2 ff ff 	lea    -0xd70(%rbp),%rax
    9f4e:	48 05 f8 04 00 00    	add    $0x4f8,%rax
    9f54:	48 89 85 78 fa ff ff 	mov    %rax,-0x588(%rbp)
    9f5b:	48 8d 85 90 f2 ff ff 	lea    -0xd70(%rbp),%rax
    9f62:	48 05 88 01 00 00    	add    $0x188,%rax
    9f68:	48 89 85 80 fa ff ff 	mov    %rax,-0x580(%rbp)
    9f6f:	48 8d 85 90 f2 ff ff 	lea    -0xd70(%rbp),%rax
    9f76:	48 05 48 03 00 00    	add    $0x348,%rax
    9f7c:	48 89 85 88 fa ff ff 	mov    %rax,-0x578(%rbp)
    9f83:	48 8d 85 90 f2 ff ff 	lea    -0xd70(%rbp),%rax
    9f8a:	48 05 78 05 00 00    	add    $0x578,%rax
    9f90:	48 89 85 90 fa ff ff 	mov    %rax,-0x570(%rbp)
    9f97:	48 8d 85 90 f2 ff ff 	lea    -0xd70(%rbp),%rax
    9f9e:	48 05 88 01 00 00    	add    $0x188,%rax
    9fa4:	48 89 85 98 fa ff ff 	mov    %rax,-0x568(%rbp)
    9fab:	48 8d 85 90 f2 ff ff 	lea    -0xd70(%rbp),%rax
    9fb2:	48 83 c0 78          	add    $0x78,%rax
    9fb6:	48 89 85 a0 fa ff ff 	mov    %rax,-0x560(%rbp)
    9fbd:	48 8d 85 90 f2 ff ff 	lea    -0xd70(%rbp),%rax
    9fc4:	48 05 f8 04 00 00    	add    $0x4f8,%rax
    9fca:	48 89 85 a8 fa ff ff 	mov    %rax,-0x558(%rbp)
    9fd1:	48 8d 85 90 f2 ff ff 	lea    -0xd70(%rbp),%rax
    9fd8:	48 05 78 05 00 00    	add    $0x578,%rax
    9fde:	48 89 85 b0 fa ff ff 	mov    %rax,-0x550(%rbp)
    9fe5:	48 8d 85 90 f2 ff ff 	lea    -0xd70(%rbp),%rax
    9fec:	48 05 10 05 00 00    	add    $0x510,%rax
    9ff2:	48 89 85 b8 fa ff ff 	mov    %rax,-0x548(%rbp)
    9ff9:	48 c7 85 c0 fa ff ff 	movq   $0x0,-0x540(%rbp)
    a000:	00 00 00 00 
    a004:	48 8d 85 90 f2 ff ff 	lea    -0xd70(%rbp),%rax
    a00b:	48 83 c0 78          	add    $0x78,%rax
    a00f:	48 89 85 c8 fa ff ff 	mov    %rax,-0x538(%rbp)
    a016:	48 8d 85 90 f2 ff ff 	lea    -0xd70(%rbp),%rax
    a01d:	48 05 f8 04 00 00    	add    $0x4f8,%rax
    a023:	48 89 85 d0 fa ff ff 	mov    %rax,-0x530(%rbp)
    a02a:	48 8d 85 90 f2 ff ff 	lea    -0xd70(%rbp),%rax
    a031:	48 05 b8 03 00 00    	add    $0x3b8,%rax
    a037:	48 89 85 d8 fa ff ff 	mov    %rax,-0x528(%rbp)
    a03e:	48 8d 85 90 f2 ff ff 	lea    -0xd70(%rbp),%rax
    a045:	48 05 f8 04 00 00    	add    $0x4f8,%rax
    a04b:	48 89 85 e0 fa ff ff 	mov    %rax,-0x520(%rbp)
    a052:	48 8d 85 90 f2 ff ff 	lea    -0xd70(%rbp),%rax
    a059:	48 05 f8 04 00 00    	add    $0x4f8,%rax
    a05f:	48 89 85 e8 fa ff ff 	mov    %rax,-0x518(%rbp)
    a066:	48 8d 85 90 f2 ff ff 	lea    -0xd70(%rbp),%rax
    a06d:	48 05 f8 04 00 00    	add    $0x4f8,%rax
    a073:	48 89 85 f0 fa ff ff 	mov    %rax,-0x510(%rbp)
    a07a:	48 8d 85 90 f2 ff ff 	lea    -0xd70(%rbp),%rax
    a081:	48 05 f8 04 00 00    	add    $0x4f8,%rax
    a087:	48 89 85 f8 fa ff ff 	mov    %rax,-0x508(%rbp)
    a08e:	48 8d 85 90 f2 ff ff 	lea    -0xd70(%rbp),%rax
    a095:	48 05 f8 04 00 00    	add    $0x4f8,%rax
    a09b:	48 89 85 00 fb ff ff 	mov    %rax,-0x500(%rbp)
    a0a2:	48 8d 85 90 f2 ff ff 	lea    -0xd70(%rbp),%rax
    a0a9:	48 05 f8 04 00 00    	add    $0x4f8,%rax
    a0af:	48 89 85 08 fb ff ff 	mov    %rax,-0x4f8(%rbp)
    a0b6:	48 8d 85 90 f2 ff ff 	lea    -0xd70(%rbp),%rax
    a0bd:	48 05 e8 03 00 00    	add    $0x3e8,%rax
    a0c3:	48 89 85 10 fb ff ff 	mov    %rax,-0x4f0(%rbp)
    a0ca:	48 8d 85 90 f2 ff ff 	lea    -0xd70(%rbp),%rax
    a0d1:	48 05 b8 03 00 00    	add    $0x3b8,%rax
    a0d7:	48 89 85 18 fb ff ff 	mov    %rax,-0x4e8(%rbp)
    a0de:	48 8d 85 90 f2 ff ff 	lea    -0xd70(%rbp),%rax
    a0e5:	48 05 f8 04 00 00    	add    $0x4f8,%rax
    a0eb:	48 89 85 20 fb ff ff 	mov    %rax,-0x4e0(%rbp)
    a0f2:	48 c7 85 28 fb ff ff 	movq   $0x0,-0x4d8(%rbp)
    a0f9:	00 00 00 00 
    a0fd:	48 8d 85 90 f2 ff ff 	lea    -0xd70(%rbp),%rax
    a104:	48 05 88 01 00 00    	add    $0x188,%rax
    a10a:	48 89 85 30 fb ff ff 	mov    %rax,-0x4d0(%rbp)
    a111:	48 8d 85 90 f2 ff ff 	lea    -0xd70(%rbp),%rax
    a118:	48 05 f8 04 00 00    	add    $0x4f8,%rax
    a11e:	48 89 85 38 fb ff ff 	mov    %rax,-0x4c8(%rbp)
    a125:	48 c7 85 40 fb ff ff 	movq   $0x0,-0x4c0(%rbp)
    a12c:	00 00 00 00 
    a130:	48 8d 85 90 f2 ff ff 	lea    -0xd70(%rbp),%rax
    a137:	48 05 f8 04 00 00    	add    $0x4f8,%rax
    a13d:	48 89 85 48 fb ff ff 	mov    %rax,-0x4b8(%rbp)
    a144:	48 c7 85 50 fb ff ff 	movq   $0x0,-0x4b0(%rbp)
    a14b:	00 00 00 00 
    a14f:	48 8d 85 90 f2 ff ff 	lea    -0xd70(%rbp),%rax
    a156:	48 05 70 02 00 00    	add    $0x270,%rax
    a15c:	48 89 85 58 fb ff ff 	mov    %rax,-0x4a8(%rbp)
    a163:	48 c7 85 60 fb ff ff 	movq   $0x0,-0x4a0(%rbp)
    a16a:	00 00 00 00 
    a16e:	48 8d 85 90 f2 ff ff 	lea    -0xd70(%rbp),%rax
    a175:	48 05 e0 01 00 00    	add    $0x1e0,%rax
    a17b:	48 89 85 68 fb ff ff 	mov    %rax,-0x498(%rbp)
    a182:	48 8d 85 90 f2 ff ff 	lea    -0xd70(%rbp),%rax
    a189:	48 05 98 03 00 00    	add    $0x398,%rax
    a18f:	48 89 85 70 fb ff ff 	mov    %rax,-0x490(%rbp)
    a196:	48 8d 85 90 f2 ff ff 	lea    -0xd70(%rbp),%rax
    a19d:	48 05 f8 04 00 00    	add    $0x4f8,%rax
    a1a3:	48 89 85 78 fb ff ff 	mov    %rax,-0x488(%rbp)
    a1aa:	48 8d 85 90 f2 ff ff 	lea    -0xd70(%rbp),%rax
    a1b1:	48 05 88 01 00 00    	add    $0x188,%rax
    a1b7:	48 89 85 80 fb ff ff 	mov    %rax,-0x480(%rbp)
    a1be:	48 8d 85 90 f2 ff ff 	lea    -0xd70(%rbp),%rax
    a1c5:	48 05 f8 04 00 00    	add    $0x4f8,%rax
    a1cb:	48 89 85 88 fb ff ff 	mov    %rax,-0x478(%rbp)
    a1d2:	48 c7 85 90 fb ff ff 	movq   $0x0,-0x470(%rbp)
    a1d9:	00 00 00 00 
    a1dd:	48 c7 85 98 fb ff ff 	movq   $0x0,-0x468(%rbp)
    a1e4:	00 00 00 00 
    a1e8:	48 8d 85 90 f2 ff ff 	lea    -0xd70(%rbp),%rax
    a1ef:	48 05 90 04 00 00    	add    $0x490,%rax
    a1f5:	48 89 85 a0 fb ff ff 	mov    %rax,-0x460(%rbp)
    a1fc:	48 8d 85 90 f2 ff ff 	lea    -0xd70(%rbp),%rax
    a203:	48 05 e8 03 00 00    	add    $0x3e8,%rax
    a209:	48 89 85 a8 fb ff ff 	mov    %rax,-0x458(%rbp)
    a210:	48 8d 85 90 f2 ff ff 	lea    -0xd70(%rbp),%rax
    a217:	48 05 88 01 00 00    	add    $0x188,%rax
    a21d:	48 89 85 b0 fb ff ff 	mov    %rax,-0x450(%rbp)
    a224:	48 c7 85 b8 fb ff ff 	movq   $0x0,-0x448(%rbp)
    a22b:	00 00 00 00 
    a22f:	48 8d 85 90 f2 ff ff 	lea    -0xd70(%rbp),%rax
    a236:	48 05 98 03 00 00    	add    $0x398,%rax
    a23c:	48 89 85 c0 fb ff ff 	mov    %rax,-0x440(%rbp)
    a243:	48 c7 85 c8 fb ff ff 	movq   $0x0,-0x438(%rbp)
    a24a:	00 00 00 00 
    a24e:	48 c7 85 d0 fb ff ff 	movq   $0x0,-0x430(%rbp)
    a255:	00 00 00 00 
    a259:	48 8d 85 90 f2 ff ff 	lea    -0xd70(%rbp),%rax
    a260:	48 05 f8 04 00 00    	add    $0x4f8,%rax
    a266:	48 89 85 d8 fb ff ff 	mov    %rax,-0x428(%rbp)
    a26d:	48 8d 85 90 f2 ff ff 	lea    -0xd70(%rbp),%rax
    a274:	48 83 c0 18          	add    $0x18,%rax
    a278:	48 89 85 e0 fb ff ff 	mov    %rax,-0x420(%rbp)
    a27f:	48 8d 85 90 f2 ff ff 	lea    -0xd70(%rbp),%rax
    a286:	48 05 f8 04 00 00    	add    $0x4f8,%rax
    a28c:	48 89 85 e8 fb ff ff 	mov    %rax,-0x418(%rbp)
    a293:	48 c7 85 f0 fb ff ff 	movq   $0x0,-0x410(%rbp)
    a29a:	00 00 00 00 
    a29e:	48 8d 85 90 f2 ff ff 	lea    -0xd70(%rbp),%rax
    a2a5:	48 05 50 02 00 00    	add    $0x250,%rax
    a2ab:	48 89 85 f8 fb ff ff 	mov    %rax,-0x408(%rbp)
    a2b2:	48 c7 85 00 fc ff ff 	movq   $0x0,-0x400(%rbp)
    a2b9:	00 00 00 00 
    a2bd:	48 8d 85 90 f2 ff ff 	lea    -0xd70(%rbp),%rax
    a2c4:	48 83 c0 78          	add    $0x78,%rax
    a2c8:	48 89 85 08 fc ff ff 	mov    %rax,-0x3f8(%rbp)
    a2cf:	48 8d 85 90 f2 ff ff 	lea    -0xd70(%rbp),%rax
    a2d6:	48 05 f8 04 00 00    	add    $0x4f8,%rax
    a2dc:	48 89 85 10 fc ff ff 	mov    %rax,-0x3f0(%rbp)
    a2e3:	48 8d 85 90 f2 ff ff 	lea    -0xd70(%rbp),%rax
    a2ea:	48 05 f8 04 00 00    	add    $0x4f8,%rax
    a2f0:	48 89 85 18 fc ff ff 	mov    %rax,-0x3e8(%rbp)
    a2f7:	48 8d 85 90 f2 ff ff 	lea    -0xd70(%rbp),%rax
    a2fe:	48 05 f8 04 00 00    	add    $0x4f8,%rax
    a304:	48 89 85 20 fc ff ff 	mov    %rax,-0x3e0(%rbp)
    a30b:	48 8d 85 90 f2 ff ff 	lea    -0xd70(%rbp),%rax
    a312:	48 05 f8 04 00 00    	add    $0x4f8,%rax
    a318:	48 89 85 28 fc ff ff 	mov    %rax,-0x3d8(%rbp)
    a31f:	48 8d 85 90 f2 ff ff 	lea    -0xd70(%rbp),%rax
    a326:	48 05 98 03 00 00    	add    $0x398,%rax
    a32c:	48 89 85 30 fc ff ff 	mov    %rax,-0x3d0(%rbp)
    a333:	48 8d 85 90 f2 ff ff 	lea    -0xd70(%rbp),%rax
    a33a:	48 05 98 03 00 00    	add    $0x398,%rax
    a340:	48 89 85 38 fc ff ff 	mov    %rax,-0x3c8(%rbp)
    a347:	48 8d 85 90 f2 ff ff 	lea    -0xd70(%rbp),%rax
    a34e:	48 05 f8 04 00 00    	add    $0x4f8,%rax
    a354:	48 89 85 40 fc ff ff 	mov    %rax,-0x3c0(%rbp)
    a35b:	48 8d 85 90 f2 ff ff 	lea    -0xd70(%rbp),%rax
    a362:	48 05 98 03 00 00    	add    $0x398,%rax
    a368:	48 89 85 48 fc ff ff 	mov    %rax,-0x3b8(%rbp)
    a36f:	48 8d 85 90 f2 ff ff 	lea    -0xd70(%rbp),%rax
    a376:	48 05 f8 04 00 00    	add    $0x4f8,%rax
    a37c:	48 89 85 50 fc ff ff 	mov    %rax,-0x3b0(%rbp)
    a383:	48 8d 85 90 f2 ff ff 	lea    -0xd70(%rbp),%rax
    a38a:	48 05 78 05 00 00    	add    $0x578,%rax
    a390:	48 89 85 58 fc ff ff 	mov    %rax,-0x3a8(%rbp)
    a397:	48 8d 85 90 f2 ff ff 	lea    -0xd70(%rbp),%rax
    a39e:	48 05 f8 04 00 00    	add    $0x4f8,%rax
    a3a4:	48 89 85 60 fc ff ff 	mov    %rax,-0x3a0(%rbp)
    a3ab:	48 c7 85 68 fc ff ff 	movq   $0x0,-0x398(%rbp)
    a3b2:	00 00 00 00 
    a3b6:	48 8d 85 90 f2 ff ff 	lea    -0xd70(%rbp),%rax
    a3bd:	48 05 48 03 00 00    	add    $0x348,%rax
    a3c3:	48 89 85 70 fc ff ff 	mov    %rax,-0x390(%rbp)
    a3ca:	48 8d 85 90 f2 ff ff 	lea    -0xd70(%rbp),%rax
    a3d1:	48 05 e0 01 00 00    	add    $0x1e0,%rax
    a3d7:	48 89 85 78 fc ff ff 	mov    %rax,-0x388(%rbp)
    a3de:	48 c7 85 80 fc ff ff 	movq   $0x0,-0x380(%rbp)
    a3e5:	00 00 00 00 
    a3e9:	48 8d 85 90 f2 ff ff 	lea    -0xd70(%rbp),%rax
    a3f0:	48 05 f8 04 00 00    	add    $0x4f8,%rax
    a3f6:	48 89 85 88 fc ff ff 	mov    %rax,-0x378(%rbp)
    a3fd:	48 8d 85 90 f2 ff ff 	lea    -0xd70(%rbp),%rax
    a404:	48 05 c0 04 00 00    	add    $0x4c0,%rax
    a40a:	48 89 85 90 fc ff ff 	mov    %rax,-0x370(%rbp)
    a411:	48 8d 85 90 f2 ff ff 	lea    -0xd70(%rbp),%rax
    a418:	48 05 f8 04 00 00    	add    $0x4f8,%rax
    a41e:	48 89 85 98 fc ff ff 	mov    %rax,-0x368(%rbp)
    a425:	48 c7 85 a0 fc ff ff 	movq   $0x0,-0x360(%rbp)
    a42c:	00 00 00 00 
    a430:	48 8d 85 90 f2 ff ff 	lea    -0xd70(%rbp),%rax
    a437:	48 05 f8 04 00 00    	add    $0x4f8,%rax
    a43d:	48 89 85 a8 fc ff ff 	mov    %rax,-0x358(%rbp)
    a444:	48 8d 85 90 f2 ff ff 	lea    -0xd70(%rbp),%rax
    a44b:	48 05 f8 04 00 00    	add    $0x4f8,%rax
    a451:	48 89 85 b0 fc ff ff 	mov    %rax,-0x350(%rbp)
    a458:	48 8d 85 90 f2 ff ff 	lea    -0xd70(%rbp),%rax
    a45f:	48 05 d0 03 00 00    	add    $0x3d0,%rax
    a465:	48 89 85 b8 fc ff ff 	mov    %rax,-0x348(%rbp)
    a46c:	48 8d 85 90 f2 ff ff 	lea    -0xd70(%rbp),%rax
    a473:	48 05 f8 04 00 00    	add    $0x4f8,%rax
    a479:	48 89 85 c0 fc ff ff 	mov    %rax,-0x340(%rbp)
    a480:	48 8d 85 90 f2 ff ff 	lea    -0xd70(%rbp),%rax
    a487:	48 05 e0 01 00 00    	add    $0x1e0,%rax
    a48d:	48 89 85 c8 fc ff ff 	mov    %rax,-0x338(%rbp)
    a494:	48 8d 85 90 f2 ff ff 	lea    -0xd70(%rbp),%rax
    a49b:	48 05 f8 04 00 00    	add    $0x4f8,%rax
    a4a1:	48 89 85 d0 fc ff ff 	mov    %rax,-0x330(%rbp)
    a4a8:	48 8d 85 90 f2 ff ff 	lea    -0xd70(%rbp),%rax
    a4af:	48 05 f8 04 00 00    	add    $0x4f8,%rax
    a4b5:	48 89 85 d8 fc ff ff 	mov    %rax,-0x328(%rbp)
    a4bc:	48 8d 85 90 f2 ff ff 	lea    -0xd70(%rbp),%rax
    a4c3:	48 05 f8 04 00 00    	add    $0x4f8,%rax
    a4c9:	48 89 85 e0 fc ff ff 	mov    %rax,-0x320(%rbp)
    a4d0:	48 8d 85 90 f2 ff ff 	lea    -0xd70(%rbp),%rax
    a4d7:	48 83 c0 78          	add    $0x78,%rax
    a4db:	48 89 85 e8 fc ff ff 	mov    %rax,-0x318(%rbp)
    a4e2:	48 8d 85 90 f2 ff ff 	lea    -0xd70(%rbp),%rax
    a4e9:	48 05 f8 04 00 00    	add    $0x4f8,%rax
    a4ef:	48 89 85 f0 fc ff ff 	mov    %rax,-0x310(%rbp)
    a4f6:	48 8d 85 90 f2 ff ff 	lea    -0xd70(%rbp),%rax
    a4fd:	48 05 f8 04 00 00    	add    $0x4f8,%rax
    a503:	48 89 85 f8 fc ff ff 	mov    %rax,-0x308(%rbp)
    a50a:	48 8d 85 90 f2 ff ff 	lea    -0xd70(%rbp),%rax
    a511:	48 05 f8 04 00 00    	add    $0x4f8,%rax
    a517:	48 89 85 00 fd ff ff 	mov    %rax,-0x300(%rbp)
    a51e:	48 c7 85 08 fd ff ff 	movq   $0x0,-0x2f8(%rbp)
    a525:	00 00 00 00 
    a529:	48 8d 85 90 f2 ff ff 	lea    -0xd70(%rbp),%rax
    a530:	48 05 f8 04 00 00    	add    $0x4f8,%rax
    a536:	48 89 85 10 fd ff ff 	mov    %rax,-0x2f0(%rbp)
    a53d:	48 8d 85 90 f2 ff ff 	lea    -0xd70(%rbp),%rax
    a544:	48 05 f8 04 00 00    	add    $0x4f8,%rax
    a54a:	48 89 85 18 fd ff ff 	mov    %rax,-0x2e8(%rbp)
    a551:	48 c7 85 20 fd ff ff 	movq   $0x0,-0x2e0(%rbp)
    a558:	00 00 00 00 
    a55c:	48 8d 85 90 f2 ff ff 	lea    -0xd70(%rbp),%rax
    a563:	48 05 48 03 00 00    	add    $0x348,%rax
    a569:	48 89 85 28 fd ff ff 	mov    %rax,-0x2d8(%rbp)
    a570:	48 8d 85 90 f2 ff ff 	lea    -0xd70(%rbp),%rax
    a577:	48 05 f8 04 00 00    	add    $0x4f8,%rax
    a57d:	48 89 85 30 fd ff ff 	mov    %rax,-0x2d0(%rbp)
    a584:	48 8d 85 90 f2 ff ff 	lea    -0xd70(%rbp),%rax
    a58b:	48 05 f8 04 00 00    	add    $0x4f8,%rax
    a591:	48 89 85 38 fd ff ff 	mov    %rax,-0x2c8(%rbp)
    a598:	48 c7 85 40 fd ff ff 	movq   $0x0,-0x2c0(%rbp)
    a59f:	00 00 00 00 
    a5a3:	48 8d 85 90 f2 ff ff 	lea    -0xd70(%rbp),%rax
    a5aa:	48 05 f8 04 00 00    	add    $0x4f8,%rax
    a5b0:	48 89 85 48 fd ff ff 	mov    %rax,-0x2b8(%rbp)
    a5b7:	48 8d 85 90 f2 ff ff 	lea    -0xd70(%rbp),%rax
    a5be:	48 05 b8 03 00 00    	add    $0x3b8,%rax
    a5c4:	48 89 85 50 fd ff ff 	mov    %rax,-0x2b0(%rbp)
    a5cb:	48 8d 85 90 f2 ff ff 	lea    -0xd70(%rbp),%rax
    a5d2:	48 05 f8 04 00 00    	add    $0x4f8,%rax
    a5d8:	48 89 85 58 fd ff ff 	mov    %rax,-0x2a8(%rbp)
    a5df:	48 8d 85 90 f2 ff ff 	lea    -0xd70(%rbp),%rax
    a5e6:	48 05 f8 04 00 00    	add    $0x4f8,%rax
    a5ec:	48 89 85 60 fd ff ff 	mov    %rax,-0x2a0(%rbp)
    a5f3:	48 8d 85 90 f2 ff ff 	lea    -0xd70(%rbp),%rax
    a5fa:	48 05 f8 04 00 00    	add    $0x4f8,%rax
    a600:	48 89 85 68 fd ff ff 	mov    %rax,-0x298(%rbp)
    a607:	48 8d 85 90 f2 ff ff 	lea    -0xd70(%rbp),%rax
    a60e:	48 05 10 05 00 00    	add    $0x510,%rax
    a614:	48 89 85 70 fd ff ff 	mov    %rax,-0x290(%rbp)
    a61b:	48 c7 85 78 fd ff ff 	movq   $0x0,-0x288(%rbp)
    a622:	00 00 00 00 
    a626:	48 c7 85 80 fd ff ff 	movq   $0x0,-0x280(%rbp)
    a62d:	00 00 00 00 
    a631:	48 8d 85 90 f2 ff ff 	lea    -0xd70(%rbp),%rax
    a638:	48 05 88 01 00 00    	add    $0x188,%rax
    a63e:	48 89 85 88 fd ff ff 	mov    %rax,-0x278(%rbp)
    a645:	48 8d 85 90 f2 ff ff 	lea    -0xd70(%rbp),%rax
    a64c:	48 05 88 01 00 00    	add    $0x188,%rax
    a652:	48 89 85 90 fd ff ff 	mov    %rax,-0x270(%rbp)
    a659:	48 c7 85 98 fd ff ff 	movq   $0x0,-0x268(%rbp)
    a660:	00 00 00 00 
    a664:	48 8d 85 90 f2 ff ff 	lea    -0xd70(%rbp),%rax
    a66b:	48 05 f8 04 00 00    	add    $0x4f8,%rax
    a671:	48 89 85 a0 fd ff ff 	mov    %rax,-0x260(%rbp)
    a678:	48 8d 85 90 f2 ff ff 	lea    -0xd70(%rbp),%rax
    a67f:	48 05 f8 04 00 00    	add    $0x4f8,%rax
    a685:	48 89 85 a8 fd ff ff 	mov    %rax,-0x258(%rbp)
    a68c:	48 8d 85 90 f2 ff ff 	lea    -0xd70(%rbp),%rax
    a693:	48 05 f8 04 00 00    	add    $0x4f8,%rax
    a699:	48 89 85 b0 fd ff ff 	mov    %rax,-0x250(%rbp)
    a6a0:	48 8d 85 90 f2 ff ff 	lea    -0xd70(%rbp),%rax
    a6a7:	48 05 e8 03 00 00    	add    $0x3e8,%rax
    a6ad:	48 89 85 b8 fd ff ff 	mov    %rax,-0x248(%rbp)
    a6b4:	48 8d 85 90 f2 ff ff 	lea    -0xd70(%rbp),%rax
    a6bb:	48 05 f8 04 00 00    	add    $0x4f8,%rax
    a6c1:	48 89 85 c0 fd ff ff 	mov    %rax,-0x240(%rbp)
    a6c8:	48 8d 85 90 f2 ff ff 	lea    -0xd70(%rbp),%rax
    a6cf:	48 83 c0 18          	add    $0x18,%rax
    a6d3:	48 89 85 c8 fd ff ff 	mov    %rax,-0x238(%rbp)
    a6da:	48 8d 85 90 f2 ff ff 	lea    -0xd70(%rbp),%rax
    a6e1:	48 05 d0 03 00 00    	add    $0x3d0,%rax
    a6e7:	48 89 85 d0 fd ff ff 	mov    %rax,-0x230(%rbp)
    a6ee:	48 8d 85 90 f2 ff ff 	lea    -0xd70(%rbp),%rax
    a6f5:	48 05 f8 04 00 00    	add    $0x4f8,%rax
    a6fb:	48 89 85 d8 fd ff ff 	mov    %rax,-0x228(%rbp)
    a702:	48 8d 85 90 f2 ff ff 	lea    -0xd70(%rbp),%rax
    a709:	48 05 c0 04 00 00    	add    $0x4c0,%rax
    a70f:	48 89 85 e0 fd ff ff 	mov    %rax,-0x220(%rbp)
    a716:	48 8d 85 90 f2 ff ff 	lea    -0xd70(%rbp),%rax
    a71d:	48 05 e0 01 00 00    	add    $0x1e0,%rax
    a723:	48 89 85 e8 fd ff ff 	mov    %rax,-0x218(%rbp)
    a72a:	48 8d 85 90 f2 ff ff 	lea    -0xd70(%rbp),%rax
    a731:	48 05 f8 04 00 00    	add    $0x4f8,%rax
    a737:	48 89 85 f0 fd ff ff 	mov    %rax,-0x210(%rbp)
    a73e:	48 8d 85 90 f2 ff ff 	lea    -0xd70(%rbp),%rax
    a745:	48 05 c0 04 00 00    	add    $0x4c0,%rax
    a74b:	48 89 85 f8 fd ff ff 	mov    %rax,-0x208(%rbp)
    a752:	48 8d 85 90 f2 ff ff 	lea    -0xd70(%rbp),%rax
    a759:	48 83 c0 18          	add    $0x18,%rax
    a75d:	48 89 85 00 fe ff ff 	mov    %rax,-0x200(%rbp)
    a764:	48 8d 85 90 f2 ff ff 	lea    -0xd70(%rbp),%rax
    a76b:	48 05 98 03 00 00    	add    $0x398,%rax
    a771:	48 89 85 08 fe ff ff 	mov    %rax,-0x1f8(%rbp)
    a778:	48 8d 85 90 f2 ff ff 	lea    -0xd70(%rbp),%rax
    a77f:	48 05 f8 04 00 00    	add    $0x4f8,%rax
    a785:	48 89 85 10 fe ff ff 	mov    %rax,-0x1f0(%rbp)
    a78c:	48 8d 85 90 f2 ff ff 	lea    -0xd70(%rbp),%rax
    a793:	48 05 d0 03 00 00    	add    $0x3d0,%rax
    a799:	48 89 85 18 fe ff ff 	mov    %rax,-0x1e8(%rbp)
    a7a0:	48 c7 85 20 fe ff ff 	movq   $0x0,-0x1e0(%rbp)
    a7a7:	00 00 00 00 
    a7ab:	48 c7 85 28 fe ff ff 	movq   $0x0,-0x1d8(%rbp)
    a7b2:	00 00 00 00 
    a7b6:	48 8d 85 90 f2 ff ff 	lea    -0xd70(%rbp),%rax
    a7bd:	48 05 f8 04 00 00    	add    $0x4f8,%rax
    a7c3:	48 89 85 30 fe ff ff 	mov    %rax,-0x1d0(%rbp)
    a7ca:	48 c7 85 38 fe ff ff 	movq   $0x0,-0x1c8(%rbp)
    a7d1:	00 00 00 00 
    a7d5:	48 8d 85 90 f2 ff ff 	lea    -0xd70(%rbp),%rax
    a7dc:	48 05 f8 04 00 00    	add    $0x4f8,%rax
    a7e2:	48 89 85 40 fe ff ff 	mov    %rax,-0x1c0(%rbp)
    a7e9:	48 8d 85 90 f2 ff ff 	lea    -0xd70(%rbp),%rax
    a7f0:	48 05 f8 04 00 00    	add    $0x4f8,%rax
    a7f6:	48 89 85 48 fe ff ff 	mov    %rax,-0x1b8(%rbp)
    a7fd:	48 8d 85 90 f2 ff ff 	lea    -0xd70(%rbp),%rax
    a804:	48 05 f8 04 00 00    	add    $0x4f8,%rax
    a80a:	48 89 85 50 fe ff ff 	mov    %rax,-0x1b0(%rbp)
    a811:	48 8d 85 90 f2 ff ff 	lea    -0xd70(%rbp),%rax
    a818:	48 05 f8 04 00 00    	add    $0x4f8,%rax
    a81e:	48 89 85 58 fe ff ff 	mov    %rax,-0x1a8(%rbp)
    a825:	48 8d 85 90 f2 ff ff 	lea    -0xd70(%rbp),%rax
    a82c:	48 05 10 05 00 00    	add    $0x510,%rax
    a832:	48 89 85 60 fe ff ff 	mov    %rax,-0x1a0(%rbp)
    a839:	48 8d 85 90 f2 ff ff 	lea    -0xd70(%rbp),%rax
    a840:	48 83 e8 80          	sub    $0xffffffffffffff80,%rax
    a844:	48 89 85 68 fe ff ff 	mov    %rax,-0x198(%rbp)
    a84b:	48 8d 85 90 f2 ff ff 	lea    -0xd70(%rbp),%rax
    a852:	48 05 f8 04 00 00    	add    $0x4f8,%rax
    a858:	48 89 85 70 fe ff ff 	mov    %rax,-0x190(%rbp)
    a85f:	48 8d 85 90 f2 ff ff 	lea    -0xd70(%rbp),%rax
    a866:	48 05 70 02 00 00    	add    $0x270,%rax
    a86c:	48 89 85 78 fe ff ff 	mov    %rax,-0x188(%rbp)
    a873:	48 8d 85 90 f2 ff ff 	lea    -0xd70(%rbp),%rax
    a87a:	48 05 90 04 00 00    	add    $0x490,%rax
    a880:	48 89 85 80 fe ff ff 	mov    %rax,-0x180(%rbp)
    a887:	48 8d 85 90 f2 ff ff 	lea    -0xd70(%rbp),%rax
    a88e:	48 05 f8 04 00 00    	add    $0x4f8,%rax
    a894:	48 89 85 88 fe ff ff 	mov    %rax,-0x178(%rbp)
    a89b:	48 8d 85 90 f2 ff ff 	lea    -0xd70(%rbp),%rax
    a8a2:	48 05 c0 04 00 00    	add    $0x4c0,%rax
    a8a8:	48 89 85 90 fe ff ff 	mov    %rax,-0x170(%rbp)
    a8af:	48 c7 85 98 fe ff ff 	movq   $0x0,-0x168(%rbp)
    a8b6:	00 00 00 00 
    a8ba:	48 8d 85 90 f2 ff ff 	lea    -0xd70(%rbp),%rax
    a8c1:	48 05 70 02 00 00    	add    $0x270,%rax
    a8c7:	48 89 85 a0 fe ff ff 	mov    %rax,-0x160(%rbp)
    a8ce:	48 c7 85 a8 fe ff ff 	movq   $0x0,-0x158(%rbp)
    a8d5:	00 00 00 00 
    a8d9:	48 c7 85 b0 fe ff ff 	movq   $0x0,-0x150(%rbp)
    a8e0:	00 00 00 00 
    a8e4:	48 c7 85 b8 fe ff ff 	movq   $0x0,-0x148(%rbp)
    a8eb:	00 00 00 00 
    a8ef:	48 c7 85 c0 fe ff ff 	movq   $0x0,-0x140(%rbp)
    a8f6:	00 00 00 00 
    a8fa:	48 8d 85 90 f2 ff ff 	lea    -0xd70(%rbp),%rax
    a901:	48 05 f8 04 00 00    	add    $0x4f8,%rax
    a907:	48 89 85 c8 fe ff ff 	mov    %rax,-0x138(%rbp)
    a90e:	48 8d 85 90 f2 ff ff 	lea    -0xd70(%rbp),%rax
    a915:	48 83 e8 80          	sub    $0xffffffffffffff80,%rax
    a919:	48 89 85 d0 fe ff ff 	mov    %rax,-0x130(%rbp)
    a920:	48 8d 85 90 f2 ff ff 	lea    -0xd70(%rbp),%rax
    a927:	48 05 f8 04 00 00    	add    $0x4f8,%rax
    a92d:	48 89 85 d8 fe ff ff 	mov    %rax,-0x128(%rbp)
    a934:	48 c7 85 e0 fe ff ff 	movq   $0x0,-0x120(%rbp)
    a93b:	00 00 00 00 
    a93f:	48 8d 85 90 f2 ff ff 	lea    -0xd70(%rbp),%rax
    a946:	48 05 70 03 00 00    	add    $0x370,%rax
    a94c:	48 89 85 e8 fe ff ff 	mov    %rax,-0x118(%rbp)
    a953:	48 c7 85 f0 fe ff ff 	movq   $0x0,-0x110(%rbp)
    a95a:	00 00 00 00 
    a95e:	48 8d 85 90 f2 ff ff 	lea    -0xd70(%rbp),%rax
    a965:	48 05 50 02 00 00    	add    $0x250,%rax
    a96b:	48 89 85 f8 fe ff ff 	mov    %rax,-0x108(%rbp)
    a972:	48 8d 85 90 f2 ff ff 	lea    -0xd70(%rbp),%rax
    a979:	48 05 f8 04 00 00    	add    $0x4f8,%rax
    a97f:	48 89 85 00 ff ff ff 	mov    %rax,-0x100(%rbp)
    a986:	48 8d 85 90 f2 ff ff 	lea    -0xd70(%rbp),%rax
    a98d:	48 05 e8 03 00 00    	add    $0x3e8,%rax
    a993:	48 89 85 08 ff ff ff 	mov    %rax,-0xf8(%rbp)
    a99a:	48 8d 85 90 f2 ff ff 	lea    -0xd70(%rbp),%rax
    a9a1:	48 05 48 03 00 00    	add    $0x348,%rax
    a9a7:	48 89 85 10 ff ff ff 	mov    %rax,-0xf0(%rbp)
    a9ae:	48 8d 85 90 f2 ff ff 	lea    -0xd70(%rbp),%rax
    a9b5:	48 83 c0 18          	add    $0x18,%rax
    a9b9:	48 89 85 18 ff ff ff 	mov    %rax,-0xe8(%rbp)
    a9c0:	48 8d 85 90 f2 ff ff 	lea    -0xd70(%rbp),%rax
    a9c7:	48 05 10 05 00 00    	add    $0x510,%rax
    a9cd:	48 89 85 20 ff ff ff 	mov    %rax,-0xe0(%rbp)
    a9d4:	48 8d 85 90 f2 ff ff 	lea    -0xd70(%rbp),%rax
    a9db:	48 05 f8 04 00 00    	add    $0x4f8,%rax
    a9e1:	48 89 85 28 ff ff ff 	mov    %rax,-0xd8(%rbp)
    a9e8:	48 8d 85 90 f2 ff ff 	lea    -0xd70(%rbp),%rax
    a9ef:	48 05 f8 04 00 00    	add    $0x4f8,%rax
    a9f5:	48 89 85 30 ff ff ff 	mov    %rax,-0xd0(%rbp)
    a9fc:	48 8d 85 90 f2 ff ff 	lea    -0xd70(%rbp),%rax
    aa03:	48 05 88 01 00 00    	add    $0x188,%rax
    aa09:	48 89 85 38 ff ff ff 	mov    %rax,-0xc8(%rbp)
    aa10:	48 8d 85 90 f2 ff ff 	lea    -0xd70(%rbp),%rax
    aa17:	48 05 f8 04 00 00    	add    $0x4f8,%rax
    aa1d:	48 89 85 40 ff ff ff 	mov    %rax,-0xc0(%rbp)
    aa24:	48 8d 85 90 f2 ff ff 	lea    -0xd70(%rbp),%rax
    aa2b:	48 05 f8 04 00 00    	add    $0x4f8,%rax
    aa31:	48 89 85 48 ff ff ff 	mov    %rax,-0xb8(%rbp)
    aa38:	48 c7 85 50 ff ff ff 	movq   $0x0,-0xb0(%rbp)
    aa3f:	00 00 00 00 
    aa43:	48 8d 85 90 f2 ff ff 	lea    -0xd70(%rbp),%rax
    aa4a:	48 05 e8 03 00 00    	add    $0x3e8,%rax
    aa50:	48 89 85 58 ff ff ff 	mov    %rax,-0xa8(%rbp)
    aa57:	48 8d 85 90 f2 ff ff 	lea    -0xd70(%rbp),%rax
    aa5e:	48 05 90 04 00 00    	add    $0x490,%rax
    aa64:	48 89 85 60 ff ff ff 	mov    %rax,-0xa0(%rbp)
    aa6b:	48 8d 85 90 f2 ff ff 	lea    -0xd70(%rbp),%rax
    aa72:	48 05 f8 04 00 00    	add    $0x4f8,%rax
    aa78:	48 89 85 68 ff ff ff 	mov    %rax,-0x98(%rbp)
    aa7f:	48 8d 85 90 f2 ff ff 	lea    -0xd70(%rbp),%rax
    aa86:	48 05 f8 04 00 00    	add    $0x4f8,%rax
    aa8c:	48 89 85 70 ff ff ff 	mov    %rax,-0x90(%rbp)
    aa93:	48 8d 85 90 f2 ff ff 	lea    -0xd70(%rbp),%rax
    aa9a:	48 05 78 05 00 00    	add    $0x578,%rax
    aaa0:	48 89 85 78 ff ff ff 	mov    %rax,-0x88(%rbp)
    aaa7:	48 c7 45 80 00 00 00 	movq   $0x0,-0x80(%rbp)
    aaae:	00 
    aaaf:	48 8d 85 90 f2 ff ff 	lea    -0xd70(%rbp),%rax
    aab6:	48 05 e8 03 00 00    	add    $0x3e8,%rax
    aabc:	48 89 45 88          	mov    %rax,-0x78(%rbp)
    aac0:	48 8d 85 90 f2 ff ff 	lea    -0xd70(%rbp),%rax
    aac7:	48 05 88 01 00 00    	add    $0x188,%rax
    aacd:	48 89 45 90          	mov    %rax,-0x70(%rbp)
    aad1:	48 c7 45 98 00 00 00 	movq   $0x0,-0x68(%rbp)
    aad8:	00 
    aad9:	48 8d 85 90 f2 ff ff 	lea    -0xd70(%rbp),%rax
    aae0:	48 05 98 03 00 00    	add    $0x398,%rax
    aae6:	48 89 45 a0          	mov    %rax,-0x60(%rbp)
    aaea:	48 c7 45 a8 00 00 00 	movq   $0x0,-0x58(%rbp)
    aaf1:	00 
    aaf2:	48 c7 85 c8 ed ff ff 	movq   $0x0,-0x1238(%rbp)
    aaf9:	00 00 00 00 
    aafd:	66 c7 85 14 ed ff ff 	movw   $0x0,-0x12ec(%rbp)
    ab04:	00 00 
    ab06:	48 b8 29 88 df c1 77 	movabs $0xdadc3c77c1df8829,%rax
    ab0d:	3c dc da 
    ab10:	48 89 85 d0 ed ff ff 	mov    %rax,-0x1230(%rbp)
    ab17:	48 8d 85 88 ed ff ff 	lea    -0x1278(%rbp),%rax
    ab1e:	48 89 85 d8 ed ff ff 	mov    %rax,-0x1228(%rbp)
    ab25:	c6 05 40 e2 00 00 00 	movb   $0x0,0xe240(%rip)        # 18d6c <g_81>
    ab2c:	e9 d3 00 00 00       	jmpq   ac04 <func_9+0x20ad>
    ab31:	c7 85 50 ed ff ff a8 	movl   $0x11f296a8,-0x12b0(%rbp)
    ab38:	96 f2 11 
    ab3b:	c7 85 54 ed ff ff fe 	movl   $0xbe2159fe,-0x12ac(%rbp)
    ab42:	59 21 be 
    ab45:	66 c7 85 16 ed ff ff 	movw   $0x8169,-0x12ea(%rbp)
    ab4c:	69 81 
    ab4e:	c7 85 34 ed ff ff 00 	movl   $0x0,-0x12cc(%rbp)
    ab55:	00 00 00 
    ab58:	eb 1e                	jmp    ab78 <func_9+0x2021>
    ab5a:	8b 85 34 ed ff ff    	mov    -0x12cc(%rbp),%eax
    ab60:	48 98                	cltq   
    ab62:	48 8d 15 af b3 00 00 	lea    0xb3af(%rip),%rdx        # 15f18 <g_1441>
    ab69:	48 89 94 c5 80 ee ff 	mov    %rdx,-0x1180(%rbp,%rax,8)
    ab70:	ff 
    ab71:	83 85 34 ed ff ff 01 	addl   $0x1,-0x12cc(%rbp)
    ab78:	83 bd 34 ed ff ff 07 	cmpl   $0x7,-0x12cc(%rbp)
    ab7f:	7e d9                	jle    ab5a <func_9+0x2003>
    ab81:	c7 85 34 ed ff ff 00 	movl   $0x0,-0x12cc(%rbp)
    ab88:	00 00 00 
    ab8b:	eb 1e                	jmp    abab <func_9+0x2054>
    ab8d:	8b 85 34 ed ff ff    	mov    -0x12cc(%rbp),%eax
    ab93:	48 98                	cltq   
    ab95:	48 8d 15 54 d9 00 00 	lea    0xd954(%rip),%rdx        # 184f0 <g_1247>
    ab9c:	48 89 94 c5 c0 ee ff 	mov    %rdx,-0x1140(%rbp,%rax,8)
    aba3:	ff 
    aba4:	83 85 34 ed ff ff 01 	addl   $0x1,-0x12cc(%rbp)
    abab:	83 bd 34 ed ff ff 07 	cmpl   $0x7,-0x12cc(%rbp)
    abb2:	7e d9                	jle    ab8d <func_9+0x2036>
    abb4:	48 c7 05 79 b3 00 00 	movq   $0x0,0xb379(%rip)        # 15f38 <g_1774>
    abbb:	00 00 00 00 
    abbf:	90                   	nop
    abc0:	48 8b 05 71 b3 00 00 	mov    0xb371(%rip),%rax        # 15f38 <g_1774>
    abc7:	48 83 f8 2e          	cmp    $0x2e,%rax
    abcb:	76 0c                	jbe    abd9 <func_9+0x2082>
    abcd:	48 8b 85 08 ed ff ff 	mov    -0x12f8(%rbp),%rax
    abd4:	e9 81 00 00 00       	jmpq   ac5a <func_9+0x2103>
    abd9:	8b 85 28 ee ff ff    	mov    -0x11d8(%rbp),%eax
    abdf:	83 e8 01             	sub    $0x1,%eax
    abe2:	89 85 28 ee ff ff    	mov    %eax,-0x11d8(%rbp)
    abe8:	0f b6 05 7d e1 00 00 	movzbl 0xe17d(%rip),%eax        # 18d6c <g_81>
    abef:	0f be c0             	movsbl %al,%eax
    abf2:	be 01 00 00 00       	mov    $0x1,%esi
    abf7:	89 c7                	mov    %eax,%edi
    abf9:	e8 ba d2 ff ff       	callq  7eb8 <safe_add_func_uint32_t_u_u>
    abfe:	88 05 68 e1 00 00    	mov    %al,0xe168(%rip)        # 18d6c <g_81>
    ac04:	0f b6 05 61 e1 00 00 	movzbl 0xe161(%rip),%eax        # 18d6c <g_81>
    ac0b:	3c 08                	cmp    $0x8,%al
    ac0d:	0f 8f 1e ff ff ff    	jg     ab31 <func_9+0x1fda>
    ac13:	c7 05 83 a4 00 00 f7 	movl   $0xfffffff7,0xa483(%rip)        # 150a0 <g_113>
    ac1a:	ff ff ff 
    ac1d:	eb 23                	jmp    ac42 <func_9+0x20eb>
    ac1f:	48 8b 15 ba d8 00 00 	mov    0xd8ba(%rip),%rdx        # 184e0 <g_931>
    ac26:	48 8b 05 b3 d8 00 00 	mov    0xd8b3(%rip),%rax        # 184e0 <g_931>
    ac2d:	48 8b 12             	mov    (%rdx),%rdx
    ac30:	48 89 10             	mov    %rdx,(%rax)
    ac33:	8b 05 67 a4 00 00    	mov    0xa467(%rip),%eax        # 150a0 <g_113>
    ac39:	83 c0 01             	add    $0x1,%eax
    ac3c:	89 05 5e a4 00 00    	mov    %eax,0xa45e(%rip)        # 150a0 <g_113>
    ac42:	8b 05 58 a4 00 00    	mov    0xa458(%rip),%eax        # 150a0 <g_113>
    ac48:	83 f8 14             	cmp    $0x14,%eax
    ac4b:	74 d2                	je     ac1f <func_9+0x20c8>
    ac4d:	48 8b 85 98 ed ff ff 	mov    -0x1268(%rbp),%rax
    ac54:	48 8b 00             	mov    (%rax),%rax
    ac57:	48 8b 00             	mov    (%rax),%rax
    ac5a:	48 8b 5d c8          	mov    -0x38(%rbp),%rbx
    ac5e:	64 48 33 1c 25 28 00 	xor    %fs:0x28,%rbx
    ac65:	00 00 
    ac67:	74 05                	je     ac6e <func_9+0x2117>
    ac69:	e8 02 c4 ff ff       	callq  7070 <__stack_chk_fail@plt>
    ac6e:	48 81 c4 e8 12 00 00 	add    $0x12e8,%rsp
    ac75:	5b                   	pop    %rbx
    ac76:	41 5c                	pop    %r12
    ac78:	41 5d                	pop    %r13
    ac7a:	41 5e                	pop    %r14
    ac7c:	41 5f                	pop    %r15
    ac7e:	5d                   	pop    %rbp
    ac7f:	c3                   	retq   

000000000000ac80 <func_12>:
    ac80:	f3 0f 1e fa          	endbr64 
    ac84:	55                   	push   %rbp
    ac85:	48 89 e5             	mov    %rsp,%rbp
    ac88:	53                   	push   %rbx
    ac89:	48 81 ec e8 05 00 00 	sub    $0x5e8,%rsp
    ac90:	48 89 bd 18 fa ff ff 	mov    %rdi,-0x5e8(%rbp)
    ac97:	48 89 b5 10 fa ff ff 	mov    %rsi,-0x5f0(%rbp)
    ac9e:	64 48 8b 04 25 28 00 	mov    %fs:0x28,%rax
    aca5:	00 00 
    aca7:	48 89 45 e8          	mov    %rax,-0x18(%rbp)
    acab:	31 c0                	xor    %eax,%eax
    acad:	48 8d 05 2c a4 00 00 	lea    0xa42c(%rip),%rax        # 150e0 <g_235>
    acb4:	48 89 85 a0 fa ff ff 	mov    %rax,-0x560(%rbp)
    acbb:	c7 85 40 fa ff ff 05 	movl   $0x5,-0x5c0(%rbp)
    acc2:	00 00 00 
    acc5:	48 8d 85 40 fc ff ff 	lea    -0x3c0(%rbp),%rax
    accc:	48 8d 15 6d bc 00 00 	lea    0xbc6d(%rip),%rdx        # 16940 <g_2144+0x978>
    acd3:	b9 36 00 00 00       	mov    $0x36,%ecx
    acd8:	48 89 c7             	mov    %rax,%rdi
    acdb:	48 89 d6             	mov    %rdx,%rsi
    acde:	f3 48 a5             	rep movsq %ds:(%rsi),%es:(%rdi)
    ace1:	48 8d 05 18 d8 00 00 	lea    0xd818(%rip),%rax        # 18500 <g_1245>
    ace8:	48 89 85 a8 fa ff ff 	mov    %rax,-0x558(%rbp)
    acef:	c7 85 44 fa ff ff 24 	movl   $0x6bb57924,-0x5bc(%rbp)
    acf6:	79 b5 6b 
    acf9:	48 8d 05 f4 a3 00 00 	lea    0xa3f4(%rip),%rax        # 150f4 <g_261+0x4>
    ad00:	48 89 85 78 fa ff ff 	mov    %rax,-0x588(%rbp)
    ad07:	48 8d 85 78 fa ff ff 	lea    -0x588(%rbp),%rax
    ad0e:	48 89 85 b0 fa ff ff 	mov    %rax,-0x550(%rbp)
    ad15:	48 b8 39 4f e1 97 1c 	movabs $0x2697811c97e14f39,%rax
    ad1c:	81 97 26 
    ad1f:	48 89 85 90 fa ff ff 	mov    %rax,-0x570(%rbp)
    ad26:	c7 85 48 fa ff ff f0 	movl   $0x96b308f0,-0x5b8(%rbp)
    ad2d:	08 b3 96 
    ad30:	48 8d 05 41 73 00 00 	lea    0x7341(%rip),%rax        # 12078 <g_1650>
    ad37:	48 89 85 b8 fa ff ff 	mov    %rax,-0x548(%rbp)
    ad3e:	48 8d 05 53 d7 00 00 	lea    0xd753(%rip),%rax        # 18498 <g_601>
    ad45:	48 89 85 c0 fa ff ff 	mov    %rax,-0x540(%rbp)
    ad4c:	48 8b 85 10 fa ff ff 	mov    -0x5f0(%rbp),%rax
    ad53:	8b 10                	mov    (%rax),%edx
    ad55:	48 83 bd a0 fa ff ff 	cmpq   $0x0,-0x560(%rbp)
    ad5c:	00 
    ad5d:	0f 95 c0             	setne  %al
    ad60:	0f b6 c0             	movzbl %al,%eax
    ad63:	21 c2                	and    %eax,%edx
    ad65:	48 8b 85 10 fa ff ff 	mov    -0x5f0(%rbp),%rax
    ad6c:	89 10                	mov    %edx,(%rax)
    ad6e:	48 8b 85 10 fa ff ff 	mov    -0x5f0(%rbp),%rax
    ad75:	8b 00                	mov    (%rax),%eax
    ad77:	85 c0                	test   %eax,%eax
    ad79:	0f 84 c0 08 00 00    	je     b63f <func_12+0x9bf>
    ad7f:	66 c7 85 32 fa ff ff 	movw   $0x746,-0x5ce(%rbp)
    ad86:	46 07 
    ad88:	c7 85 6c fa ff ff 82 	movl   $0xcc3ed282,-0x594(%rbp)
    ad8f:	d2 3e cc 
    ad92:	c7 85 70 fa ff ff 7e 	movl   $0xccdce27e,-0x590(%rbp)
    ad99:	e2 dc cc 
    ad9c:	c7 85 10 fb ff ff 30 	movl   $0x57100f30,-0x4f0(%rbp)
    ada3:	0f 10 57 
    ada6:	c7 85 14 fb ff ff 30 	movl   $0x57100f30,-0x4ec(%rbp)
    adad:	0f 10 57 
    adb0:	c7 85 18 fb ff ff 30 	movl   $0x57100f30,-0x4e8(%rbp)
    adb7:	0f 10 57 
    adba:	c7 85 1c fb ff ff 30 	movl   $0x57100f30,-0x4e4(%rbp)
    adc1:	0f 10 57 
    adc4:	c7 85 20 fb ff ff 30 	movl   $0x57100f30,-0x4e0(%rbp)
    adcb:	0f 10 57 
    adce:	c7 85 24 fb ff ff 30 	movl   $0x57100f30,-0x4dc(%rbp)
    add5:	0f 10 57 
    add8:	c7 85 28 fb ff ff 30 	movl   $0x57100f30,-0x4d8(%rbp)
    addf:	0f 10 57 
    ade2:	48 b8 24 39 cd d6 f7 	movabs $0x8aba8df7d6cd3924,%rax
    ade9:	8d ba 8a 
    adec:	48 89 85 98 fa ff ff 	mov    %rax,-0x568(%rbp)
    adf3:	c6 05 0e b1 00 00 00 	movb   $0x0,0xb10e(%rip)        # 15f08 <g_1398>
    adfa:	e9 2c 08 00 00       	jmpq   b62b <func_12+0x9ab>
    adff:	48 8d 05 fa d6 00 00 	lea    0xd6fa(%rip),%rax        # 18500 <g_1245>
    ae06:	48 89 85 30 fb ff ff 	mov    %rax,-0x4d0(%rbp)
    ae0d:	48 8d 05 ec d6 00 00 	lea    0xd6ec(%rip),%rax        # 18500 <g_1245>
    ae14:	48 89 85 38 fb ff ff 	mov    %rax,-0x4c8(%rbp)
    ae1b:	48 8d 05 de d6 00 00 	lea    0xd6de(%rip),%rax        # 18500 <g_1245>
    ae22:	48 89 85 40 fb ff ff 	mov    %rax,-0x4c0(%rbp)
    ae29:	48 8d 05 d0 d6 00 00 	lea    0xd6d0(%rip),%rax        # 18500 <g_1245>
    ae30:	48 89 85 48 fb ff ff 	mov    %rax,-0x4b8(%rbp)
    ae37:	48 8d 05 c2 d6 00 00 	lea    0xd6c2(%rip),%rax        # 18500 <g_1245>
    ae3e:	48 89 85 50 fb ff ff 	mov    %rax,-0x4b0(%rbp)
    ae45:	48 c7 85 80 fa ff ff 	movq   $0x0,-0x580(%rbp)
    ae4c:	00 00 00 00 
    ae50:	48 8d 85 80 fa ff ff 	lea    -0x580(%rbp),%rax
    ae57:	48 89 85 88 fa ff ff 	mov    %rax,-0x578(%rbp)
    ae5e:	c7 85 60 fb ff ff 6b 	movl   $0x8830ff6b,-0x4a0(%rbp)
    ae65:	ff 30 88 
    ae68:	c7 85 64 fb ff ff 00 	movl   $0x0,-0x49c(%rbp)
    ae6f:	00 00 00 
    ae72:	c7 85 68 fb ff ff 1d 	movl   $0xd4177b1d,-0x498(%rbp)
    ae79:	7b 17 d4 
    ae7c:	c7 85 6c fb ff ff 1d 	movl   $0xd4177b1d,-0x494(%rbp)
    ae83:	7b 17 d4 
    ae86:	c7 85 70 fb ff ff 1d 	movl   $0xd4177b1d,-0x490(%rbp)
    ae8d:	7b 17 d4 
    ae90:	c7 85 74 fb ff ff 00 	movl   $0x0,-0x48c(%rbp)
    ae97:	00 00 00 
    ae9a:	c7 85 78 fb ff ff 6b 	movl   $0x8830ff6b,-0x488(%rbp)
    aea1:	ff 30 88 
    aea4:	c7 85 7c fb ff ff 2c 	movl   $0x65e3c22c,-0x484(%rbp)
    aeab:	c2 e3 65 
    aeae:	c7 85 80 fb ff ff 00 	movl   $0x0,-0x480(%rbp)
    aeb5:	00 00 00 
    aeb8:	c7 85 84 fb ff ff 2c 	movl   $0x65e3c22c,-0x47c(%rbp)
    aebf:	c2 e3 65 
    aec2:	c7 85 88 fb ff ff 6b 	movl   $0x8830ff6b,-0x478(%rbp)
    aec9:	ff 30 88 
    aecc:	c7 85 8c fb ff ff 00 	movl   $0x0,-0x474(%rbp)
    aed3:	00 00 00 
    aed6:	c7 85 90 fb ff ff 1d 	movl   $0xd4177b1d,-0x470(%rbp)
    aedd:	7b 17 d4 
    aee0:	c7 85 94 fb ff ff 1d 	movl   $0xd4177b1d,-0x46c(%rbp)
    aee7:	7b 17 d4 
    aeea:	c7 85 98 fb ff ff 1d 	movl   $0xd4177b1d,-0x468(%rbp)
    aef1:	7b 17 d4 
    aef4:	c7 85 9c fb ff ff 00 	movl   $0x0,-0x464(%rbp)
    aefb:	00 00 00 
    aefe:	c7 85 a0 fb ff ff 6b 	movl   $0x8830ff6b,-0x460(%rbp)
    af05:	ff 30 88 
    af08:	c7 85 a4 fb ff ff 2c 	movl   $0x65e3c22c,-0x45c(%rbp)
    af0f:	c2 e3 65 
    af12:	c7 85 a8 fb ff ff 00 	movl   $0x0,-0x458(%rbp)
    af19:	00 00 00 
    af1c:	c7 85 ac fb ff ff 2c 	movl   $0x65e3c22c,-0x454(%rbp)
    af23:	c2 e3 65 
    af26:	c7 85 b0 fb ff ff 6b 	movl   $0x8830ff6b,-0x450(%rbp)
    af2d:	ff 30 88 
    af30:	c7 85 b4 fb ff ff 00 	movl   $0x0,-0x44c(%rbp)
    af37:	00 00 00 
    af3a:	c7 85 b8 fb ff ff 1d 	movl   $0xd4177b1d,-0x448(%rbp)
    af41:	7b 17 d4 
    af44:	c7 85 bc fb ff ff 1d 	movl   $0xd4177b1d,-0x444(%rbp)
    af4b:	7b 17 d4 
    af4e:	c7 85 c0 fb ff ff 1d 	movl   $0xd4177b1d,-0x440(%rbp)
    af55:	7b 17 d4 
    af58:	c7 85 c4 fb ff ff 00 	movl   $0x0,-0x43c(%rbp)
    af5f:	00 00 00 
    af62:	c7 85 c8 fb ff ff 6b 	movl   $0x8830ff6b,-0x438(%rbp)
    af69:	ff 30 88 
    af6c:	c7 85 cc fb ff ff 2c 	movl   $0x65e3c22c,-0x434(%rbp)
    af73:	c2 e3 65 
    af76:	c7 85 d0 fb ff ff 00 	movl   $0x0,-0x430(%rbp)
    af7d:	00 00 00 
    af80:	c7 85 d4 fb ff ff 2c 	movl   $0x65e3c22c,-0x42c(%rbp)
    af87:	c2 e3 65 
    af8a:	c7 85 d8 fb ff ff 6b 	movl   $0x8830ff6b,-0x428(%rbp)
    af91:	ff 30 88 
    af94:	c7 85 dc fb ff ff 00 	movl   $0x0,-0x424(%rbp)
    af9b:	00 00 00 
    af9e:	c7 85 e0 fb ff ff 1d 	movl   $0xd4177b1d,-0x420(%rbp)
    afa5:	7b 17 d4 
    afa8:	c7 85 e4 fb ff ff 1d 	movl   $0xd4177b1d,-0x41c(%rbp)
    afaf:	7b 17 d4 
    afb2:	c7 85 e8 fb ff ff 1d 	movl   $0xd4177b1d,-0x418(%rbp)
    afb9:	7b 17 d4 
    afbc:	c7 85 ec fb ff ff 00 	movl   $0x0,-0x414(%rbp)
    afc3:	00 00 00 
    afc6:	c7 85 f0 fb ff ff 6b 	movl   $0x8830ff6b,-0x410(%rbp)
    afcd:	ff 30 88 
    afd0:	c7 85 f4 fb ff ff 2c 	movl   $0x65e3c22c,-0x40c(%rbp)
    afd7:	c2 e3 65 
    afda:	c7 85 f8 fb ff ff 00 	movl   $0x0,-0x408(%rbp)
    afe1:	00 00 00 
    afe4:	c7 85 fc fb ff ff 2c 	movl   $0x65e3c22c,-0x404(%rbp)
    afeb:	c2 e3 65 
    afee:	c7 85 00 fc ff ff 6b 	movl   $0x8830ff6b,-0x400(%rbp)
    aff5:	ff 30 88 
    aff8:	c7 85 04 fc ff ff 00 	movl   $0x0,-0x3fc(%rbp)
    afff:	00 00 00 
    b002:	c7 85 08 fc ff ff 1d 	movl   $0xd4177b1d,-0x3f8(%rbp)
    b009:	7b 17 d4 
    b00c:	c7 85 0c fc ff ff 1d 	movl   $0xd4177b1d,-0x3f4(%rbp)
    b013:	7b 17 d4 
    b016:	c7 85 10 fc ff ff 1d 	movl   $0xd4177b1d,-0x3f0(%rbp)
    b01d:	7b 17 d4 
    b020:	c7 85 14 fc ff ff 00 	movl   $0x0,-0x3ec(%rbp)
    b027:	00 00 00 
    b02a:	c7 85 18 fc ff ff 6b 	movl   $0x8830ff6b,-0x3e8(%rbp)
    b031:	ff 30 88 
    b034:	c7 85 1c fc ff ff 2c 	movl   $0x65e3c22c,-0x3e4(%rbp)
    b03b:	c2 e3 65 
    b03e:	c7 85 20 fc ff ff 00 	movl   $0x0,-0x3e0(%rbp)
    b045:	00 00 00 
    b048:	c7 85 24 fc ff ff 2c 	movl   $0x65e3c22c,-0x3dc(%rbp)
    b04f:	c2 e3 65 
    b052:	c7 85 28 fc ff ff 6b 	movl   $0x8830ff6b,-0x3d8(%rbp)
    b059:	ff 30 88 
    b05c:	c7 85 2c fc ff ff 00 	movl   $0x0,-0x3d4(%rbp)
    b063:	00 00 00 
    b066:	c7 85 30 fc ff ff 1d 	movl   $0xd4177b1d,-0x3d0(%rbp)
    b06d:	7b 17 d4 
    b070:	c7 85 34 fc ff ff 1d 	movl   $0xd4177b1d,-0x3cc(%rbp)
    b077:	7b 17 d4 
    b07a:	c7 85 38 fc ff ff 1d 	movl   $0xd4177b1d,-0x3c8(%rbp)
    b081:	7b 17 d4 
    b084:	c7 85 3c fc ff ff 00 	movl   $0x0,-0x3c4(%rbp)
    b08b:	00 00 00 
    b08e:	c7 85 74 fa ff ff 7b 	movl   $0x3ceee7b,-0x58c(%rbp)
    b095:	ee ce 03 
    b098:	c7 85 34 fa ff ff 00 	movl   $0x0,-0x5cc(%rbp)
    b09f:	00 00 00 
    b0a2:	eb 1e                	jmp    b0c2 <func_12+0x442>
    b0a4:	8b 85 34 fa ff ff    	mov    -0x5cc(%rbp),%eax
    b0aa:	48 98                	cltq   
    b0ac:	48 8d 95 88 fa ff ff 	lea    -0x578(%rbp),%rdx
    b0b3:	48 89 94 c5 08 fb ff 	mov    %rdx,-0x4f8(%rbp,%rax,8)
    b0ba:	ff 
    b0bb:	83 85 34 fa ff ff 01 	addl   $0x1,-0x5cc(%rbp)
    b0c2:	83 bd 34 fa ff ff 00 	cmpl   $0x0,-0x5cc(%rbp)
    b0c9:	7e d9                	jle    b0a4 <func_12+0x424>
    b0cb:	48 8b 85 18 fa ff ff 	mov    -0x5e8(%rbp),%rax
    b0d2:	0f be d0             	movsbl %al,%edx
    b0d5:	0f b6 05 2c ae 00 00 	movzbl 0xae2c(%rip),%eax        # 15f08 <g_1398>
    b0dc:	0f be c0             	movsbl %al,%eax
    b0df:	48 98                	cltq   
    b0e1:	48 8d 0c c5 00 00 00 	lea    0x0(,%rax,8),%rcx
    b0e8:	00 
    b0e9:	48 8d 05 f8 aa 00 00 	lea    0xaaf8(%rip),%rax        # 15be8 <g_976>
    b0f0:	48 8b 04 01          	mov    (%rcx,%rax,1),%rax
    b0f4:	48 83 f8 a6          	cmp    $0xffffffffffffffa6,%rax
    b0f8:	0f 9c c0             	setl   %al
    b0fb:	0f b6 c0             	movzbl %al,%eax
    b0fe:	48 98                	cltq   
    b100:	48 39 85 18 fa ff ff 	cmp    %rax,-0x5e8(%rbp)
    b107:	0f 93 c0             	setae  %al
    b10a:	0f b6 c0             	movzbl %al,%eax
    b10d:	89 d6                	mov    %edx,%esi
    b10f:	89 c7                	mov    %eax,%edi
    b111:	e8 fc c0 ff ff       	callq  7212 <safe_mul_func_int8_t_s_s>
    b116:	48 0f be c0          	movsbq %al,%rax
    b11a:	48 0b 85 18 fa ff ff 	or     -0x5e8(%rbp),%rax
    b121:	0f b6 15 e0 ad 00 00 	movzbl 0xade0(%rip),%edx        # 15f08 <g_1398>
    b128:	0f be d2             	movsbl %dl,%edx
    b12b:	48 63 d2             	movslq %edx,%rdx
    b12e:	48 8d 0c d5 00 00 00 	lea    0x0(,%rdx,8),%rcx
    b135:	00 
    b136:	48 8d 15 ab aa 00 00 	lea    0xaaab(%rip),%rdx        # 15be8 <g_976>
    b13d:	48 8b 14 11          	mov    (%rcx,%rdx,1),%rdx
    b141:	48 21 d0             	and    %rdx,%rax
    b144:	48 83 f8 f9          	cmp    $0xfffffffffffffff9,%rax
    b148:	0f 94 c0             	sete   %al
    b14b:	0f b6 c8             	movzbl %al,%ecx
    b14e:	48 8b 05 db d3 00 00 	mov    0xd3db(%rip),%rax        # 18530 <g_1365>
    b155:	48 8b 00             	mov    (%rax),%rax
    b158:	48 8b 00             	mov    (%rax),%rax
    b15b:	48 8b 00             	mov    (%rax),%rax
    b15e:	8b 10                	mov    (%rax),%edx
    b160:	48 8b 05 c9 d3 00 00 	mov    0xd3c9(%rip),%rax        # 18530 <g_1365>
    b167:	48 8b 00             	mov    (%rax),%rax
    b16a:	48 8b 00             	mov    (%rax),%rax
    b16d:	48 8b 00             	mov    (%rax),%rax
    b170:	21 ca                	and    %ecx,%edx
    b172:	89 10                	mov    %edx,(%rax)
    b174:	8b 00                	mov    (%rax),%eax
    b176:	85 c0                	test   %eax,%eax
    b178:	0f 84 b2 01 00 00    	je     b330 <func_12+0x6b0>
    b17e:	48 8d 05 1b a0 00 00 	lea    0xa01b(%rip),%rax        # 151a0 <g_516>
    b185:	48 89 85 f0 fd ff ff 	mov    %rax,-0x210(%rbp)
    b18c:	48 8d 05 2d 9f 00 00 	lea    0x9f2d(%rip),%rax        # 150c0 <g_221>
    b193:	48 89 85 f8 fd ff ff 	mov    %rax,-0x208(%rbp)
    b19a:	48 8d 05 ff 9f 00 00 	lea    0x9fff(%rip),%rax        # 151a0 <g_516>
    b1a1:	48 89 85 00 fe ff ff 	mov    %rax,-0x200(%rbp)
    b1a8:	48 8d 05 f1 9f 00 00 	lea    0x9ff1(%rip),%rax        # 151a0 <g_516>
    b1af:	48 89 85 08 fe ff ff 	mov    %rax,-0x1f8(%rbp)
    b1b6:	48 8d 05 e3 9f 00 00 	lea    0x9fe3(%rip),%rax        # 151a0 <g_516>
    b1bd:	48 89 85 10 fe ff ff 	mov    %rax,-0x1f0(%rbp)
    b1c4:	48 8d 05 d5 9f 00 00 	lea    0x9fd5(%rip),%rax        # 151a0 <g_516>
    b1cb:	48 89 85 18 fe ff ff 	mov    %rax,-0x1e8(%rbp)
    b1d2:	48 8d 05 c7 9f 00 00 	lea    0x9fc7(%rip),%rax        # 151a0 <g_516>
    b1d9:	48 89 85 20 fe ff ff 	mov    %rax,-0x1e0(%rbp)
    b1e0:	48 8d 05 d9 9e 00 00 	lea    0x9ed9(%rip),%rax        # 150c0 <g_221>
    b1e7:	48 89 85 28 fe ff ff 	mov    %rax,-0x1d8(%rbp)
    b1ee:	48 8d 05 ab 9f 00 00 	lea    0x9fab(%rip),%rax        # 151a0 <g_516>
    b1f5:	48 89 85 30 fe ff ff 	mov    %rax,-0x1d0(%rbp)
    b1fc:	48 8d 05 9d 9f 00 00 	lea    0x9f9d(%rip),%rax        # 151a0 <g_516>
    b203:	48 89 85 38 fe ff ff 	mov    %rax,-0x1c8(%rbp)
    b20a:	48 8d 05 8f 9f 00 00 	lea    0x9f8f(%rip),%rax        # 151a0 <g_516>
    b211:	48 89 85 40 fe ff ff 	mov    %rax,-0x1c0(%rbp)
    b218:	48 8d 05 81 9f 00 00 	lea    0x9f81(%rip),%rax        # 151a0 <g_516>
    b21f:	48 89 85 48 fe ff ff 	mov    %rax,-0x1b8(%rbp)
    b226:	48 8d 05 73 9f 00 00 	lea    0x9f73(%rip),%rax        # 151a0 <g_516>
    b22d:	48 89 85 50 fe ff ff 	mov    %rax,-0x1b0(%rbp)
    b234:	48 8d 05 85 9e 00 00 	lea    0x9e85(%rip),%rax        # 150c0 <g_221>
    b23b:	48 89 85 58 fe ff ff 	mov    %rax,-0x1a8(%rbp)
    b242:	48 8d 05 57 9f 00 00 	lea    0x9f57(%rip),%rax        # 151a0 <g_516>
    b249:	48 89 85 60 fe ff ff 	mov    %rax,-0x1a0(%rbp)
    b250:	48 8d 05 49 9f 00 00 	lea    0x9f49(%rip),%rax        # 151a0 <g_516>
    b257:	48 89 85 68 fe ff ff 	mov    %rax,-0x198(%rbp)
    b25e:	48 8d 05 3b 9f 00 00 	lea    0x9f3b(%rip),%rax        # 151a0 <g_516>
    b265:	48 89 85 70 fe ff ff 	mov    %rax,-0x190(%rbp)
    b26c:	48 8d 05 2d 9f 00 00 	lea    0x9f2d(%rip),%rax        # 151a0 <g_516>
    b273:	48 89 85 78 fe ff ff 	mov    %rax,-0x188(%rbp)
    b27a:	48 8d 05 1f 9f 00 00 	lea    0x9f1f(%rip),%rax        # 151a0 <g_516>
    b281:	48 89 85 80 fe ff ff 	mov    %rax,-0x180(%rbp)
    b288:	48 8d 05 31 9e 00 00 	lea    0x9e31(%rip),%rax        # 150c0 <g_221>
    b28f:	48 89 85 88 fe ff ff 	mov    %rax,-0x178(%rbp)
    b296:	48 8d 05 03 9f 00 00 	lea    0x9f03(%rip),%rax        # 151a0 <g_516>
    b29d:	48 89 85 90 fe ff ff 	mov    %rax,-0x170(%rbp)
    b2a4:	48 8d 05 f5 9e 00 00 	lea    0x9ef5(%rip),%rax        # 151a0 <g_516>
    b2ab:	48 89 85 98 fe ff ff 	mov    %rax,-0x168(%rbp)
    b2b2:	48 8d 05 e7 9e 00 00 	lea    0x9ee7(%rip),%rax        # 151a0 <g_516>
    b2b9:	48 89 85 a0 fe ff ff 	mov    %rax,-0x160(%rbp)
    b2c0:	48 8d 05 d9 9e 00 00 	lea    0x9ed9(%rip),%rax        # 151a0 <g_516>
    b2c7:	48 89 85 a8 fe ff ff 	mov    %rax,-0x158(%rbp)
    b2ce:	48 8d 05 cb 9e 00 00 	lea    0x9ecb(%rip),%rax        # 151a0 <g_516>
    b2d5:	48 89 85 b0 fe ff ff 	mov    %rax,-0x150(%rbp)
    b2dc:	48 8d 05 dd 9d 00 00 	lea    0x9ddd(%rip),%rax        # 150c0 <g_221>
    b2e3:	48 89 85 b8 fe ff ff 	mov    %rax,-0x148(%rbp)
    b2ea:	48 8d 05 af 9e 00 00 	lea    0x9eaf(%rip),%rax        # 151a0 <g_516>
    b2f1:	48 89 85 c0 fe ff ff 	mov    %rax,-0x140(%rbp)
    b2f8:	48 8d 05 a1 9e 00 00 	lea    0x9ea1(%rip),%rax        # 151a0 <g_516>
    b2ff:	48 89 85 c8 fe ff ff 	mov    %rax,-0x138(%rbp)
    b306:	48 8d 85 f0 fd ff ff 	lea    -0x210(%rbp),%rax
    b30d:	48 05 d0 00 00 00    	add    $0xd0,%rax
    b313:	48 89 85 00 fb ff ff 	mov    %rax,-0x500(%rbp)
    b31a:	48 8b 85 00 fb ff ff 	mov    -0x500(%rbp),%rax
    b321:	48 8d 15 a0 a3 00 00 	lea    0xa3a0(%rip),%rdx        # 156c8 <g_706+0x228>
    b328:	48 89 10             	mov    %rdx,(%rax)
    b32b:	e9 e3 02 00 00       	jmpq   b613 <func_12+0x993>
    b330:	48 8d 05 c8 9d 00 00 	lea    0x9dc8(%rip),%rax        # 150ff <g_271+0x3>
    b337:	48 89 85 f0 fa ff ff 	mov    %rax,-0x510(%rbp)
    b33e:	48 8d 85 f0 fd ff ff 	lea    -0x210(%rbp),%rax
    b345:	48 8d 15 b4 b7 00 00 	lea    0xb7b4(%rip),%rdx        # 16b00 <g_2144+0xb38>
    b34c:	b9 3f 00 00 00       	mov    $0x3f,%ecx
    b351:	48 89 c7             	mov    %rax,%rdi
    b354:	48 89 d6             	mov    %rdx,%rsi
    b357:	f3 48 a5             	rep movsq %ds:(%rsi),%es:(%rdi)
    b35a:	c7 85 38 fa ff ff 6f 	movl   $0x5b7fe86f,-0x5c8(%rbp)
    b361:	e8 7f 5b 
    b364:	48 8b 85 18 fa ff ff 	mov    -0x5e8(%rbp),%rax
    b36b:	0f b6 d8             	movzbl %al,%ebx
    b36e:	48 8b 85 f0 fa ff ff 	mov    -0x510(%rbp),%rax
    b375:	0f b6 00             	movzbl (%rax),%eax
    b378:	8d 50 01             	lea    0x1(%rax),%edx
    b37b:	48 8b 85 f0 fa ff ff 	mov    -0x510(%rbp),%rax
    b382:	88 10                	mov    %dl,(%rax)
    b384:	8b 85 44 fa ff ff    	mov    -0x5bc(%rbp),%eax
    b38a:	0f b6 d0             	movzbl %al,%edx
    b38d:	48 8b 85 38 fb ff ff 	mov    -0x4c8(%rbp),%rax
    b394:	48 89 85 d0 fe ff ff 	mov    %rax,-0x130(%rbp)
    b39b:	48 8b 85 d0 fe ff ff 	mov    -0x130(%rbp),%rax
    b3a2:	48 39 85 a8 fa ff ff 	cmp    %rax,-0x558(%rbp)
    b3a9:	0f 94 c0             	sete   %al
    b3ac:	89 c1                	mov    %eax,%ecx
    b3ae:	48 8b 85 18 fa ff ff 	mov    -0x5e8(%rbp),%rax
    b3b5:	09 c8                	or     %ecx,%eax
    b3b7:	0f b6 c0             	movzbl %al,%eax
    b3ba:	89 d6                	mov    %edx,%esi
    b3bc:	89 c7                	mov    %eax,%edi
    b3be:	e8 18 c8 ff ff       	callq  7bdb <safe_div_func_uint8_t_u_u>
    b3c3:	84 c0                	test   %al,%al
    b3c5:	75 0d                	jne    b3d4 <func_12+0x754>
    b3c7:	48 8b 85 10 fa ff ff 	mov    -0x5f0(%rbp),%rax
    b3ce:	8b 00                	mov    (%rax),%eax
    b3d0:	85 c0                	test   %eax,%eax
    b3d2:	74 07                	je     b3db <func_12+0x75b>
    b3d4:	ba 01 00 00 00       	mov    $0x1,%edx
    b3d9:	eb 05                	jmp    b3e0 <func_12+0x760>
    b3db:	ba 00 00 00 00       	mov    $0x0,%edx
    b3e0:	0f bf 85 32 fa ff ff 	movswl -0x5ce(%rbp),%eax
    b3e7:	39 c2                	cmp    %eax,%edx
    b3e9:	83 bd 38 fa ff ff 01 	cmpl   $0x1,-0x5c8(%rbp)
    b3f0:	0f 94 c0             	sete   %al
    b3f3:	0f b6 c0             	movzbl %al,%eax
    b3f6:	89 de                	mov    %ebx,%esi
    b3f8:	89 c7                	mov    %eax,%edi
    b3fa:	e8 5b c7 ff ff       	callq  7b5a <safe_add_func_uint8_t_u_u>
    b3ff:	0f b6 05 02 ab 00 00 	movzbl 0xab02(%rip),%eax        # 15f08 <g_1398>
    b406:	0f be c0             	movsbl %al,%eax
    b409:	48 98                	cltq   
    b40b:	48 8d 14 c5 00 00 00 	lea    0x0(,%rax,8),%rdx
    b412:	00 
    b413:	48 8d 05 ce a7 00 00 	lea    0xa7ce(%rip),%rax        # 15be8 <g_976>
    b41a:	48 8b 04 02          	mov    (%rdx,%rax,1),%rax
    b41e:	98                   	cwtl   
    b41f:	be ff ff ff ff       	mov    $0xffffffff,%esi
    b424:	89 c7                	mov    %eax,%edi
    b426:	e8 ca bf ff ff       	callq  73f5 <safe_mul_func_int16_t_s_s>
    b42b:	89 c2                	mov    %eax,%edx
    b42d:	8b 85 38 fa ff ff    	mov    -0x5c8(%rbp),%eax
    b433:	83 e0 01             	and    $0x1,%eax
    b436:	89 c1                	mov    %eax,%ecx
    b438:	48 8b 05 e1 cf 00 00 	mov    0xcfe1(%rip),%rax        # 18420 <g_272>
    b43f:	21 ca                	and    %ecx,%edx
    b441:	66 89 10             	mov    %dx,(%rax)
    b444:	66 83 bd 32 fa ff ff 	cmpw   $0x0,-0x5ce(%rbp)
    b44b:	00 
    b44c:	0f 84 1e 01 00 00    	je     b570 <func_12+0x8f0>
    b452:	8b 95 c8 fb ff ff    	mov    -0x438(%rbp),%edx
    b458:	48 8b 85 08 fb ff ff 	mov    -0x4f8(%rbp),%rax
    b45f:	48 85 c0             	test   %rax,%rax
    b462:	0f 95 c0             	setne  %al
    b465:	0f b6 c0             	movzbl %al,%eax
    b468:	09 d0                	or     %edx,%eax
    b46a:	89 85 c8 fb ff ff    	mov    %eax,-0x438(%rbp)
    b470:	8b 85 c8 fb ff ff    	mov    -0x438(%rbp),%eax
    b476:	48 98                	cltq   
    b478:	48 39 85 18 fa ff ff 	cmp    %rax,-0x5e8(%rbp)
    b47f:	0f 94 c0             	sete   %al
    b482:	0f b6 d0             	movzbl %al,%edx
    b485:	48 8b 05 8c d0 00 00 	mov    0xd08c(%rip),%rax        # 18518 <g_1354>
    b48c:	48 8b 08             	mov    (%rax),%rcx
    b48f:	48 8b 05 b2 d0 00 00 	mov    0xd0b2(%rip),%rax        # 18548 <g_1453>
    b496:	48 89 05 ab d0 00 00 	mov    %rax,0xd0ab(%rip)        # 18548 <g_1453>
    b49d:	48 8b 05 a4 d0 00 00 	mov    0xd0a4(%rip),%rax        # 18548 <g_1453>
    b4a4:	48 39 c1             	cmp    %rax,%rcx
    b4a7:	0f 95 c0             	setne  %al
    b4aa:	0f b6 c8             	movzbl %al,%ecx
    b4ad:	0f b6 05 54 aa 00 00 	movzbl 0xaa54(%rip),%eax        # 15f08 <g_1398>
    b4b4:	0f be c0             	movsbl %al,%eax
    b4b7:	48 98                	cltq   
    b4b9:	48 8d 34 c5 00 00 00 	lea    0x0(,%rax,8),%rsi
    b4c0:	00 
    b4c1:	48 8d 05 20 a7 00 00 	lea    0xa720(%rip),%rax        # 15be8 <g_976>
    b4c8:	48 8b 34 06          	mov    (%rsi,%rax,1),%rsi
    b4cc:	48 63 d2             	movslq %edx,%rdx
    b4cf:	0f b6 05 32 aa 00 00 	movzbl 0xaa32(%rip),%eax        # 15f08 <g_1398>
    b4d6:	0f be c0             	movsbl %al,%eax
    b4d9:	48 89 f7             	mov    %rsi,%rdi
    b4dc:	48 21 d7             	and    %rdx,%rdi
    b4df:	48 63 d0             	movslq %eax,%rdx
    b4e2:	48 8d 34 d5 00 00 00 	lea    0x0(,%rdx,8),%rsi
    b4e9:	00 
    b4ea:	48 8d 15 f7 a6 00 00 	lea    0xa6f7(%rip),%rdx        # 15be8 <g_976>
    b4f1:	48 89 3c 16          	mov    %rdi,(%rsi,%rdx,1)
    b4f5:	48 98                	cltq   
    b4f7:	48 8d 14 c5 00 00 00 	lea    0x0(,%rax,8),%rdx
    b4fe:	00 
    b4ff:	48 8d 05 e2 a6 00 00 	lea    0xa6e2(%rip),%rax        # 15be8 <g_976>
    b506:	48 8b 14 02          	mov    (%rdx,%rax,1),%rdx
    b50a:	8b 85 74 fa ff ff    	mov    -0x58c(%rbp),%eax
    b510:	48 98                	cltq   
    b512:	48 39 c2             	cmp    %rax,%rdx
    b515:	48 8b 05 04 cf 00 00 	mov    0xcf04(%rip),%rax        # 18420 <g_272>
    b51c:	0f b7 10             	movzwl (%rax),%edx
    b51f:	48 8b 05 fa ce 00 00 	mov    0xcefa(%rip),%rax        # 18420 <g_272>
    b526:	31 ca                	xor    %ecx,%edx
    b528:	66 89 10             	mov    %dx,(%rax)
    b52b:	48 8b 05 ee cf 00 00 	mov    0xcfee(%rip),%rax        # 18520 <g_1368>
    b532:	8b 08                	mov    (%rax),%ecx
    b534:	48 83 bd 18 fa ff ff 	cmpq   $0x0,-0x5e8(%rbp)
    b53b:	00 
    b53c:	0f 94 c0             	sete   %al
    b53f:	0f b6 d0             	movzbl %al,%edx
    b542:	48 8b 05 d7 cf 00 00 	mov    0xcfd7(%rip),%rax        # 18520 <g_1368>
    b549:	31 ca                	xor    %ecx,%edx
    b54b:	89 10                	mov    %edx,(%rax)
    b54d:	8b 10                	mov    (%rax),%edx
    b54f:	48 83 bd 18 fa ff ff 	cmpq   $0x1,-0x5e8(%rbp)
    b556:	01 
    b557:	0f 94 c0             	sete   %al
    b55a:	0f b6 c0             	movzbl %al,%eax
    b55d:	39 c2                	cmp    %eax,%edx
    b55f:	0f 9d c0             	setge  %al
    b562:	0f b6 c0             	movzbl %al,%eax
    b565:	89 85 74 fa ff ff    	mov    %eax,-0x58c(%rbp)
    b56b:	e9 92 00 00 00       	jmpq   b602 <func_12+0x982>
    b570:	48 8d 05 91 cf 00 00 	lea    0xcf91(%rip),%rax        # 18508 <g_1277>
    b577:	48 89 85 f8 fa ff ff 	mov    %rax,-0x508(%rbp)
    b57e:	48 8b 05 a3 cf 00 00 	mov    0xcfa3(%rip),%rax        # 18528 <g_1366>
    b585:	48 8b 00             	mov    (%rax),%rax
    b588:	48 8b 00             	mov    (%rax),%rax
    b58b:	48 8b 95 18 fa ff ff 	mov    -0x5e8(%rbp),%rdx
    b592:	89 10                	mov    %edx,(%rax)
    b594:	48 8b 05 bd cf 00 00 	mov    0xcfbd(%rip),%rax        # 18558 <g_1457>
    b59b:	48 8b 95 f8 fa ff ff 	mov    -0x508(%rbp),%rdx
    b5a2:	48 89 10             	mov    %rdx,(%rax)
    b5a5:	c7 85 38 fa ff ff e6 	movl   $0xffffffe6,-0x5c8(%rbp)
    b5ac:	ff ff ff 
    b5af:	eb 45                	jmp    b5f6 <func_12+0x976>
    b5b1:	c6 85 2f fa ff ff e3 	movb   $0xe3,-0x5d1(%rbp)
    b5b8:	80 bd 2f fa ff ff 00 	cmpb   $0x0,-0x5d1(%rbp)
    b5bf:	75 40                	jne    b601 <func_12+0x981>
    b5c1:	48 83 bd 18 fa ff ff 	cmpq   $0x9,-0x5e8(%rbp)
    b5c8:	09 
    b5c9:	0f 96 c0             	setbe  %al
    b5cc:	0f b6 d0             	movzbl %al,%edx
    b5cf:	48 8b 85 10 fa ff ff 	mov    -0x5f0(%rbp),%rax
    b5d6:	89 10                	mov    %edx,(%rax)
    b5d8:	8b 85 38 fa ff ff    	mov    -0x5c8(%rbp),%eax
    b5de:	0f be c0             	movsbl %al,%eax
    b5e1:	be 07 00 00 00       	mov    $0x7,%esi
    b5e6:	89 c7                	mov    %eax,%edi
    b5e8:	e8 e7 bb ff ff       	callq  71d4 <safe_add_func_int8_t_s_s>
    b5ed:	0f be c0             	movsbl %al,%eax
    b5f0:	89 85 38 fa ff ff    	mov    %eax,-0x5c8(%rbp)
    b5f6:	83 bd 38 fa ff ff 0e 	cmpl   $0xe,-0x5c8(%rbp)
    b5fd:	7e b2                	jle    b5b1 <func_12+0x931>
    b5ff:	eb 01                	jmp    b602 <func_12+0x982>
    b601:	90                   	nop
    b602:	48 8b 05 cf ce 00 00 	mov    0xcecf(%rip),%rax        # 184d8 <g_932>
    b609:	48 8b 00             	mov    (%rax),%rax
    b60c:	48 c7 00 00 00 00 00 	movq   $0x0,(%rax)
    b613:	48 83 85 98 fa ff ff 	addq   $0x1,-0x568(%rbp)
    b61a:	01 
    b61b:	0f b6 05 e6 a8 00 00 	movzbl 0xa8e6(%rip),%eax        # 15f08 <g_1398>
    b622:	83 e8 01             	sub    $0x1,%eax
    b625:	88 05 dd a8 00 00    	mov    %al,0xa8dd(%rip)        # 15f08 <g_1398>
    b62b:	0f b6 05 d6 a8 00 00 	movzbl 0xa8d6(%rip),%eax        # 15f08 <g_1398>
    b632:	84 c0                	test   %al,%al
    b634:	0f 89 c5 f7 ff ff    	jns    adff <func_12+0x17f>
    b63a:	e9 7c 02 00 00       	jmpq   b8bb <func_12+0xc3b>
    b63f:	48 c7 85 c8 fa ff ff 	movq   $0xfffffffffffffffa,-0x538(%rbp)
    b646:	fa ff ff ff 
    b64a:	48 c7 85 d0 fa ff ff 	movq   $0x0,-0x530(%rbp)
    b651:	00 00 00 00 
    b655:	c7 85 4c fa ff ff 09 	movl   $0x9,-0x5b4(%rbp)
    b65c:	00 00 00 
    b65f:	c7 85 50 fa ff ff ea 	movl   $0x805eacea,-0x5b0(%rbp)
    b666:	ac 5e 80 
    b669:	c7 85 54 fa ff ff 36 	movl   $0xc1cc6136,-0x5ac(%rbp)
    b670:	61 cc c1 
    b673:	66 c7 85 30 fa ff ff 	movw   $0xfffe,-0x5d0(%rbp)
    b67a:	fe ff 
    b67c:	c7 85 30 fb ff ff 01 	movl   $0x1,-0x4d0(%rbp)
    b683:	00 00 00 
    b686:	c7 85 34 fb ff ff 01 	movl   $0x1,-0x4cc(%rbp)
    b68d:	00 00 00 
    b690:	c7 85 38 fb ff ff 01 	movl   $0x1,-0x4c8(%rbp)
    b697:	00 00 00 
    b69a:	c7 85 3c fb ff ff 01 	movl   $0x1,-0x4c4(%rbp)
    b6a1:	00 00 00 
    b6a4:	c7 85 40 fb ff ff 01 	movl   $0x1,-0x4c0(%rbp)
    b6ab:	00 00 00 
    b6ae:	48 8d 05 db 9a 00 00 	lea    0x9adb(%rip),%rax        # 15190 <g_420>
    b6b5:	48 89 85 d8 fa ff ff 	mov    %rax,-0x528(%rbp)
    b6bc:	c7 85 58 fa ff ff 00 	movl   $0x0,-0x5a8(%rbp)
    b6c3:	00 00 00 
    b6c6:	48 c7 85 f0 fd ff ff 	movq   $0xfffffffffffffffb,-0x210(%rbp)
    b6cd:	fb ff ff ff 
    b6d1:	48 c7 85 f8 fd ff ff 	movq   $0xffffffffffffffff,-0x208(%rbp)
    b6d8:	ff ff ff ff 
    b6dc:	48 c7 85 00 fe ff ff 	movq   $0xffffffffffffffff,-0x200(%rbp)
    b6e3:	ff ff ff ff 
    b6e7:	48 c7 85 08 fe ff ff 	movq   $0xfffffffffffffffb,-0x1f8(%rbp)
    b6ee:	fb ff ff ff 
    b6f2:	48 c7 85 10 fe ff ff 	movq   $0xffffffffffffffff,-0x1f0(%rbp)
    b6f9:	ff ff ff ff 
    b6fd:	48 c7 85 18 fe ff ff 	movq   $0xffffffffffffffff,-0x1e8(%rbp)
    b704:	ff ff ff ff 
    b708:	48 c7 85 20 fe ff ff 	movq   $0xfffffffffffffffb,-0x1e0(%rbp)
    b70f:	fb ff ff ff 
    b713:	48 c7 85 28 fe ff ff 	movq   $0xffffffffffffffff,-0x1d8(%rbp)
    b71a:	ff ff ff ff 
    b71e:	48 c7 85 30 fe ff ff 	movq   $0xffffffffffffffff,-0x1d0(%rbp)
    b725:	ff ff ff ff 
    b729:	48 c7 85 38 fe ff ff 	movq   $0xfffffffffffffffb,-0x1c8(%rbp)
    b730:	fb ff ff ff 
    b734:	48 c7 85 40 fe ff ff 	movq   $0xffffffffffffffff,-0x1c0(%rbp)
    b73b:	ff ff ff ff 
    b73f:	48 c7 85 48 fe ff ff 	movq   $0xffffffffffffffff,-0x1b8(%rbp)
    b746:	ff ff ff ff 
    b74a:	48 c7 85 50 fe ff ff 	movq   $0xfffffffffffffffb,-0x1b0(%rbp)
    b751:	fb ff ff ff 
    b755:	48 c7 85 58 fe ff ff 	movq   $0xffffffffffffffff,-0x1a8(%rbp)
    b75c:	ff ff ff ff 
    b760:	48 c7 85 60 fe ff ff 	movq   $0xffffffffffffffff,-0x1a0(%rbp)
    b767:	ff ff ff ff 
    b76b:	48 c7 85 68 fe ff ff 	movq   $0xfffffffffffffffb,-0x198(%rbp)
    b772:	fb ff ff ff 
    b776:	48 c7 85 70 fe ff ff 	movq   $0xffffffffffffffff,-0x190(%rbp)
    b77d:	ff ff ff ff 
    b781:	48 c7 85 78 fe ff ff 	movq   $0xffffffffffffffff,-0x188(%rbp)
    b788:	ff ff ff ff 
    b78c:	48 c7 85 e0 fa ff ff 	movq   $0x0,-0x520(%rbp)
    b793:	00 00 00 00 
    b797:	48 c7 05 3e 99 00 00 	movq   $0x0,0x993e(%rip)        # 150e0 <g_235>
    b79e:	00 00 00 00 
    b7a2:	e9 f5 00 00 00       	jmpq   b89c <func_12+0xc1c>
    b7a7:	48 b8 93 5f 83 78 79 	movabs $0x948bf17978835f93,%rax
    b7ae:	f1 8b 94 
    b7b1:	48 89 85 60 fb ff ff 	mov    %rax,-0x4a0(%rbp)
    b7b8:	48 c7 85 68 fb ff ff 	movq   $0x1,-0x498(%rbp)
    b7bf:	01 00 00 00 
    b7c3:	48 c7 85 70 fb ff ff 	movq   $0x1,-0x490(%rbp)
    b7ca:	01 00 00 00 
    b7ce:	48 89 85 78 fb ff ff 	mov    %rax,-0x488(%rbp)
    b7d5:	48 c7 85 80 fb ff ff 	movq   $0x7,-0x480(%rbp)
    b7dc:	07 00 00 00 
    b7e0:	48 89 85 88 fb ff ff 	mov    %rax,-0x478(%rbp)
    b7e7:	48 c7 85 90 fb ff ff 	movq   $0x1,-0x470(%rbp)
    b7ee:	01 00 00 00 
    b7f2:	48 c7 85 98 fb ff ff 	movq   $0x1,-0x468(%rbp)
    b7f9:	01 00 00 00 
    b7fd:	48 89 85 a0 fb ff ff 	mov    %rax,-0x460(%rbp)
    b804:	48 c7 85 a8 fb ff ff 	movq   $0x7,-0x458(%rbp)
    b80b:	07 00 00 00 
    b80f:	c7 85 5c fa ff ff 00 	movl   $0x0,-0x5a4(%rbp)
    b816:	00 00 00 
    b819:	c7 85 60 fa ff ff 01 	movl   $0x1,-0x5a0(%rbp)
    b820:	00 00 00 
    b823:	c7 85 64 fa ff ff 09 	movl   $0x9,-0x59c(%rbp)
    b82a:	00 00 00 
    b82d:	c6 85 2e fa ff ff f9 	movb   $0xf9,-0x5d2(%rbp)
    b834:	c7 85 68 fa ff ff 41 	movl   $0xfb597341,-0x598(%rbp)
    b83b:	73 59 fb 
    b83e:	48 8d 05 5b a6 00 00 	lea    0xa65b(%rip),%rax        # 15ea0 <g_1241+0x140>
    b845:	48 89 85 e8 fa ff ff 	mov    %rax,-0x518(%rbp)
    b84c:	c7 85 3c fa ff ff 00 	movl   $0x0,-0x5c4(%rbp)
    b853:	00 00 00 
    b856:	eb 1b                	jmp    b873 <func_12+0xbf3>
    b858:	8b 85 3c fa ff ff    	mov    -0x5c4(%rbp),%eax
    b85e:	48 98                	cltq   
    b860:	48 c7 84 c5 10 fb ff 	movq   $0x0,-0x4f0(%rbp,%rax,8)
    b867:	ff 00 00 00 00 
    b86c:	83 85 3c fa ff ff 01 	addl   $0x1,-0x5c4(%rbp)
    b873:	83 bd 3c fa ff ff 00 	cmpl   $0x0,-0x5c4(%rbp)
    b87a:	7e dc                	jle    b858 <func_12+0xbd8>
    b87c:	48 8b 05 5d 98 00 00 	mov    0x985d(%rip),%rax        # 150e0 <g_235>
    b883:	0f b7 c0             	movzwl %ax,%eax
    b886:	be 03 00 00 00       	mov    $0x3,%esi
    b88b:	89 c7                	mov    %eax,%edi
    b88d:	e8 6d c4 ff ff       	callq  7cff <safe_add_func_uint16_t_u_u>
    b892:	0f b7 c0             	movzwl %ax,%eax
    b895:	48 89 05 44 98 00 00 	mov    %rax,0x9844(%rip)        # 150e0 <g_235>
    b89c:	48 8b 05 3d 98 00 00 	mov    0x983d(%rip),%rax        # 150e0 <g_235>
    b8a3:	48 83 f8 35          	cmp    $0x35,%rax
    b8a7:	0f 86 fa fe ff ff    	jbe    b7a7 <func_12+0xb27>
    b8ad:	48 8b 85 e0 fa ff ff 	mov    -0x520(%rbp),%rax
    b8b4:	48 89 85 b8 fa ff ff 	mov    %rax,-0x548(%rbp)
    b8bb:	48 83 bd c0 fa ff ff 	cmpq   $0x0,-0x540(%rbp)
    b8c2:	00 
    b8c3:	0f 95 c2             	setne  %dl
    b8c6:	48 8b 05 53 cc 00 00 	mov    0xcc53(%rip),%rax        # 18520 <g_1368>
    b8cd:	0f b6 d2             	movzbl %dl,%edx
    b8d0:	89 10                	mov    %edx,(%rax)
    b8d2:	48 c7 85 90 fa ff ff 	movq   $0xffffffffffffffe3,-0x570(%rbp)
    b8d9:	e3 ff ff ff 
    b8dd:	e9 80 00 00 00       	jmpq   b962 <func_12+0xce2>
    b8e2:	48 c7 85 f0 fd ff ff 	movq   $0x1,-0x210(%rbp)
    b8e9:	01 00 00 00 
    b8ed:	48 c7 85 f8 fd ff ff 	movq   $0x6,-0x208(%rbp)
    b8f4:	06 00 00 00 
    b8f8:	48 c7 85 00 fe ff ff 	movq   $0x1,-0x200(%rbp)
    b8ff:	01 00 00 00 
    b903:	48 c7 85 08 fe ff ff 	movq   $0x1,-0x1f8(%rbp)
    b90a:	01 00 00 00 
    b90e:	48 c7 85 10 fe ff ff 	movq   $0x6,-0x1f0(%rbp)
    b915:	06 00 00 00 
    b919:	48 c7 85 18 fe ff ff 	movq   $0x1,-0x1e8(%rbp)
    b920:	01 00 00 00 
    b924:	48 b8 3d fb 22 f2 38 	movabs $0x93289338f222fb3d,%rax
    b92b:	93 28 93 
    b92e:	48 89 85 20 fe ff ff 	mov    %rax,-0x1e0(%rbp)
    b935:	48 8b 85 f8 fd ff ff 	mov    -0x208(%rbp),%rax
    b93c:	48 85 c0             	test   %rax,%rax
    b93f:	75 31                	jne    b972 <func_12+0xcf2>
    b941:	48 8b 85 90 fa ff ff 	mov    -0x570(%rbp),%rax
    b948:	0f be c0             	movsbl %al,%eax
    b94b:	be 06 00 00 00       	mov    $0x6,%esi
    b950:	89 c7                	mov    %eax,%edi
    b952:	e8 7d b8 ff ff       	callq  71d4 <safe_add_func_int8_t_s_s>
    b957:	48 0f be c0          	movsbq %al,%rax
    b95b:	48 89 85 90 fa ff ff 	mov    %rax,-0x570(%rbp)
    b962:	48 83 bd 90 fa ff ff 	cmpq   $0x15,-0x570(%rbp)
    b969:	15 
    b96a:	0f 86 72 ff ff ff    	jbe    b8e2 <func_12+0xc62>
    b970:	eb 01                	jmp    b973 <func_12+0xcf3>
    b972:	90                   	nop
    b973:	48 8b 05 5e cb 00 00 	mov    0xcb5e(%rip),%rax        # 184d8 <g_932>
    b97a:	48 8b 00             	mov    (%rax),%rax
    b97d:	48 8b 00             	mov    (%rax),%rax
    b980:	48 8b 5d e8          	mov    -0x18(%rbp),%rbx
    b984:	64 48 33 1c 25 28 00 	xor    %fs:0x28,%rbx
    b98b:	00 00 
    b98d:	74 05                	je     b994 <func_12+0xd14>
    b98f:	e8 dc b6 ff ff       	callq  7070 <__stack_chk_fail@plt>
    b994:	48 81 c4 e8 05 00 00 	add    $0x5e8,%rsp
    b99b:	5b                   	pop    %rbx
    b99c:	5d                   	pop    %rbp
    b99d:	c3                   	retq   

000000000000b99e <func_19>:
    b99e:	f3 0f 1e fa          	endbr64 
    b9a2:	55                   	push   %rbp
    b9a3:	48 89 e5             	mov    %rsp,%rbp
    b9a6:	41 57                	push   %r15
    b9a8:	41 56                	push   %r14
    b9aa:	41 55                	push   %r13
    b9ac:	41 54                	push   %r12
    b9ae:	53                   	push   %rbx
    b9af:	48 81 ec 00 10 00 00 	sub    $0x1000,%rsp
    b9b6:	48 83 0c 24 00       	orq    $0x0,(%rsp)
    b9bb:	48 81 ec d8 00 00 00 	sub    $0xd8,%rsp
    b9c2:	48 89 bd 18 ef ff ff 	mov    %rdi,-0x10e8(%rbp)
    b9c9:	48 89 b5 10 ef ff ff 	mov    %rsi,-0x10f0(%rbp)
    b9d0:	89 d6                	mov    %edx,%esi
    b9d2:	89 c8                	mov    %ecx,%eax
    b9d4:	44 89 c2             	mov    %r8d,%edx
    b9d7:	89 f1                	mov    %esi,%ecx
    b9d9:	88 8d 0c ef ff ff    	mov    %cl,-0x10f4(%rbp)
    b9df:	66 89 85 08 ef ff ff 	mov    %ax,-0x10f8(%rbp)
    b9e6:	89 d0                	mov    %edx,%eax
    b9e8:	66 89 85 04 ef ff ff 	mov    %ax,-0x10fc(%rbp)
    b9ef:	64 48 8b 04 25 28 00 	mov    %fs:0x28,%rax
    b9f6:	00 00 
    b9f8:	48 89 45 c8          	mov    %rax,-0x38(%rbp)
    b9fc:	31 c0                	xor    %eax,%eax
    b9fe:	48 8d 05 63 d3 00 00 	lea    0xd363(%rip),%rax        # 18d68 <g_30>
    ba05:	48 89 85 c0 ef ff ff 	mov    %rax,-0x1040(%rbp)
    ba0c:	48 8d 05 55 d3 00 00 	lea    0xd355(%rip),%rax        # 18d68 <g_30>
    ba13:	48 89 85 c8 ef ff ff 	mov    %rax,-0x1038(%rbp)
    ba1a:	c7 85 58 ef ff ff a1 	movl   $0xf451dba1,-0x10a8(%rbp)
    ba21:	db 51 f4 
    ba24:	48 8d 05 3d d3 00 00 	lea    0xd33d(%rip),%rax        # 18d68 <g_30>
    ba2b:	48 89 85 d0 ef ff ff 	mov    %rax,-0x1030(%rbp)
    ba32:	48 c7 85 d8 ef ff ff 	movq   $0x0,-0x1028(%rbp)
    ba39:	00 00 00 00 
    ba3d:	48 8d 05 10 96 00 00 	lea    0x9610(%rip),%rax        # 15054 <g_94+0x14>
    ba44:	48 89 85 e0 ef ff ff 	mov    %rax,-0x1020(%rbp)
    ba4b:	66 c7 85 10 f1 ff ff 	movw   $0x1ad9,-0xef0(%rbp)
    ba52:	d9 1a 
    ba54:	66 c7 85 12 f1 ff ff 	movw   $0x1ad9,-0xeee(%rbp)
    ba5b:	d9 1a 
    ba5d:	66 c7 85 14 f1 ff ff 	movw   $0x794c,-0xeec(%rbp)
    ba64:	4c 79 
    ba66:	66 c7 85 16 f1 ff ff 	movw   $0x1ad9,-0xeea(%rbp)
    ba6d:	d9 1a 
    ba6f:	66 c7 85 18 f1 ff ff 	movw   $0x1ad9,-0xee8(%rbp)
    ba76:	d9 1a 
    ba78:	66 c7 85 1a f1 ff ff 	movw   $0x794c,-0xee6(%rbp)
    ba7f:	4c 79 
    ba81:	66 c7 85 1c f1 ff ff 	movw   $0x1ad9,-0xee4(%rbp)
    ba88:	d9 1a 
    ba8a:	66 c7 85 1e f1 ff ff 	movw   $0x1ad9,-0xee2(%rbp)
    ba91:	d9 1a 
    ba93:	66 c7 85 20 f1 ff ff 	movw   $0x794c,-0xee0(%rbp)
    ba9a:	4c 79 
    ba9c:	66 c7 85 22 f1 ff ff 	movw   $0x1ad9,-0xede(%rbp)
    baa3:	d9 1a 
    baa5:	66 c7 85 24 f1 ff ff 	movw   $0x1ad9,-0xedc(%rbp)
    baac:	d9 1a 
    baae:	66 c7 85 26 f1 ff ff 	movw   $0x1b3,-0xeda(%rbp)
    bab5:	b3 01 
    bab7:	66 c7 85 28 f1 ff ff 	movw   $0x1b3,-0xed8(%rbp)
    babe:	b3 01 
    bac0:	66 c7 85 2a f1 ff ff 	movw   $0x1ad9,-0xed6(%rbp)
    bac7:	d9 1a 
    bac9:	66 c7 85 2c f1 ff ff 	movw   $0x1b3,-0xed4(%rbp)
    bad0:	b3 01 
    bad2:	66 c7 85 2e f1 ff ff 	movw   $0x1b3,-0xed2(%rbp)
    bad9:	b3 01 
    badb:	66 c7 85 30 f1 ff ff 	movw   $0x1ad9,-0xed0(%rbp)
    bae2:	d9 1a 
    bae4:	66 c7 85 32 f1 ff ff 	movw   $0x1b3,-0xece(%rbp)
    baeb:	b3 01 
    baed:	66 c7 85 34 f1 ff ff 	movw   $0x1b3,-0xecc(%rbp)
    baf4:	b3 01 
    baf6:	66 c7 85 36 f1 ff ff 	movw   $0x1ad9,-0xeca(%rbp)
    bafd:	d9 1a 
    baff:	66 c7 85 c0 f0 ff ff 	movw   $0x1,-0xf40(%rbp)
    bb06:	01 00 
    bb08:	66 c7 85 c2 f0 ff ff 	movw   $0x1,-0xf3e(%rbp)
    bb0f:	01 00 
    bb11:	66 c7 85 c4 f0 ff ff 	movw   $0x1,-0xf3c(%rbp)
    bb18:	01 00 
    bb1a:	66 c7 85 c6 f0 ff ff 	movw   $0x1,-0xf3a(%rbp)
    bb21:	01 00 
    bb23:	66 c7 85 c8 f0 ff ff 	movw   $0x1,-0xf38(%rbp)
    bb2a:	01 00 
    bb2c:	66 c7 85 ca f0 ff ff 	movw   $0x1,-0xf36(%rbp)
    bb33:	01 00 
    bb35:	66 c7 85 cc f0 ff ff 	movw   $0x1,-0xf34(%rbp)
    bb3c:	01 00 
    bb3e:	66 c7 85 ce f0 ff ff 	movw   $0x1,-0xf32(%rbp)
    bb45:	01 00 
    bb47:	48 c7 85 e8 ef ff ff 	movq   $0x0,-0x1018(%rbp)
    bb4e:	00 00 00 00 
    bb52:	48 8d 05 9f c2 00 00 	lea    0xc29f(%rip),%rax        # 17df8 <g_120+0x8>
    bb59:	48 89 85 80 ef ff ff 	mov    %rax,-0x1080(%rbp)
    bb60:	48 c7 85 f0 ef ff ff 	movq   $0x0,-0x1010(%rbp)
    bb67:	00 00 00 00 
    bb6b:	48 c7 85 f8 ef ff ff 	movq   $0x0,-0x1008(%rbp)
    bb72:	00 00 00 00 
    bb76:	48 8d 05 d3 c8 00 00 	lea    0xc8d3(%rip),%rax        # 18450 <g_575+0x10>
    bb7d:	48 89 85 40 f1 ff ff 	mov    %rax,-0xec0(%rbp)
    bb84:	48 8d 05 f5 c8 00 00 	lea    0xc8f5(%rip),%rax        # 18480 <g_575+0x40>
    bb8b:	48 89 85 48 f1 ff ff 	mov    %rax,-0xeb8(%rbp)
    bb92:	48 8d 05 b7 c8 00 00 	lea    0xc8b7(%rip),%rax        # 18450 <g_575+0x10>
    bb99:	48 89 85 50 f1 ff ff 	mov    %rax,-0xeb0(%rbp)
    bba0:	48 8d 05 d9 c8 00 00 	lea    0xc8d9(%rip),%rax        # 18480 <g_575+0x40>
    bba7:	48 89 85 58 f1 ff ff 	mov    %rax,-0xea8(%rbp)
    bbae:	48 8d 05 9b c8 00 00 	lea    0xc89b(%rip),%rax        # 18450 <g_575+0x10>
    bbb5:	48 89 85 60 f1 ff ff 	mov    %rax,-0xea0(%rbp)
    bbbc:	48 8d 85 f0 f8 ff ff 	lea    -0x710(%rbp),%rax
    bbc3:	48 8d 15 36 b1 00 00 	lea    0xb136(%rip),%rdx        # 16d00 <g_2144+0xd38>
    bbca:	b9 d8 00 00 00       	mov    $0xd8,%ecx
    bbcf:	48 89 c7             	mov    %rax,%rdi
    bbd2:	48 89 d6             	mov    %rdx,%rsi
    bbd5:	f3 48 a5             	rep movsq %ds:(%rsi),%es:(%rdi)
    bbd8:	48 8d 05 29 c9 00 00 	lea    0xc929(%rip),%rax        # 18508 <g_1277>
    bbdf:	48 89 85 88 ef ff ff 	mov    %rax,-0x1078(%rbp)
    bbe6:	48 c7 85 90 ef ff ff 	movq   $0x0,-0x1070(%rbp)
    bbed:	00 00 00 00 
    bbf1:	48 8d 85 90 ef ff ff 	lea    -0x1070(%rbp),%rax
    bbf8:	48 89 85 98 ef ff ff 	mov    %rax,-0x1068(%rbp)
    bbff:	48 8d 85 98 ef ff ff 	lea    -0x1068(%rbp),%rax
    bc06:	48 89 85 60 f2 ff ff 	mov    %rax,-0xda0(%rbp)
    bc0d:	48 8d 85 98 ef ff ff 	lea    -0x1068(%rbp),%rax
    bc14:	48 89 85 68 f2 ff ff 	mov    %rax,-0xd98(%rbp)
    bc1b:	48 8d 85 98 ef ff ff 	lea    -0x1068(%rbp),%rax
    bc22:	48 89 85 70 f2 ff ff 	mov    %rax,-0xd90(%rbp)
    bc29:	48 8d 85 98 ef ff ff 	lea    -0x1068(%rbp),%rax
    bc30:	48 89 85 78 f2 ff ff 	mov    %rax,-0xd88(%rbp)
    bc37:	48 8d 85 98 ef ff ff 	lea    -0x1068(%rbp),%rax
    bc3e:	48 89 85 80 f2 ff ff 	mov    %rax,-0xd80(%rbp)
    bc45:	48 8d 85 98 ef ff ff 	lea    -0x1068(%rbp),%rax
    bc4c:	48 89 85 88 f2 ff ff 	mov    %rax,-0xd78(%rbp)
    bc53:	48 c7 85 90 f2 ff ff 	movq   $0x0,-0xd70(%rbp)
    bc5a:	00 00 00 00 
    bc5e:	48 8d 85 98 ef ff ff 	lea    -0x1068(%rbp),%rax
    bc65:	48 89 85 98 f2 ff ff 	mov    %rax,-0xd68(%rbp)
    bc6c:	48 8d 85 98 ef ff ff 	lea    -0x1068(%rbp),%rax
    bc73:	48 89 85 a0 f2 ff ff 	mov    %rax,-0xd60(%rbp)
    bc7a:	48 8d 85 98 ef ff ff 	lea    -0x1068(%rbp),%rax
    bc81:	48 89 85 a8 f2 ff ff 	mov    %rax,-0xd58(%rbp)
    bc88:	48 8d 85 98 ef ff ff 	lea    -0x1068(%rbp),%rax
    bc8f:	48 89 85 b0 f2 ff ff 	mov    %rax,-0xd50(%rbp)
    bc96:	48 8d 85 98 ef ff ff 	lea    -0x1068(%rbp),%rax
    bc9d:	48 89 85 b8 f2 ff ff 	mov    %rax,-0xd48(%rbp)
    bca4:	48 8d 85 98 ef ff ff 	lea    -0x1068(%rbp),%rax
    bcab:	48 89 85 c0 f2 ff ff 	mov    %rax,-0xd40(%rbp)
    bcb2:	48 c7 85 c8 f2 ff ff 	movq   $0x0,-0xd38(%rbp)
    bcb9:	00 00 00 00 
    bcbd:	48 8d 85 98 ef ff ff 	lea    -0x1068(%rbp),%rax
    bcc4:	48 89 85 d0 f2 ff ff 	mov    %rax,-0xd30(%rbp)
    bccb:	48 8d 85 98 ef ff ff 	lea    -0x1068(%rbp),%rax
    bcd2:	48 89 85 d8 f2 ff ff 	mov    %rax,-0xd28(%rbp)
    bcd9:	48 8d 85 98 ef ff ff 	lea    -0x1068(%rbp),%rax
    bce0:	48 89 85 e0 f2 ff ff 	mov    %rax,-0xd20(%rbp)
    bce7:	48 8d 85 98 ef ff ff 	lea    -0x1068(%rbp),%rax
    bcee:	48 89 85 e8 f2 ff ff 	mov    %rax,-0xd18(%rbp)
    bcf5:	48 8d 85 98 ef ff ff 	lea    -0x1068(%rbp),%rax
    bcfc:	48 89 85 f0 f2 ff ff 	mov    %rax,-0xd10(%rbp)
    bd03:	48 8d 85 98 ef ff ff 	lea    -0x1068(%rbp),%rax
    bd0a:	48 89 85 f8 f2 ff ff 	mov    %rax,-0xd08(%rbp)
    bd11:	48 8d 85 98 ef ff ff 	lea    -0x1068(%rbp),%rax
    bd18:	48 89 85 00 f3 ff ff 	mov    %rax,-0xd00(%rbp)
    bd1f:	48 8d 85 98 ef ff ff 	lea    -0x1068(%rbp),%rax
    bd26:	48 89 85 08 f3 ff ff 	mov    %rax,-0xcf8(%rbp)
    bd2d:	48 8d 85 98 ef ff ff 	lea    -0x1068(%rbp),%rax
    bd34:	48 89 85 10 f3 ff ff 	mov    %rax,-0xcf0(%rbp)
    bd3b:	48 8d 85 98 ef ff ff 	lea    -0x1068(%rbp),%rax
    bd42:	48 89 85 18 f3 ff ff 	mov    %rax,-0xce8(%rbp)
    bd49:	48 c7 85 20 f3 ff ff 	movq   $0x0,-0xce0(%rbp)
    bd50:	00 00 00 00 
    bd54:	48 8d 85 98 ef ff ff 	lea    -0x1068(%rbp),%rax
    bd5b:	48 89 85 28 f3 ff ff 	mov    %rax,-0xcd8(%rbp)
    bd62:	48 c7 85 30 f3 ff ff 	movq   $0x0,-0xcd0(%rbp)
    bd69:	00 00 00 00 
    bd6d:	48 8d 85 98 ef ff ff 	lea    -0x1068(%rbp),%rax
    bd74:	48 89 85 38 f3 ff ff 	mov    %rax,-0xcc8(%rbp)
    bd7b:	48 8d 85 98 ef ff ff 	lea    -0x1068(%rbp),%rax
    bd82:	48 89 85 40 f3 ff ff 	mov    %rax,-0xcc0(%rbp)
    bd89:	48 8d 85 98 ef ff ff 	lea    -0x1068(%rbp),%rax
    bd90:	48 89 85 48 f3 ff ff 	mov    %rax,-0xcb8(%rbp)
    bd97:	48 8d 85 98 ef ff ff 	lea    -0x1068(%rbp),%rax
    bd9e:	48 89 85 50 f3 ff ff 	mov    %rax,-0xcb0(%rbp)
    bda5:	48 c7 85 58 f3 ff ff 	movq   $0x0,-0xca8(%rbp)
    bdac:	00 00 00 00 
    bdb0:	48 c7 85 60 f3 ff ff 	movq   $0x0,-0xca0(%rbp)
    bdb7:	00 00 00 00 
    bdbb:	48 8d 85 98 ef ff ff 	lea    -0x1068(%rbp),%rax
    bdc2:	48 89 85 68 f3 ff ff 	mov    %rax,-0xc98(%rbp)
    bdc9:	48 8d 85 98 ef ff ff 	lea    -0x1068(%rbp),%rax
    bdd0:	48 89 85 70 f3 ff ff 	mov    %rax,-0xc90(%rbp)
    bdd7:	48 8d 85 98 ef ff ff 	lea    -0x1068(%rbp),%rax
    bdde:	48 89 85 78 f3 ff ff 	mov    %rax,-0xc88(%rbp)
    bde5:	48 8d 85 98 ef ff ff 	lea    -0x1068(%rbp),%rax
    bdec:	48 89 85 80 f3 ff ff 	mov    %rax,-0xc80(%rbp)
    bdf3:	48 8d 85 98 ef ff ff 	lea    -0x1068(%rbp),%rax
    bdfa:	48 89 85 88 f3 ff ff 	mov    %rax,-0xc78(%rbp)
    be01:	48 8d 85 98 ef ff ff 	lea    -0x1068(%rbp),%rax
    be08:	48 89 85 90 f3 ff ff 	mov    %rax,-0xc70(%rbp)
    be0f:	48 8d 85 98 ef ff ff 	lea    -0x1068(%rbp),%rax
    be16:	48 89 85 98 f3 ff ff 	mov    %rax,-0xc68(%rbp)
    be1d:	48 8d 85 98 ef ff ff 	lea    -0x1068(%rbp),%rax
    be24:	48 89 85 a0 f3 ff ff 	mov    %rax,-0xc60(%rbp)
    be2b:	48 8d 85 98 ef ff ff 	lea    -0x1068(%rbp),%rax
    be32:	48 89 85 a8 f3 ff ff 	mov    %rax,-0xc58(%rbp)
    be39:	48 8d 85 98 ef ff ff 	lea    -0x1068(%rbp),%rax
    be40:	48 89 85 b0 f3 ff ff 	mov    %rax,-0xc50(%rbp)
    be47:	48 8d 85 98 ef ff ff 	lea    -0x1068(%rbp),%rax
    be4e:	48 89 85 b8 f3 ff ff 	mov    %rax,-0xc48(%rbp)
    be55:	48 8d 85 98 ef ff ff 	lea    -0x1068(%rbp),%rax
    be5c:	48 89 85 c0 f3 ff ff 	mov    %rax,-0xc40(%rbp)
    be63:	48 8d 85 98 ef ff ff 	lea    -0x1068(%rbp),%rax
    be6a:	48 89 85 c8 f3 ff ff 	mov    %rax,-0xc38(%rbp)
    be71:	48 8d 85 98 ef ff ff 	lea    -0x1068(%rbp),%rax
    be78:	48 89 85 d0 f3 ff ff 	mov    %rax,-0xc30(%rbp)
    be7f:	48 8d 85 98 ef ff ff 	lea    -0x1068(%rbp),%rax
    be86:	48 89 85 d8 f3 ff ff 	mov    %rax,-0xc28(%rbp)
    be8d:	c7 85 34 ef ff ff 00 	movl   $0x0,-0x10cc(%rbp)
    be94:	00 00 00 
    be97:	eb 46                	jmp    bedf <func_19+0x541>
    be99:	c7 85 38 ef ff ff 00 	movl   $0x0,-0x10c8(%rbp)
    bea0:	00 00 00 
    bea3:	eb 2a                	jmp    becf <func_19+0x531>
    bea5:	8b 85 38 ef ff ff    	mov    -0x10c8(%rbp),%eax
    beab:	48 63 d0             	movslq %eax,%rdx
    beae:	8b 85 34 ef ff ff    	mov    -0x10cc(%rbp),%eax
    beb4:	48 98                	cltq   
    beb6:	48 01 d0             	add    %rdx,%rax
    beb9:	48 8d 15 a8 ce 00 00 	lea    0xcea8(%rip),%rdx        # 18d68 <g_30>
    bec0:	48 89 94 c5 70 f1 ff 	mov    %rdx,-0xe90(%rbp,%rax,8)
    bec7:	ff 
    bec8:	83 85 38 ef ff ff 01 	addl   $0x1,-0x10c8(%rbp)
    becf:	83 bd 38 ef ff ff 00 	cmpl   $0x0,-0x10c8(%rbp)
    bed6:	7e cd                	jle    bea5 <func_19+0x507>
    bed8:	83 85 34 ef ff ff 01 	addl   $0x1,-0x10cc(%rbp)
    bedf:	83 bd 34 ef ff ff 05 	cmpl   $0x5,-0x10cc(%rbp)
    bee6:	7e b1                	jle    be99 <func_19+0x4fb>
    bee8:	c7 85 34 ef ff ff 00 	movl   $0x0,-0x10cc(%rbp)
    beef:	00 00 00 
    bef2:	eb 14                	jmp    bf08 <func_19+0x56a>
    bef4:	8b 85 34 ef ff ff    	mov    -0x10cc(%rbp),%eax
    befa:	48 98                	cltq   
    befc:	c6 44 05 be 37       	movb   $0x37,-0x42(%rbp,%rax,1)
    bf01:	83 85 34 ef ff ff 01 	addl   $0x1,-0x10cc(%rbp)
    bf08:	83 bd 34 ef ff ff 09 	cmpl   $0x9,-0x10cc(%rbp)
    bf0f:	7e e3                	jle    bef4 <func_19+0x556>
    bf11:	0f b6 45 c1          	movzbl -0x3f(%rbp),%eax
    bf15:	83 e8 01             	sub    $0x1,%eax
    bf18:	88 45 c1             	mov    %al,-0x3f(%rbp)
    bf1b:	66 c7 85 08 ef ff ff 	movw   $0x9,-0x10f8(%rbp)
    bf22:	09 00 
    bf24:	e9 17 04 00 00       	jmpq   c340 <func_19+0x9a2>
    bf29:	48 c7 85 68 f0 ff ff 	movq   $0x0,-0xf98(%rbp)
    bf30:	00 00 00 00 
    bf34:	48 8d 05 e9 90 00 00 	lea    0x90e9(%rip),%rax        # 15024 <g_57>
    bf3b:	48 89 85 70 f0 ff ff 	mov    %rax,-0xf90(%rbp)
    bf42:	48 8d 05 23 ce 00 00 	lea    0xce23(%rip),%rax        # 18d6c <g_81>
    bf49:	48 89 85 78 f0 ff ff 	mov    %rax,-0xf88(%rbp)
    bf50:	c7 85 64 ef ff ff 20 	movl   $0xbddf9c20,-0x109c(%rbp)
    bf57:	9c df bd 
    bf5a:	48 c7 85 80 f0 ff ff 	movq   $0x0,-0xf80(%rbp)
    bf61:	00 00 00 00 
    bf65:	48 8d 05 2c be 00 00 	lea    0xbe2c(%rip),%rax        # 17d98 <g_29+0x38>
    bf6c:	48 89 85 88 f0 ff ff 	mov    %rax,-0xf78(%rbp)
    bf73:	c7 85 d0 f0 ff ff 06 	movl   $0x6,-0xf30(%rbp)
    bf7a:	00 00 00 
    bf7d:	c7 85 d4 f0 ff ff 06 	movl   $0x6,-0xf2c(%rbp)
    bf84:	00 00 00 
    bf87:	c7 85 d8 f0 ff ff 06 	movl   $0x6,-0xf28(%rbp)
    bf8e:	00 00 00 
    bf91:	c7 85 dc f0 ff ff 06 	movl   $0x6,-0xf24(%rbp)
    bf98:	00 00 00 
    bf9b:	c7 85 e0 f0 ff ff 06 	movl   $0x6,-0xf20(%rbp)
    bfa2:	00 00 00 
    bfa5:	48 8d 05 e4 94 00 00 	lea    0x94e4(%rip),%rax        # 15490 <g_586>
    bfac:	48 89 85 90 f0 ff ff 	mov    %rax,-0xf70(%rbp)
    bfb3:	48 b8 00 8a e9 d0 e2 	movabs $0xe00302e2d0e98a00,%rax
    bfba:	02 03 e0 
    bfbd:	48 89 85 98 f0 ff ff 	mov    %rax,-0xf68(%rbp)
    bfc4:	66 c7 45 bb 32 32    	movw   $0x3232,-0x45(%rbp)
    bfca:	c6 45 bd 32          	movb   $0x32,-0x43(%rbp)
    bfce:	48 c7 85 a0 f0 ff ff 	movq   $0x0,-0xf60(%rbp)
    bfd5:	00 00 00 00 
    bfd9:	66 c7 85 32 ef ff ff 	movw   $0x1842,-0x10ce(%rbp)
    bfe0:	42 18 
    bfe2:	48 8d 05 ff be 00 00 	lea    0xbeff(%rip),%rax        # 17ee8 <g_211+0x68>
    bfe9:	48 89 85 10 f2 ff ff 	mov    %rax,-0xdf0(%rbp)
    bff0:	48 8d 05 f1 be 00 00 	lea    0xbef1(%rip),%rax        # 17ee8 <g_211+0x68>
    bff7:	48 89 85 18 f2 ff ff 	mov    %rax,-0xde8(%rbp)
    bffe:	48 c7 85 20 f2 ff ff 	movq   $0x0,-0xde0(%rbp)
    c005:	00 00 00 00 
    c009:	48 8d 05 78 be 00 00 	lea    0xbe78(%rip),%rax        # 17e88 <g_211+0x8>
    c010:	48 89 85 28 f2 ff ff 	mov    %rax,-0xdd8(%rbp)
    c017:	48 c7 85 30 f2 ff ff 	movq   $0x0,-0xdd0(%rbp)
    c01e:	00 00 00 00 
    c022:	48 8d 05 bf be 00 00 	lea    0xbebf(%rip),%rax        # 17ee8 <g_211+0x68>
    c029:	48 89 85 38 f2 ff ff 	mov    %rax,-0xdc8(%rbp)
    c030:	48 8d 05 b1 be 00 00 	lea    0xbeb1(%rip),%rax        # 17ee8 <g_211+0x68>
    c037:	48 89 85 40 f2 ff ff 	mov    %rax,-0xdc0(%rbp)
    c03e:	48 c7 85 48 f2 ff ff 	movq   $0x0,-0xdb8(%rbp)
    c045:	00 00 00 00 
    c049:	48 8d 05 38 be 00 00 	lea    0xbe38(%rip),%rax        # 17e88 <g_211+0x8>
    c050:	48 89 85 50 f2 ff ff 	mov    %rax,-0xdb0(%rbp)
    c057:	48 c7 85 58 f2 ff ff 	movq   $0x0,-0xda8(%rbp)
    c05e:	00 00 00 00 
    c062:	c6 85 2d ef ff ff 2c 	movb   $0x2c,-0x10d3(%rbp)
    c069:	66 c7 85 d0 f1 ff ff 	movw   $0x1,-0xe30(%rbp)
    c070:	01 00 
    c072:	66 c7 85 d2 f1 ff ff 	movw   $0x1a5f,-0xe2e(%rbp)
    c079:	5f 1a 
    c07b:	66 c7 85 d4 f1 ff ff 	movw   $0x6,-0xe2c(%rbp)
    c082:	06 00 
    c084:	66 c7 85 d6 f1 ff ff 	movw   $0xffff,-0xe2a(%rbp)
    c08b:	ff ff 
    c08d:	66 c7 85 d8 f1 ff ff 	movw   $0x1a5f,-0xe28(%rbp)
    c094:	5f 1a 
    c096:	66 c7 85 da f1 ff ff 	movw   $0x1,-0xe26(%rbp)
    c09d:	01 00 
    c09f:	66 c7 85 dc f1 ff ff 	movw   $0x58b,-0xe24(%rbp)
    c0a6:	8b 05 
    c0a8:	66 c7 85 de f1 ff ff 	movw   $0xf85a,-0xe22(%rbp)
    c0af:	5a f8 
    c0b1:	66 c7 85 e0 f1 ff ff 	movw   $0x1,-0xe20(%rbp)
    c0b8:	01 00 
    c0ba:	66 c7 85 e2 f1 ff ff 	movw   $0xdbdc,-0xe1e(%rbp)
    c0c1:	dc db 
    c0c3:	66 c7 85 e4 f1 ff ff 	movw   $0x58b,-0xe1c(%rbp)
    c0ca:	8b 05 
    c0cc:	66 c7 85 e6 f1 ff ff 	movw   $0x58b,-0xe1a(%rbp)
    c0d3:	8b 05 
    c0d5:	66 c7 85 e8 f1 ff ff 	movw   $0x58b,-0xe18(%rbp)
    c0dc:	8b 05 
    c0de:	66 c7 85 ea f1 ff ff 	movw   $0xfffd,-0xe16(%rbp)
    c0e5:	fd ff 
    c0e7:	66 c7 85 ec f1 ff ff 	movw   $0xb177,-0xe14(%rbp)
    c0ee:	77 b1 
    c0f0:	66 c7 85 ee f1 ff ff 	movw   $0xffff,-0xe12(%rbp)
    c0f7:	ff ff 
    c0f9:	66 c7 85 f0 f1 ff ff 	movw   $0xba0c,-0xe10(%rbp)
    c100:	0c ba 
    c102:	66 c7 85 f2 f1 ff ff 	movw   $0xb177,-0xe0e(%rbp)
    c109:	77 b1 
    c10b:	66 c7 85 f4 f1 ff ff 	movw   $0x1,-0xe0c(%rbp)
    c112:	01 00 
    c114:	66 c7 85 f6 f1 ff ff 	movw   $0xb177,-0xe0a(%rbp)
    c11b:	77 b1 
    c11d:	66 c7 85 f8 f1 ff ff 	movw   $0x58b,-0xe08(%rbp)
    c124:	8b 05 
    c126:	66 c7 85 fa f1 ff ff 	movw   $0x0,-0xe06(%rbp)
    c12d:	00 00 
    c12f:	66 c7 85 fc f1 ff ff 	movw   $0x1,-0xe04(%rbp)
    c136:	01 00 
    c138:	66 c7 85 fe f1 ff ff 	movw   $0x1,-0xe02(%rbp)
    c13f:	01 00 
    c141:	66 c7 85 00 f2 ff ff 	movw   $0xb177,-0xe00(%rbp)
    c148:	77 b1 
    c14a:	66 c7 85 02 f2 ff ff 	movw   $0xb177,-0xdfe(%rbp)
    c151:	77 b1 
    c153:	66 c7 85 04 f2 ff ff 	movw   $0x1,-0xdfc(%rbp)
    c15a:	01 00 
    c15c:	66 c7 85 06 f2 ff ff 	movw   $0xf85a,-0xdfa(%rbp)
    c163:	5a f8 
    c165:	66 c7 85 08 f2 ff ff 	movw   $0xba0c,-0xdf8(%rbp)
    c16c:	0c ba 
    c16e:	66 c7 85 0a f2 ff ff 	movw   $0x6,-0xdf6(%rbp)
    c175:	06 00 
    c177:	48 8d 05 22 8f 00 00 	lea    0x8f22(%rip),%rax        # 150a0 <g_113>
    c17e:	48 89 85 a8 f0 ff ff 	mov    %rax,-0xf58(%rbp)
    c185:	48 c7 85 b0 f0 ff ff 	movq   $0x0,-0xf50(%rbp)
    c18c:	00 00 00 00 
    c190:	48 8d 05 89 c2 00 00 	lea    0xc289(%rip),%rax        # 18420 <g_272>
    c197:	48 89 85 b0 ef ff ff 	mov    %rax,-0x1050(%rbp)
    c19e:	48 8d 85 b0 ef ff ff 	lea    -0x1050(%rbp),%rax
    c1a5:	48 89 85 a0 f1 ff ff 	mov    %rax,-0xe60(%rbp)
    c1ac:	48 8d 85 b0 ef ff ff 	lea    -0x1050(%rbp),%rax
    c1b3:	48 89 85 a8 f1 ff ff 	mov    %rax,-0xe58(%rbp)
    c1ba:	48 8d 85 b0 ef ff ff 	lea    -0x1050(%rbp),%rax
    c1c1:	48 89 85 b0 f1 ff ff 	mov    %rax,-0xe50(%rbp)
    c1c8:	48 8d 85 b0 ef ff ff 	lea    -0x1050(%rbp),%rax
    c1cf:	48 89 85 b8 f1 ff ff 	mov    %rax,-0xe48(%rbp)
    c1d6:	48 8d 85 b0 ef ff ff 	lea    -0x1050(%rbp),%rax
    c1dd:	48 89 85 c0 f1 ff ff 	mov    %rax,-0xe40(%rbp)
    c1e4:	48 8d 85 b0 ef ff ff 	lea    -0x1050(%rbp),%rax
    c1eb:	48 89 85 c8 f1 ff ff 	mov    %rax,-0xe38(%rbp)
    c1f2:	c6 85 2e ef ff ff f1 	movb   $0xf1,-0x10d2(%rbp)
    c1f9:	48 b8 c3 99 56 f1 bc 	movabs $0x483397bcf15699c3,%rax
    c200:	97 33 48 
    c203:	48 89 85 b8 f0 ff ff 	mov    %rax,-0xf48(%rbp)
    c20a:	c7 85 68 ef ff ff ff 	movl   $0xffffffff,-0x1098(%rbp)
    c211:	ff ff ff 
    c214:	c7 85 6c ef ff ff 0b 	movl   $0xbe2a520b,-0x1094(%rbp)
    c21b:	52 2a be 
    c21e:	c7 85 70 ef ff ff a0 	movl   $0x8ffec5a0,-0x1090(%rbp)
    c225:	c5 fe 8f 
    c228:	c7 85 74 ef ff ff 00 	movl   $0x0,-0x108c(%rbp)
    c22f:	00 00 00 
    c232:	c7 85 78 ef ff ff bd 	movl   $0x3f48acbd,-0x1088(%rbp)
    c239:	ac 48 3f 
    c23c:	c7 85 f0 f0 ff ff f7 	movl   $0x582ff1f7,-0xf10(%rbp)
    c243:	f1 2f 58 
    c246:	c7 85 f4 f0 ff ff e5 	movl   $0x75303fe5,-0xf0c(%rbp)
    c24d:	3f 30 75 
    c250:	c7 85 f8 f0 ff ff f7 	movl   $0x582ff1f7,-0xf08(%rbp)
    c257:	f1 2f 58 
    c25a:	c7 85 fc f0 ff ff f7 	movl   $0x582ff1f7,-0xf04(%rbp)
    c261:	f1 2f 58 
    c264:	c7 85 00 f1 ff ff e5 	movl   $0x75303fe5,-0xf00(%rbp)
    c26b:	3f 30 75 
    c26e:	c7 85 04 f1 ff ff f7 	movl   $0x582ff1f7,-0xefc(%rbp)
    c275:	f1 2f 58 
    c278:	c6 85 2f ef ff ff ff 	movb   $0xff,-0x10d1(%rbp)
    c27f:	c7 85 7c ef ff ff db 	movl   $0x8a8522db,-0x1084(%rbp)
    c286:	22 85 8a 
    c289:	c7 85 3c ef ff ff 00 	movl   $0x0,-0x10c4(%rbp)
    c290:	00 00 00 
    c293:	e9 8a 00 00 00       	jmpq   c322 <func_19+0x984>
    c298:	c7 85 40 ef ff ff 00 	movl   $0x0,-0x10c0(%rbp)
    c29f:	00 00 00 
    c2a2:	eb 6e                	jmp    c312 <func_19+0x974>
    c2a4:	c7 85 44 ef ff ff 00 	movl   $0x0,-0x10bc(%rbp)
    c2ab:	00 00 00 
    c2ae:	eb 52                	jmp    c302 <func_19+0x964>
    c2b0:	8b 85 44 ef ff ff    	mov    -0x10bc(%rbp),%eax
    c2b6:	48 63 f0             	movslq %eax,%rsi
    c2b9:	8b 85 3c ef ff ff    	mov    -0x10c4(%rbp),%eax
    c2bf:	48 63 d0             	movslq %eax,%rdx
    c2c2:	8b 85 40 ef ff ff    	mov    -0x10c0(%rbp),%eax
    c2c8:	48 63 c8             	movslq %eax,%rcx
    c2cb:	48 89 d0             	mov    %rdx,%rax
    c2ce:	48 c1 e0 04          	shl    $0x4,%rax
    c2d2:	48 29 d0             	sub    %rdx,%rax
    c2d5:	48 01 c0             	add    %rax,%rax
    c2d8:	48 89 ca             	mov    %rcx,%rdx
    c2db:	48 c1 e2 02          	shl    $0x2,%rdx
    c2df:	48 01 ca             	add    %rcx,%rdx
    c2e2:	48 01 d0             	add    %rdx,%rax
    c2e5:	48 01 f0             	add    %rsi,%rax
    c2e8:	48 8d 95 10 f2 ff ff 	lea    -0xdf0(%rbp),%rdx
    c2ef:	48 83 c2 48          	add    $0x48,%rdx
    c2f3:	48 89 94 c5 e0 f3 ff 	mov    %rdx,-0xc20(%rbp,%rax,8)
    c2fa:	ff 
    c2fb:	83 85 44 ef ff ff 01 	addl   $0x1,-0x10bc(%rbp)
    c302:	83 bd 44 ef ff ff 04 	cmpl   $0x4,-0x10bc(%rbp)
    c309:	7e a5                	jle    c2b0 <func_19+0x912>
    c30b:	83 85 40 ef ff ff 01 	addl   $0x1,-0x10c0(%rbp)
    c312:	83 bd 40 ef ff ff 05 	cmpl   $0x5,-0x10c0(%rbp)
    c319:	7e 89                	jle    c2a4 <func_19+0x906>
    c31b:	83 85 3c ef ff ff 01 	addl   $0x1,-0x10c4(%rbp)
    c322:	83 bd 3c ef ff ff 01 	cmpl   $0x1,-0x10c4(%rbp)
    c329:	0f 8e 69 ff ff ff    	jle    c298 <func_19+0x8fa>
    c32f:	0f b7 85 08 ef ff ff 	movzwl -0x10f8(%rbp),%eax
    c336:	83 e8 01             	sub    $0x1,%eax
    c339:	66 89 85 08 ef ff ff 	mov    %ax,-0x10f8(%rbp)
    c340:	66 83 bd 08 ef ff ff 	cmpw   $0xfff4,-0x10f8(%rbp)
    c347:	f4 
    c348:	0f 8c db fb ff ff    	jl     bf29 <func_19+0x58b>
    c34e:	c7 05 b0 98 00 00 00 	movl   $0x0,0x98b0(%rip)        # 15c08 <g_1085>
    c355:	00 00 00 
    c358:	e9 fe 15 00 00       	jmpq   d95b <func_19+0x1fbd>
    c35d:	c7 85 48 ef ff ff 01 	movl   $0x1,-0x10b8(%rbp)
    c364:	00 00 00 
    c367:	48 8d 05 7a 98 00 00 	lea    0x987a(%rip),%rax        # 15be8 <g_976>
    c36e:	48 89 85 d0 f1 ff ff 	mov    %rax,-0xe30(%rbp)
    c375:	48 8d 05 6c 98 00 00 	lea    0x986c(%rip),%rax        # 15be8 <g_976>
    c37c:	48 89 85 d8 f1 ff ff 	mov    %rax,-0xe28(%rbp)
    c383:	48 8d 05 5e 98 00 00 	lea    0x985e(%rip),%rax        # 15be8 <g_976>
    c38a:	48 89 85 e0 f1 ff ff 	mov    %rax,-0xe20(%rbp)
    c391:	48 8d 05 50 98 00 00 	lea    0x9850(%rip),%rax        # 15be8 <g_976>
    c398:	48 89 85 e8 f1 ff ff 	mov    %rax,-0xe18(%rbp)
    c39f:	48 8d 05 42 98 00 00 	lea    0x9842(%rip),%rax        # 15be8 <g_976>
    c3a6:	48 89 85 f0 f1 ff ff 	mov    %rax,-0xe10(%rbp)
    c3ad:	48 8d 05 34 98 00 00 	lea    0x9834(%rip),%rax        # 15be8 <g_976>
    c3b4:	48 89 85 f8 f1 ff ff 	mov    %rax,-0xe08(%rbp)
    c3bb:	48 8d 05 3e ba 00 00 	lea    0xba3e(%rip),%rax        # 17e00 <g_120+0x10>
    c3c2:	48 89 85 00 f0 ff ff 	mov    %rax,-0x1000(%rbp)
    c3c9:	48 8b 15 e8 c0 00 00 	mov    0xc0e8(%rip),%rdx        # 184b8 <g_826>
    c3d0:	48 8b 85 80 ef ff ff 	mov    -0x1080(%rbp),%rax
    c3d7:	48 8b 00             	mov    (%rax),%rax
    c3da:	48 8b 12             	mov    (%rdx),%rdx
    c3dd:	48 89 10             	mov    %rdx,(%rax)
    c3e0:	81 bd 48 ef ff ff 8a 	cmpl   $0x8a,-0x10b8(%rbp)
    c3e7:	00 00 00 
    c3ea:	7e 07                	jle    c3f3 <func_19+0xa55>
    c3ec:	ba 8a 5d 00 00       	mov    $0x5d8a,%edx
    c3f1:	eb 05                	jmp    c3f8 <func_19+0xa5a>
    c3f3:	ba 8b 5d 00 00       	mov    $0x5d8b,%edx
    c3f8:	48 8b 05 21 c0 00 00 	mov    0xc021(%rip),%rax        # 18420 <g_272>
    c3ff:	66 89 10             	mov    %dx,(%rax)
    c402:	0f b7 00             	movzwl (%rax),%eax
    c405:	0f bf d0             	movswl %ax,%edx
    c408:	0f bf 85 04 ef ff ff 	movswl -0x10fc(%rbp),%eax
    c40f:	89 d6                	mov    %edx,%esi
    c411:	89 c7                	mov    %eax,%edi
    c413:	e8 fe af ff ff       	callq  7416 <safe_mod_func_int16_t_s_s>
    c418:	0f bf d0             	movswl %ax,%edx
    c41b:	48 8b 85 c8 ef ff ff 	mov    -0x1038(%rbp),%rax
    c422:	89 10                	mov    %edx,(%rax)
    c424:	48 8b 85 c8 ef ff ff 	mov    -0x1038(%rbp),%rax
    c42b:	8b 00                	mov    (%rax),%eax
    c42d:	89 85 48 ef ff ff    	mov    %eax,-0x10b8(%rbp)
    c433:	48 8b 05 ee bf 00 00 	mov    0xbfee(%rip),%rax        # 18428 <g_289>
    c43a:	48 8b 00             	mov    (%rax),%rax
    c43d:	48 8b 95 80 ef ff ff 	mov    -0x1080(%rbp),%rdx
    c444:	48 8b 1a             	mov    (%rdx),%rbx
    c447:	48 8b 95 18 ef ff ff 	mov    -0x10e8(%rbp),%rdx
    c44e:	48 89 d6             	mov    %rdx,%rsi
    c451:	48 89 c7             	mov    %rax,%rdi
    c454:	e8 40 15 00 00       	callq  d999 <func_25>
    c459:	48 89 03             	mov    %rax,(%rbx)
    c45c:	c7 05 4a 8c 00 00 00 	movl   $0x0,0x8c4a(%rip)        # 150b0 <g_166>
    c463:	00 00 00 
    c466:	e9 d3 14 00 00       	jmpq   d93e <func_19+0x1fa0>
    c46b:	48 c7 85 a0 ef ff ff 	movq   $0x0,-0x1060(%rbp)
    c472:	00 00 00 00 
    c476:	48 8d 85 a0 ef ff ff 	lea    -0x1060(%rbp),%rax
    c47d:	48 89 85 e0 f3 ff ff 	mov    %rax,-0xc20(%rbp)
    c484:	48 8d 85 a0 ef ff ff 	lea    -0x1060(%rbp),%rax
    c48b:	48 89 85 e8 f3 ff ff 	mov    %rax,-0xc18(%rbp)
    c492:	48 8d 85 a0 ef ff ff 	lea    -0x1060(%rbp),%rax
    c499:	48 89 85 f0 f3 ff ff 	mov    %rax,-0xc10(%rbp)
    c4a0:	48 8d 85 a0 ef ff ff 	lea    -0x1060(%rbp),%rax
    c4a7:	48 89 85 f8 f3 ff ff 	mov    %rax,-0xc08(%rbp)
    c4ae:	48 8d 85 a0 ef ff ff 	lea    -0x1060(%rbp),%rax
    c4b5:	48 89 85 00 f4 ff ff 	mov    %rax,-0xc00(%rbp)
    c4bc:	48 8d 85 a0 ef ff ff 	lea    -0x1060(%rbp),%rax
    c4c3:	48 89 85 08 f4 ff ff 	mov    %rax,-0xbf8(%rbp)
    c4ca:	48 8d 85 a0 ef ff ff 	lea    -0x1060(%rbp),%rax
    c4d1:	48 89 85 10 f4 ff ff 	mov    %rax,-0xbf0(%rbp)
    c4d8:	48 c7 85 18 f4 ff ff 	movq   $0x0,-0xbe8(%rbp)
    c4df:	00 00 00 00 
    c4e3:	48 8d 85 a0 ef ff ff 	lea    -0x1060(%rbp),%rax
    c4ea:	48 89 85 20 f4 ff ff 	mov    %rax,-0xbe0(%rbp)
    c4f1:	48 8d 85 a0 ef ff ff 	lea    -0x1060(%rbp),%rax
    c4f8:	48 89 85 28 f4 ff ff 	mov    %rax,-0xbd8(%rbp)
    c4ff:	48 8d 85 a0 ef ff ff 	lea    -0x1060(%rbp),%rax
    c506:	48 89 85 30 f4 ff ff 	mov    %rax,-0xbd0(%rbp)
    c50d:	48 8d 85 a0 ef ff ff 	lea    -0x1060(%rbp),%rax
    c514:	48 89 85 38 f4 ff ff 	mov    %rax,-0xbc8(%rbp)
    c51b:	48 8d 85 a0 ef ff ff 	lea    -0x1060(%rbp),%rax
    c522:	48 89 85 40 f4 ff ff 	mov    %rax,-0xbc0(%rbp)
    c529:	48 8d 85 a0 ef ff ff 	lea    -0x1060(%rbp),%rax
    c530:	48 89 85 48 f4 ff ff 	mov    %rax,-0xbb8(%rbp)
    c537:	48 c7 85 50 f4 ff ff 	movq   $0x0,-0xbb0(%rbp)
    c53e:	00 00 00 00 
    c542:	48 8d 85 a0 ef ff ff 	lea    -0x1060(%rbp),%rax
    c549:	48 89 85 58 f4 ff ff 	mov    %rax,-0xba8(%rbp)
    c550:	48 8d 85 a0 ef ff ff 	lea    -0x1060(%rbp),%rax
    c557:	48 89 85 60 f4 ff ff 	mov    %rax,-0xba0(%rbp)
    c55e:	48 8d 85 a0 ef ff ff 	lea    -0x1060(%rbp),%rax
    c565:	48 89 85 68 f4 ff ff 	mov    %rax,-0xb98(%rbp)
    c56c:	48 8d 85 a0 ef ff ff 	lea    -0x1060(%rbp),%rax
    c573:	48 89 85 70 f4 ff ff 	mov    %rax,-0xb90(%rbp)
    c57a:	48 8d 85 a0 ef ff ff 	lea    -0x1060(%rbp),%rax
    c581:	48 89 85 78 f4 ff ff 	mov    %rax,-0xb88(%rbp)
    c588:	48 8d 85 a0 ef ff ff 	lea    -0x1060(%rbp),%rax
    c58f:	48 89 85 80 f4 ff ff 	mov    %rax,-0xb80(%rbp)
    c596:	48 8d 85 a0 ef ff ff 	lea    -0x1060(%rbp),%rax
    c59d:	48 89 85 88 f4 ff ff 	mov    %rax,-0xb78(%rbp)
    c5a4:	48 8d 85 a0 ef ff ff 	lea    -0x1060(%rbp),%rax
    c5ab:	48 89 85 90 f4 ff ff 	mov    %rax,-0xb70(%rbp)
    c5b2:	48 8d 85 a0 ef ff ff 	lea    -0x1060(%rbp),%rax
    c5b9:	48 89 85 98 f4 ff ff 	mov    %rax,-0xb68(%rbp)
    c5c0:	48 8d 85 a0 ef ff ff 	lea    -0x1060(%rbp),%rax
    c5c7:	48 89 85 a0 f4 ff ff 	mov    %rax,-0xb60(%rbp)
    c5ce:	48 c7 85 a8 f4 ff ff 	movq   $0x0,-0xb58(%rbp)
    c5d5:	00 00 00 00 
    c5d9:	48 8d 85 a0 ef ff ff 	lea    -0x1060(%rbp),%rax
    c5e0:	48 89 85 b0 f4 ff ff 	mov    %rax,-0xb50(%rbp)
    c5e7:	48 8d 85 a0 ef ff ff 	lea    -0x1060(%rbp),%rax
    c5ee:	48 89 85 b8 f4 ff ff 	mov    %rax,-0xb48(%rbp)
    c5f5:	48 c7 85 c0 f4 ff ff 	movq   $0x0,-0xb40(%rbp)
    c5fc:	00 00 00 00 
    c600:	48 8d 85 a0 ef ff ff 	lea    -0x1060(%rbp),%rax
    c607:	48 89 85 c8 f4 ff ff 	mov    %rax,-0xb38(%rbp)
    c60e:	48 8d 85 a0 ef ff ff 	lea    -0x1060(%rbp),%rax
    c615:	48 89 85 d0 f4 ff ff 	mov    %rax,-0xb30(%rbp)
    c61c:	48 8d 85 a0 ef ff ff 	lea    -0x1060(%rbp),%rax
    c623:	48 89 85 d8 f4 ff ff 	mov    %rax,-0xb28(%rbp)
    c62a:	48 8d 85 a0 ef ff ff 	lea    -0x1060(%rbp),%rax
    c631:	48 89 85 e0 f4 ff ff 	mov    %rax,-0xb20(%rbp)
    c638:	48 8d 85 a0 ef ff ff 	lea    -0x1060(%rbp),%rax
    c63f:	48 89 85 e8 f4 ff ff 	mov    %rax,-0xb18(%rbp)
    c646:	48 8d 85 a0 ef ff ff 	lea    -0x1060(%rbp),%rax
    c64d:	48 89 85 f0 f4 ff ff 	mov    %rax,-0xb10(%rbp)
    c654:	48 8d 85 a0 ef ff ff 	lea    -0x1060(%rbp),%rax
    c65b:	48 89 85 f8 f4 ff ff 	mov    %rax,-0xb08(%rbp)
    c662:	48 8d 85 a0 ef ff ff 	lea    -0x1060(%rbp),%rax
    c669:	48 89 85 00 f5 ff ff 	mov    %rax,-0xb00(%rbp)
    c670:	48 8d 85 a0 ef ff ff 	lea    -0x1060(%rbp),%rax
    c677:	48 89 85 08 f5 ff ff 	mov    %rax,-0xaf8(%rbp)
    c67e:	48 8d 85 a0 ef ff ff 	lea    -0x1060(%rbp),%rax
    c685:	48 89 85 10 f5 ff ff 	mov    %rax,-0xaf0(%rbp)
    c68c:	48 8d 85 a0 ef ff ff 	lea    -0x1060(%rbp),%rax
    c693:	48 89 85 18 f5 ff ff 	mov    %rax,-0xae8(%rbp)
    c69a:	48 8d 85 a0 ef ff ff 	lea    -0x1060(%rbp),%rax
    c6a1:	48 89 85 20 f5 ff ff 	mov    %rax,-0xae0(%rbp)
    c6a8:	48 c7 85 28 f5 ff ff 	movq   $0x0,-0xad8(%rbp)
    c6af:	00 00 00 00 
    c6b3:	48 8d 85 a0 ef ff ff 	lea    -0x1060(%rbp),%rax
    c6ba:	48 89 85 30 f5 ff ff 	mov    %rax,-0xad0(%rbp)
    c6c1:	48 c7 85 38 f5 ff ff 	movq   $0x0,-0xac8(%rbp)
    c6c8:	00 00 00 00 
    c6cc:	48 8d 85 a0 ef ff ff 	lea    -0x1060(%rbp),%rax
    c6d3:	48 89 85 40 f5 ff ff 	mov    %rax,-0xac0(%rbp)
    c6da:	48 8d 85 a0 ef ff ff 	lea    -0x1060(%rbp),%rax
    c6e1:	48 89 85 48 f5 ff ff 	mov    %rax,-0xab8(%rbp)
    c6e8:	48 8d 85 a0 ef ff ff 	lea    -0x1060(%rbp),%rax
    c6ef:	48 89 85 50 f5 ff ff 	mov    %rax,-0xab0(%rbp)
    c6f6:	48 8d 85 a0 ef ff ff 	lea    -0x1060(%rbp),%rax
    c6fd:	48 89 85 58 f5 ff ff 	mov    %rax,-0xaa8(%rbp)
    c704:	48 8d 85 a0 ef ff ff 	lea    -0x1060(%rbp),%rax
    c70b:	48 89 85 60 f5 ff ff 	mov    %rax,-0xaa0(%rbp)
    c712:	48 8d 85 a0 ef ff ff 	lea    -0x1060(%rbp),%rax
    c719:	48 89 85 68 f5 ff ff 	mov    %rax,-0xa98(%rbp)
    c720:	48 c7 85 70 f5 ff ff 	movq   $0x0,-0xa90(%rbp)
    c727:	00 00 00 00 
    c72b:	48 8d 85 a0 ef ff ff 	lea    -0x1060(%rbp),%rax
    c732:	48 89 85 78 f5 ff ff 	mov    %rax,-0xa88(%rbp)
    c739:	48 8d 85 a0 ef ff ff 	lea    -0x1060(%rbp),%rax
    c740:	48 89 85 80 f5 ff ff 	mov    %rax,-0xa80(%rbp)
    c747:	48 8d 85 a0 ef ff ff 	lea    -0x1060(%rbp),%rax
    c74e:	48 89 85 88 f5 ff ff 	mov    %rax,-0xa78(%rbp)
    c755:	48 8d 85 a0 ef ff ff 	lea    -0x1060(%rbp),%rax
    c75c:	48 89 85 90 f5 ff ff 	mov    %rax,-0xa70(%rbp)
    c763:	48 8d 85 a0 ef ff ff 	lea    -0x1060(%rbp),%rax
    c76a:	48 89 85 98 f5 ff ff 	mov    %rax,-0xa68(%rbp)
    c771:	48 8d 85 a0 ef ff ff 	lea    -0x1060(%rbp),%rax
    c778:	48 89 85 a0 f5 ff ff 	mov    %rax,-0xa60(%rbp)
    c77f:	48 8d 85 a0 ef ff ff 	lea    -0x1060(%rbp),%rax
    c786:	48 89 85 a8 f5 ff ff 	mov    %rax,-0xa58(%rbp)
    c78d:	48 8d 85 a0 ef ff ff 	lea    -0x1060(%rbp),%rax
    c794:	48 89 85 b0 f5 ff ff 	mov    %rax,-0xa50(%rbp)
    c79b:	48 8d 85 a0 ef ff ff 	lea    -0x1060(%rbp),%rax
    c7a2:	48 89 85 b8 f5 ff ff 	mov    %rax,-0xa48(%rbp)
    c7a9:	48 8d 85 a0 ef ff ff 	lea    -0x1060(%rbp),%rax
    c7b0:	48 89 85 c0 f5 ff ff 	mov    %rax,-0xa40(%rbp)
    c7b7:	48 8d 85 a0 ef ff ff 	lea    -0x1060(%rbp),%rax
    c7be:	48 89 85 c8 f5 ff ff 	mov    %rax,-0xa38(%rbp)
    c7c5:	48 8d 85 a0 ef ff ff 	lea    -0x1060(%rbp),%rax
    c7cc:	48 89 85 d0 f5 ff ff 	mov    %rax,-0xa30(%rbp)
    c7d3:	48 8d 85 a0 ef ff ff 	lea    -0x1060(%rbp),%rax
    c7da:	48 89 85 d8 f5 ff ff 	mov    %rax,-0xa28(%rbp)
    c7e1:	48 8d 85 a0 ef ff ff 	lea    -0x1060(%rbp),%rax
    c7e8:	48 89 85 e0 f5 ff ff 	mov    %rax,-0xa20(%rbp)
    c7ef:	48 8d 85 a0 ef ff ff 	lea    -0x1060(%rbp),%rax
    c7f6:	48 89 85 e8 f5 ff ff 	mov    %rax,-0xa18(%rbp)
    c7fd:	48 8d 85 a0 ef ff ff 	lea    -0x1060(%rbp),%rax
    c804:	48 89 85 f0 f5 ff ff 	mov    %rax,-0xa10(%rbp)
    c80b:	48 8d 85 a0 ef ff ff 	lea    -0x1060(%rbp),%rax
    c812:	48 89 85 f8 f5 ff ff 	mov    %rax,-0xa08(%rbp)
    c819:	48 8d 85 a0 ef ff ff 	lea    -0x1060(%rbp),%rax
    c820:	48 89 85 00 f6 ff ff 	mov    %rax,-0xa00(%rbp)
    c827:	48 8d 85 a0 ef ff ff 	lea    -0x1060(%rbp),%rax
    c82e:	48 89 85 08 f6 ff ff 	mov    %rax,-0x9f8(%rbp)
    c835:	48 8d 85 a0 ef ff ff 	lea    -0x1060(%rbp),%rax
    c83c:	48 89 85 10 f6 ff ff 	mov    %rax,-0x9f0(%rbp)
    c843:	48 8d 85 a0 ef ff ff 	lea    -0x1060(%rbp),%rax
    c84a:	48 89 85 18 f6 ff ff 	mov    %rax,-0x9e8(%rbp)
    c851:	48 8d 85 a0 ef ff ff 	lea    -0x1060(%rbp),%rax
    c858:	48 89 85 20 f6 ff ff 	mov    %rax,-0x9e0(%rbp)
    c85f:	48 8d 85 a0 ef ff ff 	lea    -0x1060(%rbp),%rax
    c866:	48 89 85 28 f6 ff ff 	mov    %rax,-0x9d8(%rbp)
    c86d:	48 8d 85 a0 ef ff ff 	lea    -0x1060(%rbp),%rax
    c874:	48 89 85 30 f6 ff ff 	mov    %rax,-0x9d0(%rbp)
    c87b:	48 8d 85 a0 ef ff ff 	lea    -0x1060(%rbp),%rax
    c882:	48 89 85 38 f6 ff ff 	mov    %rax,-0x9c8(%rbp)
    c889:	48 8d 85 a0 ef ff ff 	lea    -0x1060(%rbp),%rax
    c890:	48 89 85 40 f6 ff ff 	mov    %rax,-0x9c0(%rbp)
    c897:	48 8d 85 a0 ef ff ff 	lea    -0x1060(%rbp),%rax
    c89e:	48 89 85 48 f6 ff ff 	mov    %rax,-0x9b8(%rbp)
    c8a5:	48 8d 85 a0 ef ff ff 	lea    -0x1060(%rbp),%rax
    c8ac:	48 89 85 50 f6 ff ff 	mov    %rax,-0x9b0(%rbp)
    c8b3:	48 8d 85 a0 ef ff ff 	lea    -0x1060(%rbp),%rax
    c8ba:	48 89 85 58 f6 ff ff 	mov    %rax,-0x9a8(%rbp)
    c8c1:	48 8d 85 a0 ef ff ff 	lea    -0x1060(%rbp),%rax
    c8c8:	48 89 85 60 f6 ff ff 	mov    %rax,-0x9a0(%rbp)
    c8cf:	48 8d 85 a0 ef ff ff 	lea    -0x1060(%rbp),%rax
    c8d6:	48 89 85 68 f6 ff ff 	mov    %rax,-0x998(%rbp)
    c8dd:	48 8d 85 a0 ef ff ff 	lea    -0x1060(%rbp),%rax
    c8e4:	48 89 85 70 f6 ff ff 	mov    %rax,-0x990(%rbp)
    c8eb:	48 8d 85 a0 ef ff ff 	lea    -0x1060(%rbp),%rax
    c8f2:	48 89 85 78 f6 ff ff 	mov    %rax,-0x988(%rbp)
    c8f9:	48 8d 85 a0 ef ff ff 	lea    -0x1060(%rbp),%rax
    c900:	48 89 85 80 f6 ff ff 	mov    %rax,-0x980(%rbp)
    c907:	48 8d 85 a0 ef ff ff 	lea    -0x1060(%rbp),%rax
    c90e:	48 89 85 88 f6 ff ff 	mov    %rax,-0x978(%rbp)
    c915:	48 8d 85 a0 ef ff ff 	lea    -0x1060(%rbp),%rax
    c91c:	48 89 85 90 f6 ff ff 	mov    %rax,-0x970(%rbp)
    c923:	48 8d 85 a0 ef ff ff 	lea    -0x1060(%rbp),%rax
    c92a:	48 89 85 98 f6 ff ff 	mov    %rax,-0x968(%rbp)
    c931:	48 8d 85 a0 ef ff ff 	lea    -0x1060(%rbp),%rax
    c938:	48 89 85 a0 f6 ff ff 	mov    %rax,-0x960(%rbp)
    c93f:	48 8d 85 a0 ef ff ff 	lea    -0x1060(%rbp),%rax
    c946:	48 89 85 a8 f6 ff ff 	mov    %rax,-0x958(%rbp)
    c94d:	48 8d 85 a0 ef ff ff 	lea    -0x1060(%rbp),%rax
    c954:	48 89 85 b0 f6 ff ff 	mov    %rax,-0x950(%rbp)
    c95b:	48 8d 85 a0 ef ff ff 	lea    -0x1060(%rbp),%rax
    c962:	48 89 85 b8 f6 ff ff 	mov    %rax,-0x948(%rbp)
    c969:	48 8d 85 a0 ef ff ff 	lea    -0x1060(%rbp),%rax
    c970:	48 89 85 c0 f6 ff ff 	mov    %rax,-0x940(%rbp)
    c977:	48 8d 85 a0 ef ff ff 	lea    -0x1060(%rbp),%rax
    c97e:	48 89 85 c8 f6 ff ff 	mov    %rax,-0x938(%rbp)
    c985:	48 8d 85 a0 ef ff ff 	lea    -0x1060(%rbp),%rax
    c98c:	48 89 85 d0 f6 ff ff 	mov    %rax,-0x930(%rbp)
    c993:	48 c7 85 d8 f6 ff ff 	movq   $0x0,-0x928(%rbp)
    c99a:	00 00 00 00 
    c99e:	48 8d 85 a0 ef ff ff 	lea    -0x1060(%rbp),%rax
    c9a5:	48 89 85 e0 f6 ff ff 	mov    %rax,-0x920(%rbp)
    c9ac:	48 8d 85 a0 ef ff ff 	lea    -0x1060(%rbp),%rax
    c9b3:	48 89 85 e8 f6 ff ff 	mov    %rax,-0x918(%rbp)
    c9ba:	48 8d 85 a0 ef ff ff 	lea    -0x1060(%rbp),%rax
    c9c1:	48 89 85 f0 f6 ff ff 	mov    %rax,-0x910(%rbp)
    c9c8:	48 8d 85 a0 ef ff ff 	lea    -0x1060(%rbp),%rax
    c9cf:	48 89 85 f8 f6 ff ff 	mov    %rax,-0x908(%rbp)
    c9d6:	48 8d 85 a0 ef ff ff 	lea    -0x1060(%rbp),%rax
    c9dd:	48 89 85 00 f7 ff ff 	mov    %rax,-0x900(%rbp)
    c9e4:	48 8d 85 a0 ef ff ff 	lea    -0x1060(%rbp),%rax
    c9eb:	48 89 85 08 f7 ff ff 	mov    %rax,-0x8f8(%rbp)
    c9f2:	48 8d 85 a0 ef ff ff 	lea    -0x1060(%rbp),%rax
    c9f9:	48 89 85 10 f7 ff ff 	mov    %rax,-0x8f0(%rbp)
    ca00:	48 8d 85 a0 ef ff ff 	lea    -0x1060(%rbp),%rax
    ca07:	48 89 85 18 f7 ff ff 	mov    %rax,-0x8e8(%rbp)
    ca0e:	48 8d 85 a0 ef ff ff 	lea    -0x1060(%rbp),%rax
    ca15:	48 89 85 20 f7 ff ff 	mov    %rax,-0x8e0(%rbp)
    ca1c:	48 8d 85 a0 ef ff ff 	lea    -0x1060(%rbp),%rax
    ca23:	48 89 85 28 f7 ff ff 	mov    %rax,-0x8d8(%rbp)
    ca2a:	48 c7 85 30 f7 ff ff 	movq   $0x0,-0x8d0(%rbp)
    ca31:	00 00 00 00 
    ca35:	48 8d 85 a0 ef ff ff 	lea    -0x1060(%rbp),%rax
    ca3c:	48 89 85 38 f7 ff ff 	mov    %rax,-0x8c8(%rbp)
    ca43:	48 8d 85 a0 ef ff ff 	lea    -0x1060(%rbp),%rax
    ca4a:	48 89 85 40 f7 ff ff 	mov    %rax,-0x8c0(%rbp)
    ca51:	48 c7 85 48 f7 ff ff 	movq   $0x0,-0x8b8(%rbp)
    ca58:	00 00 00 00 
    ca5c:	48 8d 85 a0 ef ff ff 	lea    -0x1060(%rbp),%rax
    ca63:	48 89 85 50 f7 ff ff 	mov    %rax,-0x8b0(%rbp)
    ca6a:	48 8d 85 a0 ef ff ff 	lea    -0x1060(%rbp),%rax
    ca71:	48 89 85 58 f7 ff ff 	mov    %rax,-0x8a8(%rbp)
    ca78:	48 8d 85 a0 ef ff ff 	lea    -0x1060(%rbp),%rax
    ca7f:	48 89 85 60 f7 ff ff 	mov    %rax,-0x8a0(%rbp)
    ca86:	48 8d 85 a0 ef ff ff 	lea    -0x1060(%rbp),%rax
    ca8d:	48 89 85 68 f7 ff ff 	mov    %rax,-0x898(%rbp)
    ca94:	48 8d 85 a0 ef ff ff 	lea    -0x1060(%rbp),%rax
    ca9b:	48 89 85 70 f7 ff ff 	mov    %rax,-0x890(%rbp)
    caa2:	48 8d 85 a0 ef ff ff 	lea    -0x1060(%rbp),%rax
    caa9:	48 89 85 78 f7 ff ff 	mov    %rax,-0x888(%rbp)
    cab0:	48 8d 85 a0 ef ff ff 	lea    -0x1060(%rbp),%rax
    cab7:	48 89 85 80 f7 ff ff 	mov    %rax,-0x880(%rbp)
    cabe:	48 8d 85 a0 ef ff ff 	lea    -0x1060(%rbp),%rax
    cac5:	48 89 85 88 f7 ff ff 	mov    %rax,-0x878(%rbp)
    cacc:	48 8d 85 a0 ef ff ff 	lea    -0x1060(%rbp),%rax
    cad3:	48 89 85 90 f7 ff ff 	mov    %rax,-0x870(%rbp)
    cada:	48 8d 85 a0 ef ff ff 	lea    -0x1060(%rbp),%rax
    cae1:	48 89 85 98 f7 ff ff 	mov    %rax,-0x868(%rbp)
    cae8:	48 8d 85 a0 ef ff ff 	lea    -0x1060(%rbp),%rax
    caef:	48 89 85 a0 f7 ff ff 	mov    %rax,-0x860(%rbp)
    caf6:	48 8d 85 a0 ef ff ff 	lea    -0x1060(%rbp),%rax
    cafd:	48 89 85 a8 f7 ff ff 	mov    %rax,-0x858(%rbp)
    cb04:	48 c7 85 b0 f7 ff ff 	movq   $0x0,-0x850(%rbp)
    cb0b:	00 00 00 00 
    cb0f:	48 8d 85 a0 ef ff ff 	lea    -0x1060(%rbp),%rax
    cb16:	48 89 85 b8 f7 ff ff 	mov    %rax,-0x848(%rbp)
    cb1d:	48 c7 85 c0 f7 ff ff 	movq   $0x0,-0x840(%rbp)
    cb24:	00 00 00 00 
    cb28:	48 8d 85 a0 ef ff ff 	lea    -0x1060(%rbp),%rax
    cb2f:	48 89 85 c8 f7 ff ff 	mov    %rax,-0x838(%rbp)
    cb36:	48 8d 85 a0 ef ff ff 	lea    -0x1060(%rbp),%rax
    cb3d:	48 89 85 d0 f7 ff ff 	mov    %rax,-0x830(%rbp)
    cb44:	48 8d 85 a0 ef ff ff 	lea    -0x1060(%rbp),%rax
    cb4b:	48 89 85 d8 f7 ff ff 	mov    %rax,-0x828(%rbp)
    cb52:	48 8d 85 a0 ef ff ff 	lea    -0x1060(%rbp),%rax
    cb59:	48 89 85 e0 f7 ff ff 	mov    %rax,-0x820(%rbp)
    cb60:	48 8d 85 a0 ef ff ff 	lea    -0x1060(%rbp),%rax
    cb67:	48 89 85 e8 f7 ff ff 	mov    %rax,-0x818(%rbp)
    cb6e:	48 8d 85 a0 ef ff ff 	lea    -0x1060(%rbp),%rax
    cb75:	48 89 85 f0 f7 ff ff 	mov    %rax,-0x810(%rbp)
    cb7c:	48 c7 85 f8 f7 ff ff 	movq   $0x0,-0x808(%rbp)
    cb83:	00 00 00 00 
    cb87:	48 8d 85 a0 ef ff ff 	lea    -0x1060(%rbp),%rax
    cb8e:	48 89 85 00 f8 ff ff 	mov    %rax,-0x800(%rbp)
    cb95:	48 8d 85 a0 ef ff ff 	lea    -0x1060(%rbp),%rax
    cb9c:	48 89 85 08 f8 ff ff 	mov    %rax,-0x7f8(%rbp)
    cba3:	48 8d 85 a0 ef ff ff 	lea    -0x1060(%rbp),%rax
    cbaa:	48 89 85 10 f8 ff ff 	mov    %rax,-0x7f0(%rbp)
    cbb1:	48 8d 85 a0 ef ff ff 	lea    -0x1060(%rbp),%rax
    cbb8:	48 89 85 18 f8 ff ff 	mov    %rax,-0x7e8(%rbp)
    cbbf:	48 8d 85 a0 ef ff ff 	lea    -0x1060(%rbp),%rax
    cbc6:	48 89 85 20 f8 ff ff 	mov    %rax,-0x7e0(%rbp)
    cbcd:	48 8d 85 a0 ef ff ff 	lea    -0x1060(%rbp),%rax
    cbd4:	48 89 85 28 f8 ff ff 	mov    %rax,-0x7d8(%rbp)
    cbdb:	48 8d 85 a0 ef ff ff 	lea    -0x1060(%rbp),%rax
    cbe2:	48 89 85 30 f8 ff ff 	mov    %rax,-0x7d0(%rbp)
    cbe9:	48 8d 85 a0 ef ff ff 	lea    -0x1060(%rbp),%rax
    cbf0:	48 89 85 38 f8 ff ff 	mov    %rax,-0x7c8(%rbp)
    cbf7:	48 8d 85 a0 ef ff ff 	lea    -0x1060(%rbp),%rax
    cbfe:	48 89 85 40 f8 ff ff 	mov    %rax,-0x7c0(%rbp)
    cc05:	48 8d 85 a0 ef ff ff 	lea    -0x1060(%rbp),%rax
    cc0c:	48 89 85 48 f8 ff ff 	mov    %rax,-0x7b8(%rbp)
    cc13:	48 8d 85 a0 ef ff ff 	lea    -0x1060(%rbp),%rax
    cc1a:	48 89 85 50 f8 ff ff 	mov    %rax,-0x7b0(%rbp)
    cc21:	48 8d 85 a0 ef ff ff 	lea    -0x1060(%rbp),%rax
    cc28:	48 89 85 58 f8 ff ff 	mov    %rax,-0x7a8(%rbp)
    cc2f:	48 8d 85 a0 ef ff ff 	lea    -0x1060(%rbp),%rax
    cc36:	48 89 85 60 f8 ff ff 	mov    %rax,-0x7a0(%rbp)
    cc3d:	48 8d 85 a0 ef ff ff 	lea    -0x1060(%rbp),%rax
    cc44:	48 89 85 68 f8 ff ff 	mov    %rax,-0x798(%rbp)
    cc4b:	48 8d 85 a0 ef ff ff 	lea    -0x1060(%rbp),%rax
    cc52:	48 89 85 70 f8 ff ff 	mov    %rax,-0x790(%rbp)
    cc59:	48 8d 85 a0 ef ff ff 	lea    -0x1060(%rbp),%rax
    cc60:	48 89 85 78 f8 ff ff 	mov    %rax,-0x788(%rbp)
    cc67:	48 8d 85 a0 ef ff ff 	lea    -0x1060(%rbp),%rax
    cc6e:	48 89 85 80 f8 ff ff 	mov    %rax,-0x780(%rbp)
    cc75:	48 8d 85 a0 ef ff ff 	lea    -0x1060(%rbp),%rax
    cc7c:	48 89 85 88 f8 ff ff 	mov    %rax,-0x778(%rbp)
    cc83:	48 8d 85 a0 ef ff ff 	lea    -0x1060(%rbp),%rax
    cc8a:	48 89 85 90 f8 ff ff 	mov    %rax,-0x770(%rbp)
    cc91:	48 8d 85 a0 ef ff ff 	lea    -0x1060(%rbp),%rax
    cc98:	48 89 85 98 f8 ff ff 	mov    %rax,-0x768(%rbp)
    cc9f:	48 8d 85 a0 ef ff ff 	lea    -0x1060(%rbp),%rax
    cca6:	48 89 85 a0 f8 ff ff 	mov    %rax,-0x760(%rbp)
    ccad:	48 8d 85 a0 ef ff ff 	lea    -0x1060(%rbp),%rax
    ccb4:	48 89 85 a8 f8 ff ff 	mov    %rax,-0x758(%rbp)
    ccbb:	48 8d 85 a0 ef ff ff 	lea    -0x1060(%rbp),%rax
    ccc2:	48 89 85 b0 f8 ff ff 	mov    %rax,-0x750(%rbp)
    ccc9:	48 8d 85 a0 ef ff ff 	lea    -0x1060(%rbp),%rax
    ccd0:	48 89 85 b8 f8 ff ff 	mov    %rax,-0x748(%rbp)
    ccd7:	48 8d 85 a0 ef ff ff 	lea    -0x1060(%rbp),%rax
    ccde:	48 89 85 c0 f8 ff ff 	mov    %rax,-0x740(%rbp)
    cce5:	48 8d 85 a0 ef ff ff 	lea    -0x1060(%rbp),%rax
    ccec:	48 89 85 c8 f8 ff ff 	mov    %rax,-0x738(%rbp)
    ccf3:	48 8d 85 a0 ef ff ff 	lea    -0x1060(%rbp),%rax
    ccfa:	48 89 85 d0 f8 ff ff 	mov    %rax,-0x730(%rbp)
    cd01:	48 8d 85 a0 ef ff ff 	lea    -0x1060(%rbp),%rax
    cd08:	48 89 85 d8 f8 ff ff 	mov    %rax,-0x728(%rbp)
    cd0f:	48 8d 85 a0 ef ff ff 	lea    -0x1060(%rbp),%rax
    cd16:	48 89 85 e0 f8 ff ff 	mov    %rax,-0x720(%rbp)
    cd1d:	48 8d 85 a0 ef ff ff 	lea    -0x1060(%rbp),%rax
    cd24:	48 89 85 e8 f8 ff ff 	mov    %rax,-0x718(%rbp)
    cd2b:	48 8d 05 be 8e 00 00 	lea    0x8ebe(%rip),%rax        # 15bf0 <g_983>
    cd32:	48 89 85 08 f0 ff ff 	mov    %rax,-0xff8(%rbp)
    cd39:	48 8d 05 a0 b7 00 00 	lea    0xb7a0(%rip),%rax        # 184e0 <g_931>
    cd40:	48 89 85 b8 ef ff ff 	mov    %rax,-0x1048(%rbp)
    cd47:	48 8d 05 1e c0 00 00 	lea    0xc01e(%rip),%rax        # 18d6c <g_81>
    cd4e:	48 89 85 10 f0 ff ff 	mov    %rax,-0xff0(%rbp)
    cd55:	48 8b 05 7c b7 00 00 	mov    0xb77c(%rip),%rax        # 184d8 <g_932>
    cd5c:	48 8b 00             	mov    (%rax),%rax
    cd5f:	48 c7 00 00 00 00 00 	movq   $0x0,(%rax)
    cd66:	48 8b 00             	mov    (%rax),%rax
    cd69:	48 8b 15 68 b7 00 00 	mov    0xb768(%rip),%rdx        # 184d8 <g_932>
    cd70:	48 8b 1a             	mov    (%rdx),%rbx
    cd73:	48 8b 95 18 ef ff ff 	mov    -0x10e8(%rbp),%rdx
    cd7a:	48 89 d6             	mov    %rdx,%rsi
    cd7d:	48 89 c7             	mov    %rax,%rdi
    cd80:	e8 14 0c 00 00       	callq  d999 <func_25>
    cd85:	48 89 03             	mov    %rax,(%rbx)
    cd88:	c7 05 1e c0 00 00 00 	movl   $0x0,0xc01e(%rip)        # 18db0 <g_1003>
    cd8f:	00 00 00 
    cd92:	e9 84 0b 00 00       	jmpq   d91b <func_19+0x1f7d>
    cd97:	48 8d 85 a0 ef ff ff 	lea    -0x1060(%rbp),%rax
    cd9e:	48 89 85 10 f2 ff ff 	mov    %rax,-0xdf0(%rbp)
    cda5:	48 8d 85 a0 ef ff ff 	lea    -0x1060(%rbp),%rax
    cdac:	48 89 85 18 f2 ff ff 	mov    %rax,-0xde8(%rbp)
    cdb3:	48 8d 85 a0 ef ff ff 	lea    -0x1060(%rbp),%rax
    cdba:	48 89 85 20 f2 ff ff 	mov    %rax,-0xde0(%rbp)
    cdc1:	48 8d 85 a0 ef ff ff 	lea    -0x1060(%rbp),%rax
    cdc8:	48 89 85 28 f2 ff ff 	mov    %rax,-0xdd8(%rbp)
    cdcf:	48 8d 85 a0 ef ff ff 	lea    -0x1060(%rbp),%rax
    cdd6:	48 89 85 30 f2 ff ff 	mov    %rax,-0xdd0(%rbp)
    cddd:	48 8d 85 a0 ef ff ff 	lea    -0x1060(%rbp),%rax
    cde4:	48 89 85 38 f2 ff ff 	mov    %rax,-0xdc8(%rbp)
    cdeb:	48 8d 85 a0 ef ff ff 	lea    -0x1060(%rbp),%rax
    cdf2:	48 89 85 40 f2 ff ff 	mov    %rax,-0xdc0(%rbp)
    cdf9:	48 8d 85 a0 ef ff ff 	lea    -0x1060(%rbp),%rax
    ce00:	48 89 85 48 f2 ff ff 	mov    %rax,-0xdb8(%rbp)
    ce07:	48 8d 85 a0 ef ff ff 	lea    -0x1060(%rbp),%rax
    ce0e:	48 89 85 50 f2 ff ff 	mov    %rax,-0xdb0(%rbp)
    ce15:	48 8d 05 b4 bf 00 00 	lea    0xbfb4(%rip),%rax        # 18dd0 <g_1307>
    ce1c:	48 89 85 18 f0 ff ff 	mov    %rax,-0xfe8(%rbp)
    ce23:	48 8b 85 18 f5 ff ff 	mov    -0xae8(%rbp),%rax
    ce2a:	48 89 85 50 f2 ff ff 	mov    %rax,-0xdb0(%rbp)
    ce31:	c7 05 ad 82 00 00 00 	movl   $0x0,0x82ad(%rip)        # 150e8 <g_238>
    ce38:	00 00 00 
    ce3b:	e9 a1 00 00 00       	jmpq   cee1 <func_19+0x1543>
    ce40:	c7 85 a0 f1 ff ff 01 	movl   $0x1,-0xe60(%rbp)
    ce47:	00 00 00 
    ce4a:	c7 85 a4 f1 ff ff 01 	movl   $0x1,-0xe5c(%rbp)
    ce51:	00 00 00 
    ce54:	c7 85 a8 f1 ff ff 01 	movl   $0x1,-0xe58(%rbp)
    ce5b:	00 00 00 
    ce5e:	c7 85 ac f1 ff ff 01 	movl   $0x1,-0xe54(%rbp)
    ce65:	00 00 00 
    ce68:	c7 85 b0 f1 ff ff 01 	movl   $0x1,-0xe50(%rbp)
    ce6f:	00 00 00 
    ce72:	c7 05 88 8d 00 00 00 	movl   $0x0,0x8d88(%rip)        # 15c04 <g_1006>
    ce79:	00 00 00 
    ce7c:	90                   	nop
    ce7d:	8b 05 81 8d 00 00    	mov    0x8d81(%rip),%eax        # 15c04 <g_1006>
    ce83:	85 c0                	test   %eax,%eax
    ce85:	7f 4b                	jg     ced2 <func_19+0x1534>
    ce87:	8b 85 a8 f1 ff ff    	mov    -0xe58(%rbp),%eax
    ce8d:	83 e8 01             	sub    $0x1,%eax
    ce90:	89 85 a8 f1 ff ff    	mov    %eax,-0xe58(%rbp)
    ce96:	8b 05 14 82 00 00    	mov    0x8214(%rip),%eax        # 150b0 <g_166>
    ce9c:	8d 50 02             	lea    0x2(%rax),%edx
    ce9f:	8b 05 0b 82 00 00    	mov    0x820b(%rip),%eax        # 150b0 <g_166>
    cea5:	83 c0 06             	add    $0x6,%eax
    cea8:	48 63 c8             	movslq %eax,%rcx
    ceab:	48 63 d2             	movslq %edx,%rdx
    ceae:	48 89 d0             	mov    %rdx,%rax
    ceb1:	48 c1 e0 02          	shl    $0x2,%rax
    ceb5:	48 01 d0             	add    %rdx,%rax
    ceb8:	48 01 c0             	add    %rax,%rax
    cebb:	48 01 c8             	add    %rcx,%rax
    cebe:	48 8d 14 00          	lea    (%rax,%rax,1),%rdx
    cec2:	48 8d 05 57 82 00 00 	lea    0x8257(%rip),%rax        # 15120 <g_324>
    cec9:	0f b7 04 02          	movzwl (%rdx,%rax,1),%eax
    cecd:	e9 a1 0a 00 00       	jmpq   d973 <func_19+0x1fd5>
    ced2:	8b 05 10 82 00 00    	mov    0x8210(%rip),%eax        # 150e8 <g_238>
    ced8:	83 c0 01             	add    $0x1,%eax
    cedb:	89 05 07 82 00 00    	mov    %eax,0x8207(%rip)        # 150e8 <g_238>
    cee1:	8b 05 01 82 00 00    	mov    0x8201(%rip),%eax        # 150e8 <g_238>
    cee7:	85 c0                	test   %eax,%eax
    cee9:	0f 8e 51 ff ff ff    	jle    ce40 <func_19+0x14a2>
    ceef:	48 8b 85 18 ef ff ff 	mov    -0x10e8(%rbp),%rax
    cef6:	8b 00                	mov    (%rax),%eax
    cef8:	85 c0                	test   %eax,%eax
    cefa:	74 4a                	je     cf46 <func_19+0x15a8>
    cefc:	c7 85 4c ef ff ff 00 	movl   $0x0,-0x10b4(%rbp)
    cf03:	00 00 00 
    cf06:	eb 1b                	jmp    cf23 <func_19+0x1585>
    cf08:	8b 85 4c ef ff ff    	mov    -0x10b4(%rbp),%eax
    cf0e:	48 98                	cltq   
    cf10:	48 c7 84 c5 a0 f1 ff 	movq   $0x0,-0xe60(%rbp,%rax,8)
    cf17:	ff 00 00 00 00 
    cf1c:	83 85 4c ef ff ff 01 	addl   $0x1,-0x10b4(%rbp)
    cf23:	83 bd 4c ef ff ff 02 	cmpl   $0x2,-0x10b4(%rbp)
    cf2a:	7e dc                	jle    cf08 <func_19+0x156a>
    cf2c:	48 8b 85 08 f0 ff ff 	mov    -0xff8(%rbp),%rax
    cf33:	48 89 05 ce b5 00 00 	mov    %rax,0xb5ce(%rip)        # 18508 <g_1277>
    cf3a:	0f b7 85 08 ef ff ff 	movzwl -0x10f8(%rbp),%eax
    cf41:	e9 2d 0a 00 00       	jmpq   d973 <func_19+0x1fd5>
    cf46:	48 8d 85 80 ef ff ff 	lea    -0x1080(%rbp),%rax
    cf4d:	48 89 85 20 f0 ff ff 	mov    %rax,-0xfe0(%rbp)
    cf54:	48 8d 05 a7 81 00 00 	lea    0x81a7(%rip),%rax        # 15102 <g_271+0x6>
    cf5b:	48 89 85 a0 f1 ff ff 	mov    %rax,-0xe60(%rbp)
    cf62:	48 8d 05 99 81 00 00 	lea    0x8199(%rip),%rax        # 15102 <g_271+0x6>
    cf69:	48 89 85 a8 f1 ff ff 	mov    %rax,-0xe58(%rbp)
    cf70:	48 8d 05 8b 81 00 00 	lea    0x818b(%rip),%rax        # 15102 <g_271+0x6>
    cf77:	48 89 85 b0 f1 ff ff 	mov    %rax,-0xe50(%rbp)
    cf7e:	48 8d 05 7d 81 00 00 	lea    0x817d(%rip),%rax        # 15102 <g_271+0x6>
    cf85:	48 89 85 b8 f1 ff ff 	mov    %rax,-0xe48(%rbp)
    cf8c:	48 c7 85 28 f0 ff ff 	movq   $0xffffffffffffffff,-0xfd8(%rbp)
    cf93:	ff ff ff ff 
    cf97:	48 8d 05 ce bd 00 00 	lea    0xbdce(%rip),%rax        # 18d6c <g_81>
    cf9e:	48 89 85 a8 ef ff ff 	mov    %rax,-0x1058(%rbp)
    cfa5:	48 8d 05 dc bd 00 00 	lea    0xbddc(%rip),%rax        # 18d88 <g_396>
    cfac:	48 89 85 30 f0 ff ff 	mov    %rax,-0xfd0(%rbp)
    cfb3:	c6 85 2b ef ff ff 87 	movb   $0x87,-0x10d5(%rbp)
    cfba:	c7 85 50 ef ff ff fb 	movl   $0xfffffffb,-0x10b0(%rbp)
    cfc1:	ff ff ff 
    cfc4:	c7 85 54 ef ff ff 00 	movl   $0x0,-0x10ac(%rbp)
    cfcb:	00 00 00 
    cfce:	eb 1a                	jmp    cfea <func_19+0x164c>
    cfd0:	8b 85 54 ef ff ff    	mov    -0x10ac(%rbp),%eax
    cfd6:	48 98                	cltq   
    cfd8:	c7 84 85 f0 f0 ff ff 	movl   $0xfffffffa,-0xf10(%rbp,%rax,4)
    cfdf:	fa ff ff ff 
    cfe3:	83 85 54 ef ff ff 01 	addl   $0x1,-0x10ac(%rbp)
    cfea:	83 bd 54 ef ff ff 02 	cmpl   $0x2,-0x10ac(%rbp)
    cff1:	7e dd                	jle    cfd0 <func_19+0x1632>
    cff3:	0f bf 9d 04 ef ff ff 	movswl -0x10fc(%rbp),%ebx
    cffa:	0f b7 05 5f 81 00 00 	movzwl 0x815f(%rip),%eax        # 15160 <g_324+0x40>
    d001:	44 0f b7 e0          	movzwl %ax,%r12d
    d005:	44 0f be ad 0c ef ff 	movsbl -0x10f4(%rbp),%r13d
    d00c:	ff 
    d00d:	0f bf 85 08 ef ff ff 	movswl -0x10f8(%rbp),%eax
    d014:	48 83 bd 20 f0 ff ff 	cmpq   $0x0,-0xfe0(%rbp)
    d01b:	00 
    d01c:	0f 95 c2             	setne  %dl
    d01f:	0f b6 d2             	movzbl %dl,%edx
    d022:	31 95 48 ef ff ff    	xor    %edx,-0x10b8(%rbp)
    d028:	39 85 48 ef ff ff    	cmp    %eax,-0x10b8(%rbp)
    d02e:	0f 95 c0             	setne  %al
    d031:	88 85 00 ef ff ff    	mov    %al,-0x1100(%rbp)
    d037:	8b 05 b3 8b 00 00    	mov    0x8bb3(%rip),%eax        # 15bf0 <g_983>
    d03d:	44 0f b6 f0          	movzbl %al,%r14d
    d041:	48 8b 85 c8 ef ff ff 	mov    -0x1038(%rbp),%rax
    d048:	8b 00                	mov    (%rax),%eax
    d04a:	4c 63 f8             	movslq %eax,%r15
    d04d:	0f bf 85 04 ef ff ff 	movswl -0x10fc(%rbp),%eax
    d054:	be b6 fe c5 84       	mov    $0x84c5feb6,%esi
    d059:	89 c7                	mov    %eax,%edi
    d05b:	e8 9d ae ff ff       	callq  7efd <safe_mod_func_uint32_t_u_u>
    d060:	89 c6                	mov    %eax,%esi
    d062:	bf b1 99 ff ff       	mov    $0xffff99b1,%edi
    d067:	e8 75 a4 ff ff       	callq  74e1 <safe_lshift_func_int16_t_s_u>
    d06c:	66 85 c0             	test   %ax,%ax
    d06f:	0f 9e c0             	setle  %al
    d072:	0f b6 c0             	movzbl %al,%eax
    d075:	4c 89 fe             	mov    %r15,%rsi
    d078:	48 89 c7             	mov    %rax,%rdi
    d07b:	e8 cb af ff ff       	callq  804b <safe_sub_func_uint64_t_u_u>
    d080:	48 85 c0             	test   %rax,%rax
    d083:	0f 95 c0             	setne  %al
    d086:	0f b6 c0             	movzbl %al,%eax
    d089:	89 c7                	mov    %eax,%edi
    d08b:	e8 0d a3 ff ff       	callq  739d <safe_unary_minus_func_int16_t_s>
    d090:	0f b6 c0             	movzbl %al,%eax
    d093:	44 89 f6             	mov    %r14d,%esi
    d096:	89 c7                	mov    %eax,%edi
    d098:	e8 f6 aa ff ff       	callq  7b93 <safe_mul_func_uint8_t_u_u>
    d09d:	0f b6 d0             	movzbl %al,%edx
    d0a0:	48 8b 85 d0 ef ff ff 	mov    -0x1030(%rbp),%rax
    d0a7:	89 10                	mov    %edx,(%rax)
    d0a9:	48 8b 85 d0 ef ff ff 	mov    -0x1030(%rbp),%rax
    d0b0:	8b 00                	mov    (%rax),%eax
    d0b2:	3d b2 bb 18 17       	cmp    $0x1718bbb2,%eax
    d0b7:	0f 9f c0             	setg   %al
    d0ba:	32 85 00 ef ff ff    	xor    -0x1100(%rbp),%al
    d0c0:	0f be c0             	movsbl %al,%eax
    d0c3:	44 89 ee             	mov    %r13d,%esi
    d0c6:	89 c7                	mov    %eax,%edi
    d0c8:	e8 07 a1 ff ff       	callq  71d4 <safe_add_func_int8_t_s_s>
    d0cd:	48 8b 85 10 ef ff ff 	mov    -0x10f0(%rbp),%rax
    d0d4:	0f b6 c0             	movzbl %al,%eax
    d0d7:	44 89 e6             	mov    %r12d,%esi
    d0da:	89 c7                	mov    %eax,%edi
    d0dc:	e8 6b ab ff ff       	callq  7c4c <safe_lshift_func_uint8_t_u_u>
    d0e1:	0f b6 c0             	movzbl %al,%eax
    d0e4:	f7 d0                	not    %eax
    d0e6:	0f b7 c0             	movzwl %ax,%eax
    d0e9:	be 04 00 00 00       	mov    $0x4,%esi
    d0ee:	89 c7                	mov    %eax,%edi
    d0f0:	e8 53 ad ff ff       	callq  7e48 <safe_rshift_func_uint16_t_u_s>
    d0f5:	66 83 f8 53          	cmp    $0x53,%ax
    d0f9:	0f 94 c0             	sete   %al
    d0fc:	0f b6 d0             	movzbl %al,%edx
    d0ff:	0f be 85 0c ef ff ff 	movsbl -0x10f4(%rbp),%eax
    d106:	39 c2                	cmp    %eax,%edx
    d108:	0f 9d c0             	setge  %al
    d10b:	0f b6 c0             	movzbl %al,%eax
    d10e:	89 de                	mov    %ebx,%esi
    d110:	89 c7                	mov    %eax,%edi
    d112:	e8 ff a2 ff ff       	callq  7416 <safe_mod_func_int16_t_s_s>
    d117:	66 85 c0             	test   %ax,%ax
    d11a:	74 47                	je     d163 <func_19+0x17c5>
    d11c:	48 8b 85 10 ef ff ff 	mov    -0x10f0(%rbp),%rax
    d123:	98                   	cwtl   
    d124:	be 01 00 00 00       	mov    $0x1,%esi
    d129:	89 c7                	mov    %eax,%edi
    d12b:	e8 c5 a2 ff ff       	callq  73f5 <safe_mul_func_int16_t_s_s>
    d130:	0f b6 c0             	movzbl %al,%eax
    d133:	be 00 00 00 00       	mov    $0x0,%esi
    d138:	89 c7                	mov    %eax,%edi
    d13a:	e8 0d ab ff ff       	callq  7c4c <safe_lshift_func_uint8_t_u_u>
    d13f:	8b 95 f8 f0 ff ff    	mov    -0xf08(%rbp),%edx
    d145:	0f b6 c0             	movzbl %al,%eax
    d148:	31 d0                	xor    %edx,%eax
    d14a:	89 85 f8 f0 ff ff    	mov    %eax,-0xf08(%rbp)
    d150:	66 83 bd 08 ef ff ff 	cmpw   $0x0,-0x10f8(%rbp)
    d157:	00 
    d158:	0f 85 a1 02 00 00    	jne    d3ff <func_19+0x1a61>
    d15e:	e9 18 01 00 00       	jmpq   d27b <func_19+0x18dd>
    d163:	c6 85 2c ef ff ff ff 	movb   $0xff,-0x10d4(%rbp)
    d16a:	48 8b 05 1f b3 00 00 	mov    0xb31f(%rip),%rax        # 18490 <g_602>
    d171:	0f b7 00             	movzwl (%rax),%eax
    d174:	0f bf d0             	movswl %ax,%edx
    d177:	48 8b 05 02 b0 00 00 	mov    0xb002(%rip),%rax        # 18180 <g_241>
    d17e:	0f b7 00             	movzwl (%rax),%eax
    d181:	98                   	cwtl   
    d182:	89 d6                	mov    %edx,%esi
    d184:	89 c7                	mov    %eax,%edi
    d186:	e8 48 a2 ff ff       	callq  73d3 <safe_sub_func_int16_t_s_s>
    d18b:	0f bf d0             	movswl %ax,%edx
    d18e:	48 8b 8d a8 fb ff ff 	mov    -0x458(%rbp),%rcx
    d195:	48 8b 85 98 fe ff ff 	mov    -0x168(%rbp),%rax
    d19c:	48 39 c1             	cmp    %rax,%rcx
    d19f:	0f 94 c0             	sete   %al
    d1a2:	0f b6 c0             	movzbl %al,%eax
    d1a5:	89 d6                	mov    %edx,%esi
    d1a7:	89 c7                	mov    %eax,%edi
    d1a9:	e8 08 a4 ff ff       	callq  75b6 <safe_add_func_int32_t_s_s>
    d1ae:	0f b7 c0             	movzwl %ax,%eax
    d1b1:	be 07 00 00 00       	mov    $0x7,%esi
    d1b6:	89 c7                	mov    %eax,%edi
    d1b8:	e8 49 ac ff ff       	callq  7e06 <safe_lshift_func_uint16_t_u_u>
    d1bd:	0f bf d0             	movswl %ax,%edx
    d1c0:	48 8b 05 b9 af 00 00 	mov    0xafb9(%rip),%rax        # 18180 <g_241>
    d1c7:	0f b7 00             	movzwl (%rax),%eax
    d1ca:	98                   	cwtl   
    d1cb:	89 d6                	mov    %edx,%esi
    d1cd:	89 c7                	mov    %eax,%edi
    d1cf:	e8 df a1 ff ff       	callq  73b3 <safe_add_func_int16_t_s_s>
    d1d4:	48 8b 05 b5 b2 00 00 	mov    0xb2b5(%rip),%rax        # 18490 <g_602>
    d1db:	0f b7 95 04 ef ff ff 	movzwl -0x10fc(%rbp),%edx
    d1e2:	66 89 10             	mov    %dx,(%rax)
    d1e5:	0f b7 00             	movzwl (%rax),%eax
    d1e8:	0f b7 c0             	movzwl %ax,%eax
    d1eb:	48 39 85 10 ef ff ff 	cmp    %rax,-0x10f0(%rbp)
    d1f2:	0f 93 c0             	setae  %al
    d1f5:	0f b6 d0             	movzbl %al,%edx
    d1f8:	48 8b 05 f9 b2 00 00 	mov    0xb2f9(%rip),%rax        # 184f8 <g_1246>
    d1ff:	48 8b 00             	mov    (%rax),%rax
    d202:	48 8b 08             	mov    (%rax),%rcx
    d205:	48 8b 85 18 ef ff ff 	mov    -0x10e8(%rbp),%rax
    d20c:	48 89 05 bd bb 00 00 	mov    %rax,0xbbbd(%rip)        # 18dd0 <g_1307>
    d213:	48 8b 05 b6 bb 00 00 	mov    0xbbb6(%rip),%rax        # 18dd0 <g_1307>
    d21a:	48 39 c1             	cmp    %rax,%rcx
    d21d:	0f 94 c0             	sete   %al
    d220:	0f b6 c0             	movzbl %al,%eax
    d223:	8b 0d f7 83 00 00    	mov    0x83f7(%rip),%ecx        # 15620 <g_706+0x180>
    d229:	89 c9                	mov    %ecx,%ecx
    d22b:	83 e1 01             	and    $0x1,%ecx
    d22e:	48 39 c8             	cmp    %rcx,%rax
    d231:	0f 9e c0             	setle  %al
    d234:	0f b6 c0             	movzbl %al,%eax
    d237:	89 d6                	mov    %edx,%esi
    d239:	89 c7                	mov    %eax,%edi
    d23b:	e8 ea a2 ff ff       	callq  752a <safe_rshift_func_int16_t_s_s>
    d240:	66 39 85 04 ef ff ff 	cmp    %ax,-0x10fc(%rbp)
    d247:	0f 94 c0             	sete   %al
    d24a:	0f b6 d0             	movzbl %al,%edx
    d24d:	48 8b 05 ec aa 00 00 	mov    0xaaec(%rip),%rax        # 17d40 <g_4>
    d254:	8b 00                	mov    (%rax),%eax
    d256:	39 c2                	cmp    %eax,%edx
    d258:	0f 9c c0             	setl   %al
    d25b:	0f b6 d0             	movzbl %al,%edx
    d25e:	0f b6 85 2c ef ff ff 	movzbl -0x10d4(%rbp),%eax
    d265:	21 c2                	and    %eax,%edx
    d267:	48 8b 85 18 ef ff ff 	mov    -0x10e8(%rbp),%rax
    d26e:	89 10                	mov    %edx,(%rax)
    d270:	8b 85 48 ef ff ff    	mov    -0x10b8(%rbp),%eax
    d276:	e9 f8 06 00 00       	jmpq   d973 <func_19+0x1fd5>
    d27b:	b8 00 00 00 00       	mov    $0x0,%eax
    d280:	0f b6 d8             	movzbl %al,%ebx
    d283:	48 8b 85 10 ef ff ff 	mov    -0x10f0(%rbp),%rax
    d28a:	44 0f b7 e0          	movzwl %ax,%r12d
    d28e:	48 83 85 28 f0 ff ff 	addq   $0x1,-0xfd8(%rbp)
    d295:	01 
    d296:	48 83 bd 28 f0 ff ff 	cmpq   $0x0,-0xfd8(%rbp)
    d29d:	00 
    d29e:	75 70                	jne    d310 <func_19+0x1972>
    d2a0:	48 8b 85 18 ef ff ff 	mov    -0x10e8(%rbp),%rax
    d2a7:	8b 10                	mov    (%rax),%edx
    d2a9:	8b 85 48 ef ff ff    	mov    -0x10b8(%rbp),%eax
    d2af:	89 d6                	mov    %edx,%esi
    d2b1:	89 c7                	mov    %eax,%edi
    d2b3:	e8 47 a4 ff ff       	callq  76ff <safe_div_func_int32_t_s_s>
    d2b8:	0f bf 95 08 ef ff ff 	movswl -0x10f8(%rbp),%edx
    d2bf:	48 83 bd 10 ef ff ff 	cmpq   $0x0,-0x10f0(%rbp)
    d2c6:	00 
    d2c7:	0f 94 c0             	sete   %al
    d2ca:	0f b6 c0             	movzbl %al,%eax
    d2cd:	39 85 48 ef ff ff    	cmp    %eax,-0x10b8(%rbp)
    d2d3:	0f 9c c0             	setl   %al
    d2d6:	0f b6 c0             	movzbl %al,%eax
    d2d9:	48 39 85 10 ef ff ff 	cmp    %rax,-0x10f0(%rbp)
    d2e0:	0f 92 c0             	setb   %al
    d2e3:	0f b6 c0             	movzbl %al,%eax
    d2e6:	39 c2                	cmp    %eax,%edx
    d2e8:	0f 9e c0             	setle  %al
    d2eb:	0f b6 d0             	movzbl %al,%edx
    d2ee:	48 8b 85 d0 ef ff ff 	mov    -0x1030(%rbp),%rax
    d2f5:	8b 00                	mov    (%rax),%eax
    d2f7:	39 c2                	cmp    %eax,%edx
    d2f9:	0f 95 c0             	setne  %al
    d2fc:	0f b6 c0             	movzbl %al,%eax
    d2ff:	48 89 c7             	mov    %rax,%rdi
    d302:	e8 0f a5 ff ff       	callq  7816 <safe_unary_minus_func_int64_t_s>
    d307:	83 bd 48 ef ff ff 00 	cmpl   $0x0,-0x10b8(%rbp)
    d30e:	74 07                	je     d317 <func_19+0x1979>
    d310:	b8 01 00 00 00       	mov    $0x1,%eax
    d315:	eb 05                	jmp    d31c <func_19+0x197e>
    d317:	b8 00 00 00 00       	mov    $0x0,%eax
    d31c:	0b 85 48 ef ff ff    	or     -0x10b8(%rbp),%eax
    d322:	89 c1                	mov    %eax,%ecx
    d324:	48 8b 85 a8 ef ff ff 	mov    -0x1058(%rbp),%rax
    d32b:	0f b6 10             	movzbl (%rax),%edx
    d32e:	48 8b 85 a8 ef ff ff 	mov    -0x1058(%rbp),%rax
    d335:	21 ca                	and    %ecx,%edx
    d337:	88 10                	mov    %dl,(%rax)
    d339:	0f b6 10             	movzbl (%rax),%edx
    d33c:	48 8b 85 30 f0 ff ff 	mov    -0xfd0(%rbp),%rax
    d343:	88 10                	mov    %dl,(%rax)
    d345:	48 8b 85 30 f0 ff ff 	mov    -0xfd0(%rbp),%rax
    d34c:	0f b6 00             	movzbl (%rax),%eax
    d34f:	0f be d0             	movsbl %al,%edx
    d352:	8b 05 a0 7d 00 00    	mov    0x7da0(%rip),%eax        # 150f8 <g_261+0x8>
    d358:	39 c2                	cmp    %eax,%edx
    d35a:	75 10                	jne    d36c <func_19+0x19ce>
    d35c:	80 bd 0c ef ff ff 00 	cmpb   $0x0,-0x10f4(%rbp)
    d363:	74 07                	je     d36c <func_19+0x19ce>
    d365:	b8 01 00 00 00       	mov    $0x1,%eax
    d36a:	eb 05                	jmp    d371 <func_19+0x19d3>
    d36c:	b8 00 00 00 00       	mov    $0x0,%eax
    d371:	0f b7 c0             	movzwl %ax,%eax
    d374:	44 89 e6             	mov    %r12d,%esi
    d377:	89 c7                	mov    %eax,%edi
    d379:	e8 a1 a9 ff ff       	callq  7d1f <safe_sub_func_uint16_t_u_u>
    d37e:	0f bf d0             	movswl %ax,%edx
    d381:	48 8b 85 c8 ef ff ff 	mov    -0x1038(%rbp),%rax
    d388:	8b 00                	mov    (%rax),%eax
    d38a:	98                   	cwtl   
    d38b:	89 d6                	mov    %edx,%esi
    d38d:	89 c7                	mov    %eax,%edi
    d38f:	e8 82 a0 ff ff       	callq  7416 <safe_mod_func_int16_t_s_s>
    d394:	0f b6 c0             	movzbl %al,%eax
    d397:	be 06 00 00 00       	mov    $0x6,%esi
    d39c:	89 c7                	mov    %eax,%edi
    d39e:	e8 1b a9 ff ff       	callq  7cbe <safe_rshift_func_uint8_t_u_u>
    d3a3:	0f b6 c0             	movzbl %al,%eax
    d3a6:	be 06 00 00 00       	mov    $0x6,%esi
    d3ab:	89 c7                	mov    %eax,%edi
    d3ad:	e8 2f a1 ff ff       	callq  74e1 <safe_lshift_func_int16_t_s_u>
    d3b2:	48 83 bd 10 ef ff ff 	cmpq   $0x0,-0x10f0(%rbp)
    d3b9:	00 
    d3ba:	0f 94 c0             	sete   %al
    d3bd:	0f b6 c0             	movzbl %al,%eax
    d3c0:	be 00 00 00 00       	mov    $0x0,%esi
    d3c5:	89 c7                	mov    %eax,%edi
    d3c7:	e8 46 9e ff ff       	callq  7212 <safe_mul_func_int8_t_s_s>
    d3cc:	48 8b 05 15 88 00 00 	mov    0x8815(%rip),%rax        # 15be8 <g_976>
    d3d3:	48 85 c0             	test   %rax,%rax
    d3d6:	79 07                	jns    d3df <func_19+0x1a41>
    d3d8:	b8 01 00 00 00       	mov    $0x1,%eax
    d3dd:	eb 05                	jmp    d3e4 <func_19+0x1a46>
    d3df:	b8 00 00 00 00       	mov    $0x0,%eax
    d3e4:	89 c2                	mov    %eax,%edx
    d3e6:	0f b7 85 08 ef ff ff 	movzwl -0x10f8(%rbp),%eax
    d3ed:	31 d0                	xor    %edx,%eax
    d3ef:	0f b6 c0             	movzbl %al,%eax
    d3f2:	89 de                	mov    %ebx,%esi
    d3f4:	89 c7                	mov    %eax,%edi
    d3f6:	e8 7d a7 ff ff       	callq  7b78 <safe_sub_func_uint8_t_u_u>
    d3fb:	84 c0                	test   %al,%al
    d3fd:	74 07                	je     d406 <func_19+0x1a68>
    d3ff:	ba 01 00 00 00       	mov    $0x1,%edx
    d404:	eb 05                	jmp    d40b <func_19+0x1a6d>
    d406:	ba 00 00 00 00       	mov    $0x0,%edx
    d40b:	8b 05 cf 87 00 00    	mov    0x87cf(%rip),%eax        # 15be0 <g_972>
    d411:	39 c2                	cmp    %eax,%edx
    d413:	0f 8c e6 00 00 00    	jl     d4ff <func_19+0x1b61>
    d419:	48 8d 85 f0 f8 ff ff 	lea    -0x710(%rbp),%rax
    d420:	48 05 80 01 00 00    	add    $0x180,%rax
    d426:	48 89 85 40 f0 ff ff 	mov    %rax,-0xfc0(%rbp)
    d42d:	48 8d 85 88 ef ff ff 	lea    -0x1078(%rbp),%rax
    d434:	48 89 85 48 f0 ff ff 	mov    %rax,-0xfb8(%rbp)
    d43b:	c7 85 60 ef ff ff 08 	movl   $0x8,-0x10a0(%rbp)
    d442:	00 00 00 
    d445:	0f bf 85 04 ef ff ff 	movswl -0x10fc(%rbp),%eax
    d44c:	f7 d0                	not    %eax
    d44e:	48 63 d8             	movslq %eax,%rbx
    d451:	48 8b 85 40 f0 ff ff 	mov    -0xfc0(%rbp),%rax
    d458:	48 8d 15 a9 b0 00 00 	lea    0xb0a9(%rip),%rdx        # 18508 <g_1277>
    d45f:	48 89 10             	mov    %rdx,(%rax)
    d462:	48 8b 95 88 ef ff ff 	mov    -0x1078(%rbp),%rdx
    d469:	48 8b 85 48 f0 ff ff 	mov    -0xfb8(%rbp),%rax
    d470:	48 89 10             	mov    %rdx,(%rax)
    d473:	8b 85 60 ef ff ff    	mov    -0x10a0(%rbp),%eax
    d479:	83 c8 01             	or     $0x1,%eax
    d47c:	98                   	cwtl   
    d47d:	be 01 00 00 00       	mov    $0x1,%esi
    d482:	89 c7                	mov    %eax,%edi
    d484:	e8 58 a0 ff ff       	callq  74e1 <safe_lshift_func_int16_t_s_u>
    d489:	0f bf d0             	movswl %ax,%edx
    d48c:	48 8b 05 05 b0 00 00 	mov    0xb005(%rip),%rax        # 18498 <g_601>
    d493:	48 8b 00             	mov    (%rax),%rax
    d496:	0f b7 00             	movzwl (%rax),%eax
    d499:	0f b7 c0             	movzwl %ax,%eax
    d49c:	89 d6                	mov    %edx,%esi
    d49e:	89 c7                	mov    %eax,%edi
    d4a0:	e8 d5 a9 ff ff       	callq  7e7a <safe_rshift_func_uint16_t_u_u>
    d4a5:	66 3d 99 00          	cmp    $0x99,%ax
    d4a9:	0f 95 c0             	setne  %al
    d4ac:	0f b6 c0             	movzbl %al,%eax
    d4af:	ba 94 1e 2a 94       	mov    $0x942a1e94,%edx
    d4b4:	39 d0                	cmp    %edx,%eax
    d4b6:	0f 9f c0             	setg   %al
    d4b9:	0f b6 c0             	movzbl %al,%eax
    d4bc:	be ff ff ff ff       	mov    $0xffffffff,%esi
    d4c1:	89 c7                	mov    %eax,%edi
    d4c3:	e8 04 a2 ff ff       	callq  76cc <safe_mod_func_int32_t_s_s>
    d4c8:	0f bf 95 08 ef ff ff 	movswl -0x10f8(%rbp),%edx
    d4cf:	39 d0                	cmp    %edx,%eax
    d4d1:	0f 9c c0             	setl   %al
    d4d4:	0f b6 c0             	movzbl %al,%eax
    d4d7:	48 39 c3             	cmp    %rax,%rbx
    d4da:	0f 93 c0             	setae  %al
    d4dd:	0f b6 d0             	movzbl %al,%edx
    d4e0:	48 8b 85 c8 ef ff ff 	mov    -0x1038(%rbp),%rax
    d4e7:	89 10                	mov    %edx,(%rax)
    d4e9:	48 8b 05 28 b0 00 00 	mov    0xb028(%rip),%rax        # 18518 <g_1354>
    d4f0:	48 8b 15 19 b0 00 00 	mov    0xb019(%rip),%rdx        # 18510 <g_1352>
    d4f7:	48 89 10             	mov    %rdx,(%rax)
    d4fa:	e9 d4 00 00 00       	jmpq   d5d3 <func_19+0x1c35>
    d4ff:	48 8d 05 c2 87 00 00 	lea    0x87c2(%rip),%rax        # 15cc8 <g_1221+0xa8>
    d506:	48 89 85 38 f0 ff ff 	mov    %rax,-0xfc8(%rbp)
    d50d:	c7 85 5c ef ff ff 02 	movl   $0x2,-0x10a4(%rbp)
    d514:	00 00 00 
    d517:	48 8b 85 18 ef ff ff 	mov    -0x10e8(%rbp),%rax
    d51e:	8b 00                	mov    (%rax),%eax
    d520:	85 c0                	test   %eax,%eax
    d522:	0f 85 03 04 00 00    	jne    d92b <func_19+0x1f8d>
    d528:	48 8b 05 b1 af 00 00 	mov    0xafb1(%rip),%rax        # 184e0 <g_931>
    d52f:	48 8b 00             	mov    (%rax),%rax
    d532:	48 8b 10             	mov    (%rax),%rdx
    d535:	48 8b 85 20 f0 ff ff 	mov    -0xfe0(%rbp),%rax
    d53c:	48 8b 00             	mov    (%rax),%rax
    d53f:	48 8b 00             	mov    (%rax),%rax
    d542:	48 8b 12             	mov    (%rdx),%rdx
    d545:	48 89 10             	mov    %rdx,(%rax)
    d548:	48 8b 85 38 f0 ff ff 	mov    -0xfc8(%rbp),%rax
    d54f:	c7 00 00 00 00 00    	movl   $0x0,(%rax)
    d555:	48 8b 85 38 f0 ff ff 	mov    -0xfc8(%rbp),%rax
    d55c:	8b 18                	mov    (%rax),%ebx
    d55e:	8b 85 5c ef ff ff    	mov    -0x10a4(%rbp),%eax
    d564:	0f b6 c0             	movzbl %al,%eax
    d567:	89 c7                	mov    %eax,%edi
    d569:	e8 d7 a5 ff ff       	callq  7b45 <safe_unary_minus_func_uint8_t_u>
    d56e:	44 0f b6 e0          	movzbl %al,%r12d
    d572:	48 8d 05 67 af 00 00 	lea    0xaf67(%rip),%rax        # 184e0 <g_931>
    d579:	48 89 85 b8 ef ff ff 	mov    %rax,-0x1048(%rbp)
    d580:	48 8b 85 88 f3 ff ff 	mov    -0xc78(%rbp),%rax
    d587:	48 89 05 aa af 00 00 	mov    %rax,0xafaa(%rip)        # 18538 <g_1364>
    d58e:	48 8b 05 a3 af 00 00 	mov    0xafa3(%rip),%rax        # 18538 <g_1364>
    d595:	48 8d 15 44 af 00 00 	lea    0xaf44(%rip),%rdx        # 184e0 <g_931>
    d59c:	48 39 d0             	cmp    %rdx,%rax
    d59f:	0f 94 c0             	sete   %al
    d5a2:	0f b6 c0             	movzbl %al,%eax
    d5a5:	be 01 00 00 00       	mov    $0x1,%esi
    d5aa:	89 c7                	mov    %eax,%edi
    d5ac:	e8 3d 9d ff ff       	callq  72ee <safe_lshift_func_int8_t_s_u>
    d5b1:	0f be c0             	movsbl %al,%eax
    d5b4:	44 21 e0             	and    %r12d,%eax
    d5b7:	39 c3                	cmp    %eax,%ebx
    d5b9:	0f 94 c0             	sete   %al
    d5bc:	0f b6 d0             	movzbl %al,%edx
    d5bf:	48 8b 85 c8 ef ff ff 	mov    -0x1038(%rbp),%rax
    d5c6:	8b 00                	mov    (%rax),%eax
    d5c8:	09 c2                	or     %eax,%edx
    d5ca:	48 8b 85 c8 ef ff ff 	mov    -0x1038(%rbp),%rax
    d5d1:	89 10                	mov    %edx,(%rax)
    d5d3:	48 8b 85 c0 ef ff ff 	mov    -0x1040(%rbp),%rax
    d5da:	8b 00                	mov    (%rax),%eax
    d5dc:	85 c0                	test   %eax,%eax
    d5de:	0f 85 4a 03 00 00    	jne    d92e <func_19+0x1f90>
    d5e4:	c7 05 ae 7a 00 00 00 	movl   $0x0,0x7aae(%rip)        # 1509c <g_107>
    d5eb:	00 00 00 
    d5ee:	e9 eb 02 00 00       	jmpq   d8de <func_19+0x1f40>
    d5f3:	66 c7 85 30 ef ff ff 	movw   $0x1,-0x10d0(%rbp)
    d5fa:	01 00 
    d5fc:	48 8d 85 a8 ef ff ff 	lea    -0x1058(%rbp),%rax
    d603:	48 89 85 b0 ef ff ff 	mov    %rax,-0x1050(%rbp)
    d60a:	48 8d 85 b0 ef ff ff 	lea    -0x1050(%rbp),%rax
    d611:	48 89 85 50 f0 ff ff 	mov    %rax,-0xfb0(%rbp)
    d618:	48 c7 85 58 f0 ff ff 	movq   $0x0,-0xfa8(%rbp)
    d61f:	00 00 00 00 
    d623:	48 8d 05 6e 7e 00 00 	lea    0x7e6e(%rip),%rax        # 15498 <g_632>
    d62a:	48 89 85 60 f0 ff ff 	mov    %rax,-0xfa0(%rbp)
    d631:	48 8b 85 18 ef ff ff 	mov    -0x10e8(%rbp),%rax
    d638:	8b 18                	mov    (%rax),%ebx
    d63a:	48 8b 05 df ad 00 00 	mov    0xaddf(%rip),%rax        # 18420 <g_272>
    d641:	0f b7 00             	movzwl (%rax),%eax
    d644:	44 0f bf e0          	movswl %ax,%r12d
    d648:	48 8b 85 20 f0 ff ff 	mov    -0xfe0(%rbp),%rax
    d64f:	48 8b 00             	mov    (%rax),%rax
    d652:	48 39 85 00 f0 ff ff 	cmp    %rax,-0x1000(%rbp)
    d659:	0f 94 c0             	sete   %al
    d65c:	0f b6 d0             	movzbl %al,%edx
    d65f:	48 83 bd 50 f0 ff ff 	cmpq   $0x0,-0xfb0(%rbp)
    d666:	00 
    d667:	0f 95 c0             	setne  %al
    d66a:	0f b6 c0             	movzbl %al,%eax
    d66d:	89 d6                	mov    %edx,%esi
    d66f:	89 c7                	mov    %eax,%edi
    d671:	e8 8f 9f ff ff       	callq  7605 <safe_sub_func_int32_t_s_s>
    d676:	41 89 c7             	mov    %eax,%r15d
    d679:	48 8b 05 a0 ad 00 00 	mov    0xada0(%rip),%rax        # 18420 <g_272>
    d680:	0f b7 00             	movzwl (%rax),%eax
    d683:	44 0f b7 e8          	movzwl %ax,%r13d
    d687:	44 0f be b5 0c ef ff 	movsbl -0x10f4(%rbp),%r14d
    d68e:	ff 
    d68f:	48 8b 85 18 ef ff ff 	mov    -0x10e8(%rbp),%rax
    d696:	8b 00                	mov    (%rax),%eax
    d698:	89 85 00 ef ff ff    	mov    %eax,-0x1100(%rbp)
    d69e:	0f bf 95 04 ef ff ff 	movswl -0x10fc(%rbp),%edx
    d6a5:	0f bf 8d 08 ef ff ff 	movswl -0x10f8(%rbp),%ecx
    d6ac:	48 8b 05 cd aa 00 00 	mov    0xaacd(%rip),%rax        # 18180 <g_241>
    d6b3:	0f b7 00             	movzwl (%rax),%eax
    d6b6:	66 83 f8 06          	cmp    $0x6,%ax
    d6ba:	0f 94 c0             	sete   %al
    d6bd:	0f b6 c0             	movzbl %al,%eax
    d6c0:	39 c1                	cmp    %eax,%ecx
    d6c2:	0f 95 c0             	setne  %al
    d6c5:	0f b6 c0             	movzbl %al,%eax
    d6c8:	89 d6                	mov    %edx,%esi
    d6ca:	89 c7                	mov    %eax,%edi
    d6cc:	e8 34 9f ff ff       	callq  7605 <safe_sub_func_int32_t_s_s>
    d6d1:	48 8b 95 18 ef ff ff 	mov    -0x10e8(%rbp),%rdx
    d6d8:	8b 12                	mov    (%rdx),%edx
    d6da:	39 d0                	cmp    %edx,%eax
    d6dc:	0f 9f c2             	setg   %dl
    d6df:	48 8b 05 4a ae 00 00 	mov    0xae4a(%rip),%rax        # 18530 <g_1365>
    d6e6:	48 8b 00             	mov    (%rax),%rax
    d6e9:	48 8b 00             	mov    (%rax),%rax
    d6ec:	48 8b 00             	mov    (%rax),%rax
    d6ef:	0f b6 d2             	movzbl %dl,%edx
    d6f2:	89 10                	mov    %edx,(%rax)
    d6f4:	8b 10                	mov    (%rax),%edx
    d6f6:	0f bf 85 08 ef ff ff 	movswl -0x10f8(%rbp),%eax
    d6fd:	39 c2                	cmp    %eax,%edx
    d6ff:	0f 9d c0             	setge  %al
    d702:	0f b6 c0             	movzbl %al,%eax
    d705:	8b b5 00 ef ff ff    	mov    -0x1100(%rbp),%esi
    d70b:	89 c7                	mov    %eax,%edi
    d70d:	e8 13 a8 ff ff       	callq  7f25 <safe_div_func_uint32_t_u_u>
    d712:	44 89 f6             	mov    %r14d,%esi
    d715:	bf 00 00 00 00       	mov    $0x0,%edi
    d71a:	e8 9f a6 ff ff       	callq  7dbe <safe_lshift_func_uint16_t_u_s>
    d71f:	0f b7 c0             	movzwl %ax,%eax
    d722:	44 89 ee             	mov    %r13d,%esi
    d725:	89 c7                	mov    %eax,%edi
    d727:	e8 11 a6 ff ff       	callq  7d3d <safe_mul_func_uint16_t_u_u>
    d72c:	66 3d 50 22          	cmp    $0x2250,%ax
    d730:	0f 94 c0             	sete   %al
    d733:	0f b6 c0             	movzbl %al,%eax
    d736:	89 c6                	mov    %eax,%esi
    d738:	bf f8 ff ff ff       	mov    $0xfffffff8,%edi
    d73d:	e8 d0 9a ff ff       	callq  7212 <safe_mul_func_int8_t_s_s>
    d742:	0f b6 c0             	movzbl %al,%eax
    d745:	be 06 00 00 00       	mov    $0x6,%esi
    d74a:	89 c7                	mov    %eax,%edi
    d74c:	e8 fb a4 ff ff       	callq  7c4c <safe_lshift_func_uint8_t_u_u>
    d751:	0f b6 c0             	movzbl %al,%eax
    d754:	41 39 c7             	cmp    %eax,%r15d
    d757:	0f 9d c0             	setge  %al
    d75a:	0f b6 c0             	movzbl %al,%eax
    d75d:	44 89 e6             	mov    %r12d,%esi
    d760:	89 c7                	mov    %eax,%edi
    d762:	e8 ee 9c ff ff       	callq  7455 <safe_div_func_int16_t_s_s>
    d767:	98                   	cwtl   
    d768:	89 de                	mov    %ebx,%esi
    d76a:	89 c7                	mov    %eax,%edi
    d76c:	e8 94 9e ff ff       	callq  7605 <safe_sub_func_int32_t_s_s>
    d771:	0f b6 85 0c ef ff ff 	movzbl -0x10f4(%rbp),%eax
    d778:	83 c8 01             	or     $0x1,%eax
    d77b:	38 85 0c ef ff ff    	cmp    %al,-0x10f4(%rbp)
    d781:	0f 9c c0             	setl   %al
    d784:	0f b6 d0             	movzbl %al,%edx
    d787:	0f b7 85 30 ef ff ff 	movzwl -0x10d0(%rbp),%eax
    d78e:	0f b7 c0             	movzwl %ax,%eax
    d791:	89 d6                	mov    %edx,%esi
    d793:	89 c7                	mov    %eax,%edi
    d795:	e8 e0 a6 ff ff       	callq  7e7a <safe_rshift_func_uint16_t_u_u>
    d79a:	0f b7 d0             	movzwl %ax,%edx
    d79d:	48 8b 85 c0 ef ff ff 	mov    -0x1040(%rbp),%rax
    d7a4:	89 10                	mov    %edx,(%rax)
    d7a6:	8b 05 bc 84 00 00    	mov    0x84bc(%rip),%eax        # 15c68 <g_1221+0x48>
    d7ac:	41 89 c6             	mov    %eax,%r14d
    d7af:	48 8b 05 3a 84 00 00 	mov    0x843a(%rip),%rax        # 15bf0 <g_983>
    d7b6:	48 8b 05 c3 a9 00 00 	mov    0xa9c3(%rip),%rax        # 18180 <g_241>
    d7bd:	0f b7 08             	movzwl (%rax),%ecx
    d7c0:	0f b6 15 41 87 00 00 	movzbl 0x8741(%rip),%edx        # 15f08 <g_1398>
    d7c7:	48 8b 05 52 ac 00 00 	mov    0xac52(%rip),%rax        # 18420 <g_272>
    d7ce:	66 0f be d2          	movsbw %dl,%dx
    d7d2:	66 89 10             	mov    %dx,(%rax)
    d7d5:	0f b7 00             	movzwl (%rax),%eax
    d7d8:	66 39 c1             	cmp    %ax,%cx
    d7db:	0f 9c c0             	setl   %al
    d7de:	44 0f b6 e8          	movzbl %al,%r13d
    d7e2:	48 8b 05 a7 ac 00 00 	mov    0xaca7(%rip),%rax        # 18490 <g_602>
    d7e9:	0f b7 00             	movzwl (%rax),%eax
    d7ec:	0f bf d8             	movswl %ax,%ebx
    d7ef:	48 8b 05 2a ad 00 00 	mov    0xad2a(%rip),%rax        # 18520 <g_1368>
    d7f6:	c7 00 82 e4 7c 09    	movl   $0x97ce482,(%rax)
    d7fc:	8b 05 e6 78 00 00    	mov    0x78e6(%rip),%eax        # 150e8 <g_238>
    d802:	83 c8 36             	or     $0x36,%eax
    d805:	0f be c0             	movsbl %al,%eax
    d808:	be 70 00 00 00       	mov    $0x70,%esi
    d80d:	89 c7                	mov    %eax,%edi
    d80f:	e8 1d 9a ff ff       	callq  7231 <safe_mod_func_int8_t_s_s>
    d814:	be 00 00 00 00       	mov    $0x0,%esi
    d819:	bf 01 00 00 00       	mov    $0x1,%edi
    d81e:	e8 7e 9a ff ff       	callq  72a1 <safe_lshift_func_int8_t_s_s>
    d823:	4c 0f be e0          	movsbq %al,%r12
    d827:	0f bf 85 04 ef ff ff 	movswl -0x10fc(%rbp),%eax
    d82e:	89 c6                	mov    %eax,%esi
    d830:	bf 9b 84 2d ef       	mov    $0xef2d849b,%edi
    d835:	e8 7c 9d ff ff       	callq  75b6 <safe_add_func_int32_t_s_s>
    d83a:	48 8b 95 60 f0 ff ff 	mov    -0xfa0(%rbp),%rdx
    d841:	48 8b 12             	mov    (%rdx),%rdx
    d844:	48 98                	cltq   
    d846:	48 21 c2             	and    %rax,%rdx
    d849:	48 8b 85 60 f0 ff ff 	mov    -0xfa0(%rbp),%rax
    d850:	48 89 10             	mov    %rdx,(%rax)
    d853:	48 8b 85 60 f0 ff ff 	mov    -0xfa0(%rbp),%rax
    d85a:	48 8b 00             	mov    (%rax),%rax
    d85d:	4c 89 e6             	mov    %r12,%rsi
    d860:	48 89 c7             	mov    %rax,%rdi
    d863:	e8 18 a8 ff ff       	callq  8080 <safe_mod_func_uint64_t_u_u>
    d868:	48 85 c0             	test   %rax,%rax
    d86b:	0f 94 c1             	sete   %cl
    d86e:	48 0f bf 95 08 ef ff 	movswq -0x10f8(%rbp),%rdx
    d875:	ff 
    d876:	48 8b 05 93 86 00 00 	mov    0x8693(%rip),%rax        # 15f10 <g_1415>
    d87d:	48 39 c2             	cmp    %rax,%rdx
    d880:	0f 9d c0             	setge  %al
    d883:	21 c8                	and    %ecx,%eax
    d885:	0f b6 d0             	movzbl %al,%edx
    d888:	0f b6 85 2b ef ff ff 	movzbl -0x10d5(%rbp),%eax
    d88f:	31 d0                	xor    %edx,%eax
    d891:	98                   	cwtl   
    d892:	89 de                	mov    %ebx,%esi
    d894:	89 c7                	mov    %eax,%edi
    d896:	e8 7b 9b ff ff       	callq  7416 <safe_mod_func_int16_t_s_s>
    d89b:	98                   	cwtl   
    d89c:	41 39 c5             	cmp    %eax,%r13d
    d89f:	0f 95 c0             	setne  %al
    d8a2:	0f b6 c0             	movzbl %al,%eax
    d8a5:	89 85 48 ef ff ff    	mov    %eax,-0x10b8(%rbp)
    d8ab:	8b 85 48 ef ff ff    	mov    -0x10b8(%rbp),%eax
    d8b1:	48 98                	cltq   
    d8b3:	4c 89 f6             	mov    %r14,%rsi
    d8b6:	48 89 c7             	mov    %rax,%rdi
    d8b9:	e8 83 9f ff ff       	callq  7841 <safe_add_func_int64_t_s_s>
    d8be:	48 0f bf 95 04 ef ff 	movswq -0x10fc(%rbp),%rdx
    d8c5:	ff 
    d8c6:	48 31 d0             	xor    %rdx,%rax
    d8c9:	09 85 50 ef ff ff    	or     %eax,-0x10b0(%rbp)
    d8cf:	8b 05 c7 77 00 00    	mov    0x77c7(%rip),%eax        # 1509c <g_107>
    d8d5:	83 e8 01             	sub    $0x1,%eax
    d8d8:	89 05 be 77 00 00    	mov    %eax,0x77be(%rip)        # 1509c <g_107>
    d8de:	8b 05 b8 77 00 00    	mov    0x77b8(%rip),%eax        # 1509c <g_107>
    d8e4:	85 c0                	test   %eax,%eax
    d8e6:	0f 89 07 fd ff ff    	jns    d5f3 <func_19+0x1c55>
    d8ec:	48 8b 85 00 f0 ff ff 	mov    -0x1000(%rbp),%rax
    d8f3:	48 8b 10             	mov    (%rax),%rdx
    d8f6:	48 8b 85 b8 ef ff ff 	mov    -0x1048(%rbp),%rax
    d8fd:	48 8b 00             	mov    (%rax),%rax
    d900:	48 8b 00             	mov    (%rax),%rax
    d903:	48 8b 00             	mov    (%rax),%rax
    d906:	48 8b 12             	mov    (%rdx),%rdx
    d909:	48 89 10             	mov    %rdx,(%rax)
    d90c:	8b 05 9e b4 00 00    	mov    0xb49e(%rip),%eax        # 18db0 <g_1003>
    d912:	83 e8 01             	sub    $0x1,%eax
    d915:	89 05 95 b4 00 00    	mov    %eax,0xb495(%rip)        # 18db0 <g_1003>
    d91b:	8b 05 8f b4 00 00    	mov    0xb48f(%rip),%eax        # 18db0 <g_1003>
    d921:	85 c0                	test   %eax,%eax
    d923:	0f 89 6e f4 ff ff    	jns    cd97 <func_19+0x13f9>
    d929:	eb 04                	jmp    d92f <func_19+0x1f91>
    d92b:	90                   	nop
    d92c:	eb 01                	jmp    d92f <func_19+0x1f91>
    d92e:	90                   	nop
    d92f:	8b 05 7b 77 00 00    	mov    0x777b(%rip),%eax        # 150b0 <g_166>
    d935:	83 c0 01             	add    $0x1,%eax
    d938:	89 05 72 77 00 00    	mov    %eax,0x7772(%rip)        # 150b0 <g_166>
    d93e:	8b 05 6c 77 00 00    	mov    0x776c(%rip),%eax        # 150b0 <g_166>
    d944:	85 c0                	test   %eax,%eax
    d946:	0f 8e 1f eb ff ff    	jle    c46b <func_19+0xacd>
    d94c:	8b 05 b6 82 00 00    	mov    0x82b6(%rip),%eax        # 15c08 <g_1085>
    d952:	83 c0 01             	add    $0x1,%eax
    d955:	89 05 ad 82 00 00    	mov    %eax,0x82ad(%rip)        # 15c08 <g_1085>
    d95b:	8b 05 a7 82 00 00    	mov    0x82a7(%rip),%eax        # 15c08 <g_1085>
    d961:	83 f8 02             	cmp    $0x2,%eax
    d964:	0f 8e f3 e9 ff ff    	jle    c35d <func_19+0x9bf>
    d96a:	48 8b 85 c0 ef ff ff 	mov    -0x1040(%rbp),%rax
    d971:	8b 00                	mov    (%rax),%eax
    d973:	48 8b 5d c8          	mov    -0x38(%rbp),%rbx
    d977:	64 48 33 1c 25 28 00 	xor    %fs:0x28,%rbx
    d97e:	00 00 
    d980:	74 05                	je     d987 <func_19+0x1fe9>
    d982:	e8 e9 96 ff ff       	callq  7070 <__stack_chk_fail@plt>
    d987:	48 81 c4 d8 10 00 00 	add    $0x10d8,%rsp
    d98e:	5b                   	pop    %rbx
    d98f:	41 5c                	pop    %r12
    d991:	41 5d                	pop    %r13
    d993:	41 5e                	pop    %r14
    d995:	41 5f                	pop    %r15
    d997:	5d                   	pop    %rbp
    d998:	c3                   	retq   

000000000000d999 <func_25>:
    d999:	f3 0f 1e fa          	endbr64 
    d99d:	55                   	push   %rbp
    d99e:	48 89 e5             	mov    %rsp,%rbp
    d9a1:	48 83 ec 30          	sub    $0x30,%rsp
    d9a5:	48 89 7d d8          	mov    %rdi,-0x28(%rbp)
    d9a9:	48 89 75 d0          	mov    %rsi,-0x30(%rbp)
    d9ad:	64 48 8b 04 25 28 00 	mov    %fs:0x28,%rax
    d9b4:	00 00 
    d9b6:	48 89 45 f8          	mov    %rax,-0x8(%rbp)
    d9ba:	31 c0                	xor    %eax,%eax
    d9bc:	48 8d 05 a5 b3 00 00 	lea    0xb3a5(%rip),%rax        # 18d68 <g_30>
    d9c3:	48 89 45 e8          	mov    %rax,-0x18(%rbp)
    d9c7:	48 8d 45 e8          	lea    -0x18(%rbp),%rax
    d9cb:	48 89 45 f0          	mov    %rax,-0x10(%rbp)
    d9cf:	48 8b 55 e8          	mov    -0x18(%rbp),%rdx
    d9d3:	48 8b 45 f0          	mov    -0x10(%rbp),%rax
    d9d7:	48 89 10             	mov    %rdx,(%rax)
    d9da:	48 8b 45 d0          	mov    -0x30(%rbp),%rax
    d9de:	48 8b 4d f8          	mov    -0x8(%rbp),%rcx
    d9e2:	64 48 33 0c 25 28 00 	xor    %fs:0x28,%rcx
    d9e9:	00 00 
    d9eb:	74 05                	je     d9f2 <func_25+0x59>
    d9ed:	e8 7e 96 ff ff       	callq  7070 <__stack_chk_fail@plt>
    d9f2:	c9                   	leaveq 
    d9f3:	c3                   	retq   

000000000000d9f4 <func_45>:
    d9f4:	f3 0f 1e fa          	endbr64 
    d9f8:	55                   	push   %rbp
    d9f9:	48 89 e5             	mov    %rsp,%rbp
    d9fc:	48 89 7d e8          	mov    %rdi,-0x18(%rbp)
    da00:	48 89 75 e0          	mov    %rsi,-0x20(%rbp)
    da04:	89 d0                	mov    %edx,%eax
    da06:	48 89 4d d0          	mov    %rcx,-0x30(%rbp)
    da0a:	4c 89 45 c8          	mov    %r8,-0x38(%rbp)
    da0e:	88 45 dc             	mov    %al,-0x24(%rbp)
    da11:	66 c7 45 fe ff ff    	movw   $0xffff,-0x2(%rbp)
    da17:	0f b7 45 fe          	movzwl -0x2(%rbp),%eax
    da1b:	5d                   	pop    %rbp
    da1c:	c3                   	retq   

000000000000da1d <func_60>:
    da1d:	f3 0f 1e fa          	endbr64 
    da21:	55                   	push   %rbp
    da22:	48 89 e5             	mov    %rsp,%rbp
    da25:	48 81 ec 10 02 00 00 	sub    $0x210,%rsp
    da2c:	48 89 bd 08 fe ff ff 	mov    %rdi,-0x1f8(%rbp)
    da33:	48 89 b5 00 fe ff ff 	mov    %rsi,-0x200(%rbp)
    da3a:	48 89 95 f8 fd ff ff 	mov    %rdx,-0x208(%rbp)
    da41:	64 48 8b 04 25 28 00 	mov    %fs:0x28,%rax
    da48:	00 00 
    da4a:	48 89 45 f8          	mov    %rax,-0x8(%rbp)
    da4e:	31 c0                	xor    %eax,%eax
    da50:	c7 85 50 fe ff ff a2 	movl   $0x3bebf4a2,-0x1b0(%rbp)
    da57:	f4 eb 3b 
    da5a:	c7 85 54 fe ff ff a2 	movl   $0x3bebf4a2,-0x1ac(%rbp)
    da61:	f4 eb 3b 
    da64:	c7 85 58 fe ff ff a2 	movl   $0x3bebf4a2,-0x1a8(%rbp)
    da6b:	f4 eb 3b 
    da6e:	c7 85 5c fe ff ff a2 	movl   $0x3bebf4a2,-0x1a4(%rbp)
    da75:	f4 eb 3b 
    da78:	c7 85 60 fe ff ff a2 	movl   $0x3bebf4a2,-0x1a0(%rbp)
    da7f:	f4 eb 3b 
    da82:	c7 85 64 fe ff ff a2 	movl   $0x3bebf4a2,-0x19c(%rbp)
    da89:	f4 eb 3b 
    da8c:	48 8d 05 fd 79 00 00 	lea    0x79fd(%rip),%rax        # 15490 <g_586>
    da93:	48 89 85 20 fe ff ff 	mov    %rax,-0x1e0(%rbp)
    da9a:	48 8d 85 50 fe ff ff 	lea    -0x1b0(%rbp),%rax
    daa1:	48 83 c0 08          	add    $0x8,%rax
    daa5:	48 89 85 28 fe ff ff 	mov    %rax,-0x1d8(%rbp)
    daac:	48 8d 05 b5 b2 00 00 	lea    0xb2b5(%rip),%rax        # 18d68 <g_30>
    dab3:	48 89 85 30 fe ff ff 	mov    %rax,-0x1d0(%rbp)
    daba:	48 c7 85 38 fe ff ff 	movq   $0x0,-0x1c8(%rbp)
    dac1:	00 00 00 00 
    dac5:	48 8d 05 9c b2 00 00 	lea    0xb29c(%rip),%rax        # 18d68 <g_30>
    dacc:	48 89 85 40 fe ff ff 	mov    %rax,-0x1c0(%rbp)
    dad3:	48 8d 85 50 fe ff ff 	lea    -0x1b0(%rbp),%rax
    dada:	48 83 c0 08          	add    $0x8,%rax
    dade:	48 89 85 48 fe ff ff 	mov    %rax,-0x1b8(%rbp)
    dae5:	48 8d 05 c4 75 00 00 	lea    0x75c4(%rip),%rax        # 150b0 <g_166>
    daec:	48 89 85 90 fe ff ff 	mov    %rax,-0x170(%rbp)
    daf3:	48 8d 85 50 fe ff ff 	lea    -0x1b0(%rbp),%rax
    dafa:	48 83 c0 04          	add    $0x4,%rax
    dafe:	48 89 85 98 fe ff ff 	mov    %rax,-0x168(%rbp)
    db05:	48 8d 05 a4 75 00 00 	lea    0x75a4(%rip),%rax        # 150b0 <g_166>
    db0c:	48 89 85 a0 fe ff ff 	mov    %rax,-0x160(%rbp)
    db13:	48 8d 85 50 fe ff ff 	lea    -0x1b0(%rbp),%rax
    db1a:	48 83 c0 04          	add    $0x4,%rax
    db1e:	48 89 85 a8 fe ff ff 	mov    %rax,-0x158(%rbp)
    db25:	48 8d 05 84 75 00 00 	lea    0x7584(%rip),%rax        # 150b0 <g_166>
    db2c:	48 89 85 b0 fe ff ff 	mov    %rax,-0x150(%rbp)
    db33:	48 8d 85 50 fe ff ff 	lea    -0x1b0(%rbp),%rax
    db3a:	48 83 c0 04          	add    $0x4,%rax
    db3e:	48 89 85 b8 fe ff ff 	mov    %rax,-0x148(%rbp)
    db45:	48 8d 05 64 75 00 00 	lea    0x7564(%rip),%rax        # 150b0 <g_166>
    db4c:	48 89 85 c0 fe ff ff 	mov    %rax,-0x140(%rbp)
    db53:	48 8d 85 50 fe ff ff 	lea    -0x1b0(%rbp),%rax
    db5a:	48 83 c0 04          	add    $0x4,%rax
    db5e:	48 89 85 c8 fe ff ff 	mov    %rax,-0x138(%rbp)
    db65:	48 8d 05 44 75 00 00 	lea    0x7544(%rip),%rax        # 150b0 <g_166>
    db6c:	48 89 85 d0 fe ff ff 	mov    %rax,-0x130(%rbp)
    db73:	48 8d 85 e0 fe ff ff 	lea    -0x120(%rbp),%rax
    db7a:	48 8d 15 ff 44 00 00 	lea    0x44ff(%rip),%rdx        # 12080 <g_1650+0x8>
    db81:	b9 23 00 00 00       	mov    $0x23,%ecx
    db86:	48 89 c7             	mov    %rax,%rdi
    db89:	48 89 d6             	mov    %rdx,%rsi
    db8c:	f3 48 a5             	rep movsq %ds:(%rsi),%es:(%rdi)
    db8f:	c6 85 1f fe ff ff 00 	movb   $0x0,-0x1e1(%rbp)
    db96:	c7 85 70 fe ff ff 05 	movl   $0x5,-0x190(%rbp)
    db9d:	00 00 00 
    dba0:	c7 85 74 fe ff ff 05 	movl   $0x5,-0x18c(%rbp)
    dba7:	00 00 00 
    dbaa:	c7 85 78 fe ff ff 05 	movl   $0x5,-0x188(%rbp)
    dbb1:	00 00 00 
    dbb4:	c7 85 7c fe ff ff 05 	movl   $0x5,-0x184(%rbp)
    dbbb:	00 00 00 
    dbbe:	c7 85 80 fe ff ff 05 	movl   $0x5,-0x180(%rbp)
    dbc5:	00 00 00 
    dbc8:	c7 85 84 fe ff ff 05 	movl   $0x5,-0x17c(%rbp)
    dbcf:	00 00 00 
    dbd2:	c7 85 88 fe ff ff 05 	movl   $0x5,-0x178(%rbp)
    dbd9:	00 00 00 
    dbdc:	8b 85 84 fe ff ff    	mov    -0x17c(%rbp),%eax
    dbe2:	83 c0 01             	add    $0x1,%eax
    dbe5:	89 85 84 fe ff ff    	mov    %eax,-0x17c(%rbp)
    dbeb:	48 8b 85 30 fe ff ff 	mov    -0x1d0(%rbp),%rax
    dbf2:	8b 00                	mov    (%rax),%eax
    dbf4:	48 8b 4d f8          	mov    -0x8(%rbp),%rcx
    dbf8:	64 48 33 0c 25 28 00 	xor    %fs:0x28,%rcx
    dbff:	00 00 
    dc01:	74 05                	je     dc08 <func_60+0x1eb>
    dc03:	e8 68 94 ff ff       	callq  7070 <__stack_chk_fail@plt>
    dc08:	c9                   	leaveq 
    dc09:	c3                   	retq   

000000000000dc0a <func_64>:
    dc0a:	f3 0f 1e fa          	endbr64 
    dc0e:	55                   	push   %rbp
    dc0f:	48 89 e5             	mov    %rsp,%rbp
    dc12:	41 57                	push   %r15
    dc14:	41 56                	push   %r14
    dc16:	41 55                	push   %r13
    dc18:	41 54                	push   %r12
    dc1a:	53                   	push   %rbx
    dc1b:	48 81 ec 00 10 00 00 	sub    $0x1000,%rsp
    dc22:	48 83 0c 24 00       	orq    $0x0,(%rsp)
    dc27:	48 81 ec 38 01 00 00 	sub    $0x138,%rsp
    dc2e:	89 bd bc ee ff ff    	mov    %edi,-0x1144(%rbp)
    dc34:	48 89 b5 b0 ee ff ff 	mov    %rsi,-0x1150(%rbp)
    dc3b:	48 89 95 a8 ee ff ff 	mov    %rdx,-0x1158(%rbp)
    dc42:	48 89 8d a0 ee ff ff 	mov    %rcx,-0x1160(%rbp)
    dc49:	64 48 8b 04 25 28 00 	mov    %fs:0x28,%rax
    dc50:	00 00 
    dc52:	48 89 45 c8          	mov    %rax,-0x38(%rbp)
    dc56:	31 c0                	xor    %eax,%eax
    dc58:	48 c7 85 d0 f1 ff ff 	movq   $0x0,-0xe30(%rbp)
    dc5f:	00 00 00 00 
    dc63:	48 c7 85 d8 f1 ff ff 	movq   $0x0,-0xe28(%rbp)
    dc6a:	00 00 00 00 
    dc6e:	48 c7 85 e0 f1 ff ff 	movq   $0x0,-0xe20(%rbp)
    dc75:	00 00 00 00 
    dc79:	48 c7 85 e8 f1 ff ff 	movq   $0x0,-0xe18(%rbp)
    dc80:	00 00 00 00 
    dc84:	48 c7 85 f0 f1 ff ff 	movq   $0x0,-0xe10(%rbp)
    dc8b:	00 00 00 00 
    dc8f:	48 c7 85 f8 f1 ff ff 	movq   $0x0,-0xe08(%rbp)
    dc96:	00 00 00 00 
    dc9a:	48 c7 85 00 f2 ff ff 	movq   $0x0,-0xe00(%rbp)
    dca1:	00 00 00 00 
    dca5:	c6 85 c1 ee ff ff 05 	movb   $0x5,-0x113f(%rbp)
    dcac:	66 c7 85 c4 ee ff ff 	movw   $0x7476,-0x113c(%rbp)
    dcb3:	76 74 
    dcb5:	48 8d 05 f4 73 00 00 	lea    0x73f4(%rip),%rax        # 150b0 <g_166>
    dcbc:	48 89 85 d8 ef ff ff 	mov    %rax,-0x1028(%rbp)
    dcc3:	48 8d 85 40 f6 ff ff 	lea    -0x9c0(%rbp),%rax
    dcca:	48 8d 15 ef 96 00 00 	lea    0x96ef(%rip),%rdx        # 173c0 <g_2144+0x13f8>
    dcd1:	b9 8c 00 00 00       	mov    $0x8c,%ecx
    dcd6:	48 89 c7             	mov    %rax,%rdi
    dcd9:	48 89 d6             	mov    %rdx,%rsi
    dcdc:	f3 48 a5             	rep movsq %ds:(%rsi),%es:(%rdi)
    dcdf:	48 8d 85 40 f6 ff ff 	lea    -0x9c0(%rbp),%rax
    dce6:	48 05 00 01 00 00    	add    $0x100,%rax
    dcec:	48 89 85 70 ef ff ff 	mov    %rax,-0x1090(%rbp)
    dcf3:	48 8d 85 70 ef ff ff 	lea    -0x1090(%rbp),%rax
    dcfa:	48 89 85 e0 ef ff ff 	mov    %rax,-0x1020(%rbp)
    dd01:	48 c7 85 78 ef ff ff 	movq   $0x0,-0x1088(%rbp)
    dd08:	00 00 00 00 
    dd0c:	c7 85 d8 ee ff ff 4e 	movl   $0x425ee4e,-0x1128(%rbp)
    dd13:	ee 25 04 
    dd16:	c7 85 dc ee ff ff 00 	movl   $0x0,-0x1124(%rbp)
    dd1d:	00 00 00 
    dd20:	c7 85 e8 ee ff ff 2d 	movl   $0x5f3d8b2d,-0x1118(%rbp)
    dd27:	8b 3d 5f 
    dd2a:	48 8d 05 37 b0 00 00 	lea    0xb037(%rip),%rax        # 18d68 <g_30>
    dd31:	48 89 85 e8 ef ff ff 	mov    %rax,-0x1018(%rbp)
    dd38:	48 c7 85 f0 ef ff ff 	movq   $0x0,-0x1010(%rbp)
    dd3f:	00 00 00 00 
    dd43:	48 8d 05 8e a2 00 00 	lea    0xa28e(%rip),%rax        # 17fd8 <g_211+0x158>
    dd4a:	48 89 85 80 ef ff ff 	mov    %rax,-0x1080(%rbp)
    dd51:	48 8d 05 60 a1 00 00 	lea    0xa160(%rip),%rax        # 17eb8 <g_211+0x38>
    dd58:	48 89 85 a8 ef ff ff 	mov    %rax,-0x1058(%rbp)
    dd5f:	48 c7 85 b0 ef ff ff 	movq   $0x0,-0x1050(%rbp)
    dd66:	00 00 00 00 
    dd6a:	66 c7 85 c6 ee ff ff 	movw   $0x1,-0x113a(%rbp)
    dd71:	01 00 
    dd73:	48 8d 05 22 73 00 00 	lea    0x7322(%rip),%rax        # 1509c <g_107>
    dd7a:	48 89 85 88 ef ff ff 	mov    %rax,-0x1078(%rbp)
    dd81:	48 8d 05 78 a0 00 00 	lea    0xa078(%rip),%rax        # 17e00 <g_120+0x10>
    dd88:	48 89 85 b8 ef ff ff 	mov    %rax,-0x1048(%rbp)
    dd8f:	48 8d 85 90 f2 ff ff 	lea    -0xd70(%rbp),%rax
    dd96:	48 8d 15 03 44 00 00 	lea    0x4403(%rip),%rdx        # 121a0 <g_1650+0x128>
    dd9d:	b9 1f 00 00 00       	mov    $0x1f,%ecx
    dda2:	48 89 c7             	mov    %rax,%rdi
    dda5:	48 89 d6             	mov    %rdx,%rsi
    dda8:	f3 48 a5             	rep movsq %ds:(%rsi),%es:(%rdi)
    ddab:	48 89 f2             	mov    %rsi,%rdx
    ddae:	48 89 f8             	mov    %rdi,%rax
    ddb1:	8b 0a                	mov    (%rdx),%ecx
    ddb3:	89 08                	mov    %ecx,(%rax)
    ddb5:	48 b8 ed 89 43 7a 2d 	movabs $0x4088c32d7a4389ed,%rax
    ddbc:	c3 88 40 
    ddbf:	48 89 85 c0 ef ff ff 	mov    %rax,-0x1040(%rbp)
    ddc6:	48 8d 85 88 ef ff ff 	lea    -0x1078(%rbp),%rax
    ddcd:	48 89 85 90 ef ff ff 	mov    %rax,-0x1070(%rbp)
    ddd4:	48 8d 85 90 ef ff ff 	lea    -0x1070(%rbp),%rax
    dddb:	48 89 85 c8 ef ff ff 	mov    %rax,-0x1038(%rbp)
    dde2:	48 c7 85 d0 ef ff ff 	movq   $0xfffffffffffffff8,-0x1030(%rbp)
    dde9:	f8 ff ff ff 
    dded:	c7 85 e4 ee ff ff 00 	movl   $0x0,-0x111c(%rbp)
    ddf4:	00 00 00 
    ddf7:	eb 14                	jmp    de0d <func_64+0x203>
    ddf9:	8b 85 e4 ee ff ff    	mov    -0x111c(%rbp),%eax
    ddff:	48 98                	cltq   
    de01:	c6 44 05 bb 1e       	movb   $0x1e,-0x45(%rbp,%rax,1)
    de06:	83 85 e4 ee ff ff 01 	addl   $0x1,-0x111c(%rbp)
    de0d:	83 bd e4 ee ff ff 02 	cmpl   $0x2,-0x111c(%rbp)
    de14:	7e e3                	jle    ddf9 <func_64+0x1ef>
    de16:	c7 85 e4 ee ff ff 00 	movl   $0x0,-0x111c(%rbp)
    de1d:	00 00 00 
    de20:	eb 52                	jmp    de74 <func_64+0x26a>
    de22:	c7 85 0c ef ff ff 00 	movl   $0x0,-0x10f4(%rbp)
    de29:	00 00 00 
    de2c:	eb 36                	jmp    de64 <func_64+0x25a>
    de2e:	8b 85 0c ef ff ff    	mov    -0x10f4(%rbp),%eax
    de34:	48 63 c8             	movslq %eax,%rcx
    de37:	8b 85 e4 ee ff ff    	mov    -0x111c(%rbp),%eax
    de3d:	48 63 d0             	movslq %eax,%rdx
    de40:	48 89 d0             	mov    %rdx,%rax
    de43:	48 c1 e0 02          	shl    $0x2,%rax
    de47:	48 01 d0             	add    %rdx,%rax
    de4a:	48 8d 5d d0          	lea    -0x30(%rbp),%rbx
    de4e:	48 01 d8             	add    %rbx,%rax
    de51:	48 01 c8             	add    %rcx,%rax
    de54:	48 2d 45 0e 00 00    	sub    $0xe45,%rax
    de5a:	c6 00 f8             	movb   $0xf8,(%rax)
    de5d:	83 85 0c ef ff ff 01 	addl   $0x1,-0x10f4(%rbp)
    de64:	83 bd 0c ef ff ff 04 	cmpl   $0x4,-0x10f4(%rbp)
    de6b:	7e c1                	jle    de2e <func_64+0x224>
    de6d:	83 85 e4 ee ff ff 01 	addl   $0x1,-0x111c(%rbp)
    de74:	83 bd e4 ee ff ff 00 	cmpl   $0x0,-0x111c(%rbp)
    de7b:	7e a5                	jle    de22 <func_64+0x218>
    de7d:	48 8b 85 e0 f1 ff ff 	mov    -0xe20(%rbp),%rax
    de84:	48 85 c0             	test   %rax,%rax
    de87:	0f 94 c0             	sete   %al
    de8a:	0f b6 c0             	movzbl %al,%eax
    de8d:	89 85 bc ee ff ff    	mov    %eax,-0x1144(%rbp)
    de93:	8b 85 bc ee ff ff    	mov    -0x1144(%rbp),%eax
    de99:	85 c0                	test   %eax,%eax
    de9b:	0f 84 2d 10 00 00    	je     eece <func_64+0x12c4>
    dea1:	48 8d 05 c0 ae 00 00 	lea    0xaec0(%rip),%rax        # 18d68 <g_30>
    dea8:	48 89 85 00 f0 ff ff 	mov    %rax,-0x1000(%rbp)
    deaf:	48 8d 05 b2 ae 00 00 	lea    0xaeb2(%rip),%rax        # 18d68 <g_30>
    deb6:	48 89 85 f8 ef ff ff 	mov    %rax,-0x1008(%rbp)
    debd:	48 8d 05 dc 71 00 00 	lea    0x71dc(%rip),%rax        # 150a0 <g_113>
    dec4:	48 89 85 98 ef ff ff 	mov    %rax,-0x1068(%rbp)
    decb:	48 8d 85 98 ef ff ff 	lea    -0x1068(%rbp),%rax
    ded2:	48 89 85 70 f0 ff ff 	mov    %rax,-0xf90(%rbp)
    ded9:	c7 85 fc ee ff ff f9 	movl   $0xfffffff9,-0x1104(%rbp)
    dee0:	ff ff ff 
    dee3:	c7 85 1c ef ff ff fb 	movl   $0xfffffffb,-0x10e4(%rbp)
    deea:	ff ff ff 
    deed:	c7 85 e0 ee ff ff d8 	movl   $0xa8e1aed8,-0x1120(%rbp)
    def4:	ae e1 a8 
    def7:	c7 85 20 ef ff ff 01 	movl   $0x1,-0x10e0(%rbp)
    defe:	00 00 00 
    df01:	48 8d 85 40 f6 ff ff 	lea    -0x9c0(%rbp),%rax
    df08:	48 05 00 01 00 00    	add    $0x100,%rax
    df0e:	48 89 85 a0 ef ff ff 	mov    %rax,-0x1060(%rbp)
    df15:	c7 85 24 ef ff ff fd 	movl   $0xdb92c3fd,-0x10dc(%rbp)
    df1c:	c3 92 db 
    df1f:	48 c7 85 50 f2 ff ff 	movq   $0x0,-0xdb0(%rbp)
    df26:	00 00 00 00 
    df2a:	48 c7 85 58 f2 ff ff 	movq   $0x0,-0xda8(%rbp)
    df31:	00 00 00 00 
    df35:	48 c7 85 60 f2 ff ff 	movq   $0x0,-0xda0(%rbp)
    df3c:	00 00 00 00 
    df40:	48 c7 85 68 f2 ff ff 	movq   $0x0,-0xd98(%rbp)
    df47:	00 00 00 00 
    df4b:	48 c7 85 70 f2 ff ff 	movq   $0x0,-0xd90(%rbp)
    df52:	00 00 00 00 
    df56:	48 c7 85 78 f2 ff ff 	movq   $0x0,-0xd88(%rbp)
    df5d:	00 00 00 00 
    df61:	48 c7 85 80 f2 ff ff 	movq   $0x0,-0xd80(%rbp)
    df68:	00 00 00 00 
    df6c:	48 c7 85 88 f2 ff ff 	movq   $0x0,-0xd78(%rbp)
    df73:	00 00 00 00 
    df77:	48 8d 85 50 f2 ff ff 	lea    -0xdb0(%rbp),%rax
    df7e:	48 83 c0 28          	add    $0x28,%rax
    df82:	48 89 85 78 f0 ff ff 	mov    %rax,-0xf88(%rbp)
    df89:	c6 05 dc ad 00 00 00 	movb   $0x0,0xaddc(%rip)        # 18d6c <g_81>
    df90:	e9 76 0c 00 00       	jmpq   ec0b <func_64+0x1001>
    df95:	48 8d 05 04 71 00 00 	lea    0x7104(%rip),%rax        # 150a0 <g_113>
    df9c:	48 89 85 f8 f0 ff ff 	mov    %rax,-0xf08(%rbp)
    dfa3:	48 8d 45 bb          	lea    -0x45(%rbp),%rax
    dfa7:	48 83 c0 02          	add    $0x2,%rax
    dfab:	48 89 85 00 f1 ff ff 	mov    %rax,-0xf00(%rbp)
    dfb2:	48 8d 05 af ad 00 00 	lea    0xadaf(%rip),%rax        # 18d68 <g_30>
    dfb9:	48 89 85 a0 f1 ff ff 	mov    %rax,-0xe60(%rbp)
    dfc0:	48 8d 05 a1 ad 00 00 	lea    0xada1(%rip),%rax        # 18d68 <g_30>
    dfc7:	48 89 85 a8 f1 ff ff 	mov    %rax,-0xe58(%rbp)
    dfce:	48 8d 05 93 ad 00 00 	lea    0xad93(%rip),%rax        # 18d68 <g_30>
    dfd5:	48 89 85 b0 f1 ff ff 	mov    %rax,-0xe50(%rbp)
    dfdc:	48 8d 05 85 ad 00 00 	lea    0xad85(%rip),%rax        # 18d68 <g_30>
    dfe3:	48 89 85 b8 f1 ff ff 	mov    %rax,-0xe48(%rbp)
    dfea:	48 8d 05 77 ad 00 00 	lea    0xad77(%rip),%rax        # 18d68 <g_30>
    dff1:	48 89 85 c0 f1 ff ff 	mov    %rax,-0xe40(%rbp)
    dff8:	48 8d 05 69 ad 00 00 	lea    0xad69(%rip),%rax        # 18d68 <g_30>
    dfff:	48 89 85 c8 f1 ff ff 	mov    %rax,-0xe38(%rbp)
    e006:	48 8d 05 a3 70 00 00 	lea    0x70a3(%rip),%rax        # 150b0 <g_166>
    e00d:	48 89 85 08 f1 ff ff 	mov    %rax,-0xef8(%rbp)
    e014:	48 8d 85 90 f1 ff ff 	lea    -0xe70(%rbp),%rax
    e01b:	48 89 85 10 f1 ff ff 	mov    %rax,-0xef0(%rbp)
    e022:	48 8d 85 c4 ee ff ff 	lea    -0x113c(%rbp),%rax
    e029:	48 89 85 10 f2 ff ff 	mov    %rax,-0xdf0(%rbp)
    e030:	48 8d 85 c4 ee ff ff 	lea    -0x113c(%rbp),%rax
    e037:	48 89 85 18 f2 ff ff 	mov    %rax,-0xde8(%rbp)
    e03e:	48 8d 85 c4 ee ff ff 	lea    -0x113c(%rbp),%rax
    e045:	48 89 85 20 f2 ff ff 	mov    %rax,-0xde0(%rbp)
    e04c:	48 8d 85 c4 ee ff ff 	lea    -0x113c(%rbp),%rax
    e053:	48 89 85 28 f2 ff ff 	mov    %rax,-0xdd8(%rbp)
    e05a:	48 8d 85 c4 ee ff ff 	lea    -0x113c(%rbp),%rax
    e061:	48 89 85 30 f2 ff ff 	mov    %rax,-0xdd0(%rbp)
    e068:	48 8d 85 c4 ee ff ff 	lea    -0x113c(%rbp),%rax
    e06f:	48 89 85 38 f2 ff ff 	mov    %rax,-0xdc8(%rbp)
    e076:	48 8d 85 c4 ee ff ff 	lea    -0x113c(%rbp),%rax
    e07d:	48 89 85 40 f2 ff ff 	mov    %rax,-0xdc0(%rbp)
    e084:	c7 85 00 ef ff ff 00 	movl   $0x0,-0x1100(%rbp)
    e08b:	00 00 00 
    e08e:	eb 1e                	jmp    e0ae <func_64+0x4a4>
    e090:	8b 85 00 ef ff ff    	mov    -0x1100(%rbp),%eax
    e096:	48 98                	cltq   
    e098:	48 8d 15 f9 9c 00 00 	lea    0x9cf9(%rip),%rdx        # 17d98 <g_29+0x38>
    e09f:	48 89 94 c5 90 f1 ff 	mov    %rdx,-0xe70(%rbp,%rax,8)
    e0a6:	ff 
    e0a7:	83 85 00 ef ff ff 01 	addl   $0x1,-0x1100(%rbp)
    e0ae:	83 bd 00 ef ff ff 01 	cmpl   $0x1,-0x1100(%rbp)
    e0b5:	7e d9                	jle    e090 <func_64+0x486>
    e0b7:	48 8d 85 bc ee ff ff 	lea    -0x1144(%rbp),%rax
    e0be:	48 89 85 00 f0 ff ff 	mov    %rax,-0x1000(%rbp)
    e0c5:	48 8b 85 00 f0 ff ff 	mov    -0x1000(%rbp),%rax
    e0cc:	48 89 85 f8 ef ff ff 	mov    %rax,-0x1008(%rbp)
    e0d3:	48 8b 85 00 f0 ff ff 	mov    -0x1000(%rbp),%rax
    e0da:	c7 00 54 70 7c 01    	movl   $0x17c7054,(%rax)
    e0e0:	bb 94 1e 2a 94       	mov    $0x942a1e94,%ebx
    e0e5:	8b 85 bc ee ff ff    	mov    -0x1144(%rbp),%eax
    e0eb:	0f b7 d0             	movzwl %ax,%edx
    e0ee:	8b 85 bc ee ff ff    	mov    -0x1144(%rbp),%eax
    e0f4:	89 c1                	mov    %eax,%ecx
    e0f6:	48 8b 85 f8 f0 ff ff 	mov    -0xf08(%rbp),%rax
    e0fd:	89 08                	mov    %ecx,(%rax)
    e0ff:	48 8b 85 f8 ef ff ff 	mov    -0x1008(%rbp),%rax
    e106:	8b 00                	mov    (%rax),%eax
    e108:	83 f0 01             	xor    $0x1,%eax
    e10b:	0f b7 c0             	movzwl %ax,%eax
    e10e:	89 d6                	mov    %edx,%esi
    e110:	89 c7                	mov    %eax,%edi
    e112:	e8 e8 9b ff ff       	callq  7cff <safe_add_func_uint16_t_u_u>
    e117:	48 8b 85 f8 ef ff ff 	mov    -0x1008(%rbp),%rax
    e11e:	8b 00                	mov    (%rax),%eax
    e120:	89 de                	mov    %ebx,%esi
    e122:	89 c7                	mov    %eax,%edi
    e124:	e8 d6 95 ff ff       	callq  76ff <safe_div_func_int32_t_s_s>
    e129:	89 c3                	mov    %eax,%ebx
    e12b:	0f b6 45 bd          	movzbl -0x43(%rbp),%eax
    e12f:	0f b6 c0             	movzbl %al,%eax
    e132:	0f b7 15 1b 6f 00 00 	movzwl 0x6f1b(%rip),%edx        # 15054 <g_94+0x14>
    e139:	0f b7 d2             	movzwl %dx,%edx
    e13c:	83 e2 01             	and    $0x1,%edx
    e13f:	48 31 d0             	xor    %rdx,%rax
    e142:	48 be c5 15 45 6c e7 	movabs $0x17bc80e76c4515c5,%rsi
    e149:	80 bc 17 
    e14c:	48 89 c7             	mov    %rax,%rdi
    e14f:	e8 54 97 ff ff       	callq  78a8 <safe_sub_func_int64_t_s_s>
    e154:	89 de                	mov    %ebx,%esi
    e156:	89 c7                	mov    %eax,%edi
    e158:	e8 5b 9d ff ff       	callq  7eb8 <safe_add_func_uint32_t_u_u>
    e15d:	89 c2                	mov    %eax,%edx
    e15f:	8b 05 03 ac 00 00    	mov    0xac03(%rip),%eax        # 18d68 <g_30>
    e165:	21 c2                	and    %eax,%edx
    e167:	48 8b 85 00 f1 ff ff 	mov    -0xf00(%rbp),%rax
    e16e:	88 10                	mov    %dl,(%rax)
    e170:	48 8b 85 00 f1 ff ff 	mov    -0xf00(%rbp),%rax
    e177:	0f b6 00             	movzbl (%rax),%eax
    e17a:	0f b6 c0             	movzbl %al,%eax
    e17d:	be ab 00 00 00       	mov    $0xab,%esi
    e182:	89 c7                	mov    %eax,%edi
    e184:	e8 25 9a ff ff       	callq  7bae <safe_mod_func_uint8_t_u_u>
    e189:	0f b6 d0             	movzbl %al,%edx
    e18c:	8b 85 bc ee ff ff    	mov    -0x1144(%rbp),%eax
    e192:	39 c2                	cmp    %eax,%edx
    e194:	0f 9f c0             	setg   %al
    e197:	0f b6 d0             	movzbl %al,%edx
    e19a:	0f b6 85 8f f1 ff ff 	movzbl -0xe71(%rbp),%eax
    e1a1:	0f be c0             	movsbl %al,%eax
    e1a4:	39 c2                	cmp    %eax,%edx
    e1a6:	0f 8d f3 03 00 00    	jge    e59f <func_64+0x995>
    e1ac:	c7 85 60 ef ff ff ed 	movl   $0x692a35ed,-0x10a0(%rbp)
    e1b3:	35 2a 69 
    e1b6:	48 8d 85 a0 fa ff ff 	lea    -0x560(%rbp),%rax
    e1bd:	48 8d 15 5c 96 00 00 	lea    0x965c(%rip),%rdx        # 17820 <g_2144+0x1858>
    e1c4:	b9 a2 00 00 00       	mov    $0xa2,%ecx
    e1c9:	48 89 c7             	mov    %rax,%rdi
    e1cc:	48 89 d6             	mov    %rdx,%rsi
    e1cf:	f3 48 a5             	rep movsq %ds:(%rsi),%es:(%rdi)
    e1d2:	48 8d 05 8f ab 00 00 	lea    0xab8f(%rip),%rax        # 18d68 <g_30>
    e1d9:	48 89 85 90 f3 ff ff 	mov    %rax,-0xc70(%rbp)
    e1e0:	48 8d 05 81 ab 00 00 	lea    0xab81(%rip),%rax        # 18d68 <g_30>
    e1e7:	48 89 85 98 f3 ff ff 	mov    %rax,-0xc68(%rbp)
    e1ee:	48 8d 05 73 ab 00 00 	lea    0xab73(%rip),%rax        # 18d68 <g_30>
    e1f5:	48 89 85 a0 f3 ff ff 	mov    %rax,-0xc60(%rbp)
    e1fc:	48 8d 05 65 ab 00 00 	lea    0xab65(%rip),%rax        # 18d68 <g_30>
    e203:	48 89 85 a8 f3 ff ff 	mov    %rax,-0xc58(%rbp)
    e20a:	48 8d 05 57 ab 00 00 	lea    0xab57(%rip),%rax        # 18d68 <g_30>
    e211:	48 89 85 b0 f3 ff ff 	mov    %rax,-0xc50(%rbp)
    e218:	48 8d 05 49 ab 00 00 	lea    0xab49(%rip),%rax        # 18d68 <g_30>
    e21f:	48 89 85 b8 f3 ff ff 	mov    %rax,-0xc48(%rbp)
    e226:	48 8d 05 3b ab 00 00 	lea    0xab3b(%rip),%rax        # 18d68 <g_30>
    e22d:	48 89 85 c0 f3 ff ff 	mov    %rax,-0xc40(%rbp)
    e234:	48 8d 05 2d ab 00 00 	lea    0xab2d(%rip),%rax        # 18d68 <g_30>
    e23b:	48 89 85 c8 f3 ff ff 	mov    %rax,-0xc38(%rbp)
    e242:	c7 85 bc ee ff ff 00 	movl   $0x0,-0x1144(%rbp)
    e249:	00 00 00 
    e24c:	e9 d5 00 00 00       	jmpq   e326 <func_64+0x71c>
    e251:	c7 05 0d ab 00 00 04 	movl   $0x4,0xab0d(%rip)        # 18d68 <g_30>
    e258:	00 00 00 
    e25b:	e9 a9 00 00 00       	jmpq   e309 <func_64+0x6ff>
    e260:	0f b6 05 05 ab 00 00 	movzbl 0xab05(%rip),%eax        # 18d6c <g_81>
    e267:	0f be d0             	movsbl %al,%edx
    e26a:	0f b6 05 fb aa 00 00 	movzbl 0xaafb(%rip),%eax        # 18d6c <g_81>
    e271:	0f be c0             	movsbl %al,%eax
    e274:	0f b6 0d f1 aa 00 00 	movzbl 0xaaf1(%rip),%ecx        # 18d6c <g_81>
    e27b:	0f be c9             	movsbl %cl,%ecx
    e27e:	0f b6 35 e7 aa 00 00 	movzbl 0xaae7(%rip),%esi        # 18d6c <g_81>
    e285:	44 0f be c6          	movsbl %sil,%r8d
    e289:	0f b6 35 dc aa 00 00 	movzbl 0xaadc(%rip),%esi        # 18d6c <g_81>
    e290:	40 0f be fe          	movsbl %sil,%edi
    e294:	0f b6 35 d1 aa 00 00 	movzbl 0xaad1(%rip),%esi        # 18d6c <g_81>
    e29b:	40 0f be f6          	movsbl %sil,%esi
    e29f:	83 c6 02             	add    $0x2,%esi
    e2a2:	48 63 c9             	movslq %ecx,%rcx
    e2a5:	48 63 d2             	movslq %edx,%rdx
    e2a8:	48 98                	cltq   
    e2aa:	48 01 c2             	add    %rax,%rdx
    e2ad:	48 89 d0             	mov    %rdx,%rax
    e2b0:	48 c1 e0 03          	shl    $0x3,%rax
    e2b4:	48 29 d0             	sub    %rdx,%rax
    e2b7:	48 01 c8             	add    %rcx,%rax
    e2ba:	48 8b 8c c5 d0 f1 ff 	mov    -0xe30(%rbp,%rax,8),%rcx
    e2c1:	ff 
    e2c2:	48 63 f6             	movslq %esi,%rsi
    e2c5:	49 63 d0             	movslq %r8d,%rdx
    e2c8:	48 63 c7             	movslq %edi,%rax
    e2cb:	48 01 c2             	add    %rax,%rdx
    e2ce:	48 89 d0             	mov    %rdx,%rax
    e2d1:	48 c1 e0 03          	shl    $0x3,%rax
    e2d5:	48 29 d0             	sub    %rdx,%rax
    e2d8:	48 01 f0             	add    %rsi,%rax
    e2db:	48 89 8c c5 d0 f1 ff 	mov    %rcx,-0xe30(%rbp,%rax,8)
    e2e2:	ff 
    e2e3:	8b 85 bc ee ff ff    	mov    -0x1144(%rbp),%eax
    e2e9:	85 c0                	test   %eax,%eax
    e2eb:	75 0c                	jne    e2f9 <func_64+0x6ef>
    e2ed:	c7 85 60 ef ff ff 05 	movl   $0x5,-0x10a0(%rbp)
    e2f4:	00 00 00 
    e2f7:	eb 01                	jmp    e2fa <func_64+0x6f0>
    e2f9:	90                   	nop
    e2fa:	8b 05 68 aa 00 00    	mov    0xaa68(%rip),%eax        # 18d68 <g_30>
    e300:	83 e8 01             	sub    $0x1,%eax
    e303:	89 05 5f aa 00 00    	mov    %eax,0xaa5f(%rip)        # 18d68 <g_30>
    e309:	8b 05 59 aa 00 00    	mov    0xaa59(%rip),%eax        # 18d68 <g_30>
    e30f:	85 c0                	test   %eax,%eax
    e311:	0f 89 49 ff ff ff    	jns    e260 <func_64+0x656>
    e317:	8b 85 bc ee ff ff    	mov    -0x1144(%rbp),%eax
    e31d:	83 c0 01             	add    $0x1,%eax
    e320:	89 85 bc ee ff ff    	mov    %eax,-0x1144(%rbp)
    e326:	8b 85 bc ee ff ff    	mov    -0x1144(%rbp),%eax
    e32c:	83 f8 04             	cmp    $0x4,%eax
    e32f:	0f 8e 1c ff ff ff    	jle    e251 <func_64+0x647>
    e335:	c7 05 29 aa 00 00 04 	movl   $0x4,0xaa29(%rip)        # 18d68 <g_30>
    e33c:	00 00 00 
    e33f:	90                   	nop
    e340:	8b 05 22 aa 00 00    	mov    0xaa22(%rip),%eax        # 18d68 <g_30>
    e346:	85 c0                	test   %eax,%eax
    e348:	0f 88 5d 02 00 00    	js     e5ab <func_64+0x9a1>
    e34e:	48 8d 85 a0 fa ff ff 	lea    -0x560(%rbp),%rax
    e355:	48 83 c0 18          	add    $0x18,%rax
    e359:	48 89 85 78 f1 ff ff 	mov    %rax,-0xe88(%rbp)
    e360:	48 8d 05 41 6d 00 00 	lea    0x6d41(%rip),%rax        # 150a8 <g_131>
    e367:	48 89 85 80 f1 ff ff 	mov    %rax,-0xe80(%rbp)
    e36e:	c7 85 04 ef ff ff 00 	movl   $0x0,-0x10fc(%rbp)
    e375:	00 00 00 
    e378:	eb 7c                	jmp    e3f6 <func_64+0x7ec>
    e37a:	c7 85 08 ef ff ff 00 	movl   $0x0,-0x10f8(%rbp)
    e381:	00 00 00 
    e384:	eb 60                	jmp    e3e6 <func_64+0x7dc>
    e386:	c7 85 ec ee ff ff 00 	movl   $0x0,-0x1114(%rbp)
    e38d:	00 00 00 
    e390:	eb 44                	jmp    e3d6 <func_64+0x7cc>
    e392:	8b 85 ec ee ff ff    	mov    -0x1114(%rbp),%eax
    e398:	48 63 c8             	movslq %eax,%rcx
    e39b:	8b 85 04 ef ff ff    	mov    -0x10fc(%rbp),%eax
    e3a1:	48 63 d0             	movslq %eax,%rdx
    e3a4:	8b 85 08 ef ff ff    	mov    -0x10f8(%rbp),%eax
    e3aa:	48 63 f0             	movslq %eax,%rsi
    e3ad:	48 89 d0             	mov    %rdx,%rax
    e3b0:	48 01 c0             	add    %rax,%rax
    e3b3:	48 01 d0             	add    %rdx,%rax
    e3b6:	48 01 f0             	add    %rsi,%rax
    e3b9:	48 01 c0             	add    %rax,%rax
    e3bc:	48 8d 14 08          	lea    (%rax,%rcx,1),%rdx
    e3c0:	48 8d 85 90 f1 ff ff 	lea    -0xe70(%rbp),%rax
    e3c7:	48 89 84 d5 b0 f4 ff 	mov    %rax,-0xb50(%rbp,%rdx,8)
    e3ce:	ff 
    e3cf:	83 85 ec ee ff ff 01 	addl   $0x1,-0x1114(%rbp)
    e3d6:	83 bd ec ee ff ff 01 	cmpl   $0x1,-0x1114(%rbp)
    e3dd:	7e b3                	jle    e392 <func_64+0x788>
    e3df:	83 85 08 ef ff ff 01 	addl   $0x1,-0x10f8(%rbp)
    e3e6:	83 bd 08 ef ff ff 02 	cmpl   $0x2,-0x10f8(%rbp)
    e3ed:	7e 97                	jle    e386 <func_64+0x77c>
    e3ef:	83 85 04 ef ff ff 01 	addl   $0x1,-0x10fc(%rbp)
    e3f6:	83 bd 04 ef ff ff 01 	cmpl   $0x1,-0x10fc(%rbp)
    e3fd:	0f 8e 77 ff ff ff    	jle    e37a <func_64+0x770>
    e403:	48 8b 85 00 f0 ff ff 	mov    -0x1000(%rbp),%rax
    e40a:	8b 00                	mov    (%rax),%eax
    e40c:	89 c2                	mov    %eax,%edx
    e40e:	48 8b 85 00 f1 ff ff 	mov    -0xf00(%rbp),%rax
    e415:	88 10                	mov    %dl,(%rax)
    e417:	48 8b 85 00 f1 ff ff 	mov    -0xf00(%rbp),%rax
    e41e:	0f b6 00             	movzbl (%rax),%eax
    e421:	0f be d0             	movsbl %al,%edx
    e424:	8b 85 bc ee ff ff    	mov    -0x1144(%rbp),%eax
    e42a:	0f be c0             	movsbl %al,%eax
    e42d:	89 d6                	mov    %edx,%esi
    e42f:	89 c7                	mov    %eax,%edi
    e431:	e8 34 8e ff ff       	callq  726a <safe_div_func_int8_t_s_s>
    e436:	44 0f be e8          	movsbl %al,%r13d
    e43a:	0f b6 85 c1 ee ff ff 	movzbl -0x113f(%rbp),%eax
    e441:	66 98                	cbtw   
    e443:	0f b7 d8             	movzwl %ax,%ebx
    e446:	44 8b a5 bc ee ff ff 	mov    -0x1144(%rbp),%r12d
    e44d:	8b 05 49 6c 00 00    	mov    0x6c49(%rip),%eax        # 1509c <g_107>
    e453:	0f b7 c0             	movzwl %ax,%eax
    e456:	89 c6                	mov    %eax,%esi
    e458:	bf 01 00 00 00       	mov    $0x1,%edi
    e45d:	e8 fa 98 ff ff       	callq  7d5c <safe_mod_func_uint16_t_u_u>
    e462:	0f b7 c0             	movzwl %ax,%eax
    e465:	48 39 85 a0 ee ff ff 	cmp    %rax,-0x1160(%rbp)
    e46c:	0f 93 c0             	setae  %al
    e46f:	89 c2                	mov    %eax,%edx
    e471:	8b 05 29 6c 00 00    	mov    0x6c29(%rip),%eax        # 150a0 <g_113>
    e477:	21 d0                	and    %edx,%eax
    e479:	0f be c0             	movsbl %al,%eax
    e47c:	44 89 e6             	mov    %r12d,%esi
    e47f:	89 c7                	mov    %eax,%edi
    e481:	e8 af 8e ff ff       	callq  7335 <safe_rshift_func_int8_t_s_s>
    e486:	84 c0                	test   %al,%al
    e488:	74 11                	je     e49b <func_64+0x891>
    e48a:	8b 85 bc ee ff ff    	mov    -0x1144(%rbp),%eax
    e490:	85 c0                	test   %eax,%eax
    e492:	74 07                	je     e49b <func_64+0x891>
    e494:	b8 01 00 00 00       	mov    $0x1,%eax
    e499:	eb 05                	jmp    e4a0 <func_64+0x896>
    e49b:	b8 00 00 00 00       	mov    $0x0,%eax
    e4a0:	48 98                	cltq   
    e4a2:	48 be ce c4 5e c2 33 	movabs $0x313e7333c25ec4ce,%rsi
    e4a9:	73 3e 31 
    e4ac:	48 89 c7             	mov    %rax,%rdi
    e4af:	e8 cc 9b ff ff       	callq  8080 <safe_mod_func_uint64_t_u_u>
    e4b4:	48 8d 85 d0 f1 ff ff 	lea    -0xe30(%rbp),%rax
    e4bb:	48 83 c0 10          	add    $0x10,%rax
    e4bf:	48 39 85 a8 ee ff ff 	cmp    %rax,-0x1158(%rbp)
    e4c6:	0f 95 c0             	setne  %al
    e4c9:	0f b6 c0             	movzbl %al,%eax
    e4cc:	89 de                	mov    %ebx,%esi
    e4ce:	89 c7                	mov    %eax,%edi
    e4d0:	e8 2a 98 ff ff       	callq  7cff <safe_add_func_uint16_t_u_u>
    e4d5:	0f b7 d0             	movzwl %ax,%edx
    e4d8:	48 8b 85 80 f1 ff ff 	mov    -0xe80(%rbp),%rax
    e4df:	48 c7 00 01 00 00 00 	movq   $0x1,(%rax)
    e4e6:	48 8b 85 80 f1 ff ff 	mov    -0xe80(%rbp),%rax
    e4ed:	48 8b 00             	mov    (%rax),%rax
    e4f0:	48 89 d6             	mov    %rdx,%rsi
    e4f3:	48 89 c7             	mov    %rax,%rdi
    e4f6:	e8 fc 94 ff ff       	callq  79f7 <safe_div_func_int64_t_s_s>
    e4fb:	0f b6 c0             	movzbl %al,%eax
    e4fe:	be 07 00 00 00       	mov    $0x7,%esi
    e503:	89 c7                	mov    %eax,%edi
    e505:	e8 b4 97 ff ff       	callq  7cbe <safe_rshift_func_uint8_t_u_u>
    e50a:	0f b6 c0             	movzbl %al,%eax
    e50d:	44 89 ea             	mov    %r13d,%edx
    e510:	31 c2                	xor    %eax,%edx
    e512:	8b 05 84 6b 00 00    	mov    0x6b84(%rip),%eax        # 1509c <g_107>
    e518:	09 d0                	or     %edx,%eax
    e51a:	85 c0                	test   %eax,%eax
    e51c:	0f 94 c0             	sete   %al
    e51f:	0f b6 d0             	movzbl %al,%edx
    e522:	48 8b 85 a8 ee ff ff 	mov    -0x1158(%rbp),%rax
    e529:	48 89 05 d0 98 00 00 	mov    %rax,0x98d0(%rip)        # 17e00 <g_120+0x10>
    e530:	48 8b 35 c9 98 00 00 	mov    0x98c9(%rip),%rsi        # 17e00 <g_120+0x10>
    e537:	48 8b 8d 18 fd ff ff 	mov    -0x2e8(%rbp),%rcx
    e53e:	48 8b 85 78 f1 ff ff 	mov    -0xe88(%rbp),%rax
    e545:	48 89 08             	mov    %rcx,(%rax)
    e548:	48 8b 85 78 f1 ff ff 	mov    -0xe88(%rbp),%rax
    e54f:	48 8b 00             	mov    (%rax),%rax
    e552:	48 39 c6             	cmp    %rax,%rsi
    e555:	0f 95 c0             	setne  %al
    e558:	0f b6 c0             	movzbl %al,%eax
    e55b:	89 d6                	mov    %edx,%esi
    e55d:	89 c7                	mov    %eax,%edi
    e55f:	e8 d9 97 ff ff       	callq  7d3d <safe_mul_func_uint16_t_u_u>
    e564:	66 c7 85 d6 ee ff ff 	movw   $0x74a8,-0x112a(%rbp)
    e56b:	a8 74 
    e56d:	48 8d 85 bc ee ff ff 	lea    -0x1144(%rbp),%rax
    e574:	48 89 85 b8 f1 ff ff 	mov    %rax,-0xe48(%rbp)
    e57b:	8b 85 bc ee ff ff    	mov    -0x1144(%rbp),%eax
    e581:	89 c2                	mov    %eax,%edx
    e583:	0f b7 85 d6 ee ff ff 	movzwl -0x112a(%rbp),%eax
    e58a:	09 d0                	or     %edx,%eax
    e58c:	66 89 85 d6 ee ff ff 	mov    %ax,-0x112a(%rbp)
    e593:	48 8b 85 f0 f1 ff ff 	mov    -0xe10(%rbp),%rax
    e59a:	e9 3e 1e 00 00       	jmpq   103dd <func_64+0x27d3>
    e59f:	48 8b 85 d8 ef ff ff 	mov    -0x1028(%rbp),%rax
    e5a6:	e9 32 1e 00 00       	jmpq   103dd <func_64+0x27d3>
    e5ab:	66 c7 85 c4 ee ff ff 	movw   $0x0,-0x113c(%rbp)
    e5b2:	00 00 
    e5b4:	e9 2e 06 00 00       	jmpq   ebe7 <func_64+0xfdd>
    e5b9:	66 c7 85 d0 ee ff ff 	movw   $0x767c,-0x1130(%rbp)
    e5c0:	7c 76 
    e5c2:	c7 85 f0 ee ff ff 09 	movl   $0x9,-0x1110(%rbp)
    e5c9:	00 00 00 
    e5cc:	c7 85 64 ef ff ff f8 	movl   $0xfffffff8,-0x109c(%rbp)
    e5d3:	ff ff ff 
    e5d6:	48 c7 85 18 f1 ff ff 	movq   $0x0,-0xee8(%rbp)
    e5dd:	00 00 00 00 
    e5e1:	48 c7 85 20 f1 ff ff 	movq   $0x0,-0xee0(%rbp)
    e5e8:	00 00 00 00 
    e5ec:	83 bd fc ee ff ff 00 	cmpl   $0x0,-0x1104(%rbp)
    e5f3:	0f 84 fa 03 00 00    	je     e9f3 <func_64+0xde9>
    e5f9:	c7 85 68 ef ff ff be 	movl   $0x7e44bfbe,-0x1098(%rbp)
    e600:	bf 44 7e 
    e603:	48 8d 05 9e 6a 00 00 	lea    0x6a9e(%rip),%rax        # 150a8 <g_131>
    e60a:	48 89 85 28 f1 ff ff 	mov    %rax,-0xed8(%rbp)
    e611:	8b 05 85 6a 00 00    	mov    0x6a85(%rip),%eax        # 1509c <g_107>
    e617:	0f bf d8             	movswl %ax,%ebx
    e61a:	48 8b 85 00 f0 ff ff 	mov    -0x1000(%rbp),%rax
    e621:	44 8b 20             	mov    (%rax),%r12d
    e624:	48 8b 85 a0 ee ff ff 	mov    -0x1160(%rbp),%rax
    e62b:	0f b6 c0             	movzbl %al,%eax
    e62e:	be a3 00 00 00       	mov    $0xa3,%esi
    e633:	89 c7                	mov    %eax,%edi
    e635:	e8 3e 95 ff ff       	callq  7b78 <safe_sub_func_uint8_t_u_u>
    e63a:	0f b6 c0             	movzbl %al,%eax
    e63d:	41 39 c4             	cmp    %eax,%r12d
    e640:	0f 9c c0             	setl   %al
    e643:	0f b6 c0             	movzbl %al,%eax
    e646:	89 de                	mov    %ebx,%esi
    e648:	89 c7                	mov    %eax,%edi
    e64a:	e8 c7 8d ff ff       	callq  7416 <safe_mod_func_int16_t_s_s>
    e64f:	0f b7 c0             	movzwl %ax,%eax
    e652:	83 e0 02             	and    $0x2,%eax
    e655:	89 c1                	mov    %eax,%ecx
    e657:	0f b6 05 0e a7 00 00 	movzbl 0xa70e(%rip),%eax        # 18d6c <g_81>
    e65e:	0f be c0             	movsbl %al,%eax
    e661:	8d 50 03             	lea    0x3(%rax),%edx
    e664:	0f b6 05 01 a7 00 00 	movzbl 0xa701(%rip),%eax        # 18d6c <g_81>
    e66b:	0f be c0             	movsbl %al,%eax
    e66e:	83 c0 03             	add    $0x3,%eax
    e671:	48 63 f0             	movslq %eax,%rsi
    e674:	48 63 d2             	movslq %edx,%rdx
    e677:	48 89 d0             	mov    %rdx,%rax
    e67a:	48 c1 e0 02          	shl    $0x2,%rax
    e67e:	48 01 d0             	add    %rdx,%rax
    e681:	48 01 f0             	add    %rsi,%rax
    e684:	48 8d 14 00          	lea    (%rax,%rax,1),%rdx
    e688:	48 8d 05 b1 69 00 00 	lea    0x69b1(%rip),%rax        # 15040 <g_94>
    e68f:	66 c7 04 02 ff ff    	movw   $0xffff,(%rdx,%rax,1)
    e695:	89 ce                	mov    %ecx,%esi
    e697:	bf ff ff 00 00       	mov    $0xffff,%edi
    e69c:	e8 9c 96 ff ff       	callq  7d3d <safe_mul_func_uint16_t_u_u>
    e6a1:	48 8b 05 c8 97 00 00 	mov    0x97c8(%rip),%rax        # 17e70 <g_173>
    e6a8:	48 8b 10             	mov    (%rax),%rdx
    e6ab:	48 8b 85 70 ef ff ff 	mov    -0x1090(%rbp),%rax
    e6b2:	48 39 c2             	cmp    %rax,%rdx
    e6b5:	0f 95 c0             	setne  %al
    e6b8:	0f b6 c0             	movzbl %al,%eax
    e6bb:	48 23 85 a0 ee ff ff 	and    -0x1160(%rbp),%rax
    e6c2:	48 85 c0             	test   %rax,%rax
    e6c5:	0f 84 f1 00 00 00    	je     e7bc <func_64+0xbb2>
    e6cb:	c7 85 6c ef ff ff 1e 	movl   $0x28b6a91e,-0x1094(%rbp)
    e6d2:	a9 b6 28 
    e6d5:	48 8d 85 a0 ef ff ff 	lea    -0x1060(%rbp),%rax
    e6dc:	48 89 85 38 f1 ff ff 	mov    %rax,-0xec8(%rbp)
    e6e3:	48 8d 85 70 ef ff ff 	lea    -0x1090(%rbp),%rax
    e6ea:	48 89 85 a0 fa ff ff 	mov    %rax,-0x560(%rbp)
    e6f1:	48 8d 85 70 ef ff ff 	lea    -0x1090(%rbp),%rax
    e6f8:	48 89 85 a8 fa ff ff 	mov    %rax,-0x558(%rbp)
    e6ff:	48 8d 85 70 ef ff ff 	lea    -0x1090(%rbp),%rax
    e706:	48 89 85 b0 fa ff ff 	mov    %rax,-0x550(%rbp)
    e70d:	48 8d 85 70 ef ff ff 	lea    -0x1090(%rbp),%rax
    e714:	48 89 85 b8 fa ff ff 	mov    %rax,-0x548(%rbp)
    e71b:	48 8d 85 70 ef ff ff 	lea    -0x1090(%rbp),%rax
    e722:	48 89 85 c0 fa ff ff 	mov    %rax,-0x540(%rbp)
    e729:	48 8d 85 70 ef ff ff 	lea    -0x1090(%rbp),%rax
    e730:	48 89 85 c8 fa ff ff 	mov    %rax,-0x538(%rbp)
    e737:	48 8d 85 70 ef ff ff 	lea    -0x1090(%rbp),%rax
    e73e:	48 89 85 d0 fa ff ff 	mov    %rax,-0x530(%rbp)
    e745:	48 8d 85 70 ef ff ff 	lea    -0x1090(%rbp),%rax
    e74c:	48 89 85 d8 fa ff ff 	mov    %rax,-0x528(%rbp)
    e753:	48 8d 85 70 ef ff ff 	lea    -0x1090(%rbp),%rax
    e75a:	48 89 85 e0 fa ff ff 	mov    %rax,-0x520(%rbp)
    e761:	83 ad 6c ef ff ff 01 	subl   $0x1,-0x1094(%rbp)
    e768:	48 8b 95 a0 ef ff ff 	mov    -0x1060(%rbp),%rdx
    e76f:	48 8b 85 38 f1 ff ff 	mov    -0xec8(%rbp),%rax
    e776:	48 89 10             	mov    %rdx,(%rax)
    e779:	48 8b 85 38 f1 ff ff 	mov    -0xec8(%rbp),%rax
    e780:	48 8b 00             	mov    (%rax),%rax
    e783:	48 89 85 70 f0 ff ff 	mov    %rax,-0xf90(%rbp)
    e78a:	48 8b 05 af 95 00 00 	mov    0x95af(%rip),%rax        # 17d40 <g_4>
    e791:	8b 00                	mov    (%rax),%eax
    e793:	85 c0                	test   %eax,%eax
    e795:	0f 85 3a 04 00 00    	jne    ebd5 <func_64+0xfcb>
    e79b:	48 8b 85 f8 ef ff ff 	mov    -0x1008(%rbp),%rax
    e7a2:	8b 10                	mov    (%rax),%edx
    e7a4:	48 8b 85 f8 ef ff ff 	mov    -0x1008(%rbp),%rax
    e7ab:	89 10                	mov    %edx,(%rax)
    e7ad:	c7 85 f0 ee ff ff ef 	movl   $0xffffffef,-0x1110(%rbp)
    e7b4:	ff ff ff 
    e7b7:	e9 28 02 00 00       	jmpq   e9e4 <func_64+0xdda>
    e7bc:	66 c7 85 d2 ee ff ff 	movw   $0x1,-0x112e(%rbp)
    e7c3:	01 00 
    e7c5:	48 8d 05 a0 a5 00 00 	lea    0xa5a0(%rip),%rax        # 18d6c <g_81>
    e7cc:	48 89 85 30 f1 ff ff 	mov    %rax,-0xed0(%rbp)
    e7d3:	48 8b 85 10 f1 ff ff 	mov    -0xef0(%rbp),%rax
    e7da:	48 8b 00             	mov    (%rax),%rax
    e7dd:	48 8b 00             	mov    (%rax),%rax
    e7e0:	8b 08                	mov    (%rax),%ecx
    e7e2:	0f bf 95 d2 ee ff ff 	movswl -0x112e(%rbp),%edx
    e7e9:	48 8d 05 08 96 00 00 	lea    0x9608(%rip),%rax        # 17df8 <g_120+0x8>
    e7f0:	48 39 85 10 f1 ff ff 	cmp    %rax,-0xef0(%rbp)
    e7f7:	0f 95 c0             	setne  %al
    e7fa:	0f b6 c0             	movzbl %al,%eax
    e7fd:	39 c2                	cmp    %eax,%edx
    e7ff:	0f 9c c0             	setl   %al
    e802:	0f b6 d0             	movzbl %al,%edx
    e805:	48 8b 85 10 f1 ff ff 	mov    -0xef0(%rbp),%rax
    e80c:	48 8b 00             	mov    (%rax),%rax
    e80f:	48 8b 00             	mov    (%rax),%rax
    e812:	31 ca                	xor    %ecx,%edx
    e814:	89 10                	mov    %edx,(%rax)
    e816:	0f b7 05 63 68 00 00 	movzwl 0x6863(%rip),%eax        # 15080 <g_94+0x40>
    e81d:	0f b6 d8             	movzbl %al,%ebx
    e820:	48 8b 85 a0 ee ff ff 	mov    -0x1160(%rbp),%rax
    e827:	44 0f bf e0          	movswl %ax,%r12d
    e82b:	66 83 bd d2 ee ff ff 	cmpw   $0x1,-0x112e(%rbp)
    e832:	01 
    e833:	0f 9f c0             	setg   %al
    e836:	0f b6 d0             	movzbl %al,%edx
    e839:	48 8b 85 30 f1 ff ff 	mov    -0xed0(%rbp),%rax
    e840:	48 3b 85 18 f1 ff ff 	cmp    -0xee8(%rbp),%rax
    e847:	0f 94 c0             	sete   %al
    e84a:	0f b6 c0             	movzbl %al,%eax
    e84d:	89 d6                	mov    %edx,%esi
    e84f:	89 c7                	mov    %eax,%edi
    e851:	e8 af 93 ff ff       	callq  7c05 <safe_lshift_func_uint8_t_u_s>
    e856:	0f b6 c0             	movzbl %al,%eax
    e859:	48 8d 15 58 68 00 00 	lea    0x6858(%rip),%rdx        # 150b8 <g_189>
    e860:	48 89 15 21 96 00 00 	mov    %rdx,0x9621(%rip)        # 17e88 <g_211+0x8>
    e867:	89 c6                	mov    %eax,%esi
    e869:	bf 00 00 00 00       	mov    $0x0,%edi
    e86e:	e8 c2 8a ff ff       	callq  7335 <safe_rshift_func_int8_t_s_s>
    e873:	0f be c0             	movsbl %al,%eax
    e876:	44 89 e6             	mov    %r12d,%esi
    e879:	89 c7                	mov    %eax,%edi
    e87b:	e8 53 8b ff ff       	callq  73d3 <safe_sub_func_int16_t_s_s>
    e880:	0f b6 c0             	movzbl %al,%eax
    e883:	89 de                	mov    %ebx,%esi
    e885:	89 c7                	mov    %eax,%edi
    e887:	e8 22 93 ff ff       	callq  7bae <safe_mod_func_uint8_t_u_u>
    e88c:	84 c0                	test   %al,%al
    e88e:	0f 95 c0             	setne  %al
    e891:	0f b6 d0             	movzbl %al,%edx
    e894:	48 8b 85 d8 ef ff ff 	mov    -0x1028(%rbp),%rax
    e89b:	89 10                	mov    %edx,(%rax)
    e89d:	48 8b 85 20 f1 ff ff 	mov    -0xee0(%rbp),%rax
    e8a4:	e9 34 1b 00 00       	jmpq   103dd <func_64+0x27d3>
    e8a9:	48 c7 85 40 f1 ff ff 	movq   $0xfffffffffffffffc,-0xec0(%rbp)
    e8b0:	fc ff ff ff 
    e8b4:	48 8d 05 25 68 00 00 	lea    0x6825(%rip),%rax        # 150e0 <g_235>
    e8bb:	48 89 85 48 f1 ff ff 	mov    %rax,-0xeb8(%rbp)
    e8c2:	48 8d 85 70 ef ff ff 	lea    -0x1090(%rbp),%rax
    e8c9:	48 89 85 50 f1 ff ff 	mov    %rax,-0xeb0(%rbp)
    e8d0:	48 8b 85 10 f1 ff ff 	mov    -0xef0(%rbp),%rax
    e8d7:	48 8b 00             	mov    (%rax),%rax
    e8da:	48 8b 00             	mov    (%rax),%rax
    e8dd:	8b 00                	mov    (%rax),%eax
    e8df:	4c 63 f0             	movslq %eax,%r14
    e8e2:	48 8b 1d cf 67 00 00 	mov    0x67cf(%rip),%rbx        # 150b8 <g_189>
    e8e9:	48 8b 05 d0 67 00 00 	mov    0x67d0(%rip),%rax        # 150c0 <g_221>
    e8f0:	48 8b 05 c1 67 00 00 	mov    0x67c1(%rip),%rax        # 150b8 <g_189>
    e8f7:	48 89 c2             	mov    %rax,%rdx
    e8fa:	48 8b 85 48 f1 ff ff 	mov    -0xeb8(%rbp),%rax
    e901:	48 89 10             	mov    %rdx,(%rax)
    e904:	48 8b 85 48 f1 ff ff 	mov    -0xeb8(%rbp),%rax
    e90b:	4c 8b 20             	mov    (%rax),%r12
    e90e:	8b 85 bc ee ff ff    	mov    -0x1144(%rbp),%eax
    e914:	44 0f b6 e8          	movzbl %al,%r13d
    e918:	48 8b 85 40 f1 ff ff 	mov    -0xec0(%rbp),%rax
    e91f:	be 00 00 00 00       	mov    $0x0,%esi
    e924:	48 89 c7             	mov    %rax,%rdi
    e927:	e8 7c 8f ff ff       	callq  78a8 <safe_sub_func_int64_t_s_s>
    e92c:	98                   	cwtl   
    e92d:	89 c7                	mov    %eax,%edi
    e92f:	e8 69 8a ff ff       	callq  739d <safe_unary_minus_func_int16_t_s>
    e934:	0f b6 c0             	movzbl %al,%eax
    e937:	44 89 ee             	mov    %r13d,%esi
    e93a:	89 c7                	mov    %eax,%edi
    e93c:	e8 52 92 ff ff       	callq  7b93 <safe_mul_func_uint8_t_u_u>
    e941:	0f b6 c0             	movzbl %al,%eax
    e944:	be 0f 00 00 00       	mov    $0xf,%esi
    e949:	89 c7                	mov    %eax,%edi
    e94b:	e8 b6 94 ff ff       	callq  7e06 <safe_lshift_func_uint16_t_u_u>
    e950:	0f b7 c0             	movzwl %ax,%eax
    e953:	4c 89 e6             	mov    %r12,%rsi
    e956:	48 89 c7             	mov    %rax,%rdi
    e959:	e8 d0 96 ff ff       	callq  802e <safe_add_func_uint64_t_u_u>
    e95e:	48 8d 85 70 ef ff ff 	lea    -0x1090(%rbp),%rax
    e965:	48 39 85 50 f1 ff ff 	cmp    %rax,-0xeb0(%rbp)
    e96c:	0f 94 c0             	sete   %al
    e96f:	0f b6 c0             	movzbl %al,%eax
    e972:	48 8b 95 a0 ee ff ff 	mov    -0x1160(%rbp),%rdx
    e979:	31 d0                	xor    %edx,%eax
    e97b:	89 c2                	mov    %eax,%edx
    e97d:	48 8b 85 08 f1 ff ff 	mov    -0xef8(%rbp),%rax
    e984:	89 10                	mov    %edx,(%rax)
    e986:	48 8b 85 08 f1 ff ff 	mov    -0xef8(%rbp),%rax
    e98d:	8b 00                	mov    (%rax),%eax
    e98f:	be 12 ba ca 0d       	mov    $0xdcaba12,%esi
    e994:	89 c7                	mov    %eax,%edi
    e996:	e8 31 8d ff ff       	callq  76cc <safe_mod_func_int32_t_s_s>
    e99b:	48 89 de             	mov    %rbx,%rsi
    e99e:	48 bf 4b 03 20 82 71 	movabs $0xfe8f8b718220034b,%rdi
    e9a5:	8b 8f fe 
    e9a8:	e8 4a 90 ff ff       	callq  79f7 <safe_div_func_int64_t_s_s>
    e9ad:	49 39 c6             	cmp    %rax,%r14
    e9b0:	0f 95 c0             	setne  %al
    e9b3:	0f b6 c0             	movzbl %al,%eax
    e9b6:	ba 94 1e 2a 94       	mov    $0x942a1e94,%edx
    e9bb:	09 c2                	or     %eax,%edx
    e9bd:	48 8b 85 f8 ef ff ff 	mov    -0x1008(%rbp),%rax
    e9c4:	89 10                	mov    %edx,(%rax)
    e9c6:	8b 85 f0 ee ff ff    	mov    -0x1110(%rbp),%eax
    e9cc:	0f b7 c0             	movzwl %ax,%eax
    e9cf:	be 02 00 00 00       	mov    $0x2,%esi
    e9d4:	89 c7                	mov    %eax,%edi
    e9d6:	e8 24 93 ff ff       	callq  7cff <safe_add_func_uint16_t_u_u>
    e9db:	0f b7 c0             	movzwl %ax,%eax
    e9de:	89 85 f0 ee ff ff    	mov    %eax,-0x1110(%rbp)
    e9e4:	83 bd f0 ee ff ff fd 	cmpl   $0xfffffffd,-0x1110(%rbp)
    e9eb:	0f 84 b8 fe ff ff    	je     e8a9 <func_64+0xc9f>
    e9f1:	eb 1a                	jmp    ea0d <func_64+0xe03>
    e9f3:	48 8b 85 10 f1 ff ff 	mov    -0xef0(%rbp),%rax
    e9fa:	48 8b 10             	mov    (%rax),%rdx
    e9fd:	48 8b 85 10 f1 ff ff 	mov    -0xef0(%rbp),%rax
    ea04:	48 8b 00             	mov    (%rax),%rax
    ea07:	48 8b 12             	mov    (%rdx),%rdx
    ea0a:	48 89 10             	mov    %rdx,(%rax)
    ea0d:	48 8b 85 f8 ef ff ff 	mov    -0x1008(%rbp),%rax
    ea14:	8b 00                	mov    (%rax),%eax
    ea16:	85 c0                	test   %eax,%eax
    ea18:	0f 85 dc 01 00 00    	jne    ebfa <func_64+0xff0>
    ea1e:	48 c7 05 7f 66 00 00 	movq   $0x3,0x667f(%rip)        # 150a8 <g_131>
    ea25:	03 00 00 00 
    ea29:	e9 95 01 00 00       	jmpq   ebc3 <func_64+0xfb9>
    ea2e:	66 c7 85 d4 ee ff ff 	movw   $0xffff,-0x112c(%rbp)
    ea35:	ff ff 
    ea37:	48 8d 05 42 97 00 00 	lea    0x9742(%rip),%rax        # 18180 <g_241>
    ea3e:	48 89 85 58 f1 ff ff 	mov    %rax,-0xea8(%rbp)
    ea45:	48 8d 85 70 ef ff ff 	lea    -0x1090(%rbp),%rax
    ea4c:	48 89 85 60 f1 ff ff 	mov    %rax,-0xea0(%rbp)
    ea53:	48 8d 85 8b f1 ff ff 	lea    -0xe75(%rbp),%rax
    ea5a:	48 83 c0 04          	add    $0x4,%rax
    ea5e:	48 89 85 68 f1 ff ff 	mov    %rax,-0xe98(%rbp)
    ea65:	48 8d 85 c1 ee ff ff 	lea    -0x113f(%rbp),%rax
    ea6c:	48 89 85 70 f1 ff ff 	mov    %rax,-0xe90(%rbp)
    ea73:	48 8b 85 f8 ef ff ff 	mov    -0x1008(%rbp),%rax
    ea7a:	8b 00                	mov    (%rax),%eax
    ea7c:	35 fb fe 20 43       	xor    $0x4320fefb,%eax
    ea81:	89 c2                	mov    %eax,%edx
    ea83:	48 8b 85 f8 ef ff ff 	mov    -0x1008(%rbp),%rax
    ea8a:	89 10                	mov    %edx,(%rax)
    ea8c:	48 8b 85 60 f1 ff ff 	mov    -0xea0(%rbp),%rax
    ea93:	48 c7 00 00 00 00 00 	movq   $0x0,(%rax)
    ea9a:	48 8b 85 60 f1 ff ff 	mov    -0xea0(%rbp),%rax
    eaa1:	48 8b 00             	mov    (%rax),%rax
    eaa4:	48 8d 95 40 f6 ff ff 	lea    -0x9c0(%rbp),%rdx
    eaab:	48 81 c2 10 03 00 00 	add    $0x310,%rdx
    eab2:	48 39 d0             	cmp    %rdx,%rax
    eab5:	44 0f b7 a5 d4 ee ff 	movzwl -0x112c(%rbp),%r12d
    eabc:	ff 
    eabd:	0f b6 05 a8 a2 00 00 	movzbl 0xa2a8(%rip),%eax        # 18d6c <g_81>
    eac4:	0f b6 d8             	movzbl %al,%ebx
    eac7:	48 8b 85 68 f1 ff ff 	mov    -0xe98(%rbp),%rax
    eace:	c6 00 23             	movb   $0x23,(%rax)
    ead1:	8b 85 24 ef ff ff    	mov    -0x10dc(%rbp),%eax
    ead7:	0f bf d0             	movswl %ax,%edx
    eada:	48 8b 05 9f 96 00 00 	mov    0x969f(%rip),%rax        # 18180 <g_241>
    eae1:	0f b7 00             	movzwl (%rax),%eax
    eae4:	98                   	cwtl   
    eae5:	89 d6                	mov    %edx,%esi
    eae7:	89 c7                	mov    %eax,%edi
    eae9:	e8 07 89 ff ff       	callq  73f5 <safe_mul_func_int16_t_s_s>
    eaee:	48 83 bd a0 ee ff ff 	cmpq   $0x1,-0x1160(%rbp)
    eaf5:	01 
    eaf6:	0f 95 c0             	setne  %al
    eaf9:	89 c2                	mov    %eax,%edx
    eafb:	48 8b 85 70 f1 ff ff 	mov    -0xe90(%rbp),%rax
    eb02:	88 10                	mov    %dl,(%rax)
    eb04:	48 8b 85 70 f1 ff ff 	mov    -0xe90(%rbp),%rax
    eb0b:	0f b6 08             	movzbl (%rax),%ecx
    eb0e:	48 8b 85 d8 ef ff ff 	mov    -0x1028(%rbp),%rax
    eb15:	8b 10                	mov    (%rax),%edx
    eb17:	0f be c1             	movsbl %cl,%eax
    eb1a:	31 c2                	xor    %eax,%edx
    eb1c:	48 8b 85 d8 ef ff ff 	mov    -0x1028(%rbp),%rax
    eb23:	89 10                	mov    %edx,(%rax)
    eb25:	48 8b 85 d8 ef ff ff 	mov    -0x1028(%rbp),%rax
    eb2c:	8b 00                	mov    (%rax),%eax
    eb2e:	0f be c0             	movsbl %al,%eax
    eb31:	be f8 ff ff ff       	mov    $0xfffffff8,%esi
    eb36:	89 c7                	mov    %eax,%edi
    eb38:	e8 d5 86 ff ff       	callq  7212 <safe_mul_func_int8_t_s_s>
    eb3d:	0f be d0             	movsbl %al,%edx
    eb40:	8b 05 56 65 00 00    	mov    0x6556(%rip),%eax        # 1509c <g_107>
    eb46:	39 c2                	cmp    %eax,%edx
    eb48:	0f 9c c0             	setl   %al
    eb4b:	0f b6 c0             	movzbl %al,%eax
    eb4e:	89 de                	mov    %ebx,%esi
    eb50:	89 c7                	mov    %eax,%edi
    eb52:	e8 03 90 ff ff       	callq  7b5a <safe_add_func_uint8_t_u_u>
    eb57:	8b 15 97 65 00 00    	mov    0x6597(%rip),%edx        # 150f4 <g_261+0x4>
    eb5d:	0f b6 c0             	movzbl %al,%eax
    eb60:	21 d0                	and    %edx,%eax
    eb62:	89 05 8c 65 00 00    	mov    %eax,0x658c(%rip)        # 150f4 <g_261+0x4>
    eb68:	8b 05 86 65 00 00    	mov    0x6586(%rip),%eax        # 150f4 <g_261+0x4>
    eb6e:	0f b6 c0             	movzbl %al,%eax
    eb71:	be 07 00 00 00       	mov    $0x7,%esi
    eb76:	89 c7                	mov    %eax,%edi
    eb78:	e8 cf 90 ff ff       	callq  7c4c <safe_lshift_func_uint8_t_u_u>
    eb7d:	0f b6 c0             	movzbl %al,%eax
    eb80:	44 89 e2             	mov    %r12d,%edx
    eb83:	09 c2                	or     %eax,%edx
    eb85:	48 8b 85 f8 ef ff ff 	mov    -0x1008(%rbp),%rax
    eb8c:	8b 00                	mov    (%rax),%eax
    eb8e:	09 c2                	or     %eax,%edx
    eb90:	48 8b 85 f8 ef ff ff 	mov    -0x1008(%rbp),%rax
    eb97:	89 10                	mov    %edx,(%rax)
    eb99:	48 8b 85 10 f1 ff ff 	mov    -0xef0(%rbp),%rax
    eba0:	48 8b 00             	mov    (%rax),%rax
    eba3:	48 8b 00             	mov    (%rax),%rax
    eba6:	48 8b 95 f8 ef ff ff 	mov    -0x1008(%rbp),%rdx
    ebad:	8b 12                	mov    (%rdx),%edx
    ebaf:	89 10                	mov    %edx,(%rax)
    ebb1:	48 8b 05 f0 64 00 00 	mov    0x64f0(%rip),%rax        # 150a8 <g_131>
    ebb8:	48 83 e8 01          	sub    $0x1,%rax
    ebbc:	48 89 05 e5 64 00 00 	mov    %rax,0x64e5(%rip)        # 150a8 <g_131>
    ebc3:	48 8b 05 de 64 00 00 	mov    0x64de(%rip),%rax        # 150a8 <g_131>
    ebca:	48 85 c0             	test   %rax,%rax
    ebcd:	0f 89 5b fe ff ff    	jns    ea2e <func_64+0xe24>
    ebd3:	eb 01                	jmp    ebd6 <func_64+0xfcc>
    ebd5:	90                   	nop
    ebd6:	0f b7 85 c4 ee ff ff 	movzwl -0x113c(%rbp),%eax
    ebdd:	83 c0 01             	add    $0x1,%eax
    ebe0:	66 89 85 c4 ee ff ff 	mov    %ax,-0x113c(%rbp)
    ebe7:	0f b7 85 c4 ee ff ff 	movzwl -0x113c(%rbp),%eax
    ebee:	66 83 f8 04          	cmp    $0x4,%ax
    ebf2:	0f 8e c1 f9 ff ff    	jle    e5b9 <func_64+0x9af>
    ebf8:	eb 01                	jmp    ebfb <func_64+0xff1>
    ebfa:	90                   	nop
    ebfb:	0f b6 05 6a a1 00 00 	movzbl 0xa16a(%rip),%eax        # 18d6c <g_81>
    ec02:	83 e8 01             	sub    $0x1,%eax
    ec05:	88 05 61 a1 00 00    	mov    %al,0xa161(%rip)        # 18d6c <g_81>
    ec0b:	0f b6 05 5a a1 00 00 	movzbl 0xa15a(%rip),%eax        # 18d6c <g_81>
    ec12:	84 c0                	test   %al,%al
    ec14:	0f 89 7b f3 ff ff    	jns    df95 <func_64+0x38b>
    ec1a:	48 8b 85 b0 ee ff ff 	mov    -0x1150(%rbp),%rax
    ec21:	48 8d 15 2c 64 00 00 	lea    0x642c(%rip),%rdx        # 15054 <g_94+0x14>
    ec28:	48 39 d0             	cmp    %rdx,%rax
    ec2b:	0f b6 05 f4 63 00 00 	movzbl 0x63f4(%rip),%eax        # 15026 <g_87>
    ec32:	84 c0                	test   %al,%al
    ec34:	74 0e                	je     ec44 <func_64+0x103a>
    ec36:	48 8d 05 33 a1 00 00 	lea    0xa133(%rip),%rax        # 18d70 <g_172>
    ec3d:	48 39 85 e0 ef ff ff 	cmp    %rax,-0x1020(%rbp)
    ec44:	48 8b 85 f8 ef ff ff 	mov    -0x1008(%rbp),%rax
    ec4b:	8b 00                	mov    (%rax),%eax
    ec4d:	f7 d0                	not    %eax
    ec4f:	89 c2                	mov    %eax,%edx
    ec51:	48 8b 85 f8 ef ff ff 	mov    -0x1008(%rbp),%rax
    ec58:	89 10                	mov    %edx,(%rax)
    ec5a:	48 8b 85 f8 ef ff ff 	mov    -0x1008(%rbp),%rax
    ec61:	8b 00                	mov    (%rax),%eax
    ec63:	85 c0                	test   %eax,%eax
    ec65:	74 08                	je     ec6f <func_64+0x1065>
    ec67:	48 83 bd a0 ee ff ff 	cmpq   $0x0,-0x1160(%rbp)
    ec6e:	00 
    ec6f:	48 8b 85 b0 ee ff ff 	mov    -0x1150(%rbp),%rax
    ec76:	0f b7 00             	movzwl (%rax),%eax
    ec79:	0f b7 d0             	movzwl %ax,%edx
    ec7c:	48 8b 85 00 f0 ff ff 	mov    -0x1000(%rbp),%rax
    ec83:	8b 00                	mov    (%rax),%eax
    ec85:	31 d0                	xor    %edx,%eax
    ec87:	be f8 ff ff ff       	mov    $0xfffffff8,%esi
    ec8c:	89 c7                	mov    %eax,%edi
    ec8e:	e8 39 8a ff ff       	callq  76cc <safe_mod_func_int32_t_s_s>
    ec93:	89 85 20 ef ff ff    	mov    %eax,-0x10e0(%rbp)
    ec99:	8b 85 20 ef ff ff    	mov    -0x10e0(%rbp),%eax
    ec9f:	89 85 e0 ee ff ff    	mov    %eax,-0x1120(%rbp)
    eca5:	8b 95 e0 ee ff ff    	mov    -0x1120(%rbp),%edx
    ecab:	48 8b 85 d8 ef ff ff 	mov    -0x1028(%rbp),%rax
    ecb2:	8b 00                	mov    (%rax),%eax
    ecb4:	89 c1                	mov    %eax,%ecx
    ecb6:	48 8b 85 a0 ee ff ff 	mov    -0x1160(%rbp),%rax
    ecbd:	09 c8                	or     %ecx,%eax
    ecbf:	89 c1                	mov    %eax,%ecx
    ecc1:	48 8b 85 d8 ef ff ff 	mov    -0x1028(%rbp),%rax
    ecc8:	89 08                	mov    %ecx,(%rax)
    ecca:	48 8b 85 d8 ef ff ff 	mov    -0x1028(%rbp),%rax
    ecd1:	8b 00                	mov    (%rax),%eax
    ecd3:	83 f8 04             	cmp    $0x4,%eax
    ecd6:	0f 97 c0             	seta   %al
    ecd9:	0f b6 c0             	movzbl %al,%eax
    ecdc:	89 d6                	mov    %edx,%esi
    ecde:	89 c7                	mov    %eax,%edi
    ece0:	e8 20 89 ff ff       	callq  7605 <safe_sub_func_int32_t_s_s>
    ece5:	09 85 1c ef ff ff    	or     %eax,-0x10e4(%rbp)
    eceb:	c7 85 fc ee ff ff 03 	movl   $0x3,-0x1104(%rbp)
    ecf2:	00 00 00 
    ecf5:	e9 c2 01 00 00       	jmpq   eebc <func_64+0x12b2>
    ecfa:	48 8d 85 e0 ee ff ff 	lea    -0x1120(%rbp),%rax
    ed01:	48 89 85 d8 f0 ff ff 	mov    %rax,-0xf28(%rbp)
    ed08:	48 8d 85 c4 ee ff ff 	lea    -0x113c(%rbp),%rax
    ed0f:	48 89 85 e0 f0 ff ff 	mov    %rax,-0xf20(%rbp)
    ed16:	c7 85 5c ef ff ff e8 	movl   $0xb7105de8,-0x10a4(%rbp)
    ed1d:	5d 10 b7 
    ed20:	c7 05 3e a0 00 00 00 	movl   $0x0,0xa03e(%rip)        # 18d68 <g_30>
    ed27:	00 00 00 
    ed2a:	eb 64                	jmp    ed90 <func_64+0x1186>
    ed2c:	c7 85 e0 ee ff ff 00 	movl   $0x0,-0x1120(%rbp)
    ed33:	00 00 00 
    ed36:	eb 3e                	jmp    ed76 <func_64+0x116c>
    ed38:	8b 05 2a a0 00 00    	mov    0xa02a(%rip),%eax        # 18d68 <g_30>
    ed3e:	8b 95 e0 ee ff ff    	mov    -0x1120(%rbp),%edx
    ed44:	48 63 ca             	movslq %edx,%rcx
    ed47:	48 63 d0             	movslq %eax,%rdx
    ed4a:	48 89 d0             	mov    %rdx,%rax
    ed4d:	48 c1 e0 02          	shl    $0x2,%rax
    ed51:	48 01 d0             	add    %rdx,%rax
    ed54:	48 8d 5d d0          	lea    -0x30(%rbp),%rbx
    ed58:	48 01 d8             	add    %rbx,%rax
    ed5b:	48 01 c8             	add    %rcx,%rax
    ed5e:	48 2d 45 0e 00 00    	sub    $0xe45,%rax
    ed64:	c6 00 a9             	movb   $0xa9,(%rax)
    ed67:	8b 85 e0 ee ff ff    	mov    -0x1120(%rbp),%eax
    ed6d:	83 c0 01             	add    $0x1,%eax
    ed70:	89 85 e0 ee ff ff    	mov    %eax,-0x1120(%rbp)
    ed76:	8b 85 e0 ee ff ff    	mov    -0x1120(%rbp),%eax
    ed7c:	83 f8 04             	cmp    $0x4,%eax
    ed7f:	7e b7                	jle    ed38 <func_64+0x112e>
    ed81:	8b 05 e1 9f 00 00    	mov    0x9fe1(%rip),%eax        # 18d68 <g_30>
    ed87:	83 c0 01             	add    $0x1,%eax
    ed8a:	89 05 d8 9f 00 00    	mov    %eax,0x9fd8(%rip)        # 18d68 <g_30>
    ed90:	8b 05 d2 9f 00 00    	mov    0x9fd2(%rip),%eax        # 18d68 <g_30>
    ed96:	85 c0                	test   %eax,%eax
    ed98:	7e 92                	jle    ed2c <func_64+0x1122>
    ed9a:	66 c7 85 c4 ee ff ff 	movw   $0x0,-0x113c(%rbp)
    eda1:	00 00 
    eda3:	e9 fc 00 00 00       	jmpq   eea4 <func_64+0x129a>
    eda8:	48 c7 85 e8 f0 ff ff 	movq   $0x0,-0xf18(%rbp)
    edaf:	00 00 00 00 
    edb3:	48 8d 05 f6 62 00 00 	lea    0x62f6(%rip),%rax        # 150b0 <g_166>
    edba:	48 89 85 f0 f0 ff ff 	mov    %rax,-0xf10(%rbp)
    edc1:	c7 85 a0 fa ff ff be 	movl   $0xb2c214be,-0x560(%rbp)
    edc8:	14 c2 b2 
    edcb:	c7 85 a4 fa ff ff 00 	movl   $0x0,-0x55c(%rbp)
    edd2:	00 00 00 
    edd5:	c7 85 a8 fa ff ff 00 	movl   $0x0,-0x558(%rbp)
    eddc:	00 00 00 
    eddf:	c7 85 ac fa ff ff be 	movl   $0xb2c214be,-0x554(%rbp)
    ede6:	14 c2 b2 
    ede9:	c7 85 b0 fa ff ff 00 	movl   $0x0,-0x550(%rbp)
    edf0:	00 00 00 
    edf3:	c7 85 b4 fa ff ff 00 	movl   $0x0,-0x54c(%rbp)
    edfa:	00 00 00 
    edfd:	c7 85 b8 fa ff ff be 	movl   $0xb2c214be,-0x548(%rbp)
    ee04:	14 c2 b2 
    ee07:	c7 85 bc fa ff ff 00 	movl   $0x0,-0x544(%rbp)
    ee0e:	00 00 00 
    ee11:	c7 85 c0 fa ff ff 00 	movl   $0x0,-0x540(%rbp)
    ee18:	00 00 00 
    ee1b:	c7 85 c4 fa ff ff be 	movl   $0xb2c214be,-0x53c(%rbp)
    ee22:	14 c2 b2 
    ee25:	c7 85 c8 fa ff ff 00 	movl   $0x0,-0x538(%rbp)
    ee2c:	00 00 00 
    ee2f:	c7 85 cc fa ff ff 00 	movl   $0x0,-0x534(%rbp)
    ee36:	00 00 00 
    ee39:	c7 85 d0 fa ff ff be 	movl   $0xb2c214be,-0x530(%rbp)
    ee40:	14 c2 b2 
    ee43:	c7 85 d4 fa ff ff 00 	movl   $0x0,-0x52c(%rbp)
    ee4a:	00 00 00 
    ee4d:	c7 85 d8 fa ff ff 00 	movl   $0x0,-0x528(%rbp)
    ee54:	00 00 00 
    ee57:	c7 85 dc fa ff ff be 	movl   $0xb2c214be,-0x524(%rbp)
    ee5e:	14 c2 b2 
    ee61:	c7 85 e0 fa ff ff 00 	movl   $0x0,-0x520(%rbp)
    ee68:	00 00 00 
    ee6b:	c7 85 e4 fa ff ff 00 	movl   $0x0,-0x51c(%rbp)
    ee72:	00 00 00 
    ee75:	c7 85 e8 fa ff ff be 	movl   $0xb2c214be,-0x518(%rbp)
    ee7c:	14 c2 b2 
    ee7f:	c7 85 ec fa ff ff 00 	movl   $0x0,-0x514(%rbp)
    ee86:	00 00 00 
    ee89:	c7 85 f0 fa ff ff 00 	movl   $0x0,-0x510(%rbp)
    ee90:	00 00 00 
    ee93:	0f b7 85 c4 ee ff ff 	movzwl -0x113c(%rbp),%eax
    ee9a:	83 c0 01             	add    $0x1,%eax
    ee9d:	66 89 85 c4 ee ff ff 	mov    %ax,-0x113c(%rbp)
    eea4:	0f b7 85 c4 ee ff ff 	movzwl -0x113c(%rbp),%eax
    eeab:	66 83 f8 03          	cmp    $0x3,%ax
    eeaf:	0f 8e f3 fe ff ff    	jle    eda8 <func_64+0x119e>
    eeb5:	83 ad fc ee ff ff 01 	subl   $0x1,-0x1104(%rbp)
    eebc:	83 bd fc ee ff ff 00 	cmpl   $0x0,-0x1104(%rbp)
    eec3:	0f 89 31 fe ff ff    	jns    ecfa <func_64+0x10f0>
    eec9:	e9 21 0d 00 00       	jmpq   fbef <func_64+0x1fe5>
    eece:	c7 85 10 f2 ff ff f6 	movl   $0xfffffff6,-0xdf0(%rbp)
    eed5:	ff ff ff 
    eed8:	c7 85 14 f2 ff ff f6 	movl   $0xfffffff6,-0xdec(%rbp)
    eedf:	ff ff ff 
    eee2:	c7 85 18 f2 ff ff f6 	movl   $0xfffffff6,-0xde8(%rbp)
    eee9:	ff ff ff 
    eeec:	c7 85 1c f2 ff ff f6 	movl   $0xfffffff6,-0xde4(%rbp)
    eef3:	ff ff ff 
    eef6:	c7 85 20 f2 ff ff f6 	movl   $0xfffffff6,-0xde0(%rbp)
    eefd:	ff ff ff 
    ef00:	c7 85 24 f2 ff ff f6 	movl   $0xfffffff6,-0xddc(%rbp)
    ef07:	ff ff ff 
    ef0a:	c7 85 28 f2 ff ff f6 	movl   $0xfffffff6,-0xdd8(%rbp)
    ef11:	ff ff ff 
    ef14:	48 c7 85 98 ef ff ff 	movq   $0xffffffffffffffff,-0x1068(%rbp)
    ef1b:	ff ff ff ff 
    ef1f:	48 8d 85 78 ef ff ff 	lea    -0x1088(%rbp),%rax
    ef26:	48 89 85 a0 fa ff ff 	mov    %rax,-0x560(%rbp)
    ef2d:	48 8d 85 78 ef ff ff 	lea    -0x1088(%rbp),%rax
    ef34:	48 89 85 a8 fa ff ff 	mov    %rax,-0x558(%rbp)
    ef3b:	48 8d 05 de 94 00 00 	lea    0x94de(%rip),%rax        # 18420 <g_272>
    ef42:	48 89 85 b0 fa ff ff 	mov    %rax,-0x550(%rbp)
    ef49:	48 8d 85 78 ef ff ff 	lea    -0x1088(%rbp),%rax
    ef50:	48 89 85 b8 fa ff ff 	mov    %rax,-0x548(%rbp)
    ef57:	48 8d 05 c2 94 00 00 	lea    0x94c2(%rip),%rax        # 18420 <g_272>
    ef5e:	48 89 85 c0 fa ff ff 	mov    %rax,-0x540(%rbp)
    ef65:	48 8d 85 78 ef ff ff 	lea    -0x1088(%rbp),%rax
    ef6c:	48 89 85 c8 fa ff ff 	mov    %rax,-0x538(%rbp)
    ef73:	48 c7 85 d0 fa ff ff 	movq   $0x0,-0x530(%rbp)
    ef7a:	00 00 00 00 
    ef7e:	48 8d 85 78 ef ff ff 	lea    -0x1088(%rbp),%rax
    ef85:	48 89 85 d8 fa ff ff 	mov    %rax,-0x528(%rbp)
    ef8c:	48 8d 85 78 ef ff ff 	lea    -0x1088(%rbp),%rax
    ef93:	48 89 85 e0 fa ff ff 	mov    %rax,-0x520(%rbp)
    ef9a:	48 c7 85 e8 fa ff ff 	movq   $0x0,-0x518(%rbp)
    efa1:	00 00 00 00 
    efa5:	48 8d 85 78 ef ff ff 	lea    -0x1088(%rbp),%rax
    efac:	48 89 85 f0 fa ff ff 	mov    %rax,-0x510(%rbp)
    efb3:	48 c7 85 f8 fa ff ff 	movq   $0x0,-0x508(%rbp)
    efba:	00 00 00 00 
    efbe:	48 c7 85 00 fb ff ff 	movq   $0x0,-0x500(%rbp)
    efc5:	00 00 00 00 
    efc9:	48 8d 85 78 ef ff ff 	lea    -0x1088(%rbp),%rax
    efd0:	48 89 85 08 fb ff ff 	mov    %rax,-0x4f8(%rbp)
    efd7:	48 c7 85 10 fb ff ff 	movq   $0x0,-0x4f0(%rbp)
    efde:	00 00 00 00 
    efe2:	48 8d 85 78 ef ff ff 	lea    -0x1088(%rbp),%rax
    efe9:	48 89 85 18 fb ff ff 	mov    %rax,-0x4e8(%rbp)
    eff0:	48 8d 85 78 ef ff ff 	lea    -0x1088(%rbp),%rax
    eff7:	48 89 85 20 fb ff ff 	mov    %rax,-0x4e0(%rbp)
    effe:	48 c7 85 28 fb ff ff 	movq   $0x0,-0x4d8(%rbp)
    f005:	00 00 00 00 
    f009:	48 8d 85 78 ef ff ff 	lea    -0x1088(%rbp),%rax
    f010:	48 89 85 30 fb ff ff 	mov    %rax,-0x4d0(%rbp)
    f017:	48 8d 05 02 94 00 00 	lea    0x9402(%rip),%rax        # 18420 <g_272>
    f01e:	48 89 85 38 fb ff ff 	mov    %rax,-0x4c8(%rbp)
    f025:	48 8d 85 78 ef ff ff 	lea    -0x1088(%rbp),%rax
    f02c:	48 89 85 40 fb ff ff 	mov    %rax,-0x4c0(%rbp)
    f033:	48 8d 05 e6 93 00 00 	lea    0x93e6(%rip),%rax        # 18420 <g_272>
    f03a:	48 89 85 48 fb ff ff 	mov    %rax,-0x4b8(%rbp)
    f041:	48 8d 85 78 ef ff ff 	lea    -0x1088(%rbp),%rax
    f048:	48 89 85 50 fb ff ff 	mov    %rax,-0x4b0(%rbp)
    f04f:	48 8d 85 78 ef ff ff 	lea    -0x1088(%rbp),%rax
    f056:	48 89 85 58 fb ff ff 	mov    %rax,-0x4a8(%rbp)
    f05d:	48 8d 85 78 ef ff ff 	lea    -0x1088(%rbp),%rax
    f064:	48 89 85 60 fb ff ff 	mov    %rax,-0x4a0(%rbp)
    f06b:	48 8d 85 78 ef ff ff 	lea    -0x1088(%rbp),%rax
    f072:	48 89 85 68 fb ff ff 	mov    %rax,-0x498(%rbp)
    f079:	48 8d 05 a0 93 00 00 	lea    0x93a0(%rip),%rax        # 18420 <g_272>
    f080:	48 89 85 70 fb ff ff 	mov    %rax,-0x490(%rbp)
    f087:	48 8d 05 92 93 00 00 	lea    0x9392(%rip),%rax        # 18420 <g_272>
    f08e:	48 89 85 78 fb ff ff 	mov    %rax,-0x488(%rbp)
    f095:	48 8d 85 78 ef ff ff 	lea    -0x1088(%rbp),%rax
    f09c:	48 89 85 80 fb ff ff 	mov    %rax,-0x480(%rbp)
    f0a3:	48 8d 85 78 ef ff ff 	lea    -0x1088(%rbp),%rax
    f0aa:	48 89 85 88 fb ff ff 	mov    %rax,-0x478(%rbp)
    f0b1:	48 8d 85 78 ef ff ff 	lea    -0x1088(%rbp),%rax
    f0b8:	48 89 85 90 fb ff ff 	mov    %rax,-0x470(%rbp)
    f0bf:	48 8d 85 78 ef ff ff 	lea    -0x1088(%rbp),%rax
    f0c6:	48 89 85 98 fb ff ff 	mov    %rax,-0x468(%rbp)
    f0cd:	48 8d 05 4c 93 00 00 	lea    0x934c(%rip),%rax        # 18420 <g_272>
    f0d4:	48 89 85 a0 fb ff ff 	mov    %rax,-0x460(%rbp)
    f0db:	48 8d 85 78 ef ff ff 	lea    -0x1088(%rbp),%rax
    f0e2:	48 89 85 a8 fb ff ff 	mov    %rax,-0x458(%rbp)
    f0e9:	48 8d 05 30 93 00 00 	lea    0x9330(%rip),%rax        # 18420 <g_272>
    f0f0:	48 89 85 b0 fb ff ff 	mov    %rax,-0x450(%rbp)
    f0f7:	48 8d 85 78 ef ff ff 	lea    -0x1088(%rbp),%rax
    f0fe:	48 89 85 b8 fb ff ff 	mov    %rax,-0x448(%rbp)
    f105:	48 c7 85 c0 fb ff ff 	movq   $0x0,-0x440(%rbp)
    f10c:	00 00 00 00 
    f110:	48 8d 85 78 ef ff ff 	lea    -0x1088(%rbp),%rax
    f117:	48 89 85 c8 fb ff ff 	mov    %rax,-0x438(%rbp)
    f11e:	48 8d 85 78 ef ff ff 	lea    -0x1088(%rbp),%rax
    f125:	48 89 85 d0 fb ff ff 	mov    %rax,-0x430(%rbp)
    f12c:	48 c7 85 d8 fb ff ff 	movq   $0x0,-0x428(%rbp)
    f133:	00 00 00 00 
    f137:	48 8d 85 78 ef ff ff 	lea    -0x1088(%rbp),%rax
    f13e:	48 89 85 e0 fb ff ff 	mov    %rax,-0x420(%rbp)
    f145:	48 c7 85 e8 fb ff ff 	movq   $0x0,-0x418(%rbp)
    f14c:	00 00 00 00 
    f150:	48 c7 85 f0 fb ff ff 	movq   $0x0,-0x410(%rbp)
    f157:	00 00 00 00 
    f15b:	48 8d 85 78 ef ff ff 	lea    -0x1088(%rbp),%rax
    f162:	48 89 85 f8 fb ff ff 	mov    %rax,-0x408(%rbp)
    f169:	48 c7 85 00 fc ff ff 	movq   $0x0,-0x400(%rbp)
    f170:	00 00 00 00 
    f174:	48 8d 85 78 ef ff ff 	lea    -0x1088(%rbp),%rax
    f17b:	48 89 85 08 fc ff ff 	mov    %rax,-0x3f8(%rbp)
    f182:	48 8d 85 78 ef ff ff 	lea    -0x1088(%rbp),%rax
    f189:	48 89 85 10 fc ff ff 	mov    %rax,-0x3f0(%rbp)
    f190:	48 c7 85 18 fc ff ff 	movq   $0x0,-0x3e8(%rbp)
    f197:	00 00 00 00 
    f19b:	48 8d 85 78 ef ff ff 	lea    -0x1088(%rbp),%rax
    f1a2:	48 89 85 20 fc ff ff 	mov    %rax,-0x3e0(%rbp)
    f1a9:	48 8d 05 70 92 00 00 	lea    0x9270(%rip),%rax        # 18420 <g_272>
    f1b0:	48 89 85 28 fc ff ff 	mov    %rax,-0x3d8(%rbp)
    f1b7:	48 8d 85 78 ef ff ff 	lea    -0x1088(%rbp),%rax
    f1be:	48 89 85 30 fc ff ff 	mov    %rax,-0x3d0(%rbp)
    f1c5:	48 8d 05 54 92 00 00 	lea    0x9254(%rip),%rax        # 18420 <g_272>
    f1cc:	48 89 85 38 fc ff ff 	mov    %rax,-0x3c8(%rbp)
    f1d3:	48 8d 85 78 ef ff ff 	lea    -0x1088(%rbp),%rax
    f1da:	48 89 85 40 fc ff ff 	mov    %rax,-0x3c0(%rbp)
    f1e1:	48 8d 85 78 ef ff ff 	lea    -0x1088(%rbp),%rax
    f1e8:	48 89 85 48 fc ff ff 	mov    %rax,-0x3b8(%rbp)
    f1ef:	48 8d 85 78 ef ff ff 	lea    -0x1088(%rbp),%rax
    f1f6:	48 89 85 50 fc ff ff 	mov    %rax,-0x3b0(%rbp)
    f1fd:	48 8d 85 78 ef ff ff 	lea    -0x1088(%rbp),%rax
    f204:	48 89 85 58 fc ff ff 	mov    %rax,-0x3a8(%rbp)
    f20b:	48 8d 05 0e 92 00 00 	lea    0x920e(%rip),%rax        # 18420 <g_272>
    f212:	48 89 85 60 fc ff ff 	mov    %rax,-0x3a0(%rbp)
    f219:	48 8d 05 00 92 00 00 	lea    0x9200(%rip),%rax        # 18420 <g_272>
    f220:	48 89 85 68 fc ff ff 	mov    %rax,-0x398(%rbp)
    f227:	48 8d 85 78 ef ff ff 	lea    -0x1088(%rbp),%rax
    f22e:	48 89 85 70 fc ff ff 	mov    %rax,-0x390(%rbp)
    f235:	48 8d 85 78 ef ff ff 	lea    -0x1088(%rbp),%rax
    f23c:	48 89 85 78 fc ff ff 	mov    %rax,-0x388(%rbp)
    f243:	48 8d 05 56 5e 00 00 	lea    0x5e56(%rip),%rax        # 150a0 <g_113>
    f24a:	48 89 85 08 f0 ff ff 	mov    %rax,-0xff8(%rbp)
    f251:	48 8d 05 fc 5d 00 00 	lea    0x5dfc(%rip),%rax        # 15054 <g_94+0x14>
    f258:	48 89 85 50 f2 ff ff 	mov    %rax,-0xdb0(%rbp)
    f25f:	48 8d 05 ee 5d 00 00 	lea    0x5dee(%rip),%rax        # 15054 <g_94+0x14>
    f266:	48 89 85 58 f2 ff ff 	mov    %rax,-0xda8(%rbp)
    f26d:	48 8d 05 e0 5d 00 00 	lea    0x5de0(%rip),%rax        # 15054 <g_94+0x14>
    f274:	48 89 85 60 f2 ff ff 	mov    %rax,-0xda0(%rbp)
    f27b:	48 8d 05 d2 5d 00 00 	lea    0x5dd2(%rip),%rax        # 15054 <g_94+0x14>
    f282:	48 89 85 68 f2 ff ff 	mov    %rax,-0xd98(%rbp)
    f289:	48 8d 05 c4 5d 00 00 	lea    0x5dc4(%rip),%rax        # 15054 <g_94+0x14>
    f290:	48 89 85 70 f2 ff ff 	mov    %rax,-0xd90(%rbp)
    f297:	c6 85 c2 ee ff ff 01 	movb   $0x1,-0x113e(%rbp)
    f29e:	48 8d 85 d8 ee ff ff 	lea    -0x1128(%rbp),%rax
    f2a5:	48 89 85 10 f0 ff ff 	mov    %rax,-0xff0(%rbp)
    f2ac:	66 c7 85 c8 ee ff ff 	movw   $0xa8c0,-0x1138(%rbp)
    f2b3:	c0 a8 
    f2b5:	66 c7 85 ca ee ff ff 	movw   $0x1,-0x1136(%rbp)
    f2bc:	01 00 
    f2be:	48 8d 05 e3 5d 00 00 	lea    0x5de3(%rip),%rax        # 150a8 <g_131>
    f2c5:	48 89 85 18 f0 ff ff 	mov    %rax,-0xfe8(%rbp)
    f2cc:	48 8d 85 98 ef ff ff 	lea    -0x1068(%rbp),%rax
    f2d3:	48 89 85 20 f0 ff ff 	mov    %rax,-0xfe0(%rbp)
    f2da:	48 8d 85 90 f3 ff ff 	lea    -0xc70(%rbp),%rax
    f2e1:	48 8d 15 b8 2f 00 00 	lea    0x2fb8(%rip),%rdx        # 122a0 <g_1650+0x228>
    f2e8:	b9 24 00 00 00       	mov    $0x24,%ecx
    f2ed:	48 89 c7             	mov    %rax,%rdi
    f2f0:	48 89 d6             	mov    %rdx,%rsi
    f2f3:	f3 48 a5             	rep movsq %ds:(%rsi),%es:(%rdi)
    f2f6:	c7 85 10 ef ff ff 01 	movl   $0x1,-0x10f0(%rbp)
    f2fd:	00 00 00 
    f300:	c7 85 14 ef ff ff 00 	movl   $0x0,-0x10ec(%rbp)
    f307:	00 00 00 
    f30a:	c7 85 18 ef ff ff 67 	movl   $0xa411cb67,-0x10e8(%rbp)
    f311:	cb 11 a4 
    f314:	8b 85 1c f2 ff ff    	mov    -0xde4(%rbp),%eax
    f31a:	85 c0                	test   %eax,%eax
    f31c:	0f 84 4b 03 00 00    	je     f66d <func_64+0x1a63>
    f322:	48 8d 05 2b 5d 00 00 	lea    0x5d2b(%rip),%rax        # 15054 <g_94+0x14>
    f329:	48 89 85 a0 ef ff ff 	mov    %rax,-0x1060(%rbp)
    f330:	48 8d 85 a0 ef ff ff 	lea    -0x1060(%rbp),%rax
    f337:	48 89 85 38 f0 ff ff 	mov    %rax,-0xfc8(%rbp)
    f33e:	48 c7 85 40 f0 ff ff 	movq   $0x0,-0xfc0(%rbp)
    f345:	00 00 00 00 
    f349:	48 c7 85 48 f0 ff ff 	movq   $0x0,-0xfb8(%rbp)
    f350:	00 00 00 00 
    f354:	48 8d 45 bb          	lea    -0x45(%rbp),%rax
    f358:	48 89 85 50 f0 ff ff 	mov    %rax,-0xfb0(%rbp)
    f35f:	48 c7 85 58 f0 ff ff 	movq   $0x0,-0xfa8(%rbp)
    f366:	00 00 00 00 
    f36a:	48 8d 05 13 5e 00 00 	lea    0x5e13(%rip),%rax        # 15184 <g_349>
    f371:	48 89 85 60 f0 ff ff 	mov    %rax,-0xfa0(%rbp)
    f378:	c7 85 e0 ee ff ff 01 	movl   $0x1,-0x1120(%rbp)
    f37f:	00 00 00 
    f382:	8b 9d e0 ee ff ff    	mov    -0x1120(%rbp),%ebx
    f388:	48 8b 85 60 f0 ff ff 	mov    -0xfa0(%rbp),%rax
    f38f:	c7 00 fc ff ff ff    	movl   $0xfffffffc,(%rax)
    f395:	48 8b 95 b0 ee ff ff 	mov    -0x1150(%rbp),%rdx
    f39c:	48 8b 85 38 f0 ff ff 	mov    -0xfc8(%rbp),%rax
    f3a3:	48 89 10             	mov    %rdx,(%rax)
    f3a6:	48 8b 85 38 f0 ff ff 	mov    -0xfc8(%rbp),%rax
    f3ad:	48 8b 00             	mov    (%rax),%rax
    f3b0:	48 8d 15 cb 5c 00 00 	lea    0x5ccb(%rip),%rdx        # 15082 <g_94+0x42>
    f3b7:	48 39 d0             	cmp    %rdx,%rax
    f3ba:	48 8b 85 50 f0 ff ff 	mov    -0xfb0(%rbp),%rax
    f3c1:	0f b6 00             	movzbl (%rax),%eax
    f3c4:	89 c2                	mov    %eax,%edx
    f3c6:	8b 85 bc ee ff ff    	mov    -0x1144(%rbp),%eax
    f3cc:	21 d0                	and    %edx,%eax
    f3ce:	89 c2                	mov    %eax,%edx
    f3d0:	48 8b 85 50 f0 ff ff 	mov    -0xfb0(%rbp),%rax
    f3d7:	88 10                	mov    %dl,(%rax)
    f3d9:	48 8b 85 50 f0 ff ff 	mov    -0xfb0(%rbp),%rax
    f3e0:	0f b6 00             	movzbl (%rax),%eax
    f3e3:	84 c0                	test   %al,%al
    f3e5:	74 11                	je     f3f8 <func_64+0x17ee>
    f3e7:	8b 05 af 5c 00 00    	mov    0x5caf(%rip),%eax        # 1509c <g_107>
    f3ed:	85 c0                	test   %eax,%eax
    f3ef:	74 07                	je     f3f8 <func_64+0x17ee>
    f3f1:	ba 01 00 00 00       	mov    $0x1,%edx
    f3f6:	eb 05                	jmp    f3fd <func_64+0x17f3>
    f3f8:	ba 00 00 00 00       	mov    $0x0,%edx
    f3fd:	48 8b 85 b0 ee ff ff 	mov    -0x1150(%rbp),%rax
    f404:	0f b7 00             	movzwl (%rax),%eax
    f407:	0f b7 c0             	movzwl %ax,%eax
    f40a:	39 c2                	cmp    %eax,%edx
    f40c:	0f 9d c0             	setge  %al
    f40f:	0f b6 c0             	movzbl %al,%eax
    f412:	48 33 85 a0 ee ff ff 	xor    -0x1160(%rbp),%rax
    f419:	48 89 c2             	mov    %rax,%rdx
    f41c:	8b 85 bc ee ff ff    	mov    -0x1144(%rbp),%eax
    f422:	48 98                	cltq   
    f424:	48 39 c2             	cmp    %rax,%rdx
    f427:	8b 95 10 f2 ff ff    	mov    -0xdf0(%rbp),%edx
    f42d:	8b 8d e0 ee ff ff    	mov    -0x1120(%rbp),%ecx
    f433:	8b 85 bc ee ff ff    	mov    -0x1144(%rbp),%eax
    f439:	39 c1                	cmp    %eax,%ecx
    f43b:	0f 9f c0             	setg   %al
    f43e:	0f b6 c0             	movzbl %al,%eax
    f441:	39 c2                	cmp    %eax,%edx
    f443:	0f 9d c0             	setge  %al
    f446:	0f b6 d0             	movzbl %al,%edx
    f449:	0f b7 05 10 5d 00 00 	movzwl 0x5d10(%rip),%eax        # 15160 <g_324+0x40>
    f450:	83 c0 01             	add    $0x1,%eax
    f453:	66 89 05 06 5d 00 00 	mov    %ax,0x5d06(%rip)        # 15160 <g_324+0x40>
    f45a:	0f b7 05 ff 5c 00 00 	movzwl 0x5cff(%rip),%eax        # 15160 <g_324+0x40>
    f461:	0f b7 c0             	movzwl %ax,%eax
    f464:	89 d6                	mov    %edx,%esi
    f466:	89 c7                	mov    %eax,%edi
    f468:	e8 b2 88 ff ff       	callq  7d1f <safe_sub_func_uint16_t_u_u>
    f46d:	0f be c0             	movsbl %al,%eax
    f470:	89 de                	mov    %ebx,%esi
    f472:	89 c7                	mov    %eax,%edi
    f474:	e8 bc 7e ff ff       	callq  7335 <safe_rshift_func_int8_t_s_s>
    f479:	84 c0                	test   %al,%al
    f47b:	75 0a                	jne    f487 <func_64+0x187d>
    f47d:	8b 85 e0 ee ff ff    	mov    -0x1120(%rbp),%eax
    f483:	85 c0                	test   %eax,%eax
    f485:	74 07                	je     f48e <func_64+0x1884>
    f487:	b8 01 00 00 00       	mov    $0x1,%eax
    f48c:	eb 05                	jmp    f493 <func_64+0x1889>
    f48e:	b8 00 00 00 00       	mov    $0x0,%eax
    f493:	3d ae 00 00 00       	cmp    $0xae,%eax
    f498:	0f 94 c0             	sete   %al
    f49b:	0f b6 c0             	movzbl %al,%eax
    f49e:	be 00 00 00 00       	mov    $0x0,%esi
    f4a3:	48 89 c7             	mov    %rax,%rdi
    f4a6:	e8 a0 8b ff ff       	callq  804b <safe_sub_func_uint64_t_u_u>
    f4ab:	89 c2                	mov    %eax,%edx
    f4ad:	8b 85 bc ee ff ff    	mov    -0x1144(%rbp),%eax
    f4b3:	89 d6                	mov    %edx,%esi
    f4b5:	89 c7                	mov    %eax,%edi
    f4b7:	e8 69 8a ff ff       	callq  7f25 <safe_div_func_uint32_t_u_u>
    f4bc:	89 c2                	mov    %eax,%edx
    f4be:	48 8b 85 d8 ef ff ff 	mov    -0x1028(%rbp),%rax
    f4c5:	89 10                	mov    %edx,(%rax)
    f4c7:	48 c7 85 a0 ee ff ff 	movq   $0x0,-0x1160(%rbp)
    f4ce:	00 00 00 00 
    f4d2:	e9 f6 00 00 00       	jmpq   f5cd <func_64+0x19c3>
    f4d7:	48 c7 85 68 f0 ff ff 	movq   $0x1,-0xf98(%rbp)
    f4de:	01 00 00 00 
    f4e2:	8b 9d bc ee ff ff    	mov    -0x1144(%rbp),%ebx
    f4e8:	8b 85 24 f2 ff ff    	mov    -0xddc(%rbp),%eax
    f4ee:	44 0f b6 e0          	movzbl %al,%r12d
    f4f2:	8b 85 bc ee ff ff    	mov    -0x1144(%rbp),%eax
    f4f8:	4c 63 e8             	movslq %eax,%r13
    f4fb:	48 83 bd a0 ee ff ff 	cmpq   $0x0,-0x1160(%rbp)
    f502:	00 
    f503:	0f 94 c0             	sete   %al
    f506:	0f b6 c0             	movzbl %al,%eax
    f509:	be 02 00 00 00       	mov    $0x2,%esi
    f50e:	89 c7                	mov    %eax,%edi
    f510:	e8 4e 80 ff ff       	callq  7563 <safe_rshift_func_int16_t_s_u>
    f515:	0f b7 05 44 5c 00 00 	movzwl 0x5c44(%rip),%eax        # 15160 <g_324+0x40>
    f51c:	0f b7 d0             	movzwl %ax,%edx
    f51f:	48 8b 05 ba 5b 00 00 	mov    0x5bba(%rip),%rax        # 150e0 <g_235>
    f526:	48 31 d0             	xor    %rdx,%rax
    f529:	48 89 05 b0 5b 00 00 	mov    %rax,0x5bb0(%rip)        # 150e0 <g_235>
    f530:	48 8b 05 a9 5b 00 00 	mov    0x5ba9(%rip),%rax        # 150e0 <g_235>
    f537:	be 01 00 00 00       	mov    $0x1,%esi
    f53c:	48 89 c7             	mov    %rax,%rdi
    f53f:	e8 07 8b ff ff       	callq  804b <safe_sub_func_uint64_t_u_u>
    f544:	4c 89 ee             	mov    %r13,%rsi
    f547:	bf 01 00 00 00       	mov    $0x1,%edi
    f54c:	e8 f0 82 ff ff       	callq  7841 <safe_add_func_int64_t_s_s>
    f551:	48 39 85 a0 ee ff ff 	cmp    %rax,-0x1160(%rbp)
    f558:	0f 92 c0             	setb   %al
    f55b:	0f b6 c0             	movzbl %al,%eax
    f55e:	44 89 e6             	mov    %r12d,%esi
    f561:	89 c7                	mov    %eax,%edi
    f563:	e8 f2 85 ff ff       	callq  7b5a <safe_add_func_uint8_t_u_u>
    f568:	0f be c0             	movsbl %al,%eax
    f56b:	89 c6                	mov    %eax,%esi
    f56d:	bf 01 00 00 00       	mov    $0x1,%edi
    f572:	e8 7b 7c ff ff       	callq  71f2 <safe_sub_func_int8_t_s_s>
    f577:	f7 d0                	not    %eax
    f579:	c0 e8 07             	shr    $0x7,%al
    f57c:	0f b6 c0             	movzbl %al,%eax
    f57f:	48 39 85 68 f0 ff ff 	cmp    %rax,-0xf98(%rbp)
    f586:	0f 9d c0             	setge  %al
    f589:	0f b6 c0             	movzbl %al,%eax
    f58c:	89 de                	mov    %ebx,%esi
    f58e:	89 c7                	mov    %eax,%edi
    f590:	e8 37 81 ff ff       	callq  76cc <safe_mod_func_int32_t_s_s>
    f595:	89 c2                	mov    %eax,%edx
    f597:	8b 85 bc ee ff ff    	mov    -0x1144(%rbp),%eax
    f59d:	89 d6                	mov    %edx,%esi
    f59f:	89 c7                	mov    %eax,%edi
    f5a1:	e8 7f 89 ff ff       	callq  7f25 <safe_div_func_uint32_t_u_u>
    f5a6:	89 c2                	mov    %eax,%edx
    f5a8:	48 8b 85 d8 ef ff ff 	mov    -0x1028(%rbp),%rax
    f5af:	89 10                	mov    %edx,(%rax)
    f5b1:	48 8b 85 a0 ee ff ff 	mov    -0x1160(%rbp),%rax
    f5b8:	be 08 00 00 00       	mov    $0x8,%esi
    f5bd:	89 c7                	mov    %eax,%edi
    f5bf:	e8 f2 7f ff ff       	callq  75b6 <safe_add_func_int32_t_s_s>
    f5c4:	48 98                	cltq   
    f5c6:	48 89 85 a0 ee ff ff 	mov    %rax,-0x1160(%rbp)
    f5cd:	48 83 bd a0 ee ff ff 	cmpq   $0x2b,-0x1160(%rbp)
    f5d4:	2b 
    f5d5:	0f 86 fc fe ff ff    	jbe    f4d7 <func_64+0x18cd>
    f5db:	48 8b 05 46 8e 00 00 	mov    0x8e46(%rip),%rax        # 18428 <g_289>
    f5e2:	48 8b 00             	mov    (%rax),%rax
    f5e5:	48 89 85 d8 ef ff ff 	mov    %rax,-0x1028(%rbp)
    f5ec:	48 8b 05 35 8e 00 00 	mov    0x8e35(%rip),%rax        # 18428 <g_289>
    f5f3:	48 8b 10             	mov    (%rax),%rdx
    f5f6:	48 8d 85 bc ee ff ff 	lea    -0x1144(%rbp),%rax
    f5fd:	48 89 d6             	mov    %rdx,%rsi
    f600:	48 89 c7             	mov    %rax,%rdi
    f603:	e8 91 e3 ff ff       	callq  d999 <func_25>
    f608:	48 89 c2             	mov    %rax,%rdx
    f60b:	48 8b 9d 70 ef ff ff 	mov    -0x1090(%rbp),%rbx
    f612:	48 8d 85 e0 ee ff ff 	lea    -0x1120(%rbp),%rax
    f619:	48 89 c6             	mov    %rax,%rsi
    f61c:	48 89 d7             	mov    %rdx,%rdi
    f61f:	e8 75 e3 ff ff       	callq  d999 <func_25>
    f624:	48 89 03             	mov    %rax,(%rbx)
    f627:	48 8b 03             	mov    (%rbx),%rax
    f62a:	48 39 85 08 f0 ff ff 	cmp    %rax,-0xff8(%rbp)
    f631:	0f 94 c0             	sete   %al
    f634:	0f b6 d0             	movzbl %al,%edx
    f637:	0f b6 05 2e 97 00 00 	movzbl 0x972e(%rip),%eax        # 18d6c <g_81>
    f63e:	0f be c0             	movsbl %al,%eax
    f641:	89 d6                	mov    %edx,%esi
    f643:	89 c7                	mov    %eax,%edi
    f645:	e8 c8 7b ff ff       	callq  7212 <safe_mul_func_int8_t_s_s>
    f64a:	0f b6 d0             	movzbl %al,%edx
    f64d:	8b 85 bc ee ff ff    	mov    -0x1144(%rbp),%eax
    f653:	0f b6 c0             	movzbl %al,%eax
    f656:	89 d6                	mov    %edx,%esi
    f658:	89 c7                	mov    %eax,%edi
    f65a:	e8 fb 84 ff ff       	callq  7b5a <safe_add_func_uint8_t_u_u>
    f65f:	0f b6 c0             	movzbl %al,%eax
    f662:	89 85 1c f2 ff ff    	mov    %eax,-0xde4(%rbp)
    f668:	e9 80 03 00 00       	jmpq   f9ed <func_64+0x1de3>
    f66d:	48 8d 05 74 5a 00 00 	lea    0x5a74(%rip),%rax        # 150e8 <g_238>
    f674:	48 89 85 b0 f4 ff ff 	mov    %rax,-0xb50(%rbp)
    f67b:	48 8d 85 10 f2 ff ff 	lea    -0xdf0(%rbp),%rax
    f682:	48 83 c0 04          	add    $0x4,%rax
    f686:	48 89 85 b8 f4 ff ff 	mov    %rax,-0xb48(%rbp)
    f68d:	48 8d 05 54 5a 00 00 	lea    0x5a54(%rip),%rax        # 150e8 <g_238>
    f694:	48 89 85 c0 f4 ff ff 	mov    %rax,-0xb40(%rbp)
    f69b:	48 8d 85 10 f2 ff ff 	lea    -0xdf0(%rbp),%rax
    f6a2:	48 83 c0 04          	add    $0x4,%rax
    f6a6:	48 89 85 c8 f4 ff ff 	mov    %rax,-0xb38(%rbp)
    f6ad:	48 8d 85 10 f2 ff ff 	lea    -0xdf0(%rbp),%rax
    f6b4:	48 83 c0 04          	add    $0x4,%rax
    f6b8:	48 89 85 d0 f4 ff ff 	mov    %rax,-0xb30(%rbp)
    f6bf:	48 8d 05 22 5a 00 00 	lea    0x5a22(%rip),%rax        # 150e8 <g_238>
    f6c6:	48 89 85 d8 f4 ff ff 	mov    %rax,-0xb28(%rbp)
    f6cd:	48 8d 85 10 f2 ff ff 	lea    -0xdf0(%rbp),%rax
    f6d4:	48 83 c0 04          	add    $0x4,%rax
    f6d8:	48 89 85 e0 f4 ff ff 	mov    %rax,-0xb20(%rbp)
    f6df:	48 8d 05 02 5a 00 00 	lea    0x5a02(%rip),%rax        # 150e8 <g_238>
    f6e6:	48 89 85 e8 f4 ff ff 	mov    %rax,-0xb18(%rbp)
    f6ed:	48 8d 85 10 f2 ff ff 	lea    -0xdf0(%rbp),%rax
    f6f4:	48 83 c0 04          	add    $0x4,%rax
    f6f8:	48 89 85 f0 f4 ff ff 	mov    %rax,-0xb10(%rbp)
    f6ff:	48 8d 85 10 f2 ff ff 	lea    -0xdf0(%rbp),%rax
    f706:	48 83 c0 04          	add    $0x4,%rax
    f70a:	48 89 85 f8 f4 ff ff 	mov    %rax,-0xb08(%rbp)
    f711:	48 8d 05 d0 59 00 00 	lea    0x59d0(%rip),%rax        # 150e8 <g_238>
    f718:	48 89 85 00 f5 ff ff 	mov    %rax,-0xb00(%rbp)
    f71f:	48 8d 85 10 f2 ff ff 	lea    -0xdf0(%rbp),%rax
    f726:	48 83 c0 04          	add    $0x4,%rax
    f72a:	48 89 85 08 f5 ff ff 	mov    %rax,-0xaf8(%rbp)
    f731:	48 8d 05 b0 59 00 00 	lea    0x59b0(%rip),%rax        # 150e8 <g_238>
    f738:	48 89 85 10 f5 ff ff 	mov    %rax,-0xaf0(%rbp)
    f73f:	48 8d 85 10 f2 ff ff 	lea    -0xdf0(%rbp),%rax
    f746:	48 83 c0 04          	add    $0x4,%rax
    f74a:	48 89 85 18 f5 ff ff 	mov    %rax,-0xae8(%rbp)
    f751:	48 8d 85 10 f2 ff ff 	lea    -0xdf0(%rbp),%rax
    f758:	48 83 c0 04          	add    $0x4,%rax
    f75c:	48 89 85 20 f5 ff ff 	mov    %rax,-0xae0(%rbp)
    f763:	48 8d 05 7e 59 00 00 	lea    0x597e(%rip),%rax        # 150e8 <g_238>
    f76a:	48 89 85 28 f5 ff ff 	mov    %rax,-0xad8(%rbp)
    f771:	48 8d 85 10 f2 ff ff 	lea    -0xdf0(%rbp),%rax
    f778:	48 83 c0 04          	add    $0x4,%rax
    f77c:	48 89 85 30 f5 ff ff 	mov    %rax,-0xad0(%rbp)
    f783:	48 8d 05 5e 59 00 00 	lea    0x595e(%rip),%rax        # 150e8 <g_238>
    f78a:	48 89 85 38 f5 ff ff 	mov    %rax,-0xac8(%rbp)
    f791:	48 8d 85 10 f2 ff ff 	lea    -0xdf0(%rbp),%rax
    f798:	48 83 c0 04          	add    $0x4,%rax
    f79c:	48 89 85 40 f5 ff ff 	mov    %rax,-0xac0(%rbp)
    f7a3:	48 8d 85 10 f2 ff ff 	lea    -0xdf0(%rbp),%rax
    f7aa:	48 83 c0 04          	add    $0x4,%rax
    f7ae:	48 89 85 48 f5 ff ff 	mov    %rax,-0xab8(%rbp)
    f7b5:	48 8d 05 2c 59 00 00 	lea    0x592c(%rip),%rax        # 150e8 <g_238>
    f7bc:	48 89 85 50 f5 ff ff 	mov    %rax,-0xab0(%rbp)
    f7c3:	48 8d 85 10 f2 ff ff 	lea    -0xdf0(%rbp),%rax
    f7ca:	48 83 c0 04          	add    $0x4,%rax
    f7ce:	48 89 85 58 f5 ff ff 	mov    %rax,-0xaa8(%rbp)
    f7d5:	48 8d 05 0c 59 00 00 	lea    0x590c(%rip),%rax        # 150e8 <g_238>
    f7dc:	48 89 85 60 f5 ff ff 	mov    %rax,-0xaa0(%rbp)
    f7e3:	48 8d 85 10 f2 ff ff 	lea    -0xdf0(%rbp),%rax
    f7ea:	48 83 c0 04          	add    $0x4,%rax
    f7ee:	48 89 85 68 f5 ff ff 	mov    %rax,-0xa98(%rbp)
    f7f5:	48 8d 85 10 f2 ff ff 	lea    -0xdf0(%rbp),%rax
    f7fc:	48 83 c0 04          	add    $0x4,%rax
    f800:	48 89 85 70 f5 ff ff 	mov    %rax,-0xa90(%rbp)
    f807:	48 8d 05 da 58 00 00 	lea    0x58da(%rip),%rax        # 150e8 <g_238>
    f80e:	48 89 85 78 f5 ff ff 	mov    %rax,-0xa88(%rbp)
    f815:	48 8d 85 10 f2 ff ff 	lea    -0xdf0(%rbp),%rax
    f81c:	48 83 c0 04          	add    $0x4,%rax
    f820:	48 89 85 80 f5 ff ff 	mov    %rax,-0xa80(%rbp)
    f827:	48 8d 05 ba 58 00 00 	lea    0x58ba(%rip),%rax        # 150e8 <g_238>
    f82e:	48 89 85 88 f5 ff ff 	mov    %rax,-0xa78(%rbp)
    f835:	48 8d 85 10 f2 ff ff 	lea    -0xdf0(%rbp),%rax
    f83c:	48 83 c0 04          	add    $0x4,%rax
    f840:	48 89 85 90 f5 ff ff 	mov    %rax,-0xa70(%rbp)
    f847:	48 8d 85 10 f2 ff ff 	lea    -0xdf0(%rbp),%rax
    f84e:	48 83 c0 04          	add    $0x4,%rax
    f852:	48 89 85 98 f5 ff ff 	mov    %rax,-0xa68(%rbp)
    f859:	48 8d 05 88 58 00 00 	lea    0x5888(%rip),%rax        # 150e8 <g_238>
    f860:	48 89 85 a0 f5 ff ff 	mov    %rax,-0xa60(%rbp)
    f867:	48 8d 85 10 f2 ff ff 	lea    -0xdf0(%rbp),%rax
    f86e:	48 83 c0 04          	add    $0x4,%rax
    f872:	48 89 85 a8 f5 ff ff 	mov    %rax,-0xa58(%rbp)
    f879:	48 8d 05 68 58 00 00 	lea    0x5868(%rip),%rax        # 150e8 <g_238>
    f880:	48 89 85 b0 f5 ff ff 	mov    %rax,-0xa50(%rbp)
    f887:	48 8d 85 10 f2 ff ff 	lea    -0xdf0(%rbp),%rax
    f88e:	48 83 c0 04          	add    $0x4,%rax
    f892:	48 89 85 b8 f5 ff ff 	mov    %rax,-0xa48(%rbp)
    f899:	48 8d 85 10 f2 ff ff 	lea    -0xdf0(%rbp),%rax
    f8a0:	48 83 c0 04          	add    $0x4,%rax
    f8a4:	48 89 85 c0 f5 ff ff 	mov    %rax,-0xa40(%rbp)
    f8ab:	48 8d 05 36 58 00 00 	lea    0x5836(%rip),%rax        # 150e8 <g_238>
    f8b2:	48 89 85 c8 f5 ff ff 	mov    %rax,-0xa38(%rbp)
    f8b9:	48 8d 85 10 f2 ff ff 	lea    -0xdf0(%rbp),%rax
    f8c0:	48 83 c0 04          	add    $0x4,%rax
    f8c4:	48 89 85 d0 f5 ff ff 	mov    %rax,-0xa30(%rbp)
    f8cb:	48 8d 05 16 58 00 00 	lea    0x5816(%rip),%rax        # 150e8 <g_238>
    f8d2:	48 89 85 d8 f5 ff ff 	mov    %rax,-0xa28(%rbp)
    f8d9:	48 8d 85 10 f2 ff ff 	lea    -0xdf0(%rbp),%rax
    f8e0:	48 83 c0 04          	add    $0x4,%rax
    f8e4:	48 89 85 e0 f5 ff ff 	mov    %rax,-0xa20(%rbp)
    f8eb:	48 8d 85 10 f2 ff ff 	lea    -0xdf0(%rbp),%rax
    f8f2:	48 83 c0 04          	add    $0x4,%rax
    f8f6:	48 89 85 e8 f5 ff ff 	mov    %rax,-0xa18(%rbp)
    f8fd:	48 8d 05 e4 57 00 00 	lea    0x57e4(%rip),%rax        # 150e8 <g_238>
    f904:	48 89 85 f0 f5 ff ff 	mov    %rax,-0xa10(%rbp)
    f90b:	48 8d 85 10 f2 ff ff 	lea    -0xdf0(%rbp),%rax
    f912:	48 83 c0 04          	add    $0x4,%rax
    f916:	48 89 85 f8 f5 ff ff 	mov    %rax,-0xa08(%rbp)
    f91d:	48 8d 05 c4 57 00 00 	lea    0x57c4(%rip),%rax        # 150e8 <g_238>
    f924:	48 89 85 00 f6 ff ff 	mov    %rax,-0xa00(%rbp)
    f92b:	48 8d 85 10 f2 ff ff 	lea    -0xdf0(%rbp),%rax
    f932:	48 83 c0 04          	add    $0x4,%rax
    f936:	48 89 85 08 f6 ff ff 	mov    %rax,-0x9f8(%rbp)
    f93d:	48 8d 85 10 f2 ff ff 	lea    -0xdf0(%rbp),%rax
    f944:	48 83 c0 04          	add    $0x4,%rax
    f948:	48 89 85 10 f6 ff ff 	mov    %rax,-0x9f0(%rbp)
    f94f:	48 8d 05 92 57 00 00 	lea    0x5792(%rip),%rax        # 150e8 <g_238>
    f956:	48 89 85 18 f6 ff ff 	mov    %rax,-0x9e8(%rbp)
    f95d:	48 8d 85 10 f2 ff ff 	lea    -0xdf0(%rbp),%rax
    f964:	48 83 c0 04          	add    $0x4,%rax
    f968:	48 89 85 20 f6 ff ff 	mov    %rax,-0x9e0(%rbp)
    f96f:	48 8d 05 72 57 00 00 	lea    0x5772(%rip),%rax        # 150e8 <g_238>
    f976:	48 89 85 28 f6 ff ff 	mov    %rax,-0x9d8(%rbp)
    f97d:	48 8d 85 10 f2 ff ff 	lea    -0xdf0(%rbp),%rax
    f984:	48 83 c0 04          	add    $0x4,%rax
    f988:	48 89 85 30 f6 ff ff 	mov    %rax,-0x9d0(%rbp)
    f98f:	48 8d 85 10 f2 ff ff 	lea    -0xdf0(%rbp),%rax
    f996:	48 83 c0 04          	add    $0x4,%rax
    f99a:	48 89 85 38 f6 ff ff 	mov    %rax,-0x9c8(%rbp)
    f9a1:	48 c7 85 28 f0 ff ff 	movq   $0x0,-0xfd8(%rbp)
    f9a8:	00 00 00 00 
    f9ac:	48 8d 85 d0 f1 ff ff 	lea    -0xe30(%rbp),%rax
    f9b3:	48 83 c0 10          	add    $0x10,%rax
    f9b7:	48 89 85 30 f0 ff ff 	mov    %rax,-0xfd0(%rbp)
    f9be:	48 8b 85 d8 ef ff ff 	mov    -0x1028(%rbp),%rax
    f9c5:	8b 00                	mov    (%rax),%eax
    f9c7:	89 c2                	mov    %eax,%edx
    f9c9:	8b 85 dc ee ff ff    	mov    -0x1124(%rbp),%eax
    f9cf:	31 d0                	xor    %edx,%eax
    f9d1:	89 c2                	mov    %eax,%edx
    f9d3:	48 8b 85 d8 ef ff ff 	mov    -0x1028(%rbp),%rax
    f9da:	89 10                	mov    %edx,(%rax)
    f9dc:	48 8b 95 48 f5 ff ff 	mov    -0xab8(%rbp),%rdx
    f9e3:	48 8b 85 30 f0 ff ff 	mov    -0xfd0(%rbp),%rax
    f9ea:	48 89 10             	mov    %rdx,(%rax)
    f9ed:	0f b6 85 c2 ee ff ff 	movzbl -0x113e(%rbp),%eax
    f9f4:	0f b6 d8             	movzbl %al,%ebx
    f9f7:	8b 85 bc ee ff ff    	mov    -0x1144(%rbp),%eax
    f9fd:	44 0f be e0          	movsbl %al,%r12d
    fa01:	8b 05 a9 56 00 00    	mov    0x56a9(%rip),%eax        # 150b0 <g_166>
    fa07:	44 0f b7 e8          	movzwl %ax,%r13d
    fa0b:	48 8b 05 6e 87 00 00 	mov    0x876e(%rip),%rax        # 18180 <g_241>
    fa12:	0f b7 00             	movzwl (%rax),%eax
    fa15:	66 89 85 ba ee ff ff 	mov    %ax,-0x1146(%rbp)
    fa1c:	0f b7 05 3d 57 00 00 	movzwl 0x573d(%rip),%eax        # 15160 <g_324+0x40>
    fa23:	83 e8 01             	sub    $0x1,%eax
    fa26:	66 89 05 33 57 00 00 	mov    %ax,0x5733(%rip)        # 15160 <g_324+0x40>
    fa2d:	0f b7 05 2c 57 00 00 	movzwl 0x572c(%rip),%eax        # 15160 <g_324+0x40>
    fa34:	89 c2                	mov    %eax,%edx
    fa36:	0f b6 05 4b 93 00 00 	movzbl 0x934b(%rip),%eax        # 18d88 <g_396>
    fa3d:	31 d0                	xor    %edx,%eax
    fa3f:	88 05 43 93 00 00    	mov    %al,0x9343(%rip)        # 18d88 <g_396>
    fa45:	0f b6 05 3c 93 00 00 	movzbl 0x933c(%rip),%eax        # 18d88 <g_396>
    fa4c:	44 0f be f8          	movsbl %al,%r15d
    fa50:	44 0f be b5 c2 ee ff 	movsbl -0x113e(%rbp),%r14d
    fa57:	ff 
    fa58:	8b 85 bc ee ff ff    	mov    -0x1144(%rbp),%eax
    fa5e:	0f be c0             	movsbl %al,%eax
    fa61:	be 01 00 00 00       	mov    $0x1,%esi
    fa66:	89 c7                	mov    %eax,%edi
    fa68:	e8 67 77 ff ff       	callq  71d4 <safe_add_func_int8_t_s_s>
    fa6d:	83 bd e8 ee ff ff f6 	cmpl   $0xfffffff6,-0x1118(%rbp)
    fa74:	75 0a                	jne    fa80 <func_64+0x1e76>
    fa76:	8b 85 bc ee ff ff    	mov    -0x1144(%rbp),%eax
    fa7c:	85 c0                	test   %eax,%eax
    fa7e:	74 07                	je     fa87 <func_64+0x1e7d>
    fa80:	b8 01 00 00 00       	mov    $0x1,%eax
    fa85:	eb 05                	jmp    fa8c <func_64+0x1e82>
    fa87:	b8 00 00 00 00       	mov    $0x0,%eax
    fa8c:	89 c2                	mov    %eax,%edx
    fa8e:	48 8b 85 10 f0 ff ff 	mov    -0xff0(%rbp),%rax
    fa95:	89 10                	mov    %edx,(%rax)
    fa97:	48 83 bd a0 ee ff ff 	cmpq   $0xfffffffffffffffc,-0x1160(%rbp)
    fa9e:	fc 
    fa9f:	0f 96 c2             	setbe  %dl
    faa2:	48 8b 05 ff 55 00 00 	mov    0x55ff(%rip),%rax        # 150a8 <g_131>
    faa9:	48 83 f8 02          	cmp    $0x2,%rax
    faad:	0f 9f c0             	setg   %al
    fab0:	31 d0                	xor    %edx,%eax
    fab2:	84 c0                	test   %al,%al
    fab4:	75 0a                	jne    fac0 <func_64+0x1eb6>
    fab6:	8b 85 bc ee ff ff    	mov    -0x1144(%rbp),%eax
    fabc:	85 c0                	test   %eax,%eax
    fabe:	74 16                	je     fad6 <func_64+0x1ecc>
    fac0:	48 8b 85 b0 ee ff ff 	mov    -0x1150(%rbp),%rax
    fac7:	0f b7 00             	movzwl (%rax),%eax
    faca:	66 85 c0             	test   %ax,%ax
    facd:	74 07                	je     fad6 <func_64+0x1ecc>
    facf:	b8 01 00 00 00       	mov    $0x1,%eax
    fad4:	eb 05                	jmp    fadb <func_64+0x1ed1>
    fad6:	b8 00 00 00 00       	mov    $0x0,%eax
    fadb:	98                   	cwtl   
    fadc:	44 89 f6             	mov    %r14d,%esi
    fadf:	89 c7                	mov    %eax,%edi
    fae1:	e8 0f 79 ff ff       	callq  73f5 <safe_mul_func_int16_t_s_s>
    fae6:	0f bf d0             	movswl %ax,%edx
    fae9:	0f b7 85 c8 ee ff ff 	movzwl -0x1138(%rbp),%eax
    faf0:	39 c2                	cmp    %eax,%edx
    faf2:	0f 94 c0             	sete   %al
    faf5:	22 85 c2 ee ff ff    	and    -0x113e(%rbp),%al
    fafb:	0f b6 c0             	movzbl %al,%eax
    fafe:	be 00 00 00 00       	mov    $0x0,%esi
    fb03:	89 c7                	mov    %eax,%edi
    fb05:	e8 50 80 ff ff       	callq  7b5a <safe_add_func_uint8_t_u_u>
    fb0a:	0f b6 c0             	movzbl %al,%eax
    fb0d:	89 85 1c f2 ff ff    	mov    %eax,-0xde4(%rbp)
    fb13:	8b 95 1c f2 ff ff    	mov    -0xde4(%rbp),%edx
    fb19:	0f b7 85 ca ee ff ff 	movzwl -0x1136(%rbp),%eax
    fb20:	39 c2                	cmp    %eax,%edx
    fb22:	0f 9c c0             	setl   %al
    fb25:	0f b6 d0             	movzbl %al,%edx
    fb28:	0f b7 85 c8 ee ff ff 	movzwl -0x1138(%rbp),%eax
    fb2f:	39 c2                	cmp    %eax,%edx
    fb31:	0f 9e c0             	setle  %al
    fb34:	0f b6 c0             	movzbl %al,%eax
    fb37:	44 31 f8             	xor    %r15d,%eax
    fb3a:	89 c2                	mov    %eax,%edx
    fb3c:	8b 05 ae 55 00 00    	mov    0x55ae(%rip),%eax        # 150f0 <g_261>
    fb42:	39 c2                	cmp    %eax,%edx
    fb44:	8b 85 bc ee ff ff    	mov    -0x1144(%rbp),%eax
    fb4a:	48 63 d0             	movslq %eax,%rdx
    fb4d:	48 8b 85 18 f0 ff ff 	mov    -0xfe8(%rbp),%rax
    fb54:	48 89 10             	mov    %rdx,(%rax)
    fb57:	48 8b 85 18 f0 ff ff 	mov    -0xfe8(%rbp),%rax
    fb5e:	48 8b 00             	mov    (%rax),%rax
    fb61:	48 89 c2             	mov    %rax,%rdx
    fb64:	0f b7 05 f1 54 00 00 	movzwl 0x54f1(%rip),%eax        # 1505c <g_94+0x1c>
    fb6b:	0f b7 c0             	movzwl %ax,%eax
    fb6e:	48 89 d6             	mov    %rdx,%rsi
    fb71:	48 89 c7             	mov    %rax,%rdi
    fb74:	e8 b5 84 ff ff       	callq  802e <safe_add_func_uint64_t_u_u>
    fb79:	66 33 85 ba ee ff ff 	xor    -0x1146(%rbp),%ax
    fb80:	98                   	cwtl   
    fb81:	be 0e 00 00 00       	mov    $0xe,%esi
    fb86:	89 c7                	mov    %eax,%edi
    fb88:	e8 54 79 ff ff       	callq  74e1 <safe_lshift_func_int16_t_s_u>
    fb8d:	89 c2                	mov    %eax,%edx
    fb8f:	0f b6 05 f2 55 00 00 	movzbl 0x55f2(%rip),%eax        # 15188 <g_412>
    fb96:	31 d0                	xor    %edx,%eax
    fb98:	88 05 ea 55 00 00    	mov    %al,0x55ea(%rip)        # 15188 <g_412>
    fb9e:	0f b6 05 e3 55 00 00 	movzbl 0x55e3(%rip),%eax        # 15188 <g_412>
    fba5:	0f b6 c0             	movzbl %al,%eax
    fba8:	44 89 ee             	mov    %r13d,%esi
    fbab:	89 c7                	mov    %eax,%edi
    fbad:	e8 8b 81 ff ff       	callq  7d3d <safe_mul_func_uint16_t_u_u>
    fbb2:	0f b7 c0             	movzwl %ax,%eax
    fbb5:	48 39 85 a0 ee ff ff 	cmp    %rax,-0x1160(%rbp)
    fbbc:	0f 94 c0             	sete   %al
    fbbf:	0f b6 c0             	movzbl %al,%eax
    fbc2:	44 89 e6             	mov    %r12d,%esi
    fbc5:	89 c7                	mov    %eax,%edi
    fbc7:	e8 26 76 ff ff       	callq  71f2 <safe_sub_func_int8_t_s_s>
    fbcc:	0f b6 c0             	movzbl %al,%eax
    fbcf:	89 de                	mov    %ebx,%esi
    fbd1:	89 c7                	mov    %eax,%edi
    fbd3:	e8 bb 7f ff ff       	callq  7b93 <safe_mul_func_uint8_t_u_u>
    fbd8:	0f b6 d0             	movzbl %al,%edx
    fbdb:	8b 85 bc ee ff ff    	mov    -0x1144(%rbp),%eax
    fbe1:	39 c2                	cmp    %eax,%edx
    fbe3:	48 8b 85 e8 ef ff ff 	mov    -0x1018(%rbp),%rax
    fbea:	e9 ee 07 00 00       	jmpq   103dd <func_64+0x27d3>
    fbef:	66 c7 85 c6 ee ff ff 	movw   $0x7,-0x113a(%rbp)
    fbf6:	07 00 
    fbf8:	e9 4d 03 00 00       	jmpq   ff4a <func_64+0x2340>
    fbfd:	c7 85 a0 fa ff ff 08 	movl   $0x8,-0x560(%rbp)
    fc04:	00 00 00 
    fc07:	c7 85 a4 fa ff ff cf 	movl   $0x8740eccf,-0x55c(%rbp)
    fc0e:	ec 40 87 
    fc11:	c7 85 a8 fa ff ff 45 	movl   $0x72ecc745,-0x558(%rbp)
    fc18:	c7 ec 72 
    fc1b:	c7 85 ac fa ff ff 45 	movl   $0x72ecc745,-0x554(%rbp)
    fc22:	c7 ec 72 
    fc25:	c7 85 b0 fa ff ff cf 	movl   $0x8740eccf,-0x550(%rbp)
    fc2c:	ec 40 87 
    fc2f:	c7 85 b4 fa ff ff b8 	movl   $0x1ee474b8,-0x54c(%rbp)
    fc36:	74 e4 1e 
    fc39:	c7 85 b8 fa ff ff e4 	movl   $0x808909e4,-0x548(%rbp)
    fc40:	09 89 80 
    fc43:	c7 85 bc fa ff ff 2b 	movl   $0xfb26062b,-0x544(%rbp)
    fc4a:	06 26 fb 
    fc4d:	c7 85 c0 fa ff ff 2b 	movl   $0xfb26062b,-0x540(%rbp)
    fc54:	06 26 fb 
    fc57:	c7 85 c4 fa ff ff e4 	movl   $0x808909e4,-0x53c(%rbp)
    fc5e:	09 89 80 
    fc61:	c7 85 c8 fa ff ff 08 	movl   $0x8,-0x538(%rbp)
    fc68:	00 00 00 
    fc6b:	c7 85 cc fa ff ff cf 	movl   $0x8740eccf,-0x534(%rbp)
    fc72:	ec 40 87 
    fc75:	c7 85 d0 fa ff ff 45 	movl   $0x72ecc745,-0x530(%rbp)
    fc7c:	c7 ec 72 
    fc7f:	c7 85 d4 fa ff ff 45 	movl   $0x72ecc745,-0x52c(%rbp)
    fc86:	c7 ec 72 
    fc89:	c7 85 d8 fa ff ff cf 	movl   $0x8740eccf,-0x528(%rbp)
    fc90:	ec 40 87 
    fc93:	c7 85 dc fa ff ff b8 	movl   $0x1ee474b8,-0x524(%rbp)
    fc9a:	74 e4 1e 
    fc9d:	c7 85 e0 fa ff ff e4 	movl   $0x808909e4,-0x520(%rbp)
    fca4:	09 89 80 
    fca7:	c7 85 e4 fa ff ff 2b 	movl   $0xfb26062b,-0x51c(%rbp)
    fcae:	06 26 fb 
    fcb1:	c7 85 e8 fa ff ff 2b 	movl   $0xfb26062b,-0x518(%rbp)
    fcb8:	06 26 fb 
    fcbb:	c7 85 ec fa ff ff e4 	movl   $0x808909e4,-0x514(%rbp)
    fcc2:	09 89 80 
    fcc5:	c7 85 f0 fa ff ff 08 	movl   $0x8,-0x510(%rbp)
    fccc:	00 00 00 
    fccf:	c7 85 f4 fa ff ff cf 	movl   $0x8740eccf,-0x50c(%rbp)
    fcd6:	ec 40 87 
    fcd9:	c7 85 f8 fa ff ff 45 	movl   $0x72ecc745,-0x508(%rbp)
    fce0:	c7 ec 72 
    fce3:	c7 85 fc fa ff ff 45 	movl   $0x72ecc745,-0x504(%rbp)
    fcea:	c7 ec 72 
    fced:	c7 85 00 fb ff ff cf 	movl   $0x8740eccf,-0x500(%rbp)
    fcf4:	ec 40 87 
    fcf7:	c7 85 04 fb ff ff b8 	movl   $0x1ee474b8,-0x4fc(%rbp)
    fcfe:	74 e4 1e 
    fd01:	c7 85 08 fb ff ff e4 	movl   $0x808909e4,-0x4f8(%rbp)
    fd08:	09 89 80 
    fd0b:	c7 85 0c fb ff ff 2b 	movl   $0xfb26062b,-0x4f4(%rbp)
    fd12:	06 26 fb 
    fd15:	c7 85 10 fb ff ff 2b 	movl   $0xfb26062b,-0x4f0(%rbp)
    fd1c:	06 26 fb 
    fd1f:	c7 85 14 fb ff ff e4 	movl   $0x808909e4,-0x4ec(%rbp)
    fd26:	09 89 80 
    fd29:	c7 85 b0 f4 ff ff 00 	movl   $0x0,-0xb50(%rbp)
    fd30:	00 00 00 
    fd33:	c7 85 b4 f4 ff ff 17 	movl   $0x5427cf17,-0xb4c(%rbp)
    fd3a:	cf 27 54 
    fd3d:	c7 85 b8 f4 ff ff bd 	movl   $0x2e8dafbd,-0xb48(%rbp)
    fd44:	af 8d 2e 
    fd47:	c7 85 bc f4 ff ff a9 	movl   $0xae6931a9,-0xb44(%rbp)
    fd4e:	31 69 ae 
    fd51:	c7 85 c0 f4 ff ff 67 	movl   $0xbbc95067,-0xb40(%rbp)
    fd58:	50 c9 bb 
    fd5b:	c7 85 c4 f4 ff ff ef 	movl   $0x697e60ef,-0xb3c(%rbp)
    fd62:	60 7e 69 
    fd65:	c7 85 c8 f4 ff ff 00 	movl   $0x0,-0xb38(%rbp)
    fd6c:	00 00 00 
    fd6f:	c7 85 cc f4 ff ff a9 	movl   $0xae6931a9,-0xb34(%rbp)
    fd76:	31 69 ae 
    fd79:	c7 85 d0 f4 ff ff fc 	movl   $0xfffffffc,-0xb30(%rbp)
    fd80:	ff ff ff 
    fd83:	c7 85 d4 f4 ff ff fc 	movl   $0xfffffffc,-0xb2c(%rbp)
    fd8a:	ff ff ff 
    fd8d:	c7 85 d8 f4 ff ff a9 	movl   $0xae6931a9,-0xb28(%rbp)
    fd94:	31 69 ae 
    fd97:	c7 85 dc f4 ff ff 00 	movl   $0x0,-0xb24(%rbp)
    fd9e:	00 00 00 
    fda1:	c7 85 e0 f4 ff ff fc 	movl   $0xfffffffc,-0xb20(%rbp)
    fda8:	ff ff ff 
    fdab:	c7 85 e4 f4 ff ff a9 	movl   $0xae6931a9,-0xb1c(%rbp)
    fdb2:	31 69 ae 
    fdb5:	c7 85 e8 f4 ff ff 00 	movl   $0x0,-0xb18(%rbp)
    fdbc:	00 00 00 
    fdbf:	c7 85 ec f4 ff ff 01 	movl   $0x1,-0xb14(%rbp)
    fdc6:	00 00 00 
    fdc9:	c7 85 f0 f4 ff ff 67 	movl   $0xbbc95067,-0xb10(%rbp)
    fdd0:	50 c9 bb 
    fdd3:	c7 85 f4 f4 ff ff bd 	movl   $0x2e8dafbd,-0xb0c(%rbp)
    fdda:	af 8d 2e 
    fddd:	c7 85 f8 f4 ff ff bd 	movl   $0x2e8dafbd,-0xb08(%rbp)
    fde4:	af 8d 2e 
    fde7:	c7 85 fc f4 ff ff 17 	movl   $0x5427cf17,-0xb04(%rbp)
    fdee:	cf 27 54 
    fdf1:	c7 85 00 f5 ff ff 00 	movl   $0x0,-0xb00(%rbp)
    fdf8:	00 00 00 
    fdfb:	c7 85 04 f5 ff ff 17 	movl   $0x5427cf17,-0xafc(%rbp)
    fe02:	cf 27 54 
    fe05:	c7 85 08 f5 ff ff bd 	movl   $0x2e8dafbd,-0xaf8(%rbp)
    fe0c:	af 8d 2e 
    fe0f:	c7 85 0c f5 ff ff a9 	movl   $0xae6931a9,-0xaf4(%rbp)
    fe16:	31 69 ae 
    fe19:	48 c7 85 b8 f0 ff ff 	movq   $0x0,-0xf48(%rbp)
    fe20:	00 00 00 00 
    fe24:	48 8d 05 75 52 00 00 	lea    0x5275(%rip),%rax        # 150a0 <g_113>
    fe2b:	48 89 85 c0 f0 ff ff 	mov    %rax,-0xf40(%rbp)
    fe32:	48 c7 85 c8 f0 ff ff 	movq   $0x0,-0xf38(%rbp)
    fe39:	00 00 00 00 
    fe3d:	66 c7 85 50 f2 ff ff 	movw   $0xd70c,-0xdb0(%rbp)
    fe44:	0c d7 
    fe46:	66 c7 85 52 f2 ff ff 	movw   $0xd70c,-0xdae(%rbp)
    fe4d:	0c d7 
    fe4f:	66 c7 85 54 f2 ff ff 	movw   $0xd70c,-0xdac(%rbp)
    fe56:	0c d7 
    fe58:	66 c7 85 56 f2 ff ff 	movw   $0xd70c,-0xdaa(%rbp)
    fe5f:	0c d7 
    fe61:	66 c7 85 58 f2 ff ff 	movw   $0xd70c,-0xda8(%rbp)
    fe68:	0c d7 
    fe6a:	66 c7 85 5a f2 ff ff 	movw   $0xfff9,-0xda6(%rbp)
    fe71:	f9 ff 
    fe73:	66 c7 85 5c f2 ff ff 	movw   $0xfff9,-0xda4(%rbp)
    fe7a:	f9 ff 
    fe7c:	66 c7 85 5e f2 ff ff 	movw   $0xfff9,-0xda2(%rbp)
    fe83:	f9 ff 
    fe85:	66 c7 85 60 f2 ff ff 	movw   $0xfff9,-0xda0(%rbp)
    fe8c:	f9 ff 
    fe8e:	66 c7 85 62 f2 ff ff 	movw   $0xfff9,-0xd9e(%rbp)
    fe95:	f9 ff 
    fe97:	66 c7 85 64 f2 ff ff 	movw   $0xd70c,-0xd9c(%rbp)
    fe9e:	0c d7 
    fea0:	66 c7 85 66 f2 ff ff 	movw   $0xd70c,-0xd9a(%rbp)
    fea7:	0c d7 
    fea9:	66 c7 85 68 f2 ff ff 	movw   $0xd70c,-0xd98(%rbp)
    feb0:	0c d7 
    feb2:	66 c7 85 6a f2 ff ff 	movw   $0xd70c,-0xd96(%rbp)
    feb9:	0c d7 
    febb:	66 c7 85 6c f2 ff ff 	movw   $0xd70c,-0xd94(%rbp)
    fec2:	0c d7 
    fec4:	48 b8 26 12 4b 0e 13 	movabs $0x839b2130e4b1226,%rax
    fecb:	b2 39 08 
    fece:	48 89 85 d0 f0 ff ff 	mov    %rax,-0xf30(%rbp)
    fed5:	c7 85 90 f3 ff ff fd 	movl   $0xfffffffd,-0xc70(%rbp)
    fedc:	ff ff ff 
    fedf:	c7 85 94 f3 ff ff fd 	movl   $0xfffffffd,-0xc6c(%rbp)
    fee6:	ff ff ff 
    fee9:	c7 85 98 f3 ff ff fd 	movl   $0xfffffffd,-0xc68(%rbp)
    fef0:	ff ff ff 
    fef3:	c7 85 9c f3 ff ff a3 	movl   $0xdc92aa3,-0xc64(%rbp)
    fefa:	2a c9 0d 
    fefd:	c7 85 a0 f3 ff ff 98 	movl   $0x38f10998,-0xc60(%rbp)
    ff04:	09 f1 38 
    ff07:	c7 85 a4 f3 ff ff f8 	movl   $0xfffffff8,-0xc5c(%rbp)
    ff0e:	ff ff ff 
    ff11:	c7 85 a8 f3 ff ff a3 	movl   $0xdc92aa3,-0xc58(%rbp)
    ff18:	2a c9 0d 
    ff1b:	c7 85 ac f3 ff ff f8 	movl   $0xfffffff8,-0xc54(%rbp)
    ff22:	ff ff ff 
    ff25:	c7 85 b0 f3 ff ff 98 	movl   $0x38f10998,-0xc50(%rbp)
    ff2c:	09 f1 38 
    ff2f:	c7 85 b4 f3 ff ff a3 	movl   $0xdc92aa3,-0xc4c(%rbp)
    ff36:	2a c9 0d 
    ff39:	0f b7 85 c6 ee ff ff 	movzwl -0x113a(%rbp),%eax
    ff40:	83 e8 01             	sub    $0x1,%eax
    ff43:	66 89 85 c6 ee ff ff 	mov    %ax,-0x113a(%rbp)
    ff4a:	66 83 bd c6 ee ff ff 	cmpw   $0x0,-0x113a(%rbp)
    ff51:	00 
    ff52:	0f 89 a5 fc ff ff    	jns    fbfd <func_64+0x1ff3>
    ff58:	48 83 bd c0 ef ff ff 	cmpq   $0x0,-0x1040(%rbp)
    ff5f:	00 
    ff60:	0f 84 66 01 00 00    	je     100cc <func_64+0x24c2>
    ff66:	48 b8 4d 73 83 9e 34 	movabs $0xaa2531349e83734d,%rax
    ff6d:	31 25 aa 
    ff70:	48 89 85 a8 f0 ff ff 	mov    %rax,-0xf58(%rbp)
    ff77:	c7 85 54 ef ff ff 05 	movl   $0x5,-0x10ac(%rbp)
    ff7e:	00 00 00 
    ff81:	48 8d 05 6c 51 00 00 	lea    0x516c(%rip),%rax        # 150f4 <g_261+0x4>
    ff88:	48 89 85 b0 f0 ff ff 	mov    %rax,-0xf50(%rbp)
    ff8f:	c7 85 58 ef ff ff 89 	movl   $0x62c8f989,-0x10a8(%rbp)
    ff96:	f9 c8 62 
    ff99:	48 8b 85 e8 ef ff ff 	mov    -0x1018(%rbp),%rax
    ffa0:	8b 00                	mov    (%rax),%eax
    ffa2:	89 c2                	mov    %eax,%edx
    ffa4:	48 8b 85 a8 f0 ff ff 	mov    -0xf58(%rbp),%rax
    ffab:	09 d0                	or     %edx,%eax
    ffad:	89 c2                	mov    %eax,%edx
    ffaf:	48 8b 85 e8 ef ff ff 	mov    -0x1018(%rbp),%rax
    ffb6:	89 10                	mov    %edx,(%rax)
    ffb8:	8b 05 d2 54 00 00    	mov    0x54d2(%rip),%eax        # 15490 <g_586>
    ffbe:	0f b6 d8             	movzbl %al,%ebx
    ffc1:	8b 85 bc ee ff ff    	mov    -0x1144(%rbp),%eax
    ffc7:	85 c0                	test   %eax,%eax
    ffc9:	0f 84 aa 00 00 00    	je     10079 <func_64+0x246f>
    ffcf:	48 8b 85 b8 ef ff ff 	mov    -0x1048(%rbp),%rax
    ffd6:	48 8b 00             	mov    (%rax),%rax
    ffd9:	48 8b 00             	mov    (%rax),%rax
    ffdc:	44 8b 28             	mov    (%rax),%r13d
    ffdf:	48 8b 85 a0 ee ff ff 	mov    -0x1160(%rbp),%rax
    ffe6:	44 0f bf e0          	movswl %ax,%r12d
    ffea:	8b 85 bc ee ff ff    	mov    -0x1144(%rbp),%eax
    fff0:	83 c8 01             	or     $0x1,%eax
    fff3:	0f b7 c0             	movzwl %ax,%eax
    fff6:	be 0a 00 00 00       	mov    $0xa,%esi
    fffb:	89 c7                	mov    %eax,%edi
    fffd:	e8 bc 7d ff ff       	callq  7dbe <safe_lshift_func_uint16_t_u_s>
   10002:	0f be c0             	movsbl %al,%eax
   10005:	89 c6                	mov    %eax,%esi
   10007:	bf c3 ff ff ff       	mov    $0xffffffc3,%edi
   1000c:	e8 c3 71 ff ff       	callq  71d4 <safe_add_func_int8_t_s_s>
   10011:	0f be c0             	movsbl %al,%eax
   10014:	44 89 e6             	mov    %r12d,%esi
   10017:	89 c7                	mov    %eax,%edi
   10019:	e8 d7 73 ff ff       	callq  73f5 <safe_mul_func_int16_t_s_s>
   1001e:	66 85 c0             	test   %ax,%ax
   10021:	74 0a                	je     1002d <func_64+0x2423>
   10023:	48 83 bd a8 f0 ff ff 	cmpq   $0x0,-0xf58(%rbp)
   1002a:	00 
   1002b:	74 07                	je     10034 <func_64+0x242a>
   1002d:	b8 01 00 00 00       	mov    $0x1,%eax
   10032:	eb 05                	jmp    10039 <func_64+0x242f>
   10034:	b8 00 00 00 00       	mov    $0x0,%eax
   10039:	44 39 e8             	cmp    %r13d,%eax
   1003c:	0f 94 c0             	sete   %al
   1003f:	0f b6 c0             	movzbl %al,%eax
   10042:	39 85 54 ef ff ff    	cmp    %eax,-0x10ac(%rbp)
   10048:	0f 96 c0             	setbe  %al
   1004b:	0f b6 c0             	movzbl %al,%eax
   1004e:	48 89 c6             	mov    %rax,%rsi
   10051:	48 bf bd 1b 3c fb cc 	movabs $0x5ff9cfccfb3c1bbd,%rdi
   10058:	cf f9 5f 
   1005b:	e8 e1 77 ff ff       	callq  7841 <safe_add_func_int64_t_s_s>
   10060:	be 09 00 00 00       	mov    $0x9,%esi
   10065:	bf 01 00 00 00       	mov    $0x1,%edi
   1006a:	e8 4f 7d ff ff       	callq  7dbe <safe_lshift_func_uint16_t_u_s>
   1006f:	0f b7 c0             	movzwl %ax,%eax
   10072:	48 39 85 a8 f0 ff ff 	cmp    %rax,-0xf58(%rbp)
   10079:	48 83 bd a0 ee ff ff 	cmpq   $0x1,-0x1160(%rbp)
   10080:	01 
   10081:	0f 96 c0             	setbe  %al
   10084:	0f b6 c0             	movzbl %al,%eax
   10087:	89 de                	mov    %ebx,%esi
   10089:	89 c7                	mov    %eax,%edi
   1008b:	e8 03 7b ff ff       	callq  7b93 <safe_mul_func_uint8_t_u_u>
   10090:	be 01 00 00 00       	mov    $0x1,%esi
   10095:	bf 01 00 00 00       	mov    $0x1,%edi
   1009a:	e8 34 73 ff ff       	callq  73d3 <safe_sub_func_int16_t_s_s>
   1009f:	b8 01 00 00 00       	mov    $0x1,%eax
   100a4:	09 85 58 ef ff ff    	or     %eax,-0x10a8(%rbp)
   100aa:	48 8b 85 b8 ef ff ff 	mov    -0x1048(%rbp),%rax
   100b1:	48 8b 00             	mov    (%rax),%rax
   100b4:	48 8b 00             	mov    (%rax),%rax
   100b7:	8b 95 58 ef ff ff    	mov    -0x10a8(%rbp),%edx
   100bd:	89 10                	mov    %edx,(%rax)
   100bf:	8b 00                	mov    (%rax),%eax
   100c1:	89 85 bc ee ff ff    	mov    %eax,-0x1144(%rbp)
   100c7:	e9 04 03 00 00       	jmpq   103d0 <func_64+0x27c6>
   100cc:	48 c7 85 80 f0 ff ff 	movq   $0x0,-0xf80(%rbp)
   100d3:	00 00 00 00 
   100d7:	48 8d 05 ba 83 00 00 	lea    0x83ba(%rip),%rax        # 18498 <g_601>
   100de:	48 89 85 88 f0 ff ff 	mov    %rax,-0xf78(%rbp)
   100e5:	c7 85 98 ef ff ff 05 	movl   $0x5,-0x1068(%rbp)
   100ec:	00 00 00 
   100ef:	48 8d 05 4a 7c 00 00 	lea    0x7c4a(%rip),%rax        # 17d40 <g_4>
   100f6:	48 89 85 90 f0 ff ff 	mov    %rax,-0xf70(%rbp)
   100fd:	c7 85 28 ef ff ff fb 	movl   $0xfffffffb,-0x10d8(%rbp)
   10104:	ff ff ff 
   10107:	66 c7 85 cc ee ff ff 	movw   $0x203a,-0x1134(%rbp)
   1010e:	3a 20 
   10110:	c7 85 2c ef ff ff 09 	movl   $0x9,-0x10d4(%rbp)
   10117:	00 00 00 
   1011a:	c7 85 30 ef ff ff 1c 	movl   $0x3d9eb61c,-0x10d0(%rbp)
   10121:	b6 9e 3d 
   10124:	c7 85 34 ef ff ff bd 	movl   $0x9b1441bd,-0x10cc(%rbp)
   1012b:	41 14 9b 
   1012e:	c6 85 c3 ee ff ff 02 	movb   $0x2,-0x113d(%rbp)
   10135:	c7 85 38 ef ff ff bc 	movl   $0xb69b64bc,-0x10c8(%rbp)
   1013c:	64 9b b6 
   1013f:	c7 85 3c ef ff ff 01 	movl   $0x1,-0x10c4(%rbp)
   10146:	00 00 00 
   10149:	48 8b 85 88 f0 ff ff 	mov    -0xf78(%rbp),%rax
   10150:	48 8d 15 39 83 00 00 	lea    0x8339(%rip),%rdx        # 18490 <g_602>
   10157:	48 89 10             	mov    %rdx,(%rax)
   1015a:	c7 85 a0 fa ff ff 4f 	movl   $0x3ade1e4f,-0x560(%rbp)
   10161:	1e de 3a 
   10164:	c7 85 a4 fa ff ff 59 	movl   $0xd0d3059,-0x55c(%rbp)
   1016b:	30 0d 0d 
   1016e:	c7 85 a8 fa ff ff 4f 	movl   $0x3ade1e4f,-0x558(%rbp)
   10175:	1e de 3a 
   10178:	c7 85 ac fa ff ff 60 	movl   $0xa987c560,-0x554(%rbp)
   1017f:	c5 87 a9 
   10182:	c7 85 b0 fa ff ff 60 	movl   $0xa987c560,-0x550(%rbp)
   10189:	c5 87 a9 
   1018c:	c7 85 b4 fa ff ff 4f 	movl   $0x3ade1e4f,-0x54c(%rbp)
   10193:	1e de 3a 
   10196:	c7 85 b8 fa ff ff 59 	movl   $0xd0d3059,-0x548(%rbp)
   1019d:	30 0d 0d 
   101a0:	c7 85 bc fa ff ff 4f 	movl   $0x3ade1e4f,-0x544(%rbp)
   101a7:	1e de 3a 
   101aa:	c7 85 c0 fa ff ff 60 	movl   $0xa987c560,-0x540(%rbp)
   101b1:	c5 87 a9 
   101b4:	c7 85 c4 fa ff ff 60 	movl   $0xa987c560,-0x53c(%rbp)
   101bb:	c5 87 a9 
   101be:	c7 85 c8 fa ff ff 4f 	movl   $0x3ade1e4f,-0x538(%rbp)
   101c5:	1e de 3a 
   101c8:	c7 85 cc fa ff ff 59 	movl   $0xd0d3059,-0x534(%rbp)
   101cf:	30 0d 0d 
   101d2:	c7 85 d0 fa ff ff 4f 	movl   $0x3ade1e4f,-0x530(%rbp)
   101d9:	1e de 3a 
   101dc:	c7 85 d4 fa ff ff 60 	movl   $0xa987c560,-0x52c(%rbp)
   101e3:	c5 87 a9 
   101e6:	c7 85 d8 fa ff ff 60 	movl   $0xa987c560,-0x528(%rbp)
   101ed:	c5 87 a9 
   101f0:	c7 85 dc fa ff ff 4f 	movl   $0x3ade1e4f,-0x524(%rbp)
   101f7:	1e de 3a 
   101fa:	c7 85 e0 fa ff ff 59 	movl   $0xd0d3059,-0x520(%rbp)
   10201:	30 0d 0d 
   10204:	c7 85 e4 fa ff ff 4f 	movl   $0x3ade1e4f,-0x51c(%rbp)
   1020b:	1e de 3a 
   1020e:	c7 85 e8 fa ff ff 60 	movl   $0xa987c560,-0x518(%rbp)
   10215:	c5 87 a9 
   10218:	c7 85 ec fa ff ff 60 	movl   $0xa987c560,-0x514(%rbp)
   1021f:	c5 87 a9 
   10222:	c7 85 f0 fa ff ff 4f 	movl   $0x3ade1e4f,-0x510(%rbp)
   10229:	1e de 3a 
   1022c:	c7 85 f4 fa ff ff 59 	movl   $0xd0d3059,-0x50c(%rbp)
   10233:	30 0d 0d 
   10236:	c7 85 f8 fa ff ff 4f 	movl   $0x3ade1e4f,-0x508(%rbp)
   1023d:	1e de 3a 
   10240:	c7 85 fc fa ff ff 60 	movl   $0xa987c560,-0x504(%rbp)
   10247:	c5 87 a9 
   1024a:	c7 85 00 fb ff ff 60 	movl   $0xa987c560,-0x500(%rbp)
   10251:	c5 87 a9 
   10254:	c7 85 04 fb ff ff 4f 	movl   $0x3ade1e4f,-0x4fc(%rbp)
   1025b:	1e de 3a 
   1025e:	c7 85 08 fb ff ff 59 	movl   $0xd0d3059,-0x4f8(%rbp)
   10265:	30 0d 0d 
   10268:	c7 85 dc ee ff ff 00 	movl   $0x0,-0x1124(%rbp)
   1026f:	00 00 00 
   10272:	e9 4a 01 00 00       	jmpq   103c1 <func_64+0x27b7>
   10277:	48 b8 83 83 83 83 83 	movabs $0x8383838383838383,%rax
   1027e:	83 83 83 
   10281:	48 89 45 be          	mov    %rax,-0x42(%rbp)
   10285:	66 c7 45 c6 83 83    	movw   $0x8383,-0x3a(%rbp)
   1028b:	48 8d 85 98 ef ff ff 	lea    -0x1068(%rbp),%rax
   10292:	48 89 85 98 f0 ff ff 	mov    %rax,-0xf68(%rbp)
   10299:	c7 85 40 ef ff ff 03 	movl   $0x3,-0x10c0(%rbp)
   102a0:	00 00 00 
   102a3:	c7 85 44 ef ff ff a6 	movl   $0xc1940ca6,-0x10bc(%rbp)
   102aa:	0c 94 c1 
   102ad:	c7 85 48 ef ff ff 01 	movl   $0x1,-0x10b8(%rbp)
   102b4:	00 00 00 
   102b7:	c7 85 f4 ee ff ff 00 	movl   $0x0,-0x110c(%rbp)
   102be:	00 00 00 
   102c1:	eb 1a                	jmp    102dd <func_64+0x26d3>
   102c3:	8b 85 f4 ee ff ff    	mov    -0x110c(%rbp),%eax
   102c9:	48 98                	cltq   
   102cb:	c7 84 85 b0 f4 ff ff 	movl   $0x1,-0xb50(%rbp,%rax,4)
   102d2:	01 00 00 00 
   102d6:	83 85 f4 ee ff ff 01 	addl   $0x1,-0x110c(%rbp)
   102dd:	83 bd f4 ee ff ff 03 	cmpl   $0x3,-0x110c(%rbp)
   102e4:	7e dd                	jle    102c3 <func_64+0x26b9>
   102e6:	8b 85 98 ef ff ff    	mov    -0x1068(%rbp),%eax
   102ec:	85 c0                	test   %eax,%eax
   102ee:	74 33                	je     10323 <func_64+0x2719>
   102f0:	66 c7 85 ce ee ff ff 	movw   $0x5,-0x1132(%rbp)
   102f7:	05 00 
   102f9:	0f b6 45 c2          	movzbl -0x3e(%rbp),%eax
   102fd:	83 c0 01             	add    $0x1,%eax
   10300:	88 45 c2             	mov    %al,-0x3e(%rbp)
   10303:	48 8b 05 ae 81 00 00 	mov    0x81ae(%rip),%rax        # 184b8 <g_826>
   1030a:	48 8b 95 98 f0 ff ff 	mov    -0xf68(%rbp),%rdx
   10311:	48 89 10             	mov    %rdx,(%rax)
   10314:	48 8b 05 0d 81 00 00 	mov    0x810d(%rip),%rax        # 18428 <g_289>
   1031b:	48 8b 00             	mov    (%rax),%rax
   1031e:	e9 ba 00 00 00       	jmpq   103dd <func_64+0x27d3>
   10323:	48 c7 85 a0 ef ff ff 	movq   $0x0,-0x1060(%rbp)
   1032a:	00 00 00 00 
   1032e:	48 8d 85 a0 ef ff ff 	lea    -0x1060(%rbp),%rax
   10335:	48 89 85 a0 f0 ff ff 	mov    %rax,-0xf60(%rbp)
   1033c:	c7 85 4c ef ff ff 09 	movl   $0x9,-0x10b4(%rbp)
   10343:	00 00 00 
   10346:	c7 85 50 ef ff ff a6 	movl   $0x7df48ea6,-0x10b0(%rbp)
   1034d:	8e f4 7d 
   10350:	c7 85 f8 ee ff ff 00 	movl   $0x0,-0x1108(%rbp)
   10357:	00 00 00 
   1035a:	eb 1a                	jmp    10376 <func_64+0x276c>
   1035c:	8b 85 f8 ee ff ff    	mov    -0x1108(%rbp),%eax
   10362:	48 98                	cltq   
   10364:	c7 84 85 90 f3 ff ff 	movl   $0x0,-0xc70(%rbp,%rax,4)
   1036b:	00 00 00 00 
   1036f:	83 85 f8 ee ff ff 01 	addl   $0x1,-0x1108(%rbp)
   10376:	83 bd f8 ee ff ff 01 	cmpl   $0x1,-0x1108(%rbp)
   1037d:	7e dd                	jle    1035c <func_64+0x2752>
   1037f:	48 8b 85 a0 f0 ff ff 	mov    -0xf60(%rbp),%rax
   10386:	48 8b 95 90 f0 ff ff 	mov    -0xf70(%rbp),%rdx
   1038d:	48 89 10             	mov    %rdx,(%rax)
   10390:	48 8d 05 f9 80 00 00 	lea    0x80f9(%rip),%rax        # 18490 <g_602>
   10397:	48 89 05 fa 80 00 00 	mov    %rax,0x80fa(%rip)        # 18498 <g_601>
   1039e:	48 83 85 d0 ef ff ff 	addq   $0x1,-0x1030(%rbp)
   103a5:	01 
   103a6:	8b 85 dc ee ff ff    	mov    -0x1124(%rbp),%eax
   103ac:	89 c0                	mov    %eax,%eax
   103ae:	be 04 00 00 00       	mov    $0x4,%esi
   103b3:	48 89 c7             	mov    %rax,%rdi
   103b6:	e8 86 74 ff ff       	callq  7841 <safe_add_func_int64_t_s_s>
   103bb:	89 85 dc ee ff ff    	mov    %eax,-0x1124(%rbp)
   103c1:	8b 85 dc ee ff ff    	mov    -0x1124(%rbp),%eax
   103c7:	83 f8 05             	cmp    $0x5,%eax
   103ca:	0f 87 a7 fe ff ff    	ja     10277 <func_64+0x266d>
   103d0:	48 8b 85 b8 ef ff ff 	mov    -0x1048(%rbp),%rax
   103d7:	48 8b 00             	mov    (%rax),%rax
   103da:	48 8b 00             	mov    (%rax),%rax
   103dd:	48 8b 5d c8          	mov    -0x38(%rbp),%rbx
   103e1:	64 48 33 1c 25 28 00 	xor    %fs:0x28,%rbx
   103e8:	00 00 
   103ea:	74 05                	je     103f1 <func_64+0x27e7>
   103ec:	e8 7f 6c ff ff       	callq  7070 <__stack_chk_fail@plt>
   103f1:	48 81 c4 38 11 00 00 	add    $0x1138,%rsp
   103f8:	5b                   	pop    %rbx
   103f9:	41 5c                	pop    %r12
   103fb:	41 5d                	pop    %r13
   103fd:	41 5e                	pop    %r14
   103ff:	41 5f                	pop    %r15
   10401:	5d                   	pop    %rbp
   10402:	c3                   	retq   

0000000000010403 <func_70>:
   10403:	f3 0f 1e fa          	endbr64 
   10407:	55                   	push   %rbp
   10408:	48 89 e5             	mov    %rsp,%rbp
   1040b:	48 81 ec 00 01 00 00 	sub    $0x100,%rsp
   10412:	89 f8                	mov    %edi,%eax
   10414:	66 89 85 0c ff ff ff 	mov    %ax,-0xf4(%rbp)
   1041b:	64 48 8b 04 25 28 00 	mov    %fs:0x28,%rax
   10422:	00 00 
   10424:	48 89 45 f8          	mov    %rax,-0x8(%rbp)
   10428:	31 c0                	xor    %eax,%eax
   1042a:	c7 85 24 ff ff ff f8 	movl   $0x497a14f8,-0xdc(%rbp)
   10431:	14 7a 49 
   10434:	66 c7 85 1c ff ff ff 	movw   $0x5,-0xe4(%rbp)
   1043b:	05 00 
   1043d:	66 c7 85 1e ff ff ff 	movw   $0x1,-0xe2(%rbp)
   10444:	01 00 
   10446:	c7 85 28 ff ff ff ff 	movl   $0xffffffff,-0xd8(%rbp)
   1044d:	ff ff ff 
   10450:	c7 85 50 ff ff ff 03 	movl   $0x31d9b203,-0xb0(%rbp)
   10457:	b2 d9 31 
   1045a:	c7 85 54 ff ff ff ff 	movl   $0xffffffff,-0xac(%rbp)
   10461:	ff ff ff 
   10464:	c7 85 58 ff ff ff ff 	movl   $0xffffffff,-0xa8(%rbp)
   1046b:	ff ff ff 
   1046e:	c7 85 5c ff ff ff 03 	movl   $0x31d9b203,-0xa4(%rbp)
   10475:	b2 d9 31 
   10478:	c7 85 60 ff ff ff ac 	movl   $0x1dcc64ac,-0xa0(%rbp)
   1047f:	64 cc 1d 
   10482:	c7 85 64 ff ff ff ac 	movl   $0x1dcc64ac,-0x9c(%rbp)
   10489:	64 cc 1d 
   1048c:	c7 85 68 ff ff ff 03 	movl   $0x31d9b203,-0x98(%rbp)
   10493:	b2 d9 31 
   10496:	c7 85 6c ff ff ff ff 	movl   $0xffffffff,-0x94(%rbp)
   1049d:	ff ff ff 
   104a0:	c7 85 70 ff ff ff 01 	movl   $0x1,-0x90(%rbp)
   104a7:	00 00 00 
   104aa:	c7 85 74 ff ff ff 01 	movl   $0x1,-0x8c(%rbp)
   104b1:	00 00 00 
   104b4:	c7 85 78 ff ff ff 6c 	movl   $0xf0d1286c,-0x88(%rbp)
   104bb:	28 d1 f0 
   104be:	c7 85 7c ff ff ff 01 	movl   $0x1,-0x84(%rbp)
   104c5:	00 00 00 
   104c8:	c7 45 80 03 b2 d9 31 	movl   $0x31d9b203,-0x80(%rbp)
   104cf:	c7 45 84 01 00 00 00 	movl   $0x1,-0x7c(%rbp)
   104d6:	c7 45 88 ac 64 cc 1d 	movl   $0x1dcc64ac,-0x78(%rbp)
   104dd:	c7 45 8c ff ff ff ff 	movl   $0xffffffff,-0x74(%rbp)
   104e4:	c7 45 90 04 00 00 00 	movl   $0x4,-0x70(%rbp)
   104eb:	c7 45 94 ff ff ff ff 	movl   $0xffffffff,-0x6c(%rbp)
   104f2:	c7 45 98 04 00 00 00 	movl   $0x4,-0x68(%rbp)
   104f9:	c7 45 9c 06 00 00 00 	movl   $0x6,-0x64(%rbp)
   10500:	c7 45 a0 ff ff ff ff 	movl   $0xffffffff,-0x60(%rbp)
   10507:	c7 45 a4 6c 28 d1 f0 	movl   $0xf0d1286c,-0x5c(%rbp)
   1050e:	c7 45 a8 6c 28 d1 f0 	movl   $0xf0d1286c,-0x58(%rbp)
   10515:	c7 45 ac ff ff ff ff 	movl   $0xffffffff,-0x54(%rbp)
   1051c:	c7 45 b0 ff ff ff ff 	movl   $0xffffffff,-0x50(%rbp)
   10523:	c7 45 b4 6c 28 d1 f0 	movl   $0xf0d1286c,-0x4c(%rbp)
   1052a:	c7 45 b8 6c 28 d1 f0 	movl   $0xf0d1286c,-0x48(%rbp)
   10531:	c7 45 bc ff ff ff ff 	movl   $0xffffffff,-0x44(%rbp)
   10538:	c7 45 c0 06 00 00 00 	movl   $0x6,-0x40(%rbp)
   1053f:	c7 45 c4 04 00 00 00 	movl   $0x4,-0x3c(%rbp)
   10546:	c7 45 c8 ff ff ff ff 	movl   $0xffffffff,-0x38(%rbp)
   1054d:	c7 45 cc 04 00 00 00 	movl   $0x4,-0x34(%rbp)
   10554:	c7 45 d0 ff ff ff ff 	movl   $0xffffffff,-0x30(%rbp)
   1055b:	c7 45 d4 ac 64 cc 1d 	movl   $0x1dcc64ac,-0x2c(%rbp)
   10562:	c7 45 d8 01 00 00 00 	movl   $0x1,-0x28(%rbp)
   10569:	c7 45 dc ac 64 cc 1d 	movl   $0x1dcc64ac,-0x24(%rbp)
   10570:	c7 45 e0 ff ff ff ff 	movl   $0xffffffff,-0x20(%rbp)
   10577:	c7 45 e4 01 00 00 00 	movl   $0x1,-0x1c(%rbp)
   1057e:	c7 45 e8 ff ff ff ff 	movl   $0xffffffff,-0x18(%rbp)
   10585:	c7 45 ec ff ff ff ff 	movl   $0xffffffff,-0x14(%rbp)
   1058c:	c7 85 2c ff ff ff 07 	movl   $0x7,-0xd4(%rbp)
   10593:	00 00 00 
   10596:	c7 85 20 ff ff ff 00 	movl   $0x0,-0xe0(%rbp)
   1059d:	00 00 00 
   105a0:	eb 1e                	jmp    105c0 <func_70+0x1bd>
   105a2:	8b 85 20 ff ff ff    	mov    -0xe0(%rbp),%eax
   105a8:	48 98                	cltq   
   105aa:	48 8d 15 b7 87 00 00 	lea    0x87b7(%rip),%rdx        # 18d68 <g_30>
   105b1:	48 89 94 c5 30 ff ff 	mov    %rdx,-0xd0(%rbp,%rax,8)
   105b8:	ff 
   105b9:	83 85 20 ff ff ff 01 	addl   $0x1,-0xe0(%rbp)
   105c0:	83 bd 20 ff ff ff 02 	cmpl   $0x2,-0xe0(%rbp)
   105c7:	7e d9                	jle    105a2 <func_70+0x19f>
   105c9:	83 85 2c ff ff ff 01 	addl   $0x1,-0xd4(%rbp)
   105d0:	0f b7 85 0c ff ff ff 	movzwl -0xf4(%rbp),%eax
   105d7:	48 8b 4d f8          	mov    -0x8(%rbp),%rcx
   105db:	64 48 33 0c 25 28 00 	xor    %fs:0x28,%rcx
   105e2:	00 00 
   105e4:	74 05                	je     105eb <func_70+0x1e8>
   105e6:	e8 85 6a ff ff       	callq  7070 <__stack_chk_fail@plt>
   105eb:	c9                   	leaveq 
   105ec:	c3                   	retq   

00000000000105ed <main>:
   105ed:	f3 0f 1e fa          	endbr64 
   105f1:	55                   	push   %rbp
   105f2:	48 89 e5             	mov    %rsp,%rbp
   105f5:	48 83 ec 20          	sub    $0x20,%rsp
   105f9:	89 7d ec             	mov    %edi,-0x14(%rbp)
   105fc:	48 89 75 e0          	mov    %rsi,-0x20(%rbp)
   10600:	c7 45 fc 00 00 00 00 	movl   $0x0,-0x4(%rbp)
   10607:	83 7d ec 02          	cmpl   $0x2,-0x14(%rbp)
   1060b:	75 25                	jne    10632 <main+0x45>
   1060d:	48 8b 45 e0          	mov    -0x20(%rbp),%rax
   10611:	48 83 c0 08          	add    $0x8,%rax
   10615:	48 8b 00             	mov    (%rax),%rax
   10618:	48 8d 35 a1 1d 00 00 	lea    0x1da1(%rip),%rsi        # 123c0 <g_1650+0x348>
   1061f:	48 89 c7             	mov    %rax,%rdi
   10622:	e8 69 6a ff ff       	callq  7090 <strcmp@plt>
   10627:	85 c0                	test   %eax,%eax
   10629:	75 07                	jne    10632 <main+0x45>
   1062b:	c7 45 fc 01 00 00 00 	movl   $0x1,-0x4(%rbp)
   10632:	e8 52 6b ff ff       	callq  7189 <platform_main_begin>
   10637:	e8 5c 7f ff ff       	callq  8598 <crc32_gentab>
   1063c:	e8 74 81 ff ff       	callq  87b5 <func_1>
   10641:	b8 94 1e 2a 94       	mov    $0x942a1e94,%eax
   10646:	48 98                	cltq   
   10648:	8b 55 fc             	mov    -0x4(%rbp),%edx
   1064b:	48 8d 35 70 1d 00 00 	lea    0x1d70(%rip),%rsi        # 123c2 <g_1650+0x34a>
   10652:	48 89 c7             	mov    %rax,%rdi
   10655:	e8 99 80 ff ff       	callq  86f3 <transparent_crc>
   1065a:	8b 05 08 87 00 00    	mov    0x8708(%rip),%eax        # 18d68 <g_30>
   10660:	48 98                	cltq   
   10662:	8b 55 fc             	mov    -0x4(%rbp),%edx
   10665:	48 8d 35 5a 1d 00 00 	lea    0x1d5a(%rip),%rsi        # 123c6 <g_1650+0x34e>
   1066c:	48 89 c7             	mov    %rax,%rdi
   1066f:	e8 7f 80 ff ff       	callq  86f3 <transparent_crc>
   10674:	0f b7 05 a9 49 00 00 	movzwl 0x49a9(%rip),%eax        # 15024 <g_57>
   1067b:	0f b7 c0             	movzwl %ax,%eax
   1067e:	8b 55 fc             	mov    -0x4(%rbp),%edx
   10681:	48 8d 35 43 1d 00 00 	lea    0x1d43(%rip),%rsi        # 123cb <g_1650+0x353>
   10688:	48 89 c7             	mov    %rax,%rdi
   1068b:	e8 63 80 ff ff       	callq  86f3 <transparent_crc>
   10690:	0f b6 05 d5 86 00 00 	movzbl 0x86d5(%rip),%eax        # 18d6c <g_81>
   10697:	48 0f be c0          	movsbq %al,%rax
   1069b:	8b 55 fc             	mov    -0x4(%rbp),%edx
   1069e:	48 8d 35 2b 1d 00 00 	lea    0x1d2b(%rip),%rsi        # 123d0 <g_1650+0x358>
   106a5:	48 89 c7             	mov    %rax,%rdi
   106a8:	e8 46 80 ff ff       	callq  86f3 <transparent_crc>
   106ad:	0f b6 05 72 49 00 00 	movzbl 0x4972(%rip),%eax        # 15026 <g_87>
   106b4:	48 0f be c0          	movsbq %al,%rax
   106b8:	8b 55 fc             	mov    -0x4(%rbp),%edx
   106bb:	48 8d 35 13 1d 00 00 	lea    0x1d13(%rip),%rsi        # 123d5 <g_1650+0x35d>
   106c2:	48 89 c7             	mov    %rax,%rdi
   106c5:	e8 29 80 ff ff       	callq  86f3 <transparent_crc>
   106ca:	c7 45 f0 00 00 00 00 	movl   $0x0,-0x10(%rbp)
   106d1:	eb 73                	jmp    10746 <main+0x159>
   106d3:	c7 45 f4 00 00 00 00 	movl   $0x0,-0xc(%rbp)
   106da:	eb 60                	jmp    1073c <main+0x14f>
   106dc:	8b 45 f4             	mov    -0xc(%rbp),%eax
   106df:	48 63 c8             	movslq %eax,%rcx
   106e2:	8b 45 f0             	mov    -0x10(%rbp),%eax
   106e5:	48 63 d0             	movslq %eax,%rdx
   106e8:	48 89 d0             	mov    %rdx,%rax
   106eb:	48 c1 e0 02          	shl    $0x2,%rax
   106ef:	48 01 d0             	add    %rdx,%rax
   106f2:	48 01 c8             	add    %rcx,%rax
   106f5:	48 8d 14 00          	lea    (%rax,%rax,1),%rdx
   106f9:	48 8d 05 40 49 00 00 	lea    0x4940(%rip),%rax        # 15040 <g_94>
   10700:	0f b7 04 02          	movzwl (%rdx,%rax,1),%eax
   10704:	0f b7 c0             	movzwl %ax,%eax
   10707:	8b 55 fc             	mov    -0x4(%rbp),%edx
   1070a:	48 8d 35 c9 1c 00 00 	lea    0x1cc9(%rip),%rsi        # 123da <g_1650+0x362>
   10711:	48 89 c7             	mov    %rax,%rdi
   10714:	e8 da 7f ff ff       	callq  86f3 <transparent_crc>
   10719:	83 7d fc 00          	cmpl   $0x0,-0x4(%rbp)
   1071d:	74 19                	je     10738 <main+0x14b>
   1071f:	8b 55 f4             	mov    -0xc(%rbp),%edx
   10722:	8b 45 f0             	mov    -0x10(%rbp),%eax
   10725:	89 c6                	mov    %eax,%esi
   10727:	48 8d 3d b7 1c 00 00 	lea    0x1cb7(%rip),%rdi        # 123e5 <g_1650+0x36d>
   1072e:	b8 00 00 00 00       	mov    $0x0,%eax
   10733:	e8 48 69 ff ff       	callq  7080 <printf@plt>
   10738:	83 45 f4 01          	addl   $0x1,-0xc(%rbp)
   1073c:	83 7d f4 04          	cmpl   $0x4,-0xc(%rbp)
   10740:	7e 9a                	jle    106dc <main+0xef>
   10742:	83 45 f0 01          	addl   $0x1,-0x10(%rbp)
   10746:	83 7d f0 08          	cmpl   $0x8,-0x10(%rbp)
   1074a:	7e 87                	jle    106d3 <main+0xe6>
   1074c:	8b 05 4a 49 00 00    	mov    0x494a(%rip),%eax        # 1509c <g_107>
   10752:	48 98                	cltq   
   10754:	8b 55 fc             	mov    -0x4(%rbp),%edx
   10757:	48 8d 35 99 1c 00 00 	lea    0x1c99(%rip),%rsi        # 123f7 <g_1650+0x37f>
   1075e:	48 89 c7             	mov    %rax,%rdi
   10761:	e8 8d 7f ff ff       	callq  86f3 <transparent_crc>
   10766:	8b 05 30 49 00 00    	mov    0x4930(%rip),%eax        # 1509c <g_107>
   1076c:	48 98                	cltq   
   1076e:	8b 55 fc             	mov    -0x4(%rbp),%edx
   10771:	48 8d 35 88 1c 00 00 	lea    0x1c88(%rip),%rsi        # 12400 <g_1650+0x388>
   10778:	48 89 c7             	mov    %rax,%rdi
   1077b:	e8 73 7f ff ff       	callq  86f3 <transparent_crc>
   10780:	8b 05 1a 49 00 00    	mov    0x491a(%rip),%eax        # 150a0 <g_113>
   10786:	89 c1                	mov    %eax,%ecx
   10788:	8b 45 fc             	mov    -0x4(%rbp),%eax
   1078b:	89 c2                	mov    %eax,%edx
   1078d:	48 8d 35 75 1c 00 00 	lea    0x1c75(%rip),%rsi        # 12409 <g_1650+0x391>
   10794:	48 89 cf             	mov    %rcx,%rdi
   10797:	e8 57 7f ff ff       	callq  86f3 <transparent_crc>
   1079c:	48 8b 05 05 49 00 00 	mov    0x4905(%rip),%rax        # 150a8 <g_131>
   107a3:	48 89 c1             	mov    %rax,%rcx
   107a6:	8b 45 fc             	mov    -0x4(%rbp),%eax
   107a9:	89 c2                	mov    %eax,%edx
   107ab:	48 8d 35 5d 1c 00 00 	lea    0x1c5d(%rip),%rsi        # 1240f <g_1650+0x397>
   107b2:	48 89 cf             	mov    %rcx,%rdi
   107b5:	e8 39 7f ff ff       	callq  86f3 <transparent_crc>
   107ba:	8b 05 f0 48 00 00    	mov    0x48f0(%rip),%eax        # 150b0 <g_166>
   107c0:	48 98                	cltq   
   107c2:	8b 55 fc             	mov    -0x4(%rbp),%edx
   107c5:	48 8d 35 49 1c 00 00 	lea    0x1c49(%rip),%rsi        # 12415 <g_1650+0x39d>
   107cc:	48 89 c7             	mov    %rax,%rdi
   107cf:	e8 1f 7f ff ff       	callq  86f3 <transparent_crc>
   107d4:	48 8b 05 dd 48 00 00 	mov    0x48dd(%rip),%rax        # 150b8 <g_189>
   107db:	48 89 c1             	mov    %rax,%rcx
   107de:	8b 45 fc             	mov    -0x4(%rbp),%eax
   107e1:	89 c2                	mov    %eax,%edx
   107e3:	48 8d 35 31 1c 00 00 	lea    0x1c31(%rip),%rsi        # 1241b <g_1650+0x3a3>
   107ea:	48 89 cf             	mov    %rcx,%rdi
   107ed:	e8 01 7f ff ff       	callq  86f3 <transparent_crc>
   107f2:	c7 45 f0 00 00 00 00 	movl   $0x0,-0x10(%rbp)
   107f9:	e9 ac 00 00 00       	jmpq   108aa <main+0x2bd>
   107fe:	c7 45 f4 00 00 00 00 	movl   $0x0,-0xc(%rbp)
   10805:	e9 92 00 00 00       	jmpq   1089c <main+0x2af>
   1080a:	8b 45 f4             	mov    -0xc(%rbp),%eax
   1080d:	48 98                	cltq   
   1080f:	8b 55 f0             	mov    -0x10(%rbp),%edx
   10812:	48 63 d2             	movslq %edx,%rdx
   10815:	48 01 d2             	add    %rdx,%rdx
   10818:	48 01 d0             	add    %rdx,%rax
   1081b:	48 8d 14 c5 00 00 00 	lea    0x0(,%rax,8),%rdx
   10822:	00 
   10823:	48 8d 05 96 48 00 00 	lea    0x4896(%rip),%rax        # 150c0 <g_221>
   1082a:	48 8b 04 02          	mov    (%rdx,%rax,1),%rax
   1082e:	8b 55 fc             	mov    -0x4(%rbp),%edx
   10831:	48 8d 35 e9 1b 00 00 	lea    0x1be9(%rip),%rsi        # 12421 <g_1650+0x3a9>
   10838:	48 89 c7             	mov    %rax,%rdi
   1083b:	e8 b3 7e ff ff       	callq  86f3 <transparent_crc>
   10840:	8b 45 f4             	mov    -0xc(%rbp),%eax
   10843:	48 98                	cltq   
   10845:	8b 55 f0             	mov    -0x10(%rbp),%edx
   10848:	48 63 d2             	movslq %edx,%rdx
   1084b:	48 01 d2             	add    %rdx,%rdx
   1084e:	48 01 d0             	add    %rdx,%rax
   10851:	48 8d 14 c5 00 00 00 	lea    0x0(,%rax,8),%rdx
   10858:	00 
   10859:	48 8d 05 60 48 00 00 	lea    0x4860(%rip),%rax        # 150c0 <g_221>
   10860:	8b 04 02             	mov    (%rdx,%rax,1),%eax
   10863:	89 c1                	mov    %eax,%ecx
   10865:	8b 45 fc             	mov    -0x4(%rbp),%eax
   10868:	89 c2                	mov    %eax,%edx
   1086a:	48 8d 35 bf 1b 00 00 	lea    0x1bbf(%rip),%rsi        # 12430 <g_1650+0x3b8>
   10871:	48 89 cf             	mov    %rcx,%rdi
   10874:	e8 7a 7e ff ff       	callq  86f3 <transparent_crc>
   10879:	83 7d fc 00          	cmpl   $0x0,-0x4(%rbp)
   1087d:	74 19                	je     10898 <main+0x2ab>
   1087f:	8b 55 f4             	mov    -0xc(%rbp),%edx
   10882:	8b 45 f0             	mov    -0x10(%rbp),%eax
   10885:	89 c6                	mov    %eax,%esi
   10887:	48 8d 3d 57 1b 00 00 	lea    0x1b57(%rip),%rdi        # 123e5 <g_1650+0x36d>
   1088e:	b8 00 00 00 00       	mov    $0x0,%eax
   10893:	e8 e8 67 ff ff       	callq  7080 <printf@plt>
   10898:	83 45 f4 01          	addl   $0x1,-0xc(%rbp)
   1089c:	83 7d f4 01          	cmpl   $0x1,-0xc(%rbp)
   108a0:	0f 8e 64 ff ff ff    	jle    1080a <main+0x21d>
   108a6:	83 45 f0 01          	addl   $0x1,-0x10(%rbp)
   108aa:	83 7d f0 01          	cmpl   $0x1,-0x10(%rbp)
   108ae:	0f 8e 4a ff ff ff    	jle    107fe <main+0x211>
   108b4:	48 8b 05 25 48 00 00 	mov    0x4825(%rip),%rax        # 150e0 <g_235>
   108bb:	8b 55 fc             	mov    -0x4(%rbp),%edx
   108be:	48 8d 35 7a 1b 00 00 	lea    0x1b7a(%rip),%rsi        # 1243f <g_1650+0x3c7>
   108c5:	48 89 c7             	mov    %rax,%rdi
   108c8:	e8 26 7e ff ff       	callq  86f3 <transparent_crc>
   108cd:	8b 05 15 48 00 00    	mov    0x4815(%rip),%eax        # 150e8 <g_238>
   108d3:	48 98                	cltq   
   108d5:	8b 55 fc             	mov    -0x4(%rbp),%edx
   108d8:	48 8d 35 66 1b 00 00 	lea    0x1b66(%rip),%rsi        # 12445 <g_1650+0x3cd>
   108df:	48 89 c7             	mov    %rax,%rdi
   108e2:	e8 0c 7e ff ff       	callq  86f3 <transparent_crc>
   108e7:	8b 05 fb 47 00 00    	mov    0x47fb(%rip),%eax        # 150e8 <g_238>
   108ed:	48 98                	cltq   
   108ef:	8b 55 fc             	mov    -0x4(%rbp),%edx
   108f2:	48 8d 35 55 1b 00 00 	lea    0x1b55(%rip),%rsi        # 1244e <g_1650+0x3d6>
   108f9:	48 89 c7             	mov    %rax,%rdi
   108fc:	e8 f2 7d ff ff       	callq  86f3 <transparent_crc>
   10901:	b8 2e 9e ff ff       	mov    $0xffff9e2e,%eax
   10906:	48 0f bf c0          	movswq %ax,%rax
   1090a:	8b 55 fc             	mov    -0x4(%rbp),%edx
   1090d:	48 8d 35 43 1b 00 00 	lea    0x1b43(%rip),%rsi        # 12457 <g_1650+0x3df>
   10914:	48 89 c7             	mov    %rax,%rdi
   10917:	e8 d7 7d ff ff       	callq  86f3 <transparent_crc>
   1091c:	c7 45 f0 00 00 00 00 	movl   $0x0,-0x10(%rbp)
   10923:	eb 4d                	jmp    10972 <main+0x385>
   10925:	8b 45 f0             	mov    -0x10(%rbp),%eax
   10928:	48 98                	cltq   
   1092a:	48 8d 14 85 00 00 00 	lea    0x0(,%rax,4),%rdx
   10931:	00 
   10932:	48 8d 05 b7 47 00 00 	lea    0x47b7(%rip),%rax        # 150f0 <g_261>
   10939:	8b 04 02             	mov    (%rdx,%rax,1),%eax
   1093c:	89 c1                	mov    %eax,%ecx
   1093e:	8b 45 fc             	mov    -0x4(%rbp),%eax
   10941:	89 c2                	mov    %eax,%edx
   10943:	48 8d 35 13 1b 00 00 	lea    0x1b13(%rip),%rsi        # 1245d <g_1650+0x3e5>
   1094a:	48 89 cf             	mov    %rcx,%rdi
   1094d:	e8 a1 7d ff ff       	callq  86f3 <transparent_crc>
   10952:	83 7d fc 00          	cmpl   $0x0,-0x4(%rbp)
   10956:	74 16                	je     1096e <main+0x381>
   10958:	8b 45 f0             	mov    -0x10(%rbp),%eax
   1095b:	89 c6                	mov    %eax,%esi
   1095d:	48 8d 3d 02 1b 00 00 	lea    0x1b02(%rip),%rdi        # 12466 <g_1650+0x3ee>
   10964:	b8 00 00 00 00       	mov    $0x0,%eax
   10969:	e8 12 67 ff ff       	callq  7080 <printf@plt>
   1096e:	83 45 f0 01          	addl   $0x1,-0x10(%rbp)
   10972:	83 7d f0 02          	cmpl   $0x2,-0x10(%rbp)
   10976:	7e ad                	jle    10925 <main+0x338>
   10978:	c7 45 f0 00 00 00 00 	movl   $0x0,-0x10(%rbp)
   1097f:	eb 45                	jmp    109c6 <main+0x3d9>
   10981:	8b 45 f0             	mov    -0x10(%rbp),%eax
   10984:	48 98                	cltq   
   10986:	48 8d 15 6f 47 00 00 	lea    0x476f(%rip),%rdx        # 150fc <g_271>
   1098d:	0f b6 04 10          	movzbl (%rax,%rdx,1),%eax
   10991:	0f b6 c0             	movzbl %al,%eax
   10994:	8b 55 fc             	mov    -0x4(%rbp),%edx
   10997:	48 8d 35 d6 1a 00 00 	lea    0x1ad6(%rip),%rsi        # 12474 <g_1650+0x3fc>
   1099e:	48 89 c7             	mov    %rax,%rdi
   109a1:	e8 4d 7d ff ff       	callq  86f3 <transparent_crc>
   109a6:	83 7d fc 00          	cmpl   $0x0,-0x4(%rbp)
   109aa:	74 16                	je     109c2 <main+0x3d5>
   109ac:	8b 45 f0             	mov    -0x10(%rbp),%eax
   109af:	89 c6                	mov    %eax,%esi
   109b1:	48 8d 3d ae 1a 00 00 	lea    0x1aae(%rip),%rdi        # 12466 <g_1650+0x3ee>
   109b8:	b8 00 00 00 00       	mov    $0x0,%eax
   109bd:	e8 be 66 ff ff       	callq  7080 <printf@plt>
   109c2:	83 45 f0 01          	addl   $0x1,-0x10(%rbp)
   109c6:	83 7d f0 06          	cmpl   $0x6,-0x10(%rbp)
   109ca:	7e b5                	jle    10981 <main+0x394>
   109cc:	0f b7 05 31 47 00 00 	movzwl 0x4731(%rip),%eax        # 15104 <g_273>
   109d3:	48 0f bf c0          	movswq %ax,%rax
   109d7:	8b 55 fc             	mov    -0x4(%rbp),%edx
   109da:	48 8d 35 9c 1a 00 00 	lea    0x1a9c(%rip),%rsi        # 1247d <g_1650+0x405>
   109e1:	48 89 c7             	mov    %rax,%rdi
   109e4:	e8 0a 7d ff ff       	callq  86f3 <transparent_crc>
   109e9:	c7 45 f0 00 00 00 00 	movl   $0x0,-0x10(%rbp)
   109f0:	eb 76                	jmp    10a68 <main+0x47b>
   109f2:	c7 45 f4 00 00 00 00 	movl   $0x0,-0xc(%rbp)
   109f9:	eb 63                	jmp    10a5e <main+0x471>
   109fb:	8b 45 f4             	mov    -0xc(%rbp),%eax
   109fe:	48 63 c8             	movslq %eax,%rcx
   10a01:	8b 45 f0             	mov    -0x10(%rbp),%eax
   10a04:	48 63 d0             	movslq %eax,%rdx
   10a07:	48 89 d0             	mov    %rdx,%rax
   10a0a:	48 c1 e0 02          	shl    $0x2,%rax
   10a0e:	48 01 d0             	add    %rdx,%rax
   10a11:	48 01 c0             	add    %rax,%rax
   10a14:	48 01 c8             	add    %rcx,%rax
   10a17:	48 8d 14 00          	lea    (%rax,%rax,1),%rdx
   10a1b:	48 8d 05 fe 46 00 00 	lea    0x46fe(%rip),%rax        # 15120 <g_324>
   10a22:	0f b7 04 02          	movzwl (%rdx,%rax,1),%eax
   10a26:	0f b7 c0             	movzwl %ax,%eax
   10a29:	8b 55 fc             	mov    -0x4(%rbp),%edx
   10a2c:	48 8d 35 50 1a 00 00 	lea    0x1a50(%rip),%rsi        # 12483 <g_1650+0x40b>
   10a33:	48 89 c7             	mov    %rax,%rdi
   10a36:	e8 b8 7c ff ff       	callq  86f3 <transparent_crc>
   10a3b:	83 7d fc 00          	cmpl   $0x0,-0x4(%rbp)
   10a3f:	74 19                	je     10a5a <main+0x46d>
   10a41:	8b 55 f4             	mov    -0xc(%rbp),%edx
   10a44:	8b 45 f0             	mov    -0x10(%rbp),%eax
   10a47:	89 c6                	mov    %eax,%esi
   10a49:	48 8d 3d 95 19 00 00 	lea    0x1995(%rip),%rdi        # 123e5 <g_1650+0x36d>
   10a50:	b8 00 00 00 00       	mov    $0x0,%eax
   10a55:	e8 26 66 ff ff       	callq  7080 <printf@plt>
   10a5a:	83 45 f4 01          	addl   $0x1,-0xc(%rbp)
   10a5e:	83 7d f4 09          	cmpl   $0x9,-0xc(%rbp)
   10a62:	7e 97                	jle    109fb <main+0x40e>
   10a64:	83 45 f0 01          	addl   $0x1,-0x10(%rbp)
   10a68:	83 7d f0 04          	cmpl   $0x4,-0x10(%rbp)
   10a6c:	7e 84                	jle    109f2 <main+0x405>
   10a6e:	8b 05 10 47 00 00    	mov    0x4710(%rip),%eax        # 15184 <g_349>
   10a74:	48 98                	cltq   
   10a76:	8b 55 fc             	mov    -0x4(%rbp),%edx
   10a79:	48 8d 35 0f 1a 00 00 	lea    0x1a0f(%rip),%rsi        # 1248f <g_1650+0x417>
   10a80:	48 89 c7             	mov    %rax,%rdi
   10a83:	e8 6b 7c ff ff       	callq  86f3 <transparent_crc>
   10a88:	0f b6 05 f9 82 00 00 	movzbl 0x82f9(%rip),%eax        # 18d88 <g_396>
   10a8f:	48 0f be c0          	movsbq %al,%rax
   10a93:	8b 55 fc             	mov    -0x4(%rbp),%edx
   10a96:	48 8d 35 f8 19 00 00 	lea    0x19f8(%rip),%rsi        # 12495 <g_1650+0x41d>
   10a9d:	48 89 c7             	mov    %rax,%rdi
   10aa0:	e8 4e 7c ff ff       	callq  86f3 <transparent_crc>
   10aa5:	0f b6 05 dc 46 00 00 	movzbl 0x46dc(%rip),%eax        # 15188 <g_412>
   10aac:	0f b6 c0             	movzbl %al,%eax
   10aaf:	8b 55 fc             	mov    -0x4(%rbp),%edx
   10ab2:	48 8d 35 e2 19 00 00 	lea    0x19e2(%rip),%rsi        # 1249b <g_1650+0x423>
   10ab9:	48 89 c7             	mov    %rax,%rdi
   10abc:	e8 32 7c ff ff       	callq  86f3 <transparent_crc>
   10ac1:	48 8b 05 c8 46 00 00 	mov    0x46c8(%rip),%rax        # 15190 <g_420>
   10ac8:	8b 55 fc             	mov    -0x4(%rbp),%edx
   10acb:	48 8d 35 cf 19 00 00 	lea    0x19cf(%rip),%rsi        # 124a1 <g_1650+0x429>
   10ad2:	48 89 c7             	mov    %rax,%rdi
   10ad5:	e8 19 7c ff ff       	callq  86f3 <transparent_crc>
   10ada:	8b 05 b0 46 00 00    	mov    0x46b0(%rip),%eax        # 15190 <g_420>
   10ae0:	89 c1                	mov    %eax,%ecx
   10ae2:	8b 45 fc             	mov    -0x4(%rbp),%eax
   10ae5:	89 c2                	mov    %eax,%edx
   10ae7:	48 8d 35 bc 19 00 00 	lea    0x19bc(%rip),%rsi        # 124aa <g_1650+0x432>
   10aee:	48 89 cf             	mov    %rcx,%rdi
   10af1:	e8 fd 7b ff ff       	callq  86f3 <transparent_crc>
   10af6:	8b 05 9c 46 00 00    	mov    0x469c(%rip),%eax        # 15198 <g_456>
   10afc:	48 98                	cltq   
   10afe:	8b 55 fc             	mov    -0x4(%rbp),%edx
   10b01:	48 8d 35 ab 19 00 00 	lea    0x19ab(%rip),%rsi        # 124b3 <g_1650+0x43b>
   10b08:	48 89 c7             	mov    %rax,%rdi
   10b0b:	e8 e3 7b ff ff       	callq  86f3 <transparent_crc>
   10b10:	8b 05 82 46 00 00    	mov    0x4682(%rip),%eax        # 15198 <g_456>
   10b16:	48 98                	cltq   
   10b18:	8b 55 fc             	mov    -0x4(%rbp),%edx
   10b1b:	48 8d 35 9a 19 00 00 	lea    0x199a(%rip),%rsi        # 124bc <g_1650+0x444>
   10b22:	48 89 c7             	mov    %rax,%rdi
   10b25:	e8 c9 7b ff ff       	callq  86f3 <transparent_crc>
   10b2a:	0f b6 05 6b 46 00 00 	movzbl 0x466b(%rip),%eax        # 1519c <g_479>
   10b31:	48 0f be c0          	movsbq %al,%rax
   10b35:	8b 55 fc             	mov    -0x4(%rbp),%edx
   10b38:	48 8d 35 86 19 00 00 	lea    0x1986(%rip),%rsi        # 124c5 <g_1650+0x44d>
   10b3f:	48 89 c7             	mov    %rax,%rdi
   10b42:	e8 ac 7b ff ff       	callq  86f3 <transparent_crc>
   10b47:	48 8b 05 52 46 00 00 	mov    0x4652(%rip),%rax        # 151a0 <g_516>
   10b4e:	8b 55 fc             	mov    -0x4(%rbp),%edx
   10b51:	48 8d 35 73 19 00 00 	lea    0x1973(%rip),%rsi        # 124cb <g_1650+0x453>
   10b58:	48 89 c7             	mov    %rax,%rdi
   10b5b:	e8 93 7b ff ff       	callq  86f3 <transparent_crc>
   10b60:	8b 05 3a 46 00 00    	mov    0x463a(%rip),%eax        # 151a0 <g_516>
   10b66:	89 c1                	mov    %eax,%ecx
   10b68:	8b 45 fc             	mov    -0x4(%rbp),%eax
   10b6b:	89 c2                	mov    %eax,%edx
   10b6d:	48 8d 35 60 19 00 00 	lea    0x1960(%rip),%rsi        # 124d4 <g_1650+0x45c>
   10b74:	48 89 cf             	mov    %rcx,%rdi
   10b77:	e8 77 7b ff ff       	callq  86f3 <transparent_crc>
   10b7c:	c7 45 f0 00 00 00 00 	movl   $0x0,-0x10(%rbp)
   10b83:	e9 a3 00 00 00       	jmpq   10c2b <main+0x63e>
   10b88:	c7 45 f4 00 00 00 00 	movl   $0x0,-0xc(%rbp)
   10b8f:	e9 89 00 00 00       	jmpq   10c1d <main+0x630>
   10b94:	c7 45 f8 00 00 00 00 	movl   $0x0,-0x8(%rbp)
   10b9b:	eb 76                	jmp    10c13 <main+0x626>
   10b9d:	8b 45 f8             	mov    -0x8(%rbp),%eax
   10ba0:	48 63 f0             	movslq %eax,%rsi
   10ba3:	8b 45 f0             	mov    -0x10(%rbp),%eax
   10ba6:	48 98                	cltq   
   10ba8:	8b 55 f4             	mov    -0xc(%rbp),%edx
   10bab:	48 63 ca             	movslq %edx,%rcx
   10bae:	48 89 c2             	mov    %rax,%rdx
   10bb1:	48 c1 e2 04          	shl    $0x4,%rdx
   10bb5:	48 29 c2             	sub    %rax,%rdx
   10bb8:	48 89 c8             	mov    %rcx,%rax
   10bbb:	48 c1 e0 02          	shl    $0x2,%rax
   10bbf:	48 01 c8             	add    %rcx,%rax
   10bc2:	48 01 d0             	add    %rdx,%rax
   10bc5:	48 01 f0             	add    %rsi,%rax
   10bc8:	48 8d 14 c5 00 00 00 	lea    0x0(,%rax,8),%rdx
   10bcf:	00 
   10bd0:	48 8d 05 e9 45 00 00 	lea    0x45e9(%rip),%rax        # 151c0 <g_572>
   10bd7:	48 8b 04 02          	mov    (%rdx,%rax,1),%rax
   10bdb:	8b 55 fc             	mov    -0x4(%rbp),%edx
   10bde:	48 8d 35 f8 18 00 00 	lea    0x18f8(%rip),%rsi        # 124dd <g_1650+0x465>
   10be5:	48 89 c7             	mov    %rax,%rdi
   10be8:	e8 06 7b ff ff       	callq  86f3 <transparent_crc>
   10bed:	83 7d fc 00          	cmpl   $0x0,-0x4(%rbp)
   10bf1:	74 1c                	je     10c0f <main+0x622>
   10bf3:	8b 4d f8             	mov    -0x8(%rbp),%ecx
   10bf6:	8b 55 f4             	mov    -0xc(%rbp),%edx
   10bf9:	8b 45 f0             	mov    -0x10(%rbp),%eax
   10bfc:	89 c6                	mov    %eax,%esi
   10bfe:	48 8d 3d e7 18 00 00 	lea    0x18e7(%rip),%rdi        # 124ec <g_1650+0x474>
   10c05:	b8 00 00 00 00       	mov    $0x0,%eax
   10c0a:	e8 71 64 ff ff       	callq  7080 <printf@plt>
   10c0f:	83 45 f8 01          	addl   $0x1,-0x8(%rbp)
   10c13:	83 7d f8 04          	cmpl   $0x4,-0x8(%rbp)
   10c17:	7e 84                	jle    10b9d <main+0x5b0>
   10c19:	83 45 f4 01          	addl   $0x1,-0xc(%rbp)
   10c1d:	83 7d f4 02          	cmpl   $0x2,-0xc(%rbp)
   10c21:	0f 8e 6d ff ff ff    	jle    10b94 <main+0x5a7>
   10c27:	83 45 f0 01          	addl   $0x1,-0x10(%rbp)
   10c2b:	83 7d f0 05          	cmpl   $0x5,-0x10(%rbp)
   10c2f:	0f 8e 53 ff ff ff    	jle    10b88 <main+0x59b>
   10c35:	8b 05 55 48 00 00    	mov    0x4855(%rip),%eax        # 15490 <g_586>
   10c3b:	48 98                	cltq   
   10c3d:	8b 55 fc             	mov    -0x4(%rbp),%edx
   10c40:	48 8d 35 bb 18 00 00 	lea    0x18bb(%rip),%rsi        # 12502 <g_1650+0x48a>
   10c47:	48 89 c7             	mov    %rax,%rdi
   10c4a:	e8 a4 7a ff ff       	callq  86f3 <transparent_crc>
   10c4f:	8b 05 3b 48 00 00    	mov    0x483b(%rip),%eax        # 15490 <g_586>
   10c55:	48 98                	cltq   
   10c57:	8b 55 fc             	mov    -0x4(%rbp),%edx
   10c5a:	48 8d 35 aa 18 00 00 	lea    0x18aa(%rip),%rsi        # 1250b <g_1650+0x493>
   10c61:	48 89 c7             	mov    %rax,%rdi
   10c64:	e8 8a 7a ff ff       	callq  86f3 <transparent_crc>
   10c69:	48 8b 05 28 48 00 00 	mov    0x4828(%rip),%rax        # 15498 <g_632>
   10c70:	8b 55 fc             	mov    -0x4(%rbp),%edx
   10c73:	48 8d 35 9a 18 00 00 	lea    0x189a(%rip),%rsi        # 12514 <g_1650+0x49c>
   10c7a:	48 89 c7             	mov    %rax,%rdi
   10c7d:	e8 71 7a ff ff       	callq  86f3 <transparent_crc>
   10c82:	c7 45 f0 00 00 00 00 	movl   $0x0,-0x10(%rbp)
   10c89:	e9 f7 00 00 00       	jmpq   10d85 <main+0x798>
   10c8e:	c7 45 f4 00 00 00 00 	movl   $0x0,-0xc(%rbp)
   10c95:	e9 dd 00 00 00       	jmpq   10d77 <main+0x78a>
   10c9a:	c7 45 f8 00 00 00 00 	movl   $0x0,-0x8(%rbp)
   10ca1:	e9 c3 00 00 00       	jmpq   10d69 <main+0x77c>
   10ca6:	8b 45 f8             	mov    -0x8(%rbp),%eax
   10ca9:	48 63 c8             	movslq %eax,%rcx
   10cac:	8b 45 f0             	mov    -0x10(%rbp),%eax
   10caf:	48 63 d0             	movslq %eax,%rdx
   10cb2:	8b 45 f4             	mov    -0xc(%rbp),%eax
   10cb5:	48 63 f0             	movslq %eax,%rsi
   10cb8:	48 89 d0             	mov    %rdx,%rax
   10cbb:	48 01 c0             	add    %rax,%rax
   10cbe:	48 01 d0             	add    %rdx,%rax
   10cc1:	48 01 c0             	add    %rax,%rax
   10cc4:	48 01 f0             	add    %rsi,%rax
   10cc7:	48 c1 e0 02          	shl    $0x2,%rax
   10ccb:	48 01 c8             	add    %rcx,%rax
   10cce:	48 8d 14 c5 00 00 00 	lea    0x0(,%rax,8),%rdx
   10cd5:	00 
   10cd6:	48 8d 05 c3 47 00 00 	lea    0x47c3(%rip),%rax        # 154a0 <g_706>
   10cdd:	48 8b 04 02          	mov    (%rdx,%rax,1),%rax
   10ce1:	8b 55 fc             	mov    -0x4(%rbp),%edx
   10ce4:	48 8d 35 2f 18 00 00 	lea    0x182f(%rip),%rsi        # 1251a <g_1650+0x4a2>
   10ceb:	48 89 c7             	mov    %rax,%rdi
   10cee:	e8 00 7a ff ff       	callq  86f3 <transparent_crc>
   10cf3:	8b 45 f8             	mov    -0x8(%rbp),%eax
   10cf6:	48 63 c8             	movslq %eax,%rcx
   10cf9:	8b 45 f0             	mov    -0x10(%rbp),%eax
   10cfc:	48 63 d0             	movslq %eax,%rdx
   10cff:	8b 45 f4             	mov    -0xc(%rbp),%eax
   10d02:	48 63 f0             	movslq %eax,%rsi
   10d05:	48 89 d0             	mov    %rdx,%rax
   10d08:	48 01 c0             	add    %rax,%rax
   10d0b:	48 01 d0             	add    %rdx,%rax
   10d0e:	48 01 c0             	add    %rax,%rax
   10d11:	48 01 f0             	add    %rsi,%rax
   10d14:	48 c1 e0 02          	shl    $0x2,%rax
   10d18:	48 01 c8             	add    %rcx,%rax
   10d1b:	48 8d 14 c5 00 00 00 	lea    0x0(,%rax,8),%rdx
   10d22:	00 
   10d23:	48 8d 05 76 47 00 00 	lea    0x4776(%rip),%rax        # 154a0 <g_706>
   10d2a:	8b 04 02             	mov    (%rdx,%rax,1),%eax
   10d2d:	89 c1                	mov    %eax,%ecx
   10d2f:	8b 45 fc             	mov    -0x4(%rbp),%eax
   10d32:	89 c2                	mov    %eax,%edx
   10d34:	48 8d 35 f1 17 00 00 	lea    0x17f1(%rip),%rsi        # 1252c <g_1650+0x4b4>
   10d3b:	48 89 cf             	mov    %rcx,%rdi
   10d3e:	e8 b0 79 ff ff       	callq  86f3 <transparent_crc>
   10d43:	83 7d fc 00          	cmpl   $0x0,-0x4(%rbp)
   10d47:	74 1c                	je     10d65 <main+0x778>
   10d49:	8b 4d f8             	mov    -0x8(%rbp),%ecx
   10d4c:	8b 55 f4             	mov    -0xc(%rbp),%edx
   10d4f:	8b 45 f0             	mov    -0x10(%rbp),%eax
   10d52:	89 c6                	mov    %eax,%esi
   10d54:	48 8d 3d 91 17 00 00 	lea    0x1791(%rip),%rdi        # 124ec <g_1650+0x474>
   10d5b:	b8 00 00 00 00       	mov    $0x0,%eax
   10d60:	e8 1b 63 ff ff       	callq  7080 <printf@plt>
   10d65:	83 45 f8 01          	addl   $0x1,-0x8(%rbp)
   10d69:	83 7d f8 03          	cmpl   $0x3,-0x8(%rbp)
   10d6d:	0f 8e 33 ff ff ff    	jle    10ca6 <main+0x6b9>
   10d73:	83 45 f4 01          	addl   $0x1,-0xc(%rbp)
   10d77:	83 7d f4 05          	cmpl   $0x5,-0xc(%rbp)
   10d7b:	0f 8e 19 ff ff ff    	jle    10c9a <main+0x6ad>
   10d81:	83 45 f0 01          	addl   $0x1,-0x10(%rbp)
   10d85:	83 7d f0 08          	cmpl   $0x8,-0x10(%rbp)
   10d89:	0f 8e ff fe ff ff    	jle    10c8e <main+0x6a1>
   10d8f:	c7 45 f0 00 00 00 00 	movl   $0x0,-0x10(%rbp)
   10d96:	e9 bf 00 00 00       	jmpq   10e5a <main+0x86d>
   10d9b:	c7 45 f4 00 00 00 00 	movl   $0x0,-0xc(%rbp)
   10da2:	e9 a5 00 00 00       	jmpq   10e4c <main+0x85f>
   10da7:	8b 45 f4             	mov    -0xc(%rbp),%eax
   10daa:	48 63 c8             	movslq %eax,%rcx
   10dad:	8b 45 f0             	mov    -0x10(%rbp),%eax
   10db0:	48 63 d0             	movslq %eax,%rdx
   10db3:	48 89 d0             	mov    %rdx,%rax
   10db6:	48 01 c0             	add    %rax,%rax
   10db9:	48 01 d0             	add    %rdx,%rax
   10dbc:	48 01 c0             	add    %rax,%rax
   10dbf:	48 01 c8             	add    %rcx,%rax
   10dc2:	48 8d 14 85 00 00 00 	lea    0x0(,%rax,4),%rdx
   10dc9:	00 
   10dca:	48 8d 05 8f 4d 00 00 	lea    0x4d8f(%rip),%rax        # 15b60 <g_900>
   10dd1:	8b 04 02             	mov    (%rdx,%rax,1),%eax
   10dd4:	48 98                	cltq   
   10dd6:	8b 55 fc             	mov    -0x4(%rbp),%edx
   10dd9:	48 8d 35 5e 17 00 00 	lea    0x175e(%rip),%rsi        # 1253e <g_1650+0x4c6>
   10de0:	48 89 c7             	mov    %rax,%rdi
   10de3:	e8 0b 79 ff ff       	callq  86f3 <transparent_crc>
   10de8:	8b 45 f4             	mov    -0xc(%rbp),%eax
   10deb:	48 63 c8             	movslq %eax,%rcx
   10dee:	8b 45 f0             	mov    -0x10(%rbp),%eax
   10df1:	48 63 d0             	movslq %eax,%rdx
   10df4:	48 89 d0             	mov    %rdx,%rax
   10df7:	48 01 c0             	add    %rax,%rax
   10dfa:	48 01 d0             	add    %rdx,%rax
   10dfd:	48 01 c0             	add    %rax,%rax
   10e00:	48 01 c8             	add    %rcx,%rax
   10e03:	48 8d 14 85 00 00 00 	lea    0x0(,%rax,4),%rdx
   10e0a:	00 
   10e0b:	48 8d 05 4e 4d 00 00 	lea    0x4d4e(%rip),%rax        # 15b60 <g_900>
   10e12:	8b 04 02             	mov    (%rdx,%rax,1),%eax
   10e15:	48 98                	cltq   
   10e17:	8b 55 fc             	mov    -0x4(%rbp),%edx
   10e1a:	48 8d 35 2c 17 00 00 	lea    0x172c(%rip),%rsi        # 1254d <g_1650+0x4d5>
   10e21:	48 89 c7             	mov    %rax,%rdi
   10e24:	e8 ca 78 ff ff       	callq  86f3 <transparent_crc>
   10e29:	83 7d fc 00          	cmpl   $0x0,-0x4(%rbp)
   10e2d:	74 19                	je     10e48 <main+0x85b>
   10e2f:	8b 55 f4             	mov    -0xc(%rbp),%edx
   10e32:	8b 45 f0             	mov    -0x10(%rbp),%eax
   10e35:	89 c6                	mov    %eax,%esi
   10e37:	48 8d 3d a7 15 00 00 	lea    0x15a7(%rip),%rdi        # 123e5 <g_1650+0x36d>
   10e3e:	b8 00 00 00 00       	mov    $0x0,%eax
   10e43:	e8 38 62 ff ff       	callq  7080 <printf@plt>
   10e48:	83 45 f4 01          	addl   $0x1,-0xc(%rbp)
   10e4c:	83 7d f4 05          	cmpl   $0x5,-0xc(%rbp)
   10e50:	0f 8e 51 ff ff ff    	jle    10da7 <main+0x7ba>
   10e56:	83 45 f0 01          	addl   $0x1,-0x10(%rbp)
   10e5a:	83 7d f0 04          	cmpl   $0x4,-0x10(%rbp)
   10e5e:	0f 8e 37 ff ff ff    	jle    10d9b <main+0x7ae>
   10e64:	8b 05 6e 4d 00 00    	mov    0x4d6e(%rip),%eax        # 15bd8 <g_903>
   10e6a:	48 98                	cltq   
   10e6c:	8b 55 fc             	mov    -0x4(%rbp),%edx
   10e6f:	48 8d 35 e6 16 00 00 	lea    0x16e6(%rip),%rsi        # 1255c <g_1650+0x4e4>
   10e76:	48 89 c7             	mov    %rax,%rdi
   10e79:	e8 75 78 ff ff       	callq  86f3 <transparent_crc>
   10e7e:	8b 05 54 4d 00 00    	mov    0x4d54(%rip),%eax        # 15bd8 <g_903>
   10e84:	48 98                	cltq   
   10e86:	8b 55 fc             	mov    -0x4(%rbp),%edx
   10e89:	48 8d 35 d5 16 00 00 	lea    0x16d5(%rip),%rsi        # 12565 <g_1650+0x4ed>
   10e90:	48 89 c7             	mov    %rax,%rdi
   10e93:	e8 5b 78 ff ff       	callq  86f3 <transparent_crc>
   10e98:	8b 05 3e 4d 00 00    	mov    0x4d3e(%rip),%eax        # 15bdc <g_954>
   10e9e:	48 98                	cltq   
   10ea0:	8b 55 fc             	mov    -0x4(%rbp),%edx
   10ea3:	48 8d 35 c4 16 00 00 	lea    0x16c4(%rip),%rsi        # 1256e <g_1650+0x4f6>
   10eaa:	48 89 c7             	mov    %rax,%rdi
   10ead:	e8 41 78 ff ff       	callq  86f3 <transparent_crc>
   10eb2:	8b 05 24 4d 00 00    	mov    0x4d24(%rip),%eax        # 15bdc <g_954>
   10eb8:	48 98                	cltq   
   10eba:	8b 55 fc             	mov    -0x4(%rbp),%edx
   10ebd:	48 8d 35 b3 16 00 00 	lea    0x16b3(%rip),%rsi        # 12577 <g_1650+0x4ff>
   10ec4:	48 89 c7             	mov    %rax,%rdi
   10ec7:	e8 27 78 ff ff       	callq  86f3 <transparent_crc>
   10ecc:	8b 05 0e 4d 00 00    	mov    0x4d0e(%rip),%eax        # 15be0 <g_972>
   10ed2:	48 98                	cltq   
   10ed4:	8b 55 fc             	mov    -0x4(%rbp),%edx
   10ed7:	48 8d 35 a2 16 00 00 	lea    0x16a2(%rip),%rsi        # 12580 <g_1650+0x508>
   10ede:	48 89 c7             	mov    %rax,%rdi
   10ee1:	e8 0d 78 ff ff       	callq  86f3 <transparent_crc>
   10ee6:	8b 05 f4 4c 00 00    	mov    0x4cf4(%rip),%eax        # 15be0 <g_972>
   10eec:	48 98                	cltq   
   10eee:	8b 55 fc             	mov    -0x4(%rbp),%edx
   10ef1:	48 8d 35 91 16 00 00 	lea    0x1691(%rip),%rsi        # 12589 <g_1650+0x511>
   10ef8:	48 89 c7             	mov    %rax,%rdi
   10efb:	e8 f3 77 ff ff       	callq  86f3 <transparent_crc>
   10f00:	c7 45 f0 00 00 00 00 	movl   $0x0,-0x10(%rbp)
   10f07:	eb 4f                	jmp    10f58 <main+0x96b>
   10f09:	8b 45 f0             	mov    -0x10(%rbp),%eax
   10f0c:	48 98                	cltq   
   10f0e:	48 8d 14 c5 00 00 00 	lea    0x0(,%rax,8),%rdx
   10f15:	00 
   10f16:	48 8d 05 cb 4c 00 00 	lea    0x4ccb(%rip),%rax        # 15be8 <g_976>
   10f1d:	48 8b 04 02          	mov    (%rdx,%rax,1),%rax
   10f21:	48 89 c1             	mov    %rax,%rcx
   10f24:	8b 45 fc             	mov    -0x4(%rbp),%eax
   10f27:	89 c2                	mov    %eax,%edx
   10f29:	48 8d 35 62 16 00 00 	lea    0x1662(%rip),%rsi        # 12592 <g_1650+0x51a>
   10f30:	48 89 cf             	mov    %rcx,%rdi
   10f33:	e8 bb 77 ff ff       	callq  86f3 <transparent_crc>
   10f38:	83 7d fc 00          	cmpl   $0x0,-0x4(%rbp)
   10f3c:	74 16                	je     10f54 <main+0x967>
   10f3e:	8b 45 f0             	mov    -0x10(%rbp),%eax
   10f41:	89 c6                	mov    %eax,%esi
   10f43:	48 8d 3d 1c 15 00 00 	lea    0x151c(%rip),%rdi        # 12466 <g_1650+0x3ee>
   10f4a:	b8 00 00 00 00       	mov    $0x0,%eax
   10f4f:	e8 2c 61 ff ff       	callq  7080 <printf@plt>
   10f54:	83 45 f0 01          	addl   $0x1,-0x10(%rbp)
   10f58:	83 7d f0 00          	cmpl   $0x0,-0x10(%rbp)
   10f5c:	7e ab                	jle    10f09 <main+0x91c>
   10f5e:	48 8b 05 8b 4c 00 00 	mov    0x4c8b(%rip),%rax        # 15bf0 <g_983>
   10f65:	8b 55 fc             	mov    -0x4(%rbp),%edx
   10f68:	48 8d 35 2c 16 00 00 	lea    0x162c(%rip),%rsi        # 1259b <g_1650+0x523>
   10f6f:	48 89 c7             	mov    %rax,%rdi
   10f72:	e8 7c 77 ff ff       	callq  86f3 <transparent_crc>
   10f77:	8b 05 73 4c 00 00    	mov    0x4c73(%rip),%eax        # 15bf0 <g_983>
   10f7d:	89 c1                	mov    %eax,%ecx
   10f7f:	8b 45 fc             	mov    -0x4(%rbp),%eax
   10f82:	89 c2                	mov    %eax,%edx
   10f84:	48 8d 35 19 16 00 00 	lea    0x1619(%rip),%rsi        # 125a4 <g_1650+0x52c>
   10f8b:	48 89 cf             	mov    %rcx,%rdi
   10f8e:	e8 60 77 ff ff       	callq  86f3 <transparent_crc>
   10f93:	48 8b 05 5e 4c 00 00 	mov    0x4c5e(%rip),%rax        # 15bf8 <g_984>
   10f9a:	8b 55 fc             	mov    -0x4(%rbp),%edx
   10f9d:	48 8d 35 09 16 00 00 	lea    0x1609(%rip),%rsi        # 125ad <g_1650+0x535>
   10fa4:	48 89 c7             	mov    %rax,%rdi
   10fa7:	e8 47 77 ff ff       	callq  86f3 <transparent_crc>
   10fac:	8b 05 46 4c 00 00    	mov    0x4c46(%rip),%eax        # 15bf8 <g_984>
   10fb2:	89 c1                	mov    %eax,%ecx
   10fb4:	8b 45 fc             	mov    -0x4(%rbp),%eax
   10fb7:	89 c2                	mov    %eax,%edx
   10fb9:	48 8d 35 f6 15 00 00 	lea    0x15f6(%rip),%rsi        # 125b6 <g_1650+0x53e>
   10fc0:	48 89 cf             	mov    %rcx,%rdi
   10fc3:	e8 2b 77 ff ff       	callq  86f3 <transparent_crc>
   10fc8:	0f b6 05 31 4c 00 00 	movzbl 0x4c31(%rip),%eax        # 15c00 <g_988>
   10fcf:	0f b6 c0             	movzbl %al,%eax
   10fd2:	8b 55 fc             	mov    -0x4(%rbp),%edx
   10fd5:	48 8d 35 e3 15 00 00 	lea    0x15e3(%rip),%rsi        # 125bf <g_1650+0x547>
   10fdc:	48 89 c7             	mov    %rax,%rdi
   10fdf:	e8 0f 77 ff ff       	callq  86f3 <transparent_crc>
   10fe4:	8b 05 c6 7d 00 00    	mov    0x7dc6(%rip),%eax        # 18db0 <g_1003>
   10fea:	48 98                	cltq   
   10fec:	8b 55 fc             	mov    -0x4(%rbp),%edx
   10fef:	48 8d 35 cf 15 00 00 	lea    0x15cf(%rip),%rsi        # 125c5 <g_1650+0x54d>
   10ff6:	48 89 c7             	mov    %rax,%rdi
   10ff9:	e8 f5 76 ff ff       	callq  86f3 <transparent_crc>
   10ffe:	8b 05 ac 7d 00 00    	mov    0x7dac(%rip),%eax        # 18db0 <g_1003>
   11004:	48 98                	cltq   
   11006:	8b 55 fc             	mov    -0x4(%rbp),%edx
   11009:	48 8d 35 bf 15 00 00 	lea    0x15bf(%rip),%rsi        # 125cf <g_1650+0x557>
   11010:	48 89 c7             	mov    %rax,%rdi
   11013:	e8 db 76 ff ff       	callq  86f3 <transparent_crc>
   11018:	8b 05 e6 4b 00 00    	mov    0x4be6(%rip),%eax        # 15c04 <g_1006>
   1101e:	48 98                	cltq   
   11020:	8b 55 fc             	mov    -0x4(%rbp),%edx
   11023:	48 8d 35 af 15 00 00 	lea    0x15af(%rip),%rsi        # 125d9 <g_1650+0x561>
   1102a:	48 89 c7             	mov    %rax,%rdi
   1102d:	e8 c1 76 ff ff       	callq  86f3 <transparent_crc>
   11032:	8b 05 cc 4b 00 00    	mov    0x4bcc(%rip),%eax        # 15c04 <g_1006>
   11038:	48 98                	cltq   
   1103a:	8b 55 fc             	mov    -0x4(%rbp),%edx
   1103d:	48 8d 35 9f 15 00 00 	lea    0x159f(%rip),%rsi        # 125e3 <g_1650+0x56b>
   11044:	48 89 c7             	mov    %rax,%rdi
   11047:	e8 a7 76 ff ff       	callq  86f3 <transparent_crc>
   1104c:	b8 00 00 00 00       	mov    $0x0,%eax
   11051:	48 98                	cltq   
   11053:	8b 55 fc             	mov    -0x4(%rbp),%edx
   11056:	48 8d 35 90 15 00 00 	lea    0x1590(%rip),%rsi        # 125ed <g_1650+0x575>
   1105d:	48 89 c7             	mov    %rax,%rdi
   11060:	e8 8e 76 ff ff       	callq  86f3 <transparent_crc>
   11065:	8b 05 f1 0f 00 00    	mov    0xff1(%rip),%eax        # 1205c <g_1027>
   1106b:	48 98                	cltq   
   1106d:	8b 55 fc             	mov    -0x4(%rbp),%edx
   11070:	48 8d 35 80 15 00 00 	lea    0x1580(%rip),%rsi        # 125f7 <g_1650+0x57f>
   11077:	48 89 c7             	mov    %rax,%rdi
   1107a:	e8 74 76 ff ff       	callq  86f3 <transparent_crc>
   1107f:	8b 05 83 4b 00 00    	mov    0x4b83(%rip),%eax        # 15c08 <g_1085>
   11085:	48 98                	cltq   
   11087:	8b 55 fc             	mov    -0x4(%rbp),%edx
   1108a:	48 8d 35 70 15 00 00 	lea    0x1570(%rip),%rsi        # 12601 <g_1650+0x589>
   11091:	48 89 c7             	mov    %rax,%rdi
   11094:	e8 5a 76 ff ff       	callq  86f3 <transparent_crc>
   11099:	8b 05 69 4b 00 00    	mov    0x4b69(%rip),%eax        # 15c08 <g_1085>
   1109f:	48 98                	cltq   
   110a1:	8b 55 fc             	mov    -0x4(%rbp),%edx
   110a4:	48 8d 35 60 15 00 00 	lea    0x1560(%rip),%rsi        # 1260b <g_1650+0x593>
   110ab:	48 89 c7             	mov    %rax,%rdi
   110ae:	e8 40 76 ff ff       	callq  86f3 <transparent_crc>
   110b3:	8b 05 53 4b 00 00    	mov    0x4b53(%rip),%eax        # 15c0c <g_1110>
   110b9:	48 98                	cltq   
   110bb:	8b 55 fc             	mov    -0x4(%rbp),%edx
   110be:	48 8d 35 50 15 00 00 	lea    0x1550(%rip),%rsi        # 12615 <g_1650+0x59d>
   110c5:	48 89 c7             	mov    %rax,%rdi
   110c8:	e8 26 76 ff ff       	callq  86f3 <transparent_crc>
   110cd:	8b 05 39 4b 00 00    	mov    0x4b39(%rip),%eax        # 15c0c <g_1110>
   110d3:	48 98                	cltq   
   110d5:	8b 55 fc             	mov    -0x4(%rbp),%edx
   110d8:	48 8d 35 40 15 00 00 	lea    0x1540(%rip),%rsi        # 1261f <g_1650+0x5a7>
   110df:	48 89 c7             	mov    %rax,%rdi
   110e2:	e8 0c 76 ff ff       	callq  86f3 <transparent_crc>
   110e7:	8b 05 23 4b 00 00    	mov    0x4b23(%rip),%eax        # 15c10 <g_1167>
   110ed:	48 98                	cltq   
   110ef:	8b 55 fc             	mov    -0x4(%rbp),%edx
   110f2:	48 8d 35 30 15 00 00 	lea    0x1530(%rip),%rsi        # 12629 <g_1650+0x5b1>
   110f9:	48 89 c7             	mov    %rax,%rdi
   110fc:	e8 f2 75 ff ff       	callq  86f3 <transparent_crc>
   11101:	8b 05 09 4b 00 00    	mov    0x4b09(%rip),%eax        # 15c10 <g_1167>
   11107:	48 98                	cltq   
   11109:	8b 55 fc             	mov    -0x4(%rbp),%edx
   1110c:	48 8d 35 20 15 00 00 	lea    0x1520(%rip),%rsi        # 12633 <g_1650+0x5bb>
   11113:	48 89 c7             	mov    %rax,%rdi
   11116:	e8 d8 75 ff ff       	callq  86f3 <transparent_crc>
   1111b:	8b 05 9f 7c 00 00    	mov    0x7c9f(%rip),%eax        # 18dc0 <g_1192>
   11121:	89 c1                	mov    %eax,%ecx
   11123:	8b 45 fc             	mov    -0x4(%rbp),%eax
   11126:	89 c2                	mov    %eax,%edx
   11128:	48 8d 35 0e 15 00 00 	lea    0x150e(%rip),%rsi        # 1263d <g_1650+0x5c5>
   1112f:	48 89 cf             	mov    %rcx,%rdi
   11132:	e8 bc 75 ff ff       	callq  86f3 <transparent_crc>
   11137:	8b 05 87 7c 00 00    	mov    0x7c87(%rip),%eax        # 18dc4 <g_1199>
   1113d:	48 98                	cltq   
   1113f:	8b 55 fc             	mov    -0x4(%rbp),%edx
   11142:	48 8d 35 fb 14 00 00 	lea    0x14fb(%rip),%rsi        # 12644 <g_1650+0x5cc>
   11149:	48 89 c7             	mov    %rax,%rdi
   1114c:	e8 a2 75 ff ff       	callq  86f3 <transparent_crc>
   11151:	8b 05 6d 7c 00 00    	mov    0x7c6d(%rip),%eax        # 18dc4 <g_1199>
   11157:	48 98                	cltq   
   11159:	8b 55 fc             	mov    -0x4(%rbp),%edx
   1115c:	48 8d 35 eb 14 00 00 	lea    0x14eb(%rip),%rsi        # 1264e <g_1650+0x5d6>
   11163:	48 89 c7             	mov    %rax,%rdi
   11166:	e8 88 75 ff ff       	callq  86f3 <transparent_crc>
   1116b:	48 8b 05 ee 0e 00 00 	mov    0xeee(%rip),%rax        # 12060 <g_1214>
   11172:	8b 55 fc             	mov    -0x4(%rbp),%edx
   11175:	48 8d 35 dc 14 00 00 	lea    0x14dc(%rip),%rsi        # 12658 <g_1650+0x5e0>
   1117c:	48 89 c7             	mov    %rax,%rdi
   1117f:	e8 6f 75 ff ff       	callq  86f3 <transparent_crc>
   11184:	b8 15 2b 69 7d       	mov    $0x7d692b15,%eax
   11189:	89 c1                	mov    %eax,%ecx
   1118b:	8b 45 fc             	mov    -0x4(%rbp),%eax
   1118e:	89 c2                	mov    %eax,%edx
   11190:	48 8d 35 cb 14 00 00 	lea    0x14cb(%rip),%rsi        # 12662 <g_1650+0x5ea>
   11197:	48 89 cf             	mov    %rcx,%rdi
   1119a:	e8 54 75 ff ff       	callq  86f3 <transparent_crc>
   1119f:	c7 45 f0 00 00 00 00 	movl   $0x0,-0x10(%rbp)
   111a6:	e9 96 00 00 00       	jmpq   11241 <main+0xc54>
   111ab:	c7 45 f4 00 00 00 00 	movl   $0x0,-0xc(%rbp)
   111b2:	eb 7f                	jmp    11233 <main+0xc46>
   111b4:	c7 45 f8 00 00 00 00 	movl   $0x0,-0x8(%rbp)
   111bb:	eb 6c                	jmp    11229 <main+0xc3c>
   111bd:	8b 45 f8             	mov    -0x8(%rbp),%eax
   111c0:	48 98                	cltq   
   111c2:	8b 55 f0             	mov    -0x10(%rbp),%edx
   111c5:	48 63 ca             	movslq %edx,%rcx
   111c8:	8b 55 f4             	mov    -0xc(%rbp),%edx
   111cb:	48 63 d2             	movslq %edx,%rdx
   111ce:	48 c1 e1 03          	shl    $0x3,%rcx
   111d2:	48 01 ca             	add    %rcx,%rdx
   111d5:	48 01 d2             	add    %rdx,%rdx
   111d8:	48 01 d0             	add    %rdx,%rax
   111db:	48 8d 14 85 00 00 00 	lea    0x0(,%rax,4),%rdx
   111e2:	00 
   111e3:	48 8d 05 36 4a 00 00 	lea    0x4a36(%rip),%rax        # 15c20 <g_1221>
   111ea:	8b 04 02             	mov    (%rdx,%rax,1),%eax
   111ed:	89 c1                	mov    %eax,%ecx
   111ef:	8b 45 fc             	mov    -0x4(%rbp),%eax
   111f2:	89 c2                	mov    %eax,%edx
   111f4:	48 8d 35 71 14 00 00 	lea    0x1471(%rip),%rsi        # 1266c <g_1650+0x5f4>
   111fb:	48 89 cf             	mov    %rcx,%rdi
   111fe:	e8 f0 74 ff ff       	callq  86f3 <transparent_crc>
   11203:	83 7d fc 00          	cmpl   $0x0,-0x4(%rbp)
   11207:	74 1c                	je     11225 <main+0xc38>
   11209:	8b 4d f8             	mov    -0x8(%rbp),%ecx
   1120c:	8b 55 f4             	mov    -0xc(%rbp),%edx
   1120f:	8b 45 f0             	mov    -0x10(%rbp),%eax
   11212:	89 c6                	mov    %eax,%esi
   11214:	48 8d 3d d1 12 00 00 	lea    0x12d1(%rip),%rdi        # 124ec <g_1650+0x474>
   1121b:	b8 00 00 00 00       	mov    $0x0,%eax
   11220:	e8 5b 5e ff ff       	callq  7080 <printf@plt>
   11225:	83 45 f8 01          	addl   $0x1,-0x8(%rbp)
   11229:	83 7d f8 01          	cmpl   $0x1,-0x8(%rbp)
   1122d:	7e 8e                	jle    111bd <main+0xbd0>
   1122f:	83 45 f4 01          	addl   $0x1,-0xc(%rbp)
   11233:	83 7d f4 07          	cmpl   $0x7,-0xc(%rbp)
   11237:	0f 8e 77 ff ff ff    	jle    111b4 <main+0xbc7>
   1123d:	83 45 f0 01          	addl   $0x1,-0x10(%rbp)
   11241:	83 7d f0 04          	cmpl   $0x4,-0x10(%rbp)
   11245:	0f 8e 60 ff ff ff    	jle    111ab <main+0xbbe>
   1124b:	c7 45 f0 00 00 00 00 	movl   $0x0,-0x10(%rbp)
   11252:	e9 12 01 00 00       	jmpq   11369 <main+0xd7c>
   11257:	c7 45 f4 00 00 00 00 	movl   $0x0,-0xc(%rbp)
   1125e:	e9 f8 00 00 00       	jmpq   1135b <main+0xd6e>
   11263:	c7 45 f8 00 00 00 00 	movl   $0x0,-0x8(%rbp)
   1126a:	e9 de 00 00 00       	jmpq   1134d <main+0xd60>
   1126f:	8b 45 f8             	mov    -0x8(%rbp),%eax
   11272:	48 63 f0             	movslq %eax,%rsi
   11275:	8b 45 f0             	mov    -0x10(%rbp),%eax
   11278:	48 98                	cltq   
   1127a:	8b 55 f4             	mov    -0xc(%rbp),%edx
   1127d:	48 63 ca             	movslq %edx,%rcx
   11280:	48 89 c2             	mov    %rax,%rdx
   11283:	48 01 d2             	add    %rdx,%rdx
   11286:	48 01 c2             	add    %rax,%rdx
   11289:	48 89 d0             	mov    %rdx,%rax
   1128c:	48 c1 e0 04          	shl    $0x4,%rax
   11290:	48 89 c2             	mov    %rax,%rdx
   11293:	48 89 c8             	mov    %rcx,%rax
   11296:	48 01 c0             	add    %rax,%rax
   11299:	48 01 c8             	add    %rcx,%rax
   1129c:	48 01 c0             	add    %rax,%rax
   1129f:	48 01 d0             	add    %rdx,%rax
   112a2:	48 01 f0             	add    %rsi,%rax
   112a5:	48 8d 14 85 00 00 00 	lea    0x0(,%rax,4),%rdx
   112ac:	00 
   112ad:	48 8d 05 ac 4a 00 00 	lea    0x4aac(%rip),%rax        # 15d60 <g_1241>
   112b4:	8b 04 02             	mov    (%rdx,%rax,1),%eax
   112b7:	48 98                	cltq   
   112b9:	8b 55 fc             	mov    -0x4(%rbp),%edx
   112bc:	48 8d 35 b9 13 00 00 	lea    0x13b9(%rip),%rsi        # 1267c <g_1650+0x604>
   112c3:	48 89 c7             	mov    %rax,%rdi
   112c6:	e8 28 74 ff ff       	callq  86f3 <transparent_crc>
   112cb:	8b 45 f8             	mov    -0x8(%rbp),%eax
   112ce:	48 63 f0             	movslq %eax,%rsi
   112d1:	8b 45 f0             	mov    -0x10(%rbp),%eax
   112d4:	48 98                	cltq   
   112d6:	8b 55 f4             	mov    -0xc(%rbp),%edx
   112d9:	48 63 ca             	movslq %edx,%rcx
   112dc:	48 89 c2             	mov    %rax,%rdx
   112df:	48 01 d2             	add    %rdx,%rdx
   112e2:	48 01 c2             	add    %rax,%rdx
   112e5:	48 89 d0             	mov    %rdx,%rax
   112e8:	48 c1 e0 04          	shl    $0x4,%rax
   112ec:	48 89 c2             	mov    %rax,%rdx
   112ef:	48 89 c8             	mov    %rcx,%rax
   112f2:	48 01 c0             	add    %rax,%rax
   112f5:	48 01 c8             	add    %rcx,%rax
   112f8:	48 01 c0             	add    %rax,%rax
   112fb:	48 01 d0             	add    %rdx,%rax
   112fe:	48 01 f0             	add    %rsi,%rax
   11301:	48 8d 14 85 00 00 00 	lea    0x0(,%rax,4),%rdx
   11308:	00 
   11309:	48 8d 05 50 4a 00 00 	lea    0x4a50(%rip),%rax        # 15d60 <g_1241>
   11310:	8b 04 02             	mov    (%rdx,%rax,1),%eax
   11313:	48 98                	cltq   
   11315:	8b 55 fc             	mov    -0x4(%rbp),%edx
   11318:	48 8d 35 70 13 00 00 	lea    0x1370(%rip),%rsi        # 1268f <g_1650+0x617>
   1131f:	48 89 c7             	mov    %rax,%rdi
   11322:	e8 cc 73 ff ff       	callq  86f3 <transparent_crc>
   11327:	83 7d fc 00          	cmpl   $0x0,-0x4(%rbp)
   1132b:	74 1c                	je     11349 <main+0xd5c>
   1132d:	8b 4d f8             	mov    -0x8(%rbp),%ecx
   11330:	8b 55 f4             	mov    -0xc(%rbp),%edx
   11333:	8b 45 f0             	mov    -0x10(%rbp),%eax
   11336:	89 c6                	mov    %eax,%esi
   11338:	48 8d 3d ad 11 00 00 	lea    0x11ad(%rip),%rdi        # 124ec <g_1650+0x474>
   1133f:	b8 00 00 00 00       	mov    $0x0,%eax
   11344:	e8 37 5d ff ff       	callq  7080 <printf@plt>
   11349:	83 45 f8 01          	addl   $0x1,-0x8(%rbp)
   1134d:	83 7d f8 05          	cmpl   $0x5,-0x8(%rbp)
   11351:	0f 8e 18 ff ff ff    	jle    1126f <main+0xc82>
   11357:	83 45 f4 01          	addl   $0x1,-0xc(%rbp)
   1135b:	83 7d f4 07          	cmpl   $0x7,-0xc(%rbp)
   1135f:	0f 8e fe fe ff ff    	jle    11263 <main+0xc76>
   11365:	83 45 f0 01          	addl   $0x1,-0x10(%rbp)
   11369:	83 7d f0 01          	cmpl   $0x1,-0x10(%rbp)
   1136d:	0f 8e e4 fe ff ff    	jle    11257 <main+0xc6a>
   11373:	48 8b 05 66 4b 00 00 	mov    0x4b66(%rip),%rax        # 15ee0 <g_1261>
   1137a:	8b 55 fc             	mov    -0x4(%rbp),%edx
   1137d:	48 8d 35 1e 13 00 00 	lea    0x131e(%rip),%rsi        # 126a2 <g_1650+0x62a>
   11384:	48 89 c7             	mov    %rax,%rdi
   11387:	e8 67 73 ff ff       	callq  86f3 <transparent_crc>
   1138c:	8b 05 4e 4b 00 00    	mov    0x4b4e(%rip),%eax        # 15ee0 <g_1261>
   11392:	89 c1                	mov    %eax,%ecx
   11394:	8b 45 fc             	mov    -0x4(%rbp),%eax
   11397:	89 c2                	mov    %eax,%edx
   11399:	48 8d 35 0c 13 00 00 	lea    0x130c(%rip),%rsi        # 126ac <g_1650+0x634>
   113a0:	48 89 cf             	mov    %rcx,%rdi
   113a3:	e8 4b 73 ff ff       	callq  86f3 <transparent_crc>
   113a8:	48 8b 05 b9 0c 00 00 	mov    0xcb9(%rip),%rax        # 12068 <g_1268>
   113af:	8b 55 fc             	mov    -0x4(%rbp),%edx
   113b2:	48 8d 35 fd 12 00 00 	lea    0x12fd(%rip),%rsi        # 126b6 <g_1650+0x63e>
   113b9:	48 89 c7             	mov    %rax,%rdi
   113bc:	e8 32 73 ff ff       	callq  86f3 <transparent_crc>
   113c1:	b8 01 00 00 00       	mov    $0x1,%eax
   113c6:	89 c1                	mov    %eax,%ecx
   113c8:	8b 45 fc             	mov    -0x4(%rbp),%eax
   113cb:	89 c2                	mov    %eax,%edx
   113cd:	48 8d 35 ec 12 00 00 	lea    0x12ec(%rip),%rsi        # 126c0 <g_1650+0x648>
   113d4:	48 89 cf             	mov    %rcx,%rdi
   113d7:	e8 17 73 ff ff       	callq  86f3 <transparent_crc>
   113dc:	48 8b 05 05 4b 00 00 	mov    0x4b05(%rip),%rax        # 15ee8 <g_1278>
   113e3:	8b 55 fc             	mov    -0x4(%rbp),%edx
   113e6:	48 8d 35 dd 12 00 00 	lea    0x12dd(%rip),%rsi        # 126ca <g_1650+0x652>
   113ed:	48 89 c7             	mov    %rax,%rdi
   113f0:	e8 fe 72 ff ff       	callq  86f3 <transparent_crc>
   113f5:	8b 05 ed 4a 00 00    	mov    0x4aed(%rip),%eax        # 15ee8 <g_1278>
   113fb:	89 c1                	mov    %eax,%ecx
   113fd:	8b 45 fc             	mov    -0x4(%rbp),%eax
   11400:	89 c2                	mov    %eax,%edx
   11402:	48 8d 35 cb 12 00 00 	lea    0x12cb(%rip),%rsi        # 126d4 <g_1650+0x65c>
   11409:	48 89 cf             	mov    %rcx,%rdi
   1140c:	e8 e2 72 ff ff       	callq  86f3 <transparent_crc>
   11411:	8b 05 d9 4a 00 00    	mov    0x4ad9(%rip),%eax        # 15ef0 <g_1298>
   11417:	48 98                	cltq   
   11419:	8b 55 fc             	mov    -0x4(%rbp),%edx
   1141c:	48 8d 35 bb 12 00 00 	lea    0x12bb(%rip),%rsi        # 126de <g_1650+0x666>
   11423:	48 89 c7             	mov    %rax,%rdi
   11426:	e8 c8 72 ff ff       	callq  86f3 <transparent_crc>
   1142b:	8b 05 bf 4a 00 00    	mov    0x4abf(%rip),%eax        # 15ef0 <g_1298>
   11431:	48 98                	cltq   
   11433:	8b 55 fc             	mov    -0x4(%rbp),%edx
   11436:	48 8d 35 ab 12 00 00 	lea    0x12ab(%rip),%rsi        # 126e8 <g_1650+0x670>
   1143d:	48 89 c7             	mov    %rax,%rdi
   11440:	e8 ae 72 ff ff       	callq  86f3 <transparent_crc>
   11445:	48 8b 05 ac 4a 00 00 	mov    0x4aac(%rip),%rax        # 15ef8 <g_1331>
   1144c:	48 89 c1             	mov    %rax,%rcx
   1144f:	8b 45 fc             	mov    -0x4(%rbp),%eax
   11452:	89 c2                	mov    %eax,%edx
   11454:	48 8d 35 97 12 00 00 	lea    0x1297(%rip),%rsi        # 126f2 <g_1650+0x67a>
   1145b:	48 89 cf             	mov    %rcx,%rdi
   1145e:	e8 90 72 ff ff       	callq  86f3 <transparent_crc>
   11463:	48 8b 05 96 4a 00 00 	mov    0x4a96(%rip),%rax        # 15f00 <g_1340>
   1146a:	8b 55 fc             	mov    -0x4(%rbp),%edx
   1146d:	48 8d 35 85 12 00 00 	lea    0x1285(%rip),%rsi        # 126f9 <g_1650+0x681>
   11474:	48 89 c7             	mov    %rax,%rdi
   11477:	e8 77 72 ff ff       	callq  86f3 <transparent_crc>
   1147c:	8b 05 7e 4a 00 00    	mov    0x4a7e(%rip),%eax        # 15f00 <g_1340>
   11482:	89 c1                	mov    %eax,%ecx
   11484:	8b 45 fc             	mov    -0x4(%rbp),%eax
   11487:	89 c2                	mov    %eax,%edx
   11489:	48 8d 35 73 12 00 00 	lea    0x1273(%rip),%rsi        # 12703 <g_1650+0x68b>
   11490:	48 89 cf             	mov    %rcx,%rdi
   11493:	e8 5b 72 ff ff       	callq  86f3 <transparent_crc>
   11498:	b8 44 a0 84 c9       	mov    $0xc984a044,%eax
   1149d:	48 98                	cltq   
   1149f:	8b 55 fc             	mov    -0x4(%rbp),%edx
   114a2:	48 8d 35 64 12 00 00 	lea    0x1264(%rip),%rsi        # 1270d <g_1650+0x695>
   114a9:	48 89 c7             	mov    %rax,%rdi
   114ac:	e8 42 72 ff ff       	callq  86f3 <transparent_crc>
   114b1:	8b 05 b9 0b 00 00    	mov    0xbb9(%rip),%eax        # 12070 <g_1394>
   114b7:	48 98                	cltq   
   114b9:	8b 55 fc             	mov    -0x4(%rbp),%edx
   114bc:	48 8d 35 54 12 00 00 	lea    0x1254(%rip),%rsi        # 12717 <g_1650+0x69f>
   114c3:	48 89 c7             	mov    %rax,%rdi
   114c6:	e8 28 72 ff ff       	callq  86f3 <transparent_crc>
   114cb:	0f b6 05 36 4a 00 00 	movzbl 0x4a36(%rip),%eax        # 15f08 <g_1398>
   114d2:	48 0f be c0          	movsbq %al,%rax
   114d6:	8b 55 fc             	mov    -0x4(%rbp),%edx
   114d9:	48 8d 35 41 12 00 00 	lea    0x1241(%rip),%rsi        # 12721 <g_1650+0x6a9>
   114e0:	48 89 c7             	mov    %rax,%rdi
   114e3:	e8 0b 72 ff ff       	callq  86f3 <transparent_crc>
   114e8:	48 8b 05 21 4a 00 00 	mov    0x4a21(%rip),%rax        # 15f10 <g_1415>
   114ef:	48 89 c1             	mov    %rax,%rcx
   114f2:	8b 45 fc             	mov    -0x4(%rbp),%eax
   114f5:	89 c2                	mov    %eax,%edx
   114f7:	48 8d 35 2a 12 00 00 	lea    0x122a(%rip),%rsi        # 12728 <g_1650+0x6b0>
   114fe:	48 89 cf             	mov    %rcx,%rdi
   11501:	e8 ed 71 ff ff       	callq  86f3 <transparent_crc>
   11506:	8b 05 0c 4a 00 00    	mov    0x4a0c(%rip),%eax        # 15f18 <g_1441>
   1150c:	48 98                	cltq   
   1150e:	8b 55 fc             	mov    -0x4(%rbp),%edx
   11511:	48 8d 35 17 12 00 00 	lea    0x1217(%rip),%rsi        # 1272f <g_1650+0x6b7>
   11518:	48 89 c7             	mov    %rax,%rdi
   1151b:	e8 d3 71 ff ff       	callq  86f3 <transparent_crc>
   11520:	8b 05 f2 49 00 00    	mov    0x49f2(%rip),%eax        # 15f18 <g_1441>
   11526:	48 98                	cltq   
   11528:	8b 55 fc             	mov    -0x4(%rbp),%edx
   1152b:	48 8d 35 07 12 00 00 	lea    0x1207(%rip),%rsi        # 12739 <g_1650+0x6c1>
   11532:	48 89 c7             	mov    %rax,%rdi
   11535:	e8 b9 71 ff ff       	callq  86f3 <transparent_crc>
   1153a:	48 8b 05 9f 78 00 00 	mov    0x789f(%rip),%rax        # 18de0 <g_1464>
   11541:	48 89 c1             	mov    %rax,%rcx
   11544:	8b 45 fc             	mov    -0x4(%rbp),%eax
   11547:	89 c2                	mov    %eax,%edx
   11549:	48 8d 35 f3 11 00 00 	lea    0x11f3(%rip),%rsi        # 12743 <g_1650+0x6cb>
   11550:	48 89 cf             	mov    %rcx,%rdi
   11553:	e8 9b 71 ff ff       	callq  86f3 <transparent_crc>
   11558:	8b 05 be 49 00 00    	mov    0x49be(%rip),%eax        # 15f1c <g_1477>
   1155e:	48 98                	cltq   
   11560:	8b 55 fc             	mov    -0x4(%rbp),%edx
   11563:	48 8d 35 e0 11 00 00 	lea    0x11e0(%rip),%rsi        # 1274a <g_1650+0x6d2>
   1156a:	48 89 c7             	mov    %rax,%rdi
   1156d:	e8 81 71 ff ff       	callq  86f3 <transparent_crc>
   11572:	8b 05 a4 49 00 00    	mov    0x49a4(%rip),%eax        # 15f1c <g_1477>
   11578:	48 98                	cltq   
   1157a:	8b 55 fc             	mov    -0x4(%rbp),%edx
   1157d:	48 8d 35 d0 11 00 00 	lea    0x11d0(%rip),%rsi        # 12754 <g_1650+0x6dc>
   11584:	48 89 c7             	mov    %rax,%rdi
   11587:	e8 67 71 ff ff       	callq  86f3 <transparent_crc>
   1158c:	8b 05 8e 49 00 00    	mov    0x498e(%rip),%eax        # 15f20 <g_1478>
   11592:	48 98                	cltq   
   11594:	8b 55 fc             	mov    -0x4(%rbp),%edx
   11597:	48 8d 35 c0 11 00 00 	lea    0x11c0(%rip),%rsi        # 1275e <g_1650+0x6e6>
   1159e:	48 89 c7             	mov    %rax,%rdi
   115a1:	e8 4d 71 ff ff       	callq  86f3 <transparent_crc>
   115a6:	8b 05 74 49 00 00    	mov    0x4974(%rip),%eax        # 15f20 <g_1478>
   115ac:	48 98                	cltq   
   115ae:	8b 55 fc             	mov    -0x4(%rbp),%edx
   115b1:	48 8d 35 b0 11 00 00 	lea    0x11b0(%rip),%rsi        # 12768 <g_1650+0x6f0>
   115b8:	48 89 c7             	mov    %rax,%rdi
   115bb:	e8 33 71 ff ff       	callq  86f3 <transparent_crc>
   115c0:	8b 05 5e 49 00 00    	mov    0x495e(%rip),%eax        # 15f24 <g_1567>
   115c6:	48 98                	cltq   
   115c8:	8b 55 fc             	mov    -0x4(%rbp),%edx
   115cb:	48 8d 35 a0 11 00 00 	lea    0x11a0(%rip),%rsi        # 12772 <g_1650+0x6fa>
   115d2:	48 89 c7             	mov    %rax,%rdi
   115d5:	e8 19 71 ff ff       	callq  86f3 <transparent_crc>
   115da:	8b 05 44 49 00 00    	mov    0x4944(%rip),%eax        # 15f24 <g_1567>
   115e0:	48 98                	cltq   
   115e2:	8b 55 fc             	mov    -0x4(%rbp),%edx
   115e5:	48 8d 35 90 11 00 00 	lea    0x1190(%rip),%rsi        # 1277c <g_1650+0x704>
   115ec:	48 89 c7             	mov    %rax,%rdi
   115ef:	e8 ff 70 ff ff       	callq  86f3 <transparent_crc>
   115f4:	8b 05 2e 49 00 00    	mov    0x492e(%rip),%eax        # 15f28 <g_1639>
   115fa:	48 98                	cltq   
   115fc:	8b 55 fc             	mov    -0x4(%rbp),%edx
   115ff:	48 8d 35 80 11 00 00 	lea    0x1180(%rip),%rsi        # 12786 <g_1650+0x70e>
   11606:	48 89 c7             	mov    %rax,%rdi
   11609:	e8 e5 70 ff ff       	callq  86f3 <transparent_crc>
   1160e:	48 8b 05 63 0a 00 00 	mov    0xa63(%rip),%rax        # 12078 <g_1650>
   11615:	8b 55 fc             	mov    -0x4(%rbp),%edx
   11618:	48 8d 35 6e 11 00 00 	lea    0x116e(%rip),%rsi        # 1278d <g_1650+0x715>
   1161f:	48 89 c7             	mov    %rax,%rdi
   11622:	e8 cc 70 ff ff       	callq  86f3 <transparent_crc>
   11627:	b8 01 00 00 00       	mov    $0x1,%eax
   1162c:	89 c1                	mov    %eax,%ecx
   1162e:	8b 45 fc             	mov    -0x4(%rbp),%eax
   11631:	89 c2                	mov    %eax,%edx
   11633:	48 8d 35 5d 11 00 00 	lea    0x115d(%rip),%rsi        # 12797 <g_1650+0x71f>
   1163a:	48 89 cf             	mov    %rcx,%rdi
   1163d:	e8 b1 70 ff ff       	callq  86f3 <transparent_crc>
   11642:	8b 05 e4 48 00 00    	mov    0x48e4(%rip),%eax        # 15f2c <g_1714>
   11648:	48 98                	cltq   
   1164a:	8b 55 fc             	mov    -0x4(%rbp),%edx
   1164d:	48 8d 35 4d 11 00 00 	lea    0x114d(%rip),%rsi        # 127a1 <g_1650+0x729>
   11654:	48 89 c7             	mov    %rax,%rdi
   11657:	e8 97 70 ff ff       	callq  86f3 <transparent_crc>
   1165c:	8b 05 ca 48 00 00    	mov    0x48ca(%rip),%eax        # 15f2c <g_1714>
   11662:	48 98                	cltq   
   11664:	8b 55 fc             	mov    -0x4(%rbp),%edx
   11667:	48 8d 35 3d 11 00 00 	lea    0x113d(%rip),%rsi        # 127ab <g_1650+0x733>
   1166e:	48 89 c7             	mov    %rax,%rdi
   11671:	e8 7d 70 ff ff       	callq  86f3 <transparent_crc>
   11676:	8b 05 b4 48 00 00    	mov    0x48b4(%rip),%eax        # 15f30 <g_1722>
   1167c:	48 98                	cltq   
   1167e:	8b 55 fc             	mov    -0x4(%rbp),%edx
   11681:	48 8d 35 2d 11 00 00 	lea    0x112d(%rip),%rsi        # 127b5 <g_1650+0x73d>
   11688:	48 89 c7             	mov    %rax,%rdi
   1168b:	e8 63 70 ff ff       	callq  86f3 <transparent_crc>
   11690:	8b 05 9a 48 00 00    	mov    0x489a(%rip),%eax        # 15f30 <g_1722>
   11696:	48 98                	cltq   
   11698:	8b 55 fc             	mov    -0x4(%rbp),%edx
   1169b:	48 8d 35 1d 11 00 00 	lea    0x111d(%rip),%rsi        # 127bf <g_1650+0x747>
   116a2:	48 89 c7             	mov    %rax,%rdi
   116a5:	e8 49 70 ff ff       	callq  86f3 <transparent_crc>
   116aa:	48 8b 05 37 77 00 00 	mov    0x7737(%rip),%rax        # 18de8 <g_1743>
   116b1:	8b 55 fc             	mov    -0x4(%rbp),%edx
   116b4:	48 8d 35 0e 11 00 00 	lea    0x110e(%rip),%rsi        # 127c9 <g_1650+0x751>
   116bb:	48 89 c7             	mov    %rax,%rdi
   116be:	e8 30 70 ff ff       	callq  86f3 <transparent_crc>
   116c3:	8b 05 1f 77 00 00    	mov    0x771f(%rip),%eax        # 18de8 <g_1743>
   116c9:	89 c1                	mov    %eax,%ecx
   116cb:	8b 45 fc             	mov    -0x4(%rbp),%eax
   116ce:	89 c2                	mov    %eax,%edx
   116d0:	48 8d 35 fc 10 00 00 	lea    0x10fc(%rip),%rsi        # 127d3 <g_1650+0x75b>
   116d7:	48 89 cf             	mov    %rcx,%rdi
   116da:	e8 14 70 ff ff       	callq  86f3 <transparent_crc>
   116df:	48 8b 05 52 48 00 00 	mov    0x4852(%rip),%rax        # 15f38 <g_1774>
   116e6:	8b 55 fc             	mov    -0x4(%rbp),%edx
   116e9:	48 8d 35 ed 10 00 00 	lea    0x10ed(%rip),%rsi        # 127dd <g_1650+0x765>
   116f0:	48 89 c7             	mov    %rax,%rdi
   116f3:	e8 fb 6f ff ff       	callq  86f3 <transparent_crc>
   116f8:	8b 05 42 48 00 00    	mov    0x4842(%rip),%eax        # 15f40 <g_1851>
   116fe:	48 98                	cltq   
   11700:	8b 55 fc             	mov    -0x4(%rbp),%edx
   11703:	48 8d 35 da 10 00 00 	lea    0x10da(%rip),%rsi        # 127e4 <g_1650+0x76c>
   1170a:	48 89 c7             	mov    %rax,%rdi
   1170d:	e8 e1 6f ff ff       	callq  86f3 <transparent_crc>
   11712:	8b 05 28 48 00 00    	mov    0x4828(%rip),%eax        # 15f40 <g_1851>
   11718:	48 98                	cltq   
   1171a:	8b 55 fc             	mov    -0x4(%rbp),%edx
   1171d:	48 8d 35 ca 10 00 00 	lea    0x10ca(%rip),%rsi        # 127ee <g_1650+0x776>
   11724:	48 89 c7             	mov    %rax,%rdi
   11727:	e8 c7 6f ff ff       	callq  86f3 <transparent_crc>
   1172c:	48 8b 05 15 48 00 00 	mov    0x4815(%rip),%rax        # 15f48 <g_1860>
   11733:	48 89 c1             	mov    %rax,%rcx
   11736:	8b 45 fc             	mov    -0x4(%rbp),%eax
   11739:	89 c2                	mov    %eax,%edx
   1173b:	48 8d 35 b6 10 00 00 	lea    0x10b6(%rip),%rsi        # 127f8 <g_1650+0x780>
   11742:	48 89 cf             	mov    %rcx,%rdi
   11745:	e8 a9 6f ff ff       	callq  86f3 <transparent_crc>
   1174a:	48 8b 05 ff 47 00 00 	mov    0x47ff(%rip),%rax        # 15f50 <g_1977>
   11751:	48 89 c1             	mov    %rax,%rcx
   11754:	8b 45 fc             	mov    -0x4(%rbp),%eax
   11757:	89 c2                	mov    %eax,%edx
   11759:	48 8d 35 9f 10 00 00 	lea    0x109f(%rip),%rsi        # 127ff <g_1650+0x787>
   11760:	48 89 cf             	mov    %rcx,%rdi
   11763:	e8 8b 6f ff ff       	callq  86f3 <transparent_crc>
   11768:	0f b6 05 e9 47 00 00 	movzbl 0x47e9(%rip),%eax        # 15f58 <g_1990>
   1176f:	48 0f be c0          	movsbq %al,%rax
   11773:	8b 55 fc             	mov    -0x4(%rbp),%edx
   11776:	48 8d 35 89 10 00 00 	lea    0x1089(%rip),%rsi        # 12806 <g_1650+0x78e>
   1177d:	48 89 c7             	mov    %rax,%rdi
   11780:	e8 6e 6f ff ff       	callq  86f3 <transparent_crc>
   11785:	c7 45 f0 00 00 00 00 	movl   $0x0,-0x10(%rbp)
   1178c:	eb 4f                	jmp    117dd <main+0x11f0>
   1178e:	8b 45 f0             	mov    -0x10(%rbp),%eax
   11791:	48 98                	cltq   
   11793:	48 8d 14 c5 00 00 00 	lea    0x0(,%rax,8),%rdx
   1179a:	00 
   1179b:	48 8d 05 be 47 00 00 	lea    0x47be(%rip),%rax        # 15f60 <g_2032>
   117a2:	48 8b 04 02          	mov    (%rdx,%rax,1),%rax
   117a6:	48 89 c1             	mov    %rax,%rcx
   117a9:	8b 45 fc             	mov    -0x4(%rbp),%eax
   117ac:	89 c2                	mov    %eax,%edx
   117ae:	48 8d 35 58 10 00 00 	lea    0x1058(%rip),%rsi        # 1280d <g_1650+0x795>
   117b5:	48 89 cf             	mov    %rcx,%rdi
   117b8:	e8 36 6f ff ff       	callq  86f3 <transparent_crc>
   117bd:	83 7d fc 00          	cmpl   $0x0,-0x4(%rbp)
   117c1:	74 16                	je     117d9 <main+0x11ec>
   117c3:	8b 45 f0             	mov    -0x10(%rbp),%eax
   117c6:	89 c6                	mov    %eax,%esi
   117c8:	48 8d 3d 97 0c 00 00 	lea    0xc97(%rip),%rdi        # 12466 <g_1650+0x3ee>
   117cf:	b8 00 00 00 00       	mov    $0x0,%eax
   117d4:	e8 a7 58 ff ff       	callq  7080 <printf@plt>
   117d9:	83 45 f0 01          	addl   $0x1,-0x10(%rbp)
   117dd:	83 7d f0 08          	cmpl   $0x8,-0x10(%rbp)
   117e1:	7e ab                	jle    1178e <main+0x11a1>
   117e3:	0f b6 05 be 47 00 00 	movzbl 0x47be(%rip),%eax        # 15fa8 <g_2049>
   117ea:	0f b6 c0             	movzbl %al,%eax
   117ed:	8b 55 fc             	mov    -0x4(%rbp),%edx
   117f0:	48 8d 35 20 10 00 00 	lea    0x1020(%rip),%rsi        # 12817 <g_1650+0x79f>
   117f7:	48 89 c7             	mov    %rax,%rdi
   117fa:	e8 f4 6e ff ff       	callq  86f3 <transparent_crc>
   117ff:	8b 05 a7 47 00 00    	mov    0x47a7(%rip),%eax        # 15fac <g_2053>
   11805:	48 98                	cltq   
   11807:	8b 55 fc             	mov    -0x4(%rbp),%edx
   1180a:	48 8d 35 0d 10 00 00 	lea    0x100d(%rip),%rsi        # 1281e <g_1650+0x7a6>
   11811:	48 89 c7             	mov    %rax,%rdi
   11814:	e8 da 6e ff ff       	callq  86f3 <transparent_crc>
   11819:	8b 05 8d 47 00 00    	mov    0x478d(%rip),%eax        # 15fac <g_2053>
   1181f:	48 98                	cltq   
   11821:	8b 55 fc             	mov    -0x4(%rbp),%edx
   11824:	48 8d 35 fd 0f 00 00 	lea    0xffd(%rip),%rsi        # 12828 <g_1650+0x7b0>
   1182b:	48 89 c7             	mov    %rax,%rdi
   1182e:	e8 c0 6e ff ff       	callq  86f3 <transparent_crc>
   11833:	0f b7 05 76 47 00 00 	movzwl 0x4776(%rip),%eax        # 15fb0 <g_2084>
   1183a:	48 0f bf c0          	movswq %ax,%rax
   1183e:	8b 55 fc             	mov    -0x4(%rbp),%edx
   11841:	48 8d 35 ea 0f 00 00 	lea    0xfea(%rip),%rsi        # 12832 <g_1650+0x7ba>
   11848:	48 89 c7             	mov    %rax,%rdi
   1184b:	e8 a3 6e ff ff       	callq  86f3 <transparent_crc>
   11850:	48 8b 05 61 47 00 00 	mov    0x4761(%rip),%rax        # 15fb8 <g_2089>
   11857:	48 89 c1             	mov    %rax,%rcx
   1185a:	8b 45 fc             	mov    -0x4(%rbp),%eax
   1185d:	89 c2                	mov    %eax,%edx
   1185f:	48 8d 35 d3 0f 00 00 	lea    0xfd3(%rip),%rsi        # 12839 <g_1650+0x7c1>
   11866:	48 89 cf             	mov    %rcx,%rdi
   11869:	e8 85 6e ff ff       	callq  86f3 <transparent_crc>
   1186e:	0f b6 05 4b 47 00 00 	movzbl 0x474b(%rip),%eax        # 15fc0 <g_2107>
   11875:	48 0f be c0          	movsbq %al,%rax
   11879:	8b 55 fc             	mov    -0x4(%rbp),%edx
   1187c:	48 8d 35 bd 0f 00 00 	lea    0xfbd(%rip),%rsi        # 12840 <g_1650+0x7c8>
   11883:	48 89 c7             	mov    %rax,%rdi
   11886:	e8 68 6e ff ff       	callq  86f3 <transparent_crc>
   1188b:	8b 05 33 47 00 00    	mov    0x4733(%rip),%eax        # 15fc4 <g_2111>
   11891:	48 98                	cltq   
   11893:	8b 55 fc             	mov    -0x4(%rbp),%edx
   11896:	48 8d 35 aa 0f 00 00 	lea    0xfaa(%rip),%rsi        # 12847 <g_1650+0x7cf>
   1189d:	48 89 c7             	mov    %rax,%rdi
   118a0:	e8 4e 6e ff ff       	callq  86f3 <transparent_crc>
   118a5:	8b 05 1d 47 00 00    	mov    0x471d(%rip),%eax        # 15fc8 <g_2144>
   118ab:	48 98                	cltq   
   118ad:	8b 55 fc             	mov    -0x4(%rbp),%edx
   118b0:	48 8d 35 97 0f 00 00 	lea    0xf97(%rip),%rsi        # 1284e <g_1650+0x7d6>
   118b7:	48 89 c7             	mov    %rax,%rdi
   118ba:	e8 34 6e ff ff       	callq  86f3 <transparent_crc>
   118bf:	8b 05 03 47 00 00    	mov    0x4703(%rip),%eax        # 15fc8 <g_2144>
   118c5:	48 98                	cltq   
   118c7:	8b 55 fc             	mov    -0x4(%rbp),%edx
   118ca:	48 8d 35 87 0f 00 00 	lea    0xf87(%rip),%rsi        # 12858 <g_1650+0x7e0>
   118d1:	48 89 c7             	mov    %rax,%rdi
   118d4:	e8 1a 6e ff ff       	callq  86f3 <transparent_crc>
   118d9:	8b 05 41 37 00 00    	mov    0x3741(%rip),%eax        # 15020 <crc32_context>
   118df:	f7 d0                	not    %eax
   118e1:	89 c2                	mov    %eax,%edx
   118e3:	8b 45 fc             	mov    -0x4(%rbp),%eax
   118e6:	89 c6                	mov    %eax,%esi
   118e8:	89 d7                	mov    %edx,%edi
   118ea:	e8 a5 58 ff ff       	callq  7194 <platform_main_end>
   118ef:	b8 00 00 00 00       	mov    $0x0,%eax
   118f4:	c9                   	leaveq 
   118f5:	c3                   	retq   
   118f6:	66 2e 0f 1f 84 00 00 	nopw   %cs:0x0(%rax,%rax,1)
   118fd:	00 00 00 

0000000000011900 <__libc_csu_init>:
   11900:	f3 0f 1e fa          	endbr64 
   11904:	41 57                	push   %r15
   11906:	4c 8d 3d 83 34 00 00 	lea    0x3483(%rip),%r15        # 14d90 <__frame_dummy_init_array_entry>
   1190d:	41 56                	push   %r14
   1190f:	49 89 d6             	mov    %rdx,%r14
   11912:	41 55                	push   %r13
   11914:	49 89 f5             	mov    %rsi,%r13
   11917:	41 54                	push   %r12
   11919:	41 89 fc             	mov    %edi,%r12d
   1191c:	55                   	push   %rbp
   1191d:	48 8d 2d 74 34 00 00 	lea    0x3474(%rip),%rbp        # 14d98 <__do_global_dtors_aux_fini_array_entry>
   11924:	53                   	push   %rbx
   11925:	4c 29 fd             	sub    %r15,%rbp
   11928:	48 83 ec 08          	sub    $0x8,%rsp
   1192c:	e8 cf 56 ff ff       	callq  7000 <_init>
   11931:	48 c1 fd 03          	sar    $0x3,%rbp
   11935:	74 1f                	je     11956 <__libc_csu_init+0x56>
   11937:	31 db                	xor    %ebx,%ebx
   11939:	0f 1f 80 00 00 00 00 	nopl   0x0(%rax)
   11940:	4c 89 f2             	mov    %r14,%rdx
   11943:	4c 89 ee             	mov    %r13,%rsi
   11946:	44 89 e7             	mov    %r12d,%edi
   11949:	41 ff 14 df          	callq  *(%r15,%rbx,8)
   1194d:	48 83 c3 01          	add    $0x1,%rbx
   11951:	48 39 dd             	cmp    %rbx,%rbp
   11954:	75 ea                	jne    11940 <__libc_csu_init+0x40>
   11956:	48 83 c4 08          	add    $0x8,%rsp
   1195a:	5b                   	pop    %rbx
   1195b:	5d                   	pop    %rbp
   1195c:	41 5c                	pop    %r12
   1195e:	41 5d                	pop    %r13
   11960:	41 5e                	pop    %r14
   11962:	41 5f                	pop    %r15
   11964:	c3                   	retq   
   11965:	66 66 2e 0f 1f 84 00 	data16 nopw %cs:0x0(%rax,%rax,1)
   1196c:	00 00 00 00 

0000000000011970 <__libc_csu_fini>:
   11970:	f3 0f 1e fa          	endbr64 
   11974:	c3                   	retq   
