


Disassembly of section .text:

000000000000a0a0 <_start>:
    a0a0:	f3 0f 1e fa          	endbr64 
    a0a4:	31 ed                	xor    %ebp,%ebp
    a0a6:	49 89 d1             	mov    %rdx,%r9
    a0a9:	5e                   	pop    %rsi
    a0aa:	48 89 e2             	mov    %rsp,%rdx
    a0ad:	48 83 e4 f0          	and    $0xfffffffffffffff0,%rsp
    a0b1:	50                   	push   %rax
    a0b2:	54                   	push   %rsp
    a0b3:	4c 8d 05 96 db 00 00 	lea    0xdb96(%rip),%r8        # 17c50 <__libc_csu_fini>
    a0ba:	48 8d 0d 1f db 00 00 	lea    0xdb1f(%rip),%rcx        # 17be0 <__libc_csu_init>
    a0c1:	48 8d 3d 56 c9 00 00 	lea    0xc956(%rip),%rdi        # 16a1e <main>
    a0c8:	ff 15 12 2f 01 00    	callq  *0x12f12(%rip)        # 1cfe0 <__libc_start_main@GLIBC_2.2.5>
    a0ce:	f4                   	hlt    
    a0cf:	90                   	nop

000000000000a0d0 <deregister_tm_clones>:
    a0d0:	48 8d 3d 01 69 01 00 	lea    0x16901(%rip),%rdi        # 209d8 <__TMC_END__>
    a0d7:	48 8d 05 fa 68 01 00 	lea    0x168fa(%rip),%rax        # 209d8 <__TMC_END__>
    a0de:	48 39 f8             	cmp    %rdi,%rax
    a0e1:	74 15                	je     a0f8 <deregister_tm_clones+0x28>
    a0e3:	48 8b 05 ee 2e 01 00 	mov    0x12eee(%rip),%rax        # 1cfd8 <_ITM_deregisterTMCloneTable>
    a0ea:	48 85 c0             	test   %rax,%rax
    a0ed:	74 09                	je     a0f8 <deregister_tm_clones+0x28>
    a0ef:	ff e0                	jmpq   *%rax
    a0f1:	0f 1f 80 00 00 00 00 	nopl   0x0(%rax)
    a0f8:	c3                   	retq   
    a0f9:	0f 1f 80 00 00 00 00 	nopl   0x0(%rax)

000000000000a100 <register_tm_clones>:
    a100:	48 8d 3d d1 68 01 00 	lea    0x168d1(%rip),%rdi        # 209d8 <__TMC_END__>
    a107:	48 8d 35 ca 68 01 00 	lea    0x168ca(%rip),%rsi        # 209d8 <__TMC_END__>
    a10e:	48 29 fe             	sub    %rdi,%rsi
    a111:	48 89 f0             	mov    %rsi,%rax
    a114:	48 c1 ee 3f          	shr    $0x3f,%rsi
    a118:	48 c1 f8 03          	sar    $0x3,%rax
    a11c:	48 01 c6             	add    %rax,%rsi
    a11f:	48 d1 fe             	sar    %rsi
    a122:	74 14                	je     a138 <register_tm_clones+0x38>
    a124:	48 8b 05 c5 2e 01 00 	mov    0x12ec5(%rip),%rax        # 1cff0 <_ITM_registerTMCloneTable>
    a12b:	48 85 c0             	test   %rax,%rax
    a12e:	74 08                	je     a138 <register_tm_clones+0x38>
    a130:	ff e0                	jmpq   *%rax
    a132:	66 0f 1f 44 00 00    	nopw   0x0(%rax,%rax,1)
    a138:	c3                   	retq   
    a139:	0f 1f 80 00 00 00 00 	nopl   0x0(%rax)

000000000000a140 <__do_global_dtors_aux>:
    a140:	f3 0f 1e fa          	endbr64 
    a144:	80 3d 95 68 01 00 00 	cmpb   $0x0,0x16895(%rip)        # 209e0 <completed.8061>
    a14b:	75 2b                	jne    a178 <__do_global_dtors_aux+0x38>
    a14d:	55                   	push   %rbp
    a14e:	48 83 3d a2 2e 01 00 	cmpq   $0x0,0x12ea2(%rip)        # 1cff8 <__cxa_finalize@GLIBC_2.2.5>
    a155:	00 
    a156:	48 89 e5             	mov    %rsp,%rbp
    a159:	74 0c                	je     a167 <__do_global_dtors_aux+0x27>
    a15b:	48 8b 3d a6 2e 01 00 	mov    0x12ea6(%rip),%rdi        # 1d008 <__dso_handle>
    a162:	e8 f9 fe ff ff       	callq  a060 <__cxa_finalize@plt>
    a167:	e8 64 ff ff ff       	callq  a0d0 <deregister_tm_clones>
    a16c:	c6 05 6d 68 01 00 01 	movb   $0x1,0x1686d(%rip)        # 209e0 <completed.8061>
    a173:	5d                   	pop    %rbp
    a174:	c3                   	retq   
    a175:	0f 1f 00             	nopl   (%rax)
    a178:	c3                   	retq   
    a179:	0f 1f 80 00 00 00 00 	nopl   0x0(%rax)

000000000000a180 <frame_dummy>:
    a180:	f3 0f 1e fa          	endbr64 
    a184:	e9 77 ff ff ff       	jmpq   a100 <register_tm_clones>

000000000000a189 <platform_main_begin>:
    a189:	f3 0f 1e fa          	endbr64 
    a18d:	55                   	push   %rbp
    a18e:	48 89 e5             	mov    %rsp,%rbp
    a191:	90                   	nop
    a192:	5d                   	pop    %rbp
    a193:	c3                   	retq   

000000000000a194 <platform_main_end>:
    a194:	f3 0f 1e fa          	endbr64 
    a198:	55                   	push   %rbp
    a199:	48 89 e5             	mov    %rsp,%rbp
    a19c:	48 83 ec 10          	sub    $0x10,%rsp
    a1a0:	89 7d fc             	mov    %edi,-0x4(%rbp)
    a1a3:	89 75 f8             	mov    %esi,-0x8(%rbp)
    a1a6:	8b 45 fc             	mov    -0x4(%rbp),%eax
    a1a9:	89 c6                	mov    %eax,%esi
    a1ab:	48 8d 3d 6e de 00 00 	lea    0xde6e(%rip),%rdi        # 18020 <_IO_stdin_used+0x20>
    a1b2:	b8 00 00 00 00       	mov    $0x0,%eax
    a1b7:	e8 c4 fe ff ff       	callq  a080 <printf@plt>
    a1bc:	90                   	nop
    a1bd:	c9                   	leaveq 
    a1be:	c3                   	retq   

000000000000a1bf <safe_unary_minus_func_int8_t_s>:
    a1bf:	f3 0f 1e fa          	endbr64 
    a1c3:	55                   	push   %rbp
    a1c4:	48 89 e5             	mov    %rsp,%rbp
    a1c7:	89 f8                	mov    %edi,%eax
    a1c9:	88 45 fc             	mov    %al,-0x4(%rbp)
    a1cc:	0f b6 45 fc          	movzbl -0x4(%rbp),%eax
    a1d0:	f7 d8                	neg    %eax
    a1d2:	5d                   	pop    %rbp
    a1d3:	c3                   	retq   

000000000000a1d4 <safe_add_func_int8_t_s_s>:
    a1d4:	f3 0f 1e fa          	endbr64 
    a1d8:	55                   	push   %rbp
    a1d9:	48 89 e5             	mov    %rsp,%rbp
    a1dc:	89 fa                	mov    %edi,%edx
    a1de:	89 f0                	mov    %esi,%eax
    a1e0:	88 55 fc             	mov    %dl,-0x4(%rbp)
    a1e3:	88 45 f8             	mov    %al,-0x8(%rbp)
    a1e6:	0f b6 55 fc          	movzbl -0x4(%rbp),%edx
    a1ea:	0f b6 45 f8          	movzbl -0x8(%rbp),%eax
    a1ee:	01 d0                	add    %edx,%eax
    a1f0:	5d                   	pop    %rbp
    a1f1:	c3                   	retq   

000000000000a1f2 <safe_sub_func_int8_t_s_s>:
    a1f2:	f3 0f 1e fa          	endbr64 
    a1f6:	55                   	push   %rbp
    a1f7:	48 89 e5             	mov    %rsp,%rbp
    a1fa:	89 fa                	mov    %edi,%edx
    a1fc:	89 f0                	mov    %esi,%eax
    a1fe:	88 55 fc             	mov    %dl,-0x4(%rbp)
    a201:	88 45 f8             	mov    %al,-0x8(%rbp)
    a204:	0f b6 55 fc          	movzbl -0x4(%rbp),%edx
    a208:	0f b6 45 f8          	movzbl -0x8(%rbp),%eax
    a20c:	29 c2                	sub    %eax,%edx
    a20e:	89 d0                	mov    %edx,%eax
    a210:	5d                   	pop    %rbp
    a211:	c3                   	retq   

000000000000a212 <safe_mul_func_int8_t_s_s>:
    a212:	f3 0f 1e fa          	endbr64 
    a216:	55                   	push   %rbp
    a217:	48 89 e5             	mov    %rsp,%rbp
    a21a:	89 fa                	mov    %edi,%edx
    a21c:	89 f0                	mov    %esi,%eax
    a21e:	88 55 fc             	mov    %dl,-0x4(%rbp)
    a221:	88 45 f8             	mov    %al,-0x8(%rbp)
    a224:	0f b6 45 fc          	movzbl -0x4(%rbp),%eax
    a228:	0f b6 55 f8          	movzbl -0x8(%rbp),%edx
    a22c:	0f af c2             	imul   %edx,%eax
    a22f:	5d                   	pop    %rbp
    a230:	c3                   	retq   

000000000000a231 <safe_mod_func_int8_t_s_s>:
    a231:	f3 0f 1e fa          	endbr64 
    a235:	55                   	push   %rbp
    a236:	48 89 e5             	mov    %rsp,%rbp
    a239:	89 fa                	mov    %edi,%edx
    a23b:	89 f0                	mov    %esi,%eax
    a23d:	88 55 fc             	mov    %dl,-0x4(%rbp)
    a240:	88 45 f8             	mov    %al,-0x8(%rbp)
    a243:	80 7d f8 00          	cmpb   $0x0,-0x8(%rbp)
    a247:	74 1b                	je     a264 <safe_mod_func_int8_t_s_s+0x33>
    a249:	80 7d fc 80          	cmpb   $0x80,-0x4(%rbp)
    a24d:	75 06                	jne    a255 <safe_mod_func_int8_t_s_s+0x24>
    a24f:	80 7d f8 ff          	cmpb   $0xff,-0x8(%rbp)
    a253:	74 0f                	je     a264 <safe_mod_func_int8_t_s_s+0x33>
    a255:	0f be 45 fc          	movsbl -0x4(%rbp),%eax
    a259:	0f be 4d f8          	movsbl -0x8(%rbp),%ecx
    a25d:	99                   	cltd   
    a25e:	f7 f9                	idiv   %ecx
    a260:	89 d0                	mov    %edx,%eax
    a262:	eb 04                	jmp    a268 <safe_mod_func_int8_t_s_s+0x37>
    a264:	0f b6 45 fc          	movzbl -0x4(%rbp),%eax
    a268:	5d                   	pop    %rbp
    a269:	c3                   	retq   

000000000000a26a <safe_div_func_int8_t_s_s>:
    a26a:	f3 0f 1e fa          	endbr64 
    a26e:	55                   	push   %rbp
    a26f:	48 89 e5             	mov    %rsp,%rbp
    a272:	89 fa                	mov    %edi,%edx
    a274:	89 f0                	mov    %esi,%eax
    a276:	88 55 fc             	mov    %dl,-0x4(%rbp)
    a279:	88 45 f8             	mov    %al,-0x8(%rbp)
    a27c:	80 7d f8 00          	cmpb   $0x0,-0x8(%rbp)
    a280:	74 19                	je     a29b <safe_div_func_int8_t_s_s+0x31>
    a282:	80 7d fc 80          	cmpb   $0x80,-0x4(%rbp)
    a286:	75 06                	jne    a28e <safe_div_func_int8_t_s_s+0x24>
    a288:	80 7d f8 ff          	cmpb   $0xff,-0x8(%rbp)
    a28c:	74 0d                	je     a29b <safe_div_func_int8_t_s_s+0x31>
    a28e:	0f be 45 fc          	movsbl -0x4(%rbp),%eax
    a292:	0f be 4d f8          	movsbl -0x8(%rbp),%ecx
    a296:	99                   	cltd   
    a297:	f7 f9                	idiv   %ecx
    a299:	eb 04                	jmp    a29f <safe_div_func_int8_t_s_s+0x35>
    a29b:	0f b6 45 fc          	movzbl -0x4(%rbp),%eax
    a29f:	5d                   	pop    %rbp
    a2a0:	c3                   	retq   

000000000000a2a1 <safe_lshift_func_int8_t_s_s>:
    a2a1:	f3 0f 1e fa          	endbr64 
    a2a5:	55                   	push   %rbp
    a2a6:	48 89 e5             	mov    %rsp,%rbp
    a2a9:	89 f8                	mov    %edi,%eax
    a2ab:	89 75 f8             	mov    %esi,-0x8(%rbp)
    a2ae:	88 45 fc             	mov    %al,-0x4(%rbp)
    a2b1:	80 7d fc 00          	cmpb   $0x0,-0x4(%rbp)
    a2b5:	78 31                	js     a2e8 <safe_lshift_func_int8_t_s_s+0x47>
    a2b7:	83 7d f8 00          	cmpl   $0x0,-0x8(%rbp)
    a2bb:	78 2b                	js     a2e8 <safe_lshift_func_int8_t_s_s+0x47>
    a2bd:	83 7d f8 1f          	cmpl   $0x1f,-0x8(%rbp)
    a2c1:	7f 25                	jg     a2e8 <safe_lshift_func_int8_t_s_s+0x47>
    a2c3:	0f be 55 fc          	movsbl -0x4(%rbp),%edx
    a2c7:	8b 45 f8             	mov    -0x8(%rbp),%eax
    a2ca:	be 7f 00 00 00       	mov    $0x7f,%esi
    a2cf:	89 c1                	mov    %eax,%ecx
    a2d1:	d3 fe                	sar    %cl,%esi
    a2d3:	89 f0                	mov    %esi,%eax
    a2d5:	39 c2                	cmp    %eax,%edx
    a2d7:	7f 0f                	jg     a2e8 <safe_lshift_func_int8_t_s_s+0x47>
    a2d9:	0f be 55 fc          	movsbl -0x4(%rbp),%edx
    a2dd:	8b 45 f8             	mov    -0x8(%rbp),%eax
    a2e0:	89 c1                	mov    %eax,%ecx
    a2e2:	d3 e2                	shl    %cl,%edx
    a2e4:	89 d0                	mov    %edx,%eax
    a2e6:	eb 04                	jmp    a2ec <safe_lshift_func_int8_t_s_s+0x4b>
    a2e8:	0f b6 45 fc          	movzbl -0x4(%rbp),%eax
    a2ec:	5d                   	pop    %rbp
    a2ed:	c3                   	retq   

000000000000a2ee <safe_lshift_func_int8_t_s_u>:
    a2ee:	f3 0f 1e fa          	endbr64 
    a2f2:	55                   	push   %rbp
    a2f3:	48 89 e5             	mov    %rsp,%rbp
    a2f6:	89 f8                	mov    %edi,%eax
    a2f8:	89 75 f8             	mov    %esi,-0x8(%rbp)
    a2fb:	88 45 fc             	mov    %al,-0x4(%rbp)
    a2fe:	80 7d fc 00          	cmpb   $0x0,-0x4(%rbp)
    a302:	78 2b                	js     a32f <safe_lshift_func_int8_t_s_u+0x41>
    a304:	83 7d f8 1f          	cmpl   $0x1f,-0x8(%rbp)
    a308:	77 25                	ja     a32f <safe_lshift_func_int8_t_s_u+0x41>
    a30a:	0f be 55 fc          	movsbl -0x4(%rbp),%edx
    a30e:	8b 45 f8             	mov    -0x8(%rbp),%eax
    a311:	be 7f 00 00 00       	mov    $0x7f,%esi
    a316:	89 c1                	mov    %eax,%ecx
    a318:	d3 fe                	sar    %cl,%esi
    a31a:	89 f0                	mov    %esi,%eax
    a31c:	39 c2                	cmp    %eax,%edx
    a31e:	7f 0f                	jg     a32f <safe_lshift_func_int8_t_s_u+0x41>
    a320:	0f be 55 fc          	movsbl -0x4(%rbp),%edx
    a324:	8b 45 f8             	mov    -0x8(%rbp),%eax
    a327:	89 c1                	mov    %eax,%ecx
    a329:	d3 e2                	shl    %cl,%edx
    a32b:	89 d0                	mov    %edx,%eax
    a32d:	eb 04                	jmp    a333 <safe_lshift_func_int8_t_s_u+0x45>
    a32f:	0f b6 45 fc          	movzbl -0x4(%rbp),%eax
    a333:	5d                   	pop    %rbp
    a334:	c3                   	retq   

000000000000a335 <safe_rshift_func_int8_t_s_s>:
    a335:	f3 0f 1e fa          	endbr64 
    a339:	55                   	push   %rbp
    a33a:	48 89 e5             	mov    %rsp,%rbp
    a33d:	89 f8                	mov    %edi,%eax
    a33f:	89 75 f8             	mov    %esi,-0x8(%rbp)
    a342:	88 45 fc             	mov    %al,-0x4(%rbp)
    a345:	80 7d fc 00          	cmpb   $0x0,-0x4(%rbp)
    a349:	78 1b                	js     a366 <safe_rshift_func_int8_t_s_s+0x31>
    a34b:	83 7d f8 00          	cmpl   $0x0,-0x8(%rbp)
    a34f:	78 15                	js     a366 <safe_rshift_func_int8_t_s_s+0x31>
    a351:	83 7d f8 1f          	cmpl   $0x1f,-0x8(%rbp)
    a355:	7f 0f                	jg     a366 <safe_rshift_func_int8_t_s_s+0x31>
    a357:	0f be 55 fc          	movsbl -0x4(%rbp),%edx
    a35b:	8b 45 f8             	mov    -0x8(%rbp),%eax
    a35e:	89 c1                	mov    %eax,%ecx
    a360:	d3 fa                	sar    %cl,%edx
    a362:	89 d0                	mov    %edx,%eax
    a364:	eb 04                	jmp    a36a <safe_rshift_func_int8_t_s_s+0x35>
    a366:	0f b6 45 fc          	movzbl -0x4(%rbp),%eax
    a36a:	5d                   	pop    %rbp
    a36b:	c3                   	retq   

000000000000a36c <safe_rshift_func_int8_t_s_u>:
    a36c:	f3 0f 1e fa          	endbr64 
    a370:	55                   	push   %rbp
    a371:	48 89 e5             	mov    %rsp,%rbp
    a374:	89 f8                	mov    %edi,%eax
    a376:	89 75 f8             	mov    %esi,-0x8(%rbp)
    a379:	88 45 fc             	mov    %al,-0x4(%rbp)
    a37c:	80 7d fc 00          	cmpb   $0x0,-0x4(%rbp)
    a380:	78 15                	js     a397 <safe_rshift_func_int8_t_s_u+0x2b>
    a382:	83 7d f8 1f          	cmpl   $0x1f,-0x8(%rbp)
    a386:	77 0f                	ja     a397 <safe_rshift_func_int8_t_s_u+0x2b>
    a388:	0f be 55 fc          	movsbl -0x4(%rbp),%edx
    a38c:	8b 45 f8             	mov    -0x8(%rbp),%eax
    a38f:	89 c1                	mov    %eax,%ecx
    a391:	d3 fa                	sar    %cl,%edx
    a393:	89 d0                	mov    %edx,%eax
    a395:	eb 04                	jmp    a39b <safe_rshift_func_int8_t_s_u+0x2f>
    a397:	0f b6 45 fc          	movzbl -0x4(%rbp),%eax
    a39b:	5d                   	pop    %rbp
    a39c:	c3                   	retq   

000000000000a39d <safe_unary_minus_func_int16_t_s>:
    a39d:	f3 0f 1e fa          	endbr64 
    a3a1:	55                   	push   %rbp
    a3a2:	48 89 e5             	mov    %rsp,%rbp
    a3a5:	89 f8                	mov    %edi,%eax
    a3a7:	66 89 45 fc          	mov    %ax,-0x4(%rbp)
    a3ab:	0f b7 45 fc          	movzwl -0x4(%rbp),%eax
    a3af:	f7 d8                	neg    %eax
    a3b1:	5d                   	pop    %rbp
    a3b2:	c3                   	retq   

000000000000a3b3 <safe_add_func_int16_t_s_s>:
    a3b3:	f3 0f 1e fa          	endbr64 
    a3b7:	55                   	push   %rbp
    a3b8:	48 89 e5             	mov    %rsp,%rbp
    a3bb:	89 fa                	mov    %edi,%edx
    a3bd:	89 f0                	mov    %esi,%eax
    a3bf:	66 89 55 fc          	mov    %dx,-0x4(%rbp)
    a3c3:	66 89 45 f8          	mov    %ax,-0x8(%rbp)
    a3c7:	0f b7 55 fc          	movzwl -0x4(%rbp),%edx
    a3cb:	0f b7 45 f8          	movzwl -0x8(%rbp),%eax
    a3cf:	01 d0                	add    %edx,%eax
    a3d1:	5d                   	pop    %rbp
    a3d2:	c3                   	retq   

000000000000a3d3 <safe_sub_func_int16_t_s_s>:
    a3d3:	f3 0f 1e fa          	endbr64 
    a3d7:	55                   	push   %rbp
    a3d8:	48 89 e5             	mov    %rsp,%rbp
    a3db:	89 fa                	mov    %edi,%edx
    a3dd:	89 f0                	mov    %esi,%eax
    a3df:	66 89 55 fc          	mov    %dx,-0x4(%rbp)
    a3e3:	66 89 45 f8          	mov    %ax,-0x8(%rbp)
    a3e7:	0f b7 55 fc          	movzwl -0x4(%rbp),%edx
    a3eb:	0f b7 45 f8          	movzwl -0x8(%rbp),%eax
    a3ef:	29 c2                	sub    %eax,%edx
    a3f1:	89 d0                	mov    %edx,%eax
    a3f3:	5d                   	pop    %rbp
    a3f4:	c3                   	retq   

000000000000a3f5 <safe_mul_func_int16_t_s_s>:
    a3f5:	f3 0f 1e fa          	endbr64 
    a3f9:	55                   	push   %rbp
    a3fa:	48 89 e5             	mov    %rsp,%rbp
    a3fd:	89 fa                	mov    %edi,%edx
    a3ff:	89 f0                	mov    %esi,%eax
    a401:	66 89 55 fc          	mov    %dx,-0x4(%rbp)
    a405:	66 89 45 f8          	mov    %ax,-0x8(%rbp)
    a409:	0f b7 55 fc          	movzwl -0x4(%rbp),%edx
    a40d:	0f b7 45 f8          	movzwl -0x8(%rbp),%eax
    a411:	0f af c2             	imul   %edx,%eax
    a414:	5d                   	pop    %rbp
    a415:	c3                   	retq   

000000000000a416 <safe_mod_func_int16_t_s_s>:
    a416:	f3 0f 1e fa          	endbr64 
    a41a:	55                   	push   %rbp
    a41b:	48 89 e5             	mov    %rsp,%rbp
    a41e:	89 fa                	mov    %edi,%edx
    a420:	89 f0                	mov    %esi,%eax
    a422:	66 89 55 fc          	mov    %dx,-0x4(%rbp)
    a426:	66 89 45 f8          	mov    %ax,-0x8(%rbp)
    a42a:	66 83 7d f8 00       	cmpw   $0x0,-0x8(%rbp)
    a42f:	74 1e                	je     a44f <safe_mod_func_int16_t_s_s+0x39>
    a431:	66 81 7d fc 00 80    	cmpw   $0x8000,-0x4(%rbp)
    a437:	75 07                	jne    a440 <safe_mod_func_int16_t_s_s+0x2a>
    a439:	66 83 7d f8 ff       	cmpw   $0xffff,-0x8(%rbp)
    a43e:	74 0f                	je     a44f <safe_mod_func_int16_t_s_s+0x39>
    a440:	0f bf 45 fc          	movswl -0x4(%rbp),%eax
    a444:	0f bf 4d f8          	movswl -0x8(%rbp),%ecx
    a448:	99                   	cltd   
    a449:	f7 f9                	idiv   %ecx
    a44b:	89 d0                	mov    %edx,%eax
    a44d:	eb 04                	jmp    a453 <safe_mod_func_int16_t_s_s+0x3d>
    a44f:	0f b7 45 fc          	movzwl -0x4(%rbp),%eax
    a453:	5d                   	pop    %rbp
    a454:	c3                   	retq   

000000000000a455 <safe_div_func_int16_t_s_s>:
    a455:	f3 0f 1e fa          	endbr64 
    a459:	55                   	push   %rbp
    a45a:	48 89 e5             	mov    %rsp,%rbp
    a45d:	89 fa                	mov    %edi,%edx
    a45f:	89 f0                	mov    %esi,%eax
    a461:	66 89 55 fc          	mov    %dx,-0x4(%rbp)
    a465:	66 89 45 f8          	mov    %ax,-0x8(%rbp)
    a469:	66 83 7d f8 00       	cmpw   $0x0,-0x8(%rbp)
    a46e:	74 1c                	je     a48c <safe_div_func_int16_t_s_s+0x37>
    a470:	66 81 7d fc 00 80    	cmpw   $0x8000,-0x4(%rbp)
    a476:	75 07                	jne    a47f <safe_div_func_int16_t_s_s+0x2a>
    a478:	66 83 7d f8 ff       	cmpw   $0xffff,-0x8(%rbp)
    a47d:	74 0d                	je     a48c <safe_div_func_int16_t_s_s+0x37>
    a47f:	0f bf 45 fc          	movswl -0x4(%rbp),%eax
    a483:	0f bf 4d f8          	movswl -0x8(%rbp),%ecx
    a487:	99                   	cltd   
    a488:	f7 f9                	idiv   %ecx
    a48a:	eb 04                	jmp    a490 <safe_div_func_int16_t_s_s+0x3b>
    a48c:	0f b7 45 fc          	movzwl -0x4(%rbp),%eax
    a490:	5d                   	pop    %rbp
    a491:	c3                   	retq   

000000000000a492 <safe_lshift_func_int16_t_s_s>:
    a492:	f3 0f 1e fa          	endbr64 
    a496:	55                   	push   %rbp
    a497:	48 89 e5             	mov    %rsp,%rbp
    a49a:	89 f8                	mov    %edi,%eax
    a49c:	89 75 f8             	mov    %esi,-0x8(%rbp)
    a49f:	66 89 45 fc          	mov    %ax,-0x4(%rbp)
    a4a3:	66 83 7d fc 00       	cmpw   $0x0,-0x4(%rbp)
    a4a8:	78 31                	js     a4db <safe_lshift_func_int16_t_s_s+0x49>
    a4aa:	83 7d f8 00          	cmpl   $0x0,-0x8(%rbp)
    a4ae:	78 2b                	js     a4db <safe_lshift_func_int16_t_s_s+0x49>
    a4b0:	83 7d f8 1f          	cmpl   $0x1f,-0x8(%rbp)
    a4b4:	7f 25                	jg     a4db <safe_lshift_func_int16_t_s_s+0x49>
    a4b6:	0f bf 55 fc          	movswl -0x4(%rbp),%edx
    a4ba:	8b 45 f8             	mov    -0x8(%rbp),%eax
    a4bd:	be ff 7f 00 00       	mov    $0x7fff,%esi
    a4c2:	89 c1                	mov    %eax,%ecx
    a4c4:	d3 fe                	sar    %cl,%esi
    a4c6:	89 f0                	mov    %esi,%eax
    a4c8:	39 c2                	cmp    %eax,%edx
    a4ca:	7f 0f                	jg     a4db <safe_lshift_func_int16_t_s_s+0x49>
    a4cc:	0f bf 55 fc          	movswl -0x4(%rbp),%edx
    a4d0:	8b 45 f8             	mov    -0x8(%rbp),%eax
    a4d3:	89 c1                	mov    %eax,%ecx
    a4d5:	d3 e2                	shl    %cl,%edx
    a4d7:	89 d0                	mov    %edx,%eax
    a4d9:	eb 04                	jmp    a4df <safe_lshift_func_int16_t_s_s+0x4d>
    a4db:	0f b7 45 fc          	movzwl -0x4(%rbp),%eax
    a4df:	5d                   	pop    %rbp
    a4e0:	c3                   	retq   

000000000000a4e1 <safe_lshift_func_int16_t_s_u>:
    a4e1:	f3 0f 1e fa          	endbr64 
    a4e5:	55                   	push   %rbp
    a4e6:	48 89 e5             	mov    %rsp,%rbp
    a4e9:	89 f8                	mov    %edi,%eax
    a4eb:	89 75 f8             	mov    %esi,-0x8(%rbp)
    a4ee:	66 89 45 fc          	mov    %ax,-0x4(%rbp)
    a4f2:	66 83 7d fc 00       	cmpw   $0x0,-0x4(%rbp)
    a4f7:	78 2b                	js     a524 <safe_lshift_func_int16_t_s_u+0x43>
    a4f9:	83 7d f8 1f          	cmpl   $0x1f,-0x8(%rbp)
    a4fd:	77 25                	ja     a524 <safe_lshift_func_int16_t_s_u+0x43>
    a4ff:	0f bf 55 fc          	movswl -0x4(%rbp),%edx
    a503:	8b 45 f8             	mov    -0x8(%rbp),%eax
    a506:	be ff 7f 00 00       	mov    $0x7fff,%esi
    a50b:	89 c1                	mov    %eax,%ecx
    a50d:	d3 fe                	sar    %cl,%esi
    a50f:	89 f0                	mov    %esi,%eax
    a511:	39 c2                	cmp    %eax,%edx
    a513:	7f 0f                	jg     a524 <safe_lshift_func_int16_t_s_u+0x43>
    a515:	0f bf 55 fc          	movswl -0x4(%rbp),%edx
    a519:	8b 45 f8             	mov    -0x8(%rbp),%eax
    a51c:	89 c1                	mov    %eax,%ecx
    a51e:	d3 e2                	shl    %cl,%edx
    a520:	89 d0                	mov    %edx,%eax
    a522:	eb 04                	jmp    a528 <safe_lshift_func_int16_t_s_u+0x47>
    a524:	0f b7 45 fc          	movzwl -0x4(%rbp),%eax
    a528:	5d                   	pop    %rbp
    a529:	c3                   	retq   

000000000000a52a <safe_rshift_func_int16_t_s_s>:
    a52a:	f3 0f 1e fa          	endbr64 
    a52e:	55                   	push   %rbp
    a52f:	48 89 e5             	mov    %rsp,%rbp
    a532:	89 f8                	mov    %edi,%eax
    a534:	89 75 f8             	mov    %esi,-0x8(%rbp)
    a537:	66 89 45 fc          	mov    %ax,-0x4(%rbp)
    a53b:	66 83 7d fc 00       	cmpw   $0x0,-0x4(%rbp)
    a540:	78 1b                	js     a55d <safe_rshift_func_int16_t_s_s+0x33>
    a542:	83 7d f8 00          	cmpl   $0x0,-0x8(%rbp)
    a546:	78 15                	js     a55d <safe_rshift_func_int16_t_s_s+0x33>
    a548:	83 7d f8 1f          	cmpl   $0x1f,-0x8(%rbp)
    a54c:	7f 0f                	jg     a55d <safe_rshift_func_int16_t_s_s+0x33>
    a54e:	0f bf 55 fc          	movswl -0x4(%rbp),%edx
    a552:	8b 45 f8             	mov    -0x8(%rbp),%eax
    a555:	89 c1                	mov    %eax,%ecx
    a557:	d3 fa                	sar    %cl,%edx
    a559:	89 d0                	mov    %edx,%eax
    a55b:	eb 04                	jmp    a561 <safe_rshift_func_int16_t_s_s+0x37>
    a55d:	0f b7 45 fc          	movzwl -0x4(%rbp),%eax
    a561:	5d                   	pop    %rbp
    a562:	c3                   	retq   

000000000000a563 <safe_rshift_func_int16_t_s_u>:
    a563:	f3 0f 1e fa          	endbr64 
    a567:	55                   	push   %rbp
    a568:	48 89 e5             	mov    %rsp,%rbp
    a56b:	89 f8                	mov    %edi,%eax
    a56d:	89 75 f8             	mov    %esi,-0x8(%rbp)
    a570:	66 89 45 fc          	mov    %ax,-0x4(%rbp)
    a574:	66 83 7d fc 00       	cmpw   $0x0,-0x4(%rbp)
    a579:	78 15                	js     a590 <safe_rshift_func_int16_t_s_u+0x2d>
    a57b:	83 7d f8 1f          	cmpl   $0x1f,-0x8(%rbp)
    a57f:	77 0f                	ja     a590 <safe_rshift_func_int16_t_s_u+0x2d>
    a581:	0f bf 55 fc          	movswl -0x4(%rbp),%edx
    a585:	8b 45 f8             	mov    -0x8(%rbp),%eax
    a588:	89 c1                	mov    %eax,%ecx
    a58a:	d3 fa                	sar    %cl,%edx
    a58c:	89 d0                	mov    %edx,%eax
    a58e:	eb 04                	jmp    a594 <safe_rshift_func_int16_t_s_u+0x31>
    a590:	0f b7 45 fc          	movzwl -0x4(%rbp),%eax
    a594:	5d                   	pop    %rbp
    a595:	c3                   	retq   

000000000000a596 <safe_unary_minus_func_int32_t_s>:
    a596:	f3 0f 1e fa          	endbr64 
    a59a:	55                   	push   %rbp
    a59b:	48 89 e5             	mov    %rsp,%rbp
    a59e:	89 7d fc             	mov    %edi,-0x4(%rbp)
    a5a1:	81 7d fc 00 00 00 80 	cmpl   $0x80000000,-0x4(%rbp)
    a5a8:	74 07                	je     a5b1 <safe_unary_minus_func_int32_t_s+0x1b>
    a5aa:	8b 45 fc             	mov    -0x4(%rbp),%eax
    a5ad:	f7 d8                	neg    %eax
    a5af:	eb 03                	jmp    a5b4 <safe_unary_minus_func_int32_t_s+0x1e>
    a5b1:	8b 45 fc             	mov    -0x4(%rbp),%eax
    a5b4:	5d                   	pop    %rbp
    a5b5:	c3                   	retq   

000000000000a5b6 <safe_add_func_int32_t_s_s>:
    a5b6:	f3 0f 1e fa          	endbr64 
    a5ba:	55                   	push   %rbp
    a5bb:	48 89 e5             	mov    %rsp,%rbp
    a5be:	89 7d fc             	mov    %edi,-0x4(%rbp)
    a5c1:	89 75 f8             	mov    %esi,-0x8(%rbp)
    a5c4:	83 7d fc 00          	cmpl   $0x0,-0x4(%rbp)
    a5c8:	7e 13                	jle    a5dd <safe_add_func_int32_t_s_s+0x27>
    a5ca:	83 7d f8 00          	cmpl   $0x0,-0x8(%rbp)
    a5ce:	7e 0d                	jle    a5dd <safe_add_func_int32_t_s_s+0x27>
    a5d0:	b8 ff ff ff 7f       	mov    $0x7fffffff,%eax
    a5d5:	2b 45 f8             	sub    -0x8(%rbp),%eax
    a5d8:	39 45 fc             	cmp    %eax,-0x4(%rbp)
    a5db:	7f 23                	jg     a600 <safe_add_func_int32_t_s_s+0x4a>
    a5dd:	83 7d fc 00          	cmpl   $0x0,-0x4(%rbp)
    a5e1:	79 13                	jns    a5f6 <safe_add_func_int32_t_s_s+0x40>
    a5e3:	83 7d f8 00          	cmpl   $0x0,-0x8(%rbp)
    a5e7:	79 0d                	jns    a5f6 <safe_add_func_int32_t_s_s+0x40>
    a5e9:	b8 00 00 00 80       	mov    $0x80000000,%eax
    a5ee:	2b 45 f8             	sub    -0x8(%rbp),%eax
    a5f1:	39 45 fc             	cmp    %eax,-0x4(%rbp)
    a5f4:	7c 0a                	jl     a600 <safe_add_func_int32_t_s_s+0x4a>
    a5f6:	8b 55 fc             	mov    -0x4(%rbp),%edx
    a5f9:	8b 45 f8             	mov    -0x8(%rbp),%eax
    a5fc:	01 d0                	add    %edx,%eax
    a5fe:	eb 03                	jmp    a603 <safe_add_func_int32_t_s_s+0x4d>
    a600:	8b 45 fc             	mov    -0x4(%rbp),%eax
    a603:	5d                   	pop    %rbp
    a604:	c3                   	retq   

000000000000a605 <safe_sub_func_int32_t_s_s>:
    a605:	f3 0f 1e fa          	endbr64 
    a609:	55                   	push   %rbp
    a60a:	48 89 e5             	mov    %rsp,%rbp
    a60d:	89 7d fc             	mov    %edi,-0x4(%rbp)
    a610:	89 75 f8             	mov    %esi,-0x8(%rbp)
    a613:	8b 45 fc             	mov    -0x4(%rbp),%eax
    a616:	33 45 f8             	xor    -0x8(%rbp),%eax
    a619:	89 c2                	mov    %eax,%edx
    a61b:	8b 45 fc             	mov    -0x4(%rbp),%eax
    a61e:	33 45 f8             	xor    -0x8(%rbp),%eax
    a621:	25 00 00 00 80       	and    $0x80000000,%eax
    a626:	33 45 fc             	xor    -0x4(%rbp),%eax
    a629:	2b 45 f8             	sub    -0x8(%rbp),%eax
    a62c:	33 45 f8             	xor    -0x8(%rbp),%eax
    a62f:	21 d0                	and    %edx,%eax
    a631:	85 c0                	test   %eax,%eax
    a633:	78 08                	js     a63d <safe_sub_func_int32_t_s_s+0x38>
    a635:	8b 45 fc             	mov    -0x4(%rbp),%eax
    a638:	2b 45 f8             	sub    -0x8(%rbp),%eax
    a63b:	eb 03                	jmp    a640 <safe_sub_func_int32_t_s_s+0x3b>
    a63d:	8b 45 fc             	mov    -0x4(%rbp),%eax
    a640:	5d                   	pop    %rbp
    a641:	c3                   	retq   

000000000000a642 <safe_mul_func_int32_t_s_s>:
    a642:	f3 0f 1e fa          	endbr64 
    a646:	55                   	push   %rbp
    a647:	48 89 e5             	mov    %rsp,%rbp
    a64a:	89 7d fc             	mov    %edi,-0x4(%rbp)
    a64d:	89 75 f8             	mov    %esi,-0x8(%rbp)
    a650:	83 7d fc 00          	cmpl   $0x0,-0x4(%rbp)
    a654:	7e 14                	jle    a66a <safe_mul_func_int32_t_s_s+0x28>
    a656:	83 7d f8 00          	cmpl   $0x0,-0x8(%rbp)
    a65a:	7e 0e                	jle    a66a <safe_mul_func_int32_t_s_s+0x28>
    a65c:	b8 ff ff ff 7f       	mov    $0x7fffffff,%eax
    a661:	99                   	cltd   
    a662:	f7 7d f8             	idivl  -0x8(%rbp)
    a665:	39 45 fc             	cmp    %eax,-0x4(%rbp)
    a668:	7f 5d                	jg     a6c7 <safe_mul_func_int32_t_s_s+0x85>
    a66a:	83 7d fc 00          	cmpl   $0x0,-0x4(%rbp)
    a66e:	7e 14                	jle    a684 <safe_mul_func_int32_t_s_s+0x42>
    a670:	83 7d f8 00          	cmpl   $0x0,-0x8(%rbp)
    a674:	7f 0e                	jg     a684 <safe_mul_func_int32_t_s_s+0x42>
    a676:	b8 00 00 00 80       	mov    $0x80000000,%eax
    a67b:	99                   	cltd   
    a67c:	f7 7d fc             	idivl  -0x4(%rbp)
    a67f:	39 45 f8             	cmp    %eax,-0x8(%rbp)
    a682:	7c 43                	jl     a6c7 <safe_mul_func_int32_t_s_s+0x85>
    a684:	83 7d fc 00          	cmpl   $0x0,-0x4(%rbp)
    a688:	7f 14                	jg     a69e <safe_mul_func_int32_t_s_s+0x5c>
    a68a:	83 7d f8 00          	cmpl   $0x0,-0x8(%rbp)
    a68e:	7e 0e                	jle    a69e <safe_mul_func_int32_t_s_s+0x5c>
    a690:	b8 00 00 00 80       	mov    $0x80000000,%eax
    a695:	99                   	cltd   
    a696:	f7 7d f8             	idivl  -0x8(%rbp)
    a699:	39 45 fc             	cmp    %eax,-0x4(%rbp)
    a69c:	7c 29                	jl     a6c7 <safe_mul_func_int32_t_s_s+0x85>
    a69e:	83 7d fc 00          	cmpl   $0x0,-0x4(%rbp)
    a6a2:	7f 1a                	jg     a6be <safe_mul_func_int32_t_s_s+0x7c>
    a6a4:	83 7d f8 00          	cmpl   $0x0,-0x8(%rbp)
    a6a8:	7f 14                	jg     a6be <safe_mul_func_int32_t_s_s+0x7c>
    a6aa:	83 7d fc 00          	cmpl   $0x0,-0x4(%rbp)
    a6ae:	74 0e                	je     a6be <safe_mul_func_int32_t_s_s+0x7c>
    a6b0:	b8 ff ff ff 7f       	mov    $0x7fffffff,%eax
    a6b5:	99                   	cltd   
    a6b6:	f7 7d fc             	idivl  -0x4(%rbp)
    a6b9:	39 45 f8             	cmp    %eax,-0x8(%rbp)
    a6bc:	7c 09                	jl     a6c7 <safe_mul_func_int32_t_s_s+0x85>
    a6be:	8b 45 fc             	mov    -0x4(%rbp),%eax
    a6c1:	0f af 45 f8          	imul   -0x8(%rbp),%eax
    a6c5:	eb 03                	jmp    a6ca <safe_mul_func_int32_t_s_s+0x88>
    a6c7:	8b 45 fc             	mov    -0x4(%rbp),%eax
    a6ca:	5d                   	pop    %rbp
    a6cb:	c3                   	retq   

000000000000a6cc <safe_mod_func_int32_t_s_s>:
    a6cc:	f3 0f 1e fa          	endbr64 
    a6d0:	55                   	push   %rbp
    a6d1:	48 89 e5             	mov    %rsp,%rbp
    a6d4:	89 7d fc             	mov    %edi,-0x4(%rbp)
    a6d7:	89 75 f8             	mov    %esi,-0x8(%rbp)
    a6da:	83 7d f8 00          	cmpl   $0x0,-0x8(%rbp)
    a6de:	74 1a                	je     a6fa <safe_mod_func_int32_t_s_s+0x2e>
    a6e0:	81 7d fc 00 00 00 80 	cmpl   $0x80000000,-0x4(%rbp)
    a6e7:	75 06                	jne    a6ef <safe_mod_func_int32_t_s_s+0x23>
    a6e9:	83 7d f8 ff          	cmpl   $0xffffffff,-0x8(%rbp)
    a6ed:	74 0b                	je     a6fa <safe_mod_func_int32_t_s_s+0x2e>
    a6ef:	8b 45 fc             	mov    -0x4(%rbp),%eax
    a6f2:	99                   	cltd   
    a6f3:	f7 7d f8             	idivl  -0x8(%rbp)
    a6f6:	89 d0                	mov    %edx,%eax
    a6f8:	eb 03                	jmp    a6fd <safe_mod_func_int32_t_s_s+0x31>
    a6fa:	8b 45 fc             	mov    -0x4(%rbp),%eax
    a6fd:	5d                   	pop    %rbp
    a6fe:	c3                   	retq   

000000000000a6ff <safe_div_func_int32_t_s_s>:
    a6ff:	f3 0f 1e fa          	endbr64 
    a703:	55                   	push   %rbp
    a704:	48 89 e5             	mov    %rsp,%rbp
    a707:	89 7d fc             	mov    %edi,-0x4(%rbp)
    a70a:	89 75 f8             	mov    %esi,-0x8(%rbp)
    a70d:	83 7d f8 00          	cmpl   $0x0,-0x8(%rbp)
    a711:	74 18                	je     a72b <safe_div_func_int32_t_s_s+0x2c>
    a713:	81 7d fc 00 00 00 80 	cmpl   $0x80000000,-0x4(%rbp)
    a71a:	75 06                	jne    a722 <safe_div_func_int32_t_s_s+0x23>
    a71c:	83 7d f8 ff          	cmpl   $0xffffffff,-0x8(%rbp)
    a720:	74 09                	je     a72b <safe_div_func_int32_t_s_s+0x2c>
    a722:	8b 45 fc             	mov    -0x4(%rbp),%eax
    a725:	99                   	cltd   
    a726:	f7 7d f8             	idivl  -0x8(%rbp)
    a729:	eb 03                	jmp    a72e <safe_div_func_int32_t_s_s+0x2f>
    a72b:	8b 45 fc             	mov    -0x4(%rbp),%eax
    a72e:	5d                   	pop    %rbp
    a72f:	c3                   	retq   

000000000000a730 <safe_lshift_func_int32_t_s_s>:
    a730:	f3 0f 1e fa          	endbr64 
    a734:	55                   	push   %rbp
    a735:	48 89 e5             	mov    %rsp,%rbp
    a738:	89 7d fc             	mov    %edi,-0x4(%rbp)
    a73b:	89 75 f8             	mov    %esi,-0x8(%rbp)
    a73e:	83 7d fc 00          	cmpl   $0x0,-0x4(%rbp)
    a742:	78 2d                	js     a771 <safe_lshift_func_int32_t_s_s+0x41>
    a744:	83 7d f8 00          	cmpl   $0x0,-0x8(%rbp)
    a748:	78 27                	js     a771 <safe_lshift_func_int32_t_s_s+0x41>
    a74a:	83 7d f8 1f          	cmpl   $0x1f,-0x8(%rbp)
    a74e:	7f 21                	jg     a771 <safe_lshift_func_int32_t_s_s+0x41>
    a750:	8b 45 f8             	mov    -0x8(%rbp),%eax
    a753:	ba ff ff ff 7f       	mov    $0x7fffffff,%edx
    a758:	89 c1                	mov    %eax,%ecx
    a75a:	d3 fa                	sar    %cl,%edx
    a75c:	89 d0                	mov    %edx,%eax
    a75e:	39 45 fc             	cmp    %eax,-0x4(%rbp)
    a761:	7f 0e                	jg     a771 <safe_lshift_func_int32_t_s_s+0x41>
    a763:	8b 45 f8             	mov    -0x8(%rbp),%eax
    a766:	8b 55 fc             	mov    -0x4(%rbp),%edx
    a769:	89 c1                	mov    %eax,%ecx
    a76b:	d3 e2                	shl    %cl,%edx
    a76d:	89 d0                	mov    %edx,%eax
    a76f:	eb 03                	jmp    a774 <safe_lshift_func_int32_t_s_s+0x44>
    a771:	8b 45 fc             	mov    -0x4(%rbp),%eax
    a774:	5d                   	pop    %rbp
    a775:	c3                   	retq   

000000000000a776 <safe_lshift_func_int32_t_s_u>:
    a776:	f3 0f 1e fa          	endbr64 
    a77a:	55                   	push   %rbp
    a77b:	48 89 e5             	mov    %rsp,%rbp
    a77e:	89 7d fc             	mov    %edi,-0x4(%rbp)
    a781:	89 75 f8             	mov    %esi,-0x8(%rbp)
    a784:	83 7d fc 00          	cmpl   $0x0,-0x4(%rbp)
    a788:	78 27                	js     a7b1 <safe_lshift_func_int32_t_s_u+0x3b>
    a78a:	83 7d f8 1f          	cmpl   $0x1f,-0x8(%rbp)
    a78e:	77 21                	ja     a7b1 <safe_lshift_func_int32_t_s_u+0x3b>
    a790:	8b 45 f8             	mov    -0x8(%rbp),%eax
    a793:	ba ff ff ff 7f       	mov    $0x7fffffff,%edx
    a798:	89 c1                	mov    %eax,%ecx
    a79a:	d3 fa                	sar    %cl,%edx
    a79c:	89 d0                	mov    %edx,%eax
    a79e:	39 45 fc             	cmp    %eax,-0x4(%rbp)
    a7a1:	7f 0e                	jg     a7b1 <safe_lshift_func_int32_t_s_u+0x3b>
    a7a3:	8b 45 f8             	mov    -0x8(%rbp),%eax
    a7a6:	8b 55 fc             	mov    -0x4(%rbp),%edx
    a7a9:	89 c1                	mov    %eax,%ecx
    a7ab:	d3 e2                	shl    %cl,%edx
    a7ad:	89 d0                	mov    %edx,%eax
    a7af:	eb 03                	jmp    a7b4 <safe_lshift_func_int32_t_s_u+0x3e>
    a7b1:	8b 45 fc             	mov    -0x4(%rbp),%eax
    a7b4:	5d                   	pop    %rbp
    a7b5:	c3                   	retq   

000000000000a7b6 <safe_rshift_func_int32_t_s_s>:
    a7b6:	f3 0f 1e fa          	endbr64 
    a7ba:	55                   	push   %rbp
    a7bb:	48 89 e5             	mov    %rsp,%rbp
    a7be:	89 7d fc             	mov    %edi,-0x4(%rbp)
    a7c1:	89 75 f8             	mov    %esi,-0x8(%rbp)
    a7c4:	83 7d fc 00          	cmpl   $0x0,-0x4(%rbp)
    a7c8:	78 1a                	js     a7e4 <safe_rshift_func_int32_t_s_s+0x2e>
    a7ca:	83 7d f8 00          	cmpl   $0x0,-0x8(%rbp)
    a7ce:	78 14                	js     a7e4 <safe_rshift_func_int32_t_s_s+0x2e>
    a7d0:	83 7d f8 1f          	cmpl   $0x1f,-0x8(%rbp)
    a7d4:	7f 0e                	jg     a7e4 <safe_rshift_func_int32_t_s_s+0x2e>
    a7d6:	8b 45 f8             	mov    -0x8(%rbp),%eax
    a7d9:	8b 55 fc             	mov    -0x4(%rbp),%edx
    a7dc:	89 c1                	mov    %eax,%ecx
    a7de:	d3 fa                	sar    %cl,%edx
    a7e0:	89 d0                	mov    %edx,%eax
    a7e2:	eb 03                	jmp    a7e7 <safe_rshift_func_int32_t_s_s+0x31>
    a7e4:	8b 45 fc             	mov    -0x4(%rbp),%eax
    a7e7:	5d                   	pop    %rbp
    a7e8:	c3                   	retq   

000000000000a7e9 <safe_rshift_func_int32_t_s_u>:
    a7e9:	f3 0f 1e fa          	endbr64 
    a7ed:	55                   	push   %rbp
    a7ee:	48 89 e5             	mov    %rsp,%rbp
    a7f1:	89 7d fc             	mov    %edi,-0x4(%rbp)
    a7f4:	89 75 f8             	mov    %esi,-0x8(%rbp)
    a7f7:	83 7d fc 00          	cmpl   $0x0,-0x4(%rbp)
    a7fb:	78 14                	js     a811 <safe_rshift_func_int32_t_s_u+0x28>
    a7fd:	83 7d f8 1f          	cmpl   $0x1f,-0x8(%rbp)
    a801:	77 0e                	ja     a811 <safe_rshift_func_int32_t_s_u+0x28>
    a803:	8b 45 f8             	mov    -0x8(%rbp),%eax
    a806:	8b 55 fc             	mov    -0x4(%rbp),%edx
    a809:	89 c1                	mov    %eax,%ecx
    a80b:	d3 fa                	sar    %cl,%edx
    a80d:	89 d0                	mov    %edx,%eax
    a80f:	eb 03                	jmp    a814 <safe_rshift_func_int32_t_s_u+0x2b>
    a811:	8b 45 fc             	mov    -0x4(%rbp),%eax
    a814:	5d                   	pop    %rbp
    a815:	c3                   	retq   

000000000000a816 <safe_unary_minus_func_int64_t_s>:
    a816:	f3 0f 1e fa          	endbr64 
    a81a:	55                   	push   %rbp
    a81b:	48 89 e5             	mov    %rsp,%rbp
    a81e:	48 89 7d f8          	mov    %rdi,-0x8(%rbp)
    a822:	48 b8 00 00 00 00 00 	movabs $0x8000000000000000,%rax
    a829:	00 00 80 
    a82c:	48 39 45 f8          	cmp    %rax,-0x8(%rbp)
    a830:	74 09                	je     a83b <safe_unary_minus_func_int64_t_s+0x25>
    a832:	48 8b 45 f8          	mov    -0x8(%rbp),%rax
    a836:	48 f7 d8             	neg    %rax
    a839:	eb 04                	jmp    a83f <safe_unary_minus_func_int64_t_s+0x29>
    a83b:	48 8b 45 f8          	mov    -0x8(%rbp),%rax
    a83f:	5d                   	pop    %rbp
    a840:	c3                   	retq   

000000000000a841 <safe_add_func_int64_t_s_s>:
    a841:	f3 0f 1e fa          	endbr64 
    a845:	55                   	push   %rbp
    a846:	48 89 e5             	mov    %rsp,%rbp
    a849:	48 89 7d f8          	mov    %rdi,-0x8(%rbp)
    a84d:	48 89 75 f0          	mov    %rsi,-0x10(%rbp)
    a851:	48 83 7d f8 00       	cmpq   $0x0,-0x8(%rbp)
    a856:	7e 1b                	jle    a873 <safe_add_func_int64_t_s_s+0x32>
    a858:	48 83 7d f0 00       	cmpq   $0x0,-0x10(%rbp)
    a85d:	7e 14                	jle    a873 <safe_add_func_int64_t_s_s+0x32>
    a85f:	48 b8 ff ff ff ff ff 	movabs $0x7fffffffffffffff,%rax
    a866:	ff ff 7f 
    a869:	48 2b 45 f0          	sub    -0x10(%rbp),%rax
    a86d:	48 39 45 f8          	cmp    %rax,-0x8(%rbp)
    a871:	7f 2f                	jg     a8a2 <safe_add_func_int64_t_s_s+0x61>
    a873:	48 83 7d f8 00       	cmpq   $0x0,-0x8(%rbp)
    a878:	79 1b                	jns    a895 <safe_add_func_int64_t_s_s+0x54>
    a87a:	48 83 7d f0 00       	cmpq   $0x0,-0x10(%rbp)
    a87f:	79 14                	jns    a895 <safe_add_func_int64_t_s_s+0x54>
    a881:	48 b8 00 00 00 00 00 	movabs $0x8000000000000000,%rax
    a888:	00 00 80 
    a88b:	48 2b 45 f0          	sub    -0x10(%rbp),%rax
    a88f:	48 39 45 f8          	cmp    %rax,-0x8(%rbp)
    a893:	7c 0d                	jl     a8a2 <safe_add_func_int64_t_s_s+0x61>
    a895:	48 8b 55 f8          	mov    -0x8(%rbp),%rdx
    a899:	48 8b 45 f0          	mov    -0x10(%rbp),%rax
    a89d:	48 01 d0             	add    %rdx,%rax
    a8a0:	eb 04                	jmp    a8a6 <safe_add_func_int64_t_s_s+0x65>
    a8a2:	48 8b 45 f8          	mov    -0x8(%rbp),%rax
    a8a6:	5d                   	pop    %rbp
    a8a7:	c3                   	retq   

000000000000a8a8 <safe_sub_func_int64_t_s_s>:
    a8a8:	f3 0f 1e fa          	endbr64 
    a8ac:	55                   	push   %rbp
    a8ad:	48 89 e5             	mov    %rsp,%rbp
    a8b0:	48 89 7d f8          	mov    %rdi,-0x8(%rbp)
    a8b4:	48 89 75 f0          	mov    %rsi,-0x10(%rbp)
    a8b8:	48 8b 45 f8          	mov    -0x8(%rbp),%rax
    a8bc:	48 33 45 f0          	xor    -0x10(%rbp),%rax
    a8c0:	48 89 c2             	mov    %rax,%rdx
    a8c3:	48 8b 45 f8          	mov    -0x8(%rbp),%rax
    a8c7:	48 33 45 f0          	xor    -0x10(%rbp),%rax
    a8cb:	48 b9 00 00 00 00 00 	movabs $0x8000000000000000,%rcx
    a8d2:	00 00 80 
    a8d5:	48 21 c8             	and    %rcx,%rax
    a8d8:	48 33 45 f8          	xor    -0x8(%rbp),%rax
    a8dc:	48 2b 45 f0          	sub    -0x10(%rbp),%rax
    a8e0:	48 33 45 f0          	xor    -0x10(%rbp),%rax
    a8e4:	48 21 d0             	and    %rdx,%rax
    a8e7:	48 85 c0             	test   %rax,%rax
    a8ea:	78 0a                	js     a8f6 <safe_sub_func_int64_t_s_s+0x4e>
    a8ec:	48 8b 45 f8          	mov    -0x8(%rbp),%rax
    a8f0:	48 2b 45 f0          	sub    -0x10(%rbp),%rax
    a8f4:	eb 04                	jmp    a8fa <safe_sub_func_int64_t_s_s+0x52>
    a8f6:	48 8b 45 f8          	mov    -0x8(%rbp),%rax
    a8fa:	5d                   	pop    %rbp
    a8fb:	c3                   	retq   

000000000000a8fc <safe_mul_func_int64_t_s_s>:
    a8fc:	f3 0f 1e fa          	endbr64 
    a900:	55                   	push   %rbp
    a901:	48 89 e5             	mov    %rsp,%rbp
    a904:	48 89 7d f8          	mov    %rdi,-0x8(%rbp)
    a908:	48 89 75 f0          	mov    %rsi,-0x10(%rbp)
    a90c:	48 83 7d f8 00       	cmpq   $0x0,-0x8(%rbp)
    a911:	7e 1d                	jle    a930 <safe_mul_func_int64_t_s_s+0x34>
    a913:	48 83 7d f0 00       	cmpq   $0x0,-0x10(%rbp)
    a918:	7e 16                	jle    a930 <safe_mul_func_int64_t_s_s+0x34>
    a91a:	48 b8 ff ff ff ff ff 	movabs $0x7fffffffffffffff,%rax
    a921:	ff ff 7f 
    a924:	48 99                	cqto   
    a926:	48 f7 7d f0          	idivq  -0x10(%rbp)
    a92a:	48 39 45 f8          	cmp    %rax,-0x8(%rbp)
    a92e:	7f 7e                	jg     a9ae <safe_mul_func_int64_t_s_s+0xb2>
    a930:	48 83 7d f8 00       	cmpq   $0x0,-0x8(%rbp)
    a935:	7e 1d                	jle    a954 <safe_mul_func_int64_t_s_s+0x58>
    a937:	48 83 7d f0 00       	cmpq   $0x0,-0x10(%rbp)
    a93c:	7f 16                	jg     a954 <safe_mul_func_int64_t_s_s+0x58>
    a93e:	48 b8 00 00 00 00 00 	movabs $0x8000000000000000,%rax
    a945:	00 00 80 
    a948:	48 99                	cqto   
    a94a:	48 f7 7d f8          	idivq  -0x8(%rbp)
    a94e:	48 39 45 f0          	cmp    %rax,-0x10(%rbp)
    a952:	7c 5a                	jl     a9ae <safe_mul_func_int64_t_s_s+0xb2>
    a954:	48 83 7d f8 00       	cmpq   $0x0,-0x8(%rbp)
    a959:	7f 1d                	jg     a978 <safe_mul_func_int64_t_s_s+0x7c>
    a95b:	48 83 7d f0 00       	cmpq   $0x0,-0x10(%rbp)
    a960:	7e 16                	jle    a978 <safe_mul_func_int64_t_s_s+0x7c>
    a962:	48 b8 00 00 00 00 00 	movabs $0x8000000000000000,%rax
    a969:	00 00 80 
    a96c:	48 99                	cqto   
    a96e:	48 f7 7d f0          	idivq  -0x10(%rbp)
    a972:	48 39 45 f8          	cmp    %rax,-0x8(%rbp)
    a976:	7c 36                	jl     a9ae <safe_mul_func_int64_t_s_s+0xb2>
    a978:	48 83 7d f8 00       	cmpq   $0x0,-0x8(%rbp)
    a97d:	7f 24                	jg     a9a3 <safe_mul_func_int64_t_s_s+0xa7>
    a97f:	48 83 7d f0 00       	cmpq   $0x0,-0x10(%rbp)
    a984:	7f 1d                	jg     a9a3 <safe_mul_func_int64_t_s_s+0xa7>
    a986:	48 83 7d f8 00       	cmpq   $0x0,-0x8(%rbp)
    a98b:	74 16                	je     a9a3 <safe_mul_func_int64_t_s_s+0xa7>
    a98d:	48 b8 ff ff ff ff ff 	movabs $0x7fffffffffffffff,%rax
    a994:	ff ff 7f 
    a997:	48 99                	cqto   
    a999:	48 f7 7d f8          	idivq  -0x8(%rbp)
    a99d:	48 39 45 f0          	cmp    %rax,-0x10(%rbp)
    a9a1:	7c 0b                	jl     a9ae <safe_mul_func_int64_t_s_s+0xb2>
    a9a3:	48 8b 45 f8          	mov    -0x8(%rbp),%rax
    a9a7:	48 0f af 45 f0       	imul   -0x10(%rbp),%rax
    a9ac:	eb 04                	jmp    a9b2 <safe_mul_func_int64_t_s_s+0xb6>
    a9ae:	48 8b 45 f8          	mov    -0x8(%rbp),%rax
    a9b2:	5d                   	pop    %rbp
    a9b3:	c3                   	retq   

000000000000a9b4 <safe_mod_func_int64_t_s_s>:
    a9b4:	f3 0f 1e fa          	endbr64 
    a9b8:	55                   	push   %rbp
    a9b9:	48 89 e5             	mov    %rsp,%rbp
    a9bc:	48 89 7d f8          	mov    %rdi,-0x8(%rbp)
    a9c0:	48 89 75 f0          	mov    %rsi,-0x10(%rbp)
    a9c4:	48 83 7d f0 00       	cmpq   $0x0,-0x10(%rbp)
    a9c9:	74 26                	je     a9f1 <safe_mod_func_int64_t_s_s+0x3d>
    a9cb:	48 b8 00 00 00 00 00 	movabs $0x8000000000000000,%rax
    a9d2:	00 00 80 
    a9d5:	48 39 45 f8          	cmp    %rax,-0x8(%rbp)
    a9d9:	75 07                	jne    a9e2 <safe_mod_func_int64_t_s_s+0x2e>
    a9db:	48 83 7d f0 ff       	cmpq   $0xffffffffffffffff,-0x10(%rbp)
    a9e0:	74 0f                	je     a9f1 <safe_mod_func_int64_t_s_s+0x3d>
    a9e2:	48 8b 45 f8          	mov    -0x8(%rbp),%rax
    a9e6:	48 99                	cqto   
    a9e8:	48 f7 7d f0          	idivq  -0x10(%rbp)
    a9ec:	48 89 d0             	mov    %rdx,%rax
    a9ef:	eb 04                	jmp    a9f5 <safe_mod_func_int64_t_s_s+0x41>
    a9f1:	48 8b 45 f8          	mov    -0x8(%rbp),%rax
    a9f5:	5d                   	pop    %rbp
    a9f6:	c3                   	retq   

000000000000a9f7 <safe_div_func_int64_t_s_s>:
    a9f7:	f3 0f 1e fa          	endbr64 
    a9fb:	55                   	push   %rbp
    a9fc:	48 89 e5             	mov    %rsp,%rbp
    a9ff:	48 89 7d f8          	mov    %rdi,-0x8(%rbp)
    aa03:	48 89 75 f0          	mov    %rsi,-0x10(%rbp)
    aa07:	48 83 7d f0 00       	cmpq   $0x0,-0x10(%rbp)
    aa0c:	74 23                	je     aa31 <safe_div_func_int64_t_s_s+0x3a>
    aa0e:	48 b8 00 00 00 00 00 	movabs $0x8000000000000000,%rax
    aa15:	00 00 80 
    aa18:	48 39 45 f8          	cmp    %rax,-0x8(%rbp)
    aa1c:	75 07                	jne    aa25 <safe_div_func_int64_t_s_s+0x2e>
    aa1e:	48 83 7d f0 ff       	cmpq   $0xffffffffffffffff,-0x10(%rbp)
    aa23:	74 0c                	je     aa31 <safe_div_func_int64_t_s_s+0x3a>
    aa25:	48 8b 45 f8          	mov    -0x8(%rbp),%rax
    aa29:	48 99                	cqto   
    aa2b:	48 f7 7d f0          	idivq  -0x10(%rbp)
    aa2f:	eb 04                	jmp    aa35 <safe_div_func_int64_t_s_s+0x3e>
    aa31:	48 8b 45 f8          	mov    -0x8(%rbp),%rax
    aa35:	5d                   	pop    %rbp
    aa36:	c3                   	retq   

000000000000aa37 <safe_lshift_func_int64_t_s_s>:
    aa37:	f3 0f 1e fa          	endbr64 
    aa3b:	55                   	push   %rbp
    aa3c:	48 89 e5             	mov    %rsp,%rbp
    aa3f:	48 89 7d f8          	mov    %rdi,-0x8(%rbp)
    aa43:	89 75 f4             	mov    %esi,-0xc(%rbp)
    aa46:	48 83 7d f8 00       	cmpq   $0x0,-0x8(%rbp)
    aa4b:	78 38                	js     aa85 <safe_lshift_func_int64_t_s_s+0x4e>
    aa4d:	83 7d f4 00          	cmpl   $0x0,-0xc(%rbp)
    aa51:	78 32                	js     aa85 <safe_lshift_func_int64_t_s_s+0x4e>
    aa53:	83 7d f4 1f          	cmpl   $0x1f,-0xc(%rbp)
    aa57:	7f 2c                	jg     aa85 <safe_lshift_func_int64_t_s_s+0x4e>
    aa59:	8b 45 f4             	mov    -0xc(%rbp),%eax
    aa5c:	48 ba ff ff ff ff ff 	movabs $0x7fffffffffffffff,%rdx
    aa63:	ff ff 7f 
    aa66:	89 c1                	mov    %eax,%ecx
    aa68:	48 d3 fa             	sar    %cl,%rdx
    aa6b:	48 89 d0             	mov    %rdx,%rax
    aa6e:	48 39 45 f8          	cmp    %rax,-0x8(%rbp)
    aa72:	7f 11                	jg     aa85 <safe_lshift_func_int64_t_s_s+0x4e>
    aa74:	8b 45 f4             	mov    -0xc(%rbp),%eax
    aa77:	48 8b 55 f8          	mov    -0x8(%rbp),%rdx
    aa7b:	89 c1                	mov    %eax,%ecx
    aa7d:	48 d3 e2             	shl    %cl,%rdx
    aa80:	48 89 d0             	mov    %rdx,%rax
    aa83:	eb 04                	jmp    aa89 <safe_lshift_func_int64_t_s_s+0x52>
    aa85:	48 8b 45 f8          	mov    -0x8(%rbp),%rax
    aa89:	5d                   	pop    %rbp
    aa8a:	c3                   	retq   

000000000000aa8b <safe_lshift_func_int64_t_s_u>:
    aa8b:	f3 0f 1e fa          	endbr64 
    aa8f:	55                   	push   %rbp
    aa90:	48 89 e5             	mov    %rsp,%rbp
    aa93:	48 89 7d f8          	mov    %rdi,-0x8(%rbp)
    aa97:	89 75 f4             	mov    %esi,-0xc(%rbp)
    aa9a:	48 83 7d f8 00       	cmpq   $0x0,-0x8(%rbp)
    aa9f:	78 32                	js     aad3 <safe_lshift_func_int64_t_s_u+0x48>
    aaa1:	83 7d f4 1f          	cmpl   $0x1f,-0xc(%rbp)
    aaa5:	77 2c                	ja     aad3 <safe_lshift_func_int64_t_s_u+0x48>
    aaa7:	8b 45 f4             	mov    -0xc(%rbp),%eax
    aaaa:	48 ba ff ff ff ff ff 	movabs $0x7fffffffffffffff,%rdx
    aab1:	ff ff 7f 
    aab4:	89 c1                	mov    %eax,%ecx
    aab6:	48 d3 fa             	sar    %cl,%rdx
    aab9:	48 89 d0             	mov    %rdx,%rax
    aabc:	48 39 45 f8          	cmp    %rax,-0x8(%rbp)
    aac0:	7f 11                	jg     aad3 <safe_lshift_func_int64_t_s_u+0x48>
    aac2:	8b 45 f4             	mov    -0xc(%rbp),%eax
    aac5:	48 8b 55 f8          	mov    -0x8(%rbp),%rdx
    aac9:	89 c1                	mov    %eax,%ecx
    aacb:	48 d3 e2             	shl    %cl,%rdx
    aace:	48 89 d0             	mov    %rdx,%rax
    aad1:	eb 04                	jmp    aad7 <safe_lshift_func_int64_t_s_u+0x4c>
    aad3:	48 8b 45 f8          	mov    -0x8(%rbp),%rax
    aad7:	5d                   	pop    %rbp
    aad8:	c3                   	retq   

000000000000aad9 <safe_rshift_func_int64_t_s_s>:
    aad9:	f3 0f 1e fa          	endbr64 
    aadd:	55                   	push   %rbp
    aade:	48 89 e5             	mov    %rsp,%rbp
    aae1:	48 89 7d f8          	mov    %rdi,-0x8(%rbp)
    aae5:	89 75 f4             	mov    %esi,-0xc(%rbp)
    aae8:	48 83 7d f8 00       	cmpq   $0x0,-0x8(%rbp)
    aaed:	78 1d                	js     ab0c <safe_rshift_func_int64_t_s_s+0x33>
    aaef:	83 7d f4 00          	cmpl   $0x0,-0xc(%rbp)
    aaf3:	78 17                	js     ab0c <safe_rshift_func_int64_t_s_s+0x33>
    aaf5:	83 7d f4 1f          	cmpl   $0x1f,-0xc(%rbp)
    aaf9:	7f 11                	jg     ab0c <safe_rshift_func_int64_t_s_s+0x33>
    aafb:	8b 45 f4             	mov    -0xc(%rbp),%eax
    aafe:	48 8b 55 f8          	mov    -0x8(%rbp),%rdx
    ab02:	89 c1                	mov    %eax,%ecx
    ab04:	48 d3 fa             	sar    %cl,%rdx
    ab07:	48 89 d0             	mov    %rdx,%rax
    ab0a:	eb 04                	jmp    ab10 <safe_rshift_func_int64_t_s_s+0x37>
    ab0c:	48 8b 45 f8          	mov    -0x8(%rbp),%rax
    ab10:	5d                   	pop    %rbp
    ab11:	c3                   	retq   

000000000000ab12 <safe_rshift_func_int64_t_s_u>:
    ab12:	f3 0f 1e fa          	endbr64 
    ab16:	55                   	push   %rbp
    ab17:	48 89 e5             	mov    %rsp,%rbp
    ab1a:	48 89 7d f8          	mov    %rdi,-0x8(%rbp)
    ab1e:	89 75 f4             	mov    %esi,-0xc(%rbp)
    ab21:	48 83 7d f8 00       	cmpq   $0x0,-0x8(%rbp)
    ab26:	78 17                	js     ab3f <safe_rshift_func_int64_t_s_u+0x2d>
    ab28:	83 7d f4 1f          	cmpl   $0x1f,-0xc(%rbp)
    ab2c:	77 11                	ja     ab3f <safe_rshift_func_int64_t_s_u+0x2d>
    ab2e:	8b 45 f4             	mov    -0xc(%rbp),%eax
    ab31:	48 8b 55 f8          	mov    -0x8(%rbp),%rdx
    ab35:	89 c1                	mov    %eax,%ecx
    ab37:	48 d3 fa             	sar    %cl,%rdx
    ab3a:	48 89 d0             	mov    %rdx,%rax
    ab3d:	eb 04                	jmp    ab43 <safe_rshift_func_int64_t_s_u+0x31>
    ab3f:	48 8b 45 f8          	mov    -0x8(%rbp),%rax
    ab43:	5d                   	pop    %rbp
    ab44:	c3                   	retq   

000000000000ab45 <safe_unary_minus_func_uint8_t_u>:
    ab45:	f3 0f 1e fa          	endbr64 
    ab49:	55                   	push   %rbp
    ab4a:	48 89 e5             	mov    %rsp,%rbp
    ab4d:	89 f8                	mov    %edi,%eax
    ab4f:	88 45 fc             	mov    %al,-0x4(%rbp)
    ab52:	0f b6 45 fc          	movzbl -0x4(%rbp),%eax
    ab56:	f7 d8                	neg    %eax
    ab58:	5d                   	pop    %rbp
    ab59:	c3                   	retq   

000000000000ab5a <safe_add_func_uint8_t_u_u>:
    ab5a:	f3 0f 1e fa          	endbr64 
    ab5e:	55                   	push   %rbp
    ab5f:	48 89 e5             	mov    %rsp,%rbp
    ab62:	89 fa                	mov    %edi,%edx
    ab64:	89 f0                	mov    %esi,%eax
    ab66:	88 55 fc             	mov    %dl,-0x4(%rbp)
    ab69:	88 45 f8             	mov    %al,-0x8(%rbp)
    ab6c:	0f b6 55 fc          	movzbl -0x4(%rbp),%edx
    ab70:	0f b6 45 f8          	movzbl -0x8(%rbp),%eax
    ab74:	01 d0                	add    %edx,%eax
    ab76:	5d                   	pop    %rbp
    ab77:	c3                   	retq   

000000000000ab78 <safe_sub_func_uint8_t_u_u>:
    ab78:	f3 0f 1e fa          	endbr64 
    ab7c:	55                   	push   %rbp
    ab7d:	48 89 e5             	mov    %rsp,%rbp
    ab80:	89 fa                	mov    %edi,%edx
    ab82:	89 f0                	mov    %esi,%eax
    ab84:	88 55 fc             	mov    %dl,-0x4(%rbp)
    ab87:	88 45 f8             	mov    %al,-0x8(%rbp)
    ab8a:	0f b6 45 fc          	movzbl -0x4(%rbp),%eax
    ab8e:	2a 45 f8             	sub    -0x8(%rbp),%al
    ab91:	5d                   	pop    %rbp
    ab92:	c3                   	retq   

000000000000ab93 <safe_mul_func_uint8_t_u_u>:
    ab93:	f3 0f 1e fa          	endbr64 
    ab97:	55                   	push   %rbp
    ab98:	48 89 e5             	mov    %rsp,%rbp
    ab9b:	89 fa                	mov    %edi,%edx
    ab9d:	89 f0                	mov    %esi,%eax
    ab9f:	88 55 fc             	mov    %dl,-0x4(%rbp)
    aba2:	88 45 f8             	mov    %al,-0x8(%rbp)
    aba5:	0f b6 45 fc          	movzbl -0x4(%rbp),%eax
    aba9:	f6 65 f8             	mulb   -0x8(%rbp)
    abac:	5d                   	pop    %rbp
    abad:	c3                   	retq   

000000000000abae <safe_mod_func_uint8_t_u_u>:
    abae:	f3 0f 1e fa          	endbr64 
    abb2:	55                   	push   %rbp
    abb3:	48 89 e5             	mov    %rsp,%rbp
    abb6:	89 fa                	mov    %edi,%edx
    abb8:	89 f0                	mov    %esi,%eax
    abba:	88 55 fc             	mov    %dl,-0x4(%rbp)
    abbd:	88 45 f8             	mov    %al,-0x8(%rbp)
    abc0:	80 7d f8 00          	cmpb   $0x0,-0x8(%rbp)
    abc4:	74 0f                	je     abd5 <safe_mod_func_uint8_t_u_u+0x27>
    abc6:	0f b6 45 fc          	movzbl -0x4(%rbp),%eax
    abca:	0f b6 c0             	movzbl %al,%eax
    abcd:	f6 75 f8             	divb   -0x8(%rbp)
    abd0:	0f b6 c4             	movzbl %ah,%eax
    abd3:	eb 04                	jmp    abd9 <safe_mod_func_uint8_t_u_u+0x2b>
    abd5:	0f b6 45 fc          	movzbl -0x4(%rbp),%eax
    abd9:	5d                   	pop    %rbp
    abda:	c3                   	retq   

000000000000abdb <safe_div_func_uint8_t_u_u>:
    abdb:	f3 0f 1e fa          	endbr64 
    abdf:	55                   	push   %rbp
    abe0:	48 89 e5             	mov    %rsp,%rbp
    abe3:	89 fa                	mov    %edi,%edx
    abe5:	89 f0                	mov    %esi,%eax
    abe7:	88 55 fc             	mov    %dl,-0x4(%rbp)
    abea:	88 45 f8             	mov    %al,-0x8(%rbp)
    abed:	80 7d f8 00          	cmpb   $0x0,-0x8(%rbp)
    abf1:	74 0c                	je     abff <safe_div_func_uint8_t_u_u+0x24>
    abf3:	0f b6 45 fc          	movzbl -0x4(%rbp),%eax
    abf7:	0f b6 c0             	movzbl %al,%eax
    abfa:	f6 75 f8             	divb   -0x8(%rbp)
    abfd:	eb 04                	jmp    ac03 <safe_div_func_uint8_t_u_u+0x28>
    abff:	0f b6 45 fc          	movzbl -0x4(%rbp),%eax
    ac03:	5d                   	pop    %rbp
    ac04:	c3                   	retq   

000000000000ac05 <safe_lshift_func_uint8_t_u_s>:
    ac05:	f3 0f 1e fa          	endbr64 
    ac09:	55                   	push   %rbp
    ac0a:	48 89 e5             	mov    %rsp,%rbp
    ac0d:	89 f8                	mov    %edi,%eax
    ac0f:	89 75 f8             	mov    %esi,-0x8(%rbp)
    ac12:	88 45 fc             	mov    %al,-0x4(%rbp)
    ac15:	83 7d f8 00          	cmpl   $0x0,-0x8(%rbp)
    ac19:	78 2b                	js     ac46 <safe_lshift_func_uint8_t_u_s+0x41>
    ac1b:	83 7d f8 1f          	cmpl   $0x1f,-0x8(%rbp)
    ac1f:	7f 25                	jg     ac46 <safe_lshift_func_uint8_t_u_s+0x41>
    ac21:	0f b6 55 fc          	movzbl -0x4(%rbp),%edx
    ac25:	8b 45 f8             	mov    -0x8(%rbp),%eax
    ac28:	be ff 00 00 00       	mov    $0xff,%esi
    ac2d:	89 c1                	mov    %eax,%ecx
    ac2f:	d3 fe                	sar    %cl,%esi
    ac31:	89 f0                	mov    %esi,%eax
    ac33:	39 c2                	cmp    %eax,%edx
    ac35:	7f 0f                	jg     ac46 <safe_lshift_func_uint8_t_u_s+0x41>
    ac37:	0f b6 55 fc          	movzbl -0x4(%rbp),%edx
    ac3b:	8b 45 f8             	mov    -0x8(%rbp),%eax
    ac3e:	89 c1                	mov    %eax,%ecx
    ac40:	d3 e2                	shl    %cl,%edx
    ac42:	89 d0                	mov    %edx,%eax
    ac44:	eb 04                	jmp    ac4a <safe_lshift_func_uint8_t_u_s+0x45>
    ac46:	0f b6 45 fc          	movzbl -0x4(%rbp),%eax
    ac4a:	5d                   	pop    %rbp
    ac4b:	c3                   	retq   

000000000000ac4c <safe_lshift_func_uint8_t_u_u>:
    ac4c:	f3 0f 1e fa          	endbr64 
    ac50:	55                   	push   %rbp
    ac51:	48 89 e5             	mov    %rsp,%rbp
    ac54:	89 f8                	mov    %edi,%eax
    ac56:	89 75 f8             	mov    %esi,-0x8(%rbp)
    ac59:	88 45 fc             	mov    %al,-0x4(%rbp)
    ac5c:	83 7d f8 1f          	cmpl   $0x1f,-0x8(%rbp)
    ac60:	77 25                	ja     ac87 <safe_lshift_func_uint8_t_u_u+0x3b>
    ac62:	0f b6 55 fc          	movzbl -0x4(%rbp),%edx
    ac66:	8b 45 f8             	mov    -0x8(%rbp),%eax
    ac69:	be ff 00 00 00       	mov    $0xff,%esi
    ac6e:	89 c1                	mov    %eax,%ecx
    ac70:	d3 fe                	sar    %cl,%esi
    ac72:	89 f0                	mov    %esi,%eax
    ac74:	39 c2                	cmp    %eax,%edx
    ac76:	7f 0f                	jg     ac87 <safe_lshift_func_uint8_t_u_u+0x3b>
    ac78:	0f b6 55 fc          	movzbl -0x4(%rbp),%edx
    ac7c:	8b 45 f8             	mov    -0x8(%rbp),%eax
    ac7f:	89 c1                	mov    %eax,%ecx
    ac81:	d3 e2                	shl    %cl,%edx
    ac83:	89 d0                	mov    %edx,%eax
    ac85:	eb 04                	jmp    ac8b <safe_lshift_func_uint8_t_u_u+0x3f>
    ac87:	0f b6 45 fc          	movzbl -0x4(%rbp),%eax
    ac8b:	5d                   	pop    %rbp
    ac8c:	c3                   	retq   

000000000000ac8d <safe_rshift_func_uint8_t_u_s>:
    ac8d:	f3 0f 1e fa          	endbr64 
    ac91:	55                   	push   %rbp
    ac92:	48 89 e5             	mov    %rsp,%rbp
    ac95:	89 f8                	mov    %edi,%eax
    ac97:	89 75 f8             	mov    %esi,-0x8(%rbp)
    ac9a:	88 45 fc             	mov    %al,-0x4(%rbp)
    ac9d:	83 7d f8 00          	cmpl   $0x0,-0x8(%rbp)
    aca1:	78 15                	js     acb8 <safe_rshift_func_uint8_t_u_s+0x2b>
    aca3:	83 7d f8 1f          	cmpl   $0x1f,-0x8(%rbp)
    aca7:	7f 0f                	jg     acb8 <safe_rshift_func_uint8_t_u_s+0x2b>
    aca9:	0f b6 55 fc          	movzbl -0x4(%rbp),%edx
    acad:	8b 45 f8             	mov    -0x8(%rbp),%eax
    acb0:	89 c1                	mov    %eax,%ecx
    acb2:	d3 fa                	sar    %cl,%edx
    acb4:	89 d0                	mov    %edx,%eax
    acb6:	eb 04                	jmp    acbc <safe_rshift_func_uint8_t_u_s+0x2f>
    acb8:	0f b6 45 fc          	movzbl -0x4(%rbp),%eax
    acbc:	5d                   	pop    %rbp
    acbd:	c3                   	retq   

000000000000acbe <safe_rshift_func_uint8_t_u_u>:
    acbe:	f3 0f 1e fa          	endbr64 
    acc2:	55                   	push   %rbp
    acc3:	48 89 e5             	mov    %rsp,%rbp
    acc6:	89 f8                	mov    %edi,%eax
    acc8:	89 75 f8             	mov    %esi,-0x8(%rbp)
    accb:	88 45 fc             	mov    %al,-0x4(%rbp)
    acce:	83 7d f8 1f          	cmpl   $0x1f,-0x8(%rbp)
    acd2:	77 0f                	ja     ace3 <safe_rshift_func_uint8_t_u_u+0x25>
    acd4:	0f b6 55 fc          	movzbl -0x4(%rbp),%edx
    acd8:	8b 45 f8             	mov    -0x8(%rbp),%eax
    acdb:	89 c1                	mov    %eax,%ecx
    acdd:	d3 fa                	sar    %cl,%edx
    acdf:	89 d0                	mov    %edx,%eax
    ace1:	eb 04                	jmp    ace7 <safe_rshift_func_uint8_t_u_u+0x29>
    ace3:	0f b6 45 fc          	movzbl -0x4(%rbp),%eax
    ace7:	5d                   	pop    %rbp
    ace8:	c3                   	retq   

000000000000ace9 <safe_unary_minus_func_uint16_t_u>:
    ace9:	f3 0f 1e fa          	endbr64 
    aced:	55                   	push   %rbp
    acee:	48 89 e5             	mov    %rsp,%rbp
    acf1:	89 f8                	mov    %edi,%eax
    acf3:	66 89 45 fc          	mov    %ax,-0x4(%rbp)
    acf7:	0f b7 45 fc          	movzwl -0x4(%rbp),%eax
    acfb:	f7 d8                	neg    %eax
    acfd:	5d                   	pop    %rbp
    acfe:	c3                   	retq   

000000000000acff <safe_add_func_uint16_t_u_u>:
    acff:	f3 0f 1e fa          	endbr64 
    ad03:	55                   	push   %rbp
    ad04:	48 89 e5             	mov    %rsp,%rbp
    ad07:	89 fa                	mov    %edi,%edx
    ad09:	89 f0                	mov    %esi,%eax
    ad0b:	66 89 55 fc          	mov    %dx,-0x4(%rbp)
    ad0f:	66 89 45 f8          	mov    %ax,-0x8(%rbp)
    ad13:	0f b7 55 fc          	movzwl -0x4(%rbp),%edx
    ad17:	0f b7 45 f8          	movzwl -0x8(%rbp),%eax
    ad1b:	01 d0                	add    %edx,%eax
    ad1d:	5d                   	pop    %rbp
    ad1e:	c3                   	retq   

000000000000ad1f <safe_sub_func_uint16_t_u_u>:
    ad1f:	f3 0f 1e fa          	endbr64 
    ad23:	55                   	push   %rbp
    ad24:	48 89 e5             	mov    %rsp,%rbp
    ad27:	89 fa                	mov    %edi,%edx
    ad29:	89 f0                	mov    %esi,%eax
    ad2b:	66 89 55 fc          	mov    %dx,-0x4(%rbp)
    ad2f:	66 89 45 f8          	mov    %ax,-0x8(%rbp)
    ad33:	0f b7 45 fc          	movzwl -0x4(%rbp),%eax
    ad37:	66 2b 45 f8          	sub    -0x8(%rbp),%ax
    ad3b:	5d                   	pop    %rbp
    ad3c:	c3                   	retq   

000000000000ad3d <safe_mul_func_uint16_t_u_u>:
    ad3d:	f3 0f 1e fa          	endbr64 
    ad41:	55                   	push   %rbp
    ad42:	48 89 e5             	mov    %rsp,%rbp
    ad45:	89 fa                	mov    %edi,%edx
    ad47:	89 f0                	mov    %esi,%eax
    ad49:	66 89 55 fc          	mov    %dx,-0x4(%rbp)
    ad4d:	66 89 45 f8          	mov    %ax,-0x8(%rbp)
    ad51:	0f b7 45 fc          	movzwl -0x4(%rbp),%eax
    ad55:	66 0f af 45 f8       	imul   -0x8(%rbp),%ax
    ad5a:	5d                   	pop    %rbp
    ad5b:	c3                   	retq   

000000000000ad5c <safe_mod_func_uint16_t_u_u>:
    ad5c:	f3 0f 1e fa          	endbr64 
    ad60:	55                   	push   %rbp
    ad61:	48 89 e5             	mov    %rsp,%rbp
    ad64:	89 fa                	mov    %edi,%edx
    ad66:	89 f0                	mov    %esi,%eax
    ad68:	66 89 55 fc          	mov    %dx,-0x4(%rbp)
    ad6c:	66 89 45 f8          	mov    %ax,-0x8(%rbp)
    ad70:	66 83 7d f8 00       	cmpw   $0x0,-0x8(%rbp)
    ad75:	74 11                	je     ad88 <safe_mod_func_uint16_t_u_u+0x2c>
    ad77:	0f b7 45 fc          	movzwl -0x4(%rbp),%eax
    ad7b:	ba 00 00 00 00       	mov    $0x0,%edx
    ad80:	66 f7 75 f8          	divw   -0x8(%rbp)
    ad84:	89 d0                	mov    %edx,%eax
    ad86:	eb 04                	jmp    ad8c <safe_mod_func_uint16_t_u_u+0x30>
    ad88:	0f b7 45 fc          	movzwl -0x4(%rbp),%eax
    ad8c:	5d                   	pop    %rbp
    ad8d:	c3                   	retq   

000000000000ad8e <safe_div_func_uint16_t_u_u>:
    ad8e:	f3 0f 1e fa          	endbr64 
    ad92:	55                   	push   %rbp
    ad93:	48 89 e5             	mov    %rsp,%rbp
    ad96:	89 fa                	mov    %edi,%edx
    ad98:	89 f0                	mov    %esi,%eax
    ad9a:	66 89 55 fc          	mov    %dx,-0x4(%rbp)
    ad9e:	66 89 45 f8          	mov    %ax,-0x8(%rbp)
    ada2:	66 83 7d f8 00       	cmpw   $0x0,-0x8(%rbp)
    ada7:	74 0f                	je     adb8 <safe_div_func_uint16_t_u_u+0x2a>
    ada9:	0f b7 45 fc          	movzwl -0x4(%rbp),%eax
    adad:	ba 00 00 00 00       	mov    $0x0,%edx
    adb2:	66 f7 75 f8          	divw   -0x8(%rbp)
    adb6:	eb 04                	jmp    adbc <safe_div_func_uint16_t_u_u+0x2e>
    adb8:	0f b7 45 fc          	movzwl -0x4(%rbp),%eax
    adbc:	5d                   	pop    %rbp
    adbd:	c3                   	retq   

000000000000adbe <safe_lshift_func_uint16_t_u_s>:
    adbe:	f3 0f 1e fa          	endbr64 
    adc2:	55                   	push   %rbp
    adc3:	48 89 e5             	mov    %rsp,%rbp
    adc6:	89 f8                	mov    %edi,%eax
    adc8:	89 75 f8             	mov    %esi,-0x8(%rbp)
    adcb:	66 89 45 fc          	mov    %ax,-0x4(%rbp)
    adcf:	83 7d f8 00          	cmpl   $0x0,-0x8(%rbp)
    add3:	78 2b                	js     ae00 <safe_lshift_func_uint16_t_u_s+0x42>
    add5:	83 7d f8 1f          	cmpl   $0x1f,-0x8(%rbp)
    add9:	7f 25                	jg     ae00 <safe_lshift_func_uint16_t_u_s+0x42>
    addb:	0f b7 55 fc          	movzwl -0x4(%rbp),%edx
    addf:	8b 45 f8             	mov    -0x8(%rbp),%eax
    ade2:	be ff ff 00 00       	mov    $0xffff,%esi
    ade7:	89 c1                	mov    %eax,%ecx
    ade9:	d3 fe                	sar    %cl,%esi
    adeb:	89 f0                	mov    %esi,%eax
    aded:	39 c2                	cmp    %eax,%edx
    adef:	7f 0f                	jg     ae00 <safe_lshift_func_uint16_t_u_s+0x42>
    adf1:	0f b7 55 fc          	movzwl -0x4(%rbp),%edx
    adf5:	8b 45 f8             	mov    -0x8(%rbp),%eax
    adf8:	89 c1                	mov    %eax,%ecx
    adfa:	d3 e2                	shl    %cl,%edx
    adfc:	89 d0                	mov    %edx,%eax
    adfe:	eb 04                	jmp    ae04 <safe_lshift_func_uint16_t_u_s+0x46>
    ae00:	0f b7 45 fc          	movzwl -0x4(%rbp),%eax
    ae04:	5d                   	pop    %rbp
    ae05:	c3                   	retq   

000000000000ae06 <safe_lshift_func_uint16_t_u_u>:
    ae06:	f3 0f 1e fa          	endbr64 
    ae0a:	55                   	push   %rbp
    ae0b:	48 89 e5             	mov    %rsp,%rbp
    ae0e:	89 f8                	mov    %edi,%eax
    ae10:	89 75 f8             	mov    %esi,-0x8(%rbp)
    ae13:	66 89 45 fc          	mov    %ax,-0x4(%rbp)
    ae17:	83 7d f8 1f          	cmpl   $0x1f,-0x8(%rbp)
    ae1b:	77 25                	ja     ae42 <safe_lshift_func_uint16_t_u_u+0x3c>
    ae1d:	0f b7 55 fc          	movzwl -0x4(%rbp),%edx
    ae21:	8b 45 f8             	mov    -0x8(%rbp),%eax
    ae24:	be ff ff 00 00       	mov    $0xffff,%esi
    ae29:	89 c1                	mov    %eax,%ecx
    ae2b:	d3 fe                	sar    %cl,%esi
    ae2d:	89 f0                	mov    %esi,%eax
    ae2f:	39 c2                	cmp    %eax,%edx
    ae31:	7f 0f                	jg     ae42 <safe_lshift_func_uint16_t_u_u+0x3c>
    ae33:	0f b7 55 fc          	movzwl -0x4(%rbp),%edx
    ae37:	8b 45 f8             	mov    -0x8(%rbp),%eax
    ae3a:	89 c1                	mov    %eax,%ecx
    ae3c:	d3 e2                	shl    %cl,%edx
    ae3e:	89 d0                	mov    %edx,%eax
    ae40:	eb 04                	jmp    ae46 <safe_lshift_func_uint16_t_u_u+0x40>
    ae42:	0f b7 45 fc          	movzwl -0x4(%rbp),%eax
    ae46:	5d                   	pop    %rbp
    ae47:	c3                   	retq   

000000000000ae48 <safe_rshift_func_uint16_t_u_s>:
    ae48:	f3 0f 1e fa          	endbr64 
    ae4c:	55                   	push   %rbp
    ae4d:	48 89 e5             	mov    %rsp,%rbp
    ae50:	89 f8                	mov    %edi,%eax
    ae52:	89 75 f8             	mov    %esi,-0x8(%rbp)
    ae55:	66 89 45 fc          	mov    %ax,-0x4(%rbp)
    ae59:	83 7d f8 00          	cmpl   $0x0,-0x8(%rbp)
    ae5d:	78 15                	js     ae74 <safe_rshift_func_uint16_t_u_s+0x2c>
    ae5f:	83 7d f8 1f          	cmpl   $0x1f,-0x8(%rbp)
    ae63:	7f 0f                	jg     ae74 <safe_rshift_func_uint16_t_u_s+0x2c>
    ae65:	0f b7 55 fc          	movzwl -0x4(%rbp),%edx
    ae69:	8b 45 f8             	mov    -0x8(%rbp),%eax
    ae6c:	89 c1                	mov    %eax,%ecx
    ae6e:	d3 fa                	sar    %cl,%edx
    ae70:	89 d0                	mov    %edx,%eax
    ae72:	eb 04                	jmp    ae78 <safe_rshift_func_uint16_t_u_s+0x30>
    ae74:	0f b7 45 fc          	movzwl -0x4(%rbp),%eax
    ae78:	5d                   	pop    %rbp
    ae79:	c3                   	retq   

000000000000ae7a <safe_rshift_func_uint16_t_u_u>:
    ae7a:	f3 0f 1e fa          	endbr64 
    ae7e:	55                   	push   %rbp
    ae7f:	48 89 e5             	mov    %rsp,%rbp
    ae82:	89 f8                	mov    %edi,%eax
    ae84:	89 75 f8             	mov    %esi,-0x8(%rbp)
    ae87:	66 89 45 fc          	mov    %ax,-0x4(%rbp)
    ae8b:	83 7d f8 1f          	cmpl   $0x1f,-0x8(%rbp)
    ae8f:	77 0f                	ja     aea0 <safe_rshift_func_uint16_t_u_u+0x26>
    ae91:	0f b7 55 fc          	movzwl -0x4(%rbp),%edx
    ae95:	8b 45 f8             	mov    -0x8(%rbp),%eax
    ae98:	89 c1                	mov    %eax,%ecx
    ae9a:	d3 fa                	sar    %cl,%edx
    ae9c:	89 d0                	mov    %edx,%eax
    ae9e:	eb 04                	jmp    aea4 <safe_rshift_func_uint16_t_u_u+0x2a>
    aea0:	0f b7 45 fc          	movzwl -0x4(%rbp),%eax
    aea4:	5d                   	pop    %rbp
    aea5:	c3                   	retq   

000000000000aea6 <safe_unary_minus_func_uint32_t_u>:
    aea6:	f3 0f 1e fa          	endbr64 
    aeaa:	55                   	push   %rbp
    aeab:	48 89 e5             	mov    %rsp,%rbp
    aeae:	89 7d fc             	mov    %edi,-0x4(%rbp)
    aeb1:	8b 45 fc             	mov    -0x4(%rbp),%eax
    aeb4:	f7 d8                	neg    %eax
    aeb6:	5d                   	pop    %rbp
    aeb7:	c3                   	retq   

000000000000aeb8 <safe_add_func_uint32_t_u_u>:
    aeb8:	f3 0f 1e fa          	endbr64 
    aebc:	55                   	push   %rbp
    aebd:	48 89 e5             	mov    %rsp,%rbp
    aec0:	89 7d fc             	mov    %edi,-0x4(%rbp)
    aec3:	89 75 f8             	mov    %esi,-0x8(%rbp)
    aec6:	8b 55 fc             	mov    -0x4(%rbp),%edx
    aec9:	8b 45 f8             	mov    -0x8(%rbp),%eax
    aecc:	01 d0                	add    %edx,%eax
    aece:	5d                   	pop    %rbp
    aecf:	c3                   	retq   

000000000000aed0 <safe_sub_func_uint32_t_u_u>:
    aed0:	f3 0f 1e fa          	endbr64 
    aed4:	55                   	push   %rbp
    aed5:	48 89 e5             	mov    %rsp,%rbp
    aed8:	89 7d fc             	mov    %edi,-0x4(%rbp)
    aedb:	89 75 f8             	mov    %esi,-0x8(%rbp)
    aede:	8b 45 fc             	mov    -0x4(%rbp),%eax
    aee1:	2b 45 f8             	sub    -0x8(%rbp),%eax
    aee4:	5d                   	pop    %rbp
    aee5:	c3                   	retq   

000000000000aee6 <safe_mul_func_uint32_t_u_u>:
    aee6:	f3 0f 1e fa          	endbr64 
    aeea:	55                   	push   %rbp
    aeeb:	48 89 e5             	mov    %rsp,%rbp
    aeee:	89 7d fc             	mov    %edi,-0x4(%rbp)
    aef1:	89 75 f8             	mov    %esi,-0x8(%rbp)
    aef4:	8b 45 fc             	mov    -0x4(%rbp),%eax
    aef7:	0f af 45 f8          	imul   -0x8(%rbp),%eax
    aefb:	5d                   	pop    %rbp
    aefc:	c3                   	retq   

000000000000aefd <safe_mod_func_uint32_t_u_u>:
    aefd:	f3 0f 1e fa          	endbr64 
    af01:	55                   	push   %rbp
    af02:	48 89 e5             	mov    %rsp,%rbp
    af05:	89 7d fc             	mov    %edi,-0x4(%rbp)
    af08:	89 75 f8             	mov    %esi,-0x8(%rbp)
    af0b:	83 7d f8 00          	cmpl   $0x0,-0x8(%rbp)
    af0f:	74 0f                	je     af20 <safe_mod_func_uint32_t_u_u+0x23>
    af11:	8b 45 fc             	mov    -0x4(%rbp),%eax
    af14:	ba 00 00 00 00       	mov    $0x0,%edx
    af19:	f7 75 f8             	divl   -0x8(%rbp)
    af1c:	89 d0                	mov    %edx,%eax
    af1e:	eb 03                	jmp    af23 <safe_mod_func_uint32_t_u_u+0x26>
    af20:	8b 45 fc             	mov    -0x4(%rbp),%eax
    af23:	5d                   	pop    %rbp
    af24:	c3                   	retq   

000000000000af25 <safe_div_func_uint32_t_u_u>:
    af25:	f3 0f 1e fa          	endbr64 
    af29:	55                   	push   %rbp
    af2a:	48 89 e5             	mov    %rsp,%rbp
    af2d:	89 7d fc             	mov    %edi,-0x4(%rbp)
    af30:	89 75 f8             	mov    %esi,-0x8(%rbp)
    af33:	83 7d f8 00          	cmpl   $0x0,-0x8(%rbp)
    af37:	74 0d                	je     af46 <safe_div_func_uint32_t_u_u+0x21>
    af39:	8b 45 fc             	mov    -0x4(%rbp),%eax
    af3c:	ba 00 00 00 00       	mov    $0x0,%edx
    af41:	f7 75 f8             	divl   -0x8(%rbp)
    af44:	eb 03                	jmp    af49 <safe_div_func_uint32_t_u_u+0x24>
    af46:	8b 45 fc             	mov    -0x4(%rbp),%eax
    af49:	5d                   	pop    %rbp
    af4a:	c3                   	retq   

000000000000af4b <safe_lshift_func_uint32_t_u_s>:
    af4b:	f3 0f 1e fa          	endbr64 
    af4f:	55                   	push   %rbp
    af50:	48 89 e5             	mov    %rsp,%rbp
    af53:	89 7d fc             	mov    %edi,-0x4(%rbp)
    af56:	89 75 f8             	mov    %esi,-0x8(%rbp)
    af59:	83 7d f8 00          	cmpl   $0x0,-0x8(%rbp)
    af5d:	78 27                	js     af86 <safe_lshift_func_uint32_t_u_s+0x3b>
    af5f:	83 7d f8 1f          	cmpl   $0x1f,-0x8(%rbp)
    af63:	7f 21                	jg     af86 <safe_lshift_func_uint32_t_u_s+0x3b>
    af65:	8b 45 f8             	mov    -0x8(%rbp),%eax
    af68:	ba ff ff ff ff       	mov    $0xffffffff,%edx
    af6d:	89 c1                	mov    %eax,%ecx
    af6f:	d3 ea                	shr    %cl,%edx
    af71:	89 d0                	mov    %edx,%eax
    af73:	39 45 fc             	cmp    %eax,-0x4(%rbp)
    af76:	77 0e                	ja     af86 <safe_lshift_func_uint32_t_u_s+0x3b>
    af78:	8b 45 f8             	mov    -0x8(%rbp),%eax
    af7b:	8b 55 fc             	mov    -0x4(%rbp),%edx
    af7e:	89 c1                	mov    %eax,%ecx
    af80:	d3 e2                	shl    %cl,%edx
    af82:	89 d0                	mov    %edx,%eax
    af84:	eb 03                	jmp    af89 <safe_lshift_func_uint32_t_u_s+0x3e>
    af86:	8b 45 fc             	mov    -0x4(%rbp),%eax
    af89:	5d                   	pop    %rbp
    af8a:	c3                   	retq   

000000000000af8b <safe_lshift_func_uint32_t_u_u>:
    af8b:	f3 0f 1e fa          	endbr64 
    af8f:	55                   	push   %rbp
    af90:	48 89 e5             	mov    %rsp,%rbp
    af93:	89 7d fc             	mov    %edi,-0x4(%rbp)
    af96:	89 75 f8             	mov    %esi,-0x8(%rbp)
    af99:	83 7d f8 1f          	cmpl   $0x1f,-0x8(%rbp)
    af9d:	77 21                	ja     afc0 <safe_lshift_func_uint32_t_u_u+0x35>
    af9f:	8b 45 f8             	mov    -0x8(%rbp),%eax
    afa2:	ba ff ff ff ff       	mov    $0xffffffff,%edx
    afa7:	89 c1                	mov    %eax,%ecx
    afa9:	d3 ea                	shr    %cl,%edx
    afab:	89 d0                	mov    %edx,%eax
    afad:	39 45 fc             	cmp    %eax,-0x4(%rbp)
    afb0:	77 0e                	ja     afc0 <safe_lshift_func_uint32_t_u_u+0x35>
    afb2:	8b 45 f8             	mov    -0x8(%rbp),%eax
    afb5:	8b 55 fc             	mov    -0x4(%rbp),%edx
    afb8:	89 c1                	mov    %eax,%ecx
    afba:	d3 e2                	shl    %cl,%edx
    afbc:	89 d0                	mov    %edx,%eax
    afbe:	eb 03                	jmp    afc3 <safe_lshift_func_uint32_t_u_u+0x38>
    afc0:	8b 45 fc             	mov    -0x4(%rbp),%eax
    afc3:	5d                   	pop    %rbp
    afc4:	c3                   	retq   

000000000000afc5 <safe_rshift_func_uint32_t_u_s>:
    afc5:	f3 0f 1e fa          	endbr64 
    afc9:	55                   	push   %rbp
    afca:	48 89 e5             	mov    %rsp,%rbp
    afcd:	89 7d fc             	mov    %edi,-0x4(%rbp)
    afd0:	89 75 f8             	mov    %esi,-0x8(%rbp)
    afd3:	83 7d f8 00          	cmpl   $0x0,-0x8(%rbp)
    afd7:	78 14                	js     afed <safe_rshift_func_uint32_t_u_s+0x28>
    afd9:	83 7d f8 1f          	cmpl   $0x1f,-0x8(%rbp)
    afdd:	7f 0e                	jg     afed <safe_rshift_func_uint32_t_u_s+0x28>
    afdf:	8b 45 f8             	mov    -0x8(%rbp),%eax
    afe2:	8b 55 fc             	mov    -0x4(%rbp),%edx
    afe5:	89 c1                	mov    %eax,%ecx
    afe7:	d3 ea                	shr    %cl,%edx
    afe9:	89 d0                	mov    %edx,%eax
    afeb:	eb 03                	jmp    aff0 <safe_rshift_func_uint32_t_u_s+0x2b>
    afed:	8b 45 fc             	mov    -0x4(%rbp),%eax
    aff0:	5d                   	pop    %rbp
    aff1:	c3                   	retq   

000000000000aff2 <safe_rshift_func_uint32_t_u_u>:
    aff2:	f3 0f 1e fa          	endbr64 
    aff6:	55                   	push   %rbp
    aff7:	48 89 e5             	mov    %rsp,%rbp
    affa:	89 7d fc             	mov    %edi,-0x4(%rbp)
    affd:	89 75 f8             	mov    %esi,-0x8(%rbp)
    b000:	83 7d f8 1f          	cmpl   $0x1f,-0x8(%rbp)
    b004:	77 0e                	ja     b014 <safe_rshift_func_uint32_t_u_u+0x22>
    b006:	8b 45 f8             	mov    -0x8(%rbp),%eax
    b009:	8b 55 fc             	mov    -0x4(%rbp),%edx
    b00c:	89 c1                	mov    %eax,%ecx
    b00e:	d3 ea                	shr    %cl,%edx
    b010:	89 d0                	mov    %edx,%eax
    b012:	eb 03                	jmp    b017 <safe_rshift_func_uint32_t_u_u+0x25>
    b014:	8b 45 fc             	mov    -0x4(%rbp),%eax
    b017:	5d                   	pop    %rbp
    b018:	c3                   	retq   

000000000000b019 <safe_unary_minus_func_uint64_t_u>:
    b019:	f3 0f 1e fa          	endbr64 
    b01d:	55                   	push   %rbp
    b01e:	48 89 e5             	mov    %rsp,%rbp
    b021:	48 89 7d f8          	mov    %rdi,-0x8(%rbp)
    b025:	48 8b 45 f8          	mov    -0x8(%rbp),%rax
    b029:	48 f7 d8             	neg    %rax
    b02c:	5d                   	pop    %rbp
    b02d:	c3                   	retq   

000000000000b02e <safe_add_func_uint64_t_u_u>:
    b02e:	f3 0f 1e fa          	endbr64 
    b032:	55                   	push   %rbp
    b033:	48 89 e5             	mov    %rsp,%rbp
    b036:	48 89 7d f8          	mov    %rdi,-0x8(%rbp)
    b03a:	48 89 75 f0          	mov    %rsi,-0x10(%rbp)
    b03e:	48 8b 55 f8          	mov    -0x8(%rbp),%rdx
    b042:	48 8b 45 f0          	mov    -0x10(%rbp),%rax
    b046:	48 01 d0             	add    %rdx,%rax
    b049:	5d                   	pop    %rbp
    b04a:	c3                   	retq   

000000000000b04b <safe_sub_func_uint64_t_u_u>:
    b04b:	f3 0f 1e fa          	endbr64 
    b04f:	55                   	push   %rbp
    b050:	48 89 e5             	mov    %rsp,%rbp
    b053:	48 89 7d f8          	mov    %rdi,-0x8(%rbp)
    b057:	48 89 75 f0          	mov    %rsi,-0x10(%rbp)
    b05b:	48 8b 45 f8          	mov    -0x8(%rbp),%rax
    b05f:	48 2b 45 f0          	sub    -0x10(%rbp),%rax
    b063:	5d                   	pop    %rbp
    b064:	c3                   	retq   

000000000000b065 <safe_mul_func_uint64_t_u_u>:
    b065:	f3 0f 1e fa          	endbr64 
    b069:	55                   	push   %rbp
    b06a:	48 89 e5             	mov    %rsp,%rbp
    b06d:	48 89 7d f8          	mov    %rdi,-0x8(%rbp)
    b071:	48 89 75 f0          	mov    %rsi,-0x10(%rbp)
    b075:	48 8b 45 f8          	mov    -0x8(%rbp),%rax
    b079:	48 0f af 45 f0       	imul   -0x10(%rbp),%rax
    b07e:	5d                   	pop    %rbp
    b07f:	c3                   	retq   

000000000000b080 <safe_mod_func_uint64_t_u_u>:
    b080:	f3 0f 1e fa          	endbr64 
    b084:	55                   	push   %rbp
    b085:	48 89 e5             	mov    %rsp,%rbp
    b088:	48 89 7d f8          	mov    %rdi,-0x8(%rbp)
    b08c:	48 89 75 f0          	mov    %rsi,-0x10(%rbp)
    b090:	48 83 7d f0 00       	cmpq   $0x0,-0x10(%rbp)
    b095:	74 12                	je     b0a9 <safe_mod_func_uint64_t_u_u+0x29>
    b097:	48 8b 45 f8          	mov    -0x8(%rbp),%rax
    b09b:	ba 00 00 00 00       	mov    $0x0,%edx
    b0a0:	48 f7 75 f0          	divq   -0x10(%rbp)
    b0a4:	48 89 d0             	mov    %rdx,%rax
    b0a7:	eb 04                	jmp    b0ad <safe_mod_func_uint64_t_u_u+0x2d>
    b0a9:	48 8b 45 f8          	mov    -0x8(%rbp),%rax
    b0ad:	5d                   	pop    %rbp
    b0ae:	c3                   	retq   

000000000000b0af <safe_div_func_uint64_t_u_u>:
    b0af:	f3 0f 1e fa          	endbr64 
    b0b3:	55                   	push   %rbp
    b0b4:	48 89 e5             	mov    %rsp,%rbp
    b0b7:	48 89 7d f8          	mov    %rdi,-0x8(%rbp)
    b0bb:	48 89 75 f0          	mov    %rsi,-0x10(%rbp)
    b0bf:	48 83 7d f0 00       	cmpq   $0x0,-0x10(%rbp)
    b0c4:	74 0f                	je     b0d5 <safe_div_func_uint64_t_u_u+0x26>
    b0c6:	48 8b 45 f8          	mov    -0x8(%rbp),%rax
    b0ca:	ba 00 00 00 00       	mov    $0x0,%edx
    b0cf:	48 f7 75 f0          	divq   -0x10(%rbp)
    b0d3:	eb 04                	jmp    b0d9 <safe_div_func_uint64_t_u_u+0x2a>
    b0d5:	48 8b 45 f8          	mov    -0x8(%rbp),%rax
    b0d9:	5d                   	pop    %rbp
    b0da:	c3                   	retq   

000000000000b0db <safe_lshift_func_uint64_t_u_s>:
    b0db:	f3 0f 1e fa          	endbr64 
    b0df:	55                   	push   %rbp
    b0e0:	48 89 e5             	mov    %rsp,%rbp
    b0e3:	48 89 7d f8          	mov    %rdi,-0x8(%rbp)
    b0e7:	89 75 f4             	mov    %esi,-0xc(%rbp)
    b0ea:	83 7d f4 00          	cmpl   $0x0,-0xc(%rbp)
    b0ee:	78 2f                	js     b11f <safe_lshift_func_uint64_t_u_s+0x44>
    b0f0:	83 7d f4 1f          	cmpl   $0x1f,-0xc(%rbp)
    b0f4:	7f 29                	jg     b11f <safe_lshift_func_uint64_t_u_s+0x44>
    b0f6:	8b 45 f4             	mov    -0xc(%rbp),%eax
    b0f9:	48 c7 c2 ff ff ff ff 	mov    $0xffffffffffffffff,%rdx
    b100:	89 c1                	mov    %eax,%ecx
    b102:	48 d3 ea             	shr    %cl,%rdx
    b105:	48 89 d0             	mov    %rdx,%rax
    b108:	48 39 45 f8          	cmp    %rax,-0x8(%rbp)
    b10c:	77 11                	ja     b11f <safe_lshift_func_uint64_t_u_s+0x44>
    b10e:	8b 45 f4             	mov    -0xc(%rbp),%eax
    b111:	48 8b 55 f8          	mov    -0x8(%rbp),%rdx
    b115:	89 c1                	mov    %eax,%ecx
    b117:	48 d3 e2             	shl    %cl,%rdx
    b11a:	48 89 d0             	mov    %rdx,%rax
    b11d:	eb 04                	jmp    b123 <safe_lshift_func_uint64_t_u_s+0x48>
    b11f:	48 8b 45 f8          	mov    -0x8(%rbp),%rax
    b123:	5d                   	pop    %rbp
    b124:	c3                   	retq   

000000000000b125 <safe_lshift_func_uint64_t_u_u>:
    b125:	f3 0f 1e fa          	endbr64 
    b129:	55                   	push   %rbp
    b12a:	48 89 e5             	mov    %rsp,%rbp
    b12d:	48 89 7d f8          	mov    %rdi,-0x8(%rbp)
    b131:	89 75 f4             	mov    %esi,-0xc(%rbp)
    b134:	83 7d f4 1f          	cmpl   $0x1f,-0xc(%rbp)
    b138:	77 29                	ja     b163 <safe_lshift_func_uint64_t_u_u+0x3e>
    b13a:	8b 45 f4             	mov    -0xc(%rbp),%eax
    b13d:	48 c7 c2 ff ff ff ff 	mov    $0xffffffffffffffff,%rdx
    b144:	89 c1                	mov    %eax,%ecx
    b146:	48 d3 ea             	shr    %cl,%rdx
    b149:	48 89 d0             	mov    %rdx,%rax
    b14c:	48 39 45 f8          	cmp    %rax,-0x8(%rbp)
    b150:	77 11                	ja     b163 <safe_lshift_func_uint64_t_u_u+0x3e>
    b152:	8b 45 f4             	mov    -0xc(%rbp),%eax
    b155:	48 8b 55 f8          	mov    -0x8(%rbp),%rdx
    b159:	89 c1                	mov    %eax,%ecx
    b15b:	48 d3 e2             	shl    %cl,%rdx
    b15e:	48 89 d0             	mov    %rdx,%rax
    b161:	eb 04                	jmp    b167 <safe_lshift_func_uint64_t_u_u+0x42>
    b163:	48 8b 45 f8          	mov    -0x8(%rbp),%rax
    b167:	5d                   	pop    %rbp
    b168:	c3                   	retq   

000000000000b169 <safe_rshift_func_uint64_t_u_s>:
    b169:	f3 0f 1e fa          	endbr64 
    b16d:	55                   	push   %rbp
    b16e:	48 89 e5             	mov    %rsp,%rbp
    b171:	48 89 7d f8          	mov    %rdi,-0x8(%rbp)
    b175:	89 75 f4             	mov    %esi,-0xc(%rbp)
    b178:	83 7d f4 00          	cmpl   $0x0,-0xc(%rbp)
    b17c:	78 17                	js     b195 <safe_rshift_func_uint64_t_u_s+0x2c>
    b17e:	83 7d f4 1f          	cmpl   $0x1f,-0xc(%rbp)
    b182:	7f 11                	jg     b195 <safe_rshift_func_uint64_t_u_s+0x2c>
    b184:	8b 45 f4             	mov    -0xc(%rbp),%eax
    b187:	48 8b 55 f8          	mov    -0x8(%rbp),%rdx
    b18b:	89 c1                	mov    %eax,%ecx
    b18d:	48 d3 ea             	shr    %cl,%rdx
    b190:	48 89 d0             	mov    %rdx,%rax
    b193:	eb 04                	jmp    b199 <safe_rshift_func_uint64_t_u_s+0x30>
    b195:	48 8b 45 f8          	mov    -0x8(%rbp),%rax
    b199:	5d                   	pop    %rbp
    b19a:	c3                   	retq   

000000000000b19b <safe_rshift_func_uint64_t_u_u>:
    b19b:	f3 0f 1e fa          	endbr64 
    b19f:	55                   	push   %rbp
    b1a0:	48 89 e5             	mov    %rsp,%rbp
    b1a3:	48 89 7d f8          	mov    %rdi,-0x8(%rbp)
    b1a7:	89 75 f4             	mov    %esi,-0xc(%rbp)
    b1aa:	83 7d f4 1f          	cmpl   $0x1f,-0xc(%rbp)
    b1ae:	77 11                	ja     b1c1 <safe_rshift_func_uint64_t_u_u+0x26>
    b1b0:	8b 45 f4             	mov    -0xc(%rbp),%eax
    b1b3:	48 8b 55 f8          	mov    -0x8(%rbp),%rdx
    b1b7:	89 c1                	mov    %eax,%ecx
    b1b9:	48 d3 ea             	shr    %cl,%rdx
    b1bc:	48 89 d0             	mov    %rdx,%rax
    b1bf:	eb 04                	jmp    b1c5 <safe_rshift_func_uint64_t_u_u+0x2a>
    b1c1:	48 8b 45 f8          	mov    -0x8(%rbp),%rax
    b1c5:	5d                   	pop    %rbp
    b1c6:	c3                   	retq   

000000000000b1c7 <safe_add_func_float_f_f>:
    b1c7:	f3 0f 1e fa          	endbr64 
    b1cb:	55                   	push   %rbp
    b1cc:	48 89 e5             	mov    %rsp,%rbp
    b1cf:	f3 0f 11 45 fc       	movss  %xmm0,-0x4(%rbp)
    b1d4:	f3 0f 11 4d f8       	movss  %xmm1,-0x8(%rbp)
    b1d9:	f3 0f 10 4d fc       	movss  -0x4(%rbp),%xmm1
    b1de:	f3 0f 10 05 8a ec 00 	movss  0xec8a(%rip),%xmm0        # 19e70 <l_1699.4500+0x10>
    b1e5:	00 
    b1e6:	f3 0f 59 c8          	mulss  %xmm0,%xmm1
    b1ea:	f3 0f 10 55 f8       	movss  -0x8(%rbp),%xmm2
    b1ef:	f3 0f 10 05 79 ec 00 	movss  0xec79(%rip),%xmm0        # 19e70 <l_1699.4500+0x10>
    b1f6:	00 
    b1f7:	f3 0f 59 c2          	mulss  %xmm2,%xmm0
    b1fb:	f3 0f 58 c1          	addss  %xmm1,%xmm0
    b1ff:	f3 0f 10 0d 79 ec 00 	movss  0xec79(%rip),%xmm1        # 19e80 <l_1699.4500+0x20>
    b206:	00 
    b207:	0f 54 c1             	andps  %xmm1,%xmm0
    b20a:	0f 2f 05 7f ec 00 00 	comiss 0xec7f(%rip),%xmm0        # 19e90 <l_1699.4500+0x30>
    b211:	76 07                	jbe    b21a <safe_add_func_float_f_f+0x53>
    b213:	f3 0f 10 45 fc       	movss  -0x4(%rbp),%xmm0
    b218:	eb 0a                	jmp    b224 <safe_add_func_float_f_f+0x5d>
    b21a:	f3 0f 10 45 fc       	movss  -0x4(%rbp),%xmm0
    b21f:	f3 0f 58 45 f8       	addss  -0x8(%rbp),%xmm0
    b224:	5d                   	pop    %rbp
    b225:	c3                   	retq   

000000000000b226 <safe_sub_func_float_f_f>:
    b226:	f3 0f 1e fa          	endbr64 
    b22a:	55                   	push   %rbp
    b22b:	48 89 e5             	mov    %rsp,%rbp
    b22e:	f3 0f 11 45 fc       	movss  %xmm0,-0x4(%rbp)
    b233:	f3 0f 11 4d f8       	movss  %xmm1,-0x8(%rbp)
    b238:	f3 0f 10 4d fc       	movss  -0x4(%rbp),%xmm1
    b23d:	f3 0f 10 05 2b ec 00 	movss  0xec2b(%rip),%xmm0        # 19e70 <l_1699.4500+0x10>
    b244:	00 
    b245:	f3 0f 59 c1          	mulss  %xmm1,%xmm0
    b249:	f3 0f 10 55 f8       	movss  -0x8(%rbp),%xmm2
    b24e:	f3 0f 10 0d 1a ec 00 	movss  0xec1a(%rip),%xmm1        # 19e70 <l_1699.4500+0x10>
    b255:	00 
    b256:	f3 0f 59 ca          	mulss  %xmm2,%xmm1
    b25a:	f3 0f 5c c1          	subss  %xmm1,%xmm0
    b25e:	f3 0f 10 0d 1a ec 00 	movss  0xec1a(%rip),%xmm1        # 19e80 <l_1699.4500+0x20>
    b265:	00 
    b266:	0f 54 c1             	andps  %xmm1,%xmm0
    b269:	0f 2f 05 20 ec 00 00 	comiss 0xec20(%rip),%xmm0        # 19e90 <l_1699.4500+0x30>
    b270:	76 07                	jbe    b279 <safe_sub_func_float_f_f+0x53>
    b272:	f3 0f 10 45 fc       	movss  -0x4(%rbp),%xmm0
    b277:	eb 0a                	jmp    b283 <safe_sub_func_float_f_f+0x5d>
    b279:	f3 0f 10 45 fc       	movss  -0x4(%rbp),%xmm0
    b27e:	f3 0f 5c 45 f8       	subss  -0x8(%rbp),%xmm0
    b283:	5d                   	pop    %rbp
    b284:	c3                   	retq   

000000000000b285 <safe_mul_func_float_f_f>:
    b285:	f3 0f 1e fa          	endbr64 
    b289:	55                   	push   %rbp
    b28a:	48 89 e5             	mov    %rsp,%rbp
    b28d:	f3 0f 11 45 fc       	movss  %xmm0,-0x4(%rbp)
    b292:	f3 0f 11 4d f8       	movss  %xmm1,-0x8(%rbp)
    b297:	f3 0f 10 4d fc       	movss  -0x4(%rbp),%xmm1
    b29c:	f3 0f 10 05 f0 eb 00 	movss  0xebf0(%rip),%xmm0        # 19e94 <l_1699.4500+0x34>
    b2a3:	00 
    b2a4:	f3 0f 59 c8          	mulss  %xmm0,%xmm1
    b2a8:	f3 0f 10 55 f8       	movss  -0x8(%rbp),%xmm2
    b2ad:	f3 0f 10 05 e3 eb 00 	movss  0xebe3(%rip),%xmm0        # 19e98 <l_1699.4500+0x38>
    b2b4:	00 
    b2b5:	f3 0f 59 c2          	mulss  %xmm2,%xmm0
    b2b9:	f3 0f 59 c1          	mulss  %xmm1,%xmm0
    b2bd:	f3 0f 10 0d bb eb 00 	movss  0xebbb(%rip),%xmm1        # 19e80 <l_1699.4500+0x20>
    b2c4:	00 
    b2c5:	0f 54 c1             	andps  %xmm1,%xmm0
    b2c8:	0f 2f 05 cd eb 00 00 	comiss 0xebcd(%rip),%xmm0        # 19e9c <l_1699.4500+0x3c>
    b2cf:	76 07                	jbe    b2d8 <safe_mul_func_float_f_f+0x53>
    b2d1:	f3 0f 10 45 fc       	movss  -0x4(%rbp),%xmm0
    b2d6:	eb 0a                	jmp    b2e2 <safe_mul_func_float_f_f+0x5d>
    b2d8:	f3 0f 10 45 fc       	movss  -0x4(%rbp),%xmm0
    b2dd:	f3 0f 59 45 f8       	mulss  -0x8(%rbp),%xmm0
    b2e2:	5d                   	pop    %rbp
    b2e3:	c3                   	retq   

000000000000b2e4 <safe_div_func_float_f_f>:
    b2e4:	f3 0f 1e fa          	endbr64 
    b2e8:	55                   	push   %rbp
    b2e9:	48 89 e5             	mov    %rsp,%rbp
    b2ec:	f3 0f 11 45 fc       	movss  %xmm0,-0x4(%rbp)
    b2f1:	f3 0f 11 4d f8       	movss  %xmm1,-0x8(%rbp)
    b2f6:	f3 0f 10 45 f8       	movss  -0x8(%rbp),%xmm0
    b2fb:	f3 0f 10 0d 7d eb 00 	movss  0xeb7d(%rip),%xmm1        # 19e80 <l_1699.4500+0x20>
    b302:	00 
    b303:	0f 54 c8             	andps  %xmm0,%xmm1
    b306:	f3 0f 10 05 92 eb 00 	movss  0xeb92(%rip),%xmm0        # 19ea0 <l_1699.4500+0x40>
    b30d:	00 
    b30e:	0f 2f c1             	comiss %xmm1,%xmm0
    b311:	0f 97 c0             	seta   %al
    b314:	83 f0 01             	xor    $0x1,%eax
    b317:	84 c0                	test   %al,%al
    b319:	75 56                	jne    b371 <safe_div_func_float_f_f+0x8d>
    b31b:	66 0f ef c0          	pxor   %xmm0,%xmm0
    b31f:	0f 2e 45 f8          	ucomiss -0x8(%rbp),%xmm0
    b323:	7a 0a                	jp     b32f <safe_div_func_float_f_f+0x4b>
    b325:	66 0f ef c0          	pxor   %xmm0,%xmm0
    b329:	0f 2e 45 f8          	ucomiss -0x8(%rbp),%xmm0
    b32d:	74 4e                	je     b37d <safe_div_func_float_f_f+0x99>
    b32f:	f3 0f 10 4d fc       	movss  -0x4(%rbp),%xmm1
    b334:	f3 0f 10 05 68 eb 00 	movss  0xeb68(%rip),%xmm0        # 19ea4 <l_1699.4500+0x44>
    b33b:	00 
    b33c:	f3 0f 59 c1          	mulss  %xmm1,%xmm0
    b340:	f3 0f 10 55 f8       	movss  -0x8(%rbp),%xmm2
    b345:	f3 0f 10 0d 5b eb 00 	movss  0xeb5b(%rip),%xmm1        # 19ea8 <l_1699.4500+0x48>
    b34c:	00 
    b34d:	f3 0f 59 ca          	mulss  %xmm2,%xmm1
    b351:	f3 0f 5e c1          	divss  %xmm1,%xmm0
    b355:	f3 0f 10 0d 23 eb 00 	movss  0xeb23(%rip),%xmm1        # 19e80 <l_1699.4500+0x20>
    b35c:	00 
    b35d:	0f 54 c1             	andps  %xmm1,%xmm0
    b360:	0f 2f 05 45 eb 00 00 	comiss 0xeb45(%rip),%xmm0        # 19eac <l_1699.4500+0x4c>
    b367:	0f 97 c0             	seta   %al
    b36a:	83 f0 01             	xor    $0x1,%eax
    b36d:	84 c0                	test   %al,%al
    b36f:	74 0c                	je     b37d <safe_div_func_float_f_f+0x99>
    b371:	f3 0f 10 45 fc       	movss  -0x4(%rbp),%xmm0
    b376:	f3 0f 5e 45 f8       	divss  -0x8(%rbp),%xmm0
    b37b:	eb 05                	jmp    b382 <safe_div_func_float_f_f+0x9e>
    b37d:	f3 0f 10 45 fc       	movss  -0x4(%rbp),%xmm0
    b382:	5d                   	pop    %rbp
    b383:	c3                   	retq   

000000000000b384 <safe_add_func_double_f_f>:
    b384:	f3 0f 1e fa          	endbr64 
    b388:	55                   	push   %rbp
    b389:	48 89 e5             	mov    %rsp,%rbp
    b38c:	f2 0f 11 45 f8       	movsd  %xmm0,-0x8(%rbp)
    b391:	f2 0f 11 4d f0       	movsd  %xmm1,-0x10(%rbp)
    b396:	f2 0f 10 4d f8       	movsd  -0x8(%rbp),%xmm1
    b39b:	f2 0f 10 05 0d eb 00 	movsd  0xeb0d(%rip),%xmm0        # 19eb0 <l_1699.4500+0x50>
    b3a2:	00 
    b3a3:	f2 0f 59 c8          	mulsd  %xmm0,%xmm1
    b3a7:	f2 0f 10 55 f0       	movsd  -0x10(%rbp),%xmm2
    b3ac:	f2 0f 10 05 fc ea 00 	movsd  0xeafc(%rip),%xmm0        # 19eb0 <l_1699.4500+0x50>
    b3b3:	00 
    b3b4:	f2 0f 59 c2          	mulsd  %xmm2,%xmm0
    b3b8:	f2 0f 58 c1          	addsd  %xmm1,%xmm0
    b3bc:	f3 0f 7e 0d fc ea 00 	movq   0xeafc(%rip),%xmm1        # 19ec0 <l_1699.4500+0x60>
    b3c3:	00 
    b3c4:	66 0f 54 c1          	andpd  %xmm1,%xmm0
    b3c8:	66 0f 2f 05 00 eb 00 	comisd 0xeb00(%rip),%xmm0        # 19ed0 <l_1699.4500+0x70>
    b3cf:	00 
    b3d0:	76 07                	jbe    b3d9 <safe_add_func_double_f_f+0x55>
    b3d2:	f2 0f 10 45 f8       	movsd  -0x8(%rbp),%xmm0
    b3d7:	eb 0a                	jmp    b3e3 <safe_add_func_double_f_f+0x5f>
    b3d9:	f2 0f 10 45 f8       	movsd  -0x8(%rbp),%xmm0
    b3de:	f2 0f 58 45 f0       	addsd  -0x10(%rbp),%xmm0
    b3e3:	5d                   	pop    %rbp
    b3e4:	c3                   	retq   

000000000000b3e5 <safe_sub_func_double_f_f>:
    b3e5:	f3 0f 1e fa          	endbr64 
    b3e9:	55                   	push   %rbp
    b3ea:	48 89 e5             	mov    %rsp,%rbp
    b3ed:	f2 0f 11 45 f8       	movsd  %xmm0,-0x8(%rbp)
    b3f2:	f2 0f 11 4d f0       	movsd  %xmm1,-0x10(%rbp)
    b3f7:	f2 0f 10 4d f8       	movsd  -0x8(%rbp),%xmm1
    b3fc:	f2 0f 10 05 ac ea 00 	movsd  0xeaac(%rip),%xmm0        # 19eb0 <l_1699.4500+0x50>
    b403:	00 
    b404:	f2 0f 59 c1          	mulsd  %xmm1,%xmm0
    b408:	f2 0f 10 55 f0       	movsd  -0x10(%rbp),%xmm2
    b40d:	f2 0f 10 0d 9b ea 00 	movsd  0xea9b(%rip),%xmm1        # 19eb0 <l_1699.4500+0x50>
    b414:	00 
    b415:	f2 0f 59 ca          	mulsd  %xmm2,%xmm1
    b419:	f2 0f 5c c1          	subsd  %xmm1,%xmm0
    b41d:	f3 0f 7e 0d 9b ea 00 	movq   0xea9b(%rip),%xmm1        # 19ec0 <l_1699.4500+0x60>
    b424:	00 
    b425:	66 0f 54 c1          	andpd  %xmm1,%xmm0
    b429:	66 0f 2f 05 9f ea 00 	comisd 0xea9f(%rip),%xmm0        # 19ed0 <l_1699.4500+0x70>
    b430:	00 
    b431:	76 07                	jbe    b43a <safe_sub_func_double_f_f+0x55>
    b433:	f2 0f 10 45 f8       	movsd  -0x8(%rbp),%xmm0
    b438:	eb 0a                	jmp    b444 <safe_sub_func_double_f_f+0x5f>
    b43a:	f2 0f 10 45 f8       	movsd  -0x8(%rbp),%xmm0
    b43f:	f2 0f 5c 45 f0       	subsd  -0x10(%rbp),%xmm0
    b444:	5d                   	pop    %rbp
    b445:	c3                   	retq   

000000000000b446 <safe_mul_func_double_f_f>:
    b446:	f3 0f 1e fa          	endbr64 
    b44a:	55                   	push   %rbp
    b44b:	48 89 e5             	mov    %rsp,%rbp
    b44e:	f2 0f 11 45 f8       	movsd  %xmm0,-0x8(%rbp)
    b453:	f2 0f 11 4d f0       	movsd  %xmm1,-0x10(%rbp)
    b458:	f2 0f 10 4d f8       	movsd  -0x8(%rbp),%xmm1
    b45d:	f2 0f 10 05 73 ea 00 	movsd  0xea73(%rip),%xmm0        # 19ed8 <l_1699.4500+0x78>
    b464:	00 
    b465:	f2 0f 59 c8          	mulsd  %xmm0,%xmm1
    b469:	f2 0f 10 55 f0       	movsd  -0x10(%rbp),%xmm2
    b46e:	f2 0f 10 05 6a ea 00 	movsd  0xea6a(%rip),%xmm0        # 19ee0 <l_1699.4500+0x80>
    b475:	00 
    b476:	f2 0f 59 c2          	mulsd  %xmm2,%xmm0
    b47a:	f2 0f 59 c1          	mulsd  %xmm1,%xmm0
    b47e:	f3 0f 7e 0d 3a ea 00 	movq   0xea3a(%rip),%xmm1        # 19ec0 <l_1699.4500+0x60>
    b485:	00 
    b486:	66 0f 54 c1          	andpd  %xmm1,%xmm0
    b48a:	66 0f 2f 05 56 ea 00 	comisd 0xea56(%rip),%xmm0        # 19ee8 <l_1699.4500+0x88>
    b491:	00 
    b492:	76 07                	jbe    b49b <safe_mul_func_double_f_f+0x55>
    b494:	f2 0f 10 45 f8       	movsd  -0x8(%rbp),%xmm0
    b499:	eb 0a                	jmp    b4a5 <safe_mul_func_double_f_f+0x5f>
    b49b:	f2 0f 10 45 f8       	movsd  -0x8(%rbp),%xmm0
    b4a0:	f2 0f 59 45 f0       	mulsd  -0x10(%rbp),%xmm0
    b4a5:	5d                   	pop    %rbp
    b4a6:	c3                   	retq   

000000000000b4a7 <safe_div_func_double_f_f>:
    b4a7:	f3 0f 1e fa          	endbr64 
    b4ab:	55                   	push   %rbp
    b4ac:	48 89 e5             	mov    %rsp,%rbp
    b4af:	f2 0f 11 45 f8       	movsd  %xmm0,-0x8(%rbp)
    b4b4:	f2 0f 11 4d f0       	movsd  %xmm1,-0x10(%rbp)
    b4b9:	f2 0f 10 45 f0       	movsd  -0x10(%rbp),%xmm0
    b4be:	f3 0f 7e 0d fa e9 00 	movq   0xe9fa(%rip),%xmm1        # 19ec0 <l_1699.4500+0x60>
    b4c5:	00 
    b4c6:	66 0f 54 c8          	andpd  %xmm0,%xmm1
    b4ca:	f2 0f 10 05 1e ea 00 	movsd  0xea1e(%rip),%xmm0        # 19ef0 <l_1699.4500+0x90>
    b4d1:	00 
    b4d2:	66 0f 2f c1          	comisd %xmm1,%xmm0
    b4d6:	0f 97 c0             	seta   %al
    b4d9:	83 f0 01             	xor    $0x1,%eax
    b4dc:	84 c0                	test   %al,%al
    b4de:	75 5a                	jne    b53a <safe_div_func_double_f_f+0x93>
    b4e0:	66 0f ef c0          	pxor   %xmm0,%xmm0
    b4e4:	66 0f 2e 45 f0       	ucomisd -0x10(%rbp),%xmm0
    b4e9:	7a 0b                	jp     b4f6 <safe_div_func_double_f_f+0x4f>
    b4eb:	66 0f ef c0          	pxor   %xmm0,%xmm0
    b4ef:	66 0f 2e 45 f0       	ucomisd -0x10(%rbp),%xmm0
    b4f4:	74 50                	je     b546 <safe_div_func_double_f_f+0x9f>
    b4f6:	f2 0f 10 4d f8       	movsd  -0x8(%rbp),%xmm1
    b4fb:	f2 0f 10 05 f5 e9 00 	movsd  0xe9f5(%rip),%xmm0        # 19ef8 <l_1699.4500+0x98>
    b502:	00 
    b503:	f2 0f 59 c1          	mulsd  %xmm1,%xmm0
    b507:	f2 0f 10 55 f0       	movsd  -0x10(%rbp),%xmm2
    b50c:	f2 0f 10 0d ec e9 00 	movsd  0xe9ec(%rip),%xmm1        # 19f00 <l_1699.4500+0xa0>
    b513:	00 
    b514:	f2 0f 59 ca          	mulsd  %xmm2,%xmm1
    b518:	f2 0f 5e c1          	divsd  %xmm1,%xmm0
    b51c:	f3 0f 7e 0d 9c e9 00 	movq   0xe99c(%rip),%xmm1        # 19ec0 <l_1699.4500+0x60>
    b523:	00 
    b524:	66 0f 54 c1          	andpd  %xmm1,%xmm0
    b528:	66 0f 2f 05 d8 e9 00 	comisd 0xe9d8(%rip),%xmm0        # 19f08 <l_1699.4500+0xa8>
    b52f:	00 
    b530:	0f 97 c0             	seta   %al
    b533:	83 f0 01             	xor    $0x1,%eax
    b536:	84 c0                	test   %al,%al
    b538:	74 0c                	je     b546 <safe_div_func_double_f_f+0x9f>
    b53a:	f2 0f 10 45 f8       	movsd  -0x8(%rbp),%xmm0
    b53f:	f2 0f 5e 45 f0       	divsd  -0x10(%rbp),%xmm0
    b544:	eb 05                	jmp    b54b <safe_div_func_double_f_f+0xa4>
    b546:	f2 0f 10 45 f8       	movsd  -0x8(%rbp),%xmm0
    b54b:	5d                   	pop    %rbp
    b54c:	c3                   	retq   

000000000000b54d <safe_convert_func_float_to_int32_t>:
    b54d:	f3 0f 1e fa          	endbr64 
    b551:	55                   	push   %rbp
    b552:	48 89 e5             	mov    %rsp,%rbp
    b555:	f3 0f 11 45 fc       	movss  %xmm0,-0x4(%rbp)
    b55a:	f3 0f 10 05 ae e9 00 	movss  0xe9ae(%rip),%xmm0        # 19f10 <l_1699.4500+0xb0>
    b561:	00 
    b562:	0f 2f 45 fc          	comiss -0x4(%rbp),%xmm0
    b566:	0f 93 c0             	setae  %al
    b569:	83 f0 01             	xor    $0x1,%eax
    b56c:	84 c0                	test   %al,%al
    b56e:	74 21                	je     b591 <safe_convert_func_float_to_int32_t+0x44>
    b570:	f3 0f 10 45 fc       	movss  -0x4(%rbp),%xmm0
    b575:	0f 2f 05 98 e9 00 00 	comiss 0xe998(%rip),%xmm0        # 19f14 <l_1699.4500+0xb4>
    b57c:	0f 93 c0             	setae  %al
    b57f:	83 f0 01             	xor    $0x1,%eax
    b582:	84 c0                	test   %al,%al
    b584:	74 0b                	je     b591 <safe_convert_func_float_to_int32_t+0x44>
    b586:	f3 0f 10 45 fc       	movss  -0x4(%rbp),%xmm0
    b58b:	f3 0f 2c c0          	cvttss2si %xmm0,%eax
    b58f:	eb 05                	jmp    b596 <safe_convert_func_float_to_int32_t+0x49>
    b591:	b8 ff ff ff 7f       	mov    $0x7fffffff,%eax
    b596:	5d                   	pop    %rbp
    b597:	c3                   	retq   

000000000000b598 <crc32_gentab>:
    b598:	f3 0f 1e fa          	endbr64 
    b59c:	55                   	push   %rbp
    b59d:	48 89 e5             	mov    %rsp,%rbp
    b5a0:	c7 45 fc 20 83 b8 ed 	movl   $0xedb88320,-0x4(%rbp)
    b5a7:	c7 45 f4 00 00 00 00 	movl   $0x0,-0xc(%rbp)
    b5ae:	eb 51                	jmp    b601 <crc32_gentab+0x69>
    b5b0:	8b 45 f4             	mov    -0xc(%rbp),%eax
    b5b3:	89 45 f0             	mov    %eax,-0x10(%rbp)
    b5b6:	c7 45 f8 08 00 00 00 	movl   $0x8,-0x8(%rbp)
    b5bd:	eb 1e                	jmp    b5dd <crc32_gentab+0x45>
    b5bf:	8b 45 f0             	mov    -0x10(%rbp),%eax
    b5c2:	83 e0 01             	and    $0x1,%eax
    b5c5:	85 c0                	test   %eax,%eax
    b5c7:	74 0d                	je     b5d6 <crc32_gentab+0x3e>
    b5c9:	8b 45 f0             	mov    -0x10(%rbp),%eax
    b5cc:	d1 e8                	shr    %eax
    b5ce:	33 45 fc             	xor    -0x4(%rbp),%eax
    b5d1:	89 45 f0             	mov    %eax,-0x10(%rbp)
    b5d4:	eb 03                	jmp    b5d9 <crc32_gentab+0x41>
    b5d6:	d1 6d f0             	shrl   -0x10(%rbp)
    b5d9:	83 6d f8 01          	subl   $0x1,-0x8(%rbp)
    b5dd:	83 7d f8 00          	cmpl   $0x0,-0x8(%rbp)
    b5e1:	7f dc                	jg     b5bf <crc32_gentab+0x27>
    b5e3:	8b 45 f4             	mov    -0xc(%rbp),%eax
    b5e6:	48 98                	cltq   
    b5e8:	48 8d 0c 85 00 00 00 	lea    0x0(,%rax,4),%rcx
    b5ef:	00 
    b5f0:	48 8d 15 09 54 01 00 	lea    0x15409(%rip),%rdx        # 20a00 <crc32_tab>
    b5f7:	8b 45 f0             	mov    -0x10(%rbp),%eax
    b5fa:	89 04 11             	mov    %eax,(%rcx,%rdx,1)
    b5fd:	83 45 f4 01          	addl   $0x1,-0xc(%rbp)
    b601:	81 7d f4 ff 00 00 00 	cmpl   $0xff,-0xc(%rbp)
    b608:	7e a6                	jle    b5b0 <crc32_gentab+0x18>
    b60a:	90                   	nop
    b60b:	90                   	nop
    b60c:	5d                   	pop    %rbp
    b60d:	c3                   	retq   

000000000000b60e <crc32_byte>:
    b60e:	f3 0f 1e fa          	endbr64 
    b612:	55                   	push   %rbp
    b613:	48 89 e5             	mov    %rsp,%rbp
    b616:	89 f8                	mov    %edi,%eax
    b618:	88 45 fc             	mov    %al,-0x4(%rbp)
    b61b:	8b 05 ff 19 01 00    	mov    0x119ff(%rip),%eax        # 1d020 <crc32_context>
    b621:	c1 e8 08             	shr    $0x8,%eax
    b624:	89 c1                	mov    %eax,%ecx
    b626:	0f b6 55 fc          	movzbl -0x4(%rbp),%edx
    b62a:	8b 05 f0 19 01 00    	mov    0x119f0(%rip),%eax        # 1d020 <crc32_context>
    b630:	31 d0                	xor    %edx,%eax
    b632:	0f b6 c0             	movzbl %al,%eax
    b635:	89 c0                	mov    %eax,%eax
    b637:	48 8d 14 85 00 00 00 	lea    0x0(,%rax,4),%rdx
    b63e:	00 
    b63f:	48 8d 05 ba 53 01 00 	lea    0x153ba(%rip),%rax        # 20a00 <crc32_tab>
    b646:	8b 04 02             	mov    (%rdx,%rax,1),%eax
    b649:	31 c8                	xor    %ecx,%eax
    b64b:	89 05 cf 19 01 00    	mov    %eax,0x119cf(%rip)        # 1d020 <crc32_context>
    b651:	90                   	nop
    b652:	5d                   	pop    %rbp
    b653:	c3                   	retq   

000000000000b654 <crc32_8bytes>:
    b654:	f3 0f 1e fa          	endbr64 
    b658:	55                   	push   %rbp
    b659:	48 89 e5             	mov    %rsp,%rbp
    b65c:	48 83 ec 08          	sub    $0x8,%rsp
    b660:	48 89 7d f8          	mov    %rdi,-0x8(%rbp)
    b664:	48 8b 45 f8          	mov    -0x8(%rbp),%rax
    b668:	0f b6 c0             	movzbl %al,%eax
    b66b:	89 c7                	mov    %eax,%edi
    b66d:	e8 9c ff ff ff       	callq  b60e <crc32_byte>
    b672:	48 8b 45 f8          	mov    -0x8(%rbp),%rax
    b676:	48 c1 e8 08          	shr    $0x8,%rax
    b67a:	0f b6 c0             	movzbl %al,%eax
    b67d:	89 c7                	mov    %eax,%edi
    b67f:	e8 8a ff ff ff       	callq  b60e <crc32_byte>
    b684:	48 8b 45 f8          	mov    -0x8(%rbp),%rax
    b688:	48 c1 e8 10          	shr    $0x10,%rax
    b68c:	0f b6 c0             	movzbl %al,%eax
    b68f:	89 c7                	mov    %eax,%edi
    b691:	e8 78 ff ff ff       	callq  b60e <crc32_byte>
    b696:	48 8b 45 f8          	mov    -0x8(%rbp),%rax
    b69a:	48 c1 e8 18          	shr    $0x18,%rax
    b69e:	0f b6 c0             	movzbl %al,%eax
    b6a1:	89 c7                	mov    %eax,%edi
    b6a3:	e8 66 ff ff ff       	callq  b60e <crc32_byte>
    b6a8:	48 8b 45 f8          	mov    -0x8(%rbp),%rax
    b6ac:	48 c1 e8 20          	shr    $0x20,%rax
    b6b0:	0f b6 c0             	movzbl %al,%eax
    b6b3:	89 c7                	mov    %eax,%edi
    b6b5:	e8 54 ff ff ff       	callq  b60e <crc32_byte>
    b6ba:	48 8b 45 f8          	mov    -0x8(%rbp),%rax
    b6be:	48 c1 e8 28          	shr    $0x28,%rax
    b6c2:	0f b6 c0             	movzbl %al,%eax
    b6c5:	89 c7                	mov    %eax,%edi
    b6c7:	e8 42 ff ff ff       	callq  b60e <crc32_byte>
    b6cc:	48 8b 45 f8          	mov    -0x8(%rbp),%rax
    b6d0:	48 c1 e8 30          	shr    $0x30,%rax
    b6d4:	0f b6 c0             	movzbl %al,%eax
    b6d7:	89 c7                	mov    %eax,%edi
    b6d9:	e8 30 ff ff ff       	callq  b60e <crc32_byte>
    b6de:	48 8b 45 f8          	mov    -0x8(%rbp),%rax
    b6e2:	48 c1 e8 38          	shr    $0x38,%rax
    b6e6:	0f b6 c0             	movzbl %al,%eax
    b6e9:	89 c7                	mov    %eax,%edi
    b6eb:	e8 1e ff ff ff       	callq  b60e <crc32_byte>
    b6f0:	90                   	nop
    b6f1:	c9                   	leaveq 
    b6f2:	c3                   	retq   

000000000000b6f3 <transparent_crc>:
    b6f3:	f3 0f 1e fa          	endbr64 
    b6f7:	55                   	push   %rbp
    b6f8:	48 89 e5             	mov    %rsp,%rbp
    b6fb:	48 83 ec 20          	sub    $0x20,%rsp
    b6ff:	48 89 7d f8          	mov    %rdi,-0x8(%rbp)
    b703:	48 89 75 f0          	mov    %rsi,-0x10(%rbp)
    b707:	89 55 ec             	mov    %edx,-0x14(%rbp)
    b70a:	48 8b 45 f8          	mov    -0x8(%rbp),%rax
    b70e:	48 89 c7             	mov    %rax,%rdi
    b711:	e8 3e ff ff ff       	callq  b654 <crc32_8bytes>
    b716:	83 7d ec 00          	cmpl   $0x0,-0x14(%rbp)
    b71a:	74 22                	je     b73e <transparent_crc+0x4b>
    b71c:	8b 05 fe 18 01 00    	mov    0x118fe(%rip),%eax        # 1d020 <crc32_context>
    b722:	f7 d0                	not    %eax
    b724:	89 c2                	mov    %eax,%edx
    b726:	48 8b 45 f0          	mov    -0x10(%rbp),%rax
    b72a:	48 89 c6             	mov    %rax,%rsi
    b72d:	48 8d 3d fc c8 00 00 	lea    0xc8fc(%rip),%rdi        # 18030 <_IO_stdin_used+0x30>
    b734:	b8 00 00 00 00       	mov    $0x0,%eax
    b739:	e8 42 e9 ff ff       	callq  a080 <printf@plt>
    b73e:	90                   	nop
    b73f:	c9                   	leaveq 
    b740:	c3                   	retq   

000000000000b741 <transparent_crc_bytes>:
    b741:	f3 0f 1e fa          	endbr64 
    b745:	55                   	push   %rbp
    b746:	48 89 e5             	mov    %rsp,%rbp
    b749:	48 83 ec 30          	sub    $0x30,%rsp
    b74d:	48 89 7d e8          	mov    %rdi,-0x18(%rbp)
    b751:	89 75 e4             	mov    %esi,-0x1c(%rbp)
    b754:	48 89 55 d8          	mov    %rdx,-0x28(%rbp)
    b758:	89 4d e0             	mov    %ecx,-0x20(%rbp)
    b75b:	c7 45 fc 00 00 00 00 	movl   $0x0,-0x4(%rbp)
    b762:	eb 1e                	jmp    b782 <transparent_crc_bytes+0x41>
    b764:	8b 45 fc             	mov    -0x4(%rbp),%eax
    b767:	48 63 d0             	movslq %eax,%rdx
    b76a:	48 8b 45 e8          	mov    -0x18(%rbp),%rax
    b76e:	48 01 d0             	add    %rdx,%rax
    b771:	0f b6 00             	movzbl (%rax),%eax
    b774:	0f b6 c0             	movzbl %al,%eax
    b777:	89 c7                	mov    %eax,%edi
    b779:	e8 90 fe ff ff       	callq  b60e <crc32_byte>
    b77e:	83 45 fc 01          	addl   $0x1,-0x4(%rbp)
    b782:	8b 45 fc             	mov    -0x4(%rbp),%eax
    b785:	3b 45 e4             	cmp    -0x1c(%rbp),%eax
    b788:	7c da                	jl     b764 <transparent_crc_bytes+0x23>
    b78a:	83 7d e0 00          	cmpl   $0x0,-0x20(%rbp)
    b78e:	74 22                	je     b7b2 <transparent_crc_bytes+0x71>
    b790:	8b 05 8a 18 01 00    	mov    0x1188a(%rip),%eax        # 1d020 <crc32_context>
    b796:	f7 d0                	not    %eax
    b798:	89 c2                	mov    %eax,%edx
    b79a:	48 8b 45 d8          	mov    -0x28(%rbp),%rax
    b79e:	48 89 c6             	mov    %rax,%rsi
    b7a1:	48 8d 3d 88 c8 00 00 	lea    0xc888(%rip),%rdi        # 18030 <_IO_stdin_used+0x30>
    b7a8:	b8 00 00 00 00       	mov    $0x0,%eax
    b7ad:	e8 ce e8 ff ff       	callq  a080 <printf@plt>
    b7b2:	90                   	nop
    b7b3:	c9                   	leaveq 
    b7b4:	c3                   	retq   

000000000000b7b5 <func_1>:
    b7b5:	f3 0f 1e fa          	endbr64 
    b7b9:	55                   	push   %rbp
    b7ba:	48 89 e5             	mov    %rsp,%rbp
    b7bd:	48 81 ec 80 05 00 00 	sub    $0x580,%rsp
    b7c4:	64 48 8b 04 25 28 00 	mov    %fs:0x28,%rax
    b7cb:	00 00 
    b7cd:	48 89 45 f8          	mov    %rax,-0x8(%rbp)
    b7d1:	31 c0                	xor    %eax,%eax
    b7d3:	48 c7 85 e0 fa ff ff 	movq   $0x0,-0x520(%rbp)
    b7da:	00 00 00 00 
    b7de:	48 8d 05 3f 18 01 00 	lea    0x1183f(%rip),%rax        # 1d024 <g_2>
    b7e5:	48 89 85 e8 fa ff ff 	mov    %rax,-0x518(%rbp)
    b7ec:	48 c7 85 b0 fb ff ff 	movq   $0x0,-0x450(%rbp)
    b7f3:	00 00 00 00 
    b7f7:	48 8d 05 26 18 01 00 	lea    0x11826(%rip),%rax        # 1d024 <g_2>
    b7fe:	48 89 85 b8 fb ff ff 	mov    %rax,-0x448(%rbp)
    b805:	48 c7 85 c0 fb ff ff 	movq   $0x0,-0x440(%rbp)
    b80c:	00 00 00 00 
    b810:	48 8d 05 0d 18 01 00 	lea    0x1180d(%rip),%rax        # 1d024 <g_2>
    b817:	48 89 85 c8 fb ff ff 	mov    %rax,-0x438(%rbp)
    b81e:	48 c7 85 d0 fb ff ff 	movq   $0x0,-0x430(%rbp)
    b825:	00 00 00 00 
    b829:	48 8d 05 f4 17 01 00 	lea    0x117f4(%rip),%rax        # 1d024 <g_2>
    b830:	48 89 85 d8 fb ff ff 	mov    %rax,-0x428(%rbp)
    b837:	48 c7 85 e0 fb ff ff 	movq   $0x0,-0x420(%rbp)
    b83e:	00 00 00 00 
    b842:	48 8d 05 db 17 01 00 	lea    0x117db(%rip),%rax        # 1d024 <g_2>
    b849:	48 89 85 e8 fb ff ff 	mov    %rax,-0x418(%rbp)
    b850:	48 8d 05 cd 17 01 00 	lea    0x117cd(%rip),%rax        # 1d024 <g_2>
    b857:	48 89 85 f0 fb ff ff 	mov    %rax,-0x410(%rbp)
    b85e:	48 8d 05 bf 17 01 00 	lea    0x117bf(%rip),%rax        # 1d024 <g_2>
    b865:	48 89 85 f8 fb ff ff 	mov    %rax,-0x408(%rbp)
    b86c:	48 8d 05 b1 17 01 00 	lea    0x117b1(%rip),%rax        # 1d024 <g_2>
    b873:	48 89 85 00 fc ff ff 	mov    %rax,-0x400(%rbp)
    b87a:	48 8d 05 a3 17 01 00 	lea    0x117a3(%rip),%rax        # 1d024 <g_2>
    b881:	48 89 85 08 fc ff ff 	mov    %rax,-0x3f8(%rbp)
    b888:	48 8d 05 95 17 01 00 	lea    0x11795(%rip),%rax        # 1d024 <g_2>
    b88f:	48 89 85 10 fc ff ff 	mov    %rax,-0x3f0(%rbp)
    b896:	48 8d 05 87 17 01 00 	lea    0x11787(%rip),%rax        # 1d024 <g_2>
    b89d:	48 89 85 18 fc ff ff 	mov    %rax,-0x3e8(%rbp)
    b8a4:	48 c7 85 20 fc ff ff 	movq   $0x0,-0x3e0(%rbp)
    b8ab:	00 00 00 00 
    b8af:	48 8d 05 6e 17 01 00 	lea    0x1176e(%rip),%rax        # 1d024 <g_2>
    b8b6:	48 89 85 28 fc ff ff 	mov    %rax,-0x3d8(%rbp)
    b8bd:	48 c7 85 30 fc ff ff 	movq   $0x0,-0x3d0(%rbp)
    b8c4:	00 00 00 00 
    b8c8:	48 8d 05 55 17 01 00 	lea    0x11755(%rip),%rax        # 1d024 <g_2>
    b8cf:	48 89 85 38 fc ff ff 	mov    %rax,-0x3c8(%rbp)
    b8d6:	48 c7 85 40 fc ff ff 	movq   $0x0,-0x3c0(%rbp)
    b8dd:	00 00 00 00 
    b8e1:	48 8d 05 3c 17 01 00 	lea    0x1173c(%rip),%rax        # 1d024 <g_2>
    b8e8:	48 89 85 48 fc ff ff 	mov    %rax,-0x3b8(%rbp)
    b8ef:	48 c7 85 50 fc ff ff 	movq   $0x0,-0x3b0(%rbp)
    b8f6:	00 00 00 00 
    b8fa:	48 b8 02 b4 c0 a2 5b 	movabs $0x6d80f85ba2c0b402,%rax
    b901:	f8 80 6d 
    b904:	48 89 85 f0 fa ff ff 	mov    %rax,-0x510(%rbp)
    b90b:	c7 85 a8 fa ff ff fe 	movl   $0xfffffffe,-0x558(%rbp)
    b912:	ff ff ff 
    b915:	66 c7 85 90 fa ff ff 	movw   $0xffff,-0x570(%rbp)
    b91c:	ff ff 
    b91e:	48 c7 85 f8 fa ff ff 	movq   $0x0,-0x508(%rbp)
    b925:	00 00 00 00 
    b929:	c7 85 94 fa ff ff 00 	movl   $0x0,-0x56c(%rbp)
    b930:	00 00 00 
    b933:	eb 1a                	jmp    b94f <func_1+0x19a>
    b935:	8b 85 94 fa ff ff    	mov    -0x56c(%rbp),%eax
    b93b:	48 98                	cltq   
    b93d:	c7 84 85 40 fb ff ff 	movl   $0x96b280a,-0x4c0(%rbp,%rax,4)
    b944:	0a 28 6b 09 
    b948:	83 85 94 fa ff ff 01 	addl   $0x1,-0x56c(%rbp)
    b94f:	83 bd 94 fa ff ff 08 	cmpl   $0x8,-0x56c(%rbp)
    b956:	7e dd                	jle    b935 <func_1+0x180>
    b958:	c7 05 c2 16 01 00 00 	movl   $0x0,0x116c2(%rip)        # 1d024 <g_2>
    b95f:	00 00 00 
    b962:	e9 9a 04 00 00       	jmpq   be01 <func_1+0x64c>
    b967:	48 c7 85 38 fb ff ff 	movq   $0x0,-0x4c8(%rbp)
    b96e:	00 00 00 00 
    b972:	48 c7 85 d8 fa ff ff 	movq   $0x0,-0x528(%rbp)
    b979:	00 00 00 00 
    b97d:	48 8d 85 d8 fa ff ff 	lea    -0x528(%rbp),%rax
    b984:	48 89 85 50 fd ff ff 	mov    %rax,-0x2b0(%rbp)
    b98b:	48 8d 85 d8 fa ff ff 	lea    -0x528(%rbp),%rax
    b992:	48 89 85 58 fd ff ff 	mov    %rax,-0x2a8(%rbp)
    b999:	48 8d 85 d8 fa ff ff 	lea    -0x528(%rbp),%rax
    b9a0:	48 89 85 60 fd ff ff 	mov    %rax,-0x2a0(%rbp)
    b9a7:	48 8d 85 d8 fa ff ff 	lea    -0x528(%rbp),%rax
    b9ae:	48 89 85 68 fd ff ff 	mov    %rax,-0x298(%rbp)
    b9b5:	48 8d 85 d8 fa ff ff 	lea    -0x528(%rbp),%rax
    b9bc:	48 89 85 70 fd ff ff 	mov    %rax,-0x290(%rbp)
    b9c3:	48 8d 85 d8 fa ff ff 	lea    -0x528(%rbp),%rax
    b9ca:	48 89 85 78 fd ff ff 	mov    %rax,-0x288(%rbp)
    b9d1:	48 8d 85 d8 fa ff ff 	lea    -0x528(%rbp),%rax
    b9d8:	48 89 85 80 fd ff ff 	mov    %rax,-0x280(%rbp)
    b9df:	48 8d 85 d8 fa ff ff 	lea    -0x528(%rbp),%rax
    b9e6:	48 89 85 88 fd ff ff 	mov    %rax,-0x278(%rbp)
    b9ed:	48 8d 85 d8 fa ff ff 	lea    -0x528(%rbp),%rax
    b9f4:	48 89 85 90 fd ff ff 	mov    %rax,-0x270(%rbp)
    b9fb:	48 8d 85 d8 fa ff ff 	lea    -0x528(%rbp),%rax
    ba02:	48 89 85 98 fd ff ff 	mov    %rax,-0x268(%rbp)
    ba09:	48 8d 85 d8 fa ff ff 	lea    -0x528(%rbp),%rax
    ba10:	48 89 85 a0 fd ff ff 	mov    %rax,-0x260(%rbp)
    ba17:	48 8d 85 d8 fa ff ff 	lea    -0x528(%rbp),%rax
    ba1e:	48 89 85 a8 fd ff ff 	mov    %rax,-0x258(%rbp)
    ba25:	48 8d 85 d8 fa ff ff 	lea    -0x528(%rbp),%rax
    ba2c:	48 89 85 b0 fd ff ff 	mov    %rax,-0x250(%rbp)
    ba33:	48 8d 85 d8 fa ff ff 	lea    -0x528(%rbp),%rax
    ba3a:	48 89 85 b8 fd ff ff 	mov    %rax,-0x248(%rbp)
    ba41:	48 8d 85 d8 fa ff ff 	lea    -0x528(%rbp),%rax
    ba48:	48 89 85 c0 fd ff ff 	mov    %rax,-0x240(%rbp)
    ba4f:	48 8d 85 d8 fa ff ff 	lea    -0x528(%rbp),%rax
    ba56:	48 89 85 c8 fd ff ff 	mov    %rax,-0x238(%rbp)
    ba5d:	48 c7 85 d0 fd ff ff 	movq   $0x0,-0x230(%rbp)
    ba64:	00 00 00 00 
    ba68:	48 8d 85 d8 fa ff ff 	lea    -0x528(%rbp),%rax
    ba6f:	48 89 85 d8 fd ff ff 	mov    %rax,-0x228(%rbp)
    ba76:	48 8d 85 d8 fa ff ff 	lea    -0x528(%rbp),%rax
    ba7d:	48 89 85 e0 fd ff ff 	mov    %rax,-0x220(%rbp)
    ba84:	48 8d 85 d8 fa ff ff 	lea    -0x528(%rbp),%rax
    ba8b:	48 89 85 e8 fd ff ff 	mov    %rax,-0x218(%rbp)
    ba92:	48 8d 85 d8 fa ff ff 	lea    -0x528(%rbp),%rax
    ba99:	48 89 85 f0 fd ff ff 	mov    %rax,-0x210(%rbp)
    baa0:	48 8d 85 d8 fa ff ff 	lea    -0x528(%rbp),%rax
    baa7:	48 89 85 f8 fd ff ff 	mov    %rax,-0x208(%rbp)
    baae:	48 8d 85 d8 fa ff ff 	lea    -0x528(%rbp),%rax
    bab5:	48 89 85 00 fe ff ff 	mov    %rax,-0x200(%rbp)
    babc:	48 8d 85 d8 fa ff ff 	lea    -0x528(%rbp),%rax
    bac3:	48 89 85 08 fe ff ff 	mov    %rax,-0x1f8(%rbp)
    baca:	48 8d 85 d8 fa ff ff 	lea    -0x528(%rbp),%rax
    bad1:	48 89 85 10 fe ff ff 	mov    %rax,-0x1f0(%rbp)
    bad8:	48 8d 85 d8 fa ff ff 	lea    -0x528(%rbp),%rax
    badf:	48 89 85 18 fe ff ff 	mov    %rax,-0x1e8(%rbp)
    bae6:	48 8d 85 d8 fa ff ff 	lea    -0x528(%rbp),%rax
    baed:	48 89 85 20 fe ff ff 	mov    %rax,-0x1e0(%rbp)
    baf4:	48 8d 85 d8 fa ff ff 	lea    -0x528(%rbp),%rax
    bafb:	48 89 85 28 fe ff ff 	mov    %rax,-0x1d8(%rbp)
    bb02:	48 8d 85 d8 fa ff ff 	lea    -0x528(%rbp),%rax
    bb09:	48 89 85 30 fe ff ff 	mov    %rax,-0x1d0(%rbp)
    bb10:	48 8d 85 d8 fa ff ff 	lea    -0x528(%rbp),%rax
    bb17:	48 89 85 38 fe ff ff 	mov    %rax,-0x1c8(%rbp)
    bb1e:	48 8d 85 d8 fa ff ff 	lea    -0x528(%rbp),%rax
    bb25:	48 89 85 40 fe ff ff 	mov    %rax,-0x1c0(%rbp)
    bb2c:	48 c7 85 48 fe ff ff 	movq   $0x0,-0x1b8(%rbp)
    bb33:	00 00 00 00 
    bb37:	48 8d 85 d8 fa ff ff 	lea    -0x528(%rbp),%rax
    bb3e:	48 89 85 50 fe ff ff 	mov    %rax,-0x1b0(%rbp)
    bb45:	48 8d 85 d8 fa ff ff 	lea    -0x528(%rbp),%rax
    bb4c:	48 89 85 58 fe ff ff 	mov    %rax,-0x1a8(%rbp)
    bb53:	48 8d 85 d8 fa ff ff 	lea    -0x528(%rbp),%rax
    bb5a:	48 89 85 60 fe ff ff 	mov    %rax,-0x1a0(%rbp)
    bb61:	48 8d 85 d8 fa ff ff 	lea    -0x528(%rbp),%rax
    bb68:	48 89 85 68 fe ff ff 	mov    %rax,-0x198(%rbp)
    bb6f:	48 8d 85 d8 fa ff ff 	lea    -0x528(%rbp),%rax
    bb76:	48 89 85 70 fe ff ff 	mov    %rax,-0x190(%rbp)
    bb7d:	48 c7 85 78 fe ff ff 	movq   $0x0,-0x188(%rbp)
    bb84:	00 00 00 00 
    bb88:	48 8d 85 d8 fa ff ff 	lea    -0x528(%rbp),%rax
    bb8f:	48 89 85 80 fe ff ff 	mov    %rax,-0x180(%rbp)
    bb96:	48 8d 85 d8 fa ff ff 	lea    -0x528(%rbp),%rax
    bb9d:	48 89 85 88 fe ff ff 	mov    %rax,-0x178(%rbp)
    bba4:	48 8d 85 d8 fa ff ff 	lea    -0x528(%rbp),%rax
    bbab:	48 89 85 90 fe ff ff 	mov    %rax,-0x170(%rbp)
    bbb2:	48 8d 85 d8 fa ff ff 	lea    -0x528(%rbp),%rax
    bbb9:	48 89 85 98 fe ff ff 	mov    %rax,-0x168(%rbp)
    bbc0:	48 8d 85 d8 fa ff ff 	lea    -0x528(%rbp),%rax
    bbc7:	48 89 85 a0 fe ff ff 	mov    %rax,-0x160(%rbp)
    bbce:	48 c7 85 a8 fe ff ff 	movq   $0x0,-0x158(%rbp)
    bbd5:	00 00 00 00 
    bbd9:	48 8d 85 d8 fa ff ff 	lea    -0x528(%rbp),%rax
    bbe0:	48 89 85 b0 fe ff ff 	mov    %rax,-0x150(%rbp)
    bbe7:	48 8d 85 d8 fa ff ff 	lea    -0x528(%rbp),%rax
    bbee:	48 89 85 b8 fe ff ff 	mov    %rax,-0x148(%rbp)
    bbf5:	48 8d 85 d8 fa ff ff 	lea    -0x528(%rbp),%rax
    bbfc:	48 89 85 c0 fe ff ff 	mov    %rax,-0x140(%rbp)
    bc03:	48 8d 85 d8 fa ff ff 	lea    -0x528(%rbp),%rax
    bc0a:	48 89 85 c8 fe ff ff 	mov    %rax,-0x138(%rbp)
    bc11:	48 8d 85 d8 fa ff ff 	lea    -0x528(%rbp),%rax
    bc18:	48 89 85 d0 fe ff ff 	mov    %rax,-0x130(%rbp)
    bc1f:	48 8d 85 d8 fa ff ff 	lea    -0x528(%rbp),%rax
    bc26:	48 89 85 d8 fe ff ff 	mov    %rax,-0x128(%rbp)
    bc2d:	48 8d 85 d8 fa ff ff 	lea    -0x528(%rbp),%rax
    bc34:	48 89 85 e0 fe ff ff 	mov    %rax,-0x120(%rbp)
    bc3b:	48 8d 85 d8 fa ff ff 	lea    -0x528(%rbp),%rax
    bc42:	48 89 85 e8 fe ff ff 	mov    %rax,-0x118(%rbp)
    bc49:	48 8d 85 d8 fa ff ff 	lea    -0x528(%rbp),%rax
    bc50:	48 89 85 f0 fe ff ff 	mov    %rax,-0x110(%rbp)
    bc57:	48 8d 85 d8 fa ff ff 	lea    -0x528(%rbp),%rax
    bc5e:	48 89 85 f8 fe ff ff 	mov    %rax,-0x108(%rbp)
    bc65:	48 8d 85 d8 fa ff ff 	lea    -0x528(%rbp),%rax
    bc6c:	48 89 85 00 ff ff ff 	mov    %rax,-0x100(%rbp)
    bc73:	48 8d 85 d8 fa ff ff 	lea    -0x528(%rbp),%rax
    bc7a:	48 89 85 08 ff ff ff 	mov    %rax,-0xf8(%rbp)
    bc81:	48 8d 85 d8 fa ff ff 	lea    -0x528(%rbp),%rax
    bc88:	48 89 85 10 ff ff ff 	mov    %rax,-0xf0(%rbp)
    bc8f:	48 8d 85 d8 fa ff ff 	lea    -0x528(%rbp),%rax
    bc96:	48 89 85 18 ff ff ff 	mov    %rax,-0xe8(%rbp)
    bc9d:	48 c7 85 20 ff ff ff 	movq   $0x0,-0xe0(%rbp)
    bca4:	00 00 00 00 
    bca8:	48 8d 85 d8 fa ff ff 	lea    -0x528(%rbp),%rax
    bcaf:	48 89 85 28 ff ff ff 	mov    %rax,-0xd8(%rbp)
    bcb6:	48 8d 85 d8 fa ff ff 	lea    -0x528(%rbp),%rax
    bcbd:	48 89 85 30 ff ff ff 	mov    %rax,-0xd0(%rbp)
    bcc4:	48 8d 85 d8 fa ff ff 	lea    -0x528(%rbp),%rax
    bccb:	48 89 85 38 ff ff ff 	mov    %rax,-0xc8(%rbp)
    bcd2:	48 8d 85 d8 fa ff ff 	lea    -0x528(%rbp),%rax
    bcd9:	48 89 85 40 ff ff ff 	mov    %rax,-0xc0(%rbp)
    bce0:	48 8d 85 d8 fa ff ff 	lea    -0x528(%rbp),%rax
    bce7:	48 89 85 48 ff ff ff 	mov    %rax,-0xb8(%rbp)
    bcee:	48 8d 85 d8 fa ff ff 	lea    -0x528(%rbp),%rax
    bcf5:	48 89 85 50 ff ff ff 	mov    %rax,-0xb0(%rbp)
    bcfc:	48 8d 85 d8 fa ff ff 	lea    -0x528(%rbp),%rax
    bd03:	48 89 85 58 ff ff ff 	mov    %rax,-0xa8(%rbp)
    bd0a:	48 8d 85 d8 fa ff ff 	lea    -0x528(%rbp),%rax
    bd11:	48 89 85 60 ff ff ff 	mov    %rax,-0xa0(%rbp)
    bd18:	48 8d 85 d8 fa ff ff 	lea    -0x528(%rbp),%rax
    bd1f:	48 89 85 68 ff ff ff 	mov    %rax,-0x98(%rbp)
    bd26:	48 8d 85 d8 fa ff ff 	lea    -0x528(%rbp),%rax
    bd2d:	48 89 85 70 ff ff ff 	mov    %rax,-0x90(%rbp)
    bd34:	48 8d 85 d8 fa ff ff 	lea    -0x528(%rbp),%rax
    bd3b:	48 89 85 78 ff ff ff 	mov    %rax,-0x88(%rbp)
    bd42:	48 8d 85 d8 fa ff ff 	lea    -0x528(%rbp),%rax
    bd49:	48 89 45 80          	mov    %rax,-0x80(%rbp)
    bd4d:	48 8d 85 d8 fa ff ff 	lea    -0x528(%rbp),%rax
    bd54:	48 89 45 88          	mov    %rax,-0x78(%rbp)
    bd58:	48 8d 85 d8 fa ff ff 	lea    -0x528(%rbp),%rax
    bd5f:	48 89 45 90          	mov    %rax,-0x70(%rbp)
    bd63:	48 8d 85 d8 fa ff ff 	lea    -0x528(%rbp),%rax
    bd6a:	48 89 45 98          	mov    %rax,-0x68(%rbp)
    bd6e:	48 8d 85 d8 fa ff ff 	lea    -0x528(%rbp),%rax
    bd75:	48 89 45 a0          	mov    %rax,-0x60(%rbp)
    bd79:	48 8d 85 d8 fa ff ff 	lea    -0x528(%rbp),%rax
    bd80:	48 89 45 a8          	mov    %rax,-0x58(%rbp)
    bd84:	48 8d 85 d8 fa ff ff 	lea    -0x528(%rbp),%rax
    bd8b:	48 89 45 b0          	mov    %rax,-0x50(%rbp)
    bd8f:	48 8d 85 d8 fa ff ff 	lea    -0x528(%rbp),%rax
    bd96:	48 89 45 b8          	mov    %rax,-0x48(%rbp)
    bd9a:	48 8d 85 d8 fa ff ff 	lea    -0x528(%rbp),%rax
    bda1:	48 89 45 c0          	mov    %rax,-0x40(%rbp)
    bda5:	48 8d 85 d8 fa ff ff 	lea    -0x528(%rbp),%rax
    bdac:	48 89 45 c8          	mov    %rax,-0x38(%rbp)
    bdb0:	48 8d 85 d8 fa ff ff 	lea    -0x528(%rbp),%rax
    bdb7:	48 89 45 d0          	mov    %rax,-0x30(%rbp)
    bdbb:	48 8d 85 d8 fa ff ff 	lea    -0x528(%rbp),%rax
    bdc2:	48 89 45 d8          	mov    %rax,-0x28(%rbp)
    bdc6:	48 8d 85 d8 fa ff ff 	lea    -0x528(%rbp),%rax
    bdcd:	48 89 45 e0          	mov    %rax,-0x20(%rbp)
    bdd1:	48 8d 85 d8 fa ff ff 	lea    -0x528(%rbp),%rax
    bdd8:	48 89 45 e8          	mov    %rax,-0x18(%rbp)
    bddc:	48 c7 85 e0 fa ff ff 	movq   $0x0,-0x520(%rbp)
    bde3:	00 00 00 00 
    bde7:	8b 05 37 12 01 00    	mov    0x11237(%rip),%eax        # 1d024 <g_2>
    bded:	98                   	cwtl   
    bdee:	be 05 00 00 00       	mov    $0x5,%esi
    bdf3:	89 c7                	mov    %eax,%edi
    bdf5:	e8 d9 e5 ff ff       	callq  a3d3 <safe_sub_func_int16_t_s_s>
    bdfa:	98                   	cwtl   
    bdfb:	89 05 23 12 01 00    	mov    %eax,0x11223(%rip)        # 1d024 <g_2>
    be01:	8b 05 1d 12 01 00    	mov    0x1121d(%rip),%eax        # 1d024 <g_2>
    be07:	83 f8 fb             	cmp    $0xfffffffb,%eax
    be0a:	0f 85 57 fb ff ff    	jne    b967 <func_1+0x1b2>
    be10:	0f b6 05 f1 4f 01 00 	movzbl 0x14ff1(%rip),%eax        # 20e08 <g_13>
    be17:	83 c0 01             	add    $0x1,%eax
    be1a:	88 05 e8 4f 01 00    	mov    %al,0x14fe8(%rip)        # 20e08 <g_13>
    be20:	c6 05 e1 4f 01 00 00 	movb   $0x0,0x14fe1(%rip)        # 20e08 <g_13>
    be27:	e9 85 05 00 00       	jmpq   c3b1 <func_1+0xbfc>
    be2c:	c7 85 ac fa ff ff fc 	movl   $0xfffffffc,-0x554(%rbp)
    be33:	ff ff ff 
    be36:	c6 85 8f fa ff ff 4d 	movb   $0x4d,-0x571(%rbp)
    be3d:	c7 85 b0 fa ff ff 23 	movl   $0xc3c70823,-0x550(%rbp)
    be44:	08 c7 c3 
    be47:	c7 85 b4 fa ff ff 84 	movl   $0x6a8a8f84,-0x54c(%rbp)
    be4e:	8f 8a 6a 
    be51:	c7 85 b8 fa ff ff ff 	movl   $0xffffffff,-0x548(%rbp)
    be58:	ff ff ff 
    be5b:	c7 85 bc fa ff ff fc 	movl   $0xfffffffc,-0x544(%rbp)
    be62:	ff ff ff 
    be65:	c7 85 c0 fa ff ff fc 	movl   $0xfffffffc,-0x540(%rbp)
    be6c:	ff ff ff 
    be6f:	48 c7 85 00 fb ff ff 	movq   $0x0,-0x500(%rbp)
    be76:	00 00 00 00 
    be7a:	c7 05 a0 11 01 00 e8 	movl   $0xffffffe8,0x111a0(%rip)        # 1d024 <g_2>
    be81:	ff ff ff 
    be84:	e9 09 05 00 00       	jmpq   c392 <func_1+0xbdd>
    be89:	48 8d 05 b0 11 01 00 	lea    0x111b0(%rip),%rax        # 1d040 <g_42>
    be90:	48 89 85 08 fb ff ff 	mov    %rax,-0x4f8(%rbp)
    be97:	48 8d 05 9a 11 01 00 	lea    0x1119a(%rip),%rax        # 1d038 <g_22>
    be9e:	48 89 85 10 fb ff ff 	mov    %rax,-0x4f0(%rbp)
    bea5:	c7 85 c4 fa ff ff 01 	movl   $0x1,-0x53c(%rbp)
    beac:	00 00 00 
    beaf:	c7 85 c8 fa ff ff a0 	movl   $0xb3d302a0,-0x538(%rbp)
    beb6:	02 d3 b3 
    beb9:	48 8d 05 90 40 01 00 	lea    0x14090(%rip),%rax        # 1ff50 <g_1498>
    bec0:	48 89 85 d8 fa ff ff 	mov    %rax,-0x528(%rbp)
    bec7:	48 8d 85 d8 fa ff ff 	lea    -0x528(%rbp),%rax
    bece:	48 89 85 18 fb ff ff 	mov    %rax,-0x4e8(%rbp)
    bed5:	c7 85 cc fa ff ff fe 	movl   $0xfffffffe,-0x534(%rbp)
    bedc:	ff ff ff 
    bedf:	66 c7 85 92 fa ff ff 	movw   $0x9faa,-0x56e(%rbp)
    bee6:	aa 9f 
    bee8:	c7 85 98 fa ff ff 00 	movl   $0x0,-0x568(%rbp)
    beef:	00 00 00 
    bef2:	e9 86 00 00 00       	jmpq   bf7d <func_1+0x7c8>
    bef7:	c7 85 9c fa ff ff 00 	movl   $0x0,-0x564(%rbp)
    befe:	00 00 00 
    bf01:	eb 6a                	jmp    bf6d <func_1+0x7b8>
    bf03:	c7 85 a0 fa ff ff 00 	movl   $0x0,-0x560(%rbp)
    bf0a:	00 00 00 
    bf0d:	eb 4e                	jmp    bf5d <func_1+0x7a8>
    bf0f:	8b 85 a0 fa ff ff    	mov    -0x560(%rbp),%eax
    bf15:	48 63 f0             	movslq %eax,%rsi
    bf18:	8b 85 98 fa ff ff    	mov    -0x568(%rbp),%eax
    bf1e:	48 63 d0             	movslq %eax,%rdx
    bf21:	8b 85 9c fa ff ff    	mov    -0x564(%rbp),%eax
    bf27:	48 63 c8             	movslq %eax,%rcx
    bf2a:	48 89 d0             	mov    %rdx,%rax
    bf2d:	48 c1 e0 03          	shl    $0x3,%rax
    bf31:	48 01 d0             	add    %rdx,%rax
    bf34:	48 c1 e0 02          	shl    $0x2,%rax
    bf38:	48 29 d0             	sub    %rdx,%rax
    bf3b:	48 89 ca             	mov    %rcx,%rdx
    bf3e:	48 c1 e2 03          	shl    $0x3,%rdx
    bf42:	48 29 ca             	sub    %rcx,%rdx
    bf45:	48 01 d0             	add    %rdx,%rax
    bf48:	48 01 f0             	add    %rsi,%rax
    bf4b:	c7 84 85 50 fd ff ff 	movl   $0xd32d6226,-0x2b0(%rbp,%rax,4)
    bf52:	26 62 2d d3 
    bf56:	83 85 a0 fa ff ff 01 	addl   $0x1,-0x560(%rbp)
    bf5d:	83 bd a0 fa ff ff 06 	cmpl   $0x6,-0x560(%rbp)
    bf64:	7e a9                	jle    bf0f <func_1+0x75a>
    bf66:	83 85 9c fa ff ff 01 	addl   $0x1,-0x564(%rbp)
    bf6d:	83 bd 9c fa ff ff 04 	cmpl   $0x4,-0x564(%rbp)
    bf74:	7e 8d                	jle    bf03 <func_1+0x74e>
    bf76:	83 85 98 fa ff ff 01 	addl   $0x1,-0x568(%rbp)
    bf7d:	83 bd 98 fa ff ff 01 	cmpl   $0x1,-0x568(%rbp)
    bf84:	0f 8e 6d ff ff ff    	jle    bef7 <func_1+0x742>
    bf8a:	8b 05 9c 10 01 00    	mov    0x1109c(%rip),%eax        # 1d02c <g_12>
    bf90:	89 05 96 10 01 00    	mov    %eax,0x11096(%rip)        # 1d02c <g_12>
    bf96:	c7 05 98 10 01 00 fd 	movl   $0xfffffffd,0x11098(%rip)        # 1d038 <g_22>
    bf9d:	ff ff ff 
    bfa0:	e9 b9 03 00 00       	jmpq   c35e <func_1+0xba9>
    bfa5:	c7 85 60 fc ff ff 00 	movl   $0x1a60100,-0x3a0(%rbp)
    bfac:	01 a6 01 
    bfaf:	c6 85 64 fc ff ff a6 	movb   $0xa6,-0x39c(%rbp)
    bfb6:	c7 85 65 fc ff ff 01 	movl   $0xffff0101,-0x39b(%rbp)
    bfbd:	01 ff ff 
    bfc0:	c6 85 69 fc ff ff a5 	movb   $0xa5,-0x397(%rbp)
    bfc7:	c7 85 6a fc ff ff f5 	movl   $0xad5bf6f5,-0x396(%rbp)
    bfce:	f6 5b ad 
    bfd1:	c6 85 6e fc ff ff 52 	movb   $0x52,-0x392(%rbp)
    bfd8:	c7 85 6f fc ff ff 5b 	movl   $0x795b,-0x391(%rbp)
    bfdf:	79 00 00 
    bfe2:	c6 85 73 fc ff ff 08 	movb   $0x8,-0x38d(%rbp)
    bfe9:	c7 85 74 fc ff ff 00 	movl   $0x379d0800,-0x38c(%rbp)
    bff0:	08 9d 37 
    bff3:	c6 85 78 fc ff ff 00 	movb   $0x0,-0x388(%rbp)
    bffa:	c7 85 79 fc ff ff 45 	movl   $0x2ff2445,-0x387(%rbp)
    c001:	24 ff 02 
    c004:	c6 85 7d fc ff ff 07 	movb   $0x7,-0x383(%rbp)
    c00b:	c7 85 7e fc ff ff a5 	movl   $0x25f9ada5,-0x382(%rbp)
    c012:	ad f9 25 
    c015:	c6 85 82 fc ff ff ff 	movb   $0xff,-0x37e(%rbp)
    c01c:	c7 85 83 fc ff ff ff 	movl   $0x457909ff,-0x37d(%rbp)
    c023:	09 79 45 
    c026:	c6 85 87 fc ff ff 28 	movb   $0x28,-0x379(%rbp)
    c02d:	c7 85 88 fc ff ff 8a 	movl   $0x2700d48a,-0x378(%rbp)
    c034:	d4 00 27 
    c037:	c6 85 8c fc ff ff 01 	movb   $0x1,-0x374(%rbp)
    c03e:	c7 85 8d fc ff ff 10 	movl   $0x27010210,-0x373(%rbp)
    c045:	02 01 27 
    c048:	c6 85 91 fc ff ff f9 	movb   $0xf9,-0x36f(%rbp)
    c04f:	c7 85 92 fc ff ff 28 	movl   $0x4500ff28,-0x36e(%rbp)
    c056:	ff 00 45 
    c059:	c6 85 96 fc ff ff f6 	movb   $0xf6,-0x36a(%rbp)
    c060:	c7 85 97 fc ff ff 08 	movl   $0x2500f508,-0x369(%rbp)
    c067:	f5 00 25 
    c06a:	c6 85 9b fc ff ff 06 	movb   $0x6,-0x365(%rbp)
    c071:	c7 85 9c fc ff ff 04 	movl   $0x2021604,-0x364(%rbp)
    c078:	16 02 02 
    c07b:	c6 85 a0 fc ff ff 16 	movb   $0x16,-0x360(%rbp)
    c082:	c7 85 a1 fc ff ff 00 	movl   $0x37fff700,-0x35f(%rbp)
    c089:	f7 ff 37 
    c08c:	c6 85 a5 fc ff ff 00 	movb   $0x0,-0x35b(%rbp)
    c093:	c7 85 a6 fc ff ff f9 	movl   $0x100f9,-0x35a(%rbp)
    c09a:	00 01 00 
    c09d:	c6 85 aa fc ff ff f6 	movb   $0xf6,-0x356(%rbp)
    c0a4:	c7 85 ab fc ff ff 37 	movl   $0xa5044537,-0x355(%rbp)
    c0ab:	45 04 a5 
    c0ae:	c6 85 af fc ff ff 01 	movb   $0x1,-0x351(%rbp)
    c0b5:	c7 85 b0 fc ff ff f9 	movl   $0x10b606f9,-0x350(%rbp)
    c0bc:	06 b6 10 
    c0bf:	c6 85 b4 fc ff ff 37 	movb   $0x37,-0x34c(%rbp)
    c0c6:	c7 85 b5 fc ff ff 00 	movl   $0x1ad0100,-0x34b(%rbp)
    c0cd:	01 ad 01 
    c0d0:	c6 85 b9 fc ff ff d4 	movb   $0xd4,-0x347(%rbp)
    c0d7:	c7 85 ba fc ff ff 04 	movl   $0xf60004,-0x346(%rbp)
    c0de:	00 f6 00 
    c0e1:	c6 85 be fc ff ff c4 	movb   $0xc4,-0x342(%rbp)
    c0e8:	c7 85 bf fc ff ff 08 	movl   $0x9d4ff08,-0x341(%rbp)
    c0ef:	ff d4 09 
    c0f2:	c6 85 c3 fc ff ff 06 	movb   $0x6,-0x33d(%rbp)
    c0f9:	c7 85 c4 fc ff ff 28 	movl   $0xf7f60428,-0x33c(%rbp)
    c100:	04 f6 f7 
    c103:	c6 85 c8 fc ff ff 5b 	movb   $0x5b,-0x338(%rbp)
    c10a:	c7 85 c9 fc ff ff 10 	movl   $0xf6f610,-0x337(%rbp)
    c111:	f6 f6 00 
    c114:	c6 85 cd fc ff ff 79 	movb   $0x79,-0x333(%rbp)
    c11b:	c7 85 ce fc ff ff 8a 	movl   $0xf6d4a58a,-0x332(%rbp)
    c122:	a5 d4 f6 
    c125:	c6 85 d2 fc ff ff 01 	movb   $0x1,-0x32e(%rbp)
    c12c:	c7 85 d3 fc ff ff ff 	movl   $0x4ff6ffff,-0x32d(%rbp)
    c133:	ff f6 4f 
    c136:	c6 85 d7 fc ff ff ab 	movb   $0xab,-0x329(%rbp)
    c13d:	c7 85 d8 fc ff ff a5 	movl   $0x79ad79a5,-0x328(%rbp)
    c144:	79 ad 79 
    c147:	c6 85 dc fc ff ff a5 	movb   $0xa5,-0x324(%rbp)
    c14e:	c7 85 dd fc ff ff 45 	movl   $0x8b6ab45,-0x323(%rbp)
    c155:	ab b6 08 
    c158:	c6 85 e1 fc ff ff 24 	movb   $0x24,-0x31f(%rbp)
    c15f:	c7 85 e2 fc ff ff 00 	movl   $0xad044f00,-0x31e(%rbp)
    c166:	4f 04 ad 
    c169:	c6 85 e6 fc ff ff 00 	movb   $0x0,-0x31a(%rbp)
    c170:	c7 85 e7 fc ff ff 25 	movl   $0xab01f925,-0x319(%rbp)
    c177:	f9 01 ab 
    c17a:	c6 85 eb fc ff ff 24 	movb   $0x24,-0x315(%rbp)
    c181:	c7 85 ec fc ff ff 02 	movl   $0x34ffad02,-0x314(%rbp)
    c188:	ad ff 34 
    c18b:	c6 85 f0 fc ff ff a5 	movb   $0xa5,-0x310(%rbp)
    c192:	c7 85 f1 fc ff ff 24 	movl   $0x702ff24,-0x30f(%rbp)
    c199:	ff 02 07 
    c19c:	c6 85 f5 fc ff ff ab 	movb   $0xab,-0x30b(%rbp)
    c1a3:	c7 85 f6 fc ff ff b8 	movl   $0x10b8,-0x30a(%rbp)
    c1aa:	10 00 00 
    c1ad:	c6 85 fa fc ff ff 01 	movb   $0x1,-0x306(%rbp)
    c1b4:	c7 85 fb fc ff ff f5 	movl   $0xa60052f5,-0x305(%rbp)
    c1bb:	52 00 a6 
    c1be:	c6 85 ff fc ff ff 79 	movb   $0x79,-0x301(%rbp)
    c1c5:	c7 85 00 fd ff ff f7 	movl   $0xf90100f7,-0x300(%rbp)
    c1cc:	00 01 f9 
    c1cf:	c6 85 04 fd ff ff 5b 	movb   $0x5b,-0x2fc(%rbp)
    c1d6:	c7 85 05 fd ff ff 00 	movl   $0x8a000000,-0x2fb(%rbp)
    c1dd:	00 00 8a 
    c1e0:	c6 85 09 fd ff ff 06 	movb   $0x6,-0x2f7(%rbp)
    c1e7:	c7 85 0a fd ff ff 06 	movl   $0xd4795206,-0x2f6(%rbp)
    c1ee:	52 79 d4 
    c1f1:	c6 85 0e fd ff ff c4 	movb   $0xc4,-0x2f2(%rbp)
    c1f8:	c7 85 0f fd ff ff 07 	movl   $0xfff91007,-0x2f1(%rbp)
    c1ff:	10 f9 ff 
    c202:	c6 85 13 fd ff ff d4 	movb   $0xd4,-0x2ed(%rbp)
    c209:	c7 85 14 fd ff ff ff 	movl   $0xffffffff,-0x2ec(%rbp)
    c210:	ff ff ff 
    c213:	c6 85 18 fd ff ff 37 	movb   $0x37,-0x2e8(%rbp)
    c21a:	c7 85 19 fd ff ff f9 	movl   $0x289dadf9,-0x2e7(%rbp)
    c221:	ad 9d 28 
    c224:	c6 85 1d fd ff ff 01 	movb   $0x1,-0x2e3(%rbp)
    c22b:	c7 85 1e fd ff ff ff 	movl   $0xad8af9ff,-0x2e2(%rbp)
    c232:	f9 8a ad 
    c235:	c6 85 22 fd ff ff f6 	movb   $0xf6,-0x2de(%rbp)
    c23c:	c7 85 23 fd ff ff 25 	movl   $0x28254f25,-0x2dd(%rbp)
    c243:	4f 25 28 
    c246:	c6 85 27 fd ff ff 00 	movb   $0x0,-0x2d9(%rbp)
    c24d:	c7 85 28 fd ff ff ff 	movl   $0xffffabff,-0x2d8(%rbp)
    c254:	ab ff ff 
    c257:	c6 85 2c fd ff ff 16 	movb   $0x16,-0x2d4(%rbp)
    c25e:	c7 85 2d fd ff ff ab 	movl   $0xff2579ab,-0x2d3(%rbp)
    c265:	79 25 ff 
    c268:	c6 85 31 fd ff ff f6 	movb   $0xf6,-0x2cf(%rbp)
    c26f:	c7 85 32 fd ff ff 01 	movl   $0xf937ff01,-0x2ce(%rbp)
    c276:	ff 37 f9 
    c279:	c6 85 36 fd ff ff 00 	movb   $0x0,-0x2ca(%rbp)
    c280:	c7 85 37 fd ff ff b8 	movl   $0x1f6f7b8,-0x2c9(%rbp)
    c287:	f7 f6 01 
    c28a:	c6 85 3b fd ff ff 79 	movb   $0x79,-0x2c5(%rbp)
    c291:	c7 85 3c fd ff ff 07 	movl   $0x52090807,-0x2c4(%rbp)
    c298:	08 09 52 
    c29b:	c6 85 40 fd ff ff 24 	movb   $0x24,-0x2c0(%rbp)
    c2a2:	c7 85 41 fd ff ff 07 	movl   $0x25f5d407,-0x2bf(%rbp)
    c2a9:	d4 f5 25 
    c2ac:	c6 85 45 fd ff ff f7 	movb   $0xf7,-0x2bb(%rbp)
    c2b3:	c7 85 46 fd ff ff b8 	movl   $0xf90006b8,-0x2ba(%rbp)
    c2ba:	06 00 f9 
    c2bd:	c6 85 4a fd ff ff 10 	movb   $0x10,-0x2b6(%rbp)
    c2c4:	c7 85 4b fd ff ff 01 	movl   $0xff01,-0x2b5(%rbp)
    c2cb:	ff 00 00 
    c2ce:	c6 85 4f fd ff ff 00 	movb   $0x0,-0x2b1(%rbp)
    c2d5:	48 c7 85 20 fb ff ff 	movq   $0x0,-0x4e0(%rbp)
    c2dc:	00 00 00 00 
    c2e0:	c7 85 d0 fa ff ff 0b 	movl   $0xea53a0b,-0x530(%rbp)
    c2e7:	3a a5 0e 
    c2ea:	c7 85 d4 fa ff ff ff 	movl   $0xffffffff,-0x52c(%rbp)
    c2f1:	ff ff ff 
    c2f4:	48 c7 85 28 fb ff ff 	movq   $0xffffffffffffffff,-0x4d8(%rbp)
    c2fb:	ff ff ff ff 
    c2ff:	48 8d 05 62 3a 01 00 	lea    0x13a62(%rip),%rax        # 1fd68 <g_1211+0x128>
    c306:	48 89 85 30 fb ff ff 	mov    %rax,-0x4d0(%rbp)
    c30d:	c7 85 a4 fa ff ff 00 	movl   $0x0,-0x55c(%rbp)
    c314:	00 00 00 
    c317:	eb 1e                	jmp    c337 <func_1+0xb82>
    c319:	8b 85 a4 fa ff ff    	mov    -0x55c(%rbp),%eax
    c31f:	48 98                	cltq   
    c321:	48 8d 15 58 32 01 00 	lea    0x13258(%rip),%rdx        # 1f580 <g_40+0x100>
    c328:	48 89 94 c5 70 fb ff 	mov    %rdx,-0x490(%rbp,%rax,8)
    c32f:	ff 
    c330:	83 85 a4 fa ff ff 01 	addl   $0x1,-0x55c(%rbp)
    c337:	83 bd a4 fa ff ff 07 	cmpl   $0x7,-0x55c(%rbp)
    c33e:	7e d9                	jle    c319 <func_1+0xb64>
    c340:	8b 05 f2 0c 01 00    	mov    0x10cf2(%rip),%eax        # 1d038 <g_22>
    c346:	0f b7 c0             	movzwl %ax,%eax
    c349:	be 01 00 00 00       	mov    $0x1,%esi
    c34e:	89 c7                	mov    %eax,%edi
    c350:	e8 ca e9 ff ff       	callq  ad1f <safe_sub_func_uint16_t_u_u>
    c355:	0f b7 c0             	movzwl %ax,%eax
    c358:	89 05 da 0c 01 00    	mov    %eax,0x10cda(%rip)        # 1d038 <g_22>
    c35e:	8b 05 d4 0c 01 00    	mov    0x10cd4(%rip),%eax        # 1d038 <g_22>
    c364:	83 f8 ea             	cmp    $0xffffffea,%eax
    c367:	0f 8d 38 fc ff ff    	jge    bfa5 <func_1+0x7f0>
    c36d:	83 bd bc fa ff ff 00 	cmpl   $0x0,-0x544(%rbp)
    c374:	8b 05 aa 0c 01 00    	mov    0x10caa(%rip),%eax        # 1d024 <g_2>
    c37a:	0f be c0             	movsbl %al,%eax
    c37d:	be 09 00 00 00       	mov    $0x9,%esi
    c382:	89 c7                	mov    %eax,%edi
    c384:	e8 4b de ff ff       	callq  a1d4 <safe_add_func_int8_t_s_s>
    c389:	0f be c0             	movsbl %al,%eax
    c38c:	89 05 92 0c 01 00    	mov    %eax,0x10c92(%rip)        # 1d024 <g_2>
    c392:	8b 05 8c 0c 01 00    	mov    0x10c8c(%rip),%eax        # 1d024 <g_2>
    c398:	83 f8 1b             	cmp    $0x1b,%eax
    c39b:	0f 8f e8 fa ff ff    	jg     be89 <func_1+0x6d4>
    c3a1:	0f b6 05 60 4a 01 00 	movzbl 0x14a60(%rip),%eax        # 20e08 <g_13>
    c3a8:	83 c0 01             	add    $0x1,%eax
    c3ab:	88 05 57 4a 01 00    	mov    %al,0x14a57(%rip)        # 20e08 <g_13>
    c3b1:	0f b6 05 50 4a 01 00 	movzbl 0x14a50(%rip),%eax        # 20e08 <g_13>
    c3b8:	3c 06                	cmp    $0x6,%al
    c3ba:	0f 85 6c fa ff ff    	jne    be2c <func_1+0x677>
    c3c0:	b8 1b 2c 1b bc       	mov    $0xbc1b2c1b,%eax
    c3c5:	48 8b 4d f8          	mov    -0x8(%rbp),%rcx
    c3c9:	64 48 33 0c 25 28 00 	xor    %fs:0x28,%rcx
    c3d0:	00 00 
    c3d2:	74 05                	je     c3d9 <func_1+0xc24>
    c3d4:	e8 97 dc ff ff       	callq  a070 <__stack_chk_fail@plt>
    c3d9:	c9                   	leaveq 
    c3da:	c3                   	retq   

000000000000c3db <func_25>:
    c3db:	f3 0f 1e fa          	endbr64 
    c3df:	55                   	push   %rbp
    c3e0:	48 89 e5             	mov    %rsp,%rbp
    c3e3:	41 54                	push   %r12
    c3e5:	53                   	push   %rbx
    c3e6:	48 81 ec b0 07 00 00 	sub    $0x7b0,%rsp
    c3ed:	48 89 bd 48 f8 ff ff 	mov    %rdi,-0x7b8(%rbp)
    c3f4:	64 48 8b 04 25 28 00 	mov    %fs:0x28,%rax
    c3fb:	00 00 
    c3fd:	48 89 45 e8          	mov    %rax,-0x18(%rbp)
    c401:	31 c0                	xor    %eax,%eax
    c403:	48 8d 05 f2 0e 01 00 	lea    0x10ef2(%rip),%rax        # 1d2fc <g_650>
    c40a:	48 89 85 70 f8 ff ff 	mov    %rax,-0x790(%rbp)
    c411:	c7 85 54 f8 ff ff 00 	movl   $0x0,-0x7ac(%rbp)
    c418:	00 00 00 
    c41b:	48 8d 85 c0 fc ff ff 	lea    -0x340(%rbp),%rax
    c422:	48 8d 15 37 10 01 00 	lea    0x11037(%rip),%rdx        # 1d460 <g_2124+0x14>
    c429:	b9 64 00 00 00       	mov    $0x64,%ecx
    c42e:	48 89 c7             	mov    %rax,%rdi
    c431:	48 89 d6             	mov    %rdx,%rsi
    c434:	f3 48 a5             	rep movsq %ds:(%rsi),%es:(%rdi)
    c437:	c7 85 5c f8 ff ff ff 	movl   $0xffffffff,-0x7a4(%rbp)
    c43e:	ff ff ff 
    c441:	48 8d 85 e0 f8 ff ff 	lea    -0x720(%rbp),%rax
    c448:	48 8d 15 31 13 01 00 	lea    0x11331(%rip),%rdx        # 1d780 <g_2124+0x334>
    c44f:	b9 28 00 00 00       	mov    $0x28,%ecx
    c454:	48 89 c7             	mov    %rax,%rdi
    c457:	48 89 d6             	mov    %rdx,%rsi
    c45a:	f3 48 a5             	rep movsq %ds:(%rsi),%es:(%rdi)
    c45d:	c6 85 52 f8 ff ff 01 	movb   $0x1,-0x7ae(%rbp)
    c464:	48 8d 05 99 0c 01 00 	lea    0x10c99(%rip),%rax        # 1d104 <g_159+0x4>
    c46b:	48 89 85 a0 f8 ff ff 	mov    %rax,-0x760(%rbp)
    c472:	48 8d 05 8b 0c 01 00 	lea    0x10c8b(%rip),%rax        # 1d104 <g_159+0x4>
    c479:	48 89 85 a8 f8 ff ff 	mov    %rax,-0x758(%rbp)
    c480:	48 8d 05 7d 0c 01 00 	lea    0x10c7d(%rip),%rax        # 1d104 <g_159+0x4>
    c487:	48 89 85 b0 f8 ff ff 	mov    %rax,-0x750(%rbp)
    c48e:	48 8d 05 6f 0c 01 00 	lea    0x10c6f(%rip),%rax        # 1d104 <g_159+0x4>
    c495:	48 89 85 b8 f8 ff ff 	mov    %rax,-0x748(%rbp)
    c49c:	48 8d 05 61 0c 01 00 	lea    0x10c61(%rip),%rax        # 1d104 <g_159+0x4>
    c4a3:	48 89 85 c0 f8 ff ff 	mov    %rax,-0x740(%rbp)
    c4aa:	48 8d 05 53 0c 01 00 	lea    0x10c53(%rip),%rax        # 1d104 <g_159+0x4>
    c4b1:	48 89 85 c8 f8 ff ff 	mov    %rax,-0x738(%rbp)
    c4b8:	48 8d 05 45 0c 01 00 	lea    0x10c45(%rip),%rax        # 1d104 <g_159+0x4>
    c4bf:	48 89 85 d0 f8 ff ff 	mov    %rax,-0x730(%rbp)
    c4c6:	48 8d 05 37 0c 01 00 	lea    0x10c37(%rip),%rax        # 1d104 <g_159+0x4>
    c4cd:	48 89 85 d8 f8 ff ff 	mov    %rax,-0x728(%rbp)
    c4d4:	c7 85 58 f8 ff ff 00 	movl   $0x0,-0x7a8(%rbp)
    c4db:	00 00 00 
    c4de:	eb 19                	jmp    c4f9 <func_25+0x11e>
    c4e0:	8b 85 58 f8 ff ff    	mov    -0x7a8(%rbp),%eax
    c4e6:	48 98                	cltq   
    c4e8:	66 c7 84 45 94 f8 ff 	movw   $0x5fa2,-0x76c(%rbp,%rax,2)
    c4ef:	ff a2 5f 
    c4f2:	83 85 58 f8 ff ff 01 	addl   $0x1,-0x7a8(%rbp)
    c4f9:	83 bd 58 f8 ff ff 05 	cmpl   $0x5,-0x7a8(%rbp)
    c500:	7e de                	jle    c4e0 <func_25+0x105>
    c502:	48 8b 85 70 f8 ff ff 	mov    -0x790(%rbp),%rax
    c509:	8b 10                	mov    (%rax),%edx
    c50b:	48 8b 85 70 f8 ff ff 	mov    -0x790(%rbp),%rax
    c512:	89 10                	mov    %edx,(%rax)
    c514:	48 8b 85 70 f8 ff ff 	mov    -0x790(%rbp),%rax
    c51b:	8b 00                	mov    (%rax),%eax
    c51d:	0f b6 c0             	movzbl %al,%eax
    c520:	be 8f 00 00 00       	mov    $0x8f,%esi
    c525:	89 c7                	mov    %eax,%edi
    c527:	e8 67 e6 ff ff       	callq  ab93 <safe_mul_func_uint8_t_u_u>
    c52c:	0f b6 d0             	movzbl %al,%edx
    c52f:	48 8b 85 70 f8 ff ff 	mov    -0x790(%rbp),%rax
    c536:	8b 00                	mov    (%rax),%eax
    c538:	39 c2                	cmp    %eax,%edx
    c53a:	0f 9c c0             	setl   %al
    c53d:	0f b6 c0             	movzbl %al,%eax
    c540:	31 85 54 f8 ff ff    	xor    %eax,-0x7ac(%rbp)
    c546:	c7 85 54 f8 ff ff e5 	movl   $0xffffffe5,-0x7ac(%rbp)
    c54d:	ff ff ff 
    c550:	e9 a7 02 00 00       	jmpq   c7fc <func_25+0x421>
    c555:	c6 85 53 f8 ff ff 00 	movb   $0x0,-0x7ad(%rbp)
    c55c:	48 8d 85 20 fa ff ff 	lea    -0x5e0(%rbp),%rax
    c563:	48 8d 15 56 13 01 00 	lea    0x11356(%rip),%rdx        # 1d8c0 <g_2124+0x474>
    c56a:	b9 54 00 00 00       	mov    $0x54,%ecx
    c56f:	48 89 c7             	mov    %rax,%rdi
    c572:	48 89 d6             	mov    %rdx,%rsi
    c575:	f3 48 a5             	rep movsq %ds:(%rsi),%es:(%rdi)
    c578:	c7 85 60 f8 ff ff ff 	movl   $0xffffffff,-0x7a0(%rbp)
    c57f:	ff ff ff 
    c582:	48 8d 05 87 0e 01 00 	lea    0x10e87(%rip),%rax        # 1d410 <g_1900>
    c589:	48 89 85 78 f8 ff ff 	mov    %rax,-0x788(%rbp)
    c590:	48 c7 85 80 f8 ff ff 	movq   $0x0,-0x780(%rbp)
    c597:	00 00 00 00 
    c59b:	48 b8 c6 25 e5 6b 49 	movabs $0xf5867e496be525c6,%rax
    c5a2:	7e 86 f5 
    c5a5:	48 89 85 68 f8 ff ff 	mov    %rax,-0x798(%rbp)
    c5ac:	48 8d 05 9d 30 01 00 	lea    0x1309d(%rip),%rax        # 1f650 <g_211>
    c5b3:	48 89 85 88 f8 ff ff 	mov    %rax,-0x778(%rbp)
    c5ba:	c7 85 64 f8 ff ff 49 	movl   $0x141d9449,-0x79c(%rbp)
    c5c1:	94 1d 14 
    c5c4:	48 8b 85 70 f8 ff ff 	mov    -0x790(%rbp),%rax
    c5cb:	8b 10                	mov    (%rax),%edx
    c5cd:	0f be 85 53 f8 ff ff 	movsbl -0x7ad(%rbp),%eax
    c5d4:	09 c2                	or     %eax,%edx
    c5d6:	48 8b 85 70 f8 ff ff 	mov    -0x790(%rbp),%rax
    c5dd:	89 10                	mov    %edx,(%rax)
    c5df:	48 8b 85 70 f8 ff ff 	mov    -0x790(%rbp),%rax
    c5e6:	8b 10                	mov    (%rax),%edx
    c5e8:	48 8b 85 70 f8 ff ff 	mov    -0x790(%rbp),%rax
    c5ef:	89 10                	mov    %edx,(%rax)
    c5f1:	0f b6 05 fc 0d 01 00 	movzbl 0x10dfc(%rip),%eax        # 1d3f4 <g_1333>
    c5f8:	0f be d8             	movsbl %al,%ebx
    c5fb:	44 0f be a5 53 f8 ff 	movsbl -0x7ad(%rbp),%r12d
    c602:	ff 
    c603:	66 0f be 85 53 f8 ff 	movsbw -0x7ad(%rbp),%ax
    c60a:	ff 
    c60b:	66 0d c2 51          	or     $0x51c2,%ax
    c60f:	98                   	cwtl   
    c610:	be ee 12 00 00       	mov    $0x12ee,%esi
    c615:	89 c7                	mov    %eax,%edi
    c617:	e8 b7 dd ff ff       	callq  a3d3 <safe_sub_func_int16_t_s_s>
    c61c:	0f be 85 53 f8 ff ff 	movsbl -0x7ad(%rbp),%eax
    c623:	83 f8 f6             	cmp    $0xfffffff6,%eax
    c626:	0f 95 c0             	setne  %al
    c629:	0f b6 c0             	movzbl %al,%eax
    c62c:	44 89 e6             	mov    %r12d,%esi
    c62f:	89 c7                	mov    %eax,%edi
    c631:	e8 d0 e7 ff ff       	callq  ae06 <safe_lshift_func_uint16_t_u_u>
    c636:	0f be 85 53 f8 ff ff 	movsbl -0x7ad(%rbp),%eax
    c63d:	89 c6                	mov    %eax,%esi
    c63f:	bf 04 00 00 00       	mov    $0x4,%edi
    c644:	e8 e1 de ff ff       	callq  a52a <safe_rshift_func_int16_t_s_s>
    c649:	66 83 f8 01          	cmp    $0x1,%ax
    c64d:	75 0d                	jne    c65c <func_25+0x281>
    c64f:	48 8b 85 70 f8 ff ff 	mov    -0x790(%rbp),%rax
    c656:	8b 00                	mov    (%rax),%eax
    c658:	85 c0                	test   %eax,%eax
    c65a:	74 07                	je     c663 <func_25+0x288>
    c65c:	b8 01 00 00 00       	mov    $0x1,%eax
    c661:	eb 05                	jmp    c668 <func_25+0x28d>
    c663:	b8 00 00 00 00       	mov    $0x0,%eax
    c668:	98                   	cwtl   
    c669:	89 de                	mov    %ebx,%esi
    c66b:	89 c7                	mov    %eax,%edi
    c66d:	e8 a4 dd ff ff       	callq  a416 <safe_mod_func_int16_t_s_s>
    c672:	0f bf d0             	movswl %ax,%edx
    c675:	0f be 85 53 f8 ff ff 	movsbl -0x7ad(%rbp),%eax
    c67c:	31 d0                	xor    %edx,%eax
    c67e:	39 85 5c f8 ff ff    	cmp    %eax,-0x7a4(%rbp)
    c684:	77 11                	ja     c697 <func_25+0x2bc>
    c686:	8b 05 f4 0c 01 00    	mov    0x10cf4(%rip),%eax        # 1d380 <g_1017>
    c68c:	85 c0                	test   %eax,%eax
    c68e:	74 07                	je     c697 <func_25+0x2bc>
    c690:	b8 01 00 00 00       	mov    $0x1,%eax
    c695:	eb 05                	jmp    c69c <func_25+0x2c1>
    c697:	b8 00 00 00 00       	mov    $0x0,%eax
    c69c:	98                   	cwtl   
    c69d:	be 08 00 00 00       	mov    $0x8,%esi
    c6a2:	89 c7                	mov    %eax,%edi
    c6a4:	e8 38 de ff ff       	callq  a4e1 <safe_lshift_func_int16_t_s_u>
    c6a9:	0f b6 c0             	movzbl %al,%eax
    c6ac:	89 c6                	mov    %eax,%esi
    c6ae:	bf 01 00 00 00       	mov    $0x1,%edi
    c6b3:	e8 c0 e4 ff ff       	callq  ab78 <safe_sub_func_uint8_t_u_u>
    c6b8:	0f b6 d0             	movzbl %al,%edx
    c6bb:	48 8b 85 e0 fd ff ff 	mov    -0x220(%rbp),%rax
    c6c2:	48 85 c0             	test   %rax,%rax
    c6c5:	0f 95 c0             	setne  %al
    c6c8:	0f b6 c0             	movzbl %al,%eax
    c6cb:	48 89 d6             	mov    %rdx,%rsi
    c6ce:	48 89 c7             	mov    %rax,%rdi
    c6d1:	e8 d2 e1 ff ff       	callq  a8a8 <safe_sub_func_int64_t_s_s>
    c6d6:	89 85 60 f8 ff ff    	mov    %eax,-0x7a0(%rbp)
    c6dc:	8b 95 60 f8 ff ff    	mov    -0x7a0(%rbp),%edx
    c6e2:	8b 05 a0 09 01 00    	mov    0x109a0(%rip),%eax        # 1d088 <g_118>
    c6e8:	31 d0                	xor    %edx,%eax
    c6ea:	89 05 98 09 01 00    	mov    %eax,0x10998(%rip)        # 1d088 <g_118>
    c6f0:	48 8b 85 70 f8 ff ff 	mov    -0x790(%rbp),%rax
    c6f7:	8b 10                	mov    (%rax),%edx
    c6f9:	8b 85 60 f8 ff ff    	mov    -0x7a0(%rbp),%eax
    c6ff:	88 85 52 f8 ff ff    	mov    %al,-0x7ae(%rbp)
    c705:	0f b6 85 52 f8 ff ff 	movzbl -0x7ae(%rbp),%eax
    c70c:	39 c2                	cmp    %eax,%edx
    c70e:	48 8b 85 70 f8 ff ff 	mov    -0x790(%rbp),%rax
    c715:	8b 18                	mov    (%rax),%ebx
    c717:	8b 85 64 f8 ff ff    	mov    -0x79c(%rbp),%eax
    c71d:	0f b7 d0             	movzwl %ax,%edx
    c720:	48 8b 85 b8 f8 ff ff 	mov    -0x748(%rbp),%rax
    c727:	48 8d 0d d4 09 01 00 	lea    0x109d4(%rip),%rcx        # 1d102 <g_159+0x2>
    c72e:	48 39 c8             	cmp    %rcx,%rax
    c731:	0f 95 c0             	setne  %al
    c734:	0f b6 c0             	movzbl %al,%eax
    c737:	89 d6                	mov    %edx,%esi
    c739:	89 c7                	mov    %eax,%edi
    c73b:	e8 fd e5 ff ff       	callq  ad3d <safe_mul_func_uint16_t_u_u>
    c740:	0f b6 c0             	movzbl %al,%eax
    c743:	89 de                	mov    %ebx,%esi
    c745:	89 c7                	mov    %eax,%edi
    c747:	e8 b9 e4 ff ff       	callq  ac05 <safe_lshift_func_uint8_t_u_s>
    c74c:	48 8b 05 f5 2e 01 00 	mov    0x12ef5(%rip),%rax        # 1f648 <g_151>
    c753:	48 8b 00             	mov    (%rax),%rax
    c756:	8b 00                	mov    (%rax),%eax
    c758:	8b 05 d2 08 01 00    	mov    0x108d2(%rip),%eax        # 1d030 <g_20>
    c75e:	48 63 d8             	movslq %eax,%rbx
    c761:	48 8b 85 88 f8 ff ff 	mov    -0x778(%rbp),%rax
    c768:	48 8d 95 48 f8 ff ff 	lea    -0x7b8(%rbp),%rdx
    c76f:	48 89 10             	mov    %rdx,(%rax)
    c772:	48 8b 85 88 f8 ff ff 	mov    -0x778(%rbp),%rax
    c779:	48 8b 10             	mov    (%rax),%rdx
    c77c:	48 8b 05 1d 2f 01 00 	mov    0x12f1d(%rip),%rax        # 1f6a0 <g_329>
    c783:	48 8b 00             	mov    (%rax),%rax
    c786:	48 8b 00             	mov    (%rax),%rax
    c789:	48 39 c2             	cmp    %rax,%rdx
    c78c:	0f 95 c0             	setne  %al
    c78f:	0f b6 c0             	movzbl %al,%eax
    c792:	be 05 00 00 00       	mov    $0x5,%esi
    c797:	89 c7                	mov    %eax,%edi
    c799:	e8 ae e4 ff ff       	callq  ac4c <safe_lshift_func_uint8_t_u_u>
    c79e:	0f b6 c0             	movzbl %al,%eax
    c7a1:	48 89 de             	mov    %rbx,%rsi
    c7a4:	48 89 c7             	mov    %rax,%rdi
    c7a7:	e8 d4 e8 ff ff       	callq  b080 <safe_mod_func_uint64_t_u_u>
    c7ac:	0f be c0             	movsbl %al,%eax
    c7af:	be 01 00 00 00       	mov    $0x1,%esi
    c7b4:	89 c7                	mov    %eax,%edi
    c7b6:	e8 33 db ff ff       	callq  a2ee <safe_lshift_func_int8_t_s_u>
    c7bb:	48 8b 85 78 f8 ff ff 	mov    -0x788(%rbp),%rax
    c7c2:	48 89 85 a8 f9 ff ff 	mov    %rax,-0x658(%rbp)
    c7c9:	48 8b 85 a8 f9 ff ff 	mov    -0x658(%rbp),%rax
    c7d0:	48 39 85 70 f8 ff ff 	cmp    %rax,-0x790(%rbp)
    c7d7:	0f 95 c0             	setne  %al
    c7da:	0f b6 c0             	movzbl %al,%eax
    c7dd:	be 4f 00 00 00       	mov    $0x4f,%esi
    c7e2:	89 c7                	mov    %eax,%edi
    c7e4:	e8 eb d9 ff ff       	callq  a1d4 <safe_add_func_int8_t_s_s>
    c7e9:	0f be d0             	movsbl %al,%edx
    c7ec:	48 8b 85 70 f8 ff ff 	mov    -0x790(%rbp),%rax
    c7f3:	89 10                	mov    %edx,(%rax)
    c7f5:	83 ad 54 f8 ff ff 01 	subl   $0x1,-0x7ac(%rbp)
    c7fc:	83 bd 54 f8 ff ff e2 	cmpl   $0xffffffe2,-0x7ac(%rbp)
    c803:	0f 85 4c fd ff ff    	jne    c555 <func_25+0x17a>
    c809:	48 8b 85 70 f8 ff ff 	mov    -0x790(%rbp),%rax
    c810:	8b 00                	mov    (%rax),%eax
    c812:	48 8b 5d e8          	mov    -0x18(%rbp),%rbx
    c816:	64 48 33 1c 25 28 00 	xor    %fs:0x28,%rbx
    c81d:	00 00 
    c81f:	74 05                	je     c826 <func_25+0x44b>
    c821:	e8 4a d8 ff ff       	callq  a070 <__stack_chk_fail@plt>
    c826:	48 81 c4 b0 07 00 00 	add    $0x7b0,%rsp
    c82d:	5b                   	pop    %rbx
    c82e:	41 5c                	pop    %r12
    c830:	5d                   	pop    %rbp
    c831:	c3                   	retq   

000000000000c832 <func_27>:
    c832:	f3 0f 1e fa          	endbr64 
    c836:	55                   	push   %rbp
    c837:	48 89 e5             	mov    %rsp,%rbp
    c83a:	41 57                	push   %r15
    c83c:	41 56                	push   %r14
    c83e:	41 55                	push   %r13
    c840:	41 54                	push   %r12
    c842:	53                   	push   %rbx
    c843:	48 81 ec 00 10 00 00 	sub    $0x1000,%rsp
    c84a:	48 83 0c 24 00       	orq    $0x0,(%rsp)
    c84f:	48 81 ec 38 09 00 00 	sub    $0x938,%rsp
    c856:	89 bd bc e6 ff ff    	mov    %edi,-0x1944(%rbp)
    c85c:	48 89 b5 b0 e6 ff ff 	mov    %rsi,-0x1950(%rbp)
    c863:	48 89 95 a8 e6 ff ff 	mov    %rdx,-0x1958(%rbp)
    c86a:	48 89 8d a0 e6 ff ff 	mov    %rcx,-0x1960(%rbp)
    c871:	64 48 8b 04 25 28 00 	mov    %fs:0x28,%rax
    c878:	00 00 
    c87a:	48 89 45 c8          	mov    %rax,-0x38(%rbp)
    c87e:	31 c0                	xor    %eax,%eax
    c880:	c7 85 18 e7 ff ff 3d 	movl   $0x6adb2f3d,-0x18e8(%rbp)
    c887:	2f db 6a 
    c88a:	48 8d 05 bb 07 01 00 	lea    0x107bb(%rip),%rax        # 1d04c <g_85>
    c891:	48 89 85 e8 e7 ff ff 	mov    %rax,-0x1818(%rbp)
    c898:	48 c7 85 d8 e7 ff ff 	movq   $0x1,-0x1828(%rbp)
    c89f:	01 00 00 00 
    c8a3:	48 8d 85 80 f5 ff ff 	lea    -0xa80(%rbp),%rax
    c8aa:	48 8d 15 af 12 01 00 	lea    0x112af(%rip),%rdx        # 1db60 <g_2124+0x714>
    c8b1:	b9 93 00 00 00       	mov    $0x93,%ecx
    c8b6:	48 89 c7             	mov    %rax,%rdi
    c8b9:	48 89 d6             	mov    %rdx,%rsi
    c8bc:	f3 48 a5             	rep movsq %ds:(%rsi),%es:(%rdi)
    c8bf:	66 c7 85 ce e6 ff ff 	movw   $0x0,-0x1932(%rbp)
    c8c6:	00 00 
    c8c8:	c7 85 dc e6 ff ff f6 	movl   $0xfffffff6,-0x1924(%rbp)
    c8cf:	ff ff ff 
    c8d2:	c7 85 e0 e6 ff ff 01 	movl   $0x1,-0x1920(%rbp)
    c8d9:	00 00 00 
    c8dc:	66 c7 85 d4 e6 ff ff 	movw   $0x1,-0x192c(%rbp)
    c8e3:	01 00 
    c8e5:	48 c7 85 58 e7 ff ff 	movq   $0x0,-0x18a8(%rbp)
    c8ec:	00 00 00 00 
    c8f0:	48 8d 85 58 e7 ff ff 	lea    -0x18a8(%rbp),%rax
    c8f7:	48 89 85 70 eb ff ff 	mov    %rax,-0x1490(%rbp)
    c8fe:	48 8d 85 58 e7 ff ff 	lea    -0x18a8(%rbp),%rax
    c905:	48 89 85 78 eb ff ff 	mov    %rax,-0x1488(%rbp)
    c90c:	48 8d 85 58 e7 ff ff 	lea    -0x18a8(%rbp),%rax
    c913:	48 89 85 80 eb ff ff 	mov    %rax,-0x1480(%rbp)
    c91a:	48 8d 85 58 e7 ff ff 	lea    -0x18a8(%rbp),%rax
    c921:	48 89 85 88 eb ff ff 	mov    %rax,-0x1478(%rbp)
    c928:	48 8d 85 58 e7 ff ff 	lea    -0x18a8(%rbp),%rax
    c92f:	48 89 85 90 eb ff ff 	mov    %rax,-0x1470(%rbp)
    c936:	48 c7 85 98 eb ff ff 	movq   $0x0,-0x1468(%rbp)
    c93d:	00 00 00 00 
    c941:	48 8d 85 58 e7 ff ff 	lea    -0x18a8(%rbp),%rax
    c948:	48 89 85 a0 eb ff ff 	mov    %rax,-0x1460(%rbp)
    c94f:	48 8d 85 58 e7 ff ff 	lea    -0x18a8(%rbp),%rax
    c956:	48 89 85 a8 eb ff ff 	mov    %rax,-0x1458(%rbp)
    c95d:	48 8d 85 58 e7 ff ff 	lea    -0x18a8(%rbp),%rax
    c964:	48 89 85 b0 eb ff ff 	mov    %rax,-0x1450(%rbp)
    c96b:	48 8d 85 58 e7 ff ff 	lea    -0x18a8(%rbp),%rax
    c972:	48 89 85 b8 eb ff ff 	mov    %rax,-0x1448(%rbp)
    c979:	48 8d 85 58 e7 ff ff 	lea    -0x18a8(%rbp),%rax
    c980:	48 89 85 c0 eb ff ff 	mov    %rax,-0x1440(%rbp)
    c987:	48 8d 85 58 e7 ff ff 	lea    -0x18a8(%rbp),%rax
    c98e:	48 89 85 c8 eb ff ff 	mov    %rax,-0x1438(%rbp)
    c995:	48 8d 85 58 e7 ff ff 	lea    -0x18a8(%rbp),%rax
    c99c:	48 89 85 d0 eb ff ff 	mov    %rax,-0x1430(%rbp)
    c9a3:	48 c7 85 d8 eb ff ff 	movq   $0x0,-0x1428(%rbp)
    c9aa:	00 00 00 00 
    c9ae:	48 8d 85 58 e7 ff ff 	lea    -0x18a8(%rbp),%rax
    c9b5:	48 89 85 e0 eb ff ff 	mov    %rax,-0x1420(%rbp)
    c9bc:	48 8d 85 58 e7 ff ff 	lea    -0x18a8(%rbp),%rax
    c9c3:	48 89 85 e8 eb ff ff 	mov    %rax,-0x1418(%rbp)
    c9ca:	48 8d 85 58 e7 ff ff 	lea    -0x18a8(%rbp),%rax
    c9d1:	48 89 85 f0 eb ff ff 	mov    %rax,-0x1410(%rbp)
    c9d8:	48 8d 85 58 e7 ff ff 	lea    -0x18a8(%rbp),%rax
    c9df:	48 89 85 f8 eb ff ff 	mov    %rax,-0x1408(%rbp)
    c9e6:	48 8d 85 58 e7 ff ff 	lea    -0x18a8(%rbp),%rax
    c9ed:	48 89 85 00 ec ff ff 	mov    %rax,-0x1400(%rbp)
    c9f4:	48 8d 85 58 e7 ff ff 	lea    -0x18a8(%rbp),%rax
    c9fb:	48 89 85 08 ec ff ff 	mov    %rax,-0x13f8(%rbp)
    ca02:	48 8d 85 58 e7 ff ff 	lea    -0x18a8(%rbp),%rax
    ca09:	48 89 85 10 ec ff ff 	mov    %rax,-0x13f0(%rbp)
    ca10:	48 8d 85 58 e7 ff ff 	lea    -0x18a8(%rbp),%rax
    ca17:	48 89 85 18 ec ff ff 	mov    %rax,-0x13e8(%rbp)
    ca1e:	48 8d 85 58 e7 ff ff 	lea    -0x18a8(%rbp),%rax
    ca25:	48 89 85 20 ec ff ff 	mov    %rax,-0x13e0(%rbp)
    ca2c:	48 8d 85 58 e7 ff ff 	lea    -0x18a8(%rbp),%rax
    ca33:	48 89 85 28 ec ff ff 	mov    %rax,-0x13d8(%rbp)
    ca3a:	48 8d 85 70 eb ff ff 	lea    -0x1490(%rbp),%rax
    ca41:	48 83 c0 08          	add    $0x8,%rax
    ca45:	48 89 85 60 e7 ff ff 	mov    %rax,-0x18a0(%rbp)
    ca4c:	48 b8 61 22 30 c1 50 	movabs $0xec567a50c1302261,%rax
    ca53:	7a 56 ec 
    ca56:	48 89 85 68 e7 ff ff 	mov    %rax,-0x1898(%rbp)
    ca5d:	48 c7 85 70 e7 ff ff 	movq   $0x1,-0x1890(%rbp)
    ca64:	01 00 00 00 
    ca68:	c7 85 70 ea ff ff ff 	movl   $0xffffffff,-0x1590(%rbp)
    ca6f:	ff ff ff 
    ca72:	c7 85 74 ea ff ff af 	movl   $0x3bf6b3af,-0x158c(%rbp)
    ca79:	b3 f6 3b 
    ca7c:	c7 85 78 ea ff ff ff 	movl   $0xffffffff,-0x1588(%rbp)
    ca83:	ff ff ff 
    ca86:	c7 85 7c ea ff ff af 	movl   $0x3bf6b3af,-0x1584(%rbp)
    ca8d:	b3 f6 3b 
    ca90:	c7 85 80 ea ff ff ff 	movl   $0xffffffff,-0x1580(%rbp)
    ca97:	ff ff ff 
    ca9a:	c7 85 84 ea ff ff af 	movl   $0x3bf6b3af,-0x157c(%rbp)
    caa1:	b3 f6 3b 
    caa4:	c7 85 88 ea ff ff ff 	movl   $0xffffffff,-0x1578(%rbp)
    caab:	ff ff ff 
    caae:	c7 85 8c ea ff ff af 	movl   $0x3bf6b3af,-0x1574(%rbp)
    cab5:	b3 f6 3b 
    cab8:	48 8d 85 e0 ef ff ff 	lea    -0x1020(%rbp),%rax
    cabf:	48 8d 15 3a 15 01 00 	lea    0x1153a(%rip),%rdx        # 1e000 <g_2124+0xbb4>
    cac6:	b9 51 00 00 00       	mov    $0x51,%ecx
    cacb:	48 89 c7             	mov    %rax,%rdi
    cace:	48 89 d6             	mov    %rdx,%rsi
    cad1:	f3 48 a5             	rep movsq %ds:(%rsi),%es:(%rdi)
    cad4:	48 8d 85 e0 ef ff ff 	lea    -0x1020(%rbp),%rax
    cadb:	48 05 00 01 00 00    	add    $0x100,%rax
    cae1:	48 89 85 f0 e7 ff ff 	mov    %rax,-0x1810(%rbp)
    cae8:	48 8d 05 51 29 01 00 	lea    0x12951(%rip),%rax        # 1f440 <g_41>
    caef:	48 89 85 f8 e7 ff ff 	mov    %rax,-0x1808(%rbp)
    caf6:	c7 85 1c e7 ff ff 23 	movl   $0x919b4023,-0x18e4(%rbp)
    cafd:	40 9b 91 
    cb00:	c7 85 20 e7 ff ff 01 	movl   $0x1,-0x18e0(%rbp)
    cb07:	00 00 00 
    cb0a:	48 8d 05 13 05 01 00 	lea    0x10513(%rip),%rax        # 1d024 <g_2>
    cb11:	48 89 85 00 e8 ff ff 	mov    %rax,-0x1800(%rbp)
    cb18:	c7 85 e4 e6 ff ff 9f 	movl   $0x8143b59f,-0x191c(%rbp)
    cb1f:	b5 43 81 
    cb22:	48 8d 05 13 05 01 00 	lea    0x10513(%rip),%rax        # 1d03c <g_32>
    cb29:	48 89 85 78 e7 ff ff 	mov    %rax,-0x1888(%rbp)
    cb30:	48 8d 85 e8 e9 ff ff 	lea    -0x1618(%rbp),%rax
    cb37:	48 89 85 80 e7 ff ff 	mov    %rax,-0x1880(%rbp)
    cb3e:	48 8d 85 80 e7 ff ff 	lea    -0x1880(%rbp),%rax
    cb45:	48 89 85 08 e8 ff ff 	mov    %rax,-0x17f8(%rbp)
    cb4c:	48 8d 05 a1 07 01 00 	lea    0x107a1(%rip),%rax        # 1d2f4 <g_623>
    cb53:	48 89 85 10 e8 ff ff 	mov    %rax,-0x17f0(%rbp)
    cb5a:	48 c7 85 18 e8 ff ff 	movq   $0x0,-0x17e8(%rbp)
    cb61:	00 00 00 00 
    cb65:	c7 85 f4 e6 ff ff 00 	movl   $0x0,-0x190c(%rbp)
    cb6c:	00 00 00 
    cb6f:	eb 1e                	jmp    cb8f <func_27+0x35d>
    cb71:	8b 85 f4 e6 ff ff    	mov    -0x190c(%rbp),%eax
    cb77:	48 98                	cltq   
    cb79:	48 8d 95 78 e7 ff ff 	lea    -0x1888(%rbp),%rdx
    cb80:	48 89 94 c5 e8 e9 ff 	mov    %rdx,-0x1618(%rbp,%rax,8)
    cb87:	ff 
    cb88:	83 85 f4 e6 ff ff 01 	addl   $0x1,-0x190c(%rbp)
    cb8f:	83 bd f4 e6 ff ff 00 	cmpl   $0x0,-0x190c(%rbp)
    cb96:	7e d9                	jle    cb71 <func_27+0x33f>
    cb98:	c6 05 a9 04 01 00 00 	movb   $0x0,0x104a9(%rip)        # 1d048 <g_52>
    cb9f:	90                   	nop
    cba0:	0f b6 05 a1 04 01 00 	movzbl 0x104a1(%rip),%eax        # 1d048 <g_52>
    cba7:	3c 02                	cmp    $0x2,%al
    cba9:	7f 17                	jg     cbc2 <func_27+0x390>
    cbab:	48 c7 85 d8 e9 ff ff 	movq   $0x0,-0x1628(%rbp)
    cbb2:	00 00 00 00 
    cbb6:	48 8b 85 d8 e9 ff ff 	mov    -0x1628(%rbp),%rax
    cbbd:	e9 2b 2a 00 00       	jmpq   f5ed <func_27+0x2dbb>
    cbc2:	c6 05 7f 04 01 00 07 	movb   $0x7,0x1047f(%rip)        # 1d048 <g_52>
    cbc9:	e9 2f 29 00 00       	jmpq   f4fd <func_27+0x2ccb>
    cbce:	c6 85 c8 e6 ff ff ff 	movb   $0xff,-0x1938(%rbp)
    cbd5:	48 8d 05 6c 2a 01 00 	lea    0x12a6c(%rip),%rax        # 1f648 <g_151>
    cbdc:	48 89 85 20 e8 ff ff 	mov    %rax,-0x17e0(%rbp)
    cbe3:	c7 85 24 e7 ff ff 0b 	movl   $0x6266dc0b,-0x18dc(%rbp)
    cbea:	dc 66 62 
    cbed:	c7 85 28 e7 ff ff 88 	movl   $0x93d73f88,-0x18d8(%rbp)
    cbf4:	3f d7 93 
    cbf7:	48 c7 85 88 e7 ff ff 	movq   $0x0,-0x1878(%rbp)
    cbfe:	00 00 00 00 
    cc02:	48 8d 85 58 e7 ff ff 	lea    -0x18a8(%rbp),%rax
    cc09:	48 89 85 28 e8 ff ff 	mov    %rax,-0x17d8(%rbp)
    cc10:	48 8d 85 30 ec ff ff 	lea    -0x13d0(%rbp),%rax
    cc17:	48 83 c0 48          	add    $0x48,%rax
    cc1b:	48 89 85 70 f2 ff ff 	mov    %rax,-0xd90(%rbp)
    cc22:	48 8d 85 30 ec ff ff 	lea    -0x13d0(%rbp),%rax
    cc29:	48 05 88 00 00 00    	add    $0x88,%rax
    cc2f:	48 89 85 78 f2 ff ff 	mov    %rax,-0xd88(%rbp)
    cc36:	48 8d 85 30 ec ff ff 	lea    -0x13d0(%rbp),%rax
    cc3d:	48 83 c0 48          	add    $0x48,%rax
    cc41:	48 89 85 80 f2 ff ff 	mov    %rax,-0xd80(%rbp)
    cc48:	48 8d 85 30 ec ff ff 	lea    -0x13d0(%rbp),%rax
    cc4f:	48 83 c0 48          	add    $0x48,%rax
    cc53:	48 89 85 88 f2 ff ff 	mov    %rax,-0xd78(%rbp)
    cc5a:	48 8d 85 30 ec ff ff 	lea    -0x13d0(%rbp),%rax
    cc61:	48 83 c0 48          	add    $0x48,%rax
    cc65:	48 89 85 90 f2 ff ff 	mov    %rax,-0xd70(%rbp)
    cc6c:	48 8d 85 30 ec ff ff 	lea    -0x13d0(%rbp),%rax
    cc73:	48 05 b0 00 00 00    	add    $0xb0,%rax
    cc79:	48 89 85 98 f2 ff ff 	mov    %rax,-0xd68(%rbp)
    cc80:	48 c7 85 a0 f2 ff ff 	movq   $0x0,-0xd60(%rbp)
    cc87:	00 00 00 00 
    cc8b:	48 8d 85 30 ec ff ff 	lea    -0x13d0(%rbp),%rax
    cc92:	48 05 b0 00 00 00    	add    $0xb0,%rax
    cc98:	48 89 85 a8 f2 ff ff 	mov    %rax,-0xd58(%rbp)
    cc9f:	48 8d 85 30 ec ff ff 	lea    -0x13d0(%rbp),%rax
    cca6:	48 83 c0 48          	add    $0x48,%rax
    ccaa:	48 89 85 b0 f2 ff ff 	mov    %rax,-0xd50(%rbp)
    ccb1:	48 c7 85 b8 f2 ff ff 	movq   $0x0,-0xd48(%rbp)
    ccb8:	00 00 00 00 
    ccbc:	48 c7 85 c0 f2 ff ff 	movq   $0x0,-0xd40(%rbp)
    ccc3:	00 00 00 00 
    ccc7:	48 8d 85 30 ec ff ff 	lea    -0x13d0(%rbp),%rax
    ccce:	48 83 c0 48          	add    $0x48,%rax
    ccd2:	48 89 85 c8 f2 ff ff 	mov    %rax,-0xd38(%rbp)
    ccd9:	48 8d 85 30 ec ff ff 	lea    -0x13d0(%rbp),%rax
    cce0:	48 83 c0 28          	add    $0x28,%rax
    cce4:	48 89 85 d0 f2 ff ff 	mov    %rax,-0xd30(%rbp)
    cceb:	48 8d 85 30 ec ff ff 	lea    -0x13d0(%rbp),%rax
    ccf2:	48 83 c0 48          	add    $0x48,%rax
    ccf6:	48 89 85 d8 f2 ff ff 	mov    %rax,-0xd28(%rbp)
    ccfd:	48 8d 85 30 ec ff ff 	lea    -0x13d0(%rbp),%rax
    cd04:	48 83 c0 48          	add    $0x48,%rax
    cd08:	48 89 85 e0 f2 ff ff 	mov    %rax,-0xd20(%rbp)
    cd0f:	48 8d 85 30 ec ff ff 	lea    -0x13d0(%rbp),%rax
    cd16:	48 83 e8 80          	sub    $0xffffffffffffff80,%rax
    cd1a:	48 89 85 e8 f2 ff ff 	mov    %rax,-0xd18(%rbp)
    cd21:	48 c7 85 f0 f2 ff ff 	movq   $0x0,-0xd10(%rbp)
    cd28:	00 00 00 00 
    cd2c:	48 c7 85 f8 f2 ff ff 	movq   $0x0,-0xd08(%rbp)
    cd33:	00 00 00 00 
    cd37:	48 8d 85 30 ec ff ff 	lea    -0x13d0(%rbp),%rax
    cd3e:	48 83 e8 80          	sub    $0xffffffffffffff80,%rax
    cd42:	48 89 85 00 f3 ff ff 	mov    %rax,-0xd00(%rbp)
    cd49:	48 8d 85 30 ec ff ff 	lea    -0x13d0(%rbp),%rax
    cd50:	48 83 c0 48          	add    $0x48,%rax
    cd54:	48 89 85 08 f3 ff ff 	mov    %rax,-0xcf8(%rbp)
    cd5b:	48 8d 85 30 ec ff ff 	lea    -0x13d0(%rbp),%rax
    cd62:	48 83 c0 48          	add    $0x48,%rax
    cd66:	48 89 85 10 f3 ff ff 	mov    %rax,-0xcf0(%rbp)
    cd6d:	48 8d 85 30 ec ff ff 	lea    -0x13d0(%rbp),%rax
    cd74:	48 83 c0 78          	add    $0x78,%rax
    cd78:	48 89 85 18 f3 ff ff 	mov    %rax,-0xce8(%rbp)
    cd7f:	48 8d 85 30 ec ff ff 	lea    -0x13d0(%rbp),%rax
    cd86:	48 83 c0 48          	add    $0x48,%rax
    cd8a:	48 89 85 20 f3 ff ff 	mov    %rax,-0xce0(%rbp)
    cd91:	48 8d 85 30 ec ff ff 	lea    -0x13d0(%rbp),%rax
    cd98:	48 83 c0 48          	add    $0x48,%rax
    cd9c:	48 89 85 28 f3 ff ff 	mov    %rax,-0xcd8(%rbp)
    cda3:	48 8d 85 30 ec ff ff 	lea    -0x13d0(%rbp),%rax
    cdaa:	48 83 c0 48          	add    $0x48,%rax
    cdae:	48 89 85 30 f3 ff ff 	mov    %rax,-0xcd0(%rbp)
    cdb5:	48 8d 85 30 ec ff ff 	lea    -0x13d0(%rbp),%rax
    cdbc:	48 05 b0 00 00 00    	add    $0xb0,%rax
    cdc2:	48 89 85 38 f3 ff ff 	mov    %rax,-0xcc8(%rbp)
    cdc9:	48 c7 85 40 f3 ff ff 	movq   $0x0,-0xcc0(%rbp)
    cdd0:	00 00 00 00 
    cdd4:	48 8d 85 30 ec ff ff 	lea    -0x13d0(%rbp),%rax
    cddb:	48 83 c0 28          	add    $0x28,%rax
    cddf:	48 89 85 48 f3 ff ff 	mov    %rax,-0xcb8(%rbp)
    cde6:	48 8d 85 30 ec ff ff 	lea    -0x13d0(%rbp),%rax
    cded:	48 83 c0 48          	add    $0x48,%rax
    cdf1:	48 89 85 50 f3 ff ff 	mov    %rax,-0xcb0(%rbp)
    cdf8:	48 8d 85 30 ec ff ff 	lea    -0x13d0(%rbp),%rax
    cdff:	48 83 c0 48          	add    $0x48,%rax
    ce03:	48 89 85 58 f3 ff ff 	mov    %rax,-0xca8(%rbp)
    ce0a:	48 8d 85 30 ec ff ff 	lea    -0x13d0(%rbp),%rax
    ce11:	48 83 c0 48          	add    $0x48,%rax
    ce15:	48 89 85 60 f3 ff ff 	mov    %rax,-0xca0(%rbp)
    ce1c:	48 8d 85 30 ec ff ff 	lea    -0x13d0(%rbp),%rax
    ce23:	48 83 c0 28          	add    $0x28,%rax
    ce27:	48 89 85 68 f3 ff ff 	mov    %rax,-0xc98(%rbp)
    ce2e:	48 8d 85 30 ec ff ff 	lea    -0x13d0(%rbp),%rax
    ce35:	48 83 c0 58          	add    $0x58,%rax
    ce39:	48 89 85 70 f3 ff ff 	mov    %rax,-0xc90(%rbp)
    ce40:	48 8d 85 30 ec ff ff 	lea    -0x13d0(%rbp),%rax
    ce47:	48 83 c0 48          	add    $0x48,%rax
    ce4b:	48 89 85 78 f3 ff ff 	mov    %rax,-0xc88(%rbp)
    ce52:	48 8d 85 30 ec ff ff 	lea    -0x13d0(%rbp),%rax
    ce59:	48 83 c0 30          	add    $0x30,%rax
    ce5d:	48 89 85 80 f3 ff ff 	mov    %rax,-0xc80(%rbp)
    ce64:	48 8d 85 30 ec ff ff 	lea    -0x13d0(%rbp),%rax
    ce6b:	48 83 c0 28          	add    $0x28,%rax
    ce6f:	48 89 85 88 f3 ff ff 	mov    %rax,-0xc78(%rbp)
    ce76:	48 8d 85 30 ec ff ff 	lea    -0x13d0(%rbp),%rax
    ce7d:	48 83 c0 48          	add    $0x48,%rax
    ce81:	48 89 85 90 f3 ff ff 	mov    %rax,-0xc70(%rbp)
    ce88:	48 8d 85 30 ec ff ff 	lea    -0x13d0(%rbp),%rax
    ce8f:	48 05 a0 00 00 00    	add    $0xa0,%rax
    ce95:	48 89 85 98 f3 ff ff 	mov    %rax,-0xc68(%rbp)
    ce9c:	48 8d 85 30 ec ff ff 	lea    -0x13d0(%rbp),%rax
    cea3:	48 83 c0 30          	add    $0x30,%rax
    cea7:	48 89 85 a0 f3 ff ff 	mov    %rax,-0xc60(%rbp)
    ceae:	48 c7 85 a8 f3 ff ff 	movq   $0x0,-0xc58(%rbp)
    ceb5:	00 00 00 00 
    ceb9:	48 8d 85 30 ec ff ff 	lea    -0x13d0(%rbp),%rax
    cec0:	48 83 c0 48          	add    $0x48,%rax
    cec4:	48 89 85 b0 f3 ff ff 	mov    %rax,-0xc50(%rbp)
    cecb:	48 8d 85 30 ec ff ff 	lea    -0x13d0(%rbp),%rax
    ced2:	48 83 c0 48          	add    $0x48,%rax
    ced6:	48 89 85 b8 f3 ff ff 	mov    %rax,-0xc48(%rbp)
    cedd:	48 8d 85 30 ec ff ff 	lea    -0x13d0(%rbp),%rax
    cee4:	48 83 c0 48          	add    $0x48,%rax
    cee8:	48 89 85 c0 f3 ff ff 	mov    %rax,-0xc40(%rbp)
    ceef:	48 8d 85 30 ec ff ff 	lea    -0x13d0(%rbp),%rax
    cef6:	48 83 e8 80          	sub    $0xffffffffffffff80,%rax
    cefa:	48 89 85 c8 f3 ff ff 	mov    %rax,-0xc38(%rbp)
    cf01:	48 8d 85 30 ec ff ff 	lea    -0x13d0(%rbp),%rax
    cf08:	48 83 c0 48          	add    $0x48,%rax
    cf0c:	48 89 85 d0 f3 ff ff 	mov    %rax,-0xc30(%rbp)
    cf13:	48 8d 85 30 ec ff ff 	lea    -0x13d0(%rbp),%rax
    cf1a:	48 05 a0 00 00 00    	add    $0xa0,%rax
    cf20:	48 89 85 d8 f3 ff ff 	mov    %rax,-0xc28(%rbp)
    cf27:	48 8d 85 30 ec ff ff 	lea    -0x13d0(%rbp),%rax
    cf2e:	48 83 c0 48          	add    $0x48,%rax
    cf32:	48 89 85 e0 f3 ff ff 	mov    %rax,-0xc20(%rbp)
    cf39:	48 8d 85 30 ec ff ff 	lea    -0x13d0(%rbp),%rax
    cf40:	48 05 a0 00 00 00    	add    $0xa0,%rax
    cf46:	48 89 85 e8 f3 ff ff 	mov    %rax,-0xc18(%rbp)
    cf4d:	48 8d 85 30 ec ff ff 	lea    -0x13d0(%rbp),%rax
    cf54:	48 83 c0 48          	add    $0x48,%rax
    cf58:	48 89 85 f0 f3 ff ff 	mov    %rax,-0xc10(%rbp)
    cf5f:	48 c7 85 f8 f3 ff ff 	movq   $0x0,-0xc08(%rbp)
    cf66:	00 00 00 00 
    cf6a:	48 c7 85 00 f4 ff ff 	movq   $0x0,-0xc00(%rbp)
    cf71:	00 00 00 00 
    cf75:	48 8d 85 30 ec ff ff 	lea    -0x13d0(%rbp),%rax
    cf7c:	48 83 c0 48          	add    $0x48,%rax
    cf80:	48 89 85 08 f4 ff ff 	mov    %rax,-0xbf8(%rbp)
    cf87:	48 8d 85 30 ec ff ff 	lea    -0x13d0(%rbp),%rax
    cf8e:	48 83 c0 28          	add    $0x28,%rax
    cf92:	48 89 85 10 f4 ff ff 	mov    %rax,-0xbf0(%rbp)
    cf99:	48 8d 85 30 ec ff ff 	lea    -0x13d0(%rbp),%rax
    cfa0:	48 83 c0 48          	add    $0x48,%rax
    cfa4:	48 89 85 18 f4 ff ff 	mov    %rax,-0xbe8(%rbp)
    cfab:	48 8d 85 30 ec ff ff 	lea    -0x13d0(%rbp),%rax
    cfb2:	48 83 c0 78          	add    $0x78,%rax
    cfb6:	48 89 85 20 f4 ff ff 	mov    %rax,-0xbe0(%rbp)
    cfbd:	48 8d 85 30 ec ff ff 	lea    -0x13d0(%rbp),%rax
    cfc4:	48 83 c0 48          	add    $0x48,%rax
    cfc8:	48 89 85 28 f4 ff ff 	mov    %rax,-0xbd8(%rbp)
    cfcf:	48 8d 85 30 ec ff ff 	lea    -0x13d0(%rbp),%rax
    cfd6:	48 83 c0 58          	add    $0x58,%rax
    cfda:	48 89 85 30 f4 ff ff 	mov    %rax,-0xbd0(%rbp)
    cfe1:	48 8d 85 30 ec ff ff 	lea    -0x13d0(%rbp),%rax
    cfe8:	48 83 c0 30          	add    $0x30,%rax
    cfec:	48 89 85 38 f4 ff ff 	mov    %rax,-0xbc8(%rbp)
    cff3:	48 8d 85 30 ec ff ff 	lea    -0x13d0(%rbp),%rax
    cffa:	48 83 c0 48          	add    $0x48,%rax
    cffe:	48 89 85 40 f4 ff ff 	mov    %rax,-0xbc0(%rbp)
    d005:	48 8d 85 30 ec ff ff 	lea    -0x13d0(%rbp),%rax
    d00c:	48 83 c0 48          	add    $0x48,%rax
    d010:	48 89 85 48 f4 ff ff 	mov    %rax,-0xbb8(%rbp)
    d017:	48 8d 85 30 ec ff ff 	lea    -0x13d0(%rbp),%rax
    d01e:	48 05 88 00 00 00    	add    $0x88,%rax
    d024:	48 89 85 50 f4 ff ff 	mov    %rax,-0xbb0(%rbp)
    d02b:	48 8d 85 30 ec ff ff 	lea    -0x13d0(%rbp),%rax
    d032:	48 83 c0 48          	add    $0x48,%rax
    d036:	48 89 85 58 f4 ff ff 	mov    %rax,-0xba8(%rbp)
    d03d:	48 8d 85 30 ec ff ff 	lea    -0x13d0(%rbp),%rax
    d044:	48 83 c0 48          	add    $0x48,%rax
    d048:	48 89 85 60 f4 ff ff 	mov    %rax,-0xba0(%rbp)
    d04f:	48 8d 85 30 ec ff ff 	lea    -0x13d0(%rbp),%rax
    d056:	48 83 c0 28          	add    $0x28,%rax
    d05a:	48 89 85 68 f4 ff ff 	mov    %rax,-0xb98(%rbp)
    d061:	48 8d 85 30 ec ff ff 	lea    -0x13d0(%rbp),%rax
    d068:	48 83 c0 78          	add    $0x78,%rax
    d06c:	48 89 85 70 f4 ff ff 	mov    %rax,-0xb90(%rbp)
    d073:	48 c7 85 78 f4 ff ff 	movq   $0x0,-0xb88(%rbp)
    d07a:	00 00 00 00 
    d07e:	48 8d 85 30 ec ff ff 	lea    -0x13d0(%rbp),%rax
    d085:	48 83 c0 48          	add    $0x48,%rax
    d089:	48 89 85 80 f4 ff ff 	mov    %rax,-0xb80(%rbp)
    d090:	48 8d 85 30 ec ff ff 	lea    -0x13d0(%rbp),%rax
    d097:	48 83 c0 48          	add    $0x48,%rax
    d09b:	48 89 85 88 f4 ff ff 	mov    %rax,-0xb78(%rbp)
    d0a2:	48 8d 85 30 ec ff ff 	lea    -0x13d0(%rbp),%rax
    d0a9:	48 05 88 00 00 00    	add    $0x88,%rax
    d0af:	48 89 85 90 f4 ff ff 	mov    %rax,-0xb70(%rbp)
    d0b6:	48 c7 85 98 f4 ff ff 	movq   $0x0,-0xb68(%rbp)
    d0bd:	00 00 00 00 
    d0c1:	48 c7 85 a0 f4 ff ff 	movq   $0x0,-0xb60(%rbp)
    d0c8:	00 00 00 00 
    d0cc:	48 8d 85 30 ec ff ff 	lea    -0x13d0(%rbp),%rax
    d0d3:	48 83 c0 48          	add    $0x48,%rax
    d0d7:	48 89 85 a8 f4 ff ff 	mov    %rax,-0xb58(%rbp)
    d0de:	48 8d 85 30 ec ff ff 	lea    -0x13d0(%rbp),%rax
    d0e5:	48 83 c0 48          	add    $0x48,%rax
    d0e9:	48 89 85 b0 f4 ff ff 	mov    %rax,-0xb50(%rbp)
    d0f0:	48 8d 85 30 ec ff ff 	lea    -0x13d0(%rbp),%rax
    d0f7:	48 83 c0 48          	add    $0x48,%rax
    d0fb:	48 89 85 b8 f4 ff ff 	mov    %rax,-0xb48(%rbp)
    d102:	48 8d 85 30 ec ff ff 	lea    -0x13d0(%rbp),%rax
    d109:	48 83 c0 48          	add    $0x48,%rax
    d10d:	48 89 85 c0 f4 ff ff 	mov    %rax,-0xb40(%rbp)
    d114:	48 8d 85 30 ec ff ff 	lea    -0x13d0(%rbp),%rax
    d11b:	48 83 c0 28          	add    $0x28,%rax
    d11f:	48 89 85 c8 f4 ff ff 	mov    %rax,-0xb38(%rbp)
    d126:	48 8d 85 30 ec ff ff 	lea    -0x13d0(%rbp),%rax
    d12d:	48 83 c0 28          	add    $0x28,%rax
    d131:	48 89 85 d0 f4 ff ff 	mov    %rax,-0xb30(%rbp)
    d138:	48 c7 85 d8 f4 ff ff 	movq   $0x0,-0xb28(%rbp)
    d13f:	00 00 00 00 
    d143:	48 8d 85 30 ec ff ff 	lea    -0x13d0(%rbp),%rax
    d14a:	48 83 e8 80          	sub    $0xffffffffffffff80,%rax
    d14e:	48 89 85 e0 f4 ff ff 	mov    %rax,-0xb20(%rbp)
    d155:	48 8d 85 30 ec ff ff 	lea    -0x13d0(%rbp),%rax
    d15c:	48 83 c0 48          	add    $0x48,%rax
    d160:	48 89 85 e8 f4 ff ff 	mov    %rax,-0xb18(%rbp)
    d167:	48 8d 85 30 ec ff ff 	lea    -0x13d0(%rbp),%rax
    d16e:	48 83 e8 80          	sub    $0xffffffffffffff80,%rax
    d172:	48 89 85 f0 f4 ff ff 	mov    %rax,-0xb10(%rbp)
    d179:	48 c7 85 f8 f4 ff ff 	movq   $0x0,-0xb08(%rbp)
    d180:	00 00 00 00 
    d184:	48 c7 85 00 f5 ff ff 	movq   $0x0,-0xb00(%rbp)
    d18b:	00 00 00 00 
    d18f:	48 8d 85 30 ec ff ff 	lea    -0x13d0(%rbp),%rax
    d196:	48 05 88 00 00 00    	add    $0x88,%rax
    d19c:	48 89 85 08 f5 ff ff 	mov    %rax,-0xaf8(%rbp)
    d1a3:	48 8d 85 30 ec ff ff 	lea    -0x13d0(%rbp),%rax
    d1aa:	48 83 c0 48          	add    $0x48,%rax
    d1ae:	48 89 85 10 f5 ff ff 	mov    %rax,-0xaf0(%rbp)
    d1b5:	48 8d 85 30 ec ff ff 	lea    -0x13d0(%rbp),%rax
    d1bc:	48 83 c0 48          	add    $0x48,%rax
    d1c0:	48 89 85 18 f5 ff ff 	mov    %rax,-0xae8(%rbp)
    d1c7:	48 c7 85 20 f5 ff ff 	movq   $0x0,-0xae0(%rbp)
    d1ce:	00 00 00 00 
    d1d2:	48 8d 85 30 ec ff ff 	lea    -0x13d0(%rbp),%rax
    d1d9:	48 05 b0 00 00 00    	add    $0xb0,%rax
    d1df:	48 89 85 28 f5 ff ff 	mov    %rax,-0xad8(%rbp)
    d1e6:	48 8d 85 30 ec ff ff 	lea    -0x13d0(%rbp),%rax
    d1ed:	48 83 c0 48          	add    $0x48,%rax
    d1f1:	48 89 85 30 f5 ff ff 	mov    %rax,-0xad0(%rbp)
    d1f8:	48 8d 85 30 ec ff ff 	lea    -0x13d0(%rbp),%rax
    d1ff:	48 83 c0 48          	add    $0x48,%rax
    d203:	48 89 85 38 f5 ff ff 	mov    %rax,-0xac8(%rbp)
    d20a:	48 8d 85 30 ec ff ff 	lea    -0x13d0(%rbp),%rax
    d211:	48 83 c0 48          	add    $0x48,%rax
    d215:	48 89 85 40 f5 ff ff 	mov    %rax,-0xac0(%rbp)
    d21c:	48 c7 85 48 f5 ff ff 	movq   $0x0,-0xab8(%rbp)
    d223:	00 00 00 00 
    d227:	48 8d 85 30 ec ff ff 	lea    -0x13d0(%rbp),%rax
    d22e:	48 83 c0 48          	add    $0x48,%rax
    d232:	48 89 85 50 f5 ff ff 	mov    %rax,-0xab0(%rbp)
    d239:	48 8d 85 30 ec ff ff 	lea    -0x13d0(%rbp),%rax
    d240:	48 83 c0 48          	add    $0x48,%rax
    d244:	48 89 85 58 f5 ff ff 	mov    %rax,-0xaa8(%rbp)
    d24b:	48 8d 85 30 ec ff ff 	lea    -0x13d0(%rbp),%rax
    d252:	48 83 c0 58          	add    $0x58,%rax
    d256:	48 89 85 60 f5 ff ff 	mov    %rax,-0xaa0(%rbp)
    d25d:	48 8d 85 30 ec ff ff 	lea    -0x13d0(%rbp),%rax
    d264:	48 05 a0 00 00 00    	add    $0xa0,%rax
    d26a:	48 89 85 68 f5 ff ff 	mov    %rax,-0xa98(%rbp)
    d271:	48 8d 85 30 ec ff ff 	lea    -0x13d0(%rbp),%rax
    d278:	48 83 c0 48          	add    $0x48,%rax
    d27c:	48 89 85 70 f5 ff ff 	mov    %rax,-0xa90(%rbp)
    d283:	48 8d 85 30 ec ff ff 	lea    -0x13d0(%rbp),%rax
    d28a:	48 83 c0 78          	add    $0x78,%rax
    d28e:	48 89 85 78 f5 ff ff 	mov    %rax,-0xa88(%rbp)
    d295:	48 8d 85 70 f2 ff ff 	lea    -0xd90(%rbp),%rax
    d29c:	48 05 60 02 00 00    	add    $0x260,%rax
    d2a2:	48 89 85 90 e7 ff ff 	mov    %rax,-0x1870(%rbp)
    d2a9:	48 8d 85 90 e7 ff ff 	lea    -0x1870(%rbp),%rax
    d2b0:	48 89 85 98 e7 ff ff 	mov    %rax,-0x1868(%rbp)
    d2b7:	c7 85 2c e7 ff ff 2b 	movl   $0x47c3a12b,-0x18d4(%rbp)
    d2be:	a1 c3 47 
    d2c1:	48 b8 33 f2 01 23 c8 	movabs $0xa5bf33c82301f233,%rax
    d2c8:	33 bf a5 
    d2cb:	48 89 85 e0 e7 ff ff 	mov    %rax,-0x1820(%rbp)
    d2d2:	c6 85 c9 e6 ff ff ca 	movb   $0xca,-0x1937(%rbp)
    d2d9:	48 8d 05 70 23 01 00 	lea    0x12370(%rip),%rax        # 1f650 <g_211>
    d2e0:	48 89 85 a0 e7 ff ff 	mov    %rax,-0x1860(%rbp)
    d2e7:	66 c7 85 d6 e6 ff ff 	movw   $0xba87,-0x192a(%rbp)
    d2ee:	87 ba 
    d2f0:	48 c7 85 a8 e7 ff ff 	movq   $0x0,-0x1858(%rbp)
    d2f7:	00 00 00 00 
    d2fb:	48 8d 85 a8 e7 ff ff 	lea    -0x1858(%rbp),%rax
    d302:	48 89 85 30 e8 ff ff 	mov    %rax,-0x17d0(%rbp)
    d309:	48 8d 85 a0 e7 ff ff 	lea    -0x1860(%rbp),%rax
    d310:	48 89 85 38 e8 ff ff 	mov    %rax,-0x17c8(%rbp)
    d317:	c7 85 f8 e6 ff ff 00 	movl   $0x0,-0x1908(%rbp)
    d31e:	00 00 00 
    d321:	eb 1a                	jmp    d33d <func_27+0xb0b>
    d323:	8b 85 f8 e6 ff ff    	mov    -0x1908(%rbp),%eax
    d329:	48 98                	cltq   
    d32b:	c7 84 85 50 ea ff ff 	movl   $0x1,-0x15b0(%rbp,%rax,4)
    d332:	01 00 00 00 
    d336:	83 85 f8 e6 ff ff 01 	addl   $0x1,-0x1908(%rbp)
    d33d:	83 bd f8 e6 ff ff 06 	cmpl   $0x6,-0x1908(%rbp)
    d344:	7e dd                	jle    d323 <func_27+0xaf1>
    d346:	c7 85 f8 e6 ff ff 00 	movl   $0x0,-0x1908(%rbp)
    d34d:	00 00 00 
    d350:	eb 4a                	jmp    d39c <func_27+0xb6a>
    d352:	c7 85 fc e6 ff ff 00 	movl   $0x0,-0x1904(%rbp)
    d359:	00 00 00 
    d35c:	eb 2e                	jmp    d38c <func_27+0xb5a>
    d35e:	8b 85 fc e6 ff ff    	mov    -0x1904(%rbp),%eax
    d364:	48 98                	cltq   
    d366:	8b 95 f8 e6 ff ff    	mov    -0x1908(%rbp),%edx
    d36c:	48 63 d2             	movslq %edx,%rdx
    d36f:	48 c1 e2 03          	shl    $0x3,%rdx
    d373:	48 01 d0             	add    %rdx,%rax
    d376:	48 8d 15 3b fd 00 00 	lea    0xfd3b(%rip),%rdx        # 1d0b8 <g_125+0x18>
    d37d:	48 89 94 c5 30 ec ff 	mov    %rdx,-0x13d0(%rbp,%rax,8)
    d384:	ff 
    d385:	83 85 fc e6 ff ff 01 	addl   $0x1,-0x1904(%rbp)
    d38c:	83 bd fc e6 ff ff 07 	cmpl   $0x7,-0x1904(%rbp)
    d393:	7e c9                	jle    d35e <func_27+0xb2c>
    d395:	83 85 f8 e6 ff ff 01 	addl   $0x1,-0x1908(%rbp)
    d39c:	83 bd f8 e6 ff ff 02 	cmpl   $0x2,-0x1908(%rbp)
    d3a3:	7e ad                	jle    d352 <func_27+0xb20>
    d3a5:	c6 05 90 fc 00 00 18 	movb   $0x18,0xfc90(%rip)        # 1d03c <g_32>
    d3ac:	e9 4d 16 00 00       	jmpq   e9fe <func_27+0x21cc>
    d3b1:	66 c7 85 d8 e6 ff ff 	movw   $0xf1ab,-0x1928(%rbp)
    d3b8:	ab f1 
    d3ba:	c7 85 10 ea ff ff 08 	movl   $0x8,-0x15f0(%rbp)
    d3c1:	00 00 00 
    d3c4:	c7 85 14 ea ff ff 08 	movl   $0x8,-0x15ec(%rbp)
    d3cb:	00 00 00 
    d3ce:	c7 85 18 ea ff ff 08 	movl   $0x8,-0x15e8(%rbp)
    d3d5:	00 00 00 
    d3d8:	c7 85 1c ea ff ff 08 	movl   $0x8,-0x15e4(%rbp)
    d3df:	00 00 00 
    d3e2:	c7 85 20 ea ff ff 08 	movl   $0x8,-0x15e0(%rbp)
    d3e9:	00 00 00 
    d3ec:	c7 85 24 ea ff ff 08 	movl   $0x8,-0x15dc(%rbp)
    d3f3:	00 00 00 
    d3f6:	48 8d 85 10 ea ff ff 	lea    -0x15f0(%rbp),%rax
    d3fd:	48 83 c0 08          	add    $0x8,%rax
    d401:	48 89 85 e0 e8 ff ff 	mov    %rax,-0x1720(%rbp)
    d408:	48 c7 85 e8 e8 ff ff 	movq   $0xffffffffffffffff,-0x1718(%rbp)
    d40f:	ff ff ff ff 
    d413:	48 8d 05 0a fe 00 00 	lea    0xfe0a(%rip),%rax        # 1d224 <g_276+0x4>
    d41a:	48 89 85 b0 e7 ff ff 	mov    %rax,-0x1850(%rbp)
    d421:	48 8d 85 b0 e7 ff ff 	lea    -0x1850(%rbp),%rax
    d428:	48 89 85 f0 e8 ff ff 	mov    %rax,-0x1710(%rbp)
    d42f:	48 8d 05 4a 21 01 00 	lea    0x1214a(%rip),%rax        # 1f580 <g_40+0x100>
    d436:	48 89 85 b8 e7 ff ff 	mov    %rax,-0x1848(%rbp)
    d43d:	48 8d 05 04 fc 00 00 	lea    0xfc04(%rip),%rax        # 1d048 <g_52>
    d444:	48 89 85 f8 e8 ff ff 	mov    %rax,-0x1708(%rbp)
    d44b:	c7 85 e8 e6 ff ff ab 	movl   $0xf689beab,-0x1918(%rbp)
    d452:	be 89 f6 
    d455:	48 8d 05 6c fc 00 00 	lea    0xfc6c(%rip),%rax        # 1d0c8 <g_125+0x28>
    d45c:	48 89 85 c0 e7 ff ff 	mov    %rax,-0x1840(%rbp)
    d463:	48 8d 85 c0 e7 ff ff 	lea    -0x1840(%rbp),%rax
    d46a:	48 89 85 e0 ea ff ff 	mov    %rax,-0x1520(%rbp)
    d471:	48 8d 85 c0 e7 ff ff 	lea    -0x1840(%rbp),%rax
    d478:	48 89 85 e8 ea ff ff 	mov    %rax,-0x1518(%rbp)
    d47f:	48 8d 85 c0 e7 ff ff 	lea    -0x1840(%rbp),%rax
    d486:	48 89 85 f0 ea ff ff 	mov    %rax,-0x1510(%rbp)
    d48d:	48 8d 85 c0 e7 ff ff 	lea    -0x1840(%rbp),%rax
    d494:	48 89 85 f8 ea ff ff 	mov    %rax,-0x1508(%rbp)
    d49b:	48 8d 85 c0 e7 ff ff 	lea    -0x1840(%rbp),%rax
    d4a2:	48 89 85 00 eb ff ff 	mov    %rax,-0x1500(%rbp)
    d4a9:	48 8d 85 c0 e7 ff ff 	lea    -0x1840(%rbp),%rax
    d4b0:	48 89 85 08 eb ff ff 	mov    %rax,-0x14f8(%rbp)
    d4b7:	48 8d 85 c0 e7 ff ff 	lea    -0x1840(%rbp),%rax
    d4be:	48 89 85 10 eb ff ff 	mov    %rax,-0x14f0(%rbp)
    d4c5:	c6 85 cc e6 ff ff 03 	movb   $0x3,-0x1934(%rbp)
    d4cc:	c7 85 00 e7 ff ff 00 	movl   $0x0,-0x1900(%rbp)
    d4d3:	00 00 00 
    d4d6:	eb 22                	jmp    d4fa <func_27+0xcc8>
    d4d8:	8b 85 00 e7 ff ff    	mov    -0x1900(%rbp),%eax
    d4de:	48 98                	cltq   
    d4e0:	48 8d 95 e0 ea ff ff 	lea    -0x1520(%rbp),%rdx
    d4e7:	48 83 c2 10          	add    $0x10,%rdx
    d4eb:	48 89 94 c5 b0 ea ff 	mov    %rdx,-0x1550(%rbp,%rax,8)
    d4f2:	ff 
    d4f3:	83 85 00 e7 ff ff 01 	addl   $0x1,-0x1900(%rbp)
    d4fa:	83 bd 00 e7 ff ff 04 	cmpl   $0x4,-0x1900(%rbp)
    d501:	7e d5                	jle    d4d8 <func_27+0xca6>
    d503:	c7 85 bc e6 ff ff 00 	movl   $0x0,-0x1944(%rbp)
    d50a:	00 00 00 
    d50d:	83 bd bc e6 ff ff 06 	cmpl   $0x6,-0x1944(%rbp)
    d514:	7f 1f                	jg     d535 <func_27+0xd03>
    d516:	8b 85 bc e6 ff ff    	mov    -0x1944(%rbp),%eax
    d51c:	48 98                	cltq   
    d51e:	48 c1 e0 06          	shl    $0x6,%rax
    d522:	48 89 c2             	mov    %rax,%rdx
    d525:	48 8d 05 54 1f 01 00 	lea    0x11f54(%rip),%rax        # 1f480 <g_40>
    d52c:	48 8b 04 02          	mov    (%rdx,%rax,1),%rax
    d530:	e9 b8 20 00 00       	jmpq   f5ed <func_27+0x2dbb>
    d535:	c7 85 bc e6 ff ff 01 	movl   $0x1,-0x1944(%rbp)
    d53c:	00 00 00 
    d53f:	e9 98 00 00 00       	jmpq   d5dc <func_27+0xdaa>
    d544:	48 c7 85 c8 e9 ff ff 	movq   $0x0,-0x1638(%rbp)
    d54b:	00 00 00 00 
    d54f:	c7 85 54 e7 ff ff fb 	movl   $0xfffffffb,-0x18ac(%rbp)
    d556:	ff ff ff 
    d559:	48 8d 05 50 fd 00 00 	lea    0xfd50(%rip),%rax        # 1d2b0 <g_509>
    d560:	48 89 85 d0 e9 ff ff 	mov    %rax,-0x1630(%rbp)
    d567:	48 8d 85 10 ea ff ff 	lea    -0x15f0(%rbp),%rax
    d56e:	48 83 c0 04          	add    $0x4,%rax
    d572:	48 89 85 d0 e7 ff ff 	mov    %rax,-0x1830(%rbp)
    d579:	48 8d 85 d0 e7 ff ff 	lea    -0x1830(%rbp),%rax
    d580:	48 89 85 20 fa ff ff 	mov    %rax,-0x5e0(%rbp)
    d587:	48 c7 85 28 fa ff ff 	movq   $0x0,-0x5d8(%rbp)
    d58e:	00 00 00 00 
    d592:	48 8d 85 d0 e7 ff ff 	lea    -0x1830(%rbp),%rax
    d599:	48 89 85 30 fa ff ff 	mov    %rax,-0x5d0(%rbp)
    d5a0:	48 8d 85 d0 e7 ff ff 	lea    -0x1830(%rbp),%rax
    d5a7:	48 89 85 38 fa ff ff 	mov    %rax,-0x5c8(%rbp)
    d5ae:	48 c7 85 40 fa ff ff 	movq   $0x0,-0x5c0(%rbp)
    d5b5:	00 00 00 00 
    d5b9:	48 8d 85 d0 e7 ff ff 	lea    -0x1830(%rbp),%rax
    d5c0:	48 89 85 48 fa ff ff 	mov    %rax,-0x5b8(%rbp)
    d5c7:	48 8d 85 d0 e7 ff ff 	lea    -0x1830(%rbp),%rax
    d5ce:	48 89 85 50 fa ff ff 	mov    %rax,-0x5b0(%rbp)
    d5d5:	83 ad bc e6 ff ff 01 	subl   $0x1,-0x1944(%rbp)
    d5dc:	83 bd bc e6 ff ff 00 	cmpl   $0x0,-0x1944(%rbp)
    d5e3:	0f 89 5b ff ff ff    	jns    d544 <func_27+0xd12>
    d5e9:	c7 05 95 fa 00 00 00 	movl   $0x0,0xfa95(%rip)        # 1d088 <g_118>
    d5f0:	00 00 00 
    d5f3:	e9 db 13 00 00       	jmpq   e9d3 <func_27+0x21a1>
    d5f8:	66 c7 85 d2 e6 ff ff 	movw   $0xfffd,-0x192e(%rbp)
    d5ff:	fd ff 
    d601:	66 c7 85 d0 e6 ff ff 	movw   $0xfc0e,-0x1930(%rbp)
    d608:	0e fc 
    d60a:	c7 85 ec e6 ff ff fe 	movl   $0xfffffffe,-0x1914(%rbp)
    d611:	ff ff ff 
    d614:	c7 85 48 e7 ff ff 01 	movl   $0x1,-0x18b8(%rbp)
    d61b:	00 00 00 
    d61e:	c7 85 f0 e6 ff ff f4 	movl   $0x4ae9d9f4,-0x1910(%rbp)
    d625:	d9 e9 4a 
    d628:	48 8d 85 10 ea ff ff 	lea    -0x15f0(%rbp),%rax
    d62f:	48 83 c0 04          	add    $0x4,%rax
    d633:	48 89 85 00 e9 ff ff 	mov    %rax,-0x1700(%rbp)
    d63a:	48 8d 85 30 ea ff ff 	lea    -0x15d0(%rbp),%rax
    d641:	48 89 85 08 e9 ff ff 	mov    %rax,-0x16f8(%rbp)
    d648:	48 8d 05 cd fa 00 00 	lea    0xfacd(%rip),%rax        # 1d11c <g_197>
    d64f:	48 89 85 b0 ed ff ff 	mov    %rax,-0x1250(%rbp)
    d656:	48 8d 05 bf fa 00 00 	lea    0xfabf(%rip),%rax        # 1d11c <g_197>
    d65d:	48 89 85 b8 ed ff ff 	mov    %rax,-0x1248(%rbp)
    d664:	48 8d 05 91 fc 00 00 	lea    0xfc91(%rip),%rax        # 1d2fc <g_650>
    d66b:	48 89 85 c0 ed ff ff 	mov    %rax,-0x1240(%rbp)
    d672:	48 8d 85 50 ea ff ff 	lea    -0x15b0(%rbp),%rax
    d679:	48 83 c0 14          	add    $0x14,%rax
    d67d:	48 89 85 c8 ed ff ff 	mov    %rax,-0x1238(%rbp)
    d684:	48 8d 85 50 ea ff ff 	lea    -0x15b0(%rbp),%rax
    d68b:	48 89 85 d0 ed ff ff 	mov    %rax,-0x1230(%rbp)
    d692:	48 c7 85 d8 ed ff ff 	movq   $0x0,-0x1228(%rbp)
    d699:	00 00 00 00 
    d69d:	48 8d 85 dc e6 ff ff 	lea    -0x1924(%rbp),%rax
    d6a4:	48 89 85 e0 ed ff ff 	mov    %rax,-0x1220(%rbp)
    d6ab:	48 c7 85 e8 ed ff ff 	movq   $0x0,-0x1218(%rbp)
    d6b2:	00 00 00 00 
    d6b6:	48 8d 85 50 ea ff ff 	lea    -0x15b0(%rbp),%rax
    d6bd:	48 89 85 f0 ed ff ff 	mov    %rax,-0x1210(%rbp)
    d6c4:	48 8d 85 50 ea ff ff 	lea    -0x15b0(%rbp),%rax
    d6cb:	48 83 c0 14          	add    $0x14,%rax
    d6cf:	48 89 85 f8 ed ff ff 	mov    %rax,-0x1208(%rbp)
    d6d6:	48 8d 85 50 ea ff ff 	lea    -0x15b0(%rbp),%rax
    d6dd:	48 83 c0 14          	add    $0x14,%rax
    d6e1:	48 89 85 00 ee ff ff 	mov    %rax,-0x1200(%rbp)
    d6e8:	48 8d 85 e0 e6 ff ff 	lea    -0x1920(%rbp),%rax
    d6ef:	48 89 85 08 ee ff ff 	mov    %rax,-0x11f8(%rbp)
    d6f6:	48 8d 85 50 ea ff ff 	lea    -0x15b0(%rbp),%rax
    d6fd:	48 83 c0 14          	add    $0x14,%rax
    d701:	48 89 85 10 ee ff ff 	mov    %rax,-0x11f0(%rbp)
    d708:	48 c7 85 18 ee ff ff 	movq   $0x0,-0x11e8(%rbp)
    d70f:	00 00 00 00 
    d713:	48 c7 85 20 ee ff ff 	movq   $0x0,-0x11e0(%rbp)
    d71a:	00 00 00 00 
    d71e:	48 8d 85 dc e6 ff ff 	lea    -0x1924(%rbp),%rax
    d725:	48 89 85 28 ee ff ff 	mov    %rax,-0x11d8(%rbp)
    d72c:	48 8d 85 dc e6 ff ff 	lea    -0x1924(%rbp),%rax
    d733:	48 89 85 30 ee ff ff 	mov    %rax,-0x11d0(%rbp)
    d73a:	48 8d 85 dc e6 ff ff 	lea    -0x1924(%rbp),%rax
    d741:	48 89 85 38 ee ff ff 	mov    %rax,-0x11c8(%rbp)
    d748:	48 8d 85 dc e6 ff ff 	lea    -0x1924(%rbp),%rax
    d74f:	48 89 85 40 ee ff ff 	mov    %rax,-0x11c0(%rbp)
    d756:	48 c7 85 48 ee ff ff 	movq   $0x0,-0x11b8(%rbp)
    d75d:	00 00 00 00 
    d761:	48 8d 05 94 fb 00 00 	lea    0xfb94(%rip),%rax        # 1d2fc <g_650>
    d768:	48 89 85 50 ee ff ff 	mov    %rax,-0x11b0(%rbp)
    d76f:	48 8d 05 a6 f9 00 00 	lea    0xf9a6(%rip),%rax        # 1d11c <g_197>
    d776:	48 89 85 58 ee ff ff 	mov    %rax,-0x11a8(%rbp)
    d77d:	48 8d 05 98 f9 00 00 	lea    0xf998(%rip),%rax        # 1d11c <g_197>
    d784:	48 89 85 60 ee ff ff 	mov    %rax,-0x11a0(%rbp)
    d78b:	48 8d 05 6a fb 00 00 	lea    0xfb6a(%rip),%rax        # 1d2fc <g_650>
    d792:	48 89 85 68 ee ff ff 	mov    %rax,-0x1198(%rbp)
    d799:	48 8d 85 50 ea ff ff 	lea    -0x15b0(%rbp),%rax
    d7a0:	48 83 c0 14          	add    $0x14,%rax
    d7a4:	48 89 85 70 ee ff ff 	mov    %rax,-0x1190(%rbp)
    d7ab:	48 8d 85 50 ea ff ff 	lea    -0x15b0(%rbp),%rax
    d7b2:	48 89 85 78 ee ff ff 	mov    %rax,-0x1188(%rbp)
    d7b9:	48 c7 85 80 ee ff ff 	movq   $0x0,-0x1180(%rbp)
    d7c0:	00 00 00 00 
    d7c4:	48 8d 85 dc e6 ff ff 	lea    -0x1924(%rbp),%rax
    d7cb:	48 89 85 88 ee ff ff 	mov    %rax,-0x1178(%rbp)
    d7d2:	48 c7 85 90 ee ff ff 	movq   $0x0,-0x1170(%rbp)
    d7d9:	00 00 00 00 
    d7dd:	48 8d 85 50 ea ff ff 	lea    -0x15b0(%rbp),%rax
    d7e4:	48 89 85 98 ee ff ff 	mov    %rax,-0x1168(%rbp)
    d7eb:	48 8d 85 dc e6 ff ff 	lea    -0x1924(%rbp),%rax
    d7f2:	48 89 85 a0 ee ff ff 	mov    %rax,-0x1160(%rbp)
    d7f9:	48 8d 85 f0 e6 ff ff 	lea    -0x1910(%rbp),%rax
    d800:	48 89 85 a8 ee ff ff 	mov    %rax,-0x1158(%rbp)
    d807:	48 8d 85 50 ea ff ff 	lea    -0x15b0(%rbp),%rax
    d80e:	48 83 c0 14          	add    $0x14,%rax
    d812:	48 89 85 b0 ee ff ff 	mov    %rax,-0x1150(%rbp)
    d819:	48 8d 85 f0 e6 ff ff 	lea    -0x1910(%rbp),%rax
    d820:	48 89 85 b8 ee ff ff 	mov    %rax,-0x1148(%rbp)
    d827:	48 8d 85 dc e6 ff ff 	lea    -0x1924(%rbp),%rax
    d82e:	48 89 85 c0 ee ff ff 	mov    %rax,-0x1140(%rbp)
    d835:	48 8d 05 e8 f7 00 00 	lea    0xf7e8(%rip),%rax        # 1d024 <g_2>
    d83c:	48 89 85 c8 ee ff ff 	mov    %rax,-0x1138(%rbp)
    d843:	48 8d 05 d2 f8 00 00 	lea    0xf8d2(%rip),%rax        # 1d11c <g_197>
    d84a:	48 89 85 d0 ee ff ff 	mov    %rax,-0x1130(%rbp)
    d851:	48 c7 85 d8 ee ff ff 	movq   $0x0,-0x1128(%rbp)
    d858:	00 00 00 00 
    d85c:	48 c7 85 e0 ee ff ff 	movq   $0x0,-0x1120(%rbp)
    d863:	00 00 00 00 
    d867:	48 8d 05 ae f8 00 00 	lea    0xf8ae(%rip),%rax        # 1d11c <g_197>
    d86e:	48 89 85 e8 ee ff ff 	mov    %rax,-0x1118(%rbp)
    d875:	48 8d 85 dc e6 ff ff 	lea    -0x1924(%rbp),%rax
    d87c:	48 89 85 f0 ee ff ff 	mov    %rax,-0x1110(%rbp)
    d883:	48 8d 05 9a f7 00 00 	lea    0xf79a(%rip),%rax        # 1d024 <g_2>
    d88a:	48 89 85 f8 ee ff ff 	mov    %rax,-0x1108(%rbp)
    d891:	48 8d 05 64 fa 00 00 	lea    0xfa64(%rip),%rax        # 1d2fc <g_650>
    d898:	48 89 85 00 ef ff ff 	mov    %rax,-0x1100(%rbp)
    d89f:	48 8d 05 56 fa 00 00 	lea    0xfa56(%rip),%rax        # 1d2fc <g_650>
    d8a6:	48 89 85 08 ef ff ff 	mov    %rax,-0x10f8(%rbp)
    d8ad:	48 8d 05 70 f7 00 00 	lea    0xf770(%rip),%rax        # 1d024 <g_2>
    d8b4:	48 89 85 10 ef ff ff 	mov    %rax,-0x10f0(%rbp)
    d8bb:	48 8d 85 dc e6 ff ff 	lea    -0x1924(%rbp),%rax
    d8c2:	48 89 85 18 ef ff ff 	mov    %rax,-0x10e8(%rbp)
    d8c9:	48 c7 85 20 ef ff ff 	movq   $0x0,-0x10e0(%rbp)
    d8d0:	00 00 00 00 
    d8d4:	48 8d 05 41 f8 00 00 	lea    0xf841(%rip),%rax        # 1d11c <g_197>
    d8db:	48 89 85 28 ef ff ff 	mov    %rax,-0x10d8(%rbp)
    d8e2:	48 8d 85 dc e6 ff ff 	lea    -0x1924(%rbp),%rax
    d8e9:	48 89 85 30 ef ff ff 	mov    %rax,-0x10d0(%rbp)
    d8f0:	48 8d 05 25 f8 00 00 	lea    0xf825(%rip),%rax        # 1d11c <g_197>
    d8f7:	48 89 85 38 ef ff ff 	mov    %rax,-0x10c8(%rbp)
    d8fe:	48 8d 85 f0 e6 ff ff 	lea    -0x1910(%rbp),%rax
    d905:	48 89 85 40 ef ff ff 	mov    %rax,-0x10c0(%rbp)
    d90c:	48 8d 05 e9 f9 00 00 	lea    0xf9e9(%rip),%rax        # 1d2fc <g_650>
    d913:	48 89 85 48 ef ff ff 	mov    %rax,-0x10b8(%rbp)
    d91a:	48 8d 85 dc e6 ff ff 	lea    -0x1924(%rbp),%rax
    d921:	48 89 85 50 ef ff ff 	mov    %rax,-0x10b0(%rbp)
    d928:	48 c7 85 58 ef ff ff 	movq   $0x0,-0x10a8(%rbp)
    d92f:	00 00 00 00 
    d933:	48 8d 85 dc e6 ff ff 	lea    -0x1924(%rbp),%rax
    d93a:	48 89 85 60 ef ff ff 	mov    %rax,-0x10a0(%rbp)
    d941:	48 8d 05 b4 f9 00 00 	lea    0xf9b4(%rip),%rax        # 1d2fc <g_650>
    d948:	48 89 85 68 ef ff ff 	mov    %rax,-0x1098(%rbp)
    d94f:	48 8d 85 f0 e6 ff ff 	lea    -0x1910(%rbp),%rax
    d956:	48 89 85 70 ef ff ff 	mov    %rax,-0x1090(%rbp)
    d95d:	48 c7 85 78 ef ff ff 	movq   $0x0,-0x1088(%rbp)
    d964:	00 00 00 00 
    d968:	48 8d 85 50 ea ff ff 	lea    -0x15b0(%rbp),%rax
    d96f:	48 89 85 80 ef ff ff 	mov    %rax,-0x1080(%rbp)
    d976:	48 8d 85 50 ea ff ff 	lea    -0x15b0(%rbp),%rax
    d97d:	48 89 85 88 ef ff ff 	mov    %rax,-0x1078(%rbp)
    d984:	48 8d 85 f0 e6 ff ff 	lea    -0x1910(%rbp),%rax
    d98b:	48 89 85 90 ef ff ff 	mov    %rax,-0x1070(%rbp)
    d992:	48 8d 85 50 ea ff ff 	lea    -0x15b0(%rbp),%rax
    d999:	48 89 85 98 ef ff ff 	mov    %rax,-0x1068(%rbp)
    d9a0:	48 8d 85 dc e6 ff ff 	lea    -0x1924(%rbp),%rax
    d9a7:	48 89 85 a0 ef ff ff 	mov    %rax,-0x1060(%rbp)
    d9ae:	48 8d 85 50 ea ff ff 	lea    -0x15b0(%rbp),%rax
    d9b5:	48 83 c0 14          	add    $0x14,%rax
    d9b9:	48 89 85 a8 ef ff ff 	mov    %rax,-0x1058(%rbp)
    d9c0:	48 8d 85 50 ea ff ff 	lea    -0x15b0(%rbp),%rax
    d9c7:	48 83 c0 14          	add    $0x14,%rax
    d9cb:	48 89 85 b0 ef ff ff 	mov    %rax,-0x1050(%rbp)
    d9d2:	48 8d 85 dc e6 ff ff 	lea    -0x1924(%rbp),%rax
    d9d9:	48 89 85 b8 ef ff ff 	mov    %rax,-0x1048(%rbp)
    d9e0:	48 8d 85 50 ea ff ff 	lea    -0x15b0(%rbp),%rax
    d9e7:	48 89 85 c0 ef ff ff 	mov    %rax,-0x1040(%rbp)
    d9ee:	48 8d 85 f0 e6 ff ff 	lea    -0x1910(%rbp),%rax
    d9f5:	48 89 85 c8 ef ff ff 	mov    %rax,-0x1038(%rbp)
    d9fc:	48 8d 05 21 f6 00 00 	lea    0xf621(%rip),%rax        # 1d024 <g_2>
    da03:	48 89 85 d0 ef ff ff 	mov    %rax,-0x1030(%rbp)
    da0a:	48 c7 85 d8 ef ff ff 	movq   $0x0,-0x1028(%rbp)
    da11:	00 00 00 00 
    da15:	c7 85 04 e7 ff ff 00 	movl   $0x0,-0x18fc(%rbp)
    da1c:	00 00 00 
    da1f:	eb 1a                	jmp    da3b <func_27+0x1209>
    da21:	8b 85 04 e7 ff ff    	mov    -0x18fc(%rbp),%eax
    da27:	48 98                	cltq   
    da29:	c7 84 85 30 ea ff ff 	movl   $0xbf12943f,-0x15d0(%rbp,%rax,4)
    da30:	3f 94 12 bf 
    da34:	83 85 04 e7 ff ff 01 	addl   $0x1,-0x18fc(%rbp)
    da3b:	83 bd 04 e7 ff ff 05 	cmpl   $0x5,-0x18fc(%rbp)
    da42:	7e dd                	jle    da21 <func_27+0x11ef>
    da44:	c7 85 04 e7 ff ff 00 	movl   $0x0,-0x18fc(%rbp)
    da4b:	00 00 00 
    da4e:	eb 1a                	jmp    da6a <func_27+0x1238>
    da50:	8b 85 04 e7 ff ff    	mov    -0x18fc(%rbp),%eax
    da56:	48 98                	cltq   
    da58:	c7 84 85 e4 e9 ff ff 	movl   $0x71cf3a38,-0x161c(%rbp,%rax,4)
    da5f:	38 3a cf 71 
    da63:	83 85 04 e7 ff ff 01 	addl   $0x1,-0x18fc(%rbp)
    da6a:	83 bd 04 e7 ff ff 00 	cmpl   $0x0,-0x18fc(%rbp)
    da71:	7e dd                	jle    da50 <func_27+0x121e>
    da73:	c7 85 bc e6 ff ff 00 	movl   $0x0,-0x1944(%rbp)
    da7a:	00 00 00 
    da7d:	e9 f9 06 00 00       	jmpq   e17b <func_27+0x1949>
    da82:	48 8d 05 67 f6 00 00 	lea    0xf667(%rip),%rax        # 1d0f0 <g_150>
    da89:	48 89 85 10 e9 ff ff 	mov    %rax,-0x16f0(%rbp)
    da90:	c7 85 4c e7 ff ff 4d 	movl   $0xbdf1f34d,-0x18b4(%rbp)
    da97:	f3 f1 bd 
    da9a:	48 c7 85 f0 ec ff ff 	movq   $0x0,-0x1310(%rbp)
    daa1:	00 00 00 00 
    daa5:	48 c7 85 f8 ec ff ff 	movq   $0x0,-0x1308(%rbp)
    daac:	00 00 00 00 
    dab0:	48 8d 05 c9 1a 01 00 	lea    0x11ac9(%rip),%rax        # 1f580 <g_40+0x100>
    dab7:	48 89 85 00 ed ff ff 	mov    %rax,-0x1300(%rbp)
    dabe:	48 8d 05 bb 1a 01 00 	lea    0x11abb(%rip),%rax        # 1f580 <g_40+0x100>
    dac5:	48 89 85 08 ed ff ff 	mov    %rax,-0x12f8(%rbp)
    dacc:	48 8d 05 ad 1a 01 00 	lea    0x11aad(%rip),%rax        # 1f580 <g_40+0x100>
    dad3:	48 89 85 10 ed ff ff 	mov    %rax,-0x12f0(%rbp)
    dada:	48 8d 05 9f 1a 01 00 	lea    0x11a9f(%rip),%rax        # 1f580 <g_40+0x100>
    dae1:	48 89 85 18 ed ff ff 	mov    %rax,-0x12e8(%rbp)
    dae8:	48 8d 05 91 1a 01 00 	lea    0x11a91(%rip),%rax        # 1f580 <g_40+0x100>
    daef:	48 89 85 20 ed ff ff 	mov    %rax,-0x12e0(%rbp)
    daf6:	48 8d 05 83 1a 01 00 	lea    0x11a83(%rip),%rax        # 1f580 <g_40+0x100>
    dafd:	48 89 85 28 ed ff ff 	mov    %rax,-0x12d8(%rbp)
    db04:	48 8d 05 7d 19 01 00 	lea    0x1197d(%rip),%rax        # 1f488 <g_40+0x8>
    db0b:	48 89 85 30 ed ff ff 	mov    %rax,-0x12d0(%rbp)
    db12:	48 8d 05 67 1a 01 00 	lea    0x11a67(%rip),%rax        # 1f580 <g_40+0x100>
    db19:	48 89 85 38 ed ff ff 	mov    %rax,-0x12c8(%rbp)
    db20:	48 c7 85 40 ed ff ff 	movq   $0x0,-0x12c0(%rbp)
    db27:	00 00 00 00 
    db2b:	48 8d 05 4e 1a 01 00 	lea    0x11a4e(%rip),%rax        # 1f580 <g_40+0x100>
    db32:	48 89 85 48 ed ff ff 	mov    %rax,-0x12b8(%rbp)
    db39:	48 c7 85 50 ed ff ff 	movq   $0x0,-0x12b0(%rbp)
    db40:	00 00 00 00 
    db44:	48 8d 05 35 1a 01 00 	lea    0x11a35(%rip),%rax        # 1f580 <g_40+0x100>
    db4b:	48 89 85 58 ed ff ff 	mov    %rax,-0x12a8(%rbp)
    db52:	48 8d 05 2f 19 01 00 	lea    0x1192f(%rip),%rax        # 1f488 <g_40+0x8>
    db59:	48 89 85 60 ed ff ff 	mov    %rax,-0x12a0(%rbp)
    db60:	48 8d 05 81 19 01 00 	lea    0x11981(%rip),%rax        # 1f4e8 <g_40+0x68>
    db67:	48 89 85 68 ed ff ff 	mov    %rax,-0x1298(%rbp)
    db6e:	48 8d 05 73 19 01 00 	lea    0x11973(%rip),%rax        # 1f4e8 <g_40+0x68>
    db75:	48 89 85 70 ed ff ff 	mov    %rax,-0x1290(%rbp)
    db7c:	48 8d 05 fd 19 01 00 	lea    0x119fd(%rip),%rax        # 1f580 <g_40+0x100>
    db83:	48 89 85 78 ed ff ff 	mov    %rax,-0x1288(%rbp)
    db8a:	48 c7 85 80 ed ff ff 	movq   $0x0,-0x1280(%rbp)
    db91:	00 00 00 00 
    db95:	48 8d 05 e4 19 01 00 	lea    0x119e4(%rip),%rax        # 1f580 <g_40+0x100>
    db9c:	48 89 85 88 ed ff ff 	mov    %rax,-0x1278(%rbp)
    dba3:	48 8d 05 d6 19 01 00 	lea    0x119d6(%rip),%rax        # 1f580 <g_40+0x100>
    dbaa:	48 89 85 90 ed ff ff 	mov    %rax,-0x1270(%rbp)
    dbb1:	48 8d 05 c8 19 01 00 	lea    0x119c8(%rip),%rax        # 1f580 <g_40+0x100>
    dbb8:	48 89 85 98 ed ff ff 	mov    %rax,-0x1268(%rbp)
    dbbf:	48 c7 85 a0 ed ff ff 	movq   $0x0,-0x1260(%rbp)
    dbc6:	00 00 00 00 
    dbca:	48 c7 85 a8 ed ff ff 	movq   $0x0,-0x1258(%rbp)
    dbd1:	00 00 00 00 
    dbd5:	48 8d 85 c8 e6 ff ff 	lea    -0x1938(%rbp),%rax
    dbdc:	48 89 85 18 e9 ff ff 	mov    %rax,-0x16e8(%rbp)
    dbe3:	48 8d 05 76 f6 00 00 	lea    0xf676(%rip),%rax        # 1d260 <g_290>
    dbea:	48 89 85 20 eb ff ff 	mov    %rax,-0x14e0(%rbp)
    dbf1:	48 8d 05 98 f4 00 00 	lea    0xf498(%rip),%rax        # 1d090 <g_123>
    dbf8:	48 89 85 28 eb ff ff 	mov    %rax,-0x14d8(%rbp)
    dbff:	48 8d 05 5a f6 00 00 	lea    0xf65a(%rip),%rax        # 1d260 <g_290>
    dc06:	48 89 85 30 eb ff ff 	mov    %rax,-0x14d0(%rbp)
    dc0d:	48 8d 05 7c f4 00 00 	lea    0xf47c(%rip),%rax        # 1d090 <g_123>
    dc14:	48 89 85 38 eb ff ff 	mov    %rax,-0x14c8(%rbp)
    dc1b:	48 8d 05 3e f6 00 00 	lea    0xf63e(%rip),%rax        # 1d260 <g_290>
    dc22:	48 89 85 40 eb ff ff 	mov    %rax,-0x14c0(%rbp)
    dc29:	48 8d 05 60 f4 00 00 	lea    0xf460(%rip),%rax        # 1d090 <g_123>
    dc30:	48 89 85 48 eb ff ff 	mov    %rax,-0x14b8(%rbp)
    dc37:	48 8d 05 22 f6 00 00 	lea    0xf622(%rip),%rax        # 1d260 <g_290>
    dc3e:	48 89 85 50 eb ff ff 	mov    %rax,-0x14b0(%rbp)
    dc45:	48 8d 05 44 f4 00 00 	lea    0xf444(%rip),%rax        # 1d090 <g_123>
    dc4c:	48 89 85 58 eb ff ff 	mov    %rax,-0x14a8(%rbp)
    dc53:	48 8d 05 06 f6 00 00 	lea    0xf606(%rip),%rax        # 1d260 <g_290>
    dc5a:	48 89 85 60 eb ff ff 	mov    %rax,-0x14a0(%rbp)
    dc61:	48 8d 05 c0 f6 00 00 	lea    0xf6c0(%rip),%rax        # 1d328 <g_651+0x28>
    dc68:	48 89 85 20 e9 ff ff 	mov    %rax,-0x16e0(%rbp)
    dc6f:	48 c7 85 90 ea ff ff 	movq   $0x0,-0x1570(%rbp)
    dc76:	00 00 00 00 
    dc7a:	48 c7 85 98 ea ff ff 	movq   $0x0,-0x1568(%rbp)
    dc81:	00 00 00 00 
    dc85:	48 c7 85 a0 ea ff ff 	movq   $0x0,-0x1560(%rbp)
    dc8c:	00 00 00 00 
    dc90:	48 c7 85 a8 ea ff ff 	movq   $0x0,-0x1558(%rbp)
    dc97:	00 00 00 00 
    dc9b:	48 8d 85 90 ea ff ff 	lea    -0x1570(%rbp),%rax
    dca2:	48 83 c0 08          	add    $0x8,%rax
    dca6:	48 89 85 c8 e7 ff ff 	mov    %rax,-0x1838(%rbp)
    dcad:	48 8d 85 c8 e7 ff ff 	lea    -0x1838(%rbp),%rax
    dcb4:	48 89 85 d0 e7 ff ff 	mov    %rax,-0x1830(%rbp)
    dcbb:	c7 85 08 e7 ff ff 00 	movl   $0x0,-0x18f8(%rbp)
    dcc2:	00 00 00 
    dcc5:	eb 1a                	jmp    dce1 <func_27+0x14af>
    dcc7:	8b 85 08 e7 ff ff    	mov    -0x18f8(%rbp),%eax
    dccd:	48 98                	cltq   
    dccf:	c7 84 85 f0 e9 ff ff 	movl   $0x0,-0x1610(%rbp,%rax,4)
    dcd6:	00 00 00 00 
    dcda:	83 85 08 e7 ff ff 01 	addl   $0x1,-0x18f8(%rbp)
    dce1:	83 bd 08 e7 ff ff 04 	cmpl   $0x4,-0x18f8(%rbp)
    dce8:	7e dd                	jle    dcc7 <func_27+0x1495>
    dcea:	48 8b 85 10 e9 ff ff 	mov    -0x16f0(%rbp),%rax
    dcf1:	c6 00 16             	movb   $0x16,(%rax)
    dcf4:	8b 85 fc e9 ff ff    	mov    -0x1604(%rbp),%eax
    dcfa:	85 c0                	test   %eax,%eax
    dcfc:	48 8d 05 15 f4 00 00 	lea    0xf415(%rip),%rax        # 1d118 <g_194>
    dd03:	48 89 85 28 e9 ff ff 	mov    %rax,-0x16d8(%rbp)
    dd0a:	48 8d 85 20 fa ff ff 	lea    -0x5e0(%rbp),%rax
    dd11:	48 8d 15 68 a3 00 00 	lea    0xa368(%rip),%rdx        # 18080 <g_2140+0x14>
    dd18:	b9 80 00 00 00       	mov    $0x80,%ecx
    dd1d:	48 89 c7             	mov    %rax,%rdi
    dd20:	48 89 d6             	mov    %rdx,%rsi
    dd23:	f3 48 a5             	rep movsq %ds:(%rsi),%es:(%rdi)
    dd26:	48 8d 05 23 19 01 00 	lea    0x11923(%rip),%rax        # 1f650 <g_211>
    dd2d:	48 89 85 30 e9 ff ff 	mov    %rax,-0x16d0(%rbp)
    dd34:	48 8d 85 10 ea ff ff 	lea    -0x15f0(%rbp),%rax
    dd3b:	48 83 c0 04          	add    $0x4,%rax
    dd3f:	48 89 85 38 e9 ff ff 	mov    %rax,-0x16c8(%rbp)
    dd46:	48 8d 85 80 f5 ff ff 	lea    -0xa80(%rbp),%rax
    dd4d:	48 05 c8 01 00 00    	add    $0x1c8,%rax
    dd53:	48 89 85 40 e9 ff ff 	mov    %rax,-0x16c0(%rbp)
    dd5a:	48 8b 05 e7 21 01 00 	mov    0x121e7(%rip),%rax        # 1ff48 <g_1473>
    dd61:	8b 08                	mov    (%rax),%ecx
    dd63:	48 8b 95 a0 e6 ff ff 	mov    -0x1960(%rbp),%rdx
    dd6a:	8b 12                	mov    (%rdx),%edx
    dd6c:	09 ca                	or     %ecx,%edx
    dd6e:	89 10                	mov    %edx,(%rax)
    dd70:	8b 9d bc e6 ff ff    	mov    -0x1944(%rbp),%ebx
    dd76:	44 8b a5 bc e6 ff ff 	mov    -0x1944(%rbp),%r12d
    dd7d:	44 8b bd 5c fb ff ff 	mov    -0x4a4(%rbp),%r15d
    dd84:	8b 85 bc e6 ff ff    	mov    -0x1944(%rbp),%eax
    dd8a:	44 0f be e8          	movsbl %al,%r13d
    dd8e:	8b 85 5c fb ff ff    	mov    -0x4a4(%rbp),%eax
    dd94:	44 0f b6 f0          	movzbl %al,%r14d
    dd98:	48 8b 05 b9 21 01 00 	mov    0x121b9(%rip),%rax        # 1ff58 <g_1497>
    dd9f:	48 39 85 f0 e8 ff ff 	cmp    %rax,-0x1710(%rbp)
    dda6:	0f 95 c0             	setne  %al
    dda9:	0f b6 c0             	movzbl %al,%eax
    ddac:	be 01 00 00 00       	mov    $0x1,%esi
    ddb1:	89 c7                	mov    %eax,%edi
    ddb3:	e8 4d ce ff ff       	callq  ac05 <safe_lshift_func_uint8_t_u_s>
    ddb8:	3c 05                	cmp    $0x5,%al
    ddba:	0f 97 c0             	seta   %al
    ddbd:	0f b6 c0             	movzbl %al,%eax
    ddc0:	44 89 f6             	mov    %r14d,%esi
    ddc3:	89 c7                	mov    %eax,%edi
    ddc5:	e8 11 ce ff ff       	callq  abdb <safe_div_func_uint8_t_u_u>
    ddca:	0f be c0             	movsbl %al,%eax
    ddcd:	be 01 00 00 00       	mov    $0x1,%esi
    ddd2:	89 c7                	mov    %eax,%edi
    ddd4:	e8 5c c5 ff ff       	callq  a335 <safe_rshift_func_int8_t_s_s>
    ddd9:	84 c0                	test   %al,%al
    dddb:	75 09                	jne    dde6 <func_27+0x15b4>
    dddd:	0f b6 85 c8 e6 ff ff 	movzbl -0x1938(%rbp),%eax
    dde4:	84 c0                	test   %al,%al
    dde6:	48 8b 85 28 e9 ff ff 	mov    -0x16d8(%rbp),%rax
    dded:	c7 00 01 00 00 00    	movl   $0x1,(%rax)
    ddf3:	8b 85 bc e6 ff ff    	mov    -0x1944(%rbp),%eax
    ddf9:	0f be c0             	movsbl %al,%eax
    ddfc:	44 89 ee             	mov    %r13d,%esi
    ddff:	89 c7                	mov    %eax,%edi
    de01:	e8 2b c4 ff ff       	callq  a231 <safe_mod_func_int8_t_s_s>
    de06:	0f be c0             	movsbl %al,%eax
    de09:	41 39 c7             	cmp    %eax,%r15d
    de0c:	0f 95 c0             	setne  %al
    de0f:	0f b6 c0             	movzbl %al,%eax
    de12:	0b 85 4c e7 ff ff    	or     -0x18b4(%rbp),%eax
    de18:	89 c2                	mov    %eax,%edx
    de1a:	8b 85 18 e7 ff ff    	mov    -0x18e8(%rbp),%eax
    de20:	89 c1                	mov    %eax,%ecx
    de22:	0f b7 85 d2 e6 ff ff 	movzwl -0x192e(%rbp),%eax
    de29:	09 c8                	or     %ecx,%eax
    de2b:	66 89 85 d2 e6 ff ff 	mov    %ax,-0x192e(%rbp)
    de32:	0f bf 85 d2 e6 ff ff 	movswl -0x192e(%rbp),%eax
    de39:	89 d6                	mov    %edx,%esi
    de3b:	89 c7                	mov    %eax,%edi
    de3d:	e8 e3 d0 ff ff       	callq  af25 <safe_div_func_uint32_t_u_u>
    de42:	48 8b 95 b8 e7 ff ff 	mov    -0x1848(%rbp),%rdx
    de49:	48 8b 85 30 e9 ff ff 	mov    -0x16d0(%rbp),%rax
    de50:	48 89 10             	mov    %rdx,(%rax)
    de53:	48 8b 05 fe 17 01 00 	mov    0x117fe(%rip),%rax        # 1f658 <g_215>
    de5a:	8b 00                	mov    (%rax),%eax
    de5c:	85 c0                	test   %eax,%eax
    de5e:	7e 11                	jle    de71 <func_27+0x163f>
    de60:	48 83 bd d8 e7 ff ff 	cmpq   $0x0,-0x1828(%rbp)
    de67:	00 
    de68:	74 07                	je     de71 <func_27+0x163f>
    de6a:	ba 01 00 00 00       	mov    $0x1,%edx
    de6f:	eb 05                	jmp    de76 <func_27+0x1644>
    de71:	ba 00 00 00 00       	mov    $0x0,%edx
    de76:	8b 05 90 f2 00 00    	mov    0xf290(%rip),%eax        # 1d10c <g_167>
    de7c:	39 c2                	cmp    %eax,%edx
    de7e:	0f 95 c0             	setne  %al
    de81:	0f b6 c0             	movzbl %al,%eax
    de84:	44 89 e6             	mov    %r12d,%esi
    de87:	89 c7                	mov    %eax,%edi
    de89:	e8 ec cf ff ff       	callq  ae7a <safe_rshift_func_uint16_t_u_u>
    de8e:	0f b7 d0             	movzwl %ax,%edx
    de91:	48 8b 85 e8 e8 ff ff 	mov    -0x1718(%rbp),%rax
    de98:	98                   	cwtl   
    de99:	89 d6                	mov    %edx,%esi
    de9b:	89 c7                	mov    %eax,%edi
    de9d:	e8 f0 c5 ff ff       	callq  a492 <safe_lshift_func_int16_t_s_s>
    dea2:	98                   	cwtl   
    dea3:	89 c6                	mov    %eax,%esi
    dea5:	bf f9 00 00 00       	mov    $0xf9,%edi
    deaa:	e8 0f ce ff ff       	callq  acbe <safe_rshift_func_uint8_t_u_u>
    deaf:	0f b6 c0             	movzbl %al,%eax
    deb2:	89 de                	mov    %ebx,%esi
    deb4:	89 c7                	mov    %eax,%edi
    deb6:	e8 4b cf ff ff       	callq  ae06 <safe_lshift_func_uint16_t_u_u>
    debb:	0f b7 d0             	movzwl %ax,%edx
    debe:	48 8b 85 38 e9 ff ff 	mov    -0x16c8(%rbp),%rax
    dec5:	89 10                	mov    %edx,(%rax)
    dec7:	48 8b 95 f0 f7 ff ff 	mov    -0x810(%rbp),%rdx
    dece:	48 8b 85 40 e9 ff ff 	mov    -0x16c0(%rbp),%rax
    ded5:	48 89 10             	mov    %rdx,(%rax)
    ded8:	48 8b 85 40 e9 ff ff 	mov    -0x16c0(%rbp),%rax
    dedf:	48 8b 00             	mov    (%rax),%rax
    dee2:	48 8d 15 67 20 01 00 	lea    0x12067(%rip),%rdx        # 1ff50 <g_1498>
    dee9:	48 39 d0             	cmp    %rdx,%rax
    deec:	0f 95 c0             	setne  %al
    deef:	0f b6 d0             	movzbl %al,%edx
    def2:	48 8b 85 38 e9 ff ff 	mov    -0x16c8(%rbp),%rax
    def9:	89 10                	mov    %edx,(%rax)
    defb:	48 8b 85 38 e9 ff ff 	mov    -0x16c8(%rbp),%rax
    df02:	8b 10                	mov    (%rax),%edx
    df04:	8b 85 54 fc ff ff    	mov    -0x3ac(%rbp),%eax
    df0a:	09 d0                	or     %edx,%eax
    df0c:	89 85 54 fc ff ff    	mov    %eax,-0x3ac(%rbp)
    df12:	48 0f bf 9d d4 e6 ff 	movswq -0x192c(%rbp),%rbx
    df19:	ff 
    df1a:	8b 85 bc e6 ff ff    	mov    -0x1944(%rbp),%eax
    df20:	44 0f b6 e0          	movzbl %al,%r12d
    df24:	48 8b 85 e0 e8 ff ff 	mov    -0x1720(%rbp),%rax
    df2b:	44 8b 28             	mov    (%rax),%r13d
    df2e:	48 8b 85 e0 e8 ff ff 	mov    -0x1720(%rbp),%rax
    df35:	8b 00                	mov    (%rax),%eax
    df37:	41 89 c6             	mov    %eax,%r14d
    df3a:	44 0f b6 3d 1e f4 00 	movzbl 0xf41e(%rip),%r15d        # 1d360 <g_737+0x20>
    df41:	00 
    df42:	48 8b 85 18 e9 ff ff 	mov    -0x16e8(%rbp),%rax
    df49:	0f b6 00             	movzbl (%rax),%eax
    df4c:	89 c2                	mov    %eax,%edx
    df4e:	8b 05 a8 f3 00 00    	mov    0xf3a8(%rip),%eax        # 1d2fc <g_650>
    df54:	85 c0                	test   %eax,%eax
    df56:	75 09                	jne    df61 <func_27+0x172f>
    df58:	83 bd bc e6 ff ff 00 	cmpl   $0x0,-0x1944(%rbp)
    df5f:	74 07                	je     df68 <func_27+0x1736>
    df61:	b8 01 00 00 00       	mov    $0x1,%eax
    df66:	eb 05                	jmp    df6d <func_27+0x173b>
    df68:	b8 00 00 00 00       	mov    $0x0,%eax
    df6d:	09 d0                	or     %edx,%eax
    df6f:	89 c2                	mov    %eax,%edx
    df71:	48 8b 85 18 e9 ff ff 	mov    -0x16e8(%rbp),%rax
    df78:	88 10                	mov    %dl,(%rax)
    df7a:	0f b7 85 d0 e6 ff ff 	movzwl -0x1930(%rbp),%eax
    df81:	0f be d0             	movsbl %al,%edx
    df84:	0f b7 05 69 f3 00 00 	movzwl 0xf369(%rip),%eax        # 1d2f4 <g_623>
    df8b:	0f bf c8             	movswl %ax,%ecx
    df8e:	48 8b 85 a0 e6 ff ff 	mov    -0x1960(%rbp),%rax
    df95:	8b 00                	mov    (%rax),%eax
    df97:	85 c0                	test   %eax,%eax
    df99:	75 0c                	jne    dfa7 <func_27+0x1775>
    df9b:	0f b7 85 d0 e6 ff ff 	movzwl -0x1930(%rbp),%eax
    dfa2:	66 85 c0             	test   %ax,%ax
    dfa5:	74 07                	je     dfae <func_27+0x177c>
    dfa7:	b8 01 00 00 00       	mov    $0x1,%eax
    dfac:	eb 05                	jmp    dfb3 <func_27+0x1781>
    dfae:	b8 00 00 00 00       	mov    $0x0,%eax
    dfb3:	48 63 f0             	movslq %eax,%rsi
    dfb6:	48 8b 05 eb f2 00 00 	mov    0xf2eb(%rip),%rax        # 1d2a8 <g_376>
    dfbd:	48 39 c6             	cmp    %rax,%rsi
    dfc0:	0f 95 c0             	setne  %al
    dfc3:	0f b6 c0             	movzbl %al,%eax
    dfc6:	39 c1                	cmp    %eax,%ecx
    dfc8:	0f 95 c0             	setne  %al
    dfcb:	0f b6 c0             	movzbl %al,%eax
    dfce:	89 d6                	mov    %edx,%esi
    dfd0:	89 c7                	mov    %eax,%edi
    dfd2:	e8 5a c2 ff ff       	callq  a231 <safe_mod_func_int8_t_s_s>
    dfd7:	48 8b 05 da 1f 01 00 	mov    0x11fda(%rip),%rax        # 1ffb8 <g_1538>
    dfde:	48 39 85 f8 e8 ff ff 	cmp    %rax,-0x1708(%rbp)
    dfe5:	0f 95 c0             	setne  %al
    dfe8:	0f b6 c0             	movzbl %al,%eax
    dfeb:	48 8b 15 76 f2 00 00 	mov    0xf276(%rip),%rdx        # 1d268 <g_290+0x8>
    dff2:	48 98                	cltq   
    dff4:	48 09 d0             	or     %rdx,%rax
    dff7:	48 89 05 6a f2 00 00 	mov    %rax,0xf26a(%rip)        # 1d268 <g_290+0x8>
    dffe:	48 8b 05 63 f2 00 00 	mov    0xf263(%rip),%rax        # 1d268 <g_290+0x8>
    e005:	89 85 e8 e6 ff ff    	mov    %eax,-0x1918(%rbp)
    e00b:	8b 85 e8 e6 ff ff    	mov    -0x1918(%rbp),%eax
    e011:	44 89 fa             	mov    %r15d,%edx
    e014:	09 c2                	or     %eax,%edx
    e016:	8b 85 bc e6 ff ff    	mov    -0x1944(%rbp),%eax
    e01c:	31 d0                	xor    %edx,%eax
    e01e:	0f b6 c0             	movzbl %al,%eax
    e021:	44 89 f6             	mov    %r14d,%esi
    e024:	89 c7                	mov    %eax,%edi
    e026:	e8 21 cc ff ff       	callq  ac4c <safe_lshift_func_uint8_t_u_u>
    e02b:	0f b6 c0             	movzbl %al,%eax
    e02e:	8b 95 bc e6 ff ff    	mov    -0x1944(%rbp),%edx
    e034:	89 d6                	mov    %edx,%esi
    e036:	89 c7                	mov    %eax,%edi
    e038:	e8 55 c4 ff ff       	callq  a492 <safe_lshift_func_int16_t_s_s>
    e03d:	0f bf d0             	movswl %ax,%edx
    e040:	0f b7 85 d0 e6 ff ff 	movzwl -0x1930(%rbp),%eax
    e047:	0f b7 c0             	movzwl %ax,%eax
    e04a:	39 c2                	cmp    %eax,%edx
    e04c:	0f 9f c0             	setg   %al
    e04f:	0f b6 d0             	movzbl %al,%edx
    e052:	48 8b 85 20 e9 ff ff 	mov    -0x16e0(%rbp),%rax
    e059:	66 89 10             	mov    %dx,(%rax)
    e05c:	48 8b 85 20 e9 ff ff 	mov    -0x16e0(%rbp),%rax
    e063:	0f b7 00             	movzwl (%rax),%eax
    e066:	0f b7 c0             	movzwl %ax,%eax
    e069:	41 39 c5             	cmp    %eax,%r13d
    e06c:	7e 07                	jle    e075 <func_27+0x1843>
    e06e:	b8 37 00 00 00       	mov    $0x37,%eax
    e073:	eb 05                	jmp    e07a <func_27+0x1848>
    e075:	b8 36 00 00 00       	mov    $0x36,%eax
    e07a:	44 89 e6             	mov    %r12d,%esi
    e07d:	89 c7                	mov    %eax,%edi
    e07f:	e8 0f cb ff ff       	callq  ab93 <safe_mul_func_uint8_t_u_u>
    e084:	48 8b 85 e0 e8 ff ff 	mov    -0x1720(%rbp),%rax
    e08b:	8b 00                	mov    (%rax),%eax
    e08d:	48 63 d0             	movslq %eax,%rdx
    e090:	8b 05 86 f0 00 00    	mov    0xf086(%rip),%eax        # 1d11c <g_197>
    e096:	48 98                	cltq   
    e098:	48 89 d6             	mov    %rdx,%rsi
    e09b:	48 89 c7             	mov    %rax,%rdi
    e09e:	e8 54 c9 ff ff       	callq  a9f7 <safe_div_func_int64_t_s_s>
    e0a3:	89 c2                	mov    %eax,%edx
    e0a5:	0f b7 85 d0 e6 ff ff 	movzwl -0x1930(%rbp),%eax
    e0ac:	0f b7 c0             	movzwl %ax,%eax
    e0af:	89 d6                	mov    %edx,%esi
    e0b1:	89 c7                	mov    %eax,%edi
    e0b3:	e8 4d c5 ff ff       	callq  a605 <safe_sub_func_int32_t_s_s>
    e0b8:	0f be c0             	movsbl %al,%eax
    e0bb:	be 06 00 00 00       	mov    $0x6,%esi
    e0c0:	89 c7                	mov    %eax,%edi
    e0c2:	e8 6e c2 ff ff       	callq  a335 <safe_rshift_func_int8_t_s_s>
    e0c7:	48 0f be c0          	movsbq %al,%rax
    e0cb:	48 89 de             	mov    %rbx,%rsi
    e0ce:	48 89 c7             	mov    %rax,%rdi
    e0d1:	e8 6b c7 ff ff       	callq  a841 <safe_add_func_int64_t_s_s>
    e0d6:	48 85 c0             	test   %rax,%rax
    e0d9:	74 74                	je     e14f <func_27+0x191d>
    e0db:	48 8d 85 d0 e7 ff ff 	lea    -0x1830(%rbp),%rax
    e0e2:	48 89 85 48 e9 ff ff 	mov    %rax,-0x16b8(%rbp)
    e0e9:	c7 85 50 e7 ff ff ff 	movl   $0xffffffff,-0x18b0(%rbp)
    e0f0:	ff ff ff 
    e0f3:	48 8b 95 d0 e7 ff ff 	mov    -0x1830(%rbp),%rdx
    e0fa:	48 8b 85 48 e9 ff ff 	mov    -0x16b8(%rbp),%rax
    e101:	48 89 10             	mov    %rdx,(%rax)
    e104:	48 8b 05 f5 19 01 00 	mov    0x119f5(%rip),%rax        # 1fb00 <g_783>
    e10b:	48 8b 95 c8 ea ff ff 	mov    -0x1538(%rbp),%rdx
    e112:	48 8b 85 60 e7 ff ff 	mov    -0x18a0(%rbp),%rax
    e119:	48 39 c2             	cmp    %rax,%rdx
    e11c:	0f 95 c0             	setne  %al
    e11f:	0f b6 c0             	movzbl %al,%eax
    e122:	09 85 50 e7 ff ff    	or     %eax,-0x18b0(%rbp)
    e128:	8b 85 50 e7 ff ff    	mov    -0x18b0(%rbp),%eax
    e12e:	89 85 ec e6 ff ff    	mov    %eax,-0x1914(%rbp)
    e134:	8b 85 60 ea ff ff    	mov    -0x15a0(%rbp),%eax
    e13a:	89 85 14 ea ff ff    	mov    %eax,-0x15ec(%rbp)
    e140:	48 8b 85 a0 e6 ff ff 	mov    -0x1960(%rbp),%rax
    e147:	8b 00                	mov    (%rax),%eax
    e149:	85 c0                	test   %eax,%eax
    e14b:	74 10                	je     e15d <func_27+0x192b>
    e14d:	eb 39                	jmp    e188 <func_27+0x1956>
    e14f:	48 8d 05 f2 14 01 00 	lea    0x114f2(%rip),%rax        # 1f648 <g_151>
    e156:	48 89 85 20 e8 ff ff 	mov    %rax,-0x17e0(%rbp)
    e15d:	8b 85 bc e6 ff ff    	mov    -0x1944(%rbp),%eax
    e163:	0f b7 c0             	movzwl %ax,%eax
    e166:	be 02 00 00 00       	mov    $0x2,%esi
    e16b:	89 c7                	mov    %eax,%edi
    e16d:	e8 8d cb ff ff       	callq  acff <safe_add_func_uint16_t_u_u>
    e172:	0f b7 c0             	movzwl %ax,%eax
    e175:	89 85 bc e6 ff ff    	mov    %eax,-0x1944(%rbp)
    e17b:	83 bd bc e6 ff ff 04 	cmpl   $0x4,-0x1944(%rbp)
    e182:	0f 85 fa f8 ff ff    	jne    da82 <func_27+0x1250>
    e188:	48 c7 85 d8 e7 ff ff 	movq   $0x16,-0x1828(%rbp)
    e18f:	16 00 00 00 
    e193:	e9 0d 05 00 00       	jmpq   e6a5 <func_27+0x1e73>
    e198:	48 8d 85 d0 e6 ff ff 	lea    -0x1930(%rbp),%rax
    e19f:	48 89 85 78 e9 ff ff 	mov    %rax,-0x1688(%rbp)
    e1a6:	48 8d 05 43 ef 00 00 	lea    0xef43(%rip),%rax        # 1d0f0 <g_150>
    e1ad:	48 89 85 80 e9 ff ff 	mov    %rax,-0x1680(%rbp)
    e1b4:	c7 85 d0 e7 ff ff 04 	movl   $0x4,-0x1830(%rbp)
    e1bb:	00 00 00 
    e1be:	48 8d 85 b0 ea ff ff 	lea    -0x1550(%rbp),%rax
    e1c5:	48 83 c0 18          	add    $0x18,%rax
    e1c9:	48 89 85 88 e9 ff ff 	mov    %rax,-0x1678(%rbp)
    e1d0:	48 8d 85 e0 e6 ff ff 	lea    -0x1920(%rbp),%rax
    e1d7:	48 89 85 90 e9 ff ff 	mov    %rax,-0x1670(%rbp)
    e1de:	c7 85 0c e7 ff ff 00 	movl   $0x0,-0x18f4(%rbp)
    e1e5:	00 00 00 
    e1e8:	eb 1a                	jmp    e204 <func_27+0x19d2>
    e1ea:	8b 85 0c e7 ff ff    	mov    -0x18f4(%rbp),%eax
    e1f0:	48 98                	cltq   
    e1f2:	c7 84 85 f0 ec ff ff 	movl   $0xb658a184,-0x1310(%rbp,%rax,4)
    e1f9:	84 a1 58 b6 
    e1fd:	83 85 0c e7 ff ff 01 	addl   $0x1,-0x18f4(%rbp)
    e204:	83 bd 0c e7 ff ff 01 	cmpl   $0x1,-0x18f4(%rbp)
    e20b:	7e dd                	jle    e1ea <func_27+0x19b8>
    e20d:	83 bd bc e6 ff ff 00 	cmpl   $0x0,-0x1944(%rbp)
    e214:	0f 94 c0             	sete   %al
    e217:	0f b6 d0             	movzbl %al,%edx
    e21a:	8b 85 e0 e6 ff ff    	mov    -0x1920(%rbp),%eax
    e220:	09 d0                	or     %edx,%eax
    e222:	89 85 e0 e6 ff ff    	mov    %eax,-0x1920(%rbp)
    e228:	48 8b 85 e0 e8 ff ff 	mov    -0x1720(%rbp),%rax
    e22f:	8b 10                	mov    (%rax),%edx
    e231:	48 8b 85 78 e9 ff ff 	mov    -0x1688(%rbp),%rax
    e238:	0f b7 00             	movzwl (%rax),%eax
    e23b:	89 c1                	mov    %eax,%ecx
    e23d:	89 d0                	mov    %edx,%eax
    e23f:	21 c8                	and    %ecx,%eax
    e241:	89 c2                	mov    %eax,%edx
    e243:	48 8b 85 78 e9 ff ff 	mov    -0x1688(%rbp),%rax
    e24a:	66 89 10             	mov    %dx,(%rax)
    e24d:	8b 85 d0 e7 ff ff    	mov    -0x1830(%rbp),%eax
    e253:	48 63 d8             	movslq %eax,%rbx
    e256:	c7 85 dc e6 ff ff 50 	movl   $0xcdceec50,-0x1924(%rbp)
    e25d:	ec ce cd 
    e260:	8b 85 58 ea ff ff    	mov    -0x15a8(%rbp),%eax
    e266:	48 98                	cltq   
    e268:	48 3d f8 00 00 00    	cmp    $0xf8,%rax
    e26e:	0f 97 c0             	seta   %al
    e271:	0f b6 d0             	movzbl %al,%edx
    e274:	8b 05 e6 2b 01 00    	mov    0x12be6(%rip),%eax        # 20e60 <g_374>
    e27a:	39 c2                	cmp    %eax,%edx
    e27c:	0f 9c c0             	setl   %al
    e27f:	0f b6 c0             	movzbl %al,%eax
    e282:	be 4e b9 00 00       	mov    $0xb94e,%esi
    e287:	89 c7                	mov    %eax,%edi
    e289:	e8 ce ca ff ff       	callq  ad5c <safe_mod_func_uint16_t_u_u>
    e28e:	0f b7 c8             	movzwl %ax,%ecx
    e291:	48 8b 95 c0 e7 ff ff 	mov    -0x1840(%rbp),%rdx
    e298:	48 8b 02             	mov    (%rdx),%rax
    e29b:	48 8d 70 ff          	lea    -0x1(%rax),%rsi
    e29f:	48 89 32             	mov    %rsi,(%rdx)
    e2a2:	48 89 ce             	mov    %rcx,%rsi
    e2a5:	48 89 c7             	mov    %rax,%rdi
    e2a8:	e8 02 ce ff ff       	callq  b0af <safe_div_func_uint64_t_u_u>
    e2ad:	89 c2                	mov    %eax,%edx
    e2af:	48 8b 85 80 e9 ff ff 	mov    -0x1680(%rbp),%rax
    e2b6:	88 10                	mov    %dl,(%rax)
    e2b8:	48 8b 85 80 e9 ff ff 	mov    -0x1680(%rbp),%rax
    e2bf:	0f b6 00             	movzbl (%rax),%eax
    e2c2:	44 0f be e0          	movsbl %al,%r12d
    e2c6:	48 8b 05 13 f0 00 00 	mov    0xf013(%rip),%rax        # 1d2e0 <g_518+0x20>
    e2cd:	c1 e0 04             	shl    $0x4,%eax
    e2d0:	c1 f8 04             	sar    $0x4,%eax
    e2d3:	0f b7 d0             	movzwl %ax,%edx
    e2d6:	48 8b 05 83 ef 00 00 	mov    0xef83(%rip),%rax        # 1d260 <g_290>
    e2dd:	0f b7 c0             	movzwl %ax,%eax
    e2e0:	89 d6                	mov    %edx,%esi
    e2e2:	89 c7                	mov    %eax,%edi
    e2e4:	e8 a5 ca ff ff       	callq  ad8e <safe_div_func_uint16_t_u_u>
    e2e9:	0f b7 d0             	movzwl %ax,%edx
    e2ec:	48 8b 85 70 e7 ff ff 	mov    -0x1890(%rbp),%rax
    e2f3:	48 39 c2             	cmp    %rax,%rdx
    e2f6:	0f 93 c0             	setae  %al
    e2f9:	0f b6 c0             	movzbl %al,%eax
    e2fc:	44 89 e6             	mov    %r12d,%esi
    e2ff:	89 c7                	mov    %eax,%edi
    e301:	e8 2f c0 ff ff       	callq  a335 <safe_rshift_func_int8_t_s_s>
    e306:	0f be d0             	movsbl %al,%edx
    e309:	48 8b 85 e0 e8 ff ff 	mov    -0x1720(%rbp),%rax
    e310:	8b 00                	mov    (%rax),%eax
    e312:	31 d0                	xor    %edx,%eax
    e314:	48 98                	cltq   
    e316:	48 89 de             	mov    %rbx,%rsi
    e319:	48 89 c7             	mov    %rax,%rdi
    e31c:	e8 0d cd ff ff       	callq  b02e <safe_add_func_uint64_t_u_u>
    e321:	8b 95 24 e7 ff ff    	mov    -0x18dc(%rbp),%edx
    e327:	48 63 d2             	movslq %edx,%rdx
    e32a:	48 39 d0             	cmp    %rdx,%rax
    e32d:	0f 95 c0             	setne  %al
    e330:	0f b6 d0             	movzbl %al,%edx
    e333:	48 8b 85 a0 e6 ff ff 	mov    -0x1960(%rbp),%rax
    e33a:	8b 00                	mov    (%rax),%eax
    e33c:	39 c2                	cmp    %eax,%edx
    e33e:	0f 95 c0             	setne  %al
    e341:	0f b6 c0             	movzbl %al,%eax
    e344:	be 05 00 00 00       	mov    $0x5,%esi
    e349:	89 c7                	mov    %eax,%edi
    e34b:	e8 b5 c8 ff ff       	callq  ac05 <safe_lshift_func_uint8_t_u_s>
    e350:	0f b6 d0             	movzbl %al,%edx
    e353:	8b 05 9f f0 00 00    	mov    0xf09f(%rip),%eax        # 1d3f8 <g_1522>
    e359:	31 c2                	xor    %eax,%edx
    e35b:	48 8b 85 a0 e6 ff ff 	mov    -0x1960(%rbp),%rax
    e362:	8b 00                	mov    (%rax),%eax
    e364:	39 c2                	cmp    %eax,%edx
    e366:	0f 84 c7 00 00 00    	je     e433 <func_27+0x1c01>
    e36c:	48 c7 85 b0 e9 ff ff 	movq   $0x0,-0x1650(%rbp)
    e373:	00 00 00 00 
    e377:	48 8d 85 dc e6 ff ff 	lea    -0x1924(%rbp),%rax
    e37e:	48 89 85 b8 e9 ff ff 	mov    %rax,-0x1648(%rbp)
    e385:	48 8d 05 90 ed 00 00 	lea    0xed90(%rip),%rax        # 1d11c <g_197>
    e38c:	48 89 85 c0 e9 ff ff 	mov    %rax,-0x1640(%rbp)
    e393:	48 8d 85 e8 e6 ff ff 	lea    -0x1918(%rbp),%rax
    e39a:	48 89 85 20 fa ff ff 	mov    %rax,-0x5e0(%rbp)
    e3a1:	48 8d 85 e8 e6 ff ff 	lea    -0x1918(%rbp),%rax
    e3a8:	48 89 85 28 fa ff ff 	mov    %rax,-0x5d8(%rbp)
    e3af:	48 8d 85 50 ea ff ff 	lea    -0x15b0(%rbp),%rax
    e3b6:	48 83 c0 10          	add    $0x10,%rax
    e3ba:	48 89 85 30 fa ff ff 	mov    %rax,-0x5d0(%rbp)
    e3c1:	48 8d 85 e8 e6 ff ff 	lea    -0x1918(%rbp),%rax
    e3c8:	48 89 85 38 fa ff ff 	mov    %rax,-0x5c8(%rbp)
    e3cf:	48 8d 85 e8 e6 ff ff 	lea    -0x1918(%rbp),%rax
    e3d6:	48 89 85 40 fa ff ff 	mov    %rax,-0x5c0(%rbp)
    e3dd:	48 8d 85 50 ea ff ff 	lea    -0x15b0(%rbp),%rax
    e3e4:	48 83 c0 10          	add    $0x10,%rax
    e3e8:	48 89 85 48 fa ff ff 	mov    %rax,-0x5b8(%rbp)
    e3ef:	48 8d 85 e8 e6 ff ff 	lea    -0x1918(%rbp),%rax
    e3f6:	48 89 85 50 fa ff ff 	mov    %rax,-0x5b0(%rbp)
    e3fd:	48 8d 85 e8 e6 ff ff 	lea    -0x1918(%rbp),%rax
    e404:	48 89 85 58 fa ff ff 	mov    %rax,-0x5a8(%rbp)
    e40b:	48 8d 85 50 ea ff ff 	lea    -0x15b0(%rbp),%rax
    e412:	48 83 c0 10          	add    $0x10,%rax
    e416:	48 89 85 60 fa ff ff 	mov    %rax,-0x5a0(%rbp)
    e41d:	83 85 28 e7 ff ff 01 	addl   $0x1,-0x18d8(%rbp)
    e424:	48 8b 05 25 12 01 00 	mov    0x11225(%rip),%rax        # 1f650 <g_211>
    e42b:	48 8b 00             	mov    (%rax),%rax
    e42e:	e9 ba 11 00 00       	jmpq   f5ed <func_27+0x2dbb>
    e433:	48 8d 85 d0 e7 ff ff 	lea    -0x1830(%rbp),%rax
    e43a:	48 89 85 98 e9 ff ff 	mov    %rax,-0x1668(%rbp)
    e441:	48 c7 85 a0 e9 ff ff 	movq   $0x0,-0x1660(%rbp)
    e448:	00 00 00 00 
    e44c:	48 8d 85 50 ea ff ff 	lea    -0x15b0(%rbp),%rax
    e453:	48 83 c0 10          	add    $0x10,%rax
    e457:	48 89 85 20 fa ff ff 	mov    %rax,-0x5e0(%rbp)
    e45e:	48 8d 85 50 ea ff ff 	lea    -0x15b0(%rbp),%rax
    e465:	48 83 c0 10          	add    $0x10,%rax
    e469:	48 89 85 28 fa ff ff 	mov    %rax,-0x5d8(%rbp)
    e470:	48 8d 85 e0 e6 ff ff 	lea    -0x1920(%rbp),%rax
    e477:	48 89 85 30 fa ff ff 	mov    %rax,-0x5d0(%rbp)
    e47e:	48 8d 85 50 ea ff ff 	lea    -0x15b0(%rbp),%rax
    e485:	48 83 c0 10          	add    $0x10,%rax
    e489:	48 89 85 38 fa ff ff 	mov    %rax,-0x5c8(%rbp)
    e490:	48 8d 85 ec e6 ff ff 	lea    -0x1914(%rbp),%rax
    e497:	48 89 85 40 fa ff ff 	mov    %rax,-0x5c0(%rbp)
    e49e:	48 8d 85 50 ea ff ff 	lea    -0x15b0(%rbp),%rax
    e4a5:	48 83 c0 10          	add    $0x10,%rax
    e4a9:	48 89 85 48 fa ff ff 	mov    %rax,-0x5b8(%rbp)
    e4b0:	48 8d 85 ec e6 ff ff 	lea    -0x1914(%rbp),%rax
    e4b7:	48 89 85 50 fa ff ff 	mov    %rax,-0x5b0(%rbp)
    e4be:	48 8d 85 ec e6 ff ff 	lea    -0x1914(%rbp),%rax
    e4c5:	48 89 85 58 fa ff ff 	mov    %rax,-0x5a8(%rbp)
    e4cc:	48 8d 85 50 ea ff ff 	lea    -0x15b0(%rbp),%rax
    e4d3:	48 83 c0 10          	add    $0x10,%rax
    e4d7:	48 89 85 60 fa ff ff 	mov    %rax,-0x5a0(%rbp)
    e4de:	66 c7 85 da e6 ff ff 	movw   $0xffff,-0x1926(%rbp)
    e4e5:	ff ff 
    e4e7:	48 8d 05 7e ee 00 00 	lea    0xee7e(%rip),%rax        # 1d36c <g_850>
    e4ee:	48 89 85 a8 e9 ff ff 	mov    %rax,-0x1658(%rbp)
    e4f5:	66 83 85 da e6 ff ff 	addw   $0x1,-0x1926(%rbp)
    e4fc:	01 
    e4fd:	0f b6 05 ec eb 00 00 	movzbl 0xebec(%rip),%eax        # 1d0f0 <g_150>
    e504:	0f be d8             	movsbl %al,%ebx
    e507:	44 8b a5 f0 ec ff ff 	mov    -0x1310(%rbp),%r12d
    e50e:	48 8b 05 b3 eb 00 00 	mov    0xebb3(%rip),%rax        # 1d0c8 <g_125+0x28>
    e515:	41 89 c6             	mov    %eax,%r14d
    e518:	c7 85 60 ea ff ff 01 	movl   $0x1,-0x15a0(%rbp)
    e51f:	00 00 00 
    e522:	44 8b ad bc e6 ff ff 	mov    -0x1944(%rbp),%r13d
    e529:	48 8b 85 e0 e8 ff ff 	mov    -0x1720(%rbp),%rax
    e530:	8b 00                	mov    (%rax),%eax
    e532:	98                   	cwtl   
    e533:	89 c6                	mov    %eax,%esi
    e535:	bf 0a 23 00 00       	mov    $0x230a,%edi
    e53a:	e8 b6 be ff ff       	callq  a3f5 <safe_mul_func_int16_t_s_s>
    e53f:	0f bf d0             	movswl %ax,%edx
    e542:	8b 85 f0 ec ff ff    	mov    -0x1310(%rbp),%eax
    e548:	83 f8 07             	cmp    $0x7,%eax
    e54b:	0f 95 c0             	setne  %al
    e54e:	0f b6 c0             	movzbl %al,%eax
    e551:	23 85 bc e6 ff ff    	and    -0x1944(%rbp),%eax
    e557:	89 c1                	mov    %eax,%ecx
    e559:	48 8b 85 a8 e9 ff ff 	mov    -0x1658(%rbp),%rax
    e560:	89 08                	mov    %ecx,(%rax)
    e562:	48 8b 85 a8 e9 ff ff 	mov    -0x1658(%rbp),%rax
    e569:	8b 00                	mov    (%rax),%eax
    e56b:	39 c2                	cmp    %eax,%edx
    e56d:	0f 93 c0             	setae  %al
    e570:	0f b6 c0             	movzbl %al,%eax
    e573:	44 89 ee             	mov    %r13d,%esi
    e576:	89 c7                	mov    %eax,%edi
    e578:	e8 3b c9 ff ff       	callq  aeb8 <safe_add_func_uint32_t_u_u>
    e57d:	48 83 bd d8 e7 ff ff 	cmpq   $0xffffffffffffffff,-0x1828(%rbp)
    e584:	ff 
    e585:	74 07                	je     e58e <func_27+0x1d5c>
    e587:	b8 01 00 00 00       	mov    $0x1,%eax
    e58c:	eb 05                	jmp    e593 <func_27+0x1d61>
    e58e:	b8 00 00 00 00       	mov    $0x0,%eax
    e593:	0f b7 d0             	movzwl %ax,%edx
    e596:	8b 05 4c ee 00 00    	mov    0xee4c(%rip),%eax        # 1d3e8 <g_1191>
    e59c:	c1 e0 04             	shl    $0x4,%eax
    e59f:	c1 f8 04             	sar    $0x4,%eax
    e5a2:	0f b7 c0             	movzwl %ax,%eax
    e5a5:	89 d6                	mov    %edx,%esi
    e5a7:	89 c7                	mov    %eax,%edi
    e5a9:	e8 ae c7 ff ff       	callq  ad5c <safe_mod_func_uint16_t_u_u>
    e5ae:	89 c2                	mov    %eax,%edx
    e5b0:	8b 85 f0 ec ff ff    	mov    -0x1310(%rbp),%eax
    e5b6:	31 d0                	xor    %edx,%eax
    e5b8:	0f b7 c0             	movzwl %ax,%eax
    e5bb:	44 89 f6             	mov    %r14d,%esi
    e5be:	89 c7                	mov    %eax,%edi
    e5c0:	e8 41 c8 ff ff       	callq  ae06 <safe_lshift_func_uint16_t_u_u>
    e5c5:	0f b7 d0             	movzwl %ax,%edx
    e5c8:	8b 85 f0 e6 ff ff    	mov    -0x1910(%rbp),%eax
    e5ce:	21 d0                	and    %edx,%eax
    e5d0:	89 85 f0 e6 ff ff    	mov    %eax,-0x1910(%rbp)
    e5d6:	8b 85 f0 e6 ff ff    	mov    -0x1910(%rbp),%eax
    e5dc:	48 63 d0             	movslq %eax,%rdx
    e5df:	8b 85 f4 ec ff ff    	mov    -0x130c(%rbp),%eax
    e5e5:	48 98                	cltq   
    e5e7:	48 89 d6             	mov    %rdx,%rsi
    e5ea:	48 89 c7             	mov    %rax,%rdi
    e5ed:	e8 c2 c3 ff ff       	callq  a9b4 <safe_mod_func_int64_t_s_s>
    e5f2:	98                   	cwtl   
    e5f3:	44 89 e6             	mov    %r12d,%esi
    e5f6:	89 c7                	mov    %eax,%edi
    e5f8:	e8 2d bf ff ff       	callq  a52a <safe_rshift_func_int16_t_s_s>
    e5fd:	0f b6 c0             	movzbl %al,%eax
    e600:	89 de                	mov    %ebx,%esi
    e602:	89 c7                	mov    %eax,%edi
    e604:	e8 b5 c6 ff ff       	callq  acbe <safe_rshift_func_uint8_t_u_u>
    e609:	be ff ff ff ff       	mov    $0xffffffff,%esi
    e60e:	bf 01 00 00 00       	mov    $0x1,%edi
    e613:	e8 b8 c8 ff ff       	callq  aed0 <safe_sub_func_uint32_t_u_u>
    e618:	48 8d 85 b0 ea ff ff 	lea    -0x1550(%rbp),%rax
    e61f:	48 83 c0 20          	add    $0x20,%rax
    e623:	48 39 85 88 e9 ff ff 	cmp    %rax,-0x1678(%rbp)
    e62a:	48 c7 c2 ff ff ff ff 	mov    $0xffffffffffffffff,%rdx
    e631:	48 8b 85 98 e9 ff ff 	mov    -0x1668(%rbp),%rax
    e638:	8b 00                	mov    (%rax),%eax
    e63a:	31 c2                	xor    %eax,%edx
    e63c:	48 8b 85 98 e9 ff ff 	mov    -0x1668(%rbp),%rax
    e643:	89 10                	mov    %edx,(%rax)
    e645:	48 8b 85 98 e9 ff ff 	mov    -0x1668(%rbp),%rax
    e64c:	8b 10                	mov    (%rax),%edx
    e64e:	8b 05 a8 ec 00 00    	mov    0xeca8(%rip),%eax        # 1d2fc <g_650>
    e654:	21 d0                	and    %edx,%eax
    e656:	89 05 a0 ec 00 00    	mov    %eax,0xeca0(%rip)        # 1d2fc <g_650>
    e65c:	8b 85 e4 e9 ff ff    	mov    -0x161c(%rbp),%eax
    e662:	83 c0 01             	add    $0x1,%eax
    e665:	89 85 e4 e9 ff ff    	mov    %eax,-0x161c(%rbp)
    e66b:	48 8b 85 90 e9 ff ff 	mov    -0x1670(%rbp),%rax
    e672:	c7 00 03 00 00 00    	movl   $0x3,(%rax)
    e678:	48 8b 85 90 e9 ff ff 	mov    -0x1670(%rbp),%rax
    e67f:	8b 10                	mov    (%rax),%edx
    e681:	48 8b 85 90 e9 ff ff 	mov    -0x1670(%rbp),%rax
    e688:	89 10                	mov    %edx,(%rax)
    e68a:	48 8b 85 d8 e7 ff ff 	mov    -0x1828(%rbp),%rax
    e691:	be 01 00 00 00       	mov    $0x1,%esi
    e696:	48 89 c7             	mov    %rax,%rdi
    e699:	e8 0a c2 ff ff       	callq  a8a8 <safe_sub_func_int64_t_s_s>
    e69e:	48 89 85 d8 e7 ff ff 	mov    %rax,-0x1828(%rbp)
    e6a5:	48 83 bd d8 e7 ff ff 	cmpq   $0xffffffffffffffe6,-0x1828(%rbp)
    e6ac:	e6 
    e6ad:	0f 8d e5 fa ff ff    	jge    e198 <func_27+0x1966>
    e6b3:	66 c7 85 d0 e6 ff ff 	movw   $0x0,-0x1930(%rbp)
    e6ba:	00 00 
    e6bc:	e9 e8 02 00 00       	jmpq   e9a9 <func_27+0x2177>
    e6c1:	48 8d 85 88 e7 ff ff 	lea    -0x1878(%rbp),%rax
    e6c8:	48 89 85 50 e9 ff ff 	mov    %rax,-0x16b0(%rbp)
    e6cf:	48 8d 85 dc e6 ff ff 	lea    -0x1924(%rbp),%rax
    e6d6:	48 89 85 58 e9 ff ff 	mov    %rax,-0x16a8(%rbp)
    e6dd:	c6 85 cd e6 ff ff 00 	movb   $0x0,-0x1933(%rbp)
    e6e4:	48 8d 85 f0 e6 ff ff 	lea    -0x1910(%rbp),%rax
    e6eb:	48 89 85 60 e9 ff ff 	mov    %rax,-0x16a0(%rbp)
    e6f2:	48 8d 85 ce e6 ff ff 	lea    -0x1932(%rbp),%rax
    e6f9:	48 89 85 68 e9 ff ff 	mov    %rax,-0x1698(%rbp)
    e700:	48 c7 85 c8 e7 ff ff 	movq   $0x0,-0x1838(%rbp)
    e707:	00 00 00 00 
    e70b:	48 8d 85 c8 e7 ff ff 	lea    -0x1838(%rbp),%rax
    e712:	48 89 85 d0 e7 ff ff 	mov    %rax,-0x1830(%rbp)
    e719:	48 8d 85 d0 e7 ff ff 	lea    -0x1830(%rbp),%rax
    e720:	48 89 85 20 fa ff ff 	mov    %rax,-0x5e0(%rbp)
    e727:	48 8d 85 d0 e7 ff ff 	lea    -0x1830(%rbp),%rax
    e72e:	48 89 85 28 fa ff ff 	mov    %rax,-0x5d8(%rbp)
    e735:	48 8d 85 d0 e7 ff ff 	lea    -0x1830(%rbp),%rax
    e73c:	48 89 85 30 fa ff ff 	mov    %rax,-0x5d0(%rbp)
    e743:	48 8d 85 d0 e7 ff ff 	lea    -0x1830(%rbp),%rax
    e74a:	48 89 85 38 fa ff ff 	mov    %rax,-0x5c8(%rbp)
    e751:	48 8d 85 d0 e7 ff ff 	lea    -0x1830(%rbp),%rax
    e758:	48 89 85 40 fa ff ff 	mov    %rax,-0x5c0(%rbp)
    e75f:	48 8d 85 d0 e7 ff ff 	lea    -0x1830(%rbp),%rax
    e766:	48 89 85 48 fa ff ff 	mov    %rax,-0x5b8(%rbp)
    e76d:	48 8d 85 d0 e7 ff ff 	lea    -0x1830(%rbp),%rax
    e774:	48 89 85 50 fa ff ff 	mov    %rax,-0x5b0(%rbp)
    e77b:	48 8d 85 d0 e7 ff ff 	lea    -0x1830(%rbp),%rax
    e782:	48 89 85 58 fa ff ff 	mov    %rax,-0x5a8(%rbp)
    e789:	48 8d 85 d0 e7 ff ff 	lea    -0x1830(%rbp),%rax
    e790:	48 89 85 60 fa ff ff 	mov    %rax,-0x5a0(%rbp)
    e797:	48 8d 85 d0 e7 ff ff 	lea    -0x1830(%rbp),%rax
    e79e:	48 89 85 68 fa ff ff 	mov    %rax,-0x598(%rbp)
    e7a5:	48 8d 85 d0 e7 ff ff 	lea    -0x1830(%rbp),%rax
    e7ac:	48 89 85 70 fa ff ff 	mov    %rax,-0x590(%rbp)
    e7b3:	48 8d 85 d0 e7 ff ff 	lea    -0x1830(%rbp),%rax
    e7ba:	48 89 85 78 fa ff ff 	mov    %rax,-0x588(%rbp)
    e7c1:	48 8d 85 d0 e7 ff ff 	lea    -0x1830(%rbp),%rax
    e7c8:	48 89 85 80 fa ff ff 	mov    %rax,-0x580(%rbp)
    e7cf:	48 8d 85 d0 e7 ff ff 	lea    -0x1830(%rbp),%rax
    e7d6:	48 89 85 88 fa ff ff 	mov    %rax,-0x578(%rbp)
    e7dd:	48 8d 85 d0 e7 ff ff 	lea    -0x1830(%rbp),%rax
    e7e4:	48 89 85 90 fa ff ff 	mov    %rax,-0x570(%rbp)
    e7eb:	48 8d 85 d0 e7 ff ff 	lea    -0x1830(%rbp),%rax
    e7f2:	48 89 85 98 fa ff ff 	mov    %rax,-0x568(%rbp)
    e7f9:	48 8d 85 d0 e7 ff ff 	lea    -0x1830(%rbp),%rax
    e800:	48 89 85 a0 fa ff ff 	mov    %rax,-0x560(%rbp)
    e807:	48 8d 85 d0 e7 ff ff 	lea    -0x1830(%rbp),%rax
    e80e:	48 89 85 a8 fa ff ff 	mov    %rax,-0x558(%rbp)
    e815:	48 8d 85 d0 e7 ff ff 	lea    -0x1830(%rbp),%rax
    e81c:	48 89 85 b0 fa ff ff 	mov    %rax,-0x550(%rbp)
    e823:	48 8d 85 d0 e7 ff ff 	lea    -0x1830(%rbp),%rax
    e82a:	48 89 85 b8 fa ff ff 	mov    %rax,-0x548(%rbp)
    e831:	48 8d 85 d0 e7 ff ff 	lea    -0x1830(%rbp),%rax
    e838:	48 89 85 c0 fa ff ff 	mov    %rax,-0x540(%rbp)
    e83f:	48 8d 85 98 e7 ff ff 	lea    -0x1868(%rbp),%rax
    e846:	48 89 85 70 e9 ff ff 	mov    %rax,-0x1690(%rbp)
    e84d:	48 8b 85 70 e7 ff ff 	mov    -0x1890(%rbp),%rax
    e854:	48 85 c0             	test   %rax,%rax
    e857:	0f 95 c0             	setne  %al
    e85a:	0f b6 d8             	movzbl %al,%ebx
    e85d:	48 8b 95 88 e7 ff ff 	mov    -0x1878(%rbp),%rdx
    e864:	48 8b 85 50 e9 ff ff 	mov    -0x16b0(%rbp),%rax
    e86b:	48 89 10             	mov    %rdx,(%rax)
    e86e:	48 8b 85 50 e9 ff ff 	mov    -0x16b0(%rbp),%rax
    e875:	48 8b 00             	mov    (%rax),%rax
    e878:	48 8d 15 69 12 01 00 	lea    0x11269(%rip),%rdx        # 1fae8 <g_547+0x88>
    e87f:	48 39 d0             	cmp    %rdx,%rax
    e882:	0f 95 c0             	setne  %al
    e885:	0f b6 c0             	movzbl %al,%eax
    e888:	89 c6                	mov    %eax,%esi
    e88a:	bf 01 00 00 00       	mov    $0x1,%edi
    e88f:	e8 96 bc ff ff       	callq  a52a <safe_rshift_func_int16_t_s_s>
    e894:	0f bf d0             	movswl %ax,%edx
    e897:	48 8b 85 58 e9 ff ff 	mov    -0x16a8(%rbp),%rax
    e89e:	89 10                	mov    %edx,(%rax)
    e8a0:	48 8b 85 58 e9 ff ff 	mov    -0x16a8(%rbp),%rax
    e8a7:	8b 00                	mov    (%rax),%eax
    e8a9:	39 c3                	cmp    %eax,%ebx
    e8ab:	0f 95 c0             	setne  %al
    e8ae:	0f b6 d8             	movzbl %al,%ebx
    e8b1:	48 83 bd 28 e8 ff ff 	cmpq   $0x0,-0x17d8(%rbp)
    e8b8:	00 
    e8b9:	0f 95 c0             	setne  %al
    e8bc:	0f b6 d0             	movzbl %al,%edx
    e8bf:	8b 85 24 e7 ff ff    	mov    -0x18dc(%rbp),%eax
    e8c5:	0f b7 c0             	movzwl %ax,%eax
    e8c8:	89 d6                	mov    %edx,%esi
    e8ca:	89 c7                	mov    %eax,%edi
    e8cc:	e8 6c c4 ff ff       	callq  ad3d <safe_mul_func_uint16_t_u_u>
    e8d1:	0f b7 d0             	movzwl %ax,%edx
    e8d4:	0f be 85 cd e6 ff ff 	movsbl -0x1933(%rbp),%eax
    e8db:	39 c2                	cmp    %eax,%edx
    e8dd:	0f 9d c0             	setge  %al
    e8e0:	0f b6 c0             	movzbl %al,%eax
    e8e3:	48 89 05 de e7 00 00 	mov    %rax,0xe7de(%rip)        # 1d0c8 <g_125+0x28>
    e8ea:	48 8b 05 d7 e7 00 00 	mov    0xe7d7(%rip),%rax        # 1d0c8 <g_125+0x28>
    e8f1:	48 39 c3             	cmp    %rax,%rbx
    e8f4:	0f 95 c0             	setne  %al
    e8f7:	0f b6 d0             	movzbl %al,%edx
    e8fa:	48 8b 85 60 e9 ff ff 	mov    -0x16a0(%rbp),%rax
    e901:	89 10                	mov    %edx,(%rax)
    e903:	8b 85 e0 e6 ff ff    	mov    -0x1920(%rbp),%eax
    e909:	85 c0                	test   %eax,%eax
    e90b:	0f 85 aa 00 00 00    	jne    e9bb <func_27+0x2189>
    e911:	48 8b 85 68 e9 ff ff 	mov    -0x1698(%rbp),%rax
    e918:	0f b7 00             	movzwl (%rax),%eax
    e91b:	8b 95 34 ea ff ff    	mov    -0x15cc(%rbp),%edx
    e921:	09 c2                	or     %eax,%edx
    e923:	48 8b 85 68 e9 ff ff 	mov    -0x1698(%rbp),%rax
    e92a:	66 89 10             	mov    %dx,(%rax)
    e92d:	48 8b 85 68 e9 ff ff 	mov    -0x1698(%rbp),%rax
    e934:	0f b7 00             	movzwl (%rax),%eax
    e937:	66 83 f8 07          	cmp    $0x7,%ax
    e93b:	0f 95 c0             	setne  %al
    e93e:	0f b6 c0             	movzbl %al,%eax
    e941:	89 c2                	mov    %eax,%edx
    e943:	8b 85 e4 e9 ff ff    	mov    -0x161c(%rbp),%eax
    e949:	39 c2                	cmp    %eax,%edx
    e94b:	0f 96 c0             	setbe  %al
    e94e:	0f b6 c8             	movzbl %al,%ecx
    e951:	48 8b 85 88 e7 ff ff 	mov    -0x1878(%rbp),%rax
    e958:	48 89 05 c1 17 01 00 	mov    %rax,0x117c1(%rip)        # 20120 <g_1646>
    e95f:	48 8b 35 ba 17 01 00 	mov    0x117ba(%rip),%rsi        # 20120 <g_1646>
    e966:	48 8b 95 98 e7 ff ff 	mov    -0x1868(%rbp),%rdx
    e96d:	48 8b 85 70 e9 ff ff 	mov    -0x1690(%rbp),%rax
    e974:	48 89 10             	mov    %rdx,(%rax)
    e977:	48 8b 85 70 e9 ff ff 	mov    -0x1690(%rbp),%rax
    e97e:	48 8b 00             	mov    (%rax),%rax
    e981:	48 39 c6             	cmp    %rax,%rsi
    e984:	0f 95 c0             	setne  %al
    e987:	0f b6 c0             	movzbl %al,%eax
    e98a:	39 c1                	cmp    %eax,%ecx
    e98c:	0f 9f c0             	setg   %al
    e98f:	0f b6 c0             	movzbl %al,%eax
    e992:	89 85 dc e6 ff ff    	mov    %eax,-0x1924(%rbp)
    e998:	0f b7 85 d0 e6 ff ff 	movzwl -0x1930(%rbp),%eax
    e99f:	83 c0 01             	add    $0x1,%eax
    e9a2:	66 89 85 d0 e6 ff ff 	mov    %ax,-0x1930(%rbp)
    e9a9:	0f b7 85 d0 e6 ff ff 	movzwl -0x1930(%rbp),%eax
    e9b0:	66 85 c0             	test   %ax,%ax
    e9b3:	0f 84 08 fd ff ff    	je     e6c1 <func_27+0x1e8f>
    e9b9:	eb 01                	jmp    e9bc <func_27+0x218a>
    e9bb:	90                   	nop
    e9bc:	48 83 ad e0 e7 ff ff 	subq   $0x1,-0x1820(%rbp)
    e9c3:	01 
    e9c4:	8b 05 be e6 00 00    	mov    0xe6be(%rip),%eax        # 1d088 <g_118>
    e9ca:	83 e8 01             	sub    $0x1,%eax
    e9cd:	89 05 b5 e6 00 00    	mov    %eax,0xe6b5(%rip)        # 1d088 <g_118>
    e9d3:	8b 05 af e6 00 00    	mov    0xe6af(%rip),%eax        # 1d088 <g_118>
    e9d9:	83 f8 f7             	cmp    $0xfffffff7,%eax
    e9dc:	0f 8c 16 ec ff ff    	jl     d5f8 <func_27+0xdc6>
    e9e2:	0f b6 05 53 e6 00 00 	movzbl 0xe653(%rip),%eax        # 1d03c <g_32>
    e9e9:	0f be c0             	movsbl %al,%eax
    e9ec:	be 09 00 00 00       	mov    $0x9,%esi
    e9f1:	89 c7                	mov    %eax,%edi
    e9f3:	e8 be bb ff ff       	callq  a5b6 <safe_add_func_int32_t_s_s>
    e9f8:	88 05 3e e6 00 00    	mov    %al,0xe63e(%rip)        # 1d03c <g_32>
    e9fe:	0f b6 05 37 e6 00 00 	movzbl 0xe637(%rip),%eax        # 1d03c <g_32>
    ea05:	3c 1d                	cmp    $0x1d,%al
    ea07:	0f 85 a4 e9 ff ff    	jne    d3b1 <func_27+0xb7f>
    ea0d:	c7 05 5d e9 00 00 00 	movl   $0x0,0xe95d(%rip)        # 1d374 <g_976>
    ea14:	00 00 00 
    ea17:	e9 15 01 00 00       	jmpq   eb31 <func_27+0x22ff>
    ea1c:	c7 85 40 e7 ff ff ff 	movl   $0xffffffff,-0x18c0(%rbp)
    ea23:	ff ff ff 
    ea26:	48 8d 85 30 ec ff ff 	lea    -0x13d0(%rbp),%rax
    ea2d:	48 05 b8 00 00 00    	add    $0xb8,%rax
    ea33:	48 89 85 c0 e7 ff ff 	mov    %rax,-0x1840(%rbp)
    ea3a:	48 8d 85 c0 e7 ff ff 	lea    -0x1840(%rbp),%rax
    ea41:	48 89 85 c8 e7 ff ff 	mov    %rax,-0x1838(%rbp)
    ea48:	48 8d 85 c8 e7 ff ff 	lea    -0x1838(%rbp),%rax
    ea4f:	48 89 85 d0 e7 ff ff 	mov    %rax,-0x1830(%rbp)
    ea56:	48 8d 85 d0 e7 ff ff 	lea    -0x1830(%rbp),%rax
    ea5d:	48 89 85 c8 e8 ff ff 	mov    %rax,-0x1738(%rbp)
    ea64:	48 8d 85 20 fa ff ff 	lea    -0x5e0(%rbp),%rax
    ea6b:	48 8d 15 0e 9a 00 00 	lea    0x9a0e(%rip),%rdx        # 18480 <g_2140+0x414>
    ea72:	b9 78 00 00 00       	mov    $0x78,%ecx
    ea77:	48 89 c7             	mov    %rax,%rdi
    ea7a:	48 89 d6             	mov    %rdx,%rsi
    ea7d:	f3 48 a5             	rep movsq %ds:(%rsi),%es:(%rdi)
    ea80:	48 8d 85 60 e7 ff ff 	lea    -0x18a0(%rbp),%rax
    ea87:	48 89 85 d0 e8 ff ff 	mov    %rax,-0x1730(%rbp)
    ea8e:	c7 85 44 e7 ff ff 07 	movl   $0x7,-0x18bc(%rbp)
    ea95:	00 00 00 
    ea98:	48 8d 05 a1 e5 00 00 	lea    0xe5a1(%rip),%rax        # 1d040 <g_42>
    ea9f:	48 89 85 d8 e8 ff ff 	mov    %rax,-0x1728(%rbp)
    eaa6:	48 8d 05 5b e6 00 00 	lea    0xe65b(%rip),%rax        # 1d108 <g_165>
    eaad:	48 89 85 b0 ed ff ff 	mov    %rax,-0x1250(%rbp)
    eab4:	48 8d 05 6d e8 00 00 	lea    0xe86d(%rip),%rax        # 1d328 <g_651+0x28>
    eabb:	48 89 85 b8 ed ff ff 	mov    %rax,-0x1248(%rbp)
    eac2:	48 8d 05 3f e6 00 00 	lea    0xe63f(%rip),%rax        # 1d108 <g_165>
    eac9:	48 89 85 c0 ed ff ff 	mov    %rax,-0x1240(%rbp)
    ead0:	48 8d 05 51 e8 00 00 	lea    0xe851(%rip),%rax        # 1d328 <g_651+0x28>
    ead7:	48 89 85 c8 ed ff ff 	mov    %rax,-0x1238(%rbp)
    eade:	48 8d 05 23 e6 00 00 	lea    0xe623(%rip),%rax        # 1d108 <g_165>
    eae5:	48 89 85 d0 ed ff ff 	mov    %rax,-0x1230(%rbp)
    eaec:	48 8d 05 35 e8 00 00 	lea    0xe835(%rip),%rax        # 1d328 <g_651+0x28>
    eaf3:	48 89 85 d8 ed ff ff 	mov    %rax,-0x1228(%rbp)
    eafa:	48 8d 05 07 e6 00 00 	lea    0xe607(%rip),%rax        # 1d108 <g_165>
    eb01:	48 89 85 e0 ed ff ff 	mov    %rax,-0x1220(%rbp)
    eb08:	48 8d 05 19 e8 00 00 	lea    0xe819(%rip),%rax        # 1d328 <g_651+0x28>
    eb0f:	48 89 85 e8 ed ff ff 	mov    %rax,-0x1218(%rbp)
    eb16:	8b 05 58 e8 00 00    	mov    0xe858(%rip),%eax        # 1d374 <g_976>
    eb1c:	89 c0                	mov    %eax,%eax
    eb1e:	be 09 00 00 00       	mov    $0x9,%esi
    eb23:	48 89 c7             	mov    %rax,%rdi
    eb26:	e8 03 c5 ff ff       	callq  b02e <safe_add_func_uint64_t_u_u>
    eb2b:	89 05 43 e8 00 00    	mov    %eax,0xe843(%rip)        # 1d374 <g_976>
    eb31:	8b 05 3d e8 00 00    	mov    0xe83d(%rip),%eax        # 1d374 <g_976>
    eb37:	83 f8 2f             	cmp    $0x2f,%eax
    eb3a:	0f 85 dc fe ff ff    	jne    ea1c <func_27+0x21ea>
    eb40:	48 8b 85 a8 e6 ff ff 	mov    -0x1958(%rbp),%rax
    eb47:	8b 00                	mov    (%rax),%eax
    eb49:	85 c0                	test   %eax,%eax
    eb4b:	74 2d                	je     eb7a <func_27+0x2348>
    eb4d:	48 8d 85 20 fa ff ff 	lea    -0x5e0(%rbp),%rax
    eb54:	48 8d 15 e5 9c 00 00 	lea    0x9ce5(%rip),%rdx        # 18840 <g_2140+0x7d4>
    eb5b:	b9 b4 00 00 00       	mov    $0xb4,%ecx
    eb60:	48 89 c7             	mov    %rax,%rdi
    eb63:	48 89 d6             	mov    %rdx,%rsi
    eb66:	f3 48 a5             	rep movsq %ds:(%rsi),%es:(%rdi)
    eb69:	8b 85 24 e7 ff ff    	mov    -0x18dc(%rbp),%eax
    eb6f:	89 85 2c e7 ff ff    	mov    %eax,-0x18d4(%rbp)
    eb75:	e9 4d 09 00 00       	jmpq   f4c7 <func_27+0x2c95>
    eb7a:	c7 85 30 e7 ff ff ff 	movl   $0xffffffff,-0x18d0(%rbp)
    eb81:	ff ff ff 
    eb84:	48 8d 05 e5 e7 00 00 	lea    0xe7e5(%rip),%rax        # 1d370 <g_956>
    eb8b:	48 89 85 b8 e7 ff ff 	mov    %rax,-0x1848(%rbp)
    eb92:	48 8d 85 70 f2 ff ff 	lea    -0xd90(%rbp),%rax
    eb99:	48 05 c8 01 00 00    	add    $0x1c8,%rax
    eb9f:	48 89 85 40 e8 ff ff 	mov    %rax,-0x17c0(%rbp)
    eba6:	48 8d 85 80 e7 ff ff 	lea    -0x1880(%rbp),%rax
    ebad:	48 89 85 48 e8 ff ff 	mov    %rax,-0x17b8(%rbp)
    ebb4:	48 8b 05 0d 16 01 00 	mov    0x1160d(%rip),%rax        # 201c8 <g_1850>
    ebbb:	48 8b 95 a0 e6 ff ff 	mov    -0x1960(%rbp),%rdx
    ebc2:	48 89 10             	mov    %rdx,(%rax)
    ebc5:	48 8b 05 54 22 01 00 	mov    0x12254(%rip),%rax        # 20e20 <g_221>
    ebcc:	8b 00                	mov    (%rax),%eax
    ebce:	85 c0                	test   %eax,%eax
    ebd0:	0f 85 36 09 00 00    	jne    f50c <func_27+0x2cda>
    ebd6:	48 8b 05 f3 15 01 00 	mov    0x115f3(%rip),%rax        # 201d0 <g_1852>
    ebdd:	48 8b 95 00 e8 ff ff 	mov    -0x1800(%rbp),%rdx
    ebe4:	48 89 10             	mov    %rdx,(%rax)
    ebe7:	48 c7 85 e0 e7 ff ff 	movq   $0x0,-0x1820(%rbp)
    ebee:	00 00 00 00 
    ebf2:	e9 bf 08 00 00       	jmpq   f4b6 <func_27+0x2c84>
    ebf7:	c7 85 34 e7 ff ff 89 	movl   $0x1e203b89,-0x18cc(%rbp)
    ebfe:	3b 20 1e 
    ec01:	48 8d 05 48 0a 01 00 	lea    0x10a48(%rip),%rax        # 1f650 <g_211>
    ec08:	48 89 85 50 e8 ff ff 	mov    %rax,-0x17b0(%rbp)
    ec0f:	48 8d 85 a8 e7 ff ff 	lea    -0x1858(%rbp),%rax
    ec16:	48 89 85 58 e8 ff ff 	mov    %rax,-0x17a8(%rbp)
    ec1d:	c7 05 f1 e5 00 00 01 	movl   $0x1,0xe5f1(%rip)        # 1d218 <g_275>
    ec24:	00 00 00 
    ec27:	e9 73 02 00 00       	jmpq   ee9f <func_27+0x266d>
    ec2c:	c6 85 cb e6 ff ff 01 	movb   $0x1,-0x1935(%rbp)
    ec33:	c7 05 43 e7 00 00 00 	movl   $0x0,0xe743(%rip)        # 1d380 <g_1017>
    ec3a:	00 00 00 
    ec3d:	e9 3f 02 00 00       	jmpq   ee81 <func_27+0x264f>
    ec42:	48 8d 05 d7 21 01 00 	lea    0x121d7(%rip),%rax        # 20e20 <g_221>
    ec49:	48 89 85 c0 e8 ff ff 	mov    %rax,-0x1740(%rbp)
    ec50:	c7 85 3c e7 ff ff 01 	movl   $0x1,-0x18c4(%rbp)
    ec57:	00 00 00 
    ec5a:	8b 15 b8 e5 00 00    	mov    0xe5b8(%rip),%edx        # 1d218 <g_275>
    ec60:	8b 05 b2 e5 00 00    	mov    0xe5b2(%rip),%eax        # 1d218 <g_275>
    ec66:	83 c0 01             	add    $0x1,%eax
    ec69:	48 98                	cltq   
    ec6b:	48 63 ca             	movslq %edx,%rcx
    ec6e:	48 89 c2             	mov    %rax,%rdx
    ec71:	48 c1 e2 03          	shl    $0x3,%rdx
    ec75:	48 29 c2             	sub    %rax,%rdx
    ec78:	48 89 c8             	mov    %rcx,%rax
    ec7b:	48 c1 e0 03          	shl    $0x3,%rax
    ec7f:	48 29 c8             	sub    %rcx,%rax
    ec82:	48 c1 e0 02          	shl    $0x2,%rax
    ec86:	48 01 c2             	add    %rax,%rdx
    ec89:	48 8b 85 e0 e7 ff ff 	mov    -0x1820(%rbp),%rax
    ec90:	48 01 d0             	add    %rdx,%rax
    ec93:	48 8d 14 c5 00 00 00 	lea    0x0(,%rax,8),%rdx
    ec9a:	00 
    ec9b:	48 8d 05 9e 0f 01 00 	lea    0x10f9e(%rip),%rax        # 1fc40 <g_1211>
    eca2:	48 8b 14 02          	mov    (%rdx,%rax,1),%rdx
    eca6:	48 8b 85 c0 e8 ff ff 	mov    -0x1740(%rbp),%rax
    ecad:	48 89 10             	mov    %rdx,(%rax)
    ecb0:	48 8b 85 a0 e6 ff ff 	mov    -0x1960(%rbp),%rax
    ecb7:	8b 00                	mov    (%rax),%eax
    ecb9:	85 c0                	test   %eax,%eax
    ecbb:	0f 85 a1 00 00 00    	jne    ed62 <func_27+0x2530>
    ecc1:	8b 85 30 e7 ff ff    	mov    -0x18d0(%rbp),%eax
    ecc7:	44 0f b7 e0          	movzwl %ax,%r12d
    eccb:	48 8b 05 7e 12 01 00 	mov    0x1127e(%rip),%rax        # 1ff50 <g_1498>
    ecd2:	8b 18                	mov    (%rax),%ebx
    ecd4:	8b 05 42 e4 00 00    	mov    0xe442(%rip),%eax        # 1d11c <g_197>
    ecda:	44 0f bf e8          	movswl %ax,%r13d
    ecde:	8b 85 bc e6 ff ff    	mov    -0x1944(%rbp),%eax
    ece4:	44 0f be f0          	movsbl %al,%r14d
    ece8:	be 07 00 00 00       	mov    $0x7,%esi
    eced:	bf 00 00 00 00       	mov    $0x0,%edi
    ecf2:	e8 55 bf ff ff       	callq  ac4c <safe_lshift_func_uint8_t_u_u>
    ecf7:	b8 01 00 00 00       	mov    $0x1,%eax
    ecfc:	0f be c0             	movsbl %al,%eax
    ecff:	44 89 f6             	mov    %r14d,%esi
    ed02:	89 c7                	mov    %eax,%edi
    ed04:	e8 e9 b4 ff ff       	callq  a1f2 <safe_sub_func_int8_t_s_s>
    ed09:	0f be c0             	movsbl %al,%eax
    ed0c:	44 89 ee             	mov    %r13d,%esi
    ed0f:	89 c7                	mov    %eax,%edi
    ed11:	e8 00 b7 ff ff       	callq  a416 <safe_mod_func_int16_t_s_s>
    ed16:	0f b6 c0             	movzbl %al,%eax
    ed19:	be 71 00 00 00       	mov    $0x71,%esi
    ed1e:	89 c7                	mov    %eax,%edi
    ed20:	e8 b6 be ff ff       	callq  abdb <safe_div_func_uint8_t_u_u>
    ed25:	0f b6 c0             	movzbl %al,%eax
    ed28:	89 85 5c ea ff ff    	mov    %eax,-0x15a4(%rbp)
    ed2e:	8b 85 5c ea ff ff    	mov    -0x15a4(%rbp),%eax
    ed34:	0f b6 c0             	movzbl %al,%eax
    ed37:	44 89 e2             	mov    %r12d,%edx
    ed3a:	89 de                	mov    %ebx,%esi
    ed3c:	89 c7                	mov    %eax,%edi
    ed3e:	e8 17 70 00 00       	callq  15d5a <func_86>
    ed43:	8b 85 bc e6 ff ff    	mov    -0x1944(%rbp),%eax
    ed49:	98                   	cwtl   
    ed4a:	be f4 5a 00 00       	mov    $0x5af4,%esi
    ed4f:	89 c7                	mov    %eax,%edi
    ed51:	e8 5d b6 ff ff       	callq  a3b3 <safe_add_func_int16_t_s_s>
    ed56:	66 85 c0             	test   %ax,%ax
    ed59:	75 07                	jne    ed62 <func_27+0x2530>
    ed5b:	83 bd 3c e7 ff ff 00 	cmpl   $0x0,-0x18c4(%rbp)
    ed62:	90                   	nop
    ed63:	8b 85 30 e7 ff ff    	mov    -0x18d0(%rbp),%eax
    ed69:	48 89 c6             	mov    %rax,%rsi
    ed6c:	48 bf 00 5f be 9e 9c 	movabs $0x56ea099c9ebe5f00,%rdi
    ed73:	09 ea 56 
    ed76:	e8 7c bc ff ff       	callq  a9f7 <safe_div_func_int64_t_s_s>
    ed7b:	8b 15 97 e4 00 00    	mov    0xe497(%rip),%edx        # 1d218 <g_275>
    ed81:	8b 05 91 e4 00 00    	mov    0xe491(%rip),%eax        # 1d218 <g_275>
    ed87:	8d 70 01             	lea    0x1(%rax),%esi
    ed8a:	8b 0d 88 e4 00 00    	mov    0xe488(%rip),%ecx        # 1d218 <g_275>
    ed90:	8b 05 82 e4 00 00    	mov    0xe482(%rip),%eax        # 1d218 <g_275>
    ed96:	8d 78 02             	lea    0x2(%rax),%edi
    ed99:	48 63 c6             	movslq %esi,%rax
    ed9c:	48 63 f2             	movslq %edx,%rsi
    ed9f:	48 89 c2             	mov    %rax,%rdx
    eda2:	48 c1 e2 03          	shl    $0x3,%rdx
    eda6:	48 29 c2             	sub    %rax,%rdx
    eda9:	48 89 f0             	mov    %rsi,%rax
    edac:	48 c1 e0 03          	shl    $0x3,%rax
    edb0:	48 29 f0             	sub    %rsi,%rax
    edb3:	48 c1 e0 02          	shl    $0x2,%rax
    edb7:	48 01 c2             	add    %rax,%rdx
    edba:	48 8b 85 e0 e7 ff ff 	mov    -0x1820(%rbp),%rax
    edc1:	48 01 d0             	add    %rdx,%rax
    edc4:	48 8d 14 c5 00 00 00 	lea    0x0(,%rax,8),%rdx
    edcb:	00 
    edcc:	48 8d 05 6d 0e 01 00 	lea    0x10e6d(%rip),%rax        # 1fc40 <g_1211>
    edd3:	4c 8b 04 02          	mov    (%rdx,%rax,1),%r8
    edd7:	48 63 c7             	movslq %edi,%rax
    edda:	48 63 f1             	movslq %ecx,%rsi
    eddd:	48 89 c2             	mov    %rax,%rdx
    ede0:	48 c1 e2 03          	shl    $0x3,%rdx
    ede4:	48 29 c2             	sub    %rax,%rdx
    ede7:	48 89 f0             	mov    %rsi,%rax
    edea:	48 c1 e0 03          	shl    $0x3,%rax
    edee:	48 29 f0             	sub    %rsi,%rax
    edf1:	48 c1 e0 02          	shl    $0x2,%rax
    edf5:	48 01 c2             	add    %rax,%rdx
    edf8:	48 8b 85 e0 e7 ff ff 	mov    -0x1820(%rbp),%rax
    edff:	48 01 d0             	add    %rdx,%rax
    ee02:	48 8d 14 c5 00 00 00 	lea    0x0(,%rax,8),%rdx
    ee09:	00 
    ee0a:	48 8d 05 2f 0e 01 00 	lea    0x10e2f(%rip),%rax        # 1fc40 <g_1211>
    ee11:	4c 89 04 02          	mov    %r8,(%rdx,%rax,1)
    ee15:	48 63 c7             	movslq %edi,%rax
    ee18:	48 63 c9             	movslq %ecx,%rcx
    ee1b:	48 89 c2             	mov    %rax,%rdx
    ee1e:	48 c1 e2 03          	shl    $0x3,%rdx
    ee22:	48 29 c2             	sub    %rax,%rdx
    ee25:	48 89 c8             	mov    %rcx,%rax
    ee28:	48 c1 e0 03          	shl    $0x3,%rax
    ee2c:	48 29 c8             	sub    %rcx,%rax
    ee2f:	48 c1 e0 02          	shl    $0x2,%rax
    ee33:	48 01 c2             	add    %rax,%rdx
    ee36:	48 8b 85 e0 e7 ff ff 	mov    -0x1820(%rbp),%rax
    ee3d:	48 01 d0             	add    %rdx,%rax
    ee40:	48 8d 14 c5 00 00 00 	lea    0x0(,%rax,8),%rdx
    ee47:	00 
    ee48:	48 8d 05 f1 0d 01 00 	lea    0x10df1(%rip),%rax        # 1fc40 <g_1211>
    ee4f:	48 8b 04 02          	mov    (%rdx,%rax,1),%rax
    ee53:	48 39 85 a0 e6 ff ff 	cmp    %rax,-0x1960(%rbp)
    ee5a:	0f 95 c0             	setne  %al
    ee5d:	0f b6 c0             	movzbl %al,%eax
    ee60:	39 85 3c e7 ff ff    	cmp    %eax,-0x18c4(%rbp)
    ee66:	0f 9c c0             	setl   %al
    ee69:	0f b6 c0             	movzbl %al,%eax
    ee6c:	89 85 60 ea ff ff    	mov    %eax,-0x15a0(%rbp)
    ee72:	8b 05 08 e5 00 00    	mov    0xe508(%rip),%eax        # 1d380 <g_1017>
    ee78:	83 c0 01             	add    $0x1,%eax
    ee7b:	89 05 ff e4 00 00    	mov    %eax,0xe4ff(%rip)        # 1d380 <g_1017>
    ee81:	8b 05 f9 e4 00 00    	mov    0xe4f9(%rip),%eax        # 1d380 <g_1017>
    ee87:	83 f8 06             	cmp    $0x6,%eax
    ee8a:	0f 86 b2 fd ff ff    	jbe    ec42 <func_27+0x2410>
    ee90:	8b 05 82 e3 00 00    	mov    0xe382(%rip),%eax        # 1d218 <g_275>
    ee96:	83 e8 01             	sub    $0x1,%eax
    ee99:	89 05 79 e3 00 00    	mov    %eax,0xe379(%rip)        # 1d218 <g_275>
    ee9f:	8b 05 73 e3 00 00    	mov    0xe373(%rip),%eax        # 1d218 <g_275>
    eea5:	85 c0                	test   %eax,%eax
    eea7:	0f 89 7f fd ff ff    	jns    ec2c <func_27+0x23fa>
    eead:	48 8b 05 a4 07 01 00 	mov    0x107a4(%rip),%rax        # 1f658 <g_215>
    eeb4:	8b 00                	mov    (%rax),%eax
    eeb6:	85 c0                	test   %eax,%eax
    eeb8:	0f 84 a9 03 00 00    	je     f267 <func_27+0x2a35>
    eebe:	c6 85 ca e6 ff ff 3f 	movb   $0x3f,-0x1936(%rbp)
    eec5:	48 8b 85 00 e8 ff ff 	mov    -0x1800(%rbp),%rax
    eecc:	8b 00                	mov    (%rax),%eax
    eece:	85 c0                	test   %eax,%eax
    eed0:	74 12                	je     eee4 <func_27+0x26b2>
    eed2:	48 8b 05 97 07 01 00 	mov    0x10797(%rip),%rax        # 1f670 <g_293>
    eed9:	48 8b 00             	mov    (%rax),%rax
    eedc:	48 8b 00             	mov    (%rax),%rax
    eedf:	e9 09 07 00 00       	jmpq   f5ed <func_27+0x2dbb>
    eee4:	48 8d 05 89 e4 00 00 	lea    0xe489(%rip),%rax        # 1d374 <g_976>
    eeeb:	48 89 85 88 e8 ff ff 	mov    %rax,-0x1778(%rbp)
    eef2:	48 c7 85 90 e8 ff ff 	movq   $0x0,-0x1770(%rbp)
    eef9:	00 00 00 00 
    eefd:	48 c7 85 98 e8 ff ff 	movq   $0x0,-0x1768(%rbp)
    ef04:	00 00 00 00 
    ef08:	48 8d 85 20 fa ff ff 	lea    -0x5e0(%rbp),%rax
    ef0f:	48 83 c0 10          	add    $0x10,%rax
    ef13:	48 89 85 a0 e8 ff ff 	mov    %rax,-0x1760(%rbp)
    ef1a:	c7 85 38 e7 ff ff 00 	movl   $0x0,-0x18c8(%rbp)
    ef21:	00 00 00 
    ef24:	48 8d 85 b8 e7 ff ff 	lea    -0x1848(%rbp),%rax
    ef2b:	48 89 85 a8 e8 ff ff 	mov    %rax,-0x1758(%rbp)
    ef32:	48 8d 85 70 e7 ff ff 	lea    -0x1890(%rbp),%rax
    ef39:	48 89 85 c0 e7 ff ff 	mov    %rax,-0x1840(%rbp)
    ef40:	48 8d 85 c0 e7 ff ff 	lea    -0x1840(%rbp),%rax
    ef47:	48 89 85 c8 e7 ff ff 	mov    %rax,-0x1838(%rbp)
    ef4e:	48 8d 85 c8 e7 ff ff 	lea    -0x1838(%rbp),%rax
    ef55:	48 89 85 d0 e7 ff ff 	mov    %rax,-0x1830(%rbp)
    ef5c:	48 8d 85 d0 e7 ff ff 	lea    -0x1830(%rbp),%rax
    ef63:	48 89 85 b0 e8 ff ff 	mov    %rax,-0x1750(%rbp)
    ef6a:	48 8d 05 93 e1 00 00 	lea    0xe193(%rip),%rax        # 1d104 <g_159+0x4>
    ef71:	48 89 85 b8 e8 ff ff 	mov    %rax,-0x1748(%rbp)
    ef78:	c7 85 10 e7 ff ff 00 	movl   $0x0,-0x18f0(%rbp)
    ef7f:	00 00 00 
    ef82:	eb 1e                	jmp    efa2 <func_27+0x2770>
    ef84:	8b 85 10 e7 ff ff    	mov    -0x18f0(%rbp),%eax
    ef8a:	48 98                	cltq   
    ef8c:	48 8d 15 bd 06 01 00 	lea    0x106bd(%rip),%rdx        # 1f650 <g_211>
    ef93:	48 89 94 c5 20 fa ff 	mov    %rdx,-0x5e0(%rbp,%rax,8)
    ef9a:	ff 
    ef9b:	83 85 10 e7 ff ff 01 	addl   $0x1,-0x18f0(%rbp)
    efa2:	83 bd 10 e7 ff ff 02 	cmpl   $0x2,-0x18f0(%rbp)
    efa9:	7e d9                	jle    ef84 <func_27+0x2752>
    efab:	83 bd 30 e7 ff ff 00 	cmpl   $0x0,-0x18d0(%rbp)
    efb2:	0f 85 0e 05 00 00    	jne    f4c6 <func_27+0x2c94>
    efb8:	48 8b 85 a8 e6 ff ff 	mov    -0x1958(%rbp),%rax
    efbf:	8b 00                	mov    (%rax),%eax
    efc1:	85 c0                	test   %eax,%eax
    efc3:	0f 85 e4 04 00 00    	jne    f4ad <func_27+0x2c7b>
    efc9:	8b 85 bc e6 ff ff    	mov    -0x1944(%rbp),%eax
    efcf:	0f be d8             	movsbl %al,%ebx
    efd2:	0f b6 85 c8 e6 ff ff 	movzbl -0x1938(%rbp),%eax
    efd9:	44 0f b6 e0          	movzbl %al,%r12d
    efdd:	83 bd bc e6 ff ff 00 	cmpl   $0x0,-0x1944(%rbp)
    efe4:	7f 07                	jg     efed <func_27+0x27bb>
    efe6:	ba 5b 49 16 92       	mov    $0x9216495b,%edx
    efeb:	eb 05                	jmp    eff2 <func_27+0x27c0>
    efed:	ba 5a 49 16 92       	mov    $0x9216495a,%edx
    eff2:	48 8b 85 88 e8 ff ff 	mov    -0x1778(%rbp),%rax
    eff9:	89 10                	mov    %edx,(%rax)
    effb:	48 8b 85 88 e8 ff ff 	mov    -0x1778(%rbp),%rax
    f002:	8b 00                	mov    (%rax),%eax
    f004:	89 85 b8 e6 ff ff    	mov    %eax,-0x1948(%rbp)
    f00a:	48 8b 05 ff e0 00 00 	mov    0xe0ff(%rip),%rax        # 1d110 <g_192>
    f011:	44 0f bf e8          	movswl %ax,%r13d
    f015:	48 8b 85 a0 e8 ff ff 	mov    -0x1760(%rbp),%rax
    f01c:	48 8d 15 2d 06 01 00 	lea    0x1062d(%rip),%rdx        # 1f650 <g_211>
    f023:	48 89 10             	mov    %rdx,(%rax)
    f026:	44 8b b5 38 e7 ff ff 	mov    -0x18c8(%rbp),%r14d
    f02d:	8b 85 60 ea ff ff    	mov    -0x15a0(%rbp),%eax
    f033:	0f bf d0             	movswl %ax,%edx
    f036:	0f b6 05 cf e3 00 00 	movzbl 0xe3cf(%rip),%eax        # 1d40c <g_1896>
    f03d:	0f be c0             	movsbl %al,%eax
    f040:	89 d6                	mov    %edx,%esi
    f042:	89 c7                	mov    %eax,%edi
    f044:	e8 ac b3 ff ff       	callq  a3f5 <safe_mul_func_int16_t_s_s>
    f049:	98                   	cwtl   
    f04a:	39 85 bc e6 ff ff    	cmp    %eax,-0x1944(%rbp)
    f050:	0f 9c c0             	setl   %al
    f053:	44 0f b6 f8          	movzbl %al,%r15d
    f057:	0f b6 85 ca e6 ff ff 	movzbl -0x1936(%rbp),%eax
    f05e:	be 0b 00 00 00       	mov    $0xb,%esi
    f063:	89 c7                	mov    %eax,%edi
    f065:	e8 28 b4 ff ff       	callq  a492 <safe_lshift_func_int16_t_s_s>
    f06a:	98                   	cwtl   
    f06b:	44 89 fe             	mov    %r15d,%esi
    f06e:	89 c7                	mov    %eax,%edi
    f070:	e8 71 be ff ff       	callq  aee6 <safe_mul_func_uint32_t_u_u>
    f075:	89 c0                	mov    %eax,%eax
    f077:	4c 89 f6             	mov    %r14,%rsi
    f07a:	48 89 c7             	mov    %rax,%rdi
    f07d:	e8 bf b7 ff ff       	callq  a841 <safe_add_func_int64_t_s_s>
    f082:	44 89 ee             	mov    %r13d,%esi
    f085:	bf 01 00 00 00       	mov    $0x1,%edi
    f08a:	e8 c6 b3 ff ff       	callq  a455 <safe_div_func_int16_t_s_s>
    f08f:	0f b7 c0             	movzwl %ax,%eax
    f092:	8b 95 bc e6 ff ff    	mov    -0x1944(%rbp),%edx
    f098:	89 d6                	mov    %edx,%esi
    f09a:	89 c7                	mov    %eax,%edi
    f09c:	e8 1d bd ff ff       	callq  adbe <safe_lshift_func_uint16_t_u_s>
    f0a1:	0f b7 c0             	movzwl %ax,%eax
    f0a4:	ba 05 00 00 00       	mov    $0x5,%edx
    f0a9:	39 d0                	cmp    %edx,%eax
    f0ab:	0f 9c c0             	setl   %al
    f0ae:	0f b6 c0             	movzbl %al,%eax
    f0b1:	39 85 b8 e6 ff ff    	cmp    %eax,-0x1948(%rbp)
    f0b7:	0f 95 c0             	setne  %al
    f0ba:	0f b6 c0             	movzbl %al,%eax
    f0bd:	39 85 30 e7 ff ff    	cmp    %eax,-0x18d0(%rbp)
    f0c3:	0f 93 c0             	setae  %al
    f0c6:	0f b6 c0             	movzbl %al,%eax
    f0c9:	39 85 34 e7 ff ff    	cmp    %eax,-0x18cc(%rbp)
    f0cf:	44 89 e6             	mov    %r12d,%esi
    f0d2:	bf 77 95 00 00       	mov    $0x9577,%edi
    f0d7:	e8 61 bc ff ff       	callq  ad3d <safe_mul_func_uint16_t_u_u>
    f0dc:	66 89 05 3b e2 00 00 	mov    %ax,0xe23b(%rip)        # 1d31e <g_651+0x1e>
    f0e3:	0f b7 05 34 e2 00 00 	movzwl 0xe234(%rip),%eax        # 1d31e <g_651+0x1e>
    f0ea:	0f b7 c0             	movzwl %ax,%eax
    f0ed:	be f9 ff 00 00       	mov    $0xfff9,%esi
    f0f2:	89 c7                	mov    %eax,%edi
    f0f4:	e8 44 bc ff ff       	callq  ad3d <safe_mul_func_uint16_t_u_u>
    f0f9:	8b 85 e4 e6 ff ff    	mov    -0x191c(%rbp),%eax
    f0ff:	85 c0                	test   %eax,%eax
    f101:	74 10                	je     f113 <func_27+0x28e1>
    f103:	83 bd bc e6 ff ff 00 	cmpl   $0x0,-0x1944(%rbp)
    f10a:	74 07                	je     f113 <func_27+0x28e1>
    f10c:	b8 01 00 00 00       	mov    $0x1,%eax
    f111:	eb 05                	jmp    f118 <func_27+0x28e6>
    f113:	b8 00 00 00 00       	mov    $0x0,%eax
    f118:	89 c2                	mov    %eax,%edx
    f11a:	8b 85 bc e6 ff ff    	mov    -0x1944(%rbp),%eax
    f120:	09 d0                	or     %edx,%eax
    f122:	0f be c0             	movsbl %al,%eax
    f125:	89 de                	mov    %ebx,%esi
    f127:	89 c7                	mov    %eax,%edi
    f129:	e8 e4 b0 ff ff       	callq  a212 <safe_mul_func_int8_t_s_s>
    f12e:	0f be d0             	movsbl %al,%edx
    f131:	0f b6 85 ca e6 ff ff 	movzbl -0x1936(%rbp),%eax
    f138:	09 d0                	or     %edx,%eax
    f13a:	85 c0                	test   %eax,%eax
    f13c:	75 0b                	jne    f149 <func_27+0x2917>
    f13e:	0f b6 05 ab e2 00 00 	movzbl 0xe2ab(%rip),%eax        # 1d3f0 <g_1309>
    f145:	84 c0                	test   %al,%al
    f147:	74 07                	je     f150 <func_27+0x291e>
    f149:	b8 01 00 00 00       	mov    $0x1,%eax
    f14e:	eb 05                	jmp    f155 <func_27+0x2923>
    f150:	b8 00 00 00 00       	mov    $0x0,%eax
    f155:	89 c2                	mov    %eax,%edx
    f157:	8b 05 b3 e2 00 00    	mov    0xe2b3(%rip),%eax        # 1d410 <g_1900>
    f15d:	09 d0                	or     %edx,%eax
    f15f:	89 05 ab e2 00 00    	mov    %eax,0xe2ab(%rip)        # 1d410 <g_1900>
    f165:	8b 85 bc e6 ff ff    	mov    -0x1944(%rbp),%eax
    f16b:	0f b7 d8             	movzwl %ax,%ebx
    f16e:	8b 85 bc e6 ff ff    	mov    -0x1944(%rbp),%eax
    f174:	0f b6 d0             	movzbl %al,%edx
    f177:	8b 05 97 e2 00 00    	mov    0xe297(%rip),%eax        # 1d414 <g_1912>
    f17d:	48 8b 85 b0 e8 ff ff 	mov    -0x1750(%rbp),%rax
    f184:	48 8d 8d 70 eb ff ff 	lea    -0x1490(%rbp),%rcx
    f18b:	48 83 c1 30          	add    $0x30,%rcx
    f18f:	48 89 08             	mov    %rcx,(%rax)
    f192:	48 8b 85 b0 e8 ff ff 	mov    -0x1750(%rbp),%rax
    f199:	48 8b 00             	mov    (%rax),%rax
    f19c:	48 39 85 40 e8 ff ff 	cmp    %rax,-0x17c0(%rbp)
    f1a3:	0f 95 c0             	setne  %al
    f1a6:	0f b6 c8             	movzbl %al,%ecx
    f1a9:	8b 85 60 ea ff ff    	mov    -0x15a0(%rbp),%eax
    f1af:	39 c1                	cmp    %eax,%ecx
    f1b1:	0f 9c c0             	setl   %al
    f1b4:	89 c1                	mov    %eax,%ecx
    f1b6:	48 8b 85 b8 e8 ff ff 	mov    -0x1748(%rbp),%rax
    f1bd:	88 08                	mov    %cl,(%rax)
    f1bf:	48 8b 85 b8 e8 ff ff 	mov    -0x1748(%rbp),%rax
    f1c6:	0f b6 00             	movzbl (%rax),%eax
    f1c9:	84 c0                	test   %al,%al
    f1cb:	74 14                	je     f1e1 <func_27+0x29af>
    f1cd:	48 8b 85 00 e8 ff ff 	mov    -0x1800(%rbp),%rax
    f1d4:	8b 00                	mov    (%rax),%eax
    f1d6:	85 c0                	test   %eax,%eax
    f1d8:	74 07                	je     f1e1 <func_27+0x29af>
    f1da:	b8 01 00 00 00       	mov    $0x1,%eax
    f1df:	eb 05                	jmp    f1e6 <func_27+0x29b4>
    f1e1:	b8 00 00 00 00       	mov    $0x0,%eax
    f1e6:	0f b6 c0             	movzbl %al,%eax
    f1e9:	89 d6                	mov    %edx,%esi
    f1eb:	89 c7                	mov    %eax,%edi
    f1ed:	e8 68 b9 ff ff       	callq  ab5a <safe_add_func_uint8_t_u_u>
    f1f2:	3c 01                	cmp    $0x1,%al
    f1f4:	0f 96 c0             	setbe  %al
    f1f7:	0f b6 c0             	movzbl %al,%eax
    f1fa:	39 85 bc e6 ff ff    	cmp    %eax,-0x1944(%rbp)
    f200:	0f 9e c0             	setle  %al
    f203:	0f b6 c8             	movzbl %al,%ecx
    f206:	0f b6 85 c9 e6 ff ff 	movzbl -0x1937(%rbp),%eax
    f20d:	89 da                	mov    %ebx,%edx
    f20f:	89 ce                	mov    %ecx,%esi
    f211:	89 c7                	mov    %eax,%edi
    f213:	e8 42 6b 00 00       	callq  15d5a <func_86>
    f218:	8b 85 bc e6 ff ff    	mov    -0x1944(%rbp),%eax
    f21e:	0f bf d0             	movswl %ax,%edx
    f221:	48 8b 8d b8 e7 ff ff 	mov    -0x1848(%rbp),%rcx
    f228:	48 8b 85 a8 e8 ff ff 	mov    -0x1758(%rbp),%rax
    f22f:	48 89 08             	mov    %rcx,(%rax)
    f232:	48 8b 85 a8 e8 ff ff 	mov    -0x1758(%rbp),%rax
    f239:	48 8b 00             	mov    (%rax),%rax
    f23c:	48 85 c0             	test   %rax,%rax
    f23f:	0f 95 c0             	setne  %al
    f242:	0f b6 c0             	movzbl %al,%eax
    f245:	89 d6                	mov    %edx,%esi
    f247:	89 c7                	mov    %eax,%edi
    f249:	e8 a7 b1 ff ff       	callq  a3f5 <safe_mul_func_int16_t_s_s>
    f24e:	48 0f bf c0          	movswq %ax,%rax
    f252:	89 c2                	mov    %eax,%edx
    f254:	8b 85 e4 e6 ff ff    	mov    -0x191c(%rbp),%eax
    f25a:	09 d0                	or     %edx,%eax
    f25c:	89 85 e4 e6 ff ff    	mov    %eax,-0x191c(%rbp)
    f262:	e9 cf 01 00 00       	jmpq   f436 <func_27+0x2c04>
    f267:	c6 85 d0 e7 ff ff 73 	movb   $0x73,-0x1830(%rbp)
    f26e:	48 8d 05 03 de 00 00 	lea    0xde03(%rip),%rax        # 1d078 <g_115>
    f275:	48 89 85 60 e8 ff ff 	mov    %rax,-0x17a0(%rbp)
    f27c:	48 8d 85 e4 e6 ff ff 	lea    -0x191c(%rbp),%rax
    f283:	48 89 85 68 e8 ff ff 	mov    %rax,-0x1798(%rbp)
    f28a:	48 c7 85 70 e8 ff ff 	movq   $0x0,-0x1790(%rbp)
    f291:	00 00 00 00 
    f295:	48 8d 85 d0 e7 ff ff 	lea    -0x1830(%rbp),%rax
    f29c:	48 89 85 78 e8 ff ff 	mov    %rax,-0x1788(%rbp)
    f2a3:	48 8d 05 52 e0 00 00 	lea    0xe052(%rip),%rax        # 1d2fc <g_650>
    f2aa:	48 89 85 80 e8 ff ff 	mov    %rax,-0x1780(%rbp)
    f2b1:	8b 9d 34 e7 ff ff    	mov    -0x18cc(%rbp),%ebx
    f2b7:	44 0f b6 a5 c9 e6 ff 	movzbl -0x1937(%rbp),%r12d
    f2be:	ff 
    f2bf:	83 bd bc e6 ff ff 00 	cmpl   $0x0,-0x1944(%rbp)
    f2c6:	75 22                	jne    f2ea <func_27+0x2ab8>
    f2c8:	8b 85 60 ea ff ff    	mov    -0x15a0(%rbp),%eax
    f2ce:	0f be c0             	movsbl %al,%eax
    f2d1:	8b 95 bc e6 ff ff    	mov    -0x1944(%rbp),%edx
    f2d7:	83 fa 01             	cmp    $0x1,%edx
    f2da:	89 c6                	mov    %eax,%esi
    f2dc:	bf 01 00 00 00       	mov    $0x1,%edi
    f2e1:	e8 0c af ff ff       	callq  a1f2 <safe_sub_func_int8_t_s_s>
    f2e6:	84 c0                	test   %al,%al
    f2e8:	74 07                	je     f2f1 <func_27+0x2abf>
    f2ea:	b8 01 00 00 00       	mov    $0x1,%eax
    f2ef:	eb 05                	jmp    f2f6 <func_27+0x2ac4>
    f2f1:	b8 00 00 00 00       	mov    $0x0,%eax
    f2f6:	44 39 e0             	cmp    %r12d,%eax
    f2f9:	0f 9f c0             	setg   %al
    f2fc:	0f b6 c0             	movzbl %al,%eax
    f2ff:	89 de                	mov    %ebx,%esi
    f301:	89 c7                	mov    %eax,%edi
    f303:	e8 5b b2 ff ff       	callq  a563 <safe_rshift_func_int16_t_s_u>
    f308:	8b 05 26 e0 00 00    	mov    0xe026(%rip),%eax        # 1d334 <g_658>
    f30e:	88 85 d0 e7 ff ff    	mov    %al,-0x1830(%rbp)
    f314:	0f b6 85 d0 e7 ff ff 	movzbl -0x1830(%rbp),%eax
    f31b:	0f b6 c0             	movzbl %al,%eax
    f31e:	be b5 fb 00 00       	mov    $0xfbb5,%esi
    f323:	89 c7                	mov    %eax,%edi
    f325:	e8 13 ba ff ff       	callq  ad3d <safe_mul_func_uint16_t_u_u>
    f32a:	89 c2                	mov    %eax,%edx
    f32c:	8b 85 bc e6 ff ff    	mov    -0x1944(%rbp),%eax
    f332:	09 c2                	or     %eax,%edx
    f334:	48 8b 85 60 e8 ff ff 	mov    -0x17a0(%rbp),%rax
    f33b:	66 89 10             	mov    %dx,(%rax)
    f33e:	48 8b 85 60 e8 ff ff 	mov    -0x17a0(%rbp),%rax
    f345:	0f b7 00             	movzwl (%rax),%eax
    f348:	98                   	cwtl   
    f349:	be 01 00 00 00       	mov    $0x1,%esi
    f34e:	89 c7                	mov    %eax,%edi
    f350:	e8 5e b0 ff ff       	callq  a3b3 <safe_add_func_int16_t_s_s>
    f355:	98                   	cwtl   
    f356:	89 85 34 e7 ff ff    	mov    %eax,-0x18cc(%rbp)
    f35c:	48 8b 85 00 e8 ff ff 	mov    -0x1800(%rbp),%rax
    f363:	8b 00                	mov    (%rax),%eax
    f365:	23 85 34 e7 ff ff    	and    -0x18cc(%rbp),%eax
    f36b:	48 63 d0             	movslq %eax,%rdx
    f36e:	48 8b 05 eb de 00 00 	mov    0xdeeb(%rip),%rax        # 1d260 <g_290>
    f375:	48 39 c2             	cmp    %rax,%rdx
    f378:	0f 9e c0             	setle  %al
    f37b:	0f b6 d0             	movzbl %al,%edx
    f37e:	48 8b 85 68 e8 ff ff 	mov    -0x1798(%rbp),%rax
    f385:	89 10                	mov    %edx,(%rax)
    f387:	48 8b 85 68 e8 ff ff 	mov    -0x1798(%rbp),%rax
    f38e:	8b 18                	mov    (%rax),%ebx
    f390:	66 83 bd d6 e6 ff ff 	cmpw   $0x0,-0x192a(%rbp)
    f397:	00 
    f398:	0f 9e c0             	setle  %al
    f39b:	0f b6 d0             	movzbl %al,%edx
    f39e:	48 8b 85 68 e8 ff ff 	mov    -0x1798(%rbp),%rax
    f3a5:	8b 00                	mov    (%rax),%eax
    f3a7:	89 d6                	mov    %edx,%esi
    f3a9:	89 c7                	mov    %eax,%edi
    f3ab:	e8 06 b2 ff ff       	callq  a5b6 <safe_add_func_int32_t_s_s>
    f3b0:	3d 0f bd 7c 76       	cmp    $0x767cbd0f,%eax
    f3b5:	0f 95 c0             	setne  %al
    f3b8:	0f b6 d0             	movzbl %al,%edx
    f3bb:	48 8b 85 08 e8 ff ff 	mov    -0x17f8(%rbp),%rax
    f3c2:	48 3b 85 48 e8 ff ff 	cmp    -0x17b8(%rbp),%rax
    f3c9:	0f 95 c0             	setne  %al
    f3cc:	0f b6 c0             	movzbl %al,%eax
    f3cf:	48 89 d6             	mov    %rdx,%rsi
    f3d2:	48 89 c7             	mov    %rax,%rdi
    f3d5:	e8 71 bc ff ff       	callq  b04b <safe_sub_func_uint64_t_u_u>
    f3da:	89 c6                	mov    %eax,%esi
    f3dc:	48 8b 85 78 e8 ff ff 	mov    -0x1788(%rbp),%rax
    f3e3:	0f b6 00             	movzbl (%rax),%eax
    f3e6:	8d 48 01             	lea    0x1(%rax),%ecx
    f3e9:	48 8b 95 78 e8 ff ff 	mov    -0x1788(%rbp),%rdx
    f3f0:	88 0a                	mov    %cl,(%rdx)
    f3f2:	0f b6 c0             	movzbl %al,%eax
    f3f5:	89 c7                	mov    %eax,%edi
    f3f7:	e8 50 b8 ff ff       	callq  ac4c <safe_lshift_func_uint8_t_u_u>
    f3fc:	48 8b 85 a0 e7 ff ff 	mov    -0x1860(%rbp),%rax
    f403:	48 39 85 50 e8 ff ff 	cmp    %rax,-0x17b0(%rbp)
    f40a:	0f 95 c0             	setne  %al
    f40d:	0f b6 c0             	movzbl %al,%eax
    f410:	48 8b 95 e0 e7 ff ff 	mov    -0x1820(%rbp),%rdx
    f417:	09 d0                	or     %edx,%eax
    f419:	89 de                	mov    %ebx,%esi
    f41b:	89 c7                	mov    %eax,%edi
    f41d:	e8 dd b2 ff ff       	callq  a6ff <safe_div_func_int32_t_s_s>
    f422:	48 8b 95 80 e8 ff ff 	mov    -0x1780(%rbp),%rdx
    f429:	8b 12                	mov    (%rdx),%edx
    f42b:	31 c2                	xor    %eax,%edx
    f42d:	48 8b 85 80 e8 ff ff 	mov    -0x1780(%rbp),%rax
    f434:	89 10                	mov    %edx,(%rax)
    f436:	48 8b 05 83 15 01 00 	mov    0x11583(%rip),%rax        # 209c0 <g_1952>
    f43d:	48 8b 95 a8 e6 ff ff 	mov    -0x1958(%rbp),%rdx
    f444:	48 89 10             	mov    %rdx,(%rax)
    f447:	c7 05 bf df 00 00 00 	movl   $0x0,0xdfbf(%rip)        # 1d410 <g_1900>
    f44e:	00 00 00 
    f451:	eb 4d                	jmp    f4a0 <func_27+0x2c6e>
    f453:	c7 85 14 e7 ff ff 00 	movl   $0x0,-0x18ec(%rbp)
    f45a:	00 00 00 
    f45d:	eb 1b                	jmp    f47a <func_27+0x2c48>
    f45f:	8b 85 14 e7 ff ff    	mov    -0x18ec(%rbp),%eax
    f465:	48 98                	cltq   
    f467:	48 c7 84 c5 20 fa ff 	movq   $0x0,-0x5e0(%rbp,%rax,8)
    f46e:	ff 00 00 00 00 
    f473:	83 85 14 e7 ff ff 01 	addl   $0x1,-0x18ec(%rbp)
    f47a:	83 bd 14 e7 ff ff 02 	cmpl   $0x2,-0x18ec(%rbp)
    f481:	7e dc                	jle    f45f <func_27+0x2c2d>
    f483:	48 8b 85 30 e8 ff ff 	mov    -0x17d0(%rbp),%rax
    f48a:	48 89 85 58 e8 ff ff 	mov    %rax,-0x17a8(%rbp)
    f491:	8b 05 79 df 00 00    	mov    0xdf79(%rip),%eax        # 1d410 <g_1900>
    f497:	83 c0 01             	add    $0x1,%eax
    f49a:	89 05 70 df 00 00    	mov    %eax,0xdf70(%rip)        # 1d410 <g_1900>
    f4a0:	8b 05 6a df 00 00    	mov    0xdf6a(%rip),%eax        # 1d410 <g_1900>
    f4a6:	83 f8 02             	cmp    $0x2,%eax
    f4a9:	76 a8                	jbe    f453 <func_27+0x2c21>
    f4ab:	eb 01                	jmp    f4ae <func_27+0x2c7c>
    f4ad:	90                   	nop
    f4ae:	48 83 85 e0 e7 ff ff 	addq   $0x1,-0x1820(%rbp)
    f4b5:	01 
    f4b6:	48 83 bd e0 e7 ff ff 	cmpq   $0x6,-0x1820(%rbp)
    f4bd:	06 
    f4be:	0f 86 33 f7 ff ff    	jbe    ebf7 <func_27+0x23c5>
    f4c4:	eb 01                	jmp    f4c7 <func_27+0x2c95>
    f4c6:	90                   	nop
    f4c7:	48 8d 05 ca 01 01 00 	lea    0x101ca(%rip),%rax        # 1f698 <g_330>
    f4ce:	48 39 85 38 e8 ff ff 	cmp    %rax,-0x17c8(%rbp)
    f4d5:	0f 95 c0             	setne  %al
    f4d8:	0f b6 c0             	movzbl %al,%eax
    f4db:	89 85 60 ea ff ff    	mov    %eax,-0x15a0(%rbp)
    f4e1:	0f b6 05 60 db 00 00 	movzbl 0xdb60(%rip),%eax        # 1d048 <g_52>
    f4e8:	0f be c0             	movsbl %al,%eax
    f4eb:	be 03 00 00 00       	mov    $0x3,%esi
    f4f0:	89 c7                	mov    %eax,%edi
    f4f2:	e8 c1 b9 ff ff       	callq  aeb8 <safe_add_func_uint32_t_u_u>
    f4f7:	88 05 4b db 00 00    	mov    %al,0xdb4b(%rip)        # 1d048 <g_52>
    f4fd:	0f b6 05 44 db 00 00 	movzbl 0xdb44(%rip),%eax        # 1d048 <g_52>
    f504:	3c 16                	cmp    $0x16,%al
    f506:	0f 8f c2 d6 ff ff    	jg     cbce <func_27+0x39c>
    f50c:	66 c7 05 4f de 00 00 	movw   $0xffec,0xde4f(%rip)        # 1d364 <g_774>
    f513:	ec ff 
    f515:	eb 45                	jmp    f55c <func_27+0x2d2a>
    f517:	48 8b 85 00 e8 ff ff 	mov    -0x1800(%rbp),%rax
    f51e:	8b 00                	mov    (%rax),%eax
    f520:	0f be c0             	movsbl %al,%eax
    f523:	be 05 00 00 00       	mov    $0x5,%esi
    f528:	89 c7                	mov    %eax,%edi
    f52a:	e8 bf ad ff ff       	callq  a2ee <safe_lshift_func_int8_t_s_u>
    f52f:	89 c2                	mov    %eax,%edx
    f531:	48 8b 05 90 14 01 00 	mov    0x11490(%rip),%rax        # 209c8 <g_1963>
    f538:	0f be d2             	movsbl %dl,%edx
    f53b:	89 10                	mov    %edx,(%rax)
    f53d:	0f b7 05 20 de 00 00 	movzwl 0xde20(%rip),%eax        # 1d364 <g_774>
    f544:	48 0f bf c0          	movswq %ax,%rax
    f548:	be 09 00 00 00       	mov    $0x9,%esi
    f54d:	48 89 c7             	mov    %rax,%rdi
    f550:	e8 f6 ba ff ff       	callq  b04b <safe_sub_func_uint64_t_u_u>
    f555:	66 89 05 08 de 00 00 	mov    %ax,0xde08(%rip)        # 1d364 <g_774>
    f55c:	0f b7 05 01 de 00 00 	movzwl 0xde01(%rip),%eax        # 1d364 <g_774>
    f563:	66 83 f8 eb          	cmp    $0xffeb,%ax
    f567:	7d ae                	jge    f517 <func_27+0x2ce5>
    f569:	48 8b 85 00 e8 ff ff 	mov    -0x1800(%rbp),%rax
    f570:	44 8b 20             	mov    (%rax),%r12d
    f573:	48 8b 85 10 e8 ff ff 	mov    -0x17f0(%rbp),%rax
    f57a:	0f b7 00             	movzwl (%rax),%eax
    f57d:	83 e0 01             	and    $0x1,%eax
    f580:	89 c2                	mov    %eax,%edx
    f582:	48 8b 85 10 e8 ff ff 	mov    -0x17f0(%rbp),%rax
    f589:	66 89 10             	mov    %dx,(%rax)
    f58c:	48 8b 85 10 e8 ff ff 	mov    -0x17f0(%rbp),%rax
    f593:	0f b7 00             	movzwl (%rax),%eax
    f596:	0f bf d8             	movswl %ax,%ebx
    f599:	0f b6 05 e4 dd 00 00 	movzbl 0xdde4(%rip),%eax        # 1d384 <g_1037>
    f5a0:	0f b6 c0             	movzbl %al,%eax
    f5a3:	be 0b 00 00 00       	mov    $0xb,%esi
    f5a8:	89 c7                	mov    %eax,%edi
    f5aa:	e8 99 b8 ff ff       	callq  ae48 <safe_rshift_func_uint16_t_u_s>
    f5af:	0f be c0             	movsbl %al,%eax
    f5b2:	be 01 00 00 00       	mov    $0x1,%esi
    f5b7:	89 c7                	mov    %eax,%edi
    f5b9:	e8 77 ad ff ff       	callq  a335 <safe_rshift_func_int8_t_s_s>
    f5be:	0f be c0             	movsbl %al,%eax
    f5c1:	89 de                	mov    %ebx,%esi
    f5c3:	89 c7                	mov    %eax,%edi
    f5c5:	e8 2b ae ff ff       	callq  a3f5 <safe_mul_func_int16_t_s_s>
    f5ca:	98                   	cwtl   
    f5cb:	44 31 e0             	xor    %r12d,%eax
    f5ce:	f7 d0                	not    %eax
    f5d0:	89 c2                	mov    %eax,%edx
    f5d2:	8b 85 e0 e6 ff ff    	mov    -0x1920(%rbp),%eax
    f5d8:	31 d0                	xor    %edx,%eax
    f5da:	89 85 e0 e6 ff ff    	mov    %eax,-0x1920(%rbp)
    f5e0:	48 8b 05 89 00 01 00 	mov    0x10089(%rip),%rax        # 1f670 <g_293>
    f5e7:	48 8b 00             	mov    (%rax),%rax
    f5ea:	48 8b 00             	mov    (%rax),%rax
    f5ed:	48 8b 5d c8          	mov    -0x38(%rbp),%rbx
    f5f1:	64 48 33 1c 25 28 00 	xor    %fs:0x28,%rbx
    f5f8:	00 00 
    f5fa:	74 05                	je     f601 <func_27+0x2dcf>
    f5fc:	e8 6f aa ff ff       	callq  a070 <__stack_chk_fail@plt>
    f601:	48 81 c4 38 19 00 00 	add    $0x1938,%rsp
    f608:	5b                   	pop    %rbx
    f609:	41 5c                	pop    %r12
    f60b:	41 5d                	pop    %r13
    f60d:	41 5e                	pop    %r14
    f60f:	41 5f                	pop    %r15
    f611:	5d                   	pop    %rbp
    f612:	c3                   	retq   

000000000000f613 <func_38>:
    f613:	f3 0f 1e fa          	endbr64 
    f617:	55                   	push   %rbp
    f618:	48 89 e5             	mov    %rsp,%rbp
    f61b:	48 81 ec 30 04 00 00 	sub    $0x430,%rsp
    f622:	48 89 bd d8 fb ff ff 	mov    %rdi,-0x428(%rbp)
    f629:	64 48 8b 04 25 28 00 	mov    %fs:0x28,%rax
    f630:	00 00 
    f632:	48 89 45 f8          	mov    %rax,-0x8(%rbp)
    f636:	31 c0                	xor    %eax,%eax
    f638:	48 8d 85 f0 fb ff ff 	lea    -0x410(%rbp),%rax
    f63f:	48 89 85 e8 fb ff ff 	mov    %rax,-0x418(%rbp)
    f646:	48 8d 85 00 fc ff ff 	lea    -0x400(%rbp),%rax
    f64d:	48 8d 15 8c 97 00 00 	lea    0x978c(%rip),%rdx        # 18de0 <g_2140+0xd74>
    f654:	b9 7e 00 00 00       	mov    $0x7e,%ecx
    f659:	48 89 c7             	mov    %rax,%rdi
    f65c:	48 89 d6             	mov    %rdx,%rsi
    f65f:	f3 48 a5             	rep movsq %ds:(%rsi),%es:(%rdi)
    f662:	c7 85 e4 fb ff ff 00 	movl   $0x0,-0x41c(%rbp)
    f669:	00 00 00 
    f66c:	eb 1e                	jmp    f68c <func_38+0x79>
    f66e:	8b 85 e4 fb ff ff    	mov    -0x41c(%rbp),%eax
    f674:	48 98                	cltq   
    f676:	48 8d 15 bf d9 00 00 	lea    0xd9bf(%rip),%rdx        # 1d03c <g_32>
    f67d:	48 89 94 c5 f0 fb ff 	mov    %rdx,-0x410(%rbp,%rax,8)
    f684:	ff 
    f685:	83 85 e4 fb ff ff 01 	addl   $0x1,-0x41c(%rbp)
    f68c:	83 bd e4 fb ff ff 01 	cmpl   $0x1,-0x41c(%rbp)
    f693:	7e d9                	jle    f66e <func_38+0x5b>
    f695:	48 8b 95 f8 fb ff ff 	mov    -0x408(%rbp),%rdx
    f69c:	48 8b 85 e8 fb ff ff 	mov    -0x418(%rbp),%rax
    f6a3:	48 89 10             	mov    %rdx,(%rax)
    f6a6:	8b 85 c4 fc ff ff    	mov    -0x33c(%rbp),%eax
    f6ac:	48 98                	cltq   
    f6ae:	48 8b 4d f8          	mov    -0x8(%rbp),%rcx
    f6b2:	64 48 33 0c 25 28 00 	xor    %fs:0x28,%rcx
    f6b9:	00 00 
    f6bb:	74 05                	je     f6c2 <func_38+0xaf>
    f6bd:	e8 ae a9 ff ff       	callq  a070 <__stack_chk_fail@plt>
    f6c2:	c9                   	leaveq 
    f6c3:	c3                   	retq   

000000000000f6c4 <func_66>:
    f6c4:	f3 0f 1e fa          	endbr64 
    f6c8:	55                   	push   %rbp
    f6c9:	48 89 e5             	mov    %rsp,%rbp
    f6cc:	41 56                	push   %r14
    f6ce:	41 55                	push   %r13
    f6d0:	41 54                	push   %r12
    f6d2:	53                   	push   %rbx
    f6d3:	48 81 ec 00 10 00 00 	sub    $0x1000,%rsp
    f6da:	48 83 0c 24 00       	orq    $0x0,(%rsp)
    f6df:	48 81 ec d0 0c 00 00 	sub    $0xcd0,%rsp
    f6e6:	89 f8                	mov    %edi,%eax
    f6e8:	48 89 b5 10 e3 ff ff 	mov    %rsi,-0x1cf0(%rbp)
    f6ef:	66 89 85 1c e3 ff ff 	mov    %ax,-0x1ce4(%rbp)
    f6f6:	64 48 8b 04 25 28 00 	mov    %fs:0x28,%rax
    f6fd:	00 00 
    f6ff:	48 89 45 d8          	mov    %rax,-0x28(%rbp)
    f703:	31 c0                	xor    %eax,%eax
    f705:	c7 85 34 e3 ff ff 78 	movl   $0xce864f78,-0x1ccc(%rbp)
    f70c:	4f 86 ce 
    f70f:	c7 85 38 e3 ff ff ff 	movl   $0xffffffff,-0x1cc8(%rbp)
    f716:	ff ff ff 
    f719:	48 8d 05 90 d9 00 00 	lea    0xd990(%rip),%rax        # 1d0b0 <g_125+0x10>
    f720:	48 89 85 60 e4 ff ff 	mov    %rax,-0x1ba0(%rbp)
    f727:	48 8d 85 60 e4 ff ff 	lea    -0x1ba0(%rbp),%rax
    f72e:	48 89 85 68 e4 ff ff 	mov    %rax,-0x1b98(%rbp)
    f735:	48 8d 85 68 e4 ff ff 	lea    -0x1b98(%rbp),%rax
    f73c:	48 89 85 90 e5 ff ff 	mov    %rax,-0x1a70(%rbp)
    f743:	c7 85 3c e3 ff ff fd 	movl   $0xfffffffd,-0x1cc4(%rbp)
    f74a:	ff ff ff 
    f74d:	c7 85 60 ea ff ff 01 	movl   $0x1,-0x15a0(%rbp)
    f754:	00 00 00 
    f757:	c7 85 64 ea ff ff 00 	movl   $0x0,-0x159c(%rbp)
    f75e:	00 00 00 
    f761:	c7 85 68 ea ff ff ff 	movl   $0xffffffff,-0x1598(%rbp)
    f768:	ff ff ff 
    f76b:	c7 85 6c ea ff ff 00 	movl   $0x0,-0x1594(%rbp)
    f772:	00 00 00 
    f775:	c7 85 70 ea ff ff 01 	movl   $0x1,-0x1590(%rbp)
    f77c:	00 00 00 
    f77f:	c7 85 74 ea ff ff ff 	movl   $0xba98f9ff,-0x158c(%rbp)
    f786:	f9 98 ba 
    f789:	c7 85 78 ea ff ff 01 	movl   $0x1,-0x1588(%rbp)
    f790:	00 00 00 
    f793:	c7 85 7c ea ff ff 00 	movl   $0x0,-0x1584(%rbp)
    f79a:	00 00 00 
    f79d:	c7 85 80 ea ff ff 00 	movl   $0x0,-0x1580(%rbp)
    f7a4:	00 00 00 
    f7a7:	c7 85 84 ea ff ff 00 	movl   $0x0,-0x157c(%rbp)
    f7ae:	00 00 00 
    f7b1:	c7 85 88 ea ff ff 00 	movl   $0x0,-0x1578(%rbp)
    f7b8:	00 00 00 
    f7bb:	c7 85 8c ea ff ff bf 	movl   $0xfb706bf,-0x1574(%rbp)
    f7c2:	06 b7 0f 
    f7c5:	c7 85 90 ea ff ff 01 	movl   $0x1,-0x1570(%rbp)
    f7cc:	00 00 00 
    f7cf:	c7 85 94 ea ff ff bf 	movl   $0xfb706bf,-0x156c(%rbp)
    f7d6:	06 b7 0f 
    f7d9:	c7 85 98 ea ff ff 00 	movl   $0x0,-0x1568(%rbp)
    f7e0:	00 00 00 
    f7e3:	c7 85 9c ea ff ff 00 	movl   $0x0,-0x1564(%rbp)
    f7ea:	00 00 00 
    f7ed:	c7 85 a0 ea ff ff 01 	movl   $0x1,-0x1560(%rbp)
    f7f4:	00 00 00 
    f7f7:	c7 85 a4 ea ff ff bf 	movl   $0xfb706bf,-0x155c(%rbp)
    f7fe:	06 b7 0f 
    f801:	c7 85 a8 ea ff ff 00 	movl   $0x0,-0x1558(%rbp)
    f808:	00 00 00 
    f80b:	c7 85 ac ea ff ff 00 	movl   $0x0,-0x1554(%rbp)
    f812:	00 00 00 
    f815:	c7 85 b0 ea ff ff 00 	movl   $0x0,-0x1550(%rbp)
    f81c:	00 00 00 
    f81f:	c7 85 b4 ea ff ff bf 	movl   $0xfb706bf,-0x154c(%rbp)
    f826:	06 b7 0f 
    f829:	c7 85 b8 ea ff ff 01 	movl   $0x1,-0x1548(%rbp)
    f830:	00 00 00 
    f833:	c7 85 bc ea ff ff bf 	movl   $0xfb706bf,-0x1544(%rbp)
    f83a:	06 b7 0f 
    f83d:	c7 85 c0 ea ff ff 01 	movl   $0x1,-0x1540(%rbp)
    f844:	00 00 00 
    f847:	c7 85 c4 ea ff ff 00 	movl   $0x0,-0x153c(%rbp)
    f84e:	00 00 00 
    f851:	c7 85 c8 ea ff ff ff 	movl   $0xffffffff,-0x1538(%rbp)
    f858:	ff ff ff 
    f85b:	c7 85 cc ea ff ff 00 	movl   $0x0,-0x1534(%rbp)
    f862:	00 00 00 
    f865:	c7 85 d0 ea ff ff 01 	movl   $0x1,-0x1530(%rbp)
    f86c:	00 00 00 
    f86f:	c7 85 d4 ea ff ff ff 	movl   $0xba98f9ff,-0x152c(%rbp)
    f876:	f9 98 ba 
    f879:	c7 85 d8 ea ff ff 01 	movl   $0x1,-0x1528(%rbp)
    f880:	00 00 00 
    f883:	c7 85 dc ea ff ff 00 	movl   $0x0,-0x1524(%rbp)
    f88a:	00 00 00 
    f88d:	c7 85 e0 ea ff ff 00 	movl   $0x0,-0x1520(%rbp)
    f894:	00 00 00 
    f897:	c7 85 e4 ea ff ff 00 	movl   $0x0,-0x151c(%rbp)
    f89e:	00 00 00 
    f8a1:	c7 85 e8 ea ff ff 00 	movl   $0x0,-0x1518(%rbp)
    f8a8:	00 00 00 
    f8ab:	c7 85 ec ea ff ff bf 	movl   $0xfb706bf,-0x1514(%rbp)
    f8b2:	06 b7 0f 
    f8b5:	c7 85 f0 ea ff ff 01 	movl   $0x1,-0x1510(%rbp)
    f8bc:	00 00 00 
    f8bf:	c7 85 f4 ea ff ff bf 	movl   $0xfb706bf,-0x150c(%rbp)
    f8c6:	06 b7 0f 
    f8c9:	c7 85 f8 ea ff ff 00 	movl   $0x0,-0x1508(%rbp)
    f8d0:	00 00 00 
    f8d3:	c7 85 fc ea ff ff 00 	movl   $0x0,-0x1504(%rbp)
    f8da:	00 00 00 
    f8dd:	c7 85 00 eb ff ff 01 	movl   $0x1,-0x1500(%rbp)
    f8e4:	00 00 00 
    f8e7:	c7 85 04 eb ff ff ff 	movl   $0xba98f9ff,-0x14fc(%rbp)
    f8ee:	f9 98 ba 
    f8f1:	c7 85 08 eb ff ff ff 	movl   $0xffffffff,-0x14f8(%rbp)
    f8f8:	ff ff ff 
    f8fb:	c7 85 0c eb ff ff bf 	movl   $0xfb706bf,-0x14f4(%rbp)
    f902:	06 b7 0f 
    f905:	c7 85 10 eb ff ff ff 	movl   $0xffffffff,-0x14f0(%rbp)
    f90c:	ff ff ff 
    f90f:	c7 85 14 eb ff ff ff 	movl   $0xba98f9ff,-0x14ec(%rbp)
    f916:	f9 98 ba 
    f919:	c7 85 18 eb ff ff 00 	movl   $0x0,-0x14e8(%rbp)
    f920:	00 00 00 
    f923:	c7 85 1c eb ff ff ff 	movl   $0xba98f9ff,-0x14e4(%rbp)
    f92a:	f9 98 ba 
    f92d:	c7 85 20 eb ff ff 00 	movl   $0x0,-0x14e0(%rbp)
    f934:	00 00 00 
    f937:	c7 85 24 eb ff ff bf 	movl   $0xfb706bf,-0x14dc(%rbp)
    f93e:	06 b7 0f 
    f941:	c7 85 28 eb ff ff 01 	movl   $0x1,-0x14d8(%rbp)
    f948:	00 00 00 
    f94b:	c7 85 2c eb ff ff bf 	movl   $0xfb706bf,-0x14d4(%rbp)
    f952:	06 b7 0f 
    f955:	c7 85 30 eb ff ff 00 	movl   $0x0,-0x14d0(%rbp)
    f95c:	00 00 00 
    f95f:	c7 85 34 eb ff ff 00 	movl   $0x0,-0x14cc(%rbp)
    f966:	00 00 00 
    f969:	c7 85 38 eb ff ff 00 	movl   $0x0,-0x14c8(%rbp)
    f970:	00 00 00 
    f973:	c7 85 3c eb ff ff bf 	movl   $0xfb706bf,-0x14c4(%rbp)
    f97a:	06 b7 0f 
    f97d:	c7 85 40 eb ff ff ff 	movl   $0xffffffff,-0x14c0(%rbp)
    f984:	ff ff ff 
    f987:	c7 85 44 eb ff ff bf 	movl   $0xfb706bf,-0x14bc(%rbp)
    f98e:	06 b7 0f 
    f991:	c7 85 48 eb ff ff ff 	movl   $0xffffffff,-0x14b8(%rbp)
    f998:	ff ff ff 
    f99b:	c7 85 4c eb ff ff ff 	movl   $0xba98f9ff,-0x14b4(%rbp)
    f9a2:	f9 98 ba 
    f9a5:	c7 85 50 eb ff ff 00 	movl   $0x0,-0x14b0(%rbp)
    f9ac:	00 00 00 
    f9af:	c7 85 54 eb ff ff ff 	movl   $0xba98f9ff,-0x14ac(%rbp)
    f9b6:	f9 98 ba 
    f9b9:	c7 85 58 eb ff ff ff 	movl   $0xffffffff,-0x14a8(%rbp)
    f9c0:	ff ff ff 
    f9c3:	c7 85 5c eb ff ff bf 	movl   $0xfb706bf,-0x14a4(%rbp)
    f9ca:	06 b7 0f 
    f9cd:	c7 85 40 e3 ff ff 5d 	movl   $0x3095075d,-0x1cc0(%rbp)
    f9d4:	07 95 30 
    f9d7:	48 8d 05 26 d7 00 00 	lea    0xd726(%rip),%rax        # 1d104 <g_159+0x4>
    f9de:	48 89 85 88 e5 ff ff 	mov    %rax,-0x1a78(%rbp)
    f9e5:	c7 85 44 e3 ff ff fd 	movl   $0xfffffffd,-0x1cbc(%rbp)
    f9ec:	ff ff ff 
    f9ef:	c7 85 48 e3 ff ff 93 	movl   $0x58f1ea93,-0x1cb8(%rbp)
    f9f6:	ea f1 58 
    f9f9:	c6 85 20 e3 ff ff f6 	movb   $0xf6,-0x1ce0(%rbp)
    fa00:	c7 85 4c e3 ff ff 91 	movl   $0x699bab91,-0x1cb4(%rbp)
    fa07:	ab 9b 69 
    fa0a:	c7 85 50 e3 ff ff 8d 	movl   $0x49fefb8d,-0x1cb0(%rbp)
    fa11:	fb fe 49 
    fa14:	c6 85 21 e3 ff ff a0 	movb   $0xa0,-0x1cdf(%rbp)
    fa1b:	c7 85 54 e3 ff ff 98 	movl   $0xc4f3c298,-0x1cac(%rbp)
    fa22:	c2 f3 c4 
    fa25:	c7 85 b0 e8 ff ff 02 	movl   $0xf5e87202,-0x1750(%rbp)
    fa2c:	72 e8 f5 
    fa2f:	c7 85 b4 e8 ff ff 02 	movl   $0xf5e87202,-0x174c(%rbp)
    fa36:	72 e8 f5 
    fa39:	c7 85 b8 e8 ff ff 02 	movl   $0xf5e87202,-0x1748(%rbp)
    fa40:	72 e8 f5 
    fa43:	c7 85 bc e8 ff ff 02 	movl   $0xf5e87202,-0x1744(%rbp)
    fa4a:	72 e8 f5 
    fa4d:	c7 85 c0 e8 ff ff 02 	movl   $0xf5e87202,-0x1740(%rbp)
    fa54:	72 e8 f5 
    fa57:	c7 85 c4 e8 ff ff 02 	movl   $0xf5e87202,-0x173c(%rbp)
    fa5e:	72 e8 f5 
    fa61:	c7 85 c8 e8 ff ff 02 	movl   $0xf5e87202,-0x1738(%rbp)
    fa68:	72 e8 f5 
    fa6b:	c7 85 cc e8 ff ff 02 	movl   $0xf5e87202,-0x1734(%rbp)
    fa72:	72 e8 f5 
    fa75:	c7 85 d0 e8 ff ff 02 	movl   $0xf5e87202,-0x1730(%rbp)
    fa7c:	72 e8 f5 
    fa7f:	c7 85 d4 e8 ff ff 02 	movl   $0xf5e87202,-0x172c(%rbp)
    fa86:	72 e8 f5 
    fa89:	c7 85 d8 e8 ff ff 02 	movl   $0xf5e87202,-0x1728(%rbp)
    fa90:	72 e8 f5 
    fa93:	c7 85 dc e8 ff ff 02 	movl   $0xf5e87202,-0x1724(%rbp)
    fa9a:	72 e8 f5 
    fa9d:	c7 85 e0 e8 ff ff 02 	movl   $0xf5e87202,-0x1720(%rbp)
    faa4:	72 e8 f5 
    faa7:	c7 85 e4 e8 ff ff 02 	movl   $0xf5e87202,-0x171c(%rbp)
    faae:	72 e8 f5 
    fab1:	c7 85 e8 e8 ff ff 02 	movl   $0xf5e87202,-0x1718(%rbp)
    fab8:	72 e8 f5 
    fabb:	c7 85 ec e8 ff ff 02 	movl   $0xf5e87202,-0x1714(%rbp)
    fac2:	72 e8 f5 
    fac5:	c7 85 f0 e8 ff ff 02 	movl   $0xf5e87202,-0x1710(%rbp)
    facc:	72 e8 f5 
    facf:	c7 85 f4 e8 ff ff 02 	movl   $0xf5e87202,-0x170c(%rbp)
    fad6:	72 e8 f5 
    fad9:	c7 85 f8 e8 ff ff 02 	movl   $0xf5e87202,-0x1708(%rbp)
    fae0:	72 e8 f5 
    fae3:	c7 85 fc e8 ff ff 02 	movl   $0xf5e87202,-0x1704(%rbp)
    faea:	72 e8 f5 
    faed:	c7 85 00 e9 ff ff 02 	movl   $0xf5e87202,-0x1700(%rbp)
    faf4:	72 e8 f5 
    faf7:	c7 85 04 e9 ff ff 02 	movl   $0xf5e87202,-0x16fc(%rbp)
    fafe:	72 e8 f5 
    fb01:	c7 85 08 e9 ff ff 02 	movl   $0xf5e87202,-0x16f8(%rbp)
    fb08:	72 e8 f5 
    fb0b:	c7 85 0c e9 ff ff 02 	movl   $0xf5e87202,-0x16f4(%rbp)
    fb12:	72 e8 f5 
    fb15:	c7 85 10 e9 ff ff 02 	movl   $0xf5e87202,-0x16f0(%rbp)
    fb1c:	72 e8 f5 
    fb1f:	c7 85 14 e9 ff ff 02 	movl   $0xf5e87202,-0x16ec(%rbp)
    fb26:	72 e8 f5 
    fb29:	c7 85 18 e9 ff ff 02 	movl   $0xf5e87202,-0x16e8(%rbp)
    fb30:	72 e8 f5 
    fb33:	c7 85 1c e9 ff ff 02 	movl   $0xf5e87202,-0x16e4(%rbp)
    fb3a:	72 e8 f5 
    fb3d:	c7 85 20 e9 ff ff 02 	movl   $0xf5e87202,-0x16e0(%rbp)
    fb44:	72 e8 f5 
    fb47:	c7 85 24 e9 ff ff 02 	movl   $0xf5e87202,-0x16dc(%rbp)
    fb4e:	72 e8 f5 
    fb51:	c7 85 28 e9 ff ff 02 	movl   $0xf5e87202,-0x16d8(%rbp)
    fb58:	72 e8 f5 
    fb5b:	c7 85 2c e9 ff ff 02 	movl   $0xf5e87202,-0x16d4(%rbp)
    fb62:	72 e8 f5 
    fb65:	c7 85 30 e9 ff ff 02 	movl   $0xf5e87202,-0x16d0(%rbp)
    fb6c:	72 e8 f5 
    fb6f:	c7 85 34 e9 ff ff 02 	movl   $0xf5e87202,-0x16cc(%rbp)
    fb76:	72 e8 f5 
    fb79:	c7 85 38 e9 ff ff 02 	movl   $0xf5e87202,-0x16c8(%rbp)
    fb80:	72 e8 f5 
    fb83:	c7 85 3c e9 ff ff 02 	movl   $0xf5e87202,-0x16c4(%rbp)
    fb8a:	72 e8 f5 
    fb8d:	c7 85 40 e9 ff ff 02 	movl   $0xf5e87202,-0x16c0(%rbp)
    fb94:	72 e8 f5 
    fb97:	c7 85 44 e9 ff ff 02 	movl   $0xf5e87202,-0x16bc(%rbp)
    fb9e:	72 e8 f5 
    fba1:	c7 85 48 e9 ff ff 02 	movl   $0xf5e87202,-0x16b8(%rbp)
    fba8:	72 e8 f5 
    fbab:	c7 85 4c e9 ff ff 02 	movl   $0xf5e87202,-0x16b4(%rbp)
    fbb2:	72 e8 f5 
    fbb5:	c7 85 50 e9 ff ff 02 	movl   $0xf5e87202,-0x16b0(%rbp)
    fbbc:	72 e8 f5 
    fbbf:	c7 85 54 e9 ff ff 02 	movl   $0xf5e87202,-0x16ac(%rbp)
    fbc6:	72 e8 f5 
    fbc9:	c7 85 58 e9 ff ff 02 	movl   $0xf5e87202,-0x16a8(%rbp)
    fbd0:	72 e8 f5 
    fbd3:	c7 85 5c e9 ff ff 02 	movl   $0xf5e87202,-0x16a4(%rbp)
    fbda:	72 e8 f5 
    fbdd:	c7 85 60 e9 ff ff 02 	movl   $0xf5e87202,-0x16a0(%rbp)
    fbe4:	72 e8 f5 
    fbe7:	c7 85 64 e9 ff ff 02 	movl   $0xf5e87202,-0x169c(%rbp)
    fbee:	72 e8 f5 
    fbf1:	c7 85 68 e9 ff ff 02 	movl   $0xf5e87202,-0x1698(%rbp)
    fbf8:	72 e8 f5 
    fbfb:	c7 85 6c e9 ff ff 02 	movl   $0xf5e87202,-0x1694(%rbp)
    fc02:	72 e8 f5 
    fc05:	c7 85 70 e9 ff ff 02 	movl   $0xf5e87202,-0x1690(%rbp)
    fc0c:	72 e8 f5 
    fc0f:	c7 85 74 e9 ff ff 02 	movl   $0xf5e87202,-0x168c(%rbp)
    fc16:	72 e8 f5 
    fc19:	48 c7 85 30 e5 ff ff 	movq   $0x0,-0x1ad0(%rbp)
    fc20:	00 00 00 00 
    fc24:	48 8d 05 25 fa 00 00 	lea    0xfa25(%rip),%rax        # 1f650 <g_211>
    fc2b:	48 89 85 70 e4 ff ff 	mov    %rax,-0x1b90(%rbp)
    fc32:	48 8d 05 17 12 01 00 	lea    0x11217(%rip),%rax        # 20e50 <g_269+0x10>
    fc39:	48 89 85 78 e4 ff ff 	mov    %rax,-0x1b88(%rbp)
    fc40:	48 8d 85 78 e4 ff ff 	lea    -0x1b88(%rbp),%rax
    fc47:	48 89 85 80 e4 ff ff 	mov    %rax,-0x1b80(%rbp)
    fc4e:	48 c7 85 38 e5 ff ff 	movq   $0x4,-0x1ac8(%rbp)
    fc55:	04 00 00 00 
    fc59:	48 8d 05 0c d7 00 00 	lea    0xd70c(%rip),%rax        # 1d36c <g_850>
    fc60:	48 89 85 40 e5 ff ff 	mov    %rax,-0x1ac0(%rbp)
    fc67:	48 8d 05 3a 12 01 00 	lea    0x1123a(%rip),%rax        # 20ea8 <g_598+0x28>
    fc6e:	48 89 85 48 e5 ff ff 	mov    %rax,-0x1ab8(%rbp)
    fc75:	c6 85 24 e3 ff ff fc 	movb   $0xfc,-0x1cdc(%rbp)
    fc7c:	48 8d 05 5d ff 00 00 	lea    0xff5d(%rip),%rax        # 1fbe0 <g_1001>
    fc83:	48 89 85 50 e5 ff ff 	mov    %rax,-0x1ab0(%rbp)
    fc8a:	c7 85 b0 e3 ff ff bf 	movl   $0x973b55bf,-0x1c50(%rbp)
    fc91:	55 3b 97 
    fc94:	c7 85 58 e3 ff ff a6 	movl   $0xce5fa2a6,-0x1ca8(%rbp)
    fc9b:	a2 5f ce 
    fc9e:	48 8d 85 60 e4 ff ff 	lea    -0x1ba0(%rbp),%rax
    fca5:	48 89 85 58 e5 ff ff 	mov    %rax,-0x1aa8(%rbp)
    fcac:	c7 85 b4 e3 ff ff 09 	movl   $0x7ea8d409,-0x1c4c(%rbp)
    fcb3:	d4 a8 7e 
    fcb6:	c7 85 b8 e3 ff ff ff 	movl   $0xffffffff,-0x1c48(%rbp)
    fcbd:	ff ff ff 
    fcc0:	48 8d 85 80 ec ff ff 	lea    -0x1380(%rbp),%rax
    fcc7:	48 8d 15 12 95 00 00 	lea    0x9512(%rip),%rdx        # 191e0 <g_2140+0x1174>
    fcce:	b9 50 00 00 00       	mov    $0x50,%ecx
    fcd3:	48 89 c7             	mov    %rax,%rdi
    fcd6:	48 89 d6             	mov    %rdx,%rsi
    fcd9:	f3 48 a5             	rep movsq %ds:(%rsi),%es:(%rdi)
    fcdc:	f3 0f 1e fa          	endbr64 
    fce0:	66 83 bd 1c e3 ff ff 	cmpw   $0x0,-0x1ce4(%rbp)
    fce7:	00 
    fce8:	0f 95 c0             	setne  %al
    fceb:	0f b6 c0             	movzbl %al,%eax
    fcee:	89 c2                	mov    %eax,%edx
    fcf0:	8b 85 34 e3 ff ff    	mov    -0x1ccc(%rbp),%eax
    fcf6:	31 d0                	xor    %edx,%eax
    fcf8:	f7 d0                	not    %eax
    fcfa:	89 85 34 e3 ff ff    	mov    %eax,-0x1ccc(%rbp)
    fd00:	66 c7 05 ff d3 00 00 	movw   $0x0,0xd3ff(%rip)        # 1d108 <g_165>
    fd07:	00 00 
    fd09:	e9 17 1c 00 00       	jmpq   11925 <func_66+0x2261>
    fd0e:	48 8d 05 e7 d5 00 00 	lea    0xd5e7(%rip),%rax        # 1d2fc <g_650>
    fd15:	48 89 85 60 e5 ff ff 	mov    %rax,-0x1aa0(%rbp)
    fd1c:	48 b8 c8 f1 c0 b3 ad 	movabs $0x83bb65adb3c0f1c8,%rax
    fd23:	65 bb 83 
    fd26:	48 89 85 68 e5 ff ff 	mov    %rax,-0x1a98(%rbp)
    fd2d:	48 8d 05 6c d5 00 00 	lea    0xd56c(%rip),%rax        # 1d2a0 <g_301>
    fd34:	48 89 85 88 e4 ff ff 	mov    %rax,-0x1b78(%rbp)
    fd3b:	48 c7 85 70 e5 ff ff 	movq   $0x0,-0x1a90(%rbp)
    fd42:	00 00 00 00 
    fd46:	48 c7 85 78 e5 ff ff 	movq   $0x0,-0x1a88(%rbp)
    fd4d:	00 00 00 00 
    fd51:	48 8d 05 38 d3 00 00 	lea    0xd338(%rip),%rax        # 1d090 <g_123>
    fd58:	48 89 85 80 e5 ff ff 	mov    %rax,-0x1a80(%rbp)
    fd5f:	48 c7 85 90 e4 ff ff 	movq   $0x0,-0x1b70(%rbp)
    fd66:	00 00 00 00 
    fd6a:	48 c7 85 98 e4 ff ff 	movq   $0x0,-0x1b68(%rbp)
    fd71:	00 00 00 00 
    fd75:	48 8d 05 c8 d4 00 00 	lea    0xd4c8(%rip),%rax        # 1d244 <g_284>
    fd7c:	48 89 85 f0 f7 ff ff 	mov    %rax,-0x810(%rbp)
    fd83:	48 8d 05 ba d4 00 00 	lea    0xd4ba(%rip),%rax        # 1d244 <g_284>
    fd8a:	48 89 85 f8 f7 ff ff 	mov    %rax,-0x808(%rbp)
    fd91:	48 8d 05 80 d3 00 00 	lea    0xd380(%rip),%rax        # 1d118 <g_194>
    fd98:	48 89 85 00 f8 ff ff 	mov    %rax,-0x800(%rbp)
    fd9f:	48 8d 05 9e d4 00 00 	lea    0xd49e(%rip),%rax        # 1d244 <g_284>
    fda6:	48 89 85 08 f8 ff ff 	mov    %rax,-0x7f8(%rbp)
    fdad:	48 8d 05 64 d3 00 00 	lea    0xd364(%rip),%rax        # 1d118 <g_194>
    fdb4:	48 89 85 10 f8 ff ff 	mov    %rax,-0x7f0(%rbp)
    fdbb:	48 8d 05 82 d4 00 00 	lea    0xd482(%rip),%rax        # 1d244 <g_284>
    fdc2:	48 89 85 18 f8 ff ff 	mov    %rax,-0x7e8(%rbp)
    fdc9:	48 8d 05 74 d4 00 00 	lea    0xd474(%rip),%rax        # 1d244 <g_284>
    fdd0:	48 89 85 20 f8 ff ff 	mov    %rax,-0x7e0(%rbp)
    fdd7:	48 8d 05 66 d4 00 00 	lea    0xd466(%rip),%rax        # 1d244 <g_284>
    fdde:	48 89 85 28 f8 ff ff 	mov    %rax,-0x7d8(%rbp)
    fde5:	48 8d 05 58 d4 00 00 	lea    0xd458(%rip),%rax        # 1d244 <g_284>
    fdec:	48 89 85 30 f8 ff ff 	mov    %rax,-0x7d0(%rbp)
    fdf3:	48 8d 05 4a d4 00 00 	lea    0xd44a(%rip),%rax        # 1d244 <g_284>
    fdfa:	48 89 85 38 f8 ff ff 	mov    %rax,-0x7c8(%rbp)
    fe01:	48 8d 05 10 d3 00 00 	lea    0xd310(%rip),%rax        # 1d118 <g_194>
    fe08:	48 89 85 40 f8 ff ff 	mov    %rax,-0x7c0(%rbp)
    fe0f:	48 8d 05 2e d4 00 00 	lea    0xd42e(%rip),%rax        # 1d244 <g_284>
    fe16:	48 89 85 48 f8 ff ff 	mov    %rax,-0x7b8(%rbp)
    fe1d:	48 8d 05 f4 d2 00 00 	lea    0xd2f4(%rip),%rax        # 1d118 <g_194>
    fe24:	48 89 85 50 f8 ff ff 	mov    %rax,-0x7b0(%rbp)
    fe2b:	48 8d 05 12 d4 00 00 	lea    0xd412(%rip),%rax        # 1d244 <g_284>
    fe32:	48 89 85 58 f8 ff ff 	mov    %rax,-0x7a8(%rbp)
    fe39:	48 8d 05 d8 d2 00 00 	lea    0xd2d8(%rip),%rax        # 1d118 <g_194>
    fe40:	48 89 85 60 f8 ff ff 	mov    %rax,-0x7a0(%rbp)
    fe47:	48 8d 85 34 e3 ff ff 	lea    -0x1ccc(%rbp),%rax
    fe4e:	48 89 85 68 f8 ff ff 	mov    %rax,-0x798(%rbp)
    fe55:	48 8d 05 bc d2 00 00 	lea    0xd2bc(%rip),%rax        # 1d118 <g_194>
    fe5c:	48 89 85 70 f8 ff ff 	mov    %rax,-0x790(%rbp)
    fe63:	48 8d 85 34 e3 ff ff 	lea    -0x1ccc(%rbp),%rax
    fe6a:	48 89 85 78 f8 ff ff 	mov    %rax,-0x788(%rbp)
    fe71:	48 8d 05 a0 d2 00 00 	lea    0xd2a0(%rip),%rax        # 1d118 <g_194>
    fe78:	48 89 85 80 f8 ff ff 	mov    %rax,-0x780(%rbp)
    fe7f:	48 8d 05 be d3 00 00 	lea    0xd3be(%rip),%rax        # 1d244 <g_284>
    fe86:	48 89 85 88 f8 ff ff 	mov    %rax,-0x778(%rbp)
    fe8d:	48 8d 05 84 d2 00 00 	lea    0xd284(%rip),%rax        # 1d118 <g_194>
    fe94:	48 89 85 90 f8 ff ff 	mov    %rax,-0x770(%rbp)
    fe9b:	48 8d 05 a2 d3 00 00 	lea    0xd3a2(%rip),%rax        # 1d244 <g_284>
    fea2:	48 89 85 98 f8 ff ff 	mov    %rax,-0x768(%rbp)
    fea9:	48 8d 05 68 d2 00 00 	lea    0xd268(%rip),%rax        # 1d118 <g_194>
    feb0:	48 89 85 a0 f8 ff ff 	mov    %rax,-0x760(%rbp)
    feb7:	48 8d 05 86 d3 00 00 	lea    0xd386(%rip),%rax        # 1d244 <g_284>
    febe:	48 89 85 a8 f8 ff ff 	mov    %rax,-0x758(%rbp)
    fec5:	48 8d 05 78 d3 00 00 	lea    0xd378(%rip),%rax        # 1d244 <g_284>
    fecc:	48 89 85 b0 f8 ff ff 	mov    %rax,-0x750(%rbp)
    fed3:	48 8d 05 6a d3 00 00 	lea    0xd36a(%rip),%rax        # 1d244 <g_284>
    feda:	48 89 85 b8 f8 ff ff 	mov    %rax,-0x748(%rbp)
    fee1:	48 8d 05 5c d3 00 00 	lea    0xd35c(%rip),%rax        # 1d244 <g_284>
    fee8:	48 89 85 c0 f8 ff ff 	mov    %rax,-0x740(%rbp)
    feef:	48 8d 05 4e d3 00 00 	lea    0xd34e(%rip),%rax        # 1d244 <g_284>
    fef6:	48 89 85 c8 f8 ff ff 	mov    %rax,-0x738(%rbp)
    fefd:	48 8d 05 14 d2 00 00 	lea    0xd214(%rip),%rax        # 1d118 <g_194>
    ff04:	48 89 85 d0 f8 ff ff 	mov    %rax,-0x730(%rbp)
    ff0b:	48 8d 05 32 d3 00 00 	lea    0xd332(%rip),%rax        # 1d244 <g_284>
    ff12:	48 89 85 d8 f8 ff ff 	mov    %rax,-0x728(%rbp)
    ff19:	48 8d 05 f8 d1 00 00 	lea    0xd1f8(%rip),%rax        # 1d118 <g_194>
    ff20:	48 89 85 e0 f8 ff ff 	mov    %rax,-0x720(%rbp)
    ff27:	48 8d 05 16 d3 00 00 	lea    0xd316(%rip),%rax        # 1d244 <g_284>
    ff2e:	48 89 85 e8 f8 ff ff 	mov    %rax,-0x718(%rbp)
    ff35:	48 8d 85 34 e3 ff ff 	lea    -0x1ccc(%rbp),%rax
    ff3c:	48 89 85 f0 f8 ff ff 	mov    %rax,-0x710(%rbp)
    ff43:	48 8d 85 34 e3 ff ff 	lea    -0x1ccc(%rbp),%rax
    ff4a:	48 89 85 f8 f8 ff ff 	mov    %rax,-0x708(%rbp)
    ff51:	48 8d 05 c0 d1 00 00 	lea    0xd1c0(%rip),%rax        # 1d118 <g_194>
    ff58:	48 89 85 00 f9 ff ff 	mov    %rax,-0x700(%rbp)
    ff5f:	48 8d 85 34 e3 ff ff 	lea    -0x1ccc(%rbp),%rax
    ff66:	48 89 85 08 f9 ff ff 	mov    %rax,-0x6f8(%rbp)
    ff6d:	48 8d 85 34 e3 ff ff 	lea    -0x1ccc(%rbp),%rax
    ff74:	48 89 85 10 f9 ff ff 	mov    %rax,-0x6f0(%rbp)
    ff7b:	48 8d 05 c2 d2 00 00 	lea    0xd2c2(%rip),%rax        # 1d244 <g_284>
    ff82:	48 89 85 18 f9 ff ff 	mov    %rax,-0x6e8(%rbp)
    ff89:	48 8d 05 88 d1 00 00 	lea    0xd188(%rip),%rax        # 1d118 <g_194>
    ff90:	48 89 85 20 f9 ff ff 	mov    %rax,-0x6e0(%rbp)
    ff97:	48 8d 05 a6 d2 00 00 	lea    0xd2a6(%rip),%rax        # 1d244 <g_284>
    ff9e:	48 89 85 28 f9 ff ff 	mov    %rax,-0x6d8(%rbp)
    ffa5:	48 8d 05 98 d2 00 00 	lea    0xd298(%rip),%rax        # 1d244 <g_284>
    ffac:	48 89 85 30 f9 ff ff 	mov    %rax,-0x6d0(%rbp)
    ffb3:	48 8d 85 34 e3 ff ff 	lea    -0x1ccc(%rbp),%rax
    ffba:	48 89 85 38 f9 ff ff 	mov    %rax,-0x6c8(%rbp)
    ffc1:	48 8d 05 50 d1 00 00 	lea    0xd150(%rip),%rax        # 1d118 <g_194>
    ffc8:	48 89 85 40 f9 ff ff 	mov    %rax,-0x6c0(%rbp)
    ffcf:	48 8d 85 34 e3 ff ff 	lea    -0x1ccc(%rbp),%rax
    ffd6:	48 89 85 48 f9 ff ff 	mov    %rax,-0x6b8(%rbp)
    ffdd:	48 8d 05 34 d1 00 00 	lea    0xd134(%rip),%rax        # 1d118 <g_194>
    ffe4:	48 89 85 50 f9 ff ff 	mov    %rax,-0x6b0(%rbp)
    ffeb:	48 8d 85 34 e3 ff ff 	lea    -0x1ccc(%rbp),%rax
    fff2:	48 89 85 58 f9 ff ff 	mov    %rax,-0x6a8(%rbp)
    fff9:	48 8d 05 44 d2 00 00 	lea    0xd244(%rip),%rax        # 1d244 <g_284>
   10000:	48 89 85 60 f9 ff ff 	mov    %rax,-0x6a0(%rbp)
   10007:	48 8d 85 34 e3 ff ff 	lea    -0x1ccc(%rbp),%rax
   1000e:	48 89 85 68 f9 ff ff 	mov    %rax,-0x698(%rbp)
   10015:	48 8d 05 28 d2 00 00 	lea    0xd228(%rip),%rax        # 1d244 <g_284>
   1001c:	48 89 85 70 f9 ff ff 	mov    %rax,-0x690(%rbp)
   10023:	48 8d 85 34 e3 ff ff 	lea    -0x1ccc(%rbp),%rax
   1002a:	48 89 85 78 f9 ff ff 	mov    %rax,-0x688(%rbp)
   10031:	48 8d 05 e0 d0 00 00 	lea    0xd0e0(%rip),%rax        # 1d118 <g_194>
   10038:	48 89 85 80 f9 ff ff 	mov    %rax,-0x680(%rbp)
   1003f:	48 8d 85 34 e3 ff ff 	lea    -0x1ccc(%rbp),%rax
   10046:	48 89 85 88 f9 ff ff 	mov    %rax,-0x678(%rbp)
   1004d:	48 8d 05 c4 d0 00 00 	lea    0xd0c4(%rip),%rax        # 1d118 <g_194>
   10054:	48 89 85 90 f9 ff ff 	mov    %rax,-0x670(%rbp)
   1005b:	48 8d 85 34 e3 ff ff 	lea    -0x1ccc(%rbp),%rax
   10062:	48 89 85 98 f9 ff ff 	mov    %rax,-0x668(%rbp)
   10069:	48 8d 05 a8 d0 00 00 	lea    0xd0a8(%rip),%rax        # 1d118 <g_194>
   10070:	48 89 85 a0 f9 ff ff 	mov    %rax,-0x660(%rbp)
   10077:	48 8d 05 c6 d1 00 00 	lea    0xd1c6(%rip),%rax        # 1d244 <g_284>
   1007e:	48 89 85 a8 f9 ff ff 	mov    %rax,-0x658(%rbp)
   10085:	48 8d 05 8c d0 00 00 	lea    0xd08c(%rip),%rax        # 1d118 <g_194>
   1008c:	48 89 85 b0 f9 ff ff 	mov    %rax,-0x650(%rbp)
   10093:	48 8d 05 aa d1 00 00 	lea    0xd1aa(%rip),%rax        # 1d244 <g_284>
   1009a:	48 89 85 b8 f9 ff ff 	mov    %rax,-0x648(%rbp)
   100a1:	48 8d 05 70 d0 00 00 	lea    0xd070(%rip),%rax        # 1d118 <g_194>
   100a8:	48 89 85 c0 f9 ff ff 	mov    %rax,-0x640(%rbp)
   100af:	48 8d 85 34 e3 ff ff 	lea    -0x1ccc(%rbp),%rax
   100b6:	48 89 85 c8 f9 ff ff 	mov    %rax,-0x638(%rbp)
   100bd:	48 8d 05 54 d0 00 00 	lea    0xd054(%rip),%rax        # 1d118 <g_194>
   100c4:	48 89 85 d0 f9 ff ff 	mov    %rax,-0x630(%rbp)
   100cb:	48 8d 85 34 e3 ff ff 	lea    -0x1ccc(%rbp),%rax
   100d2:	48 89 85 d8 f9 ff ff 	mov    %rax,-0x628(%rbp)
   100d9:	48 8d 05 38 d0 00 00 	lea    0xd038(%rip),%rax        # 1d118 <g_194>
   100e0:	48 89 85 e0 f9 ff ff 	mov    %rax,-0x620(%rbp)
   100e7:	48 8d 85 34 e3 ff ff 	lea    -0x1ccc(%rbp),%rax
   100ee:	48 89 85 e8 f9 ff ff 	mov    %rax,-0x618(%rbp)
   100f5:	48 8d 05 48 d1 00 00 	lea    0xd148(%rip),%rax        # 1d244 <g_284>
   100fc:	48 89 85 f0 f9 ff ff 	mov    %rax,-0x610(%rbp)
   10103:	48 8d 85 34 e3 ff ff 	lea    -0x1ccc(%rbp),%rax
   1010a:	48 89 85 f8 f9 ff ff 	mov    %rax,-0x608(%rbp)
   10111:	48 8d 05 2c d1 00 00 	lea    0xd12c(%rip),%rax        # 1d244 <g_284>
   10118:	48 89 85 00 fa ff ff 	mov    %rax,-0x600(%rbp)
   1011f:	48 8d 85 34 e3 ff ff 	lea    -0x1ccc(%rbp),%rax
   10126:	48 89 85 08 fa ff ff 	mov    %rax,-0x5f8(%rbp)
   1012d:	48 8d 05 e4 cf 00 00 	lea    0xcfe4(%rip),%rax        # 1d118 <g_194>
   10134:	48 89 85 10 fa ff ff 	mov    %rax,-0x5f0(%rbp)
   1013b:	48 8d 85 34 e3 ff ff 	lea    -0x1ccc(%rbp),%rax
   10142:	48 89 85 18 fa ff ff 	mov    %rax,-0x5e8(%rbp)
   10149:	48 8d 05 c8 cf 00 00 	lea    0xcfc8(%rip),%rax        # 1d118 <g_194>
   10150:	48 89 85 20 fa ff ff 	mov    %rax,-0x5e0(%rbp)
   10157:	48 8d 85 34 e3 ff ff 	lea    -0x1ccc(%rbp),%rax
   1015e:	48 89 85 28 fa ff ff 	mov    %rax,-0x5d8(%rbp)
   10165:	48 8d 85 34 e3 ff ff 	lea    -0x1ccc(%rbp),%rax
   1016c:	48 89 85 30 fa ff ff 	mov    %rax,-0x5d0(%rbp)
   10173:	48 8d 05 ca d0 00 00 	lea    0xd0ca(%rip),%rax        # 1d244 <g_284>
   1017a:	48 89 85 38 fa ff ff 	mov    %rax,-0x5c8(%rbp)
   10181:	48 8d 05 90 cf 00 00 	lea    0xcf90(%rip),%rax        # 1d118 <g_194>
   10188:	48 89 85 40 fa ff ff 	mov    %rax,-0x5c0(%rbp)
   1018f:	48 8d 05 ae d0 00 00 	lea    0xd0ae(%rip),%rax        # 1d244 <g_284>
   10196:	48 89 85 48 fa ff ff 	mov    %rax,-0x5b8(%rbp)
   1019d:	48 8d 85 34 e3 ff ff 	lea    -0x1ccc(%rbp),%rax
   101a4:	48 89 85 50 fa ff ff 	mov    %rax,-0x5b0(%rbp)
   101ab:	48 8d 85 34 e3 ff ff 	lea    -0x1ccc(%rbp),%rax
   101b2:	48 89 85 58 fa ff ff 	mov    %rax,-0x5a8(%rbp)
   101b9:	48 8d 05 58 cf 00 00 	lea    0xcf58(%rip),%rax        # 1d118 <g_194>
   101c0:	48 89 85 60 fa ff ff 	mov    %rax,-0x5a0(%rbp)
   101c7:	48 8d 85 34 e3 ff ff 	lea    -0x1ccc(%rbp),%rax
   101ce:	48 89 85 68 fa ff ff 	mov    %rax,-0x598(%rbp)
   101d5:	48 8d 05 68 d0 00 00 	lea    0xd068(%rip),%rax        # 1d244 <g_284>
   101dc:	48 89 85 70 fa ff ff 	mov    %rax,-0x590(%rbp)
   101e3:	48 8d 05 5a d0 00 00 	lea    0xd05a(%rip),%rax        # 1d244 <g_284>
   101ea:	48 89 85 78 fa ff ff 	mov    %rax,-0x588(%rbp)
   101f1:	48 8d 05 20 cf 00 00 	lea    0xcf20(%rip),%rax        # 1d118 <g_194>
   101f8:	48 89 85 80 fa ff ff 	mov    %rax,-0x580(%rbp)
   101ff:	48 8d 05 3e d0 00 00 	lea    0xd03e(%rip),%rax        # 1d244 <g_284>
   10206:	48 89 85 88 fa ff ff 	mov    %rax,-0x578(%rbp)
   1020d:	48 8d 05 04 cf 00 00 	lea    0xcf04(%rip),%rax        # 1d118 <g_194>
   10214:	48 89 85 90 fa ff ff 	mov    %rax,-0x570(%rbp)
   1021b:	48 8d 05 22 d0 00 00 	lea    0xd022(%rip),%rax        # 1d244 <g_284>
   10222:	48 89 85 98 fa ff ff 	mov    %rax,-0x568(%rbp)
   10229:	48 8d 05 14 d0 00 00 	lea    0xd014(%rip),%rax        # 1d244 <g_284>
   10230:	48 89 85 a0 fa ff ff 	mov    %rax,-0x560(%rbp)
   10237:	48 8d 05 06 d0 00 00 	lea    0xd006(%rip),%rax        # 1d244 <g_284>
   1023e:	48 89 85 a8 fa ff ff 	mov    %rax,-0x558(%rbp)
   10245:	48 8d 05 f8 cf 00 00 	lea    0xcff8(%rip),%rax        # 1d244 <g_284>
   1024c:	48 89 85 b0 fa ff ff 	mov    %rax,-0x550(%rbp)
   10253:	48 8d 05 ea cf 00 00 	lea    0xcfea(%rip),%rax        # 1d244 <g_284>
   1025a:	48 89 85 b8 fa ff ff 	mov    %rax,-0x548(%rbp)
   10261:	48 8d 05 b0 ce 00 00 	lea    0xceb0(%rip),%rax        # 1d118 <g_194>
   10268:	48 89 85 c0 fa ff ff 	mov    %rax,-0x540(%rbp)
   1026f:	48 8d 05 ce cf 00 00 	lea    0xcfce(%rip),%rax        # 1d244 <g_284>
   10276:	48 89 85 c8 fa ff ff 	mov    %rax,-0x538(%rbp)
   1027d:	48 8d 05 94 ce 00 00 	lea    0xce94(%rip),%rax        # 1d118 <g_194>
   10284:	48 89 85 d0 fa ff ff 	mov    %rax,-0x530(%rbp)
   1028b:	48 8d 05 b2 cf 00 00 	lea    0xcfb2(%rip),%rax        # 1d244 <g_284>
   10292:	48 89 85 d8 fa ff ff 	mov    %rax,-0x528(%rbp)
   10299:	48 8d 05 78 ce 00 00 	lea    0xce78(%rip),%rax        # 1d118 <g_194>
   102a0:	48 89 85 e0 fa ff ff 	mov    %rax,-0x520(%rbp)
   102a7:	48 8d 85 34 e3 ff ff 	lea    -0x1ccc(%rbp),%rax
   102ae:	48 89 85 e8 fa ff ff 	mov    %rax,-0x518(%rbp)
   102b5:	48 8d 05 5c ce 00 00 	lea    0xce5c(%rip),%rax        # 1d118 <g_194>
   102bc:	48 89 85 f0 fa ff ff 	mov    %rax,-0x510(%rbp)
   102c3:	48 8d 85 34 e3 ff ff 	lea    -0x1ccc(%rbp),%rax
   102ca:	48 89 85 f8 fa ff ff 	mov    %rax,-0x508(%rbp)
   102d1:	48 8d 05 40 ce 00 00 	lea    0xce40(%rip),%rax        # 1d118 <g_194>
   102d8:	48 89 85 00 fb ff ff 	mov    %rax,-0x500(%rbp)
   102df:	48 8d 05 5e cf 00 00 	lea    0xcf5e(%rip),%rax        # 1d244 <g_284>
   102e6:	48 89 85 08 fb ff ff 	mov    %rax,-0x4f8(%rbp)
   102ed:	48 8d 05 24 ce 00 00 	lea    0xce24(%rip),%rax        # 1d118 <g_194>
   102f4:	48 89 85 10 fb ff ff 	mov    %rax,-0x4f0(%rbp)
   102fb:	48 8d 05 42 cf 00 00 	lea    0xcf42(%rip),%rax        # 1d244 <g_284>
   10302:	48 89 85 18 fb ff ff 	mov    %rax,-0x4e8(%rbp)
   10309:	48 8d 05 08 ce 00 00 	lea    0xce08(%rip),%rax        # 1d118 <g_194>
   10310:	48 89 85 20 fb ff ff 	mov    %rax,-0x4e0(%rbp)
   10317:	48 8d 05 26 cf 00 00 	lea    0xcf26(%rip),%rax        # 1d244 <g_284>
   1031e:	48 89 85 28 fb ff ff 	mov    %rax,-0x4d8(%rbp)
   10325:	48 8d 05 18 cf 00 00 	lea    0xcf18(%rip),%rax        # 1d244 <g_284>
   1032c:	48 89 85 30 fb ff ff 	mov    %rax,-0x4d0(%rbp)
   10333:	48 8d 05 0a cf 00 00 	lea    0xcf0a(%rip),%rax        # 1d244 <g_284>
   1033a:	48 89 85 38 fb ff ff 	mov    %rax,-0x4c8(%rbp)
   10341:	48 8d 05 fc ce 00 00 	lea    0xcefc(%rip),%rax        # 1d244 <g_284>
   10348:	48 89 85 40 fb ff ff 	mov    %rax,-0x4c0(%rbp)
   1034f:	48 8d 05 ee ce 00 00 	lea    0xceee(%rip),%rax        # 1d244 <g_284>
   10356:	48 89 85 48 fb ff ff 	mov    %rax,-0x4b8(%rbp)
   1035d:	48 8d 05 b4 cd 00 00 	lea    0xcdb4(%rip),%rax        # 1d118 <g_194>
   10364:	48 89 85 50 fb ff ff 	mov    %rax,-0x4b0(%rbp)
   1036b:	48 8d 05 d2 ce 00 00 	lea    0xced2(%rip),%rax        # 1d244 <g_284>
   10372:	48 89 85 58 fb ff ff 	mov    %rax,-0x4a8(%rbp)
   10379:	48 8d 05 98 cd 00 00 	lea    0xcd98(%rip),%rax        # 1d118 <g_194>
   10380:	48 89 85 60 fb ff ff 	mov    %rax,-0x4a0(%rbp)
   10387:	48 8d 05 b6 ce 00 00 	lea    0xceb6(%rip),%rax        # 1d244 <g_284>
   1038e:	48 89 85 68 fb ff ff 	mov    %rax,-0x498(%rbp)
   10395:	48 8d 85 34 e3 ff ff 	lea    -0x1ccc(%rbp),%rax
   1039c:	48 89 85 70 fb ff ff 	mov    %rax,-0x490(%rbp)
   103a3:	48 8d 85 34 e3 ff ff 	lea    -0x1ccc(%rbp),%rax
   103aa:	48 89 85 78 fb ff ff 	mov    %rax,-0x488(%rbp)
   103b1:	48 8d 05 60 cd 00 00 	lea    0xcd60(%rip),%rax        # 1d118 <g_194>
   103b8:	48 89 85 80 fb ff ff 	mov    %rax,-0x480(%rbp)
   103bf:	48 8d 85 34 e3 ff ff 	lea    -0x1ccc(%rbp),%rax
   103c6:	48 89 85 88 fb ff ff 	mov    %rax,-0x478(%rbp)
   103cd:	48 8d 85 34 e3 ff ff 	lea    -0x1ccc(%rbp),%rax
   103d4:	48 89 85 90 fb ff ff 	mov    %rax,-0x470(%rbp)
   103db:	48 8d 05 62 ce 00 00 	lea    0xce62(%rip),%rax        # 1d244 <g_284>
   103e2:	48 89 85 98 fb ff ff 	mov    %rax,-0x468(%rbp)
   103e9:	48 8d 05 28 cd 00 00 	lea    0xcd28(%rip),%rax        # 1d118 <g_194>
   103f0:	48 89 85 a0 fb ff ff 	mov    %rax,-0x460(%rbp)
   103f7:	48 8d 05 46 ce 00 00 	lea    0xce46(%rip),%rax        # 1d244 <g_284>
   103fe:	48 89 85 a8 fb ff ff 	mov    %rax,-0x458(%rbp)
   10405:	48 8d 05 38 ce 00 00 	lea    0xce38(%rip),%rax        # 1d244 <g_284>
   1040c:	48 89 85 b0 fb ff ff 	mov    %rax,-0x450(%rbp)
   10413:	48 8d 85 34 e3 ff ff 	lea    -0x1ccc(%rbp),%rax
   1041a:	48 89 85 b8 fb ff ff 	mov    %rax,-0x448(%rbp)
   10421:	48 8d 05 f0 cc 00 00 	lea    0xccf0(%rip),%rax        # 1d118 <g_194>
   10428:	48 89 85 c0 fb ff ff 	mov    %rax,-0x440(%rbp)
   1042f:	48 8d 85 34 e3 ff ff 	lea    -0x1ccc(%rbp),%rax
   10436:	48 89 85 c8 fb ff ff 	mov    %rax,-0x438(%rbp)
   1043d:	48 8d 05 d4 cc 00 00 	lea    0xccd4(%rip),%rax        # 1d118 <g_194>
   10444:	48 89 85 d0 fb ff ff 	mov    %rax,-0x430(%rbp)
   1044b:	48 8d 85 34 e3 ff ff 	lea    -0x1ccc(%rbp),%rax
   10452:	48 89 85 d8 fb ff ff 	mov    %rax,-0x428(%rbp)
   10459:	48 8d 05 e4 cd 00 00 	lea    0xcde4(%rip),%rax        # 1d244 <g_284>
   10460:	48 89 85 e0 fb ff ff 	mov    %rax,-0x420(%rbp)
   10467:	48 8d 85 34 e3 ff ff 	lea    -0x1ccc(%rbp),%rax
   1046e:	48 89 85 e8 fb ff ff 	mov    %rax,-0x418(%rbp)
   10475:	48 8d 05 c8 cd 00 00 	lea    0xcdc8(%rip),%rax        # 1d244 <g_284>
   1047c:	48 89 85 f0 fb ff ff 	mov    %rax,-0x410(%rbp)
   10483:	48 8d 85 34 e3 ff ff 	lea    -0x1ccc(%rbp),%rax
   1048a:	48 89 85 f8 fb ff ff 	mov    %rax,-0x408(%rbp)
   10491:	48 8d 05 80 cc 00 00 	lea    0xcc80(%rip),%rax        # 1d118 <g_194>
   10498:	48 89 85 00 fc ff ff 	mov    %rax,-0x400(%rbp)
   1049f:	48 8d 85 34 e3 ff ff 	lea    -0x1ccc(%rbp),%rax
   104a6:	48 89 85 08 fc ff ff 	mov    %rax,-0x3f8(%rbp)
   104ad:	48 8d 05 64 cc 00 00 	lea    0xcc64(%rip),%rax        # 1d118 <g_194>
   104b4:	48 89 85 10 fc ff ff 	mov    %rax,-0x3f0(%rbp)
   104bb:	48 8d 85 34 e3 ff ff 	lea    -0x1ccc(%rbp),%rax
   104c2:	48 89 85 18 fc ff ff 	mov    %rax,-0x3e8(%rbp)
   104c9:	48 8d 05 48 cc 00 00 	lea    0xcc48(%rip),%rax        # 1d118 <g_194>
   104d0:	48 89 85 20 fc ff ff 	mov    %rax,-0x3e0(%rbp)
   104d7:	48 8d 05 66 cd 00 00 	lea    0xcd66(%rip),%rax        # 1d244 <g_284>
   104de:	48 89 85 28 fc ff ff 	mov    %rax,-0x3d8(%rbp)
   104e5:	48 8d 05 2c cc 00 00 	lea    0xcc2c(%rip),%rax        # 1d118 <g_194>
   104ec:	48 89 85 30 fc ff ff 	mov    %rax,-0x3d0(%rbp)
   104f3:	48 8d 05 4a cd 00 00 	lea    0xcd4a(%rip),%rax        # 1d244 <g_284>
   104fa:	48 89 85 38 fc ff ff 	mov    %rax,-0x3c8(%rbp)
   10501:	48 8d 05 10 cc 00 00 	lea    0xcc10(%rip),%rax        # 1d118 <g_194>
   10508:	48 89 85 40 fc ff ff 	mov    %rax,-0x3c0(%rbp)
   1050f:	48 8d 85 34 e3 ff ff 	lea    -0x1ccc(%rbp),%rax
   10516:	48 89 85 48 fc ff ff 	mov    %rax,-0x3b8(%rbp)
   1051d:	48 8d 05 f4 cb 00 00 	lea    0xcbf4(%rip),%rax        # 1d118 <g_194>
   10524:	48 89 85 50 fc ff ff 	mov    %rax,-0x3b0(%rbp)
   1052b:	48 8d 85 34 e3 ff ff 	lea    -0x1ccc(%rbp),%rax
   10532:	48 89 85 58 fc ff ff 	mov    %rax,-0x3a8(%rbp)
   10539:	48 8d 05 d8 cb 00 00 	lea    0xcbd8(%rip),%rax        # 1d118 <g_194>
   10540:	48 89 85 60 fc ff ff 	mov    %rax,-0x3a0(%rbp)
   10547:	48 8d 85 34 e3 ff ff 	lea    -0x1ccc(%rbp),%rax
   1054e:	48 89 85 68 fc ff ff 	mov    %rax,-0x398(%rbp)
   10555:	48 8d 05 e8 cc 00 00 	lea    0xcce8(%rip),%rax        # 1d244 <g_284>
   1055c:	48 89 85 70 fc ff ff 	mov    %rax,-0x390(%rbp)
   10563:	48 8d 85 34 e3 ff ff 	lea    -0x1ccc(%rbp),%rax
   1056a:	48 89 85 78 fc ff ff 	mov    %rax,-0x388(%rbp)
   10571:	48 8d 05 cc cc 00 00 	lea    0xcccc(%rip),%rax        # 1d244 <g_284>
   10578:	48 89 85 80 fc ff ff 	mov    %rax,-0x380(%rbp)
   1057f:	48 8d 85 34 e3 ff ff 	lea    -0x1ccc(%rbp),%rax
   10586:	48 89 85 88 fc ff ff 	mov    %rax,-0x378(%rbp)
   1058d:	48 8d 05 84 cb 00 00 	lea    0xcb84(%rip),%rax        # 1d118 <g_194>
   10594:	48 89 85 90 fc ff ff 	mov    %rax,-0x370(%rbp)
   1059b:	48 8d 85 34 e3 ff ff 	lea    -0x1ccc(%rbp),%rax
   105a2:	48 89 85 98 fc ff ff 	mov    %rax,-0x368(%rbp)
   105a9:	48 8d 05 68 cb 00 00 	lea    0xcb68(%rip),%rax        # 1d118 <g_194>
   105b0:	48 89 85 a0 fc ff ff 	mov    %rax,-0x360(%rbp)
   105b7:	48 8d 85 34 e3 ff ff 	lea    -0x1ccc(%rbp),%rax
   105be:	48 89 85 a8 fc ff ff 	mov    %rax,-0x358(%rbp)
   105c5:	48 8d 85 34 e3 ff ff 	lea    -0x1ccc(%rbp),%rax
   105cc:	48 89 85 b0 fc ff ff 	mov    %rax,-0x350(%rbp)
   105d3:	48 8d 05 6a cc 00 00 	lea    0xcc6a(%rip),%rax        # 1d244 <g_284>
   105da:	48 89 85 b8 fc ff ff 	mov    %rax,-0x348(%rbp)
   105e1:	48 8d 05 30 cb 00 00 	lea    0xcb30(%rip),%rax        # 1d118 <g_194>
   105e8:	48 89 85 c0 fc ff ff 	mov    %rax,-0x340(%rbp)
   105ef:	48 8d 05 4e cc 00 00 	lea    0xcc4e(%rip),%rax        # 1d244 <g_284>
   105f6:	48 89 85 c8 fc ff ff 	mov    %rax,-0x338(%rbp)
   105fd:	48 8d 85 34 e3 ff ff 	lea    -0x1ccc(%rbp),%rax
   10604:	48 89 85 d0 fc ff ff 	mov    %rax,-0x330(%rbp)
   1060b:	48 8d 85 34 e3 ff ff 	lea    -0x1ccc(%rbp),%rax
   10612:	48 89 85 d8 fc ff ff 	mov    %rax,-0x328(%rbp)
   10619:	48 8d 05 f8 ca 00 00 	lea    0xcaf8(%rip),%rax        # 1d118 <g_194>
   10620:	48 89 85 e0 fc ff ff 	mov    %rax,-0x320(%rbp)
   10627:	48 8d 85 34 e3 ff ff 	lea    -0x1ccc(%rbp),%rax
   1062e:	48 89 85 e8 fc ff ff 	mov    %rax,-0x318(%rbp)
   10635:	48 8d 05 08 cc 00 00 	lea    0xcc08(%rip),%rax        # 1d244 <g_284>
   1063c:	48 89 85 f0 fc ff ff 	mov    %rax,-0x310(%rbp)
   10643:	48 8d 05 fa cb 00 00 	lea    0xcbfa(%rip),%rax        # 1d244 <g_284>
   1064a:	48 89 85 f8 fc ff ff 	mov    %rax,-0x308(%rbp)
   10651:	48 8d 05 c0 ca 00 00 	lea    0xcac0(%rip),%rax        # 1d118 <g_194>
   10658:	48 89 85 00 fd ff ff 	mov    %rax,-0x300(%rbp)
   1065f:	48 8d 05 de cb 00 00 	lea    0xcbde(%rip),%rax        # 1d244 <g_284>
   10666:	48 89 85 08 fd ff ff 	mov    %rax,-0x2f8(%rbp)
   1066d:	48 8d 05 a4 ca 00 00 	lea    0xcaa4(%rip),%rax        # 1d118 <g_194>
   10674:	48 89 85 10 fd ff ff 	mov    %rax,-0x2f0(%rbp)
   1067b:	48 8d 05 c2 cb 00 00 	lea    0xcbc2(%rip),%rax        # 1d244 <g_284>
   10682:	48 89 85 18 fd ff ff 	mov    %rax,-0x2e8(%rbp)
   10689:	48 8d 05 b4 cb 00 00 	lea    0xcbb4(%rip),%rax        # 1d244 <g_284>
   10690:	48 89 85 20 fd ff ff 	mov    %rax,-0x2e0(%rbp)
   10697:	48 8d 05 a6 cb 00 00 	lea    0xcba6(%rip),%rax        # 1d244 <g_284>
   1069e:	48 89 85 28 fd ff ff 	mov    %rax,-0x2d8(%rbp)
   106a5:	48 8d 05 98 cb 00 00 	lea    0xcb98(%rip),%rax        # 1d244 <g_284>
   106ac:	48 89 85 30 fd ff ff 	mov    %rax,-0x2d0(%rbp)
   106b3:	48 8d 05 8a cb 00 00 	lea    0xcb8a(%rip),%rax        # 1d244 <g_284>
   106ba:	48 89 85 38 fd ff ff 	mov    %rax,-0x2c8(%rbp)
   106c1:	48 8d 05 50 ca 00 00 	lea    0xca50(%rip),%rax        # 1d118 <g_194>
   106c8:	48 89 85 40 fd ff ff 	mov    %rax,-0x2c0(%rbp)
   106cf:	48 8d 05 6e cb 00 00 	lea    0xcb6e(%rip),%rax        # 1d244 <g_284>
   106d6:	48 89 85 48 fd ff ff 	mov    %rax,-0x2b8(%rbp)
   106dd:	48 8d 05 34 ca 00 00 	lea    0xca34(%rip),%rax        # 1d118 <g_194>
   106e4:	48 89 85 50 fd ff ff 	mov    %rax,-0x2b0(%rbp)
   106eb:	48 8d 05 52 cb 00 00 	lea    0xcb52(%rip),%rax        # 1d244 <g_284>
   106f2:	48 89 85 58 fd ff ff 	mov    %rax,-0x2a8(%rbp)
   106f9:	48 8d 05 18 ca 00 00 	lea    0xca18(%rip),%rax        # 1d118 <g_194>
   10700:	48 89 85 60 fd ff ff 	mov    %rax,-0x2a0(%rbp)
   10707:	48 8d 85 34 e3 ff ff 	lea    -0x1ccc(%rbp),%rax
   1070e:	48 89 85 68 fd ff ff 	mov    %rax,-0x298(%rbp)
   10715:	48 8d 05 fc c9 00 00 	lea    0xc9fc(%rip),%rax        # 1d118 <g_194>
   1071c:	48 89 85 70 fd ff ff 	mov    %rax,-0x290(%rbp)
   10723:	48 8d 85 34 e3 ff ff 	lea    -0x1ccc(%rbp),%rax
   1072a:	48 89 85 78 fd ff ff 	mov    %rax,-0x288(%rbp)
   10731:	48 8d 05 e0 c9 00 00 	lea    0xc9e0(%rip),%rax        # 1d118 <g_194>
   10738:	48 89 85 80 fd ff ff 	mov    %rax,-0x280(%rbp)
   1073f:	48 8d 05 fe ca 00 00 	lea    0xcafe(%rip),%rax        # 1d244 <g_284>
   10746:	48 89 85 88 fd ff ff 	mov    %rax,-0x278(%rbp)
   1074d:	48 8d 05 c4 c9 00 00 	lea    0xc9c4(%rip),%rax        # 1d118 <g_194>
   10754:	48 89 85 90 fd ff ff 	mov    %rax,-0x270(%rbp)
   1075b:	48 8d 05 e2 ca 00 00 	lea    0xcae2(%rip),%rax        # 1d244 <g_284>
   10762:	48 89 85 98 fd ff ff 	mov    %rax,-0x268(%rbp)
   10769:	48 8d 05 a8 c9 00 00 	lea    0xc9a8(%rip),%rax        # 1d118 <g_194>
   10770:	48 89 85 a0 fd ff ff 	mov    %rax,-0x260(%rbp)
   10777:	48 8d 05 c6 ca 00 00 	lea    0xcac6(%rip),%rax        # 1d244 <g_284>
   1077e:	48 89 85 a8 fd ff ff 	mov    %rax,-0x258(%rbp)
   10785:	48 8d 05 b8 ca 00 00 	lea    0xcab8(%rip),%rax        # 1d244 <g_284>
   1078c:	48 89 85 b0 fd ff ff 	mov    %rax,-0x250(%rbp)
   10793:	48 8d 05 aa ca 00 00 	lea    0xcaaa(%rip),%rax        # 1d244 <g_284>
   1079a:	48 89 85 b8 fd ff ff 	mov    %rax,-0x248(%rbp)
   107a1:	48 8d 05 9c ca 00 00 	lea    0xca9c(%rip),%rax        # 1d244 <g_284>
   107a8:	48 89 85 c0 fd ff ff 	mov    %rax,-0x240(%rbp)
   107af:	48 8d 05 8e ca 00 00 	lea    0xca8e(%rip),%rax        # 1d244 <g_284>
   107b6:	48 89 85 c8 fd ff ff 	mov    %rax,-0x238(%rbp)
   107bd:	48 8d 05 54 c9 00 00 	lea    0xc954(%rip),%rax        # 1d118 <g_194>
   107c4:	48 89 85 d0 fd ff ff 	mov    %rax,-0x230(%rbp)
   107cb:	48 8d 05 72 ca 00 00 	lea    0xca72(%rip),%rax        # 1d244 <g_284>
   107d2:	48 89 85 d8 fd ff ff 	mov    %rax,-0x228(%rbp)
   107d9:	48 8d 05 38 c9 00 00 	lea    0xc938(%rip),%rax        # 1d118 <g_194>
   107e0:	48 89 85 e0 fd ff ff 	mov    %rax,-0x220(%rbp)
   107e7:	48 8d 05 56 ca 00 00 	lea    0xca56(%rip),%rax        # 1d244 <g_284>
   107ee:	48 89 85 e8 fd ff ff 	mov    %rax,-0x218(%rbp)
   107f5:	48 8d 85 34 e3 ff ff 	lea    -0x1ccc(%rbp),%rax
   107fc:	48 89 85 f0 fd ff ff 	mov    %rax,-0x210(%rbp)
   10803:	48 8d 85 34 e3 ff ff 	lea    -0x1ccc(%rbp),%rax
   1080a:	48 89 85 f8 fd ff ff 	mov    %rax,-0x208(%rbp)
   10811:	48 8d 05 00 c9 00 00 	lea    0xc900(%rip),%rax        # 1d118 <g_194>
   10818:	48 89 85 00 fe ff ff 	mov    %rax,-0x200(%rbp)
   1081f:	48 8d 85 34 e3 ff ff 	lea    -0x1ccc(%rbp),%rax
   10826:	48 89 85 08 fe ff ff 	mov    %rax,-0x1f8(%rbp)
   1082d:	48 8d 85 34 e3 ff ff 	lea    -0x1ccc(%rbp),%rax
   10834:	48 89 85 10 fe ff ff 	mov    %rax,-0x1f0(%rbp)
   1083b:	48 8d 05 02 ca 00 00 	lea    0xca02(%rip),%rax        # 1d244 <g_284>
   10842:	48 89 85 18 fe ff ff 	mov    %rax,-0x1e8(%rbp)
   10849:	48 8d 05 c8 c8 00 00 	lea    0xc8c8(%rip),%rax        # 1d118 <g_194>
   10850:	48 89 85 20 fe ff ff 	mov    %rax,-0x1e0(%rbp)
   10857:	48 8d 05 e6 c9 00 00 	lea    0xc9e6(%rip),%rax        # 1d244 <g_284>
   1085e:	48 89 85 28 fe ff ff 	mov    %rax,-0x1d8(%rbp)
   10865:	48 8d 05 d8 c9 00 00 	lea    0xc9d8(%rip),%rax        # 1d244 <g_284>
   1086c:	48 89 85 30 fe ff ff 	mov    %rax,-0x1d0(%rbp)
   10873:	48 8d 85 34 e3 ff ff 	lea    -0x1ccc(%rbp),%rax
   1087a:	48 89 85 38 fe ff ff 	mov    %rax,-0x1c8(%rbp)
   10881:	48 8d 05 90 c8 00 00 	lea    0xc890(%rip),%rax        # 1d118 <g_194>
   10888:	48 89 85 40 fe ff ff 	mov    %rax,-0x1c0(%rbp)
   1088f:	48 8d 85 34 e3 ff ff 	lea    -0x1ccc(%rbp),%rax
   10896:	48 89 85 48 fe ff ff 	mov    %rax,-0x1b8(%rbp)
   1089d:	48 8d 05 74 c8 00 00 	lea    0xc874(%rip),%rax        # 1d118 <g_194>
   108a4:	48 89 85 50 fe ff ff 	mov    %rax,-0x1b0(%rbp)
   108ab:	48 8d 85 34 e3 ff ff 	lea    -0x1ccc(%rbp),%rax
   108b2:	48 89 85 58 fe ff ff 	mov    %rax,-0x1a8(%rbp)
   108b9:	48 8d 05 84 c9 00 00 	lea    0xc984(%rip),%rax        # 1d244 <g_284>
   108c0:	48 89 85 60 fe ff ff 	mov    %rax,-0x1a0(%rbp)
   108c7:	48 8d 85 34 e3 ff ff 	lea    -0x1ccc(%rbp),%rax
   108ce:	48 89 85 68 fe ff ff 	mov    %rax,-0x198(%rbp)
   108d5:	48 8d 05 68 c9 00 00 	lea    0xc968(%rip),%rax        # 1d244 <g_284>
   108dc:	48 89 85 70 fe ff ff 	mov    %rax,-0x190(%rbp)
   108e3:	48 8d 85 34 e3 ff ff 	lea    -0x1ccc(%rbp),%rax
   108ea:	48 89 85 78 fe ff ff 	mov    %rax,-0x188(%rbp)
   108f1:	48 8d 05 20 c8 00 00 	lea    0xc820(%rip),%rax        # 1d118 <g_194>
   108f8:	48 89 85 80 fe ff ff 	mov    %rax,-0x180(%rbp)
   108ff:	48 8d 85 34 e3 ff ff 	lea    -0x1ccc(%rbp),%rax
   10906:	48 89 85 88 fe ff ff 	mov    %rax,-0x178(%rbp)
   1090d:	48 8d 05 04 c8 00 00 	lea    0xc804(%rip),%rax        # 1d118 <g_194>
   10914:	48 89 85 90 fe ff ff 	mov    %rax,-0x170(%rbp)
   1091b:	48 8d 85 34 e3 ff ff 	lea    -0x1ccc(%rbp),%rax
   10922:	48 89 85 98 fe ff ff 	mov    %rax,-0x168(%rbp)
   10929:	48 8d 05 e8 c7 00 00 	lea    0xc7e8(%rip),%rax        # 1d118 <g_194>
   10930:	48 89 85 a0 fe ff ff 	mov    %rax,-0x160(%rbp)
   10937:	48 8d 05 06 c9 00 00 	lea    0xc906(%rip),%rax        # 1d244 <g_284>
   1093e:	48 89 85 a8 fe ff ff 	mov    %rax,-0x158(%rbp)
   10945:	48 8d 05 cc c7 00 00 	lea    0xc7cc(%rip),%rax        # 1d118 <g_194>
   1094c:	48 89 85 b0 fe ff ff 	mov    %rax,-0x150(%rbp)
   10953:	48 8d 05 ea c8 00 00 	lea    0xc8ea(%rip),%rax        # 1d244 <g_284>
   1095a:	48 89 85 b8 fe ff ff 	mov    %rax,-0x148(%rbp)
   10961:	48 8d 05 b0 c7 00 00 	lea    0xc7b0(%rip),%rax        # 1d118 <g_194>
   10968:	48 89 85 c0 fe ff ff 	mov    %rax,-0x140(%rbp)
   1096f:	48 8d 85 34 e3 ff ff 	lea    -0x1ccc(%rbp),%rax
   10976:	48 89 85 c8 fe ff ff 	mov    %rax,-0x138(%rbp)
   1097d:	48 8d 05 94 c7 00 00 	lea    0xc794(%rip),%rax        # 1d118 <g_194>
   10984:	48 89 85 d0 fe ff ff 	mov    %rax,-0x130(%rbp)
   1098b:	48 8d 85 34 e3 ff ff 	lea    -0x1ccc(%rbp),%rax
   10992:	48 89 85 d8 fe ff ff 	mov    %rax,-0x128(%rbp)
   10999:	48 8d 05 78 c7 00 00 	lea    0xc778(%rip),%rax        # 1d118 <g_194>
   109a0:	48 89 85 e0 fe ff ff 	mov    %rax,-0x120(%rbp)
   109a7:	48 8d 85 34 e3 ff ff 	lea    -0x1ccc(%rbp),%rax
   109ae:	48 89 85 e8 fe ff ff 	mov    %rax,-0x118(%rbp)
   109b5:	48 8d 05 88 c8 00 00 	lea    0xc888(%rip),%rax        # 1d244 <g_284>
   109bc:	48 89 85 f0 fe ff ff 	mov    %rax,-0x110(%rbp)
   109c3:	48 8d 85 34 e3 ff ff 	lea    -0x1ccc(%rbp),%rax
   109ca:	48 89 85 f8 fe ff ff 	mov    %rax,-0x108(%rbp)
   109d1:	48 8d 05 6c c8 00 00 	lea    0xc86c(%rip),%rax        # 1d244 <g_284>
   109d8:	48 89 85 00 ff ff ff 	mov    %rax,-0x100(%rbp)
   109df:	48 8d 85 34 e3 ff ff 	lea    -0x1ccc(%rbp),%rax
   109e6:	48 89 85 08 ff ff ff 	mov    %rax,-0xf8(%rbp)
   109ed:	48 8d 05 24 c7 00 00 	lea    0xc724(%rip),%rax        # 1d118 <g_194>
   109f4:	48 89 85 10 ff ff ff 	mov    %rax,-0xf0(%rbp)
   109fb:	48 8d 85 34 e3 ff ff 	lea    -0x1ccc(%rbp),%rax
   10a02:	48 89 85 18 ff ff ff 	mov    %rax,-0xe8(%rbp)
   10a09:	48 8d 05 08 c7 00 00 	lea    0xc708(%rip),%rax        # 1d118 <g_194>
   10a10:	48 89 85 20 ff ff ff 	mov    %rax,-0xe0(%rbp)
   10a17:	48 8d 85 34 e3 ff ff 	lea    -0x1ccc(%rbp),%rax
   10a1e:	48 89 85 28 ff ff ff 	mov    %rax,-0xd8(%rbp)
   10a25:	48 8d 85 34 e3 ff ff 	lea    -0x1ccc(%rbp),%rax
   10a2c:	48 89 85 30 ff ff ff 	mov    %rax,-0xd0(%rbp)
   10a33:	48 8d 05 0a c8 00 00 	lea    0xc80a(%rip),%rax        # 1d244 <g_284>
   10a3a:	48 89 85 38 ff ff ff 	mov    %rax,-0xc8(%rbp)
   10a41:	48 8d 05 d0 c6 00 00 	lea    0xc6d0(%rip),%rax        # 1d118 <g_194>
   10a48:	48 89 85 40 ff ff ff 	mov    %rax,-0xc0(%rbp)
   10a4f:	48 8d 05 ee c7 00 00 	lea    0xc7ee(%rip),%rax        # 1d244 <g_284>
   10a56:	48 89 85 48 ff ff ff 	mov    %rax,-0xb8(%rbp)
   10a5d:	48 8d 85 34 e3 ff ff 	lea    -0x1ccc(%rbp),%rax
   10a64:	48 89 85 50 ff ff ff 	mov    %rax,-0xb0(%rbp)
   10a6b:	48 8d 85 34 e3 ff ff 	lea    -0x1ccc(%rbp),%rax
   10a72:	48 89 85 58 ff ff ff 	mov    %rax,-0xa8(%rbp)
   10a79:	48 8d 05 98 c6 00 00 	lea    0xc698(%rip),%rax        # 1d118 <g_194>
   10a80:	48 89 85 60 ff ff ff 	mov    %rax,-0xa0(%rbp)
   10a87:	48 8d 85 34 e3 ff ff 	lea    -0x1ccc(%rbp),%rax
   10a8e:	48 89 85 68 ff ff ff 	mov    %rax,-0x98(%rbp)
   10a95:	48 8d 05 a8 c7 00 00 	lea    0xc7a8(%rip),%rax        # 1d244 <g_284>
   10a9c:	48 89 85 70 ff ff ff 	mov    %rax,-0x90(%rbp)
   10aa3:	48 8d 05 9a c7 00 00 	lea    0xc79a(%rip),%rax        # 1d244 <g_284>
   10aaa:	48 89 85 78 ff ff ff 	mov    %rax,-0x88(%rbp)
   10ab1:	48 8d 05 60 c6 00 00 	lea    0xc660(%rip),%rax        # 1d118 <g_194>
   10ab8:	48 89 45 80          	mov    %rax,-0x80(%rbp)
   10abc:	48 8d 05 81 c7 00 00 	lea    0xc781(%rip),%rax        # 1d244 <g_284>
   10ac3:	48 89 45 88          	mov    %rax,-0x78(%rbp)
   10ac7:	48 8d 05 4a c6 00 00 	lea    0xc64a(%rip),%rax        # 1d118 <g_194>
   10ace:	48 89 45 90          	mov    %rax,-0x70(%rbp)
   10ad2:	48 8d 05 6b c7 00 00 	lea    0xc76b(%rip),%rax        # 1d244 <g_284>
   10ad9:	48 89 45 98          	mov    %rax,-0x68(%rbp)
   10add:	48 8d 05 60 c7 00 00 	lea    0xc760(%rip),%rax        # 1d244 <g_284>
   10ae4:	48 89 45 a0          	mov    %rax,-0x60(%rbp)
   10ae8:	48 8d 05 55 c7 00 00 	lea    0xc755(%rip),%rax        # 1d244 <g_284>
   10aef:	48 89 45 a8          	mov    %rax,-0x58(%rbp)
   10af3:	48 8d 05 4a c7 00 00 	lea    0xc74a(%rip),%rax        # 1d244 <g_284>
   10afa:	48 89 45 b0          	mov    %rax,-0x50(%rbp)
   10afe:	48 8d 05 3f c7 00 00 	lea    0xc73f(%rip),%rax        # 1d244 <g_284>
   10b05:	48 89 45 b8          	mov    %rax,-0x48(%rbp)
   10b09:	48 b8 02 20 7c 25 0d 	movabs $0xa8475e0d257c2002,%rax
   10b10:	5e 47 a8 
   10b13:	48 89 85 60 eb ff ff 	mov    %rax,-0x14a0(%rbp)
   10b1a:	48 c7 85 68 eb ff ff 	movq   $0x0,-0x1498(%rbp)
   10b21:	00 00 00 00 
   10b25:	48 bb ec f5 10 76 98 	movabs $0x7ef8d0987610f5ec,%rbx
   10b2c:	d0 f8 7e 
   10b2f:	48 89 9d 70 eb ff ff 	mov    %rbx,-0x1490(%rbp)
   10b36:	48 c7 85 78 eb ff ff 	movq   $0x0,-0x1488(%rbp)
   10b3d:	00 00 00 00 
   10b41:	48 89 85 80 eb ff ff 	mov    %rax,-0x1480(%rbp)
   10b48:	48 c7 85 88 eb ff ff 	movq   $0x0,-0x1478(%rbp)
   10b4f:	00 00 00 00 
   10b53:	48 89 9d 90 eb ff ff 	mov    %rbx,-0x1470(%rbp)
   10b5a:	48 c7 85 98 eb ff ff 	movq   $0x0,-0x1468(%rbp)
   10b61:	00 00 00 00 
   10b65:	48 89 85 a0 eb ff ff 	mov    %rax,-0x1460(%rbp)
   10b6c:	48 c7 85 a8 eb ff ff 	movq   $0x0,-0x1458(%rbp)
   10b73:	00 00 00 00 
   10b77:	48 89 9d b0 eb ff ff 	mov    %rbx,-0x1450(%rbp)
   10b7e:	48 c7 85 b8 eb ff ff 	movq   $0x0,-0x1448(%rbp)
   10b85:	00 00 00 00 
   10b89:	48 89 85 c0 eb ff ff 	mov    %rax,-0x1440(%rbp)
   10b90:	48 c7 85 c8 eb ff ff 	movq   $0x0,-0x1438(%rbp)
   10b97:	00 00 00 00 
   10b9b:	48 89 9d d0 eb ff ff 	mov    %rbx,-0x1430(%rbp)
   10ba2:	48 c7 85 d8 eb ff ff 	movq   $0x0,-0x1428(%rbp)
   10ba9:	00 00 00 00 
   10bad:	48 89 85 e0 eb ff ff 	mov    %rax,-0x1420(%rbp)
   10bb4:	48 c7 85 e8 eb ff ff 	movq   $0x0,-0x1418(%rbp)
   10bbb:	00 00 00 00 
   10bbf:	66 c7 85 50 e7 ff ff 	movw   $0xffff,-0x18b0(%rbp)
   10bc6:	ff ff 
   10bc8:	66 c7 85 52 e7 ff ff 	movw   $0xffff,-0x18ae(%rbp)
   10bcf:	ff ff 
   10bd1:	66 c7 85 54 e7 ff ff 	movw   $0x0,-0x18ac(%rbp)
   10bd8:	00 00 
   10bda:	66 c7 85 56 e7 ff ff 	movw   $0xffff,-0x18aa(%rbp)
   10be1:	ff ff 
   10be3:	66 c7 85 58 e7 ff ff 	movw   $0xffff,-0x18a8(%rbp)
   10bea:	ff ff 
   10bec:	66 c7 85 5a e7 ff ff 	movw   $0x1a01,-0x18a6(%rbp)
   10bf3:	01 1a 
   10bf5:	66 c7 85 5c e7 ff ff 	movw   $0xffff,-0x18a4(%rbp)
   10bfc:	ff ff 
   10bfe:	66 c7 85 5e e7 ff ff 	movw   $0x1a01,-0x18a2(%rbp)
   10c05:	01 1a 
   10c07:	66 c7 85 60 e7 ff ff 	movw   $0x1a01,-0x18a0(%rbp)
   10c0e:	01 1a 
   10c10:	66 c7 85 62 e7 ff ff 	movw   $0xffff,-0x189e(%rbp)
   10c17:	ff ff 
   10c19:	66 c7 85 64 e7 ff ff 	movw   $0xffff,-0x189c(%rbp)
   10c20:	ff ff 
   10c22:	66 c7 85 66 e7 ff ff 	movw   $0x1a01,-0x189a(%rbp)
   10c29:	01 1a 
   10c2b:	66 c7 85 68 e7 ff ff 	movw   $0x1a01,-0x1898(%rbp)
   10c32:	01 1a 
   10c34:	66 c7 85 6a e7 ff ff 	movw   $0xffff,-0x1896(%rbp)
   10c3b:	ff ff 
   10c3d:	66 c7 85 6c e7 ff ff 	movw   $0x1a01,-0x1894(%rbp)
   10c44:	01 1a 
   10c46:	48 c7 85 08 e5 ff ff 	movq   $0x0,-0x1af8(%rbp)
   10c4d:	00 00 00 00 
   10c51:	48 8d 85 60 e4 ff ff 	lea    -0x1ba0(%rbp),%rax
   10c58:	48 89 85 10 e5 ff ff 	mov    %rax,-0x1af0(%rbp)
   10c5f:	c6 85 22 e3 ff ff d0 	movb   $0xd0,-0x1cde(%rbp)
   10c66:	c7 85 a4 e3 ff ff 71 	movl   $0x4e58ab71,-0x1c5c(%rbp)
   10c6d:	ab 58 4e 
   10c70:	48 8d 05 79 c4 00 00 	lea    0xc479(%rip),%rax        # 1d0f0 <g_150>
   10c77:	48 89 85 a0 e4 ff ff 	mov    %rax,-0x1b60(%rbp)
   10c7e:	c7 85 a8 e3 ff ff 01 	movl   $0x1,-0x1c58(%rbp)
   10c85:	00 00 00 
   10c88:	48 8d 85 54 e3 ff ff 	lea    -0x1cac(%rbp),%rax
   10c8f:	48 89 85 18 e5 ff ff 	mov    %rax,-0x1ae8(%rbp)
   10c96:	48 8d 85 78 e4 ff ff 	lea    -0x1b88(%rbp),%rax
   10c9d:	48 89 85 20 e5 ff ff 	mov    %rax,-0x1ae0(%rbp)
   10ca4:	c6 85 23 e3 ff ff de 	movb   $0xde,-0x1cdd(%rbp)
   10cab:	48 8d 05 6e c4 00 00 	lea    0xc46e(%rip),%rax        # 1d120 <g_207>
   10cb2:	48 89 85 28 e5 ff ff 	mov    %rax,-0x1ad8(%rbp)
   10cb9:	48 8d 85 50 f2 ff ff 	lea    -0xdb0(%rbp),%rax
   10cc0:	48 8d 15 d9 d5 00 00 	lea    0xd5d9(%rip),%rdx        # 1e2a0 <g_2124+0xe54>
   10cc7:	b9 60 00 00 00       	mov    $0x60,%ecx
   10ccc:	48 89 c7             	mov    %rax,%rdi
   10ccf:	48 89 d6             	mov    %rdx,%rsi
   10cd2:	f3 48 a5             	rep movsq %ds:(%rsi),%es:(%rdi)
   10cd5:	66 c7 85 2a e3 ff ff 	movw   $0x0,-0x1cd6(%rbp)
   10cdc:	00 00 
   10cde:	c7 85 ac e3 ff ff 01 	movl   $0x1,-0x1c54(%rbp)
   10ce5:	00 00 00 
   10ce8:	c7 85 74 e3 ff ff 9a 	movl   $0x735ad69a,-0x1c8c(%rbp)
   10cef:	d6 5a 73 
   10cf2:	66 c7 85 2c e3 ff ff 	movw   $0xd730,-0x1cd4(%rbp)
   10cf9:	30 d7 
   10cfb:	c7 85 5c e3 ff ff 00 	movl   $0x0,-0x1ca4(%rbp)
   10d02:	00 00 00 
   10d05:	eb 1b                	jmp    10d22 <func_66+0x165e>
   10d07:	8b 85 5c e3 ff ff    	mov    -0x1ca4(%rbp),%eax
   10d0d:	48 98                	cltq   
   10d0f:	48 c7 84 c5 30 e7 ff 	movq   $0x0,-0x18d0(%rbp,%rax,8)
   10d16:	ff 00 00 00 00 
   10d1b:	83 85 5c e3 ff ff 01 	addl   $0x1,-0x1ca4(%rbp)
   10d22:	83 bd 5c e3 ff ff 02 	cmpl   $0x2,-0x1ca4(%rbp)
   10d29:	7e dc                	jle    10d07 <func_66+0x1643>
   10d2b:	c7 85 5c e3 ff ff 00 	movl   $0x0,-0x1ca4(%rbp)
   10d32:	00 00 00 
   10d35:	eb 14                	jmp    10d4b <func_66+0x1687>
   10d37:	8b 85 5c e3 ff ff    	mov    -0x1ca4(%rbp),%eax
   10d3d:	48 98                	cltq   
   10d3f:	c6 44 05 cf ec       	movb   $0xec,-0x31(%rbp,%rax,1)
   10d44:	83 85 5c e3 ff ff 01 	addl   $0x1,-0x1ca4(%rbp)
   10d4b:	83 bd 5c e3 ff ff 08 	cmpl   $0x8,-0x1ca4(%rbp)
   10d52:	7e e3                	jle    10d37 <func_66+0x1673>
   10d54:	0f bf 95 1c e3 ff ff 	movswl -0x1ce4(%rbp),%edx
   10d5b:	48 8b 85 60 e5 ff ff 	mov    -0x1aa0(%rbp),%rax
   10d62:	89 10                	mov    %edx,(%rax)
   10d64:	48 8b 05 5d c3 00 00 	mov    0xc35d(%rip),%rax        # 1d0c8 <g_125+0x28>
   10d6b:	0f b6 c0             	movzbl %al,%eax
   10d6e:	be f9 00 00 00       	mov    $0xf9,%esi
   10d73:	89 c7                	mov    %eax,%edi
   10d75:	e8 19 9e ff ff       	callq  ab93 <safe_mul_func_uint8_t_u_u>
   10d7a:	8b 05 cc c2 00 00    	mov    0xc2cc(%rip),%eax        # 1d04c <g_85>
   10d80:	0f be d8             	movsbl %al,%ebx
   10d83:	0f bf 95 1c e3 ff ff 	movswl -0x1ce4(%rbp),%edx
   10d8a:	8b 05 d0 c5 00 00    	mov    0xc5d0(%rip),%eax        # 1d360 <g_737+0x20>
   10d90:	0f b7 85 1c e3 ff ff 	movzwl -0x1ce4(%rbp),%eax
   10d97:	0f be c0             	movsbl %al,%eax
   10d9a:	89 d6                	mov    %edx,%esi
   10d9c:	89 c7                	mov    %eax,%edi
   10d9e:	e8 92 95 ff ff       	callq  a335 <safe_rshift_func_int8_t_s_s>
   10da3:	48 8b 85 68 e5 ff ff 	mov    -0x1a98(%rbp),%rax
   10daa:	0f be c0             	movsbl %al,%eax
   10dad:	89 de                	mov    %ebx,%esi
   10daf:	89 c7                	mov    %eax,%edi
   10db1:	e8 7b 94 ff ff       	callq  a231 <safe_mod_func_int8_t_s_s>
   10db6:	0f b7 05 ab c2 00 00 	movzwl 0xc2ab(%rip),%eax        # 1d068 <g_113+0x8>
   10dbd:	48 0f bf c0          	movswq %ax,%rax
   10dc1:	48 83 f8 01          	cmp    $0x1,%rax
   10dc5:	0f 97 c2             	seta   %dl
   10dc8:	48 8b 85 88 e4 ff ff 	mov    -0x1b78(%rbp),%rax
   10dcf:	0f b6 d2             	movzbl %dl,%edx
   10dd2:	89 10                	mov    %edx,(%rax)
   10dd4:	8b 00                	mov    (%rax),%eax
   10dd6:	83 c8 01             	or     $0x1,%eax
   10dd9:	89 c2                	mov    %eax,%edx
   10ddb:	48 8b 85 80 e5 ff ff 	mov    -0x1a80(%rbp),%rax
   10de2:	48 89 10             	mov    %rdx,(%rax)
   10de5:	48 8b 85 80 e5 ff ff 	mov    -0x1a80(%rbp),%rax
   10dec:	48 8b 00             	mov    (%rax),%rax
   10def:	48 ba 80 46 cb 7d c5 	movabs $0x7e668ac57dcb4680,%rdx
   10df6:	8a 66 7e 
   10df9:	48 39 d0             	cmp    %rdx,%rax
   10dfc:	0f 9f c0             	setg   %al
   10dff:	0f b6 d0             	movzbl %al,%edx
   10e02:	8b 85 38 e3 ff ff    	mov    -0x1cc8(%rbp),%eax
   10e08:	09 d0                	or     %edx,%eax
   10e0a:	89 85 38 e3 ff ff    	mov    %eax,-0x1cc8(%rbp)
   10e10:	8b 85 38 e3 ff ff    	mov    -0x1cc8(%rbp),%eax
   10e16:	89 c7                	mov    %eax,%edi
   10e18:	e8 79 97 ff ff       	callq  a596 <safe_unary_minus_func_int32_t_s>
   10e1d:	0f bf 85 1c e3 ff ff 	movswl -0x1ce4(%rbp),%eax
   10e24:	8b 15 26 c3 00 00    	mov    0xc326(%rip),%edx        # 1d150 <g_253+0x10>
   10e2a:	85 d2                	test   %edx,%edx
   10e2c:	74 07                	je     10e35 <func_66+0x1771>
   10e2e:	ba 9f 00 00 00       	mov    $0x9f,%edx
   10e33:	eb 05                	jmp    10e3a <func_66+0x1776>
   10e35:	ba 9e 00 00 00       	mov    $0x9e,%edx
   10e3a:	89 c6                	mov    %eax,%esi
   10e3c:	89 d7                	mov    %edx,%edi
   10e3e:	e8 4a 9e ff ff       	callq  ac8d <safe_rshift_func_uint8_t_u_s>
   10e43:	48 83 bd 90 e5 ff ff 	cmpq   $0x0,-0x1a70(%rbp)
   10e4a:	00 
   10e4b:	c7 85 3c e3 ff ff 00 	movl   $0x0,-0x1cc4(%rbp)
   10e52:	00 00 00 
   10e55:	8b 85 3c e3 ff ff    	mov    -0x1cc4(%rbp),%eax
   10e5b:	85 c0                	test   %eax,%eax
   10e5d:	74 07                	je     10e66 <func_66+0x17a2>
   10e5f:	ba 01 00 00 00       	mov    $0x1,%edx
   10e64:	eb 05                	jmp    10e6b <func_66+0x17a7>
   10e66:	ba 00 00 00 00       	mov    $0x0,%edx
   10e6b:	8b 85 e0 ea ff ff    	mov    -0x1520(%rbp),%eax
   10e71:	39 c2                	cmp    %eax,%edx
   10e73:	74 14                	je     10e89 <func_66+0x17c5>
   10e75:	48 8b 85 60 e5 ff ff 	mov    -0x1aa0(%rbp),%rax
   10e7c:	8b 00                	mov    (%rax),%eax
   10e7e:	85 c0                	test   %eax,%eax
   10e80:	74 07                	je     10e89 <func_66+0x17c5>
   10e82:	ba 01 00 00 00       	mov    $0x1,%edx
   10e87:	eb 05                	jmp    10e8e <func_66+0x17ca>
   10e89:	ba 00 00 00 00       	mov    $0x0,%edx
   10e8e:	8b 05 88 c2 00 00    	mov    0xc288(%rip),%eax        # 1d11c <g_197>
   10e94:	31 d0                	xor    %edx,%eax
   10e96:	89 05 80 c2 00 00    	mov    %eax,0xc280(%rip)        # 1d11c <g_197>
   10e9c:	8b 05 7a c2 00 00    	mov    0xc27a(%rip),%eax        # 1d11c <g_197>
   10ea2:	89 85 40 e3 ff ff    	mov    %eax,-0x1cc0(%rbp)
   10ea8:	48 8b 05 f1 e7 00 00 	mov    0xe7f1(%rip),%rax        # 1f6a0 <g_329>
   10eaf:	48 c7 00 00 00 00 00 	movq   $0x0,(%rax)
   10eb6:	8b 05 34 c4 00 00    	mov    0xc434(%rip),%eax        # 1d2f0 <g_577>
   10ebc:	c1 e0 04             	shl    $0x4,%eax
   10ebf:	c1 f8 04             	sar    $0x4,%eax
   10ec2:	48 63 d0             	movslq %eax,%rdx
   10ec5:	48 8b 85 80 e5 ff ff 	mov    -0x1a80(%rbp),%rax
   10ecc:	48 89 10             	mov    %rdx,(%rax)
   10ecf:	48 8b 85 80 e5 ff ff 	mov    -0x1a80(%rbp),%rax
   10ed6:	48 8b 00             	mov    (%rax),%rax
   10ed9:	48 89 c6             	mov    %rax,%rsi
   10edc:	bf 03 00 00 00       	mov    $0x3,%edi
   10ee1:	e8 9a a1 ff ff       	callq  b080 <safe_mod_func_uint64_t_u_u>
   10ee6:	48 85 c0             	test   %rax,%rax
   10ee9:	74 61                	je     10f4c <func_66+0x1888>
   10eeb:	8b 15 6f c4 00 00    	mov    0xc46f(%rip),%edx        # 1d360 <g_737+0x20>
   10ef1:	0f bf 85 1c e3 ff ff 	movswl -0x1ce4(%rbp),%eax
   10ef8:	39 c2                	cmp    %eax,%edx
   10efa:	0f 97 c0             	seta   %al
   10efd:	0f b6 d0             	movzbl %al,%edx
   10f00:	8b 85 04 eb ff ff    	mov    -0x14fc(%rbp),%eax
   10f06:	39 c2                	cmp    %eax,%edx
   10f08:	0f 95 c0             	setne  %al
   10f0b:	0f b6 c0             	movzbl %al,%eax
   10f0e:	48 be 30 1c 83 28 02 	movabs $0x1759330228831c30,%rsi
   10f15:	33 59 17 
   10f18:	48 89 c7             	mov    %rax,%rdi
   10f1b:	e8 94 9a ff ff       	callq  a9b4 <safe_mod_func_int64_t_s_s>
   10f20:	48 8b 85 60 e5 ff ff 	mov    -0x1aa0(%rbp),%rax
   10f27:	8b 00                	mov    (%rax),%eax
   10f29:	48 98                	cltq   
   10f2b:	83 e0 01             	and    $0x1,%eax
   10f2e:	48 89 c2             	mov    %rax,%rdx
   10f31:	48 8b 85 68 eb ff ff 	mov    -0x1498(%rbp),%rax
   10f38:	48 39 c2             	cmp    %rax,%rdx
   10f3b:	66 83 bd 1c e3 ff ff 	cmpw   $0x1,-0x1ce4(%rbp)
   10f42:	01 
   10f43:	74 07                	je     10f4c <func_66+0x1888>
   10f45:	ba 01 00 00 00       	mov    $0x1,%edx
   10f4a:	eb 05                	jmp    10f51 <func_66+0x188d>
   10f4c:	ba 00 00 00 00       	mov    $0x0,%edx
   10f51:	0f bf 85 1c e3 ff ff 	movswl -0x1ce4(%rbp),%eax
   10f58:	39 c2                	cmp    %eax,%edx
   10f5a:	0f 95 c0             	setne  %al
   10f5d:	0f b6 d0             	movzbl %al,%edx
   10f60:	0f b7 05 11 c1 00 00 	movzwl 0xc111(%rip),%eax        # 1d078 <g_115>
   10f67:	98                   	cwtl   
   10f68:	39 c2                	cmp    %eax,%edx
   10f6a:	0f 9f c0             	setg   %al
   10f6d:	0f b6 c0             	movzbl %al,%eax
   10f70:	8b 95 38 e3 ff ff    	mov    -0x1cc8(%rbp),%edx
   10f76:	31 d0                	xor    %edx,%eax
   10f78:	0f b7 c0             	movzwl %ax,%eax
   10f7b:	be 05 03 00 00       	mov    $0x305,%esi
   10f80:	89 c7                	mov    %eax,%edi
   10f82:	e8 78 9d ff ff       	callq  acff <safe_add_func_uint16_t_u_u>
   10f87:	89 c2                	mov    %eax,%edx
   10f89:	48 8b 05 c8 e6 00 00 	mov    0xe6c8(%rip),%rax        # 1f658 <g_215>
   10f90:	0f b7 d2             	movzwl %dx,%edx
   10f93:	89 10                	mov    %edx,(%rax)
   10f95:	8b 00                	mov    (%rax),%eax
   10f97:	85 c0                	test   %eax,%eax
   10f99:	74 0f                	je     10faa <func_66+0x18e6>
   10f9b:	66 83 bd 1c e3 ff ff 	cmpw   $0x0,-0x1ce4(%rbp)
   10fa2:	00 
   10fa3:	74 45                	je     10fea <func_66+0x1926>
   10fa5:	e9 92 09 00 00       	jmpq   1193c <func_66+0x2278>
   10faa:	c7 85 98 e3 ff ff 04 	movl   $0xa89e1c04,-0x1c68(%rbp)
   10fb1:	1c 9e a8 
   10fb4:	8b 85 e0 ea ff ff    	mov    -0x1520(%rbp),%eax
   10fba:	85 c0                	test   %eax,%eax
   10fbc:	0f 85 76 09 00 00    	jne    11938 <func_66+0x2274>
   10fc2:	48 8b 05 8f e6 00 00 	mov    0xe68f(%rip),%rax        # 1f658 <g_215>
   10fc9:	8b 00                	mov    (%rax),%eax
   10fcb:	85 c0                	test   %eax,%eax
   10fcd:	0f 85 68 09 00 00    	jne    1193b <func_66+0x2277>
   10fd3:	48 8b 85 60 e5 ff ff 	mov    -0x1aa0(%rbp),%rax
   10fda:	c7 00 01 00 00 00    	movl   $0x1,(%rax)
   10fe0:	c7 85 98 e3 ff ff 01 	movl   $0x1,-0x1c68(%rbp)
   10fe7:	00 00 00 
   10fea:	c7 85 40 e3 ff ff 01 	movl   $0x1,-0x1cc0(%rbp)
   10ff1:	00 00 00 
   10ff4:	66 c7 85 68 e7 ff ff 	movw   $0x1,-0x1898(%rbp)
   10ffb:	01 00 
   10ffd:	c7 85 9c e3 ff ff c6 	movl   $0x345f6c6,-0x1c64(%rbp)
   11004:	f6 45 03 
   11007:	c7 85 a0 e3 ff ff 39 	movl   $0xce2b5939,-0x1c60(%rbp)
   1100e:	59 2b ce 
   11011:	c7 85 00 ef ff ff 01 	movl   $0x1,-0x1100(%rbp)
   11018:	00 00 00 
   1101b:	c7 85 04 ef ff ff 01 	movl   $0x1,-0x10fc(%rbp)
   11022:	00 00 00 
   11025:	c7 85 08 ef ff ff 83 	movl   $0x440dd083,-0x10f8(%rbp)
   1102c:	d0 0d 44 
   1102f:	c7 85 0c ef ff ff 01 	movl   $0x1,-0x10f4(%rbp)
   11036:	00 00 00 
   11039:	c7 85 10 ef ff ff 01 	movl   $0x1,-0x10f0(%rbp)
   11040:	00 00 00 
   11043:	c7 85 14 ef ff ff 83 	movl   $0x440dd083,-0x10ec(%rbp)
   1104a:	d0 0d 44 
   1104d:	c7 85 18 ef ff ff 01 	movl   $0x1,-0x10e8(%rbp)
   11054:	00 00 00 
   11057:	c7 85 1c ef ff ff 01 	movl   $0x1,-0x10e4(%rbp)
   1105e:	00 00 00 
   11061:	c7 85 20 ef ff ff 83 	movl   $0x440dd083,-0x10e0(%rbp)
   11068:	d0 0d 44 
   1106b:	c7 85 24 ef ff ff 01 	movl   $0x1,-0x10dc(%rbp)
   11072:	00 00 00 
   11075:	8b 95 38 e3 ff ff    	mov    -0x1cc8(%rbp),%edx
   1107b:	48 8b 85 60 e5 ff ff 	mov    -0x1aa0(%rbp),%rax
   11082:	89 10                	mov    %edx,(%rax)
   11084:	8b 05 de c2 00 00    	mov    0xc2de(%rip),%eax        # 1d368 <g_777>
   1108a:	83 c0 01             	add    $0x1,%eax
   1108d:	89 05 d5 c2 00 00    	mov    %eax,0xc2d5(%rip)        # 1d368 <g_777>
   11093:	c7 05 13 c2 00 00 00 	movl   $0x0,0xc213(%rip)        # 1d2b0 <g_509>
   1109a:	00 00 00 
   1109d:	e9 63 08 00 00       	jmpq   11905 <func_66+0x2241>
   110a2:	c7 85 80 e7 ff ff 05 	movl   $0x5,-0x1880(%rbp)
   110a9:	00 00 00 
   110ac:	c7 85 84 e7 ff ff 05 	movl   $0x5,-0x187c(%rbp)
   110b3:	00 00 00 
   110b6:	c7 85 88 e7 ff ff b8 	movl   $0xc8f153b8,-0x1878(%rbp)
   110bd:	53 f1 c8 
   110c0:	c7 85 8c e7 ff ff 05 	movl   $0x5,-0x1874(%rbp)
   110c7:	00 00 00 
   110ca:	c7 85 90 e7 ff ff 05 	movl   $0x5,-0x1870(%rbp)
   110d1:	00 00 00 
   110d4:	c7 85 94 e7 ff ff b8 	movl   $0xc8f153b8,-0x186c(%rbp)
   110db:	53 f1 c8 
   110de:	c7 85 98 e7 ff ff 05 	movl   $0x5,-0x1868(%rbp)
   110e5:	00 00 00 
   110e8:	c7 85 9c e7 ff ff 05 	movl   $0x5,-0x1864(%rbp)
   110ef:	00 00 00 
   110f2:	48 8d 85 21 e3 ff ff 	lea    -0x1cdf(%rbp),%rax
   110f9:	48 89 85 00 e5 ff ff 	mov    %rax,-0x1b00(%rbp)
   11100:	48 8d 05 15 c0 00 00 	lea    0xc015(%rip),%rax        # 1d11c <g_197>
   11107:	48 89 85 10 e8 ff ff 	mov    %rax,-0x17f0(%rbp)
   1110e:	48 8d 05 07 c0 00 00 	lea    0xc007(%rip),%rax        # 1d11c <g_197>
   11115:	48 89 85 18 e8 ff ff 	mov    %rax,-0x17e8(%rbp)
   1111c:	48 8d 05 f9 bf 00 00 	lea    0xbff9(%rip),%rax        # 1d11c <g_197>
   11123:	48 89 85 20 e8 ff ff 	mov    %rax,-0x17e0(%rbp)
   1112a:	48 8d 05 eb bf 00 00 	lea    0xbfeb(%rip),%rax        # 1d11c <g_197>
   11131:	48 89 85 28 e8 ff ff 	mov    %rax,-0x17d8(%rbp)
   11138:	48 8d 05 dd bf 00 00 	lea    0xbfdd(%rip),%rax        # 1d11c <g_197>
   1113f:	48 89 85 30 e8 ff ff 	mov    %rax,-0x17d0(%rbp)
   11146:	48 8d 05 cf bf 00 00 	lea    0xbfcf(%rip),%rax        # 1d11c <g_197>
   1114d:	48 89 85 38 e8 ff ff 	mov    %rax,-0x17c8(%rbp)
   11154:	48 8d 05 c1 bf 00 00 	lea    0xbfc1(%rip),%rax        # 1d11c <g_197>
   1115b:	48 89 85 40 e8 ff ff 	mov    %rax,-0x17c0(%rbp)
   11162:	48 8d 05 b3 bf 00 00 	lea    0xbfb3(%rip),%rax        # 1d11c <g_197>
   11169:	48 89 85 48 e8 ff ff 	mov    %rax,-0x17b8(%rbp)
   11170:	48 8d 05 a5 bf 00 00 	lea    0xbfa5(%rip),%rax        # 1d11c <g_197>
   11177:	48 89 85 50 e8 ff ff 	mov    %rax,-0x17b0(%rbp)
   1117e:	48 b8 39 9d e4 6b 69 	movabs $0x53318e696be49d39,%rax
   11185:	8e 31 53 
   11188:	48 89 85 a8 e4 ff ff 	mov    %rax,-0x1b58(%rbp)
   1118f:	48 8d 85 88 e4 ff ff 	lea    -0x1b78(%rbp),%rax
   11196:	48 89 85 f8 e4 ff ff 	mov    %rax,-0x1b08(%rbp)
   1119d:	c7 05 71 c0 00 00 00 	movl   $0x0,0xc071(%rip)        # 1d218 <g_275>
   111a4:	00 00 00 
   111a7:	e9 eb 05 00 00       	jmpq   11797 <func_66+0x20d3>
   111ac:	48 8d 85 80 e4 ff ff 	lea    -0x1b80(%rbp),%rax
   111b3:	48 89 85 f0 e4 ff ff 	mov    %rax,-0x1b10(%rbp)
   111ba:	c7 85 8c e3 ff ff ff 	movl   $0xffffffff,-0x1c74(%rbp)
   111c1:	ff ff ff 
   111c4:	c7 85 90 e3 ff ff 01 	movl   $0x1,-0x1c70(%rbp)
   111cb:	00 00 00 
   111ce:	c7 85 94 e3 ff ff ff 	movl   $0xffffffff,-0x1c6c(%rbp)
   111d5:	ff ff ff 
   111d8:	c7 85 68 e3 ff ff 00 	movl   $0x0,-0x1c98(%rbp)
   111df:	00 00 00 
   111e2:	eb 78                	jmp    1125c <func_66+0x1b98>
   111e4:	c7 85 64 e3 ff ff 00 	movl   $0x0,-0x1c9c(%rbp)
   111eb:	00 00 00 
   111ee:	eb 5c                	jmp    1124c <func_66+0x1b88>
   111f0:	c7 85 6c e3 ff ff 00 	movl   $0x0,-0x1c94(%rbp)
   111f7:	00 00 00 
   111fa:	eb 40                	jmp    1123c <func_66+0x1b78>
   111fc:	8b 85 6c e3 ff ff    	mov    -0x1c94(%rbp),%eax
   11202:	48 63 c8             	movslq %eax,%rcx
   11205:	8b 85 68 e3 ff ff    	mov    -0x1c98(%rbp),%eax
   1120b:	48 63 d0             	movslq %eax,%rdx
   1120e:	8b 85 64 e3 ff ff    	mov    -0x1c9c(%rbp),%eax
   11214:	48 63 f0             	movslq %eax,%rsi
   11217:	48 89 d0             	mov    %rdx,%rax
   1121a:	48 01 c0             	add    %rax,%rax
   1121d:	48 01 d0             	add    %rdx,%rax
   11220:	48 01 f0             	add    %rsi,%rax
   11223:	48 c1 e0 02          	shl    $0x2,%rax
   11227:	48 01 c8             	add    %rcx,%rax
   1122a:	c7 84 85 80 e9 ff ff 	movl   $0x743dbf6d,-0x1680(%rbp,%rax,4)
   11231:	6d bf 3d 74 
   11235:	83 85 6c e3 ff ff 01 	addl   $0x1,-0x1c94(%rbp)
   1123c:	83 bd 6c e3 ff ff 03 	cmpl   $0x3,-0x1c94(%rbp)
   11243:	7e b7                	jle    111fc <func_66+0x1b38>
   11245:	83 85 64 e3 ff ff 01 	addl   $0x1,-0x1c9c(%rbp)
   1124c:	83 bd 64 e3 ff ff 02 	cmpl   $0x2,-0x1c9c(%rbp)
   11253:	7e 9b                	jle    111f0 <func_66+0x1b2c>
   11255:	83 85 68 e3 ff ff 01 	addl   $0x1,-0x1c98(%rbp)
   1125c:	83 bd 68 e3 ff ff 01 	cmpl   $0x1,-0x1c98(%rbp)
   11263:	0f 8e 7b ff ff ff    	jle    111e4 <func_66+0x1b20>
   11269:	c7 05 d1 bf 00 00 00 	movl   $0x0,0xbfd1(%rip)        # 1d244 <g_284>
   11270:	00 00 00 
   11273:	e9 59 01 00 00       	jmpq   113d1 <func_66+0x1d0d>
   11278:	c7 85 60 e3 ff ff 00 	movl   $0x0,-0x1ca0(%rbp)
   1127f:	00 00 00 
   11282:	48 c7 85 b8 e4 ff ff 	movq   $0x0,-0x1b48(%rbp)
   11289:	00 00 00 00 
   1128d:	48 8d 85 80 e4 ff ff 	lea    -0x1b80(%rbp),%rax
   11294:	48 89 85 c0 e4 ff ff 	mov    %rax,-0x1b40(%rbp)
   1129b:	48 b8 89 86 fa a8 5f 	movabs $0x313c525fa8fa8689,%rax
   112a2:	52 3c 31 
   112a5:	48 89 85 c8 e4 ff ff 	mov    %rax,-0x1b38(%rbp)
   112ac:	48 0f bf 9d 1c e3 ff 	movswq -0x1ce4(%rbp),%rbx
   112b3:	ff 
   112b4:	0f bf 85 1c e3 ff ff 	movswl -0x1ce4(%rbp),%eax
   112bb:	89 85 80 e7 ff ff    	mov    %eax,-0x1880(%rbp)
   112c1:	8b 85 80 e7 ff ff    	mov    -0x1880(%rbp),%eax
   112c7:	39 85 60 e3 ff ff    	cmp    %eax,-0x1ca0(%rbp)
   112cd:	48 8b 05 1c e8 00 00 	mov    0xe81c(%rip),%rax        # 1faf0 <g_597>
   112d4:	48 8b 00             	mov    (%rax),%rax
   112d7:	48 39 85 00 e5 ff ff 	cmp    %rax,-0x1b00(%rbp)
   112de:	0f 95 c0             	setne  %al
   112e1:	44 0f b6 e8          	movzbl %al,%r13d
   112e5:	44 0f bf a5 1c e3 ff 	movswl -0x1ce4(%rbp),%r12d
   112ec:	ff 
   112ed:	48 8b 85 f0 e4 ff ff 	mov    -0x1b10(%rbp),%rax
   112f4:	48 89 85 c0 e4 ff ff 	mov    %rax,-0x1b40(%rbp)
   112fb:	be d4 ff 91 97       	mov    $0x9791ffd4,%esi
   11300:	bf 3e e1 a3 36       	mov    $0x36a3e13e,%edi
   11305:	e8 1b 9c ff ff       	callq  af25 <safe_div_func_uint32_t_u_u>
   1130a:	48 8b 05 0f e9 00 00 	mov    0xe90f(%rip),%rax        # 1fc20 <g_1138>
   11311:	48 85 c0             	test   %rax,%rax
   11314:	0f 95 c0             	setne  %al
   11317:	0f b6 c0             	movzbl %al,%eax
   1131a:	89 c7                	mov    %eax,%edi
   1131c:	e8 9e 8e ff ff       	callq  a1bf <safe_unary_minus_func_int8_t_s>
   11321:	8b 05 15 bf 00 00    	mov    0xbf15(%rip),%eax        # 1d23c <g_276+0x1c>
   11327:	98                   	cwtl   
   11328:	89 c6                	mov    %eax,%esi
   1132a:	bf 01 00 00 00       	mov    $0x1,%edi
   1132f:	e8 c1 90 ff ff       	callq  a3f5 <safe_mul_func_int16_t_s_s>
   11334:	66 0b 85 1c e3 ff ff 	or     -0x1ce4(%rbp),%ax
   1133b:	48 0f bf c0          	movswq %ax,%rax
   1133f:	48 39 85 c8 e4 ff ff 	cmp    %rax,-0x1b38(%rbp)
   11346:	0f 96 c0             	setbe  %al
   11349:	0f b6 d0             	movzbl %al,%edx
   1134c:	0f bf 85 1c e3 ff ff 	movswl -0x1ce4(%rbp),%eax
   11353:	39 c2                	cmp    %eax,%edx
   11355:	0f 9e c0             	setle  %al
   11358:	0f b6 c0             	movzbl %al,%eax
   1135b:	44 89 e6             	mov    %r12d,%esi
   1135e:	89 c7                	mov    %eax,%edi
   11360:	e8 f0 90 ff ff       	callq  a455 <safe_div_func_int16_t_s_s>
   11365:	66 85 c0             	test   %ax,%ax
   11368:	75 0c                	jne    11376 <func_66+0x1cb2>
   1136a:	48 8b 05 ff be 00 00 	mov    0xbeff(%rip),%rax        # 1d270 <g_290+0x10>
   11371:	48 85 c0             	test   %rax,%rax
   11374:	74 07                	je     1137d <func_66+0x1cb9>
   11376:	b8 01 00 00 00       	mov    $0x1,%eax
   1137b:	eb 05                	jmp    11382 <func_66+0x1cbe>
   1137d:	b8 00 00 00 00       	mov    $0x0,%eax
   11382:	0f b6 c0             	movzbl %al,%eax
   11385:	8b 95 8c e3 ff ff    	mov    -0x1c74(%rbp),%edx
   1138b:	89 d6                	mov    %edx,%esi
   1138d:	89 c7                	mov    %eax,%edi
   1138f:	e8 f9 98 ff ff       	callq  ac8d <safe_rshift_func_uint8_t_u_s>
   11394:	0f b6 c0             	movzbl %al,%eax
   11397:	41 39 c5             	cmp    %eax,%r13d
   1139a:	0f 95 c0             	setne  %al
   1139d:	0f b6 c0             	movzbl %al,%eax
   113a0:	48 89 de             	mov    %rbx,%rsi
   113a3:	48 89 c7             	mov    %rax,%rdi
   113a6:	e8 a0 9c ff ff       	callq  b04b <safe_sub_func_uint64_t_u_u>
   113ab:	48 0f bf 95 1c e3 ff 	movswq -0x1ce4(%rbp),%rdx
   113b2:	ff 
   113b3:	48 39 d0             	cmp    %rdx,%rax
   113b6:	0f 93 c0             	setae  %al
   113b9:	0f b6 c0             	movzbl %al,%eax
   113bc:	89 85 50 e3 ff ff    	mov    %eax,-0x1cb0(%rbp)
   113c2:	8b 05 7c be 00 00    	mov    0xbe7c(%rip),%eax        # 1d244 <g_284>
   113c8:	83 c0 01             	add    $0x1,%eax
   113cb:	89 05 73 be 00 00    	mov    %eax,0xbe73(%rip)        # 1d244 <g_284>
   113d1:	8b 05 6d be 00 00    	mov    0xbe6d(%rip),%eax        # 1d244 <g_284>
   113d7:	83 f8 03             	cmp    $0x3,%eax
   113da:	0f 86 98 fe ff ff    	jbe    11278 <func_66+0x1bb4>
   113e0:	c7 85 3c e3 ff ff 03 	movl   $0x3,-0x1cc4(%rbp)
   113e7:	00 00 00 
   113ea:	e9 a9 00 00 00       	jmpq   11498 <func_66+0x1dd4>
   113ef:	48 8d 05 a2 bc 00 00 	lea    0xbca2(%rip),%rax        # 1d098 <g_124>
   113f6:	48 89 85 d0 e4 ff ff 	mov    %rax,-0x1b30(%rbp)
   113fd:	48 8d 05 18 bd 00 00 	lea    0xbd18(%rip),%rax        # 1d11c <g_197>
   11404:	48 89 85 00 ef ff ff 	mov    %rax,-0x1100(%rbp)
   1140b:	48 8d 85 4c e3 ff ff 	lea    -0x1cb4(%rbp),%rax
   11412:	48 89 85 08 ef ff ff 	mov    %rax,-0x10f8(%rbp)
   11419:	48 8d 85 4c e3 ff ff 	lea    -0x1cb4(%rbp),%rax
   11420:	48 89 85 10 ef ff ff 	mov    %rax,-0x10f0(%rbp)
   11427:	48 8d 05 ee bc 00 00 	lea    0xbcee(%rip),%rax        # 1d11c <g_197>
   1142e:	48 89 85 18 ef ff ff 	mov    %rax,-0x10e8(%rbp)
   11435:	48 8d 85 48 e3 ff ff 	lea    -0x1cb8(%rbp),%rax
   1143c:	48 89 85 20 ef ff ff 	mov    %rax,-0x10e0(%rbp)
   11443:	48 8d 05 d2 bc 00 00 	lea    0xbcd2(%rip),%rax        # 1d11c <g_197>
   1144a:	48 89 85 28 ef ff ff 	mov    %rax,-0x10d8(%rbp)
   11451:	48 8d 85 4c e3 ff ff 	lea    -0x1cb4(%rbp),%rax
   11458:	48 89 85 30 ef ff ff 	mov    %rax,-0x10d0(%rbp)
   1145f:	48 8d 85 4c e3 ff ff 	lea    -0x1cb4(%rbp),%rax
   11466:	48 89 85 38 ef ff ff 	mov    %rax,-0x10c8(%rbp)
   1146d:	48 8d 05 a8 bc 00 00 	lea    0xbca8(%rip),%rax        # 1d11c <g_197>
   11474:	48 89 85 40 ef ff ff 	mov    %rax,-0x10c0(%rbp)
   1147b:	48 8d 85 48 e3 ff ff 	lea    -0x1cb8(%rbp),%rax
   11482:	48 89 85 48 ef ff ff 	mov    %rax,-0x10b8(%rbp)
   11489:	8b 85 3c e3 ff ff    	mov    -0x1cc4(%rbp),%eax
   1148f:	83 e8 01             	sub    $0x1,%eax
   11492:	89 85 3c e3 ff ff    	mov    %eax,-0x1cc4(%rbp)
   11498:	8b 85 3c e3 ff ff    	mov    -0x1cc4(%rbp),%eax
   1149e:	85 c0                	test   %eax,%eax
   114a0:	0f 89 49 ff ff ff    	jns    113ef <func_66+0x1d2b>
   114a6:	66 83 bd 1c e3 ff ff 	cmpw   $0x0,-0x1ce4(%rbp)
   114ad:	00 
   114ae:	0f 85 f4 02 00 00    	jne    117a8 <func_66+0x20e4>
   114b4:	c7 85 54 e3 ff ff 03 	movl   $0x3,-0x1cac(%rbp)
   114bb:	00 00 00 
   114be:	e9 b4 02 00 00       	jmpq   11777 <func_66+0x20b3>
   114c3:	66 c7 85 28 e3 ff ff 	movw   $0x89c9,-0x1cd8(%rbp)
   114ca:	c9 89 
   114cc:	c7 85 70 e3 ff ff 04 	movl   $0x4,-0x1c90(%rbp)
   114d3:	00 00 00 
   114d6:	48 8d 85 10 e8 ff ff 	lea    -0x17f0(%rbp),%rax
   114dd:	48 83 c0 40          	add    $0x40,%rax
   114e1:	48 89 85 e8 e4 ff ff 	mov    %rax,-0x1b18(%rbp)
   114e8:	c7 85 88 e3 ff ff 01 	movl   $0x1,-0x1c78(%rbp)
   114ef:	00 00 00 
   114f2:	48 8d 85 00 ef ff ff 	lea    -0x1100(%rbp),%rax
   114f9:	48 8d 15 60 7f 00 00 	lea    0x7f60(%rip),%rdx        # 19460 <g_2140+0x13f4>
   11500:	b9 2d 00 00 00       	mov    $0x2d,%ecx
   11505:	48 89 c7             	mov    %rax,%rdi
   11508:	48 89 d6             	mov    %rdx,%rsi
   1150b:	f3 48 a5             	rep movsq %ds:(%rsi),%es:(%rdi)
   1150e:	48 c7 85 b0 e4 ff ff 	movq   $0x0,-0x1b50(%rbp)
   11515:	00 00 00 00 
   11519:	c7 85 44 e3 ff ff 03 	movl   $0x3,-0x1cbc(%rbp)
   11520:	00 00 00 
   11523:	e9 50 01 00 00       	jmpq   11678 <func_66+0x1fb4>
   11528:	48 8d 05 f9 bd 00 00 	lea    0xbdf9(%rip),%rax        # 1d328 <g_651+0x28>
   1152f:	48 89 85 d8 e4 ff ff 	mov    %rax,-0x1b28(%rbp)
   11536:	c7 85 7c e3 ff ff 2c 	movl   $0xbcfbe22c,-0x1c84(%rbp)
   1153d:	e2 fb bc 
   11540:	48 0f bf 9d 1c e3 ff 	movswq -0x1ce4(%rbp),%rbx
   11547:	ff 
   11548:	0f b7 85 28 e3 ff ff 	movzwl -0x1cd8(%rbp),%eax
   1154f:	44 0f bf e0          	movswl %ax,%r12d
   11553:	8b 85 34 e3 ff ff    	mov    -0x1ccc(%rbp),%eax
   11559:	98                   	cwtl   
   1155a:	be fe ff ff ff       	mov    $0xfffffffe,%esi
   1155f:	89 c7                	mov    %eax,%edi
   11561:	e8 ef 8e ff ff       	callq  a455 <safe_div_func_int16_t_s_s>
   11566:	66 85 c0             	test   %ax,%ax
   11569:	0f 9f c0             	setg   %al
   1156c:	0f b6 c8             	movzbl %al,%ecx
   1156f:	0f b7 05 92 bb 00 00 	movzwl 0xbb92(%rip),%eax        # 1d108 <g_165>
   11576:	0f b7 c0             	movzwl %ax,%eax
   11579:	8d 50 01             	lea    0x1(%rax),%edx
   1157c:	8b 05 96 bc 00 00    	mov    0xbc96(%rip),%eax        # 1d218 <g_275>
   11582:	83 c0 05             	add    $0x5,%eax
   11585:	48 63 f0             	movslq %eax,%rsi
   11588:	48 63 d2             	movslq %edx,%rdx
   1158b:	48 89 d0             	mov    %rdx,%rax
   1158e:	48 c1 e0 03          	shl    $0x3,%rax
   11592:	48 01 d0             	add    %rdx,%rax
   11595:	48 01 f0             	add    %rsi,%rax
   11598:	48 8d 14 85 00 00 00 	lea    0x0(,%rax,4),%rdx
   1159f:	00 
   115a0:	48 8d 05 99 bb 00 00 	lea    0xbb99(%rip),%rax        # 1d140 <g_253>
   115a7:	8b 04 02             	mov    (%rdx,%rax,1),%eax
   115aa:	89 ce                	mov    %ecx,%esi
   115ac:	89 c7                	mov    %eax,%edi
   115ae:	e8 03 90 ff ff       	callq  a5b6 <safe_add_func_int32_t_s_s>
   115b3:	3d bb 00 00 00       	cmp    $0xbb,%eax
   115b8:	0f 9e c0             	setle  %al
   115bb:	0f b6 d0             	movzbl %al,%edx
   115be:	0f b7 85 28 e3 ff ff 	movzwl -0x1cd8(%rbp),%eax
   115c5:	98                   	cwtl   
   115c6:	89 d6                	mov    %edx,%esi
   115c8:	89 c7                	mov    %eax,%edi
   115ca:	e8 04 8e ff ff       	callq  a3d3 <safe_sub_func_int16_t_s_s>
   115cf:	66 33 85 1c e3 ff ff 	xor    -0x1ce4(%rbp),%ax
   115d6:	98                   	cwtl   
   115d7:	44 89 e6             	mov    %r12d,%esi
   115da:	89 c7                	mov    %eax,%edi
   115dc:	e8 35 8e ff ff       	callq  a416 <safe_mod_func_int16_t_s_s>
   115e1:	89 c2                	mov    %eax,%edx
   115e3:	48 8b 85 d8 e4 ff ff 	mov    -0x1b28(%rbp),%rax
   115ea:	66 89 10             	mov    %dx,(%rax)
   115ed:	48 8b 85 d8 e4 ff ff 	mov    -0x1b28(%rbp),%rax
   115f4:	0f b7 00             	movzwl (%rax),%eax
   115f7:	66 35 77 a2          	xor    $0xa277,%ax
   115fb:	0f b7 c0             	movzwl %ax,%eax
   115fe:	83 e0 03             	and    $0x3,%eax
   11601:	89 c1                	mov    %eax,%ecx
   11603:	0f b7 05 fe ba 00 00 	movzwl 0xbafe(%rip),%eax        # 1d108 <g_165>
   1160a:	0f b7 c0             	movzwl %ax,%eax
   1160d:	8d 50 01             	lea    0x1(%rax),%edx
   11610:	8b 05 02 bc 00 00    	mov    0xbc02(%rip),%eax        # 1d218 <g_275>
   11616:	83 c0 05             	add    $0x5,%eax
   11619:	48 63 f0             	movslq %eax,%rsi
   1161c:	48 63 d2             	movslq %edx,%rdx
   1161f:	48 89 d0             	mov    %rdx,%rax
   11622:	48 c1 e0 03          	shl    $0x3,%rax
   11626:	48 01 d0             	add    %rdx,%rax
   11629:	48 01 f0             	add    %rsi,%rax
   1162c:	48 8d 14 85 00 00 00 	lea    0x0(,%rax,4),%rdx
   11633:	00 
   11634:	48 8d 05 05 bb 00 00 	lea    0xbb05(%rip),%rax        # 1d140 <g_253>
   1163b:	8b 04 02             	mov    (%rdx,%rax,1),%eax
   1163e:	98                   	cwtl   
   1163f:	89 ce                	mov    %ecx,%esi
   11641:	89 c7                	mov    %eax,%edi
   11643:	e8 1b 8f ff ff       	callq  a563 <safe_rshift_func_int16_t_s_u>
   11648:	48 0f bf c0          	movswq %ax,%rax
   1164c:	48 89 de             	mov    %rbx,%rsi
   1164f:	48 89 c7             	mov    %rax,%rdi
   11652:	e8 ea 91 ff ff       	callq  a841 <safe_add_func_int64_t_s_s>
   11657:	89 c2                	mov    %eax,%edx
   11659:	48 8b 85 60 e5 ff ff 	mov    -0x1aa0(%rbp),%rax
   11660:	89 10                	mov    %edx,(%rax)
   11662:	83 85 70 e3 ff ff 01 	addl   $0x1,-0x1c90(%rbp)
   11669:	8b 85 44 e3 ff ff    	mov    -0x1cbc(%rbp),%eax
   1166f:	83 e8 01             	sub    $0x1,%eax
   11672:	89 85 44 e3 ff ff    	mov    %eax,-0x1cbc(%rbp)
   11678:	8b 85 44 e3 ff ff    	mov    -0x1cbc(%rbp),%eax
   1167e:	85 c0                	test   %eax,%eax
   11680:	0f 89 a2 fe ff ff    	jns    11528 <func_66+0x1e64>
   11686:	48 8b 95 50 e8 ff ff 	mov    -0x17b0(%rbp),%rdx
   1168d:	48 8b 85 e8 e4 ff ff 	mov    -0x1b18(%rbp),%rax
   11694:	48 89 10             	mov    %rdx,(%rax)
   11697:	8b 85 14 e9 ff ff    	mov    -0x16ec(%rbp),%eax
   1169d:	85 c0                	test   %eax,%eax
   1169f:	74 52                	je     116f3 <func_66+0x202f>
   116a1:	c7 85 84 e3 ff ff 01 	movl   $0x1,-0x1c7c(%rbp)
   116a8:	00 00 00 
   116ab:	c7 85 78 e3 ff ff 00 	movl   $0x0,-0x1c88(%rbp)
   116b2:	00 00 00 
   116b5:	eb 1a                	jmp    116d1 <func_66+0x200d>
   116b7:	8b 85 78 e3 ff ff    	mov    -0x1c88(%rbp),%eax
   116bd:	48 98                	cltq   
   116bf:	c7 84 85 c0 e7 ff ff 	movl   $0x3368c888,-0x1840(%rbp,%rax,4)
   116c6:	88 c8 68 33 
   116ca:	83 85 78 e3 ff ff 01 	addl   $0x1,-0x1c88(%rbp)
   116d1:	83 bd 78 e3 ff ff 08 	cmpl   $0x8,-0x1c88(%rbp)
   116d8:	7e dd                	jle    116b7 <func_66+0x1ff3>
   116da:	0f bf 95 1c e3 ff ff 	movswl -0x1ce4(%rbp),%edx
   116e1:	48 8b 85 60 e5 ff ff 	mov    -0x1aa0(%rbp),%rax
   116e8:	89 10                	mov    %edx,(%rax)
   116ea:	83 85 74 e3 ff ff 01 	addl   $0x1,-0x1c8c(%rbp)
   116f1:	eb 75                	jmp    11768 <func_66+0x20a4>
   116f3:	48 8d 85 b0 e4 ff ff 	lea    -0x1b50(%rbp),%rax
   116fa:	48 89 85 e0 e4 ff ff 	mov    %rax,-0x1b20(%rbp)
   11701:	c7 85 80 e3 ff ff 00 	movl   $0x0,-0x1c80(%rbp)
   11708:	00 00 00 
   1170b:	66 83 bd 1c e3 ff ff 	cmpw   $0x0,-0x1ce4(%rbp)
   11712:	00 
   11713:	75 72                	jne    11787 <func_66+0x20c3>
   11715:	48 8b 95 b0 e4 ff ff 	mov    -0x1b50(%rbp),%rdx
   1171c:	48 8b 85 e0 e4 ff ff 	mov    -0x1b20(%rbp),%rax
   11723:	48 89 10             	mov    %rdx,(%rax)
   11726:	48 8b 85 e0 e4 ff ff 	mov    -0x1b20(%rbp),%rax
   1172d:	48 8b 00             	mov    (%rax),%rax
   11730:	48 89 85 a0 e4 ff ff 	mov    %rax,-0x1b60(%rbp)
   11737:	0f b7 05 98 bc 00 00 	movzwl 0xbc98(%rip),%eax        # 1d3d6 <g_1188+0x36>
   1173e:	83 c0 01             	add    $0x1,%eax
   11741:	66 89 05 8e bc 00 00 	mov    %ax,0xbc8e(%rip)        # 1d3d6 <g_1188+0x36>
   11748:	48 8b 85 e8 e4 ff ff 	mov    -0x1b18(%rbp),%rax
   1174f:	48 8b 00             	mov    (%rax),%rax
   11752:	8b 08                	mov    (%rax),%ecx
   11754:	8b 95 54 e3 ff ff    	mov    -0x1cac(%rbp),%edx
   1175a:	48 8b 85 e8 e4 ff ff 	mov    -0x1b18(%rbp),%rax
   11761:	48 8b 00             	mov    (%rax),%rax
   11764:	09 ca                	or     %ecx,%edx
   11766:	89 10                	mov    %edx,(%rax)
   11768:	8b 85 54 e3 ff ff    	mov    -0x1cac(%rbp),%eax
   1176e:	83 e8 01             	sub    $0x1,%eax
   11771:	89 85 54 e3 ff ff    	mov    %eax,-0x1cac(%rbp)
   11777:	8b 85 54 e3 ff ff    	mov    -0x1cac(%rbp),%eax
   1177d:	85 c0                	test   %eax,%eax
   1177f:	0f 89 3e fd ff ff    	jns    114c3 <func_66+0x1dff>
   11785:	eb 01                	jmp    11788 <func_66+0x20c4>
   11787:	90                   	nop
   11788:	8b 05 8a ba 00 00    	mov    0xba8a(%rip),%eax        # 1d218 <g_275>
   1178e:	83 c0 01             	add    $0x1,%eax
   11791:	89 05 81 ba 00 00    	mov    %eax,0xba81(%rip)        # 1d218 <g_275>
   11797:	8b 05 7b ba 00 00    	mov    0xba7b(%rip),%eax        # 1d218 <g_275>
   1179d:	83 f8 03             	cmp    $0x3,%eax
   117a0:	0f 8e 06 fa ff ff    	jle    111ac <func_66+0x1ae8>
   117a6:	eb 01                	jmp    117a9 <func_66+0x20e5>
   117a8:	90                   	nop
   117a9:	8b 05 39 bc 00 00    	mov    0xbc39(%rip),%eax        # 1d3e8 <g_1191>
   117af:	0f b6 05 aa bb 00 00 	movzbl 0xbbaa(%rip),%eax        # 1d360 <g_737+0x20>
   117b6:	0f b7 85 1c e3 ff ff 	movzwl -0x1ce4(%rbp),%eax
   117bd:	0f be d8             	movsbl %al,%ebx
   117c0:	8b 85 40 e3 ff ff    	mov    -0x1cc0(%rbp),%eax
   117c6:	44 0f b6 e0          	movzbl %al,%r12d
   117ca:	0f b6 05 17 bc 00 00 	movzbl 0xbc17(%rip),%eax        # 1d3e8 <g_1191>
   117d1:	48 8b 85 88 e5 ff ff 	mov    -0x1a78(%rbp),%rax
   117d8:	0f b6 00             	movzbl (%rax),%eax
   117db:	8d 50 01             	lea    0x1(%rax),%edx
   117de:	48 8b 85 88 e5 ff ff 	mov    -0x1a78(%rbp),%rax
   117e5:	88 10                	mov    %dl,(%rax)
   117e7:	48 8b 95 10 e8 ff ff 	mov    -0x17f0(%rbp),%rdx
   117ee:	48 8b 85 48 e8 ff ff 	mov    -0x17b8(%rbp),%rax
   117f5:	48 39 c2             	cmp    %rax,%rdx
   117f8:	0f 95 c0             	setne  %al
   117fb:	0f b6 d0             	movzbl %al,%edx
   117fe:	0f bf 85 1c e3 ff ff 	movswl -0x1ce4(%rbp),%eax
   11805:	39 c2                	cmp    %eax,%edx
   11807:	0f 95 c0             	setne  %al
   1180a:	0f b6 c0             	movzbl %al,%eax
   1180d:	89 c6                	mov    %eax,%esi
   1180f:	bf 00 00 00 00       	mov    $0x0,%edi
   11814:	e8 b7 96 ff ff       	callq  aed0 <safe_sub_func_uint32_t_u_u>
   11819:	85 c0                	test   %eax,%eax
   1181b:	0f 95 c0             	setne  %al
   1181e:	89 c2                	mov    %eax,%edx
   11820:	48 8b 85 88 e5 ff ff 	mov    -0x1a78(%rbp),%rax
   11827:	88 10                	mov    %dl,(%rax)
   11829:	48 8b 85 88 e5 ff ff 	mov    -0x1a78(%rbp),%rax
   11830:	0f b6 00             	movzbl (%rax),%eax
   11833:	0f b6 c0             	movzbl %al,%eax
   11836:	44 89 e6             	mov    %r12d,%esi
   11839:	89 c7                	mov    %eax,%edi
   1183b:	e8 53 93 ff ff       	callq  ab93 <safe_mul_func_uint8_t_u_u>
   11840:	48 8b 95 60 e5 ff ff 	mov    -0x1aa0(%rbp),%rdx
   11847:	8b 12                	mov    (%rdx),%edx
   11849:	0f b6 c0             	movzbl %al,%eax
   1184c:	09 c2                	or     %eax,%edx
   1184e:	48 8b 85 60 e5 ff ff 	mov    -0x1aa0(%rbp),%rax
   11855:	89 10                	mov    %edx,(%rax)
   11857:	48 8b 85 60 e5 ff ff 	mov    -0x1aa0(%rbp),%rax
   1185e:	8b 00                	mov    (%rax),%eax
   11860:	0f be c0             	movsbl %al,%eax
   11863:	89 de                	mov    %ebx,%esi
   11865:	89 c7                	mov    %eax,%edi
   11867:	e8 a6 89 ff ff       	callq  a212 <safe_mul_func_int8_t_s_s>
   1186c:	0f b7 95 1c e3 ff ff 	movzwl -0x1ce4(%rbp),%edx
   11873:	09 d0                	or     %edx,%eax
   11875:	0f b6 d0             	movzbl %al,%edx
   11878:	0f b7 85 1c e3 ff ff 	movzwl -0x1ce4(%rbp),%eax
   1187f:	0f b6 c0             	movzbl %al,%eax
   11882:	89 d6                	mov    %edx,%esi
   11884:	89 c7                	mov    %eax,%edi
   11886:	e8 08 93 ff ff       	callq  ab93 <safe_mul_func_uint8_t_u_u>
   1188b:	0f b6 c0             	movzbl %al,%eax
   1188e:	66 39 85 2c e3 ff ff 	cmp    %ax,-0x1cd4(%rbp)
   11895:	0f 92 c0             	setb   %al
   11898:	0f b6 c0             	movzbl %al,%eax
   1189b:	89 c6                	mov    %eax,%esi
   1189d:	bf 00 00 00 00       	mov    $0x0,%edi
   118a2:	e8 e6 93 ff ff       	callq  ac8d <safe_rshift_func_uint8_t_u_s>
   118a7:	c7 85 54 e3 ff ff 37 	movl   $0xb38c2b37,-0x1cac(%rbp)
   118ae:	2b 8c b3 
   118b1:	48 8b 05 88 e6 00 00 	mov    0xe688(%rip),%rax        # 1ff40 <g_1209>
   118b8:	48 8b 95 f8 e4 ff ff 	mov    -0x1b08(%rbp),%rdx
   118bf:	48 89 10             	mov    %rdx,(%rax)
   118c2:	c7 05 a8 ba 00 00 00 	movl   $0x0,0xbaa8(%rip)        # 1d374 <g_976>
   118c9:	00 00 00 
   118cc:	eb 1d                	jmp    118eb <func_66+0x2227>
   118ce:	48 8b 05 43 f6 00 00 	mov    0xf643(%rip),%rax        # 20f18 <g_1212>
   118d5:	48 89 05 3c f6 00 00 	mov    %rax,0xf63c(%rip)        # 20f18 <g_1212>
   118dc:	8b 05 92 ba 00 00    	mov    0xba92(%rip),%eax        # 1d374 <g_976>
   118e2:	83 c0 01             	add    $0x1,%eax
   118e5:	89 05 89 ba 00 00    	mov    %eax,0xba89(%rip)        # 1d374 <g_976>
   118eb:	8b 05 83 ba 00 00    	mov    0xba83(%rip),%eax        # 1d374 <g_976>
   118f1:	83 f8 03             	cmp    $0x3,%eax
   118f4:	76 d8                	jbe    118ce <func_66+0x220a>
   118f6:	8b 05 b4 b9 00 00    	mov    0xb9b4(%rip),%eax        # 1d2b0 <g_509>
   118fc:	83 c0 01             	add    $0x1,%eax
   118ff:	89 05 ab b9 00 00    	mov    %eax,0xb9ab(%rip)        # 1d2b0 <g_509>
   11905:	8b 05 a5 b9 00 00    	mov    0xb9a5(%rip),%eax        # 1d2b0 <g_509>
   1190b:	83 f8 03             	cmp    $0x3,%eax
   1190e:	0f 86 8e f7 ff ff    	jbe    110a2 <func_66+0x19de>
   11914:	0f b7 05 ed b7 00 00 	movzwl 0xb7ed(%rip),%eax        # 1d108 <g_165>
   1191b:	83 c0 01             	add    $0x1,%eax
   1191e:	66 89 05 e3 b7 00 00 	mov    %ax,0xb7e3(%rip)        # 1d108 <g_165>
   11925:	0f b7 05 dc b7 00 00 	movzwl 0xb7dc(%rip),%eax        # 1d108 <g_165>
   1192c:	66 83 f8 03          	cmp    $0x3,%ax
   11930:	0f 86 d8 e3 ff ff    	jbe    fd0e <func_66+0x64a>
   11936:	eb 04                	jmp    1193c <func_66+0x2278>
   11938:	90                   	nop
   11939:	eb 01                	jmp    1193c <func_66+0x2278>
   1193b:	90                   	nop
   1193c:	c6 85 24 e3 ff ff e6 	movb   $0xe6,-0x1cdc(%rbp)
   11943:	e9 d7 21 00 00       	jmpq   13b1f <func_66+0x445b>
   11948:	c7 85 f4 e3 ff ff 00 	movl   $0x0,-0x1c0c(%rbp)
   1194f:	00 00 00 
   11952:	c7 85 f8 e3 ff ff ba 	movl   $0xd5de1ba,-0x1c08(%rbp)
   11959:	e1 5d 0d 
   1195c:	48 8d 85 00 ef ff ff 	lea    -0x1100(%rbp),%rax
   11963:	48 8d 15 76 7c 00 00 	lea    0x7c76(%rip),%rdx        # 195e0 <g_2140+0x1574>
   1196a:	b9 69 00 00 00       	mov    $0x69,%ecx
   1196f:	48 89 c7             	mov    %rax,%rdi
   11972:	48 89 d6             	mov    %rdx,%rsi
   11975:	f3 48 a5             	rep movsq %ds:(%rsi),%es:(%rdi)
   11978:	48 8d 05 61 e2 00 00 	lea    0xe261(%rip),%rax        # 1fbe0 <g_1001>
   1197f:	48 89 85 80 e7 ff ff 	mov    %rax,-0x1880(%rbp)
   11986:	48 8d 05 53 e2 00 00 	lea    0xe253(%rip),%rax        # 1fbe0 <g_1001>
   1198d:	48 89 85 88 e7 ff ff 	mov    %rax,-0x1878(%rbp)
   11994:	48 8d 05 45 e2 00 00 	lea    0xe245(%rip),%rax        # 1fbe0 <g_1001>
   1199b:	48 89 85 90 e7 ff ff 	mov    %rax,-0x1870(%rbp)
   119a2:	48 8d 05 37 e2 00 00 	lea    0xe237(%rip),%rax        # 1fbe0 <g_1001>
   119a9:	48 89 85 98 e7 ff ff 	mov    %rax,-0x1868(%rbp)
   119b0:	48 8d 05 29 e2 00 00 	lea    0xe229(%rip),%rax        # 1fbe0 <g_1001>
   119b7:	48 89 85 a0 e7 ff ff 	mov    %rax,-0x1860(%rbp)
   119be:	48 8d 05 1b e2 00 00 	lea    0xe21b(%rip),%rax        # 1fbe0 <g_1001>
   119c5:	48 89 85 a8 e7 ff ff 	mov    %rax,-0x1858(%rbp)
   119cc:	48 8d 05 0d e2 00 00 	lea    0xe20d(%rip),%rax        # 1fbe0 <g_1001>
   119d3:	48 89 85 b0 e7 ff ff 	mov    %rax,-0x1850(%rbp)
   119da:	48 8d 05 ff e1 00 00 	lea    0xe1ff(%rip),%rax        # 1fbe0 <g_1001>
   119e1:	48 89 85 b8 e7 ff ff 	mov    %rax,-0x1848(%rbp)
   119e8:	c6 85 25 e3 ff ff 76 	movb   $0x76,-0x1cdb(%rbp)
   119ef:	48 b8 b7 3f c0 a7 9a 	movabs $0x1aad839aa7c03fb7,%rax
   119f6:	83 ad 1a 
   119f9:	48 89 85 98 e5 ff ff 	mov    %rax,-0x1a68(%rbp)
   11a00:	c7 85 fc e3 ff ff 0d 	movl   $0x23d8020d,-0x1c04(%rbp)
   11a07:	02 d8 23 
   11a0a:	48 8d 85 58 e3 ff ff 	lea    -0x1ca8(%rbp),%rax
   11a11:	48 89 85 f0 f7 ff ff 	mov    %rax,-0x810(%rbp)
   11a18:	48 c7 85 f8 f7 ff ff 	movq   $0x0,-0x808(%rbp)
   11a1f:	00 00 00 00 
   11a23:	48 8d 05 fa b7 00 00 	lea    0xb7fa(%rip),%rax        # 1d224 <g_276+0x4>
   11a2a:	48 89 85 00 f8 ff ff 	mov    %rax,-0x800(%rbp)
   11a31:	48 c7 85 08 f8 ff ff 	movq   $0x0,-0x7f8(%rbp)
   11a38:	00 00 00 00 
   11a3c:	48 8d 85 58 e3 ff ff 	lea    -0x1ca8(%rbp),%rax
   11a43:	48 89 85 10 f8 ff ff 	mov    %rax,-0x7f0(%rbp)
   11a4a:	48 8d 05 1f b9 00 00 	lea    0xb91f(%rip),%rax        # 1d370 <g_956>
   11a51:	48 89 85 18 f8 ff ff 	mov    %rax,-0x7e8(%rbp)
   11a58:	48 8d 05 11 b9 00 00 	lea    0xb911(%rip),%rax        # 1d370 <g_956>
   11a5f:	48 89 85 20 f8 ff ff 	mov    %rax,-0x7e0(%rbp)
   11a66:	48 8d 85 58 e3 ff ff 	lea    -0x1ca8(%rbp),%rax
   11a6d:	48 89 85 28 f8 ff ff 	mov    %rax,-0x7d8(%rbp)
   11a74:	48 c7 85 30 f8 ff ff 	movq   $0x0,-0x7d0(%rbp)
   11a7b:	00 00 00 00 
   11a7f:	48 8d 85 58 e3 ff ff 	lea    -0x1ca8(%rbp),%rax
   11a86:	48 89 85 38 f8 ff ff 	mov    %rax,-0x7c8(%rbp)
   11a8d:	48 8d 85 58 e3 ff ff 	lea    -0x1ca8(%rbp),%rax
   11a94:	48 89 85 40 f8 ff ff 	mov    %rax,-0x7c0(%rbp)
   11a9b:	48 c7 85 48 f8 ff ff 	movq   $0x0,-0x7b8(%rbp)
   11aa2:	00 00 00 00 
   11aa6:	48 8d 05 5b b7 00 00 	lea    0xb75b(%rip),%rax        # 1d208 <g_253+0xc8>
   11aad:	48 89 85 50 f8 ff ff 	mov    %rax,-0x7b0(%rbp)
   11ab4:	48 8d 85 58 e3 ff ff 	lea    -0x1ca8(%rbp),%rax
   11abb:	48 89 85 58 f8 ff ff 	mov    %rax,-0x7a8(%rbp)
   11ac2:	48 8d 05 3f b7 00 00 	lea    0xb73f(%rip),%rax        # 1d208 <g_253+0xc8>
   11ac9:	48 89 85 60 f8 ff ff 	mov    %rax,-0x7a0(%rbp)
   11ad0:	48 c7 85 68 f8 ff ff 	movq   $0x0,-0x798(%rbp)
   11ad7:	00 00 00 00 
   11adb:	48 8d 85 58 e3 ff ff 	lea    -0x1ca8(%rbp),%rax
   11ae2:	48 89 85 70 f8 ff ff 	mov    %rax,-0x790(%rbp)
   11ae9:	48 8d 05 18 b7 00 00 	lea    0xb718(%rip),%rax        # 1d208 <g_253+0xc8>
   11af0:	48 89 85 78 f8 ff ff 	mov    %rax,-0x788(%rbp)
   11af7:	48 8d 85 58 e3 ff ff 	lea    -0x1ca8(%rbp),%rax
   11afe:	48 89 85 80 f8 ff ff 	mov    %rax,-0x780(%rbp)
   11b05:	48 8d 05 64 b8 00 00 	lea    0xb864(%rip),%rax        # 1d370 <g_956>
   11b0c:	48 89 85 88 f8 ff ff 	mov    %rax,-0x778(%rbp)
   11b13:	48 8d 05 0a b7 00 00 	lea    0xb70a(%rip),%rax        # 1d224 <g_276+0x4>
   11b1a:	48 89 85 90 f8 ff ff 	mov    %rax,-0x770(%rbp)
   11b21:	48 8d 05 fc b6 00 00 	lea    0xb6fc(%rip),%rax        # 1d224 <g_276+0x4>
   11b28:	48 89 85 98 f8 ff ff 	mov    %rax,-0x768(%rbp)
   11b2f:	48 8d 05 3a b8 00 00 	lea    0xb83a(%rip),%rax        # 1d370 <g_956>
   11b36:	48 89 85 a0 f8 ff ff 	mov    %rax,-0x760(%rbp)
   11b3d:	48 8d 85 58 e3 ff ff 	lea    -0x1ca8(%rbp),%rax
   11b44:	48 89 85 a8 f8 ff ff 	mov    %rax,-0x758(%rbp)
   11b4b:	48 8d 05 b6 b6 00 00 	lea    0xb6b6(%rip),%rax        # 1d208 <g_253+0xc8>
   11b52:	48 89 85 b0 f8 ff ff 	mov    %rax,-0x750(%rbp)
   11b59:	48 8d 05 a8 b6 00 00 	lea    0xb6a8(%rip),%rax        # 1d208 <g_253+0xc8>
   11b60:	48 89 85 b8 f8 ff ff 	mov    %rax,-0x748(%rbp)
   11b67:	48 8d 05 b6 b6 00 00 	lea    0xb6b6(%rip),%rax        # 1d224 <g_276+0x4>
   11b6e:	48 89 85 c0 f8 ff ff 	mov    %rax,-0x740(%rbp)
   11b75:	48 8d 85 58 e3 ff ff 	lea    -0x1ca8(%rbp),%rax
   11b7c:	48 89 85 c8 f8 ff ff 	mov    %rax,-0x738(%rbp)
   11b83:	48 8d 05 a2 b6 00 00 	lea    0xb6a2(%rip),%rax        # 1d22c <g_276+0xc>
   11b8a:	48 89 85 d0 f8 ff ff 	mov    %rax,-0x730(%rbp)
   11b91:	48 8d 85 58 e3 ff ff 	lea    -0x1ca8(%rbp),%rax
   11b98:	48 89 85 d8 f8 ff ff 	mov    %rax,-0x728(%rbp)
   11b9f:	48 8d 05 7e b6 00 00 	lea    0xb67e(%rip),%rax        # 1d224 <g_276+0x4>
   11ba6:	48 89 85 e0 f8 ff ff 	mov    %rax,-0x720(%rbp)
   11bad:	48 8d 05 54 b6 00 00 	lea    0xb654(%rip),%rax        # 1d208 <g_253+0xc8>
   11bb4:	48 89 85 e8 f8 ff ff 	mov    %rax,-0x718(%rbp)
   11bbb:	48 8d 05 46 b6 00 00 	lea    0xb646(%rip),%rax        # 1d208 <g_253+0xc8>
   11bc2:	48 89 85 f0 f8 ff ff 	mov    %rax,-0x710(%rbp)
   11bc9:	48 8d 85 58 e3 ff ff 	lea    -0x1ca8(%rbp),%rax
   11bd0:	48 89 85 f8 f8 ff ff 	mov    %rax,-0x708(%rbp)
   11bd7:	48 8d 05 92 b7 00 00 	lea    0xb792(%rip),%rax        # 1d370 <g_956>
   11bde:	48 89 85 00 f9 ff ff 	mov    %rax,-0x700(%rbp)
   11be5:	48 8d 05 38 b6 00 00 	lea    0xb638(%rip),%rax        # 1d224 <g_276+0x4>
   11bec:	48 89 85 08 f9 ff ff 	mov    %rax,-0x6f8(%rbp)
   11bf3:	48 8d 05 2a b6 00 00 	lea    0xb62a(%rip),%rax        # 1d224 <g_276+0x4>
   11bfa:	48 89 85 10 f9 ff ff 	mov    %rax,-0x6f0(%rbp)
   11c01:	48 8d 05 68 b7 00 00 	lea    0xb768(%rip),%rax        # 1d370 <g_956>
   11c08:	48 89 85 18 f9 ff ff 	mov    %rax,-0x6e8(%rbp)
   11c0f:	48 8d 85 58 e3 ff ff 	lea    -0x1ca8(%rbp),%rax
   11c16:	48 89 85 20 f9 ff ff 	mov    %rax,-0x6e0(%rbp)
   11c1d:	48 8d 05 e4 b5 00 00 	lea    0xb5e4(%rip),%rax        # 1d208 <g_253+0xc8>
   11c24:	48 89 85 28 f9 ff ff 	mov    %rax,-0x6d8(%rbp)
   11c2b:	48 8d 85 58 e3 ff ff 	lea    -0x1ca8(%rbp),%rax
   11c32:	48 89 85 30 f9 ff ff 	mov    %rax,-0x6d0(%rbp)
   11c39:	48 c7 85 38 f9 ff ff 	movq   $0x0,-0x6c8(%rbp)
   11c40:	00 00 00 00 
   11c44:	48 8d 05 bd b5 00 00 	lea    0xb5bd(%rip),%rax        # 1d208 <g_253+0xc8>
   11c4b:	48 89 85 40 f9 ff ff 	mov    %rax,-0x6c0(%rbp)
   11c52:	48 8d 85 58 e3 ff ff 	lea    -0x1ca8(%rbp),%rax
   11c59:	48 89 85 48 f9 ff ff 	mov    %rax,-0x6b8(%rbp)
   11c60:	48 8d 05 a1 b5 00 00 	lea    0xb5a1(%rip),%rax        # 1d208 <g_253+0xc8>
   11c67:	48 89 85 50 f9 ff ff 	mov    %rax,-0x6b0(%rbp)
   11c6e:	48 c7 85 58 f9 ff ff 	movq   $0x0,-0x6a8(%rbp)
   11c75:	00 00 00 00 
   11c79:	48 8d 85 58 e3 ff ff 	lea    -0x1ca8(%rbp),%rax
   11c80:	48 89 85 60 f9 ff ff 	mov    %rax,-0x6a0(%rbp)
   11c87:	48 8d 85 58 e3 ff ff 	lea    -0x1ca8(%rbp),%rax
   11c8e:	48 89 85 68 f9 ff ff 	mov    %rax,-0x698(%rbp)
   11c95:	48 c7 85 70 f9 ff ff 	movq   $0x0,-0x690(%rbp)
   11c9c:	00 00 00 00 
   11ca0:	48 8d 85 58 e3 ff ff 	lea    -0x1ca8(%rbp),%rax
   11ca7:	48 89 85 78 f9 ff ff 	mov    %rax,-0x688(%rbp)
   11cae:	48 8d 05 bb b6 00 00 	lea    0xb6bb(%rip),%rax        # 1d370 <g_956>
   11cb5:	48 89 85 80 f9 ff ff 	mov    %rax,-0x680(%rbp)
   11cbc:	48 8d 05 ad b6 00 00 	lea    0xb6ad(%rip),%rax        # 1d370 <g_956>
   11cc3:	48 89 85 88 f9 ff ff 	mov    %rax,-0x678(%rbp)
   11cca:	48 8d 85 58 e3 ff ff 	lea    -0x1ca8(%rbp),%rax
   11cd1:	48 89 85 90 f9 ff ff 	mov    %rax,-0x670(%rbp)
   11cd8:	48 c7 85 98 f9 ff ff 	movq   $0x0,-0x668(%rbp)
   11cdf:	00 00 00 00 
   11ce3:	48 8d 05 3a b5 00 00 	lea    0xb53a(%rip),%rax        # 1d224 <g_276+0x4>
   11cea:	48 89 85 a0 f9 ff ff 	mov    %rax,-0x660(%rbp)
   11cf1:	48 c7 85 a8 f9 ff ff 	movq   $0x0,-0x658(%rbp)
   11cf8:	00 00 00 00 
   11cfc:	48 8d 85 58 e3 ff ff 	lea    -0x1ca8(%rbp),%rax
   11d03:	48 89 85 b0 f9 ff ff 	mov    %rax,-0x650(%rbp)
   11d0a:	48 c7 85 b8 f9 ff ff 	movq   $0x0,-0x648(%rbp)
   11d11:	00 00 00 00 
   11d15:	48 8d 05 08 b5 00 00 	lea    0xb508(%rip),%rax        # 1d224 <g_276+0x4>
   11d1c:	48 89 85 c0 f9 ff ff 	mov    %rax,-0x640(%rbp)
   11d23:	48 c7 85 c8 f9 ff ff 	movq   $0x0,-0x638(%rbp)
   11d2a:	00 00 00 00 
   11d2e:	48 8d 85 58 e3 ff ff 	lea    -0x1ca8(%rbp),%rax
   11d35:	48 89 85 d0 f9 ff ff 	mov    %rax,-0x630(%rbp)
   11d3c:	48 8d 05 2d b6 00 00 	lea    0xb62d(%rip),%rax        # 1d370 <g_956>
   11d43:	48 89 85 d8 f9 ff ff 	mov    %rax,-0x628(%rbp)
   11d4a:	48 8d 05 1f b6 00 00 	lea    0xb61f(%rip),%rax        # 1d370 <g_956>
   11d51:	48 89 85 e0 f9 ff ff 	mov    %rax,-0x620(%rbp)
   11d58:	48 8d 85 58 e3 ff ff 	lea    -0x1ca8(%rbp),%rax
   11d5f:	48 89 85 e8 f9 ff ff 	mov    %rax,-0x618(%rbp)
   11d66:	48 c7 85 f0 f9 ff ff 	movq   $0x0,-0x610(%rbp)
   11d6d:	00 00 00 00 
   11d71:	48 8d 85 58 e3 ff ff 	lea    -0x1ca8(%rbp),%rax
   11d78:	48 89 85 f8 f9 ff ff 	mov    %rax,-0x608(%rbp)
   11d7f:	48 8d 85 58 e3 ff ff 	lea    -0x1ca8(%rbp),%rax
   11d86:	48 89 85 00 fa ff ff 	mov    %rax,-0x600(%rbp)
   11d8d:	48 c7 85 08 fa ff ff 	movq   $0x0,-0x5f8(%rbp)
   11d94:	00 00 00 00 
   11d98:	48 8d 05 69 b4 00 00 	lea    0xb469(%rip),%rax        # 1d208 <g_253+0xc8>
   11d9f:	48 89 85 10 fa ff ff 	mov    %rax,-0x5f0(%rbp)
   11da6:	48 8d 85 58 e3 ff ff 	lea    -0x1ca8(%rbp),%rax
   11dad:	48 89 85 18 fa ff ff 	mov    %rax,-0x5e8(%rbp)
   11db4:	48 8d 05 4d b4 00 00 	lea    0xb44d(%rip),%rax        # 1d208 <g_253+0xc8>
   11dbb:	48 89 85 20 fa ff ff 	mov    %rax,-0x5e0(%rbp)
   11dc2:	48 c7 85 28 fa ff ff 	movq   $0x0,-0x5d8(%rbp)
   11dc9:	00 00 00 00 
   11dcd:	48 8d 85 58 e3 ff ff 	lea    -0x1ca8(%rbp),%rax
   11dd4:	48 89 85 30 fa ff ff 	mov    %rax,-0x5d0(%rbp)
   11ddb:	48 8d 05 26 b4 00 00 	lea    0xb426(%rip),%rax        # 1d208 <g_253+0xc8>
   11de2:	48 89 85 38 fa ff ff 	mov    %rax,-0x5c8(%rbp)
   11de9:	48 8d 85 58 e3 ff ff 	lea    -0x1ca8(%rbp),%rax
   11df0:	48 89 85 40 fa ff ff 	mov    %rax,-0x5c0(%rbp)
   11df7:	48 8d 05 72 b5 00 00 	lea    0xb572(%rip),%rax        # 1d370 <g_956>
   11dfe:	48 89 85 48 fa ff ff 	mov    %rax,-0x5b8(%rbp)
   11e05:	48 8d 05 18 b4 00 00 	lea    0xb418(%rip),%rax        # 1d224 <g_276+0x4>
   11e0c:	48 89 85 50 fa ff ff 	mov    %rax,-0x5b0(%rbp)
   11e13:	48 8d 05 0a b4 00 00 	lea    0xb40a(%rip),%rax        # 1d224 <g_276+0x4>
   11e1a:	48 89 85 58 fa ff ff 	mov    %rax,-0x5a8(%rbp)
   11e21:	48 8d 05 48 b5 00 00 	lea    0xb548(%rip),%rax        # 1d370 <g_956>
   11e28:	48 89 85 60 fa ff ff 	mov    %rax,-0x5a0(%rbp)
   11e2f:	48 8d 85 58 e3 ff ff 	lea    -0x1ca8(%rbp),%rax
   11e36:	48 89 85 68 fa ff ff 	mov    %rax,-0x598(%rbp)
   11e3d:	48 8d 05 c4 b3 00 00 	lea    0xb3c4(%rip),%rax        # 1d208 <g_253+0xc8>
   11e44:	48 89 85 70 fa ff ff 	mov    %rax,-0x590(%rbp)
   11e4b:	48 8d 05 b6 b3 00 00 	lea    0xb3b6(%rip),%rax        # 1d208 <g_253+0xc8>
   11e52:	48 89 85 78 fa ff ff 	mov    %rax,-0x588(%rbp)
   11e59:	48 8d 05 c4 b3 00 00 	lea    0xb3c4(%rip),%rax        # 1d224 <g_276+0x4>
   11e60:	48 89 85 80 fa ff ff 	mov    %rax,-0x580(%rbp)
   11e67:	48 8d 85 58 e3 ff ff 	lea    -0x1ca8(%rbp),%rax
   11e6e:	48 89 85 88 fa ff ff 	mov    %rax,-0x578(%rbp)
   11e75:	48 8d 05 b0 b3 00 00 	lea    0xb3b0(%rip),%rax        # 1d22c <g_276+0xc>
   11e7c:	48 89 85 90 fa ff ff 	mov    %rax,-0x570(%rbp)
   11e83:	48 8d 85 58 e3 ff ff 	lea    -0x1ca8(%rbp),%rax
   11e8a:	48 89 85 98 fa ff ff 	mov    %rax,-0x568(%rbp)
   11e91:	48 8d 05 8c b3 00 00 	lea    0xb38c(%rip),%rax        # 1d224 <g_276+0x4>
   11e98:	48 89 85 a0 fa ff ff 	mov    %rax,-0x560(%rbp)
   11e9f:	48 8d 05 62 b3 00 00 	lea    0xb362(%rip),%rax        # 1d208 <g_253+0xc8>
   11ea6:	48 89 85 a8 fa ff ff 	mov    %rax,-0x558(%rbp)
   11ead:	48 8d 05 54 b3 00 00 	lea    0xb354(%rip),%rax        # 1d208 <g_253+0xc8>
   11eb4:	48 89 85 b0 fa ff ff 	mov    %rax,-0x550(%rbp)
   11ebb:	48 8d 85 58 e3 ff ff 	lea    -0x1ca8(%rbp),%rax
   11ec2:	48 89 85 b8 fa ff ff 	mov    %rax,-0x548(%rbp)
   11ec9:	48 8d 05 a0 b4 00 00 	lea    0xb4a0(%rip),%rax        # 1d370 <g_956>
   11ed0:	48 89 85 c0 fa ff ff 	mov    %rax,-0x540(%rbp)
   11ed7:	48 8d 05 46 b3 00 00 	lea    0xb346(%rip),%rax        # 1d224 <g_276+0x4>
   11ede:	48 89 85 c8 fa ff ff 	mov    %rax,-0x538(%rbp)
   11ee5:	48 8d 05 38 b3 00 00 	lea    0xb338(%rip),%rax        # 1d224 <g_276+0x4>
   11eec:	48 89 85 d0 fa ff ff 	mov    %rax,-0x530(%rbp)
   11ef3:	48 8d 05 76 b4 00 00 	lea    0xb476(%rip),%rax        # 1d370 <g_956>
   11efa:	48 89 85 d8 fa ff ff 	mov    %rax,-0x528(%rbp)
   11f01:	48 8d 85 58 e3 ff ff 	lea    -0x1ca8(%rbp),%rax
   11f08:	48 89 85 e0 fa ff ff 	mov    %rax,-0x520(%rbp)
   11f0f:	48 8d 05 f2 b2 00 00 	lea    0xb2f2(%rip),%rax        # 1d208 <g_253+0xc8>
   11f16:	48 89 85 e8 fa ff ff 	mov    %rax,-0x518(%rbp)
   11f1d:	48 8d 85 58 e3 ff ff 	lea    -0x1ca8(%rbp),%rax
   11f24:	48 89 85 f0 fa ff ff 	mov    %rax,-0x510(%rbp)
   11f2b:	48 c7 85 f8 fa ff ff 	movq   $0x0,-0x508(%rbp)
   11f32:	00 00 00 00 
   11f36:	48 8d 05 cb b2 00 00 	lea    0xb2cb(%rip),%rax        # 1d208 <g_253+0xc8>
   11f3d:	48 89 85 00 fb ff ff 	mov    %rax,-0x500(%rbp)
   11f44:	48 8d 85 58 e3 ff ff 	lea    -0x1ca8(%rbp),%rax
   11f4b:	48 89 85 08 fb ff ff 	mov    %rax,-0x4f8(%rbp)
   11f52:	48 8d 05 af b2 00 00 	lea    0xb2af(%rip),%rax        # 1d208 <g_253+0xc8>
   11f59:	48 89 85 10 fb ff ff 	mov    %rax,-0x4f0(%rbp)
   11f60:	48 c7 85 18 fb ff ff 	movq   $0x0,-0x4e8(%rbp)
   11f67:	00 00 00 00 
   11f6b:	48 8d 85 58 e3 ff ff 	lea    -0x1ca8(%rbp),%rax
   11f72:	48 89 85 20 fb ff ff 	mov    %rax,-0x4e0(%rbp)
   11f79:	48 8d 85 58 e3 ff ff 	lea    -0x1ca8(%rbp),%rax
   11f80:	48 89 85 28 fb ff ff 	mov    %rax,-0x4d8(%rbp)
   11f87:	48 c7 85 30 fb ff ff 	movq   $0x0,-0x4d0(%rbp)
   11f8e:	00 00 00 00 
   11f92:	48 8d 85 58 e3 ff ff 	lea    -0x1ca8(%rbp),%rax
   11f99:	48 89 85 38 fb ff ff 	mov    %rax,-0x4c8(%rbp)
   11fa0:	48 8d 05 c9 b3 00 00 	lea    0xb3c9(%rip),%rax        # 1d370 <g_956>
   11fa7:	48 89 85 40 fb ff ff 	mov    %rax,-0x4c0(%rbp)
   11fae:	48 8d 05 bb b3 00 00 	lea    0xb3bb(%rip),%rax        # 1d370 <g_956>
   11fb5:	48 89 85 48 fb ff ff 	mov    %rax,-0x4b8(%rbp)
   11fbc:	48 8d 85 58 e3 ff ff 	lea    -0x1ca8(%rbp),%rax
   11fc3:	48 89 85 50 fb ff ff 	mov    %rax,-0x4b0(%rbp)
   11fca:	48 c7 85 58 fb ff ff 	movq   $0x0,-0x4a8(%rbp)
   11fd1:	00 00 00 00 
   11fd5:	48 8d 05 48 b2 00 00 	lea    0xb248(%rip),%rax        # 1d224 <g_276+0x4>
   11fdc:	48 89 85 60 fb ff ff 	mov    %rax,-0x4a0(%rbp)
   11fe3:	48 c7 85 68 fb ff ff 	movq   $0x0,-0x498(%rbp)
   11fea:	00 00 00 00 
   11fee:	48 8d 85 58 e3 ff ff 	lea    -0x1ca8(%rbp),%rax
   11ff5:	48 89 85 70 fb ff ff 	mov    %rax,-0x490(%rbp)
   11ffc:	48 c7 85 78 fb ff ff 	movq   $0x0,-0x488(%rbp)
   12003:	00 00 00 00 
   12007:	48 8d 05 16 b2 00 00 	lea    0xb216(%rip),%rax        # 1d224 <g_276+0x4>
   1200e:	48 89 85 80 fb ff ff 	mov    %rax,-0x480(%rbp)
   12015:	48 c7 85 88 fb ff ff 	movq   $0x0,-0x478(%rbp)
   1201c:	00 00 00 00 
   12020:	48 8d 85 58 e3 ff ff 	lea    -0x1ca8(%rbp),%rax
   12027:	48 89 85 90 fb ff ff 	mov    %rax,-0x470(%rbp)
   1202e:	48 8d 05 3b b3 00 00 	lea    0xb33b(%rip),%rax        # 1d370 <g_956>
   12035:	48 89 85 98 fb ff ff 	mov    %rax,-0x468(%rbp)
   1203c:	48 8d 05 2d b3 00 00 	lea    0xb32d(%rip),%rax        # 1d370 <g_956>
   12043:	48 89 85 a0 fb ff ff 	mov    %rax,-0x460(%rbp)
   1204a:	48 8d 85 58 e3 ff ff 	lea    -0x1ca8(%rbp),%rax
   12051:	48 89 85 a8 fb ff ff 	mov    %rax,-0x458(%rbp)
   12058:	48 c7 85 b0 fb ff ff 	movq   $0x0,-0x450(%rbp)
   1205f:	00 00 00 00 
   12063:	48 8d 85 58 e3 ff ff 	lea    -0x1ca8(%rbp),%rax
   1206a:	48 89 85 b8 fb ff ff 	mov    %rax,-0x448(%rbp)
   12071:	48 8d 85 58 e3 ff ff 	lea    -0x1ca8(%rbp),%rax
   12078:	48 89 85 c0 fb ff ff 	mov    %rax,-0x440(%rbp)
   1207f:	48 c7 85 c8 fb ff ff 	movq   $0x0,-0x438(%rbp)
   12086:	00 00 00 00 
   1208a:	48 8d 05 77 b1 00 00 	lea    0xb177(%rip),%rax        # 1d208 <g_253+0xc8>
   12091:	48 89 85 d0 fb ff ff 	mov    %rax,-0x430(%rbp)
   12098:	48 8d 85 58 e3 ff ff 	lea    -0x1ca8(%rbp),%rax
   1209f:	48 89 85 d8 fb ff ff 	mov    %rax,-0x428(%rbp)
   120a6:	48 8d 05 5b b1 00 00 	lea    0xb15b(%rip),%rax        # 1d208 <g_253+0xc8>
   120ad:	48 89 85 e0 fb ff ff 	mov    %rax,-0x420(%rbp)
   120b4:	48 c7 85 e8 fb ff ff 	movq   $0x0,-0x418(%rbp)
   120bb:	00 00 00 00 
   120bf:	48 8d 85 58 e3 ff ff 	lea    -0x1ca8(%rbp),%rax
   120c6:	48 89 85 f0 fb ff ff 	mov    %rax,-0x410(%rbp)
   120cd:	48 8d 05 34 b1 00 00 	lea    0xb134(%rip),%rax        # 1d208 <g_253+0xc8>
   120d4:	48 89 85 f8 fb ff ff 	mov    %rax,-0x408(%rbp)
   120db:	48 8d 85 58 e3 ff ff 	lea    -0x1ca8(%rbp),%rax
   120e2:	48 89 85 00 fc ff ff 	mov    %rax,-0x400(%rbp)
   120e9:	48 8d 05 80 b2 00 00 	lea    0xb280(%rip),%rax        # 1d370 <g_956>
   120f0:	48 89 85 08 fc ff ff 	mov    %rax,-0x3f8(%rbp)
   120f7:	48 8d 05 26 b1 00 00 	lea    0xb126(%rip),%rax        # 1d224 <g_276+0x4>
   120fe:	48 89 85 10 fc ff ff 	mov    %rax,-0x3f0(%rbp)
   12105:	48 8d 05 18 b1 00 00 	lea    0xb118(%rip),%rax        # 1d224 <g_276+0x4>
   1210c:	48 89 85 18 fc ff ff 	mov    %rax,-0x3e8(%rbp)
   12113:	48 8d 05 56 b2 00 00 	lea    0xb256(%rip),%rax        # 1d370 <g_956>
   1211a:	48 89 85 20 fc ff ff 	mov    %rax,-0x3e0(%rbp)
   12121:	48 8d 85 58 e3 ff ff 	lea    -0x1ca8(%rbp),%rax
   12128:	48 89 85 28 fc ff ff 	mov    %rax,-0x3d8(%rbp)
   1212f:	48 8d 05 d2 b0 00 00 	lea    0xb0d2(%rip),%rax        # 1d208 <g_253+0xc8>
   12136:	48 89 85 30 fc ff ff 	mov    %rax,-0x3d0(%rbp)
   1213d:	48 8d 05 c4 b0 00 00 	lea    0xb0c4(%rip),%rax        # 1d208 <g_253+0xc8>
   12144:	48 89 85 38 fc ff ff 	mov    %rax,-0x3c8(%rbp)
   1214b:	48 8d 05 d2 b0 00 00 	lea    0xb0d2(%rip),%rax        # 1d224 <g_276+0x4>
   12152:	48 89 85 40 fc ff ff 	mov    %rax,-0x3c0(%rbp)
   12159:	48 8d 85 58 e3 ff ff 	lea    -0x1ca8(%rbp),%rax
   12160:	48 89 85 48 fc ff ff 	mov    %rax,-0x3b8(%rbp)
   12167:	48 8d 05 be b0 00 00 	lea    0xb0be(%rip),%rax        # 1d22c <g_276+0xc>
   1216e:	48 89 85 50 fc ff ff 	mov    %rax,-0x3b0(%rbp)
   12175:	48 8d 85 58 e3 ff ff 	lea    -0x1ca8(%rbp),%rax
   1217c:	48 89 85 58 fc ff ff 	mov    %rax,-0x3a8(%rbp)
   12183:	48 8d 05 9a b0 00 00 	lea    0xb09a(%rip),%rax        # 1d224 <g_276+0x4>
   1218a:	48 89 85 60 fc ff ff 	mov    %rax,-0x3a0(%rbp)
   12191:	48 8d 05 70 b0 00 00 	lea    0xb070(%rip),%rax        # 1d208 <g_253+0xc8>
   12198:	48 89 85 68 fc ff ff 	mov    %rax,-0x398(%rbp)
   1219f:	48 8d 05 62 b0 00 00 	lea    0xb062(%rip),%rax        # 1d208 <g_253+0xc8>
   121a6:	48 89 85 70 fc ff ff 	mov    %rax,-0x390(%rbp)
   121ad:	48 8d 85 58 e3 ff ff 	lea    -0x1ca8(%rbp),%rax
   121b4:	48 89 85 78 fc ff ff 	mov    %rax,-0x388(%rbp)
   121bb:	48 8d 05 ae b1 00 00 	lea    0xb1ae(%rip),%rax        # 1d370 <g_956>
   121c2:	48 89 85 80 fc ff ff 	mov    %rax,-0x380(%rbp)
   121c9:	48 8d 05 54 b0 00 00 	lea    0xb054(%rip),%rax        # 1d224 <g_276+0x4>
   121d0:	48 89 85 88 fc ff ff 	mov    %rax,-0x378(%rbp)
   121d7:	48 8d 05 46 b0 00 00 	lea    0xb046(%rip),%rax        # 1d224 <g_276+0x4>
   121de:	48 89 85 90 fc ff ff 	mov    %rax,-0x370(%rbp)
   121e5:	48 8d 05 84 b1 00 00 	lea    0xb184(%rip),%rax        # 1d370 <g_956>
   121ec:	48 89 85 98 fc ff ff 	mov    %rax,-0x368(%rbp)
   121f3:	48 8d 85 58 e3 ff ff 	lea    -0x1ca8(%rbp),%rax
   121fa:	48 89 85 a0 fc ff ff 	mov    %rax,-0x360(%rbp)
   12201:	48 8d 05 00 b0 00 00 	lea    0xb000(%rip),%rax        # 1d208 <g_253+0xc8>
   12208:	48 89 85 a8 fc ff ff 	mov    %rax,-0x358(%rbp)
   1220f:	48 8d 85 58 e3 ff ff 	lea    -0x1ca8(%rbp),%rax
   12216:	48 89 85 b0 fc ff ff 	mov    %rax,-0x350(%rbp)
   1221d:	48 c7 85 b8 fc ff ff 	movq   $0x0,-0x348(%rbp)
   12224:	00 00 00 00 
   12228:	48 8d 05 d9 af 00 00 	lea    0xafd9(%rip),%rax        # 1d208 <g_253+0xc8>
   1222f:	48 89 85 c0 fc ff ff 	mov    %rax,-0x340(%rbp)
   12236:	48 8d 85 58 e3 ff ff 	lea    -0x1ca8(%rbp),%rax
   1223d:	48 89 85 c8 fc ff ff 	mov    %rax,-0x338(%rbp)
   12244:	48 8d 05 bd af 00 00 	lea    0xafbd(%rip),%rax        # 1d208 <g_253+0xc8>
   1224b:	48 89 85 d0 fc ff ff 	mov    %rax,-0x330(%rbp)
   12252:	48 c7 85 d8 fc ff ff 	movq   $0x0,-0x328(%rbp)
   12259:	00 00 00 00 
   1225d:	48 8d 85 58 e3 ff ff 	lea    -0x1ca8(%rbp),%rax
   12264:	48 89 85 e0 fc ff ff 	mov    %rax,-0x320(%rbp)
   1226b:	48 8d 85 58 e3 ff ff 	lea    -0x1ca8(%rbp),%rax
   12272:	48 89 85 e8 fc ff ff 	mov    %rax,-0x318(%rbp)
   12279:	48 c7 85 f0 fc ff ff 	movq   $0x0,-0x310(%rbp)
   12280:	00 00 00 00 
   12284:	48 8d 85 58 e3 ff ff 	lea    -0x1ca8(%rbp),%rax
   1228b:	48 89 85 f8 fc ff ff 	mov    %rax,-0x308(%rbp)
   12292:	48 8d 05 d7 b0 00 00 	lea    0xb0d7(%rip),%rax        # 1d370 <g_956>
   12299:	48 89 85 00 fd ff ff 	mov    %rax,-0x300(%rbp)
   122a0:	48 8d 05 c9 b0 00 00 	lea    0xb0c9(%rip),%rax        # 1d370 <g_956>
   122a7:	48 89 85 08 fd ff ff 	mov    %rax,-0x2f8(%rbp)
   122ae:	48 8d 85 58 e3 ff ff 	lea    -0x1ca8(%rbp),%rax
   122b5:	48 89 85 10 fd ff ff 	mov    %rax,-0x2f0(%rbp)
   122bc:	48 c7 85 18 fd ff ff 	movq   $0x0,-0x2e8(%rbp)
   122c3:	00 00 00 00 
   122c7:	48 8d 05 56 af 00 00 	lea    0xaf56(%rip),%rax        # 1d224 <g_276+0x4>
   122ce:	48 89 85 20 fd ff ff 	mov    %rax,-0x2e0(%rbp)
   122d5:	48 c7 85 28 fd ff ff 	movq   $0x0,-0x2d8(%rbp)
   122dc:	00 00 00 00 
   122e0:	48 8d 85 58 e3 ff ff 	lea    -0x1ca8(%rbp),%rax
   122e7:	48 89 85 30 fd ff ff 	mov    %rax,-0x2d0(%rbp)
   122ee:	48 c7 85 38 fd ff ff 	movq   $0x0,-0x2c8(%rbp)
   122f5:	00 00 00 00 
   122f9:	48 8d 05 24 af 00 00 	lea    0xaf24(%rip),%rax        # 1d224 <g_276+0x4>
   12300:	48 89 85 40 fd ff ff 	mov    %rax,-0x2c0(%rbp)
   12307:	48 c7 85 48 fd ff ff 	movq   $0x0,-0x2b8(%rbp)
   1230e:	00 00 00 00 
   12312:	48 8d 85 58 e3 ff ff 	lea    -0x1ca8(%rbp),%rax
   12319:	48 89 85 50 fd ff ff 	mov    %rax,-0x2b0(%rbp)
   12320:	48 8d 05 49 b0 00 00 	lea    0xb049(%rip),%rax        # 1d370 <g_956>
   12327:	48 89 85 58 fd ff ff 	mov    %rax,-0x2a8(%rbp)
   1232e:	48 8d 05 3b b0 00 00 	lea    0xb03b(%rip),%rax        # 1d370 <g_956>
   12335:	48 89 85 60 fd ff ff 	mov    %rax,-0x2a0(%rbp)
   1233c:	48 8d 85 58 e3 ff ff 	lea    -0x1ca8(%rbp),%rax
   12343:	48 89 85 68 fd ff ff 	mov    %rax,-0x298(%rbp)
   1234a:	48 c7 85 70 fd ff ff 	movq   $0x0,-0x290(%rbp)
   12351:	00 00 00 00 
   12355:	48 8d 85 58 e3 ff ff 	lea    -0x1ca8(%rbp),%rax
   1235c:	48 89 85 78 fd ff ff 	mov    %rax,-0x288(%rbp)
   12363:	48 8d 85 58 e3 ff ff 	lea    -0x1ca8(%rbp),%rax
   1236a:	48 89 85 80 fd ff ff 	mov    %rax,-0x280(%rbp)
   12371:	48 c7 85 88 fd ff ff 	movq   $0x0,-0x278(%rbp)
   12378:	00 00 00 00 
   1237c:	48 8d 05 85 ae 00 00 	lea    0xae85(%rip),%rax        # 1d208 <g_253+0xc8>
   12383:	48 89 85 90 fd ff ff 	mov    %rax,-0x270(%rbp)
   1238a:	48 8d 85 58 e3 ff ff 	lea    -0x1ca8(%rbp),%rax
   12391:	48 89 85 98 fd ff ff 	mov    %rax,-0x268(%rbp)
   12398:	48 8d 05 69 ae 00 00 	lea    0xae69(%rip),%rax        # 1d208 <g_253+0xc8>
   1239f:	48 89 85 a0 fd ff ff 	mov    %rax,-0x260(%rbp)
   123a6:	48 c7 85 a8 fd ff ff 	movq   $0x0,-0x258(%rbp)
   123ad:	00 00 00 00 
   123b1:	48 8d 85 58 e3 ff ff 	lea    -0x1ca8(%rbp),%rax
   123b8:	48 89 85 b0 fd ff ff 	mov    %rax,-0x250(%rbp)
   123bf:	48 8d 05 42 ae 00 00 	lea    0xae42(%rip),%rax        # 1d208 <g_253+0xc8>
   123c6:	48 89 85 b8 fd ff ff 	mov    %rax,-0x248(%rbp)
   123cd:	48 8d 85 58 e3 ff ff 	lea    -0x1ca8(%rbp),%rax
   123d4:	48 89 85 c0 fd ff ff 	mov    %rax,-0x240(%rbp)
   123db:	48 8d 05 8e af 00 00 	lea    0xaf8e(%rip),%rax        # 1d370 <g_956>
   123e2:	48 89 85 c8 fd ff ff 	mov    %rax,-0x238(%rbp)
   123e9:	48 8d 05 34 ae 00 00 	lea    0xae34(%rip),%rax        # 1d224 <g_276+0x4>
   123f0:	48 89 85 d0 fd ff ff 	mov    %rax,-0x230(%rbp)
   123f7:	48 8d 05 0a ae 00 00 	lea    0xae0a(%rip),%rax        # 1d208 <g_253+0xc8>
   123fe:	48 89 85 d8 fd ff ff 	mov    %rax,-0x228(%rbp)
   12405:	48 8d 05 18 ae 00 00 	lea    0xae18(%rip),%rax        # 1d224 <g_276+0x4>
   1240c:	48 89 85 e0 fd ff ff 	mov    %rax,-0x220(%rbp)
   12413:	48 8d 85 58 e3 ff ff 	lea    -0x1ca8(%rbp),%rax
   1241a:	48 89 85 e8 fd ff ff 	mov    %rax,-0x218(%rbp)
   12421:	48 8d 05 18 ac 00 00 	lea    0xac18(%rip),%rax        # 1d040 <g_42>
   12428:	48 89 85 a0 e5 ff ff 	mov    %rax,-0x1a60(%rbp)
   1242f:	c7 85 bc e3 ff ff 00 	movl   $0x0,-0x1c44(%rbp)
   12436:	00 00 00 
   12439:	eb 1e                	jmp    12459 <func_66+0x2d95>
   1243b:	8b 85 bc e3 ff ff    	mov    -0x1c44(%rbp),%eax
   12441:	48 98                	cltq   
   12443:	48 8d 15 ae d7 00 00 	lea    0xd7ae(%rip),%rdx        # 1fbf8 <g_1001+0x18>
   1244a:	48 89 94 c5 c0 e7 ff 	mov    %rdx,-0x1840(%rbp,%rax,8)
   12451:	ff 
   12452:	83 85 bc e3 ff ff 01 	addl   $0x1,-0x1c44(%rbp)
   12459:	83 bd bc e3 ff ff 08 	cmpl   $0x8,-0x1c44(%rbp)
   12460:	7e d9                	jle    1243b <func_66+0x2d77>
   12462:	c7 85 bc e3 ff ff 00 	movl   $0x0,-0x1c44(%rbp)
   12469:	00 00 00 
   1246c:	eb 78                	jmp    124e6 <func_66+0x2e22>
   1246e:	c7 85 c0 e3 ff ff 00 	movl   $0x0,-0x1c40(%rbp)
   12475:	00 00 00 
   12478:	eb 5c                	jmp    124d6 <func_66+0x2e12>
   1247a:	c7 85 c4 e3 ff ff 00 	movl   $0x0,-0x1c3c(%rbp)
   12481:	00 00 00 
   12484:	eb 40                	jmp    124c6 <func_66+0x2e02>
   12486:	8b 85 c4 e3 ff ff    	mov    -0x1c3c(%rbp),%eax
   1248c:	48 63 c8             	movslq %eax,%rcx
   1248f:	8b 85 bc e3 ff ff    	mov    -0x1c44(%rbp),%eax
   12495:	48 63 d0             	movslq %eax,%rdx
   12498:	8b 85 c0 e3 ff ff    	mov    -0x1c40(%rbp),%eax
   1249e:	48 98                	cltq   
   124a0:	48 01 c2             	add    %rax,%rdx
   124a3:	48 89 d0             	mov    %rdx,%rax
   124a6:	48 01 c0             	add    %rax,%rax
   124a9:	48 01 d0             	add    %rdx,%rax
   124ac:	48 8d 5d e0          	lea    -0x20(%rbp),%rbx
   124b0:	48 01 d8             	add    %rbx,%rax
   124b3:	48 01 c8             	add    %rcx,%rax
   124b6:	48 2d f3 18 00 00    	sub    $0x18f3,%rax
   124bc:	c6 00 46             	movb   $0x46,(%rax)
   124bf:	83 85 c4 e3 ff ff 01 	addl   $0x1,-0x1c3c(%rbp)
   124c6:	83 bd c4 e3 ff ff 02 	cmpl   $0x2,-0x1c3c(%rbp)
   124cd:	7e b7                	jle    12486 <func_66+0x2dc2>
   124cf:	83 85 c0 e3 ff ff 01 	addl   $0x1,-0x1c40(%rbp)
   124d6:	83 bd c0 e3 ff ff 00 	cmpl   $0x0,-0x1c40(%rbp)
   124dd:	7e 9b                	jle    1247a <func_66+0x2db6>
   124df:	83 85 bc e3 ff ff 01 	addl   $0x1,-0x1c44(%rbp)
   124e6:	83 bd bc e3 ff ff 00 	cmpl   $0x0,-0x1c44(%rbp)
   124ed:	0f 8e 7b ff ff ff    	jle    1246e <func_66+0x2daa>
   124f3:	83 85 f4 e3 ff ff 01 	addl   $0x1,-0x1c0c(%rbp)
   124fa:	c7 05 40 ad 00 00 ff 	movl   $0xffffffff,0xad40(%rip)        # 1d244 <g_284>
   12501:	ff ff ff 
   12504:	e9 e6 15 00 00       	jmpq   13aef <func_66+0x442b>
   12509:	48 8d 05 60 d1 00 00 	lea    0xd160(%rip),%rax        # 1f670 <g_293>
   12510:	48 89 85 a8 e5 ff ff 	mov    %rax,-0x1a58(%rbp)
   12517:	48 8d 05 c2 d6 00 00 	lea    0xd6c2(%rip),%rax        # 1fbe0 <g_1001>
   1251e:	48 89 85 b0 e5 ff ff 	mov    %rax,-0x1a50(%rbp)
   12525:	c7 85 90 e4 ff ff 01 	movl   $0x1,-0x1b70(%rbp)
   1252c:	00 00 00 
   1252f:	66 c7 85 2e e3 ff ff 	movw   $0xfec9,-0x1cd2(%rbp)
   12536:	c9 fe 
   12538:	48 8d 85 60 e4 ff ff 	lea    -0x1ba0(%rbp),%rax
   1253f:	48 89 85 b8 e5 ff ff 	mov    %rax,-0x1a48(%rbp)
   12546:	c6 85 26 e3 ff ff 01 	movb   $0x1,-0x1cda(%rbp)
   1254d:	48 c7 85 c0 e5 ff ff 	movq   $0x0,-0x1a40(%rbp)
   12554:	00 00 00 00 
   12558:	48 8d 05 bd ab 00 00 	lea    0xabbd(%rip),%rax        # 1d11c <g_197>
   1255f:	48 89 85 c8 e5 ff ff 	mov    %rax,-0x1a38(%rbp)
   12566:	48 8d 85 50 e3 ff ff 	lea    -0x1cb0(%rbp),%rax
   1256d:	48 89 85 d0 e5 ff ff 	mov    %rax,-0x1a30(%rbp)
   12574:	48 8d 85 44 e3 ff ff 	lea    -0x1cbc(%rbp),%rax
   1257b:	48 89 85 d8 e5 ff ff 	mov    %rax,-0x1a28(%rbp)
   12582:	48 8d 85 10 e7 ff ff 	lea    -0x18f0(%rbp),%rax
   12589:	48 83 c0 0c          	add    $0xc,%rax
   1258d:	48 89 85 e0 e5 ff ff 	mov    %rax,-0x1a20(%rbp)
   12594:	48 8d 85 10 e7 ff ff 	lea    -0x18f0(%rbp),%rax
   1259b:	48 83 c0 0c          	add    $0xc,%rax
   1259f:	48 89 85 e8 e5 ff ff 	mov    %rax,-0x1a18(%rbp)
   125a6:	48 8d 85 40 e3 ff ff 	lea    -0x1cc0(%rbp),%rax
   125ad:	48 89 85 80 e9 ff ff 	mov    %rax,-0x1680(%rbp)
   125b4:	48 8d 85 3c e3 ff ff 	lea    -0x1cc4(%rbp),%rax
   125bb:	48 89 85 88 e9 ff ff 	mov    %rax,-0x1678(%rbp)
   125c2:	48 8d 85 40 e3 ff ff 	lea    -0x1cc0(%rbp),%rax
   125c9:	48 89 85 90 e9 ff ff 	mov    %rax,-0x1670(%rbp)
   125d0:	48 8d 85 3c e3 ff ff 	lea    -0x1cc4(%rbp),%rax
   125d7:	48 89 85 98 e9 ff ff 	mov    %rax,-0x1668(%rbp)
   125de:	48 8d 85 40 e3 ff ff 	lea    -0x1cc0(%rbp),%rax
   125e5:	48 89 85 a0 e9 ff ff 	mov    %rax,-0x1660(%rbp)
   125ec:	48 8d 85 3c e3 ff ff 	lea    -0x1cc4(%rbp),%rax
   125f3:	48 89 85 a8 e9 ff ff 	mov    %rax,-0x1658(%rbp)
   125fa:	48 8d 85 40 e3 ff ff 	lea    -0x1cc0(%rbp),%rax
   12601:	48 89 85 b0 e9 ff ff 	mov    %rax,-0x1650(%rbp)
   12608:	48 8d 85 b0 e8 ff ff 	lea    -0x1750(%rbp),%rax
   1260f:	48 83 c0 64          	add    $0x64,%rax
   12613:	48 89 85 b8 e9 ff ff 	mov    %rax,-0x1648(%rbp)
   1261a:	48 8d 85 b0 e8 ff ff 	lea    -0x1750(%rbp),%rax
   12621:	48 83 c0 64          	add    $0x64,%rax
   12625:	48 89 85 c0 e9 ff ff 	mov    %rax,-0x1640(%rbp)
   1262c:	48 8d 85 10 e7 ff ff 	lea    -0x18f0(%rbp),%rax
   12633:	48 83 c0 0c          	add    $0xc,%rax
   12637:	48 89 85 c8 e9 ff ff 	mov    %rax,-0x1638(%rbp)
   1263e:	48 8d 85 10 e7 ff ff 	lea    -0x18f0(%rbp),%rax
   12645:	48 83 c0 0c          	add    $0xc,%rax
   12649:	48 89 85 d0 e9 ff ff 	mov    %rax,-0x1630(%rbp)
   12650:	48 8d 85 b0 e8 ff ff 	lea    -0x1750(%rbp),%rax
   12657:	48 83 c0 64          	add    $0x64,%rax
   1265b:	48 89 85 d8 e9 ff ff 	mov    %rax,-0x1628(%rbp)
   12662:	48 8d 85 b0 e8 ff ff 	lea    -0x1750(%rbp),%rax
   12669:	48 83 c0 64          	add    $0x64,%rax
   1266d:	48 89 85 e0 e9 ff ff 	mov    %rax,-0x1620(%rbp)
   12674:	48 8d 85 10 e7 ff ff 	lea    -0x18f0(%rbp),%rax
   1267b:	48 83 c0 0c          	add    $0xc,%rax
   1267f:	48 89 85 e8 e9 ff ff 	mov    %rax,-0x1618(%rbp)
   12686:	48 c7 85 f0 e9 ff ff 	movq   $0x0,-0x1610(%rbp)
   1268d:	00 00 00 00 
   12691:	48 8d 85 3c e3 ff ff 	lea    -0x1cc4(%rbp),%rax
   12698:	48 89 85 f8 e9 ff ff 	mov    %rax,-0x1608(%rbp)
   1269f:	48 c7 85 00 ea ff ff 	movq   $0x0,-0x1600(%rbp)
   126a6:	00 00 00 00 
   126aa:	48 8d 85 3c e3 ff ff 	lea    -0x1cc4(%rbp),%rax
   126b1:	48 89 85 08 ea ff ff 	mov    %rax,-0x15f8(%rbp)
   126b8:	48 c7 85 10 ea ff ff 	movq   $0x0,-0x15f0(%rbp)
   126bf:	00 00 00 00 
   126c3:	48 8d 85 3c e3 ff ff 	lea    -0x1cc4(%rbp),%rax
   126ca:	48 89 85 18 ea ff ff 	mov    %rax,-0x15e8(%rbp)
   126d1:	48 c7 85 20 ea ff ff 	movq   $0x0,-0x15e0(%rbp)
   126d8:	00 00 00 00 
   126dc:	48 8d 85 b0 e8 ff ff 	lea    -0x1750(%rbp),%rax
   126e3:	48 83 c0 64          	add    $0x64,%rax
   126e7:	48 89 85 28 ea ff ff 	mov    %rax,-0x15d8(%rbp)
   126ee:	48 8d 85 10 e7 ff ff 	lea    -0x18f0(%rbp),%rax
   126f5:	48 83 c0 0c          	add    $0xc,%rax
   126f9:	48 89 85 30 ea ff ff 	mov    %rax,-0x15d0(%rbp)
   12700:	48 8d 85 10 e7 ff ff 	lea    -0x18f0(%rbp),%rax
   12707:	48 83 c0 0c          	add    $0xc,%rax
   1270b:	48 89 85 38 ea ff ff 	mov    %rax,-0x15c8(%rbp)
   12712:	48 8d 85 b0 e8 ff ff 	lea    -0x1750(%rbp),%rax
   12719:	48 83 c0 64          	add    $0x64,%rax
   1271d:	48 89 85 40 ea ff ff 	mov    %rax,-0x15c0(%rbp)
   12724:	48 8d 85 b0 e8 ff ff 	lea    -0x1750(%rbp),%rax
   1272b:	48 83 c0 64          	add    $0x64,%rax
   1272f:	48 89 85 48 ea ff ff 	mov    %rax,-0x15b8(%rbp)
   12736:	48 8d 85 10 e7 ff ff 	lea    -0x18f0(%rbp),%rax
   1273d:	48 83 c0 0c          	add    $0xc,%rax
   12741:	48 89 85 50 ea ff ff 	mov    %rax,-0x15b0(%rbp)
   12748:	48 8d 85 10 e7 ff ff 	lea    -0x18f0(%rbp),%rax
   1274f:	48 83 c0 0c          	add    $0xc,%rax
   12753:	48 89 85 58 ea ff ff 	mov    %rax,-0x15a8(%rbp)
   1275a:	c7 85 c8 e3 ff ff 00 	movl   $0x0,-0x1c38(%rbp)
   12761:	00 00 00 
   12764:	eb 1a                	jmp    12780 <func_66+0x30bc>
   12766:	8b 85 c8 e3 ff ff    	mov    -0x1c38(%rbp),%eax
   1276c:	48 98                	cltq   
   1276e:	c7 84 85 10 e7 ff ff 	movl   $0xea9aeeff,-0x18f0(%rbp,%rax,4)
   12775:	ff ee 9a ea 
   12779:	83 85 c8 e3 ff ff 01 	addl   $0x1,-0x1c38(%rbp)
   12780:	83 bd c8 e3 ff ff 07 	cmpl   $0x7,-0x1c38(%rbp)
   12787:	7e dd                	jle    12766 <func_66+0x30a2>
   12789:	48 8b 85 a8 e5 ff ff 	mov    -0x1a58(%rbp),%rax
   12790:	48 89 05 e1 ce 00 00 	mov    %rax,0xcee1(%rip)        # 1f678 <g_292>
   12797:	c7 05 d3 ab 00 00 00 	movl   $0x0,0xabd3(%rip)        # 1d374 <g_976>
   1279e:	00 00 00 
   127a1:	e9 0e 13 00 00       	jmpq   13ab4 <func_66+0x43f0>
   127a6:	48 b8 e5 13 96 3b 4c 	movabs $0x2316d54c3b9613e5,%rax
   127ad:	d5 16 23 
   127b0:	48 89 85 f0 e5 ff ff 	mov    %rax,-0x1a10(%rbp)
   127b7:	48 8d 05 22 d4 00 00 	lea    0xd422(%rip),%rax        # 1fbe0 <g_1001>
   127be:	48 89 85 f8 e5 ff ff 	mov    %rax,-0x1a08(%rbp)
   127c5:	c7 85 00 e4 ff ff f6 	movl   $0xfffffff6,-0x1c00(%rbp)
   127cc:	ff ff ff 
   127cf:	c7 85 04 e4 ff ff fd 	movl   $0xfffffffd,-0x1bfc(%rbp)
   127d6:	ff ff ff 
   127d9:	c7 85 98 e4 ff ff 67 	movl   $0x6b3df67,-0x1b68(%rbp)
   127e0:	df b3 06 
   127e3:	c7 85 08 e4 ff ff ed 	movl   $0x6a8d87ed,-0x1bf8(%rbp)
   127ea:	87 8d 6a 
   127ed:	c7 85 0c e4 ff ff 0c 	movl   $0x3508000c,-0x1bf4(%rbp)
   127f4:	00 08 35 
   127f7:	c7 85 10 e4 ff ff 71 	movl   $0x94c73b71,-0x1bf0(%rbp)
   127fe:	3b c7 94 
   12801:	c7 85 14 e4 ff ff 00 	movl   $0x0,-0x1bec(%rbp)
   12808:	00 00 00 
   1280b:	c7 85 18 e4 ff ff 05 	movl   $0x5,-0x1be8(%rbp)
   12812:	00 00 00 
   12815:	c7 85 1c e4 ff ff 9c 	movl   $0x41a0ad9c,-0x1be4(%rbp)
   1281c:	ad a0 41 
   1281f:	c7 85 20 e4 ff ff 60 	movl   $0xe0fb3760,-0x1be0(%rbp)
   12826:	37 fb e0 
   12829:	c7 85 24 e4 ff ff 2f 	movl   $0xc91a882f,-0x1bdc(%rbp)
   12830:	88 1a c9 
   12833:	c7 85 28 e4 ff ff 15 	movl   $0x7d3b9015,-0x1bd8(%rbp)
   1283a:	90 3b 7d 
   1283d:	c7 85 a0 e4 ff ff f6 	movl   $0xfffffff6,-0x1b60(%rbp)
   12844:	ff ff ff 
   12847:	c7 85 2c e4 ff ff c9 	movl   $0xe0c3aac9,-0x1bd4(%rbp)
   1284e:	aa c3 e0 
   12851:	c7 85 30 e4 ff ff ff 	movl   $0xffffffff,-0x1bd0(%rbp)
   12858:	ff ff ff 
   1285b:	c7 85 f0 e6 ff ff 08 	movl   $0x978a9008,-0x1910(%rbp)
   12862:	90 8a 97 
   12865:	c7 85 f4 e6 ff ff 08 	movl   $0x978a9008,-0x190c(%rbp)
   1286c:	90 8a 97 
   1286f:	c7 85 f8 e6 ff ff 08 	movl   $0x978a9008,-0x1908(%rbp)
   12876:	90 8a 97 
   12879:	c7 85 fc e6 ff ff 08 	movl   $0x978a9008,-0x1904(%rbp)
   12880:	90 8a 97 
   12883:	c7 85 00 e7 ff ff 08 	movl   $0x978a9008,-0x1900(%rbp)
   1288a:	90 8a 97 
   1288d:	66 c7 85 10 e8 ff ff 	movw   $0x82e6,-0x17f0(%rbp)
   12894:	e6 82 
   12896:	66 c7 85 12 e8 ff ff 	movw   $0x5270,-0x17ee(%rbp)
   1289d:	70 52 
   1289f:	66 c7 85 14 e8 ff ff 	movw   $0x82e6,-0x17ec(%rbp)
   128a6:	e6 82 
   128a8:	66 c7 85 16 e8 ff ff 	movw   $0xffff,-0x17ea(%rbp)
   128af:	ff ff 
   128b1:	66 c7 85 18 e8 ff ff 	movw   $0x58ff,-0x17e8(%rbp)
   128b8:	ff 58 
   128ba:	66 c7 85 1a e8 ff ff 	movw   $0xffff,-0x17e6(%rbp)
   128c1:	ff ff 
   128c3:	66 c7 85 1c e8 ff ff 	movw   $0x53df,-0x17e4(%rbp)
   128ca:	df 53 
   128cc:	66 c7 85 1e e8 ff ff 	movw   $0x58ff,-0x17e2(%rbp)
   128d3:	ff 58 
   128d5:	66 c7 85 20 e8 ff ff 	movw   $0x8,-0x17e0(%rbp)
   128dc:	08 00 
   128de:	66 c7 85 22 e8 ff ff 	movw   $0x8b82,-0x17de(%rbp)
   128e5:	82 8b 
   128e7:	66 c7 85 24 e8 ff ff 	movw   $0xac2f,-0x17dc(%rbp)
   128ee:	2f ac 
   128f0:	66 c7 85 26 e8 ff ff 	movw   $0x8e85,-0x17da(%rbp)
   128f7:	85 8e 
   128f9:	66 c7 85 28 e8 ff ff 	movw   $0x75b3,-0x17d8(%rbp)
   12900:	b3 75 
   12902:	66 c7 85 2a e8 ff ff 	movw   $0x5,-0x17d6(%rbp)
   12909:	05 00 
   1290b:	66 c7 85 2c e8 ff ff 	movw   $0x928e,-0x17d4(%rbp)
   12912:	8e 92 
   12914:	66 c7 85 2e e8 ff ff 	movw   $0xfffa,-0x17d2(%rbp)
   1291b:	fa ff 
   1291d:	66 c7 85 30 e8 ff ff 	movw   $0x0,-0x17d0(%rbp)
   12924:	00 00 
   12926:	66 c7 85 32 e8 ff ff 	movw   $0x58ff,-0x17ce(%rbp)
   1292d:	ff 58 
   1292f:	66 c7 85 34 e8 ff ff 	movw   $0x75b3,-0x17cc(%rbp)
   12936:	b3 75 
   12938:	66 c7 85 36 e8 ff ff 	movw   $0x2b38,-0x17ca(%rbp)
   1293f:	38 2b 
   12941:	66 c7 85 38 e8 ff ff 	movw   $0x0,-0x17c8(%rbp)
   12948:	00 00 
   1294a:	66 c7 85 3a e8 ff ff 	movw   $0x8405,-0x17c6(%rbp)
   12951:	05 84 
   12953:	66 c7 85 3c e8 ff ff 	movw   $0x82e6,-0x17c4(%rbp)
   1295a:	e6 82 
   1295c:	66 c7 85 3e e8 ff ff 	movw   $0x1,-0x17c2(%rbp)
   12963:	01 00 
   12965:	66 c7 85 40 e8 ff ff 	movw   $0x8,-0x17c0(%rbp)
   1296c:	08 00 
   1296e:	66 c7 85 42 e8 ff ff 	movw   $0x8,-0x17be(%rbp)
   12975:	08 00 
   12977:	66 c7 85 44 e8 ff ff 	movw   $0x1,-0x17bc(%rbp)
   1297e:	01 00 
   12980:	66 c7 85 46 e8 ff ff 	movw   $0x82e6,-0x17ba(%rbp)
   12987:	e6 82 
   12989:	66 c7 85 48 e8 ff ff 	movw   $0x8405,-0x17b8(%rbp)
   12990:	05 84 
   12992:	66 c7 85 4a e8 ff ff 	movw   $0x0,-0x17b6(%rbp)
   12999:	00 00 
   1299b:	66 c7 85 4c e8 ff ff 	movw   $0x8b82,-0x17b4(%rbp)
   129a2:	82 8b 
   129a4:	66 c7 85 4e e8 ff ff 	movw   $0xac2f,-0x17b2(%rbp)
   129ab:	2f ac 
   129ad:	66 c7 85 50 e8 ff ff 	movw   $0xffff,-0x17b0(%rbp)
   129b4:	ff ff 
   129b6:	66 c7 85 52 e8 ff ff 	movw   $0x8,-0x17ae(%rbp)
   129bd:	08 00 
   129bf:	66 c7 85 54 e8 ff ff 	movw   $0x2b38,-0x17ac(%rbp)
   129c6:	38 2b 
   129c8:	66 c7 85 56 e8 ff ff 	movw   $0x7,-0x17aa(%rbp)
   129cf:	07 00 
   129d1:	66 c7 85 58 e8 ff ff 	movw   $0x53df,-0x17a8(%rbp)
   129d8:	df 53 
   129da:	66 c7 85 5a e8 ff ff 	movw   $0xac2f,-0x17a6(%rbp)
   129e1:	2f ac 
   129e3:	66 c7 85 5c e8 ff ff 	movw   $0x82e6,-0x17a4(%rbp)
   129ea:	e6 82 
   129ec:	66 c7 85 5e e8 ff ff 	movw   $0x1520,-0x17a2(%rbp)
   129f3:	20 15 
   129f5:	66 c7 85 60 e8 ff ff 	movw   $0x1,-0x17a0(%rbp)
   129fc:	01 00 
   129fe:	66 c7 85 62 e8 ff ff 	movw   $0x58ff,-0x179e(%rbp)
   12a05:	ff 58 
   12a07:	66 c7 85 64 e8 ff ff 	movw   $0xfffa,-0x179c(%rbp)
   12a0e:	fa ff 
   12a10:	66 c7 85 66 e8 ff ff 	movw   $0xac2f,-0x179a(%rbp)
   12a17:	2f ac 
   12a19:	66 c7 85 68 e8 ff ff 	movw   $0x2b38,-0x1798(%rbp)
   12a20:	38 2b 
   12a22:	66 c7 85 6a e8 ff ff 	movw   $0xfffa,-0x1796(%rbp)
   12a29:	fa ff 
   12a2b:	66 c7 85 6c e8 ff ff 	movw   $0x5,-0x1794(%rbp)
   12a32:	05 00 
   12a34:	66 c7 85 6e e8 ff ff 	movw   $0x0,-0x1792(%rbp)
   12a3b:	00 00 
   12a3d:	66 c7 85 70 e8 ff ff 	movw   $0x503b,-0x1790(%rbp)
   12a44:	3b 50 
   12a46:	66 c7 85 72 e8 ff ff 	movw   $0x0,-0x178e(%rbp)
   12a4d:	00 00 
   12a4f:	66 c7 85 74 e8 ff ff 	movw   $0x2b38,-0x178c(%rbp)
   12a56:	38 2b 
   12a58:	66 c7 85 76 e8 ff ff 	movw   $0x53df,-0x178a(%rbp)
   12a5f:	df 53 
   12a61:	66 c7 85 78 e8 ff ff 	movw   $0x8,-0x1788(%rbp)
   12a68:	08 00 
   12a6a:	66 c7 85 7a e8 ff ff 	movw   $0x8e85,-0x1786(%rbp)
   12a71:	85 8e 
   12a73:	66 c7 85 7c e8 ff ff 	movw   $0x8,-0x1784(%rbp)
   12a7a:	08 00 
   12a7c:	66 c7 85 7e e8 ff ff 	movw   $0x53df,-0x1782(%rbp)
   12a83:	df 53 
   12a85:	66 c7 85 80 e8 ff ff 	movw   $0x2b38,-0x1780(%rbp)
   12a8c:	38 2b 
   12a8e:	66 c7 85 82 e8 ff ff 	movw   $0x8b82,-0x177e(%rbp)
   12a95:	82 8b 
   12a97:	66 c7 85 84 e8 ff ff 	movw   $0x1520,-0x177c(%rbp)
   12a9e:	20 15 
   12aa0:	66 c7 85 86 e8 ff ff 	movw   $0x2b38,-0x177a(%rbp)
   12aa7:	38 2b 
   12aa9:	66 c7 85 88 e8 ff ff 	movw   $0x82e6,-0x1778(%rbp)
   12ab0:	e6 82 
   12ab2:	66 c7 85 8a e8 ff ff 	movw   $0x928e,-0x1776(%rbp)
   12ab9:	8e 92 
   12abb:	66 c7 85 8c e8 ff ff 	movw   $0x7,-0x1774(%rbp)
   12ac2:	07 00 
   12ac4:	66 c7 85 8e e8 ff ff 	movw   $0x8,-0x1772(%rbp)
   12acb:	08 00 
   12acd:	66 c7 85 90 e8 ff ff 	movw   $0x928e,-0x1770(%rbp)
   12ad4:	8e 92 
   12ad6:	66 c7 85 92 e8 ff ff 	movw   $0x1520,-0x176e(%rbp)
   12add:	20 15 
   12adf:	66 c7 85 94 e8 ff ff 	movw   $0x8405,-0x176c(%rbp)
   12ae6:	05 84 
   12ae8:	66 c7 85 96 e8 ff ff 	movw   $0x1,-0x176a(%rbp)
   12aef:	01 00 
   12af1:	66 c7 85 98 e8 ff ff 	movw   $0xffff,-0x1768(%rbp)
   12af8:	ff ff 
   12afa:	66 c7 85 9a e8 ff ff 	movw   $0x8b82,-0x1766(%rbp)
   12b01:	82 8b 
   12b03:	66 c7 85 9c e8 ff ff 	movw   $0x5,-0x1764(%rbp)
   12b0a:	05 00 
   12b0c:	66 c7 85 9e e8 ff ff 	movw   $0x928e,-0x1762(%rbp)
   12b13:	8e 92 
   12b15:	66 c7 85 a0 e8 ff ff 	movw   $0xfffa,-0x1760(%rbp)
   12b1c:	fa ff 
   12b1e:	66 c7 85 a2 e8 ff ff 	movw   $0x0,-0x175e(%rbp)
   12b25:	00 00 
   12b27:	66 c7 85 a4 e8 ff ff 	movw   $0x58ff,-0x175c(%rbp)
   12b2e:	ff 58 
   12b30:	66 c7 85 a6 e8 ff ff 	movw   $0x75b3,-0x175a(%rbp)
   12b37:	b3 75 
   12b39:	66 c7 85 a8 e8 ff ff 	movw   $0x2b38,-0x1758(%rbp)
   12b40:	38 2b 
   12b42:	66 c7 85 aa e8 ff ff 	movw   $0x2b38,-0x1756(%rbp)
   12b49:	38 2b 
   12b4b:	66 c7 85 ac e8 ff ff 	movw   $0x75b3,-0x1754(%rbp)
   12b52:	b3 75 
   12b54:	66 c7 85 ae e8 ff ff 	movw   $0x58ff,-0x1752(%rbp)
   12b5b:	ff 58 
   12b5d:	66 c7 85 88 e4 ff ff 	movw   $0xf1fd,-0x1b78(%rbp)
   12b64:	fd f1 
   12b66:	c7 05 b0 a5 00 00 01 	movl   $0x1,0xa5b0(%rip)        # 1d120 <g_207>
   12b6d:	00 00 00 
   12b70:	e9 ad 05 00 00       	jmpq   13122 <func_66+0x3a5e>
   12b75:	c6 85 27 e3 ff ff 00 	movb   $0x0,-0x1cd9(%rbp)
   12b7c:	48 8d 05 85 d0 00 00 	lea    0xd085(%rip),%rax        # 1fc08 <g_1000+0x8>
   12b83:	48 89 85 78 e6 ff ff 	mov    %rax,-0x1988(%rbp)
   12b8a:	48 8d 05 77 d0 00 00 	lea    0xd077(%rip),%rax        # 1fc08 <g_1000+0x8>
   12b91:	48 89 85 80 e6 ff ff 	mov    %rax,-0x1980(%rbp)
   12b98:	48 8d 05 55 a7 00 00 	lea    0xa755(%rip),%rax        # 1d2f4 <g_623>
   12b9f:	48 89 85 88 e6 ff ff 	mov    %rax,-0x1978(%rbp)
   12ba6:	c7 85 40 e4 ff ff 04 	movl   $0x4,-0x1bc0(%rbp)
   12bad:	00 00 00 
   12bb0:	c7 85 44 e4 ff ff 00 	movl   $0x0,-0x1bbc(%rbp)
   12bb7:	00 00 00 
   12bba:	c7 85 a8 e4 ff ff 5b 	movl   $0xd414115b,-0x1b58(%rbp)
   12bc1:	11 14 d4 
   12bc4:	c7 85 48 e4 ff ff fe 	movl   $0xfffffffe,-0x1bb8(%rbp)
   12bcb:	ff ff ff 
   12bce:	c7 85 4c e4 ff ff 1d 	movl   $0xa279231d,-0x1bb4(%rbp)
   12bd5:	23 79 a2 
   12bd8:	66 c7 85 50 e7 ff ff 	movw   $0xcd75,-0x18b0(%rbp)
   12bdf:	75 cd 
   12be1:	66 c7 85 52 e7 ff ff 	movw   $0xd321,-0x18ae(%rbp)
   12be8:	21 d3 
   12bea:	66 c7 85 54 e7 ff ff 	movw   $0xcd75,-0x18ac(%rbp)
   12bf1:	75 cd 
   12bf3:	66 c7 85 56 e7 ff ff 	movw   $0xcd75,-0x18aa(%rbp)
   12bfa:	75 cd 
   12bfc:	66 c7 85 58 e7 ff ff 	movw   $0xd321,-0x18a8(%rbp)
   12c03:	21 d3 
   12c05:	66 c7 85 5a e7 ff ff 	movw   $0xcd75,-0x18a6(%rbp)
   12c0c:	75 cd 
   12c0e:	66 c7 85 5c e7 ff ff 	movw   $0xcd75,-0x18a4(%rbp)
   12c15:	75 cd 
   12c17:	66 c7 85 5e e7 ff ff 	movw   $0xd321,-0x18a2(%rbp)
   12c1e:	21 d3 
   12c20:	66 c7 85 60 e7 ff ff 	movw   $0xcd75,-0x18a0(%rbp)
   12c27:	75 cd 
   12c29:	66 c7 85 62 e7 ff ff 	movw   $0xcd75,-0x189e(%rbp)
   12c30:	75 cd 
   12c32:	66 c7 85 64 e7 ff ff 	movw   $0xd321,-0x189c(%rbp)
   12c39:	21 d3 
   12c3b:	66 c7 85 66 e7 ff ff 	movw   $0xcd75,-0x189a(%rbp)
   12c42:	75 cd 
   12c44:	66 c7 85 68 e7 ff ff 	movw   $0xcd75,-0x1898(%rbp)
   12c4b:	75 cd 
   12c4d:	66 c7 85 6a e7 ff ff 	movw   $0xd321,-0x1896(%rbp)
   12c54:	21 d3 
   12c56:	66 c7 85 6c e7 ff ff 	movw   $0xcd75,-0x1894(%rbp)
   12c5d:	75 cd 
   12c5f:	66 c7 85 6e e7 ff ff 	movw   $0xcd75,-0x1892(%rbp)
   12c66:	75 cd 
   12c68:	66 c7 85 70 e7 ff ff 	movw   $0xd321,-0x1890(%rbp)
   12c6f:	21 d3 
   12c71:	66 c7 85 72 e7 ff ff 	movw   $0xcd75,-0x188e(%rbp)
   12c78:	75 cd 
   12c7a:	66 c7 85 74 e7 ff ff 	movw   $0xcd75,-0x188c(%rbp)
   12c81:	75 cd 
   12c83:	66 c7 85 76 e7 ff ff 	movw   $0xd321,-0x188a(%rbp)
   12c8a:	21 d3 
   12c8c:	c7 85 50 e4 ff ff 01 	movl   $0x1,-0x1bb0(%rbp)
   12c93:	00 00 00 
   12c96:	c7 85 b0 e4 ff ff 01 	movl   $0x1,-0x1b50(%rbp)
   12c9d:	00 00 00 
   12ca0:	c7 85 54 e4 ff ff 7e 	movl   $0xa38ab27e,-0x1bac(%rbp)
   12ca7:	b2 8a a3 
   12caa:	66 c7 85 32 e3 ff ff 	movw   $0xfff6,-0x1cce(%rbp)
   12cb1:	f6 ff 
   12cb3:	c7 85 58 e4 ff ff 50 	movl   $0x51e12850,-0x1ba8(%rbp)
   12cba:	28 e1 51 
   12cbd:	c7 85 60 eb ff ff b0 	movl   $0xeb3cacb0,-0x14a0(%rbp)
   12cc4:	ac 3c eb 
   12cc7:	c7 85 64 eb ff ff b0 	movl   $0xeb3cacb0,-0x149c(%rbp)
   12cce:	ac 3c eb 
   12cd1:	c7 85 68 eb ff ff b0 	movl   $0xeb3cacb0,-0x1498(%rbp)
   12cd8:	ac 3c eb 
   12cdb:	c7 85 6c eb ff ff b0 	movl   $0xeb3cacb0,-0x1494(%rbp)
   12ce2:	ac 3c eb 
   12ce5:	c7 85 70 eb ff ff b0 	movl   $0xeb3cacb0,-0x1490(%rbp)
   12cec:	ac 3c eb 
   12cef:	c7 85 74 eb ff ff b0 	movl   $0xeb3cacb0,-0x148c(%rbp)
   12cf6:	ac 3c eb 
   12cf9:	c7 85 78 eb ff ff b0 	movl   $0xeb3cacb0,-0x1488(%rbp)
   12d00:	ac 3c eb 
   12d03:	c7 85 7c eb ff ff b0 	movl   $0xeb3cacb0,-0x1484(%rbp)
   12d0a:	ac 3c eb 
   12d0d:	c7 85 80 eb ff ff b0 	movl   $0xeb3cacb0,-0x1480(%rbp)
   12d14:	ac 3c eb 
   12d17:	c7 85 84 eb ff ff b0 	movl   $0xeb3cacb0,-0x147c(%rbp)
   12d1e:	ac 3c eb 
   12d21:	48 8d 05 d4 a5 00 00 	lea    0xa5d4(%rip),%rax        # 1d2fc <g_650>
   12d28:	48 89 85 90 e6 ff ff 	mov    %rax,-0x1970(%rbp)
   12d2f:	48 8d 85 a8 e4 ff ff 	lea    -0x1b58(%rbp),%rax
   12d36:	48 89 85 98 e6 ff ff 	mov    %rax,-0x1968(%rbp)
   12d3d:	48 c7 85 a0 e6 ff ff 	movq   $0x0,-0x1960(%rbp)
   12d44:	00 00 00 00 
   12d48:	48 8d 85 38 e3 ff ff 	lea    -0x1cc8(%rbp),%rax
   12d4f:	48 89 85 a8 e6 ff ff 	mov    %rax,-0x1958(%rbp)
   12d56:	48 8d 05 2b a3 00 00 	lea    0xa32b(%rip),%rax        # 1d088 <g_118>
   12d5d:	48 89 85 b0 e6 ff ff 	mov    %rax,-0x1950(%rbp)
   12d64:	48 c7 85 b8 e6 ff ff 	movq   $0x0,-0x1948(%rbp)
   12d6b:	00 00 00 00 
   12d6f:	48 8d 85 b0 e4 ff ff 	lea    -0x1b50(%rbp),%rax
   12d76:	48 89 85 c0 e6 ff ff 	mov    %rax,-0x1940(%rbp)
   12d7d:	48 8d 85 f0 e6 ff ff 	lea    -0x1910(%rbp),%rax
   12d84:	48 83 c0 04          	add    $0x4,%rax
   12d88:	48 89 85 c8 e6 ff ff 	mov    %rax,-0x1938(%rbp)
   12d8f:	48 8d 05 f2 a4 00 00 	lea    0xa4f2(%rip),%rax        # 1d288 <g_290+0x28>
   12d96:	48 89 85 d0 e6 ff ff 	mov    %rax,-0x1930(%rbp)
   12d9d:	c7 85 cc e3 ff ff 00 	movl   $0x0,-0x1c34(%rbp)
   12da4:	00 00 00 
   12da7:	eb 1e                	jmp    12dc7 <func_66+0x3703>
   12da9:	8b 85 cc e3 ff ff    	mov    -0x1c34(%rbp),%eax
   12daf:	48 98                	cltq   
   12db1:	48 8d 95 44 e3 ff ff 	lea    -0x1cbc(%rbp),%rdx
   12db8:	48 89 94 c5 30 e7 ff 	mov    %rdx,-0x18d0(%rbp,%rax,8)
   12dbf:	ff 
   12dc0:	83 85 cc e3 ff ff 01 	addl   $0x1,-0x1c34(%rbp)
   12dc7:	83 bd cc e3 ff ff 03 	cmpl   $0x3,-0x1c34(%rbp)
   12dce:	7e d9                	jle    12da9 <func_66+0x36e5>
   12dd0:	0f be 9d 27 e3 ff ff 	movsbl -0x1cd9(%rbp),%ebx
   12dd7:	48 8b 05 7a c8 00 00 	mov    0xc87a(%rip),%rax        # 1f658 <g_215>
   12dde:	8b 00                	mov    (%rax),%eax
   12de0:	85 c0                	test   %eax,%eax
   12de2:	75 6a                	jne    12e4e <func_66+0x378a>
   12de4:	48 8b 85 50 e5 ff ff 	mov    -0x1ab0(%rbp),%rax
   12deb:	48 89 85 f8 e5 ff ff 	mov    %rax,-0x1a08(%rbp)
   12df2:	66 0f be 85 27 e3 ff 	movsbw -0x1cd9(%rbp),%ax
   12df9:	ff 
   12dfa:	0f b7 d0             	movzwl %ax,%edx
   12dfd:	8b 05 61 52 00 00    	mov    0x5261(%rip),%eax        # 18064 <g_858>
   12e03:	c1 e0 04             	shl    $0x4,%eax
   12e06:	c1 f8 04             	sar    $0x4,%eax
   12e09:	0f b7 c0             	movzwl %ax,%eax
   12e0c:	89 d6                	mov    %edx,%esi
   12e0e:	89 c7                	mov    %eax,%edi
   12e10:	e8 ea 7e ff ff       	callq  acff <safe_add_func_uint16_t_u_u>
   12e15:	66 83 f8 01          	cmp    $0x1,%ax
   12e19:	0f 96 c0             	setbe  %al
   12e1c:	0f b6 d0             	movzbl %al,%edx
   12e1f:	8b 85 38 e3 ff ff    	mov    -0x1cc8(%rbp),%eax
   12e25:	21 d0                	and    %edx,%eax
   12e27:	be fc ff ff ff       	mov    $0xfffffffc,%esi
   12e2c:	89 c7                	mov    %eax,%edi
   12e2e:	e8 85 80 ff ff       	callq  aeb8 <safe_add_func_uint32_t_u_u>
   12e33:	0f b6 c0             	movzbl %al,%eax
   12e36:	be ff 00 00 00       	mov    $0xff,%esi
   12e3b:	89 c7                	mov    %eax,%edi
   12e3d:	e8 18 7d ff ff       	callq  ab5a <safe_add_func_uint8_t_u_u>
   12e42:	0f b6 c0             	movzbl %al,%eax
   12e45:	ba fd ff ff ff       	mov    $0xfffffffd,%edx
   12e4a:	39 d0                	cmp    %edx,%eax
   12e4c:	73 07                	jae    12e55 <func_66+0x3791>
   12e4e:	b8 01 00 00 00       	mov    $0x1,%eax
   12e53:	eb 05                	jmp    12e5a <func_66+0x3796>
   12e55:	b8 00 00 00 00       	mov    $0x0,%eax
   12e5a:	83 e0 f9             	and    $0xfffffff9,%eax
   12e5d:	85 c0                	test   %eax,%eax
   12e5f:	74 07                	je     12e68 <func_66+0x37a4>
   12e61:	b8 01 00 00 00       	mov    $0x1,%eax
   12e66:	eb 05                	jmp    12e6d <func_66+0x37a9>
   12e68:	b8 00 00 00 00       	mov    $0x0,%eax
   12e6d:	0f be c0             	movsbl %al,%eax
   12e70:	be 5f 00 00 00       	mov    $0x5f,%esi
   12e75:	89 c7                	mov    %eax,%edi
   12e77:	e8 96 73 ff ff       	callq  a212 <safe_mul_func_int8_t_s_s>
   12e7c:	66 98                	cbtw   
   12e7e:	44 0f b7 e0          	movzwl %ax,%r12d
   12e82:	48 0f be 95 27 e3 ff 	movsbq -0x1cd9(%rbp),%rdx
   12e89:	ff 
   12e8a:	8b 85 f4 e3 ff ff    	mov    -0x1c0c(%rbp),%eax
   12e90:	48 89 d6             	mov    %rdx,%rsi
   12e93:	48 89 c7             	mov    %rax,%rdi
   12e96:	e8 5c 7b ff ff       	callq  a9f7 <safe_div_func_int64_t_s_s>
   12e9b:	89 c1                	mov    %eax,%ecx
   12e9d:	48 8b 85 f0 e5 ff ff 	mov    -0x1a10(%rbp),%rax
   12ea4:	0f b6 c0             	movzbl %al,%eax
   12ea7:	44 89 e2             	mov    %r12d,%edx
   12eaa:	89 ce                	mov    %ecx,%esi
   12eac:	89 c7                	mov    %eax,%edi
   12eae:	e8 a7 2e 00 00       	callq  15d5a <func_86>
   12eb3:	be e7 00 00 00       	mov    $0xe7,%esi
   12eb8:	bf fb 00 00 00       	mov    $0xfb,%edi
   12ebd:	e8 98 7c ff ff       	callq  ab5a <safe_add_func_uint8_t_u_u>
   12ec2:	0f be c0             	movsbl %al,%eax
   12ec5:	89 de                	mov    %ebx,%esi
   12ec7:	89 c7                	mov    %eax,%edi
   12ec9:	e8 9c 73 ff ff       	callq  a26a <safe_div_func_int8_t_s_s>
   12ece:	0f b6 c0             	movzbl %al,%eax
   12ed1:	8b 95 f4 e3 ff ff    	mov    -0x1c0c(%rbp),%edx
   12ed7:	89 d6                	mov    %edx,%esi
   12ed9:	89 c7                	mov    %eax,%edi
   12edb:	e8 6c 7d ff ff       	callq  ac4c <safe_lshift_func_uint8_t_u_u>
   12ee0:	8b 95 f4 e3 ff ff    	mov    -0x1c0c(%rbp),%edx
   12ee6:	48 8b 85 88 e6 ff ff 	mov    -0x1978(%rbp),%rax
   12eed:	0f b7 00             	movzwl (%rax),%eax
   12ef0:	89 c1                	mov    %eax,%ecx
   12ef2:	89 d0                	mov    %edx,%eax
   12ef4:	21 c8                	and    %ecx,%eax
   12ef6:	89 c2                	mov    %eax,%edx
   12ef8:	48 8b 85 88 e6 ff ff 	mov    -0x1978(%rbp),%rax
   12eff:	66 89 10             	mov    %dx,(%rax)
   12f02:	c7 85 f8 e3 ff ff 00 	movl   $0x0,-0x1c08(%rbp)
   12f09:	00 00 00 
   12f0c:	c7 05 36 a1 00 00 03 	movl   $0x3,0xa136(%rip)        # 1d04c <g_85>
   12f13:	00 00 00 
   12f16:	eb 6c                	jmp    12f84 <func_66+0x38c0>
   12f18:	48 c7 85 d8 e6 ff ff 	movq   $0x0,-0x1928(%rbp)
   12f1f:	00 00 00 00 
   12f23:	48 8d 85 38 e3 ff ff 	lea    -0x1cc8(%rbp),%rax
   12f2a:	48 89 85 e0 e6 ff ff 	mov    %rax,-0x1920(%rbp)
   12f31:	c7 85 5c e4 ff ff 00 	movl   $0x0,-0x1ba4(%rbp)
   12f38:	00 00 00 
   12f3b:	c7 85 d0 e3 ff ff 00 	movl   $0x0,-0x1c30(%rbp)
   12f42:	00 00 00 
   12f45:	eb 1e                	jmp    12f65 <func_66+0x38a1>
   12f47:	8b 85 d0 e3 ff ff    	mov    -0x1c30(%rbp),%eax
   12f4d:	48 98                	cltq   
   12f4f:	48 8d 95 3c e3 ff ff 	lea    -0x1cc4(%rbp),%rdx
   12f56:	48 89 94 c5 50 f2 ff 	mov    %rdx,-0xdb0(%rbp,%rax,8)
   12f5d:	ff 
   12f5e:	83 85 d0 e3 ff ff 01 	addl   $0x1,-0x1c30(%rbp)
   12f65:	83 bd d0 e3 ff ff 05 	cmpl   $0x5,-0x1c30(%rbp)
   12f6c:	7e d9                	jle    12f47 <func_66+0x3883>
   12f6e:	83 ad 5c e4 ff ff 01 	subl   $0x1,-0x1ba4(%rbp)
   12f75:	8b 05 d1 a0 00 00    	mov    0xa0d1(%rip),%eax        # 1d04c <g_85>
   12f7b:	83 e8 01             	sub    $0x1,%eax
   12f7e:	89 05 c8 a0 00 00    	mov    %eax,0xa0c8(%rip)        # 1d04c <g_85>
   12f84:	8b 05 c2 a0 00 00    	mov    0xa0c2(%rip),%eax        # 1d04c <g_85>
   12f8a:	85 c0                	test   %eax,%eax
   12f8c:	79 8a                	jns    12f18 <func_66+0x3854>
   12f8e:	8b 85 58 e3 ff ff    	mov    -0x1ca8(%rbp),%eax
   12f94:	83 e8 01             	sub    $0x1,%eax
   12f97:	89 85 58 e3 ff ff    	mov    %eax,-0x1ca8(%rbp)
   12f9d:	0f b7 05 c0 a3 00 00 	movzwl 0xa3c0(%rip),%eax        # 1d364 <g_774>
   12fa4:	48 0f bf d8          	movswq %ax,%rbx
   12fa8:	44 0f bf a5 1c e3 ff 	movswl -0x1ce4(%rbp),%r12d
   12faf:	ff 
   12fb0:	0f b7 85 1c e3 ff ff 	movzwl -0x1ce4(%rbp),%eax
   12fb7:	0f be d0             	movsbl %al,%edx
   12fba:	0f b7 85 1c e3 ff ff 	movzwl -0x1ce4(%rbp),%eax
   12fc1:	0f be c0             	movsbl %al,%eax
   12fc4:	89 d6                	mov    %edx,%esi
   12fc6:	89 c7                	mov    %eax,%edi
   12fc8:	e8 9d 72 ff ff       	callq  a26a <safe_div_func_int8_t_s_s>
   12fcd:	4c 0f bf ad 1c e3 ff 	movswq -0x1ce4(%rbp),%r13
   12fd4:	ff 
   12fd5:	8b 05 11 a4 00 00    	mov    0xa411(%rip),%eax        # 1d3ec <g_1307>
   12fdb:	0f bf 95 1c e3 ff ff 	movswl -0x1ce4(%rbp),%edx
   12fe2:	8b 85 54 e3 ff ff    	mov    -0x1cac(%rbp),%eax
   12fe8:	09 d0                	or     %edx,%eax
   12fea:	89 85 54 e3 ff ff    	mov    %eax,-0x1cac(%rbp)
   12ff0:	8b 85 54 e3 ff ff    	mov    -0x1cac(%rbp),%eax
   12ff6:	89 c2                	mov    %eax,%edx
   12ff8:	48 8b 85 88 e5 ff ff 	mov    -0x1a78(%rbp),%rax
   12fff:	88 10                	mov    %dl,(%rax)
   13001:	48 8b 85 88 e5 ff ff 	mov    -0x1a78(%rbp),%rax
   13008:	0f b6 00             	movzbl (%rax),%eax
   1300b:	0f b6 d0             	movzbl %al,%edx
   1300e:	8b 85 4c e3 ff ff    	mov    -0x1cb4(%rbp),%eax
   13014:	39 c2                	cmp    %eax,%edx
   13016:	0f 9e c0             	setle  %al
   13019:	0f b6 c0             	movzbl %al,%eax
   1301c:	89 c7                	mov    %eax,%edi
   1301e:	e8 83 7e ff ff       	callq  aea6 <safe_unary_minus_func_uint32_t_u>
   13023:	8b 05 c7 a3 00 00    	mov    0xa3c7(%rip),%eax        # 1d3f0 <g_1309>
   13029:	0f b7 85 1c e3 ff ff 	movzwl -0x1ce4(%rbp),%eax
   13030:	44 0f b6 f0          	movzbl %al,%r14d
   13034:	8b 85 24 e7 ff ff    	mov    -0x18dc(%rbp),%eax
   1303a:	0f b6 c0             	movzbl %al,%eax
   1303d:	be 00 00 00 00       	mov    $0x0,%esi
   13042:	89 c7                	mov    %eax,%edi
   13044:	e8 4a 7b ff ff       	callq  ab93 <safe_mul_func_uint8_t_u_u>
   13049:	0f be c0             	movsbl %al,%eax
   1304c:	be 01 00 00 00       	mov    $0x1,%esi
   13051:	89 c7                	mov    %eax,%edi
   13053:	e8 12 72 ff ff       	callq  a26a <safe_div_func_int8_t_s_s>
   13058:	0f b6 c0             	movzbl %al,%eax
   1305b:	44 89 f6             	mov    %r14d,%esi
   1305e:	89 c7                	mov    %eax,%edi
   13060:	e8 2e 7b ff ff       	callq  ab93 <safe_mul_func_uint8_t_u_u>
   13065:	0f b6 d0             	movzbl %al,%edx
   13068:	0f b7 85 1a e8 ff ff 	movzwl -0x17e6(%rbp),%eax
   1306f:	66 39 c2             	cmp    %ax,%dx
   13072:	0f 97 c0             	seta   %al
   13075:	0f b6 c8             	movzbl %al,%ecx
   13078:	48 8b 85 d0 e6 ff ff 	mov    -0x1930(%rbp),%rax
   1307f:	48 8b 10             	mov    (%rax),%rdx
   13082:	48 63 c1             	movslq %ecx,%rax
   13085:	48 09 c2             	or     %rax,%rdx
   13088:	48 8b 85 d0 e6 ff ff 	mov    -0x1930(%rbp),%rax
   1308f:	48 89 10             	mov    %rdx,(%rax)
   13092:	48 8b 85 d0 e6 ff ff 	mov    -0x1930(%rbp),%rax
   13099:	48 8b 00             	mov    (%rax),%rax
   1309c:	48 ba 8f c3 07 4d 42 	movabs $0x6b6c62424d07c38f,%rdx
   130a3:	62 6c 6b 
   130a6:	48 39 d0             	cmp    %rdx,%rax
   130a9:	0f 9e c0             	setle  %al
   130ac:	0f b6 c0             	movzbl %al,%eax
   130af:	48 be e5 f4 93 6c 86 	movabs $0x99282f866c93f4e5,%rsi
   130b6:	2f 28 99 
   130b9:	48 89 c7             	mov    %rax,%rdi
   130bc:	e8 e7 77 ff ff       	callq  a8a8 <safe_sub_func_int64_t_s_s>
   130c1:	48 85 c0             	test   %rax,%rax
   130c4:	74 11                	je     130d7 <func_66+0x3a13>
   130c6:	66 83 bd 1c e3 ff ff 	cmpw   $0x0,-0x1ce4(%rbp)
   130cd:	00 
   130ce:	74 07                	je     130d7 <func_66+0x3a13>
   130d0:	b8 01 00 00 00       	mov    $0x1,%eax
   130d5:	eb 05                	jmp    130dc <func_66+0x3a18>
   130d7:	b8 00 00 00 00       	mov    $0x0,%eax
   130dc:	48 98                	cltq   
   130de:	4c 89 ee             	mov    %r13,%rsi
   130e1:	48 89 c7             	mov    %rax,%rdi
   130e4:	e8 0e 79 ff ff       	callq  a9f7 <safe_div_func_int64_t_s_s>
   130e9:	98                   	cwtl   
   130ea:	44 89 e6             	mov    %r12d,%esi
   130ed:	89 c7                	mov    %eax,%edi
   130ef:	e8 9e 73 ff ff       	callq  a492 <safe_lshift_func_int16_t_s_s>
   130f4:	48 0f bf c0          	movswq %ax,%rax
   130f8:	48 89 de             	mov    %rbx,%rsi
   130fb:	48 89 c7             	mov    %rax,%rdi
   130fe:	e8 ac 7f ff ff       	callq  b0af <safe_div_func_uint64_t_u_u>
   13103:	89 c2                	mov    %eax,%edx
   13105:	8b 85 38 e3 ff ff    	mov    -0x1cc8(%rbp),%eax
   1310b:	21 d0                	and    %edx,%eax
   1310d:	89 85 38 e3 ff ff    	mov    %eax,-0x1cc8(%rbp)
   13113:	8b 05 07 a0 00 00    	mov    0xa007(%rip),%eax        # 1d120 <g_207>
   13119:	83 c0 01             	add    $0x1,%eax
   1311c:	89 05 fe 9f 00 00    	mov    %eax,0x9ffe(%rip)        # 1d120 <g_207>
   13122:	8b 05 f8 9f 00 00    	mov    0x9ff8(%rip),%eax        # 1d120 <g_207>
   13128:	83 f8 05             	cmp    $0x5,%eax
   1312b:	0f 86 44 fa ff ff    	jbe    12b75 <func_66+0x34b1>
   13131:	66 83 bd 1c e3 ff ff 	cmpw   $0x0,-0x1ce4(%rbp)
   13138:	00 
   13139:	0f 84 2f 01 00 00    	je     1326e <func_66+0x3baa>
   1313f:	c7 85 50 f2 ff ff 40 	movl   $0x364eed40,-0xdb0(%rbp)
   13146:	ed 4e 36 
   13149:	c7 85 54 f2 ff ff 40 	movl   $0x364eed40,-0xdac(%rbp)
   13150:	ed 4e 36 
   13153:	c7 85 58 f2 ff ff 40 	movl   $0x364eed40,-0xda8(%rbp)
   1315a:	ed 4e 36 
   1315d:	c7 85 5c f2 ff ff 40 	movl   $0x364eed40,-0xda4(%rbp)
   13164:	ed 4e 36 
   13167:	c7 85 60 f2 ff ff 40 	movl   $0x364eed40,-0xda0(%rbp)
   1316e:	ed 4e 36 
   13171:	c7 85 64 f2 ff ff 40 	movl   $0x364eed40,-0xd9c(%rbp)
   13178:	ed 4e 36 
   1317b:	c7 85 68 f2 ff ff 40 	movl   $0x364eed40,-0xd98(%rbp)
   13182:	ed 4e 36 
   13185:	0f bf 9d 1c e3 ff ff 	movswl -0x1ce4(%rbp),%ebx
   1318c:	8b 05 5a a2 00 00    	mov    0xa25a(%rip),%eax        # 1d3ec <g_1307>
   13192:	c1 e0 04             	shl    $0x4,%eax
   13195:	c1 f8 04             	sar    $0x4,%eax
   13198:	0f b7 c0             	movzwl %ax,%eax
   1319b:	be 05 00 00 00       	mov    $0x5,%esi
   131a0:	89 c7                	mov    %eax,%edi
   131a2:	e8 a1 7c ff ff       	callq  ae48 <safe_rshift_func_uint16_t_u_s>
   131a7:	44 0f b7 e0          	movzwl %ax,%r12d
   131ab:	8b 85 28 e7 ff ff    	mov    -0x18d8(%rbp),%eax
   131b1:	89 c2                	mov    %eax,%edx
   131b3:	8b 85 58 e3 ff ff    	mov    -0x1ca8(%rbp),%eax
   131b9:	21 d0                	and    %edx,%eax
   131bb:	89 c6                	mov    %eax,%esi
   131bd:	bf 72 b5 69 18       	mov    $0x1869b572,%edi
   131c2:	e8 36 7d ff ff       	callq  aefd <safe_mod_func_uint32_t_u_u>
   131c7:	44 89 e2             	mov    %r12d,%edx
   131ca:	21 c2                	and    %eax,%edx
   131cc:	0f bf 85 1c e3 ff ff 	movswl -0x1ce4(%rbp),%eax
   131d3:	f7 d0                	not    %eax
   131d5:	39 c2                	cmp    %eax,%edx
   131d7:	0f 92 c0             	setb   %al
   131da:	0f b6 c0             	movzbl %al,%eax
   131dd:	39 c3                	cmp    %eax,%ebx
   131df:	74 63                	je     13244 <func_66+0x3b80>
   131e1:	66 c7 85 30 e3 ff ff 	movw   $0xf476,-0x1cd0(%rbp)
   131e8:	76 f4 
   131ea:	0f b7 9d 30 e3 ff ff 	movzwl -0x1cd0(%rbp),%ebx
   131f1:	8b 85 98 e4 ff ff    	mov    -0x1b68(%rbp),%eax
   131f7:	0f b7 c0             	movzwl %ax,%eax
   131fa:	be 00 00 00 00       	mov    $0x0,%esi
   131ff:	89 c7                	mov    %eax,%edi
   13201:	e8 00 7c ff ff       	callq  ae06 <safe_lshift_func_uint16_t_u_u>
   13206:	89 c2                	mov    %eax,%edx
   13208:	48 8b 85 60 e4 ff ff 	mov    -0x1ba0(%rbp),%rax
   1320f:	0f b7 d2             	movzwl %dx,%edx
   13212:	48 89 10             	mov    %rdx,(%rax)
   13215:	48 8b 00             	mov    (%rax),%rax
   13218:	48 89 de             	mov    %rbx,%rsi
   1321b:	48 89 c7             	mov    %rax,%rdi
   1321e:	e8 5d 7e ff ff       	callq  b080 <safe_mod_func_uint64_t_u_u>
   13223:	8b 95 dc f0 ff ff    	mov    -0xf24(%rbp),%edx
   13229:	21 d0                	and    %edx,%eax
   1322b:	89 85 dc f0 ff ff    	mov    %eax,-0xf24(%rbp)
   13231:	8b 85 60 f2 ff ff    	mov    -0xda0(%rbp),%eax
   13237:	85 c0                	test   %eax,%eax
   13239:	0f 84 63 03 00 00    	je     135a2 <func_66+0x3ede>
   1323f:	e9 7f 08 00 00       	jmpq   13ac3 <func_66+0x43ff>
   13244:	48 8d 05 d5 db 00 00 	lea    0xdbd5(%rip),%rax        # 20e20 <g_221>
   1324b:	48 89 85 30 e6 ff ff 	mov    %rax,-0x19d0(%rbp)
   13252:	48 8b 85 30 e6 ff ff 	mov    -0x19d0(%rbp),%rax
   13259:	48 c7 00 00 00 00 00 	movq   $0x0,(%rax)
   13260:	48 8b 85 40 e5 ff ff 	mov    -0x1ac0(%rbp),%rax
   13267:	8b 00                	mov    (%rax),%eax
   13269:	e9 c7 08 00 00       	jmpq   13b35 <func_66+0x4471>
   1326e:	48 8d 85 50 f2 ff ff 	lea    -0xdb0(%rbp),%rax
   13275:	48 8d 15 24 b3 00 00 	lea    0xb324(%rip),%rdx        # 1e5a0 <g_2124+0x1154>
   1327c:	b9 b4 00 00 00       	mov    $0xb4,%ecx
   13281:	48 89 c7             	mov    %rax,%rdi
   13284:	48 89 d6             	mov    %rdx,%rsi
   13287:	f3 48 a5             	rep movsq %ds:(%rsi),%es:(%rdi)
   1328a:	c7 85 d4 e3 ff ff ff 	movl   $0xffffffff,-0x1c2c(%rbp)
   13291:	ff ff ff 
   13294:	c7 85 d8 e3 ff ff f9 	movl   $0xfffffff9,-0x1c28(%rbp)
   1329b:	ff ff ff 
   1329e:	48 8d 85 80 e4 ff ff 	lea    -0x1b80(%rbp),%rax
   132a5:	48 89 85 00 e6 ff ff 	mov    %rax,-0x1a00(%rbp)
   132ac:	48 8d 05 15 dc 00 00 	lea    0xdc15(%rip),%rax        # 20ec8 <g_680>
   132b3:	48 89 85 08 e6 ff ff 	mov    %rax,-0x19f8(%rbp)
   132ba:	48 8d 05 c1 9d 00 00 	lea    0x9dc1(%rip),%rax        # 1d082 <g_115+0xa>
   132c1:	48 89 85 10 e6 ff ff 	mov    %rax,-0x19f0(%rbp)
   132c8:	48 8d 05 4d 9e 00 00 	lea    0x9e4d(%rip),%rax        # 1d11c <g_197>
   132cf:	48 89 85 a8 e4 ff ff 	mov    %rax,-0x1b58(%rbp)
   132d6:	48 8d 85 a8 e4 ff ff 	lea    -0x1b58(%rbp),%rax
   132dd:	48 89 85 b0 e4 ff ff 	mov    %rax,-0x1b50(%rbp)
   132e4:	48 8d 85 b0 e4 ff ff 	lea    -0x1b50(%rbp),%rax
   132eb:	48 89 85 18 e6 ff ff 	mov    %rax,-0x19e8(%rbp)
   132f2:	c7 85 dc e3 ff ff 00 	movl   $0x0,-0x1c24(%rbp)
   132f9:	00 00 00 
   132fc:	eb 1a                	jmp    13318 <func_66+0x3c54>
   132fe:	8b 85 dc e3 ff ff    	mov    -0x1c24(%rbp),%eax
   13304:	48 98                	cltq   
   13306:	c7 84 85 30 e7 ff ff 	movl   $0xfd2b3beb,-0x18d0(%rbp,%rax,4)
   1330d:	eb 3b 2b fd 
   13311:	83 85 dc e3 ff ff 01 	addl   $0x1,-0x1c24(%rbp)
   13318:	83 bd dc e3 ff ff 00 	cmpl   $0x0,-0x1c24(%rbp)
   1331f:	7e dd                	jle    132fe <func_66+0x3c3a>
   13321:	c7 85 38 e3 ff ff 07 	movl   $0x7,-0x1cc8(%rbp)
   13328:	00 00 00 
   1332b:	e9 7a 01 00 00       	jmpq   134aa <func_66+0x3de6>
   13330:	48 8d 05 51 9d 00 00 	lea    0x9d51(%rip),%rax        # 1d088 <g_118>
   13337:	48 89 85 20 e6 ff ff 	mov    %rax,-0x19e0(%rbp)
   1333e:	48 8d 85 50 e7 ff ff 	lea    -0x18b0(%rbp),%rax
   13345:	48 83 c0 10          	add    $0x10,%rax
   13349:	48 89 85 28 e6 ff ff 	mov    %rax,-0x19d8(%rbp)
   13350:	c7 85 e0 e3 ff ff 00 	movl   $0x0,-0x1c20(%rbp)
   13357:	00 00 00 
   1335a:	eb 7d                	jmp    133d9 <func_66+0x3d15>
   1335c:	c7 85 e4 e3 ff ff 00 	movl   $0x0,-0x1c1c(%rbp)
   13363:	00 00 00 
   13366:	eb 61                	jmp    133c9 <func_66+0x3d05>
   13368:	c7 85 e8 e3 ff ff 00 	movl   $0x0,-0x1c18(%rbp)
   1336f:	00 00 00 
   13372:	eb 45                	jmp    133b9 <func_66+0x3cf5>
   13374:	8b 85 e8 e3 ff ff    	mov    -0x1c18(%rbp),%eax
   1337a:	48 63 c8             	movslq %eax,%rcx
   1337d:	8b 85 e0 e3 ff ff    	mov    -0x1c20(%rbp),%eax
   13383:	48 63 d0             	movslq %eax,%rdx
   13386:	8b 85 e4 e3 ff ff    	mov    -0x1c1c(%rbp),%eax
   1338c:	48 63 f0             	movslq %eax,%rsi
   1338f:	48 89 d0             	mov    %rdx,%rax
   13392:	48 c1 e0 03          	shl    $0x3,%rax
   13396:	48 01 d0             	add    %rdx,%rax
   13399:	48 01 f0             	add    %rsi,%rax
   1339c:	48 c1 e0 02          	shl    $0x2,%rax
   133a0:	48 01 c8             	add    %rcx,%rax
   133a3:	48 8d 15 5e c8 00 00 	lea    0xc85e(%rip),%rdx        # 1fc08 <g_1000+0x8>
   133aa:	48 89 94 c5 60 eb ff 	mov    %rdx,-0x14a0(%rbp,%rax,8)
   133b1:	ff 
   133b2:	83 85 e8 e3 ff ff 01 	addl   $0x1,-0x1c18(%rbp)
   133b9:	83 bd e8 e3 ff ff 03 	cmpl   $0x3,-0x1c18(%rbp)
   133c0:	7e b2                	jle    13374 <func_66+0x3cb0>
   133c2:	83 85 e4 e3 ff ff 01 	addl   $0x1,-0x1c1c(%rbp)
   133c9:	83 bd e4 e3 ff ff 08 	cmpl   $0x8,-0x1c1c(%rbp)
   133d0:	7e 96                	jle    13368 <func_66+0x3ca4>
   133d2:	83 85 e0 e3 ff ff 01 	addl   $0x1,-0x1c20(%rbp)
   133d9:	83 bd e0 e3 ff ff 00 	cmpl   $0x0,-0x1c20(%rbp)
   133e0:	0f 8e 76 ff ff ff    	jle    1335c <func_66+0x3c98>
   133e6:	c7 85 e0 e3 ff ff 00 	movl   $0x0,-0x1c20(%rbp)
   133ed:	00 00 00 
   133f0:	eb 1b                	jmp    1340d <func_66+0x3d49>
   133f2:	8b 85 e0 e3 ff ff    	mov    -0x1c20(%rbp),%eax
   133f8:	48 98                	cltq   
   133fa:	48 c7 84 c5 50 e7 ff 	movq   $0x0,-0x18b0(%rbp,%rax,8)
   13401:	ff 00 00 00 00 
   13406:	83 85 e0 e3 ff ff 01 	addl   $0x1,-0x1c20(%rbp)
   1340d:	83 bd e0 e3 ff ff 02 	cmpl   $0x2,-0x1c20(%rbp)
   13414:	7e dc                	jle    133f2 <func_66+0x3d2e>
   13416:	8b 05 d8 9f 00 00    	mov    0x9fd8(%rip),%eax        # 1d3f4 <g_1333>
   1341c:	48 8b 85 a8 f5 ff ff 	mov    -0xa58(%rbp),%rax
   13423:	48 89 85 c8 e7 ff ff 	mov    %rax,-0x1838(%rbp)
   1342a:	48 8b 85 b0 e5 ff ff 	mov    -0x1a50(%rbp),%rax
   13431:	48 89 85 98 e7 ff ff 	mov    %rax,-0x1868(%rbp)
   13438:	8b 85 38 e3 ff ff    	mov    -0x1cc8(%rbp),%eax
   1343e:	48 98                	cltq   
   13440:	8b 84 85 10 e7 ff ff 	mov    -0x18f0(%rbp,%rax,4),%eax
   13447:	0f be c0             	movsbl %al,%eax
   1344a:	be 00 00 00 00       	mov    $0x0,%esi
   1344f:	89 c7                	mov    %eax,%edi
   13451:	e8 bc 6d ff ff       	callq  a212 <safe_mul_func_int8_t_s_s>
   13456:	0f be c0             	movsbl %al,%eax
   13459:	89 85 4c e3 ff ff    	mov    %eax,-0x1cb4(%rbp)
   1345f:	83 ad d8 e3 ff ff 01 	subl   $0x1,-0x1c28(%rbp)
   13466:	48 8b 85 28 e6 ff ff 	mov    -0x19d8(%rbp),%rax
   1346d:	48 8b 95 20 e6 ff ff 	mov    -0x19e0(%rbp),%rdx
   13474:	48 89 10             	mov    %rdx,(%rax)
   13477:	c7 85 1c e7 ff ff fd 	movl   $0xfffffffd,-0x18e4(%rbp)
   1347e:	ff ff ff 
   13481:	8b 95 1c e7 ff ff    	mov    -0x18e4(%rbp),%edx
   13487:	8b 05 9b 9b 00 00    	mov    0x9b9b(%rip),%eax        # 1d028 <g_10>
   1348d:	39 c2                	cmp    %eax,%edx
   1348f:	0f 95 c0             	setne  %al
   13492:	0f b6 c0             	movzbl %al,%eax
   13495:	31 85 d4 e3 ff ff    	xor    %eax,-0x1c2c(%rbp)
   1349b:	8b 85 38 e3 ff ff    	mov    -0x1cc8(%rbp),%eax
   134a1:	83 e8 01             	sub    $0x1,%eax
   134a4:	89 85 38 e3 ff ff    	mov    %eax,-0x1cc8(%rbp)
   134aa:	8b 85 38 e3 ff ff    	mov    -0x1cc8(%rbp),%eax
   134b0:	85 c0                	test   %eax,%eax
   134b2:	0f 89 78 fe ff ff    	jns    13330 <func_66+0x3c6c>
   134b8:	48 8b 85 08 e6 ff ff 	mov    -0x19f8(%rbp),%rax
   134bf:	48 8b 95 00 e6 ff ff 	mov    -0x1a00(%rbp),%rdx
   134c6:	48 89 10             	mov    %rdx,(%rax)
   134c9:	0f bf 95 1c e3 ff ff 	movswl -0x1ce4(%rbp),%edx
   134d0:	8b 85 d4 e3 ff ff    	mov    -0x1c2c(%rbp),%eax
   134d6:	f7 d0                	not    %eax
   134d8:	89 c1                	mov    %eax,%ecx
   134da:	48 8b 85 10 e6 ff ff 	mov    -0x19f0(%rbp),%rax
   134e1:	66 89 08             	mov    %cx,(%rax)
   134e4:	48 8b 85 10 e6 ff ff 	mov    -0x19f0(%rbp),%rax
   134eb:	0f b7 00             	movzwl (%rax),%eax
   134ee:	98                   	cwtl   
   134ef:	89 d6                	mov    %edx,%esi
   134f1:	89 c7                	mov    %eax,%edi
   134f3:	e8 fd 6e ff ff       	callq  a3f5 <safe_mul_func_int16_t_s_s>
   134f8:	48 8d 85 50 e3 ff ff 	lea    -0x1cb0(%rbp),%rax
   134ff:	48 89 85 60 eb ff ff 	mov    %rax,-0x14a0(%rbp)
   13506:	48 8d 85 50 e3 ff ff 	lea    -0x1cb0(%rbp),%rax
   1350d:	48 89 85 68 eb ff ff 	mov    %rax,-0x1498(%rbp)
   13514:	48 8d 85 50 e3 ff ff 	lea    -0x1cb0(%rbp),%rax
   1351b:	48 89 85 70 eb ff ff 	mov    %rax,-0x1490(%rbp)
   13522:	48 8d 85 50 e3 ff ff 	lea    -0x1cb0(%rbp),%rax
   13529:	48 89 85 78 eb ff ff 	mov    %rax,-0x1488(%rbp)
   13530:	48 8d 85 50 e3 ff ff 	lea    -0x1cb0(%rbp),%rax
   13537:	48 89 85 80 eb ff ff 	mov    %rax,-0x1480(%rbp)
   1353e:	81 8d d4 e3 ff ff aa 	orl    $0x4c4bdbaa,-0x1c2c(%rbp)
   13545:	db 4b 4c 
   13548:	48 8b 05 b1 c5 00 00 	mov    0xc5b1(%rip),%rax        # 1fb00 <g_783>
   1354f:	48 8b 85 68 e4 ff ff 	mov    -0x1b98(%rbp),%rax
   13556:	48 8b 00             	mov    (%rax),%rax
   13559:	48 0f bf 95 1c e3 ff 	movswq -0x1ce4(%rbp),%rdx
   13560:	ff 
   13561:	48 89 10             	mov    %rdx,(%rax)
   13564:	48 8b 00             	mov    (%rax),%rax
   13567:	89 85 24 e7 ff ff    	mov    %eax,-0x18dc(%rbp)
   1356d:	48 8b 85 58 e5 ff ff 	mov    -0x1aa8(%rbp),%rax
   13574:	48 3b 85 b8 e5 ff ff 	cmp    -0x1a48(%rbp),%rax
   1357b:	0f 95 c0             	setne  %al
   1357e:	0f b6 c0             	movzbl %al,%eax
   13581:	89 c6                	mov    %eax,%esi
   13583:	bf 01 00 00 00       	mov    $0x1,%edi
   13588:	e8 85 6c ff ff       	callq  a212 <safe_mul_func_int8_t_s_s>
   1358d:	66 98                	cbtw   
   1358f:	66 39 85 1c e3 ff ff 	cmp    %ax,-0x1ce4(%rbp)
   13596:	0f 9d c0             	setge  %al
   13599:	0f b6 c0             	movzbl %al,%eax
   1359c:	09 85 0c e4 ff ff    	or     %eax,-0x1bf4(%rbp)
   135a2:	c7 05 d8 9d 00 00 00 	movl   $0x0,0x9dd8(%rip)        # 1d384 <g_1037>
   135a9:	00 00 00 
   135ac:	e9 e5 04 00 00       	jmpq   13a96 <func_66+0x43d2>
   135b1:	48 8d 85 88 e4 ff ff 	lea    -0x1b78(%rbp),%rax
   135b8:	48 89 85 38 e6 ff ff 	mov    %rax,-0x19c8(%rbp)
   135bf:	c7 85 34 e4 ff ff 01 	movl   $0x1,-0x1bcc(%rbp)
   135c6:	00 00 00 
   135c9:	c7 85 38 e4 ff ff 02 	movl   $0x2,-0x1bc8(%rbp)
   135d0:	00 00 00 
   135d3:	0f b7 05 50 9d 00 00 	movzwl 0x9d50(%rip),%eax        # 1d32a <g_651+0x2a>
   135da:	0f b7 d0             	movzwl %ax,%edx
   135dd:	0f bf 85 1c e3 ff ff 	movswl -0x1ce4(%rbp),%eax
   135e4:	21 c2                	and    %eax,%edx
   135e6:	0f bf 85 1c e3 ff ff 	movswl -0x1ce4(%rbp),%eax
   135ed:	89 85 38 e3 ff ff    	mov    %eax,-0x1cc8(%rbp)
   135f3:	8b 85 38 e3 ff ff    	mov    -0x1cc8(%rbp),%eax
   135f9:	39 c2                	cmp    %eax,%edx
   135fb:	0f 8e 35 03 00 00    	jle    13936 <func_66+0x4272>
   13601:	48 8d 05 18 c0 00 00 	lea    0xc018(%rip),%rax        # 1f620 <g_40+0x1a0>
   13608:	48 89 85 50 e6 ff ff 	mov    %rax,-0x19b0(%rbp)
   1360f:	c7 85 3c e4 ff ff cb 	movl   $0x8ebfcbcb,-0x1bc4(%rbp)
   13616:	cb bf 8e 
   13619:	48 c7 85 58 e6 ff ff 	movq   $0x0,-0x19a8(%rbp)
   13620:	00 00 00 00 
   13624:	48 8d 85 10 e7 ff ff 	lea    -0x18f0(%rbp),%rax
   1362b:	48 83 c0 10          	add    $0x10,%rax
   1362f:	48 89 85 50 f2 ff ff 	mov    %rax,-0xdb0(%rbp)
   13636:	48 8d 85 10 e7 ff ff 	lea    -0x18f0(%rbp),%rax
   1363d:	48 83 c0 10          	add    $0x10,%rax
   13641:	48 89 85 58 f2 ff ff 	mov    %rax,-0xda8(%rbp)
   13648:	48 8d 85 10 e7 ff ff 	lea    -0x18f0(%rbp),%rax
   1364f:	48 83 c0 10          	add    $0x10,%rax
   13653:	48 89 85 60 f2 ff ff 	mov    %rax,-0xda0(%rbp)
   1365a:	48 8d 85 10 e7 ff ff 	lea    -0x18f0(%rbp),%rax
   13661:	48 83 c0 10          	add    $0x10,%rax
   13665:	48 89 85 68 f2 ff ff 	mov    %rax,-0xd98(%rbp)
   1366c:	48 8d 85 10 e7 ff ff 	lea    -0x18f0(%rbp),%rax
   13673:	48 83 c0 10          	add    $0x10,%rax
   13677:	48 89 85 70 f2 ff ff 	mov    %rax,-0xd90(%rbp)
   1367e:	48 8d 85 10 e7 ff ff 	lea    -0x18f0(%rbp),%rax
   13685:	48 83 c0 10          	add    $0x10,%rax
   13689:	48 89 85 78 f2 ff ff 	mov    %rax,-0xd88(%rbp)
   13690:	48 8d 85 10 e7 ff ff 	lea    -0x18f0(%rbp),%rax
   13697:	48 83 c0 10          	add    $0x10,%rax
   1369b:	48 89 85 80 f2 ff ff 	mov    %rax,-0xd80(%rbp)
   136a2:	48 8d 05 ef 9b 00 00 	lea    0x9bef(%rip),%rax        # 1d298 <g_290+0x38>
   136a9:	48 89 85 60 e6 ff ff 	mov    %rax,-0x19a0(%rbp)
   136b0:	48 8d 85 f0 f7 ff ff 	lea    -0x810(%rbp),%rax
   136b7:	48 05 88 03 00 00    	add    $0x388,%rax
   136bd:	48 89 85 68 e6 ff ff 	mov    %rax,-0x1998(%rbp)
   136c4:	48 8d 05 55 9a 00 00 	lea    0x9a55(%rip),%rax        # 1d120 <g_207>
   136cb:	48 89 85 70 e6 ff ff 	mov    %rax,-0x1990(%rbp)
   136d2:	c7 85 ec e3 ff ff 00 	movl   $0x0,-0x1c14(%rbp)
   136d9:	00 00 00 
   136dc:	eb 51                	jmp    1372f <func_66+0x406b>
   136de:	c7 85 f0 e3 ff ff 00 	movl   $0x0,-0x1c10(%rbp)
   136e5:	00 00 00 
   136e8:	eb 35                	jmp    1371f <func_66+0x405b>
   136ea:	8b 85 f0 e3 ff ff    	mov    -0x1c10(%rbp),%eax
   136f0:	48 63 c8             	movslq %eax,%rcx
   136f3:	8b 85 ec e3 ff ff    	mov    -0x1c14(%rbp),%eax
   136f9:	48 63 d0             	movslq %eax,%rdx
   136fc:	48 89 d0             	mov    %rdx,%rax
   136ff:	48 c1 e0 02          	shl    $0x2,%rax
   13703:	48 01 d0             	add    %rdx,%rax
   13706:	48 01 c8             	add    %rcx,%rax
   13709:	48 8d 15 70 9c 00 00 	lea    0x9c70(%rip),%rdx        # 1d380 <g_1017>
   13710:	48 89 94 c5 60 eb ff 	mov    %rdx,-0x14a0(%rbp,%rax,8)
   13717:	ff 
   13718:	83 85 f0 e3 ff ff 01 	addl   $0x1,-0x1c10(%rbp)
   1371f:	83 bd f0 e3 ff ff 04 	cmpl   $0x4,-0x1c10(%rbp)
   13726:	7e c2                	jle    136ea <func_66+0x4026>
   13728:	83 85 ec e3 ff ff 01 	addl   $0x1,-0x1c14(%rbp)
   1372f:	83 bd ec e3 ff ff 00 	cmpl   $0x0,-0x1c14(%rbp)
   13736:	7e a6                	jle    136de <func_66+0x401a>
   13738:	0f bf 85 1c e3 ff ff 	movswl -0x1ce4(%rbp),%eax
   1373f:	89 85 a4 f0 ff ff    	mov    %eax,-0xf5c(%rbp)
   13745:	8b 85 38 e4 ff ff    	mov    -0x1bc8(%rbp),%eax
   1374b:	48 63 d8             	movslq %eax,%rbx
   1374e:	48 83 bd 38 e6 ff ff 	cmpq   $0x0,-0x19c8(%rbp)
   13755:	00 
   13756:	48 8b 05 fb be 00 00 	mov    0xbefb(%rip),%rax        # 1f658 <g_215>
   1375d:	0f b7 85 1c e3 ff ff 	movzwl -0x1ce4(%rbp),%eax
   13764:	83 c8 01             	or     $0x1,%eax
   13767:	98                   	cwtl   
   13768:	48 8b 95 98 e5 ff ff 	mov    -0x1a68(%rbp),%rdx
   1376f:	89 c6                	mov    %eax,%esi
   13771:	89 d7                	mov    %edx,%edi
   13773:	e8 58 77 ff ff       	callq  aed0 <safe_sub_func_uint32_t_u_u>
   13778:	85 c0                	test   %eax,%eax
   1377a:	74 07                	je     13783 <func_66+0x40bf>
   1377c:	b8 01 00 00 00       	mov    $0x1,%eax
   13781:	eb 05                	jmp    13788 <func_66+0x40c4>
   13783:	b8 00 00 00 00       	mov    $0x0,%eax
   13788:	0f b6 c0             	movzbl %al,%eax
   1378b:	be 8c 00 00 00       	mov    $0x8c,%esi
   13790:	89 c7                	mov    %eax,%edi
   13792:	e8 c3 73 ff ff       	callq  ab5a <safe_add_func_uint8_t_u_u>
   13797:	0f bf 85 1c e3 ff ff 	movswl -0x1ce4(%rbp),%eax
   1379e:	be 00 00 00 00       	mov    $0x0,%esi
   137a3:	89 c7                	mov    %eax,%edi
   137a5:	e8 e8 6c ff ff       	callq  a492 <safe_lshift_func_int16_t_s_s>
   137aa:	8b 05 d0 9b 00 00    	mov    0x9bd0(%rip),%eax        # 1d380 <g_1017>
   137b0:	85 c0                	test   %eax,%eax
   137b2:	0f 94 c0             	sete   %al
   137b5:	0f b6 c0             	movzbl %al,%eax
   137b8:	48 0b 85 98 e5 ff ff 	or     -0x1a68(%rbp),%rax
   137bf:	48 89 de             	mov    %rbx,%rsi
   137c2:	48 89 c7             	mov    %rax,%rdi
   137c5:	e8 77 70 ff ff       	callq  a841 <safe_add_func_int64_t_s_s>
   137ca:	89 85 fc e3 ff ff    	mov    %eax,-0x1c04(%rbp)
   137d0:	0f bf 85 1c e3 ff ff 	movswl -0x1ce4(%rbp),%eax
   137d7:	48 8b 95 70 e6 ff ff 	mov    -0x1990(%rbp),%rdx
   137de:	8b 12                	mov    (%rdx),%edx
   137e0:	8d 4a ff             	lea    -0x1(%rdx),%ecx
   137e3:	48 8b 95 70 e6 ff ff 	mov    -0x1990(%rbp),%rdx
   137ea:	89 0a                	mov    %ecx,(%rdx)
   137ec:	48 8b 95 70 e6 ff ff 	mov    -0x1990(%rbp),%rdx
   137f3:	8b 12                	mov    (%rdx),%edx
   137f5:	89 95 0c e4 ff ff    	mov    %edx,-0x1bf4(%rbp)
   137fb:	39 85 0c e4 ff ff    	cmp    %eax,-0x1bf4(%rbp)
   13801:	0f 9c c0             	setl   %al
   13804:	0f b6 d0             	movzbl %al,%edx
   13807:	48 8b 85 38 e6 ff ff 	mov    -0x19c8(%rbp),%rax
   1380e:	0f b7 00             	movzwl (%rax),%eax
   13811:	8d 48 ff             	lea    -0x1(%rax),%ecx
   13814:	48 8b 85 38 e6 ff ff 	mov    -0x19c8(%rbp),%rax
   1381b:	66 89 08             	mov    %cx,(%rax)
   1381e:	48 8b 85 38 e6 ff ff 	mov    -0x19c8(%rbp),%rax
   13825:	0f b7 00             	movzwl (%rax),%eax
   13828:	0f b7 c0             	movzwl %ax,%eax
   1382b:	89 d6                	mov    %edx,%esi
   1382d:	89 c7                	mov    %eax,%edi
   1382f:	e8 d2 75 ff ff       	callq  ae06 <safe_lshift_func_uint16_t_u_u>
   13834:	8b 85 34 e4 ff ff    	mov    -0x1bcc(%rbp),%eax
   1383a:	0f bf d8             	movswl %ax,%ebx
   1383d:	8b 85 1c e7 ff ff    	mov    -0x18e4(%rbp),%eax
   13843:	66 83 bd 1c e3 ff ff 	cmpw   $0x1,-0x1ce4(%rbp)
   1384a:	01 
   1384b:	7f 07                	jg     13854 <func_66+0x4190>
   1384d:	ba d5 b1 00 00       	mov    $0xb1d5,%edx
   13852:	eb 05                	jmp    13859 <func_66+0x4195>
   13854:	ba d4 b1 00 00       	mov    $0xb1d4,%edx
   13859:	89 c6                	mov    %eax,%esi
   1385b:	89 d7                	mov    %edx,%edi
   1385d:	e8 6a 6e ff ff       	callq  a6cc <safe_mod_func_int32_t_s_s>
   13862:	8b 85 34 e4 ff ff    	mov    -0x1bcc(%rbp),%eax
   13868:	98                   	cwtl   
   13869:	89 c7                	mov    %eax,%edi
   1386b:	e8 2d 6b ff ff       	callq  a39d <safe_unary_minus_func_int16_t_s>
   13870:	89 de                	mov    %ebx,%esi
   13872:	bf 01 00 00 00       	mov    $0x1,%edi
   13877:	e8 79 6b ff ff       	callq  a3f5 <safe_mul_func_int16_t_s_s>
   1387c:	0f b7 85 1c e3 ff ff 	movzwl -0x1ce4(%rbp),%eax
   13883:	0f b6 c0             	movzbl %al,%eax
   13886:	be 4f 00 00 00       	mov    $0x4f,%esi
   1388b:	89 c7                	mov    %eax,%edi
   1388d:	e8 49 73 ff ff       	callq  abdb <safe_div_func_uint8_t_u_u>
   13892:	48 8b 95 78 fb ff ff 	mov    -0x488(%rbp),%rdx
   13899:	48 8b 85 68 e6 ff ff 	mov    -0x1998(%rbp),%rax
   138a0:	48 89 10             	mov    %rdx,(%rax)
   138a3:	80 bd 25 e3 ff ff 00 	cmpb   $0x0,-0x1cdb(%rbp)
   138aa:	48 0f bf 8d 1c e3 ff 	movswq -0x1ce4(%rbp),%rcx
   138b1:	ff 
   138b2:	8b 05 34 9b 00 00    	mov    0x9b34(%rip),%eax        # 1d3ec <g_1307>
   138b8:	c1 e0 04             	shl    $0x4,%eax
   138bb:	c1 f8 04             	sar    $0x4,%eax
   138be:	48 63 d0             	movslq %eax,%rdx
   138c1:	48 8b 85 60 e6 ff ff 	mov    -0x19a0(%rbp),%rax
   138c8:	48 89 10             	mov    %rdx,(%rax)
   138cb:	48 8b 85 60 e6 ff ff 	mov    -0x19a0(%rbp),%rax
   138d2:	48 8b 00             	mov    (%rax),%rax
   138d5:	48 39 c1             	cmp    %rax,%rcx
   138d8:	0f 9e c0             	setle  %al
   138db:	0f b6 c0             	movzbl %al,%eax
   138de:	48 89 c6             	mov    %rax,%rsi
   138e1:	48 bf d8 00 36 4f c2 	movabs $0xe54083c24f3600d8,%rdi
   138e8:	83 40 e5 
   138eb:	e8 5b 77 ff ff       	callq  b04b <safe_sub_func_uint64_t_u_u>
   138f0:	48 8b 85 58 e5 ff ff 	mov    -0x1aa8(%rbp),%rax
   138f7:	48 8b 00             	mov    (%rax),%rax
   138fa:	48 8b 10             	mov    (%rax),%rdx
   138fd:	48 83 c2 01          	add    $0x1,%rdx
   13901:	48 89 10             	mov    %rdx,(%rax)
   13904:	8b 95 f4 e6 ff ff    	mov    -0x190c(%rbp),%edx
   1390a:	0f bf 85 1c e3 ff ff 	movswl -0x1ce4(%rbp),%eax
   13911:	31 d0                	xor    %edx,%eax
   13913:	89 85 f4 e6 ff ff    	mov    %eax,-0x190c(%rbp)
   13919:	c7 85 38 e3 ff ff 00 	movl   $0x0,-0x1cc8(%rbp)
   13920:	00 00 00 
   13923:	48 8b 85 a0 e5 ff ff 	mov    -0x1a60(%rbp),%rax
   1392a:	48 89 85 10 e3 ff ff 	mov    %rax,-0x1cf0(%rbp)
   13931:	e9 42 01 00 00       	jmpq   13a78 <func_66+0x43b4>
   13936:	48 c7 85 40 e6 ff ff 	movq   $0x1,-0x19c0(%rbp)
   1393d:	01 00 00 00 
   13941:	48 8d 85 90 e4 ff ff 	lea    -0x1b70(%rbp),%rax
   13948:	48 89 85 b0 e4 ff ff 	mov    %rax,-0x1b50(%rbp)
   1394f:	48 8d 85 b0 e4 ff ff 	lea    -0x1b50(%rbp),%rax
   13956:	48 89 85 48 e6 ff ff 	mov    %rax,-0x19b8(%rbp)
   1395d:	0f b6 05 14 9a 00 00 	movzbl 0x9a14(%rip),%eax        # 1d378 <g_994>
   13964:	0f b6 d8             	movzbl %al,%ebx
   13967:	0f b7 85 1c e3 ff ff 	movzwl -0x1ce4(%rbp),%eax
   1396e:	0f be c0             	movsbl %al,%eax
   13971:	be 07 00 00 00       	mov    $0x7,%esi
   13976:	89 c7                	mov    %eax,%edi
   13978:	e8 b8 69 ff ff       	callq  a335 <safe_rshift_func_int8_t_s_s>
   1397d:	66 98                	cbtw   
   1397f:	66 39 85 1c e3 ff ff 	cmp    %ax,-0x1ce4(%rbp)
   13986:	0f 9f c0             	setg   %al
   13989:	0f b6 c0             	movzbl %al,%eax
   1398c:	48 89 c7             	mov    %rax,%rdi
   1398f:	e8 85 76 ff ff       	callq  b019 <safe_unary_minus_func_uint64_t_u>
   13994:	89 c2                	mov    %eax,%edx
   13996:	48 8b 85 38 e6 ff ff 	mov    -0x19c8(%rbp),%rax
   1399d:	66 89 10             	mov    %dx,(%rax)
   139a0:	48 8b 85 38 e6 ff ff 	mov    -0x19c8(%rbp),%rax
   139a7:	0f b7 00             	movzwl (%rax),%eax
   139aa:	66 39 c3             	cmp    %ax,%bx
   139ad:	0f 95 c0             	setne  %al
   139b0:	0f b6 c0             	movzbl %al,%eax
   139b3:	89 85 28 e7 ff ff    	mov    %eax,-0x18d8(%rbp)
   139b9:	8b 85 28 e7 ff ff    	mov    -0x18d8(%rbp),%eax
   139bf:	0f be c0             	movsbl %al,%eax
   139c2:	be 01 00 00 00       	mov    $0x1,%esi
   139c7:	89 c7                	mov    %eax,%edi
   139c9:	e8 44 68 ff ff       	callq  a212 <safe_mul_func_int8_t_s_s>
   139ce:	be 00 00 00 00       	mov    $0x0,%esi
   139d3:	bf ff ff 00 00       	mov    $0xffff,%edi
   139d8:	e8 6b 74 ff ff       	callq  ae48 <safe_rshift_func_uint16_t_u_s>
   139dd:	48 8b 95 38 e6 ff ff 	mov    -0x19c8(%rbp),%rdx
   139e4:	0f b7 12             	movzwl (%rdx),%edx
   139e7:	31 c2                	xor    %eax,%edx
   139e9:	48 8b 85 38 e6 ff ff 	mov    -0x19c8(%rbp),%rax
   139f0:	66 89 10             	mov    %dx,(%rax)
   139f3:	48 8b 85 38 e6 ff ff 	mov    -0x19c8(%rbp),%rax
   139fa:	0f b7 00             	movzwl (%rax),%eax
   139fd:	44 0f b7 e0          	movzwl %ax,%r12d
   13a01:	0f b7 85 1c e3 ff ff 	movzwl -0x1ce4(%rbp),%eax
   13a08:	0f be d8             	movsbl %al,%ebx
   13a0b:	48 8b 85 40 e6 ff ff 	mov    -0x19c0(%rbp),%rax
   13a12:	0f be d0             	movsbl %al,%edx
   13a15:	8b 85 14 e4 ff ff    	mov    -0x1bec(%rbp),%eax
   13a1b:	0f be c0             	movsbl %al,%eax
   13a1e:	89 d6                	mov    %edx,%esi
   13a20:	89 c7                	mov    %eax,%edi
   13a22:	e8 eb 67 ff ff       	callq  a212 <safe_mul_func_int8_t_s_s>
   13a27:	0f be c0             	movsbl %al,%eax
   13a2a:	89 de                	mov    %ebx,%esi
   13a2c:	89 c7                	mov    %eax,%edi
   13a2e:	e8 df 67 ff ff       	callq  a212 <safe_mul_func_int8_t_s_s>
   13a33:	0f be c0             	movsbl %al,%eax
   13a36:	39 85 34 e4 ff ff    	cmp    %eax,-0x1bcc(%rbp)
   13a3c:	0f 9c c0             	setl   %al
   13a3f:	0f b6 c0             	movzbl %al,%eax
   13a42:	44 89 e1             	mov    %r12d,%ecx
   13a45:	31 c1                	xor    %eax,%ecx
   13a47:	48 8b 85 b0 e4 ff ff 	mov    -0x1b50(%rbp),%rax
   13a4e:	8b 10                	mov    (%rax),%edx
   13a50:	48 8b 85 b0 e4 ff ff 	mov    -0x1b50(%rbp),%rax
   13a57:	09 ca                	or     %ecx,%edx
   13a59:	89 10                	mov    %edx,(%rax)
   13a5b:	48 8b 85 48 e6 ff ff 	mov    -0x19b8(%rbp),%rax
   13a62:	48 8d 95 a0 e4 ff ff 	lea    -0x1b60(%rbp),%rdx
   13a69:	48 89 10             	mov    %rdx,(%rax)
   13a6c:	8b 85 f4 e6 ff ff    	mov    -0x190c(%rbp),%eax
   13a72:	89 85 00 e4 ff ff    	mov    %eax,-0x1c00(%rbp)
   13a78:	8b 05 06 99 00 00    	mov    0x9906(%rip),%eax        # 1d384 <g_1037>
   13a7e:	0f b7 c0             	movzwl %ax,%eax
   13a81:	be 09 00 00 00       	mov    $0x9,%esi
   13a86:	89 c7                	mov    %eax,%edi
   13a88:	e8 72 72 ff ff       	callq  acff <safe_add_func_uint16_t_u_u>
   13a8d:	0f b7 c0             	movzwl %ax,%eax
   13a90:	89 05 ee 98 00 00    	mov    %eax,0x98ee(%rip)        # 1d384 <g_1037>
   13a96:	8b 05 e8 98 00 00    	mov    0x98e8(%rip),%eax        # 1d384 <g_1037>
   13a9c:	83 f8 0b             	cmp    $0xb,%eax
   13a9f:	0f 86 0c fb ff ff    	jbe    135b1 <func_66+0x3eed>
   13aa5:	8b 05 c9 98 00 00    	mov    0x98c9(%rip),%eax        # 1d374 <g_976>
   13aab:	83 c0 01             	add    $0x1,%eax
   13aae:	89 05 c0 98 00 00    	mov    %eax,0x98c0(%rip)        # 1d374 <g_976>
   13ab4:	8b 05 ba 98 00 00    	mov    0x98ba(%rip),%eax        # 1d374 <g_976>
   13aba:	83 f8 3b             	cmp    $0x3b,%eax
   13abd:	0f 85 e3 ec ff ff    	jne    127a6 <func_66+0x30e2>
   13ac3:	48 8b 85 f0 ed ff ff 	mov    -0x1210(%rbp),%rax
   13aca:	48 83 c0 01          	add    $0x1,%rax
   13ace:	48 89 85 f0 ed ff ff 	mov    %rax,-0x1210(%rbp)
   13ad5:	8b 05 69 97 00 00    	mov    0x9769(%rip),%eax        # 1d244 <g_284>
   13adb:	98                   	cwtl   
   13adc:	be 02 00 00 00       	mov    $0x2,%esi
   13ae1:	89 c7                	mov    %eax,%edi
   13ae3:	e8 cb 68 ff ff       	callq  a3b3 <safe_add_func_int16_t_s_s>
   13ae8:	98                   	cwtl   
   13ae9:	89 05 55 97 00 00    	mov    %eax,0x9755(%rip)        # 1d244 <g_284>
   13aef:	8b 05 4f 97 00 00    	mov    0x974f(%rip),%eax        # 1d244 <g_284>
   13af5:	83 f8 31             	cmp    $0x31,%eax
   13af8:	0f 86 0b ea ff ff    	jbe    12509 <func_66+0x2e45>
   13afe:	66 83 bd 1c e3 ff ff 	cmpw   $0x0,-0x1ce4(%rbp)
   13b05:	00 
   13b06:	0f be 85 24 e3 ff ff 	movsbl -0x1cdc(%rbp),%eax
   13b0d:	be 01 00 00 00       	mov    $0x1,%esi
   13b12:	89 c7                	mov    %eax,%edi
   13b14:	e8 9a 68 ff ff       	callq  a3b3 <safe_add_func_int16_t_s_s>
   13b19:	88 85 24 e3 ff ff    	mov    %al,-0x1cdc(%rbp)
   13b1f:	80 bd 24 e3 ff ff 07 	cmpb   $0x7,-0x1cdc(%rbp)
   13b26:	0f 8f 1c de ff ff    	jg     11948 <func_66+0x2284>
   13b2c:	48 8b 05 c5 bf 00 00 	mov    0xbfc5(%rip),%rax        # 1faf8 <g_784>
   13b33:	8b 00                	mov    (%rax),%eax
   13b35:	48 8b 4d d8          	mov    -0x28(%rbp),%rcx
   13b39:	64 48 33 0c 25 28 00 	xor    %fs:0x28,%rcx
   13b40:	00 00 
   13b42:	74 05                	je     13b49 <func_66+0x4485>
   13b44:	e8 27 65 ff ff       	callq  a070 <__stack_chk_fail@plt>
   13b49:	48 81 c4 d0 1c 00 00 	add    $0x1cd0,%rsp
   13b50:	5b                   	pop    %rbx
   13b51:	41 5c                	pop    %r12
   13b53:	41 5d                	pop    %r13
   13b55:	41 5e                	pop    %r14
   13b57:	5d                   	pop    %rbp
   13b58:	c3                   	retq   

0000000000013b59 <func_78>:
   13b59:	f3 0f 1e fa          	endbr64 
   13b5d:	55                   	push   %rbp
   13b5e:	48 89 e5             	mov    %rsp,%rbp
   13b61:	41 57                	push   %r15
   13b63:	41 56                	push   %r14
   13b65:	41 55                	push   %r13
   13b67:	41 54                	push   %r12
   13b69:	53                   	push   %rbx
   13b6a:	48 81 ec 00 10 00 00 	sub    $0x1000,%rsp
   13b71:	48 83 0c 24 00       	orq    $0x0,(%rsp)
   13b76:	48 81 ec 68 03 00 00 	sub    $0x368,%rsp
   13b7d:	48 89 bd 88 ec ff ff 	mov    %rdi,-0x1378(%rbp)
   13b84:	48 89 b5 80 ec ff ff 	mov    %rsi,-0x1380(%rbp)
   13b8b:	48 89 95 78 ec ff ff 	mov    %rdx,-0x1388(%rbp)
   13b92:	64 48 8b 04 25 28 00 	mov    %fs:0x28,%rax
   13b99:	00 00 
   13b9b:	48 89 45 c8          	mov    %rax,-0x38(%rbp)
   13b9f:	31 c0                	xor    %eax,%eax
   13ba1:	48 8d 85 40 f1 ff ff 	lea    -0xec0(%rbp),%rax
   13ba8:	48 8d 15 91 af 00 00 	lea    0xaf91(%rip),%rdx        # 1eb40 <g_2124+0x16f4>
   13baf:	b9 2d 00 00 00       	mov    $0x2d,%ecx
   13bb4:	48 89 c7             	mov    %rax,%rdi
   13bb7:	48 89 d6             	mov    %rdx,%rsi
   13bba:	f3 48 a5             	rep movsq %ds:(%rsi),%es:(%rdi)
   13bbd:	48 8d 05 8c 94 00 00 	lea    0x948c(%rip),%rax        # 1d050 <g_94>
   13bc4:	48 89 85 a0 ed ff ff 	mov    %rax,-0x1260(%rbp)
   13bcb:	c6 85 94 ec ff ff a7 	movb   $0xa7,-0x136c(%rbp)
   13bd2:	48 8d 05 8f 94 00 00 	lea    0x948f(%rip),%rax        # 1d068 <g_113+0x8>
   13bd9:	48 89 85 e0 ec ff ff 	mov    %rax,-0x1320(%rbp)
   13be0:	48 8d 85 40 f8 ff ff 	lea    -0x7c0(%rbp),%rax
   13be7:	48 8d 15 d2 b0 00 00 	lea    0xb0d2(%rip),%rdx        # 1ecc0 <g_2124+0x1874>
   13bee:	b9 f0 00 00 00       	mov    $0xf0,%ecx
   13bf3:	48 89 c7             	mov    %rax,%rdi
   13bf6:	48 89 d6             	mov    %rdx,%rsi
   13bf9:	f3 48 a5             	rep movsq %ds:(%rsi),%es:(%rdi)
   13bfc:	c7 85 98 ec ff ff bb 	movl   $0x40366bbb,-0x1368(%rbp)
   13c03:	6b 36 40 
   13c06:	48 c7 85 98 ed ff ff 	movq   $0x0,-0x1268(%rbp)
   13c0d:	00 00 00 00 
   13c11:	c7 85 9c ec ff ff 21 	movl   $0x30134a21,-0x1364(%rbp)
   13c18:	4a 13 30 
   13c1b:	c7 85 a0 ec ff ff 01 	movl   $0x1,-0x1360(%rbp)
   13c22:	00 00 00 
   13c25:	c7 85 a4 ec ff ff ff 	movl   $0xffffffff,-0x135c(%rbp)
   13c2c:	ff ff ff 
   13c2f:	c7 85 a0 ef ff ff f6 	movl   $0xfffffff6,-0x1060(%rbp)
   13c36:	ff ff ff 
   13c39:	c7 85 a4 ef ff ff 01 	movl   $0x64479f01,-0x105c(%rbp)
   13c40:	9f 47 64 
   13c43:	c7 85 a8 ef ff ff f0 	movl   $0xe3bd15f0,-0x1058(%rbp)
   13c4a:	15 bd e3 
   13c4d:	c7 85 ac ef ff ff 83 	movl   $0xba8a5683,-0x1054(%rbp)
   13c54:	56 8a ba 
   13c57:	c7 85 b0 ef ff ff 01 	movl   $0x64479f01,-0x1050(%rbp)
   13c5e:	9f 47 64 
   13c61:	c7 85 b4 ef ff ff 4c 	movl   $0xabcb274c,-0x104c(%rbp)
   13c68:	27 cb ab 
   13c6b:	c7 85 b8 ef ff ff 01 	movl   $0x64479f01,-0x1048(%rbp)
   13c72:	9f 47 64 
   13c75:	c7 85 bc ef ff ff 83 	movl   $0xba8a5683,-0x1044(%rbp)
   13c7c:	56 8a ba 
   13c7f:	c7 85 c0 ef ff ff 01 	movl   $0x1,-0x1040(%rbp)
   13c86:	00 00 00 
   13c89:	c7 85 c4 ef ff ff 01 	movl   $0x64479f01,-0x103c(%rbp)
   13c90:	9f 47 64 
   13c93:	c7 85 c8 ef ff ff 01 	movl   $0x1,-0x1038(%rbp)
   13c9a:	00 00 00 
   13c9d:	c7 85 cc ef ff ff 00 	movl   $0x0,-0x1034(%rbp)
   13ca4:	00 00 00 
   13ca7:	c7 85 d0 ef ff ff f6 	movl   $0xfffffff6,-0x1030(%rbp)
   13cae:	ff ff ff 
   13cb1:	c7 85 d4 ef ff ff 01 	movl   $0x1,-0x102c(%rbp)
   13cb8:	00 00 00 
   13cbb:	c7 85 d8 ef ff ff d0 	movl   $0x24c40ad0,-0x1028(%rbp)
   13cc2:	0a c4 24 
   13cc5:	c7 85 dc ef ff ff 08 	movl   $0x8,-0x1024(%rbp)
   13ccc:	00 00 00 
   13ccf:	c7 85 e0 ef ff ff 03 	movl   $0x3,-0x1020(%rbp)
   13cd6:	00 00 00 
   13cd9:	c7 85 e4 ef ff ff 00 	movl   $0x0,-0x101c(%rbp)
   13ce0:	00 00 00 
   13ce3:	c7 85 e8 ef ff ff 14 	movl   $0xac85e214,-0x1018(%rbp)
   13cea:	e2 85 ac 
   13ced:	c7 85 ec ef ff ff f6 	movl   $0xfffffff6,-0x1014(%rbp)
   13cf4:	ff ff ff 
   13cf7:	c7 85 f0 ef ff ff 04 	movl   $0x4,-0x1010(%rbp)
   13cfe:	00 00 00 
   13d01:	c7 85 f4 ef ff ff 04 	movl   $0x4,-0x100c(%rbp)
   13d08:	00 00 00 
   13d0b:	c7 85 f8 ef ff ff f6 	movl   $0xfffffff6,-0x1008(%rbp)
   13d12:	ff ff ff 
   13d15:	c7 85 fc ef ff ff 14 	movl   $0xac85e214,-0x1004(%rbp)
   13d1c:	e2 85 ac 
   13d1f:	c7 85 00 f0 ff ff 03 	movl   $0x3,-0x1000(%rbp)
   13d26:	00 00 00 
   13d29:	c7 85 04 f0 ff ff 03 	movl   $0x3,-0xffc(%rbp)
   13d30:	00 00 00 
   13d33:	c7 85 08 f0 ff ff 4c 	movl   $0xabcb274c,-0xff8(%rbp)
   13d3a:	27 cb ab 
   13d3d:	c7 85 0c f0 ff ff 83 	movl   $0xba8a5683,-0xff4(%rbp)
   13d44:	56 8a ba 
   13d47:	c7 85 10 f0 ff ff f6 	movl   $0xfffffff6,-0xff0(%rbp)
   13d4e:	ff ff ff 
   13d51:	c7 85 14 f0 ff ff 08 	movl   $0x8,-0xfec(%rbp)
   13d58:	00 00 00 
   13d5b:	c7 85 18 f0 ff ff 03 	movl   $0x3,-0xfe8(%rbp)
   13d62:	00 00 00 
   13d65:	c7 85 1c f0 ff ff f6 	movl   $0xfffffff6,-0xfe4(%rbp)
   13d6c:	ff ff ff 
   13d6f:	48 8d 05 ce 94 00 00 	lea    0x94ce(%rip),%rax        # 1d244 <g_284>
   13d76:	48 89 85 78 ed ff ff 	mov    %rax,-0x1288(%rbp)
   13d7d:	48 c7 85 e8 ec ff ff 	movq   $0x0,-0x1318(%rbp)
   13d84:	00 00 00 00 
   13d88:	48 8d 85 e8 ec ff ff 	lea    -0x1318(%rbp),%rax
   13d8f:	48 89 85 f0 ec ff ff 	mov    %rax,-0x1310(%rbp)
   13d96:	48 8d 05 b3 b8 00 00 	lea    0xb8b3(%rip),%rax        # 1f650 <g_211>
   13d9d:	48 89 85 f8 ec ff ff 	mov    %rax,-0x1308(%rbp)
   13da4:	48 8d 85 f8 ec ff ff 	lea    -0x1308(%rbp),%rax
   13dab:	48 89 85 80 ed ff ff 	mov    %rax,-0x1280(%rbp)
   13db2:	c7 85 a8 ec ff ff 02 	movl   $0x6021aa02,-0x1358(%rbp)
   13db9:	aa 21 60 
   13dbc:	c6 85 93 ec ff ff 00 	movb   $0x0,-0x136d(%rbp)
   13dc3:	48 8d 05 56 d0 00 00 	lea    0xd056(%rip),%rax        # 20e20 <g_221>
   13dca:	48 89 85 88 ed ff ff 	mov    %rax,-0x1278(%rbp)
   13dd1:	48 8d 05 30 93 00 00 	lea    0x9330(%rip),%rax        # 1d108 <g_165>
   13dd8:	48 89 85 90 ed ff ff 	mov    %rax,-0x1270(%rbp)
   13ddf:	48 8d 85 40 f8 ff ff 	lea    -0x7c0(%rbp),%rax
   13de6:	48 83 c0 40          	add    $0x40,%rax
   13dea:	48 89 85 00 ed ff ff 	mov    %rax,-0x1300(%rbp)
   13df1:	48 8d 85 00 ed ff ff 	lea    -0x1300(%rbp),%rax
   13df8:	48 89 85 08 ed ff ff 	mov    %rax,-0x12f8(%rbp)
   13dff:	48 c7 85 60 ef ff ff 	movq   $0x0,-0x10a0(%rbp)
   13e06:	00 00 00 00 
   13e0a:	48 c7 85 68 ef ff ff 	movq   $0x0,-0x1098(%rbp)
   13e11:	00 00 00 00 
   13e15:	48 c7 85 70 ef ff ff 	movq   $0x0,-0x1090(%rbp)
   13e1c:	00 00 00 00 
   13e20:	48 c7 85 78 ef ff ff 	movq   $0x0,-0x1088(%rbp)
   13e27:	00 00 00 00 
   13e2b:	48 c7 85 80 ef ff ff 	movq   $0x0,-0x1080(%rbp)
   13e32:	00 00 00 00 
   13e36:	48 c7 85 88 ef ff ff 	movq   $0x0,-0x1078(%rbp)
   13e3d:	00 00 00 00 
   13e41:	48 c7 85 90 ef ff ff 	movq   $0x0,-0x1070(%rbp)
   13e48:	00 00 00 00 
   13e4c:	48 c7 85 98 ef ff ff 	movq   $0x0,-0x1068(%rbp)
   13e53:	00 00 00 00 
   13e57:	48 c7 85 f0 f4 ff ff 	movq   $0x0,-0xb10(%rbp)
   13e5e:	00 00 00 00 
   13e62:	48 8d 85 60 ef ff ff 	lea    -0x10a0(%rbp),%rax
   13e69:	48 83 c0 28          	add    $0x28,%rax
   13e6d:	48 89 85 f8 f4 ff ff 	mov    %rax,-0xb08(%rbp)
   13e74:	48 8d 85 60 ef ff ff 	lea    -0x10a0(%rbp),%rax
   13e7b:	48 83 c0 28          	add    $0x28,%rax
   13e7f:	48 89 85 00 f5 ff ff 	mov    %rax,-0xb00(%rbp)
   13e86:	48 8d 85 60 ef ff ff 	lea    -0x10a0(%rbp),%rax
   13e8d:	48 83 c0 28          	add    $0x28,%rax
   13e91:	48 89 85 08 f5 ff ff 	mov    %rax,-0xaf8(%rbp)
   13e98:	48 8d 85 60 ef ff ff 	lea    -0x10a0(%rbp),%rax
   13e9f:	48 83 c0 28          	add    $0x28,%rax
   13ea3:	48 89 85 10 f5 ff ff 	mov    %rax,-0xaf0(%rbp)
   13eaa:	48 c7 85 18 f5 ff ff 	movq   $0x0,-0xae8(%rbp)
   13eb1:	00 00 00 00 
   13eb5:	48 8d 85 60 ef ff ff 	lea    -0x10a0(%rbp),%rax
   13ebc:	48 83 c0 20          	add    $0x20,%rax
   13ec0:	48 89 85 20 f5 ff ff 	mov    %rax,-0xae0(%rbp)
   13ec7:	48 8d 85 60 ef ff ff 	lea    -0x10a0(%rbp),%rax
   13ece:	48 83 c0 30          	add    $0x30,%rax
   13ed2:	48 89 85 28 f5 ff ff 	mov    %rax,-0xad8(%rbp)
   13ed9:	48 8d 85 60 ef ff ff 	lea    -0x10a0(%rbp),%rax
   13ee0:	48 83 c0 30          	add    $0x30,%rax
   13ee4:	48 89 85 30 f5 ff ff 	mov    %rax,-0xad0(%rbp)
   13eeb:	48 8d 85 60 ef ff ff 	lea    -0x10a0(%rbp),%rax
   13ef2:	48 83 c0 20          	add    $0x20,%rax
   13ef6:	48 89 85 38 f5 ff ff 	mov    %rax,-0xac8(%rbp)
   13efd:	48 c7 85 40 f5 ff ff 	movq   $0x0,-0xac0(%rbp)
   13f04:	00 00 00 00 
   13f08:	48 8d 85 60 ef ff ff 	lea    -0x10a0(%rbp),%rax
   13f0f:	48 83 c0 28          	add    $0x28,%rax
   13f13:	48 89 85 48 f5 ff ff 	mov    %rax,-0xab8(%rbp)
   13f1a:	48 8d 85 60 ef ff ff 	lea    -0x10a0(%rbp),%rax
   13f21:	48 83 c0 28          	add    $0x28,%rax
   13f25:	48 89 85 50 f5 ff ff 	mov    %rax,-0xab0(%rbp)
   13f2c:	48 8d 85 60 ef ff ff 	lea    -0x10a0(%rbp),%rax
   13f33:	48 83 c0 28          	add    $0x28,%rax
   13f37:	48 89 85 58 f5 ff ff 	mov    %rax,-0xaa8(%rbp)
   13f3e:	48 8d 85 60 ef ff ff 	lea    -0x10a0(%rbp),%rax
   13f45:	48 83 c0 28          	add    $0x28,%rax
   13f49:	48 89 85 60 f5 ff ff 	mov    %rax,-0xaa0(%rbp)
   13f50:	48 c7 85 68 f5 ff ff 	movq   $0x0,-0xa98(%rbp)
   13f57:	00 00 00 00 
   13f5b:	48 8d 85 60 ef ff ff 	lea    -0x10a0(%rbp),%rax
   13f62:	48 83 c0 20          	add    $0x20,%rax
   13f66:	48 89 85 70 f5 ff ff 	mov    %rax,-0xa90(%rbp)
   13f6d:	48 8d 85 60 ef ff ff 	lea    -0x10a0(%rbp),%rax
   13f74:	48 83 c0 30          	add    $0x30,%rax
   13f78:	48 89 85 78 f5 ff ff 	mov    %rax,-0xa88(%rbp)
   13f7f:	48 8d 85 60 ef ff ff 	lea    -0x10a0(%rbp),%rax
   13f86:	48 83 c0 30          	add    $0x30,%rax
   13f8a:	48 89 85 80 f5 ff ff 	mov    %rax,-0xa80(%rbp)
   13f91:	48 8d 85 60 ef ff ff 	lea    -0x10a0(%rbp),%rax
   13f98:	48 83 c0 20          	add    $0x20,%rax
   13f9c:	48 89 85 88 f5 ff ff 	mov    %rax,-0xa78(%rbp)
   13fa3:	48 c7 85 90 f5 ff ff 	movq   $0x0,-0xa70(%rbp)
   13faa:	00 00 00 00 
   13fae:	48 8d 85 60 ef ff ff 	lea    -0x10a0(%rbp),%rax
   13fb5:	48 83 c0 28          	add    $0x28,%rax
   13fb9:	48 89 85 98 f5 ff ff 	mov    %rax,-0xa68(%rbp)
   13fc0:	48 8d 85 60 ef ff ff 	lea    -0x10a0(%rbp),%rax
   13fc7:	48 83 c0 28          	add    $0x28,%rax
   13fcb:	48 89 85 a0 f5 ff ff 	mov    %rax,-0xa60(%rbp)
   13fd2:	48 8d 85 60 ef ff ff 	lea    -0x10a0(%rbp),%rax
   13fd9:	48 83 c0 28          	add    $0x28,%rax
   13fdd:	48 89 85 a8 f5 ff ff 	mov    %rax,-0xa58(%rbp)
   13fe4:	48 8d 85 60 ef ff ff 	lea    -0x10a0(%rbp),%rax
   13feb:	48 83 c0 28          	add    $0x28,%rax
   13fef:	48 89 85 b0 f5 ff ff 	mov    %rax,-0xa50(%rbp)
   13ff6:	48 c7 85 b8 f5 ff ff 	movq   $0x0,-0xa48(%rbp)
   13ffd:	00 00 00 00 
   14001:	48 8d 85 60 ef ff ff 	lea    -0x10a0(%rbp),%rax
   14008:	48 83 c0 20          	add    $0x20,%rax
   1400c:	48 89 85 c0 f5 ff ff 	mov    %rax,-0xa40(%rbp)
   14013:	48 8d 85 60 ef ff ff 	lea    -0x10a0(%rbp),%rax
   1401a:	48 83 c0 30          	add    $0x30,%rax
   1401e:	48 89 85 c8 f5 ff ff 	mov    %rax,-0xa38(%rbp)
   14025:	48 8d 85 60 ef ff ff 	lea    -0x10a0(%rbp),%rax
   1402c:	48 83 c0 30          	add    $0x30,%rax
   14030:	48 89 85 d0 f5 ff ff 	mov    %rax,-0xa30(%rbp)
   14037:	48 8d 85 60 ef ff ff 	lea    -0x10a0(%rbp),%rax
   1403e:	48 83 c0 20          	add    $0x20,%rax
   14042:	48 89 85 d8 f5 ff ff 	mov    %rax,-0xa28(%rbp)
   14049:	48 c7 85 e0 f5 ff ff 	movq   $0x0,-0xa20(%rbp)
   14050:	00 00 00 00 
   14054:	48 8d 85 60 ef ff ff 	lea    -0x10a0(%rbp),%rax
   1405b:	48 83 c0 28          	add    $0x28,%rax
   1405f:	48 89 85 e8 f5 ff ff 	mov    %rax,-0xa18(%rbp)
   14066:	48 8d 85 60 ef ff ff 	lea    -0x10a0(%rbp),%rax
   1406d:	48 83 c0 28          	add    $0x28,%rax
   14071:	48 89 85 f0 f5 ff ff 	mov    %rax,-0xa10(%rbp)
   14078:	48 8d 85 60 ef ff ff 	lea    -0x10a0(%rbp),%rax
   1407f:	48 83 c0 28          	add    $0x28,%rax
   14083:	48 89 85 f8 f5 ff ff 	mov    %rax,-0xa08(%rbp)
   1408a:	48 8d 85 60 ef ff ff 	lea    -0x10a0(%rbp),%rax
   14091:	48 83 c0 28          	add    $0x28,%rax
   14095:	48 89 85 00 f6 ff ff 	mov    %rax,-0xa00(%rbp)
   1409c:	48 c7 85 08 f6 ff ff 	movq   $0x0,-0x9f8(%rbp)
   140a3:	00 00 00 00 
   140a7:	48 8d 85 60 ef ff ff 	lea    -0x10a0(%rbp),%rax
   140ae:	48 83 c0 20          	add    $0x20,%rax
   140b2:	48 89 85 10 f6 ff ff 	mov    %rax,-0x9f0(%rbp)
   140b9:	48 8d 85 60 ef ff ff 	lea    -0x10a0(%rbp),%rax
   140c0:	48 83 c0 30          	add    $0x30,%rax
   140c4:	48 89 85 18 f6 ff ff 	mov    %rax,-0x9e8(%rbp)
   140cb:	48 8d 85 60 ef ff ff 	lea    -0x10a0(%rbp),%rax
   140d2:	48 83 c0 30          	add    $0x30,%rax
   140d6:	48 89 85 20 f6 ff ff 	mov    %rax,-0x9e0(%rbp)
   140dd:	48 8d 85 60 ef ff ff 	lea    -0x10a0(%rbp),%rax
   140e4:	48 83 c0 20          	add    $0x20,%rax
   140e8:	48 89 85 28 f6 ff ff 	mov    %rax,-0x9d8(%rbp)
   140ef:	48 c7 85 30 f6 ff ff 	movq   $0x0,-0x9d0(%rbp)
   140f6:	00 00 00 00 
   140fa:	48 8d 85 60 ef ff ff 	lea    -0x10a0(%rbp),%rax
   14101:	48 83 c0 28          	add    $0x28,%rax
   14105:	48 89 85 38 f6 ff ff 	mov    %rax,-0x9c8(%rbp)
   1410c:	48 8d 85 60 ef ff ff 	lea    -0x10a0(%rbp),%rax
   14113:	48 83 c0 28          	add    $0x28,%rax
   14117:	48 89 85 40 f6 ff ff 	mov    %rax,-0x9c0(%rbp)
   1411e:	48 8d 85 60 ef ff ff 	lea    -0x10a0(%rbp),%rax
   14125:	48 83 c0 28          	add    $0x28,%rax
   14129:	48 89 85 48 f6 ff ff 	mov    %rax,-0x9b8(%rbp)
   14130:	48 8d 85 60 ef ff ff 	lea    -0x10a0(%rbp),%rax
   14137:	48 83 c0 28          	add    $0x28,%rax
   1413b:	48 89 85 50 f6 ff ff 	mov    %rax,-0x9b0(%rbp)
   14142:	48 c7 85 58 f6 ff ff 	movq   $0x0,-0x9a8(%rbp)
   14149:	00 00 00 00 
   1414d:	48 8d 85 60 ef ff ff 	lea    -0x10a0(%rbp),%rax
   14154:	48 83 c0 20          	add    $0x20,%rax
   14158:	48 89 85 60 f6 ff ff 	mov    %rax,-0x9a0(%rbp)
   1415f:	48 8d 85 60 ef ff ff 	lea    -0x10a0(%rbp),%rax
   14166:	48 83 c0 30          	add    $0x30,%rax
   1416a:	48 89 85 68 f6 ff ff 	mov    %rax,-0x998(%rbp)
   14171:	48 8d 85 60 ef ff ff 	lea    -0x10a0(%rbp),%rax
   14178:	48 83 c0 30          	add    $0x30,%rax
   1417c:	48 89 85 70 f6 ff ff 	mov    %rax,-0x990(%rbp)
   14183:	48 8d 85 60 ef ff ff 	lea    -0x10a0(%rbp),%rax
   1418a:	48 83 c0 20          	add    $0x20,%rax
   1418e:	48 89 85 78 f6 ff ff 	mov    %rax,-0x988(%rbp)
   14195:	48 c7 85 80 f6 ff ff 	movq   $0x0,-0x980(%rbp)
   1419c:	00 00 00 00 
   141a0:	48 8d 85 60 ef ff ff 	lea    -0x10a0(%rbp),%rax
   141a7:	48 83 c0 28          	add    $0x28,%rax
   141ab:	48 89 85 88 f6 ff ff 	mov    %rax,-0x978(%rbp)
   141b2:	48 8d 85 60 ef ff ff 	lea    -0x10a0(%rbp),%rax
   141b9:	48 83 c0 28          	add    $0x28,%rax
   141bd:	48 89 85 90 f6 ff ff 	mov    %rax,-0x970(%rbp)
   141c4:	48 8d 85 60 ef ff ff 	lea    -0x10a0(%rbp),%rax
   141cb:	48 83 c0 28          	add    $0x28,%rax
   141cf:	48 89 85 98 f6 ff ff 	mov    %rax,-0x968(%rbp)
   141d6:	48 8d 85 60 ef ff ff 	lea    -0x10a0(%rbp),%rax
   141dd:	48 83 c0 28          	add    $0x28,%rax
   141e1:	48 89 85 a0 f6 ff ff 	mov    %rax,-0x960(%rbp)
   141e8:	48 c7 85 a8 f6 ff ff 	movq   $0x0,-0x958(%rbp)
   141ef:	00 00 00 00 
   141f3:	48 8d 85 60 ef ff ff 	lea    -0x10a0(%rbp),%rax
   141fa:	48 83 c0 20          	add    $0x20,%rax
   141fe:	48 89 85 b0 f6 ff ff 	mov    %rax,-0x950(%rbp)
   14205:	48 8d 85 60 ef ff ff 	lea    -0x10a0(%rbp),%rax
   1420c:	48 83 c0 30          	add    $0x30,%rax
   14210:	48 89 85 b8 f6 ff ff 	mov    %rax,-0x948(%rbp)
   14217:	48 8d 85 60 ef ff ff 	lea    -0x10a0(%rbp),%rax
   1421e:	48 83 c0 30          	add    $0x30,%rax
   14222:	48 89 85 c0 f6 ff ff 	mov    %rax,-0x940(%rbp)
   14229:	48 8d 85 60 ef ff ff 	lea    -0x10a0(%rbp),%rax
   14230:	48 83 c0 20          	add    $0x20,%rax
   14234:	48 89 85 c8 f6 ff ff 	mov    %rax,-0x938(%rbp)
   1423b:	48 c7 85 d0 f6 ff ff 	movq   $0x0,-0x930(%rbp)
   14242:	00 00 00 00 
   14246:	48 8d 85 60 ef ff ff 	lea    -0x10a0(%rbp),%rax
   1424d:	48 83 c0 28          	add    $0x28,%rax
   14251:	48 89 85 d8 f6 ff ff 	mov    %rax,-0x928(%rbp)
   14258:	48 8d 85 60 ef ff ff 	lea    -0x10a0(%rbp),%rax
   1425f:	48 83 c0 28          	add    $0x28,%rax
   14263:	48 89 85 e0 f6 ff ff 	mov    %rax,-0x920(%rbp)
   1426a:	48 8d 85 60 ef ff ff 	lea    -0x10a0(%rbp),%rax
   14271:	48 83 c0 28          	add    $0x28,%rax
   14275:	48 89 85 e8 f6 ff ff 	mov    %rax,-0x918(%rbp)
   1427c:	48 8d 85 60 ef ff ff 	lea    -0x10a0(%rbp),%rax
   14283:	48 83 c0 28          	add    $0x28,%rax
   14287:	48 89 85 f0 f6 ff ff 	mov    %rax,-0x910(%rbp)
   1428e:	48 c7 85 f8 f6 ff ff 	movq   $0x0,-0x908(%rbp)
   14295:	00 00 00 00 
   14299:	48 8d 85 60 ef ff ff 	lea    -0x10a0(%rbp),%rax
   142a0:	48 83 c0 20          	add    $0x20,%rax
   142a4:	48 89 85 00 f7 ff ff 	mov    %rax,-0x900(%rbp)
   142ab:	48 8d 85 60 ef ff ff 	lea    -0x10a0(%rbp),%rax
   142b2:	48 83 c0 30          	add    $0x30,%rax
   142b6:	48 89 85 08 f7 ff ff 	mov    %rax,-0x8f8(%rbp)
   142bd:	48 8d 85 60 ef ff ff 	lea    -0x10a0(%rbp),%rax
   142c4:	48 83 c0 30          	add    $0x30,%rax
   142c8:	48 89 85 10 f7 ff ff 	mov    %rax,-0x8f0(%rbp)
   142cf:	48 8d 85 60 ef ff ff 	lea    -0x10a0(%rbp),%rax
   142d6:	48 83 c0 20          	add    $0x20,%rax
   142da:	48 89 85 18 f7 ff ff 	mov    %rax,-0x8e8(%rbp)
   142e1:	48 c7 85 20 f7 ff ff 	movq   $0x0,-0x8e0(%rbp)
   142e8:	00 00 00 00 
   142ec:	48 8d 85 60 ef ff ff 	lea    -0x10a0(%rbp),%rax
   142f3:	48 83 c0 28          	add    $0x28,%rax
   142f7:	48 89 85 28 f7 ff ff 	mov    %rax,-0x8d8(%rbp)
   142fe:	48 8d 85 60 ef ff ff 	lea    -0x10a0(%rbp),%rax
   14305:	48 83 c0 28          	add    $0x28,%rax
   14309:	48 89 85 30 f7 ff ff 	mov    %rax,-0x8d0(%rbp)
   14310:	48 8d 85 60 ef ff ff 	lea    -0x10a0(%rbp),%rax
   14317:	48 83 c0 28          	add    $0x28,%rax
   1431b:	48 89 85 38 f7 ff ff 	mov    %rax,-0x8c8(%rbp)
   14322:	48 8d 85 60 ef ff ff 	lea    -0x10a0(%rbp),%rax
   14329:	48 83 c0 28          	add    $0x28,%rax
   1432d:	48 89 85 40 f7 ff ff 	mov    %rax,-0x8c0(%rbp)
   14334:	48 c7 85 48 f7 ff ff 	movq   $0x0,-0x8b8(%rbp)
   1433b:	00 00 00 00 
   1433f:	48 8d 85 60 ef ff ff 	lea    -0x10a0(%rbp),%rax
   14346:	48 83 c0 28          	add    $0x28,%rax
   1434a:	48 89 85 50 f7 ff ff 	mov    %rax,-0x8b0(%rbp)
   14351:	48 8d 85 60 ef ff ff 	lea    -0x10a0(%rbp),%rax
   14358:	48 83 c0 20          	add    $0x20,%rax
   1435c:	48 89 85 58 f7 ff ff 	mov    %rax,-0x8a8(%rbp)
   14363:	48 8d 85 60 ef ff ff 	lea    -0x10a0(%rbp),%rax
   1436a:	48 83 c0 20          	add    $0x20,%rax
   1436e:	48 89 85 60 f7 ff ff 	mov    %rax,-0x8a0(%rbp)
   14375:	48 8d 85 60 ef ff ff 	lea    -0x10a0(%rbp),%rax
   1437c:	48 83 c0 28          	add    $0x28,%rax
   14380:	48 89 85 68 f7 ff ff 	mov    %rax,-0x898(%rbp)
   14387:	48 8d 85 60 ef ff ff 	lea    -0x10a0(%rbp),%rax
   1438e:	48 83 c0 30          	add    $0x30,%rax
   14392:	48 89 85 70 f7 ff ff 	mov    %rax,-0x890(%rbp)
   14399:	48 8d 85 60 ef ff ff 	lea    -0x10a0(%rbp),%rax
   143a0:	48 83 c0 28          	add    $0x28,%rax
   143a4:	48 89 85 78 f7 ff ff 	mov    %rax,-0x888(%rbp)
   143ab:	48 8d 85 60 ef ff ff 	lea    -0x10a0(%rbp),%rax
   143b2:	48 83 c0 28          	add    $0x28,%rax
   143b6:	48 89 85 80 f7 ff ff 	mov    %rax,-0x880(%rbp)
   143bd:	48 8d 85 60 ef ff ff 	lea    -0x10a0(%rbp),%rax
   143c4:	48 83 c0 28          	add    $0x28,%rax
   143c8:	48 89 85 88 f7 ff ff 	mov    %rax,-0x878(%rbp)
   143cf:	48 8d 85 60 ef ff ff 	lea    -0x10a0(%rbp),%rax
   143d6:	48 83 c0 28          	add    $0x28,%rax
   143da:	48 89 85 90 f7 ff ff 	mov    %rax,-0x870(%rbp)
   143e1:	48 c7 85 98 f7 ff ff 	movq   $0x0,-0x868(%rbp)
   143e8:	00 00 00 00 
   143ec:	48 8d 85 60 ef ff ff 	lea    -0x10a0(%rbp),%rax
   143f3:	48 83 c0 28          	add    $0x28,%rax
   143f7:	48 89 85 a0 f7 ff ff 	mov    %rax,-0x860(%rbp)
   143fe:	48 8d 85 60 ef ff ff 	lea    -0x10a0(%rbp),%rax
   14405:	48 83 c0 20          	add    $0x20,%rax
   14409:	48 89 85 a8 f7 ff ff 	mov    %rax,-0x858(%rbp)
   14410:	48 8d 85 60 ef ff ff 	lea    -0x10a0(%rbp),%rax
   14417:	48 83 c0 20          	add    $0x20,%rax
   1441b:	48 89 85 b0 f7 ff ff 	mov    %rax,-0x850(%rbp)
   14422:	48 8d 85 60 ef ff ff 	lea    -0x10a0(%rbp),%rax
   14429:	48 83 c0 28          	add    $0x28,%rax
   1442d:	48 89 85 b8 f7 ff ff 	mov    %rax,-0x848(%rbp)
   14434:	48 8d 85 60 ef ff ff 	lea    -0x10a0(%rbp),%rax
   1443b:	48 83 c0 30          	add    $0x30,%rax
   1443f:	48 89 85 c0 f7 ff ff 	mov    %rax,-0x840(%rbp)
   14446:	48 8d 85 60 ef ff ff 	lea    -0x10a0(%rbp),%rax
   1444d:	48 83 c0 28          	add    $0x28,%rax
   14451:	48 89 85 c8 f7 ff ff 	mov    %rax,-0x838(%rbp)
   14458:	48 8d 85 60 ef ff ff 	lea    -0x10a0(%rbp),%rax
   1445f:	48 83 c0 28          	add    $0x28,%rax
   14463:	48 89 85 d0 f7 ff ff 	mov    %rax,-0x830(%rbp)
   1446a:	48 8d 85 60 ef ff ff 	lea    -0x10a0(%rbp),%rax
   14471:	48 83 c0 28          	add    $0x28,%rax
   14475:	48 89 85 d8 f7 ff ff 	mov    %rax,-0x828(%rbp)
   1447c:	48 8d 85 60 ef ff ff 	lea    -0x10a0(%rbp),%rax
   14483:	48 83 c0 28          	add    $0x28,%rax
   14487:	48 89 85 e0 f7 ff ff 	mov    %rax,-0x820(%rbp)
   1448e:	48 c7 85 e8 f7 ff ff 	movq   $0x0,-0x818(%rbp)
   14495:	00 00 00 00 
   14499:	48 8d 85 60 ef ff ff 	lea    -0x10a0(%rbp),%rax
   144a0:	48 83 c0 28          	add    $0x28,%rax
   144a4:	48 89 85 f0 f7 ff ff 	mov    %rax,-0x810(%rbp)
   144ab:	48 8d 85 60 ef ff ff 	lea    -0x10a0(%rbp),%rax
   144b2:	48 83 c0 20          	add    $0x20,%rax
   144b6:	48 89 85 f8 f7 ff ff 	mov    %rax,-0x808(%rbp)
   144bd:	48 8d 85 60 ef ff ff 	lea    -0x10a0(%rbp),%rax
   144c4:	48 83 c0 20          	add    $0x20,%rax
   144c8:	48 89 85 00 f8 ff ff 	mov    %rax,-0x800(%rbp)
   144cf:	48 8d 85 60 ef ff ff 	lea    -0x10a0(%rbp),%rax
   144d6:	48 83 c0 28          	add    $0x28,%rax
   144da:	48 89 85 08 f8 ff ff 	mov    %rax,-0x7f8(%rbp)
   144e1:	48 8d 85 60 ef ff ff 	lea    -0x10a0(%rbp),%rax
   144e8:	48 83 c0 30          	add    $0x30,%rax
   144ec:	48 89 85 10 f8 ff ff 	mov    %rax,-0x7f0(%rbp)
   144f3:	48 8d 85 60 ef ff ff 	lea    -0x10a0(%rbp),%rax
   144fa:	48 83 c0 28          	add    $0x28,%rax
   144fe:	48 89 85 18 f8 ff ff 	mov    %rax,-0x7e8(%rbp)
   14505:	48 8d 85 60 ef ff ff 	lea    -0x10a0(%rbp),%rax
   1450c:	48 83 c0 28          	add    $0x28,%rax
   14510:	48 89 85 20 f8 ff ff 	mov    %rax,-0x7e0(%rbp)
   14517:	48 8d 85 60 ef ff ff 	lea    -0x10a0(%rbp),%rax
   1451e:	48 83 c0 28          	add    $0x28,%rax
   14522:	48 89 85 28 f8 ff ff 	mov    %rax,-0x7d8(%rbp)
   14529:	48 8d 85 60 ef ff ff 	lea    -0x10a0(%rbp),%rax
   14530:	48 83 c0 28          	add    $0x28,%rax
   14534:	48 89 85 30 f8 ff ff 	mov    %rax,-0x7d0(%rbp)
   1453b:	48 8d 85 08 ed ff ff 	lea    -0x12f8(%rbp),%rax
   14542:	48 89 85 10 ed ff ff 	mov    %rax,-0x12f0(%rbp)
   14549:	48 8d 05 58 8b 00 00 	lea    0x8b58(%rip),%rax        # 1d0a8 <g_125+0x8>
   14550:	48 89 85 18 ed ff ff 	mov    %rax,-0x12e8(%rbp)
   14557:	48 8d 85 18 ed ff ff 	lea    -0x12e8(%rbp),%rax
   1455e:	48 89 85 20 ed ff ff 	mov    %rax,-0x12e0(%rbp)
   14565:	48 8d 85 20 ed ff ff 	lea    -0x12e0(%rbp),%rax
   1456c:	48 89 85 28 ed ff ff 	mov    %rax,-0x12d8(%rbp)
   14573:	48 8d 85 28 ed ff ff 	lea    -0x12d8(%rbp),%rax
   1457a:	48 89 85 a8 ed ff ff 	mov    %rax,-0x1258(%rbp)
   14581:	48 8b 85 60 f2 ff ff 	mov    -0xda0(%rbp),%rax
   14588:	48 85 c0             	test   %rax,%rax
   1458b:	0f 95 c0             	setne  %al
   1458e:	44 0f b6 f0          	movzbl %al,%r14d
   14592:	48 8b 85 a0 ed ff ff 	mov    -0x1260(%rbp),%rax
   14599:	48 bb f8 a7 e6 91 c1 	movabs $0xe431bec191e6a7f8,%rbx
   145a0:	be 31 e4 
   145a3:	48 89 18             	mov    %rbx,(%rax)
   145a6:	48 8b 85 a0 ed ff ff 	mov    -0x1260(%rbp),%rax
   145ad:	4c 8b 38             	mov    (%rax),%r15
   145b0:	0f b6 05 51 c8 00 00 	movzbl 0xc851(%rip),%eax        # 20e08 <g_13>
   145b7:	0f b6 d8             	movzbl %al,%ebx
   145ba:	8b 05 8c 8a 00 00    	mov    0x8a8c(%rip),%eax        # 1d04c <g_85>
   145c0:	4c 63 e0             	movslq %eax,%r12
   145c3:	0f b6 85 94 ec ff ff 	movzbl -0x136c(%rbp),%eax
   145ca:	44 0f be e8          	movsbl %al,%r13d
   145ce:	0f b6 95 94 ec ff ff 	movzbl -0x136c(%rbp),%edx
   145d5:	0f b6 05 2c c8 00 00 	movzbl 0xc82c(%rip),%eax        # 20e08 <g_13>
   145dc:	0f b6 c0             	movzbl %al,%eax
   145df:	48 89 d6             	mov    %rdx,%rsi
   145e2:	48 89 c7             	mov    %rax,%rdi
   145e5:	e8 c5 6a ff ff       	callq  b0af <safe_div_func_uint64_t_u_u>
   145ea:	89 c2                	mov    %eax,%edx
   145ec:	0f b6 85 94 ec ff ff 	movzbl -0x136c(%rbp),%eax
   145f3:	21 c2                	and    %eax,%edx
   145f5:	48 8b 85 e0 ec ff ff 	mov    -0x1320(%rbp),%rax
   145fc:	66 89 10             	mov    %dx,(%rax)
   145ff:	0f b7 00             	movzwl (%rax),%eax
   14602:	98                   	cwtl   
   14603:	89 85 98 ec ff ff    	mov    %eax,-0x1368(%rbp)
   14609:	8b 85 98 ec ff ff    	mov    -0x1368(%rbp),%eax
   1460f:	98                   	cwtl   
   14610:	89 c6                	mov    %eax,%esi
   14612:	bf 08 00 00 00       	mov    $0x8,%edi
   14617:	e8 97 5d ff ff       	callq  a3b3 <safe_add_func_int16_t_s_s>
   1461c:	0f b7 c0             	movzwl %ax,%eax
   1461f:	89 c6                	mov    %eax,%esi
   14621:	bf ff ff 00 00       	mov    $0xffff,%edi
   14626:	e8 d4 66 ff ff       	callq  acff <safe_add_func_uint16_t_u_u>
   1462b:	66 83 f8 08          	cmp    $0x8,%ax
   1462f:	0f 97 c0             	seta   %al
   14632:	0f b6 c0             	movzbl %al,%eax
   14635:	44 89 ee             	mov    %r13d,%esi
   14638:	89 c7                	mov    %eax,%edi
   1463a:	e8 b3 5b ff ff       	callq  a1f2 <safe_sub_func_int8_t_s_s>
   1463f:	48 0f be c0          	movsbq %al,%rax
   14643:	4c 89 e6             	mov    %r12,%rsi
   14646:	48 89 c7             	mov    %rax,%rdi
   14649:	e8 66 63 ff ff       	callq  a9b4 <safe_mod_func_int64_t_s_s>
   1464e:	48 89 c2             	mov    %rax,%rdx
   14651:	48 8b 85 80 ec ff ff 	mov    -0x1380(%rbp),%rax
   14658:	48 89 c6             	mov    %rax,%rsi
   1465b:	48 89 d7             	mov    %rdx,%rdi
   1465e:	e8 de 61 ff ff       	callq  a841 <safe_add_func_int64_t_s_s>
   14663:	48 8b 85 80 ec ff ff 	mov    -0x1380(%rbp),%rax
   1466a:	98                   	cwtl   
   1466b:	89 da                	mov    %ebx,%edx
   1466d:	be 00 00 00 00       	mov    $0x0,%esi
   14672:	89 c7                	mov    %eax,%edi
   14674:	e8 da 1d 00 00       	callq  16453 <func_95>
   14679:	49 39 c7             	cmp    %rax,%r15
   1467c:	0f 92 c0             	setb   %al
   1467f:	0f b6 c0             	movzbl %al,%eax
   14682:	41 39 c6             	cmp    %eax,%r14d
   14685:	0f 9d c0             	setge  %al
   14688:	0f b6 c0             	movzbl %al,%eax
   1468b:	be 06 00 00 00       	mov    $0x6,%esi
   14690:	89 c7                	mov    %eax,%edi
   14692:	e8 fb 5d ff ff       	callq  a492 <safe_lshift_func_int16_t_s_s>
   14697:	8b 05 9b 89 00 00    	mov    0x899b(%rip),%eax        # 1d038 <g_22>
   1469d:	89 c1                	mov    %eax,%ecx
   1469f:	8b 05 83 89 00 00    	mov    0x8983(%rip),%eax        # 1d028 <g_10>
   146a5:	0f b6 c0             	movzbl %al,%eax
   146a8:	ba 01 00 00 00       	mov    $0x1,%edx
   146ad:	89 ce                	mov    %ecx,%esi
   146af:	89 c7                	mov    %eax,%edi
   146b1:	e8 a4 16 00 00       	callq  15d5a <func_86>
   146b6:	48 8d 05 83 89 00 00 	lea    0x8983(%rip),%rax        # 1d040 <g_42>
   146bd:	48 89 85 60 ed ff ff 	mov    %rax,-0x12a0(%rbp)
   146c4:	48 8d 85 60 ed ff ff 	lea    -0x12a0(%rbp),%rax
   146cb:	48 89 85 68 ed ff ff 	mov    %rax,-0x1298(%rbp)
   146d2:	48 8d 85 68 ed ff ff 	lea    -0x1298(%rbp),%rax
   146d9:	48 89 85 70 ed ff ff 	mov    %rax,-0x1290(%rbp)
   146e0:	48 c7 85 b0 ed ff ff 	movq   $0x0,-0x1250(%rbp)
   146e7:	00 00 00 00 
   146eb:	48 8d 85 70 ed ff ff 	lea    -0x1290(%rbp),%rax
   146f2:	48 89 85 b0 f2 ff ff 	mov    %rax,-0xd50(%rbp)
   146f9:	48 8d 85 70 ed ff ff 	lea    -0x1290(%rbp),%rax
   14700:	48 89 85 b8 f2 ff ff 	mov    %rax,-0xd48(%rbp)
   14707:	48 8d 85 70 ed ff ff 	lea    -0x1290(%rbp),%rax
   1470e:	48 89 85 c0 f2 ff ff 	mov    %rax,-0xd40(%rbp)
   14715:	48 8d 85 70 ed ff ff 	lea    -0x1290(%rbp),%rax
   1471c:	48 89 85 c8 f2 ff ff 	mov    %rax,-0xd38(%rbp)
   14723:	48 8d 85 70 ed ff ff 	lea    -0x1290(%rbp),%rax
   1472a:	48 89 85 d0 f2 ff ff 	mov    %rax,-0xd30(%rbp)
   14731:	48 8d 85 70 ed ff ff 	lea    -0x1290(%rbp),%rax
   14738:	48 89 85 d8 f2 ff ff 	mov    %rax,-0xd28(%rbp)
   1473f:	48 c7 85 e0 f2 ff ff 	movq   $0x0,-0xd20(%rbp)
   14746:	00 00 00 00 
   1474a:	48 8d 85 70 ed ff ff 	lea    -0x1290(%rbp),%rax
   14751:	48 89 85 e8 f2 ff ff 	mov    %rax,-0xd18(%rbp)
   14758:	48 8d 85 70 ed ff ff 	lea    -0x1290(%rbp),%rax
   1475f:	48 89 85 f0 f2 ff ff 	mov    %rax,-0xd10(%rbp)
   14766:	48 8d 85 70 ed ff ff 	lea    -0x1290(%rbp),%rax
   1476d:	48 89 85 f8 f2 ff ff 	mov    %rax,-0xd08(%rbp)
   14774:	48 8d 85 70 ed ff ff 	lea    -0x1290(%rbp),%rax
   1477b:	48 89 85 00 f3 ff ff 	mov    %rax,-0xd00(%rbp)
   14782:	48 8d 85 70 ed ff ff 	lea    -0x1290(%rbp),%rax
   14789:	48 89 85 08 f3 ff ff 	mov    %rax,-0xcf8(%rbp)
   14790:	48 c7 85 10 f3 ff ff 	movq   $0x0,-0xcf0(%rbp)
   14797:	00 00 00 00 
   1479b:	48 8d 85 70 ed ff ff 	lea    -0x1290(%rbp),%rax
   147a2:	48 89 85 18 f3 ff ff 	mov    %rax,-0xce8(%rbp)
   147a9:	48 c7 85 20 f3 ff ff 	movq   $0x0,-0xce0(%rbp)
   147b0:	00 00 00 00 
   147b4:	48 8d 85 70 ed ff ff 	lea    -0x1290(%rbp),%rax
   147bb:	48 89 85 28 f3 ff ff 	mov    %rax,-0xcd8(%rbp)
   147c2:	48 8d 85 70 ed ff ff 	lea    -0x1290(%rbp),%rax
   147c9:	48 89 85 30 f3 ff ff 	mov    %rax,-0xcd0(%rbp)
   147d0:	48 c7 85 38 f3 ff ff 	movq   $0x0,-0xcc8(%rbp)
   147d7:	00 00 00 00 
   147db:	48 c7 85 40 f3 ff ff 	movq   $0x0,-0xcc0(%rbp)
   147e2:	00 00 00 00 
   147e6:	48 8d 85 70 ed ff ff 	lea    -0x1290(%rbp),%rax
   147ed:	48 89 85 48 f3 ff ff 	mov    %rax,-0xcb8(%rbp)
   147f4:	48 8d 85 70 ed ff ff 	lea    -0x1290(%rbp),%rax
   147fb:	48 89 85 50 f3 ff ff 	mov    %rax,-0xcb0(%rbp)
   14802:	48 8d 85 70 ed ff ff 	lea    -0x1290(%rbp),%rax
   14809:	48 89 85 58 f3 ff ff 	mov    %rax,-0xca8(%rbp)
   14810:	48 8d 85 70 ed ff ff 	lea    -0x1290(%rbp),%rax
   14817:	48 89 85 60 f3 ff ff 	mov    %rax,-0xca0(%rbp)
   1481e:	48 c7 85 68 f3 ff ff 	movq   $0x0,-0xc98(%rbp)
   14825:	00 00 00 00 
   14829:	48 c7 85 70 f3 ff ff 	movq   $0x0,-0xc90(%rbp)
   14830:	00 00 00 00 
   14834:	48 c7 85 78 f3 ff ff 	movq   $0x0,-0xc88(%rbp)
   1483b:	00 00 00 00 
   1483f:	48 8d 85 70 ed ff ff 	lea    -0x1290(%rbp),%rax
   14846:	48 89 85 80 f3 ff ff 	mov    %rax,-0xc80(%rbp)
   1484d:	48 8d 85 70 ed ff ff 	lea    -0x1290(%rbp),%rax
   14854:	48 89 85 88 f3 ff ff 	mov    %rax,-0xc78(%rbp)
   1485b:	48 8d 85 70 ed ff ff 	lea    -0x1290(%rbp),%rax
   14862:	48 89 85 90 f3 ff ff 	mov    %rax,-0xc70(%rbp)
   14869:	48 8d 85 70 ed ff ff 	lea    -0x1290(%rbp),%rax
   14870:	48 89 85 98 f3 ff ff 	mov    %rax,-0xc68(%rbp)
   14877:	48 8d 85 70 ed ff ff 	lea    -0x1290(%rbp),%rax
   1487e:	48 89 85 a0 f3 ff ff 	mov    %rax,-0xc60(%rbp)
   14885:	48 c7 85 a8 f3 ff ff 	movq   $0x0,-0xc58(%rbp)
   1488c:	00 00 00 00 
   14890:	48 8d 85 70 ed ff ff 	lea    -0x1290(%rbp),%rax
   14897:	48 89 85 b0 f3 ff ff 	mov    %rax,-0xc50(%rbp)
   1489e:	48 8d 85 70 ed ff ff 	lea    -0x1290(%rbp),%rax
   148a5:	48 89 85 b8 f3 ff ff 	mov    %rax,-0xc48(%rbp)
   148ac:	48 8d 85 70 ed ff ff 	lea    -0x1290(%rbp),%rax
   148b3:	48 89 85 c0 f3 ff ff 	mov    %rax,-0xc40(%rbp)
   148ba:	48 8d 85 70 ed ff ff 	lea    -0x1290(%rbp),%rax
   148c1:	48 89 85 c8 f3 ff ff 	mov    %rax,-0xc38(%rbp)
   148c8:	48 8d 85 70 ed ff ff 	lea    -0x1290(%rbp),%rax
   148cf:	48 89 85 d0 f3 ff ff 	mov    %rax,-0xc30(%rbp)
   148d6:	48 8d 85 70 ed ff ff 	lea    -0x1290(%rbp),%rax
   148dd:	48 89 85 d8 f3 ff ff 	mov    %rax,-0xc28(%rbp)
   148e4:	48 8d 85 70 ed ff ff 	lea    -0x1290(%rbp),%rax
   148eb:	48 89 85 e0 f3 ff ff 	mov    %rax,-0xc20(%rbp)
   148f2:	48 c7 85 e8 f3 ff ff 	movq   $0x0,-0xc18(%rbp)
   148f9:	00 00 00 00 
   148fd:	48 8d 85 70 ed ff ff 	lea    -0x1290(%rbp),%rax
   14904:	48 89 85 f0 f3 ff ff 	mov    %rax,-0xc10(%rbp)
   1490b:	48 8d 85 70 ed ff ff 	lea    -0x1290(%rbp),%rax
   14912:	48 89 85 f8 f3 ff ff 	mov    %rax,-0xc08(%rbp)
   14919:	48 c7 85 00 f4 ff ff 	movq   $0x0,-0xc00(%rbp)
   14920:	00 00 00 00 
   14924:	48 8d 85 70 ed ff ff 	lea    -0x1290(%rbp),%rax
   1492b:	48 89 85 08 f4 ff ff 	mov    %rax,-0xbf8(%rbp)
   14932:	48 c7 85 10 f4 ff ff 	movq   $0x0,-0xbf0(%rbp)
   14939:	00 00 00 00 
   1493d:	48 8d 85 70 ed ff ff 	lea    -0x1290(%rbp),%rax
   14944:	48 89 85 18 f4 ff ff 	mov    %rax,-0xbe8(%rbp)
   1494b:	48 8d 85 70 ed ff ff 	lea    -0x1290(%rbp),%rax
   14952:	48 89 85 20 f4 ff ff 	mov    %rax,-0xbe0(%rbp)
   14959:	48 c7 85 28 f4 ff ff 	movq   $0x0,-0xbd8(%rbp)
   14960:	00 00 00 00 
   14964:	48 8d 85 70 ed ff ff 	lea    -0x1290(%rbp),%rax
   1496b:	48 89 85 30 f4 ff ff 	mov    %rax,-0xbd0(%rbp)
   14972:	48 8d 85 70 ed ff ff 	lea    -0x1290(%rbp),%rax
   14979:	48 89 85 38 f4 ff ff 	mov    %rax,-0xbc8(%rbp)
   14980:	48 8d 85 70 ed ff ff 	lea    -0x1290(%rbp),%rax
   14987:	48 89 85 40 f4 ff ff 	mov    %rax,-0xbc0(%rbp)
   1498e:	48 8d 85 70 ed ff ff 	lea    -0x1290(%rbp),%rax
   14995:	48 89 85 48 f4 ff ff 	mov    %rax,-0xbb8(%rbp)
   1499c:	48 8d 85 70 ed ff ff 	lea    -0x1290(%rbp),%rax
   149a3:	48 89 85 50 f4 ff ff 	mov    %rax,-0xbb0(%rbp)
   149aa:	48 8d 85 70 ed ff ff 	lea    -0x1290(%rbp),%rax
   149b1:	48 89 85 58 f4 ff ff 	mov    %rax,-0xba8(%rbp)
   149b8:	48 8d 85 70 ed ff ff 	lea    -0x1290(%rbp),%rax
   149bf:	48 89 85 60 f4 ff ff 	mov    %rax,-0xba0(%rbp)
   149c6:	48 8d 85 70 ed ff ff 	lea    -0x1290(%rbp),%rax
   149cd:	48 89 85 68 f4 ff ff 	mov    %rax,-0xb98(%rbp)
   149d4:	48 8d 85 70 ed ff ff 	lea    -0x1290(%rbp),%rax
   149db:	48 89 85 70 f4 ff ff 	mov    %rax,-0xb90(%rbp)
   149e2:	48 8d 85 70 ed ff ff 	lea    -0x1290(%rbp),%rax
   149e9:	48 89 85 78 f4 ff ff 	mov    %rax,-0xb88(%rbp)
   149f0:	48 8d 85 70 ed ff ff 	lea    -0x1290(%rbp),%rax
   149f7:	48 89 85 80 f4 ff ff 	mov    %rax,-0xb80(%rbp)
   149fe:	48 8d 85 70 ed ff ff 	lea    -0x1290(%rbp),%rax
   14a05:	48 89 85 88 f4 ff ff 	mov    %rax,-0xb78(%rbp)
   14a0c:	48 8d 85 70 ed ff ff 	lea    -0x1290(%rbp),%rax
   14a13:	48 89 85 90 f4 ff ff 	mov    %rax,-0xb70(%rbp)
   14a1a:	48 c7 85 98 f4 ff ff 	movq   $0x0,-0xb68(%rbp)
   14a21:	00 00 00 00 
   14a25:	48 8d 85 70 ed ff ff 	lea    -0x1290(%rbp),%rax
   14a2c:	48 89 85 a0 f4 ff ff 	mov    %rax,-0xb60(%rbp)
   14a33:	48 8d 85 70 ed ff ff 	lea    -0x1290(%rbp),%rax
   14a3a:	48 89 85 a8 f4 ff ff 	mov    %rax,-0xb58(%rbp)
   14a41:	48 8d 85 70 ed ff ff 	lea    -0x1290(%rbp),%rax
   14a48:	48 89 85 b0 f4 ff ff 	mov    %rax,-0xb50(%rbp)
   14a4f:	48 8d 85 70 ed ff ff 	lea    -0x1290(%rbp),%rax
   14a56:	48 89 85 b8 f4 ff ff 	mov    %rax,-0xb48(%rbp)
   14a5d:	48 8d 85 70 ed ff ff 	lea    -0x1290(%rbp),%rax
   14a64:	48 89 85 c0 f4 ff ff 	mov    %rax,-0xb40(%rbp)
   14a6b:	48 8d 85 70 ed ff ff 	lea    -0x1290(%rbp),%rax
   14a72:	48 89 85 c8 f4 ff ff 	mov    %rax,-0xb38(%rbp)
   14a79:	48 c7 85 d0 f4 ff ff 	movq   $0x0,-0xb30(%rbp)
   14a80:	00 00 00 00 
   14a84:	48 8d 85 70 ed ff ff 	lea    -0x1290(%rbp),%rax
   14a8b:	48 89 85 d8 f4 ff ff 	mov    %rax,-0xb28(%rbp)
   14a92:	48 c7 85 e0 f4 ff ff 	movq   $0x0,-0xb20(%rbp)
   14a99:	00 00 00 00 
   14a9d:	48 8d 85 70 ed ff ff 	lea    -0x1290(%rbp),%rax
   14aa4:	48 89 85 e8 f4 ff ff 	mov    %rax,-0xb18(%rbp)
   14aab:	48 8b 85 70 ed ff ff 	mov    -0x1290(%rbp),%rax
   14ab2:	48 89 85 98 ed ff ff 	mov    %rax,-0x1268(%rbp)
   14ab9:	48 8b 85 88 ed ff ff 	mov    -0x1278(%rbp),%rax
   14ac0:	48 8b 95 78 ec ff ff 	mov    -0x1388(%rbp),%rdx
   14ac7:	48 89 10             	mov    %rdx,(%rax)
   14aca:	48 8b 85 80 ec ff ff 	mov    -0x1380(%rbp),%rax
   14ad1:	0f be d8             	movsbl %al,%ebx
   14ad4:	48 8b 85 80 ec ff ff 	mov    -0x1380(%rbp),%rax
   14adb:	44 0f b7 e0          	movzwl %ax,%r12d
   14adf:	0f b6 05 62 85 00 00 	movzbl 0x8562(%rip),%eax        # 1d048 <g_52>
   14ae6:	c0 e8 07             	shr    $0x7,%al
   14ae9:	0f b6 d0             	movzbl %al,%edx
   14aec:	48 8b 85 90 ed ff ff 	mov    -0x1270(%rbp),%rax
   14af3:	66 89 10             	mov    %dx,(%rax)
   14af6:	48 8b 85 90 ed ff ff 	mov    -0x1270(%rbp),%rax
   14afd:	0f b7 00             	movzwl (%rax),%eax
   14b00:	0f b7 c0             	movzwl %ax,%eax
   14b03:	be 08 00 00 00       	mov    $0x8,%esi
   14b08:	89 c7                	mov    %eax,%edi
   14b0a:	e8 39 63 ff ff       	callq  ae48 <safe_rshift_func_uint16_t_u_s>
   14b0f:	48 83 bd 78 ec ff ff 	cmpq   $0x0,-0x1388(%rbp)
   14b16:	00 
   14b17:	0f b6 05 02 86 00 00 	movzbl 0x8602(%rip),%eax        # 1d120 <g_207>
   14b1e:	48 8b 85 88 ed ff ff 	mov    -0x1278(%rbp),%rax
   14b25:	48 8b 00             	mov    (%rax),%rax
   14b28:	8b 00                	mov    (%rax),%eax
   14b2a:	89 c6                	mov    %eax,%esi
   14b2c:	bf 00 00 00 00       	mov    $0x0,%edi
   14b31:	e8 f4 59 ff ff       	callq  a52a <safe_rshift_func_int16_t_s_s>
   14b36:	48 8b 85 08 ed ff ff 	mov    -0x12f8(%rbp),%rax
   14b3d:	48 8d 95 e0 ec ff ff 	lea    -0x1320(%rbp),%rdx
   14b44:	48 89 10             	mov    %rdx,(%rax)
   14b47:	48 8b 00             	mov    (%rax),%rax
   14b4a:	48 8d 15 ef c2 00 00 	lea    0xc2ef(%rip),%rdx        # 20e40 <g_269>
   14b51:	48 39 d0             	cmp    %rdx,%rax
   14b54:	48 8b 85 88 ed ff ff 	mov    -0x1278(%rbp),%rax
   14b5b:	48 8b 00             	mov    (%rax),%rax
   14b5e:	8b 00                	mov    (%rax),%eax
   14b60:	85 c0                	test   %eax,%eax
   14b62:	0f 95 c2             	setne  %dl
   14b65:	48 8b 85 88 ed ff ff 	mov    -0x1278(%rbp),%rax
   14b6c:	48 8b 00             	mov    (%rax),%rax
   14b6f:	0f b6 d2             	movzbl %dl,%edx
   14b72:	89 10                	mov    %edx,(%rax)
   14b74:	48 83 bd 80 ec ff ff 	cmpq   $0x0,-0x1380(%rbp)
   14b7b:	00 
   14b7c:	0f 95 c0             	setne  %al
   14b7f:	0f b6 d0             	movzbl %al,%edx
   14b82:	48 8b 85 78 ed ff ff 	mov    -0x1288(%rbp),%rax
   14b89:	89 10                	mov    %edx,(%rax)
   14b8b:	48 8b 85 f8 ec ff ff 	mov    -0x1308(%rbp),%rax
   14b92:	48 8b 10             	mov    (%rax),%rdx
   14b95:	48 8b 05 fc aa 00 00 	mov    0xaafc(%rip),%rax        # 1f698 <g_330>
   14b9c:	48 8b 00             	mov    (%rax),%rax
   14b9f:	48 39 c2             	cmp    %rax,%rdx
   14ba2:	0f 95 c2             	setne  %dl
   14ba5:	48 8b 85 e0 ec ff ff 	mov    -0x1320(%rbp),%rax
   14bac:	0f b6 d2             	movzbl %dl,%edx
   14baf:	66 89 10             	mov    %dx,(%rax)
   14bb2:	0f b7 00             	movzwl (%rax),%eax
   14bb5:	48 0f bf c0          	movswq %ax,%rax
   14bb9:	48 39 85 80 ec ff ff 	cmp    %rax,-0x1380(%rbp)
   14bc0:	0f 9f c0             	setg   %al
   14bc3:	0f b6 d0             	movzbl %al,%edx
   14bc6:	48 8b 05 a3 86 00 00 	mov    0x86a3(%rip),%rax        # 1d270 <g_290+0x10>
   14bcd:	48 39 c2             	cmp    %rax,%rdx
   14bd0:	7e 07                	jle    14bd9 <func_78+0x1080>
   14bd2:	b8 01 00 00 00       	mov    $0x1,%eax
   14bd7:	eb 05                	jmp    14bde <func_78+0x1085>
   14bd9:	b8 00 00 00 00       	mov    $0x0,%eax
   14bde:	0f b6 c0             	movzbl %al,%eax
   14be1:	be 04 00 00 00       	mov    $0x4,%esi
   14be6:	89 c7                	mov    %eax,%edi
   14be8:	e8 d1 60 ff ff       	callq  acbe <safe_rshift_func_uint8_t_u_u>
   14bed:	0f b6 c0             	movzbl %al,%eax
   14bf0:	44 89 e6             	mov    %r12d,%esi
   14bf3:	89 c7                	mov    %eax,%edi
   14bf5:	e8 94 61 ff ff       	callq  ad8e <safe_div_func_uint16_t_u_u>
   14bfa:	0f be c0             	movsbl %al,%eax
   14bfd:	89 de                	mov    %ebx,%esi
   14bff:	89 c7                	mov    %eax,%edi
   14c01:	e8 0c 56 ff ff       	callq  a212 <safe_mul_func_int8_t_s_s>
   14c06:	48 8b 85 80 ed ff ff 	mov    -0x1280(%rbp),%rax
   14c0d:	48 8b 00             	mov    (%rax),%rax
   14c10:	48 85 c0             	test   %rax,%rax
   14c13:	0f 84 b3 04 00 00    	je     150cc <func_78+0x1573>
   14c19:	48 c7 85 70 ee ff ff 	movq   $0xffffffffffffffff,-0x1190(%rbp)
   14c20:	ff ff ff ff 
   14c24:	48 8d 05 5d aa 00 00 	lea    0xaa5d(%rip),%rax        # 1f688 <g_332>
   14c2b:	48 89 85 78 ee ff ff 	mov    %rax,-0x1188(%rbp)
   14c32:	48 8d 05 07 84 00 00 	lea    0x8407(%rip),%rax        # 1d040 <g_42>
   14c39:	48 89 85 60 ed ff ff 	mov    %rax,-0x12a0(%rbp)
   14c40:	48 8d 85 60 ed ff ff 	lea    -0x12a0(%rbp),%rax
   14c47:	48 89 85 68 ed ff ff 	mov    %rax,-0x1298(%rbp)
   14c4e:	48 8d 85 68 ed ff ff 	lea    -0x1298(%rbp),%rax
   14c55:	48 89 85 70 ed ff ff 	mov    %rax,-0x1290(%rbp)
   14c5c:	48 8d 85 70 ed ff ff 	lea    -0x1290(%rbp),%rax
   14c63:	48 89 85 b0 f2 ff ff 	mov    %rax,-0xd50(%rbp)
   14c6a:	48 c7 85 b8 f2 ff ff 	movq   $0x0,-0xd48(%rbp)
   14c71:	00 00 00 00 
   14c75:	48 8d 85 70 ed ff ff 	lea    -0x1290(%rbp),%rax
   14c7c:	48 89 85 c0 f2 ff ff 	mov    %rax,-0xd40(%rbp)
   14c83:	48 c7 85 c8 f2 ff ff 	movq   $0x0,-0xd38(%rbp)
   14c8a:	00 00 00 00 
   14c8e:	48 c7 85 d0 f2 ff ff 	movq   $0x0,-0xd30(%rbp)
   14c95:	00 00 00 00 
   14c99:	48 c7 85 d8 f2 ff ff 	movq   $0x0,-0xd28(%rbp)
   14ca0:	00 00 00 00 
   14ca4:	48 c7 85 e0 f2 ff ff 	movq   $0x0,-0xd20(%rbp)
   14cab:	00 00 00 00 
   14caf:	48 8d 85 70 ed ff ff 	lea    -0x1290(%rbp),%rax
   14cb6:	48 89 85 e8 f2 ff ff 	mov    %rax,-0xd18(%rbp)
   14cbd:	48 8d 85 70 ed ff ff 	lea    -0x1290(%rbp),%rax
   14cc4:	48 89 85 f0 f2 ff ff 	mov    %rax,-0xd10(%rbp)
   14ccb:	48 8d 85 70 ed ff ff 	lea    -0x1290(%rbp),%rax
   14cd2:	48 89 85 f8 f2 ff ff 	mov    %rax,-0xd08(%rbp)
   14cd9:	48 c7 85 00 f3 ff ff 	movq   $0x0,-0xd00(%rbp)
   14ce0:	00 00 00 00 
   14ce4:	48 8d 85 70 ed ff ff 	lea    -0x1290(%rbp),%rax
   14ceb:	48 89 85 08 f3 ff ff 	mov    %rax,-0xcf8(%rbp)
   14cf2:	48 c7 85 10 f3 ff ff 	movq   $0x0,-0xcf0(%rbp)
   14cf9:	00 00 00 00 
   14cfd:	48 c7 85 18 f3 ff ff 	movq   $0x0,-0xce8(%rbp)
   14d04:	00 00 00 00 
   14d08:	48 8d 85 70 ed ff ff 	lea    -0x1290(%rbp),%rax
   14d0f:	48 89 85 20 f3 ff ff 	mov    %rax,-0xce0(%rbp)
   14d16:	48 c7 85 28 f3 ff ff 	movq   $0x0,-0xcd8(%rbp)
   14d1d:	00 00 00 00 
   14d21:	48 8d 85 70 ed ff ff 	lea    -0x1290(%rbp),%rax
   14d28:	48 89 85 30 f3 ff ff 	mov    %rax,-0xcd0(%rbp)
   14d2f:	48 8d 85 70 ed ff ff 	lea    -0x1290(%rbp),%rax
   14d36:	48 89 85 38 f3 ff ff 	mov    %rax,-0xcc8(%rbp)
   14d3d:	48 8d 85 70 ed ff ff 	lea    -0x1290(%rbp),%rax
   14d44:	48 89 85 40 f3 ff ff 	mov    %rax,-0xcc0(%rbp)
   14d4b:	48 8d 85 70 ed ff ff 	lea    -0x1290(%rbp),%rax
   14d52:	48 89 85 48 f3 ff ff 	mov    %rax,-0xcb8(%rbp)
   14d59:	48 8d 85 70 ed ff ff 	lea    -0x1290(%rbp),%rax
   14d60:	48 89 85 50 f3 ff ff 	mov    %rax,-0xcb0(%rbp)
   14d67:	48 c7 85 58 f3 ff ff 	movq   $0x0,-0xca8(%rbp)
   14d6e:	00 00 00 00 
   14d72:	48 8d 85 70 ed ff ff 	lea    -0x1290(%rbp),%rax
   14d79:	48 89 85 60 f3 ff ff 	mov    %rax,-0xca0(%rbp)
   14d80:	48 c7 85 68 f3 ff ff 	movq   $0x0,-0xc98(%rbp)
   14d87:	00 00 00 00 
   14d8b:	48 8d 85 70 ed ff ff 	lea    -0x1290(%rbp),%rax
   14d92:	48 89 85 70 f3 ff ff 	mov    %rax,-0xc90(%rbp)
   14d99:	48 c7 85 78 f3 ff ff 	movq   $0x0,-0xc88(%rbp)
   14da0:	00 00 00 00 
   14da4:	48 8d 85 70 ed ff ff 	lea    -0x1290(%rbp),%rax
   14dab:	48 89 85 80 f3 ff ff 	mov    %rax,-0xc80(%rbp)
   14db2:	48 8d 85 70 ed ff ff 	lea    -0x1290(%rbp),%rax
   14db9:	48 89 85 88 f3 ff ff 	mov    %rax,-0xc78(%rbp)
   14dc0:	48 8d 85 70 ed ff ff 	lea    -0x1290(%rbp),%rax
   14dc7:	48 89 85 90 f3 ff ff 	mov    %rax,-0xc70(%rbp)
   14dce:	48 8d 85 70 ed ff ff 	lea    -0x1290(%rbp),%rax
   14dd5:	48 89 85 98 f3 ff ff 	mov    %rax,-0xc68(%rbp)
   14ddc:	48 c7 85 a0 f3 ff ff 	movq   $0x0,-0xc60(%rbp)
   14de3:	00 00 00 00 
   14de7:	48 8d 85 70 ed ff ff 	lea    -0x1290(%rbp),%rax
   14dee:	48 89 85 a8 f3 ff ff 	mov    %rax,-0xc58(%rbp)
   14df5:	48 c7 85 b0 f3 ff ff 	movq   $0x0,-0xc50(%rbp)
   14dfc:	00 00 00 00 
   14e00:	48 c7 85 b8 f3 ff ff 	movq   $0x0,-0xc48(%rbp)
   14e07:	00 00 00 00 
   14e0b:	48 8d 85 70 ed ff ff 	lea    -0x1290(%rbp),%rax
   14e12:	48 89 85 c0 f3 ff ff 	mov    %rax,-0xc40(%rbp)
   14e19:	48 c7 85 c8 f3 ff ff 	movq   $0x0,-0xc38(%rbp)
   14e20:	00 00 00 00 
   14e24:	48 8d 85 70 ed ff ff 	lea    -0x1290(%rbp),%rax
   14e2b:	48 89 85 d0 f3 ff ff 	mov    %rax,-0xc30(%rbp)
   14e32:	48 8d 85 70 ed ff ff 	lea    -0x1290(%rbp),%rax
   14e39:	48 89 85 d8 f3 ff ff 	mov    %rax,-0xc28(%rbp)
   14e40:	48 8d 85 70 ed ff ff 	lea    -0x1290(%rbp),%rax
   14e47:	48 89 85 e0 f3 ff ff 	mov    %rax,-0xc20(%rbp)
   14e4e:	48 c7 85 e8 f3 ff ff 	movq   $0x0,-0xc18(%rbp)
   14e55:	00 00 00 00 
   14e59:	48 8d 85 70 ed ff ff 	lea    -0x1290(%rbp),%rax
   14e60:	48 89 85 f0 f3 ff ff 	mov    %rax,-0xc10(%rbp)
   14e67:	48 c7 85 f8 f3 ff ff 	movq   $0x0,-0xc08(%rbp)
   14e6e:	00 00 00 00 
   14e72:	48 8d 85 70 ed ff ff 	lea    -0x1290(%rbp),%rax
   14e79:	48 89 85 00 f4 ff ff 	mov    %rax,-0xc00(%rbp)
   14e80:	48 c7 85 08 f4 ff ff 	movq   $0x0,-0xbf8(%rbp)
   14e87:	00 00 00 00 
   14e8b:	48 c7 85 10 f4 ff ff 	movq   $0x0,-0xbf0(%rbp)
   14e92:	00 00 00 00 
   14e96:	48 8d 85 70 ed ff ff 	lea    -0x1290(%rbp),%rax
   14e9d:	48 89 85 18 f4 ff ff 	mov    %rax,-0xbe8(%rbp)
   14ea4:	48 8d 85 70 ed ff ff 	lea    -0x1290(%rbp),%rax
   14eab:	48 89 85 20 f4 ff ff 	mov    %rax,-0xbe0(%rbp)
   14eb2:	48 8d 85 70 ed ff ff 	lea    -0x1290(%rbp),%rax
   14eb9:	48 89 85 28 f4 ff ff 	mov    %rax,-0xbd8(%rbp)
   14ec0:	48 8d 05 3d 82 00 00 	lea    0x823d(%rip),%rax        # 1d104 <g_159+0x4>
   14ec7:	48 89 85 20 f0 ff ff 	mov    %rax,-0xfe0(%rbp)
   14ece:	48 8d 05 2f 82 00 00 	lea    0x822f(%rip),%rax        # 1d104 <g_159+0x4>
   14ed5:	48 89 85 28 f0 ff ff 	mov    %rax,-0xfd8(%rbp)
   14edc:	48 8d 05 21 82 00 00 	lea    0x8221(%rip),%rax        # 1d104 <g_159+0x4>
   14ee3:	48 89 85 30 f0 ff ff 	mov    %rax,-0xfd0(%rbp)
   14eea:	48 8d 05 13 82 00 00 	lea    0x8213(%rip),%rax        # 1d104 <g_159+0x4>
   14ef1:	48 89 85 38 f0 ff ff 	mov    %rax,-0xfc8(%rbp)
   14ef8:	48 8d 05 05 82 00 00 	lea    0x8205(%rip),%rax        # 1d104 <g_159+0x4>
   14eff:	48 89 85 40 f0 ff ff 	mov    %rax,-0xfc0(%rbp)
   14f06:	48 8d 05 f7 81 00 00 	lea    0x81f7(%rip),%rax        # 1d104 <g_159+0x4>
   14f0d:	48 89 85 48 f0 ff ff 	mov    %rax,-0xfb8(%rbp)
   14f14:	48 8d 05 e9 81 00 00 	lea    0x81e9(%rip),%rax        # 1d104 <g_159+0x4>
   14f1b:	48 89 85 50 f0 ff ff 	mov    %rax,-0xfb0(%rbp)
   14f22:	48 8d 05 db 81 00 00 	lea    0x81db(%rip),%rax        # 1d104 <g_159+0x4>
   14f29:	48 89 85 58 f0 ff ff 	mov    %rax,-0xfa8(%rbp)
   14f30:	c7 85 d8 ec ff ff fe 	movl   $0xfffffffe,-0x1328(%rbp)
   14f37:	ff ff ff 
   14f3a:	c7 85 dc ec ff ff 03 	movl   $0x55805403,-0x1324(%rbp)
   14f41:	54 80 55 
   14f44:	48 8b 85 f8 ec ff ff 	mov    -0x1308(%rbp),%rax
   14f4b:	48 8b 00             	mov    (%rax),%rax
   14f4e:	48 89 85 08 f7 ff ff 	mov    %rax,-0x8f8(%rbp)
   14f55:	48 8b 85 08 f7 ff ff 	mov    -0x8f8(%rbp),%rax
   14f5c:	48 39 85 78 ee ff ff 	cmp    %rax,-0x1188(%rbp)
   14f63:	0f 95 c0             	setne  %al
   14f66:	44 0f b6 f0          	movzbl %al,%r14d
   14f6a:	48 8b 85 88 ed ff ff 	mov    -0x1278(%rbp),%rax
   14f71:	48 8b 00             	mov    (%rax),%rax
   14f74:	8b 18                	mov    (%rax),%ebx
   14f76:	0f b6 05 8b be 00 00 	movzbl 0xbe8b(%rip),%eax        # 20e08 <g_13>
   14f7d:	44 0f b6 e0          	movzbl %al,%r12d
   14f81:	48 8b 85 88 ed ff ff 	mov    -0x1278(%rbp),%rax
   14f88:	48 8b 00             	mov    (%rax),%rax
   14f8b:	8b 00                	mov    (%rax),%eax
   14f8d:	48 98                	cltq   
   14f8f:	48 39 85 80 ec ff ff 	cmp    %rax,-0x1380(%rbp)
   14f96:	48 8b 85 80 ec ff ff 	mov    -0x1380(%rbp),%rax
   14f9d:	44 0f b7 e8          	movzwl %ax,%r13d
   14fa1:	48 8b 05 78 be 00 00 	mov    0xbe78(%rip),%rax        # 20e20 <g_221>
   14fa8:	8b 10                	mov    (%rax),%edx
   14faa:	48 8b 85 88 ed ff ff 	mov    -0x1278(%rbp),%rax
   14fb1:	48 8b 00             	mov    (%rax),%rax
   14fb4:	8b 00                	mov    (%rax),%eax
   14fb6:	48 83 bd 80 ec ff ff 	cmpq   $0x0,-0x1380(%rbp)
   14fbd:	00 
   14fbe:	74 11                	je     14fd1 <func_78+0x1478>
   14fc0:	48 83 bd 80 ec ff ff 	cmpq   $0x0,-0x1380(%rbp)
   14fc7:	00 
   14fc8:	74 07                	je     14fd1 <func_78+0x1478>
   14fca:	b9 01 00 00 00       	mov    $0x1,%ecx
   14fcf:	eb 05                	jmp    14fd6 <func_78+0x147d>
   14fd1:	b9 00 00 00 00       	mov    $0x0,%ecx
   14fd6:	39 c1                	cmp    %eax,%ecx
   14fd8:	0f 9d c0             	setge  %al
   14fdb:	0f b6 c0             	movzbl %al,%eax
   14fde:	89 d6                	mov    %edx,%esi
   14fe0:	89 c7                	mov    %eax,%edi
   14fe2:	e8 e5 56 ff ff       	callq  a6cc <safe_mod_func_int32_t_s_s>
   14fe7:	48 63 d0             	movslq %eax,%rdx
   14fea:	48 8b 05 b7 82 00 00 	mov    0x82b7(%rip),%rax        # 1d2a8 <g_376>
   14ff1:	48 39 c2             	cmp    %rax,%rdx
   14ff4:	0f 95 c0             	setne  %al
   14ff7:	0f b6 c0             	movzbl %al,%eax
   14ffa:	44 89 ee             	mov    %r13d,%esi
   14ffd:	89 c7                	mov    %eax,%edi
   14fff:	e8 fb 5c ff ff       	callq  acff <safe_add_func_uint16_t_u_u>
   15004:	66 3d e6 72          	cmp    $0x72e6,%ax
   15008:	0f 97 c0             	seta   %al
   1500b:	0f b6 d0             	movzbl %al,%edx
   1500e:	48 8b 85 88 ed ff ff 	mov    -0x1278(%rbp),%rax
   15015:	48 8b 00             	mov    (%rax),%rax
   15018:	8b 00                	mov    (%rax),%eax
   1501a:	39 c2                	cmp    %eax,%edx
   1501c:	0f 9d c0             	setge  %al
   1501f:	0f b6 c0             	movzbl %al,%eax
   15022:	ba fd ff ff ff       	mov    $0xfffffffd,%edx
   15027:	39 d0                	cmp    %edx,%eax
   15029:	48 83 bd 80 ec ff ff 	cmpq   $0x0,-0x1380(%rbp)
   15030:	00 
   15031:	74 11                	je     15044 <func_78+0x14eb>
   15033:	48 83 bd 80 ec ff ff 	cmpq   $0x0,-0x1380(%rbp)
   1503a:	00 
   1503b:	74 07                	je     15044 <func_78+0x14eb>
   1503d:	ba 01 00 00 00       	mov    $0x1,%edx
   15042:	eb 05                	jmp    15049 <func_78+0x14f0>
   15044:	ba 00 00 00 00       	mov    $0x0,%edx
   15049:	48 8b 85 e0 ec ff ff 	mov    -0x1320(%rbp),%rax
   15050:	66 89 10             	mov    %dx,(%rax)
   15053:	0f b7 00             	movzwl (%rax),%eax
   15056:	66 3d 83 1f          	cmp    $0x1f83,%ax
   1505a:	0f 9e c0             	setle  %al
   1505d:	0f b6 c0             	movzbl %al,%eax
   15060:	21 85 d8 ec ff ff    	and    %eax,-0x1328(%rbp)
   15066:	8b 85 d8 ec ff ff    	mov    -0x1328(%rbp),%eax
   1506c:	0f b6 c0             	movzbl %al,%eax
   1506f:	44 89 e6             	mov    %r12d,%esi
   15072:	89 c7                	mov    %eax,%edi
   15074:	e8 45 5c ff ff       	callq  acbe <safe_rshift_func_uint8_t_u_u>
   15079:	0f b6 c0             	movzbl %al,%eax
   1507c:	89 de                	mov    %ebx,%esi
   1507e:	89 c7                	mov    %eax,%edi
   15080:	e8 80 55 ff ff       	callq  a605 <safe_sub_func_int32_t_s_s>
   15085:	c7 85 dc ec ff ff 01 	movl   $0x1,-0x1324(%rbp)
   1508c:	00 00 00 
   1508f:	b8 01 00 00 00       	mov    $0x1,%eax
   15094:	44 39 f0             	cmp    %r14d,%eax
   15097:	0f 9f c0             	setg   %al
   1509a:	0f b6 c0             	movzbl %al,%eax
   1509d:	48 39 85 70 ee ff ff 	cmp    %rax,-0x1190(%rbp)
   150a4:	0f 9e c0             	setle  %al
   150a7:	0f b6 c0             	movzbl %al,%eax
   150aa:	89 c6                	mov    %eax,%esi
   150ac:	bf b9 ff ff ff       	mov    $0xffffffb9,%edi
   150b1:	e8 1e 51 ff ff       	callq  a1d4 <safe_add_func_int8_t_s_s>
   150b6:	89 c2                	mov    %eax,%edx
   150b8:	48 8b 85 88 ed ff ff 	mov    -0x1278(%rbp),%rax
   150bf:	48 8b 00             	mov    (%rax),%rax
   150c2:	0f be d2             	movsbl %dl,%edx
   150c5:	89 10                	mov    %edx,(%rax)
   150c7:	e9 5c 0c 00 00       	jmpq   15d28 <func_78+0x21cf>
   150cc:	48 8d 05 31 80 00 00 	lea    0x8031(%rip),%rax        # 1d104 <g_159+0x4>
   150d3:	48 89 85 b8 ed ff ff 	mov    %rax,-0x1248(%rbp)
   150da:	48 8d 85 00 ed ff ff 	lea    -0x1300(%rbp),%rax
   150e1:	48 89 85 30 ed ff ff 	mov    %rax,-0x12d0(%rbp)
   150e8:	48 c7 85 38 ed ff ff 	movq   $0x0,-0x12c8(%rbp)
   150ef:	00 00 00 00 
   150f3:	48 8d 85 30 ed ff ff 	lea    -0x12d0(%rbp),%rax
   150fa:	48 89 85 40 ed ff ff 	mov    %rax,-0x12c0(%rbp)
   15101:	48 8d 85 a0 ec ff ff 	lea    -0x1360(%rbp),%rax
   15108:	48 89 85 c0 ed ff ff 	mov    %rax,-0x1240(%rbp)
   1510f:	48 8d 85 38 ed ff ff 	lea    -0x12c8(%rbp),%rax
   15116:	48 89 85 c0 ee ff ff 	mov    %rax,-0x1140(%rbp)
   1511d:	48 8d 85 38 ed ff ff 	lea    -0x12c8(%rbp),%rax
   15124:	48 89 85 c8 ee ff ff 	mov    %rax,-0x1138(%rbp)
   1512b:	48 8d 85 38 ed ff ff 	lea    -0x12c8(%rbp),%rax
   15132:	48 89 85 d0 ee ff ff 	mov    %rax,-0x1130(%rbp)
   15139:	48 8d 85 38 ed ff ff 	lea    -0x12c8(%rbp),%rax
   15140:	48 89 85 d8 ee ff ff 	mov    %rax,-0x1128(%rbp)
   15147:	48 8d 85 38 ed ff ff 	lea    -0x12c8(%rbp),%rax
   1514e:	48 89 85 e0 ee ff ff 	mov    %rax,-0x1120(%rbp)
   15155:	48 8d 85 38 ed ff ff 	lea    -0x12c8(%rbp),%rax
   1515c:	48 89 85 e8 ee ff ff 	mov    %rax,-0x1118(%rbp)
   15163:	48 c7 85 48 ed ff ff 	movq   $0xfffffffffffffffd,-0x12b8(%rbp)
   1516a:	fd ff ff ff 
   1516e:	48 8d 85 f0 ec ff ff 	lea    -0x1310(%rbp),%rax
   15175:	48 89 85 50 ed ff ff 	mov    %rax,-0x12b0(%rbp)
   1517c:	48 8d 85 50 ed ff ff 	lea    -0x12b0(%rbp),%rax
   15183:	48 89 85 c8 ed ff ff 	mov    %rax,-0x1238(%rbp)
   1518a:	c7 85 c0 ec ff ff 42 	movl   $0xc27be042,-0x1340(%rbp)
   15191:	e0 7b c2 
   15194:	c7 85 ac ec ff ff bd 	movl   $0xe2b268bd,-0x1354(%rbp)
   1519b:	68 b2 e2 
   1519e:	c7 85 b0 ec ff ff e1 	movl   $0x2db528e1,-0x1350(%rbp)
   151a5:	28 b5 2d 
   151a8:	c7 85 b4 ec ff ff cc 	movl   $0xc878facc,-0x134c(%rbp)
   151af:	fa 78 c8 
   151b2:	c7 85 b8 ec ff ff f7 	movl   $0xfffffff7,-0x1348(%rbp)
   151b9:	ff ff ff 
   151bc:	c7 85 bc ec ff ff c8 	movl   $0x600955c8,-0x1344(%rbp)
   151c3:	55 09 60 
   151c6:	48 c7 85 90 ee ff ff 	movq   $0x0,-0x1170(%rbp)
   151cd:	00 00 00 00 
   151d1:	48 c7 85 98 ee ff ff 	movq   $0x0,-0x1168(%rbp)
   151d8:	00 00 00 00 
   151dc:	48 c7 85 a0 ee ff ff 	movq   $0x0,-0x1160(%rbp)
   151e3:	00 00 00 00 
   151e7:	48 c7 85 a8 ee ff ff 	movq   $0x0,-0x1158(%rbp)
   151ee:	00 00 00 00 
   151f2:	48 c7 85 b0 ee ff ff 	movq   $0x0,-0x1150(%rbp)
   151f9:	00 00 00 00 
   151fd:	48 8d 05 84 a4 00 00 	lea    0xa484(%rip),%rax        # 1f688 <g_332>
   15204:	48 89 85 d0 ed ff ff 	mov    %rax,-0x1230(%rbp)
   1520b:	48 8d 85 98 ec ff ff 	lea    -0x1368(%rbp),%rax
   15212:	48 89 85 d8 ed ff ff 	mov    %rax,-0x1228(%rbp)
   15219:	48 8d 85 b8 ec ff ff 	lea    -0x1348(%rbp),%rax
   15220:	48 89 85 e0 ed ff ff 	mov    %rax,-0x1220(%rbp)
   15227:	48 8d 85 b4 ec ff ff 	lea    -0x134c(%rbp),%rax
   1522e:	48 89 85 e8 ed ff ff 	mov    %rax,-0x1218(%rbp)
   15235:	48 8d 05 c0 80 00 00 	lea    0x80c0(%rip),%rax        # 1d2fc <g_650>
   1523c:	48 89 85 f0 ed ff ff 	mov    %rax,-0x1210(%rbp)
   15243:	48 8d 85 9c ec ff ff 	lea    -0x1364(%rbp),%rax
   1524a:	48 89 85 f8 ed ff ff 	mov    %rax,-0x1208(%rbp)
   15251:	48 8d 85 a0 ec ff ff 	lea    -0x1360(%rbp),%rax
   15258:	48 89 85 f0 ee ff ff 	mov    %rax,-0x1110(%rbp)
   1525f:	48 8d 85 a0 ec ff ff 	lea    -0x1360(%rbp),%rax
   15266:	48 89 85 f8 ee ff ff 	mov    %rax,-0x1108(%rbp)
   1526d:	48 8d 85 a0 ec ff ff 	lea    -0x1360(%rbp),%rax
   15274:	48 89 85 00 ef ff ff 	mov    %rax,-0x1100(%rbp)
   1527b:	48 8d 85 a0 ec ff ff 	lea    -0x1360(%rbp),%rax
   15282:	48 89 85 08 ef ff ff 	mov    %rax,-0x10f8(%rbp)
   15289:	48 8d 85 a0 ec ff ff 	lea    -0x1360(%rbp),%rax
   15290:	48 89 85 10 ef ff ff 	mov    %rax,-0x10f0(%rbp)
   15297:	48 8d 85 a0 ec ff ff 	lea    -0x1360(%rbp),%rax
   1529e:	48 89 85 18 ef ff ff 	mov    %rax,-0x10e8(%rbp)
   152a5:	66 c7 85 96 ec ff ff 	movw   $0x4e1b,-0x136a(%rbp)
   152ac:	1b 4e 
   152ae:	8b 05 2c 80 00 00    	mov    0x802c(%rip),%eax        # 1d2e0 <g_518+0x20>
   152b4:	48 8b 85 c0 ed ff ff 	mov    -0x1240(%rbp),%rax
   152bb:	8b 00                	mov    (%rax),%eax
   152bd:	0f be c0             	movsbl %al,%eax
   152c0:	89 c6                	mov    %eax,%esi
   152c2:	bf 03 00 00 00       	mov    $0x3,%edi
   152c7:	e8 08 4f ff ff       	callq  a1d4 <safe_add_func_int8_t_s_s>
   152cc:	0f be d0             	movsbl %al,%edx
   152cf:	48 8b 85 88 ed ff ff 	mov    -0x1278(%rbp),%rax
   152d6:	48 8b 00             	mov    (%rax),%rax
   152d9:	8b 00                	mov    (%rax),%eax
   152db:	09 d0                	or     %edx,%eax
   152dd:	48 98                	cltq   
   152df:	48 39 85 80 ec ff ff 	cmp    %rax,-0x1380(%rbp)
   152e6:	0f 95 c0             	setne  %al
   152e9:	0f b6 d0             	movzbl %al,%edx
   152ec:	48 8d 85 08 ed ff ff 	lea    -0x12f8(%rbp),%rax
   152f3:	48 89 85 10 ed ff ff 	mov    %rax,-0x12f0(%rbp)
   152fa:	48 8b 8d 10 ed ff ff 	mov    -0x12f0(%rbp),%rcx
   15301:	48 8b 05 60 bb 00 00 	mov    0xbb60(%rip),%rax        # 20e68 <g_528>
   15308:	48 39 c1             	cmp    %rax,%rcx
   1530b:	0f 95 c0             	setne  %al
   1530e:	0f b6 c0             	movzbl %al,%eax
   15311:	89 d6                	mov    %edx,%esi
   15313:	89 c7                	mov    %eax,%edi
   15315:	e8 d8 4e ff ff       	callq  a1f2 <safe_sub_func_int8_t_s_s>
   1531a:	0f b6 05 27 7d 00 00 	movzbl 0x7d27(%rip),%eax        # 1d048 <g_52>
   15321:	89 c2                	mov    %eax,%edx
   15323:	48 8b 85 b8 ed ff ff 	mov    -0x1248(%rbp),%rax
   1532a:	88 10                	mov    %dl,(%rax)
   1532c:	48 8b 85 40 ed ff ff 	mov    -0x12c0(%rbp),%rax
   15333:	48 8b 95 30 ed ff ff 	mov    -0x12d0(%rbp),%rdx
   1533a:	48 89 10             	mov    %rdx,(%rax)
   1533d:	48 8b 10             	mov    (%rax),%rdx
   15340:	48 8d 85 00 ed ff ff 	lea    -0x1300(%rbp),%rax
   15347:	48 39 c2             	cmp    %rax,%rdx
   1534a:	48 83 bd c0 ed ff ff 	cmpq   $0x0,-0x1240(%rbp)
   15351:	00 
   15352:	48 8b 85 c0 ed ff ff 	mov    -0x1240(%rbp),%rax
   15359:	8b 00                	mov    (%rax),%eax
   1535b:	83 f8 01             	cmp    $0x1,%eax
   1535e:	0f 9e c0             	setle  %al
   15361:	0f b6 d0             	movzbl %al,%edx
   15364:	48 8b 05 b5 ba 00 00 	mov    0xbab5(%rip),%rax        # 20e20 <g_221>
   1536b:	8b 00                	mov    (%rax),%eax
   1536d:	39 c2                	cmp    %eax,%edx
   1536f:	8b 05 a3 7d 00 00    	mov    0x7da3(%rip),%eax        # 1d118 <g_194>
   15375:	83 f8 01             	cmp    $0x1,%eax
   15378:	0f 84 e2 00 00 00    	je     15460 <func_78+0x1907>
   1537e:	48 c7 85 60 ee ff ff 	movq   $0x0,-0x11a0(%rbp)
   15385:	00 00 00 00 
   15389:	48 8d 85 00 ed ff ff 	lea    -0x1300(%rbp),%rax
   15390:	48 89 85 68 ee ff ff 	mov    %rax,-0x1198(%rbp)
   15397:	c7 85 d4 ec ff ff 1b 	movl   $0xd7b8581b,-0x132c(%rbp)
   1539e:	58 b8 d7 
   153a1:	c7 05 71 7d 00 00 00 	movl   $0x0,0x7d71(%rip)        # 1d11c <g_197>
   153a8:	00 00 00 
   153ab:	90                   	nop
   153ac:	8b 05 6a 7d 00 00    	mov    0x7d6a(%rip),%eax        # 1d11c <g_197>
   153b2:	83 f8 e4             	cmp    $0xffffffe4,%eax
   153b5:	7c 0c                	jl     153c3 <func_78+0x186a>
   153b7:	48 8b 05 82 7c 00 00 	mov    0x7c82(%rip),%rax        # 1d040 <g_42>
   153be:	e9 71 09 00 00       	jmpq   15d34 <func_78+0x21db>
   153c3:	48 8b 85 c0 ed ff ff 	mov    -0x1240(%rbp),%rax
   153ca:	8b 00                	mov    (%rax),%eax
   153cc:	88 05 1e 7d 00 00    	mov    %al,0x7d1e(%rip)        # 1d0f0 <g_150>
   153d2:	0f b6 05 17 7d 00 00 	movzbl 0x7d17(%rip),%eax        # 1d0f0 <g_150>
   153d9:	0f be d8             	movsbl %al,%ebx
   153dc:	48 8b 05 75 a2 00 00 	mov    0xa275(%rip),%rax        # 1f658 <g_215>
   153e3:	8b 00                	mov    (%rax),%eax
   153e5:	85 c0                	test   %eax,%eax
   153e7:	74 26                	je     1540f <func_78+0x18b6>
   153e9:	48 8b 85 80 ec ff ff 	mov    -0x1380(%rbp),%rax
   153f0:	0f b7 d0             	movzwl %ax,%edx
   153f3:	8b 05 13 7d 00 00    	mov    0x7d13(%rip),%eax        # 1d10c <g_167>
   153f9:	0f b7 c0             	movzwl %ax,%eax
   153fc:	89 d6                	mov    %edx,%esi
   153fe:	89 c7                	mov    %eax,%edi
   15400:	e8 38 59 ff ff       	callq  ad3d <safe_mul_func_uint16_t_u_u>
   15405:	0f b7 c0             	movzwl %ax,%eax
   15408:	48 39 85 80 ec ff ff 	cmp    %rax,-0x1380(%rbp)
   1540f:	48 8b 95 40 ed ff ff 	mov    -0x12c0(%rbp),%rdx
   15416:	48 8b 85 10 ed ff ff 	mov    -0x12f0(%rbp),%rax
   1541d:	48 8b 12             	mov    (%rdx),%rdx
   15420:	48 89 10             	mov    %rdx,(%rax)
   15423:	48 8b 00             	mov    (%rax),%rax
   15426:	48 89 85 68 ee ff ff 	mov    %rax,-0x1198(%rbp)
   1542d:	48 83 bd 68 ee ff ff 	cmpq   $0x0,-0x1198(%rbp)
   15434:	00 
   15435:	74 11                	je     15448 <func_78+0x18ef>
   15437:	48 83 bd 80 ec ff ff 	cmpq   $0x0,-0x1380(%rbp)
   1543e:	00 
   1543f:	74 07                	je     15448 <func_78+0x18ef>
   15441:	b8 01 00 00 00       	mov    $0x1,%eax
   15446:	eb 05                	jmp    1544d <func_78+0x18f4>
   15448:	b8 00 00 00 00       	mov    $0x0,%eax
   1544d:	39 d8                	cmp    %ebx,%eax
   1544f:	0f 95 c0             	setne  %al
   15452:	0f b6 c0             	movzbl %al,%eax
   15455:	21 85 d4 ec ff ff    	and    %eax,-0x132c(%rbp)
   1545b:	e9 c0 08 00 00       	jmpq   15d20 <func_78+0x21c7>
   15460:	c6 85 95 ec ff ff 02 	movb   $0x2,-0x136b(%rbp)
   15467:	48 8d 05 02 a2 00 00 	lea    0xa202(%rip),%rax        # 1f670 <g_293>
   1546e:	48 89 85 00 ee ff ff 	mov    %rax,-0x1200(%rbp)
   15475:	48 c7 85 08 ee ff ff 	movq   $0x0,-0x11f8(%rbp)
   1547c:	00 00 00 00 
   15480:	48 b8 fe 5f 56 ab 72 	movabs $0xe1b50e72ab565ffe,%rax
   15487:	0e b5 e1 
   1548a:	48 89 85 58 ed ff ff 	mov    %rax,-0x12a8(%rbp)
   15491:	48 8d 85 f0 ec ff ff 	lea    -0x1310(%rbp),%rax
   15498:	48 89 85 60 ed ff ff 	mov    %rax,-0x12a0(%rbp)
   1549f:	48 8d 85 60 ed ff ff 	lea    -0x12a0(%rbp),%rax
   154a6:	48 89 85 10 ee ff ff 	mov    %rax,-0x11f0(%rbp)
   154ad:	c7 85 c8 ec ff ff 2a 	movl   $0x29ec642a,-0x1338(%rbp)
   154b4:	64 ec 29 
   154b7:	c7 85 cc ec ff ff 18 	movl   $0xa1cd2618,-0x1334(%rbp)
   154be:	26 cd a1 
   154c1:	48 8d 85 20 f0 ff ff 	lea    -0xfe0(%rbp),%rax
   154c8:	48 8d 15 71 44 00 00 	lea    0x4471(%rip),%rdx        # 19940 <g_2140+0x18d4>
   154cf:	b9 23 00 00 00       	mov    $0x23,%ecx
   154d4:	48 89 c7             	mov    %rax,%rdi
   154d7:	48 89 d6             	mov    %rdx,%rsi
   154da:	f3 48 a5             	rep movsq %ds:(%rsi),%es:(%rdi)
   154dd:	48 8d 05 64 b9 00 00 	lea    0xb964(%rip),%rax        # 20e48 <g_269+0x8>
   154e4:	48 89 85 68 ed ff ff 	mov    %rax,-0x1298(%rbp)
   154eb:	48 8d 85 68 ed ff ff 	lea    -0x1298(%rbp),%rax
   154f2:	48 89 85 70 ed ff ff 	mov    %rax,-0x1290(%rbp)
   154f9:	48 8d 85 70 ed ff ff 	lea    -0x1290(%rbp),%rax
   15500:	48 89 85 18 ee ff ff 	mov    %rax,-0x11e8(%rbp)
   15507:	c7 85 c4 ec ff ff fa 	movl   $0xfffffffa,-0x133c(%rbp)
   1550e:	ff ff ff 
   15511:	c7 05 95 7d 00 00 02 	movl   $0x2,0x7d95(%rip)        # 1d2b0 <g_509>
   15518:	00 00 00 
   1551b:	e9 c2 03 00 00       	jmpq   158e2 <func_78+0x1d89>
   15520:	48 8d 85 a8 ec ff ff 	lea    -0x1358(%rbp),%rax
   15527:	48 89 85 20 ef ff ff 	mov    %rax,-0x10e0(%rbp)
   1552e:	48 8d 85 a8 ec ff ff 	lea    -0x1358(%rbp),%rax
   15535:	48 89 85 28 ef ff ff 	mov    %rax,-0x10d8(%rbp)
   1553c:	48 8d 05 45 7b 00 00 	lea    0x7b45(%rip),%rax        # 1d088 <g_118>
   15543:	48 89 85 30 ef ff ff 	mov    %rax,-0x10d0(%rbp)
   1554a:	48 8d 85 a8 ec ff ff 	lea    -0x1358(%rbp),%rax
   15551:	48 89 85 38 ef ff ff 	mov    %rax,-0x10c8(%rbp)
   15558:	48 8d 85 a8 ec ff ff 	lea    -0x1358(%rbp),%rax
   1555f:	48 89 85 40 ef ff ff 	mov    %rax,-0x10c0(%rbp)
   15566:	48 8d 05 1b 7b 00 00 	lea    0x7b1b(%rip),%rax        # 1d088 <g_118>
   1556d:	48 89 85 48 ef ff ff 	mov    %rax,-0x10b8(%rbp)
   15574:	48 8d 85 a8 ec ff ff 	lea    -0x1358(%rbp),%rax
   1557b:	48 89 85 50 ef ff ff 	mov    %rax,-0x10b0(%rbp)
   15582:	48 8d 85 10 ed ff ff 	lea    -0x12f0(%rbp),%rax
   15589:	48 89 85 b0 f2 ff ff 	mov    %rax,-0xd50(%rbp)
   15590:	48 8d 85 10 ed ff ff 	lea    -0x12f0(%rbp),%rax
   15597:	48 89 85 b8 f2 ff ff 	mov    %rax,-0xd48(%rbp)
   1559e:	48 c7 85 c0 f2 ff ff 	movq   $0x0,-0xd40(%rbp)
   155a5:	00 00 00 00 
   155a9:	48 8d 85 10 ed ff ff 	lea    -0x12f0(%rbp),%rax
   155b0:	48 89 85 c8 f2 ff ff 	mov    %rax,-0xd38(%rbp)
   155b7:	48 c7 85 d0 f2 ff ff 	movq   $0x0,-0xd30(%rbp)
   155be:	00 00 00 00 
   155c2:	48 c7 85 d8 f2 ff ff 	movq   $0x0,-0xd28(%rbp)
   155c9:	00 00 00 00 
   155cd:	48 8d 85 10 ed ff ff 	lea    -0x12f0(%rbp),%rax
   155d4:	48 89 85 e0 f2 ff ff 	mov    %rax,-0xd20(%rbp)
   155db:	48 8d 85 10 ed ff ff 	lea    -0x12f0(%rbp),%rax
   155e2:	48 89 85 e8 f2 ff ff 	mov    %rax,-0xd18(%rbp)
   155e9:	48 8d 85 10 ed ff ff 	lea    -0x12f0(%rbp),%rax
   155f0:	48 89 85 f0 f2 ff ff 	mov    %rax,-0xd10(%rbp)
   155f7:	48 c7 85 f8 f2 ff ff 	movq   $0x0,-0xd08(%rbp)
   155fe:	00 00 00 00 
   15602:	48 c7 85 00 f3 ff ff 	movq   $0x0,-0xd00(%rbp)
   15609:	00 00 00 00 
   1560d:	48 8d 85 10 ed ff ff 	lea    -0x12f0(%rbp),%rax
   15614:	48 89 85 08 f3 ff ff 	mov    %rax,-0xcf8(%rbp)
   1561b:	48 c7 85 10 f3 ff ff 	movq   $0x0,-0xcf0(%rbp)
   15622:	00 00 00 00 
   15626:	48 8d 85 10 ed ff ff 	lea    -0x12f0(%rbp),%rax
   1562d:	48 89 85 18 f3 ff ff 	mov    %rax,-0xce8(%rbp)
   15634:	48 8d 85 10 ed ff ff 	lea    -0x12f0(%rbp),%rax
   1563b:	48 89 85 20 f3 ff ff 	mov    %rax,-0xce0(%rbp)
   15642:	48 8d 85 38 ed ff ff 	lea    -0x12c8(%rbp),%rax
   15649:	48 89 85 28 f3 ff ff 	mov    %rax,-0xcd8(%rbp)
   15650:	48 c7 85 30 f3 ff ff 	movq   $0x0,-0xcd0(%rbp)
   15657:	00 00 00 00 
   1565b:	48 8d 85 10 ed ff ff 	lea    -0x12f0(%rbp),%rax
   15662:	48 89 85 38 f3 ff ff 	mov    %rax,-0xcc8(%rbp)
   15669:	48 8d 85 40 ed ff ff 	lea    -0x12c0(%rbp),%rax
   15670:	48 89 85 40 f3 ff ff 	mov    %rax,-0xcc0(%rbp)
   15677:	48 8d 85 40 ed ff ff 	lea    -0x12c0(%rbp),%rax
   1567e:	48 89 85 48 f3 ff ff 	mov    %rax,-0xcb8(%rbp)
   15685:	48 8d 85 38 ed ff ff 	lea    -0x12c8(%rbp),%rax
   1568c:	48 89 85 50 f3 ff ff 	mov    %rax,-0xcb0(%rbp)
   15693:	48 8d 85 38 ed ff ff 	lea    -0x12c8(%rbp),%rax
   1569a:	48 89 85 58 f3 ff ff 	mov    %rax,-0xca8(%rbp)
   156a1:	48 c7 85 60 f3 ff ff 	movq   $0x0,-0xca0(%rbp)
   156a8:	00 00 00 00 
   156ac:	48 c7 85 68 f3 ff ff 	movq   $0x0,-0xc98(%rbp)
   156b3:	00 00 00 00 
   156b7:	48 c7 85 70 f3 ff ff 	movq   $0x0,-0xc90(%rbp)
   156be:	00 00 00 00 
   156c2:	48 8d 85 38 ed ff ff 	lea    -0x12c8(%rbp),%rax
   156c9:	48 89 85 78 f3 ff ff 	mov    %rax,-0xc88(%rbp)
   156d0:	48 8d 85 40 ed ff ff 	lea    -0x12c0(%rbp),%rax
   156d7:	48 89 85 80 f3 ff ff 	mov    %rax,-0xc80(%rbp)
   156de:	48 c7 85 88 f3 ff ff 	movq   $0x0,-0xc78(%rbp)
   156e5:	00 00 00 00 
   156e9:	48 8d 85 40 ed ff ff 	lea    -0x12c0(%rbp),%rax
   156f0:	48 89 85 90 f3 ff ff 	mov    %rax,-0xc70(%rbp)
   156f7:	48 8d 85 40 ed ff ff 	lea    -0x12c0(%rbp),%rax
   156fe:	48 89 85 98 f3 ff ff 	mov    %rax,-0xc68(%rbp)
   15705:	48 8d 85 10 ed ff ff 	lea    -0x12f0(%rbp),%rax
   1570c:	48 89 85 a0 f3 ff ff 	mov    %rax,-0xc60(%rbp)
   15713:	48 c7 85 a8 f3 ff ff 	movq   $0x0,-0xc58(%rbp)
   1571a:	00 00 00 00 
   1571e:	48 8d 85 40 ed ff ff 	lea    -0x12c0(%rbp),%rax
   15725:	48 89 85 b0 f3 ff ff 	mov    %rax,-0xc50(%rbp)
   1572c:	48 8d 85 10 ed ff ff 	lea    -0x12f0(%rbp),%rax
   15733:	48 89 85 b8 f3 ff ff 	mov    %rax,-0xc48(%rbp)
   1573a:	48 c7 85 c0 f3 ff ff 	movq   $0x0,-0xc40(%rbp)
   15741:	00 00 00 00 
   15745:	48 c7 85 c8 f3 ff ff 	movq   $0x0,-0xc38(%rbp)
   1574c:	00 00 00 00 
   15750:	48 8d 85 10 ed ff ff 	lea    -0x12f0(%rbp),%rax
   15757:	48 89 85 d0 f3 ff ff 	mov    %rax,-0xc30(%rbp)
   1575e:	48 8d 85 10 ed ff ff 	lea    -0x12f0(%rbp),%rax
   15765:	48 89 85 d8 f3 ff ff 	mov    %rax,-0xc28(%rbp)
   1576c:	48 8d 85 38 ed ff ff 	lea    -0x12c8(%rbp),%rax
   15773:	48 89 85 e0 f3 ff ff 	mov    %rax,-0xc20(%rbp)
   1577a:	48 8d 85 10 ed ff ff 	lea    -0x12f0(%rbp),%rax
   15781:	48 89 85 e8 f3 ff ff 	mov    %rax,-0xc18(%rbp)
   15788:	48 8d 85 40 ed ff ff 	lea    -0x12c0(%rbp),%rax
   1578f:	48 89 85 f0 f3 ff ff 	mov    %rax,-0xc10(%rbp)
   15796:	48 8d 85 10 ed ff ff 	lea    -0x12f0(%rbp),%rax
   1579d:	48 89 85 f8 f3 ff ff 	mov    %rax,-0xc08(%rbp)
   157a4:	48 8d 85 38 ed ff ff 	lea    -0x12c8(%rbp),%rax
   157ab:	48 89 85 00 f4 ff ff 	mov    %rax,-0xc00(%rbp)
   157b2:	48 8d 85 10 ed ff ff 	lea    -0x12f0(%rbp),%rax
   157b9:	48 89 85 08 f4 ff ff 	mov    %rax,-0xbf8(%rbp)
   157c0:	48 8d 85 10 ed ff ff 	lea    -0x12f0(%rbp),%rax
   157c7:	48 89 85 10 f4 ff ff 	mov    %rax,-0xbf0(%rbp)
   157ce:	48 c7 85 18 f4 ff ff 	movq   $0x0,-0xbe8(%rbp)
   157d5:	00 00 00 00 
   157d9:	48 c7 85 20 f4 ff ff 	movq   $0x0,-0xbe0(%rbp)
   157e0:	00 00 00 00 
   157e4:	48 8d 85 10 ed ff ff 	lea    -0x12f0(%rbp),%rax
   157eb:	48 89 85 28 f4 ff ff 	mov    %rax,-0xbd8(%rbp)
   157f2:	48 8d 85 40 ed ff ff 	lea    -0x12c0(%rbp),%rax
   157f9:	48 89 85 30 f4 ff ff 	mov    %rax,-0xbd0(%rbp)
   15800:	48 c7 85 38 f4 ff ff 	movq   $0x0,-0xbc8(%rbp)
   15807:	00 00 00 00 
   1580b:	48 8d 85 10 ed ff ff 	lea    -0x12f0(%rbp),%rax
   15812:	48 89 85 40 f4 ff ff 	mov    %rax,-0xbc0(%rbp)
   15819:	48 8d 85 40 ed ff ff 	lea    -0x12c0(%rbp),%rax
   15820:	48 89 85 48 f4 ff ff 	mov    %rax,-0xbb8(%rbp)
   15827:	48 8d 85 40 ed ff ff 	lea    -0x12c0(%rbp),%rax
   1582e:	48 89 85 50 f4 ff ff 	mov    %rax,-0xbb0(%rbp)
   15835:	48 c7 85 58 f4 ff ff 	movq   $0x0,-0xba8(%rbp)
   1583c:	00 00 00 00 
   15840:	48 8d 85 40 ed ff ff 	lea    -0x12c0(%rbp),%rax
   15847:	48 89 85 60 f4 ff ff 	mov    %rax,-0xba0(%rbp)
   1584e:	48 8d 85 38 ed ff ff 	lea    -0x12c8(%rbp),%rax
   15855:	48 89 85 68 f4 ff ff 	mov    %rax,-0xb98(%rbp)
   1585c:	48 c7 85 70 f4 ff ff 	movq   $0x0,-0xb90(%rbp)
   15863:	00 00 00 00 
   15867:	48 c7 85 78 f4 ff ff 	movq   $0x0,-0xb88(%rbp)
   1586e:	00 00 00 00 
   15872:	48 c7 85 80 f4 ff ff 	movq   $0x0,-0xb80(%rbp)
   15879:	00 00 00 00 
   1587d:	48 8d 85 38 ed ff ff 	lea    -0x12c8(%rbp),%rax
   15884:	48 89 85 88 f4 ff ff 	mov    %rax,-0xb78(%rbp)
   1588b:	66 c7 85 80 ee ff ff 	movw   $0xfff6,-0x1180(%rbp)
   15892:	f6 ff 
   15894:	66 c7 85 82 ee ff ff 	movw   $0x2672,-0x117e(%rbp)
   1589b:	72 26 
   1589d:	66 c7 85 84 ee ff ff 	movw   $0xfff6,-0x117c(%rbp)
   158a4:	f6 ff 
   158a6:	66 c7 85 86 ee ff ff 	movw   $0x2672,-0x117a(%rbp)
   158ad:	72 26 
   158af:	66 c7 85 88 ee ff ff 	movw   $0xfff6,-0x1178(%rbp)
   158b6:	f6 ff 
   158b8:	66 c7 85 8a ee ff ff 	movw   $0x2672,-0x1176(%rbp)
   158bf:	72 26 
   158c1:	66 c7 85 8c ee ff ff 	movw   $0xfff6,-0x1174(%rbp)
   158c8:	f6 ff 
   158ca:	66 c7 85 8e ee ff ff 	movw   $0x2672,-0x1172(%rbp)
   158d1:	72 26 
   158d3:	8b 05 d7 79 00 00    	mov    0x79d7(%rip),%eax        # 1d2b0 <g_509>
   158d9:	83 c0 01             	add    $0x1,%eax
   158dc:	89 05 ce 79 00 00    	mov    %eax,0x79ce(%rip)        # 1d2b0 <g_509>
   158e2:	8b 05 c8 79 00 00    	mov    0x79c8(%rip),%eax        # 1d2b0 <g_509>
   158e8:	83 f8 2c             	cmp    $0x2c,%eax
   158eb:	0f 85 2f fc ff ff    	jne    15520 <func_78+0x19c7>
   158f1:	c7 85 c0 ec ff ff 1c 	movl   $0x1c,-0x1340(%rbp)
   158f8:	00 00 00 
   158fb:	e9 13 04 00 00       	jmpq   15d13 <func_78+0x21ba>
   15900:	48 c7 85 20 ee ff ff 	movq   $0x0,-0x11e0(%rbp)
   15907:	00 00 00 00 
   1590b:	48 8d 85 ac ec ff ff 	lea    -0x1354(%rbp),%rax
   15912:	48 89 85 28 ee ff ff 	mov    %rax,-0x11d8(%rbp)
   15919:	c7 85 d0 ec ff ff ff 	movl   $0xffffffff,-0x1330(%rbp)
   15920:	ff ff ff 
   15923:	48 8d 85 90 ee ff ff 	lea    -0x1170(%rbp),%rax
   1592a:	48 89 85 30 ee ff ff 	mov    %rax,-0x11d0(%rbp)
   15931:	48 8d 85 a0 ec ff ff 	lea    -0x1360(%rbp),%rax
   15938:	48 89 85 38 ee ff ff 	mov    %rax,-0x11c8(%rbp)
   1593f:	48 8d 05 b6 79 00 00 	lea    0x79b6(%rip),%rax        # 1d2fc <g_650>
   15946:	48 89 85 40 ee ff ff 	mov    %rax,-0x11c0(%rbp)
   1594d:	48 c7 85 48 ee ff ff 	movq   $0x0,-0x11b8(%rbp)
   15954:	00 00 00 00 
   15958:	48 c7 85 50 ee ff ff 	movq   $0x0,-0x11b0(%rbp)
   1595f:	00 00 00 00 
   15963:	48 8d 85 a0 ef ff ff 	lea    -0x1060(%rbp),%rax
   1596a:	48 83 c0 70          	add    $0x70,%rax
   1596e:	48 89 85 58 ee ff ff 	mov    %rax,-0x11a8(%rbp)
   15975:	48 c7 85 b0 f2 ff ff 	movq   $0x0,-0xd50(%rbp)
   1597c:	00 00 00 00 
   15980:	48 c7 85 b8 f2 ff ff 	movq   $0x0,-0xd48(%rbp)
   15987:	00 00 00 00 
   1598b:	48 8d 85 ac ec ff ff 	lea    -0x1354(%rbp),%rax
   15992:	48 89 85 c0 f2 ff ff 	mov    %rax,-0xd40(%rbp)
   15999:	48 8d 05 e8 76 00 00 	lea    0x76e8(%rip),%rax        # 1d088 <g_118>
   159a0:	48 89 85 c8 f2 ff ff 	mov    %rax,-0xd38(%rbp)
   159a7:	48 8d 85 bc ec ff ff 	lea    -0x1344(%rbp),%rax
   159ae:	48 89 85 d0 f2 ff ff 	mov    %rax,-0xd30(%rbp)
   159b5:	48 c7 85 d8 f2 ff ff 	movq   $0x0,-0xd28(%rbp)
   159bc:	00 00 00 00 
   159c0:	48 c7 85 e0 f2 ff ff 	movq   $0x0,-0xd20(%rbp)
   159c7:	00 00 00 00 
   159cb:	48 c7 85 e8 f2 ff ff 	movq   $0x0,-0xd18(%rbp)
   159d2:	00 00 00 00 
   159d6:	48 8d 85 b0 ec ff ff 	lea    -0x1350(%rbp),%rax
   159dd:	48 89 85 f0 f2 ff ff 	mov    %rax,-0xd10(%rbp)
   159e4:	48 8d 05 9d 76 00 00 	lea    0x769d(%rip),%rax        # 1d088 <g_118>
   159eb:	48 89 85 f8 f2 ff ff 	mov    %rax,-0xd08(%rbp)
   159f2:	48 8d 85 a4 ec ff ff 	lea    -0x135c(%rbp),%rax
   159f9:	48 89 85 00 f3 ff ff 	mov    %rax,-0xd00(%rbp)
   15a00:	48 8d 85 a4 ec ff ff 	lea    -0x135c(%rbp),%rax
   15a07:	48 89 85 08 f3 ff ff 	mov    %rax,-0xcf8(%rbp)
   15a0e:	48 8d 05 73 76 00 00 	lea    0x7673(%rip),%rax        # 1d088 <g_118>
   15a15:	48 89 85 10 f3 ff ff 	mov    %rax,-0xcf0(%rbp)
   15a1c:	48 8d 85 b0 ec ff ff 	lea    -0x1350(%rbp),%rax
   15a23:	48 89 85 18 f3 ff ff 	mov    %rax,-0xce8(%rbp)
   15a2a:	48 c7 85 20 f3 ff ff 	movq   $0x0,-0xce0(%rbp)
   15a31:	00 00 00 00 
   15a35:	48 c7 85 28 f3 ff ff 	movq   $0x0,-0xcd8(%rbp)
   15a3c:	00 00 00 00 
   15a40:	48 8d 85 ac ec ff ff 	lea    -0x1354(%rbp),%rax
   15a47:	48 89 85 30 f3 ff ff 	mov    %rax,-0xcd0(%rbp)
   15a4e:	48 8d 05 33 76 00 00 	lea    0x7633(%rip),%rax        # 1d088 <g_118>
   15a55:	48 89 85 38 f3 ff ff 	mov    %rax,-0xcc8(%rbp)
   15a5c:	48 8d 85 bc ec ff ff 	lea    -0x1344(%rbp),%rax
   15a63:	48 89 85 40 f3 ff ff 	mov    %rax,-0xcc0(%rbp)
   15a6a:	48 c7 85 48 f3 ff ff 	movq   $0x0,-0xcb8(%rbp)
   15a71:	00 00 00 00 
   15a75:	48 c7 85 50 f3 ff ff 	movq   $0x0,-0xcb0(%rbp)
   15a7c:	00 00 00 00 
   15a80:	48 c7 85 58 f3 ff ff 	movq   $0x0,-0xca8(%rbp)
   15a87:	00 00 00 00 
   15a8b:	48 8d 85 b0 ec ff ff 	lea    -0x1350(%rbp),%rax
   15a92:	48 89 85 60 f3 ff ff 	mov    %rax,-0xca0(%rbp)
   15a99:	48 8d 05 e8 75 00 00 	lea    0x75e8(%rip),%rax        # 1d088 <g_118>
   15aa0:	48 89 85 68 f3 ff ff 	mov    %rax,-0xc98(%rbp)
   15aa7:	48 8d 85 a4 ec ff ff 	lea    -0x135c(%rbp),%rax
   15aae:	48 89 85 70 f3 ff ff 	mov    %rax,-0xc90(%rbp)
   15ab5:	48 8d 85 a4 ec ff ff 	lea    -0x135c(%rbp),%rax
   15abc:	48 89 85 78 f3 ff ff 	mov    %rax,-0xc88(%rbp)
   15ac3:	48 8d 05 be 75 00 00 	lea    0x75be(%rip),%rax        # 1d088 <g_118>
   15aca:	48 89 85 80 f3 ff ff 	mov    %rax,-0xc80(%rbp)
   15ad1:	48 8d 85 b0 ec ff ff 	lea    -0x1350(%rbp),%rax
   15ad8:	48 89 85 88 f3 ff ff 	mov    %rax,-0xc78(%rbp)
   15adf:	48 c7 85 90 f3 ff ff 	movq   $0x0,-0xc70(%rbp)
   15ae6:	00 00 00 00 
   15aea:	48 c7 85 98 f3 ff ff 	movq   $0x0,-0xc68(%rbp)
   15af1:	00 00 00 00 
   15af5:	48 8d 85 ac ec ff ff 	lea    -0x1354(%rbp),%rax
   15afc:	48 89 85 a0 f3 ff ff 	mov    %rax,-0xc60(%rbp)
   15b03:	48 8d 05 7e 75 00 00 	lea    0x757e(%rip),%rax        # 1d088 <g_118>
   15b0a:	48 89 85 a8 f3 ff ff 	mov    %rax,-0xc58(%rbp)
   15b11:	48 8d 85 bc ec ff ff 	lea    -0x1344(%rbp),%rax
   15b18:	48 89 85 b0 f3 ff ff 	mov    %rax,-0xc50(%rbp)
   15b1f:	48 c7 85 b8 f3 ff ff 	movq   $0x0,-0xc48(%rbp)
   15b26:	00 00 00 00 
   15b2a:	48 c7 85 c0 f3 ff ff 	movq   $0x0,-0xc40(%rbp)
   15b31:	00 00 00 00 
   15b35:	48 c7 85 c8 f3 ff ff 	movq   $0x0,-0xc38(%rbp)
   15b3c:	00 00 00 00 
   15b40:	48 8d 85 b0 ec ff ff 	lea    -0x1350(%rbp),%rax
   15b47:	48 89 85 d0 f3 ff ff 	mov    %rax,-0xc30(%rbp)
   15b4e:	48 8d 05 33 75 00 00 	lea    0x7533(%rip),%rax        # 1d088 <g_118>
   15b55:	48 89 85 d8 f3 ff ff 	mov    %rax,-0xc28(%rbp)
   15b5c:	48 8d 85 a4 ec ff ff 	lea    -0x135c(%rbp),%rax
   15b63:	48 89 85 e0 f3 ff ff 	mov    %rax,-0xc20(%rbp)
   15b6a:	48 8d 85 a4 ec ff ff 	lea    -0x135c(%rbp),%rax
   15b71:	48 89 85 e8 f3 ff ff 	mov    %rax,-0xc18(%rbp)
   15b78:	48 8d 05 09 75 00 00 	lea    0x7509(%rip),%rax        # 1d088 <g_118>
   15b7f:	48 89 85 f0 f3 ff ff 	mov    %rax,-0xc10(%rbp)
   15b86:	48 8d 85 b0 ec ff ff 	lea    -0x1350(%rbp),%rax
   15b8d:	48 89 85 f8 f3 ff ff 	mov    %rax,-0xc08(%rbp)
   15b94:	48 c7 85 00 f4 ff ff 	movq   $0x0,-0xc00(%rbp)
   15b9b:	00 00 00 00 
   15b9f:	48 c7 85 08 f4 ff ff 	movq   $0x0,-0xbf8(%rbp)
   15ba6:	00 00 00 00 
   15baa:	48 8d 85 ac ec ff ff 	lea    -0x1354(%rbp),%rax
   15bb1:	48 89 85 10 f4 ff ff 	mov    %rax,-0xbf0(%rbp)
   15bb8:	48 8d 05 c9 74 00 00 	lea    0x74c9(%rip),%rax        # 1d088 <g_118>
   15bbf:	48 89 85 18 f4 ff ff 	mov    %rax,-0xbe8(%rbp)
   15bc6:	48 8d 85 bc ec ff ff 	lea    -0x1344(%rbp),%rax
   15bcd:	48 89 85 20 f4 ff ff 	mov    %rax,-0xbe0(%rbp)
   15bd4:	48 c7 85 28 f4 ff ff 	movq   $0x0,-0xbd8(%rbp)
   15bdb:	00 00 00 00 
   15bdf:	48 c7 85 30 f4 ff ff 	movq   $0x0,-0xbd0(%rbp)
   15be6:	00 00 00 00 
   15bea:	48 c7 85 38 f4 ff ff 	movq   $0x0,-0xbc8(%rbp)
   15bf1:	00 00 00 00 
   15bf5:	48 8d 85 b0 ec ff ff 	lea    -0x1350(%rbp),%rax
   15bfc:	48 89 85 40 f4 ff ff 	mov    %rax,-0xbc0(%rbp)
   15c03:	48 8d 05 7e 74 00 00 	lea    0x747e(%rip),%rax        # 1d088 <g_118>
   15c0a:	48 89 85 48 f4 ff ff 	mov    %rax,-0xbb8(%rbp)
   15c11:	48 8d 85 a4 ec ff ff 	lea    -0x135c(%rbp),%rax
   15c18:	48 89 85 50 f4 ff ff 	mov    %rax,-0xbb0(%rbp)
   15c1f:	48 8d 85 a4 ec ff ff 	lea    -0x135c(%rbp),%rax
   15c26:	48 89 85 58 f4 ff ff 	mov    %rax,-0xba8(%rbp)
   15c2d:	48 8d 05 54 74 00 00 	lea    0x7454(%rip),%rax        # 1d088 <g_118>
   15c34:	48 89 85 60 f4 ff ff 	mov    %rax,-0xba0(%rbp)
   15c3b:	48 8d 85 b0 ec ff ff 	lea    -0x1350(%rbp),%rax
   15c42:	48 89 85 68 f4 ff ff 	mov    %rax,-0xb98(%rbp)
   15c49:	c7 05 5d 76 00 00 00 	movl   $0x0,0x765d(%rip)        # 1d2b0 <g_509>
   15c50:	00 00 00 
   15c53:	eb 67                	jmp    15cbc <func_78+0x2163>
   15c55:	48 c7 05 30 74 00 00 	movq   $0x0,0x7430(%rip)        # 1d090 <g_123>
   15c5c:	00 00 00 00 
   15c60:	eb 2f                	jmp    15c91 <func_78+0x2138>
   15c62:	48 8b 85 88 ed ff ff 	mov    -0x1278(%rbp),%rax
   15c69:	48 8b 00             	mov    (%rax),%rax
   15c6c:	8b 00                	mov    (%rax),%eax
   15c6e:	85 c0                	test   %eax,%eax
   15c70:	75 2e                	jne    15ca0 <func_78+0x2147>
   15c72:	48 8b 85 c0 ed ff ff 	mov    -0x1240(%rbp),%rax
   15c79:	8b 00                	mov    (%rax),%eax
   15c7b:	85 c0                	test   %eax,%eax
   15c7d:	75 24                	jne    15ca3 <func_78+0x214a>
   15c7f:	48 8b 05 0a 74 00 00 	mov    0x740a(%rip),%rax        # 1d090 <g_123>
   15c86:	48 83 c0 01          	add    $0x1,%rax
   15c8a:	48 89 05 ff 73 00 00 	mov    %rax,0x73ff(%rip)        # 1d090 <g_123>
   15c91:	48 8b 05 f8 73 00 00 	mov    0x73f8(%rip),%rax        # 1d090 <g_123>
   15c98:	48 83 f8 14          	cmp    $0x14,%rax
   15c9c:	7e c4                	jle    15c62 <func_78+0x2109>
   15c9e:	eb 04                	jmp    15ca4 <func_78+0x214b>
   15ca0:	90                   	nop
   15ca1:	eb 01                	jmp    15ca4 <func_78+0x214b>
   15ca3:	90                   	nop
   15ca4:	8b 05 06 76 00 00    	mov    0x7606(%rip),%eax        # 1d2b0 <g_509>
   15caa:	be 08 00 00 00       	mov    $0x8,%esi
   15caf:	89 c7                	mov    %eax,%edi
   15cb1:	e8 02 52 ff ff       	callq  aeb8 <safe_add_func_uint32_t_u_u>
   15cb6:	89 05 f4 75 00 00    	mov    %eax,0x75f4(%rip)        # 1d2b0 <g_509>
   15cbc:	8b 05 ee 75 00 00    	mov    0x75ee(%rip),%eax        # 1d2b0 <g_509>
   15cc2:	83 f8 30             	cmp    $0x30,%eax
   15cc5:	75 8e                	jne    15c55 <func_78+0x20fc>
   15cc7:	48 8b 05 7a 99 00 00 	mov    0x997a(%rip),%rax        # 1f648 <g_151>
   15cce:	48 8b 00             	mov    (%rax),%rax
   15cd1:	8b 00                	mov    (%rax),%eax
   15cd3:	48 8d 85 08 ed ff ff 	lea    -0x12f8(%rbp),%rax
   15cda:	48 39 85 18 ee ff ff 	cmp    %rax,-0x11e8(%rbp)
   15ce1:	0f 95 c0             	setne  %al
   15ce4:	0f b6 c0             	movzbl %al,%eax
   15ce7:	48 23 85 80 ec ff ff 	and    -0x1380(%rbp),%rax
   15cee:	48 89 c2             	mov    %rax,%rdx
   15cf1:	48 8b 85 c0 ed ff ff 	mov    -0x1240(%rbp),%rax
   15cf8:	8b 00                	mov    (%rax),%eax
   15cfa:	09 c2                	or     %eax,%edx
   15cfc:	48 8b 85 c0 ed ff ff 	mov    -0x1240(%rbp),%rax
   15d03:	89 10                	mov    %edx,(%rax)
   15d05:	83 ad c4 ec ff ff 01 	subl   $0x1,-0x133c(%rbp)
   15d0c:	83 ad c0 ec ff ff 01 	subl   $0x1,-0x1340(%rbp)
   15d13:	83 bd c0 ec ff ff f9 	cmpl   $0xfffffff9,-0x1340(%rbp)
   15d1a:	0f 8c e0 fb ff ff    	jl     15900 <func_78+0x1da7>
   15d20:	66 83 ad 96 ec ff ff 	subw   $0x1,-0x136a(%rbp)
   15d27:	01 
   15d28:	48 8b 85 88 ed ff ff 	mov    -0x1278(%rbp),%rax
   15d2f:	48 8b 00             	mov    (%rax),%rax
   15d32:	8b 00                	mov    (%rax),%eax
   15d34:	48 8b 5d c8          	mov    -0x38(%rbp),%rbx
   15d38:	64 48 33 1c 25 28 00 	xor    %fs:0x28,%rbx
   15d3f:	00 00 
   15d41:	74 05                	je     15d48 <func_78+0x21ef>
   15d43:	e8 28 43 ff ff       	callq  a070 <__stack_chk_fail@plt>
   15d48:	48 81 c4 68 13 00 00 	add    $0x1368,%rsp
   15d4f:	5b                   	pop    %rbx
   15d50:	41 5c                	pop    %r12
   15d52:	41 5d                	pop    %r13
   15d54:	41 5e                	pop    %r14
   15d56:	41 5f                	pop    %r15
   15d58:	5d                   	pop    %rbp
   15d59:	c3                   	retq   

0000000000015d5a <func_86>:
   15d5a:	f3 0f 1e fa          	endbr64 
   15d5e:	55                   	push   %rbp
   15d5f:	48 89 e5             	mov    %rsp,%rbp
   15d62:	41 57                	push   %r15
   15d64:	41 56                	push   %r14
   15d66:	41 55                	push   %r13
   15d68:	41 54                	push   %r12
   15d6a:	53                   	push   %rbx
   15d6b:	48 81 ec 18 03 00 00 	sub    $0x318,%rsp
   15d72:	89 f9                	mov    %edi,%ecx
   15d74:	89 b5 c8 fc ff ff    	mov    %esi,-0x338(%rbp)
   15d7a:	89 d0                	mov    %edx,%eax
   15d7c:	89 ca                	mov    %ecx,%edx
   15d7e:	88 95 cc fc ff ff    	mov    %dl,-0x334(%rbp)
   15d84:	66 89 85 c4 fc ff ff 	mov    %ax,-0x33c(%rbp)
   15d8b:	64 48 8b 04 25 28 00 	mov    %fs:0x28,%rax
   15d92:	00 00 
   15d94:	48 89 45 c8          	mov    %rax,-0x38(%rbp)
   15d98:	31 c0                	xor    %eax,%eax
   15d9a:	c6 85 dd fc ff ff 01 	movb   $0x1,-0x323(%rbp)
   15da1:	48 8d 05 48 73 00 00 	lea    0x7348(%rip),%rax        # 1d0f0 <g_150>
   15da8:	48 89 85 e8 fc ff ff 	mov    %rax,-0x318(%rbp)
   15daf:	48 8d 85 e8 fc ff ff 	lea    -0x318(%rbp),%rax
   15db6:	48 89 85 a0 fd ff ff 	mov    %rax,-0x260(%rbp)
   15dbd:	48 8d 85 e8 fc ff ff 	lea    -0x318(%rbp),%rax
   15dc4:	48 89 85 a8 fd ff ff 	mov    %rax,-0x258(%rbp)
   15dcb:	48 8d 85 e8 fc ff ff 	lea    -0x318(%rbp),%rax
   15dd2:	48 89 85 b0 fd ff ff 	mov    %rax,-0x250(%rbp)
   15dd9:	48 8d 85 e8 fc ff ff 	lea    -0x318(%rbp),%rax
   15de0:	48 89 85 b8 fd ff ff 	mov    %rax,-0x248(%rbp)
   15de7:	48 8d 85 e8 fc ff ff 	lea    -0x318(%rbp),%rax
   15dee:	48 89 85 c0 fd ff ff 	mov    %rax,-0x240(%rbp)
   15df5:	48 8d 85 e8 fc ff ff 	lea    -0x318(%rbp),%rax
   15dfc:	48 89 85 c8 fd ff ff 	mov    %rax,-0x238(%rbp)
   15e03:	48 8d 85 e8 fc ff ff 	lea    -0x318(%rbp),%rax
   15e0a:	48 89 85 d0 fd ff ff 	mov    %rax,-0x230(%rbp)
   15e11:	48 8d 85 e8 fc ff ff 	lea    -0x318(%rbp),%rax
   15e18:	48 89 85 d8 fd ff ff 	mov    %rax,-0x228(%rbp)
   15e1f:	48 8d 85 e8 fc ff ff 	lea    -0x318(%rbp),%rax
   15e26:	48 89 85 e0 fd ff ff 	mov    %rax,-0x220(%rbp)
   15e2d:	48 8d 85 e8 fc ff ff 	lea    -0x318(%rbp),%rax
   15e34:	48 89 85 e8 fd ff ff 	mov    %rax,-0x218(%rbp)
   15e3b:	48 8d 85 e8 fc ff ff 	lea    -0x318(%rbp),%rax
   15e42:	48 89 85 f0 fd ff ff 	mov    %rax,-0x210(%rbp)
   15e49:	48 8d 85 e8 fc ff ff 	lea    -0x318(%rbp),%rax
   15e50:	48 89 85 f8 fd ff ff 	mov    %rax,-0x208(%rbp)
   15e57:	48 8d 85 e8 fc ff ff 	lea    -0x318(%rbp),%rax
   15e5e:	48 89 85 00 fe ff ff 	mov    %rax,-0x200(%rbp)
   15e65:	48 8d 85 e8 fc ff ff 	lea    -0x318(%rbp),%rax
   15e6c:	48 89 85 08 fe ff ff 	mov    %rax,-0x1f8(%rbp)
   15e73:	48 8d 85 e8 fc ff ff 	lea    -0x318(%rbp),%rax
   15e7a:	48 89 85 10 fe ff ff 	mov    %rax,-0x1f0(%rbp)
   15e81:	48 8d 05 78 72 00 00 	lea    0x7278(%rip),%rax        # 1d100 <g_159>
   15e88:	48 89 85 a0 fe ff ff 	mov    %rax,-0x160(%rbp)
   15e8f:	48 8d 05 6a 72 00 00 	lea    0x726a(%rip),%rax        # 1d100 <g_159>
   15e96:	48 89 85 a8 fe ff ff 	mov    %rax,-0x158(%rbp)
   15e9d:	48 8d 05 60 72 00 00 	lea    0x7260(%rip),%rax        # 1d104 <g_159+0x4>
   15ea4:	48 89 85 b0 fe ff ff 	mov    %rax,-0x150(%rbp)
   15eab:	48 c7 85 b8 fe ff ff 	movq   $0x0,-0x148(%rbp)
   15eb2:	00 00 00 00 
   15eb6:	48 8d 05 47 72 00 00 	lea    0x7247(%rip),%rax        # 1d104 <g_159+0x4>
   15ebd:	48 89 85 c0 fe ff ff 	mov    %rax,-0x140(%rbp)
   15ec4:	48 8d 05 35 72 00 00 	lea    0x7235(%rip),%rax        # 1d100 <g_159>
   15ecb:	48 89 85 c8 fe ff ff 	mov    %rax,-0x138(%rbp)
   15ed2:	48 8d 05 2b 72 00 00 	lea    0x722b(%rip),%rax        # 1d104 <g_159+0x4>
   15ed9:	48 89 85 d0 fe ff ff 	mov    %rax,-0x130(%rbp)
   15ee0:	48 8d 05 1b 72 00 00 	lea    0x721b(%rip),%rax        # 1d102 <g_159+0x2>
   15ee7:	48 89 85 d8 fe ff ff 	mov    %rax,-0x128(%rbp)
   15eee:	48 8d 05 0f 72 00 00 	lea    0x720f(%rip),%rax        # 1d104 <g_159+0x4>
   15ef5:	48 89 85 e0 fe ff ff 	mov    %rax,-0x120(%rbp)
   15efc:	48 c7 85 e8 fe ff ff 	movq   $0x0,-0x118(%rbp)
   15f03:	00 00 00 00 
   15f07:	48 c7 85 f0 fe ff ff 	movq   $0x0,-0x110(%rbp)
   15f0e:	00 00 00 00 
   15f12:	48 8d 05 eb 71 00 00 	lea    0x71eb(%rip),%rax        # 1d104 <g_159+0x4>
   15f19:	48 89 85 f8 fe ff ff 	mov    %rax,-0x108(%rbp)
   15f20:	48 8d 05 dd 71 00 00 	lea    0x71dd(%rip),%rax        # 1d104 <g_159+0x4>
   15f27:	48 89 85 00 ff ff ff 	mov    %rax,-0x100(%rbp)
   15f2e:	48 8d 05 cf 71 00 00 	lea    0x71cf(%rip),%rax        # 1d104 <g_159+0x4>
   15f35:	48 89 85 08 ff ff ff 	mov    %rax,-0xf8(%rbp)
   15f3c:	48 c7 85 10 ff ff ff 	movq   $0x0,-0xf0(%rbp)
   15f43:	00 00 00 00 
   15f47:	48 c7 85 18 ff ff ff 	movq   $0x0,-0xe8(%rbp)
   15f4e:	00 00 00 00 
   15f52:	48 c7 85 20 ff ff ff 	movq   $0x0,-0xe0(%rbp)
   15f59:	00 00 00 00 
   15f5d:	48 c7 85 28 ff ff ff 	movq   $0x0,-0xd8(%rbp)
   15f64:	00 00 00 00 
   15f68:	c7 85 30 ff ff ff fc 	movl   $0xfffffffc,-0xd0(%rbp)
   15f6f:	ff ff ff 
   15f72:	c7 85 34 ff ff ff fc 	movl   $0xfffffffc,-0xcc(%rbp)
   15f79:	ff ff ff 
   15f7c:	c7 85 38 ff ff ff 7b 	movl   $0xe981b57b,-0xc8(%rbp)
   15f83:	b5 81 e9 
   15f86:	c7 85 3c ff ff ff 7b 	movl   $0xe981b57b,-0xc4(%rbp)
   15f8d:	b5 81 e9 
   15f90:	c7 85 40 ff ff ff fc 	movl   $0xfffffffc,-0xc0(%rbp)
   15f97:	ff ff ff 
   15f9a:	c7 85 44 ff ff ff fc 	movl   $0xfffffffc,-0xbc(%rbp)
   15fa1:	ff ff ff 
   15fa4:	c7 85 48 ff ff ff 7b 	movl   $0xe981b57b,-0xb8(%rbp)
   15fab:	b5 81 e9 
   15fae:	c7 85 4c ff ff ff 7b 	movl   $0xe981b57b,-0xb4(%rbp)
   15fb5:	b5 81 e9 
   15fb8:	c7 85 50 ff ff ff fc 	movl   $0xfffffffc,-0xb0(%rbp)
   15fbf:	ff ff ff 
   15fc2:	c7 85 54 ff ff ff 00 	movl   $0x0,-0xac(%rbp)
   15fc9:	00 00 00 
   15fcc:	c7 85 58 ff ff ff f7 	movl   $0xfffffff7,-0xa8(%rbp)
   15fd3:	ff ff ff 
   15fd6:	c7 85 5c ff ff ff 00 	movl   $0x0,-0xa4(%rbp)
   15fdd:	00 00 00 
   15fe0:	c7 85 60 ff ff ff f7 	movl   $0xfffffff7,-0xa0(%rbp)
   15fe7:	ff ff ff 
   15fea:	c7 85 64 ff ff ff 00 	movl   $0x0,-0x9c(%rbp)
   15ff1:	00 00 00 
   15ff4:	c7 85 68 ff ff ff f7 	movl   $0xfffffff7,-0x98(%rbp)
   15ffb:	ff ff ff 
   15ffe:	c7 85 6c ff ff ff 00 	movl   $0x0,-0x94(%rbp)
   16005:	00 00 00 
   16008:	c7 85 70 ff ff ff f7 	movl   $0xfffffff7,-0x90(%rbp)
   1600f:	ff ff ff 
   16012:	c7 85 74 ff ff ff 00 	movl   $0x0,-0x8c(%rbp)
   16019:	00 00 00 
   1601c:	c7 85 78 ff ff ff fc 	movl   $0xfffffffc,-0x88(%rbp)
   16023:	ff ff ff 
   16026:	c7 85 7c ff ff ff 7b 	movl   $0xe981b57b,-0x84(%rbp)
   1602d:	b5 81 e9 
   16030:	c7 45 80 7b b5 81 e9 	movl   $0xe981b57b,-0x80(%rbp)
   16037:	c7 45 84 fc ff ff ff 	movl   $0xfffffffc,-0x7c(%rbp)
   1603e:	c7 45 88 fc ff ff ff 	movl   $0xfffffffc,-0x78(%rbp)
   16045:	c7 45 8c 7b b5 81 e9 	movl   $0xe981b57b,-0x74(%rbp)
   1604c:	c7 45 90 7b b5 81 e9 	movl   $0xe981b57b,-0x70(%rbp)
   16053:	c7 45 94 fc ff ff ff 	movl   $0xfffffffc,-0x6c(%rbp)
   1605a:	c7 45 98 fc ff ff ff 	movl   $0xfffffffc,-0x68(%rbp)
   16061:	c7 45 9c ff ff ff ff 	movl   $0xffffffff,-0x64(%rbp)
   16068:	c7 45 a0 f7 ff ff ff 	movl   $0xfffffff7,-0x60(%rbp)
   1606f:	c7 45 a4 ff ff ff ff 	movl   $0xffffffff,-0x5c(%rbp)
   16076:	c7 45 a8 f7 ff ff ff 	movl   $0xfffffff7,-0x58(%rbp)
   1607d:	c7 45 ac ff ff ff ff 	movl   $0xffffffff,-0x54(%rbp)
   16084:	c7 45 b0 f7 ff ff ff 	movl   $0xfffffff7,-0x50(%rbp)
   1608b:	c7 45 b4 ff ff ff ff 	movl   $0xffffffff,-0x4c(%rbp)
   16092:	c7 45 b8 f7 ff ff ff 	movl   $0xfffffff7,-0x48(%rbp)
   16099:	c7 45 bc ff ff ff ff 	movl   $0xffffffff,-0x44(%rbp)
   160a0:	48 8d 05 a5 6f 00 00 	lea    0x6fa5(%rip),%rax        # 1d04c <g_85>
   160a7:	48 89 85 f8 fc ff ff 	mov    %rax,-0x308(%rbp)
   160ae:	48 8d 05 97 6f 00 00 	lea    0x6f97(%rip),%rax        # 1d04c <g_85>
   160b5:	48 89 85 00 fd ff ff 	mov    %rax,-0x300(%rbp)
   160bc:	48 8d 05 2d 70 00 00 	lea    0x702d(%rip),%rax        # 1d0f0 <g_150>
   160c3:	48 89 85 08 fd ff ff 	mov    %rax,-0x2f8(%rbp)
   160ca:	48 c7 85 20 fe ff ff 	movq   $0x0,-0x1e0(%rbp)
   160d1:	00 00 00 00 
   160d5:	48 8d 05 2c 70 00 00 	lea    0x702c(%rip),%rax        # 1d108 <g_165>
   160dc:	48 89 85 28 fe ff ff 	mov    %rax,-0x1d8(%rbp)
   160e3:	48 8d 05 1e 70 00 00 	lea    0x701e(%rip),%rax        # 1d108 <g_165>
   160ea:	48 89 85 30 fe ff ff 	mov    %rax,-0x1d0(%rbp)
   160f1:	48 c7 85 38 fe ff ff 	movq   $0x0,-0x1c8(%rbp)
   160f8:	00 00 00 00 
   160fc:	48 8d 05 05 70 00 00 	lea    0x7005(%rip),%rax        # 1d108 <g_165>
   16103:	48 89 85 40 fe ff ff 	mov    %rax,-0x1c0(%rbp)
   1610a:	48 c7 85 48 fe ff ff 	movq   $0x0,-0x1b8(%rbp)
   16111:	00 00 00 00 
   16115:	48 8d 05 ec 6f 00 00 	lea    0x6fec(%rip),%rax        # 1d108 <g_165>
   1611c:	48 89 85 50 fe ff ff 	mov    %rax,-0x1b0(%rbp)
   16123:	48 8d 05 de 6f 00 00 	lea    0x6fde(%rip),%rax        # 1d108 <g_165>
   1612a:	48 89 85 58 fe ff ff 	mov    %rax,-0x1a8(%rbp)
   16131:	48 8d 05 d0 6f 00 00 	lea    0x6fd0(%rip),%rax        # 1d108 <g_165>
   16138:	48 89 85 60 fe ff ff 	mov    %rax,-0x1a0(%rbp)
   1613f:	48 8d 05 c2 6f 00 00 	lea    0x6fc2(%rip),%rax        # 1d108 <g_165>
   16146:	48 89 85 68 fe ff ff 	mov    %rax,-0x198(%rbp)
   1614d:	48 8d 05 b4 6f 00 00 	lea    0x6fb4(%rip),%rax        # 1d108 <g_165>
   16154:	48 89 85 70 fe ff ff 	mov    %rax,-0x190(%rbp)
   1615b:	48 8d 05 a6 6f 00 00 	lea    0x6fa6(%rip),%rax        # 1d108 <g_165>
   16162:	48 89 85 78 fe ff ff 	mov    %rax,-0x188(%rbp)
   16169:	48 8d 05 98 6f 00 00 	lea    0x6f98(%rip),%rax        # 1d108 <g_165>
   16170:	48 89 85 80 fe ff ff 	mov    %rax,-0x180(%rbp)
   16177:	48 8d 05 8a 6f 00 00 	lea    0x6f8a(%rip),%rax        # 1d108 <g_165>
   1617e:	48 89 85 88 fe ff ff 	mov    %rax,-0x178(%rbp)
   16185:	48 8d 05 7c 6f 00 00 	lea    0x6f7c(%rip),%rax        # 1d108 <g_165>
   1618c:	48 89 85 90 fe ff ff 	mov    %rax,-0x170(%rbp)
   16193:	48 8d 05 6e 6f 00 00 	lea    0x6f6e(%rip),%rax        # 1d108 <g_165>
   1619a:	48 89 85 98 fe ff ff 	mov    %rax,-0x168(%rbp)
   161a1:	c7 85 e0 fc ff ff 07 	movl   $0x7,-0x320(%rbp)
   161a8:	00 00 00 
   161ab:	c7 85 e4 fc ff ff a6 	movl   $0x508ea8a6,-0x31c(%rbp)
   161b2:	a8 8e 50 
   161b5:	48 c7 85 50 fd ff ff 	movq   $0xfffffffffffffff6,-0x2b0(%rbp)
   161bc:	f6 ff ff ff 
   161c0:	48 c7 85 58 fd ff ff 	movq   $0xfffffffffffffff6,-0x2a8(%rbp)
   161c7:	f6 ff ff ff 
   161cb:	48 c7 85 60 fd ff ff 	movq   $0x1,-0x2a0(%rbp)
   161d2:	01 00 00 00 
   161d6:	48 c7 85 68 fd ff ff 	movq   $0xfffffffffffffff6,-0x298(%rbp)
   161dd:	f6 ff ff ff 
   161e1:	48 c7 85 70 fd ff ff 	movq   $0xfffffffffffffff6,-0x290(%rbp)
   161e8:	f6 ff ff ff 
   161ec:	48 c7 85 78 fd ff ff 	movq   $0x1,-0x288(%rbp)
   161f3:	01 00 00 00 
   161f7:	48 c7 85 80 fd ff ff 	movq   $0xfffffffffffffff6,-0x280(%rbp)
   161fe:	f6 ff ff ff 
   16202:	48 c7 85 88 fd ff ff 	movq   $0xfffffffffffffff6,-0x278(%rbp)
   16209:	f6 ff ff ff 
   1620d:	48 c7 85 90 fd ff ff 	movq   $0x1,-0x270(%rbp)
   16214:	01 00 00 00 
   16218:	48 c7 85 98 fd ff ff 	movq   $0xfffffffffffffff6,-0x268(%rbp)
   1621f:	f6 ff ff ff 
   16223:	48 c7 85 10 fd ff ff 	movq   $0x0,-0x2f0(%rbp)
   1622a:	00 00 00 00 
   1622e:	48 8d 85 e0 fc ff ff 	lea    -0x320(%rbp),%rax
   16235:	48 89 85 20 fd ff ff 	mov    %rax,-0x2e0(%rbp)
   1623c:	48 8d 85 e0 fc ff ff 	lea    -0x320(%rbp),%rax
   16243:	48 89 85 28 fd ff ff 	mov    %rax,-0x2d8(%rbp)
   1624a:	48 8d 85 e0 fc ff ff 	lea    -0x320(%rbp),%rax
   16251:	48 89 85 30 fd ff ff 	mov    %rax,-0x2d0(%rbp)
   16258:	48 8d 85 e0 fc ff ff 	lea    -0x320(%rbp),%rax
   1625f:	48 89 85 38 fd ff ff 	mov    %rax,-0x2c8(%rbp)
   16266:	48 8d 85 e0 fc ff ff 	lea    -0x320(%rbp),%rax
   1626d:	48 89 85 40 fd ff ff 	mov    %rax,-0x2c0(%rbp)
   16274:	66 c7 85 de fc ff ff 	movw   $0x7284,-0x322(%rbp)
   1627b:	84 72 
   1627d:	48 c7 85 18 fd ff ff 	movq   $0x4,-0x2e8(%rbp)
   16284:	04 00 00 00 
   16288:	48 c7 85 f0 fc ff ff 	movq   $0xffffffffffffffff,-0x310(%rbp)
   1628f:	ff ff ff ff 
   16293:	48 8b 85 78 fd ff ff 	mov    -0x288(%rbp),%rax
   1629a:	89 85 c0 fc ff ff    	mov    %eax,-0x340(%rbp)
   162a0:	0f b6 9d dd fc ff ff 	movzbl -0x323(%rbp),%ebx
   162a7:	0f b7 05 d6 6d 00 00 	movzwl 0x6dd6(%rip),%eax        # 1d084 <g_115+0xc>
   162ae:	44 0f b7 e0          	movzwl %ax,%r12d
   162b2:	0f b6 95 dd fc ff ff 	movzbl -0x323(%rbp),%edx
   162b9:	48 8b 05 08 6e 00 00 	mov    0x6e08(%rip),%rax        # 1d0c8 <g_125+0x28>
   162c0:	0f b7 c0             	movzwl %ax,%eax
   162c3:	89 d6                	mov    %edx,%esi
   162c5:	89 c7                	mov    %eax,%edi
   162c7:	e8 3a 4b ff ff       	callq  ae06 <safe_lshift_func_uint16_t_u_u>
   162cc:	44 0f b7 f8          	movzwl %ax,%r15d
   162d0:	44 0f b6 ad dd fc ff 	movzbl -0x323(%rbp),%r13d
   162d7:	ff 
   162d8:	44 0f b7 b5 c4 fc ff 	movzwl -0x33c(%rbp),%r14d
   162df:	ff 
   162e0:	0f b7 05 93 6d 00 00 	movzwl 0x6d93(%rip),%eax        # 1d07a <g_115+0x2>
   162e7:	48 0f bf d0          	movswq %ax,%rdx
   162eb:	c7 85 48 ff ff ff 00 	movl   $0x0,-0xb8(%rbp)
   162f2:	00 00 00 
   162f5:	48 8b 85 f8 fc ff ff 	mov    -0x308(%rbp),%rax
   162fc:	48 3b 85 00 fd ff ff 	cmp    -0x300(%rbp),%rax
   16303:	0f 95 c0             	setne  %al
   16306:	0f b6 c0             	movzbl %al,%eax
   16309:	48 89 d6             	mov    %rdx,%rsi
   1630c:	48 89 c7             	mov    %rax,%rdi
   1630f:	e8 1a 4d ff ff       	callq  b02e <safe_add_func_uint64_t_u_u>
   16314:	89 c2                	mov    %eax,%edx
   16316:	48 8b 85 08 fd ff ff 	mov    -0x2f8(%rbp),%rax
   1631d:	88 10                	mov    %dl,(%rax)
   1631f:	48 8b 85 08 fd ff ff 	mov    -0x2f8(%rbp),%rax
   16326:	0f b6 00             	movzbl (%rax),%eax
   16329:	0f be d0             	movsbl %al,%edx
   1632c:	0f b6 85 dd fc ff ff 	movzbl -0x323(%rbp),%eax
   16333:	39 c2                	cmp    %eax,%edx
   16335:	74 12                	je     16349 <func_86+0x5ef>
   16337:	0f b6 05 b2 6d 00 00 	movzbl 0x6db2(%rip),%eax        # 1d0f0 <g_150>
   1633e:	84 c0                	test   %al,%al
   16340:	74 07                	je     16349 <func_86+0x5ef>
   16342:	b8 01 00 00 00       	mov    $0x1,%eax
   16347:	eb 05                	jmp    1634e <func_86+0x5f4>
   16349:	b8 00 00 00 00       	mov    $0x0,%eax
   1634e:	44 89 f6             	mov    %r14d,%esi
   16351:	89 c7                	mov    %eax,%edi
   16353:	e8 78 4b ff ff       	callq  aed0 <safe_sub_func_uint32_t_u_u>
   16358:	be 01 00 00 00       	mov    $0x1,%esi
   1635d:	bf 01 00 00 00       	mov    $0x1,%edi
   16362:	e8 27 4a ff ff       	callq  ad8e <safe_div_func_uint16_t_u_u>
   16367:	0f b7 c0             	movzwl %ax,%eax
   1636a:	44 89 ee             	mov    %r13d,%esi
   1636d:	89 c7                	mov    %eax,%edi
   1636f:	e8 8b 43 ff ff       	callq  a6ff <safe_div_func_int32_t_s_s>
   16374:	b8 74 34 00 00       	mov    $0x3474,%eax
   16379:	89 c2                	mov    %eax,%edx
   1637b:	0f b7 05 86 6d 00 00 	movzwl 0x6d86(%rip),%eax        # 1d108 <g_165>
   16382:	21 d0                	and    %edx,%eax
   16384:	66 89 05 7d 6d 00 00 	mov    %ax,0x6d7d(%rip)        # 1d108 <g_165>
   1638b:	0f b7 05 76 6d 00 00 	movzwl 0x6d76(%rip),%eax        # 1d108 <g_165>
   16392:	0f b7 c0             	movzwl %ax,%eax
   16395:	89 85 e0 fc ff ff    	mov    %eax,-0x320(%rbp)
   1639b:	8b 85 e0 fc ff ff    	mov    -0x320(%rbp),%eax
   163a1:	89 05 65 6d 00 00    	mov    %eax,0x6d65(%rip)        # 1d10c <g_167>
   163a7:	8b 05 5f 6d 00 00    	mov    0x6d5f(%rip),%eax        # 1d10c <g_167>
   163ad:	41 39 c7             	cmp    %eax,%r15d
   163b0:	0f 95 c0             	setne  %al
   163b3:	0f b6 c0             	movzbl %al,%eax
   163b6:	44 89 e6             	mov    %r12d,%esi
   163b9:	89 c7                	mov    %eax,%edi
   163bb:	e8 ce 49 ff ff       	callq  ad8e <safe_div_func_uint16_t_u_u>
   163c0:	0f b7 c0             	movzwl %ax,%eax
   163c3:	21 85 e4 fc ff ff    	and    %eax,-0x31c(%rbp)
   163c9:	8b 85 e4 fc ff ff    	mov    -0x31c(%rbp),%eax
   163cf:	48 98                	cltq   
   163d1:	48 89 c7             	mov    %rax,%rdi
   163d4:	e8 64 04 00 00       	callq  1683d <func_134>
   163d9:	48 89 c2             	mov    %rax,%rdx
   163dc:	8b 05 52 6c 00 00    	mov    0x6c52(%rip),%eax        # 1d034 <g_21>
   163e2:	89 c6                	mov    %eax,%esi
   163e4:	0f b7 85 c4 fc ff ff 	movzwl -0x33c(%rbp),%eax
   163eb:	0f b6 c0             	movzbl %al,%eax
   163ee:	44 8b 85 c0 fc ff ff 	mov    -0x340(%rbp),%r8d
   163f5:	89 d9                	mov    %ebx,%ecx
   163f7:	89 c7                	mov    %eax,%edi
   163f9:	e8 db 02 00 00       	callq  166d9 <func_128>
   163fe:	48 89 85 10 fd ff ff 	mov    %rax,-0x2f0(%rbp)
   16405:	48 8b 05 54 92 00 00 	mov    0x9254(%rip),%rax        # 1f660 <g_220>
   1640c:	48 8d 95 e0 fc ff ff 	lea    -0x320(%rbp),%rdx
   16413:	48 89 10             	mov    %rdx,(%rax)
   16416:	66 83 ad de fc ff ff 	subw   $0x1,-0x322(%rbp)
   1641d:	01 
   1641e:	48 83 ad 18 fd ff ff 	subq   $0x1,-0x2e8(%rbp)
   16425:	01 
   16426:	48 8b 85 f0 fc ff ff 	mov    -0x310(%rbp),%rax
   1642d:	48 8b 5d c8          	mov    -0x38(%rbp),%rbx
   16431:	64 48 33 1c 25 28 00 	xor    %fs:0x28,%rbx
   16438:	00 00 
   1643a:	74 05                	je     16441 <func_86+0x6e7>
   1643c:	e8 2f 3c ff ff       	callq  a070 <__stack_chk_fail@plt>
   16441:	48 81 c4 18 03 00 00 	add    $0x318,%rsp
   16448:	5b                   	pop    %rbx
   16449:	41 5c                	pop    %r12
   1644b:	41 5d                	pop    %r13
   1644d:	41 5e                	pop    %r14
   1644f:	41 5f                	pop    %r15
   16451:	5d                   	pop    %rbp
   16452:	c3                   	retq   

0000000000016453 <func_95>:
   16453:	f3 0f 1e fa          	endbr64 
   16457:	55                   	push   %rbp
   16458:	48 89 e5             	mov    %rsp,%rbp
   1645b:	48 81 ec 80 01 00 00 	sub    $0x180,%rsp
   16462:	89 f8                	mov    %edi,%eax
   16464:	48 89 b5 80 fe ff ff 	mov    %rsi,-0x180(%rbp)
   1646b:	89 95 88 fe ff ff    	mov    %edx,-0x178(%rbp)
   16471:	66 89 85 8c fe ff ff 	mov    %ax,-0x174(%rbp)
   16478:	64 48 8b 04 25 28 00 	mov    %fs:0x28,%rax
   1647f:	00 00 
   16481:	48 89 45 f8          	mov    %rax,-0x8(%rbp)
   16485:	31 c0                	xor    %eax,%eax
   16487:	48 8d 05 fa 6b 00 00 	lea    0x6bfa(%rip),%rax        # 1d088 <g_118>
   1648e:	48 89 85 98 fe ff ff 	mov    %rax,-0x168(%rbp)
   16495:	48 c7 85 a0 fe ff ff 	movq   $0x0,-0x160(%rbp)
   1649c:	00 00 00 00 
   164a0:	c7 85 94 fe ff ff f8 	movl   $0xfffffff8,-0x16c(%rbp)
   164a7:	ff ff ff 
   164aa:	48 c7 85 a8 fe ff ff 	movq   $0x0,-0x158(%rbp)
   164b1:	00 00 00 00 
   164b5:	48 8d 05 cc 6b 00 00 	lea    0x6bcc(%rip),%rax        # 1d088 <g_118>
   164bc:	48 89 85 b0 fe ff ff 	mov    %rax,-0x150(%rbp)
   164c3:	48 8d 05 be 6b 00 00 	lea    0x6bbe(%rip),%rax        # 1d088 <g_118>
   164ca:	48 89 85 b8 fe ff ff 	mov    %rax,-0x148(%rbp)
   164d1:	48 c7 85 c0 fe ff ff 	movq   $0x0,-0x140(%rbp)
   164d8:	00 00 00 00 
   164dc:	48 8d 85 94 fe ff ff 	lea    -0x16c(%rbp),%rax
   164e3:	48 89 85 c8 fe ff ff 	mov    %rax,-0x138(%rbp)
   164ea:	48 8d 85 94 fe ff ff 	lea    -0x16c(%rbp),%rax
   164f1:	48 89 85 d0 fe ff ff 	mov    %rax,-0x130(%rbp)
   164f8:	48 8d 05 39 6b 00 00 	lea    0x6b39(%rip),%rax        # 1d038 <g_22>
   164ff:	48 89 85 d8 fe ff ff 	mov    %rax,-0x128(%rbp)
   16506:	48 8d 85 94 fe ff ff 	lea    -0x16c(%rbp),%rax
   1650d:	48 89 85 e0 fe ff ff 	mov    %rax,-0x120(%rbp)
   16514:	48 8d 85 94 fe ff ff 	lea    -0x16c(%rbp),%rax
   1651b:	48 89 85 e8 fe ff ff 	mov    %rax,-0x118(%rbp)
   16522:	48 c7 85 f0 fe ff ff 	movq   $0x0,-0x110(%rbp)
   16529:	00 00 00 00 
   1652d:	48 8d 05 54 6b 00 00 	lea    0x6b54(%rip),%rax        # 1d088 <g_118>
   16534:	48 89 85 f8 fe ff ff 	mov    %rax,-0x108(%rbp)
   1653b:	48 8d 85 94 fe ff ff 	lea    -0x16c(%rbp),%rax
   16542:	48 89 85 00 ff ff ff 	mov    %rax,-0x100(%rbp)
   16549:	48 8d 85 94 fe ff ff 	lea    -0x16c(%rbp),%rax
   16550:	48 89 85 08 ff ff ff 	mov    %rax,-0xf8(%rbp)
   16557:	48 c7 85 10 ff ff ff 	movq   $0x0,-0xf0(%rbp)
   1655e:	00 00 00 00 
   16562:	48 8d 85 94 fe ff ff 	lea    -0x16c(%rbp),%rax
   16569:	48 89 85 18 ff ff ff 	mov    %rax,-0xe8(%rbp)
   16570:	48 8d 85 94 fe ff ff 	lea    -0x16c(%rbp),%rax
   16577:	48 89 85 20 ff ff ff 	mov    %rax,-0xe0(%rbp)
   1657e:	48 8d 85 94 fe ff ff 	lea    -0x16c(%rbp),%rax
   16585:	48 89 85 28 ff ff ff 	mov    %rax,-0xd8(%rbp)
   1658c:	48 8d 85 94 fe ff ff 	lea    -0x16c(%rbp),%rax
   16593:	48 89 85 30 ff ff ff 	mov    %rax,-0xd0(%rbp)
   1659a:	48 8d 85 94 fe ff ff 	lea    -0x16c(%rbp),%rax
   165a1:	48 89 85 38 ff ff ff 	mov    %rax,-0xc8(%rbp)
   165a8:	48 8d 85 94 fe ff ff 	lea    -0x16c(%rbp),%rax
   165af:	48 89 85 40 ff ff ff 	mov    %rax,-0xc0(%rbp)
   165b6:	48 8d 85 94 fe ff ff 	lea    -0x16c(%rbp),%rax
   165bd:	48 89 85 48 ff ff ff 	mov    %rax,-0xb8(%rbp)
   165c4:	48 8d 85 94 fe ff ff 	lea    -0x16c(%rbp),%rax
   165cb:	48 89 85 50 ff ff ff 	mov    %rax,-0xb0(%rbp)
   165d2:	48 8d 85 94 fe ff ff 	lea    -0x16c(%rbp),%rax
   165d9:	48 89 85 58 ff ff ff 	mov    %rax,-0xa8(%rbp)
   165e0:	48 8d 85 94 fe ff ff 	lea    -0x16c(%rbp),%rax
   165e7:	48 89 85 60 ff ff ff 	mov    %rax,-0xa0(%rbp)
   165ee:	48 8d 85 94 fe ff ff 	lea    -0x16c(%rbp),%rax
   165f5:	48 89 85 68 ff ff ff 	mov    %rax,-0x98(%rbp)
   165fc:	48 8d 85 94 fe ff ff 	lea    -0x16c(%rbp),%rax
   16603:	48 89 85 70 ff ff ff 	mov    %rax,-0x90(%rbp)
   1660a:	48 8d 85 94 fe ff ff 	lea    -0x16c(%rbp),%rax
   16611:	48 89 85 78 ff ff ff 	mov    %rax,-0x88(%rbp)
   16618:	48 8d 05 69 6a 00 00 	lea    0x6a69(%rip),%rax        # 1d088 <g_118>
   1661f:	48 89 45 80          	mov    %rax,-0x80(%rbp)
   16623:	48 c7 45 88 00 00 00 	movq   $0x0,-0x78(%rbp)
   1662a:	00 
   1662b:	48 8d 85 94 fe ff ff 	lea    -0x16c(%rbp),%rax
   16632:	48 89 45 90          	mov    %rax,-0x70(%rbp)
   16636:	48 c7 45 98 00 00 00 	movq   $0x0,-0x68(%rbp)
   1663d:	00 
   1663e:	48 8d 85 94 fe ff ff 	lea    -0x16c(%rbp),%rax
   16645:	48 89 45 a0          	mov    %rax,-0x60(%rbp)
   16649:	48 8d 05 e8 69 00 00 	lea    0x69e8(%rip),%rax        # 1d038 <g_22>
   16650:	48 89 45 a8          	mov    %rax,-0x58(%rbp)
   16654:	48 8d 05 dd 69 00 00 	lea    0x69dd(%rip),%rax        # 1d038 <g_22>
   1665b:	48 89 45 b0          	mov    %rax,-0x50(%rbp)
   1665f:	48 c7 45 b8 00 00 00 	movq   $0x0,-0x48(%rbp)
   16666:	00 
   16667:	48 8d 05 ca 69 00 00 	lea    0x69ca(%rip),%rax        # 1d038 <g_22>
   1666e:	48 89 45 c0          	mov    %rax,-0x40(%rbp)
   16672:	48 8d 05 bf 69 00 00 	lea    0x69bf(%rip),%rax        # 1d038 <g_22>
   16679:	48 89 45 c8          	mov    %rax,-0x38(%rbp)
   1667d:	48 8d 85 94 fe ff ff 	lea    -0x16c(%rbp),%rax
   16684:	48 89 45 d0          	mov    %rax,-0x30(%rbp)
   16688:	48 8d 05 f9 69 00 00 	lea    0x69f9(%rip),%rax        # 1d088 <g_118>
   1668f:	48 89 45 d8          	mov    %rax,-0x28(%rbp)
   16693:	48 8d 85 94 fe ff ff 	lea    -0x16c(%rbp),%rax
   1669a:	48 89 45 e0          	mov    %rax,-0x20(%rbp)
   1669e:	48 8d 85 94 fe ff ff 	lea    -0x16c(%rbp),%rax
   166a5:	48 89 45 e8          	mov    %rax,-0x18(%rbp)
   166a9:	48 8b 05 18 6a 00 00 	mov    0x6a18(%rip),%rax        # 1d0c8 <g_125+0x28>
   166b0:	48 83 e8 01          	sub    $0x1,%rax
   166b4:	48 89 05 0d 6a 00 00 	mov    %rax,0x6a0d(%rip)        # 1d0c8 <g_125+0x28>
   166bb:	48 0f bf 85 8c fe ff 	movswq -0x174(%rbp),%rax
   166c2:	ff 
   166c3:	48 8b 4d f8          	mov    -0x8(%rbp),%rcx
   166c7:	64 48 33 0c 25 28 00 	xor    %fs:0x28,%rcx
   166ce:	00 00 
   166d0:	74 05                	je     166d7 <func_95+0x284>
   166d2:	e8 99 39 ff ff       	callq  a070 <__stack_chk_fail@plt>
   166d7:	c9                   	leaveq 
   166d8:	c3                   	retq   

00000000000166d9 <func_128>:
   166d9:	f3 0f 1e fa          	endbr64 
   166dd:	55                   	push   %rbp
   166de:	48 89 e5             	mov    %rsp,%rbp
   166e1:	41 55                	push   %r13
   166e3:	41 54                	push   %r12
   166e5:	53                   	push   %rbx
   166e6:	48 83 ec 78          	sub    $0x78,%rsp
   166ea:	89 75 88             	mov    %esi,-0x78(%rbp)
   166ed:	48 89 55 80          	mov    %rdx,-0x80(%rbp)
   166f1:	89 c8                	mov    %ecx,%eax
   166f3:	44 89 85 78 ff ff ff 	mov    %r8d,-0x88(%rbp)
   166fa:	89 fa                	mov    %edi,%edx
   166fc:	88 55 8c             	mov    %dl,-0x74(%rbp)
   166ff:	66 89 85 7c ff ff ff 	mov    %ax,-0x84(%rbp)
   16706:	64 48 8b 04 25 28 00 	mov    %fs:0x28,%rax
   1670d:	00 00 
   1670f:	48 89 45 d8          	mov    %rax,-0x28(%rbp)
   16713:	31 c0                	xor    %eax,%eax
   16715:	48 8d 05 5c 8e 00 00 	lea    0x8e5c(%rip),%rax        # 1f578 <g_40+0xf8>
   1671c:	48 89 45 a8          	mov    %rax,-0x58(%rbp)
   16720:	48 c7 45 a0 02 00 00 	movq   $0x2,-0x60(%rbp)
   16727:	00 
   16728:	48 8d 05 61 69 00 00 	lea    0x6961(%rip),%rax        # 1d090 <g_123>
   1672f:	48 89 45 b0          	mov    %rax,-0x50(%rbp)
   16733:	48 8d 05 16 8f 00 00 	lea    0x8f16(%rip),%rax        # 1f650 <g_211>
   1673a:	48 89 45 b8          	mov    %rax,-0x48(%rbp)
   1673e:	48 8d 45 a0          	lea    -0x60(%rbp),%rax
   16742:	48 89 45 c0          	mov    %rax,-0x40(%rbp)
   16746:	48 c7 45 c8 00 00 00 	movq   $0x0,-0x38(%rbp)
   1674d:	00 
   1674e:	c7 45 9c 00 00 00 00 	movl   $0x0,-0x64(%rbp)
   16755:	eb 12                	jmp    16769 <func_128+0x90>
   16757:	8b 45 9c             	mov    -0x64(%rbp),%eax
   1675a:	48 98                	cltq   
   1675c:	48 c7 44 c5 d0 00 00 	movq   $0x0,-0x30(%rbp,%rax,8)
   16763:	00 00 
   16765:	83 45 9c 01          	addl   $0x1,-0x64(%rbp)
   16769:	83 7d 9c 00          	cmpl   $0x0,-0x64(%rbp)
   1676d:	7e e8                	jle    16757 <func_128+0x7e>
   1676f:	0f b7 05 ee 68 00 00 	movzwl 0x68ee(%rip),%eax        # 1d064 <g_113+0x4>
   16776:	48 0f bf d8          	movswq %ax,%rbx
   1677a:	8b 05 cc 68 00 00    	mov    0x68cc(%rip),%eax        # 1d04c <g_85>
   16780:	4c 63 e0             	movslq %eax,%r12
   16783:	44 0f b6 6d 8c       	movzbl -0x74(%rbp),%r13d
   16788:	8b 95 78 ff ff ff    	mov    -0x88(%rbp),%edx
   1678e:	be 01 00 00 00       	mov    $0x1,%esi
   16793:	0f b6 05 68 69 00 00 	movzbl 0x6968(%rip),%eax        # 1d102 <g_159+0x2>
   1679a:	89 c1                	mov    %eax,%ecx
   1679c:	89 f0                	mov    %esi,%eax
   1679e:	09 c8                	or     %ecx,%eax
   167a0:	88 05 5c 69 00 00    	mov    %al,0x695c(%rip)        # 1d102 <g_159+0x2>
   167a6:	0f b6 05 55 69 00 00 	movzbl 0x6955(%rip),%eax        # 1d102 <g_159+0x2>
   167ad:	0f b6 c0             	movzbl %al,%eax
   167b0:	89 d6                	mov    %edx,%esi
   167b2:	89 c7                	mov    %eax,%edi
   167b4:	e8 93 44 ff ff       	callq  ac4c <safe_lshift_func_uint8_t_u_u>
   167b9:	0f b6 c0             	movzbl %al,%eax
   167bc:	44 89 ee             	mov    %r13d,%esi
   167bf:	89 c7                	mov    %eax,%edi
   167c1:	e8 c7 44 ff ff       	callq  ac8d <safe_rshift_func_uint8_t_u_s>
   167c6:	0f b6 c0             	movzbl %al,%eax
   167c9:	4c 89 e6             	mov    %r12,%rsi
   167cc:	48 89 c7             	mov    %rax,%rdi
   167cf:	e8 5a 48 ff ff       	callq  b02e <safe_add_func_uint64_t_u_u>
   167d4:	48 89 c2             	mov    %rax,%rdx
   167d7:	48 8b 45 b0          	mov    -0x50(%rbp),%rax
   167db:	48 89 10             	mov    %rdx,(%rax)
   167de:	48 8b 45 b0          	mov    -0x50(%rbp),%rax
   167e2:	48 8b 00             	mov    (%rax),%rax
   167e5:	48 89 de             	mov    %rbx,%rsi
   167e8:	48 89 c7             	mov    %rax,%rdi
   167eb:	e8 c4 41 ff ff       	callq  a9b4 <safe_mod_func_int64_t_s_s>
   167f0:	48 85 c0             	test   %rax,%rax
   167f3:	75 0a                	jne    167ff <func_128+0x126>
   167f5:	48 8b 45 80          	mov    -0x80(%rbp),%rax
   167f9:	48 8b 00             	mov    (%rax),%rax
   167fc:	48 85 c0             	test   %rax,%rax
   167ff:	48 8b 05 52 8e 00 00 	mov    0x8e52(%rip),%rax        # 1f658 <g_215>
   16806:	c7 00 00 00 00 00    	movl   $0x0,(%rax)
   1680c:	48 8b 45 b8          	mov    -0x48(%rbp),%rax
   16810:	48 8d 15 09 8d 00 00 	lea    0x8d09(%rip),%rdx        # 1f520 <g_40+0xa0>
   16817:	48 89 10             	mov    %rdx,(%rax)
   1681a:	48 8b 45 c8          	mov    -0x38(%rbp),%rax
   1681e:	48 8b 5d d8          	mov    -0x28(%rbp),%rbx
   16822:	64 48 33 1c 25 28 00 	xor    %fs:0x28,%rbx
   16829:	00 00 
   1682b:	74 05                	je     16832 <func_128+0x159>
   1682d:	e8 3e 38 ff ff       	callq  a070 <__stack_chk_fail@plt>
   16832:	48 83 c4 78          	add    $0x78,%rsp
   16836:	5b                   	pop    %rbx
   16837:	41 5c                	pop    %r12
   16839:	41 5d                	pop    %r13
   1683b:	5d                   	pop    %rbp
   1683c:	c3                   	retq   

000000000001683d <func_134>:
   1683d:	f3 0f 1e fa          	endbr64 
   16841:	55                   	push   %rbp
   16842:	48 89 e5             	mov    %rsp,%rbp
   16845:	53                   	push   %rbx
   16846:	48 81 ec 88 00 00 00 	sub    $0x88,%rsp
   1684d:	48 89 bd 78 ff ff ff 	mov    %rdi,-0x88(%rbp)
   16854:	64 48 8b 04 25 28 00 	mov    %fs:0x28,%rax
   1685b:	00 00 
   1685d:	48 89 45 e8          	mov    %rax,-0x18(%rbp)
   16861:	31 c0                	xor    %eax,%eax
   16863:	48 b8 2c f7 9c b9 4a 	movabs $0xec4c324ab99cf72c,%rax
   1686a:	32 4c ec 
   1686d:	48 89 45 88          	mov    %rax,-0x78(%rbp)
   16871:	48 8d 05 10 68 00 00 	lea    0x6810(%rip),%rax        # 1d088 <g_118>
   16878:	48 89 45 90          	mov    %rax,-0x70(%rbp)
   1687c:	48 8d 05 6d 68 00 00 	lea    0x686d(%rip),%rax        # 1d0f0 <g_150>
   16883:	48 89 45 98          	mov    %rax,-0x68(%rbp)
   16887:	48 8d 05 c2 67 00 00 	lea    0x67c2(%rip),%rax        # 1d050 <g_94>
   1688e:	48 89 45 a0          	mov    %rax,-0x60(%rbp)
   16892:	48 8d 05 77 68 00 00 	lea    0x6877(%rip),%rax        # 1d110 <g_192>
   16899:	48 89 45 a8          	mov    %rax,-0x58(%rbp)
   1689d:	48 c7 45 b0 00 00 00 	movq   $0x0,-0x50(%rbp)
   168a4:	00 
   168a5:	48 8d 05 70 68 00 00 	lea    0x6870(%rip),%rax        # 1d11c <g_197>
   168ac:	48 89 45 b8          	mov    %rax,-0x48(%rbp)
   168b0:	c7 45 84 00 00 00 00 	movl   $0x0,-0x7c(%rbp)
   168b7:	eb 15                	jmp    168ce <func_134+0x91>
   168b9:	8b 45 84             	mov    -0x7c(%rbp),%eax
   168bc:	48 98                	cltq   
   168be:	48 8d 15 53 68 00 00 	lea    0x6853(%rip),%rdx        # 1d118 <g_194>
   168c5:	48 89 54 c5 c0       	mov    %rdx,-0x40(%rbp,%rax,8)
   168ca:	83 45 84 01          	addl   $0x1,-0x7c(%rbp)
   168ce:	83 7d 84 03          	cmpl   $0x3,-0x7c(%rbp)
   168d2:	7e e5                	jle    168b9 <func_134+0x7c>
   168d4:	0f b6 05 29 68 00 00 	movzbl 0x6829(%rip),%eax        # 1d104 <g_159+0x4>
   168db:	0f b6 d8             	movzbl %al,%ebx
   168de:	0f b7 05 83 67 00 00 	movzwl 0x6783(%rip),%eax        # 1d068 <g_113+0x8>
   168e5:	0f bf d0             	movswl %ax,%edx
   168e8:	0f b6 05 4d 67 00 00 	movzbl 0x674d(%rip),%eax        # 1d03c <g_32>
   168ef:	0f b6 0d 0e 68 00 00 	movzbl 0x680e(%rip),%ecx        # 1d104 <g_159+0x4>
   168f6:	09 c1                	or     %eax,%ecx
   168f8:	48 8b 45 98          	mov    -0x68(%rbp),%rax
   168fc:	88 08                	mov    %cl,(%rax)
   168fe:	48 8b 45 98          	mov    -0x68(%rbp),%rax
   16902:	0f b6 00             	movzbl (%rax),%eax
   16905:	0f be c0             	movsbl %al,%eax
   16908:	89 d6                	mov    %edx,%esi
   1690a:	89 c7                	mov    %eax,%edi
   1690c:	e8 24 3a ff ff       	callq  a335 <safe_rshift_func_int8_t_s_s>
   16911:	0f be d0             	movsbl %al,%edx
   16914:	0f b7 05 ed 67 00 00 	movzwl 0x67ed(%rip),%eax        # 1d108 <g_165>
   1691b:	0f b7 c0             	movzwl %ax,%eax
   1691e:	39 c2                	cmp    %eax,%edx
   16920:	0f 9f c0             	setg   %al
   16923:	0f b6 c0             	movzbl %al,%eax
   16926:	be 97 7e c9 dc       	mov    $0xdcc97e97,%esi
   1692b:	89 c7                	mov    %eax,%edi
   1692d:	e8 84 3c ff ff       	callq  a5b6 <safe_add_func_int32_t_s_s>
   16932:	48 8b 55 a0          	mov    -0x60(%rbp),%rdx
   16936:	48 8b 12             	mov    (%rdx),%rdx
   16939:	48 98                	cltq   
   1693b:	48 31 c2             	xor    %rax,%rdx
   1693e:	48 8b 45 a0          	mov    -0x60(%rbp),%rax
   16942:	48 89 10             	mov    %rdx,(%rax)
   16945:	48 8b 45 a0          	mov    -0x60(%rbp),%rax
   16949:	48 8b 00             	mov    (%rax),%rax
   1694c:	48 39 85 78 ff ff ff 	cmp    %rax,-0x88(%rbp)
   16953:	0f 93 c0             	setae  %al
   16956:	0f b6 c0             	movzbl %al,%eax
   16959:	89 de                	mov    %ebx,%esi
   1695b:	89 c7                	mov    %eax,%edi
   1695d:	e8 9d 43 ff ff       	callq  acff <safe_add_func_uint16_t_u_u>
   16962:	0f be d0             	movsbl %al,%edx
   16965:	48 8b 85 78 ff ff ff 	mov    -0x88(%rbp),%rax
   1696c:	0f be c0             	movsbl %al,%eax
   1696f:	89 d6                	mov    %edx,%esi
   16971:	89 c7                	mov    %eax,%edi
   16973:	e8 9a 38 ff ff       	callq  a212 <safe_mul_func_int8_t_s_s>
   16978:	66 98                	cbtw   
   1697a:	0f b7 c0             	movzwl %ax,%eax
   1697d:	be 00 00 00 00       	mov    $0x0,%esi
   16982:	89 c7                	mov    %eax,%edi
   16984:	e8 96 43 ff ff       	callq  ad1f <safe_sub_func_uint16_t_u_u>
   16989:	0f b7 d0             	movzwl %ax,%edx
   1698c:	48 8b 45 a8          	mov    -0x58(%rbp),%rax
   16990:	48 89 10             	mov    %rdx,(%rax)
   16993:	48 8b 45 88          	mov    -0x78(%rbp),%rax
   16997:	48 89 c2             	mov    %rax,%rdx
   1699a:	48 8b 05 27 67 00 00 	mov    0x6727(%rip),%rax        # 1d0c8 <g_125+0x28>
   169a1:	48 89 d6             	mov    %rdx,%rsi
   169a4:	48 89 c7             	mov    %rax,%rdi
   169a7:	e8 03 47 ff ff       	callq  b0af <safe_div_func_uint64_t_u_u>
   169ac:	c7 05 62 67 00 00 01 	movl   $0x1,0x6762(%rip)        # 1d118 <g_194>
   169b3:	00 00 00 
   169b6:	8b 05 5c 67 00 00    	mov    0x675c(%rip),%eax        # 1d118 <g_194>
   169bc:	89 c1                	mov    %eax,%ecx
   169be:	48 8b 45 88          	mov    -0x78(%rbp),%rax
   169c2:	48 f7 d0             	not    %rax
   169c5:	48 c1 e8 3f          	shr    $0x3f,%rax
   169c9:	0f b6 d0             	movzbl %al,%edx
   169cc:	48 8b 45 90          	mov    -0x70(%rbp),%rax
   169d0:	89 10                	mov    %edx,(%rax)
   169d2:	48 8b 45 90          	mov    -0x70(%rbp),%rax
   169d6:	8b 00                	mov    (%rax),%eax
   169d8:	89 ce                	mov    %ecx,%esi
   169da:	89 c7                	mov    %eax,%edi
   169dc:	e8 d5 3b ff ff       	callq  a5b6 <safe_add_func_int32_t_s_s>
   169e1:	0f b6 c0             	movzbl %al,%eax
   169e4:	be 06 00 00 00       	mov    $0x6,%esi
   169e9:	89 c7                	mov    %eax,%edi
   169eb:	e8 9d 42 ff ff       	callq  ac8d <safe_rshift_func_uint8_t_u_s>
   169f0:	0f b6 d0             	movzbl %al,%edx
   169f3:	48 8b 45 b8          	mov    -0x48(%rbp),%rax
   169f7:	89 10                	mov    %edx,(%rax)
   169f9:	48 8d 05 d8 66 00 00 	lea    0x66d8(%rip),%rax        # 1d0d8 <g_125+0x38>
   16a00:	48 8b 5d e8          	mov    -0x18(%rbp),%rbx
   16a04:	64 48 33 1c 25 28 00 	xor    %fs:0x28,%rbx
   16a0b:	00 00 
   16a0d:	74 05                	je     16a14 <func_134+0x1d7>
   16a0f:	e8 5c 36 ff ff       	callq  a070 <__stack_chk_fail@plt>
   16a14:	48 81 c4 88 00 00 00 	add    $0x88,%rsp
   16a1b:	5b                   	pop    %rbx
   16a1c:	5d                   	pop    %rbp
   16a1d:	c3                   	retq   

0000000000016a1e <main>:
   16a1e:	f3 0f 1e fa          	endbr64 
   16a22:	55                   	push   %rbp
   16a23:	48 89 e5             	mov    %rsp,%rbp
   16a26:	48 83 ec 20          	sub    $0x20,%rsp
   16a2a:	89 7d ec             	mov    %edi,-0x14(%rbp)
   16a2d:	48 89 75 e0          	mov    %rsi,-0x20(%rbp)
   16a31:	c7 45 fc 00 00 00 00 	movl   $0x0,-0x4(%rbp)
   16a38:	83 7d ec 02          	cmpl   $0x2,-0x14(%rbp)
   16a3c:	74 25                	je     16a63 <main+0x45>
   16a3e:	48 8b 45 e0          	mov    -0x20(%rbp),%rax
   16a42:	48 83 c0 08          	add    $0x8,%rax
   16a46:	48 8b 00             	mov    (%rax),%rax
   16a49:	48 8d 35 08 30 00 00 	lea    0x3008(%rip),%rsi        # 19a58 <g_2140+0x19ec>
   16a50:	48 89 c7             	mov    %rax,%rdi
   16a53:	e8 38 36 ff ff       	callq  a090 <strcmp@plt>
   16a58:	85 c0                	test   %eax,%eax
   16a5a:	74 07                	je     16a63 <main+0x45>
   16a5c:	c7 45 fc 01 00 00 00 	movl   $0x1,-0x4(%rbp)
   16a63:	e8 21 37 ff ff       	callq  a189 <platform_main_begin>
   16a68:	e8 2b 4b ff ff       	callq  b598 <crc32_gentab>
   16a6d:	e8 43 4d ff ff       	callq  b7b5 <func_1>
   16a72:	8b 05 ac 65 00 00    	mov    0x65ac(%rip),%eax        # 1d024 <g_2>
   16a78:	48 98                	cltq   
   16a7a:	8b 55 fc             	mov    -0x4(%rbp),%edx
   16a7d:	48 8d 35 d6 2f 00 00 	lea    0x2fd6(%rip),%rsi        # 19a5a <g_2140+0x19ee>
   16a84:	48 89 c7             	mov    %rax,%rdi
   16a87:	e8 67 4c ff ff       	callq  b6f3 <transparent_crc>
   16a8c:	8b 05 96 65 00 00    	mov    0x6596(%rip),%eax        # 1d028 <g_10>
   16a92:	48 98                	cltq   
   16a94:	8b 55 fc             	mov    -0x4(%rbp),%edx
   16a97:	48 8d 35 c0 2f 00 00 	lea    0x2fc0(%rip),%rsi        # 19a5e <g_2140+0x19f2>
   16a9e:	48 89 c7             	mov    %rax,%rdi
   16aa1:	e8 4d 4c ff ff       	callq  b6f3 <transparent_crc>
   16aa6:	8b 05 80 65 00 00    	mov    0x6580(%rip),%eax        # 1d02c <g_12>
   16aac:	48 98                	cltq   
   16aae:	8b 55 fc             	mov    -0x4(%rbp),%edx
   16ab1:	48 8d 35 ab 2f 00 00 	lea    0x2fab(%rip),%rsi        # 19a63 <g_2140+0x19f7>
   16ab8:	48 89 c7             	mov    %rax,%rdi
   16abb:	e8 33 4c ff ff       	callq  b6f3 <transparent_crc>
   16ac0:	0f b6 05 41 a3 00 00 	movzbl 0xa341(%rip),%eax        # 20e08 <g_13>
   16ac7:	0f b6 c0             	movzbl %al,%eax
   16aca:	8b 55 fc             	mov    -0x4(%rbp),%edx
   16acd:	48 8d 35 94 2f 00 00 	lea    0x2f94(%rip),%rsi        # 19a68 <g_2140+0x19fc>
   16ad4:	48 89 c7             	mov    %rax,%rdi
   16ad7:	e8 17 4c ff ff       	callq  b6f3 <transparent_crc>
   16adc:	8b 05 4e 65 00 00    	mov    0x654e(%rip),%eax        # 1d030 <g_20>
   16ae2:	48 98                	cltq   
   16ae4:	8b 55 fc             	mov    -0x4(%rbp),%edx
   16ae7:	48 8d 35 7f 2f 00 00 	lea    0x2f7f(%rip),%rsi        # 19a6d <g_2140+0x1a01>
   16aee:	48 89 c7             	mov    %rax,%rdi
   16af1:	e8 fd 4b ff ff       	callq  b6f3 <transparent_crc>
   16af6:	8b 05 38 65 00 00    	mov    0x6538(%rip),%eax        # 1d034 <g_21>
   16afc:	48 98                	cltq   
   16afe:	8b 55 fc             	mov    -0x4(%rbp),%edx
   16b01:	48 8d 35 6a 2f 00 00 	lea    0x2f6a(%rip),%rsi        # 19a72 <g_2140+0x1a06>
   16b08:	48 89 c7             	mov    %rax,%rdi
   16b0b:	e8 e3 4b ff ff       	callq  b6f3 <transparent_crc>
   16b10:	8b 05 22 65 00 00    	mov    0x6522(%rip),%eax        # 1d038 <g_22>
   16b16:	48 98                	cltq   
   16b18:	8b 55 fc             	mov    -0x4(%rbp),%edx
   16b1b:	48 8d 35 55 2f 00 00 	lea    0x2f55(%rip),%rsi        # 19a77 <g_2140+0x1a0b>
   16b22:	48 89 c7             	mov    %rax,%rdi
   16b25:	e8 c9 4b ff ff       	callq  b6f3 <transparent_crc>
   16b2a:	8b 05 0c 65 00 00    	mov    0x650c(%rip),%eax        # 1d03c <g_32>
   16b30:	89 c1                	mov    %eax,%ecx
   16b32:	8b 45 fc             	mov    -0x4(%rbp),%eax
   16b35:	89 c2                	mov    %eax,%edx
   16b37:	48 8d 35 3e 2f 00 00 	lea    0x2f3e(%rip),%rsi        # 19a7c <g_2140+0x1a10>
   16b3e:	48 89 cf             	mov    %rcx,%rdi
   16b41:	e8 ad 4b ff ff       	callq  b6f3 <transparent_crc>
   16b46:	0f b6 05 ef 64 00 00 	movzbl 0x64ef(%rip),%eax        # 1d03c <g_32>
   16b4d:	48 0f be c0          	movsbq %al,%rax
   16b51:	8b 55 fc             	mov    -0x4(%rbp),%edx
   16b54:	48 8d 35 29 2f 00 00 	lea    0x2f29(%rip),%rsi        # 19a84 <g_2140+0x1a18>
   16b5b:	48 89 c7             	mov    %rax,%rdi
   16b5e:	e8 90 4b ff ff       	callq  b6f3 <transparent_crc>
   16b63:	8b 05 d3 64 00 00    	mov    0x64d3(%rip),%eax        # 1d03c <g_32>
   16b69:	c1 e0 04             	shl    $0x4,%eax
   16b6c:	c1 f8 04             	sar    $0x4,%eax
   16b6f:	48 98                	cltq   
   16b71:	8b 55 fc             	mov    -0x4(%rbp),%edx
   16b74:	48 8d 35 11 2f 00 00 	lea    0x2f11(%rip),%rsi        # 19a8c <g_2140+0x1a20>
   16b7b:	48 89 c7             	mov    %rax,%rdi
   16b7e:	e8 70 4b ff ff       	callq  b6f3 <transparent_crc>
   16b83:	48 8b 05 b6 64 00 00 	mov    0x64b6(%rip),%rax        # 1d040 <g_42>
   16b8a:	48 89 c1             	mov    %rax,%rcx
   16b8d:	8b 45 fc             	mov    -0x4(%rbp),%eax
   16b90:	89 c2                	mov    %eax,%edx
   16b92:	48 8d 35 fb 2e 00 00 	lea    0x2efb(%rip),%rsi        # 19a94 <g_2140+0x1a28>
   16b99:	48 89 cf             	mov    %rcx,%rdi
   16b9c:	e8 52 4b ff ff       	callq  b6f3 <transparent_crc>
   16ba1:	0f b6 05 a0 64 00 00 	movzbl 0x64a0(%rip),%eax        # 1d048 <g_52>
   16ba8:	48 0f be c0          	movsbq %al,%rax
   16bac:	8b 55 fc             	mov    -0x4(%rbp),%edx
   16baf:	48 8d 35 e6 2e 00 00 	lea    0x2ee6(%rip),%rsi        # 19a9c <g_2140+0x1a30>
   16bb6:	48 89 c7             	mov    %rax,%rdi
   16bb9:	e8 35 4b ff ff       	callq  b6f3 <transparent_crc>
   16bbe:	8b 05 88 64 00 00    	mov    0x6488(%rip),%eax        # 1d04c <g_85>
   16bc4:	48 98                	cltq   
   16bc6:	8b 55 fc             	mov    -0x4(%rbp),%edx
   16bc9:	48 8d 35 d1 2e 00 00 	lea    0x2ed1(%rip),%rsi        # 19aa1 <g_2140+0x1a35>
   16bd0:	48 89 c7             	mov    %rax,%rdi
   16bd3:	e8 1b 4b ff ff       	callq  b6f3 <transparent_crc>
   16bd8:	48 8b 05 71 64 00 00 	mov    0x6471(%rip),%rax        # 1d050 <g_94>
   16bdf:	8b 55 fc             	mov    -0x4(%rbp),%edx
   16be2:	48 8d 35 bd 2e 00 00 	lea    0x2ebd(%rip),%rsi        # 19aa6 <g_2140+0x1a3a>
   16be9:	48 89 c7             	mov    %rax,%rdi
   16bec:	e8 02 4b ff ff       	callq  b6f3 <transparent_crc>
   16bf1:	c7 45 f0 00 00 00 00 	movl   $0x0,-0x10(%rbp)
   16bf8:	eb 4a                	jmp    16c44 <main+0x226>
   16bfa:	8b 45 f0             	mov    -0x10(%rbp),%eax
   16bfd:	48 98                	cltq   
   16bff:	48 8d 14 00          	lea    (%rax,%rax,1),%rdx
   16c03:	48 8d 05 56 64 00 00 	lea    0x6456(%rip),%rax        # 1d060 <g_113>
   16c0a:	0f b7 04 02          	movzwl (%rdx,%rax,1),%eax
   16c0e:	48 0f bf c0          	movswq %ax,%rax
   16c12:	8b 55 fc             	mov    -0x4(%rbp),%edx
   16c15:	48 8d 35 8f 2e 00 00 	lea    0x2e8f(%rip),%rsi        # 19aab <g_2140+0x1a3f>
   16c1c:	48 89 c7             	mov    %rax,%rdi
   16c1f:	e8 cf 4a ff ff       	callq  b6f3 <transparent_crc>
   16c24:	83 7d fc 00          	cmpl   $0x0,-0x4(%rbp)
   16c28:	74 16                	je     16c40 <main+0x222>
   16c2a:	8b 45 f0             	mov    -0x10(%rbp),%eax
   16c2d:	89 c6                	mov    %eax,%esi
   16c2f:	48 8d 3d 7e 2e 00 00 	lea    0x2e7e(%rip),%rdi        # 19ab4 <g_2140+0x1a48>
   16c36:	b8 00 00 00 00       	mov    $0x0,%eax
   16c3b:	e8 40 34 ff ff       	callq  a080 <printf@plt>
   16c40:	83 45 f0 01          	addl   $0x1,-0x10(%rbp)
   16c44:	83 7d f0 09          	cmpl   $0x9,-0x10(%rbp)
   16c48:	7e b0                	jle    16bfa <main+0x1dc>
   16c4a:	c7 45 f0 00 00 00 00 	movl   $0x0,-0x10(%rbp)
   16c51:	eb 4a                	jmp    16c9d <main+0x27f>
   16c53:	8b 45 f0             	mov    -0x10(%rbp),%eax
   16c56:	48 98                	cltq   
   16c58:	48 8d 14 00          	lea    (%rax,%rax,1),%rdx
   16c5c:	48 8d 05 15 64 00 00 	lea    0x6415(%rip),%rax        # 1d078 <g_115>
   16c63:	0f b7 04 02          	movzwl (%rdx,%rax,1),%eax
   16c67:	48 0f bf c0          	movswq %ax,%rax
   16c6b:	8b 55 fc             	mov    -0x4(%rbp),%edx
   16c6e:	48 8d 35 4d 2e 00 00 	lea    0x2e4d(%rip),%rsi        # 19ac2 <g_2140+0x1a56>
   16c75:	48 89 c7             	mov    %rax,%rdi
   16c78:	e8 76 4a ff ff       	callq  b6f3 <transparent_crc>
   16c7d:	83 7d fc 00          	cmpl   $0x0,-0x4(%rbp)
   16c81:	74 16                	je     16c99 <main+0x27b>
   16c83:	8b 45 f0             	mov    -0x10(%rbp),%eax
   16c86:	89 c6                	mov    %eax,%esi
   16c88:	48 8d 3d 25 2e 00 00 	lea    0x2e25(%rip),%rdi        # 19ab4 <g_2140+0x1a48>
   16c8f:	b8 00 00 00 00       	mov    $0x0,%eax
   16c94:	e8 e7 33 ff ff       	callq  a080 <printf@plt>
   16c99:	83 45 f0 01          	addl   $0x1,-0x10(%rbp)
   16c9d:	83 7d f0 06          	cmpl   $0x6,-0x10(%rbp)
   16ca1:	7e b0                	jle    16c53 <main+0x235>
   16ca3:	8b 05 df 63 00 00    	mov    0x63df(%rip),%eax        # 1d088 <g_118>
   16ca9:	48 98                	cltq   
   16cab:	8b 55 fc             	mov    -0x4(%rbp),%edx
   16cae:	48 8d 35 16 2e 00 00 	lea    0x2e16(%rip),%rsi        # 19acb <g_2140+0x1a5f>
   16cb5:	48 89 c7             	mov    %rax,%rdi
   16cb8:	e8 36 4a ff ff       	callq  b6f3 <transparent_crc>
   16cbd:	48 8b 05 cc 63 00 00 	mov    0x63cc(%rip),%rax        # 1d090 <g_123>
   16cc4:	48 89 c1             	mov    %rax,%rcx
   16cc7:	8b 45 fc             	mov    -0x4(%rbp),%eax
   16cca:	89 c2                	mov    %eax,%edx
   16ccc:	48 8d 35 fe 2d 00 00 	lea    0x2dfe(%rip),%rsi        # 19ad1 <g_2140+0x1a65>
   16cd3:	48 89 cf             	mov    %rcx,%rdi
   16cd6:	e8 18 4a ff ff       	callq  b6f3 <transparent_crc>
   16cdb:	0f b7 05 b6 63 00 00 	movzwl 0x63b6(%rip),%eax        # 1d098 <g_124>
   16ce2:	48 0f bf c0          	movswq %ax,%rax
   16ce6:	8b 55 fc             	mov    -0x4(%rbp),%edx
   16ce9:	48 8d 35 e7 2d 00 00 	lea    0x2de7(%rip),%rsi        # 19ad7 <g_2140+0x1a6b>
   16cf0:	48 89 c7             	mov    %rax,%rdi
   16cf3:	e8 fb 49 ff ff       	callq  b6f3 <transparent_crc>
   16cf8:	c7 45 f0 00 00 00 00 	movl   $0x0,-0x10(%rbp)
   16cff:	eb 73                	jmp    16d74 <main+0x356>
   16d01:	c7 45 f4 00 00 00 00 	movl   $0x0,-0xc(%rbp)
   16d08:	eb 60                	jmp    16d6a <main+0x34c>
   16d0a:	8b 45 f4             	mov    -0xc(%rbp),%eax
   16d0d:	48 63 c8             	movslq %eax,%rcx
   16d10:	8b 45 f0             	mov    -0x10(%rbp),%eax
   16d13:	48 63 d0             	movslq %eax,%rdx
   16d16:	48 89 d0             	mov    %rdx,%rax
   16d19:	48 01 c0             	add    %rax,%rax
   16d1c:	48 01 d0             	add    %rdx,%rax
   16d1f:	48 01 c8             	add    %rcx,%rax
   16d22:	48 8d 14 c5 00 00 00 	lea    0x0(,%rax,8),%rdx
   16d29:	00 
   16d2a:	48 8d 05 6f 63 00 00 	lea    0x636f(%rip),%rax        # 1d0a0 <g_125>
   16d31:	48 8b 04 02          	mov    (%rdx,%rax,1),%rax
   16d35:	8b 55 fc             	mov    -0x4(%rbp),%edx
   16d38:	48 8d 35 9e 2d 00 00 	lea    0x2d9e(%rip),%rsi        # 19add <g_2140+0x1a71>
   16d3f:	48 89 c7             	mov    %rax,%rdi
   16d42:	e8 ac 49 ff ff       	callq  b6f3 <transparent_crc>
   16d47:	83 7d fc 00          	cmpl   $0x0,-0x4(%rbp)
   16d4b:	74 19                	je     16d66 <main+0x348>
   16d4d:	8b 55 f4             	mov    -0xc(%rbp),%edx
   16d50:	8b 45 f0             	mov    -0x10(%rbp),%eax
   16d53:	89 c6                	mov    %eax,%esi
   16d55:	48 8d 3d 8d 2d 00 00 	lea    0x2d8d(%rip),%rdi        # 19ae9 <g_2140+0x1a7d>
   16d5c:	b8 00 00 00 00       	mov    $0x0,%eax
   16d61:	e8 1a 33 ff ff       	callq  a080 <printf@plt>
   16d66:	83 45 f4 01          	addl   $0x1,-0xc(%rbp)
   16d6a:	83 7d f4 02          	cmpl   $0x2,-0xc(%rbp)
   16d6e:	7e 9a                	jle    16d0a <main+0x2ec>
   16d70:	83 45 f0 01          	addl   $0x1,-0x10(%rbp)
   16d74:	83 7d f0 02          	cmpl   $0x2,-0x10(%rbp)
   16d78:	7e 87                	jle    16d01 <main+0x2e3>
   16d7a:	c7 45 f0 00 00 00 00 	movl   $0x0,-0x10(%rbp)
   16d81:	e9 ac 00 00 00       	jmpq   16e32 <main+0x414>
   16d86:	8b 45 f0             	mov    -0x10(%rbp),%eax
   16d89:	48 98                	cltq   
   16d8b:	48 8d 14 85 00 00 00 	lea    0x0(,%rax,4),%rdx
   16d92:	00 
   16d93:	48 8d 05 56 63 00 00 	lea    0x6356(%rip),%rax        # 1d0f0 <g_150>
   16d9a:	8b 04 02             	mov    (%rdx,%rax,1),%eax
   16d9d:	89 c1                	mov    %eax,%ecx
   16d9f:	8b 45 fc             	mov    -0x4(%rbp),%eax
   16da2:	89 c2                	mov    %eax,%edx
   16da4:	48 8d 35 50 2d 00 00 	lea    0x2d50(%rip),%rsi        # 19afb <g_2140+0x1a8f>
   16dab:	48 89 cf             	mov    %rcx,%rdi
   16dae:	e8 40 49 ff ff       	callq  b6f3 <transparent_crc>
   16db3:	8b 45 f0             	mov    -0x10(%rbp),%eax
   16db6:	48 98                	cltq   
   16db8:	48 8d 14 85 00 00 00 	lea    0x0(,%rax,4),%rdx
   16dbf:	00 
   16dc0:	48 8d 05 29 63 00 00 	lea    0x6329(%rip),%rax        # 1d0f0 <g_150>
   16dc7:	0f b6 04 02          	movzbl (%rdx,%rax,1),%eax
   16dcb:	48 0f be c0          	movsbq %al,%rax
   16dcf:	8b 55 fc             	mov    -0x4(%rbp),%edx
   16dd2:	48 8d 35 2e 2d 00 00 	lea    0x2d2e(%rip),%rsi        # 19b07 <g_2140+0x1a9b>
   16dd9:	48 89 c7             	mov    %rax,%rdi
   16ddc:	e8 12 49 ff ff       	callq  b6f3 <transparent_crc>
   16de1:	8b 45 f0             	mov    -0x10(%rbp),%eax
   16de4:	48 98                	cltq   
   16de6:	48 8d 14 85 00 00 00 	lea    0x0(,%rax,4),%rdx
   16ded:	00 
   16dee:	48 8d 05 fb 62 00 00 	lea    0x62fb(%rip),%rax        # 1d0f0 <g_150>
   16df5:	8b 04 02             	mov    (%rdx,%rax,1),%eax
   16df8:	c1 e0 04             	shl    $0x4,%eax
   16dfb:	c1 f8 04             	sar    $0x4,%eax
   16dfe:	48 98                	cltq   
   16e00:	8b 55 fc             	mov    -0x4(%rbp),%edx
   16e03:	48 8d 35 09 2d 00 00 	lea    0x2d09(%rip),%rsi        # 19b13 <g_2140+0x1aa7>
   16e0a:	48 89 c7             	mov    %rax,%rdi
   16e0d:	e8 e1 48 ff ff       	callq  b6f3 <transparent_crc>
   16e12:	83 7d fc 00          	cmpl   $0x0,-0x4(%rbp)
   16e16:	74 16                	je     16e2e <main+0x410>
   16e18:	8b 45 f0             	mov    -0x10(%rbp),%eax
   16e1b:	89 c6                	mov    %eax,%esi
   16e1d:	48 8d 3d 90 2c 00 00 	lea    0x2c90(%rip),%rdi        # 19ab4 <g_2140+0x1a48>
   16e24:	b8 00 00 00 00       	mov    $0x0,%eax
   16e29:	e8 52 32 ff ff       	callq  a080 <printf@plt>
   16e2e:	83 45 f0 01          	addl   $0x1,-0x10(%rbp)
   16e32:	83 7d f0 03          	cmpl   $0x3,-0x10(%rbp)
   16e36:	0f 8e 4a ff ff ff    	jle    16d86 <main+0x368>
   16e3c:	8b 05 d6 9f 00 00    	mov    0x9fd6(%rip),%eax        # 20e18 <g_153>
   16e42:	89 c1                	mov    %eax,%ecx
   16e44:	8b 45 fc             	mov    -0x4(%rbp),%eax
   16e47:	89 c2                	mov    %eax,%edx
   16e49:	48 8d 35 cf 2c 00 00 	lea    0x2ccf(%rip),%rsi        # 19b1f <g_2140+0x1ab3>
   16e50:	48 89 cf             	mov    %rcx,%rdi
   16e53:	e8 9b 48 ff ff       	callq  b6f3 <transparent_crc>
   16e58:	0f b6 05 b9 9f 00 00 	movzbl 0x9fb9(%rip),%eax        # 20e18 <g_153>
   16e5f:	48 0f be c0          	movsbq %al,%rax
   16e63:	8b 55 fc             	mov    -0x4(%rbp),%edx
   16e66:	48 8d 35 bb 2c 00 00 	lea    0x2cbb(%rip),%rsi        # 19b28 <g_2140+0x1abc>
   16e6d:	48 89 c7             	mov    %rax,%rdi
   16e70:	e8 7e 48 ff ff       	callq  b6f3 <transparent_crc>
   16e75:	8b 05 9d 9f 00 00    	mov    0x9f9d(%rip),%eax        # 20e18 <g_153>
   16e7b:	c1 e0 04             	shl    $0x4,%eax
   16e7e:	c1 f8 04             	sar    $0x4,%eax
   16e81:	48 98                	cltq   
   16e83:	8b 55 fc             	mov    -0x4(%rbp),%edx
   16e86:	48 8d 35 a4 2c 00 00 	lea    0x2ca4(%rip),%rsi        # 19b31 <g_2140+0x1ac5>
   16e8d:	48 89 c7             	mov    %rax,%rdi
   16e90:	e8 5e 48 ff ff       	callq  b6f3 <transparent_crc>
   16e95:	c7 45 f0 00 00 00 00 	movl   $0x0,-0x10(%rbp)
   16e9c:	eb 66                	jmp    16f04 <main+0x4e6>
   16e9e:	c7 45 f4 00 00 00 00 	movl   $0x0,-0xc(%rbp)
   16ea5:	eb 53                	jmp    16efa <main+0x4dc>
   16ea7:	8b 45 f4             	mov    -0xc(%rbp),%eax
   16eaa:	48 63 d0             	movslq %eax,%rdx
   16ead:	8b 45 f0             	mov    -0x10(%rbp),%eax
   16eb0:	48 98                	cltq   
   16eb2:	48 01 c2             	add    %rax,%rdx
   16eb5:	48 8d 05 44 62 00 00 	lea    0x6244(%rip),%rax        # 1d100 <g_159>
   16ebc:	48 01 d0             	add    %rdx,%rax
   16ebf:	0f b6 00             	movzbl (%rax),%eax
   16ec2:	0f b6 c0             	movzbl %al,%eax
   16ec5:	8b 55 fc             	mov    -0x4(%rbp),%edx
   16ec8:	48 8d 35 6b 2c 00 00 	lea    0x2c6b(%rip),%rsi        # 19b3a <g_2140+0x1ace>
   16ecf:	48 89 c7             	mov    %rax,%rdi
   16ed2:	e8 1c 48 ff ff       	callq  b6f3 <transparent_crc>
   16ed7:	83 7d fc 00          	cmpl   $0x0,-0x4(%rbp)
   16edb:	74 19                	je     16ef6 <main+0x4d8>
   16edd:	8b 55 f4             	mov    -0xc(%rbp),%edx
   16ee0:	8b 45 f0             	mov    -0x10(%rbp),%eax
   16ee3:	89 c6                	mov    %eax,%esi
   16ee5:	48 8d 3d fd 2b 00 00 	lea    0x2bfd(%rip),%rdi        # 19ae9 <g_2140+0x1a7d>
   16eec:	b8 00 00 00 00       	mov    $0x0,%eax
   16ef1:	e8 8a 31 ff ff       	callq  a080 <printf@plt>
   16ef6:	83 45 f4 01          	addl   $0x1,-0xc(%rbp)
   16efa:	83 7d f4 00          	cmpl   $0x0,-0xc(%rbp)
   16efe:	7e a7                	jle    16ea7 <main+0x489>
   16f00:	83 45 f0 01          	addl   $0x1,-0x10(%rbp)
   16f04:	83 7d f0 07          	cmpl   $0x7,-0x10(%rbp)
   16f08:	7e 94                	jle    16e9e <main+0x480>
   16f0a:	0f b7 05 f7 61 00 00 	movzwl 0x61f7(%rip),%eax        # 1d108 <g_165>
   16f11:	0f b7 c0             	movzwl %ax,%eax
   16f14:	8b 55 fc             	mov    -0x4(%rbp),%edx
   16f17:	48 8d 35 28 2c 00 00 	lea    0x2c28(%rip),%rsi        # 19b46 <g_2140+0x1ada>
   16f1e:	48 89 c7             	mov    %rax,%rdi
   16f21:	e8 cd 47 ff ff       	callq  b6f3 <transparent_crc>
   16f26:	8b 05 e0 61 00 00    	mov    0x61e0(%rip),%eax        # 1d10c <g_167>
   16f2c:	48 98                	cltq   
   16f2e:	8b 55 fc             	mov    -0x4(%rbp),%edx
   16f31:	48 8d 35 14 2c 00 00 	lea    0x2c14(%rip),%rsi        # 19b4c <g_2140+0x1ae0>
   16f38:	48 89 c7             	mov    %rax,%rdi
   16f3b:	e8 b3 47 ff ff       	callq  b6f3 <transparent_crc>
   16f40:	48 8b 05 c9 61 00 00 	mov    0x61c9(%rip),%rax        # 1d110 <g_192>
   16f47:	8b 55 fc             	mov    -0x4(%rbp),%edx
   16f4a:	48 8d 35 01 2c 00 00 	lea    0x2c01(%rip),%rsi        # 19b52 <g_2140+0x1ae6>
   16f51:	48 89 c7             	mov    %rax,%rdi
   16f54:	e8 9a 47 ff ff       	callq  b6f3 <transparent_crc>
   16f59:	8b 05 b9 61 00 00    	mov    0x61b9(%rip),%eax        # 1d118 <g_194>
   16f5f:	89 c1                	mov    %eax,%ecx
   16f61:	8b 45 fc             	mov    -0x4(%rbp),%eax
   16f64:	89 c2                	mov    %eax,%edx
   16f66:	48 8d 35 eb 2b 00 00 	lea    0x2beb(%rip),%rsi        # 19b58 <g_2140+0x1aec>
   16f6d:	48 89 cf             	mov    %rcx,%rdi
   16f70:	e8 7e 47 ff ff       	callq  b6f3 <transparent_crc>
   16f75:	8b 05 a1 61 00 00    	mov    0x61a1(%rip),%eax        # 1d11c <g_197>
   16f7b:	48 98                	cltq   
   16f7d:	8b 55 fc             	mov    -0x4(%rbp),%edx
   16f80:	48 8d 35 d7 2b 00 00 	lea    0x2bd7(%rip),%rsi        # 19b5e <g_2140+0x1af2>
   16f87:	48 89 c7             	mov    %rax,%rdi
   16f8a:	e8 64 47 ff ff       	callq  b6f3 <transparent_crc>
   16f8f:	0f b6 05 8a 61 00 00 	movzbl 0x618a(%rip),%eax        # 1d120 <g_207>
   16f96:	0f b6 c0             	movzbl %al,%eax
   16f99:	8b 55 fc             	mov    -0x4(%rbp),%edx
   16f9c:	48 8d 35 c1 2b 00 00 	lea    0x2bc1(%rip),%rsi        # 19b64 <g_2140+0x1af8>
   16fa3:	48 89 c7             	mov    %rax,%rdi
   16fa6:	e8 48 47 ff ff       	callq  b6f3 <transparent_crc>
   16fab:	0f b7 05 72 61 00 00 	movzwl 0x6172(%rip),%eax        # 1d124 <g_223>
   16fb2:	48 0f bf c0          	movswq %ax,%rax
   16fb6:	8b 55 fc             	mov    -0x4(%rbp),%edx
   16fb9:	48 8d 35 ad 2b 00 00 	lea    0x2bad(%rip),%rsi        # 19b6d <g_2140+0x1b01>
   16fc0:	48 89 c7             	mov    %rax,%rdi
   16fc3:	e8 2b 47 ff ff       	callq  b6f3 <transparent_crc>
   16fc8:	8b 05 5a 61 00 00    	mov    0x615a(%rip),%eax        # 1d128 <g_249>
   16fce:	48 98                	cltq   
   16fd0:	8b 55 fc             	mov    -0x4(%rbp),%edx
   16fd3:	48 8d 35 99 2b 00 00 	lea    0x2b99(%rip),%rsi        # 19b73 <g_2140+0x1b07>
   16fda:	48 89 c7             	mov    %rax,%rdi
   16fdd:	e8 11 47 ff ff       	callq  b6f3 <transparent_crc>
   16fe2:	c7 45 f0 00 00 00 00 	movl   $0x0,-0x10(%rbp)
   16fe9:	eb 77                	jmp    17062 <main+0x644>
   16feb:	c7 45 f4 00 00 00 00 	movl   $0x0,-0xc(%rbp)
   16ff2:	eb 64                	jmp    17058 <main+0x63a>
   16ff4:	8b 45 f4             	mov    -0xc(%rbp),%eax
   16ff7:	48 63 c8             	movslq %eax,%rcx
   16ffa:	8b 45 f0             	mov    -0x10(%rbp),%eax
   16ffd:	48 63 d0             	movslq %eax,%rdx
   17000:	48 89 d0             	mov    %rdx,%rax
   17003:	48 c1 e0 03          	shl    $0x3,%rax
   17007:	48 01 d0             	add    %rdx,%rax
   1700a:	48 01 c8             	add    %rcx,%rax
   1700d:	48 8d 14 85 00 00 00 	lea    0x0(,%rax,4),%rdx
   17014:	00 
   17015:	48 8d 05 24 61 00 00 	lea    0x6124(%rip),%rax        # 1d140 <g_253>
   1701c:	8b 04 02             	mov    (%rdx,%rax,1),%eax
   1701f:	89 c1                	mov    %eax,%ecx
   17021:	8b 45 fc             	mov    -0x4(%rbp),%eax
   17024:	89 c2                	mov    %eax,%edx
   17026:	48 8d 35 4c 2b 00 00 	lea    0x2b4c(%rip),%rsi        # 19b79 <g_2140+0x1b0d>
   1702d:	48 89 cf             	mov    %rcx,%rdi
   17030:	e8 be 46 ff ff       	callq  b6f3 <transparent_crc>
   17035:	83 7d fc 00          	cmpl   $0x0,-0x4(%rbp)
   17039:	74 19                	je     17054 <main+0x636>
   1703b:	8b 55 f4             	mov    -0xc(%rbp),%edx
   1703e:	8b 45 f0             	mov    -0x10(%rbp),%eax
   17041:	89 c6                	mov    %eax,%esi
   17043:	48 8d 3d 9f 2a 00 00 	lea    0x2a9f(%rip),%rdi        # 19ae9 <g_2140+0x1a7d>
   1704a:	b8 00 00 00 00       	mov    $0x0,%eax
   1704f:	e8 2c 30 ff ff       	callq  a080 <printf@plt>
   17054:	83 45 f4 01          	addl   $0x1,-0xc(%rbp)
   17058:	83 7d f4 08          	cmpl   $0x8,-0xc(%rbp)
   1705c:	7e 96                	jle    16ff4 <main+0x5d6>
   1705e:	83 45 f0 01          	addl   $0x1,-0x10(%rbp)
   17062:	83 7d f0 05          	cmpl   $0x5,-0x10(%rbp)
   17066:	7e 83                	jle    16feb <main+0x5cd>
   17068:	8b 05 aa 61 00 00    	mov    0x61aa(%rip),%eax        # 1d218 <g_275>
   1706e:	48 98                	cltq   
   17070:	8b 55 fc             	mov    -0x4(%rbp),%edx
   17073:	48 8d 35 0b 2b 00 00 	lea    0x2b0b(%rip),%rsi        # 19b85 <g_2140+0x1b19>
   1707a:	48 89 c7             	mov    %rax,%rdi
   1707d:	e8 71 46 ff ff       	callq  b6f3 <transparent_crc>
   17082:	c7 45 f0 00 00 00 00 	movl   $0x0,-0x10(%rbp)
   17089:	eb 4d                	jmp    170d8 <main+0x6ba>
   1708b:	8b 45 f0             	mov    -0x10(%rbp),%eax
   1708e:	48 98                	cltq   
   17090:	48 8d 14 85 00 00 00 	lea    0x0(,%rax,4),%rdx
   17097:	00 
   17098:	48 8d 05 81 61 00 00 	lea    0x6181(%rip),%rax        # 1d220 <g_276>
   1709f:	8b 04 02             	mov    (%rdx,%rax,1),%eax
   170a2:	89 c1                	mov    %eax,%ecx
   170a4:	8b 45 fc             	mov    -0x4(%rbp),%eax
   170a7:	89 c2                	mov    %eax,%edx
   170a9:	48 8d 35 db 2a 00 00 	lea    0x2adb(%rip),%rsi        # 19b8b <g_2140+0x1b1f>
   170b0:	48 89 cf             	mov    %rcx,%rdi
   170b3:	e8 3b 46 ff ff       	callq  b6f3 <transparent_crc>
   170b8:	83 7d fc 00          	cmpl   $0x0,-0x4(%rbp)
   170bc:	74 16                	je     170d4 <main+0x6b6>
   170be:	8b 45 f0             	mov    -0x10(%rbp),%eax
   170c1:	89 c6                	mov    %eax,%esi
   170c3:	48 8d 3d ea 29 00 00 	lea    0x29ea(%rip),%rdi        # 19ab4 <g_2140+0x1a48>
   170ca:	b8 00 00 00 00       	mov    $0x0,%eax
   170cf:	e8 ac 2f ff ff       	callq  a080 <printf@plt>
   170d4:	83 45 f0 01          	addl   $0x1,-0x10(%rbp)
   170d8:	83 7d f0 08          	cmpl   $0x8,-0x10(%rbp)
   170dc:	7e ad                	jle    1708b <main+0x66d>
   170de:	8b 05 60 61 00 00    	mov    0x6160(%rip),%eax        # 1d244 <g_284>
   170e4:	89 c1                	mov    %eax,%ecx
   170e6:	8b 45 fc             	mov    -0x4(%rbp),%eax
   170e9:	89 c2                	mov    %eax,%edx
   170eb:	48 8d 35 a2 2a 00 00 	lea    0x2aa2(%rip),%rsi        # 19b94 <g_2140+0x1b28>
   170f2:	48 89 cf             	mov    %rcx,%rdi
   170f5:	e8 f9 45 ff ff       	callq  b6f3 <transparent_crc>
   170fa:	c7 45 f0 00 00 00 00 	movl   $0x0,-0x10(%rbp)
   17101:	eb 4f                	jmp    17152 <main+0x734>
   17103:	8b 45 f0             	mov    -0x10(%rbp),%eax
   17106:	48 98                	cltq   
   17108:	48 8d 14 c5 00 00 00 	lea    0x0(,%rax,8),%rdx
   1710f:	00 
   17110:	48 8d 05 49 61 00 00 	lea    0x6149(%rip),%rax        # 1d260 <g_290>
   17117:	48 8b 04 02          	mov    (%rdx,%rax,1),%rax
   1711b:	48 89 c1             	mov    %rax,%rcx
   1711e:	8b 45 fc             	mov    -0x4(%rbp),%eax
   17121:	89 c2                	mov    %eax,%edx
   17123:	48 8d 35 70 2a 00 00 	lea    0x2a70(%rip),%rsi        # 19b9a <g_2140+0x1b2e>
   1712a:	48 89 cf             	mov    %rcx,%rdi
   1712d:	e8 c1 45 ff ff       	callq  b6f3 <transparent_crc>
   17132:	83 7d fc 00          	cmpl   $0x0,-0x4(%rbp)
   17136:	74 16                	je     1714e <main+0x730>
   17138:	8b 45 f0             	mov    -0x10(%rbp),%eax
   1713b:	89 c6                	mov    %eax,%esi
   1713d:	48 8d 3d 70 29 00 00 	lea    0x2970(%rip),%rdi        # 19ab4 <g_2140+0x1a48>
   17144:	b8 00 00 00 00       	mov    $0x0,%eax
   17149:	e8 32 2f ff ff       	callq  a080 <printf@plt>
   1714e:	83 45 f0 01          	addl   $0x1,-0x10(%rbp)
   17152:	83 7d f0 07          	cmpl   $0x7,-0x10(%rbp)
   17156:	7e ab                	jle    17103 <main+0x6e5>
   17158:	0f b6 05 41 61 00 00 	movzbl 0x6141(%rip),%eax        # 1d2a0 <g_301>
   1715f:	0f b6 c0             	movzbl %al,%eax
   17162:	8b 55 fc             	mov    -0x4(%rbp),%edx
   17165:	48 8d 35 37 2a 00 00 	lea    0x2a37(%rip),%rsi        # 19ba3 <g_2140+0x1b37>
   1716c:	48 89 c7             	mov    %rax,%rdi
   1716f:	e8 7f 45 ff ff       	callq  b6f3 <transparent_crc>
   17174:	48 b8 38 d0 7f ed e1 	movabs $0xb601ade1ed7fd038,%rax
   1717b:	ad 01 b6 
   1717e:	48 89 c1             	mov    %rax,%rcx
   17181:	8b 45 fc             	mov    -0x4(%rbp),%eax
   17184:	89 c2                	mov    %eax,%edx
   17186:	48 8d 35 1f 2a 00 00 	lea    0x2a1f(%rip),%rsi        # 19bac <g_2140+0x1b40>
   1718d:	48 89 cf             	mov    %rcx,%rdi
   17190:	e8 5e 45 ff ff       	callq  b6f3 <transparent_crc>
   17195:	8b 05 c5 9c 00 00    	mov    0x9cc5(%rip),%eax        # 20e60 <g_374>
   1719b:	48 98                	cltq   
   1719d:	8b 55 fc             	mov    -0x4(%rbp),%edx
   171a0:	48 8d 35 0e 2a 00 00 	lea    0x2a0e(%rip),%rsi        # 19bb5 <g_2140+0x1b49>
   171a7:	48 89 c7             	mov    %rax,%rdi
   171aa:	e8 44 45 ff ff       	callq  b6f3 <transparent_crc>
   171af:	48 8b 05 f2 60 00 00 	mov    0x60f2(%rip),%rax        # 1d2a8 <g_376>
   171b6:	48 89 c1             	mov    %rax,%rcx
   171b9:	8b 45 fc             	mov    -0x4(%rbp),%eax
   171bc:	89 c2                	mov    %eax,%edx
   171be:	48 8d 35 f6 29 00 00 	lea    0x29f6(%rip),%rsi        # 19bbb <g_2140+0x1b4f>
   171c5:	48 89 cf             	mov    %rcx,%rdi
   171c8:	e8 26 45 ff ff       	callq  b6f3 <transparent_crc>
   171cd:	0f b6 05 dc 60 00 00 	movzbl 0x60dc(%rip),%eax        # 1d2b0 <g_509>
   171d4:	0f b6 c0             	movzbl %al,%eax
   171d7:	8b 55 fc             	mov    -0x4(%rbp),%edx
   171da:	48 8d 35 e3 29 00 00 	lea    0x29e3(%rip),%rsi        # 19bc4 <g_2140+0x1b58>
   171e1:	48 89 c7             	mov    %rax,%rdi
   171e4:	e8 0a 45 ff ff       	callq  b6f3 <transparent_crc>
   171e9:	b8 fd ff ff ff       	mov    $0xfffffffd,%eax
   171ee:	89 c1                	mov    %eax,%ecx
   171f0:	8b 45 fc             	mov    -0x4(%rbp),%eax
   171f3:	89 c2                	mov    %eax,%edx
   171f5:	48 8d 35 d1 29 00 00 	lea    0x29d1(%rip),%rsi        # 19bcd <g_2140+0x1b61>
   171fc:	48 89 cf             	mov    %rcx,%rdi
   171ff:	e8 ef 44 ff ff       	callq  b6f3 <transparent_crc>
   17204:	c7 45 f0 00 00 00 00 	movl   $0x0,-0x10(%rbp)
   1720b:	e9 ac 00 00 00       	jmpq   172bc <main+0x89e>
   17210:	8b 45 f0             	mov    -0x10(%rbp),%eax
   17213:	48 98                	cltq   
   17215:	48 8d 14 85 00 00 00 	lea    0x0(,%rax,4),%rdx
   1721c:	00 
   1721d:	48 8d 05 9c 60 00 00 	lea    0x609c(%rip),%rax        # 1d2c0 <g_518>
   17224:	8b 04 02             	mov    (%rdx,%rax,1),%eax
   17227:	89 c1                	mov    %eax,%ecx
   17229:	8b 45 fc             	mov    -0x4(%rbp),%eax
   1722c:	89 c2                	mov    %eax,%edx
   1722e:	48 8d 35 9e 29 00 00 	lea    0x299e(%rip),%rsi        # 19bd3 <g_2140+0x1b67>
   17235:	48 89 cf             	mov    %rcx,%rdi
   17238:	e8 b6 44 ff ff       	callq  b6f3 <transparent_crc>
   1723d:	8b 45 f0             	mov    -0x10(%rbp),%eax
   17240:	48 98                	cltq   
   17242:	48 8d 14 85 00 00 00 	lea    0x0(,%rax,4),%rdx
   17249:	00 
   1724a:	48 8d 05 6f 60 00 00 	lea    0x606f(%rip),%rax        # 1d2c0 <g_518>
   17251:	0f b6 04 02          	movzbl (%rdx,%rax,1),%eax
   17255:	48 0f be c0          	movsbq %al,%rax
   17259:	8b 55 fc             	mov    -0x4(%rbp),%edx
   1725c:	48 8d 35 7c 29 00 00 	lea    0x297c(%rip),%rsi        # 19bdf <g_2140+0x1b73>
   17263:	48 89 c7             	mov    %rax,%rdi
   17266:	e8 88 44 ff ff       	callq  b6f3 <transparent_crc>
   1726b:	8b 45 f0             	mov    -0x10(%rbp),%eax
   1726e:	48 98                	cltq   
   17270:	48 8d 14 85 00 00 00 	lea    0x0(,%rax,4),%rdx
   17277:	00 
   17278:	48 8d 05 41 60 00 00 	lea    0x6041(%rip),%rax        # 1d2c0 <g_518>
   1727f:	8b 04 02             	mov    (%rdx,%rax,1),%eax
   17282:	c1 e0 04             	shl    $0x4,%eax
   17285:	c1 f8 04             	sar    $0x4,%eax
   17288:	48 98                	cltq   
   1728a:	8b 55 fc             	mov    -0x4(%rbp),%edx
   1728d:	48 8d 35 57 29 00 00 	lea    0x2957(%rip),%rsi        # 19beb <g_2140+0x1b7f>
   17294:	48 89 c7             	mov    %rax,%rdi
   17297:	e8 57 44 ff ff       	callq  b6f3 <transparent_crc>
   1729c:	83 7d fc 00          	cmpl   $0x0,-0x4(%rbp)
   172a0:	74 16                	je     172b8 <main+0x89a>
   172a2:	8b 45 f0             	mov    -0x10(%rbp),%eax
   172a5:	89 c6                	mov    %eax,%esi
   172a7:	48 8d 3d 06 28 00 00 	lea    0x2806(%rip),%rdi        # 19ab4 <g_2140+0x1a48>
   172ae:	b8 00 00 00 00       	mov    $0x0,%eax
   172b3:	e8 c8 2d ff ff       	callq  a080 <printf@plt>
   172b8:	83 45 f0 01          	addl   $0x1,-0x10(%rbp)
   172bc:	83 7d f0 08          	cmpl   $0x8,-0x10(%rbp)
   172c0:	0f 8e 4a ff ff ff    	jle    17210 <main+0x7f2>
   172c6:	0f b6 05 17 60 00 00 	movzbl 0x6017(%rip),%eax        # 1d2e4 <g_533>
   172cd:	0f b6 c0             	movzbl %al,%eax
   172d0:	8b 55 fc             	mov    -0x4(%rbp),%edx
   172d3:	48 8d 35 1d 29 00 00 	lea    0x291d(%rip),%rsi        # 19bf7 <g_2140+0x1b8b>
   172da:	48 89 c7             	mov    %rax,%rdi
   172dd:	e8 11 44 ff ff       	callq  b6f3 <transparent_crc>
   172e2:	48 8b 05 ff 5f 00 00 	mov    0x5fff(%rip),%rax        # 1d2e8 <g_546>
   172e9:	8b 55 fc             	mov    -0x4(%rbp),%edx
   172ec:	48 8d 35 0d 29 00 00 	lea    0x290d(%rip),%rsi        # 19c00 <g_2140+0x1b94>
   172f3:	48 89 c7             	mov    %rax,%rdi
   172f6:	e8 f8 43 ff ff       	callq  b6f3 <transparent_crc>
   172fb:	8b 05 ef 5f 00 00    	mov    0x5fef(%rip),%eax        # 1d2f0 <g_577>
   17301:	89 c1                	mov    %eax,%ecx
   17303:	8b 45 fc             	mov    -0x4(%rbp),%eax
   17306:	89 c2                	mov    %eax,%edx
   17308:	48 8d 35 f7 28 00 00 	lea    0x28f7(%rip),%rsi        # 19c06 <g_2140+0x1b9a>
   1730f:	48 89 cf             	mov    %rcx,%rdi
   17312:	e8 dc 43 ff ff       	callq  b6f3 <transparent_crc>
   17317:	0f b6 05 d2 5f 00 00 	movzbl 0x5fd2(%rip),%eax        # 1d2f0 <g_577>
   1731e:	48 0f be c0          	movsbq %al,%rax
   17322:	8b 55 fc             	mov    -0x4(%rbp),%edx
   17325:	48 8d 35 e3 28 00 00 	lea    0x28e3(%rip),%rsi        # 19c0f <g_2140+0x1ba3>
   1732c:	48 89 c7             	mov    %rax,%rdi
   1732f:	e8 bf 43 ff ff       	callq  b6f3 <transparent_crc>
   17334:	8b 05 b6 5f 00 00    	mov    0x5fb6(%rip),%eax        # 1d2f0 <g_577>
   1733a:	c1 e0 04             	shl    $0x4,%eax
   1733d:	c1 f8 04             	sar    $0x4,%eax
   17340:	48 98                	cltq   
   17342:	8b 55 fc             	mov    -0x4(%rbp),%edx
   17345:	48 8d 35 cc 28 00 00 	lea    0x28cc(%rip),%rsi        # 19c18 <g_2140+0x1bac>
   1734c:	48 89 c7             	mov    %rax,%rdi
   1734f:	e8 9f 43 ff ff       	callq  b6f3 <transparent_crc>
   17354:	0f b7 05 99 5f 00 00 	movzwl 0x5f99(%rip),%eax        # 1d2f4 <g_623>
   1735b:	48 0f bf c0          	movswq %ax,%rax
   1735f:	8b 55 fc             	mov    -0x4(%rbp),%edx
   17362:	48 8d 35 b8 28 00 00 	lea    0x28b8(%rip),%rsi        # 19c21 <g_2140+0x1bb5>
   17369:	48 89 c7             	mov    %rax,%rdi
   1736c:	e8 82 43 ff ff       	callq  b6f3 <transparent_crc>
   17371:	8b 05 81 5f 00 00    	mov    0x5f81(%rip),%eax        # 1d2f8 <g_646>
   17377:	48 98                	cltq   
   17379:	8b 55 fc             	mov    -0x4(%rbp),%edx
   1737c:	48 8d 35 a4 28 00 00 	lea    0x28a4(%rip),%rsi        # 19c27 <g_2140+0x1bbb>
   17383:	48 89 c7             	mov    %rax,%rdi
   17386:	e8 68 43 ff ff       	callq  b6f3 <transparent_crc>
   1738b:	8b 05 6b 5f 00 00    	mov    0x5f6b(%rip),%eax        # 1d2fc <g_650>
   17391:	48 98                	cltq   
   17393:	8b 55 fc             	mov    -0x4(%rbp),%edx
   17396:	48 8d 35 90 28 00 00 	lea    0x2890(%rip),%rsi        # 19c2d <g_2140+0x1bc1>
   1739d:	48 89 c7             	mov    %rax,%rdi
   173a0:	e8 4e 43 ff ff       	callq  b6f3 <transparent_crc>
   173a5:	c7 45 f0 00 00 00 00 	movl   $0x0,-0x10(%rbp)
   173ac:	e9 96 00 00 00       	jmpq   17447 <main+0xa29>
   173b1:	c7 45 f4 00 00 00 00 	movl   $0x0,-0xc(%rbp)
   173b8:	eb 7f                	jmp    17439 <main+0xa1b>
   173ba:	c7 45 f8 00 00 00 00 	movl   $0x0,-0x8(%rbp)
   173c1:	eb 6c                	jmp    1742f <main+0xa11>
   173c3:	8b 45 f8             	mov    -0x8(%rbp),%eax
   173c6:	48 63 f0             	movslq %eax,%rsi
   173c9:	8b 45 f4             	mov    -0xc(%rbp),%eax
   173cc:	48 63 c8             	movslq %eax,%rcx
   173cf:	8b 45 f0             	mov    -0x10(%rbp),%eax
   173d2:	48 63 d0             	movslq %eax,%rdx
   173d5:	48 89 d0             	mov    %rdx,%rax
   173d8:	48 c1 e0 02          	shl    $0x2,%rax
   173dc:	48 01 d0             	add    %rdx,%rax
   173df:	48 01 f0             	add    %rsi,%rax
   173e2:	48 01 c8             	add    %rcx,%rax
   173e5:	48 8d 14 00          	lea    (%rax,%rax,1),%rdx
   173e9:	48 8d 05 10 5f 00 00 	lea    0x5f10(%rip),%rax        # 1d300 <g_651>
   173f0:	0f b7 04 02          	movzwl (%rdx,%rax,1),%eax
   173f4:	0f b7 c0             	movzwl %ax,%eax
   173f7:	8b 55 fc             	mov    -0x4(%rbp),%edx
   173fa:	48 8d 35 32 28 00 00 	lea    0x2832(%rip),%rsi        # 19c33 <g_2140+0x1bc7>
   17401:	48 89 c7             	mov    %rax,%rdi
   17404:	e8 ea 42 ff ff       	callq  b6f3 <transparent_crc>
   17409:	83 7d fc 00          	cmpl   $0x0,-0x4(%rbp)
   1740d:	74 1c                	je     1742b <main+0xa0d>
   1740f:	8b 4d f8             	mov    -0x8(%rbp),%ecx
   17412:	8b 55 f4             	mov    -0xc(%rbp),%edx
   17415:	8b 45 f0             	mov    -0x10(%rbp),%eax
   17418:	89 c6                	mov    %eax,%esi
   1741a:	48 8d 3d 21 28 00 00 	lea    0x2821(%rip),%rdi        # 19c42 <g_2140+0x1bd6>
   17421:	b8 00 00 00 00       	mov    $0x0,%eax
   17426:	e8 55 2c ff ff       	callq  a080 <printf@plt>
   1742b:	83 45 f8 01          	addl   $0x1,-0x8(%rbp)
   1742f:	83 7d f8 00          	cmpl   $0x0,-0x8(%rbp)
   17433:	7e 8e                	jle    173c3 <main+0x9a5>
   17435:	83 45 f4 01          	addl   $0x1,-0xc(%rbp)
   17439:	83 7d f4 04          	cmpl   $0x4,-0xc(%rbp)
   1743d:	0f 8e 77 ff ff ff    	jle    173ba <main+0x99c>
   17443:	83 45 f0 01          	addl   $0x1,-0x10(%rbp)
   17447:	83 7d f0 04          	cmpl   $0x4,-0x10(%rbp)
   1744b:	0f 8e 60 ff ff ff    	jle    173b1 <main+0x993>
   17451:	8b 05 dd 5e 00 00    	mov    0x5edd(%rip),%eax        # 1d334 <g_658>
   17457:	89 c1                	mov    %eax,%ecx
   17459:	8b 45 fc             	mov    -0x4(%rbp),%eax
   1745c:	89 c2                	mov    %eax,%edx
   1745e:	48 8d 35 f3 27 00 00 	lea    0x27f3(%rip),%rsi        # 19c58 <g_2140+0x1bec>
   17465:	48 89 cf             	mov    %rcx,%rdi
   17468:	e8 86 42 ff ff       	callq  b6f3 <transparent_crc>
   1746d:	0f b6 05 c0 5e 00 00 	movzbl 0x5ec0(%rip),%eax        # 1d334 <g_658>
   17474:	48 0f be c0          	movsbq %al,%rax
   17478:	8b 55 fc             	mov    -0x4(%rbp),%edx
   1747b:	48 8d 35 df 27 00 00 	lea    0x27df(%rip),%rsi        # 19c61 <g_2140+0x1bf5>
   17482:	48 89 c7             	mov    %rax,%rdi
   17485:	e8 69 42 ff ff       	callq  b6f3 <transparent_crc>
   1748a:	8b 05 a4 5e 00 00    	mov    0x5ea4(%rip),%eax        # 1d334 <g_658>
   17490:	c1 e0 04             	shl    $0x4,%eax
   17493:	c1 f8 04             	sar    $0x4,%eax
   17496:	48 98                	cltq   
   17498:	8b 55 fc             	mov    -0x4(%rbp),%edx
   1749b:	48 8d 35 c8 27 00 00 	lea    0x27c8(%rip),%rsi        # 19c6a <g_2140+0x1bfe>
   174a2:	48 89 c7             	mov    %rax,%rdi
   174a5:	e8 49 42 ff ff       	callq  b6f3 <transparent_crc>
   174aa:	c7 45 f0 00 00 00 00 	movl   $0x0,-0x10(%rbp)
   174b1:	e9 ac 00 00 00       	jmpq   17562 <main+0xb44>
   174b6:	8b 45 f0             	mov    -0x10(%rbp),%eax
   174b9:	48 98                	cltq   
   174bb:	48 8d 14 85 00 00 00 	lea    0x0(,%rax,4),%rdx
   174c2:	00 
   174c3:	48 8d 05 76 5e 00 00 	lea    0x5e76(%rip),%rax        # 1d340 <g_737>
   174ca:	8b 04 02             	mov    (%rdx,%rax,1),%eax
   174cd:	89 c1                	mov    %eax,%ecx
   174cf:	8b 45 fc             	mov    -0x4(%rbp),%eax
   174d2:	89 c2                	mov    %eax,%edx
   174d4:	48 8d 35 98 27 00 00 	lea    0x2798(%rip),%rsi        # 19c73 <g_2140+0x1c07>
   174db:	48 89 cf             	mov    %rcx,%rdi
   174de:	e8 10 42 ff ff       	callq  b6f3 <transparent_crc>
   174e3:	8b 45 f0             	mov    -0x10(%rbp),%eax
   174e6:	48 98                	cltq   
   174e8:	48 8d 14 85 00 00 00 	lea    0x0(,%rax,4),%rdx
   174ef:	00 
   174f0:	48 8d 05 49 5e 00 00 	lea    0x5e49(%rip),%rax        # 1d340 <g_737>
   174f7:	0f b6 04 02          	movzbl (%rdx,%rax,1),%eax
   174fb:	48 0f be c0          	movsbq %al,%rax
   174ff:	8b 55 fc             	mov    -0x4(%rbp),%edx
   17502:	48 8d 35 76 27 00 00 	lea    0x2776(%rip),%rsi        # 19c7f <g_2140+0x1c13>
   17509:	48 89 c7             	mov    %rax,%rdi
   1750c:	e8 e2 41 ff ff       	callq  b6f3 <transparent_crc>
   17511:	8b 45 f0             	mov    -0x10(%rbp),%eax
   17514:	48 98                	cltq   
   17516:	48 8d 14 85 00 00 00 	lea    0x0(,%rax,4),%rdx
   1751d:	00 
   1751e:	48 8d 05 1b 5e 00 00 	lea    0x5e1b(%rip),%rax        # 1d340 <g_737>
   17525:	8b 04 02             	mov    (%rdx,%rax,1),%eax
   17528:	c1 e0 04             	shl    $0x4,%eax
   1752b:	c1 f8 04             	sar    $0x4,%eax
   1752e:	48 98                	cltq   
   17530:	8b 55 fc             	mov    -0x4(%rbp),%edx
   17533:	48 8d 35 51 27 00 00 	lea    0x2751(%rip),%rsi        # 19c8b <g_2140+0x1c1f>
   1753a:	48 89 c7             	mov    %rax,%rdi
   1753d:	e8 b1 41 ff ff       	callq  b6f3 <transparent_crc>
   17542:	83 7d fc 00          	cmpl   $0x0,-0x4(%rbp)
   17546:	74 16                	je     1755e <main+0xb40>
   17548:	8b 45 f0             	mov    -0x10(%rbp),%eax
   1754b:	89 c6                	mov    %eax,%esi
   1754d:	48 8d 3d 60 25 00 00 	lea    0x2560(%rip),%rdi        # 19ab4 <g_2140+0x1a48>
   17554:	b8 00 00 00 00       	mov    $0x0,%eax
   17559:	e8 22 2b ff ff       	callq  a080 <printf@plt>
   1755e:	83 45 f0 01          	addl   $0x1,-0x10(%rbp)
   17562:	83 7d f0 08          	cmpl   $0x8,-0x10(%rbp)
   17566:	0f 8e 4a ff ff ff    	jle    174b6 <main+0xa98>
   1756c:	0f b7 05 f1 5d 00 00 	movzwl 0x5df1(%rip),%eax        # 1d364 <g_774>
   17573:	48 0f bf c0          	movswq %ax,%rax
   17577:	8b 55 fc             	mov    -0x4(%rbp),%edx
   1757a:	48 8d 35 16 27 00 00 	lea    0x2716(%rip),%rsi        # 19c97 <g_2140+0x1c2b>
   17581:	48 89 c7             	mov    %rax,%rdi
   17584:	e8 6a 41 ff ff       	callq  b6f3 <transparent_crc>
   17589:	8b 05 d9 5d 00 00    	mov    0x5dd9(%rip),%eax        # 1d368 <g_777>
   1758f:	89 c1                	mov    %eax,%ecx
   17591:	8b 45 fc             	mov    -0x4(%rbp),%eax
   17594:	89 c2                	mov    %eax,%edx
   17596:	48 8d 35 00 27 00 00 	lea    0x2700(%rip),%rsi        # 19c9d <g_2140+0x1c31>
   1759d:	48 89 cf             	mov    %rcx,%rdi
   175a0:	e8 4e 41 ff ff       	callq  b6f3 <transparent_crc>
   175a5:	0f b6 05 c0 5d 00 00 	movzbl 0x5dc0(%rip),%eax        # 1d36c <g_850>
   175ac:	0f b6 c0             	movzbl %al,%eax
   175af:	8b 55 fc             	mov    -0x4(%rbp),%edx
   175b2:	48 8d 35 ea 26 00 00 	lea    0x26ea(%rip),%rsi        # 19ca3 <g_2140+0x1c37>
   175b9:	48 89 c7             	mov    %rax,%rdi
   175bc:	e8 32 41 ff ff       	callq  b6f3 <transparent_crc>
   175c1:	8b 05 9d 0a 00 00    	mov    0xa9d(%rip),%eax        # 18064 <g_858>
   175c7:	89 c1                	mov    %eax,%ecx
   175c9:	8b 45 fc             	mov    -0x4(%rbp),%eax
   175cc:	89 c2                	mov    %eax,%edx
   175ce:	48 8d 35 d7 26 00 00 	lea    0x26d7(%rip),%rsi        # 19cac <g_2140+0x1c40>
   175d5:	48 89 cf             	mov    %rcx,%rdi
   175d8:	e8 16 41 ff ff       	callq  b6f3 <transparent_crc>
   175dd:	b8 fb ff ff ff       	mov    $0xfffffffb,%eax
   175e2:	48 0f be c0          	movsbq %al,%rax
   175e6:	8b 55 fc             	mov    -0x4(%rbp),%edx
   175e9:	48 8d 35 c5 26 00 00 	lea    0x26c5(%rip),%rsi        # 19cb5 <g_2140+0x1c49>
   175f0:	48 89 c7             	mov    %rax,%rdi
   175f3:	e8 fb 40 ff ff       	callq  b6f3 <transparent_crc>
   175f8:	8b 05 66 0a 00 00    	mov    0xa66(%rip),%eax        # 18064 <g_858>
   175fe:	c1 e0 04             	shl    $0x4,%eax
   17601:	c1 f8 04             	sar    $0x4,%eax
   17604:	48 98                	cltq   
   17606:	8b 55 fc             	mov    -0x4(%rbp),%edx
   17609:	48 8d 35 ae 26 00 00 	lea    0x26ae(%rip),%rsi        # 19cbe <g_2140+0x1c52>
   17610:	48 89 c7             	mov    %rax,%rdi
   17613:	e8 db 40 ff ff       	callq  b6f3 <transparent_crc>
   17618:	b8 05 00 00 00       	mov    $0x5,%eax
   1761d:	48 98                	cltq   
   1761f:	8b 55 fc             	mov    -0x4(%rbp),%edx
   17622:	48 8d 35 9e 26 00 00 	lea    0x269e(%rip),%rsi        # 19cc7 <g_2140+0x1c5b>
   17629:	48 89 c7             	mov    %rax,%rdi
   1762c:	e8 c2 40 ff ff       	callq  b6f3 <transparent_crc>
   17631:	8b 05 39 5d 00 00    	mov    0x5d39(%rip),%eax        # 1d370 <g_956>
   17637:	89 c1                	mov    %eax,%ecx
   17639:	8b 45 fc             	mov    -0x4(%rbp),%eax
   1763c:	89 c2                	mov    %eax,%edx
   1763e:	48 8d 35 88 26 00 00 	lea    0x2688(%rip),%rsi        # 19ccd <g_2140+0x1c61>
   17645:	48 89 cf             	mov    %rcx,%rdi
   17648:	e8 a6 40 ff ff       	callq  b6f3 <transparent_crc>
   1764d:	0f b6 05 20 5d 00 00 	movzbl 0x5d20(%rip),%eax        # 1d374 <g_976>
   17654:	0f b6 c0             	movzbl %al,%eax
   17657:	8b 55 fc             	mov    -0x4(%rbp),%edx
   1765a:	48 8d 35 72 26 00 00 	lea    0x2672(%rip),%rsi        # 19cd3 <g_2140+0x1c67>
   17661:	48 89 c7             	mov    %rax,%rdi
   17664:	e8 8a 40 ff ff       	callq  b6f3 <transparent_crc>
   17669:	0f b6 05 08 5d 00 00 	movzbl 0x5d08(%rip),%eax        # 1d378 <g_994>
   17670:	0f b6 c0             	movzbl %al,%eax
   17673:	8b 55 fc             	mov    -0x4(%rbp),%edx
   17676:	48 8d 35 5f 26 00 00 	lea    0x265f(%rip),%rsi        # 19cdc <g_2140+0x1c70>
   1767d:	48 89 c7             	mov    %rax,%rdi
   17680:	e8 6e 40 ff ff       	callq  b6f3 <transparent_crc>
   17685:	0f b6 05 f0 5c 00 00 	movzbl 0x5cf0(%rip),%eax        # 1d37c <g_1014>
   1768c:	0f b6 c0             	movzbl %al,%eax
   1768f:	8b 55 fc             	mov    -0x4(%rbp),%edx
   17692:	48 8d 35 4c 26 00 00 	lea    0x264c(%rip),%rsi        # 19ce5 <g_2140+0x1c79>
   17699:	48 89 c7             	mov    %rax,%rdi
   1769c:	e8 52 40 ff ff       	callq  b6f3 <transparent_crc>
   176a1:	8b 05 d9 5c 00 00    	mov    0x5cd9(%rip),%eax        # 1d380 <g_1017>
   176a7:	89 c1                	mov    %eax,%ecx
   176a9:	8b 45 fc             	mov    -0x4(%rbp),%eax
   176ac:	89 c2                	mov    %eax,%edx
   176ae:	48 8d 35 3a 26 00 00 	lea    0x263a(%rip),%rsi        # 19cef <g_2140+0x1c83>
   176b5:	48 89 cf             	mov    %rcx,%rdi
   176b8:	e8 36 40 ff ff       	callq  b6f3 <transparent_crc>
   176bd:	0f b6 05 c0 5c 00 00 	movzbl 0x5cc0(%rip),%eax        # 1d384 <g_1037>
   176c4:	0f b6 c0             	movzbl %al,%eax
   176c7:	8b 55 fc             	mov    -0x4(%rbp),%edx
   176ca:	48 8d 35 25 26 00 00 	lea    0x2625(%rip),%rsi        # 19cf6 <g_2140+0x1c8a>
   176d1:	48 89 c7             	mov    %rax,%rdi
   176d4:	e8 1a 40 ff ff       	callq  b6f3 <transparent_crc>
   176d9:	0f b6 05 a8 5c 00 00 	movzbl 0x5ca8(%rip),%eax        # 1d388 <g_1043>
   176e0:	0f b6 c0             	movzbl %al,%eax
   176e3:	8b 55 fc             	mov    -0x4(%rbp),%edx
   176e6:	48 8d 35 13 26 00 00 	lea    0x2613(%rip),%rsi        # 19d00 <g_2140+0x1c94>
   176ed:	48 89 c7             	mov    %rax,%rdi
   176f0:	e8 fe 3f ff ff       	callq  b6f3 <transparent_crc>
   176f5:	0f b6 05 90 5c 00 00 	movzbl 0x5c90(%rip),%eax        # 1d38c <g_1088>
   176fc:	0f b6 c0             	movzbl %al,%eax
   176ff:	8b 55 fc             	mov    -0x4(%rbp),%edx
   17702:	48 8d 35 01 26 00 00 	lea    0x2601(%rip),%rsi        # 19d0a <g_2140+0x1c9e>
   17709:	48 89 c7             	mov    %rax,%rdi
   1770c:	e8 e2 3f ff ff       	callq  b6f3 <transparent_crc>
   17711:	48 8b 05 78 5c 00 00 	mov    0x5c78(%rip),%rax        # 1d390 <g_1179>
   17718:	48 89 c1             	mov    %rax,%rcx
   1771b:	8b 45 fc             	mov    -0x4(%rbp),%eax
   1771e:	89 c2                	mov    %eax,%edx
   17720:	48 8d 35 ed 25 00 00 	lea    0x25ed(%rip),%rsi        # 19d14 <g_2140+0x1ca8>
   17727:	48 89 cf             	mov    %rcx,%rdi
   1772a:	e8 c4 3f ff ff       	callq  b6f3 <transparent_crc>
   1772f:	c7 45 f0 00 00 00 00 	movl   $0x0,-0x10(%rbp)
   17736:	eb 75                	jmp    177ad <main+0xd8f>
   17738:	c7 45 f4 00 00 00 00 	movl   $0x0,-0xc(%rbp)
   1773f:	eb 62                	jmp    177a3 <main+0xd85>
   17741:	8b 45 f4             	mov    -0xc(%rbp),%eax
   17744:	48 63 c8             	movslq %eax,%rcx
   17747:	8b 45 f0             	mov    -0x10(%rbp),%eax
   1774a:	48 63 d0             	movslq %eax,%rdx
   1774d:	48 89 d0             	mov    %rdx,%rax
   17750:	48 01 c0             	add    %rax,%rax
   17753:	48 01 d0             	add    %rdx,%rax
   17756:	48 01 c0             	add    %rax,%rax
   17759:	48 01 c8             	add    %rcx,%rax
   1775c:	48 8d 14 00          	lea    (%rax,%rax,1),%rdx
   17760:	48 8d 05 39 5c 00 00 	lea    0x5c39(%rip),%rax        # 1d3a0 <g_1188>
   17767:	0f b7 04 02          	movzwl (%rdx,%rax,1),%eax
   1776b:	0f b7 c0             	movzwl %ax,%eax
   1776e:	8b 55 fc             	mov    -0x4(%rbp),%edx
   17771:	48 8d 35 a3 25 00 00 	lea    0x25a3(%rip),%rsi        # 19d1b <g_2140+0x1caf>
   17778:	48 89 c7             	mov    %rax,%rdi
   1777b:	e8 73 3f ff ff       	callq  b6f3 <transparent_crc>
   17780:	83 7d fc 00          	cmpl   $0x0,-0x4(%rbp)
   17784:	74 19                	je     1779f <main+0xd81>
   17786:	8b 55 f4             	mov    -0xc(%rbp),%edx
   17789:	8b 45 f0             	mov    -0x10(%rbp),%eax
   1778c:	89 c6                	mov    %eax,%esi
   1778e:	48 8d 3d 54 23 00 00 	lea    0x2354(%rip),%rdi        # 19ae9 <g_2140+0x1a7d>
   17795:	b8 00 00 00 00       	mov    $0x0,%eax
   1779a:	e8 e1 28 ff ff       	callq  a080 <printf@plt>
   1779f:	83 45 f4 01          	addl   $0x1,-0xc(%rbp)
   177a3:	83 7d f4 05          	cmpl   $0x5,-0xc(%rbp)
   177a7:	7e 98                	jle    17741 <main+0xd23>
   177a9:	83 45 f0 01          	addl   $0x1,-0x10(%rbp)
   177ad:	83 7d f0 05          	cmpl   $0x5,-0x10(%rbp)
   177b1:	7e 85                	jle    17738 <main+0xd1a>
   177b3:	8b 05 2f 5c 00 00    	mov    0x5c2f(%rip),%eax        # 1d3e8 <g_1191>
   177b9:	89 c1                	mov    %eax,%ecx
   177bb:	8b 45 fc             	mov    -0x4(%rbp),%eax
   177be:	89 c2                	mov    %eax,%edx
   177c0:	48 8d 35 61 25 00 00 	lea    0x2561(%rip),%rsi        # 19d28 <g_2140+0x1cbc>
   177c7:	48 89 cf             	mov    %rcx,%rdi
   177ca:	e8 24 3f ff ff       	callq  b6f3 <transparent_crc>
   177cf:	0f b6 05 12 5c 00 00 	movzbl 0x5c12(%rip),%eax        # 1d3e8 <g_1191>
   177d6:	48 0f be c0          	movsbq %al,%rax
   177da:	8b 55 fc             	mov    -0x4(%rbp),%edx
   177dd:	48 8d 35 4e 25 00 00 	lea    0x254e(%rip),%rsi        # 19d32 <g_2140+0x1cc6>
   177e4:	48 89 c7             	mov    %rax,%rdi
   177e7:	e8 07 3f ff ff       	callq  b6f3 <transparent_crc>
   177ec:	8b 05 f6 5b 00 00    	mov    0x5bf6(%rip),%eax        # 1d3e8 <g_1191>
   177f2:	c1 e0 04             	shl    $0x4,%eax
   177f5:	c1 f8 04             	sar    $0x4,%eax
   177f8:	48 98                	cltq   
   177fa:	8b 55 fc             	mov    -0x4(%rbp),%edx
   177fd:	48 8d 35 38 25 00 00 	lea    0x2538(%rip),%rsi        # 19d3c <g_2140+0x1cd0>
   17804:	48 89 c7             	mov    %rax,%rdi
   17807:	e8 e7 3e ff ff       	callq  b6f3 <transparent_crc>
   1780c:	8b 05 da 5b 00 00    	mov    0x5bda(%rip),%eax        # 1d3ec <g_1307>
   17812:	89 c1                	mov    %eax,%ecx
   17814:	8b 45 fc             	mov    -0x4(%rbp),%eax
   17817:	89 c2                	mov    %eax,%edx
   17819:	48 8d 35 26 25 00 00 	lea    0x2526(%rip),%rsi        # 19d46 <g_2140+0x1cda>
   17820:	48 89 cf             	mov    %rcx,%rdi
   17823:	e8 cb 3e ff ff       	callq  b6f3 <transparent_crc>
   17828:	0f b6 05 bd 5b 00 00 	movzbl 0x5bbd(%rip),%eax        # 1d3ec <g_1307>
   1782f:	48 0f be c0          	movsbq %al,%rax
   17833:	8b 55 fc             	mov    -0x4(%rbp),%edx
   17836:	48 8d 35 13 25 00 00 	lea    0x2513(%rip),%rsi        # 19d50 <g_2140+0x1ce4>
   1783d:	48 89 c7             	mov    %rax,%rdi
   17840:	e8 ae 3e ff ff       	callq  b6f3 <transparent_crc>
   17845:	8b 05 a1 5b 00 00    	mov    0x5ba1(%rip),%eax        # 1d3ec <g_1307>
   1784b:	c1 e0 04             	shl    $0x4,%eax
   1784e:	c1 f8 04             	sar    $0x4,%eax
   17851:	48 98                	cltq   
   17853:	8b 55 fc             	mov    -0x4(%rbp),%edx
   17856:	48 8d 35 fd 24 00 00 	lea    0x24fd(%rip),%rsi        # 19d5a <g_2140+0x1cee>
   1785d:	48 89 c7             	mov    %rax,%rdi
   17860:	e8 8e 3e ff ff       	callq  b6f3 <transparent_crc>
   17865:	0f b6 05 84 5b 00 00 	movzbl 0x5b84(%rip),%eax        # 1d3f0 <g_1309>
   1786c:	0f b6 c0             	movzbl %al,%eax
   1786f:	8b 55 fc             	mov    -0x4(%rbp),%edx
   17872:	48 8d 35 eb 24 00 00 	lea    0x24eb(%rip),%rsi        # 19d64 <g_2140+0x1cf8>
   17879:	48 89 c7             	mov    %rax,%rdi
   1787c:	e8 72 3e ff ff       	callq  b6f3 <transparent_crc>
   17881:	8b 05 6d 5b 00 00    	mov    0x5b6d(%rip),%eax        # 1d3f4 <g_1333>
   17887:	89 c1                	mov    %eax,%ecx
   17889:	8b 45 fc             	mov    -0x4(%rbp),%eax
   1788c:	89 c2                	mov    %eax,%edx
   1788e:	48 8d 35 d9 24 00 00 	lea    0x24d9(%rip),%rsi        # 19d6e <g_2140+0x1d02>
   17895:	48 89 cf             	mov    %rcx,%rdi
   17898:	e8 56 3e ff ff       	callq  b6f3 <transparent_crc>
   1789d:	0f b6 05 50 5b 00 00 	movzbl 0x5b50(%rip),%eax        # 1d3f4 <g_1333>
   178a4:	48 0f be c0          	movsbq %al,%rax
   178a8:	8b 55 fc             	mov    -0x4(%rbp),%edx
   178ab:	48 8d 35 c6 24 00 00 	lea    0x24c6(%rip),%rsi        # 19d78 <g_2140+0x1d0c>
   178b2:	48 89 c7             	mov    %rax,%rdi
   178b5:	e8 39 3e ff ff       	callq  b6f3 <transparent_crc>
   178ba:	8b 05 34 5b 00 00    	mov    0x5b34(%rip),%eax        # 1d3f4 <g_1333>
   178c0:	c1 e0 04             	shl    $0x4,%eax
   178c3:	c1 f8 04             	sar    $0x4,%eax
   178c6:	48 98                	cltq   
   178c8:	8b 55 fc             	mov    -0x4(%rbp),%edx
   178cb:	48 8d 35 b0 24 00 00 	lea    0x24b0(%rip),%rsi        # 19d82 <g_2140+0x1d16>
   178d2:	48 89 c7             	mov    %rax,%rdi
   178d5:	e8 19 3e ff ff       	callq  b6f3 <transparent_crc>
   178da:	8b 05 18 5b 00 00    	mov    0x5b18(%rip),%eax        # 1d3f8 <g_1522>
   178e0:	89 c1                	mov    %eax,%ecx
   178e2:	8b 45 fc             	mov    -0x4(%rbp),%eax
   178e5:	89 c2                	mov    %eax,%edx
   178e7:	48 8d 35 9e 24 00 00 	lea    0x249e(%rip),%rsi        # 19d8c <g_2140+0x1d20>
   178ee:	48 89 cf             	mov    %rcx,%rdi
   178f1:	e8 fd 3d ff ff       	callq  b6f3 <transparent_crc>
   178f6:	0f b6 05 ff 5a 00 00 	movzbl 0x5aff(%rip),%eax        # 1d3fc <g_1711>
   178fd:	0f b6 c0             	movzbl %al,%eax
   17900:	8b 55 fc             	mov    -0x4(%rbp),%edx
   17903:	48 8d 35 89 24 00 00 	lea    0x2489(%rip),%rsi        # 19d93 <g_2140+0x1d27>
   1790a:	48 89 c7             	mov    %rax,%rdi
   1790d:	e8 e1 3d ff ff       	callq  b6f3 <transparent_crc>
   17912:	0f b6 05 e7 5a 00 00 	movzbl 0x5ae7(%rip),%eax        # 1d400 <g_1714>
   17919:	0f b6 c0             	movzbl %al,%eax
   1791c:	8b 55 fc             	mov    -0x4(%rbp),%edx
   1791f:	48 8d 35 74 24 00 00 	lea    0x2474(%rip),%rsi        # 19d9a <g_2140+0x1d2e>
   17926:	48 89 c7             	mov    %rax,%rdi
   17929:	e8 c5 3d ff ff       	callq  b6f3 <transparent_crc>
   1792e:	0f b6 05 cf 5a 00 00 	movzbl 0x5acf(%rip),%eax        # 1d404 <g_1799>
   17935:	48 0f be c0          	movsbq %al,%rax
   17939:	8b 55 fc             	mov    -0x4(%rbp),%edx
   1793c:	48 8d 35 61 24 00 00 	lea    0x2461(%rip),%rsi        # 19da4 <g_2140+0x1d38>
   17943:	48 89 c7             	mov    %rax,%rdi
   17946:	e8 a8 3d ff ff       	callq  b6f3 <transparent_crc>
   1794b:	0f b6 05 b6 5a 00 00 	movzbl 0x5ab6(%rip),%eax        # 1d408 <g_1833>
   17952:	0f b6 c0             	movzbl %al,%eax
   17955:	8b 55 fc             	mov    -0x4(%rbp),%edx
   17958:	48 8d 35 4c 24 00 00 	lea    0x244c(%rip),%rsi        # 19dab <g_2140+0x1d3f>
   1795f:	48 89 c7             	mov    %rax,%rdi
   17962:	e8 8c 3d ff ff       	callq  b6f3 <transparent_crc>
   17967:	0f b6 05 9e 5a 00 00 	movzbl 0x5a9e(%rip),%eax        # 1d40c <g_1896>
   1796e:	48 0f be c0          	movsbq %al,%rax
   17972:	8b 55 fc             	mov    -0x4(%rbp),%edx
   17975:	48 8d 35 39 24 00 00 	lea    0x2439(%rip),%rsi        # 19db5 <g_2140+0x1d49>
   1797c:	48 89 c7             	mov    %rax,%rdi
   1797f:	e8 6f 3d ff ff       	callq  b6f3 <transparent_crc>
   17984:	8b 05 86 5a 00 00    	mov    0x5a86(%rip),%eax        # 1d410 <g_1900>
   1798a:	89 c1                	mov    %eax,%ecx
   1798c:	8b 45 fc             	mov    -0x4(%rbp),%eax
   1798f:	89 c2                	mov    %eax,%edx
   17991:	48 8d 35 24 24 00 00 	lea    0x2424(%rip),%rsi        # 19dbc <g_2140+0x1d50>
   17998:	48 89 cf             	mov    %rcx,%rdi
   1799b:	e8 53 3d ff ff       	callq  b6f3 <transparent_crc>
   179a0:	0f b6 05 6d 5a 00 00 	movzbl 0x5a6d(%rip),%eax        # 1d414 <g_1912>
   179a7:	0f b6 c0             	movzbl %al,%eax
   179aa:	8b 55 fc             	mov    -0x4(%rbp),%edx
   179ad:	48 8d 35 0f 24 00 00 	lea    0x240f(%rip),%rsi        # 19dc3 <g_2140+0x1d57>
   179b4:	48 89 c7             	mov    %rax,%rdi
   179b7:	e8 37 3d ff ff       	callq  b6f3 <transparent_crc>
   179bc:	8b 05 56 5a 00 00    	mov    0x5a56(%rip),%eax        # 1d418 <g_2021>
   179c2:	89 c1                	mov    %eax,%ecx
   179c4:	8b 45 fc             	mov    -0x4(%rbp),%eax
   179c7:	89 c2                	mov    %eax,%edx
   179c9:	48 8d 35 fd 23 00 00 	lea    0x23fd(%rip),%rsi        # 19dcd <g_2140+0x1d61>
   179d0:	48 89 cf             	mov    %rcx,%rdi
   179d3:	e8 1b 3d ff ff       	callq  b6f3 <transparent_crc>
   179d8:	0f b6 05 39 5a 00 00 	movzbl 0x5a39(%rip),%eax        # 1d418 <g_2021>
   179df:	48 0f be c0          	movsbq %al,%rax
   179e3:	8b 55 fc             	mov    -0x4(%rbp),%edx
   179e6:	48 8d 35 ea 23 00 00 	lea    0x23ea(%rip),%rsi        # 19dd7 <g_2140+0x1d6b>
   179ed:	48 89 c7             	mov    %rax,%rdi
   179f0:	e8 fe 3c ff ff       	callq  b6f3 <transparent_crc>
   179f5:	8b 05 1d 5a 00 00    	mov    0x5a1d(%rip),%eax        # 1d418 <g_2021>
   179fb:	c1 e0 04             	shl    $0x4,%eax
   179fe:	c1 f8 04             	sar    $0x4,%eax
   17a01:	48 98                	cltq   
   17a03:	8b 55 fc             	mov    -0x4(%rbp),%edx
   17a06:	48 8d 35 d4 23 00 00 	lea    0x23d4(%rip),%rsi        # 19de1 <g_2140+0x1d75>
   17a0d:	48 89 c7             	mov    %rax,%rdi
   17a10:	e8 de 3c ff ff       	callq  b6f3 <transparent_crc>
   17a15:	8b 05 01 5a 00 00    	mov    0x5a01(%rip),%eax        # 1d41c <g_2064>
   17a1b:	89 c1                	mov    %eax,%ecx
   17a1d:	8b 45 fc             	mov    -0x4(%rbp),%eax
   17a20:	89 c2                	mov    %eax,%edx
   17a22:	48 8d 35 c2 23 00 00 	lea    0x23c2(%rip),%rsi        # 19deb <g_2140+0x1d7f>
   17a29:	48 89 cf             	mov    %rcx,%rdi
   17a2c:	e8 c2 3c ff ff       	callq  b6f3 <transparent_crc>
   17a31:	0f b6 05 e4 59 00 00 	movzbl 0x59e4(%rip),%eax        # 1d41c <g_2064>
   17a38:	48 0f be c0          	movsbq %al,%rax
   17a3c:	8b 55 fc             	mov    -0x4(%rbp),%edx
   17a3f:	48 8d 35 af 23 00 00 	lea    0x23af(%rip),%rsi        # 19df5 <g_2140+0x1d89>
   17a46:	48 89 c7             	mov    %rax,%rdi
   17a49:	e8 a5 3c ff ff       	callq  b6f3 <transparent_crc>
   17a4e:	8b 05 c8 59 00 00    	mov    0x59c8(%rip),%eax        # 1d41c <g_2064>
   17a54:	c1 e0 04             	shl    $0x4,%eax
   17a57:	c1 f8 04             	sar    $0x4,%eax
   17a5a:	48 98                	cltq   
   17a5c:	8b 55 fc             	mov    -0x4(%rbp),%edx
   17a5f:	48 8d 35 99 23 00 00 	lea    0x2399(%rip),%rsi        # 19dff <g_2140+0x1d93>
   17a66:	48 89 c7             	mov    %rax,%rdi
   17a69:	e8 85 3c ff ff       	callq  b6f3 <transparent_crc>
   17a6e:	c7 45 f0 00 00 00 00 	movl   $0x0,-0x10(%rbp)
   17a75:	eb 78                	jmp    17aef <main+0x10d1>
   17a77:	c7 45 f4 00 00 00 00 	movl   $0x0,-0xc(%rbp)
   17a7e:	eb 65                	jmp    17ae5 <main+0x10c7>
   17a80:	8b 45 f4             	mov    -0xc(%rbp),%eax
   17a83:	48 63 c8             	movslq %eax,%rcx
   17a86:	8b 45 f0             	mov    -0x10(%rbp),%eax
   17a89:	48 63 d0             	movslq %eax,%rdx
   17a8c:	48 89 d0             	mov    %rdx,%rax
   17a8f:	48 c1 e0 02          	shl    $0x2,%rax
   17a93:	48 01 d0             	add    %rdx,%rax
   17a96:	48 01 c0             	add    %rax,%rax
   17a99:	48 01 c8             	add    %rcx,%rax
   17a9c:	48 8d 14 85 00 00 00 	lea    0x0(,%rax,4),%rdx
   17aa3:	00 
   17aa4:	48 8d 05 75 59 00 00 	lea    0x5975(%rip),%rax        # 1d420 <g_2067>
   17aab:	8b 04 02             	mov    (%rdx,%rax,1),%eax
   17aae:	48 98                	cltq   
   17ab0:	8b 55 fc             	mov    -0x4(%rbp),%edx
   17ab3:	48 8d 35 4f 23 00 00 	lea    0x234f(%rip),%rsi        # 19e09 <g_2140+0x1d9d>
   17aba:	48 89 c7             	mov    %rax,%rdi
   17abd:	e8 31 3c ff ff       	callq  b6f3 <transparent_crc>
   17ac2:	83 7d fc 00          	cmpl   $0x0,-0x4(%rbp)
   17ac6:	74 19                	je     17ae1 <main+0x10c3>
   17ac8:	8b 55 f4             	mov    -0xc(%rbp),%edx
   17acb:	8b 45 f0             	mov    -0x10(%rbp),%eax
   17ace:	89 c6                	mov    %eax,%esi
   17ad0:	48 8d 3d 12 20 00 00 	lea    0x2012(%rip),%rdi        # 19ae9 <g_2140+0x1a7d>
   17ad7:	b8 00 00 00 00       	mov    $0x0,%eax
   17adc:	e8 9f 25 ff ff       	callq  a080 <printf@plt>
   17ae1:	83 45 f4 01          	addl   $0x1,-0xc(%rbp)
   17ae5:	83 7d f4 09          	cmpl   $0x9,-0xc(%rbp)
   17ae9:	7e 95                	jle    17a80 <main+0x1062>
   17aeb:	83 45 f0 01          	addl   $0x1,-0x10(%rbp)
   17aef:	83 7d f0 00          	cmpl   $0x0,-0x10(%rbp)
   17af3:	7e 82                	jle    17a77 <main+0x1059>
   17af5:	8b 05 4d 59 00 00    	mov    0x594d(%rip),%eax        # 1d448 <g_2089>
   17afb:	48 98                	cltq   
   17afd:	8b 55 fc             	mov    -0x4(%rbp),%edx
   17b00:	48 8d 35 0f 23 00 00 	lea    0x230f(%rip),%rsi        # 19e16 <g_2140+0x1daa>
   17b07:	48 89 c7             	mov    %rax,%rdi
   17b0a:	e8 e4 3b ff ff       	callq  b6f3 <transparent_crc>
   17b0f:	8b 05 37 59 00 00    	mov    0x5937(%rip),%eax        # 1d44c <g_2124>
   17b15:	89 c1                	mov    %eax,%ecx
   17b17:	8b 45 fc             	mov    -0x4(%rbp),%eax
   17b1a:	89 c2                	mov    %eax,%edx
   17b1c:	48 8d 35 fa 22 00 00 	lea    0x22fa(%rip),%rsi        # 19e1d <g_2140+0x1db1>
   17b23:	48 89 cf             	mov    %rcx,%rdi
   17b26:	e8 c8 3b ff ff       	callq  b6f3 <transparent_crc>
   17b2b:	0f b6 05 1a 59 00 00 	movzbl 0x591a(%rip),%eax        # 1d44c <g_2124>
   17b32:	48 0f be c0          	movsbq %al,%rax
   17b36:	8b 55 fc             	mov    -0x4(%rbp),%edx
   17b39:	48 8d 35 e7 22 00 00 	lea    0x22e7(%rip),%rsi        # 19e27 <g_2140+0x1dbb>
   17b40:	48 89 c7             	mov    %rax,%rdi
   17b43:	e8 ab 3b ff ff       	callq  b6f3 <transparent_crc>
   17b48:	8b 05 fe 58 00 00    	mov    0x58fe(%rip),%eax        # 1d44c <g_2124>
   17b4e:	c1 e0 04             	shl    $0x4,%eax
   17b51:	c1 f8 04             	sar    $0x4,%eax
   17b54:	48 98                	cltq   
   17b56:	8b 55 fc             	mov    -0x4(%rbp),%edx
   17b59:	48 8d 35 d1 22 00 00 	lea    0x22d1(%rip),%rsi        # 19e31 <g_2140+0x1dc5>
   17b60:	48 89 c7             	mov    %rax,%rdi
   17b63:	e8 8b 3b ff ff       	callq  b6f3 <transparent_crc>
   17b68:	8b 05 fe 04 00 00    	mov    0x4fe(%rip),%eax        # 1806c <g_2140>
   17b6e:	89 c1                	mov    %eax,%ecx
   17b70:	8b 45 fc             	mov    -0x4(%rbp),%eax
   17b73:	89 c2                	mov    %eax,%edx
   17b75:	48 8d 35 bf 22 00 00 	lea    0x22bf(%rip),%rsi        # 19e3b <g_2140+0x1dcf>
   17b7c:	48 89 cf             	mov    %rcx,%rdi
   17b7f:	e8 6f 3b ff ff       	callq  b6f3 <transparent_crc>
   17b84:	b8 1b 00 00 00       	mov    $0x1b,%eax
   17b89:	48 0f be c0          	movsbq %al,%rax
   17b8d:	8b 55 fc             	mov    -0x4(%rbp),%edx
   17b90:	48 8d 35 ae 22 00 00 	lea    0x22ae(%rip),%rsi        # 19e45 <g_2140+0x1dd9>
   17b97:	48 89 c7             	mov    %rax,%rdi
   17b9a:	e8 54 3b ff ff       	callq  b6f3 <transparent_crc>
   17b9f:	8b 05 c7 04 00 00    	mov    0x4c7(%rip),%eax        # 1806c <g_2140>
   17ba5:	c1 e0 04             	shl    $0x4,%eax
   17ba8:	c1 f8 04             	sar    $0x4,%eax
   17bab:	48 98                	cltq   
   17bad:	8b 55 fc             	mov    -0x4(%rbp),%edx
   17bb0:	48 8d 35 98 22 00 00 	lea    0x2298(%rip),%rsi        # 19e4f <g_2140+0x1de3>
   17bb7:	48 89 c7             	mov    %rax,%rdi
   17bba:	e8 34 3b ff ff       	callq  b6f3 <transparent_crc>
   17bbf:	8b 05 5b 54 00 00    	mov    0x545b(%rip),%eax        # 1d020 <crc32_context>
   17bc5:	f7 d0                	not    %eax
   17bc7:	89 c2                	mov    %eax,%edx
   17bc9:	8b 45 fc             	mov    -0x4(%rbp),%eax
   17bcc:	89 c6                	mov    %eax,%esi
   17bce:	89 d7                	mov    %edx,%edi
   17bd0:	e8 bf 25 ff ff       	callq  a194 <platform_main_end>
   17bd5:	b8 00 00 00 00       	mov    $0x0,%eax
   17bda:	c9                   	leaveq 
   17bdb:	c3                   	retq   
   17bdc:	0f 1f 40 00          	nopl   0x0(%rax)

0000000000017be0 <__libc_csu_init>:
   17be0:	f3 0f 1e fa          	endbr64 
   17be4:	41 57                	push   %r15
   17be6:	4c 8d 3d a3 4a 00 00 	lea    0x4aa3(%rip),%r15        # 1c690 <__frame_dummy_init_array_entry>
   17bed:	41 56                	push   %r14
   17bef:	49 89 d6             	mov    %rdx,%r14
   17bf2:	41 55                	push   %r13
   17bf4:	49 89 f5             	mov    %rsi,%r13
   17bf7:	41 54                	push   %r12
   17bf9:	41 89 fc             	mov    %edi,%r12d
   17bfc:	55                   	push   %rbp
   17bfd:	48 8d 2d 94 4a 00 00 	lea    0x4a94(%rip),%rbp        # 1c698 <__do_global_dtors_aux_fini_array_entry>
   17c04:	53                   	push   %rbx
   17c05:	4c 29 fd             	sub    %r15,%rbp
   17c08:	48 83 ec 08          	sub    $0x8,%rsp
   17c0c:	e8 ef 23 ff ff       	callq  a000 <_init>
   17c11:	48 c1 fd 03          	sar    $0x3,%rbp
   17c15:	74 1f                	je     17c36 <__libc_csu_init+0x56>
   17c17:	31 db                	xor    %ebx,%ebx
   17c19:	0f 1f 80 00 00 00 00 	nopl   0x0(%rax)
   17c20:	4c 89 f2             	mov    %r14,%rdx
   17c23:	4c 89 ee             	mov    %r13,%rsi
   17c26:	44 89 e7             	mov    %r12d,%edi
   17c29:	41 ff 14 df          	callq  *(%r15,%rbx,8)
   17c2d:	48 83 c3 01          	add    $0x1,%rbx
   17c31:	48 39 dd             	cmp    %rbx,%rbp
   17c34:	75 ea                	jne    17c20 <__libc_csu_init+0x40>
   17c36:	48 83 c4 08          	add    $0x8,%rsp
   17c3a:	5b                   	pop    %rbx
   17c3b:	5d                   	pop    %rbp
   17c3c:	41 5c                	pop    %r12
   17c3e:	41 5d                	pop    %r13
   17c40:	41 5e                	pop    %r14
   17c42:	41 5f                	pop    %r15
   17c44:	c3                   	retq   
   17c45:	66 66 2e 0f 1f 84 00 	data16 nopw %cs:0x0(%rax,%rax,1)
   17c4c:	00 00 00 00 

0000000000017c50 <__libc_csu_fini>:
   17c50:	f3 0f 1e fa          	endbr64 
   17c54:	c3                   	retq   
