


Disassembly of section .text:

00000000000050a0 <_start>:
    50a0:	f3 0f 1e fa          	endbr64 
    50a4:	31 ed                	xor    %ebp,%ebp
    50a6:	49 89 d1             	mov    %rdx,%r9
    50a9:	5e                   	pop    %rsi
    50aa:	48 89 e2             	mov    %rsp,%rdx
    50ad:	48 83 e4 f0          	and    $0xfffffffffffffff0,%rsp
    50b1:	50                   	push   %rax
    50b2:	54                   	push   %rsp
    50b3:	4c 8d 05 a6 74 00 00 	lea    0x74a6(%rip),%r8        # c560 <__libc_csu_fini>
    50ba:	48 8d 0d 2f 74 00 00 	lea    0x742f(%rip),%rcx        # c4f0 <__libc_csu_init>
    50c1:	48 8d 3d 24 6c 00 00 	lea    0x6c24(%rip),%rdi        # bcec <main>
    50c8:	ff 15 12 bf 00 00    	callq  *0xbf12(%rip)        # 10fe0 <__libc_start_main@GLIBC_2.2.5>
    50ce:	f4                   	hlt    
    50cf:	90                   	nop

00000000000050d0 <deregister_tm_clones>:
    50d0:	48 8d 3d 69 df 00 00 	lea    0xdf69(%rip),%rdi        # 13040 <__TMC_END__>
    50d7:	48 8d 05 62 df 00 00 	lea    0xdf62(%rip),%rax        # 13040 <__TMC_END__>
    50de:	48 39 f8             	cmp    %rdi,%rax
    50e1:	74 15                	je     50f8 <deregister_tm_clones+0x28>
    50e3:	48 8b 05 ee be 00 00 	mov    0xbeee(%rip),%rax        # 10fd8 <_ITM_deregisterTMCloneTable>
    50ea:	48 85 c0             	test   %rax,%rax
    50ed:	74 09                	je     50f8 <deregister_tm_clones+0x28>
    50ef:	ff e0                	jmpq   *%rax
    50f1:	0f 1f 80 00 00 00 00 	nopl   0x0(%rax)
    50f8:	c3                   	retq   
    50f9:	0f 1f 80 00 00 00 00 	nopl   0x0(%rax)

0000000000005100 <register_tm_clones>:
    5100:	48 8d 3d 39 df 00 00 	lea    0xdf39(%rip),%rdi        # 13040 <__TMC_END__>
    5107:	48 8d 35 32 df 00 00 	lea    0xdf32(%rip),%rsi        # 13040 <__TMC_END__>
    510e:	48 29 fe             	sub    %rdi,%rsi
    5111:	48 89 f0             	mov    %rsi,%rax
    5114:	48 c1 ee 3f          	shr    $0x3f,%rsi
    5118:	48 c1 f8 03          	sar    $0x3,%rax
    511c:	48 01 c6             	add    %rax,%rsi
    511f:	48 d1 fe             	sar    %rsi
    5122:	74 14                	je     5138 <register_tm_clones+0x38>
    5124:	48 8b 05 c5 be 00 00 	mov    0xbec5(%rip),%rax        # 10ff0 <_ITM_registerTMCloneTable>
    512b:	48 85 c0             	test   %rax,%rax
    512e:	74 08                	je     5138 <register_tm_clones+0x38>
    5130:	ff e0                	jmpq   *%rax
    5132:	66 0f 1f 44 00 00    	nopw   0x0(%rax,%rax,1)
    5138:	c3                   	retq   
    5139:	0f 1f 80 00 00 00 00 	nopl   0x0(%rax)

0000000000005140 <__do_global_dtors_aux>:
    5140:	f3 0f 1e fa          	endbr64 
    5144:	80 3d f5 de 00 00 00 	cmpb   $0x0,0xdef5(%rip)        # 13040 <__TMC_END__>
    514b:	75 2b                	jne    5178 <__do_global_dtors_aux+0x38>
    514d:	55                   	push   %rbp
    514e:	48 83 3d a2 be 00 00 	cmpq   $0x0,0xbea2(%rip)        # 10ff8 <__cxa_finalize@GLIBC_2.2.5>
    5155:	00 
    5156:	48 89 e5             	mov    %rsp,%rbp
    5159:	74 0c                	je     5167 <__do_global_dtors_aux+0x27>
    515b:	48 8b 3d a6 be 00 00 	mov    0xbea6(%rip),%rdi        # 11008 <__dso_handle>
    5162:	e8 f9 fe ff ff       	callq  5060 <__cxa_finalize@plt>
    5167:	e8 64 ff ff ff       	callq  50d0 <deregister_tm_clones>
    516c:	c6 05 cd de 00 00 01 	movb   $0x1,0xdecd(%rip)        # 13040 <__TMC_END__>
    5173:	5d                   	pop    %rbp
    5174:	c3                   	retq   
    5175:	0f 1f 00             	nopl   (%rax)
    5178:	c3                   	retq   
    5179:	0f 1f 80 00 00 00 00 	nopl   0x0(%rax)

0000000000005180 <frame_dummy>:
    5180:	f3 0f 1e fa          	endbr64 
    5184:	e9 77 ff ff ff       	jmpq   5100 <register_tm_clones>

0000000000005189 <platform_main_begin>:
    5189:	f3 0f 1e fa          	endbr64 
    518d:	55                   	push   %rbp
    518e:	48 89 e5             	mov    %rsp,%rbp
    5191:	90                   	nop
    5192:	5d                   	pop    %rbp
    5193:	c3                   	retq   

0000000000005194 <platform_main_end>:
    5194:	f3 0f 1e fa          	endbr64 
    5198:	55                   	push   %rbp
    5199:	48 89 e5             	mov    %rsp,%rbp
    519c:	48 83 ec 10          	sub    $0x10,%rsp
    51a0:	89 7d fc             	mov    %edi,-0x4(%rbp)
    51a3:	89 75 f8             	mov    %esi,-0x8(%rbp)
    51a6:	8b 45 fc             	mov    -0x4(%rbp),%eax
    51a9:	89 c6                	mov    %eax,%esi
    51ab:	48 8d 3d 6e 7e 00 00 	lea    0x7e6e(%rip),%rdi        # d020 <_IO_stdin_used+0x20>
    51b2:	b8 00 00 00 00       	mov    $0x0,%eax
    51b7:	e8 c4 fe ff ff       	callq  5080 <printf@plt>
    51bc:	90                   	nop
    51bd:	c9                   	leaveq 
    51be:	c3                   	retq   

00000000000051bf <safe_unary_minus_func_int8_t_s>:
    51bf:	f3 0f 1e fa          	endbr64 
    51c3:	55                   	push   %rbp
    51c4:	48 89 e5             	mov    %rsp,%rbp
    51c7:	89 f8                	mov    %edi,%eax
    51c9:	88 45 fc             	mov    %al,-0x4(%rbp)
    51cc:	0f b6 45 fc          	movzbl -0x4(%rbp),%eax
    51d0:	f7 d8                	neg    %eax
    51d2:	5d                   	pop    %rbp
    51d3:	c3                   	retq   

00000000000051d4 <safe_add_func_int8_t_s_s>:
    51d4:	f3 0f 1e fa          	endbr64 
    51d8:	55                   	push   %rbp
    51d9:	48 89 e5             	mov    %rsp,%rbp
    51dc:	89 fa                	mov    %edi,%edx
    51de:	89 f0                	mov    %esi,%eax
    51e0:	88 55 fc             	mov    %dl,-0x4(%rbp)
    51e3:	88 45 f8             	mov    %al,-0x8(%rbp)
    51e6:	0f b6 55 fc          	movzbl -0x4(%rbp),%edx
    51ea:	0f b6 45 f8          	movzbl -0x8(%rbp),%eax
    51ee:	01 d0                	add    %edx,%eax
    51f0:	5d                   	pop    %rbp
    51f1:	c3                   	retq   

00000000000051f2 <safe_sub_func_int8_t_s_s>:
    51f2:	f3 0f 1e fa          	endbr64 
    51f6:	55                   	push   %rbp
    51f7:	48 89 e5             	mov    %rsp,%rbp
    51fa:	89 fa                	mov    %edi,%edx
    51fc:	89 f0                	mov    %esi,%eax
    51fe:	88 55 fc             	mov    %dl,-0x4(%rbp)
    5201:	88 45 f8             	mov    %al,-0x8(%rbp)
    5204:	0f b6 55 fc          	movzbl -0x4(%rbp),%edx
    5208:	0f b6 45 f8          	movzbl -0x8(%rbp),%eax
    520c:	29 c2                	sub    %eax,%edx
    520e:	89 d0                	mov    %edx,%eax
    5210:	5d                   	pop    %rbp
    5211:	c3                   	retq   

0000000000005212 <safe_mul_func_int8_t_s_s>:
    5212:	f3 0f 1e fa          	endbr64 
    5216:	55                   	push   %rbp
    5217:	48 89 e5             	mov    %rsp,%rbp
    521a:	89 fa                	mov    %edi,%edx
    521c:	89 f0                	mov    %esi,%eax
    521e:	88 55 fc             	mov    %dl,-0x4(%rbp)
    5221:	88 45 f8             	mov    %al,-0x8(%rbp)
    5224:	0f b6 45 fc          	movzbl -0x4(%rbp),%eax
    5228:	0f b6 55 f8          	movzbl -0x8(%rbp),%edx
    522c:	0f af c2             	imul   %edx,%eax
    522f:	5d                   	pop    %rbp
    5230:	c3                   	retq   

0000000000005231 <safe_mod_func_int8_t_s_s>:
    5231:	f3 0f 1e fa          	endbr64 
    5235:	55                   	push   %rbp
    5236:	48 89 e5             	mov    %rsp,%rbp
    5239:	89 fa                	mov    %edi,%edx
    523b:	89 f0                	mov    %esi,%eax
    523d:	88 55 fc             	mov    %dl,-0x4(%rbp)
    5240:	88 45 f8             	mov    %al,-0x8(%rbp)
    5243:	80 7d f8 00          	cmpb   $0x0,-0x8(%rbp)
    5247:	74 1b                	je     5264 <safe_mod_func_int8_t_s_s+0x33>
    5249:	80 7d fc 80          	cmpb   $0x80,-0x4(%rbp)
    524d:	75 06                	jne    5255 <safe_mod_func_int8_t_s_s+0x24>
    524f:	80 7d f8 ff          	cmpb   $0xff,-0x8(%rbp)
    5253:	74 0f                	je     5264 <safe_mod_func_int8_t_s_s+0x33>
    5255:	0f be 45 fc          	movsbl -0x4(%rbp),%eax
    5259:	0f be 4d f8          	movsbl -0x8(%rbp),%ecx
    525d:	99                   	cltd   
    525e:	f7 f9                	idiv   %ecx
    5260:	89 d0                	mov    %edx,%eax
    5262:	eb 04                	jmp    5268 <safe_mod_func_int8_t_s_s+0x37>
    5264:	0f b6 45 fc          	movzbl -0x4(%rbp),%eax
    5268:	5d                   	pop    %rbp
    5269:	c3                   	retq   

000000000000526a <safe_div_func_int8_t_s_s>:
    526a:	f3 0f 1e fa          	endbr64 
    526e:	55                   	push   %rbp
    526f:	48 89 e5             	mov    %rsp,%rbp
    5272:	89 fa                	mov    %edi,%edx
    5274:	89 f0                	mov    %esi,%eax
    5276:	88 55 fc             	mov    %dl,-0x4(%rbp)
    5279:	88 45 f8             	mov    %al,-0x8(%rbp)
    527c:	80 7d f8 00          	cmpb   $0x0,-0x8(%rbp)
    5280:	74 19                	je     529b <safe_div_func_int8_t_s_s+0x31>
    5282:	80 7d fc 80          	cmpb   $0x80,-0x4(%rbp)
    5286:	75 06                	jne    528e <safe_div_func_int8_t_s_s+0x24>
    5288:	80 7d f8 ff          	cmpb   $0xff,-0x8(%rbp)
    528c:	74 0d                	je     529b <safe_div_func_int8_t_s_s+0x31>
    528e:	0f be 45 fc          	movsbl -0x4(%rbp),%eax
    5292:	0f be 4d f8          	movsbl -0x8(%rbp),%ecx
    5296:	99                   	cltd   
    5297:	f7 f9                	idiv   %ecx
    5299:	eb 04                	jmp    529f <safe_div_func_int8_t_s_s+0x35>
    529b:	0f b6 45 fc          	movzbl -0x4(%rbp),%eax
    529f:	5d                   	pop    %rbp
    52a0:	c3                   	retq   

00000000000052a1 <safe_lshift_func_int8_t_s_s>:
    52a1:	f3 0f 1e fa          	endbr64 
    52a5:	55                   	push   %rbp
    52a6:	48 89 e5             	mov    %rsp,%rbp
    52a9:	89 f8                	mov    %edi,%eax
    52ab:	89 75 f8             	mov    %esi,-0x8(%rbp)
    52ae:	88 45 fc             	mov    %al,-0x4(%rbp)
    52b1:	80 7d fc 00          	cmpb   $0x0,-0x4(%rbp)
    52b5:	78 31                	js     52e8 <safe_lshift_func_int8_t_s_s+0x47>
    52b7:	83 7d f8 00          	cmpl   $0x0,-0x8(%rbp)
    52bb:	78 2b                	js     52e8 <safe_lshift_func_int8_t_s_s+0x47>
    52bd:	83 7d f8 1f          	cmpl   $0x1f,-0x8(%rbp)
    52c1:	7f 25                	jg     52e8 <safe_lshift_func_int8_t_s_s+0x47>
    52c3:	0f be 55 fc          	movsbl -0x4(%rbp),%edx
    52c7:	8b 45 f8             	mov    -0x8(%rbp),%eax
    52ca:	be 7f 00 00 00       	mov    $0x7f,%esi
    52cf:	89 c1                	mov    %eax,%ecx
    52d1:	d3 fe                	sar    %cl,%esi
    52d3:	89 f0                	mov    %esi,%eax
    52d5:	39 c2                	cmp    %eax,%edx
    52d7:	7f 0f                	jg     52e8 <safe_lshift_func_int8_t_s_s+0x47>
    52d9:	0f be 55 fc          	movsbl -0x4(%rbp),%edx
    52dd:	8b 45 f8             	mov    -0x8(%rbp),%eax
    52e0:	89 c1                	mov    %eax,%ecx
    52e2:	d3 e2                	shl    %cl,%edx
    52e4:	89 d0                	mov    %edx,%eax
    52e6:	eb 04                	jmp    52ec <safe_lshift_func_int8_t_s_s+0x4b>
    52e8:	0f b6 45 fc          	movzbl -0x4(%rbp),%eax
    52ec:	5d                   	pop    %rbp
    52ed:	c3                   	retq   

00000000000052ee <safe_lshift_func_int8_t_s_u>:
    52ee:	f3 0f 1e fa          	endbr64 
    52f2:	55                   	push   %rbp
    52f3:	48 89 e5             	mov    %rsp,%rbp
    52f6:	89 f8                	mov    %edi,%eax
    52f8:	89 75 f8             	mov    %esi,-0x8(%rbp)
    52fb:	88 45 fc             	mov    %al,-0x4(%rbp)
    52fe:	80 7d fc 00          	cmpb   $0x0,-0x4(%rbp)
    5302:	78 2b                	js     532f <safe_lshift_func_int8_t_s_u+0x41>
    5304:	83 7d f8 1f          	cmpl   $0x1f,-0x8(%rbp)
    5308:	77 25                	ja     532f <safe_lshift_func_int8_t_s_u+0x41>
    530a:	0f be 55 fc          	movsbl -0x4(%rbp),%edx
    530e:	8b 45 f8             	mov    -0x8(%rbp),%eax
    5311:	be 7f 00 00 00       	mov    $0x7f,%esi
    5316:	89 c1                	mov    %eax,%ecx
    5318:	d3 fe                	sar    %cl,%esi
    531a:	89 f0                	mov    %esi,%eax
    531c:	39 c2                	cmp    %eax,%edx
    531e:	7f 0f                	jg     532f <safe_lshift_func_int8_t_s_u+0x41>
    5320:	0f be 55 fc          	movsbl -0x4(%rbp),%edx
    5324:	8b 45 f8             	mov    -0x8(%rbp),%eax
    5327:	89 c1                	mov    %eax,%ecx
    5329:	d3 e2                	shl    %cl,%edx
    532b:	89 d0                	mov    %edx,%eax
    532d:	eb 04                	jmp    5333 <safe_lshift_func_int8_t_s_u+0x45>
    532f:	0f b6 45 fc          	movzbl -0x4(%rbp),%eax
    5333:	5d                   	pop    %rbp
    5334:	c3                   	retq   

0000000000005335 <safe_rshift_func_int8_t_s_s>:
    5335:	f3 0f 1e fa          	endbr64 
    5339:	55                   	push   %rbp
    533a:	48 89 e5             	mov    %rsp,%rbp
    533d:	89 f8                	mov    %edi,%eax
    533f:	89 75 f8             	mov    %esi,-0x8(%rbp)
    5342:	88 45 fc             	mov    %al,-0x4(%rbp)
    5345:	80 7d fc 00          	cmpb   $0x0,-0x4(%rbp)
    5349:	78 1b                	js     5366 <safe_rshift_func_int8_t_s_s+0x31>
    534b:	83 7d f8 00          	cmpl   $0x0,-0x8(%rbp)
    534f:	78 15                	js     5366 <safe_rshift_func_int8_t_s_s+0x31>
    5351:	83 7d f8 1f          	cmpl   $0x1f,-0x8(%rbp)
    5355:	7f 0f                	jg     5366 <safe_rshift_func_int8_t_s_s+0x31>
    5357:	0f be 55 fc          	movsbl -0x4(%rbp),%edx
    535b:	8b 45 f8             	mov    -0x8(%rbp),%eax
    535e:	89 c1                	mov    %eax,%ecx
    5360:	d3 fa                	sar    %cl,%edx
    5362:	89 d0                	mov    %edx,%eax
    5364:	eb 04                	jmp    536a <safe_rshift_func_int8_t_s_s+0x35>
    5366:	0f b6 45 fc          	movzbl -0x4(%rbp),%eax
    536a:	5d                   	pop    %rbp
    536b:	c3                   	retq   

000000000000536c <safe_rshift_func_int8_t_s_u>:
    536c:	f3 0f 1e fa          	endbr64 
    5370:	55                   	push   %rbp
    5371:	48 89 e5             	mov    %rsp,%rbp
    5374:	89 f8                	mov    %edi,%eax
    5376:	89 75 f8             	mov    %esi,-0x8(%rbp)
    5379:	88 45 fc             	mov    %al,-0x4(%rbp)
    537c:	80 7d fc 00          	cmpb   $0x0,-0x4(%rbp)
    5380:	78 15                	js     5397 <safe_rshift_func_int8_t_s_u+0x2b>
    5382:	83 7d f8 1f          	cmpl   $0x1f,-0x8(%rbp)
    5386:	77 0f                	ja     5397 <safe_rshift_func_int8_t_s_u+0x2b>
    5388:	0f be 55 fc          	movsbl -0x4(%rbp),%edx
    538c:	8b 45 f8             	mov    -0x8(%rbp),%eax
    538f:	89 c1                	mov    %eax,%ecx
    5391:	d3 fa                	sar    %cl,%edx
    5393:	89 d0                	mov    %edx,%eax
    5395:	eb 04                	jmp    539b <safe_rshift_func_int8_t_s_u+0x2f>
    5397:	0f b6 45 fc          	movzbl -0x4(%rbp),%eax
    539b:	5d                   	pop    %rbp
    539c:	c3                   	retq   

000000000000539d <safe_unary_minus_func_int16_t_s>:
    539d:	f3 0f 1e fa          	endbr64 
    53a1:	55                   	push   %rbp
    53a2:	48 89 e5             	mov    %rsp,%rbp
    53a5:	89 f8                	mov    %edi,%eax
    53a7:	66 89 45 fc          	mov    %ax,-0x4(%rbp)
    53ab:	0f b7 45 fc          	movzwl -0x4(%rbp),%eax
    53af:	f7 d8                	neg    %eax
    53b1:	5d                   	pop    %rbp
    53b2:	c3                   	retq   

00000000000053b3 <safe_add_func_int16_t_s_s>:
    53b3:	f3 0f 1e fa          	endbr64 
    53b7:	55                   	push   %rbp
    53b8:	48 89 e5             	mov    %rsp,%rbp
    53bb:	89 fa                	mov    %edi,%edx
    53bd:	89 f0                	mov    %esi,%eax
    53bf:	66 89 55 fc          	mov    %dx,-0x4(%rbp)
    53c3:	66 89 45 f8          	mov    %ax,-0x8(%rbp)
    53c7:	0f b7 55 fc          	movzwl -0x4(%rbp),%edx
    53cb:	0f b7 45 f8          	movzwl -0x8(%rbp),%eax
    53cf:	01 d0                	add    %edx,%eax
    53d1:	5d                   	pop    %rbp
    53d2:	c3                   	retq   

00000000000053d3 <safe_sub_func_int16_t_s_s>:
    53d3:	f3 0f 1e fa          	endbr64 
    53d7:	55                   	push   %rbp
    53d8:	48 89 e5             	mov    %rsp,%rbp
    53db:	89 fa                	mov    %edi,%edx
    53dd:	89 f0                	mov    %esi,%eax
    53df:	66 89 55 fc          	mov    %dx,-0x4(%rbp)
    53e3:	66 89 45 f8          	mov    %ax,-0x8(%rbp)
    53e7:	0f b7 55 fc          	movzwl -0x4(%rbp),%edx
    53eb:	0f b7 45 f8          	movzwl -0x8(%rbp),%eax
    53ef:	29 c2                	sub    %eax,%edx
    53f1:	89 d0                	mov    %edx,%eax
    53f3:	5d                   	pop    %rbp
    53f4:	c3                   	retq   

00000000000053f5 <safe_mul_func_int16_t_s_s>:
    53f5:	f3 0f 1e fa          	endbr64 
    53f9:	55                   	push   %rbp
    53fa:	48 89 e5             	mov    %rsp,%rbp
    53fd:	89 fa                	mov    %edi,%edx
    53ff:	89 f0                	mov    %esi,%eax
    5401:	66 89 55 fc          	mov    %dx,-0x4(%rbp)
    5405:	66 89 45 f8          	mov    %ax,-0x8(%rbp)
    5409:	0f b7 55 fc          	movzwl -0x4(%rbp),%edx
    540d:	0f b7 45 f8          	movzwl -0x8(%rbp),%eax
    5411:	0f af c2             	imul   %edx,%eax
    5414:	5d                   	pop    %rbp
    5415:	c3                   	retq   

0000000000005416 <safe_mod_func_int16_t_s_s>:
    5416:	f3 0f 1e fa          	endbr64 
    541a:	55                   	push   %rbp
    541b:	48 89 e5             	mov    %rsp,%rbp
    541e:	89 fa                	mov    %edi,%edx
    5420:	89 f0                	mov    %esi,%eax
    5422:	66 89 55 fc          	mov    %dx,-0x4(%rbp)
    5426:	66 89 45 f8          	mov    %ax,-0x8(%rbp)
    542a:	66 83 7d f8 00       	cmpw   $0x0,-0x8(%rbp)
    542f:	74 1e                	je     544f <safe_mod_func_int16_t_s_s+0x39>
    5431:	66 81 7d fc 00 80    	cmpw   $0x8000,-0x4(%rbp)
    5437:	75 07                	jne    5440 <safe_mod_func_int16_t_s_s+0x2a>
    5439:	66 83 7d f8 ff       	cmpw   $0xffff,-0x8(%rbp)
    543e:	74 0f                	je     544f <safe_mod_func_int16_t_s_s+0x39>
    5440:	0f bf 45 fc          	movswl -0x4(%rbp),%eax
    5444:	0f bf 4d f8          	movswl -0x8(%rbp),%ecx
    5448:	99                   	cltd   
    5449:	f7 f9                	idiv   %ecx
    544b:	89 d0                	mov    %edx,%eax
    544d:	eb 04                	jmp    5453 <safe_mod_func_int16_t_s_s+0x3d>
    544f:	0f b7 45 fc          	movzwl -0x4(%rbp),%eax
    5453:	5d                   	pop    %rbp
    5454:	c3                   	retq   

0000000000005455 <safe_div_func_int16_t_s_s>:
    5455:	f3 0f 1e fa          	endbr64 
    5459:	55                   	push   %rbp
    545a:	48 89 e5             	mov    %rsp,%rbp
    545d:	89 fa                	mov    %edi,%edx
    545f:	89 f0                	mov    %esi,%eax
    5461:	66 89 55 fc          	mov    %dx,-0x4(%rbp)
    5465:	66 89 45 f8          	mov    %ax,-0x8(%rbp)
    5469:	66 83 7d f8 00       	cmpw   $0x0,-0x8(%rbp)
    546e:	74 1c                	je     548c <safe_div_func_int16_t_s_s+0x37>
    5470:	66 81 7d fc 00 80    	cmpw   $0x8000,-0x4(%rbp)
    5476:	75 07                	jne    547f <safe_div_func_int16_t_s_s+0x2a>
    5478:	66 83 7d f8 ff       	cmpw   $0xffff,-0x8(%rbp)
    547d:	74 0d                	je     548c <safe_div_func_int16_t_s_s+0x37>
    547f:	0f bf 45 fc          	movswl -0x4(%rbp),%eax
    5483:	0f bf 4d f8          	movswl -0x8(%rbp),%ecx
    5487:	99                   	cltd   
    5488:	f7 f9                	idiv   %ecx
    548a:	eb 04                	jmp    5490 <safe_div_func_int16_t_s_s+0x3b>
    548c:	0f b7 45 fc          	movzwl -0x4(%rbp),%eax
    5490:	5d                   	pop    %rbp
    5491:	c3                   	retq   

0000000000005492 <safe_lshift_func_int16_t_s_s>:
    5492:	f3 0f 1e fa          	endbr64 
    5496:	55                   	push   %rbp
    5497:	48 89 e5             	mov    %rsp,%rbp
    549a:	89 f8                	mov    %edi,%eax
    549c:	89 75 f8             	mov    %esi,-0x8(%rbp)
    549f:	66 89 45 fc          	mov    %ax,-0x4(%rbp)
    54a3:	66 83 7d fc 00       	cmpw   $0x0,-0x4(%rbp)
    54a8:	78 31                	js     54db <safe_lshift_func_int16_t_s_s+0x49>
    54aa:	83 7d f8 00          	cmpl   $0x0,-0x8(%rbp)
    54ae:	78 2b                	js     54db <safe_lshift_func_int16_t_s_s+0x49>
    54b0:	83 7d f8 1f          	cmpl   $0x1f,-0x8(%rbp)
    54b4:	7f 25                	jg     54db <safe_lshift_func_int16_t_s_s+0x49>
    54b6:	0f bf 55 fc          	movswl -0x4(%rbp),%edx
    54ba:	8b 45 f8             	mov    -0x8(%rbp),%eax
    54bd:	be ff 7f 00 00       	mov    $0x7fff,%esi
    54c2:	89 c1                	mov    %eax,%ecx
    54c4:	d3 fe                	sar    %cl,%esi
    54c6:	89 f0                	mov    %esi,%eax
    54c8:	39 c2                	cmp    %eax,%edx
    54ca:	7f 0f                	jg     54db <safe_lshift_func_int16_t_s_s+0x49>
    54cc:	0f bf 55 fc          	movswl -0x4(%rbp),%edx
    54d0:	8b 45 f8             	mov    -0x8(%rbp),%eax
    54d3:	89 c1                	mov    %eax,%ecx
    54d5:	d3 e2                	shl    %cl,%edx
    54d7:	89 d0                	mov    %edx,%eax
    54d9:	eb 04                	jmp    54df <safe_lshift_func_int16_t_s_s+0x4d>
    54db:	0f b7 45 fc          	movzwl -0x4(%rbp),%eax
    54df:	5d                   	pop    %rbp
    54e0:	c3                   	retq   

00000000000054e1 <safe_lshift_func_int16_t_s_u>:
    54e1:	f3 0f 1e fa          	endbr64 
    54e5:	55                   	push   %rbp
    54e6:	48 89 e5             	mov    %rsp,%rbp
    54e9:	89 f8                	mov    %edi,%eax
    54eb:	89 75 f8             	mov    %esi,-0x8(%rbp)
    54ee:	66 89 45 fc          	mov    %ax,-0x4(%rbp)
    54f2:	66 83 7d fc 00       	cmpw   $0x0,-0x4(%rbp)
    54f7:	78 2b                	js     5524 <safe_lshift_func_int16_t_s_u+0x43>
    54f9:	83 7d f8 1f          	cmpl   $0x1f,-0x8(%rbp)
    54fd:	77 25                	ja     5524 <safe_lshift_func_int16_t_s_u+0x43>
    54ff:	0f bf 55 fc          	movswl -0x4(%rbp),%edx
    5503:	8b 45 f8             	mov    -0x8(%rbp),%eax
    5506:	be ff 7f 00 00       	mov    $0x7fff,%esi
    550b:	89 c1                	mov    %eax,%ecx
    550d:	d3 fe                	sar    %cl,%esi
    550f:	89 f0                	mov    %esi,%eax
    5511:	39 c2                	cmp    %eax,%edx
    5513:	7f 0f                	jg     5524 <safe_lshift_func_int16_t_s_u+0x43>
    5515:	0f bf 55 fc          	movswl -0x4(%rbp),%edx
    5519:	8b 45 f8             	mov    -0x8(%rbp),%eax
    551c:	89 c1                	mov    %eax,%ecx
    551e:	d3 e2                	shl    %cl,%edx
    5520:	89 d0                	mov    %edx,%eax
    5522:	eb 04                	jmp    5528 <safe_lshift_func_int16_t_s_u+0x47>
    5524:	0f b7 45 fc          	movzwl -0x4(%rbp),%eax
    5528:	5d                   	pop    %rbp
    5529:	c3                   	retq   

000000000000552a <safe_rshift_func_int16_t_s_s>:
    552a:	f3 0f 1e fa          	endbr64 
    552e:	55                   	push   %rbp
    552f:	48 89 e5             	mov    %rsp,%rbp
    5532:	89 f8                	mov    %edi,%eax
    5534:	89 75 f8             	mov    %esi,-0x8(%rbp)
    5537:	66 89 45 fc          	mov    %ax,-0x4(%rbp)
    553b:	66 83 7d fc 00       	cmpw   $0x0,-0x4(%rbp)
    5540:	78 1b                	js     555d <safe_rshift_func_int16_t_s_s+0x33>
    5542:	83 7d f8 00          	cmpl   $0x0,-0x8(%rbp)
    5546:	78 15                	js     555d <safe_rshift_func_int16_t_s_s+0x33>
    5548:	83 7d f8 1f          	cmpl   $0x1f,-0x8(%rbp)
    554c:	7f 0f                	jg     555d <safe_rshift_func_int16_t_s_s+0x33>
    554e:	0f bf 55 fc          	movswl -0x4(%rbp),%edx
    5552:	8b 45 f8             	mov    -0x8(%rbp),%eax
    5555:	89 c1                	mov    %eax,%ecx
    5557:	d3 fa                	sar    %cl,%edx
    5559:	89 d0                	mov    %edx,%eax
    555b:	eb 04                	jmp    5561 <safe_rshift_func_int16_t_s_s+0x37>
    555d:	0f b7 45 fc          	movzwl -0x4(%rbp),%eax
    5561:	5d                   	pop    %rbp
    5562:	c3                   	retq   

0000000000005563 <safe_rshift_func_int16_t_s_u>:
    5563:	f3 0f 1e fa          	endbr64 
    5567:	55                   	push   %rbp
    5568:	48 89 e5             	mov    %rsp,%rbp
    556b:	89 f8                	mov    %edi,%eax
    556d:	89 75 f8             	mov    %esi,-0x8(%rbp)
    5570:	66 89 45 fc          	mov    %ax,-0x4(%rbp)
    5574:	66 83 7d fc 00       	cmpw   $0x0,-0x4(%rbp)
    5579:	78 15                	js     5590 <safe_rshift_func_int16_t_s_u+0x2d>
    557b:	83 7d f8 1f          	cmpl   $0x1f,-0x8(%rbp)
    557f:	77 0f                	ja     5590 <safe_rshift_func_int16_t_s_u+0x2d>
    5581:	0f bf 55 fc          	movswl -0x4(%rbp),%edx
    5585:	8b 45 f8             	mov    -0x8(%rbp),%eax
    5588:	89 c1                	mov    %eax,%ecx
    558a:	d3 fa                	sar    %cl,%edx
    558c:	89 d0                	mov    %edx,%eax
    558e:	eb 04                	jmp    5594 <safe_rshift_func_int16_t_s_u+0x31>
    5590:	0f b7 45 fc          	movzwl -0x4(%rbp),%eax
    5594:	5d                   	pop    %rbp
    5595:	c3                   	retq   

0000000000005596 <safe_unary_minus_func_int32_t_s>:
    5596:	f3 0f 1e fa          	endbr64 
    559a:	55                   	push   %rbp
    559b:	48 89 e5             	mov    %rsp,%rbp
    559e:	89 7d fc             	mov    %edi,-0x4(%rbp)
    55a1:	81 7d fc 00 00 00 80 	cmpl   $0x80000000,-0x4(%rbp)
    55a8:	74 07                	je     55b1 <safe_unary_minus_func_int32_t_s+0x1b>
    55aa:	8b 45 fc             	mov    -0x4(%rbp),%eax
    55ad:	f7 d8                	neg    %eax
    55af:	eb 03                	jmp    55b4 <safe_unary_minus_func_int32_t_s+0x1e>
    55b1:	8b 45 fc             	mov    -0x4(%rbp),%eax
    55b4:	5d                   	pop    %rbp
    55b5:	c3                   	retq   

00000000000055b6 <safe_add_func_int32_t_s_s>:
    55b6:	f3 0f 1e fa          	endbr64 
    55ba:	55                   	push   %rbp
    55bb:	48 89 e5             	mov    %rsp,%rbp
    55be:	89 7d fc             	mov    %edi,-0x4(%rbp)
    55c1:	89 75 f8             	mov    %esi,-0x8(%rbp)
    55c4:	83 7d fc 00          	cmpl   $0x0,-0x4(%rbp)
    55c8:	7e 13                	jle    55dd <safe_add_func_int32_t_s_s+0x27>
    55ca:	83 7d f8 00          	cmpl   $0x0,-0x8(%rbp)
    55ce:	7e 0d                	jle    55dd <safe_add_func_int32_t_s_s+0x27>
    55d0:	b8 ff ff ff 7f       	mov    $0x7fffffff,%eax
    55d5:	2b 45 f8             	sub    -0x8(%rbp),%eax
    55d8:	39 45 fc             	cmp    %eax,-0x4(%rbp)
    55db:	7f 23                	jg     5600 <safe_add_func_int32_t_s_s+0x4a>
    55dd:	83 7d fc 00          	cmpl   $0x0,-0x4(%rbp)
    55e1:	79 13                	jns    55f6 <safe_add_func_int32_t_s_s+0x40>
    55e3:	83 7d f8 00          	cmpl   $0x0,-0x8(%rbp)
    55e7:	79 0d                	jns    55f6 <safe_add_func_int32_t_s_s+0x40>
    55e9:	b8 00 00 00 80       	mov    $0x80000000,%eax
    55ee:	2b 45 f8             	sub    -0x8(%rbp),%eax
    55f1:	39 45 fc             	cmp    %eax,-0x4(%rbp)
    55f4:	7c 0a                	jl     5600 <safe_add_func_int32_t_s_s+0x4a>
    55f6:	8b 55 fc             	mov    -0x4(%rbp),%edx
    55f9:	8b 45 f8             	mov    -0x8(%rbp),%eax
    55fc:	01 d0                	add    %edx,%eax
    55fe:	eb 03                	jmp    5603 <safe_add_func_int32_t_s_s+0x4d>
    5600:	8b 45 fc             	mov    -0x4(%rbp),%eax
    5603:	5d                   	pop    %rbp
    5604:	c3                   	retq   

0000000000005605 <safe_sub_func_int32_t_s_s>:
    5605:	f3 0f 1e fa          	endbr64 
    5609:	55                   	push   %rbp
    560a:	48 89 e5             	mov    %rsp,%rbp
    560d:	89 7d fc             	mov    %edi,-0x4(%rbp)
    5610:	89 75 f8             	mov    %esi,-0x8(%rbp)
    5613:	8b 45 fc             	mov    -0x4(%rbp),%eax
    5616:	33 45 f8             	xor    -0x8(%rbp),%eax
    5619:	89 c2                	mov    %eax,%edx
    561b:	8b 45 fc             	mov    -0x4(%rbp),%eax
    561e:	33 45 f8             	xor    -0x8(%rbp),%eax
    5621:	25 00 00 00 80       	and    $0x80000000,%eax
    5626:	33 45 fc             	xor    -0x4(%rbp),%eax
    5629:	2b 45 f8             	sub    -0x8(%rbp),%eax
    562c:	33 45 f8             	xor    -0x8(%rbp),%eax
    562f:	21 d0                	and    %edx,%eax
    5631:	85 c0                	test   %eax,%eax
    5633:	78 08                	js     563d <safe_sub_func_int32_t_s_s+0x38>
    5635:	8b 45 fc             	mov    -0x4(%rbp),%eax
    5638:	2b 45 f8             	sub    -0x8(%rbp),%eax
    563b:	eb 03                	jmp    5640 <safe_sub_func_int32_t_s_s+0x3b>
    563d:	8b 45 fc             	mov    -0x4(%rbp),%eax
    5640:	5d                   	pop    %rbp
    5641:	c3                   	retq   

0000000000005642 <safe_mul_func_int32_t_s_s>:
    5642:	f3 0f 1e fa          	endbr64 
    5646:	55                   	push   %rbp
    5647:	48 89 e5             	mov    %rsp,%rbp
    564a:	89 7d fc             	mov    %edi,-0x4(%rbp)
    564d:	89 75 f8             	mov    %esi,-0x8(%rbp)
    5650:	83 7d fc 00          	cmpl   $0x0,-0x4(%rbp)
    5654:	7e 14                	jle    566a <safe_mul_func_int32_t_s_s+0x28>
    5656:	83 7d f8 00          	cmpl   $0x0,-0x8(%rbp)
    565a:	7e 0e                	jle    566a <safe_mul_func_int32_t_s_s+0x28>
    565c:	b8 ff ff ff 7f       	mov    $0x7fffffff,%eax
    5661:	99                   	cltd   
    5662:	f7 7d f8             	idivl  -0x8(%rbp)
    5665:	39 45 fc             	cmp    %eax,-0x4(%rbp)
    5668:	7f 5d                	jg     56c7 <safe_mul_func_int32_t_s_s+0x85>
    566a:	83 7d fc 00          	cmpl   $0x0,-0x4(%rbp)
    566e:	7e 14                	jle    5684 <safe_mul_func_int32_t_s_s+0x42>
    5670:	83 7d f8 00          	cmpl   $0x0,-0x8(%rbp)
    5674:	7f 0e                	jg     5684 <safe_mul_func_int32_t_s_s+0x42>
    5676:	b8 00 00 00 80       	mov    $0x80000000,%eax
    567b:	99                   	cltd   
    567c:	f7 7d fc             	idivl  -0x4(%rbp)
    567f:	39 45 f8             	cmp    %eax,-0x8(%rbp)
    5682:	7c 43                	jl     56c7 <safe_mul_func_int32_t_s_s+0x85>
    5684:	83 7d fc 00          	cmpl   $0x0,-0x4(%rbp)
    5688:	7f 14                	jg     569e <safe_mul_func_int32_t_s_s+0x5c>
    568a:	83 7d f8 00          	cmpl   $0x0,-0x8(%rbp)
    568e:	7e 0e                	jle    569e <safe_mul_func_int32_t_s_s+0x5c>
    5690:	b8 00 00 00 80       	mov    $0x80000000,%eax
    5695:	99                   	cltd   
    5696:	f7 7d f8             	idivl  -0x8(%rbp)
    5699:	39 45 fc             	cmp    %eax,-0x4(%rbp)
    569c:	7c 29                	jl     56c7 <safe_mul_func_int32_t_s_s+0x85>
    569e:	83 7d fc 00          	cmpl   $0x0,-0x4(%rbp)
    56a2:	7f 1a                	jg     56be <safe_mul_func_int32_t_s_s+0x7c>
    56a4:	83 7d f8 00          	cmpl   $0x0,-0x8(%rbp)
    56a8:	7f 14                	jg     56be <safe_mul_func_int32_t_s_s+0x7c>
    56aa:	83 7d fc 00          	cmpl   $0x0,-0x4(%rbp)
    56ae:	74 0e                	je     56be <safe_mul_func_int32_t_s_s+0x7c>
    56b0:	b8 ff ff ff 7f       	mov    $0x7fffffff,%eax
    56b5:	99                   	cltd   
    56b6:	f7 7d fc             	idivl  -0x4(%rbp)
    56b9:	39 45 f8             	cmp    %eax,-0x8(%rbp)
    56bc:	7c 09                	jl     56c7 <safe_mul_func_int32_t_s_s+0x85>
    56be:	8b 45 fc             	mov    -0x4(%rbp),%eax
    56c1:	0f af 45 f8          	imul   -0x8(%rbp),%eax
    56c5:	eb 03                	jmp    56ca <safe_mul_func_int32_t_s_s+0x88>
    56c7:	8b 45 fc             	mov    -0x4(%rbp),%eax
    56ca:	5d                   	pop    %rbp
    56cb:	c3                   	retq   

00000000000056cc <safe_mod_func_int32_t_s_s>:
    56cc:	f3 0f 1e fa          	endbr64 
    56d0:	55                   	push   %rbp
    56d1:	48 89 e5             	mov    %rsp,%rbp
    56d4:	89 7d fc             	mov    %edi,-0x4(%rbp)
    56d7:	89 75 f8             	mov    %esi,-0x8(%rbp)
    56da:	83 7d f8 00          	cmpl   $0x0,-0x8(%rbp)
    56de:	74 1a                	je     56fa <safe_mod_func_int32_t_s_s+0x2e>
    56e0:	81 7d fc 00 00 00 80 	cmpl   $0x80000000,-0x4(%rbp)
    56e7:	75 06                	jne    56ef <safe_mod_func_int32_t_s_s+0x23>
    56e9:	83 7d f8 ff          	cmpl   $0xffffffff,-0x8(%rbp)
    56ed:	74 0b                	je     56fa <safe_mod_func_int32_t_s_s+0x2e>
    56ef:	8b 45 fc             	mov    -0x4(%rbp),%eax
    56f2:	99                   	cltd   
    56f3:	f7 7d f8             	idivl  -0x8(%rbp)
    56f6:	89 d0                	mov    %edx,%eax
    56f8:	eb 03                	jmp    56fd <safe_mod_func_int32_t_s_s+0x31>
    56fa:	8b 45 fc             	mov    -0x4(%rbp),%eax
    56fd:	5d                   	pop    %rbp
    56fe:	c3                   	retq   

00000000000056ff <safe_div_func_int32_t_s_s>:
    56ff:	f3 0f 1e fa          	endbr64 
    5703:	55                   	push   %rbp
    5704:	48 89 e5             	mov    %rsp,%rbp
    5707:	89 7d fc             	mov    %edi,-0x4(%rbp)
    570a:	89 75 f8             	mov    %esi,-0x8(%rbp)
    570d:	83 7d f8 00          	cmpl   $0x0,-0x8(%rbp)
    5711:	74 18                	je     572b <safe_div_func_int32_t_s_s+0x2c>
    5713:	81 7d fc 00 00 00 80 	cmpl   $0x80000000,-0x4(%rbp)
    571a:	75 06                	jne    5722 <safe_div_func_int32_t_s_s+0x23>
    571c:	83 7d f8 ff          	cmpl   $0xffffffff,-0x8(%rbp)
    5720:	74 09                	je     572b <safe_div_func_int32_t_s_s+0x2c>
    5722:	8b 45 fc             	mov    -0x4(%rbp),%eax
    5725:	99                   	cltd   
    5726:	f7 7d f8             	idivl  -0x8(%rbp)
    5729:	eb 03                	jmp    572e <safe_div_func_int32_t_s_s+0x2f>
    572b:	8b 45 fc             	mov    -0x4(%rbp),%eax
    572e:	5d                   	pop    %rbp
    572f:	c3                   	retq   

0000000000005730 <safe_lshift_func_int32_t_s_s>:
    5730:	f3 0f 1e fa          	endbr64 
    5734:	55                   	push   %rbp
    5735:	48 89 e5             	mov    %rsp,%rbp
    5738:	89 7d fc             	mov    %edi,-0x4(%rbp)
    573b:	89 75 f8             	mov    %esi,-0x8(%rbp)
    573e:	83 7d fc 00          	cmpl   $0x0,-0x4(%rbp)
    5742:	78 2d                	js     5771 <safe_lshift_func_int32_t_s_s+0x41>
    5744:	83 7d f8 00          	cmpl   $0x0,-0x8(%rbp)
    5748:	78 27                	js     5771 <safe_lshift_func_int32_t_s_s+0x41>
    574a:	83 7d f8 1f          	cmpl   $0x1f,-0x8(%rbp)
    574e:	7f 21                	jg     5771 <safe_lshift_func_int32_t_s_s+0x41>
    5750:	8b 45 f8             	mov    -0x8(%rbp),%eax
    5753:	ba ff ff ff 7f       	mov    $0x7fffffff,%edx
    5758:	89 c1                	mov    %eax,%ecx
    575a:	d3 fa                	sar    %cl,%edx
    575c:	89 d0                	mov    %edx,%eax
    575e:	39 45 fc             	cmp    %eax,-0x4(%rbp)
    5761:	7f 0e                	jg     5771 <safe_lshift_func_int32_t_s_s+0x41>
    5763:	8b 45 f8             	mov    -0x8(%rbp),%eax
    5766:	8b 55 fc             	mov    -0x4(%rbp),%edx
    5769:	89 c1                	mov    %eax,%ecx
    576b:	d3 e2                	shl    %cl,%edx
    576d:	89 d0                	mov    %edx,%eax
    576f:	eb 03                	jmp    5774 <safe_lshift_func_int32_t_s_s+0x44>
    5771:	8b 45 fc             	mov    -0x4(%rbp),%eax
    5774:	5d                   	pop    %rbp
    5775:	c3                   	retq   

0000000000005776 <safe_lshift_func_int32_t_s_u>:
    5776:	f3 0f 1e fa          	endbr64 
    577a:	55                   	push   %rbp
    577b:	48 89 e5             	mov    %rsp,%rbp
    577e:	89 7d fc             	mov    %edi,-0x4(%rbp)
    5781:	89 75 f8             	mov    %esi,-0x8(%rbp)
    5784:	83 7d fc 00          	cmpl   $0x0,-0x4(%rbp)
    5788:	78 27                	js     57b1 <safe_lshift_func_int32_t_s_u+0x3b>
    578a:	83 7d f8 1f          	cmpl   $0x1f,-0x8(%rbp)
    578e:	77 21                	ja     57b1 <safe_lshift_func_int32_t_s_u+0x3b>
    5790:	8b 45 f8             	mov    -0x8(%rbp),%eax
    5793:	ba ff ff ff 7f       	mov    $0x7fffffff,%edx
    5798:	89 c1                	mov    %eax,%ecx
    579a:	d3 fa                	sar    %cl,%edx
    579c:	89 d0                	mov    %edx,%eax
    579e:	39 45 fc             	cmp    %eax,-0x4(%rbp)
    57a1:	7f 0e                	jg     57b1 <safe_lshift_func_int32_t_s_u+0x3b>
    57a3:	8b 45 f8             	mov    -0x8(%rbp),%eax
    57a6:	8b 55 fc             	mov    -0x4(%rbp),%edx
    57a9:	89 c1                	mov    %eax,%ecx
    57ab:	d3 e2                	shl    %cl,%edx
    57ad:	89 d0                	mov    %edx,%eax
    57af:	eb 03                	jmp    57b4 <safe_lshift_func_int32_t_s_u+0x3e>
    57b1:	8b 45 fc             	mov    -0x4(%rbp),%eax
    57b4:	5d                   	pop    %rbp
    57b5:	c3                   	retq   

00000000000057b6 <safe_rshift_func_int32_t_s_s>:
    57b6:	f3 0f 1e fa          	endbr64 
    57ba:	55                   	push   %rbp
    57bb:	48 89 e5             	mov    %rsp,%rbp
    57be:	89 7d fc             	mov    %edi,-0x4(%rbp)
    57c1:	89 75 f8             	mov    %esi,-0x8(%rbp)
    57c4:	83 7d fc 00          	cmpl   $0x0,-0x4(%rbp)
    57c8:	78 1a                	js     57e4 <safe_rshift_func_int32_t_s_s+0x2e>
    57ca:	83 7d f8 00          	cmpl   $0x0,-0x8(%rbp)
    57ce:	78 14                	js     57e4 <safe_rshift_func_int32_t_s_s+0x2e>
    57d0:	83 7d f8 1f          	cmpl   $0x1f,-0x8(%rbp)
    57d4:	7f 0e                	jg     57e4 <safe_rshift_func_int32_t_s_s+0x2e>
    57d6:	8b 45 f8             	mov    -0x8(%rbp),%eax
    57d9:	8b 55 fc             	mov    -0x4(%rbp),%edx
    57dc:	89 c1                	mov    %eax,%ecx
    57de:	d3 fa                	sar    %cl,%edx
    57e0:	89 d0                	mov    %edx,%eax
    57e2:	eb 03                	jmp    57e7 <safe_rshift_func_int32_t_s_s+0x31>
    57e4:	8b 45 fc             	mov    -0x4(%rbp),%eax
    57e7:	5d                   	pop    %rbp
    57e8:	c3                   	retq   

00000000000057e9 <safe_rshift_func_int32_t_s_u>:
    57e9:	f3 0f 1e fa          	endbr64 
    57ed:	55                   	push   %rbp
    57ee:	48 89 e5             	mov    %rsp,%rbp
    57f1:	89 7d fc             	mov    %edi,-0x4(%rbp)
    57f4:	89 75 f8             	mov    %esi,-0x8(%rbp)
    57f7:	83 7d fc 00          	cmpl   $0x0,-0x4(%rbp)
    57fb:	78 14                	js     5811 <safe_rshift_func_int32_t_s_u+0x28>
    57fd:	83 7d f8 1f          	cmpl   $0x1f,-0x8(%rbp)
    5801:	77 0e                	ja     5811 <safe_rshift_func_int32_t_s_u+0x28>
    5803:	8b 45 f8             	mov    -0x8(%rbp),%eax
    5806:	8b 55 fc             	mov    -0x4(%rbp),%edx
    5809:	89 c1                	mov    %eax,%ecx
    580b:	d3 fa                	sar    %cl,%edx
    580d:	89 d0                	mov    %edx,%eax
    580f:	eb 03                	jmp    5814 <safe_rshift_func_int32_t_s_u+0x2b>
    5811:	8b 45 fc             	mov    -0x4(%rbp),%eax
    5814:	5d                   	pop    %rbp
    5815:	c3                   	retq   

0000000000005816 <safe_unary_minus_func_int64_t_s>:
    5816:	f3 0f 1e fa          	endbr64 
    581a:	55                   	push   %rbp
    581b:	48 89 e5             	mov    %rsp,%rbp
    581e:	48 89 7d f8          	mov    %rdi,-0x8(%rbp)
    5822:	48 b8 00 00 00 00 00 	movabs $0x8000000000000000,%rax
    5829:	00 00 80 
    582c:	48 39 45 f8          	cmp    %rax,-0x8(%rbp)
    5830:	74 09                	je     583b <safe_unary_minus_func_int64_t_s+0x25>
    5832:	48 8b 45 f8          	mov    -0x8(%rbp),%rax
    5836:	48 f7 d8             	neg    %rax
    5839:	eb 04                	jmp    583f <safe_unary_minus_func_int64_t_s+0x29>
    583b:	48 8b 45 f8          	mov    -0x8(%rbp),%rax
    583f:	5d                   	pop    %rbp
    5840:	c3                   	retq   

0000000000005841 <safe_add_func_int64_t_s_s>:
    5841:	f3 0f 1e fa          	endbr64 
    5845:	55                   	push   %rbp
    5846:	48 89 e5             	mov    %rsp,%rbp
    5849:	48 89 7d f8          	mov    %rdi,-0x8(%rbp)
    584d:	48 89 75 f0          	mov    %rsi,-0x10(%rbp)
    5851:	48 83 7d f8 00       	cmpq   $0x0,-0x8(%rbp)
    5856:	7e 1b                	jle    5873 <safe_add_func_int64_t_s_s+0x32>
    5858:	48 83 7d f0 00       	cmpq   $0x0,-0x10(%rbp)
    585d:	7e 14                	jle    5873 <safe_add_func_int64_t_s_s+0x32>
    585f:	48 b8 ff ff ff ff ff 	movabs $0x7fffffffffffffff,%rax
    5866:	ff ff 7f 
    5869:	48 2b 45 f0          	sub    -0x10(%rbp),%rax
    586d:	48 39 45 f8          	cmp    %rax,-0x8(%rbp)
    5871:	7f 2f                	jg     58a2 <safe_add_func_int64_t_s_s+0x61>
    5873:	48 83 7d f8 00       	cmpq   $0x0,-0x8(%rbp)
    5878:	79 1b                	jns    5895 <safe_add_func_int64_t_s_s+0x54>
    587a:	48 83 7d f0 00       	cmpq   $0x0,-0x10(%rbp)
    587f:	79 14                	jns    5895 <safe_add_func_int64_t_s_s+0x54>
    5881:	48 b8 00 00 00 00 00 	movabs $0x8000000000000000,%rax
    5888:	00 00 80 
    588b:	48 2b 45 f0          	sub    -0x10(%rbp),%rax
    588f:	48 39 45 f8          	cmp    %rax,-0x8(%rbp)
    5893:	7c 0d                	jl     58a2 <safe_add_func_int64_t_s_s+0x61>
    5895:	48 8b 55 f8          	mov    -0x8(%rbp),%rdx
    5899:	48 8b 45 f0          	mov    -0x10(%rbp),%rax
    589d:	48 01 d0             	add    %rdx,%rax
    58a0:	eb 04                	jmp    58a6 <safe_add_func_int64_t_s_s+0x65>
    58a2:	48 8b 45 f8          	mov    -0x8(%rbp),%rax
    58a6:	5d                   	pop    %rbp
    58a7:	c3                   	retq   

00000000000058a8 <safe_sub_func_int64_t_s_s>:
    58a8:	f3 0f 1e fa          	endbr64 
    58ac:	55                   	push   %rbp
    58ad:	48 89 e5             	mov    %rsp,%rbp
    58b0:	48 89 7d f8          	mov    %rdi,-0x8(%rbp)
    58b4:	48 89 75 f0          	mov    %rsi,-0x10(%rbp)
    58b8:	48 8b 45 f8          	mov    -0x8(%rbp),%rax
    58bc:	48 33 45 f0          	xor    -0x10(%rbp),%rax
    58c0:	48 89 c2             	mov    %rax,%rdx
    58c3:	48 8b 45 f8          	mov    -0x8(%rbp),%rax
    58c7:	48 33 45 f0          	xor    -0x10(%rbp),%rax
    58cb:	48 b9 00 00 00 00 00 	movabs $0x8000000000000000,%rcx
    58d2:	00 00 80 
    58d5:	48 21 c8             	and    %rcx,%rax
    58d8:	48 33 45 f8          	xor    -0x8(%rbp),%rax
    58dc:	48 2b 45 f0          	sub    -0x10(%rbp),%rax
    58e0:	48 33 45 f0          	xor    -0x10(%rbp),%rax
    58e4:	48 21 d0             	and    %rdx,%rax
    58e7:	48 85 c0             	test   %rax,%rax
    58ea:	78 0a                	js     58f6 <safe_sub_func_int64_t_s_s+0x4e>
    58ec:	48 8b 45 f8          	mov    -0x8(%rbp),%rax
    58f0:	48 2b 45 f0          	sub    -0x10(%rbp),%rax
    58f4:	eb 04                	jmp    58fa <safe_sub_func_int64_t_s_s+0x52>
    58f6:	48 8b 45 f8          	mov    -0x8(%rbp),%rax
    58fa:	5d                   	pop    %rbp
    58fb:	c3                   	retq   

00000000000058fc <safe_mul_func_int64_t_s_s>:
    58fc:	f3 0f 1e fa          	endbr64 
    5900:	55                   	push   %rbp
    5901:	48 89 e5             	mov    %rsp,%rbp
    5904:	48 89 7d f8          	mov    %rdi,-0x8(%rbp)
    5908:	48 89 75 f0          	mov    %rsi,-0x10(%rbp)
    590c:	48 83 7d f8 00       	cmpq   $0x0,-0x8(%rbp)
    5911:	7e 1d                	jle    5930 <safe_mul_func_int64_t_s_s+0x34>
    5913:	48 83 7d f0 00       	cmpq   $0x0,-0x10(%rbp)
    5918:	7e 16                	jle    5930 <safe_mul_func_int64_t_s_s+0x34>
    591a:	48 b8 ff ff ff ff ff 	movabs $0x7fffffffffffffff,%rax
    5921:	ff ff 7f 
    5924:	48 99                	cqto   
    5926:	48 f7 7d f0          	idivq  -0x10(%rbp)
    592a:	48 39 45 f8          	cmp    %rax,-0x8(%rbp)
    592e:	7f 7e                	jg     59ae <safe_mul_func_int64_t_s_s+0xb2>
    5930:	48 83 7d f8 00       	cmpq   $0x0,-0x8(%rbp)
    5935:	7e 1d                	jle    5954 <safe_mul_func_int64_t_s_s+0x58>
    5937:	48 83 7d f0 00       	cmpq   $0x0,-0x10(%rbp)
    593c:	7f 16                	jg     5954 <safe_mul_func_int64_t_s_s+0x58>
    593e:	48 b8 00 00 00 00 00 	movabs $0x8000000000000000,%rax
    5945:	00 00 80 
    5948:	48 99                	cqto   
    594a:	48 f7 7d f8          	idivq  -0x8(%rbp)
    594e:	48 39 45 f0          	cmp    %rax,-0x10(%rbp)
    5952:	7c 5a                	jl     59ae <safe_mul_func_int64_t_s_s+0xb2>
    5954:	48 83 7d f8 00       	cmpq   $0x0,-0x8(%rbp)
    5959:	7f 1d                	jg     5978 <safe_mul_func_int64_t_s_s+0x7c>
    595b:	48 83 7d f0 00       	cmpq   $0x0,-0x10(%rbp)
    5960:	7e 16                	jle    5978 <safe_mul_func_int64_t_s_s+0x7c>
    5962:	48 b8 00 00 00 00 00 	movabs $0x8000000000000000,%rax
    5969:	00 00 80 
    596c:	48 99                	cqto   
    596e:	48 f7 7d f0          	idivq  -0x10(%rbp)
    5972:	48 39 45 f8          	cmp    %rax,-0x8(%rbp)
    5976:	7c 36                	jl     59ae <safe_mul_func_int64_t_s_s+0xb2>
    5978:	48 83 7d f8 00       	cmpq   $0x0,-0x8(%rbp)
    597d:	7f 24                	jg     59a3 <safe_mul_func_int64_t_s_s+0xa7>
    597f:	48 83 7d f0 00       	cmpq   $0x0,-0x10(%rbp)
    5984:	7f 1d                	jg     59a3 <safe_mul_func_int64_t_s_s+0xa7>
    5986:	48 83 7d f8 00       	cmpq   $0x0,-0x8(%rbp)
    598b:	74 16                	je     59a3 <safe_mul_func_int64_t_s_s+0xa7>
    598d:	48 b8 ff ff ff ff ff 	movabs $0x7fffffffffffffff,%rax
    5994:	ff ff 7f 
    5997:	48 99                	cqto   
    5999:	48 f7 7d f8          	idivq  -0x8(%rbp)
    599d:	48 39 45 f0          	cmp    %rax,-0x10(%rbp)
    59a1:	7c 0b                	jl     59ae <safe_mul_func_int64_t_s_s+0xb2>
    59a3:	48 8b 45 f8          	mov    -0x8(%rbp),%rax
    59a7:	48 0f af 45 f0       	imul   -0x10(%rbp),%rax
    59ac:	eb 04                	jmp    59b2 <safe_mul_func_int64_t_s_s+0xb6>
    59ae:	48 8b 45 f8          	mov    -0x8(%rbp),%rax
    59b2:	5d                   	pop    %rbp
    59b3:	c3                   	retq   

00000000000059b4 <safe_mod_func_int64_t_s_s>:
    59b4:	f3 0f 1e fa          	endbr64 
    59b8:	55                   	push   %rbp
    59b9:	48 89 e5             	mov    %rsp,%rbp
    59bc:	48 89 7d f8          	mov    %rdi,-0x8(%rbp)
    59c0:	48 89 75 f0          	mov    %rsi,-0x10(%rbp)
    59c4:	48 83 7d f0 00       	cmpq   $0x0,-0x10(%rbp)
    59c9:	74 26                	je     59f1 <safe_mod_func_int64_t_s_s+0x3d>
    59cb:	48 b8 00 00 00 00 00 	movabs $0x8000000000000000,%rax
    59d2:	00 00 80 
    59d5:	48 39 45 f8          	cmp    %rax,-0x8(%rbp)
    59d9:	75 07                	jne    59e2 <safe_mod_func_int64_t_s_s+0x2e>
    59db:	48 83 7d f0 ff       	cmpq   $0xffffffffffffffff,-0x10(%rbp)
    59e0:	74 0f                	je     59f1 <safe_mod_func_int64_t_s_s+0x3d>
    59e2:	48 8b 45 f8          	mov    -0x8(%rbp),%rax
    59e6:	48 99                	cqto   
    59e8:	48 f7 7d f0          	idivq  -0x10(%rbp)
    59ec:	48 89 d0             	mov    %rdx,%rax
    59ef:	eb 04                	jmp    59f5 <safe_mod_func_int64_t_s_s+0x41>
    59f1:	48 8b 45 f8          	mov    -0x8(%rbp),%rax
    59f5:	5d                   	pop    %rbp
    59f6:	c3                   	retq   

00000000000059f7 <safe_div_func_int64_t_s_s>:
    59f7:	f3 0f 1e fa          	endbr64 
    59fb:	55                   	push   %rbp
    59fc:	48 89 e5             	mov    %rsp,%rbp
    59ff:	48 89 7d f8          	mov    %rdi,-0x8(%rbp)
    5a03:	48 89 75 f0          	mov    %rsi,-0x10(%rbp)
    5a07:	48 83 7d f0 00       	cmpq   $0x0,-0x10(%rbp)
    5a0c:	74 23                	je     5a31 <safe_div_func_int64_t_s_s+0x3a>
    5a0e:	48 b8 00 00 00 00 00 	movabs $0x8000000000000000,%rax
    5a15:	00 00 80 
    5a18:	48 39 45 f8          	cmp    %rax,-0x8(%rbp)
    5a1c:	75 07                	jne    5a25 <safe_div_func_int64_t_s_s+0x2e>
    5a1e:	48 83 7d f0 ff       	cmpq   $0xffffffffffffffff,-0x10(%rbp)
    5a23:	74 0c                	je     5a31 <safe_div_func_int64_t_s_s+0x3a>
    5a25:	48 8b 45 f8          	mov    -0x8(%rbp),%rax
    5a29:	48 99                	cqto   
    5a2b:	48 f7 7d f0          	idivq  -0x10(%rbp)
    5a2f:	eb 04                	jmp    5a35 <safe_div_func_int64_t_s_s+0x3e>
    5a31:	48 8b 45 f8          	mov    -0x8(%rbp),%rax
    5a35:	5d                   	pop    %rbp
    5a36:	c3                   	retq   

0000000000005a37 <safe_lshift_func_int64_t_s_s>:
    5a37:	f3 0f 1e fa          	endbr64 
    5a3b:	55                   	push   %rbp
    5a3c:	48 89 e5             	mov    %rsp,%rbp
    5a3f:	48 89 7d f8          	mov    %rdi,-0x8(%rbp)
    5a43:	89 75 f4             	mov    %esi,-0xc(%rbp)
    5a46:	48 83 7d f8 00       	cmpq   $0x0,-0x8(%rbp)
    5a4b:	78 38                	js     5a85 <safe_lshift_func_int64_t_s_s+0x4e>
    5a4d:	83 7d f4 00          	cmpl   $0x0,-0xc(%rbp)
    5a51:	78 32                	js     5a85 <safe_lshift_func_int64_t_s_s+0x4e>
    5a53:	83 7d f4 1f          	cmpl   $0x1f,-0xc(%rbp)
    5a57:	7f 2c                	jg     5a85 <safe_lshift_func_int64_t_s_s+0x4e>
    5a59:	8b 45 f4             	mov    -0xc(%rbp),%eax
    5a5c:	48 ba ff ff ff ff ff 	movabs $0x7fffffffffffffff,%rdx
    5a63:	ff ff 7f 
    5a66:	89 c1                	mov    %eax,%ecx
    5a68:	48 d3 fa             	sar    %cl,%rdx
    5a6b:	48 89 d0             	mov    %rdx,%rax
    5a6e:	48 39 45 f8          	cmp    %rax,-0x8(%rbp)
    5a72:	7f 11                	jg     5a85 <safe_lshift_func_int64_t_s_s+0x4e>
    5a74:	8b 45 f4             	mov    -0xc(%rbp),%eax
    5a77:	48 8b 55 f8          	mov    -0x8(%rbp),%rdx
    5a7b:	89 c1                	mov    %eax,%ecx
    5a7d:	48 d3 e2             	shl    %cl,%rdx
    5a80:	48 89 d0             	mov    %rdx,%rax
    5a83:	eb 04                	jmp    5a89 <safe_lshift_func_int64_t_s_s+0x52>
    5a85:	48 8b 45 f8          	mov    -0x8(%rbp),%rax
    5a89:	5d                   	pop    %rbp
    5a8a:	c3                   	retq   

0000000000005a8b <safe_lshift_func_int64_t_s_u>:
    5a8b:	f3 0f 1e fa          	endbr64 
    5a8f:	55                   	push   %rbp
    5a90:	48 89 e5             	mov    %rsp,%rbp
    5a93:	48 89 7d f8          	mov    %rdi,-0x8(%rbp)
    5a97:	89 75 f4             	mov    %esi,-0xc(%rbp)
    5a9a:	48 83 7d f8 00       	cmpq   $0x0,-0x8(%rbp)
    5a9f:	78 32                	js     5ad3 <safe_lshift_func_int64_t_s_u+0x48>
    5aa1:	83 7d f4 1f          	cmpl   $0x1f,-0xc(%rbp)
    5aa5:	77 2c                	ja     5ad3 <safe_lshift_func_int64_t_s_u+0x48>
    5aa7:	8b 45 f4             	mov    -0xc(%rbp),%eax
    5aaa:	48 ba ff ff ff ff ff 	movabs $0x7fffffffffffffff,%rdx
    5ab1:	ff ff 7f 
    5ab4:	89 c1                	mov    %eax,%ecx
    5ab6:	48 d3 fa             	sar    %cl,%rdx
    5ab9:	48 89 d0             	mov    %rdx,%rax
    5abc:	48 39 45 f8          	cmp    %rax,-0x8(%rbp)
    5ac0:	7f 11                	jg     5ad3 <safe_lshift_func_int64_t_s_u+0x48>
    5ac2:	8b 45 f4             	mov    -0xc(%rbp),%eax
    5ac5:	48 8b 55 f8          	mov    -0x8(%rbp),%rdx
    5ac9:	89 c1                	mov    %eax,%ecx
    5acb:	48 d3 e2             	shl    %cl,%rdx
    5ace:	48 89 d0             	mov    %rdx,%rax
    5ad1:	eb 04                	jmp    5ad7 <safe_lshift_func_int64_t_s_u+0x4c>
    5ad3:	48 8b 45 f8          	mov    -0x8(%rbp),%rax
    5ad7:	5d                   	pop    %rbp
    5ad8:	c3                   	retq   

0000000000005ad9 <safe_rshift_func_int64_t_s_s>:
    5ad9:	f3 0f 1e fa          	endbr64 
    5add:	55                   	push   %rbp
    5ade:	48 89 e5             	mov    %rsp,%rbp
    5ae1:	48 89 7d f8          	mov    %rdi,-0x8(%rbp)
    5ae5:	89 75 f4             	mov    %esi,-0xc(%rbp)
    5ae8:	48 83 7d f8 00       	cmpq   $0x0,-0x8(%rbp)
    5aed:	78 1d                	js     5b0c <safe_rshift_func_int64_t_s_s+0x33>
    5aef:	83 7d f4 00          	cmpl   $0x0,-0xc(%rbp)
    5af3:	78 17                	js     5b0c <safe_rshift_func_int64_t_s_s+0x33>
    5af5:	83 7d f4 1f          	cmpl   $0x1f,-0xc(%rbp)
    5af9:	7f 11                	jg     5b0c <safe_rshift_func_int64_t_s_s+0x33>
    5afb:	8b 45 f4             	mov    -0xc(%rbp),%eax
    5afe:	48 8b 55 f8          	mov    -0x8(%rbp),%rdx
    5b02:	89 c1                	mov    %eax,%ecx
    5b04:	48 d3 fa             	sar    %cl,%rdx
    5b07:	48 89 d0             	mov    %rdx,%rax
    5b0a:	eb 04                	jmp    5b10 <safe_rshift_func_int64_t_s_s+0x37>
    5b0c:	48 8b 45 f8          	mov    -0x8(%rbp),%rax
    5b10:	5d                   	pop    %rbp
    5b11:	c3                   	retq   

0000000000005b12 <safe_rshift_func_int64_t_s_u>:
    5b12:	f3 0f 1e fa          	endbr64 
    5b16:	55                   	push   %rbp
    5b17:	48 89 e5             	mov    %rsp,%rbp
    5b1a:	48 89 7d f8          	mov    %rdi,-0x8(%rbp)
    5b1e:	89 75 f4             	mov    %esi,-0xc(%rbp)
    5b21:	48 83 7d f8 00       	cmpq   $0x0,-0x8(%rbp)
    5b26:	78 17                	js     5b3f <safe_rshift_func_int64_t_s_u+0x2d>
    5b28:	83 7d f4 1f          	cmpl   $0x1f,-0xc(%rbp)
    5b2c:	77 11                	ja     5b3f <safe_rshift_func_int64_t_s_u+0x2d>
    5b2e:	8b 45 f4             	mov    -0xc(%rbp),%eax
    5b31:	48 8b 55 f8          	mov    -0x8(%rbp),%rdx
    5b35:	89 c1                	mov    %eax,%ecx
    5b37:	48 d3 fa             	sar    %cl,%rdx
    5b3a:	48 89 d0             	mov    %rdx,%rax
    5b3d:	eb 04                	jmp    5b43 <safe_rshift_func_int64_t_s_u+0x31>
    5b3f:	48 8b 45 f8          	mov    -0x8(%rbp),%rax
    5b43:	5d                   	pop    %rbp
    5b44:	c3                   	retq   

0000000000005b45 <safe_unary_minus_func_uint8_t_u>:
    5b45:	f3 0f 1e fa          	endbr64 
    5b49:	55                   	push   %rbp
    5b4a:	48 89 e5             	mov    %rsp,%rbp
    5b4d:	89 f8                	mov    %edi,%eax
    5b4f:	88 45 fc             	mov    %al,-0x4(%rbp)
    5b52:	0f b6 45 fc          	movzbl -0x4(%rbp),%eax
    5b56:	f7 d8                	neg    %eax
    5b58:	5d                   	pop    %rbp
    5b59:	c3                   	retq   

0000000000005b5a <safe_add_func_uint8_t_u_u>:
    5b5a:	f3 0f 1e fa          	endbr64 
    5b5e:	55                   	push   %rbp
    5b5f:	48 89 e5             	mov    %rsp,%rbp
    5b62:	89 fa                	mov    %edi,%edx
    5b64:	89 f0                	mov    %esi,%eax
    5b66:	88 55 fc             	mov    %dl,-0x4(%rbp)
    5b69:	88 45 f8             	mov    %al,-0x8(%rbp)
    5b6c:	0f b6 55 fc          	movzbl -0x4(%rbp),%edx
    5b70:	0f b6 45 f8          	movzbl -0x8(%rbp),%eax
    5b74:	01 d0                	add    %edx,%eax
    5b76:	5d                   	pop    %rbp
    5b77:	c3                   	retq   

0000000000005b78 <safe_sub_func_uint8_t_u_u>:
    5b78:	f3 0f 1e fa          	endbr64 
    5b7c:	55                   	push   %rbp
    5b7d:	48 89 e5             	mov    %rsp,%rbp
    5b80:	89 fa                	mov    %edi,%edx
    5b82:	89 f0                	mov    %esi,%eax
    5b84:	88 55 fc             	mov    %dl,-0x4(%rbp)
    5b87:	88 45 f8             	mov    %al,-0x8(%rbp)
    5b8a:	0f b6 45 fc          	movzbl -0x4(%rbp),%eax
    5b8e:	2a 45 f8             	sub    -0x8(%rbp),%al
    5b91:	5d                   	pop    %rbp
    5b92:	c3                   	retq   

0000000000005b93 <safe_mul_func_uint8_t_u_u>:
    5b93:	f3 0f 1e fa          	endbr64 
    5b97:	55                   	push   %rbp
    5b98:	48 89 e5             	mov    %rsp,%rbp
    5b9b:	89 fa                	mov    %edi,%edx
    5b9d:	89 f0                	mov    %esi,%eax
    5b9f:	88 55 fc             	mov    %dl,-0x4(%rbp)
    5ba2:	88 45 f8             	mov    %al,-0x8(%rbp)
    5ba5:	0f b6 45 fc          	movzbl -0x4(%rbp),%eax
    5ba9:	f6 65 f8             	mulb   -0x8(%rbp)
    5bac:	5d                   	pop    %rbp
    5bad:	c3                   	retq   

0000000000005bae <safe_mod_func_uint8_t_u_u>:
    5bae:	f3 0f 1e fa          	endbr64 
    5bb2:	55                   	push   %rbp
    5bb3:	48 89 e5             	mov    %rsp,%rbp
    5bb6:	89 fa                	mov    %edi,%edx
    5bb8:	89 f0                	mov    %esi,%eax
    5bba:	88 55 fc             	mov    %dl,-0x4(%rbp)
    5bbd:	88 45 f8             	mov    %al,-0x8(%rbp)
    5bc0:	80 7d f8 00          	cmpb   $0x0,-0x8(%rbp)
    5bc4:	74 0f                	je     5bd5 <safe_mod_func_uint8_t_u_u+0x27>
    5bc6:	0f b6 45 fc          	movzbl -0x4(%rbp),%eax
    5bca:	0f b6 c0             	movzbl %al,%eax
    5bcd:	f6 75 f8             	divb   -0x8(%rbp)
    5bd0:	0f b6 c4             	movzbl %ah,%eax
    5bd3:	eb 04                	jmp    5bd9 <safe_mod_func_uint8_t_u_u+0x2b>
    5bd5:	0f b6 45 fc          	movzbl -0x4(%rbp),%eax
    5bd9:	5d                   	pop    %rbp
    5bda:	c3                   	retq   

0000000000005bdb <safe_div_func_uint8_t_u_u>:
    5bdb:	f3 0f 1e fa          	endbr64 
    5bdf:	55                   	push   %rbp
    5be0:	48 89 e5             	mov    %rsp,%rbp
    5be3:	89 fa                	mov    %edi,%edx
    5be5:	89 f0                	mov    %esi,%eax
    5be7:	88 55 fc             	mov    %dl,-0x4(%rbp)
    5bea:	88 45 f8             	mov    %al,-0x8(%rbp)
    5bed:	80 7d f8 00          	cmpb   $0x0,-0x8(%rbp)
    5bf1:	74 0c                	je     5bff <safe_div_func_uint8_t_u_u+0x24>
    5bf3:	0f b6 45 fc          	movzbl -0x4(%rbp),%eax
    5bf7:	0f b6 c0             	movzbl %al,%eax
    5bfa:	f6 75 f8             	divb   -0x8(%rbp)
    5bfd:	eb 04                	jmp    5c03 <safe_div_func_uint8_t_u_u+0x28>
    5bff:	0f b6 45 fc          	movzbl -0x4(%rbp),%eax
    5c03:	5d                   	pop    %rbp
    5c04:	c3                   	retq   

0000000000005c05 <safe_lshift_func_uint8_t_u_s>:
    5c05:	f3 0f 1e fa          	endbr64 
    5c09:	55                   	push   %rbp
    5c0a:	48 89 e5             	mov    %rsp,%rbp
    5c0d:	89 f8                	mov    %edi,%eax
    5c0f:	89 75 f8             	mov    %esi,-0x8(%rbp)
    5c12:	88 45 fc             	mov    %al,-0x4(%rbp)
    5c15:	83 7d f8 00          	cmpl   $0x0,-0x8(%rbp)
    5c19:	78 2b                	js     5c46 <safe_lshift_func_uint8_t_u_s+0x41>
    5c1b:	83 7d f8 1f          	cmpl   $0x1f,-0x8(%rbp)
    5c1f:	7f 25                	jg     5c46 <safe_lshift_func_uint8_t_u_s+0x41>
    5c21:	0f b6 55 fc          	movzbl -0x4(%rbp),%edx
    5c25:	8b 45 f8             	mov    -0x8(%rbp),%eax
    5c28:	be ff 00 00 00       	mov    $0xff,%esi
    5c2d:	89 c1                	mov    %eax,%ecx
    5c2f:	d3 fe                	sar    %cl,%esi
    5c31:	89 f0                	mov    %esi,%eax
    5c33:	39 c2                	cmp    %eax,%edx
    5c35:	7f 0f                	jg     5c46 <safe_lshift_func_uint8_t_u_s+0x41>
    5c37:	0f b6 55 fc          	movzbl -0x4(%rbp),%edx
    5c3b:	8b 45 f8             	mov    -0x8(%rbp),%eax
    5c3e:	89 c1                	mov    %eax,%ecx
    5c40:	d3 e2                	shl    %cl,%edx
    5c42:	89 d0                	mov    %edx,%eax
    5c44:	eb 04                	jmp    5c4a <safe_lshift_func_uint8_t_u_s+0x45>
    5c46:	0f b6 45 fc          	movzbl -0x4(%rbp),%eax
    5c4a:	5d                   	pop    %rbp
    5c4b:	c3                   	retq   

0000000000005c4c <safe_lshift_func_uint8_t_u_u>:
    5c4c:	f3 0f 1e fa          	endbr64 
    5c50:	55                   	push   %rbp
    5c51:	48 89 e5             	mov    %rsp,%rbp
    5c54:	89 f8                	mov    %edi,%eax
    5c56:	89 75 f8             	mov    %esi,-0x8(%rbp)
    5c59:	88 45 fc             	mov    %al,-0x4(%rbp)
    5c5c:	83 7d f8 1f          	cmpl   $0x1f,-0x8(%rbp)
    5c60:	77 25                	ja     5c87 <safe_lshift_func_uint8_t_u_u+0x3b>
    5c62:	0f b6 55 fc          	movzbl -0x4(%rbp),%edx
    5c66:	8b 45 f8             	mov    -0x8(%rbp),%eax
    5c69:	be ff 00 00 00       	mov    $0xff,%esi
    5c6e:	89 c1                	mov    %eax,%ecx
    5c70:	d3 fe                	sar    %cl,%esi
    5c72:	89 f0                	mov    %esi,%eax
    5c74:	39 c2                	cmp    %eax,%edx
    5c76:	7f 0f                	jg     5c87 <safe_lshift_func_uint8_t_u_u+0x3b>
    5c78:	0f b6 55 fc          	movzbl -0x4(%rbp),%edx
    5c7c:	8b 45 f8             	mov    -0x8(%rbp),%eax
    5c7f:	89 c1                	mov    %eax,%ecx
    5c81:	d3 e2                	shl    %cl,%edx
    5c83:	89 d0                	mov    %edx,%eax
    5c85:	eb 04                	jmp    5c8b <safe_lshift_func_uint8_t_u_u+0x3f>
    5c87:	0f b6 45 fc          	movzbl -0x4(%rbp),%eax
    5c8b:	5d                   	pop    %rbp
    5c8c:	c3                   	retq   

0000000000005c8d <safe_rshift_func_uint8_t_u_s>:
    5c8d:	f3 0f 1e fa          	endbr64 
    5c91:	55                   	push   %rbp
    5c92:	48 89 e5             	mov    %rsp,%rbp
    5c95:	89 f8                	mov    %edi,%eax
    5c97:	89 75 f8             	mov    %esi,-0x8(%rbp)
    5c9a:	88 45 fc             	mov    %al,-0x4(%rbp)
    5c9d:	83 7d f8 00          	cmpl   $0x0,-0x8(%rbp)
    5ca1:	78 15                	js     5cb8 <safe_rshift_func_uint8_t_u_s+0x2b>
    5ca3:	83 7d f8 1f          	cmpl   $0x1f,-0x8(%rbp)
    5ca7:	7f 0f                	jg     5cb8 <safe_rshift_func_uint8_t_u_s+0x2b>
    5ca9:	0f b6 55 fc          	movzbl -0x4(%rbp),%edx
    5cad:	8b 45 f8             	mov    -0x8(%rbp),%eax
    5cb0:	89 c1                	mov    %eax,%ecx
    5cb2:	d3 fa                	sar    %cl,%edx
    5cb4:	89 d0                	mov    %edx,%eax
    5cb6:	eb 04                	jmp    5cbc <safe_rshift_func_uint8_t_u_s+0x2f>
    5cb8:	0f b6 45 fc          	movzbl -0x4(%rbp),%eax
    5cbc:	5d                   	pop    %rbp
    5cbd:	c3                   	retq   

0000000000005cbe <safe_rshift_func_uint8_t_u_u>:
    5cbe:	f3 0f 1e fa          	endbr64 
    5cc2:	55                   	push   %rbp
    5cc3:	48 89 e5             	mov    %rsp,%rbp
    5cc6:	89 f8                	mov    %edi,%eax
    5cc8:	89 75 f8             	mov    %esi,-0x8(%rbp)
    5ccb:	88 45 fc             	mov    %al,-0x4(%rbp)
    5cce:	83 7d f8 1f          	cmpl   $0x1f,-0x8(%rbp)
    5cd2:	77 0f                	ja     5ce3 <safe_rshift_func_uint8_t_u_u+0x25>
    5cd4:	0f b6 55 fc          	movzbl -0x4(%rbp),%edx
    5cd8:	8b 45 f8             	mov    -0x8(%rbp),%eax
    5cdb:	89 c1                	mov    %eax,%ecx
    5cdd:	d3 fa                	sar    %cl,%edx
    5cdf:	89 d0                	mov    %edx,%eax
    5ce1:	eb 04                	jmp    5ce7 <safe_rshift_func_uint8_t_u_u+0x29>
    5ce3:	0f b6 45 fc          	movzbl -0x4(%rbp),%eax
    5ce7:	5d                   	pop    %rbp
    5ce8:	c3                   	retq   

0000000000005ce9 <safe_unary_minus_func_uint16_t_u>:
    5ce9:	f3 0f 1e fa          	endbr64 
    5ced:	55                   	push   %rbp
    5cee:	48 89 e5             	mov    %rsp,%rbp
    5cf1:	89 f8                	mov    %edi,%eax
    5cf3:	66 89 45 fc          	mov    %ax,-0x4(%rbp)
    5cf7:	0f b7 45 fc          	movzwl -0x4(%rbp),%eax
    5cfb:	f7 d8                	neg    %eax
    5cfd:	5d                   	pop    %rbp
    5cfe:	c3                   	retq   

0000000000005cff <safe_add_func_uint16_t_u_u>:
    5cff:	f3 0f 1e fa          	endbr64 
    5d03:	55                   	push   %rbp
    5d04:	48 89 e5             	mov    %rsp,%rbp
    5d07:	89 fa                	mov    %edi,%edx
    5d09:	89 f0                	mov    %esi,%eax
    5d0b:	66 89 55 fc          	mov    %dx,-0x4(%rbp)
    5d0f:	66 89 45 f8          	mov    %ax,-0x8(%rbp)
    5d13:	0f b7 55 fc          	movzwl -0x4(%rbp),%edx
    5d17:	0f b7 45 f8          	movzwl -0x8(%rbp),%eax
    5d1b:	01 d0                	add    %edx,%eax
    5d1d:	5d                   	pop    %rbp
    5d1e:	c3                   	retq   

0000000000005d1f <safe_sub_func_uint16_t_u_u>:
    5d1f:	f3 0f 1e fa          	endbr64 
    5d23:	55                   	push   %rbp
    5d24:	48 89 e5             	mov    %rsp,%rbp
    5d27:	89 fa                	mov    %edi,%edx
    5d29:	89 f0                	mov    %esi,%eax
    5d2b:	66 89 55 fc          	mov    %dx,-0x4(%rbp)
    5d2f:	66 89 45 f8          	mov    %ax,-0x8(%rbp)
    5d33:	0f b7 45 fc          	movzwl -0x4(%rbp),%eax
    5d37:	66 2b 45 f8          	sub    -0x8(%rbp),%ax
    5d3b:	5d                   	pop    %rbp
    5d3c:	c3                   	retq   

0000000000005d3d <safe_mul_func_uint16_t_u_u>:
    5d3d:	f3 0f 1e fa          	endbr64 
    5d41:	55                   	push   %rbp
    5d42:	48 89 e5             	mov    %rsp,%rbp
    5d45:	89 fa                	mov    %edi,%edx
    5d47:	89 f0                	mov    %esi,%eax
    5d49:	66 89 55 fc          	mov    %dx,-0x4(%rbp)
    5d4d:	66 89 45 f8          	mov    %ax,-0x8(%rbp)
    5d51:	0f b7 45 fc          	movzwl -0x4(%rbp),%eax
    5d55:	66 0f af 45 f8       	imul   -0x8(%rbp),%ax
    5d5a:	5d                   	pop    %rbp
    5d5b:	c3                   	retq   

0000000000005d5c <safe_mod_func_uint16_t_u_u>:
    5d5c:	f3 0f 1e fa          	endbr64 
    5d60:	55                   	push   %rbp
    5d61:	48 89 e5             	mov    %rsp,%rbp
    5d64:	89 fa                	mov    %edi,%edx
    5d66:	89 f0                	mov    %esi,%eax
    5d68:	66 89 55 fc          	mov    %dx,-0x4(%rbp)
    5d6c:	66 89 45 f8          	mov    %ax,-0x8(%rbp)
    5d70:	66 83 7d f8 00       	cmpw   $0x0,-0x8(%rbp)
    5d75:	74 11                	je     5d88 <safe_mod_func_uint16_t_u_u+0x2c>
    5d77:	0f b7 45 fc          	movzwl -0x4(%rbp),%eax
    5d7b:	ba 00 00 00 00       	mov    $0x0,%edx
    5d80:	66 f7 75 f8          	divw   -0x8(%rbp)
    5d84:	89 d0                	mov    %edx,%eax
    5d86:	eb 04                	jmp    5d8c <safe_mod_func_uint16_t_u_u+0x30>
    5d88:	0f b7 45 fc          	movzwl -0x4(%rbp),%eax
    5d8c:	5d                   	pop    %rbp
    5d8d:	c3                   	retq   

0000000000005d8e <safe_div_func_uint16_t_u_u>:
    5d8e:	f3 0f 1e fa          	endbr64 
    5d92:	55                   	push   %rbp
    5d93:	48 89 e5             	mov    %rsp,%rbp
    5d96:	89 fa                	mov    %edi,%edx
    5d98:	89 f0                	mov    %esi,%eax
    5d9a:	66 89 55 fc          	mov    %dx,-0x4(%rbp)
    5d9e:	66 89 45 f8          	mov    %ax,-0x8(%rbp)
    5da2:	66 83 7d f8 00       	cmpw   $0x0,-0x8(%rbp)
    5da7:	74 0f                	je     5db8 <safe_div_func_uint16_t_u_u+0x2a>
    5da9:	0f b7 45 fc          	movzwl -0x4(%rbp),%eax
    5dad:	ba 00 00 00 00       	mov    $0x0,%edx
    5db2:	66 f7 75 f8          	divw   -0x8(%rbp)
    5db6:	eb 04                	jmp    5dbc <safe_div_func_uint16_t_u_u+0x2e>
    5db8:	0f b7 45 fc          	movzwl -0x4(%rbp),%eax
    5dbc:	5d                   	pop    %rbp
    5dbd:	c3                   	retq   

0000000000005dbe <safe_lshift_func_uint16_t_u_s>:
    5dbe:	f3 0f 1e fa          	endbr64 
    5dc2:	55                   	push   %rbp
    5dc3:	48 89 e5             	mov    %rsp,%rbp
    5dc6:	89 f8                	mov    %edi,%eax
    5dc8:	89 75 f8             	mov    %esi,-0x8(%rbp)
    5dcb:	66 89 45 fc          	mov    %ax,-0x4(%rbp)
    5dcf:	83 7d f8 00          	cmpl   $0x0,-0x8(%rbp)
    5dd3:	78 2b                	js     5e00 <safe_lshift_func_uint16_t_u_s+0x42>
    5dd5:	83 7d f8 1f          	cmpl   $0x1f,-0x8(%rbp)
    5dd9:	7f 25                	jg     5e00 <safe_lshift_func_uint16_t_u_s+0x42>
    5ddb:	0f b7 55 fc          	movzwl -0x4(%rbp),%edx
    5ddf:	8b 45 f8             	mov    -0x8(%rbp),%eax
    5de2:	be ff ff 00 00       	mov    $0xffff,%esi
    5de7:	89 c1                	mov    %eax,%ecx
    5de9:	d3 fe                	sar    %cl,%esi
    5deb:	89 f0                	mov    %esi,%eax
    5ded:	39 c2                	cmp    %eax,%edx
    5def:	7f 0f                	jg     5e00 <safe_lshift_func_uint16_t_u_s+0x42>
    5df1:	0f b7 55 fc          	movzwl -0x4(%rbp),%edx
    5df5:	8b 45 f8             	mov    -0x8(%rbp),%eax
    5df8:	89 c1                	mov    %eax,%ecx
    5dfa:	d3 e2                	shl    %cl,%edx
    5dfc:	89 d0                	mov    %edx,%eax
    5dfe:	eb 04                	jmp    5e04 <safe_lshift_func_uint16_t_u_s+0x46>
    5e00:	0f b7 45 fc          	movzwl -0x4(%rbp),%eax
    5e04:	5d                   	pop    %rbp
    5e05:	c3                   	retq   

0000000000005e06 <safe_lshift_func_uint16_t_u_u>:
    5e06:	f3 0f 1e fa          	endbr64 
    5e0a:	55                   	push   %rbp
    5e0b:	48 89 e5             	mov    %rsp,%rbp
    5e0e:	89 f8                	mov    %edi,%eax
    5e10:	89 75 f8             	mov    %esi,-0x8(%rbp)
    5e13:	66 89 45 fc          	mov    %ax,-0x4(%rbp)
    5e17:	83 7d f8 1f          	cmpl   $0x1f,-0x8(%rbp)
    5e1b:	77 25                	ja     5e42 <safe_lshift_func_uint16_t_u_u+0x3c>
    5e1d:	0f b7 55 fc          	movzwl -0x4(%rbp),%edx
    5e21:	8b 45 f8             	mov    -0x8(%rbp),%eax
    5e24:	be ff ff 00 00       	mov    $0xffff,%esi
    5e29:	89 c1                	mov    %eax,%ecx
    5e2b:	d3 fe                	sar    %cl,%esi
    5e2d:	89 f0                	mov    %esi,%eax
    5e2f:	39 c2                	cmp    %eax,%edx
    5e31:	7f 0f                	jg     5e42 <safe_lshift_func_uint16_t_u_u+0x3c>
    5e33:	0f b7 55 fc          	movzwl -0x4(%rbp),%edx
    5e37:	8b 45 f8             	mov    -0x8(%rbp),%eax
    5e3a:	89 c1                	mov    %eax,%ecx
    5e3c:	d3 e2                	shl    %cl,%edx
    5e3e:	89 d0                	mov    %edx,%eax
    5e40:	eb 04                	jmp    5e46 <safe_lshift_func_uint16_t_u_u+0x40>
    5e42:	0f b7 45 fc          	movzwl -0x4(%rbp),%eax
    5e46:	5d                   	pop    %rbp
    5e47:	c3                   	retq   

0000000000005e48 <safe_rshift_func_uint16_t_u_s>:
    5e48:	f3 0f 1e fa          	endbr64 
    5e4c:	55                   	push   %rbp
    5e4d:	48 89 e5             	mov    %rsp,%rbp
    5e50:	89 f8                	mov    %edi,%eax
    5e52:	89 75 f8             	mov    %esi,-0x8(%rbp)
    5e55:	66 89 45 fc          	mov    %ax,-0x4(%rbp)
    5e59:	83 7d f8 00          	cmpl   $0x0,-0x8(%rbp)
    5e5d:	78 15                	js     5e74 <safe_rshift_func_uint16_t_u_s+0x2c>
    5e5f:	83 7d f8 1f          	cmpl   $0x1f,-0x8(%rbp)
    5e63:	7f 0f                	jg     5e74 <safe_rshift_func_uint16_t_u_s+0x2c>
    5e65:	0f b7 55 fc          	movzwl -0x4(%rbp),%edx
    5e69:	8b 45 f8             	mov    -0x8(%rbp),%eax
    5e6c:	89 c1                	mov    %eax,%ecx
    5e6e:	d3 fa                	sar    %cl,%edx
    5e70:	89 d0                	mov    %edx,%eax
    5e72:	eb 04                	jmp    5e78 <safe_rshift_func_uint16_t_u_s+0x30>
    5e74:	0f b7 45 fc          	movzwl -0x4(%rbp),%eax
    5e78:	5d                   	pop    %rbp
    5e79:	c3                   	retq   

0000000000005e7a <safe_rshift_func_uint16_t_u_u>:
    5e7a:	f3 0f 1e fa          	endbr64 
    5e7e:	55                   	push   %rbp
    5e7f:	48 89 e5             	mov    %rsp,%rbp
    5e82:	89 f8                	mov    %edi,%eax
    5e84:	89 75 f8             	mov    %esi,-0x8(%rbp)
    5e87:	66 89 45 fc          	mov    %ax,-0x4(%rbp)
    5e8b:	83 7d f8 1f          	cmpl   $0x1f,-0x8(%rbp)
    5e8f:	77 0f                	ja     5ea0 <safe_rshift_func_uint16_t_u_u+0x26>
    5e91:	0f b7 55 fc          	movzwl -0x4(%rbp),%edx
    5e95:	8b 45 f8             	mov    -0x8(%rbp),%eax
    5e98:	89 c1                	mov    %eax,%ecx
    5e9a:	d3 fa                	sar    %cl,%edx
    5e9c:	89 d0                	mov    %edx,%eax
    5e9e:	eb 04                	jmp    5ea4 <safe_rshift_func_uint16_t_u_u+0x2a>
    5ea0:	0f b7 45 fc          	movzwl -0x4(%rbp),%eax
    5ea4:	5d                   	pop    %rbp
    5ea5:	c3                   	retq   

0000000000005ea6 <safe_unary_minus_func_uint32_t_u>:
    5ea6:	f3 0f 1e fa          	endbr64 
    5eaa:	55                   	push   %rbp
    5eab:	48 89 e5             	mov    %rsp,%rbp
    5eae:	89 7d fc             	mov    %edi,-0x4(%rbp)
    5eb1:	8b 45 fc             	mov    -0x4(%rbp),%eax
    5eb4:	f7 d8                	neg    %eax
    5eb6:	5d                   	pop    %rbp
    5eb7:	c3                   	retq   

0000000000005eb8 <safe_add_func_uint32_t_u_u>:
    5eb8:	f3 0f 1e fa          	endbr64 
    5ebc:	55                   	push   %rbp
    5ebd:	48 89 e5             	mov    %rsp,%rbp
    5ec0:	89 7d fc             	mov    %edi,-0x4(%rbp)
    5ec3:	89 75 f8             	mov    %esi,-0x8(%rbp)
    5ec6:	8b 55 fc             	mov    -0x4(%rbp),%edx
    5ec9:	8b 45 f8             	mov    -0x8(%rbp),%eax
    5ecc:	01 d0                	add    %edx,%eax
    5ece:	5d                   	pop    %rbp
    5ecf:	c3                   	retq   

0000000000005ed0 <safe_sub_func_uint32_t_u_u>:
    5ed0:	f3 0f 1e fa          	endbr64 
    5ed4:	55                   	push   %rbp
    5ed5:	48 89 e5             	mov    %rsp,%rbp
    5ed8:	89 7d fc             	mov    %edi,-0x4(%rbp)
    5edb:	89 75 f8             	mov    %esi,-0x8(%rbp)
    5ede:	8b 45 fc             	mov    -0x4(%rbp),%eax
    5ee1:	2b 45 f8             	sub    -0x8(%rbp),%eax
    5ee4:	5d                   	pop    %rbp
    5ee5:	c3                   	retq   

0000000000005ee6 <safe_mul_func_uint32_t_u_u>:
    5ee6:	f3 0f 1e fa          	endbr64 
    5eea:	55                   	push   %rbp
    5eeb:	48 89 e5             	mov    %rsp,%rbp
    5eee:	89 7d fc             	mov    %edi,-0x4(%rbp)
    5ef1:	89 75 f8             	mov    %esi,-0x8(%rbp)
    5ef4:	8b 45 fc             	mov    -0x4(%rbp),%eax
    5ef7:	0f af 45 f8          	imul   -0x8(%rbp),%eax
    5efb:	5d                   	pop    %rbp
    5efc:	c3                   	retq   

0000000000005efd <safe_mod_func_uint32_t_u_u>:
    5efd:	f3 0f 1e fa          	endbr64 
    5f01:	55                   	push   %rbp
    5f02:	48 89 e5             	mov    %rsp,%rbp
    5f05:	89 7d fc             	mov    %edi,-0x4(%rbp)
    5f08:	89 75 f8             	mov    %esi,-0x8(%rbp)
    5f0b:	83 7d f8 00          	cmpl   $0x0,-0x8(%rbp)
    5f0f:	74 0f                	je     5f20 <safe_mod_func_uint32_t_u_u+0x23>
    5f11:	8b 45 fc             	mov    -0x4(%rbp),%eax
    5f14:	ba 00 00 00 00       	mov    $0x0,%edx
    5f19:	f7 75 f8             	divl   -0x8(%rbp)
    5f1c:	89 d0                	mov    %edx,%eax
    5f1e:	eb 03                	jmp    5f23 <safe_mod_func_uint32_t_u_u+0x26>
    5f20:	8b 45 fc             	mov    -0x4(%rbp),%eax
    5f23:	5d                   	pop    %rbp
    5f24:	c3                   	retq   

0000000000005f25 <safe_div_func_uint32_t_u_u>:
    5f25:	f3 0f 1e fa          	endbr64 
    5f29:	55                   	push   %rbp
    5f2a:	48 89 e5             	mov    %rsp,%rbp
    5f2d:	89 7d fc             	mov    %edi,-0x4(%rbp)
    5f30:	89 75 f8             	mov    %esi,-0x8(%rbp)
    5f33:	83 7d f8 00          	cmpl   $0x0,-0x8(%rbp)
    5f37:	74 0d                	je     5f46 <safe_div_func_uint32_t_u_u+0x21>
    5f39:	8b 45 fc             	mov    -0x4(%rbp),%eax
    5f3c:	ba 00 00 00 00       	mov    $0x0,%edx
    5f41:	f7 75 f8             	divl   -0x8(%rbp)
    5f44:	eb 03                	jmp    5f49 <safe_div_func_uint32_t_u_u+0x24>
    5f46:	8b 45 fc             	mov    -0x4(%rbp),%eax
    5f49:	5d                   	pop    %rbp
    5f4a:	c3                   	retq   

0000000000005f4b <safe_lshift_func_uint32_t_u_s>:
    5f4b:	f3 0f 1e fa          	endbr64 
    5f4f:	55                   	push   %rbp
    5f50:	48 89 e5             	mov    %rsp,%rbp
    5f53:	89 7d fc             	mov    %edi,-0x4(%rbp)
    5f56:	89 75 f8             	mov    %esi,-0x8(%rbp)
    5f59:	83 7d f8 00          	cmpl   $0x0,-0x8(%rbp)
    5f5d:	78 27                	js     5f86 <safe_lshift_func_uint32_t_u_s+0x3b>
    5f5f:	83 7d f8 1f          	cmpl   $0x1f,-0x8(%rbp)
    5f63:	7f 21                	jg     5f86 <safe_lshift_func_uint32_t_u_s+0x3b>
    5f65:	8b 45 f8             	mov    -0x8(%rbp),%eax
    5f68:	ba ff ff ff ff       	mov    $0xffffffff,%edx
    5f6d:	89 c1                	mov    %eax,%ecx
    5f6f:	d3 ea                	shr    %cl,%edx
    5f71:	89 d0                	mov    %edx,%eax
    5f73:	39 45 fc             	cmp    %eax,-0x4(%rbp)
    5f76:	77 0e                	ja     5f86 <safe_lshift_func_uint32_t_u_s+0x3b>
    5f78:	8b 45 f8             	mov    -0x8(%rbp),%eax
    5f7b:	8b 55 fc             	mov    -0x4(%rbp),%edx
    5f7e:	89 c1                	mov    %eax,%ecx
    5f80:	d3 e2                	shl    %cl,%edx
    5f82:	89 d0                	mov    %edx,%eax
    5f84:	eb 03                	jmp    5f89 <safe_lshift_func_uint32_t_u_s+0x3e>
    5f86:	8b 45 fc             	mov    -0x4(%rbp),%eax
    5f89:	5d                   	pop    %rbp
    5f8a:	c3                   	retq   

0000000000005f8b <safe_lshift_func_uint32_t_u_u>:
    5f8b:	f3 0f 1e fa          	endbr64 
    5f8f:	55                   	push   %rbp
    5f90:	48 89 e5             	mov    %rsp,%rbp
    5f93:	89 7d fc             	mov    %edi,-0x4(%rbp)
    5f96:	89 75 f8             	mov    %esi,-0x8(%rbp)
    5f99:	83 7d f8 1f          	cmpl   $0x1f,-0x8(%rbp)
    5f9d:	77 21                	ja     5fc0 <safe_lshift_func_uint32_t_u_u+0x35>
    5f9f:	8b 45 f8             	mov    -0x8(%rbp),%eax
    5fa2:	ba ff ff ff ff       	mov    $0xffffffff,%edx
    5fa7:	89 c1                	mov    %eax,%ecx
    5fa9:	d3 ea                	shr    %cl,%edx
    5fab:	89 d0                	mov    %edx,%eax
    5fad:	39 45 fc             	cmp    %eax,-0x4(%rbp)
    5fb0:	77 0e                	ja     5fc0 <safe_lshift_func_uint32_t_u_u+0x35>
    5fb2:	8b 45 f8             	mov    -0x8(%rbp),%eax
    5fb5:	8b 55 fc             	mov    -0x4(%rbp),%edx
    5fb8:	89 c1                	mov    %eax,%ecx
    5fba:	d3 e2                	shl    %cl,%edx
    5fbc:	89 d0                	mov    %edx,%eax
    5fbe:	eb 03                	jmp    5fc3 <safe_lshift_func_uint32_t_u_u+0x38>
    5fc0:	8b 45 fc             	mov    -0x4(%rbp),%eax
    5fc3:	5d                   	pop    %rbp
    5fc4:	c3                   	retq   

0000000000005fc5 <safe_rshift_func_uint32_t_u_s>:
    5fc5:	f3 0f 1e fa          	endbr64 
    5fc9:	55                   	push   %rbp
    5fca:	48 89 e5             	mov    %rsp,%rbp
    5fcd:	89 7d fc             	mov    %edi,-0x4(%rbp)
    5fd0:	89 75 f8             	mov    %esi,-0x8(%rbp)
    5fd3:	83 7d f8 00          	cmpl   $0x0,-0x8(%rbp)
    5fd7:	78 14                	js     5fed <safe_rshift_func_uint32_t_u_s+0x28>
    5fd9:	83 7d f8 1f          	cmpl   $0x1f,-0x8(%rbp)
    5fdd:	7f 0e                	jg     5fed <safe_rshift_func_uint32_t_u_s+0x28>
    5fdf:	8b 45 f8             	mov    -0x8(%rbp),%eax
    5fe2:	8b 55 fc             	mov    -0x4(%rbp),%edx
    5fe5:	89 c1                	mov    %eax,%ecx
    5fe7:	d3 ea                	shr    %cl,%edx
    5fe9:	89 d0                	mov    %edx,%eax
    5feb:	eb 03                	jmp    5ff0 <safe_rshift_func_uint32_t_u_s+0x2b>
    5fed:	8b 45 fc             	mov    -0x4(%rbp),%eax
    5ff0:	5d                   	pop    %rbp
    5ff1:	c3                   	retq   

0000000000005ff2 <safe_rshift_func_uint32_t_u_u>:
    5ff2:	f3 0f 1e fa          	endbr64 
    5ff6:	55                   	push   %rbp
    5ff7:	48 89 e5             	mov    %rsp,%rbp
    5ffa:	89 7d fc             	mov    %edi,-0x4(%rbp)
    5ffd:	89 75 f8             	mov    %esi,-0x8(%rbp)
    6000:	83 7d f8 1f          	cmpl   $0x1f,-0x8(%rbp)
    6004:	77 0e                	ja     6014 <safe_rshift_func_uint32_t_u_u+0x22>
    6006:	8b 45 f8             	mov    -0x8(%rbp),%eax
    6009:	8b 55 fc             	mov    -0x4(%rbp),%edx
    600c:	89 c1                	mov    %eax,%ecx
    600e:	d3 ea                	shr    %cl,%edx
    6010:	89 d0                	mov    %edx,%eax
    6012:	eb 03                	jmp    6017 <safe_rshift_func_uint32_t_u_u+0x25>
    6014:	8b 45 fc             	mov    -0x4(%rbp),%eax
    6017:	5d                   	pop    %rbp
    6018:	c3                   	retq   

0000000000006019 <safe_unary_minus_func_uint64_t_u>:
    6019:	f3 0f 1e fa          	endbr64 
    601d:	55                   	push   %rbp
    601e:	48 89 e5             	mov    %rsp,%rbp
    6021:	48 89 7d f8          	mov    %rdi,-0x8(%rbp)
    6025:	48 8b 45 f8          	mov    -0x8(%rbp),%rax
    6029:	48 f7 d8             	neg    %rax
    602c:	5d                   	pop    %rbp
    602d:	c3                   	retq   

000000000000602e <safe_add_func_uint64_t_u_u>:
    602e:	f3 0f 1e fa          	endbr64 
    6032:	55                   	push   %rbp
    6033:	48 89 e5             	mov    %rsp,%rbp
    6036:	48 89 7d f8          	mov    %rdi,-0x8(%rbp)
    603a:	48 89 75 f0          	mov    %rsi,-0x10(%rbp)
    603e:	48 8b 55 f8          	mov    -0x8(%rbp),%rdx
    6042:	48 8b 45 f0          	mov    -0x10(%rbp),%rax
    6046:	48 01 d0             	add    %rdx,%rax
    6049:	5d                   	pop    %rbp
    604a:	c3                   	retq   

000000000000604b <safe_sub_func_uint64_t_u_u>:
    604b:	f3 0f 1e fa          	endbr64 
    604f:	55                   	push   %rbp
    6050:	48 89 e5             	mov    %rsp,%rbp
    6053:	48 89 7d f8          	mov    %rdi,-0x8(%rbp)
    6057:	48 89 75 f0          	mov    %rsi,-0x10(%rbp)
    605b:	48 8b 45 f8          	mov    -0x8(%rbp),%rax
    605f:	48 2b 45 f0          	sub    -0x10(%rbp),%rax
    6063:	5d                   	pop    %rbp
    6064:	c3                   	retq   

0000000000006065 <safe_mul_func_uint64_t_u_u>:
    6065:	f3 0f 1e fa          	endbr64 
    6069:	55                   	push   %rbp
    606a:	48 89 e5             	mov    %rsp,%rbp
    606d:	48 89 7d f8          	mov    %rdi,-0x8(%rbp)
    6071:	48 89 75 f0          	mov    %rsi,-0x10(%rbp)
    6075:	48 8b 45 f8          	mov    -0x8(%rbp),%rax
    6079:	48 0f af 45 f0       	imul   -0x10(%rbp),%rax
    607e:	5d                   	pop    %rbp
    607f:	c3                   	retq   

0000000000006080 <safe_mod_func_uint64_t_u_u>:
    6080:	f3 0f 1e fa          	endbr64 
    6084:	55                   	push   %rbp
    6085:	48 89 e5             	mov    %rsp,%rbp
    6088:	48 89 7d f8          	mov    %rdi,-0x8(%rbp)
    608c:	48 89 75 f0          	mov    %rsi,-0x10(%rbp)
    6090:	48 83 7d f0 00       	cmpq   $0x0,-0x10(%rbp)
    6095:	74 12                	je     60a9 <safe_mod_func_uint64_t_u_u+0x29>
    6097:	48 8b 45 f8          	mov    -0x8(%rbp),%rax
    609b:	ba 00 00 00 00       	mov    $0x0,%edx
    60a0:	48 f7 75 f0          	divq   -0x10(%rbp)
    60a4:	48 89 d0             	mov    %rdx,%rax
    60a7:	eb 04                	jmp    60ad <safe_mod_func_uint64_t_u_u+0x2d>
    60a9:	48 8b 45 f8          	mov    -0x8(%rbp),%rax
    60ad:	5d                   	pop    %rbp
    60ae:	c3                   	retq   

00000000000060af <safe_div_func_uint64_t_u_u>:
    60af:	f3 0f 1e fa          	endbr64 
    60b3:	55                   	push   %rbp
    60b4:	48 89 e5             	mov    %rsp,%rbp
    60b7:	48 89 7d f8          	mov    %rdi,-0x8(%rbp)
    60bb:	48 89 75 f0          	mov    %rsi,-0x10(%rbp)
    60bf:	48 83 7d f0 00       	cmpq   $0x0,-0x10(%rbp)
    60c4:	74 0f                	je     60d5 <safe_div_func_uint64_t_u_u+0x26>
    60c6:	48 8b 45 f8          	mov    -0x8(%rbp),%rax
    60ca:	ba 00 00 00 00       	mov    $0x0,%edx
    60cf:	48 f7 75 f0          	divq   -0x10(%rbp)
    60d3:	eb 04                	jmp    60d9 <safe_div_func_uint64_t_u_u+0x2a>
    60d5:	48 8b 45 f8          	mov    -0x8(%rbp),%rax
    60d9:	5d                   	pop    %rbp
    60da:	c3                   	retq   

00000000000060db <safe_lshift_func_uint64_t_u_s>:
    60db:	f3 0f 1e fa          	endbr64 
    60df:	55                   	push   %rbp
    60e0:	48 89 e5             	mov    %rsp,%rbp
    60e3:	48 89 7d f8          	mov    %rdi,-0x8(%rbp)
    60e7:	89 75 f4             	mov    %esi,-0xc(%rbp)
    60ea:	83 7d f4 00          	cmpl   $0x0,-0xc(%rbp)
    60ee:	78 2f                	js     611f <safe_lshift_func_uint64_t_u_s+0x44>
    60f0:	83 7d f4 1f          	cmpl   $0x1f,-0xc(%rbp)
    60f4:	7f 29                	jg     611f <safe_lshift_func_uint64_t_u_s+0x44>
    60f6:	8b 45 f4             	mov    -0xc(%rbp),%eax
    60f9:	48 c7 c2 ff ff ff ff 	mov    $0xffffffffffffffff,%rdx
    6100:	89 c1                	mov    %eax,%ecx
    6102:	48 d3 ea             	shr    %cl,%rdx
    6105:	48 89 d0             	mov    %rdx,%rax
    6108:	48 39 45 f8          	cmp    %rax,-0x8(%rbp)
    610c:	77 11                	ja     611f <safe_lshift_func_uint64_t_u_s+0x44>
    610e:	8b 45 f4             	mov    -0xc(%rbp),%eax
    6111:	48 8b 55 f8          	mov    -0x8(%rbp),%rdx
    6115:	89 c1                	mov    %eax,%ecx
    6117:	48 d3 e2             	shl    %cl,%rdx
    611a:	48 89 d0             	mov    %rdx,%rax
    611d:	eb 04                	jmp    6123 <safe_lshift_func_uint64_t_u_s+0x48>
    611f:	48 8b 45 f8          	mov    -0x8(%rbp),%rax
    6123:	5d                   	pop    %rbp
    6124:	c3                   	retq   

0000000000006125 <safe_lshift_func_uint64_t_u_u>:
    6125:	f3 0f 1e fa          	endbr64 
    6129:	55                   	push   %rbp
    612a:	48 89 e5             	mov    %rsp,%rbp
    612d:	48 89 7d f8          	mov    %rdi,-0x8(%rbp)
    6131:	89 75 f4             	mov    %esi,-0xc(%rbp)
    6134:	83 7d f4 1f          	cmpl   $0x1f,-0xc(%rbp)
    6138:	77 29                	ja     6163 <safe_lshift_func_uint64_t_u_u+0x3e>
    613a:	8b 45 f4             	mov    -0xc(%rbp),%eax
    613d:	48 c7 c2 ff ff ff ff 	mov    $0xffffffffffffffff,%rdx
    6144:	89 c1                	mov    %eax,%ecx
    6146:	48 d3 ea             	shr    %cl,%rdx
    6149:	48 89 d0             	mov    %rdx,%rax
    614c:	48 39 45 f8          	cmp    %rax,-0x8(%rbp)
    6150:	77 11                	ja     6163 <safe_lshift_func_uint64_t_u_u+0x3e>
    6152:	8b 45 f4             	mov    -0xc(%rbp),%eax
    6155:	48 8b 55 f8          	mov    -0x8(%rbp),%rdx
    6159:	89 c1                	mov    %eax,%ecx
    615b:	48 d3 e2             	shl    %cl,%rdx
    615e:	48 89 d0             	mov    %rdx,%rax
    6161:	eb 04                	jmp    6167 <safe_lshift_func_uint64_t_u_u+0x42>
    6163:	48 8b 45 f8          	mov    -0x8(%rbp),%rax
    6167:	5d                   	pop    %rbp
    6168:	c3                   	retq   

0000000000006169 <safe_rshift_func_uint64_t_u_s>:
    6169:	f3 0f 1e fa          	endbr64 
    616d:	55                   	push   %rbp
    616e:	48 89 e5             	mov    %rsp,%rbp
    6171:	48 89 7d f8          	mov    %rdi,-0x8(%rbp)
    6175:	89 75 f4             	mov    %esi,-0xc(%rbp)
    6178:	83 7d f4 00          	cmpl   $0x0,-0xc(%rbp)
    617c:	78 17                	js     6195 <safe_rshift_func_uint64_t_u_s+0x2c>
    617e:	83 7d f4 1f          	cmpl   $0x1f,-0xc(%rbp)
    6182:	7f 11                	jg     6195 <safe_rshift_func_uint64_t_u_s+0x2c>
    6184:	8b 45 f4             	mov    -0xc(%rbp),%eax
    6187:	48 8b 55 f8          	mov    -0x8(%rbp),%rdx
    618b:	89 c1                	mov    %eax,%ecx
    618d:	48 d3 ea             	shr    %cl,%rdx
    6190:	48 89 d0             	mov    %rdx,%rax
    6193:	eb 04                	jmp    6199 <safe_rshift_func_uint64_t_u_s+0x30>
    6195:	48 8b 45 f8          	mov    -0x8(%rbp),%rax
    6199:	5d                   	pop    %rbp
    619a:	c3                   	retq   

000000000000619b <safe_rshift_func_uint64_t_u_u>:
    619b:	f3 0f 1e fa          	endbr64 
    619f:	55                   	push   %rbp
    61a0:	48 89 e5             	mov    %rsp,%rbp
    61a3:	48 89 7d f8          	mov    %rdi,-0x8(%rbp)
    61a7:	89 75 f4             	mov    %esi,-0xc(%rbp)
    61aa:	83 7d f4 1f          	cmpl   $0x1f,-0xc(%rbp)
    61ae:	77 11                	ja     61c1 <safe_rshift_func_uint64_t_u_u+0x26>
    61b0:	8b 45 f4             	mov    -0xc(%rbp),%eax
    61b3:	48 8b 55 f8          	mov    -0x8(%rbp),%rdx
    61b7:	89 c1                	mov    %eax,%ecx
    61b9:	48 d3 ea             	shr    %cl,%rdx
    61bc:	48 89 d0             	mov    %rdx,%rax
    61bf:	eb 04                	jmp    61c5 <safe_rshift_func_uint64_t_u_u+0x2a>
    61c1:	48 8b 45 f8          	mov    -0x8(%rbp),%rax
    61c5:	5d                   	pop    %rbp
    61c6:	c3                   	retq   

00000000000061c7 <safe_add_func_float_f_f>:
    61c7:	f3 0f 1e fa          	endbr64 
    61cb:	55                   	push   %rbp
    61cc:	48 89 e5             	mov    %rsp,%rbp
    61cf:	f3 0f 11 45 fc       	movss  %xmm0,-0x4(%rbp)
    61d4:	f3 0f 11 4d f8       	movss  %xmm1,-0x8(%rbp)
    61d9:	f3 0f 10 4d fc       	movss  -0x4(%rbp),%xmm1
    61de:	f3 0f 10 05 e6 7b 00 	movss  0x7be6(%rip),%xmm0        # ddcc <g_657+0xd6c>
    61e5:	00 
    61e6:	f3 0f 59 c8          	mulss  %xmm0,%xmm1
    61ea:	f3 0f 10 55 f8       	movss  -0x8(%rbp),%xmm2
    61ef:	f3 0f 10 05 d5 7b 00 	movss  0x7bd5(%rip),%xmm0        # ddcc <g_657+0xd6c>
    61f6:	00 
    61f7:	f3 0f 59 c2          	mulss  %xmm2,%xmm0
    61fb:	f3 0f 58 c1          	addss  %xmm1,%xmm0
    61ff:	f3 0f 10 0d c9 7b 00 	movss  0x7bc9(%rip),%xmm1        # ddd0 <g_657+0xd70>
    6206:	00 
    6207:	0f 54 c1             	andps  %xmm1,%xmm0
    620a:	0f 2f 05 cf 7b 00 00 	comiss 0x7bcf(%rip),%xmm0        # dde0 <g_657+0xd80>
    6211:	76 07                	jbe    621a <safe_add_func_float_f_f+0x53>
    6213:	f3 0f 10 45 fc       	movss  -0x4(%rbp),%xmm0
    6218:	eb 0a                	jmp    6224 <safe_add_func_float_f_f+0x5d>
    621a:	f3 0f 10 45 fc       	movss  -0x4(%rbp),%xmm0
    621f:	f3 0f 58 45 f8       	addss  -0x8(%rbp),%xmm0
    6224:	5d                   	pop    %rbp
    6225:	c3                   	retq   

0000000000006226 <safe_sub_func_float_f_f>:
    6226:	f3 0f 1e fa          	endbr64 
    622a:	55                   	push   %rbp
    622b:	48 89 e5             	mov    %rsp,%rbp
    622e:	f3 0f 11 45 fc       	movss  %xmm0,-0x4(%rbp)
    6233:	f3 0f 11 4d f8       	movss  %xmm1,-0x8(%rbp)
    6238:	f3 0f 10 4d fc       	movss  -0x4(%rbp),%xmm1
    623d:	f3 0f 10 05 87 7b 00 	movss  0x7b87(%rip),%xmm0        # ddcc <g_657+0xd6c>
    6244:	00 
    6245:	f3 0f 59 c1          	mulss  %xmm1,%xmm0
    6249:	f3 0f 10 55 f8       	movss  -0x8(%rbp),%xmm2
    624e:	f3 0f 10 0d 76 7b 00 	movss  0x7b76(%rip),%xmm1        # ddcc <g_657+0xd6c>
    6255:	00 
    6256:	f3 0f 59 ca          	mulss  %xmm2,%xmm1
    625a:	f3 0f 5c c1          	subss  %xmm1,%xmm0
    625e:	f3 0f 10 0d 6a 7b 00 	movss  0x7b6a(%rip),%xmm1        # ddd0 <g_657+0xd70>
    6265:	00 
    6266:	0f 54 c1             	andps  %xmm1,%xmm0
    6269:	0f 2f 05 70 7b 00 00 	comiss 0x7b70(%rip),%xmm0        # dde0 <g_657+0xd80>
    6270:	76 07                	jbe    6279 <safe_sub_func_float_f_f+0x53>
    6272:	f3 0f 10 45 fc       	movss  -0x4(%rbp),%xmm0
    6277:	eb 0a                	jmp    6283 <safe_sub_func_float_f_f+0x5d>
    6279:	f3 0f 10 45 fc       	movss  -0x4(%rbp),%xmm0
    627e:	f3 0f 5c 45 f8       	subss  -0x8(%rbp),%xmm0
    6283:	5d                   	pop    %rbp
    6284:	c3                   	retq   

0000000000006285 <safe_mul_func_float_f_f>:
    6285:	f3 0f 1e fa          	endbr64 
    6289:	55                   	push   %rbp
    628a:	48 89 e5             	mov    %rsp,%rbp
    628d:	f3 0f 11 45 fc       	movss  %xmm0,-0x4(%rbp)
    6292:	f3 0f 11 4d f8       	movss  %xmm1,-0x8(%rbp)
    6297:	f3 0f 10 4d fc       	movss  -0x4(%rbp),%xmm1
    629c:	f3 0f 10 05 40 7b 00 	movss  0x7b40(%rip),%xmm0        # dde4 <g_657+0xd84>
    62a3:	00 
    62a4:	f3 0f 59 c8          	mulss  %xmm0,%xmm1
    62a8:	f3 0f 10 55 f8       	movss  -0x8(%rbp),%xmm2
    62ad:	f3 0f 10 05 33 7b 00 	movss  0x7b33(%rip),%xmm0        # dde8 <g_657+0xd88>
    62b4:	00 
    62b5:	f3 0f 59 c2          	mulss  %xmm2,%xmm0
    62b9:	f3 0f 59 c1          	mulss  %xmm1,%xmm0
    62bd:	f3 0f 10 0d 0b 7b 00 	movss  0x7b0b(%rip),%xmm1        # ddd0 <g_657+0xd70>
    62c4:	00 
    62c5:	0f 54 c1             	andps  %xmm1,%xmm0
    62c8:	0f 2f 05 1d 7b 00 00 	comiss 0x7b1d(%rip),%xmm0        # ddec <g_657+0xd8c>
    62cf:	76 07                	jbe    62d8 <safe_mul_func_float_f_f+0x53>
    62d1:	f3 0f 10 45 fc       	movss  -0x4(%rbp),%xmm0
    62d6:	eb 0a                	jmp    62e2 <safe_mul_func_float_f_f+0x5d>
    62d8:	f3 0f 10 45 fc       	movss  -0x4(%rbp),%xmm0
    62dd:	f3 0f 59 45 f8       	mulss  -0x8(%rbp),%xmm0
    62e2:	5d                   	pop    %rbp
    62e3:	c3                   	retq   

00000000000062e4 <safe_div_func_float_f_f>:
    62e4:	f3 0f 1e fa          	endbr64 
    62e8:	55                   	push   %rbp
    62e9:	48 89 e5             	mov    %rsp,%rbp
    62ec:	f3 0f 11 45 fc       	movss  %xmm0,-0x4(%rbp)
    62f1:	f3 0f 11 4d f8       	movss  %xmm1,-0x8(%rbp)
    62f6:	f3 0f 10 45 f8       	movss  -0x8(%rbp),%xmm0
    62fb:	f3 0f 10 0d cd 7a 00 	movss  0x7acd(%rip),%xmm1        # ddd0 <g_657+0xd70>
    6302:	00 
    6303:	0f 54 c8             	andps  %xmm0,%xmm1
    6306:	f3 0f 10 05 e2 7a 00 	movss  0x7ae2(%rip),%xmm0        # ddf0 <g_657+0xd90>
    630d:	00 
    630e:	0f 2f c1             	comiss %xmm1,%xmm0
    6311:	0f 97 c0             	seta   %al
    6314:	83 f0 01             	xor    $0x1,%eax
    6317:	84 c0                	test   %al,%al
    6319:	75 56                	jne    6371 <safe_div_func_float_f_f+0x8d>
    631b:	66 0f ef c0          	pxor   %xmm0,%xmm0
    631f:	0f 2e 45 f8          	ucomiss -0x8(%rbp),%xmm0
    6323:	7a 0a                	jp     632f <safe_div_func_float_f_f+0x4b>
    6325:	66 0f ef c0          	pxor   %xmm0,%xmm0
    6329:	0f 2e 45 f8          	ucomiss -0x8(%rbp),%xmm0
    632d:	74 4e                	je     637d <safe_div_func_float_f_f+0x99>
    632f:	f3 0f 10 4d fc       	movss  -0x4(%rbp),%xmm1
    6334:	f3 0f 10 05 b8 7a 00 	movss  0x7ab8(%rip),%xmm0        # ddf4 <g_657+0xd94>
    633b:	00 
    633c:	f3 0f 59 c1          	mulss  %xmm1,%xmm0
    6340:	f3 0f 10 55 f8       	movss  -0x8(%rbp),%xmm2
    6345:	f3 0f 10 0d ab 7a 00 	movss  0x7aab(%rip),%xmm1        # ddf8 <g_657+0xd98>
    634c:	00 
    634d:	f3 0f 59 ca          	mulss  %xmm2,%xmm1
    6351:	f3 0f 5e c1          	divss  %xmm1,%xmm0
    6355:	f3 0f 10 0d 73 7a 00 	movss  0x7a73(%rip),%xmm1        # ddd0 <g_657+0xd70>
    635c:	00 
    635d:	0f 54 c1             	andps  %xmm1,%xmm0
    6360:	0f 2f 05 95 7a 00 00 	comiss 0x7a95(%rip),%xmm0        # ddfc <g_657+0xd9c>
    6367:	0f 97 c0             	seta   %al
    636a:	83 f0 01             	xor    $0x1,%eax
    636d:	84 c0                	test   %al,%al
    636f:	74 0c                	je     637d <safe_div_func_float_f_f+0x99>
    6371:	f3 0f 10 45 fc       	movss  -0x4(%rbp),%xmm0
    6376:	f3 0f 5e 45 f8       	divss  -0x8(%rbp),%xmm0
    637b:	eb 05                	jmp    6382 <safe_div_func_float_f_f+0x9e>
    637d:	f3 0f 10 45 fc       	movss  -0x4(%rbp),%xmm0
    6382:	5d                   	pop    %rbp
    6383:	c3                   	retq   

0000000000006384 <safe_add_func_double_f_f>:
    6384:	f3 0f 1e fa          	endbr64 
    6388:	55                   	push   %rbp
    6389:	48 89 e5             	mov    %rsp,%rbp
    638c:	f2 0f 11 45 f8       	movsd  %xmm0,-0x8(%rbp)
    6391:	f2 0f 11 4d f0       	movsd  %xmm1,-0x10(%rbp)
    6396:	f2 0f 10 4d f8       	movsd  -0x8(%rbp),%xmm1
    639b:	f2 0f 10 05 5d 7a 00 	movsd  0x7a5d(%rip),%xmm0        # de00 <g_657+0xda0>
    63a2:	00 
    63a3:	f2 0f 59 c8          	mulsd  %xmm0,%xmm1
    63a7:	f2 0f 10 55 f0       	movsd  -0x10(%rbp),%xmm2
    63ac:	f2 0f 10 05 4c 7a 00 	movsd  0x7a4c(%rip),%xmm0        # de00 <g_657+0xda0>
    63b3:	00 
    63b4:	f2 0f 59 c2          	mulsd  %xmm2,%xmm0
    63b8:	f2 0f 58 c1          	addsd  %xmm1,%xmm0
    63bc:	f3 0f 7e 0d 4c 7a 00 	movq   0x7a4c(%rip),%xmm1        # de10 <g_657+0xdb0>
    63c3:	00 
    63c4:	66 0f 54 c1          	andpd  %xmm1,%xmm0
    63c8:	66 0f 2f 05 50 7a 00 	comisd 0x7a50(%rip),%xmm0        # de20 <g_657+0xdc0>
    63cf:	00 
    63d0:	76 07                	jbe    63d9 <safe_add_func_double_f_f+0x55>
    63d2:	f2 0f 10 45 f8       	movsd  -0x8(%rbp),%xmm0
    63d7:	eb 0a                	jmp    63e3 <safe_add_func_double_f_f+0x5f>
    63d9:	f2 0f 10 45 f8       	movsd  -0x8(%rbp),%xmm0
    63de:	f2 0f 58 45 f0       	addsd  -0x10(%rbp),%xmm0
    63e3:	5d                   	pop    %rbp
    63e4:	c3                   	retq   

00000000000063e5 <safe_sub_func_double_f_f>:
    63e5:	f3 0f 1e fa          	endbr64 
    63e9:	55                   	push   %rbp
    63ea:	48 89 e5             	mov    %rsp,%rbp
    63ed:	f2 0f 11 45 f8       	movsd  %xmm0,-0x8(%rbp)
    63f2:	f2 0f 11 4d f0       	movsd  %xmm1,-0x10(%rbp)
    63f7:	f2 0f 10 4d f8       	movsd  -0x8(%rbp),%xmm1
    63fc:	f2 0f 10 05 fc 79 00 	movsd  0x79fc(%rip),%xmm0        # de00 <g_657+0xda0>
    6403:	00 
    6404:	f2 0f 59 c1          	mulsd  %xmm1,%xmm0
    6408:	f2 0f 10 55 f0       	movsd  -0x10(%rbp),%xmm2
    640d:	f2 0f 10 0d eb 79 00 	movsd  0x79eb(%rip),%xmm1        # de00 <g_657+0xda0>
    6414:	00 
    6415:	f2 0f 59 ca          	mulsd  %xmm2,%xmm1
    6419:	f2 0f 5c c1          	subsd  %xmm1,%xmm0
    641d:	f3 0f 7e 0d eb 79 00 	movq   0x79eb(%rip),%xmm1        # de10 <g_657+0xdb0>
    6424:	00 
    6425:	66 0f 54 c1          	andpd  %xmm1,%xmm0
    6429:	66 0f 2f 05 ef 79 00 	comisd 0x79ef(%rip),%xmm0        # de20 <g_657+0xdc0>
    6430:	00 
    6431:	76 07                	jbe    643a <safe_sub_func_double_f_f+0x55>
    6433:	f2 0f 10 45 f8       	movsd  -0x8(%rbp),%xmm0
    6438:	eb 0a                	jmp    6444 <safe_sub_func_double_f_f+0x5f>
    643a:	f2 0f 10 45 f8       	movsd  -0x8(%rbp),%xmm0
    643f:	f2 0f 5c 45 f0       	subsd  -0x10(%rbp),%xmm0
    6444:	5d                   	pop    %rbp
    6445:	c3                   	retq   

0000000000006446 <safe_mul_func_double_f_f>:
    6446:	f3 0f 1e fa          	endbr64 
    644a:	55                   	push   %rbp
    644b:	48 89 e5             	mov    %rsp,%rbp
    644e:	f2 0f 11 45 f8       	movsd  %xmm0,-0x8(%rbp)
    6453:	f2 0f 11 4d f0       	movsd  %xmm1,-0x10(%rbp)
    6458:	f2 0f 10 4d f8       	movsd  -0x8(%rbp),%xmm1
    645d:	f2 0f 10 05 c3 79 00 	movsd  0x79c3(%rip),%xmm0        # de28 <g_657+0xdc8>
    6464:	00 
    6465:	f2 0f 59 c8          	mulsd  %xmm0,%xmm1
    6469:	f2 0f 10 55 f0       	movsd  -0x10(%rbp),%xmm2
    646e:	f2 0f 10 05 ba 79 00 	movsd  0x79ba(%rip),%xmm0        # de30 <g_657+0xdd0>
    6475:	00 
    6476:	f2 0f 59 c2          	mulsd  %xmm2,%xmm0
    647a:	f2 0f 59 c1          	mulsd  %xmm1,%xmm0
    647e:	f3 0f 7e 0d 8a 79 00 	movq   0x798a(%rip),%xmm1        # de10 <g_657+0xdb0>
    6485:	00 
    6486:	66 0f 54 c1          	andpd  %xmm1,%xmm0
    648a:	66 0f 2f 05 a6 79 00 	comisd 0x79a6(%rip),%xmm0        # de38 <g_657+0xdd8>
    6491:	00 
    6492:	76 07                	jbe    649b <safe_mul_func_double_f_f+0x55>
    6494:	f2 0f 10 45 f8       	movsd  -0x8(%rbp),%xmm0
    6499:	eb 0a                	jmp    64a5 <safe_mul_func_double_f_f+0x5f>
    649b:	f2 0f 10 45 f8       	movsd  -0x8(%rbp),%xmm0
    64a0:	f2 0f 59 45 f0       	mulsd  -0x10(%rbp),%xmm0
    64a5:	5d                   	pop    %rbp
    64a6:	c3                   	retq   

00000000000064a7 <safe_div_func_double_f_f>:
    64a7:	f3 0f 1e fa          	endbr64 
    64ab:	55                   	push   %rbp
    64ac:	48 89 e5             	mov    %rsp,%rbp
    64af:	f2 0f 11 45 f8       	movsd  %xmm0,-0x8(%rbp)
    64b4:	f2 0f 11 4d f0       	movsd  %xmm1,-0x10(%rbp)
    64b9:	f2 0f 10 45 f0       	movsd  -0x10(%rbp),%xmm0
    64be:	f3 0f 7e 0d 4a 79 00 	movq   0x794a(%rip),%xmm1        # de10 <g_657+0xdb0>
    64c5:	00 
    64c6:	66 0f 54 c8          	andpd  %xmm0,%xmm1
    64ca:	f2 0f 10 05 6e 79 00 	movsd  0x796e(%rip),%xmm0        # de40 <g_657+0xde0>
    64d1:	00 
    64d2:	66 0f 2f c1          	comisd %xmm1,%xmm0
    64d6:	0f 97 c0             	seta   %al
    64d9:	83 f0 01             	xor    $0x1,%eax
    64dc:	84 c0                	test   %al,%al
    64de:	75 5a                	jne    653a <safe_div_func_double_f_f+0x93>
    64e0:	66 0f ef c0          	pxor   %xmm0,%xmm0
    64e4:	66 0f 2e 45 f0       	ucomisd -0x10(%rbp),%xmm0
    64e9:	7a 0b                	jp     64f6 <safe_div_func_double_f_f+0x4f>
    64eb:	66 0f ef c0          	pxor   %xmm0,%xmm0
    64ef:	66 0f 2e 45 f0       	ucomisd -0x10(%rbp),%xmm0
    64f4:	74 50                	je     6546 <safe_div_func_double_f_f+0x9f>
    64f6:	f2 0f 10 4d f8       	movsd  -0x8(%rbp),%xmm1
    64fb:	f2 0f 10 05 45 79 00 	movsd  0x7945(%rip),%xmm0        # de48 <g_657+0xde8>
    6502:	00 
    6503:	f2 0f 59 c1          	mulsd  %xmm1,%xmm0
    6507:	f2 0f 10 55 f0       	movsd  -0x10(%rbp),%xmm2
    650c:	f2 0f 10 0d 3c 79 00 	movsd  0x793c(%rip),%xmm1        # de50 <g_657+0xdf0>
    6513:	00 
    6514:	f2 0f 59 ca          	mulsd  %xmm2,%xmm1
    6518:	f2 0f 5e c1          	divsd  %xmm1,%xmm0
    651c:	f3 0f 7e 0d ec 78 00 	movq   0x78ec(%rip),%xmm1        # de10 <g_657+0xdb0>
    6523:	00 
    6524:	66 0f 54 c1          	andpd  %xmm1,%xmm0
    6528:	66 0f 2f 05 28 79 00 	comisd 0x7928(%rip),%xmm0        # de58 <g_657+0xdf8>
    652f:	00 
    6530:	0f 97 c0             	seta   %al
    6533:	83 f0 01             	xor    $0x1,%eax
    6536:	84 c0                	test   %al,%al
    6538:	74 0c                	je     6546 <safe_div_func_double_f_f+0x9f>
    653a:	f2 0f 10 45 f8       	movsd  -0x8(%rbp),%xmm0
    653f:	f2 0f 5e 45 f0       	divsd  -0x10(%rbp),%xmm0
    6544:	eb 05                	jmp    654b <safe_div_func_double_f_f+0xa4>
    6546:	f2 0f 10 45 f8       	movsd  -0x8(%rbp),%xmm0
    654b:	5d                   	pop    %rbp
    654c:	c3                   	retq   

000000000000654d <safe_convert_func_float_to_int32_t>:
    654d:	f3 0f 1e fa          	endbr64 
    6551:	55                   	push   %rbp
    6552:	48 89 e5             	mov    %rsp,%rbp
    6555:	f3 0f 11 45 fc       	movss  %xmm0,-0x4(%rbp)
    655a:	f3 0f 10 05 fe 78 00 	movss  0x78fe(%rip),%xmm0        # de60 <g_657+0xe00>
    6561:	00 
    6562:	0f 2f 45 fc          	comiss -0x4(%rbp),%xmm0
    6566:	0f 93 c0             	setae  %al
    6569:	83 f0 01             	xor    $0x1,%eax
    656c:	84 c0                	test   %al,%al
    656e:	74 21                	je     6591 <safe_convert_func_float_to_int32_t+0x44>
    6570:	f3 0f 10 45 fc       	movss  -0x4(%rbp),%xmm0
    6575:	0f 2f 05 e8 78 00 00 	comiss 0x78e8(%rip),%xmm0        # de64 <g_657+0xe04>
    657c:	0f 93 c0             	setae  %al
    657f:	83 f0 01             	xor    $0x1,%eax
    6582:	84 c0                	test   %al,%al
    6584:	74 0b                	je     6591 <safe_convert_func_float_to_int32_t+0x44>
    6586:	f3 0f 10 45 fc       	movss  -0x4(%rbp),%xmm0
    658b:	f3 0f 2c c0          	cvttss2si %xmm0,%eax
    658f:	eb 05                	jmp    6596 <safe_convert_func_float_to_int32_t+0x49>
    6591:	b8 ff ff ff 7f       	mov    $0x7fffffff,%eax
    6596:	5d                   	pop    %rbp
    6597:	c3                   	retq   

0000000000006598 <crc32_gentab>:
    6598:	f3 0f 1e fa          	endbr64 
    659c:	55                   	push   %rbp
    659d:	48 89 e5             	mov    %rsp,%rbp
    65a0:	c7 45 fc 20 83 b8 ed 	movl   $0xedb88320,-0x4(%rbp)
    65a7:	c7 45 f4 00 00 00 00 	movl   $0x0,-0xc(%rbp)
    65ae:	eb 51                	jmp    6601 <crc32_gentab+0x69>
    65b0:	8b 45 f4             	mov    -0xc(%rbp),%eax
    65b3:	89 45 f0             	mov    %eax,-0x10(%rbp)
    65b6:	c7 45 f8 08 00 00 00 	movl   $0x8,-0x8(%rbp)
    65bd:	eb 1e                	jmp    65dd <crc32_gentab+0x45>
    65bf:	8b 45 f0             	mov    -0x10(%rbp),%eax
    65c2:	83 e0 01             	and    $0x1,%eax
    65c5:	85 c0                	test   %eax,%eax
    65c7:	74 0d                	je     65d6 <crc32_gentab+0x3e>
    65c9:	8b 45 f0             	mov    -0x10(%rbp),%eax
    65cc:	d1 e8                	shr    %eax
    65ce:	33 45 fc             	xor    -0x4(%rbp),%eax
    65d1:	89 45 f0             	mov    %eax,-0x10(%rbp)
    65d4:	eb 03                	jmp    65d9 <crc32_gentab+0x41>
    65d6:	d1 6d f0             	shrl   -0x10(%rbp)
    65d9:	83 6d f8 01          	subl   $0x1,-0x8(%rbp)
    65dd:	83 7d f8 00          	cmpl   $0x0,-0x8(%rbp)
    65e1:	7f dc                	jg     65bf <crc32_gentab+0x27>
    65e3:	8b 45 f4             	mov    -0xc(%rbp),%eax
    65e6:	48 98                	cltq   
    65e8:	48 8d 0c 85 00 00 00 	lea    0x0(,%rax,4),%rcx
    65ef:	00 
    65f0:	48 8d 15 69 ca 00 00 	lea    0xca69(%rip),%rdx        # 13060 <crc32_tab>
    65f7:	8b 45 f0             	mov    -0x10(%rbp),%eax
    65fa:	89 04 11             	mov    %eax,(%rcx,%rdx,1)
    65fd:	83 45 f4 01          	addl   $0x1,-0xc(%rbp)
    6601:	81 7d f4 ff 00 00 00 	cmpl   $0xff,-0xc(%rbp)
    6608:	7e a6                	jle    65b0 <crc32_gentab+0x18>
    660a:	90                   	nop
    660b:	90                   	nop
    660c:	5d                   	pop    %rbp
    660d:	c3                   	retq   

000000000000660e <crc32_byte>:
    660e:	f3 0f 1e fa          	endbr64 
    6612:	55                   	push   %rbp
    6613:	48 89 e5             	mov    %rsp,%rbp
    6616:	89 f8                	mov    %edi,%eax
    6618:	88 45 fc             	mov    %al,-0x4(%rbp)
    661b:	8b 05 ff a9 00 00    	mov    0xa9ff(%rip),%eax        # 11020 <crc32_context>
    6621:	c1 e8 08             	shr    $0x8,%eax
    6624:	89 c1                	mov    %eax,%ecx
    6626:	0f b6 55 fc          	movzbl -0x4(%rbp),%edx
    662a:	8b 05 f0 a9 00 00    	mov    0xa9f0(%rip),%eax        # 11020 <crc32_context>
    6630:	31 d0                	xor    %edx,%eax
    6632:	0f b6 c0             	movzbl %al,%eax
    6635:	89 c0                	mov    %eax,%eax
    6637:	48 8d 14 85 00 00 00 	lea    0x0(,%rax,4),%rdx
    663e:	00 
    663f:	48 8d 05 1a ca 00 00 	lea    0xca1a(%rip),%rax        # 13060 <crc32_tab>
    6646:	8b 04 02             	mov    (%rdx,%rax,1),%eax
    6649:	31 c8                	xor    %ecx,%eax
    664b:	89 05 cf a9 00 00    	mov    %eax,0xa9cf(%rip)        # 11020 <crc32_context>
    6651:	90                   	nop
    6652:	5d                   	pop    %rbp
    6653:	c3                   	retq   

0000000000006654 <crc32_8bytes>:
    6654:	f3 0f 1e fa          	endbr64 
    6658:	55                   	push   %rbp
    6659:	48 89 e5             	mov    %rsp,%rbp
    665c:	48 83 ec 08          	sub    $0x8,%rsp
    6660:	48 89 7d f8          	mov    %rdi,-0x8(%rbp)
    6664:	48 8b 45 f8          	mov    -0x8(%rbp),%rax
    6668:	0f b6 c0             	movzbl %al,%eax
    666b:	89 c7                	mov    %eax,%edi
    666d:	e8 9c ff ff ff       	callq  660e <crc32_byte>
    6672:	48 8b 45 f8          	mov    -0x8(%rbp),%rax
    6676:	48 c1 e8 08          	shr    $0x8,%rax
    667a:	0f b6 c0             	movzbl %al,%eax
    667d:	89 c7                	mov    %eax,%edi
    667f:	e8 8a ff ff ff       	callq  660e <crc32_byte>
    6684:	48 8b 45 f8          	mov    -0x8(%rbp),%rax
    6688:	48 c1 e8 10          	shr    $0x10,%rax
    668c:	0f b6 c0             	movzbl %al,%eax
    668f:	89 c7                	mov    %eax,%edi
    6691:	e8 78 ff ff ff       	callq  660e <crc32_byte>
    6696:	48 8b 45 f8          	mov    -0x8(%rbp),%rax
    669a:	48 c1 e8 18          	shr    $0x18,%rax
    669e:	0f b6 c0             	movzbl %al,%eax
    66a1:	89 c7                	mov    %eax,%edi
    66a3:	e8 66 ff ff ff       	callq  660e <crc32_byte>
    66a8:	48 8b 45 f8          	mov    -0x8(%rbp),%rax
    66ac:	48 c1 e8 20          	shr    $0x20,%rax
    66b0:	0f b6 c0             	movzbl %al,%eax
    66b3:	89 c7                	mov    %eax,%edi
    66b5:	e8 54 ff ff ff       	callq  660e <crc32_byte>
    66ba:	48 8b 45 f8          	mov    -0x8(%rbp),%rax
    66be:	48 c1 e8 28          	shr    $0x28,%rax
    66c2:	0f b6 c0             	movzbl %al,%eax
    66c5:	89 c7                	mov    %eax,%edi
    66c7:	e8 42 ff ff ff       	callq  660e <crc32_byte>
    66cc:	48 8b 45 f8          	mov    -0x8(%rbp),%rax
    66d0:	48 c1 e8 30          	shr    $0x30,%rax
    66d4:	0f b6 c0             	movzbl %al,%eax
    66d7:	89 c7                	mov    %eax,%edi
    66d9:	e8 30 ff ff ff       	callq  660e <crc32_byte>
    66de:	48 8b 45 f8          	mov    -0x8(%rbp),%rax
    66e2:	48 c1 e8 38          	shr    $0x38,%rax
    66e6:	0f b6 c0             	movzbl %al,%eax
    66e9:	89 c7                	mov    %eax,%edi
    66eb:	e8 1e ff ff ff       	callq  660e <crc32_byte>
    66f0:	90                   	nop
    66f1:	c9                   	leaveq 
    66f2:	c3                   	retq   

00000000000066f3 <transparent_crc>:
    66f3:	f3 0f 1e fa          	endbr64 
    66f7:	55                   	push   %rbp
    66f8:	48 89 e5             	mov    %rsp,%rbp
    66fb:	48 83 ec 20          	sub    $0x20,%rsp
    66ff:	48 89 7d f8          	mov    %rdi,-0x8(%rbp)
    6703:	48 89 75 f0          	mov    %rsi,-0x10(%rbp)
    6707:	89 55 ec             	mov    %edx,-0x14(%rbp)
    670a:	48 8b 45 f8          	mov    -0x8(%rbp),%rax
    670e:	48 89 c7             	mov    %rax,%rdi
    6711:	e8 3e ff ff ff       	callq  6654 <crc32_8bytes>
    6716:	83 7d ec 00          	cmpl   $0x0,-0x14(%rbp)
    671a:	74 22                	je     673e <transparent_crc+0x4b>
    671c:	8b 05 fe a8 00 00    	mov    0xa8fe(%rip),%eax        # 11020 <crc32_context>
    6722:	f7 d0                	not    %eax
    6724:	89 c2                	mov    %eax,%edx
    6726:	48 8b 45 f0          	mov    -0x10(%rbp),%rax
    672a:	48 89 c6             	mov    %rax,%rsi
    672d:	48 8d 3d fc 68 00 00 	lea    0x68fc(%rip),%rdi        # d030 <_IO_stdin_used+0x30>
    6734:	b8 00 00 00 00       	mov    $0x0,%eax
    6739:	e8 42 e9 ff ff       	callq  5080 <printf@plt>
    673e:	90                   	nop
    673f:	c9                   	leaveq 
    6740:	c3                   	retq   

0000000000006741 <transparent_crc_bytes>:
    6741:	f3 0f 1e fa          	endbr64 
    6745:	55                   	push   %rbp
    6746:	48 89 e5             	mov    %rsp,%rbp
    6749:	48 83 ec 30          	sub    $0x30,%rsp
    674d:	48 89 7d e8          	mov    %rdi,-0x18(%rbp)
    6751:	89 75 e4             	mov    %esi,-0x1c(%rbp)
    6754:	48 89 55 d8          	mov    %rdx,-0x28(%rbp)
    6758:	89 4d e0             	mov    %ecx,-0x20(%rbp)
    675b:	c7 45 fc 00 00 00 00 	movl   $0x0,-0x4(%rbp)
    6762:	eb 1e                	jmp    6782 <transparent_crc_bytes+0x41>
    6764:	8b 45 fc             	mov    -0x4(%rbp),%eax
    6767:	48 63 d0             	movslq %eax,%rdx
    676a:	48 8b 45 e8          	mov    -0x18(%rbp),%rax
    676e:	48 01 d0             	add    %rdx,%rax
    6771:	0f b6 00             	movzbl (%rax),%eax
    6774:	0f b6 c0             	movzbl %al,%eax
    6777:	89 c7                	mov    %eax,%edi
    6779:	e8 90 fe ff ff       	callq  660e <crc32_byte>
    677e:	83 45 fc 01          	addl   $0x1,-0x4(%rbp)
    6782:	8b 45 fc             	mov    -0x4(%rbp),%eax
    6785:	3b 45 e4             	cmp    -0x1c(%rbp),%eax
    6788:	7c da                	jl     6764 <transparent_crc_bytes+0x23>
    678a:	83 7d e0 00          	cmpl   $0x0,-0x20(%rbp)
    678e:	74 22                	je     67b2 <transparent_crc_bytes+0x71>
    6790:	8b 05 8a a8 00 00    	mov    0xa88a(%rip),%eax        # 11020 <crc32_context>
    6796:	f7 d0                	not    %eax
    6798:	89 c2                	mov    %eax,%edx
    679a:	48 8b 45 d8          	mov    -0x28(%rbp),%rax
    679e:	48 89 c6             	mov    %rax,%rsi
    67a1:	48 8d 3d 88 68 00 00 	lea    0x6888(%rip),%rdi        # d030 <_IO_stdin_used+0x30>
    67a8:	b8 00 00 00 00       	mov    $0x0,%eax
    67ad:	e8 ce e8 ff ff       	callq  5080 <printf@plt>
    67b2:	90                   	nop
    67b3:	c9                   	leaveq 
    67b4:	c3                   	retq   

00000000000067b5 <func_1>:
    67b5:	f3 0f 1e fa          	endbr64 
    67b9:	55                   	push   %rbp
    67ba:	48 89 e5             	mov    %rsp,%rbp
    67bd:	41 54                	push   %r12
    67bf:	53                   	push   %rbx
    67c0:	48 81 ec 20 0b 00 00 	sub    $0xb20,%rsp
    67c7:	64 48 8b 04 25 28 00 	mov    %fs:0x28,%rax
    67ce:	00 00 
    67d0:	48 89 45 e8          	mov    %rax,-0x18(%rbp)
    67d4:	31 c0                	xor    %eax,%eax
    67d6:	48 8d 05 4b a8 00 00 	lea    0xa84b(%rip),%rax        # 11028 <g_3>
    67dd:	48 89 85 28 f5 ff ff 	mov    %rax,-0xad8(%rbp)
    67e4:	c7 85 ec f4 ff ff 4d 	movl   $0x3818264d,-0xb14(%rbp)
    67eb:	26 18 38 
    67ee:	c7 85 10 f5 ff ff 32 	movl   $0x3644bb32,-0xaf0(%rbp)
    67f5:	bb 44 36 
    67f8:	48 8d 85 60 f8 ff ff 	lea    -0x7a0(%rbp),%rax
    67ff:	48 8d 15 7a 68 00 00 	lea    0x687a(%rip),%rdx        # d080 <g_657+0x20>
    6806:	b9 1f 00 00 00       	mov    $0x1f,%ecx
    680b:	48 89 c7             	mov    %rax,%rdi
    680e:	48 89 d6             	mov    %rdx,%rsi
    6811:	f3 48 a5             	rep movsq %ds:(%rsi),%es:(%rdi)
    6814:	48 89 f2             	mov    %rsi,%rdx
    6817:	48 89 f8             	mov    %rdi,%rax
    681a:	8b 0a                	mov    (%rdx),%ecx
    681c:	89 08                	mov    %ecx,(%rax)
    681e:	48 8d 40 04          	lea    0x4(%rax),%rax
    6822:	48 8d 52 04          	lea    0x4(%rdx),%rdx
    6826:	48 8d 05 7b aa 00 00 	lea    0xaa7b(%rip),%rax        # 112a8 <g_1109>
    682d:	48 89 85 30 f5 ff ff 	mov    %rax,-0xad0(%rbp)
    6834:	48 8d 85 30 f5 ff ff 	lea    -0xad0(%rbp),%rax
    683b:	48 89 85 80 f5 ff ff 	mov    %rax,-0xa80(%rbp)
    6842:	c6 85 df f4 ff ff 89 	movb   $0x89,-0xb21(%rbp)
    6849:	48 c7 85 c0 f7 ff ff 	movq   $0x0,-0x840(%rbp)
    6850:	00 00 00 00 
    6854:	48 c7 85 c8 f7 ff ff 	movq   $0x0,-0x838(%rbp)
    685b:	00 00 00 00 
    685f:	48 c7 85 d0 f7 ff ff 	movq   $0x0,-0x830(%rbp)
    6866:	00 00 00 00 
    686a:	48 c7 85 d8 f7 ff ff 	movq   $0x0,-0x828(%rbp)
    6871:	00 00 00 00 
    6875:	48 c7 85 e0 f7 ff ff 	movq   $0x0,-0x820(%rbp)
    687c:	00 00 00 00 
    6880:	48 c7 85 e8 f7 ff ff 	movq   $0x0,-0x818(%rbp)
    6887:	00 00 00 00 
    688b:	48 c7 85 f0 f7 ff ff 	movq   $0x0,-0x810(%rbp)
    6892:	00 00 00 00 
    6896:	48 c7 85 f8 f7 ff ff 	movq   $0x0,-0x808(%rbp)
    689d:	00 00 00 00 
    68a1:	48 c7 85 00 f8 ff ff 	movq   $0x0,-0x800(%rbp)
    68a8:	00 00 00 00 
    68ac:	48 c7 85 08 f8 ff ff 	movq   $0x0,-0x7f8(%rbp)
    68b3:	00 00 00 00 
    68b7:	c6 85 e0 f4 ff ff 00 	movb   $0x0,-0xb20(%rbp)
    68be:	48 c7 85 38 f5 ff ff 	movq   $0x0,-0xac8(%rbp)
    68c5:	00 00 00 00 
    68c9:	48 8d 85 38 f5 ff ff 	lea    -0xac8(%rbp),%rax
    68d0:	48 89 85 88 f5 ff ff 	mov    %rax,-0xa78(%rbp)
    68d7:	c7 85 14 f5 ff ff 01 	movl   $0x1,-0xaec(%rbp)
    68de:	00 00 00 
    68e1:	48 b8 87 a3 35 95 0d 	movabs $0xbc51a60d9535a387,%rax
    68e8:	a6 51 bc 
    68eb:	48 89 85 90 f5 ff ff 	mov    %rax,-0xa70(%rbp)
    68f2:	48 8d 85 60 f9 ff ff 	lea    -0x6a0(%rbp),%rax
    68f9:	48 8d 15 80 68 00 00 	lea    0x6880(%rip),%rdx        # d180 <g_657+0x120>
    6900:	b9 28 00 00 00       	mov    $0x28,%ecx
    6905:	48 89 c7             	mov    %rax,%rdi
    6908:	48 89 d6             	mov    %rdx,%rsi
    690b:	f3 48 a5             	rep movsq %ds:(%rsi),%es:(%rdi)
    690e:	48 8d 05 9b cb 00 00 	lea    0xcb9b(%rip),%rax        # 134b0 <g_796>
    6915:	48 89 85 40 f5 ff ff 	mov    %rax,-0xac0(%rbp)
    691c:	48 8d 85 40 f5 ff ff 	lea    -0xac0(%rbp),%rax
    6923:	48 89 85 98 f5 ff ff 	mov    %rax,-0xa68(%rbp)
    692a:	48 c7 85 a0 f5 ff ff 	movq   $0x0,-0xa60(%rbp)
    6931:	00 00 00 00 
    6935:	66 c7 85 e2 f4 ff ff 	movw   $0xe793,-0xb1e(%rbp)
    693c:	93 e7 
    693e:	48 c7 85 f0 f6 ff ff 	movq   $0xfffffffffffffffa,-0x910(%rbp)
    6945:	fa ff ff ff 
    6949:	48 c7 85 f8 f6 ff ff 	movq   $0xfffffffffffffffa,-0x908(%rbp)
    6950:	fa ff ff ff 
    6954:	48 c7 85 00 f7 ff ff 	movq   $0xfffffffffffffffa,-0x900(%rbp)
    695b:	fa ff ff ff 
    695f:	48 c7 85 08 f7 ff ff 	movq   $0xfffffffffffffffa,-0x8f8(%rbp)
    6966:	fa ff ff ff 
    696a:	48 c7 85 a8 f5 ff ff 	movq   $0x6,-0xa58(%rbp)
    6971:	06 00 00 00 
    6975:	c7 85 f0 f4 ff ff f7 	movl   $0xfffffff7,-0xb10(%rbp)
    697c:	ff ff ff 
    697f:	48 b8 b1 05 cc bb d8 	movabs $0xd53a60d8bbcc05b1,%rax
    6986:	60 3a d5 
    6989:	48 89 85 b0 f5 ff ff 	mov    %rax,-0xa50(%rbp)
    6990:	c7 85 bc f6 ff ff ff 	movl   $0xffffffff,-0x944(%rbp)
    6997:	ff ff ff 
    699a:	c7 85 f4 f4 ff ff 00 	movl   $0x0,-0xb0c(%rbp)
    69a1:	00 00 00 
    69a4:	66 c7 85 e4 f4 ff ff 	movw   $0xfffd,-0xb1c(%rbp)
    69ab:	fd ff 
    69ad:	66 c7 85 e6 f4 ff ff 	movw   $0x8,-0xb1a(%rbp)
    69b4:	08 00 
    69b6:	48 c7 85 48 f5 ff ff 	movq   $0x0,-0xab8(%rbp)
    69bd:	00 00 00 00 
    69c1:	48 8d 85 48 f5 ff ff 	lea    -0xab8(%rbp),%rax
    69c8:	48 89 85 b8 f5 ff ff 	mov    %rax,-0xa48(%rbp)
    69cf:	48 8d 85 f0 f4 ff ff 	lea    -0xb10(%rbp),%rax
    69d6:	48 89 85 50 f5 ff ff 	mov    %rax,-0xab0(%rbp)
    69dd:	48 8d 85 50 f5 ff ff 	lea    -0xab0(%rbp),%rax
    69e4:	48 89 85 58 f5 ff ff 	mov    %rax,-0xaa8(%rbp)
    69eb:	48 8d 85 58 f5 ff ff 	lea    -0xaa8(%rbp),%rax
    69f2:	48 89 85 c0 f5 ff ff 	mov    %rax,-0xa40(%rbp)
    69f9:	c7 85 f8 f4 ff ff fc 	movl   $0xfffffffc,-0xb08(%rbp)
    6a00:	ff ff ff 
    6a03:	c7 85 fc f4 ff ff 50 	movl   $0x4c755050,-0xb04(%rbp)
    6a0a:	50 75 4c 
    6a0d:	c7 85 c4 f6 ff ff f9 	movl   $0xf9f901f9,-0x93c(%rbp)
    6a14:	01 f9 f9 
    6a17:	66 c7 85 c8 f6 ff ff 	movw   $0xf901,-0x938(%rbp)
    6a1e:	01 f9 
    6a20:	c7 85 ca f6 ff ff f9 	movl   $0xf9f901f9,-0x936(%rbp)
    6a27:	01 f9 f9 
    6a2a:	66 c7 85 ce f6 ff ff 	movw   $0xf901,-0x932(%rbp)
    6a31:	01 f9 
    6a33:	c7 05 eb a5 00 00 00 	movl   $0x0,0xa5eb(%rip)        # 11028 <g_3>
    6a3a:	00 00 00 
    6a3d:	e9 89 00 00 00       	jmpq   6acb <func_1+0x316>
    6a42:	48 c7 85 c8 f5 ff ff 	movq   $0x0,-0xa38(%rbp)
    6a49:	00 00 00 00 
    6a4d:	48 8d 85 28 f5 ff ff 	lea    -0xad8(%rbp),%rax
    6a54:	48 89 85 d0 f5 ff ff 	mov    %rax,-0xa30(%rbp)
    6a5b:	48 c7 85 d8 f5 ff ff 	movq   $0xffffffffffffffff,-0xa28(%rbp)
    6a62:	ff ff ff ff 
    6a66:	48 c7 85 e0 f5 ff ff 	movq   $0x0,-0xa20(%rbp)
    6a6d:	00 00 00 00 
    6a71:	48 8d 85 ec f4 ff ff 	lea    -0xb14(%rbp),%rax
    6a78:	48 89 85 e8 f5 ff ff 	mov    %rax,-0xa18(%rbp)
    6a7f:	c7 85 00 f5 ff ff 00 	movl   $0x0,-0xb00(%rbp)
    6a86:	00 00 00 
    6a89:	eb 1e                	jmp    6aa9 <func_1+0x2f4>
    6a8b:	8b 85 00 f5 ff ff    	mov    -0xb00(%rbp),%eax
    6a91:	48 98                	cltq   
    6a93:	48 8d 15 be a5 00 00 	lea    0xa5be(%rip),%rdx        # 11058 <g_50+0x18>
    6a9a:	48 89 94 c5 a0 fa ff 	mov    %rdx,-0x560(%rbp,%rax,8)
    6aa1:	ff 
    6aa2:	83 85 00 f5 ff ff 01 	addl   $0x1,-0xb00(%rbp)
    6aa9:	83 bd 00 f5 ff ff 00 	cmpl   $0x0,-0xb00(%rbp)
    6ab0:	7e d9                	jle    6a8b <func_1+0x2d6>
    6ab2:	8b 05 6c a5 00 00    	mov    0xa56c(%rip),%eax        # 11024 <g_2>
    6ab8:	85 c0                	test   %eax,%eax
    6aba:	75 20                	jne    6adc <func_1+0x327>
    6abc:	8b 05 66 a5 00 00    	mov    0xa566(%rip),%eax        # 11028 <g_3>
    6ac2:	83 e8 01             	sub    $0x1,%eax
    6ac5:	89 05 5d a5 00 00    	mov    %eax,0xa55d(%rip)        # 11028 <g_3>
    6acb:	8b 05 57 a5 00 00    	mov    0xa557(%rip),%eax        # 11028 <g_3>
    6ad1:	83 f8 f0             	cmp    $0xfffffff0,%eax
    6ad4:	0f 8c 68 ff ff ff    	jl     6a42 <func_1+0x28d>
    6ada:	eb 01                	jmp    6add <func_1+0x328>
    6adc:	90                   	nop
    6add:	48 8b 05 34 b4 00 00 	mov    0xb434(%rip),%rax        # 11f18 <g_526>
    6ae4:	48 8b 10             	mov    (%rax),%rdx
    6ae7:	48 8b 05 42 b4 00 00 	mov    0xb442(%rip),%rax        # 11f30 <g_542>
    6aee:	48 8b 00             	mov    (%rax),%rax
    6af1:	48 8b 12             	mov    (%rdx),%rdx
    6af4:	48 89 10             	mov    %rdx,(%rax)
    6af7:	c7 05 f7 a6 00 00 1b 	movl   $0x1b,0xa6f7(%rip)        # 111f8 <g_196>
    6afe:	00 00 00 
    6b01:	e9 b9 05 00 00       	jmpq   70bf <func_1+0x90a>
    6b06:	c7 85 1c f5 ff ff 00 	movl   $0x0,-0xae4(%rbp)
    6b0d:	00 00 00 
    6b10:	c7 85 04 f5 ff ff fa 	movl   $0xfffffffa,-0xafc(%rbp)
    6b17:	ff ff ff 
    6b1a:	48 8d 05 af a5 00 00 	lea    0xa5af(%rip),%rax        # 110d0 <g_125+0x10>
    6b21:	48 89 85 60 f5 ff ff 	mov    %rax,-0xaa0(%rbp)
    6b28:	48 8d 85 60 f5 ff ff 	lea    -0xaa0(%rbp),%rax
    6b2f:	48 89 85 40 f6 ff ff 	mov    %rax,-0x9c0(%rbp)
    6b36:	48 c7 85 48 f6 ff ff 	movq   $0x0,-0x9b8(%rbp)
    6b3d:	00 00 00 00 
    6b41:	48 8d 85 df f4 ff ff 	lea    -0xb21(%rbp),%rax
    6b48:	48 89 85 68 f5 ff ff 	mov    %rax,-0xa98(%rbp)
    6b4f:	48 8d 85 68 f5 ff ff 	lea    -0xa98(%rbp),%rax
    6b56:	48 89 85 70 f5 ff ff 	mov    %rax,-0xa90(%rbp)
    6b5d:	48 8d 85 70 f5 ff ff 	lea    -0xa90(%rbp),%rax
    6b64:	48 89 85 50 f6 ff ff 	mov    %rax,-0x9b0(%rbp)
    6b6b:	48 8d 85 df f4 ff ff 	lea    -0xb21(%rbp),%rax
    6b72:	48 89 85 58 f6 ff ff 	mov    %rax,-0x9a8(%rbp)
    6b79:	48 8d 05 f0 a5 00 00 	lea    0xa5f0(%rip),%rax        # 11170 <g_156+0x70>
    6b80:	48 89 85 60 f6 ff ff 	mov    %rax,-0x9a0(%rbp)
    6b87:	48 c7 85 68 f6 ff ff 	movq   $0x0,-0x998(%rbp)
    6b8e:	00 00 00 00 
    6b92:	48 8d 05 0b a7 00 00 	lea    0xa70b(%rip),%rax        # 112a4 <g_1033>
    6b99:	48 89 85 70 f6 ff ff 	mov    %rax,-0x990(%rbp)
    6ba0:	48 8d 05 05 a7 00 00 	lea    0xa705(%rip),%rax        # 112ac <g_1232>
    6ba7:	48 89 85 30 f7 ff ff 	mov    %rax,-0x8d0(%rbp)
    6bae:	48 8d 05 ef a6 00 00 	lea    0xa6ef(%rip),%rax        # 112a4 <g_1033>
    6bb5:	48 89 85 38 f7 ff ff 	mov    %rax,-0x8c8(%rbp)
    6bbc:	48 8d 05 e9 a6 00 00 	lea    0xa6e9(%rip),%rax        # 112ac <g_1232>
    6bc3:	48 89 85 40 f7 ff ff 	mov    %rax,-0x8c0(%rbp)
    6bca:	48 8d 05 db a6 00 00 	lea    0xa6db(%rip),%rax        # 112ac <g_1232>
    6bd1:	48 89 85 48 f7 ff ff 	mov    %rax,-0x8b8(%rbp)
    6bd8:	48 8d 05 c5 a6 00 00 	lea    0xa6c5(%rip),%rax        # 112a4 <g_1033>
    6bdf:	48 89 85 50 f7 ff ff 	mov    %rax,-0x8b0(%rbp)
    6be6:	48 8d 05 bf a6 00 00 	lea    0xa6bf(%rip),%rax        # 112ac <g_1232>
    6bed:	48 89 85 58 f7 ff ff 	mov    %rax,-0x8a8(%rbp)
    6bf4:	48 c7 85 78 f6 ff ff 	movq   $0xfffffffffffffffb,-0x988(%rbp)
    6bfb:	fb ff ff ff 
    6bff:	48 8d 05 0a b3 00 00 	lea    0xb30a(%rip),%rax        # 11f10 <g_527>
    6c06:	48 89 85 80 f6 ff ff 	mov    %rax,-0x980(%rbp)
    6c0d:	48 8d 85 58 f5 ff ff 	lea    -0xaa8(%rbp),%rax
    6c14:	48 89 85 88 f6 ff ff 	mov    %rax,-0x978(%rbp)
    6c1b:	48 8d 05 4e b3 00 00 	lea    0xb34e(%rip),%rax        # 11f70 <g_655>
    6c22:	48 89 85 60 f7 ff ff 	mov    %rax,-0x8a0(%rbp)
    6c29:	48 8d 05 40 b3 00 00 	lea    0xb340(%rip),%rax        # 11f70 <g_655>
    6c30:	48 89 85 68 f7 ff ff 	mov    %rax,-0x898(%rbp)
    6c37:	48 8d 05 32 b3 00 00 	lea    0xb332(%rip),%rax        # 11f70 <g_655>
    6c3e:	48 89 85 70 f7 ff ff 	mov    %rax,-0x890(%rbp)
    6c45:	48 8d 05 24 b3 00 00 	lea    0xb324(%rip),%rax        # 11f70 <g_655>
    6c4c:	48 89 85 78 f7 ff ff 	mov    %rax,-0x888(%rbp)
    6c53:	48 8d 05 16 b3 00 00 	lea    0xb316(%rip),%rax        # 11f70 <g_655>
    6c5a:	48 89 85 80 f7 ff ff 	mov    %rax,-0x880(%rbp)
    6c61:	48 8d 05 08 b3 00 00 	lea    0xb308(%rip),%rax        # 11f70 <g_655>
    6c68:	48 89 85 88 f7 ff ff 	mov    %rax,-0x878(%rbp)
    6c6f:	c6 85 e1 f4 ff ff d0 	movb   $0xd0,-0xb1f(%rbp)
    6c76:	48 c7 85 90 f6 ff ff 	movq   $0xfffffffffffffff9,-0x970(%rbp)
    6c7d:	f9 ff ff ff 
    6c81:	c7 85 20 f5 ff ff f7 	movl   $0xfffffff7,-0xae0(%rbp)
    6c88:	ff ff ff 
    6c8b:	48 8d 85 60 f8 ff ff 	lea    -0x7a0(%rbp),%rax
    6c92:	48 05 f8 00 00 00    	add    $0xf8,%rax
    6c98:	48 89 85 10 f7 ff ff 	mov    %rax,-0x8f0(%rbp)
    6c9f:	48 8d 85 60 f8 ff ff 	lea    -0x7a0(%rbp),%rax
    6ca6:	48 05 f8 00 00 00    	add    $0xf8,%rax
    6cac:	48 89 85 18 f7 ff ff 	mov    %rax,-0x8e8(%rbp)
    6cb3:	48 8d 85 60 f8 ff ff 	lea    -0x7a0(%rbp),%rax
    6cba:	48 05 f8 00 00 00    	add    $0xf8,%rax
    6cc0:	48 89 85 20 f7 ff ff 	mov    %rax,-0x8e0(%rbp)
    6cc7:	48 8d 85 60 f8 ff ff 	lea    -0x7a0(%rbp),%rax
    6cce:	48 05 f8 00 00 00    	add    $0xf8,%rax
    6cd4:	48 89 85 28 f7 ff ff 	mov    %rax,-0x8d8(%rbp)
    6cdb:	48 8d 85 10 f7 ff ff 	lea    -0x8f0(%rbp),%rax
    6ce2:	48 83 c0 10          	add    $0x10,%rax
    6ce6:	48 89 85 98 f6 ff ff 	mov    %rax,-0x968(%rbp)
    6ced:	48 8d 05 50 a5 00 00 	lea    0xa550(%rip),%rax        # 11244 <g_324+0x4>
    6cf4:	48 89 85 a0 f6 ff ff 	mov    %rax,-0x960(%rbp)
    6cfb:	c7 85 08 f5 ff ff 00 	movl   $0x0,-0xaf8(%rbp)
    6d02:	00 00 00 
    6d05:	eb 1e                	jmp    6d25 <func_1+0x570>
    6d07:	8b 85 08 f5 ff ff    	mov    -0xaf8(%rbp),%eax
    6d0d:	48 98                	cltq   
    6d0f:	48 8d 95 30 f5 ff ff 	lea    -0xad0(%rbp),%rdx
    6d16:	48 89 94 c5 d0 f6 ff 	mov    %rdx,-0x930(%rbp,%rax,8)
    6d1d:	ff 
    6d1e:	83 85 08 f5 ff ff 01 	addl   $0x1,-0xaf8(%rbp)
    6d25:	83 bd 08 f5 ff ff 02 	cmpl   $0x2,-0xaf8(%rbp)
    6d2c:	7e d9                	jle    6d07 <func_1+0x552>
    6d2e:	c7 85 08 f5 ff ff 00 	movl   $0x0,-0xaf8(%rbp)
    6d35:	00 00 00 
    6d38:	eb 1a                	jmp    6d54 <func_1+0x59f>
    6d3a:	8b 85 08 f5 ff ff    	mov    -0xaf8(%rbp),%eax
    6d40:	48 98                	cltq   
    6d42:	c7 84 85 c0 f6 ff ff 	movl   $0x3,-0x940(%rbp,%rax,4)
    6d49:	03 00 00 00 
    6d4d:	83 85 08 f5 ff ff 01 	addl   $0x1,-0xaf8(%rbp)
    6d54:	83 bd 08 f5 ff ff 00 	cmpl   $0x0,-0xaf8(%rbp)
    6d5b:	7e dd                	jle    6d3a <func_1+0x585>
    6d5d:	c7 05 4d a3 00 00 00 	movl   $0x0,0xa34d(%rip)        # 110b4 <g_123>
    6d64:	00 00 00 
    6d67:	e9 2c 03 00 00       	jmpq   7098 <func_1+0x8e3>
    6d6c:	48 8d 05 3d b1 00 00 	lea    0xb13d(%rip),%rax        # 11eb0 <g_194>
    6d73:	48 89 85 a8 f6 ff ff 	mov    %rax,-0x958(%rbp)
    6d7a:	48 8d 05 87 a3 00 00 	lea    0xa387(%rip),%rax        # 11108 <g_156+0x8>
    6d81:	48 89 85 78 f5 ff ff 	mov    %rax,-0xa88(%rbp)
    6d88:	48 8d 85 78 f5 ff ff 	lea    -0xa88(%rbp),%rax
    6d8f:	48 89 85 a0 fa ff ff 	mov    %rax,-0x560(%rbp)
    6d96:	48 8d 85 78 f5 ff ff 	lea    -0xa88(%rbp),%rax
    6d9d:	48 89 85 a8 fa ff ff 	mov    %rax,-0x558(%rbp)
    6da4:	48 8d 85 78 f5 ff ff 	lea    -0xa88(%rbp),%rax
    6dab:	48 89 85 b0 fa ff ff 	mov    %rax,-0x550(%rbp)
    6db2:	48 8d 85 78 f5 ff ff 	lea    -0xa88(%rbp),%rax
    6db9:	48 89 85 b8 fa ff ff 	mov    %rax,-0x548(%rbp)
    6dc0:	48 8d 85 78 f5 ff ff 	lea    -0xa88(%rbp),%rax
    6dc7:	48 89 85 c0 fa ff ff 	mov    %rax,-0x540(%rbp)
    6dce:	48 8d 85 78 f5 ff ff 	lea    -0xa88(%rbp),%rax
    6dd5:	48 89 85 c8 fa ff ff 	mov    %rax,-0x538(%rbp)
    6ddc:	48 8d 85 78 f5 ff ff 	lea    -0xa88(%rbp),%rax
    6de3:	48 89 85 d0 fa ff ff 	mov    %rax,-0x530(%rbp)
    6dea:	48 8d 85 78 f5 ff ff 	lea    -0xa88(%rbp),%rax
    6df1:	48 89 85 d8 fa ff ff 	mov    %rax,-0x528(%rbp)
    6df8:	48 8d 85 78 f5 ff ff 	lea    -0xa88(%rbp),%rax
    6dff:	48 89 85 e0 fa ff ff 	mov    %rax,-0x520(%rbp)
    6e06:	48 c7 85 e8 fa ff ff 	movq   $0x0,-0x518(%rbp)
    6e0d:	00 00 00 00 
    6e11:	48 c7 85 f0 fa ff ff 	movq   $0x0,-0x510(%rbp)
    6e18:	00 00 00 00 
    6e1c:	48 8d 85 78 f5 ff ff 	lea    -0xa88(%rbp),%rax
    6e23:	48 89 85 f8 fa ff ff 	mov    %rax,-0x508(%rbp)
    6e2a:	48 8d 85 78 f5 ff ff 	lea    -0xa88(%rbp),%rax
    6e31:	48 89 85 00 fb ff ff 	mov    %rax,-0x500(%rbp)
    6e38:	48 c7 85 08 fb ff ff 	movq   $0x0,-0x4f8(%rbp)
    6e3f:	00 00 00 00 
    6e43:	48 c7 85 10 fb ff ff 	movq   $0x0,-0x4f0(%rbp)
    6e4a:	00 00 00 00 
    6e4e:	48 8d 85 78 f5 ff ff 	lea    -0xa88(%rbp),%rax
    6e55:	48 89 85 18 fb ff ff 	mov    %rax,-0x4e8(%rbp)
    6e5c:	48 c7 85 20 fb ff ff 	movq   $0x0,-0x4e0(%rbp)
    6e63:	00 00 00 00 
    6e67:	48 8d 85 78 f5 ff ff 	lea    -0xa88(%rbp),%rax
    6e6e:	48 89 85 28 fb ff ff 	mov    %rax,-0x4d8(%rbp)
    6e75:	48 c7 85 30 fb ff ff 	movq   $0x0,-0x4d0(%rbp)
    6e7c:	00 00 00 00 
    6e80:	48 8d 85 78 f5 ff ff 	lea    -0xa88(%rbp),%rax
    6e87:	48 89 85 38 fb ff ff 	mov    %rax,-0x4c8(%rbp)
    6e8e:	48 c7 85 40 fb ff ff 	movq   $0x0,-0x4c0(%rbp)
    6e95:	00 00 00 00 
    6e99:	48 8d 85 a0 fa ff ff 	lea    -0x560(%rbp),%rax
    6ea0:	48 05 98 00 00 00    	add    $0x98,%rax
    6ea6:	48 89 85 b0 f6 ff ff 	mov    %rax,-0x950(%rbp)
    6ead:	c7 85 24 f5 ff ff c7 	movl   $0x152a60c7,-0xadc(%rbp)
    6eb4:	60 2a 15 
    6eb7:	48 c7 85 90 f7 ff ff 	movq   $0xfffffffffffffff8,-0x870(%rbp)
    6ebe:	f8 ff ff ff 
    6ec2:	48 c7 85 98 f7 ff ff 	movq   $0xfffffffffffffff8,-0x868(%rbp)
    6ec9:	f8 ff ff ff 
    6ecd:	48 c7 85 a0 f7 ff ff 	movq   $0x1,-0x860(%rbp)
    6ed4:	01 00 00 00 
    6ed8:	48 c7 85 a8 f7 ff ff 	movq   $0xfffffffffffffff8,-0x858(%rbp)
    6edf:	f8 ff ff ff 
    6ee3:	48 c7 85 b0 f7 ff ff 	movq   $0xfffffffffffffff8,-0x850(%rbp)
    6eea:	f8 ff ff ff 
    6eee:	48 c7 85 b8 f7 ff ff 	movq   $0x1,-0x848(%rbp)
    6ef5:	01 00 00 00 
    6ef9:	c7 85 0c f5 ff ff 00 	movl   $0x0,-0xaf4(%rbp)
    6f00:	00 00 00 
    6f03:	eb 1b                	jmp    6f20 <func_1+0x76b>
    6f05:	8b 85 0c f5 ff ff    	mov    -0xaf4(%rbp),%eax
    6f0b:	48 98                	cltq   
    6f0d:	48 c7 84 c5 10 f8 ff 	movq   $0x0,-0x7f0(%rbp,%rax,8)
    6f14:	ff 00 00 00 00 
    6f19:	83 85 0c f5 ff ff 01 	addl   $0x1,-0xaf4(%rbp)
    6f20:	83 bd 0c f5 ff ff 09 	cmpl   $0x9,-0xaf4(%rbp)
    6f27:	7e dc                	jle    6f05 <func_1+0x750>
    6f29:	c7 85 0c f5 ff ff 00 	movl   $0x0,-0xaf4(%rbp)
    6f30:	00 00 00 
    6f33:	eb 14                	jmp    6f49 <func_1+0x794>
    6f35:	8b 85 0c f5 ff ff    	mov    -0xaf4(%rbp),%eax
    6f3b:	48 98                	cltq   
    6f3d:	c6 44 05 e4 f7       	movb   $0xf7,-0x1c(%rbp,%rax,1)
    6f42:	83 85 0c f5 ff ff 01 	addl   $0x1,-0xaf4(%rbp)
    6f49:	83 bd 0c f5 ff ff 03 	cmpl   $0x3,-0xaf4(%rbp)
    6f50:	7e e3                	jle    6f35 <func_1+0x780>
    6f52:	0f b6 85 df f4 ff ff 	movzbl -0xb21(%rbp),%eax
    6f59:	0f b6 c0             	movzbl %al,%eax
    6f5c:	be 04 00 00 00       	mov    $0x4,%esi
    6f61:	89 c7                	mov    %eax,%edi
    6f63:	e8 56 ed ff ff       	callq  5cbe <safe_rshift_func_uint8_t_u_u>
    6f68:	84 c0                	test   %al,%al
    6f6a:	0f 84 f3 00 00 00    	je     7063 <func_1+0x8ae>
    6f70:	48 8b 85 a8 f6 ff ff 	mov    -0x958(%rbp),%rax
    6f77:	48 8d 15 0a a3 00 00 	lea    0xa30a(%rip),%rdx        # 11288 <g_717>
    6f7e:	48 89 10             	mov    %rdx,(%rax)
    6f81:	48 8b 85 a8 f6 ff ff 	mov    -0x958(%rbp),%rax
    6f88:	48 8b 00             	mov    (%rax),%rax
    6f8b:	48 8d 15 c6 a0 00 00 	lea    0xa0c6(%rip),%rdx        # 11058 <g_50+0x18>
    6f92:	48 39 d0             	cmp    %rdx,%rax
    6f95:	0f 95 c0             	setne  %al
    6f98:	0f b6 d0             	movzbl %al,%edx
    6f9b:	48 8b 05 e6 a2 00 00 	mov    0xa2e6(%rip),%rax        # 11288 <g_717>
    6fa2:	48 39 c2             	cmp    %rax,%rdx
    6fa5:	48 8b 85 d0 f7 ff ff 	mov    -0x830(%rbp),%rax
    6fac:	48 85 c0             	test   %rax,%rax
    6faf:	0f 95 c0             	setne  %al
    6fb2:	0f b6 c0             	movzbl %al,%eax
    6fb5:	39 85 1c f5 ff ff    	cmp    %eax,-0xae4(%rbp)
    6fbb:	0f 95 c0             	setne  %al
    6fbe:	0f b6 c0             	movzbl %al,%eax
    6fc1:	be 05 00 00 00       	mov    $0x5,%esi
    6fc6:	89 c7                	mov    %eax,%edi
    6fc8:	e8 d4 e2 ff ff       	callq  52a1 <safe_lshift_func_int8_t_s_s>
    6fcd:	89 c2                	mov    %eax,%edx
    6fcf:	48 8b 85 28 f5 ff ff 	mov    -0xad8(%rbp),%rax
    6fd6:	0f be d2             	movsbl %dl,%edx
    6fd9:	89 10                	mov    %edx,(%rax)
    6fdb:	8b 05 cb a2 00 00    	mov    0xa2cb(%rip),%eax        # 112ac <g_1232>
    6fe1:	83 f8 ff             	cmp    $0xffffffff,%eax
    6fe4:	0f 9c c0             	setl   %al
    6fe7:	0f b6 d0             	movzbl %al,%edx
    6fea:	0f b6 85 e0 f4 ff ff 	movzbl -0xb20(%rbp),%eax
    6ff1:	39 c2                	cmp    %eax,%edx
    6ff3:	0f 94 c0             	sete   %al
    6ff6:	0f b6 c0             	movzbl %al,%eax
    6ff9:	be ff ff 00 00       	mov    $0xffff,%esi
    6ffe:	89 c7                	mov    %eax,%edi
    7000:	e8 38 ed ff ff       	callq  5d3d <safe_mul_func_uint16_t_u_u>
    7005:	48 8b 85 b0 f6 ff ff 	mov    -0x950(%rbp),%rax
    700c:	48 3b 85 88 f5 ff ff 	cmp    -0xa78(%rbp),%rax
    7013:	0f 95 c0             	setne  %al
    7016:	0f b6 c0             	movzbl %al,%eax
    7019:	be 6c 83 c0 22       	mov    $0x22c0836c,%esi
    701e:	89 c7                	mov    %eax,%edi
    7020:	e8 a7 e6 ff ff       	callq  56cc <safe_mod_func_int32_t_s_s>
    7025:	48 8b 85 28 f5 ff ff 	mov    -0xad8(%rbp),%rax
    702c:	8b 00                	mov    (%rax),%eax
    702e:	89 c2                	mov    %eax,%edx
    7030:	8b 85 14 f5 ff ff    	mov    -0xaec(%rbp),%eax
    7036:	89 c6                	mov    %eax,%esi
    7038:	89 d7                	mov    %edx,%edi
    703a:	e8 e6 ee ff ff       	callq  5f25 <safe_div_func_uint32_t_u_u>
    703f:	0d ff ff 00 00       	or     $0xffff,%eax
    7044:	89 c2                	mov    %eax,%edx
    7046:	8b 85 24 f5 ff ff    	mov    -0xadc(%rbp),%eax
    704c:	48 98                	cltq   
    704e:	48 39 c2             	cmp    %rax,%rdx
    7051:	0f 96 c0             	setbe  %al
    7054:	0f b6 c0             	movzbl %al,%eax
    7057:	be 78 24 00 00       	mov    $0x2478,%esi
    705c:	89 c7                	mov    %eax,%edi
    705e:	e8 b3 e3 ff ff       	callq  5416 <safe_mod_func_int16_t_s_s>
    7063:	b8 00 00 00 00       	mov    $0x0,%eax
    7068:	48 98                	cltq   
    706a:	48 39 85 90 f5 ff ff 	cmp    %rax,-0xa70(%rbp)
    7071:	0f 95 c0             	setne  %al
    7074:	0f b6 c0             	movzbl %al,%eax
    7077:	09 85 04 f5 ff ff    	or     %eax,-0xafc(%rbp)
    707d:	8b 05 31 a0 00 00    	mov    0xa031(%rip),%eax        # 110b4 <g_123>
    7083:	48 98                	cltq   
    7085:	be 09 00 00 00       	mov    $0x9,%esi
    708a:	48 89 c7             	mov    %rax,%rdi
    708d:	e8 b9 ef ff ff       	callq  604b <safe_sub_func_uint64_t_u_u>
    7092:	89 05 1c a0 00 00    	mov    %eax,0xa01c(%rip)        # 110b4 <g_123>
    7098:	8b 05 16 a0 00 00    	mov    0xa016(%rip),%eax        # 110b4 <g_123>
    709e:	83 f8 e8             	cmp    $0xffffffe8,%eax
    70a1:	0f 8d c5 fc ff ff    	jge    6d6c <func_1+0x5b7>
    70a7:	8b 05 4b a1 00 00    	mov    0xa14b(%rip),%eax        # 111f8 <g_196>
    70ad:	be 02 00 00 00       	mov    $0x2,%esi
    70b2:	89 c7                	mov    %eax,%edi
    70b4:	e8 fd e4 ff ff       	callq  55b6 <safe_add_func_int32_t_s_s>
    70b9:	89 05 39 a1 00 00    	mov    %eax,0xa139(%rip)        # 111f8 <g_196>
    70bf:	8b 05 33 a1 00 00    	mov    0xa133(%rip),%eax        # 111f8 <g_196>
    70c5:	83 f8 32             	cmp    $0x32,%eax
    70c8:	0f 87 38 fa ff ff    	ja     6b06 <func_1+0x351>
    70ce:	66 c7 85 e2 f4 ff ff 	movw   $0x0,-0xb1e(%rbp)
    70d5:	00 00 
    70d7:	e9 0c 0b 00 00       	jmpq   7be8 <func_1+0x1433>
    70dc:	48 8d 05 61 a1 00 00 	lea    0xa161(%rip),%rax        # 11244 <g_324+0x4>
    70e3:	48 89 85 f0 f5 ff ff 	mov    %rax,-0xa10(%rbp)
    70ea:	48 c7 85 f8 f5 ff ff 	movq   $0x0,-0xa08(%rbp)
    70f1:	00 00 00 00 
    70f5:	48 8d 05 a4 a1 00 00 	lea    0xa1a4(%rip),%rax        # 112a0 <g_1032>
    70fc:	48 89 85 00 f6 ff ff 	mov    %rax,-0xa00(%rbp)
    7103:	48 8d 05 96 a1 00 00 	lea    0xa196(%rip),%rax        # 112a0 <g_1032>
    710a:	48 89 85 08 f6 ff ff 	mov    %rax,-0x9f8(%rbp)
    7111:	48 8d 85 fc f4 ff ff 	lea    -0xb04(%rbp),%rax
    7118:	48 89 85 10 f6 ff ff 	mov    %rax,-0x9f0(%rbp)
    711f:	48 8d 85 fc f4 ff ff 	lea    -0xb04(%rbp),%rax
    7126:	48 89 85 18 f6 ff ff 	mov    %rax,-0x9e8(%rbp)
    712d:	48 8d 05 78 a1 00 00 	lea    0xa178(%rip),%rax        # 112ac <g_1232>
    7134:	48 89 85 20 f6 ff ff 	mov    %rax,-0x9e0(%rbp)
    713b:	48 c7 85 28 f6 ff ff 	movq   $0x0,-0x9d8(%rbp)
    7142:	00 00 00 00 
    7146:	48 8d 05 67 9f 00 00 	lea    0x9f67(%rip),%rax        # 110b4 <g_123>
    714d:	48 89 85 a0 fa ff ff 	mov    %rax,-0x560(%rbp)
    7154:	48 c7 85 a8 fa ff ff 	movq   $0x0,-0x558(%rbp)
    715b:	00 00 00 00 
    715f:	48 8d 05 c2 9e 00 00 	lea    0x9ec2(%rip),%rax        # 11028 <g_3>
    7166:	48 89 85 b0 fa ff ff 	mov    %rax,-0x550(%rbp)
    716d:	48 8d 85 ec f4 ff ff 	lea    -0xb14(%rbp),%rax
    7174:	48 89 85 b8 fa ff ff 	mov    %rax,-0x548(%rbp)
    717b:	48 8d 05 1e a1 00 00 	lea    0xa11e(%rip),%rax        # 112a0 <g_1032>
    7182:	48 89 85 c0 fa ff ff 	mov    %rax,-0x540(%rbp)
    7189:	48 8d 05 14 a1 00 00 	lea    0xa114(%rip),%rax        # 112a4 <g_1033>
    7190:	48 89 85 c8 fa ff ff 	mov    %rax,-0x538(%rbp)
    7197:	48 8d 85 ec f4 ff ff 	lea    -0xb14(%rbp),%rax
    719e:	48 89 85 d0 fa ff ff 	mov    %rax,-0x530(%rbp)
    71a5:	48 8d 05 f4 a0 00 00 	lea    0xa0f4(%rip),%rax        # 112a0 <g_1032>
    71ac:	48 89 85 d8 fa ff ff 	mov    %rax,-0x528(%rbp)
    71b3:	48 8d 05 ea a0 00 00 	lea    0xa0ea(%rip),%rax        # 112a4 <g_1033>
    71ba:	48 89 85 e0 fa ff ff 	mov    %rax,-0x520(%rbp)
    71c1:	48 8d 05 ec 9e 00 00 	lea    0x9eec(%rip),%rax        # 110b4 <g_123>
    71c8:	48 89 85 e8 fa ff ff 	mov    %rax,-0x518(%rbp)
    71cf:	48 8d 05 d6 a0 00 00 	lea    0xa0d6(%rip),%rax        # 112ac <g_1232>
    71d6:	48 89 85 f0 fa ff ff 	mov    %rax,-0x510(%rbp)
    71dd:	48 8d 85 f4 f4 ff ff 	lea    -0xb0c(%rbp),%rax
    71e4:	48 89 85 f8 fa ff ff 	mov    %rax,-0x508(%rbp)
    71eb:	48 c7 85 00 fb ff ff 	movq   $0x0,-0x500(%rbp)
    71f2:	00 00 00 00 
    71f6:	48 8d 85 f8 f4 ff ff 	lea    -0xb08(%rbp),%rax
    71fd:	48 89 85 08 fb ff ff 	mov    %rax,-0x4f8(%rbp)
    7204:	48 c7 85 10 fb ff ff 	movq   $0x0,-0x4f0(%rbp)
    720b:	00 00 00 00 
    720f:	48 8d 05 8a a0 00 00 	lea    0xa08a(%rip),%rax        # 112a0 <g_1032>
    7216:	48 89 85 18 fb ff ff 	mov    %rax,-0x4e8(%rbp)
    721d:	48 8d 85 ec f4 ff ff 	lea    -0xb14(%rbp),%rax
    7224:	48 89 85 20 fb ff ff 	mov    %rax,-0x4e0(%rbp)
    722b:	48 8d 85 f8 f4 ff ff 	lea    -0xb08(%rbp),%rax
    7232:	48 89 85 28 fb ff ff 	mov    %rax,-0x4d8(%rbp)
    7239:	48 8d 85 ec f4 ff ff 	lea    -0xb14(%rbp),%rax
    7240:	48 89 85 30 fb ff ff 	mov    %rax,-0x4d0(%rbp)
    7247:	48 8d 85 f8 f4 ff ff 	lea    -0xb08(%rbp),%rax
    724e:	48 89 85 38 fb ff ff 	mov    %rax,-0x4c8(%rbp)
    7255:	48 8d 05 cc 9d 00 00 	lea    0x9dcc(%rip),%rax        # 11028 <g_3>
    725c:	48 89 85 40 fb ff ff 	mov    %rax,-0x4c0(%rbp)
    7263:	48 8d 05 4a 9e 00 00 	lea    0x9e4a(%rip),%rax        # 110b4 <g_123>
    726a:	48 89 85 48 fb ff ff 	mov    %rax,-0x4b8(%rbp)
    7271:	48 8d 05 34 a0 00 00 	lea    0xa034(%rip),%rax        # 112ac <g_1232>
    7278:	48 89 85 50 fb ff ff 	mov    %rax,-0x4b0(%rbp)
    727f:	48 8d 05 2e 9e 00 00 	lea    0x9e2e(%rip),%rax        # 110b4 <g_123>
    7286:	48 89 85 58 fb ff ff 	mov    %rax,-0x4a8(%rbp)
    728d:	48 8d 05 0c a0 00 00 	lea    0xa00c(%rip),%rax        # 112a0 <g_1032>
    7294:	48 89 85 60 fb ff ff 	mov    %rax,-0x4a0(%rbp)
    729b:	48 8d 05 fe 9f 00 00 	lea    0x9ffe(%rip),%rax        # 112a0 <g_1032>
    72a2:	48 89 85 68 fb ff ff 	mov    %rax,-0x498(%rbp)
    72a9:	48 8d 05 f4 9f 00 00 	lea    0x9ff4(%rip),%rax        # 112a4 <g_1033>
    72b0:	48 89 85 70 fb ff ff 	mov    %rax,-0x490(%rbp)
    72b7:	48 8d 05 e2 9f 00 00 	lea    0x9fe2(%rip),%rax        # 112a0 <g_1032>
    72be:	48 89 85 78 fb ff ff 	mov    %rax,-0x488(%rbp)
    72c5:	48 8d 05 d4 9f 00 00 	lea    0x9fd4(%rip),%rax        # 112a0 <g_1032>
    72cc:	48 89 85 80 fb ff ff 	mov    %rax,-0x480(%rbp)
    72d3:	48 8d 05 ca 9f 00 00 	lea    0x9fca(%rip),%rax        # 112a4 <g_1033>
    72da:	48 89 85 88 fb ff ff 	mov    %rax,-0x478(%rbp)
    72e1:	48 8d 05 b8 9f 00 00 	lea    0x9fb8(%rip),%rax        # 112a0 <g_1032>
    72e8:	48 89 85 90 fb ff ff 	mov    %rax,-0x470(%rbp)
    72ef:	48 c7 85 98 fb ff ff 	movq   $0x0,-0x468(%rbp)
    72f6:	00 00 00 00 
    72fa:	48 c7 85 a0 fb ff ff 	movq   $0x0,-0x460(%rbp)
    7301:	00 00 00 00 
    7305:	48 8d 05 a8 9d 00 00 	lea    0x9da8(%rip),%rax        # 110b4 <g_123>
    730c:	48 89 85 a8 fb ff ff 	mov    %rax,-0x458(%rbp)
    7313:	48 8d 05 86 9f 00 00 	lea    0x9f86(%rip),%rax        # 112a0 <g_1032>
    731a:	48 89 85 b0 fb ff ff 	mov    %rax,-0x450(%rbp)
    7321:	48 8d 05 84 9f 00 00 	lea    0x9f84(%rip),%rax        # 112ac <g_1232>
    7328:	48 89 85 b8 fb ff ff 	mov    %rax,-0x448(%rbp)
    732f:	48 8d 05 f2 9c 00 00 	lea    0x9cf2(%rip),%rax        # 11028 <g_3>
    7336:	48 89 85 c0 fb ff ff 	mov    %rax,-0x440(%rbp)
    733d:	48 8d 05 70 9d 00 00 	lea    0x9d70(%rip),%rax        # 110b4 <g_123>
    7344:	48 89 85 c8 fb ff ff 	mov    %rax,-0x438(%rbp)
    734b:	48 8d 85 f4 f4 ff ff 	lea    -0xb0c(%rbp),%rax
    7352:	48 89 85 d0 fb ff ff 	mov    %rax,-0x430(%rbp)
    7359:	48 8d 05 e4 9e 00 00 	lea    0x9ee4(%rip),%rax        # 11244 <g_324+0x4>
    7360:	48 89 85 d8 fb ff ff 	mov    %rax,-0x428(%rbp)
    7367:	48 8d 05 d6 9e 00 00 	lea    0x9ed6(%rip),%rax        # 11244 <g_324+0x4>
    736e:	48 89 85 e0 fb ff ff 	mov    %rax,-0x420(%rbp)
    7375:	48 8d 05 ac 9c 00 00 	lea    0x9cac(%rip),%rax        # 11028 <g_3>
    737c:	48 89 85 e8 fb ff ff 	mov    %rax,-0x418(%rbp)
    7383:	48 8d 05 9e 9c 00 00 	lea    0x9c9e(%rip),%rax        # 11028 <g_3>
    738a:	48 89 85 f0 fb ff ff 	mov    %rax,-0x410(%rbp)
    7391:	48 8d 85 fc f4 ff ff 	lea    -0xb04(%rbp),%rax
    7398:	48 89 85 f8 fb ff ff 	mov    %rax,-0x408(%rbp)
    739f:	48 8d 05 06 9f 00 00 	lea    0x9f06(%rip),%rax        # 112ac <g_1232>
    73a6:	48 89 85 00 fc ff ff 	mov    %rax,-0x400(%rbp)
    73ad:	48 8d 05 00 9d 00 00 	lea    0x9d00(%rip),%rax        # 110b4 <g_123>
    73b4:	48 89 85 08 fc ff ff 	mov    %rax,-0x3f8(%rbp)
    73bb:	48 8d 85 f8 f4 ff ff 	lea    -0xb08(%rbp),%rax
    73c2:	48 89 85 10 fc ff ff 	mov    %rax,-0x3f0(%rbp)
    73c9:	48 8d 05 dc 9e 00 00 	lea    0x9edc(%rip),%rax        # 112ac <g_1232>
    73d0:	48 89 85 18 fc ff ff 	mov    %rax,-0x3e8(%rbp)
    73d7:	48 8d 05 c2 9e 00 00 	lea    0x9ec2(%rip),%rax        # 112a0 <g_1032>
    73de:	48 89 85 20 fc ff ff 	mov    %rax,-0x3e0(%rbp)
    73e5:	48 8d 05 b4 9e 00 00 	lea    0x9eb4(%rip),%rax        # 112a0 <g_1032>
    73ec:	48 89 85 28 fc ff ff 	mov    %rax,-0x3d8(%rbp)
    73f3:	48 8d 05 5a 9e 00 00 	lea    0x9e5a(%rip),%rax        # 11254 <g_324+0x14>
    73fa:	48 89 85 30 fc ff ff 	mov    %rax,-0x3d0(%rbp)
    7401:	48 8d 05 98 9e 00 00 	lea    0x9e98(%rip),%rax        # 112a0 <g_1032>
    7408:	48 89 85 38 fc ff ff 	mov    %rax,-0x3c8(%rbp)
    740f:	48 8d 05 8a 9e 00 00 	lea    0x9e8a(%rip),%rax        # 112a0 <g_1032>
    7416:	48 89 85 40 fc ff ff 	mov    %rax,-0x3c0(%rbp)
    741d:	48 8d 85 f4 f4 ff ff 	lea    -0xb0c(%rbp),%rax
    7424:	48 89 85 48 fc ff ff 	mov    %rax,-0x3b8(%rbp)
    742b:	48 8d 05 6e 9e 00 00 	lea    0x9e6e(%rip),%rax        # 112a0 <g_1032>
    7432:	48 89 85 50 fc ff ff 	mov    %rax,-0x3b0(%rbp)
    7439:	48 8d 05 60 9e 00 00 	lea    0x9e60(%rip),%rax        # 112a0 <g_1032>
    7440:	48 89 85 58 fc ff ff 	mov    %rax,-0x3a8(%rbp)
    7447:	48 8d 85 f8 f4 ff ff 	lea    -0xb08(%rbp),%rax
    744e:	48 89 85 60 fc ff ff 	mov    %rax,-0x3a0(%rbp)
    7455:	48 8d 05 58 9c 00 00 	lea    0x9c58(%rip),%rax        # 110b4 <g_123>
    745c:	48 89 85 68 fc ff ff 	mov    %rax,-0x398(%rbp)
    7463:	48 8d 85 fc f4 ff ff 	lea    -0xb04(%rbp),%rax
    746a:	48 89 85 70 fc ff ff 	mov    %rax,-0x390(%rbp)
    7471:	48 8d 05 dc 9d 00 00 	lea    0x9ddc(%rip),%rax        # 11254 <g_324+0x14>
    7478:	48 89 85 78 fc ff ff 	mov    %rax,-0x388(%rbp)
    747f:	48 8d 85 ec f4 ff ff 	lea    -0xb14(%rbp),%rax
    7486:	48 89 85 80 fc ff ff 	mov    %rax,-0x380(%rbp)
    748d:	48 c7 85 88 fc ff ff 	movq   $0x0,-0x378(%rbp)
    7494:	00 00 00 00 
    7498:	48 c7 85 90 fc ff ff 	movq   $0x0,-0x370(%rbp)
    749f:	00 00 00 00 
    74a3:	48 8d 05 f6 9d 00 00 	lea    0x9df6(%rip),%rax        # 112a0 <g_1032>
    74aa:	48 89 85 98 fc ff ff 	mov    %rax,-0x368(%rbp)
    74b1:	48 8d 85 ec f4 ff ff 	lea    -0xb14(%rbp),%rax
    74b8:	48 89 85 a0 fc ff ff 	mov    %rax,-0x360(%rbp)
    74bf:	48 8d 05 8e 9d 00 00 	lea    0x9d8e(%rip),%rax        # 11254 <g_324+0x14>
    74c6:	48 89 85 a8 fc ff ff 	mov    %rax,-0x358(%rbp)
    74cd:	48 c7 85 b0 fc ff ff 	movq   $0x0,-0x350(%rbp)
    74d4:	00 00 00 00 
    74d8:	48 8d 05 65 9d 00 00 	lea    0x9d65(%rip),%rax        # 11244 <g_324+0x4>
    74df:	48 89 85 b8 fc ff ff 	mov    %rax,-0x348(%rbp)
    74e6:	48 8d 85 f8 f4 ff ff 	lea    -0xb08(%rbp),%rax
    74ed:	48 89 85 c0 fc ff ff 	mov    %rax,-0x340(%rbp)
    74f4:	48 8d 05 b9 9b 00 00 	lea    0x9bb9(%rip),%rax        # 110b4 <g_123>
    74fb:	48 89 85 c8 fc ff ff 	mov    %rax,-0x338(%rbp)
    7502:	48 c7 85 d0 fc ff ff 	movq   $0x0,-0x330(%rbp)
    7509:	00 00 00 00 
    750d:	48 8d 85 f4 f4 ff ff 	lea    -0xb0c(%rbp),%rax
    7514:	48 89 85 d8 fc ff ff 	mov    %rax,-0x328(%rbp)
    751b:	48 8d 85 ec f4 ff ff 	lea    -0xb14(%rbp),%rax
    7522:	48 89 85 e0 fc ff ff 	mov    %rax,-0x320(%rbp)
    7529:	48 8d 85 ec f4 ff ff 	lea    -0xb14(%rbp),%rax
    7530:	48 89 85 e8 fc ff ff 	mov    %rax,-0x318(%rbp)
    7537:	48 8d 05 16 9d 00 00 	lea    0x9d16(%rip),%rax        # 11254 <g_324+0x14>
    753e:	48 89 85 f0 fc ff ff 	mov    %rax,-0x310(%rbp)
    7545:	48 8d 85 ec f4 ff ff 	lea    -0xb14(%rbp),%rax
    754c:	48 89 85 f8 fc ff ff 	mov    %rax,-0x308(%rbp)
    7553:	48 c7 85 00 fd ff ff 	movq   $0x0,-0x300(%rbp)
    755a:	00 00 00 00 
    755e:	48 8d 05 47 9d 00 00 	lea    0x9d47(%rip),%rax        # 112ac <g_1232>
    7565:	48 89 85 08 fd ff ff 	mov    %rax,-0x2f8(%rbp)
    756c:	48 8d 05 41 9b 00 00 	lea    0x9b41(%rip),%rax        # 110b4 <g_123>
    7573:	48 89 85 10 fd ff ff 	mov    %rax,-0x2f0(%rbp)
    757a:	48 8d 85 f8 f4 ff ff 	lea    -0xb08(%rbp),%rax
    7581:	48 89 85 18 fd ff ff 	mov    %rax,-0x2e8(%rbp)
    7588:	48 8d 05 1d 9d 00 00 	lea    0x9d1d(%rip),%rax        # 112ac <g_1232>
    758f:	48 89 85 20 fd ff ff 	mov    %rax,-0x2e0(%rbp)
    7596:	48 c7 85 28 fd ff ff 	movq   $0x0,-0x2d8(%rbp)
    759d:	00 00 00 00 
    75a1:	48 8d 05 0c 9b 00 00 	lea    0x9b0c(%rip),%rax        # 110b4 <g_123>
    75a8:	48 89 85 30 fd ff ff 	mov    %rax,-0x2d0(%rbp)
    75af:	48 8d 05 72 9a 00 00 	lea    0x9a72(%rip),%rax        # 11028 <g_3>
    75b6:	48 89 85 38 fd ff ff 	mov    %rax,-0x2c8(%rbp)
    75bd:	48 8d 05 dc 9c 00 00 	lea    0x9cdc(%rip),%rax        # 112a0 <g_1032>
    75c4:	48 89 85 40 fd ff ff 	mov    %rax,-0x2c0(%rbp)
    75cb:	48 c7 85 48 fd ff ff 	movq   $0x0,-0x2b8(%rbp)
    75d2:	00 00 00 00 
    75d6:	48 8d 85 f4 f4 ff ff 	lea    -0xb0c(%rbp),%rax
    75dd:	48 89 85 50 fd ff ff 	mov    %rax,-0x2b0(%rbp)
    75e4:	48 8d 85 ec f4 ff ff 	lea    -0xb14(%rbp),%rax
    75eb:	48 89 85 58 fd ff ff 	mov    %rax,-0x2a8(%rbp)
    75f2:	48 8d 05 bb 9a 00 00 	lea    0x9abb(%rip),%rax        # 110b4 <g_123>
    75f9:	48 89 85 60 fd ff ff 	mov    %rax,-0x2a0(%rbp)
    7600:	48 8d 05 a5 9c 00 00 	lea    0x9ca5(%rip),%rax        # 112ac <g_1232>
    7607:	48 89 85 68 fd ff ff 	mov    %rax,-0x298(%rbp)
    760e:	48 8d 05 9f 9a 00 00 	lea    0x9a9f(%rip),%rax        # 110b4 <g_123>
    7615:	48 89 85 70 fd ff ff 	mov    %rax,-0x290(%rbp)
    761c:	48 8d 85 f8 f4 ff ff 	lea    -0xb08(%rbp),%rax
    7623:	48 89 85 78 fd ff ff 	mov    %rax,-0x288(%rbp)
    762a:	48 c7 85 80 fd ff ff 	movq   $0x0,-0x280(%rbp)
    7631:	00 00 00 00 
    7635:	48 8d 05 64 9c 00 00 	lea    0x9c64(%rip),%rax        # 112a0 <g_1032>
    763c:	48 89 85 88 fd ff ff 	mov    %rax,-0x278(%rbp)
    7643:	48 c7 85 90 fd ff ff 	movq   $0x0,-0x270(%rbp)
    764a:	00 00 00 00 
    764e:	48 8d 05 4f 9c 00 00 	lea    0x9c4f(%rip),%rax        # 112a4 <g_1033>
    7655:	48 89 85 98 fd ff ff 	mov    %rax,-0x268(%rbp)
    765c:	48 8d 05 3d 9c 00 00 	lea    0x9c3d(%rip),%rax        # 112a0 <g_1032>
    7663:	48 89 85 a0 fd ff ff 	mov    %rax,-0x260(%rbp)
    766a:	48 8d 85 ec f4 ff ff 	lea    -0xb14(%rbp),%rax
    7671:	48 89 85 a8 fd ff ff 	mov    %rax,-0x258(%rbp)
    7678:	48 8d 05 25 9c 00 00 	lea    0x9c25(%rip),%rax        # 112a4 <g_1033>
    767f:	48 89 85 b0 fd ff ff 	mov    %rax,-0x250(%rbp)
    7686:	48 8d 05 13 9c 00 00 	lea    0x9c13(%rip),%rax        # 112a0 <g_1032>
    768d:	48 89 85 b8 fd ff ff 	mov    %rax,-0x248(%rbp)
    7694:	48 c7 85 c0 fd ff ff 	movq   $0x0,-0x240(%rbp)
    769b:	00 00 00 00 
    769f:	48 8d 05 0e 9a 00 00 	lea    0x9a0e(%rip),%rax        # 110b4 <g_123>
    76a6:	48 89 85 c8 fd ff ff 	mov    %rax,-0x238(%rbp)
    76ad:	48 8d 05 00 9a 00 00 	lea    0x9a00(%rip),%rax        # 110b4 <g_123>
    76b4:	48 89 85 d0 fd ff ff 	mov    %rax,-0x230(%rbp)
    76bb:	48 8d 05 82 9b 00 00 	lea    0x9b82(%rip),%rax        # 11244 <g_324+0x4>
    76c2:	48 89 85 d8 fd ff ff 	mov    %rax,-0x228(%rbp)
    76c9:	48 8d 05 58 99 00 00 	lea    0x9958(%rip),%rax        # 11028 <g_3>
    76d0:	48 89 85 e0 fd ff ff 	mov    %rax,-0x220(%rbp)
    76d7:	48 8d 05 4a 99 00 00 	lea    0x994a(%rip),%rax        # 11028 <g_3>
    76de:	48 89 85 e8 fd ff ff 	mov    %rax,-0x218(%rbp)
    76e5:	48 8d 85 ec f4 ff ff 	lea    -0xb14(%rbp),%rax
    76ec:	48 89 85 f0 fd ff ff 	mov    %rax,-0x210(%rbp)
    76f3:	48 8d 85 f8 f4 ff ff 	lea    -0xb08(%rbp),%rax
    76fa:	48 89 85 f8 fd ff ff 	mov    %rax,-0x208(%rbp)
    7701:	48 8d 05 3c 9b 00 00 	lea    0x9b3c(%rip),%rax        # 11244 <g_324+0x4>
    7708:	48 89 85 00 fe ff ff 	mov    %rax,-0x200(%rbp)
    770f:	48 c7 85 08 fe ff ff 	movq   $0x0,-0x1f8(%rbp)
    7716:	00 00 00 00 
    771a:	48 c7 85 10 fe ff ff 	movq   $0x0,-0x1f0(%rbp)
    7721:	00 00 00 00 
    7725:	48 8d 05 fc 98 00 00 	lea    0x98fc(%rip),%rax        # 11028 <g_3>
    772c:	48 89 85 18 fe ff ff 	mov    %rax,-0x1e8(%rbp)
    7733:	48 8d 85 fc f4 ff ff 	lea    -0xb04(%rbp),%rax
    773a:	48 89 85 20 fe ff ff 	mov    %rax,-0x1e0(%rbp)
    7741:	48 8d 85 f4 f4 ff ff 	lea    -0xb0c(%rbp),%rax
    7748:	48 89 85 28 fe ff ff 	mov    %rax,-0x1d8(%rbp)
    774f:	48 8d 05 5e 99 00 00 	lea    0x995e(%rip),%rax        # 110b4 <g_123>
    7756:	48 89 85 30 fe ff ff 	mov    %rax,-0x1d0(%rbp)
    775d:	48 8d 05 3c 9b 00 00 	lea    0x9b3c(%rip),%rax        # 112a0 <g_1032>
    7764:	48 89 85 38 fe ff ff 	mov    %rax,-0x1c8(%rbp)
    776b:	48 8d 05 32 9b 00 00 	lea    0x9b32(%rip),%rax        # 112a4 <g_1033>
    7772:	48 89 85 40 fe ff ff 	mov    %rax,-0x1c0(%rbp)
    7779:	48 8d 05 20 9b 00 00 	lea    0x9b20(%rip),%rax        # 112a0 <g_1032>
    7780:	48 89 85 48 fe ff ff 	mov    %rax,-0x1b8(%rbp)
    7787:	48 8d 05 12 9b 00 00 	lea    0x9b12(%rip),%rax        # 112a0 <g_1032>
    778e:	48 89 85 50 fe ff ff 	mov    %rax,-0x1b0(%rbp)
    7795:	48 8d 05 08 9b 00 00 	lea    0x9b08(%rip),%rax        # 112a4 <g_1033>
    779c:	48 89 85 58 fe ff ff 	mov    %rax,-0x1a8(%rbp)
    77a3:	48 8d 05 f6 9a 00 00 	lea    0x9af6(%rip),%rax        # 112a0 <g_1032>
    77aa:	48 89 85 60 fe ff ff 	mov    %rax,-0x1a0(%rbp)
    77b1:	48 8d 05 e8 9a 00 00 	lea    0x9ae8(%rip),%rax        # 112a0 <g_1032>
    77b8:	48 89 85 68 fe ff ff 	mov    %rax,-0x198(%rbp)
    77bf:	48 8d 05 62 98 00 00 	lea    0x9862(%rip),%rax        # 11028 <g_3>
    77c6:	48 89 85 70 fe ff ff 	mov    %rax,-0x190(%rbp)
    77cd:	48 8d 05 cc 9a 00 00 	lea    0x9acc(%rip),%rax        # 112a0 <g_1032>
    77d4:	48 89 85 78 fe ff ff 	mov    %rax,-0x188(%rbp)
    77db:	48 8d 85 f8 f4 ff ff 	lea    -0xb08(%rbp),%rax
    77e2:	48 89 85 80 fe ff ff 	mov    %rax,-0x180(%rbp)
    77e9:	48 8d 05 bc 9a 00 00 	lea    0x9abc(%rip),%rax        # 112ac <g_1232>
    77f0:	48 89 85 88 fe ff ff 	mov    %rax,-0x178(%rbp)
    77f7:	48 8d 05 b6 98 00 00 	lea    0x98b6(%rip),%rax        # 110b4 <g_123>
    77fe:	48 89 85 90 fe ff ff 	mov    %rax,-0x170(%rbp)
    7805:	48 8d 85 fc f4 ff ff 	lea    -0xb04(%rbp),%rax
    780c:	48 89 85 98 fe ff ff 	mov    %rax,-0x168(%rbp)
    7813:	48 8d 05 52 9a 00 00 	lea    0x9a52(%rip),%rax        # 1126c <g_324+0x2c>
    781a:	48 89 85 a0 fe ff ff 	mov    %rax,-0x160(%rbp)
    7821:	48 8d 85 ec f4 ff ff 	lea    -0xb14(%rbp),%rax
    7828:	48 89 85 a8 fe ff ff 	mov    %rax,-0x158(%rbp)
    782f:	48 8d 05 0e 9a 00 00 	lea    0x9a0e(%rip),%rax        # 11244 <g_324+0x4>
    7836:	48 89 85 b0 fe ff ff 	mov    %rax,-0x150(%rbp)
    783d:	48 8d 05 e4 97 00 00 	lea    0x97e4(%rip),%rax        # 11028 <g_3>
    7844:	48 89 85 b8 fe ff ff 	mov    %rax,-0x148(%rbp)
    784b:	48 8d 05 4e 9a 00 00 	lea    0x9a4e(%rip),%rax        # 112a0 <g_1032>
    7852:	48 89 85 c0 fe ff ff 	mov    %rax,-0x140(%rbp)
    7859:	48 8d 05 54 98 00 00 	lea    0x9854(%rip),%rax        # 110b4 <g_123>
    7860:	48 89 85 c8 fe ff ff 	mov    %rax,-0x138(%rbp)
    7867:	48 8d 05 fe 99 00 00 	lea    0x99fe(%rip),%rax        # 1126c <g_324+0x2c>
    786e:	48 89 85 d0 fe ff ff 	mov    %rax,-0x130(%rbp)
    7875:	48 c7 85 d8 fe ff ff 	movq   $0x0,-0x128(%rbp)
    787c:	00 00 00 00 
    7880:	48 8d 05 19 9a 00 00 	lea    0x9a19(%rip),%rax        # 112a0 <g_1032>
    7887:	48 89 85 e0 fe ff ff 	mov    %rax,-0x120(%rbp)
    788e:	48 8d 05 17 9a 00 00 	lea    0x9a17(%rip),%rax        # 112ac <g_1232>
    7895:	48 89 85 e8 fe ff ff 	mov    %rax,-0x118(%rbp)
    789c:	48 8d 05 11 98 00 00 	lea    0x9811(%rip),%rax        # 110b4 <g_123>
    78a3:	48 89 85 f0 fe ff ff 	mov    %rax,-0x110(%rbp)
    78aa:	48 c7 85 f8 fe ff ff 	movq   $0x0,-0x108(%rbp)
    78b1:	00 00 00 00 
    78b5:	48 8d 05 6c 97 00 00 	lea    0x976c(%rip),%rax        # 11028 <g_3>
    78bc:	48 89 85 00 ff ff ff 	mov    %rax,-0x100(%rbp)
    78c3:	48 8d 85 ec f4 ff ff 	lea    -0xb14(%rbp),%rax
    78ca:	48 89 85 08 ff ff ff 	mov    %rax,-0xf8(%rbp)
    78d1:	48 8d 05 c8 99 00 00 	lea    0x99c8(%rip),%rax        # 112a0 <g_1032>
    78d8:	48 89 85 10 ff ff ff 	mov    %rax,-0xf0(%rbp)
    78df:	48 8d 05 be 99 00 00 	lea    0x99be(%rip),%rax        # 112a4 <g_1033>
    78e6:	48 89 85 18 ff ff ff 	mov    %rax,-0xe8(%rbp)
    78ed:	48 8d 85 ec f4 ff ff 	lea    -0xb14(%rbp),%rax
    78f4:	48 89 85 20 ff ff ff 	mov    %rax,-0xe0(%rbp)
    78fb:	48 8d 05 9e 99 00 00 	lea    0x999e(%rip),%rax        # 112a0 <g_1032>
    7902:	48 89 85 28 ff ff ff 	mov    %rax,-0xd8(%rbp)
    7909:	48 8d 05 94 99 00 00 	lea    0x9994(%rip),%rax        # 112a4 <g_1033>
    7910:	48 89 85 30 ff ff ff 	mov    %rax,-0xd0(%rbp)
    7917:	48 8d 05 96 97 00 00 	lea    0x9796(%rip),%rax        # 110b4 <g_123>
    791e:	48 89 85 38 ff ff ff 	mov    %rax,-0xc8(%rbp)
    7925:	48 8d 05 80 99 00 00 	lea    0x9980(%rip),%rax        # 112ac <g_1232>
    792c:	48 89 85 40 ff ff ff 	mov    %rax,-0xc0(%rbp)
    7933:	48 8d 85 f4 f4 ff ff 	lea    -0xb0c(%rbp),%rax
    793a:	48 89 85 48 ff ff ff 	mov    %rax,-0xb8(%rbp)
    7941:	48 c7 85 50 ff ff ff 	movq   $0x0,-0xb0(%rbp)
    7948:	00 00 00 00 
    794c:	48 8d 85 f8 f4 ff ff 	lea    -0xb08(%rbp),%rax
    7953:	48 89 85 58 ff ff ff 	mov    %rax,-0xa8(%rbp)
    795a:	48 c7 85 60 ff ff ff 	movq   $0x0,-0xa0(%rbp)
    7961:	00 00 00 00 
    7965:	48 8d 05 34 99 00 00 	lea    0x9934(%rip),%rax        # 112a0 <g_1032>
    796c:	48 89 85 68 ff ff ff 	mov    %rax,-0x98(%rbp)
    7973:	48 8d 85 ec f4 ff ff 	lea    -0xb14(%rbp),%rax
    797a:	48 89 85 70 ff ff ff 	mov    %rax,-0x90(%rbp)
    7981:	48 8d 85 f8 f4 ff ff 	lea    -0xb08(%rbp),%rax
    7988:	48 89 85 78 ff ff ff 	mov    %rax,-0x88(%rbp)
    798f:	48 8d 85 ec f4 ff ff 	lea    -0xb14(%rbp),%rax
    7996:	48 89 45 80          	mov    %rax,-0x80(%rbp)
    799a:	48 8d 85 f8 f4 ff ff 	lea    -0xb08(%rbp),%rax
    79a1:	48 89 45 88          	mov    %rax,-0x78(%rbp)
    79a5:	48 8d 05 7c 96 00 00 	lea    0x967c(%rip),%rax        # 11028 <g_3>
    79ac:	48 89 45 90          	mov    %rax,-0x70(%rbp)
    79b0:	48 8d 05 fd 96 00 00 	lea    0x96fd(%rip),%rax        # 110b4 <g_123>
    79b7:	48 89 45 98          	mov    %rax,-0x68(%rbp)
    79bb:	48 8d 05 ea 98 00 00 	lea    0x98ea(%rip),%rax        # 112ac <g_1232>
    79c2:	48 89 45 a0          	mov    %rax,-0x60(%rbp)
    79c6:	48 8d 05 e7 96 00 00 	lea    0x96e7(%rip),%rax        # 110b4 <g_123>
    79cd:	48 89 45 a8          	mov    %rax,-0x58(%rbp)
    79d1:	48 8d 05 c8 98 00 00 	lea    0x98c8(%rip),%rax        # 112a0 <g_1032>
    79d8:	48 89 45 b0          	mov    %rax,-0x50(%rbp)
    79dc:	48 8d 05 bd 98 00 00 	lea    0x98bd(%rip),%rax        # 112a0 <g_1032>
    79e3:	48 89 45 b8          	mov    %rax,-0x48(%rbp)
    79e7:	48 8d 05 b6 98 00 00 	lea    0x98b6(%rip),%rax        # 112a4 <g_1033>
    79ee:	48 89 45 c0          	mov    %rax,-0x40(%rbp)
    79f2:	48 8d 05 a7 98 00 00 	lea    0x98a7(%rip),%rax        # 112a0 <g_1032>
    79f9:	48 89 45 c8          	mov    %rax,-0x38(%rbp)
    79fd:	48 8d 05 9c 98 00 00 	lea    0x989c(%rip),%rax        # 112a0 <g_1032>
    7a04:	48 89 45 d0          	mov    %rax,-0x30(%rbp)
    7a08:	48 8d 05 95 98 00 00 	lea    0x9895(%rip),%rax        # 112a4 <g_1033>
    7a0f:	48 89 45 d8          	mov    %rax,-0x28(%rbp)
    7a13:	48 8d 85 58 f5 ff ff 	lea    -0xaa8(%rbp),%rax
    7a1a:	48 89 85 78 f5 ff ff 	mov    %rax,-0xa88(%rbp)
    7a21:	48 8d 85 50 f5 ff ff 	lea    -0xab0(%rbp),%rax
    7a28:	48 89 85 30 f6 ff ff 	mov    %rax,-0x9d0(%rbp)
    7a2f:	66 c7 85 e8 f4 ff ff 	movw   $0xfffa,-0xb18(%rbp)
    7a36:	fa ff 
    7a38:	0f b6 85 ca f6 ff ff 	movzbl -0x936(%rbp),%eax
    7a3f:	83 e8 01             	sub    $0x1,%eax
    7a42:	88 85 ca f6 ff ff    	mov    %al,-0x936(%rbp)
    7a48:	48 c7 85 a8 f5 ff ff 	movq   $0x6,-0xa58(%rbp)
    7a4f:	06 00 00 00 
    7a53:	48 83 bd a8 f5 ff ff 	cmpq   $0x0,-0xa58(%rbp)
    7a5a:	00 
    7a5b:	0f 8e 41 01 00 00    	jle    7ba2 <func_1+0x13ed>
    7a61:	66 c7 85 ea f4 ff ff 	movw   $0x1,-0xb16(%rbp)
    7a68:	01 00 
    7a6a:	48 8d 85 78 f5 ff ff 	lea    -0xa88(%rbp),%rax
    7a71:	48 89 85 38 f6 ff ff 	mov    %rax,-0x9c8(%rbp)
    7a78:	c7 85 18 f5 ff ff fd 	movl   $0xfffffffd,-0xae8(%rbp)
    7a7f:	ff ff ff 
    7a82:	66 83 bd ea f4 ff ff 	cmpw   $0x0,-0xb16(%rbp)
    7a89:	00 
    7a8a:	0f 84 ee 00 00 00    	je     7b7e <func_1+0x13c9>
    7a90:	0f b7 05 5d 97 00 00 	movzwl 0x975d(%rip),%eax        # 111f4 <g_190+0x4>
    7a97:	0f b7 d8             	movzwl %ax,%ebx
    7a9a:	48 8b 85 28 f5 ff ff 	mov    -0xad8(%rbp),%rax
    7aa1:	8b 00                	mov    (%rax),%eax
    7aa3:	44 0f b6 e0          	movzbl %al,%r12d
    7aa7:	48 8b 05 02 a4 00 00 	mov    0xa402(%rip),%rax        # 11eb0 <g_194>
    7aae:	48 8b 00             	mov    (%rax),%rax
    7ab1:	be 03 00 00 00       	mov    $0x3,%esi
    7ab6:	48 89 c7             	mov    %rax,%rdi
    7ab9:	e8 f6 de ff ff       	callq  59b4 <safe_mod_func_int64_t_s_s>
    7abe:	48 8b 05 13 a5 00 00 	mov    0xa513(%rip),%rax        # 11fd8 <g_1347>
    7ac5:	48 8b 00             	mov    (%rax),%rax
    7ac8:	48 39 85 30 f6 ff ff 	cmp    %rax,-0x9d0(%rbp)
    7acf:	48 8b 05 0a a4 00 00 	mov    0xa40a(%rip),%rax        # 11ee0 <g_397>
    7ad6:	48 8b 10             	mov    (%rax),%rdx
    7ad9:	0f b7 85 ea f4 ff ff 	movzwl -0xb16(%rbp),%eax
    7ae0:	88 02                	mov    %al,(%rdx)
    7ae2:	48 8b 05 df a3 00 00 	mov    0xa3df(%rip),%rax        # 11ec8 <g_203>
    7ae9:	48 8b 00             	mov    (%rax),%rax
    7aec:	48 8b 00             	mov    (%rax),%rax
    7aef:	0f b6 12             	movzbl (%rdx),%edx
    7af2:	88 10                	mov    %dl,(%rax)
    7af4:	0f b6 00             	movzbl (%rax),%eax
    7af7:	0f b6 c0             	movzbl %al,%eax
    7afa:	44 89 e6             	mov    %r12d,%esi
    7afd:	89 c7                	mov    %eax,%edi
    7aff:	e8 74 e0 ff ff       	callq  5b78 <safe_sub_func_uint8_t_u_u>
    7b04:	48 8b 95 78 f5 ff ff 	mov    -0xa88(%rbp),%rdx
    7b0b:	48 8b 85 38 f6 ff ff 	mov    -0x9c8(%rbp),%rax
    7b12:	48 89 10             	mov    %rdx,(%rax)
    7b15:	48 8b 85 38 f6 ff ff 	mov    -0x9c8(%rbp),%rax
    7b1c:	48 8b 10             	mov    (%rax),%rdx
    7b1f:	48 8d 85 58 f5 ff ff 	lea    -0xaa8(%rbp),%rax
    7b26:	48 39 c2             	cmp    %rax,%rdx
    7b29:	0f 95 c0             	setne  %al
    7b2c:	0f b6 d0             	movzbl %al,%edx
    7b2f:	48 8b 85 28 f5 ff ff 	mov    -0xad8(%rbp),%rax
    7b36:	8b 00                	mov    (%rax),%eax
    7b38:	85 c0                	test   %eax,%eax
    7b3a:	0f 9e c0             	setle  %al
    7b3d:	0f b6 c0             	movzbl %al,%eax
    7b40:	39 c2                	cmp    %eax,%edx
    7b42:	0f 9e c0             	setle  %al
    7b45:	0f b6 c0             	movzbl %al,%eax
    7b48:	89 de                	mov    %ebx,%esi
    7b4a:	89 c7                	mov    %eax,%edi
    7b4c:	e8 ae db ff ff       	callq  56ff <safe_div_func_int32_t_s_s>
    7b51:	48 8b 85 28 f5 ff ff 	mov    -0xad8(%rbp),%rax
    7b58:	8b 00                	mov    (%rax),%eax
    7b5a:	85 c0                	test   %eax,%eax
    7b5c:	74 07                	je     7b65 <func_1+0x13b0>
    7b5e:	ba 01 00 00 00       	mov    $0x1,%edx
    7b63:	eb 05                	jmp    7b6a <func_1+0x13b5>
    7b65:	ba 00 00 00 00       	mov    $0x0,%edx
    7b6a:	0f b7 85 e8 f4 ff ff 	movzwl -0xb18(%rbp),%eax
    7b71:	09 d0                	or     %edx,%eax
    7b73:	85 c0                	test   %eax,%eax
    7b75:	74 07                	je     7b7e <func_1+0x13c9>
    7b77:	ba 01 00 00 00       	mov    $0x1,%edx
    7b7c:	eb 05                	jmp    7b83 <func_1+0x13ce>
    7b7e:	ba 00 00 00 00       	mov    $0x0,%edx
    7b83:	48 8b 85 00 f6 ff ff 	mov    -0xa00(%rbp),%rax
    7b8a:	8b 00                	mov    (%rax),%eax
    7b8c:	31 c2                	xor    %eax,%edx
    7b8e:	48 8b 85 00 f6 ff ff 	mov    -0xa00(%rbp),%rax
    7b95:	89 10                	mov    %edx,(%rax)
    7b97:	48 8b 85 28 f5 ff ff 	mov    -0xad8(%rbp),%rax
    7b9e:	8b 00                	mov    (%rax),%eax
    7ba0:	eb 5d                	jmp    7bff <func_1+0x144a>
    7ba2:	48 8b 05 6f a3 00 00 	mov    0xa36f(%rip),%rax        # 11f18 <g_526>
    7ba9:	48 8b 00             	mov    (%rax),%rax
    7bac:	48 8b 00             	mov    (%rax),%rax
    7baf:	8b 10                	mov    (%rax),%edx
    7bb1:	48 8b 85 08 f6 ff ff 	mov    -0x9f8(%rbp),%rax
    7bb8:	89 10                	mov    %edx,(%rax)
    7bba:	48 8b 85 08 f6 ff ff 	mov    -0x9f8(%rbp),%rax
    7bc1:	8b 10                	mov    (%rax),%edx
    7bc3:	48 8b 85 f0 f5 ff ff 	mov    -0xa10(%rbp),%rax
    7bca:	8b 00                	mov    (%rax),%eax
    7bcc:	31 c2                	xor    %eax,%edx
    7bce:	48 8b 85 f0 f5 ff ff 	mov    -0xa10(%rbp),%rax
    7bd5:	89 10                	mov    %edx,(%rax)
    7bd7:	0f b7 85 e2 f4 ff ff 	movzwl -0xb1e(%rbp),%eax
    7bde:	83 c0 01             	add    $0x1,%eax
    7be1:	66 89 85 e2 f4 ff ff 	mov    %ax,-0xb1e(%rbp)
    7be8:	66 83 bd e2 f4 ff ff 	cmpw   $0x2e,-0xb1e(%rbp)
    7bef:	2e 
    7bf0:	0f 86 e6 f4 ff ff    	jbe    70dc <func_1+0x927>
    7bf6:	48 8b 85 28 f5 ff ff 	mov    -0xad8(%rbp),%rax
    7bfd:	8b 00                	mov    (%rax),%eax
    7bff:	48 8b 5d e8          	mov    -0x18(%rbp),%rbx
    7c03:	64 48 33 1c 25 28 00 	xor    %fs:0x28,%rbx
    7c0a:	00 00 
    7c0c:	74 05                	je     7c13 <func_1+0x145e>
    7c0e:	e8 5d d4 ff ff       	callq  5070 <__stack_chk_fail@plt>
    7c13:	48 81 c4 20 0b 00 00 	add    $0xb20,%rsp
    7c1a:	5b                   	pop    %rbx
    7c1b:	41 5c                	pop    %r12
    7c1d:	5d                   	pop    %rbp
    7c1e:	c3                   	retq   

0000000000007c1f <func_6>:
    7c1f:	f3 0f 1e fa          	endbr64 
    7c23:	55                   	push   %rbp
    7c24:	48 89 e5             	mov    %rsp,%rbp
    7c27:	53                   	push   %rbx
    7c28:	48 81 ec a8 06 00 00 	sub    $0x6a8,%rsp
    7c2f:	48 89 bd 68 f9 ff ff 	mov    %rdi,-0x698(%rbp)
    7c36:	89 f0                	mov    %esi,%eax
    7c38:	48 89 95 58 f9 ff ff 	mov    %rdx,-0x6a8(%rbp)
    7c3f:	88 85 64 f9 ff ff    	mov    %al,-0x69c(%rbp)
    7c45:	64 48 8b 04 25 28 00 	mov    %fs:0x28,%rax
    7c4c:	00 00 
    7c4e:	48 89 45 e8          	mov    %rax,-0x18(%rbp)
    7c52:	31 c0                	xor    %eax,%eax
    7c54:	c7 85 a4 f9 ff ff ff 	movl   $0xffffffff,-0x65c(%rbp)
    7c5b:	ff ff ff 
    7c5e:	c7 85 80 f9 ff ff 05 	movl   $0x5,-0x680(%rbp)
    7c65:	00 00 00 
    7c68:	c7 85 88 f9 ff ff 00 	movl   $0x0,-0x678(%rbp)
    7c6f:	00 00 00 
    7c72:	c7 85 8c f9 ff ff 82 	movl   $0xc1187082,-0x674(%rbp)
    7c79:	70 18 c1 
    7c7c:	c7 85 a8 f9 ff ff 00 	movl   $0x0,-0x658(%rbp)
    7c83:	00 00 00 
    7c86:	48 8d 05 24 94 00 00 	lea    0x9424(%rip),%rax        # 110b1 <g_115>
    7c8d:	48 89 85 10 fb ff ff 	mov    %rax,-0x4f0(%rbp)
    7c94:	48 8d 05 16 94 00 00 	lea    0x9416(%rip),%rax        # 110b1 <g_115>
    7c9b:	48 89 85 18 fb ff ff 	mov    %rax,-0x4e8(%rbp)
    7ca2:	48 8d 05 08 94 00 00 	lea    0x9408(%rip),%rax        # 110b1 <g_115>
    7ca9:	48 89 85 20 fb ff ff 	mov    %rax,-0x4e0(%rbp)
    7cb0:	48 8d 05 fa 93 00 00 	lea    0x93fa(%rip),%rax        # 110b1 <g_115>
    7cb7:	48 89 85 28 fb ff ff 	mov    %rax,-0x4d8(%rbp)
    7cbe:	48 8d 05 ec 93 00 00 	lea    0x93ec(%rip),%rax        # 110b1 <g_115>
    7cc5:	48 89 85 30 fb ff ff 	mov    %rax,-0x4d0(%rbp)
    7ccc:	48 8d 05 de 93 00 00 	lea    0x93de(%rip),%rax        # 110b1 <g_115>
    7cd3:	48 89 85 38 fb ff ff 	mov    %rax,-0x4c8(%rbp)
    7cda:	48 8d 05 d0 93 00 00 	lea    0x93d0(%rip),%rax        # 110b1 <g_115>
    7ce1:	48 89 85 40 fb ff ff 	mov    %rax,-0x4c0(%rbp)
    7ce8:	48 8d 05 c2 93 00 00 	lea    0x93c2(%rip),%rax        # 110b1 <g_115>
    7cef:	48 89 85 48 fb ff ff 	mov    %rax,-0x4b8(%rbp)
    7cf6:	48 8d 05 b4 93 00 00 	lea    0x93b4(%rip),%rax        # 110b1 <g_115>
    7cfd:	48 89 85 50 fb ff ff 	mov    %rax,-0x4b0(%rbp)
    7d04:	48 8d 85 10 fb ff ff 	lea    -0x4f0(%rbp),%rax
    7d0b:	48 83 c0 40          	add    $0x40,%rax
    7d0f:	48 89 85 d8 f9 ff ff 	mov    %rax,-0x628(%rbp)
    7d16:	48 8d 05 83 95 00 00 	lea    0x9583(%rip),%rax        # 112a0 <g_1032>
    7d1d:	48 89 85 e0 f9 ff ff 	mov    %rax,-0x620(%rbp)
    7d24:	c7 05 76 95 00 00 0b 	movl   $0xb,0x9576(%rip)        # 112a4 <g_1033>
    7d2b:	00 00 00 
    7d2e:	e9 6b 07 00 00       	jmpq   849e <func_6+0x87f>
    7d33:	66 c7 85 d0 fa ff ff 	movw   $0x6215,-0x530(%rbp)
    7d3a:	15 62 
    7d3c:	66 c7 85 d2 fa ff ff 	movw   $0x6215,-0x52e(%rbp)
    7d43:	15 62 
    7d45:	66 c7 85 d4 fa ff ff 	movw   $0x12f6,-0x52c(%rbp)
    7d4c:	f6 12 
    7d4e:	66 c7 85 d6 fa ff ff 	movw   $0x6215,-0x52a(%rbp)
    7d55:	15 62 
    7d57:	66 c7 85 d8 fa ff ff 	movw   $0x6215,-0x528(%rbp)
    7d5e:	15 62 
    7d60:	66 c7 85 da fa ff ff 	movw   $0x12f6,-0x526(%rbp)
    7d67:	f6 12 
    7d69:	66 c7 85 dc fa ff ff 	movw   $0x6215,-0x524(%rbp)
    7d70:	15 62 
    7d72:	66 c7 85 de fa ff ff 	movw   $0x6215,-0x522(%rbp)
    7d79:	15 62 
    7d7b:	66 c7 85 e0 fa ff ff 	movw   $0xf06a,-0x520(%rbp)
    7d82:	6a f0 
    7d84:	66 c7 85 e2 fa ff ff 	movw   $0x6215,-0x51e(%rbp)
    7d8b:	15 62 
    7d8d:	66 c7 85 e4 fa ff ff 	movw   $0xf06a,-0x51c(%rbp)
    7d94:	6a f0 
    7d96:	66 c7 85 e6 fa ff ff 	movw   $0xf06a,-0x51a(%rbp)
    7d9d:	6a f0 
    7d9f:	66 c7 85 e8 fa ff ff 	movw   $0x6215,-0x518(%rbp)
    7da6:	15 62 
    7da8:	66 c7 85 ea fa ff ff 	movw   $0xf06a,-0x516(%rbp)
    7daf:	6a f0 
    7db1:	66 c7 85 ec fa ff ff 	movw   $0xf06a,-0x514(%rbp)
    7db8:	6a f0 
    7dba:	66 c7 85 ee fa ff ff 	movw   $0x6215,-0x512(%rbp)
    7dc1:	15 62 
    7dc3:	66 c7 85 f0 fa ff ff 	movw   $0x6215,-0x510(%rbp)
    7dca:	15 62 
    7dcc:	66 c7 85 f2 fa ff ff 	movw   $0xf06a,-0x50e(%rbp)
    7dd3:	6a f0 
    7dd5:	66 c7 85 f4 fa ff ff 	movw   $0xf06a,-0x50c(%rbp)
    7ddc:	6a f0 
    7dde:	66 c7 85 f6 fa ff ff 	movw   $0x6215,-0x50a(%rbp)
    7de5:	15 62 
    7de7:	66 c7 85 f8 fa ff ff 	movw   $0xf06a,-0x508(%rbp)
    7dee:	6a f0 
    7df0:	66 c7 85 fa fa ff ff 	movw   $0xf06a,-0x506(%rbp)
    7df7:	6a f0 
    7df9:	66 c7 85 fc fa ff ff 	movw   $0x6215,-0x504(%rbp)
    7e00:	15 62 
    7e02:	66 c7 85 fe fa ff ff 	movw   $0xf06a,-0x502(%rbp)
    7e09:	6a f0 
    7e0b:	66 c7 85 00 fb ff ff 	movw   $0x6215,-0x500(%rbp)
    7e12:	15 62 
    7e14:	66 c7 85 02 fb ff ff 	movw   $0x6215,-0x4fe(%rbp)
    7e1b:	15 62 
    7e1d:	66 c7 85 04 fb ff ff 	movw   $0x12f6,-0x4fc(%rbp)
    7e24:	f6 12 
    7e26:	66 c7 85 06 fb ff ff 	movw   $0x6215,-0x4fa(%rbp)
    7e2d:	15 62 
    7e2f:	66 c7 85 08 fb ff ff 	movw   $0x6215,-0x4f8(%rbp)
    7e36:	15 62 
    7e38:	66 c7 85 0a fb ff ff 	movw   $0x12f6,-0x4f6(%rbp)
    7e3f:	f6 12 
    7e41:	66 c7 85 0c fb ff ff 	movw   $0x6215,-0x4f4(%rbp)
    7e48:	15 62 
    7e4a:	66 c7 85 0e fb ff ff 	movw   $0x6215,-0x4f2(%rbp)
    7e51:	15 62 
    7e53:	48 8d 05 56 b6 00 00 	lea    0xb656(%rip),%rax        # 134b0 <g_796>
    7e5a:	48 89 85 e8 f9 ff ff 	mov    %rax,-0x618(%rbp)
    7e61:	48 8d 05 49 92 00 00 	lea    0x9249(%rip),%rax        # 110b1 <g_115>
    7e68:	48 89 85 b0 fa ff ff 	mov    %rax,-0x550(%rbp)
    7e6f:	48 8d 05 3b 92 00 00 	lea    0x923b(%rip),%rax        # 110b1 <g_115>
    7e76:	48 89 85 b8 fa ff ff 	mov    %rax,-0x548(%rbp)
    7e7d:	48 8d 05 2d 92 00 00 	lea    0x922d(%rip),%rax        # 110b1 <g_115>
    7e84:	48 89 85 c0 fa ff ff 	mov    %rax,-0x540(%rbp)
    7e8b:	48 8d 05 1f 92 00 00 	lea    0x921f(%rip),%rax        # 110b1 <g_115>
    7e92:	48 89 85 c8 fa ff ff 	mov    %rax,-0x538(%rbp)
    7e99:	48 8d 05 60 92 00 00 	lea    0x9260(%rip),%rax        # 11100 <g_156>
    7ea0:	48 89 85 c8 f9 ff ff 	mov    %rax,-0x638(%rbp)
    7ea7:	c7 85 ac f9 ff ff 08 	movl   $0x8,-0x654(%rbp)
    7eae:	00 00 00 
    7eb1:	66 c7 85 7c f9 ff ff 	movw   $0x8842,-0x684(%rbp)
    7eb8:	42 88 
    7eba:	c7 85 b0 f9 ff ff 8b 	movl   $0x3c40e38b,-0x650(%rbp)
    7ec1:	e3 40 3c 
    7ec4:	c7 85 84 f9 ff ff 8a 	movl   $0xff86598a,-0x67c(%rbp)
    7ecb:	59 86 ff 
    7ece:	48 b8 22 22 01 22 22 	movabs $0x2222012222012222,%rax
    7ed5:	01 22 22 
    7ed8:	48 89 45 de          	mov    %rax,-0x22(%rbp)
    7edc:	66 c7 45 e6 01 22    	movw   $0x2201,-0x1a(%rbp)
    7ee2:	48 8d 85 c8 f9 ff ff 	lea    -0x638(%rbp),%rax
    7ee9:	48 89 85 d0 f9 ff ff 	mov    %rax,-0x630(%rbp)
    7ef0:	48 8d 85 d0 f9 ff ff 	lea    -0x630(%rbp),%rax
    7ef7:	48 89 85 f0 f9 ff ff 	mov    %rax,-0x610(%rbp)
    7efe:	48 8d 45 de          	lea    -0x22(%rbp),%rax
    7f02:	48 89 85 f8 f9 ff ff 	mov    %rax,-0x608(%rbp)
    7f09:	48 c7 85 00 fa ff ff 	movq   $0x0,-0x600(%rbp)
    7f10:	00 00 00 00 
    7f14:	c7 85 90 f9 ff ff 00 	movl   $0x0,-0x670(%rbp)
    7f1b:	00 00 00 
    7f1e:	eb 4b                	jmp    7f6b <func_6+0x34c>
    7f20:	c7 85 94 f9 ff ff 00 	movl   $0x0,-0x66c(%rbp)
    7f27:	00 00 00 
    7f2a:	eb 2f                	jmp    7f5b <func_6+0x33c>
    7f2c:	8b 85 94 f9 ff ff    	mov    -0x66c(%rbp),%eax
    7f32:	48 63 c8             	movslq %eax,%rcx
    7f35:	8b 85 90 f9 ff ff    	mov    -0x670(%rbp),%eax
    7f3b:	48 63 d0             	movslq %eax,%rdx
    7f3e:	48 89 d0             	mov    %rdx,%rax
    7f41:	48 01 c0             	add    %rax,%rax
    7f44:	48 01 d0             	add    %rdx,%rax
    7f47:	48 01 c8             	add    %rcx,%rax
    7f4a:	66 c7 84 45 50 fa ff 	movw   $0xfffe,-0x5b0(%rbp,%rax,2)
    7f51:	ff fe ff 
    7f54:	83 85 94 f9 ff ff 01 	addl   $0x1,-0x66c(%rbp)
    7f5b:	83 bd 94 f9 ff ff 02 	cmpl   $0x2,-0x66c(%rbp)
    7f62:	7e c8                	jle    7f2c <func_6+0x30d>
    7f64:	83 85 90 f9 ff ff 01 	addl   $0x1,-0x670(%rbp)
    7f6b:	83 bd 90 f9 ff ff 03 	cmpl   $0x3,-0x670(%rbp)
    7f72:	7e ac                	jle    7f20 <func_6+0x301>
    7f74:	c7 85 90 f9 ff ff 00 	movl   $0x0,-0x670(%rbp)
    7f7b:	00 00 00 
    7f7e:	eb 1b                	jmp    7f9b <func_6+0x37c>
    7f80:	8b 85 90 f9 ff ff    	mov    -0x670(%rbp),%eax
    7f86:	48 98                	cltq   
    7f88:	48 c7 84 c5 70 fa ff 	movq   $0x0,-0x590(%rbp,%rax,8)
    7f8f:	ff 00 00 00 00 
    7f94:	83 85 90 f9 ff ff 01 	addl   $0x1,-0x670(%rbp)
    7f9b:	83 bd 90 f9 ff ff 02 	cmpl   $0x2,-0x670(%rbp)
    7fa2:	7e dc                	jle    7f80 <func_6+0x361>
    7fa4:	c7 85 90 f9 ff ff 00 	movl   $0x0,-0x670(%rbp)
    7fab:	00 00 00 
    7fae:	eb 1e                	jmp    7fce <func_6+0x3af>
    7fb0:	8b 85 90 f9 ff ff    	mov    -0x670(%rbp),%eax
    7fb6:	48 98                	cltq   
    7fb8:	48 8d 15 b5 92 00 00 	lea    0x92b5(%rip),%rdx        # 11274 <g_324+0x34>
    7fbf:	48 89 94 c5 40 fa ff 	mov    %rdx,-0x5c0(%rbp,%rax,8)
    7fc6:	ff 
    7fc7:	83 85 90 f9 ff ff 01 	addl   $0x1,-0x670(%rbp)
    7fce:	83 bd 90 f9 ff ff 01 	cmpl   $0x1,-0x670(%rbp)
    7fd5:	7e d9                	jle    7fb0 <func_6+0x391>
    7fd7:	c7 05 97 b4 00 00 00 	movl   $0x0,0xb497(%rip)        # 13478 <g_507>
    7fde:	00 00 00 
    7fe1:	e9 32 03 00 00       	jmpq   8318 <func_6+0x6f9>
    7fe6:	48 8d 85 60 fb ff ff 	lea    -0x4a0(%rbp),%rax
    7fed:	48 8d 15 cc 52 00 00 	lea    0x52cc(%rip),%rdx        # d2c0 <g_657+0x260>
    7ff4:	b9 28 00 00 00       	mov    $0x28,%ecx
    7ff9:	48 89 c7             	mov    %rax,%rdi
    7ffc:	48 89 d6             	mov    %rdx,%rsi
    7fff:	f3 48 a5             	rep movsq %ds:(%rsi),%es:(%rdi)
    8002:	48 89 f2             	mov    %rsi,%rdx
    8005:	48 89 f8             	mov    %rdi,%rax
    8008:	8b 0a                	mov    (%rdx),%ecx
    800a:	89 08                	mov    %ecx,(%rax)
    800c:	48 8d 40 04          	lea    0x4(%rax),%rax
    8010:	48 8d 52 04          	lea    0x4(%rdx),%rdx
    8014:	c7 85 98 f9 ff ff fe 	movl   $0xfffffffe,-0x668(%rbp)
    801b:	ff ff ff 
    801e:	c7 85 9c f9 ff ff 00 	movl   $0x0,-0x664(%rbp)
    8025:	00 00 00 
    8028:	eb 1e                	jmp    8048 <func_6+0x429>
    802a:	8b 85 9c f9 ff ff    	mov    -0x664(%rbp),%eax
    8030:	48 98                	cltq   
    8032:	48 8d 15 67 9e 00 00 	lea    0x9e67(%rip),%rdx        # 11ea0 <g_41>
    8039:	48 89 94 c5 90 fa ff 	mov    %rdx,-0x570(%rbp,%rax,8)
    8040:	ff 
    8041:	83 85 9c f9 ff ff 01 	addl   $0x1,-0x664(%rbp)
    8048:	83 bd 9c f9 ff ff 02 	cmpl   $0x2,-0x664(%rbp)
    804f:	7e d9                	jle    802a <func_6+0x40b>
    8051:	c7 05 45 92 00 00 01 	movl   $0x1,0x9245(%rip)        # 112a0 <g_1032>
    8058:	00 00 00 
    805b:	eb 7e                	jmp    80db <func_6+0x4bc>
    805d:	48 8d 05 44 92 00 00 	lea    0x9244(%rip),%rax        # 112a8 <g_1109>
    8064:	48 89 85 18 fa ff ff 	mov    %rax,-0x5e8(%rbp)
    806b:	48 8d 05 6e 90 00 00 	lea    0x906e(%rip),%rax        # 110e0 <g_153>
    8072:	48 89 85 20 fa ff ff 	mov    %rax,-0x5e0(%rbp)
    8079:	48 8d 05 32 90 00 00 	lea    0x9032(%rip),%rax        # 110b2 <g_122>
    8080:	48 89 85 28 fa ff ff 	mov    %rax,-0x5d8(%rbp)
    8087:	48 8d 05 22 b4 00 00 	lea    0xb422(%rip),%rax        # 134b0 <g_796>
    808e:	48 89 85 30 fa ff ff 	mov    %rax,-0x5d0(%rbp)
    8095:	c7 85 c4 f9 ff ff 00 	movl   $0x0,-0x63c(%rbp)
    809c:	00 00 00 
    809f:	48 8d 85 b0 fc ff ff 	lea    -0x350(%rbp),%rax
    80a6:	48 8d 15 73 53 00 00 	lea    0x5373(%rip),%rdx        # d420 <g_657+0x3c0>
    80ad:	b9 64 00 00 00       	mov    $0x64,%ecx
    80b2:	48 89 c7             	mov    %rax,%rdi
    80b5:	48 89 d6             	mov    %rdx,%rsi
    80b8:	f3 48 a5             	rep movsq %ds:(%rsi),%es:(%rdi)
    80bb:	48 b8 48 ae fd cd 1b 	movabs $0xc660781bcdfdae48,%rax
    80c2:	78 60 c6 
    80c5:	48 89 85 38 fa ff ff 	mov    %rax,-0x5c8(%rbp)
    80cc:	8b 05 ce 91 00 00    	mov    0x91ce(%rip),%eax        # 112a0 <g_1032>
    80d2:	83 e8 01             	sub    $0x1,%eax
    80d5:	89 05 c5 91 00 00    	mov    %eax,0x91c5(%rip)        # 112a0 <g_1032>
    80db:	8b 05 bf 91 00 00    	mov    0x91bf(%rip),%eax        # 112a0 <g_1032>
    80e1:	85 c0                	test   %eax,%eax
    80e3:	0f 89 74 ff ff ff    	jns    805d <func_6+0x43e>
    80e9:	c7 85 88 f9 ff ff 00 	movl   $0x0,-0x678(%rbp)
    80f0:	00 00 00 
    80f3:	e9 01 02 00 00       	jmpq   82f9 <func_6+0x6da>
    80f8:	66 c7 85 7e f9 ff ff 	movw   $0x562c,-0x682(%rbp)
    80ff:	2c 56 
    8101:	c7 85 b4 f9 ff ff f8 	movl   $0xfffffff8,-0x64c(%rbp)
    8108:	ff ff ff 
    810b:	48 c7 85 08 fa ff ff 	movq   $0x0,-0x5f8(%rbp)
    8112:	00 00 00 00 
    8116:	48 8d 85 84 f9 ff ff 	lea    -0x67c(%rbp),%rax
    811d:	48 89 85 10 fa ff ff 	mov    %rax,-0x5f0(%rbp)
    8124:	c7 85 a0 f9 ff ff 00 	movl   $0x0,-0x660(%rbp)
    812b:	00 00 00 
    812e:	eb 1e                	jmp    814e <func_6+0x52f>
    8130:	8b 85 a0 f9 ff ff    	mov    -0x660(%rbp),%eax
    8136:	48 98                	cltq   
    8138:	48 8d 95 80 f9 ff ff 	lea    -0x680(%rbp),%rdx
    813f:	48 89 94 c5 b0 fc ff 	mov    %rdx,-0x350(%rbp,%rax,8)
    8146:	ff 
    8147:	83 85 a0 f9 ff ff 01 	addl   $0x1,-0x660(%rbp)
    814e:	83 bd a0 f9 ff ff 02 	cmpl   $0x2,-0x660(%rbp)
    8155:	7e d9                	jle    8130 <func_6+0x511>
    8157:	66 83 bd 7e f9 ff ff 	cmpw   $0x0,-0x682(%rbp)
    815e:	00 
    815f:	0f 85 a3 01 00 00    	jne    8308 <func_6+0x6e9>
    8165:	83 85 98 f9 ff ff 01 	addl   $0x1,-0x668(%rbp)
    816c:	48 c7 85 68 f9 ff ff 	movq   $0x1,-0x698(%rbp)
    8173:	01 00 00 00 
    8177:	e9 68 01 00 00       	jmpq   82e4 <func_6+0x6c5>
    817c:	c7 85 b8 f9 ff ff 75 	movl   $0x71056775,-0x648(%rbp)
    8183:	67 05 71 
    8186:	c7 05 1c 91 00 00 07 	movl   $0x7,0x911c(%rip)        # 112ac <g_1232>
    818d:	00 00 00 
    8190:	e9 0d 01 00 00       	jmpq   82a2 <func_6+0x683>
    8195:	c6 85 7b f9 ff ff f9 	movb   $0xf9,-0x685(%rbp)
    819c:	c7 85 bc f9 ff ff ff 	movl   $0xffffffff,-0x644(%rbp)
    81a3:	ff ff ff 
    81a6:	c7 85 c0 f9 ff ff 5d 	movl   $0x4011c75d,-0x640(%rbp)
    81ad:	c7 11 40 
    81b0:	be 0f 00 00 00       	mov    $0xf,%esi
    81b5:	bf 01 00 00 00       	mov    $0x1,%edi
    81ba:	e8 a4 d3 ff ff       	callq  5563 <safe_rshift_func_int16_t_s_u>
    81bf:	48 8b 85 58 f9 ff ff 	mov    -0x6a8(%rbp),%rax
    81c6:	48 85 c0             	test   %rax,%rax
    81c9:	0f 95 c0             	setne  %al
    81cc:	0f b6 c0             	movzbl %al,%eax
    81cf:	39 85 b8 f9 ff ff    	cmp    %eax,-0x648(%rbp)
    81d5:	0f 95 c3             	setne  %bl
    81d8:	0f b6 95 64 f9 ff ff 	movzbl -0x69c(%rbp),%edx
    81df:	0f be 85 7b f9 ff ff 	movsbl -0x685(%rbp),%eax
    81e6:	89 d6                	mov    %edx,%esi
    81e8:	89 c7                	mov    %eax,%edi
    81ea:	e8 66 d2 ff ff       	callq  5455 <safe_div_func_int16_t_s_s>
    81ef:	66 85 c0             	test   %ax,%ax
    81f2:	0f 94 c0             	sete   %al
    81f5:	31 d8                	xor    %ebx,%eax
    81f7:	84 c0                	test   %al,%al
    81f9:	75 0c                	jne    8207 <func_6+0x5e8>
    81fb:	48 8b 05 1e 8f 00 00 	mov    0x8f1e(%rip),%rax        # 11120 <g_156+0x20>
    8202:	48 85 c0             	test   %rax,%rax
    8205:	74 07                	je     820e <func_6+0x5ef>
    8207:	ba 01 00 00 00       	mov    $0x1,%edx
    820c:	eb 05                	jmp    8213 <func_6+0x5f4>
    820e:	ba 00 00 00 00       	mov    $0x0,%edx
    8213:	48 8b 85 58 f9 ff ff 	mov    -0x6a8(%rbp),%rax
    821a:	8b 00                	mov    (%rax),%eax
    821c:	39 c2                	cmp    %eax,%edx
    821e:	0f 9c c0             	setl   %al
    8221:	0f b6 d0             	movzbl %al,%edx
    8224:	8b 05 b2 8e 00 00    	mov    0x8eb2(%rip),%eax        # 110dc <g_139>
    822a:	39 c2                	cmp    %eax,%edx
    822c:	0f 95 c0             	setne  %al
    822f:	0f b6 d0             	movzbl %al,%edx
    8232:	80 bd 64 f9 ff ff 00 	cmpb   $0x0,-0x69c(%rbp)
    8239:	75 09                	jne    8244 <func_6+0x625>
    823b:	80 bd 64 f9 ff ff 00 	cmpb   $0x0,-0x69c(%rbp)
    8242:	74 07                	je     824b <func_6+0x62c>
    8244:	b8 01 00 00 00       	mov    $0x1,%eax
    8249:	eb 05                	jmp    8250 <func_6+0x631>
    824b:	b8 00 00 00 00       	mov    $0x0,%eax
    8250:	0f b6 c0             	movzbl %al,%eax
    8253:	89 d6                	mov    %edx,%esi
    8255:	89 c7                	mov    %eax,%edi
    8257:	e8 37 d9 ff ff       	callq  5b93 <safe_mul_func_uint8_t_u_u>
    825c:	0f b6 85 64 f9 ff ff 	movzbl -0x69c(%rbp),%eax
    8263:	89 85 a8 f9 ff ff    	mov    %eax,-0x658(%rbp)
    8269:	48 8b 85 58 f9 ff ff 	mov    -0x6a8(%rbp),%rax
    8270:	8b 00                	mov    (%rax),%eax
    8272:	85 c0                	test   %eax,%eax
    8274:	75 3c                	jne    82b2 <func_6+0x693>
    8276:	0f b6 05 33 90 00 00 	movzbl 0x9033(%rip),%eax        # 112b0 <g_1257>
    827d:	83 e8 01             	sub    $0x1,%eax
    8280:	88 05 2a 90 00 00    	mov    %al,0x902a(%rip)        # 112b0 <g_1257>
    8286:	48 8b 85 10 fa ff ff 	mov    -0x5f0(%rbp),%rax
    828d:	c7 00 2a 00 00 00    	movl   $0x2a,(%rax)
    8293:	8b 05 13 90 00 00    	mov    0x9013(%rip),%eax        # 112ac <g_1232>
    8299:	83 e8 01             	sub    $0x1,%eax
    829c:	89 05 0a 90 00 00    	mov    %eax,0x900a(%rip)        # 112ac <g_1232>
    82a2:	8b 05 04 90 00 00    	mov    0x9004(%rip),%eax        # 112ac <g_1232>
    82a8:	85 c0                	test   %eax,%eax
    82aa:	0f 89 e5 fe ff ff    	jns    8195 <func_6+0x576>
    82b0:	eb 01                	jmp    82b3 <func_6+0x694>
    82b2:	90                   	nop
    82b3:	48 8b 85 68 f9 ff ff 	mov    -0x698(%rbp),%rax
    82ba:	98                   	cwtl   
    82bb:	83 e0 01             	and    $0x1,%eax
    82be:	89 c2                	mov    %eax,%edx
    82c0:	8b 85 88 f9 ff ff    	mov    -0x678(%rbp),%eax
    82c6:	98                   	cwtl   
    82c7:	89 d6                	mov    %edx,%esi
    82c9:	89 c7                	mov    %eax,%edi
    82cb:	e8 46 d1 ff ff       	callq  5416 <safe_mod_func_int16_t_s_s>
    82d0:	0f bf d0             	movswl %ax,%edx
    82d3:	48 8b 85 10 fa ff ff 	mov    -0x5f0(%rbp),%rax
    82da:	89 10                	mov    %edx,(%rax)
    82dc:	48 83 85 68 f9 ff ff 	addq   $0x1,-0x698(%rbp)
    82e3:	01 
    82e4:	48 83 bd 68 f9 ff ff 	cmpq   $0x5,-0x698(%rbp)
    82eb:	05 
    82ec:	0f 8e 8a fe ff ff    	jle    817c <func_6+0x55d>
    82f2:	83 85 88 f9 ff ff 01 	addl   $0x1,-0x678(%rbp)
    82f9:	83 bd 88 f9 ff ff 05 	cmpl   $0x5,-0x678(%rbp)
    8300:	0f 8e f2 fd ff ff    	jle    80f8 <func_6+0x4d9>
    8306:	eb 01                	jmp    8309 <func_6+0x6ea>
    8308:	90                   	nop
    8309:	8b 05 69 b1 00 00    	mov    0xb169(%rip),%eax        # 13478 <g_507>
    830f:	83 c0 01             	add    $0x1,%eax
    8312:	89 05 60 b1 00 00    	mov    %eax,0xb160(%rip)        # 13478 <g_507>
    8318:	8b 05 5a b1 00 00    	mov    0xb15a(%rip),%eax        # 13478 <g_507>
    831e:	83 f8 07             	cmp    $0x7,%eax
    8321:	0f 86 bf fc ff ff    	jbe    7fe6 <func_6+0x3c7>
    8327:	be 04 00 00 00       	mov    $0x4,%esi
    832c:	bf 00 00 00 00       	mov    $0x0,%edi
    8331:	e8 57 d9 ff ff       	callq  5c8d <safe_rshift_func_uint8_t_u_s>
    8336:	8b 05 e8 8c 00 00    	mov    0x8ce8(%rip),%eax        # 11024 <g_2>
    833c:	ba 01 00 00 00       	mov    $0x1,%edx
    8341:	8b 05 1d 8f 00 00    	mov    0x8f1d(%rip),%eax        # 11264 <g_324+0x24>
    8347:	09 d0                	or     %edx,%eax
    8349:	89 05 15 8f 00 00    	mov    %eax,0x8f15(%rip)        # 11264 <g_324+0x24>
    834f:	48 8b 05 4a 9c 00 00 	mov    0x9c4a(%rip),%rax        # 11fa0 <g_1163>
    8356:	8b 08                	mov    (%rax),%ecx
    8358:	48 8b 95 58 f9 ff ff 	mov    -0x6a8(%rbp),%rdx
    835f:	8b 12                	mov    (%rdx),%edx
    8361:	09 ca                	or     %ecx,%edx
    8363:	89 10                	mov    %edx,(%rax)
    8365:	48 8b 05 9c 9b 00 00 	mov    0x9b9c(%rip),%rax        # 11f08 <g_455>
    836c:	48 8b 00             	mov    (%rax),%rax
    836f:	0f b7 00             	movzwl (%rax),%eax
    8372:	0f bf d8             	movswl %ax,%ebx
    8375:	48 83 bd f0 f9 ff ff 	cmpq   $0x0,-0x610(%rbp)
    837c:	00 
    837d:	0f 95 c0             	setne  %al
    8380:	0f b6 d0             	movzbl %al,%edx
    8383:	0f b6 85 64 f9 ff ff 	movzbl -0x69c(%rbp),%eax
    838a:	0f be c0             	movsbl %al,%eax
    838d:	89 d6                	mov    %edx,%esi
    838f:	89 c7                	mov    %eax,%edi
    8391:	e8 7c ce ff ff       	callq  5212 <safe_mul_func_int8_t_s_s>
    8396:	84 c0                	test   %al,%al
    8398:	74 55                	je     83ef <func_6+0x7d0>
    839a:	80 bd 64 f9 ff ff 00 	cmpb   $0x0,-0x69c(%rbp)
    83a1:	74 2b                	je     83ce <func_6+0x7af>
    83a3:	8b 05 03 8f 00 00    	mov    0x8f03(%rip),%eax        # 112ac <g_1232>
    83a9:	85 c0                	test   %eax,%eax
    83ab:	0f 95 c0             	setne  %al
    83ae:	0f b6 d0             	movzbl %al,%edx
    83b1:	0f b7 05 46 8e 00 00 	movzwl 0x8e46(%rip),%eax        # 111fe <g_286>
    83b8:	98                   	cwtl   
    83b9:	39 c2                	cmp    %eax,%edx
    83bb:	7d 0a                	jge    83c7 <func_6+0x7a8>
    83bd:	48 83 bd 68 f9 ff ff 	cmpq   $0x0,-0x698(%rbp)
    83c4:	00 
    83c5:	74 07                	je     83ce <func_6+0x7af>
    83c7:	ba 01 00 00 00       	mov    $0x1,%edx
    83cc:	eb 05                	jmp    83d3 <func_6+0x7b4>
    83ce:	ba 00 00 00 00       	mov    $0x0,%edx
    83d3:	48 8b 05 d6 9a 00 00 	mov    0x9ad6(%rip),%rax        # 11eb0 <g_194>
    83da:	48 63 d2             	movslq %edx,%rdx
    83dd:	48 89 10             	mov    %rdx,(%rax)
    83e0:	48 8b 00             	mov    (%rax),%rax
    83e3:	48 85 c0             	test   %rax,%rax
    83e6:	74 07                	je     83ef <func_6+0x7d0>
    83e8:	b8 01 00 00 00       	mov    $0x1,%eax
    83ed:	eb 05                	jmp    83f4 <func_6+0x7d5>
    83ef:	b8 00 00 00 00       	mov    $0x0,%eax
    83f4:	0f bf d0             	movswl %ax,%edx
    83f7:	83 a5 8c f9 ff ff 01 	andl   $0x1,-0x674(%rbp)
    83fe:	8b 85 8c f9 ff ff    	mov    -0x674(%rbp),%eax
    8404:	98                   	cwtl   
    8405:	89 d6                	mov    %edx,%esi
    8407:	89 c7                	mov    %eax,%edi
    8409:	e8 47 d0 ff ff       	callq  5455 <safe_div_func_int16_t_s_s>
    840e:	8b 95 80 f9 ff ff    	mov    -0x680(%rbp),%edx
    8414:	48 8b 85 f8 f9 ff ff 	mov    -0x608(%rbp),%rax
    841b:	0f b6 00             	movzbl (%rax),%eax
    841e:	31 c2                	xor    %eax,%edx
    8420:	48 8b 85 f8 f9 ff ff 	mov    -0x608(%rbp),%rax
    8427:	88 10                	mov    %dl,(%rax)
    8429:	48 8b 85 f8 f9 ff ff 	mov    -0x608(%rbp),%rax
    8430:	0f b6 00             	movzbl (%rax),%eax
    8433:	84 c0                	test   %al,%al
    8435:	75 0c                	jne    8443 <func_6+0x824>
    8437:	48 8b 05 9a 9a 00 00 	mov    0x9a9a(%rip),%rax        # 11ed8 <g_390>
    843e:	0f b6 00             	movzbl (%rax),%eax
    8441:	84 c0                	test   %al,%al
    8443:	48 8d 05 b6 9a 00 00 	lea    0x9ab6(%rip),%rax        # 11f00 <g_456>
    844a:	48 39 85 00 fa ff ff 	cmp    %rax,-0x600(%rbp)
    8451:	75 09                	jne    845c <func_6+0x83d>
    8453:	83 bd a4 f9 ff ff 00 	cmpl   $0x0,-0x65c(%rbp)
    845a:	74 07                	je     8463 <func_6+0x844>
    845c:	b8 01 00 00 00       	mov    $0x1,%eax
    8461:	eb 05                	jmp    8468 <func_6+0x849>
    8463:	b8 00 00 00 00       	mov    $0x0,%eax
    8468:	98                   	cwtl   
    8469:	89 de                	mov    %ebx,%esi
    846b:	89 c7                	mov    %eax,%edi
    846d:	e8 61 cf ff ff       	callq  53d3 <safe_sub_func_int16_t_s_s>
    8472:	89 c2                	mov    %eax,%edx
    8474:	48 8b 05 e5 9a 00 00 	mov    0x9ae5(%rip),%rax        # 11f60 <g_554>
    847b:	0f bf d2             	movswl %dx,%edx
    847e:	89 10                	mov    %edx,(%rax)
    8480:	8b 05 1e 8e 00 00    	mov    0x8e1e(%rip),%eax        # 112a4 <g_1033>
    8486:	0f be c0             	movsbl %al,%eax
    8489:	be 02 00 00 00       	mov    $0x2,%esi
    848e:	89 c7                	mov    %eax,%edi
    8490:	e8 5d cd ff ff       	callq  51f2 <safe_sub_func_int8_t_s_s>
    8495:	0f be c0             	movsbl %al,%eax
    8498:	89 05 06 8e 00 00    	mov    %eax,0x8e06(%rip)        # 112a4 <g_1033>
    849e:	8b 05 00 8e 00 00    	mov    0x8e00(%rip),%eax        # 112a4 <g_1033>
    84a4:	83 f8 f9             	cmp    $0xfffffff9,%eax
    84a7:	0f 85 86 f8 ff ff    	jne    7d33 <func_6+0x114>
    84ad:	48 8b 85 e0 f9 ff ff 	mov    -0x620(%rbp),%rax
    84b4:	48 8b 5d e8          	mov    -0x18(%rbp),%rbx
    84b8:	64 48 33 1c 25 28 00 	xor    %fs:0x28,%rbx
    84bf:	00 00 
    84c1:	74 05                	je     84c8 <func_6+0x8a9>
    84c3:	e8 a8 cb ff ff       	callq  5070 <__stack_chk_fail@plt>
    84c8:	48 81 c4 a8 06 00 00 	add    $0x6a8,%rsp
    84cf:	5b                   	pop    %rbx
    84d0:	5d                   	pop    %rbp
    84d1:	c3                   	retq   

00000000000084d2 <func_14>:
    84d2:	f3 0f 1e fa          	endbr64 
    84d6:	55                   	push   %rbp
    84d7:	48 89 e5             	mov    %rsp,%rbp
    84da:	41 54                	push   %r12
    84dc:	53                   	push   %rbx
    84dd:	48 81 ec a0 0a 00 00 	sub    $0xaa0,%rsp
    84e4:	48 89 b5 60 f5 ff ff 	mov    %rsi,-0xaa0(%rbp)
    84eb:	89 d0                	mov    %edx,%eax
    84ed:	89 ca                	mov    %ecx,%edx
    84ef:	89 f9                	mov    %edi,%ecx
    84f1:	66 89 8d 6c f5 ff ff 	mov    %cx,-0xa94(%rbp)
    84f8:	66 89 85 68 f5 ff ff 	mov    %ax,-0xa98(%rbp)
    84ff:	89 d0                	mov    %edx,%eax
    8501:	88 85 5c f5 ff ff    	mov    %al,-0xaa4(%rbp)
    8507:	64 48 8b 04 25 28 00 	mov    %fs:0x28,%rax
    850e:	00 00 
    8510:	48 89 45 e8          	mov    %rax,-0x18(%rbp)
    8514:	31 c0                	xor    %eax,%eax
    8516:	48 8d 85 80 fc ff ff 	lea    -0x380(%rbp),%rax
    851d:	48 8d 15 3c 8f 00 00 	lea    0x8f3c(%rip),%rdx        # 11460 <g_1757+0xc>
    8524:	b9 6c 00 00 00       	mov    $0x6c,%ecx
    8529:	48 89 c7             	mov    %rax,%rdi
    852c:	48 89 d6             	mov    %rdx,%rsi
    852f:	f3 48 a5             	rep movsq %ds:(%rsi),%es:(%rdi)
    8532:	48 c7 85 b0 f5 ff ff 	movq   $0x0,-0xa50(%rbp)
    8539:	00 00 00 00 
    853d:	48 8d 85 b0 f5 ff ff 	lea    -0xa50(%rbp),%rax
    8544:	48 89 85 d8 f5 ff ff 	mov    %rax,-0xa28(%rbp)
    854b:	c7 85 78 f5 ff ff 07 	movl   $0x7,-0xa88(%rbp)
    8552:	00 00 00 
    8555:	48 8d 05 44 af 00 00 	lea    0xaf44(%rip),%rax        # 134a0 <g_650>
    855c:	48 89 85 b8 f5 ff ff 	mov    %rax,-0xa48(%rbp)
    8563:	48 8d 85 b8 f5 ff ff 	lea    -0xa48(%rbp),%rax
    856a:	48 89 85 c0 f5 ff ff 	mov    %rax,-0xa40(%rbp)
    8571:	48 8d 85 30 f8 ff ff 	lea    -0x7d0(%rbp),%rax
    8578:	48 8d 15 c1 51 00 00 	lea    0x51c1(%rip),%rdx        # d740 <g_657+0x6e0>
    857f:	b9 1f 00 00 00       	mov    $0x1f,%ecx
    8584:	48 89 c7             	mov    %rax,%rdi
    8587:	48 89 d6             	mov    %rdx,%rsi
    858a:	f3 48 a5             	rep movsq %ds:(%rsi),%es:(%rdi)
    858d:	48 89 f2             	mov    %rsi,%rdx
    8590:	48 89 f8             	mov    %rdi,%rax
    8593:	8b 0a                	mov    (%rdx),%ecx
    8595:	89 08                	mov    %ecx,(%rax)
    8597:	48 8d 40 04          	lea    0x4(%rax),%rax
    859b:	48 8d 52 04          	lea    0x4(%rdx),%rdx
    859f:	c7 85 88 f5 ff ff 15 	movl   $0x519dac15,-0xa78(%rbp)
    85a6:	ac 9d 51 
    85a9:	c7 85 8c f5 ff ff e1 	movl   $0xf03f57e1,-0xa74(%rbp)
    85b0:	57 3f f0 
    85b3:	c7 85 90 f5 ff ff ff 	movl   $0xffffffff,-0xa70(%rbp)
    85ba:	ff ff ff 
    85bd:	c7 85 94 f5 ff ff fb 	movl   $0xfffffffb,-0xa6c(%rbp)
    85c4:	ff ff ff 
    85c7:	c7 85 98 f5 ff ff ff 	movl   $0xffffffff,-0xa68(%rbp)
    85ce:	ff ff ff 
    85d1:	c7 85 b0 f7 ff ff 2b 	movl   $0xb4dd12b,-0x850(%rbp)
    85d8:	d1 4d 0b 
    85db:	c7 85 b4 f7 ff ff ee 	movl   $0x31ff9aee,-0x84c(%rbp)
    85e2:	9a ff 31 
    85e5:	c7 85 b8 f7 ff ff ee 	movl   $0x31ff9aee,-0x848(%rbp)
    85ec:	9a ff 31 
    85ef:	c7 85 bc f7 ff ff 2b 	movl   $0xb4dd12b,-0x844(%rbp)
    85f6:	d1 4d 0b 
    85f9:	c7 85 c0 f7 ff ff b3 	movl   $0x175bbeb3,-0x840(%rbp)
    8600:	be 5b 17 
    8603:	c7 85 c4 f7 ff ff 2b 	movl   $0xb4dd12b,-0x83c(%rbp)
    860a:	d1 4d 0b 
    860d:	c7 85 c8 f7 ff ff ee 	movl   $0x31ff9aee,-0x838(%rbp)
    8614:	9a ff 31 
    8617:	c7 85 cc f7 ff ff ee 	movl   $0x31ff9aee,-0x834(%rbp)
    861e:	9a ff 31 
    8621:	c7 85 d0 f7 ff ff ee 	movl   $0x31ff9aee,-0x830(%rbp)
    8628:	9a ff 31 
    862b:	c7 85 d4 f7 ff ff b3 	movl   $0x175bbeb3,-0x82c(%rbp)
    8632:	be 5b 17 
    8635:	c7 85 d8 f7 ff ff ff 	movl   $0xffffffff,-0x828(%rbp)
    863c:	ff ff ff 
    863f:	c7 85 dc f7 ff ff ff 	movl   $0xffffffff,-0x824(%rbp)
    8646:	ff ff ff 
    8649:	c7 85 e0 f7 ff ff b3 	movl   $0x175bbeb3,-0x820(%rbp)
    8650:	be 5b 17 
    8653:	c7 85 e4 f7 ff ff ee 	movl   $0x31ff9aee,-0x81c(%rbp)
    865a:	9a ff 31 
    865d:	c7 85 e8 f7 ff ff b3 	movl   $0x175bbeb3,-0x818(%rbp)
    8664:	be 5b 17 
    8667:	c7 85 ec f7 ff ff ff 	movl   $0xffffffff,-0x814(%rbp)
    866e:	ff ff ff 
    8671:	c7 85 f0 f7 ff ff 2b 	movl   $0xb4dd12b,-0x810(%rbp)
    8678:	d1 4d 0b 
    867b:	c7 85 f4 f7 ff ff b3 	movl   $0x175bbeb3,-0x80c(%rbp)
    8682:	be 5b 17 
    8685:	c7 85 f8 f7 ff ff 2b 	movl   $0xb4dd12b,-0x808(%rbp)
    868c:	d1 4d 0b 
    868f:	c7 85 fc f7 ff ff ee 	movl   $0x31ff9aee,-0x804(%rbp)
    8696:	9a ff 31 
    8699:	c7 85 00 f8 ff ff ee 	movl   $0x31ff9aee,-0x800(%rbp)
    86a0:	9a ff 31 
    86a3:	c7 85 04 f8 ff ff 2b 	movl   $0xb4dd12b,-0x7fc(%rbp)
    86aa:	d1 4d 0b 
    86ad:	c7 85 08 f8 ff ff b3 	movl   $0x175bbeb3,-0x7f8(%rbp)
    86b4:	be 5b 17 
    86b7:	c7 85 0c f8 ff ff 2b 	movl   $0xb4dd12b,-0x7f4(%rbp)
    86be:	d1 4d 0b 
    86c1:	c7 85 10 f8 ff ff 00 	movl   $0x0,-0x7f0(%rbp)
    86c8:	00 00 00 
    86cb:	c7 85 14 f8 ff ff ee 	movl   $0x31ff9aee,-0x7ec(%rbp)
    86d2:	9a ff 31 
    86d5:	c7 85 18 f8 ff ff ff 	movl   $0xffffffff,-0x7e8(%rbp)
    86dc:	ff ff ff 
    86df:	c7 85 1c f8 ff ff ee 	movl   $0x31ff9aee,-0x7e4(%rbp)
    86e6:	9a ff 31 
    86e9:	c7 85 20 f8 ff ff 00 	movl   $0x0,-0x7e0(%rbp)
    86f0:	00 00 00 
    86f3:	c7 85 24 f8 ff ff 00 	movl   $0x0,-0x7dc(%rbp)
    86fa:	00 00 00 
    86fd:	c7 85 28 f8 ff ff ee 	movl   $0x31ff9aee,-0x7d8(%rbp)
    8704:	9a ff 31 
    8707:	c7 85 2c f8 ff ff ff 	movl   $0xffffffff,-0x7d4(%rbp)
    870e:	ff ff ff 
    8711:	c7 85 40 f7 ff ff c0 	movl   $0x682f94c0,-0x8c0(%rbp)
    8718:	94 2f 68 
    871b:	c7 85 44 f7 ff ff 07 	movl   $0x7,-0x8bc(%rbp)
    8722:	00 00 00 
    8725:	c7 85 48 f7 ff ff c0 	movl   $0x682f94c0,-0x8b8(%rbp)
    872c:	94 2f 68 
    872f:	c7 85 4c f7 ff ff c0 	movl   $0x682f94c0,-0x8b4(%rbp)
    8736:	94 2f 68 
    8739:	c7 85 50 f7 ff ff 07 	movl   $0x7,-0x8b0(%rbp)
    8740:	00 00 00 
    8743:	c7 85 54 f7 ff ff 07 	movl   $0x7,-0x8ac(%rbp)
    874a:	00 00 00 
    874d:	c7 85 58 f7 ff ff c0 	movl   $0x682f94c0,-0x8a8(%rbp)
    8754:	94 2f 68 
    8757:	c7 85 5c f7 ff ff c0 	movl   $0x682f94c0,-0x8a4(%rbp)
    875e:	94 2f 68 
    8761:	c7 85 60 f7 ff ff 07 	movl   $0x7,-0x8a0(%rbp)
    8768:	00 00 00 
    876b:	c7 85 64 f7 ff ff c0 	movl   $0x682f94c0,-0x89c(%rbp)
    8772:	94 2f 68 
    8775:	c7 85 68 f7 ff ff 07 	movl   $0x7,-0x898(%rbp)
    877c:	00 00 00 
    877f:	c7 85 6c f7 ff ff 07 	movl   $0x7,-0x894(%rbp)
    8786:	00 00 00 
    8789:	c7 85 70 f7 ff ff 1f 	movl   $0x101c8e1f,-0x890(%rbp)
    8790:	8e 1c 10 
    8793:	c7 85 74 f7 ff ff 07 	movl   $0x7,-0x88c(%rbp)
    879a:	00 00 00 
    879d:	c7 85 78 f7 ff ff 07 	movl   $0x7,-0x888(%rbp)
    87a4:	00 00 00 
    87a7:	c7 85 7c f7 ff ff c0 	movl   $0x682f94c0,-0x884(%rbp)
    87ae:	94 2f 68 
    87b1:	c7 85 80 f7 ff ff 07 	movl   $0x7,-0x880(%rbp)
    87b8:	00 00 00 
    87bb:	c7 85 84 f7 ff ff c0 	movl   $0x682f94c0,-0x87c(%rbp)
    87c2:	94 2f 68 
    87c5:	c7 85 88 f7 ff ff c0 	movl   $0x682f94c0,-0x878(%rbp)
    87cc:	94 2f 68 
    87cf:	c7 85 8c f7 ff ff 07 	movl   $0x7,-0x874(%rbp)
    87d6:	00 00 00 
    87d9:	c7 85 90 f7 ff ff 07 	movl   $0x7,-0x870(%rbp)
    87e0:	00 00 00 
    87e3:	c7 85 94 f7 ff ff c0 	movl   $0x682f94c0,-0x86c(%rbp)
    87ea:	94 2f 68 
    87ed:	c7 85 98 f7 ff ff c0 	movl   $0x682f94c0,-0x868(%rbp)
    87f4:	94 2f 68 
    87f7:	c7 85 9c f7 ff ff 07 	movl   $0x7,-0x864(%rbp)
    87fe:	00 00 00 
    8801:	c7 85 a0 f7 ff ff c0 	movl   $0x682f94c0,-0x860(%rbp)
    8808:	94 2f 68 
    880b:	48 8d 05 ec 89 00 00 	lea    0x89ec(%rip),%rax        # 111fe <g_286>
    8812:	48 89 85 e0 f5 ff ff 	mov    %rax,-0xa20(%rbp)
    8819:	48 c7 85 e8 f5 ff ff 	movq   $0x0,-0xa18(%rbp)
    8820:	00 00 00 00 
    8824:	48 8d 05 cd 89 00 00 	lea    0x89cd(%rip),%rax        # 111f8 <g_196>
    882b:	48 89 85 f0 f5 ff ff 	mov    %rax,-0xa10(%rbp)
    8832:	48 8d 05 bb 89 00 00 	lea    0x89bb(%rip),%rax        # 111f4 <g_190+0x4>
    8839:	48 89 85 f8 f5 ff ff 	mov    %rax,-0xa08(%rbp)
    8840:	48 c7 85 00 f6 ff ff 	movq   $0x0,-0xa00(%rbp)
    8847:	00 00 00 00 
    884b:	48 8d 05 56 8a 00 00 	lea    0x8a56(%rip),%rax        # 112a8 <g_1109>
    8852:	48 89 85 08 f6 ff ff 	mov    %rax,-0x9f8(%rbp)
    8859:	c7 85 7c f5 ff ff 00 	movl   $0x0,-0xa84(%rbp)
    8860:	00 00 00 
    8863:	eb 1a                	jmp    887f <func_14+0x3ad>
    8865:	8b 85 7c f5 ff ff    	mov    -0xa84(%rbp),%eax
    886b:	48 98                	cltq   
    886d:	c7 84 85 44 f6 ff ff 	movl   $0xb9427dbc,-0x9bc(%rbp,%rax,4)
    8874:	bc 7d 42 b9 
    8878:	83 85 7c f5 ff ff 01 	addl   $0x1,-0xa84(%rbp)
    887f:	83 bd 7c f5 ff ff 02 	cmpl   $0x2,-0xa84(%rbp)
    8886:	7e dd                	jle    8865 <func_14+0x393>
    8888:	66 c7 85 6c f5 ff ff 	movw   $0x0,-0xa94(%rbp)
    888f:	00 00 
    8891:	e9 5f 06 00 00       	jmpq   8ef5 <func_14+0xa23>
    8896:	66 c7 85 76 f5 ff ff 	movw   $0x7962,-0xa8a(%rbp)
    889d:	62 79 
    889f:	c7 85 9c f5 ff ff 01 	movl   $0x6c184a01,-0xa64(%rbp)
    88a6:	4a 18 6c 
    88a9:	c7 85 a0 f5 ff ff 72 	movl   $0x4d1e272,-0xa60(%rbp)
    88b0:	e2 d1 04 
    88b3:	48 c7 85 10 f6 ff ff 	movq   $0x0,-0x9f0(%rbp)
    88ba:	00 00 00 00 
    88be:	c7 85 a4 f5 ff ff c6 	movl   $0x9c97cec6,-0xa5c(%rbp)
    88c5:	ce 97 9c 
    88c8:	c7 85 50 f6 ff ff 04 	movl   $0x4,-0x9b0(%rbp)
    88cf:	00 00 00 
    88d2:	c7 85 54 f6 ff ff fc 	movl   $0xfffffffc,-0x9ac(%rbp)
    88d9:	ff ff ff 
    88dc:	c7 85 58 f6 ff ff 04 	movl   $0x4,-0x9a8(%rbp)
    88e3:	00 00 00 
    88e6:	c7 85 5c f6 ff ff fc 	movl   $0xfffffffc,-0x9a4(%rbp)
    88ed:	ff ff ff 
    88f0:	c7 85 60 f6 ff ff 04 	movl   $0x4,-0x9a0(%rbp)
    88f7:	00 00 00 
    88fa:	c7 85 a8 f5 ff ff 05 	movl   $0x5,-0xa58(%rbp)
    8901:	00 00 00 
    8904:	66 c7 85 68 f5 ff ff 	movw   $0x0,-0xa98(%rbp)
    890b:	00 00 
    890d:	eb 43                	jmp    8952 <func_14+0x480>
    890f:	0f b7 85 68 f5 ff ff 	movzwl -0xa98(%rbp),%eax
    8916:	8d 50 03             	lea    0x3(%rax),%edx
    8919:	0f b7 85 6c f5 ff ff 	movzwl -0xa94(%rbp),%eax
    8920:	48 98                	cltq   
    8922:	48 63 d2             	movslq %edx,%rdx
    8925:	48 01 d2             	add    %rdx,%rdx
    8928:	48 01 d0             	add    %rdx,%rax
    892b:	48 8d 14 85 00 00 00 	lea    0x0(,%rax,4),%rdx
    8932:	00 
    8933:	48 8d 05 06 89 00 00 	lea    0x8906(%rip),%rax        # 11240 <g_324>
    893a:	8b 04 02             	mov    (%rdx,%rax,1),%eax
    893d:	85 c0                	test   %eax,%eax
    893f:	75 1d                	jne    895e <func_14+0x48c>
    8941:	66 c7 85 76 f5 ff ff 	movw   $0x1,-0xa8a(%rbp)
    8948:	01 00 
    894a:	66 83 85 68 f5 ff ff 	addw   $0x1,-0xa98(%rbp)
    8951:	01 
    8952:	66 83 bd 68 f5 ff ff 	cmpw   $0x1,-0xa98(%rbp)
    8959:	01 
    895a:	76 b3                	jbe    890f <func_14+0x43d>
    895c:	eb 01                	jmp    895f <func_14+0x48d>
    895e:	90                   	nop
    895f:	be 00 00 00 00       	mov    $0x0,%esi
    8964:	bf f8 00 00 00       	mov    $0xf8,%edi
    8969:	e8 de d2 ff ff       	callq  5c4c <safe_lshift_func_uint8_t_u_u>
    896e:	84 c0                	test   %al,%al
    8970:	0f 84 2b 05 00 00    	je     8ea1 <func_14+0x9cf>
    8976:	48 b8 03 05 03 29 05 	movabs $0x5f6f60529030503,%rax
    897d:	f6 f6 05 
    8980:	48 89 85 a0 f6 ff ff 	mov    %rax,-0x960(%rbp)
    8987:	48 b8 05 99 99 f6 ff 	movabs $0xf600fff6999905,%rax
    898e:	00 f6 00 
    8991:	48 89 85 a8 f6 ff ff 	mov    %rax,-0x958(%rbp)
    8998:	48 b8 f6 29 f6 29 f6 	movabs $0x303f6f629f629f6,%rax
    899f:	f6 03 03 
    89a2:	48 89 85 b0 f6 ff ff 	mov    %rax,-0x950(%rbp)
    89a9:	48 b8 00 29 ff ff 29 	movabs $0x29990029ffff2900,%rax
    89b0:	00 99 29 
    89b3:	48 89 85 b8 f6 ff ff 	mov    %rax,-0x948(%rbp)
    89ba:	48 b8 03 99 ff 03 ff 	movabs $0x399ff03ff9903,%rax
    89c1:	99 03 00 
    89c4:	48 89 85 c0 f6 ff ff 	mov    %rax,-0x940(%rbp)
    89cb:	48 b8 29 f6 f6 03 03 	movabs $0x29f6f60303f6f629,%rax
    89d2:	f6 f6 29 
    89d5:	48 89 85 c8 f6 ff ff 	mov    %rax,-0x938(%rbp)
    89dc:	48 b8 00 03 99 ff 03 	movabs $0x399ff03ff990300,%rax
    89e3:	ff 99 03 
    89e6:	48 89 85 d0 f6 ff ff 	mov    %rax,-0x930(%rbp)
    89ed:	48 b8 29 99 00 29 ff 	movabs $0x29ffff29009929,%rax
    89f4:	ff 29 00 
    89f7:	48 89 85 d8 f6 ff ff 	mov    %rax,-0x928(%rbp)
    89fe:	48 b8 03 03 f6 f6 29 	movabs $0xf629f629f6f60303,%rax
    8a05:	f6 29 f6 
    8a08:	48 89 85 e0 f6 ff ff 	mov    %rax,-0x920(%rbp)
    8a0f:	48 b8 00 f6 00 ff f6 	movabs $0xf69999f6ff00f600,%rax
    8a16:	99 99 f6 
    8a19:	48 89 85 e8 f6 ff ff 	mov    %rax,-0x918(%rbp)
    8a20:	c6 85 75 f5 ff ff 00 	movb   $0x0,-0xa8b(%rbp)
    8a27:	48 8d 85 78 f5 ff ff 	lea    -0xa88(%rbp),%rax
    8a2e:	48 89 85 18 f6 ff ff 	mov    %rax,-0x9e8(%rbp)
    8a35:	c7 05 ed 85 00 00 00 	movl   $0x0,0x85ed(%rip)        # 1102c <g_26>
    8a3c:	00 00 00 
    8a3f:	90                   	nop
    8a40:	8b 05 e6 85 00 00    	mov    0x85e6(%rip),%eax        # 1102c <g_26>
    8a46:	83 f8 01             	cmp    $0x1,%eax
    8a49:	0f 8f 3e 04 00 00    	jg     8e8d <func_14+0x9bb>
    8a4f:	48 8d 85 30 f9 ff ff 	lea    -0x6d0(%rbp),%rax
    8a56:	48 8d 15 63 8d 00 00 	lea    0x8d63(%rip),%rdx        # 117c0 <g_1757+0x36c>
    8a5d:	b9 2a 00 00 00       	mov    $0x2a,%ecx
    8a62:	48 89 c7             	mov    %rax,%rdi
    8a65:	48 89 d6             	mov    %rdx,%rsi
    8a68:	f3 48 a5             	rep movsq %ds:(%rsi),%es:(%rdi)
    8a6b:	48 8d 05 e2 87 00 00 	lea    0x87e2(%rip),%rax        # 11254 <g_324+0x14>
    8a72:	48 89 85 20 f6 ff ff 	mov    %rax,-0x9e0(%rbp)
    8a79:	8b 05 ad 85 00 00    	mov    0x85ad(%rip),%eax        # 1102c <g_26>
    8a7f:	83 f0 01             	xor    $0x1,%eax
    8a82:	89 85 9c f5 ff ff    	mov    %eax,-0xa64(%rbp)
    8a88:	0f b7 95 6c f5 ff ff 	movzwl -0xa94(%rbp),%edx
    8a8f:	8b 05 43 86 00 00    	mov    0x8643(%rip),%eax        # 110d8 <g_126>
    8a95:	31 d0                	xor    %edx,%eax
    8a97:	39 85 9c f5 ff ff    	cmp    %eax,-0xa64(%rbp)
    8a9d:	0f 9e c0             	setle  %al
    8aa0:	0f b6 c0             	movzbl %al,%eax
    8aa3:	89 85 a0 f5 ff ff    	mov    %eax,-0xa60(%rbp)
    8aa9:	83 bd a0 f5 ff ff 01 	cmpl   $0x1,-0xa60(%rbp)
    8ab0:	0f 84 ab 02 00 00    	je     8d61 <func_14+0x88f>
    8ab6:	48 8d 05 e3 87 00 00 	lea    0x87e3(%rip),%rax        # 112a0 <g_1032>
    8abd:	48 89 85 70 f6 ff ff 	mov    %rax,-0x990(%rbp)
    8ac4:	48 8d 05 d5 87 00 00 	lea    0x87d5(%rip),%rax        # 112a0 <g_1032>
    8acb:	48 89 85 78 f6 ff ff 	mov    %rax,-0x988(%rbp)
    8ad2:	48 8d 05 c7 87 00 00 	lea    0x87c7(%rip),%rax        # 112a0 <g_1032>
    8ad9:	48 89 85 80 f6 ff ff 	mov    %rax,-0x980(%rbp)
    8ae0:	48 8d 05 b9 87 00 00 	lea    0x87b9(%rip),%rax        # 112a0 <g_1032>
    8ae7:	48 89 85 88 f6 ff ff 	mov    %rax,-0x978(%rbp)
    8aee:	48 8d 05 ab 87 00 00 	lea    0x87ab(%rip),%rax        # 112a0 <g_1032>
    8af5:	48 89 85 90 f6 ff ff 	mov    %rax,-0x970(%rbp)
    8afc:	48 8d 85 70 f6 ff ff 	lea    -0x990(%rbp),%rax
    8b03:	48 83 c0 10          	add    $0x10,%rax
    8b07:	48 89 85 c8 f5 ff ff 	mov    %rax,-0xa38(%rbp)
    8b0e:	48 8d 85 c8 f5 ff ff 	lea    -0xa38(%rbp),%rax
    8b15:	48 89 85 d0 f5 ff ff 	mov    %rax,-0xa30(%rbp)
    8b1c:	48 8d 85 d0 f5 ff ff 	lea    -0xa30(%rbp),%rax
    8b23:	48 89 85 30 f6 ff ff 	mov    %rax,-0x9d0(%rbp)
    8b2a:	48 8d 85 80 fa ff ff 	lea    -0x580(%rbp),%rax
    8b31:	48 8d 15 e8 8d 00 00 	lea    0x8de8(%rip),%rdx        # 11920 <g_1757+0x4cc>
    8b38:	b9 40 00 00 00       	mov    $0x40,%ecx
    8b3d:	48 89 c7             	mov    %rax,%rdi
    8b40:	48 89 d6             	mov    %rdx,%rsi
    8b43:	f3 48 a5             	rep movsq %ds:(%rsi),%es:(%rdi)
    8b46:	48 8d 05 a7 86 00 00 	lea    0x86a7(%rip),%rax        # 111f4 <g_190+0x4>
    8b4d:	48 89 85 38 f6 ff ff 	mov    %rax,-0x9c8(%rbp)
    8b54:	48 8d 05 2d 87 00 00 	lea    0x872d(%rip),%rax        # 11288 <g_717>
    8b5b:	48 89 85 f0 f6 ff ff 	mov    %rax,-0x910(%rbp)
    8b62:	48 8d 05 1f 87 00 00 	lea    0x871f(%rip),%rax        # 11288 <g_717>
    8b69:	48 89 85 f8 f6 ff ff 	mov    %rax,-0x908(%rbp)
    8b70:	48 8d 05 11 87 00 00 	lea    0x8711(%rip),%rax        # 11288 <g_717>
    8b77:	48 89 85 00 f7 ff ff 	mov    %rax,-0x900(%rbp)
    8b7e:	48 8d 05 03 87 00 00 	lea    0x8703(%rip),%rax        # 11288 <g_717>
    8b85:	48 89 85 08 f7 ff ff 	mov    %rax,-0x8f8(%rbp)
    8b8c:	48 8d 05 f5 86 00 00 	lea    0x86f5(%rip),%rax        # 11288 <g_717>
    8b93:	48 89 85 10 f7 ff ff 	mov    %rax,-0x8f0(%rbp)
    8b9a:	48 8d 05 e7 86 00 00 	lea    0x86e7(%rip),%rax        # 11288 <g_717>
    8ba1:	48 89 85 18 f7 ff ff 	mov    %rax,-0x8e8(%rbp)
    8ba8:	48 8d 05 d9 86 00 00 	lea    0x86d9(%rip),%rax        # 11288 <g_717>
    8baf:	48 89 85 20 f7 ff ff 	mov    %rax,-0x8e0(%rbp)
    8bb6:	48 8d 05 cb 86 00 00 	lea    0x86cb(%rip),%rax        # 11288 <g_717>
    8bbd:	48 89 85 28 f7 ff ff 	mov    %rax,-0x8d8(%rbp)
    8bc4:	48 8d 05 bd 86 00 00 	lea    0x86bd(%rip),%rax        # 11288 <g_717>
    8bcb:	48 89 85 30 f7 ff ff 	mov    %rax,-0x8d0(%rbp)
    8bd2:	48 8d 05 af 86 00 00 	lea    0x86af(%rip),%rax        # 11288 <g_717>
    8bd9:	48 89 85 38 f7 ff ff 	mov    %rax,-0x8c8(%rbp)
    8be0:	0f b7 9d 6c f5 ff ff 	movzwl -0xa94(%rbp),%ebx
    8be7:	48 8b 85 30 f6 ff ff 	mov    -0x9d0(%rbp),%rax
    8bee:	48 c7 00 00 00 00 00 	movq   $0x0,(%rax)
    8bf5:	8b 85 a0 f5 ff ff    	mov    -0xa60(%rbp),%eax
    8bfb:	be ff ec 18 25       	mov    $0x2518ecff,%esi
    8c00:	89 c7                	mov    %eax,%edi
    8c02:	e8 f6 d2 ff ff       	callq  5efd <safe_mod_func_uint32_t_u_u>
    8c07:	48 8b 05 ba 92 00 00 	mov    0x92ba(%rip),%rax        # 11ec8 <g_203>
    8c0e:	48 8b 00             	mov    (%rax),%rax
    8c11:	48 8b 00             	mov    (%rax),%rax
    8c14:	0f b6 00             	movzbl (%rax),%eax
    8c17:	44 0f b6 e0          	movzbl %al,%r12d
    8c1b:	48 8b 85 98 fd ff ff 	mov    -0x268(%rbp),%rax
    8c22:	48 89 85 60 fb ff ff 	mov    %rax,-0x4a0(%rbp)
    8c29:	8b 05 85 84 00 00    	mov    0x8485(%rip),%eax        # 110b4 <g_123>
    8c2f:	0f be c0             	movsbl %al,%eax
    8c32:	be 05 00 00 00       	mov    $0x5,%esi
    8c37:	89 c7                	mov    %eax,%edi
    8c39:	e8 b0 c6 ff ff       	callq  52ee <safe_lshift_func_int8_t_s_u>
    8c3e:	0f b6 c0             	movzbl %al,%eax
    8c41:	44 89 e6             	mov    %r12d,%esi
    8c44:	89 c7                	mov    %eax,%edi
    8c46:	e8 48 cf ff ff       	callq  5b93 <safe_mul_func_uint8_t_u_u>
    8c4b:	0f b7 05 a2 85 00 00 	movzwl 0x85a2(%rip),%eax        # 111f4 <g_190+0x4>
    8c52:	66 39 85 6c f5 ff ff 	cmp    %ax,-0xa94(%rbp)
    8c59:	0f 96 c0             	setbe  %al
    8c5c:	0f b6 d0             	movzbl %al,%edx
    8c5f:	48 8b 05 f2 83 00 00 	mov    0x83f2(%rip),%rax        # 11058 <g_50+0x18>
    8c66:	48 39 c2             	cmp    %rax,%rdx
    8c69:	0f be 85 5c f5 ff ff 	movsbl -0xaa4(%rbp),%eax
    8c70:	89 de                	mov    %ebx,%esi
    8c72:	89 c7                	mov    %eax,%edi
    8c74:	e8 75 c6 ff ff       	callq  52ee <safe_lshift_func_int8_t_s_u>
    8c79:	66 98                	cbtw   
    8c7b:	0f b7 c0             	movzwl %ax,%eax
    8c7e:	be 01 00 00 00       	mov    $0x1,%esi
    8c83:	89 c7                	mov    %eax,%edi
    8c85:	e8 be d1 ff ff       	callq  5e48 <safe_rshift_func_uint16_t_u_s>
    8c8a:	be 01 00 00 00       	mov    $0x1,%esi
    8c8f:	bf 1c 45 00 00       	mov    $0x451c,%edi
    8c94:	e8 f9 c7 ff ff       	callq  5492 <safe_lshift_func_int16_t_s_s>
    8c99:	0f be c0             	movsbl %al,%eax
    8c9c:	be 0b 00 00 00       	mov    $0xb,%esi
    8ca1:	89 c7                	mov    %eax,%edi
    8ca3:	e8 4a c5 ff ff       	callq  51f2 <safe_sub_func_int8_t_s_s>
    8ca8:	48 8b 95 c8 f5 ff ff 	mov    -0xa38(%rbp),%rdx
    8caf:	48 8b 12             	mov    (%rdx),%rdx
    8cb2:	8b 0a                	mov    (%rdx),%ecx
    8cb4:	0f be d0             	movsbl %al,%edx
    8cb7:	48 8b 85 c8 f5 ff ff 	mov    -0xa38(%rbp),%rax
    8cbe:	48 8b 00             	mov    (%rax),%rax
    8cc1:	31 ca                	xor    %ecx,%edx
    8cc3:	89 10                	mov    %edx,(%rax)
    8cc5:	66 c7 85 68 f5 ff ff 	movw   $0xfff2,-0xa98(%rbp)
    8ccc:	f2 ff 
    8cce:	eb 4c                	jmp    8d1c <func_14+0x84a>
    8cd0:	c7 85 ac f5 ff ff f8 	movl   $0xfffffff8,-0xa54(%rbp)
    8cd7:	ff ff ff 
    8cda:	48 8b 85 60 f5 ff ff 	mov    -0xaa0(%rbp),%rax
    8ce1:	8b 00                	mov    (%rax),%eax
    8ce3:	85 c0                	test   %eax,%eax
    8ce5:	75 41                	jne    8d28 <func_14+0x856>
    8ce7:	83 ad ac f5 ff ff 01 	subl   $0x1,-0xa54(%rbp)
    8cee:	83 bd a4 f5 ff ff 00 	cmpl   $0x0,-0xa5c(%rbp)
    8cf5:	75 13                	jne    8d0a <func_14+0x838>
    8cf7:	48 8b 05 aa 91 00 00 	mov    0x91aa(%rip),%rax        # 11ea8 <g_40>
    8cfe:	48 8b 95 b0 f9 ff ff 	mov    -0x650(%rbp),%rdx
    8d05:	48 89 10             	mov    %rdx,(%rax)
    8d08:	eb 01                	jmp    8d0b <func_14+0x839>
    8d0a:	90                   	nop
    8d0b:	0f b7 85 68 f5 ff ff 	movzwl -0xa98(%rbp),%eax
    8d12:	83 c0 01             	add    $0x1,%eax
    8d15:	66 89 85 68 f5 ff ff 	mov    %ax,-0xa98(%rbp)
    8d1c:	66 83 bd 68 f5 ff ff 	cmpw   $0x1f,-0xa98(%rbp)
    8d23:	1f 
    8d24:	76 aa                	jbe    8cd0 <func_14+0x7fe>
    8d26:	eb 01                	jmp    8d29 <func_14+0x857>
    8d28:	90                   	nop
    8d29:	48 8b 15 e0 91 00 00 	mov    0x91e0(%rip),%rdx        # 11f10 <g_527>
    8d30:	48 8b 05 d9 91 00 00 	mov    0x91d9(%rip),%rax        # 11f10 <g_527>
    8d37:	48 8b 12             	mov    (%rdx),%rdx
    8d3a:	48 89 10             	mov    %rdx,(%rax)
    8d3d:	48 8b 00             	mov    (%rax),%rax
    8d40:	48 89 85 18 f6 ff ff 	mov    %rax,-0x9e8(%rbp)
    8d47:	48 8b 85 18 f6 ff ff 	mov    -0x9e8(%rbp),%rax
    8d4e:	48 89 85 20 f6 ff ff 	mov    %rax,-0x9e0(%rbp)
    8d55:	0f b7 85 68 f5 ff ff 	movzwl -0xa98(%rbp),%eax
    8d5c:	e9 c5 01 00 00       	jmpq   8f26 <func_14+0xa54>
    8d61:	48 8d 85 b8 f5 ff ff 	lea    -0xa48(%rbp),%rax
    8d68:	48 89 85 28 f6 ff ff 	mov    %rax,-0x9d8(%rbp)
    8d6f:	c7 85 f0 f6 ff ff a6 	movl   $0xa9561fa6,-0x910(%rbp)
    8d76:	1f 56 a9 
    8d79:	c7 85 f4 f6 ff ff 05 	movl   $0x5,-0x90c(%rbp)
    8d80:	00 00 00 
    8d83:	c7 85 f8 f6 ff ff a6 	movl   $0xa9561fa6,-0x908(%rbp)
    8d8a:	1f 56 a9 
    8d8d:	c7 85 fc f6 ff ff a6 	movl   $0xa9561fa6,-0x904(%rbp)
    8d94:	1f 56 a9 
    8d97:	c7 85 00 f7 ff ff 05 	movl   $0x5,-0x900(%rbp)
    8d9e:	00 00 00 
    8da1:	c7 85 04 f7 ff ff a6 	movl   $0xa9561fa6,-0x8fc(%rbp)
    8da8:	1f 56 a9 
    8dab:	c7 85 08 f7 ff ff a6 	movl   $0xa9561fa6,-0x8f8(%rbp)
    8db2:	1f 56 a9 
    8db5:	c7 85 0c f7 ff ff 05 	movl   $0x5,-0x8f4(%rbp)
    8dbc:	00 00 00 
    8dbf:	c7 85 10 f7 ff ff a6 	movl   $0xa9561fa6,-0x8f0(%rbp)
    8dc6:	1f 56 a9 
    8dc9:	c6 05 e2 82 00 00 00 	movb   $0x0,0x82e2(%rip)        # 110b2 <g_122>
    8dd0:	e9 9e 00 00 00       	jmpq   8e73 <func_14+0x9a1>
    8dd5:	c7 85 80 f5 ff ff 00 	movl   $0x0,-0xa80(%rbp)
    8ddc:	00 00 00 
    8ddf:	eb 52                	jmp    8e33 <func_14+0x961>
    8de1:	c7 85 84 f5 ff ff 00 	movl   $0x0,-0xa7c(%rbp)
    8de8:	00 00 00 
    8deb:	eb 36                	jmp    8e23 <func_14+0x951>
    8ded:	8b 85 84 f5 ff ff    	mov    -0xa7c(%rbp),%eax
    8df3:	48 63 c8             	movslq %eax,%rcx
    8df6:	8b 85 80 f5 ff ff    	mov    -0xa80(%rbp),%eax
    8dfc:	48 63 d0             	movslq %eax,%rdx
    8dff:	48 89 d0             	mov    %rdx,%rax
    8e02:	48 c1 e0 02          	shl    $0x2,%rax
    8e06:	48 01 d0             	add    %rdx,%rax
    8e09:	48 8d 14 08          	lea    (%rax,%rcx,1),%rdx
    8e0d:	48 8d 85 c0 f5 ff ff 	lea    -0xa40(%rbp),%rax
    8e14:	48 89 84 d5 80 fa ff 	mov    %rax,-0x580(%rbp,%rdx,8)
    8e1b:	ff 
    8e1c:	83 85 84 f5 ff ff 01 	addl   $0x1,-0xa7c(%rbp)
    8e23:	83 bd 84 f5 ff ff 04 	cmpl   $0x4,-0xa7c(%rbp)
    8e2a:	7e c1                	jle    8ded <func_14+0x91b>
    8e2c:	83 85 80 f5 ff ff 01 	addl   $0x1,-0xa80(%rbp)
    8e33:	83 bd 80 f5 ff ff 02 	cmpl   $0x2,-0xa80(%rbp)
    8e3a:	7e a5                	jle    8de1 <func_14+0x90f>
    8e3c:	48 8b 85 c0 f5 ff ff 	mov    -0xa40(%rbp),%rax
    8e43:	48 89 85 28 f6 ff ff 	mov    %rax,-0x9d8(%rbp)
    8e4a:	c7 85 78 f5 ff ff b5 	movl   $0xae48c9b5,-0xa88(%rbp)
    8e51:	c9 48 ae 
    8e54:	8b 95 78 f5 ff ff    	mov    -0xa88(%rbp),%edx
    8e5a:	48 8b 85 20 f6 ff ff 	mov    -0x9e0(%rbp),%rax
    8e61:	89 10                	mov    %edx,(%rax)
    8e63:	0f b6 05 48 82 00 00 	movzbl 0x8248(%rip),%eax        # 110b2 <g_122>
    8e6a:	83 c0 01             	add    $0x1,%eax
    8e6d:	88 05 3f 82 00 00    	mov    %al,0x823f(%rip)        # 110b2 <g_122>
    8e73:	0f b6 05 38 82 00 00 	movzbl 0x8238(%rip),%eax        # 110b2 <g_122>
    8e7a:	3c 03                	cmp    $0x3,%al
    8e7c:	0f 8e 53 ff ff ff    	jle    8dd5 <func_14+0x903>
    8e82:	8b 85 f0 f6 ff ff    	mov    -0x910(%rbp),%eax
    8e88:	e9 99 00 00 00       	jmpq   8f26 <func_14+0xa54>
    8e8d:	48 8b 85 18 f6 ff ff 	mov    -0x9e8(%rbp),%rax
    8e94:	8b 10                	mov    (%rax),%edx
    8e96:	48 8b 85 18 f6 ff ff 	mov    -0x9e8(%rbp),%rax
    8e9d:	89 10                	mov    %edx,(%rax)
    8e9f:	eb 3b                	jmp    8edc <func_14+0xa0a>
    8ea1:	48 8d 85 80 fa ff ff 	lea    -0x580(%rbp),%rax
    8ea8:	48 8d 15 71 8c 00 00 	lea    0x8c71(%rip),%rdx        # 11b20 <g_1757+0x6cc>
    8eaf:	b9 28 00 00 00       	mov    $0x28,%ecx
    8eb4:	48 89 c7             	mov    %rax,%rdi
    8eb7:	48 89 d6             	mov    %rdx,%rsi
    8eba:	f3 48 a5             	rep movsq %ds:(%rsi),%es:(%rdi)
    8ebd:	48 8b 05 64 90 00 00 	mov    0x9064(%rip),%rax        # 11f28 <g_543>
    8ec4:	48 8b 00             	mov    (%rax),%rax
    8ec7:	8b 00                	mov    (%rax),%eax
    8ec9:	85 c0                	test   %eax,%eax
    8ecb:	75 36                	jne    8f03 <func_14+0xa31>
    8ecd:	8b 85 44 f7 ff ff    	mov    -0x8bc(%rbp),%eax
    8ed3:	83 e8 01             	sub    $0x1,%eax
    8ed6:	89 85 44 f7 ff ff    	mov    %eax,-0x8bc(%rbp)
    8edc:	48 8b 05 35 90 00 00 	mov    0x9035(%rip),%rax        # 11f18 <g_526>
    8ee3:	48 8b 00             	mov    (%rax),%rax
    8ee6:	48 c7 00 00 00 00 00 	movq   $0x0,(%rax)
    8eed:	66 83 85 6c f5 ff ff 	addw   $0x1,-0xa94(%rbp)
    8ef4:	01 
    8ef5:	66 83 bd 6c f5 ff ff 	cmpw   $0x1,-0xa94(%rbp)
    8efc:	01 
    8efd:	0f 86 93 f9 ff ff    	jbe    8896 <func_14+0x3c4>
    8f03:	48 8b 05 16 90 00 00 	mov    0x9016(%rip),%rax        # 11f20 <g_525>
    8f0a:	48 8b 00             	mov    (%rax),%rax
    8f0d:	48 8b 10             	mov    (%rax),%rdx
    8f10:	48 8b 05 01 90 00 00 	mov    0x9001(%rip),%rax        # 11f18 <g_526>
    8f17:	48 8b 00             	mov    (%rax),%rax
    8f1a:	48 8b 12             	mov    (%rdx),%rdx
    8f1d:	48 89 10             	mov    %rdx,(%rax)
    8f20:	8b 85 c0 f7 ff ff    	mov    -0x840(%rbp),%eax
    8f26:	48 8b 5d e8          	mov    -0x18(%rbp),%rbx
    8f2a:	64 48 33 1c 25 28 00 	xor    %fs:0x28,%rbx
    8f31:	00 00 
    8f33:	74 05                	je     8f3a <func_14+0xa68>
    8f35:	e8 36 c1 ff ff       	callq  5070 <__stack_chk_fail@plt>
    8f3a:	48 81 c4 a0 0a 00 00 	add    $0xaa0,%rsp
    8f41:	5b                   	pop    %rbx
    8f42:	41 5c                	pop    %r12
    8f44:	5d                   	pop    %rbp
    8f45:	c3                   	retq   

0000000000008f46 <func_19>:
    8f46:	f3 0f 1e fa          	endbr64 
    8f4a:	55                   	push   %rbp
    8f4b:	48 89 e5             	mov    %rsp,%rbp
    8f4e:	48 81 ec 70 01 00 00 	sub    $0x170,%rsp
    8f55:	89 f8                	mov    %edi,%eax
    8f57:	89 95 94 fe ff ff    	mov    %edx,-0x16c(%rbp)
    8f5d:	89 8d 90 fe ff ff    	mov    %ecx,-0x170(%rbp)
    8f63:	66 89 85 9c fe ff ff 	mov    %ax,-0x164(%rbp)
    8f6a:	89 f0                	mov    %esi,%eax
    8f6c:	88 85 98 fe ff ff    	mov    %al,-0x168(%rbp)
    8f72:	64 48 8b 04 25 28 00 	mov    %fs:0x28,%rax
    8f79:	00 00 
    8f7b:	48 89 45 f8          	mov    %rax,-0x8(%rbp)
    8f7f:	31 c0                	xor    %eax,%eax
    8f81:	48 8d 05 2c 81 00 00 	lea    0x812c(%rip),%rax        # 110b4 <g_123>
    8f88:	48 89 85 e0 fe ff ff 	mov    %rax,-0x120(%rbp)
    8f8f:	c6 85 ab fe ff ff ff 	movb   $0xff,-0x155(%rbp)
    8f96:	48 c7 85 e8 fe ff ff 	movq   $0xfffffffffffffffc,-0x118(%rbp)
    8f9d:	fc ff ff ff 
    8fa1:	c7 85 b4 fe ff ff 09 	movl   $0x9,-0x14c(%rbp)
    8fa8:	00 00 00 
    8fab:	c7 85 b8 fe ff ff 61 	movl   $0x4c4a2161,-0x148(%rbp)
    8fb2:	21 4a 4c 
    8fb5:	c7 85 bc fe ff ff ff 	movl   $0xffffffff,-0x144(%rbp)
    8fbc:	ff ff ff 
    8fbf:	c7 85 ac fe ff ff b4 	movl   $0xd7bc48b4,-0x154(%rbp)
    8fc6:	48 bc d7 
    8fc9:	c7 85 c0 fe ff ff 81 	movl   $0x1bade581,-0x140(%rbp)
    8fd0:	e5 ad 1b 
    8fd3:	c7 85 30 ff ff ff 9e 	movl   $0x9d41839e,-0xd0(%rbp)
    8fda:	83 41 9d 
    8fdd:	c7 85 34 ff ff ff 9e 	movl   $0x9d41839e,-0xcc(%rbp)
    8fe4:	83 41 9d 
    8fe7:	c7 85 38 ff ff ff 9e 	movl   $0x9d41839e,-0xc8(%rbp)
    8fee:	83 41 9d 
    8ff1:	c7 85 3c ff ff ff 9e 	movl   $0x9d41839e,-0xc4(%rbp)
    8ff8:	83 41 9d 
    8ffb:	c7 85 40 ff ff ff 9e 	movl   $0x9d41839e,-0xc0(%rbp)
    9002:	83 41 9d 
    9005:	48 c7 85 c8 fe ff ff 	movq   $0x0,-0x138(%rbp)
    900c:	00 00 00 00 
    9010:	48 8d 85 c8 fe ff ff 	lea    -0x138(%rbp),%rax
    9017:	48 89 85 d0 fe ff ff 	mov    %rax,-0x130(%rbp)
    901e:	48 8d 85 d0 fe ff ff 	lea    -0x130(%rbp),%rax
    9025:	48 89 45 a0          	mov    %rax,-0x60(%rbp)
    9029:	48 8d 85 d0 fe ff ff 	lea    -0x130(%rbp),%rax
    9030:	48 89 45 a8          	mov    %rax,-0x58(%rbp)
    9034:	48 8d 85 d0 fe ff ff 	lea    -0x130(%rbp),%rax
    903b:	48 89 45 b0          	mov    %rax,-0x50(%rbp)
    903f:	48 8d 85 d0 fe ff ff 	lea    -0x130(%rbp),%rax
    9046:	48 89 45 b8          	mov    %rax,-0x48(%rbp)
    904a:	48 8d 85 d0 fe ff ff 	lea    -0x130(%rbp),%rax
    9051:	48 89 45 c0          	mov    %rax,-0x40(%rbp)
    9055:	48 8d 85 d0 fe ff ff 	lea    -0x130(%rbp),%rax
    905c:	48 89 45 c8          	mov    %rax,-0x38(%rbp)
    9060:	48 8d 85 d0 fe ff ff 	lea    -0x130(%rbp),%rax
    9067:	48 89 45 d0          	mov    %rax,-0x30(%rbp)
    906b:	48 8d 85 d0 fe ff ff 	lea    -0x130(%rbp),%rax
    9072:	48 89 45 d8          	mov    %rax,-0x28(%rbp)
    9076:	48 8d 85 d0 fe ff ff 	lea    -0x130(%rbp),%rax
    907d:	48 89 45 e0          	mov    %rax,-0x20(%rbp)
    9081:	48 8d 85 d0 fe ff ff 	lea    -0x130(%rbp),%rax
    9088:	48 89 45 e8          	mov    %rax,-0x18(%rbp)
    908c:	48 8d 85 ac fe ff ff 	lea    -0x154(%rbp),%rax
    9093:	48 89 85 f0 fe ff ff 	mov    %rax,-0x110(%rbp)
    909a:	48 8d 05 3b 80 00 00 	lea    0x803b(%rip),%rax        # 110dc <g_139>
    90a1:	48 89 85 d8 fe ff ff 	mov    %rax,-0x128(%rbp)
    90a8:	48 8d 85 d8 fe ff ff 	lea    -0x128(%rbp),%rax
    90af:	48 89 85 f8 fe ff ff 	mov    %rax,-0x108(%rbp)
    90b6:	48 8d 05 fb 8d 00 00 	lea    0x8dfb(%rip),%rax        # 11eb8 <g_205>
    90bd:	48 89 85 00 ff ff ff 	mov    %rax,-0x100(%rbp)
    90c4:	48 8d 05 2b 81 00 00 	lea    0x812b(%rip),%rax        # 111f6 <g_190+0x6>
    90cb:	48 89 85 08 ff ff ff 	mov    %rax,-0xf8(%rbp)
    90d2:	48 8d 05 9f a3 00 00 	lea    0xa39f(%rip),%rax        # 13478 <g_507>
    90d9:	48 89 85 10 ff ff ff 	mov    %rax,-0xf0(%rbp)
    90e0:	48 c7 85 18 ff ff ff 	movq   $0x0,-0xe8(%rbp)
    90e7:	00 00 00 00 
    90eb:	48 c7 85 20 ff ff ff 	movq   $0x0,-0xe0(%rbp)
    90f2:	00 00 00 00 
    90f6:	48 8d 85 50 ff ff ff 	lea    -0xb0(%rbp),%rax
    90fd:	48 83 c0 20          	add    $0x20,%rax
    9101:	48 89 85 28 ff ff ff 	mov    %rax,-0xd8(%rbp)
    9108:	c7 85 c4 fe ff ff 01 	movl   $0x1,-0x13c(%rbp)
    910f:	00 00 00 
    9112:	c7 85 b0 fe ff ff 00 	movl   $0x0,-0x150(%rbp)
    9119:	00 00 00 
    911c:	eb 1b                	jmp    9139 <func_19+0x1f3>
    911e:	8b 85 b0 fe ff ff    	mov    -0x150(%rbp),%eax
    9124:	48 98                	cltq   
    9126:	48 c7 84 c5 50 ff ff 	movq   $0x6,-0xb0(%rbp,%rax,8)
    912d:	ff 06 00 00 00 
    9132:	83 85 b0 fe ff ff 01 	addl   $0x1,-0x150(%rbp)
    9139:	83 bd b0 fe ff ff 08 	cmpl   $0x8,-0x150(%rbp)
    9140:	7e dc                	jle    911e <func_19+0x1d8>
    9142:	48 8b 05 5f 8d 00 00 	mov    0x8d5f(%rip),%rax        # 11ea8 <g_40>
    9149:	48 8b 00             	mov    (%rax),%rax
    914c:	48 89 85 e0 fe ff ff 	mov    %rax,-0x120(%rbp)
    9153:	48 8b 05 be 8d 00 00 	mov    0x8dbe(%rip),%rax        # 11f18 <g_526>
    915a:	48 8b 00             	mov    (%rax),%rax
    915d:	48 8b 00             	mov    (%rax),%rax
    9160:	48 8b 55 f8          	mov    -0x8(%rbp),%rdx
    9164:	64 48 33 14 25 28 00 	xor    %fs:0x28,%rdx
    916b:	00 00 
    916d:	74 05                	je     9174 <func_19+0x22e>
    916f:	e8 fc be ff ff       	callq  5070 <__stack_chk_fail@plt>
    9174:	c9                   	leaveq 
    9175:	c3                   	retq   

0000000000009176 <func_24>:
    9176:	f3 0f 1e fa          	endbr64 
    917a:	55                   	push   %rbp
    917b:	48 89 e5             	mov    %rsp,%rbp
    917e:	41 54                	push   %r12
    9180:	53                   	push   %rbx
    9181:	48 83 ec 20          	sub    $0x20,%rsp
    9185:	89 7d dc             	mov    %edi,-0x24(%rbp)
    9188:	48 8d 05 99 7e 00 00 	lea    0x7e99(%rip),%rax        # 11028 <g_3>
    918f:	48 89 45 e8          	mov    %rax,-0x18(%rbp)
    9193:	8b 5d dc             	mov    -0x24(%rbp),%ebx
    9196:	8b 05 30 7f 00 00    	mov    0x7f30(%rip),%eax        # 110cc <g_125+0xc>
    919c:	44 0f be e0          	movsbl %al,%r12d
    91a0:	48 8b 05 01 8d 00 00 	mov    0x8d01(%rip),%rax        # 11ea8 <g_40>
    91a7:	48 8b 10             	mov    (%rax),%rdx
    91aa:	48 8b 45 e8          	mov    -0x18(%rbp),%rax
    91ae:	8b 00                	mov    (%rax),%eax
    91b0:	48 63 f0             	movslq %eax,%rsi
    91b3:	8b 05 73 7e 00 00    	mov    0x7e73(%rip),%eax        # 1102c <g_26>
    91b9:	48 98                	cltq   
    91bb:	48 8b 4d e8          	mov    -0x18(%rbp),%rcx
    91bf:	48 89 c7             	mov    %rax,%rdi
    91c2:	e8 24 0c 00 00       	callq  9deb <func_66>
    91c7:	48 8b 55 e8          	mov    -0x18(%rbp),%rdx
    91cb:	8b 45 dc             	mov    -0x24(%rbp),%eax
    91ce:	44 89 e6             	mov    %r12d,%esi
    91d1:	89 c7                	mov    %eax,%edi
    91d3:	e8 a1 09 00 00       	callq  9b79 <func_62>
    91d8:	66 3d 34 83          	cmp    $0x8334,%ax
    91dc:	0f 96 c0             	setbe  %al
    91df:	0f b6 c0             	movzbl %al,%eax
    91e2:	89 c2                	mov    %eax,%edx
    91e4:	48 8b 45 e8          	mov    -0x18(%rbp),%rax
    91e8:	8b 00                	mov    (%rax),%eax
    91ea:	39 c2                	cmp    %eax,%edx
    91ec:	0f 9e c0             	setle  %al
    91ef:	44 0f b6 e0          	movzbl %al,%r12d
    91f3:	be 03 00 00 00       	mov    $0x3,%esi
    91f8:	bf 00 00 00 00       	mov    $0x0,%edi
    91fd:	e8 28 c3 ff ff       	callq  552a <safe_rshift_func_int16_t_s_s>
    9202:	0f be c0             	movsbl %al,%eax
    9205:	44 89 e6             	mov    %r12d,%esi
    9208:	89 c7                	mov    %eax,%edi
    920a:	e8 c5 bf ff ff       	callq  51d4 <safe_add_func_int8_t_s_s>
    920f:	0f be d0             	movsbl %al,%edx
    9212:	48 8b 05 17 8d 00 00 	mov    0x8d17(%rip),%rax        # 11f30 <g_542>
    9219:	4c 8b 20             	mov    (%rax),%r12
    921c:	48 8b 45 e8          	mov    -0x18(%rbp),%rax
    9220:	89 d9                	mov    %ebx,%ecx
    9222:	48 8d 35 2f 7e 00 00 	lea    0x7e2f(%rip),%rsi        # 11058 <g_50+0x18>
    9229:	48 89 c7             	mov    %rax,%rdi
    922c:	e8 13 00 00 00       	callq  9244 <func_52>
    9231:	49 89 04 24          	mov    %rax,(%r12)
    9235:	48 8b 45 e8          	mov    -0x18(%rbp),%rax
    9239:	8b 00                	mov    (%rax),%eax
    923b:	48 83 c4 20          	add    $0x20,%rsp
    923f:	5b                   	pop    %rbx
    9240:	41 5c                	pop    %r12
    9242:	5d                   	pop    %rbp
    9243:	c3                   	retq   

0000000000009244 <func_52>:
    9244:	f3 0f 1e fa          	endbr64 
    9248:	55                   	push   %rbp
    9249:	48 89 e5             	mov    %rsp,%rbp
    924c:	41 55                	push   %r13
    924e:	41 54                	push   %r12
    9250:	53                   	push   %rbx
    9251:	48 81 ec 48 03 00 00 	sub    $0x348,%rsp
    9258:	48 89 bd b8 fc ff ff 	mov    %rdi,-0x348(%rbp)
    925f:	48 89 b5 b0 fc ff ff 	mov    %rsi,-0x350(%rbp)
    9266:	89 95 ac fc ff ff    	mov    %edx,-0x354(%rbp)
    926c:	89 8d a8 fc ff ff    	mov    %ecx,-0x358(%rbp)
    9272:	64 48 8b 04 25 28 00 	mov    %fs:0x28,%rax
    9279:	00 00 
    927b:	48 89 45 d8          	mov    %rax,-0x28(%rbp)
    927f:	31 c0                	xor    %eax,%eax
    9281:	48 8d 05 90 8c 00 00 	lea    0x8c90(%rip),%rax        # 11f18 <g_526>
    9288:	48 89 85 18 fd ff ff 	mov    %rax,-0x2e8(%rbp)
    928f:	48 8d 85 18 fd ff ff 	lea    -0x2e8(%rbp),%rax
    9296:	48 89 85 30 fd ff ff 	mov    %rax,-0x2d0(%rbp)
    929d:	48 8d 05 94 8c 00 00 	lea    0x8c94(%rip),%rax        # 11f38 <g_541>
    92a4:	48 89 85 38 fd ff ff 	mov    %rax,-0x2c8(%rbp)
    92ab:	48 c7 85 40 fd ff ff 	movq   $0x0,-0x2c0(%rbp)
    92b2:	00 00 00 00 
    92b6:	48 8d 05 f5 7d 00 00 	lea    0x7df5(%rip),%rax        # 110b2 <g_122>
    92bd:	48 89 85 48 fd ff ff 	mov    %rax,-0x2b8(%rbp)
    92c4:	c7 85 d0 fc ff ff fd 	movl   $0xfffffffd,-0x330(%rbp)
    92cb:	ff ff ff 
    92ce:	48 8d 05 fb 8b 00 00 	lea    0x8bfb(%rip),%rax        # 11ed0 <g_217>
    92d5:	48 89 85 50 fd ff ff 	mov    %rax,-0x2b0(%rbp)
    92dc:	48 c7 85 58 fd ff ff 	movq   $0x0,-0x2a8(%rbp)
    92e3:	00 00 00 00 
    92e7:	48 8d 05 c6 7d 00 00 	lea    0x7dc6(%rip),%rax        # 110b4 <g_123>
    92ee:	48 89 85 60 fd ff ff 	mov    %rax,-0x2a0(%rbp)
    92f5:	48 8d 05 74 7e 00 00 	lea    0x7e74(%rip),%rax        # 11170 <g_156+0x70>
    92fc:	48 89 85 68 fd ff ff 	mov    %rax,-0x298(%rbp)
    9303:	48 8d 05 f4 7e 00 00 	lea    0x7ef4(%rip),%rax        # 111fe <g_286>
    930a:	48 89 85 20 fd ff ff 	mov    %rax,-0x2e0(%rbp)
    9311:	c7 85 c8 fc ff ff 01 	movl   $0x1,-0x338(%rbp)
    9318:	00 00 00 
    931b:	c7 85 d4 fc ff ff 4b 	movl   $0x572cf94b,-0x32c(%rbp)
    9322:	f9 2c 57 
    9325:	48 8d 85 20 fd ff ff 	lea    -0x2e0(%rbp),%rax
    932c:	48 89 85 40 fe ff ff 	mov    %rax,-0x1c0(%rbp)
    9333:	48 8d 85 20 fd ff ff 	lea    -0x2e0(%rbp),%rax
    933a:	48 89 85 48 fe ff ff 	mov    %rax,-0x1b8(%rbp)
    9341:	48 8d 85 20 fd ff ff 	lea    -0x2e0(%rbp),%rax
    9348:	48 89 85 50 fe ff ff 	mov    %rax,-0x1b0(%rbp)
    934f:	48 8d 85 20 fd ff ff 	lea    -0x2e0(%rbp),%rax
    9356:	48 89 85 58 fe ff ff 	mov    %rax,-0x1a8(%rbp)
    935d:	48 8d 85 20 fd ff ff 	lea    -0x2e0(%rbp),%rax
    9364:	48 89 85 60 fe ff ff 	mov    %rax,-0x1a0(%rbp)
    936b:	48 8d 85 20 fd ff ff 	lea    -0x2e0(%rbp),%rax
    9372:	48 89 85 68 fe ff ff 	mov    %rax,-0x198(%rbp)
    9379:	48 8d 85 20 fd ff ff 	lea    -0x2e0(%rbp),%rax
    9380:	48 89 85 70 fe ff ff 	mov    %rax,-0x190(%rbp)
    9387:	48 8d 85 20 fd ff ff 	lea    -0x2e0(%rbp),%rax
    938e:	48 89 85 78 fe ff ff 	mov    %rax,-0x188(%rbp)
    9395:	48 8d 85 20 fd ff ff 	lea    -0x2e0(%rbp),%rax
    939c:	48 89 85 80 fe ff ff 	mov    %rax,-0x180(%rbp)
    93a3:	c7 85 d8 fc ff ff 14 	movl   $0x9bf80914,-0x328(%rbp)
    93aa:	09 f8 9b 
    93ad:	c7 85 dc fc ff ff e6 	movl   $0xe29214e6,-0x324(%rbp)
    93b4:	14 92 e2 
    93b7:	c7 85 e0 fc ff ff 74 	movl   $0xf7ecbe74,-0x320(%rbp)
    93be:	be ec f7 
    93c1:	c7 85 e4 fc ff ff 07 	movl   $0x7,-0x31c(%rbp)
    93c8:	00 00 00 
    93cb:	c7 85 e8 fc ff ff fb 	movl   $0xfffffffb,-0x318(%rbp)
    93d2:	ff ff ff 
    93d5:	c7 85 ec fc ff ff f2 	movl   $0x4d934df2,-0x314(%rbp)
    93dc:	4d 93 4d 
    93df:	c7 85 f0 fc ff ff ff 	movl   $0xffffffff,-0x310(%rbp)
    93e6:	ff ff ff 
    93e9:	c7 85 f4 fc ff ff 5d 	movl   $0x9872115d,-0x30c(%rbp)
    93f0:	11 72 98 
    93f3:	c7 85 00 fe ff ff e7 	movl   $0x4aabebe7,-0x200(%rbp)
    93fa:	eb ab 4a 
    93fd:	c7 85 04 fe ff ff e7 	movl   $0x4aabebe7,-0x1fc(%rbp)
    9404:	eb ab 4a 
    9407:	c7 85 08 fe ff ff e7 	movl   $0x4aabebe7,-0x1f8(%rbp)
    940e:	eb ab 4a 
    9411:	c7 85 0c fe ff ff e7 	movl   $0x4aabebe7,-0x1f4(%rbp)
    9418:	eb ab 4a 
    941b:	c7 85 10 fe ff ff e7 	movl   $0x4aabebe7,-0x1f0(%rbp)
    9422:	eb ab 4a 
    9425:	c7 85 14 fe ff ff e7 	movl   $0x4aabebe7,-0x1ec(%rbp)
    942c:	eb ab 4a 
    942f:	c7 85 18 fe ff ff e7 	movl   $0x4aabebe7,-0x1e8(%rbp)
    9436:	eb ab 4a 
    9439:	c7 85 1c fe ff ff e7 	movl   $0x4aabebe7,-0x1e4(%rbp)
    9440:	eb ab 4a 
    9443:	c7 85 20 fe ff ff e7 	movl   $0x4aabebe7,-0x1e0(%rbp)
    944a:	eb ab 4a 
    944d:	c7 85 24 fe ff ff e7 	movl   $0x4aabebe7,-0x1dc(%rbp)
    9454:	eb ab 4a 
    9457:	c7 85 28 fe ff ff e7 	movl   $0x4aabebe7,-0x1d8(%rbp)
    945e:	eb ab 4a 
    9461:	c7 85 2c fe ff ff e7 	movl   $0x4aabebe7,-0x1d4(%rbp)
    9468:	eb ab 4a 
    946b:	c7 85 30 fe ff ff e7 	movl   $0x4aabebe7,-0x1d0(%rbp)
    9472:	eb ab 4a 
    9475:	c7 85 34 fe ff ff e7 	movl   $0x4aabebe7,-0x1cc(%rbp)
    947c:	eb ab 4a 
    947f:	c7 85 cc fc ff ff 00 	movl   $0x0,-0x334(%rbp)
    9486:	00 00 00 
    9489:	eb 1e                	jmp    94a9 <func_52+0x265>
    948b:	8b 85 cc fc ff ff    	mov    -0x334(%rbp),%eax
    9491:	48 98                	cltq   
    9493:	48 8d 15 d6 7c 00 00 	lea    0x7cd6(%rip),%rdx        # 11170 <g_156+0x70>
    949a:	48 89 94 c5 c0 fd ff 	mov    %rdx,-0x240(%rbp,%rax,8)
    94a1:	ff 
    94a2:	83 85 cc fc ff ff 01 	addl   $0x1,-0x334(%rbp)
    94a9:	83 bd cc fc ff ff 01 	cmpl   $0x1,-0x334(%rbp)
    94b0:	7e d9                	jle    948b <func_52+0x247>
    94b2:	48 b8 cf c8 78 83 36 	movabs $0xd2cf9c368378c8cf,%rax
    94b9:	9c cf d2 
    94bc:	48 89 05 ad 7c 00 00 	mov    %rax,0x7cad(%rip)        # 11170 <g_156+0x70>
    94c3:	83 bd ac fc ff ff 00 	cmpl   $0x0,-0x354(%rbp)
    94ca:	0f 84 de 00 00 00    	je     95ae <func_52+0x36a>
    94d0:	48 8b 95 18 fd ff ff 	mov    -0x2e8(%rbp),%rdx
    94d7:	48 8b 85 30 fd ff ff 	mov    -0x2d0(%rbp),%rax
    94de:	48 89 10             	mov    %rdx,(%rax)
    94e1:	48 8b 15 50 8a 00 00 	mov    0x8a50(%rip),%rdx        # 11f38 <g_541>
    94e8:	48 8b 85 38 fd ff ff 	mov    -0x2c8(%rbp),%rax
    94ef:	48 89 10             	mov    %rdx,(%rax)
    94f2:	44 8b 25 db 7b 00 00 	mov    0x7bdb(%rip),%r12d        # 110d4 <g_125+0x14>
    94f9:	48 8b 85 18 fd ff ff 	mov    -0x2e8(%rbp),%rax
    9500:	48 8b 00             	mov    (%rax),%rax
    9503:	48 8b 00             	mov    (%rax),%rax
    9506:	48 8b 00             	mov    (%rax),%rax
    9509:	8b 00                	mov    (%rax),%eax
    950b:	0f be d8             	movsbl %al,%ebx
    950e:	48 8b 85 18 fd ff ff 	mov    -0x2e8(%rbp),%rax
    9515:	48 8b 00             	mov    (%rax),%rax
    9518:	48 8b 00             	mov    (%rax),%rax
    951b:	48 8b 00             	mov    (%rax),%rax
    951e:	8b 00                	mov    (%rax),%eax
    9520:	89 c2                	mov    %eax,%edx
    9522:	48 8b 85 48 fd ff ff 	mov    -0x2b8(%rbp),%rax
    9529:	88 10                	mov    %dl,(%rax)
    952b:	48 8b 85 48 fd ff ff 	mov    -0x2b8(%rbp),%rax
    9532:	0f b6 00             	movzbl (%rax),%eax
    9535:	44 0f be e8          	movsbl %al,%r13d
    9539:	48 8b 05 f0 89 00 00 	mov    0x89f0(%rip),%rax        # 11f30 <g_542>
    9540:	48 8b 00             	mov    (%rax),%rax
    9543:	48 85 c0             	test   %rax,%rax
    9546:	0f 95 c0             	setne  %al
    9549:	0f b6 d0             	movzbl %al,%edx
    954c:	48 8b 05 95 89 00 00 	mov    0x8995(%rip),%rax        # 11ee8 <g_396>
    9553:	48 8b 00             	mov    (%rax),%rax
    9556:	48 8b 00             	mov    (%rax),%rax
    9559:	0f b6 00             	movzbl (%rax),%eax
    955c:	0f b6 c0             	movzbl %al,%eax
    955f:	89 d6                	mov    %edx,%esi
    9561:	89 c7                	mov    %eax,%edi
    9563:	e8 2b c6 ff ff       	callq  5b93 <safe_mul_func_uint8_t_u_u>
    9568:	0f b6 c0             	movzbl %al,%eax
    956b:	41 39 c5             	cmp    %eax,%r13d
    956e:	0f 9f c0             	setg   %al
    9571:	0f b6 d0             	movzbl %al,%edx
    9574:	8b 05 ca 7c 00 00    	mov    0x7cca(%rip),%eax        # 11244 <g_324+0x4>
    957a:	39 c2                	cmp    %eax,%edx
    957c:	0f 9d c0             	setge  %al
    957f:	0f b6 c0             	movzbl %al,%eax
    9582:	89 de                	mov    %ebx,%esi
    9584:	89 c7                	mov    %eax,%edi
    9586:	e8 a6 bc ff ff       	callq  5231 <safe_mod_func_int8_t_s_s>
    958b:	0f be c0             	movsbl %al,%eax
    958e:	41 39 c4             	cmp    %eax,%r12d
    9591:	0f 95 c0             	setne  %al
    9594:	0f b6 d0             	movzbl %al,%edx
    9597:	48 8b 85 b8 fc ff ff 	mov    -0x348(%rbp),%rax
    959e:	8b 00                	mov    (%rax),%eax
    95a0:	39 c2                	cmp    %eax,%edx
    95a2:	0f 9e c0             	setle  %al
    95a5:	0f b6 c0             	movzbl %al,%eax
    95a8:	39 85 d0 fc ff ff    	cmp    %eax,-0x330(%rbp)
    95ae:	b9 00 00 00 00       	mov    $0x0,%ecx
    95b3:	48 8b 05 a6 89 00 00 	mov    0x89a6(%rip),%rax        # 11f60 <g_554>
    95ba:	8b 10                	mov    (%rax),%edx
    95bc:	09 ca                	or     %ecx,%edx
    95be:	89 10                	mov    %edx,(%rax)
    95c0:	48 8b 05 69 89 00 00 	mov    0x8969(%rip),%rax        # 11f30 <g_542>
    95c7:	48 8b 00             	mov    (%rax),%rax
    95ca:	48 c7 00 00 00 00 00 	movq   $0x0,(%rax)
    95d1:	48 8b 05 08 89 00 00 	mov    0x8908(%rip),%rax        # 11ee0 <g_397>
    95d8:	48 8b 00             	mov    (%rax),%rax
    95db:	c6 00 1d             	movb   $0x1d,(%rax)
    95de:	8b 05 f8 7a 00 00    	mov    0x7af8(%rip),%eax        # 110dc <g_139>
    95e4:	0f be d8             	movsbl %al,%ebx
    95e7:	48 8b 85 30 fd ff ff 	mov    -0x2d0(%rbp),%rax
    95ee:	48 8b 00             	mov    (%rax),%rax
    95f1:	48 8b 00             	mov    (%rax),%rax
    95f4:	48 8b 00             	mov    (%rax),%rax
    95f7:	48 8b 00             	mov    (%rax),%rax
    95fa:	8b 00                	mov    (%rax),%eax
    95fc:	41 89 c4             	mov    %eax,%r12d
    95ff:	8b 85 ac fc ff ff    	mov    -0x354(%rbp),%eax
    9605:	0f b7 c0             	movzwl %ax,%eax
    9608:	be 09 00 00 00       	mov    $0x9,%esi
    960d:	89 c7                	mov    %eax,%edi
    960f:	e8 0b c7 ff ff       	callq  5d1f <safe_sub_func_uint16_t_u_u>
    9614:	0f b7 c0             	movzwl %ax,%eax
    9617:	39 85 ac fc ff ff    	cmp    %eax,-0x354(%rbp)
    961d:	8b 05 01 7a 00 00    	mov    0x7a01(%rip),%eax        # 11024 <g_2>
    9623:	81 a5 d0 fc ff ff e5 	andl   $0xe5,-0x330(%rbp)
    962a:	00 00 00 
    962d:	48 8b 85 30 fd ff ff 	mov    -0x2d0(%rbp),%rax
    9634:	48 8b 00             	mov    (%rax),%rax
    9637:	48 8b 00             	mov    (%rax),%rax
    963a:	48 8b 00             	mov    (%rax),%rax
    963d:	48 8b 00             	mov    (%rax),%rax
    9640:	8b 00                	mov    (%rax),%eax
    9642:	33 85 d0 fc ff ff    	xor    -0x330(%rbp),%eax
    9648:	44 89 e6             	mov    %r12d,%esi
    964b:	89 c7                	mov    %eax,%edi
    964d:	e8 ab c8 ff ff       	callq  5efd <safe_mod_func_uint32_t_u_u>
    9652:	0f b6 d0             	movzbl %al,%edx
    9655:	48 83 bd 50 fd ff ff 	cmpq   $0x0,-0x2b0(%rbp)
    965c:	00 
    965d:	0f 95 c1             	setne  %cl
    9660:	48 8b 05 51 88 00 00 	mov    0x8851(%rip),%rax        # 11eb8 <g_205>
    9667:	88 08                	mov    %cl,(%rax)
    9669:	0f b6 00             	movzbl (%rax),%eax
    966c:	0f b6 c0             	movzbl %al,%eax
    966f:	89 d6                	mov    %edx,%esi
    9671:	89 c7                	mov    %eax,%edi
    9673:	e8 e2 c4 ff ff       	callq  5b5a <safe_add_func_uint8_t_u_u>
    9678:	48 8b 85 b0 fc ff ff 	mov    -0x350(%rbp),%rax
    967f:	48 b9 7e aa 7f fb 2d 	movabs $0xa740972dfb7faa7e,%rcx
    9686:	97 40 a7 
    9689:	48 89 08             	mov    %rcx,(%rax)
    968c:	48 8b 85 b0 fc ff ff 	mov    -0x350(%rbp),%rax
    9693:	48 8b 10             	mov    (%rax),%rdx
    9696:	48 8b 85 30 fd ff ff 	mov    -0x2d0(%rbp),%rax
    969d:	48 8b 00             	mov    (%rax),%rax
    96a0:	48 8b 00             	mov    (%rax),%rax
    96a3:	48 8b 00             	mov    (%rax),%rax
    96a6:	48 8b 00             	mov    (%rax),%rax
    96a9:	8b 00                	mov    (%rax),%eax
    96ab:	48 98                	cltq   
    96ad:	48 39 c2             	cmp    %rax,%rdx
    96b0:	0f 9e c0             	setle  %al
    96b3:	88 05 f9 79 00 00    	mov    %al,0x79f9(%rip)        # 110b2 <g_122>
    96b9:	0f b6 05 f2 79 00 00 	movzbl 0x79f2(%rip),%eax        # 110b2 <g_122>
    96c0:	0f be c0             	movsbl %al,%eax
    96c3:	89 de                	mov    %ebx,%esi
    96c5:	89 c7                	mov    %eax,%edi
    96c7:	e8 65 bb ff ff       	callq  5231 <safe_mod_func_int8_t_s_s>
    96cc:	0f be c0             	movsbl %al,%eax
    96cf:	39 85 ac fc ff ff    	cmp    %eax,-0x354(%rbp)
    96d5:	0f 96 c0             	setbe  %al
    96d8:	0f b6 d0             	movzbl %al,%edx
    96db:	0f b7 05 1a 7b 00 00 	movzwl 0x7b1a(%rip),%eax        # 111fc <g_198>
    96e2:	0f b7 c0             	movzwl %ax,%eax
    96e5:	39 c2                	cmp    %eax,%edx
    96e7:	0f 95 c0             	setne  %al
    96ea:	0f b6 d0             	movzbl %al,%edx
    96ed:	48 8b 85 60 fd ff ff 	mov    -0x2a0(%rbp),%rax
    96f4:	8b 00                	mov    (%rax),%eax
    96f6:	21 c2                	and    %eax,%edx
    96f8:	48 8b 85 60 fd ff ff 	mov    -0x2a0(%rbp),%rax
    96ff:	89 10                	mov    %edx,(%rax)
    9701:	48 8b 05 08 88 00 00 	mov    0x8808(%rip),%rax        # 11f10 <g_527>
    9708:	48 8b 00             	mov    (%rax),%rax
    970b:	8b 18                	mov    (%rax),%ebx
    970d:	48 8d 05 24 7a 00 00 	lea    0x7a24(%rip),%rax        # 11138 <g_156+0x38>
    9714:	48 89 85 68 fd ff ff 	mov    %rax,-0x298(%rbp)
    971b:	48 8b 85 c8 fd ff ff 	mov    -0x238(%rbp),%rax
    9722:	48 39 85 68 fd ff ff 	cmp    %rax,-0x298(%rbp)
    9729:	75 1d                	jne    9748 <func_52+0x504>
    972b:	48 8b 05 3e 7a 00 00 	mov    0x7a3e(%rip),%rax        # 11170 <g_156+0x70>
    9732:	89 c2                	mov    %eax,%edx
    9734:	8b 85 a8 fc ff ff    	mov    -0x358(%rbp),%eax
    973a:	0f be c0             	movsbl %al,%eax
    973d:	89 d6                	mov    %edx,%esi
    973f:	89 c7                	mov    %eax,%edi
    9741:	e8 5b bb ff ff       	callq  52a1 <safe_lshift_func_int8_t_s_s>
    9746:	84 c0                	test   %al,%al
    9748:	be 00 00 00 00       	mov    $0x0,%esi
    974d:	bf 00 00 00 00       	mov    $0x0,%edi
    9752:	e8 bb ba ff ff       	callq  5212 <safe_mul_func_int8_t_s_s>
    9757:	0f b6 c0             	movzbl %al,%eax
    975a:	be b8 00 00 00       	mov    $0xb8,%esi
    975f:	89 c7                	mov    %eax,%edi
    9761:	e8 12 c4 ff ff       	callq  5b78 <safe_sub_func_uint8_t_u_u>
    9766:	89 c2                	mov    %eax,%edx
    9768:	48 8b 85 20 fd ff ff 	mov    -0x2e0(%rbp),%rax
    976f:	0f b6 d2             	movzbl %dl,%edx
    9772:	66 89 10             	mov    %dx,(%rax)
    9775:	0f b7 00             	movzwl (%rax),%eax
    9778:	66 85 c0             	test   %ax,%ax
    977b:	75 19                	jne    9796 <func_52+0x552>
    977d:	48 8b 85 30 fd ff ff 	mov    -0x2d0(%rbp),%rax
    9784:	48 8b 00             	mov    (%rax),%rax
    9787:	48 8b 00             	mov    (%rax),%rax
    978a:	48 8b 00             	mov    (%rax),%rax
    978d:	48 8b 00             	mov    (%rax),%rax
    9790:	8b 00                	mov    (%rax),%eax
    9792:	85 c0                	test   %eax,%eax
    9794:	74 07                	je     979d <func_52+0x559>
    9796:	b8 01 00 00 00       	mov    $0x1,%eax
    979b:	eb 05                	jmp    97a2 <func_52+0x55e>
    979d:	b8 00 00 00 00       	mov    $0x0,%eax
    97a2:	39 d8                	cmp    %ebx,%eax
    97a4:	0f 8d 8f 03 00 00    	jge    9b39 <func_52+0x8f5>
    97aa:	c6 85 c7 fc ff ff 01 	movb   $0x1,-0x339(%rbp)
    97b1:	48 8d 05 38 7a 00 00 	lea    0x7a38(%rip),%rax        # 111f0 <g_190>
    97b8:	48 89 85 70 fd ff ff 	mov    %rax,-0x290(%rbp)
    97bf:	c7 85 f8 fc ff ff 44 	movl   $0x3f238a44,-0x308(%rbp)
    97c6:	8a 23 3f 
    97c9:	c7 85 d0 fd ff ff fe 	movl   $0x8de643fe,-0x230(%rbp)
    97d0:	43 e6 8d 
    97d3:	c7 85 d4 fd ff ff fe 	movl   $0x8de643fe,-0x22c(%rbp)
    97da:	43 e6 8d 
    97dd:	c7 85 d8 fd ff ff fe 	movl   $0x8de643fe,-0x228(%rbp)
    97e4:	43 e6 8d 
    97e7:	c7 85 dc fd ff ff fe 	movl   $0x8de643fe,-0x224(%rbp)
    97ee:	43 e6 8d 
    97f1:	c7 85 fc fc ff ff 00 	movl   $0x0,-0x304(%rbp)
    97f8:	00 00 00 
    97fb:	8b 85 a8 fc ff ff    	mov    -0x358(%rbp),%eax
    9801:	48 63 d8             	movslq %eax,%rbx
    9804:	0f b6 95 c7 fc ff ff 	movzbl -0x339(%rbp),%edx
    980b:	8b 05 67 9c 00 00    	mov    0x9c67(%rip),%eax        # 13478 <g_507>
    9811:	89 d6                	mov    %edx,%esi
    9813:	89 c7                	mov    %eax,%edi
    9815:	e8 e3 c6 ff ff       	callq  5efd <safe_mod_func_uint32_t_u_u>
    981a:	39 85 ac fc ff ff    	cmp    %eax,-0x354(%rbp)
    9820:	75 0d                	jne    982f <func_52+0x5eb>
    9822:	48 8b 85 60 fd ff ff 	mov    -0x2a0(%rbp),%rax
    9829:	8b 00                	mov    (%rax),%eax
    982b:	85 c0                	test   %eax,%eax
    982d:	74 07                	je     9836 <func_52+0x5f2>
    982f:	b8 01 00 00 00       	mov    $0x1,%eax
    9834:	eb 05                	jmp    983b <func_52+0x5f7>
    9836:	b8 00 00 00 00       	mov    $0x0,%eax
    983b:	48 63 d0             	movslq %eax,%rdx
    983e:	48 8b 85 b0 fc ff ff 	mov    -0x350(%rbp),%rax
    9845:	48 89 10             	mov    %rdx,(%rax)
    9848:	48 8b 85 b0 fc ff ff 	mov    -0x350(%rbp),%rax
    984f:	48 8b 10             	mov    (%rax),%rdx
    9852:	48 8b 85 60 fd ff ff 	mov    -0x2a0(%rbp),%rax
    9859:	8b 00                	mov    (%rax),%eax
    985b:	48 98                	cltq   
    985d:	48 09 d0             	or     %rdx,%rax
    9860:	48 89 de             	mov    %rbx,%rsi
    9863:	48 89 c7             	mov    %rax,%rdi
    9866:	e8 8c c1 ff ff       	callq  59f7 <safe_div_func_int64_t_s_s>
    986b:	89 c6                	mov    %eax,%esi
    986d:	bf fb 00 00 00       	mov    $0xfb,%edi
    9872:	e8 8e c3 ff ff       	callq  5c05 <safe_lshift_func_uint8_t_u_s>
    9877:	84 c0                	test   %al,%al
    9879:	0f 95 c0             	setne  %al
    987c:	0f b6 c0             	movzbl %al,%eax
    987f:	89 85 f8 fc ff ff    	mov    %eax,-0x308(%rbp)
    9885:	8b 8d f8 fc ff ff    	mov    -0x308(%rbp),%ecx
    988b:	48 8b 85 68 fd ff ff 	mov    -0x298(%rbp),%rax
    9892:	48 8b 10             	mov    (%rax),%rdx
    9895:	48 63 c1             	movslq %ecx,%rax
    9898:	48 09 c2             	or     %rax,%rdx
    989b:	48 8b 85 68 fd ff ff 	mov    -0x298(%rbp),%rax
    98a2:	48 89 10             	mov    %rdx,(%rax)
    98a5:	48 8b 85 68 fd ff ff 	mov    -0x298(%rbp),%rax
    98ac:	48 8b 10             	mov    (%rax),%rdx
    98af:	48 8b 05 52 86 00 00 	mov    0x8652(%rip),%rax        # 11f08 <g_455>
    98b6:	48 8b 00             	mov    (%rax),%rax
    98b9:	48 39 85 70 fd ff ff 	cmp    %rax,-0x290(%rbp)
    98c0:	0f 95 c0             	setne  %al
    98c3:	0f b6 c8             	movzbl %al,%ecx
    98c6:	48 8b 85 20 fd ff ff 	mov    -0x2e0(%rbp),%rax
    98cd:	48 85 c0             	test   %rax,%rax
    98d0:	0f 95 c0             	setne  %al
    98d3:	89 c6                	mov    %eax,%esi
    98d5:	48 8b 85 48 fd ff ff 	mov    -0x2b8(%rbp),%rax
    98dc:	40 88 30             	mov    %sil,(%rax)
    98df:	48 8b 85 48 fd ff ff 	mov    -0x2b8(%rbp),%rax
    98e6:	0f b6 00             	movzbl (%rax),%eax
    98e9:	0f be c0             	movsbl %al,%eax
    98ec:	31 c8                	xor    %ecx,%eax
    98ee:	48 98                	cltq   
    98f0:	48 89 d6             	mov    %rdx,%rsi
    98f3:	48 89 c7             	mov    %rax,%rdi
    98f6:	e8 50 c7 ff ff       	callq  604b <safe_sub_func_uint64_t_u_u>
    98fb:	be 03 00 00 00       	mov    $0x3,%esi
    9900:	bf 00 00 00 00       	mov    $0x0,%edi
    9905:	e8 20 bc ff ff       	callq  552a <safe_rshift_func_int16_t_s_s>
    990a:	0f b6 c0             	movzbl %al,%eax
    990d:	89 c7                	mov    %eax,%edi
    990f:	e8 31 c2 ff ff       	callq  5b45 <safe_unary_minus_func_uint8_t_u>
    9914:	0f b6 d0             	movzbl %al,%edx
    9917:	48 8b 85 60 fd ff ff 	mov    -0x2a0(%rbp),%rax
    991e:	89 10                	mov    %edx,(%rax)
    9920:	48 8b 85 60 fd ff ff 	mov    -0x2a0(%rbp),%rax
    9927:	8b 00                	mov    (%rax),%eax
    9929:	85 c0                	test   %eax,%eax
    992b:	74 6a                	je     9997 <func_52+0x753>
    992d:	48 b8 f4 1f 95 71 34 	movabs $0x7468003471951ff4,%rax
    9934:	00 68 74 
    9937:	48 89 85 b8 fd ff ff 	mov    %rax,-0x248(%rbp)
    993e:	c6 05 6d 77 00 00 00 	movb   $0x0,0x776d(%rip)        # 110b2 <g_122>
    9945:	90                   	nop
    9946:	0f b6 05 65 77 00 00 	movzbl 0x7765(%rip),%eax        # 110b2 <g_122>
    994d:	3c e4                	cmp    $0xe4,%al
    994f:	7d 0c                	jge    995d <func_52+0x719>
    9951:	48 8b 85 b8 fc ff ff 	mov    -0x348(%rbp),%rax
    9958:	e9 fa 01 00 00       	jmpq   9b57 <func_52+0x913>
    995d:	80 bd c7 fc ff ff 00 	cmpb   $0x0,-0x339(%rbp)
    9964:	90                   	nop
    9965:	f3 0f 1e fa          	endbr64 
    9969:	48 8b 85 18 fd ff ff 	mov    -0x2e8(%rbp),%rax
    9970:	48 8b 00             	mov    (%rax),%rax
    9973:	48 8b 10             	mov    (%rax),%rdx
    9976:	48 8b 05 9b 85 00 00 	mov    0x859b(%rip),%rax        # 11f18 <g_526>
    997d:	48 8b 00             	mov    (%rax),%rax
    9980:	48 8b 12             	mov    (%rdx),%rdx
    9983:	48 89 10             	mov    %rdx,(%rax)
    9986:	b8 88 d4 9e e5       	mov    $0xe59ed488,%eax
    998b:	48 31 85 b8 fd ff ff 	xor    %rax,-0x248(%rbp)
    9992:	e9 b9 01 00 00       	jmpq   9b50 <func_52+0x90c>
    9997:	48 c7 85 78 fd ff ff 	movq   $0xffffffffffffffff,-0x288(%rbp)
    999e:	ff ff ff ff 
    99a2:	48 8d 05 55 78 00 00 	lea    0x7855(%rip),%rax        # 111fe <g_286>
    99a9:	48 89 85 28 fd ff ff 	mov    %rax,-0x2d8(%rbp)
    99b0:	48 8d 85 28 fd ff ff 	lea    -0x2d8(%rbp),%rax
    99b7:	48 89 85 80 fd ff ff 	mov    %rax,-0x280(%rbp)
    99be:	48 c7 85 88 fd ff ff 	movq   $0x0,-0x278(%rbp)
    99c5:	00 00 00 00 
    99c9:	c7 85 00 fd ff ff 0b 	movl   $0xd5b4c30b,-0x300(%rbp)
    99d0:	c3 b4 d5 
    99d3:	c7 85 04 fd ff ff 09 	movl   $0x9,-0x2fc(%rbp)
    99da:	00 00 00 
    99dd:	c7 85 08 fd ff ff 00 	movl   $0x0,-0x2f8(%rbp)
    99e4:	00 00 00 
    99e7:	c7 85 0c fd ff ff f4 	movl   $0x63683df4,-0x2f4(%rbp)
    99ee:	3d 68 63 
    99f1:	c7 85 10 fd ff ff fc 	movl   $0xfffffffc,-0x2f0(%rbp)
    99f8:	ff ff ff 
    99fb:	c7 85 e0 fd ff ff 09 	movl   $0x9,-0x220(%rbp)
    9a02:	00 00 00 
    9a05:	c7 85 e4 fd ff ff 09 	movl   $0x9,-0x21c(%rbp)
    9a0c:	00 00 00 
    9a0f:	c7 85 e8 fd ff ff 30 	movl   $0x944f1430,-0x218(%rbp)
    9a16:	14 4f 94 
    9a19:	c7 85 ec fd ff ff 09 	movl   $0x9,-0x214(%rbp)
    9a20:	00 00 00 
    9a23:	c7 85 f0 fd ff ff 09 	movl   $0x9,-0x210(%rbp)
    9a2a:	00 00 00 
    9a2d:	c7 85 f4 fd ff ff 30 	movl   $0x944f1430,-0x20c(%rbp)
    9a34:	14 4f 94 
    9a37:	48 8b 05 ea 84 00 00 	mov    0x84ea(%rip),%rax        # 11f28 <g_543>
    9a3e:	48 8b 95 b8 fc ff ff 	mov    -0x348(%rbp),%rdx
    9a45:	48 89 10             	mov    %rdx,(%rax)
    9a48:	c7 05 26 9a 00 00 00 	movl   $0x0,0x9a26(%rip)        # 13478 <g_507>
    9a4f:	00 00 00 
    9a52:	e9 a8 00 00 00       	jmpq   9aff <func_52+0x8bb>
    9a57:	c7 85 14 fd ff ff f6 	movl   $0xfffffff6,-0x2ec(%rbp)
    9a5e:	ff ff ff 
    9a61:	48 8d 05 28 9a 00 00 	lea    0x9a28(%rip),%rax        # 13490 <g_594>
    9a68:	48 89 85 90 fd ff ff 	mov    %rax,-0x270(%rbp)
    9a6f:	48 8d 05 e6 77 00 00 	lea    0x77e6(%rip),%rax        # 1125c <g_324+0x1c>
    9a76:	48 89 85 98 fd ff ff 	mov    %rax,-0x268(%rbp)
    9a7d:	48 c7 85 a0 fd ff ff 	movq   $0x0,-0x260(%rbp)
    9a84:	00 00 00 00 
    9a88:	48 c7 85 a8 fd ff ff 	movq   $0x0,-0x258(%rbp)
    9a8f:	00 00 00 00 
    9a93:	48 8d 95 90 fe ff ff 	lea    -0x170(%rbp),%rdx
    9a9a:	b8 00 00 00 00       	mov    $0x0,%eax
    9a9f:	b9 28 00 00 00       	mov    $0x28,%ecx
    9aa4:	48 89 d7             	mov    %rdx,%rdi
    9aa7:	f3 48 ab             	rep stos %rax,%es:(%rdi)
    9aaa:	48 8d 85 c8 fc ff ff 	lea    -0x338(%rbp),%rax
    9ab1:	48 89 85 a0 fe ff ff 	mov    %rax,-0x160(%rbp)
    9ab8:	48 8d 85 c8 fc ff ff 	lea    -0x338(%rbp),%rax
    9abf:	48 89 85 00 ff ff ff 	mov    %rax,-0x100(%rbp)
    9ac6:	48 8d 85 c8 fc ff ff 	lea    -0x338(%rbp),%rax
    9acd:	48 89 85 60 ff ff ff 	mov    %rax,-0xa0(%rbp)
    9ad4:	48 8d 85 c8 fc ff ff 	lea    -0x338(%rbp),%rax
    9adb:	48 89 45 c0          	mov    %rax,-0x40(%rbp)
    9adf:	48 b8 b8 34 18 ee 75 	movabs $0xd2426275ee1834b8,%rax
    9ae6:	62 42 d2 
    9ae9:	48 89 85 b0 fd ff ff 	mov    %rax,-0x250(%rbp)
    9af0:	8b 05 82 99 00 00    	mov    0x9982(%rip),%eax        # 13478 <g_507>
    9af6:	83 c0 01             	add    $0x1,%eax
    9af9:	89 05 79 99 00 00    	mov    %eax,0x9979(%rip)        # 13478 <g_507>
    9aff:	8b 05 73 99 00 00    	mov    0x9973(%rip),%eax        # 13478 <g_507>
    9b05:	83 f8 01             	cmp    $0x1,%eax
    9b08:	0f 86 49 ff ff ff    	jbe    9a57 <func_52+0x813>
    9b0e:	48 8b 85 60 fd ff ff 	mov    -0x2a0(%rbp),%rax
    9b15:	8b 10                	mov    (%rax),%edx
    9b17:	48 8b 85 30 fd ff ff 	mov    -0x2d0(%rbp),%rax
    9b1e:	48 8b 00             	mov    (%rax),%rax
    9b21:	48 8b 00             	mov    (%rax),%rax
    9b24:	48 8b 00             	mov    (%rax),%rax
    9b27:	48 8b 00             	mov    (%rax),%rax
    9b2a:	8b 00                	mov    (%rax),%eax
    9b2c:	31 c2                	xor    %eax,%edx
    9b2e:	48 8b 85 60 fd ff ff 	mov    -0x2a0(%rbp),%rax
    9b35:	89 10                	mov    %edx,(%rax)
    9b37:	eb 17                	jmp    9b50 <func_52+0x90c>
    9b39:	48 8b 15 68 83 00 00 	mov    0x8368(%rip),%rdx        # 11ea8 <g_40>
    9b40:	48 8b 05 d1 83 00 00 	mov    0x83d1(%rip),%rax        # 11f18 <g_526>
    9b47:	48 8b 00             	mov    (%rax),%rax
    9b4a:	48 8b 12             	mov    (%rdx),%rdx
    9b4d:	48 89 10             	mov    %rdx,(%rax)
    9b50:	48 8b 85 b8 fc ff ff 	mov    -0x348(%rbp),%rax
    9b57:	48 8b 5d d8          	mov    -0x28(%rbp),%rbx
    9b5b:	64 48 33 1c 25 28 00 	xor    %fs:0x28,%rbx
    9b62:	00 00 
    9b64:	74 05                	je     9b6b <func_52+0x927>
    9b66:	e8 05 b5 ff ff       	callq  5070 <__stack_chk_fail@plt>
    9b6b:	48 81 c4 48 03 00 00 	add    $0x348,%rsp
    9b72:	5b                   	pop    %rbx
    9b73:	41 5c                	pop    %r12
    9b75:	41 5d                	pop    %r13
    9b77:	5d                   	pop    %rbp
    9b78:	c3                   	retq   

0000000000009b79 <func_62>:
    9b79:	f3 0f 1e fa          	endbr64 
    9b7d:	55                   	push   %rbp
    9b7e:	48 89 e5             	mov    %rsp,%rbp
    9b81:	53                   	push   %rbx
    9b82:	48 83 ec 68          	sub    $0x68,%rsp
    9b86:	89 7d 9c             	mov    %edi,-0x64(%rbp)
    9b89:	89 f0                	mov    %esi,%eax
    9b8b:	48 89 55 90          	mov    %rdx,-0x70(%rbp)
    9b8f:	88 45 98             	mov    %al,-0x68(%rbp)
    9b92:	64 48 8b 04 25 28 00 	mov    %fs:0x28,%rax
    9b99:	00 00 
    9b9b:	48 89 45 e8          	mov    %rax,-0x18(%rbp)
    9b9f:	31 c0                	xor    %eax,%eax
    9ba1:	66 c7 45 a2 00 00    	movw   $0x0,-0x5e(%rbp)
    9ba7:	c7 45 a4 00 00 00 00 	movl   $0x0,-0x5c(%rbp)
    9bae:	80 7d 98 00          	cmpb   $0x0,-0x68(%rbp)
    9bb2:	75 25                	jne    9bd9 <func_62+0x60>
    9bb4:	be 03 00 00 00       	mov    $0x3,%esi
    9bb9:	bf 72 00 00 00       	mov    $0x72,%edi
    9bbe:	e8 72 b7 ff ff       	callq  5335 <safe_rshift_func_int8_t_s_s>
    9bc3:	48 0f be c0          	movsbq %al,%rax
    9bc7:	be 05 00 00 00       	mov    $0x5,%esi
    9bcc:	48 89 c7             	mov    %rax,%rdi
    9bcf:	e8 5a c4 ff ff       	callq  602e <safe_add_func_uint64_t_u_u>
    9bd4:	48 85 c0             	test   %rax,%rax
    9bd7:	74 07                	je     9be0 <func_62+0x67>
    9bd9:	bb 01 00 00 00       	mov    $0x1,%ebx
    9bde:	eb 05                	jmp    9be5 <func_62+0x6c>
    9be0:	bb 00 00 00 00       	mov    $0x0,%ebx
    9be5:	0f be 45 98          	movsbl -0x68(%rbp),%eax
    9be9:	be 61 f1 58 c0       	mov    $0xc058f161,%esi
    9bee:	89 c7                	mov    %eax,%edi
    9bf0:	e8 30 c3 ff ff       	callq  5f25 <safe_div_func_uint32_t_u_u>
    9bf5:	89 c2                	mov    %eax,%edx
    9bf7:	48 0f bf 45 a2       	movswq -0x5e(%rbp),%rax
    9bfc:	48 89 d6             	mov    %rdx,%rsi
    9bff:	48 89 c7             	mov    %rax,%rdi
    9c02:	e8 44 c4 ff ff       	callq  604b <safe_sub_func_uint64_t_u_u>
    9c07:	8b 15 6b 98 00 00    	mov    0x986b(%rip),%edx        # 13478 <g_507>
    9c0d:	89 d2                	mov    %edx,%edx
    9c0f:	48 39 d0             	cmp    %rdx,%rax
    9c12:	73 07                	jae    9c1b <func_62+0xa2>
    9c14:	66 83 7d a2 00       	cmpw   $0x0,-0x5e(%rbp)
    9c19:	79 07                	jns    9c22 <func_62+0xa9>
    9c1b:	b8 01 00 00 00       	mov    $0x1,%eax
    9c20:	eb 05                	jmp    9c27 <func_62+0xae>
    9c22:	b8 00 00 00 00       	mov    $0x0,%eax
    9c27:	83 f8 01             	cmp    $0x1,%eax
    9c2a:	0f 96 c0             	setbe  %al
    9c2d:	0f b6 c0             	movzbl %al,%eax
    9c30:	39 c3                	cmp    %eax,%ebx
    9c32:	0f 9c c0             	setl   %al
    9c35:	0f b6 d0             	movzbl %al,%edx
    9c38:	8b 45 a4             	mov    -0x5c(%rbp),%eax
    9c3b:	21 d0                	and    %edx,%eax
    9c3d:	89 45 a4             	mov    %eax,-0x5c(%rbp)
    9c40:	c6 05 6b 74 00 00 e6 	movb   $0xe6,0x746b(%rip)        # 110b2 <g_122>
    9c47:	eb 39                	jmp    9c82 <func_62+0x109>
    9c49:	48 8b 15 58 82 00 00 	mov    0x8258(%rip),%rdx        # 11ea8 <g_40>
    9c50:	48 8b 05 51 82 00 00 	mov    0x8251(%rip),%rax        # 11ea8 <g_40>
    9c57:	48 8b 12             	mov    (%rdx),%rdx
    9c5a:	48 89 10             	mov    %rdx,(%rax)
    9c5d:	8b 45 a4             	mov    -0x5c(%rbp),%eax
    9c60:	85 c0                	test   %eax,%eax
    9c62:	74 02                	je     9c66 <func_62+0xed>
    9c64:	eb da                	jmp    9c40 <func_62+0xc7>
    9c66:	0f b6 05 45 74 00 00 	movzbl 0x7445(%rip),%eax        # 110b2 <g_122>
    9c6d:	0f be c0             	movsbl %al,%eax
    9c70:	be 02 00 00 00       	mov    $0x2,%esi
    9c75:	89 c7                	mov    %eax,%edi
    9c77:	e8 58 b5 ff ff       	callq  51d4 <safe_add_func_int8_t_s_s>
    9c7c:	88 05 30 74 00 00    	mov    %al,0x7430(%rip)        # 110b2 <g_122>
    9c82:	0f b6 05 29 74 00 00 	movzbl 0x7429(%rip),%eax        # 110b2 <g_122>
    9c89:	3c fa                	cmp    $0xfa,%al
    9c8b:	7c bc                	jl     9c49 <func_62+0xd0>
    9c8d:	0f bf 55 a2          	movswl -0x5e(%rbp),%edx
    9c91:	8b 45 a4             	mov    -0x5c(%rbp),%eax
    9c94:	39 c2                	cmp    %eax,%edx
    9c96:	7d 3d                	jge    9cd5 <func_62+0x15c>
    9c98:	48 b8 12 23 1c af 1b 	movabs $0x7d1cf31baf1c2312,%rax
    9c9f:	f3 1c 7d 
    9ca2:	48 89 45 d8          	mov    %rax,-0x28(%rbp)
    9ca6:	48 8d 05 97 75 00 00 	lea    0x7597(%rip),%rax        # 11244 <g_324+0x4>
    9cad:	48 89 45 e0          	mov    %rax,-0x20(%rbp)
    9cb1:	48 8b 05 f8 81 00 00 	mov    0x81f8(%rip),%rax        # 11eb0 <g_194>
    9cb8:	48 8b 00             	mov    (%rax),%rax
    9cbb:	48 39 45 d8          	cmp    %rax,-0x28(%rbp)
    9cbf:	0f 9d c0             	setge  %al
    9cc2:	0f b6 d0             	movzbl %al,%edx
    9cc5:	48 8b 45 e0          	mov    -0x20(%rbp),%rax
    9cc9:	89 10                	mov    %edx,(%rax)
    9ccb:	66 0f be 45 98       	movsbw -0x68(%rbp),%ax
    9cd0:	e9 fb 00 00 00       	jmpq   9dd0 <func_62+0x257>
    9cd5:	48 8d 45 a4          	lea    -0x5c(%rbp),%rax
    9cd9:	48 89 45 a8          	mov    %rax,-0x58(%rbp)
    9cdd:	48 8d 45 a8          	lea    -0x58(%rbp),%rax
    9ce1:	48 89 45 b0          	mov    %rax,-0x50(%rbp)
    9ce5:	48 8d 45 b0          	lea    -0x50(%rbp),%rax
    9ce9:	48 89 45 b8          	mov    %rax,-0x48(%rbp)
    9ced:	48 8d 05 c0 73 00 00 	lea    0x73c0(%rip),%rax        # 110b4 <g_123>
    9cf4:	48 89 45 c0          	mov    %rax,-0x40(%rbp)
    9cf8:	66 c7 45 a2 e9 ff    	movw   $0xffe9,-0x5e(%rbp)
    9cfe:	eb 29                	jmp    9d29 <func_62+0x1b0>
    9d00:	48 8d 45 a8          	lea    -0x58(%rbp),%rax
    9d04:	48 89 45 c8          	mov    %rax,-0x38(%rbp)
    9d08:	48 8d 05 ed 74 00 00 	lea    0x74ed(%rip),%rax        # 111fc <g_198>
    9d0f:	48 89 45 d0          	mov    %rax,-0x30(%rbp)
    9d13:	48 8b 55 a8          	mov    -0x58(%rbp),%rdx
    9d17:	48 8b 45 c8          	mov    -0x38(%rbp),%rax
    9d1b:	48 89 10             	mov    %rdx,(%rax)
    9d1e:	0f b7 45 a2          	movzwl -0x5e(%rbp),%eax
    9d22:	83 c0 01             	add    $0x1,%eax
    9d25:	66 89 45 a2          	mov    %ax,-0x5e(%rbp)
    9d29:	66 83 7d a2 12       	cmpw   $0x12,-0x5e(%rbp)
    9d2e:	75 d0                	jne    9d00 <func_62+0x187>
    9d30:	48 8b 15 71 74 00 00 	mov    0x7471(%rip),%rdx        # 111a8 <g_156+0xa8>
    9d37:	0f b7 05 3a 75 00 00 	movzwl 0x753a(%rip),%eax        # 11278 <g_436>
    9d3e:	0f b7 c0             	movzwl %ax,%eax
    9d41:	48 09 d0             	or     %rdx,%rax
    9d44:	48 3d a3 00 00 00    	cmp    $0xa3,%rax
    9d4a:	0f 97 c0             	seta   %al
    9d4d:	0f b6 d8             	movzbl %al,%ebx
    9d50:	48 8b 45 90          	mov    -0x70(%rbp),%rax
    9d54:	8b 00                	mov    (%rax),%eax
    9d56:	be 03 00 00 00       	mov    $0x3,%esi
    9d5b:	89 c7                	mov    %eax,%edi
    9d5d:	e8 a3 b8 ff ff       	callq  5605 <safe_sub_func_int32_t_s_s>
    9d62:	98                   	cwtl   
    9d63:	89 de                	mov    %ebx,%esi
    9d65:	89 c7                	mov    %eax,%edi
    9d67:	e8 67 b6 ff ff       	callq  53d3 <safe_sub_func_int16_t_s_s>
    9d6c:	48 8b 15 3d 81 00 00 	mov    0x813d(%rip),%rdx        # 11eb0 <g_194>
    9d73:	48 8b 05 36 81 00 00 	mov    0x8136(%rip),%rax        # 11eb0 <g_194>
    9d7a:	48 8b 12             	mov    (%rdx),%rdx
    9d7d:	48 89 10             	mov    %rdx,(%rax)
    9d80:	b9 01 00 00 00       	mov    $0x1,%ecx
    9d85:	48 8b 45 b8          	mov    -0x48(%rbp),%rax
    9d89:	48 8b 00             	mov    (%rax),%rax
    9d8c:	48 8b 00             	mov    (%rax),%rax
    9d8f:	8b 10                	mov    (%rax),%edx
    9d91:	48 8b 45 b8          	mov    -0x48(%rbp),%rax
    9d95:	48 8b 00             	mov    (%rax),%rax
    9d98:	48 8b 00             	mov    (%rax),%rax
    9d9b:	31 ca                	xor    %ecx,%edx
    9d9d:	89 10                	mov    %edx,(%rax)
    9d9f:	8b 00                	mov    (%rax),%eax
    9da1:	89 c1                	mov    %eax,%ecx
    9da3:	8b 45 9c             	mov    -0x64(%rbp),%eax
    9da6:	89 c2                	mov    %eax,%edx
    9da8:	48 8b 05 39 81 00 00 	mov    0x8139(%rip),%rax        # 11ee8 <g_396>
    9daf:	48 8b 00             	mov    (%rax),%rax
    9db2:	48 8b 00             	mov    (%rax),%rax
    9db5:	21 ca                	and    %ecx,%edx
    9db7:	88 10                	mov    %dl,(%rax)
    9db9:	48 8b 45 c0          	mov    -0x40(%rbp),%rax
    9dbd:	c7 00 01 00 00 00    	movl   $0x1,(%rax)
    9dc3:	48 8b 05 3e 81 00 00 	mov    0x813e(%rip),%rax        # 11f08 <g_455>
    9dca:	48 8b 00             	mov    (%rax),%rax
    9dcd:	0f b7 00             	movzwl (%rax),%eax
    9dd0:	48 8b 4d e8          	mov    -0x18(%rbp),%rcx
    9dd4:	64 48 33 0c 25 28 00 	xor    %fs:0x28,%rcx
    9ddb:	00 00 
    9ddd:	74 05                	je     9de4 <func_62+0x26b>
    9ddf:	e8 8c b2 ff ff       	callq  5070 <__stack_chk_fail@plt>
    9de4:	48 83 c4 68          	add    $0x68,%rsp
    9de8:	5b                   	pop    %rbx
    9de9:	5d                   	pop    %rbp
    9dea:	c3                   	retq   

0000000000009deb <func_66>:
    9deb:	f3 0f 1e fa          	endbr64 
    9def:	55                   	push   %rbp
    9df0:	48 89 e5             	mov    %rsp,%rbp
    9df3:	41 57                	push   %r15
    9df5:	41 56                	push   %r14
    9df7:	41 55                	push   %r13
    9df9:	41 54                	push   %r12
    9dfb:	53                   	push   %rbx
    9dfc:	48 81 ec 78 04 00 00 	sub    $0x478,%rsp
    9e03:	48 89 bd 98 fb ff ff 	mov    %rdi,-0x468(%rbp)
    9e0a:	48 89 b5 90 fb ff ff 	mov    %rsi,-0x470(%rbp)
    9e11:	48 89 95 88 fb ff ff 	mov    %rdx,-0x478(%rbp)
    9e18:	48 89 8d 80 fb ff ff 	mov    %rcx,-0x480(%rbp)
    9e1f:	64 48 8b 04 25 28 00 	mov    %fs:0x28,%rax
    9e26:	00 00 
    9e28:	48 89 45 c8          	mov    %rax,-0x38(%rbp)
    9e2c:	31 c0                	xor    %eax,%eax
    9e2e:	c7 85 a4 fb ff ff 01 	movl   $0x1,-0x45c(%rbp)
    9e35:	00 00 00 
    9e38:	48 8d 85 d0 fb ff ff 	lea    -0x430(%rbp),%rax
    9e3f:	48 8d 15 fa 39 00 00 	lea    0x39fa(%rip),%rdx        # d840 <g_657+0x7e0>
    9e46:	b9 38 00 00 00       	mov    $0x38,%ecx
    9e4b:	48 89 c7             	mov    %rax,%rdi
    9e4e:	48 89 d6             	mov    %rdx,%rsi
    9e51:	f3 48 a5             	rep movsq %ds:(%rsi),%es:(%rdi)
    9e54:	48 b8 f2 b2 fb 32 fa 	movabs $0xf84ff3fa32fbb2f2,%rax
    9e5b:	f3 4f f8 
    9e5e:	48 89 85 a8 fb ff ff 	mov    %rax,-0x458(%rbp)
    9e65:	48 8d 85 90 fd ff ff 	lea    -0x270(%rbp),%rax
    9e6c:	48 8d 15 ed 7d 00 00 	lea    0x7ded(%rip),%rdx        # 11c60 <g_1757+0x80c>
    9e73:	b9 46 00 00 00       	mov    $0x46,%ecx
    9e78:	48 89 c7             	mov    %rax,%rdi
    9e7b:	48 89 d6             	mov    %rdx,%rsi
    9e7e:	f3 48 a5             	rep movsq %ds:(%rsi),%es:(%rdi)
    9e81:	8b 85 60 fc ff ff    	mov    -0x3a0(%rbp),%eax
    9e87:	33 85 a4 fb ff ff    	xor    -0x45c(%rbp),%eax
    9e8d:	89 85 60 fc ff ff    	mov    %eax,-0x3a0(%rbp)
    9e93:	8b 85 a4 fb ff ff    	mov    -0x45c(%rbp),%eax
    9e99:	0f b6 c0             	movzbl %al,%eax
    9e9c:	48 c7 85 a8 fb ff ff 	movq   $0x0,-0x458(%rbp)
    9ea3:	00 00 00 00 
    9ea7:	89 c6                	mov    %eax,%esi
    9ea9:	bf 00 00 00 00       	mov    $0x0,%edi
    9eae:	e8 e0 bc ff ff       	callq  5b93 <safe_mul_func_uint8_t_u_u>
    9eb3:	3c c5                	cmp    $0xc5,%al
    9eb5:	0f 95 c0             	setne  %al
    9eb8:	0f b6 c0             	movzbl %al,%eax
    9ebb:	48 89 85 78 fb ff ff 	mov    %rax,-0x488(%rbp)
    9ec2:	8b 85 a4 fb ff ff    	mov    -0x45c(%rbp),%eax
    9ec8:	44 0f bf e0          	movswl %ax,%r12d
    9ecc:	8b 05 06 72 00 00    	mov    0x7206(%rip),%eax        # 110d8 <g_126>
    9ed2:	0f be d8             	movsbl %al,%ebx
    9ed5:	48 8b 05 7c 71 00 00 	mov    0x717c(%rip),%rax        # 11058 <g_50+0x18>
    9edc:	89 85 74 fb ff ff    	mov    %eax,-0x48c(%rbp)
    9ee2:	44 8b 3d 43 71 00 00 	mov    0x7143(%rip),%r15d        # 1102c <g_26>
    9ee9:	48 8b 05 68 71 00 00 	mov    0x7168(%rip),%rax        # 11058 <g_50+0x18>
    9ef0:	44 0f bf f0          	movswl %ax,%r14d
    9ef4:	8b 85 a4 fb ff ff    	mov    -0x45c(%rbp),%eax
    9efa:	44 0f b7 e8          	movzwl %ax,%r13d
    9efe:	8b 85 a4 fb ff ff    	mov    -0x45c(%rbp),%eax
    9f04:	0f be c8             	movsbl %al,%ecx
    9f07:	89 8d 70 fb ff ff    	mov    %ecx,-0x490(%rbp)
    9f0d:	48 8b 85 90 fb ff ff 	mov    -0x470(%rbp),%rax
    9f14:	89 85 60 fc ff ff    	mov    %eax,-0x3a0(%rbp)
    9f1a:	8b bd 60 fc ff ff    	mov    -0x3a0(%rbp),%edi
    9f20:	89 bd 6c fb ff ff    	mov    %edi,-0x494(%rbp)
    9f26:	0f b6 05 6f 71 00 00 	movzbl 0x716f(%rip),%eax        # 1109c <g_90+0x1c>
    9f2d:	0f be c0             	movsbl %al,%eax
    9f30:	89 c6                	mov    %eax,%esi
    9f32:	bf f7 ff ff ff       	mov    $0xfffffff7,%edi
    9f37:	e8 f5 b2 ff ff       	callq  5231 <safe_mod_func_int8_t_s_s>
    9f3c:	48 0f be d0          	movsbq %al,%rdx
    9f40:	48 89 95 60 fb ff ff 	mov    %rdx,-0x4a0(%rbp)
    9f47:	8b 85 a4 fb ff ff    	mov    -0x45c(%rbp),%eax
    9f4d:	44 0f b6 c8          	movzbl %al,%r9d
    9f51:	44 89 8d 68 fb ff ff 	mov    %r9d,-0x498(%rbp)
    9f58:	0f b6 05 28 71 00 00 	movzbl 0x7128(%rip),%eax        # 11087 <g_90+0x7>
    9f5f:	0f b6 c0             	movzbl %al,%eax
    9f62:	be 05 00 00 00       	mov    $0x5,%esi
    9f67:	89 c7                	mov    %eax,%edi
    9f69:	e8 50 bd ff ff       	callq  5cbe <safe_rshift_func_uint8_t_u_u>
    9f6e:	0f b6 c0             	movzbl %al,%eax
    9f71:	8b b5 68 fb ff ff    	mov    -0x498(%rbp),%esi
    9f77:	89 c7                	mov    %eax,%edi
    9f79:	e8 15 bc ff ff       	callq  5b93 <safe_mul_func_uint8_t_u_u>
    9f7e:	0f b6 d0             	movzbl %al,%edx
    9f81:	0f b6 05 10 71 00 00 	movzbl 0x7110(%rip),%eax        # 11098 <g_90+0x18>
    9f88:	0f b6 c0             	movzbl %al,%eax
    9f8b:	48 89 d6             	mov    %rdx,%rsi
    9f8e:	48 89 c7             	mov    %rax,%rdi
    9f91:	e8 98 c0 ff ff       	callq  602e <safe_add_func_uint64_t_u_u>
    9f96:	48 39 85 60 fb ff ff 	cmp    %rax,-0x4a0(%rbp)
    9f9d:	0f 95 c0             	setne  %al
    9fa0:	0f b6 c0             	movzbl %al,%eax
    9fa3:	39 85 6c fb ff ff    	cmp    %eax,-0x494(%rbp)
    9fa9:	0f 9c c0             	setl   %al
    9fac:	0f b6 c0             	movzbl %al,%eax
    9faf:	8b b5 70 fb ff ff    	mov    -0x490(%rbp),%esi
    9fb5:	89 c7                	mov    %eax,%edi
    9fb7:	e8 75 b2 ff ff       	callq  5231 <safe_mod_func_int8_t_s_s>
    9fbc:	0f be c0             	movsbl %al,%eax
    9fbf:	44 8b 85 74 fb ff ff 	mov    -0x48c(%rbp),%r8d
    9fc6:	44 89 f9             	mov    %r15d,%ecx
    9fc9:	44 89 f2             	mov    %r14d,%edx
    9fcc:	44 89 ee             	mov    %r13d,%esi
    9fcf:	89 c7                	mov    %eax,%edi
    9fd1:	e8 e3 19 00 00       	callq  b9b9 <func_81>
    9fd6:	8b 15 48 70 00 00    	mov    0x7048(%rip),%edx        # 11024 <g_2>
    9fdc:	89 d7                	mov    %edx,%edi
    9fde:	44 89 e1             	mov    %r12d,%ecx
    9fe1:	89 da                	mov    %ebx,%edx
    9fe3:	48 89 c6             	mov    %rax,%rsi
    9fe6:	e8 de 02 00 00       	callq  a2c9 <func_76>
    9feb:	48 39 85 78 fb ff ff 	cmp    %rax,-0x488(%rbp)
    9ff2:	74 0c                	je     a000 <func_66+0x215>
    9ff4:	48 8b 05 4d 70 00 00 	mov    0x704d(%rip),%rax        # 11048 <g_50+0x8>
    9ffb:	e9 a3 02 00 00       	jmpq   a2a3 <func_66+0x4b8>
    a000:	48 8d 05 3d 72 00 00 	lea    0x723d(%rip),%rax        # 11244 <g_324+0x4>
    a007:	48 89 85 b0 fb ff ff 	mov    %rax,-0x450(%rbp)
    a00e:	48 8d 05 c7 70 00 00 	lea    0x70c7(%rip),%rax        # 110dc <g_139>
    a015:	48 89 85 b8 fb ff ff 	mov    %rax,-0x448(%rbp)
    a01c:	48 8d 05 d3 71 00 00 	lea    0x71d3(%rip),%rax        # 111f6 <g_190+0x6>
    a023:	48 89 85 c0 fb ff ff 	mov    %rax,-0x440(%rbp)
    a02a:	48 8d 05 cd 71 00 00 	lea    0x71cd(%rip),%rax        # 111fe <g_286>
    a031:	48 89 85 c8 fb ff ff 	mov    %rax,-0x438(%rbp)
    a038:	0f b7 05 bf 71 00 00 	movzwl 0x71bf(%rip),%eax        # 111fe <g_286>
    a03f:	66 85 c0             	test   %ax,%ax
    a042:	74 11                	je     a055 <func_66+0x26a>
    a044:	8b 05 e2 6f 00 00    	mov    0x6fe2(%rip),%eax        # 1102c <g_26>
    a04a:	85 c0                	test   %eax,%eax
    a04c:	74 07                	je     a055 <func_66+0x26a>
    a04e:	b8 01 00 00 00       	mov    $0x1,%eax
    a053:	eb 05                	jmp    a05a <func_66+0x26f>
    a055:	b8 00 00 00 00       	mov    $0x0,%eax
    a05a:	0f b7 d8             	movzwl %ax,%ebx
    a05d:	48 8b 05 1c 72 00 00 	mov    0x721c(%rip),%rax        # 11280 <g_462>
    a064:	89 c6                	mov    %eax,%esi
    a066:	bf b2 cc 6c 35       	mov    $0x356cccb2,%edi
    a06b:	e8 48 be ff ff       	callq  5eb8 <safe_add_func_uint32_t_u_u>
    a070:	0f b7 c0             	movzwl %ax,%eax
    a073:	89 de                	mov    %ebx,%esi
    a075:	89 c7                	mov    %eax,%edi
    a077:	e8 c1 bc ff ff       	callq  5d3d <safe_mul_func_uint16_t_u_u>
    a07c:	0f b7 d0             	movzwl %ax,%edx
    a07f:	48 8b 85 b0 fb ff ff 	mov    -0x450(%rbp),%rax
    a086:	89 10                	mov    %edx,(%rax)
    a088:	48 8b 05 f1 71 00 00 	mov    0x71f1(%rip),%rax        # 11280 <g_462>
    a08f:	48 85 c0             	test   %rax,%rax
    a092:	0f 85 cf 01 00 00    	jne    a267 <func_66+0x47c>
    a098:	8b 85 20 fc ff ff    	mov    -0x3e0(%rbp),%eax
    a09e:	0f bf d8             	movswl %ax,%ebx
    a0a1:	48 8b 85 b0 fb ff ff 	mov    -0x450(%rbp),%rax
    a0a8:	8b 00                	mov    (%rax),%eax
    a0aa:	44 0f b6 e0          	movzbl %al,%r12d
    a0ae:	48 8b 85 b8 fb ff ff 	mov    -0x448(%rbp),%rax
    a0b5:	8b 10                	mov    (%rax),%edx
    a0b7:	48 8b 85 b8 fb ff ff 	mov    -0x448(%rbp),%rax
    a0be:	89 10                	mov    %edx,(%rax)
    a0c0:	44 8b 2d 7d 71 00 00 	mov    0x717d(%rip),%r13d        # 11244 <g_324+0x4>
    a0c7:	48 8b 85 90 fb ff ff 	mov    -0x470(%rbp),%rax
    a0ce:	44 0f b7 f0          	movzwl %ax,%r14d
    a0d2:	0f b6 05 bf 6f 00 00 	movzbl 0x6fbf(%rip),%eax        # 11098 <g_90+0x18>
    a0d9:	0f b6 c0             	movzbl %al,%eax
    a0dc:	89 c6                	mov    %eax,%esi
    a0de:	bf fc ff ff ff       	mov    $0xfffffffc,%edi
    a0e3:	e8 b9 b1 ff ff       	callq  52a1 <safe_lshift_func_int8_t_s_s>
    a0e8:	0f be d0             	movsbl %al,%edx
    a0eb:	48 8b 05 e6 7d 00 00 	mov    0x7de6(%rip),%rax        # 11ed8 <g_390>
    a0f2:	0f b6 00             	movzbl (%rax),%eax
    a0f5:	0f b6 c0             	movzbl %al,%eax
    a0f8:	39 c2                	cmp    %eax,%edx
    a0fa:	0f 9d c0             	setge  %al
    a0fd:	0f b6 c0             	movzbl %al,%eax
    a100:	be 95 ff ff ff       	mov    $0xffffff95,%esi
    a105:	89 c7                	mov    %eax,%edi
    a107:	e8 e6 b0 ff ff       	callq  51f2 <safe_sub_func_int8_t_s_s>
    a10c:	66 98                	cbtw   
    a10e:	0f b7 c0             	movzwl %ax,%eax
    a111:	44 89 f6             	mov    %r14d,%esi
    a114:	89 c7                	mov    %eax,%edi
    a116:	e8 22 bc ff ff       	callq  5d3d <safe_mul_func_uint16_t_u_u>
    a11b:	66 35 0b ed          	xor    $0xed0b,%ax
    a11f:	89 c2                	mov    %eax,%edx
    a121:	48 8b 85 c0 fb ff ff 	mov    -0x440(%rbp),%rax
    a128:	66 89 10             	mov    %dx,(%rax)
    a12b:	48 8b 85 c0 fb ff ff 	mov    -0x440(%rbp),%rax
    a132:	0f b7 00             	movzwl (%rax),%eax
    a135:	66 85 c0             	test   %ax,%ax
    a138:	75 0b                	jne    a145 <func_66+0x35a>
    a13a:	0f b6 05 4b 6f 00 00 	movzbl 0x6f4b(%rip),%eax        # 1108c <g_90+0xc>
    a141:	84 c0                	test   %al,%al
    a143:	74 07                	je     a14c <func_66+0x361>
    a145:	b8 01 00 00 00       	mov    $0x1,%eax
    a14a:	eb 05                	jmp    a151 <func_66+0x366>
    a14c:	b8 00 00 00 00       	mov    $0x0,%eax
    a151:	0f b6 c0             	movzbl %al,%eax
    a154:	44 89 ee             	mov    %r13d,%esi
    a157:	89 c7                	mov    %eax,%edi
    a159:	e8 a7 ba ff ff       	callq  5c05 <safe_lshift_func_uint8_t_u_s>
    a15e:	84 c0                	test   %al,%al
    a160:	8b 05 72 6f 00 00    	mov    0x6f72(%rip),%eax        # 110d8 <g_126>
    a166:	83 f8 01             	cmp    $0x1,%eax
    a169:	0f 9e c0             	setle  %al
    a16c:	0f b6 d0             	movzbl %al,%edx
    a16f:	48 8b 85 88 fb ff ff 	mov    -0x478(%rbp),%rax
    a176:	8b 00                	mov    (%rax),%eax
    a178:	39 c2                	cmp    %eax,%edx
    a17a:	0f 95 c0             	setne  %al
    a17d:	0f b6 c0             	movzbl %al,%eax
    a180:	be 07 00 00 00       	mov    $0x7,%esi
    a185:	89 c7                	mov    %eax,%edi
    a187:	e8 d7 b3 ff ff       	callq  5563 <safe_rshift_func_int16_t_s_u>
    a18c:	0f b7 c0             	movzwl %ax,%eax
    a18f:	be 01 00 00 00       	mov    $0x1,%esi
    a194:	89 c7                	mov    %eax,%edi
    a196:	e8 a2 bb ff ff       	callq  5d3d <safe_mul_func_uint16_t_u_u>
    a19b:	89 c2                	mov    %eax,%edx
    a19d:	8b 05 81 6e 00 00    	mov    0x6e81(%rip),%eax        # 11024 <g_2>
    a1a3:	09 c2                	or     %eax,%edx
    a1a5:	48 8b 85 c8 fb ff ff 	mov    -0x438(%rbp),%rax
    a1ac:	66 89 10             	mov    %dx,(%rax)
    a1af:	48 8b 85 c8 fb ff ff 	mov    -0x438(%rbp),%rax
    a1b6:	0f b7 00             	movzwl (%rax),%eax
    a1b9:	0f b7 d0             	movzwl %ax,%edx
    a1bc:	48 8b 85 98 fb ff ff 	mov    -0x468(%rbp),%rax
    a1c3:	0f b7 c0             	movzwl %ax,%eax
    a1c6:	89 d6                	mov    %edx,%esi
    a1c8:	89 c7                	mov    %eax,%edi
    a1ca:	e8 8d bb ff ff       	callq  5d5c <safe_mod_func_uint16_t_u_u>
    a1cf:	98                   	cwtl   
    a1d0:	be b7 d8 ff ff       	mov    $0xffffd8b7,%esi
    a1d5:	89 c7                	mov    %eax,%edi
    a1d7:	e8 19 b2 ff ff       	callq  53f5 <safe_mul_func_int16_t_s_s>
    a1dc:	44 89 e6             	mov    %r12d,%esi
    a1df:	bf 01 00 00 00       	mov    $0x1,%edi
    a1e4:	e8 c5 b9 ff ff       	callq  5bae <safe_mod_func_uint8_t_u_u>
    a1e9:	0f b7 05 f0 6e 00 00 	movzwl 0x6ef0(%rip),%eax        # 110e0 <g_153>
    a1f0:	0f b7 d0             	movzwl %ax,%edx
    a1f3:	8b 85 18 fc ff ff    	mov    -0x3e8(%rbp),%eax
    a1f9:	0f b7 c0             	movzwl %ax,%eax
    a1fc:	89 d6                	mov    %edx,%esi
    a1fe:	89 c7                	mov    %eax,%edi
    a200:	e8 57 bb ff ff       	callq  5d5c <safe_mod_func_uint16_t_u_u>
    a205:	0f b6 c0             	movzbl %al,%eax
    a208:	be 06 00 00 00       	mov    $0x6,%esi
    a20d:	89 c7                	mov    %eax,%edi
    a20f:	e8 f1 b9 ff ff       	callq  5c05 <safe_lshift_func_uint8_t_u_s>
    a214:	48 8b 05 95 7c 00 00 	mov    0x7c95(%rip),%rax        # 11eb0 <g_194>
    a21b:	48 8b 00             	mov    (%rax),%rax
    a21e:	48 be f1 ed 4c f9 75 	movabs $0xcac4d575f94cedf1,%rsi
    a225:	d5 c4 ca 
    a228:	48 89 c7             	mov    %rax,%rdi
    a22b:	e8 c7 b7 ff ff       	callq  59f7 <safe_div_func_int64_t_s_s>
    a230:	48 89 c2             	mov    %rax,%rdx
    a233:	48 8b 85 90 fb ff ff 	mov    -0x470(%rbp),%rax
    a23a:	48 89 c6             	mov    %rax,%rsi
    a23d:	48 89 d7             	mov    %rdx,%rdi
    a240:	e8 b2 b7 ff ff       	callq  59f7 <safe_div_func_int64_t_s_s>
    a245:	89 c2                	mov    %eax,%edx
    a247:	48 8b 85 98 fb ff ff 	mov    -0x468(%rbp),%rax
    a24e:	31 d0                	xor    %edx,%eax
    a250:	98                   	cwtl   
    a251:	89 de                	mov    %ebx,%esi
    a253:	89 c7                	mov    %eax,%edi
    a255:	e8 fb b1 ff ff       	callq  5455 <safe_div_func_int16_t_s_s>
    a25a:	48 0f bf c0          	movswq %ax,%rax
    a25e:	48 39 85 90 fb ff ff 	cmp    %rax,-0x470(%rbp)
    a265:	7f 07                	jg     a26e <func_66+0x483>
    a267:	b8 01 00 00 00       	mov    $0x1,%eax
    a26c:	eb 05                	jmp    a273 <func_66+0x488>
    a26e:	b8 00 00 00 00       	mov    $0x0,%eax
    a273:	3d f9 ff 00 00       	cmp    $0xfff9,%eax
    a278:	0f 96 c0             	setbe  %al
    a27b:	0f b6 c0             	movzbl %al,%eax
    a27e:	31 85 a4 fb ff ff    	xor    %eax,-0x45c(%rbp)
    a284:	48 8b 85 b0 fb ff ff 	mov    -0x450(%rbp),%rax
    a28b:	8b 00                	mov    (%rax),%eax
    a28d:	35 03 04 9f 19       	xor    $0x199f0403,%eax
    a292:	89 c2                	mov    %eax,%edx
    a294:	48 8b 85 b0 fb ff ff 	mov    -0x450(%rbp),%rax
    a29b:	89 10                	mov    %edx,(%rax)
    a29d:	8b 85 a4 fb ff ff    	mov    -0x45c(%rbp),%eax
    a2a3:	48 8b 5d c8          	mov    -0x38(%rbp),%rbx
    a2a7:	64 48 33 1c 25 28 00 	xor    %fs:0x28,%rbx
    a2ae:	00 00 
    a2b0:	74 05                	je     a2b7 <func_66+0x4cc>
    a2b2:	e8 b9 ad ff ff       	callq  5070 <__stack_chk_fail@plt>
    a2b7:	48 81 c4 78 04 00 00 	add    $0x478,%rsp
    a2be:	5b                   	pop    %rbx
    a2bf:	41 5c                	pop    %r12
    a2c1:	41 5d                	pop    %r13
    a2c3:	41 5e                	pop    %r14
    a2c5:	41 5f                	pop    %r15
    a2c7:	5d                   	pop    %rbp
    a2c8:	c3                   	retq   

000000000000a2c9 <func_76>:
    a2c9:	f3 0f 1e fa          	endbr64 
    a2cd:	55                   	push   %rbp
    a2ce:	48 89 e5             	mov    %rsp,%rbp
    a2d1:	41 56                	push   %r14
    a2d3:	41 55                	push   %r13
    a2d5:	41 54                	push   %r12
    a2d7:	53                   	push   %rbx
    a2d8:	48 81 ec a0 0b 00 00 	sub    $0xba0,%rsp
    a2df:	89 bd 5c f4 ff ff    	mov    %edi,-0xba4(%rbp)
    a2e5:	48 89 b5 50 f4 ff ff 	mov    %rsi,-0xbb0(%rbp)
    a2ec:	89 c8                	mov    %ecx,%eax
    a2ee:	88 95 58 f4 ff ff    	mov    %dl,-0xba8(%rbp)
    a2f4:	66 89 85 4c f4 ff ff 	mov    %ax,-0xbb4(%rbp)
    a2fb:	64 48 8b 04 25 28 00 	mov    %fs:0x28,%rax
    a302:	00 00 
    a304:	48 89 45 d8          	mov    %rax,-0x28(%rbp)
    a308:	31 c0                	xor    %eax,%eax
    a30a:	48 c7 85 d8 f4 ff ff 	movq   $0x0,-0xb28(%rbp)
    a311:	00 00 00 00 
    a315:	48 8d 05 c0 6d 00 00 	lea    0x6dc0(%rip),%rax        # 110dc <g_139>
    a31c:	48 89 85 e0 f4 ff ff 	mov    %rax,-0xb20(%rbp)
    a323:	48 8d 05 b2 6d 00 00 	lea    0x6db2(%rip),%rax        # 110dc <g_139>
    a32a:	48 89 85 e8 f4 ff ff 	mov    %rax,-0xb18(%rbp)
    a331:	c6 85 62 f4 ff ff 46 	movb   $0x46,-0xb9e(%rbp)
    a338:	48 8d 05 72 6d 00 00 	lea    0x6d72(%rip),%rax        # 110b1 <g_115>
    a33f:	48 89 85 90 f4 ff ff 	mov    %rax,-0xb70(%rbp)
    a346:	48 8d 85 90 f4 ff ff 	lea    -0xb70(%rbp),%rax
    a34d:	48 89 85 98 f4 ff ff 	mov    %rax,-0xb68(%rbp)
    a354:	48 8d 05 33 6d 00 00 	lea    0x6d33(%rip),%rax        # 1108e <g_90+0xe>
    a35b:	48 89 85 a0 f4 ff ff 	mov    %rax,-0xb60(%rbp)
    a362:	48 8d 05 8b 6e 00 00 	lea    0x6e8b(%rip),%rax        # 111f4 <g_190+0x4>
    a369:	48 89 85 a8 f4 ff ff 	mov    %rax,-0xb58(%rbp)
    a370:	48 8d 05 e1 6c 00 00 	lea    0x6ce1(%rip),%rax        # 11058 <g_50+0x18>
    a377:	48 89 85 b0 f4 ff ff 	mov    %rax,-0xb50(%rbp)
    a37e:	48 8d 85 b0 f4 ff ff 	lea    -0xb50(%rbp),%rax
    a385:	48 89 85 90 f9 ff ff 	mov    %rax,-0x670(%rbp)
    a38c:	48 8d 85 b0 f4 ff ff 	lea    -0xb50(%rbp),%rax
    a393:	48 89 85 98 f9 ff ff 	mov    %rax,-0x668(%rbp)
    a39a:	48 8d 85 b0 f4 ff ff 	lea    -0xb50(%rbp),%rax
    a3a1:	48 89 85 a0 f9 ff ff 	mov    %rax,-0x660(%rbp)
    a3a8:	48 8d 85 b0 f4 ff ff 	lea    -0xb50(%rbp),%rax
    a3af:	48 89 85 a8 f9 ff ff 	mov    %rax,-0x658(%rbp)
    a3b6:	48 8d 85 b0 f4 ff ff 	lea    -0xb50(%rbp),%rax
    a3bd:	48 89 85 b0 f9 ff ff 	mov    %rax,-0x650(%rbp)
    a3c4:	48 8d 85 b0 f4 ff ff 	lea    -0xb50(%rbp),%rax
    a3cb:	48 89 85 b8 f9 ff ff 	mov    %rax,-0x648(%rbp)
    a3d2:	48 8d 85 b0 f4 ff ff 	lea    -0xb50(%rbp),%rax
    a3d9:	48 89 85 c0 f9 ff ff 	mov    %rax,-0x640(%rbp)
    a3e0:	48 8d 85 b0 f4 ff ff 	lea    -0xb50(%rbp),%rax
    a3e7:	48 89 85 c8 f9 ff ff 	mov    %rax,-0x638(%rbp)
    a3ee:	48 c7 85 d0 f9 ff ff 	movq   $0x0,-0x630(%rbp)
    a3f5:	00 00 00 00 
    a3f9:	48 8d 85 b0 f4 ff ff 	lea    -0xb50(%rbp),%rax
    a400:	48 89 85 d8 f9 ff ff 	mov    %rax,-0x628(%rbp)
    a407:	48 8d 85 b0 f4 ff ff 	lea    -0xb50(%rbp),%rax
    a40e:	48 89 85 e0 f9 ff ff 	mov    %rax,-0x620(%rbp)
    a415:	48 8d 85 b0 f4 ff ff 	lea    -0xb50(%rbp),%rax
    a41c:	48 89 85 e8 f9 ff ff 	mov    %rax,-0x618(%rbp)
    a423:	48 8d 85 b0 f4 ff ff 	lea    -0xb50(%rbp),%rax
    a42a:	48 89 85 f0 f9 ff ff 	mov    %rax,-0x610(%rbp)
    a431:	48 8d 85 b0 f4 ff ff 	lea    -0xb50(%rbp),%rax
    a438:	48 89 85 f8 f9 ff ff 	mov    %rax,-0x608(%rbp)
    a43f:	48 8d 85 b0 f4 ff ff 	lea    -0xb50(%rbp),%rax
    a446:	48 89 85 00 fa ff ff 	mov    %rax,-0x600(%rbp)
    a44d:	48 8d 85 b0 f4 ff ff 	lea    -0xb50(%rbp),%rax
    a454:	48 89 85 08 fa ff ff 	mov    %rax,-0x5f8(%rbp)
    a45b:	48 c7 85 10 fa ff ff 	movq   $0x0,-0x5f0(%rbp)
    a462:	00 00 00 00 
    a466:	48 8d 85 b0 f4 ff ff 	lea    -0xb50(%rbp),%rax
    a46d:	48 89 85 18 fa ff ff 	mov    %rax,-0x5e8(%rbp)
    a474:	48 8d 85 b0 f4 ff ff 	lea    -0xb50(%rbp),%rax
    a47b:	48 89 85 20 fa ff ff 	mov    %rax,-0x5e0(%rbp)
    a482:	48 8d 85 b0 f4 ff ff 	lea    -0xb50(%rbp),%rax
    a489:	48 89 85 28 fa ff ff 	mov    %rax,-0x5d8(%rbp)
    a490:	48 8d 85 b0 f4 ff ff 	lea    -0xb50(%rbp),%rax
    a497:	48 89 85 30 fa ff ff 	mov    %rax,-0x5d0(%rbp)
    a49e:	48 8d 85 b0 f4 ff ff 	lea    -0xb50(%rbp),%rax
    a4a5:	48 89 85 38 fa ff ff 	mov    %rax,-0x5c8(%rbp)
    a4ac:	48 8d 85 b0 f4 ff ff 	lea    -0xb50(%rbp),%rax
    a4b3:	48 89 85 40 fa ff ff 	mov    %rax,-0x5c0(%rbp)
    a4ba:	48 8d 85 b0 f4 ff ff 	lea    -0xb50(%rbp),%rax
    a4c1:	48 89 85 48 fa ff ff 	mov    %rax,-0x5b8(%rbp)
    a4c8:	48 8d 85 b0 f4 ff ff 	lea    -0xb50(%rbp),%rax
    a4cf:	48 89 85 50 fa ff ff 	mov    %rax,-0x5b0(%rbp)
    a4d6:	48 8d 85 b0 f4 ff ff 	lea    -0xb50(%rbp),%rax
    a4dd:	48 89 85 58 fa ff ff 	mov    %rax,-0x5a8(%rbp)
    a4e4:	48 8d 85 b0 f4 ff ff 	lea    -0xb50(%rbp),%rax
    a4eb:	48 89 85 60 fa ff ff 	mov    %rax,-0x5a0(%rbp)
    a4f2:	48 8d 85 b0 f4 ff ff 	lea    -0xb50(%rbp),%rax
    a4f9:	48 89 85 68 fa ff ff 	mov    %rax,-0x598(%rbp)
    a500:	48 8d 85 b0 f4 ff ff 	lea    -0xb50(%rbp),%rax
    a507:	48 89 85 70 fa ff ff 	mov    %rax,-0x590(%rbp)
    a50e:	48 8d 85 b0 f4 ff ff 	lea    -0xb50(%rbp),%rax
    a515:	48 89 85 78 fa ff ff 	mov    %rax,-0x588(%rbp)
    a51c:	48 c7 85 80 fa ff ff 	movq   $0x0,-0x580(%rbp)
    a523:	00 00 00 00 
    a527:	48 8d 85 b0 f4 ff ff 	lea    -0xb50(%rbp),%rax
    a52e:	48 89 85 88 fa ff ff 	mov    %rax,-0x578(%rbp)
    a535:	48 c7 85 90 fa ff ff 	movq   $0x0,-0x570(%rbp)
    a53c:	00 00 00 00 
    a540:	48 8d 85 b0 f4 ff ff 	lea    -0xb50(%rbp),%rax
    a547:	48 89 85 98 fa ff ff 	mov    %rax,-0x568(%rbp)
    a54e:	48 8d 85 b0 f4 ff ff 	lea    -0xb50(%rbp),%rax
    a555:	48 89 85 a0 fa ff ff 	mov    %rax,-0x560(%rbp)
    a55c:	48 8d 85 b0 f4 ff ff 	lea    -0xb50(%rbp),%rax
    a563:	48 89 85 a8 fa ff ff 	mov    %rax,-0x558(%rbp)
    a56a:	48 8d 85 b0 f4 ff ff 	lea    -0xb50(%rbp),%rax
    a571:	48 89 85 b0 fa ff ff 	mov    %rax,-0x550(%rbp)
    a578:	48 8d 85 b0 f4 ff ff 	lea    -0xb50(%rbp),%rax
    a57f:	48 89 85 b8 fa ff ff 	mov    %rax,-0x548(%rbp)
    a586:	48 8d 85 b0 f4 ff ff 	lea    -0xb50(%rbp),%rax
    a58d:	48 89 85 c0 fa ff ff 	mov    %rax,-0x540(%rbp)
    a594:	48 8d 85 b0 f4 ff ff 	lea    -0xb50(%rbp),%rax
    a59b:	48 89 85 c8 fa ff ff 	mov    %rax,-0x538(%rbp)
    a5a2:	48 8d 85 b0 f4 ff ff 	lea    -0xb50(%rbp),%rax
    a5a9:	48 89 85 d0 fa ff ff 	mov    %rax,-0x530(%rbp)
    a5b0:	48 8d 85 b0 f4 ff ff 	lea    -0xb50(%rbp),%rax
    a5b7:	48 89 85 d8 fa ff ff 	mov    %rax,-0x528(%rbp)
    a5be:	48 8d 85 b0 f4 ff ff 	lea    -0xb50(%rbp),%rax
    a5c5:	48 89 85 e0 fa ff ff 	mov    %rax,-0x520(%rbp)
    a5cc:	48 8d 85 b0 f4 ff ff 	lea    -0xb50(%rbp),%rax
    a5d3:	48 89 85 e8 fa ff ff 	mov    %rax,-0x518(%rbp)
    a5da:	48 8d 85 b0 f4 ff ff 	lea    -0xb50(%rbp),%rax
    a5e1:	48 89 85 f0 fa ff ff 	mov    %rax,-0x510(%rbp)
    a5e8:	48 8d 85 b0 f4 ff ff 	lea    -0xb50(%rbp),%rax
    a5ef:	48 89 85 f8 fa ff ff 	mov    %rax,-0x508(%rbp)
    a5f6:	48 c7 85 00 fb ff ff 	movq   $0x0,-0x500(%rbp)
    a5fd:	00 00 00 00 
    a601:	48 8d 85 b0 f4 ff ff 	lea    -0xb50(%rbp),%rax
    a608:	48 89 85 08 fb ff ff 	mov    %rax,-0x4f8(%rbp)
    a60f:	48 8d 85 b0 f4 ff ff 	lea    -0xb50(%rbp),%rax
    a616:	48 89 85 10 fb ff ff 	mov    %rax,-0x4f0(%rbp)
    a61d:	48 8d 85 b0 f4 ff ff 	lea    -0xb50(%rbp),%rax
    a624:	48 89 85 18 fb ff ff 	mov    %rax,-0x4e8(%rbp)
    a62b:	48 8d 85 b0 f4 ff ff 	lea    -0xb50(%rbp),%rax
    a632:	48 89 85 20 fb ff ff 	mov    %rax,-0x4e0(%rbp)
    a639:	48 8d 85 b0 f4 ff ff 	lea    -0xb50(%rbp),%rax
    a640:	48 89 85 28 fb ff ff 	mov    %rax,-0x4d8(%rbp)
    a647:	48 8d 85 b0 f4 ff ff 	lea    -0xb50(%rbp),%rax
    a64e:	48 89 85 30 fb ff ff 	mov    %rax,-0x4d0(%rbp)
    a655:	48 8d 85 b0 f4 ff ff 	lea    -0xb50(%rbp),%rax
    a65c:	48 89 85 38 fb ff ff 	mov    %rax,-0x4c8(%rbp)
    a663:	48 c7 85 40 fb ff ff 	movq   $0x0,-0x4c0(%rbp)
    a66a:	00 00 00 00 
    a66e:	48 8d 85 b0 f4 ff ff 	lea    -0xb50(%rbp),%rax
    a675:	48 89 85 48 fb ff ff 	mov    %rax,-0x4b8(%rbp)
    a67c:	48 8d 85 b0 f4 ff ff 	lea    -0xb50(%rbp),%rax
    a683:	48 89 85 50 fb ff ff 	mov    %rax,-0x4b0(%rbp)
    a68a:	48 8d 85 b0 f4 ff ff 	lea    -0xb50(%rbp),%rax
    a691:	48 89 85 58 fb ff ff 	mov    %rax,-0x4a8(%rbp)
    a698:	48 8d 85 b0 f4 ff ff 	lea    -0xb50(%rbp),%rax
    a69f:	48 89 85 60 fb ff ff 	mov    %rax,-0x4a0(%rbp)
    a6a6:	48 8d 85 b0 f4 ff ff 	lea    -0xb50(%rbp),%rax
    a6ad:	48 89 85 68 fb ff ff 	mov    %rax,-0x498(%rbp)
    a6b4:	48 8d 85 b0 f4 ff ff 	lea    -0xb50(%rbp),%rax
    a6bb:	48 89 85 70 fb ff ff 	mov    %rax,-0x490(%rbp)
    a6c2:	48 8d 85 b0 f4 ff ff 	lea    -0xb50(%rbp),%rax
    a6c9:	48 89 85 78 fb ff ff 	mov    %rax,-0x488(%rbp)
    a6d0:	48 8d 85 b0 f4 ff ff 	lea    -0xb50(%rbp),%rax
    a6d7:	48 89 85 80 fb ff ff 	mov    %rax,-0x480(%rbp)
    a6de:	48 8d 85 b0 f4 ff ff 	lea    -0xb50(%rbp),%rax
    a6e5:	48 89 85 88 fb ff ff 	mov    %rax,-0x478(%rbp)
    a6ec:	48 8d 85 b0 f4 ff ff 	lea    -0xb50(%rbp),%rax
    a6f3:	48 89 85 90 fb ff ff 	mov    %rax,-0x470(%rbp)
    a6fa:	48 8d 85 b0 f4 ff ff 	lea    -0xb50(%rbp),%rax
    a701:	48 89 85 98 fb ff ff 	mov    %rax,-0x468(%rbp)
    a708:	48 8d 85 b0 f4 ff ff 	lea    -0xb50(%rbp),%rax
    a70f:	48 89 85 a0 fb ff ff 	mov    %rax,-0x460(%rbp)
    a716:	48 8d 85 b0 f4 ff ff 	lea    -0xb50(%rbp),%rax
    a71d:	48 89 85 a8 fb ff ff 	mov    %rax,-0x458(%rbp)
    a724:	48 8d 85 b0 f4 ff ff 	lea    -0xb50(%rbp),%rax
    a72b:	48 89 85 b0 fb ff ff 	mov    %rax,-0x450(%rbp)
    a732:	48 c7 85 b8 fb ff ff 	movq   $0x0,-0x448(%rbp)
    a739:	00 00 00 00 
    a73d:	48 8d 85 b0 f4 ff ff 	lea    -0xb50(%rbp),%rax
    a744:	48 89 85 c0 fb ff ff 	mov    %rax,-0x440(%rbp)
    a74b:	48 8d 85 b0 f4 ff ff 	lea    -0xb50(%rbp),%rax
    a752:	48 89 85 c8 fb ff ff 	mov    %rax,-0x438(%rbp)
    a759:	48 8d 85 b0 f4 ff ff 	lea    -0xb50(%rbp),%rax
    a760:	48 89 85 d0 fb ff ff 	mov    %rax,-0x430(%rbp)
    a767:	48 8d 85 b0 f4 ff ff 	lea    -0xb50(%rbp),%rax
    a76e:	48 89 85 d8 fb ff ff 	mov    %rax,-0x428(%rbp)
    a775:	48 8d 85 b0 f4 ff ff 	lea    -0xb50(%rbp),%rax
    a77c:	48 89 85 e0 fb ff ff 	mov    %rax,-0x420(%rbp)
    a783:	48 8d 85 b0 f4 ff ff 	lea    -0xb50(%rbp),%rax
    a78a:	48 89 85 e8 fb ff ff 	mov    %rax,-0x418(%rbp)
    a791:	48 8d 85 b0 f4 ff ff 	lea    -0xb50(%rbp),%rax
    a798:	48 89 85 f0 fb ff ff 	mov    %rax,-0x410(%rbp)
    a79f:	48 8d 85 b0 f4 ff ff 	lea    -0xb50(%rbp),%rax
    a7a6:	48 89 85 f8 fb ff ff 	mov    %rax,-0x408(%rbp)
    a7ad:	48 8d 85 b0 f4 ff ff 	lea    -0xb50(%rbp),%rax
    a7b4:	48 89 85 00 fc ff ff 	mov    %rax,-0x400(%rbp)
    a7bb:	48 c7 85 08 fc ff ff 	movq   $0x0,-0x3f8(%rbp)
    a7c2:	00 00 00 00 
    a7c6:	48 c7 85 10 fc ff ff 	movq   $0x0,-0x3f0(%rbp)
    a7cd:	00 00 00 00 
    a7d1:	48 8d 85 b0 f4 ff ff 	lea    -0xb50(%rbp),%rax
    a7d8:	48 89 85 18 fc ff ff 	mov    %rax,-0x3e8(%rbp)
    a7df:	48 8d 85 b0 f4 ff ff 	lea    -0xb50(%rbp),%rax
    a7e6:	48 89 85 20 fc ff ff 	mov    %rax,-0x3e0(%rbp)
    a7ed:	48 8d 85 b0 f4 ff ff 	lea    -0xb50(%rbp),%rax
    a7f4:	48 89 85 28 fc ff ff 	mov    %rax,-0x3d8(%rbp)
    a7fb:	48 8d 85 b0 f4 ff ff 	lea    -0xb50(%rbp),%rax
    a802:	48 89 85 30 fc ff ff 	mov    %rax,-0x3d0(%rbp)
    a809:	48 8d 85 b0 f4 ff ff 	lea    -0xb50(%rbp),%rax
    a810:	48 89 85 38 fc ff ff 	mov    %rax,-0x3c8(%rbp)
    a817:	48 8d 85 b0 f4 ff ff 	lea    -0xb50(%rbp),%rax
    a81e:	48 89 85 40 fc ff ff 	mov    %rax,-0x3c0(%rbp)
    a825:	48 c7 85 48 fc ff ff 	movq   $0x0,-0x3b8(%rbp)
    a82c:	00 00 00 00 
    a830:	48 8d 85 b0 f4 ff ff 	lea    -0xb50(%rbp),%rax
    a837:	48 89 85 50 fc ff ff 	mov    %rax,-0x3b0(%rbp)
    a83e:	48 c7 85 58 fc ff ff 	movq   $0x0,-0x3a8(%rbp)
    a845:	00 00 00 00 
    a849:	48 8d 85 b0 f4 ff ff 	lea    -0xb50(%rbp),%rax
    a850:	48 89 85 60 fc ff ff 	mov    %rax,-0x3a0(%rbp)
    a857:	48 8d 85 b0 f4 ff ff 	lea    -0xb50(%rbp),%rax
    a85e:	48 89 85 68 fc ff ff 	mov    %rax,-0x398(%rbp)
    a865:	48 8d 85 b0 f4 ff ff 	lea    -0xb50(%rbp),%rax
    a86c:	48 89 85 70 fc ff ff 	mov    %rax,-0x390(%rbp)
    a873:	48 8d 85 b0 f4 ff ff 	lea    -0xb50(%rbp),%rax
    a87a:	48 89 85 78 fc ff ff 	mov    %rax,-0x388(%rbp)
    a881:	48 8d 85 b0 f4 ff ff 	lea    -0xb50(%rbp),%rax
    a888:	48 89 85 80 fc ff ff 	mov    %rax,-0x380(%rbp)
    a88f:	48 8d 85 b0 f4 ff ff 	lea    -0xb50(%rbp),%rax
    a896:	48 89 85 88 fc ff ff 	mov    %rax,-0x378(%rbp)
    a89d:	48 c7 85 90 fc ff ff 	movq   $0x0,-0x370(%rbp)
    a8a4:	00 00 00 00 
    a8a8:	48 c7 85 98 fc ff ff 	movq   $0x0,-0x368(%rbp)
    a8af:	00 00 00 00 
    a8b3:	48 8d 85 b0 f4 ff ff 	lea    -0xb50(%rbp),%rax
    a8ba:	48 89 85 a0 fc ff ff 	mov    %rax,-0x360(%rbp)
    a8c1:	48 8d 85 b0 f4 ff ff 	lea    -0xb50(%rbp),%rax
    a8c8:	48 89 85 a8 fc ff ff 	mov    %rax,-0x358(%rbp)
    a8cf:	48 8d 85 b0 f4 ff ff 	lea    -0xb50(%rbp),%rax
    a8d6:	48 89 85 b0 fc ff ff 	mov    %rax,-0x350(%rbp)
    a8dd:	48 8d 85 b0 f4 ff ff 	lea    -0xb50(%rbp),%rax
    a8e4:	48 89 85 b8 fc ff ff 	mov    %rax,-0x348(%rbp)
    a8eb:	48 8d 85 b0 f4 ff ff 	lea    -0xb50(%rbp),%rax
    a8f2:	48 89 85 c0 fc ff ff 	mov    %rax,-0x340(%rbp)
    a8f9:	48 8d 85 b0 f4 ff ff 	lea    -0xb50(%rbp),%rax
    a900:	48 89 85 c8 fc ff ff 	mov    %rax,-0x338(%rbp)
    a907:	48 8d 85 b0 f4 ff ff 	lea    -0xb50(%rbp),%rax
    a90e:	48 89 85 d0 fc ff ff 	mov    %rax,-0x330(%rbp)
    a915:	48 8d 85 b0 f4 ff ff 	lea    -0xb50(%rbp),%rax
    a91c:	48 89 85 d8 fc ff ff 	mov    %rax,-0x328(%rbp)
    a923:	48 8d 85 b0 f4 ff ff 	lea    -0xb50(%rbp),%rax
    a92a:	48 89 85 e0 fc ff ff 	mov    %rax,-0x320(%rbp)
    a931:	48 c7 85 e8 fc ff ff 	movq   $0x0,-0x318(%rbp)
    a938:	00 00 00 00 
    a93c:	48 8d 85 b0 f4 ff ff 	lea    -0xb50(%rbp),%rax
    a943:	48 89 85 f0 fc ff ff 	mov    %rax,-0x310(%rbp)
    a94a:	48 8d 85 b0 f4 ff ff 	lea    -0xb50(%rbp),%rax
    a951:	48 89 85 f8 fc ff ff 	mov    %rax,-0x308(%rbp)
    a958:	48 8d 85 b0 f4 ff ff 	lea    -0xb50(%rbp),%rax
    a95f:	48 89 85 00 fd ff ff 	mov    %rax,-0x300(%rbp)
    a966:	48 8d 85 b0 f4 ff ff 	lea    -0xb50(%rbp),%rax
    a96d:	48 89 85 08 fd ff ff 	mov    %rax,-0x2f8(%rbp)
    a974:	48 8d 85 b0 f4 ff ff 	lea    -0xb50(%rbp),%rax
    a97b:	48 89 85 10 fd ff ff 	mov    %rax,-0x2f0(%rbp)
    a982:	48 8d 85 b0 f4 ff ff 	lea    -0xb50(%rbp),%rax
    a989:	48 89 85 18 fd ff ff 	mov    %rax,-0x2e8(%rbp)
    a990:	48 8d 85 b0 f4 ff ff 	lea    -0xb50(%rbp),%rax
    a997:	48 89 85 20 fd ff ff 	mov    %rax,-0x2e0(%rbp)
    a99e:	48 8d 85 b0 f4 ff ff 	lea    -0xb50(%rbp),%rax
    a9a5:	48 89 85 28 fd ff ff 	mov    %rax,-0x2d8(%rbp)
    a9ac:	48 8d 85 b0 f4 ff ff 	lea    -0xb50(%rbp),%rax
    a9b3:	48 89 85 30 fd ff ff 	mov    %rax,-0x2d0(%rbp)
    a9ba:	48 c7 85 38 fd ff ff 	movq   $0x0,-0x2c8(%rbp)
    a9c1:	00 00 00 00 
    a9c5:	48 c7 85 40 fd ff ff 	movq   $0x0,-0x2c0(%rbp)
    a9cc:	00 00 00 00 
    a9d0:	48 8d 85 b0 f4 ff ff 	lea    -0xb50(%rbp),%rax
    a9d7:	48 89 85 48 fd ff ff 	mov    %rax,-0x2b8(%rbp)
    a9de:	48 8d 85 b0 f4 ff ff 	lea    -0xb50(%rbp),%rax
    a9e5:	48 89 85 50 fd ff ff 	mov    %rax,-0x2b0(%rbp)
    a9ec:	48 8d 85 b0 f4 ff ff 	lea    -0xb50(%rbp),%rax
    a9f3:	48 89 85 58 fd ff ff 	mov    %rax,-0x2a8(%rbp)
    a9fa:	48 8d 85 b0 f4 ff ff 	lea    -0xb50(%rbp),%rax
    aa01:	48 89 85 60 fd ff ff 	mov    %rax,-0x2a0(%rbp)
    aa08:	48 8d 85 b0 f4 ff ff 	lea    -0xb50(%rbp),%rax
    aa0f:	48 89 85 68 fd ff ff 	mov    %rax,-0x298(%rbp)
    aa16:	48 8d 85 b0 f4 ff ff 	lea    -0xb50(%rbp),%rax
    aa1d:	48 89 85 70 fd ff ff 	mov    %rax,-0x290(%rbp)
    aa24:	48 c7 85 78 fd ff ff 	movq   $0x0,-0x288(%rbp)
    aa2b:	00 00 00 00 
    aa2f:	48 8d 85 b0 f4 ff ff 	lea    -0xb50(%rbp),%rax
    aa36:	48 89 85 80 fd ff ff 	mov    %rax,-0x280(%rbp)
    aa3d:	48 c7 85 88 fd ff ff 	movq   $0x0,-0x278(%rbp)
    aa44:	00 00 00 00 
    aa48:	48 8d 85 b0 f4 ff ff 	lea    -0xb50(%rbp),%rax
    aa4f:	48 89 85 90 fd ff ff 	mov    %rax,-0x270(%rbp)
    aa56:	48 8d 85 b0 f4 ff ff 	lea    -0xb50(%rbp),%rax
    aa5d:	48 89 85 98 fd ff ff 	mov    %rax,-0x268(%rbp)
    aa64:	48 8d 85 b0 f4 ff ff 	lea    -0xb50(%rbp),%rax
    aa6b:	48 89 85 a0 fd ff ff 	mov    %rax,-0x260(%rbp)
    aa72:	48 8d 85 b0 f4 ff ff 	lea    -0xb50(%rbp),%rax
    aa79:	48 89 85 a8 fd ff ff 	mov    %rax,-0x258(%rbp)
    aa80:	48 8d 85 b0 f4 ff ff 	lea    -0xb50(%rbp),%rax
    aa87:	48 89 85 b0 fd ff ff 	mov    %rax,-0x250(%rbp)
    aa8e:	48 8d 85 b0 f4 ff ff 	lea    -0xb50(%rbp),%rax
    aa95:	48 89 85 b8 fd ff ff 	mov    %rax,-0x248(%rbp)
    aa9c:	48 c7 85 c0 fd ff ff 	movq   $0x0,-0x240(%rbp)
    aaa3:	00 00 00 00 
    aaa7:	48 c7 85 c8 fd ff ff 	movq   $0x0,-0x238(%rbp)
    aaae:	00 00 00 00 
    aab2:	48 8d 85 b0 f4 ff ff 	lea    -0xb50(%rbp),%rax
    aab9:	48 89 85 d0 fd ff ff 	mov    %rax,-0x230(%rbp)
    aac0:	48 8d 85 b0 f4 ff ff 	lea    -0xb50(%rbp),%rax
    aac7:	48 89 85 d8 fd ff ff 	mov    %rax,-0x228(%rbp)
    aace:	48 8d 85 b0 f4 ff ff 	lea    -0xb50(%rbp),%rax
    aad5:	48 89 85 e0 fd ff ff 	mov    %rax,-0x220(%rbp)
    aadc:	48 8d 85 b0 f4 ff ff 	lea    -0xb50(%rbp),%rax
    aae3:	48 89 85 e8 fd ff ff 	mov    %rax,-0x218(%rbp)
    aaea:	48 8d 85 b0 f4 ff ff 	lea    -0xb50(%rbp),%rax
    aaf1:	48 89 85 f0 fd ff ff 	mov    %rax,-0x210(%rbp)
    aaf8:	48 8d 85 b0 f4 ff ff 	lea    -0xb50(%rbp),%rax
    aaff:	48 89 85 f8 fd ff ff 	mov    %rax,-0x208(%rbp)
    ab06:	48 8d 85 b0 f4 ff ff 	lea    -0xb50(%rbp),%rax
    ab0d:	48 89 85 00 fe ff ff 	mov    %rax,-0x200(%rbp)
    ab14:	48 8d 85 b0 f4 ff ff 	lea    -0xb50(%rbp),%rax
    ab1b:	48 89 85 08 fe ff ff 	mov    %rax,-0x1f8(%rbp)
    ab22:	48 8d 85 b0 f4 ff ff 	lea    -0xb50(%rbp),%rax
    ab29:	48 89 85 10 fe ff ff 	mov    %rax,-0x1f0(%rbp)
    ab30:	48 c7 85 18 fe ff ff 	movq   $0x0,-0x1e8(%rbp)
    ab37:	00 00 00 00 
    ab3b:	48 8d 85 b0 f4 ff ff 	lea    -0xb50(%rbp),%rax
    ab42:	48 89 85 20 fe ff ff 	mov    %rax,-0x1e0(%rbp)
    ab49:	48 8d 85 b0 f4 ff ff 	lea    -0xb50(%rbp),%rax
    ab50:	48 89 85 28 fe ff ff 	mov    %rax,-0x1d8(%rbp)
    ab57:	48 8d 85 b0 f4 ff ff 	lea    -0xb50(%rbp),%rax
    ab5e:	48 89 85 30 fe ff ff 	mov    %rax,-0x1d0(%rbp)
    ab65:	48 8d 85 b0 f4 ff ff 	lea    -0xb50(%rbp),%rax
    ab6c:	48 89 85 38 fe ff ff 	mov    %rax,-0x1c8(%rbp)
    ab73:	48 8d 85 b0 f4 ff ff 	lea    -0xb50(%rbp),%rax
    ab7a:	48 89 85 40 fe ff ff 	mov    %rax,-0x1c0(%rbp)
    ab81:	48 8d 85 b0 f4 ff ff 	lea    -0xb50(%rbp),%rax
    ab88:	48 89 85 48 fe ff ff 	mov    %rax,-0x1b8(%rbp)
    ab8f:	48 8d 85 b0 f4 ff ff 	lea    -0xb50(%rbp),%rax
    ab96:	48 89 85 50 fe ff ff 	mov    %rax,-0x1b0(%rbp)
    ab9d:	48 8d 85 b0 f4 ff ff 	lea    -0xb50(%rbp),%rax
    aba4:	48 89 85 58 fe ff ff 	mov    %rax,-0x1a8(%rbp)
    abab:	48 8d 85 b0 f4 ff ff 	lea    -0xb50(%rbp),%rax
    abb2:	48 89 85 60 fe ff ff 	mov    %rax,-0x1a0(%rbp)
    abb9:	48 c7 85 68 fe ff ff 	movq   $0x0,-0x198(%rbp)
    abc0:	00 00 00 00 
    abc4:	48 c7 85 70 fe ff ff 	movq   $0x0,-0x190(%rbp)
    abcb:	00 00 00 00 
    abcf:	48 8d 85 b0 f4 ff ff 	lea    -0xb50(%rbp),%rax
    abd6:	48 89 85 78 fe ff ff 	mov    %rax,-0x188(%rbp)
    abdd:	48 8d 85 b0 f4 ff ff 	lea    -0xb50(%rbp),%rax
    abe4:	48 89 85 80 fe ff ff 	mov    %rax,-0x180(%rbp)
    abeb:	48 8d 85 b0 f4 ff ff 	lea    -0xb50(%rbp),%rax
    abf2:	48 89 85 88 fe ff ff 	mov    %rax,-0x178(%rbp)
    abf9:	48 8d 85 b0 f4 ff ff 	lea    -0xb50(%rbp),%rax
    ac00:	48 89 85 90 fe ff ff 	mov    %rax,-0x170(%rbp)
    ac07:	48 8d 85 b0 f4 ff ff 	lea    -0xb50(%rbp),%rax
    ac0e:	48 89 85 98 fe ff ff 	mov    %rax,-0x168(%rbp)
    ac15:	48 8d 85 b0 f4 ff ff 	lea    -0xb50(%rbp),%rax
    ac1c:	48 89 85 a0 fe ff ff 	mov    %rax,-0x160(%rbp)
    ac23:	48 c7 85 a8 fe ff ff 	movq   $0x0,-0x158(%rbp)
    ac2a:	00 00 00 00 
    ac2e:	48 8d 85 b0 f4 ff ff 	lea    -0xb50(%rbp),%rax
    ac35:	48 89 85 b0 fe ff ff 	mov    %rax,-0x150(%rbp)
    ac3c:	48 c7 85 b8 fe ff ff 	movq   $0x0,-0x148(%rbp)
    ac43:	00 00 00 00 
    ac47:	48 8d 85 b0 f4 ff ff 	lea    -0xb50(%rbp),%rax
    ac4e:	48 89 85 c0 fe ff ff 	mov    %rax,-0x140(%rbp)
    ac55:	48 8d 85 b0 f4 ff ff 	lea    -0xb50(%rbp),%rax
    ac5c:	48 89 85 c8 fe ff ff 	mov    %rax,-0x138(%rbp)
    ac63:	48 8d 85 b0 f4 ff ff 	lea    -0xb50(%rbp),%rax
    ac6a:	48 89 85 d0 fe ff ff 	mov    %rax,-0x130(%rbp)
    ac71:	48 8d 85 b0 f4 ff ff 	lea    -0xb50(%rbp),%rax
    ac78:	48 89 85 d8 fe ff ff 	mov    %rax,-0x128(%rbp)
    ac7f:	48 8d 85 b0 f4 ff ff 	lea    -0xb50(%rbp),%rax
    ac86:	48 89 85 e0 fe ff ff 	mov    %rax,-0x120(%rbp)
    ac8d:	48 8d 85 b0 f4 ff ff 	lea    -0xb50(%rbp),%rax
    ac94:	48 89 85 e8 fe ff ff 	mov    %rax,-0x118(%rbp)
    ac9b:	48 c7 85 f0 fe ff ff 	movq   $0x0,-0x110(%rbp)
    aca2:	00 00 00 00 
    aca6:	48 c7 85 f8 fe ff ff 	movq   $0x0,-0x108(%rbp)
    acad:	00 00 00 00 
    acb1:	48 8d 85 b0 f4 ff ff 	lea    -0xb50(%rbp),%rax
    acb8:	48 89 85 00 ff ff ff 	mov    %rax,-0x100(%rbp)
    acbf:	48 8d 85 b0 f4 ff ff 	lea    -0xb50(%rbp),%rax
    acc6:	48 89 85 08 ff ff ff 	mov    %rax,-0xf8(%rbp)
    accd:	48 8d 85 b0 f4 ff ff 	lea    -0xb50(%rbp),%rax
    acd4:	48 89 85 10 ff ff ff 	mov    %rax,-0xf0(%rbp)
    acdb:	48 8d 85 b0 f4 ff ff 	lea    -0xb50(%rbp),%rax
    ace2:	48 89 85 18 ff ff ff 	mov    %rax,-0xe8(%rbp)
    ace9:	48 8d 85 b0 f4 ff ff 	lea    -0xb50(%rbp),%rax
    acf0:	48 89 85 20 ff ff ff 	mov    %rax,-0xe0(%rbp)
    acf7:	48 8d 85 b0 f4 ff ff 	lea    -0xb50(%rbp),%rax
    acfe:	48 89 85 28 ff ff ff 	mov    %rax,-0xd8(%rbp)
    ad05:	48 8d 85 b0 f4 ff ff 	lea    -0xb50(%rbp),%rax
    ad0c:	48 89 85 30 ff ff ff 	mov    %rax,-0xd0(%rbp)
    ad13:	48 8d 85 b0 f4 ff ff 	lea    -0xb50(%rbp),%rax
    ad1a:	48 89 85 38 ff ff ff 	mov    %rax,-0xc8(%rbp)
    ad21:	48 8d 85 b0 f4 ff ff 	lea    -0xb50(%rbp),%rax
    ad28:	48 89 85 40 ff ff ff 	mov    %rax,-0xc0(%rbp)
    ad2f:	48 c7 85 48 ff ff ff 	movq   $0x0,-0xb8(%rbp)
    ad36:	00 00 00 00 
    ad3a:	48 8d 85 b0 f4 ff ff 	lea    -0xb50(%rbp),%rax
    ad41:	48 89 85 50 ff ff ff 	mov    %rax,-0xb0(%rbp)
    ad48:	48 8d 85 b0 f4 ff ff 	lea    -0xb50(%rbp),%rax
    ad4f:	48 89 85 58 ff ff ff 	mov    %rax,-0xa8(%rbp)
    ad56:	48 8d 85 b0 f4 ff ff 	lea    -0xb50(%rbp),%rax
    ad5d:	48 89 85 60 ff ff ff 	mov    %rax,-0xa0(%rbp)
    ad64:	48 8d 85 b0 f4 ff ff 	lea    -0xb50(%rbp),%rax
    ad6b:	48 89 85 68 ff ff ff 	mov    %rax,-0x98(%rbp)
    ad72:	48 8d 85 b0 f4 ff ff 	lea    -0xb50(%rbp),%rax
    ad79:	48 89 85 70 ff ff ff 	mov    %rax,-0x90(%rbp)
    ad80:	48 8d 85 b0 f4 ff ff 	lea    -0xb50(%rbp),%rax
    ad87:	48 89 85 78 ff ff ff 	mov    %rax,-0x88(%rbp)
    ad8e:	48 8d 85 b0 f4 ff ff 	lea    -0xb50(%rbp),%rax
    ad95:	48 89 45 80          	mov    %rax,-0x80(%rbp)
    ad99:	48 8d 85 b0 f4 ff ff 	lea    -0xb50(%rbp),%rax
    ada0:	48 89 45 88          	mov    %rax,-0x78(%rbp)
    ada4:	48 8d 85 b0 f4 ff ff 	lea    -0xb50(%rbp),%rax
    adab:	48 89 45 90          	mov    %rax,-0x70(%rbp)
    adaf:	48 c7 45 98 00 00 00 	movq   $0x0,-0x68(%rbp)
    adb6:	00 
    adb7:	48 c7 45 a0 00 00 00 	movq   $0x0,-0x60(%rbp)
    adbe:	00 
    adbf:	48 8d 85 b0 f4 ff ff 	lea    -0xb50(%rbp),%rax
    adc6:	48 89 45 a8          	mov    %rax,-0x58(%rbp)
    adca:	48 8d 85 b0 f4 ff ff 	lea    -0xb50(%rbp),%rax
    add1:	48 89 45 b0          	mov    %rax,-0x50(%rbp)
    add5:	48 8d 85 b0 f4 ff ff 	lea    -0xb50(%rbp),%rax
    addc:	48 89 45 b8          	mov    %rax,-0x48(%rbp)
    ade0:	48 8d 85 b0 f4 ff ff 	lea    -0xb50(%rbp),%rax
    ade7:	48 89 45 c0          	mov    %rax,-0x40(%rbp)
    adeb:	48 8d 85 b0 f4 ff ff 	lea    -0xb50(%rbp),%rax
    adf2:	48 89 45 c8          	mov    %rax,-0x38(%rbp)
    adf6:	48 8d 05 fb 63 00 00 	lea    0x63fb(%rip),%rax        # 111f8 <g_196>
    adfd:	48 89 85 f0 f4 ff ff 	mov    %rax,-0xb10(%rbp)
    ae04:	48 8d 05 f1 63 00 00 	lea    0x63f1(%rip),%rax        # 111fc <g_198>
    ae0b:	48 89 85 f8 f4 ff ff 	mov    %rax,-0xb08(%rbp)
    ae12:	48 8d 05 0f 62 00 00 	lea    0x620f(%rip),%rax        # 11028 <g_3>
    ae19:	48 89 85 00 f5 ff ff 	mov    %rax,-0xb00(%rbp)
    ae20:	c7 85 74 f4 ff ff 01 	movl   $0x1,-0xb8c(%rbp)
    ae27:	00 00 00 
    ae2a:	c7 85 90 f5 ff ff 00 	movl   $0x0,-0xa70(%rbp)
    ae31:	00 00 00 
    ae34:	c7 85 94 f5 ff ff fd 	movl   $0xfffffffd,-0xa6c(%rbp)
    ae3b:	ff ff ff 
    ae3e:	c7 85 98 f5 ff ff fd 	movl   $0xfffffffd,-0xa68(%rbp)
    ae45:	ff ff ff 
    ae48:	c7 85 9c f5 ff ff 00 	movl   $0x0,-0xa64(%rbp)
    ae4f:	00 00 00 
    ae52:	c7 85 a0 f5 ff ff fd 	movl   $0xfffffffd,-0xa60(%rbp)
    ae59:	ff ff ff 
    ae5c:	c7 85 a4 f5 ff ff fd 	movl   $0xfffffffd,-0xa5c(%rbp)
    ae63:	ff ff ff 
    ae66:	48 8d 85 10 f7 ff ff 	lea    -0x8f0(%rbp),%rax
    ae6d:	48 8d 15 8c 2b 00 00 	lea    0x2b8c(%rip),%rdx        # da00 <g_657+0x9a0>
    ae74:	b9 50 00 00 00       	mov    $0x50,%ecx
    ae79:	48 89 c7             	mov    %rax,%rdi
    ae7c:	48 89 d6             	mov    %rdx,%rsi
    ae7f:	f3 48 a5             	rep movsq %ds:(%rsi),%es:(%rdi)
    ae82:	48 c7 85 08 f5 ff ff 	movq   $0xfffffffffffffffa,-0xaf8(%rbp)
    ae89:	fa ff ff ff 
    ae8d:	c7 85 68 f4 ff ff 00 	movl   $0x0,-0xb98(%rbp)
    ae94:	00 00 00 
    ae97:	eb 1e                	jmp    aeb7 <func_76+0xbee>
    ae99:	8b 85 68 f4 ff ff    	mov    -0xb98(%rbp),%eax
    ae9f:	48 98                	cltq   
    aea1:	48 8d 15 0c 62 00 00 	lea    0x620c(%rip),%rdx        # 110b4 <g_123>
    aea8:	48 89 94 c5 80 f5 ff 	mov    %rdx,-0xa80(%rbp,%rax,8)
    aeaf:	ff 
    aeb0:	83 85 68 f4 ff ff 01 	addl   $0x1,-0xb98(%rbp)
    aeb7:	83 bd 68 f4 ff ff 01 	cmpl   $0x1,-0xb98(%rbp)
    aebe:	7e d9                	jle    ae99 <func_76+0xbd0>
    aec0:	48 8b 85 e0 f4 ff ff 	mov    -0xb20(%rbp),%rax
    aec7:	8b 10                	mov    (%rax),%edx
    aec9:	0f be 85 58 f4 ff ff 	movsbl -0xba8(%rbp),%eax
    aed0:	31 c2                	xor    %eax,%edx
    aed2:	48 8b 85 e0 f4 ff ff 	mov    -0xb20(%rbp),%rax
    aed9:	89 10                	mov    %edx,(%rax)
    aedb:	48 8b 85 e0 f4 ff ff 	mov    -0xb20(%rbp),%rax
    aee2:	8b 00                	mov    (%rax),%eax
    aee4:	0d 98 45 a5 58       	or     $0x58a54598,%eax
    aee9:	89 05 c5 61 00 00    	mov    %eax,0x61c5(%rip)        # 110b4 <g_123>
    aeef:	8b 15 bf 61 00 00    	mov    0x61bf(%rip),%edx        # 110b4 <g_123>
    aef5:	8b 05 29 61 00 00    	mov    0x6129(%rip),%eax        # 11024 <g_2>
    aefb:	31 d0                	xor    %edx,%eax
    aefd:	89 05 21 61 00 00    	mov    %eax,0x6121(%rip)        # 11024 <g_2>
    af03:	c7 85 5c f4 ff ff 00 	movl   $0x0,-0xba4(%rbp)
    af0a:	00 00 00 
    af0d:	83 bd 5c f4 ff ff 07 	cmpl   $0x7,-0xba4(%rbp)
    af14:	0f 87 83 02 00 00    	ja     b19d <func_76+0xed4>
    af1a:	48 8d 05 bf 61 00 00 	lea    0x61bf(%rip),%rax        # 110e0 <g_153>
    af21:	48 89 85 68 f5 ff ff 	mov    %rax,-0xa98(%rbp)
    af28:	c7 85 8c f4 ff ff 01 	movl   $0x1,-0xb74(%rbp)
    af2f:	00 00 00 
    af32:	48 83 bd e8 f4 ff ff 	cmpq   $0x0,-0xb18(%rbp)
    af39:	00 
    af3a:	0f 95 c0             	setne  %al
    af3d:	44 0f b6 f0          	movzbl %al,%r14d
    af41:	8b 85 5c f4 ff ff    	mov    -0xba4(%rbp),%eax
    af47:	0f b7 c0             	movzwl %ax,%eax
    af4a:	89 c6                	mov    %eax,%esi
    af4c:	bf 2e b2 00 00       	mov    $0xb22e,%edi
    af51:	e8 c9 ad ff ff       	callq  5d1f <safe_sub_func_uint16_t_u_u>
    af56:	41 89 c5             	mov    %eax,%r13d
    af59:	8b 05 cd 60 00 00    	mov    0x60cd(%rip),%eax        # 1102c <g_26>
    af5f:	0f b6 d8             	movzbl %al,%ebx
    af62:	80 bd 58 f4 ff ff 01 	cmpb   $0x1,-0xba8(%rbp)
    af69:	0f 95 c0             	setne  %al
    af6c:	44 0f b6 e0          	movzbl %al,%r12d
    af70:	8b 05 3e 61 00 00    	mov    0x613e(%rip),%eax        # 110b4 <g_123>
    af76:	48 98                	cltq   
    af78:	48 be f6 a1 e0 8e 74 	movabs $0x75f86e748ee0a1f6,%rsi
    af7f:	6e f8 75 
    af82:	48 89 c7             	mov    %rax,%rdi
    af85:	e8 6d aa ff ff       	callq  59f7 <safe_div_func_int64_t_s_s>
    af8a:	89 c2                	mov    %eax,%edx
    af8c:	48 8b 85 68 f5 ff ff 	mov    -0xa98(%rbp),%rax
    af93:	66 89 10             	mov    %dx,(%rax)
    af96:	48 8b 85 68 f5 ff ff 	mov    -0xa98(%rbp),%rax
    af9d:	0f b7 00             	movzwl (%rax),%eax
    afa0:	98                   	cwtl   
    afa1:	44 89 e6             	mov    %r12d,%esi
    afa4:	89 c7                	mov    %eax,%edi
    afa6:	e8 28 a4 ff ff       	callq  53d3 <safe_sub_func_int16_t_s_s>
    afab:	89 c2                	mov    %eax,%edx
    afad:	8b 85 5c f4 ff ff    	mov    -0xba4(%rbp),%eax
    afb3:	09 d0                	or     %edx,%eax
    afb5:	0f b6 c0             	movzbl %al,%eax
    afb8:	89 de                	mov    %ebx,%esi
    afba:	89 c7                	mov    %eax,%edi
    afbc:	e8 ed ab ff ff       	callq  5bae <safe_mod_func_uint8_t_u_u>
    afc1:	0f b6 c0             	movzbl %al,%eax
    afc4:	be 01 00 00 00       	mov    $0x1,%esi
    afc9:	89 c7                	mov    %eax,%edi
    afcb:	e8 aa ae ff ff       	callq  5e7a <safe_rshift_func_uint16_t_u_u>
    afd0:	44 21 e8             	and    %r13d,%eax
    afd3:	0f b7 c0             	movzwl %ax,%eax
    afd6:	41 39 c6             	cmp    %eax,%r14d
    afd9:	8b 85 5c f4 ff ff    	mov    -0xba4(%rbp),%eax
    afdf:	48 8d 14 c5 00 00 00 	lea    0x0(,%rax,8),%rdx
    afe6:	00 
    afe7:	48 8d 05 52 60 00 00 	lea    0x6052(%rip),%rax        # 11040 <g_50>
    afee:	48 8b 04 02          	mov    (%rdx,%rax,1),%rax
    aff2:	48 83 f0 f9          	xor    $0xfffffffffffffff9,%rax
    aff6:	48 89 c2             	mov    %rax,%rdx
    aff9:	48 0f be 85 62 f4 ff 	movsbq -0xb9e(%rbp),%rax
    b000:	ff 
    b001:	48 39 c2             	cmp    %rax,%rdx
    b004:	0f 84 86 01 00 00    	je     b190 <func_76+0xec7>
    b00a:	c6 85 63 f4 ff ff c0 	movb   $0xc0,-0xb9d(%rbp)
    b011:	c6 85 58 f4 ff ff 05 	movb   $0x5,-0xba8(%rbp)
    b018:	80 bd 58 f4 ff ff 00 	cmpb   $0x0,-0xba8(%rbp)
    b01f:	78 16                	js     b037 <func_76+0xd6e>
    b021:	66 c7 85 66 f4 ff ff 	movw   $0x5631,-0xb9a(%rbp)
    b028:	31 56 
    b02a:	48 0f bf 85 66 f4 ff 	movswq -0xb9a(%rbp),%rax
    b031:	ff 
    b032:	e9 5e 09 00 00       	jmpq   b995 <func_76+0x16cc>
    b037:	48 8b 05 32 61 00 00 	mov    0x6132(%rip),%rax        # 11170 <g_156+0x70>
    b03e:	48 83 c0 01          	add    $0x1,%rax
    b042:	48 89 05 27 61 00 00 	mov    %rax,0x6127(%rip)        # 11170 <g_156+0x70>
    b049:	c7 05 85 60 00 00 00 	movl   $0x0,0x6085(%rip)        # 110d8 <g_126>
    b050:	00 00 00 
    b053:	eb 6b                	jmp    b0c0 <func_76+0xdf7>
    b055:	48 8d 05 14 61 00 00 	lea    0x6114(%rip),%rax        # 11170 <g_156+0x70>
    b05c:	48 89 85 70 f5 ff ff 	mov    %rax,-0xa90(%rbp)
    b063:	48 8b 05 3e 6e 00 00 	mov    0x6e3e(%rip),%rax        # 11ea8 <g_40>
    b06a:	48 8b 85 70 f5 ff ff 	mov    -0xa90(%rbp),%rax
    b071:	48 8b 00             	mov    (%rax),%rax
    b074:	48 8d 50 01          	lea    0x1(%rax),%rdx
    b078:	48 8b 85 70 f5 ff ff 	mov    -0xa90(%rbp),%rax
    b07f:	48 89 10             	mov    %rdx,(%rax)
    b082:	48 8b 85 70 f5 ff ff 	mov    -0xa90(%rbp),%rax
    b089:	48 8b 00             	mov    (%rax),%rax
    b08c:	48 ba ce 99 3e 5b ec 	movabs $0x8eeed4ec5b3e99ce,%rdx
    b093:	d4 ee 8e 
    b096:	48 39 d0             	cmp    %rdx,%rax
    b099:	0f 97 c0             	seta   %al
    b09c:	88 85 63 f4 ff ff    	mov    %al,-0xb9d(%rbp)
    b0a2:	8b 05 30 60 00 00    	mov    0x6030(%rip),%eax        # 110d8 <g_126>
    b0a8:	0f b7 c0             	movzwl %ax,%eax
    b0ab:	be 01 00 00 00       	mov    $0x1,%esi
    b0b0:	89 c7                	mov    %eax,%edi
    b0b2:	e8 68 ac ff ff       	callq  5d1f <safe_sub_func_uint16_t_u_u>
    b0b7:	0f b7 c0             	movzwl %ax,%eax
    b0ba:	89 05 18 60 00 00    	mov    %eax,0x6018(%rip)        # 110d8 <g_126>
    b0c0:	8b 05 12 60 00 00    	mov    0x6012(%rip),%eax        # 110d8 <g_126>
    b0c6:	83 f8 e3             	cmp    $0xffffffe3,%eax
    b0c9:	7c 8a                	jl     b055 <func_76+0xd8c>
    b0cb:	0f b6 05 e0 5f 00 00 	movzbl 0x5fe0(%rip),%eax        # 110b2 <g_122>
    b0d2:	0f b6 d8             	movzbl %al,%ebx
    b0d5:	8b 85 5c f4 ff ff    	mov    -0xba4(%rbp),%eax
    b0db:	0f b6 c0             	movzbl %al,%eax
    b0de:	89 c6                	mov    %eax,%esi
    b0e0:	bf 00 00 00 00       	mov    $0x0,%edi
    b0e5:	e8 70 aa ff ff       	callq  5b5a <safe_add_func_uint8_t_u_u>
    b0ea:	44 0f b6 e0          	movzbl %al,%r12d
    b0ee:	44 0f b6 ad 63 f4 ff 	movzbl -0xb9d(%rbp),%r13d
    b0f5:	ff 
    b0f6:	8b 05 30 5f 00 00    	mov    0x5f30(%rip),%eax        # 1102c <g_26>
    b0fc:	0f be c0             	movsbl %al,%eax
    b0ff:	89 c6                	mov    %eax,%esi
    b101:	bf 01 00 00 00       	mov    $0x1,%edi
    b106:	e8 e7 a0 ff ff       	callq  51f2 <safe_sub_func_int8_t_s_s>
    b10b:	0f be c0             	movsbl %al,%eax
    b10e:	41 39 c5             	cmp    %eax,%r13d
    b111:	0f 9f c0             	setg   %al
    b114:	0f b6 c0             	movzbl %al,%eax
    b117:	be 06 00 00 00       	mov    $0x6,%esi
    b11c:	89 c7                	mov    %eax,%edi
    b11e:	e8 29 ab ff ff       	callq  5c4c <safe_lshift_func_uint8_t_u_u>
    b123:	b8 00 00 00 00       	mov    $0x0,%eax
    b128:	44 31 e0             	xor    %r12d,%eax
    b12b:	98                   	cwtl   
    b12c:	be 07 00 00 00       	mov    $0x7,%esi
    b131:	89 c7                	mov    %eax,%edi
    b133:	e8 2b a4 ff ff       	callq  5563 <safe_rshift_func_int16_t_s_u>
    b138:	48 8b 05 a1 60 00 00 	mov    0x60a1(%rip),%rax        # 111e0 <g_156+0xe0>
    b13f:	0f be c0             	movsbl %al,%eax
    b142:	be 01 00 00 00       	mov    $0x1,%esi
    b147:	89 c7                	mov    %eax,%edi
    b149:	e8 53 a1 ff ff       	callq  52a1 <safe_lshift_func_int8_t_s_s>
    b14e:	88 05 33 5f 00 00    	mov    %al,0x5f33(%rip)        # 11087 <g_90+0x7>
    b154:	0f b6 05 2c 5f 00 00 	movzbl 0x5f2c(%rip),%eax        # 11087 <g_90+0x7>
    b15b:	0f b6 c0             	movzbl %al,%eax
    b15e:	89 de                	mov    %ebx,%esi
    b160:	89 c7                	mov    %eax,%edi
    b162:	e8 11 aa ff ff       	callq  5b78 <safe_sub_func_uint8_t_u_u>
    b167:	0f b6 c0             	movzbl %al,%eax
    b16a:	be 03 00 00 00       	mov    $0x3,%esi
    b16f:	89 c7                	mov    %eax,%edi
    b171:	e8 b4 a3 ff ff       	callq  552a <safe_rshift_func_int16_t_s_s>
    b176:	98                   	cwtl   
    b177:	23 85 5c f4 ff ff    	and    -0xba4(%rbp),%eax
    b17d:	89 85 8c f4 ff ff    	mov    %eax,-0xb74(%rbp)
    b183:	8b 05 47 5f 00 00    	mov    0x5f47(%rip),%eax        # 110d0 <g_125+0x10>
    b189:	48 98                	cltq   
    b18b:	e9 05 08 00 00       	jmpq   b995 <func_76+0x16cc>
    b190:	48 0f be 85 58 f4 ff 	movsbq -0xba8(%rbp),%rax
    b197:	ff 
    b198:	e9 f8 07 00 00       	jmpq   b995 <func_76+0x16cc>
    b19d:	c7 85 78 f4 ff ff 00 	movl   $0x0,-0xb88(%rbp)
    b1a4:	00 00 00 
    b1a7:	48 8d 05 46 60 00 00 	lea    0x6046(%rip),%rax        # 111f4 <g_190+0x4>
    b1ae:	48 89 85 10 f5 ff ff 	mov    %rax,-0xaf0(%rbp)
    b1b5:	48 8d 05 6c 5f 00 00 	lea    0x5f6c(%rip),%rax        # 11128 <g_156+0x28>
    b1bc:	48 89 85 b8 f4 ff ff 	mov    %rax,-0xb48(%rbp)
    b1c3:	48 8d 05 e7 5e 00 00 	lea    0x5ee7(%rip),%rax        # 110b1 <g_115>
    b1ca:	48 89 85 c0 f4 ff ff 	mov    %rax,-0xb40(%rbp)
    b1d1:	48 8d 85 c0 f4 ff ff 	lea    -0xb40(%rbp),%rax
    b1d8:	48 89 85 18 f5 ff ff 	mov    %rax,-0xae8(%rbp)
    b1df:	48 8d 05 a9 5e 00 00 	lea    0x5ea9(%rip),%rax        # 1108f <g_90+0xf>
    b1e6:	48 89 85 20 f5 ff ff 	mov    %rax,-0xae0(%rbp)
    b1ed:	66 c7 85 30 f6 ff ff 	movw   $0xfffa,-0x9d0(%rbp)
    b1f4:	fa ff 
    b1f6:	66 c7 85 32 f6 ff ff 	movw   $0xfffa,-0x9ce(%rbp)
    b1fd:	fa ff 
    b1ff:	66 c7 85 34 f6 ff ff 	movw   $0xfff6,-0x9cc(%rbp)
    b206:	f6 ff 
    b208:	66 c7 85 36 f6 ff ff 	movw   $0x5,-0x9ca(%rbp)
    b20f:	05 00 
    b211:	66 c7 85 38 f6 ff ff 	movw   $0x1,-0x9c8(%rbp)
    b218:	01 00 
    b21a:	66 c7 85 3a f6 ff ff 	movw   $0x5,-0x9c6(%rbp)
    b221:	05 00 
    b223:	66 c7 85 3c f6 ff ff 	movw   $0xfffa,-0x9c4(%rbp)
    b22a:	fa ff 
    b22c:	66 c7 85 3e f6 ff ff 	movw   $0xfff6,-0x9c2(%rbp)
    b233:	f6 ff 
    b235:	66 c7 85 40 f6 ff ff 	movw   $0xfff6,-0x9c0(%rbp)
    b23c:	f6 ff 
    b23e:	66 c7 85 42 f6 ff ff 	movw   $0x69ed,-0x9be(%rbp)
    b245:	ed 69 
    b247:	66 c7 85 44 f6 ff ff 	movw   $0x1,-0x9bc(%rbp)
    b24e:	01 00 
    b250:	66 c7 85 46 f6 ff ff 	movw   $0x69ed,-0x9ba(%rbp)
    b257:	ed 69 
    b259:	66 c7 85 48 f6 ff ff 	movw   $0xfffa,-0x9b8(%rbp)
    b260:	fa ff 
    b262:	66 c7 85 4a f6 ff ff 	movw   $0xfffa,-0x9b6(%rbp)
    b269:	fa ff 
    b26b:	66 c7 85 4c f6 ff ff 	movw   $0xfff6,-0x9b4(%rbp)
    b272:	f6 ff 
    b274:	66 c7 85 4e f6 ff ff 	movw   $0x5,-0x9b2(%rbp)
    b27b:	05 00 
    b27d:	66 c7 85 50 f6 ff ff 	movw   $0x1,-0x9b0(%rbp)
    b284:	01 00 
    b286:	66 c7 85 52 f6 ff ff 	movw   $0x5,-0x9ae(%rbp)
    b28d:	05 00 
    b28f:	66 c7 85 54 f6 ff ff 	movw   $0xfffa,-0x9ac(%rbp)
    b296:	fa ff 
    b298:	66 c7 85 56 f6 ff ff 	movw   $0xfff6,-0x9aa(%rbp)
    b29f:	f6 ff 
    b2a1:	66 c7 85 58 f6 ff ff 	movw   $0xfff6,-0x9a8(%rbp)
    b2a8:	f6 ff 
    b2aa:	66 c7 85 5a f6 ff ff 	movw   $0x69ed,-0x9a6(%rbp)
    b2b1:	ed 69 
    b2b3:	66 c7 85 5c f6 ff ff 	movw   $0x1,-0x9a4(%rbp)
    b2ba:	01 00 
    b2bc:	66 c7 85 5e f6 ff ff 	movw   $0x69ed,-0x9a2(%rbp)
    b2c3:	ed 69 
    b2c5:	66 c7 85 60 f6 ff ff 	movw   $0xfffa,-0x9a0(%rbp)
    b2cc:	fa ff 
    b2ce:	66 c7 85 62 f6 ff ff 	movw   $0xfffa,-0x99e(%rbp)
    b2d5:	fa ff 
    b2d7:	66 c7 85 64 f6 ff ff 	movw   $0xfff6,-0x99c(%rbp)
    b2de:	f6 ff 
    b2e0:	66 c7 85 66 f6 ff ff 	movw   $0x5,-0x99a(%rbp)
    b2e7:	05 00 
    b2e9:	66 c7 85 68 f6 ff ff 	movw   $0x1,-0x998(%rbp)
    b2f0:	01 00 
    b2f2:	66 c7 85 6a f6 ff ff 	movw   $0x5,-0x996(%rbp)
    b2f9:	05 00 
    b2fb:	66 c7 85 6c f6 ff ff 	movw   $0xfffa,-0x994(%rbp)
    b302:	fa ff 
    b304:	66 c7 85 6e f6 ff ff 	movw   $0xfff6,-0x992(%rbp)
    b30b:	f6 ff 
    b30d:	66 c7 85 70 f6 ff ff 	movw   $0xfff6,-0x990(%rbp)
    b314:	f6 ff 
    b316:	66 c7 85 72 f6 ff ff 	movw   $0x69ed,-0x98e(%rbp)
    b31d:	ed 69 
    b31f:	66 c7 85 74 f6 ff ff 	movw   $0x1,-0x98c(%rbp)
    b326:	01 00 
    b328:	66 c7 85 76 f6 ff ff 	movw   $0x69ed,-0x98a(%rbp)
    b32f:	ed 69 
    b331:	66 c7 85 78 f6 ff ff 	movw   $0xfffa,-0x988(%rbp)
    b338:	fa ff 
    b33a:	66 c7 85 7a f6 ff ff 	movw   $0xfffa,-0x986(%rbp)
    b341:	fa ff 
    b343:	66 c7 85 7c f6 ff ff 	movw   $0xfff6,-0x984(%rbp)
    b34a:	f6 ff 
    b34c:	66 c7 85 7e f6 ff ff 	movw   $0x5,-0x982(%rbp)
    b353:	05 00 
    b355:	66 c7 85 80 f6 ff ff 	movw   $0x1,-0x980(%rbp)
    b35c:	01 00 
    b35e:	66 c7 85 82 f6 ff ff 	movw   $0x5,-0x97e(%rbp)
    b365:	05 00 
    b367:	66 c7 85 84 f6 ff ff 	movw   $0xfffa,-0x97c(%rbp)
    b36e:	fa ff 
    b370:	66 c7 85 86 f6 ff ff 	movw   $0xfff6,-0x97a(%rbp)
    b377:	f6 ff 
    b379:	66 c7 85 88 f6 ff ff 	movw   $0xfff6,-0x978(%rbp)
    b380:	f6 ff 
    b382:	66 c7 85 8a f6 ff ff 	movw   $0x69ed,-0x976(%rbp)
    b389:	ed 69 
    b38b:	66 c7 85 8c f6 ff ff 	movw   $0x1,-0x974(%rbp)
    b392:	01 00 
    b394:	66 c7 85 8e f6 ff ff 	movw   $0x69ed,-0x972(%rbp)
    b39b:	ed 69 
    b39d:	66 c7 85 90 f6 ff ff 	movw   $0xfffa,-0x970(%rbp)
    b3a4:	fa ff 
    b3a6:	66 c7 85 92 f6 ff ff 	movw   $0xfffa,-0x96e(%rbp)
    b3ad:	fa ff 
    b3af:	66 c7 85 94 f6 ff ff 	movw   $0xfff6,-0x96c(%rbp)
    b3b6:	f6 ff 
    b3b8:	66 c7 85 96 f6 ff ff 	movw   $0x5,-0x96a(%rbp)
    b3bf:	05 00 
    b3c1:	66 c7 85 98 f6 ff ff 	movw   $0x1,-0x968(%rbp)
    b3c8:	01 00 
    b3ca:	66 c7 85 9a f6 ff ff 	movw   $0x5,-0x966(%rbp)
    b3d1:	05 00 
    b3d3:	66 c7 85 9c f6 ff ff 	movw   $0xfffa,-0x964(%rbp)
    b3da:	fa ff 
    b3dc:	66 c7 85 9e f6 ff ff 	movw   $0xfff6,-0x962(%rbp)
    b3e3:	f6 ff 
    b3e5:	66 c7 85 a0 f6 ff ff 	movw   $0xfff6,-0x960(%rbp)
    b3ec:	f6 ff 
    b3ee:	66 c7 85 a2 f6 ff ff 	movw   $0x69ed,-0x95e(%rbp)
    b3f5:	ed 69 
    b3f7:	66 c7 85 a4 f6 ff ff 	movw   $0x1,-0x95c(%rbp)
    b3fe:	01 00 
    b400:	66 c7 85 a6 f6 ff ff 	movw   $0x69ed,-0x95a(%rbp)
    b407:	ed 69 
    b409:	66 c7 85 a8 f6 ff ff 	movw   $0xfffa,-0x958(%rbp)
    b410:	fa ff 
    b412:	66 c7 85 aa f6 ff ff 	movw   $0xfffa,-0x956(%rbp)
    b419:	fa ff 
    b41b:	66 c7 85 ac f6 ff ff 	movw   $0xfff6,-0x954(%rbp)
    b422:	f6 ff 
    b424:	66 c7 85 ae f6 ff ff 	movw   $0x5,-0x952(%rbp)
    b42b:	05 00 
    b42d:	66 c7 85 b0 f6 ff ff 	movw   $0x1,-0x950(%rbp)
    b434:	01 00 
    b436:	66 c7 85 b2 f6 ff ff 	movw   $0x5,-0x94e(%rbp)
    b43d:	05 00 
    b43f:	66 c7 85 b4 f6 ff ff 	movw   $0xfffa,-0x94c(%rbp)
    b446:	fa ff 
    b448:	66 c7 85 b6 f6 ff ff 	movw   $0xfff6,-0x94a(%rbp)
    b44f:	f6 ff 
    b451:	66 c7 85 b8 f6 ff ff 	movw   $0xfff6,-0x948(%rbp)
    b458:	f6 ff 
    b45a:	66 c7 85 ba f6 ff ff 	movw   $0x69ed,-0x946(%rbp)
    b461:	ed 69 
    b463:	66 c7 85 bc f6 ff ff 	movw   $0x1,-0x944(%rbp)
    b46a:	01 00 
    b46c:	66 c7 85 be f6 ff ff 	movw   $0x69ed,-0x942(%rbp)
    b473:	ed 69 
    b475:	66 c7 85 c0 f6 ff ff 	movw   $0xfffa,-0x940(%rbp)
    b47c:	fa ff 
    b47e:	66 c7 85 c2 f6 ff ff 	movw   $0xfffa,-0x93e(%rbp)
    b485:	fa ff 
    b487:	66 c7 85 c4 f6 ff ff 	movw   $0xfff6,-0x93c(%rbp)
    b48e:	f6 ff 
    b490:	66 c7 85 c6 f6 ff ff 	movw   $0x5,-0x93a(%rbp)
    b497:	05 00 
    b499:	66 c7 85 c8 f6 ff ff 	movw   $0x1,-0x938(%rbp)
    b4a0:	01 00 
    b4a2:	66 c7 85 ca f6 ff ff 	movw   $0x5,-0x936(%rbp)
    b4a9:	05 00 
    b4ab:	66 c7 85 cc f6 ff ff 	movw   $0xfffa,-0x934(%rbp)
    b4b2:	fa ff 
    b4b4:	66 c7 85 ce f6 ff ff 	movw   $0xfff6,-0x932(%rbp)
    b4bb:	f6 ff 
    b4bd:	66 c7 85 d0 f6 ff ff 	movw   $0xfff6,-0x930(%rbp)
    b4c4:	f6 ff 
    b4c6:	66 c7 85 d2 f6 ff ff 	movw   $0x69ed,-0x92e(%rbp)
    b4cd:	ed 69 
    b4cf:	66 c7 85 d4 f6 ff ff 	movw   $0x1,-0x92c(%rbp)
    b4d6:	01 00 
    b4d8:	66 c7 85 d6 f6 ff ff 	movw   $0x69ed,-0x92a(%rbp)
    b4df:	ed 69 
    b4e1:	66 c7 85 d8 f6 ff ff 	movw   $0xfffa,-0x928(%rbp)
    b4e8:	fa ff 
    b4ea:	66 c7 85 da f6 ff ff 	movw   $0xfffa,-0x926(%rbp)
    b4f1:	fa ff 
    b4f3:	66 c7 85 dc f6 ff ff 	movw   $0xfff6,-0x924(%rbp)
    b4fa:	f6 ff 
    b4fc:	66 c7 85 de f6 ff ff 	movw   $0x5,-0x922(%rbp)
    b503:	05 00 
    b505:	66 c7 85 e0 f6 ff ff 	movw   $0x1,-0x920(%rbp)
    b50c:	01 00 
    b50e:	66 c7 85 e2 f6 ff ff 	movw   $0x5,-0x91e(%rbp)
    b515:	05 00 
    b517:	66 c7 85 e4 f6 ff ff 	movw   $0xfffa,-0x91c(%rbp)
    b51e:	fa ff 
    b520:	66 c7 85 e6 f6 ff ff 	movw   $0xfff6,-0x91a(%rbp)
    b527:	f6 ff 
    b529:	66 c7 85 e8 f6 ff ff 	movw   $0xfff6,-0x918(%rbp)
    b530:	f6 ff 
    b532:	66 c7 85 ea f6 ff ff 	movw   $0x69ed,-0x916(%rbp)
    b539:	ed 69 
    b53b:	66 c7 85 ec f6 ff ff 	movw   $0x1,-0x914(%rbp)
    b542:	01 00 
    b544:	66 c7 85 ee f6 ff ff 	movw   $0x69ed,-0x912(%rbp)
    b54b:	ed 69 
    b54d:	66 c7 85 f0 f6 ff ff 	movw   $0xfffa,-0x910(%rbp)
    b554:	fa ff 
    b556:	66 c7 85 f2 f6 ff ff 	movw   $0xfffa,-0x90e(%rbp)
    b55d:	fa ff 
    b55f:	66 c7 85 f4 f6 ff ff 	movw   $0xfff6,-0x90c(%rbp)
    b566:	f6 ff 
    b568:	66 c7 85 f6 f6 ff ff 	movw   $0x5,-0x90a(%rbp)
    b56f:	05 00 
    b571:	66 c7 85 f8 f6 ff ff 	movw   $0x1,-0x908(%rbp)
    b578:	01 00 
    b57a:	66 c7 85 fa f6 ff ff 	movw   $0x5,-0x906(%rbp)
    b581:	05 00 
    b583:	66 c7 85 fc f6 ff ff 	movw   $0xfffa,-0x904(%rbp)
    b58a:	fa ff 
    b58c:	66 c7 85 fe f6 ff ff 	movw   $0xfff6,-0x902(%rbp)
    b593:	f6 ff 
    b595:	66 c7 85 00 f7 ff ff 	movw   $0xfff6,-0x900(%rbp)
    b59c:	f6 ff 
    b59e:	66 c7 85 02 f7 ff ff 	movw   $0x69ed,-0x8fe(%rbp)
    b5a5:	ed 69 
    b5a7:	66 c7 85 04 f7 ff ff 	movw   $0x1,-0x8fc(%rbp)
    b5ae:	01 00 
    b5b0:	66 c7 85 06 f7 ff ff 	movw   $0x69ed,-0x8fa(%rbp)
    b5b7:	ed 69 
    b5b9:	c7 85 6c f4 ff ff 00 	movl   $0x0,-0xb94(%rbp)
    b5c0:	00 00 00 
    b5c3:	eb 1e                	jmp    b5e3 <func_76+0x131a>
    b5c5:	8b 85 6c f4 ff ff    	mov    -0xb94(%rbp),%eax
    b5cb:	48 98                	cltq   
    b5cd:	48 8d 95 b8 f4 ff ff 	lea    -0xb48(%rbp),%rdx
    b5d4:	48 89 94 c5 00 f6 ff 	mov    %rdx,-0xa00(%rbp,%rax,8)
    b5db:	ff 
    b5dc:	83 85 6c f4 ff ff 01 	addl   $0x1,-0xb94(%rbp)
    b5e3:	83 bd 6c f4 ff ff 05 	cmpl   $0x5,-0xb94(%rbp)
    b5ea:	7e d9                	jle    b5c5 <func_76+0x12fc>
    b5ec:	c7 85 6c f4 ff ff 00 	movl   $0x0,-0xb94(%rbp)
    b5f3:	00 00 00 
    b5f6:	eb 1a                	jmp    b612 <func_76+0x1349>
    b5f8:	8b 85 6c f4 ff ff    	mov    -0xb94(%rbp),%eax
    b5fe:	48 98                	cltq   
    b600:	c7 84 85 b0 f5 ff ff 	movl   $0x88a8f0fa,-0xa50(%rbp,%rax,4)
    b607:	fa f0 a8 88 
    b60b:	83 85 6c f4 ff ff 01 	addl   $0x1,-0xb94(%rbp)
    b612:	83 bd 6c f4 ff ff 06 	cmpl   $0x6,-0xb94(%rbp)
    b619:	7e dd                	jle    b5f8 <func_76+0x132f>
    b61b:	c7 05 b3 5a 00 00 00 	movl   $0x0,0x5ab3(%rip)        # 110d8 <g_126>
    b622:	00 00 00 
    b625:	e9 07 02 00 00       	jmpq   b831 <func_76+0x1568>
    b62a:	c7 85 84 f4 ff ff 4a 	movl   $0x2a5ae14a,-0xb7c(%rbp)
    b631:	e1 5a 2a 
    b634:	48 8d 85 90 f4 ff ff 	lea    -0xb70(%rbp),%rax
    b63b:	48 89 85 50 f5 ff ff 	mov    %rax,-0xab0(%rbp)
    b642:	48 8d 05 87 68 00 00 	lea    0x6887(%rip),%rax        # 11ed0 <g_217>
    b649:	48 89 85 58 f5 ff ff 	mov    %rax,-0xaa8(%rbp)
    b650:	48 8d 05 19 5b 00 00 	lea    0x5b19(%rip),%rax        # 11170 <g_156+0x70>
    b657:	48 89 85 60 f5 ff ff 	mov    %rax,-0xaa0(%rbp)
    b65e:	c7 85 88 f4 ff ff e7 	movl   $0xb183cee7,-0xb78(%rbp)
    b665:	ce 83 b1 
    b668:	8b 85 78 f4 ff ff    	mov    -0xb88(%rbp),%eax
    b66e:	21 85 84 f4 ff ff    	and    %eax,-0xb7c(%rbp)
    b674:	48 8b 05 4d 68 00 00 	mov    0x684d(%rip),%rax        # 11ec8 <g_203>
    b67b:	48 89 05 46 68 00 00 	mov    %rax,0x6846(%rip)        # 11ec8 <g_203>
    b682:	0f b7 05 6b 5b 00 00 	movzwl 0x5b6b(%rip),%eax        # 111f4 <g_190+0x4>
    b689:	0f b7 d8             	movzwl %ax,%ebx
    b68c:	0f be 95 58 f4 ff ff 	movsbl -0xba8(%rbp),%edx
    b693:	48 8b 0d 36 68 00 00 	mov    0x6836(%rip),%rcx        # 11ed0 <g_217>
    b69a:	48 8b 85 58 f5 ff ff 	mov    -0xaa8(%rbp),%rax
    b6a1:	48 89 08             	mov    %rcx,(%rax)
    b6a4:	48 8b 85 58 f5 ff ff 	mov    -0xaa8(%rbp),%rax
    b6ab:	48 8b 00             	mov    (%rax),%rax
    b6ae:	48 85 c0             	test   %rax,%rax
    b6b1:	0f 95 c0             	setne  %al
    b6b4:	0f b6 c0             	movzbl %al,%eax
    b6b7:	89 d6                	mov    %edx,%esi
    b6b9:	89 c7                	mov    %eax,%edi
    b6bb:	e8 45 9f ff ff       	callq  5605 <safe_sub_func_int32_t_s_s>
    b6c0:	85 c0                	test   %eax,%eax
    b6c2:	0f 85 c1 00 00 00    	jne    b789 <func_76+0x14c0>
    b6c8:	0f b6 05 e2 59 00 00 	movzbl 0x59e2(%rip),%eax        # 110b1 <g_115>
    b6cf:	44 0f b6 e0          	movzbl %al,%r12d
    b6d3:	8b 85 78 f4 ff ff    	mov    -0xb88(%rbp),%eax
    b6d9:	0f be c0             	movsbl %al,%eax
    b6dc:	89 c6                	mov    %eax,%esi
    b6de:	bf 01 00 00 00       	mov    $0x1,%edi
    b6e3:	e8 ec 9a ff ff       	callq  51d4 <safe_add_func_int8_t_s_s>
    b6e8:	48 0f be d0          	movsbq %al,%rdx
    b6ec:	48 8b 85 b0 f4 ff ff 	mov    -0xb50(%rbp),%rax
    b6f3:	48 8b 08             	mov    (%rax),%rcx
    b6f6:	48 8b 85 b0 f4 ff ff 	mov    -0xb50(%rbp),%rax
    b6fd:	48 83 f1 06          	xor    $0x6,%rcx
    b701:	48 89 08             	mov    %rcx,(%rax)
    b704:	48 8b 00             	mov    (%rax),%rax
    b707:	48 89 d6             	mov    %rdx,%rsi
    b70a:	48 89 c7             	mov    %rax,%rdi
    b70d:	e8 2f a1 ff ff       	callq  5841 <safe_add_func_int64_t_s_s>
    b712:	48 8b 85 f0 f4 ff ff 	mov    -0xb10(%rbp),%rax
    b719:	c7 00 00 00 00 00    	movl   $0x0,(%rax)
    b71f:	48 8b 85 f0 f4 ff ff 	mov    -0xb10(%rbp),%rax
    b726:	8b 00                	mov    (%rax),%eax
    b728:	85 c0                	test   %eax,%eax
    b72a:	0f 94 c0             	sete   %al
    b72d:	0f b6 c0             	movzbl %al,%eax
    b730:	be 01 00 00 00       	mov    $0x1,%esi
    b735:	89 c7                	mov    %eax,%edi
    b737:	e8 82 a5 ff ff       	callq  5cbe <safe_rshift_func_uint8_t_u_u>
    b73c:	0f b6 c0             	movzbl %al,%eax
    b73f:	48 89 c7             	mov    %rax,%rdi
    b742:	e8 d2 a8 ff ff       	callq  6019 <safe_unary_minus_func_uint64_t_u>
    b747:	48 8b 95 e0 f4 ff ff 	mov    -0xb20(%rbp),%rdx
    b74e:	8b 12                	mov    (%rdx),%edx
    b750:	09 c2                	or     %eax,%edx
    b752:	48 8b 85 e0 f4 ff ff 	mov    -0xb20(%rbp),%rax
    b759:	89 10                	mov    %edx,(%rax)
    b75b:	48 8b 85 e0 f4 ff ff 	mov    -0xb20(%rbp),%rax
    b762:	8b 00                	mov    (%rax),%eax
    b764:	44 89 e6             	mov    %r12d,%esi
    b767:	89 c7                	mov    %eax,%edi
    b769:	e8 4a a7 ff ff       	callq  5eb8 <safe_add_func_uint32_t_u_u>
    b76e:	89 c2                	mov    %eax,%edx
    b770:	48 8b 85 60 f5 ff ff 	mov    -0xaa0(%rbp),%rax
    b777:	48 89 10             	mov    %rdx,(%rax)
    b77a:	48 8b 85 60 f5 ff ff 	mov    -0xaa0(%rbp),%rax
    b781:	48 8b 00             	mov    (%rax),%rax
    b784:	48 85 c0             	test   %rax,%rax
    b787:	74 07                	je     b790 <func_76+0x14c7>
    b789:	b8 01 00 00 00       	mov    $0x1,%eax
    b78e:	eb 05                	jmp    b795 <func_76+0x14cc>
    b790:	b8 00 00 00 00       	mov    $0x0,%eax
    b795:	0f b7 c0             	movzwl %ax,%eax
    b798:	89 c6                	mov    %eax,%esi
    b79a:	bf 00 00 00 00       	mov    $0x0,%edi
    b79f:	e8 ea a5 ff ff       	callq  5d8e <safe_div_func_uint16_t_u_u>
    b7a4:	0f be c0             	movsbl %al,%eax
    b7a7:	be 03 00 00 00       	mov    $0x3,%esi
    b7ac:	89 c7                	mov    %eax,%edi
    b7ae:	e8 ee 9a ff ff       	callq  52a1 <safe_lshift_func_int8_t_s_s>
    b7b3:	8b 05 13 59 00 00    	mov    0x5913(%rip),%eax        # 110cc <g_125+0xc>
    b7b9:	85 c0                	test   %eax,%eax
    b7bb:	0f 95 c0             	setne  %al
    b7be:	0f b6 c0             	movzbl %al,%eax
    b7c1:	89 de                	mov    %ebx,%esi
    b7c3:	89 c7                	mov    %eax,%edi
    b7c5:	e8 c3 a4 ff ff       	callq  5c8d <safe_rshift_func_uint8_t_u_s>
    b7ca:	48 8d 85 a0 f4 ff ff 	lea    -0xb60(%rbp),%rax
    b7d1:	48 39 85 50 f5 ff ff 	cmp    %rax,-0xab0(%rbp)
    b7d8:	74 10                	je     b7ea <func_76+0x1521>
    b7da:	80 bd 58 f4 ff ff 00 	cmpb   $0x0,-0xba8(%rbp)
    b7e1:	74 07                	je     b7ea <func_76+0x1521>
    b7e3:	b8 01 00 00 00       	mov    $0x1,%eax
    b7e8:	eb 05                	jmp    b7ef <func_76+0x1526>
    b7ea:	b8 00 00 00 00       	mov    $0x0,%eax
    b7ef:	be 9c 76 22 3d       	mov    $0x3d22769c,%esi
    b7f4:	89 c7                	mov    %eax,%edi
    b7f6:	e8 d5 a6 ff ff       	callq  5ed0 <safe_sub_func_uint32_t_u_u>
    b7fb:	39 85 84 f4 ff ff    	cmp    %eax,-0xb7c(%rbp)
    b801:	0f 96 c0             	setbe  %al
    b804:	0f b6 d0             	movzbl %al,%edx
    b807:	0f b6 05 79 58 00 00 	movzbl 0x5879(%rip),%eax        # 11087 <g_90+0x7>
    b80e:	0f b6 c0             	movzbl %al,%eax
    b811:	09 d0                	or     %edx,%eax
    b813:	21 85 88 f4 ff ff    	and    %eax,-0xb78(%rbp)
    b819:	8b 05 b9 58 00 00    	mov    0x58b9(%rip),%eax        # 110d8 <g_126>
    b81f:	be 03 00 00 00       	mov    $0x3,%esi
    b824:	89 c7                	mov    %eax,%edi
    b826:	e8 a5 a6 ff ff       	callq  5ed0 <safe_sub_func_uint32_t_u_u>
    b82b:	89 05 a7 58 00 00    	mov    %eax,0x58a7(%rip)        # 110d8 <g_126>
    b831:	8b 05 a1 58 00 00    	mov    0x58a1(%rip),%eax        # 110d8 <g_126>
    b837:	83 f8 ea             	cmp    $0xffffffea,%eax
    b83a:	0f 8c ea fd ff ff    	jl     b62a <func_76+0x1361>
    b840:	66 c7 05 97 58 00 00 	movw   $0xffe3,0x5897(%rip)        # 110e0 <g_153>
    b847:	e3 ff 
    b849:	e9 20 01 00 00       	jmpq   b96e <func_76+0x16a5>
    b84e:	48 8d 85 a8 f4 ff ff 	lea    -0xb58(%rbp),%rax
    b855:	48 89 85 28 f5 ff ff 	mov    %rax,-0xad8(%rbp)
    b85c:	c7 85 d0 f5 ff ff ca 	movl   $0x138d89ca,-0xa30(%rbp)
    b863:	89 8d 13 
    b866:	c7 85 d4 f5 ff ff ca 	movl   $0x138d89ca,-0xa2c(%rbp)
    b86d:	89 8d 13 
    b870:	c7 85 d8 f5 ff ff ca 	movl   $0x138d89ca,-0xa28(%rbp)
    b877:	89 8d 13 
    b87a:	c7 85 dc f5 ff ff ca 	movl   $0x138d89ca,-0xa24(%rbp)
    b881:	89 8d 13 
    b884:	c7 85 e0 f5 ff ff ca 	movl   $0x138d89ca,-0xa20(%rbp)
    b88b:	89 8d 13 
    b88e:	c7 85 e4 f5 ff ff ca 	movl   $0x138d89ca,-0xa1c(%rbp)
    b895:	89 8d 13 
    b898:	c7 85 e8 f5 ff ff ca 	movl   $0x138d89ca,-0xa18(%rbp)
    b89f:	89 8d 13 
    b8a2:	c7 85 ec f5 ff ff ca 	movl   $0x138d89ca,-0xa14(%rbp)
    b8a9:	89 8d 13 
    b8ac:	c7 85 f0 f5 ff ff ca 	movl   $0x138d89ca,-0xa10(%rbp)
    b8b3:	89 8d 13 
    b8b6:	c7 85 7c f4 ff ff ce 	movl   $0x45c5afce,-0xb84(%rbp)
    b8bd:	af c5 45 
    b8c0:	c7 85 80 f4 ff ff 41 	movl   $0x855fff41,-0xb80(%rbp)
    b8c7:	ff 5f 85 
    b8ca:	48 8d 05 87 57 00 00 	lea    0x5787(%rip),%rax        # 11058 <g_50+0x18>
    b8d1:	48 89 85 30 f5 ff ff 	mov    %rax,-0xad0(%rbp)
    b8d8:	66 c7 85 64 f4 ff ff 	movw   $0xa6f6,-0xb9c(%rbp)
    b8df:	f6 a6 
    b8e1:	48 8d 05 48 58 00 00 	lea    0x5848(%rip),%rax        # 11130 <g_156+0x30>
    b8e8:	48 89 85 c8 f4 ff ff 	mov    %rax,-0xb38(%rbp)
    b8ef:	48 8d 85 c8 f4 ff ff 	lea    -0xb38(%rbp),%rax
    b8f6:	48 89 85 38 f5 ff ff 	mov    %rax,-0xac8(%rbp)
    b8fd:	48 8d 85 98 f4 ff ff 	lea    -0xb68(%rbp),%rax
    b904:	48 89 85 d0 f4 ff ff 	mov    %rax,-0xb30(%rbp)
    b90b:	48 8d 85 d0 f4 ff ff 	lea    -0xb30(%rbp),%rax
    b912:	48 89 85 40 f5 ff ff 	mov    %rax,-0xac0(%rbp)
    b919:	48 b8 a3 8d fc 49 b1 	movabs $0x481374b149fc8da3,%rax
    b920:	74 13 48 
    b923:	48 89 85 48 f5 ff ff 	mov    %rax,-0xab8(%rbp)
    b92a:	c7 85 70 f4 ff ff 00 	movl   $0x0,-0xb90(%rbp)
    b931:	00 00 00 
    b934:	eb 1e                	jmp    b954 <func_76+0x168b>
    b936:	8b 85 70 f4 ff ff    	mov    -0xb90(%rbp),%eax
    b93c:	48 98                	cltq   
    b93e:	48 8d 95 a0 f4 ff ff 	lea    -0xb60(%rbp),%rdx
    b945:	48 89 94 c5 78 f5 ff 	mov    %rdx,-0xa88(%rbp,%rax,8)
    b94c:	ff 
    b94d:	83 85 70 f4 ff ff 01 	addl   $0x1,-0xb90(%rbp)
    b954:	83 bd 70 f4 ff ff 00 	cmpl   $0x0,-0xb90(%rbp)
    b95b:	7e d9                	jle    b936 <func_76+0x166d>
    b95d:	0f b7 05 7c 57 00 00 	movzwl 0x577c(%rip),%eax        # 110e0 <g_153>
    b964:	83 c0 01             	add    $0x1,%eax
    b967:	66 89 05 72 57 00 00 	mov    %ax,0x5772(%rip)        # 110e0 <g_153>
    b96e:	0f b7 05 6b 57 00 00 	movzwl 0x576b(%rip),%eax        # 110e0 <g_153>
    b975:	66 83 f8 e7          	cmp    $0xffe7,%ax
    b979:	0f 8d cf fe ff ff    	jge    b84e <func_76+0x1585>
    b97f:	48 8d 85 b0 f5 ff ff 	lea    -0xa50(%rbp),%rax
    b986:	48 89 85 80 f5 ff ff 	mov    %rax,-0xa80(%rbp)
    b98d:	48 0f be 85 58 f4 ff 	movsbq -0xba8(%rbp),%rax
    b994:	ff 
    b995:	48 8b 5d d8          	mov    -0x28(%rbp),%rbx
    b999:	64 48 33 1c 25 28 00 	xor    %fs:0x28,%rbx
    b9a0:	00 00 
    b9a2:	74 05                	je     b9a9 <func_76+0x16e0>
    b9a4:	e8 c7 96 ff ff       	callq  5070 <__stack_chk_fail@plt>
    b9a9:	48 81 c4 a0 0b 00 00 	add    $0xba0,%rsp
    b9b0:	5b                   	pop    %rbx
    b9b1:	41 5c                	pop    %r12
    b9b3:	41 5d                	pop    %r13
    b9b5:	41 5e                	pop    %r14
    b9b7:	5d                   	pop    %rbp
    b9b8:	c3                   	retq   

000000000000b9b9 <func_81>:
    b9b9:	f3 0f 1e fa          	endbr64 
    b9bd:	55                   	push   %rbp
    b9be:	48 89 e5             	mov    %rsp,%rbp
    b9c1:	53                   	push   %rbx
    b9c2:	48 81 ec 38 01 00 00 	sub    $0x138,%rsp
    b9c9:	89 bd dc fe ff ff    	mov    %edi,-0x124(%rbp)
    b9cf:	89 d0                	mov    %edx,%eax
    b9d1:	89 8d d0 fe ff ff    	mov    %ecx,-0x130(%rbp)
    b9d7:	44 89 85 cc fe ff ff 	mov    %r8d,-0x134(%rbp)
    b9de:	89 f2                	mov    %esi,%edx
    b9e0:	66 89 95 d8 fe ff ff 	mov    %dx,-0x128(%rbp)
    b9e7:	66 89 85 d4 fe ff ff 	mov    %ax,-0x12c(%rbp)
    b9ee:	64 48 8b 04 25 28 00 	mov    %fs:0x28,%rax
    b9f5:	00 00 
    b9f7:	48 89 45 e8          	mov    %rax,-0x18(%rbp)
    b9fb:	31 c0                	xor    %eax,%eax
    b9fd:	c7 85 f4 fe ff ff 04 	movl   $0x4,-0x10c(%rbp)
    ba04:	00 00 00 
    ba07:	48 8d 05 a3 56 00 00 	lea    0x56a3(%rip),%rax        # 110b1 <g_115>
    ba0e:	48 89 85 10 ff ff ff 	mov    %rax,-0xf0(%rbp)
    ba15:	48 8d 05 84 64 00 00 	lea    0x6484(%rip),%rax        # 11ea0 <g_41>
    ba1c:	48 89 85 18 ff ff ff 	mov    %rax,-0xe8(%rbp)
    ba23:	c7 85 04 ff ff ff 50 	movl   $0xd61f6b50,-0xfc(%rbp)
    ba2a:	6b 1f d6 
    ba2d:	c7 85 ec fe ff ff da 	movl   $0x18e0d0da,-0x114(%rbp)
    ba34:	d0 e0 18 
    ba37:	c7 85 08 ff ff ff ff 	movl   $0xffffffff,-0xf8(%rbp)
    ba3e:	ff ff ff 
    ba41:	c7 85 0c ff ff ff fa 	movl   $0xfffffffa,-0xf4(%rbp)
    ba48:	ff ff ff 
    ba4b:	c7 85 f0 fe ff ff 8a 	movl   $0x46f2ec8a,-0x110(%rbp)
    ba52:	ec f2 46 
    ba55:	c6 85 ea fe ff ff 80 	movb   $0x80,-0x116(%rbp)
    ba5c:	48 8b 05 f5 55 00 00 	mov    0x55f5(%rip),%rax        # 11058 <g_50+0x18>
    ba63:	89 c3                	mov    %eax,%ebx
    ba65:	8b 85 dc fe ff ff    	mov    -0x124(%rbp),%eax
    ba6b:	0f b6 c0             	movzbl %al,%eax
    ba6e:	89 c6                	mov    %eax,%esi
    ba70:	bf 0e 00 00 00       	mov    $0xe,%edi
    ba75:	e8 34 a1 ff ff       	callq  5bae <safe_mod_func_uint8_t_u_u>
    ba7a:	0f b6 c0             	movzbl %al,%eax
    ba7d:	39 85 f4 fe ff ff    	cmp    %eax,-0x10c(%rbp)
    ba83:	0f 96 c0             	setbe  %al
    ba86:	0f b6 d0             	movzbl %al,%edx
    ba89:	8b 85 f4 fe ff ff    	mov    -0x10c(%rbp),%eax
    ba8f:	0f be c0             	movsbl %al,%eax
    ba92:	89 d6                	mov    %edx,%esi
    ba94:	89 c7                	mov    %eax,%edi
    ba96:	e8 77 97 ff ff       	callq  5212 <safe_mul_func_int8_t_s_s>
    ba9b:	48 0f be d0          	movsbq %al,%rdx
    ba9f:	48 8b 05 d2 55 00 00 	mov    0x55d2(%rip),%rax        # 11078 <g_50+0x38>
    baa6:	48 39 c2             	cmp    %rax,%rdx
    baa9:	0f 95 c0             	setne  %al
    baac:	0f b6 c0             	movzbl %al,%eax
    baaf:	89 de                	mov    %ebx,%esi
    bab1:	89 c7                	mov    %eax,%edi
    bab3:	e8 b4 98 ff ff       	callq  536c <safe_rshift_func_int8_t_s_u>
    bab8:	0f b6 05 c8 55 00 00 	movzbl 0x55c8(%rip),%eax        # 11087 <g_90+0x7>
    babf:	3c 01                	cmp    $0x1,%al
    bac1:	0f 95 c0             	setne  %al
    bac4:	0f b6 d0             	movzbl %al,%edx
    bac7:	8b 05 5f 55 00 00    	mov    0x555f(%rip),%eax        # 1102c <g_26>
    bacd:	39 c2                	cmp    %eax,%edx
    bacf:	be 00 00 00 00       	mov    $0x0,%esi
    bad4:	bf 05 00 00 00       	mov    $0x5,%edi
    bad9:	e8 c3 97 ff ff       	callq  52a1 <safe_lshift_func_int8_t_s_s>
    bade:	89 c2                	mov    %eax,%edx
    bae0:	48 8b 85 10 ff ff ff 	mov    -0xf0(%rbp),%rax
    bae7:	88 10                	mov    %dl,(%rax)
    bae9:	48 8d 05 b0 63 00 00 	lea    0x63b0(%rip),%rax        # 11ea0 <g_41>
    baf0:	48 39 85 18 ff ff ff 	cmp    %rax,-0xe8(%rbp)
    baf7:	0f 95 c0             	setne  %al
    bafa:	0f b6 c0             	movzbl %al,%eax
    bafd:	48 be d3 89 42 1c ef 	movabs $0x77c7a1ef1c4289d3,%rsi
    bb04:	a1 c7 77 
    bb07:	48 89 c7             	mov    %rax,%rdi
    bb0a:	e8 99 9d ff ff       	callq  58a8 <safe_sub_func_int64_t_s_s>
    bb0f:	0f b7 c0             	movzwl %ax,%eax
    bb12:	be 01 00 00 00       	mov    $0x1,%esi
    bb17:	89 c7                	mov    %eax,%edi
    bb19:	e8 2a a3 ff ff       	callq  5e48 <safe_rshift_func_uint16_t_u_s>
    bb1e:	66 39 85 d8 fe ff ff 	cmp    %ax,-0x128(%rbp)
    bb25:	0f 83 59 01 00 00    	jae    bc84 <func_81+0x2cb>
    bb2b:	48 8d 85 ec fe ff ff 	lea    -0x114(%rbp),%rax
    bb32:	48 89 85 70 ff ff ff 	mov    %rax,-0x90(%rbp)
    bb39:	48 c7 85 78 ff ff ff 	movq   $0x0,-0x88(%rbp)
    bb40:	00 00 00 00 
    bb44:	48 8d 85 ec fe ff ff 	lea    -0x114(%rbp),%rax
    bb4b:	48 89 45 80          	mov    %rax,-0x80(%rbp)
    bb4f:	48 c7 45 88 00 00 00 	movq   $0x0,-0x78(%rbp)
    bb56:	00 
    bb57:	48 8d 85 ec fe ff ff 	lea    -0x114(%rbp),%rax
    bb5e:	48 89 45 90          	mov    %rax,-0x70(%rbp)
    bb62:	48 c7 45 98 00 00 00 	movq   $0x0,-0x68(%rbp)
    bb69:	00 
    bb6a:	48 8d 85 ec fe ff ff 	lea    -0x114(%rbp),%rax
    bb71:	48 89 45 a0          	mov    %rax,-0x60(%rbp)
    bb75:	48 8d 85 f0 fe ff ff 	lea    -0x110(%rbp),%rax
    bb7c:	48 89 45 a8          	mov    %rax,-0x58(%rbp)
    bb80:	48 8d 85 f0 fe ff ff 	lea    -0x110(%rbp),%rax
    bb87:	48 89 45 b0          	mov    %rax,-0x50(%rbp)
    bb8b:	48 8d 85 f0 fe ff ff 	lea    -0x110(%rbp),%rax
    bb92:	48 89 45 b8          	mov    %rax,-0x48(%rbp)
    bb96:	48 8d 85 f0 fe ff ff 	lea    -0x110(%rbp),%rax
    bb9d:	48 89 45 c0          	mov    %rax,-0x40(%rbp)
    bba1:	48 8d 85 f0 fe ff ff 	lea    -0x110(%rbp),%rax
    bba8:	48 89 45 c8          	mov    %rax,-0x38(%rbp)
    bbac:	48 8d 85 f0 fe ff ff 	lea    -0x110(%rbp),%rax
    bbb3:	48 89 45 d0          	mov    %rax,-0x30(%rbp)
    bbb7:	48 8d 85 f0 fe ff ff 	lea    -0x110(%rbp),%rax
    bbbe:	48 89 45 d8          	mov    %rax,-0x28(%rbp)
    bbc2:	c7 85 f4 fe ff ff 0d 	movl   $0xd,-0x10c(%rbp)
    bbc9:	00 00 00 
    bbcc:	e9 a4 00 00 00       	jmpq   bc75 <func_81+0x2bc>
    bbd1:	c6 85 eb fe ff ff 00 	movb   $0x0,-0x115(%rbp)
    bbd8:	c7 85 f8 fe ff ff 00 	movl   $0x0,-0x108(%rbp)
    bbdf:	00 00 00 
    bbe2:	eb 43                	jmp    bc27 <func_81+0x26e>
    bbe4:	c7 85 fc fe ff ff 00 	movl   $0x0,-0x104(%rbp)
    bbeb:	00 00 00 
    bbee:	eb 27                	jmp    bc17 <func_81+0x25e>
    bbf0:	8b 85 fc fe ff ff    	mov    -0x104(%rbp),%eax
    bbf6:	48 63 d0             	movslq %eax,%rdx
    bbf9:	8b 85 f8 fe ff ff    	mov    -0x108(%rbp),%eax
    bbff:	48 98                	cltq   
    bc01:	48 01 d0             	add    %rdx,%rax
    bc04:	48 c7 84 c5 20 ff ff 	movq   $0x0,-0xe0(%rbp,%rax,8)
    bc0b:	ff 00 00 00 00 
    bc10:	83 85 fc fe ff ff 01 	addl   $0x1,-0x104(%rbp)
    bc17:	83 bd fc fe ff ff 00 	cmpl   $0x0,-0x104(%rbp)
    bc1e:	7e d0                	jle    bbf0 <func_81+0x237>
    bc20:	83 85 f8 fe ff ff 01 	addl   $0x1,-0x108(%rbp)
    bc27:	83 bd f8 fe ff ff 08 	cmpl   $0x8,-0x108(%rbp)
    bc2e:	7e b4                	jle    bbe4 <func_81+0x22b>
    bc30:	0f b6 85 eb fe ff ff 	movzbl -0x115(%rbp),%eax
    bc37:	83 e8 01             	sub    $0x1,%eax
    bc3a:	88 85 eb fe ff ff    	mov    %al,-0x115(%rbp)
    bc40:	83 bd dc fe ff ff 00 	cmpl   $0x0,-0x124(%rbp)
    bc47:	75 0d                	jne    bc56 <func_81+0x29d>
    bc49:	48 8b 85 50 ff ff ff 	mov    -0xb0(%rbp),%rax
    bc50:	48 89 45 88          	mov    %rax,-0x78(%rbp)
    bc54:	eb 01                	jmp    bc57 <func_81+0x29e>
    bc56:	90                   	nop
    bc57:	8b 85 f4 fe ff ff    	mov    -0x10c(%rbp),%eax
    bc5d:	0f be c0             	movsbl %al,%eax
    bc60:	be 07 00 00 00       	mov    $0x7,%esi
    bc65:	89 c7                	mov    %eax,%edi
    bc67:	e8 68 95 ff ff       	callq  51d4 <safe_add_func_int8_t_s_s>
    bc6c:	0f be c0             	movsbl %al,%eax
    bc6f:	89 85 f4 fe ff ff    	mov    %eax,-0x10c(%rbp)
    bc75:	83 bd f4 fe ff ff 2d 	cmpl   $0x2d,-0x10c(%rbp)
    bc7c:	0f 87 4f ff ff ff    	ja     bbd1 <func_81+0x218>
    bc82:	eb 43                	jmp    bcc7 <func_81+0x30e>
    bc84:	c7 85 00 ff ff ff 00 	movl   $0x0,-0x100(%rbp)
    bc8b:	00 00 00 
    bc8e:	eb 1e                	jmp    bcae <func_81+0x2f5>
    bc90:	8b 85 00 ff ff ff    	mov    -0x100(%rbp),%eax
    bc96:	48 98                	cltq   
    bc98:	48 8d 95 f0 fe ff ff 	lea    -0x110(%rbp),%rdx
    bc9f:	48 89 94 c5 70 ff ff 	mov    %rdx,-0x90(%rbp,%rax,8)
    bca6:	ff 
    bca7:	83 85 00 ff ff ff 01 	addl   $0x1,-0x100(%rbp)
    bcae:	83 bd 00 ff ff ff 00 	cmpl   $0x0,-0x100(%rbp)
    bcb5:	7e d9                	jle    bc90 <func_81+0x2d7>
    bcb7:	0f b6 85 ea fe ff ff 	movzbl -0x116(%rbp),%eax
    bcbe:	83 e8 01             	sub    $0x1,%eax
    bcc1:	88 85 ea fe ff ff    	mov    %al,-0x116(%rbp)
    bcc7:	48 8b 85 18 ff ff ff 	mov    -0xe8(%rbp),%rax
    bcce:	48 8b 4d e8          	mov    -0x18(%rbp),%rcx
    bcd2:	64 48 33 0c 25 28 00 	xor    %fs:0x28,%rcx
    bcd9:	00 00 
    bcdb:	74 05                	je     bce2 <func_81+0x329>
    bcdd:	e8 8e 93 ff ff       	callq  5070 <__stack_chk_fail@plt>
    bce2:	48 81 c4 38 01 00 00 	add    $0x138,%rsp
    bce9:	5b                   	pop    %rbx
    bcea:	5d                   	pop    %rbp
    bceb:	c3                   	retq   

000000000000bcec <main>:
    bcec:	f3 0f 1e fa          	endbr64 
    bcf0:	55                   	push   %rbp
    bcf1:	48 89 e5             	mov    %rsp,%rbp
    bcf4:	48 83 ec 20          	sub    $0x20,%rsp
    bcf8:	89 7d ec             	mov    %edi,-0x14(%rbp)
    bcfb:	48 89 75 e0          	mov    %rsi,-0x20(%rbp)
    bcff:	c7 45 fc 00 00 00 00 	movl   $0x0,-0x4(%rbp)
    bd06:	83 7d ec 02          	cmpl   $0x2,-0x14(%rbp)
    bd0a:	74 25                	je     bd31 <main+0x45>
    bd0c:	48 8b 45 e0          	mov    -0x20(%rbp),%rax
    bd10:	48 83 c0 08          	add    $0x8,%rax
    bd14:	48 8b 00             	mov    (%rax),%rax
    bd17:	48 8d 35 62 1f 00 00 	lea    0x1f62(%rip),%rsi        # dc80 <g_657+0xc20>
    bd1e:	48 89 c7             	mov    %rax,%rdi
    bd21:	e8 6a 93 ff ff       	callq  5090 <strcmp@plt>
    bd26:	85 c0                	test   %eax,%eax
    bd28:	74 07                	je     bd31 <main+0x45>
    bd2a:	c7 45 fc 01 00 00 00 	movl   $0x1,-0x4(%rbp)
    bd31:	e8 53 94 ff ff       	callq  5189 <platform_main_begin>
    bd36:	e8 5d a8 ff ff       	callq  6598 <crc32_gentab>
    bd3b:	e8 75 aa ff ff       	callq  67b5 <func_1>
    bd40:	8b 05 de 52 00 00    	mov    0x52de(%rip),%eax        # 11024 <g_2>
    bd46:	48 98                	cltq   
    bd48:	8b 55 fc             	mov    -0x4(%rbp),%edx
    bd4b:	48 8d 35 30 1f 00 00 	lea    0x1f30(%rip),%rsi        # dc82 <g_657+0xc22>
    bd52:	48 89 c7             	mov    %rax,%rdi
    bd55:	e8 99 a9 ff ff       	callq  66f3 <transparent_crc>
    bd5a:	8b 05 c8 52 00 00    	mov    0x52c8(%rip),%eax        # 11028 <g_3>
    bd60:	48 98                	cltq   
    bd62:	8b 55 fc             	mov    -0x4(%rbp),%edx
    bd65:	48 8d 35 1a 1f 00 00 	lea    0x1f1a(%rip),%rsi        # dc86 <g_657+0xc26>
    bd6c:	48 89 c7             	mov    %rax,%rdi
    bd6f:	e8 7f a9 ff ff       	callq  66f3 <transparent_crc>
    bd74:	8b 05 b2 52 00 00    	mov    0x52b2(%rip),%eax        # 1102c <g_26>
    bd7a:	48 98                	cltq   
    bd7c:	8b 55 fc             	mov    -0x4(%rbp),%edx
    bd7f:	48 8d 35 04 1f 00 00 	lea    0x1f04(%rip),%rsi        # dc8a <g_657+0xc2a>
    bd86:	48 89 c7             	mov    %rax,%rdi
    bd89:	e8 65 a9 ff ff       	callq  66f3 <transparent_crc>
    bd8e:	c7 45 f0 00 00 00 00 	movl   $0x0,-0x10(%rbp)
    bd95:	eb 4f                	jmp    bde6 <main+0xfa>
    bd97:	8b 45 f0             	mov    -0x10(%rbp),%eax
    bd9a:	48 98                	cltq   
    bd9c:	48 8d 14 c5 00 00 00 	lea    0x0(,%rax,8),%rdx
    bda3:	00 
    bda4:	48 8d 05 95 52 00 00 	lea    0x5295(%rip),%rax        # 11040 <g_50>
    bdab:	48 8b 04 02          	mov    (%rdx,%rax,1),%rax
    bdaf:	48 89 c1             	mov    %rax,%rcx
    bdb2:	8b 45 fc             	mov    -0x4(%rbp),%eax
    bdb5:	89 c2                	mov    %eax,%edx
    bdb7:	48 8d 35 d1 1e 00 00 	lea    0x1ed1(%rip),%rsi        # dc8f <g_657+0xc2f>
    bdbe:	48 89 cf             	mov    %rcx,%rdi
    bdc1:	e8 2d a9 ff ff       	callq  66f3 <transparent_crc>
    bdc6:	83 7d fc 00          	cmpl   $0x0,-0x4(%rbp)
    bdca:	74 16                	je     bde2 <main+0xf6>
    bdcc:	8b 45 f0             	mov    -0x10(%rbp),%eax
    bdcf:	89 c6                	mov    %eax,%esi
    bdd1:	48 8d 3d bf 1e 00 00 	lea    0x1ebf(%rip),%rdi        # dc97 <g_657+0xc37>
    bdd8:	b8 00 00 00 00       	mov    $0x0,%eax
    bddd:	e8 9e 92 ff ff       	callq  5080 <printf@plt>
    bde2:	83 45 f0 01          	addl   $0x1,-0x10(%rbp)
    bde6:	83 7d f0 07          	cmpl   $0x7,-0x10(%rbp)
    bdea:	7e ab                	jle    bd97 <main+0xab>
    bdec:	c7 45 f0 00 00 00 00 	movl   $0x0,-0x10(%rbp)
    bdf3:	e9 95 00 00 00       	jmpq   be8d <main+0x1a1>
    bdf8:	c7 45 f4 00 00 00 00 	movl   $0x0,-0xc(%rbp)
    bdff:	eb 7e                	jmp    be7f <main+0x193>
    be01:	c7 45 f8 00 00 00 00 	movl   $0x0,-0x8(%rbp)
    be08:	eb 6b                	jmp    be75 <main+0x189>
    be0a:	8b 45 f8             	mov    -0x8(%rbp),%eax
    be0d:	48 63 f0             	movslq %eax,%rsi
    be10:	8b 45 f4             	mov    -0xc(%rbp),%eax
    be13:	48 63 c8             	movslq %eax,%rcx
    be16:	8b 45 f0             	mov    -0x10(%rbp),%eax
    be19:	48 63 d0             	movslq %eax,%rdx
    be1c:	48 89 d0             	mov    %rdx,%rax
    be1f:	48 c1 e0 03          	shl    $0x3,%rax
    be23:	48 29 d0             	sub    %rdx,%rax
    be26:	48 01 f0             	add    %rsi,%rax
    be29:	48 8d 14 08          	lea    (%rax,%rcx,1),%rdx
    be2d:	48 8d 05 4c 52 00 00 	lea    0x524c(%rip),%rax        # 11080 <g_90>
    be34:	48 01 d0             	add    %rdx,%rax
    be37:	0f b6 00             	movzbl (%rax),%eax
    be3a:	0f b6 c0             	movzbl %al,%eax
    be3d:	8b 55 fc             	mov    -0x4(%rbp),%edx
    be40:	48 8d 35 5e 1e 00 00 	lea    0x1e5e(%rip),%rsi        # dca5 <g_657+0xc45>
    be47:	48 89 c7             	mov    %rax,%rdi
    be4a:	e8 a4 a8 ff ff       	callq  66f3 <transparent_crc>
    be4f:	83 7d fc 00          	cmpl   $0x0,-0x4(%rbp)
    be53:	74 1c                	je     be71 <main+0x185>
    be55:	8b 4d f8             	mov    -0x8(%rbp),%ecx
    be58:	8b 55 f4             	mov    -0xc(%rbp),%edx
    be5b:	8b 45 f0             	mov    -0x10(%rbp),%eax
    be5e:	89 c6                	mov    %eax,%esi
    be60:	48 8d 3d 4c 1e 00 00 	lea    0x1e4c(%rip),%rdi        # dcb3 <g_657+0xc53>
    be67:	b8 00 00 00 00       	mov    $0x0,%eax
    be6c:	e8 0f 92 ff ff       	callq  5080 <printf@plt>
    be71:	83 45 f8 01          	addl   $0x1,-0x8(%rbp)
    be75:	83 7d f8 00          	cmpl   $0x0,-0x8(%rbp)
    be79:	7e 8f                	jle    be0a <main+0x11e>
    be7b:	83 45 f4 01          	addl   $0x1,-0xc(%rbp)
    be7f:	83 7d f4 06          	cmpl   $0x6,-0xc(%rbp)
    be83:	0f 8e 78 ff ff ff    	jle    be01 <main+0x115>
    be89:	83 45 f0 01          	addl   $0x1,-0x10(%rbp)
    be8d:	83 7d f0 06          	cmpl   $0x6,-0x10(%rbp)
    be91:	0f 8e 61 ff ff ff    	jle    bdf8 <main+0x10c>
    be97:	0f b6 05 13 52 00 00 	movzbl 0x5213(%rip),%eax        # 110b1 <g_115>
    be9e:	0f b6 c0             	movzbl %al,%eax
    bea1:	8b 55 fc             	mov    -0x4(%rbp),%edx
    bea4:	48 8d 35 1e 1e 00 00 	lea    0x1e1e(%rip),%rsi        # dcc9 <g_657+0xc69>
    beab:	48 89 c7             	mov    %rax,%rdi
    beae:	e8 40 a8 ff ff       	callq  66f3 <transparent_crc>
    beb3:	0f b6 05 f8 51 00 00 	movzbl 0x51f8(%rip),%eax        # 110b2 <g_122>
    beba:	48 0f be c0          	movsbq %al,%rax
    bebe:	8b 55 fc             	mov    -0x4(%rbp),%edx
    bec1:	48 8d 35 07 1e 00 00 	lea    0x1e07(%rip),%rsi        # dccf <g_657+0xc6f>
    bec8:	48 89 c7             	mov    %rax,%rdi
    becb:	e8 23 a8 ff ff       	callq  66f3 <transparent_crc>
    bed0:	8b 05 de 51 00 00    	mov    0x51de(%rip),%eax        # 110b4 <g_123>
    bed6:	48 98                	cltq   
    bed8:	8b 55 fc             	mov    -0x4(%rbp),%edx
    bedb:	48 8d 35 f3 1d 00 00 	lea    0x1df3(%rip),%rsi        # dcd5 <g_657+0xc75>
    bee2:	48 89 c7             	mov    %rax,%rdi
    bee5:	e8 09 a8 ff ff       	callq  66f3 <transparent_crc>
    beea:	c7 45 f0 00 00 00 00 	movl   $0x0,-0x10(%rbp)
    bef1:	eb 4b                	jmp    bf3e <main+0x252>
    bef3:	8b 45 f0             	mov    -0x10(%rbp),%eax
    bef6:	48 98                	cltq   
    bef8:	48 8d 14 85 00 00 00 	lea    0x0(,%rax,4),%rdx
    beff:	00 
    bf00:	48 8d 05 b9 51 00 00 	lea    0x51b9(%rip),%rax        # 110c0 <g_125>
    bf07:	8b 04 02             	mov    (%rdx,%rax,1),%eax
    bf0a:	48 98                	cltq   
    bf0c:	8b 55 fc             	mov    -0x4(%rbp),%edx
    bf0f:	48 8d 35 c5 1d 00 00 	lea    0x1dc5(%rip),%rsi        # dcdb <g_657+0xc7b>
    bf16:	48 89 c7             	mov    %rax,%rdi
    bf19:	e8 d5 a7 ff ff       	callq  66f3 <transparent_crc>
    bf1e:	83 7d fc 00          	cmpl   $0x0,-0x4(%rbp)
    bf22:	74 16                	je     bf3a <main+0x24e>
    bf24:	8b 45 f0             	mov    -0x10(%rbp),%eax
    bf27:	89 c6                	mov    %eax,%esi
    bf29:	48 8d 3d 67 1d 00 00 	lea    0x1d67(%rip),%rdi        # dc97 <g_657+0xc37>
    bf30:	b8 00 00 00 00       	mov    $0x0,%eax
    bf35:	e8 46 91 ff ff       	callq  5080 <printf@plt>
    bf3a:	83 45 f0 01          	addl   $0x1,-0x10(%rbp)
    bf3e:	83 7d f0 05          	cmpl   $0x5,-0x10(%rbp)
    bf42:	7e af                	jle    bef3 <main+0x207>
    bf44:	8b 05 8e 51 00 00    	mov    0x518e(%rip),%eax        # 110d8 <g_126>
    bf4a:	48 98                	cltq   
    bf4c:	8b 55 fc             	mov    -0x4(%rbp),%edx
    bf4f:	48 8d 35 8e 1d 00 00 	lea    0x1d8e(%rip),%rsi        # dce4 <g_657+0xc84>
    bf56:	48 89 c7             	mov    %rax,%rdi
    bf59:	e8 95 a7 ff ff       	callq  66f3 <transparent_crc>
    bf5e:	8b 05 78 51 00 00    	mov    0x5178(%rip),%eax        # 110dc <g_139>
    bf64:	89 c1                	mov    %eax,%ecx
    bf66:	8b 45 fc             	mov    -0x4(%rbp),%eax
    bf69:	89 c2                	mov    %eax,%edx
    bf6b:	48 8d 35 78 1d 00 00 	lea    0x1d78(%rip),%rsi        # dcea <g_657+0xc8a>
    bf72:	48 89 cf             	mov    %rcx,%rdi
    bf75:	e8 79 a7 ff ff       	callq  66f3 <transparent_crc>
    bf7a:	0f b7 05 5f 51 00 00 	movzwl 0x515f(%rip),%eax        # 110e0 <g_153>
    bf81:	48 0f bf c0          	movswq %ax,%rax
    bf85:	8b 55 fc             	mov    -0x4(%rbp),%edx
    bf88:	48 8d 35 61 1d 00 00 	lea    0x1d61(%rip),%rsi        # dcf0 <g_657+0xc90>
    bf8f:	48 89 c7             	mov    %rax,%rdi
    bf92:	e8 5c a7 ff ff       	callq  66f3 <transparent_crc>
    bf97:	c7 45 f0 00 00 00 00 	movl   $0x0,-0x10(%rbp)
    bf9e:	e9 96 00 00 00       	jmpq   c039 <main+0x34d>
    bfa3:	c7 45 f4 00 00 00 00 	movl   $0x0,-0xc(%rbp)
    bfaa:	eb 7f                	jmp    c02b <main+0x33f>
    bfac:	c7 45 f8 00 00 00 00 	movl   $0x0,-0x8(%rbp)
    bfb3:	eb 6c                	jmp    c021 <main+0x335>
    bfb5:	8b 45 f8             	mov    -0x8(%rbp),%eax
    bfb8:	48 63 c8             	movslq %eax,%rcx
    bfbb:	8b 45 f0             	mov    -0x10(%rbp),%eax
    bfbe:	48 63 d0             	movslq %eax,%rdx
    bfc1:	8b 45 f4             	mov    -0xc(%rbp),%eax
    bfc4:	48 98                	cltq   
    bfc6:	48 01 c2             	add    %rax,%rdx
    bfc9:	48 89 d0             	mov    %rdx,%rax
    bfcc:	48 c1 e0 02          	shl    $0x2,%rax
    bfd0:	48 01 d0             	add    %rdx,%rax
    bfd3:	48 01 c8             	add    %rcx,%rax
    bfd6:	48 8d 14 c5 00 00 00 	lea    0x0(,%rax,8),%rdx
    bfdd:	00 
    bfde:	48 8d 05 1b 51 00 00 	lea    0x511b(%rip),%rax        # 11100 <g_156>
    bfe5:	48 8b 04 02          	mov    (%rdx,%rax,1),%rax
    bfe9:	8b 55 fc             	mov    -0x4(%rbp),%edx
    bfec:	48 8d 35 03 1d 00 00 	lea    0x1d03(%rip),%rsi        # dcf6 <g_657+0xc96>
    bff3:	48 89 c7             	mov    %rax,%rdi
    bff6:	e8 f8 a6 ff ff       	callq  66f3 <transparent_crc>
    bffb:	83 7d fc 00          	cmpl   $0x0,-0x4(%rbp)
    bfff:	74 1c                	je     c01d <main+0x331>
    c001:	8b 4d f8             	mov    -0x8(%rbp),%ecx
    c004:	8b 55 f4             	mov    -0xc(%rbp),%edx
    c007:	8b 45 f0             	mov    -0x10(%rbp),%eax
    c00a:	89 c6                	mov    %eax,%esi
    c00c:	48 8d 3d a0 1c 00 00 	lea    0x1ca0(%rip),%rdi        # dcb3 <g_657+0xc53>
    c013:	b8 00 00 00 00       	mov    $0x0,%eax
    c018:	e8 63 90 ff ff       	callq  5080 <printf@plt>
    c01d:	83 45 f8 01          	addl   $0x1,-0x8(%rbp)
    c021:	83 7d f8 04          	cmpl   $0x4,-0x8(%rbp)
    c025:	7e 8e                	jle    bfb5 <main+0x2c9>
    c027:	83 45 f4 01          	addl   $0x1,-0xc(%rbp)
    c02b:	83 7d f4 00          	cmpl   $0x0,-0xc(%rbp)
    c02f:	0f 8e 77 ff ff ff    	jle    bfac <main+0x2c0>
    c035:	83 45 f0 01          	addl   $0x1,-0x10(%rbp)
    c039:	83 7d f0 05          	cmpl   $0x5,-0x10(%rbp)
    c03d:	0f 8e 60 ff ff ff    	jle    bfa3 <main+0x2b7>
    c043:	c7 45 f0 00 00 00 00 	movl   $0x0,-0x10(%rbp)
    c04a:	eb 68                	jmp    c0b4 <main+0x3c8>
    c04c:	c7 45 f4 00 00 00 00 	movl   $0x0,-0xc(%rbp)
    c053:	eb 55                	jmp    c0aa <main+0x3be>
    c055:	8b 45 f4             	mov    -0xc(%rbp),%eax
    c058:	48 63 d0             	movslq %eax,%rdx
    c05b:	8b 45 f0             	mov    -0x10(%rbp),%eax
    c05e:	48 98                	cltq   
    c060:	48 01 d0             	add    %rdx,%rax
    c063:	48 8d 14 00          	lea    (%rax,%rax,1),%rdx
    c067:	48 8d 05 82 51 00 00 	lea    0x5182(%rip),%rax        # 111f0 <g_190>
    c06e:	0f b7 04 02          	movzwl (%rdx,%rax,1),%eax
    c072:	0f b7 c0             	movzwl %ax,%eax
    c075:	8b 55 fc             	mov    -0x4(%rbp),%edx
    c078:	48 8d 35 86 1c 00 00 	lea    0x1c86(%rip),%rsi        # dd05 <g_657+0xca5>
    c07f:	48 89 c7             	mov    %rax,%rdi
    c082:	e8 6c a6 ff ff       	callq  66f3 <transparent_crc>
    c087:	83 7d fc 00          	cmpl   $0x0,-0x4(%rbp)
    c08b:	74 19                	je     c0a6 <main+0x3ba>
    c08d:	8b 55 f4             	mov    -0xc(%rbp),%edx
    c090:	8b 45 f0             	mov    -0x10(%rbp),%eax
    c093:	89 c6                	mov    %eax,%esi
    c095:	48 8d 3d 75 1c 00 00 	lea    0x1c75(%rip),%rdi        # dd11 <g_657+0xcb1>
    c09c:	b8 00 00 00 00       	mov    $0x0,%eax
    c0a1:	e8 da 8f ff ff       	callq  5080 <printf@plt>
    c0a6:	83 45 f4 01          	addl   $0x1,-0xc(%rbp)
    c0aa:	83 7d f4 00          	cmpl   $0x0,-0xc(%rbp)
    c0ae:	7e a5                	jle    c055 <main+0x369>
    c0b0:	83 45 f0 01          	addl   $0x1,-0x10(%rbp)
    c0b4:	83 7d f0 03          	cmpl   $0x3,-0x10(%rbp)
    c0b8:	7e 92                	jle    c04c <main+0x360>
    c0ba:	8b 05 38 51 00 00    	mov    0x5138(%rip),%eax        # 111f8 <g_196>
    c0c0:	89 c1                	mov    %eax,%ecx
    c0c2:	8b 45 fc             	mov    -0x4(%rbp),%eax
    c0c5:	89 c2                	mov    %eax,%edx
    c0c7:	48 8d 35 55 1c 00 00 	lea    0x1c55(%rip),%rsi        # dd23 <g_657+0xcc3>
    c0ce:	48 89 cf             	mov    %rcx,%rdi
    c0d1:	e8 1d a6 ff ff       	callq  66f3 <transparent_crc>
    c0d6:	0f b7 05 1f 51 00 00 	movzwl 0x511f(%rip),%eax        # 111fc <g_198>
    c0dd:	0f b7 c0             	movzwl %ax,%eax
    c0e0:	8b 55 fc             	mov    -0x4(%rbp),%edx
    c0e3:	48 8d 35 3f 1c 00 00 	lea    0x1c3f(%rip),%rsi        # dd29 <g_657+0xcc9>
    c0ea:	48 89 c7             	mov    %rax,%rdi
    c0ed:	e8 01 a6 ff ff       	callq  66f3 <transparent_crc>
    c0f2:	c7 45 f0 00 00 00 00 	movl   $0x0,-0x10(%rbp)
    c0f9:	eb 4a                	jmp    c145 <main+0x459>
    c0fb:	8b 45 f0             	mov    -0x10(%rbp),%eax
    c0fe:	48 98                	cltq   
    c100:	48 8d 14 00          	lea    (%rax,%rax,1),%rdx
    c104:	48 8d 05 f3 50 00 00 	lea    0x50f3(%rip),%rax        # 111fe <g_286>
    c10b:	0f b7 04 02          	movzwl (%rdx,%rax,1),%eax
    c10f:	48 0f bf c0          	movswq %ax,%rax
    c113:	8b 55 fc             	mov    -0x4(%rbp),%edx
    c116:	48 8d 35 12 1c 00 00 	lea    0x1c12(%rip),%rsi        # dd2f <g_657+0xccf>
    c11d:	48 89 c7             	mov    %rax,%rdi
    c120:	e8 ce a5 ff ff       	callq  66f3 <transparent_crc>
    c125:	83 7d fc 00          	cmpl   $0x0,-0x4(%rbp)
    c129:	74 16                	je     c141 <main+0x455>
    c12b:	8b 45 f0             	mov    -0x10(%rbp),%eax
    c12e:	89 c6                	mov    %eax,%esi
    c130:	48 8d 3d 60 1b 00 00 	lea    0x1b60(%rip),%rdi        # dc97 <g_657+0xc37>
    c137:	b8 00 00 00 00       	mov    $0x0,%eax
    c13c:	e8 3f 8f ff ff       	callq  5080 <printf@plt>
    c141:	83 45 f0 01          	addl   $0x1,-0x10(%rbp)
    c145:	83 7d f0 00          	cmpl   $0x0,-0x10(%rbp)
    c149:	7e b0                	jle    c0fb <main+0x40f>
    c14b:	c7 45 f0 00 00 00 00 	movl   $0x0,-0x10(%rbp)
    c152:	eb 4d                	jmp    c1a1 <main+0x4b5>
    c154:	8b 45 f0             	mov    -0x10(%rbp),%eax
    c157:	48 98                	cltq   
    c159:	48 8d 14 85 00 00 00 	lea    0x0(,%rax,4),%rdx
    c160:	00 
    c161:	48 8d 05 98 50 00 00 	lea    0x5098(%rip),%rax        # 11200 <g_289>
    c168:	8b 04 02             	mov    (%rdx,%rax,1),%eax
    c16b:	89 c1                	mov    %eax,%ecx
    c16d:	8b 45 fc             	mov    -0x4(%rbp),%eax
    c170:	89 c2                	mov    %eax,%edx
    c172:	48 8d 35 bf 1b 00 00 	lea    0x1bbf(%rip),%rsi        # dd38 <g_657+0xcd8>
    c179:	48 89 cf             	mov    %rcx,%rdi
    c17c:	e8 72 a5 ff ff       	callq  66f3 <transparent_crc>
    c181:	83 7d fc 00          	cmpl   $0x0,-0x4(%rbp)
    c185:	74 16                	je     c19d <main+0x4b1>
    c187:	8b 45 f0             	mov    -0x10(%rbp),%eax
    c18a:	89 c6                	mov    %eax,%esi
    c18c:	48 8d 3d 04 1b 00 00 	lea    0x1b04(%rip),%rdi        # dc97 <g_657+0xc37>
    c193:	b8 00 00 00 00       	mov    $0x0,%eax
    c198:	e8 e3 8e ff ff       	callq  5080 <printf@plt>
    c19d:	83 45 f0 01          	addl   $0x1,-0x10(%rbp)
    c1a1:	83 7d f0 09          	cmpl   $0x9,-0x10(%rbp)
    c1a5:	7e ad                	jle    c154 <main+0x468>
    c1a7:	c7 45 f0 00 00 00 00 	movl   $0x0,-0x10(%rbp)
    c1ae:	eb 6d                	jmp    c21d <main+0x531>
    c1b0:	c7 45 f4 00 00 00 00 	movl   $0x0,-0xc(%rbp)
    c1b7:	eb 5a                	jmp    c213 <main+0x527>
    c1b9:	8b 45 f4             	mov    -0xc(%rbp),%eax
    c1bc:	48 98                	cltq   
    c1be:	8b 55 f0             	mov    -0x10(%rbp),%edx
    c1c1:	48 63 d2             	movslq %edx,%rdx
    c1c4:	48 01 d2             	add    %rdx,%rdx
    c1c7:	48 01 d0             	add    %rdx,%rax
    c1ca:	48 8d 14 85 00 00 00 	lea    0x0(,%rax,4),%rdx
    c1d1:	00 
    c1d2:	48 8d 05 67 50 00 00 	lea    0x5067(%rip),%rax        # 11240 <g_324>
    c1d9:	8b 04 02             	mov    (%rdx,%rax,1),%eax
    c1dc:	48 98                	cltq   
    c1de:	8b 55 fc             	mov    -0x4(%rbp),%edx
    c1e1:	48 8d 35 59 1b 00 00 	lea    0x1b59(%rip),%rsi        # dd41 <g_657+0xce1>
    c1e8:	48 89 c7             	mov    %rax,%rdi
    c1eb:	e8 03 a5 ff ff       	callq  66f3 <transparent_crc>
    c1f0:	83 7d fc 00          	cmpl   $0x0,-0x4(%rbp)
    c1f4:	74 19                	je     c20f <main+0x523>
    c1f6:	8b 55 f4             	mov    -0xc(%rbp),%edx
    c1f9:	8b 45 f0             	mov    -0x10(%rbp),%eax
    c1fc:	89 c6                	mov    %eax,%esi
    c1fe:	48 8d 3d 0c 1b 00 00 	lea    0x1b0c(%rip),%rdi        # dd11 <g_657+0xcb1>
    c205:	b8 00 00 00 00       	mov    $0x0,%eax
    c20a:	e8 71 8e ff ff       	callq  5080 <printf@plt>
    c20f:	83 45 f4 01          	addl   $0x1,-0xc(%rbp)
    c213:	83 7d f4 01          	cmpl   $0x1,-0xc(%rbp)
    c217:	7e a0                	jle    c1b9 <main+0x4cd>
    c219:	83 45 f0 01          	addl   $0x1,-0x10(%rbp)
    c21d:	83 7d f0 06          	cmpl   $0x6,-0x10(%rbp)
    c221:	7e 8d                	jle    c1b0 <main+0x4c4>
    c223:	0f b7 05 4e 50 00 00 	movzwl 0x504e(%rip),%eax        # 11278 <g_436>
    c22a:	0f b7 c0             	movzwl %ax,%eax
    c22d:	8b 55 fc             	mov    -0x4(%rbp),%edx
    c230:	48 8d 35 16 1b 00 00 	lea    0x1b16(%rip),%rsi        # dd4d <g_657+0xced>
    c237:	48 89 c7             	mov    %rax,%rdi
    c23a:	e8 b4 a4 ff ff       	callq  66f3 <transparent_crc>
    c23f:	48 8b 05 3a 50 00 00 	mov    0x503a(%rip),%rax        # 11280 <g_462>
    c246:	8b 55 fc             	mov    -0x4(%rbp),%edx
    c249:	48 8d 35 03 1b 00 00 	lea    0x1b03(%rip),%rsi        # dd53 <g_657+0xcf3>
    c250:	48 89 c7             	mov    %rax,%rdi
    c253:	e8 9b a4 ff ff       	callq  66f3 <transparent_crc>
    c258:	8b 05 1a 72 00 00    	mov    0x721a(%rip),%eax        # 13478 <g_507>
    c25e:	89 c1                	mov    %eax,%ecx
    c260:	8b 45 fc             	mov    -0x4(%rbp),%eax
    c263:	89 c2                	mov    %eax,%edx
    c265:	48 8d 35 ed 1a 00 00 	lea    0x1aed(%rip),%rsi        # dd59 <g_657+0xcf9>
    c26c:	48 89 cf             	mov    %rcx,%rdi
    c26f:	e8 7f a4 ff ff       	callq  66f3 <transparent_crc>
    c274:	c7 45 f0 00 00 00 00 	movl   $0x0,-0x10(%rbp)
    c27b:	eb 4a                	jmp    c2c7 <main+0x5db>
    c27d:	8b 45 f0             	mov    -0x10(%rbp),%eax
    c280:	48 98                	cltq   
    c282:	48 8d 14 00          	lea    (%rax,%rax,1),%rdx
    c286:	48 8d 05 d3 0d 00 00 	lea    0xdd3(%rip),%rax        # d060 <g_657>
    c28d:	0f b7 04 02          	movzwl (%rdx,%rax,1),%eax
    c291:	48 0f bf c0          	movswq %ax,%rax
    c295:	8b 55 fc             	mov    -0x4(%rbp),%edx
    c298:	48 8d 35 c0 1a 00 00 	lea    0x1ac0(%rip),%rsi        # dd5f <g_657+0xcff>
    c29f:	48 89 c7             	mov    %rax,%rdi
    c2a2:	e8 4c a4 ff ff       	callq  66f3 <transparent_crc>
    c2a7:	83 7d fc 00          	cmpl   $0x0,-0x4(%rbp)
    c2ab:	74 16                	je     c2c3 <main+0x5d7>
    c2ad:	8b 45 f0             	mov    -0x10(%rbp),%eax
    c2b0:	89 c6                	mov    %eax,%esi
    c2b2:	48 8d 3d de 19 00 00 	lea    0x19de(%rip),%rdi        # dc97 <g_657+0xc37>
    c2b9:	b8 00 00 00 00       	mov    $0x0,%eax
    c2be:	e8 bd 8d ff ff       	callq  5080 <printf@plt>
    c2c3:	83 45 f0 01          	addl   $0x1,-0x10(%rbp)
    c2c7:	83 7d f0 01          	cmpl   $0x1,-0x10(%rbp)
    c2cb:	7e b0                	jle    c27d <main+0x591>
    c2cd:	48 8b 05 b4 4f 00 00 	mov    0x4fb4(%rip),%rax        # 11288 <g_717>
    c2d4:	48 89 c1             	mov    %rax,%rcx
    c2d7:	8b 45 fc             	mov    -0x4(%rbp),%eax
    c2da:	89 c2                	mov    %eax,%edx
    c2dc:	48 8d 35 85 1a 00 00 	lea    0x1a85(%rip),%rsi        # dd68 <g_657+0xd08>
    c2e3:	48 89 cf             	mov    %rcx,%rdi
    c2e6:	e8 08 a4 ff ff       	callq  66f3 <transparent_crc>
    c2eb:	8b 05 9f 4f 00 00    	mov    0x4f9f(%rip),%eax        # 11290 <g_973>
    c2f1:	89 c1                	mov    %eax,%ecx
    c2f3:	8b 45 fc             	mov    -0x4(%rbp),%eax
    c2f6:	89 c2                	mov    %eax,%edx
    c2f8:	48 8d 35 6f 1a 00 00 	lea    0x1a6f(%rip),%rsi        # dd6e <g_657+0xd0e>
    c2ff:	48 89 cf             	mov    %rcx,%rdi
    c302:	e8 ec a3 ff ff       	callq  66f3 <transparent_crc>
    c307:	48 8b 05 8a 4f 00 00 	mov    0x4f8a(%rip),%rax        # 11298 <g_995>
    c30e:	8b 55 fc             	mov    -0x4(%rbp),%edx
    c311:	48 8d 35 5c 1a 00 00 	lea    0x1a5c(%rip),%rsi        # dd74 <g_657+0xd14>
    c318:	48 89 c7             	mov    %rax,%rdi
    c31b:	e8 d3 a3 ff ff       	callq  66f3 <transparent_crc>
    c320:	8b 05 7a 4f 00 00    	mov    0x4f7a(%rip),%eax        # 112a0 <g_1032>
    c326:	48 98                	cltq   
    c328:	8b 55 fc             	mov    -0x4(%rbp),%edx
    c32b:	48 8d 35 48 1a 00 00 	lea    0x1a48(%rip),%rsi        # dd7a <g_657+0xd1a>
    c332:	48 89 c7             	mov    %rax,%rdi
    c335:	e8 b9 a3 ff ff       	callq  66f3 <transparent_crc>
    c33a:	8b 05 64 4f 00 00    	mov    0x4f64(%rip),%eax        # 112a4 <g_1033>
    c340:	48 98                	cltq   
    c342:	8b 55 fc             	mov    -0x4(%rbp),%edx
    c345:	48 8d 35 35 1a 00 00 	lea    0x1a35(%rip),%rsi        # dd81 <g_657+0xd21>
    c34c:	48 89 c7             	mov    %rax,%rdi
    c34f:	e8 9f a3 ff ff       	callq  66f3 <transparent_crc>
    c354:	0f b7 05 4d 4f 00 00 	movzwl 0x4f4d(%rip),%eax        # 112a8 <g_1109>
    c35b:	0f b7 c0             	movzwl %ax,%eax
    c35e:	8b 55 fc             	mov    -0x4(%rbp),%edx
    c361:	48 8d 35 20 1a 00 00 	lea    0x1a20(%rip),%rsi        # dd88 <g_657+0xd28>
    c368:	48 89 c7             	mov    %rax,%rdi
    c36b:	e8 83 a3 ff ff       	callq  66f3 <transparent_crc>
    c370:	0f b7 05 33 4f 00 00 	movzwl 0x4f33(%rip),%eax        # 112aa <g_1139>
    c377:	48 0f bf c0          	movswq %ax,%rax
    c37b:	8b 55 fc             	mov    -0x4(%rbp),%edx
    c37e:	48 8d 35 0a 1a 00 00 	lea    0x1a0a(%rip),%rsi        # dd8f <g_657+0xd2f>
    c385:	48 89 c7             	mov    %rax,%rdi
    c388:	e8 66 a3 ff ff       	callq  66f3 <transparent_crc>
    c38d:	8b 05 19 4f 00 00    	mov    0x4f19(%rip),%eax        # 112ac <g_1232>
    c393:	48 98                	cltq   
    c395:	8b 55 fc             	mov    -0x4(%rbp),%edx
    c398:	48 8d 35 f7 19 00 00 	lea    0x19f7(%rip),%rsi        # dd96 <g_657+0xd36>
    c39f:	48 89 c7             	mov    %rax,%rdi
    c3a2:	e8 4c a3 ff ff       	callq  66f3 <transparent_crc>
    c3a7:	0f b6 05 02 4f 00 00 	movzbl 0x4f02(%rip),%eax        # 112b0 <g_1257>
    c3ae:	0f b6 c0             	movzbl %al,%eax
    c3b1:	8b 55 fc             	mov    -0x4(%rbp),%edx
    c3b4:	48 8d 35 e2 19 00 00 	lea    0x19e2(%rip),%rsi        # dd9d <g_657+0xd3d>
    c3bb:	48 89 c7             	mov    %rax,%rdi
    c3be:	e8 30 a3 ff ff       	callq  66f3 <transparent_crc>
    c3c3:	0f b6 05 e7 4e 00 00 	movzbl 0x4ee7(%rip),%eax        # 112b1 <g_1539>
    c3ca:	48 0f be c0          	movsbq %al,%rax
    c3ce:	8b 55 fc             	mov    -0x4(%rbp),%edx
    c3d1:	48 8d 35 cc 19 00 00 	lea    0x19cc(%rip),%rsi        # dda4 <g_657+0xd44>
    c3d8:	48 89 c7             	mov    %rax,%rdi
    c3db:	e8 13 a3 ff ff       	callq  66f3 <transparent_crc>
    c3e0:	c7 45 f0 00 00 00 00 	movl   $0x0,-0x10(%rbp)
    c3e7:	e9 a0 00 00 00       	jmpq   c48c <main+0x7a0>
    c3ec:	c7 45 f4 00 00 00 00 	movl   $0x0,-0xc(%rbp)
    c3f3:	e9 86 00 00 00       	jmpq   c47e <main+0x792>
    c3f8:	c7 45 f8 00 00 00 00 	movl   $0x0,-0x8(%rbp)
    c3ff:	eb 73                	jmp    c474 <main+0x788>
    c401:	8b 45 f8             	mov    -0x8(%rbp),%eax
    c404:	48 63 c8             	movslq %eax,%rcx
    c407:	8b 45 f0             	mov    -0x10(%rbp),%eax
    c40a:	48 63 d0             	movslq %eax,%rdx
    c40d:	8b 45 f4             	mov    -0xc(%rbp),%eax
    c410:	48 63 f0             	movslq %eax,%rsi
    c413:	48 89 d0             	mov    %rdx,%rax
    c416:	48 c1 e0 02          	shl    $0x2,%rax
    c41a:	48 01 d0             	add    %rdx,%rax
    c41d:	48 01 c0             	add    %rax,%rax
    c420:	48 01 f0             	add    %rsi,%rax
    c423:	48 01 c0             	add    %rax,%rax
    c426:	48 01 c8             	add    %rcx,%rax
    c429:	48 8d 14 00          	lea    (%rax,%rax,1),%rdx
    c42d:	48 8d 05 8c 4e 00 00 	lea    0x4e8c(%rip),%rax        # 112c0 <g_1695>
    c434:	0f b7 04 02          	movzwl (%rdx,%rax,1),%eax
    c438:	48 0f bf c0          	movswq %ax,%rax
    c43c:	8b 55 fc             	mov    -0x4(%rbp),%edx
    c43f:	48 8d 35 65 19 00 00 	lea    0x1965(%rip),%rsi        # ddab <g_657+0xd4b>
    c446:	48 89 c7             	mov    %rax,%rdi
    c449:	e8 a5 a2 ff ff       	callq  66f3 <transparent_crc>
    c44e:	83 7d fc 00          	cmpl   $0x0,-0x4(%rbp)
    c452:	74 1c                	je     c470 <main+0x784>
    c454:	8b 4d f8             	mov    -0x8(%rbp),%ecx
    c457:	8b 55 f4             	mov    -0xc(%rbp),%edx
    c45a:	8b 45 f0             	mov    -0x10(%rbp),%eax
    c45d:	89 c6                	mov    %eax,%esi
    c45f:	48 8d 3d 4d 18 00 00 	lea    0x184d(%rip),%rdi        # dcb3 <g_657+0xc53>
    c466:	b8 00 00 00 00       	mov    $0x0,%eax
    c46b:	e8 10 8c ff ff       	callq  5080 <printf@plt>
    c470:	83 45 f8 01          	addl   $0x1,-0x8(%rbp)
    c474:	83 7d f8 01          	cmpl   $0x1,-0x8(%rbp)
    c478:	7e 87                	jle    c401 <main+0x715>
    c47a:	83 45 f4 01          	addl   $0x1,-0xc(%rbp)
    c47e:	83 7d f4 09          	cmpl   $0x9,-0xc(%rbp)
    c482:	0f 8e 70 ff ff ff    	jle    c3f8 <main+0x70c>
    c488:	83 45 f0 01          	addl   $0x1,-0x10(%rbp)
    c48c:	83 7d f0 09          	cmpl   $0x9,-0x10(%rbp)
    c490:	0f 8e 56 ff ff ff    	jle    c3ec <main+0x700>
    c496:	8b 05 b4 4f 00 00    	mov    0x4fb4(%rip),%eax        # 11450 <g_1755>
    c49c:	48 98                	cltq   
    c49e:	8b 55 fc             	mov    -0x4(%rbp),%edx
    c4a1:	48 8d 35 13 19 00 00 	lea    0x1913(%rip),%rsi        # ddbb <g_657+0xd5b>
    c4a8:	48 89 c7             	mov    %rax,%rdi
    c4ab:	e8 43 a2 ff ff       	callq  66f3 <transparent_crc>
    c4b0:	0f b7 05 9d 4f 00 00 	movzwl 0x4f9d(%rip),%eax        # 11454 <g_1757>
    c4b7:	48 0f bf c0          	movswq %ax,%rax
    c4bb:	8b 55 fc             	mov    -0x4(%rbp),%edx
    c4be:	48 8d 35 fd 18 00 00 	lea    0x18fd(%rip),%rsi        # ddc2 <g_657+0xd62>
    c4c5:	48 89 c7             	mov    %rax,%rdi
    c4c8:	e8 26 a2 ff ff       	callq  66f3 <transparent_crc>
    c4cd:	8b 05 4d 4b 00 00    	mov    0x4b4d(%rip),%eax        # 11020 <crc32_context>
    c4d3:	f7 d0                	not    %eax
    c4d5:	89 c2                	mov    %eax,%edx
    c4d7:	8b 45 fc             	mov    -0x4(%rbp),%eax
    c4da:	89 c6                	mov    %eax,%esi
    c4dc:	89 d7                	mov    %edx,%edi
    c4de:	e8 b1 8c ff ff       	callq  5194 <platform_main_end>
    c4e3:	b8 00 00 00 00       	mov    $0x0,%eax
    c4e8:	c9                   	leaveq 
    c4e9:	c3                   	retq   
    c4ea:	66 0f 1f 44 00 00    	nopw   0x0(%rax,%rax,1)

000000000000c4f0 <__libc_csu_init>:
    c4f0:	f3 0f 1e fa          	endbr64 
    c4f4:	41 57                	push   %r15
    c4f6:	4c 8d 3d ab 48 00 00 	lea    0x48ab(%rip),%r15        # 10da8 <__frame_dummy_init_array_entry>
    c4fd:	41 56                	push   %r14
    c4ff:	49 89 d6             	mov    %rdx,%r14
    c502:	41 55                	push   %r13
    c504:	49 89 f5             	mov    %rsi,%r13
    c507:	41 54                	push   %r12
    c509:	41 89 fc             	mov    %edi,%r12d
    c50c:	55                   	push   %rbp
    c50d:	48 8d 2d 9c 48 00 00 	lea    0x489c(%rip),%rbp        # 10db0 <__do_global_dtors_aux_fini_array_entry>
    c514:	53                   	push   %rbx
    c515:	4c 29 fd             	sub    %r15,%rbp
    c518:	48 83 ec 08          	sub    $0x8,%rsp
    c51c:	e8 df 8a ff ff       	callq  5000 <_init>
    c521:	48 c1 fd 03          	sar    $0x3,%rbp
    c525:	74 1f                	je     c546 <__libc_csu_init+0x56>
    c527:	31 db                	xor    %ebx,%ebx
    c529:	0f 1f 80 00 00 00 00 	nopl   0x0(%rax)
    c530:	4c 89 f2             	mov    %r14,%rdx
    c533:	4c 89 ee             	mov    %r13,%rsi
    c536:	44 89 e7             	mov    %r12d,%edi
    c539:	41 ff 14 df          	callq  *(%r15,%rbx,8)
    c53d:	48 83 c3 01          	add    $0x1,%rbx
    c541:	48 39 dd             	cmp    %rbx,%rbp
    c544:	75 ea                	jne    c530 <__libc_csu_init+0x40>
    c546:	48 83 c4 08          	add    $0x8,%rsp
    c54a:	5b                   	pop    %rbx
    c54b:	5d                   	pop    %rbp
    c54c:	41 5c                	pop    %r12
    c54e:	41 5d                	pop    %r13
    c550:	41 5e                	pop    %r14
    c552:	41 5f                	pop    %r15
    c554:	c3                   	retq   
    c555:	66 66 2e 0f 1f 84 00 	data16 nopw %cs:0x0(%rax,%rax,1)
    c55c:	00 00 00 00 

000000000000c560 <__libc_csu_fini>:
    c560:	f3 0f 1e fa          	endbr64 
    c564:	c3                   	retq   
