


Disassembly of section .text:

00000000000060a0 <_start>:
    60a0:	f3 0f 1e fa          	endbr64 
    60a4:	31 ed                	xor    %ebp,%ebp
    60a6:	49 89 d1             	mov    %rdx,%r9
    60a9:	5e                   	pop    %rsi
    60aa:	48 89 e2             	mov    %rsp,%rdx
    60ad:	48 83 e4 f0          	and    $0xfffffffffffffff0,%rsp
    60b1:	50                   	push   %rax
    60b2:	54                   	push   %rsp
    60b3:	4c 8d 05 16 e3 00 00 	lea    0xe316(%rip),%r8        # 143d0 <__libc_csu_fini>
    60ba:	48 8d 0d 9f e2 00 00 	lea    0xe29f(%rip),%rcx        # 14360 <__libc_csu_init>
    60c1:	48 8d 3d 19 d3 00 00 	lea    0xd319(%rip),%rdi        # 133e1 <main>
    60c8:	ff 15 0a 3f 01 00    	callq  *0x13f0a(%rip)        # 19fd8 <__libc_start_main@GLIBC_2.2.5>
    60ce:	f4                   	hlt    
    60cf:	90                   	nop

00000000000060d0 <deregister_tm_clones>:
    60d0:	48 8d 3d 69 62 01 00 	lea    0x16269(%rip),%rdi        # 1c340 <__TMC_END__>
    60d7:	48 8d 05 62 62 01 00 	lea    0x16262(%rip),%rax        # 1c340 <__TMC_END__>
    60de:	48 39 f8             	cmp    %rdi,%rax
    60e1:	74 15                	je     60f8 <deregister_tm_clones+0x28>
    60e3:	48 8b 05 e6 3e 01 00 	mov    0x13ee6(%rip),%rax        # 19fd0 <_ITM_deregisterTMCloneTable>
    60ea:	48 85 c0             	test   %rax,%rax
    60ed:	74 09                	je     60f8 <deregister_tm_clones+0x28>
    60ef:	ff e0                	jmpq   *%rax
    60f1:	0f 1f 80 00 00 00 00 	nopl   0x0(%rax)
    60f8:	c3                   	retq   
    60f9:	0f 1f 80 00 00 00 00 	nopl   0x0(%rax)

0000000000006100 <register_tm_clones>:
    6100:	48 8d 3d 39 62 01 00 	lea    0x16239(%rip),%rdi        # 1c340 <__TMC_END__>
    6107:	48 8d 35 32 62 01 00 	lea    0x16232(%rip),%rsi        # 1c340 <__TMC_END__>
    610e:	48 29 fe             	sub    %rdi,%rsi
    6111:	48 89 f0             	mov    %rsi,%rax
    6114:	48 c1 ee 3f          	shr    $0x3f,%rsi
    6118:	48 c1 f8 03          	sar    $0x3,%rax
    611c:	48 01 c6             	add    %rax,%rsi
    611f:	48 d1 fe             	sar    %rsi
    6122:	74 14                	je     6138 <register_tm_clones+0x38>
    6124:	48 8b 05 bd 3e 01 00 	mov    0x13ebd(%rip),%rax        # 19fe8 <_ITM_registerTMCloneTable>
    612b:	48 85 c0             	test   %rax,%rax
    612e:	74 08                	je     6138 <register_tm_clones+0x38>
    6130:	ff e0                	jmpq   *%rax
    6132:	66 0f 1f 44 00 00    	nopw   0x0(%rax,%rax,1)
    6138:	c3                   	retq   
    6139:	0f 1f 80 00 00 00 00 	nopl   0x0(%rax)

0000000000006140 <__do_global_dtors_aux>:
    6140:	f3 0f 1e fa          	endbr64 
    6144:	80 3d f5 61 01 00 00 	cmpb   $0x0,0x161f5(%rip)        # 1c340 <__TMC_END__>
    614b:	75 2b                	jne    6178 <__do_global_dtors_aux+0x38>
    614d:	55                   	push   %rbp
    614e:	48 83 3d 9a 3e 01 00 	cmpq   $0x0,0x13e9a(%rip)        # 19ff0 <__cxa_finalize@GLIBC_2.2.5>
    6155:	00 
    6156:	48 89 e5             	mov    %rsp,%rbp
    6159:	74 0c                	je     6167 <__do_global_dtors_aux+0x27>
    615b:	48 8b 3d a6 3e 01 00 	mov    0x13ea6(%rip),%rdi        # 1a008 <__dso_handle>
    6162:	e8 f9 fe ff ff       	callq  6060 <__cxa_finalize@plt>
    6167:	e8 64 ff ff ff       	callq  60d0 <deregister_tm_clones>
    616c:	c6 05 cd 61 01 00 01 	movb   $0x1,0x161cd(%rip)        # 1c340 <__TMC_END__>
    6173:	5d                   	pop    %rbp
    6174:	c3                   	retq   
    6175:	0f 1f 00             	nopl   (%rax)
    6178:	c3                   	retq   
    6179:	0f 1f 80 00 00 00 00 	nopl   0x0(%rax)

0000000000006180 <frame_dummy>:
    6180:	f3 0f 1e fa          	endbr64 
    6184:	e9 77 ff ff ff       	jmpq   6100 <register_tm_clones>

0000000000006189 <platform_main_begin>:
    6189:	f3 0f 1e fa          	endbr64 
    618d:	55                   	push   %rbp
    618e:	48 89 e5             	mov    %rsp,%rbp
    6191:	90                   	nop
    6192:	5d                   	pop    %rbp
    6193:	c3                   	retq   

0000000000006194 <platform_main_end>:
    6194:	f3 0f 1e fa          	endbr64 
    6198:	55                   	push   %rbp
    6199:	48 89 e5             	mov    %rsp,%rbp
    619c:	48 83 ec 10          	sub    $0x10,%rsp
    61a0:	89 7d fc             	mov    %edi,-0x4(%rbp)
    61a3:	89 75 f8             	mov    %esi,-0x8(%rbp)
    61a6:	8b 45 fc             	mov    -0x4(%rbp),%eax
    61a9:	89 c6                	mov    %eax,%esi
    61ab:	48 8d 3d 6e ee 00 00 	lea    0xee6e(%rip),%rdi        # 15020 <_IO_stdin_used+0x20>
    61b2:	b8 00 00 00 00       	mov    $0x0,%eax
    61b7:	e8 c4 fe ff ff       	callq  6080 <printf@plt>
    61bc:	90                   	nop
    61bd:	c9                   	leaveq 
    61be:	c3                   	retq   

00000000000061bf <safe_unary_minus_func_int8_t_s>:
    61bf:	f3 0f 1e fa          	endbr64 
    61c3:	55                   	push   %rbp
    61c4:	48 89 e5             	mov    %rsp,%rbp
    61c7:	89 f8                	mov    %edi,%eax
    61c9:	88 45 fc             	mov    %al,-0x4(%rbp)
    61cc:	0f b6 45 fc          	movzbl -0x4(%rbp),%eax
    61d0:	f7 d8                	neg    %eax
    61d2:	5d                   	pop    %rbp
    61d3:	c3                   	retq   

00000000000061d4 <safe_add_func_int8_t_s_s>:
    61d4:	f3 0f 1e fa          	endbr64 
    61d8:	55                   	push   %rbp
    61d9:	48 89 e5             	mov    %rsp,%rbp
    61dc:	89 fa                	mov    %edi,%edx
    61de:	89 f0                	mov    %esi,%eax
    61e0:	88 55 fc             	mov    %dl,-0x4(%rbp)
    61e3:	88 45 f8             	mov    %al,-0x8(%rbp)
    61e6:	0f b6 55 fc          	movzbl -0x4(%rbp),%edx
    61ea:	0f b6 45 f8          	movzbl -0x8(%rbp),%eax
    61ee:	01 d0                	add    %edx,%eax
    61f0:	5d                   	pop    %rbp
    61f1:	c3                   	retq   

00000000000061f2 <safe_sub_func_int8_t_s_s>:
    61f2:	f3 0f 1e fa          	endbr64 
    61f6:	55                   	push   %rbp
    61f7:	48 89 e5             	mov    %rsp,%rbp
    61fa:	89 fa                	mov    %edi,%edx
    61fc:	89 f0                	mov    %esi,%eax
    61fe:	88 55 fc             	mov    %dl,-0x4(%rbp)
    6201:	88 45 f8             	mov    %al,-0x8(%rbp)
    6204:	0f b6 55 fc          	movzbl -0x4(%rbp),%edx
    6208:	0f b6 45 f8          	movzbl -0x8(%rbp),%eax
    620c:	29 c2                	sub    %eax,%edx
    620e:	89 d0                	mov    %edx,%eax
    6210:	5d                   	pop    %rbp
    6211:	c3                   	retq   

0000000000006212 <safe_mul_func_int8_t_s_s>:
    6212:	f3 0f 1e fa          	endbr64 
    6216:	55                   	push   %rbp
    6217:	48 89 e5             	mov    %rsp,%rbp
    621a:	89 fa                	mov    %edi,%edx
    621c:	89 f0                	mov    %esi,%eax
    621e:	88 55 fc             	mov    %dl,-0x4(%rbp)
    6221:	88 45 f8             	mov    %al,-0x8(%rbp)
    6224:	0f b6 45 fc          	movzbl -0x4(%rbp),%eax
    6228:	0f b6 55 f8          	movzbl -0x8(%rbp),%edx
    622c:	0f af c2             	imul   %edx,%eax
    622f:	5d                   	pop    %rbp
    6230:	c3                   	retq   

0000000000006231 <safe_mod_func_int8_t_s_s>:
    6231:	f3 0f 1e fa          	endbr64 
    6235:	55                   	push   %rbp
    6236:	48 89 e5             	mov    %rsp,%rbp
    6239:	89 fa                	mov    %edi,%edx
    623b:	89 f0                	mov    %esi,%eax
    623d:	88 55 fc             	mov    %dl,-0x4(%rbp)
    6240:	88 45 f8             	mov    %al,-0x8(%rbp)
    6243:	80 7d f8 00          	cmpb   $0x0,-0x8(%rbp)
    6247:	74 1b                	je     6264 <safe_mod_func_int8_t_s_s+0x33>
    6249:	80 7d fc 80          	cmpb   $0x80,-0x4(%rbp)
    624d:	75 06                	jne    6255 <safe_mod_func_int8_t_s_s+0x24>
    624f:	80 7d f8 ff          	cmpb   $0xff,-0x8(%rbp)
    6253:	74 0f                	je     6264 <safe_mod_func_int8_t_s_s+0x33>
    6255:	0f be 45 fc          	movsbl -0x4(%rbp),%eax
    6259:	0f be 4d f8          	movsbl -0x8(%rbp),%ecx
    625d:	99                   	cltd   
    625e:	f7 f9                	idiv   %ecx
    6260:	89 d0                	mov    %edx,%eax
    6262:	eb 04                	jmp    6268 <safe_mod_func_int8_t_s_s+0x37>
    6264:	0f b6 45 fc          	movzbl -0x4(%rbp),%eax
    6268:	5d                   	pop    %rbp
    6269:	c3                   	retq   

000000000000626a <safe_div_func_int8_t_s_s>:
    626a:	f3 0f 1e fa          	endbr64 
    626e:	55                   	push   %rbp
    626f:	48 89 e5             	mov    %rsp,%rbp
    6272:	89 fa                	mov    %edi,%edx
    6274:	89 f0                	mov    %esi,%eax
    6276:	88 55 fc             	mov    %dl,-0x4(%rbp)
    6279:	88 45 f8             	mov    %al,-0x8(%rbp)
    627c:	80 7d f8 00          	cmpb   $0x0,-0x8(%rbp)
    6280:	74 19                	je     629b <safe_div_func_int8_t_s_s+0x31>
    6282:	80 7d fc 80          	cmpb   $0x80,-0x4(%rbp)
    6286:	75 06                	jne    628e <safe_div_func_int8_t_s_s+0x24>
    6288:	80 7d f8 ff          	cmpb   $0xff,-0x8(%rbp)
    628c:	74 0d                	je     629b <safe_div_func_int8_t_s_s+0x31>
    628e:	0f be 45 fc          	movsbl -0x4(%rbp),%eax
    6292:	0f be 4d f8          	movsbl -0x8(%rbp),%ecx
    6296:	99                   	cltd   
    6297:	f7 f9                	idiv   %ecx
    6299:	eb 04                	jmp    629f <safe_div_func_int8_t_s_s+0x35>
    629b:	0f b6 45 fc          	movzbl -0x4(%rbp),%eax
    629f:	5d                   	pop    %rbp
    62a0:	c3                   	retq   

00000000000062a1 <safe_lshift_func_int8_t_s_s>:
    62a1:	f3 0f 1e fa          	endbr64 
    62a5:	55                   	push   %rbp
    62a6:	48 89 e5             	mov    %rsp,%rbp
    62a9:	89 f8                	mov    %edi,%eax
    62ab:	89 75 f8             	mov    %esi,-0x8(%rbp)
    62ae:	88 45 fc             	mov    %al,-0x4(%rbp)
    62b1:	80 7d fc 00          	cmpb   $0x0,-0x4(%rbp)
    62b5:	78 31                	js     62e8 <safe_lshift_func_int8_t_s_s+0x47>
    62b7:	83 7d f8 00          	cmpl   $0x0,-0x8(%rbp)
    62bb:	78 2b                	js     62e8 <safe_lshift_func_int8_t_s_s+0x47>
    62bd:	83 7d f8 1f          	cmpl   $0x1f,-0x8(%rbp)
    62c1:	7f 25                	jg     62e8 <safe_lshift_func_int8_t_s_s+0x47>
    62c3:	0f be 55 fc          	movsbl -0x4(%rbp),%edx
    62c7:	8b 45 f8             	mov    -0x8(%rbp),%eax
    62ca:	be 7f 00 00 00       	mov    $0x7f,%esi
    62cf:	89 c1                	mov    %eax,%ecx
    62d1:	d3 fe                	sar    %cl,%esi
    62d3:	89 f0                	mov    %esi,%eax
    62d5:	39 c2                	cmp    %eax,%edx
    62d7:	7f 0f                	jg     62e8 <safe_lshift_func_int8_t_s_s+0x47>
    62d9:	0f be 55 fc          	movsbl -0x4(%rbp),%edx
    62dd:	8b 45 f8             	mov    -0x8(%rbp),%eax
    62e0:	89 c1                	mov    %eax,%ecx
    62e2:	d3 e2                	shl    %cl,%edx
    62e4:	89 d0                	mov    %edx,%eax
    62e6:	eb 04                	jmp    62ec <safe_lshift_func_int8_t_s_s+0x4b>
    62e8:	0f b6 45 fc          	movzbl -0x4(%rbp),%eax
    62ec:	5d                   	pop    %rbp
    62ed:	c3                   	retq   

00000000000062ee <safe_lshift_func_int8_t_s_u>:
    62ee:	f3 0f 1e fa          	endbr64 
    62f2:	55                   	push   %rbp
    62f3:	48 89 e5             	mov    %rsp,%rbp
    62f6:	89 f8                	mov    %edi,%eax
    62f8:	89 75 f8             	mov    %esi,-0x8(%rbp)
    62fb:	88 45 fc             	mov    %al,-0x4(%rbp)
    62fe:	80 7d fc 00          	cmpb   $0x0,-0x4(%rbp)
    6302:	78 2b                	js     632f <safe_lshift_func_int8_t_s_u+0x41>
    6304:	83 7d f8 1f          	cmpl   $0x1f,-0x8(%rbp)
    6308:	77 25                	ja     632f <safe_lshift_func_int8_t_s_u+0x41>
    630a:	0f be 55 fc          	movsbl -0x4(%rbp),%edx
    630e:	8b 45 f8             	mov    -0x8(%rbp),%eax
    6311:	be 7f 00 00 00       	mov    $0x7f,%esi
    6316:	89 c1                	mov    %eax,%ecx
    6318:	d3 fe                	sar    %cl,%esi
    631a:	89 f0                	mov    %esi,%eax
    631c:	39 c2                	cmp    %eax,%edx
    631e:	7f 0f                	jg     632f <safe_lshift_func_int8_t_s_u+0x41>
    6320:	0f be 55 fc          	movsbl -0x4(%rbp),%edx
    6324:	8b 45 f8             	mov    -0x8(%rbp),%eax
    6327:	89 c1                	mov    %eax,%ecx
    6329:	d3 e2                	shl    %cl,%edx
    632b:	89 d0                	mov    %edx,%eax
    632d:	eb 04                	jmp    6333 <safe_lshift_func_int8_t_s_u+0x45>
    632f:	0f b6 45 fc          	movzbl -0x4(%rbp),%eax
    6333:	5d                   	pop    %rbp
    6334:	c3                   	retq   

0000000000006335 <safe_rshift_func_int8_t_s_s>:
    6335:	f3 0f 1e fa          	endbr64 
    6339:	55                   	push   %rbp
    633a:	48 89 e5             	mov    %rsp,%rbp
    633d:	89 f8                	mov    %edi,%eax
    633f:	89 75 f8             	mov    %esi,-0x8(%rbp)
    6342:	88 45 fc             	mov    %al,-0x4(%rbp)
    6345:	80 7d fc 00          	cmpb   $0x0,-0x4(%rbp)
    6349:	78 1b                	js     6366 <safe_rshift_func_int8_t_s_s+0x31>
    634b:	83 7d f8 00          	cmpl   $0x0,-0x8(%rbp)
    634f:	78 15                	js     6366 <safe_rshift_func_int8_t_s_s+0x31>
    6351:	83 7d f8 1f          	cmpl   $0x1f,-0x8(%rbp)
    6355:	7f 0f                	jg     6366 <safe_rshift_func_int8_t_s_s+0x31>
    6357:	0f be 55 fc          	movsbl -0x4(%rbp),%edx
    635b:	8b 45 f8             	mov    -0x8(%rbp),%eax
    635e:	89 c1                	mov    %eax,%ecx
    6360:	d3 fa                	sar    %cl,%edx
    6362:	89 d0                	mov    %edx,%eax
    6364:	eb 04                	jmp    636a <safe_rshift_func_int8_t_s_s+0x35>
    6366:	0f b6 45 fc          	movzbl -0x4(%rbp),%eax
    636a:	5d                   	pop    %rbp
    636b:	c3                   	retq   

000000000000636c <safe_rshift_func_int8_t_s_u>:
    636c:	f3 0f 1e fa          	endbr64 
    6370:	55                   	push   %rbp
    6371:	48 89 e5             	mov    %rsp,%rbp
    6374:	89 f8                	mov    %edi,%eax
    6376:	89 75 f8             	mov    %esi,-0x8(%rbp)
    6379:	88 45 fc             	mov    %al,-0x4(%rbp)
    637c:	80 7d fc 00          	cmpb   $0x0,-0x4(%rbp)
    6380:	78 15                	js     6397 <safe_rshift_func_int8_t_s_u+0x2b>
    6382:	83 7d f8 1f          	cmpl   $0x1f,-0x8(%rbp)
    6386:	77 0f                	ja     6397 <safe_rshift_func_int8_t_s_u+0x2b>
    6388:	0f be 55 fc          	movsbl -0x4(%rbp),%edx
    638c:	8b 45 f8             	mov    -0x8(%rbp),%eax
    638f:	89 c1                	mov    %eax,%ecx
    6391:	d3 fa                	sar    %cl,%edx
    6393:	89 d0                	mov    %edx,%eax
    6395:	eb 04                	jmp    639b <safe_rshift_func_int8_t_s_u+0x2f>
    6397:	0f b6 45 fc          	movzbl -0x4(%rbp),%eax
    639b:	5d                   	pop    %rbp
    639c:	c3                   	retq   

000000000000639d <safe_unary_minus_func_int16_t_s>:
    639d:	f3 0f 1e fa          	endbr64 
    63a1:	55                   	push   %rbp
    63a2:	48 89 e5             	mov    %rsp,%rbp
    63a5:	89 f8                	mov    %edi,%eax
    63a7:	66 89 45 fc          	mov    %ax,-0x4(%rbp)
    63ab:	0f b7 45 fc          	movzwl -0x4(%rbp),%eax
    63af:	f7 d8                	neg    %eax
    63b1:	5d                   	pop    %rbp
    63b2:	c3                   	retq   

00000000000063b3 <safe_add_func_int16_t_s_s>:
    63b3:	f3 0f 1e fa          	endbr64 
    63b7:	55                   	push   %rbp
    63b8:	48 89 e5             	mov    %rsp,%rbp
    63bb:	89 fa                	mov    %edi,%edx
    63bd:	89 f0                	mov    %esi,%eax
    63bf:	66 89 55 fc          	mov    %dx,-0x4(%rbp)
    63c3:	66 89 45 f8          	mov    %ax,-0x8(%rbp)
    63c7:	0f b7 55 fc          	movzwl -0x4(%rbp),%edx
    63cb:	0f b7 45 f8          	movzwl -0x8(%rbp),%eax
    63cf:	01 d0                	add    %edx,%eax
    63d1:	5d                   	pop    %rbp
    63d2:	c3                   	retq   

00000000000063d3 <safe_sub_func_int16_t_s_s>:
    63d3:	f3 0f 1e fa          	endbr64 
    63d7:	55                   	push   %rbp
    63d8:	48 89 e5             	mov    %rsp,%rbp
    63db:	89 fa                	mov    %edi,%edx
    63dd:	89 f0                	mov    %esi,%eax
    63df:	66 89 55 fc          	mov    %dx,-0x4(%rbp)
    63e3:	66 89 45 f8          	mov    %ax,-0x8(%rbp)
    63e7:	0f b7 55 fc          	movzwl -0x4(%rbp),%edx
    63eb:	0f b7 45 f8          	movzwl -0x8(%rbp),%eax
    63ef:	29 c2                	sub    %eax,%edx
    63f1:	89 d0                	mov    %edx,%eax
    63f3:	5d                   	pop    %rbp
    63f4:	c3                   	retq   

00000000000063f5 <safe_mul_func_int16_t_s_s>:
    63f5:	f3 0f 1e fa          	endbr64 
    63f9:	55                   	push   %rbp
    63fa:	48 89 e5             	mov    %rsp,%rbp
    63fd:	89 fa                	mov    %edi,%edx
    63ff:	89 f0                	mov    %esi,%eax
    6401:	66 89 55 fc          	mov    %dx,-0x4(%rbp)
    6405:	66 89 45 f8          	mov    %ax,-0x8(%rbp)
    6409:	0f b7 55 fc          	movzwl -0x4(%rbp),%edx
    640d:	0f b7 45 f8          	movzwl -0x8(%rbp),%eax
    6411:	0f af c2             	imul   %edx,%eax
    6414:	5d                   	pop    %rbp
    6415:	c3                   	retq   

0000000000006416 <safe_mod_func_int16_t_s_s>:
    6416:	f3 0f 1e fa          	endbr64 
    641a:	55                   	push   %rbp
    641b:	48 89 e5             	mov    %rsp,%rbp
    641e:	89 fa                	mov    %edi,%edx
    6420:	89 f0                	mov    %esi,%eax
    6422:	66 89 55 fc          	mov    %dx,-0x4(%rbp)
    6426:	66 89 45 f8          	mov    %ax,-0x8(%rbp)
    642a:	66 83 7d f8 00       	cmpw   $0x0,-0x8(%rbp)
    642f:	74 1e                	je     644f <safe_mod_func_int16_t_s_s+0x39>
    6431:	66 81 7d fc 00 80    	cmpw   $0x8000,-0x4(%rbp)
    6437:	75 07                	jne    6440 <safe_mod_func_int16_t_s_s+0x2a>
    6439:	66 83 7d f8 ff       	cmpw   $0xffff,-0x8(%rbp)
    643e:	74 0f                	je     644f <safe_mod_func_int16_t_s_s+0x39>
    6440:	0f bf 45 fc          	movswl -0x4(%rbp),%eax
    6444:	0f bf 4d f8          	movswl -0x8(%rbp),%ecx
    6448:	99                   	cltd   
    6449:	f7 f9                	idiv   %ecx
    644b:	89 d0                	mov    %edx,%eax
    644d:	eb 04                	jmp    6453 <safe_mod_func_int16_t_s_s+0x3d>
    644f:	0f b7 45 fc          	movzwl -0x4(%rbp),%eax
    6453:	5d                   	pop    %rbp
    6454:	c3                   	retq   

0000000000006455 <safe_div_func_int16_t_s_s>:
    6455:	f3 0f 1e fa          	endbr64 
    6459:	55                   	push   %rbp
    645a:	48 89 e5             	mov    %rsp,%rbp
    645d:	89 fa                	mov    %edi,%edx
    645f:	89 f0                	mov    %esi,%eax
    6461:	66 89 55 fc          	mov    %dx,-0x4(%rbp)
    6465:	66 89 45 f8          	mov    %ax,-0x8(%rbp)
    6469:	66 83 7d f8 00       	cmpw   $0x0,-0x8(%rbp)
    646e:	74 1c                	je     648c <safe_div_func_int16_t_s_s+0x37>
    6470:	66 81 7d fc 00 80    	cmpw   $0x8000,-0x4(%rbp)
    6476:	75 07                	jne    647f <safe_div_func_int16_t_s_s+0x2a>
    6478:	66 83 7d f8 ff       	cmpw   $0xffff,-0x8(%rbp)
    647d:	74 0d                	je     648c <safe_div_func_int16_t_s_s+0x37>
    647f:	0f bf 45 fc          	movswl -0x4(%rbp),%eax
    6483:	0f bf 4d f8          	movswl -0x8(%rbp),%ecx
    6487:	99                   	cltd   
    6488:	f7 f9                	idiv   %ecx
    648a:	eb 04                	jmp    6490 <safe_div_func_int16_t_s_s+0x3b>
    648c:	0f b7 45 fc          	movzwl -0x4(%rbp),%eax
    6490:	5d                   	pop    %rbp
    6491:	c3                   	retq   

0000000000006492 <safe_lshift_func_int16_t_s_s>:
    6492:	f3 0f 1e fa          	endbr64 
    6496:	55                   	push   %rbp
    6497:	48 89 e5             	mov    %rsp,%rbp
    649a:	89 f8                	mov    %edi,%eax
    649c:	89 75 f8             	mov    %esi,-0x8(%rbp)
    649f:	66 89 45 fc          	mov    %ax,-0x4(%rbp)
    64a3:	66 83 7d fc 00       	cmpw   $0x0,-0x4(%rbp)
    64a8:	78 31                	js     64db <safe_lshift_func_int16_t_s_s+0x49>
    64aa:	83 7d f8 00          	cmpl   $0x0,-0x8(%rbp)
    64ae:	78 2b                	js     64db <safe_lshift_func_int16_t_s_s+0x49>
    64b0:	83 7d f8 1f          	cmpl   $0x1f,-0x8(%rbp)
    64b4:	7f 25                	jg     64db <safe_lshift_func_int16_t_s_s+0x49>
    64b6:	0f bf 55 fc          	movswl -0x4(%rbp),%edx
    64ba:	8b 45 f8             	mov    -0x8(%rbp),%eax
    64bd:	be ff 7f 00 00       	mov    $0x7fff,%esi
    64c2:	89 c1                	mov    %eax,%ecx
    64c4:	d3 fe                	sar    %cl,%esi
    64c6:	89 f0                	mov    %esi,%eax
    64c8:	39 c2                	cmp    %eax,%edx
    64ca:	7f 0f                	jg     64db <safe_lshift_func_int16_t_s_s+0x49>
    64cc:	0f bf 55 fc          	movswl -0x4(%rbp),%edx
    64d0:	8b 45 f8             	mov    -0x8(%rbp),%eax
    64d3:	89 c1                	mov    %eax,%ecx
    64d5:	d3 e2                	shl    %cl,%edx
    64d7:	89 d0                	mov    %edx,%eax
    64d9:	eb 04                	jmp    64df <safe_lshift_func_int16_t_s_s+0x4d>
    64db:	0f b7 45 fc          	movzwl -0x4(%rbp),%eax
    64df:	5d                   	pop    %rbp
    64e0:	c3                   	retq   

00000000000064e1 <safe_lshift_func_int16_t_s_u>:
    64e1:	f3 0f 1e fa          	endbr64 
    64e5:	55                   	push   %rbp
    64e6:	48 89 e5             	mov    %rsp,%rbp
    64e9:	89 f8                	mov    %edi,%eax
    64eb:	89 75 f8             	mov    %esi,-0x8(%rbp)
    64ee:	66 89 45 fc          	mov    %ax,-0x4(%rbp)
    64f2:	66 83 7d fc 00       	cmpw   $0x0,-0x4(%rbp)
    64f7:	78 2b                	js     6524 <safe_lshift_func_int16_t_s_u+0x43>
    64f9:	83 7d f8 1f          	cmpl   $0x1f,-0x8(%rbp)
    64fd:	77 25                	ja     6524 <safe_lshift_func_int16_t_s_u+0x43>
    64ff:	0f bf 55 fc          	movswl -0x4(%rbp),%edx
    6503:	8b 45 f8             	mov    -0x8(%rbp),%eax
    6506:	be ff 7f 00 00       	mov    $0x7fff,%esi
    650b:	89 c1                	mov    %eax,%ecx
    650d:	d3 fe                	sar    %cl,%esi
    650f:	89 f0                	mov    %esi,%eax
    6511:	39 c2                	cmp    %eax,%edx
    6513:	7f 0f                	jg     6524 <safe_lshift_func_int16_t_s_u+0x43>
    6515:	0f bf 55 fc          	movswl -0x4(%rbp),%edx
    6519:	8b 45 f8             	mov    -0x8(%rbp),%eax
    651c:	89 c1                	mov    %eax,%ecx
    651e:	d3 e2                	shl    %cl,%edx
    6520:	89 d0                	mov    %edx,%eax
    6522:	eb 04                	jmp    6528 <safe_lshift_func_int16_t_s_u+0x47>
    6524:	0f b7 45 fc          	movzwl -0x4(%rbp),%eax
    6528:	5d                   	pop    %rbp
    6529:	c3                   	retq   

000000000000652a <safe_rshift_func_int16_t_s_s>:
    652a:	f3 0f 1e fa          	endbr64 
    652e:	55                   	push   %rbp
    652f:	48 89 e5             	mov    %rsp,%rbp
    6532:	89 f8                	mov    %edi,%eax
    6534:	89 75 f8             	mov    %esi,-0x8(%rbp)
    6537:	66 89 45 fc          	mov    %ax,-0x4(%rbp)
    653b:	66 83 7d fc 00       	cmpw   $0x0,-0x4(%rbp)
    6540:	78 1b                	js     655d <safe_rshift_func_int16_t_s_s+0x33>
    6542:	83 7d f8 00          	cmpl   $0x0,-0x8(%rbp)
    6546:	78 15                	js     655d <safe_rshift_func_int16_t_s_s+0x33>
    6548:	83 7d f8 1f          	cmpl   $0x1f,-0x8(%rbp)
    654c:	7f 0f                	jg     655d <safe_rshift_func_int16_t_s_s+0x33>
    654e:	0f bf 55 fc          	movswl -0x4(%rbp),%edx
    6552:	8b 45 f8             	mov    -0x8(%rbp),%eax
    6555:	89 c1                	mov    %eax,%ecx
    6557:	d3 fa                	sar    %cl,%edx
    6559:	89 d0                	mov    %edx,%eax
    655b:	eb 04                	jmp    6561 <safe_rshift_func_int16_t_s_s+0x37>
    655d:	0f b7 45 fc          	movzwl -0x4(%rbp),%eax
    6561:	5d                   	pop    %rbp
    6562:	c3                   	retq   

0000000000006563 <safe_rshift_func_int16_t_s_u>:
    6563:	f3 0f 1e fa          	endbr64 
    6567:	55                   	push   %rbp
    6568:	48 89 e5             	mov    %rsp,%rbp
    656b:	89 f8                	mov    %edi,%eax
    656d:	89 75 f8             	mov    %esi,-0x8(%rbp)
    6570:	66 89 45 fc          	mov    %ax,-0x4(%rbp)
    6574:	66 83 7d fc 00       	cmpw   $0x0,-0x4(%rbp)
    6579:	78 15                	js     6590 <safe_rshift_func_int16_t_s_u+0x2d>
    657b:	83 7d f8 1f          	cmpl   $0x1f,-0x8(%rbp)
    657f:	77 0f                	ja     6590 <safe_rshift_func_int16_t_s_u+0x2d>
    6581:	0f bf 55 fc          	movswl -0x4(%rbp),%edx
    6585:	8b 45 f8             	mov    -0x8(%rbp),%eax
    6588:	89 c1                	mov    %eax,%ecx
    658a:	d3 fa                	sar    %cl,%edx
    658c:	89 d0                	mov    %edx,%eax
    658e:	eb 04                	jmp    6594 <safe_rshift_func_int16_t_s_u+0x31>
    6590:	0f b7 45 fc          	movzwl -0x4(%rbp),%eax
    6594:	5d                   	pop    %rbp
    6595:	c3                   	retq   

0000000000006596 <safe_unary_minus_func_int32_t_s>:
    6596:	f3 0f 1e fa          	endbr64 
    659a:	55                   	push   %rbp
    659b:	48 89 e5             	mov    %rsp,%rbp
    659e:	89 7d fc             	mov    %edi,-0x4(%rbp)
    65a1:	81 7d fc 00 00 00 80 	cmpl   $0x80000000,-0x4(%rbp)
    65a8:	74 07                	je     65b1 <safe_unary_minus_func_int32_t_s+0x1b>
    65aa:	8b 45 fc             	mov    -0x4(%rbp),%eax
    65ad:	f7 d8                	neg    %eax
    65af:	eb 03                	jmp    65b4 <safe_unary_minus_func_int32_t_s+0x1e>
    65b1:	8b 45 fc             	mov    -0x4(%rbp),%eax
    65b4:	5d                   	pop    %rbp
    65b5:	c3                   	retq   

00000000000065b6 <safe_add_func_int32_t_s_s>:
    65b6:	f3 0f 1e fa          	endbr64 
    65ba:	55                   	push   %rbp
    65bb:	48 89 e5             	mov    %rsp,%rbp
    65be:	89 7d fc             	mov    %edi,-0x4(%rbp)
    65c1:	89 75 f8             	mov    %esi,-0x8(%rbp)
    65c4:	83 7d fc 00          	cmpl   $0x0,-0x4(%rbp)
    65c8:	7e 13                	jle    65dd <safe_add_func_int32_t_s_s+0x27>
    65ca:	83 7d f8 00          	cmpl   $0x0,-0x8(%rbp)
    65ce:	7e 0d                	jle    65dd <safe_add_func_int32_t_s_s+0x27>
    65d0:	b8 ff ff ff 7f       	mov    $0x7fffffff,%eax
    65d5:	2b 45 f8             	sub    -0x8(%rbp),%eax
    65d8:	39 45 fc             	cmp    %eax,-0x4(%rbp)
    65db:	7f 23                	jg     6600 <safe_add_func_int32_t_s_s+0x4a>
    65dd:	83 7d fc 00          	cmpl   $0x0,-0x4(%rbp)
    65e1:	79 13                	jns    65f6 <safe_add_func_int32_t_s_s+0x40>
    65e3:	83 7d f8 00          	cmpl   $0x0,-0x8(%rbp)
    65e7:	79 0d                	jns    65f6 <safe_add_func_int32_t_s_s+0x40>
    65e9:	b8 00 00 00 80       	mov    $0x80000000,%eax
    65ee:	2b 45 f8             	sub    -0x8(%rbp),%eax
    65f1:	39 45 fc             	cmp    %eax,-0x4(%rbp)
    65f4:	7c 0a                	jl     6600 <safe_add_func_int32_t_s_s+0x4a>
    65f6:	8b 55 fc             	mov    -0x4(%rbp),%edx
    65f9:	8b 45 f8             	mov    -0x8(%rbp),%eax
    65fc:	01 d0                	add    %edx,%eax
    65fe:	eb 03                	jmp    6603 <safe_add_func_int32_t_s_s+0x4d>
    6600:	8b 45 fc             	mov    -0x4(%rbp),%eax
    6603:	5d                   	pop    %rbp
    6604:	c3                   	retq   

0000000000006605 <safe_sub_func_int32_t_s_s>:
    6605:	f3 0f 1e fa          	endbr64 
    6609:	55                   	push   %rbp
    660a:	48 89 e5             	mov    %rsp,%rbp
    660d:	89 7d fc             	mov    %edi,-0x4(%rbp)
    6610:	89 75 f8             	mov    %esi,-0x8(%rbp)
    6613:	8b 45 fc             	mov    -0x4(%rbp),%eax
    6616:	33 45 f8             	xor    -0x8(%rbp),%eax
    6619:	89 c2                	mov    %eax,%edx
    661b:	8b 45 fc             	mov    -0x4(%rbp),%eax
    661e:	33 45 f8             	xor    -0x8(%rbp),%eax
    6621:	25 00 00 00 80       	and    $0x80000000,%eax
    6626:	33 45 fc             	xor    -0x4(%rbp),%eax
    6629:	2b 45 f8             	sub    -0x8(%rbp),%eax
    662c:	33 45 f8             	xor    -0x8(%rbp),%eax
    662f:	21 d0                	and    %edx,%eax
    6631:	85 c0                	test   %eax,%eax
    6633:	78 08                	js     663d <safe_sub_func_int32_t_s_s+0x38>
    6635:	8b 45 fc             	mov    -0x4(%rbp),%eax
    6638:	2b 45 f8             	sub    -0x8(%rbp),%eax
    663b:	eb 03                	jmp    6640 <safe_sub_func_int32_t_s_s+0x3b>
    663d:	8b 45 fc             	mov    -0x4(%rbp),%eax
    6640:	5d                   	pop    %rbp
    6641:	c3                   	retq   

0000000000006642 <safe_mul_func_int32_t_s_s>:
    6642:	f3 0f 1e fa          	endbr64 
    6646:	55                   	push   %rbp
    6647:	48 89 e5             	mov    %rsp,%rbp
    664a:	89 7d fc             	mov    %edi,-0x4(%rbp)
    664d:	89 75 f8             	mov    %esi,-0x8(%rbp)
    6650:	83 7d fc 00          	cmpl   $0x0,-0x4(%rbp)
    6654:	7e 14                	jle    666a <safe_mul_func_int32_t_s_s+0x28>
    6656:	83 7d f8 00          	cmpl   $0x0,-0x8(%rbp)
    665a:	7e 0e                	jle    666a <safe_mul_func_int32_t_s_s+0x28>
    665c:	b8 ff ff ff 7f       	mov    $0x7fffffff,%eax
    6661:	99                   	cltd   
    6662:	f7 7d f8             	idivl  -0x8(%rbp)
    6665:	39 45 fc             	cmp    %eax,-0x4(%rbp)
    6668:	7f 5d                	jg     66c7 <safe_mul_func_int32_t_s_s+0x85>
    666a:	83 7d fc 00          	cmpl   $0x0,-0x4(%rbp)
    666e:	7e 14                	jle    6684 <safe_mul_func_int32_t_s_s+0x42>
    6670:	83 7d f8 00          	cmpl   $0x0,-0x8(%rbp)
    6674:	7f 0e                	jg     6684 <safe_mul_func_int32_t_s_s+0x42>
    6676:	b8 00 00 00 80       	mov    $0x80000000,%eax
    667b:	99                   	cltd   
    667c:	f7 7d fc             	idivl  -0x4(%rbp)
    667f:	39 45 f8             	cmp    %eax,-0x8(%rbp)
    6682:	7c 43                	jl     66c7 <safe_mul_func_int32_t_s_s+0x85>
    6684:	83 7d fc 00          	cmpl   $0x0,-0x4(%rbp)
    6688:	7f 14                	jg     669e <safe_mul_func_int32_t_s_s+0x5c>
    668a:	83 7d f8 00          	cmpl   $0x0,-0x8(%rbp)
    668e:	7e 0e                	jle    669e <safe_mul_func_int32_t_s_s+0x5c>
    6690:	b8 00 00 00 80       	mov    $0x80000000,%eax
    6695:	99                   	cltd   
    6696:	f7 7d f8             	idivl  -0x8(%rbp)
    6699:	39 45 fc             	cmp    %eax,-0x4(%rbp)
    669c:	7c 29                	jl     66c7 <safe_mul_func_int32_t_s_s+0x85>
    669e:	83 7d fc 00          	cmpl   $0x0,-0x4(%rbp)
    66a2:	7f 1a                	jg     66be <safe_mul_func_int32_t_s_s+0x7c>
    66a4:	83 7d f8 00          	cmpl   $0x0,-0x8(%rbp)
    66a8:	7f 14                	jg     66be <safe_mul_func_int32_t_s_s+0x7c>
    66aa:	83 7d fc 00          	cmpl   $0x0,-0x4(%rbp)
    66ae:	74 0e                	je     66be <safe_mul_func_int32_t_s_s+0x7c>
    66b0:	b8 ff ff ff 7f       	mov    $0x7fffffff,%eax
    66b5:	99                   	cltd   
    66b6:	f7 7d fc             	idivl  -0x4(%rbp)
    66b9:	39 45 f8             	cmp    %eax,-0x8(%rbp)
    66bc:	7c 09                	jl     66c7 <safe_mul_func_int32_t_s_s+0x85>
    66be:	8b 45 fc             	mov    -0x4(%rbp),%eax
    66c1:	0f af 45 f8          	imul   -0x8(%rbp),%eax
    66c5:	eb 03                	jmp    66ca <safe_mul_func_int32_t_s_s+0x88>
    66c7:	8b 45 fc             	mov    -0x4(%rbp),%eax
    66ca:	5d                   	pop    %rbp
    66cb:	c3                   	retq   

00000000000066cc <safe_mod_func_int32_t_s_s>:
    66cc:	f3 0f 1e fa          	endbr64 
    66d0:	55                   	push   %rbp
    66d1:	48 89 e5             	mov    %rsp,%rbp
    66d4:	89 7d fc             	mov    %edi,-0x4(%rbp)
    66d7:	89 75 f8             	mov    %esi,-0x8(%rbp)
    66da:	83 7d f8 00          	cmpl   $0x0,-0x8(%rbp)
    66de:	74 1a                	je     66fa <safe_mod_func_int32_t_s_s+0x2e>
    66e0:	81 7d fc 00 00 00 80 	cmpl   $0x80000000,-0x4(%rbp)
    66e7:	75 06                	jne    66ef <safe_mod_func_int32_t_s_s+0x23>
    66e9:	83 7d f8 ff          	cmpl   $0xffffffff,-0x8(%rbp)
    66ed:	74 0b                	je     66fa <safe_mod_func_int32_t_s_s+0x2e>
    66ef:	8b 45 fc             	mov    -0x4(%rbp),%eax
    66f2:	99                   	cltd   
    66f3:	f7 7d f8             	idivl  -0x8(%rbp)
    66f6:	89 d0                	mov    %edx,%eax
    66f8:	eb 03                	jmp    66fd <safe_mod_func_int32_t_s_s+0x31>
    66fa:	8b 45 fc             	mov    -0x4(%rbp),%eax
    66fd:	5d                   	pop    %rbp
    66fe:	c3                   	retq   

00000000000066ff <safe_div_func_int32_t_s_s>:
    66ff:	f3 0f 1e fa          	endbr64 
    6703:	55                   	push   %rbp
    6704:	48 89 e5             	mov    %rsp,%rbp
    6707:	89 7d fc             	mov    %edi,-0x4(%rbp)
    670a:	89 75 f8             	mov    %esi,-0x8(%rbp)
    670d:	83 7d f8 00          	cmpl   $0x0,-0x8(%rbp)
    6711:	74 18                	je     672b <safe_div_func_int32_t_s_s+0x2c>
    6713:	81 7d fc 00 00 00 80 	cmpl   $0x80000000,-0x4(%rbp)
    671a:	75 06                	jne    6722 <safe_div_func_int32_t_s_s+0x23>
    671c:	83 7d f8 ff          	cmpl   $0xffffffff,-0x8(%rbp)
    6720:	74 09                	je     672b <safe_div_func_int32_t_s_s+0x2c>
    6722:	8b 45 fc             	mov    -0x4(%rbp),%eax
    6725:	99                   	cltd   
    6726:	f7 7d f8             	idivl  -0x8(%rbp)
    6729:	eb 03                	jmp    672e <safe_div_func_int32_t_s_s+0x2f>
    672b:	8b 45 fc             	mov    -0x4(%rbp),%eax
    672e:	5d                   	pop    %rbp
    672f:	c3                   	retq   

0000000000006730 <safe_lshift_func_int32_t_s_s>:
    6730:	f3 0f 1e fa          	endbr64 
    6734:	55                   	push   %rbp
    6735:	48 89 e5             	mov    %rsp,%rbp
    6738:	89 7d fc             	mov    %edi,-0x4(%rbp)
    673b:	89 75 f8             	mov    %esi,-0x8(%rbp)
    673e:	83 7d fc 00          	cmpl   $0x0,-0x4(%rbp)
    6742:	78 2d                	js     6771 <safe_lshift_func_int32_t_s_s+0x41>
    6744:	83 7d f8 00          	cmpl   $0x0,-0x8(%rbp)
    6748:	78 27                	js     6771 <safe_lshift_func_int32_t_s_s+0x41>
    674a:	83 7d f8 1f          	cmpl   $0x1f,-0x8(%rbp)
    674e:	7f 21                	jg     6771 <safe_lshift_func_int32_t_s_s+0x41>
    6750:	8b 45 f8             	mov    -0x8(%rbp),%eax
    6753:	ba ff ff ff 7f       	mov    $0x7fffffff,%edx
    6758:	89 c1                	mov    %eax,%ecx
    675a:	d3 fa                	sar    %cl,%edx
    675c:	89 d0                	mov    %edx,%eax
    675e:	39 45 fc             	cmp    %eax,-0x4(%rbp)
    6761:	7f 0e                	jg     6771 <safe_lshift_func_int32_t_s_s+0x41>
    6763:	8b 45 f8             	mov    -0x8(%rbp),%eax
    6766:	8b 55 fc             	mov    -0x4(%rbp),%edx
    6769:	89 c1                	mov    %eax,%ecx
    676b:	d3 e2                	shl    %cl,%edx
    676d:	89 d0                	mov    %edx,%eax
    676f:	eb 03                	jmp    6774 <safe_lshift_func_int32_t_s_s+0x44>
    6771:	8b 45 fc             	mov    -0x4(%rbp),%eax
    6774:	5d                   	pop    %rbp
    6775:	c3                   	retq   

0000000000006776 <safe_lshift_func_int32_t_s_u>:
    6776:	f3 0f 1e fa          	endbr64 
    677a:	55                   	push   %rbp
    677b:	48 89 e5             	mov    %rsp,%rbp
    677e:	89 7d fc             	mov    %edi,-0x4(%rbp)
    6781:	89 75 f8             	mov    %esi,-0x8(%rbp)
    6784:	83 7d fc 00          	cmpl   $0x0,-0x4(%rbp)
    6788:	78 27                	js     67b1 <safe_lshift_func_int32_t_s_u+0x3b>
    678a:	83 7d f8 1f          	cmpl   $0x1f,-0x8(%rbp)
    678e:	77 21                	ja     67b1 <safe_lshift_func_int32_t_s_u+0x3b>
    6790:	8b 45 f8             	mov    -0x8(%rbp),%eax
    6793:	ba ff ff ff 7f       	mov    $0x7fffffff,%edx
    6798:	89 c1                	mov    %eax,%ecx
    679a:	d3 fa                	sar    %cl,%edx
    679c:	89 d0                	mov    %edx,%eax
    679e:	39 45 fc             	cmp    %eax,-0x4(%rbp)
    67a1:	7f 0e                	jg     67b1 <safe_lshift_func_int32_t_s_u+0x3b>
    67a3:	8b 45 f8             	mov    -0x8(%rbp),%eax
    67a6:	8b 55 fc             	mov    -0x4(%rbp),%edx
    67a9:	89 c1                	mov    %eax,%ecx
    67ab:	d3 e2                	shl    %cl,%edx
    67ad:	89 d0                	mov    %edx,%eax
    67af:	eb 03                	jmp    67b4 <safe_lshift_func_int32_t_s_u+0x3e>
    67b1:	8b 45 fc             	mov    -0x4(%rbp),%eax
    67b4:	5d                   	pop    %rbp
    67b5:	c3                   	retq   

00000000000067b6 <safe_rshift_func_int32_t_s_s>:
    67b6:	f3 0f 1e fa          	endbr64 
    67ba:	55                   	push   %rbp
    67bb:	48 89 e5             	mov    %rsp,%rbp
    67be:	89 7d fc             	mov    %edi,-0x4(%rbp)
    67c1:	89 75 f8             	mov    %esi,-0x8(%rbp)
    67c4:	83 7d fc 00          	cmpl   $0x0,-0x4(%rbp)
    67c8:	78 1a                	js     67e4 <safe_rshift_func_int32_t_s_s+0x2e>
    67ca:	83 7d f8 00          	cmpl   $0x0,-0x8(%rbp)
    67ce:	78 14                	js     67e4 <safe_rshift_func_int32_t_s_s+0x2e>
    67d0:	83 7d f8 1f          	cmpl   $0x1f,-0x8(%rbp)
    67d4:	7f 0e                	jg     67e4 <safe_rshift_func_int32_t_s_s+0x2e>
    67d6:	8b 45 f8             	mov    -0x8(%rbp),%eax
    67d9:	8b 55 fc             	mov    -0x4(%rbp),%edx
    67dc:	89 c1                	mov    %eax,%ecx
    67de:	d3 fa                	sar    %cl,%edx
    67e0:	89 d0                	mov    %edx,%eax
    67e2:	eb 03                	jmp    67e7 <safe_rshift_func_int32_t_s_s+0x31>
    67e4:	8b 45 fc             	mov    -0x4(%rbp),%eax
    67e7:	5d                   	pop    %rbp
    67e8:	c3                   	retq   

00000000000067e9 <safe_rshift_func_int32_t_s_u>:
    67e9:	f3 0f 1e fa          	endbr64 
    67ed:	55                   	push   %rbp
    67ee:	48 89 e5             	mov    %rsp,%rbp
    67f1:	89 7d fc             	mov    %edi,-0x4(%rbp)
    67f4:	89 75 f8             	mov    %esi,-0x8(%rbp)
    67f7:	83 7d fc 00          	cmpl   $0x0,-0x4(%rbp)
    67fb:	78 14                	js     6811 <safe_rshift_func_int32_t_s_u+0x28>
    67fd:	83 7d f8 1f          	cmpl   $0x1f,-0x8(%rbp)
    6801:	77 0e                	ja     6811 <safe_rshift_func_int32_t_s_u+0x28>
    6803:	8b 45 f8             	mov    -0x8(%rbp),%eax
    6806:	8b 55 fc             	mov    -0x4(%rbp),%edx
    6809:	89 c1                	mov    %eax,%ecx
    680b:	d3 fa                	sar    %cl,%edx
    680d:	89 d0                	mov    %edx,%eax
    680f:	eb 03                	jmp    6814 <safe_rshift_func_int32_t_s_u+0x2b>
    6811:	8b 45 fc             	mov    -0x4(%rbp),%eax
    6814:	5d                   	pop    %rbp
    6815:	c3                   	retq   

0000000000006816 <safe_unary_minus_func_int64_t_s>:
    6816:	f3 0f 1e fa          	endbr64 
    681a:	55                   	push   %rbp
    681b:	48 89 e5             	mov    %rsp,%rbp
    681e:	48 89 7d f8          	mov    %rdi,-0x8(%rbp)
    6822:	48 b8 00 00 00 00 00 	movabs $0x8000000000000000,%rax
    6829:	00 00 80 
    682c:	48 39 45 f8          	cmp    %rax,-0x8(%rbp)
    6830:	74 09                	je     683b <safe_unary_minus_func_int64_t_s+0x25>
    6832:	48 8b 45 f8          	mov    -0x8(%rbp),%rax
    6836:	48 f7 d8             	neg    %rax
    6839:	eb 04                	jmp    683f <safe_unary_minus_func_int64_t_s+0x29>
    683b:	48 8b 45 f8          	mov    -0x8(%rbp),%rax
    683f:	5d                   	pop    %rbp
    6840:	c3                   	retq   

0000000000006841 <safe_add_func_int64_t_s_s>:
    6841:	f3 0f 1e fa          	endbr64 
    6845:	55                   	push   %rbp
    6846:	48 89 e5             	mov    %rsp,%rbp
    6849:	48 89 7d f8          	mov    %rdi,-0x8(%rbp)
    684d:	48 89 75 f0          	mov    %rsi,-0x10(%rbp)
    6851:	48 83 7d f8 00       	cmpq   $0x0,-0x8(%rbp)
    6856:	7e 1b                	jle    6873 <safe_add_func_int64_t_s_s+0x32>
    6858:	48 83 7d f0 00       	cmpq   $0x0,-0x10(%rbp)
    685d:	7e 14                	jle    6873 <safe_add_func_int64_t_s_s+0x32>
    685f:	48 b8 ff ff ff ff ff 	movabs $0x7fffffffffffffff,%rax
    6866:	ff ff 7f 
    6869:	48 2b 45 f0          	sub    -0x10(%rbp),%rax
    686d:	48 39 45 f8          	cmp    %rax,-0x8(%rbp)
    6871:	7f 2f                	jg     68a2 <safe_add_func_int64_t_s_s+0x61>
    6873:	48 83 7d f8 00       	cmpq   $0x0,-0x8(%rbp)
    6878:	79 1b                	jns    6895 <safe_add_func_int64_t_s_s+0x54>
    687a:	48 83 7d f0 00       	cmpq   $0x0,-0x10(%rbp)
    687f:	79 14                	jns    6895 <safe_add_func_int64_t_s_s+0x54>
    6881:	48 b8 00 00 00 00 00 	movabs $0x8000000000000000,%rax
    6888:	00 00 80 
    688b:	48 2b 45 f0          	sub    -0x10(%rbp),%rax
    688f:	48 39 45 f8          	cmp    %rax,-0x8(%rbp)
    6893:	7c 0d                	jl     68a2 <safe_add_func_int64_t_s_s+0x61>
    6895:	48 8b 55 f8          	mov    -0x8(%rbp),%rdx
    6899:	48 8b 45 f0          	mov    -0x10(%rbp),%rax
    689d:	48 01 d0             	add    %rdx,%rax
    68a0:	eb 04                	jmp    68a6 <safe_add_func_int64_t_s_s+0x65>
    68a2:	48 8b 45 f8          	mov    -0x8(%rbp),%rax
    68a6:	5d                   	pop    %rbp
    68a7:	c3                   	retq   

00000000000068a8 <safe_sub_func_int64_t_s_s>:
    68a8:	f3 0f 1e fa          	endbr64 
    68ac:	55                   	push   %rbp
    68ad:	48 89 e5             	mov    %rsp,%rbp
    68b0:	48 89 7d f8          	mov    %rdi,-0x8(%rbp)
    68b4:	48 89 75 f0          	mov    %rsi,-0x10(%rbp)
    68b8:	48 8b 45 f8          	mov    -0x8(%rbp),%rax
    68bc:	48 33 45 f0          	xor    -0x10(%rbp),%rax
    68c0:	48 89 c2             	mov    %rax,%rdx
    68c3:	48 8b 45 f8          	mov    -0x8(%rbp),%rax
    68c7:	48 33 45 f0          	xor    -0x10(%rbp),%rax
    68cb:	48 b9 00 00 00 00 00 	movabs $0x8000000000000000,%rcx
    68d2:	00 00 80 
    68d5:	48 21 c8             	and    %rcx,%rax
    68d8:	48 33 45 f8          	xor    -0x8(%rbp),%rax
    68dc:	48 2b 45 f0          	sub    -0x10(%rbp),%rax
    68e0:	48 33 45 f0          	xor    -0x10(%rbp),%rax
    68e4:	48 21 d0             	and    %rdx,%rax
    68e7:	48 85 c0             	test   %rax,%rax
    68ea:	78 0a                	js     68f6 <safe_sub_func_int64_t_s_s+0x4e>
    68ec:	48 8b 45 f8          	mov    -0x8(%rbp),%rax
    68f0:	48 2b 45 f0          	sub    -0x10(%rbp),%rax
    68f4:	eb 04                	jmp    68fa <safe_sub_func_int64_t_s_s+0x52>
    68f6:	48 8b 45 f8          	mov    -0x8(%rbp),%rax
    68fa:	5d                   	pop    %rbp
    68fb:	c3                   	retq   

00000000000068fc <safe_mul_func_int64_t_s_s>:
    68fc:	f3 0f 1e fa          	endbr64 
    6900:	55                   	push   %rbp
    6901:	48 89 e5             	mov    %rsp,%rbp
    6904:	48 89 7d f8          	mov    %rdi,-0x8(%rbp)
    6908:	48 89 75 f0          	mov    %rsi,-0x10(%rbp)
    690c:	48 83 7d f8 00       	cmpq   $0x0,-0x8(%rbp)
    6911:	7e 1d                	jle    6930 <safe_mul_func_int64_t_s_s+0x34>
    6913:	48 83 7d f0 00       	cmpq   $0x0,-0x10(%rbp)
    6918:	7e 16                	jle    6930 <safe_mul_func_int64_t_s_s+0x34>
    691a:	48 b8 ff ff ff ff ff 	movabs $0x7fffffffffffffff,%rax
    6921:	ff ff 7f 
    6924:	48 99                	cqto   
    6926:	48 f7 7d f0          	idivq  -0x10(%rbp)
    692a:	48 39 45 f8          	cmp    %rax,-0x8(%rbp)
    692e:	7f 7e                	jg     69ae <safe_mul_func_int64_t_s_s+0xb2>
    6930:	48 83 7d f8 00       	cmpq   $0x0,-0x8(%rbp)
    6935:	7e 1d                	jle    6954 <safe_mul_func_int64_t_s_s+0x58>
    6937:	48 83 7d f0 00       	cmpq   $0x0,-0x10(%rbp)
    693c:	7f 16                	jg     6954 <safe_mul_func_int64_t_s_s+0x58>
    693e:	48 b8 00 00 00 00 00 	movabs $0x8000000000000000,%rax
    6945:	00 00 80 
    6948:	48 99                	cqto   
    694a:	48 f7 7d f8          	idivq  -0x8(%rbp)
    694e:	48 39 45 f0          	cmp    %rax,-0x10(%rbp)
    6952:	7c 5a                	jl     69ae <safe_mul_func_int64_t_s_s+0xb2>
    6954:	48 83 7d f8 00       	cmpq   $0x0,-0x8(%rbp)
    6959:	7f 1d                	jg     6978 <safe_mul_func_int64_t_s_s+0x7c>
    695b:	48 83 7d f0 00       	cmpq   $0x0,-0x10(%rbp)
    6960:	7e 16                	jle    6978 <safe_mul_func_int64_t_s_s+0x7c>
    6962:	48 b8 00 00 00 00 00 	movabs $0x8000000000000000,%rax
    6969:	00 00 80 
    696c:	48 99                	cqto   
    696e:	48 f7 7d f0          	idivq  -0x10(%rbp)
    6972:	48 39 45 f8          	cmp    %rax,-0x8(%rbp)
    6976:	7c 36                	jl     69ae <safe_mul_func_int64_t_s_s+0xb2>
    6978:	48 83 7d f8 00       	cmpq   $0x0,-0x8(%rbp)
    697d:	7f 24                	jg     69a3 <safe_mul_func_int64_t_s_s+0xa7>
    697f:	48 83 7d f0 00       	cmpq   $0x0,-0x10(%rbp)
    6984:	7f 1d                	jg     69a3 <safe_mul_func_int64_t_s_s+0xa7>
    6986:	48 83 7d f8 00       	cmpq   $0x0,-0x8(%rbp)
    698b:	74 16                	je     69a3 <safe_mul_func_int64_t_s_s+0xa7>
    698d:	48 b8 ff ff ff ff ff 	movabs $0x7fffffffffffffff,%rax
    6994:	ff ff 7f 
    6997:	48 99                	cqto   
    6999:	48 f7 7d f8          	idivq  -0x8(%rbp)
    699d:	48 39 45 f0          	cmp    %rax,-0x10(%rbp)
    69a1:	7c 0b                	jl     69ae <safe_mul_func_int64_t_s_s+0xb2>
    69a3:	48 8b 45 f8          	mov    -0x8(%rbp),%rax
    69a7:	48 0f af 45 f0       	imul   -0x10(%rbp),%rax
    69ac:	eb 04                	jmp    69b2 <safe_mul_func_int64_t_s_s+0xb6>
    69ae:	48 8b 45 f8          	mov    -0x8(%rbp),%rax
    69b2:	5d                   	pop    %rbp
    69b3:	c3                   	retq   

00000000000069b4 <safe_mod_func_int64_t_s_s>:
    69b4:	f3 0f 1e fa          	endbr64 
    69b8:	55                   	push   %rbp
    69b9:	48 89 e5             	mov    %rsp,%rbp
    69bc:	48 89 7d f8          	mov    %rdi,-0x8(%rbp)
    69c0:	48 89 75 f0          	mov    %rsi,-0x10(%rbp)
    69c4:	48 83 7d f0 00       	cmpq   $0x0,-0x10(%rbp)
    69c9:	74 26                	je     69f1 <safe_mod_func_int64_t_s_s+0x3d>
    69cb:	48 b8 00 00 00 00 00 	movabs $0x8000000000000000,%rax
    69d2:	00 00 80 
    69d5:	48 39 45 f8          	cmp    %rax,-0x8(%rbp)
    69d9:	75 07                	jne    69e2 <safe_mod_func_int64_t_s_s+0x2e>
    69db:	48 83 7d f0 ff       	cmpq   $0xffffffffffffffff,-0x10(%rbp)
    69e0:	74 0f                	je     69f1 <safe_mod_func_int64_t_s_s+0x3d>
    69e2:	48 8b 45 f8          	mov    -0x8(%rbp),%rax
    69e6:	48 99                	cqto   
    69e8:	48 f7 7d f0          	idivq  -0x10(%rbp)
    69ec:	48 89 d0             	mov    %rdx,%rax
    69ef:	eb 04                	jmp    69f5 <safe_mod_func_int64_t_s_s+0x41>
    69f1:	48 8b 45 f8          	mov    -0x8(%rbp),%rax
    69f5:	5d                   	pop    %rbp
    69f6:	c3                   	retq   

00000000000069f7 <safe_div_func_int64_t_s_s>:
    69f7:	f3 0f 1e fa          	endbr64 
    69fb:	55                   	push   %rbp
    69fc:	48 89 e5             	mov    %rsp,%rbp
    69ff:	48 89 7d f8          	mov    %rdi,-0x8(%rbp)
    6a03:	48 89 75 f0          	mov    %rsi,-0x10(%rbp)
    6a07:	48 83 7d f0 00       	cmpq   $0x0,-0x10(%rbp)
    6a0c:	74 23                	je     6a31 <safe_div_func_int64_t_s_s+0x3a>
    6a0e:	48 b8 00 00 00 00 00 	movabs $0x8000000000000000,%rax
    6a15:	00 00 80 
    6a18:	48 39 45 f8          	cmp    %rax,-0x8(%rbp)
    6a1c:	75 07                	jne    6a25 <safe_div_func_int64_t_s_s+0x2e>
    6a1e:	48 83 7d f0 ff       	cmpq   $0xffffffffffffffff,-0x10(%rbp)
    6a23:	74 0c                	je     6a31 <safe_div_func_int64_t_s_s+0x3a>
    6a25:	48 8b 45 f8          	mov    -0x8(%rbp),%rax
    6a29:	48 99                	cqto   
    6a2b:	48 f7 7d f0          	idivq  -0x10(%rbp)
    6a2f:	eb 04                	jmp    6a35 <safe_div_func_int64_t_s_s+0x3e>
    6a31:	48 8b 45 f8          	mov    -0x8(%rbp),%rax
    6a35:	5d                   	pop    %rbp
    6a36:	c3                   	retq   

0000000000006a37 <safe_lshift_func_int64_t_s_s>:
    6a37:	f3 0f 1e fa          	endbr64 
    6a3b:	55                   	push   %rbp
    6a3c:	48 89 e5             	mov    %rsp,%rbp
    6a3f:	48 89 7d f8          	mov    %rdi,-0x8(%rbp)
    6a43:	89 75 f4             	mov    %esi,-0xc(%rbp)
    6a46:	48 83 7d f8 00       	cmpq   $0x0,-0x8(%rbp)
    6a4b:	78 38                	js     6a85 <safe_lshift_func_int64_t_s_s+0x4e>
    6a4d:	83 7d f4 00          	cmpl   $0x0,-0xc(%rbp)
    6a51:	78 32                	js     6a85 <safe_lshift_func_int64_t_s_s+0x4e>
    6a53:	83 7d f4 1f          	cmpl   $0x1f,-0xc(%rbp)
    6a57:	7f 2c                	jg     6a85 <safe_lshift_func_int64_t_s_s+0x4e>
    6a59:	8b 45 f4             	mov    -0xc(%rbp),%eax
    6a5c:	48 ba ff ff ff ff ff 	movabs $0x7fffffffffffffff,%rdx
    6a63:	ff ff 7f 
    6a66:	89 c1                	mov    %eax,%ecx
    6a68:	48 d3 fa             	sar    %cl,%rdx
    6a6b:	48 89 d0             	mov    %rdx,%rax
    6a6e:	48 39 45 f8          	cmp    %rax,-0x8(%rbp)
    6a72:	7f 11                	jg     6a85 <safe_lshift_func_int64_t_s_s+0x4e>
    6a74:	8b 45 f4             	mov    -0xc(%rbp),%eax
    6a77:	48 8b 55 f8          	mov    -0x8(%rbp),%rdx
    6a7b:	89 c1                	mov    %eax,%ecx
    6a7d:	48 d3 e2             	shl    %cl,%rdx
    6a80:	48 89 d0             	mov    %rdx,%rax
    6a83:	eb 04                	jmp    6a89 <safe_lshift_func_int64_t_s_s+0x52>
    6a85:	48 8b 45 f8          	mov    -0x8(%rbp),%rax
    6a89:	5d                   	pop    %rbp
    6a8a:	c3                   	retq   

0000000000006a8b <safe_lshift_func_int64_t_s_u>:
    6a8b:	f3 0f 1e fa          	endbr64 
    6a8f:	55                   	push   %rbp
    6a90:	48 89 e5             	mov    %rsp,%rbp
    6a93:	48 89 7d f8          	mov    %rdi,-0x8(%rbp)
    6a97:	89 75 f4             	mov    %esi,-0xc(%rbp)
    6a9a:	48 83 7d f8 00       	cmpq   $0x0,-0x8(%rbp)
    6a9f:	78 32                	js     6ad3 <safe_lshift_func_int64_t_s_u+0x48>
    6aa1:	83 7d f4 1f          	cmpl   $0x1f,-0xc(%rbp)
    6aa5:	77 2c                	ja     6ad3 <safe_lshift_func_int64_t_s_u+0x48>
    6aa7:	8b 45 f4             	mov    -0xc(%rbp),%eax
    6aaa:	48 ba ff ff ff ff ff 	movabs $0x7fffffffffffffff,%rdx
    6ab1:	ff ff 7f 
    6ab4:	89 c1                	mov    %eax,%ecx
    6ab6:	48 d3 fa             	sar    %cl,%rdx
    6ab9:	48 89 d0             	mov    %rdx,%rax
    6abc:	48 39 45 f8          	cmp    %rax,-0x8(%rbp)
    6ac0:	7f 11                	jg     6ad3 <safe_lshift_func_int64_t_s_u+0x48>
    6ac2:	8b 45 f4             	mov    -0xc(%rbp),%eax
    6ac5:	48 8b 55 f8          	mov    -0x8(%rbp),%rdx
    6ac9:	89 c1                	mov    %eax,%ecx
    6acb:	48 d3 e2             	shl    %cl,%rdx
    6ace:	48 89 d0             	mov    %rdx,%rax
    6ad1:	eb 04                	jmp    6ad7 <safe_lshift_func_int64_t_s_u+0x4c>
    6ad3:	48 8b 45 f8          	mov    -0x8(%rbp),%rax
    6ad7:	5d                   	pop    %rbp
    6ad8:	c3                   	retq   

0000000000006ad9 <safe_rshift_func_int64_t_s_s>:
    6ad9:	f3 0f 1e fa          	endbr64 
    6add:	55                   	push   %rbp
    6ade:	48 89 e5             	mov    %rsp,%rbp
    6ae1:	48 89 7d f8          	mov    %rdi,-0x8(%rbp)
    6ae5:	89 75 f4             	mov    %esi,-0xc(%rbp)
    6ae8:	48 83 7d f8 00       	cmpq   $0x0,-0x8(%rbp)
    6aed:	78 1d                	js     6b0c <safe_rshift_func_int64_t_s_s+0x33>
    6aef:	83 7d f4 00          	cmpl   $0x0,-0xc(%rbp)
    6af3:	78 17                	js     6b0c <safe_rshift_func_int64_t_s_s+0x33>
    6af5:	83 7d f4 1f          	cmpl   $0x1f,-0xc(%rbp)
    6af9:	7f 11                	jg     6b0c <safe_rshift_func_int64_t_s_s+0x33>
    6afb:	8b 45 f4             	mov    -0xc(%rbp),%eax
    6afe:	48 8b 55 f8          	mov    -0x8(%rbp),%rdx
    6b02:	89 c1                	mov    %eax,%ecx
    6b04:	48 d3 fa             	sar    %cl,%rdx
    6b07:	48 89 d0             	mov    %rdx,%rax
    6b0a:	eb 04                	jmp    6b10 <safe_rshift_func_int64_t_s_s+0x37>
    6b0c:	48 8b 45 f8          	mov    -0x8(%rbp),%rax
    6b10:	5d                   	pop    %rbp
    6b11:	c3                   	retq   

0000000000006b12 <safe_rshift_func_int64_t_s_u>:
    6b12:	f3 0f 1e fa          	endbr64 
    6b16:	55                   	push   %rbp
    6b17:	48 89 e5             	mov    %rsp,%rbp
    6b1a:	48 89 7d f8          	mov    %rdi,-0x8(%rbp)
    6b1e:	89 75 f4             	mov    %esi,-0xc(%rbp)
    6b21:	48 83 7d f8 00       	cmpq   $0x0,-0x8(%rbp)
    6b26:	78 17                	js     6b3f <safe_rshift_func_int64_t_s_u+0x2d>
    6b28:	83 7d f4 1f          	cmpl   $0x1f,-0xc(%rbp)
    6b2c:	77 11                	ja     6b3f <safe_rshift_func_int64_t_s_u+0x2d>
    6b2e:	8b 45 f4             	mov    -0xc(%rbp),%eax
    6b31:	48 8b 55 f8          	mov    -0x8(%rbp),%rdx
    6b35:	89 c1                	mov    %eax,%ecx
    6b37:	48 d3 fa             	sar    %cl,%rdx
    6b3a:	48 89 d0             	mov    %rdx,%rax
    6b3d:	eb 04                	jmp    6b43 <safe_rshift_func_int64_t_s_u+0x31>
    6b3f:	48 8b 45 f8          	mov    -0x8(%rbp),%rax
    6b43:	5d                   	pop    %rbp
    6b44:	c3                   	retq   

0000000000006b45 <safe_unary_minus_func_uint8_t_u>:
    6b45:	f3 0f 1e fa          	endbr64 
    6b49:	55                   	push   %rbp
    6b4a:	48 89 e5             	mov    %rsp,%rbp
    6b4d:	89 f8                	mov    %edi,%eax
    6b4f:	88 45 fc             	mov    %al,-0x4(%rbp)
    6b52:	0f b6 45 fc          	movzbl -0x4(%rbp),%eax
    6b56:	f7 d8                	neg    %eax
    6b58:	5d                   	pop    %rbp
    6b59:	c3                   	retq   

0000000000006b5a <safe_add_func_uint8_t_u_u>:
    6b5a:	f3 0f 1e fa          	endbr64 
    6b5e:	55                   	push   %rbp
    6b5f:	48 89 e5             	mov    %rsp,%rbp
    6b62:	89 fa                	mov    %edi,%edx
    6b64:	89 f0                	mov    %esi,%eax
    6b66:	88 55 fc             	mov    %dl,-0x4(%rbp)
    6b69:	88 45 f8             	mov    %al,-0x8(%rbp)
    6b6c:	0f b6 55 fc          	movzbl -0x4(%rbp),%edx
    6b70:	0f b6 45 f8          	movzbl -0x8(%rbp),%eax
    6b74:	01 d0                	add    %edx,%eax
    6b76:	5d                   	pop    %rbp
    6b77:	c3                   	retq   

0000000000006b78 <safe_sub_func_uint8_t_u_u>:
    6b78:	f3 0f 1e fa          	endbr64 
    6b7c:	55                   	push   %rbp
    6b7d:	48 89 e5             	mov    %rsp,%rbp
    6b80:	89 fa                	mov    %edi,%edx
    6b82:	89 f0                	mov    %esi,%eax
    6b84:	88 55 fc             	mov    %dl,-0x4(%rbp)
    6b87:	88 45 f8             	mov    %al,-0x8(%rbp)
    6b8a:	0f b6 45 fc          	movzbl -0x4(%rbp),%eax
    6b8e:	2a 45 f8             	sub    -0x8(%rbp),%al
    6b91:	5d                   	pop    %rbp
    6b92:	c3                   	retq   

0000000000006b93 <safe_mul_func_uint8_t_u_u>:
    6b93:	f3 0f 1e fa          	endbr64 
    6b97:	55                   	push   %rbp
    6b98:	48 89 e5             	mov    %rsp,%rbp
    6b9b:	89 fa                	mov    %edi,%edx
    6b9d:	89 f0                	mov    %esi,%eax
    6b9f:	88 55 fc             	mov    %dl,-0x4(%rbp)
    6ba2:	88 45 f8             	mov    %al,-0x8(%rbp)
    6ba5:	0f b6 45 fc          	movzbl -0x4(%rbp),%eax
    6ba9:	f6 65 f8             	mulb   -0x8(%rbp)
    6bac:	5d                   	pop    %rbp
    6bad:	c3                   	retq   

0000000000006bae <safe_mod_func_uint8_t_u_u>:
    6bae:	f3 0f 1e fa          	endbr64 
    6bb2:	55                   	push   %rbp
    6bb3:	48 89 e5             	mov    %rsp,%rbp
    6bb6:	89 fa                	mov    %edi,%edx
    6bb8:	89 f0                	mov    %esi,%eax
    6bba:	88 55 fc             	mov    %dl,-0x4(%rbp)
    6bbd:	88 45 f8             	mov    %al,-0x8(%rbp)
    6bc0:	80 7d f8 00          	cmpb   $0x0,-0x8(%rbp)
    6bc4:	74 0f                	je     6bd5 <safe_mod_func_uint8_t_u_u+0x27>
    6bc6:	0f b6 45 fc          	movzbl -0x4(%rbp),%eax
    6bca:	0f b6 c0             	movzbl %al,%eax
    6bcd:	f6 75 f8             	divb   -0x8(%rbp)
    6bd0:	0f b6 c4             	movzbl %ah,%eax
    6bd3:	eb 04                	jmp    6bd9 <safe_mod_func_uint8_t_u_u+0x2b>
    6bd5:	0f b6 45 fc          	movzbl -0x4(%rbp),%eax
    6bd9:	5d                   	pop    %rbp
    6bda:	c3                   	retq   

0000000000006bdb <safe_div_func_uint8_t_u_u>:
    6bdb:	f3 0f 1e fa          	endbr64 
    6bdf:	55                   	push   %rbp
    6be0:	48 89 e5             	mov    %rsp,%rbp
    6be3:	89 fa                	mov    %edi,%edx
    6be5:	89 f0                	mov    %esi,%eax
    6be7:	88 55 fc             	mov    %dl,-0x4(%rbp)
    6bea:	88 45 f8             	mov    %al,-0x8(%rbp)
    6bed:	80 7d f8 00          	cmpb   $0x0,-0x8(%rbp)
    6bf1:	74 0c                	je     6bff <safe_div_func_uint8_t_u_u+0x24>
    6bf3:	0f b6 45 fc          	movzbl -0x4(%rbp),%eax
    6bf7:	0f b6 c0             	movzbl %al,%eax
    6bfa:	f6 75 f8             	divb   -0x8(%rbp)
    6bfd:	eb 04                	jmp    6c03 <safe_div_func_uint8_t_u_u+0x28>
    6bff:	0f b6 45 fc          	movzbl -0x4(%rbp),%eax
    6c03:	5d                   	pop    %rbp
    6c04:	c3                   	retq   

0000000000006c05 <safe_lshift_func_uint8_t_u_s>:
    6c05:	f3 0f 1e fa          	endbr64 
    6c09:	55                   	push   %rbp
    6c0a:	48 89 e5             	mov    %rsp,%rbp
    6c0d:	89 f8                	mov    %edi,%eax
    6c0f:	89 75 f8             	mov    %esi,-0x8(%rbp)
    6c12:	88 45 fc             	mov    %al,-0x4(%rbp)
    6c15:	83 7d f8 00          	cmpl   $0x0,-0x8(%rbp)
    6c19:	78 2b                	js     6c46 <safe_lshift_func_uint8_t_u_s+0x41>
    6c1b:	83 7d f8 1f          	cmpl   $0x1f,-0x8(%rbp)
    6c1f:	7f 25                	jg     6c46 <safe_lshift_func_uint8_t_u_s+0x41>
    6c21:	0f b6 55 fc          	movzbl -0x4(%rbp),%edx
    6c25:	8b 45 f8             	mov    -0x8(%rbp),%eax
    6c28:	be ff 00 00 00       	mov    $0xff,%esi
    6c2d:	89 c1                	mov    %eax,%ecx
    6c2f:	d3 fe                	sar    %cl,%esi
    6c31:	89 f0                	mov    %esi,%eax
    6c33:	39 c2                	cmp    %eax,%edx
    6c35:	7f 0f                	jg     6c46 <safe_lshift_func_uint8_t_u_s+0x41>
    6c37:	0f b6 55 fc          	movzbl -0x4(%rbp),%edx
    6c3b:	8b 45 f8             	mov    -0x8(%rbp),%eax
    6c3e:	89 c1                	mov    %eax,%ecx
    6c40:	d3 e2                	shl    %cl,%edx
    6c42:	89 d0                	mov    %edx,%eax
    6c44:	eb 04                	jmp    6c4a <safe_lshift_func_uint8_t_u_s+0x45>
    6c46:	0f b6 45 fc          	movzbl -0x4(%rbp),%eax
    6c4a:	5d                   	pop    %rbp
    6c4b:	c3                   	retq   

0000000000006c4c <safe_lshift_func_uint8_t_u_u>:
    6c4c:	f3 0f 1e fa          	endbr64 
    6c50:	55                   	push   %rbp
    6c51:	48 89 e5             	mov    %rsp,%rbp
    6c54:	89 f8                	mov    %edi,%eax
    6c56:	89 75 f8             	mov    %esi,-0x8(%rbp)
    6c59:	88 45 fc             	mov    %al,-0x4(%rbp)
    6c5c:	83 7d f8 1f          	cmpl   $0x1f,-0x8(%rbp)
    6c60:	77 25                	ja     6c87 <safe_lshift_func_uint8_t_u_u+0x3b>
    6c62:	0f b6 55 fc          	movzbl -0x4(%rbp),%edx
    6c66:	8b 45 f8             	mov    -0x8(%rbp),%eax
    6c69:	be ff 00 00 00       	mov    $0xff,%esi
    6c6e:	89 c1                	mov    %eax,%ecx
    6c70:	d3 fe                	sar    %cl,%esi
    6c72:	89 f0                	mov    %esi,%eax
    6c74:	39 c2                	cmp    %eax,%edx
    6c76:	7f 0f                	jg     6c87 <safe_lshift_func_uint8_t_u_u+0x3b>
    6c78:	0f b6 55 fc          	movzbl -0x4(%rbp),%edx
    6c7c:	8b 45 f8             	mov    -0x8(%rbp),%eax
    6c7f:	89 c1                	mov    %eax,%ecx
    6c81:	d3 e2                	shl    %cl,%edx
    6c83:	89 d0                	mov    %edx,%eax
    6c85:	eb 04                	jmp    6c8b <safe_lshift_func_uint8_t_u_u+0x3f>
    6c87:	0f b6 45 fc          	movzbl -0x4(%rbp),%eax
    6c8b:	5d                   	pop    %rbp
    6c8c:	c3                   	retq   

0000000000006c8d <safe_rshift_func_uint8_t_u_s>:
    6c8d:	f3 0f 1e fa          	endbr64 
    6c91:	55                   	push   %rbp
    6c92:	48 89 e5             	mov    %rsp,%rbp
    6c95:	89 f8                	mov    %edi,%eax
    6c97:	89 75 f8             	mov    %esi,-0x8(%rbp)
    6c9a:	88 45 fc             	mov    %al,-0x4(%rbp)
    6c9d:	83 7d f8 00          	cmpl   $0x0,-0x8(%rbp)
    6ca1:	78 15                	js     6cb8 <safe_rshift_func_uint8_t_u_s+0x2b>
    6ca3:	83 7d f8 1f          	cmpl   $0x1f,-0x8(%rbp)
    6ca7:	7f 0f                	jg     6cb8 <safe_rshift_func_uint8_t_u_s+0x2b>
    6ca9:	0f b6 55 fc          	movzbl -0x4(%rbp),%edx
    6cad:	8b 45 f8             	mov    -0x8(%rbp),%eax
    6cb0:	89 c1                	mov    %eax,%ecx
    6cb2:	d3 fa                	sar    %cl,%edx
    6cb4:	89 d0                	mov    %edx,%eax
    6cb6:	eb 04                	jmp    6cbc <safe_rshift_func_uint8_t_u_s+0x2f>
    6cb8:	0f b6 45 fc          	movzbl -0x4(%rbp),%eax
    6cbc:	5d                   	pop    %rbp
    6cbd:	c3                   	retq   

0000000000006cbe <safe_rshift_func_uint8_t_u_u>:
    6cbe:	f3 0f 1e fa          	endbr64 
    6cc2:	55                   	push   %rbp
    6cc3:	48 89 e5             	mov    %rsp,%rbp
    6cc6:	89 f8                	mov    %edi,%eax
    6cc8:	89 75 f8             	mov    %esi,-0x8(%rbp)
    6ccb:	88 45 fc             	mov    %al,-0x4(%rbp)
    6cce:	83 7d f8 1f          	cmpl   $0x1f,-0x8(%rbp)
    6cd2:	77 0f                	ja     6ce3 <safe_rshift_func_uint8_t_u_u+0x25>
    6cd4:	0f b6 55 fc          	movzbl -0x4(%rbp),%edx
    6cd8:	8b 45 f8             	mov    -0x8(%rbp),%eax
    6cdb:	89 c1                	mov    %eax,%ecx
    6cdd:	d3 fa                	sar    %cl,%edx
    6cdf:	89 d0                	mov    %edx,%eax
    6ce1:	eb 04                	jmp    6ce7 <safe_rshift_func_uint8_t_u_u+0x29>
    6ce3:	0f b6 45 fc          	movzbl -0x4(%rbp),%eax
    6ce7:	5d                   	pop    %rbp
    6ce8:	c3                   	retq   

0000000000006ce9 <safe_unary_minus_func_uint16_t_u>:
    6ce9:	f3 0f 1e fa          	endbr64 
    6ced:	55                   	push   %rbp
    6cee:	48 89 e5             	mov    %rsp,%rbp
    6cf1:	89 f8                	mov    %edi,%eax
    6cf3:	66 89 45 fc          	mov    %ax,-0x4(%rbp)
    6cf7:	0f b7 45 fc          	movzwl -0x4(%rbp),%eax
    6cfb:	f7 d8                	neg    %eax
    6cfd:	5d                   	pop    %rbp
    6cfe:	c3                   	retq   

0000000000006cff <safe_add_func_uint16_t_u_u>:
    6cff:	f3 0f 1e fa          	endbr64 
    6d03:	55                   	push   %rbp
    6d04:	48 89 e5             	mov    %rsp,%rbp
    6d07:	89 fa                	mov    %edi,%edx
    6d09:	89 f0                	mov    %esi,%eax
    6d0b:	66 89 55 fc          	mov    %dx,-0x4(%rbp)
    6d0f:	66 89 45 f8          	mov    %ax,-0x8(%rbp)
    6d13:	0f b7 55 fc          	movzwl -0x4(%rbp),%edx
    6d17:	0f b7 45 f8          	movzwl -0x8(%rbp),%eax
    6d1b:	01 d0                	add    %edx,%eax
    6d1d:	5d                   	pop    %rbp
    6d1e:	c3                   	retq   

0000000000006d1f <safe_sub_func_uint16_t_u_u>:
    6d1f:	f3 0f 1e fa          	endbr64 
    6d23:	55                   	push   %rbp
    6d24:	48 89 e5             	mov    %rsp,%rbp
    6d27:	89 fa                	mov    %edi,%edx
    6d29:	89 f0                	mov    %esi,%eax
    6d2b:	66 89 55 fc          	mov    %dx,-0x4(%rbp)
    6d2f:	66 89 45 f8          	mov    %ax,-0x8(%rbp)
    6d33:	0f b7 45 fc          	movzwl -0x4(%rbp),%eax
    6d37:	66 2b 45 f8          	sub    -0x8(%rbp),%ax
    6d3b:	5d                   	pop    %rbp
    6d3c:	c3                   	retq   

0000000000006d3d <safe_mul_func_uint16_t_u_u>:
    6d3d:	f3 0f 1e fa          	endbr64 
    6d41:	55                   	push   %rbp
    6d42:	48 89 e5             	mov    %rsp,%rbp
    6d45:	89 fa                	mov    %edi,%edx
    6d47:	89 f0                	mov    %esi,%eax
    6d49:	66 89 55 fc          	mov    %dx,-0x4(%rbp)
    6d4d:	66 89 45 f8          	mov    %ax,-0x8(%rbp)
    6d51:	0f b7 45 fc          	movzwl -0x4(%rbp),%eax
    6d55:	66 0f af 45 f8       	imul   -0x8(%rbp),%ax
    6d5a:	5d                   	pop    %rbp
    6d5b:	c3                   	retq   

0000000000006d5c <safe_mod_func_uint16_t_u_u>:
    6d5c:	f3 0f 1e fa          	endbr64 
    6d60:	55                   	push   %rbp
    6d61:	48 89 e5             	mov    %rsp,%rbp
    6d64:	89 fa                	mov    %edi,%edx
    6d66:	89 f0                	mov    %esi,%eax
    6d68:	66 89 55 fc          	mov    %dx,-0x4(%rbp)
    6d6c:	66 89 45 f8          	mov    %ax,-0x8(%rbp)
    6d70:	66 83 7d f8 00       	cmpw   $0x0,-0x8(%rbp)
    6d75:	74 11                	je     6d88 <safe_mod_func_uint16_t_u_u+0x2c>
    6d77:	0f b7 45 fc          	movzwl -0x4(%rbp),%eax
    6d7b:	ba 00 00 00 00       	mov    $0x0,%edx
    6d80:	66 f7 75 f8          	divw   -0x8(%rbp)
    6d84:	89 d0                	mov    %edx,%eax
    6d86:	eb 04                	jmp    6d8c <safe_mod_func_uint16_t_u_u+0x30>
    6d88:	0f b7 45 fc          	movzwl -0x4(%rbp),%eax
    6d8c:	5d                   	pop    %rbp
    6d8d:	c3                   	retq   

0000000000006d8e <safe_div_func_uint16_t_u_u>:
    6d8e:	f3 0f 1e fa          	endbr64 
    6d92:	55                   	push   %rbp
    6d93:	48 89 e5             	mov    %rsp,%rbp
    6d96:	89 fa                	mov    %edi,%edx
    6d98:	89 f0                	mov    %esi,%eax
    6d9a:	66 89 55 fc          	mov    %dx,-0x4(%rbp)
    6d9e:	66 89 45 f8          	mov    %ax,-0x8(%rbp)
    6da2:	66 83 7d f8 00       	cmpw   $0x0,-0x8(%rbp)
    6da7:	74 0f                	je     6db8 <safe_div_func_uint16_t_u_u+0x2a>
    6da9:	0f b7 45 fc          	movzwl -0x4(%rbp),%eax
    6dad:	ba 00 00 00 00       	mov    $0x0,%edx
    6db2:	66 f7 75 f8          	divw   -0x8(%rbp)
    6db6:	eb 04                	jmp    6dbc <safe_div_func_uint16_t_u_u+0x2e>
    6db8:	0f b7 45 fc          	movzwl -0x4(%rbp),%eax
    6dbc:	5d                   	pop    %rbp
    6dbd:	c3                   	retq   

0000000000006dbe <safe_lshift_func_uint16_t_u_s>:
    6dbe:	f3 0f 1e fa          	endbr64 
    6dc2:	55                   	push   %rbp
    6dc3:	48 89 e5             	mov    %rsp,%rbp
    6dc6:	89 f8                	mov    %edi,%eax
    6dc8:	89 75 f8             	mov    %esi,-0x8(%rbp)
    6dcb:	66 89 45 fc          	mov    %ax,-0x4(%rbp)
    6dcf:	83 7d f8 00          	cmpl   $0x0,-0x8(%rbp)
    6dd3:	78 2b                	js     6e00 <safe_lshift_func_uint16_t_u_s+0x42>
    6dd5:	83 7d f8 1f          	cmpl   $0x1f,-0x8(%rbp)
    6dd9:	7f 25                	jg     6e00 <safe_lshift_func_uint16_t_u_s+0x42>
    6ddb:	0f b7 55 fc          	movzwl -0x4(%rbp),%edx
    6ddf:	8b 45 f8             	mov    -0x8(%rbp),%eax
    6de2:	be ff ff 00 00       	mov    $0xffff,%esi
    6de7:	89 c1                	mov    %eax,%ecx
    6de9:	d3 fe                	sar    %cl,%esi
    6deb:	89 f0                	mov    %esi,%eax
    6ded:	39 c2                	cmp    %eax,%edx
    6def:	7f 0f                	jg     6e00 <safe_lshift_func_uint16_t_u_s+0x42>
    6df1:	0f b7 55 fc          	movzwl -0x4(%rbp),%edx
    6df5:	8b 45 f8             	mov    -0x8(%rbp),%eax
    6df8:	89 c1                	mov    %eax,%ecx
    6dfa:	d3 e2                	shl    %cl,%edx
    6dfc:	89 d0                	mov    %edx,%eax
    6dfe:	eb 04                	jmp    6e04 <safe_lshift_func_uint16_t_u_s+0x46>
    6e00:	0f b7 45 fc          	movzwl -0x4(%rbp),%eax
    6e04:	5d                   	pop    %rbp
    6e05:	c3                   	retq   

0000000000006e06 <safe_lshift_func_uint16_t_u_u>:
    6e06:	f3 0f 1e fa          	endbr64 
    6e0a:	55                   	push   %rbp
    6e0b:	48 89 e5             	mov    %rsp,%rbp
    6e0e:	89 f8                	mov    %edi,%eax
    6e10:	89 75 f8             	mov    %esi,-0x8(%rbp)
    6e13:	66 89 45 fc          	mov    %ax,-0x4(%rbp)
    6e17:	83 7d f8 1f          	cmpl   $0x1f,-0x8(%rbp)
    6e1b:	77 25                	ja     6e42 <safe_lshift_func_uint16_t_u_u+0x3c>
    6e1d:	0f b7 55 fc          	movzwl -0x4(%rbp),%edx
    6e21:	8b 45 f8             	mov    -0x8(%rbp),%eax
    6e24:	be ff ff 00 00       	mov    $0xffff,%esi
    6e29:	89 c1                	mov    %eax,%ecx
    6e2b:	d3 fe                	sar    %cl,%esi
    6e2d:	89 f0                	mov    %esi,%eax
    6e2f:	39 c2                	cmp    %eax,%edx
    6e31:	7f 0f                	jg     6e42 <safe_lshift_func_uint16_t_u_u+0x3c>
    6e33:	0f b7 55 fc          	movzwl -0x4(%rbp),%edx
    6e37:	8b 45 f8             	mov    -0x8(%rbp),%eax
    6e3a:	89 c1                	mov    %eax,%ecx
    6e3c:	d3 e2                	shl    %cl,%edx
    6e3e:	89 d0                	mov    %edx,%eax
    6e40:	eb 04                	jmp    6e46 <safe_lshift_func_uint16_t_u_u+0x40>
    6e42:	0f b7 45 fc          	movzwl -0x4(%rbp),%eax
    6e46:	5d                   	pop    %rbp
    6e47:	c3                   	retq   

0000000000006e48 <safe_rshift_func_uint16_t_u_s>:
    6e48:	f3 0f 1e fa          	endbr64 
    6e4c:	55                   	push   %rbp
    6e4d:	48 89 e5             	mov    %rsp,%rbp
    6e50:	89 f8                	mov    %edi,%eax
    6e52:	89 75 f8             	mov    %esi,-0x8(%rbp)
    6e55:	66 89 45 fc          	mov    %ax,-0x4(%rbp)
    6e59:	83 7d f8 00          	cmpl   $0x0,-0x8(%rbp)
    6e5d:	78 15                	js     6e74 <safe_rshift_func_uint16_t_u_s+0x2c>
    6e5f:	83 7d f8 1f          	cmpl   $0x1f,-0x8(%rbp)
    6e63:	7f 0f                	jg     6e74 <safe_rshift_func_uint16_t_u_s+0x2c>
    6e65:	0f b7 55 fc          	movzwl -0x4(%rbp),%edx
    6e69:	8b 45 f8             	mov    -0x8(%rbp),%eax
    6e6c:	89 c1                	mov    %eax,%ecx
    6e6e:	d3 fa                	sar    %cl,%edx
    6e70:	89 d0                	mov    %edx,%eax
    6e72:	eb 04                	jmp    6e78 <safe_rshift_func_uint16_t_u_s+0x30>
    6e74:	0f b7 45 fc          	movzwl -0x4(%rbp),%eax
    6e78:	5d                   	pop    %rbp
    6e79:	c3                   	retq   

0000000000006e7a <safe_rshift_func_uint16_t_u_u>:
    6e7a:	f3 0f 1e fa          	endbr64 
    6e7e:	55                   	push   %rbp
    6e7f:	48 89 e5             	mov    %rsp,%rbp
    6e82:	89 f8                	mov    %edi,%eax
    6e84:	89 75 f8             	mov    %esi,-0x8(%rbp)
    6e87:	66 89 45 fc          	mov    %ax,-0x4(%rbp)
    6e8b:	83 7d f8 1f          	cmpl   $0x1f,-0x8(%rbp)
    6e8f:	77 0f                	ja     6ea0 <safe_rshift_func_uint16_t_u_u+0x26>
    6e91:	0f b7 55 fc          	movzwl -0x4(%rbp),%edx
    6e95:	8b 45 f8             	mov    -0x8(%rbp),%eax
    6e98:	89 c1                	mov    %eax,%ecx
    6e9a:	d3 fa                	sar    %cl,%edx
    6e9c:	89 d0                	mov    %edx,%eax
    6e9e:	eb 04                	jmp    6ea4 <safe_rshift_func_uint16_t_u_u+0x2a>
    6ea0:	0f b7 45 fc          	movzwl -0x4(%rbp),%eax
    6ea4:	5d                   	pop    %rbp
    6ea5:	c3                   	retq   

0000000000006ea6 <safe_unary_minus_func_uint32_t_u>:
    6ea6:	f3 0f 1e fa          	endbr64 
    6eaa:	55                   	push   %rbp
    6eab:	48 89 e5             	mov    %rsp,%rbp
    6eae:	89 7d fc             	mov    %edi,-0x4(%rbp)
    6eb1:	8b 45 fc             	mov    -0x4(%rbp),%eax
    6eb4:	f7 d8                	neg    %eax
    6eb6:	5d                   	pop    %rbp
    6eb7:	c3                   	retq   

0000000000006eb8 <safe_add_func_uint32_t_u_u>:
    6eb8:	f3 0f 1e fa          	endbr64 
    6ebc:	55                   	push   %rbp
    6ebd:	48 89 e5             	mov    %rsp,%rbp
    6ec0:	89 7d fc             	mov    %edi,-0x4(%rbp)
    6ec3:	89 75 f8             	mov    %esi,-0x8(%rbp)
    6ec6:	8b 55 fc             	mov    -0x4(%rbp),%edx
    6ec9:	8b 45 f8             	mov    -0x8(%rbp),%eax
    6ecc:	01 d0                	add    %edx,%eax
    6ece:	5d                   	pop    %rbp
    6ecf:	c3                   	retq   

0000000000006ed0 <safe_sub_func_uint32_t_u_u>:
    6ed0:	f3 0f 1e fa          	endbr64 
    6ed4:	55                   	push   %rbp
    6ed5:	48 89 e5             	mov    %rsp,%rbp
    6ed8:	89 7d fc             	mov    %edi,-0x4(%rbp)
    6edb:	89 75 f8             	mov    %esi,-0x8(%rbp)
    6ede:	8b 45 fc             	mov    -0x4(%rbp),%eax
    6ee1:	2b 45 f8             	sub    -0x8(%rbp),%eax
    6ee4:	5d                   	pop    %rbp
    6ee5:	c3                   	retq   

0000000000006ee6 <safe_mul_func_uint32_t_u_u>:
    6ee6:	f3 0f 1e fa          	endbr64 
    6eea:	55                   	push   %rbp
    6eeb:	48 89 e5             	mov    %rsp,%rbp
    6eee:	89 7d fc             	mov    %edi,-0x4(%rbp)
    6ef1:	89 75 f8             	mov    %esi,-0x8(%rbp)
    6ef4:	8b 45 fc             	mov    -0x4(%rbp),%eax
    6ef7:	0f af 45 f8          	imul   -0x8(%rbp),%eax
    6efb:	5d                   	pop    %rbp
    6efc:	c3                   	retq   

0000000000006efd <safe_mod_func_uint32_t_u_u>:
    6efd:	f3 0f 1e fa          	endbr64 
    6f01:	55                   	push   %rbp
    6f02:	48 89 e5             	mov    %rsp,%rbp
    6f05:	89 7d fc             	mov    %edi,-0x4(%rbp)
    6f08:	89 75 f8             	mov    %esi,-0x8(%rbp)
    6f0b:	83 7d f8 00          	cmpl   $0x0,-0x8(%rbp)
    6f0f:	74 0f                	je     6f20 <safe_mod_func_uint32_t_u_u+0x23>
    6f11:	8b 45 fc             	mov    -0x4(%rbp),%eax
    6f14:	ba 00 00 00 00       	mov    $0x0,%edx
    6f19:	f7 75 f8             	divl   -0x8(%rbp)
    6f1c:	89 d0                	mov    %edx,%eax
    6f1e:	eb 03                	jmp    6f23 <safe_mod_func_uint32_t_u_u+0x26>
    6f20:	8b 45 fc             	mov    -0x4(%rbp),%eax
    6f23:	5d                   	pop    %rbp
    6f24:	c3                   	retq   

0000000000006f25 <safe_div_func_uint32_t_u_u>:
    6f25:	f3 0f 1e fa          	endbr64 
    6f29:	55                   	push   %rbp
    6f2a:	48 89 e5             	mov    %rsp,%rbp
    6f2d:	89 7d fc             	mov    %edi,-0x4(%rbp)
    6f30:	89 75 f8             	mov    %esi,-0x8(%rbp)
    6f33:	83 7d f8 00          	cmpl   $0x0,-0x8(%rbp)
    6f37:	74 0d                	je     6f46 <safe_div_func_uint32_t_u_u+0x21>
    6f39:	8b 45 fc             	mov    -0x4(%rbp),%eax
    6f3c:	ba 00 00 00 00       	mov    $0x0,%edx
    6f41:	f7 75 f8             	divl   -0x8(%rbp)
    6f44:	eb 03                	jmp    6f49 <safe_div_func_uint32_t_u_u+0x24>
    6f46:	8b 45 fc             	mov    -0x4(%rbp),%eax
    6f49:	5d                   	pop    %rbp
    6f4a:	c3                   	retq   

0000000000006f4b <safe_lshift_func_uint32_t_u_s>:
    6f4b:	f3 0f 1e fa          	endbr64 
    6f4f:	55                   	push   %rbp
    6f50:	48 89 e5             	mov    %rsp,%rbp
    6f53:	89 7d fc             	mov    %edi,-0x4(%rbp)
    6f56:	89 75 f8             	mov    %esi,-0x8(%rbp)
    6f59:	83 7d f8 00          	cmpl   $0x0,-0x8(%rbp)
    6f5d:	78 27                	js     6f86 <safe_lshift_func_uint32_t_u_s+0x3b>
    6f5f:	83 7d f8 1f          	cmpl   $0x1f,-0x8(%rbp)
    6f63:	7f 21                	jg     6f86 <safe_lshift_func_uint32_t_u_s+0x3b>
    6f65:	8b 45 f8             	mov    -0x8(%rbp),%eax
    6f68:	ba ff ff ff ff       	mov    $0xffffffff,%edx
    6f6d:	89 c1                	mov    %eax,%ecx
    6f6f:	d3 ea                	shr    %cl,%edx
    6f71:	89 d0                	mov    %edx,%eax
    6f73:	39 45 fc             	cmp    %eax,-0x4(%rbp)
    6f76:	77 0e                	ja     6f86 <safe_lshift_func_uint32_t_u_s+0x3b>
    6f78:	8b 45 f8             	mov    -0x8(%rbp),%eax
    6f7b:	8b 55 fc             	mov    -0x4(%rbp),%edx
    6f7e:	89 c1                	mov    %eax,%ecx
    6f80:	d3 e2                	shl    %cl,%edx
    6f82:	89 d0                	mov    %edx,%eax
    6f84:	eb 03                	jmp    6f89 <safe_lshift_func_uint32_t_u_s+0x3e>
    6f86:	8b 45 fc             	mov    -0x4(%rbp),%eax
    6f89:	5d                   	pop    %rbp
    6f8a:	c3                   	retq   

0000000000006f8b <safe_lshift_func_uint32_t_u_u>:
    6f8b:	f3 0f 1e fa          	endbr64 
    6f8f:	55                   	push   %rbp
    6f90:	48 89 e5             	mov    %rsp,%rbp
    6f93:	89 7d fc             	mov    %edi,-0x4(%rbp)
    6f96:	89 75 f8             	mov    %esi,-0x8(%rbp)
    6f99:	83 7d f8 1f          	cmpl   $0x1f,-0x8(%rbp)
    6f9d:	77 21                	ja     6fc0 <safe_lshift_func_uint32_t_u_u+0x35>
    6f9f:	8b 45 f8             	mov    -0x8(%rbp),%eax
    6fa2:	ba ff ff ff ff       	mov    $0xffffffff,%edx
    6fa7:	89 c1                	mov    %eax,%ecx
    6fa9:	d3 ea                	shr    %cl,%edx
    6fab:	89 d0                	mov    %edx,%eax
    6fad:	39 45 fc             	cmp    %eax,-0x4(%rbp)
    6fb0:	77 0e                	ja     6fc0 <safe_lshift_func_uint32_t_u_u+0x35>
    6fb2:	8b 45 f8             	mov    -0x8(%rbp),%eax
    6fb5:	8b 55 fc             	mov    -0x4(%rbp),%edx
    6fb8:	89 c1                	mov    %eax,%ecx
    6fba:	d3 e2                	shl    %cl,%edx
    6fbc:	89 d0                	mov    %edx,%eax
    6fbe:	eb 03                	jmp    6fc3 <safe_lshift_func_uint32_t_u_u+0x38>
    6fc0:	8b 45 fc             	mov    -0x4(%rbp),%eax
    6fc3:	5d                   	pop    %rbp
    6fc4:	c3                   	retq   

0000000000006fc5 <safe_rshift_func_uint32_t_u_s>:
    6fc5:	f3 0f 1e fa          	endbr64 
    6fc9:	55                   	push   %rbp
    6fca:	48 89 e5             	mov    %rsp,%rbp
    6fcd:	89 7d fc             	mov    %edi,-0x4(%rbp)
    6fd0:	89 75 f8             	mov    %esi,-0x8(%rbp)
    6fd3:	83 7d f8 00          	cmpl   $0x0,-0x8(%rbp)
    6fd7:	78 14                	js     6fed <safe_rshift_func_uint32_t_u_s+0x28>
    6fd9:	83 7d f8 1f          	cmpl   $0x1f,-0x8(%rbp)
    6fdd:	7f 0e                	jg     6fed <safe_rshift_func_uint32_t_u_s+0x28>
    6fdf:	8b 45 f8             	mov    -0x8(%rbp),%eax
    6fe2:	8b 55 fc             	mov    -0x4(%rbp),%edx
    6fe5:	89 c1                	mov    %eax,%ecx
    6fe7:	d3 ea                	shr    %cl,%edx
    6fe9:	89 d0                	mov    %edx,%eax
    6feb:	eb 03                	jmp    6ff0 <safe_rshift_func_uint32_t_u_s+0x2b>
    6fed:	8b 45 fc             	mov    -0x4(%rbp),%eax
    6ff0:	5d                   	pop    %rbp
    6ff1:	c3                   	retq   

0000000000006ff2 <safe_rshift_func_uint32_t_u_u>:
    6ff2:	f3 0f 1e fa          	endbr64 
    6ff6:	55                   	push   %rbp
    6ff7:	48 89 e5             	mov    %rsp,%rbp
    6ffa:	89 7d fc             	mov    %edi,-0x4(%rbp)
    6ffd:	89 75 f8             	mov    %esi,-0x8(%rbp)
    7000:	83 7d f8 1f          	cmpl   $0x1f,-0x8(%rbp)
    7004:	77 0e                	ja     7014 <safe_rshift_func_uint32_t_u_u+0x22>
    7006:	8b 45 f8             	mov    -0x8(%rbp),%eax
    7009:	8b 55 fc             	mov    -0x4(%rbp),%edx
    700c:	89 c1                	mov    %eax,%ecx
    700e:	d3 ea                	shr    %cl,%edx
    7010:	89 d0                	mov    %edx,%eax
    7012:	eb 03                	jmp    7017 <safe_rshift_func_uint32_t_u_u+0x25>
    7014:	8b 45 fc             	mov    -0x4(%rbp),%eax
    7017:	5d                   	pop    %rbp
    7018:	c3                   	retq   

0000000000007019 <safe_unary_minus_func_uint64_t_u>:
    7019:	f3 0f 1e fa          	endbr64 
    701d:	55                   	push   %rbp
    701e:	48 89 e5             	mov    %rsp,%rbp
    7021:	48 89 7d f8          	mov    %rdi,-0x8(%rbp)
    7025:	48 8b 45 f8          	mov    -0x8(%rbp),%rax
    7029:	48 f7 d8             	neg    %rax
    702c:	5d                   	pop    %rbp
    702d:	c3                   	retq   

000000000000702e <safe_add_func_uint64_t_u_u>:
    702e:	f3 0f 1e fa          	endbr64 
    7032:	55                   	push   %rbp
    7033:	48 89 e5             	mov    %rsp,%rbp
    7036:	48 89 7d f8          	mov    %rdi,-0x8(%rbp)
    703a:	48 89 75 f0          	mov    %rsi,-0x10(%rbp)
    703e:	48 8b 55 f8          	mov    -0x8(%rbp),%rdx
    7042:	48 8b 45 f0          	mov    -0x10(%rbp),%rax
    7046:	48 01 d0             	add    %rdx,%rax
    7049:	5d                   	pop    %rbp
    704a:	c3                   	retq   

000000000000704b <safe_sub_func_uint64_t_u_u>:
    704b:	f3 0f 1e fa          	endbr64 
    704f:	55                   	push   %rbp
    7050:	48 89 e5             	mov    %rsp,%rbp
    7053:	48 89 7d f8          	mov    %rdi,-0x8(%rbp)
    7057:	48 89 75 f0          	mov    %rsi,-0x10(%rbp)
    705b:	48 8b 45 f8          	mov    -0x8(%rbp),%rax
    705f:	48 2b 45 f0          	sub    -0x10(%rbp),%rax
    7063:	5d                   	pop    %rbp
    7064:	c3                   	retq   

0000000000007065 <safe_mul_func_uint64_t_u_u>:
    7065:	f3 0f 1e fa          	endbr64 
    7069:	55                   	push   %rbp
    706a:	48 89 e5             	mov    %rsp,%rbp
    706d:	48 89 7d f8          	mov    %rdi,-0x8(%rbp)
    7071:	48 89 75 f0          	mov    %rsi,-0x10(%rbp)
    7075:	48 8b 45 f8          	mov    -0x8(%rbp),%rax
    7079:	48 0f af 45 f0       	imul   -0x10(%rbp),%rax
    707e:	5d                   	pop    %rbp
    707f:	c3                   	retq   

0000000000007080 <safe_mod_func_uint64_t_u_u>:
    7080:	f3 0f 1e fa          	endbr64 
    7084:	55                   	push   %rbp
    7085:	48 89 e5             	mov    %rsp,%rbp
    7088:	48 89 7d f8          	mov    %rdi,-0x8(%rbp)
    708c:	48 89 75 f0          	mov    %rsi,-0x10(%rbp)
    7090:	48 83 7d f0 00       	cmpq   $0x0,-0x10(%rbp)
    7095:	74 12                	je     70a9 <safe_mod_func_uint64_t_u_u+0x29>
    7097:	48 8b 45 f8          	mov    -0x8(%rbp),%rax
    709b:	ba 00 00 00 00       	mov    $0x0,%edx
    70a0:	48 f7 75 f0          	divq   -0x10(%rbp)
    70a4:	48 89 d0             	mov    %rdx,%rax
    70a7:	eb 04                	jmp    70ad <safe_mod_func_uint64_t_u_u+0x2d>
    70a9:	48 8b 45 f8          	mov    -0x8(%rbp),%rax
    70ad:	5d                   	pop    %rbp
    70ae:	c3                   	retq   

00000000000070af <safe_div_func_uint64_t_u_u>:
    70af:	f3 0f 1e fa          	endbr64 
    70b3:	55                   	push   %rbp
    70b4:	48 89 e5             	mov    %rsp,%rbp
    70b7:	48 89 7d f8          	mov    %rdi,-0x8(%rbp)
    70bb:	48 89 75 f0          	mov    %rsi,-0x10(%rbp)
    70bf:	48 83 7d f0 00       	cmpq   $0x0,-0x10(%rbp)
    70c4:	74 0f                	je     70d5 <safe_div_func_uint64_t_u_u+0x26>
    70c6:	48 8b 45 f8          	mov    -0x8(%rbp),%rax
    70ca:	ba 00 00 00 00       	mov    $0x0,%edx
    70cf:	48 f7 75 f0          	divq   -0x10(%rbp)
    70d3:	eb 04                	jmp    70d9 <safe_div_func_uint64_t_u_u+0x2a>
    70d5:	48 8b 45 f8          	mov    -0x8(%rbp),%rax
    70d9:	5d                   	pop    %rbp
    70da:	c3                   	retq   

00000000000070db <safe_lshift_func_uint64_t_u_s>:
    70db:	f3 0f 1e fa          	endbr64 
    70df:	55                   	push   %rbp
    70e0:	48 89 e5             	mov    %rsp,%rbp
    70e3:	48 89 7d f8          	mov    %rdi,-0x8(%rbp)
    70e7:	89 75 f4             	mov    %esi,-0xc(%rbp)
    70ea:	83 7d f4 00          	cmpl   $0x0,-0xc(%rbp)
    70ee:	78 2f                	js     711f <safe_lshift_func_uint64_t_u_s+0x44>
    70f0:	83 7d f4 1f          	cmpl   $0x1f,-0xc(%rbp)
    70f4:	7f 29                	jg     711f <safe_lshift_func_uint64_t_u_s+0x44>
    70f6:	8b 45 f4             	mov    -0xc(%rbp),%eax
    70f9:	48 c7 c2 ff ff ff ff 	mov    $0xffffffffffffffff,%rdx
    7100:	89 c1                	mov    %eax,%ecx
    7102:	48 d3 ea             	shr    %cl,%rdx
    7105:	48 89 d0             	mov    %rdx,%rax
    7108:	48 39 45 f8          	cmp    %rax,-0x8(%rbp)
    710c:	77 11                	ja     711f <safe_lshift_func_uint64_t_u_s+0x44>
    710e:	8b 45 f4             	mov    -0xc(%rbp),%eax
    7111:	48 8b 55 f8          	mov    -0x8(%rbp),%rdx
    7115:	89 c1                	mov    %eax,%ecx
    7117:	48 d3 e2             	shl    %cl,%rdx
    711a:	48 89 d0             	mov    %rdx,%rax
    711d:	eb 04                	jmp    7123 <safe_lshift_func_uint64_t_u_s+0x48>
    711f:	48 8b 45 f8          	mov    -0x8(%rbp),%rax
    7123:	5d                   	pop    %rbp
    7124:	c3                   	retq   

0000000000007125 <safe_lshift_func_uint64_t_u_u>:
    7125:	f3 0f 1e fa          	endbr64 
    7129:	55                   	push   %rbp
    712a:	48 89 e5             	mov    %rsp,%rbp
    712d:	48 89 7d f8          	mov    %rdi,-0x8(%rbp)
    7131:	89 75 f4             	mov    %esi,-0xc(%rbp)
    7134:	83 7d f4 1f          	cmpl   $0x1f,-0xc(%rbp)
    7138:	77 29                	ja     7163 <safe_lshift_func_uint64_t_u_u+0x3e>
    713a:	8b 45 f4             	mov    -0xc(%rbp),%eax
    713d:	48 c7 c2 ff ff ff ff 	mov    $0xffffffffffffffff,%rdx
    7144:	89 c1                	mov    %eax,%ecx
    7146:	48 d3 ea             	shr    %cl,%rdx
    7149:	48 89 d0             	mov    %rdx,%rax
    714c:	48 39 45 f8          	cmp    %rax,-0x8(%rbp)
    7150:	77 11                	ja     7163 <safe_lshift_func_uint64_t_u_u+0x3e>
    7152:	8b 45 f4             	mov    -0xc(%rbp),%eax
    7155:	48 8b 55 f8          	mov    -0x8(%rbp),%rdx
    7159:	89 c1                	mov    %eax,%ecx
    715b:	48 d3 e2             	shl    %cl,%rdx
    715e:	48 89 d0             	mov    %rdx,%rax
    7161:	eb 04                	jmp    7167 <safe_lshift_func_uint64_t_u_u+0x42>
    7163:	48 8b 45 f8          	mov    -0x8(%rbp),%rax
    7167:	5d                   	pop    %rbp
    7168:	c3                   	retq   

0000000000007169 <safe_rshift_func_uint64_t_u_s>:
    7169:	f3 0f 1e fa          	endbr64 
    716d:	55                   	push   %rbp
    716e:	48 89 e5             	mov    %rsp,%rbp
    7171:	48 89 7d f8          	mov    %rdi,-0x8(%rbp)
    7175:	89 75 f4             	mov    %esi,-0xc(%rbp)
    7178:	83 7d f4 00          	cmpl   $0x0,-0xc(%rbp)
    717c:	78 17                	js     7195 <safe_rshift_func_uint64_t_u_s+0x2c>
    717e:	83 7d f4 1f          	cmpl   $0x1f,-0xc(%rbp)
    7182:	7f 11                	jg     7195 <safe_rshift_func_uint64_t_u_s+0x2c>
    7184:	8b 45 f4             	mov    -0xc(%rbp),%eax
    7187:	48 8b 55 f8          	mov    -0x8(%rbp),%rdx
    718b:	89 c1                	mov    %eax,%ecx
    718d:	48 d3 ea             	shr    %cl,%rdx
    7190:	48 89 d0             	mov    %rdx,%rax
    7193:	eb 04                	jmp    7199 <safe_rshift_func_uint64_t_u_s+0x30>
    7195:	48 8b 45 f8          	mov    -0x8(%rbp),%rax
    7199:	5d                   	pop    %rbp
    719a:	c3                   	retq   

000000000000719b <safe_rshift_func_uint64_t_u_u>:
    719b:	f3 0f 1e fa          	endbr64 
    719f:	55                   	push   %rbp
    71a0:	48 89 e5             	mov    %rsp,%rbp
    71a3:	48 89 7d f8          	mov    %rdi,-0x8(%rbp)
    71a7:	89 75 f4             	mov    %esi,-0xc(%rbp)
    71aa:	83 7d f4 1f          	cmpl   $0x1f,-0xc(%rbp)
    71ae:	77 11                	ja     71c1 <safe_rshift_func_uint64_t_u_u+0x26>
    71b0:	8b 45 f4             	mov    -0xc(%rbp),%eax
    71b3:	48 8b 55 f8          	mov    -0x8(%rbp),%rdx
    71b7:	89 c1                	mov    %eax,%ecx
    71b9:	48 d3 ea             	shr    %cl,%rdx
    71bc:	48 89 d0             	mov    %rdx,%rax
    71bf:	eb 04                	jmp    71c5 <safe_rshift_func_uint64_t_u_u+0x2a>
    71c1:	48 8b 45 f8          	mov    -0x8(%rbp),%rax
    71c5:	5d                   	pop    %rbp
    71c6:	c3                   	retq   

00000000000071c7 <safe_add_func_float_f_f>:
    71c7:	f3 0f 1e fa          	endbr64 
    71cb:	55                   	push   %rbp
    71cc:	48 89 e5             	mov    %rsp,%rbp
    71cf:	f3 0f 11 45 fc       	movss  %xmm0,-0x4(%rbp)
    71d4:	f3 0f 11 4d f8       	movss  %xmm1,-0x8(%rbp)
    71d9:	f3 0f 10 4d fc       	movss  -0x4(%rbp),%xmm1
    71de:	f3 0f 10 05 d2 fe 00 	movss  0xfed2(%rip),%xmm0        # 170b8 <l_761.4731+0x798>
    71e5:	00 
    71e6:	f3 0f 59 c8          	mulss  %xmm0,%xmm1
    71ea:	f3 0f 10 55 f8       	movss  -0x8(%rbp),%xmm2
    71ef:	f3 0f 10 05 c1 fe 00 	movss  0xfec1(%rip),%xmm0        # 170b8 <l_761.4731+0x798>
    71f6:	00 
    71f7:	f3 0f 59 c2          	mulss  %xmm2,%xmm0
    71fb:	f3 0f 58 c1          	addss  %xmm1,%xmm0
    71ff:	f3 0f 10 0d b9 fe 00 	movss  0xfeb9(%rip),%xmm1        # 170c0 <l_761.4731+0x7a0>
    7206:	00 
    7207:	0f 54 c1             	andps  %xmm1,%xmm0
    720a:	0f 2f 05 bf fe 00 00 	comiss 0xfebf(%rip),%xmm0        # 170d0 <l_761.4731+0x7b0>
    7211:	76 07                	jbe    721a <safe_add_func_float_f_f+0x53>
    7213:	f3 0f 10 45 fc       	movss  -0x4(%rbp),%xmm0
    7218:	eb 0a                	jmp    7224 <safe_add_func_float_f_f+0x5d>
    721a:	f3 0f 10 45 fc       	movss  -0x4(%rbp),%xmm0
    721f:	f3 0f 58 45 f8       	addss  -0x8(%rbp),%xmm0
    7224:	5d                   	pop    %rbp
    7225:	c3                   	retq   

0000000000007226 <safe_sub_func_float_f_f>:
    7226:	f3 0f 1e fa          	endbr64 
    722a:	55                   	push   %rbp
    722b:	48 89 e5             	mov    %rsp,%rbp
    722e:	f3 0f 11 45 fc       	movss  %xmm0,-0x4(%rbp)
    7233:	f3 0f 11 4d f8       	movss  %xmm1,-0x8(%rbp)
    7238:	f3 0f 10 4d fc       	movss  -0x4(%rbp),%xmm1
    723d:	f3 0f 10 05 73 fe 00 	movss  0xfe73(%rip),%xmm0        # 170b8 <l_761.4731+0x798>
    7244:	00 
    7245:	f3 0f 59 c1          	mulss  %xmm1,%xmm0
    7249:	f3 0f 10 55 f8       	movss  -0x8(%rbp),%xmm2
    724e:	f3 0f 10 0d 62 fe 00 	movss  0xfe62(%rip),%xmm1        # 170b8 <l_761.4731+0x798>
    7255:	00 
    7256:	f3 0f 59 ca          	mulss  %xmm2,%xmm1
    725a:	f3 0f 5c c1          	subss  %xmm1,%xmm0
    725e:	f3 0f 10 0d 5a fe 00 	movss  0xfe5a(%rip),%xmm1        # 170c0 <l_761.4731+0x7a0>
    7265:	00 
    7266:	0f 54 c1             	andps  %xmm1,%xmm0
    7269:	0f 2f 05 60 fe 00 00 	comiss 0xfe60(%rip),%xmm0        # 170d0 <l_761.4731+0x7b0>
    7270:	76 07                	jbe    7279 <safe_sub_func_float_f_f+0x53>
    7272:	f3 0f 10 45 fc       	movss  -0x4(%rbp),%xmm0
    7277:	eb 0a                	jmp    7283 <safe_sub_func_float_f_f+0x5d>
    7279:	f3 0f 10 45 fc       	movss  -0x4(%rbp),%xmm0
    727e:	f3 0f 5c 45 f8       	subss  -0x8(%rbp),%xmm0
    7283:	5d                   	pop    %rbp
    7284:	c3                   	retq   

0000000000007285 <safe_mul_func_float_f_f>:
    7285:	f3 0f 1e fa          	endbr64 
    7289:	55                   	push   %rbp
    728a:	48 89 e5             	mov    %rsp,%rbp
    728d:	f3 0f 11 45 fc       	movss  %xmm0,-0x4(%rbp)
    7292:	f3 0f 11 4d f8       	movss  %xmm1,-0x8(%rbp)
    7297:	f3 0f 10 4d fc       	movss  -0x4(%rbp),%xmm1
    729c:	f3 0f 10 05 30 fe 00 	movss  0xfe30(%rip),%xmm0        # 170d4 <l_761.4731+0x7b4>
    72a3:	00 
    72a4:	f3 0f 59 c8          	mulss  %xmm0,%xmm1
    72a8:	f3 0f 10 55 f8       	movss  -0x8(%rbp),%xmm2
    72ad:	f3 0f 10 05 23 fe 00 	movss  0xfe23(%rip),%xmm0        # 170d8 <l_761.4731+0x7b8>
    72b4:	00 
    72b5:	f3 0f 59 c2          	mulss  %xmm2,%xmm0
    72b9:	f3 0f 59 c1          	mulss  %xmm1,%xmm0
    72bd:	f3 0f 10 0d fb fd 00 	movss  0xfdfb(%rip),%xmm1        # 170c0 <l_761.4731+0x7a0>
    72c4:	00 
    72c5:	0f 54 c1             	andps  %xmm1,%xmm0
    72c8:	0f 2f 05 0d fe 00 00 	comiss 0xfe0d(%rip),%xmm0        # 170dc <l_761.4731+0x7bc>
    72cf:	76 07                	jbe    72d8 <safe_mul_func_float_f_f+0x53>
    72d1:	f3 0f 10 45 fc       	movss  -0x4(%rbp),%xmm0
    72d6:	eb 0a                	jmp    72e2 <safe_mul_func_float_f_f+0x5d>
    72d8:	f3 0f 10 45 fc       	movss  -0x4(%rbp),%xmm0
    72dd:	f3 0f 59 45 f8       	mulss  -0x8(%rbp),%xmm0
    72e2:	5d                   	pop    %rbp
    72e3:	c3                   	retq   

00000000000072e4 <safe_div_func_float_f_f>:
    72e4:	f3 0f 1e fa          	endbr64 
    72e8:	55                   	push   %rbp
    72e9:	48 89 e5             	mov    %rsp,%rbp
    72ec:	f3 0f 11 45 fc       	movss  %xmm0,-0x4(%rbp)
    72f1:	f3 0f 11 4d f8       	movss  %xmm1,-0x8(%rbp)
    72f6:	f3 0f 10 45 f8       	movss  -0x8(%rbp),%xmm0
    72fb:	f3 0f 10 0d bd fd 00 	movss  0xfdbd(%rip),%xmm1        # 170c0 <l_761.4731+0x7a0>
    7302:	00 
    7303:	0f 54 c8             	andps  %xmm0,%xmm1
    7306:	f3 0f 10 05 d2 fd 00 	movss  0xfdd2(%rip),%xmm0        # 170e0 <l_761.4731+0x7c0>
    730d:	00 
    730e:	0f 2f c1             	comiss %xmm1,%xmm0
    7311:	0f 97 c0             	seta   %al
    7314:	83 f0 01             	xor    $0x1,%eax
    7317:	84 c0                	test   %al,%al
    7319:	75 56                	jne    7371 <safe_div_func_float_f_f+0x8d>
    731b:	66 0f ef c0          	pxor   %xmm0,%xmm0
    731f:	0f 2e 45 f8          	ucomiss -0x8(%rbp),%xmm0
    7323:	7a 0a                	jp     732f <safe_div_func_float_f_f+0x4b>
    7325:	66 0f ef c0          	pxor   %xmm0,%xmm0
    7329:	0f 2e 45 f8          	ucomiss -0x8(%rbp),%xmm0
    732d:	74 4e                	je     737d <safe_div_func_float_f_f+0x99>
    732f:	f3 0f 10 4d fc       	movss  -0x4(%rbp),%xmm1
    7334:	f3 0f 10 05 a8 fd 00 	movss  0xfda8(%rip),%xmm0        # 170e4 <l_761.4731+0x7c4>
    733b:	00 
    733c:	f3 0f 59 c1          	mulss  %xmm1,%xmm0
    7340:	f3 0f 10 55 f8       	movss  -0x8(%rbp),%xmm2
    7345:	f3 0f 10 0d 9b fd 00 	movss  0xfd9b(%rip),%xmm1        # 170e8 <l_761.4731+0x7c8>
    734c:	00 
    734d:	f3 0f 59 ca          	mulss  %xmm2,%xmm1
    7351:	f3 0f 5e c1          	divss  %xmm1,%xmm0
    7355:	f3 0f 10 0d 63 fd 00 	movss  0xfd63(%rip),%xmm1        # 170c0 <l_761.4731+0x7a0>
    735c:	00 
    735d:	0f 54 c1             	andps  %xmm1,%xmm0
    7360:	0f 2f 05 85 fd 00 00 	comiss 0xfd85(%rip),%xmm0        # 170ec <l_761.4731+0x7cc>
    7367:	0f 97 c0             	seta   %al
    736a:	83 f0 01             	xor    $0x1,%eax
    736d:	84 c0                	test   %al,%al
    736f:	74 0c                	je     737d <safe_div_func_float_f_f+0x99>
    7371:	f3 0f 10 45 fc       	movss  -0x4(%rbp),%xmm0
    7376:	f3 0f 5e 45 f8       	divss  -0x8(%rbp),%xmm0
    737b:	eb 05                	jmp    7382 <safe_div_func_float_f_f+0x9e>
    737d:	f3 0f 10 45 fc       	movss  -0x4(%rbp),%xmm0
    7382:	5d                   	pop    %rbp
    7383:	c3                   	retq   

0000000000007384 <safe_add_func_double_f_f>:
    7384:	f3 0f 1e fa          	endbr64 
    7388:	55                   	push   %rbp
    7389:	48 89 e5             	mov    %rsp,%rbp
    738c:	f2 0f 11 45 f8       	movsd  %xmm0,-0x8(%rbp)
    7391:	f2 0f 11 4d f0       	movsd  %xmm1,-0x10(%rbp)
    7396:	f2 0f 10 4d f8       	movsd  -0x8(%rbp),%xmm1
    739b:	f2 0f 10 05 4d fd 00 	movsd  0xfd4d(%rip),%xmm0        # 170f0 <l_761.4731+0x7d0>
    73a2:	00 
    73a3:	f2 0f 59 c8          	mulsd  %xmm0,%xmm1
    73a7:	f2 0f 10 55 f0       	movsd  -0x10(%rbp),%xmm2
    73ac:	f2 0f 10 05 3c fd 00 	movsd  0xfd3c(%rip),%xmm0        # 170f0 <l_761.4731+0x7d0>
    73b3:	00 
    73b4:	f2 0f 59 c2          	mulsd  %xmm2,%xmm0
    73b8:	f2 0f 58 c1          	addsd  %xmm1,%xmm0
    73bc:	f3 0f 7e 0d 3c fd 00 	movq   0xfd3c(%rip),%xmm1        # 17100 <l_761.4731+0x7e0>
    73c3:	00 
    73c4:	66 0f 54 c1          	andpd  %xmm1,%xmm0
    73c8:	66 0f 2f 05 40 fd 00 	comisd 0xfd40(%rip),%xmm0        # 17110 <l_761.4731+0x7f0>
    73cf:	00 
    73d0:	76 07                	jbe    73d9 <safe_add_func_double_f_f+0x55>
    73d2:	f2 0f 10 45 f8       	movsd  -0x8(%rbp),%xmm0
    73d7:	eb 0a                	jmp    73e3 <safe_add_func_double_f_f+0x5f>
    73d9:	f2 0f 10 45 f8       	movsd  -0x8(%rbp),%xmm0
    73de:	f2 0f 58 45 f0       	addsd  -0x10(%rbp),%xmm0
    73e3:	5d                   	pop    %rbp
    73e4:	c3                   	retq   

00000000000073e5 <safe_sub_func_double_f_f>:
    73e5:	f3 0f 1e fa          	endbr64 
    73e9:	55                   	push   %rbp
    73ea:	48 89 e5             	mov    %rsp,%rbp
    73ed:	f2 0f 11 45 f8       	movsd  %xmm0,-0x8(%rbp)
    73f2:	f2 0f 11 4d f0       	movsd  %xmm1,-0x10(%rbp)
    73f7:	f2 0f 10 4d f8       	movsd  -0x8(%rbp),%xmm1
    73fc:	f2 0f 10 05 ec fc 00 	movsd  0xfcec(%rip),%xmm0        # 170f0 <l_761.4731+0x7d0>
    7403:	00 
    7404:	f2 0f 59 c1          	mulsd  %xmm1,%xmm0
    7408:	f2 0f 10 55 f0       	movsd  -0x10(%rbp),%xmm2
    740d:	f2 0f 10 0d db fc 00 	movsd  0xfcdb(%rip),%xmm1        # 170f0 <l_761.4731+0x7d0>
    7414:	00 
    7415:	f2 0f 59 ca          	mulsd  %xmm2,%xmm1
    7419:	f2 0f 5c c1          	subsd  %xmm1,%xmm0
    741d:	f3 0f 7e 0d db fc 00 	movq   0xfcdb(%rip),%xmm1        # 17100 <l_761.4731+0x7e0>
    7424:	00 
    7425:	66 0f 54 c1          	andpd  %xmm1,%xmm0
    7429:	66 0f 2f 05 df fc 00 	comisd 0xfcdf(%rip),%xmm0        # 17110 <l_761.4731+0x7f0>
    7430:	00 
    7431:	76 07                	jbe    743a <safe_sub_func_double_f_f+0x55>
    7433:	f2 0f 10 45 f8       	movsd  -0x8(%rbp),%xmm0
    7438:	eb 0a                	jmp    7444 <safe_sub_func_double_f_f+0x5f>
    743a:	f2 0f 10 45 f8       	movsd  -0x8(%rbp),%xmm0
    743f:	f2 0f 5c 45 f0       	subsd  -0x10(%rbp),%xmm0
    7444:	5d                   	pop    %rbp
    7445:	c3                   	retq   

0000000000007446 <safe_mul_func_double_f_f>:
    7446:	f3 0f 1e fa          	endbr64 
    744a:	55                   	push   %rbp
    744b:	48 89 e5             	mov    %rsp,%rbp
    744e:	f2 0f 11 45 f8       	movsd  %xmm0,-0x8(%rbp)
    7453:	f2 0f 11 4d f0       	movsd  %xmm1,-0x10(%rbp)
    7458:	f2 0f 10 4d f8       	movsd  -0x8(%rbp),%xmm1
    745d:	f2 0f 10 05 b3 fc 00 	movsd  0xfcb3(%rip),%xmm0        # 17118 <l_761.4731+0x7f8>
    7464:	00 
    7465:	f2 0f 59 c8          	mulsd  %xmm0,%xmm1
    7469:	f2 0f 10 55 f0       	movsd  -0x10(%rbp),%xmm2
    746e:	f2 0f 10 05 aa fc 00 	movsd  0xfcaa(%rip),%xmm0        # 17120 <l_761.4731+0x800>
    7475:	00 
    7476:	f2 0f 59 c2          	mulsd  %xmm2,%xmm0
    747a:	f2 0f 59 c1          	mulsd  %xmm1,%xmm0
    747e:	f3 0f 7e 0d 7a fc 00 	movq   0xfc7a(%rip),%xmm1        # 17100 <l_761.4731+0x7e0>
    7485:	00 
    7486:	66 0f 54 c1          	andpd  %xmm1,%xmm0
    748a:	66 0f 2f 05 96 fc 00 	comisd 0xfc96(%rip),%xmm0        # 17128 <l_761.4731+0x808>
    7491:	00 
    7492:	76 07                	jbe    749b <safe_mul_func_double_f_f+0x55>
    7494:	f2 0f 10 45 f8       	movsd  -0x8(%rbp),%xmm0
    7499:	eb 0a                	jmp    74a5 <safe_mul_func_double_f_f+0x5f>
    749b:	f2 0f 10 45 f8       	movsd  -0x8(%rbp),%xmm0
    74a0:	f2 0f 59 45 f0       	mulsd  -0x10(%rbp),%xmm0
    74a5:	5d                   	pop    %rbp
    74a6:	c3                   	retq   

00000000000074a7 <safe_div_func_double_f_f>:
    74a7:	f3 0f 1e fa          	endbr64 
    74ab:	55                   	push   %rbp
    74ac:	48 89 e5             	mov    %rsp,%rbp
    74af:	f2 0f 11 45 f8       	movsd  %xmm0,-0x8(%rbp)
    74b4:	f2 0f 11 4d f0       	movsd  %xmm1,-0x10(%rbp)
    74b9:	f2 0f 10 45 f0       	movsd  -0x10(%rbp),%xmm0
    74be:	f3 0f 7e 0d 3a fc 00 	movq   0xfc3a(%rip),%xmm1        # 17100 <l_761.4731+0x7e0>
    74c5:	00 
    74c6:	66 0f 54 c8          	andpd  %xmm0,%xmm1
    74ca:	f2 0f 10 05 5e fc 00 	movsd  0xfc5e(%rip),%xmm0        # 17130 <l_761.4731+0x810>
    74d1:	00 
    74d2:	66 0f 2f c1          	comisd %xmm1,%xmm0
    74d6:	0f 97 c0             	seta   %al
    74d9:	83 f0 01             	xor    $0x1,%eax
    74dc:	84 c0                	test   %al,%al
    74de:	75 5a                	jne    753a <safe_div_func_double_f_f+0x93>
    74e0:	66 0f ef c0          	pxor   %xmm0,%xmm0
    74e4:	66 0f 2e 45 f0       	ucomisd -0x10(%rbp),%xmm0
    74e9:	7a 0b                	jp     74f6 <safe_div_func_double_f_f+0x4f>
    74eb:	66 0f ef c0          	pxor   %xmm0,%xmm0
    74ef:	66 0f 2e 45 f0       	ucomisd -0x10(%rbp),%xmm0
    74f4:	74 50                	je     7546 <safe_div_func_double_f_f+0x9f>
    74f6:	f2 0f 10 4d f8       	movsd  -0x8(%rbp),%xmm1
    74fb:	f2 0f 10 05 35 fc 00 	movsd  0xfc35(%rip),%xmm0        # 17138 <l_761.4731+0x818>
    7502:	00 
    7503:	f2 0f 59 c1          	mulsd  %xmm1,%xmm0
    7507:	f2 0f 10 55 f0       	movsd  -0x10(%rbp),%xmm2
    750c:	f2 0f 10 0d 2c fc 00 	movsd  0xfc2c(%rip),%xmm1        # 17140 <l_761.4731+0x820>
    7513:	00 
    7514:	f2 0f 59 ca          	mulsd  %xmm2,%xmm1
    7518:	f2 0f 5e c1          	divsd  %xmm1,%xmm0
    751c:	f3 0f 7e 0d dc fb 00 	movq   0xfbdc(%rip),%xmm1        # 17100 <l_761.4731+0x7e0>
    7523:	00 
    7524:	66 0f 54 c1          	andpd  %xmm1,%xmm0
    7528:	66 0f 2f 05 18 fc 00 	comisd 0xfc18(%rip),%xmm0        # 17148 <l_761.4731+0x828>
    752f:	00 
    7530:	0f 97 c0             	seta   %al
    7533:	83 f0 01             	xor    $0x1,%eax
    7536:	84 c0                	test   %al,%al
    7538:	74 0c                	je     7546 <safe_div_func_double_f_f+0x9f>
    753a:	f2 0f 10 45 f8       	movsd  -0x8(%rbp),%xmm0
    753f:	f2 0f 5e 45 f0       	divsd  -0x10(%rbp),%xmm0
    7544:	eb 05                	jmp    754b <safe_div_func_double_f_f+0xa4>
    7546:	f2 0f 10 45 f8       	movsd  -0x8(%rbp),%xmm0
    754b:	5d                   	pop    %rbp
    754c:	c3                   	retq   

000000000000754d <safe_convert_func_float_to_int32_t>:
    754d:	f3 0f 1e fa          	endbr64 
    7551:	55                   	push   %rbp
    7552:	48 89 e5             	mov    %rsp,%rbp
    7555:	f3 0f 11 45 fc       	movss  %xmm0,-0x4(%rbp)
    755a:	f3 0f 10 05 ee fb 00 	movss  0xfbee(%rip),%xmm0        # 17150 <l_761.4731+0x830>
    7561:	00 
    7562:	0f 2f 45 fc          	comiss -0x4(%rbp),%xmm0
    7566:	0f 93 c0             	setae  %al
    7569:	83 f0 01             	xor    $0x1,%eax
    756c:	84 c0                	test   %al,%al
    756e:	74 21                	je     7591 <safe_convert_func_float_to_int32_t+0x44>
    7570:	f3 0f 10 45 fc       	movss  -0x4(%rbp),%xmm0
    7575:	0f 2f 05 d8 fb 00 00 	comiss 0xfbd8(%rip),%xmm0        # 17154 <l_761.4731+0x834>
    757c:	0f 93 c0             	setae  %al
    757f:	83 f0 01             	xor    $0x1,%eax
    7582:	84 c0                	test   %al,%al
    7584:	74 0b                	je     7591 <safe_convert_func_float_to_int32_t+0x44>
    7586:	f3 0f 10 45 fc       	movss  -0x4(%rbp),%xmm0
    758b:	f3 0f 2c c0          	cvttss2si %xmm0,%eax
    758f:	eb 05                	jmp    7596 <safe_convert_func_float_to_int32_t+0x49>
    7591:	b8 ff ff ff 7f       	mov    $0x7fffffff,%eax
    7596:	5d                   	pop    %rbp
    7597:	c3                   	retq   

0000000000007598 <crc32_gentab>:
    7598:	f3 0f 1e fa          	endbr64 
    759c:	55                   	push   %rbp
    759d:	48 89 e5             	mov    %rsp,%rbp
    75a0:	c7 45 fc 20 83 b8 ed 	movl   $0xedb88320,-0x4(%rbp)
    75a7:	c7 45 f4 00 00 00 00 	movl   $0x0,-0xc(%rbp)
    75ae:	eb 51                	jmp    7601 <crc32_gentab+0x69>
    75b0:	8b 45 f4             	mov    -0xc(%rbp),%eax
    75b3:	89 45 f0             	mov    %eax,-0x10(%rbp)
    75b6:	c7 45 f8 08 00 00 00 	movl   $0x8,-0x8(%rbp)
    75bd:	eb 1e                	jmp    75dd <crc32_gentab+0x45>
    75bf:	8b 45 f0             	mov    -0x10(%rbp),%eax
    75c2:	83 e0 01             	and    $0x1,%eax
    75c5:	85 c0                	test   %eax,%eax
    75c7:	74 0d                	je     75d6 <crc32_gentab+0x3e>
    75c9:	8b 45 f0             	mov    -0x10(%rbp),%eax
    75cc:	d1 e8                	shr    %eax
    75ce:	33 45 fc             	xor    -0x4(%rbp),%eax
    75d1:	89 45 f0             	mov    %eax,-0x10(%rbp)
    75d4:	eb 03                	jmp    75d9 <crc32_gentab+0x41>
    75d6:	d1 6d f0             	shrl   -0x10(%rbp)
    75d9:	83 6d f8 01          	subl   $0x1,-0x8(%rbp)
    75dd:	83 7d f8 00          	cmpl   $0x0,-0x8(%rbp)
    75e1:	7f dc                	jg     75bf <crc32_gentab+0x27>
    75e3:	8b 45 f4             	mov    -0xc(%rbp),%eax
    75e6:	48 98                	cltq   
    75e8:	48 8d 0c 85 00 00 00 	lea    0x0(,%rax,4),%rcx
    75ef:	00 
    75f0:	48 8d 15 69 4d 01 00 	lea    0x14d69(%rip),%rdx        # 1c360 <crc32_tab>
    75f7:	8b 45 f0             	mov    -0x10(%rbp),%eax
    75fa:	89 04 11             	mov    %eax,(%rcx,%rdx,1)
    75fd:	83 45 f4 01          	addl   $0x1,-0xc(%rbp)
    7601:	81 7d f4 ff 00 00 00 	cmpl   $0xff,-0xc(%rbp)
    7608:	7e a6                	jle    75b0 <crc32_gentab+0x18>
    760a:	90                   	nop
    760b:	90                   	nop
    760c:	5d                   	pop    %rbp
    760d:	c3                   	retq   

000000000000760e <crc32_byte>:
    760e:	f3 0f 1e fa          	endbr64 
    7612:	55                   	push   %rbp
    7613:	48 89 e5             	mov    %rsp,%rbp
    7616:	89 f8                	mov    %edi,%eax
    7618:	88 45 fc             	mov    %al,-0x4(%rbp)
    761b:	8b 05 ff 29 01 00    	mov    0x129ff(%rip),%eax        # 1a020 <crc32_context>
    7621:	c1 e8 08             	shr    $0x8,%eax
    7624:	89 c1                	mov    %eax,%ecx
    7626:	0f b6 55 fc          	movzbl -0x4(%rbp),%edx
    762a:	8b 05 f0 29 01 00    	mov    0x129f0(%rip),%eax        # 1a020 <crc32_context>
    7630:	31 d0                	xor    %edx,%eax
    7632:	0f b6 c0             	movzbl %al,%eax
    7635:	89 c0                	mov    %eax,%eax
    7637:	48 8d 14 85 00 00 00 	lea    0x0(,%rax,4),%rdx
    763e:	00 
    763f:	48 8d 05 1a 4d 01 00 	lea    0x14d1a(%rip),%rax        # 1c360 <crc32_tab>
    7646:	8b 04 02             	mov    (%rdx,%rax,1),%eax
    7649:	31 c8                	xor    %ecx,%eax
    764b:	89 05 cf 29 01 00    	mov    %eax,0x129cf(%rip)        # 1a020 <crc32_context>
    7651:	90                   	nop
    7652:	5d                   	pop    %rbp
    7653:	c3                   	retq   

0000000000007654 <crc32_8bytes>:
    7654:	f3 0f 1e fa          	endbr64 
    7658:	55                   	push   %rbp
    7659:	48 89 e5             	mov    %rsp,%rbp
    765c:	48 83 ec 08          	sub    $0x8,%rsp
    7660:	48 89 7d f8          	mov    %rdi,-0x8(%rbp)
    7664:	48 8b 45 f8          	mov    -0x8(%rbp),%rax
    7668:	0f b6 c0             	movzbl %al,%eax
    766b:	89 c7                	mov    %eax,%edi
    766d:	e8 9c ff ff ff       	callq  760e <crc32_byte>
    7672:	48 8b 45 f8          	mov    -0x8(%rbp),%rax
    7676:	48 c1 e8 08          	shr    $0x8,%rax
    767a:	0f b6 c0             	movzbl %al,%eax
    767d:	89 c7                	mov    %eax,%edi
    767f:	e8 8a ff ff ff       	callq  760e <crc32_byte>
    7684:	48 8b 45 f8          	mov    -0x8(%rbp),%rax
    7688:	48 c1 e8 10          	shr    $0x10,%rax
    768c:	0f b6 c0             	movzbl %al,%eax
    768f:	89 c7                	mov    %eax,%edi
    7691:	e8 78 ff ff ff       	callq  760e <crc32_byte>
    7696:	48 8b 45 f8          	mov    -0x8(%rbp),%rax
    769a:	48 c1 e8 18          	shr    $0x18,%rax
    769e:	0f b6 c0             	movzbl %al,%eax
    76a1:	89 c7                	mov    %eax,%edi
    76a3:	e8 66 ff ff ff       	callq  760e <crc32_byte>
    76a8:	48 8b 45 f8          	mov    -0x8(%rbp),%rax
    76ac:	48 c1 e8 20          	shr    $0x20,%rax
    76b0:	0f b6 c0             	movzbl %al,%eax
    76b3:	89 c7                	mov    %eax,%edi
    76b5:	e8 54 ff ff ff       	callq  760e <crc32_byte>
    76ba:	48 8b 45 f8          	mov    -0x8(%rbp),%rax
    76be:	48 c1 e8 28          	shr    $0x28,%rax
    76c2:	0f b6 c0             	movzbl %al,%eax
    76c5:	89 c7                	mov    %eax,%edi
    76c7:	e8 42 ff ff ff       	callq  760e <crc32_byte>
    76cc:	48 8b 45 f8          	mov    -0x8(%rbp),%rax
    76d0:	48 c1 e8 30          	shr    $0x30,%rax
    76d4:	0f b6 c0             	movzbl %al,%eax
    76d7:	89 c7                	mov    %eax,%edi
    76d9:	e8 30 ff ff ff       	callq  760e <crc32_byte>
    76de:	48 8b 45 f8          	mov    -0x8(%rbp),%rax
    76e2:	48 c1 e8 38          	shr    $0x38,%rax
    76e6:	0f b6 c0             	movzbl %al,%eax
    76e9:	89 c7                	mov    %eax,%edi
    76eb:	e8 1e ff ff ff       	callq  760e <crc32_byte>
    76f0:	90                   	nop
    76f1:	c9                   	leaveq 
    76f2:	c3                   	retq   

00000000000076f3 <transparent_crc>:
    76f3:	f3 0f 1e fa          	endbr64 
    76f7:	55                   	push   %rbp
    76f8:	48 89 e5             	mov    %rsp,%rbp
    76fb:	48 83 ec 20          	sub    $0x20,%rsp
    76ff:	48 89 7d f8          	mov    %rdi,-0x8(%rbp)
    7703:	48 89 75 f0          	mov    %rsi,-0x10(%rbp)
    7707:	89 55 ec             	mov    %edx,-0x14(%rbp)
    770a:	48 8b 45 f8          	mov    -0x8(%rbp),%rax
    770e:	48 89 c7             	mov    %rax,%rdi
    7711:	e8 3e ff ff ff       	callq  7654 <crc32_8bytes>
    7716:	83 7d ec 00          	cmpl   $0x0,-0x14(%rbp)
    771a:	74 22                	je     773e <transparent_crc+0x4b>
    771c:	8b 05 fe 28 01 00    	mov    0x128fe(%rip),%eax        # 1a020 <crc32_context>
    7722:	f7 d0                	not    %eax
    7724:	89 c2                	mov    %eax,%edx
    7726:	48 8b 45 f0          	mov    -0x10(%rbp),%rax
    772a:	48 89 c6             	mov    %rax,%rsi
    772d:	48 8d 3d fc d8 00 00 	lea    0xd8fc(%rip),%rdi        # 15030 <_IO_stdin_used+0x30>
    7734:	b8 00 00 00 00       	mov    $0x0,%eax
    7739:	e8 42 e9 ff ff       	callq  6080 <printf@plt>
    773e:	90                   	nop
    773f:	c9                   	leaveq 
    7740:	c3                   	retq   

0000000000007741 <transparent_crc_bytes>:
    7741:	f3 0f 1e fa          	endbr64 
    7745:	55                   	push   %rbp
    7746:	48 89 e5             	mov    %rsp,%rbp
    7749:	48 83 ec 30          	sub    $0x30,%rsp
    774d:	48 89 7d e8          	mov    %rdi,-0x18(%rbp)
    7751:	89 75 e4             	mov    %esi,-0x1c(%rbp)
    7754:	48 89 55 d8          	mov    %rdx,-0x28(%rbp)
    7758:	89 4d e0             	mov    %ecx,-0x20(%rbp)
    775b:	c7 45 fc 00 00 00 00 	movl   $0x0,-0x4(%rbp)
    7762:	eb 1e                	jmp    7782 <transparent_crc_bytes+0x41>
    7764:	8b 45 fc             	mov    -0x4(%rbp),%eax
    7767:	48 63 d0             	movslq %eax,%rdx
    776a:	48 8b 45 e8          	mov    -0x18(%rbp),%rax
    776e:	48 01 d0             	add    %rdx,%rax
    7771:	0f b6 00             	movzbl (%rax),%eax
    7774:	0f b6 c0             	movzbl %al,%eax
    7777:	89 c7                	mov    %eax,%edi
    7779:	e8 90 fe ff ff       	callq  760e <crc32_byte>
    777e:	83 45 fc 01          	addl   $0x1,-0x4(%rbp)
    7782:	8b 45 fc             	mov    -0x4(%rbp),%eax
    7785:	3b 45 e4             	cmp    -0x1c(%rbp),%eax
    7788:	7c da                	jl     7764 <transparent_crc_bytes+0x23>
    778a:	83 7d e0 00          	cmpl   $0x0,-0x20(%rbp)
    778e:	74 22                	je     77b2 <transparent_crc_bytes+0x71>
    7790:	8b 05 8a 28 01 00    	mov    0x1288a(%rip),%eax        # 1a020 <crc32_context>
    7796:	f7 d0                	not    %eax
    7798:	89 c2                	mov    %eax,%edx
    779a:	48 8b 45 d8          	mov    -0x28(%rbp),%rax
    779e:	48 89 c6             	mov    %rax,%rsi
    77a1:	48 8d 3d 88 d8 00 00 	lea    0xd888(%rip),%rdi        # 15030 <_IO_stdin_used+0x30>
    77a8:	b8 00 00 00 00       	mov    $0x0,%eax
    77ad:	e8 ce e8 ff ff       	callq  6080 <printf@plt>
    77b2:	90                   	nop
    77b3:	c9                   	leaveq 
    77b4:	c3                   	retq   

00000000000077b5 <func_1>:
    77b5:	f3 0f 1e fa          	endbr64 
    77b9:	55                   	push   %rbp
    77ba:	48 89 e5             	mov    %rsp,%rbp
    77bd:	41 57                	push   %r15
    77bf:	41 56                	push   %r14
    77c1:	41 55                	push   %r13
    77c3:	41 54                	push   %r12
    77c5:	53                   	push   %rbx
    77c6:	48 81 ec e8 01 00 00 	sub    $0x1e8,%rsp
    77cd:	64 48 8b 04 25 28 00 	mov    %fs:0x28,%rax
    77d4:	00 00 
    77d6:	48 89 45 c8          	mov    %rax,-0x38(%rbp)
    77da:	31 c0                	xor    %eax,%eax
    77dc:	c6 85 1f fe ff ff f9 	movb   $0xf9,-0x1e1(%rbp)
    77e3:	48 8d 05 7e 4f 01 00 	lea    0x14f7e(%rip),%rax        # 1c768 <g_4>
    77ea:	48 89 85 30 fe ff ff 	mov    %rax,-0x1d0(%rbp)
    77f1:	48 c7 85 38 fe ff ff 	movq   $0x0,-0x1c8(%rbp)
    77f8:	00 00 00 00 
    77fc:	48 8d 05 65 4f 01 00 	lea    0x14f65(%rip),%rax        # 1c768 <g_4>
    7803:	48 89 85 40 fe ff ff 	mov    %rax,-0x1c0(%rbp)
    780a:	48 8d 85 80 fe ff ff 	lea    -0x180(%rbp),%rax
    7811:	48 8d 15 e8 2e 01 00 	lea    0x12ee8(%rip),%rdx        # 1a700 <g_2719+0xa>
    7818:	b9 28 00 00 00       	mov    $0x28,%ecx
    781d:	48 89 c7             	mov    %rax,%rdi
    7820:	48 89 d6             	mov    %rdx,%rsi
    7823:	f3 48 a5             	rep movsq %ds:(%rsi),%es:(%rdi)
    7826:	48 8d 05 77 28 01 00 	lea    0x12877(%rip),%rax        # 1a0a4 <g_21>
    782d:	48 89 85 48 fe ff ff 	mov    %rax,-0x1b8(%rbp)
    7834:	c7 85 24 fe ff ff ff 	movl   $0xffffffff,-0x1dc(%rbp)
    783b:	ff ff ff 
    783e:	c7 85 28 fe ff ff 02 	movl   $0x2adcc102,-0x1d8(%rbp)
    7845:	c1 dc 2a 
    7848:	48 8d 05 f9 3e 01 00 	lea    0x13ef9(%rip),%rax        # 1b748 <g_321>
    784f:	48 89 85 50 fe ff ff 	mov    %rax,-0x1b0(%rbp)
    7856:	c7 85 2c fe ff ff 01 	movl   $0x7fb62601,-0x1d4(%rbp)
    785d:	26 b6 7f 
    7860:	48 8d 05 49 2c 01 00 	lea    0x12c49(%rip),%rax        # 1a4b0 <g_1923>
    7867:	48 89 85 58 fe ff ff 	mov    %rax,-0x1a8(%rbp)
    786e:	c7 85 20 fe ff ff 00 	movl   $0x0,-0x1e0(%rbp)
    7875:	00 00 00 
    7878:	eb 1e                	jmp    7898 <func_1+0xe3>
    787a:	8b 85 20 fe ff ff    	mov    -0x1e0(%rbp),%eax
    7880:	48 98                	cltq   
    7882:	48 8d 15 6b 2e 01 00 	lea    0x12e6b(%rip),%rdx        # 1a6f4 <g_2636>
    7889:	48 89 94 c5 60 fe ff 	mov    %rdx,-0x1a0(%rbp,%rax,8)
    7890:	ff 
    7891:	83 85 20 fe ff ff 01 	addl   $0x1,-0x1e0(%rbp)
    7898:	83 bd 20 fe ff ff 03 	cmpl   $0x3,-0x1e0(%rbp)
    789f:	7e d9                	jle    787a <func_1+0xc5>
    78a1:	0f be 95 1f fe ff ff 	movsbl -0x1e1(%rbp),%edx
    78a8:	48 8b 85 30 fe ff ff 	mov    -0x1d0(%rbp),%rax
    78af:	89 10                	mov    %edx,(%rax)
    78b1:	8b 05 c5 27 01 00    	mov    0x127c5(%rip),%eax        # 1a07c <g_10+0x3c>
    78b7:	83 c0 01             	add    $0x1,%eax
    78ba:	89 05 bc 27 01 00    	mov    %eax,0x127bc(%rip)        # 1a07c <g_10+0x3c>
    78c0:	4c 8b a5 28 ff ff ff 	mov    -0xd8(%rbp),%r12
    78c7:	48 8b 9d 38 ff ff ff 	mov    -0xc8(%rbp),%rbx
    78ce:	48 8b 85 30 fe ff ff 	mov    -0x1d0(%rbp),%rax
    78d5:	8b 00                	mov    (%rax),%eax
    78d7:	44 0f bf e8          	movswl %ax,%r13d
    78db:	8b 05 7f 27 01 00    	mov    0x1277f(%rip),%eax        # 1a060 <g_10+0x20>
    78e1:	c7 85 f8 fd ff ff 00 	movl   $0x0,-0x208(%rbp)
    78e8:	00 00 00 
    78eb:	48 8b 85 30 fe ff ff 	mov    -0x1d0(%rbp),%rax
    78f2:	8b 00                	mov    (%rax),%eax
    78f4:	89 85 0c fe ff ff    	mov    %eax,-0x1f4(%rbp)
    78fa:	0f b7 05 c3 2b 01 00 	movzwl 0x12bc3(%rip),%eax        # 1a4c4 <g_2007>
    7901:	44 0f b6 f0          	movzbl %al,%r14d
    7905:	48 8b 85 30 fe ff ff 	mov    -0x1d0(%rbp),%rax
    790c:	8b 00                	mov    (%rax),%eax
    790e:	4c 63 f8             	movslq %eax,%r15
    7911:	8b 05 c9 2a 01 00    	mov    0x12ac9(%rip),%eax        # 1a3e0 <g_1815>
    7917:	89 85 08 fe ff ff    	mov    %eax,-0x1f8(%rbp)
    791d:	8b 05 f5 27 01 00    	mov    0x127f5(%rip),%eax        # 1a118 <g_232>
    7923:	0f b6 c8             	movzbl %al,%ecx
    7926:	89 8d 04 fe ff ff    	mov    %ecx,-0x1fc(%rbp)
    792c:	48 8b 85 30 fe ff ff 	mov    -0x1d0(%rbp),%rax
    7933:	8b 38                	mov    (%rax),%edi
    7935:	89 bd 00 fe ff ff    	mov    %edi,-0x200(%rbp)
    793b:	8b 15 df 27 01 00    	mov    0x127df(%rip),%edx        # 1a120 <g_244>
    7941:	89 95 fc fd ff ff    	mov    %edx,-0x204(%rbp)
    7947:	8b 85 28 fe ff ff    	mov    -0x1d8(%rbp),%eax
    794d:	4c 63 c0             	movslq %eax,%r8
    7950:	4c 89 85 f0 fd ff ff 	mov    %r8,-0x210(%rbp)
    7957:	8b 05 0b 4e 01 00    	mov    0x14e0b(%rip),%eax        # 1c768 <g_4>
    795d:	0f b7 d0             	movzwl %ax,%edx
    7960:	48 8b 85 30 fe ff ff 	mov    -0x1d0(%rbp),%rax
    7967:	8b 00                	mov    (%rax),%eax
    7969:	83 c8 01             	or     $0x1,%eax
    796c:	0f bf c8             	movswl %ax,%ecx
    796f:	48 8b 05 b2 26 01 00 	mov    0x126b2(%rip),%rax        # 1a028 <g_7>
    7976:	0f b6 c0             	movzbl %al,%eax
    7979:	89 ce                	mov    %ecx,%esi
    797b:	89 c7                	mov    %eax,%edi
    797d:	e8 12 a0 00 00       	callq  11994 <func_43>
    7982:	8b 8d 00 fe ff ff    	mov    -0x200(%rbp),%ecx
    7988:	8b 95 fc fd ff ff    	mov    -0x204(%rbp),%edx
    798e:	48 8b b5 f0 fd ff ff 	mov    -0x210(%rbp),%rsi
    7995:	48 89 c7             	mov    %rax,%rdi
    7998:	e8 2c 62 00 00       	callq  dbc9 <func_38>
    799d:	48 8b 95 50 fe ff ff 	mov    -0x1b0(%rbp),%rdx
    79a4:	48 89 02             	mov    %rax,(%rdx)
    79a7:	48 8b 85 50 fe ff ff 	mov    -0x1b0(%rbp),%rax
    79ae:	48 8b 10             	mov    (%rax),%rdx
    79b1:	8b 35 b1 4d 01 00    	mov    0x14db1(%rip),%esi        # 1c768 <g_4>
    79b7:	48 8b 85 30 fe ff ff 	mov    -0x1d0(%rbp),%rax
    79be:	8b 8d 04 fe ff ff    	mov    -0x1fc(%rbp),%ecx
    79c4:	48 89 c7             	mov    %rax,%rdi
    79c7:	e8 5e 30 00 00       	callq  aa2a <func_33>
    79cc:	48 89 c1             	mov    %rax,%rcx
    79cf:	48 8b 85 38 fe ff ff 	mov    -0x1c8(%rbp),%rax
    79d6:	48 89 c2             	mov    %rax,%rdx
    79d9:	8b b5 08 fe ff ff    	mov    -0x1f8(%rbp),%esi
    79df:	48 89 cf             	mov    %rcx,%rdi
    79e2:	e8 b6 27 00 00       	callq  a19d <func_29>
    79e7:	4c 89 fe             	mov    %r15,%rsi
    79ea:	48 89 c7             	mov    %rax,%rdi
    79ed:	e8 d7 0d 00 00       	callq  87c9 <func_26>
    79f2:	83 f0 fb             	xor    $0xfffffffb,%eax
    79f5:	0f b6 c0             	movzbl %al,%eax
    79f8:	44 89 f6             	mov    %r14d,%esi
    79fb:	89 c7                	mov    %eax,%edi
    79fd:	e8 d9 f1 ff ff       	callq  6bdb <safe_div_func_uint8_t_u_u>
    7a02:	0f b6 c0             	movzbl %al,%eax
    7a05:	8b b5 0c fe ff ff    	mov    -0x1f4(%rbp),%esi
    7a0b:	89 c7                	mov    %eax,%edi
    7a0d:	e8 eb f4 ff ff       	callq  6efd <safe_mod_func_uint32_t_u_u>
    7a12:	48 8b 85 48 fe ff ff 	mov    -0x1b8(%rbp),%rax
    7a19:	0f b6 00             	movzbl (%rax),%eax
    7a1c:	89 c2                	mov    %eax,%edx
    7a1e:	0f b6 85 f8 fd ff ff 	movzbl -0x208(%rbp),%eax
    7a25:	31 d0                	xor    %edx,%eax
    7a27:	89 c2                	mov    %eax,%edx
    7a29:	48 8b 85 48 fe ff ff 	mov    -0x1b8(%rbp),%rax
    7a30:	88 10                	mov    %dl,(%rax)
    7a32:	48 8b 85 48 fe ff ff 	mov    -0x1b8(%rbp),%rax
    7a39:	0f b6 00             	movzbl (%rax),%eax
    7a3c:	0f b6 c0             	movzbl %al,%eax
    7a3f:	21 85 2c fe ff ff    	and    %eax,-0x1d4(%rbp)
    7a45:	8b 85 2c fe ff ff    	mov    -0x1d4(%rbp),%eax
    7a4b:	98                   	cwtl   
    7a4c:	44 89 ee             	mov    %r13d,%esi
    7a4f:	89 c7                	mov    %eax,%edi
    7a51:	e8 5d e9 ff ff       	callq  63b3 <safe_add_func_int16_t_s_s>
    7a56:	0f bf d0             	movswl %ax,%edx
    7a59:	48 8b 85 58 fe ff ff 	mov    -0x1a8(%rbp),%rax
    7a60:	89 10                	mov    %edx,(%rax)
    7a62:	8b 05 00 4d 01 00    	mov    0x14d00(%rip),%eax        # 1c768 <g_4>
    7a68:	4c 89 e1             	mov    %r12,%rcx
    7a6b:	48 89 da             	mov    %rbx,%rdx
    7a6e:	be 00 00 00 00       	mov    $0x0,%esi
    7a73:	89 c7                	mov    %eax,%edi
    7a75:	e8 3b 00 00 00       	callq  7ab5 <func_13>
    7a7a:	48 8b 95 30 fe ff ff 	mov    -0x1d0(%rbp),%rdx
    7a81:	89 02                	mov    %eax,(%rdx)
    7a83:	48 8b 05 16 3f 01 00 	mov    0x13f16(%rip),%rax        # 1b9a0 <g_674>
    7a8a:	48 8b 00             	mov    (%rax),%rax
    7a8d:	8b 00                	mov    (%rax),%eax
    7a8f:	48 8b 5d c8          	mov    -0x38(%rbp),%rbx
    7a93:	64 48 33 1c 25 28 00 	xor    %fs:0x28,%rbx
    7a9a:	00 00 
    7a9c:	74 05                	je     7aa3 <func_1+0x2ee>
    7a9e:	e8 cd e5 ff ff       	callq  6070 <__stack_chk_fail@plt>
    7aa3:	48 81 c4 e8 01 00 00 	add    $0x1e8,%rsp
    7aaa:	5b                   	pop    %rbx
    7aab:	41 5c                	pop    %r12
    7aad:	41 5d                	pop    %r13
    7aaf:	41 5e                	pop    %r14
    7ab1:	41 5f                	pop    %r15
    7ab3:	5d                   	pop    %rbp
    7ab4:	c3                   	retq   

0000000000007ab5 <func_13>:
    7ab5:	f3 0f 1e fa          	endbr64 
    7ab9:	55                   	push   %rbp
    7aba:	48 89 e5             	mov    %rsp,%rbp
    7abd:	53                   	push   %rbx
    7abe:	48 81 ec a8 08 00 00 	sub    $0x8a8,%rsp
    7ac5:	89 bd 6c f7 ff ff    	mov    %edi,-0x894(%rbp)
    7acb:	48 89 b5 60 f7 ff ff 	mov    %rsi,-0x8a0(%rbp)
    7ad2:	48 89 95 58 f7 ff ff 	mov    %rdx,-0x8a8(%rbp)
    7ad9:	48 89 8d 50 f7 ff ff 	mov    %rcx,-0x8b0(%rbp)
    7ae0:	64 48 8b 04 25 28 00 	mov    %fs:0x28,%rax
    7ae7:	00 00 
    7ae9:	48 89 45 e8          	mov    %rax,-0x18(%rbp)
    7aed:	31 c0                	xor    %eax,%eax
    7aef:	48 8d 05 b6 25 01 00 	lea    0x125b6(%rip),%rax        # 1a0ac <g_77>
    7af6:	48 89 85 c0 f7 ff ff 	mov    %rax,-0x840(%rbp)
    7afd:	c7 85 80 f7 ff ff 10 	movl   $0x4c032710,-0x880(%rbp)
    7b04:	27 03 4c 
    7b07:	c6 85 7a f7 ff ff 22 	movb   $0x22,-0x886(%rbp)
    7b0e:	c6 85 7c f7 ff ff 00 	movb   $0x0,-0x884(%rbp)
    7b15:	c7 85 84 f7 ff ff 00 	movl   $0x0,-0x87c(%rbp)
    7b1c:	00 00 00 
    7b1f:	48 8d 85 80 fb ff ff 	lea    -0x480(%rbp),%rax
    7b26:	48 8d 15 13 2d 01 00 	lea    0x12d13(%rip),%rdx        # 1a840 <g_2719+0x14a>
    7b2d:	b9 8c 00 00 00       	mov    $0x8c,%ecx
    7b32:	48 89 c7             	mov    %rax,%rdi
    7b35:	48 89 d6             	mov    %rdx,%rsi
    7b38:	f3 48 a5             	rep movsq %ds:(%rsi),%es:(%rdi)
    7b3b:	c6 85 7d f7 ff ff a5 	movb   $0xa5,-0x883(%rbp)
    7b42:	48 8d 05 5f 3e 01 00 	lea    0x13e5f(%rip),%rax        # 1b9a8 <g_673>
    7b49:	48 89 85 c8 f7 ff ff 	mov    %rax,-0x838(%rbp)
    7b50:	c6 85 7e f7 ff ff 00 	movb   $0x0,-0x882(%rbp)
    7b57:	48 8d 85 84 f7 ff ff 	lea    -0x87c(%rbp),%rax
    7b5e:	48 89 85 d0 f7 ff ff 	mov    %rax,-0x830(%rbp)
    7b65:	48 8d 85 80 f7 ff ff 	lea    -0x880(%rbp),%rax
    7b6c:	48 89 85 d8 f7 ff ff 	mov    %rax,-0x828(%rbp)
    7b73:	48 8d 05 3e 25 01 00 	lea    0x1253e(%rip),%rax        # 1a0b8 <g_86+0x8>
    7b7a:	48 89 85 e0 f7 ff ff 	mov    %rax,-0x820(%rbp)
    7b81:	48 8d 85 80 f7 ff ff 	lea    -0x880(%rbp),%rax
    7b88:	48 89 85 e8 f7 ff ff 	mov    %rax,-0x818(%rbp)
    7b8f:	48 8d 85 80 f7 ff ff 	lea    -0x880(%rbp),%rax
    7b96:	48 89 85 f0 f7 ff ff 	mov    %rax,-0x810(%rbp)
    7b9d:	48 8d 85 80 f7 ff ff 	lea    -0x880(%rbp),%rax
    7ba4:	48 89 85 f8 f7 ff ff 	mov    %rax,-0x808(%rbp)
    7bab:	48 8d 05 06 25 01 00 	lea    0x12506(%rip),%rax        # 1a0b8 <g_86+0x8>
    7bb2:	48 89 85 00 f8 ff ff 	mov    %rax,-0x800(%rbp)
    7bb9:	48 8d 05 68 29 01 00 	lea    0x12968(%rip),%rax        # 1a528 <g_2173+0x48>
    7bc0:	48 89 85 08 f8 ff ff 	mov    %rax,-0x7f8(%rbp)
    7bc7:	48 8d 05 ea 24 01 00 	lea    0x124ea(%rip),%rax        # 1a0b8 <g_86+0x8>
    7bce:	48 89 85 00 fa ff ff 	mov    %rax,-0x600(%rbp)
    7bd5:	48 c7 85 08 fa ff ff 	movq   $0x0,-0x5f8(%rbp)
    7bdc:	00 00 00 00 
    7be0:	48 8d 05 15 29 01 00 	lea    0x12915(%rip),%rax        # 1a4fc <g_2173+0x1c>
    7be7:	48 89 85 10 fa ff ff 	mov    %rax,-0x5f0(%rbp)
    7bee:	48 8d 05 07 29 01 00 	lea    0x12907(%rip),%rax        # 1a4fc <g_2173+0x1c>
    7bf5:	48 89 85 18 fa ff ff 	mov    %rax,-0x5e8(%rbp)
    7bfc:	48 c7 85 20 fa ff ff 	movq   $0x0,-0x5e0(%rbp)
    7c03:	00 00 00 00 
    7c07:	48 8d 05 aa 24 01 00 	lea    0x124aa(%rip),%rax        # 1a0b8 <g_86+0x8>
    7c0e:	48 89 85 28 fa ff ff 	mov    %rax,-0x5d8(%rbp)
    7c15:	48 8d 85 80 f7 ff ff 	lea    -0x880(%rbp),%rax
    7c1c:	48 89 85 30 fa ff ff 	mov    %rax,-0x5d0(%rbp)
    7c23:	48 8d 05 8e 24 01 00 	lea    0x1248e(%rip),%rax        # 1a0b8 <g_86+0x8>
    7c2a:	48 89 85 38 fa ff ff 	mov    %rax,-0x5c8(%rbp)
    7c31:	48 8d 05 c4 28 01 00 	lea    0x128c4(%rip),%rax        # 1a4fc <g_2173+0x1c>
    7c38:	48 89 85 40 fa ff ff 	mov    %rax,-0x5c0(%rbp)
    7c3f:	48 8d 85 80 f7 ff ff 	lea    -0x880(%rbp),%rax
    7c46:	48 89 85 48 fa ff ff 	mov    %rax,-0x5b8(%rbp)
    7c4d:	48 8d 05 24 29 01 00 	lea    0x12924(%rip),%rax        # 1a578 <g_2173+0x98>
    7c54:	48 89 85 50 fa ff ff 	mov    %rax,-0x5b0(%rbp)
    7c5b:	48 8d 05 62 24 01 00 	lea    0x12462(%rip),%rax        # 1a0c4 <g_86+0x14>
    7c62:	48 89 85 58 fa ff ff 	mov    %rax,-0x5a8(%rbp)
    7c69:	48 8d 05 48 24 01 00 	lea    0x12448(%rip),%rax        # 1a0b8 <g_86+0x8>
    7c70:	48 89 85 60 fa ff ff 	mov    %rax,-0x5a0(%rbp)
    7c77:	48 8d 05 fa 28 01 00 	lea    0x128fa(%rip),%rax        # 1a578 <g_2173+0x98>
    7c7e:	48 89 85 68 fa ff ff 	mov    %rax,-0x598(%rbp)
    7c85:	48 8d 05 9c 28 01 00 	lea    0x1289c(%rip),%rax        # 1a528 <g_2173+0x48>
    7c8c:	48 89 85 70 fa ff ff 	mov    %rax,-0x590(%rbp)
    7c93:	48 8d 05 de 28 01 00 	lea    0x128de(%rip),%rax        # 1a578 <g_2173+0x98>
    7c9a:	48 89 85 78 fa ff ff 	mov    %rax,-0x588(%rbp)
    7ca1:	48 8d 05 10 24 01 00 	lea    0x12410(%rip),%rax        # 1a0b8 <g_86+0x8>
    7ca8:	48 89 85 80 fa ff ff 	mov    %rax,-0x580(%rbp)
    7caf:	48 8d 05 0e 24 01 00 	lea    0x1240e(%rip),%rax        # 1a0c4 <g_86+0x14>
    7cb6:	48 89 85 88 fa ff ff 	mov    %rax,-0x578(%rbp)
    7cbd:	48 c7 85 90 fa ff ff 	movq   $0x0,-0x570(%rbp)
    7cc4:	00 00 00 00 
    7cc8:	48 8d 05 f5 23 01 00 	lea    0x123f5(%rip),%rax        # 1a0c4 <g_86+0x14>
    7ccf:	48 89 85 98 fa ff ff 	mov    %rax,-0x568(%rbp)
    7cd6:	48 8d 05 db 23 01 00 	lea    0x123db(%rip),%rax        # 1a0b8 <g_86+0x8>
    7cdd:	48 89 85 a0 fa ff ff 	mov    %rax,-0x560(%rbp)
    7ce4:	48 c7 85 a8 fa ff ff 	movq   $0x0,-0x558(%rbp)
    7ceb:	00 00 00 00 
    7cef:	48 8d 05 ce 23 01 00 	lea    0x123ce(%rip),%rax        # 1a0c4 <g_86+0x14>
    7cf6:	48 89 85 b0 fa ff ff 	mov    %rax,-0x550(%rbp)
    7cfd:	48 8d 05 b4 23 01 00 	lea    0x123b4(%rip),%rax        # 1a0b8 <g_86+0x8>
    7d04:	48 89 85 b8 fa ff ff 	mov    %rax,-0x548(%rbp)
    7d0b:	48 8d 05 aa 23 01 00 	lea    0x123aa(%rip),%rax        # 1a0bc <g_86+0xc>
    7d12:	48 89 85 c0 fa ff ff 	mov    %rax,-0x540(%rbp)
    7d19:	48 8d 05 98 23 01 00 	lea    0x12398(%rip),%rax        # 1a0b8 <g_86+0x8>
    7d20:	48 89 85 c8 fa ff ff 	mov    %rax,-0x538(%rbp)
    7d27:	48 8d 05 8a 23 01 00 	lea    0x1238a(%rip),%rax        # 1a0b8 <g_86+0x8>
    7d2e:	48 89 85 d0 fa ff ff 	mov    %rax,-0x530(%rbp)
    7d35:	48 c7 85 d8 fa ff ff 	movq   $0x0,-0x528(%rbp)
    7d3c:	00 00 00 00 
    7d40:	48 8d 05 7d 23 01 00 	lea    0x1237d(%rip),%rax        # 1a0c4 <g_86+0x14>
    7d47:	48 89 85 e0 fa ff ff 	mov    %rax,-0x520(%rbp)
    7d4e:	48 8d 05 67 23 01 00 	lea    0x12367(%rip),%rax        # 1a0bc <g_86+0xc>
    7d55:	48 89 85 e8 fa ff ff 	mov    %rax,-0x518(%rbp)
    7d5c:	48 8d 05 59 23 01 00 	lea    0x12359(%rip),%rax        # 1a0bc <g_86+0xc>
    7d63:	48 89 85 f0 fa ff ff 	mov    %rax,-0x510(%rbp)
    7d6a:	48 8d 05 53 23 01 00 	lea    0x12353(%rip),%rax        # 1a0c4 <g_86+0x14>
    7d71:	48 89 85 f8 fa ff ff 	mov    %rax,-0x508(%rbp)
    7d78:	48 8d 05 7d 27 01 00 	lea    0x1277d(%rip),%rax        # 1a4fc <g_2173+0x1c>
    7d7f:	48 89 85 00 fb ff ff 	mov    %rax,-0x500(%rbp)
    7d86:	48 8d 05 2b 23 01 00 	lea    0x1232b(%rip),%rax        # 1a0b8 <g_86+0x8>
    7d8d:	48 89 85 08 fb ff ff 	mov    %rax,-0x4f8(%rbp)
    7d94:	48 8d 05 1d 23 01 00 	lea    0x1231d(%rip),%rax        # 1a0b8 <g_86+0x8>
    7d9b:	48 89 85 10 fb ff ff 	mov    %rax,-0x4f0(%rbp)
    7da2:	48 8d 05 53 27 01 00 	lea    0x12753(%rip),%rax        # 1a4fc <g_2173+0x1c>
    7da9:	48 89 85 18 fb ff ff 	mov    %rax,-0x4e8(%rbp)
    7db0:	48 8d 85 80 f7 ff ff 	lea    -0x880(%rbp),%rax
    7db7:	48 89 85 20 fb ff ff 	mov    %rax,-0x4e0(%rbp)
    7dbe:	48 8d 05 b3 27 01 00 	lea    0x127b3(%rip),%rax        # 1a578 <g_2173+0x98>
    7dc5:	48 89 85 28 fb ff ff 	mov    %rax,-0x4d8(%rbp)
    7dcc:	48 8d 05 f1 22 01 00 	lea    0x122f1(%rip),%rax        # 1a0c4 <g_86+0x14>
    7dd3:	48 89 85 30 fb ff ff 	mov    %rax,-0x4d0(%rbp)
    7dda:	48 8d 05 d7 22 01 00 	lea    0x122d7(%rip),%rax        # 1a0b8 <g_86+0x8>
    7de1:	48 89 85 38 fb ff ff 	mov    %rax,-0x4c8(%rbp)
    7de8:	48 8d 05 d5 22 01 00 	lea    0x122d5(%rip),%rax        # 1a0c4 <g_86+0x14>
    7def:	48 89 85 40 fb ff ff 	mov    %rax,-0x4c0(%rbp)
    7df6:	48 8d 05 2b 27 01 00 	lea    0x1272b(%rip),%rax        # 1a528 <g_2173+0x48>
    7dfd:	48 89 85 48 fb ff ff 	mov    %rax,-0x4b8(%rbp)
    7e04:	48 c7 85 50 fb ff ff 	movq   $0x0,-0x4b0(%rbp)
    7e0b:	00 00 00 00 
    7e0f:	48 8d 05 a2 22 01 00 	lea    0x122a2(%rip),%rax        # 1a0b8 <g_86+0x8>
    7e16:	48 89 85 58 fb ff ff 	mov    %rax,-0x4a8(%rbp)
    7e1d:	48 8d 05 04 27 01 00 	lea    0x12704(%rip),%rax        # 1a528 <g_2173+0x48>
    7e24:	48 89 85 60 fb ff ff 	mov    %rax,-0x4a0(%rbp)
    7e2b:	48 8d 05 86 22 01 00 	lea    0x12286(%rip),%rax        # 1a0b8 <g_86+0x8>
    7e32:	48 89 85 68 fb ff ff 	mov    %rax,-0x498(%rbp)
    7e39:	48 8d 05 e8 26 01 00 	lea    0x126e8(%rip),%rax        # 1a528 <g_2173+0x48>
    7e40:	48 89 85 70 fb ff ff 	mov    %rax,-0x490(%rbp)
    7e47:	48 8d 05 6a 22 01 00 	lea    0x1226a(%rip),%rax        # 1a0b8 <g_86+0x8>
    7e4e:	48 89 85 78 fb ff ff 	mov    %rax,-0x488(%rbp)
    7e55:	48 b8 ed 57 92 c3 3e 	movabs $0x6c26923ec39257ed,%rax
    7e5c:	92 26 6c 
    7e5f:	48 89 85 70 f8 ff ff 	mov    %rax,-0x790(%rbp)
    7e66:	48 bb 2f 79 3d da 43 	movabs $0xcb57bb43da3d792f,%rbx
    7e6d:	bb 57 cb 
    7e70:	48 89 9d 78 f8 ff ff 	mov    %rbx,-0x788(%rbp)
    7e77:	48 89 85 80 f8 ff ff 	mov    %rax,-0x780(%rbp)
    7e7e:	48 89 85 88 f8 ff ff 	mov    %rax,-0x778(%rbp)
    7e85:	48 89 9d 90 f8 ff ff 	mov    %rbx,-0x770(%rbp)
    7e8c:	48 89 85 98 f8 ff ff 	mov    %rax,-0x768(%rbp)
    7e93:	48 89 85 a0 f8 ff ff 	mov    %rax,-0x760(%rbp)
    7e9a:	48 89 9d a8 f8 ff ff 	mov    %rbx,-0x758(%rbp)
    7ea1:	c7 85 88 f7 ff ff 00 	movl   $0x0,-0x878(%rbp)
    7ea8:	00 00 00 
    7eab:	eb 1e                	jmp    7ecb <func_13+0x416>
    7ead:	8b 85 88 f7 ff ff    	mov    -0x878(%rbp),%eax
    7eb3:	48 98                	cltq   
    7eb5:	48 8d 15 34 22 01 00 	lea    0x12234(%rip),%rdx        # 1a0f0 <g_171+0x10>
    7ebc:	48 89 94 c5 60 f8 ff 	mov    %rdx,-0x7a0(%rbp,%rax,8)
    7ec3:	ff 
    7ec4:	83 85 88 f7 ff ff 01 	addl   $0x1,-0x878(%rbp)
    7ecb:	83 bd 88 f7 ff ff 01 	cmpl   $0x1,-0x878(%rbp)
    7ed2:	7e d9                	jle    7ead <func_13+0x3f8>
    7ed4:	8b 85 6c f7 ff ff    	mov    -0x894(%rbp),%eax
    7eda:	89 c2                	mov    %eax,%edx
    7edc:	8b 85 80 f7 ff ff    	mov    -0x880(%rbp),%eax
    7ee2:	48 98                	cltq   
    7ee4:	48 89 05 3d 21 01 00 	mov    %rax,0x1213d(%rip)        # 1a028 <g_7>
    7eeb:	48 8b 05 36 21 01 00 	mov    0x12136(%rip),%rax        # 1a028 <g_7>
    7ef2:	21 d0                	and    %edx,%eax
    7ef4:	88 85 7a f7 ff ff    	mov    %al,-0x886(%rbp)
    7efa:	48 8b 05 27 44 01 00 	mov    0x14427(%rip),%rax        # 1c328 <g_2506>
    7f01:	48 8b 15 30 44 01 00 	mov    0x14430(%rip),%rdx        # 1c338 <g_2643>
    7f08:	48 89 10             	mov    %rdx,(%rax)
    7f0b:	48 8b 1d 8e 3a 01 00 	mov    0x13a8e(%rip),%rbx        # 1b9a0 <g_674>
    7f12:	48 8d 95 80 f7 ff ff 	lea    -0x880(%rbp),%rdx
    7f19:	48 8b 85 c0 f7 ff ff 	mov    -0x840(%rbp),%rax
    7f20:	be 01 00 00 00       	mov    $0x1,%esi
    7f25:	48 89 c7             	mov    %rax,%rdi
    7f28:	e8 70 22 00 00       	callq  a19d <func_29>
    7f2d:	48 89 03             	mov    %rax,(%rbx)
    7f30:	c6 05 6d 21 01 00 00 	movb   $0x0,0x1216d(%rip)        # 1a0a4 <g_21>
    7f37:	e9 45 08 00 00       	jmpq   8781 <func_13+0xccc>
    7f3c:	48 8d 05 2d 24 01 00 	lea    0x1242d(%rip),%rax        # 1a370 <g_794>
    7f43:	48 89 85 a0 f7 ff ff 	mov    %rax,-0x860(%rbp)
    7f4a:	48 8d 85 a0 f7 ff ff 	lea    -0x860(%rbp),%rax
    7f51:	48 89 85 a8 f7 ff ff 	mov    %rax,-0x858(%rbp)
    7f58:	48 8d 85 a8 f7 ff ff 	lea    -0x858(%rbp),%rax
    7f5f:	48 89 85 b0 f8 ff ff 	mov    %rax,-0x750(%rbp)
    7f66:	48 8d 85 a8 f7 ff ff 	lea    -0x858(%rbp),%rax
    7f6d:	48 89 85 b8 f8 ff ff 	mov    %rax,-0x748(%rbp)
    7f74:	48 8d 85 a8 f7 ff ff 	lea    -0x858(%rbp),%rax
    7f7b:	48 89 85 c0 f8 ff ff 	mov    %rax,-0x740(%rbp)
    7f82:	48 8d 85 a8 f7 ff ff 	lea    -0x858(%rbp),%rax
    7f89:	48 89 85 c8 f8 ff ff 	mov    %rax,-0x738(%rbp)
    7f90:	48 c7 85 d0 f8 ff ff 	movq   $0x0,-0x730(%rbp)
    7f97:	00 00 00 00 
    7f9b:	48 8d 85 a8 f7 ff ff 	lea    -0x858(%rbp),%rax
    7fa2:	48 89 85 d8 f8 ff ff 	mov    %rax,-0x728(%rbp)
    7fa9:	48 8d 85 a8 f7 ff ff 	lea    -0x858(%rbp),%rax
    7fb0:	48 89 85 e0 f8 ff ff 	mov    %rax,-0x720(%rbp)
    7fb7:	48 8d 85 a8 f7 ff ff 	lea    -0x858(%rbp),%rax
    7fbe:	48 89 85 e8 f8 ff ff 	mov    %rax,-0x718(%rbp)
    7fc5:	48 8d 85 a8 f7 ff ff 	lea    -0x858(%rbp),%rax
    7fcc:	48 89 85 f0 f8 ff ff 	mov    %rax,-0x710(%rbp)
    7fd3:	48 8d 85 a8 f7 ff ff 	lea    -0x858(%rbp),%rax
    7fda:	48 89 85 f8 f8 ff ff 	mov    %rax,-0x708(%rbp)
    7fe1:	48 c7 85 00 f9 ff ff 	movq   $0x0,-0x700(%rbp)
    7fe8:	00 00 00 00 
    7fec:	48 8d 85 a8 f7 ff ff 	lea    -0x858(%rbp),%rax
    7ff3:	48 89 85 08 f9 ff ff 	mov    %rax,-0x6f8(%rbp)
    7ffa:	48 8d 85 a8 f7 ff ff 	lea    -0x858(%rbp),%rax
    8001:	48 89 85 10 f9 ff ff 	mov    %rax,-0x6f0(%rbp)
    8008:	48 8d 85 a8 f7 ff ff 	lea    -0x858(%rbp),%rax
    800f:	48 89 85 18 f9 ff ff 	mov    %rax,-0x6e8(%rbp)
    8016:	48 8d 85 a8 f7 ff ff 	lea    -0x858(%rbp),%rax
    801d:	48 89 85 20 f9 ff ff 	mov    %rax,-0x6e0(%rbp)
    8024:	48 8d 85 a8 f7 ff ff 	lea    -0x858(%rbp),%rax
    802b:	48 89 85 28 f9 ff ff 	mov    %rax,-0x6d8(%rbp)
    8032:	48 8d 85 a8 f7 ff ff 	lea    -0x858(%rbp),%rax
    8039:	48 89 85 30 f9 ff ff 	mov    %rax,-0x6d0(%rbp)
    8040:	48 8d 85 a8 f7 ff ff 	lea    -0x858(%rbp),%rax
    8047:	48 89 85 38 f9 ff ff 	mov    %rax,-0x6c8(%rbp)
    804e:	48 8d 85 a8 f7 ff ff 	lea    -0x858(%rbp),%rax
    8055:	48 89 85 40 f9 ff ff 	mov    %rax,-0x6c0(%rbp)
    805c:	48 8d 85 a8 f7 ff ff 	lea    -0x858(%rbp),%rax
    8063:	48 89 85 48 f9 ff ff 	mov    %rax,-0x6b8(%rbp)
    806a:	48 8d 85 a8 f7 ff ff 	lea    -0x858(%rbp),%rax
    8071:	48 89 85 50 f9 ff ff 	mov    %rax,-0x6b0(%rbp)
    8078:	48 8d 85 a8 f7 ff ff 	lea    -0x858(%rbp),%rax
    807f:	48 89 85 58 f9 ff ff 	mov    %rax,-0x6a8(%rbp)
    8086:	48 8d 85 a8 f7 ff ff 	lea    -0x858(%rbp),%rax
    808d:	48 89 85 60 f9 ff ff 	mov    %rax,-0x6a0(%rbp)
    8094:	48 8d 85 a8 f7 ff ff 	lea    -0x858(%rbp),%rax
    809b:	48 89 85 68 f9 ff ff 	mov    %rax,-0x698(%rbp)
    80a2:	48 8d 85 a8 f7 ff ff 	lea    -0x858(%rbp),%rax
    80a9:	48 89 85 70 f9 ff ff 	mov    %rax,-0x690(%rbp)
    80b0:	48 8d 85 a8 f7 ff ff 	lea    -0x858(%rbp),%rax
    80b7:	48 89 85 78 f9 ff ff 	mov    %rax,-0x688(%rbp)
    80be:	48 8d 85 a8 f7 ff ff 	lea    -0x858(%rbp),%rax
    80c5:	48 89 85 80 f9 ff ff 	mov    %rax,-0x680(%rbp)
    80cc:	48 8d 85 a8 f7 ff ff 	lea    -0x858(%rbp),%rax
    80d3:	48 89 85 88 f9 ff ff 	mov    %rax,-0x678(%rbp)
    80da:	48 8d 85 a8 f7 ff ff 	lea    -0x858(%rbp),%rax
    80e1:	48 89 85 90 f9 ff ff 	mov    %rax,-0x670(%rbp)
    80e8:	48 8d 85 a8 f7 ff ff 	lea    -0x858(%rbp),%rax
    80ef:	48 89 85 98 f9 ff ff 	mov    %rax,-0x668(%rbp)
    80f6:	48 8d 85 a8 f7 ff ff 	lea    -0x858(%rbp),%rax
    80fd:	48 89 85 a0 f9 ff ff 	mov    %rax,-0x660(%rbp)
    8104:	48 8d 85 a8 f7 ff ff 	lea    -0x858(%rbp),%rax
    810b:	48 89 85 a8 f9 ff ff 	mov    %rax,-0x658(%rbp)
    8112:	48 8d 85 a8 f7 ff ff 	lea    -0x858(%rbp),%rax
    8119:	48 89 85 b0 f9 ff ff 	mov    %rax,-0x650(%rbp)
    8120:	48 8d 85 a8 f7 ff ff 	lea    -0x858(%rbp),%rax
    8127:	48 89 85 b8 f9 ff ff 	mov    %rax,-0x648(%rbp)
    812e:	48 8d 85 a8 f7 ff ff 	lea    -0x858(%rbp),%rax
    8135:	48 89 85 c0 f9 ff ff 	mov    %rax,-0x640(%rbp)
    813c:	48 8d 85 a8 f7 ff ff 	lea    -0x858(%rbp),%rax
    8143:	48 89 85 c8 f9 ff ff 	mov    %rax,-0x638(%rbp)
    814a:	48 8d 85 a8 f7 ff ff 	lea    -0x858(%rbp),%rax
    8151:	48 89 85 d0 f9 ff ff 	mov    %rax,-0x630(%rbp)
    8158:	48 8d 85 a8 f7 ff ff 	lea    -0x858(%rbp),%rax
    815f:	48 89 85 d8 f9 ff ff 	mov    %rax,-0x628(%rbp)
    8166:	48 8d 85 a8 f7 ff ff 	lea    -0x858(%rbp),%rax
    816d:	48 89 85 e0 f9 ff ff 	mov    %rax,-0x620(%rbp)
    8174:	48 8d 85 a8 f7 ff ff 	lea    -0x858(%rbp),%rax
    817b:	48 89 85 e8 f9 ff ff 	mov    %rax,-0x618(%rbp)
    8182:	48 8d 85 a8 f7 ff ff 	lea    -0x858(%rbp),%rax
    8189:	48 89 85 f0 f9 ff ff 	mov    %rax,-0x610(%rbp)
    8190:	48 8d 85 a8 f7 ff ff 	lea    -0x858(%rbp),%rax
    8197:	48 89 85 f8 f9 ff ff 	mov    %rax,-0x608(%rbp)
    819e:	48 8d 05 03 36 01 00 	lea    0x13603(%rip),%rax        # 1b7a8 <g_320+0x48>
    81a5:	48 89 85 10 f8 ff ff 	mov    %rax,-0x7f0(%rbp)
    81ac:	48 8d 05 6d 21 01 00 	lea    0x1216d(%rip),%rax        # 1a320 <g_251>
    81b3:	48 89 85 18 f8 ff ff 	mov    %rax,-0x7e8(%rbp)
    81ba:	48 c7 85 20 f8 ff ff 	movq   $0x1,-0x7e0(%rbp)
    81c1:	01 00 00 00 
    81c5:	c6 85 7f f7 ff ff 00 	movb   $0x0,-0x881(%rbp)
    81cc:	c7 85 90 f7 ff ff 06 	movl   $0x6,-0x870(%rbp)
    81d3:	00 00 00 
    81d6:	48 8d 05 19 25 01 00 	lea    0x12519(%rip),%rax        # 1a6f6 <g_2719>
    81dd:	48 89 85 b0 f7 ff ff 	mov    %rax,-0x850(%rbp)
    81e4:	48 8d 85 b0 f7 ff ff 	lea    -0x850(%rbp),%rax
    81eb:	48 89 85 28 f8 ff ff 	mov    %rax,-0x7d8(%rbp)
    81f2:	c7 85 8c f7 ff ff 00 	movl   $0x0,-0x874(%rbp)
    81f9:	00 00 00 
    81fc:	eb 1a                	jmp    8218 <func_13+0x763>
    81fe:	8b 85 8c f7 ff ff    	mov    -0x874(%rbp),%eax
    8204:	48 98                	cltq   
    8206:	c7 84 85 58 f8 ff ff 	movl   $0xfffffff6,-0x7a8(%rbp,%rax,4)
    820d:	f6 ff ff ff 
    8211:	83 85 8c f7 ff ff 01 	addl   $0x1,-0x874(%rbp)
    8218:	83 bd 8c f7 ff ff 01 	cmpl   $0x1,-0x874(%rbp)
    821f:	7e dd                	jle    81fe <func_13+0x749>
    8221:	c7 05 6d 45 01 00 00 	movl   $0x0,0x1456d(%rip)        # 1c798 <g_818>
    8228:	00 00 00 
    822b:	90                   	nop
    822c:	8b 05 66 45 01 00    	mov    0x14566(%rip),%eax        # 1c798 <g_818>
    8232:	83 f8 27             	cmp    $0x27,%eax
    8235:	76 17                	jbe    824e <func_13+0x799>
    8237:	48 8b 05 82 40 01 00 	mov    0x14082(%rip),%rax        # 1c2c0 <g_1829>
    823e:	48 8b 00             	mov    (%rax),%rax
    8241:	48 8b 00             	mov    (%rax),%rax
    8244:	48 8b 00             	mov    (%rax),%rax
    8247:	8b 00                	mov    (%rax),%eax
    8249:	e9 5d 05 00 00       	jmpq   87ab <func_13+0xcf6>
    824e:	c7 05 50 21 01 00 00 	movl   $0x0,0x12150(%rip)        # 1a3a8 <g_1342>
    8255:	00 00 00 
    8258:	e9 a2 04 00 00       	jmpq   86ff <func_13+0xc4a>
    825d:	c7 85 94 f7 ff ff 18 	movl   $0xa0861b18,-0x86c(%rbp)
    8264:	1b 86 a0 
    8267:	48 c7 85 b8 f7 ff ff 	movq   $0x0,-0x848(%rbp)
    826e:	00 00 00 00 
    8272:	c6 85 7b f7 ff ff 34 	movb   $0x34,-0x885(%rbp)
    8279:	c7 85 98 f7 ff ff 3b 	movl   $0xcb5e6d3b,-0x868(%rbp)
    8280:	6d 5e cb 
    8283:	48 8d 05 f5 23 01 00 	lea    0x123f5(%rip),%rax        # 1a67f <g_2321+0x7f>
    828a:	48 89 85 30 f8 ff ff 	mov    %rax,-0x7d0(%rbp)
    8291:	48 8d 05 a0 34 01 00 	lea    0x134a0(%rip),%rax        # 1b738 <g_243>
    8298:	48 89 85 38 f8 ff ff 	mov    %rax,-0x7c8(%rbp)
    829f:	48 8d 85 b0 f8 ff ff 	lea    -0x750(%rbp),%rax
    82a6:	48 83 c0 48          	add    $0x48,%rax
    82aa:	48 89 85 40 f8 ff ff 	mov    %rax,-0x7c0(%rbp)
    82b1:	48 8d 85 b8 f7 ff ff 	lea    -0x848(%rbp),%rax
    82b8:	48 89 85 48 f8 ff ff 	mov    %rax,-0x7b8(%rbp)
    82bf:	c7 85 9c f7 ff ff 72 	movl   $0x7cd01e72,-0x864(%rbp)
    82c6:	1e d0 7c 
    82c9:	48 8d 05 40 40 01 00 	lea    0x14040(%rip),%rax        # 1c310 <g_2489>
    82d0:	48 89 85 50 f8 ff ff 	mov    %rax,-0x7b0(%rbp)
    82d7:	48 8b 05 4a 34 01 00 	mov    0x1344a(%rip),%rax        # 1b728 <g_159>
    82de:	8b 18                	mov    (%rax),%ebx
    82e0:	be 01 00 00 00       	mov    $0x1,%esi
    82e5:	bf 42 68 00 00       	mov    $0x6842,%edi
    82ea:	e8 59 eb ff ff       	callq  6e48 <safe_rshift_func_uint16_t_u_s>
    82ef:	0f b7 c0             	movzwl %ax,%eax
    82f2:	39 c3                	cmp    %eax,%ebx
    82f4:	72 22                	jb     8318 <func_13+0x863>
    82f6:	48 8b 95 50 f9 ff ff 	mov    -0x6b0(%rbp),%rdx
    82fd:	48 8b 85 40 f8 ff ff 	mov    -0x7c0(%rbp),%rax
    8304:	48 89 10             	mov    %rdx,(%rax)
    8307:	48 8b 95 b8 f7 ff ff 	mov    -0x848(%rbp),%rdx
    830e:	48 8b 85 48 f8 ff ff 	mov    -0x7b8(%rbp),%rax
    8315:	48 89 10             	mov    %rdx,(%rax)
    8318:	48 83 bd 18 f8 ff ff 	cmpq   $0x0,-0x7e8(%rbp)
    831f:	00 
    8320:	0f 95 c0             	setne  %al
    8323:	0f b6 d0             	movzbl %al,%edx
    8326:	8b 85 80 f7 ff ff    	mov    -0x880(%rbp),%eax
    832c:	0f b6 c0             	movzbl %al,%eax
    832f:	89 d6                	mov    %edx,%esi
    8331:	89 c7                	mov    %eax,%edi
    8333:	e8 5b e8 ff ff       	callq  6b93 <safe_mul_func_uint8_t_u_u>
    8338:	8b 85 5c f8 ff ff    	mov    -0x7a4(%rbp),%eax
    833e:	48 98                	cltq   
    8340:	83 e0 5c             	and    $0x5c,%eax
    8343:	48 3d ff 00 00 00    	cmp    $0xff,%rax
    8349:	77 07                	ja     8352 <func_13+0x89d>
    834b:	b8 01 00 00 00       	mov    $0x1,%eax
    8350:	eb 05                	jmp    8357 <func_13+0x8a2>
    8352:	b8 00 00 00 00       	mov    $0x0,%eax
    8357:	3d bf 00 00 00       	cmp    $0xbf,%eax
    835c:	7e 09                	jle    8367 <func_13+0x8b2>
    835e:	83 bd 6c f7 ff ff 00 	cmpl   $0x0,-0x894(%rbp)
    8365:	74 07                	je     836e <func_13+0x8b9>
    8367:	b8 01 00 00 00       	mov    $0x1,%eax
    836c:	eb 05                	jmp    8373 <func_13+0x8be>
    836e:	b8 00 00 00 00       	mov    $0x0,%eax
    8373:	f7 d0                	not    %eax
    8375:	0f b7 c0             	movzwl %ax,%eax
    8378:	be 54 72 00 00       	mov    $0x7254,%esi
    837d:	89 c7                	mov    %eax,%edi
    837f:	e8 d8 e9 ff ff       	callq  6d5c <safe_mod_func_uint16_t_u_u>
    8384:	0f b7 c0             	movzwl %ax,%eax
    8387:	0b 85 6c f7 ff ff    	or     -0x894(%rbp),%eax
    838d:	83 f0 01             	xor    $0x1,%eax
    8390:	83 f8 02             	cmp    $0x2,%eax
    8393:	0f 96 c0             	setbe  %al
    8396:	0f b6 c0             	movzbl %al,%eax
    8399:	48 8b 95 20 f8 ff ff 	mov    -0x7e0(%rbp),%rdx
    83a0:	31 d0                	xor    %edx,%eax
    83a2:	be 8a df 79 f7       	mov    $0xf779df8a,%esi
    83a7:	89 c7                	mov    %eax,%edi
    83a9:	e8 0a eb ff ff       	callq  6eb8 <safe_add_func_uint32_t_u_u>
    83ae:	83 f8 08             	cmp    $0x8,%eax
    83b1:	0f 97 c0             	seta   %al
    83b4:	0f b6 c0             	movzbl %al,%eax
    83b7:	8b 95 6c f7 ff ff    	mov    -0x894(%rbp),%edx
    83bd:	89 d6                	mov    %edx,%esi
    83bf:	89 c7                	mov    %eax,%edi
    83c1:	e8 6f df ff ff       	callq  6335 <safe_rshift_func_int8_t_s_s>
    83c6:	8b 85 9c f7 ff ff    	mov    -0x864(%rbp),%eax
    83cc:	89 c2                	mov    %eax,%edx
    83ce:	48 8b 85 c0 f7 ff ff 	mov    -0x840(%rbp),%rax
    83d5:	88 10                	mov    %dl,(%rax)
    83d7:	48 8b 85 c0 f7 ff ff 	mov    -0x840(%rbp),%rax
    83de:	0f b6 00             	movzbl (%rax),%eax
    83e1:	0f b6 c0             	movzbl %al,%eax
    83e4:	be 04 00 00 00       	mov    $0x4,%esi
    83e9:	89 c7                	mov    %eax,%edi
    83eb:	e8 ce e8 ff ff       	callq  6cbe <safe_rshift_func_uint8_t_u_u>
    83f0:	0f be c0             	movsbl %al,%eax
    83f3:	be 6f 00 00 00       	mov    $0x6f,%esi
    83f8:	89 c7                	mov    %eax,%edi
    83fa:	e8 32 de ff ff       	callq  6231 <safe_mod_func_int8_t_s_s>
    83ff:	48 0f be c0          	movsbq %al,%rax
    8403:	48 c7 c6 ff ff ff ff 	mov    $0xffffffffffffffff,%rsi
    840a:	48 89 c7             	mov    %rax,%rdi
    840d:	e8 a2 e5 ff ff       	callq  69b4 <safe_mod_func_int64_t_s_s>
    8412:	48 0f be 95 7f f7 ff 	movsbq -0x881(%rbp),%rdx
    8419:	ff 
    841a:	48 39 d0             	cmp    %rdx,%rax
    841d:	0f 9f c0             	setg   %al
    8420:	0f b6 d0             	movzbl %al,%edx
    8423:	48 8b 05 36 36 01 00 	mov    0x13636(%rip),%rax        # 1ba60 <g_880>
    842a:	48 8b 00             	mov    (%rax),%rax
    842d:	48 39 c2             	cmp    %rax,%rdx
    8430:	0f 95 c2             	setne  %dl
    8433:	48 8b 05 86 3e 01 00 	mov    0x13e86(%rip),%rax        # 1c2c0 <g_1829>
    843a:	48 8b 00             	mov    (%rax),%rax
    843d:	48 8b 00             	mov    (%rax),%rax
    8440:	48 8b 00             	mov    (%rax),%rax
    8443:	0f b6 d2             	movzbl %dl,%edx
    8446:	89 10                	mov    %edx,(%rax)
    8448:	8b 10                	mov    (%rax),%edx
    844a:	8b 85 84 f7 ff ff    	mov    -0x87c(%rbp),%eax
    8450:	09 d0                	or     %edx,%eax
    8452:	89 85 84 f7 ff ff    	mov    %eax,-0x87c(%rbp)
    8458:	48 8b 05 59 3e 01 00 	mov    0x13e59(%rip),%rax        # 1c2b8 <g_1748>
    845f:	0f b7 10             	movzwl (%rax),%edx
    8462:	8b 85 5c f8 ff ff    	mov    -0x7a4(%rbp),%eax
    8468:	89 c1                	mov    %eax,%ecx
    846a:	48 8b 05 47 3e 01 00 	mov    0x13e47(%rip),%rax        # 1c2b8 <g_1748>
    8471:	09 ca                	or     %ecx,%edx
    8473:	66 89 10             	mov    %dx,(%rax)
    8476:	0f b7 00             	movzwl (%rax),%eax
    8479:	98                   	cwtl   
    847a:	be 09 00 00 00       	mov    $0x9,%esi
    847f:	89 c7                	mov    %eax,%edi
    8481:	e8 dd e0 ff ff       	callq  6563 <safe_rshift_func_int16_t_s_u>
    8486:	66 85 c0             	test   %ax,%ax
    8489:	74 76                	je     8501 <func_13+0xa4c>
    848b:	48 8b 85 20 f8 ff ff 	mov    -0x7e0(%rbp),%rax
    8492:	0f be d0             	movsbl %al,%edx
    8495:	48 8b 05 0c 35 01 00 	mov    0x1350c(%rip),%rax        # 1b9a8 <g_673>
    849c:	48 8b 00             	mov    (%rax),%rax
    849f:	48 8b 00             	mov    (%rax),%rax
    84a2:	8b 00                	mov    (%rax),%eax
    84a4:	85 c0                	test   %eax,%eax
    84a6:	0f 9e c0             	setle  %al
    84a9:	0f b6 c0             	movzbl %al,%eax
    84ac:	89 d6                	mov    %edx,%esi
    84ae:	89 c7                	mov    %eax,%edi
    84b0:	e8 7c dd ff ff       	callq  6231 <safe_mod_func_int8_t_s_s>
    84b5:	84 c0                	test   %al,%al
    84b7:	74 48                	je     8501 <func_13+0xa4c>
    84b9:	8b 85 6c f7 ff ff    	mov    -0x894(%rbp),%eax
    84bf:	0f b6 d8             	movzbl %al,%ebx
    84c2:	8b 85 94 f7 ff ff    	mov    -0x86c(%rbp),%eax
    84c8:	0f b6 d0             	movzbl %al,%edx
    84cb:	48 8b 85 30 fd ff ff 	mov    -0x2d0(%rbp),%rax
    84d2:	48 39 85 50 f8 ff ff 	cmp    %rax,-0x7b0(%rbp)
    84d9:	0f 95 c0             	setne  %al
    84dc:	0f b6 c0             	movzbl %al,%eax
    84df:	c1 e8 1f             	shr    $0x1f,%eax
    84e2:	0f b6 c0             	movzbl %al,%eax
    84e5:	89 d6                	mov    %edx,%esi
    84e7:	89 c7                	mov    %eax,%edi
    84e9:	e8 8a e6 ff ff       	callq  6b78 <safe_sub_func_uint8_t_u_u>
    84ee:	89 de                	mov    %ebx,%esi
    84f0:	bf 00 00 00 00       	mov    $0x0,%edi
    84f5:	e8 7e e6 ff ff       	callq  6b78 <safe_sub_func_uint8_t_u_u>
    84fa:	b8 01 00 00 00       	mov    $0x1,%eax
    84ff:	eb 05                	jmp    8506 <func_13+0xa51>
    8501:	b8 00 00 00 00       	mov    $0x0,%eax
    8506:	89 c2                	mov    %eax,%edx
    8508:	48 8b 85 c0 f7 ff ff 	mov    -0x840(%rbp),%rax
    850f:	88 10                	mov    %dl,(%rax)
    8511:	48 8b 85 c0 f7 ff ff 	mov    -0x840(%rbp),%rax
    8518:	0f b6 00             	movzbl (%rax),%eax
    851b:	0f be c0             	movsbl %al,%eax
    851e:	89 c6                	mov    %eax,%esi
    8520:	bf ef ff ff ff       	mov    $0xffffffef,%edi
    8525:	e8 07 dd ff ff       	callq  6231 <safe_mod_func_int8_t_s_s>
    852a:	0f be c0             	movsbl %al,%eax
    852d:	89 85 58 f8 ff ff    	mov    %eax,-0x7a8(%rbp)
    8533:	8b 85 58 f8 ff ff    	mov    -0x7a8(%rbp),%eax
    8539:	89 c2                	mov    %eax,%edx
    853b:	0f b6 85 7b f7 ff ff 	movzbl -0x885(%rbp),%eax
    8542:	21 d0                	and    %edx,%eax
    8544:	88 85 7b f7 ff ff    	mov    %al,-0x885(%rbp)
    854a:	48 8b 05 df 3d 01 00 	mov    0x13ddf(%rip),%rax        # 1c330 <g_2505>
    8551:	48 8b 00             	mov    (%rax),%rax
    8554:	48 89 85 28 f8 ff ff 	mov    %rax,-0x7d8(%rbp)
    855b:	48 83 bd 28 f8 ff ff 	cmpq   $0x0,-0x7d8(%rbp)
    8562:	00 
    8563:	74 51                	je     85b6 <func_13+0xb01>
    8565:	8b 85 58 f8 ff ff    	mov    -0x7a8(%rbp),%eax
    856b:	0f be c0             	movsbl %al,%eax
    856e:	be 06 00 00 00       	mov    $0x6,%esi
    8573:	89 c7                	mov    %eax,%edi
    8575:	e8 27 dd ff ff       	callq  62a1 <safe_lshift_func_int8_t_s_s>
    857a:	0f b6 d8             	movzbl %al,%ebx
    857d:	83 bd 94 f7 ff ff 01 	cmpl   $0x1,-0x86c(%rbp)
    8584:	0f 9e c0             	setle  %al
    8587:	0f b6 c0             	movzbl %al,%eax
    858a:	be fc 00 00 00       	mov    $0xfc,%esi
    858f:	89 c7                	mov    %eax,%edi
    8591:	e8 c4 e5 ff ff       	callq  6b5a <safe_add_func_uint8_t_u_u>
    8596:	0f b6 c0             	movzbl %al,%eax
    8599:	89 de                	mov    %ebx,%esi
    859b:	89 c7                	mov    %eax,%edi
    859d:	e8 39 e6 ff ff       	callq  6bdb <safe_div_func_uint8_t_u_u>
    85a2:	84 c0                	test   %al,%al
    85a4:	75 09                	jne    85af <func_13+0xafa>
    85a6:	83 bd 6c f7 ff ff 00 	cmpl   $0x0,-0x894(%rbp)
    85ad:	74 07                	je     85b6 <func_13+0xb01>
    85af:	b8 01 00 00 00       	mov    $0x1,%eax
    85b4:	eb 05                	jmp    85bb <func_13+0xb06>
    85b6:	b8 00 00 00 00       	mov    $0x0,%eax
    85bb:	83 e0 01             	and    $0x1,%eax
    85be:	83 bd 98 f7 ff ff 01 	cmpl   $0x1,-0x868(%rbp)
    85c5:	0f 95 c2             	setne  %dl
    85c8:	0f b6 ca             	movzbl %dl,%ecx
    85cb:	48 8b 15 d6 3c 01 00 	mov    0x13cd6(%rip),%rdx        # 1c2a8 <g_1385>
    85d2:	0f b7 12             	movzwl (%rdx),%edx
    85d5:	0f b7 d2             	movzwl %dx,%edx
    85d8:	39 d1                	cmp    %edx,%ecx
    85da:	0f 9e c2             	setle  %dl
    85dd:	31 d0                	xor    %edx,%eax
    85df:	88 85 7d f7 ff ff    	mov    %al,-0x883(%rbp)
    85e5:	48 8b 05 44 31 01 00 	mov    0x13144(%rip),%rax        # 1b730 <g_208>
    85ec:	0f b7 00             	movzwl (%rax),%eax
    85ef:	98                   	cwtl   
    85f0:	be 00 00 00 00       	mov    $0x0,%esi
    85f5:	89 c7                	mov    %eax,%edi
    85f7:	e8 96 de ff ff       	callq  6492 <safe_lshift_func_int16_t_s_s>
    85fc:	89 c2                	mov    %eax,%edx
    85fe:	48 8b 05 1b 31 01 00 	mov    0x1311b(%rip),%rax        # 1b720 <g_85>
    8605:	0f bf d2             	movswl %dx,%edx
    8608:	89 10                	mov    %edx,(%rax)
    860a:	48 8b 05 af 3c 01 00 	mov    0x13caf(%rip),%rax        # 1c2c0 <g_1829>
    8611:	48 8b 00             	mov    (%rax),%rax
    8614:	48 8b 00             	mov    (%rax),%rax
    8617:	48 8b 00             	mov    (%rax),%rax
    861a:	8b 95 90 f7 ff ff    	mov    -0x870(%rbp),%edx
    8620:	89 10                	mov    %edx,(%rax)
    8622:	c7 05 48 1d 01 00 00 	movl   $0x0,0x11d48(%rip)        # 1a374 <g_865>
    8629:	00 00 00 
    862c:	e9 b0 00 00 00       	jmpq   86e1 <func_13+0xc2c>
    8631:	c7 05 55 1d 01 00 00 	movl   $0x0,0x11d55(%rip)        # 1a390 <g_1253>
    8638:	00 00 00 
    863b:	e9 83 00 00 00       	jmpq   86c3 <func_13+0xc0e>
    8640:	c7 05 ea 1c 01 00 00 	movl   $0x0,0x11cea(%rip)        # 1a334 <g_406>
    8647:	00 00 00 
    864a:	eb 5d                	jmp    86a9 <func_13+0xbf4>
    864c:	8b 15 22 1d 01 00    	mov    0x11d22(%rip),%edx        # 1a374 <g_865>
    8652:	8b 05 38 1d 01 00    	mov    0x11d38(%rip),%eax        # 1a390 <g_1253>
    8658:	8b 0d d6 1c 01 00    	mov    0x11cd6(%rip),%ecx        # 1a334 <g_406>
    865e:	48 63 f1             	movslq %ecx,%rsi
    8661:	48 63 d2             	movslq %edx,%rdx
    8664:	48 63 c8             	movslq %eax,%rcx
    8667:	48 89 d0             	mov    %rdx,%rax
    866a:	48 c1 e0 02          	shl    $0x2,%rax
    866e:	48 01 d0             	add    %rdx,%rax
    8671:	48 8d 14 85 00 00 00 	lea    0x0(,%rax,4),%rdx
    8678:	00 
    8679:	48 01 d0             	add    %rdx,%rax
    867c:	48 89 ca             	mov    %rcx,%rdx
    867f:	48 c1 e2 02          	shl    $0x2,%rdx
    8683:	48 01 ca             	add    %rcx,%rdx
    8686:	48 01 d0             	add    %rdx,%rax
    8689:	48 8d 14 30          	lea    (%rax,%rsi,1),%rdx
    868d:	48 8d 05 6c 1d 01 00 	lea    0x11d6c(%rip),%rax        # 1a400 <g_1885>
    8694:	48 01 d0             	add    %rdx,%rax
    8697:	c6 00 e2             	movb   $0xe2,(%rax)
    869a:	8b 05 94 1c 01 00    	mov    0x11c94(%rip),%eax        # 1a334 <g_406>
    86a0:	83 c0 01             	add    $0x1,%eax
    86a3:	89 05 8b 1c 01 00    	mov    %eax,0x11c8b(%rip)        # 1a334 <g_406>
    86a9:	8b 05 85 1c 01 00    	mov    0x11c85(%rip),%eax        # 1a334 <g_406>
    86af:	83 f8 04             	cmp    $0x4,%eax
    86b2:	7e 98                	jle    864c <func_13+0xb97>
    86b4:	8b 05 d6 1c 01 00    	mov    0x11cd6(%rip),%eax        # 1a390 <g_1253>
    86ba:	83 c0 01             	add    $0x1,%eax
    86bd:	89 05 cd 1c 01 00    	mov    %eax,0x11ccd(%rip)        # 1a390 <g_1253>
    86c3:	8b 05 c7 1c 01 00    	mov    0x11cc7(%rip),%eax        # 1a390 <g_1253>
    86c9:	83 f8 04             	cmp    $0x4,%eax
    86cc:	0f 8e 6e ff ff ff    	jle    8640 <func_13+0xb8b>
    86d2:	8b 05 9c 1c 01 00    	mov    0x11c9c(%rip),%eax        # 1a374 <g_865>
    86d8:	83 c0 01             	add    $0x1,%eax
    86db:	89 05 93 1c 01 00    	mov    %eax,0x11c93(%rip)        # 1a374 <g_865>
    86e1:	8b 05 8d 1c 01 00    	mov    0x11c8d(%rip),%eax        # 1a374 <g_865>
    86e7:	83 f8 06             	cmp    $0x6,%eax
    86ea:	0f 8e 41 ff ff ff    	jle    8631 <func_13+0xb7c>
    86f0:	8b 05 b2 1c 01 00    	mov    0x11cb2(%rip),%eax        # 1a3a8 <g_1342>
    86f6:	83 c0 01             	add    $0x1,%eax
    86f9:	89 05 a9 1c 01 00    	mov    %eax,0x11ca9(%rip)        # 1a3a8 <g_1342>
    86ff:	8b 05 a3 1c 01 00    	mov    0x11ca3(%rip),%eax        # 1a3a8 <g_1342>
    8705:	85 c0                	test   %eax,%eax
    8707:	0f 84 50 fb ff ff    	je     825d <func_13+0x7a8>
    870d:	48 8b 05 ec 3b 01 00 	mov    0x13bec(%rip),%rax        # 1c300 <g_2094>
    8714:	48 8b 00             	mov    (%rax),%rax
    8717:	48 8b 00             	mov    (%rax),%rax
    871a:	48 8b 00             	mov    (%rax),%rax
    871d:	c7 00 09 00 00 00    	movl   $0x9,(%rax)
    8723:	8b 00                	mov    (%rax),%eax
    8725:	89 c6                	mov    %eax,%esi
    8727:	bf 36 83 3a ba       	mov    $0xba3a8336,%edi
    872c:	e8 9f e7 ff ff       	callq  6ed0 <safe_sub_func_uint32_t_u_u>
    8731:	89 c2                	mov    %eax,%edx
    8733:	48 8b 85 c8 f7 ff ff 	mov    -0x838(%rbp),%rax
    873a:	48 8b 00             	mov    (%rax),%rax
    873d:	48 8b 00             	mov    (%rax),%rax
    8740:	48 8b 00             	mov    (%rax),%rax
    8743:	89 10                	mov    %edx,(%rax)
    8745:	48 8b 85 c8 f7 ff ff 	mov    -0x838(%rbp),%rax
    874c:	48 8b 00             	mov    (%rax),%rax
    874f:	48 8b 00             	mov    (%rax),%rax
    8752:	48 8b 00             	mov    (%rax),%rax
    8755:	8b 08                	mov    (%rax),%ecx
    8757:	8b 95 5c f8 ff ff    	mov    -0x7a4(%rbp),%edx
    875d:	48 8b 85 c8 f7 ff ff 	mov    -0x838(%rbp),%rax
    8764:	48 8b 00             	mov    (%rax),%rax
    8767:	48 8b 00             	mov    (%rax),%rax
    876a:	48 8b 00             	mov    (%rax),%rax
    876d:	31 ca                	xor    %ecx,%edx
    876f:	89 10                	mov    %edx,(%rax)
    8771:	0f b6 05 2c 19 01 00 	movzbl 0x1192c(%rip),%eax        # 1a0a4 <g_21>
    8778:	83 c0 01             	add    $0x1,%eax
    877b:	88 05 23 19 01 00    	mov    %al,0x11923(%rip)        # 1a0a4 <g_21>
    8781:	0f b6 05 1c 19 01 00 	movzbl 0x1191c(%rip),%eax        # 1a0a4 <g_21>
    8788:	3c 2e                	cmp    $0x2e,%al
    878a:	0f 85 ac f7 ff ff    	jne    7f3c <func_13+0x487>
    8790:	48 8b 85 70 f8 ff ff 	mov    -0x790(%rbp),%rax
    8797:	48 83 c0 01          	add    $0x1,%rax
    879b:	48 89 85 70 f8 ff ff 	mov    %rax,-0x790(%rbp)
    87a2:	48 8b 05 77 2f 01 00 	mov    0x12f77(%rip),%rax        # 1b720 <g_85>
    87a9:	8b 00                	mov    (%rax),%eax
    87ab:	48 8b 4d e8          	mov    -0x18(%rbp),%rcx
    87af:	64 48 33 0c 25 28 00 	xor    %fs:0x28,%rcx
    87b6:	00 00 
    87b8:	74 05                	je     87bf <func_13+0xd0a>
    87ba:	e8 b1 d8 ff ff       	callq  6070 <__stack_chk_fail@plt>
    87bf:	48 81 c4 a8 08 00 00 	add    $0x8a8,%rsp
    87c6:	5b                   	pop    %rbx
    87c7:	5d                   	pop    %rbp
    87c8:	c3                   	retq   

00000000000087c9 <func_26>:
    87c9:	f3 0f 1e fa          	endbr64 
    87cd:	55                   	push   %rbp
    87ce:	48 89 e5             	mov    %rsp,%rbp
    87d1:	41 57                	push   %r15
    87d3:	41 56                	push   %r14
    87d5:	41 55                	push   %r13
    87d7:	41 54                	push   %r12
    87d9:	53                   	push   %rbx
    87da:	48 81 ec 00 10 00 00 	sub    $0x1000,%rsp
    87e1:	48 83 0c 24 00       	orq    $0x0,(%rsp)
    87e6:	48 81 ec 88 00 00 00 	sub    $0x88,%rsp
    87ed:	48 89 bd 68 ef ff ff 	mov    %rdi,-0x1098(%rbp)
    87f4:	48 89 b5 60 ef ff ff 	mov    %rsi,-0x10a0(%rbp)
    87fb:	64 48 8b 04 25 28 00 	mov    %fs:0x28,%rax
    8802:	00 00 
    8804:	48 89 45 c8          	mov    %rax,-0x38(%rbp)
    8808:	31 c0                	xor    %eax,%eax
    880a:	48 8d 05 ab 18 01 00 	lea    0x118ab(%rip),%rax        # 1a0bc <g_86+0xc>
    8811:	48 89 85 00 f0 ff ff 	mov    %rax,-0x1000(%rbp)
    8818:	48 8d 05 59 1d 01 00 	lea    0x11d59(%rip),%rax        # 1a578 <g_2173+0x98>
    881f:	48 89 85 08 f0 ff ff 	mov    %rax,-0xff8(%rbp)
    8826:	48 8d 05 8b 18 01 00 	lea    0x1188b(%rip),%rax        # 1a0b8 <g_86+0x8>
    882d:	48 89 85 10 f0 ff ff 	mov    %rax,-0xff0(%rbp)
    8834:	48 8d 05 3d 1d 01 00 	lea    0x11d3d(%rip),%rax        # 1a578 <g_2173+0x98>
    883b:	48 89 85 18 f0 ff ff 	mov    %rax,-0xfe8(%rbp)
    8842:	48 8d 05 a7 1d 01 00 	lea    0x11da7(%rip),%rax        # 1a5f0 <g_2173+0x110>
    8849:	48 89 85 20 f0 ff ff 	mov    %rax,-0xfe0(%rbp)
    8850:	48 8d 05 61 18 01 00 	lea    0x11861(%rip),%rax        # 1a0b8 <g_86+0x8>
    8857:	48 89 85 28 f0 ff ff 	mov    %rax,-0xfd8(%rbp)
    885e:	48 8d 05 53 18 01 00 	lea    0x11853(%rip),%rax        # 1a0b8 <g_86+0x8>
    8865:	48 89 85 30 f0 ff ff 	mov    %rax,-0xfd0(%rbp)
    886c:	48 8d 05 05 1d 01 00 	lea    0x11d05(%rip),%rax        # 1a578 <g_2173+0x98>
    8873:	48 89 85 38 f0 ff ff 	mov    %rax,-0xfc8(%rbp)
    887a:	48 8d 05 37 18 01 00 	lea    0x11837(%rip),%rax        # 1a0b8 <g_86+0x8>
    8881:	48 89 85 40 f0 ff ff 	mov    %rax,-0xfc0(%rbp)
    8888:	48 8d 05 e9 1c 01 00 	lea    0x11ce9(%rip),%rax        # 1a578 <g_2173+0x98>
    888f:	48 89 85 48 f0 ff ff 	mov    %rax,-0xfb8(%rbp)
    8896:	c6 85 7e ef ff ff e1 	movb   $0xe1,-0x1082(%rbp)
    889d:	c7 85 98 ef ff ff 01 	movl   $0x1,-0x1068(%rbp)
    88a4:	00 00 00 
    88a7:	c7 85 9c ef ff ff c3 	movl   $0xda0246c3,-0x1064(%rbp)
    88ae:	46 02 da 
    88b1:	c7 85 a0 ef ff ff 00 	movl   $0x0,-0x1060(%rbp)
    88b8:	00 00 00 
    88bb:	48 8d 05 e6 2e 01 00 	lea    0x12ee6(%rip),%rax        # 1b7a8 <g_320+0x48>
    88c2:	48 89 85 d0 ef ff ff 	mov    %rax,-0x1030(%rbp)
    88c9:	48 8d 05 e8 1b 01 00 	lea    0x11be8(%rip),%rax        # 1a4b8 <g_1924>
    88d0:	48 89 85 d0 f0 ff ff 	mov    %rax,-0xf30(%rbp)
    88d7:	48 8d 05 da 1b 01 00 	lea    0x11bda(%rip),%rax        # 1a4b8 <g_1924>
    88de:	48 89 85 d8 f0 ff ff 	mov    %rax,-0xf28(%rbp)
    88e5:	48 8d 05 cc 1b 01 00 	lea    0x11bcc(%rip),%rax        # 1a4b8 <g_1924>
    88ec:	48 89 85 e0 f0 ff ff 	mov    %rax,-0xf20(%rbp)
    88f3:	48 8d 05 be 1b 01 00 	lea    0x11bbe(%rip),%rax        # 1a4b8 <g_1924>
    88fa:	48 89 85 e8 f0 ff ff 	mov    %rax,-0xf18(%rbp)
    8901:	48 8d 05 b0 1b 01 00 	lea    0x11bb0(%rip),%rax        # 1a4b8 <g_1924>
    8908:	48 89 85 f0 f0 ff ff 	mov    %rax,-0xf10(%rbp)
    890f:	c7 85 a4 ef ff ff fe 	movl   $0xfffffffe,-0x105c(%rbp)
    8916:	ff ff ff 
    8919:	48 c7 85 50 f0 ff ff 	movq   $0x0,-0xfb0(%rbp)
    8920:	00 00 00 00 
    8924:	48 8d 85 60 f5 ff ff 	lea    -0xaa0(%rbp),%rax
    892b:	48 8d 15 2e c7 00 00 	lea    0xc72e(%rip),%rdx        # 15060 <g_1428+0xb>
    8932:	b9 51 00 00 00       	mov    $0x51,%ecx
    8937:	48 89 c7             	mov    %rax,%rdi
    893a:	48 89 d6             	mov    %rdx,%rsi
    893d:	f3 48 a5             	rep movsq %ds:(%rsi),%es:(%rdi)
    8940:	c7 85 a8 ef ff ff 00 	movl   $0x0,-0x1058(%rbp)
    8947:	00 00 00 
    894a:	66 c7 85 82 ef ff ff 	movw   $0x61eb,-0x107e(%rbp)
    8951:	eb 61 
    8953:	48 8d 05 36 1a 01 00 	lea    0x11a36(%rip),%rax        # 1a390 <g_1253>
    895a:	48 89 85 d8 ef ff ff 	mov    %rax,-0x1028(%rbp)
    8961:	48 8d 85 d8 ef ff ff 	lea    -0x1028(%rbp),%rax
    8968:	48 89 85 e0 ef ff ff 	mov    %rax,-0x1020(%rbp)
    896f:	66 c7 85 84 ef ff ff 	movw   $0xd62e,-0x107c(%rbp)
    8976:	2e d6 
    8978:	c6 85 7f ef ff ff 05 	movb   $0x5,-0x1081(%rbp)
    897f:	48 8d 05 c2 2d 01 00 	lea    0x12dc2(%rip),%rax        # 1b748 <g_321>
    8986:	48 89 85 58 f0 ff ff 	mov    %rax,-0xfa8(%rbp)
    898d:	c7 85 88 ef ff ff 00 	movl   $0x0,-0x1078(%rbp)
    8994:	00 00 00 
    8997:	eb 1e                	jmp    89b7 <func_26+0x1ee>
    8999:	8b 85 88 ef ff ff    	mov    -0x1078(%rbp),%eax
    899f:	48 98                	cltq   
    89a1:	48 8d 15 10 17 01 00 	lea    0x11710(%rip),%rdx        # 1a0b8 <g_86+0x8>
    89a8:	48 89 94 c5 60 f1 ff 	mov    %rdx,-0xea0(%rbp,%rax,8)
    89af:	ff 
    89b0:	83 85 88 ef ff ff 01 	addl   $0x1,-0x1078(%rbp)
    89b7:	83 bd 88 ef ff ff 07 	cmpl   $0x7,-0x1078(%rbp)
    89be:	7e d9                	jle    8999 <func_26+0x1d0>
    89c0:	0f b6 85 7e ef ff ff 	movzbl -0x1082(%rbp),%eax
    89c7:	83 e8 01             	sub    $0x1,%eax
    89ca:	88 85 7e ef ff ff    	mov    %al,-0x1082(%rbp)
    89d0:	48 8b 85 68 ef ff ff 	mov    -0x1098(%rbp),%rax
    89d7:	8b 00                	mov    (%rax),%eax
    89d9:	85 c0                	test   %eax,%eax
    89db:	0f 84 48 12 00 00    	je     9c29 <func_26+0x1460>
    89e1:	48 c7 85 88 f0 ff ff 	movq   $0x0,-0xf78(%rbp)
    89e8:	00 00 00 00 
    89ec:	48 8d 05 ae 1a 01 00 	lea    0x11aae(%rip),%rax        # 1a4a1 <g_1885+0xa1>
    89f3:	48 89 85 90 f0 ff ff 	mov    %rax,-0xf70(%rbp)
    89fa:	48 8d 05 cb 1a 01 00 	lea    0x11acb(%rip),%rax        # 1a4cc <g_2106>
    8a01:	48 89 85 e8 ef ff ff 	mov    %rax,-0x1018(%rbp)
    8a08:	48 8d 85 e8 ef ff ff 	lea    -0x1018(%rbp),%rax
    8a0f:	48 89 85 80 fa ff ff 	mov    %rax,-0x580(%rbp)
    8a16:	48 8d 85 e8 ef ff ff 	lea    -0x1018(%rbp),%rax
    8a1d:	48 89 85 88 fa ff ff 	mov    %rax,-0x578(%rbp)
    8a24:	48 8d 85 e8 ef ff ff 	lea    -0x1018(%rbp),%rax
    8a2b:	48 89 85 90 fa ff ff 	mov    %rax,-0x570(%rbp)
    8a32:	48 8d 85 e8 ef ff ff 	lea    -0x1018(%rbp),%rax
    8a39:	48 89 85 98 fa ff ff 	mov    %rax,-0x568(%rbp)
    8a40:	48 8d 85 e8 ef ff ff 	lea    -0x1018(%rbp),%rax
    8a47:	48 89 85 a0 fa ff ff 	mov    %rax,-0x560(%rbp)
    8a4e:	48 c7 85 a8 fa ff ff 	movq   $0x0,-0x558(%rbp)
    8a55:	00 00 00 00 
    8a59:	48 c7 85 b0 fa ff ff 	movq   $0x0,-0x550(%rbp)
    8a60:	00 00 00 00 
    8a64:	48 8d 85 e8 ef ff ff 	lea    -0x1018(%rbp),%rax
    8a6b:	48 89 85 b8 fa ff ff 	mov    %rax,-0x548(%rbp)
    8a72:	48 c7 85 c0 fa ff ff 	movq   $0x0,-0x540(%rbp)
    8a79:	00 00 00 00 
    8a7d:	48 8d 85 e8 ef ff ff 	lea    -0x1018(%rbp),%rax
    8a84:	48 89 85 c8 fa ff ff 	mov    %rax,-0x538(%rbp)
    8a8b:	48 c7 85 d0 fa ff ff 	movq   $0x0,-0x530(%rbp)
    8a92:	00 00 00 00 
    8a96:	48 8d 85 e8 ef ff ff 	lea    -0x1018(%rbp),%rax
    8a9d:	48 89 85 d8 fa ff ff 	mov    %rax,-0x528(%rbp)
    8aa4:	48 8d 85 e8 ef ff ff 	lea    -0x1018(%rbp),%rax
    8aab:	48 89 85 e0 fa ff ff 	mov    %rax,-0x520(%rbp)
    8ab2:	48 8d 85 e8 ef ff ff 	lea    -0x1018(%rbp),%rax
    8ab9:	48 89 85 e8 fa ff ff 	mov    %rax,-0x518(%rbp)
    8ac0:	48 8d 85 e8 ef ff ff 	lea    -0x1018(%rbp),%rax
    8ac7:	48 89 85 f0 fa ff ff 	mov    %rax,-0x510(%rbp)
    8ace:	48 c7 85 f8 fa ff ff 	movq   $0x0,-0x508(%rbp)
    8ad5:	00 00 00 00 
    8ad9:	48 c7 85 00 fb ff ff 	movq   $0x0,-0x500(%rbp)
    8ae0:	00 00 00 00 
    8ae4:	48 8d 85 e8 ef ff ff 	lea    -0x1018(%rbp),%rax
    8aeb:	48 89 85 08 fb ff ff 	mov    %rax,-0x4f8(%rbp)
    8af2:	48 8d 85 e8 ef ff ff 	lea    -0x1018(%rbp),%rax
    8af9:	48 89 85 10 fb ff ff 	mov    %rax,-0x4f0(%rbp)
    8b00:	48 8d 85 e8 ef ff ff 	lea    -0x1018(%rbp),%rax
    8b07:	48 89 85 18 fb ff ff 	mov    %rax,-0x4e8(%rbp)
    8b0e:	48 c7 85 20 fb ff ff 	movq   $0x0,-0x4e0(%rbp)
    8b15:	00 00 00 00 
    8b19:	48 8d 85 e8 ef ff ff 	lea    -0x1018(%rbp),%rax
    8b20:	48 89 85 28 fb ff ff 	mov    %rax,-0x4d8(%rbp)
    8b27:	48 8d 85 e8 ef ff ff 	lea    -0x1018(%rbp),%rax
    8b2e:	48 89 85 30 fb ff ff 	mov    %rax,-0x4d0(%rbp)
    8b35:	48 8d 85 e8 ef ff ff 	lea    -0x1018(%rbp),%rax
    8b3c:	48 89 85 38 fb ff ff 	mov    %rax,-0x4c8(%rbp)
    8b43:	48 c7 85 40 fb ff ff 	movq   $0x0,-0x4c0(%rbp)
    8b4a:	00 00 00 00 
    8b4e:	48 8d 85 e8 ef ff ff 	lea    -0x1018(%rbp),%rax
    8b55:	48 89 85 48 fb ff ff 	mov    %rax,-0x4b8(%rbp)
    8b5c:	48 8d 85 e8 ef ff ff 	lea    -0x1018(%rbp),%rax
    8b63:	48 89 85 50 fb ff ff 	mov    %rax,-0x4b0(%rbp)
    8b6a:	48 8d 85 e8 ef ff ff 	lea    -0x1018(%rbp),%rax
    8b71:	48 89 85 58 fb ff ff 	mov    %rax,-0x4a8(%rbp)
    8b78:	48 8d 85 e8 ef ff ff 	lea    -0x1018(%rbp),%rax
    8b7f:	48 89 85 60 fb ff ff 	mov    %rax,-0x4a0(%rbp)
    8b86:	48 8d 85 e8 ef ff ff 	lea    -0x1018(%rbp),%rax
    8b8d:	48 89 85 68 fb ff ff 	mov    %rax,-0x498(%rbp)
    8b94:	48 8d 85 e8 ef ff ff 	lea    -0x1018(%rbp),%rax
    8b9b:	48 89 85 70 fb ff ff 	mov    %rax,-0x490(%rbp)
    8ba2:	48 8d 85 e8 ef ff ff 	lea    -0x1018(%rbp),%rax
    8ba9:	48 89 85 78 fb ff ff 	mov    %rax,-0x488(%rbp)
    8bb0:	48 c7 85 80 fb ff ff 	movq   $0x0,-0x480(%rbp)
    8bb7:	00 00 00 00 
    8bbb:	48 c7 85 88 fb ff ff 	movq   $0x0,-0x478(%rbp)
    8bc2:	00 00 00 00 
    8bc6:	48 8d 85 e8 ef ff ff 	lea    -0x1018(%rbp),%rax
    8bcd:	48 89 85 90 fb ff ff 	mov    %rax,-0x470(%rbp)
    8bd4:	48 8d 85 e8 ef ff ff 	lea    -0x1018(%rbp),%rax
    8bdb:	48 89 85 98 fb ff ff 	mov    %rax,-0x468(%rbp)
    8be2:	48 8d 85 e8 ef ff ff 	lea    -0x1018(%rbp),%rax
    8be9:	48 89 85 a0 fb ff ff 	mov    %rax,-0x460(%rbp)
    8bf0:	48 8d 85 e8 ef ff ff 	lea    -0x1018(%rbp),%rax
    8bf7:	48 89 85 a8 fb ff ff 	mov    %rax,-0x458(%rbp)
    8bfe:	48 8d 85 e8 ef ff ff 	lea    -0x1018(%rbp),%rax
    8c05:	48 89 85 b0 fb ff ff 	mov    %rax,-0x450(%rbp)
    8c0c:	48 8d 85 e8 ef ff ff 	lea    -0x1018(%rbp),%rax
    8c13:	48 89 85 b8 fb ff ff 	mov    %rax,-0x448(%rbp)
    8c1a:	48 8d 85 e8 ef ff ff 	lea    -0x1018(%rbp),%rax
    8c21:	48 89 85 c0 fb ff ff 	mov    %rax,-0x440(%rbp)
    8c28:	48 8d 85 e8 ef ff ff 	lea    -0x1018(%rbp),%rax
    8c2f:	48 89 85 c8 fb ff ff 	mov    %rax,-0x438(%rbp)
    8c36:	48 8d 85 e8 ef ff ff 	lea    -0x1018(%rbp),%rax
    8c3d:	48 89 85 d0 fb ff ff 	mov    %rax,-0x430(%rbp)
    8c44:	48 8d 85 e8 ef ff ff 	lea    -0x1018(%rbp),%rax
    8c4b:	48 89 85 d8 fb ff ff 	mov    %rax,-0x428(%rbp)
    8c52:	48 c7 85 e0 fb ff ff 	movq   $0x0,-0x420(%rbp)
    8c59:	00 00 00 00 
    8c5d:	48 c7 85 e8 fb ff ff 	movq   $0x0,-0x418(%rbp)
    8c64:	00 00 00 00 
    8c68:	48 8d 85 e8 ef ff ff 	lea    -0x1018(%rbp),%rax
    8c6f:	48 89 85 f0 fb ff ff 	mov    %rax,-0x410(%rbp)
    8c76:	48 c7 85 f8 fb ff ff 	movq   $0x0,-0x408(%rbp)
    8c7d:	00 00 00 00 
    8c81:	48 8d 85 e8 ef ff ff 	lea    -0x1018(%rbp),%rax
    8c88:	48 89 85 00 fc ff ff 	mov    %rax,-0x400(%rbp)
    8c8f:	48 c7 85 08 fc ff ff 	movq   $0x0,-0x3f8(%rbp)
    8c96:	00 00 00 00 
    8c9a:	48 8d 85 e8 ef ff ff 	lea    -0x1018(%rbp),%rax
    8ca1:	48 89 85 10 fc ff ff 	mov    %rax,-0x3f0(%rbp)
    8ca8:	48 8d 85 e8 ef ff ff 	lea    -0x1018(%rbp),%rax
    8caf:	48 89 85 18 fc ff ff 	mov    %rax,-0x3e8(%rbp)
    8cb6:	48 8d 85 e8 ef ff ff 	lea    -0x1018(%rbp),%rax
    8cbd:	48 89 85 20 fc ff ff 	mov    %rax,-0x3e0(%rbp)
    8cc4:	48 8d 85 e8 ef ff ff 	lea    -0x1018(%rbp),%rax
    8ccb:	48 89 85 28 fc ff ff 	mov    %rax,-0x3d8(%rbp)
    8cd2:	48 c7 85 30 fc ff ff 	movq   $0x0,-0x3d0(%rbp)
    8cd9:	00 00 00 00 
    8cdd:	48 c7 85 38 fc ff ff 	movq   $0x0,-0x3c8(%rbp)
    8ce4:	00 00 00 00 
    8ce8:	48 8d 85 e8 ef ff ff 	lea    -0x1018(%rbp),%rax
    8cef:	48 89 85 40 fc ff ff 	mov    %rax,-0x3c0(%rbp)
    8cf6:	48 8d 85 e8 ef ff ff 	lea    -0x1018(%rbp),%rax
    8cfd:	48 89 85 48 fc ff ff 	mov    %rax,-0x3b8(%rbp)
    8d04:	48 8d 85 e8 ef ff ff 	lea    -0x1018(%rbp),%rax
    8d0b:	48 89 85 50 fc ff ff 	mov    %rax,-0x3b0(%rbp)
    8d12:	48 c7 85 58 fc ff ff 	movq   $0x0,-0x3a8(%rbp)
    8d19:	00 00 00 00 
    8d1d:	48 8d 85 e8 ef ff ff 	lea    -0x1018(%rbp),%rax
    8d24:	48 89 85 60 fc ff ff 	mov    %rax,-0x3a0(%rbp)
    8d2b:	48 8d 85 e8 ef ff ff 	lea    -0x1018(%rbp),%rax
    8d32:	48 89 85 68 fc ff ff 	mov    %rax,-0x398(%rbp)
    8d39:	48 8d 85 e8 ef ff ff 	lea    -0x1018(%rbp),%rax
    8d40:	48 89 85 70 fc ff ff 	mov    %rax,-0x390(%rbp)
    8d47:	48 c7 85 78 fc ff ff 	movq   $0x0,-0x388(%rbp)
    8d4e:	00 00 00 00 
    8d52:	48 8d 85 e8 ef ff ff 	lea    -0x1018(%rbp),%rax
    8d59:	48 89 85 80 fc ff ff 	mov    %rax,-0x380(%rbp)
    8d60:	48 8d 85 e8 ef ff ff 	lea    -0x1018(%rbp),%rax
    8d67:	48 89 85 88 fc ff ff 	mov    %rax,-0x378(%rbp)
    8d6e:	48 8d 85 e8 ef ff ff 	lea    -0x1018(%rbp),%rax
    8d75:	48 89 85 90 fc ff ff 	mov    %rax,-0x370(%rbp)
    8d7c:	48 8d 85 e8 ef ff ff 	lea    -0x1018(%rbp),%rax
    8d83:	48 89 85 98 fc ff ff 	mov    %rax,-0x368(%rbp)
    8d8a:	48 8d 85 e8 ef ff ff 	lea    -0x1018(%rbp),%rax
    8d91:	48 89 85 a0 fc ff ff 	mov    %rax,-0x360(%rbp)
    8d98:	48 8d 85 e8 ef ff ff 	lea    -0x1018(%rbp),%rax
    8d9f:	48 89 85 a8 fc ff ff 	mov    %rax,-0x358(%rbp)
    8da6:	48 8d 85 e8 ef ff ff 	lea    -0x1018(%rbp),%rax
    8dad:	48 89 85 b0 fc ff ff 	mov    %rax,-0x350(%rbp)
    8db4:	48 c7 85 b8 fc ff ff 	movq   $0x0,-0x348(%rbp)
    8dbb:	00 00 00 00 
    8dbf:	48 c7 85 c0 fc ff ff 	movq   $0x0,-0x340(%rbp)
    8dc6:	00 00 00 00 
    8dca:	48 8d 85 e8 ef ff ff 	lea    -0x1018(%rbp),%rax
    8dd1:	48 89 85 c8 fc ff ff 	mov    %rax,-0x338(%rbp)
    8dd8:	48 8d 85 e8 ef ff ff 	lea    -0x1018(%rbp),%rax
    8ddf:	48 89 85 d0 fc ff ff 	mov    %rax,-0x330(%rbp)
    8de6:	48 8d 85 e8 ef ff ff 	lea    -0x1018(%rbp),%rax
    8ded:	48 89 85 d8 fc ff ff 	mov    %rax,-0x328(%rbp)
    8df4:	48 8d 85 e8 ef ff ff 	lea    -0x1018(%rbp),%rax
    8dfb:	48 89 85 e0 fc ff ff 	mov    %rax,-0x320(%rbp)
    8e02:	48 8d 85 e8 ef ff ff 	lea    -0x1018(%rbp),%rax
    8e09:	48 89 85 e8 fc ff ff 	mov    %rax,-0x318(%rbp)
    8e10:	48 8d 85 e8 ef ff ff 	lea    -0x1018(%rbp),%rax
    8e17:	48 89 85 f0 fc ff ff 	mov    %rax,-0x310(%rbp)
    8e1e:	48 8d 85 e8 ef ff ff 	lea    -0x1018(%rbp),%rax
    8e25:	48 89 85 f8 fc ff ff 	mov    %rax,-0x308(%rbp)
    8e2c:	48 8d 85 e8 ef ff ff 	lea    -0x1018(%rbp),%rax
    8e33:	48 89 85 00 fd ff ff 	mov    %rax,-0x300(%rbp)
    8e3a:	48 8d 85 e8 ef ff ff 	lea    -0x1018(%rbp),%rax
    8e41:	48 89 85 08 fd ff ff 	mov    %rax,-0x2f8(%rbp)
    8e48:	48 8d 85 e8 ef ff ff 	lea    -0x1018(%rbp),%rax
    8e4f:	48 89 85 10 fd ff ff 	mov    %rax,-0x2f0(%rbp)
    8e56:	48 c7 85 18 fd ff ff 	movq   $0x0,-0x2e8(%rbp)
    8e5d:	00 00 00 00 
    8e61:	48 c7 85 20 fd ff ff 	movq   $0x0,-0x2e0(%rbp)
    8e68:	00 00 00 00 
    8e6c:	48 8d 85 e8 ef ff ff 	lea    -0x1018(%rbp),%rax
    8e73:	48 89 85 28 fd ff ff 	mov    %rax,-0x2d8(%rbp)
    8e7a:	48 c7 85 30 fd ff ff 	movq   $0x0,-0x2d0(%rbp)
    8e81:	00 00 00 00 
    8e85:	48 8d 85 e8 ef ff ff 	lea    -0x1018(%rbp),%rax
    8e8c:	48 89 85 38 fd ff ff 	mov    %rax,-0x2c8(%rbp)
    8e93:	48 c7 85 40 fd ff ff 	movq   $0x0,-0x2c0(%rbp)
    8e9a:	00 00 00 00 
    8e9e:	48 8d 85 e8 ef ff ff 	lea    -0x1018(%rbp),%rax
    8ea5:	48 89 85 48 fd ff ff 	mov    %rax,-0x2b8(%rbp)
    8eac:	48 8d 85 e8 ef ff ff 	lea    -0x1018(%rbp),%rax
    8eb3:	48 89 85 50 fd ff ff 	mov    %rax,-0x2b0(%rbp)
    8eba:	48 8d 85 e8 ef ff ff 	lea    -0x1018(%rbp),%rax
    8ec1:	48 89 85 58 fd ff ff 	mov    %rax,-0x2a8(%rbp)
    8ec8:	48 8d 85 e8 ef ff ff 	lea    -0x1018(%rbp),%rax
    8ecf:	48 89 85 60 fd ff ff 	mov    %rax,-0x2a0(%rbp)
    8ed6:	48 c7 85 68 fd ff ff 	movq   $0x0,-0x298(%rbp)
    8edd:	00 00 00 00 
    8ee1:	48 c7 85 70 fd ff ff 	movq   $0x0,-0x290(%rbp)
    8ee8:	00 00 00 00 
    8eec:	48 8d 85 e8 ef ff ff 	lea    -0x1018(%rbp),%rax
    8ef3:	48 89 85 78 fd ff ff 	mov    %rax,-0x288(%rbp)
    8efa:	48 8d 85 e8 ef ff ff 	lea    -0x1018(%rbp),%rax
    8f01:	48 89 85 80 fd ff ff 	mov    %rax,-0x280(%rbp)
    8f08:	48 8d 85 e8 ef ff ff 	lea    -0x1018(%rbp),%rax
    8f0f:	48 89 85 88 fd ff ff 	mov    %rax,-0x278(%rbp)
    8f16:	48 c7 85 90 fd ff ff 	movq   $0x0,-0x270(%rbp)
    8f1d:	00 00 00 00 
    8f21:	48 8d 85 e8 ef ff ff 	lea    -0x1018(%rbp),%rax
    8f28:	48 89 85 98 fd ff ff 	mov    %rax,-0x268(%rbp)
    8f2f:	48 8d 85 e8 ef ff ff 	lea    -0x1018(%rbp),%rax
    8f36:	48 89 85 a0 fd ff ff 	mov    %rax,-0x260(%rbp)
    8f3d:	48 8d 85 e8 ef ff ff 	lea    -0x1018(%rbp),%rax
    8f44:	48 89 85 a8 fd ff ff 	mov    %rax,-0x258(%rbp)
    8f4b:	48 c7 85 b0 fd ff ff 	movq   $0x0,-0x250(%rbp)
    8f52:	00 00 00 00 
    8f56:	48 8d 85 e8 ef ff ff 	lea    -0x1018(%rbp),%rax
    8f5d:	48 89 85 b8 fd ff ff 	mov    %rax,-0x248(%rbp)
    8f64:	48 8d 85 e8 ef ff ff 	lea    -0x1018(%rbp),%rax
    8f6b:	48 89 85 c0 fd ff ff 	mov    %rax,-0x240(%rbp)
    8f72:	48 8d 85 e8 ef ff ff 	lea    -0x1018(%rbp),%rax
    8f79:	48 89 85 c8 fd ff ff 	mov    %rax,-0x238(%rbp)
    8f80:	48 8d 85 e8 ef ff ff 	lea    -0x1018(%rbp),%rax
    8f87:	48 89 85 d0 fd ff ff 	mov    %rax,-0x230(%rbp)
    8f8e:	48 8d 85 e8 ef ff ff 	lea    -0x1018(%rbp),%rax
    8f95:	48 89 85 d8 fd ff ff 	mov    %rax,-0x228(%rbp)
    8f9c:	48 8d 85 e8 ef ff ff 	lea    -0x1018(%rbp),%rax
    8fa3:	48 89 85 e0 fd ff ff 	mov    %rax,-0x220(%rbp)
    8faa:	48 8d 85 e8 ef ff ff 	lea    -0x1018(%rbp),%rax
    8fb1:	48 89 85 e8 fd ff ff 	mov    %rax,-0x218(%rbp)
    8fb8:	48 c7 85 f0 fd ff ff 	movq   $0x0,-0x210(%rbp)
    8fbf:	00 00 00 00 
    8fc3:	48 c7 85 f8 fd ff ff 	movq   $0x0,-0x208(%rbp)
    8fca:	00 00 00 00 
    8fce:	48 8d 85 e8 ef ff ff 	lea    -0x1018(%rbp),%rax
    8fd5:	48 89 85 00 fe ff ff 	mov    %rax,-0x200(%rbp)
    8fdc:	48 8d 85 e8 ef ff ff 	lea    -0x1018(%rbp),%rax
    8fe3:	48 89 85 08 fe ff ff 	mov    %rax,-0x1f8(%rbp)
    8fea:	48 8d 85 e8 ef ff ff 	lea    -0x1018(%rbp),%rax
    8ff1:	48 89 85 10 fe ff ff 	mov    %rax,-0x1f0(%rbp)
    8ff8:	48 8d 85 e8 ef ff ff 	lea    -0x1018(%rbp),%rax
    8fff:	48 89 85 18 fe ff ff 	mov    %rax,-0x1e8(%rbp)
    9006:	48 c7 85 20 fe ff ff 	movq   $0x0,-0x1e0(%rbp)
    900d:	00 00 00 00 
    9011:	48 c7 85 28 fe ff ff 	movq   $0x0,-0x1d8(%rbp)
    9018:	00 00 00 00 
    901c:	48 8d 85 e8 ef ff ff 	lea    -0x1018(%rbp),%rax
    9023:	48 89 85 30 fe ff ff 	mov    %rax,-0x1d0(%rbp)
    902a:	48 8d 85 e8 ef ff ff 	lea    -0x1018(%rbp),%rax
    9031:	48 89 85 38 fe ff ff 	mov    %rax,-0x1c8(%rbp)
    9038:	48 8d 85 e8 ef ff ff 	lea    -0x1018(%rbp),%rax
    903f:	48 89 85 40 fe ff ff 	mov    %rax,-0x1c0(%rbp)
    9046:	48 c7 85 48 fe ff ff 	movq   $0x0,-0x1b8(%rbp)
    904d:	00 00 00 00 
    9051:	48 8d 85 e8 ef ff ff 	lea    -0x1018(%rbp),%rax
    9058:	48 89 85 50 fe ff ff 	mov    %rax,-0x1b0(%rbp)
    905f:	48 8d 85 e8 ef ff ff 	lea    -0x1018(%rbp),%rax
    9066:	48 89 85 58 fe ff ff 	mov    %rax,-0x1a8(%rbp)
    906d:	48 8d 85 e8 ef ff ff 	lea    -0x1018(%rbp),%rax
    9074:	48 89 85 60 fe ff ff 	mov    %rax,-0x1a0(%rbp)
    907b:	48 8d 85 e8 ef ff ff 	lea    -0x1018(%rbp),%rax
    9082:	48 89 85 68 fe ff ff 	mov    %rax,-0x198(%rbp)
    9089:	48 8d 85 e8 ef ff ff 	lea    -0x1018(%rbp),%rax
    9090:	48 89 85 70 fe ff ff 	mov    %rax,-0x190(%rbp)
    9097:	48 8d 85 e8 ef ff ff 	lea    -0x1018(%rbp),%rax
    909e:	48 89 85 78 fe ff ff 	mov    %rax,-0x188(%rbp)
    90a5:	48 8d 85 e8 ef ff ff 	lea    -0x1018(%rbp),%rax
    90ac:	48 89 85 80 fe ff ff 	mov    %rax,-0x180(%rbp)
    90b3:	48 8d 85 e8 ef ff ff 	lea    -0x1018(%rbp),%rax
    90ba:	48 89 85 88 fe ff ff 	mov    %rax,-0x178(%rbp)
    90c1:	48 8d 85 e8 ef ff ff 	lea    -0x1018(%rbp),%rax
    90c8:	48 89 85 90 fe ff ff 	mov    %rax,-0x170(%rbp)
    90cf:	48 c7 85 98 fe ff ff 	movq   $0x0,-0x168(%rbp)
    90d6:	00 00 00 00 
    90da:	48 8d 85 e8 ef ff ff 	lea    -0x1018(%rbp),%rax
    90e1:	48 89 85 a0 fe ff ff 	mov    %rax,-0x160(%rbp)
    90e8:	48 8d 85 e8 ef ff ff 	lea    -0x1018(%rbp),%rax
    90ef:	48 89 85 a8 fe ff ff 	mov    %rax,-0x158(%rbp)
    90f6:	48 8d 85 e8 ef ff ff 	lea    -0x1018(%rbp),%rax
    90fd:	48 89 85 b0 fe ff ff 	mov    %rax,-0x150(%rbp)
    9104:	48 8d 85 e8 ef ff ff 	lea    -0x1018(%rbp),%rax
    910b:	48 89 85 b8 fe ff ff 	mov    %rax,-0x148(%rbp)
    9112:	48 8d 85 e8 ef ff ff 	lea    -0x1018(%rbp),%rax
    9119:	48 89 85 c0 fe ff ff 	mov    %rax,-0x140(%rbp)
    9120:	48 8d 85 e8 ef ff ff 	lea    -0x1018(%rbp),%rax
    9127:	48 89 85 c8 fe ff ff 	mov    %rax,-0x138(%rbp)
    912e:	48 8d 85 e8 ef ff ff 	lea    -0x1018(%rbp),%rax
    9135:	48 89 85 d0 fe ff ff 	mov    %rax,-0x130(%rbp)
    913c:	48 c7 85 d8 fe ff ff 	movq   $0x0,-0x128(%rbp)
    9143:	00 00 00 00 
    9147:	48 8d 85 e8 ef ff ff 	lea    -0x1018(%rbp),%rax
    914e:	48 89 85 e0 fe ff ff 	mov    %rax,-0x120(%rbp)
    9155:	48 8d 85 e8 ef ff ff 	lea    -0x1018(%rbp),%rax
    915c:	48 89 85 e8 fe ff ff 	mov    %rax,-0x118(%rbp)
    9163:	48 8d 85 e8 ef ff ff 	lea    -0x1018(%rbp),%rax
    916a:	48 89 85 f0 fe ff ff 	mov    %rax,-0x110(%rbp)
    9171:	48 8d 85 e8 ef ff ff 	lea    -0x1018(%rbp),%rax
    9178:	48 89 85 f8 fe ff ff 	mov    %rax,-0x108(%rbp)
    917f:	48 8d 85 e8 ef ff ff 	lea    -0x1018(%rbp),%rax
    9186:	48 89 85 00 ff ff ff 	mov    %rax,-0x100(%rbp)
    918d:	48 8d 85 e8 ef ff ff 	lea    -0x1018(%rbp),%rax
    9194:	48 89 85 08 ff ff ff 	mov    %rax,-0xf8(%rbp)
    919b:	48 8d 85 e8 ef ff ff 	lea    -0x1018(%rbp),%rax
    91a2:	48 89 85 10 ff ff ff 	mov    %rax,-0xf0(%rbp)
    91a9:	48 8d 85 e8 ef ff ff 	lea    -0x1018(%rbp),%rax
    91b0:	48 89 85 18 ff ff ff 	mov    %rax,-0xe8(%rbp)
    91b7:	48 8d 85 e8 ef ff ff 	lea    -0x1018(%rbp),%rax
    91be:	48 89 85 20 ff ff ff 	mov    %rax,-0xe0(%rbp)
    91c5:	48 8d 85 e8 ef ff ff 	lea    -0x1018(%rbp),%rax
    91cc:	48 89 85 28 ff ff ff 	mov    %rax,-0xd8(%rbp)
    91d3:	48 8d 85 e8 ef ff ff 	lea    -0x1018(%rbp),%rax
    91da:	48 89 85 30 ff ff ff 	mov    %rax,-0xd0(%rbp)
    91e1:	48 8d 85 e8 ef ff ff 	lea    -0x1018(%rbp),%rax
    91e8:	48 89 85 38 ff ff ff 	mov    %rax,-0xc8(%rbp)
    91ef:	48 8d 85 e8 ef ff ff 	lea    -0x1018(%rbp),%rax
    91f6:	48 89 85 40 ff ff ff 	mov    %rax,-0xc0(%rbp)
    91fd:	48 8d 85 e8 ef ff ff 	lea    -0x1018(%rbp),%rax
    9204:	48 89 85 48 ff ff ff 	mov    %rax,-0xb8(%rbp)
    920b:	48 8d 85 e8 ef ff ff 	lea    -0x1018(%rbp),%rax
    9212:	48 89 85 50 ff ff ff 	mov    %rax,-0xb0(%rbp)
    9219:	48 c7 85 58 ff ff ff 	movq   $0x0,-0xa8(%rbp)
    9220:	00 00 00 00 
    9224:	48 c7 85 60 ff ff ff 	movq   $0x0,-0xa0(%rbp)
    922b:	00 00 00 00 
    922f:	48 8d 85 e8 ef ff ff 	lea    -0x1018(%rbp),%rax
    9236:	48 89 85 68 ff ff ff 	mov    %rax,-0x98(%rbp)
    923d:	48 8d 85 e8 ef ff ff 	lea    -0x1018(%rbp),%rax
    9244:	48 89 85 70 ff ff ff 	mov    %rax,-0x90(%rbp)
    924b:	48 8d 85 e8 ef ff ff 	lea    -0x1018(%rbp),%rax
    9252:	48 89 85 78 ff ff ff 	mov    %rax,-0x88(%rbp)
    9259:	48 c7 45 80 00 00 00 	movq   $0x0,-0x80(%rbp)
    9260:	00 
    9261:	48 8d 85 e8 ef ff ff 	lea    -0x1018(%rbp),%rax
    9268:	48 89 45 88          	mov    %rax,-0x78(%rbp)
    926c:	48 8d 85 e8 ef ff ff 	lea    -0x1018(%rbp),%rax
    9273:	48 89 45 90          	mov    %rax,-0x70(%rbp)
    9277:	48 8d 85 e8 ef ff ff 	lea    -0x1018(%rbp),%rax
    927e:	48 89 45 98          	mov    %rax,-0x68(%rbp)
    9282:	48 8d 85 e8 ef ff ff 	lea    -0x1018(%rbp),%rax
    9289:	48 89 45 a0          	mov    %rax,-0x60(%rbp)
    928d:	48 8d 85 e8 ef ff ff 	lea    -0x1018(%rbp),%rax
    9294:	48 89 45 a8          	mov    %rax,-0x58(%rbp)
    9298:	48 8d 85 e8 ef ff ff 	lea    -0x1018(%rbp),%rax
    929f:	48 89 45 b0          	mov    %rax,-0x50(%rbp)
    92a3:	48 8d 85 e8 ef ff ff 	lea    -0x1018(%rbp),%rax
    92aa:	48 89 45 b8          	mov    %rax,-0x48(%rbp)
    92ae:	48 8d 85 80 fa ff ff 	lea    -0x580(%rbp),%rax
    92b5:	48 05 10 02 00 00    	add    $0x210,%rax
    92bb:	48 89 85 f0 ef ff ff 	mov    %rax,-0x1010(%rbp)
    92c2:	48 8d 85 f0 ef ff ff 	lea    -0x1010(%rbp),%rax
    92c9:	48 89 85 f0 f7 ff ff 	mov    %rax,-0x810(%rbp)
    92d0:	48 8d 85 f0 ef ff ff 	lea    -0x1010(%rbp),%rax
    92d7:	48 89 85 f8 f7 ff ff 	mov    %rax,-0x808(%rbp)
    92de:	48 8d 85 f0 ef ff ff 	lea    -0x1010(%rbp),%rax
    92e5:	48 89 85 00 f8 ff ff 	mov    %rax,-0x800(%rbp)
    92ec:	48 c7 85 08 f8 ff ff 	movq   $0x0,-0x7f8(%rbp)
    92f3:	00 00 00 00 
    92f7:	48 c7 85 10 f8 ff ff 	movq   $0x0,-0x7f0(%rbp)
    92fe:	00 00 00 00 
    9302:	48 8d 85 f0 ef ff ff 	lea    -0x1010(%rbp),%rax
    9309:	48 89 85 18 f8 ff ff 	mov    %rax,-0x7e8(%rbp)
    9310:	48 8d 85 f0 ef ff ff 	lea    -0x1010(%rbp),%rax
    9317:	48 89 85 20 f8 ff ff 	mov    %rax,-0x7e0(%rbp)
    931e:	48 8d 85 f0 ef ff ff 	lea    -0x1010(%rbp),%rax
    9325:	48 89 85 28 f8 ff ff 	mov    %rax,-0x7d8(%rbp)
    932c:	48 c7 85 30 f8 ff ff 	movq   $0x0,-0x7d0(%rbp)
    9333:	00 00 00 00 
    9337:	48 8d 85 f0 ef ff ff 	lea    -0x1010(%rbp),%rax
    933e:	48 89 85 38 f8 ff ff 	mov    %rax,-0x7c8(%rbp)
    9345:	48 8d 85 f0 ef ff ff 	lea    -0x1010(%rbp),%rax
    934c:	48 89 85 40 f8 ff ff 	mov    %rax,-0x7c0(%rbp)
    9353:	48 8d 85 f0 ef ff ff 	lea    -0x1010(%rbp),%rax
    935a:	48 89 85 48 f8 ff ff 	mov    %rax,-0x7b8(%rbp)
    9361:	48 8d 85 f0 ef ff ff 	lea    -0x1010(%rbp),%rax
    9368:	48 89 85 50 f8 ff ff 	mov    %rax,-0x7b0(%rbp)
    936f:	48 8d 85 f0 ef ff ff 	lea    -0x1010(%rbp),%rax
    9376:	48 89 85 58 f8 ff ff 	mov    %rax,-0x7a8(%rbp)
    937d:	48 8d 85 f0 ef ff ff 	lea    -0x1010(%rbp),%rax
    9384:	48 89 85 60 f8 ff ff 	mov    %rax,-0x7a0(%rbp)
    938b:	48 8d 85 f0 ef ff ff 	lea    -0x1010(%rbp),%rax
    9392:	48 89 85 68 f8 ff ff 	mov    %rax,-0x798(%rbp)
    9399:	48 8d 85 f0 ef ff ff 	lea    -0x1010(%rbp),%rax
    93a0:	48 89 85 70 f8 ff ff 	mov    %rax,-0x790(%rbp)
    93a7:	48 8d 85 f0 ef ff ff 	lea    -0x1010(%rbp),%rax
    93ae:	48 89 85 78 f8 ff ff 	mov    %rax,-0x788(%rbp)
    93b5:	48 8d 85 f0 ef ff ff 	lea    -0x1010(%rbp),%rax
    93bc:	48 89 85 80 f8 ff ff 	mov    %rax,-0x780(%rbp)
    93c3:	48 8d 85 f0 ef ff ff 	lea    -0x1010(%rbp),%rax
    93ca:	48 89 85 88 f8 ff ff 	mov    %rax,-0x778(%rbp)
    93d1:	48 c7 85 90 f8 ff ff 	movq   $0x0,-0x770(%rbp)
    93d8:	00 00 00 00 
    93dc:	48 c7 85 98 f8 ff ff 	movq   $0x0,-0x768(%rbp)
    93e3:	00 00 00 00 
    93e7:	48 8d 85 f0 ef ff ff 	lea    -0x1010(%rbp),%rax
    93ee:	48 89 85 a0 f8 ff ff 	mov    %rax,-0x760(%rbp)
    93f5:	48 c7 85 a8 f8 ff ff 	movq   $0x0,-0x758(%rbp)
    93fc:	00 00 00 00 
    9400:	48 8d 85 f0 ef ff ff 	lea    -0x1010(%rbp),%rax
    9407:	48 89 85 b0 f8 ff ff 	mov    %rax,-0x750(%rbp)
    940e:	48 c7 85 b8 f8 ff ff 	movq   $0x0,-0x748(%rbp)
    9415:	00 00 00 00 
    9419:	48 8d 85 f0 ef ff ff 	lea    -0x1010(%rbp),%rax
    9420:	48 89 85 c0 f8 ff ff 	mov    %rax,-0x740(%rbp)
    9427:	48 c7 85 c8 f8 ff ff 	movq   $0x0,-0x738(%rbp)
    942e:	00 00 00 00 
    9432:	48 8d 85 f0 ef ff ff 	lea    -0x1010(%rbp),%rax
    9439:	48 89 85 d0 f8 ff ff 	mov    %rax,-0x730(%rbp)
    9440:	48 8d 85 f0 ef ff ff 	lea    -0x1010(%rbp),%rax
    9447:	48 89 85 d8 f8 ff ff 	mov    %rax,-0x728(%rbp)
    944e:	48 8d 85 f0 ef ff ff 	lea    -0x1010(%rbp),%rax
    9455:	48 89 85 e0 f8 ff ff 	mov    %rax,-0x720(%rbp)
    945c:	48 8d 85 f0 ef ff ff 	lea    -0x1010(%rbp),%rax
    9463:	48 89 85 e8 f8 ff ff 	mov    %rax,-0x718(%rbp)
    946a:	48 8d 85 f0 ef ff ff 	lea    -0x1010(%rbp),%rax
    9471:	48 89 85 f0 f8 ff ff 	mov    %rax,-0x710(%rbp)
    9478:	48 8d 85 f0 ef ff ff 	lea    -0x1010(%rbp),%rax
    947f:	48 89 85 f8 f8 ff ff 	mov    %rax,-0x708(%rbp)
    9486:	48 8d 85 f0 ef ff ff 	lea    -0x1010(%rbp),%rax
    948d:	48 89 85 00 f9 ff ff 	mov    %rax,-0x700(%rbp)
    9494:	48 c7 85 08 f9 ff ff 	movq   $0x0,-0x6f8(%rbp)
    949b:	00 00 00 00 
    949f:	48 c7 85 10 f9 ff ff 	movq   $0x0,-0x6f0(%rbp)
    94a6:	00 00 00 00 
    94aa:	48 8d 85 f0 ef ff ff 	lea    -0x1010(%rbp),%rax
    94b1:	48 89 85 18 f9 ff ff 	mov    %rax,-0x6e8(%rbp)
    94b8:	48 8d 85 f0 ef ff ff 	lea    -0x1010(%rbp),%rax
    94bf:	48 89 85 20 f9 ff ff 	mov    %rax,-0x6e0(%rbp)
    94c6:	48 c7 85 28 f9 ff ff 	movq   $0x0,-0x6d8(%rbp)
    94cd:	00 00 00 00 
    94d1:	48 c7 85 30 f9 ff ff 	movq   $0x0,-0x6d0(%rbp)
    94d8:	00 00 00 00 
    94dc:	48 8d 85 f0 ef ff ff 	lea    -0x1010(%rbp),%rax
    94e3:	48 89 85 38 f9 ff ff 	mov    %rax,-0x6c8(%rbp)
    94ea:	48 8d 85 f0 ef ff ff 	lea    -0x1010(%rbp),%rax
    94f1:	48 89 85 40 f9 ff ff 	mov    %rax,-0x6c0(%rbp)
    94f8:	48 8d 85 f0 ef ff ff 	lea    -0x1010(%rbp),%rax
    94ff:	48 89 85 48 f9 ff ff 	mov    %rax,-0x6b8(%rbp)
    9506:	48 8d 85 f0 ef ff ff 	lea    -0x1010(%rbp),%rax
    950d:	48 89 85 50 f9 ff ff 	mov    %rax,-0x6b0(%rbp)
    9514:	48 c7 85 58 f9 ff ff 	movq   $0x0,-0x6a8(%rbp)
    951b:	00 00 00 00 
    951f:	48 8d 85 f0 ef ff ff 	lea    -0x1010(%rbp),%rax
    9526:	48 89 85 60 f9 ff ff 	mov    %rax,-0x6a0(%rbp)
    952d:	48 8d 85 f0 ef ff ff 	lea    -0x1010(%rbp),%rax
    9534:	48 89 85 68 f9 ff ff 	mov    %rax,-0x698(%rbp)
    953b:	48 8d 85 f0 ef ff ff 	lea    -0x1010(%rbp),%rax
    9542:	48 89 85 70 f9 ff ff 	mov    %rax,-0x690(%rbp)
    9549:	48 c7 85 78 f9 ff ff 	movq   $0x0,-0x688(%rbp)
    9550:	00 00 00 00 
    9554:	48 8d 85 f0 ef ff ff 	lea    -0x1010(%rbp),%rax
    955b:	48 89 85 80 f9 ff ff 	mov    %rax,-0x680(%rbp)
    9562:	48 8d 85 f0 ef ff ff 	lea    -0x1010(%rbp),%rax
    9569:	48 89 85 88 f9 ff ff 	mov    %rax,-0x678(%rbp)
    9570:	48 8d 85 f0 ef ff ff 	lea    -0x1010(%rbp),%rax
    9577:	48 89 85 90 f9 ff ff 	mov    %rax,-0x670(%rbp)
    957e:	48 8d 85 f0 ef ff ff 	lea    -0x1010(%rbp),%rax
    9585:	48 89 85 98 f9 ff ff 	mov    %rax,-0x668(%rbp)
    958c:	48 c7 85 a0 f9 ff ff 	movq   $0x0,-0x660(%rbp)
    9593:	00 00 00 00 
    9597:	48 8d 85 f0 ef ff ff 	lea    -0x1010(%rbp),%rax
    959e:	48 89 85 a8 f9 ff ff 	mov    %rax,-0x658(%rbp)
    95a5:	48 8d 85 f0 ef ff ff 	lea    -0x1010(%rbp),%rax
    95ac:	48 89 85 b0 f9 ff ff 	mov    %rax,-0x650(%rbp)
    95b3:	48 8d 85 f0 ef ff ff 	lea    -0x1010(%rbp),%rax
    95ba:	48 89 85 b8 f9 ff ff 	mov    %rax,-0x648(%rbp)
    95c1:	48 c7 85 c0 f9 ff ff 	movq   $0x0,-0x640(%rbp)
    95c8:	00 00 00 00 
    95cc:	48 8d 85 f0 ef ff ff 	lea    -0x1010(%rbp),%rax
    95d3:	48 89 85 c8 f9 ff ff 	mov    %rax,-0x638(%rbp)
    95da:	48 8d 85 f0 ef ff ff 	lea    -0x1010(%rbp),%rax
    95e1:	48 89 85 d0 f9 ff ff 	mov    %rax,-0x630(%rbp)
    95e8:	48 c7 85 d8 f9 ff ff 	movq   $0x0,-0x628(%rbp)
    95ef:	00 00 00 00 
    95f3:	48 c7 85 e0 f9 ff ff 	movq   $0x0,-0x620(%rbp)
    95fa:	00 00 00 00 
    95fe:	48 8d 85 f0 ef ff ff 	lea    -0x1010(%rbp),%rax
    9605:	48 89 85 e8 f9 ff ff 	mov    %rax,-0x618(%rbp)
    960c:	48 8d 85 f0 ef ff ff 	lea    -0x1010(%rbp),%rax
    9613:	48 89 85 f0 f9 ff ff 	mov    %rax,-0x610(%rbp)
    961a:	48 8d 85 f0 ef ff ff 	lea    -0x1010(%rbp),%rax
    9621:	48 89 85 f8 f9 ff ff 	mov    %rax,-0x608(%rbp)
    9628:	48 8d 85 f0 ef ff ff 	lea    -0x1010(%rbp),%rax
    962f:	48 89 85 00 fa ff ff 	mov    %rax,-0x600(%rbp)
    9636:	48 8d 85 f0 ef ff ff 	lea    -0x1010(%rbp),%rax
    963d:	48 89 85 08 fa ff ff 	mov    %rax,-0x5f8(%rbp)
    9644:	48 8d 85 f0 ef ff ff 	lea    -0x1010(%rbp),%rax
    964b:	48 89 85 10 fa ff ff 	mov    %rax,-0x5f0(%rbp)
    9652:	48 8d 85 f0 ef ff ff 	lea    -0x1010(%rbp),%rax
    9659:	48 89 85 18 fa ff ff 	mov    %rax,-0x5e8(%rbp)
    9660:	48 8d 85 f0 ef ff ff 	lea    -0x1010(%rbp),%rax
    9667:	48 89 85 20 fa ff ff 	mov    %rax,-0x5e0(%rbp)
    966e:	48 8d 85 f0 ef ff ff 	lea    -0x1010(%rbp),%rax
    9675:	48 89 85 28 fa ff ff 	mov    %rax,-0x5d8(%rbp)
    967c:	48 8d 85 f0 ef ff ff 	lea    -0x1010(%rbp),%rax
    9683:	48 89 85 30 fa ff ff 	mov    %rax,-0x5d0(%rbp)
    968a:	48 8d 85 f0 ef ff ff 	lea    -0x1010(%rbp),%rax
    9691:	48 89 85 38 fa ff ff 	mov    %rax,-0x5c8(%rbp)
    9698:	48 8d 85 f0 ef ff ff 	lea    -0x1010(%rbp),%rax
    969f:	48 89 85 40 fa ff ff 	mov    %rax,-0x5c0(%rbp)
    96a6:	48 8d 85 f0 ef ff ff 	lea    -0x1010(%rbp),%rax
    96ad:	48 89 85 48 fa ff ff 	mov    %rax,-0x5b8(%rbp)
    96b4:	48 c7 85 50 fa ff ff 	movq   $0x0,-0x5b0(%rbp)
    96bb:	00 00 00 00 
    96bf:	48 8d 85 f0 ef ff ff 	lea    -0x1010(%rbp),%rax
    96c6:	48 89 85 58 fa ff ff 	mov    %rax,-0x5a8(%rbp)
    96cd:	48 8d 85 f0 ef ff ff 	lea    -0x1010(%rbp),%rax
    96d4:	48 89 85 60 fa ff ff 	mov    %rax,-0x5a0(%rbp)
    96db:	48 8d 85 f0 ef ff ff 	lea    -0x1010(%rbp),%rax
    96e2:	48 89 85 68 fa ff ff 	mov    %rax,-0x598(%rbp)
    96e9:	48 8d 85 f0 ef ff ff 	lea    -0x1010(%rbp),%rax
    96f0:	48 89 85 70 fa ff ff 	mov    %rax,-0x590(%rbp)
    96f7:	48 8d 85 f0 f7 ff ff 	lea    -0x810(%rbp),%rax
    96fe:	48 83 c0 38          	add    $0x38,%rax
    9702:	48 89 85 a0 f1 ff ff 	mov    %rax,-0xe60(%rbp)
    9709:	48 8d 85 f0 f7 ff ff 	lea    -0x810(%rbp),%rax
    9710:	48 05 c0 01 00 00    	add    $0x1c0,%rax
    9716:	48 89 85 a8 f1 ff ff 	mov    %rax,-0xe58(%rbp)
    971d:	48 8d 85 f0 f7 ff ff 	lea    -0x810(%rbp),%rax
    9724:	48 05 c0 01 00 00    	add    $0x1c0,%rax
    972a:	48 89 85 b0 f1 ff ff 	mov    %rax,-0xe50(%rbp)
    9731:	48 8d 85 f0 f7 ff ff 	lea    -0x810(%rbp),%rax
    9738:	48 83 c0 38          	add    $0x38,%rax
    973c:	48 89 85 b8 f1 ff ff 	mov    %rax,-0xe48(%rbp)
    9743:	48 c7 85 c0 f1 ff ff 	movq   $0x0,-0xe40(%rbp)
    974a:	00 00 00 00 
    974e:	48 8d 85 f0 f7 ff ff 	lea    -0x810(%rbp),%rax
    9755:	48 83 c0 18          	add    $0x18,%rax
    9759:	48 89 85 c8 f1 ff ff 	mov    %rax,-0xe38(%rbp)
    9760:	48 8d 85 f0 f7 ff ff 	lea    -0x810(%rbp),%rax
    9767:	48 05 90 01 00 00    	add    $0x190,%rax
    976d:	48 89 85 d0 f1 ff ff 	mov    %rax,-0xe30(%rbp)
    9774:	48 8d 85 f0 f7 ff ff 	lea    -0x810(%rbp),%rax
    977b:	48 05 90 01 00 00    	add    $0x190,%rax
    9781:	48 89 85 d8 f1 ff ff 	mov    %rax,-0xe28(%rbp)
    9788:	48 8d 85 f0 f7 ff ff 	lea    -0x810(%rbp),%rax
    978f:	48 05 90 01 00 00    	add    $0x190,%rax
    9795:	48 89 85 e0 f1 ff ff 	mov    %rax,-0xe20(%rbp)
    979c:	48 8d 85 f0 f7 ff ff 	lea    -0x810(%rbp),%rax
    97a3:	48 05 90 01 00 00    	add    $0x190,%rax
    97a9:	48 89 85 e8 f1 ff ff 	mov    %rax,-0xe18(%rbp)
    97b0:	48 c7 85 f0 f1 ff ff 	movq   $0x0,-0xe10(%rbp)
    97b7:	00 00 00 00 
    97bb:	48 8d 85 f0 f7 ff ff 	lea    -0x810(%rbp),%rax
    97c2:	48 05 c0 01 00 00    	add    $0x1c0,%rax
    97c8:	48 89 85 f8 f1 ff ff 	mov    %rax,-0xe08(%rbp)
    97cf:	48 8d 85 f0 f7 ff ff 	lea    -0x810(%rbp),%rax
    97d6:	48 05 90 01 00 00    	add    $0x190,%rax
    97dc:	48 89 85 00 f2 ff ff 	mov    %rax,-0xe00(%rbp)
    97e3:	48 8d 85 f0 f7 ff ff 	lea    -0x810(%rbp),%rax
    97ea:	48 05 20 02 00 00    	add    $0x220,%rax
    97f0:	48 89 85 08 f2 ff ff 	mov    %rax,-0xdf8(%rbp)
    97f7:	48 8d 85 f0 f7 ff ff 	lea    -0x810(%rbp),%rax
    97fe:	48 05 20 02 00 00    	add    $0x220,%rax
    9804:	48 89 85 10 f2 ff ff 	mov    %rax,-0xdf0(%rbp)
    980b:	48 8d 85 f0 f7 ff ff 	lea    -0x810(%rbp),%rax
    9812:	48 05 78 01 00 00    	add    $0x178,%rax
    9818:	48 89 85 18 f2 ff ff 	mov    %rax,-0xde8(%rbp)
    981f:	48 8d 85 f0 f7 ff ff 	lea    -0x810(%rbp),%rax
    9826:	48 05 58 01 00 00    	add    $0x158,%rax
    982c:	48 89 85 20 f2 ff ff 	mov    %rax,-0xde0(%rbp)
    9833:	48 8d 85 f0 f7 ff ff 	lea    -0x810(%rbp),%rax
    983a:	48 05 78 01 00 00    	add    $0x178,%rax
    9840:	48 89 85 28 f2 ff ff 	mov    %rax,-0xdd8(%rbp)
    9847:	48 8d 85 f0 f7 ff ff 	lea    -0x810(%rbp),%rax
    984e:	48 05 90 01 00 00    	add    $0x190,%rax
    9854:	48 89 85 30 f2 ff ff 	mov    %rax,-0xdd0(%rbp)
    985b:	48 8d 85 f0 f7 ff ff 	lea    -0x810(%rbp),%rax
    9862:	48 05 98 01 00 00    	add    $0x198,%rax
    9868:	48 89 85 38 f2 ff ff 	mov    %rax,-0xdc8(%rbp)
    986f:	48 8d 85 f0 f7 ff ff 	lea    -0x810(%rbp),%rax
    9876:	48 05 60 02 00 00    	add    $0x260,%rax
    987c:	48 89 85 40 f2 ff ff 	mov    %rax,-0xdc0(%rbp)
    9883:	48 8d 85 f0 f7 ff ff 	lea    -0x810(%rbp),%rax
    988a:	48 83 c0 38          	add    $0x38,%rax
    988e:	48 89 85 48 f2 ff ff 	mov    %rax,-0xdb8(%rbp)
    9895:	48 8d 85 f0 f7 ff ff 	lea    -0x810(%rbp),%rax
    989c:	48 05 20 02 00 00    	add    $0x220,%rax
    98a2:	48 89 85 50 f2 ff ff 	mov    %rax,-0xdb0(%rbp)
    98a9:	48 8d 85 f0 f7 ff ff 	lea    -0x810(%rbp),%rax
    98b0:	48 83 c0 38          	add    $0x38,%rax
    98b4:	48 89 85 58 f2 ff ff 	mov    %rax,-0xda8(%rbp)
    98bb:	48 8d 85 f0 f7 ff ff 	lea    -0x810(%rbp),%rax
    98c2:	48 05 60 02 00 00    	add    $0x260,%rax
    98c8:	48 89 85 60 f2 ff ff 	mov    %rax,-0xda0(%rbp)
    98cf:	48 8d 85 f0 f7 ff ff 	lea    -0x810(%rbp),%rax
    98d6:	48 05 78 01 00 00    	add    $0x178,%rax
    98dc:	48 89 85 68 f2 ff ff 	mov    %rax,-0xd98(%rbp)
    98e3:	48 8d 85 f0 f7 ff ff 	lea    -0x810(%rbp),%rax
    98ea:	48 83 c0 18          	add    $0x18,%rax
    98ee:	48 89 85 70 f2 ff ff 	mov    %rax,-0xd90(%rbp)
    98f5:	48 8d 85 f0 f7 ff ff 	lea    -0x810(%rbp),%rax
    98fc:	48 05 58 01 00 00    	add    $0x158,%rax
    9902:	48 89 85 78 f2 ff ff 	mov    %rax,-0xd88(%rbp)
    9909:	48 8d 85 f0 f7 ff ff 	lea    -0x810(%rbp),%rax
    9910:	48 05 90 01 00 00    	add    $0x190,%rax
    9916:	48 89 85 80 f2 ff ff 	mov    %rax,-0xd80(%rbp)
    991d:	48 8d 85 f0 f7 ff ff 	lea    -0x810(%rbp),%rax
    9924:	48 05 58 01 00 00    	add    $0x158,%rax
    992a:	48 89 85 88 f2 ff ff 	mov    %rax,-0xd78(%rbp)
    9931:	48 c7 85 90 f2 ff ff 	movq   $0x0,-0xd70(%rbp)
    9938:	00 00 00 00 
    993c:	48 c7 85 98 f2 ff ff 	movq   $0x0,-0xd68(%rbp)
    9943:	00 00 00 00 
    9947:	48 8d 85 f0 f7 ff ff 	lea    -0x810(%rbp),%rax
    994e:	48 05 20 02 00 00    	add    $0x220,%rax
    9954:	48 89 85 a0 f2 ff ff 	mov    %rax,-0xd60(%rbp)
    995b:	48 8d 85 f0 f7 ff ff 	lea    -0x810(%rbp),%rax
    9962:	48 05 60 02 00 00    	add    $0x260,%rax
    9968:	48 89 85 a8 f2 ff ff 	mov    %rax,-0xd58(%rbp)
    996f:	48 8d 85 f0 f7 ff ff 	lea    -0x810(%rbp),%rax
    9976:	48 05 90 01 00 00    	add    $0x190,%rax
    997c:	48 89 85 b0 f2 ff ff 	mov    %rax,-0xd50(%rbp)
    9983:	48 8d 85 f0 f7 ff ff 	lea    -0x810(%rbp),%rax
    998a:	48 83 c0 18          	add    $0x18,%rax
    998e:	48 89 85 b8 f2 ff ff 	mov    %rax,-0xd48(%rbp)
    9995:	48 8d 85 f0 f7 ff ff 	lea    -0x810(%rbp),%rax
    999c:	48 05 78 01 00 00    	add    $0x178,%rax
    99a2:	48 89 85 c0 f2 ff ff 	mov    %rax,-0xd40(%rbp)
    99a9:	48 8d 85 f0 f7 ff ff 	lea    -0x810(%rbp),%rax
    99b0:	48 05 78 01 00 00    	add    $0x178,%rax
    99b6:	48 89 85 c8 f2 ff ff 	mov    %rax,-0xd38(%rbp)
    99bd:	48 8d 85 f0 f7 ff ff 	lea    -0x810(%rbp),%rax
    99c4:	48 83 c0 18          	add    $0x18,%rax
    99c8:	48 89 85 d0 f2 ff ff 	mov    %rax,-0xd30(%rbp)
    99cf:	48 8d 85 f0 f7 ff ff 	lea    -0x810(%rbp),%rax
    99d6:	48 05 58 01 00 00    	add    $0x158,%rax
    99dc:	48 89 85 d8 f2 ff ff 	mov    %rax,-0xd28(%rbp)
    99e3:	48 8d 85 f0 f7 ff ff 	lea    -0x810(%rbp),%rax
    99ea:	48 83 c0 38          	add    $0x38,%rax
    99ee:	48 89 85 e0 f2 ff ff 	mov    %rax,-0xd20(%rbp)
    99f5:	48 8d 85 f0 f7 ff ff 	lea    -0x810(%rbp),%rax
    99fc:	48 05 60 02 00 00    	add    $0x260,%rax
    9a02:	48 89 85 e8 f2 ff ff 	mov    %rax,-0xd18(%rbp)
    9a09:	48 8d 85 f0 f7 ff ff 	lea    -0x810(%rbp),%rax
    9a10:	48 05 90 01 00 00    	add    $0x190,%rax
    9a16:	48 89 85 f0 f2 ff ff 	mov    %rax,-0xd10(%rbp)
    9a1d:	48 8d 85 f0 f7 ff ff 	lea    -0x810(%rbp),%rax
    9a24:	48 05 90 01 00 00    	add    $0x190,%rax
    9a2a:	48 89 85 f8 f2 ff ff 	mov    %rax,-0xd08(%rbp)
    9a31:	48 8d 85 f0 f7 ff ff 	lea    -0x810(%rbp),%rax
    9a38:	48 05 60 02 00 00    	add    $0x260,%rax
    9a3e:	48 89 85 00 f3 ff ff 	mov    %rax,-0xd00(%rbp)
    9a45:	48 8d 85 f0 f7 ff ff 	lea    -0x810(%rbp),%rax
    9a4c:	48 05 58 01 00 00    	add    $0x158,%rax
    9a52:	48 89 85 08 f3 ff ff 	mov    %rax,-0xcf8(%rbp)
    9a59:	48 8d 85 f0 f7 ff ff 	lea    -0x810(%rbp),%rax
    9a60:	48 05 78 01 00 00    	add    $0x178,%rax
    9a66:	48 89 85 10 f3 ff ff 	mov    %rax,-0xcf0(%rbp)
    9a6d:	48 8d 85 f0 f7 ff ff 	lea    -0x810(%rbp),%rax
    9a74:	48 05 90 01 00 00    	add    $0x190,%rax
    9a7a:	48 89 85 18 f3 ff ff 	mov    %rax,-0xce8(%rbp)
    9a81:	48 8d 85 f0 f7 ff ff 	lea    -0x810(%rbp),%rax
    9a88:	48 05 98 01 00 00    	add    $0x198,%rax
    9a8e:	48 89 85 20 f3 ff ff 	mov    %rax,-0xce0(%rbp)
    9a95:	48 8d 85 f0 f7 ff ff 	lea    -0x810(%rbp),%rax
    9a9c:	48 05 98 01 00 00    	add    $0x198,%rax
    9aa2:	48 89 85 28 f3 ff ff 	mov    %rax,-0xcd8(%rbp)
    9aa9:	48 b8 0f 69 f3 c9 e8 	movabs $0x888adae8c9f3690f,%rax
    9ab0:	da 8a 88 
    9ab3:	48 89 85 98 f0 ff ff 	mov    %rax,-0xf68(%rbp)
    9aba:	c7 85 c4 ef ff ff 07 	movl   $0x7,-0x103c(%rbp)
    9ac1:	00 00 00 
    9ac4:	48 8d 85 30 f3 ff ff 	lea    -0xcd0(%rbp),%rax
    9acb:	48 8d 15 ce 11 01 00 	lea    0x111ce(%rip),%rdx        # 1aca0 <g_2719+0x5aa>
    9ad2:	b9 46 00 00 00       	mov    $0x46,%ecx
    9ad7:	48 89 c7             	mov    %rax,%rdi
    9ada:	48 89 d6             	mov    %rdx,%rsi
    9add:	f3 48 a5             	rep movsq %ds:(%rsi),%es:(%rdi)
    9ae0:	c6 85 81 ef ff ff 00 	movb   $0x0,-0x107f(%rbp)
    9ae7:	c7 85 c8 ef ff ff 00 	movl   $0x0,-0x1038(%rbp)
    9aee:	00 00 00 
    9af1:	48 8d 85 30 f3 ff ff 	lea    -0xcd0(%rbp),%rax
    9af8:	48 05 f8 01 00 00    	add    $0x1f8,%rax
    9afe:	48 89 85 f8 ef ff ff 	mov    %rax,-0x1008(%rbp)
    9b05:	48 8d 85 f8 ef ff ff 	lea    -0x1008(%rbp),%rax
    9b0c:	48 89 85 a0 f0 ff ff 	mov    %rax,-0xf60(%rbp)
    9b13:	c7 85 cc ef ff ff f9 	movl   $0xfffffff9,-0x1034(%rbp)
    9b1a:	ff ff ff 
    9b1d:	66 c7 85 86 ef ff ff 	movw   $0xffff,-0x107a(%rbp)
    9b24:	ff ff 
    9b26:	c7 85 8c ef ff ff 00 	movl   $0x0,-0x1074(%rbp)
    9b2d:	00 00 00 
    9b30:	eb 42                	jmp    9b74 <func_26+0x13ab>
    9b32:	c7 85 90 ef ff ff 00 	movl   $0x0,-0x1070(%rbp)
    9b39:	00 00 00 
    9b3c:	eb 26                	jmp    9b64 <func_26+0x139b>
    9b3e:	8b 85 90 ef ff ff    	mov    -0x1070(%rbp),%eax
    9b44:	48 63 d0             	movslq %eax,%rdx
    9b47:	8b 85 8c ef ff ff    	mov    -0x1074(%rbp),%eax
    9b4d:	48 98                	cltq   
    9b4f:	48 01 d0             	add    %rdx,%rax
    9b52:	c7 84 85 a8 f0 ff ff 	movl   $0x3,-0xf58(%rbp,%rax,4)
    9b59:	03 00 00 00 
    9b5d:	83 85 90 ef ff ff 01 	addl   $0x1,-0x1070(%rbp)
    9b64:	83 bd 90 ef ff ff 00 	cmpl   $0x0,-0x1070(%rbp)
    9b6b:	7e d1                	jle    9b3e <func_26+0x1375>
    9b6d:	83 85 8c ef ff ff 01 	addl   $0x1,-0x1074(%rbp)
    9b74:	83 bd 8c ef ff ff 01 	cmpl   $0x1,-0x1074(%rbp)
    9b7b:	7e b5                	jle    9b32 <func_26+0x1369>
    9b7d:	c7 85 8c ef ff ff 00 	movl   $0x0,-0x1074(%rbp)
    9b84:	00 00 00 
    9b87:	eb 1e                	jmp    9ba7 <func_26+0x13de>
    9b89:	8b 85 8c ef ff ff    	mov    -0x1074(%rbp),%eax
    9b8f:	48 98                	cltq   
    9b91:	48 8d 15 68 27 01 00 	lea    0x12768(%rip),%rdx        # 1c300 <g_2094>
    9b98:	48 89 94 c5 b0 f0 ff 	mov    %rdx,-0xf50(%rbp,%rax,8)
    9b9f:	ff 
    9ba0:	83 85 8c ef ff ff 01 	addl   $0x1,-0x1074(%rbp)
    9ba7:	83 bd 8c ef ff ff 02 	cmpl   $0x2,-0x1074(%rbp)
    9bae:	7e d9                	jle    9b89 <func_26+0x13c0>
    9bb0:	c7 85 8c ef ff ff 00 	movl   $0x0,-0x1074(%rbp)
    9bb7:	00 00 00 
    9bba:	eb 1b                	jmp    9bd7 <func_26+0x140e>
    9bbc:	8b 85 8c ef ff ff    	mov    -0x1074(%rbp),%eax
    9bc2:	48 98                	cltq   
    9bc4:	48 c7 84 c5 00 f1 ff 	movq   $0x0,-0xf00(%rbp,%rax,8)
    9bcb:	ff 00 00 00 00 
    9bd0:	83 85 8c ef ff ff 01 	addl   $0x1,-0x1074(%rbp)
    9bd7:	83 bd 8c ef ff ff 04 	cmpl   $0x4,-0x1074(%rbp)
    9bde:	7e dc                	jle    9bbc <func_26+0x13f3>
    9be0:	c7 85 8c ef ff ff 00 	movl   $0x0,-0x1074(%rbp)
    9be7:	00 00 00 
    9bea:	eb 1e                	jmp    9c0a <func_26+0x1441>
    9bec:	8b 85 8c ef ff ff    	mov    -0x1074(%rbp),%eax
    9bf2:	48 98                	cltq   
    9bf4:	48 8d 15 15 27 01 00 	lea    0x12715(%rip),%rdx        # 1c310 <g_2489>
    9bfb:	48 89 94 c5 30 f1 ff 	mov    %rdx,-0xed0(%rbp,%rax,8)
    9c02:	ff 
    9c03:	83 85 8c ef ff ff 01 	addl   $0x1,-0x1074(%rbp)
    9c0a:	83 bd 8c ef ff ff 05 	cmpl   $0x5,-0x1074(%rbp)
    9c11:	7e d9                	jle    9bec <func_26+0x1423>
    9c13:	48 8b 05 86 1d 01 00 	mov    0x11d86(%rip),%rax        # 1b9a0 <g_674>
    9c1a:	48 8b 95 68 ef ff ff 	mov    -0x1098(%rbp),%rdx
    9c21:	48 89 10             	mov    %rdx,(%rax)
    9c24:	e9 47 05 00 00       	jmpq   a170 <func_26+0x19a7>
    9c29:	c6 85 80 ef ff ff fe 	movb   $0xfe,-0x1080(%rbp)
    9c30:	c7 85 ac ef ff ff 5e 	movl   $0x71be5e,-0x1054(%rbp)
    9c37:	be 71 00 
    9c3a:	48 c7 85 60 f0 ff ff 	movq   $0x0,-0xfa0(%rbp)
    9c41:	00 00 00 00 
    9c45:	48 8d 05 64 26 01 00 	lea    0x12664(%rip),%rax        # 1c2b0 <g_1427>
    9c4c:	48 89 85 68 f0 ff ff 	mov    %rax,-0xf98(%rbp)
    9c53:	c7 85 b0 ef ff ff 89 	movl   $0xb05e8c89,-0x1050(%rbp)
    9c5a:	8c 5e b0 
    9c5d:	c7 85 b4 ef ff ff ff 	movl   $0xffffffff,-0x104c(%rbp)
    9c64:	ff ff ff 
    9c67:	c7 85 b8 ef ff ff 8e 	movl   $0x59d81a8e,-0x1048(%rbp)
    9c6e:	1a d8 59 
    9c71:	48 8d 85 80 fa ff ff 	lea    -0x580(%rbp),%rax
    9c78:	48 8d 15 81 b6 00 00 	lea    0xb681(%rip),%rdx        # 15300 <g_1428+0x2ab>
    9c7f:	b9 70 00 00 00       	mov    $0x70,%ecx
    9c84:	48 89 c7             	mov    %rax,%rdi
    9c87:	48 89 d6             	mov    %rdx,%rsi
    9c8a:	f3 48 a5             	rep movsq %ds:(%rsi),%es:(%rdi)
    9c8d:	66 c7 85 30 f3 ff ff 	movw   $0x7f84,-0xcd0(%rbp)
    9c94:	84 7f 
    9c96:	c6 85 32 f3 ff ff 7f 	movb   $0x7f,-0xcce(%rbp)
    9c9d:	66 c7 85 33 f3 ff ff 	movw   $0x3404,-0xccd(%rbp)
    9ca4:	04 34 
    9ca6:	c6 85 35 f3 ff ff 04 	movb   $0x4,-0xccb(%rbp)
    9cad:	66 c7 85 36 f3 ff ff 	movw   $0x8484,-0xcca(%rbp)
    9cb4:	84 84 
    9cb6:	c6 85 38 f3 ff ff 7f 	movb   $0x7f,-0xcc8(%rbp)
    9cbd:	66 c7 85 39 f3 ff ff 	movw   $0x34c4,-0xcc7(%rbp)
    9cc4:	c4 34 
    9cc6:	c6 85 3b f3 ff ff c4 	movb   $0xc4,-0xcc5(%rbp)
    9ccd:	66 c7 85 3c f3 ff ff 	movw   $0x7f84,-0xcc4(%rbp)
    9cd4:	84 7f 
    9cd6:	c6 85 3e f3 ff ff 7f 	movb   $0x7f,-0xcc2(%rbp)
    9cdd:	66 c7 85 3f f3 ff ff 	movw   $0x3404,-0xcc1(%rbp)
    9ce4:	04 34 
    9ce6:	c6 85 41 f3 ff ff 04 	movb   $0x4,-0xcbf(%rbp)
    9ced:	66 c7 85 42 f3 ff ff 	movw   $0x8484,-0xcbe(%rbp)
    9cf4:	84 84 
    9cf6:	c6 85 44 f3 ff ff 7f 	movb   $0x7f,-0xcbc(%rbp)
    9cfd:	48 b8 5c 87 4a 45 f0 	movabs $0x59bbaef0454a875c,%rax
    9d04:	ae bb 59 
    9d07:	48 89 85 70 f0 ff ff 	mov    %rax,-0xf90(%rbp)
    9d0e:	c7 85 94 ef ff ff 00 	movl   $0x0,-0x106c(%rbp)
    9d15:	00 00 00 
    9d18:	eb 1e                	jmp    9d38 <func_26+0x156f>
    9d1a:	8b 85 94 ef ff ff    	mov    -0x106c(%rbp),%eax
    9d20:	48 98                	cltq   
    9d22:	48 8d 95 e0 ef ff ff 	lea    -0x1020(%rbp),%rdx
    9d29:	48 89 94 c5 a0 f1 ff 	mov    %rdx,-0xe60(%rbp,%rax,8)
    9d30:	ff 
    9d31:	83 85 94 ef ff ff 01 	addl   $0x1,-0x106c(%rbp)
    9d38:	83 bd 94 ef ff ff 00 	cmpl   $0x0,-0x106c(%rbp)
    9d3f:	7e d9                	jle    9d1a <func_26+0x1551>
    9d41:	c7 85 94 ef ff ff 00 	movl   $0x0,-0x106c(%rbp)
    9d48:	00 00 00 
    9d4b:	eb 1e                	jmp    9d6b <func_26+0x15a2>
    9d4d:	8b 85 94 ef ff ff    	mov    -0x106c(%rbp),%eax
    9d53:	48 98                	cltq   
    9d55:	48 8d 15 ec 19 01 00 	lea    0x119ec(%rip),%rdx        # 1b748 <g_321>
    9d5c:	48 89 94 c5 f0 f7 ff 	mov    %rdx,-0x810(%rbp,%rax,8)
    9d63:	ff 
    9d64:	83 85 94 ef ff ff 01 	addl   $0x1,-0x106c(%rbp)
    9d6b:	83 bd 94 ef ff ff 07 	cmpl   $0x7,-0x106c(%rbp)
    9d72:	7e d9                	jle    9d4d <func_26+0x1584>
    9d74:	48 83 bd 60 ef ff ff 	cmpq   $0x0,-0x10a0(%rbp)
    9d7b:	00 
    9d7c:	74 5f                	je     9ddd <func_26+0x1614>
    9d7e:	48 8b 85 20 f0 ff ff 	mov    -0xfe0(%rbp),%rax
    9d85:	8b 00                	mov    (%rax),%eax
    9d87:	89 c1                	mov    %eax,%ecx
    9d89:	48 8d 05 98 19 01 00 	lea    0x11998(%rip),%rax        # 1b728 <g_159>
    9d90:	48 8b 00             	mov    (%rax),%rax
    9d93:	8b 10                	mov    (%rax),%edx
    9d95:	83 c2 01             	add    $0x1,%edx
    9d98:	89 10                	mov    %edx,(%rax)
    9d9a:	8b 00                	mov    (%rax),%eax
    9d9c:	39 c1                	cmp    %eax,%ecx
    9d9e:	74 21                	je     9dc1 <func_26+0x15f8>
    9da0:	48 8b 85 60 ef ff ff 	mov    -0x10a0(%rbp),%rax
    9da7:	0f b6 c0             	movzbl %al,%eax
    9daa:	be 03 00 00 00       	mov    $0x3,%esi
    9daf:	89 c7                	mov    %eax,%edi
    9db1:	e8 08 cf ff ff       	callq  6cbe <safe_rshift_func_uint8_t_u_u>
    9db6:	84 c0                	test   %al,%al
    9db8:	74 07                	je     9dc1 <func_26+0x15f8>
    9dba:	b8 01 00 00 00       	mov    $0x1,%eax
    9dbf:	eb 05                	jmp    9dc6 <func_26+0x15fd>
    9dc1:	b8 00 00 00 00       	mov    $0x0,%eax
    9dc6:	f7 d0                	not    %eax
    9dc8:	89 c2                	mov    %eax,%edx
    9dca:	0f b6 85 80 ef ff ff 	movzbl -0x1080(%rbp),%eax
    9dd1:	89 d6                	mov    %edx,%esi
    9dd3:	89 c7                	mov    %eax,%edi
    9dd5:	e8 b8 c6 ff ff       	callq  6492 <safe_lshift_func_int16_t_s_s>
    9dda:	66 85 c0             	test   %ax,%ax
    9ddd:	48 8b 85 68 ef ff ff 	mov    -0x1098(%rbp),%rax
    9de4:	8b 10                	mov    (%rax),%edx
    9de6:	48 8b 85 68 ef ff ff 	mov    -0x1098(%rbp),%rax
    9ded:	89 10                	mov    %edx,(%rax)
    9def:	48 8b 85 e0 ef ff ff 	mov    -0x1020(%rbp),%rax
    9df6:	48 89 05 d3 29 01 00 	mov    %rax,0x129d3(%rip)        # 1c7d0 <g_2586>
    9dfd:	48 8b 05 cc 29 01 00 	mov    0x129cc(%rip),%rax        # 1c7d0 <g_2586>
    9e04:	48 85 c0             	test   %rax,%rax
    9e07:	0f 95 c0             	setne  %al
    9e0a:	0f b6 d0             	movzbl %al,%edx
    9e0d:	48 8b 85 38 f0 ff ff 	mov    -0xfc8(%rbp),%rax
    9e14:	89 10                	mov    %edx,(%rax)
    9e16:	48 8b 85 38 f0 ff ff 	mov    -0xfc8(%rbp),%rax
    9e1d:	8b 00                	mov    (%rax),%eax
    9e1f:	85 c0                	test   %eax,%eax
    9e21:	74 17                	je     9e3a <func_26+0x1671>
    9e23:	48 8b 85 38 f0 ff ff 	mov    -0xfc8(%rbp),%rax
    9e2a:	8b 10                	mov    (%rax),%edx
    9e2c:	48 8b 85 38 f0 ff ff 	mov    -0xfc8(%rbp),%rax
    9e33:	89 10                	mov    %edx,(%rax)
    9e35:	e9 ce 01 00 00       	jmpq   a008 <func_26+0x183f>
    9e3a:	48 8d 85 82 ef ff ff 	lea    -0x107e(%rbp),%rax
    9e41:	48 89 85 78 f0 ff ff 	mov    %rax,-0xf88(%rbp)
    9e48:	48 c7 85 80 f0 ff ff 	movq   $0x0,-0xf80(%rbp)
    9e4f:	00 00 00 00 
    9e53:	c7 85 bc ef ff ff fe 	movl   $0xfffffffe,-0x1044(%rbp)
    9e5a:	ff ff ff 
    9e5d:	c7 85 c0 ef ff ff f0 	movl   $0xf46456f0,-0x1040(%rbp)
    9e64:	56 64 f4 
    9e67:	8b 85 b0 ef ff ff    	mov    -0x1050(%rbp),%eax
    9e6d:	0f b7 d8             	movzwl %ax,%ebx
    9e70:	48 8b 05 29 24 01 00 	mov    0x12429(%rip),%rax        # 1c2a0 <g_1336>
    9e77:	48 8b 00             	mov    (%rax),%rax
    9e7a:	48 8b 00             	mov    (%rax),%rax
    9e7d:	48 8b 00             	mov    (%rax),%rax
    9e80:	48 8b 00             	mov    (%rax),%rax
    9e83:	48 85 c0             	test   %rax,%rax
    9e86:	0f 85 23 01 00 00    	jne    9faf <func_26+0x17e6>
    9e8c:	48 83 bd 68 f0 ff ff 	cmpq   $0x0,-0xf98(%rbp)
    9e93:	00 
    9e94:	0f 85 0d 01 00 00    	jne    9fa7 <func_26+0x17de>
    9e9a:	48 8b 85 48 f0 ff ff 	mov    -0xfb8(%rbp),%rax
    9ea1:	8b 00                	mov    (%rax),%eax
    9ea3:	89 85 5c ef ff ff    	mov    %eax,-0x10a4(%rbp)
    9ea9:	48 8b 05 f8 23 01 00 	mov    0x123f8(%rip),%rax        # 1c2a8 <g_1385>
    9eb0:	0f b7 00             	movzwl (%rax),%eax
    9eb3:	0f b7 c0             	movzwl %ax,%eax
    9eb6:	89 c6                	mov    %eax,%esi
    9eb8:	bf f9 ff ff ff       	mov    $0xfffffff9,%edi
    9ebd:	e8 a1 c6 ff ff       	callq  6563 <safe_rshift_func_int16_t_s_u>
    9ec2:	44 0f bf f8          	movswl %ax,%r15d
    9ec6:	48 8b 85 60 ef ff ff 	mov    -0x10a0(%rbp),%rax
    9ecd:	44 0f b7 e0          	movzwl %ax,%r12d
    9ed1:	48 8b 85 00 f0 ff ff 	mov    -0x1000(%rbp),%rax
    9ed8:	8b 00                	mov    (%rax),%eax
    9eda:	44 0f bf e8          	movswl %ax,%r13d
    9ede:	48 8b 85 68 ef ff ff 	mov    -0x1098(%rbp),%rax
    9ee5:	44 8b 30             	mov    (%rax),%r14d
    9ee8:	48 8b 85 60 ef ff ff 	mov    -0x10a0(%rbp),%rax
    9eef:	89 c2                	mov    %eax,%edx
    9ef1:	48 8b 05 b0 23 01 00 	mov    0x123b0(%rip),%rax        # 1c2a8 <g_1385>
    9ef8:	0f b7 00             	movzwl (%rax),%eax
    9efb:	0f b7 c0             	movzwl %ax,%eax
    9efe:	89 d6                	mov    %edx,%esi
    9f00:	89 c7                	mov    %eax,%edi
    9f02:	e8 ff ce ff ff       	callq  6e06 <safe_lshift_func_uint16_t_u_u>
    9f07:	0f b7 d0             	movzwl %ax,%edx
    9f0a:	48 8b 05 8f 23 01 00 	mov    0x1238f(%rip),%rax        # 1c2a0 <g_1336>
    9f11:	48 8b 00             	mov    (%rax),%rax
    9f14:	48 8b 00             	mov    (%rax),%rax
    9f17:	48 8b 00             	mov    (%rax),%rax
    9f1a:	48 8b 00             	mov    (%rax),%rax
    9f1d:	48 39 c2             	cmp    %rax,%rdx
    9f20:	0f 93 c0             	setae  %al
    9f23:	0f b6 d0             	movzbl %al,%edx
    9f26:	48 8b 85 78 f0 ff ff 	mov    -0xf88(%rbp),%rax
    9f2d:	66 89 10             	mov    %dx,(%rax)
    9f30:	8b 85 ac ef ff ff    	mov    -0x1054(%rbp),%eax
    9f36:	44 89 f6             	mov    %r14d,%esi
    9f39:	89 c7                	mov    %eax,%edi
    9f3b:	e8 76 c6 ff ff       	callq  65b6 <safe_add_func_int32_t_s_s>
    9f40:	98                   	cwtl   
    9f41:	44 89 ee             	mov    %r13d,%esi
    9f44:	89 c7                	mov    %eax,%edi
    9f46:	e8 0a c5 ff ff       	callq  6455 <safe_div_func_int16_t_s_s>
    9f4b:	48 8b 15 66 23 01 00 	mov    0x12366(%rip),%rdx        # 1c2b8 <g_1748>
    9f52:	0f b7 12             	movzwl (%rdx),%edx
    9f55:	66 39 d0             	cmp    %dx,%ax
    9f58:	0f 9c c0             	setl   %al
    9f5b:	0f b6 c0             	movzbl %al,%eax
    9f5e:	44 89 e6             	mov    %r12d,%esi
    9f61:	89 c7                	mov    %eax,%edi
    9f63:	e8 b7 cd ff ff       	callq  6d1f <safe_sub_func_uint16_t_u_u>
    9f68:	0f b7 c0             	movzwl %ax,%eax
    9f6b:	41 39 c7             	cmp    %eax,%r15d
    9f6e:	0f 9c c0             	setl   %al
    9f71:	0f b6 c0             	movzbl %al,%eax
    9f74:	be 09 00 00 00       	mov    $0x9,%esi
    9f79:	89 c7                	mov    %eax,%edi
    9f7b:	e8 fa ce ff ff       	callq  6e7a <safe_rshift_func_uint16_t_u_u>
    9f80:	8b b5 5c ef ff ff    	mov    -0x10a4(%rbp),%esi
    9f86:	bf 00 00 00 00       	mov    $0x0,%edi
    9f8b:	e8 2e cd ff ff       	callq  6cbe <safe_rshift_func_uint8_t_u_u>
    9f90:	0f b6 c0             	movzbl %al,%eax
    9f93:	0b 85 ac ef ff ff    	or     -0x1054(%rbp),%eax
    9f99:	48 98                	cltq   
    9f9b:	48 23 85 60 ef ff ff 	and    -0x10a0(%rbp),%rax
    9fa2:	48 85 c0             	test   %rax,%rax
    9fa5:	74 09                	je     9fb0 <func_26+0x17e7>
    9fa7:	48 83 bd 60 ef ff ff 	cmpq   $0x0,-0x10a0(%rbp)
    9fae:	00 
    9faf:	90                   	nop
    9fb0:	48 8b 05 49 23 01 00 	mov    0x12349(%rip),%rax        # 1c300 <g_2094>
    9fb7:	48 8b 00             	mov    (%rax),%rax
    9fba:	48 8b 00             	mov    (%rax),%rax
    9fbd:	48 39 85 80 f0 ff ff 	cmp    %rax,-0xf80(%rbp)
    9fc4:	0f 95 c0             	setne  %al
    9fc7:	0f b6 c0             	movzbl %al,%eax
    9fca:	89 de                	mov    %ebx,%esi
    9fcc:	89 c7                	mov    %eax,%edi
    9fce:	e8 4c cd ff ff       	callq  6d1f <safe_sub_func_uint16_t_u_u>
    9fd3:	66 85 c0             	test   %ax,%ax
    9fd6:	75 0b                	jne    9fe3 <func_26+0x181a>
    9fd8:	48 8b 85 10 f0 ff ff 	mov    -0xff0(%rbp),%rax
    9fdf:	8b 00                	mov    (%rax),%eax
    9fe1:	85 c0                	test   %eax,%eax
    9fe3:	83 bd bc ef ff ff 3d 	cmpl   $0x3d,-0x1044(%rbp)
    9fea:	8b 85 c0 ef ff ff    	mov    -0x1040(%rbp),%eax
    9ff0:	48 39 85 60 ef ff ff 	cmp    %rax,-0x10a0(%rbp)
    9ff7:	48 8b 05 aa 19 01 00 	mov    0x119aa(%rip),%rax        # 1b9a8 <g_673>
    9ffe:	48 8b 00             	mov    (%rax),%rax
    a001:	48 c7 00 00 00 00 00 	movq   $0x0,(%rax)
    a008:	80 ad 7f ef ff ff 01 	subb   $0x1,-0x1081(%rbp)
    a00f:	48 8b 85 60 ef ff ff 	mov    -0x10a0(%rbp),%rax
    a016:	0f be d8             	movsbl %al,%ebx
    a019:	48 8b 95 d0 ef ff ff 	mov    -0x1030(%rbp),%rdx
    a020:	48 8b 85 d0 ef ff ff 	mov    -0x1030(%rbp),%rax
    a027:	48 8b 12             	mov    (%rdx),%rdx
    a02a:	48 89 10             	mov    %rdx,(%rax)
    a02d:	48 8b 10             	mov    (%rax),%rdx
    a030:	48 8b 85 00 f8 ff ff 	mov    -0x800(%rbp),%rax
    a037:	48 39 c2             	cmp    %rax,%rdx
    a03a:	0f 95 c0             	setne  %al
    a03d:	44 0f b6 f0          	movzbl %al,%r14d
    a041:	48 8b 05 70 22 01 00 	mov    0x12270(%rip),%rax        # 1c2b8 <g_1748>
    a048:	0f b7 00             	movzwl (%rax),%eax
    a04b:	44 0f bf e0          	movswl %ax,%r12d
    a04f:	48 8b 05 52 22 01 00 	mov    0x12252(%rip),%rax        # 1c2a8 <g_1385>
    a056:	0f b7 10             	movzwl (%rax),%edx
    a059:	8d 4a 01             	lea    0x1(%rdx),%ecx
    a05c:	66 89 08             	mov    %cx,(%rax)
    a05f:	66 83 fa f9          	cmp    $0xfff9,%dx
    a063:	0f 86 d0 00 00 00    	jbe    a139 <func_26+0x1970>
    a069:	48 8b 85 10 f0 ff ff 	mov    -0xff0(%rbp),%rax
    a070:	8b 00                	mov    (%rax),%eax
    a072:	48 98                	cltq   
    a074:	ba 5d 39 45 87       	mov    $0x8745395d,%edx
    a079:	48 09 d0             	or     %rdx,%rax
    a07c:	48 3d c0 7e 00 00    	cmp    $0x7ec0,%rax
    a082:	0f 9f c0             	setg   %al
    a085:	44 0f b6 e8          	movzbl %al,%r13d
    a089:	bf 00 00 00 00       	mov    $0x0,%edi
    a08e:	e8 56 cc ff ff       	callq  6ce9 <safe_unary_minus_func_uint16_t_u>
    a093:	0f b6 c0             	movzbl %al,%eax
    a096:	44 89 ee             	mov    %r13d,%esi
    a099:	89 c7                	mov    %eax,%edi
    a09b:	e8 65 cb ff ff       	callq  6c05 <safe_lshift_func_uint8_t_u_s>
    a0a0:	0f b6 d0             	movzbl %al,%edx
    a0a3:	48 8b 85 28 f0 ff ff 	mov    -0xfd8(%rbp),%rax
    a0aa:	8b 00                	mov    (%rax),%eax
    a0ac:	39 c2                	cmp    %eax,%edx
    a0ae:	0f 9f c0             	setg   %al
    a0b1:	0f b6 c0             	movzbl %al,%eax
    a0b4:	48 39 85 70 f0 ff ff 	cmp    %rax,-0xf90(%rbp)
    a0bb:	7c 0d                	jl     a0ca <func_26+0x1901>
    a0bd:	48 8b 05 e4 21 01 00 	mov    0x121e4(%rip),%rax        # 1c2a8 <g_1385>
    a0c4:	0f b7 00             	movzwl (%rax),%eax
    a0c7:	66 85 c0             	test   %ax,%ax
    a0ca:	48 8b 85 60 ef ff ff 	mov    -0x10a0(%rbp),%rax
    a0d1:	48 be 83 b0 82 7b e8 	movabs $0x70a3b6e87b82b083,%rsi
    a0d8:	b6 a3 70 
    a0db:	48 89 c7             	mov    %rax,%rdi
    a0de:	e8 14 c9 ff ff       	callq  69f7 <safe_div_func_int64_t_s_s>
    a0e3:	48 8b 85 60 ef ff ff 	mov    -0x10a0(%rbp),%rax
    a0ea:	0f b6 c0             	movzbl %al,%eax
    a0ed:	be 05 00 00 00       	mov    $0x5,%esi
    a0f2:	89 c7                	mov    %eax,%edi
    a0f4:	e8 94 cb ff ff       	callq  6c8d <safe_rshift_func_uint8_t_u_s>
    a0f9:	48 8b 85 f8 f7 ff ff 	mov    -0x808(%rbp),%rax
    a100:	48 89 85 58 f0 ff ff 	mov    %rax,-0xfa8(%rbp)
    a107:	48 8b 85 00 f8 ff ff 	mov    -0x800(%rbp),%rax
    a10e:	48 39 85 58 f0 ff ff 	cmp    %rax,-0xfa8(%rbp)
    a115:	0f 95 c0             	setne  %al
    a118:	0f b6 c0             	movzbl %al,%eax
    a11b:	48 be 6e ae 54 98 9d 	movabs $0xf424db9d9854ae6e,%rsi
    a122:	db 24 f4 
    a125:	48 89 c7             	mov    %rax,%rdi
    a128:	e8 1e cf ff ff       	callq  704b <safe_sub_func_uint64_t_u_u>
    a12d:	48 85 c0             	test   %rax,%rax
    a130:	74 07                	je     a139 <func_26+0x1970>
    a132:	b8 01 00 00 00       	mov    $0x1,%eax
    a137:	eb 05                	jmp    a13e <func_26+0x1975>
    a139:	b8 00 00 00 00       	mov    $0x0,%eax
    a13e:	98                   	cwtl   
    a13f:	44 89 e6             	mov    %r12d,%esi
    a142:	89 c7                	mov    %eax,%edi
    a144:	e8 8a c2 ff ff       	callq  63d3 <safe_sub_func_int16_t_s_s>
    a149:	98                   	cwtl   
    a14a:	41 39 c6             	cmp    %eax,%r14d
    a14d:	89 de                	mov    %ebx,%esi
    a14f:	bf 01 00 00 00       	mov    $0x1,%edi
    a154:	e8 b9 c0 ff ff       	callq  6212 <safe_mul_func_int8_t_s_s>
    a159:	48 8b 95 68 ef ff ff 	mov    -0x1098(%rbp),%rdx
    a160:	8b 12                	mov    (%rdx),%edx
    a162:	0f be c0             	movsbl %al,%eax
    a165:	31 c2                	xor    %eax,%edx
    a167:	48 8b 85 68 ef ff ff 	mov    -0x1098(%rbp),%rax
    a16e:	89 10                	mov    %edx,(%rax)
    a170:	48 8b 85 60 ef ff ff 	mov    -0x10a0(%rbp),%rax
    a177:	48 8b 5d c8          	mov    -0x38(%rbp),%rbx
    a17b:	64 48 33 1c 25 28 00 	xor    %fs:0x28,%rbx
    a182:	00 00 
    a184:	74 05                	je     a18b <func_26+0x19c2>
    a186:	e8 e5 be ff ff       	callq  6070 <__stack_chk_fail@plt>
    a18b:	48 81 c4 88 10 00 00 	add    $0x1088,%rsp
    a192:	5b                   	pop    %rbx
    a193:	41 5c                	pop    %r12
    a195:	41 5d                	pop    %r13
    a197:	41 5e                	pop    %r14
    a199:	41 5f                	pop    %r15
    a19b:	5d                   	pop    %rbp
    a19c:	c3                   	retq   

000000000000a19d <func_29>:
    a19d:	f3 0f 1e fa          	endbr64 
    a1a1:	55                   	push   %rbp
    a1a2:	48 89 e5             	mov    %rsp,%rbp
    a1a5:	48 81 ec 00 10 00 00 	sub    $0x1000,%rsp
    a1ac:	48 83 0c 24 00       	orq    $0x0,(%rsp)
    a1b1:	48 81 ec a0 01 00 00 	sub    $0x1a0,%rsp
    a1b8:	48 89 bd 78 ee ff ff 	mov    %rdi,-0x1188(%rbp)
    a1bf:	89 b5 74 ee ff ff    	mov    %esi,-0x118c(%rbp)
    a1c5:	48 89 95 68 ee ff ff 	mov    %rdx,-0x1198(%rbp)
    a1cc:	64 48 8b 04 25 28 00 	mov    %fs:0x28,%rax
    a1d3:	00 00 
    a1d5:	48 89 45 f8          	mov    %rax,-0x8(%rbp)
    a1d9:	31 c0                	xor    %eax,%eax
    a1db:	c7 85 20 ef ff ff 01 	movl   $0x1,-0x10e0(%rbp)
    a1e2:	00 00 00 
    a1e5:	c7 85 24 ef ff ff 01 	movl   $0x1,-0x10dc(%rbp)
    a1ec:	00 00 00 
    a1ef:	c7 85 28 ef ff ff 01 	movl   $0x1,-0x10d8(%rbp)
    a1f6:	00 00 00 
    a1f9:	c7 85 2c ef ff ff 01 	movl   $0x1,-0x10d4(%rbp)
    a200:	00 00 00 
    a203:	c7 85 30 ef ff ff 01 	movl   $0x1,-0x10d0(%rbp)
    a20a:	00 00 00 
    a20d:	c7 85 34 ef ff ff 01 	movl   $0x1,-0x10cc(%rbp)
    a214:	00 00 00 
    a217:	c7 85 38 ef ff ff 01 	movl   $0x1,-0x10c8(%rbp)
    a21e:	00 00 00 
    a221:	c7 85 3c ef ff ff 01 	movl   $0x1,-0x10c4(%rbp)
    a228:	00 00 00 
    a22b:	c7 85 40 ef ff ff 01 	movl   $0x1,-0x10c0(%rbp)
    a232:	00 00 00 
    a235:	c7 85 44 ef ff ff 01 	movl   $0x1,-0x10bc(%rbp)
    a23c:	00 00 00 
    a23f:	c7 85 48 ef ff ff 01 	movl   $0x1,-0x10b8(%rbp)
    a246:	00 00 00 
    a249:	c7 85 4c ef ff ff 01 	movl   $0x1,-0x10b4(%rbp)
    a250:	00 00 00 
    a253:	c7 85 50 ef ff ff 01 	movl   $0x1,-0x10b0(%rbp)
    a25a:	00 00 00 
    a25d:	c7 85 54 ef ff ff 01 	movl   $0x1,-0x10ac(%rbp)
    a264:	00 00 00 
    a267:	c7 85 58 ef ff ff 01 	movl   $0x1,-0x10a8(%rbp)
    a26e:	00 00 00 
    a271:	c7 85 5c ef ff ff 01 	movl   $0x1,-0x10a4(%rbp)
    a278:	00 00 00 
    a27b:	c7 85 60 ef ff ff 01 	movl   $0x1,-0x10a0(%rbp)
    a282:	00 00 00 
    a285:	c7 85 64 ef ff ff 01 	movl   $0x1,-0x109c(%rbp)
    a28c:	00 00 00 
    a28f:	c7 85 68 ef ff ff 01 	movl   $0x1,-0x1098(%rbp)
    a296:	00 00 00 
    a299:	c7 85 6c ef ff ff 01 	movl   $0x1,-0x1094(%rbp)
    a2a0:	00 00 00 
    a2a3:	c7 85 70 ef ff ff 01 	movl   $0x1,-0x1090(%rbp)
    a2aa:	00 00 00 
    a2ad:	c7 85 74 ef ff ff 01 	movl   $0x1,-0x108c(%rbp)
    a2b4:	00 00 00 
    a2b7:	c7 85 78 ef ff ff 01 	movl   $0x1,-0x1088(%rbp)
    a2be:	00 00 00 
    a2c1:	c7 85 7c ef ff ff 01 	movl   $0x1,-0x1084(%rbp)
    a2c8:	00 00 00 
    a2cb:	c7 85 80 ef ff ff 01 	movl   $0x1,-0x1080(%rbp)
    a2d2:	00 00 00 
    a2d5:	c7 85 84 ef ff ff 01 	movl   $0x1,-0x107c(%rbp)
    a2dc:	00 00 00 
    a2df:	c7 85 88 ef ff ff 01 	movl   $0x1,-0x1078(%rbp)
    a2e6:	00 00 00 
    a2e9:	c7 85 8c ef ff ff 01 	movl   $0x1,-0x1074(%rbp)
    a2f0:	00 00 00 
    a2f3:	c7 85 90 ef ff ff 01 	movl   $0x1,-0x1070(%rbp)
    a2fa:	00 00 00 
    a2fd:	c7 85 94 ef ff ff 01 	movl   $0x1,-0x106c(%rbp)
    a304:	00 00 00 
    a307:	48 8d 05 3a 14 01 00 	lea    0x1143a(%rip),%rax        # 1b748 <g_321>
    a30e:	48 89 85 c0 ee ff ff 	mov    %rax,-0x1140(%rbp)
    a315:	48 8d 05 24 00 01 00 	lea    0x10024(%rip),%rax        # 1a340 <g_454>
    a31c:	48 89 85 c8 ee ff ff 	mov    %rax,-0x1138(%rbp)
    a323:	c6 85 8a ee ff ff bf 	movb   $0xbf,-0x1176(%rbp)
    a32a:	48 8d 95 a0 ef ff ff 	lea    -0x1060(%rbp),%rdx
    a331:	b8 00 00 00 00       	mov    $0x0,%eax
    a336:	b9 18 00 00 00       	mov    $0x18,%ecx
    a33b:	48 89 d7             	mov    %rdx,%rdi
    a33e:	f3 48 ab             	rep stos %rax,%es:(%rdi)
    a341:	48 8d 05 70 1f 01 00 	lea    0x11f70(%rip),%rax        # 1c2b8 <g_1748>
    a348:	48 89 85 d0 ee ff ff 	mov    %rax,-0x1130(%rbp)
    a34f:	c7 85 90 ee ff ff cf 	movl   $0xe36c8ecf,-0x1170(%rbp)
    a356:	8e 6c e3 
    a359:	c7 85 9c ee ff ff 2e 	movl   $0x22d9452e,-0x1164(%rbp)
    a360:	45 d9 22 
    a363:	66 c7 85 8c ee ff ff 	movw   $0x1,-0x1174(%rbp)
    a36a:	01 00 
    a36c:	c7 85 a0 ee ff ff 01 	movl   $0x1,-0x1160(%rbp)
    a373:	00 00 00 
    a376:	48 8d 05 3b 24 01 00 	lea    0x1243b(%rip),%rax        # 1c7b8 <g_2112>
    a37d:	48 89 85 d8 ee ff ff 	mov    %rax,-0x1128(%rbp)
    a384:	48 8d 85 70 f8 ff ff 	lea    -0x790(%rbp),%rax
    a38b:	48 8d 15 ee b2 00 00 	lea    0xb2ee(%rip),%rdx        # 15680 <g_1428+0x62b>
    a392:	b9 f0 00 00 00       	mov    $0xf0,%ecx
    a397:	48 89 c7             	mov    %rax,%rdi
    a39a:	48 89 d6             	mov    %rdx,%rsi
    a39d:	f3 48 a5             	rep movsq %ds:(%rsi),%es:(%rdi)
    a3a0:	48 8d 05 11 fd 00 00 	lea    0xfd11(%rip),%rax        # 1a0b8 <g_86+0x8>
    a3a7:	48 89 85 e0 f1 ff ff 	mov    %rax,-0xe20(%rbp)
    a3ae:	48 c7 85 e8 f1 ff ff 	movq   $0x0,-0xe18(%rbp)
    a3b5:	00 00 00 00 
    a3b9:	48 8d 05 20 02 01 00 	lea    0x10220(%rip),%rax        # 1a5e0 <g_2173+0x100>
    a3c0:	48 89 85 f0 f1 ff ff 	mov    %rax,-0xe10(%rbp)
    a3c7:	48 8d 85 90 ee ff ff 	lea    -0x1170(%rbp),%rax
    a3ce:	48 89 85 f8 f1 ff ff 	mov    %rax,-0xe08(%rbp)
    a3d5:	48 8d 05 04 02 01 00 	lea    0x10204(%rip),%rax        # 1a5e0 <g_2173+0x100>
    a3dc:	48 89 85 00 f2 ff ff 	mov    %rax,-0xe00(%rbp)
    a3e3:	48 c7 85 08 f2 ff ff 	movq   $0x0,-0xdf8(%rbp)
    a3ea:	00 00 00 00 
    a3ee:	48 8d 05 c3 fc 00 00 	lea    0xfcc3(%rip),%rax        # 1a0b8 <g_86+0x8>
    a3f5:	48 89 85 10 f2 ff ff 	mov    %rax,-0xdf0(%rbp)
    a3fc:	48 8d 05 75 01 01 00 	lea    0x10175(%rip),%rax        # 1a578 <g_2173+0x98>
    a403:	48 89 85 18 f2 ff ff 	mov    %rax,-0xde8(%rbp)
    a40a:	48 8d 05 a7 fc 00 00 	lea    0xfca7(%rip),%rax        # 1a0b8 <g_86+0x8>
    a411:	48 89 85 20 f2 ff ff 	mov    %rax,-0xde0(%rbp)
    a418:	48 8d 05 59 01 01 00 	lea    0x10159(%rip),%rax        # 1a578 <g_2173+0x98>
    a41f:	48 89 85 28 f2 ff ff 	mov    %rax,-0xdd8(%rbp)
    a426:	48 8d 05 8b fc 00 00 	lea    0xfc8b(%rip),%rax        # 1a0b8 <g_86+0x8>
    a42d:	48 89 85 30 f2 ff ff 	mov    %rax,-0xdd0(%rbp)
    a434:	48 c7 85 38 f2 ff ff 	movq   $0x0,-0xdc8(%rbp)
    a43b:	00 00 00 00 
    a43f:	48 8d 05 9a 01 01 00 	lea    0x1019a(%rip),%rax        # 1a5e0 <g_2173+0x100>
    a446:	48 89 85 40 f2 ff ff 	mov    %rax,-0xdc0(%rbp)
    a44d:	48 8d 85 90 ee ff ff 	lea    -0x1170(%rbp),%rax
    a454:	48 89 85 48 f2 ff ff 	mov    %rax,-0xdb8(%rbp)
    a45b:	48 8d 05 7e 01 01 00 	lea    0x1017e(%rip),%rax        # 1a5e0 <g_2173+0x100>
    a462:	48 89 85 50 f2 ff ff 	mov    %rax,-0xdb0(%rbp)
    a469:	48 c7 85 58 f2 ff ff 	movq   $0x0,-0xda8(%rbp)
    a470:	00 00 00 00 
    a474:	48 8d 05 3d fc 00 00 	lea    0xfc3d(%rip),%rax        # 1a0b8 <g_86+0x8>
    a47b:	48 89 85 60 f2 ff ff 	mov    %rax,-0xda0(%rbp)
    a482:	48 8d 05 ef 00 01 00 	lea    0x100ef(%rip),%rax        # 1a578 <g_2173+0x98>
    a489:	48 89 85 68 f2 ff ff 	mov    %rax,-0xd98(%rbp)
    a490:	48 8d 05 21 fc 00 00 	lea    0xfc21(%rip),%rax        # 1a0b8 <g_86+0x8>
    a497:	48 89 85 70 f2 ff ff 	mov    %rax,-0xd90(%rbp)
    a49e:	48 8d 05 d3 00 01 00 	lea    0x100d3(%rip),%rax        # 1a578 <g_2173+0x98>
    a4a5:	48 89 85 78 f2 ff ff 	mov    %rax,-0xd88(%rbp)
    a4ac:	48 8d 05 05 fc 00 00 	lea    0xfc05(%rip),%rax        # 1a0b8 <g_86+0x8>
    a4b3:	48 89 85 80 f2 ff ff 	mov    %rax,-0xd80(%rbp)
    a4ba:	48 c7 85 88 f2 ff ff 	movq   $0x0,-0xd78(%rbp)
    a4c1:	00 00 00 00 
    a4c5:	48 8d 05 14 01 01 00 	lea    0x10114(%rip),%rax        # 1a5e0 <g_2173+0x100>
    a4cc:	48 89 85 90 f2 ff ff 	mov    %rax,-0xd70(%rbp)
    a4d3:	48 8d 85 90 ee ff ff 	lea    -0x1170(%rbp),%rax
    a4da:	48 89 85 98 f2 ff ff 	mov    %rax,-0xd68(%rbp)
    a4e1:	48 8d 05 f8 00 01 00 	lea    0x100f8(%rip),%rax        # 1a5e0 <g_2173+0x100>
    a4e8:	48 89 85 a0 f2 ff ff 	mov    %rax,-0xd60(%rbp)
    a4ef:	48 c7 85 a8 f2 ff ff 	movq   $0x0,-0xd58(%rbp)
    a4f6:	00 00 00 00 
    a4fa:	48 8d 05 b7 fb 00 00 	lea    0xfbb7(%rip),%rax        # 1a0b8 <g_86+0x8>
    a501:	48 89 85 b0 f2 ff ff 	mov    %rax,-0xd50(%rbp)
    a508:	48 8d 05 69 00 01 00 	lea    0x10069(%rip),%rax        # 1a578 <g_2173+0x98>
    a50f:	48 89 85 b8 f2 ff ff 	mov    %rax,-0xd48(%rbp)
    a516:	48 8d 05 9b fb 00 00 	lea    0xfb9b(%rip),%rax        # 1a0b8 <g_86+0x8>
    a51d:	48 89 85 c0 f2 ff ff 	mov    %rax,-0xd40(%rbp)
    a524:	48 8d 05 4d 00 01 00 	lea    0x1004d(%rip),%rax        # 1a578 <g_2173+0x98>
    a52b:	48 89 85 c8 f2 ff ff 	mov    %rax,-0xd38(%rbp)
    a532:	48 8d 05 7f fb 00 00 	lea    0xfb7f(%rip),%rax        # 1a0b8 <g_86+0x8>
    a539:	48 89 85 d0 f2 ff ff 	mov    %rax,-0xd30(%rbp)
    a540:	48 c7 85 d8 f2 ff ff 	movq   $0x0,-0xd28(%rbp)
    a547:	00 00 00 00 
    a54b:	48 8d 05 8e 00 01 00 	lea    0x1008e(%rip),%rax        # 1a5e0 <g_2173+0x100>
    a552:	48 89 85 e0 f2 ff ff 	mov    %rax,-0xd20(%rbp)
    a559:	48 8d 85 90 ee ff ff 	lea    -0x1170(%rbp),%rax
    a560:	48 89 85 e8 f2 ff ff 	mov    %rax,-0xd18(%rbp)
    a567:	48 8d 05 72 00 01 00 	lea    0x10072(%rip),%rax        # 1a5e0 <g_2173+0x100>
    a56e:	48 89 85 f0 f2 ff ff 	mov    %rax,-0xd10(%rbp)
    a575:	48 c7 85 f8 f2 ff ff 	movq   $0x0,-0xd08(%rbp)
    a57c:	00 00 00 00 
    a580:	48 8d 05 31 fb 00 00 	lea    0xfb31(%rip),%rax        # 1a0b8 <g_86+0x8>
    a587:	48 89 85 00 f3 ff ff 	mov    %rax,-0xd00(%rbp)
    a58e:	48 8d 05 e3 ff 00 00 	lea    0xffe3(%rip),%rax        # 1a578 <g_2173+0x98>
    a595:	48 89 85 08 f3 ff ff 	mov    %rax,-0xcf8(%rbp)
    a59c:	48 8d 05 15 fb 00 00 	lea    0xfb15(%rip),%rax        # 1a0b8 <g_86+0x8>
    a5a3:	48 89 85 10 f3 ff ff 	mov    %rax,-0xcf0(%rbp)
    a5aa:	48 8d 05 c7 ff 00 00 	lea    0xffc7(%rip),%rax        # 1a578 <g_2173+0x98>
    a5b1:	48 89 85 18 f3 ff ff 	mov    %rax,-0xce8(%rbp)
    a5b8:	48 8d 05 f9 fa 00 00 	lea    0xfaf9(%rip),%rax        # 1a0b8 <g_86+0x8>
    a5bf:	48 89 85 20 f3 ff ff 	mov    %rax,-0xce0(%rbp)
    a5c6:	48 c7 85 28 f3 ff ff 	movq   $0x0,-0xcd8(%rbp)
    a5cd:	00 00 00 00 
    a5d1:	48 8d 05 08 00 01 00 	lea    0x10008(%rip),%rax        # 1a5e0 <g_2173+0x100>
    a5d8:	48 89 85 30 f3 ff ff 	mov    %rax,-0xcd0(%rbp)
    a5df:	48 8d 85 90 ee ff ff 	lea    -0x1170(%rbp),%rax
    a5e6:	48 89 85 38 f3 ff ff 	mov    %rax,-0xcc8(%rbp)
    a5ed:	48 8d 05 ec ff 00 00 	lea    0xffec(%rip),%rax        # 1a5e0 <g_2173+0x100>
    a5f4:	48 89 85 40 f3 ff ff 	mov    %rax,-0xcc0(%rbp)
    a5fb:	48 c7 85 48 f3 ff ff 	movq   $0x0,-0xcb8(%rbp)
    a602:	00 00 00 00 
    a606:	48 8d 05 ab fa 00 00 	lea    0xfaab(%rip),%rax        # 1a0b8 <g_86+0x8>
    a60d:	48 89 85 50 f3 ff ff 	mov    %rax,-0xcb0(%rbp)
    a614:	48 8d 05 5d ff 00 00 	lea    0xff5d(%rip),%rax        # 1a578 <g_2173+0x98>
    a61b:	48 89 85 58 f3 ff ff 	mov    %rax,-0xca8(%rbp)
    a622:	48 8d 05 8f fa 00 00 	lea    0xfa8f(%rip),%rax        # 1a0b8 <g_86+0x8>
    a629:	48 89 85 60 f3 ff ff 	mov    %rax,-0xca0(%rbp)
    a630:	48 8d 05 41 ff 00 00 	lea    0xff41(%rip),%rax        # 1a578 <g_2173+0x98>
    a637:	48 89 85 68 f3 ff ff 	mov    %rax,-0xc98(%rbp)
    a63e:	48 8d 05 73 fa 00 00 	lea    0xfa73(%rip),%rax        # 1a0b8 <g_86+0x8>
    a645:	48 89 85 70 f3 ff ff 	mov    %rax,-0xc90(%rbp)
    a64c:	48 c7 85 78 f3 ff ff 	movq   $0x0,-0xc88(%rbp)
    a653:	00 00 00 00 
    a657:	48 8d 05 82 ff 00 00 	lea    0xff82(%rip),%rax        # 1a5e0 <g_2173+0x100>
    a65e:	48 89 85 80 f3 ff ff 	mov    %rax,-0xc80(%rbp)
    a665:	48 8d 85 90 ee ff ff 	lea    -0x1170(%rbp),%rax
    a66c:	48 89 85 88 f3 ff ff 	mov    %rax,-0xc78(%rbp)
    a673:	48 8d 05 66 ff 00 00 	lea    0xff66(%rip),%rax        # 1a5e0 <g_2173+0x100>
    a67a:	48 89 85 90 f3 ff ff 	mov    %rax,-0xc70(%rbp)
    a681:	48 c7 85 98 f3 ff ff 	movq   $0x0,-0xc68(%rbp)
    a688:	00 00 00 00 
    a68c:	48 8d 05 25 fa 00 00 	lea    0xfa25(%rip),%rax        # 1a0b8 <g_86+0x8>
    a693:	48 89 85 a0 f3 ff ff 	mov    %rax,-0xc60(%rbp)
    a69a:	48 8d 05 d7 fe 00 00 	lea    0xfed7(%rip),%rax        # 1a578 <g_2173+0x98>
    a6a1:	48 89 85 a8 f3 ff ff 	mov    %rax,-0xc58(%rbp)
    a6a8:	48 8d 05 09 fa 00 00 	lea    0xfa09(%rip),%rax        # 1a0b8 <g_86+0x8>
    a6af:	48 89 85 b0 f3 ff ff 	mov    %rax,-0xc50(%rbp)
    a6b6:	48 8d 05 bb fe 00 00 	lea    0xfebb(%rip),%rax        # 1a578 <g_2173+0x98>
    a6bd:	48 89 85 b8 f3 ff ff 	mov    %rax,-0xc48(%rbp)
    a6c4:	48 8d 05 ed f9 00 00 	lea    0xf9ed(%rip),%rax        # 1a0b8 <g_86+0x8>
    a6cb:	48 89 85 c0 f3 ff ff 	mov    %rax,-0xc40(%rbp)
    a6d2:	48 c7 85 c8 f3 ff ff 	movq   $0x0,-0xc38(%rbp)
    a6d9:	00 00 00 00 
    a6dd:	48 8d 05 fc fe 00 00 	lea    0xfefc(%rip),%rax        # 1a5e0 <g_2173+0x100>
    a6e4:	48 89 85 d0 f3 ff ff 	mov    %rax,-0xc30(%rbp)
    a6eb:	48 8d 85 90 ee ff ff 	lea    -0x1170(%rbp),%rax
    a6f2:	48 89 85 d8 f3 ff ff 	mov    %rax,-0xc28(%rbp)
    a6f9:	48 8d 05 e0 fe 00 00 	lea    0xfee0(%rip),%rax        # 1a5e0 <g_2173+0x100>
    a700:	48 89 85 e0 f3 ff ff 	mov    %rax,-0xc20(%rbp)
    a707:	48 c7 85 e8 f3 ff ff 	movq   $0x0,-0xc18(%rbp)
    a70e:	00 00 00 00 
    a712:	48 8d 05 9f f9 00 00 	lea    0xf99f(%rip),%rax        # 1a0b8 <g_86+0x8>
    a719:	48 89 85 f0 f3 ff ff 	mov    %rax,-0xc10(%rbp)
    a720:	48 8d 05 51 fe 00 00 	lea    0xfe51(%rip),%rax        # 1a578 <g_2173+0x98>
    a727:	48 89 85 f8 f3 ff ff 	mov    %rax,-0xc08(%rbp)
    a72e:	48 8d 05 83 f9 00 00 	lea    0xf983(%rip),%rax        # 1a0b8 <g_86+0x8>
    a735:	48 89 85 00 f4 ff ff 	mov    %rax,-0xc00(%rbp)
    a73c:	48 8d 05 35 fe 00 00 	lea    0xfe35(%rip),%rax        # 1a578 <g_2173+0x98>
    a743:	48 89 85 08 f4 ff ff 	mov    %rax,-0xbf8(%rbp)
    a74a:	48 8d 05 67 f9 00 00 	lea    0xf967(%rip),%rax        # 1a0b8 <g_86+0x8>
    a751:	48 89 85 10 f4 ff ff 	mov    %rax,-0xbf0(%rbp)
    a758:	48 c7 85 18 f4 ff ff 	movq   $0x0,-0xbe8(%rbp)
    a75f:	00 00 00 00 
    a763:	48 8d 05 76 fe 00 00 	lea    0xfe76(%rip),%rax        # 1a5e0 <g_2173+0x100>
    a76a:	48 89 85 20 f4 ff ff 	mov    %rax,-0xbe0(%rbp)
    a771:	48 8d 85 90 ee ff ff 	lea    -0x1170(%rbp),%rax
    a778:	48 89 85 28 f4 ff ff 	mov    %rax,-0xbd8(%rbp)
    a77f:	48 8d 05 5a fe 00 00 	lea    0xfe5a(%rip),%rax        # 1a5e0 <g_2173+0x100>
    a786:	48 89 85 30 f4 ff ff 	mov    %rax,-0xbd0(%rbp)
    a78d:	48 c7 85 38 f4 ff ff 	movq   $0x0,-0xbc8(%rbp)
    a794:	00 00 00 00 
    a798:	48 8d 05 19 f9 00 00 	lea    0xf919(%rip),%rax        # 1a0b8 <g_86+0x8>
    a79f:	48 89 85 40 f4 ff ff 	mov    %rax,-0xbc0(%rbp)
    a7a6:	48 8d 05 cb fd 00 00 	lea    0xfdcb(%rip),%rax        # 1a578 <g_2173+0x98>
    a7ad:	48 89 85 48 f4 ff ff 	mov    %rax,-0xbb8(%rbp)
    a7b4:	48 8d 05 fd f8 00 00 	lea    0xf8fd(%rip),%rax        # 1a0b8 <g_86+0x8>
    a7bb:	48 89 85 50 f4 ff ff 	mov    %rax,-0xbb0(%rbp)
    a7c2:	48 8d 05 af fd 00 00 	lea    0xfdaf(%rip),%rax        # 1a578 <g_2173+0x98>
    a7c9:	48 89 85 58 f4 ff ff 	mov    %rax,-0xba8(%rbp)
    a7d0:	48 8d 05 e1 f8 00 00 	lea    0xf8e1(%rip),%rax        # 1a0b8 <g_86+0x8>
    a7d7:	48 89 85 60 f4 ff ff 	mov    %rax,-0xba0(%rbp)
    a7de:	48 c7 85 68 f4 ff ff 	movq   $0x0,-0xb98(%rbp)
    a7e5:	00 00 00 00 
    a7e9:	48 8d 05 f0 fd 00 00 	lea    0xfdf0(%rip),%rax        # 1a5e0 <g_2173+0x100>
    a7f0:	48 89 85 70 f4 ff ff 	mov    %rax,-0xb90(%rbp)
    a7f7:	48 8d 85 90 ee ff ff 	lea    -0x1170(%rbp),%rax
    a7fe:	48 89 85 78 f4 ff ff 	mov    %rax,-0xb88(%rbp)
    a805:	48 8d 05 d4 fd 00 00 	lea    0xfdd4(%rip),%rax        # 1a5e0 <g_2173+0x100>
    a80c:	48 89 85 80 f4 ff ff 	mov    %rax,-0xb80(%rbp)
    a813:	48 c7 85 88 f4 ff ff 	movq   $0x0,-0xb78(%rbp)
    a81a:	00 00 00 00 
    a81e:	48 8d 05 93 f8 00 00 	lea    0xf893(%rip),%rax        # 1a0b8 <g_86+0x8>
    a825:	48 89 85 90 f4 ff ff 	mov    %rax,-0xb70(%rbp)
    a82c:	48 8d 05 45 fd 00 00 	lea    0xfd45(%rip),%rax        # 1a578 <g_2173+0x98>
    a833:	48 89 85 98 f4 ff ff 	mov    %rax,-0xb68(%rbp)
    a83a:	48 8d 05 77 f8 00 00 	lea    0xf877(%rip),%rax        # 1a0b8 <g_86+0x8>
    a841:	48 89 85 a0 f4 ff ff 	mov    %rax,-0xb60(%rbp)
    a848:	48 8d 05 29 fd 00 00 	lea    0xfd29(%rip),%rax        # 1a578 <g_2173+0x98>
    a84f:	48 89 85 a8 f4 ff ff 	mov    %rax,-0xb58(%rbp)
    a856:	c7 85 94 ee ff ff 00 	movl   $0x0,-0x116c(%rbp)
    a85d:	00 00 00 
    a860:	eb 19                	jmp    a87b <func_29+0x6de>
    a862:	8b 85 94 ee ff ff    	mov    -0x116c(%rbp),%eax
    a868:	48 98                	cltq   
    a86a:	66 c7 84 45 f6 ee ff 	movw   $0x0,-0x110a(%rbp,%rax,2)
    a871:	ff 00 00 
    a874:	83 85 94 ee ff ff 01 	addl   $0x1,-0x116c(%rbp)
    a87b:	83 bd 94 ee ff ff 04 	cmpl   $0x4,-0x116c(%rbp)
    a882:	7e de                	jle    a862 <func_29+0x6c5>
    a884:	c7 85 94 ee ff ff 00 	movl   $0x0,-0x116c(%rbp)
    a88b:	00 00 00 
    a88e:	eb 14                	jmp    a8a4 <func_29+0x707>
    a890:	8b 85 94 ee ff ff    	mov    -0x116c(%rbp),%eax
    a896:	48 98                	cltq   
    a898:	c6 44 05 f6 fb       	movb   $0xfb,-0xa(%rbp,%rax,1)
    a89d:	83 85 94 ee ff ff 01 	addl   $0x1,-0x116c(%rbp)
    a8a4:	83 bd 94 ee ff ff 01 	cmpl   $0x1,-0x116c(%rbp)
    a8ab:	7e e3                	jle    a890 <func_29+0x6f3>
    a8ad:	c7 05 8d fa 00 00 fc 	movl   $0xfffffffc,0xfa8d(%rip)        # 1a344 <g_530>
    a8b4:	ff ff ff 
    a8b7:	e9 23 01 00 00       	jmpq   a9df <func_29+0x842>
    a8bc:	48 8d 85 60 f0 ff ff 	lea    -0xfa0(%rbp),%rax
    a8c3:	48 8d 15 36 b5 00 00 	lea    0xb536(%rip),%rdx        # 15e00 <g_1428+0xdab>
    a8ca:	b9 30 00 00 00       	mov    $0x30,%ecx
    a8cf:	48 89 c7             	mov    %rax,%rdi
    a8d2:	48 89 d6             	mov    %rdx,%rsi
    a8d5:	f3 48 a5             	rep movsq %ds:(%rsi),%es:(%rdi)
    a8d8:	66 c7 85 8e ee ff ff 	movw   $0x0,-0x1172(%rbp)
    a8df:	00 00 
    a8e1:	c7 85 a4 ee ff ff a2 	movl   $0x943a88a2,-0x115c(%rbp)
    a8e8:	88 3a 94 
    a8eb:	c7 85 a8 ee ff ff f8 	movl   $0xfffffff8,-0x1158(%rbp)
    a8f2:	ff ff ff 
    a8f5:	c7 85 ac ee ff ff ff 	movl   $0xffffffff,-0x1154(%rbp)
    a8fc:	ff ff ff 
    a8ff:	c7 85 b0 ee ff ff 01 	movl   $0x1,-0x1150(%rbp)
    a906:	00 00 00 
    a909:	48 8d 05 d8 10 01 00 	lea    0x110d8(%rip),%rax        # 1b9e8 <g_879+0x8>
    a910:	48 89 85 e0 ee ff ff 	mov    %rax,-0x1120(%rbp)
    a917:	48 8d 05 1a 0e 01 00 	lea    0x10e1a(%rip),%rax        # 1b738 <g_243>
    a91e:	48 89 85 e8 ee ff ff 	mov    %rax,-0x1118(%rbp)
    a925:	c7 85 b4 ee ff ff ff 	movl   $0xffffffff,-0x114c(%rbp)
    a92c:	ff ff ff 
    a92f:	c7 85 b8 ee ff ff d9 	movl   $0x8e44d5d9,-0x1148(%rbp)
    a936:	d5 44 8e 
    a939:	48 8d 85 b0 f4 ff ff 	lea    -0xb50(%rbp),%rax
    a940:	48 8d 15 39 b6 00 00 	lea    0xb639(%rip),%rdx        # 15f80 <g_1428+0xf2b>
    a947:	b9 78 00 00 00       	mov    $0x78,%ecx
    a94c:	48 89 c7             	mov    %rax,%rdi
    a94f:	48 89 d6             	mov    %rdx,%rsi
    a952:	f3 48 a5             	rep movsq %ds:(%rsi),%es:(%rdi)
    a955:	c7 85 bc ee ff ff 2d 	movl   $0x8a39602d,-0x1144(%rbp)
    a95c:	60 39 8a 
    a95f:	c6 85 8b ee ff ff ff 	movb   $0xff,-0x1175(%rbp)
    a966:	c7 85 98 ee ff ff 00 	movl   $0x0,-0x1168(%rbp)
    a96d:	00 00 00 
    a970:	eb 1e                	jmp    a990 <func_29+0x7f3>
    a972:	8b 85 98 ee ff ff    	mov    -0x1168(%rbp),%eax
    a978:	48 98                	cltq   
    a97a:	48 8d 15 43 fb 00 00 	lea    0xfb43(%rip),%rdx        # 1a4c4 <g_2007>
    a981:	48 89 94 c5 00 ef ff 	mov    %rdx,-0x1100(%rbp,%rax,8)
    a988:	ff 
    a989:	83 85 98 ee ff ff 01 	addl   $0x1,-0x1168(%rbp)
    a990:	83 bd 98 ee ff ff 02 	cmpl   $0x2,-0x1168(%rbp)
    a997:	7e d9                	jle    a972 <func_29+0x7d5>
    a999:	c7 85 98 ee ff ff 00 	movl   $0x0,-0x1168(%rbp)
    a9a0:	00 00 00 
    a9a3:	eb 19                	jmp    a9be <func_29+0x821>
    a9a5:	8b 85 98 ee ff ff    	mov    -0x1168(%rbp),%eax
    a9ab:	48 98                	cltq   
    a9ad:	66 c7 84 45 f4 ee ff 	movw   $0x0,-0x110c(%rbp,%rax,2)
    a9b4:	ff 00 00 
    a9b7:	83 85 98 ee ff ff 01 	addl   $0x1,-0x1168(%rbp)
    a9be:	83 bd 98 ee ff ff 00 	cmpl   $0x0,-0x1168(%rbp)
    a9c5:	7e de                	jle    a9a5 <func_29+0x808>
    a9c7:	8b 05 77 f9 00 00    	mov    0xf977(%rip),%eax        # 1a344 <g_530>
    a9cd:	be 04 00 00 00       	mov    $0x4,%esi
    a9d2:	89 c7                	mov    %eax,%edi
    a9d4:	e8 df c4 ff ff       	callq  6eb8 <safe_add_func_uint32_t_u_u>
    a9d9:	89 05 65 f9 00 00    	mov    %eax,0xf965(%rip)        # 1a344 <g_530>
    a9df:	8b 05 5f f9 00 00    	mov    0xf95f(%rip),%eax        # 1a344 <g_530>
    a9e5:	83 f8 fe             	cmp    $0xfffffffe,%eax
    a9e8:	0f 8d ce fe ff ff    	jge    a8bc <func_29+0x71f>
    a9ee:	48 8b 85 78 ff ff ff 	mov    -0x88(%rbp),%rax
    a9f5:	48 83 f8 24          	cmp    $0x24,%rax
    a9f9:	0f 9e c0             	setle  %al
    a9fc:	89 c2                	mov    %eax,%edx
    a9fe:	0f b6 05 b7 1d 01 00 	movzbl 0x11db7(%rip),%eax        # 1c7bc <g_2192>
    aa05:	21 d0                	and    %edx,%eax
    aa07:	88 05 af 1d 01 00    	mov    %al,0x11daf(%rip)        # 1c7bc <g_2192>
    aa0d:	48 8d 05 64 fb 00 00 	lea    0xfb64(%rip),%rax        # 1a578 <g_2173+0x98>
    aa14:	48 8b 4d f8          	mov    -0x8(%rbp),%rcx
    aa18:	64 48 33 0c 25 28 00 	xor    %fs:0x28,%rcx
    aa1f:	00 00 
    aa21:	74 05                	je     aa28 <func_29+0x88b>
    aa23:	e8 48 b6 ff ff       	callq  6070 <__stack_chk_fail@plt>
    aa28:	c9                   	leaveq 
    aa29:	c3                   	retq   

000000000000aa2a <func_33>:
    aa2a:	f3 0f 1e fa          	endbr64 
    aa2e:	55                   	push   %rbp
    aa2f:	48 89 e5             	mov    %rsp,%rbp
    aa32:	41 57                	push   %r15
    aa34:	41 56                	push   %r14
    aa36:	41 55                	push   %r13
    aa38:	41 54                	push   %r12
    aa3a:	53                   	push   %rbx
    aa3b:	48 81 ec 00 10 00 00 	sub    $0x1000,%rsp
    aa42:	48 83 0c 24 00       	orq    $0x0,(%rsp)
    aa47:	48 81 ec b8 04 00 00 	sub    $0x4b8,%rsp
    aa4e:	48 89 bd 58 eb ff ff 	mov    %rdi,-0x14a8(%rbp)
    aa55:	89 b5 54 eb ff ff    	mov    %esi,-0x14ac(%rbp)
    aa5b:	48 89 95 48 eb ff ff 	mov    %rdx,-0x14b8(%rbp)
    aa62:	89 c8                	mov    %ecx,%eax
    aa64:	88 85 50 eb ff ff    	mov    %al,-0x14b0(%rbp)
    aa6a:	64 48 8b 04 25 28 00 	mov    %fs:0x28,%rax
    aa71:	00 00 
    aa73:	48 89 45 c8          	mov    %rax,-0x38(%rbp)
    aa77:	31 c0                	xor    %eax,%eax
    aa79:	c7 85 60 ee ff ff fd 	movl   $0x67a6b9fd,-0x11a0(%rbp)
    aa80:	b9 a6 67 
    aa83:	c7 85 64 ee ff ff 54 	movl   $0xef131754,-0x119c(%rbp)
    aa8a:	17 13 ef 
    aa8d:	c7 85 68 ee ff ff fd 	movl   $0x67a6b9fd,-0x1198(%rbp)
    aa94:	b9 a6 67 
    aa97:	c7 85 6c ee ff ff fd 	movl   $0x67a6b9fd,-0x1194(%rbp)
    aa9e:	b9 a6 67 
    aaa1:	c7 85 70 ee ff ff 54 	movl   $0xef131754,-0x1190(%rbp)
    aaa8:	17 13 ef 
    aaab:	c7 85 74 ee ff ff fd 	movl   $0x67a6b9fd,-0x118c(%rbp)
    aab2:	b9 a6 67 
    aab5:	48 8d 05 64 f6 00 00 	lea    0xf664(%rip),%rax        # 1a120 <g_244>
    aabc:	48 89 85 70 ec ff ff 	mov    %rax,-0x1390(%rbp)
    aac3:	48 8d 05 6e f8 00 00 	lea    0xf86e(%rip),%rax        # 1a338 <g_424>
    aaca:	48 89 85 40 ec ff ff 	mov    %rax,-0x13c0(%rbp)
    aad1:	48 8d 85 40 ec ff ff 	lea    -0x13c0(%rbp),%rax
    aad8:	48 89 85 a0 f0 ff ff 	mov    %rax,-0xf60(%rbp)
    aadf:	48 8d 85 40 ec ff ff 	lea    -0x13c0(%rbp),%rax
    aae6:	48 89 85 a8 f0 ff ff 	mov    %rax,-0xf58(%rbp)
    aaed:	48 8d 85 40 ec ff ff 	lea    -0x13c0(%rbp),%rax
    aaf4:	48 89 85 b0 f0 ff ff 	mov    %rax,-0xf50(%rbp)
    aafb:	48 8d 85 40 ec ff ff 	lea    -0x13c0(%rbp),%rax
    ab02:	48 89 85 b8 f0 ff ff 	mov    %rax,-0xf48(%rbp)
    ab09:	48 8d 85 40 ec ff ff 	lea    -0x13c0(%rbp),%rax
    ab10:	48 89 85 c0 f0 ff ff 	mov    %rax,-0xf40(%rbp)
    ab17:	48 8d 85 40 ec ff ff 	lea    -0x13c0(%rbp),%rax
    ab1e:	48 89 85 c8 f0 ff ff 	mov    %rax,-0xf38(%rbp)
    ab25:	48 8d 85 40 ec ff ff 	lea    -0x13c0(%rbp),%rax
    ab2c:	48 89 85 d0 f0 ff ff 	mov    %rax,-0xf30(%rbp)
    ab33:	48 8d 85 40 ec ff ff 	lea    -0x13c0(%rbp),%rax
    ab3a:	48 89 85 d8 f0 ff ff 	mov    %rax,-0xf28(%rbp)
    ab41:	48 8d 85 40 ec ff ff 	lea    -0x13c0(%rbp),%rax
    ab48:	48 89 85 e0 f0 ff ff 	mov    %rax,-0xf20(%rbp)
    ab4f:	48 8d 85 40 ec ff ff 	lea    -0x13c0(%rbp),%rax
    ab56:	48 89 85 e8 f0 ff ff 	mov    %rax,-0xf18(%rbp)
    ab5d:	48 8d 85 40 ec ff ff 	lea    -0x13c0(%rbp),%rax
    ab64:	48 89 85 f0 f0 ff ff 	mov    %rax,-0xf10(%rbp)
    ab6b:	48 8d 85 40 ec ff ff 	lea    -0x13c0(%rbp),%rax
    ab72:	48 89 85 f8 f0 ff ff 	mov    %rax,-0xf08(%rbp)
    ab79:	48 8d 85 40 ec ff ff 	lea    -0x13c0(%rbp),%rax
    ab80:	48 89 85 00 f1 ff ff 	mov    %rax,-0xf00(%rbp)
    ab87:	48 8d 85 40 ec ff ff 	lea    -0x13c0(%rbp),%rax
    ab8e:	48 89 85 08 f1 ff ff 	mov    %rax,-0xef8(%rbp)
    ab95:	48 8d 85 40 ec ff ff 	lea    -0x13c0(%rbp),%rax
    ab9c:	48 89 85 10 f1 ff ff 	mov    %rax,-0xef0(%rbp)
    aba3:	48 8d 85 40 ec ff ff 	lea    -0x13c0(%rbp),%rax
    abaa:	48 89 85 18 f1 ff ff 	mov    %rax,-0xee8(%rbp)
    abb1:	48 8d 85 40 ec ff ff 	lea    -0x13c0(%rbp),%rax
    abb8:	48 89 85 20 f1 ff ff 	mov    %rax,-0xee0(%rbp)
    abbf:	48 8d 85 40 ec ff ff 	lea    -0x13c0(%rbp),%rax
    abc6:	48 89 85 28 f1 ff ff 	mov    %rax,-0xed8(%rbp)
    abcd:	48 8d 85 40 ec ff ff 	lea    -0x13c0(%rbp),%rax
    abd4:	48 89 85 30 f1 ff ff 	mov    %rax,-0xed0(%rbp)
    abdb:	48 8d 85 40 ec ff ff 	lea    -0x13c0(%rbp),%rax
    abe2:	48 89 85 38 f1 ff ff 	mov    %rax,-0xec8(%rbp)
    abe9:	48 8d 85 40 ec ff ff 	lea    -0x13c0(%rbp),%rax
    abf0:	48 89 85 40 f1 ff ff 	mov    %rax,-0xec0(%rbp)
    abf7:	48 8d 85 40 ec ff ff 	lea    -0x13c0(%rbp),%rax
    abfe:	48 89 85 48 f1 ff ff 	mov    %rax,-0xeb8(%rbp)
    ac05:	48 8d 85 40 ec ff ff 	lea    -0x13c0(%rbp),%rax
    ac0c:	48 89 85 50 f1 ff ff 	mov    %rax,-0xeb0(%rbp)
    ac13:	48 8d 85 40 ec ff ff 	lea    -0x13c0(%rbp),%rax
    ac1a:	48 89 85 58 f1 ff ff 	mov    %rax,-0xea8(%rbp)
    ac21:	48 8d 85 40 ec ff ff 	lea    -0x13c0(%rbp),%rax
    ac28:	48 89 85 60 f1 ff ff 	mov    %rax,-0xea0(%rbp)
    ac2f:	48 8d 85 40 ec ff ff 	lea    -0x13c0(%rbp),%rax
    ac36:	48 89 85 68 f1 ff ff 	mov    %rax,-0xe98(%rbp)
    ac3d:	48 8d 85 40 ec ff ff 	lea    -0x13c0(%rbp),%rax
    ac44:	48 89 85 70 f1 ff ff 	mov    %rax,-0xe90(%rbp)
    ac4b:	48 8d 85 40 ec ff ff 	lea    -0x13c0(%rbp),%rax
    ac52:	48 89 85 78 f1 ff ff 	mov    %rax,-0xe88(%rbp)
    ac59:	48 8d 85 40 ec ff ff 	lea    -0x13c0(%rbp),%rax
    ac60:	48 89 85 80 f1 ff ff 	mov    %rax,-0xe80(%rbp)
    ac67:	48 8d 85 40 ec ff ff 	lea    -0x13c0(%rbp),%rax
    ac6e:	48 89 85 88 f1 ff ff 	mov    %rax,-0xe78(%rbp)
    ac75:	48 8d 85 40 ec ff ff 	lea    -0x13c0(%rbp),%rax
    ac7c:	48 89 85 90 f1 ff ff 	mov    %rax,-0xe70(%rbp)
    ac83:	48 8d 85 40 ec ff ff 	lea    -0x13c0(%rbp),%rax
    ac8a:	48 89 85 98 f1 ff ff 	mov    %rax,-0xe68(%rbp)
    ac91:	48 8d 85 40 ec ff ff 	lea    -0x13c0(%rbp),%rax
    ac98:	48 89 85 a0 f1 ff ff 	mov    %rax,-0xe60(%rbp)
    ac9f:	48 8d 85 40 ec ff ff 	lea    -0x13c0(%rbp),%rax
    aca6:	48 89 85 a8 f1 ff ff 	mov    %rax,-0xe58(%rbp)
    acad:	48 8d 85 40 ec ff ff 	lea    -0x13c0(%rbp),%rax
    acb4:	48 89 85 b0 f1 ff ff 	mov    %rax,-0xe50(%rbp)
    acbb:	c7 85 84 eb ff ff b6 	movl   $0x7d5c4fb6,-0x147c(%rbp)
    acc2:	4f 5c 7d 
    acc5:	c7 85 c0 eb ff ff 00 	movl   $0x0,-0x1440(%rbp)
    accc:	00 00 00 
    accf:	48 8d 05 6a 0a 01 00 	lea    0x10a6a(%rip),%rax        # 1b740 <g_247>
    acd6:	48 89 85 48 ec ff ff 	mov    %rax,-0x13b8(%rbp)
    acdd:	48 8d 05 3c f6 00 00 	lea    0xf63c(%rip),%rax        # 1a320 <g_251>
    ace4:	48 89 85 78 ec ff ff 	mov    %rax,-0x1388(%rbp)
    aceb:	48 8d 85 00 f3 ff ff 	lea    -0xd00(%rbp),%rax
    acf2:	48 8d 15 e7 01 01 00 	lea    0x101e7(%rip),%rdx        # 1aee0 <g_2719+0x7ea>
    acf9:	b9 40 00 00 00       	mov    $0x40,%ecx
    acfe:	48 89 c7             	mov    %rax,%rdi
    ad01:	48 89 d6             	mov    %rdx,%rsi
    ad04:	f3 48 a5             	rep movsq %ds:(%rsi),%es:(%rdi)
    ad07:	c6 85 61 eb ff ff fd 	movb   $0xfd,-0x149f(%rbp)
    ad0e:	48 c7 85 50 ec ff ff 	movq   $0x0,-0x13b0(%rbp)
    ad15:	00 00 00 00 
    ad19:	48 c7 85 58 ec ff ff 	movq   $0x0,-0x13a8(%rbp)
    ad20:	00 00 00 00 
    ad24:	48 8d 85 58 ec ff ff 	lea    -0x13a8(%rbp),%rax
    ad2b:	48 89 85 60 ec ff ff 	mov    %rax,-0x13a0(%rbp)
    ad32:	66 c7 85 6a eb ff ff 	movw   $0x0,-0x1496(%rbp)
    ad39:	00 00 
    ad3b:	48 8d 05 e6 09 01 00 	lea    0x109e6(%rip),%rax        # 1b728 <g_159>
    ad42:	48 89 85 80 ec ff ff 	mov    %rax,-0x1380(%rbp)
    ad49:	c6 85 62 eb ff ff 96 	movb   $0x96,-0x149e(%rbp)
    ad50:	c7 85 c4 eb ff ff 3a 	movl   $0x5ea4563a,-0x143c(%rbp)
    ad57:	56 a4 5e 
    ad5a:	c7 85 c8 eb ff ff 59 	movl   $0xf2401459,-0x1438(%rbp)
    ad61:	14 40 f2 
    ad64:	48 c7 85 60 ef ff ff 	movq   $0x0,-0x10a0(%rbp)
    ad6b:	00 00 00 00 
    ad6f:	48 c7 85 68 ef ff ff 	movq   $0x0,-0x1098(%rbp)
    ad76:	00 00 00 00 
    ad7a:	48 c7 85 70 ef ff ff 	movq   $0x0,-0x1090(%rbp)
    ad81:	00 00 00 00 
    ad85:	48 c7 85 78 ef ff ff 	movq   $0x0,-0x1088(%rbp)
    ad8c:	00 00 00 00 
    ad90:	48 c7 85 80 ef ff ff 	movq   $0x0,-0x1080(%rbp)
    ad97:	00 00 00 00 
    ad9b:	48 c7 85 88 ef ff ff 	movq   $0x0,-0x1078(%rbp)
    ada2:	00 00 00 00 
    ada6:	48 c7 85 90 ef ff ff 	movq   $0x0,-0x1070(%rbp)
    adad:	00 00 00 00 
    adb1:	48 c7 85 98 ef ff ff 	movq   $0x0,-0x1068(%rbp)
    adb8:	00 00 00 00 
    adbc:	48 8d 85 60 ef ff ff 	lea    -0x10a0(%rbp),%rax
    adc3:	48 83 c0 10          	add    $0x10,%rax
    adc7:	48 89 85 c0 f1 ff ff 	mov    %rax,-0xe40(%rbp)
    adce:	48 8d 85 60 ef ff ff 	lea    -0x10a0(%rbp),%rax
    add5:	48 89 85 c8 f1 ff ff 	mov    %rax,-0xe38(%rbp)
    addc:	48 8d 85 60 ef ff ff 	lea    -0x10a0(%rbp),%rax
    ade3:	48 83 c0 10          	add    $0x10,%rax
    ade7:	48 89 85 d0 f1 ff ff 	mov    %rax,-0xe30(%rbp)
    adee:	48 8d 85 60 ef ff ff 	lea    -0x10a0(%rbp),%rax
    adf5:	48 83 c0 18          	add    $0x18,%rax
    adf9:	48 89 85 d8 f1 ff ff 	mov    %rax,-0xe28(%rbp)
    ae00:	48 8d 85 60 ef ff ff 	lea    -0x10a0(%rbp),%rax
    ae07:	48 83 c0 18          	add    $0x18,%rax
    ae0b:	48 89 85 e0 f1 ff ff 	mov    %rax,-0xe20(%rbp)
    ae12:	48 8d 85 60 ef ff ff 	lea    -0x10a0(%rbp),%rax
    ae19:	48 83 c0 10          	add    $0x10,%rax
    ae1d:	48 89 85 e8 f1 ff ff 	mov    %rax,-0xe18(%rbp)
    ae24:	48 8d 85 60 ef ff ff 	lea    -0x10a0(%rbp),%rax
    ae2b:	48 89 85 f0 f1 ff ff 	mov    %rax,-0xe10(%rbp)
    ae32:	48 8d 85 60 ef ff ff 	lea    -0x10a0(%rbp),%rax
    ae39:	48 83 c0 10          	add    $0x10,%rax
    ae3d:	48 89 85 f8 f1 ff ff 	mov    %rax,-0xe08(%rbp)
    ae44:	48 8d 85 60 ef ff ff 	lea    -0x10a0(%rbp),%rax
    ae4b:	48 83 c0 18          	add    $0x18,%rax
    ae4f:	48 89 85 00 f2 ff ff 	mov    %rax,-0xe00(%rbp)
    ae56:	48 8d 85 60 ef ff ff 	lea    -0x10a0(%rbp),%rax
    ae5d:	48 83 c0 18          	add    $0x18,%rax
    ae61:	48 89 85 08 f2 ff ff 	mov    %rax,-0xdf8(%rbp)
    ae68:	48 c7 85 10 f2 ff ff 	movq   $0x0,-0xdf0(%rbp)
    ae6f:	00 00 00 00 
    ae73:	48 8d 85 60 ef ff ff 	lea    -0x10a0(%rbp),%rax
    ae7a:	48 83 c0 18          	add    $0x18,%rax
    ae7e:	48 89 85 18 f2 ff ff 	mov    %rax,-0xde8(%rbp)
    ae85:	48 8d 85 60 ef ff ff 	lea    -0x10a0(%rbp),%rax
    ae8c:	48 83 c0 18          	add    $0x18,%rax
    ae90:	48 89 85 20 f2 ff ff 	mov    %rax,-0xde0(%rbp)
    ae97:	48 8d 85 60 ef ff ff 	lea    -0x10a0(%rbp),%rax
    ae9e:	48 83 c0 18          	add    $0x18,%rax
    aea2:	48 89 85 28 f2 ff ff 	mov    %rax,-0xdd8(%rbp)
    aea9:	48 8d 85 60 ef ff ff 	lea    -0x10a0(%rbp),%rax
    aeb0:	48 83 c0 18          	add    $0x18,%rax
    aeb4:	48 89 85 30 f2 ff ff 	mov    %rax,-0xdd0(%rbp)
    aebb:	48 c7 85 38 f2 ff ff 	movq   $0x0,-0xdc8(%rbp)
    aec2:	00 00 00 00 
    aec6:	48 8d 85 60 ef ff ff 	lea    -0x10a0(%rbp),%rax
    aecd:	48 83 c0 18          	add    $0x18,%rax
    aed1:	48 89 85 40 f2 ff ff 	mov    %rax,-0xdc0(%rbp)
    aed8:	48 8d 85 60 ef ff ff 	lea    -0x10a0(%rbp),%rax
    aedf:	48 83 c0 18          	add    $0x18,%rax
    aee3:	48 89 85 48 f2 ff ff 	mov    %rax,-0xdb8(%rbp)
    aeea:	48 8d 85 60 ef ff ff 	lea    -0x10a0(%rbp),%rax
    aef1:	48 83 c0 18          	add    $0x18,%rax
    aef5:	48 89 85 50 f2 ff ff 	mov    %rax,-0xdb0(%rbp)
    aefc:	48 8d 85 60 ef ff ff 	lea    -0x10a0(%rbp),%rax
    af03:	48 89 85 58 f2 ff ff 	mov    %rax,-0xda8(%rbp)
    af0a:	48 8d 85 60 ef ff ff 	lea    -0x10a0(%rbp),%rax
    af11:	48 83 c0 10          	add    $0x10,%rax
    af15:	48 89 85 60 f2 ff ff 	mov    %rax,-0xda0(%rbp)
    af1c:	48 8d 85 60 ef ff ff 	lea    -0x10a0(%rbp),%rax
    af23:	48 83 c0 18          	add    $0x18,%rax
    af27:	48 89 85 68 f2 ff ff 	mov    %rax,-0xd98(%rbp)
    af2e:	48 8d 85 60 ef ff ff 	lea    -0x10a0(%rbp),%rax
    af35:	48 83 c0 18          	add    $0x18,%rax
    af39:	48 89 85 70 f2 ff ff 	mov    %rax,-0xd90(%rbp)
    af40:	48 8d 85 60 ef ff ff 	lea    -0x10a0(%rbp),%rax
    af47:	48 83 c0 10          	add    $0x10,%rax
    af4b:	48 89 85 78 f2 ff ff 	mov    %rax,-0xd88(%rbp)
    af52:	48 c7 85 80 f2 ff ff 	movq   $0x0,-0xd80(%rbp)
    af59:	00 00 00 00 
    af5d:	48 8d 85 60 ef ff ff 	lea    -0x10a0(%rbp),%rax
    af64:	48 83 c0 10          	add    $0x10,%rax
    af68:	48 89 85 88 f2 ff ff 	mov    %rax,-0xd78(%rbp)
    af6f:	48 8d 85 60 ef ff ff 	lea    -0x10a0(%rbp),%rax
    af76:	48 83 c0 10          	add    $0x10,%rax
    af7a:	48 89 85 90 f2 ff ff 	mov    %rax,-0xd70(%rbp)
    af81:	48 c7 85 98 f2 ff ff 	movq   $0x0,-0xd68(%rbp)
    af88:	00 00 00 00 
    af8c:	48 8d 85 60 ef ff ff 	lea    -0x10a0(%rbp),%rax
    af93:	48 83 c0 18          	add    $0x18,%rax
    af97:	48 89 85 a0 f2 ff ff 	mov    %rax,-0xd60(%rbp)
    af9e:	48 c7 85 a8 f2 ff ff 	movq   $0x0,-0xd58(%rbp)
    afa5:	00 00 00 00 
    afa9:	48 8d 85 60 ef ff ff 	lea    -0x10a0(%rbp),%rax
    afb0:	48 83 c0 10          	add    $0x10,%rax
    afb4:	48 89 85 b0 f2 ff ff 	mov    %rax,-0xd50(%rbp)
    afbb:	48 8d 85 60 ef ff ff 	lea    -0x10a0(%rbp),%rax
    afc2:	48 83 c0 10          	add    $0x10,%rax
    afc6:	48 89 85 b8 f2 ff ff 	mov    %rax,-0xd48(%rbp)
    afcd:	48 8d 85 60 ef ff ff 	lea    -0x10a0(%rbp),%rax
    afd4:	48 83 c0 10          	add    $0x10,%rax
    afd8:	48 89 85 c0 f2 ff ff 	mov    %rax,-0xd40(%rbp)
    afdf:	48 8d 85 60 ef ff ff 	lea    -0x10a0(%rbp),%rax
    afe6:	48 83 c0 18          	add    $0x18,%rax
    afea:	48 89 85 c8 f2 ff ff 	mov    %rax,-0xd38(%rbp)
    aff1:	48 8d 85 60 ef ff ff 	lea    -0x10a0(%rbp),%rax
    aff8:	48 89 85 d0 f2 ff ff 	mov    %rax,-0xd30(%rbp)
    afff:	48 8d 85 60 ef ff ff 	lea    -0x10a0(%rbp),%rax
    b006:	48 89 85 d8 f2 ff ff 	mov    %rax,-0xd28(%rbp)
    b00d:	48 8d 85 60 ef ff ff 	lea    -0x10a0(%rbp),%rax
    b014:	48 83 c0 18          	add    $0x18,%rax
    b018:	48 89 85 e0 f2 ff ff 	mov    %rax,-0xd20(%rbp)
    b01f:	48 8d 85 60 ef ff ff 	lea    -0x10a0(%rbp),%rax
    b026:	48 83 c0 10          	add    $0x10,%rax
    b02a:	48 89 85 e8 f2 ff ff 	mov    %rax,-0xd18(%rbp)
    b031:	48 8d 85 60 ef ff ff 	lea    -0x10a0(%rbp),%rax
    b038:	48 83 c0 18          	add    $0x18,%rax
    b03c:	48 89 85 f0 f2 ff ff 	mov    %rax,-0xd10(%rbp)
    b043:	48 8d 85 60 ef ff ff 	lea    -0x10a0(%rbp),%rax
    b04a:	48 89 85 f8 f2 ff ff 	mov    %rax,-0xd08(%rbp)
    b051:	48 8d 85 c0 f1 ff ff 	lea    -0xe40(%rbp),%rax
    b058:	48 83 c0 60          	add    $0x60,%rax
    b05c:	48 89 85 88 ec ff ff 	mov    %rax,-0x1378(%rbp)
    b063:	c7 85 88 eb ff ff a9 	movl   $0xca71d9a9,-0x1478(%rbp)
    b06a:	d9 71 ca 
    b06d:	48 8d 05 ec 09 01 00 	lea    0x109ec(%rip),%rax        # 1ba60 <g_880>
    b074:	48 89 85 90 ec ff ff 	mov    %rax,-0x1370(%rbp)
    b07b:	c7 85 cc eb ff ff b8 	movl   $0x4fe165b8,-0x1434(%rbp)
    b082:	65 e1 4f 
    b085:	48 b8 aa dd 7d 74 3a 	movabs $0x721e523a747dddaa,%rax
    b08c:	52 1e 72 
    b08f:	48 89 85 98 ec ff ff 	mov    %rax,-0x1368(%rbp)
    b096:	c7 85 8c eb ff ff fe 	movl   $0xfffffffe,-0x1474(%rbp)
    b09d:	ff ff ff 
    b0a0:	48 c7 85 30 f9 ff ff 	movq   $0x0,-0x6d0(%rbp)
    b0a7:	00 00 00 00 
    b0ab:	48 8d 85 88 eb ff ff 	lea    -0x1478(%rbp),%rax
    b0b2:	48 89 85 38 f9 ff ff 	mov    %rax,-0x6c8(%rbp)
    b0b9:	48 8d 85 84 eb ff ff 	lea    -0x147c(%rbp),%rax
    b0c0:	48 89 85 40 f9 ff ff 	mov    %rax,-0x6c0(%rbp)
    b0c7:	48 8d 85 88 eb ff ff 	lea    -0x1478(%rbp),%rax
    b0ce:	48 89 85 48 f9 ff ff 	mov    %rax,-0x6b8(%rbp)
    b0d5:	48 8d 05 8c 16 01 00 	lea    0x1168c(%rip),%rax        # 1c768 <g_4>
    b0dc:	48 89 85 50 f9 ff ff 	mov    %rax,-0x6b0(%rbp)
    b0e3:	48 8d 85 84 eb ff ff 	lea    -0x147c(%rbp),%rax
    b0ea:	48 89 85 58 f9 ff ff 	mov    %rax,-0x6a8(%rbp)
    b0f1:	48 8d 85 60 ee ff ff 	lea    -0x11a0(%rbp),%rax
    b0f8:	48 83 c0 14          	add    $0x14,%rax
    b0fc:	48 89 85 60 f9 ff ff 	mov    %rax,-0x6a0(%rbp)
    b103:	48 8d 85 60 ee ff ff 	lea    -0x11a0(%rbp),%rax
    b10a:	48 89 85 68 f9 ff ff 	mov    %rax,-0x698(%rbp)
    b111:	48 8d 85 60 ee ff ff 	lea    -0x11a0(%rbp),%rax
    b118:	48 89 85 70 f9 ff ff 	mov    %rax,-0x690(%rbp)
    b11f:	48 8d 05 42 16 01 00 	lea    0x11642(%rip),%rax        # 1c768 <g_4>
    b126:	48 89 85 78 f9 ff ff 	mov    %rax,-0x688(%rbp)
    b12d:	48 8d 05 34 16 01 00 	lea    0x11634(%rip),%rax        # 1c768 <g_4>
    b134:	48 89 85 80 f9 ff ff 	mov    %rax,-0x680(%rbp)
    b13b:	48 8d 85 88 eb ff ff 	lea    -0x1478(%rbp),%rax
    b142:	48 89 85 88 f9 ff ff 	mov    %rax,-0x678(%rbp)
    b149:	48 8d 05 18 16 01 00 	lea    0x11618(%rip),%rax        # 1c768 <g_4>
    b150:	48 89 85 90 f9 ff ff 	mov    %rax,-0x670(%rbp)
    b157:	48 8d 85 88 eb ff ff 	lea    -0x1478(%rbp),%rax
    b15e:	48 89 85 98 f9 ff ff 	mov    %rax,-0x668(%rbp)
    b165:	48 8d 05 fc 15 01 00 	lea    0x115fc(%rip),%rax        # 1c768 <g_4>
    b16c:	48 89 85 a0 f9 ff ff 	mov    %rax,-0x660(%rbp)
    b173:	48 8d 05 ee 15 01 00 	lea    0x115ee(%rip),%rax        # 1c768 <g_4>
    b17a:	48 89 85 a8 f9 ff ff 	mov    %rax,-0x658(%rbp)
    b181:	48 8d 85 60 ee ff ff 	lea    -0x11a0(%rbp),%rax
    b188:	48 89 85 b0 f9 ff ff 	mov    %rax,-0x650(%rbp)
    b18f:	48 8d 85 60 ee ff ff 	lea    -0x11a0(%rbp),%rax
    b196:	48 89 85 b8 f9 ff ff 	mov    %rax,-0x648(%rbp)
    b19d:	48 8d 85 60 ee ff ff 	lea    -0x11a0(%rbp),%rax
    b1a4:	48 83 c0 14          	add    $0x14,%rax
    b1a8:	48 89 85 c0 f9 ff ff 	mov    %rax,-0x640(%rbp)
    b1af:	48 8d 85 84 eb ff ff 	lea    -0x147c(%rbp),%rax
    b1b6:	48 89 85 c8 f9 ff ff 	mov    %rax,-0x638(%rbp)
    b1bd:	48 8d 05 a4 15 01 00 	lea    0x115a4(%rip),%rax        # 1c768 <g_4>
    b1c4:	48 89 85 d0 f9 ff ff 	mov    %rax,-0x630(%rbp)
    b1cb:	48 8d 85 88 eb ff ff 	lea    -0x1478(%rbp),%rax
    b1d2:	48 89 85 d8 f9 ff ff 	mov    %rax,-0x628(%rbp)
    b1d9:	48 8d 85 84 eb ff ff 	lea    -0x147c(%rbp),%rax
    b1e0:	48 89 85 e0 f9 ff ff 	mov    %rax,-0x620(%rbp)
    b1e7:	48 8d 85 88 eb ff ff 	lea    -0x1478(%rbp),%rax
    b1ee:	48 89 85 e8 f9 ff ff 	mov    %rax,-0x618(%rbp)
    b1f5:	48 c7 85 f0 f9 ff ff 	movq   $0x0,-0x610(%rbp)
    b1fc:	00 00 00 00 
    b200:	48 8d 85 84 eb ff ff 	lea    -0x147c(%rbp),%rax
    b207:	48 89 85 f8 f9 ff ff 	mov    %rax,-0x608(%rbp)
    b20e:	48 8d 85 60 ee ff ff 	lea    -0x11a0(%rbp),%rax
    b215:	48 89 85 00 fa ff ff 	mov    %rax,-0x600(%rbp)
    b21c:	48 8d 85 60 ee ff ff 	lea    -0x11a0(%rbp),%rax
    b223:	48 83 c0 14          	add    $0x14,%rax
    b227:	48 89 85 08 fa ff ff 	mov    %rax,-0x5f8(%rbp)
    b22e:	48 8d 85 60 ee ff ff 	lea    -0x11a0(%rbp),%rax
    b235:	48 89 85 10 fa ff ff 	mov    %rax,-0x5f0(%rbp)
    b23c:	48 8d 85 84 eb ff ff 	lea    -0x147c(%rbp),%rax
    b243:	48 89 85 18 fa ff ff 	mov    %rax,-0x5e8(%rbp)
    b24a:	48 c7 85 20 fa ff ff 	movq   $0x0,-0x5e0(%rbp)
    b251:	00 00 00 00 
    b255:	48 8d 85 88 eb ff ff 	lea    -0x1478(%rbp),%rax
    b25c:	48 89 85 28 fa ff ff 	mov    %rax,-0x5d8(%rbp)
    b263:	48 8d 85 84 eb ff ff 	lea    -0x147c(%rbp),%rax
    b26a:	48 89 85 30 fa ff ff 	mov    %rax,-0x5d0(%rbp)
    b271:	48 8d 85 88 eb ff ff 	lea    -0x1478(%rbp),%rax
    b278:	48 89 85 38 fa ff ff 	mov    %rax,-0x5c8(%rbp)
    b27f:	48 8d 05 e2 14 01 00 	lea    0x114e2(%rip),%rax        # 1c768 <g_4>
    b286:	48 89 85 40 fa ff ff 	mov    %rax,-0x5c0(%rbp)
    b28d:	48 8d 85 84 eb ff ff 	lea    -0x147c(%rbp),%rax
    b294:	48 89 85 48 fa ff ff 	mov    %rax,-0x5b8(%rbp)
    b29b:	48 8d 85 60 ee ff ff 	lea    -0x11a0(%rbp),%rax
    b2a2:	48 83 c0 14          	add    $0x14,%rax
    b2a6:	48 89 85 50 fa ff ff 	mov    %rax,-0x5b0(%rbp)
    b2ad:	48 8d 85 60 ee ff ff 	lea    -0x11a0(%rbp),%rax
    b2b4:	48 89 85 58 fa ff ff 	mov    %rax,-0x5a8(%rbp)
    b2bb:	48 8d 85 60 ee ff ff 	lea    -0x11a0(%rbp),%rax
    b2c2:	48 89 85 60 fa ff ff 	mov    %rax,-0x5a0(%rbp)
    b2c9:	48 8d 05 98 14 01 00 	lea    0x11498(%rip),%rax        # 1c768 <g_4>
    b2d0:	48 89 85 68 fa ff ff 	mov    %rax,-0x598(%rbp)
    b2d7:	48 8d 05 8a 14 01 00 	lea    0x1148a(%rip),%rax        # 1c768 <g_4>
    b2de:	48 89 85 70 fa ff ff 	mov    %rax,-0x590(%rbp)
    b2e5:	48 8d 85 88 eb ff ff 	lea    -0x1478(%rbp),%rax
    b2ec:	48 89 85 78 fa ff ff 	mov    %rax,-0x588(%rbp)
    b2f3:	48 8d 05 6e 14 01 00 	lea    0x1146e(%rip),%rax        # 1c768 <g_4>
    b2fa:	48 89 85 80 fa ff ff 	mov    %rax,-0x580(%rbp)
    b301:	48 8d 85 88 eb ff ff 	lea    -0x1478(%rbp),%rax
    b308:	48 89 85 88 fa ff ff 	mov    %rax,-0x578(%rbp)
    b30f:	48 8d 05 52 14 01 00 	lea    0x11452(%rip),%rax        # 1c768 <g_4>
    b316:	48 89 85 90 fa ff ff 	mov    %rax,-0x570(%rbp)
    b31d:	48 8d 05 44 14 01 00 	lea    0x11444(%rip),%rax        # 1c768 <g_4>
    b324:	48 89 85 98 fa ff ff 	mov    %rax,-0x568(%rbp)
    b32b:	48 8d 85 60 ee ff ff 	lea    -0x11a0(%rbp),%rax
    b332:	48 89 85 a0 fa ff ff 	mov    %rax,-0x560(%rbp)
    b339:	48 8d 85 60 ee ff ff 	lea    -0x11a0(%rbp),%rax
    b340:	48 89 85 a8 fa ff ff 	mov    %rax,-0x558(%rbp)
    b347:	48 8d 85 60 ee ff ff 	lea    -0x11a0(%rbp),%rax
    b34e:	48 83 c0 14          	add    $0x14,%rax
    b352:	48 89 85 b0 fa ff ff 	mov    %rax,-0x550(%rbp)
    b359:	48 8d 85 84 eb ff ff 	lea    -0x147c(%rbp),%rax
    b360:	48 89 85 b8 fa ff ff 	mov    %rax,-0x548(%rbp)
    b367:	48 8d 05 fa 13 01 00 	lea    0x113fa(%rip),%rax        # 1c768 <g_4>
    b36e:	48 89 85 c0 fa ff ff 	mov    %rax,-0x540(%rbp)
    b375:	48 8d 85 88 eb ff ff 	lea    -0x1478(%rbp),%rax
    b37c:	48 89 85 c8 fa ff ff 	mov    %rax,-0x538(%rbp)
    b383:	48 8d 85 84 eb ff ff 	lea    -0x147c(%rbp),%rax
    b38a:	48 89 85 d0 fa ff ff 	mov    %rax,-0x530(%rbp)
    b391:	48 8d 85 88 eb ff ff 	lea    -0x1478(%rbp),%rax
    b398:	48 89 85 d8 fa ff ff 	mov    %rax,-0x528(%rbp)
    b39f:	48 c7 85 e0 fa ff ff 	movq   $0x0,-0x520(%rbp)
    b3a6:	00 00 00 00 
    b3aa:	48 8d 85 84 eb ff ff 	lea    -0x147c(%rbp),%rax
    b3b1:	48 89 85 e8 fa ff ff 	mov    %rax,-0x518(%rbp)
    b3b8:	48 8d 85 60 ee ff ff 	lea    -0x11a0(%rbp),%rax
    b3bf:	48 89 85 f0 fa ff ff 	mov    %rax,-0x510(%rbp)
    b3c6:	48 8d 85 60 ee ff ff 	lea    -0x11a0(%rbp),%rax
    b3cd:	48 83 c0 14          	add    $0x14,%rax
    b3d1:	48 89 85 f8 fa ff ff 	mov    %rax,-0x508(%rbp)
    b3d8:	48 8d 85 60 ee ff ff 	lea    -0x11a0(%rbp),%rax
    b3df:	48 89 85 00 fb ff ff 	mov    %rax,-0x500(%rbp)
    b3e6:	48 8d 85 84 eb ff ff 	lea    -0x147c(%rbp),%rax
    b3ed:	48 89 85 08 fb ff ff 	mov    %rax,-0x4f8(%rbp)
    b3f4:	48 c7 85 10 fb ff ff 	movq   $0x0,-0x4f0(%rbp)
    b3fb:	00 00 00 00 
    b3ff:	48 8d 85 88 eb ff ff 	lea    -0x1478(%rbp),%rax
    b406:	48 89 85 18 fb ff ff 	mov    %rax,-0x4e8(%rbp)
    b40d:	48 8d 85 84 eb ff ff 	lea    -0x147c(%rbp),%rax
    b414:	48 89 85 20 fb ff ff 	mov    %rax,-0x4e0(%rbp)
    b41b:	48 8d 85 88 eb ff ff 	lea    -0x1478(%rbp),%rax
    b422:	48 89 85 28 fb ff ff 	mov    %rax,-0x4d8(%rbp)
    b429:	48 8d 05 38 13 01 00 	lea    0x11338(%rip),%rax        # 1c768 <g_4>
    b430:	48 89 85 30 fb ff ff 	mov    %rax,-0x4d0(%rbp)
    b437:	48 8d 85 84 eb ff ff 	lea    -0x147c(%rbp),%rax
    b43e:	48 89 85 38 fb ff ff 	mov    %rax,-0x4c8(%rbp)
    b445:	48 8d 85 60 ee ff ff 	lea    -0x11a0(%rbp),%rax
    b44c:	48 83 c0 14          	add    $0x14,%rax
    b450:	48 89 85 40 fb ff ff 	mov    %rax,-0x4c0(%rbp)
    b457:	48 8d 85 60 ee ff ff 	lea    -0x11a0(%rbp),%rax
    b45e:	48 89 85 48 fb ff ff 	mov    %rax,-0x4b8(%rbp)
    b465:	48 8d 85 60 ee ff ff 	lea    -0x11a0(%rbp),%rax
    b46c:	48 89 85 50 fb ff ff 	mov    %rax,-0x4b0(%rbp)
    b473:	48 8d 05 ee 12 01 00 	lea    0x112ee(%rip),%rax        # 1c768 <g_4>
    b47a:	48 89 85 58 fb ff ff 	mov    %rax,-0x4a8(%rbp)
    b481:	48 8d 05 e0 12 01 00 	lea    0x112e0(%rip),%rax        # 1c768 <g_4>
    b488:	48 89 85 60 fb ff ff 	mov    %rax,-0x4a0(%rbp)
    b48f:	48 8d 85 88 eb ff ff 	lea    -0x1478(%rbp),%rax
    b496:	48 89 85 68 fb ff ff 	mov    %rax,-0x498(%rbp)
    b49d:	48 8d 05 c4 12 01 00 	lea    0x112c4(%rip),%rax        # 1c768 <g_4>
    b4a4:	48 89 85 70 fb ff ff 	mov    %rax,-0x490(%rbp)
    b4ab:	48 8d 85 88 eb ff ff 	lea    -0x1478(%rbp),%rax
    b4b2:	48 89 85 78 fb ff ff 	mov    %rax,-0x488(%rbp)
    b4b9:	48 8d 05 a8 12 01 00 	lea    0x112a8(%rip),%rax        # 1c768 <g_4>
    b4c0:	48 89 85 80 fb ff ff 	mov    %rax,-0x480(%rbp)
    b4c7:	48 8d 05 9a 12 01 00 	lea    0x1129a(%rip),%rax        # 1c768 <g_4>
    b4ce:	48 89 85 88 fb ff ff 	mov    %rax,-0x478(%rbp)
    b4d5:	48 8d 85 60 ee ff ff 	lea    -0x11a0(%rbp),%rax
    b4dc:	48 89 85 90 fb ff ff 	mov    %rax,-0x470(%rbp)
    b4e3:	48 8d 85 60 ee ff ff 	lea    -0x11a0(%rbp),%rax
    b4ea:	48 89 85 98 fb ff ff 	mov    %rax,-0x468(%rbp)
    b4f1:	48 8d 85 60 ee ff ff 	lea    -0x11a0(%rbp),%rax
    b4f8:	48 83 c0 14          	add    $0x14,%rax
    b4fc:	48 89 85 a0 fb ff ff 	mov    %rax,-0x460(%rbp)
    b503:	48 8d 85 84 eb ff ff 	lea    -0x147c(%rbp),%rax
    b50a:	48 89 85 a8 fb ff ff 	mov    %rax,-0x458(%rbp)
    b511:	48 c7 85 a0 ec ff ff 	movq   $0x0,-0x1360(%rbp)
    b518:	00 00 00 00 
    b51c:	48 b8 f8 e1 57 79 7b 	movabs $0x603dc27b7957e1f8,%rax
    b523:	c2 3d 60 
    b526:	48 89 85 a8 ec ff ff 	mov    %rax,-0x1358(%rbp)
    b52d:	c7 85 d0 eb ff ff 01 	movl   $0x1,-0x1430(%rbp)
    b534:	00 00 00 
    b537:	48 8d 85 00 f5 ff ff 	lea    -0xb00(%rbp),%rax
    b53e:	48 8d 15 9b fb 00 00 	lea    0xfb9b(%rip),%rdx        # 1b0e0 <g_2719+0x9ea>
    b545:	b9 40 00 00 00       	mov    $0x40,%ecx
    b54a:	48 89 c7             	mov    %rax,%rdi
    b54d:	48 89 d6             	mov    %rdx,%rsi
    b550:	f3 48 a5             	rep movsq %ds:(%rsi),%es:(%rdi)
    b553:	48 b8 f8 27 eb c0 1f 	movabs $0x83d7791fc0eb27f8,%rax
    b55a:	79 d7 83 
    b55d:	48 89 85 b0 ec ff ff 	mov    %rax,-0x1350(%rbp)
    b564:	c6 85 64 eb ff ff fe 	movb   $0xfe,-0x149c(%rbp)
    b56b:	48 c7 85 b8 ec ff ff 	movq   $0x0,-0x1348(%rbp)
    b572:	00 00 00 00 
    b576:	c7 85 90 eb ff ff 00 	movl   $0x0,-0x1470(%rbp)
    b57d:	00 00 00 
    b580:	eb 1e                	jmp    b5a0 <func_33+0xb76>
    b582:	8b 85 90 eb ff ff    	mov    -0x1470(%rbp),%eax
    b588:	48 98                	cltq   
    b58a:	48 8d 15 97 ea 00 00 	lea    0xea97(%rip),%rdx        # 1a028 <g_7>
    b591:	48 89 94 c5 18 ee ff 	mov    %rdx,-0x11e8(%rbp,%rax,8)
    b598:	ff 
    b599:	83 85 90 eb ff ff 01 	addl   $0x1,-0x1470(%rbp)
    b5a0:	83 bd 90 eb ff ff 00 	cmpl   $0x0,-0x1470(%rbp)
    b5a7:	7e d9                	jle    b582 <func_33+0xb58>
    b5a9:	c7 85 90 eb ff ff 00 	movl   $0x0,-0x1470(%rbp)
    b5b0:	00 00 00 
    b5b3:	eb 1e                	jmp    b5d3 <func_33+0xba9>
    b5b5:	8b 85 90 eb ff ff    	mov    -0x1470(%rbp),%eax
    b5bb:	48 98                	cltq   
    b5bd:	48 8d 95 48 ec ff ff 	lea    -0x13b8(%rbp),%rdx
    b5c4:	48 89 94 c5 40 ee ff 	mov    %rdx,-0x11c0(%rbp,%rax,8)
    b5cb:	ff 
    b5cc:	83 85 90 eb ff ff 01 	addl   $0x1,-0x1470(%rbp)
    b5d3:	83 bd 90 eb ff ff 01 	cmpl   $0x1,-0x1470(%rbp)
    b5da:	7e d9                	jle    b5b5 <func_33+0xb8b>
    b5dc:	c7 85 90 eb ff ff 00 	movl   $0x0,-0x1470(%rbp)
    b5e3:	00 00 00 
    b5e6:	eb 1e                	jmp    b606 <func_33+0xbdc>
    b5e8:	8b 85 90 eb ff ff    	mov    -0x1470(%rbp),%eax
    b5ee:	48 98                	cltq   
    b5f0:	48 8d 15 9d ed 00 00 	lea    0xed9d(%rip),%rdx        # 1a394 <g_1312>
    b5f7:	48 89 94 c5 20 ee ff 	mov    %rdx,-0x11e0(%rbp,%rax,8)
    b5fe:	ff 
    b5ff:	83 85 90 eb ff ff 01 	addl   $0x1,-0x1470(%rbp)
    b606:	83 bd 90 eb ff ff 00 	cmpl   $0x0,-0x1470(%rbp)
    b60d:	7e d9                	jle    b5e8 <func_33+0xbbe>
    b60f:	c7 85 90 eb ff ff 00 	movl   $0x0,-0x1470(%rbp)
    b616:	00 00 00 
    b619:	eb 1e                	jmp    b639 <func_33+0xc0f>
    b61b:	8b 85 90 eb ff ff    	mov    -0x1470(%rbp),%eax
    b621:	48 98                	cltq   
    b623:	48 8d 15 76 11 01 00 	lea    0x11176(%rip),%rdx        # 1c7a0 <g_1136>
    b62a:	48 89 94 c5 28 ee ff 	mov    %rdx,-0x11d8(%rbp,%rax,8)
    b631:	ff 
    b632:	83 85 90 eb ff ff 01 	addl   $0x1,-0x1470(%rbp)
    b639:	83 bd 90 eb ff ff 00 	cmpl   $0x0,-0x1470(%rbp)
    b640:	7e d9                	jle    b61b <func_33+0xbf1>
    b642:	c7 85 90 eb ff ff 00 	movl   $0x0,-0x1470(%rbp)
    b649:	00 00 00 
    b64c:	eb 1e                	jmp    b66c <func_33+0xc42>
    b64e:	8b 85 90 eb ff ff    	mov    -0x1470(%rbp),%eax
    b654:	48 98                	cltq   
    b656:	48 8d 95 62 eb ff ff 	lea    -0x149e(%rbp),%rdx
    b65d:	48 89 94 c5 c0 ee ff 	mov    %rdx,-0x1140(%rbp,%rax,8)
    b664:	ff 
    b665:	83 85 90 eb ff ff 01 	addl   $0x1,-0x1470(%rbp)
    b66c:	83 bd 90 eb ff ff 04 	cmpl   $0x4,-0x1470(%rbp)
    b673:	7e d9                	jle    b64e <func_33+0xc24>
    b675:	90                   	nop
    b676:	48 8b 85 70 ec ff ff 	mov    -0x1390(%rbp),%rax
    b67d:	8b 00                	mov    (%rax),%eax
    b67f:	48 8b 15 b2 ec 00 00 	mov    0xecb2(%rip),%rdx        # 1a338 <g_424>
    b686:	31 c2                	xor    %eax,%edx
    b688:	48 8b 85 70 ec ff ff 	mov    -0x1390(%rbp),%rax
    b68f:	89 10                	mov    %edx,(%rax)
    b691:	48 8b 85 40 ec ff ff 	mov    -0x13c0(%rbp),%rax
    b698:	48 89 05 49 03 01 00 	mov    %rax,0x10349(%rip)        # 1b9e8 <g_879+0x8>
    b69f:	48 8b 05 42 03 01 00 	mov    0x10342(%rip),%rax        # 1b9e8 <g_879+0x8>
    b6a6:	48 89 05 b3 03 01 00 	mov    %rax,0x103b3(%rip)        # 1ba60 <g_880>
    b6ad:	8b 85 74 ee ff ff    	mov    -0x118c(%rbp),%eax
    b6b3:	83 f8 ff             	cmp    $0xffffffff,%eax
    b6b6:	74 07                	je     b6bf <func_33+0xc95>
    b6b8:	b8 01 00 00 00       	mov    $0x1,%eax
    b6bd:	eb 05                	jmp    b6c4 <func_33+0xc9a>
    b6bf:	b8 00 00 00 00       	mov    $0x0,%eax
    b6c4:	89 85 84 eb ff ff    	mov    %eax,-0x147c(%rbp)
    b6ca:	8b 85 84 eb ff ff    	mov    -0x147c(%rbp),%eax
    b6d0:	85 c0                	test   %eax,%eax
    b6d2:	75 09                	jne    b6dd <func_33+0xcb3>
    b6d4:	0f b6 85 50 eb ff ff 	movzbl -0x14b0(%rbp),%eax
    b6db:	84 c0                	test   %al,%al
    b6dd:	8b 85 6c ee ff ff    	mov    -0x1194(%rbp),%eax
    b6e3:	83 f8 01             	cmp    $0x1,%eax
    b6e6:	0f 8f dc 03 00 00    	jg     bac8 <func_33+0x109e>
    b6ec:	48 c7 85 b0 fb ff ff 	movq   $0x0,-0x450(%rbp)
    b6f3:	00 00 00 00 
    b6f7:	48 8d 85 60 ee ff ff 	lea    -0x11a0(%rbp),%rax
    b6fe:	48 83 c0 0c          	add    $0xc,%rax
    b702:	48 89 85 b8 fb ff ff 	mov    %rax,-0x448(%rbp)
    b709:	48 8d 85 60 ee ff ff 	lea    -0x11a0(%rbp),%rax
    b710:	48 83 c0 0c          	add    $0xc,%rax
    b714:	48 89 85 c0 fb ff ff 	mov    %rax,-0x440(%rbp)
    b71b:	48 c7 85 c8 fb ff ff 	movq   $0x0,-0x438(%rbp)
    b722:	00 00 00 00 
    b726:	48 c7 85 d0 fb ff ff 	movq   $0x0,-0x430(%rbp)
    b72d:	00 00 00 00 
    b731:	48 8d 85 60 ee ff ff 	lea    -0x11a0(%rbp),%rax
    b738:	48 83 c0 0c          	add    $0xc,%rax
    b73c:	48 89 85 d8 fb ff ff 	mov    %rax,-0x428(%rbp)
    b743:	48 8d 85 60 ee ff ff 	lea    -0x11a0(%rbp),%rax
    b74a:	48 83 c0 0c          	add    $0xc,%rax
    b74e:	48 89 85 e0 fb ff ff 	mov    %rax,-0x420(%rbp)
    b755:	48 c7 85 e8 fb ff ff 	movq   $0x0,-0x418(%rbp)
    b75c:	00 00 00 00 
    b760:	48 c7 85 f0 fb ff ff 	movq   $0x0,-0x410(%rbp)
    b767:	00 00 00 00 
    b76b:	48 8d 85 60 ee ff ff 	lea    -0x11a0(%rbp),%rax
    b772:	48 83 c0 0c          	add    $0xc,%rax
    b776:	48 89 85 f8 fb ff ff 	mov    %rax,-0x408(%rbp)
    b77d:	48 c7 85 00 fc ff ff 	movq   $0x0,-0x400(%rbp)
    b784:	00 00 00 00 
    b788:	48 c7 85 08 fc ff ff 	movq   $0x0,-0x3f8(%rbp)
    b78f:	00 00 00 00 
    b793:	48 8d 85 60 ee ff ff 	lea    -0x11a0(%rbp),%rax
    b79a:	48 83 c0 0c          	add    $0xc,%rax
    b79e:	48 89 85 10 fc ff ff 	mov    %rax,-0x3f0(%rbp)
    b7a5:	48 8d 85 60 ee ff ff 	lea    -0x11a0(%rbp),%rax
    b7ac:	48 83 c0 0c          	add    $0xc,%rax
    b7b0:	48 89 85 18 fc ff ff 	mov    %rax,-0x3e8(%rbp)
    b7b7:	48 c7 85 20 fc ff ff 	movq   $0x0,-0x3e0(%rbp)
    b7be:	00 00 00 00 
    b7c2:	48 c7 85 28 fc ff ff 	movq   $0x0,-0x3d8(%rbp)
    b7c9:	00 00 00 00 
    b7cd:	48 8d 85 60 ee ff ff 	lea    -0x11a0(%rbp),%rax
    b7d4:	48 83 c0 0c          	add    $0xc,%rax
    b7d8:	48 89 85 30 fc ff ff 	mov    %rax,-0x3d0(%rbp)
    b7df:	48 8d 85 60 ee ff ff 	lea    -0x11a0(%rbp),%rax
    b7e6:	48 83 c0 0c          	add    $0xc,%rax
    b7ea:	48 89 85 38 fc ff ff 	mov    %rax,-0x3c8(%rbp)
    b7f1:	48 c7 85 40 fc ff ff 	movq   $0x0,-0x3c0(%rbp)
    b7f8:	00 00 00 00 
    b7fc:	48 c7 85 48 fc ff ff 	movq   $0x0,-0x3b8(%rbp)
    b803:	00 00 00 00 
    b807:	48 8d 05 22 eb 00 00 	lea    0xeb22(%rip),%rax        # 1a330 <g_397>
    b80e:	48 89 85 e8 ec ff ff 	mov    %rax,-0x1318(%rbp)
    b815:	66 c7 85 70 eb ff ff 	movw   $0xfffc,-0x1490(%rbp)
    b81c:	fc ff 
    b81e:	66 c7 85 72 eb ff ff 	movw   $0x1,-0x148e(%rbp)
    b825:	01 00 
    b827:	c7 85 94 eb ff ff 00 	movl   $0x0,-0x146c(%rbp)
    b82e:	00 00 00 
    b831:	eb 1e                	jmp    b851 <func_33+0xe27>
    b833:	8b 85 94 eb ff ff    	mov    -0x146c(%rbp),%eax
    b839:	48 98                	cltq   
    b83b:	48 8d 15 6a e8 00 00 	lea    0xe86a(%rip),%rdx        # 1a0ac <g_77>
    b842:	48 89 94 c5 00 f7 ff 	mov    %rdx,-0x900(%rbp,%rax,8)
    b849:	ff 
    b84a:	83 85 94 eb ff ff 01 	addl   $0x1,-0x146c(%rbp)
    b851:	83 bd 94 eb ff ff 01 	cmpl   $0x1,-0x146c(%rbp)
    b858:	7e d9                	jle    b833 <func_33+0xe09>
    b85a:	c7 85 94 eb ff ff 00 	movl   $0x0,-0x146c(%rbp)
    b861:	00 00 00 
    b864:	eb 14                	jmp    b87a <func_33+0xe50>
    b866:	8b 85 94 eb ff ff    	mov    -0x146c(%rbp),%eax
    b86c:	48 98                	cltq   
    b86e:	c6 44 05 bf 00       	movb   $0x0,-0x41(%rbp,%rax,1)
    b873:	83 85 94 eb ff ff 01 	addl   $0x1,-0x146c(%rbp)
    b87a:	83 bd 94 eb ff ff 02 	cmpl   $0x2,-0x146c(%rbp)
    b881:	7e e3                	jle    b866 <func_33+0xe3c>
    b883:	8b 05 2f e8 00 00    	mov    0xe82f(%rip),%eax        # 1a0b8 <g_86+0x8>
    b889:	83 c8 01             	or     $0x1,%eax
    b88c:	89 05 26 e8 00 00    	mov    %eax,0xe826(%rip)        # 1a0b8 <g_86+0x8>
    b892:	8b 85 84 eb ff ff    	mov    -0x147c(%rbp),%eax
    b898:	0f b7 d8             	movzwl %ax,%ebx
    b89b:	48 8b 85 58 eb ff ff 	mov    -0x14a8(%rbp),%rax
    b8a2:	8b 00                	mov    (%rax),%eax
    b8a4:	89 85 44 eb ff ff    	mov    %eax,-0x14bc(%rbp)
    b8aa:	48 8b 85 58 eb ff ff 	mov    -0x14a8(%rbp),%rax
    b8b1:	8b 00                	mov    (%rax),%eax
    b8b3:	89 85 38 eb ff ff    	mov    %eax,-0x14c8(%rbp)
    b8b9:	0f b6 85 50 eb ff ff 	movzbl -0x14b0(%rbp),%eax
    b8c0:	0f b6 d0             	movzbl %al,%edx
    b8c3:	48 8b 85 e8 ec ff ff 	mov    -0x1318(%rbp),%rax
    b8ca:	66 89 10             	mov    %dx,(%rax)
    b8cd:	48 8b 85 e8 ec ff ff 	mov    -0x1318(%rbp),%rax
    b8d4:	0f b7 00             	movzwl (%rax),%eax
    b8d7:	44 0f bf f0          	movswl %ax,%r14d
    b8db:	0f b6 85 50 eb ff ff 	movzbl -0x14b0(%rbp),%eax
    b8e2:	84 c0                	test   %al,%al
    b8e4:	0f 84 85 01 00 00    	je     ba6f <func_33+0x1045>
    b8ea:	8b 85 54 eb ff ff    	mov    -0x14ac(%rbp),%eax
    b8f0:	44 0f b6 e0          	movzbl %al,%r12d
    b8f4:	44 0f bf ad 72 eb ff 	movswl -0x148e(%rbp),%r13d
    b8fb:	ff 
    b8fc:	8b 85 c0 eb ff ff    	mov    -0x1440(%rbp),%eax
    b902:	89 c6                	mov    %eax,%esi
    b904:	bf ff ff ff ff       	mov    $0xffffffff,%edi
    b909:	e8 ef b5 ff ff       	callq  6efd <safe_mod_func_uint32_t_u_u>
    b90e:	41 89 c7             	mov    %eax,%r15d
    b911:	0f b6 85 50 eb ff ff 	movzbl -0x14b0(%rbp),%eax
    b918:	0f b6 c0             	movzbl %al,%eax
    b91b:	89 85 40 eb ff ff    	mov    %eax,-0x14c0(%rbp)
    b921:	0f b6 05 58 ea 00 00 	movzbl 0xea58(%rip),%eax        # 1a380 <g_909>
    b928:	8d 50 01             	lea    0x1(%rax),%edx
    b92b:	88 15 4f ea 00 00    	mov    %dl,0xea4f(%rip)        # 1a380 <g_909>
    b931:	0f b6 f0             	movzbl %al,%esi
    b934:	48 89 b5 30 eb ff ff 	mov    %rsi,-0x14d0(%rbp)
    b93b:	8b 85 54 eb ff ff    	mov    -0x14ac(%rbp),%eax
    b941:	48 63 f8             	movslq %eax,%rdi
    b944:	48 89 bd 28 eb ff ff 	mov    %rdi,-0x14d8(%rbp)
    b94b:	0f b6 85 50 eb ff ff 	movzbl -0x14b0(%rbp),%eax
    b952:	0f b6 c0             	movzbl %al,%eax
    b955:	f7 d0                	not    %eax
    b957:	48 98                	cltq   
    b959:	48 89 c7             	mov    %rax,%rdi
    b95c:	e8 b5 ae ff ff       	callq  6816 <safe_unary_minus_func_int64_t_s>
    b961:	48 23 85 28 eb ff ff 	and    -0x14d8(%rbp),%rax
    b968:	48 39 85 30 eb ff ff 	cmp    %rax,-0x14d0(%rbp)
    b96f:	0f 95 c0             	setne  %al
    b972:	0f b6 c0             	movzbl %al,%eax
    b975:	39 85 c0 eb ff ff    	cmp    %eax,-0x1440(%rbp)
    b97b:	0f 9c c0             	setl   %al
    b97e:	0f b6 c0             	movzbl %al,%eax
    b981:	39 85 40 eb ff ff    	cmp    %eax,-0x14c0(%rbp)
    b987:	0f 95 c0             	setne  %al
    b98a:	0f b6 c0             	movzbl %al,%eax
    b98d:	44 89 fe             	mov    %r15d,%esi
    b990:	89 c7                	mov    %eax,%edi
    b992:	e8 d5 a9 ff ff       	callq  636c <safe_rshift_func_int8_t_s_u>
    b997:	0f b6 c0             	movzbl %al,%eax
    b99a:	44 89 ee             	mov    %r13d,%esi
    b99d:	89 c7                	mov    %eax,%edi
    b99f:	e8 a8 b2 ff ff       	callq  6c4c <safe_lshift_func_uint8_t_u_u>
    b9a4:	0f b6 95 50 eb ff ff 	movzbl -0x14b0(%rbp),%edx
    b9ab:	38 d0                	cmp    %dl,%al
    b9ad:	0f 93 c0             	setae  %al
    b9b0:	0f b6 c0             	movzbl %al,%eax
    b9b3:	39 85 c0 eb ff ff    	cmp    %eax,-0x1440(%rbp)
    b9b9:	0f 95 c0             	setne  %al
    b9bc:	0f b6 d0             	movzbl %al,%edx
    b9bf:	0f b6 05 7a e9 00 00 	movzbl 0xe97a(%rip),%eax        # 1a340 <g_454>
    b9c6:	0f be c0             	movsbl %al,%eax
    b9c9:	39 c2                	cmp    %eax,%edx
    b9cb:	0f 95 c0             	setne  %al
    b9ce:	0f b6 d0             	movzbl %al,%edx
    b9d1:	8b 05 d1 e6 00 00    	mov    0xe6d1(%rip),%eax        # 1a0a8 <g_60>
    b9d7:	0f be c0             	movsbl %al,%eax
    b9da:	89 d6                	mov    %edx,%esi
    b9dc:	89 c7                	mov    %eax,%edi
    b9de:	e8 2f a8 ff ff       	callq  6212 <safe_mul_func_int8_t_s_s>
    b9e3:	0f be c0             	movsbl %al,%eax
    b9e6:	89 85 68 ee ff ff    	mov    %eax,-0x1198(%rbp)
    b9ec:	48 8b 85 58 eb ff ff 	mov    -0x14a8(%rbp),%rax
    b9f3:	8b 00                	mov    (%rax),%eax
    b9f5:	83 f8 01             	cmp    $0x1,%eax
    b9f8:	0f 9e c0             	setle  %al
    b9fb:	0f b6 d0             	movzbl %al,%edx
    b9fe:	48 8b 05 0b e7 00 00 	mov    0xe70b(%rip),%rax        # 1a110 <g_171+0x30>
    ba05:	0f be c0             	movsbl %al,%eax
    ba08:	89 d6                	mov    %edx,%esi
    ba0a:	89 c7                	mov    %eax,%edi
    ba0c:	e8 01 a8 ff ff       	callq  6212 <safe_mul_func_int8_t_s_s>
    ba11:	48 0f be c0          	movsbq %al,%rax
    ba15:	ba 26 f0 f6 cf       	mov    $0xcff6f026,%edx
    ba1a:	48 31 c2             	xor    %rax,%rdx
    ba1d:	8b 85 84 eb ff ff    	mov    -0x147c(%rbp),%eax
    ba23:	48 98                	cltq   
    ba25:	48 39 c2             	cmp    %rax,%rdx
    ba28:	0f 95 c0             	setne  %al
    ba2b:	0f b6 c0             	movzbl %al,%eax
    ba2e:	be 06 00 00 00       	mov    $0x6,%esi
    ba33:	89 c7                	mov    %eax,%edi
    ba35:	e8 b4 a8 ff ff       	callq  62ee <safe_lshift_func_int8_t_s_u>
    ba3a:	0f be c0             	movsbl %al,%eax
    ba3d:	be bc ff ff ff       	mov    $0xffffffbc,%esi
    ba42:	89 c7                	mov    %eax,%edi
    ba44:	e8 c9 a7 ff ff       	callq  6212 <safe_mul_func_int8_t_s_s>
    ba49:	0f b6 c0             	movzbl %al,%eax
    ba4c:	44 89 e6             	mov    %r12d,%esi
    ba4f:	89 c7                	mov    %eax,%edi
    ba51:	e8 85 b1 ff ff       	callq  6bdb <safe_div_func_uint8_t_u_u>
    ba56:	8b 85 54 eb ff ff    	mov    -0x14ac(%rbp),%eax
    ba5c:	48 98                	cltq   
    ba5e:	48 89 05 23 e9 00 00 	mov    %rax,0xe923(%rip)        # 1a388 <g_918>
    ba65:	48 8b 05 1c e9 00 00 	mov    0xe91c(%rip),%rax        # 1a388 <g_918>
    ba6c:	48 85 c0             	test   %rax,%rax
    ba6f:	b8 01 00 00 00       	mov    $0x1,%eax
    ba74:	44 39 f0             	cmp    %r14d,%eax
    ba77:	0f 9e c0             	setle  %al
    ba7a:	0f b6 d0             	movzbl %al,%edx
    ba7d:	8b 85 84 eb ff ff    	mov    -0x147c(%rbp),%eax
    ba83:	31 d0                	xor    %edx,%eax
    ba85:	8b b5 38 eb ff ff    	mov    -0x14c8(%rbp),%esi
    ba8b:	89 c7                	mov    %eax,%edi
    ba8d:	e8 3e b4 ff ff       	callq  6ed0 <safe_sub_func_uint32_t_u_u>
    ba92:	48 8b 05 8f fc 00 00 	mov    0xfc8f(%rip),%rax        # 1b728 <g_159>
    ba99:	8b 00                	mov    (%rax),%eax
    ba9b:	8b b5 44 eb ff ff    	mov    -0x14bc(%rbp),%esi
    baa1:	89 c7                	mov    %eax,%edi
    baa3:	e8 10 b4 ff ff       	callq  6eb8 <safe_add_func_uint32_t_u_u>
    baa8:	0f b7 c0             	movzwl %ax,%eax
    baab:	89 de                	mov    %ebx,%esi
    baad:	89 c7                	mov    %eax,%edi
    baaf:	e8 89 b2 ff ff       	callq  6d3d <safe_mul_func_uint16_t_u_u>
    bab4:	48 8b 85 58 eb ff ff 	mov    -0x14a8(%rbp),%rax
    babb:	8b 00                	mov    (%rax),%eax
    babd:	89 85 84 eb ff ff    	mov    %eax,-0x147c(%rbp)
    bac3:	e9 83 01 00 00       	jmpq   bc4b <func_33+0x1221>
    bac8:	48 c7 85 c0 ec ff ff 	movq   $0x0,-0x1340(%rbp)
    bacf:	00 00 00 00 
    bad3:	48 8d 85 60 ee ff ff 	lea    -0x11a0(%rbp),%rax
    bada:	48 83 c0 0c          	add    $0xc,%rax
    bade:	48 89 85 c8 ec ff ff 	mov    %rax,-0x1338(%rbp)
    bae5:	48 8d 85 60 ee ff ff 	lea    -0x11a0(%rbp),%rax
    baec:	48 83 c0 0c          	add    $0xc,%rax
    baf0:	48 89 85 d0 ec ff ff 	mov    %rax,-0x1330(%rbp)
    baf7:	48 c7 85 d8 ec ff ff 	movq   $0x0,-0x1328(%rbp)
    bafe:	00 00 00 00 
    bb02:	66 c7 85 6e eb ff ff 	movw   $0x816c,-0x1492(%rbp)
    bb09:	6c 81 
    bb0b:	c7 85 b0 fb ff ff 0c 	movl   $0xcfe9c50c,-0x450(%rbp)
    bb12:	c5 e9 cf 
    bb15:	c7 85 b4 fb ff ff 00 	movl   $0x0,-0x44c(%rbp)
    bb1c:	00 00 00 
    bb1f:	c7 85 b8 fb ff ff 26 	movl   $0xceead026,-0x448(%rbp)
    bb26:	d0 ea ce 
    bb29:	c7 85 bc fb ff ff 26 	movl   $0xceead026,-0x444(%rbp)
    bb30:	d0 ea ce 
    bb33:	c7 85 c0 fb ff ff 00 	movl   $0x0,-0x440(%rbp)
    bb3a:	00 00 00 
    bb3d:	c7 85 c4 fb ff ff 05 	movl   $0x5,-0x43c(%rbp)
    bb44:	00 00 00 
    bb47:	c7 85 c8 fb ff ff 08 	movl   $0x8,-0x438(%rbp)
    bb4e:	00 00 00 
    bb51:	c7 85 cc fb ff ff 26 	movl   $0xceead026,-0x434(%rbp)
    bb58:	d0 ea ce 
    bb5b:	c7 85 d0 fb ff ff 05 	movl   $0x5,-0x430(%rbp)
    bb62:	00 00 00 
    bb65:	c7 85 d4 fb ff ff 02 	movl   $0x2,-0x42c(%rbp)
    bb6c:	00 00 00 
    bb6f:	c7 85 d8 fb ff ff 26 	movl   $0x7dbe9226,-0x428(%rbp)
    bb76:	92 be 7d 
    bb79:	c7 85 dc fb ff ff 0c 	movl   $0xcfe9c50c,-0x424(%rbp)
    bb80:	c5 e9 cf 
    bb83:	c7 85 e0 fb ff ff 0c 	movl   $0xcfe9c50c,-0x420(%rbp)
    bb8a:	c5 e9 cf 
    bb8d:	c7 85 e4 fb ff ff 37 	movl   $0x9347b37,-0x41c(%rbp)
    bb94:	7b 34 09 
    bb97:	c7 85 e8 fb ff ff 00 	movl   $0x0,-0x418(%rbp)
    bb9e:	00 00 00 
    bba1:	c7 85 ec fb ff ff 37 	movl   $0x9347b37,-0x414(%rbp)
    bba8:	7b 34 09 
    bbab:	c7 85 f0 fb ff ff 0c 	movl   $0xcfe9c50c,-0x410(%rbp)
    bbb2:	c5 e9 cf 
    bbb5:	c7 85 f4 fb ff ff 26 	movl   $0xceead026,-0x40c(%rbp)
    bbbc:	d0 ea ce 
    bbbf:	c7 85 f8 fb ff ff 0c 	movl   $0xcfe9c50c,-0x408(%rbp)
    bbc6:	c5 e9 cf 
    bbc9:	c7 85 fc fb ff ff 08 	movl   $0x8,-0x404(%rbp)
    bbd0:	00 00 00 
    bbd3:	c7 85 00 fc ff ff 37 	movl   $0x9347b37,-0x400(%rbp)
    bbda:	7b 34 09 
    bbdd:	c7 85 04 fc ff ff 02 	movl   $0x2,-0x3fc(%rbp)
    bbe4:	00 00 00 
    bbe7:	c7 85 08 fc ff ff 77 	movl   $0x9f405877,-0x3f8(%rbp)
    bbee:	58 40 9f 
    bbf1:	c7 85 0c fc ff ff 77 	movl   $0x9f405877,-0x3f4(%rbp)
    bbf8:	58 40 9f 
    bbfb:	c7 85 d4 eb ff ff 00 	movl   $0x0,-0x142c(%rbp)
    bc02:	00 00 00 
    bc05:	48 c7 85 e0 ec ff ff 	movq   $0xfffffffffffffffc,-0x1320(%rbp)
    bc0c:	fc ff ff ff 
    bc10:	c7 85 98 eb ff ff 00 	movl   $0x0,-0x1468(%rbp)
    bc17:	00 00 00 
    bc1a:	eb 1e                	jmp    bc3a <func_33+0x1210>
    bc1c:	8b 85 98 eb ff ff    	mov    -0x1468(%rbp),%eax
    bc22:	48 98                	cltq   
    bc24:	48 8d 95 84 eb ff ff 	lea    -0x147c(%rbp),%rdx
    bc2b:	48 89 94 c5 00 f7 ff 	mov    %rdx,-0x900(%rbp,%rax,8)
    bc32:	ff 
    bc33:	83 85 98 eb ff ff 01 	addl   $0x1,-0x1468(%rbp)
    bc3a:	83 bd 98 eb ff ff 05 	cmpl   $0x5,-0x1468(%rbp)
    bc41:	7e d9                	jle    bc1c <func_33+0x11f2>
    bc43:	48 83 85 e0 ec ff ff 	addq   $0x1,-0x1320(%rbp)
    bc4a:	01 
    bc4b:	48 8d 05 ee fa 00 00 	lea    0xfaee(%rip),%rax        # 1b740 <g_247>
    bc52:	48 89 05 0f fe 00 00 	mov    %rax,0xfe0f(%rip)        # 1ba68 <g_932>
    bc59:	4c 8b 35 08 fe 00 00 	mov    0xfe08(%rip),%r14        # 1ba68 <g_932>
    bc60:	8b 85 c0 eb ff ff    	mov    -0x1440(%rbp),%eax
    bc66:	0f b6 d8             	movzbl %al,%ebx
    bc69:	0f b6 85 50 eb ff ff 	movzbl -0x14b0(%rbp),%eax
    bc70:	44 0f be e0          	movsbl %al,%r12d
    bc74:	0f b6 85 50 eb ff ff 	movzbl -0x14b0(%rbp),%eax
    bc7b:	0f b6 d0             	movzbl %al,%edx
    bc7e:	48 8b 85 70 ec ff ff 	mov    -0x1390(%rbp),%rax
    bc85:	89 10                	mov    %edx,(%rax)
    bc87:	48 8b 05 9a fa 00 00 	mov    0xfa9a(%rip),%rax        # 1b728 <g_159>
    bc8e:	44 8b 28             	mov    (%rax),%r13d
    bc91:	48 83 bd 70 ec ff ff 	cmpq   $0x0,-0x1390(%rbp)
    bc98:	00 
    bc99:	0f 95 c0             	setne  %al
    bc9c:	0f b6 c0             	movzbl %al,%eax
    bc9f:	be 06 00 00 00       	mov    $0x6,%esi
    bca4:	89 c7                	mov    %eax,%edi
    bca6:	e8 13 b0 ff ff       	callq  6cbe <safe_rshift_func_uint8_t_u_u>
    bcab:	0f b6 d0             	movzbl %al,%edx
    bcae:	0f b6 85 50 eb ff ff 	movzbl -0x14b0(%rbp),%eax
    bcb5:	0f b6 c8             	movzbl %al,%ecx
    bcb8:	48 8b 85 78 ec ff ff 	mov    -0x1388(%rbp),%rax
    bcbf:	66 89 08             	mov    %cx,(%rax)
    bcc2:	48 8b 85 78 ec ff ff 	mov    -0x1388(%rbp),%rax
    bcc9:	0f b7 00             	movzwl (%rax),%eax
    bccc:	0f b7 c0             	movzwl %ax,%eax
    bccf:	89 d6                	mov    %edx,%esi
    bcd1:	89 c7                	mov    %eax,%edi
    bcd3:	e8 b6 b0 ff ff       	callq  6d8e <safe_div_func_uint16_t_u_u>
    bcd8:	0f b7 c0             	movzwl %ax,%eax
    bcdb:	44 89 ee             	mov    %r13d,%esi
    bcde:	89 c7                	mov    %eax,%edi
    bce0:	e8 40 b2 ff ff       	callq  6f25 <safe_div_func_uint32_t_u_u>
    bce5:	8b 85 54 eb ff ff    	mov    -0x14ac(%rbp),%eax
    bceb:	3d 9b 00 00 00       	cmp    $0x9b,%eax
    bcf0:	0f 9f c0             	setg   %al
    bcf3:	0f b6 c0             	movzbl %al,%eax
    bcf6:	44 89 e6             	mov    %r12d,%esi
    bcf9:	89 c7                	mov    %eax,%edi
    bcfb:	e8 31 a5 ff ff       	callq  6231 <safe_mod_func_int8_t_s_s>
    bd00:	0f b6 c0             	movzbl %al,%eax
    bd03:	89 de                	mov    %ebx,%esi
    bd05:	89 c7                	mov    %eax,%edi
    bd07:	e8 87 ae ff ff       	callq  6b93 <safe_mul_func_uint8_t_u_u>
    bd0c:	8b 95 6c ee ff ff    	mov    -0x1194(%rbp),%edx
    bd12:	0f b6 85 50 eb ff ff 	movzbl -0x14b0(%rbp),%eax
    bd19:	0f b6 c0             	movzbl %al,%eax
    bd1c:	21 d0                	and    %edx,%eax
    bd1e:	89 85 6c ee ff ff    	mov    %eax,-0x1194(%rbp)
    bd24:	8b 85 6c ee ff ff    	mov    -0x1194(%rbp),%eax
    bd2a:	98                   	cwtl   
    bd2b:	be 04 00 00 00       	mov    $0x4,%esi
    bd30:	89 c7                	mov    %eax,%edi
    bd32:	e8 1e a7 ff ff       	callq  6455 <safe_div_func_int16_t_s_s>
    bd37:	48 0f bf d0          	movswq %ax,%rdx
    bd3b:	0f b6 85 50 eb ff ff 	movzbl -0x14b0(%rbp),%eax
    bd42:	0f b6 c0             	movzbl %al,%eax
    bd45:	48 89 05 a4 e3 00 00 	mov    %rax,0xe3a4(%rip)        # 1a0f0 <g_171+0x10>
    bd4c:	48 8b 05 9d e3 00 00 	mov    0xe39d(%rip),%rax        # 1a0f0 <g_171+0x10>
    bd53:	48 89 d6             	mov    %rdx,%rsi
    bd56:	48 89 c7             	mov    %rax,%rdi
    bd59:	e8 56 ac ff ff       	callq  69b4 <safe_mod_func_int64_t_s_s>
    bd5e:	0f b7 c0             	movzwl %ax,%eax
    bd61:	be 01 00 00 00       	mov    $0x1,%esi
    bd66:	89 c7                	mov    %eax,%edi
    bd68:	e8 db b0 ff ff       	callq  6e48 <safe_rshift_func_uint16_t_u_s>
    bd6d:	48 8d 05 c4 f9 00 00 	lea    0xf9c4(%rip),%rax        # 1b738 <g_243>
    bd74:	48 89 05 f5 fc 00 00 	mov    %rax,0xfcf5(%rip)        # 1ba70 <g_951>
    bd7b:	48 8b 05 ee fc 00 00 	mov    0xfcee(%rip),%rax        # 1ba70 <g_951>
    bd82:	49 39 c6             	cmp    %rax,%r14
    bd85:	0f 84 56 15 00 00    	je     d2e1 <func_33+0x28b7>
    bd8b:	c6 85 63 eb ff ff f8 	movb   $0xf8,-0x149d(%rbp)
    bd92:	48 8d 05 ef e5 00 00 	lea    0xe5ef(%rip),%rax        # 1a388 <g_918>
    bd99:	48 89 85 60 ed ff ff 	mov    %rax,-0x12a0(%rbp)
    bda0:	48 8d 05 99 f9 00 00 	lea    0xf999(%rip),%rax        # 1b740 <g_247>
    bda7:	48 89 85 68 ed ff ff 	mov    %rax,-0x1298(%rbp)
    bdae:	c6 85 66 eb ff ff 10 	movb   $0x10,-0x149a(%rbp)
    bdb5:	66 c7 85 a0 ee ff ff 	movw   $0x5100,-0x1160(%rbp)
    bdbc:	00 51 
    bdbe:	66 c7 85 a2 ee ff ff 	movw   $0x5100,-0x115e(%rbp)
    bdc5:	00 51 
    bdc7:	66 c7 85 a4 ee ff ff 	movw   $0x5100,-0x115c(%rbp)
    bdce:	00 51 
    bdd0:	66 c7 85 a6 ee ff ff 	movw   $0x5100,-0x115a(%rbp)
    bdd7:	00 51 
    bdd9:	66 c7 85 a8 ee ff ff 	movw   $0x5100,-0x1158(%rbp)
    bde0:	00 51 
    bde2:	66 c7 85 aa ee ff ff 	movw   $0x5100,-0x1156(%rbp)
    bde9:	00 51 
    bdeb:	66 c7 85 ac ee ff ff 	movw   $0x5100,-0x1154(%rbp)
    bdf2:	00 51 
    bdf4:	66 c7 85 ae ee ff ff 	movw   $0x5100,-0x1152(%rbp)
    bdfb:	00 51 
    bdfd:	66 c7 85 b0 ee ff ff 	movw   $0x5100,-0x1150(%rbp)
    be04:	00 51 
    be06:	66 c7 85 b2 ee ff ff 	movw   $0x5100,-0x114e(%rbp)
    be0d:	00 51 
    be0f:	48 c7 85 70 ed ff ff 	movq   $0x0,-0x1290(%rbp)
    be16:	00 00 00 00 
    be1a:	66 c7 85 7a eb ff ff 	movw   $0xffff,-0x1486(%rbp)
    be21:	ff ff 
    be23:	c7 85 f0 ee ff ff f7 	movl   $0xfffffff7,-0x1110(%rbp)
    be2a:	ff ff ff 
    be2d:	c7 85 f4 ee ff ff f7 	movl   $0xfffffff7,-0x110c(%rbp)
    be34:	ff ff ff 
    be37:	c7 85 f8 ee ff ff f7 	movl   $0xfffffff7,-0x1108(%rbp)
    be3e:	ff ff ff 
    be41:	c7 85 fc ee ff ff f7 	movl   $0xfffffff7,-0x1104(%rbp)
    be48:	ff ff ff 
    be4b:	c7 85 00 ef ff ff f7 	movl   $0xfffffff7,-0x1100(%rbp)
    be52:	ff ff ff 
    be55:	c7 85 04 ef ff ff f7 	movl   $0xfffffff7,-0x10fc(%rbp)
    be5c:	ff ff ff 
    be5f:	c7 85 08 ef ff ff f7 	movl   $0xfffffff7,-0x10f8(%rbp)
    be66:	ff ff ff 
    be69:	c6 85 67 eb ff ff 53 	movb   $0x53,-0x1499(%rbp)
    be70:	48 c7 85 78 ed ff ff 	movq   $0xfffffffffffffffe,-0x1288(%rbp)
    be77:	fe ff ff ff 
    be7b:	66 c7 85 7c eb ff ff 	movw   $0x1,-0x1484(%rbp)
    be82:	01 00 
    be84:	c7 85 2c ec ff ff 01 	movl   $0x1,-0x13d4(%rbp)
    be8b:	00 00 00 
    be8e:	c7 85 30 ec ff ff 06 	movl   $0x6,-0x13d0(%rbp)
    be95:	00 00 00 
    be98:	c7 85 9c eb ff ff 00 	movl   $0x0,-0x1464(%rbp)
    be9f:	00 00 00 
    bea2:	eb 1a                	jmp    bebe <func_33+0x1494>
    bea4:	8b 85 9c eb ff ff    	mov    -0x1464(%rbp),%eax
    beaa:	48 98                	cltq   
    beac:	c7 84 85 80 ee ff ff 	movl   $0xbba7efd9,-0x1180(%rbp,%rax,4)
    beb3:	d9 ef a7 bb 
    beb7:	83 85 9c eb ff ff 01 	addl   $0x1,-0x1464(%rbp)
    bebe:	83 bd 9c eb ff ff 00 	cmpl   $0x0,-0x1464(%rbp)
    bec5:	7e dd                	jle    bea4 <func_33+0x147a>
    bec7:	c7 85 9c eb ff ff 00 	movl   $0x0,-0x1464(%rbp)
    bece:	00 00 00 
    bed1:	eb 14                	jmp    bee7 <func_33+0x14bd>
    bed3:	8b 85 9c eb ff ff    	mov    -0x1464(%rbp),%eax
    bed9:	48 98                	cltq   
    bedb:	c6 44 05 bf 00       	movb   $0x0,-0x41(%rbp,%rax,1)
    bee0:	83 85 9c eb ff ff 01 	addl   $0x1,-0x1464(%rbp)
    bee7:	83 bd 9c eb ff ff 05 	cmpl   $0x5,-0x1464(%rbp)
    beee:	7e e3                	jle    bed3 <func_33+0x14a9>
    bef0:	90                   	nop
    bef1:	48 c7 05 2c e4 00 00 	movq   $0x16,0xe42c(%rip)        # 1a328 <g_395>
    bef8:	16 00 00 00 
    befc:	eb 27                	jmp    bf25 <func_33+0x14fb>
    befe:	8b 85 6c ee ff ff    	mov    -0x1194(%rbp),%eax
    bf04:	89 85 54 eb ff ff    	mov    %eax,-0x14ac(%rbp)
    bf0a:	48 8b 05 17 e4 00 00 	mov    0xe417(%rip),%rax        # 1a328 <g_395>
    bf11:	be 03 00 00 00       	mov    $0x3,%esi
    bf16:	48 89 c7             	mov    %rax,%rdi
    bf19:	e8 8a a9 ff ff       	callq  68a8 <safe_sub_func_int64_t_s_s>
    bf1e:	48 89 05 03 e4 00 00 	mov    %rax,0xe403(%rip)        # 1a328 <g_395>
    bf25:	48 8b 05 fc e3 00 00 	mov    0xe3fc(%rip),%rax        # 1a328 <g_395>
    bf2c:	48 83 f8 07          	cmp    $0x7,%rax
    bf30:	75 cc                	jne    befe <func_33+0x14d4>
    bf32:	c6 85 50 eb ff ff 00 	movb   $0x0,-0x14b0(%rbp)
    bf39:	e9 f3 11 00 00       	jmpq   d131 <func_33+0x2707>
    bf3e:	48 8d 85 a0 f0 ff ff 	lea    -0xf60(%rbp),%rax
    bf45:	48 89 85 68 ec ff ff 	mov    %rax,-0x1398(%rbp)
    bf4c:	48 c7 85 80 ed ff ff 	movq   $0x0,-0x1280(%rbp)
    bf53:	00 00 00 00 
    bf57:	c7 85 34 ec ff ff 00 	movl   $0x0,-0x13cc(%rbp)
    bf5e:	00 00 00 
    bf61:	c7 85 38 ec ff ff f7 	movl   $0xfffffff7,-0x13c8(%rbp)
    bf68:	ff ff ff 
    bf6b:	48 c7 85 a0 ef ff ff 	movq   $0x0,-0x1060(%rbp)
    bf72:	00 00 00 00 
    bf76:	48 8d 85 00 f7 ff ff 	lea    -0x900(%rbp),%rax
    bf7d:	48 05 b0 00 00 00    	add    $0xb0,%rax
    bf83:	48 89 85 a8 ef ff ff 	mov    %rax,-0x1058(%rbp)
    bf8a:	48 c7 85 b0 ef ff ff 	movq   $0x0,-0x1050(%rbp)
    bf91:	00 00 00 00 
    bf95:	48 8d 85 00 f7 ff ff 	lea    -0x900(%rbp),%rax
    bf9c:	48 05 b0 00 00 00    	add    $0xb0,%rax
    bfa2:	48 89 85 b8 ef ff ff 	mov    %rax,-0x1048(%rbp)
    bfa9:	48 c7 85 c0 ef ff ff 	movq   $0x0,-0x1040(%rbp)
    bfb0:	00 00 00 00 
    bfb4:	48 8d 85 00 f7 ff ff 	lea    -0x900(%rbp),%rax
    bfbb:	48 05 b0 00 00 00    	add    $0xb0,%rax
    bfc1:	48 89 85 c8 ef ff ff 	mov    %rax,-0x1038(%rbp)
    bfc8:	48 c7 85 d0 ef ff ff 	movq   $0x0,-0x1030(%rbp)
    bfcf:	00 00 00 00 
    bfd3:	48 8d 85 00 f7 ff ff 	lea    -0x900(%rbp),%rax
    bfda:	48 05 b0 00 00 00    	add    $0xb0,%rax
    bfe0:	48 89 85 d8 ef ff ff 	mov    %rax,-0x1028(%rbp)
    bfe7:	48 c7 85 e0 ef ff ff 	movq   $0x0,-0x1020(%rbp)
    bfee:	00 00 00 00 
    bff2:	48 8d 85 00 f7 ff ff 	lea    -0x900(%rbp),%rax
    bff9:	48 05 b0 00 00 00    	add    $0xb0,%rax
    bfff:	48 89 85 e8 ef ff ff 	mov    %rax,-0x1018(%rbp)
    c006:	48 c7 85 f0 ef ff ff 	movq   $0x0,-0x1010(%rbp)
    c00d:	00 00 00 00 
    c011:	48 8d 85 00 f7 ff ff 	lea    -0x900(%rbp),%rax
    c018:	48 05 b0 00 00 00    	add    $0xb0,%rax
    c01e:	48 89 85 f8 ef ff ff 	mov    %rax,-0x1008(%rbp)
    c025:	48 c7 85 00 f0 ff ff 	movq   $0x0,-0x1000(%rbp)
    c02c:	00 00 00 00 
    c030:	48 8d 85 00 f7 ff ff 	lea    -0x900(%rbp),%rax
    c037:	48 05 b0 00 00 00    	add    $0xb0,%rax
    c03d:	48 89 85 08 f0 ff ff 	mov    %rax,-0xff8(%rbp)
    c044:	48 c7 85 10 f0 ff ff 	movq   $0x0,-0xff0(%rbp)
    c04b:	00 00 00 00 
    c04f:	48 8d 85 00 f7 ff ff 	lea    -0x900(%rbp),%rax
    c056:	48 05 b0 00 00 00    	add    $0xb0,%rax
    c05c:	48 89 85 18 f0 ff ff 	mov    %rax,-0xfe8(%rbp)
    c063:	48 c7 85 20 f0 ff ff 	movq   $0x0,-0xfe0(%rbp)
    c06a:	00 00 00 00 
    c06e:	48 8d 85 00 f7 ff ff 	lea    -0x900(%rbp),%rax
    c075:	48 05 b0 00 00 00    	add    $0xb0,%rax
    c07b:	48 89 85 28 f0 ff ff 	mov    %rax,-0xfd8(%rbp)
    c082:	48 c7 85 30 f0 ff ff 	movq   $0x0,-0xfd0(%rbp)
    c089:	00 00 00 00 
    c08d:	48 8d 85 00 f7 ff ff 	lea    -0x900(%rbp),%rax
    c094:	48 05 b0 00 00 00    	add    $0xb0,%rax
    c09a:	48 89 85 38 f0 ff ff 	mov    %rax,-0xfc8(%rbp)
    c0a1:	48 c7 85 40 f0 ff ff 	movq   $0x0,-0xfc0(%rbp)
    c0a8:	00 00 00 00 
    c0ac:	48 8d 85 00 f7 ff ff 	lea    -0x900(%rbp),%rax
    c0b3:	48 05 b0 00 00 00    	add    $0xb0,%rax
    c0b9:	48 89 85 48 f0 ff ff 	mov    %rax,-0xfb8(%rbp)
    c0c0:	48 c7 85 50 f0 ff ff 	movq   $0x0,-0xfb0(%rbp)
    c0c7:	00 00 00 00 
    c0cb:	48 8d 85 00 f7 ff ff 	lea    -0x900(%rbp),%rax
    c0d2:	48 05 b0 00 00 00    	add    $0xb0,%rax
    c0d8:	48 89 85 58 f0 ff ff 	mov    %rax,-0xfa8(%rbp)
    c0df:	48 c7 85 60 f0 ff ff 	movq   $0x0,-0xfa0(%rbp)
    c0e6:	00 00 00 00 
    c0ea:	48 8d 85 00 f7 ff ff 	lea    -0x900(%rbp),%rax
    c0f1:	48 05 b0 00 00 00    	add    $0xb0,%rax
    c0f7:	48 89 85 68 f0 ff ff 	mov    %rax,-0xf98(%rbp)
    c0fe:	48 c7 85 70 f0 ff ff 	movq   $0x0,-0xf90(%rbp)
    c105:	00 00 00 00 
    c109:	48 8d 85 00 f7 ff ff 	lea    -0x900(%rbp),%rax
    c110:	48 05 b0 00 00 00    	add    $0xb0,%rax
    c116:	48 89 85 78 f0 ff ff 	mov    %rax,-0xf88(%rbp)
    c11d:	48 c7 85 80 f0 ff ff 	movq   $0x0,-0xf80(%rbp)
    c124:	00 00 00 00 
    c128:	48 8d 85 00 f7 ff ff 	lea    -0x900(%rbp),%rax
    c12f:	48 05 b0 00 00 00    	add    $0xb0,%rax
    c135:	48 89 85 88 f0 ff ff 	mov    %rax,-0xf78(%rbp)
    c13c:	48 c7 85 90 f0 ff ff 	movq   $0x0,-0xf70(%rbp)
    c143:	00 00 00 00 
    c147:	48 8d 85 00 f7 ff ff 	lea    -0x900(%rbp),%rax
    c14e:	48 05 b0 00 00 00    	add    $0xb0,%rax
    c154:	48 89 85 98 f0 ff ff 	mov    %rax,-0xf68(%rbp)
    c15b:	c7 85 a0 eb ff ff 00 	movl   $0x0,-0x1460(%rbp)
    c162:	00 00 00 
    c165:	eb 55                	jmp    c1bc <func_33+0x1792>
    c167:	c7 85 a4 eb ff ff 00 	movl   $0x0,-0x145c(%rbp)
    c16e:	00 00 00 
    c171:	eb 39                	jmp    c1ac <func_33+0x1782>
    c173:	8b 85 a4 eb ff ff    	mov    -0x145c(%rbp),%eax
    c179:	48 63 c8             	movslq %eax,%rcx
    c17c:	8b 85 a0 eb ff ff    	mov    -0x1460(%rbp),%eax
    c182:	48 63 d0             	movslq %eax,%rdx
    c185:	48 89 d0             	mov    %rdx,%rax
    c188:	48 c1 e0 02          	shl    $0x2,%rax
    c18c:	48 01 d0             	add    %rdx,%rax
    c18f:	48 01 c0             	add    %rax,%rax
    c192:	48 8d 14 08          	lea    (%rax,%rcx,1),%rdx
    c196:	48 8d 85 80 ee ff ff 	lea    -0x1180(%rbp),%rax
    c19d:	48 89 84 d5 00 f7 ff 	mov    %rax,-0x900(%rbp,%rdx,8)
    c1a4:	ff 
    c1a5:	83 85 a4 eb ff ff 01 	addl   $0x1,-0x145c(%rbp)
    c1ac:	83 bd a4 eb ff ff 09 	cmpl   $0x9,-0x145c(%rbp)
    c1b3:	7e be                	jle    c173 <func_33+0x1749>
    c1b5:	83 85 a0 eb ff ff 01 	addl   $0x1,-0x1460(%rbp)
    c1bc:	83 bd a0 eb ff ff 06 	cmpl   $0x6,-0x1460(%rbp)
    c1c3:	7e a2                	jle    c167 <func_33+0x173d>
    c1c5:	0f b6 85 50 eb ff ff 	movzbl -0x14b0(%rbp),%eax
    c1cc:	0f b6 d0             	movzbl %al,%edx
    c1cf:	48 8d 05 62 f5 00 00 	lea    0xf562(%rip),%rax        # 1b738 <g_243>
    c1d6:	48 89 05 8b f8 00 00 	mov    %rax,0xf88b(%rip)        # 1ba68 <g_932>
    c1dd:	48 8b 05 84 f8 00 00 	mov    0xf884(%rip),%rax        # 1ba68 <g_932>
    c1e4:	48 8d 0d 4d f5 00 00 	lea    0xf54d(%rip),%rcx        # 1b738 <g_243>
    c1eb:	48 39 c8             	cmp    %rcx,%rax
    c1ee:	0f 95 c0             	setne  %al
    c1f1:	0f b6 c0             	movzbl %al,%eax
    c1f4:	48 89 d6             	mov    %rdx,%rsi
    c1f7:	48 89 c7             	mov    %rax,%rdi
    c1fa:	e8 a9 a6 ff ff       	callq  68a8 <safe_sub_func_int64_t_s_s>
    c1ff:	48 83 f8 ff          	cmp    $0xffffffffffffffff,%rax
    c203:	0f 94 c0             	sete   %al
    c206:	0f b6 d8             	movzbl %al,%ebx
    c209:	48 8b 85 58 eb ff ff 	mov    -0x14a8(%rbp),%rax
    c210:	8b 00                	mov    (%rax),%eax
    c212:	89 c1                	mov    %eax,%ecx
    c214:	0f b6 85 50 eb ff ff 	movzbl -0x14b0(%rbp),%eax
    c21b:	0f b6 c0             	movzbl %al,%eax
    c21e:	48 98                	cltq   
    c220:	48 8d 14 c5 00 00 00 	lea    0x0(,%rax,8),%rdx
    c227:	00 
    c228:	48 8d 05 b1 de 00 00 	lea    0xdeb1(%rip),%rax        # 1a0e0 <g_171>
    c22f:	48 8b 14 02          	mov    (%rdx,%rax,1),%rdx
    c233:	48 83 bd 60 ed ff ff 	cmpq   $0x0,-0x12a0(%rbp)
    c23a:	00 
    c23b:	0f 95 c0             	setne  %al
    c23e:	0f b6 c0             	movzbl %al,%eax
    c241:	48 21 c2             	and    %rax,%rdx
    c244:	8b 85 80 ee ff ff    	mov    -0x1180(%rbp),%eax
    c24a:	48 98                	cltq   
    c24c:	48 39 c2             	cmp    %rax,%rdx
    c24f:	0f 95 c0             	setne  %al
    c252:	0f b6 c0             	movzbl %al,%eax
    c255:	89 ce                	mov    %ecx,%esi
    c257:	89 c7                	mov    %eax,%edi
    c259:	e8 5a ac ff ff       	callq  6eb8 <safe_add_func_uint32_t_u_u>
    c25e:	39 c3                	cmp    %eax,%ebx
    c260:	0f 92 c0             	setb   %al
    c263:	0f b6 c0             	movzbl %al,%eax
    c266:	be 00 00 00 00       	mov    $0x0,%esi
    c26b:	89 c7                	mov    %eax,%edi
    c26d:	e8 4c aa ff ff       	callq  6cbe <safe_rshift_func_uint8_t_u_u>
    c272:	0f b6 d0             	movzbl %al,%edx
    c275:	0f b6 85 50 eb ff ff 	movzbl -0x14b0(%rbp),%eax
    c27c:	0f b6 c0             	movzbl %al,%eax
    c27f:	48 98                	cltq   
    c281:	48 8d 0c c5 00 00 00 	lea    0x0(,%rax,8),%rcx
    c288:	00 
    c289:	48 8d 05 50 de 00 00 	lea    0xde50(%rip),%rax        # 1a0e0 <g_171>
    c290:	48 8b 04 01          	mov    (%rcx,%rax,1),%rax
    c294:	88 85 63 eb ff ff    	mov    %al,-0x149d(%rbp)
    c29a:	0f b6 85 63 eb ff ff 	movzbl -0x149d(%rbp),%eax
    c2a1:	89 d6                	mov    %edx,%esi
    c2a3:	89 c7                	mov    %eax,%edi
    c2a5:	e8 04 a9 ff ff       	callq  6bae <safe_mod_func_uint8_t_u_u>
    c2aa:	0f b6 d0             	movzbl %al,%edx
    c2ad:	8b 85 84 eb ff ff    	mov    -0x147c(%rbp),%eax
    c2b3:	09 d0                	or     %edx,%eax
    c2b5:	85 c0                	test   %eax,%eax
    c2b7:	0f 84 95 09 00 00    	je     cc52 <func_33+0x2228>
    c2bd:	c6 85 69 eb ff ff 9e 	movb   $0x9e,-0x1497(%rbp)
    c2c4:	48 c7 85 b0 fb ff ff 	movq   $0x0,-0x450(%rbp)
    c2cb:	00 00 00 00 
    c2cf:	48 8d 85 a0 f0 ff ff 	lea    -0xf60(%rbp),%rax
    c2d6:	48 05 90 00 00 00    	add    $0x90,%rax
    c2dc:	48 89 85 b8 fb ff ff 	mov    %rax,-0x448(%rbp)
    c2e3:	48 8d 85 a0 f0 ff ff 	lea    -0xf60(%rbp),%rax
    c2ea:	48 83 c0 30          	add    $0x30,%rax
    c2ee:	48 89 85 c0 fb ff ff 	mov    %rax,-0x440(%rbp)
    c2f5:	48 c7 85 c8 fb ff ff 	movq   $0x0,-0x438(%rbp)
    c2fc:	00 00 00 00 
    c300:	48 8d 85 a0 f0 ff ff 	lea    -0xf60(%rbp),%rax
    c307:	48 83 c0 30          	add    $0x30,%rax
    c30b:	48 89 85 d0 fb ff ff 	mov    %rax,-0x430(%rbp)
    c312:	48 8d 85 a0 f0 ff ff 	lea    -0xf60(%rbp),%rax
    c319:	48 05 90 00 00 00    	add    $0x90,%rax
    c31f:	48 89 85 d8 fb ff ff 	mov    %rax,-0x428(%rbp)
    c326:	48 c7 85 e0 fb ff ff 	movq   $0x0,-0x420(%rbp)
    c32d:	00 00 00 00 
    c331:	48 c7 85 e8 fb ff ff 	movq   $0x0,-0x418(%rbp)
    c338:	00 00 00 00 
    c33c:	48 8d 85 a0 f0 ff ff 	lea    -0xf60(%rbp),%rax
    c343:	48 05 90 00 00 00    	add    $0x90,%rax
    c349:	48 89 85 f0 fb ff ff 	mov    %rax,-0x410(%rbp)
    c350:	48 c7 85 f8 fb ff ff 	movq   $0x0,-0x408(%rbp)
    c357:	00 00 00 00 
    c35b:	48 c7 85 00 fc ff ff 	movq   $0x0,-0x400(%rbp)
    c362:	00 00 00 00 
    c366:	48 c7 85 08 fc ff ff 	movq   $0x0,-0x3f8(%rbp)
    c36d:	00 00 00 00 
    c371:	48 c7 85 10 fc ff ff 	movq   $0x0,-0x3f0(%rbp)
    c378:	00 00 00 00 
    c37c:	48 8d 85 a0 f0 ff ff 	lea    -0xf60(%rbp),%rax
    c383:	48 05 90 00 00 00    	add    $0x90,%rax
    c389:	48 89 85 18 fc ff ff 	mov    %rax,-0x3e8(%rbp)
    c390:	48 8d 85 a0 f0 ff ff 	lea    -0xf60(%rbp),%rax
    c397:	48 83 c0 40          	add    $0x40,%rax
    c39b:	48 89 85 20 fc ff ff 	mov    %rax,-0x3e0(%rbp)
    c3a2:	48 8d 85 a0 f0 ff ff 	lea    -0xf60(%rbp),%rax
    c3a9:	48 05 90 00 00 00    	add    $0x90,%rax
    c3af:	48 89 85 28 fc ff ff 	mov    %rax,-0x3d8(%rbp)
    c3b6:	48 c7 85 30 fc ff ff 	movq   $0x0,-0x3d0(%rbp)
    c3bd:	00 00 00 00 
    c3c1:	48 8d 85 a0 f0 ff ff 	lea    -0xf60(%rbp),%rax
    c3c8:	48 05 90 00 00 00    	add    $0x90,%rax
    c3ce:	48 89 85 38 fc ff ff 	mov    %rax,-0x3c8(%rbp)
    c3d5:	48 8d 85 a0 f0 ff ff 	lea    -0xf60(%rbp),%rax
    c3dc:	48 83 c0 40          	add    $0x40,%rax
    c3e0:	48 89 85 40 fc ff ff 	mov    %rax,-0x3c0(%rbp)
    c3e7:	48 8d 85 a0 f0 ff ff 	lea    -0xf60(%rbp),%rax
    c3ee:	48 05 90 00 00 00    	add    $0x90,%rax
    c3f4:	48 89 85 48 fc ff ff 	mov    %rax,-0x3b8(%rbp)
    c3fb:	48 c7 85 50 fc ff ff 	movq   $0x0,-0x3b0(%rbp)
    c402:	00 00 00 00 
    c406:	48 c7 85 58 fc ff ff 	movq   $0x0,-0x3a8(%rbp)
    c40d:	00 00 00 00 
    c411:	48 c7 85 60 fc ff ff 	movq   $0x0,-0x3a0(%rbp)
    c418:	00 00 00 00 
    c41c:	48 c7 85 68 fc ff ff 	movq   $0x0,-0x398(%rbp)
    c423:	00 00 00 00 
    c427:	48 8d 85 a0 f0 ff ff 	lea    -0xf60(%rbp),%rax
    c42e:	48 05 90 00 00 00    	add    $0x90,%rax
    c434:	48 89 85 70 fc ff ff 	mov    %rax,-0x390(%rbp)
    c43b:	48 c7 85 78 fc ff ff 	movq   $0x0,-0x388(%rbp)
    c442:	00 00 00 00 
    c446:	48 c7 85 80 fc ff ff 	movq   $0x0,-0x380(%rbp)
    c44d:	00 00 00 00 
    c451:	48 8d 85 a0 f0 ff ff 	lea    -0xf60(%rbp),%rax
    c458:	48 05 90 00 00 00    	add    $0x90,%rax
    c45e:	48 89 85 88 fc ff ff 	mov    %rax,-0x378(%rbp)
    c465:	48 8d 85 a0 f0 ff ff 	lea    -0xf60(%rbp),%rax
    c46c:	48 83 c0 30          	add    $0x30,%rax
    c470:	48 89 85 90 fc ff ff 	mov    %rax,-0x370(%rbp)
    c477:	48 c7 85 98 fc ff ff 	movq   $0x0,-0x368(%rbp)
    c47e:	00 00 00 00 
    c482:	48 8d 85 a0 f0 ff ff 	lea    -0xf60(%rbp),%rax
    c489:	48 83 c0 30          	add    $0x30,%rax
    c48d:	48 89 85 a0 fc ff ff 	mov    %rax,-0x360(%rbp)
    c494:	48 8d 85 a0 f0 ff ff 	lea    -0xf60(%rbp),%rax
    c49b:	48 05 90 00 00 00    	add    $0x90,%rax
    c4a1:	48 89 85 a8 fc ff ff 	mov    %rax,-0x358(%rbp)
    c4a8:	48 c7 85 b0 fc ff ff 	movq   $0x0,-0x350(%rbp)
    c4af:	00 00 00 00 
    c4b3:	48 8d 85 a0 f0 ff ff 	lea    -0xf60(%rbp),%rax
    c4ba:	48 83 c0 30          	add    $0x30,%rax
    c4be:	48 89 85 b8 fc ff ff 	mov    %rax,-0x348(%rbp)
    c4c5:	48 c7 85 c0 fc ff ff 	movq   $0x0,-0x340(%rbp)
    c4cc:	00 00 00 00 
    c4d0:	48 c7 85 c8 fc ff ff 	movq   $0x0,-0x338(%rbp)
    c4d7:	00 00 00 00 
    c4db:	48 8d 85 a0 f0 ff ff 	lea    -0xf60(%rbp),%rax
    c4e2:	48 83 c0 40          	add    $0x40,%rax
    c4e6:	48 89 85 d0 fc ff ff 	mov    %rax,-0x330(%rbp)
    c4ed:	48 8d 85 a0 f0 ff ff 	lea    -0xf60(%rbp),%rax
    c4f4:	48 83 c0 40          	add    $0x40,%rax
    c4f8:	48 89 85 d8 fc ff ff 	mov    %rax,-0x328(%rbp)
    c4ff:	48 c7 85 e0 fc ff ff 	movq   $0x0,-0x320(%rbp)
    c506:	00 00 00 00 
    c50a:	48 c7 85 e8 fc ff ff 	movq   $0x0,-0x318(%rbp)
    c511:	00 00 00 00 
    c515:	48 8d 85 a0 f0 ff ff 	lea    -0xf60(%rbp),%rax
    c51c:	48 83 c0 30          	add    $0x30,%rax
    c520:	48 89 85 f0 fc ff ff 	mov    %rax,-0x310(%rbp)
    c527:	48 8d 85 a0 f0 ff ff 	lea    -0xf60(%rbp),%rax
    c52e:	48 83 c0 30          	add    $0x30,%rax
    c532:	48 89 85 f8 fc ff ff 	mov    %rax,-0x308(%rbp)
    c539:	48 8d 85 a0 f0 ff ff 	lea    -0xf60(%rbp),%rax
    c540:	48 83 c0 40          	add    $0x40,%rax
    c544:	48 89 85 00 fd ff ff 	mov    %rax,-0x300(%rbp)
    c54b:	48 c7 85 08 fd ff ff 	movq   $0x0,-0x2f8(%rbp)
    c552:	00 00 00 00 
    c556:	48 8d 85 a0 f0 ff ff 	lea    -0xf60(%rbp),%rax
    c55d:	48 83 c0 78          	add    $0x78,%rax
    c561:	48 89 85 10 fd ff ff 	mov    %rax,-0x2f0(%rbp)
    c568:	48 c7 85 18 fd ff ff 	movq   $0x0,-0x2e8(%rbp)
    c56f:	00 00 00 00 
    c573:	48 8d 85 a0 f0 ff ff 	lea    -0xf60(%rbp),%rax
    c57a:	48 83 c0 40          	add    $0x40,%rax
    c57e:	48 89 85 20 fd ff ff 	mov    %rax,-0x2e0(%rbp)
    c585:	48 8d 85 a0 f0 ff ff 	lea    -0xf60(%rbp),%rax
    c58c:	48 83 c0 30          	add    $0x30,%rax
    c590:	48 89 85 28 fd ff ff 	mov    %rax,-0x2d8(%rbp)
    c597:	48 8d 85 a0 f0 ff ff 	lea    -0xf60(%rbp),%rax
    c59e:	48 83 c0 30          	add    $0x30,%rax
    c5a2:	48 89 85 30 fd ff ff 	mov    %rax,-0x2d0(%rbp)
    c5a9:	48 c7 85 38 fd ff ff 	movq   $0x0,-0x2c8(%rbp)
    c5b0:	00 00 00 00 
    c5b4:	48 c7 85 40 fd ff ff 	movq   $0x0,-0x2c0(%rbp)
    c5bb:	00 00 00 00 
    c5bf:	48 8d 85 a0 f0 ff ff 	lea    -0xf60(%rbp),%rax
    c5c6:	48 83 c0 40          	add    $0x40,%rax
    c5ca:	48 89 85 48 fd ff ff 	mov    %rax,-0x2b8(%rbp)
    c5d1:	48 8d 85 a0 f0 ff ff 	lea    -0xf60(%rbp),%rax
    c5d8:	48 83 c0 40          	add    $0x40,%rax
    c5dc:	48 89 85 50 fd ff ff 	mov    %rax,-0x2b0(%rbp)
    c5e3:	48 c7 85 58 fd ff ff 	movq   $0x0,-0x2a8(%rbp)
    c5ea:	00 00 00 00 
    c5ee:	48 c7 85 60 fd ff ff 	movq   $0x0,-0x2a0(%rbp)
    c5f5:	00 00 00 00 
    c5f9:	48 8d 85 a0 f0 ff ff 	lea    -0xf60(%rbp),%rax
    c600:	48 83 c0 30          	add    $0x30,%rax
    c604:	48 89 85 68 fd ff ff 	mov    %rax,-0x298(%rbp)
    c60b:	48 c7 85 70 fd ff ff 	movq   $0x0,-0x290(%rbp)
    c612:	00 00 00 00 
    c616:	48 8d 85 a0 f0 ff ff 	lea    -0xf60(%rbp),%rax
    c61d:	48 05 90 00 00 00    	add    $0x90,%rax
    c623:	48 89 85 78 fd ff ff 	mov    %rax,-0x288(%rbp)
    c62a:	48 8d 85 a0 f0 ff ff 	lea    -0xf60(%rbp),%rax
    c631:	48 83 c0 30          	add    $0x30,%rax
    c635:	48 89 85 80 fd ff ff 	mov    %rax,-0x280(%rbp)
    c63c:	48 c7 85 88 fd ff ff 	movq   $0x0,-0x278(%rbp)
    c643:	00 00 00 00 
    c647:	48 8d 85 a0 f0 ff ff 	lea    -0xf60(%rbp),%rax
    c64e:	48 83 c0 30          	add    $0x30,%rax
    c652:	48 89 85 90 fd ff ff 	mov    %rax,-0x270(%rbp)
    c659:	48 8d 85 a0 f0 ff ff 	lea    -0xf60(%rbp),%rax
    c660:	48 05 90 00 00 00    	add    $0x90,%rax
    c666:	48 89 85 98 fd ff ff 	mov    %rax,-0x268(%rbp)
    c66d:	48 c7 85 a0 fd ff ff 	movq   $0x0,-0x260(%rbp)
    c674:	00 00 00 00 
    c678:	48 c7 85 a8 fd ff ff 	movq   $0x0,-0x258(%rbp)
    c67f:	00 00 00 00 
    c683:	48 8d 85 a0 f0 ff ff 	lea    -0xf60(%rbp),%rax
    c68a:	48 05 90 00 00 00    	add    $0x90,%rax
    c690:	48 89 85 b0 fd ff ff 	mov    %rax,-0x250(%rbp)
    c697:	48 c7 85 b8 fd ff ff 	movq   $0x0,-0x248(%rbp)
    c69e:	00 00 00 00 
    c6a2:	48 c7 85 c0 fd ff ff 	movq   $0x0,-0x240(%rbp)
    c6a9:	00 00 00 00 
    c6ad:	48 c7 85 c8 fd ff ff 	movq   $0x0,-0x238(%rbp)
    c6b4:	00 00 00 00 
    c6b8:	48 c7 85 d0 fd ff ff 	movq   $0x0,-0x230(%rbp)
    c6bf:	00 00 00 00 
    c6c3:	48 8d 85 a0 f0 ff ff 	lea    -0xf60(%rbp),%rax
    c6ca:	48 05 90 00 00 00    	add    $0x90,%rax
    c6d0:	48 89 85 d8 fd ff ff 	mov    %rax,-0x228(%rbp)
    c6d7:	48 8d 85 a0 f0 ff ff 	lea    -0xf60(%rbp),%rax
    c6de:	48 83 c0 40          	add    $0x40,%rax
    c6e2:	48 89 85 e0 fd ff ff 	mov    %rax,-0x220(%rbp)
    c6e9:	48 8d 85 a0 f0 ff ff 	lea    -0xf60(%rbp),%rax
    c6f0:	48 05 90 00 00 00    	add    $0x90,%rax
    c6f6:	48 89 85 e8 fd ff ff 	mov    %rax,-0x218(%rbp)
    c6fd:	48 c7 85 f0 fd ff ff 	movq   $0x0,-0x210(%rbp)
    c704:	00 00 00 00 
    c708:	48 8d 85 a0 f0 ff ff 	lea    -0xf60(%rbp),%rax
    c70f:	48 05 90 00 00 00    	add    $0x90,%rax
    c715:	48 89 85 f8 fd ff ff 	mov    %rax,-0x208(%rbp)
    c71c:	48 8d 85 a0 f0 ff ff 	lea    -0xf60(%rbp),%rax
    c723:	48 83 c0 40          	add    $0x40,%rax
    c727:	48 89 85 00 fe ff ff 	mov    %rax,-0x200(%rbp)
    c72e:	48 8d 85 a0 f0 ff ff 	lea    -0xf60(%rbp),%rax
    c735:	48 05 90 00 00 00    	add    $0x90,%rax
    c73b:	48 89 85 08 fe ff ff 	mov    %rax,-0x1f8(%rbp)
    c742:	48 c7 85 10 fe ff ff 	movq   $0x0,-0x1f0(%rbp)
    c749:	00 00 00 00 
    c74d:	48 c7 85 18 fe ff ff 	movq   $0x0,-0x1e8(%rbp)
    c754:	00 00 00 00 
    c758:	48 c7 85 20 fe ff ff 	movq   $0x0,-0x1e0(%rbp)
    c75f:	00 00 00 00 
    c763:	48 c7 85 28 fe ff ff 	movq   $0x0,-0x1d8(%rbp)
    c76a:	00 00 00 00 
    c76e:	48 8d 85 a0 f0 ff ff 	lea    -0xf60(%rbp),%rax
    c775:	48 05 90 00 00 00    	add    $0x90,%rax
    c77b:	48 89 85 30 fe ff ff 	mov    %rax,-0x1d0(%rbp)
    c782:	48 c7 85 38 fe ff ff 	movq   $0x0,-0x1c8(%rbp)
    c789:	00 00 00 00 
    c78d:	48 c7 85 40 fe ff ff 	movq   $0x0,-0x1c0(%rbp)
    c794:	00 00 00 00 
    c798:	48 8d 85 a0 f0 ff ff 	lea    -0xf60(%rbp),%rax
    c79f:	48 05 90 00 00 00    	add    $0x90,%rax
    c7a5:	48 89 85 48 fe ff ff 	mov    %rax,-0x1b8(%rbp)
    c7ac:	48 8d 85 a0 f0 ff ff 	lea    -0xf60(%rbp),%rax
    c7b3:	48 83 c0 30          	add    $0x30,%rax
    c7b7:	48 89 85 50 fe ff ff 	mov    %rax,-0x1b0(%rbp)
    c7be:	48 c7 85 58 fe ff ff 	movq   $0x0,-0x1a8(%rbp)
    c7c5:	00 00 00 00 
    c7c9:	48 8d 85 a0 f0 ff ff 	lea    -0xf60(%rbp),%rax
    c7d0:	48 83 c0 30          	add    $0x30,%rax
    c7d4:	48 89 85 60 fe ff ff 	mov    %rax,-0x1a0(%rbp)
    c7db:	48 8d 85 a0 f0 ff ff 	lea    -0xf60(%rbp),%rax
    c7e2:	48 05 90 00 00 00    	add    $0x90,%rax
    c7e8:	48 89 85 68 fe ff ff 	mov    %rax,-0x198(%rbp)
    c7ef:	48 c7 85 70 fe ff ff 	movq   $0x0,-0x190(%rbp)
    c7f6:	00 00 00 00 
    c7fa:	48 8d 85 a0 f0 ff ff 	lea    -0xf60(%rbp),%rax
    c801:	48 83 c0 30          	add    $0x30,%rax
    c805:	48 89 85 78 fe ff ff 	mov    %rax,-0x188(%rbp)
    c80c:	48 c7 85 80 fe ff ff 	movq   $0x0,-0x180(%rbp)
    c813:	00 00 00 00 
    c817:	48 c7 85 88 fe ff ff 	movq   $0x0,-0x178(%rbp)
    c81e:	00 00 00 00 
    c822:	48 8d 85 a0 f0 ff ff 	lea    -0xf60(%rbp),%rax
    c829:	48 83 c0 40          	add    $0x40,%rax
    c82d:	48 89 85 90 fe ff ff 	mov    %rax,-0x170(%rbp)
    c834:	48 8d 85 a0 f0 ff ff 	lea    -0xf60(%rbp),%rax
    c83b:	48 83 c0 40          	add    $0x40,%rax
    c83f:	48 89 85 98 fe ff ff 	mov    %rax,-0x168(%rbp)
    c846:	48 c7 85 a0 fe ff ff 	movq   $0x0,-0x160(%rbp)
    c84d:	00 00 00 00 
    c851:	48 c7 85 a8 fe ff ff 	movq   $0x0,-0x158(%rbp)
    c858:	00 00 00 00 
    c85c:	48 8d 85 a0 f0 ff ff 	lea    -0xf60(%rbp),%rax
    c863:	48 83 c0 30          	add    $0x30,%rax
    c867:	48 89 85 b0 fe ff ff 	mov    %rax,-0x150(%rbp)
    c86e:	48 8d 85 a0 f0 ff ff 	lea    -0xf60(%rbp),%rax
    c875:	48 83 c0 30          	add    $0x30,%rax
    c879:	48 89 85 b8 fe ff ff 	mov    %rax,-0x148(%rbp)
    c880:	48 8d 85 a0 f0 ff ff 	lea    -0xf60(%rbp),%rax
    c887:	48 83 c0 40          	add    $0x40,%rax
    c88b:	48 89 85 c0 fe ff ff 	mov    %rax,-0x140(%rbp)
    c892:	48 c7 85 c8 fe ff ff 	movq   $0x0,-0x138(%rbp)
    c899:	00 00 00 00 
    c89d:	48 8d 85 a0 f0 ff ff 	lea    -0xf60(%rbp),%rax
    c8a4:	48 83 c0 78          	add    $0x78,%rax
    c8a8:	48 89 85 d0 fe ff ff 	mov    %rax,-0x130(%rbp)
    c8af:	48 c7 85 d8 fe ff ff 	movq   $0x0,-0x128(%rbp)
    c8b6:	00 00 00 00 
    c8ba:	48 8d 85 a0 f0 ff ff 	lea    -0xf60(%rbp),%rax
    c8c1:	48 83 c0 40          	add    $0x40,%rax
    c8c5:	48 89 85 e0 fe ff ff 	mov    %rax,-0x120(%rbp)
    c8cc:	48 8d 85 a0 f0 ff ff 	lea    -0xf60(%rbp),%rax
    c8d3:	48 83 c0 30          	add    $0x30,%rax
    c8d7:	48 89 85 e8 fe ff ff 	mov    %rax,-0x118(%rbp)
    c8de:	48 8d 85 a0 f0 ff ff 	lea    -0xf60(%rbp),%rax
    c8e5:	48 83 c0 30          	add    $0x30,%rax
    c8e9:	48 89 85 f0 fe ff ff 	mov    %rax,-0x110(%rbp)
    c8f0:	48 c7 85 f8 fe ff ff 	movq   $0x0,-0x108(%rbp)
    c8f7:	00 00 00 00 
    c8fb:	48 c7 85 00 ff ff ff 	movq   $0x0,-0x100(%rbp)
    c902:	00 00 00 00 
    c906:	48 8d 85 a0 f0 ff ff 	lea    -0xf60(%rbp),%rax
    c90d:	48 83 c0 40          	add    $0x40,%rax
    c911:	48 89 85 08 ff ff ff 	mov    %rax,-0xf8(%rbp)
    c918:	48 8d 85 a0 f0 ff ff 	lea    -0xf60(%rbp),%rax
    c91f:	48 83 c0 40          	add    $0x40,%rax
    c923:	48 89 85 10 ff ff ff 	mov    %rax,-0xf0(%rbp)
    c92a:	48 c7 85 18 ff ff ff 	movq   $0x0,-0xe8(%rbp)
    c931:	00 00 00 00 
    c935:	48 c7 85 20 ff ff ff 	movq   $0x0,-0xe0(%rbp)
    c93c:	00 00 00 00 
    c940:	48 8d 85 a0 f0 ff ff 	lea    -0xf60(%rbp),%rax
    c947:	48 83 c0 30          	add    $0x30,%rax
    c94b:	48 89 85 28 ff ff ff 	mov    %rax,-0xd8(%rbp)
    c952:	48 c7 85 30 ff ff ff 	movq   $0x0,-0xd0(%rbp)
    c959:	00 00 00 00 
    c95d:	48 c7 85 38 ff ff ff 	movq   $0x0,-0xc8(%rbp)
    c964:	00 00 00 00 
    c968:	48 8d 85 a0 f0 ff ff 	lea    -0xf60(%rbp),%rax
    c96f:	48 83 c0 78          	add    $0x78,%rax
    c973:	48 89 85 40 ff ff ff 	mov    %rax,-0xc0(%rbp)
    c97a:	48 c7 85 48 ff ff ff 	movq   $0x0,-0xb8(%rbp)
    c981:	00 00 00 00 
    c985:	48 8d 85 a0 f0 ff ff 	lea    -0xf60(%rbp),%rax
    c98c:	48 83 c0 78          	add    $0x78,%rax
    c990:	48 89 85 50 ff ff ff 	mov    %rax,-0xb0(%rbp)
    c997:	48 c7 85 58 ff ff ff 	movq   $0x0,-0xa8(%rbp)
    c99e:	00 00 00 00 
    c9a2:	48 c7 85 60 ff ff ff 	movq   $0x0,-0xa0(%rbp)
    c9a9:	00 00 00 00 
    c9ad:	48 c7 85 68 ff ff ff 	movq   $0x0,-0x98(%rbp)
    c9b4:	00 00 00 00 
    c9b8:	48 c7 85 70 ff ff ff 	movq   $0x0,-0x90(%rbp)
    c9bf:	00 00 00 00 
    c9c3:	48 c7 85 78 ff ff ff 	movq   $0x0,-0x88(%rbp)
    c9ca:	00 00 00 00 
    c9ce:	48 8d 85 a0 f0 ff ff 	lea    -0xf60(%rbp),%rax
    c9d5:	48 83 c0 40          	add    $0x40,%rax
    c9d9:	48 89 45 80          	mov    %rax,-0x80(%rbp)
    c9dd:	48 8d 85 a0 f0 ff ff 	lea    -0xf60(%rbp),%rax
    c9e4:	48 83 c0 40          	add    $0x40,%rax
    c9e8:	48 89 45 88          	mov    %rax,-0x78(%rbp)
    c9ec:	48 c7 45 90 00 00 00 	movq   $0x0,-0x70(%rbp)
    c9f3:	00 
    c9f4:	48 c7 45 98 00 00 00 	movq   $0x0,-0x68(%rbp)
    c9fb:	00 
    c9fc:	48 8d 85 a0 f0 ff ff 	lea    -0xf60(%rbp),%rax
    ca03:	48 83 c0 30          	add    $0x30,%rax
    ca07:	48 89 45 a0          	mov    %rax,-0x60(%rbp)
    ca0b:	48 c7 45 a8 00 00 00 	movq   $0x0,-0x58(%rbp)
    ca12:	00 
    ca13:	0f be 95 69 eb ff ff 	movsbl -0x1497(%rbp),%edx
    ca1a:	8b 85 80 ee ff ff    	mov    -0x1180(%rbp),%eax
    ca20:	83 f8 01             	cmp    $0x1,%eax
    ca23:	0f 95 c0             	setne  %al
    ca26:	0f b6 c8             	movzbl %al,%ecx
    ca29:	8b 85 54 eb ff ff    	mov    -0x14ac(%rbp),%eax
    ca2f:	39 c1                	cmp    %eax,%ecx
    ca31:	0f 95 c0             	setne  %al
    ca34:	0f b6 c0             	movzbl %al,%eax
    ca37:	39 c2                	cmp    %eax,%edx
    ca39:	0f 9d c0             	setge  %al
    ca3c:	0f b6 c0             	movzbl %al,%eax
    ca3f:	be 0a 00 00 00       	mov    $0xa,%esi
    ca44:	89 c7                	mov    %eax,%edi
    ca46:	e8 bb a3 ff ff       	callq  6e06 <safe_lshift_func_uint16_t_u_u>
    ca4b:	66 85 c0             	test   %ax,%ax
    ca4e:	0f 84 93 01 00 00    	je     cbe7 <func_33+0x21bd>
    ca54:	48 8d 05 dd ec 00 00 	lea    0xecdd(%rip),%rax        # 1b738 <g_243>
    ca5b:	48 89 85 a0 ed ff ff 	mov    %rax,-0x1260(%rbp)
    ca62:	c6 05 17 d9 00 00 00 	movb   $0x0,0xd917(%rip)        # 1a380 <g_909>
    ca69:	e9 df 00 00 00       	jmpq   cb4d <func_33+0x2123>
    ca6e:	0f b6 05 0b d9 00 00 	movzbl 0xd90b(%rip),%eax        # 1a380 <g_909>
    ca75:	0f b6 c0             	movzbl %al,%eax
    ca78:	48 98                	cltq   
    ca7a:	8b 84 85 80 ee ff ff 	mov    -0x1180(%rbp,%rax,4),%eax
    ca81:	85 c0                	test   %eax,%eax
    ca83:	0f 85 95 00 00 00    	jne    cb1e <func_33+0x20f4>
    ca89:	8b 85 54 eb ff ff    	mov    -0x14ac(%rbp),%eax
    ca8f:	85 c0                	test   %eax,%eax
    ca91:	74 11                	je     caa4 <func_33+0x207a>
    ca93:	8b 85 54 eb ff ff    	mov    -0x14ac(%rbp),%eax
    ca99:	85 c0                	test   %eax,%eax
    ca9b:	74 07                	je     caa4 <func_33+0x207a>
    ca9d:	b8 01 00 00 00       	mov    $0x1,%eax
    caa2:	eb 05                	jmp    caa9 <func_33+0x207f>
    caa4:	b8 00 00 00 00       	mov    $0x0,%eax
    caa9:	0f be c0             	movsbl %al,%eax
    caac:	89 c7                	mov    %eax,%edi
    caae:	e8 0c 97 ff ff       	callq  61bf <safe_unary_minus_func_int8_t_s>
    cab3:	0f b6 05 c6 d8 00 00 	movzbl 0xd8c6(%rip),%eax        # 1a380 <g_909>
    caba:	0f b6 c0             	movzbl %al,%eax
    cabd:	48 98                	cltq   
    cabf:	8b 84 85 80 ee ff ff 	mov    -0x1180(%rbp,%rax,4),%eax
    cac6:	48 98                	cltq   
    cac8:	48 89 c6             	mov    %rax,%rsi
    cacb:	bf 01 00 00 00       	mov    $0x1,%edi
    cad0:	e8 6c 9d ff ff       	callq  6841 <safe_add_func_int64_t_s_s>
    cad5:	48 8b 85 58 eb ff ff 	mov    -0x14a8(%rbp),%rax
    cadc:	8b 00                	mov    (%rax),%eax
    cade:	be ff ff ff ff       	mov    $0xffffffff,%esi
    cae3:	89 c7                	mov    %eax,%edi
    cae5:	e8 1b 9b ff ff       	callq  6605 <safe_sub_func_int32_t_s_s>
    caea:	be c9 33 00 00       	mov    $0x33c9,%esi
    caef:	bf 00 00 00 00       	mov    $0x0,%edi
    caf4:	e8 da 98 ff ff       	callq  63d3 <safe_sub_func_int16_t_s_s>
    caf9:	66 85 c0             	test   %ax,%ax
    cafc:	0f 95 c0             	setne  %al
    caff:	0f b6 d0             	movzbl %al,%edx
    cb02:	8b 85 80 ee ff ff    	mov    -0x1180(%rbp),%eax
    cb08:	0f b6 c0             	movzbl %al,%eax
    cb0b:	89 d6                	mov    %edx,%esi
    cb0d:	89 c7                	mov    %eax,%edi
    cb0f:	e8 38 a1 ff ff       	callq  6c4c <safe_lshift_func_uint8_t_u_u>
    cb14:	b8 01 00 00 00       	mov    $0x1,%eax
    cb19:	83 f8 ff             	cmp    $0xffffffff,%eax
    cb1c:	74 07                	je     cb25 <func_33+0x20fb>
    cb1e:	ba 01 00 00 00       	mov    $0x1,%edx
    cb23:	eb 05                	jmp    cb2a <func_33+0x2100>
    cb25:	ba 00 00 00 00       	mov    $0x0,%edx
    cb2a:	0f b6 05 4f d8 00 00 	movzbl 0xd84f(%rip),%eax        # 1a380 <g_909>
    cb31:	0f b6 c0             	movzbl %al,%eax
    cb34:	48 98                	cltq   
    cb36:	89 94 85 80 ee ff ff 	mov    %edx,-0x1180(%rbp,%rax,4)
    cb3d:	0f b6 05 3c d8 00 00 	movzbl 0xd83c(%rip),%eax        # 1a380 <g_909>
    cb44:	83 c0 01             	add    $0x1,%eax
    cb47:	88 05 33 d8 00 00    	mov    %al,0xd833(%rip)        # 1a380 <g_909>
    cb4d:	0f b6 05 2c d8 00 00 	movzbl 0xd82c(%rip),%eax        # 1a380 <g_909>
    cb54:	84 c0                	test   %al,%al
    cb56:	0f 84 12 ff ff ff    	je     ca6e <func_33+0x2044>
    cb5c:	c6 85 63 eb ff ff 00 	movb   $0x0,-0x149d(%rbp)
    cb63:	eb 6a                	jmp    cbcf <func_33+0x21a5>
    cb65:	c7 85 a8 eb ff ff 00 	movl   $0x0,-0x1458(%rbp)
    cb6c:	00 00 00 
    cb6f:	eb 1e                	jmp    cb8f <func_33+0x2165>
    cb71:	8b 85 a8 eb ff ff    	mov    -0x1458(%rbp),%eax
    cb77:	48 98                	cltq   
    cb79:	48 8d 95 68 ec ff ff 	lea    -0x1398(%rbp),%rdx
    cb80:	48 89 94 c5 20 ef ff 	mov    %rdx,-0x10e0(%rbp,%rax,8)
    cb87:	ff 
    cb88:	83 85 a8 eb ff ff 01 	addl   $0x1,-0x1458(%rbp)
    cb8f:	83 bd a8 eb ff ff 04 	cmpl   $0x4,-0x1458(%rbp)
    cb96:	7e d9                	jle    cb71 <func_33+0x2147>
    cb98:	48 8b 85 68 ec ff ff 	mov    -0x1398(%rbp),%rax
    cb9f:	48 89 85 a8 fc ff ff 	mov    %rax,-0x358(%rbp)
    cba6:	48 8b 85 a0 ed ff ff 	mov    -0x1260(%rbp),%rax
    cbad:	48 89 05 b4 ee 00 00 	mov    %rax,0xeeb4(%rip)        # 1ba68 <g_932>
    cbb4:	0f b6 85 63 eb ff ff 	movzbl -0x149d(%rbp),%eax
    cbbb:	48 98                	cltq   
    cbbd:	8b 84 85 60 ee ff ff 	mov    -0x11a0(%rbp,%rax,4),%eax
    cbc4:	85 c0                	test   %eax,%eax
    cbc6:	75 12                	jne    cbda <func_33+0x21b0>
    cbc8:	80 85 63 eb ff ff 01 	addb   $0x1,-0x149d(%rbp)
    cbcf:	80 bd 63 eb ff ff 05 	cmpb   $0x5,-0x149d(%rbp)
    cbd6:	76 8d                	jbe    cb65 <func_33+0x213b>
    cbd8:	eb 01                	jmp    cbdb <func_33+0x21b1>
    cbda:	90                   	nop
    cbdb:	48 8b 85 80 ed ff ff 	mov    -0x1280(%rbp),%rax
    cbe2:	e9 bc 0f 00 00       	jmpq   dba3 <func_33+0x3179>
    cbe7:	48 8d 85 68 ec ff ff 	lea    -0x1398(%rbp),%rax
    cbee:	48 89 85 98 ed ff ff 	mov    %rax,-0x1268(%rbp)
    cbf5:	c7 85 84 eb ff ff 06 	movl   $0x6,-0x147c(%rbp)
    cbfc:	00 00 00 
    cbff:	eb 19                	jmp    cc1a <func_33+0x21f0>
    cc01:	8b 85 84 eb ff ff    	mov    -0x147c(%rbp),%eax
    cc07:	85 c0                	test   %eax,%eax
    cc09:	75 1c                	jne    cc27 <func_33+0x21fd>
    cc0b:	8b 85 84 eb ff ff    	mov    -0x147c(%rbp),%eax
    cc11:	83 e8 01             	sub    $0x1,%eax
    cc14:	89 85 84 eb ff ff    	mov    %eax,-0x147c(%rbp)
    cc1a:	8b 85 84 eb ff ff    	mov    -0x147c(%rbp),%eax
    cc20:	83 f8 01             	cmp    $0x1,%eax
    cc23:	7f dc                	jg     cc01 <func_33+0x21d7>
    cc25:	eb 01                	jmp    cc28 <func_33+0x21fe>
    cc27:	90                   	nop
    cc28:	8b 85 54 eb ff ff    	mov    -0x14ac(%rbp),%eax
    cc2e:	3d a0 00 00 00       	cmp    $0xa0,%eax
    cc33:	0f 9f c0             	setg   %al
    cc36:	0f b6 c0             	movzbl %al,%eax
    cc39:	89 05 85 d4 00 00    	mov    %eax,0xd485(%rip)        # 1a0c4 <g_86+0x14>
    cc3f:	8b 85 80 ee ff ff    	mov    -0x1180(%rbp),%eax
    cc45:	85 c0                	test   %eax,%eax
    cc47:	0f 84 cc 02 00 00    	je     cf19 <func_33+0x24ef>
    cc4d:	e9 f1 04 00 00       	jmpq   d143 <func_33+0x2719>
    cc52:	66 c7 85 7e eb ff ff 	movw   $0x21bf,-0x1482(%rbp)
    cc59:	bf 21 
    cc5b:	48 8d 05 4a d4 00 00 	lea    0xd44a(%rip),%rax        # 1a0ac <g_77>
    cc62:	48 89 85 88 ed ff ff 	mov    %rax,-0x1278(%rbp)
    cc69:	c7 85 ac eb ff ff 00 	movl   $0x0,-0x1454(%rbp)
    cc70:	00 00 00 
    cc73:	eb 1e                	jmp    cc93 <func_33+0x2269>
    cc75:	8b 85 ac eb ff ff    	mov    -0x1454(%rbp),%eax
    cc7b:	48 98                	cltq   
    cc7d:	48 8d 15 34 d4 00 00 	lea    0xd434(%rip),%rdx        # 1a0b8 <g_86+0x8>
    cc84:	48 89 94 c5 b0 fb ff 	mov    %rdx,-0x450(%rbp,%rax,8)
    cc8b:	ff 
    cc8c:	83 85 ac eb ff ff 01 	addl   $0x1,-0x1454(%rbp)
    cc93:	83 bd ac eb ff ff 03 	cmpl   $0x3,-0x1454(%rbp)
    cc9a:	7e d9                	jle    cc75 <func_33+0x224b>
    cc9c:	c7 85 ac eb ff ff 00 	movl   $0x0,-0x1454(%rbp)
    cca3:	00 00 00 
    cca6:	eb 1e                	jmp    ccc6 <func_33+0x229c>
    cca8:	8b 85 ac eb ff ff    	mov    -0x1454(%rbp),%eax
    ccae:	48 98                	cltq   
    ccb0:	48 8d 15 89 ea 00 00 	lea    0xea89(%rip),%rdx        # 1b740 <g_247>
    ccb7:	48 89 94 c5 20 ef ff 	mov    %rdx,-0x10e0(%rbp,%rax,8)
    ccbe:	ff 
    ccbf:	83 85 ac eb ff ff 01 	addl   $0x1,-0x1454(%rbp)
    ccc6:	83 bd ac eb ff ff 01 	cmpl   $0x1,-0x1454(%rbp)
    cccd:	7e d9                	jle    cca8 <func_33+0x227e>
    cccf:	8b 05 4b d4 00 00    	mov    0xd44b(%rip),%eax        # 1a120 <g_244>
    ccd5:	85 c0                	test   %eax,%eax
    ccd7:	74 05                	je     ccde <func_33+0x22b4>
    ccd9:	e9 98 e9 ff ff       	jmpq   b676 <func_33+0xc4c>
    ccde:	0f b6 45 bf          	movzbl -0x41(%rbp),%eax
    cce2:	0f b6 d8             	movzbl %al,%ebx
    cce5:	48 83 bd 60 ed ff ff 	cmpq   $0x0,-0x12a0(%rbp)
    ccec:	00 
    cced:	0f 95 c0             	setne  %al
    ccf0:	0f b6 c0             	movzbl %al,%eax
    ccf3:	be 0f 00 00 00       	mov    $0xf,%esi
    ccf8:	89 c7                	mov    %eax,%edi
    ccfa:	e8 bf a0 ff ff       	callq  6dbe <safe_lshift_func_uint16_t_u_s>
    ccff:	48 8b 95 78 ec ff ff 	mov    -0x1388(%rbp),%rdx
    cd06:	66 89 02             	mov    %ax,(%rdx)
    cd09:	8b 95 80 ee ff ff    	mov    -0x1180(%rbp),%edx
    cd0f:	48 8b 05 12 ea 00 00 	mov    0xea12(%rip),%rax        # 1b728 <g_159>
    cd16:	89 10                	mov    %edx,(%rax)
    cd18:	8b 00                	mov    (%rax),%eax
    cd1a:	85 c0                	test   %eax,%eax
    cd1c:	0f 84 92 00 00 00    	je     cdb4 <func_33+0x238a>
    cd22:	c6 85 61 eb ff ff 00 	movb   $0x0,-0x149f(%rbp)
    cd29:	8b 85 80 ee ff ff    	mov    -0x1180(%rbp),%eax
    cd2f:	0f b7 c0             	movzwl %ax,%eax
    cd32:	be 09 00 00 00       	mov    $0x9,%esi
    cd37:	89 c7                	mov    %eax,%edi
    cd39:	e8 c8 a0 ff ff       	callq  6e06 <safe_lshift_func_uint16_t_u_u>
    cd3e:	0f b6 c0             	movzbl %al,%eax
    cd41:	be 03 00 00 00       	mov    $0x3,%esi
    cd46:	89 c7                	mov    %eax,%edi
    cd48:	e8 ff 9e ff ff       	callq  6c4c <safe_lshift_func_uint8_t_u_u>
    cd4d:	0f b6 d0             	movzbl %al,%edx
    cd50:	8b 85 54 eb ff ff    	mov    -0x14ac(%rbp),%eax
    cd56:	98                   	cwtl   
    cd57:	89 d6                	mov    %edx,%esi
    cd59:	89 c7                	mov    %eax,%edi
    cd5b:	e8 b6 96 ff ff       	callq  6416 <safe_mod_func_int16_t_s_s>
    cd60:	0f bf d0             	movswl %ax,%edx
    cd63:	8b 85 84 eb ff ff    	mov    -0x147c(%rbp),%eax
    cd69:	09 d0                	or     %edx,%eax
    cd6b:	89 85 84 eb ff ff    	mov    %eax,-0x147c(%rbp)
    cd71:	8b 85 84 eb ff ff    	mov    -0x147c(%rbp),%eax
    cd77:	85 c0                	test   %eax,%eax
    cd79:	74 39                	je     cdb4 <func_33+0x238a>
    cd7b:	0f b6 85 50 eb ff ff 	movzbl -0x14b0(%rbp),%eax
    cd82:	0f b6 c0             	movzbl %al,%eax
    cd85:	48 98                	cltq   
    cd87:	48 8d 14 c5 00 00 00 	lea    0x0(,%rax,8),%rdx
    cd8e:	00 
    cd8f:	48 8d 05 4a d3 00 00 	lea    0xd34a(%rip),%rax        # 1a0e0 <g_171>
    cd96:	48 8b 04 02          	mov    (%rdx,%rax,1),%rax
    cd9a:	0f b6 c0             	movzbl %al,%eax
    cd9d:	be cb 00 00 00       	mov    $0xcb,%esi
    cda2:	89 c7                	mov    %eax,%edi
    cda4:	e8 05 9e ff ff       	callq  6bae <safe_mod_func_uint8_t_u_u>
    cda9:	48 8b 85 58 eb ff ff 	mov    -0x14a8(%rbp),%rax
    cdb0:	8b 00                	mov    (%rax),%eax
    cdb2:	85 c0                	test   %eax,%eax
    cdb4:	0f b7 95 7e eb ff ff 	movzwl -0x1482(%rbp),%edx
    cdbb:	8b 85 54 eb ff ff    	mov    -0x14ac(%rbp),%eax
    cdc1:	98                   	cwtl   
    cdc2:	89 d6                	mov    %edx,%esi
    cdc4:	89 c7                	mov    %eax,%edi
    cdc6:	e8 c7 96 ff ff       	callq  6492 <safe_lshift_func_int16_t_s_s>
    cdcb:	98                   	cwtl   
    cdcc:	be 00 00 00 00       	mov    $0x0,%esi
    cdd1:	89 c7                	mov    %eax,%edi
    cdd3:	e8 ba 96 ff ff       	callq  6492 <safe_lshift_func_int16_t_s_s>
    cdd8:	48 8b 05 d1 eb 00 00 	mov    0xebd1(%rip),%rax        # 1b9b0 <g_763>
    cddf:	48 8b 00             	mov    (%rax),%rax
    cde2:	48 be 0a cf 08 b7 9b 	movabs $0x9c64bf9bb708cf0a,%rsi
    cde9:	bf 64 9c 
    cdec:	48 89 c7             	mov    %rax,%rdi
    cdef:	e8 8c a2 ff ff       	callq  7080 <safe_mod_func_uint64_t_u_u>
    cdf4:	83 bd c0 eb ff ff 01 	cmpl   $0x1,-0x1440(%rbp)
    cdfb:	0f 9e c0             	setle  %al
    cdfe:	0f b6 c0             	movzbl %al,%eax
    ce01:	89 85 34 ec ff ff    	mov    %eax,-0x13cc(%rbp)
    ce07:	8b 85 34 ec ff ff    	mov    -0x13cc(%rbp),%eax
    ce0d:	0f b6 c0             	movzbl %al,%eax
    ce10:	89 de                	mov    %ebx,%esi
    ce12:	89 c7                	mov    %eax,%edi
    ce14:	e8 c2 9d ff ff       	callq  6bdb <safe_div_func_uint8_t_u_u>
    ce19:	0f b6 c0             	movzbl %al,%eax
    ce1c:	39 85 c0 eb ff ff    	cmp    %eax,-0x1440(%rbp)
    ce22:	0f 9f c0             	setg   %al
    ce25:	0f b6 c0             	movzbl %al,%eax
    ce28:	48 89 c7             	mov    %rax,%rdi
    ce2b:	e8 e6 99 ff ff       	callq  6816 <safe_unary_minus_func_int64_t_s>
    ce30:	21 85 38 ec ff ff    	and    %eax,-0x13c8(%rbp)
    ce36:	c7 85 38 ec ff ff 06 	movl   $0x6,-0x13c8(%rbp)
    ce3d:	00 00 00 
    ce40:	83 bd 38 ec ff ff 00 	cmpl   $0x0,-0x13c8(%rbp)
    ce47:	0f 8e cc 00 00 00    	jle    cf19 <func_33+0x24ef>
    ce4d:	c6 85 68 eb ff ff 8b 	movb   $0x8b,-0x1498(%rbp)
    ce54:	c7 85 b0 eb ff ff 85 	movl   $0x30642685,-0x1450(%rbp)
    ce5b:	26 64 30 
    ce5e:	80 ad 68 eb ff ff 01 	subb   $0x1,-0x1498(%rbp)
    ce65:	48 c7 05 c8 d4 00 00 	movq   $0x0,0xd4c8(%rip)        # 1a338 <g_424>
    ce6c:	00 00 00 00 
    ce70:	90                   	nop
    ce71:	48 8b 05 c0 d4 00 00 	mov    0xd4c0(%rip),%rax        # 1a338 <g_424>
    ce78:	48 83 f8 06          	cmp    $0x6,%rax
    ce7c:	77 17                	ja     ce95 <func_33+0x246b>
    ce7e:	48 c7 85 90 ed ff ff 	movq   $0x0,-0x1270(%rbp)
    ce85:	00 00 00 00 
    ce89:	48 8b 85 90 ed ff ff 	mov    -0x1270(%rbp),%rax
    ce90:	e9 0e 0d 00 00       	jmpq   dba3 <func_33+0x3179>
    ce95:	c7 05 cd f8 00 00 00 	movl   $0x0,0xf8cd(%rip)        # 1c76c <g_160>
    ce9c:	00 00 00 
    ce9f:	eb 61                	jmp    cf02 <func_33+0x24d8>
    cea1:	48 8b 85 58 eb ff ff 	mov    -0x14a8(%rbp),%rax
    cea8:	8b 00                	mov    (%rax),%eax
    ceaa:	31 85 b0 eb ff ff    	xor    %eax,-0x1450(%rbp)
    ceb0:	80 bd 63 eb ff ff 00 	cmpb   $0x0,-0x149d(%rbp)
    ceb7:	75 39                	jne    cef2 <func_33+0x24c8>
    ceb9:	8b 05 e9 d1 00 00    	mov    0xd1e9(%rip),%eax        # 1a0a8 <g_60>
    cebf:	85 c0                	test   %eax,%eax
    cec1:	74 05                	je     cec8 <func_33+0x249e>
    cec3:	e9 29 f0 ff ff       	jmpq   bef1 <func_33+0x14c7>
    cec8:	48 8d 05 71 e8 00 00 	lea    0xe871(%rip),%rax        # 1b740 <g_247>
    cecf:	48 89 85 68 ed ff ff 	mov    %rax,-0x1298(%rbp)
    ced6:	48 8b 85 20 ef ff ff 	mov    -0x10e0(%rbp),%rax
    cedd:	48 39 85 68 ed ff ff 	cmp    %rax,-0x1298(%rbp)
    cee4:	0f 95 c0             	setne  %al
    cee7:	0f b6 c0             	movzbl %al,%eax
    ceea:	89 85 80 ee ff ff    	mov    %eax,-0x1180(%rbp)
    cef0:	eb 01                	jmp    cef3 <func_33+0x24c9>
    cef2:	90                   	nop
    cef3:	8b 05 73 f8 00 00    	mov    0xf873(%rip),%eax        # 1c76c <g_160>
    cef9:	83 c0 01             	add    $0x1,%eax
    cefc:	89 05 6a f8 00 00    	mov    %eax,0xf86a(%rip)        # 1c76c <g_160>
    cf02:	8b 05 64 f8 00 00    	mov    0xf864(%rip),%eax        # 1c76c <g_160>
    cf08:	83 f8 06             	cmp    $0x6,%eax
    cf0b:	76 94                	jbe    cea1 <func_33+0x2477>
    cf0d:	48 8b 85 88 ed ff ff 	mov    -0x1278(%rbp),%rax
    cf14:	e9 8a 0c 00 00       	jmpq   dba3 <func_33+0x3179>
    cf19:	48 8b 05 88 ea 00 00 	mov    0xea88(%rip),%rax        # 1b9a8 <g_673>
    cf20:	48 8b 00             	mov    (%rax),%rax
    cf23:	48 8d 95 54 eb ff ff 	lea    -0x14ac(%rbp),%rdx
    cf2a:	48 89 10             	mov    %rdx,(%rax)
    cf2d:	48 8b 00             	mov    (%rax),%rax
    cf30:	48 89 85 58 eb ff ff 	mov    %rax,-0x14a8(%rbp)
    cf37:	48 8b 05 6a ea 00 00 	mov    0xea6a(%rip),%rax        # 1b9a8 <g_673>
    cf3e:	48 8b 00             	mov    (%rax),%rax
    cf41:	48 8b 00             	mov    (%rax),%rax
    cf44:	8b 00                	mov    (%rax),%eax
    cf46:	85 c0                	test   %eax,%eax
    cf48:	0f 85 f4 01 00 00    	jne    d142 <func_33+0x2718>
    cf4e:	c6 85 61 eb ff ff 00 	movb   $0x0,-0x149f(%rbp)
    cf55:	e9 b8 01 00 00       	jmpq   d112 <func_33+0x26e8>
    cf5a:	48 b8 73 c5 bb 4c ab 	movabs $0x4596a8ab4cbbc573,%rax
    cf61:	a8 96 45 
    cf64:	48 89 85 a8 ed ff ff 	mov    %rax,-0x1258(%rbp)
    cf6b:	c7 85 3c ec ff ff ff 	movl   $0xffffffff,-0x13c4(%rbp)
    cf72:	ff ff ff 
    cf75:	c7 85 b4 eb ff ff 00 	movl   $0x0,-0x144c(%rbp)
    cf7c:	00 00 00 
    cf7f:	eb 14                	jmp    cf95 <func_33+0x256b>
    cf81:	8b 85 b4 eb ff ff    	mov    -0x144c(%rbp),%eax
    cf87:	48 98                	cltq   
    cf89:	c6 44 05 ba 09       	movb   $0x9,-0x46(%rbp,%rax,1)
    cf8e:	83 85 b4 eb ff ff 01 	addl   $0x1,-0x144c(%rbp)
    cf95:	83 bd b4 eb ff ff 04 	cmpl   $0x4,-0x144c(%rbp)
    cf9c:	7e e3                	jle    cf81 <func_33+0x2557>
    cf9e:	0f b6 45 bb          	movzbl -0x45(%rbp),%eax
    cfa2:	0f be d8             	movsbl %al,%ebx
    cfa5:	44 0f b6 bd 66 eb ff 	movzbl -0x149a(%rbp),%r15d
    cfac:	ff 
    cfad:	0f b6 85 50 eb ff ff 	movzbl -0x14b0(%rbp),%eax
    cfb4:	0f b6 c0             	movzbl %al,%eax
    cfb7:	89 85 44 eb ff ff    	mov    %eax,-0x14bc(%rbp)
    cfbd:	0f b6 85 61 eb ff ff 	movzbl -0x149f(%rbp),%eax
    cfc4:	0f b6 d0             	movzbl %al,%edx
    cfc7:	48 8b 85 60 ed ff ff 	mov    -0x12a0(%rbp),%rax
    cfce:	48 89 10             	mov    %rdx,(%rax)
    cfd1:	48 8b 85 60 ed ff ff 	mov    -0x12a0(%rbp),%rax
    cfd8:	48 8b 00             	mov    (%rax),%rax
    cfdb:	48 89 85 38 eb ff ff 	mov    %rax,-0x14c8(%rbp)
    cfe2:	8b 85 54 eb ff ff    	mov    -0x14ac(%rbp),%eax
    cfe8:	4c 63 e0             	movslq %eax,%r12
    cfeb:	0f b6 85 50 eb ff ff 	movzbl -0x14b0(%rbp),%eax
    cff2:	44 0f b6 e8          	movzbl %al,%r13d
    cff6:	44 8b b5 54 eb ff ff 	mov    -0x14ac(%rbp),%r14d
    cffd:	8b 85 80 ee ff ff    	mov    -0x1180(%rbp),%eax
    d003:	85 c0                	test   %eax,%eax
    d005:	74 33                	je     d03a <func_33+0x2610>
    d007:	48 8b 85 78 ec ff ff 	mov    -0x1388(%rbp),%rax
    d00e:	0f b7 00             	movzwl (%rax),%eax
    d011:	8d 50 ff             	lea    -0x1(%rax),%edx
    d014:	48 8b 85 78 ec ff ff 	mov    -0x1388(%rbp),%rax
    d01b:	66 89 10             	mov    %dx,(%rax)
    d01e:	48 8b 85 78 ec ff ff 	mov    -0x1388(%rbp),%rax
    d025:	0f b7 00             	movzwl (%rax),%eax
    d028:	0f b7 c0             	movzwl %ax,%eax
    d02b:	be 00 00 00 00       	mov    $0x0,%esi
    d030:	89 c7                	mov    %eax,%edi
    d032:	e8 e8 9c ff ff       	callq  6d1f <safe_sub_func_uint16_t_u_u>
    d037:	66 85 c0             	test   %ax,%ax
    d03a:	44 89 f6             	mov    %r14d,%esi
    d03d:	bf 06 00 00 00       	mov    $0x6,%edi
    d042:	e8 be 9b ff ff       	callq  6c05 <safe_lshift_func_uint8_t_u_s>
    d047:	4c 89 ee             	mov    %r13,%rsi
    d04a:	bf 01 00 00 00       	mov    $0x1,%edi
    d04f:	e8 da 9f ff ff       	callq  702e <safe_add_func_uint64_t_u_u>
    d054:	0f be c0             	movsbl %al,%eax
    d057:	be 07 00 00 00       	mov    $0x7,%esi
    d05c:	89 c7                	mov    %eax,%edi
    d05e:	e8 3e 92 ff ff       	callq  62a1 <safe_lshift_func_int8_t_s_s>
    d063:	8b 85 54 eb ff ff    	mov    -0x14ac(%rbp),%eax
    d069:	83 f8 09             	cmp    $0x9,%eax
    d06c:	0f 9f c0             	setg   %al
    d06f:	0f b6 c0             	movzbl %al,%eax
    d072:	4c 89 e6             	mov    %r12,%rsi
    d075:	48 89 c7             	mov    %rax,%rdi
    d078:	e8 37 99 ff ff       	callq  69b4 <safe_mod_func_int64_t_s_s>
    d07d:	48 39 85 38 eb ff ff 	cmp    %rax,-0x14c8(%rbp)
    d084:	0f 95 c0             	setne  %al
    d087:	0f b6 c0             	movzbl %al,%eax
    d08a:	89 85 80 ee ff ff    	mov    %eax,-0x1180(%rbp)
    d090:	8b 95 80 ee ff ff    	mov    -0x1180(%rbp),%edx
    d096:	8b 85 54 eb ff ff    	mov    -0x14ac(%rbp),%eax
    d09c:	39 c2                	cmp    %eax,%edx
    d09e:	0f 95 c0             	setne  %al
    d0a1:	0f b6 c0             	movzbl %al,%eax
    d0a4:	33 85 44 eb ff ff    	xor    -0x14bc(%rbp),%eax
    d0aa:	48 98                	cltq   
    d0ac:	be 01 00 00 00       	mov    $0x1,%esi
    d0b1:	48 89 c7             	mov    %rax,%rdi
    d0b4:	e8 c7 9f ff ff       	callq  7080 <safe_mod_func_uint64_t_u_u>
    d0b9:	49 39 c7             	cmp    %rax,%r15
    d0bc:	0f 95 c0             	setne  %al
    d0bf:	0f b6 d0             	movzbl %al,%edx
    d0c2:	0f b6 85 50 eb ff ff 	movzbl -0x14b0(%rbp),%eax
    d0c9:	0f b6 c8             	movzbl %al,%ecx
    d0cc:	c7 85 70 ee ff ff 2b 	movl   $0x2b,-0x1190(%rbp)
    d0d3:	00 00 00 
    d0d6:	8b 85 70 ee ff ff    	mov    -0x1190(%rbp),%eax
    d0dc:	39 c1                	cmp    %eax,%ecx
    d0de:	0f 9c c0             	setl   %al
    d0e1:	0f b6 c0             	movzbl %al,%eax
    d0e4:	89 d6                	mov    %edx,%esi
    d0e6:	89 c7                	mov    %eax,%edi
    d0e8:	e8 3d 94 ff ff       	callq  652a <safe_rshift_func_int16_t_s_s>
    d0ed:	0f be c0             	movsbl %al,%eax
    d0f0:	89 de                	mov    %ebx,%esi
    d0f2:	89 c7                	mov    %eax,%edi
    d0f4:	e8 19 91 ff ff       	callq  6212 <safe_mul_func_int8_t_s_s>
    d0f9:	0f be c0             	movsbl %al,%eax
    d0fc:	31 85 3c ec ff ff    	xor    %eax,-0x13c4(%rbp)
    d102:	0f b6 85 61 eb ff ff 	movzbl -0x149f(%rbp),%eax
    d109:	83 c0 01             	add    $0x1,%eax
    d10c:	88 85 61 eb ff ff    	mov    %al,-0x149f(%rbp)
    d112:	0f b6 85 61 eb ff ff 	movzbl -0x149f(%rbp),%eax
    d119:	3c 06                	cmp    $0x6,%al
    d11b:	0f 86 39 fe ff ff    	jbe    cf5a <func_33+0x2530>
    d121:	0f b6 85 50 eb ff ff 	movzbl -0x14b0(%rbp),%eax
    d128:	83 c0 01             	add    $0x1,%eax
    d12b:	88 85 50 eb ff ff    	mov    %al,-0x14b0(%rbp)
    d131:	0f b6 85 50 eb ff ff 	movzbl -0x14b0(%rbp),%eax
    d138:	3c 06                	cmp    $0x6,%al
    d13a:	0f 86 fe ed ff ff    	jbe    bf3e <func_33+0x1514>
    d140:	eb 01                	jmp    d143 <func_33+0x2719>
    d142:	90                   	nop
    d143:	48 c7 05 ea d1 00 00 	movq   $0x18,0xd1ea(%rip)        # 1a338 <g_424>
    d14a:	18 00 00 00 
    d14e:	e9 78 01 00 00       	jmpq   d2cb <func_33+0x28a1>
    d153:	48 c7 85 b0 ed ff ff 	movq   $0x0,-0x1250(%rbp)
    d15a:	00 00 00 00 
    d15e:	48 8d 85 50 ec ff ff 	lea    -0x13b0(%rbp),%rax
    d165:	48 89 85 b0 fb ff ff 	mov    %rax,-0x450(%rbp)
    d16c:	48 8d 05 35 e8 00 00 	lea    0xe835(%rip),%rax        # 1b9a8 <g_673>
    d173:	48 89 85 b8 fb ff ff 	mov    %rax,-0x448(%rbp)
    d17a:	48 8d 85 50 ec ff ff 	lea    -0x13b0(%rbp),%rax
    d181:	48 89 85 c0 fb ff ff 	mov    %rax,-0x440(%rbp)
    d188:	48 8d 05 19 e8 00 00 	lea    0xe819(%rip),%rax        # 1b9a8 <g_673>
    d18f:	48 89 85 c8 fb ff ff 	mov    %rax,-0x438(%rbp)
    d196:	48 8d 85 50 ec ff ff 	lea    -0x13b0(%rbp),%rax
    d19d:	48 89 85 d0 fb ff ff 	mov    %rax,-0x430(%rbp)
    d1a4:	48 8d 05 fd e7 00 00 	lea    0xe7fd(%rip),%rax        # 1b9a8 <g_673>
    d1ab:	48 89 85 d8 fb ff ff 	mov    %rax,-0x428(%rbp)
    d1b2:	48 8d 85 50 ec ff ff 	lea    -0x13b0(%rbp),%rax
    d1b9:	48 89 85 e0 fb ff ff 	mov    %rax,-0x420(%rbp)
    d1c0:	48 8d 05 e1 e7 00 00 	lea    0xe7e1(%rip),%rax        # 1b9a8 <g_673>
    d1c7:	48 89 85 e8 fb ff ff 	mov    %rax,-0x418(%rbp)
    d1ce:	48 8d 85 50 ec ff ff 	lea    -0x13b0(%rbp),%rax
    d1d5:	48 89 85 f0 fb ff ff 	mov    %rax,-0x410(%rbp)
    d1dc:	48 8d 05 c5 e7 00 00 	lea    0xe7c5(%rip),%rax        # 1b9a8 <g_673>
    d1e3:	48 89 85 f8 fb ff ff 	mov    %rax,-0x408(%rbp)
    d1ea:	48 8d 85 50 ec ff ff 	lea    -0x13b0(%rbp),%rax
    d1f1:	48 89 85 00 fc ff ff 	mov    %rax,-0x400(%rbp)
    d1f8:	48 8d 05 a9 e7 00 00 	lea    0xe7a9(%rip),%rax        # 1b9a8 <g_673>
    d1ff:	48 89 85 08 fc ff ff 	mov    %rax,-0x3f8(%rbp)
    d206:	48 c7 85 b8 ed ff ff 	movq   $0x0,-0x1248(%rbp)
    d20d:	00 00 00 00 
    d211:	48 8d 85 a0 f0 ff ff 	lea    -0xf60(%rbp),%rax
    d218:	48 83 c0 38          	add    $0x38,%rax
    d21c:	48 89 85 c0 ed ff ff 	mov    %rax,-0x1240(%rbp)
    d223:	66 c7 85 80 eb ff ff 	movw   $0xc294,-0x1480(%rbp)
    d22a:	94 c2 
    d22c:	48 8d 85 6a eb ff ff 	lea    -0x1496(%rbp),%rax
    d233:	48 89 85 c8 ed ff ff 	mov    %rax,-0x1238(%rbp)
    d23a:	48 8d 05 e7 d0 00 00 	lea    0xd0e7(%rip),%rax        # 1a328 <g_395>
    d241:	48 89 85 d0 ed ff ff 	mov    %rax,-0x1230(%rbp)
    d248:	66 c7 85 82 eb ff ff 	movw   $0x0,-0x147e(%rbp)
    d24f:	00 00 
    d251:	48 b8 7c fa 37 9e 55 	movabs $0x1eb12d559e37fa7c,%rax
    d258:	2d b1 1e 
    d25b:	48 89 85 d8 ed ff ff 	mov    %rax,-0x1228(%rbp)
    d262:	48 8d 05 27 f5 00 00 	lea    0xf527(%rip),%rax        # 1c790 <g_812>
    d269:	48 89 85 e0 ed ff ff 	mov    %rax,-0x1220(%rbp)
    d270:	48 8d 85 62 eb ff ff 	lea    -0x149e(%rbp),%rax
    d277:	48 89 85 e8 ed ff ff 	mov    %rax,-0x1218(%rbp)
    d27e:	48 8d 05 2b e6 00 00 	lea    0xe62b(%rip),%rax        # 1b8b0 <g_320+0x150>
    d285:	48 89 85 f0 ed ff ff 	mov    %rax,-0x1210(%rbp)
    d28c:	48 8d 05 e5 f4 00 00 	lea    0xf4e5(%rip),%rax        # 1c778 <g_486>
    d293:	48 89 85 f8 ed ff ff 	mov    %rax,-0x1208(%rbp)
    d29a:	48 b8 79 cb a8 bd 0b 	movabs $0xde1eef0bbda8cb79,%rax
    d2a1:	ef 1e de 
    d2a4:	48 89 85 00 ee ff ff 	mov    %rax,-0x1200(%rbp)
    d2ab:	48 8d 05 02 d1 00 00 	lea    0xd102(%rip),%rax        # 1a3b4 <g_1390+0x4>
    d2b2:	48 89 85 08 ee ff ff 	mov    %rax,-0x11f8(%rbp)
    d2b9:	48 8b 05 78 d0 00 00 	mov    0xd078(%rip),%rax        # 1a338 <g_424>
    d2c0:	48 83 c0 01          	add    $0x1,%rax
    d2c4:	48 89 05 6d d0 00 00 	mov    %rax,0xd06d(%rip)        # 1a338 <g_424>
    d2cb:	48 8b 05 66 d0 00 00 	mov    0xd066(%rip),%rax        # 1a338 <g_424>
    d2d2:	48 83 f8 29          	cmp    $0x29,%rax
    d2d6:	0f 87 77 fe ff ff    	ja     d153 <func_33+0x2729>
    d2dc:	e9 bb 08 00 00       	jmpq   db9c <func_33+0x3172>
    d2e1:	c7 85 d8 eb ff ff 02 	movl   $0xa72d8802,-0x1428(%rbp)
    d2e8:	88 2d a7 
    d2eb:	c7 85 dc eb ff ff ff 	movl   $0xffffffff,-0x1424(%rbp)
    d2f2:	ff ff ff 
    d2f5:	c7 85 e0 eb ff ff f9 	movl   $0xfffffff9,-0x1420(%rbp)
    d2fc:	ff ff ff 
    d2ff:	c7 85 e4 eb ff ff 07 	movl   $0x7,-0x141c(%rbp)
    d306:	00 00 00 
    d309:	48 8d 05 78 d0 00 00 	lea    0xd078(%rip),%rax        # 1a388 <g_918>
    d310:	48 89 85 f0 ec ff ff 	mov    %rax,-0x1310(%rbp)
    d317:	48 8d 05 fe cd 00 00 	lea    0xcdfe(%rip),%rax        # 1a11c <g_235>
    d31e:	48 89 85 f8 ec ff ff 	mov    %rax,-0x1308(%rbp)
    d325:	48 8d 05 74 d0 00 00 	lea    0xd074(%rip),%rax        # 1a3a0 <g_1340>
    d32c:	48 89 85 00 ed ff ff 	mov    %rax,-0x1300(%rbp)
    d333:	c7 85 e8 eb ff ff c1 	movl   $0x896cd7c1,-0x1418(%rbp)
    d33a:	d7 6c 89 
    d33d:	c7 85 ec eb ff ff 07 	movl   $0x7,-0x1414(%rbp)
    d344:	00 00 00 
    d347:	c7 85 a0 ef ff ff 02 	movl   $0x2,-0x1060(%rbp)
    d34e:	00 00 00 
    d351:	c7 85 a4 ef ff ff ff 	movl   $0xffffffff,-0x105c(%rbp)
    d358:	ff ff ff 
    d35b:	c7 85 a8 ef ff ff 01 	movl   $0x1,-0x1058(%rbp)
    d362:	00 00 00 
    d365:	c7 85 ac ef ff ff 01 	movl   $0x1,-0x1054(%rbp)
    d36c:	00 00 00 
    d36f:	c7 85 b0 ef ff ff 01 	movl   $0x1,-0x1050(%rbp)
    d376:	00 00 00 
    d379:	c7 85 b4 ef ff ff ff 	movl   $0xffffffff,-0x104c(%rbp)
    d380:	ff ff ff 
    d383:	c7 85 b8 ef ff ff 02 	movl   $0x2,-0x1048(%rbp)
    d38a:	00 00 00 
    d38d:	c7 85 bc ef ff ff 01 	movl   $0x1,-0x1044(%rbp)
    d394:	00 00 00 
    d397:	c7 85 c0 ef ff ff ff 	movl   $0xffffffff,-0x1040(%rbp)
    d39e:	ff ff ff 
    d3a1:	c7 85 c4 ef ff ff 03 	movl   $0x3,-0x103c(%rbp)
    d3a8:	00 00 00 
    d3ab:	c7 85 c8 ef ff ff 6e 	movl   $0x4ac7406e,-0x1038(%rbp)
    d3b2:	40 c7 4a 
    d3b5:	c7 85 cc ef ff ff fc 	movl   $0xa7511afc,-0x1034(%rbp)
    d3bc:	1a 51 a7 
    d3bf:	c7 85 d0 ef ff ff 28 	movl   $0x9e3b28,-0x1030(%rbp)
    d3c6:	3b 9e 00 
    d3c9:	c7 85 d4 ef ff ff 01 	movl   $0x1,-0x102c(%rbp)
    d3d0:	00 00 00 
    d3d3:	c7 85 d8 ef ff ff 01 	movl   $0x1,-0x1028(%rbp)
    d3da:	00 00 00 
    d3dd:	c7 85 dc ef ff ff 28 	movl   $0x9e3b28,-0x1024(%rbp)
    d3e4:	3b 9e 00 
    d3e7:	c7 85 e0 ef ff ff 30 	movl   $0x4e4d3d30,-0x1020(%rbp)
    d3ee:	3d 4d 4e 
    d3f1:	c7 85 e4 ef ff ff 02 	movl   $0x2,-0x101c(%rbp)
    d3f8:	00 00 00 
    d3fb:	c7 85 e8 ef ff ff 02 	movl   $0x2,-0x1018(%rbp)
    d402:	00 00 00 
    d405:	c7 85 ec ef ff ff 30 	movl   $0x4e4d3d30,-0x1014(%rbp)
    d40c:	3d 4d 4e 
    d40f:	c7 85 f0 ef ff ff 28 	movl   $0x9e3b28,-0x1010(%rbp)
    d416:	3b 9e 00 
    d419:	c7 85 f4 ef ff ff 01 	movl   $0x1,-0x100c(%rbp)
    d420:	00 00 00 
    d423:	c7 85 f8 ef ff ff 01 	movl   $0x1,-0x1008(%rbp)
    d42a:	00 00 00 
    d42d:	c7 85 fc ef ff ff 01 	movl   $0x1,-0x1004(%rbp)
    d434:	00 00 00 
    d437:	c7 85 00 f0 ff ff ff 	movl   $0xffffffff,-0x1000(%rbp)
    d43e:	ff ff ff 
    d441:	c7 85 04 f0 ff ff 00 	movl   $0x0,-0xffc(%rbp)
    d448:	00 00 00 
    d44b:	c7 85 08 f0 ff ff 2d 	movl   $0x8680c42d,-0xff8(%rbp)
    d452:	c4 80 86 
    d455:	c7 85 0c f0 ff ff 28 	movl   $0x9e3b28,-0xff4(%rbp)
    d45c:	3b 9e 00 
    d45f:	c7 85 10 f0 ff ff 01 	movl   $0x1,-0xff0(%rbp)
    d466:	00 00 00 
    d469:	c7 85 14 f0 ff ff 28 	movl   $0x9e3b28,-0xfec(%rbp)
    d470:	3b 9e 00 
    d473:	c7 85 18 f0 ff ff 2d 	movl   $0x8680c42d,-0xfe8(%rbp)
    d47a:	c4 80 86 
    d47d:	c7 85 1c f0 ff ff 00 	movl   $0x0,-0xfe4(%rbp)
    d484:	00 00 00 
    d487:	c7 85 20 f0 ff ff 02 	movl   $0x2,-0xfe0(%rbp)
    d48e:	00 00 00 
    d491:	c7 85 24 f0 ff ff 00 	movl   $0x0,-0xfdc(%rbp)
    d498:	00 00 00 
    d49b:	c7 85 28 f0 ff ff 01 	movl   $0x1,-0xfd8(%rbp)
    d4a2:	00 00 00 
    d4a5:	c7 85 2c f0 ff ff 2d 	movl   $0x8680c42d,-0xfd4(%rbp)
    d4ac:	c4 80 86 
    d4af:	c7 85 30 f0 ff ff 6e 	movl   $0x4ac7406e,-0xfd0(%rbp)
    d4b6:	40 c7 4a 
    d4b9:	c7 85 34 f0 ff ff 01 	movl   $0x1,-0xfcc(%rbp)
    d4c0:	00 00 00 
    d4c3:	c7 85 38 f0 ff ff fc 	movl   $0xa7511afc,-0xfc8(%rbp)
    d4ca:	1a 51 a7 
    d4cd:	c7 85 3c f0 ff ff fc 	movl   $0xa7511afc,-0xfc4(%rbp)
    d4d4:	1a 51 a7 
    d4d7:	c7 85 40 f0 ff ff 01 	movl   $0x1,-0xfc0(%rbp)
    d4de:	00 00 00 
    d4e1:	c7 85 44 f0 ff ff 02 	movl   $0x2,-0xfbc(%rbp)
    d4e8:	00 00 00 
    d4eb:	c7 85 48 f0 ff ff 03 	movl   $0x3,-0xfb8(%rbp)
    d4f2:	00 00 00 
    d4f5:	c7 85 4c f0 ff ff 03 	movl   $0x3,-0xfb4(%rbp)
    d4fc:	00 00 00 
    d4ff:	c7 85 50 f0 ff ff 02 	movl   $0x2,-0xfb0(%rbp)
    d506:	00 00 00 
    d509:	c7 85 54 f0 ff ff 01 	movl   $0x1,-0xfac(%rbp)
    d510:	00 00 00 
    d513:	c7 85 58 f0 ff ff fc 	movl   $0xa7511afc,-0xfa8(%rbp)
    d51a:	1a 51 a7 
    d51d:	c7 85 5c f0 ff ff 01 	movl   $0x1,-0xfa4(%rbp)
    d524:	00 00 00 
    d527:	c7 85 60 f0 ff ff 01 	movl   $0x1,-0xfa0(%rbp)
    d52e:	00 00 00 
    d531:	c7 85 64 f0 ff ff 03 	movl   $0x3,-0xf9c(%rbp)
    d538:	00 00 00 
    d53b:	c7 85 68 f0 ff ff 01 	movl   $0x1,-0xf98(%rbp)
    d542:	00 00 00 
    d545:	c7 85 6c f0 ff ff 01 	movl   $0x1,-0xf94(%rbp)
    d54c:	00 00 00 
    d54f:	c7 85 70 f0 ff ff 2d 	movl   $0x8680c42d,-0xf90(%rbp)
    d556:	c4 80 86 
    d559:	c7 85 74 f0 ff ff ff 	movl   $0xffffffff,-0xf8c(%rbp)
    d560:	ff ff ff 
    d563:	c7 85 78 f0 ff ff 2d 	movl   $0x8680c42d,-0xf88(%rbp)
    d56a:	c4 80 86 
    d56d:	c7 85 7c f0 ff ff 01 	movl   $0x1,-0xf84(%rbp)
    d574:	00 00 00 
    d577:	c7 85 50 ee ff ff ff 	movl   $0xffffffff,-0x11b0(%rbp)
    d57e:	ff ff ff 
    d581:	c7 85 54 ee ff ff ff 	movl   $0xffffffff,-0x11ac(%rbp)
    d588:	ff ff ff 
    d58b:	c7 85 58 ee ff ff ff 	movl   $0xffffffff,-0x11a8(%rbp)
    d592:	ff ff ff 
    d595:	c7 85 5c ee ff ff ff 	movl   $0xffffffff,-0x11a4(%rbp)
    d59c:	ff ff ff 
    d59f:	48 8d 85 61 eb ff ff 	lea    -0x149f(%rbp),%rax
    d5a6:	48 89 85 68 ec ff ff 	mov    %rax,-0x1398(%rbp)
    d5ad:	48 8d 85 68 ec ff ff 	lea    -0x1398(%rbp),%rax
    d5b4:	48 89 85 08 ed ff ff 	mov    %rax,-0x12f8(%rbp)
    d5bb:	c6 85 65 eb ff ff ff 	movb   $0xff,-0x149b(%rbp)
    d5c2:	48 8d 85 18 ee ff ff 	lea    -0x11e8(%rbp),%rax
    d5c9:	48 89 85 10 ed ff ff 	mov    %rax,-0x12f0(%rbp)
    d5d0:	48 8d 05 51 e1 00 00 	lea    0xe151(%rip),%rax        # 1b728 <g_159>
    d5d7:	48 89 85 18 ed ff ff 	mov    %rax,-0x12e8(%rbp)
    d5de:	48 8d 05 c3 e3 00 00 	lea    0xe3c3(%rip),%rax        # 1b9a8 <g_673>
    d5e5:	48 89 85 00 f7 ff ff 	mov    %rax,-0x900(%rbp)
    d5ec:	48 8d 05 b5 e3 00 00 	lea    0xe3b5(%rip),%rax        # 1b9a8 <g_673>
    d5f3:	48 89 85 08 f7 ff ff 	mov    %rax,-0x8f8(%rbp)
    d5fa:	48 8d 05 a7 e3 00 00 	lea    0xe3a7(%rip),%rax        # 1b9a8 <g_673>
    d601:	48 89 85 10 f7 ff ff 	mov    %rax,-0x8f0(%rbp)
    d608:	48 8d 05 99 e3 00 00 	lea    0xe399(%rip),%rax        # 1b9a8 <g_673>
    d60f:	48 89 85 18 f7 ff ff 	mov    %rax,-0x8e8(%rbp)
    d616:	48 8d 05 8b e3 00 00 	lea    0xe38b(%rip),%rax        # 1b9a8 <g_673>
    d61d:	48 89 85 20 f7 ff ff 	mov    %rax,-0x8e0(%rbp)
    d624:	48 8d 05 7d e3 00 00 	lea    0xe37d(%rip),%rax        # 1b9a8 <g_673>
    d62b:	48 89 85 28 f7 ff ff 	mov    %rax,-0x8d8(%rbp)
    d632:	48 8d 05 6f e3 00 00 	lea    0xe36f(%rip),%rax        # 1b9a8 <g_673>
    d639:	48 89 85 30 f7 ff ff 	mov    %rax,-0x8d0(%rbp)
    d640:	48 8d 05 61 e3 00 00 	lea    0xe361(%rip),%rax        # 1b9a8 <g_673>
    d647:	48 89 85 38 f7 ff ff 	mov    %rax,-0x8c8(%rbp)
    d64e:	48 8d 05 53 e3 00 00 	lea    0xe353(%rip),%rax        # 1b9a8 <g_673>
    d655:	48 89 85 40 f7 ff ff 	mov    %rax,-0x8c0(%rbp)
    d65c:	48 8d 05 45 e3 00 00 	lea    0xe345(%rip),%rax        # 1b9a8 <g_673>
    d663:	48 89 85 48 f7 ff ff 	mov    %rax,-0x8b8(%rbp)
    d66a:	48 8d 05 37 e3 00 00 	lea    0xe337(%rip),%rax        # 1b9a8 <g_673>
    d671:	48 89 85 50 f7 ff ff 	mov    %rax,-0x8b0(%rbp)
    d678:	48 8d 05 29 e3 00 00 	lea    0xe329(%rip),%rax        # 1b9a8 <g_673>
    d67f:	48 89 85 58 f7 ff ff 	mov    %rax,-0x8a8(%rbp)
    d686:	48 c7 85 60 f7 ff ff 	movq   $0x0,-0x8a0(%rbp)
    d68d:	00 00 00 00 
    d691:	48 8d 05 10 e3 00 00 	lea    0xe310(%rip),%rax        # 1b9a8 <g_673>
    d698:	48 89 85 68 f7 ff ff 	mov    %rax,-0x898(%rbp)
    d69f:	48 8d 05 02 e3 00 00 	lea    0xe302(%rip),%rax        # 1b9a8 <g_673>
    d6a6:	48 89 85 70 f7 ff ff 	mov    %rax,-0x890(%rbp)
    d6ad:	48 8d 05 f4 e2 00 00 	lea    0xe2f4(%rip),%rax        # 1b9a8 <g_673>
    d6b4:	48 89 85 78 f7 ff ff 	mov    %rax,-0x888(%rbp)
    d6bb:	48 8d 05 e6 e2 00 00 	lea    0xe2e6(%rip),%rax        # 1b9a8 <g_673>
    d6c2:	48 89 85 80 f7 ff ff 	mov    %rax,-0x880(%rbp)
    d6c9:	48 8d 05 d8 e2 00 00 	lea    0xe2d8(%rip),%rax        # 1b9a8 <g_673>
    d6d0:	48 89 85 88 f7 ff ff 	mov    %rax,-0x878(%rbp)
    d6d7:	48 8d 05 ca e2 00 00 	lea    0xe2ca(%rip),%rax        # 1b9a8 <g_673>
    d6de:	48 89 85 90 f7 ff ff 	mov    %rax,-0x870(%rbp)
    d6e5:	48 8d 05 bc e2 00 00 	lea    0xe2bc(%rip),%rax        # 1b9a8 <g_673>
    d6ec:	48 89 85 98 f7 ff ff 	mov    %rax,-0x868(%rbp)
    d6f3:	48 8d 05 ae e2 00 00 	lea    0xe2ae(%rip),%rax        # 1b9a8 <g_673>
    d6fa:	48 89 85 a0 f7 ff ff 	mov    %rax,-0x860(%rbp)
    d701:	48 8d 05 a0 e2 00 00 	lea    0xe2a0(%rip),%rax        # 1b9a8 <g_673>
    d708:	48 89 85 a8 f7 ff ff 	mov    %rax,-0x858(%rbp)
    d70f:	48 8d 05 92 e2 00 00 	lea    0xe292(%rip),%rax        # 1b9a8 <g_673>
    d716:	48 89 85 b0 f7 ff ff 	mov    %rax,-0x850(%rbp)
    d71d:	48 8d 05 84 e2 00 00 	lea    0xe284(%rip),%rax        # 1b9a8 <g_673>
    d724:	48 89 85 b8 f7 ff ff 	mov    %rax,-0x848(%rbp)
    d72b:	48 8d 05 76 e2 00 00 	lea    0xe276(%rip),%rax        # 1b9a8 <g_673>
    d732:	48 89 85 c0 f7 ff ff 	mov    %rax,-0x840(%rbp)
    d739:	48 8d 05 68 e2 00 00 	lea    0xe268(%rip),%rax        # 1b9a8 <g_673>
    d740:	48 89 85 c8 f7 ff ff 	mov    %rax,-0x838(%rbp)
    d747:	48 8d 05 5a e2 00 00 	lea    0xe25a(%rip),%rax        # 1b9a8 <g_673>
    d74e:	48 89 85 d0 f7 ff ff 	mov    %rax,-0x830(%rbp)
    d755:	48 c7 85 d8 f7 ff ff 	movq   $0x0,-0x828(%rbp)
    d75c:	00 00 00 00 
    d760:	48 8d 05 41 e2 00 00 	lea    0xe241(%rip),%rax        # 1b9a8 <g_673>
    d767:	48 89 85 e0 f7 ff ff 	mov    %rax,-0x820(%rbp)
    d76e:	48 8d 05 33 e2 00 00 	lea    0xe233(%rip),%rax        # 1b9a8 <g_673>
    d775:	48 89 85 e8 f7 ff ff 	mov    %rax,-0x818(%rbp)
    d77c:	48 c7 85 20 ed ff ff 	movq   $0x0,-0x12e0(%rbp)
    d783:	00 00 00 00 
    d787:	66 c7 85 74 eb ff ff 	movw   $0x1,-0x148c(%rbp)
    d78e:	01 00 
    d790:	c7 85 b8 eb ff ff 00 	movl   $0x0,-0x1448(%rbp)
    d797:	00 00 00 
    d79a:	eb 1a                	jmp    d7b6 <func_33+0x2d8c>
    d79c:	8b 85 b8 eb ff ff    	mov    -0x1448(%rbp),%eax
    d7a2:	48 98                	cltq   
    d7a4:	c7 84 85 34 ee ff ff 	movl   $0xea51459,-0x11cc(%rbp,%rax,4)
    d7ab:	59 14 a5 0e 
    d7af:	83 85 b8 eb ff ff 01 	addl   $0x1,-0x1448(%rbp)
    d7b6:	83 bd b8 eb ff ff 02 	cmpl   $0x2,-0x1448(%rbp)
    d7bd:	7e dd                	jle    d79c <func_33+0x2d72>
    d7bf:	c7 05 57 c9 00 00 00 	movl   $0x0,0xc957(%rip)        # 1a120 <g_244>
    d7c6:	00 00 00 
    d7c9:	e9 fd 00 00 00       	jmpq   d8cb <func_33+0x2ea1>
    d7ce:	66 c7 85 6c eb ff ff 	movw   $0xa837,-0x1494(%rbp)
    d7d5:	37 a8 
    d7d7:	c7 05 c7 cb 00 00 00 	movl   $0x0,0xcbc7(%rip)        # 1a3a8 <g_1342>
    d7de:	00 00 00 
    d7e1:	e9 b8 00 00 00       	jmpq   d89e <func_33+0x2e74>
    d7e6:	c7 85 24 ec ff ff bd 	movl   $0x4686ecbd,-0x13dc(%rbp)
    d7ed:	ec 86 46 
    d7f0:	c7 85 28 ec ff ff 8e 	movl   $0x4598078e,-0x13d8(%rbp)
    d7f7:	07 98 45 
    d7fa:	48 c7 85 58 ed ff ff 	movq   $0x0,-0x12a8(%rbp)
    d801:	00 00 00 00 
    d805:	48 8d 05 ac c8 00 00 	lea    0xc8ac(%rip),%rax        # 1a0b8 <g_86+0x8>
    d80c:	48 89 85 b0 fb ff ff 	mov    %rax,-0x450(%rbp)
    d813:	48 8d 05 9e c8 00 00 	lea    0xc89e(%rip),%rax        # 1a0b8 <g_86+0x8>
    d81a:	48 89 85 b8 fb ff ff 	mov    %rax,-0x448(%rbp)
    d821:	48 8d 05 90 c8 00 00 	lea    0xc890(%rip),%rax        # 1a0b8 <g_86+0x8>
    d828:	48 89 85 c0 fb ff ff 	mov    %rax,-0x440(%rbp)
    d82f:	48 8d 05 82 c8 00 00 	lea    0xc882(%rip),%rax        # 1a0b8 <g_86+0x8>
    d836:	48 89 85 c8 fb ff ff 	mov    %rax,-0x438(%rbp)
    d83d:	48 8d 05 74 c8 00 00 	lea    0xc874(%rip),%rax        # 1a0b8 <g_86+0x8>
    d844:	48 89 85 d0 fb ff ff 	mov    %rax,-0x430(%rbp)
    d84b:	48 8d 05 66 c8 00 00 	lea    0xc866(%rip),%rax        # 1a0b8 <g_86+0x8>
    d852:	48 89 85 d8 fb ff ff 	mov    %rax,-0x428(%rbp)
    d859:	66 83 8d 6c eb ff ff 	orw    $0x1,-0x1494(%rbp)
    d860:	01 
    d861:	0f b7 85 6c eb ff ff 	movzwl -0x1494(%rbp),%eax
    d868:	8b 15 52 c8 00 00    	mov    0xc852(%rip),%edx        # 1a0c0 <g_86+0x10>
    d86e:	98                   	cwtl   
    d86f:	09 d0                	or     %edx,%eax
    d871:	89 05 49 c8 00 00    	mov    %eax,0xc849(%rip)        # 1a0c0 <g_86+0x10>
    d877:	48 8b 85 58 eb ff ff 	mov    -0x14a8(%rbp),%rax
    d87e:	8b 00                	mov    (%rax),%eax
    d880:	85 c0                	test   %eax,%eax
    d882:	75 2b                	jne    d8af <func_33+0x2e85>
    d884:	8b 05 1e cb 00 00    	mov    0xcb1e(%rip),%eax        # 1a3a8 <g_1342>
    d88a:	98                   	cwtl   
    d88b:	be 05 00 00 00       	mov    $0x5,%esi
    d890:	89 c7                	mov    %eax,%edi
    d892:	e8 1c 8b ff ff       	callq  63b3 <safe_add_func_int16_t_s_s>
    d897:	98                   	cwtl   
    d898:	89 05 0a cb 00 00    	mov    %eax,0xcb0a(%rip)        # 1a3a8 <g_1342>
    d89e:	8b 05 04 cb 00 00    	mov    0xcb04(%rip),%eax        # 1a3a8 <g_1342>
    d8a4:	83 f8 36             	cmp    $0x36,%eax
    d8a7:	0f 86 39 ff ff ff    	jbe    d7e6 <func_33+0x2dbc>
    d8ad:	eb 01                	jmp    d8b0 <func_33+0x2e86>
    d8af:	90                   	nop
    d8b0:	8b 85 d8 eb ff ff    	mov    -0x1428(%rbp),%eax
    d8b6:	89 85 60 ee ff ff    	mov    %eax,-0x11a0(%rbp)
    d8bc:	8b 05 5e c8 00 00    	mov    0xc85e(%rip),%eax        # 1a120 <g_244>
    d8c2:	83 c0 01             	add    $0x1,%eax
    d8c5:	89 05 55 c8 00 00    	mov    %eax,0xc855(%rip)        # 1a120 <g_244>
    d8cb:	8b 05 4f c8 00 00    	mov    0xc84f(%rip),%eax        # 1a120 <g_244>
    d8d1:	83 f8 17             	cmp    $0x17,%eax
    d8d4:	0f 85 f4 fe ff ff    	jne    d7ce <func_33+0x2da4>
    d8da:	c7 05 38 c8 00 00 06 	movl   $0x6,0xc838(%rip)        # 1a11c <g_235>
    d8e1:	00 00 00 
    d8e4:	e9 5e 02 00 00       	jmpq   db47 <func_33+0x311d>
    d8e9:	48 b8 9b 47 d1 2a 1a 	movabs $0x1f66911a2ad1479b,%rax
    d8f0:	91 66 1f 
    d8f3:	48 89 85 28 ed ff ff 	mov    %rax,-0x12d8(%rbp)
    d8fa:	c7 85 f0 eb ff ff 6f 	movl   $0x14dd5c6f,-0x1410(%rbp)
    d901:	5c dd 14 
    d904:	c7 85 f4 eb ff ff ff 	movl   $0xffffffff,-0x140c(%rbp)
    d90b:	ff ff ff 
    d90e:	c7 85 f8 eb ff ff 01 	movl   $0x1,-0x1408(%rbp)
    d915:	00 00 00 
    d918:	48 8d 05 8d c7 00 00 	lea    0xc78d(%rip),%rax        # 1a0ac <g_77>
    d91f:	48 89 85 20 ef ff ff 	mov    %rax,-0x10e0(%rbp)
    d926:	48 c7 85 28 ef ff ff 	movq   $0x0,-0x10d8(%rbp)
    d92d:	00 00 00 00 
    d931:	48 8d 05 74 c7 00 00 	lea    0xc774(%rip),%rax        # 1a0ac <g_77>
    d938:	48 89 85 30 ef ff ff 	mov    %rax,-0x10d0(%rbp)
    d93f:	48 8d 05 66 c7 00 00 	lea    0xc766(%rip),%rax        # 1a0ac <g_77>
    d946:	48 89 85 38 ef ff ff 	mov    %rax,-0x10c8(%rbp)
    d94d:	48 c7 85 40 ef ff ff 	movq   $0x0,-0x10c0(%rbp)
    d954:	00 00 00 00 
    d958:	48 8d 05 4d c7 00 00 	lea    0xc74d(%rip),%rax        # 1a0ac <g_77>
    d95f:	48 89 85 48 ef ff ff 	mov    %rax,-0x10b8(%rbp)
    d966:	48 8d 05 3f c7 00 00 	lea    0xc73f(%rip),%rax        # 1a0ac <g_77>
    d96d:	48 89 85 50 ef ff ff 	mov    %rax,-0x10b0(%rbp)
    d974:	48 8d 85 40 ec ff ff 	lea    -0x13c0(%rbp),%rax
    d97b:	48 89 85 30 ed ff ff 	mov    %rax,-0x12d0(%rbp)
    d982:	c7 85 fc eb ff ff c6 	movl   $0x59d437c6,-0x1404(%rbp)
    d989:	37 d4 59 
    d98c:	c7 85 00 ec ff ff 7c 	movl   $0xfcf9097c,-0x1400(%rbp)
    d993:	09 f9 fc 
    d996:	c7 85 04 ec ff ff 01 	movl   $0x1,-0x13fc(%rbp)
    d99d:	00 00 00 
    d9a0:	c7 85 08 ec ff ff 69 	movl   $0xd13eef69,-0x13f8(%rbp)
    d9a7:	ef 3e d1 
    d9aa:	c7 85 0c ec ff ff 03 	movl   $0x3,-0x13f4(%rbp)
    d9b1:	00 00 00 
    d9b4:	66 c7 85 76 eb ff ff 	movw   $0x2be8,-0x148a(%rbp)
    d9bb:	e8 2b 
    d9bd:	c7 85 10 ec ff ff eb 	movl   $0x9cbc90eb,-0x13f0(%rbp)
    d9c4:	90 bc 9c 
    d9c7:	c7 85 14 ec ff ff a7 	movl   $0xc9ee50a7,-0x13ec(%rbp)
    d9ce:	50 ee c9 
    d9d1:	c7 85 18 ec ff ff d3 	movl   $0xbb43b3d3,-0x13e8(%rbp)
    d9d8:	b3 43 bb 
    d9db:	48 8d 85 b0 fb ff ff 	lea    -0x450(%rbp),%rax
    d9e2:	48 8d 15 57 89 00 00 	lea    0x8957(%rip),%rdx        # 16340 <g_1428+0x12eb>
    d9e9:	b9 28 00 00 00       	mov    $0x28,%ecx
    d9ee:	48 89 c7             	mov    %rax,%rdi
    d9f1:	48 89 d6             	mov    %rdx,%rsi
    d9f4:	f3 48 a5             	rep movsq %ds:(%rsi),%es:(%rdi)
    d9f7:	66 c7 85 78 eb ff ff 	movw   $0xfff9,-0x1488(%rbp)
    d9fe:	f9 ff 
    da00:	c7 85 1c ec ff ff ff 	movl   $0xffffffff,-0x13e4(%rbp)
    da07:	ff ff ff 
    da0a:	48 8d 05 c7 c9 00 00 	lea    0xc9c7(%rip),%rax        # 1a3d8 <g_1727>
    da11:	48 89 85 38 ed ff ff 	mov    %rax,-0x12c8(%rbp)
    da18:	48 8d 85 60 ec ff ff 	lea    -0x13a0(%rbp),%rax
    da1f:	48 89 85 40 ed ff ff 	mov    %rax,-0x12c0(%rbp)
    da26:	c7 85 20 ec ff ff 47 	movl   $0xac626e47,-0x13e0(%rbp)
    da2d:	6e 62 ac 
    da30:	48 8d 85 8c eb ff ff 	lea    -0x1474(%rbp),%rax
    da37:	48 89 85 48 ed ff ff 	mov    %rax,-0x12b8(%rbp)
    da3e:	48 8d 85 20 ee ff ff 	lea    -0x11e0(%rbp),%rax
    da45:	48 89 85 50 ed ff ff 	mov    %rax,-0x12b0(%rbp)
    da4c:	c7 85 bc eb ff ff 00 	movl   $0x0,-0x1444(%rbp)
    da53:	00 00 00 
    da56:	eb 1e                	jmp    da76 <func_33+0x304c>
    da58:	8b 85 bc eb ff ff    	mov    -0x1444(%rbp),%eax
    da5e:	48 98                	cltq   
    da60:	48 8d 15 c9 c8 00 00 	lea    0xc8c9(%rip),%rdx        # 1a330 <g_397>
    da67:	48 89 94 c5 80 ee ff 	mov    %rdx,-0x1180(%rbp,%rax,8)
    da6e:	ff 
    da6f:	83 85 bc eb ff ff 01 	addl   $0x1,-0x1444(%rbp)
    da76:	83 bd bc eb ff ff 02 	cmpl   $0x2,-0x1444(%rbp)
    da7d:	7e d9                	jle    da58 <func_33+0x302e>
    da7f:	c7 85 bc eb ff ff 00 	movl   $0x0,-0x1444(%rbp)
    da86:	00 00 00 
    da89:	eb 1e                	jmp    daa9 <func_33+0x307f>
    da8b:	8b 85 bc eb ff ff    	mov    -0x1444(%rbp),%eax
    da91:	48 98                	cltq   
    da93:	48 8d 15 f6 ec 00 00 	lea    0xecf6(%rip),%rdx        # 1c790 <g_812>
    da9a:	48 89 94 c5 f0 ee ff 	mov    %rdx,-0x1110(%rbp,%rax,8)
    daa1:	ff 
    daa2:	83 85 bc eb ff ff 01 	addl   $0x1,-0x1444(%rbp)
    daa9:	83 bd bc eb ff ff 04 	cmpl   $0x4,-0x1444(%rbp)
    dab0:	7e d9                	jle    da8b <func_33+0x3061>
    dab2:	c7 85 bc eb ff ff 00 	movl   $0x0,-0x1444(%rbp)
    dab9:	00 00 00 
    dabc:	eb 1a                	jmp    dad8 <func_33+0x30ae>
    dabe:	8b 85 bc eb ff ff    	mov    -0x1444(%rbp),%eax
    dac4:	48 98                	cltq   
    dac6:	c7 84 85 a0 ee ff ff 	movl   $0x5bb4bbf,-0x1160(%rbp,%rax,4)
    dacd:	bf 4b bb 05 
    dad1:	83 85 bc eb ff ff 01 	addl   $0x1,-0x1444(%rbp)
    dad8:	83 bd bc eb ff ff 06 	cmpl   $0x6,-0x1444(%rbp)
    dadf:	7e dd                	jle    dabe <func_33+0x3094>
    dae1:	c7 85 bc eb ff ff 00 	movl   $0x0,-0x1444(%rbp)
    dae8:	00 00 00 
    daeb:	eb 19                	jmp    db06 <func_33+0x30dc>
    daed:	8b 85 bc eb ff ff    	mov    -0x1444(%rbp),%eax
    daf3:	48 98                	cltq   
    daf5:	66 c7 84 45 14 ee ff 	movw   $0x7,-0x11ec(%rbp,%rax,2)
    dafc:	ff 07 00 
    daff:	83 85 bc eb ff ff 01 	addl   $0x1,-0x1444(%rbp)
    db06:	83 bd bc eb ff ff 01 	cmpl   $0x1,-0x1444(%rbp)
    db0d:	7e de                	jle    daed <func_33+0x30c3>
    db0f:	c7 85 bc eb ff ff 00 	movl   $0x0,-0x1444(%rbp)
    db16:	00 00 00 
    db19:	eb 14                	jmp    db2f <func_33+0x3105>
    db1b:	8b 85 bc eb ff ff    	mov    -0x1444(%rbp),%eax
    db21:	48 98                	cltq   
    db23:	c6 44 05 bf c0       	movb   $0xc0,-0x41(%rbp,%rax,1)
    db28:	83 85 bc eb ff ff 01 	addl   $0x1,-0x1444(%rbp)
    db2f:	83 bd bc eb ff ff 08 	cmpl   $0x8,-0x1444(%rbp)
    db36:	7e e3                	jle    db1b <func_33+0x30f1>
    db38:	8b 05 de c5 00 00    	mov    0xc5de(%rip),%eax        # 1a11c <g_235>
    db3e:	83 c0 01             	add    $0x1,%eax
    db41:	89 05 d5 c5 00 00    	mov    %eax,0xc5d5(%rip)        # 1a11c <g_235>
    db47:	8b 05 cf c5 00 00    	mov    0xc5cf(%rip),%eax        # 1a11c <g_235>
    db4d:	83 f8 25             	cmp    $0x25,%eax
    db50:	0f 85 93 fd ff ff    	jne    d8e9 <func_33+0x2ebf>
    db56:	48 8b 85 58 eb ff ff 	mov    -0x14a8(%rbp),%rax
    db5d:	8b 10                	mov    (%rax),%edx
    db5f:	0f b6 85 50 eb ff ff 	movzbl -0x14b0(%rbp),%eax
    db66:	0f b6 c8             	movzbl %al,%ecx
    db69:	0f bf 85 74 eb ff ff 	movswl -0x148c(%rbp),%eax
    db70:	09 c1                	or     %eax,%ecx
    db72:	8b 85 54 eb ff ff    	mov    -0x14ac(%rbp),%eax
    db78:	39 c1                	cmp    %eax,%ecx
    db7a:	0f 9f c0             	setg   %al
    db7d:	0f b6 c0             	movzbl %al,%eax
    db80:	89 d6                	mov    %edx,%esi
    db82:	89 c7                	mov    %eax,%edi
    db84:	e8 43 8b ff ff       	callq  66cc <safe_mod_func_int32_t_s_s>
    db89:	ba 01 00 00 00       	mov    $0x1,%edx
    db8e:	8b 05 24 c5 00 00    	mov    0xc524(%rip),%eax        # 1a0b8 <g_86+0x8>
    db94:	21 d0                	and    %edx,%eax
    db96:	89 05 1c c5 00 00    	mov    %eax,0xc51c(%rip)        # 1a0b8 <g_86+0x8>
    db9c:	48 8b 85 b8 ec ff ff 	mov    -0x1348(%rbp),%rax
    dba3:	48 8b 5d c8          	mov    -0x38(%rbp),%rbx
    dba7:	64 48 33 1c 25 28 00 	xor    %fs:0x28,%rbx
    dbae:	00 00 
    dbb0:	74 05                	je     dbb7 <func_33+0x318d>
    dbb2:	e8 b9 84 ff ff       	callq  6070 <__stack_chk_fail@plt>
    dbb7:	48 81 c4 b8 14 00 00 	add    $0x14b8,%rsp
    dbbe:	5b                   	pop    %rbx
    dbbf:	41 5c                	pop    %r12
    dbc1:	41 5d                	pop    %r13
    dbc3:	41 5e                	pop    %r14
    dbc5:	41 5f                	pop    %r15
    dbc7:	5d                   	pop    %rbp
    dbc8:	c3                   	retq   

000000000000dbc9 <func_38>:
    dbc9:	f3 0f 1e fa          	endbr64 
    dbcd:	55                   	push   %rbp
    dbce:	48 89 e5             	mov    %rsp,%rbp
    dbd1:	41 57                	push   %r15
    dbd3:	41 56                	push   %r14
    dbd5:	41 55                	push   %r13
    dbd7:	41 54                	push   %r12
    dbd9:	53                   	push   %rbx
    dbda:	48 81 ec 00 10 00 00 	sub    $0x1000,%rsp
    dbe1:	48 83 0c 24 00       	orq    $0x0,(%rsp)
    dbe6:	48 81 ec b8 01 00 00 	sub    $0x1b8,%rsp
    dbed:	48 89 bd 48 ee ff ff 	mov    %rdi,-0x11b8(%rbp)
    dbf4:	48 89 b5 40 ee ff ff 	mov    %rsi,-0x11c0(%rbp)
    dbfb:	89 95 3c ee ff ff    	mov    %edx,-0x11c4(%rbp)
    dc01:	89 8d 38 ee ff ff    	mov    %ecx,-0x11c8(%rbp)
    dc07:	64 48 8b 04 25 28 00 	mov    %fs:0x28,%rax
    dc0e:	00 00 
    dc10:	48 89 45 c8          	mov    %rax,-0x38(%rbp)
    dc14:	31 c0                	xor    %eax,%eax
    dc16:	48 c7 85 28 ef ff ff 	movq   $0x0,-0x10d8(%rbp)
    dc1d:	00 00 00 00 
    dc21:	c7 85 64 ee ff ff 9e 	movl   $0xb22e1c9e,-0x119c(%rbp)
    dc28:	1c 2e b2 
    dc2b:	48 8d 05 f6 c6 00 00 	lea    0xc6f6(%rip),%rax        # 1a328 <g_395>
    dc32:	48 89 85 f0 ef ff ff 	mov    %rax,-0x1010(%rbp)
    dc39:	48 8d 05 f0 c6 00 00 	lea    0xc6f0(%rip),%rax        # 1a330 <g_397>
    dc40:	48 89 85 30 ef ff ff 	mov    %rax,-0x10d0(%rbp)
    dc47:	48 8d 05 fa da 00 00 	lea    0xdafa(%rip),%rax        # 1b748 <g_321>
    dc4e:	48 89 85 f8 ef ff ff 	mov    %rax,-0x1008(%rbp)
    dc55:	c7 85 68 ee ff ff 77 	movl   $0xf6dcba77,-0x1198(%rbp)
    dc5c:	ba dc f6 
    dc5f:	c7 85 6c ee ff ff 23 	movl   $0x2c09c723,-0x1194(%rbp)
    dc66:	c7 09 2c 
    dc69:	c7 85 a0 f1 ff ff 46 	movl   $0xa4574346,-0xe60(%rbp)
    dc70:	43 57 a4 
    dc73:	c7 85 a4 f1 ff ff 46 	movl   $0xa4574346,-0xe5c(%rbp)
    dc7a:	43 57 a4 
    dc7d:	c7 85 a8 f1 ff ff 46 	movl   $0xa4574346,-0xe58(%rbp)
    dc84:	43 57 a4 
    dc87:	c7 85 ac f1 ff ff 46 	movl   $0xa4574346,-0xe54(%rbp)
    dc8e:	43 57 a4 
    dc91:	c7 85 b0 f1 ff ff 46 	movl   $0xa4574346,-0xe50(%rbp)
    dc98:	43 57 a4 
    dc9b:	c7 85 b4 f1 ff ff 46 	movl   $0xa4574346,-0xe4c(%rbp)
    dca2:	43 57 a4 
    dca5:	c7 85 b8 f1 ff ff 46 	movl   $0xa4574346,-0xe48(%rbp)
    dcac:	43 57 a4 
    dcaf:	c7 85 bc f1 ff ff 46 	movl   $0xa4574346,-0xe44(%rbp)
    dcb6:	43 57 a4 
    dcb9:	c7 85 c0 f1 ff ff 46 	movl   $0xa4574346,-0xe40(%rbp)
    dcc0:	43 57 a4 
    dcc3:	48 c7 85 00 f0 ff ff 	movq   $0x0,-0x1000(%rbp)
    dcca:	00 00 00 00 
    dcce:	48 8d 05 0b c4 00 00 	lea    0xc40b(%rip),%rax        # 1a0e0 <g_171>
    dcd5:	48 89 85 38 ef ff ff 	mov    %rax,-0x10c8(%rbp)
    dcdc:	48 8d 85 38 ef ff ff 	lea    -0x10c8(%rbp),%rax
    dce3:	48 89 85 08 f0 ff ff 	mov    %rax,-0xff8(%rbp)
    dcea:	48 c7 85 40 ef ff ff 	movq   $0x0,-0x10c0(%rbp)
    dcf1:	00 00 00 00 
    dcf5:	48 8d 85 64 ee ff ff 	lea    -0x119c(%rbp),%rax
    dcfc:	48 89 85 48 ef ff ff 	mov    %rax,-0x10b8(%rbp)
    dd03:	48 b8 2b 4f 19 a5 2e 	movabs $0x1383812ea5194f2b,%rax
    dd0a:	81 83 13 
    dd0d:	48 89 85 10 f0 ff ff 	mov    %rax,-0xff0(%rbp)
    dd14:	c7 85 70 ee ff ff f8 	movl   $0xfffffff8,-0x1190(%rbp)
    dd1b:	ff ff ff 
    dd1e:	48 c7 85 18 f0 ff ff 	movq   $0x0,-0xfe8(%rbp)
    dd25:	00 00 00 00 
    dd29:	48 8d 05 f8 d9 00 00 	lea    0xd9f8(%rip),%rax        # 1b728 <g_159>
    dd30:	48 89 85 50 ef ff ff 	mov    %rax,-0x10b0(%rbp)
    dd37:	48 8d 85 50 ef ff ff 	lea    -0x10b0(%rbp),%rax
    dd3e:	48 89 85 e8 ef ff ff 	mov    %rax,-0x1018(%rbp)
    dd45:	c7 85 ac ee ff ff f7 	movl   $0xbdf1b8f7,-0x1154(%rbp)
    dd4c:	b8 f1 bd 
    dd4f:	c7 85 b0 ee ff ff 00 	movl   $0x0,-0x1150(%rbp)
    dd56:	00 00 00 
    dd59:	eb 1e                	jmp    dd79 <func_38+0x1b0>
    dd5b:	8b 85 b0 ee ff ff    	mov    -0x1150(%rbp),%eax
    dd61:	48 98                	cltq   
    dd63:	48 8d 15 5e c3 00 00 	lea    0xc35e(%rip),%rdx        # 1a0c8 <g_152>
    dd6a:	48 89 94 c5 78 f1 ff 	mov    %rdx,-0xe88(%rbp,%rax,8)
    dd71:	ff 
    dd72:	83 85 b0 ee ff ff 01 	addl   $0x1,-0x1150(%rbp)
    dd79:	83 bd b0 ee ff ff 00 	cmpl   $0x0,-0x1150(%rbp)
    dd80:	7e d9                	jle    dd5b <func_38+0x192>
    dd82:	90                   	nop
    dd83:	c7 05 1b c3 00 00 ef 	movl   $0xffffffef,0xc31b(%rip)        # 1a0a8 <g_60>
    dd8a:	ff ff ff 
    dd8d:	e9 a5 01 00 00       	jmpq   df37 <func_38+0x36e>
    dd92:	48 8d 85 28 ef ff ff 	lea    -0x10d8(%rbp),%rax
    dd99:	48 89 85 58 f1 ff ff 	mov    %rax,-0xea8(%rbp)
    dda0:	48 8d 05 11 c3 00 00 	lea    0xc311(%rip),%rax        # 1a0b8 <g_86+0x8>
    dda7:	48 89 85 60 f1 ff ff 	mov    %rax,-0xea0(%rbp)
    ddae:	48 c7 85 68 f1 ff ff 	movq   $0x1,-0xe98(%rbp)
    ddb5:	01 00 00 00 
    ddb9:	48 8b 95 28 ef ff ff 	mov    -0x10d8(%rbp),%rdx
    ddc0:	48 8b 85 58 f1 ff ff 	mov    -0xea8(%rbp),%rax
    ddc7:	48 89 10             	mov    %rdx,(%rax)
    ddca:	c7 05 48 c3 00 00 00 	movl   $0x0,0xc348(%rip)        # 1a11c <g_235>
    ddd1:	00 00 00 
    ddd4:	90                   	nop
    ddd5:	8b 05 41 c3 00 00    	mov    0xc341(%rip),%eax        # 1a11c <g_235>
    dddb:	83 f8 1f             	cmp    $0x1f,%eax
    ddde:	76 17                	jbe    ddf7 <func_38+0x22e>
    dde0:	48 c7 85 70 f1 ff ff 	movq   $0x0,-0xe90(%rbp)
    dde7:	00 00 00 00 
    ddeb:	48 8b 85 70 f1 ff ff 	mov    -0xe90(%rbp),%rax
    ddf2:	e9 77 3b 00 00       	jmpq   1196e <func_38+0x3da5>
    ddf7:	48 8b 85 60 f1 ff ff 	mov    -0xea0(%rbp),%rax
    ddfe:	8b 00                	mov    (%rax),%eax
    de00:	83 f0 01             	xor    $0x1,%eax
    de03:	89 c2                	mov    %eax,%edx
    de05:	48 8b 85 60 f1 ff ff 	mov    -0xea0(%rbp),%rax
    de0c:	89 10                	mov    %edx,(%rax)
    de0e:	8b 05 c4 c3 00 00    	mov    0xc3c4(%rip),%eax        # 1a1d8 <g_248+0x98>
    de14:	41 89 c6             	mov    %eax,%r14d
    de17:	48 8b 85 40 ee ff ff 	mov    -0x11c0(%rbp),%rax
    de1e:	0f b7 d8             	movzwl %ax,%ebx
    de21:	48 8d 85 28 ef ff ff 	lea    -0x10d8(%rbp),%rax
    de28:	48 39 85 58 f1 ff ff 	cmp    %rax,-0xea8(%rbp)
    de2f:	75 0a                	jne    de3b <func_38+0x272>
    de31:	48 83 bd 40 ee ff ff 	cmpq   $0x0,-0x11c0(%rbp)
    de38:	00 
    de39:	74 07                	je     de42 <func_38+0x279>
    de3b:	ba 01 00 00 00       	mov    $0x1,%edx
    de40:	eb 05                	jmp    de47 <func_38+0x27e>
    de42:	ba 00 00 00 00       	mov    $0x0,%edx
    de47:	8b 85 64 ee ff ff    	mov    -0x119c(%rbp),%eax
    de4d:	39 c2                	cmp    %eax,%edx
    de4f:	41 0f 9e c5          	setle  %r13b
    de53:	44 8b a5 3c ee ff ff 	mov    -0x11c4(%rbp),%r12d
    de5a:	8b 85 64 ee ff ff    	mov    -0x119c(%rbp),%eax
    de60:	0f b6 c0             	movzbl %al,%eax
    de63:	be 07 00 00 00       	mov    $0x7,%esi
    de68:	89 c7                	mov    %eax,%edi
    de6a:	e8 dd 8d ff ff       	callq  6c4c <safe_lshift_func_uint8_t_u_u>
    de6f:	44 89 e6             	mov    %r12d,%esi
    de72:	bf 01 00 00 00       	mov    $0x1,%edi
    de77:	e8 16 86 ff ff       	callq  6492 <safe_lshift_func_int16_t_s_s>
    de7c:	66 85 c0             	test   %ax,%ax
    de7f:	74 07                	je     de88 <func_38+0x2bf>
    de81:	b8 01 00 00 00       	mov    $0x1,%eax
    de86:	eb 05                	jmp    de8d <func_38+0x2c4>
    de88:	b8 00 00 00 00       	mov    $0x0,%eax
    de8d:	83 e0 01             	and    $0x1,%eax
    de90:	44 21 e8             	and    %r13d,%eax
    de93:	0f b6 c0             	movzbl %al,%eax
    de96:	89 de                	mov    %ebx,%esi
    de98:	89 c7                	mov    %eax,%edi
    de9a:	e8 9e 8e ff ff       	callq  6d3d <safe_mul_func_uint16_t_u_u>
    de9f:	66 85 c0             	test   %ax,%ax
    dea2:	75 0a                	jne    deae <func_38+0x2e5>
    dea4:	8b 85 64 ee ff ff    	mov    -0x119c(%rbp),%eax
    deaa:	85 c0                	test   %eax,%eax
    deac:	74 07                	je     deb5 <func_38+0x2ec>
    deae:	b8 01 00 00 00       	mov    $0x1,%eax
    deb3:	eb 05                	jmp    deba <func_38+0x2f1>
    deb5:	b8 00 00 00 00       	mov    $0x0,%eax
    deba:	0f b6 c0             	movzbl %al,%eax
    debd:	44 89 f6             	mov    %r14d,%esi
    dec0:	89 c7                	mov    %eax,%edi
    dec2:	e8 3e 8d ff ff       	callq  6c05 <safe_lshift_func_uint8_t_u_s>
    dec7:	0f b6 c0             	movzbl %al,%eax
    deca:	be 06 00 00 00       	mov    $0x6,%esi
    decf:	89 c7                	mov    %eax,%edi
    ded1:	e8 e8 8e ff ff       	callq  6dbe <safe_lshift_func_uint16_t_u_s>
    ded6:	0f b7 c0             	movzwl %ax,%eax
    ded9:	48 be fb bd 97 93 1f 	movabs $0xf954ff1f9397bdfb,%rsi
    dee0:	ff 54 f9 
    dee3:	48 89 c7             	mov    %rax,%rdi
    dee6:	e8 bd 89 ff ff       	callq  68a8 <safe_sub_func_int64_t_s_s>
    deeb:	0f b7 c0             	movzwl %ax,%eax
    deee:	89 c6                	mov    %eax,%esi
    def0:	bf ed 1a 00 00       	mov    $0x1aed,%edi
    def5:	e8 94 8e ff ff       	callq  6d8e <safe_div_func_uint16_t_u_u>
    defa:	0f b7 c0             	movzwl %ax,%eax
    defd:	89 c6                	mov    %eax,%esi
    deff:	bf 88 ff ff ff       	mov    $0xffffff88,%edi
    df04:	e8 e5 83 ff ff       	callq  62ee <safe_lshift_func_int8_t_s_u>
    df09:	89 c2                	mov    %eax,%edx
    df0b:	48 8b 05 36 d8 00 00 	mov    0xd836(%rip),%rax        # 1b748 <g_321>
    df12:	88 10                	mov    %dl,(%rax)
    df14:	0f b6 00             	movzbl (%rax),%eax
    df17:	84 c0                	test   %al,%al
    df19:	0f 94 c0             	sete   %al
    df1c:	0f b6 d0             	movzbl %al,%edx
    df1f:	48 8b 85 60 f1 ff ff 	mov    -0xea0(%rbp),%rax
    df26:	89 10                	mov    %edx,(%rax)
    df28:	8b 05 7a c1 00 00    	mov    0xc17a(%rip),%eax        # 1a0a8 <g_60>
    df2e:	83 c0 01             	add    $0x1,%eax
    df31:	89 05 71 c1 00 00    	mov    %eax,0xc171(%rip)        # 1a0a8 <g_60>
    df37:	8b 05 6b c1 00 00    	mov    0xc16b(%rip),%eax        # 1a0a8 <g_60>
    df3d:	83 f8 1e             	cmp    $0x1e,%eax
    df40:	0f 87 4c fe ff ff    	ja     dd92 <func_38+0x1c9>
    df46:	8b 9d 64 ee ff ff    	mov    -0x119c(%rbp),%ebx
    df4c:	8b 85 38 ee ff ff    	mov    -0x11c8(%rbp),%eax
    df52:	89 c2                	mov    %eax,%edx
    df54:	48 8b 85 40 ee ff ff 	mov    -0x11c0(%rbp),%rax
    df5b:	21 c2                	and    %eax,%edx
    df5d:	66 89 95 30 ee ff ff 	mov    %dx,-0x11d0(%rbp)
    df64:	8b 85 64 ee ff ff    	mov    -0x119c(%rbp),%eax
    df6a:	44 0f b7 e0          	movzwl %ax,%r12d
    df6e:	48 8b 05 b3 d7 00 00 	mov    0xd7b3(%rip),%rax        # 1b728 <g_159>
    df75:	44 8b 28             	mov    (%rax),%r13d
    df78:	8b 85 64 ee ff ff    	mov    -0x119c(%rbp),%eax
    df7e:	89 85 2c ee ff ff    	mov    %eax,-0x11d4(%rbp)
    df84:	8b 05 2e c1 00 00    	mov    0xc12e(%rip),%eax        # 1a0b8 <g_86+0x8>
    df8a:	44 0f b7 f0          	movzwl %ax,%r14d
    df8e:	0f b6 05 35 c1 00 00 	movzbl 0xc135(%rip),%eax        # 1a0ca <g_162>
    df95:	44 0f b6 f8          	movzbl %al,%r15d
    df99:	8b 85 3c ee ff ff    	mov    -0x11c4(%rbp),%eax
    df9f:	48 89 c6             	mov    %rax,%rsi
    dfa2:	bf 01 00 00 00       	mov    $0x1,%edi
    dfa7:	e8 95 88 ff ff       	callq  6841 <safe_add_func_int64_t_s_s>
    dfac:	4c 89 fe             	mov    %r15,%rsi
    dfaf:	bf 08 00 00 00       	mov    $0x8,%edi
    dfb4:	e8 ef 88 ff ff       	callq  68a8 <safe_sub_func_int64_t_s_s>
    dfb9:	48 85 c0             	test   %rax,%rax
    dfbc:	75 08                	jne    dfc6 <func_38+0x3fd>
    dfbe:	8b 85 64 ee ff ff    	mov    -0x119c(%rbp),%eax
    dfc4:	85 c0                	test   %eax,%eax
    dfc6:	8b 85 64 ee ff ff    	mov    -0x119c(%rbp),%eax
    dfcc:	85 c0                	test   %eax,%eax
    dfce:	0f 95 c0             	setne  %al
    dfd1:	0f b6 c0             	movzbl %al,%eax
    dfd4:	48 98                	cltq   
    dfd6:	83 e0 02             	and    $0x2,%eax
    dfd9:	48 89 c2             	mov    %rax,%rdx
    dfdc:	8b 85 64 ee ff ff    	mov    -0x119c(%rbp),%eax
    dfe2:	83 f0 01             	xor    $0x1,%eax
    dfe5:	48 98                	cltq   
    dfe7:	48 39 c2             	cmp    %rax,%rdx
    dfea:	0f 95 c0             	setne  %al
    dfed:	0f b6 d0             	movzbl %al,%edx
    dff0:	48 8b 05 31 d7 00 00 	mov    0xd731(%rip),%rax        # 1b728 <g_159>
    dff7:	8b 00                	mov    (%rax),%eax
    dff9:	39 c2                	cmp    %eax,%edx
    dffb:	0f 97 c0             	seta   %al
    dffe:	0f b6 c0             	movzbl %al,%eax
    e001:	44 89 f6             	mov    %r14d,%esi
    e004:	89 c7                	mov    %eax,%edi
    e006:	e8 f4 8c ff ff       	callq  6cff <safe_add_func_uint16_t_u_u>
    e00b:	0f be c0             	movsbl %al,%eax
    e00e:	8b b5 2c ee ff ff    	mov    -0x11d4(%rbp),%esi
    e014:	89 c7                	mov    %eax,%edi
    e016:	e8 d3 82 ff ff       	callq  62ee <safe_lshift_func_int8_t_s_u>
    e01b:	be 1d 9c ff ff       	mov    $0xffff9c1d,%esi
    e020:	bf 00 00 00 00       	mov    $0x0,%edi
    e025:	e8 2b 84 ff ff       	callq  6455 <safe_div_func_int16_t_s_s>
    e02a:	0f bf d0             	movswl %ax,%edx
    e02d:	8b 05 35 e7 00 00    	mov    0xe735(%rip),%eax        # 1c768 <g_4>
    e033:	39 c2                	cmp    %eax,%edx
    e035:	0f 9e c0             	setle  %al
    e038:	0f b6 c0             	movzbl %al,%eax
    e03b:	44 89 ee             	mov    %r13d,%esi
    e03e:	89 c7                	mov    %eax,%edi
    e040:	e8 b8 8e ff ff       	callq  6efd <safe_mod_func_uint32_t_u_u>
    e045:	89 c2                	mov    %eax,%edx
    e047:	48 8b 85 f0 ef ff ff 	mov    -0x1010(%rbp),%rax
    e04e:	48 8b 00             	mov    (%rax),%rax
    e051:	89 d2                	mov    %edx,%edx
    e053:	48 31 c2             	xor    %rax,%rdx
    e056:	48 8b 85 f0 ef ff ff 	mov    -0x1010(%rbp),%rax
    e05d:	48 89 10             	mov    %rdx,(%rax)
    e060:	48 8b 85 f0 ef ff ff 	mov    -0x1010(%rbp),%rax
    e067:	48 8b 10             	mov    (%rax),%rdx
    e06a:	0f b7 05 57 c0 00 00 	movzwl 0xc057(%rip),%eax        # 1a0c8 <g_152>
    e071:	0f b7 c0             	movzwl %ax,%eax
    e074:	48 39 c2             	cmp    %rax,%rdx
    e077:	0f 95 c0             	setne  %al
    e07a:	0f b6 c0             	movzbl %al,%eax
    e07d:	44 89 e6             	mov    %r12d,%esi
    e080:	89 c7                	mov    %eax,%edi
    e082:	e8 07 8d ff ff       	callq  6d8e <safe_div_func_uint16_t_u_u>
    e087:	89 c2                	mov    %eax,%edx
    e089:	48 8b 85 30 ef ff ff 	mov    -0x10d0(%rbp),%rax
    e090:	66 23 95 30 ee ff ff 	and    -0x11d0(%rbp),%dx
    e097:	66 89 10             	mov    %dx,(%rax)
    e09a:	0f b7 00             	movzwl (%rax),%eax
    e09d:	66 0d e4 40          	or     $0x40e4,%ax
    e0a1:	98                   	cwtl   
    e0a2:	89 de                	mov    %ebx,%esi
    e0a4:	89 c7                	mov    %eax,%edi
    e0a6:	e8 5a 85 ff ff       	callq  6605 <safe_sub_func_int32_t_s_s>
    e0ab:	8b 95 64 ee ff ff    	mov    -0x119c(%rbp),%edx
    e0b1:	39 d0                	cmp    %edx,%eax
    e0b3:	0f 8d e5 35 00 00    	jge    1169e <func_38+0x3ad5>
    e0b9:	c6 85 5c ee ff ff b4 	movb   $0xb4,-0x11a4(%rbp)
    e0c0:	c7 85 74 ee ff ff c1 	movl   $0xa17d50c1,-0x118c(%rbp)
    e0c7:	50 7d a1 
    e0ca:	48 c7 85 58 ef ff ff 	movq   $0xffffffffffffffff,-0x10a8(%rbp)
    e0d1:	ff ff ff ff 
    e0d5:	48 8d 05 d0 bf 00 00 	lea    0xbfd0(%rip),%rax        # 1a0ac <g_77>
    e0dc:	48 89 85 88 ef ff ff 	mov    %rax,-0x1078(%rbp)
    e0e3:	48 8d 05 5a c2 00 00 	lea    0xc25a(%rip),%rax        # 1a344 <g_530>
    e0ea:	48 89 85 90 ef ff ff 	mov    %rax,-0x1070(%rbp)
    e0f1:	c6 85 5d ee ff ff 34 	movb   $0x34,-0x11a3(%rbp)
    e0f8:	c7 85 9c ee ff ff 00 	movl   $0x0,-0x1164(%rbp)
    e0ff:	00 00 00 
    e102:	48 8d 85 48 ef ff ff 	lea    -0x10b8(%rbp),%rax
    e109:	48 89 85 98 ef ff ff 	mov    %rax,-0x1068(%rbp)
    e110:	48 c7 85 a0 ef ff ff 	movq   $0x0,-0x1060(%rbp)
    e117:	00 00 00 00 
    e11b:	48 b8 0a a5 27 18 c4 	movabs $0x9c290cc41827a50a,%rax
    e122:	0c 29 9c 
    e125:	48 89 85 a8 ef ff ff 	mov    %rax,-0x1058(%rbp)
    e12c:	c7 85 a0 ee ff ff ff 	movl   $0xffffffff,-0x1160(%rbp)
    e133:	ff ff ff 
    e136:	48 c7 85 b0 ef ff ff 	movq   $0x0,-0x1050(%rbp)
    e13d:	00 00 00 00 
    e141:	48 8d 05 e8 c1 00 00 	lea    0xc1e8(%rip),%rax        # 1a330 <g_397>
    e148:	48 89 85 b8 ef ff ff 	mov    %rax,-0x1048(%rbp)
    e14f:	48 8d 05 d2 d5 00 00 	lea    0xd5d2(%rip),%rax        # 1b728 <g_159>
    e156:	48 89 85 60 ef ff ff 	mov    %rax,-0x10a0(%rbp)
    e15d:	c7 85 a4 ee ff ff 00 	movl   $0x0,-0x115c(%rbp)
    e164:	00 00 00 
    e167:	eb 1a                	jmp    e183 <func_38+0x5ba>
    e169:	8b 85 a4 ee ff ff    	mov    -0x115c(%rbp),%eax
    e16f:	48 98                	cltq   
    e171:	c7 84 85 88 f1 ff ff 	movl   $0x338fdf03,-0xe78(%rbp,%rax,4)
    e178:	03 df 8f 33 
    e17c:	83 85 a4 ee ff ff 01 	addl   $0x1,-0x115c(%rbp)
    e183:	83 bd a4 ee ff ff 01 	cmpl   $0x1,-0x115c(%rbp)
    e18a:	7e dd                	jle    e169 <func_38+0x5a0>
    e18c:	83 bd 3c ee ff ff 00 	cmpl   $0x0,-0x11c4(%rbp)
    e193:	0f 85 f9 34 00 00    	jne    11692 <func_38+0x3ac9>
    e199:	48 c7 05 84 c1 00 00 	movq   $0xfffffffffffffff9,0xc184(%rip)        # 1a328 <g_395>
    e1a0:	f9 ff ff ff 
    e1a4:	e9 3a 1e 00 00       	jmpq   ffe3 <func_38+0x241a>
    e1a9:	48 b8 25 15 15 b9 7d 	movabs $0xdf106d7db9151525,%rax
    e1b0:	6d 10 df 
    e1b3:	48 89 85 c8 f0 ff ff 	mov    %rax,-0xf38(%rbp)
    e1ba:	c7 85 78 ee ff ff 01 	movl   $0x1,-0x1188(%rbp)
    e1c1:	00 00 00 
    e1c4:	c7 85 7c ee ff ff ff 	movl   $0xffffffff,-0x1184(%rbp)
    e1cb:	ff ff ff 
    e1ce:	48 c7 85 d0 f0 ff ff 	movq   $0x0,-0xf30(%rbp)
    e1d5:	00 00 00 00 
    e1d9:	48 8d 05 68 d5 00 00 	lea    0xd568(%rip),%rax        # 1b748 <g_321>
    e1e0:	48 89 85 d8 f0 ff ff 	mov    %rax,-0xf28(%rbp)
    e1e7:	c7 85 80 ee ff ff c8 	movl   $0x8b9eb6c8,-0x1180(%rbp)
    e1ee:	b6 9e 8b 
    e1f1:	c7 85 84 ee ff ff c6 	movl   $0x666ca0c6,-0x117c(%rbp)
    e1f8:	a0 6c 66 
    e1fb:	c7 85 88 ee ff ff fc 	movl   $0xb20399fc,-0x1178(%rbp)
    e202:	99 03 b2 
    e205:	48 8d 05 24 c1 00 00 	lea    0xc124(%rip),%rax        # 1a330 <g_397>
    e20c:	48 89 85 68 ef ff ff 	mov    %rax,-0x1098(%rbp)
    e213:	c7 85 08 ef ff ff fc 	movl   $0xfffffffc,-0x10f8(%rbp)
    e21a:	ff ff ff 
    e21d:	c7 85 0c ef ff ff 68 	movl   $0xd2c65268,-0x10f4(%rbp)
    e224:	52 c6 d2 
    e227:	c7 85 10 ef ff ff 2d 	movl   $0xa0836b2d,-0x10f0(%rbp)
    e22e:	6b 83 a0 
    e231:	c7 85 14 ef ff ff 44 	movl   $0x541a2144,-0x10ec(%rbp)
    e238:	21 1a 54 
    e23b:	c7 85 18 ef ff ff f0 	movl   $0x455a9bf0,-0x10e8(%rbp)
    e242:	9b 5a 45 
    e245:	66 c7 85 60 ee ff ff 	movw   $0xffff,-0x11a0(%rbp)
    e24c:	ff ff 
    e24e:	48 8b 05 f3 d4 00 00 	mov    0xd4f3(%rip),%rax        # 1b748 <g_321>
    e255:	48 8b 95 c8 f0 ff ff 	mov    -0xf38(%rbp),%rdx
    e25c:	88 10                	mov    %dl,(%rax)
    e25e:	48 8b 85 40 ee ff ff 	mov    -0x11c0(%rbp),%rax
    e265:	48 ba 5b 8f ae f8 f1 	movabs $0x937db2f1f8ae8f5b,%rdx
    e26c:	b2 7d 93 
    e26f:	48 39 d0             	cmp    %rdx,%rax
    e272:	0f b6 85 5c ee ff ff 	movzbl -0x11a4(%rbp),%eax
    e279:	84 c0                	test   %al,%al
    e27b:	0f 84 96 14 00 00    	je     f717 <func_38+0x1b4e>
    e281:	48 c7 85 70 ef ff ff 	movq   $0x0,-0x1090(%rbp)
    e288:	00 00 00 00 
    e28c:	48 c7 85 78 ef ff ff 	movq   $0x0,-0x1088(%rbp)
    e293:	00 00 00 00 
    e297:	48 8d 85 78 ef ff ff 	lea    -0x1088(%rbp),%rax
    e29e:	48 89 85 e0 f0 ff ff 	mov    %rax,-0xf20(%rbp)
    e2a5:	c7 85 8c ee ff ff 89 	movl   $0xab47989,-0x1174(%rbp)
    e2ac:	79 b4 0a 
    e2af:	48 8d 05 b6 e4 00 00 	lea    0xe4b6(%rip),%rax        # 1c76c <g_160>
    e2b6:	48 89 85 60 f4 ff ff 	mov    %rax,-0xba0(%rbp)
    e2bd:	48 8d 05 e4 bd 00 00 	lea    0xbde4(%rip),%rax        # 1a0a8 <g_60>
    e2c4:	48 89 85 68 f4 ff ff 	mov    %rax,-0xb98(%rbp)
    e2cb:	48 8d 85 78 ee ff ff 	lea    -0x1188(%rbp),%rax
    e2d2:	48 89 85 70 f4 ff ff 	mov    %rax,-0xb90(%rbp)
    e2d9:	48 8d 05 8c e4 00 00 	lea    0xe48c(%rip),%rax        # 1c76c <g_160>
    e2e0:	48 89 85 78 f4 ff ff 	mov    %rax,-0xb88(%rbp)
    e2e7:	48 8d 05 7e e4 00 00 	lea    0xe47e(%rip),%rax        # 1c76c <g_160>
    e2ee:	48 89 85 80 f4 ff ff 	mov    %rax,-0xb80(%rbp)
    e2f5:	48 8d 05 ac bd 00 00 	lea    0xbdac(%rip),%rax        # 1a0a8 <g_60>
    e2fc:	48 89 85 88 f4 ff ff 	mov    %rax,-0xb78(%rbp)
    e303:	48 8d 85 78 ee ff ff 	lea    -0x1188(%rbp),%rax
    e30a:	48 89 85 90 f4 ff ff 	mov    %rax,-0xb70(%rbp)
    e311:	48 8d 85 78 ee ff ff 	lea    -0x1188(%rbp),%rax
    e318:	48 89 85 98 f4 ff ff 	mov    %rax,-0xb68(%rbp)
    e31f:	48 8d 05 82 bd 00 00 	lea    0xbd82(%rip),%rax        # 1a0a8 <g_60>
    e326:	48 89 85 a0 f4 ff ff 	mov    %rax,-0xb60(%rbp)
    e32d:	48 8d 05 74 bd 00 00 	lea    0xbd74(%rip),%rax        # 1a0a8 <g_60>
    e334:	48 89 85 a8 f4 ff ff 	mov    %rax,-0xb58(%rbp)
    e33b:	48 8d 05 2a e4 00 00 	lea    0xe42a(%rip),%rax        # 1c76c <g_160>
    e342:	48 89 85 b0 f4 ff ff 	mov    %rax,-0xb50(%rbp)
    e349:	48 8d 85 78 ee ff ff 	lea    -0x1188(%rbp),%rax
    e350:	48 89 85 b8 f4 ff ff 	mov    %rax,-0xb48(%rbp)
    e357:	48 8d 05 0e e4 00 00 	lea    0xe40e(%rip),%rax        # 1c76c <g_160>
    e35e:	48 89 85 c0 f4 ff ff 	mov    %rax,-0xb40(%rbp)
    e365:	48 8d 05 00 e4 00 00 	lea    0xe400(%rip),%rax        # 1c76c <g_160>
    e36c:	48 89 85 c8 f4 ff ff 	mov    %rax,-0xb38(%rbp)
    e373:	48 8d 05 2e bd 00 00 	lea    0xbd2e(%rip),%rax        # 1a0a8 <g_60>
    e37a:	48 89 85 d0 f4 ff ff 	mov    %rax,-0xb30(%rbp)
    e381:	48 8d 05 e4 e3 00 00 	lea    0xe3e4(%rip),%rax        # 1c76c <g_160>
    e388:	48 89 85 d8 f4 ff ff 	mov    %rax,-0xb28(%rbp)
    e38f:	48 8d 05 12 bd 00 00 	lea    0xbd12(%rip),%rax        # 1a0a8 <g_60>
    e396:	48 89 85 e0 f4 ff ff 	mov    %rax,-0xb20(%rbp)
    e39d:	48 8d 05 c8 e3 00 00 	lea    0xe3c8(%rip),%rax        # 1c76c <g_160>
    e3a4:	48 89 85 e8 f4 ff ff 	mov    %rax,-0xb18(%rbp)
    e3ab:	48 8d 05 f6 bc 00 00 	lea    0xbcf6(%rip),%rax        # 1a0a8 <g_60>
    e3b2:	48 89 85 f0 f4 ff ff 	mov    %rax,-0xb10(%rbp)
    e3b9:	48 8d 05 e8 bc 00 00 	lea    0xbce8(%rip),%rax        # 1a0a8 <g_60>
    e3c0:	48 89 85 f8 f4 ff ff 	mov    %rax,-0xb08(%rbp)
    e3c7:	48 8d 05 9e e3 00 00 	lea    0xe39e(%rip),%rax        # 1c76c <g_160>
    e3ce:	48 89 85 00 f5 ff ff 	mov    %rax,-0xb00(%rbp)
    e3d5:	48 8d 85 78 ee ff ff 	lea    -0x1188(%rbp),%rax
    e3dc:	48 89 85 08 f5 ff ff 	mov    %rax,-0xaf8(%rbp)
    e3e3:	48 8d 05 82 e3 00 00 	lea    0xe382(%rip),%rax        # 1c76c <g_160>
    e3ea:	48 89 85 10 f5 ff ff 	mov    %rax,-0xaf0(%rbp)
    e3f1:	48 8d 05 74 e3 00 00 	lea    0xe374(%rip),%rax        # 1c76c <g_160>
    e3f8:	48 89 85 18 f5 ff ff 	mov    %rax,-0xae8(%rbp)
    e3ff:	48 8d 05 66 e3 00 00 	lea    0xe366(%rip),%rax        # 1c76c <g_160>
    e406:	48 89 85 20 f5 ff ff 	mov    %rax,-0xae0(%rbp)
    e40d:	48 8d 85 78 ee ff ff 	lea    -0x1188(%rbp),%rax
    e414:	48 89 85 28 f5 ff ff 	mov    %rax,-0xad8(%rbp)
    e41b:	48 8d 05 4a e3 00 00 	lea    0xe34a(%rip),%rax        # 1c76c <g_160>
    e422:	48 89 85 30 f5 ff ff 	mov    %rax,-0xad0(%rbp)
    e429:	48 8d 85 78 ee ff ff 	lea    -0x1188(%rbp),%rax
    e430:	48 89 85 38 f5 ff ff 	mov    %rax,-0xac8(%rbp)
    e437:	48 8d 05 6a bc 00 00 	lea    0xbc6a(%rip),%rax        # 1a0a8 <g_60>
    e43e:	48 89 85 40 f5 ff ff 	mov    %rax,-0xac0(%rbp)
    e445:	48 8d 05 5c bc 00 00 	lea    0xbc5c(%rip),%rax        # 1a0a8 <g_60>
    e44c:	48 89 85 48 f5 ff ff 	mov    %rax,-0xab8(%rbp)
    e453:	48 8d 85 78 ee ff ff 	lea    -0x1188(%rbp),%rax
    e45a:	48 89 85 50 f5 ff ff 	mov    %rax,-0xab0(%rbp)
    e461:	48 c7 85 58 f5 ff ff 	movq   $0x0,-0xaa8(%rbp)
    e468:	00 00 00 00 
    e46c:	48 8d 05 35 bc 00 00 	lea    0xbc35(%rip),%rax        # 1a0a8 <g_60>
    e473:	48 89 85 60 f5 ff ff 	mov    %rax,-0xaa0(%rbp)
    e47a:	48 8d 05 eb e2 00 00 	lea    0xe2eb(%rip),%rax        # 1c76c <g_160>
    e481:	48 89 85 68 f5 ff ff 	mov    %rax,-0xa98(%rbp)
    e488:	48 8d 05 19 bc 00 00 	lea    0xbc19(%rip),%rax        # 1a0a8 <g_60>
    e48f:	48 89 85 70 f5 ff ff 	mov    %rax,-0xa90(%rbp)
    e496:	48 8d 05 cf e2 00 00 	lea    0xe2cf(%rip),%rax        # 1c76c <g_160>
    e49d:	48 89 85 78 f5 ff ff 	mov    %rax,-0xa88(%rbp)
    e4a4:	48 8d 05 c1 e2 00 00 	lea    0xe2c1(%rip),%rax        # 1c76c <g_160>
    e4ab:	48 89 85 80 f5 ff ff 	mov    %rax,-0xa80(%rbp)
    e4b2:	48 8d 05 ef bb 00 00 	lea    0xbbef(%rip),%rax        # 1a0a8 <g_60>
    e4b9:	48 89 85 88 f5 ff ff 	mov    %rax,-0xa78(%rbp)
    e4c0:	48 8d 85 78 ee ff ff 	lea    -0x1188(%rbp),%rax
    e4c7:	48 89 85 90 f5 ff ff 	mov    %rax,-0xa70(%rbp)
    e4ce:	48 8d 05 97 e2 00 00 	lea    0xe297(%rip),%rax        # 1c76c <g_160>
    e4d5:	48 89 85 98 f5 ff ff 	mov    %rax,-0xa68(%rbp)
    e4dc:	48 8d 05 89 e2 00 00 	lea    0xe289(%rip),%rax        # 1c76c <g_160>
    e4e3:	48 89 85 a0 f5 ff ff 	mov    %rax,-0xa60(%rbp)
    e4ea:	48 8d 05 7b e2 00 00 	lea    0xe27b(%rip),%rax        # 1c76c <g_160>
    e4f1:	48 89 85 a8 f5 ff ff 	mov    %rax,-0xa58(%rbp)
    e4f8:	48 8d 05 a9 bb 00 00 	lea    0xbba9(%rip),%rax        # 1a0a8 <g_60>
    e4ff:	48 89 85 b0 f5 ff ff 	mov    %rax,-0xa50(%rbp)
    e506:	48 8d 05 9b bb 00 00 	lea    0xbb9b(%rip),%rax        # 1a0a8 <g_60>
    e50d:	48 89 85 b8 f5 ff ff 	mov    %rax,-0xa48(%rbp)
    e514:	48 8d 05 8d bb 00 00 	lea    0xbb8d(%rip),%rax        # 1a0a8 <g_60>
    e51b:	48 89 85 c0 f5 ff ff 	mov    %rax,-0xa40(%rbp)
    e522:	48 8d 05 43 e2 00 00 	lea    0xe243(%rip),%rax        # 1c76c <g_160>
    e529:	48 89 85 c8 f5 ff ff 	mov    %rax,-0xa38(%rbp)
    e530:	48 8d 05 35 e2 00 00 	lea    0xe235(%rip),%rax        # 1c76c <g_160>
    e537:	48 89 85 d0 f5 ff ff 	mov    %rax,-0xa30(%rbp)
    e53e:	48 8d 85 78 ee ff ff 	lea    -0x1188(%rbp),%rax
    e545:	48 89 85 d8 f5 ff ff 	mov    %rax,-0xa28(%rbp)
    e54c:	48 c7 85 e0 f5 ff ff 	movq   $0x0,-0xa20(%rbp)
    e553:	00 00 00 00 
    e557:	48 8d 05 4a bb 00 00 	lea    0xbb4a(%rip),%rax        # 1a0a8 <g_60>
    e55e:	48 89 85 e8 f5 ff ff 	mov    %rax,-0xa18(%rbp)
    e565:	48 8d 05 3c bb 00 00 	lea    0xbb3c(%rip),%rax        # 1a0a8 <g_60>
    e56c:	48 89 85 f0 f5 ff ff 	mov    %rax,-0xa10(%rbp)
    e573:	48 8d 05 2e bb 00 00 	lea    0xbb2e(%rip),%rax        # 1a0a8 <g_60>
    e57a:	48 89 85 f8 f5 ff ff 	mov    %rax,-0xa08(%rbp)
    e581:	48 8d 05 e4 e1 00 00 	lea    0xe1e4(%rip),%rax        # 1c76c <g_160>
    e588:	48 89 85 00 f6 ff ff 	mov    %rax,-0xa00(%rbp)
    e58f:	48 8d 05 12 bb 00 00 	lea    0xbb12(%rip),%rax        # 1a0a8 <g_60>
    e596:	48 89 85 08 f6 ff ff 	mov    %rax,-0x9f8(%rbp)
    e59d:	48 8d 05 c8 e1 00 00 	lea    0xe1c8(%rip),%rax        # 1c76c <g_160>
    e5a4:	48 89 85 10 f6 ff ff 	mov    %rax,-0x9f0(%rbp)
    e5ab:	48 8d 05 ba e1 00 00 	lea    0xe1ba(%rip),%rax        # 1c76c <g_160>
    e5b2:	48 89 85 18 f6 ff ff 	mov    %rax,-0x9e8(%rbp)
    e5b9:	48 8d 05 e8 ba 00 00 	lea    0xbae8(%rip),%rax        # 1a0a8 <g_60>
    e5c0:	48 89 85 20 f6 ff ff 	mov    %rax,-0x9e0(%rbp)
    e5c7:	48 8d 05 9e e1 00 00 	lea    0xe19e(%rip),%rax        # 1c76c <g_160>
    e5ce:	48 89 85 28 f6 ff ff 	mov    %rax,-0x9d8(%rbp)
    e5d5:	48 8d 85 78 ee ff ff 	lea    -0x1188(%rbp),%rax
    e5dc:	48 89 85 30 f6 ff ff 	mov    %rax,-0x9d0(%rbp)
    e5e3:	48 8d 05 be ba 00 00 	lea    0xbabe(%rip),%rax        # 1a0a8 <g_60>
    e5ea:	48 89 85 38 f6 ff ff 	mov    %rax,-0x9c8(%rbp)
    e5f1:	48 8d 85 78 ee ff ff 	lea    -0x1188(%rbp),%rax
    e5f8:	48 89 85 40 f6 ff ff 	mov    %rax,-0x9c0(%rbp)
    e5ff:	48 8d 05 a2 ba 00 00 	lea    0xbaa2(%rip),%rax        # 1a0a8 <g_60>
    e606:	48 89 85 48 f6 ff ff 	mov    %rax,-0x9b8(%rbp)
    e60d:	48 8d 05 58 e1 00 00 	lea    0xe158(%rip),%rax        # 1c76c <g_160>
    e614:	48 89 85 50 f6 ff ff 	mov    %rax,-0x9b0(%rbp)
    e61b:	48 8d 05 4a e1 00 00 	lea    0xe14a(%rip),%rax        # 1c76c <g_160>
    e622:	48 89 85 58 f6 ff ff 	mov    %rax,-0x9a8(%rbp)
    e629:	48 8d 05 78 ba 00 00 	lea    0xba78(%rip),%rax        # 1a0a8 <g_60>
    e630:	48 89 85 60 f6 ff ff 	mov    %rax,-0x9a0(%rbp)
    e637:	48 8d 05 2e e1 00 00 	lea    0xe12e(%rip),%rax        # 1c76c <g_160>
    e63e:	48 89 85 68 f6 ff ff 	mov    %rax,-0x998(%rbp)
    e645:	48 8d 05 20 e1 00 00 	lea    0xe120(%rip),%rax        # 1c76c <g_160>
    e64c:	48 89 85 70 f6 ff ff 	mov    %rax,-0x990(%rbp)
    e653:	48 8d 85 78 ee ff ff 	lea    -0x1188(%rbp),%rax
    e65a:	48 89 85 78 f6 ff ff 	mov    %rax,-0x988(%rbp)
    e661:	48 8d 05 04 e1 00 00 	lea    0xe104(%rip),%rax        # 1c76c <g_160>
    e668:	48 89 85 80 f6 ff ff 	mov    %rax,-0x980(%rbp)
    e66f:	48 8d 05 f6 e0 00 00 	lea    0xe0f6(%rip),%rax        # 1c76c <g_160>
    e676:	48 89 85 88 f6 ff ff 	mov    %rax,-0x978(%rbp)
    e67d:	48 8d 05 24 ba 00 00 	lea    0xba24(%rip),%rax        # 1a0a8 <g_60>
    e684:	48 89 85 90 f6 ff ff 	mov    %rax,-0x970(%rbp)
    e68b:	48 8d 05 da e0 00 00 	lea    0xe0da(%rip),%rax        # 1c76c <g_160>
    e692:	48 89 85 98 f6 ff ff 	mov    %rax,-0x968(%rbp)
    e699:	48 8d 85 78 ee ff ff 	lea    -0x1188(%rbp),%rax
    e6a0:	48 89 85 a0 f6 ff ff 	mov    %rax,-0x960(%rbp)
    e6a7:	48 8d 85 78 ee ff ff 	lea    -0x1188(%rbp),%rax
    e6ae:	48 89 85 a8 f6 ff ff 	mov    %rax,-0x958(%rbp)
    e6b5:	48 8d 05 ec b9 00 00 	lea    0xb9ec(%rip),%rax        # 1a0a8 <g_60>
    e6bc:	48 89 85 b0 f6 ff ff 	mov    %rax,-0x950(%rbp)
    e6c3:	48 c7 85 b8 f6 ff ff 	movq   $0x0,-0x948(%rbp)
    e6ca:	00 00 00 00 
    e6ce:	48 8d 05 97 e0 00 00 	lea    0xe097(%rip),%rax        # 1c76c <g_160>
    e6d5:	48 89 85 c0 f6 ff ff 	mov    %rax,-0x940(%rbp)
    e6dc:	48 8d 05 c5 b9 00 00 	lea    0xb9c5(%rip),%rax        # 1a0a8 <g_60>
    e6e3:	48 89 85 c8 f6 ff ff 	mov    %rax,-0x938(%rbp)
    e6ea:	48 8d 05 b7 b9 00 00 	lea    0xb9b7(%rip),%rax        # 1a0a8 <g_60>
    e6f1:	48 89 85 d0 f6 ff ff 	mov    %rax,-0x930(%rbp)
    e6f8:	48 8d 05 a9 b9 00 00 	lea    0xb9a9(%rip),%rax        # 1a0a8 <g_60>
    e6ff:	48 89 85 d8 f6 ff ff 	mov    %rax,-0x928(%rbp)
    e706:	48 8d 05 9b b9 00 00 	lea    0xb99b(%rip),%rax        # 1a0a8 <g_60>
    e70d:	48 89 85 e0 f6 ff ff 	mov    %rax,-0x920(%rbp)
    e714:	48 c7 85 e8 f6 ff ff 	movq   $0x0,-0x918(%rbp)
    e71b:	00 00 00 00 
    e71f:	48 8d 05 82 b9 00 00 	lea    0xb982(%rip),%rax        # 1a0a8 <g_60>
    e726:	48 89 85 f0 f6 ff ff 	mov    %rax,-0x910(%rbp)
    e72d:	48 c7 85 f8 f6 ff ff 	movq   $0x0,-0x908(%rbp)
    e734:	00 00 00 00 
    e738:	48 8d 05 69 b9 00 00 	lea    0xb969(%rip),%rax        # 1a0a8 <g_60>
    e73f:	48 89 85 00 f7 ff ff 	mov    %rax,-0x900(%rbp)
    e746:	48 8d 05 1f e0 00 00 	lea    0xe01f(%rip),%rax        # 1c76c <g_160>
    e74d:	48 89 85 08 f7 ff ff 	mov    %rax,-0x8f8(%rbp)
    e754:	48 8d 05 11 e0 00 00 	lea    0xe011(%rip),%rax        # 1c76c <g_160>
    e75b:	48 89 85 10 f7 ff ff 	mov    %rax,-0x8f0(%rbp)
    e762:	48 8d 05 3f b9 00 00 	lea    0xb93f(%rip),%rax        # 1a0a8 <g_60>
    e769:	48 89 85 18 f7 ff ff 	mov    %rax,-0x8e8(%rbp)
    e770:	48 8d 05 31 b9 00 00 	lea    0xb931(%rip),%rax        # 1a0a8 <g_60>
    e777:	48 89 85 20 f7 ff ff 	mov    %rax,-0x8e0(%rbp)
    e77e:	48 8d 05 e7 df 00 00 	lea    0xdfe7(%rip),%rax        # 1c76c <g_160>
    e785:	48 89 85 28 f7 ff ff 	mov    %rax,-0x8d8(%rbp)
    e78c:	48 8d 85 78 ee ff ff 	lea    -0x1188(%rbp),%rax
    e793:	48 89 85 30 f7 ff ff 	mov    %rax,-0x8d0(%rbp)
    e79a:	48 8d 85 78 ee ff ff 	lea    -0x1188(%rbp),%rax
    e7a1:	48 89 85 38 f7 ff ff 	mov    %rax,-0x8c8(%rbp)
    e7a8:	48 8d 05 f9 b8 00 00 	lea    0xb8f9(%rip),%rax        # 1a0a8 <g_60>
    e7af:	48 89 85 40 f7 ff ff 	mov    %rax,-0x8c0(%rbp)
    e7b6:	48 8d 85 78 ee ff ff 	lea    -0x1188(%rbp),%rax
    e7bd:	48 89 85 48 f7 ff ff 	mov    %rax,-0x8b8(%rbp)
    e7c4:	48 8d 05 a1 df 00 00 	lea    0xdfa1(%rip),%rax        # 1c76c <g_160>
    e7cb:	48 89 85 50 f7 ff ff 	mov    %rax,-0x8b0(%rbp)
    e7d2:	48 8d 05 93 df 00 00 	lea    0xdf93(%rip),%rax        # 1c76c <g_160>
    e7d9:	48 89 85 58 f7 ff ff 	mov    %rax,-0x8a8(%rbp)
    e7e0:	48 8d 05 c1 b8 00 00 	lea    0xb8c1(%rip),%rax        # 1a0a8 <g_60>
    e7e7:	48 89 85 60 f7 ff ff 	mov    %rax,-0x8a0(%rbp)
    e7ee:	48 8d 85 78 ee ff ff 	lea    -0x1188(%rbp),%rax
    e7f5:	48 89 85 68 f7 ff ff 	mov    %rax,-0x898(%rbp)
    e7fc:	48 8d 05 69 df 00 00 	lea    0xdf69(%rip),%rax        # 1c76c <g_160>
    e803:	48 89 85 70 f7 ff ff 	mov    %rax,-0x890(%rbp)
    e80a:	48 8d 05 5b df 00 00 	lea    0xdf5b(%rip),%rax        # 1c76c <g_160>
    e811:	48 89 85 78 f7 ff ff 	mov    %rax,-0x888(%rbp)
    e818:	48 8d 05 89 b8 00 00 	lea    0xb889(%rip),%rax        # 1a0a8 <g_60>
    e81f:	48 89 85 80 f7 ff ff 	mov    %rax,-0x880(%rbp)
    e826:	48 8d 85 78 ee ff ff 	lea    -0x1188(%rbp),%rax
    e82d:	48 89 85 88 f7 ff ff 	mov    %rax,-0x878(%rbp)
    e834:	48 8d 85 78 ee ff ff 	lea    -0x1188(%rbp),%rax
    e83b:	48 89 85 90 f7 ff ff 	mov    %rax,-0x870(%rbp)
    e842:	48 8d 05 5f b8 00 00 	lea    0xb85f(%rip),%rax        # 1a0a8 <g_60>
    e849:	48 89 85 98 f7 ff ff 	mov    %rax,-0x868(%rbp)
    e850:	48 8d 05 51 b8 00 00 	lea    0xb851(%rip),%rax        # 1a0a8 <g_60>
    e857:	48 89 85 a0 f7 ff ff 	mov    %rax,-0x860(%rbp)
    e85e:	48 8d 05 07 df 00 00 	lea    0xdf07(%rip),%rax        # 1c76c <g_160>
    e865:	48 89 85 a8 f7 ff ff 	mov    %rax,-0x858(%rbp)
    e86c:	48 8d 85 78 ee ff ff 	lea    -0x1188(%rbp),%rax
    e873:	48 89 85 b0 f7 ff ff 	mov    %rax,-0x850(%rbp)
    e87a:	48 8d 05 eb de 00 00 	lea    0xdeeb(%rip),%rax        # 1c76c <g_160>
    e881:	48 89 85 b8 f7 ff ff 	mov    %rax,-0x848(%rbp)
    e888:	48 8d 05 dd de 00 00 	lea    0xdedd(%rip),%rax        # 1c76c <g_160>
    e88f:	48 89 85 c0 f7 ff ff 	mov    %rax,-0x840(%rbp)
    e896:	48 8d 05 0b b8 00 00 	lea    0xb80b(%rip),%rax        # 1a0a8 <g_60>
    e89d:	48 89 85 c8 f7 ff ff 	mov    %rax,-0x838(%rbp)
    e8a4:	48 8d 05 c1 de 00 00 	lea    0xdec1(%rip),%rax        # 1c76c <g_160>
    e8ab:	48 89 85 d0 f7 ff ff 	mov    %rax,-0x830(%rbp)
    e8b2:	48 c7 85 d8 f7 ff ff 	movq   $0x0,-0x828(%rbp)
    e8b9:	00 00 00 00 
    e8bd:	48 8d 05 a8 de 00 00 	lea    0xdea8(%rip),%rax        # 1c76c <g_160>
    e8c4:	48 89 85 e0 f7 ff ff 	mov    %rax,-0x820(%rbp)
    e8cb:	48 8d 05 d6 b7 00 00 	lea    0xb7d6(%rip),%rax        # 1a0a8 <g_60>
    e8d2:	48 89 85 e8 f7 ff ff 	mov    %rax,-0x818(%rbp)
    e8d9:	48 8d 85 78 ee ff ff 	lea    -0x1188(%rbp),%rax
    e8e0:	48 89 85 f0 f7 ff ff 	mov    %rax,-0x810(%rbp)
    e8e7:	48 8d 05 ba b7 00 00 	lea    0xb7ba(%rip),%rax        # 1a0a8 <g_60>
    e8ee:	48 89 85 f8 f7 ff ff 	mov    %rax,-0x808(%rbp)
    e8f5:	48 8d 05 70 de 00 00 	lea    0xde70(%rip),%rax        # 1c76c <g_160>
    e8fc:	48 89 85 00 f8 ff ff 	mov    %rax,-0x800(%rbp)
    e903:	48 8d 85 78 ee ff ff 	lea    -0x1188(%rbp),%rax
    e90a:	48 89 85 08 f8 ff ff 	mov    %rax,-0x7f8(%rbp)
    e911:	48 8d 05 90 b7 00 00 	lea    0xb790(%rip),%rax        # 1a0a8 <g_60>
    e918:	48 89 85 10 f8 ff ff 	mov    %rax,-0x7f0(%rbp)
    e91f:	48 8d 05 82 b7 00 00 	lea    0xb782(%rip),%rax        # 1a0a8 <g_60>
    e926:	48 89 85 18 f8 ff ff 	mov    %rax,-0x7e8(%rbp)
    e92d:	48 8d 05 38 de 00 00 	lea    0xde38(%rip),%rax        # 1c76c <g_160>
    e934:	48 89 85 20 f8 ff ff 	mov    %rax,-0x7e0(%rbp)
    e93b:	48 8d 05 2a de 00 00 	lea    0xde2a(%rip),%rax        # 1c76c <g_160>
    e942:	48 89 85 28 f8 ff ff 	mov    %rax,-0x7d8(%rbp)
    e949:	48 8d 05 1c de 00 00 	lea    0xde1c(%rip),%rax        # 1c76c <g_160>
    e950:	48 89 85 30 f8 ff ff 	mov    %rax,-0x7d0(%rbp)
    e957:	48 8d 85 78 ee ff ff 	lea    -0x1188(%rbp),%rax
    e95e:	48 89 85 38 f8 ff ff 	mov    %rax,-0x7c8(%rbp)
    e965:	48 8d 05 3c b7 00 00 	lea    0xb73c(%rip),%rax        # 1a0a8 <g_60>
    e96c:	48 89 85 40 f8 ff ff 	mov    %rax,-0x7c0(%rbp)
    e973:	48 8d 05 f2 dd 00 00 	lea    0xddf2(%rip),%rax        # 1c76c <g_160>
    e97a:	48 89 85 48 f8 ff ff 	mov    %rax,-0x7b8(%rbp)
    e981:	48 8d 85 78 ee ff ff 	lea    -0x1188(%rbp),%rax
    e988:	48 89 85 50 f8 ff ff 	mov    %rax,-0x7b0(%rbp)
    e98f:	48 8d 05 12 b7 00 00 	lea    0xb712(%rip),%rax        # 1a0a8 <g_60>
    e996:	48 89 85 58 f8 ff ff 	mov    %rax,-0x7a8(%rbp)
    e99d:	48 8d 05 c8 dd 00 00 	lea    0xddc8(%rip),%rax        # 1c76c <g_160>
    e9a4:	48 89 85 60 f8 ff ff 	mov    %rax,-0x7a0(%rbp)
    e9ab:	48 8d 05 ba dd 00 00 	lea    0xddba(%rip),%rax        # 1c76c <g_160>
    e9b2:	48 89 85 68 f8 ff ff 	mov    %rax,-0x798(%rbp)
    e9b9:	48 8d 05 e8 b6 00 00 	lea    0xb6e8(%rip),%rax        # 1a0a8 <g_60>
    e9c0:	48 89 85 70 f8 ff ff 	mov    %rax,-0x790(%rbp)
    e9c7:	48 8d 85 78 ee ff ff 	lea    -0x1188(%rbp),%rax
    e9ce:	48 89 85 78 f8 ff ff 	mov    %rax,-0x788(%rbp)
    e9d5:	48 c7 85 80 f8 ff ff 	movq   $0x0,-0x780(%rbp)
    e9dc:	00 00 00 00 
    e9e0:	48 8d 05 85 dd 00 00 	lea    0xdd85(%rip),%rax        # 1c76c <g_160>
    e9e7:	48 89 85 88 f8 ff ff 	mov    %rax,-0x778(%rbp)
    e9ee:	48 8d 05 77 dd 00 00 	lea    0xdd77(%rip),%rax        # 1c76c <g_160>
    e9f5:	48 89 85 90 f8 ff ff 	mov    %rax,-0x770(%rbp)
    e9fc:	48 8d 05 69 dd 00 00 	lea    0xdd69(%rip),%rax        # 1c76c <g_160>
    ea03:	48 89 85 98 f8 ff ff 	mov    %rax,-0x768(%rbp)
    ea0a:	48 8d 05 97 b6 00 00 	lea    0xb697(%rip),%rax        # 1a0a8 <g_60>
    ea11:	48 89 85 a0 f8 ff ff 	mov    %rax,-0x760(%rbp)
    ea18:	48 8d 05 89 b6 00 00 	lea    0xb689(%rip),%rax        # 1a0a8 <g_60>
    ea1f:	48 89 85 a8 f8 ff ff 	mov    %rax,-0x758(%rbp)
    ea26:	48 8d 05 3f dd 00 00 	lea    0xdd3f(%rip),%rax        # 1c76c <g_160>
    ea2d:	48 89 85 b0 f8 ff ff 	mov    %rax,-0x750(%rbp)
    ea34:	48 8d 05 6d b6 00 00 	lea    0xb66d(%rip),%rax        # 1a0a8 <g_60>
    ea3b:	48 89 85 b8 f8 ff ff 	mov    %rax,-0x748(%rbp)
    ea42:	c7 85 90 ee ff ff 2c 	movl   $0x72a3292c,-0x1170(%rbp)
    ea49:	29 a3 72 
    ea4c:	66 c7 85 62 ee ff ff 	movw   $0x1,-0x119e(%rbp)
    ea53:	01 00 
    ea55:	c7 85 1c ef ff ff 04 	movl   $0x4,-0x10e4(%rbp)
    ea5c:	00 00 00 
    ea5f:	c7 85 b4 ee ff ff 00 	movl   $0x0,-0x114c(%rbp)
    ea66:	00 00 00 
    ea69:	eb 1a                	jmp    ea85 <func_38+0xebc>
    ea6b:	8b 85 b4 ee ff ff    	mov    -0x114c(%rbp),%eax
    ea71:	48 98                	cltq   
    ea73:	c7 84 85 00 f2 ff ff 	movl   $0xcda0f192,-0xe00(%rbp,%rax,4)
    ea7a:	92 f1 a0 cd 
    ea7e:	83 85 b4 ee ff ff 01 	addl   $0x1,-0x114c(%rbp)
    ea85:	83 bd b4 ee ff ff 01 	cmpl   $0x1,-0x114c(%rbp)
    ea8c:	7e dd                	jle    ea6b <func_38+0xea2>
    ea8e:	48 8b 05 ab ce 00 00 	mov    0xceab(%rip),%rax        # 1b940 <g_405>
    ea95:	48 85 c0             	test   %rax,%rax
    ea98:	75 50                	jne    eaea <func_38+0xf21>
    ea9a:	c7 85 8c ee ff ff 6f 	movl   $0xaf1be36f,-0x1174(%rbp)
    eaa1:	e3 1b af 
    eaa4:	48 8d 05 fd cc 00 00 	lea    0xccfd(%rip),%rax        # 1b7a8 <g_320+0x48>
    eaab:	48 89 05 96 ce 00 00 	mov    %rax,0xce96(%rip)        # 1b948 <g_407>
    eab2:	48 8b 15 8f ce 00 00 	mov    0xce8f(%rip),%rdx        # 1b948 <g_407>
    eab9:	48 8b 85 e0 f0 ff ff 	mov    -0xf20(%rbp),%rax
    eac0:	48 c7 00 00 00 00 00 	movq   $0x0,(%rax)
    eac7:	48 8b 85 e0 f0 ff ff 	mov    -0xf20(%rbp),%rax
    eace:	48 8b 00             	mov    (%rax),%rax
    ead1:	48 39 c2             	cmp    %rax,%rdx
    ead4:	0f 94 c0             	sete   %al
    ead7:	0f b6 c0             	movzbl %al,%eax
    eada:	89 85 74 ee ff ff    	mov    %eax,-0x118c(%rbp)
    eae0:	8b 85 74 ee ff ff    	mov    -0x118c(%rbp),%eax
    eae6:	85 c0                	test   %eax,%eax
    eae8:	74 07                	je     eaf1 <func_38+0xf28>
    eaea:	ba 01 00 00 00       	mov    $0x1,%edx
    eaef:	eb 05                	jmp    eaf6 <func_38+0xf2d>
    eaf1:	ba 00 00 00 00       	mov    $0x0,%edx
    eaf6:	48 8b 05 23 cc 00 00 	mov    0xcc23(%rip),%rax        # 1b720 <g_85>
    eafd:	8b 00                	mov    (%rax),%eax
    eaff:	39 c2                	cmp    %eax,%edx
    eb01:	0f 95 c0             	setne  %al
    eb04:	0f b6 d0             	movzbl %al,%edx
    eb07:	8b 85 64 ee ff ff    	mov    -0x119c(%rbp),%eax
    eb0d:	31 c2                	xor    %eax,%edx
    eb0f:	8b 85 38 ee ff ff    	mov    -0x11c8(%rbp),%eax
    eb15:	39 c2                	cmp    %eax,%edx
    eb17:	0f 8e 48 04 00 00    	jle    ef65 <func_38+0x139c>
    eb1d:	c7 85 20 ef ff ff 07 	movl   $0x7,-0x10e0(%rbp)
    eb24:	00 00 00 
    eb27:	48 c7 85 18 f1 ff ff 	movq   $0x0,-0xee8(%rbp)
    eb2e:	00 00 00 00 
    eb32:	c7 85 b8 ee ff ff 00 	movl   $0x0,-0x1148(%rbp)
    eb39:	00 00 00 
    eb3c:	eb 1b                	jmp    eb59 <func_38+0xf90>
    eb3e:	8b 85 b8 ee ff ff    	mov    -0x1148(%rbp),%eax
    eb44:	48 98                	cltq   
    eb46:	48 c7 84 c5 40 f2 ff 	movq   $0x0,-0xdc0(%rbp,%rax,8)
    eb4d:	ff 00 00 00 00 
    eb52:	83 85 b8 ee ff ff 01 	addl   $0x1,-0x1148(%rbp)
    eb59:	83 bd b8 ee ff ff 01 	cmpl   $0x1,-0x1148(%rbp)
    eb60:	7e dc                	jle    eb3e <func_38+0xf75>
    eb62:	c7 85 b8 ee ff ff 00 	movl   $0x0,-0x1148(%rbp)
    eb69:	00 00 00 
    eb6c:	eb 1e                	jmp    eb8c <func_38+0xfc3>
    eb6e:	8b 85 b8 ee ff ff    	mov    -0x1148(%rbp),%eax
    eb74:	48 98                	cltq   
    eb76:	48 8d 15 bb b7 00 00 	lea    0xb7bb(%rip),%rdx        # 1a338 <g_424>
    eb7d:	48 89 94 c5 c0 f8 ff 	mov    %rdx,-0x740(%rbp,%rax,8)
    eb84:	ff 
    eb85:	83 85 b8 ee ff ff 01 	addl   $0x1,-0x1148(%rbp)
    eb8c:	83 bd b8 ee ff ff 04 	cmpl   $0x4,-0x1148(%rbp)
    eb93:	7e d9                	jle    eb6e <func_38+0xfa5>
    eb95:	48 8b 85 30 ef ff ff 	mov    -0x10d0(%rbp),%rax
    eb9c:	0f b7 10             	movzwl (%rax),%edx
    eb9f:	48 8b 85 30 ef ff ff 	mov    -0x10d0(%rbp),%rax
    eba6:	66 81 ca 81 81       	or     $0x8181,%dx
    ebab:	66 89 10             	mov    %dx,(%rax)
    ebae:	0f b7 00             	movzwl (%rax),%eax
    ebb1:	0f bf d0             	movswl %ax,%edx
    ebb4:	48 83 bd c8 f0 ff ff 	cmpq   $0x0,-0xf38(%rbp)
    ebbb:	00 
    ebbc:	0f 95 c0             	setne  %al
    ebbf:	0f b6 c0             	movzbl %al,%eax
    ebc2:	39 c2                	cmp    %eax,%edx
    ebc4:	0f 84 a2 00 00 00    	je     ec6c <func_38+0x10a3>
    ebca:	c7 85 24 ef ff ff cb 	movl   $0x5ebb0ecb,-0x10dc(%rbp)
    ebd1:	0e bb 5e 
    ebd4:	48 c7 85 80 ef ff ff 	movq   $0x0,-0x1080(%rbp)
    ebdb:	00 00 00 00 
    ebdf:	48 8d 85 80 ef ff ff 	lea    -0x1080(%rbp),%rax
    ebe6:	48 89 85 50 f1 ff ff 	mov    %rax,-0xeb0(%rbp)
    ebed:	c7 85 bc ee ff ff 00 	movl   $0x0,-0x1144(%rbp)
    ebf4:	00 00 00 
    ebf7:	eb 1e                	jmp    ec17 <func_38+0x104e>
    ebf9:	8b 85 bc ee ff ff    	mov    -0x1144(%rbp),%eax
    ebff:	48 98                	cltq   
    ec01:	48 8d 95 74 ee ff ff 	lea    -0x118c(%rbp),%rdx
    ec08:	48 89 94 c5 b0 f2 ff 	mov    %rdx,-0xd50(%rbp,%rax,8)
    ec0f:	ff 
    ec10:	83 85 bc ee ff ff 01 	addl   $0x1,-0x1144(%rbp)
    ec17:	83 bd bc ee ff ff 01 	cmpl   $0x1,-0x1144(%rbp)
    ec1e:	7e d9                	jle    ebf9 <func_38+0x1030>
    ec20:	8b 85 74 ee ff ff    	mov    -0x118c(%rbp),%eax
    ec26:	39 85 24 ef ff ff    	cmp    %eax,-0x10dc(%rbp)
    ec2c:	74 2e                	je     ec5c <func_38+0x1093>
    ec2e:	48 8b 85 50 f1 ff ff 	mov    -0xeb0(%rbp),%rax
    ec35:	48 8d 15 ac b4 00 00 	lea    0xb4ac(%rip),%rdx        # 1a0e8 <g_171+0x8>
    ec3c:	48 89 10             	mov    %rdx,(%rax)
    ec3f:	48 8b 85 50 f1 ff ff 	mov    -0xeb0(%rbp),%rax
    ec46:	48 8b 00             	mov    (%rax),%rax
    ec49:	48 8d 15 d8 b3 00 00 	lea    0xb3d8(%rip),%rdx        # 1a028 <g_7>
    ec50:	48 39 d0             	cmp    %rdx,%rax
    ec53:	74 07                	je     ec5c <func_38+0x1093>
    ec55:	b8 01 00 00 00       	mov    $0x1,%eax
    ec5a:	eb 05                	jmp    ec61 <func_38+0x1098>
    ec5c:	b8 00 00 00 00       	mov    $0x0,%eax
    ec61:	89 85 7c ee ff ff    	mov    %eax,-0x1184(%rbp)
    ec67:	e9 56 02 00 00       	jmpq   eec2 <func_38+0x12f9>
    ec6c:	48 8d 85 7c ee ff ff 	lea    -0x1184(%rbp),%rax
    ec73:	48 89 85 20 f1 ff ff 	mov    %rax,-0xee0(%rbp)
    ec7a:	48 c7 85 28 f1 ff ff 	movq   $0x0,-0xed8(%rbp)
    ec81:	00 00 00 00 
    ec85:	48 8d 85 5c ee ff ff 	lea    -0x11a4(%rbp),%rax
    ec8c:	48 89 85 30 f1 ff ff 	mov    %rax,-0xed0(%rbp)
    ec93:	48 8d 85 78 ee ff ff 	lea    -0x1188(%rbp),%rax
    ec9a:	48 89 85 38 f1 ff ff 	mov    %rax,-0xec8(%rbp)
    eca1:	48 8d 05 98 b6 00 00 	lea    0xb698(%rip),%rax        # 1a340 <g_454>
    eca8:	48 89 85 40 f1 ff ff 	mov    %rax,-0xec0(%rbp)
    ecaf:	48 8d 85 8c ee ff ff 	lea    -0x1174(%rbp),%rax
    ecb6:	48 89 85 48 f1 ff ff 	mov    %rax,-0xeb8(%rbp)
    ecbd:	0f b6 05 06 b4 00 00 	movzbl 0xb406(%rip),%eax        # 1a0ca <g_162>
    ecc4:	0f b6 d8             	movzbl %al,%ebx
    ecc7:	48 8b 05 5a b6 00 00 	mov    0xb65a(%rip),%rax        # 1a328 <g_395>
    ecce:	49 89 c4             	mov    %rax,%r12
    ecd1:	48 8b 85 c8 f0 ff ff 	mov    -0xf38(%rbp),%rax
    ecd8:	41 89 c5             	mov    %eax,%r13d
    ecdb:	48 8b 85 30 f1 ff ff 	mov    -0xed0(%rbp),%rax
    ece2:	0f b6 00             	movzbl (%rax),%eax
    ece5:	89 c2                	mov    %eax,%edx
    ece7:	8b 05 bb b3 00 00    	mov    0xb3bb(%rip),%eax        # 1a0a8 <g_60>
    eced:	21 d0                	and    %edx,%eax
    ecef:	89 c2                	mov    %eax,%edx
    ecf1:	48 8b 85 30 f1 ff ff 	mov    -0xed0(%rbp),%rax
    ecf8:	88 10                	mov    %dl,(%rax)
    ecfa:	48 8b 85 c8 f0 ff ff 	mov    -0xf38(%rbp),%rax
    ed01:	89 c1                	mov    %eax,%ecx
    ed03:	8b 95 74 ee ff ff    	mov    -0x118c(%rbp),%edx
    ed09:	8b 85 38 ee ff ff    	mov    -0x11c8(%rbp),%eax
    ed0f:	39 c2                	cmp    %eax,%edx
    ed11:	0f 9e c0             	setle  %al
    ed14:	0f b6 c0             	movzbl %al,%eax
    ed17:	89 ce                	mov    %ecx,%esi
    ed19:	89 c7                	mov    %eax,%edi
    ed1b:	e8 28 81 ff ff       	callq  6e48 <safe_rshift_func_uint16_t_u_s>
    ed20:	0f be c0             	movsbl %al,%eax
    ed23:	be 01 00 00 00       	mov    $0x1,%esi
    ed28:	89 c7                	mov    %eax,%edi
    ed2a:	e8 3d 76 ff ff       	callq  636c <safe_rshift_func_int8_t_s_u>
    ed2f:	0f be d0             	movsbl %al,%edx
    ed32:	8b 85 64 ee ff ff    	mov    -0x119c(%rbp),%eax
    ed38:	39 c2                	cmp    %eax,%edx
    ed3a:	0f 95 c0             	setne  %al
    ed3d:	0f b6 c0             	movzbl %al,%eax
    ed40:	48 39 85 40 ee ff ff 	cmp    %rax,-0x11c0(%rbp)
    ed47:	0f 9e c0             	setle  %al
    ed4a:	0f b6 c0             	movzbl %al,%eax
    ed4d:	be f9 ff ff ff       	mov    $0xfffffff9,%esi
    ed52:	89 c7                	mov    %eax,%edi
    ed54:	e8 5a 76 ff ff       	callq  63b3 <safe_add_func_int16_t_s_s>
    ed59:	89 c2                	mov    %eax,%edx
    ed5b:	48 8b 85 30 f1 ff ff 	mov    -0xed0(%rbp),%rax
    ed62:	88 10                	mov    %dl,(%rax)
    ed64:	8b 15 b2 b3 00 00    	mov    0xb3b2(%rip),%edx        # 1a11c <g_235>
    ed6a:	48 8b 85 30 ef ff ff 	mov    -0x10d0(%rbp),%rax
    ed71:	66 89 10             	mov    %dx,(%rax)
    ed74:	0f b7 00             	movzwl (%rax),%eax
    ed77:	0f bf d0             	movswl %ax,%edx
    ed7a:	8b 05 e8 d9 00 00    	mov    0xd9e8(%rip),%eax        # 1c768 <g_4>
    ed80:	3d de fe 00 00       	cmp    $0xfede,%eax
    ed85:	0f 9e c0             	setle  %al
    ed88:	0f b6 c0             	movzbl %al,%eax
    ed8b:	09 d0                	or     %edx,%eax
    ed8d:	85 c0                	test   %eax,%eax
    ed8f:	75 0a                	jne    ed9b <func_38+0x11d2>
    ed91:	8b 85 8c ee ff ff    	mov    -0x1174(%rbp),%eax
    ed97:	85 c0                	test   %eax,%eax
    ed99:	74 07                	je     eda2 <func_38+0x11d9>
    ed9b:	b8 01 00 00 00       	mov    $0x1,%eax
    eda0:	eb 05                	jmp    eda7 <func_38+0x11de>
    eda2:	b8 00 00 00 00       	mov    $0x0,%eax
    eda7:	89 c2                	mov    %eax,%edx
    eda9:	48 8b 05 78 c9 00 00 	mov    0xc978(%rip),%rax        # 1b728 <g_159>
    edb0:	8b 00                	mov    (%rax),%eax
    edb2:	39 c2                	cmp    %eax,%edx
    edb4:	0f 95 c0             	setne  %al
    edb7:	0f b6 d0             	movzbl %al,%edx
    edba:	8b 85 38 ee ff ff    	mov    -0x11c8(%rbp),%eax
    edc0:	39 c2                	cmp    %eax,%edx
    edc2:	0f 9d c0             	setge  %al
    edc5:	89 c2                	mov    %eax,%edx
    edc7:	48 8b 85 c8 f0 ff ff 	mov    -0xf38(%rbp),%rax
    edce:	31 d0                	xor    %edx,%eax
    edd0:	0f b6 c0             	movzbl %al,%eax
    edd3:	44 89 ee             	mov    %r13d,%esi
    edd6:	89 c7                	mov    %eax,%edi
    edd8:	e8 28 7e ff ff       	callq  6c05 <safe_lshift_func_uint8_t_u_s>
    eddd:	48 8b 05 64 c9 00 00 	mov    0xc964(%rip),%rax        # 1b748 <g_321>
    ede4:	48 85 c0             	test   %rax,%rax
    ede7:	0f 95 c0             	setne  %al
    edea:	0f b6 d0             	movzbl %al,%edx
    eded:	8b 85 74 ee ff ff    	mov    -0x118c(%rbp),%eax
    edf3:	39 c2                	cmp    %eax,%edx
    edf5:	0f 9e c0             	setle  %al
    edf8:	0f b6 c0             	movzbl %al,%eax
    edfb:	be 0e 00 00 00       	mov    $0xe,%esi
    ee00:	89 c7                	mov    %eax,%edi
    ee02:	e8 ff 7f ff ff       	callq  6e06 <safe_lshift_func_uint16_t_u_u>
    ee07:	0f b7 c0             	movzwl %ax,%eax
    ee0a:	4c 89 e6             	mov    %r12,%rsi
    ee0d:	48 89 c7             	mov    %rax,%rdi
    ee10:	e8 93 7a ff ff       	callq  68a8 <safe_sub_func_int64_t_s_s>
    ee15:	48 89 de             	mov    %rbx,%rsi
    ee18:	48 89 c7             	mov    %rax,%rdi
    ee1b:	e8 8f 82 ff ff       	callq  70af <safe_div_func_uint64_t_u_u>
    ee20:	89 c2                	mov    %eax,%edx
    ee22:	48 8b 85 38 f1 ff ff 	mov    -0xec8(%rbp),%rax
    ee29:	89 10                	mov    %edx,(%rax)
    ee2b:	48 8b 85 38 f1 ff ff 	mov    -0xec8(%rbp),%rax
    ee32:	8b 10                	mov    (%rax),%edx
    ee34:	48 8b 05 ed c8 00 00 	mov    0xc8ed(%rip),%rax        # 1b728 <g_159>
    ee3b:	8b 00                	mov    (%rax),%eax
    ee3d:	89 d6                	mov    %edx,%esi
    ee3f:	89 c7                	mov    %eax,%edi
    ee41:	e8 b7 80 ff ff       	callq  6efd <safe_mod_func_uint32_t_u_u>
    ee46:	89 c2                	mov    %eax,%edx
    ee48:	48 8b 85 40 f1 ff ff 	mov    -0xec0(%rbp),%rax
    ee4f:	88 10                	mov    %dl,(%rax)
    ee51:	48 8b 85 40 f1 ff ff 	mov    -0xec0(%rbp),%rax
    ee58:	0f b6 00             	movzbl (%rax),%eax
    ee5b:	0f be d0             	movsbl %al,%edx
    ee5e:	48 8b 05 bb c8 00 00 	mov    0xc8bb(%rip),%rax        # 1b720 <g_85>
    ee65:	8b 08                	mov    (%rax),%ecx
    ee67:	48 8b 85 20 f1 ff ff 	mov    -0xee0(%rbp),%rax
    ee6e:	89 08                	mov    %ecx,(%rax)
    ee70:	48 8b 85 20 f1 ff ff 	mov    -0xee0(%rbp),%rax
    ee77:	8b 08                	mov    (%rax),%ecx
    ee79:	8b 85 38 ee ff ff    	mov    -0x11c8(%rbp),%eax
    ee7f:	39 c1                	cmp    %eax,%ecx
    ee81:	0f 9c c0             	setl   %al
    ee84:	0f b6 c0             	movzbl %al,%eax
    ee87:	89 d6                	mov    %edx,%esi
    ee89:	89 c7                	mov    %eax,%edi
    ee8b:	e8 11 74 ff ff       	callq  62a1 <safe_lshift_func_int8_t_s_s>
    ee90:	48 0f be c0          	movsbq %al,%rax
    ee94:	48 39 85 c8 f0 ff ff 	cmp    %rax,-0xf38(%rbp)
    ee9b:	7c 07                	jl     eea4 <func_38+0x12db>
    ee9d:	ba 15 a8 56 2b       	mov    $0x2b56a815,%edx
    eea2:	eb 05                	jmp    eea9 <func_38+0x12e0>
    eea4:	ba 14 a8 56 2b       	mov    $0x2b56a814,%edx
    eea9:	48 8b 85 48 f1 ff ff 	mov    -0xeb8(%rbp),%rax
    eeb0:	89 10                	mov    %edx,(%rax)
    eeb2:	0f b7 05 77 b4 00 00 	movzwl 0xb477(%rip),%eax        # 1a330 <g_397>
    eeb9:	66 85 c0             	test   %ax,%ax
    eebc:	0f 85 c1 ee ff ff    	jne    dd83 <func_38+0x1ba>
    eec2:	8b 85 64 ee ff ff    	mov    -0x119c(%rbp),%eax
    eec8:	48 63 d8             	movslq %eax,%rbx
    eecb:	48 8b 05 76 ca 00 00 	mov    0xca76(%rip),%rax        # 1b948 <g_407>
    eed2:	48 8b 95 d8 f0 ff ff 	mov    -0xf28(%rbp),%rdx
    eed9:	48 89 10             	mov    %rdx,(%rax)
    eedc:	be 07 00 00 00       	mov    $0x7,%esi
    eee1:	bf 00 00 00 00       	mov    $0x0,%edi
    eee6:	e8 14 78 ff ff       	callq  66ff <safe_div_func_int32_t_s_s>
    eeeb:	85 c0                	test   %eax,%eax
    eeed:	75 08                	jne    eef7 <func_38+0x132e>
    eeef:	8b 85 78 ee ff ff    	mov    -0x1188(%rbp),%eax
    eef5:	85 c0                	test   %eax,%eax
    eef7:	48 8b 85 00 f6 ff ff 	mov    -0xa00(%rbp),%rax
    eefe:	48 85 c0             	test   %rax,%rax
    ef01:	0f 95 c0             	setne  %al
    ef04:	0f b6 c0             	movzbl %al,%eax
    ef07:	39 85 3c ee ff ff    	cmp    %eax,-0x11c4(%rbp)
    ef0d:	0f 93 c0             	setae  %al
    ef10:	0f b6 c0             	movzbl %al,%eax
    ef13:	39 85 3c ee ff ff    	cmp    %eax,-0x11c4(%rbp)
    ef19:	76 08                	jbe    ef23 <func_38+0x135a>
    ef1b:	8b 85 64 ee ff ff    	mov    -0x119c(%rbp),%eax
    ef21:	85 c0                	test   %eax,%eax
    ef23:	0f b6 85 5c ee ff ff 	movzbl -0x11a4(%rbp),%eax
    ef2a:	0f be c0             	movsbl %al,%eax
    ef2d:	89 c6                	mov    %eax,%esi
    ef2f:	bf 36 fe 00 00       	mov    $0xfe36,%edi
    ef34:	e8 0f 7f ff ff       	callq  6e48 <safe_rshift_func_uint16_t_u_s>
    ef39:	0f b7 c0             	movzwl %ax,%eax
    ef3c:	48 89 de             	mov    %rbx,%rsi
    ef3f:	48 89 c7             	mov    %rax,%rdi
    ef42:	e8 6d 7a ff ff       	callq  69b4 <safe_mod_func_int64_t_s_s>
    ef47:	8b 85 7c ee ff ff    	mov    -0x1184(%rbp),%eax
    ef4d:	33 85 3c ee ff ff    	xor    -0x11c4(%rbp),%eax
    ef53:	89 85 7c ee ff ff    	mov    %eax,-0x1184(%rbp)
    ef59:	48 8b 85 48 ee ff ff 	mov    -0x11b8(%rbp),%rax
    ef60:	e9 09 2a 00 00       	jmpq   1196e <func_38+0x3da5>
    ef65:	48 8d 85 74 ee ff ff 	lea    -0x118c(%rbp),%rax
    ef6c:	48 89 85 e8 f0 ff ff 	mov    %rax,-0xf18(%rbp)
    ef73:	48 8d 85 7c ee ff ff 	lea    -0x1184(%rbp),%rax
    ef7a:	48 89 85 f0 f0 ff ff 	mov    %rax,-0xf10(%rbp)
    ef81:	48 8d 85 74 ee ff ff 	lea    -0x118c(%rbp),%rax
    ef88:	48 89 85 f8 f0 ff ff 	mov    %rax,-0xf08(%rbp)
    ef8f:	48 8d 05 22 b1 00 00 	lea    0xb122(%rip),%rax        # 1a0b8 <g_86+0x8>
    ef96:	48 89 85 00 f1 ff ff 	mov    %rax,-0xf00(%rbp)
    ef9d:	48 8d 85 8c ee ff ff 	lea    -0x1174(%rbp),%rax
    efa4:	48 89 85 08 f1 ff ff 	mov    %rax,-0xef8(%rbp)
    efab:	48 c7 85 c0 f8 ff ff 	movq   $0x0,-0x740(%rbp)
    efb2:	00 00 00 00 
    efb6:	48 8d 85 8c ee ff ff 	lea    -0x1174(%rbp),%rax
    efbd:	48 89 85 c8 f8 ff ff 	mov    %rax,-0x738(%rbp)
    efc4:	48 8d 85 74 ee ff ff 	lea    -0x118c(%rbp),%rax
    efcb:	48 89 85 d0 f8 ff ff 	mov    %rax,-0x730(%rbp)
    efd2:	48 8d 85 74 ee ff ff 	lea    -0x118c(%rbp),%rax
    efd9:	48 89 85 d8 f8 ff ff 	mov    %rax,-0x728(%rbp)
    efe0:	48 8d 85 8c ee ff ff 	lea    -0x1174(%rbp),%rax
    efe7:	48 89 85 e0 f8 ff ff 	mov    %rax,-0x720(%rbp)
    efee:	48 c7 85 e8 f8 ff ff 	movq   $0x0,-0x718(%rbp)
    eff5:	00 00 00 00 
    eff9:	48 c7 85 f0 f8 ff ff 	movq   $0x0,-0x710(%rbp)
    f000:	00 00 00 00 
    f004:	48 c7 85 f8 f8 ff ff 	movq   $0x0,-0x708(%rbp)
    f00b:	00 00 00 00 
    f00f:	48 8d 85 8c ee ff ff 	lea    -0x1174(%rbp),%rax
    f016:	48 89 85 00 f9 ff ff 	mov    %rax,-0x700(%rbp)
    f01d:	48 c7 85 08 f9 ff ff 	movq   $0x0,-0x6f8(%rbp)
    f024:	00 00 00 00 
    f028:	48 8d 85 8c ee ff ff 	lea    -0x1174(%rbp),%rax
    f02f:	48 89 85 10 f9 ff ff 	mov    %rax,-0x6f0(%rbp)
    f036:	48 8d 85 8c ee ff ff 	lea    -0x1174(%rbp),%rax
    f03d:	48 89 85 18 f9 ff ff 	mov    %rax,-0x6e8(%rbp)
    f044:	48 c7 85 20 f9 ff ff 	movq   $0x0,-0x6e0(%rbp)
    f04b:	00 00 00 00 
    f04f:	48 8d 05 62 b0 00 00 	lea    0xb062(%rip),%rax        # 1a0b8 <g_86+0x8>
    f056:	48 89 85 28 f9 ff ff 	mov    %rax,-0x6d8(%rbp)
    f05d:	48 8d 85 8c ee ff ff 	lea    -0x1174(%rbp),%rax
    f064:	48 89 85 30 f9 ff ff 	mov    %rax,-0x6d0(%rbp)
    f06b:	48 8d 05 46 b0 00 00 	lea    0xb046(%rip),%rax        # 1a0b8 <g_86+0x8>
    f072:	48 89 85 38 f9 ff ff 	mov    %rax,-0x6c8(%rbp)
    f079:	48 c7 85 40 f9 ff ff 	movq   $0x0,-0x6c0(%rbp)
    f080:	00 00 00 00 
    f084:	48 8d 85 8c ee ff ff 	lea    -0x1174(%rbp),%rax
    f08b:	48 89 85 48 f9 ff ff 	mov    %rax,-0x6b8(%rbp)
    f092:	48 8d 05 1f b0 00 00 	lea    0xb01f(%rip),%rax        # 1a0b8 <g_86+0x8>
    f099:	48 89 85 50 f9 ff ff 	mov    %rax,-0x6b0(%rbp)
    f0a0:	48 8d 05 11 b0 00 00 	lea    0xb011(%rip),%rax        # 1a0b8 <g_86+0x8>
    f0a7:	48 89 85 58 f9 ff ff 	mov    %rax,-0x6a8(%rbp)
    f0ae:	48 c7 85 60 f9 ff ff 	movq   $0x0,-0x6a0(%rbp)
    f0b5:	00 00 00 00 
    f0b9:	48 8d 85 8c ee ff ff 	lea    -0x1174(%rbp),%rax
    f0c0:	48 89 85 68 f9 ff ff 	mov    %rax,-0x698(%rbp)
    f0c7:	48 c7 85 70 f9 ff ff 	movq   $0x0,-0x690(%rbp)
    f0ce:	00 00 00 00 
    f0d2:	48 8d 85 8c ee ff ff 	lea    -0x1174(%rbp),%rax
    f0d9:	48 89 85 78 f9 ff ff 	mov    %rax,-0x688(%rbp)
    f0e0:	48 c7 85 80 f9 ff ff 	movq   $0x0,-0x680(%rbp)
    f0e7:	00 00 00 00 
    f0eb:	48 8d 05 c6 af 00 00 	lea    0xafc6(%rip),%rax        # 1a0b8 <g_86+0x8>
    f0f2:	48 89 85 88 f9 ff ff 	mov    %rax,-0x678(%rbp)
    f0f9:	48 8d 05 b8 af 00 00 	lea    0xafb8(%rip),%rax        # 1a0b8 <g_86+0x8>
    f100:	48 89 85 90 f9 ff ff 	mov    %rax,-0x670(%rbp)
    f107:	48 8d 85 8c ee ff ff 	lea    -0x1174(%rbp),%rax
    f10e:	48 89 85 98 f9 ff ff 	mov    %rax,-0x668(%rbp)
    f115:	48 c7 85 a0 f9 ff ff 	movq   $0x0,-0x660(%rbp)
    f11c:	00 00 00 00 
    f120:	48 8d 05 91 af 00 00 	lea    0xaf91(%rip),%rax        # 1a0b8 <g_86+0x8>
    f127:	48 89 85 a8 f9 ff ff 	mov    %rax,-0x658(%rbp)
    f12e:	48 8d 85 8c ee ff ff 	lea    -0x1174(%rbp),%rax
    f135:	48 89 85 b0 f9 ff ff 	mov    %rax,-0x650(%rbp)
    f13c:	48 8d 05 75 af 00 00 	lea    0xaf75(%rip),%rax        # 1a0b8 <g_86+0x8>
    f143:	48 89 85 b8 f9 ff ff 	mov    %rax,-0x648(%rbp)
    f14a:	48 c7 85 c0 f9 ff ff 	movq   $0x0,-0x640(%rbp)
    f151:	00 00 00 00 
    f155:	48 8d 85 8c ee ff ff 	lea    -0x1174(%rbp),%rax
    f15c:	48 89 85 c8 f9 ff ff 	mov    %rax,-0x638(%rbp)
    f163:	48 8d 85 8c ee ff ff 	lea    -0x1174(%rbp),%rax
    f16a:	48 89 85 d0 f9 ff ff 	mov    %rax,-0x630(%rbp)
    f171:	48 c7 85 d8 f9 ff ff 	movq   $0x0,-0x628(%rbp)
    f178:	00 00 00 00 
    f17c:	48 8d 85 8c ee ff ff 	lea    -0x1174(%rbp),%rax
    f183:	48 89 85 e0 f9 ff ff 	mov    %rax,-0x620(%rbp)
    f18a:	48 c7 85 e8 f9 ff ff 	movq   $0x0,-0x618(%rbp)
    f191:	00 00 00 00 
    f195:	48 c7 85 f0 f9 ff ff 	movq   $0x0,-0x610(%rbp)
    f19c:	00 00 00 00 
    f1a0:	48 c7 85 f8 f9 ff ff 	movq   $0x0,-0x608(%rbp)
    f1a7:	00 00 00 00 
    f1ab:	48 8d 85 8c ee ff ff 	lea    -0x1174(%rbp),%rax
    f1b2:	48 89 85 00 fa ff ff 	mov    %rax,-0x600(%rbp)
    f1b9:	48 8d 85 74 ee ff ff 	lea    -0x118c(%rbp),%rax
    f1c0:	48 89 85 08 fa ff ff 	mov    %rax,-0x5f8(%rbp)
    f1c7:	48 8d 85 74 ee ff ff 	lea    -0x118c(%rbp),%rax
    f1ce:	48 89 85 10 fa ff ff 	mov    %rax,-0x5f0(%rbp)
    f1d5:	48 8d 85 8c ee ff ff 	lea    -0x1174(%rbp),%rax
    f1dc:	48 89 85 18 fa ff ff 	mov    %rax,-0x5e8(%rbp)
    f1e3:	48 c7 85 20 fa ff ff 	movq   $0x0,-0x5e0(%rbp)
    f1ea:	00 00 00 00 
    f1ee:	48 8d 85 8c ee ff ff 	lea    -0x1174(%rbp),%rax
    f1f5:	48 89 85 28 fa ff ff 	mov    %rax,-0x5d8(%rbp)
    f1fc:	48 8d 05 b5 ae 00 00 	lea    0xaeb5(%rip),%rax        # 1a0b8 <g_86+0x8>
    f203:	48 89 85 30 fa ff ff 	mov    %rax,-0x5d0(%rbp)
    f20a:	48 8d 85 8c ee ff ff 	lea    -0x1174(%rbp),%rax
    f211:	48 89 85 38 fa ff ff 	mov    %rax,-0x5c8(%rbp)
    f218:	48 8d 85 74 ee ff ff 	lea    -0x118c(%rbp),%rax
    f21f:	48 89 85 40 fa ff ff 	mov    %rax,-0x5c0(%rbp)
    f226:	48 c7 85 48 fa ff ff 	movq   $0x0,-0x5b8(%rbp)
    f22d:	00 00 00 00 
    f231:	48 c7 85 50 fa ff ff 	movq   $0x0,-0x5b0(%rbp)
    f238:	00 00 00 00 
    f23c:	48 8d 85 74 ee ff ff 	lea    -0x118c(%rbp),%rax
    f243:	48 89 85 58 fa ff ff 	mov    %rax,-0x5a8(%rbp)
    f24a:	48 8d 85 8c ee ff ff 	lea    -0x1174(%rbp),%rax
    f251:	48 89 85 60 fa ff ff 	mov    %rax,-0x5a0(%rbp)
    f258:	48 8d 05 59 ae 00 00 	lea    0xae59(%rip),%rax        # 1a0b8 <g_86+0x8>
    f25f:	48 89 85 68 fa ff ff 	mov    %rax,-0x598(%rbp)
    f266:	48 8d 05 4b ae 00 00 	lea    0xae4b(%rip),%rax        # 1a0b8 <g_86+0x8>
    f26d:	48 89 85 70 fa ff ff 	mov    %rax,-0x590(%rbp)
    f274:	48 8d 85 8c ee ff ff 	lea    -0x1174(%rbp),%rax
    f27b:	48 89 85 78 fa ff ff 	mov    %rax,-0x588(%rbp)
    f282:	48 8d 85 74 ee ff ff 	lea    -0x118c(%rbp),%rax
    f289:	48 89 85 80 fa ff ff 	mov    %rax,-0x580(%rbp)
    f290:	48 c7 85 88 fa ff ff 	movq   $0x0,-0x578(%rbp)
    f297:	00 00 00 00 
    f29b:	48 c7 85 90 fa ff ff 	movq   $0x0,-0x570(%rbp)
    f2a2:	00 00 00 00 
    f2a6:	48 8d 85 74 ee ff ff 	lea    -0x118c(%rbp),%rax
    f2ad:	48 89 85 98 fa ff ff 	mov    %rax,-0x568(%rbp)
    f2b4:	48 8d 85 8c ee ff ff 	lea    -0x1174(%rbp),%rax
    f2bb:	48 89 85 a0 fa ff ff 	mov    %rax,-0x560(%rbp)
    f2c2:	48 8d 05 ef ad 00 00 	lea    0xadef(%rip),%rax        # 1a0b8 <g_86+0x8>
    f2c9:	48 89 85 a8 fa ff ff 	mov    %rax,-0x558(%rbp)
    f2d0:	48 8d 85 8c ee ff ff 	lea    -0x1174(%rbp),%rax
    f2d7:	48 89 85 b0 fa ff ff 	mov    %rax,-0x550(%rbp)
    f2de:	48 c7 85 b8 fa ff ff 	movq   $0x0,-0x548(%rbp)
    f2e5:	00 00 00 00 
    f2e9:	48 8d 85 8c ee ff ff 	lea    -0x1174(%rbp),%rax
    f2f0:	48 89 85 c0 fa ff ff 	mov    %rax,-0x540(%rbp)
    f2f7:	48 8d 85 74 ee ff ff 	lea    -0x118c(%rbp),%rax
    f2fe:	48 89 85 c8 fa ff ff 	mov    %rax,-0x538(%rbp)
    f305:	48 8d 85 74 ee ff ff 	lea    -0x118c(%rbp),%rax
    f30c:	48 89 85 d0 fa ff ff 	mov    %rax,-0x530(%rbp)
    f313:	48 8d 85 8c ee ff ff 	lea    -0x1174(%rbp),%rax
    f31a:	48 89 85 d8 fa ff ff 	mov    %rax,-0x528(%rbp)
    f321:	48 c7 85 e0 fa ff ff 	movq   $0x0,-0x520(%rbp)
    f328:	00 00 00 00 
    f32c:	48 c7 85 e8 fa ff ff 	movq   $0x0,-0x518(%rbp)
    f333:	00 00 00 00 
    f337:	48 c7 85 f0 fa ff ff 	movq   $0x0,-0x510(%rbp)
    f33e:	00 00 00 00 
    f342:	48 8d 85 8c ee ff ff 	lea    -0x1174(%rbp),%rax
    f349:	48 89 85 f8 fa ff ff 	mov    %rax,-0x508(%rbp)
    f350:	48 c7 85 00 fb ff ff 	movq   $0x0,-0x500(%rbp)
    f357:	00 00 00 00 
    f35b:	48 8d 85 8c ee ff ff 	lea    -0x1174(%rbp),%rax
    f362:	48 89 85 08 fb ff ff 	mov    %rax,-0x4f8(%rbp)
    f369:	48 8d 85 8c ee ff ff 	lea    -0x1174(%rbp),%rax
    f370:	48 89 85 10 fb ff ff 	mov    %rax,-0x4f0(%rbp)
    f377:	48 c7 85 18 fb ff ff 	movq   $0x0,-0x4e8(%rbp)
    f37e:	00 00 00 00 
    f382:	48 8d 05 2f ad 00 00 	lea    0xad2f(%rip),%rax        # 1a0b8 <g_86+0x8>
    f389:	48 89 85 20 fb ff ff 	mov    %rax,-0x4e0(%rbp)
    f390:	48 8d 85 8c ee ff ff 	lea    -0x1174(%rbp),%rax
    f397:	48 89 85 28 fb ff ff 	mov    %rax,-0x4d8(%rbp)
    f39e:	48 8d 05 13 ad 00 00 	lea    0xad13(%rip),%rax        # 1a0b8 <g_86+0x8>
    f3a5:	48 89 85 30 fb ff ff 	mov    %rax,-0x4d0(%rbp)
    f3ac:	48 c7 85 38 fb ff ff 	movq   $0x0,-0x4c8(%rbp)
    f3b3:	00 00 00 00 
    f3b7:	48 8d 85 8c ee ff ff 	lea    -0x1174(%rbp),%rax
    f3be:	48 89 85 40 fb ff ff 	mov    %rax,-0x4c0(%rbp)
    f3c5:	48 8d 05 ec ac 00 00 	lea    0xacec(%rip),%rax        # 1a0b8 <g_86+0x8>
    f3cc:	48 89 85 48 fb ff ff 	mov    %rax,-0x4b8(%rbp)
    f3d3:	48 8d 05 de ac 00 00 	lea    0xacde(%rip),%rax        # 1a0b8 <g_86+0x8>
    f3da:	48 89 85 50 fb ff ff 	mov    %rax,-0x4b0(%rbp)
    f3e1:	48 c7 85 58 fb ff ff 	movq   $0x0,-0x4a8(%rbp)
    f3e8:	00 00 00 00 
    f3ec:	48 8d 85 8c ee ff ff 	lea    -0x1174(%rbp),%rax
    f3f3:	48 89 85 60 fb ff ff 	mov    %rax,-0x4a0(%rbp)
    f3fa:	48 c7 85 68 fb ff ff 	movq   $0x0,-0x498(%rbp)
    f401:	00 00 00 00 
    f405:	48 8d 85 8c ee ff ff 	lea    -0x1174(%rbp),%rax
    f40c:	48 89 85 70 fb ff ff 	mov    %rax,-0x490(%rbp)
    f413:	48 c7 85 78 fb ff ff 	movq   $0x0,-0x488(%rbp)
    f41a:	00 00 00 00 
    f41e:	48 8d 05 93 ac 00 00 	lea    0xac93(%rip),%rax        # 1a0b8 <g_86+0x8>
    f425:	48 89 85 80 fb ff ff 	mov    %rax,-0x480(%rbp)
    f42c:	48 8d 05 85 ac 00 00 	lea    0xac85(%rip),%rax        # 1a0b8 <g_86+0x8>
    f433:	48 89 85 88 fb ff ff 	mov    %rax,-0x478(%rbp)
    f43a:	48 8d 85 8c ee ff ff 	lea    -0x1174(%rbp),%rax
    f441:	48 89 85 90 fb ff ff 	mov    %rax,-0x470(%rbp)
    f448:	48 c7 85 98 fb ff ff 	movq   $0x0,-0x468(%rbp)
    f44f:	00 00 00 00 
    f453:	48 8d 05 5e ac 00 00 	lea    0xac5e(%rip),%rax        # 1a0b8 <g_86+0x8>
    f45a:	48 89 85 a0 fb ff ff 	mov    %rax,-0x460(%rbp)
    f461:	48 8d 85 8c ee ff ff 	lea    -0x1174(%rbp),%rax
    f468:	48 89 85 a8 fb ff ff 	mov    %rax,-0x458(%rbp)
    f46f:	48 8d 05 42 ac 00 00 	lea    0xac42(%rip),%rax        # 1a0b8 <g_86+0x8>
    f476:	48 89 85 b0 fb ff ff 	mov    %rax,-0x450(%rbp)
    f47d:	48 c7 85 b8 fb ff ff 	movq   $0x0,-0x448(%rbp)
    f484:	00 00 00 00 
    f488:	48 8d 85 8c ee ff ff 	lea    -0x1174(%rbp),%rax
    f48f:	48 89 85 c0 fb ff ff 	mov    %rax,-0x440(%rbp)
    f496:	48 8d 85 8c ee ff ff 	lea    -0x1174(%rbp),%rax
    f49d:	48 89 85 c8 fb ff ff 	mov    %rax,-0x438(%rbp)
    f4a4:	48 c7 85 d0 fb ff ff 	movq   $0x0,-0x430(%rbp)
    f4ab:	00 00 00 00 
    f4af:	48 8d 85 8c ee ff ff 	lea    -0x1174(%rbp),%rax
    f4b6:	48 89 85 d8 fb ff ff 	mov    %rax,-0x428(%rbp)
    f4bd:	48 c7 85 e0 fb ff ff 	movq   $0x0,-0x420(%rbp)
    f4c4:	00 00 00 00 
    f4c8:	48 c7 85 e8 fb ff ff 	movq   $0x0,-0x418(%rbp)
    f4cf:	00 00 00 00 
    f4d3:	48 c7 85 f0 fb ff ff 	movq   $0x0,-0x410(%rbp)
    f4da:	00 00 00 00 
    f4de:	48 8d 85 8c ee ff ff 	lea    -0x1174(%rbp),%rax
    f4e5:	48 89 85 f8 fb ff ff 	mov    %rax,-0x408(%rbp)
    f4ec:	48 8d 85 74 ee ff ff 	lea    -0x118c(%rbp),%rax
    f4f3:	48 89 85 00 fc ff ff 	mov    %rax,-0x400(%rbp)
    f4fa:	48 8d 85 74 ee ff ff 	lea    -0x118c(%rbp),%rax
    f501:	48 89 85 08 fc ff ff 	mov    %rax,-0x3f8(%rbp)
    f508:	48 8d 85 8c ee ff ff 	lea    -0x1174(%rbp),%rax
    f50f:	48 89 85 10 fc ff ff 	mov    %rax,-0x3f0(%rbp)
    f516:	48 c7 85 18 fc ff ff 	movq   $0x0,-0x3e8(%rbp)
    f51d:	00 00 00 00 
    f521:	48 8d 85 8c ee ff ff 	lea    -0x1174(%rbp),%rax
    f528:	48 89 85 20 fc ff ff 	mov    %rax,-0x3e0(%rbp)
    f52f:	48 8d 05 82 ab 00 00 	lea    0xab82(%rip),%rax        # 1a0b8 <g_86+0x8>
    f536:	48 89 85 28 fc ff ff 	mov    %rax,-0x3d8(%rbp)
    f53d:	48 8d 85 8c ee ff ff 	lea    -0x1174(%rbp),%rax
    f544:	48 89 85 30 fc ff ff 	mov    %rax,-0x3d0(%rbp)
    f54b:	48 8d 85 74 ee ff ff 	lea    -0x118c(%rbp),%rax
    f552:	48 89 85 38 fc ff ff 	mov    %rax,-0x3c8(%rbp)
    f559:	48 c7 85 40 fc ff ff 	movq   $0x0,-0x3c0(%rbp)
    f560:	00 00 00 00 
    f564:	48 c7 85 48 fc ff ff 	movq   $0x0,-0x3b8(%rbp)
    f56b:	00 00 00 00 
    f56f:	48 8d 85 74 ee ff ff 	lea    -0x118c(%rbp),%rax
    f576:	48 89 85 50 fc ff ff 	mov    %rax,-0x3b0(%rbp)
    f57d:	48 8d 85 8c ee ff ff 	lea    -0x1174(%rbp),%rax
    f584:	48 89 85 58 fc ff ff 	mov    %rax,-0x3a8(%rbp)
    f58b:	48 8d 05 26 ab 00 00 	lea    0xab26(%rip),%rax        # 1a0b8 <g_86+0x8>
    f592:	48 89 85 60 fc ff ff 	mov    %rax,-0x3a0(%rbp)
    f599:	48 8d 05 18 ab 00 00 	lea    0xab18(%rip),%rax        # 1a0b8 <g_86+0x8>
    f5a0:	48 89 85 68 fc ff ff 	mov    %rax,-0x398(%rbp)
    f5a7:	48 8d 85 8c ee ff ff 	lea    -0x1174(%rbp),%rax
    f5ae:	48 89 85 70 fc ff ff 	mov    %rax,-0x390(%rbp)
    f5b5:	48 8d 85 74 ee ff ff 	lea    -0x118c(%rbp),%rax
    f5bc:	48 89 85 78 fc ff ff 	mov    %rax,-0x388(%rbp)
    f5c3:	48 c7 85 80 fc ff ff 	movq   $0x0,-0x380(%rbp)
    f5ca:	00 00 00 00 
    f5ce:	48 c7 85 88 fc ff ff 	movq   $0x0,-0x378(%rbp)
    f5d5:	00 00 00 00 
    f5d9:	48 8d 85 74 ee ff ff 	lea    -0x118c(%rbp),%rax
    f5e0:	48 89 85 90 fc ff ff 	mov    %rax,-0x370(%rbp)
    f5e7:	48 8d 85 8c ee ff ff 	lea    -0x1174(%rbp),%rax
    f5ee:	48 89 85 98 fc ff ff 	mov    %rax,-0x368(%rbp)
    f5f5:	48 8d 05 bc aa 00 00 	lea    0xaabc(%rip),%rax        # 1a0b8 <g_86+0x8>
    f5fc:	48 89 85 a0 fc ff ff 	mov    %rax,-0x360(%rbp)
    f603:	48 8d 85 8c ee ff ff 	lea    -0x1174(%rbp),%rax
    f60a:	48 89 85 a8 fc ff ff 	mov    %rax,-0x358(%rbp)
    f611:	48 c7 85 b0 fc ff ff 	movq   $0x0,-0x350(%rbp)
    f618:	00 00 00 00 
    f61c:	48 8d 85 8c ee ff ff 	lea    -0x1174(%rbp),%rax
    f623:	48 89 85 b8 fc ff ff 	mov    %rax,-0x348(%rbp)
    f62a:	48 8d 85 74 ee ff ff 	lea    -0x118c(%rbp),%rax
    f631:	48 89 85 c0 fc ff ff 	mov    %rax,-0x340(%rbp)
    f638:	48 8d 85 74 ee ff ff 	lea    -0x118c(%rbp),%rax
    f63f:	48 89 85 c8 fc ff ff 	mov    %rax,-0x338(%rbp)
    f646:	48 8d 85 8c ee ff ff 	lea    -0x1174(%rbp),%rax
    f64d:	48 89 85 d0 fc ff ff 	mov    %rax,-0x330(%rbp)
    f654:	48 c7 85 d8 fc ff ff 	movq   $0x0,-0x328(%rbp)
    f65b:	00 00 00 00 
    f65f:	48 c7 85 e0 fc ff ff 	movq   $0x0,-0x320(%rbp)
    f666:	00 00 00 00 
    f66a:	48 c7 85 e8 fc ff ff 	movq   $0x0,-0x318(%rbp)
    f671:	00 00 00 00 
    f675:	48 8d 85 8c ee ff ff 	lea    -0x1174(%rbp),%rax
    f67c:	48 89 85 f0 fc ff ff 	mov    %rax,-0x310(%rbp)
    f683:	48 c7 85 f8 fc ff ff 	movq   $0x0,-0x308(%rbp)
    f68a:	00 00 00 00 
    f68e:	48 8d 85 8c ee ff ff 	lea    -0x1174(%rbp),%rax
    f695:	48 89 85 00 fd ff ff 	mov    %rax,-0x300(%rbp)
    f69c:	48 8d 85 8c ee ff ff 	lea    -0x1174(%rbp),%rax
    f6a3:	48 89 85 08 fd ff ff 	mov    %rax,-0x2f8(%rbp)
    f6aa:	48 c7 85 10 fd ff ff 	movq   $0x0,-0x2f0(%rbp)
    f6b1:	00 00 00 00 
    f6b5:	48 8d 05 fc a9 00 00 	lea    0xa9fc(%rip),%rax        # 1a0b8 <g_86+0x8>
    f6bc:	48 89 85 18 fd ff ff 	mov    %rax,-0x2e8(%rbp)
    f6c3:	48 8d 85 8c ee ff ff 	lea    -0x1174(%rbp),%rax
    f6ca:	48 89 85 20 fd ff ff 	mov    %rax,-0x2e0(%rbp)
    f6d1:	48 8d 05 e0 a9 00 00 	lea    0xa9e0(%rip),%rax        # 1a0b8 <g_86+0x8>
    f6d8:	48 89 85 28 fd ff ff 	mov    %rax,-0x2d8(%rbp)
    f6df:	48 c7 85 30 fd ff ff 	movq   $0x0,-0x2d0(%rbp)
    f6e6:	00 00 00 00 
    f6ea:	48 8d 85 8c ee ff ff 	lea    -0x1174(%rbp),%rax
    f6f1:	48 89 85 38 fd ff ff 	mov    %rax,-0x2c8(%rbp)
    f6f8:	48 c7 85 10 f1 ff ff 	movq   $0xffffffffffffffff,-0xef0(%rbp)
    f6ff:	ff ff ff ff 
    f703:	48 83 85 10 f1 ff ff 	addq   $0x1,-0xef0(%rbp)
    f70a:	01 
    f70b:	48 8b 85 48 ee ff ff 	mov    -0x11b8(%rbp),%rax
    f712:	e9 57 22 00 00       	jmpq   1196e <func_38+0x3da5>
    f717:	48 8d 05 02 c0 00 00 	lea    0xc002(%rip),%rax        # 1b720 <g_85>
    f71e:	48 89 85 c0 f8 ff ff 	mov    %rax,-0x740(%rbp)
    f725:	48 8d 05 f4 bf 00 00 	lea    0xbff4(%rip),%rax        # 1b720 <g_85>
    f72c:	48 89 85 c8 f8 ff ff 	mov    %rax,-0x738(%rbp)
    f733:	48 8d 85 48 ef ff ff 	lea    -0x10b8(%rbp),%rax
    f73a:	48 89 85 d0 f8 ff ff 	mov    %rax,-0x730(%rbp)
    f741:	48 8d 05 d8 bf 00 00 	lea    0xbfd8(%rip),%rax        # 1b720 <g_85>
    f748:	48 89 85 d8 f8 ff ff 	mov    %rax,-0x728(%rbp)
    f74f:	48 c7 85 e0 f8 ff ff 	movq   $0x0,-0x720(%rbp)
    f756:	00 00 00 00 
    f75a:	48 8d 05 bf bf 00 00 	lea    0xbfbf(%rip),%rax        # 1b720 <g_85>
    f761:	48 89 85 e8 f8 ff ff 	mov    %rax,-0x718(%rbp)
    f768:	48 8d 85 48 ef ff ff 	lea    -0x10b8(%rbp),%rax
    f76f:	48 89 85 f0 f8 ff ff 	mov    %rax,-0x710(%rbp)
    f776:	48 8d 85 48 ef ff ff 	lea    -0x10b8(%rbp),%rax
    f77d:	48 89 85 f8 f8 ff ff 	mov    %rax,-0x708(%rbp)
    f784:	48 c7 85 00 f9 ff ff 	movq   $0x0,-0x700(%rbp)
    f78b:	00 00 00 00 
    f78f:	48 c7 85 08 f9 ff ff 	movq   $0x0,-0x6f8(%rbp)
    f796:	00 00 00 00 
    f79a:	48 8d 85 48 ef ff ff 	lea    -0x10b8(%rbp),%rax
    f7a1:	48 89 85 10 f9 ff ff 	mov    %rax,-0x6f0(%rbp)
    f7a8:	48 8d 05 71 bf 00 00 	lea    0xbf71(%rip),%rax        # 1b720 <g_85>
    f7af:	48 89 85 18 f9 ff ff 	mov    %rax,-0x6e8(%rbp)
    f7b6:	48 8d 85 48 ef ff ff 	lea    -0x10b8(%rbp),%rax
    f7bd:	48 89 85 20 f9 ff ff 	mov    %rax,-0x6e0(%rbp)
    f7c4:	48 8d 85 48 ef ff ff 	lea    -0x10b8(%rbp),%rax
    f7cb:	48 89 85 28 f9 ff ff 	mov    %rax,-0x6d8(%rbp)
    f7d2:	48 8d 05 47 bf 00 00 	lea    0xbf47(%rip),%rax        # 1b720 <g_85>
    f7d9:	48 89 85 30 f9 ff ff 	mov    %rax,-0x6d0(%rbp)
    f7e0:	48 8d 85 48 ef ff ff 	lea    -0x10b8(%rbp),%rax
    f7e7:	48 89 85 38 f9 ff ff 	mov    %rax,-0x6c8(%rbp)
    f7ee:	48 8d 85 48 ef ff ff 	lea    -0x10b8(%rbp),%rax
    f7f5:	48 89 85 40 f9 ff ff 	mov    %rax,-0x6c0(%rbp)
    f7fc:	48 8d 05 1d bf 00 00 	lea    0xbf1d(%rip),%rax        # 1b720 <g_85>
    f803:	48 89 85 48 f9 ff ff 	mov    %rax,-0x6b8(%rbp)
    f80a:	48 8d 85 48 ef ff ff 	lea    -0x10b8(%rbp),%rax
    f811:	48 89 85 50 f9 ff ff 	mov    %rax,-0x6b0(%rbp)
    f818:	48 8d 85 48 ef ff ff 	lea    -0x10b8(%rbp),%rax
    f81f:	48 89 85 58 f9 ff ff 	mov    %rax,-0x6a8(%rbp)
    f826:	48 8d 05 f3 be 00 00 	lea    0xbef3(%rip),%rax        # 1b720 <g_85>
    f82d:	48 89 85 60 f9 ff ff 	mov    %rax,-0x6a0(%rbp)
    f834:	48 8d 85 48 ef ff ff 	lea    -0x10b8(%rbp),%rax
    f83b:	48 89 85 68 f9 ff ff 	mov    %rax,-0x698(%rbp)
    f842:	48 8d 85 48 ef ff ff 	lea    -0x10b8(%rbp),%rax
    f849:	48 89 85 70 f9 ff ff 	mov    %rax,-0x690(%rbp)
    f850:	48 8d 05 c9 be 00 00 	lea    0xbec9(%rip),%rax        # 1b720 <g_85>
    f857:	48 89 85 78 f9 ff ff 	mov    %rax,-0x688(%rbp)
    f85e:	48 8d 85 48 ef ff ff 	lea    -0x10b8(%rbp),%rax
    f865:	48 89 85 80 f9 ff ff 	mov    %rax,-0x680(%rbp)
    f86c:	48 c7 85 88 f9 ff ff 	movq   $0x0,-0x678(%rbp)
    f873:	00 00 00 00 
    f877:	48 c7 85 90 f9 ff ff 	movq   $0x0,-0x670(%rbp)
    f87e:	00 00 00 00 
    f882:	48 8d 85 48 ef ff ff 	lea    -0x10b8(%rbp),%rax
    f889:	48 89 85 98 f9 ff ff 	mov    %rax,-0x668(%rbp)
    f890:	48 8d 85 48 ef ff ff 	lea    -0x10b8(%rbp),%rax
    f897:	48 89 85 a0 f9 ff ff 	mov    %rax,-0x660(%rbp)
    f89e:	48 8d 05 7b be 00 00 	lea    0xbe7b(%rip),%rax        # 1b720 <g_85>
    f8a5:	48 89 85 a8 f9 ff ff 	mov    %rax,-0x658(%rbp)
    f8ac:	48 c7 85 b0 f9 ff ff 	movq   $0x0,-0x650(%rbp)
    f8b3:	00 00 00 00 
    f8b7:	48 8d 05 62 be 00 00 	lea    0xbe62(%rip),%rax        # 1b720 <g_85>
    f8be:	48 89 85 b8 f9 ff ff 	mov    %rax,-0x648(%rbp)
    f8c5:	48 8d 85 48 ef ff ff 	lea    -0x10b8(%rbp),%rax
    f8cc:	48 89 85 c0 f9 ff ff 	mov    %rax,-0x640(%rbp)
    f8d3:	48 8d 05 46 be 00 00 	lea    0xbe46(%rip),%rax        # 1b720 <g_85>
    f8da:	48 89 85 c8 f9 ff ff 	mov    %rax,-0x638(%rbp)
    f8e1:	48 8d 05 38 be 00 00 	lea    0xbe38(%rip),%rax        # 1b720 <g_85>
    f8e8:	48 89 85 d0 f9 ff ff 	mov    %rax,-0x630(%rbp)
    f8ef:	48 c7 85 d8 f9 ff ff 	movq   $0x0,-0x628(%rbp)
    f8f6:	00 00 00 00 
    f8fa:	48 8d 85 48 ef ff ff 	lea    -0x10b8(%rbp),%rax
    f901:	48 89 85 e0 f9 ff ff 	mov    %rax,-0x620(%rbp)
    f908:	48 c7 85 e8 f9 ff ff 	movq   $0x0,-0x618(%rbp)
    f90f:	00 00 00 00 
    f913:	48 8d 85 48 ef ff ff 	lea    -0x10b8(%rbp),%rax
    f91a:	48 89 85 f0 f9 ff ff 	mov    %rax,-0x610(%rbp)
    f921:	48 8d 05 f8 bd 00 00 	lea    0xbdf8(%rip),%rax        # 1b720 <g_85>
    f928:	48 89 85 f8 f9 ff ff 	mov    %rax,-0x608(%rbp)
    f92f:	48 8d 05 ea bd 00 00 	lea    0xbdea(%rip),%rax        # 1b720 <g_85>
    f936:	48 89 85 00 fa ff ff 	mov    %rax,-0x600(%rbp)
    f93d:	48 8d 05 dc bd 00 00 	lea    0xbddc(%rip),%rax        # 1b720 <g_85>
    f944:	48 89 85 08 fa ff ff 	mov    %rax,-0x5f8(%rbp)
    f94b:	48 8d 05 ce bd 00 00 	lea    0xbdce(%rip),%rax        # 1b720 <g_85>
    f952:	48 89 85 10 fa ff ff 	mov    %rax,-0x5f0(%rbp)
    f959:	48 8d 05 c0 bd 00 00 	lea    0xbdc0(%rip),%rax        # 1b720 <g_85>
    f960:	48 89 85 18 fa ff ff 	mov    %rax,-0x5e8(%rbp)
    f967:	48 8d 05 b2 bd 00 00 	lea    0xbdb2(%rip),%rax        # 1b720 <g_85>
    f96e:	48 89 85 20 fa ff ff 	mov    %rax,-0x5e0(%rbp)
    f975:	48 8d 85 48 ef ff ff 	lea    -0x10b8(%rbp),%rax
    f97c:	48 89 85 28 fa ff ff 	mov    %rax,-0x5d8(%rbp)
    f983:	48 8d 05 96 bd 00 00 	lea    0xbd96(%rip),%rax        # 1b720 <g_85>
    f98a:	48 89 85 30 fa ff ff 	mov    %rax,-0x5d0(%rbp)
    f991:	48 c7 85 38 fa ff ff 	movq   $0x0,-0x5c8(%rbp)
    f998:	00 00 00 00 
    f99c:	48 8d 05 7d bd 00 00 	lea    0xbd7d(%rip),%rax        # 1b720 <g_85>
    f9a3:	48 89 85 40 fa ff ff 	mov    %rax,-0x5c0(%rbp)
    f9aa:	48 c7 85 48 fa ff ff 	movq   $0x0,-0x5b8(%rbp)
    f9b1:	00 00 00 00 
    f9b5:	48 8d 05 64 bd 00 00 	lea    0xbd64(%rip),%rax        # 1b720 <g_85>
    f9bc:	48 89 85 50 fa ff ff 	mov    %rax,-0x5b0(%rbp)
    f9c3:	48 8d 85 48 ef ff ff 	lea    -0x10b8(%rbp),%rax
    f9ca:	48 89 85 58 fa ff ff 	mov    %rax,-0x5a8(%rbp)
    f9d1:	48 8d 05 48 bd 00 00 	lea    0xbd48(%rip),%rax        # 1b720 <g_85>
    f9d8:	48 89 85 60 fa ff ff 	mov    %rax,-0x5a0(%rbp)
    f9df:	48 8d 85 48 ef ff ff 	lea    -0x10b8(%rbp),%rax
    f9e6:	48 89 85 68 fa ff ff 	mov    %rax,-0x598(%rbp)
    f9ed:	48 8d 85 48 ef ff ff 	lea    -0x10b8(%rbp),%rax
    f9f4:	48 89 85 70 fa ff ff 	mov    %rax,-0x590(%rbp)
    f9fb:	48 8d 05 1e bd 00 00 	lea    0xbd1e(%rip),%rax        # 1b720 <g_85>
    fa02:	48 89 85 78 fa ff ff 	mov    %rax,-0x588(%rbp)
    fa09:	48 c7 85 80 fa ff ff 	movq   $0x0,-0x580(%rbp)
    fa10:	00 00 00 00 
    fa14:	48 8d 05 05 bd 00 00 	lea    0xbd05(%rip),%rax        # 1b720 <g_85>
    fa1b:	48 89 85 88 fa ff ff 	mov    %rax,-0x578(%rbp)
    fa22:	48 8d 05 f7 bc 00 00 	lea    0xbcf7(%rip),%rax        # 1b720 <g_85>
    fa29:	48 89 85 90 fa ff ff 	mov    %rax,-0x570(%rbp)
    fa30:	48 c7 85 98 fa ff ff 	movq   $0x0,-0x568(%rbp)
    fa37:	00 00 00 00 
    fa3b:	48 c7 85 a0 fa ff ff 	movq   $0x0,-0x560(%rbp)
    fa42:	00 00 00 00 
    fa46:	48 8d 85 48 ef ff ff 	lea    -0x10b8(%rbp),%rax
    fa4d:	48 89 85 a8 fa ff ff 	mov    %rax,-0x558(%rbp)
    fa54:	48 8d 05 c5 bc 00 00 	lea    0xbcc5(%rip),%rax        # 1b720 <g_85>
    fa5b:	48 89 85 b0 fa ff ff 	mov    %rax,-0x550(%rbp)
    fa62:	48 8d 05 b7 bc 00 00 	lea    0xbcb7(%rip),%rax        # 1b720 <g_85>
    fa69:	48 89 85 b8 fa ff ff 	mov    %rax,-0x548(%rbp)
    fa70:	48 8d 85 48 ef ff ff 	lea    -0x10b8(%rbp),%rax
    fa77:	48 89 85 c0 fa ff ff 	mov    %rax,-0x540(%rbp)
    fa7e:	48 8d 05 9b bc 00 00 	lea    0xbc9b(%rip),%rax        # 1b720 <g_85>
    fa85:	48 89 85 c8 fa ff ff 	mov    %rax,-0x538(%rbp)
    fa8c:	48 8d 05 8d bc 00 00 	lea    0xbc8d(%rip),%rax        # 1b720 <g_85>
    fa93:	48 89 85 d0 fa ff ff 	mov    %rax,-0x530(%rbp)
    fa9a:	48 8d 85 48 ef ff ff 	lea    -0x10b8(%rbp),%rax
    faa1:	48 89 85 d8 fa ff ff 	mov    %rax,-0x528(%rbp)
    faa8:	48 c7 85 e0 fa ff ff 	movq   $0x0,-0x520(%rbp)
    faaf:	00 00 00 00 
    fab3:	48 c7 85 e8 fa ff ff 	movq   $0x0,-0x518(%rbp)
    faba:	00 00 00 00 
    fabe:	48 8d 05 5b bc 00 00 	lea    0xbc5b(%rip),%rax        # 1b720 <g_85>
    fac5:	48 89 85 f0 fa ff ff 	mov    %rax,-0x510(%rbp)
    facc:	48 8d 05 4d bc 00 00 	lea    0xbc4d(%rip),%rax        # 1b720 <g_85>
    fad3:	48 89 85 f8 fa ff ff 	mov    %rax,-0x508(%rbp)
    fada:	48 c7 85 00 fb ff ff 	movq   $0x0,-0x500(%rbp)
    fae1:	00 00 00 00 
    fae5:	48 8d 05 34 bc 00 00 	lea    0xbc34(%rip),%rax        # 1b720 <g_85>
    faec:	48 89 85 08 fb ff ff 	mov    %rax,-0x4f8(%rbp)
    faf3:	48 8d 85 48 ef ff ff 	lea    -0x10b8(%rbp),%rax
    fafa:	48 89 85 10 fb ff ff 	mov    %rax,-0x4f0(%rbp)
    fb01:	48 8d 85 48 ef ff ff 	lea    -0x10b8(%rbp),%rax
    fb08:	48 89 85 18 fb ff ff 	mov    %rax,-0x4e8(%rbp)
    fb0f:	48 8d 05 0a bc 00 00 	lea    0xbc0a(%rip),%rax        # 1b720 <g_85>
    fb16:	48 89 85 20 fb ff ff 	mov    %rax,-0x4e0(%rbp)
    fb1d:	48 8d 85 48 ef ff ff 	lea    -0x10b8(%rbp),%rax
    fb24:	48 89 85 28 fb ff ff 	mov    %rax,-0x4d8(%rbp)
    fb2b:	48 8d 05 ee bb 00 00 	lea    0xbbee(%rip),%rax        # 1b720 <g_85>
    fb32:	48 89 85 30 fb ff ff 	mov    %rax,-0x4d0(%rbp)
    fb39:	48 c7 85 38 fb ff ff 	movq   $0x0,-0x4c8(%rbp)
    fb40:	00 00 00 00 
    fb44:	48 8d 05 d5 bb 00 00 	lea    0xbbd5(%rip),%rax        # 1b720 <g_85>
    fb4b:	48 89 85 40 fb ff ff 	mov    %rax,-0x4c0(%rbp)
    fb52:	48 c7 85 48 fb ff ff 	movq   $0x0,-0x4b8(%rbp)
    fb59:	00 00 00 00 
    fb5d:	48 8d 05 bc bb 00 00 	lea    0xbbbc(%rip),%rax        # 1b720 <g_85>
    fb64:	48 89 85 50 fb ff ff 	mov    %rax,-0x4b0(%rbp)
    fb6b:	48 8d 85 48 ef ff ff 	lea    -0x10b8(%rbp),%rax
    fb72:	48 89 85 58 fb ff ff 	mov    %rax,-0x4a8(%rbp)
    fb79:	48 8d 05 a0 bb 00 00 	lea    0xbba0(%rip),%rax        # 1b720 <g_85>
    fb80:	48 89 85 60 fb ff ff 	mov    %rax,-0x4a0(%rbp)
    fb87:	48 8d 05 92 bb 00 00 	lea    0xbb92(%rip),%rax        # 1b720 <g_85>
    fb8e:	48 89 85 68 fb ff ff 	mov    %rax,-0x498(%rbp)
    fb95:	48 c7 85 70 fb ff ff 	movq   $0x0,-0x490(%rbp)
    fb9c:	00 00 00 00 
    fba0:	48 c7 85 78 fb ff ff 	movq   $0x0,-0x488(%rbp)
    fba7:	00 00 00 00 
    fbab:	48 c7 85 80 fb ff ff 	movq   $0x0,-0x480(%rbp)
    fbb2:	00 00 00 00 
    fbb6:	48 8d 05 63 bb 00 00 	lea    0xbb63(%rip),%rax        # 1b720 <g_85>
    fbbd:	48 89 85 88 fb ff ff 	mov    %rax,-0x478(%rbp)
    fbc4:	48 8d 05 55 bb 00 00 	lea    0xbb55(%rip),%rax        # 1b720 <g_85>
    fbcb:	48 89 85 90 fb ff ff 	mov    %rax,-0x470(%rbp)
    fbd2:	48 8d 05 47 bb 00 00 	lea    0xbb47(%rip),%rax        # 1b720 <g_85>
    fbd9:	48 89 85 98 fb ff ff 	mov    %rax,-0x468(%rbp)
    fbe0:	48 8d 85 48 ef ff ff 	lea    -0x10b8(%rbp),%rax
    fbe7:	48 89 85 a0 fb ff ff 	mov    %rax,-0x460(%rbp)
    fbee:	48 8d 05 2b bb 00 00 	lea    0xbb2b(%rip),%rax        # 1b720 <g_85>
    fbf5:	48 89 85 a8 fb ff ff 	mov    %rax,-0x458(%rbp)
    fbfc:	48 8d 05 1d bb 00 00 	lea    0xbb1d(%rip),%rax        # 1b720 <g_85>
    fc03:	48 89 85 b0 fb ff ff 	mov    %rax,-0x450(%rbp)
    fc0a:	48 8d 85 48 ef ff ff 	lea    -0x10b8(%rbp),%rax
    fc11:	48 89 85 b8 fb ff ff 	mov    %rax,-0x448(%rbp)
    fc18:	48 8d 05 01 bb 00 00 	lea    0xbb01(%rip),%rax        # 1b720 <g_85>
    fc1f:	48 89 85 c0 fb ff ff 	mov    %rax,-0x440(%rbp)
    fc26:	48 c7 85 c8 fb ff ff 	movq   $0x0,-0x438(%rbp)
    fc2d:	00 00 00 00 
    fc31:	48 8d 05 e8 ba 00 00 	lea    0xbae8(%rip),%rax        # 1b720 <g_85>
    fc38:	48 89 85 d0 fb ff ff 	mov    %rax,-0x430(%rbp)
    fc3f:	48 8d 05 da ba 00 00 	lea    0xbada(%rip),%rax        # 1b720 <g_85>
    fc46:	48 89 85 d8 fb ff ff 	mov    %rax,-0x428(%rbp)
    fc4d:	48 8d 85 48 ef ff ff 	lea    -0x10b8(%rbp),%rax
    fc54:	48 89 85 e0 fb ff ff 	mov    %rax,-0x420(%rbp)
    fc5b:	48 8d 85 48 ef ff ff 	lea    -0x10b8(%rbp),%rax
    fc62:	48 89 85 e8 fb ff ff 	mov    %rax,-0x418(%rbp)
    fc69:	48 8d 05 b0 ba 00 00 	lea    0xbab0(%rip),%rax        # 1b720 <g_85>
    fc70:	48 89 85 f0 fb ff ff 	mov    %rax,-0x410(%rbp)
    fc77:	48 8d 05 a2 ba 00 00 	lea    0xbaa2(%rip),%rax        # 1b720 <g_85>
    fc7e:	48 89 85 f8 fb ff ff 	mov    %rax,-0x408(%rbp)
    fc85:	48 8d 05 94 ba 00 00 	lea    0xba94(%rip),%rax        # 1b720 <g_85>
    fc8c:	48 89 85 00 fc ff ff 	mov    %rax,-0x400(%rbp)
    fc93:	48 8d 05 86 ba 00 00 	lea    0xba86(%rip),%rax        # 1b720 <g_85>
    fc9a:	48 89 85 08 fc ff ff 	mov    %rax,-0x3f8(%rbp)
    fca1:	48 8d 85 48 ef ff ff 	lea    -0x10b8(%rbp),%rax
    fca8:	48 89 85 10 fc ff ff 	mov    %rax,-0x3f0(%rbp)
    fcaf:	48 8d 05 6a ba 00 00 	lea    0xba6a(%rip),%rax        # 1b720 <g_85>
    fcb6:	48 89 85 18 fc ff ff 	mov    %rax,-0x3e8(%rbp)
    fcbd:	48 8d 05 5c ba 00 00 	lea    0xba5c(%rip),%rax        # 1b720 <g_85>
    fcc4:	48 89 85 20 fc ff ff 	mov    %rax,-0x3e0(%rbp)
    fccb:	48 8d 85 48 ef ff ff 	lea    -0x10b8(%rbp),%rax
    fcd2:	48 89 85 28 fc ff ff 	mov    %rax,-0x3d8(%rbp)
    fcd9:	48 8d 85 48 ef ff ff 	lea    -0x10b8(%rbp),%rax
    fce0:	48 89 85 30 fc ff ff 	mov    %rax,-0x3d0(%rbp)
    fce7:	48 c7 85 38 fc ff ff 	movq   $0x0,-0x3c8(%rbp)
    fcee:	00 00 00 00 
    fcf2:	48 8d 85 48 ef ff ff 	lea    -0x10b8(%rbp),%rax
    fcf9:	48 89 85 40 fc ff ff 	mov    %rax,-0x3c0(%rbp)
    fd00:	48 8d 85 48 ef ff ff 	lea    -0x10b8(%rbp),%rax
    fd07:	48 89 85 48 fc ff ff 	mov    %rax,-0x3b8(%rbp)
    fd0e:	48 8d 05 0b ba 00 00 	lea    0xba0b(%rip),%rax        # 1b720 <g_85>
    fd15:	48 89 85 50 fc ff ff 	mov    %rax,-0x3b0(%rbp)
    fd1c:	48 8d 05 fd b9 00 00 	lea    0xb9fd(%rip),%rax        # 1b720 <g_85>
    fd23:	48 89 85 58 fc ff ff 	mov    %rax,-0x3a8(%rbp)
    fd2a:	48 8d 85 48 ef ff ff 	lea    -0x10b8(%rbp),%rax
    fd31:	48 89 85 60 fc ff ff 	mov    %rax,-0x3a0(%rbp)
    fd38:	48 8d 05 e1 b9 00 00 	lea    0xb9e1(%rip),%rax        # 1b720 <g_85>
    fd3f:	48 89 85 68 fc ff ff 	mov    %rax,-0x398(%rbp)
    fd46:	48 8d 05 d3 b9 00 00 	lea    0xb9d3(%rip),%rax        # 1b720 <g_85>
    fd4d:	48 89 85 70 fc ff ff 	mov    %rax,-0x390(%rbp)
    fd54:	48 8d 05 c5 b9 00 00 	lea    0xb9c5(%rip),%rax        # 1b720 <g_85>
    fd5b:	48 89 85 78 fc ff ff 	mov    %rax,-0x388(%rbp)
    fd62:	48 8d 05 b7 b9 00 00 	lea    0xb9b7(%rip),%rax        # 1b720 <g_85>
    fd69:	48 89 85 80 fc ff ff 	mov    %rax,-0x380(%rbp)
    fd70:	48 8d 85 48 ef ff ff 	lea    -0x10b8(%rbp),%rax
    fd77:	48 89 85 88 fc ff ff 	mov    %rax,-0x378(%rbp)
    fd7e:	48 8d 85 48 ef ff ff 	lea    -0x10b8(%rbp),%rax
    fd85:	48 89 85 90 fc ff ff 	mov    %rax,-0x370(%rbp)
    fd8c:	48 8d 05 8d b9 00 00 	lea    0xb98d(%rip),%rax        # 1b720 <g_85>
    fd93:	48 89 85 98 fc ff ff 	mov    %rax,-0x368(%rbp)
    fd9a:	48 8d 05 7f b9 00 00 	lea    0xb97f(%rip),%rax        # 1b720 <g_85>
    fda1:	48 89 85 a0 fc ff ff 	mov    %rax,-0x360(%rbp)
    fda8:	48 c7 85 a8 fc ff ff 	movq   $0x0,-0x358(%rbp)
    fdaf:	00 00 00 00 
    fdb3:	48 8d 05 66 b9 00 00 	lea    0xb966(%rip),%rax        # 1b720 <g_85>
    fdba:	48 89 85 b0 fc ff ff 	mov    %rax,-0x350(%rbp)
    fdc1:	48 8d 85 48 ef ff ff 	lea    -0x10b8(%rbp),%rax
    fdc8:	48 89 85 b8 fc ff ff 	mov    %rax,-0x348(%rbp)
    fdcf:	48 8d 05 4a b9 00 00 	lea    0xb94a(%rip),%rax        # 1b720 <g_85>
    fdd6:	48 89 85 c0 fc ff ff 	mov    %rax,-0x340(%rbp)
    fddd:	48 8d 05 3c b9 00 00 	lea    0xb93c(%rip),%rax        # 1b720 <g_85>
    fde4:	48 89 85 c8 fc ff ff 	mov    %rax,-0x338(%rbp)
    fdeb:	48 8d 85 48 ef ff ff 	lea    -0x10b8(%rbp),%rax
    fdf2:	48 89 85 d0 fc ff ff 	mov    %rax,-0x330(%rbp)
    fdf9:	48 8d 05 20 b9 00 00 	lea    0xb920(%rip),%rax        # 1b720 <g_85>
    fe00:	48 89 85 d8 fc ff ff 	mov    %rax,-0x328(%rbp)
    fe07:	48 8d 05 12 b9 00 00 	lea    0xb912(%rip),%rax        # 1b720 <g_85>
    fe0e:	48 89 85 e0 fc ff ff 	mov    %rax,-0x320(%rbp)
    fe15:	48 8d 05 04 b9 00 00 	lea    0xb904(%rip),%rax        # 1b720 <g_85>
    fe1c:	48 89 85 e8 fc ff ff 	mov    %rax,-0x318(%rbp)
    fe23:	48 c7 85 f0 fc ff ff 	movq   $0x0,-0x310(%rbp)
    fe2a:	00 00 00 00 
    fe2e:	48 c7 85 f8 fc ff ff 	movq   $0x0,-0x308(%rbp)
    fe35:	00 00 00 00 
    fe39:	48 c7 85 00 fd ff ff 	movq   $0x0,-0x300(%rbp)
    fe40:	00 00 00 00 
    fe44:	48 8d 05 d5 b8 00 00 	lea    0xb8d5(%rip),%rax        # 1b720 <g_85>
    fe4b:	48 89 85 08 fd ff ff 	mov    %rax,-0x2f8(%rbp)
    fe52:	48 8d 05 c7 b8 00 00 	lea    0xb8c7(%rip),%rax        # 1b720 <g_85>
    fe59:	48 89 85 10 fd ff ff 	mov    %rax,-0x2f0(%rbp)
    fe60:	48 c7 85 18 fd ff ff 	movq   $0x0,-0x2e8(%rbp)
    fe67:	00 00 00 00 
    fe6b:	48 8d 85 48 ef ff ff 	lea    -0x10b8(%rbp),%rax
    fe72:	48 89 85 20 fd ff ff 	mov    %rax,-0x2e0(%rbp)
    fe79:	48 8d 05 a0 b8 00 00 	lea    0xb8a0(%rip),%rax        # 1b720 <g_85>
    fe80:	48 89 85 28 fd ff ff 	mov    %rax,-0x2d8(%rbp)
    fe87:	48 c7 85 30 fd ff ff 	movq   $0x0,-0x2d0(%rbp)
    fe8e:	00 00 00 00 
    fe92:	48 c7 85 38 fd ff ff 	movq   $0x0,-0x2c8(%rbp)
    fe99:	00 00 00 00 
    fe9d:	48 8d 05 7c b8 00 00 	lea    0xb87c(%rip),%rax        # 1b720 <g_85>
    fea4:	48 89 85 40 fd ff ff 	mov    %rax,-0x2c0(%rbp)
    feab:	48 8d 05 6e b8 00 00 	lea    0xb86e(%rip),%rax        # 1b720 <g_85>
    feb2:	48 89 85 48 fd ff ff 	mov    %rax,-0x2b8(%rbp)
    feb9:	48 8d 05 60 b8 00 00 	lea    0xb860(%rip),%rax        # 1b720 <g_85>
    fec0:	48 89 85 50 fd ff ff 	mov    %rax,-0x2b0(%rbp)
    fec7:	48 8d 85 48 ef ff ff 	lea    -0x10b8(%rbp),%rax
    fece:	48 89 85 58 fd ff ff 	mov    %rax,-0x2a8(%rbp)
    fed5:	48 c7 85 60 fd ff ff 	movq   $0x0,-0x2a0(%rbp)
    fedc:	00 00 00 00 
    fee0:	48 8d 05 39 b8 00 00 	lea    0xb839(%rip),%rax        # 1b720 <g_85>
    fee7:	48 89 85 68 fd ff ff 	mov    %rax,-0x298(%rbp)
    feee:	48 8d 05 2b b8 00 00 	lea    0xb82b(%rip),%rax        # 1b720 <g_85>
    fef5:	48 89 85 70 fd ff ff 	mov    %rax,-0x290(%rbp)
    fefc:	48 c7 85 78 fd ff ff 	movq   $0x0,-0x288(%rbp)
    ff03:	00 00 00 00 
    ff07:	48 8d 05 12 b8 00 00 	lea    0xb812(%rip),%rax        # 1b720 <g_85>
    ff0e:	48 89 85 80 fd ff ff 	mov    %rax,-0x280(%rbp)
    ff15:	48 8d 05 04 b8 00 00 	lea    0xb804(%rip),%rax        # 1b720 <g_85>
    ff1c:	48 89 85 88 fd ff ff 	mov    %rax,-0x278(%rbp)
    ff23:	48 8d 05 f6 b7 00 00 	lea    0xb7f6(%rip),%rax        # 1b720 <g_85>
    ff2a:	48 89 85 90 fd ff ff 	mov    %rax,-0x270(%rbp)
    ff31:	48 8d 05 e8 b7 00 00 	lea    0xb7e8(%rip),%rax        # 1b720 <g_85>
    ff38:	48 89 85 98 fd ff ff 	mov    %rax,-0x268(%rbp)
    ff3f:	48 8d 05 da b7 00 00 	lea    0xb7da(%rip),%rax        # 1b720 <g_85>
    ff46:	48 89 85 a0 fd ff ff 	mov    %rax,-0x260(%rbp)
    ff4d:	48 8d 85 48 ef ff ff 	lea    -0x10b8(%rbp),%rax
    ff54:	48 89 85 a8 fd ff ff 	mov    %rax,-0x258(%rbp)
    ff5b:	48 c7 85 b0 fd ff ff 	movq   $0x0,-0x250(%rbp)
    ff62:	00 00 00 00 
    ff66:	48 8d 85 48 ef ff ff 	lea    -0x10b8(%rbp),%rax
    ff6d:	48 89 85 b8 fd ff ff 	mov    %rax,-0x248(%rbp)
    ff74:	48 8d 05 a5 b7 00 00 	lea    0xb7a5(%rip),%rax        # 1b720 <g_85>
    ff7b:	48 89 85 c0 fd ff ff 	mov    %rax,-0x240(%rbp)
    ff82:	48 8d 05 97 b7 00 00 	lea    0xb797(%rip),%rax        # 1b720 <g_85>
    ff89:	48 89 85 c8 fd ff ff 	mov    %rax,-0x238(%rbp)
    ff90:	48 8b 85 48 ef ff ff 	mov    -0x10b8(%rbp),%rax
    ff97:	48 89 05 82 b7 00 00 	mov    %rax,0xb782(%rip)        # 1b720 <g_85>
    ff9e:	48 8b 05 7b b7 00 00 	mov    0xb77b(%rip),%rax        # 1b720 <g_85>
    ffa5:	48 8d 15 bc c7 00 00 	lea    0xc7bc(%rip),%rdx        # 1c768 <g_4>
    ffac:	48 39 d0             	cmp    %rdx,%rax
    ffaf:	0f 95 c0             	setne  %al
    ffb2:	0f b6 d0             	movzbl %al,%edx
    ffb5:	8b 05 fd a0 00 00    	mov    0xa0fd(%rip),%eax        # 1a0b8 <g_86+0x8>
    ffbb:	31 d0                	xor    %edx,%eax
    ffbd:	89 05 f5 a0 00 00    	mov    %eax,0xa0f5(%rip)        # 1a0b8 <g_86+0x8>
    ffc3:	8b 85 74 ee ff ff    	mov    -0x118c(%rbp),%eax
    ffc9:	85 c0                	test   %eax,%eax
    ffcb:	0f 85 c7 16 00 00    	jne    11698 <func_38+0x3acf>
    ffd1:	48 8b 05 50 a3 00 00 	mov    0xa350(%rip),%rax        # 1a328 <g_395>
    ffd8:	48 83 c0 01          	add    $0x1,%rax
    ffdc:	48 89 05 45 a3 00 00 	mov    %rax,0xa345(%rip)        # 1a328 <g_395>
    ffe3:	48 8b 05 3e a3 00 00 	mov    0xa33e(%rip),%rax        # 1a328 <g_395>
    ffea:	48 83 f8 31          	cmp    $0x31,%rax
    ffee:	0f 86 b5 e1 ff ff    	jbe    e1a9 <func_38+0x5e0>
    fff4:	48 c7 85 58 ef ff ff 	movq   $0xffffffffffffffeb,-0x10a8(%rbp)
    fffb:	eb ff ff ff 
    ffff:	e9 78 16 00 00       	jmpq   1167c <func_38+0x3ab3>
   10004:	48 8d 85 88 f1 ff ff 	lea    -0xe78(%rbp),%rax
   1000b:	48 89 85 68 ef ff ff 	mov    %rax,-0x1098(%rbp)
   10012:	48 8d 85 68 ee ff ff 	lea    -0x1198(%rbp),%rax
   10019:	48 89 85 70 ef ff ff 	mov    %rax,-0x1090(%rbp)
   10020:	48 8d 85 88 f1 ff ff 	lea    -0xe78(%rbp),%rax
   10027:	48 89 85 b0 f2 ff ff 	mov    %rax,-0xd50(%rbp)
   1002e:	48 c7 85 b8 f2 ff ff 	movq   $0x0,-0xd48(%rbp)
   10035:	00 00 00 00 
   10039:	48 8d 85 64 ee ff ff 	lea    -0x119c(%rbp),%rax
   10040:	48 89 85 c0 f2 ff ff 	mov    %rax,-0xd40(%rbp)
   10047:	48 c7 85 c8 f2 ff ff 	movq   $0x0,-0xd38(%rbp)
   1004e:	00 00 00 00 
   10052:	48 8d 85 6c ee ff ff 	lea    -0x1194(%rbp),%rax
   10059:	48 89 85 d0 f2 ff ff 	mov    %rax,-0xd30(%rbp)
   10060:	48 8d 85 64 ee ff ff 	lea    -0x119c(%rbp),%rax
   10067:	48 89 85 d8 f2 ff ff 	mov    %rax,-0xd28(%rbp)
   1006e:	48 c7 85 e0 f2 ff ff 	movq   $0x0,-0xd20(%rbp)
   10075:	00 00 00 00 
   10079:	48 8d 85 74 ee ff ff 	lea    -0x118c(%rbp),%rax
   10080:	48 89 85 e8 f2 ff ff 	mov    %rax,-0xd18(%rbp)
   10087:	48 c7 85 f0 f2 ff ff 	movq   $0x0,-0xd10(%rbp)
   1008e:	00 00 00 00 
   10092:	48 8d 85 64 ee ff ff 	lea    -0x119c(%rbp),%rax
   10099:	48 89 85 f8 f2 ff ff 	mov    %rax,-0xd08(%rbp)
   100a0:	48 8d 85 6c ee ff ff 	lea    -0x1194(%rbp),%rax
   100a7:	48 89 85 00 f3 ff ff 	mov    %rax,-0xd00(%rbp)
   100ae:	48 c7 85 08 f3 ff ff 	movq   $0x0,-0xcf8(%rbp)
   100b5:	00 00 00 00 
   100b9:	48 8d 85 64 ee ff ff 	lea    -0x119c(%rbp),%rax
   100c0:	48 89 85 10 f3 ff ff 	mov    %rax,-0xcf0(%rbp)
   100c7:	48 c7 85 18 f3 ff ff 	movq   $0x0,-0xce8(%rbp)
   100ce:	00 00 00 00 
   100d2:	48 8d 85 88 f1 ff ff 	lea    -0xe78(%rbp),%rax
   100d9:	48 89 85 20 f3 ff ff 	mov    %rax,-0xce0(%rbp)
   100e0:	48 8d 85 64 ee ff ff 	lea    -0x119c(%rbp),%rax
   100e7:	48 89 85 28 f3 ff ff 	mov    %rax,-0xcd8(%rbp)
   100ee:	48 8d 85 74 ee ff ff 	lea    -0x118c(%rbp),%rax
   100f5:	48 89 85 30 f3 ff ff 	mov    %rax,-0xcd0(%rbp)
   100fc:	48 c7 85 38 f3 ff ff 	movq   $0x0,-0xcc8(%rbp)
   10103:	00 00 00 00 
   10107:	48 c7 85 40 f3 ff ff 	movq   $0x0,-0xcc0(%rbp)
   1010e:	00 00 00 00 
   10112:	48 8d 05 4f c6 00 00 	lea    0xc64f(%rip),%rax        # 1c768 <g_4>
   10119:	48 89 85 48 f3 ff ff 	mov    %rax,-0xcb8(%rbp)
   10120:	48 8d 85 88 f1 ff ff 	lea    -0xe78(%rbp),%rax
   10127:	48 89 85 50 f3 ff ff 	mov    %rax,-0xcb0(%rbp)
   1012e:	48 c7 85 58 f3 ff ff 	movq   $0x0,-0xca8(%rbp)
   10135:	00 00 00 00 
   10139:	48 8d 05 28 c6 00 00 	lea    0xc628(%rip),%rax        # 1c768 <g_4>
   10140:	48 89 85 60 f3 ff ff 	mov    %rax,-0xca0(%rbp)
   10147:	48 c7 85 68 f3 ff ff 	movq   $0x0,-0xc98(%rbp)
   1014e:	00 00 00 00 
   10152:	48 8d 85 88 f1 ff ff 	lea    -0xe78(%rbp),%rax
   10159:	48 89 85 70 f3 ff ff 	mov    %rax,-0xc90(%rbp)
   10160:	48 8d 05 01 c6 00 00 	lea    0xc601(%rip),%rax        # 1c768 <g_4>
   10167:	48 89 85 78 f3 ff ff 	mov    %rax,-0xc88(%rbp)
   1016e:	48 c7 85 80 f3 ff ff 	movq   $0x0,-0xc80(%rbp)
   10175:	00 00 00 00 
   10179:	48 c7 85 88 f3 ff ff 	movq   $0x0,-0xc78(%rbp)
   10180:	00 00 00 00 
   10184:	48 8d 85 74 ee ff ff 	lea    -0x118c(%rbp),%rax
   1018b:	48 89 85 90 f3 ff ff 	mov    %rax,-0xc70(%rbp)
   10192:	48 8d 85 64 ee ff ff 	lea    -0x119c(%rbp),%rax
   10199:	48 89 85 98 f3 ff ff 	mov    %rax,-0xc68(%rbp)
   101a0:	48 8d 85 88 f1 ff ff 	lea    -0xe78(%rbp),%rax
   101a7:	48 89 85 a0 f3 ff ff 	mov    %rax,-0xc60(%rbp)
   101ae:	48 c7 85 a8 f3 ff ff 	movq   $0x0,-0xc58(%rbp)
   101b5:	00 00 00 00 
   101b9:	48 8d 85 64 ee ff ff 	lea    -0x119c(%rbp),%rax
   101c0:	48 89 85 b0 f3 ff ff 	mov    %rax,-0xc50(%rbp)
   101c7:	48 c7 85 b8 f3 ff ff 	movq   $0x0,-0xc48(%rbp)
   101ce:	00 00 00 00 
   101d2:	48 8d 85 6c ee ff ff 	lea    -0x1194(%rbp),%rax
   101d9:	48 89 85 c0 f3 ff ff 	mov    %rax,-0xc40(%rbp)
   101e0:	48 8d 85 64 ee ff ff 	lea    -0x119c(%rbp),%rax
   101e7:	48 89 85 c8 f3 ff ff 	mov    %rax,-0xc38(%rbp)
   101ee:	48 c7 85 d0 f3 ff ff 	movq   $0x0,-0xc30(%rbp)
   101f5:	00 00 00 00 
   101f9:	48 8d 85 74 ee ff ff 	lea    -0x118c(%rbp),%rax
   10200:	48 89 85 d8 f3 ff ff 	mov    %rax,-0xc28(%rbp)
   10207:	48 c7 85 e0 f3 ff ff 	movq   $0x0,-0xc20(%rbp)
   1020e:	00 00 00 00 
   10212:	48 8d 85 64 ee ff ff 	lea    -0x119c(%rbp),%rax
   10219:	48 89 85 e8 f3 ff ff 	mov    %rax,-0xc18(%rbp)
   10220:	48 8d 85 6c ee ff ff 	lea    -0x1194(%rbp),%rax
   10227:	48 89 85 f0 f3 ff ff 	mov    %rax,-0xc10(%rbp)
   1022e:	48 c7 85 f8 f3 ff ff 	movq   $0x0,-0xc08(%rbp)
   10235:	00 00 00 00 
   10239:	48 8d 85 64 ee ff ff 	lea    -0x119c(%rbp),%rax
   10240:	48 89 85 00 f4 ff ff 	mov    %rax,-0xc00(%rbp)
   10247:	48 c7 85 08 f4 ff ff 	movq   $0x0,-0xbf8(%rbp)
   1024e:	00 00 00 00 
   10252:	48 8d 85 88 f1 ff ff 	lea    -0xe78(%rbp),%rax
   10259:	48 89 85 10 f4 ff ff 	mov    %rax,-0xbf0(%rbp)
   10260:	48 8d 85 64 ee ff ff 	lea    -0x119c(%rbp),%rax
   10267:	48 89 85 18 f4 ff ff 	mov    %rax,-0xbe8(%rbp)
   1026e:	48 8d 85 74 ee ff ff 	lea    -0x118c(%rbp),%rax
   10275:	48 89 85 20 f4 ff ff 	mov    %rax,-0xbe0(%rbp)
   1027c:	48 c7 85 28 f4 ff ff 	movq   $0x0,-0xbd8(%rbp)
   10283:	00 00 00 00 
   10287:	48 c7 85 30 f4 ff ff 	movq   $0x0,-0xbd0(%rbp)
   1028e:	00 00 00 00 
   10292:	48 8d 05 cf c4 00 00 	lea    0xc4cf(%rip),%rax        # 1c768 <g_4>
   10299:	48 89 85 38 f4 ff ff 	mov    %rax,-0xbc8(%rbp)
   102a0:	48 8d 85 88 f1 ff ff 	lea    -0xe78(%rbp),%rax
   102a7:	48 89 85 40 f4 ff ff 	mov    %rax,-0xbc0(%rbp)
   102ae:	48 c7 85 48 f4 ff ff 	movq   $0x0,-0xbb8(%rbp)
   102b5:	00 00 00 00 
   102b9:	48 8d 05 a8 c4 00 00 	lea    0xc4a8(%rip),%rax        # 1c768 <g_4>
   102c0:	48 89 85 50 f4 ff ff 	mov    %rax,-0xbb0(%rbp)
   102c7:	48 c7 85 58 f4 ff ff 	movq   $0x0,-0xba8(%rbp)
   102ce:	00 00 00 00 
   102d2:	c7 85 d4 ee ff ff 56 	movl   $0x32e04256,-0x112c(%rbp)
   102d9:	42 e0 32 
   102dc:	c7 85 d8 ee ff ff e8 	movl   $0xef8fbce8,-0x1128(%rbp)
   102e3:	bc 8f ef 
   102e6:	48 8d 05 7f a0 00 00 	lea    0xa07f(%rip),%rax        # 1a36c <g_732>
   102ed:	48 89 85 20 f0 ff ff 	mov    %rax,-0xfe0(%rbp)
   102f4:	48 c7 85 28 f0 ff ff 	movq   $0x0,-0xfd8(%rbp)
   102fb:	00 00 00 00 
   102ff:	48 8d 85 60 f4 ff ff 	lea    -0xba0(%rbp),%rax
   10306:	48 8d 15 d3 af 00 00 	lea    0xafd3(%rip),%rdx        # 1b2e0 <g_2719+0xbea>
   1030d:	b9 40 00 00 00       	mov    $0x40,%ecx
   10312:	48 89 c7             	mov    %rax,%rdi
   10315:	48 89 d6             	mov    %rdx,%rsi
   10318:	f3 48 a5             	rep movsq %ds:(%rsi),%es:(%rdi)
   1031b:	48 83 85 10 f0 ff ff 	addq   $0x1,-0xff0(%rbp)
   10322:	01 
   10323:	c6 85 5d ee ff ff 00 	movb   $0x0,-0x11a3(%rbp)
   1032a:	90                   	nop
   1032b:	0f b6 85 5d ee ff ff 	movzbl -0x11a3(%rbp),%eax
   10332:	3c e5                	cmp    $0xe5,%al
   10334:	0f 8c 46 02 00 00    	jl     10580 <func_38+0x29b7>
   1033a:	48 c7 85 b8 f0 ff ff 	movq   $0xfffffffffffffffa,-0xf48(%rbp)
   10341:	fa ff ff ff 
   10345:	48 8d 85 68 ef ff ff 	lea    -0x1098(%rbp),%rax
   1034c:	48 89 85 c0 f8 ff ff 	mov    %rax,-0x740(%rbp)
   10353:	48 8d 05 c6 b3 00 00 	lea    0xb3c6(%rip),%rax        # 1b720 <g_85>
   1035a:	48 89 85 c8 f8 ff ff 	mov    %rax,-0x738(%rbp)
   10361:	48 8d 85 70 ef ff ff 	lea    -0x1090(%rbp),%rax
   10368:	48 89 85 d0 f8 ff ff 	mov    %rax,-0x730(%rbp)
   1036f:	48 8d 85 70 ef ff ff 	lea    -0x1090(%rbp),%rax
   10376:	48 89 85 d8 f8 ff ff 	mov    %rax,-0x728(%rbp)
   1037d:	48 c7 85 e0 f8 ff ff 	movq   $0x0,-0x720(%rbp)
   10384:	00 00 00 00 
   10388:	48 8d 85 68 ef ff ff 	lea    -0x1098(%rbp),%rax
   1038f:	48 89 85 e8 f8 ff ff 	mov    %rax,-0x718(%rbp)
   10396:	48 8d 85 70 ef ff ff 	lea    -0x1090(%rbp),%rax
   1039d:	48 89 85 f0 f8 ff ff 	mov    %rax,-0x710(%rbp)
   103a4:	48 8d 85 48 ef ff ff 	lea    -0x10b8(%rbp),%rax
   103ab:	48 89 85 f8 f8 ff ff 	mov    %rax,-0x708(%rbp)
   103b2:	48 8d 85 70 ef ff ff 	lea    -0x1090(%rbp),%rax
   103b9:	48 89 85 00 f9 ff ff 	mov    %rax,-0x700(%rbp)
   103c0:	48 8d 85 68 ef ff ff 	lea    -0x1098(%rbp),%rax
   103c7:	48 89 85 08 f9 ff ff 	mov    %rax,-0x6f8(%rbp)
   103ce:	48 c7 85 10 f9 ff ff 	movq   $0x0,-0x6f0(%rbp)
   103d5:	00 00 00 00 
   103d9:	48 8d 05 40 b3 00 00 	lea    0xb340(%rip),%rax        # 1b720 <g_85>
   103e0:	48 89 85 18 f9 ff ff 	mov    %rax,-0x6e8(%rbp)
   103e7:	48 8d 85 b0 f2 ff ff 	lea    -0xd50(%rbp),%rax
   103ee:	48 83 c0 48          	add    $0x48,%rax
   103f2:	48 89 85 20 f9 ff ff 	mov    %rax,-0x6e0(%rbp)
   103f9:	48 8d 05 20 b3 00 00 	lea    0xb320(%rip),%rax        # 1b720 <g_85>
   10400:	48 89 85 28 f9 ff ff 	mov    %rax,-0x6d8(%rbp)
   10407:	48 c7 85 30 f9 ff ff 	movq   $0x0,-0x6d0(%rbp)
   1040e:	00 00 00 00 
   10412:	48 8d 85 48 ef ff ff 	lea    -0x10b8(%rbp),%rax
   10419:	48 89 85 38 f9 ff ff 	mov    %rax,-0x6c8(%rbp)
   10420:	48 8d 05 f9 b2 00 00 	lea    0xb2f9(%rip),%rax        # 1b720 <g_85>
   10427:	48 89 85 40 f9 ff ff 	mov    %rax,-0x6c0(%rbp)
   1042e:	48 8d 85 48 ef ff ff 	lea    -0x10b8(%rbp),%rax
   10435:	48 89 85 48 f9 ff ff 	mov    %rax,-0x6b8(%rbp)
   1043c:	48 8d 85 b0 f2 ff ff 	lea    -0xd50(%rbp),%rax
   10443:	48 83 c0 78          	add    $0x78,%rax
   10447:	48 89 85 50 f9 ff ff 	mov    %rax,-0x6b0(%rbp)
   1044e:	48 c7 85 58 f9 ff ff 	movq   $0x0,-0x6a8(%rbp)
   10455:	00 00 00 00 
   10459:	48 c7 85 60 f9 ff ff 	movq   $0x0,-0x6a0(%rbp)
   10460:	00 00 00 00 
   10464:	48 8d 85 70 ef ff ff 	lea    -0x1090(%rbp),%rax
   1046b:	48 89 85 68 f9 ff ff 	mov    %rax,-0x698(%rbp)
   10472:	48 8d 85 70 ef ff ff 	lea    -0x1090(%rbp),%rax
   10479:	48 89 85 70 f9 ff ff 	mov    %rax,-0x690(%rbp)
   10480:	48 8d 05 99 b2 00 00 	lea    0xb299(%rip),%rax        # 1b720 <g_85>
   10487:	48 89 85 78 f9 ff ff 	mov    %rax,-0x688(%rbp)
   1048e:	48 8d 85 68 ef ff ff 	lea    -0x1098(%rbp),%rax
   10495:	48 89 85 80 f9 ff ff 	mov    %rax,-0x680(%rbp)
   1049c:	48 8d 85 68 ef ff ff 	lea    -0x1098(%rbp),%rax
   104a3:	48 89 85 88 f9 ff ff 	mov    %rax,-0x678(%rbp)
   104aa:	48 8d 05 6f b2 00 00 	lea    0xb26f(%rip),%rax        # 1b720 <g_85>
   104b1:	48 89 85 90 f9 ff ff 	mov    %rax,-0x670(%rbp)
   104b8:	48 8d 85 70 ef ff ff 	lea    -0x1090(%rbp),%rax
   104bf:	48 89 85 98 f9 ff ff 	mov    %rax,-0x668(%rbp)
   104c6:	48 8d 85 70 ef ff ff 	lea    -0x1090(%rbp),%rax
   104cd:	48 89 85 a0 f9 ff ff 	mov    %rax,-0x660(%rbp)
   104d4:	48 c7 85 a8 f9 ff ff 	movq   $0x0,-0x658(%rbp)
   104db:	00 00 00 00 
   104df:	48 8d 85 c0 f8 ff ff 	lea    -0x740(%rbp),%rax
   104e6:	48 83 c0 40          	add    $0x40,%rax
   104ea:	48 89 85 c0 f0 ff ff 	mov    %rax,-0xf40(%rbp)
   104f1:	48 8b 95 80 f9 ff ff 	mov    -0x680(%rbp),%rdx
   104f8:	48 8b 85 c0 f0 ff ff 	mov    -0xf40(%rbp),%rax
   104ff:	48 89 10             	mov    %rdx,(%rax)
   10502:	48 8b 85 c0 f0 ff ff 	mov    -0xf40(%rbp),%rax
   10509:	48 8b 00             	mov    (%rax),%rax
   1050c:	48 39 85 98 ef ff ff 	cmp    %rax,-0x1068(%rbp)
   10513:	0f 95 c0             	setne  %al
   10516:	0f b6 c0             	movzbl %al,%eax
   10519:	be 02 00 00 00       	mov    $0x2,%esi
   1051e:	89 c7                	mov    %eax,%edi
   10520:	e8 7c 5d ff ff       	callq  62a1 <safe_lshift_func_int8_t_s_s>
   10525:	48 0f be c0          	movsbq %al,%rax
   10529:	48 39 85 b8 f0 ff ff 	cmp    %rax,-0xf48(%rbp)
   10530:	0f 96 c0             	setbe  %al
   10533:	0f b6 d0             	movzbl %al,%edx
   10536:	48 8b 85 b8 f0 ff ff 	mov    -0xf48(%rbp),%rax
   1053d:	0f b7 c0             	movzwl %ax,%eax
   10540:	89 d6                	mov    %edx,%esi
   10542:	89 c7                	mov    %eax,%edi
   10544:	e8 b6 67 ff ff       	callq  6cff <safe_add_func_uint16_t_u_u>
   10549:	48 8b 95 98 ef ff ff 	mov    -0x1068(%rbp),%rdx
   10550:	48 8b 12             	mov    (%rdx),%rdx
   10553:	8b 0a                	mov    (%rdx),%ecx
   10555:	0f b7 d0             	movzwl %ax,%edx
   10558:	48 8b 85 98 ef ff ff 	mov    -0x1068(%rbp),%rax
   1055f:	48 8b 00             	mov    (%rax),%rax
   10562:	31 ca                	xor    %ecx,%edx
   10564:	89 10                	mov    %edx,(%rax)
   10566:	48 8b 95 68 ef ff ff 	mov    -0x1098(%rbp),%rdx
   1056d:	8b 00                	mov    (%rax),%eax
   1056f:	89 02                	mov    %eax,(%rdx)
   10571:	48 8b 85 f8 ef ff ff 	mov    -0x1008(%rbp),%rax
   10578:	48 8b 00             	mov    (%rax),%rax
   1057b:	e9 ee 13 00 00       	jmpq   1196e <func_38+0x3da5>
   10580:	48 8b 05 c1 b1 00 00 	mov    0xb1c1(%rip),%rax        # 1b748 <g_321>
   10587:	8b 95 3c ee ff ff    	mov    -0x11c4(%rbp),%edx
   1058d:	88 10                	mov    %dl,(%rax)
   1058f:	0f b6 00             	movzbl (%rax),%eax
   10592:	0f b6 c0             	movzbl %al,%eax
   10595:	be 05 00 00 00       	mov    $0x5,%esi
   1059a:	89 c7                	mov    %eax,%edi
   1059c:	e8 ec 66 ff ff       	callq  6c8d <safe_rshift_func_uint8_t_u_s>
   105a1:	48 8b 95 48 ef ff ff 	mov    -0x10b8(%rbp),%rdx
   105a8:	8b 0a                	mov    (%rdx),%ecx
   105aa:	0f b6 d0             	movzbl %al,%edx
   105ad:	48 8b 85 48 ef ff ff 	mov    -0x10b8(%rbp),%rax
   105b4:	21 ca                	and    %ecx,%edx
   105b6:	89 10                	mov    %edx,(%rax)
   105b8:	8b 00                	mov    (%rax),%eax
   105ba:	85 c0                	test   %eax,%eax
   105bc:	74 0c                	je     105ca <func_38+0x2a01>
   105be:	48 8b 85 48 ee ff ff 	mov    -0x11b8(%rbp),%rax
   105c5:	e9 a4 13 00 00       	jmpq   1196e <func_38+0x3da5>
   105ca:	48 8d 85 5c ee ff ff 	lea    -0x11a4(%rbp),%rax
   105d1:	48 89 85 30 f0 ff ff 	mov    %rax,-0xfd0(%rbp)
   105d8:	48 c7 85 38 f0 ff ff 	movq   $0x0,-0xfc8(%rbp)
   105df:	00 00 00 00 
   105e3:	48 8d 05 56 b3 00 00 	lea    0xb356(%rip),%rax        # 1b940 <g_405>
   105ea:	48 89 85 40 f0 ff ff 	mov    %rax,-0xfc0(%rbp)
   105f1:	c7 85 dc ee ff ff 5a 	movl   $0x74425f5a,-0x1124(%rbp)
   105f8:	5f 42 74 
   105fb:	48 8d 05 26 9a 00 00 	lea    0x9a26(%rip),%rax        # 1a028 <g_7>
   10602:	48 89 85 78 ef ff ff 	mov    %rax,-0x1088(%rbp)
   10609:	48 8d 85 78 ef ff ff 	lea    -0x1088(%rbp),%rax
   10610:	48 89 85 48 f0 ff ff 	mov    %rax,-0xfb8(%rbp)
   10617:	c7 85 e0 ee ff ff 00 	movl   $0x0,-0x1120(%rbp)
   1061e:	00 00 00 
   10621:	c7 85 e4 ee ff ff f7 	movl   $0xfffffff7,-0x111c(%rbp)
   10628:	ff ff ff 
   1062b:	c7 85 e8 ee ff ff 06 	movl   $0x6,-0x1118(%rbp)
   10632:	00 00 00 
   10635:	48 8d 05 74 b3 00 00 	lea    0xb374(%rip),%rax        # 1b9b0 <g_763>
   1063c:	48 89 85 50 f0 ff ff 	mov    %rax,-0xfb0(%rbp)
   10643:	48 8d 05 4e c1 00 00 	lea    0xc14e(%rip),%rax        # 1c798 <g_818>
   1064a:	48 89 85 80 ef ff ff 	mov    %rax,-0x1080(%rbp)
   10651:	48 8d 85 80 ef ff ff 	lea    -0x1080(%rbp),%rax
   10658:	48 89 85 58 f0 ff ff 	mov    %rax,-0xfa8(%rbp)
   1065f:	c7 85 c0 ee ff ff 00 	movl   $0x0,-0x1140(%rbp)
   10666:	00 00 00 
   10669:	eb 1b                	jmp    10686 <func_38+0x2abd>
   1066b:	8b 85 c0 ee ff ff    	mov    -0x1140(%rbp),%eax
   10671:	48 98                	cltq   
   10673:	48 c7 84 c5 90 f1 ff 	movq   $0x0,-0xe70(%rbp,%rax,8)
   1067a:	ff 00 00 00 00 
   1067f:	83 85 c0 ee ff ff 01 	addl   $0x1,-0x1140(%rbp)
   10686:	83 bd c0 ee ff ff 01 	cmpl   $0x1,-0x1140(%rbp)
   1068d:	7e dc                	jle    1066b <func_38+0x2aa2>
   1068f:	8b 85 38 ee ff ff    	mov    -0x11c8(%rbp),%eax
   10695:	0f b6 d8             	movzbl %al,%ebx
   10698:	8b 85 38 ee ff ff    	mov    -0x11c8(%rbp),%eax
   1069e:	89 c2                	mov    %eax,%edx
   106a0:	48 8b 85 30 f0 ff ff 	mov    -0xfd0(%rbp),%rax
   106a7:	88 10                	mov    %dl,(%rax)
   106a9:	48 8b 85 30 f0 ff ff 	mov    -0xfd0(%rbp),%rax
   106b0:	44 0f b6 28          	movzbl (%rax),%r13d
   106b4:	48 8b 85 f8 ef ff ff 	mov    -0x1008(%rbp),%rax
   106bb:	48 8b 00             	mov    (%rax),%rax
   106be:	c6 00 74             	movb   $0x74,(%rax)
   106c1:	8b 85 dc ee ff ff    	mov    -0x1124(%rbp),%eax
   106c7:	0f be c0             	movsbl %al,%eax
   106ca:	be 74 00 00 00       	mov    $0x74,%esi
   106cf:	89 c7                	mov    %eax,%edi
   106d1:	e8 5b 5b ff ff       	callq  6231 <safe_mod_func_int8_t_s_s>
   106d6:	0f b7 05 53 9c 00 00 	movzwl 0x9c53(%rip),%eax        # 1a330 <g_397>
   106dd:	98                   	cwtl   
   106de:	39 85 dc ee ff ff    	cmp    %eax,-0x1124(%rbp)
   106e4:	0f 9e c0             	setle  %al
   106e7:	0f b6 c0             	movzbl %al,%eax
   106ea:	0b 85 3c ee ff ff    	or     -0x11c4(%rbp),%eax
   106f0:	89 c2                	mov    %eax,%edx
   106f2:	48 8b 85 48 ef ff ff 	mov    -0x10b8(%rbp),%rax
   106f9:	8b 00                	mov    (%rax),%eax
   106fb:	21 c2                	and    %eax,%edx
   106fd:	8b 85 d4 ee ff ff    	mov    -0x112c(%rbp),%eax
   10703:	39 c2                	cmp    %eax,%edx
   10705:	0f 95 c0             	setne  %al
   10708:	0f b6 c0             	movzbl %al,%eax
   1070b:	48 33 85 40 ee ff ff 	xor    -0x11c0(%rbp),%rax
   10712:	49 89 c4             	mov    %rax,%r12
   10715:	48 8b 85 70 ef ff ff 	mov    -0x1090(%rbp),%rax
   1071c:	8b 00                	mov    (%rax),%eax
   1071e:	48 98                	cltq   
   10720:	8b 15 46 c0 00 00    	mov    0xc046(%rip),%edx        # 1c76c <g_160>
   10726:	89 d2                	mov    %edx,%edx
   10728:	48 89 c6             	mov    %rax,%rsi
   1072b:	48 89 d7             	mov    %rdx,%rdi
   1072e:	e8 7c 69 ff ff       	callq  70af <safe_div_func_uint64_t_u_u>
   10733:	48 8b 95 40 f0 ff ff 	mov    -0xfc0(%rbp),%rdx
   1073a:	48 8b 8d a0 ef ff ff 	mov    -0x1060(%rbp),%rcx
   10741:	48 89 0a             	mov    %rcx,(%rdx)
   10744:	48 8b 95 40 f0 ff ff 	mov    -0xfc0(%rbp),%rdx
   1074b:	48 8b 12             	mov    (%rdx),%rdx
   1074e:	48 85 d2             	test   %rdx,%rdx
   10751:	0f 95 c2             	setne  %dl
   10754:	0f b6 d2             	movzbl %dl,%edx
   10757:	48 39 d0             	cmp    %rdx,%rax
   1075a:	0f 96 c0             	setbe  %al
   1075d:	0f b6 c0             	movzbl %al,%eax
   10760:	4c 89 e6             	mov    %r12,%rsi
   10763:	48 89 c7             	mov    %rax,%rdi
   10766:	e8 49 62 ff ff       	callq  69b4 <safe_mod_func_int64_t_s_s>
   1076b:	44 09 e8             	or     %r13d,%eax
   1076e:	0f b6 c0             	movzbl %al,%eax
   10771:	89 de                	mov    %ebx,%esi
   10773:	89 c7                	mov    %eax,%edi
   10775:	e8 34 64 ff ff       	callq  6bae <safe_mod_func_uint8_t_u_u>
   1077a:	89 c2                	mov    %eax,%edx
   1077c:	48 8b 85 70 ef ff ff 	mov    -0x1090(%rbp),%rax
   10783:	0f b6 d2             	movzbl %dl,%edx
   10786:	89 10                	mov    %edx,(%rax)
   10788:	8b 85 dc ee ff ff    	mov    -0x1124(%rbp),%eax
   1078e:	88 05 ac 9b 00 00    	mov    %al,0x9bac(%rip)        # 1a340 <g_454>
   10794:	0f b6 05 a5 9b 00 00 	movzbl 0x9ba5(%rip),%eax        # 1a340 <g_454>
   1079b:	0f be c0             	movsbl %al,%eax
   1079e:	89 c6                	mov    %eax,%esi
   107a0:	bf 3e 00 00 00       	mov    $0x3e,%edi
   107a5:	e8 c0 5a ff ff       	callq  626a <safe_div_func_int8_t_s_s>
   107aa:	0f be d0             	movsbl %al,%edx
   107ad:	8b 85 38 ee ff ff    	mov    -0x11c8(%rbp),%eax
   107b3:	31 d0                	xor    %edx,%eax
   107b5:	89 85 38 ee ff ff    	mov    %eax,-0x11c8(%rbp)
   107bb:	c7 85 6c ee ff ff 00 	movl   $0x0,-0x1194(%rbp)
   107c2:	00 00 00 
   107c5:	eb 24                	jmp    107eb <func_38+0x2c22>
   107c7:	48 c7 85 b0 f0 ff ff 	movq   $0x0,-0xf50(%rbp)
   107ce:	00 00 00 00 
   107d2:	c7 85 04 ef ff ff 86 	movl   $0xcf917786,-0x10fc(%rbp)
   107d9:	77 91 cf 
   107dc:	8b 85 6c ee ff ff    	mov    -0x1194(%rbp),%eax
   107e2:	83 c0 01             	add    $0x1,%eax
   107e5:	89 85 6c ee ff ff    	mov    %eax,-0x1194(%rbp)
   107eb:	8b 85 6c ee ff ff    	mov    -0x1194(%rbp),%eax
   107f1:	83 f8 0d             	cmp    $0xd,%eax
   107f4:	7f d1                	jg     107c7 <func_38+0x2bfe>
   107f6:	48 8b 05 4b af 00 00 	mov    0xaf4b(%rip),%rax        # 1b748 <g_321>
   107fd:	0f b6 00             	movzbl (%rax),%eax
   10800:	0f b6 d0             	movzbl %al,%edx
   10803:	48 8b 85 98 ef ff ff 	mov    -0x1068(%rbp),%rax
   1080a:	48 8b 00             	mov    (%rax),%rax
   1080d:	8b 00                	mov    (%rax),%eax
   1080f:	39 c2                	cmp    %eax,%edx
   10811:	0f 8c 2e 07 00 00    	jl     10f45 <func_38+0x337c>
   10817:	c7 85 40 f2 ff ff 0e 	movl   $0xe105df0e,-0xdc0(%rbp)
   1081e:	df 05 e1 
   10821:	c7 85 44 f2 ff ff c8 	movl   $0xa54da2c8,-0xdbc(%rbp)
   10828:	a2 4d a5 
   1082b:	c7 85 48 f2 ff ff c8 	movl   $0xa54da2c8,-0xdb8(%rbp)
   10832:	a2 4d a5 
   10835:	c7 85 4c f2 ff ff 0e 	movl   $0xe105df0e,-0xdb4(%rbp)
   1083c:	df 05 e1 
   1083f:	c7 85 50 f2 ff ff b5 	movl   $0xd671d4b5,-0xdb0(%rbp)
   10846:	d4 71 d6 
   10849:	c7 85 54 f2 ff ff b0 	movl   $0x9d6f5eb0,-0xdac(%rbp)
   10850:	5e 6f 9d 
   10853:	c7 85 58 f2 ff ff fd 	movl   $0xfffffffd,-0xda8(%rbp)
   1085a:	ff ff ff 
   1085d:	c7 85 5c f2 ff ff 79 	movl   $0xbf172d79,-0xda4(%rbp)
   10864:	2d 17 bf 
   10867:	c7 85 60 f2 ff ff fd 	movl   $0xfffffffd,-0xda0(%rbp)
   1086e:	ff ff ff 
   10871:	c7 85 64 f2 ff ff 79 	movl   $0xbf172d79,-0xd9c(%rbp)
   10878:	2d 17 bf 
   1087b:	c7 85 68 f2 ff ff 01 	movl   $0x1,-0xd98(%rbp)
   10882:	00 00 00 
   10885:	c7 85 6c f2 ff ff 0e 	movl   $0xe105df0e,-0xd94(%rbp)
   1088c:	df 05 e1 
   1088f:	c7 85 70 f2 ff ff 0e 	movl   $0xe105df0e,-0xd90(%rbp)
   10896:	df 05 e1 
   10899:	c7 85 74 f2 ff ff 01 	movl   $0x1,-0xd8c(%rbp)
   108a0:	00 00 00 
   108a3:	c7 85 78 f2 ff ff 79 	movl   $0xbf172d79,-0xd88(%rbp)
   108aa:	2d 17 bf 
   108ad:	c7 85 7c f2 ff ff 01 	movl   $0x1,-0xd84(%rbp)
   108b4:	00 00 00 
   108b7:	c7 85 80 f2 ff ff c8 	movl   $0xa54da2c8,-0xd80(%rbp)
   108be:	a2 4d a5 
   108c1:	c7 85 84 f2 ff ff e1 	movl   $0x1fb5d1e1,-0xd7c(%rbp)
   108c8:	d1 b5 1f 
   108cb:	c7 85 88 f2 ff ff ec 	movl   $0xc01581ec,-0xd78(%rbp)
   108d2:	81 15 c0 
   108d5:	c7 85 8c f2 ff ff b0 	movl   $0x9d6f5eb0,-0xd74(%rbp)
   108dc:	5e 6f 9d 
   108df:	c7 85 90 f2 ff ff 79 	movl   $0xbf172d79,-0xd70(%rbp)
   108e6:	2d 17 bf 
   108e9:	c7 85 94 f2 ff ff b5 	movl   $0xd671d4b5,-0xd6c(%rbp)
   108f0:	d4 71 d6 
   108f3:	c7 85 98 f2 ff ff b5 	movl   $0xd671d4b5,-0xd68(%rbp)
   108fa:	d4 71 d6 
   108fd:	c7 85 9c f2 ff ff 79 	movl   $0xbf172d79,-0xd64(%rbp)
   10904:	2d 17 bf 
   10907:	c7 85 a0 f2 ff ff b0 	movl   $0x9d6f5eb0,-0xd60(%rbp)
   1090e:	5e 6f 9d 
   10911:	c7 85 a4 f2 ff ff ec 	movl   $0xc01581ec,-0xd5c(%rbp)
   10918:	81 15 c0 
   1091b:	c7 85 a8 f2 ff ff 01 	movl   $0x1,-0xd58(%rbp)
   10922:	00 00 00 
   10925:	48 8d 05 3c 9a 00 00 	lea    0x9a3c(%rip),%rax        # 1a368 <g_729+0x8>
   1092c:	48 89 85 d0 f1 ff ff 	mov    %rax,-0xe30(%rbp)
   10933:	48 8d 05 2e 9a 00 00 	lea    0x9a2e(%rip),%rax        # 1a368 <g_729+0x8>
   1093a:	48 89 85 d8 f1 ff ff 	mov    %rax,-0xe28(%rbp)
   10941:	48 8d 05 20 9a 00 00 	lea    0x9a20(%rip),%rax        # 1a368 <g_729+0x8>
   10948:	48 89 85 e0 f1 ff ff 	mov    %rax,-0xe20(%rbp)
   1094f:	48 8d 05 12 9a 00 00 	lea    0x9a12(%rip),%rax        # 1a368 <g_729+0x8>
   10956:	48 89 85 e8 f1 ff ff 	mov    %rax,-0xe18(%rbp)
   1095d:	48 8d 05 04 9a 00 00 	lea    0x9a04(%rip),%rax        # 1a368 <g_729+0x8>
   10964:	48 89 85 f0 f1 ff ff 	mov    %rax,-0xe10(%rbp)
   1096b:	48 8d 05 f6 99 00 00 	lea    0x99f6(%rip),%rax        # 1a368 <g_729+0x8>
   10972:	48 89 85 f8 f1 ff ff 	mov    %rax,-0xe08(%rbp)
   10979:	c7 85 fc ee ff ff f8 	movl   $0xfffffff8,-0x1104(%rbp)
   10980:	ff ff ff 
   10983:	c7 85 c4 ee ff ff 00 	movl   $0x0,-0x113c(%rbp)
   1098a:	00 00 00 
   1098d:	eb 78                	jmp    10a07 <func_38+0x2e3e>
   1098f:	c7 85 c8 ee ff ff 00 	movl   $0x0,-0x1138(%rbp)
   10996:	00 00 00 
   10999:	eb 5c                	jmp    109f7 <func_38+0x2e2e>
   1099b:	c7 85 cc ee ff ff 00 	movl   $0x0,-0x1134(%rbp)
   109a2:	00 00 00 
   109a5:	eb 40                	jmp    109e7 <func_38+0x2e1e>
   109a7:	8b 85 cc ee ff ff    	mov    -0x1134(%rbp),%eax
   109ad:	48 63 c8             	movslq %eax,%rcx
   109b0:	8b 85 c4 ee ff ff    	mov    -0x113c(%rbp),%eax
   109b6:	48 63 d0             	movslq %eax,%rdx
   109b9:	8b 85 c8 ee ff ff    	mov    -0x1138(%rbp),%eax
   109bf:	48 63 f0             	movslq %eax,%rsi
   109c2:	48 89 d0             	mov    %rdx,%rax
   109c5:	48 01 c0             	add    %rax,%rax
   109c8:	48 01 d0             	add    %rdx,%rax
   109cb:	48 01 f0             	add    %rsi,%rax
   109ce:	48 c1 e0 03          	shl    $0x3,%rax
   109d2:	48 01 c8             	add    %rcx,%rax
   109d5:	c7 84 85 c0 f8 ff ff 	movl   $0x0,-0x740(%rbp,%rax,4)
   109dc:	00 00 00 00 
   109e0:	83 85 cc ee ff ff 01 	addl   $0x1,-0x1134(%rbp)
   109e7:	83 bd cc ee ff ff 07 	cmpl   $0x7,-0x1134(%rbp)
   109ee:	7e b7                	jle    109a7 <func_38+0x2dde>
   109f0:	83 85 c8 ee ff ff 01 	addl   $0x1,-0x1138(%rbp)
   109f7:	83 bd c8 ee ff ff 02 	cmpl   $0x2,-0x1138(%rbp)
   109fe:	7e 9b                	jle    1099b <func_38+0x2dd2>
   10a00:	83 85 c4 ee ff ff 01 	addl   $0x1,-0x113c(%rbp)
   10a07:	83 bd c4 ee ff ff 07 	cmpl   $0x7,-0x113c(%rbp)
   10a0e:	0f 8e 7b ff ff ff    	jle    1098f <func_38+0x2dc6>
   10a14:	c7 85 c4 ee ff ff 00 	movl   $0x0,-0x113c(%rbp)
   10a1b:	00 00 00 
   10a1e:	eb 1e                	jmp    10a3e <func_38+0x2e75>
   10a20:	8b 85 c4 ee ff ff    	mov    -0x113c(%rbp),%eax
   10a26:	48 98                	cltq   
   10a28:	48 8d 15 89 af 00 00 	lea    0xaf89(%rip),%rdx        # 1b9b8 <g_762>
   10a2f:	48 89 94 c5 80 f1 ff 	mov    %rdx,-0xe80(%rbp,%rax,8)
   10a36:	ff 
   10a37:	83 85 c4 ee ff ff 01 	addl   $0x1,-0x113c(%rbp)
   10a3e:	83 bd c4 ee ff ff 00 	cmpl   $0x0,-0x113c(%rbp)
   10a45:	7e d9                	jle    10a20 <func_38+0x2e57>
   10a47:	8b 85 38 ee ff ff    	mov    -0x11c8(%rbp),%eax
   10a4d:	83 e0 03             	and    $0x3,%eax
   10a50:	89 85 10 f9 ff ff    	mov    %eax,-0x6f0(%rbp)
   10a56:	8b 85 10 f9 ff ff    	mov    -0x6f0(%rbp),%eax
   10a5c:	8b 95 dc ee ff ff    	mov    -0x1124(%rbp),%edx
   10a62:	89 d6                	mov    %edx,%esi
   10a64:	89 c7                	mov    %eax,%edi
   10a66:	e8 61 5c ff ff       	callq  66cc <safe_mod_func_int32_t_s_s>
   10a6b:	85 c0                	test   %eax,%eax
   10a6d:	75 09                	jne    10a78 <func_38+0x2eaf>
   10a6f:	83 bd dc ee ff ff 00 	cmpl   $0x0,-0x1124(%rbp)
   10a76:	74 07                	je     10a7f <func_38+0x2eb6>
   10a78:	b8 01 00 00 00       	mov    $0x1,%eax
   10a7d:	eb 05                	jmp    10a84 <func_38+0x2ebb>
   10a7f:	b8 00 00 00 00       	mov    $0x0,%eax
   10a84:	89 85 dc ee ff ff    	mov    %eax,-0x1124(%rbp)
   10a8a:	48 8b 85 38 ef ff ff 	mov    -0x10c8(%rbp),%rax
   10a91:	8b 95 d8 ee ff ff    	mov    -0x1128(%rbp),%edx
   10a97:	48 89 10             	mov    %rdx,(%rax)
   10a9a:	48 8b 00             	mov    (%rax),%rax
   10a9d:	48 89 c1             	mov    %rax,%rcx
   10aa0:	48 8b 15 81 98 00 00 	mov    0x9881(%rip),%rdx        # 1a328 <g_395>
   10aa7:	48 8b 05 8a 98 00 00 	mov    0x988a(%rip),%rax        # 1a338 <g_424>
   10aae:	48 21 d0             	and    %rdx,%rax
   10ab1:	48 89 05 70 98 00 00 	mov    %rax,0x9870(%rip)        # 1a328 <g_395>
   10ab8:	48 8b 05 69 98 00 00 	mov    0x9869(%rip),%rax        # 1a328 <g_395>
   10abf:	48 21 c8             	and    %rcx,%rax
   10ac2:	48 85 c0             	test   %rax,%rax
   10ac5:	0f 95 c0             	setne  %al
   10ac8:	0f b6 c0             	movzbl %al,%eax
   10acb:	be 0c 00 00 00       	mov    $0xc,%esi
   10ad0:	89 c7                	mov    %eax,%edi
   10ad2:	e8 8c 5a ff ff       	callq  6563 <safe_rshift_func_int16_t_s_u>
   10ad7:	98                   	cwtl   
   10ad8:	be bb 7d 17 51       	mov    $0x51177dbb,%esi
   10add:	89 c7                	mov    %eax,%edi
   10adf:	e8 d2 5a ff ff       	callq  65b6 <safe_add_func_int32_t_s_s>
   10ae4:	be 03 00 00 00       	mov    $0x3,%esi
   10ae9:	bf 2b 00 00 00       	mov    $0x2b,%edi
   10aee:	e8 12 61 ff ff       	callq  6c05 <safe_lshift_func_uint8_t_u_s>
   10af3:	8b 85 dc ee ff ff    	mov    -0x1124(%rbp),%eax
   10af9:	89 c6                	mov    %eax,%esi
   10afb:	bf ff ff 00 00       	mov    $0xffff,%edi
   10b00:	e8 43 63 ff ff       	callq  6e48 <safe_rshift_func_uint16_t_u_s>
   10b05:	0f b7 d0             	movzwl %ax,%edx
   10b08:	0f b7 05 21 98 00 00 	movzwl 0x9821(%rip),%eax        # 1a330 <g_397>
   10b0f:	98                   	cwtl   
   10b10:	39 c2                	cmp    %eax,%edx
   10b12:	0f 95 c0             	setne  %al
   10b15:	0f b6 d0             	movzbl %al,%edx
   10b18:	48 8b 85 48 ef ff ff 	mov    -0x10b8(%rbp),%rax
   10b1f:	8b 00                	mov    (%rax),%eax
   10b21:	31 d0                	xor    %edx,%eax
   10b23:	0b 85 3c ee ff ff    	or     -0x11c4(%rbp),%eax
   10b29:	85 c0                	test   %eax,%eax
   10b2b:	74 13                	je     10b40 <func_38+0x2f77>
   10b2d:	8b 85 38 ee ff ff    	mov    -0x11c8(%rbp),%eax
   10b33:	85 c0                	test   %eax,%eax
   10b35:	0f 84 8a 02 00 00    	je     10dc5 <func_38+0x31fc>
   10b3b:	e9 27 0e 00 00       	jmpq   11967 <func_38+0x3d9e>
   10b40:	48 8d 85 40 ef ff ff 	lea    -0x10c0(%rbp),%rax
   10b47:	48 89 85 98 f0 ff ff 	mov    %rax,-0xf68(%rbp)
   10b4e:	48 8d 05 eb ab 00 00 	lea    0xabeb(%rip),%rax        # 1b740 <g_247>
   10b55:	48 89 85 00 f2 ff ff 	mov    %rax,-0xe00(%rbp)
   10b5c:	48 c7 85 08 f2 ff ff 	movq   $0x0,-0xdf8(%rbp)
   10b63:	00 00 00 00 
   10b67:	48 c7 85 10 f2 ff ff 	movq   $0x0,-0xdf0(%rbp)
   10b6e:	00 00 00 00 
   10b72:	48 8d 05 c7 ab 00 00 	lea    0xabc7(%rip),%rax        # 1b740 <g_247>
   10b79:	48 89 85 18 f2 ff ff 	mov    %rax,-0xde8(%rbp)
   10b80:	48 c7 85 20 f2 ff ff 	movq   $0x0,-0xde0(%rbp)
   10b87:	00 00 00 00 
   10b8b:	48 c7 85 28 f2 ff ff 	movq   $0x0,-0xdd8(%rbp)
   10b92:	00 00 00 00 
   10b96:	48 8d 05 a3 ab 00 00 	lea    0xaba3(%rip),%rax        # 1b740 <g_247>
   10b9d:	48 89 85 30 f2 ff ff 	mov    %rax,-0xdd0(%rbp)
   10ba4:	48 c7 85 38 f2 ff ff 	movq   $0x0,-0xdc8(%rbp)
   10bab:	00 00 00 00 
   10baf:	48 8d 05 ca bb 00 00 	lea    0xbbca(%rip),%rax        # 1c780 <g_713>
   10bb6:	48 89 85 a0 f0 ff ff 	mov    %rax,-0xf60(%rbp)
   10bbd:	48 b8 98 eb 31 3f 89 	movabs $0x1de91d893f31eb98,%rax
   10bc4:	1d e9 1d 
   10bc7:	48 89 85 a8 f0 ff ff 	mov    %rax,-0xf58(%rbp)
   10bce:	c7 85 00 ef ff ff d5 	movl   $0xa0021bd5,-0x1100(%rbp)
   10bd5:	1b 02 a0 
   10bd8:	8b 85 38 ee ff ff    	mov    -0x11c8(%rbp),%eax
   10bde:	0f b6 d8             	movzbl %al,%ebx
   10be1:	8b 05 85 bb 00 00    	mov    0xbb85(%rip),%eax        # 1c76c <g_160>
   10be7:	44 0f b7 e0          	movzwl %ax,%r12d
   10beb:	48 8b 95 40 ef ff ff 	mov    -0x10c0(%rbp),%rdx
   10bf2:	48 8b 85 98 f0 ff ff 	mov    -0xf68(%rbp),%rax
   10bf9:	48 89 10             	mov    %rdx,(%rax)
   10bfc:	8b 05 42 97 00 00    	mov    0x9742(%rip),%eax        # 1a344 <g_530>
   10c02:	44 0f be e8          	movsbl %al,%r13d
   10c06:	48 8b 15 3b ab 00 00 	mov    0xab3b(%rip),%rdx        # 1b748 <g_321>
   10c0d:	0f b6 02             	movzbl (%rdx),%eax
   10c10:	8d 48 01             	lea    0x1(%rax),%ecx
   10c13:	88 0a                	mov    %cl,(%rdx)
   10c15:	84 c0                	test   %al,%al
   10c17:	48 8b 85 98 ef ff ff 	mov    -0x1068(%rbp),%rax
   10c1e:	48 8b 00             	mov    (%rax),%rax
   10c21:	8b 10                	mov    (%rax),%edx
   10c23:	48 8b 05 16 ad 00 00 	mov    0xad16(%rip),%rax        # 1b940 <g_405>
   10c2a:	48 89 85 e8 f1 ff ff 	mov    %rax,-0xe18(%rbp)
   10c31:	48 8b 8d e8 f1 ff ff 	mov    -0xe18(%rbp),%rcx
   10c38:	48 8b 05 01 ad 00 00 	mov    0xad01(%rip),%rax        # 1b940 <g_405>
   10c3f:	48 39 c1             	cmp    %rax,%rcx
   10c42:	74 24                	je     10c68 <func_38+0x309f>
   10c44:	83 bd 3c ee ff ff 02 	cmpl   $0x2,-0x11c4(%rbp)
   10c4b:	0f 96 c0             	setbe  %al
   10c4e:	0f b6 c8             	movzbl %al,%ecx
   10c51:	48 8b 85 98 ef ff ff 	mov    -0x1068(%rbp),%rax
   10c58:	48 8b 00             	mov    (%rax),%rax
   10c5b:	8b 00                	mov    (%rax),%eax
   10c5d:	39 c1                	cmp    %eax,%ecx
   10c5f:	7f 07                	jg     10c68 <func_38+0x309f>
   10c61:	be 01 00 00 00       	mov    $0x1,%esi
   10c66:	eb 05                	jmp    10c6d <func_38+0x30a4>
   10c68:	be 00 00 00 00       	mov    $0x0,%esi
   10c6d:	48 8b 85 88 ef ff ff 	mov    -0x1078(%rbp),%rax
   10c74:	0f b6 00             	movzbl (%rax),%eax
   10c77:	89 c1                	mov    %eax,%ecx
   10c79:	89 f0                	mov    %esi,%eax
   10c7b:	21 c8                	and    %ecx,%eax
   10c7d:	89 c1                	mov    %eax,%ecx
   10c7f:	48 8b 85 88 ef ff ff 	mov    -0x1078(%rbp),%rax
   10c86:	88 08                	mov    %cl,(%rax)
   10c88:	48 8b 85 88 ef ff ff 	mov    -0x1078(%rbp),%rax
   10c8f:	0f b6 00             	movzbl (%rax),%eax
   10c92:	0f b6 c0             	movzbl %al,%eax
   10c95:	89 d6                	mov    %edx,%esi
   10c97:	89 c7                	mov    %eax,%edi
   10c99:	e8 ef 5f ff ff       	callq  6c8d <safe_rshift_func_uint8_t_u_s>
   10c9e:	84 c0                	test   %al,%al
   10ca0:	75 0e                	jne    10cb0 <func_38+0x30e7>
   10ca2:	48 8b 05 9f aa 00 00 	mov    0xaa9f(%rip),%rax        # 1b748 <g_321>
   10ca9:	0f b6 00             	movzbl (%rax),%eax
   10cac:	84 c0                	test   %al,%al
   10cae:	74 07                	je     10cb7 <func_38+0x30ee>
   10cb0:	b8 01 00 00 00       	mov    $0x1,%eax
   10cb5:	eb 05                	jmp    10cbc <func_38+0x30f3>
   10cb7:	b8 00 00 00 00       	mov    $0x0,%eax
   10cbc:	39 85 3c ee ff ff    	cmp    %eax,-0x11c4(%rbp)
   10cc2:	0f 93 c0             	setae  %al
   10cc5:	0f b6 c0             	movzbl %al,%eax
   10cc8:	89 c6                	mov    %eax,%esi
   10cca:	bf 00 00 00 00       	mov    $0x0,%edi
   10ccf:	e8 21 57 ff ff       	callq  63f5 <safe_mul_func_int16_t_s_s>
   10cd4:	48 8b 05 c5 ac 00 00 	mov    0xacc5(%rip),%rax        # 1b9a0 <g_674>
   10cdb:	48 8b 00             	mov    (%rax),%rax
   10cde:	8b 00                	mov    (%rax),%eax
   10ce0:	48 98                	cltq   
   10ce2:	48 39 85 40 ee ff ff 	cmp    %rax,-0x11c0(%rbp)
   10ce9:	0f 9e c0             	setle  %al
   10cec:	0f b6 d0             	movzbl %al,%edx
   10cef:	8b 05 e3 94 00 00    	mov    0x94e3(%rip),%eax        # 1a1d8 <g_248+0x98>
   10cf5:	39 c2                	cmp    %eax,%edx
   10cf7:	0f 95 c0             	setne  %al
   10cfa:	0f b6 c0             	movzbl %al,%eax
   10cfd:	44 89 ee             	mov    %r13d,%esi
   10d00:	89 c7                	mov    %eax,%edi
   10d02:	e8 0b 55 ff ff       	callq  6212 <safe_mul_func_int8_t_s_s>
   10d07:	48 8b 05 2a aa 00 00 	mov    0xaa2a(%rip),%rax        # 1b738 <g_243>
   10d0e:	48 89 85 20 f0 ff ff 	mov    %rax,-0xfe0(%rbp)
   10d15:	b8 01 00 00 00       	mov    $0x1,%eax
   10d1a:	44 0f b6 e8          	movzbl %al,%r13d
   10d1e:	be 03 00 00 00       	mov    $0x3,%esi
   10d23:	bf 01 00 00 00       	mov    $0x1,%edi
   10d28:	e8 1f 5f ff ff       	callq  6c4c <safe_lshift_func_uint8_t_u_u>
   10d2d:	0f b6 c0             	movzbl %al,%eax
   10d30:	44 89 ee             	mov    %r13d,%esi
   10d33:	89 c7                	mov    %eax,%edi
   10d35:	e8 74 5e ff ff       	callq  6bae <safe_mod_func_uint8_t_u_u>
   10d3a:	48 8d 05 3f ba 00 00 	lea    0xba3f(%rip),%rax        # 1c780 <g_713>
   10d41:	48 39 85 a0 f0 ff ff 	cmp    %rax,-0xf60(%rbp)
   10d48:	0f 95 c0             	setne  %al
   10d4b:	0f b6 c0             	movzbl %al,%eax
   10d4e:	44 89 e6             	mov    %r12d,%esi
   10d51:	89 c7                	mov    %eax,%edi
   10d53:	e8 36 60 ff ff       	callq  6d8e <safe_div_func_uint16_t_u_u>
   10d58:	48 8b 85 98 ef ff ff 	mov    -0x1068(%rbp),%rax
   10d5f:	48 8b 00             	mov    (%rax),%rax
   10d62:	8b 00                	mov    (%rax),%eax
   10d64:	0f b6 c0             	movzbl %al,%eax
   10d67:	89 de                	mov    %ebx,%esi
   10d69:	89 c7                	mov    %eax,%edi
   10d6b:	e8 6b 5e ff ff       	callq  6bdb <safe_div_func_uint8_t_u_u>
   10d70:	0f b6 c0             	movzbl %al,%eax
   10d73:	48 31 85 a8 f0 ff ff 	xor    %rax,-0xf58(%rbp)
   10d7a:	83 ad a0 ee ff ff 01 	subl   $0x1,-0x1160(%rbp)
   10d81:	8b 85 e4 ee ff ff    	mov    -0x111c(%rbp),%eax
   10d87:	89 85 00 ef ff ff    	mov    %eax,-0x1100(%rbp)
   10d8d:	8b 85 00 ef ff ff    	mov    -0x1100(%rbp),%eax
   10d93:	0f b7 d0             	movzwl %ax,%edx
   10d96:	8b 85 fc ee ff ff    	mov    -0x1104(%rbp),%eax
   10d9c:	0f b7 c0             	movzwl %ax,%eax
   10d9f:	89 d6                	mov    %edx,%esi
   10da1:	89 c7                	mov    %eax,%edi
   10da3:	e8 95 5f ff ff       	callq  6d3d <safe_mul_func_uint16_t_u_u>
   10da8:	48 8b 95 98 ef ff ff 	mov    -0x1068(%rbp),%rdx
   10daf:	48 8b 12             	mov    (%rdx),%rdx
   10db2:	8b 0a                	mov    (%rdx),%ecx
   10db4:	0f b7 d0             	movzwl %ax,%edx
   10db7:	48 8b 85 98 ef ff ff 	mov    -0x1068(%rbp),%rax
   10dbe:	48 8b 00             	mov    (%rax),%rax
   10dc1:	21 ca                	and    %ecx,%edx
   10dc3:	89 10                	mov    %edx,(%rax)
   10dc5:	48 8b 85 48 ef ff ff 	mov    -0x10b8(%rbp),%rax
   10dcc:	8b 00                	mov    (%rax),%eax
   10dce:	85 c0                	test   %eax,%eax
   10dd0:	0f 85 8b 08 00 00    	jne    11661 <func_38+0x3a98>
   10dd6:	48 8b 05 6b a9 00 00 	mov    0xa96b(%rip),%rax        # 1b748 <g_321>
   10ddd:	0f b6 00             	movzbl (%rax),%eax
   10de0:	0f b6 d8             	movzbl %al,%ebx
   10de3:	48 8b 85 98 ef ff ff 	mov    -0x1068(%rbp),%rax
   10dea:	48 8b 00             	mov    (%rax),%rax
   10ded:	8b 00                	mov    (%rax),%eax
   10def:	41 89 c6             	mov    %eax,%r14d
   10df2:	8b 05 20 93 00 00    	mov    0x9320(%rip),%eax        # 1a118 <g_232>
   10df8:	44 0f b7 e0          	movzwl %ax,%r12d
   10dfc:	48 8b 85 98 ef ff ff 	mov    -0x1068(%rbp),%rax
   10e03:	48 8b 00             	mov    (%rax),%rax
   10e06:	8b 00                	mov    (%rax),%eax
   10e08:	85 c0                	test   %eax,%eax
   10e0a:	75 72                	jne    10e7e <func_38+0x32b5>
   10e0c:	48 8b 05 95 ab 00 00 	mov    0xab95(%rip),%rax        # 1b9a8 <g_673>
   10e13:	48 8b 00             	mov    (%rax),%rax
   10e16:	48 8b 00             	mov    (%rax),%rax
   10e19:	8b 00                	mov    (%rax),%eax
   10e1b:	89 c2                	mov    %eax,%edx
   10e1d:	48 8b 05 fc a8 00 00 	mov    0xa8fc(%rip),%rax        # 1b720 <g_85>
   10e24:	8b 00                	mov    (%rax),%eax
   10e26:	21 d0                	and    %edx,%eax
   10e28:	44 0f b6 e8          	movzbl %al,%r13d
   10e2c:	8b 05 92 92 00 00    	mov    0x9292(%rip),%eax        # 1a0c4 <g_86+0x14>
   10e32:	89 85 dc ee ff ff    	mov    %eax,-0x1124(%rbp)
   10e38:	8b 85 dc ee ff ff    	mov    -0x1124(%rbp),%eax
   10e3e:	0f b7 c0             	movzwl %ax,%eax
   10e41:	be 05 00 00 00       	mov    $0x5,%esi
   10e46:	89 c7                	mov    %eax,%edi
   10e48:	e8 71 5f ff ff       	callq  6dbe <safe_lshift_func_uint16_t_u_s>
   10e4d:	48 8b 05 4c 60 00 00 	mov    0x604c(%rip),%rax        # 16ea0 <l_761.4731+0x580>
   10e54:	83 f0 01             	xor    $0x1,%eax
   10e57:	0f b6 d0             	movzbl %al,%edx
   10e5a:	48 83 bd b0 ef ff ff 	cmpq   $0x0,-0x1050(%rbp)
   10e61:	00 
   10e62:	0f 95 c0             	setne  %al
   10e65:	0f b6 c0             	movzbl %al,%eax
   10e68:	89 d6                	mov    %edx,%esi
   10e6a:	89 c7                	mov    %eax,%edi
   10e6c:	e8 e9 5c ff ff       	callq  6b5a <safe_add_func_uint8_t_u_u>
   10e71:	0f b6 c0             	movzbl %al,%eax
   10e74:	44 89 ee             	mov    %r13d,%esi
   10e77:	89 c7                	mov    %eax,%edi
   10e79:	e8 5d 5d ff ff       	callq  6bdb <safe_div_func_uint8_t_u_u>
   10e7e:	b8 01 00 00 00       	mov    $0x1,%eax
   10e83:	3b 85 fc ee ff ff    	cmp    -0x1104(%rbp),%eax
   10e89:	0f 9d c0             	setge  %al
   10e8c:	0f b6 c0             	movzbl %al,%eax
   10e8f:	44 89 e6             	mov    %r12d,%esi
   10e92:	89 c7                	mov    %eax,%edi
   10e94:	e8 f5 5e ff ff       	callq  6d8e <safe_div_func_uint16_t_u_u>
   10e99:	0f b7 c0             	movzwl %ax,%eax
   10e9c:	48 39 85 40 ee ff ff 	cmp    %rax,-0x11c0(%rbp)
   10ea3:	74 13                	je     10eb8 <func_38+0x32ef>
   10ea5:	48 8b 05 7c 94 00 00 	mov    0x947c(%rip),%rax        # 1a328 <g_395>
   10eac:	48 85 c0             	test   %rax,%rax
   10eaf:	74 07                	je     10eb8 <func_38+0x32ef>
   10eb1:	ba 01 00 00 00       	mov    $0x1,%edx
   10eb6:	eb 05                	jmp    10ebd <func_38+0x32f4>
   10eb8:	ba 00 00 00 00       	mov    $0x0,%edx
   10ebd:	8b 85 a8 f1 ff ff    	mov    -0xe58(%rbp),%eax
   10ec3:	21 d0                	and    %edx,%eax
   10ec5:	89 85 a8 f1 ff ff    	mov    %eax,-0xe58(%rbp)
   10ecb:	48 8b 05 e6 aa 00 00 	mov    0xaae6(%rip),%rax        # 1b9b8 <g_762>
   10ed2:	48 89 85 18 f0 ff ff 	mov    %rax,-0xfe8(%rbp)
   10ed9:	48 8b 85 18 f0 ff ff 	mov    -0xfe8(%rbp),%rax
   10ee0:	48 3b 85 50 f0 ff ff 	cmp    -0xfb0(%rbp),%rax
   10ee7:	0f 95 c0             	setne  %al
   10eea:	0f b6 c0             	movzbl %al,%eax
   10eed:	44 89 f6             	mov    %r14d,%esi
   10ef0:	89 c7                	mov    %eax,%edi
   10ef2:	e8 f7 53 ff ff       	callq  62ee <safe_lshift_func_int8_t_s_u>
   10ef7:	0f b6 c0             	movzbl %al,%eax
   10efa:	be 00 00 00 00       	mov    $0x0,%esi
   10eff:	89 c7                	mov    %eax,%edi
   10f01:	e8 b8 5d ff ff       	callq  6cbe <safe_rshift_func_uint8_t_u_u>
   10f06:	8b 85 38 ee ff ff    	mov    -0x11c8(%rbp),%eax
   10f0c:	f7 d0                	not    %eax
   10f0e:	0f b6 c0             	movzbl %al,%eax
   10f11:	89 de                	mov    %ebx,%esi
   10f13:	89 c7                	mov    %eax,%edi
   10f15:	e8 c1 5c ff ff       	callq  6bdb <safe_div_func_uint8_t_u_u>
   10f1a:	8b 85 e8 ee ff ff    	mov    -0x1118(%rbp),%eax
   10f20:	83 e0 01             	and    $0x1,%eax
   10f23:	83 f8 77             	cmp    $0x77,%eax
   10f26:	0f 9f c0             	setg   %al
   10f29:	0f b6 c8             	movzbl %al,%ecx
   10f2c:	48 8b 85 70 ef ff ff 	mov    -0x1090(%rbp),%rax
   10f33:	8b 10                	mov    (%rax),%edx
   10f35:	48 8b 85 70 ef ff ff 	mov    -0x1090(%rbp),%rax
   10f3c:	31 ca                	xor    %ecx,%edx
   10f3e:	89 10                	mov    %edx,(%rax)
   10f40:	e9 e1 05 00 00       	jmpq   11526 <func_38+0x395d>
   10f45:	48 8d 05 e4 93 00 00 	lea    0x93e4(%rip),%rax        # 1a330 <g_397>
   10f4c:	48 89 85 60 f0 ff ff 	mov    %rax,-0xfa0(%rbp)
   10f53:	48 8d 85 70 ee ff ff 	lea    -0x1190(%rbp),%rax
   10f5a:	48 89 85 68 f0 ff ff 	mov    %rax,-0xf98(%rbp)
   10f61:	c7 85 ec ee ff ff 4b 	movl   $0x14a01d4b,-0x1114(%rbp)
   10f68:	1d a0 14 
   10f6b:	48 8d 05 fe 93 00 00 	lea    0x93fe(%rip),%rax        # 1a370 <g_794>
   10f72:	48 89 85 70 f0 ff ff 	mov    %rax,-0xf90(%rbp)
   10f79:	c7 85 f0 ee ff ff 00 	movl   $0x0,-0x1110(%rbp)
   10f80:	00 00 00 
   10f83:	48 8d 05 ae a7 00 00 	lea    0xa7ae(%rip),%rax        # 1b738 <g_243>
   10f8a:	48 89 85 78 f0 ff ff 	mov    %rax,-0xf88(%rbp)
   10f91:	48 8b 05 88 a7 00 00 	mov    0xa788(%rip),%rax        # 1b720 <g_85>
   10f98:	8b 18                	mov    (%rax),%ebx
   10f9a:	44 8b a5 3c ee ff ff 	mov    -0x11c4(%rbp),%r12d
   10fa1:	8b 85 38 ee ff ff    	mov    -0x11c8(%rbp),%eax
   10fa7:	44 0f bf e8          	movswl %ax,%r13d
   10fab:	48 8b 85 08 f0 ff ff 	mov    -0xff8(%rbp),%rax
   10fb2:	48 8b 00             	mov    (%rax),%rax
   10fb5:	48 8b 08             	mov    (%rax),%rcx
   10fb8:	48 8b 85 98 ef ff ff 	mov    -0x1068(%rbp),%rax
   10fbf:	48 8b 00             	mov    (%rax),%rax
   10fc2:	8b 00                	mov    (%rax),%eax
   10fc4:	48 63 d0             	movslq %eax,%rdx
   10fc7:	48 8b 85 08 f0 ff ff 	mov    -0xff8(%rbp),%rax
   10fce:	48 8b 00             	mov    (%rax),%rax
   10fd1:	48 21 ca             	and    %rcx,%rdx
   10fd4:	48 89 10             	mov    %rdx,(%rax)
   10fd7:	48 8b 00             	mov    (%rax),%rax
   10fda:	48 89 85 40 ee ff ff 	mov    %rax,-0x11c0(%rbp)
   10fe1:	48 8b 05 40 a7 00 00 	mov    0xa740(%rip),%rax        # 1b728 <g_159>
   10fe8:	8b 00                	mov    (%rax),%eax
   10fea:	85 c0                	test   %eax,%eax
   10fec:	0f 95 c0             	setne  %al
   10fef:	0f b6 d0             	movzbl %al,%edx
   10ff2:	48 8b 85 68 f0 ff ff 	mov    -0xf98(%rbp),%rax
   10ff9:	8b 00                	mov    (%rax),%eax
   10ffb:	31 c2                	xor    %eax,%edx
   10ffd:	48 8b 85 68 f0 ff ff 	mov    -0xf98(%rbp),%rax
   11004:	89 10                	mov    %edx,(%rax)
   11006:	48 8b 05 3b a7 00 00 	mov    0xa73b(%rip),%rax        # 1b748 <g_321>
   1100d:	0f b6 00             	movzbl (%rax),%eax
   11010:	0f b6 c0             	movzbl %al,%eax
   11013:	be 01 00 00 00       	mov    $0x1,%esi
   11018:	89 c7                	mov    %eax,%edi
   1101a:	e8 59 5b ff ff       	callq  6b78 <safe_sub_func_uint8_t_u_u>
   1101f:	0f b6 d0             	movzbl %al,%edx
   11022:	48 8b 85 b8 ef ff ff 	mov    -0x1048(%rbp),%rax
   11029:	66 89 10             	mov    %dx,(%rax)
   1102c:	48 8b 85 b8 ef ff ff 	mov    -0x1048(%rbp),%rax
   11033:	0f b7 00             	movzwl (%rax),%eax
   11036:	44 0f bf f0          	movswl %ax,%r14d
   1103a:	8b 05 28 b7 00 00    	mov    0xb728(%rip),%eax        # 1c768 <g_4>
   11040:	48 63 d0             	movslq %eax,%rdx
   11043:	8b 85 3c ee ff ff    	mov    -0x11c4(%rbp),%eax
   11049:	48 89 d6             	mov    %rdx,%rsi
   1104c:	48 89 c7             	mov    %rax,%rdi
   1104f:	e8 5b 60 ff ff       	callq  70af <safe_div_func_uint64_t_u_u>
   11054:	89 c7                	mov    %eax,%edi
   11056:	e8 4b 5e ff ff       	callq  6ea6 <safe_unary_minus_func_uint32_t_u>
   1105b:	98                   	cwtl   
   1105c:	44 89 f6             	mov    %r14d,%esi
   1105f:	89 c7                	mov    %eax,%edi
   11061:	e8 4d 53 ff ff       	callq  63b3 <safe_add_func_int16_t_s_s>
   11066:	0f bf d0             	movswl %ax,%edx
   11069:	48 8b 05 38 a9 00 00 	mov    0xa938(%rip),%rax        # 1b9a8 <g_673>
   11070:	48 8b 00             	mov    (%rax),%rax
   11073:	48 8b 00             	mov    (%rax),%rax
   11076:	8b 00                	mov    (%rax),%eax
   11078:	89 d6                	mov    %edx,%esi
   1107a:	89 c7                	mov    %eax,%edi
   1107c:	e8 7e 56 ff ff       	callq  66ff <safe_div_func_int32_t_s_s>
   11081:	98                   	cwtl   
   11082:	44 89 ee             	mov    %r13d,%esi
   11085:	89 c7                	mov    %eax,%edi
   11087:	e8 8a 53 ff ff       	callq  6416 <safe_mod_func_int16_t_s_s>
   1108c:	98                   	cwtl   
   1108d:	44 89 e6             	mov    %r12d,%esi
   11090:	89 c7                	mov    %eax,%edi
   11092:	e8 1f 55 ff ff       	callq  65b6 <safe_add_func_int32_t_s_s>
   11097:	85 c0                	test   %eax,%eax
   11099:	75 09                	jne    110a4 <func_38+0x34db>
   1109b:	83 bd 3c ee ff ff 00 	cmpl   $0x0,-0x11c4(%rbp)
   110a2:	74 07                	je     110ab <func_38+0x34e2>
   110a4:	b8 01 00 00 00       	mov    $0x1,%eax
   110a9:	eb 05                	jmp    110b0 <func_38+0x34e7>
   110ab:	b8 00 00 00 00       	mov    $0x0,%eax
   110b0:	89 de                	mov    %ebx,%esi
   110b2:	89 c7                	mov    %eax,%edi
   110b4:	e8 4c 55 ff ff       	callq  6605 <safe_sub_func_int32_t_s_s>
   110b9:	be 06 00 00 00       	mov    $0x6,%esi
   110be:	bf 00 00 00 00       	mov    $0x0,%edi
   110c3:	e8 c5 5b ff ff       	callq  6c8d <safe_rshift_func_uint8_t_u_s>
   110c8:	48 8b 95 68 ef ff ff 	mov    -0x1098(%rbp),%rdx
   110cf:	8b 0a                	mov    (%rdx),%ecx
   110d1:	0f b6 d0             	movzbl %al,%edx
   110d4:	48 8b 85 68 ef ff ff 	mov    -0x1098(%rbp),%rax
   110db:	31 ca                	xor    %ecx,%edx
   110dd:	89 10                	mov    %edx,(%rax)
   110df:	8b 00                	mov    (%rax),%eax
   110e1:	85 c0                	test   %eax,%eax
   110e3:	0f 84 53 01 00 00    	je     1123c <func_38+0x3673>
   110e9:	48 8d 85 90 f1 ff ff 	lea    -0xe70(%rbp),%rax
   110f0:	48 89 85 88 f0 ff ff 	mov    %rax,-0xf78(%rbp)
   110f7:	c7 85 f8 ee ff ff 00 	movl   $0x0,-0x1108(%rbp)
   110fe:	00 00 00 
   11101:	48 b8 25 d4 5c 1e 82 	movabs $0xbdebab821e5cd425,%rax
   11108:	ab eb bd 
   1110b:	48 89 85 90 f0 ff ff 	mov    %rax,-0xf70(%rbp)
   11112:	66 c7 85 5e ee ff ff 	movw   $0x5a88,-0x11a2(%rbp)
   11119:	88 5a 
   1111b:	c7 85 ec ee ff ff ef 	movl   $0xd60699ef,-0x1114(%rbp)
   11122:	99 06 d6 
   11125:	48 8b 85 70 ef ff ff 	mov    -0x1090(%rbp),%rax
   1112c:	8b 08                	mov    (%rax),%ecx
   1112e:	48 8b 05 6b a8 00 00 	mov    0xa86b(%rip),%rax        # 1b9a0 <g_674>
   11135:	48 8b 00             	mov    (%rax),%rax
   11138:	8b 10                	mov    (%rax),%edx
   1113a:	48 8b 85 70 ef ff ff 	mov    -0x1090(%rbp),%rax
   11141:	21 ca                	and    %ecx,%edx
   11143:	89 10                	mov    %edx,(%rax)
   11145:	48 8b 85 98 ef ff ff 	mov    -0x1068(%rbp),%rax
   1114c:	48 8b 00             	mov    (%rax),%rax
   1114f:	8b 10                	mov    (%rax),%edx
   11151:	48 83 bd 40 ee ff ff 	cmpq   $0x0,-0x11c0(%rbp)
   11158:	00 
   11159:	74 39                	je     11194 <func_38+0x35cb>
   1115b:	48 8b 05 3e a8 00 00 	mov    0xa83e(%rip),%rax        # 1b9a0 <g_674>
   11162:	48 8b 00             	mov    (%rax),%rax
   11165:	8b 30                	mov    (%rax),%esi
   11167:	48 8b 8d 98 f1 ff ff 	mov    -0xe68(%rbp),%rcx
   1116e:	48 8b 85 88 f0 ff ff 	mov    -0xf78(%rbp),%rax
   11175:	48 89 08             	mov    %rcx,(%rax)
   11178:	48 8b 85 88 f0 ff ff 	mov    -0xf78(%rbp),%rax
   1117f:	48 8b 08             	mov    (%rax),%rcx
   11182:	48 8b 85 60 ef ff ff 	mov    -0x10a0(%rbp),%rax
   11189:	48 39 c1             	cmp    %rax,%rcx
   1118c:	0f 95 c0             	setne  %al
   1118f:	0f b6 c0             	movzbl %al,%eax
   11192:	39 c6                	cmp    %eax,%esi
   11194:	48 8b 85 68 ef ff ff 	mov    -0x1098(%rbp),%rax
   1119b:	c7 00 01 00 00 00    	movl   $0x1,(%rax)
   111a1:	48 8b 85 68 ef ff ff 	mov    -0x1098(%rbp),%rax
   111a8:	8b 00                	mov    (%rax),%eax
   111aa:	98                   	cwtl   
   111ab:	89 d6                	mov    %edx,%esi
   111ad:	89 c7                	mov    %eax,%edi
   111af:	e8 de 52 ff ff       	callq  6492 <safe_lshift_func_int16_t_s_s>
   111b4:	8b 05 02 8f 00 00    	mov    0x8f02(%rip),%eax        # 1a0bc <g_86+0xc>
   111ba:	39 85 f8 ee ff ff    	cmp    %eax,-0x1108(%rbp)
   111c0:	0f 95 c0             	setne  %al
   111c3:	0f b6 d0             	movzbl %al,%edx
   111c6:	8b 85 38 ee ff ff    	mov    -0x11c8(%rbp),%eax
   111cc:	39 c2                	cmp    %eax,%edx
   111ce:	7d 0a                	jge    111da <func_38+0x3611>
   111d0:	48 83 bd 90 f0 ff ff 	cmpq   $0x0,-0xf70(%rbp)
   111d7:	00 
   111d8:	74 07                	je     111e1 <func_38+0x3618>
   111da:	b8 01 00 00 00       	mov    $0x1,%eax
   111df:	eb 05                	jmp    111e6 <func_38+0x361d>
   111e1:	b8 00 00 00 00       	mov    $0x0,%eax
   111e6:	3d 1e bd 00 00       	cmp    $0xbd1e,%eax
   111eb:	0f 9f c0             	setg   %al
   111ee:	0f b6 d0             	movzbl %al,%edx
   111f1:	48 8b 85 40 ee ff ff 	mov    -0x11c0(%rbp),%rax
   111f8:	48 89 d6             	mov    %rdx,%rsi
   111fb:	48 89 c7             	mov    %rax,%rdi
   111fe:	e8 2b 5e ff ff       	callq  702e <safe_add_func_uint64_t_u_u>
   11203:	66 09 85 5e ee ff ff 	or     %ax,-0x11a2(%rbp)
   1120a:	0f b7 95 5e ee ff ff 	movzwl -0x11a2(%rbp),%edx
   11211:	48 8b 85 90 ef ff ff 	mov    -0x1070(%rbp),%rax
   11218:	89 10                	mov    %edx,(%rax)
   1121a:	48 8b 05 ff a4 00 00 	mov    0xa4ff(%rip),%rax        # 1b720 <g_85>
   11221:	8b 08                	mov    (%rax),%ecx
   11223:	48 8b 85 70 ef ff ff 	mov    -0x1090(%rbp),%rax
   1122a:	8b 10                	mov    (%rax),%edx
   1122c:	48 8b 85 70 ef ff ff 	mov    -0x1090(%rbp),%rax
   11233:	21 ca                	and    %ecx,%edx
   11235:	89 10                	mov    %edx,(%rax)
   11237:	e9 ea 02 00 00       	jmpq   11526 <func_38+0x395d>
   1123c:	48 8d 05 4d b5 00 00 	lea    0xb54d(%rip),%rax        # 1c790 <g_812>
   11243:	48 89 85 c0 f8 ff ff 	mov    %rax,-0x740(%rbp)
   1124a:	48 8d 05 3f b5 00 00 	lea    0xb53f(%rip),%rax        # 1c790 <g_812>
   11251:	48 89 85 c8 f8 ff ff 	mov    %rax,-0x738(%rbp)
   11258:	48 8d 05 31 b5 00 00 	lea    0xb531(%rip),%rax        # 1c790 <g_812>
   1125f:	48 89 85 d0 f8 ff ff 	mov    %rax,-0x730(%rbp)
   11266:	48 8d 05 23 b5 00 00 	lea    0xb523(%rip),%rax        # 1c790 <g_812>
   1126d:	48 89 85 d8 f8 ff ff 	mov    %rax,-0x728(%rbp)
   11274:	48 8d 05 15 b5 00 00 	lea    0xb515(%rip),%rax        # 1c790 <g_812>
   1127b:	48 89 85 e0 f8 ff ff 	mov    %rax,-0x720(%rbp)
   11282:	48 8d 05 07 b5 00 00 	lea    0xb507(%rip),%rax        # 1c790 <g_812>
   11289:	48 89 85 e8 f8 ff ff 	mov    %rax,-0x718(%rbp)
   11290:	48 8d 05 f9 b4 00 00 	lea    0xb4f9(%rip),%rax        # 1c790 <g_812>
   11297:	48 89 85 f0 f8 ff ff 	mov    %rax,-0x710(%rbp)
   1129e:	48 8d 05 eb b4 00 00 	lea    0xb4eb(%rip),%rax        # 1c790 <g_812>
   112a5:	48 89 85 f8 f8 ff ff 	mov    %rax,-0x708(%rbp)
   112ac:	48 8d 05 dd b4 00 00 	lea    0xb4dd(%rip),%rax        # 1c790 <g_812>
   112b3:	48 89 85 00 f9 ff ff 	mov    %rax,-0x700(%rbp)
   112ba:	48 c7 85 80 f0 ff ff 	movq   $0x0,-0xf80(%rbp)
   112c1:	00 00 00 00 
   112c5:	48 8d 85 40 ef ff ff 	lea    -0x10c0(%rbp),%rax
   112cc:	48 89 85 40 f2 ff ff 	mov    %rax,-0xdc0(%rbp)
   112d3:	48 8d 85 40 ef ff ff 	lea    -0x10c0(%rbp),%rax
   112da:	48 89 85 48 f2 ff ff 	mov    %rax,-0xdb8(%rbp)
   112e1:	48 8d 85 40 ef ff ff 	lea    -0x10c0(%rbp),%rax
   112e8:	48 89 85 50 f2 ff ff 	mov    %rax,-0xdb0(%rbp)
   112ef:	48 8d 85 40 ef ff ff 	lea    -0x10c0(%rbp),%rax
   112f6:	48 89 85 58 f2 ff ff 	mov    %rax,-0xda8(%rbp)
   112fd:	48 8d 85 40 ef ff ff 	lea    -0x10c0(%rbp),%rax
   11304:	48 89 85 60 f2 ff ff 	mov    %rax,-0xda0(%rbp)
   1130b:	c7 85 f4 ee ff ff f4 	movl   $0xe683d1f4,-0x110c(%rbp)
   11312:	d1 83 e6 
   11315:	c7 85 d0 ee ff ff 00 	movl   $0x0,-0x1130(%rbp)
   1131c:	00 00 00 
   1131f:	eb 22                	jmp    11343 <func_38+0x377a>
   11321:	8b 85 d0 ee ff ff    	mov    -0x1130(%rbp),%eax
   11327:	48 98                	cltq   
   11329:	48 8d 95 40 f2 ff ff 	lea    -0xdc0(%rbp),%rdx
   11330:	48 83 c2 10          	add    $0x10,%rdx
   11334:	48 89 94 c5 00 f2 ff 	mov    %rdx,-0xe00(%rbp,%rax,8)
   1133b:	ff 
   1133c:	83 85 d0 ee ff ff 01 	addl   $0x1,-0x1130(%rbp)
   11343:	83 bd d0 ee ff ff 02 	cmpl   $0x2,-0x1130(%rbp)
   1134a:	7e d5                	jle    11321 <func_38+0x3758>
   1134c:	48 8b 85 70 ef ff ff 	mov    -0x1090(%rbp),%rax
   11353:	8b 08                	mov    (%rax),%ecx
   11355:	48 8b 05 64 a6 00 00 	mov    0xa664(%rip),%rax        # 1b9c0 <g_801>
   1135c:	48 85 c0             	test   %rax,%rax
   1135f:	0f 95 c0             	setne  %al
   11362:	0f b6 d0             	movzbl %al,%edx
   11365:	48 8b 85 70 ef ff ff 	mov    -0x1090(%rbp),%rax
   1136c:	21 ca                	and    %ecx,%edx
   1136e:	89 10                	mov    %edx,(%rax)
   11370:	48 8b 85 98 ef ff ff 	mov    -0x1068(%rbp),%rax
   11377:	48 8b 00             	mov    (%rax),%rax
   1137a:	8b 00                	mov    (%rax),%eax
   1137c:	85 c0                	test   %eax,%eax
   1137e:	0f 85 e2 05 00 00    	jne    11966 <func_38+0x3d9d>
   11384:	8b 05 8e 8d 00 00    	mov    0x8d8e(%rip),%eax        # 1a118 <g_232>
   1138a:	89 c0                	mov    %eax,%eax
   1138c:	48 89 85 30 ee ff ff 	mov    %rax,-0x11d0(%rbp)
   11393:	8b 9d f4 ee ff ff    	mov    -0x110c(%rbp),%ebx
   11399:	48 8d 05 a0 a3 00 00 	lea    0xa3a0(%rip),%rax        # 1b740 <g_247>
   113a0:	48 89 85 78 f0 ff ff 	mov    %rax,-0xf88(%rbp)
   113a7:	48 8d 05 92 a3 00 00 	lea    0xa392(%rip),%rax        # 1b740 <g_247>
   113ae:	48 39 85 58 f0 ff ff 	cmp    %rax,-0xfa8(%rbp)
   113b5:	0f 95 c0             	setne  %al
   113b8:	44 0f b6 f0          	movzbl %al,%r14d
   113bc:	8b 85 38 ee ff ff    	mov    -0x11c8(%rbp),%eax
   113c2:	44 0f bf e0          	movswl %ax,%r12d
   113c6:	0f b7 05 63 8f 00 00 	movzwl 0x8f63(%rip),%eax        # 1a330 <g_397>
   113cd:	44 0f be e8          	movsbl %al,%r13d
   113d1:	8b 85 dc ee ff ff    	mov    -0x1124(%rbp),%eax
   113d7:	4c 63 f8             	movslq %eax,%r15
   113da:	8b 85 3c ee ff ff    	mov    -0x11c4(%rbp),%eax
   113e0:	48 89 c6             	mov    %rax,%rsi
   113e3:	48 c7 c7 fd ff ff ff 	mov    $0xfffffffffffffffd,%rdi
   113ea:	e8 5c 5c ff ff       	callq  704b <safe_sub_func_uint64_t_u_u>
   113ef:	49 39 c7             	cmp    %rax,%r15
   113f2:	0f 96 c2             	setbe  %dl
   113f5:	48 8b 85 98 ef ff ff 	mov    -0x1068(%rbp),%rax
   113fc:	48 8b 00             	mov    (%rax),%rax
   113ff:	0f b6 d2             	movzbl %dl,%edx
   11402:	89 10                	mov    %edx,(%rax)
   11404:	48 83 bd 40 ee ff ff 	cmpq   $0x0,-0x11c0(%rbp)
   1140b:	00 
   1140c:	74 11                	je     1141f <func_38+0x3856>
   1140e:	48 83 bd 40 ee ff ff 	cmpq   $0x0,-0x11c0(%rbp)
   11415:	00 
   11416:	74 07                	je     1141f <func_38+0x3856>
   11418:	b8 01 00 00 00       	mov    $0x1,%eax
   1141d:	eb 05                	jmp    11424 <func_38+0x385b>
   1141f:	b8 00 00 00 00       	mov    $0x0,%eax
   11424:	48 98                	cltq   
   11426:	48 39 85 40 ee ff ff 	cmp    %rax,-0x11c0(%rbp)
   1142d:	0f 95 c0             	setne  %al
   11430:	0f b6 c0             	movzbl %al,%eax
   11433:	44 89 ee             	mov    %r13d,%esi
   11436:	89 c7                	mov    %eax,%edi
   11438:	e8 2d 4e ff ff       	callq  626a <safe_div_func_int8_t_s_s>
   1143d:	0f be c0             	movsbl %al,%eax
   11440:	39 85 3c ee ff ff    	cmp    %eax,-0x11c4(%rbp)
   11446:	0f 92 c0             	setb   %al
   11449:	0f b6 c0             	movzbl %al,%eax
   1144c:	44 89 e6             	mov    %r12d,%esi
   1144f:	89 c7                	mov    %eax,%edi
   11451:	e8 9f 4f ff ff       	callq  63f5 <safe_mul_func_int16_t_s_s>
   11456:	98                   	cwtl   
   11457:	41 39 c6             	cmp    %eax,%r14d
   1145a:	0f 9f c2             	setg   %dl
   1145d:	48 8b 85 68 ef ff ff 	mov    -0x1098(%rbp),%rax
   11464:	0f b6 d2             	movzbl %dl,%edx
   11467:	89 10                	mov    %edx,(%rax)
   11469:	8b 00                	mov    (%rax),%eax
   1146b:	85 c0                	test   %eax,%eax
   1146d:	74 17                	je     11486 <func_38+0x38bd>
   1146f:	48 8b 05 2a a5 00 00 	mov    0xa52a(%rip),%rax        # 1b9a0 <g_674>
   11476:	48 8b 00             	mov    (%rax),%rax
   11479:	8b 00                	mov    (%rax),%eax
   1147b:	85 c0                	test   %eax,%eax
   1147d:	74 07                	je     11486 <func_38+0x38bd>
   1147f:	b8 01 00 00 00       	mov    $0x1,%eax
   11484:	eb 05                	jmp    1148b <func_38+0x38c2>
   11486:	b8 00 00 00 00       	mov    $0x0,%eax
   1148b:	44 0f be e0          	movsbl %al,%r12d
   1148f:	8b 85 3c ee ff ff    	mov    -0x11c4(%rbp),%eax
   11495:	0f b7 c0             	movzwl %ax,%eax
   11498:	be 07 00 00 00       	mov    $0x7,%esi
   1149d:	89 c7                	mov    %eax,%edi
   1149f:	e8 1a 59 ff ff       	callq  6dbe <safe_lshift_func_uint16_t_u_s>
   114a4:	0f b7 d0             	movzwl %ax,%edx
   114a7:	48 8b 05 7a 8b 00 00 	mov    0x8b7a(%rip),%rax        # 1a028 <g_7>
   114ae:	48 39 c2             	cmp    %rax,%rdx
   114b1:	0f 95 c0             	setne  %al
   114b4:	0f b6 d0             	movzbl %al,%edx
   114b7:	48 8b 05 d2 b2 00 00 	mov    0xb2d2(%rip),%rax        # 1c790 <g_812>
   114be:	48 89 85 e8 ef ff ff 	mov    %rax,-0x1018(%rbp)
   114c5:	48 8d 85 60 ef ff ff 	lea    -0x10a0(%rbp),%rax
   114cc:	48 39 85 e8 ef ff ff 	cmp    %rax,-0x1018(%rbp)
   114d3:	0f 95 c0             	setne  %al
   114d6:	0f b6 c0             	movzbl %al,%eax
   114d9:	39 c2                	cmp    %eax,%edx
   114db:	0f 9f c0             	setg   %al
   114de:	0f b6 c0             	movzbl %al,%eax
   114e1:	44 89 e6             	mov    %r12d,%esi
   114e4:	89 c7                	mov    %eax,%edi
   114e6:	e8 46 4d ff ff       	callq  6231 <safe_mod_func_int8_t_s_s>
   114eb:	89 de                	mov    %ebx,%esi
   114ed:	bf 01 00 00 00       	mov    $0x1,%edi
   114f2:	e8 6c 50 ff ff       	callq  6563 <safe_rshift_func_int16_t_s_u>
   114f7:	98                   	cwtl   
   114f8:	39 85 f0 ee ff ff    	cmp    %eax,-0x1110(%rbp)
   114fe:	0f 95 c0             	setne  %al
   11501:	0f b6 c0             	movzbl %al,%eax
   11504:	48 8b b5 30 ee ff ff 	mov    -0x11d0(%rbp),%rsi
   1150b:	48 89 c7             	mov    %rax,%rdi
   1150e:	e8 9c 5b ff ff       	callq  70af <safe_div_func_uint64_t_u_u>
   11513:	89 85 38 ee ff ff    	mov    %eax,-0x11c8(%rbp)
   11519:	83 bd 9c ee ff ff 00 	cmpl   $0x0,-0x1164(%rbp)
   11520:	0f 85 5d c8 ff ff    	jne    dd83 <func_38+0x1ba>
   11526:	48 8b 85 98 ef ff ff 	mov    -0x1068(%rbp),%rax
   1152d:	48 8b 00             	mov    (%rax),%rax
   11530:	8b 00                	mov    (%rax),%eax
   11532:	0f be d0             	movsbl %al,%edx
   11535:	48 8b 85 70 ef ff ff 	mov    -0x1090(%rbp),%rax
   1153c:	8b 08                	mov    (%rax),%ecx
   1153e:	48 8b 85 70 ef ff ff 	mov    -0x1090(%rbp),%rax
   11545:	83 c9 01             	or     $0x1,%ecx
   11548:	89 08                	mov    %ecx,(%rax)
   1154a:	8b 00                	mov    (%rax),%eax
   1154c:	88 05 ee 8d 00 00    	mov    %al,0x8dee(%rip)        # 1a340 <g_454>
   11552:	0f b6 05 e7 8d 00 00 	movzbl 0x8de7(%rip),%eax        # 1a340 <g_454>
   11559:	0f be c0             	movsbl %al,%eax
   1155c:	89 d6                	mov    %edx,%esi
   1155e:	89 c7                	mov    %eax,%edi
   11560:	e8 cc 4c ff ff       	callq  6231 <safe_mod_func_int8_t_s_s>
   11565:	48 8b 85 40 ee ff ff 	mov    -0x11c0(%rbp),%rax
   1156c:	48 ba bb 63 42 b3 c8 	movabs $0xfe3eb0c8b34263bb,%rdx
   11573:	b0 3e fe 
   11576:	48 21 c2             	and    %rax,%rdx
   11579:	48 8b 85 98 ef ff ff 	mov    -0x1068(%rbp),%rax
   11580:	48 8b 00             	mov    (%rax),%rax
   11583:	8b 00                	mov    (%rax),%eax
   11585:	48 98                	cltq   
   11587:	48 39 c2             	cmp    %rax,%rdx
   1158a:	0f 93 c0             	setae  %al
   1158d:	0f b6 d0             	movzbl %al,%edx
   11590:	48 8b 05 09 a4 00 00 	mov    0xa409(%rip),%rax        # 1b9a0 <g_674>
   11597:	48 8b 00             	mov    (%rax),%rax
   1159a:	8b 00                	mov    (%rax),%eax
   1159c:	89 d6                	mov    %edx,%esi
   1159e:	89 c7                	mov    %eax,%edi
   115a0:	e8 60 50 ff ff       	callq  6605 <safe_sub_func_int32_t_s_s>
   115a5:	39 85 3c ee ff ff    	cmp    %eax,-0x11c4(%rbp)
   115ab:	0f 92 c0             	setb   %al
   115ae:	0f b6 c0             	movzbl %al,%eax
   115b1:	be d9 03 00 00       	mov    $0x3d9,%esi
   115b6:	89 c7                	mov    %eax,%edi
   115b8:	e8 f6 4d ff ff       	callq  63b3 <safe_add_func_int16_t_s_s>
   115bd:	0f bf d0             	movswl %ax,%edx
   115c0:	48 8b 05 d9 a3 00 00 	mov    0xa3d9(%rip),%rax        # 1b9a0 <g_674>
   115c7:	48 8b 00             	mov    (%rax),%rax
   115ca:	8b 00                	mov    (%rax),%eax
   115cc:	39 c2                	cmp    %eax,%edx
   115ce:	0f 9f c0             	setg   %al
   115d1:	0f b6 d0             	movzbl %al,%edx
   115d4:	48 8b 85 98 ef ff ff 	mov    -0x1068(%rbp),%rax
   115db:	48 8b 00             	mov    (%rax),%rax
   115de:	8b 00                	mov    (%rax),%eax
   115e0:	0f be c0             	movsbl %al,%eax
   115e3:	89 d6                	mov    %edx,%esi
   115e5:	89 c7                	mov    %eax,%edi
   115e7:	e8 49 4d ff ff       	callq  6335 <safe_rshift_func_int8_t_s_s>
   115ec:	48 8b 95 68 ef ff ff 	mov    -0x1098(%rbp),%rdx
   115f3:	8b 0a                	mov    (%rdx),%ecx
   115f5:	48 8b 95 30 ef ff ff 	mov    -0x10d0(%rbp),%rdx
   115fc:	0f b7 32             	movzwl (%rdx),%esi
   115ff:	66 0f be d0          	movsbw %al,%dx
   11603:	48 8b 85 30 ef ff ff 	mov    -0x10d0(%rbp),%rax
   1160a:	21 f2                	and    %esi,%edx
   1160c:	66 89 10             	mov    %dx,(%rax)
   1160f:	0f b7 00             	movzwl (%rax),%eax
   11612:	98                   	cwtl   
   11613:	39 c1                	cmp    %eax,%ecx
   11615:	0f 9d c0             	setge  %al
   11618:	0f b6 d0             	movzbl %al,%edx
   1161b:	48 83 bd 98 ef ff ff 	cmpq   $0x0,-0x1068(%rbp)
   11622:	00 
   11623:	0f 95 c0             	setne  %al
   11626:	0f b6 c0             	movzbl %al,%eax
   11629:	89 d6                	mov    %edx,%esi
   1162b:	89 c7                	mov    %eax,%edi
   1162d:	e8 46 55 ff ff       	callq  6b78 <safe_sub_func_uint8_t_u_u>
   11632:	0f b6 c0             	movzbl %al,%eax
   11635:	48 be 43 84 1c f2 ec 	movabs $0xe3b922ecf21c8443,%rsi
   1163c:	22 b9 e3 
   1163f:	48 89 c7             	mov    %rax,%rdi
   11642:	e8 6d 53 ff ff       	callq  69b4 <safe_mod_func_int64_t_s_s>
   11647:	48 8b 05 52 a3 00 00 	mov    0xa352(%rip),%rax        # 1b9a0 <g_674>
   1164e:	48 8b 00             	mov    (%rax),%rax
   11651:	8b 10                	mov    (%rax),%edx
   11653:	8b 85 a4 f1 ff ff    	mov    -0xe5c(%rbp),%eax
   11659:	31 d0                	xor    %edx,%eax
   1165b:	89 85 a4 f1 ff ff    	mov    %eax,-0xe5c(%rbp)
   11661:	48 8b 85 58 ef ff ff 	mov    -0x10a8(%rbp),%rax
   11668:	be 09 00 00 00       	mov    $0x9,%esi
   1166d:	48 89 c7             	mov    %rax,%rdi
   11670:	e8 cc 51 ff ff       	callq  6841 <safe_add_func_int64_t_s_s>
   11675:	48 89 85 58 ef ff ff 	mov    %rax,-0x10a8(%rbp)
   1167c:	48 8b 85 58 ef ff ff 	mov    -0x10a8(%rbp),%rax
   11683:	48 83 f8 15          	cmp    $0x15,%rax
   11687:	0f 86 77 e9 ff ff    	jbe    10004 <func_38+0x243b>
   1168d:	e9 d5 02 00 00       	jmpq   11967 <func_38+0x3d9e>
   11692:	90                   	nop
   11693:	e9 eb c6 ff ff       	jmpq   dd83 <func_38+0x1ba>
   11698:	90                   	nop
   11699:	e9 e5 c6 ff ff       	jmpq   dd83 <func_38+0x1ba>
   1169e:	c7 85 a8 ee ff ff 00 	movl   $0x0,-0x1158(%rbp)
   116a5:	00 00 00 
   116a8:	48 8d 05 cd 8c 00 00 	lea    0x8ccd(%rip),%rax        # 1a37c <g_867>
   116af:	48 89 85 60 f4 ff ff 	mov    %rax,-0xba0(%rbp)
   116b6:	48 8d 05 bf 8c 00 00 	lea    0x8cbf(%rip),%rax        # 1a37c <g_867>
   116bd:	48 89 85 68 f4 ff ff 	mov    %rax,-0xb98(%rbp)
   116c4:	48 8d 05 a9 8c 00 00 	lea    0x8ca9(%rip),%rax        # 1a374 <g_865>
   116cb:	48 89 85 70 f4 ff ff 	mov    %rax,-0xb90(%rbp)
   116d2:	48 8d 05 a3 8c 00 00 	lea    0x8ca3(%rip),%rax        # 1a37c <g_867>
   116d9:	48 89 85 78 f4 ff ff 	mov    %rax,-0xb88(%rbp)
   116e0:	48 8d 05 95 8c 00 00 	lea    0x8c95(%rip),%rax        # 1a37c <g_867>
   116e7:	48 89 85 80 f4 ff ff 	mov    %rax,-0xb80(%rbp)
   116ee:	48 8d 05 7f 8c 00 00 	lea    0x8c7f(%rip),%rax        # 1a374 <g_865>
   116f5:	48 89 85 88 f4 ff ff 	mov    %rax,-0xb78(%rbp)
   116fc:	48 8d 05 79 8c 00 00 	lea    0x8c79(%rip),%rax        # 1a37c <g_867>
   11703:	48 89 85 90 f4 ff ff 	mov    %rax,-0xb70(%rbp)
   1170a:	48 8d 05 6b 8c 00 00 	lea    0x8c6b(%rip),%rax        # 1a37c <g_867>
   11711:	48 89 85 98 f4 ff ff 	mov    %rax,-0xb68(%rbp)
   11718:	48 8d 05 55 8c 00 00 	lea    0x8c55(%rip),%rax        # 1a374 <g_865>
   1171f:	48 89 85 a0 f4 ff ff 	mov    %rax,-0xb60(%rbp)
   11726:	48 8d 05 4f 8c 00 00 	lea    0x8c4f(%rip),%rax        # 1a37c <g_867>
   1172d:	48 89 85 a8 f4 ff ff 	mov    %rax,-0xb58(%rbp)
   11734:	48 8d 85 60 f4 ff ff 	lea    -0xba0(%rbp),%rax
   1173b:	48 89 85 c0 ef ff ff 	mov    %rax,-0x1040(%rbp)
   11742:	48 8d 05 f7 a1 00 00 	lea    0xa1f7(%rip),%rax        # 1b940 <g_405>
   11749:	48 89 85 c8 ef ff ff 	mov    %rax,-0x1038(%rbp)
   11750:	48 8d 05 6d 89 00 00 	lea    0x896d(%rip),%rax        # 1a0c4 <g_86+0x14>
   11757:	48 89 85 d0 ef ff ff 	mov    %rax,-0x1030(%rbp)
   1175e:	48 c7 85 d8 ef ff ff 	movq   $0x0,-0x1028(%rbp)
   11765:	00 00 00 00 
   11769:	48 8d 85 a0 f1 ff ff 	lea    -0xe60(%rbp),%rax
   11770:	48 83 c0 14          	add    $0x14,%rax
   11774:	48 89 85 e0 ef ff ff 	mov    %rax,-0x1020(%rbp)
   1177b:	c7 85 98 ee ff ff 00 	movl   $0x0,-0x1168(%rbp)
   11782:	00 00 00 
   11785:	eb 4d                	jmp    117d4 <func_38+0x3c0b>
   11787:	c7 85 94 ee ff ff 00 	movl   $0x0,-0x116c(%rbp)
   1178e:	00 00 00 
   11791:	eb 31                	jmp    117c4 <func_38+0x3bfb>
   11793:	8b 85 94 ee ff ff    	mov    -0x116c(%rbp),%eax
   11799:	48 63 c8             	movslq %eax,%rcx
   1179c:	8b 85 98 ee ff ff    	mov    -0x1168(%rbp),%eax
   117a2:	48 63 d0             	movslq %eax,%rdx
   117a5:	48 89 d0             	mov    %rdx,%rax
   117a8:	48 c1 e0 02          	shl    $0x2,%rax
   117ac:	48 01 d0             	add    %rdx,%rax
   117af:	48 01 c8             	add    %rcx,%rax
   117b2:	c7 84 85 c0 f8 ff ff 	movl   $0x0,-0x740(%rbp,%rax,4)
   117b9:	00 00 00 00 
   117bd:	83 85 94 ee ff ff 01 	addl   $0x1,-0x116c(%rbp)
   117c4:	83 bd 94 ee ff ff 04 	cmpl   $0x4,-0x116c(%rbp)
   117cb:	7e c6                	jle    11793 <func_38+0x3bca>
   117cd:	83 85 98 ee ff ff 01 	addl   $0x1,-0x1168(%rbp)
   117d4:	83 bd 98 ee ff ff 03 	cmpl   $0x3,-0x1168(%rbp)
   117db:	7e aa                	jle    11787 <func_38+0x3bbe>
   117dd:	8b 85 38 ee ff ff    	mov    -0x11c8(%rbp),%eax
   117e3:	0f b6 d8             	movzbl %al,%ebx
   117e6:	44 8b a5 38 ee ff ff 	mov    -0x11c8(%rbp),%r12d
   117ed:	48 8b 85 48 ef ff ff 	mov    -0x10b8(%rbp),%rax
   117f4:	44 8b 38             	mov    (%rax),%r15d
   117f7:	48 8b 05 aa a1 00 00 	mov    0xa1aa(%rip),%rax        # 1b9a8 <g_673>
   117fe:	48 8b 00             	mov    (%rax),%rax
   11801:	48 8b 00             	mov    (%rax),%rax
   11804:	8b 00                	mov    (%rax),%eax
   11806:	89 85 30 ee ff ff    	mov    %eax,-0x11d0(%rbp)
   1180c:	8b 85 38 ee ff ff    	mov    -0x11c8(%rbp),%eax
   11812:	4c 63 e8             	movslq %eax,%r13
   11815:	8b 05 51 8b 00 00    	mov    0x8b51(%rip),%eax        # 1a36c <g_732>
   1181b:	44 0f bf f0          	movswl %ax,%r14d
   1181f:	48 8b 95 78 f4 ff ff 	mov    -0xb88(%rbp),%rdx
   11826:	48 8b 85 c0 ef ff ff 	mov    -0x1040(%rbp),%rax
   1182d:	48 89 10             	mov    %rdx,(%rax)
   11830:	48 8b 85 c0 ef ff ff 	mov    -0x1040(%rbp),%rax
   11837:	48 8b 10             	mov    (%rax),%rdx
   1183a:	48 8b 85 c8 ef ff ff 	mov    -0x1038(%rbp),%rax
   11841:	48 89 10             	mov    %rdx,(%rax)
   11844:	48 8b 85 c8 ef ff ff 	mov    -0x1038(%rbp),%rax
   1184b:	48 8b 00             	mov    (%rax),%rax
   1184e:	48 85 c0             	test   %rax,%rax
   11851:	0f 95 c0             	setne  %al
   11854:	0f b6 c0             	movzbl %al,%eax
   11857:	39 85 a8 ee ff ff    	cmp    %eax,-0x1158(%rbp)
   1185d:	76 0a                	jbe    11869 <func_38+0x3ca0>
   1185f:	8b 85 38 ee ff ff    	mov    -0x11c8(%rbp),%eax
   11865:	85 c0                	test   %eax,%eax
   11867:	79 07                	jns    11870 <func_38+0x3ca7>
   11869:	b8 01 00 00 00       	mov    $0x1,%eax
   1186e:	eb 05                	jmp    11875 <func_38+0x3cac>
   11870:	b8 00 00 00 00       	mov    $0x0,%eax
   11875:	83 f8 08             	cmp    $0x8,%eax
   11878:	0f 97 c0             	seta   %al
   1187b:	0f b6 d0             	movzbl %al,%edx
   1187e:	48 8b 85 d0 ef ff ff 	mov    -0x1030(%rbp),%rax
   11885:	89 10                	mov    %edx,(%rax)
   11887:	48 8b 85 d0 ef ff ff 	mov    -0x1030(%rbp),%rax
   1188e:	8b 00                	mov    (%rax),%eax
   11890:	89 85 fc f8 ff ff    	mov    %eax,-0x704(%rbp)
   11896:	8b 95 38 ee ff ff    	mov    -0x11c8(%rbp),%edx
   1189c:	48 8b 85 30 ef ff ff 	mov    -0x10d0(%rbp),%rax
   118a3:	66 89 10             	mov    %dx,(%rax)
   118a6:	0f b7 00             	movzwl (%rax),%eax
   118a9:	98                   	cwtl   
   118aa:	be 00 00 00 00       	mov    $0x0,%esi
   118af:	89 c7                	mov    %eax,%edi
   118b1:	e8 ad 4c ff ff       	callq  6563 <safe_rshift_func_int16_t_s_u>
   118b6:	0f bf d0             	movswl %ax,%edx
   118b9:	48 8b 85 48 ef ff ff 	mov    -0x10b8(%rbp),%rax
   118c0:	8b 00                	mov    (%rax),%eax
   118c2:	89 c1                	mov    %eax,%ecx
   118c4:	48 8b 05 5d 9e 00 00 	mov    0x9e5d(%rip),%rax        # 1b728 <g_159>
   118cb:	8b 00                	mov    (%rax),%eax
   118cd:	39 c1                	cmp    %eax,%ecx
   118cf:	0f 96 c0             	setbe  %al
   118d2:	0f b6 c0             	movzbl %al,%eax
   118d5:	39 c2                	cmp    %eax,%edx
   118d7:	0f 95 c0             	setne  %al
   118da:	0f b6 c0             	movzbl %al,%eax
   118dd:	8b 95 3c ee ff ff    	mov    -0x11c4(%rbp),%edx
   118e3:	21 d0                	and    %edx,%eax
   118e5:	98                   	cwtl   
   118e6:	44 89 f6             	mov    %r14d,%esi
   118e9:	89 c7                	mov    %eax,%edi
   118eb:	e8 26 4b ff ff       	callq  6416 <safe_mod_func_int16_t_s_s>
   118f0:	48 0f bf c0          	movswq %ax,%rax
   118f4:	4c 89 ee             	mov    %r13,%rsi
   118f7:	48 89 c7             	mov    %rax,%rdi
   118fa:	e8 42 4f ff ff       	callq  6841 <safe_add_func_int64_t_s_s>
   118ff:	48 83 f8 04          	cmp    $0x4,%rax
   11903:	0f 9e c0             	setle  %al
   11906:	0f b6 c0             	movzbl %al,%eax
   11909:	8b b5 30 ee ff ff    	mov    -0x11d0(%rbp),%esi
   1190f:	89 c7                	mov    %eax,%edi
   11911:	e8 0f 56 ff ff       	callq  6f25 <safe_div_func_uint32_t_u_u>
   11916:	83 f8 10             	cmp    $0x10,%eax
   11919:	0f 96 c0             	setbe  %al
   1191c:	0f b6 c0             	movzbl %al,%eax
   1191f:	41 39 c7             	cmp    %eax,%r15d
   11922:	0f 9f c0             	setg   %al
   11925:	0f b6 c0             	movzbl %al,%eax
   11928:	be 84 ff ff ff       	mov    $0xffffff84,%esi
   1192d:	89 c7                	mov    %eax,%edi
   1192f:	e8 a0 48 ff ff       	callq  61d4 <safe_add_func_int8_t_s_s>
   11934:	0f be c0             	movsbl %al,%eax
   11937:	44 89 e6             	mov    %r12d,%esi
   1193a:	89 c7                	mov    %eax,%edi
   1193c:	e8 e9 4b ff ff       	callq  652a <safe_rshift_func_int16_t_s_s>
   11941:	0f b6 c0             	movzbl %al,%eax
   11944:	89 de                	mov    %ebx,%esi
   11946:	89 c7                	mov    %eax,%edi
   11948:	e8 46 52 ff ff       	callq  6b93 <safe_mul_func_uint8_t_u_u>
   1194d:	48 8b 95 e0 ef ff ff 	mov    -0x1020(%rbp),%rdx
   11954:	8b 12                	mov    (%rdx),%edx
   11956:	0f b6 c0             	movzbl %al,%eax
   11959:	09 c2                	or     %eax,%edx
   1195b:	48 8b 85 e0 ef ff ff 	mov    -0x1020(%rbp),%rax
   11962:	89 10                	mov    %edx,(%rax)
   11964:	eb 01                	jmp    11967 <func_38+0x3d9e>
   11966:	90                   	nop
   11967:	48 8b 85 48 ee ff ff 	mov    -0x11b8(%rbp),%rax
   1196e:	48 8b 5d c8          	mov    -0x38(%rbp),%rbx
   11972:	64 48 33 1c 25 28 00 	xor    %fs:0x28,%rbx
   11979:	00 00 
   1197b:	74 05                	je     11982 <func_38+0x3db9>
   1197d:	e8 ee 46 ff ff       	callq  6070 <__stack_chk_fail@plt>
   11982:	48 81 c4 b8 11 00 00 	add    $0x11b8,%rsp
   11989:	5b                   	pop    %rbx
   1198a:	41 5c                	pop    %r12
   1198c:	41 5d                	pop    %r13
   1198e:	41 5e                	pop    %r14
   11990:	41 5f                	pop    %r15
   11992:	5d                   	pop    %rbp
   11993:	c3                   	retq   

0000000000011994 <func_43>:
   11994:	f3 0f 1e fa          	endbr64 
   11998:	55                   	push   %rbp
   11999:	48 89 e5             	mov    %rsp,%rbp
   1199c:	48 81 ec b0 02 00 00 	sub    $0x2b0,%rsp
   119a3:	89 f1                	mov    %esi,%ecx
   119a5:	89 d0                	mov    %edx,%eax
   119a7:	89 fa                	mov    %edi,%edx
   119a9:	88 95 5c fd ff ff    	mov    %dl,-0x2a4(%rbp)
   119af:	89 ca                	mov    %ecx,%edx
   119b1:	66 89 95 58 fd ff ff 	mov    %dx,-0x2a8(%rbp)
   119b8:	66 89 85 54 fd ff ff 	mov    %ax,-0x2ac(%rbp)
   119bf:	64 48 8b 04 25 28 00 	mov    %fs:0x28,%rax
   119c6:	00 00 
   119c8:	48 89 45 f8          	mov    %rax,-0x8(%rbp)
   119cc:	31 c0                	xor    %eax,%eax
   119ce:	c7 85 68 fd ff ff f8 	movl   $0xfffffff8,-0x298(%rbp)
   119d5:	ff ff ff 
   119d8:	48 8d 85 b0 fd ff ff 	lea    -0x250(%rbp),%rax
   119df:	48 8d 15 fa 9a 00 00 	lea    0x9afa(%rip),%rdx        # 1b4e0 <g_2719+0xdea>
   119e6:	b9 48 00 00 00       	mov    $0x48,%ecx
   119eb:	48 89 c7             	mov    %rax,%rdi
   119ee:	48 89 d6             	mov    %rdx,%rsi
   119f1:	f3 48 a5             	rep movsq %ds:(%rsi),%es:(%rdi)
   119f4:	c7 85 6c fd ff ff 13 	movl   $0xc7e04f13,-0x294(%rbp)
   119fb:	4f e0 c7 
   119fe:	48 8d 05 c5 86 00 00 	lea    0x86c5(%rip),%rax        # 1a0ca <g_162>
   11a05:	48 89 85 70 fd ff ff 	mov    %rax,-0x290(%rbp)
   11a0c:	48 8d 05 b7 86 00 00 	lea    0x86b7(%rip),%rax        # 1a0ca <g_162>
   11a13:	48 89 85 78 fd ff ff 	mov    %rax,-0x288(%rbp)
   11a1a:	48 8d 05 a9 86 00 00 	lea    0x86a9(%rip),%rax        # 1a0ca <g_162>
   11a21:	48 89 85 80 fd ff ff 	mov    %rax,-0x280(%rbp)
   11a28:	48 8d 05 9b 86 00 00 	lea    0x869b(%rip),%rax        # 1a0ca <g_162>
   11a2f:	48 89 85 88 fd ff ff 	mov    %rax,-0x278(%rbp)
   11a36:	48 8d 05 8d 86 00 00 	lea    0x868d(%rip),%rax        # 1a0ca <g_162>
   11a3d:	48 89 85 90 fd ff ff 	mov    %rax,-0x270(%rbp)
   11a44:	48 8d 05 7f 86 00 00 	lea    0x867f(%rip),%rax        # 1a0ca <g_162>
   11a4b:	48 89 85 98 fd ff ff 	mov    %rax,-0x268(%rbp)
   11a52:	48 8d 05 71 86 00 00 	lea    0x8671(%rip),%rax        # 1a0ca <g_162>
   11a59:	48 89 85 a0 fd ff ff 	mov    %rax,-0x260(%rbp)
   11a60:	66 c7 85 54 fd ff ff 	movw   $0x0,-0x2ac(%rbp)
   11a67:	00 00 
   11a69:	eb 12                	jmp    11a7d <func_43+0xe9>
   11a6b:	8b 85 68 fd ff ff    	mov    -0x298(%rbp),%eax
   11a71:	85 c0                	test   %eax,%eax
   11a73:	75 14                	jne    11a89 <func_43+0xf5>
   11a75:	66 83 85 54 fd ff ff 	addw   $0x1,-0x2ac(%rbp)
   11a7c:	01 
   11a7d:	66 83 bd 54 fd ff ff 	cmpw   $0x14,-0x2ac(%rbp)
   11a84:	14 
   11a85:	76 e4                	jbe    11a6b <func_43+0xd7>
   11a87:	eb 01                	jmp    11a8a <func_43+0xf6>
   11a89:	90                   	nop
   11a8a:	0f b6 95 5c fd ff ff 	movzbl -0x2a4(%rbp),%edx
   11a91:	48 8b 05 90 85 00 00 	mov    0x8590(%rip),%rax        # 1a028 <g_7>
   11a98:	89 c1                	mov    %eax,%ecx
   11a9a:	8b 85 68 fd ff ff    	mov    -0x298(%rbp),%eax
   11aa0:	09 c8                	or     %ecx,%eax
   11aa2:	89 85 68 fd ff ff    	mov    %eax,-0x298(%rbp)
   11aa8:	8b 85 68 fd ff ff    	mov    -0x298(%rbp),%eax
   11aae:	89 c1                	mov    %eax,%ecx
   11ab0:	48 8d 85 68 fd ff ff 	lea    -0x298(%rbp),%rax
   11ab7:	89 ce                	mov    %ecx,%esi
   11ab9:	48 89 c7             	mov    %rax,%rdi
   11abc:	e8 59 00 00 00       	callq  11b1a <func_55>
   11ac1:	0f be d0             	movsbl %al,%edx
   11ac4:	0f b6 85 5c fd ff ff 	movzbl -0x2a4(%rbp),%eax
   11acb:	23 85 6c fd ff ff    	and    -0x294(%rbp),%eax
   11ad1:	39 c2                	cmp    %eax,%edx
   11ad3:	0f 9e c0             	setle  %al
   11ad6:	0f b6 c0             	movzbl %al,%eax
   11ad9:	be df 8b b3 0c       	mov    $0xcb38bdf,%esi
   11ade:	89 c7                	mov    %eax,%edi
   11ae0:	e8 40 54 ff ff       	callq  6f25 <safe_div_func_uint32_t_u_u>
   11ae5:	8b 85 6c fd ff ff    	mov    -0x294(%rbp),%eax
   11aeb:	89 c6                	mov    %eax,%esi
   11aed:	bf 00 00 00 00       	mov    $0x0,%edi
   11af2:	e8 06 54 ff ff       	callq  6efd <safe_mod_func_uint32_t_u_u>
   11af7:	89 05 bb 85 00 00    	mov    %eax,0x85bb(%rip)        # 1a0b8 <g_86+0x8>
   11afd:	48 8b 85 80 fd ff ff 	mov    -0x280(%rbp),%rax
   11b04:	48 8b 75 f8          	mov    -0x8(%rbp),%rsi
   11b08:	64 48 33 34 25 28 00 	xor    %fs:0x28,%rsi
   11b0f:	00 00 
   11b11:	74 05                	je     11b18 <func_43+0x184>
   11b13:	e8 58 45 ff ff       	callq  6070 <__stack_chk_fail@plt>
   11b18:	c9                   	leaveq 
   11b19:	c3                   	retq   

0000000000011b1a <func_55>:
   11b1a:	f3 0f 1e fa          	endbr64 
   11b1e:	55                   	push   %rbp
   11b1f:	48 89 e5             	mov    %rsp,%rbp
   11b22:	41 55                	push   %r13
   11b24:	41 54                	push   %r12
   11b26:	53                   	push   %rbx
   11b27:	48 81 ec f8 03 00 00 	sub    $0x3f8,%rsp
   11b2e:	48 89 bd f8 fb ff ff 	mov    %rdi,-0x408(%rbp)
   11b35:	89 b5 f4 fb ff ff    	mov    %esi,-0x40c(%rbp)
   11b3b:	89 d0                	mov    %edx,%eax
   11b3d:	66 89 85 f0 fb ff ff 	mov    %ax,-0x410(%rbp)
   11b44:	64 48 8b 04 25 28 00 	mov    %fs:0x28,%rax
   11b4b:	00 00 
   11b4d:	48 89 45 d8          	mov    %rax,-0x28(%rbp)
   11b51:	31 c0                	xor    %eax,%eax
   11b53:	c7 85 28 fc ff ff da 	movl   $0x2eeda7da,-0x3d8(%rbp)
   11b5a:	a7 ed 2e 
   11b5d:	48 8d 05 48 85 00 00 	lea    0x8548(%rip),%rax        # 1a0ac <g_77>
   11b64:	48 89 85 70 fc ff ff 	mov    %rax,-0x390(%rbp)
   11b6b:	48 c7 85 78 fc ff ff 	movq   $0x0,-0x388(%rbp)
   11b72:	00 00 00 00 
   11b76:	48 8d 05 eb ab 00 00 	lea    0xabeb(%rip),%rax        # 1c768 <g_4>
   11b7d:	48 89 85 80 fc ff ff 	mov    %rax,-0x380(%rbp)
   11b84:	66 c7 85 64 fd ff ff 	movw   $0xfff9,-0x29c(%rbp)
   11b8b:	f9 ff 
   11b8d:	66 c7 85 66 fd ff ff 	movw   $0x4,-0x29a(%rbp)
   11b94:	04 00 
   11b96:	66 c7 85 68 fd ff ff 	movw   $0x4,-0x298(%rbp)
   11b9d:	04 00 
   11b9f:	66 c7 85 6a fd ff ff 	movw   $0xfff9,-0x296(%rbp)
   11ba6:	f9 ff 
   11ba8:	66 c7 85 6c fd ff ff 	movw   $0x4,-0x294(%rbp)
   11baf:	04 00 
   11bb1:	66 c7 85 6e fd ff ff 	movw   $0x4,-0x292(%rbp)
   11bb8:	04 00 
   11bba:	c7 85 14 fc ff ff 05 	movl   $0xcab24005,-0x3ec(%rbp)
   11bc1:	40 b2 ca 
   11bc4:	c7 85 2c fc ff ff fc 	movl   $0x183001fc,-0x3d4(%rbp)
   11bcb:	01 30 18 
   11bce:	48 8d 85 b0 fe ff ff 	lea    -0x150(%rbp),%rax
   11bd5:	48 8d 15 a4 48 00 00 	lea    0x48a4(%rip),%rdx        # 16480 <g_1428+0x142b>
   11bdc:	b9 24 00 00 00       	mov    $0x24,%ecx
   11be1:	48 89 c7             	mov    %rax,%rdi
   11be4:	48 89 d6             	mov    %rdx,%rsi
   11be7:	f3 48 a5             	rep movsq %ds:(%rsi),%es:(%rdi)
   11bea:	c7 85 30 fc ff ff c8 	movl   $0x4445adc8,-0x3d0(%rbp)
   11bf1:	ad 45 44 
   11bf4:	66 c7 85 10 fc ff ff 	movw   $0x7d45,-0x3f0(%rbp)
   11bfb:	45 7d 
   11bfd:	48 b8 72 50 70 e8 1a 	movabs $0x8ad08a1ae8705072,%rax
   11c04:	8a d0 8a 
   11c07:	48 89 85 a0 fd ff ff 	mov    %rax,-0x260(%rbp)
   11c0e:	48 89 85 a8 fd ff ff 	mov    %rax,-0x258(%rbp)
   11c15:	48 89 85 b0 fd ff ff 	mov    %rax,-0x250(%rbp)
   11c1c:	48 89 85 b8 fd ff ff 	mov    %rax,-0x248(%rbp)
   11c23:	48 89 85 c0 fd ff ff 	mov    %rax,-0x240(%rbp)
   11c2a:	48 89 85 c8 fd ff ff 	mov    %rax,-0x238(%rbp)
   11c31:	48 89 85 d0 fd ff ff 	mov    %rax,-0x230(%rbp)
   11c38:	48 89 85 d8 fd ff ff 	mov    %rax,-0x228(%rbp)
   11c3f:	c7 85 34 fc ff ff 00 	movl   $0x0,-0x3cc(%rbp)
   11c46:	00 00 00 
   11c49:	c7 85 18 fc ff ff 00 	movl   $0x0,-0x3e8(%rbp)
   11c50:	00 00 00 
   11c53:	eb 19                	jmp    11c6e <func_55+0x154>
   11c55:	8b 85 18 fc ff ff    	mov    -0x3e8(%rbp),%eax
   11c5b:	48 98                	cltq   
   11c5d:	66 c7 84 45 58 fd ff 	movw   $0xbd7c,-0x2a8(%rbp,%rax,2)
   11c64:	ff 7c bd 
   11c67:	83 85 18 fc ff ff 01 	addl   $0x1,-0x3e8(%rbp)
   11c6e:	83 bd 18 fc ff ff 05 	cmpl   $0x5,-0x3e8(%rbp)
   11c75:	7e de                	jle    11c55 <func_55+0x13b>
   11c77:	8b 95 28 fc ff ff    	mov    -0x3d8(%rbp),%edx
   11c7d:	48 8b 85 f8 fb ff ff 	mov    -0x408(%rbp),%rax
   11c84:	89 10                	mov    %edx,(%rax)
   11c86:	8b 1d 1c 84 00 00    	mov    0x841c(%rip),%ebx        # 1a0a8 <g_60>
   11c8c:	44 0f b7 ad f0 fb ff 	movzwl -0x410(%rbp),%r13d
   11c93:	ff 
   11c94:	44 0f b7 a5 f0 fb ff 	movzwl -0x410(%rbp),%r12d
   11c9b:	ff 
   11c9c:	0f b7 85 5e fd ff ff 	movzwl -0x2a2(%rbp),%eax
   11ca3:	0f bf d0             	movswl %ax,%edx
   11ca6:	0f b6 05 ff 83 00 00 	movzbl 0x83ff(%rip),%eax        # 1a0ac <g_77>
   11cad:	0f b6 c8             	movzbl %al,%ecx
   11cb0:	48 8b 85 70 fc ff ff 	mov    -0x390(%rbp),%rax
   11cb7:	89 ce                	mov    %ecx,%esi
   11cb9:	48 89 c7             	mov    %rax,%rdi
   11cbc:	e8 fd 16 00 00       	callq  133be <func_72>
   11cc1:	48 89 c2             	mov    %rax,%rdx
   11cc4:	8b 05 de 83 00 00    	mov    0x83de(%rip),%eax        # 1a0a8 <g_60>
   11cca:	89 c6                	mov    %eax,%esi
   11ccc:	8b 85 28 fc ff ff    	mov    -0x3d8(%rbp),%eax
   11cd2:	98                   	cwtl   
   11cd3:	45 89 e8             	mov    %r13d,%r8d
   11cd6:	44 89 e1             	mov    %r12d,%ecx
   11cd9:	89 c7                	mov    %eax,%edi
   11cdb:	e8 ee 0b 00 00       	callq  128ce <func_66>
   11ce0:	48 8b 05 41 83 00 00 	mov    0x8341(%rip),%rax        # 1a028 <g_7>
   11ce7:	48 85 c0             	test   %rax,%rax
   11cea:	75 0a                	jne    11cf6 <func_55+0x1dc>
   11cec:	8b 05 c6 83 00 00    	mov    0x83c6(%rip),%eax        # 1a0b8 <g_86+0x8>
   11cf2:	85 c0                	test   %eax,%eax
   11cf4:	74 07                	je     11cfd <func_55+0x1e3>
   11cf6:	b8 01 00 00 00       	mov    $0x1,%eax
   11cfb:	eb 05                	jmp    11d02 <func_55+0x1e8>
   11cfd:	b8 00 00 00 00       	mov    $0x0,%eax
   11d02:	98                   	cwtl   
   11d03:	be 02 00 00 00       	mov    $0x2,%esi
   11d08:	89 c7                	mov    %eax,%edi
   11d0a:	e8 83 47 ff ff       	callq  6492 <safe_lshift_func_int16_t_s_s>
   11d0f:	89 de                	mov    %ebx,%esi
   11d11:	bf 01 00 00 00       	mov    $0x1,%edi
   11d16:	e8 51 46 ff ff       	callq  636c <safe_rshift_func_int8_t_s_u>
   11d1b:	84 c0                	test   %al,%al
   11d1d:	0f 84 0d 09 00 00    	je     12630 <func_55+0xb16>
   11d23:	c6 85 0e fc ff ff 3e 	movb   $0x3e,-0x3f2(%rbp)
   11d2a:	c7 85 3c fc ff ff 9b 	movl   $0x7e94529b,-0x3c4(%rbp)
   11d31:	52 94 7e 
   11d34:	c7 85 e0 fd ff ff 8e 	movl   $0x1acea78e,-0x220(%rbp)
   11d3b:	a7 ce 1a 
   11d3e:	c7 85 e4 fd ff ff 02 	movl   $0x2,-0x21c(%rbp)
   11d45:	00 00 00 
   11d48:	c7 85 e8 fd ff ff 04 	movl   $0x4,-0x218(%rbp)
   11d4f:	00 00 00 
   11d52:	c7 85 ec fd ff ff 02 	movl   $0x2,-0x214(%rbp)
   11d59:	00 00 00 
   11d5c:	c7 85 f0 fd ff ff 8e 	movl   $0x1acea78e,-0x210(%rbp)
   11d63:	a7 ce 1a 
   11d66:	c7 85 f4 fd ff ff 8e 	movl   $0x1acea78e,-0x20c(%rbp)
   11d6d:	a7 ce 1a 
   11d70:	c7 85 f8 fd ff ff c9 	movl   $0xde9916c9,-0x208(%rbp)
   11d77:	16 99 de 
   11d7a:	c7 85 fc fd ff ff 02 	movl   $0x2,-0x204(%rbp)
   11d81:	00 00 00 
   11d84:	c7 85 00 fe ff ff 02 	movl   $0x2,-0x200(%rbp)
   11d8b:	00 00 00 
   11d8e:	c7 85 04 fe ff ff c9 	movl   $0xde9916c9,-0x1fc(%rbp)
   11d95:	16 99 de 
   11d98:	c7 85 08 fe ff ff 95 	movl   $0xc1b82195,-0x1f8(%rbp)
   11d9f:	21 b8 c1 
   11da2:	c7 85 0c fe ff ff c9 	movl   $0xde9916c9,-0x1f4(%rbp)
   11da9:	16 99 de 
   11dac:	c7 85 10 fe ff ff c9 	movl   $0xde9916c9,-0x1f0(%rbp)
   11db3:	16 99 de 
   11db6:	c7 85 14 fe ff ff 95 	movl   $0xc1b82195,-0x1ec(%rbp)
   11dbd:	21 b8 c1 
   11dc0:	c7 85 18 fe ff ff c9 	movl   $0xde9916c9,-0x1e8(%rbp)
   11dc7:	16 99 de 
   11dca:	c7 85 1c fe ff ff 02 	movl   $0x2,-0x1e4(%rbp)
   11dd1:	00 00 00 
   11dd4:	c7 85 20 fe ff ff 02 	movl   $0x2,-0x1e0(%rbp)
   11ddb:	00 00 00 
   11dde:	c7 85 24 fe ff ff c9 	movl   $0xde9916c9,-0x1dc(%rbp)
   11de5:	16 99 de 
   11de8:	c7 85 28 fe ff ff 8e 	movl   $0x1acea78e,-0x1d8(%rbp)
   11def:	a7 ce 1a 
   11df2:	c7 85 2c fe ff ff 8e 	movl   $0x1acea78e,-0x1d4(%rbp)
   11df9:	a7 ce 1a 
   11dfc:	c7 85 30 fe ff ff 02 	movl   $0x2,-0x1d0(%rbp)
   11e03:	00 00 00 
   11e06:	c7 85 34 fe ff ff 04 	movl   $0x4,-0x1cc(%rbp)
   11e0d:	00 00 00 
   11e10:	c7 85 38 fe ff ff 02 	movl   $0x2,-0x1c8(%rbp)
   11e17:	00 00 00 
   11e1a:	c7 85 3c fe ff ff 8e 	movl   $0x1acea78e,-0x1c4(%rbp)
   11e21:	a7 ce 1a 
   11e24:	48 c7 85 a8 fc ff ff 	movq   $0x0,-0x358(%rbp)
   11e2b:	00 00 00 00 
   11e2f:	c7 85 40 fc ff ff 61 	movl   $0x55bda061,-0x3c0(%rbp)
   11e36:	a0 bd 55 
   11e39:	66 c7 85 f0 fb ff ff 	movw   $0x6,-0x410(%rbp)
   11e40:	06 00 
   11e42:	e9 01 06 00 00       	jmpq   12448 <func_55+0x92e>
   11e47:	48 b8 c5 78 c7 34 36 	movabs $0xa9b2a33634c778c5,%rax
   11e4e:	a3 b2 a9 
   11e51:	48 89 85 58 fc ff ff 	mov    %rax,-0x3a8(%rbp)
   11e58:	48 c7 85 60 fc ff ff 	movq   $0x0,-0x3a0(%rbp)
   11e5f:	00 00 00 00 
   11e63:	48 8d 85 60 fc ff ff 	lea    -0x3a0(%rbp),%rax
   11e6a:	48 89 85 c8 fc ff ff 	mov    %rax,-0x338(%rbp)
   11e71:	48 c7 85 d0 fc ff ff 	movq   $0x0,-0x330(%rbp)
   11e78:	00 00 00 00 
   11e7c:	48 c7 85 d8 fc ff ff 	movq   $0x0,-0x328(%rbp)
   11e83:	00 00 00 00 
   11e87:	48 8d 05 1e 82 00 00 	lea    0x821e(%rip),%rax        # 1a0ac <g_77>
   11e8e:	48 89 85 e0 fc ff ff 	mov    %rax,-0x320(%rbp)
   11e95:	c6 85 0f fc ff ff 7c 	movb   $0x7c,-0x3f1(%rbp)
   11e9c:	c7 85 44 fc ff ff 00 	movl   $0x0,-0x3bc(%rbp)
   11ea3:	00 00 00 
   11ea6:	48 8d 05 7b 81 00 00 	lea    0x817b(%rip),%rax        # 1a028 <g_7>
   11ead:	48 89 85 e8 fc ff ff 	mov    %rax,-0x318(%rbp)
   11eb4:	c7 85 1c fc ff ff 00 	movl   $0x0,-0x3e4(%rbp)
   11ebb:	00 00 00 
   11ebe:	eb 1a                	jmp    11eda <func_55+0x3c0>
   11ec0:	8b 85 1c fc ff ff    	mov    -0x3e4(%rbp),%eax
   11ec6:	48 98                	cltq   
   11ec8:	c7 84 85 80 fd ff ff 	movl   $0xffffffff,-0x280(%rbp,%rax,4)
   11ecf:	ff ff ff ff 
   11ed3:	83 85 1c fc ff ff 01 	addl   $0x1,-0x3e4(%rbp)
   11eda:	83 bd 1c fc ff ff 05 	cmpl   $0x5,-0x3e4(%rbp)
   11ee1:	7e dd                	jle    11ec0 <func_55+0x3a6>
   11ee3:	c7 85 1c fc ff ff 00 	movl   $0x0,-0x3e4(%rbp)
   11eea:	00 00 00 
   11eed:	eb 1a                	jmp    11f09 <func_55+0x3ef>
   11eef:	8b 85 1c fc ff ff    	mov    -0x3e4(%rbp),%eax
   11ef5:	48 98                	cltq   
   11ef7:	c7 84 85 4c fd ff ff 	movl   $0x40f12f2d,-0x2b4(%rbp,%rax,4)
   11efe:	2d 2f f1 40 
   11f02:	83 85 1c fc ff ff 01 	addl   $0x1,-0x3e4(%rbp)
   11f09:	83 bd 1c fc ff ff 02 	cmpl   $0x2,-0x3e4(%rbp)
   11f10:	7e dd                	jle    11eef <func_55+0x3d5>
   11f12:	c7 85 f4 fb ff ff 00 	movl   $0x0,-0x40c(%rbp)
   11f19:	00 00 00 
   11f1c:	e9 5e 01 00 00       	jmpq   1207f <func_55+0x565>
   11f21:	48 b8 1a d3 8a 9d 9d 	movabs $0x1f0b5f9d9d8ad31a,%rax
   11f28:	5f 0b 1f 
   11f2b:	48 89 85 40 fd ff ff 	mov    %rax,-0x2c0(%rbp)
   11f32:	8b 05 80 81 00 00    	mov    0x8180(%rip),%eax        # 1a0b8 <g_86+0x8>
   11f38:	39 85 f4 fb ff ff    	cmp    %eax,-0x40c(%rbp)
   11f3e:	8b 85 f4 fb ff ff    	mov    -0x40c(%rbp),%eax
   11f44:	0f bf d8             	movswl %ax,%ebx
   11f47:	48 8b 05 da 80 00 00 	mov    0x80da(%rip),%rax        # 1a028 <g_7>
   11f4e:	44 0f be e0          	movsbl %al,%r12d
   11f52:	8b 05 50 81 00 00    	mov    0x8150(%rip),%eax        # 1a0a8 <g_60>
   11f58:	89 c2                	mov    %eax,%edx
   11f5a:	8b 85 f4 fb ff ff    	mov    -0x40c(%rbp),%eax
   11f60:	98                   	cwtl   
   11f61:	89 d6                	mov    %edx,%esi
   11f63:	89 c7                	mov    %eax,%edi
   11f65:	e8 28 45 ff ff       	callq  6492 <safe_lshift_func_int16_t_s_s>
   11f6a:	66 3d f9 00          	cmp    $0xf9,%ax
   11f6e:	0f 97 c0             	seta   %al
   11f71:	0f b6 c0             	movzbl %al,%eax
   11f74:	89 c6                	mov    %eax,%esi
   11f76:	bf 09 00 00 00       	mov    $0x9,%edi
   11f7b:	e8 6e 43 ff ff       	callq  62ee <safe_lshift_func_int8_t_s_u>
   11f80:	0f b7 85 f0 fb ff ff 	movzwl -0x410(%rbp),%eax
   11f87:	83 f0 fa             	xor    $0xfffffffa,%eax
   11f8a:	0f b6 c0             	movzbl %al,%eax
   11f8d:	83 e0 01             	and    $0x1,%eax
   11f90:	89 c2                	mov    %eax,%edx
   11f92:	81 bd f4 fb ff ff 8e 	cmpl   $0x8e,-0x40c(%rbp)
   11f99:	00 00 00 
   11f9c:	0f 95 c0             	setne  %al
   11f9f:	0f b6 c0             	movzbl %al,%eax
   11fa2:	89 d6                	mov    %edx,%esi
   11fa4:	89 c7                	mov    %eax,%edi
   11fa6:	e8 30 4c ff ff       	callq  6bdb <safe_div_func_uint8_t_u_u>
   11fab:	0f be c0             	movsbl %al,%eax
   11fae:	44 89 e6             	mov    %r12d,%esi
   11fb1:	89 c7                	mov    %eax,%edi
   11fb3:	e8 5a 42 ff ff       	callq  6212 <safe_mul_func_int8_t_s_s>
   11fb8:	0f be c0             	movsbl %al,%eax
   11fbb:	89 de                	mov    %ebx,%esi
   11fbd:	89 c7                	mov    %eax,%edi
   11fbf:	e8 52 44 ff ff       	callq  6416 <safe_mod_func_int16_t_s_s>
   11fc4:	48 0f bf d0          	movswq %ax,%rdx
   11fc8:	48 8b 05 59 80 00 00 	mov    0x8059(%rip),%rax        # 1a028 <g_7>
   11fcf:	48 39 c2             	cmp    %rax,%rdx
   11fd2:	0f 9c c0             	setl   %al
   11fd5:	0f b6 d0             	movzbl %al,%edx
   11fd8:	8b 05 8a a7 00 00    	mov    0xa78a(%rip),%eax        # 1c768 <g_4>
   11fde:	09 d0                	or     %edx,%eax
   11fe0:	39 85 f4 fb ff ff    	cmp    %eax,-0x40c(%rbp)
   11fe6:	76 13                	jbe    11ffb <func_55+0x4e1>
   11fe8:	48 8b 05 39 80 00 00 	mov    0x8039(%rip),%rax        # 1a028 <g_7>
   11fef:	48 85 c0             	test   %rax,%rax
   11ff2:	74 07                	je     11ffb <func_55+0x4e1>
   11ff4:	b8 01 00 00 00       	mov    $0x1,%eax
   11ff9:	eb 05                	jmp    12000 <func_55+0x4e6>
   11ffb:	b8 00 00 00 00       	mov    $0x0,%eax
   12000:	0f b7 c0             	movzwl %ax,%eax
   12003:	be 0a 00 00 00       	mov    $0xa,%esi
   12008:	89 c7                	mov    %eax,%edi
   1200a:	e8 f7 4d ff ff       	callq  6e06 <safe_lshift_func_uint16_t_u_u>
   1200f:	48 83 bd 40 fd ff ff 	cmpq   $0x0,-0x2c0(%rbp)
   12016:	00 
   12017:	be 02 00 00 00       	mov    $0x2,%esi
   1201c:	bf 01 00 00 00       	mov    $0x1,%edi
   12021:	e8 7b 42 ff ff       	callq  62a1 <safe_lshift_func_int8_t_s_s>
   12026:	0f be c0             	movsbl %al,%eax
   12029:	39 85 f4 fb ff ff    	cmp    %eax,-0x40c(%rbp)
   1202f:	0f 95 c0             	setne  %al
   12032:	0f b6 c0             	movzbl %al,%eax
   12035:	be 06 00 00 00       	mov    $0x6,%esi
   1203a:	89 c7                	mov    %eax,%edi
   1203c:	e8 a0 44 ff ff       	callq  64e1 <safe_lshift_func_int16_t_s_u>
   12041:	0f bf d0             	movswl %ax,%edx
   12044:	8b 05 72 80 00 00    	mov    0x8072(%rip),%eax        # 1a0bc <g_86+0xc>
   1204a:	21 d0                	and    %edx,%eax
   1204c:	39 85 f4 fb ff ff    	cmp    %eax,-0x40c(%rbp)
   12052:	0f 96 c0             	setbe  %al
   12055:	0f b6 d0             	movzbl %al,%edx
   12058:	48 8b 85 f8 fb ff ff 	mov    -0x408(%rbp),%rax
   1205f:	89 10                	mov    %edx,(%rax)
   12061:	8b 85 f4 fb ff ff    	mov    -0x40c(%rbp),%eax
   12067:	0f be c0             	movsbl %al,%eax
   1206a:	be 03 00 00 00       	mov    $0x3,%esi
   1206f:	89 c7                	mov    %eax,%edi
   12071:	e8 5e 41 ff ff       	callq  61d4 <safe_add_func_int8_t_s_s>
   12076:	0f be c0             	movsbl %al,%eax
   12079:	89 85 f4 fb ff ff    	mov    %eax,-0x40c(%rbp)
   1207f:	83 bd f4 fb ff ff 16 	cmpl   $0x16,-0x40c(%rbp)
   12086:	0f 86 95 fe ff ff    	jbe    11f21 <func_55+0x407>
   1208c:	8b 95 84 fd ff ff    	mov    -0x27c(%rbp),%edx
   12092:	48 8b 85 f8 fb ff ff 	mov    -0x408(%rbp),%rax
   12099:	8b 00                	mov    (%rax),%eax
   1209b:	21 d0                	and    %edx,%eax
   1209d:	89 85 84 fd ff ff    	mov    %eax,-0x27c(%rbp)
   120a3:	8b 05 0f 80 00 00    	mov    0x800f(%rip),%eax        # 1a0b8 <g_86+0x8>
   120a9:	48 63 d8             	movslq %eax,%rbx
   120ac:	0f b6 05 f9 7f 00 00 	movzbl 0x7ff9(%rip),%eax        # 1a0ac <g_77>
   120b3:	44 0f b6 e0          	movzbl %al,%r12d
   120b7:	0f b7 85 f0 fb ff ff 	movzwl -0x410(%rbp),%eax
   120be:	8b 0d f4 7f 00 00    	mov    0x7ff4(%rip),%ecx        # 1a0b8 <g_86+0x8>
   120c4:	8b 95 84 fd ff ff    	mov    -0x27c(%rbp),%edx
   120ca:	81 ca 60 1c 00 00    	or     $0x1c60,%edx
   120d0:	89 95 84 fd ff ff    	mov    %edx,-0x27c(%rbp)
   120d6:	8b 95 84 fd ff ff    	mov    -0x27c(%rbp),%edx
   120dc:	21 ca                	and    %ecx,%edx
   120de:	39 d0                	cmp    %edx,%eax
   120e0:	0f 9e c0             	setle  %al
   120e3:	44 0f b6 e8          	movzbl %al,%r13d
   120e7:	48 8b 85 c8 fc ff ff 	mov    -0x338(%rbp),%rax
   120ee:	48 8d 15 b3 7f 00 00 	lea    0x7fb3(%rip),%rdx        # 1a0a8 <g_60>
   120f5:	48 89 10             	mov    %rdx,(%rax)
   120f8:	48 8b 85 c8 fc ff ff 	mov    -0x338(%rbp),%rax
   120ff:	48 8b 00             	mov    (%rax),%rax
   12102:	48 8d 15 9f 7f 00 00 	lea    0x7f9f(%rip),%rdx        # 1a0a8 <g_60>
   12109:	48 39 d0             	cmp    %rdx,%rax
   1210c:	0f 95 c0             	setne  %al
   1210f:	0f b6 d0             	movzbl %al,%edx
   12112:	0f b7 85 f0 fb ff ff 	movzwl -0x410(%rbp),%eax
   12119:	0f be c0             	movsbl %al,%eax
   1211c:	89 d6                	mov    %edx,%esi
   1211e:	89 c7                	mov    %eax,%edi
   12120:	e8 ed 40 ff ff       	callq  6212 <safe_mul_func_int8_t_s_s>
   12125:	0f b6 c0             	movzbl %al,%eax
   12128:	44 89 ee             	mov    %r13d,%esi
   1212b:	89 c7                	mov    %eax,%edi
   1212d:	e8 28 4a ff ff       	callq  6b5a <safe_add_func_uint8_t_u_u>
   12132:	0f b6 c0             	movzbl %al,%eax
   12135:	be 19 c4 ed 50       	mov    $0x50edc419,%esi
   1213a:	89 c7                	mov    %eax,%edi
   1213c:	e8 77 4d ff ff       	callq  6eb8 <safe_add_func_uint32_t_u_u>
   12141:	98                   	cwtl   
   12142:	be 8d cf ff ff       	mov    $0xffffcf8d,%esi
   12147:	89 c7                	mov    %eax,%edi
   12149:	e8 85 42 ff ff       	callq  63d3 <safe_sub_func_int16_t_s_s>
   1214e:	48 83 bd f8 fb ff ff 	cmpq   $0x0,-0x408(%rbp)
   12155:	00 
   12156:	0f 95 c0             	setne  %al
   12159:	0f b6 c0             	movzbl %al,%eax
   1215c:	44 89 e6             	mov    %r12d,%esi
   1215f:	89 c7                	mov    %eax,%edi
   12161:	e8 75 4a ff ff       	callq  6bdb <safe_div_func_uint8_t_u_u>
   12166:	48 89 de             	mov    %rbx,%rsi
   12169:	bf 01 00 00 00       	mov    $0x1,%edi
   1216e:	e8 d8 4e ff ff       	callq  704b <safe_sub_func_uint64_t_u_u>
   12173:	48 8b 95 f8 fb ff ff 	mov    -0x408(%rbp),%rdx
   1217a:	8b 12                	mov    (%rdx),%edx
   1217c:	31 d0                	xor    %edx,%eax
   1217e:	89 c2                	mov    %eax,%edx
   12180:	48 8b 85 f8 fb ff ff 	mov    -0x408(%rbp),%rax
   12187:	89 10                	mov    %edx,(%rax)
   12189:	48 8b 85 f8 fb ff ff 	mov    -0x408(%rbp),%rax
   12190:	8b 00                	mov    (%rax),%eax
   12192:	85 c0                	test   %eax,%eax
   12194:	74 6c                	je     12202 <func_55+0x6e8>
   12196:	48 8d 85 60 fc ff ff 	lea    -0x3a0(%rbp),%rax
   1219d:	48 89 85 30 fd ff ff 	mov    %rax,-0x2d0(%rbp)
   121a4:	48 8d 05 09 7f 00 00 	lea    0x7f09(%rip),%rax        # 1a0b4 <g_86+0x4>
   121ab:	48 89 85 38 fd ff ff 	mov    %rax,-0x2c8(%rbp)
   121b2:	48 8b 85 f8 fb ff ff 	mov    -0x408(%rbp),%rax
   121b9:	c7 00 01 00 00 00    	movl   $0x1,(%rax)
   121bf:	48 8d 85 60 fc ff ff 	lea    -0x3a0(%rbp),%rax
   121c6:	48 39 85 30 fd ff ff 	cmp    %rax,-0x2d0(%rbp)
   121cd:	0f 95 c0             	setne  %al
   121d0:	0f b6 d0             	movzbl %al,%edx
   121d3:	8b 05 cf 7e 00 00    	mov    0x7ecf(%rip),%eax        # 1a0a8 <g_60>
   121d9:	85 c0                	test   %eax,%eax
   121db:	0f 95 c0             	setne  %al
   121de:	0f b6 c0             	movzbl %al,%eax
   121e1:	39 c2                	cmp    %eax,%edx
   121e3:	0f 9e c0             	setle  %al
   121e6:	0f b6 d0             	movzbl %al,%edx
   121e9:	48 8b 85 38 fd ff ff 	mov    -0x2c8(%rbp),%rax
   121f0:	8b 00                	mov    (%rax),%eax
   121f2:	21 c2                	and    %eax,%edx
   121f4:	48 8b 85 38 fd ff ff 	mov    -0x2c8(%rbp),%rax
   121fb:	89 10                	mov    %edx,(%rax)
   121fd:	e9 3e 02 00 00       	jmpq   12440 <func_55+0x926>
   12202:	66 c7 85 12 fc ff ff 	movw   $0x5a80,-0x3ee(%rbp)
   12209:	80 5a 
   1220b:	c7 85 48 fc ff ff f7 	movl   $0xfffffff7,-0x3b8(%rbp)
   12212:	ff ff ff 
   12215:	c7 85 4c fc ff ff 1e 	movl   $0xc6bcd61e,-0x3b4(%rbp)
   1221c:	d6 bc c6 
   1221f:	48 c7 85 f0 fc ff ff 	movq   $0x0,-0x310(%rbp)
   12226:	00 00 00 00 
   1222a:	48 c7 85 f8 fc ff ff 	movq   $0x7,-0x308(%rbp)
   12231:	07 00 00 00 
   12235:	48 8d 85 e0 fd ff ff 	lea    -0x220(%rbp),%rax
   1223c:	48 83 c0 30          	add    $0x30,%rax
   12240:	48 89 85 00 fd ff ff 	mov    %rax,-0x300(%rbp)
   12247:	c7 85 20 fc ff ff 00 	movl   $0x0,-0x3e0(%rbp)
   1224e:	00 00 00 
   12251:	eb 1a                	jmp    1226d <func_55+0x753>
   12253:	8b 85 20 fc ff ff    	mov    -0x3e0(%rbp),%eax
   12259:	48 98                	cltq   
   1225b:	c7 84 85 70 fd ff ff 	movl   $0xffffffff,-0x290(%rbp,%rax,4)
   12262:	ff ff ff ff 
   12266:	83 85 20 fc ff ff 01 	addl   $0x1,-0x3e0(%rbp)
   1226d:	83 bd 20 fc ff ff 03 	cmpl   $0x3,-0x3e0(%rbp)
   12274:	7e dd                	jle    12253 <func_55+0x739>
   12276:	48 c7 05 a7 7d 00 00 	movq   $0x5,0x7da7(%rip)        # 1a028 <g_7>
   1227d:	05 00 00 00 
   12281:	e9 77 01 00 00       	jmpq   123fd <func_55+0x8e3>
   12286:	48 c7 85 08 fd ff ff 	movq   $0x0,-0x2f8(%rbp)
   1228d:	00 00 00 00 
   12291:	48 8d 05 58 7e 00 00 	lea    0x7e58(%rip),%rax        # 1a0f0 <g_171+0x10>
   12298:	48 89 85 10 fd ff ff 	mov    %rax,-0x2f0(%rbp)
   1229f:	48 8d 05 06 7e 00 00 	lea    0x7e06(%rip),%rax        # 1a0ac <g_77>
   122a6:	48 89 85 18 fd ff ff 	mov    %rax,-0x2e8(%rbp)
   122ad:	48 8d 85 58 fc ff ff 	lea    -0x3a8(%rbp),%rax
   122b4:	48 89 85 20 fd ff ff 	mov    %rax,-0x2e0(%rbp)
   122bb:	c7 85 50 fc ff ff 68 	movl   $0xb4b0c768,-0x3b0(%rbp)
   122c2:	c7 b0 b4 
   122c5:	c7 85 54 fc ff ff 08 	movl   $0x8,-0x3ac(%rbp)
   122cc:	00 00 00 
   122cf:	48 8d 05 46 7e 00 00 	lea    0x7e46(%rip),%rax        # 1a11c <g_235>
   122d6:	48 89 85 28 fd ff ff 	mov    %rax,-0x2d8(%rbp)
   122dd:	c7 85 40 fe ff ff 01 	movl   $0x1,-0x1c0(%rbp)
   122e4:	00 00 00 
   122e7:	c7 85 44 fe ff ff eb 	movl   $0xc0a555eb,-0x1bc(%rbp)
   122ee:	55 a5 c0 
   122f1:	c7 85 48 fe ff ff eb 	movl   $0xc0a555eb,-0x1b8(%rbp)
   122f8:	55 a5 c0 
   122fb:	c7 85 4c fe ff ff 00 	movl   $0x0,-0x1b4(%rbp)
   12302:	00 00 00 
   12305:	c7 85 50 fe ff ff 9a 	movl   $0xf128cb9a,-0x1b0(%rbp)
   1230c:	cb 28 f1 
   1230f:	c7 85 54 fe ff ff 9a 	movl   $0xf128cb9a,-0x1ac(%rbp)
   12316:	cb 28 f1 
   12319:	c7 85 58 fe ff ff 01 	movl   $0x1,-0x1a8(%rbp)
   12320:	00 00 00 
   12323:	c7 85 5c fe ff ff eb 	movl   $0xc0a555eb,-0x1a4(%rbp)
   1232a:	55 a5 c0 
   1232d:	c7 85 60 fe ff ff eb 	movl   $0xc0a555eb,-0x1a0(%rbp)
   12334:	55 a5 c0 
   12337:	c7 85 64 fe ff ff 00 	movl   $0x0,-0x19c(%rbp)
   1233e:	00 00 00 
   12341:	c7 85 68 fe ff ff 9a 	movl   $0xf128cb9a,-0x198(%rbp)
   12348:	cb 28 f1 
   1234b:	c7 85 6c fe ff ff 9a 	movl   $0xf128cb9a,-0x194(%rbp)
   12352:	cb 28 f1 
   12355:	c7 85 70 fe ff ff 01 	movl   $0x1,-0x190(%rbp)
   1235c:	00 00 00 
   1235f:	c7 85 74 fe ff ff eb 	movl   $0xc0a555eb,-0x18c(%rbp)
   12366:	55 a5 c0 
   12369:	c7 85 78 fe ff ff eb 	movl   $0xc0a555eb,-0x188(%rbp)
   12370:	55 a5 c0 
   12373:	c7 85 7c fe ff ff 00 	movl   $0x0,-0x184(%rbp)
   1237a:	00 00 00 
   1237d:	c7 85 80 fe ff ff 9a 	movl   $0xf128cb9a,-0x180(%rbp)
   12384:	cb 28 f1 
   12387:	c7 85 84 fe ff ff 9a 	movl   $0xf128cb9a,-0x17c(%rbp)
   1238e:	cb 28 f1 
   12391:	c7 85 88 fe ff ff 01 	movl   $0x1,-0x178(%rbp)
   12398:	00 00 00 
   1239b:	c7 85 8c fe ff ff eb 	movl   $0xc0a555eb,-0x174(%rbp)
   123a2:	55 a5 c0 
   123a5:	c7 85 90 fe ff ff eb 	movl   $0xc0a555eb,-0x170(%rbp)
   123ac:	55 a5 c0 
   123af:	c7 85 94 fe ff ff 00 	movl   $0x0,-0x16c(%rbp)
   123b6:	00 00 00 
   123b9:	c7 85 98 fe ff ff 9a 	movl   $0xf128cb9a,-0x168(%rbp)
   123c0:	cb 28 f1 
   123c3:	c7 85 9c fe ff ff 9a 	movl   $0xf128cb9a,-0x164(%rbp)
   123ca:	cb 28 f1 
   123cd:	c7 85 a0 fe ff ff 01 	movl   $0x1,-0x160(%rbp)
   123d4:	00 00 00 
   123d7:	c7 85 a4 fe ff ff eb 	movl   $0xc0a555eb,-0x15c(%rbp)
   123de:	55 a5 c0 
   123e1:	c7 85 a8 fe ff ff eb 	movl   $0xc0a555eb,-0x158(%rbp)
   123e8:	55 a5 c0 
   123eb:	48 8b 05 36 7c 00 00 	mov    0x7c36(%rip),%rax        # 1a028 <g_7>
   123f2:	48 83 e8 01          	sub    $0x1,%rax
   123f6:	48 89 05 2b 7c 00 00 	mov    %rax,0x7c2b(%rip)        # 1a028 <g_7>
   123fd:	48 8b 05 24 7c 00 00 	mov    0x7c24(%rip),%rax        # 1a028 <g_7>
   12404:	48 85 c0             	test   %rax,%rax
   12407:	0f 8f 79 fe ff ff    	jg     12286 <func_55+0x76c>
   1240d:	48 8b 85 00 fd ff ff 	mov    -0x300(%rbp),%rax
   12414:	8b 10                	mov    (%rax),%edx
   12416:	48 8b 85 f8 fb ff ff 	mov    -0x408(%rbp),%rax
   1241d:	8b 00                	mov    (%rax),%eax
   1241f:	09 c2                	or     %eax,%edx
   12421:	48 8b 85 00 fd ff ff 	mov    -0x300(%rbp),%rax
   12428:	89 10                	mov    %edx,(%rax)
   1242a:	be 04 00 00 00       	mov    $0x4,%esi
   1242f:	bf 66 c3 ff ff       	mov    $0xffffc366,%edi
   12434:	e8 2a 41 ff ff       	callq  6563 <safe_rshift_func_int16_t_s_u>
   12439:	98                   	cwtl   
   1243a:	89 05 78 7c 00 00    	mov    %eax,0x7c78(%rip)        # 1a0b8 <g_86+0x8>
   12440:	66 83 85 f0 fb ff ff 	addw   $0x1,-0x410(%rbp)
   12447:	01 
   12448:	66 83 bd f0 fb ff ff 	cmpw   $0x26,-0x410(%rbp)
   1244f:	26 
   12450:	0f 86 f1 f9 ff ff    	jbe    11e47 <func_55+0x32d>
   12456:	c7 05 bc 7c 00 00 01 	movl   $0x1,0x7cbc(%rip)        # 1a11c <g_235>
   1245d:	00 00 00 
   12460:	e9 b7 01 00 00       	jmpq   1261c <func_55+0xb02>
   12465:	48 8d 85 14 fc ff ff 	lea    -0x3ec(%rbp),%rax
   1246c:	48 89 85 b0 fc ff ff 	mov    %rax,-0x350(%rbp)
   12473:	48 8d 85 14 fc ff ff 	lea    -0x3ec(%rbp),%rax
   1247a:	48 89 85 b8 fc ff ff 	mov    %rax,-0x348(%rbp)
   12481:	48 c7 85 60 fc ff ff 	movq   $0x0,-0x3a0(%rbp)
   12488:	00 00 00 00 
   1248c:	48 8d 85 60 fc ff ff 	lea    -0x3a0(%rbp),%rax
   12493:	48 89 85 c0 fc ff ff 	mov    %rax,-0x340(%rbp)
   1249a:	66 c7 85 80 fd ff ff 	movw   $0x9685,-0x280(%rbp)
   124a1:	85 96 
   124a3:	66 c7 85 82 fd ff ff 	movw   $0x9685,-0x27e(%rbp)
   124aa:	85 96 
   124ac:	66 c7 85 84 fd ff ff 	movw   $0x9685,-0x27c(%rbp)
   124b3:	85 96 
   124b5:	66 c7 85 86 fd ff ff 	movw   $0x9685,-0x27a(%rbp)
   124bc:	85 96 
   124be:	c7 85 24 fc ff ff 00 	movl   $0x0,-0x3dc(%rbp)
   124c5:	00 00 00 
   124c8:	eb 22                	jmp    124ec <func_55+0x9d2>
   124ca:	8b 85 24 fc ff ff    	mov    -0x3dc(%rbp),%eax
   124d0:	48 98                	cltq   
   124d2:	48 8d 95 e0 fd ff ff 	lea    -0x220(%rbp),%rdx
   124d9:	48 83 c2 40          	add    $0x40,%rdx
   124dd:	48 89 94 c5 40 fe ff 	mov    %rdx,-0x1c0(%rbp,%rax,8)
   124e4:	ff 
   124e5:	83 85 24 fc ff ff 01 	addl   $0x1,-0x3dc(%rbp)
   124ec:	83 bd 24 fc ff ff 05 	cmpl   $0x5,-0x3dc(%rbp)
   124f3:	7e d5                	jle    124ca <func_55+0x9b0>
   124f5:	48 8b 85 a0 fd ff ff 	mov    -0x260(%rbp),%rax
   124fc:	48 83 c0 01          	add    $0x1,%rax
   12500:	48 89 85 a0 fd ff ff 	mov    %rax,-0x260(%rbp)
   12507:	48 8b 85 80 fc ff ff 	mov    -0x380(%rbp),%rax
   1250e:	8b 00                	mov    (%rax),%eax
   12510:	0f be d8             	movsbl %al,%ebx
   12513:	8b 05 03 7c 00 00    	mov    0x7c03(%rip),%eax        # 1a11c <g_235>
   12519:	89 c0                	mov    %eax,%eax
   1251b:	48 8d 14 85 00 00 00 	lea    0x0(,%rax,4),%rdx
   12522:	00 
   12523:	48 8d 05 86 7b 00 00 	lea    0x7b86(%rip),%rax        # 1a0b0 <g_86>
   1252a:	8b 04 02             	mov    (%rdx,%rax,1),%eax
   1252d:	85 c0                	test   %eax,%eax
   1252f:	74 78                	je     125a9 <func_55+0xa8f>
   12531:	8b 05 31 a2 00 00    	mov    0xa231(%rip),%eax        # 1c768 <g_4>
   12537:	44 0f b7 e0          	movzwl %ax,%r12d
   1253b:	48 8b 85 c0 fc ff ff 	mov    -0x340(%rbp),%rax
   12542:	48 c7 00 00 00 00 00 	movq   $0x0,(%rax)
   12549:	48 8b 85 c0 fc ff ff 	mov    -0x340(%rbp),%rax
   12550:	48 8b 10             	mov    (%rax),%rdx
   12553:	48 8b 85 a8 fc ff ff 	mov    -0x358(%rbp),%rax
   1255a:	48 89 05 47 92 00 00 	mov    %rax,0x9247(%rip)        # 1b7a8 <g_320+0x48>
   12561:	48 8b 05 40 92 00 00 	mov    0x9240(%rip),%rax        # 1b7a8 <g_320+0x48>
   12568:	48 39 c2             	cmp    %rax,%rdx
   1256b:	0f 95 c0             	setne  %al
   1256e:	0f b6 c0             	movzbl %al,%eax
   12571:	be 8f 8d ce b5       	mov    $0xb5ce8d8f,%esi
   12576:	89 c7                	mov    %eax,%edi
   12578:	e8 3b 49 ff ff       	callq  6eb8 <safe_add_func_uint32_t_u_u>
   1257d:	66 89 05 44 7b 00 00 	mov    %ax,0x7b44(%rip)        # 1a0c8 <g_152>
   12584:	0f b7 05 3d 7b 00 00 	movzwl 0x7b3d(%rip),%eax        # 1a0c8 <g_152>
   1258b:	0f b7 c0             	movzwl %ax,%eax
   1258e:	44 89 e6             	mov    %r12d,%esi
   12591:	89 c7                	mov    %eax,%edi
   12593:	e8 67 47 ff ff       	callq  6cff <safe_add_func_uint16_t_u_u>
   12598:	0f b6 c0             	movzbl %al,%eax
   1259b:	be 03 00 00 00       	mov    $0x3,%esi
   125a0:	89 c7                	mov    %eax,%edi
   125a2:	e8 e6 46 ff ff       	callq  6c8d <safe_rshift_func_uint8_t_u_s>
   125a7:	3c 01                	cmp    $0x1,%al
   125a9:	8b 05 29 7c 00 00    	mov    0x7c29(%rip),%eax        # 1a1d8 <g_248+0x98>
   125af:	0f be c0             	movsbl %al,%eax
   125b2:	89 de                	mov    %ebx,%esi
   125b4:	89 c7                	mov    %eax,%edi
   125b6:	e8 57 3c ff ff       	callq  6212 <safe_mul_func_int8_t_s_s>
   125bb:	8b 85 f4 fb ff ff    	mov    -0x40c(%rbp),%eax
   125c1:	0f b6 c0             	movzbl %al,%eax
   125c4:	be 04 00 00 00       	mov    $0x4,%esi
   125c9:	89 c7                	mov    %eax,%edi
   125cb:	e8 ee 46 ff ff       	callq  6cbe <safe_rshift_func_uint8_t_u_u>
   125d0:	48 8b 85 80 fc ff ff 	mov    -0x380(%rbp),%rax
   125d7:	8b 10                	mov    (%rax),%edx
   125d9:	48 8b 85 b8 fc ff ff 	mov    -0x348(%rbp),%rax
   125e0:	8b 00                	mov    (%rax),%eax
   125e2:	21 c2                	and    %eax,%edx
   125e4:	48 8b 85 b8 fc ff ff 	mov    -0x348(%rbp),%rax
   125eb:	89 10                	mov    %edx,(%rax)
   125ed:	0f b7 85 84 fd ff ff 	movzwl -0x27c(%rbp),%eax
   125f4:	83 e8 01             	sub    $0x1,%eax
   125f7:	66 89 85 84 fd ff ff 	mov    %ax,-0x27c(%rbp)
   125fe:	8b 85 14 fc ff ff    	mov    -0x3ec(%rbp),%eax
   12604:	85 c0                	test   %eax,%eax
   12606:	74 05                	je     1260d <func_55+0xaf3>
   12608:	e9 2c f8 ff ff       	jmpq   11e39 <func_55+0x31f>
   1260d:	8b 05 09 7b 00 00    	mov    0x7b09(%rip),%eax        # 1a11c <g_235>
   12613:	83 c0 01             	add    $0x1,%eax
   12616:	89 05 00 7b 00 00    	mov    %eax,0x7b00(%rip)        # 1a11c <g_235>
   1261c:	8b 05 fa 7a 00 00    	mov    0x7afa(%rip),%eax        # 1a11c <g_235>
   12622:	83 f8 05             	cmp    $0x5,%eax
   12625:	0f 86 3a fe ff ff    	jbe    12465 <func_55+0x94b>
   1262b:	e9 75 02 00 00       	jmpq   128a5 <func_55+0xd8b>
   12630:	48 b8 63 65 b9 70 d2 	movabs $0x83ca21d270b96563,%rax
   12637:	21 ca 83 
   1263a:	48 89 85 68 fc ff ff 	mov    %rax,-0x398(%rbp)
   12641:	48 8d 05 30 92 00 00 	lea    0x9230(%rip),%rax        # 1b878 <g_320+0x118>
   12648:	48 89 85 60 fc ff ff 	mov    %rax,-0x3a0(%rbp)
   1264f:	48 8d 85 60 fc ff ff 	lea    -0x3a0(%rbp),%rax
   12656:	48 89 85 88 fc ff ff 	mov    %rax,-0x378(%rbp)
   1265d:	c7 85 f4 fb ff ff 0c 	movl   $0xc,-0x40c(%rbp)
   12664:	00 00 00 
   12667:	e9 1b 02 00 00       	jmpq   12887 <func_55+0xd6d>
   1266c:	c7 85 38 fc ff ff f8 	movl   $0xfffffff8,-0x3c8(%rbp)
   12673:	ff ff ff 
   12676:	48 8d 05 2b 7a 00 00 	lea    0x7a2b(%rip),%rax        # 1a0a8 <g_60>
   1267d:	48 89 85 40 fe ff ff 	mov    %rax,-0x1c0(%rbp)
   12684:	48 8d 05 e1 a0 00 00 	lea    0xa0e1(%rip),%rax        # 1c76c <g_160>
   1268b:	48 89 85 48 fe ff ff 	mov    %rax,-0x1b8(%rbp)
   12692:	48 8d 05 0f 7a 00 00 	lea    0x7a0f(%rip),%rax        # 1a0a8 <g_60>
   12699:	48 89 85 50 fe ff ff 	mov    %rax,-0x1b0(%rbp)
   126a0:	48 8d 05 01 7a 00 00 	lea    0x7a01(%rip),%rax        # 1a0a8 <g_60>
   126a7:	48 89 85 58 fe ff ff 	mov    %rax,-0x1a8(%rbp)
   126ae:	48 8d 05 b7 a0 00 00 	lea    0xa0b7(%rip),%rax        # 1c76c <g_160>
   126b5:	48 89 85 60 fe ff ff 	mov    %rax,-0x1a0(%rbp)
   126bc:	48 8d 05 e5 79 00 00 	lea    0x79e5(%rip),%rax        # 1a0a8 <g_60>
   126c3:	48 89 85 68 fe ff ff 	mov    %rax,-0x198(%rbp)
   126ca:	48 8d 05 d7 79 00 00 	lea    0x79d7(%rip),%rax        # 1a0a8 <g_60>
   126d1:	48 89 85 70 fe ff ff 	mov    %rax,-0x190(%rbp)
   126d8:	48 8d 05 8d a0 00 00 	lea    0xa08d(%rip),%rax        # 1c76c <g_160>
   126df:	48 89 85 78 fe ff ff 	mov    %rax,-0x188(%rbp)
   126e6:	48 8d 05 bb 79 00 00 	lea    0x79bb(%rip),%rax        # 1a0a8 <g_60>
   126ed:	48 89 85 80 fe ff ff 	mov    %rax,-0x180(%rbp)
   126f4:	48 8d 05 ad 79 00 00 	lea    0x79ad(%rip),%rax        # 1a0a8 <g_60>
   126fb:	48 89 85 88 fe ff ff 	mov    %rax,-0x178(%rbp)
   12702:	48 8d 05 1f 90 00 00 	lea    0x901f(%rip),%rax        # 1b728 <g_159>
   12709:	48 89 85 90 fc ff ff 	mov    %rax,-0x370(%rbp)
   12710:	48 c7 85 98 fc ff ff 	movq   $0x0,-0x368(%rbp)
   12717:	00 00 00 00 
   1271b:	48 8d 05 be 79 00 00 	lea    0x79be(%rip),%rax        # 1a0e0 <g_171>
   12722:	48 89 85 e0 fd ff ff 	mov    %rax,-0x220(%rbp)
   12729:	48 8d 05 b0 79 00 00 	lea    0x79b0(%rip),%rax        # 1a0e0 <g_171>
   12730:	48 89 85 e8 fd ff ff 	mov    %rax,-0x218(%rbp)
   12737:	48 c7 85 f0 fd ff ff 	movq   $0x0,-0x210(%rbp)
   1273e:	00 00 00 00 
   12742:	48 8d 05 97 79 00 00 	lea    0x7997(%rip),%rax        # 1a0e0 <g_171>
   12749:	48 89 85 f8 fd ff ff 	mov    %rax,-0x208(%rbp)
   12750:	48 8d 05 89 79 00 00 	lea    0x7989(%rip),%rax        # 1a0e0 <g_171>
   12757:	48 89 85 00 fe ff ff 	mov    %rax,-0x200(%rbp)
   1275e:	48 c7 85 08 fe ff ff 	movq   $0x0,-0x1f8(%rbp)
   12765:	00 00 00 00 
   12769:	48 8d 05 70 79 00 00 	lea    0x7970(%rip),%rax        # 1a0e0 <g_171>
   12770:	48 89 85 10 fe ff ff 	mov    %rax,-0x1f0(%rbp)
   12777:	48 8d 85 10 fc ff ff 	lea    -0x3f0(%rbp),%rax
   1277e:	48 89 85 a0 fc ff ff 	mov    %rax,-0x360(%rbp)
   12785:	83 85 38 fc ff ff 01 	addl   $0x1,-0x3c8(%rbp)
   1278c:	48 8b 95 78 fe ff ff 	mov    -0x188(%rbp),%rdx
   12793:	48 8b 85 90 fc ff ff 	mov    -0x370(%rbp),%rax
   1279a:	48 8d 0d cb 9f 00 00 	lea    0x9fcb(%rip),%rcx        # 1c76c <g_160>
   127a1:	48 89 08             	mov    %rcx,(%rax)
   127a4:	48 8b 85 90 fc ff ff 	mov    -0x370(%rbp),%rax
   127ab:	48 8b 00             	mov    (%rax),%rax
   127ae:	48 39 c2             	cmp    %rax,%rdx
   127b1:	0f 95 c0             	setne  %al
   127b4:	0f b6 c0             	movzbl %al,%eax
   127b7:	39 85 f4 fb ff ff    	cmp    %eax,-0x40c(%rbp)
   127bd:	74 64                	je     12823 <func_55+0xd09>
   127bf:	0f b7 85 f0 fb ff ff 	movzwl -0x410(%rbp),%eax
   127c6:	0f bf d0             	movswl %ax,%edx
   127c9:	8b 85 38 fc ff ff    	mov    -0x3c8(%rbp),%eax
   127cf:	98                   	cwtl   
   127d0:	89 d6                	mov    %edx,%esi
   127d2:	89 c7                	mov    %eax,%edi
   127d4:	e8 fa 3b ff ff       	callq  63d3 <safe_sub_func_int16_t_s_s>
   127d9:	98                   	cwtl   
   127da:	8b 15 88 9f 00 00    	mov    0x9f88(%rip),%edx        # 1c768 <g_4>
   127e0:	81 fa fb ff 00 00    	cmp    $0xfffb,%edx
   127e6:	0f 97 c2             	seta   %dl
   127e9:	0f b6 d2             	movzbl %dl,%edx
   127ec:	21 d0                	and    %edx,%eax
   127ee:	48 98                	cltq   
   127f0:	48 09 85 68 fc ff ff 	or     %rax,-0x398(%rbp)
   127f7:	48 8b 85 80 fc ff ff 	mov    -0x380(%rbp),%rax
   127fe:	8b 00                	mov    (%rax),%eax
   12800:	35 5d dd af 70       	xor    $0x70afdd5d,%eax
   12805:	89 85 34 fc ff ff    	mov    %eax,-0x3cc(%rbp)
   1280b:	0f b7 85 f0 fb ff ff 	movzwl -0x410(%rbp),%eax
   12812:	0b 85 34 fc ff ff    	or     -0x3cc(%rbp),%eax
   12818:	85 c0                	test   %eax,%eax
   1281a:	74 07                	je     12823 <func_55+0xd09>
   1281c:	ba 01 00 00 00       	mov    $0x1,%edx
   12821:	eb 05                	jmp    12828 <func_55+0xd0e>
   12823:	ba 00 00 00 00       	mov    $0x0,%edx
   12828:	48 8b 85 a0 fc ff ff 	mov    -0x360(%rbp),%rax
   1282f:	0f b7 00             	movzwl (%rax),%eax
   12832:	31 c2                	xor    %eax,%edx
   12834:	48 8b 85 a0 fc ff ff 	mov    -0x360(%rbp),%rax
   1283b:	66 89 10             	mov    %dx,(%rax)
   1283e:	48 8b 85 a0 fc ff ff 	mov    -0x360(%rbp),%rax
   12845:	0f b7 00             	movzwl (%rax),%eax
   12848:	98                   	cwtl   
   12849:	be 09 00 00 00       	mov    $0x9,%esi
   1284e:	89 c7                	mov    %eax,%edi
   12850:	e8 8c 3c ff ff       	callq  64e1 <safe_lshift_func_int16_t_s_u>
   12855:	0f bf d0             	movswl %ax,%edx
   12858:	0f b6 05 6b 78 00 00 	movzbl 0x786b(%rip),%eax        # 1a0ca <g_162>
   1285f:	0f b6 c0             	movzbl %al,%eax
   12862:	89 d6                	mov    %edx,%esi
   12864:	89 c7                	mov    %eax,%edi
   12866:	e8 27 3c ff ff       	callq  6492 <safe_lshift_func_int16_t_s_s>
   1286b:	48 8b 95 f8 fb ff ff 	mov    -0x408(%rbp),%rdx
   12872:	8b 12                	mov    (%rdx),%edx
   12874:	98                   	cwtl   
   12875:	31 c2                	xor    %eax,%edx
   12877:	48 8b 85 f8 fb ff ff 	mov    -0x408(%rbp),%rax
   1287e:	89 10                	mov    %edx,(%rax)
   12880:	83 85 f4 fb ff ff 01 	addl   $0x1,-0x40c(%rbp)
   12887:	83 bd f4 fb ff ff 11 	cmpl   $0x11,-0x40c(%rbp)
   1288e:	0f 86 d8 fd ff ff    	jbe    1266c <func_55+0xb52>
   12894:	48 8b 85 88 fc ff ff 	mov    -0x378(%rbp),%rax
   1289b:	48 8d 15 06 8f 00 00 	lea    0x8f06(%rip),%rdx        # 1b7a8 <g_320+0x48>
   128a2:	48 89 10             	mov    %rdx,(%rax)
   128a5:	0f b7 85 f0 fb ff ff 	movzwl -0x410(%rbp),%eax
   128ac:	48 8b 5d d8          	mov    -0x28(%rbp),%rbx
   128b0:	64 48 33 1c 25 28 00 	xor    %fs:0x28,%rbx
   128b7:	00 00 
   128b9:	74 05                	je     128c0 <func_55+0xda6>
   128bb:	e8 b0 37 ff ff       	callq  6070 <__stack_chk_fail@plt>
   128c0:	48 81 c4 f8 03 00 00 	add    $0x3f8,%rsp
   128c7:	5b                   	pop    %rbx
   128c8:	41 5c                	pop    %r12
   128ca:	41 5d                	pop    %r13
   128cc:	5d                   	pop    %rbp
   128cd:	c3                   	retq   

00000000000128ce <func_66>:
   128ce:	f3 0f 1e fa          	endbr64 
   128d2:	55                   	push   %rbp
   128d3:	48 89 e5             	mov    %rsp,%rbp
   128d6:	48 81 ec 80 06 00 00 	sub    $0x680,%rsp
   128dd:	89 f8                	mov    %edi,%eax
   128df:	48 89 b5 90 f9 ff ff 	mov    %rsi,-0x670(%rbp)
   128e6:	48 89 95 88 f9 ff ff 	mov    %rdx,-0x678(%rbp)
   128ed:	89 8d 98 f9 ff ff    	mov    %ecx,-0x668(%rbp)
   128f3:	44 89 85 84 f9 ff ff 	mov    %r8d,-0x67c(%rbp)
   128fa:	66 89 85 9c f9 ff ff 	mov    %ax,-0x664(%rbp)
   12901:	64 48 8b 04 25 28 00 	mov    %fs:0x28,%rax
   12908:	00 00 
   1290a:	48 89 45 f8          	mov    %rax,-0x8(%rbp)
   1290e:	31 c0                	xor    %eax,%eax
   12910:	48 8d 05 51 9e 00 00 	lea    0x9e51(%rip),%rax        # 1c768 <g_4>
   12917:	48 89 85 a8 f9 ff ff 	mov    %rax,-0x658(%rbp)
   1291e:	48 8d 85 a8 f9 ff ff 	lea    -0x658(%rbp),%rax
   12925:	48 89 85 b0 f9 ff ff 	mov    %rax,-0x650(%rbp)
   1292c:	48 8d 85 a8 f9 ff ff 	lea    -0x658(%rbp),%rax
   12933:	48 89 85 b8 f9 ff ff 	mov    %rax,-0x648(%rbp)
   1293a:	48 8d 85 a8 f9 ff ff 	lea    -0x658(%rbp),%rax
   12941:	48 89 85 c0 f9 ff ff 	mov    %rax,-0x640(%rbp)
   12948:	48 8d 85 a8 f9 ff ff 	lea    -0x658(%rbp),%rax
   1294f:	48 89 85 c8 f9 ff ff 	mov    %rax,-0x638(%rbp)
   12956:	48 c7 85 d0 f9 ff ff 	movq   $0x0,-0x630(%rbp)
   1295d:	00 00 00 00 
   12961:	48 8d 85 a8 f9 ff ff 	lea    -0x658(%rbp),%rax
   12968:	48 89 85 d8 f9 ff ff 	mov    %rax,-0x628(%rbp)
   1296f:	48 c7 85 e0 f9 ff ff 	movq   $0x0,-0x620(%rbp)
   12976:	00 00 00 00 
   1297a:	48 8d 85 a8 f9 ff ff 	lea    -0x658(%rbp),%rax
   12981:	48 89 85 e8 f9 ff ff 	mov    %rax,-0x618(%rbp)
   12988:	48 c7 85 f0 f9 ff ff 	movq   $0x0,-0x610(%rbp)
   1298f:	00 00 00 00 
   12993:	48 8d 85 a8 f9 ff ff 	lea    -0x658(%rbp),%rax
   1299a:	48 89 85 f8 f9 ff ff 	mov    %rax,-0x608(%rbp)
   129a1:	48 8d 85 a8 f9 ff ff 	lea    -0x658(%rbp),%rax
   129a8:	48 89 85 00 fa ff ff 	mov    %rax,-0x600(%rbp)
   129af:	48 8d 85 a8 f9 ff ff 	lea    -0x658(%rbp),%rax
   129b6:	48 89 85 08 fa ff ff 	mov    %rax,-0x5f8(%rbp)
   129bd:	48 8d 85 a8 f9 ff ff 	lea    -0x658(%rbp),%rax
   129c4:	48 89 85 10 fa ff ff 	mov    %rax,-0x5f0(%rbp)
   129cb:	48 8d 85 a8 f9 ff ff 	lea    -0x658(%rbp),%rax
   129d2:	48 89 85 18 fa ff ff 	mov    %rax,-0x5e8(%rbp)
   129d9:	48 8d 85 a8 f9 ff ff 	lea    -0x658(%rbp),%rax
   129e0:	48 89 85 20 fa ff ff 	mov    %rax,-0x5e0(%rbp)
   129e7:	48 8d 85 a8 f9 ff ff 	lea    -0x658(%rbp),%rax
   129ee:	48 89 85 28 fa ff ff 	mov    %rax,-0x5d8(%rbp)
   129f5:	48 c7 85 30 fa ff ff 	movq   $0x0,-0x5d0(%rbp)
   129fc:	00 00 00 00 
   12a00:	48 8d 85 a8 f9 ff ff 	lea    -0x658(%rbp),%rax
   12a07:	48 89 85 38 fa ff ff 	mov    %rax,-0x5c8(%rbp)
   12a0e:	48 8d 85 a8 f9 ff ff 	lea    -0x658(%rbp),%rax
   12a15:	48 89 85 40 fa ff ff 	mov    %rax,-0x5c0(%rbp)
   12a1c:	48 8d 85 a8 f9 ff ff 	lea    -0x658(%rbp),%rax
   12a23:	48 89 85 48 fa ff ff 	mov    %rax,-0x5b8(%rbp)
   12a2a:	48 c7 85 50 fa ff ff 	movq   $0x0,-0x5b0(%rbp)
   12a31:	00 00 00 00 
   12a35:	48 8d 85 a8 f9 ff ff 	lea    -0x658(%rbp),%rax
   12a3c:	48 89 85 58 fa ff ff 	mov    %rax,-0x5a8(%rbp)
   12a43:	48 8d 85 a8 f9 ff ff 	lea    -0x658(%rbp),%rax
   12a4a:	48 89 85 60 fa ff ff 	mov    %rax,-0x5a0(%rbp)
   12a51:	48 8d 85 a8 f9 ff ff 	lea    -0x658(%rbp),%rax
   12a58:	48 89 85 68 fa ff ff 	mov    %rax,-0x598(%rbp)
   12a5f:	48 8d 85 a8 f9 ff ff 	lea    -0x658(%rbp),%rax
   12a66:	48 89 85 70 fa ff ff 	mov    %rax,-0x590(%rbp)
   12a6d:	48 8d 85 a8 f9 ff ff 	lea    -0x658(%rbp),%rax
   12a74:	48 89 85 78 fa ff ff 	mov    %rax,-0x588(%rbp)
   12a7b:	48 8d 85 a8 f9 ff ff 	lea    -0x658(%rbp),%rax
   12a82:	48 89 85 80 fa ff ff 	mov    %rax,-0x580(%rbp)
   12a89:	48 c7 85 88 fa ff ff 	movq   $0x0,-0x578(%rbp)
   12a90:	00 00 00 00 
   12a94:	48 8d 85 a8 f9 ff ff 	lea    -0x658(%rbp),%rax
   12a9b:	48 89 85 90 fa ff ff 	mov    %rax,-0x570(%rbp)
   12aa2:	48 8d 85 a8 f9 ff ff 	lea    -0x658(%rbp),%rax
   12aa9:	48 89 85 98 fa ff ff 	mov    %rax,-0x568(%rbp)
   12ab0:	48 8d 85 a8 f9 ff ff 	lea    -0x658(%rbp),%rax
   12ab7:	48 89 85 a0 fa ff ff 	mov    %rax,-0x560(%rbp)
   12abe:	48 8d 85 a8 f9 ff ff 	lea    -0x658(%rbp),%rax
   12ac5:	48 89 85 a8 fa ff ff 	mov    %rax,-0x558(%rbp)
   12acc:	48 8d 85 a8 f9 ff ff 	lea    -0x658(%rbp),%rax
   12ad3:	48 89 85 b0 fa ff ff 	mov    %rax,-0x550(%rbp)
   12ada:	48 8d 85 a8 f9 ff ff 	lea    -0x658(%rbp),%rax
   12ae1:	48 89 85 b8 fa ff ff 	mov    %rax,-0x548(%rbp)
   12ae8:	48 c7 85 c0 fa ff ff 	movq   $0x0,-0x540(%rbp)
   12aef:	00 00 00 00 
   12af3:	48 8d 85 a8 f9 ff ff 	lea    -0x658(%rbp),%rax
   12afa:	48 89 85 c8 fa ff ff 	mov    %rax,-0x538(%rbp)
   12b01:	48 8d 85 a8 f9 ff ff 	lea    -0x658(%rbp),%rax
   12b08:	48 89 85 d0 fa ff ff 	mov    %rax,-0x530(%rbp)
   12b0f:	48 8d 85 a8 f9 ff ff 	lea    -0x658(%rbp),%rax
   12b16:	48 89 85 d8 fa ff ff 	mov    %rax,-0x528(%rbp)
   12b1d:	48 8d 85 a8 f9 ff ff 	lea    -0x658(%rbp),%rax
   12b24:	48 89 85 e0 fa ff ff 	mov    %rax,-0x520(%rbp)
   12b2b:	48 8d 85 a8 f9 ff ff 	lea    -0x658(%rbp),%rax
   12b32:	48 89 85 e8 fa ff ff 	mov    %rax,-0x518(%rbp)
   12b39:	48 8d 85 a8 f9 ff ff 	lea    -0x658(%rbp),%rax
   12b40:	48 89 85 f0 fa ff ff 	mov    %rax,-0x510(%rbp)
   12b47:	48 8d 85 a8 f9 ff ff 	lea    -0x658(%rbp),%rax
   12b4e:	48 89 85 f8 fa ff ff 	mov    %rax,-0x508(%rbp)
   12b55:	48 8d 85 a8 f9 ff ff 	lea    -0x658(%rbp),%rax
   12b5c:	48 89 85 00 fb ff ff 	mov    %rax,-0x500(%rbp)
   12b63:	48 8d 85 a8 f9 ff ff 	lea    -0x658(%rbp),%rax
   12b6a:	48 89 85 08 fb ff ff 	mov    %rax,-0x4f8(%rbp)
   12b71:	48 8d 85 a8 f9 ff ff 	lea    -0x658(%rbp),%rax
   12b78:	48 89 85 10 fb ff ff 	mov    %rax,-0x4f0(%rbp)
   12b7f:	48 8d 85 a8 f9 ff ff 	lea    -0x658(%rbp),%rax
   12b86:	48 89 85 18 fb ff ff 	mov    %rax,-0x4e8(%rbp)
   12b8d:	48 8d 85 a8 f9 ff ff 	lea    -0x658(%rbp),%rax
   12b94:	48 89 85 20 fb ff ff 	mov    %rax,-0x4e0(%rbp)
   12b9b:	48 8d 85 a8 f9 ff ff 	lea    -0x658(%rbp),%rax
   12ba2:	48 89 85 28 fb ff ff 	mov    %rax,-0x4d8(%rbp)
   12ba9:	48 8d 85 a8 f9 ff ff 	lea    -0x658(%rbp),%rax
   12bb0:	48 89 85 30 fb ff ff 	mov    %rax,-0x4d0(%rbp)
   12bb7:	48 8d 85 a8 f9 ff ff 	lea    -0x658(%rbp),%rax
   12bbe:	48 89 85 38 fb ff ff 	mov    %rax,-0x4c8(%rbp)
   12bc5:	48 c7 85 40 fb ff ff 	movq   $0x0,-0x4c0(%rbp)
   12bcc:	00 00 00 00 
   12bd0:	48 8d 85 a8 f9 ff ff 	lea    -0x658(%rbp),%rax
   12bd7:	48 89 85 48 fb ff ff 	mov    %rax,-0x4b8(%rbp)
   12bde:	48 8d 85 a8 f9 ff ff 	lea    -0x658(%rbp),%rax
   12be5:	48 89 85 50 fb ff ff 	mov    %rax,-0x4b0(%rbp)
   12bec:	48 8d 85 a8 f9 ff ff 	lea    -0x658(%rbp),%rax
   12bf3:	48 89 85 58 fb ff ff 	mov    %rax,-0x4a8(%rbp)
   12bfa:	48 8d 85 a8 f9 ff ff 	lea    -0x658(%rbp),%rax
   12c01:	48 89 85 60 fb ff ff 	mov    %rax,-0x4a0(%rbp)
   12c08:	48 8d 85 a8 f9 ff ff 	lea    -0x658(%rbp),%rax
   12c0f:	48 89 85 68 fb ff ff 	mov    %rax,-0x498(%rbp)
   12c16:	48 8d 85 a8 f9 ff ff 	lea    -0x658(%rbp),%rax
   12c1d:	48 89 85 70 fb ff ff 	mov    %rax,-0x490(%rbp)
   12c24:	48 8d 85 a8 f9 ff ff 	lea    -0x658(%rbp),%rax
   12c2b:	48 89 85 78 fb ff ff 	mov    %rax,-0x488(%rbp)
   12c32:	48 8d 85 a8 f9 ff ff 	lea    -0x658(%rbp),%rax
   12c39:	48 89 85 80 fb ff ff 	mov    %rax,-0x480(%rbp)
   12c40:	48 8d 85 a8 f9 ff ff 	lea    -0x658(%rbp),%rax
   12c47:	48 89 85 88 fb ff ff 	mov    %rax,-0x478(%rbp)
   12c4e:	48 8d 85 a8 f9 ff ff 	lea    -0x658(%rbp),%rax
   12c55:	48 89 85 90 fb ff ff 	mov    %rax,-0x470(%rbp)
   12c5c:	48 8d 85 a8 f9 ff ff 	lea    -0x658(%rbp),%rax
   12c63:	48 89 85 98 fb ff ff 	mov    %rax,-0x468(%rbp)
   12c6a:	48 8d 85 a8 f9 ff ff 	lea    -0x658(%rbp),%rax
   12c71:	48 89 85 a0 fb ff ff 	mov    %rax,-0x460(%rbp)
   12c78:	48 8d 85 a8 f9 ff ff 	lea    -0x658(%rbp),%rax
   12c7f:	48 89 85 a8 fb ff ff 	mov    %rax,-0x458(%rbp)
   12c86:	48 8d 85 a8 f9 ff ff 	lea    -0x658(%rbp),%rax
   12c8d:	48 89 85 b0 fb ff ff 	mov    %rax,-0x450(%rbp)
   12c94:	48 8d 85 a8 f9 ff ff 	lea    -0x658(%rbp),%rax
   12c9b:	48 89 85 b8 fb ff ff 	mov    %rax,-0x448(%rbp)
   12ca2:	48 8d 85 a8 f9 ff ff 	lea    -0x658(%rbp),%rax
   12ca9:	48 89 85 c0 fb ff ff 	mov    %rax,-0x440(%rbp)
   12cb0:	48 c7 85 c8 fb ff ff 	movq   $0x0,-0x438(%rbp)
   12cb7:	00 00 00 00 
   12cbb:	48 8d 85 a8 f9 ff ff 	lea    -0x658(%rbp),%rax
   12cc2:	48 89 85 d0 fb ff ff 	mov    %rax,-0x430(%rbp)
   12cc9:	48 8d 85 a8 f9 ff ff 	lea    -0x658(%rbp),%rax
   12cd0:	48 89 85 d8 fb ff ff 	mov    %rax,-0x428(%rbp)
   12cd7:	48 8d 85 a8 f9 ff ff 	lea    -0x658(%rbp),%rax
   12cde:	48 89 85 e0 fb ff ff 	mov    %rax,-0x420(%rbp)
   12ce5:	48 8d 85 a8 f9 ff ff 	lea    -0x658(%rbp),%rax
   12cec:	48 89 85 e8 fb ff ff 	mov    %rax,-0x418(%rbp)
   12cf3:	48 8d 85 a8 f9 ff ff 	lea    -0x658(%rbp),%rax
   12cfa:	48 89 85 f0 fb ff ff 	mov    %rax,-0x410(%rbp)
   12d01:	48 8d 85 a8 f9 ff ff 	lea    -0x658(%rbp),%rax
   12d08:	48 89 85 f8 fb ff ff 	mov    %rax,-0x408(%rbp)
   12d0f:	48 8d 85 a8 f9 ff ff 	lea    -0x658(%rbp),%rax
   12d16:	48 89 85 00 fc ff ff 	mov    %rax,-0x400(%rbp)
   12d1d:	48 8d 85 a8 f9 ff ff 	lea    -0x658(%rbp),%rax
   12d24:	48 89 85 08 fc ff ff 	mov    %rax,-0x3f8(%rbp)
   12d2b:	48 8d 85 a8 f9 ff ff 	lea    -0x658(%rbp),%rax
   12d32:	48 89 85 10 fc ff ff 	mov    %rax,-0x3f0(%rbp)
   12d39:	48 8d 85 a8 f9 ff ff 	lea    -0x658(%rbp),%rax
   12d40:	48 89 85 18 fc ff ff 	mov    %rax,-0x3e8(%rbp)
   12d47:	48 c7 85 20 fc ff ff 	movq   $0x0,-0x3e0(%rbp)
   12d4e:	00 00 00 00 
   12d52:	48 8d 85 a8 f9 ff ff 	lea    -0x658(%rbp),%rax
   12d59:	48 89 85 28 fc ff ff 	mov    %rax,-0x3d8(%rbp)
   12d60:	48 8d 85 a8 f9 ff ff 	lea    -0x658(%rbp),%rax
   12d67:	48 89 85 30 fc ff ff 	mov    %rax,-0x3d0(%rbp)
   12d6e:	48 8d 85 a8 f9 ff ff 	lea    -0x658(%rbp),%rax
   12d75:	48 89 85 38 fc ff ff 	mov    %rax,-0x3c8(%rbp)
   12d7c:	48 8d 85 a8 f9 ff ff 	lea    -0x658(%rbp),%rax
   12d83:	48 89 85 40 fc ff ff 	mov    %rax,-0x3c0(%rbp)
   12d8a:	48 8d 85 a8 f9 ff ff 	lea    -0x658(%rbp),%rax
   12d91:	48 89 85 48 fc ff ff 	mov    %rax,-0x3b8(%rbp)
   12d98:	48 c7 85 50 fc ff ff 	movq   $0x0,-0x3b0(%rbp)
   12d9f:	00 00 00 00 
   12da3:	48 8d 85 a8 f9 ff ff 	lea    -0x658(%rbp),%rax
   12daa:	48 89 85 58 fc ff ff 	mov    %rax,-0x3a8(%rbp)
   12db1:	48 c7 85 60 fc ff ff 	movq   $0x0,-0x3a0(%rbp)
   12db8:	00 00 00 00 
   12dbc:	48 8d 85 a8 f9 ff ff 	lea    -0x658(%rbp),%rax
   12dc3:	48 89 85 68 fc ff ff 	mov    %rax,-0x398(%rbp)
   12dca:	48 c7 85 70 fc ff ff 	movq   $0x0,-0x390(%rbp)
   12dd1:	00 00 00 00 
   12dd5:	48 8d 85 a8 f9 ff ff 	lea    -0x658(%rbp),%rax
   12ddc:	48 89 85 78 fc ff ff 	mov    %rax,-0x388(%rbp)
   12de3:	48 8d 85 a8 f9 ff ff 	lea    -0x658(%rbp),%rax
   12dea:	48 89 85 80 fc ff ff 	mov    %rax,-0x380(%rbp)
   12df1:	48 8d 85 a8 f9 ff ff 	lea    -0x658(%rbp),%rax
   12df8:	48 89 85 88 fc ff ff 	mov    %rax,-0x378(%rbp)
   12dff:	48 8d 85 a8 f9 ff ff 	lea    -0x658(%rbp),%rax
   12e06:	48 89 85 90 fc ff ff 	mov    %rax,-0x370(%rbp)
   12e0d:	48 8d 85 a8 f9 ff ff 	lea    -0x658(%rbp),%rax
   12e14:	48 89 85 98 fc ff ff 	mov    %rax,-0x368(%rbp)
   12e1b:	48 8d 85 a8 f9 ff ff 	lea    -0x658(%rbp),%rax
   12e22:	48 89 85 a0 fc ff ff 	mov    %rax,-0x360(%rbp)
   12e29:	48 8d 85 a8 f9 ff ff 	lea    -0x658(%rbp),%rax
   12e30:	48 89 85 a8 fc ff ff 	mov    %rax,-0x358(%rbp)
   12e37:	48 c7 85 b0 fc ff ff 	movq   $0x0,-0x350(%rbp)
   12e3e:	00 00 00 00 
   12e42:	48 8d 85 a8 f9 ff ff 	lea    -0x658(%rbp),%rax
   12e49:	48 89 85 b8 fc ff ff 	mov    %rax,-0x348(%rbp)
   12e50:	48 8d 85 a8 f9 ff ff 	lea    -0x658(%rbp),%rax
   12e57:	48 89 85 c0 fc ff ff 	mov    %rax,-0x340(%rbp)
   12e5e:	48 8d 85 a8 f9 ff ff 	lea    -0x658(%rbp),%rax
   12e65:	48 89 85 c8 fc ff ff 	mov    %rax,-0x338(%rbp)
   12e6c:	48 c7 85 d0 fc ff ff 	movq   $0x0,-0x330(%rbp)
   12e73:	00 00 00 00 
   12e77:	48 8d 85 a8 f9 ff ff 	lea    -0x658(%rbp),%rax
   12e7e:	48 89 85 d8 fc ff ff 	mov    %rax,-0x328(%rbp)
   12e85:	48 8d 85 a8 f9 ff ff 	lea    -0x658(%rbp),%rax
   12e8c:	48 89 85 e0 fc ff ff 	mov    %rax,-0x320(%rbp)
   12e93:	48 8d 85 a8 f9 ff ff 	lea    -0x658(%rbp),%rax
   12e9a:	48 89 85 e8 fc ff ff 	mov    %rax,-0x318(%rbp)
   12ea1:	48 8d 85 a8 f9 ff ff 	lea    -0x658(%rbp),%rax
   12ea8:	48 89 85 f0 fc ff ff 	mov    %rax,-0x310(%rbp)
   12eaf:	48 8d 85 a8 f9 ff ff 	lea    -0x658(%rbp),%rax
   12eb6:	48 89 85 f8 fc ff ff 	mov    %rax,-0x308(%rbp)
   12ebd:	48 8d 85 a8 f9 ff ff 	lea    -0x658(%rbp),%rax
   12ec4:	48 89 85 00 fd ff ff 	mov    %rax,-0x300(%rbp)
   12ecb:	48 c7 85 08 fd ff ff 	movq   $0x0,-0x2f8(%rbp)
   12ed2:	00 00 00 00 
   12ed6:	48 8d 85 a8 f9 ff ff 	lea    -0x658(%rbp),%rax
   12edd:	48 89 85 10 fd ff ff 	mov    %rax,-0x2f0(%rbp)
   12ee4:	48 8d 85 a8 f9 ff ff 	lea    -0x658(%rbp),%rax
   12eeb:	48 89 85 18 fd ff ff 	mov    %rax,-0x2e8(%rbp)
   12ef2:	48 8d 85 a8 f9 ff ff 	lea    -0x658(%rbp),%rax
   12ef9:	48 89 85 20 fd ff ff 	mov    %rax,-0x2e0(%rbp)
   12f00:	48 8d 85 a8 f9 ff ff 	lea    -0x658(%rbp),%rax
   12f07:	48 89 85 28 fd ff ff 	mov    %rax,-0x2d8(%rbp)
   12f0e:	48 8d 85 a8 f9 ff ff 	lea    -0x658(%rbp),%rax
   12f15:	48 89 85 30 fd ff ff 	mov    %rax,-0x2d0(%rbp)
   12f1c:	48 8d 85 a8 f9 ff ff 	lea    -0x658(%rbp),%rax
   12f23:	48 89 85 38 fd ff ff 	mov    %rax,-0x2c8(%rbp)
   12f2a:	48 c7 85 40 fd ff ff 	movq   $0x0,-0x2c0(%rbp)
   12f31:	00 00 00 00 
   12f35:	48 8d 85 a8 f9 ff ff 	lea    -0x658(%rbp),%rax
   12f3c:	48 89 85 48 fd ff ff 	mov    %rax,-0x2b8(%rbp)
   12f43:	48 8d 85 a8 f9 ff ff 	lea    -0x658(%rbp),%rax
   12f4a:	48 89 85 50 fd ff ff 	mov    %rax,-0x2b0(%rbp)
   12f51:	48 8d 85 a8 f9 ff ff 	lea    -0x658(%rbp),%rax
   12f58:	48 89 85 58 fd ff ff 	mov    %rax,-0x2a8(%rbp)
   12f5f:	48 8d 85 a8 f9 ff ff 	lea    -0x658(%rbp),%rax
   12f66:	48 89 85 60 fd ff ff 	mov    %rax,-0x2a0(%rbp)
   12f6d:	48 8d 85 a8 f9 ff ff 	lea    -0x658(%rbp),%rax
   12f74:	48 89 85 68 fd ff ff 	mov    %rax,-0x298(%rbp)
   12f7b:	48 8d 85 a8 f9 ff ff 	lea    -0x658(%rbp),%rax
   12f82:	48 89 85 70 fd ff ff 	mov    %rax,-0x290(%rbp)
   12f89:	48 8d 85 a8 f9 ff ff 	lea    -0x658(%rbp),%rax
   12f90:	48 89 85 78 fd ff ff 	mov    %rax,-0x288(%rbp)
   12f97:	48 8d 85 a8 f9 ff ff 	lea    -0x658(%rbp),%rax
   12f9e:	48 89 85 80 fd ff ff 	mov    %rax,-0x280(%rbp)
   12fa5:	48 8d 85 a8 f9 ff ff 	lea    -0x658(%rbp),%rax
   12fac:	48 89 85 88 fd ff ff 	mov    %rax,-0x278(%rbp)
   12fb3:	48 8d 85 a8 f9 ff ff 	lea    -0x658(%rbp),%rax
   12fba:	48 89 85 90 fd ff ff 	mov    %rax,-0x270(%rbp)
   12fc1:	48 8d 85 a8 f9 ff ff 	lea    -0x658(%rbp),%rax
   12fc8:	48 89 85 98 fd ff ff 	mov    %rax,-0x268(%rbp)
   12fcf:	48 8d 85 a8 f9 ff ff 	lea    -0x658(%rbp),%rax
   12fd6:	48 89 85 a0 fd ff ff 	mov    %rax,-0x260(%rbp)
   12fdd:	48 8d 85 a8 f9 ff ff 	lea    -0x658(%rbp),%rax
   12fe4:	48 89 85 a8 fd ff ff 	mov    %rax,-0x258(%rbp)
   12feb:	48 8d 85 a8 f9 ff ff 	lea    -0x658(%rbp),%rax
   12ff2:	48 89 85 b0 fd ff ff 	mov    %rax,-0x250(%rbp)
   12ff9:	48 8d 85 a8 f9 ff ff 	lea    -0x658(%rbp),%rax
   13000:	48 89 85 b8 fd ff ff 	mov    %rax,-0x248(%rbp)
   13007:	48 c7 85 c0 fd ff ff 	movq   $0x0,-0x240(%rbp)
   1300e:	00 00 00 00 
   13012:	48 8d 85 a8 f9 ff ff 	lea    -0x658(%rbp),%rax
   13019:	48 89 85 c8 fd ff ff 	mov    %rax,-0x238(%rbp)
   13020:	48 8d 85 a8 f9 ff ff 	lea    -0x658(%rbp),%rax
   13027:	48 89 85 d0 fd ff ff 	mov    %rax,-0x230(%rbp)
   1302e:	48 8d 85 a8 f9 ff ff 	lea    -0x658(%rbp),%rax
   13035:	48 89 85 d8 fd ff ff 	mov    %rax,-0x228(%rbp)
   1303c:	48 8d 85 a8 f9 ff ff 	lea    -0x658(%rbp),%rax
   13043:	48 89 85 e0 fd ff ff 	mov    %rax,-0x220(%rbp)
   1304a:	48 8d 85 a8 f9 ff ff 	lea    -0x658(%rbp),%rax
   13051:	48 89 85 e8 fd ff ff 	mov    %rax,-0x218(%rbp)
   13058:	48 8d 85 a8 f9 ff ff 	lea    -0x658(%rbp),%rax
   1305f:	48 89 85 f0 fd ff ff 	mov    %rax,-0x210(%rbp)
   13066:	48 8d 85 a8 f9 ff ff 	lea    -0x658(%rbp),%rax
   1306d:	48 89 85 f8 fd ff ff 	mov    %rax,-0x208(%rbp)
   13074:	48 8d 85 a8 f9 ff ff 	lea    -0x658(%rbp),%rax
   1307b:	48 89 85 00 fe ff ff 	mov    %rax,-0x200(%rbp)
   13082:	48 8d 85 a8 f9 ff ff 	lea    -0x658(%rbp),%rax
   13089:	48 89 85 08 fe ff ff 	mov    %rax,-0x1f8(%rbp)
   13090:	48 8d 85 a8 f9 ff ff 	lea    -0x658(%rbp),%rax
   13097:	48 89 85 10 fe ff ff 	mov    %rax,-0x1f0(%rbp)
   1309e:	48 8d 85 a8 f9 ff ff 	lea    -0x658(%rbp),%rax
   130a5:	48 89 85 18 fe ff ff 	mov    %rax,-0x1e8(%rbp)
   130ac:	48 8d 85 a8 f9 ff ff 	lea    -0x658(%rbp),%rax
   130b3:	48 89 85 20 fe ff ff 	mov    %rax,-0x1e0(%rbp)
   130ba:	48 8d 85 a8 f9 ff ff 	lea    -0x658(%rbp),%rax
   130c1:	48 89 85 28 fe ff ff 	mov    %rax,-0x1d8(%rbp)
   130c8:	48 8d 85 a8 f9 ff ff 	lea    -0x658(%rbp),%rax
   130cf:	48 89 85 30 fe ff ff 	mov    %rax,-0x1d0(%rbp)
   130d6:	48 8d 85 a8 f9 ff ff 	lea    -0x658(%rbp),%rax
   130dd:	48 89 85 38 fe ff ff 	mov    %rax,-0x1c8(%rbp)
   130e4:	48 8d 85 a8 f9 ff ff 	lea    -0x658(%rbp),%rax
   130eb:	48 89 85 40 fe ff ff 	mov    %rax,-0x1c0(%rbp)
   130f2:	48 c7 85 48 fe ff ff 	movq   $0x0,-0x1b8(%rbp)
   130f9:	00 00 00 00 
   130fd:	48 8d 85 a8 f9 ff ff 	lea    -0x658(%rbp),%rax
   13104:	48 89 85 50 fe ff ff 	mov    %rax,-0x1b0(%rbp)
   1310b:	48 8d 85 a8 f9 ff ff 	lea    -0x658(%rbp),%rax
   13112:	48 89 85 58 fe ff ff 	mov    %rax,-0x1a8(%rbp)
   13119:	48 8d 85 a8 f9 ff ff 	lea    -0x658(%rbp),%rax
   13120:	48 89 85 60 fe ff ff 	mov    %rax,-0x1a0(%rbp)
   13127:	48 8d 85 a8 f9 ff ff 	lea    -0x658(%rbp),%rax
   1312e:	48 89 85 68 fe ff ff 	mov    %rax,-0x198(%rbp)
   13135:	48 8d 85 a8 f9 ff ff 	lea    -0x658(%rbp),%rax
   1313c:	48 89 85 70 fe ff ff 	mov    %rax,-0x190(%rbp)
   13143:	48 8d 85 a8 f9 ff ff 	lea    -0x658(%rbp),%rax
   1314a:	48 89 85 78 fe ff ff 	mov    %rax,-0x188(%rbp)
   13151:	48 8d 85 a8 f9 ff ff 	lea    -0x658(%rbp),%rax
   13158:	48 89 85 80 fe ff ff 	mov    %rax,-0x180(%rbp)
   1315f:	48 8d 85 a8 f9 ff ff 	lea    -0x658(%rbp),%rax
   13166:	48 89 85 88 fe ff ff 	mov    %rax,-0x178(%rbp)
   1316d:	48 8d 85 a8 f9 ff ff 	lea    -0x658(%rbp),%rax
   13174:	48 89 85 90 fe ff ff 	mov    %rax,-0x170(%rbp)
   1317b:	48 8d 85 a8 f9 ff ff 	lea    -0x658(%rbp),%rax
   13182:	48 89 85 98 fe ff ff 	mov    %rax,-0x168(%rbp)
   13189:	48 c7 85 a0 fe ff ff 	movq   $0x0,-0x160(%rbp)
   13190:	00 00 00 00 
   13194:	48 8d 85 a8 f9 ff ff 	lea    -0x658(%rbp),%rax
   1319b:	48 89 85 a8 fe ff ff 	mov    %rax,-0x158(%rbp)
   131a2:	48 8d 85 a8 f9 ff ff 	lea    -0x658(%rbp),%rax
   131a9:	48 89 85 b0 fe ff ff 	mov    %rax,-0x150(%rbp)
   131b0:	48 8d 85 a8 f9 ff ff 	lea    -0x658(%rbp),%rax
   131b7:	48 89 85 b8 fe ff ff 	mov    %rax,-0x148(%rbp)
   131be:	48 8d 85 a8 f9 ff ff 	lea    -0x658(%rbp),%rax
   131c5:	48 89 85 c0 fe ff ff 	mov    %rax,-0x140(%rbp)
   131cc:	48 8d 85 a8 f9 ff ff 	lea    -0x658(%rbp),%rax
   131d3:	48 89 85 c8 fe ff ff 	mov    %rax,-0x138(%rbp)
   131da:	48 c7 85 d0 fe ff ff 	movq   $0x0,-0x130(%rbp)
   131e1:	00 00 00 00 
   131e5:	48 8d 85 a8 f9 ff ff 	lea    -0x658(%rbp),%rax
   131ec:	48 89 85 d8 fe ff ff 	mov    %rax,-0x128(%rbp)
   131f3:	48 c7 85 e0 fe ff ff 	movq   $0x0,-0x120(%rbp)
   131fa:	00 00 00 00 
   131fe:	48 8d 85 a8 f9 ff ff 	lea    -0x658(%rbp),%rax
   13205:	48 89 85 e8 fe ff ff 	mov    %rax,-0x118(%rbp)
   1320c:	48 c7 85 f0 fe ff ff 	movq   $0x0,-0x110(%rbp)
   13213:	00 00 00 00 
   13217:	48 8d 85 a8 f9 ff ff 	lea    -0x658(%rbp),%rax
   1321e:	48 89 85 f8 fe ff ff 	mov    %rax,-0x108(%rbp)
   13225:	48 8d 85 a8 f9 ff ff 	lea    -0x658(%rbp),%rax
   1322c:	48 89 85 00 ff ff ff 	mov    %rax,-0x100(%rbp)
   13233:	48 8d 85 a8 f9 ff ff 	lea    -0x658(%rbp),%rax
   1323a:	48 89 85 08 ff ff ff 	mov    %rax,-0xf8(%rbp)
   13241:	48 8d 85 a8 f9 ff ff 	lea    -0x658(%rbp),%rax
   13248:	48 89 85 10 ff ff ff 	mov    %rax,-0xf0(%rbp)
   1324f:	48 8d 85 a8 f9 ff ff 	lea    -0x658(%rbp),%rax
   13256:	48 89 85 18 ff ff ff 	mov    %rax,-0xe8(%rbp)
   1325d:	48 8d 85 a8 f9 ff ff 	lea    -0x658(%rbp),%rax
   13264:	48 89 85 20 ff ff ff 	mov    %rax,-0xe0(%rbp)
   1326b:	48 8d 85 a8 f9 ff ff 	lea    -0x658(%rbp),%rax
   13272:	48 89 85 28 ff ff ff 	mov    %rax,-0xd8(%rbp)
   13279:	48 c7 85 30 ff ff ff 	movq   $0x0,-0xd0(%rbp)
   13280:	00 00 00 00 
   13284:	48 8d 85 a8 f9 ff ff 	lea    -0x658(%rbp),%rax
   1328b:	48 89 85 38 ff ff ff 	mov    %rax,-0xc8(%rbp)
   13292:	48 8d 85 a8 f9 ff ff 	lea    -0x658(%rbp),%rax
   13299:	48 89 85 40 ff ff ff 	mov    %rax,-0xc0(%rbp)
   132a0:	48 8d 85 a8 f9 ff ff 	lea    -0x658(%rbp),%rax
   132a7:	48 89 85 48 ff ff ff 	mov    %rax,-0xb8(%rbp)
   132ae:	48 c7 85 50 ff ff ff 	movq   $0x0,-0xb0(%rbp)
   132b5:	00 00 00 00 
   132b9:	48 8d 85 a8 f9 ff ff 	lea    -0x658(%rbp),%rax
   132c0:	48 89 85 58 ff ff ff 	mov    %rax,-0xa8(%rbp)
   132c7:	48 8d 85 a8 f9 ff ff 	lea    -0x658(%rbp),%rax
   132ce:	48 89 85 60 ff ff ff 	mov    %rax,-0xa0(%rbp)
   132d5:	48 8d 85 a8 f9 ff ff 	lea    -0x658(%rbp),%rax
   132dc:	48 89 85 68 ff ff ff 	mov    %rax,-0x98(%rbp)
   132e3:	48 8d 85 a8 f9 ff ff 	lea    -0x658(%rbp),%rax
   132ea:	48 89 85 70 ff ff ff 	mov    %rax,-0x90(%rbp)
   132f1:	48 8d 85 a8 f9 ff ff 	lea    -0x658(%rbp),%rax
   132f8:	48 89 85 78 ff ff ff 	mov    %rax,-0x88(%rbp)
   132ff:	48 8d 85 a8 f9 ff ff 	lea    -0x658(%rbp),%rax
   13306:	48 89 45 80          	mov    %rax,-0x80(%rbp)
   1330a:	48 c7 45 88 00 00 00 	movq   $0x0,-0x78(%rbp)
   13311:	00 
   13312:	48 8d 85 a8 f9 ff ff 	lea    -0x658(%rbp),%rax
   13319:	48 89 45 90          	mov    %rax,-0x70(%rbp)
   1331d:	48 8d 85 a8 f9 ff ff 	lea    -0x658(%rbp),%rax
   13324:	48 89 45 98          	mov    %rax,-0x68(%rbp)
   13328:	48 8d 85 a8 f9 ff ff 	lea    -0x658(%rbp),%rax
   1332f:	48 89 45 a0          	mov    %rax,-0x60(%rbp)
   13333:	48 8d 85 a8 f9 ff ff 	lea    -0x658(%rbp),%rax
   1333a:	48 89 45 a8          	mov    %rax,-0x58(%rbp)
   1333e:	48 8d 85 a8 f9 ff ff 	lea    -0x658(%rbp),%rax
   13345:	48 89 45 b0          	mov    %rax,-0x50(%rbp)
   13349:	48 8d 85 a8 f9 ff ff 	lea    -0x658(%rbp),%rax
   13350:	48 89 45 b8          	mov    %rax,-0x48(%rbp)
   13354:	48 c7 45 c0 00 00 00 	movq   $0x0,-0x40(%rbp)
   1335b:	00 
   1335c:	48 8d 85 a8 f9 ff ff 	lea    -0x658(%rbp),%rax
   13363:	48 89 45 c8          	mov    %rax,-0x38(%rbp)
   13367:	48 8d 85 a8 f9 ff ff 	lea    -0x658(%rbp),%rax
   1336e:	48 89 45 d0          	mov    %rax,-0x30(%rbp)
   13372:	48 8d 85 a8 f9 ff ff 	lea    -0x658(%rbp),%rax
   13379:	48 89 45 d8          	mov    %rax,-0x28(%rbp)
   1337d:	48 8d 85 a8 f9 ff ff 	lea    -0x658(%rbp),%rax
   13384:	48 89 45 e0          	mov    %rax,-0x20(%rbp)
   13388:	48 8d 85 a8 f9 ff ff 	lea    -0x658(%rbp),%rax
   1338f:	48 89 45 e8          	mov    %rax,-0x18(%rbp)
   13393:	48 8d 05 ce 93 00 00 	lea    0x93ce(%rip),%rax        # 1c768 <g_4>
   1339a:	48 89 05 7f 83 00 00 	mov    %rax,0x837f(%rip)        # 1b720 <g_85>
   133a1:	0f bf 85 9c f9 ff ff 	movswl -0x664(%rbp),%eax
   133a8:	48 8b 55 f8          	mov    -0x8(%rbp),%rdx
   133ac:	64 48 33 14 25 28 00 	xor    %fs:0x28,%rdx
   133b3:	00 00 
   133b5:	74 05                	je     133bc <func_66+0xaee>
   133b7:	e8 b4 2c ff ff       	callq  6070 <__stack_chk_fail@plt>
   133bc:	c9                   	leaveq 
   133bd:	c3                   	retq   

00000000000133be <func_72>:
   133be:	f3 0f 1e fa          	endbr64 
   133c2:	55                   	push   %rbp
   133c3:	48 89 e5             	mov    %rsp,%rbp
   133c6:	48 89 7d e8          	mov    %rdi,-0x18(%rbp)
   133ca:	89 75 e4             	mov    %esi,-0x1c(%rbp)
   133cd:	89 55 e0             	mov    %edx,-0x20(%rbp)
   133d0:	48 8d 05 91 93 00 00 	lea    0x9391(%rip),%rax        # 1c768 <g_4>
   133d7:	48 89 45 f8          	mov    %rax,-0x8(%rbp)
   133db:	48 8b 45 f8          	mov    -0x8(%rbp),%rax
   133df:	5d                   	pop    %rbp
   133e0:	c3                   	retq   

00000000000133e1 <main>:
   133e1:	f3 0f 1e fa          	endbr64 
   133e5:	55                   	push   %rbp
   133e6:	48 89 e5             	mov    %rsp,%rbp
   133e9:	48 83 ec 20          	sub    $0x20,%rsp
   133ed:	89 7d ec             	mov    %edi,-0x14(%rbp)
   133f0:	48 89 75 e0          	mov    %rsi,-0x20(%rbp)
   133f4:	c7 45 fc 00 00 00 00 	movl   $0x0,-0x4(%rbp)
   133fb:	83 7d ec 02          	cmpl   $0x2,-0x14(%rbp)
   133ff:	74 25                	je     13426 <main+0x45>
   13401:	48 8b 45 e0          	mov    -0x20(%rbp),%rax
   13405:	48 83 c0 08          	add    $0x8,%rax
   13409:	48 8b 00             	mov    (%rax),%rax
   1340c:	48 8d 35 8d 31 00 00 	lea    0x318d(%rip),%rsi        # 165a0 <g_1428+0x154b>
   13413:	48 89 c7             	mov    %rax,%rdi
   13416:	e8 75 2c ff ff       	callq  6090 <strcmp@plt>
   1341b:	85 c0                	test   %eax,%eax
   1341d:	74 07                	je     13426 <main+0x45>
   1341f:	c7 45 fc 01 00 00 00 	movl   $0x1,-0x4(%rbp)
   13426:	e8 5e 2d ff ff       	callq  6189 <platform_main_begin>
   1342b:	e8 68 41 ff ff       	callq  7598 <crc32_gentab>
   13430:	e8 80 43 ff ff       	callq  77b5 <func_1>
   13435:	8b 05 2d 93 00 00    	mov    0x932d(%rip),%eax        # 1c768 <g_4>
   1343b:	48 98                	cltq   
   1343d:	8b 55 fc             	mov    -0x4(%rbp),%edx
   13440:	48 8d 35 5b 31 00 00 	lea    0x315b(%rip),%rsi        # 165a2 <g_1428+0x154d>
   13447:	48 89 c7             	mov    %rax,%rdi
   1344a:	e8 a4 42 ff ff       	callq  76f3 <transparent_crc>
   1344f:	8b 05 cf 6b 00 00    	mov    0x6bcf(%rip),%eax        # 1a024 <g_5>
   13455:	48 98                	cltq   
   13457:	8b 55 fc             	mov    -0x4(%rbp),%edx
   1345a:	48 8d 35 45 31 00 00 	lea    0x3145(%rip),%rsi        # 165a6 <g_1428+0x1551>
   13461:	48 89 c7             	mov    %rax,%rdi
   13464:	e8 8a 42 ff ff       	callq  76f3 <transparent_crc>
   13469:	48 8b 05 b8 6b 00 00 	mov    0x6bb8(%rip),%rax        # 1a028 <g_7>
   13470:	48 89 c1             	mov    %rax,%rcx
   13473:	8b 45 fc             	mov    -0x4(%rbp),%eax
   13476:	89 c2                	mov    %eax,%edx
   13478:	48 8d 35 2b 31 00 00 	lea    0x312b(%rip),%rsi        # 165aa <g_1428+0x1555>
   1347f:	48 89 cf             	mov    %rcx,%rdi
   13482:	e8 6c 42 ff ff       	callq  76f3 <transparent_crc>
   13487:	c7 45 f0 00 00 00 00 	movl   $0x0,-0x10(%rbp)
   1348e:	eb 77                	jmp    13507 <main+0x126>
   13490:	c7 45 f4 00 00 00 00 	movl   $0x0,-0xc(%rbp)
   13497:	eb 64                	jmp    134fd <main+0x11c>
   13499:	8b 45 f4             	mov    -0xc(%rbp),%eax
   1349c:	48 63 c8             	movslq %eax,%rcx
   1349f:	8b 45 f0             	mov    -0x10(%rbp),%eax
   134a2:	48 63 d0             	movslq %eax,%rdx
   134a5:	48 89 d0             	mov    %rdx,%rax
   134a8:	48 c1 e0 02          	shl    $0x2,%rax
   134ac:	48 01 d0             	add    %rdx,%rax
   134af:	48 01 c8             	add    %rcx,%rax
   134b2:	48 8d 14 85 00 00 00 	lea    0x0(,%rax,4),%rdx
   134b9:	00 
   134ba:	48 8d 05 7f 6b 00 00 	lea    0x6b7f(%rip),%rax        # 1a040 <g_10>
   134c1:	8b 04 02             	mov    (%rdx,%rax,1),%eax
   134c4:	89 c1                	mov    %eax,%ecx
   134c6:	8b 45 fc             	mov    -0x4(%rbp),%eax
   134c9:	89 c2                	mov    %eax,%edx
   134cb:	48 8d 35 dc 30 00 00 	lea    0x30dc(%rip),%rsi        # 165ae <g_1428+0x1559>
   134d2:	48 89 cf             	mov    %rcx,%rdi
   134d5:	e8 19 42 ff ff       	callq  76f3 <transparent_crc>
   134da:	83 7d fc 00          	cmpl   $0x0,-0x4(%rbp)
   134de:	74 19                	je     134f9 <main+0x118>
   134e0:	8b 55 f4             	mov    -0xc(%rbp),%edx
   134e3:	8b 45 f0             	mov    -0x10(%rbp),%eax
   134e6:	89 c6                	mov    %eax,%esi
   134e8:	48 8d 3d ca 30 00 00 	lea    0x30ca(%rip),%rdi        # 165b9 <g_1428+0x1564>
   134ef:	b8 00 00 00 00       	mov    $0x0,%eax
   134f4:	e8 87 2b ff ff       	callq  6080 <printf@plt>
   134f9:	83 45 f4 01          	addl   $0x1,-0xc(%rbp)
   134fd:	83 7d f4 04          	cmpl   $0x4,-0xc(%rbp)
   13501:	7e 96                	jle    13499 <main+0xb8>
   13503:	83 45 f0 01          	addl   $0x1,-0x10(%rbp)
   13507:	83 7d f0 04          	cmpl   $0x4,-0x10(%rbp)
   1350b:	7e 83                	jle    13490 <main+0xaf>
   1350d:	0f b6 05 90 6b 00 00 	movzbl 0x6b90(%rip),%eax        # 1a0a4 <g_21>
   13514:	0f b6 c0             	movzbl %al,%eax
   13517:	8b 55 fc             	mov    -0x4(%rbp),%edx
   1351a:	48 8d 35 aa 30 00 00 	lea    0x30aa(%rip),%rsi        # 165cb <g_1428+0x1576>
   13521:	48 89 c7             	mov    %rax,%rdi
   13524:	e8 ca 41 ff ff       	callq  76f3 <transparent_crc>
   13529:	8b 05 79 6b 00 00    	mov    0x6b79(%rip),%eax        # 1a0a8 <g_60>
   1352f:	89 c1                	mov    %eax,%ecx
   13531:	8b 45 fc             	mov    -0x4(%rbp),%eax
   13534:	89 c2                	mov    %eax,%edx
   13536:	48 8d 35 93 30 00 00 	lea    0x3093(%rip),%rsi        # 165d0 <g_1428+0x157b>
   1353d:	48 89 cf             	mov    %rcx,%rdi
   13540:	e8 ae 41 ff ff       	callq  76f3 <transparent_crc>
   13545:	0f b6 05 60 6b 00 00 	movzbl 0x6b60(%rip),%eax        # 1a0ac <g_77>
   1354c:	0f b6 c0             	movzbl %al,%eax
   1354f:	8b 55 fc             	mov    -0x4(%rbp),%edx
   13552:	48 8d 35 7c 30 00 00 	lea    0x307c(%rip),%rsi        # 165d5 <g_1428+0x1580>
   13559:	48 89 c7             	mov    %rax,%rdi
   1355c:	e8 92 41 ff ff       	callq  76f3 <transparent_crc>
   13561:	c7 45 f0 00 00 00 00 	movl   $0x0,-0x10(%rbp)
   13568:	eb 4b                	jmp    135b5 <main+0x1d4>
   1356a:	8b 45 f0             	mov    -0x10(%rbp),%eax
   1356d:	48 98                	cltq   
   1356f:	48 8d 14 85 00 00 00 	lea    0x0(,%rax,4),%rdx
   13576:	00 
   13577:	48 8d 05 32 6b 00 00 	lea    0x6b32(%rip),%rax        # 1a0b0 <g_86>
   1357e:	8b 04 02             	mov    (%rdx,%rax,1),%eax
   13581:	48 98                	cltq   
   13583:	8b 55 fc             	mov    -0x4(%rbp),%edx
   13586:	48 8d 35 4d 30 00 00 	lea    0x304d(%rip),%rsi        # 165da <g_1428+0x1585>
   1358d:	48 89 c7             	mov    %rax,%rdi
   13590:	e8 5e 41 ff ff       	callq  76f3 <transparent_crc>
   13595:	83 7d fc 00          	cmpl   $0x0,-0x4(%rbp)
   13599:	74 16                	je     135b1 <main+0x1d0>
   1359b:	8b 45 f0             	mov    -0x10(%rbp),%eax
   1359e:	89 c6                	mov    %eax,%esi
   135a0:	48 8d 3d 3b 30 00 00 	lea    0x303b(%rip),%rdi        # 165e2 <g_1428+0x158d>
   135a7:	b8 00 00 00 00       	mov    $0x0,%eax
   135ac:	e8 cf 2a ff ff       	callq  6080 <printf@plt>
   135b1:	83 45 f0 01          	addl   $0x1,-0x10(%rbp)
   135b5:	83 7d f0 05          	cmpl   $0x5,-0x10(%rbp)
   135b9:	7e af                	jle    1356a <main+0x189>
   135bb:	0f b7 05 06 6b 00 00 	movzwl 0x6b06(%rip),%eax        # 1a0c8 <g_152>
   135c2:	0f b7 c0             	movzwl %ax,%eax
   135c5:	8b 55 fc             	mov    -0x4(%rbp),%edx
   135c8:	48 8d 35 21 30 00 00 	lea    0x3021(%rip),%rsi        # 165f0 <g_1428+0x159b>
   135cf:	48 89 c7             	mov    %rax,%rdi
   135d2:	e8 1c 41 ff ff       	callq  76f3 <transparent_crc>
   135d7:	8b 05 8f 91 00 00    	mov    0x918f(%rip),%eax        # 1c76c <g_160>
   135dd:	89 c1                	mov    %eax,%ecx
   135df:	8b 45 fc             	mov    -0x4(%rbp),%eax
   135e2:	89 c2                	mov    %eax,%edx
   135e4:	48 8d 35 0b 30 00 00 	lea    0x300b(%rip),%rsi        # 165f6 <g_1428+0x15a1>
   135eb:	48 89 cf             	mov    %rcx,%rdi
   135ee:	e8 00 41 ff ff       	callq  76f3 <transparent_crc>
   135f3:	0f b6 05 d0 6a 00 00 	movzbl 0x6ad0(%rip),%eax        # 1a0ca <g_162>
   135fa:	0f b6 c0             	movzbl %al,%eax
   135fd:	8b 55 fc             	mov    -0x4(%rbp),%edx
   13600:	48 8d 35 f5 2f 00 00 	lea    0x2ff5(%rip),%rsi        # 165fc <g_1428+0x15a7>
   13607:	48 89 c7             	mov    %rax,%rdi
   1360a:	e8 e4 40 ff ff       	callq  76f3 <transparent_crc>
   1360f:	c7 45 f0 00 00 00 00 	movl   $0x0,-0x10(%rbp)
   13616:	eb 4f                	jmp    13667 <main+0x286>
   13618:	8b 45 f0             	mov    -0x10(%rbp),%eax
   1361b:	48 98                	cltq   
   1361d:	48 8d 14 c5 00 00 00 	lea    0x0(,%rax,8),%rdx
   13624:	00 
   13625:	48 8d 05 b4 6a 00 00 	lea    0x6ab4(%rip),%rax        # 1a0e0 <g_171>
   1362c:	48 8b 04 02          	mov    (%rdx,%rax,1),%rax
   13630:	48 89 c1             	mov    %rax,%rcx
   13633:	8b 45 fc             	mov    -0x4(%rbp),%eax
   13636:	89 c2                	mov    %eax,%edx
   13638:	48 8d 35 c3 2f 00 00 	lea    0x2fc3(%rip),%rsi        # 16602 <g_1428+0x15ad>
   1363f:	48 89 cf             	mov    %rcx,%rdi
   13642:	e8 ac 40 ff ff       	callq  76f3 <transparent_crc>
   13647:	83 7d fc 00          	cmpl   $0x0,-0x4(%rbp)
   1364b:	74 16                	je     13663 <main+0x282>
   1364d:	8b 45 f0             	mov    -0x10(%rbp),%eax
   13650:	89 c6                	mov    %eax,%esi
   13652:	48 8d 3d 89 2f 00 00 	lea    0x2f89(%rip),%rdi        # 165e2 <g_1428+0x158d>
   13659:	b8 00 00 00 00       	mov    $0x0,%eax
   1365e:	e8 1d 2a ff ff       	callq  6080 <printf@plt>
   13663:	83 45 f0 01          	addl   $0x1,-0x10(%rbp)
   13667:	83 7d f0 06          	cmpl   $0x6,-0x10(%rbp)
   1366b:	7e ab                	jle    13618 <main+0x237>
   1366d:	0f b7 05 fc 90 00 00 	movzwl 0x90fc(%rip),%eax        # 1c770 <g_209>
   13674:	48 0f bf c0          	movswq %ax,%rax
   13678:	8b 55 fc             	mov    -0x4(%rbp),%edx
   1367b:	48 8d 35 89 2f 00 00 	lea    0x2f89(%rip),%rsi        # 1660b <g_1428+0x15b6>
   13682:	48 89 c7             	mov    %rax,%rdi
   13685:	e8 69 40 ff ff       	callq  76f3 <transparent_crc>
   1368a:	8b 05 88 6a 00 00    	mov    0x6a88(%rip),%eax        # 1a118 <g_232>
   13690:	89 c1                	mov    %eax,%ecx
   13692:	8b 45 fc             	mov    -0x4(%rbp),%eax
   13695:	89 c2                	mov    %eax,%edx
   13697:	48 8d 35 73 2f 00 00 	lea    0x2f73(%rip),%rsi        # 16611 <g_1428+0x15bc>
   1369e:	48 89 cf             	mov    %rcx,%rdi
   136a1:	e8 4d 40 ff ff       	callq  76f3 <transparent_crc>
   136a6:	8b 05 70 6a 00 00    	mov    0x6a70(%rip),%eax        # 1a11c <g_235>
   136ac:	48 98                	cltq   
   136ae:	8b 55 fc             	mov    -0x4(%rbp),%edx
   136b1:	48 8d 35 5f 2f 00 00 	lea    0x2f5f(%rip),%rsi        # 16617 <g_1428+0x15c2>
   136b8:	48 89 c7             	mov    %rax,%rdi
   136bb:	e8 33 40 ff ff       	callq  76f3 <transparent_crc>
   136c0:	8b 05 56 6a 00 00    	mov    0x6a56(%rip),%eax        # 1a11c <g_235>
   136c6:	c1 e0 04             	shl    $0x4,%eax
   136c9:	66 c1 f8 04          	sar    $0x4,%ax
   136cd:	48 0f bf c0          	movswq %ax,%rax
   136d1:	8b 55 fc             	mov    -0x4(%rbp),%edx
   136d4:	48 8d 35 45 2f 00 00 	lea    0x2f45(%rip),%rsi        # 16620 <g_1428+0x15cb>
   136db:	48 89 c7             	mov    %rax,%rdi
   136de:	e8 10 40 ff ff       	callq  76f3 <transparent_crc>
   136e3:	8b 05 33 6a 00 00    	mov    0x6a33(%rip),%eax        # 1a11c <g_235>
   136e9:	89 c1                	mov    %eax,%ecx
   136eb:	8b 45 fc             	mov    -0x4(%rbp),%eax
   136ee:	89 c2                	mov    %eax,%edx
   136f0:	48 8d 35 32 2f 00 00 	lea    0x2f32(%rip),%rsi        # 16629 <g_1428+0x15d4>
   136f7:	48 89 cf             	mov    %rcx,%rdi
   136fa:	e8 f4 3f ff ff       	callq  76f3 <transparent_crc>
   136ff:	8b 05 1b 6a 00 00    	mov    0x6a1b(%rip),%eax        # 1a120 <g_244>
   13705:	48 98                	cltq   
   13707:	8b 55 fc             	mov    -0x4(%rbp),%edx
   1370a:	48 8d 35 21 2f 00 00 	lea    0x2f21(%rip),%rsi        # 16632 <g_1428+0x15dd>
   13711:	48 89 c7             	mov    %rax,%rdi
   13714:	e8 da 3f ff ff       	callq  76f3 <transparent_crc>
   13719:	8b 05 01 6a 00 00    	mov    0x6a01(%rip),%eax        # 1a120 <g_244>
   1371f:	c1 e0 04             	shl    $0x4,%eax
   13722:	66 c1 f8 04          	sar    $0x4,%ax
   13726:	48 0f bf c0          	movswq %ax,%rax
   1372a:	8b 55 fc             	mov    -0x4(%rbp),%edx
   1372d:	48 8d 35 07 2f 00 00 	lea    0x2f07(%rip),%rsi        # 1663b <g_1428+0x15e6>
   13734:	48 89 c7             	mov    %rax,%rdi
   13737:	e8 b7 3f ff ff       	callq  76f3 <transparent_crc>
   1373c:	8b 05 de 69 00 00    	mov    0x69de(%rip),%eax        # 1a120 <g_244>
   13742:	89 c1                	mov    %eax,%ecx
   13744:	8b 45 fc             	mov    -0x4(%rbp),%eax
   13747:	89 c2                	mov    %eax,%edx
   13749:	48 8d 35 f4 2e 00 00 	lea    0x2ef4(%rip),%rsi        # 16644 <g_1428+0x15ef>
   13750:	48 89 cf             	mov    %rcx,%rdi
   13753:	e8 9b 3f ff ff       	callq  76f3 <transparent_crc>
   13758:	c7 45 f0 00 00 00 00 	movl   $0x0,-0x10(%rbp)
   1375f:	e9 67 01 00 00       	jmpq   138cb <main+0x4ea>
   13764:	c7 45 f4 00 00 00 00 	movl   $0x0,-0xc(%rbp)
   1376b:	e9 4d 01 00 00       	jmpq   138bd <main+0x4dc>
   13770:	c7 45 f8 00 00 00 00 	movl   $0x0,-0x8(%rbp)
   13777:	e9 33 01 00 00       	jmpq   138af <main+0x4ce>
   1377c:	8b 45 f8             	mov    -0x8(%rbp),%eax
   1377f:	48 63 f0             	movslq %eax,%rsi
   13782:	8b 45 f0             	mov    -0x10(%rbp),%eax
   13785:	48 63 d0             	movslq %eax,%rdx
   13788:	8b 45 f4             	mov    -0xc(%rbp),%eax
   1378b:	48 63 c8             	movslq %eax,%rcx
   1378e:	48 89 d0             	mov    %rdx,%rax
   13791:	48 c1 e0 02          	shl    $0x2,%rax
   13795:	48 01 d0             	add    %rdx,%rax
   13798:	48 c1 e0 03          	shl    $0x3,%rax
   1379c:	48 89 ca             	mov    %rcx,%rdx
   1379f:	48 c1 e2 02          	shl    $0x2,%rdx
   137a3:	48 01 ca             	add    %rcx,%rdx
   137a6:	48 01 d0             	add    %rdx,%rax
   137a9:	48 01 f0             	add    %rsi,%rax
   137ac:	48 8d 14 85 00 00 00 	lea    0x0(,%rax,4),%rdx
   137b3:	00 
   137b4:	48 8d 05 85 69 00 00 	lea    0x6985(%rip),%rax        # 1a140 <g_248>
   137bb:	8b 04 02             	mov    (%rdx,%rax,1),%eax
   137be:	48 98                	cltq   
   137c0:	8b 55 fc             	mov    -0x4(%rbp),%edx
   137c3:	48 8d 35 83 2e 00 00 	lea    0x2e83(%rip),%rsi        # 1664d <g_1428+0x15f8>
   137ca:	48 89 c7             	mov    %rax,%rdi
   137cd:	e8 21 3f ff ff       	callq  76f3 <transparent_crc>
   137d2:	8b 45 f8             	mov    -0x8(%rbp),%eax
   137d5:	48 63 f0             	movslq %eax,%rsi
   137d8:	8b 45 f0             	mov    -0x10(%rbp),%eax
   137db:	48 63 d0             	movslq %eax,%rdx
   137de:	8b 45 f4             	mov    -0xc(%rbp),%eax
   137e1:	48 63 c8             	movslq %eax,%rcx
   137e4:	48 89 d0             	mov    %rdx,%rax
   137e7:	48 c1 e0 02          	shl    $0x2,%rax
   137eb:	48 01 d0             	add    %rdx,%rax
   137ee:	48 c1 e0 03          	shl    $0x3,%rax
   137f2:	48 89 ca             	mov    %rcx,%rdx
   137f5:	48 c1 e2 02          	shl    $0x2,%rdx
   137f9:	48 01 ca             	add    %rcx,%rdx
   137fc:	48 01 d0             	add    %rdx,%rax
   137ff:	48 01 f0             	add    %rsi,%rax
   13802:	48 8d 14 85 00 00 00 	lea    0x0(,%rax,4),%rdx
   13809:	00 
   1380a:	48 8d 05 2f 69 00 00 	lea    0x692f(%rip),%rax        # 1a140 <g_248>
   13811:	8b 04 02             	mov    (%rdx,%rax,1),%eax
   13814:	c1 e0 04             	shl    $0x4,%eax
   13817:	66 c1 f8 04          	sar    $0x4,%ax
   1381b:	48 0f bf c0          	movswq %ax,%rax
   1381f:	8b 55 fc             	mov    -0x4(%rbp),%edx
   13822:	48 8d 35 36 2e 00 00 	lea    0x2e36(%rip),%rsi        # 1665f <g_1428+0x160a>
   13829:	48 89 c7             	mov    %rax,%rdi
   1382c:	e8 c2 3e ff ff       	callq  76f3 <transparent_crc>
   13831:	8b 45 f8             	mov    -0x8(%rbp),%eax
   13834:	48 63 f0             	movslq %eax,%rsi
   13837:	8b 45 f0             	mov    -0x10(%rbp),%eax
   1383a:	48 63 d0             	movslq %eax,%rdx
   1383d:	8b 45 f4             	mov    -0xc(%rbp),%eax
   13840:	48 63 c8             	movslq %eax,%rcx
   13843:	48 89 d0             	mov    %rdx,%rax
   13846:	48 c1 e0 02          	shl    $0x2,%rax
   1384a:	48 01 d0             	add    %rdx,%rax
   1384d:	48 c1 e0 03          	shl    $0x3,%rax
   13851:	48 89 ca             	mov    %rcx,%rdx
   13854:	48 c1 e2 02          	shl    $0x2,%rdx
   13858:	48 01 ca             	add    %rcx,%rdx
   1385b:	48 01 d0             	add    %rdx,%rax
   1385e:	48 01 f0             	add    %rsi,%rax
   13861:	48 8d 14 85 00 00 00 	lea    0x0(,%rax,4),%rdx
   13868:	00 
   13869:	48 8d 05 d0 68 00 00 	lea    0x68d0(%rip),%rax        # 1a140 <g_248>
   13870:	8b 04 02             	mov    (%rdx,%rax,1),%eax
   13873:	89 c1                	mov    %eax,%ecx
   13875:	8b 45 fc             	mov    -0x4(%rbp),%eax
   13878:	89 c2                	mov    %eax,%edx
   1387a:	48 8d 35 f0 2d 00 00 	lea    0x2df0(%rip),%rsi        # 16671 <g_1428+0x161c>
   13881:	48 89 cf             	mov    %rcx,%rdi
   13884:	e8 6a 3e ff ff       	callq  76f3 <transparent_crc>
   13889:	83 7d fc 00          	cmpl   $0x0,-0x4(%rbp)
   1388d:	74 1c                	je     138ab <main+0x4ca>
   1388f:	8b 4d f8             	mov    -0x8(%rbp),%ecx
   13892:	8b 55 f4             	mov    -0xc(%rbp),%edx
   13895:	8b 45 f0             	mov    -0x10(%rbp),%eax
   13898:	89 c6                	mov    %eax,%esi
   1389a:	48 8d 3d e2 2d 00 00 	lea    0x2de2(%rip),%rdi        # 16683 <g_1428+0x162e>
   138a1:	b8 00 00 00 00       	mov    $0x0,%eax
   138a6:	e8 d5 27 ff ff       	callq  6080 <printf@plt>
   138ab:	83 45 f8 01          	addl   $0x1,-0x8(%rbp)
   138af:	83 7d f8 04          	cmpl   $0x4,-0x8(%rbp)
   138b3:	0f 8e c3 fe ff ff    	jle    1377c <main+0x39b>
   138b9:	83 45 f4 01          	addl   $0x1,-0xc(%rbp)
   138bd:	83 7d f4 07          	cmpl   $0x7,-0xc(%rbp)
   138c1:	0f 8e a9 fe ff ff    	jle    13770 <main+0x38f>
   138c7:	83 45 f0 01          	addl   $0x1,-0x10(%rbp)
   138cb:	83 7d f0 02          	cmpl   $0x2,-0x10(%rbp)
   138cf:	0f 8e 8f fe ff ff    	jle    13764 <main+0x383>
   138d5:	0f b7 05 44 6a 00 00 	movzwl 0x6a44(%rip),%eax        # 1a320 <g_251>
   138dc:	0f b7 c0             	movzwl %ax,%eax
   138df:	8b 55 fc             	mov    -0x4(%rbp),%edx
   138e2:	48 8d 35 b0 2d 00 00 	lea    0x2db0(%rip),%rsi        # 16699 <g_1428+0x1644>
   138e9:	48 89 c7             	mov    %rax,%rdi
   138ec:	e8 02 3e ff ff       	callq  76f3 <transparent_crc>
   138f1:	48 8b 05 30 6a 00 00 	mov    0x6a30(%rip),%rax        # 1a328 <g_395>
   138f8:	8b 55 fc             	mov    -0x4(%rbp),%edx
   138fb:	48 8d 35 9d 2d 00 00 	lea    0x2d9d(%rip),%rsi        # 1669f <g_1428+0x164a>
   13902:	48 89 c7             	mov    %rax,%rdi
   13905:	e8 e9 3d ff ff       	callq  76f3 <transparent_crc>
   1390a:	0f b7 05 1f 6a 00 00 	movzwl 0x6a1f(%rip),%eax        # 1a330 <g_397>
   13911:	48 0f bf c0          	movswq %ax,%rax
   13915:	8b 55 fc             	mov    -0x4(%rbp),%edx
   13918:	48 8d 35 86 2d 00 00 	lea    0x2d86(%rip),%rsi        # 166a5 <g_1428+0x1650>
   1391f:	48 89 c7             	mov    %rax,%rdi
   13922:	e8 cc 3d ff ff       	callq  76f3 <transparent_crc>
   13927:	8b 05 07 6a 00 00    	mov    0x6a07(%rip),%eax        # 1a334 <g_406>
   1392d:	48 98                	cltq   
   1392f:	8b 55 fc             	mov    -0x4(%rbp),%edx
   13932:	48 8d 35 72 2d 00 00 	lea    0x2d72(%rip),%rsi        # 166ab <g_1428+0x1656>
   13939:	48 89 c7             	mov    %rax,%rdi
   1393c:	e8 b2 3d ff ff       	callq  76f3 <transparent_crc>
   13941:	48 8b 05 f0 69 00 00 	mov    0x69f0(%rip),%rax        # 1a338 <g_424>
   13948:	8b 55 fc             	mov    -0x4(%rbp),%edx
   1394b:	48 8d 35 62 2d 00 00 	lea    0x2d62(%rip),%rsi        # 166b4 <g_1428+0x165f>
   13952:	48 89 c7             	mov    %rax,%rdi
   13955:	e8 99 3d ff ff       	callq  76f3 <transparent_crc>
   1395a:	0f b6 05 df 69 00 00 	movzbl 0x69df(%rip),%eax        # 1a340 <g_454>
   13961:	48 0f be c0          	movsbq %al,%rax
   13965:	8b 55 fc             	mov    -0x4(%rbp),%edx
   13968:	48 8d 35 4b 2d 00 00 	lea    0x2d4b(%rip),%rsi        # 166ba <g_1428+0x1665>
   1396f:	48 89 c7             	mov    %rax,%rdi
   13972:	e8 7c 3d ff ff       	callq  76f3 <transparent_crc>
   13977:	8b 05 c7 69 00 00    	mov    0x69c7(%rip),%eax        # 1a344 <g_530>
   1397d:	48 98                	cltq   
   1397f:	8b 55 fc             	mov    -0x4(%rbp),%edx
   13982:	48 8d 35 37 2d 00 00 	lea    0x2d37(%rip),%rsi        # 166c0 <g_1428+0x166b>
   13989:	48 89 c7             	mov    %rax,%rdi
   1398c:	e8 62 3d ff ff       	callq  76f3 <transparent_crc>
   13991:	48 8b 05 b0 69 00 00 	mov    0x69b0(%rip),%rax        # 1a348 <g_651>
   13998:	8b 55 fc             	mov    -0x4(%rbp),%edx
   1399b:	48 8d 35 24 2d 00 00 	lea    0x2d24(%rip),%rsi        # 166c6 <g_1428+0x1671>
   139a2:	48 89 c7             	mov    %rax,%rdi
   139a5:	e8 49 3d ff ff       	callq  76f3 <transparent_crc>
   139aa:	48 8b 05 9f 69 00 00 	mov    0x699f(%rip),%rax        # 1a350 <g_652>
   139b1:	8b 55 fc             	mov    -0x4(%rbp),%edx
   139b4:	48 8d 35 11 2d 00 00 	lea    0x2d11(%rip),%rsi        # 166cc <g_1428+0x1677>
   139bb:	48 89 c7             	mov    %rax,%rdi
   139be:	e8 30 3d ff ff       	callq  76f3 <transparent_crc>
   139c3:	8b 05 8f 69 00 00    	mov    0x698f(%rip),%eax        # 1a358 <g_728>
   139c9:	48 98                	cltq   
   139cb:	8b 55 fc             	mov    -0x4(%rbp),%edx
   139ce:	48 8d 35 fd 2c 00 00 	lea    0x2cfd(%rip),%rsi        # 166d2 <g_1428+0x167d>
   139d5:	48 89 c7             	mov    %rax,%rdi
   139d8:	e8 16 3d ff ff       	callq  76f3 <transparent_crc>
   139dd:	c7 45 f0 00 00 00 00 	movl   $0x0,-0x10(%rbp)
   139e4:	eb 6a                	jmp    13a50 <main+0x66f>
   139e6:	c7 45 f4 00 00 00 00 	movl   $0x0,-0xc(%rbp)
   139ed:	eb 57                	jmp    13a46 <main+0x665>
   139ef:	8b 45 f4             	mov    -0xc(%rbp),%eax
   139f2:	48 63 d0             	movslq %eax,%rdx
   139f5:	8b 45 f0             	mov    -0x10(%rbp),%eax
   139f8:	48 98                	cltq   
   139fa:	48 01 d0             	add    %rdx,%rax
   139fd:	48 8d 14 85 00 00 00 	lea    0x0(,%rax,4),%rdx
   13a04:	00 
   13a05:	48 8d 05 54 69 00 00 	lea    0x6954(%rip),%rax        # 1a360 <g_729>
   13a0c:	8b 04 02             	mov    (%rdx,%rax,1),%eax
   13a0f:	48 98                	cltq   
   13a11:	8b 55 fc             	mov    -0x4(%rbp),%edx
   13a14:	48 8d 35 c0 2c 00 00 	lea    0x2cc0(%rip),%rsi        # 166db <g_1428+0x1686>
   13a1b:	48 89 c7             	mov    %rax,%rdi
   13a1e:	e8 d0 3c ff ff       	callq  76f3 <transparent_crc>
   13a23:	83 7d fc 00          	cmpl   $0x0,-0x4(%rbp)
   13a27:	74 19                	je     13a42 <main+0x661>
   13a29:	8b 55 f4             	mov    -0xc(%rbp),%edx
   13a2c:	8b 45 f0             	mov    -0x10(%rbp),%eax
   13a2f:	89 c6                	mov    %eax,%esi
   13a31:	48 8d 3d 81 2b 00 00 	lea    0x2b81(%rip),%rdi        # 165b9 <g_1428+0x1564>
   13a38:	b8 00 00 00 00       	mov    $0x0,%eax
   13a3d:	e8 3e 26 ff ff       	callq  6080 <printf@plt>
   13a42:	83 45 f4 01          	addl   $0x1,-0xc(%rbp)
   13a46:	83 7d f4 00          	cmpl   $0x0,-0xc(%rbp)
   13a4a:	7e a3                	jle    139ef <main+0x60e>
   13a4c:	83 45 f0 01          	addl   $0x1,-0x10(%rbp)
   13a50:	83 7d f0 02          	cmpl   $0x2,-0x10(%rbp)
   13a54:	7e 90                	jle    139e6 <main+0x605>
   13a56:	8b 05 10 69 00 00    	mov    0x6910(%rip),%eax        # 1a36c <g_732>
   13a5c:	48 98                	cltq   
   13a5e:	8b 55 fc             	mov    -0x4(%rbp),%edx
   13a61:	48 8d 35 82 2c 00 00 	lea    0x2c82(%rip),%rsi        # 166ea <g_1428+0x1695>
   13a68:	48 89 c7             	mov    %rax,%rdi
   13a6b:	e8 83 3c ff ff       	callq  76f3 <transparent_crc>
   13a70:	8b 05 f6 68 00 00    	mov    0x68f6(%rip),%eax        # 1a36c <g_732>
   13a76:	c1 e0 04             	shl    $0x4,%eax
   13a79:	66 c1 f8 04          	sar    $0x4,%ax
   13a7d:	48 0f bf c0          	movswq %ax,%rax
   13a81:	8b 55 fc             	mov    -0x4(%rbp),%edx
   13a84:	48 8d 35 68 2c 00 00 	lea    0x2c68(%rip),%rsi        # 166f3 <g_1428+0x169e>
   13a8b:	48 89 c7             	mov    %rax,%rdi
   13a8e:	e8 60 3c ff ff       	callq  76f3 <transparent_crc>
   13a93:	8b 05 d3 68 00 00    	mov    0x68d3(%rip),%eax        # 1a36c <g_732>
   13a99:	89 c1                	mov    %eax,%ecx
   13a9b:	8b 45 fc             	mov    -0x4(%rbp),%eax
   13a9e:	89 c2                	mov    %eax,%edx
   13aa0:	48 8d 35 55 2c 00 00 	lea    0x2c55(%rip),%rsi        # 166fc <g_1428+0x16a7>
   13aa7:	48 89 cf             	mov    %rcx,%rdi
   13aaa:	e8 44 3c ff ff       	callq  76f3 <transparent_crc>
   13aaf:	8b 05 bb 68 00 00    	mov    0x68bb(%rip),%eax        # 1a370 <g_794>
   13ab5:	48 98                	cltq   
   13ab7:	8b 55 fc             	mov    -0x4(%rbp),%edx
   13aba:	48 8d 35 44 2c 00 00 	lea    0x2c44(%rip),%rsi        # 16705 <g_1428+0x16b0>
   13ac1:	48 89 c7             	mov    %rax,%rdi
   13ac4:	e8 2a 3c ff ff       	callq  76f3 <transparent_crc>
   13ac9:	8b 05 c9 8c 00 00    	mov    0x8cc9(%rip),%eax        # 1c798 <g_818>
   13acf:	48 98                	cltq   
   13ad1:	8b 55 fc             	mov    -0x4(%rbp),%edx
   13ad4:	48 8d 35 33 2c 00 00 	lea    0x2c33(%rip),%rsi        # 1670e <g_1428+0x16b9>
   13adb:	48 89 c7             	mov    %rax,%rdi
   13ade:	e8 10 3c ff ff       	callq  76f3 <transparent_crc>
   13ae3:	8b 05 af 8c 00 00    	mov    0x8caf(%rip),%eax        # 1c798 <g_818>
   13ae9:	c1 e0 04             	shl    $0x4,%eax
   13aec:	66 c1 f8 04          	sar    $0x4,%ax
   13af0:	48 0f bf c0          	movswq %ax,%rax
   13af4:	8b 55 fc             	mov    -0x4(%rbp),%edx
   13af7:	48 8d 35 19 2c 00 00 	lea    0x2c19(%rip),%rsi        # 16717 <g_1428+0x16c2>
   13afe:	48 89 c7             	mov    %rax,%rdi
   13b01:	e8 ed 3b ff ff       	callq  76f3 <transparent_crc>
   13b06:	8b 05 8c 8c 00 00    	mov    0x8c8c(%rip),%eax        # 1c798 <g_818>
   13b0c:	89 c1                	mov    %eax,%ecx
   13b0e:	8b 45 fc             	mov    -0x4(%rbp),%eax
   13b11:	89 c2                	mov    %eax,%edx
   13b13:	48 8d 35 06 2c 00 00 	lea    0x2c06(%rip),%rsi        # 16720 <g_1428+0x16cb>
   13b1a:	48 89 cf             	mov    %rcx,%rdi
   13b1d:	e8 d1 3b ff ff       	callq  76f3 <transparent_crc>
   13b22:	8b 05 4c 68 00 00    	mov    0x684c(%rip),%eax        # 1a374 <g_865>
   13b28:	48 98                	cltq   
   13b2a:	8b 55 fc             	mov    -0x4(%rbp),%edx
   13b2d:	48 8d 35 f5 2b 00 00 	lea    0x2bf5(%rip),%rsi        # 16729 <g_1428+0x16d4>
   13b34:	48 89 c7             	mov    %rax,%rdi
   13b37:	e8 b7 3b ff ff       	callq  76f3 <transparent_crc>
   13b3c:	8b 05 36 68 00 00    	mov    0x6836(%rip),%eax        # 1a378 <g_866>
   13b42:	48 98                	cltq   
   13b44:	8b 55 fc             	mov    -0x4(%rbp),%edx
   13b47:	48 8d 35 e4 2b 00 00 	lea    0x2be4(%rip),%rsi        # 16732 <g_1428+0x16dd>
   13b4e:	48 89 c7             	mov    %rax,%rdi
   13b51:	e8 9d 3b ff ff       	callq  76f3 <transparent_crc>
   13b56:	8b 05 20 68 00 00    	mov    0x6820(%rip),%eax        # 1a37c <g_867>
   13b5c:	48 98                	cltq   
   13b5e:	8b 55 fc             	mov    -0x4(%rbp),%edx
   13b61:	48 8d 35 d3 2b 00 00 	lea    0x2bd3(%rip),%rsi        # 1673b <g_1428+0x16e6>
   13b68:	48 89 c7             	mov    %rax,%rdi
   13b6b:	e8 83 3b ff ff       	callq  76f3 <transparent_crc>
   13b70:	0f b6 05 09 68 00 00 	movzbl 0x6809(%rip),%eax        # 1a380 <g_909>
   13b77:	0f b6 c0             	movzbl %al,%eax
   13b7a:	8b 55 fc             	mov    -0x4(%rbp),%edx
   13b7d:	48 8d 35 c0 2b 00 00 	lea    0x2bc0(%rip),%rsi        # 16744 <g_1428+0x16ef>
   13b84:	48 89 c7             	mov    %rax,%rdi
   13b87:	e8 67 3b ff ff       	callq  76f3 <transparent_crc>
   13b8c:	48 8b 05 f5 67 00 00 	mov    0x67f5(%rip),%rax        # 1a388 <g_918>
   13b93:	8b 55 fc             	mov    -0x4(%rbp),%edx
   13b96:	48 8d 35 ad 2b 00 00 	lea    0x2bad(%rip),%rsi        # 1674a <g_1428+0x16f5>
   13b9d:	48 89 c7             	mov    %rax,%rdi
   13ba0:	e8 4e 3b ff ff       	callq  76f3 <transparent_crc>
   13ba5:	8b 05 f1 8b 00 00    	mov    0x8bf1(%rip),%eax        # 1c79c <g_1109>
   13bab:	89 c1                	mov    %eax,%ecx
   13bad:	8b 45 fc             	mov    -0x4(%rbp),%eax
   13bb0:	89 c2                	mov    %eax,%edx
   13bb2:	48 8d 35 97 2b 00 00 	lea    0x2b97(%rip),%rsi        # 16750 <g_1428+0x16fb>
   13bb9:	48 89 cf             	mov    %rcx,%rdi
   13bbc:	e8 32 3b ff ff       	callq  76f3 <transparent_crc>
   13bc1:	8b 05 c9 67 00 00    	mov    0x67c9(%rip),%eax        # 1a390 <g_1253>
   13bc7:	48 98                	cltq   
   13bc9:	8b 55 fc             	mov    -0x4(%rbp),%edx
   13bcc:	48 8d 35 84 2b 00 00 	lea    0x2b84(%rip),%rsi        # 16757 <g_1428+0x1702>
   13bd3:	48 89 c7             	mov    %rax,%rdi
   13bd6:	e8 18 3b ff ff       	callq  76f3 <transparent_crc>
   13bdb:	8b 05 b3 67 00 00    	mov    0x67b3(%rip),%eax        # 1a394 <g_1312>
   13be1:	48 98                	cltq   
   13be3:	8b 55 fc             	mov    -0x4(%rbp),%edx
   13be6:	48 8d 35 71 2b 00 00 	lea    0x2b71(%rip),%rsi        # 1675e <g_1428+0x1709>
   13bed:	48 89 c7             	mov    %rax,%rdi
   13bf0:	e8 fe 3a ff ff       	callq  76f3 <transparent_crc>
   13bf5:	8b 05 9d 67 00 00    	mov    0x679d(%rip),%eax        # 1a398 <g_1332>
   13bfb:	48 98                	cltq   
   13bfd:	8b 55 fc             	mov    -0x4(%rbp),%edx
   13c00:	48 8d 35 61 2b 00 00 	lea    0x2b61(%rip),%rsi        # 16768 <g_1428+0x1713>
   13c07:	48 89 c7             	mov    %rax,%rdi
   13c0a:	e8 e4 3a ff ff       	callq  76f3 <transparent_crc>
   13c0f:	48 8b 05 8a 67 00 00 	mov    0x678a(%rip),%rax        # 1a3a0 <g_1340>
   13c16:	8b 55 fc             	mov    -0x4(%rbp),%edx
   13c19:	48 8d 35 52 2b 00 00 	lea    0x2b52(%rip),%rsi        # 16772 <g_1428+0x171d>
   13c20:	48 89 c7             	mov    %rax,%rdi
   13c23:	e8 cb 3a ff ff       	callq  76f3 <transparent_crc>
   13c28:	8b 05 7a 67 00 00    	mov    0x677a(%rip),%eax        # 1a3a8 <g_1342>
   13c2e:	89 c1                	mov    %eax,%ecx
   13c30:	8b 45 fc             	mov    -0x4(%rbp),%eax
   13c33:	89 c2                	mov    %eax,%edx
   13c35:	48 8d 35 3d 2b 00 00 	lea    0x2b3d(%rip),%rsi        # 16779 <g_1428+0x1724>
   13c3c:	48 89 cf             	mov    %rcx,%rdi
   13c3f:	e8 af 3a ff ff       	callq  76f3 <transparent_crc>
   13c44:	c7 45 f0 00 00 00 00 	movl   $0x0,-0x10(%rbp)
   13c4b:	e9 ac 00 00 00       	jmpq   13cfc <main+0x91b>
   13c50:	8b 45 f0             	mov    -0x10(%rbp),%eax
   13c53:	48 98                	cltq   
   13c55:	48 8d 14 85 00 00 00 	lea    0x0(,%rax,4),%rdx
   13c5c:	00 
   13c5d:	48 8d 05 4c 67 00 00 	lea    0x674c(%rip),%rax        # 1a3b0 <g_1390>
   13c64:	8b 04 02             	mov    (%rdx,%rax,1),%eax
   13c67:	48 98                	cltq   
   13c69:	8b 55 fc             	mov    -0x4(%rbp),%edx
   13c6c:	48 8d 35 0d 2b 00 00 	lea    0x2b0d(%rip),%rsi        # 16780 <g_1428+0x172b>
   13c73:	48 89 c7             	mov    %rax,%rdi
   13c76:	e8 78 3a ff ff       	callq  76f3 <transparent_crc>
   13c7b:	8b 45 f0             	mov    -0x10(%rbp),%eax
   13c7e:	48 98                	cltq   
   13c80:	48 8d 14 85 00 00 00 	lea    0x0(,%rax,4),%rdx
   13c87:	00 
   13c88:	48 8d 05 21 67 00 00 	lea    0x6721(%rip),%rax        # 1a3b0 <g_1390>
   13c8f:	8b 04 02             	mov    (%rdx,%rax,1),%eax
   13c92:	c1 e0 04             	shl    $0x4,%eax
   13c95:	66 c1 f8 04          	sar    $0x4,%ax
   13c99:	48 0f bf c0          	movswq %ax,%rax
   13c9d:	8b 55 fc             	mov    -0x4(%rbp),%edx
   13ca0:	48 8d 35 e6 2a 00 00 	lea    0x2ae6(%rip),%rsi        # 1678d <g_1428+0x1738>
   13ca7:	48 89 c7             	mov    %rax,%rdi
   13caa:	e8 44 3a ff ff       	callq  76f3 <transparent_crc>
   13caf:	8b 45 f0             	mov    -0x10(%rbp),%eax
   13cb2:	48 98                	cltq   
   13cb4:	48 8d 14 85 00 00 00 	lea    0x0(,%rax,4),%rdx
   13cbb:	00 
   13cbc:	48 8d 05 ed 66 00 00 	lea    0x66ed(%rip),%rax        # 1a3b0 <g_1390>
   13cc3:	8b 04 02             	mov    (%rdx,%rax,1),%eax
   13cc6:	89 c1                	mov    %eax,%ecx
   13cc8:	8b 45 fc             	mov    -0x4(%rbp),%eax
   13ccb:	89 c2                	mov    %eax,%edx
   13ccd:	48 8d 35 c6 2a 00 00 	lea    0x2ac6(%rip),%rsi        # 1679a <g_1428+0x1745>
   13cd4:	48 89 cf             	mov    %rcx,%rdi
   13cd7:	e8 17 3a ff ff       	callq  76f3 <transparent_crc>
   13cdc:	83 7d fc 00          	cmpl   $0x0,-0x4(%rbp)
   13ce0:	74 16                	je     13cf8 <main+0x917>
   13ce2:	8b 45 f0             	mov    -0x10(%rbp),%eax
   13ce5:	89 c6                	mov    %eax,%esi
   13ce7:	48 8d 3d f4 28 00 00 	lea    0x28f4(%rip),%rdi        # 165e2 <g_1428+0x158d>
   13cee:	b8 00 00 00 00       	mov    $0x0,%eax
   13cf3:	e8 88 23 ff ff       	callq  6080 <printf@plt>
   13cf8:	83 45 f0 01          	addl   $0x1,-0x10(%rbp)
   13cfc:	83 7d f0 05          	cmpl   $0x5,-0x10(%rbp)
   13d00:	0f 8e 4a ff ff ff    	jle    13c50 <main+0x86f>
   13d06:	b8 01 00 00 00       	mov    $0x1,%eax
   13d0b:	48 0f be c0          	movsbq %al,%rax
   13d0f:	8b 55 fc             	mov    -0x4(%rbp),%edx
   13d12:	48 8d 35 8e 2a 00 00 	lea    0x2a8e(%rip),%rsi        # 167a7 <g_1428+0x1752>
   13d19:	48 89 c7             	mov    %rax,%rdi
   13d1c:	e8 d2 39 ff ff       	callq  76f3 <transparent_crc>
   13d21:	b8 00 00 00 00       	mov    $0x0,%eax
   13d26:	48 0f be c0          	movsbq %al,%rax
   13d2a:	8b 55 fc             	mov    -0x4(%rbp),%edx
   13d2d:	48 8d 35 7a 2a 00 00 	lea    0x2a7a(%rip),%rsi        # 167ae <g_1428+0x1759>
   13d34:	48 89 c7             	mov    %rax,%rdi
   13d37:	e8 b7 39 ff ff       	callq  76f3 <transparent_crc>
   13d3c:	48 8b 05 85 66 00 00 	mov    0x6685(%rip),%rax        # 1a3c8 <g_1618>
   13d43:	48 89 c1             	mov    %rax,%rcx
   13d46:	8b 45 fc             	mov    -0x4(%rbp),%eax
   13d49:	89 c2                	mov    %eax,%edx
   13d4b:	48 8d 35 63 2a 00 00 	lea    0x2a63(%rip),%rsi        # 167b5 <g_1428+0x1760>
   13d52:	48 89 cf             	mov    %rcx,%rdi
   13d55:	e8 99 39 ff ff       	callq  76f3 <transparent_crc>
   13d5a:	0f b6 05 6f 66 00 00 	movzbl 0x666f(%rip),%eax        # 1a3d0 <g_1686>
   13d61:	48 0f be c0          	movsbq %al,%rax
   13d65:	8b 55 fc             	mov    -0x4(%rbp),%edx
   13d68:	48 8d 35 4d 2a 00 00 	lea    0x2a4d(%rip),%rsi        # 167bc <g_1428+0x1767>
   13d6f:	48 89 c7             	mov    %rax,%rdi
   13d72:	e8 7c 39 ff ff       	callq  76f3 <transparent_crc>
   13d77:	0f b6 05 32 8a 00 00 	movzbl 0x8a32(%rip),%eax        # 1c7b0 <g_1688>
   13d7e:	0f b6 c0             	movzbl %al,%eax
   13d81:	8b 55 fc             	mov    -0x4(%rbp),%edx
   13d84:	48 8d 35 38 2a 00 00 	lea    0x2a38(%rip),%rsi        # 167c3 <g_1428+0x176e>
   13d8b:	48 89 c7             	mov    %rax,%rdi
   13d8e:	e8 60 39 ff ff       	callq  76f3 <transparent_crc>
   13d93:	8b 05 3b 66 00 00    	mov    0x663b(%rip),%eax        # 1a3d4 <g_1694>
   13d99:	48 98                	cltq   
   13d9b:	8b 55 fc             	mov    -0x4(%rbp),%edx
   13d9e:	48 8d 35 25 2a 00 00 	lea    0x2a25(%rip),%rsi        # 167ca <g_1428+0x1775>
   13da5:	48 89 c7             	mov    %rax,%rdi
   13da8:	e8 46 39 ff ff       	callq  76f3 <transparent_crc>
   13dad:	8b 05 21 66 00 00    	mov    0x6621(%rip),%eax        # 1a3d4 <g_1694>
   13db3:	c1 e0 04             	shl    $0x4,%eax
   13db6:	66 c1 f8 04          	sar    $0x4,%ax
   13dba:	48 0f bf c0          	movswq %ax,%rax
   13dbe:	8b 55 fc             	mov    -0x4(%rbp),%edx
   13dc1:	48 8d 35 0c 2a 00 00 	lea    0x2a0c(%rip),%rsi        # 167d4 <g_1428+0x177f>
   13dc8:	48 89 c7             	mov    %rax,%rdi
   13dcb:	e8 23 39 ff ff       	callq  76f3 <transparent_crc>
   13dd0:	8b 05 fe 65 00 00    	mov    0x65fe(%rip),%eax        # 1a3d4 <g_1694>
   13dd6:	89 c1                	mov    %eax,%ecx
   13dd8:	8b 45 fc             	mov    -0x4(%rbp),%eax
   13ddb:	89 c2                	mov    %eax,%edx
   13ddd:	48 8d 35 fa 29 00 00 	lea    0x29fa(%rip),%rsi        # 167de <g_1428+0x1789>
   13de4:	48 89 cf             	mov    %rcx,%rdi
   13de7:	e8 07 39 ff ff       	callq  76f3 <transparent_crc>
   13dec:	8b 05 e6 65 00 00    	mov    0x65e6(%rip),%eax        # 1a3d8 <g_1727>
   13df2:	48 98                	cltq   
   13df4:	8b 55 fc             	mov    -0x4(%rbp),%edx
   13df7:	48 8d 35 ea 29 00 00 	lea    0x29ea(%rip),%rsi        # 167e8 <g_1428+0x1793>
   13dfe:	48 89 c7             	mov    %rax,%rdi
   13e01:	e8 ed 38 ff ff       	callq  76f3 <transparent_crc>
   13e06:	8b 05 cc 65 00 00    	mov    0x65cc(%rip),%eax        # 1a3d8 <g_1727>
   13e0c:	c1 e0 04             	shl    $0x4,%eax
   13e0f:	66 c1 f8 04          	sar    $0x4,%ax
   13e13:	48 0f bf c0          	movswq %ax,%rax
   13e17:	8b 55 fc             	mov    -0x4(%rbp),%edx
   13e1a:	48 8d 35 d1 29 00 00 	lea    0x29d1(%rip),%rsi        # 167f2 <g_1428+0x179d>
   13e21:	48 89 c7             	mov    %rax,%rdi
   13e24:	e8 ca 38 ff ff       	callq  76f3 <transparent_crc>
   13e29:	8b 05 a9 65 00 00    	mov    0x65a9(%rip),%eax        # 1a3d8 <g_1727>
   13e2f:	89 c1                	mov    %eax,%ecx
   13e31:	8b 45 fc             	mov    -0x4(%rbp),%eax
   13e34:	89 c2                	mov    %eax,%edx
   13e36:	48 8d 35 bf 29 00 00 	lea    0x29bf(%rip),%rsi        # 167fc <g_1428+0x17a7>
   13e3d:	48 89 cf             	mov    %rcx,%rdi
   13e40:	e8 ae 38 ff ff       	callq  76f3 <transparent_crc>
   13e45:	8b 05 91 65 00 00    	mov    0x6591(%rip),%eax        # 1a3dc <g_1754>
   13e4b:	89 c1                	mov    %eax,%ecx
   13e4d:	8b 45 fc             	mov    -0x4(%rbp),%eax
   13e50:	89 c2                	mov    %eax,%edx
   13e52:	48 8d 35 ad 29 00 00 	lea    0x29ad(%rip),%rsi        # 16806 <g_1428+0x17b1>
   13e59:	48 89 cf             	mov    %rcx,%rdi
   13e5c:	e8 92 38 ff ff       	callq  76f3 <transparent_crc>
   13e61:	8b 05 79 65 00 00    	mov    0x6579(%rip),%eax        # 1a3e0 <g_1815>
   13e67:	48 98                	cltq   
   13e69:	8b 55 fc             	mov    -0x4(%rbp),%edx
   13e6c:	48 8d 35 9a 29 00 00 	lea    0x299a(%rip),%rsi        # 1680d <g_1428+0x17b8>
   13e73:	48 89 c7             	mov    %rax,%rdi
   13e76:	e8 78 38 ff ff       	callq  76f3 <transparent_crc>
   13e7b:	8b 05 5f 65 00 00    	mov    0x655f(%rip),%eax        # 1a3e0 <g_1815>
   13e81:	c1 e0 04             	shl    $0x4,%eax
   13e84:	66 c1 f8 04          	sar    $0x4,%ax
   13e88:	48 0f bf c0          	movswq %ax,%rax
   13e8c:	8b 55 fc             	mov    -0x4(%rbp),%edx
   13e8f:	48 8d 35 81 29 00 00 	lea    0x2981(%rip),%rsi        # 16817 <g_1428+0x17c2>
   13e96:	48 89 c7             	mov    %rax,%rdi
   13e99:	e8 55 38 ff ff       	callq  76f3 <transparent_crc>
   13e9e:	8b 05 3c 65 00 00    	mov    0x653c(%rip),%eax        # 1a3e0 <g_1815>
   13ea4:	89 c1                	mov    %eax,%ecx
   13ea6:	8b 45 fc             	mov    -0x4(%rbp),%eax
   13ea9:	89 c2                	mov    %eax,%edx
   13eab:	48 8d 35 6f 29 00 00 	lea    0x296f(%rip),%rsi        # 16821 <g_1428+0x17cc>
   13eb2:	48 89 cf             	mov    %rcx,%rdi
   13eb5:	e8 39 38 ff ff       	callq  76f3 <transparent_crc>
   13eba:	8b 05 24 65 00 00    	mov    0x6524(%rip),%eax        # 1a3e4 <g_1817>
   13ec0:	48 98                	cltq   
   13ec2:	8b 55 fc             	mov    -0x4(%rbp),%edx
   13ec5:	48 8d 35 5f 29 00 00 	lea    0x295f(%rip),%rsi        # 1682b <g_1428+0x17d6>
   13ecc:	48 89 c7             	mov    %rax,%rdi
   13ecf:	e8 1f 38 ff ff       	callq  76f3 <transparent_crc>
   13ed4:	8b 05 0a 65 00 00    	mov    0x650a(%rip),%eax        # 1a3e4 <g_1817>
   13eda:	c1 e0 04             	shl    $0x4,%eax
   13edd:	66 c1 f8 04          	sar    $0x4,%ax
   13ee1:	48 0f bf c0          	movswq %ax,%rax
   13ee5:	8b 55 fc             	mov    -0x4(%rbp),%edx
   13ee8:	48 8d 35 46 29 00 00 	lea    0x2946(%rip),%rsi        # 16835 <g_1428+0x17e0>
   13eef:	48 89 c7             	mov    %rax,%rdi
   13ef2:	e8 fc 37 ff ff       	callq  76f3 <transparent_crc>
   13ef7:	8b 05 e7 64 00 00    	mov    0x64e7(%rip),%eax        # 1a3e4 <g_1817>
   13efd:	89 c1                	mov    %eax,%ecx
   13eff:	8b 45 fc             	mov    -0x4(%rbp),%eax
   13f02:	89 c2                	mov    %eax,%edx
   13f04:	48 8d 35 34 29 00 00 	lea    0x2934(%rip),%rsi        # 1683f <g_1428+0x17ea>
   13f0b:	48 89 cf             	mov    %rcx,%rdi
   13f0e:	e8 e0 37 ff ff       	callq  76f3 <transparent_crc>
   13f13:	8b 05 cf 64 00 00    	mov    0x64cf(%rip),%eax        # 1a3e8 <g_1866>
   13f19:	48 98                	cltq   
   13f1b:	8b 55 fc             	mov    -0x4(%rbp),%edx
   13f1e:	48 8d 35 24 29 00 00 	lea    0x2924(%rip),%rsi        # 16849 <g_1428+0x17f4>
   13f25:	48 89 c7             	mov    %rax,%rdi
   13f28:	e8 c6 37 ff ff       	callq  76f3 <transparent_crc>
   13f2d:	c7 45 f0 00 00 00 00 	movl   $0x0,-0x10(%rbp)
   13f34:	e9 b4 00 00 00       	jmpq   13fed <main+0xc0c>
   13f39:	c7 45 f4 00 00 00 00 	movl   $0x0,-0xc(%rbp)
   13f40:	e9 9a 00 00 00       	jmpq   13fdf <main+0xbfe>
   13f45:	c7 45 f8 00 00 00 00 	movl   $0x0,-0x8(%rbp)
   13f4c:	e9 80 00 00 00       	jmpq   13fd1 <main+0xbf0>
   13f51:	8b 45 f8             	mov    -0x8(%rbp),%eax
   13f54:	48 63 f0             	movslq %eax,%rsi
   13f57:	8b 45 f0             	mov    -0x10(%rbp),%eax
   13f5a:	48 63 d0             	movslq %eax,%rdx
   13f5d:	8b 45 f4             	mov    -0xc(%rbp),%eax
   13f60:	48 63 c8             	movslq %eax,%rcx
   13f63:	48 89 d0             	mov    %rdx,%rax
   13f66:	48 c1 e0 02          	shl    $0x2,%rax
   13f6a:	48 01 d0             	add    %rdx,%rax
   13f6d:	48 8d 14 85 00 00 00 	lea    0x0(,%rax,4),%rdx
   13f74:	00 
   13f75:	48 01 d0             	add    %rdx,%rax
   13f78:	48 89 ca             	mov    %rcx,%rdx
   13f7b:	48 c1 e2 02          	shl    $0x2,%rdx
   13f7f:	48 01 ca             	add    %rcx,%rdx
   13f82:	48 01 d0             	add    %rdx,%rax
   13f85:	48 8d 14 30          	lea    (%rax,%rsi,1),%rdx
   13f89:	48 8d 05 70 64 00 00 	lea    0x6470(%rip),%rax        # 1a400 <g_1885>
   13f90:	48 01 d0             	add    %rdx,%rax
   13f93:	0f b6 00             	movzbl (%rax),%eax
   13f96:	0f b6 c0             	movzbl %al,%eax
   13f99:	8b 55 fc             	mov    -0x4(%rbp),%edx
   13f9c:	48 8d 35 ad 28 00 00 	lea    0x28ad(%rip),%rsi        # 16850 <g_1428+0x17fb>
   13fa3:	48 89 c7             	mov    %rax,%rdi
   13fa6:	e8 48 37 ff ff       	callq  76f3 <transparent_crc>
   13fab:	83 7d fc 00          	cmpl   $0x0,-0x4(%rbp)
   13faf:	74 1c                	je     13fcd <main+0xbec>
   13fb1:	8b 4d f8             	mov    -0x8(%rbp),%ecx
   13fb4:	8b 55 f4             	mov    -0xc(%rbp),%edx
   13fb7:	8b 45 f0             	mov    -0x10(%rbp),%eax
   13fba:	89 c6                	mov    %eax,%esi
   13fbc:	48 8d 3d c0 26 00 00 	lea    0x26c0(%rip),%rdi        # 16683 <g_1428+0x162e>
   13fc3:	b8 00 00 00 00       	mov    $0x0,%eax
   13fc8:	e8 b3 20 ff ff       	callq  6080 <printf@plt>
   13fcd:	83 45 f8 01          	addl   $0x1,-0x8(%rbp)
   13fd1:	83 7d f8 04          	cmpl   $0x4,-0x8(%rbp)
   13fd5:	0f 8e 76 ff ff ff    	jle    13f51 <main+0xb70>
   13fdb:	83 45 f4 01          	addl   $0x1,-0xc(%rbp)
   13fdf:	83 7d f4 04          	cmpl   $0x4,-0xc(%rbp)
   13fe3:	0f 8e 5c ff ff ff    	jle    13f45 <main+0xb64>
   13fe9:	83 45 f0 01          	addl   $0x1,-0x10(%rbp)
   13fed:	83 7d f0 06          	cmpl   $0x6,-0x10(%rbp)
   13ff1:	0f 8e 42 ff ff ff    	jle    13f39 <main+0xb58>
   13ff7:	8b 05 b3 64 00 00    	mov    0x64b3(%rip),%eax        # 1a4b0 <g_1923>
   13ffd:	89 c1                	mov    %eax,%ecx
   13fff:	8b 45 fc             	mov    -0x4(%rbp),%eax
   14002:	89 c2                	mov    %eax,%edx
   14004:	48 8d 35 55 28 00 00 	lea    0x2855(%rip),%rsi        # 16860 <g_1428+0x180b>
   1400b:	48 89 cf             	mov    %rcx,%rdi
   1400e:	e8 e0 36 ff ff       	callq  76f3 <transparent_crc>
   14013:	48 8b 05 9e 64 00 00 	mov    0x649e(%rip),%rax        # 1a4b8 <g_1924>
   1401a:	8b 55 fc             	mov    -0x4(%rbp),%edx
   1401d:	48 8d 35 43 28 00 00 	lea    0x2843(%rip),%rsi        # 16867 <g_1428+0x1812>
   14024:	48 89 c7             	mov    %rax,%rdi
   14027:	e8 c7 36 ff ff       	callq  76f3 <transparent_crc>
   1402c:	8b 05 8e 64 00 00    	mov    0x648e(%rip),%eax        # 1a4c0 <g_1977>
   14032:	48 98                	cltq   
   14034:	8b 55 fc             	mov    -0x4(%rbp),%edx
   14037:	48 8d 35 30 28 00 00 	lea    0x2830(%rip),%rsi        # 1686e <g_1428+0x1819>
   1403e:	48 89 c7             	mov    %rax,%rdi
   14041:	e8 ad 36 ff ff       	callq  76f3 <transparent_crc>
   14046:	0f b7 05 77 64 00 00 	movzwl 0x6477(%rip),%eax        # 1a4c4 <g_2007>
   1404d:	48 0f bf c0          	movswq %ax,%rax
   14051:	8b 55 fc             	mov    -0x4(%rbp),%edx
   14054:	48 8d 35 1d 28 00 00 	lea    0x281d(%rip),%rsi        # 16878 <g_1428+0x1823>
   1405b:	48 89 c7             	mov    %rax,%rdi
   1405e:	e8 90 36 ff ff       	callq  76f3 <transparent_crc>
   14063:	8b 05 5f 64 00 00    	mov    0x645f(%rip),%eax        # 1a4c8 <g_2032>
   14069:	48 98                	cltq   
   1406b:	8b 55 fc             	mov    -0x4(%rbp),%edx
   1406e:	48 8d 35 0a 28 00 00 	lea    0x280a(%rip),%rsi        # 1687f <g_1428+0x182a>
   14075:	48 89 c7             	mov    %rax,%rdi
   14078:	e8 76 36 ff ff       	callq  76f3 <transparent_crc>
   1407d:	8b 05 45 64 00 00    	mov    0x6445(%rip),%eax        # 1a4c8 <g_2032>
   14083:	c1 e0 04             	shl    $0x4,%eax
   14086:	66 c1 f8 04          	sar    $0x4,%ax
   1408a:	48 0f bf c0          	movswq %ax,%rax
   1408e:	8b 55 fc             	mov    -0x4(%rbp),%edx
   14091:	48 8d 35 f1 27 00 00 	lea    0x27f1(%rip),%rsi        # 16889 <g_1428+0x1834>
   14098:	48 89 c7             	mov    %rax,%rdi
   1409b:	e8 53 36 ff ff       	callq  76f3 <transparent_crc>
   140a0:	8b 05 22 64 00 00    	mov    0x6422(%rip),%eax        # 1a4c8 <g_2032>
   140a6:	89 c1                	mov    %eax,%ecx
   140a8:	8b 45 fc             	mov    -0x4(%rbp),%eax
   140ab:	89 c2                	mov    %eax,%edx
   140ad:	48 8d 35 df 27 00 00 	lea    0x27df(%rip),%rsi        # 16893 <g_1428+0x183e>
   140b4:	48 89 cf             	mov    %rcx,%rdi
   140b7:	e8 37 36 ff ff       	callq  76f3 <transparent_crc>
   140bc:	8b 05 f2 86 00 00    	mov    0x86f2(%rip),%eax        # 1c7b4 <g_2083>
   140c2:	48 98                	cltq   
   140c4:	8b 55 fc             	mov    -0x4(%rbp),%edx
   140c7:	48 8d 35 cf 27 00 00 	lea    0x27cf(%rip),%rsi        # 1689d <g_1428+0x1848>
   140ce:	48 89 c7             	mov    %rax,%rdi
   140d1:	e8 1d 36 ff ff       	callq  76f3 <transparent_crc>
   140d6:	8b 05 f0 63 00 00    	mov    0x63f0(%rip),%eax        # 1a4cc <g_2106>
   140dc:	89 c1                	mov    %eax,%ecx
   140de:	8b 45 fc             	mov    -0x4(%rbp),%eax
   140e1:	89 c2                	mov    %eax,%edx
   140e3:	48 8d 35 bd 27 00 00 	lea    0x27bd(%rip),%rsi        # 168a7 <g_1428+0x1852>
   140ea:	48 89 cf             	mov    %rcx,%rdi
   140ed:	e8 01 36 ff ff       	callq  76f3 <transparent_crc>
   140f2:	8b 05 c0 86 00 00    	mov    0x86c0(%rip),%eax        # 1c7b8 <g_2112>
   140f8:	48 98                	cltq   
   140fa:	8b 55 fc             	mov    -0x4(%rbp),%edx
   140fd:	48 8d 35 aa 27 00 00 	lea    0x27aa(%rip),%rsi        # 168ae <g_1428+0x1859>
   14104:	48 89 c7             	mov    %rax,%rdi
   14107:	e8 e7 35 ff ff       	callq  76f3 <transparent_crc>
   1410c:	8b 05 a6 86 00 00    	mov    0x86a6(%rip),%eax        # 1c7b8 <g_2112>
   14112:	c1 e0 04             	shl    $0x4,%eax
   14115:	66 c1 f8 04          	sar    $0x4,%ax
   14119:	48 0f bf c0          	movswq %ax,%rax
   1411d:	8b 55 fc             	mov    -0x4(%rbp),%edx
   14120:	48 8d 35 91 27 00 00 	lea    0x2791(%rip),%rsi        # 168b8 <g_1428+0x1863>
   14127:	48 89 c7             	mov    %rax,%rdi
   1412a:	e8 c4 35 ff ff       	callq  76f3 <transparent_crc>
   1412f:	8b 05 83 86 00 00    	mov    0x8683(%rip),%eax        # 1c7b8 <g_2112>
   14135:	89 c1                	mov    %eax,%ecx
   14137:	8b 45 fc             	mov    -0x4(%rbp),%eax
   1413a:	89 c2                	mov    %eax,%edx
   1413c:	48 8d 35 7f 27 00 00 	lea    0x277f(%rip),%rsi        # 168c2 <g_1428+0x186d>
   14143:	48 89 cf             	mov    %rcx,%rdi
   14146:	e8 a8 35 ff ff       	callq  76f3 <transparent_crc>
   1414b:	c7 45 f0 00 00 00 00 	movl   $0x0,-0x10(%rbp)
   14152:	e9 b7 00 00 00       	jmpq   1420e <main+0xe2d>
   14157:	c7 45 f4 00 00 00 00 	movl   $0x0,-0xc(%rbp)
   1415e:	e9 9d 00 00 00       	jmpq   14200 <main+0xe1f>
   14163:	c7 45 f8 00 00 00 00 	movl   $0x0,-0x8(%rbp)
   1416a:	e9 83 00 00 00       	jmpq   141f2 <main+0xe11>
   1416f:	8b 45 f8             	mov    -0x8(%rbp),%eax
   14172:	48 63 f0             	movslq %eax,%rsi
   14175:	8b 45 f0             	mov    -0x10(%rbp),%eax
   14178:	48 98                	cltq   
   1417a:	8b 55 f4             	mov    -0xc(%rbp),%edx
   1417d:	48 63 ca             	movslq %edx,%rcx
   14180:	48 89 c2             	mov    %rax,%rdx
   14183:	48 01 d2             	add    %rdx,%rdx
   14186:	48 01 c2             	add    %rax,%rdx
   14189:	48 8d 04 95 00 00 00 	lea    0x0(,%rdx,4),%rax
   14190:	00 
   14191:	48 89 c2             	mov    %rax,%rdx
   14194:	48 89 c8             	mov    %rcx,%rax
   14197:	48 01 c0             	add    %rax,%rax
   1419a:	48 01 c8             	add    %rcx,%rax
   1419d:	48 01 c0             	add    %rax,%rax
   141a0:	48 01 d0             	add    %rdx,%rax
   141a3:	48 01 f0             	add    %rsi,%rax
   141a6:	48 8d 14 85 00 00 00 	lea    0x0(,%rax,4),%rdx
   141ad:	00 
   141ae:	48 8d 05 2b 63 00 00 	lea    0x632b(%rip),%rax        # 1a4e0 <g_2173>
   141b5:	8b 04 02             	mov    (%rdx,%rax,1),%eax
   141b8:	48 98                	cltq   
   141ba:	8b 55 fc             	mov    -0x4(%rbp),%edx
   141bd:	48 8d 35 08 27 00 00 	lea    0x2708(%rip),%rsi        # 168cc <g_1428+0x1877>
   141c4:	48 89 c7             	mov    %rax,%rdi
   141c7:	e8 27 35 ff ff       	callq  76f3 <transparent_crc>
   141cc:	83 7d fc 00          	cmpl   $0x0,-0x4(%rbp)
   141d0:	74 1c                	je     141ee <main+0xe0d>
   141d2:	8b 4d f8             	mov    -0x8(%rbp),%ecx
   141d5:	8b 55 f4             	mov    -0xc(%rbp),%edx
   141d8:	8b 45 f0             	mov    -0x10(%rbp),%eax
   141db:	89 c6                	mov    %eax,%esi
   141dd:	48 8d 3d 9f 24 00 00 	lea    0x249f(%rip),%rdi        # 16683 <g_1428+0x162e>
   141e4:	b8 00 00 00 00       	mov    $0x0,%eax
   141e9:	e8 92 1e ff ff       	callq  6080 <printf@plt>
   141ee:	83 45 f8 01          	addl   $0x1,-0x8(%rbp)
   141f2:	83 7d f8 05          	cmpl   $0x5,-0x8(%rbp)
   141f6:	0f 8e 73 ff ff ff    	jle    1416f <main+0xd8e>
   141fc:	83 45 f4 01          	addl   $0x1,-0xc(%rbp)
   14200:	83 7d f4 01          	cmpl   $0x1,-0xc(%rbp)
   14204:	0f 8e 59 ff ff ff    	jle    14163 <main+0xd82>
   1420a:	83 45 f0 01          	addl   $0x1,-0x10(%rbp)
   1420e:	83 7d f0 05          	cmpl   $0x5,-0x10(%rbp)
   14212:	0f 8e 3f ff ff ff    	jle    14157 <main+0xd76>
   14218:	0f b6 05 9d 85 00 00 	movzbl 0x859d(%rip),%eax        # 1c7bc <g_2192>
   1421f:	48 0f be c0          	movsbq %al,%rax
   14223:	8b 55 fc             	mov    -0x4(%rbp),%edx
   14226:	48 8d 35 af 26 00 00 	lea    0x26af(%rip),%rsi        # 168dc <g_1428+0x1887>
   1422d:	48 89 c7             	mov    %rax,%rdi
   14230:	e8 be 34 ff ff       	callq  76f3 <transparent_crc>
   14235:	c7 45 f0 00 00 00 00 	movl   $0x0,-0x10(%rbp)
   1423c:	e9 b4 00 00 00       	jmpq   142f5 <main+0xf14>
   14241:	c7 45 f4 00 00 00 00 	movl   $0x0,-0xc(%rbp)
   14248:	e9 9a 00 00 00       	jmpq   142e7 <main+0xf06>
   1424d:	c7 45 f8 00 00 00 00 	movl   $0x0,-0x8(%rbp)
   14254:	e9 80 00 00 00       	jmpq   142d9 <main+0xef8>
   14259:	8b 45 f8             	mov    -0x8(%rbp),%eax
   1425c:	48 63 f0             	movslq %eax,%rsi
   1425f:	8b 45 f0             	mov    -0x10(%rbp),%eax
   14262:	48 63 d0             	movslq %eax,%rdx
   14265:	8b 45 f4             	mov    -0xc(%rbp),%eax
   14268:	48 63 c8             	movslq %eax,%rcx
   1426b:	48 89 d0             	mov    %rdx,%rax
   1426e:	48 c1 e0 03          	shl    $0x3,%rax
   14272:	48 01 d0             	add    %rdx,%rax
   14275:	48 8d 14 c5 00 00 00 	lea    0x0(,%rax,8),%rdx
   1427c:	00 
   1427d:	48 01 d0             	add    %rdx,%rax
   14280:	48 89 ca             	mov    %rcx,%rdx
   14283:	48 c1 e2 03          	shl    $0x3,%rdx
   14287:	48 01 ca             	add    %rcx,%rdx
   1428a:	48 01 d0             	add    %rdx,%rax
   1428d:	48 8d 14 30          	lea    (%rax,%rsi,1),%rdx
   14291:	48 8d 05 68 63 00 00 	lea    0x6368(%rip),%rax        # 1a600 <g_2321>
   14298:	48 01 d0             	add    %rdx,%rax
   1429b:	0f b6 00             	movzbl (%rax),%eax
   1429e:	0f b6 c0             	movzbl %al,%eax
   142a1:	8b 55 fc             	mov    -0x4(%rbp),%edx
   142a4:	48 8d 35 38 26 00 00 	lea    0x2638(%rip),%rsi        # 168e3 <g_1428+0x188e>
   142ab:	48 89 c7             	mov    %rax,%rdi
   142ae:	e8 40 34 ff ff       	callq  76f3 <transparent_crc>
   142b3:	83 7d fc 00          	cmpl   $0x0,-0x4(%rbp)
   142b7:	74 1c                	je     142d5 <main+0xef4>
   142b9:	8b 4d f8             	mov    -0x8(%rbp),%ecx
   142bc:	8b 55 f4             	mov    -0xc(%rbp),%edx
   142bf:	8b 45 f0             	mov    -0x10(%rbp),%eax
   142c2:	89 c6                	mov    %eax,%esi
   142c4:	48 8d 3d b8 23 00 00 	lea    0x23b8(%rip),%rdi        # 16683 <g_1428+0x162e>
   142cb:	b8 00 00 00 00       	mov    $0x0,%eax
   142d0:	e8 ab 1d ff ff       	callq  6080 <printf@plt>
   142d5:	83 45 f8 01          	addl   $0x1,-0x8(%rbp)
   142d9:	83 7d f8 08          	cmpl   $0x8,-0x8(%rbp)
   142dd:	0f 8e 76 ff ff ff    	jle    14259 <main+0xe78>
   142e3:	83 45 f4 01          	addl   $0x1,-0xc(%rbp)
   142e7:	83 7d f4 08          	cmpl   $0x8,-0xc(%rbp)
   142eb:	0f 8e 5c ff ff ff    	jle    1424d <main+0xe6c>
   142f1:	83 45 f0 01          	addl   $0x1,-0x10(%rbp)
   142f5:	83 7d f0 02          	cmpl   $0x2,-0x10(%rbp)
   142f9:	0f 8e 42 ff ff ff    	jle    14241 <main+0xe60>
   142ff:	0f b7 05 ee 63 00 00 	movzwl 0x63ee(%rip),%eax        # 1a6f4 <g_2636>
   14306:	48 0f bf c0          	movswq %ax,%rax
   1430a:	8b 55 fc             	mov    -0x4(%rbp),%edx
   1430d:	48 8d 35 df 25 00 00 	lea    0x25df(%rip),%rsi        # 168f3 <g_1428+0x189e>
   14314:	48 89 c7             	mov    %rax,%rdi
   14317:	e8 d7 33 ff ff       	callq  76f3 <transparent_crc>
   1431c:	0f b6 05 d3 63 00 00 	movzbl 0x63d3(%rip),%eax        # 1a6f6 <g_2719>
   14323:	48 0f be c0          	movsbq %al,%rax
   14327:	8b 55 fc             	mov    -0x4(%rbp),%edx
   1432a:	48 8d 35 c9 25 00 00 	lea    0x25c9(%rip),%rsi        # 168fa <g_1428+0x18a5>
   14331:	48 89 c7             	mov    %rax,%rdi
   14334:	e8 ba 33 ff ff       	callq  76f3 <transparent_crc>
   14339:	8b 05 e1 5c 00 00    	mov    0x5ce1(%rip),%eax        # 1a020 <crc32_context>
   1433f:	f7 d0                	not    %eax
   14341:	89 c2                	mov    %eax,%edx
   14343:	8b 45 fc             	mov    -0x4(%rbp),%eax
   14346:	89 c6                	mov    %eax,%esi
   14348:	89 d7                	mov    %edx,%edi
   1434a:	e8 45 1e ff ff       	callq  6194 <platform_main_end>
   1434f:	b8 00 00 00 00       	mov    $0x0,%eax
   14354:	c9                   	leaveq 
   14355:	c3                   	retq   
   14356:	66 2e 0f 1f 84 00 00 	nopw   %cs:0x0(%rax,%rax,1)
   1435d:	00 00 00 

0000000000014360 <__libc_csu_init>:
   14360:	f3 0f 1e fa          	endbr64 
   14364:	41 57                	push   %r15
   14366:	4c 8d 3d 83 59 00 00 	lea    0x5983(%rip),%r15        # 19cf0 <__frame_dummy_init_array_entry>
   1436d:	41 56                	push   %r14
   1436f:	49 89 d6             	mov    %rdx,%r14
   14372:	41 55                	push   %r13
   14374:	49 89 f5             	mov    %rsi,%r13
   14377:	41 54                	push   %r12
   14379:	41 89 fc             	mov    %edi,%r12d
   1437c:	55                   	push   %rbp
   1437d:	48 8d 2d 74 59 00 00 	lea    0x5974(%rip),%rbp        # 19cf8 <__do_global_dtors_aux_fini_array_entry>
   14384:	53                   	push   %rbx
   14385:	4c 29 fd             	sub    %r15,%rbp
   14388:	48 83 ec 08          	sub    $0x8,%rsp
   1438c:	e8 6f 1c ff ff       	callq  6000 <_init>
   14391:	48 c1 fd 03          	sar    $0x3,%rbp
   14395:	74 1f                	je     143b6 <__libc_csu_init+0x56>
   14397:	31 db                	xor    %ebx,%ebx
   14399:	0f 1f 80 00 00 00 00 	nopl   0x0(%rax)
   143a0:	4c 89 f2             	mov    %r14,%rdx
   143a3:	4c 89 ee             	mov    %r13,%rsi
   143a6:	44 89 e7             	mov    %r12d,%edi
   143a9:	41 ff 14 df          	callq  *(%r15,%rbx,8)
   143ad:	48 83 c3 01          	add    $0x1,%rbx
   143b1:	48 39 dd             	cmp    %rbx,%rbp
   143b4:	75 ea                	jne    143a0 <__libc_csu_init+0x40>
   143b6:	48 83 c4 08          	add    $0x8,%rsp
   143ba:	5b                   	pop    %rbx
   143bb:	5d                   	pop    %rbp
   143bc:	41 5c                	pop    %r12
   143be:	41 5d                	pop    %r13
   143c0:	41 5e                	pop    %r14
   143c2:	41 5f                	pop    %r15
   143c4:	c3                   	retq   
   143c5:	66 66 2e 0f 1f 84 00 	data16 nopw %cs:0x0(%rax,%rax,1)
   143cc:	00 00 00 00 

00000000000143d0 <__libc_csu_fini>:
   143d0:	f3 0f 1e fa          	endbr64 
   143d4:	c3                   	retq   
