


Disassembly of section .text:

00000000000070a0 <_start>:
    70a0:	f3 0f 1e fa          	endbr64 
    70a4:	31 ed                	xor    %ebp,%ebp
    70a6:	49 89 d1             	mov    %rdx,%r9
    70a9:	5e                   	pop    %rsi
    70aa:	48 89 e2             	mov    %rsp,%rdx
    70ad:	48 83 e4 f0          	and    $0xfffffffffffffff0,%rsp
    70b1:	50                   	push   %rax
    70b2:	54                   	push   %rsp
    70b3:	4c 8d 05 06 97 00 00 	lea    0x9706(%rip),%r8        # 107c0 <__libc_csu_fini>
    70ba:	48 8d 0d 8f 96 00 00 	lea    0x968f(%rip),%rcx        # 10750 <__libc_csu_init>
    70c1:	48 8d 3d f9 83 00 00 	lea    0x83f9(%rip),%rdi        # f4c1 <main>
    70c8:	ff 15 fa de 00 00    	callq  *0xdefa(%rip)        # 14fc8 <__libc_start_main@GLIBC_2.2.5>
    70ce:	f4                   	hlt    
    70cf:	90                   	nop

00000000000070d0 <deregister_tm_clones>:
    70d0:	48 8d 3d a9 15 01 00 	lea    0x115a9(%rip),%rdi        # 18680 <__TMC_END__>
    70d7:	48 8d 05 a2 15 01 00 	lea    0x115a2(%rip),%rax        # 18680 <__TMC_END__>
    70de:	48 39 f8             	cmp    %rdi,%rax
    70e1:	74 15                	je     70f8 <deregister_tm_clones+0x28>
    70e3:	48 8b 05 d6 de 00 00 	mov    0xded6(%rip),%rax        # 14fc0 <_ITM_deregisterTMCloneTable>
    70ea:	48 85 c0             	test   %rax,%rax
    70ed:	74 09                	je     70f8 <deregister_tm_clones+0x28>
    70ef:	ff e0                	jmpq   *%rax
    70f1:	0f 1f 80 00 00 00 00 	nopl   0x0(%rax)
    70f8:	c3                   	retq   
    70f9:	0f 1f 80 00 00 00 00 	nopl   0x0(%rax)

0000000000007100 <register_tm_clones>:
    7100:	48 8d 3d 79 15 01 00 	lea    0x11579(%rip),%rdi        # 18680 <__TMC_END__>
    7107:	48 8d 35 72 15 01 00 	lea    0x11572(%rip),%rsi        # 18680 <__TMC_END__>
    710e:	48 29 fe             	sub    %rdi,%rsi
    7111:	48 89 f0             	mov    %rsi,%rax
    7114:	48 c1 ee 3f          	shr    $0x3f,%rsi
    7118:	48 c1 f8 03          	sar    $0x3,%rax
    711c:	48 01 c6             	add    %rax,%rsi
    711f:	48 d1 fe             	sar    %rsi
    7122:	74 14                	je     7138 <register_tm_clones+0x38>
    7124:	48 8b 05 ad de 00 00 	mov    0xdead(%rip),%rax        # 14fd8 <_ITM_registerTMCloneTable>
    712b:	48 85 c0             	test   %rax,%rax
    712e:	74 08                	je     7138 <register_tm_clones+0x38>
    7130:	ff e0                	jmpq   *%rax
    7132:	66 0f 1f 44 00 00    	nopw   0x0(%rax,%rax,1)
    7138:	c3                   	retq   
    7139:	0f 1f 80 00 00 00 00 	nopl   0x0(%rax)

0000000000007140 <__do_global_dtors_aux>:
    7140:	f3 0f 1e fa          	endbr64 
    7144:	80 3d 35 15 01 00 00 	cmpb   $0x0,0x11535(%rip)        # 18680 <__TMC_END__>
    714b:	75 2b                	jne    7178 <__do_global_dtors_aux+0x38>
    714d:	55                   	push   %rbp
    714e:	48 83 3d 8a de 00 00 	cmpq   $0x0,0xde8a(%rip)        # 14fe0 <__cxa_finalize@GLIBC_2.2.5>
    7155:	00 
    7156:	48 89 e5             	mov    %rsp,%rbp
    7159:	74 0c                	je     7167 <__do_global_dtors_aux+0x27>
    715b:	48 8b 3d a6 de 00 00 	mov    0xdea6(%rip),%rdi        # 15008 <__dso_handle>
    7162:	e8 f9 fe ff ff       	callq  7060 <__cxa_finalize@plt>
    7167:	e8 64 ff ff ff       	callq  70d0 <deregister_tm_clones>
    716c:	c6 05 0d 15 01 00 01 	movb   $0x1,0x1150d(%rip)        # 18680 <__TMC_END__>
    7173:	5d                   	pop    %rbp
    7174:	c3                   	retq   
    7175:	0f 1f 00             	nopl   (%rax)
    7178:	c3                   	retq   
    7179:	0f 1f 80 00 00 00 00 	nopl   0x0(%rax)

0000000000007180 <frame_dummy>:
    7180:	f3 0f 1e fa          	endbr64 
    7184:	e9 77 ff ff ff       	jmpq   7100 <register_tm_clones>

0000000000007189 <platform_main_begin>:
    7189:	f3 0f 1e fa          	endbr64 
    718d:	55                   	push   %rbp
    718e:	48 89 e5             	mov    %rsp,%rbp
    7191:	90                   	nop
    7192:	5d                   	pop    %rbp
    7193:	c3                   	retq   

0000000000007194 <platform_main_end>:
    7194:	f3 0f 1e fa          	endbr64 
    7198:	55                   	push   %rbp
    7199:	48 89 e5             	mov    %rsp,%rbp
    719c:	48 83 ec 10          	sub    $0x10,%rsp
    71a0:	89 7d fc             	mov    %edi,-0x4(%rbp)
    71a3:	89 75 f8             	mov    %esi,-0x8(%rbp)
    71a6:	8b 45 fc             	mov    -0x4(%rbp),%eax
    71a9:	89 c6                	mov    %eax,%esi
    71ab:	48 8d 3d 6e 9e 00 00 	lea    0x9e6e(%rip),%rdi        # 11020 <_IO_stdin_used+0x20>
    71b2:	b8 00 00 00 00       	mov    $0x0,%eax
    71b7:	e8 c4 fe ff ff       	callq  7080 <printf@plt>
    71bc:	90                   	nop
    71bd:	c9                   	leaveq 
    71be:	c3                   	retq   

00000000000071bf <safe_unary_minus_func_int8_t_s>:
    71bf:	f3 0f 1e fa          	endbr64 
    71c3:	55                   	push   %rbp
    71c4:	48 89 e5             	mov    %rsp,%rbp
    71c7:	89 f8                	mov    %edi,%eax
    71c9:	88 45 fc             	mov    %al,-0x4(%rbp)
    71cc:	0f b6 45 fc          	movzbl -0x4(%rbp),%eax
    71d0:	f7 d8                	neg    %eax
    71d2:	5d                   	pop    %rbp
    71d3:	c3                   	retq   

00000000000071d4 <safe_add_func_int8_t_s_s>:
    71d4:	f3 0f 1e fa          	endbr64 
    71d8:	55                   	push   %rbp
    71d9:	48 89 e5             	mov    %rsp,%rbp
    71dc:	89 fa                	mov    %edi,%edx
    71de:	89 f0                	mov    %esi,%eax
    71e0:	88 55 fc             	mov    %dl,-0x4(%rbp)
    71e3:	88 45 f8             	mov    %al,-0x8(%rbp)
    71e6:	0f b6 55 fc          	movzbl -0x4(%rbp),%edx
    71ea:	0f b6 45 f8          	movzbl -0x8(%rbp),%eax
    71ee:	01 d0                	add    %edx,%eax
    71f0:	5d                   	pop    %rbp
    71f1:	c3                   	retq   

00000000000071f2 <safe_sub_func_int8_t_s_s>:
    71f2:	f3 0f 1e fa          	endbr64 
    71f6:	55                   	push   %rbp
    71f7:	48 89 e5             	mov    %rsp,%rbp
    71fa:	89 fa                	mov    %edi,%edx
    71fc:	89 f0                	mov    %esi,%eax
    71fe:	88 55 fc             	mov    %dl,-0x4(%rbp)
    7201:	88 45 f8             	mov    %al,-0x8(%rbp)
    7204:	0f b6 55 fc          	movzbl -0x4(%rbp),%edx
    7208:	0f b6 45 f8          	movzbl -0x8(%rbp),%eax
    720c:	29 c2                	sub    %eax,%edx
    720e:	89 d0                	mov    %edx,%eax
    7210:	5d                   	pop    %rbp
    7211:	c3                   	retq   

0000000000007212 <safe_mul_func_int8_t_s_s>:
    7212:	f3 0f 1e fa          	endbr64 
    7216:	55                   	push   %rbp
    7217:	48 89 e5             	mov    %rsp,%rbp
    721a:	89 fa                	mov    %edi,%edx
    721c:	89 f0                	mov    %esi,%eax
    721e:	88 55 fc             	mov    %dl,-0x4(%rbp)
    7221:	88 45 f8             	mov    %al,-0x8(%rbp)
    7224:	0f b6 45 fc          	movzbl -0x4(%rbp),%eax
    7228:	0f b6 55 f8          	movzbl -0x8(%rbp),%edx
    722c:	0f af c2             	imul   %edx,%eax
    722f:	5d                   	pop    %rbp
    7230:	c3                   	retq   

0000000000007231 <safe_mod_func_int8_t_s_s>:
    7231:	f3 0f 1e fa          	endbr64 
    7235:	55                   	push   %rbp
    7236:	48 89 e5             	mov    %rsp,%rbp
    7239:	89 fa                	mov    %edi,%edx
    723b:	89 f0                	mov    %esi,%eax
    723d:	88 55 fc             	mov    %dl,-0x4(%rbp)
    7240:	88 45 f8             	mov    %al,-0x8(%rbp)
    7243:	80 7d f8 00          	cmpb   $0x0,-0x8(%rbp)
    7247:	74 1b                	je     7264 <safe_mod_func_int8_t_s_s+0x33>
    7249:	80 7d fc 80          	cmpb   $0x80,-0x4(%rbp)
    724d:	75 06                	jne    7255 <safe_mod_func_int8_t_s_s+0x24>
    724f:	80 7d f8 ff          	cmpb   $0xff,-0x8(%rbp)
    7253:	74 0f                	je     7264 <safe_mod_func_int8_t_s_s+0x33>
    7255:	0f be 45 fc          	movsbl -0x4(%rbp),%eax
    7259:	0f be 4d f8          	movsbl -0x8(%rbp),%ecx
    725d:	99                   	cltd   
    725e:	f7 f9                	idiv   %ecx
    7260:	89 d0                	mov    %edx,%eax
    7262:	eb 04                	jmp    7268 <safe_mod_func_int8_t_s_s+0x37>
    7264:	0f b6 45 fc          	movzbl -0x4(%rbp),%eax
    7268:	5d                   	pop    %rbp
    7269:	c3                   	retq   

000000000000726a <safe_div_func_int8_t_s_s>:
    726a:	f3 0f 1e fa          	endbr64 
    726e:	55                   	push   %rbp
    726f:	48 89 e5             	mov    %rsp,%rbp
    7272:	89 fa                	mov    %edi,%edx
    7274:	89 f0                	mov    %esi,%eax
    7276:	88 55 fc             	mov    %dl,-0x4(%rbp)
    7279:	88 45 f8             	mov    %al,-0x8(%rbp)
    727c:	80 7d f8 00          	cmpb   $0x0,-0x8(%rbp)
    7280:	74 19                	je     729b <safe_div_func_int8_t_s_s+0x31>
    7282:	80 7d fc 80          	cmpb   $0x80,-0x4(%rbp)
    7286:	75 06                	jne    728e <safe_div_func_int8_t_s_s+0x24>
    7288:	80 7d f8 ff          	cmpb   $0xff,-0x8(%rbp)
    728c:	74 0d                	je     729b <safe_div_func_int8_t_s_s+0x31>
    728e:	0f be 45 fc          	movsbl -0x4(%rbp),%eax
    7292:	0f be 4d f8          	movsbl -0x8(%rbp),%ecx
    7296:	99                   	cltd   
    7297:	f7 f9                	idiv   %ecx
    7299:	eb 04                	jmp    729f <safe_div_func_int8_t_s_s+0x35>
    729b:	0f b6 45 fc          	movzbl -0x4(%rbp),%eax
    729f:	5d                   	pop    %rbp
    72a0:	c3                   	retq   

00000000000072a1 <safe_lshift_func_int8_t_s_s>:
    72a1:	f3 0f 1e fa          	endbr64 
    72a5:	55                   	push   %rbp
    72a6:	48 89 e5             	mov    %rsp,%rbp
    72a9:	89 f8                	mov    %edi,%eax
    72ab:	89 75 f8             	mov    %esi,-0x8(%rbp)
    72ae:	88 45 fc             	mov    %al,-0x4(%rbp)
    72b1:	80 7d fc 00          	cmpb   $0x0,-0x4(%rbp)
    72b5:	78 31                	js     72e8 <safe_lshift_func_int8_t_s_s+0x47>
    72b7:	83 7d f8 00          	cmpl   $0x0,-0x8(%rbp)
    72bb:	78 2b                	js     72e8 <safe_lshift_func_int8_t_s_s+0x47>
    72bd:	83 7d f8 1f          	cmpl   $0x1f,-0x8(%rbp)
    72c1:	7f 25                	jg     72e8 <safe_lshift_func_int8_t_s_s+0x47>
    72c3:	0f be 55 fc          	movsbl -0x4(%rbp),%edx
    72c7:	8b 45 f8             	mov    -0x8(%rbp),%eax
    72ca:	be 7f 00 00 00       	mov    $0x7f,%esi
    72cf:	89 c1                	mov    %eax,%ecx
    72d1:	d3 fe                	sar    %cl,%esi
    72d3:	89 f0                	mov    %esi,%eax
    72d5:	39 c2                	cmp    %eax,%edx
    72d7:	7f 0f                	jg     72e8 <safe_lshift_func_int8_t_s_s+0x47>
    72d9:	0f be 55 fc          	movsbl -0x4(%rbp),%edx
    72dd:	8b 45 f8             	mov    -0x8(%rbp),%eax
    72e0:	89 c1                	mov    %eax,%ecx
    72e2:	d3 e2                	shl    %cl,%edx
    72e4:	89 d0                	mov    %edx,%eax
    72e6:	eb 04                	jmp    72ec <safe_lshift_func_int8_t_s_s+0x4b>
    72e8:	0f b6 45 fc          	movzbl -0x4(%rbp),%eax
    72ec:	5d                   	pop    %rbp
    72ed:	c3                   	retq   

00000000000072ee <safe_lshift_func_int8_t_s_u>:
    72ee:	f3 0f 1e fa          	endbr64 
    72f2:	55                   	push   %rbp
    72f3:	48 89 e5             	mov    %rsp,%rbp
    72f6:	89 f8                	mov    %edi,%eax
    72f8:	89 75 f8             	mov    %esi,-0x8(%rbp)
    72fb:	88 45 fc             	mov    %al,-0x4(%rbp)
    72fe:	80 7d fc 00          	cmpb   $0x0,-0x4(%rbp)
    7302:	78 2b                	js     732f <safe_lshift_func_int8_t_s_u+0x41>
    7304:	83 7d f8 1f          	cmpl   $0x1f,-0x8(%rbp)
    7308:	77 25                	ja     732f <safe_lshift_func_int8_t_s_u+0x41>
    730a:	0f be 55 fc          	movsbl -0x4(%rbp),%edx
    730e:	8b 45 f8             	mov    -0x8(%rbp),%eax
    7311:	be 7f 00 00 00       	mov    $0x7f,%esi
    7316:	89 c1                	mov    %eax,%ecx
    7318:	d3 fe                	sar    %cl,%esi
    731a:	89 f0                	mov    %esi,%eax
    731c:	39 c2                	cmp    %eax,%edx
    731e:	7f 0f                	jg     732f <safe_lshift_func_int8_t_s_u+0x41>
    7320:	0f be 55 fc          	movsbl -0x4(%rbp),%edx
    7324:	8b 45 f8             	mov    -0x8(%rbp),%eax
    7327:	89 c1                	mov    %eax,%ecx
    7329:	d3 e2                	shl    %cl,%edx
    732b:	89 d0                	mov    %edx,%eax
    732d:	eb 04                	jmp    7333 <safe_lshift_func_int8_t_s_u+0x45>
    732f:	0f b6 45 fc          	movzbl -0x4(%rbp),%eax
    7333:	5d                   	pop    %rbp
    7334:	c3                   	retq   

0000000000007335 <safe_rshift_func_int8_t_s_s>:
    7335:	f3 0f 1e fa          	endbr64 
    7339:	55                   	push   %rbp
    733a:	48 89 e5             	mov    %rsp,%rbp
    733d:	89 f8                	mov    %edi,%eax
    733f:	89 75 f8             	mov    %esi,-0x8(%rbp)
    7342:	88 45 fc             	mov    %al,-0x4(%rbp)
    7345:	80 7d fc 00          	cmpb   $0x0,-0x4(%rbp)
    7349:	78 1b                	js     7366 <safe_rshift_func_int8_t_s_s+0x31>
    734b:	83 7d f8 00          	cmpl   $0x0,-0x8(%rbp)
    734f:	78 15                	js     7366 <safe_rshift_func_int8_t_s_s+0x31>
    7351:	83 7d f8 1f          	cmpl   $0x1f,-0x8(%rbp)
    7355:	7f 0f                	jg     7366 <safe_rshift_func_int8_t_s_s+0x31>
    7357:	0f be 55 fc          	movsbl -0x4(%rbp),%edx
    735b:	8b 45 f8             	mov    -0x8(%rbp),%eax
    735e:	89 c1                	mov    %eax,%ecx
    7360:	d3 fa                	sar    %cl,%edx
    7362:	89 d0                	mov    %edx,%eax
    7364:	eb 04                	jmp    736a <safe_rshift_func_int8_t_s_s+0x35>
    7366:	0f b6 45 fc          	movzbl -0x4(%rbp),%eax
    736a:	5d                   	pop    %rbp
    736b:	c3                   	retq   

000000000000736c <safe_rshift_func_int8_t_s_u>:
    736c:	f3 0f 1e fa          	endbr64 
    7370:	55                   	push   %rbp
    7371:	48 89 e5             	mov    %rsp,%rbp
    7374:	89 f8                	mov    %edi,%eax
    7376:	89 75 f8             	mov    %esi,-0x8(%rbp)
    7379:	88 45 fc             	mov    %al,-0x4(%rbp)
    737c:	80 7d fc 00          	cmpb   $0x0,-0x4(%rbp)
    7380:	78 15                	js     7397 <safe_rshift_func_int8_t_s_u+0x2b>
    7382:	83 7d f8 1f          	cmpl   $0x1f,-0x8(%rbp)
    7386:	77 0f                	ja     7397 <safe_rshift_func_int8_t_s_u+0x2b>
    7388:	0f be 55 fc          	movsbl -0x4(%rbp),%edx
    738c:	8b 45 f8             	mov    -0x8(%rbp),%eax
    738f:	89 c1                	mov    %eax,%ecx
    7391:	d3 fa                	sar    %cl,%edx
    7393:	89 d0                	mov    %edx,%eax
    7395:	eb 04                	jmp    739b <safe_rshift_func_int8_t_s_u+0x2f>
    7397:	0f b6 45 fc          	movzbl -0x4(%rbp),%eax
    739b:	5d                   	pop    %rbp
    739c:	c3                   	retq   

000000000000739d <safe_unary_minus_func_int16_t_s>:
    739d:	f3 0f 1e fa          	endbr64 
    73a1:	55                   	push   %rbp
    73a2:	48 89 e5             	mov    %rsp,%rbp
    73a5:	89 f8                	mov    %edi,%eax
    73a7:	66 89 45 fc          	mov    %ax,-0x4(%rbp)
    73ab:	0f b7 45 fc          	movzwl -0x4(%rbp),%eax
    73af:	f7 d8                	neg    %eax
    73b1:	5d                   	pop    %rbp
    73b2:	c3                   	retq   

00000000000073b3 <safe_add_func_int16_t_s_s>:
    73b3:	f3 0f 1e fa          	endbr64 
    73b7:	55                   	push   %rbp
    73b8:	48 89 e5             	mov    %rsp,%rbp
    73bb:	89 fa                	mov    %edi,%edx
    73bd:	89 f0                	mov    %esi,%eax
    73bf:	66 89 55 fc          	mov    %dx,-0x4(%rbp)
    73c3:	66 89 45 f8          	mov    %ax,-0x8(%rbp)
    73c7:	0f b7 55 fc          	movzwl -0x4(%rbp),%edx
    73cb:	0f b7 45 f8          	movzwl -0x8(%rbp),%eax
    73cf:	01 d0                	add    %edx,%eax
    73d1:	5d                   	pop    %rbp
    73d2:	c3                   	retq   

00000000000073d3 <safe_sub_func_int16_t_s_s>:
    73d3:	f3 0f 1e fa          	endbr64 
    73d7:	55                   	push   %rbp
    73d8:	48 89 e5             	mov    %rsp,%rbp
    73db:	89 fa                	mov    %edi,%edx
    73dd:	89 f0                	mov    %esi,%eax
    73df:	66 89 55 fc          	mov    %dx,-0x4(%rbp)
    73e3:	66 89 45 f8          	mov    %ax,-0x8(%rbp)
    73e7:	0f b7 55 fc          	movzwl -0x4(%rbp),%edx
    73eb:	0f b7 45 f8          	movzwl -0x8(%rbp),%eax
    73ef:	29 c2                	sub    %eax,%edx
    73f1:	89 d0                	mov    %edx,%eax
    73f3:	5d                   	pop    %rbp
    73f4:	c3                   	retq   

00000000000073f5 <safe_mul_func_int16_t_s_s>:
    73f5:	f3 0f 1e fa          	endbr64 
    73f9:	55                   	push   %rbp
    73fa:	48 89 e5             	mov    %rsp,%rbp
    73fd:	89 fa                	mov    %edi,%edx
    73ff:	89 f0                	mov    %esi,%eax
    7401:	66 89 55 fc          	mov    %dx,-0x4(%rbp)
    7405:	66 89 45 f8          	mov    %ax,-0x8(%rbp)
    7409:	0f b7 55 fc          	movzwl -0x4(%rbp),%edx
    740d:	0f b7 45 f8          	movzwl -0x8(%rbp),%eax
    7411:	0f af c2             	imul   %edx,%eax
    7414:	5d                   	pop    %rbp
    7415:	c3                   	retq   

0000000000007416 <safe_mod_func_int16_t_s_s>:
    7416:	f3 0f 1e fa          	endbr64 
    741a:	55                   	push   %rbp
    741b:	48 89 e5             	mov    %rsp,%rbp
    741e:	89 fa                	mov    %edi,%edx
    7420:	89 f0                	mov    %esi,%eax
    7422:	66 89 55 fc          	mov    %dx,-0x4(%rbp)
    7426:	66 89 45 f8          	mov    %ax,-0x8(%rbp)
    742a:	66 83 7d f8 00       	cmpw   $0x0,-0x8(%rbp)
    742f:	74 1e                	je     744f <safe_mod_func_int16_t_s_s+0x39>
    7431:	66 81 7d fc 00 80    	cmpw   $0x8000,-0x4(%rbp)
    7437:	75 07                	jne    7440 <safe_mod_func_int16_t_s_s+0x2a>
    7439:	66 83 7d f8 ff       	cmpw   $0xffff,-0x8(%rbp)
    743e:	74 0f                	je     744f <safe_mod_func_int16_t_s_s+0x39>
    7440:	0f bf 45 fc          	movswl -0x4(%rbp),%eax
    7444:	0f bf 4d f8          	movswl -0x8(%rbp),%ecx
    7448:	99                   	cltd   
    7449:	f7 f9                	idiv   %ecx
    744b:	89 d0                	mov    %edx,%eax
    744d:	eb 04                	jmp    7453 <safe_mod_func_int16_t_s_s+0x3d>
    744f:	0f b7 45 fc          	movzwl -0x4(%rbp),%eax
    7453:	5d                   	pop    %rbp
    7454:	c3                   	retq   

0000000000007455 <safe_div_func_int16_t_s_s>:
    7455:	f3 0f 1e fa          	endbr64 
    7459:	55                   	push   %rbp
    745a:	48 89 e5             	mov    %rsp,%rbp
    745d:	89 fa                	mov    %edi,%edx
    745f:	89 f0                	mov    %esi,%eax
    7461:	66 89 55 fc          	mov    %dx,-0x4(%rbp)
    7465:	66 89 45 f8          	mov    %ax,-0x8(%rbp)
    7469:	66 83 7d f8 00       	cmpw   $0x0,-0x8(%rbp)
    746e:	74 1c                	je     748c <safe_div_func_int16_t_s_s+0x37>
    7470:	66 81 7d fc 00 80    	cmpw   $0x8000,-0x4(%rbp)
    7476:	75 07                	jne    747f <safe_div_func_int16_t_s_s+0x2a>
    7478:	66 83 7d f8 ff       	cmpw   $0xffff,-0x8(%rbp)
    747d:	74 0d                	je     748c <safe_div_func_int16_t_s_s+0x37>
    747f:	0f bf 45 fc          	movswl -0x4(%rbp),%eax
    7483:	0f bf 4d f8          	movswl -0x8(%rbp),%ecx
    7487:	99                   	cltd   
    7488:	f7 f9                	idiv   %ecx
    748a:	eb 04                	jmp    7490 <safe_div_func_int16_t_s_s+0x3b>
    748c:	0f b7 45 fc          	movzwl -0x4(%rbp),%eax
    7490:	5d                   	pop    %rbp
    7491:	c3                   	retq   

0000000000007492 <safe_lshift_func_int16_t_s_s>:
    7492:	f3 0f 1e fa          	endbr64 
    7496:	55                   	push   %rbp
    7497:	48 89 e5             	mov    %rsp,%rbp
    749a:	89 f8                	mov    %edi,%eax
    749c:	89 75 f8             	mov    %esi,-0x8(%rbp)
    749f:	66 89 45 fc          	mov    %ax,-0x4(%rbp)
    74a3:	66 83 7d fc 00       	cmpw   $0x0,-0x4(%rbp)
    74a8:	78 31                	js     74db <safe_lshift_func_int16_t_s_s+0x49>
    74aa:	83 7d f8 00          	cmpl   $0x0,-0x8(%rbp)
    74ae:	78 2b                	js     74db <safe_lshift_func_int16_t_s_s+0x49>
    74b0:	83 7d f8 1f          	cmpl   $0x1f,-0x8(%rbp)
    74b4:	7f 25                	jg     74db <safe_lshift_func_int16_t_s_s+0x49>
    74b6:	0f bf 55 fc          	movswl -0x4(%rbp),%edx
    74ba:	8b 45 f8             	mov    -0x8(%rbp),%eax
    74bd:	be ff 7f 00 00       	mov    $0x7fff,%esi
    74c2:	89 c1                	mov    %eax,%ecx
    74c4:	d3 fe                	sar    %cl,%esi
    74c6:	89 f0                	mov    %esi,%eax
    74c8:	39 c2                	cmp    %eax,%edx
    74ca:	7f 0f                	jg     74db <safe_lshift_func_int16_t_s_s+0x49>
    74cc:	0f bf 55 fc          	movswl -0x4(%rbp),%edx
    74d0:	8b 45 f8             	mov    -0x8(%rbp),%eax
    74d3:	89 c1                	mov    %eax,%ecx
    74d5:	d3 e2                	shl    %cl,%edx
    74d7:	89 d0                	mov    %edx,%eax
    74d9:	eb 04                	jmp    74df <safe_lshift_func_int16_t_s_s+0x4d>
    74db:	0f b7 45 fc          	movzwl -0x4(%rbp),%eax
    74df:	5d                   	pop    %rbp
    74e0:	c3                   	retq   

00000000000074e1 <safe_lshift_func_int16_t_s_u>:
    74e1:	f3 0f 1e fa          	endbr64 
    74e5:	55                   	push   %rbp
    74e6:	48 89 e5             	mov    %rsp,%rbp
    74e9:	89 f8                	mov    %edi,%eax
    74eb:	89 75 f8             	mov    %esi,-0x8(%rbp)
    74ee:	66 89 45 fc          	mov    %ax,-0x4(%rbp)
    74f2:	66 83 7d fc 00       	cmpw   $0x0,-0x4(%rbp)
    74f7:	78 2b                	js     7524 <safe_lshift_func_int16_t_s_u+0x43>
    74f9:	83 7d f8 1f          	cmpl   $0x1f,-0x8(%rbp)
    74fd:	77 25                	ja     7524 <safe_lshift_func_int16_t_s_u+0x43>
    74ff:	0f bf 55 fc          	movswl -0x4(%rbp),%edx
    7503:	8b 45 f8             	mov    -0x8(%rbp),%eax
    7506:	be ff 7f 00 00       	mov    $0x7fff,%esi
    750b:	89 c1                	mov    %eax,%ecx
    750d:	d3 fe                	sar    %cl,%esi
    750f:	89 f0                	mov    %esi,%eax
    7511:	39 c2                	cmp    %eax,%edx
    7513:	7f 0f                	jg     7524 <safe_lshift_func_int16_t_s_u+0x43>
    7515:	0f bf 55 fc          	movswl -0x4(%rbp),%edx
    7519:	8b 45 f8             	mov    -0x8(%rbp),%eax
    751c:	89 c1                	mov    %eax,%ecx
    751e:	d3 e2                	shl    %cl,%edx
    7520:	89 d0                	mov    %edx,%eax
    7522:	eb 04                	jmp    7528 <safe_lshift_func_int16_t_s_u+0x47>
    7524:	0f b7 45 fc          	movzwl -0x4(%rbp),%eax
    7528:	5d                   	pop    %rbp
    7529:	c3                   	retq   

000000000000752a <safe_rshift_func_int16_t_s_s>:
    752a:	f3 0f 1e fa          	endbr64 
    752e:	55                   	push   %rbp
    752f:	48 89 e5             	mov    %rsp,%rbp
    7532:	89 f8                	mov    %edi,%eax
    7534:	89 75 f8             	mov    %esi,-0x8(%rbp)
    7537:	66 89 45 fc          	mov    %ax,-0x4(%rbp)
    753b:	66 83 7d fc 00       	cmpw   $0x0,-0x4(%rbp)
    7540:	78 1b                	js     755d <safe_rshift_func_int16_t_s_s+0x33>
    7542:	83 7d f8 00          	cmpl   $0x0,-0x8(%rbp)
    7546:	78 15                	js     755d <safe_rshift_func_int16_t_s_s+0x33>
    7548:	83 7d f8 1f          	cmpl   $0x1f,-0x8(%rbp)
    754c:	7f 0f                	jg     755d <safe_rshift_func_int16_t_s_s+0x33>
    754e:	0f bf 55 fc          	movswl -0x4(%rbp),%edx
    7552:	8b 45 f8             	mov    -0x8(%rbp),%eax
    7555:	89 c1                	mov    %eax,%ecx
    7557:	d3 fa                	sar    %cl,%edx
    7559:	89 d0                	mov    %edx,%eax
    755b:	eb 04                	jmp    7561 <safe_rshift_func_int16_t_s_s+0x37>
    755d:	0f b7 45 fc          	movzwl -0x4(%rbp),%eax
    7561:	5d                   	pop    %rbp
    7562:	c3                   	retq   

0000000000007563 <safe_rshift_func_int16_t_s_u>:
    7563:	f3 0f 1e fa          	endbr64 
    7567:	55                   	push   %rbp
    7568:	48 89 e5             	mov    %rsp,%rbp
    756b:	89 f8                	mov    %edi,%eax
    756d:	89 75 f8             	mov    %esi,-0x8(%rbp)
    7570:	66 89 45 fc          	mov    %ax,-0x4(%rbp)
    7574:	66 83 7d fc 00       	cmpw   $0x0,-0x4(%rbp)
    7579:	78 15                	js     7590 <safe_rshift_func_int16_t_s_u+0x2d>
    757b:	83 7d f8 1f          	cmpl   $0x1f,-0x8(%rbp)
    757f:	77 0f                	ja     7590 <safe_rshift_func_int16_t_s_u+0x2d>
    7581:	0f bf 55 fc          	movswl -0x4(%rbp),%edx
    7585:	8b 45 f8             	mov    -0x8(%rbp),%eax
    7588:	89 c1                	mov    %eax,%ecx
    758a:	d3 fa                	sar    %cl,%edx
    758c:	89 d0                	mov    %edx,%eax
    758e:	eb 04                	jmp    7594 <safe_rshift_func_int16_t_s_u+0x31>
    7590:	0f b7 45 fc          	movzwl -0x4(%rbp),%eax
    7594:	5d                   	pop    %rbp
    7595:	c3                   	retq   

0000000000007596 <safe_unary_minus_func_int32_t_s>:
    7596:	f3 0f 1e fa          	endbr64 
    759a:	55                   	push   %rbp
    759b:	48 89 e5             	mov    %rsp,%rbp
    759e:	89 7d fc             	mov    %edi,-0x4(%rbp)
    75a1:	81 7d fc 00 00 00 80 	cmpl   $0x80000000,-0x4(%rbp)
    75a8:	74 07                	je     75b1 <safe_unary_minus_func_int32_t_s+0x1b>
    75aa:	8b 45 fc             	mov    -0x4(%rbp),%eax
    75ad:	f7 d8                	neg    %eax
    75af:	eb 03                	jmp    75b4 <safe_unary_minus_func_int32_t_s+0x1e>
    75b1:	8b 45 fc             	mov    -0x4(%rbp),%eax
    75b4:	5d                   	pop    %rbp
    75b5:	c3                   	retq   

00000000000075b6 <safe_add_func_int32_t_s_s>:
    75b6:	f3 0f 1e fa          	endbr64 
    75ba:	55                   	push   %rbp
    75bb:	48 89 e5             	mov    %rsp,%rbp
    75be:	89 7d fc             	mov    %edi,-0x4(%rbp)
    75c1:	89 75 f8             	mov    %esi,-0x8(%rbp)
    75c4:	83 7d fc 00          	cmpl   $0x0,-0x4(%rbp)
    75c8:	7e 13                	jle    75dd <safe_add_func_int32_t_s_s+0x27>
    75ca:	83 7d f8 00          	cmpl   $0x0,-0x8(%rbp)
    75ce:	7e 0d                	jle    75dd <safe_add_func_int32_t_s_s+0x27>
    75d0:	b8 ff ff ff 7f       	mov    $0x7fffffff,%eax
    75d5:	2b 45 f8             	sub    -0x8(%rbp),%eax
    75d8:	39 45 fc             	cmp    %eax,-0x4(%rbp)
    75db:	7f 23                	jg     7600 <safe_add_func_int32_t_s_s+0x4a>
    75dd:	83 7d fc 00          	cmpl   $0x0,-0x4(%rbp)
    75e1:	79 13                	jns    75f6 <safe_add_func_int32_t_s_s+0x40>
    75e3:	83 7d f8 00          	cmpl   $0x0,-0x8(%rbp)
    75e7:	79 0d                	jns    75f6 <safe_add_func_int32_t_s_s+0x40>
    75e9:	b8 00 00 00 80       	mov    $0x80000000,%eax
    75ee:	2b 45 f8             	sub    -0x8(%rbp),%eax
    75f1:	39 45 fc             	cmp    %eax,-0x4(%rbp)
    75f4:	7c 0a                	jl     7600 <safe_add_func_int32_t_s_s+0x4a>
    75f6:	8b 55 fc             	mov    -0x4(%rbp),%edx
    75f9:	8b 45 f8             	mov    -0x8(%rbp),%eax
    75fc:	01 d0                	add    %edx,%eax
    75fe:	eb 03                	jmp    7603 <safe_add_func_int32_t_s_s+0x4d>
    7600:	8b 45 fc             	mov    -0x4(%rbp),%eax
    7603:	5d                   	pop    %rbp
    7604:	c3                   	retq   

0000000000007605 <safe_sub_func_int32_t_s_s>:
    7605:	f3 0f 1e fa          	endbr64 
    7609:	55                   	push   %rbp
    760a:	48 89 e5             	mov    %rsp,%rbp
    760d:	89 7d fc             	mov    %edi,-0x4(%rbp)
    7610:	89 75 f8             	mov    %esi,-0x8(%rbp)
    7613:	8b 45 fc             	mov    -0x4(%rbp),%eax
    7616:	33 45 f8             	xor    -0x8(%rbp),%eax
    7619:	89 c2                	mov    %eax,%edx
    761b:	8b 45 fc             	mov    -0x4(%rbp),%eax
    761e:	33 45 f8             	xor    -0x8(%rbp),%eax
    7621:	25 00 00 00 80       	and    $0x80000000,%eax
    7626:	33 45 fc             	xor    -0x4(%rbp),%eax
    7629:	2b 45 f8             	sub    -0x8(%rbp),%eax
    762c:	33 45 f8             	xor    -0x8(%rbp),%eax
    762f:	21 d0                	and    %edx,%eax
    7631:	85 c0                	test   %eax,%eax
    7633:	78 08                	js     763d <safe_sub_func_int32_t_s_s+0x38>
    7635:	8b 45 fc             	mov    -0x4(%rbp),%eax
    7638:	2b 45 f8             	sub    -0x8(%rbp),%eax
    763b:	eb 03                	jmp    7640 <safe_sub_func_int32_t_s_s+0x3b>
    763d:	8b 45 fc             	mov    -0x4(%rbp),%eax
    7640:	5d                   	pop    %rbp
    7641:	c3                   	retq   

0000000000007642 <safe_mul_func_int32_t_s_s>:
    7642:	f3 0f 1e fa          	endbr64 
    7646:	55                   	push   %rbp
    7647:	48 89 e5             	mov    %rsp,%rbp
    764a:	89 7d fc             	mov    %edi,-0x4(%rbp)
    764d:	89 75 f8             	mov    %esi,-0x8(%rbp)
    7650:	83 7d fc 00          	cmpl   $0x0,-0x4(%rbp)
    7654:	7e 14                	jle    766a <safe_mul_func_int32_t_s_s+0x28>
    7656:	83 7d f8 00          	cmpl   $0x0,-0x8(%rbp)
    765a:	7e 0e                	jle    766a <safe_mul_func_int32_t_s_s+0x28>
    765c:	b8 ff ff ff 7f       	mov    $0x7fffffff,%eax
    7661:	99                   	cltd   
    7662:	f7 7d f8             	idivl  -0x8(%rbp)
    7665:	39 45 fc             	cmp    %eax,-0x4(%rbp)
    7668:	7f 5d                	jg     76c7 <safe_mul_func_int32_t_s_s+0x85>
    766a:	83 7d fc 00          	cmpl   $0x0,-0x4(%rbp)
    766e:	7e 14                	jle    7684 <safe_mul_func_int32_t_s_s+0x42>
    7670:	83 7d f8 00          	cmpl   $0x0,-0x8(%rbp)
    7674:	7f 0e                	jg     7684 <safe_mul_func_int32_t_s_s+0x42>
    7676:	b8 00 00 00 80       	mov    $0x80000000,%eax
    767b:	99                   	cltd   
    767c:	f7 7d fc             	idivl  -0x4(%rbp)
    767f:	39 45 f8             	cmp    %eax,-0x8(%rbp)
    7682:	7c 43                	jl     76c7 <safe_mul_func_int32_t_s_s+0x85>
    7684:	83 7d fc 00          	cmpl   $0x0,-0x4(%rbp)
    7688:	7f 14                	jg     769e <safe_mul_func_int32_t_s_s+0x5c>
    768a:	83 7d f8 00          	cmpl   $0x0,-0x8(%rbp)
    768e:	7e 0e                	jle    769e <safe_mul_func_int32_t_s_s+0x5c>
    7690:	b8 00 00 00 80       	mov    $0x80000000,%eax
    7695:	99                   	cltd   
    7696:	f7 7d f8             	idivl  -0x8(%rbp)
    7699:	39 45 fc             	cmp    %eax,-0x4(%rbp)
    769c:	7c 29                	jl     76c7 <safe_mul_func_int32_t_s_s+0x85>
    769e:	83 7d fc 00          	cmpl   $0x0,-0x4(%rbp)
    76a2:	7f 1a                	jg     76be <safe_mul_func_int32_t_s_s+0x7c>
    76a4:	83 7d f8 00          	cmpl   $0x0,-0x8(%rbp)
    76a8:	7f 14                	jg     76be <safe_mul_func_int32_t_s_s+0x7c>
    76aa:	83 7d fc 00          	cmpl   $0x0,-0x4(%rbp)
    76ae:	74 0e                	je     76be <safe_mul_func_int32_t_s_s+0x7c>
    76b0:	b8 ff ff ff 7f       	mov    $0x7fffffff,%eax
    76b5:	99                   	cltd   
    76b6:	f7 7d fc             	idivl  -0x4(%rbp)
    76b9:	39 45 f8             	cmp    %eax,-0x8(%rbp)
    76bc:	7c 09                	jl     76c7 <safe_mul_func_int32_t_s_s+0x85>
    76be:	8b 45 fc             	mov    -0x4(%rbp),%eax
    76c1:	0f af 45 f8          	imul   -0x8(%rbp),%eax
    76c5:	eb 03                	jmp    76ca <safe_mul_func_int32_t_s_s+0x88>
    76c7:	8b 45 fc             	mov    -0x4(%rbp),%eax
    76ca:	5d                   	pop    %rbp
    76cb:	c3                   	retq   

00000000000076cc <safe_mod_func_int32_t_s_s>:
    76cc:	f3 0f 1e fa          	endbr64 
    76d0:	55                   	push   %rbp
    76d1:	48 89 e5             	mov    %rsp,%rbp
    76d4:	89 7d fc             	mov    %edi,-0x4(%rbp)
    76d7:	89 75 f8             	mov    %esi,-0x8(%rbp)
    76da:	83 7d f8 00          	cmpl   $0x0,-0x8(%rbp)
    76de:	74 1a                	je     76fa <safe_mod_func_int32_t_s_s+0x2e>
    76e0:	81 7d fc 00 00 00 80 	cmpl   $0x80000000,-0x4(%rbp)
    76e7:	75 06                	jne    76ef <safe_mod_func_int32_t_s_s+0x23>
    76e9:	83 7d f8 ff          	cmpl   $0xffffffff,-0x8(%rbp)
    76ed:	74 0b                	je     76fa <safe_mod_func_int32_t_s_s+0x2e>
    76ef:	8b 45 fc             	mov    -0x4(%rbp),%eax
    76f2:	99                   	cltd   
    76f3:	f7 7d f8             	idivl  -0x8(%rbp)
    76f6:	89 d0                	mov    %edx,%eax
    76f8:	eb 03                	jmp    76fd <safe_mod_func_int32_t_s_s+0x31>
    76fa:	8b 45 fc             	mov    -0x4(%rbp),%eax
    76fd:	5d                   	pop    %rbp
    76fe:	c3                   	retq   

00000000000076ff <safe_div_func_int32_t_s_s>:
    76ff:	f3 0f 1e fa          	endbr64 
    7703:	55                   	push   %rbp
    7704:	48 89 e5             	mov    %rsp,%rbp
    7707:	89 7d fc             	mov    %edi,-0x4(%rbp)
    770a:	89 75 f8             	mov    %esi,-0x8(%rbp)
    770d:	83 7d f8 00          	cmpl   $0x0,-0x8(%rbp)
    7711:	74 18                	je     772b <safe_div_func_int32_t_s_s+0x2c>
    7713:	81 7d fc 00 00 00 80 	cmpl   $0x80000000,-0x4(%rbp)
    771a:	75 06                	jne    7722 <safe_div_func_int32_t_s_s+0x23>
    771c:	83 7d f8 ff          	cmpl   $0xffffffff,-0x8(%rbp)
    7720:	74 09                	je     772b <safe_div_func_int32_t_s_s+0x2c>
    7722:	8b 45 fc             	mov    -0x4(%rbp),%eax
    7725:	99                   	cltd   
    7726:	f7 7d f8             	idivl  -0x8(%rbp)
    7729:	eb 03                	jmp    772e <safe_div_func_int32_t_s_s+0x2f>
    772b:	8b 45 fc             	mov    -0x4(%rbp),%eax
    772e:	5d                   	pop    %rbp
    772f:	c3                   	retq   

0000000000007730 <safe_lshift_func_int32_t_s_s>:
    7730:	f3 0f 1e fa          	endbr64 
    7734:	55                   	push   %rbp
    7735:	48 89 e5             	mov    %rsp,%rbp
    7738:	89 7d fc             	mov    %edi,-0x4(%rbp)
    773b:	89 75 f8             	mov    %esi,-0x8(%rbp)
    773e:	83 7d fc 00          	cmpl   $0x0,-0x4(%rbp)
    7742:	78 2d                	js     7771 <safe_lshift_func_int32_t_s_s+0x41>
    7744:	83 7d f8 00          	cmpl   $0x0,-0x8(%rbp)
    7748:	78 27                	js     7771 <safe_lshift_func_int32_t_s_s+0x41>
    774a:	83 7d f8 1f          	cmpl   $0x1f,-0x8(%rbp)
    774e:	7f 21                	jg     7771 <safe_lshift_func_int32_t_s_s+0x41>
    7750:	8b 45 f8             	mov    -0x8(%rbp),%eax
    7753:	ba ff ff ff 7f       	mov    $0x7fffffff,%edx
    7758:	89 c1                	mov    %eax,%ecx
    775a:	d3 fa                	sar    %cl,%edx
    775c:	89 d0                	mov    %edx,%eax
    775e:	39 45 fc             	cmp    %eax,-0x4(%rbp)
    7761:	7f 0e                	jg     7771 <safe_lshift_func_int32_t_s_s+0x41>
    7763:	8b 45 f8             	mov    -0x8(%rbp),%eax
    7766:	8b 55 fc             	mov    -0x4(%rbp),%edx
    7769:	89 c1                	mov    %eax,%ecx
    776b:	d3 e2                	shl    %cl,%edx
    776d:	89 d0                	mov    %edx,%eax
    776f:	eb 03                	jmp    7774 <safe_lshift_func_int32_t_s_s+0x44>
    7771:	8b 45 fc             	mov    -0x4(%rbp),%eax
    7774:	5d                   	pop    %rbp
    7775:	c3                   	retq   

0000000000007776 <safe_lshift_func_int32_t_s_u>:
    7776:	f3 0f 1e fa          	endbr64 
    777a:	55                   	push   %rbp
    777b:	48 89 e5             	mov    %rsp,%rbp
    777e:	89 7d fc             	mov    %edi,-0x4(%rbp)
    7781:	89 75 f8             	mov    %esi,-0x8(%rbp)
    7784:	83 7d fc 00          	cmpl   $0x0,-0x4(%rbp)
    7788:	78 27                	js     77b1 <safe_lshift_func_int32_t_s_u+0x3b>
    778a:	83 7d f8 1f          	cmpl   $0x1f,-0x8(%rbp)
    778e:	77 21                	ja     77b1 <safe_lshift_func_int32_t_s_u+0x3b>
    7790:	8b 45 f8             	mov    -0x8(%rbp),%eax
    7793:	ba ff ff ff 7f       	mov    $0x7fffffff,%edx
    7798:	89 c1                	mov    %eax,%ecx
    779a:	d3 fa                	sar    %cl,%edx
    779c:	89 d0                	mov    %edx,%eax
    779e:	39 45 fc             	cmp    %eax,-0x4(%rbp)
    77a1:	7f 0e                	jg     77b1 <safe_lshift_func_int32_t_s_u+0x3b>
    77a3:	8b 45 f8             	mov    -0x8(%rbp),%eax
    77a6:	8b 55 fc             	mov    -0x4(%rbp),%edx
    77a9:	89 c1                	mov    %eax,%ecx
    77ab:	d3 e2                	shl    %cl,%edx
    77ad:	89 d0                	mov    %edx,%eax
    77af:	eb 03                	jmp    77b4 <safe_lshift_func_int32_t_s_u+0x3e>
    77b1:	8b 45 fc             	mov    -0x4(%rbp),%eax
    77b4:	5d                   	pop    %rbp
    77b5:	c3                   	retq   

00000000000077b6 <safe_rshift_func_int32_t_s_s>:
    77b6:	f3 0f 1e fa          	endbr64 
    77ba:	55                   	push   %rbp
    77bb:	48 89 e5             	mov    %rsp,%rbp
    77be:	89 7d fc             	mov    %edi,-0x4(%rbp)
    77c1:	89 75 f8             	mov    %esi,-0x8(%rbp)
    77c4:	83 7d fc 00          	cmpl   $0x0,-0x4(%rbp)
    77c8:	78 1a                	js     77e4 <safe_rshift_func_int32_t_s_s+0x2e>
    77ca:	83 7d f8 00          	cmpl   $0x0,-0x8(%rbp)
    77ce:	78 14                	js     77e4 <safe_rshift_func_int32_t_s_s+0x2e>
    77d0:	83 7d f8 1f          	cmpl   $0x1f,-0x8(%rbp)
    77d4:	7f 0e                	jg     77e4 <safe_rshift_func_int32_t_s_s+0x2e>
    77d6:	8b 45 f8             	mov    -0x8(%rbp),%eax
    77d9:	8b 55 fc             	mov    -0x4(%rbp),%edx
    77dc:	89 c1                	mov    %eax,%ecx
    77de:	d3 fa                	sar    %cl,%edx
    77e0:	89 d0                	mov    %edx,%eax
    77e2:	eb 03                	jmp    77e7 <safe_rshift_func_int32_t_s_s+0x31>
    77e4:	8b 45 fc             	mov    -0x4(%rbp),%eax
    77e7:	5d                   	pop    %rbp
    77e8:	c3                   	retq   

00000000000077e9 <safe_rshift_func_int32_t_s_u>:
    77e9:	f3 0f 1e fa          	endbr64 
    77ed:	55                   	push   %rbp
    77ee:	48 89 e5             	mov    %rsp,%rbp
    77f1:	89 7d fc             	mov    %edi,-0x4(%rbp)
    77f4:	89 75 f8             	mov    %esi,-0x8(%rbp)
    77f7:	83 7d fc 00          	cmpl   $0x0,-0x4(%rbp)
    77fb:	78 14                	js     7811 <safe_rshift_func_int32_t_s_u+0x28>
    77fd:	83 7d f8 1f          	cmpl   $0x1f,-0x8(%rbp)
    7801:	77 0e                	ja     7811 <safe_rshift_func_int32_t_s_u+0x28>
    7803:	8b 45 f8             	mov    -0x8(%rbp),%eax
    7806:	8b 55 fc             	mov    -0x4(%rbp),%edx
    7809:	89 c1                	mov    %eax,%ecx
    780b:	d3 fa                	sar    %cl,%edx
    780d:	89 d0                	mov    %edx,%eax
    780f:	eb 03                	jmp    7814 <safe_rshift_func_int32_t_s_u+0x2b>
    7811:	8b 45 fc             	mov    -0x4(%rbp),%eax
    7814:	5d                   	pop    %rbp
    7815:	c3                   	retq   

0000000000007816 <safe_unary_minus_func_int64_t_s>:
    7816:	f3 0f 1e fa          	endbr64 
    781a:	55                   	push   %rbp
    781b:	48 89 e5             	mov    %rsp,%rbp
    781e:	48 89 7d f8          	mov    %rdi,-0x8(%rbp)
    7822:	48 b8 00 00 00 00 00 	movabs $0x8000000000000000,%rax
    7829:	00 00 80 
    782c:	48 39 45 f8          	cmp    %rax,-0x8(%rbp)
    7830:	74 09                	je     783b <safe_unary_minus_func_int64_t_s+0x25>
    7832:	48 8b 45 f8          	mov    -0x8(%rbp),%rax
    7836:	48 f7 d8             	neg    %rax
    7839:	eb 04                	jmp    783f <safe_unary_minus_func_int64_t_s+0x29>
    783b:	48 8b 45 f8          	mov    -0x8(%rbp),%rax
    783f:	5d                   	pop    %rbp
    7840:	c3                   	retq   

0000000000007841 <safe_add_func_int64_t_s_s>:
    7841:	f3 0f 1e fa          	endbr64 
    7845:	55                   	push   %rbp
    7846:	48 89 e5             	mov    %rsp,%rbp
    7849:	48 89 7d f8          	mov    %rdi,-0x8(%rbp)
    784d:	48 89 75 f0          	mov    %rsi,-0x10(%rbp)
    7851:	48 83 7d f8 00       	cmpq   $0x0,-0x8(%rbp)
    7856:	7e 1b                	jle    7873 <safe_add_func_int64_t_s_s+0x32>
    7858:	48 83 7d f0 00       	cmpq   $0x0,-0x10(%rbp)
    785d:	7e 14                	jle    7873 <safe_add_func_int64_t_s_s+0x32>
    785f:	48 b8 ff ff ff ff ff 	movabs $0x7fffffffffffffff,%rax
    7866:	ff ff 7f 
    7869:	48 2b 45 f0          	sub    -0x10(%rbp),%rax
    786d:	48 39 45 f8          	cmp    %rax,-0x8(%rbp)
    7871:	7f 2f                	jg     78a2 <safe_add_func_int64_t_s_s+0x61>
    7873:	48 83 7d f8 00       	cmpq   $0x0,-0x8(%rbp)
    7878:	79 1b                	jns    7895 <safe_add_func_int64_t_s_s+0x54>
    787a:	48 83 7d f0 00       	cmpq   $0x0,-0x10(%rbp)
    787f:	79 14                	jns    7895 <safe_add_func_int64_t_s_s+0x54>
    7881:	48 b8 00 00 00 00 00 	movabs $0x8000000000000000,%rax
    7888:	00 00 80 
    788b:	48 2b 45 f0          	sub    -0x10(%rbp),%rax
    788f:	48 39 45 f8          	cmp    %rax,-0x8(%rbp)
    7893:	7c 0d                	jl     78a2 <safe_add_func_int64_t_s_s+0x61>
    7895:	48 8b 55 f8          	mov    -0x8(%rbp),%rdx
    7899:	48 8b 45 f0          	mov    -0x10(%rbp),%rax
    789d:	48 01 d0             	add    %rdx,%rax
    78a0:	eb 04                	jmp    78a6 <safe_add_func_int64_t_s_s+0x65>
    78a2:	48 8b 45 f8          	mov    -0x8(%rbp),%rax
    78a6:	5d                   	pop    %rbp
    78a7:	c3                   	retq   

00000000000078a8 <safe_sub_func_int64_t_s_s>:
    78a8:	f3 0f 1e fa          	endbr64 
    78ac:	55                   	push   %rbp
    78ad:	48 89 e5             	mov    %rsp,%rbp
    78b0:	48 89 7d f8          	mov    %rdi,-0x8(%rbp)
    78b4:	48 89 75 f0          	mov    %rsi,-0x10(%rbp)
    78b8:	48 8b 45 f8          	mov    -0x8(%rbp),%rax
    78bc:	48 33 45 f0          	xor    -0x10(%rbp),%rax
    78c0:	48 89 c2             	mov    %rax,%rdx
    78c3:	48 8b 45 f8          	mov    -0x8(%rbp),%rax
    78c7:	48 33 45 f0          	xor    -0x10(%rbp),%rax
    78cb:	48 b9 00 00 00 00 00 	movabs $0x8000000000000000,%rcx
    78d2:	00 00 80 
    78d5:	48 21 c8             	and    %rcx,%rax
    78d8:	48 33 45 f8          	xor    -0x8(%rbp),%rax
    78dc:	48 2b 45 f0          	sub    -0x10(%rbp),%rax
    78e0:	48 33 45 f0          	xor    -0x10(%rbp),%rax
    78e4:	48 21 d0             	and    %rdx,%rax
    78e7:	48 85 c0             	test   %rax,%rax
    78ea:	78 0a                	js     78f6 <safe_sub_func_int64_t_s_s+0x4e>
    78ec:	48 8b 45 f8          	mov    -0x8(%rbp),%rax
    78f0:	48 2b 45 f0          	sub    -0x10(%rbp),%rax
    78f4:	eb 04                	jmp    78fa <safe_sub_func_int64_t_s_s+0x52>
    78f6:	48 8b 45 f8          	mov    -0x8(%rbp),%rax
    78fa:	5d                   	pop    %rbp
    78fb:	c3                   	retq   

00000000000078fc <safe_mul_func_int64_t_s_s>:
    78fc:	f3 0f 1e fa          	endbr64 
    7900:	55                   	push   %rbp
    7901:	48 89 e5             	mov    %rsp,%rbp
    7904:	48 89 7d f8          	mov    %rdi,-0x8(%rbp)
    7908:	48 89 75 f0          	mov    %rsi,-0x10(%rbp)
    790c:	48 83 7d f8 00       	cmpq   $0x0,-0x8(%rbp)
    7911:	7e 1d                	jle    7930 <safe_mul_func_int64_t_s_s+0x34>
    7913:	48 83 7d f0 00       	cmpq   $0x0,-0x10(%rbp)
    7918:	7e 16                	jle    7930 <safe_mul_func_int64_t_s_s+0x34>
    791a:	48 b8 ff ff ff ff ff 	movabs $0x7fffffffffffffff,%rax
    7921:	ff ff 7f 
    7924:	48 99                	cqto   
    7926:	48 f7 7d f0          	idivq  -0x10(%rbp)
    792a:	48 39 45 f8          	cmp    %rax,-0x8(%rbp)
    792e:	7f 7e                	jg     79ae <safe_mul_func_int64_t_s_s+0xb2>
    7930:	48 83 7d f8 00       	cmpq   $0x0,-0x8(%rbp)
    7935:	7e 1d                	jle    7954 <safe_mul_func_int64_t_s_s+0x58>
    7937:	48 83 7d f0 00       	cmpq   $0x0,-0x10(%rbp)
    793c:	7f 16                	jg     7954 <safe_mul_func_int64_t_s_s+0x58>
    793e:	48 b8 00 00 00 00 00 	movabs $0x8000000000000000,%rax
    7945:	00 00 80 
    7948:	48 99                	cqto   
    794a:	48 f7 7d f8          	idivq  -0x8(%rbp)
    794e:	48 39 45 f0          	cmp    %rax,-0x10(%rbp)
    7952:	7c 5a                	jl     79ae <safe_mul_func_int64_t_s_s+0xb2>
    7954:	48 83 7d f8 00       	cmpq   $0x0,-0x8(%rbp)
    7959:	7f 1d                	jg     7978 <safe_mul_func_int64_t_s_s+0x7c>
    795b:	48 83 7d f0 00       	cmpq   $0x0,-0x10(%rbp)
    7960:	7e 16                	jle    7978 <safe_mul_func_int64_t_s_s+0x7c>
    7962:	48 b8 00 00 00 00 00 	movabs $0x8000000000000000,%rax
    7969:	00 00 80 
    796c:	48 99                	cqto   
    796e:	48 f7 7d f0          	idivq  -0x10(%rbp)
    7972:	48 39 45 f8          	cmp    %rax,-0x8(%rbp)
    7976:	7c 36                	jl     79ae <safe_mul_func_int64_t_s_s+0xb2>
    7978:	48 83 7d f8 00       	cmpq   $0x0,-0x8(%rbp)
    797d:	7f 24                	jg     79a3 <safe_mul_func_int64_t_s_s+0xa7>
    797f:	48 83 7d f0 00       	cmpq   $0x0,-0x10(%rbp)
    7984:	7f 1d                	jg     79a3 <safe_mul_func_int64_t_s_s+0xa7>
    7986:	48 83 7d f8 00       	cmpq   $0x0,-0x8(%rbp)
    798b:	74 16                	je     79a3 <safe_mul_func_int64_t_s_s+0xa7>
    798d:	48 b8 ff ff ff ff ff 	movabs $0x7fffffffffffffff,%rax
    7994:	ff ff 7f 
    7997:	48 99                	cqto   
    7999:	48 f7 7d f8          	idivq  -0x8(%rbp)
    799d:	48 39 45 f0          	cmp    %rax,-0x10(%rbp)
    79a1:	7c 0b                	jl     79ae <safe_mul_func_int64_t_s_s+0xb2>
    79a3:	48 8b 45 f8          	mov    -0x8(%rbp),%rax
    79a7:	48 0f af 45 f0       	imul   -0x10(%rbp),%rax
    79ac:	eb 04                	jmp    79b2 <safe_mul_func_int64_t_s_s+0xb6>
    79ae:	48 8b 45 f8          	mov    -0x8(%rbp),%rax
    79b2:	5d                   	pop    %rbp
    79b3:	c3                   	retq   

00000000000079b4 <safe_mod_func_int64_t_s_s>:
    79b4:	f3 0f 1e fa          	endbr64 
    79b8:	55                   	push   %rbp
    79b9:	48 89 e5             	mov    %rsp,%rbp
    79bc:	48 89 7d f8          	mov    %rdi,-0x8(%rbp)
    79c0:	48 89 75 f0          	mov    %rsi,-0x10(%rbp)
    79c4:	48 83 7d f0 00       	cmpq   $0x0,-0x10(%rbp)
    79c9:	74 26                	je     79f1 <safe_mod_func_int64_t_s_s+0x3d>
    79cb:	48 b8 00 00 00 00 00 	movabs $0x8000000000000000,%rax
    79d2:	00 00 80 
    79d5:	48 39 45 f8          	cmp    %rax,-0x8(%rbp)
    79d9:	75 07                	jne    79e2 <safe_mod_func_int64_t_s_s+0x2e>
    79db:	48 83 7d f0 ff       	cmpq   $0xffffffffffffffff,-0x10(%rbp)
    79e0:	74 0f                	je     79f1 <safe_mod_func_int64_t_s_s+0x3d>
    79e2:	48 8b 45 f8          	mov    -0x8(%rbp),%rax
    79e6:	48 99                	cqto   
    79e8:	48 f7 7d f0          	idivq  -0x10(%rbp)
    79ec:	48 89 d0             	mov    %rdx,%rax
    79ef:	eb 04                	jmp    79f5 <safe_mod_func_int64_t_s_s+0x41>
    79f1:	48 8b 45 f8          	mov    -0x8(%rbp),%rax
    79f5:	5d                   	pop    %rbp
    79f6:	c3                   	retq   

00000000000079f7 <safe_div_func_int64_t_s_s>:
    79f7:	f3 0f 1e fa          	endbr64 
    79fb:	55                   	push   %rbp
    79fc:	48 89 e5             	mov    %rsp,%rbp
    79ff:	48 89 7d f8          	mov    %rdi,-0x8(%rbp)
    7a03:	48 89 75 f0          	mov    %rsi,-0x10(%rbp)
    7a07:	48 83 7d f0 00       	cmpq   $0x0,-0x10(%rbp)
    7a0c:	74 23                	je     7a31 <safe_div_func_int64_t_s_s+0x3a>
    7a0e:	48 b8 00 00 00 00 00 	movabs $0x8000000000000000,%rax
    7a15:	00 00 80 
    7a18:	48 39 45 f8          	cmp    %rax,-0x8(%rbp)
    7a1c:	75 07                	jne    7a25 <safe_div_func_int64_t_s_s+0x2e>
    7a1e:	48 83 7d f0 ff       	cmpq   $0xffffffffffffffff,-0x10(%rbp)
    7a23:	74 0c                	je     7a31 <safe_div_func_int64_t_s_s+0x3a>
    7a25:	48 8b 45 f8          	mov    -0x8(%rbp),%rax
    7a29:	48 99                	cqto   
    7a2b:	48 f7 7d f0          	idivq  -0x10(%rbp)
    7a2f:	eb 04                	jmp    7a35 <safe_div_func_int64_t_s_s+0x3e>
    7a31:	48 8b 45 f8          	mov    -0x8(%rbp),%rax
    7a35:	5d                   	pop    %rbp
    7a36:	c3                   	retq   

0000000000007a37 <safe_lshift_func_int64_t_s_s>:
    7a37:	f3 0f 1e fa          	endbr64 
    7a3b:	55                   	push   %rbp
    7a3c:	48 89 e5             	mov    %rsp,%rbp
    7a3f:	48 89 7d f8          	mov    %rdi,-0x8(%rbp)
    7a43:	89 75 f4             	mov    %esi,-0xc(%rbp)
    7a46:	48 83 7d f8 00       	cmpq   $0x0,-0x8(%rbp)
    7a4b:	78 38                	js     7a85 <safe_lshift_func_int64_t_s_s+0x4e>
    7a4d:	83 7d f4 00          	cmpl   $0x0,-0xc(%rbp)
    7a51:	78 32                	js     7a85 <safe_lshift_func_int64_t_s_s+0x4e>
    7a53:	83 7d f4 1f          	cmpl   $0x1f,-0xc(%rbp)
    7a57:	7f 2c                	jg     7a85 <safe_lshift_func_int64_t_s_s+0x4e>
    7a59:	8b 45 f4             	mov    -0xc(%rbp),%eax
    7a5c:	48 ba ff ff ff ff ff 	movabs $0x7fffffffffffffff,%rdx
    7a63:	ff ff 7f 
    7a66:	89 c1                	mov    %eax,%ecx
    7a68:	48 d3 fa             	sar    %cl,%rdx
    7a6b:	48 89 d0             	mov    %rdx,%rax
    7a6e:	48 39 45 f8          	cmp    %rax,-0x8(%rbp)
    7a72:	7f 11                	jg     7a85 <safe_lshift_func_int64_t_s_s+0x4e>
    7a74:	8b 45 f4             	mov    -0xc(%rbp),%eax
    7a77:	48 8b 55 f8          	mov    -0x8(%rbp),%rdx
    7a7b:	89 c1                	mov    %eax,%ecx
    7a7d:	48 d3 e2             	shl    %cl,%rdx
    7a80:	48 89 d0             	mov    %rdx,%rax
    7a83:	eb 04                	jmp    7a89 <safe_lshift_func_int64_t_s_s+0x52>
    7a85:	48 8b 45 f8          	mov    -0x8(%rbp),%rax
    7a89:	5d                   	pop    %rbp
    7a8a:	c3                   	retq   

0000000000007a8b <safe_lshift_func_int64_t_s_u>:
    7a8b:	f3 0f 1e fa          	endbr64 
    7a8f:	55                   	push   %rbp
    7a90:	48 89 e5             	mov    %rsp,%rbp
    7a93:	48 89 7d f8          	mov    %rdi,-0x8(%rbp)
    7a97:	89 75 f4             	mov    %esi,-0xc(%rbp)
    7a9a:	48 83 7d f8 00       	cmpq   $0x0,-0x8(%rbp)
    7a9f:	78 32                	js     7ad3 <safe_lshift_func_int64_t_s_u+0x48>
    7aa1:	83 7d f4 1f          	cmpl   $0x1f,-0xc(%rbp)
    7aa5:	77 2c                	ja     7ad3 <safe_lshift_func_int64_t_s_u+0x48>
    7aa7:	8b 45 f4             	mov    -0xc(%rbp),%eax
    7aaa:	48 ba ff ff ff ff ff 	movabs $0x7fffffffffffffff,%rdx
    7ab1:	ff ff 7f 
    7ab4:	89 c1                	mov    %eax,%ecx
    7ab6:	48 d3 fa             	sar    %cl,%rdx
    7ab9:	48 89 d0             	mov    %rdx,%rax
    7abc:	48 39 45 f8          	cmp    %rax,-0x8(%rbp)
    7ac0:	7f 11                	jg     7ad3 <safe_lshift_func_int64_t_s_u+0x48>
    7ac2:	8b 45 f4             	mov    -0xc(%rbp),%eax
    7ac5:	48 8b 55 f8          	mov    -0x8(%rbp),%rdx
    7ac9:	89 c1                	mov    %eax,%ecx
    7acb:	48 d3 e2             	shl    %cl,%rdx
    7ace:	48 89 d0             	mov    %rdx,%rax
    7ad1:	eb 04                	jmp    7ad7 <safe_lshift_func_int64_t_s_u+0x4c>
    7ad3:	48 8b 45 f8          	mov    -0x8(%rbp),%rax
    7ad7:	5d                   	pop    %rbp
    7ad8:	c3                   	retq   

0000000000007ad9 <safe_rshift_func_int64_t_s_s>:
    7ad9:	f3 0f 1e fa          	endbr64 
    7add:	55                   	push   %rbp
    7ade:	48 89 e5             	mov    %rsp,%rbp
    7ae1:	48 89 7d f8          	mov    %rdi,-0x8(%rbp)
    7ae5:	89 75 f4             	mov    %esi,-0xc(%rbp)
    7ae8:	48 83 7d f8 00       	cmpq   $0x0,-0x8(%rbp)
    7aed:	78 1d                	js     7b0c <safe_rshift_func_int64_t_s_s+0x33>
    7aef:	83 7d f4 00          	cmpl   $0x0,-0xc(%rbp)
    7af3:	78 17                	js     7b0c <safe_rshift_func_int64_t_s_s+0x33>
    7af5:	83 7d f4 1f          	cmpl   $0x1f,-0xc(%rbp)
    7af9:	7f 11                	jg     7b0c <safe_rshift_func_int64_t_s_s+0x33>
    7afb:	8b 45 f4             	mov    -0xc(%rbp),%eax
    7afe:	48 8b 55 f8          	mov    -0x8(%rbp),%rdx
    7b02:	89 c1                	mov    %eax,%ecx
    7b04:	48 d3 fa             	sar    %cl,%rdx
    7b07:	48 89 d0             	mov    %rdx,%rax
    7b0a:	eb 04                	jmp    7b10 <safe_rshift_func_int64_t_s_s+0x37>
    7b0c:	48 8b 45 f8          	mov    -0x8(%rbp),%rax
    7b10:	5d                   	pop    %rbp
    7b11:	c3                   	retq   

0000000000007b12 <safe_rshift_func_int64_t_s_u>:
    7b12:	f3 0f 1e fa          	endbr64 
    7b16:	55                   	push   %rbp
    7b17:	48 89 e5             	mov    %rsp,%rbp
    7b1a:	48 89 7d f8          	mov    %rdi,-0x8(%rbp)
    7b1e:	89 75 f4             	mov    %esi,-0xc(%rbp)
    7b21:	48 83 7d f8 00       	cmpq   $0x0,-0x8(%rbp)
    7b26:	78 17                	js     7b3f <safe_rshift_func_int64_t_s_u+0x2d>
    7b28:	83 7d f4 1f          	cmpl   $0x1f,-0xc(%rbp)
    7b2c:	77 11                	ja     7b3f <safe_rshift_func_int64_t_s_u+0x2d>
    7b2e:	8b 45 f4             	mov    -0xc(%rbp),%eax
    7b31:	48 8b 55 f8          	mov    -0x8(%rbp),%rdx
    7b35:	89 c1                	mov    %eax,%ecx
    7b37:	48 d3 fa             	sar    %cl,%rdx
    7b3a:	48 89 d0             	mov    %rdx,%rax
    7b3d:	eb 04                	jmp    7b43 <safe_rshift_func_int64_t_s_u+0x31>
    7b3f:	48 8b 45 f8          	mov    -0x8(%rbp),%rax
    7b43:	5d                   	pop    %rbp
    7b44:	c3                   	retq   

0000000000007b45 <safe_unary_minus_func_uint8_t_u>:
    7b45:	f3 0f 1e fa          	endbr64 
    7b49:	55                   	push   %rbp
    7b4a:	48 89 e5             	mov    %rsp,%rbp
    7b4d:	89 f8                	mov    %edi,%eax
    7b4f:	88 45 fc             	mov    %al,-0x4(%rbp)
    7b52:	0f b6 45 fc          	movzbl -0x4(%rbp),%eax
    7b56:	f7 d8                	neg    %eax
    7b58:	5d                   	pop    %rbp
    7b59:	c3                   	retq   

0000000000007b5a <safe_add_func_uint8_t_u_u>:
    7b5a:	f3 0f 1e fa          	endbr64 
    7b5e:	55                   	push   %rbp
    7b5f:	48 89 e5             	mov    %rsp,%rbp
    7b62:	89 fa                	mov    %edi,%edx
    7b64:	89 f0                	mov    %esi,%eax
    7b66:	88 55 fc             	mov    %dl,-0x4(%rbp)
    7b69:	88 45 f8             	mov    %al,-0x8(%rbp)
    7b6c:	0f b6 55 fc          	movzbl -0x4(%rbp),%edx
    7b70:	0f b6 45 f8          	movzbl -0x8(%rbp),%eax
    7b74:	01 d0                	add    %edx,%eax
    7b76:	5d                   	pop    %rbp
    7b77:	c3                   	retq   

0000000000007b78 <safe_sub_func_uint8_t_u_u>:
    7b78:	f3 0f 1e fa          	endbr64 
    7b7c:	55                   	push   %rbp
    7b7d:	48 89 e5             	mov    %rsp,%rbp
    7b80:	89 fa                	mov    %edi,%edx
    7b82:	89 f0                	mov    %esi,%eax
    7b84:	88 55 fc             	mov    %dl,-0x4(%rbp)
    7b87:	88 45 f8             	mov    %al,-0x8(%rbp)
    7b8a:	0f b6 45 fc          	movzbl -0x4(%rbp),%eax
    7b8e:	2a 45 f8             	sub    -0x8(%rbp),%al
    7b91:	5d                   	pop    %rbp
    7b92:	c3                   	retq   

0000000000007b93 <safe_mul_func_uint8_t_u_u>:
    7b93:	f3 0f 1e fa          	endbr64 
    7b97:	55                   	push   %rbp
    7b98:	48 89 e5             	mov    %rsp,%rbp
    7b9b:	89 fa                	mov    %edi,%edx
    7b9d:	89 f0                	mov    %esi,%eax
    7b9f:	88 55 fc             	mov    %dl,-0x4(%rbp)
    7ba2:	88 45 f8             	mov    %al,-0x8(%rbp)
    7ba5:	0f b6 45 fc          	movzbl -0x4(%rbp),%eax
    7ba9:	f6 65 f8             	mulb   -0x8(%rbp)
    7bac:	5d                   	pop    %rbp
    7bad:	c3                   	retq   

0000000000007bae <safe_mod_func_uint8_t_u_u>:
    7bae:	f3 0f 1e fa          	endbr64 
    7bb2:	55                   	push   %rbp
    7bb3:	48 89 e5             	mov    %rsp,%rbp
    7bb6:	89 fa                	mov    %edi,%edx
    7bb8:	89 f0                	mov    %esi,%eax
    7bba:	88 55 fc             	mov    %dl,-0x4(%rbp)
    7bbd:	88 45 f8             	mov    %al,-0x8(%rbp)
    7bc0:	80 7d f8 00          	cmpb   $0x0,-0x8(%rbp)
    7bc4:	74 0f                	je     7bd5 <safe_mod_func_uint8_t_u_u+0x27>
    7bc6:	0f b6 45 fc          	movzbl -0x4(%rbp),%eax
    7bca:	0f b6 c0             	movzbl %al,%eax
    7bcd:	f6 75 f8             	divb   -0x8(%rbp)
    7bd0:	0f b6 c4             	movzbl %ah,%eax
    7bd3:	eb 04                	jmp    7bd9 <safe_mod_func_uint8_t_u_u+0x2b>
    7bd5:	0f b6 45 fc          	movzbl -0x4(%rbp),%eax
    7bd9:	5d                   	pop    %rbp
    7bda:	c3                   	retq   

0000000000007bdb <safe_div_func_uint8_t_u_u>:
    7bdb:	f3 0f 1e fa          	endbr64 
    7bdf:	55                   	push   %rbp
    7be0:	48 89 e5             	mov    %rsp,%rbp
    7be3:	89 fa                	mov    %edi,%edx
    7be5:	89 f0                	mov    %esi,%eax
    7be7:	88 55 fc             	mov    %dl,-0x4(%rbp)
    7bea:	88 45 f8             	mov    %al,-0x8(%rbp)
    7bed:	80 7d f8 00          	cmpb   $0x0,-0x8(%rbp)
    7bf1:	74 0c                	je     7bff <safe_div_func_uint8_t_u_u+0x24>
    7bf3:	0f b6 45 fc          	movzbl -0x4(%rbp),%eax
    7bf7:	0f b6 c0             	movzbl %al,%eax
    7bfa:	f6 75 f8             	divb   -0x8(%rbp)
    7bfd:	eb 04                	jmp    7c03 <safe_div_func_uint8_t_u_u+0x28>
    7bff:	0f b6 45 fc          	movzbl -0x4(%rbp),%eax
    7c03:	5d                   	pop    %rbp
    7c04:	c3                   	retq   

0000000000007c05 <safe_lshift_func_uint8_t_u_s>:
    7c05:	f3 0f 1e fa          	endbr64 
    7c09:	55                   	push   %rbp
    7c0a:	48 89 e5             	mov    %rsp,%rbp
    7c0d:	89 f8                	mov    %edi,%eax
    7c0f:	89 75 f8             	mov    %esi,-0x8(%rbp)
    7c12:	88 45 fc             	mov    %al,-0x4(%rbp)
    7c15:	83 7d f8 00          	cmpl   $0x0,-0x8(%rbp)
    7c19:	78 2b                	js     7c46 <safe_lshift_func_uint8_t_u_s+0x41>
    7c1b:	83 7d f8 1f          	cmpl   $0x1f,-0x8(%rbp)
    7c1f:	7f 25                	jg     7c46 <safe_lshift_func_uint8_t_u_s+0x41>
    7c21:	0f b6 55 fc          	movzbl -0x4(%rbp),%edx
    7c25:	8b 45 f8             	mov    -0x8(%rbp),%eax
    7c28:	be ff 00 00 00       	mov    $0xff,%esi
    7c2d:	89 c1                	mov    %eax,%ecx
    7c2f:	d3 fe                	sar    %cl,%esi
    7c31:	89 f0                	mov    %esi,%eax
    7c33:	39 c2                	cmp    %eax,%edx
    7c35:	7f 0f                	jg     7c46 <safe_lshift_func_uint8_t_u_s+0x41>
    7c37:	0f b6 55 fc          	movzbl -0x4(%rbp),%edx
    7c3b:	8b 45 f8             	mov    -0x8(%rbp),%eax
    7c3e:	89 c1                	mov    %eax,%ecx
    7c40:	d3 e2                	shl    %cl,%edx
    7c42:	89 d0                	mov    %edx,%eax
    7c44:	eb 04                	jmp    7c4a <safe_lshift_func_uint8_t_u_s+0x45>
    7c46:	0f b6 45 fc          	movzbl -0x4(%rbp),%eax
    7c4a:	5d                   	pop    %rbp
    7c4b:	c3                   	retq   

0000000000007c4c <safe_lshift_func_uint8_t_u_u>:
    7c4c:	f3 0f 1e fa          	endbr64 
    7c50:	55                   	push   %rbp
    7c51:	48 89 e5             	mov    %rsp,%rbp
    7c54:	89 f8                	mov    %edi,%eax
    7c56:	89 75 f8             	mov    %esi,-0x8(%rbp)
    7c59:	88 45 fc             	mov    %al,-0x4(%rbp)
    7c5c:	83 7d f8 1f          	cmpl   $0x1f,-0x8(%rbp)
    7c60:	77 25                	ja     7c87 <safe_lshift_func_uint8_t_u_u+0x3b>
    7c62:	0f b6 55 fc          	movzbl -0x4(%rbp),%edx
    7c66:	8b 45 f8             	mov    -0x8(%rbp),%eax
    7c69:	be ff 00 00 00       	mov    $0xff,%esi
    7c6e:	89 c1                	mov    %eax,%ecx
    7c70:	d3 fe                	sar    %cl,%esi
    7c72:	89 f0                	mov    %esi,%eax
    7c74:	39 c2                	cmp    %eax,%edx
    7c76:	7f 0f                	jg     7c87 <safe_lshift_func_uint8_t_u_u+0x3b>
    7c78:	0f b6 55 fc          	movzbl -0x4(%rbp),%edx
    7c7c:	8b 45 f8             	mov    -0x8(%rbp),%eax
    7c7f:	89 c1                	mov    %eax,%ecx
    7c81:	d3 e2                	shl    %cl,%edx
    7c83:	89 d0                	mov    %edx,%eax
    7c85:	eb 04                	jmp    7c8b <safe_lshift_func_uint8_t_u_u+0x3f>
    7c87:	0f b6 45 fc          	movzbl -0x4(%rbp),%eax
    7c8b:	5d                   	pop    %rbp
    7c8c:	c3                   	retq   

0000000000007c8d <safe_rshift_func_uint8_t_u_s>:
    7c8d:	f3 0f 1e fa          	endbr64 
    7c91:	55                   	push   %rbp
    7c92:	48 89 e5             	mov    %rsp,%rbp
    7c95:	89 f8                	mov    %edi,%eax
    7c97:	89 75 f8             	mov    %esi,-0x8(%rbp)
    7c9a:	88 45 fc             	mov    %al,-0x4(%rbp)
    7c9d:	83 7d f8 00          	cmpl   $0x0,-0x8(%rbp)
    7ca1:	78 15                	js     7cb8 <safe_rshift_func_uint8_t_u_s+0x2b>
    7ca3:	83 7d f8 1f          	cmpl   $0x1f,-0x8(%rbp)
    7ca7:	7f 0f                	jg     7cb8 <safe_rshift_func_uint8_t_u_s+0x2b>
    7ca9:	0f b6 55 fc          	movzbl -0x4(%rbp),%edx
    7cad:	8b 45 f8             	mov    -0x8(%rbp),%eax
    7cb0:	89 c1                	mov    %eax,%ecx
    7cb2:	d3 fa                	sar    %cl,%edx
    7cb4:	89 d0                	mov    %edx,%eax
    7cb6:	eb 04                	jmp    7cbc <safe_rshift_func_uint8_t_u_s+0x2f>
    7cb8:	0f b6 45 fc          	movzbl -0x4(%rbp),%eax
    7cbc:	5d                   	pop    %rbp
    7cbd:	c3                   	retq   

0000000000007cbe <safe_rshift_func_uint8_t_u_u>:
    7cbe:	f3 0f 1e fa          	endbr64 
    7cc2:	55                   	push   %rbp
    7cc3:	48 89 e5             	mov    %rsp,%rbp
    7cc6:	89 f8                	mov    %edi,%eax
    7cc8:	89 75 f8             	mov    %esi,-0x8(%rbp)
    7ccb:	88 45 fc             	mov    %al,-0x4(%rbp)
    7cce:	83 7d f8 1f          	cmpl   $0x1f,-0x8(%rbp)
    7cd2:	77 0f                	ja     7ce3 <safe_rshift_func_uint8_t_u_u+0x25>
    7cd4:	0f b6 55 fc          	movzbl -0x4(%rbp),%edx
    7cd8:	8b 45 f8             	mov    -0x8(%rbp),%eax
    7cdb:	89 c1                	mov    %eax,%ecx
    7cdd:	d3 fa                	sar    %cl,%edx
    7cdf:	89 d0                	mov    %edx,%eax
    7ce1:	eb 04                	jmp    7ce7 <safe_rshift_func_uint8_t_u_u+0x29>
    7ce3:	0f b6 45 fc          	movzbl -0x4(%rbp),%eax
    7ce7:	5d                   	pop    %rbp
    7ce8:	c3                   	retq   

0000000000007ce9 <safe_unary_minus_func_uint16_t_u>:
    7ce9:	f3 0f 1e fa          	endbr64 
    7ced:	55                   	push   %rbp
    7cee:	48 89 e5             	mov    %rsp,%rbp
    7cf1:	89 f8                	mov    %edi,%eax
    7cf3:	66 89 45 fc          	mov    %ax,-0x4(%rbp)
    7cf7:	0f b7 45 fc          	movzwl -0x4(%rbp),%eax
    7cfb:	f7 d8                	neg    %eax
    7cfd:	5d                   	pop    %rbp
    7cfe:	c3                   	retq   

0000000000007cff <safe_add_func_uint16_t_u_u>:
    7cff:	f3 0f 1e fa          	endbr64 
    7d03:	55                   	push   %rbp
    7d04:	48 89 e5             	mov    %rsp,%rbp
    7d07:	89 fa                	mov    %edi,%edx
    7d09:	89 f0                	mov    %esi,%eax
    7d0b:	66 89 55 fc          	mov    %dx,-0x4(%rbp)
    7d0f:	66 89 45 f8          	mov    %ax,-0x8(%rbp)
    7d13:	0f b7 55 fc          	movzwl -0x4(%rbp),%edx
    7d17:	0f b7 45 f8          	movzwl -0x8(%rbp),%eax
    7d1b:	01 d0                	add    %edx,%eax
    7d1d:	5d                   	pop    %rbp
    7d1e:	c3                   	retq   

0000000000007d1f <safe_sub_func_uint16_t_u_u>:
    7d1f:	f3 0f 1e fa          	endbr64 
    7d23:	55                   	push   %rbp
    7d24:	48 89 e5             	mov    %rsp,%rbp
    7d27:	89 fa                	mov    %edi,%edx
    7d29:	89 f0                	mov    %esi,%eax
    7d2b:	66 89 55 fc          	mov    %dx,-0x4(%rbp)
    7d2f:	66 89 45 f8          	mov    %ax,-0x8(%rbp)
    7d33:	0f b7 45 fc          	movzwl -0x4(%rbp),%eax
    7d37:	66 2b 45 f8          	sub    -0x8(%rbp),%ax
    7d3b:	5d                   	pop    %rbp
    7d3c:	c3                   	retq   

0000000000007d3d <safe_mul_func_uint16_t_u_u>:
    7d3d:	f3 0f 1e fa          	endbr64 
    7d41:	55                   	push   %rbp
    7d42:	48 89 e5             	mov    %rsp,%rbp
    7d45:	89 fa                	mov    %edi,%edx
    7d47:	89 f0                	mov    %esi,%eax
    7d49:	66 89 55 fc          	mov    %dx,-0x4(%rbp)
    7d4d:	66 89 45 f8          	mov    %ax,-0x8(%rbp)
    7d51:	0f b7 45 fc          	movzwl -0x4(%rbp),%eax
    7d55:	66 0f af 45 f8       	imul   -0x8(%rbp),%ax
    7d5a:	5d                   	pop    %rbp
    7d5b:	c3                   	retq   

0000000000007d5c <safe_mod_func_uint16_t_u_u>:
    7d5c:	f3 0f 1e fa          	endbr64 
    7d60:	55                   	push   %rbp
    7d61:	48 89 e5             	mov    %rsp,%rbp
    7d64:	89 fa                	mov    %edi,%edx
    7d66:	89 f0                	mov    %esi,%eax
    7d68:	66 89 55 fc          	mov    %dx,-0x4(%rbp)
    7d6c:	66 89 45 f8          	mov    %ax,-0x8(%rbp)
    7d70:	66 83 7d f8 00       	cmpw   $0x0,-0x8(%rbp)
    7d75:	74 11                	je     7d88 <safe_mod_func_uint16_t_u_u+0x2c>
    7d77:	0f b7 45 fc          	movzwl -0x4(%rbp),%eax
    7d7b:	ba 00 00 00 00       	mov    $0x0,%edx
    7d80:	66 f7 75 f8          	divw   -0x8(%rbp)
    7d84:	89 d0                	mov    %edx,%eax
    7d86:	eb 04                	jmp    7d8c <safe_mod_func_uint16_t_u_u+0x30>
    7d88:	0f b7 45 fc          	movzwl -0x4(%rbp),%eax
    7d8c:	5d                   	pop    %rbp
    7d8d:	c3                   	retq   

0000000000007d8e <safe_div_func_uint16_t_u_u>:
    7d8e:	f3 0f 1e fa          	endbr64 
    7d92:	55                   	push   %rbp
    7d93:	48 89 e5             	mov    %rsp,%rbp
    7d96:	89 fa                	mov    %edi,%edx
    7d98:	89 f0                	mov    %esi,%eax
    7d9a:	66 89 55 fc          	mov    %dx,-0x4(%rbp)
    7d9e:	66 89 45 f8          	mov    %ax,-0x8(%rbp)
    7da2:	66 83 7d f8 00       	cmpw   $0x0,-0x8(%rbp)
    7da7:	74 0f                	je     7db8 <safe_div_func_uint16_t_u_u+0x2a>
    7da9:	0f b7 45 fc          	movzwl -0x4(%rbp),%eax
    7dad:	ba 00 00 00 00       	mov    $0x0,%edx
    7db2:	66 f7 75 f8          	divw   -0x8(%rbp)
    7db6:	eb 04                	jmp    7dbc <safe_div_func_uint16_t_u_u+0x2e>
    7db8:	0f b7 45 fc          	movzwl -0x4(%rbp),%eax
    7dbc:	5d                   	pop    %rbp
    7dbd:	c3                   	retq   

0000000000007dbe <safe_lshift_func_uint16_t_u_s>:
    7dbe:	f3 0f 1e fa          	endbr64 
    7dc2:	55                   	push   %rbp
    7dc3:	48 89 e5             	mov    %rsp,%rbp
    7dc6:	89 f8                	mov    %edi,%eax
    7dc8:	89 75 f8             	mov    %esi,-0x8(%rbp)
    7dcb:	66 89 45 fc          	mov    %ax,-0x4(%rbp)
    7dcf:	83 7d f8 00          	cmpl   $0x0,-0x8(%rbp)
    7dd3:	78 2b                	js     7e00 <safe_lshift_func_uint16_t_u_s+0x42>
    7dd5:	83 7d f8 1f          	cmpl   $0x1f,-0x8(%rbp)
    7dd9:	7f 25                	jg     7e00 <safe_lshift_func_uint16_t_u_s+0x42>
    7ddb:	0f b7 55 fc          	movzwl -0x4(%rbp),%edx
    7ddf:	8b 45 f8             	mov    -0x8(%rbp),%eax
    7de2:	be ff ff 00 00       	mov    $0xffff,%esi
    7de7:	89 c1                	mov    %eax,%ecx
    7de9:	d3 fe                	sar    %cl,%esi
    7deb:	89 f0                	mov    %esi,%eax
    7ded:	39 c2                	cmp    %eax,%edx
    7def:	7f 0f                	jg     7e00 <safe_lshift_func_uint16_t_u_s+0x42>
    7df1:	0f b7 55 fc          	movzwl -0x4(%rbp),%edx
    7df5:	8b 45 f8             	mov    -0x8(%rbp),%eax
    7df8:	89 c1                	mov    %eax,%ecx
    7dfa:	d3 e2                	shl    %cl,%edx
    7dfc:	89 d0                	mov    %edx,%eax
    7dfe:	eb 04                	jmp    7e04 <safe_lshift_func_uint16_t_u_s+0x46>
    7e00:	0f b7 45 fc          	movzwl -0x4(%rbp),%eax
    7e04:	5d                   	pop    %rbp
    7e05:	c3                   	retq   

0000000000007e06 <safe_lshift_func_uint16_t_u_u>:
    7e06:	f3 0f 1e fa          	endbr64 
    7e0a:	55                   	push   %rbp
    7e0b:	48 89 e5             	mov    %rsp,%rbp
    7e0e:	89 f8                	mov    %edi,%eax
    7e10:	89 75 f8             	mov    %esi,-0x8(%rbp)
    7e13:	66 89 45 fc          	mov    %ax,-0x4(%rbp)
    7e17:	83 7d f8 1f          	cmpl   $0x1f,-0x8(%rbp)
    7e1b:	77 25                	ja     7e42 <safe_lshift_func_uint16_t_u_u+0x3c>
    7e1d:	0f b7 55 fc          	movzwl -0x4(%rbp),%edx
    7e21:	8b 45 f8             	mov    -0x8(%rbp),%eax
    7e24:	be ff ff 00 00       	mov    $0xffff,%esi
    7e29:	89 c1                	mov    %eax,%ecx
    7e2b:	d3 fe                	sar    %cl,%esi
    7e2d:	89 f0                	mov    %esi,%eax
    7e2f:	39 c2                	cmp    %eax,%edx
    7e31:	7f 0f                	jg     7e42 <safe_lshift_func_uint16_t_u_u+0x3c>
    7e33:	0f b7 55 fc          	movzwl -0x4(%rbp),%edx
    7e37:	8b 45 f8             	mov    -0x8(%rbp),%eax
    7e3a:	89 c1                	mov    %eax,%ecx
    7e3c:	d3 e2                	shl    %cl,%edx
    7e3e:	89 d0                	mov    %edx,%eax
    7e40:	eb 04                	jmp    7e46 <safe_lshift_func_uint16_t_u_u+0x40>
    7e42:	0f b7 45 fc          	movzwl -0x4(%rbp),%eax
    7e46:	5d                   	pop    %rbp
    7e47:	c3                   	retq   

0000000000007e48 <safe_rshift_func_uint16_t_u_s>:
    7e48:	f3 0f 1e fa          	endbr64 
    7e4c:	55                   	push   %rbp
    7e4d:	48 89 e5             	mov    %rsp,%rbp
    7e50:	89 f8                	mov    %edi,%eax
    7e52:	89 75 f8             	mov    %esi,-0x8(%rbp)
    7e55:	66 89 45 fc          	mov    %ax,-0x4(%rbp)
    7e59:	83 7d f8 00          	cmpl   $0x0,-0x8(%rbp)
    7e5d:	78 15                	js     7e74 <safe_rshift_func_uint16_t_u_s+0x2c>
    7e5f:	83 7d f8 1f          	cmpl   $0x1f,-0x8(%rbp)
    7e63:	7f 0f                	jg     7e74 <safe_rshift_func_uint16_t_u_s+0x2c>
    7e65:	0f b7 55 fc          	movzwl -0x4(%rbp),%edx
    7e69:	8b 45 f8             	mov    -0x8(%rbp),%eax
    7e6c:	89 c1                	mov    %eax,%ecx
    7e6e:	d3 fa                	sar    %cl,%edx
    7e70:	89 d0                	mov    %edx,%eax
    7e72:	eb 04                	jmp    7e78 <safe_rshift_func_uint16_t_u_s+0x30>
    7e74:	0f b7 45 fc          	movzwl -0x4(%rbp),%eax
    7e78:	5d                   	pop    %rbp
    7e79:	c3                   	retq   

0000000000007e7a <safe_rshift_func_uint16_t_u_u>:
    7e7a:	f3 0f 1e fa          	endbr64 
    7e7e:	55                   	push   %rbp
    7e7f:	48 89 e5             	mov    %rsp,%rbp
    7e82:	89 f8                	mov    %edi,%eax
    7e84:	89 75 f8             	mov    %esi,-0x8(%rbp)
    7e87:	66 89 45 fc          	mov    %ax,-0x4(%rbp)
    7e8b:	83 7d f8 1f          	cmpl   $0x1f,-0x8(%rbp)
    7e8f:	77 0f                	ja     7ea0 <safe_rshift_func_uint16_t_u_u+0x26>
    7e91:	0f b7 55 fc          	movzwl -0x4(%rbp),%edx
    7e95:	8b 45 f8             	mov    -0x8(%rbp),%eax
    7e98:	89 c1                	mov    %eax,%ecx
    7e9a:	d3 fa                	sar    %cl,%edx
    7e9c:	89 d0                	mov    %edx,%eax
    7e9e:	eb 04                	jmp    7ea4 <safe_rshift_func_uint16_t_u_u+0x2a>
    7ea0:	0f b7 45 fc          	movzwl -0x4(%rbp),%eax
    7ea4:	5d                   	pop    %rbp
    7ea5:	c3                   	retq   

0000000000007ea6 <safe_unary_minus_func_uint32_t_u>:
    7ea6:	f3 0f 1e fa          	endbr64 
    7eaa:	55                   	push   %rbp
    7eab:	48 89 e5             	mov    %rsp,%rbp
    7eae:	89 7d fc             	mov    %edi,-0x4(%rbp)
    7eb1:	8b 45 fc             	mov    -0x4(%rbp),%eax
    7eb4:	f7 d8                	neg    %eax
    7eb6:	5d                   	pop    %rbp
    7eb7:	c3                   	retq   

0000000000007eb8 <safe_add_func_uint32_t_u_u>:
    7eb8:	f3 0f 1e fa          	endbr64 
    7ebc:	55                   	push   %rbp
    7ebd:	48 89 e5             	mov    %rsp,%rbp
    7ec0:	89 7d fc             	mov    %edi,-0x4(%rbp)
    7ec3:	89 75 f8             	mov    %esi,-0x8(%rbp)
    7ec6:	8b 55 fc             	mov    -0x4(%rbp),%edx
    7ec9:	8b 45 f8             	mov    -0x8(%rbp),%eax
    7ecc:	01 d0                	add    %edx,%eax
    7ece:	5d                   	pop    %rbp
    7ecf:	c3                   	retq   

0000000000007ed0 <safe_sub_func_uint32_t_u_u>:
    7ed0:	f3 0f 1e fa          	endbr64 
    7ed4:	55                   	push   %rbp
    7ed5:	48 89 e5             	mov    %rsp,%rbp
    7ed8:	89 7d fc             	mov    %edi,-0x4(%rbp)
    7edb:	89 75 f8             	mov    %esi,-0x8(%rbp)
    7ede:	8b 45 fc             	mov    -0x4(%rbp),%eax
    7ee1:	2b 45 f8             	sub    -0x8(%rbp),%eax
    7ee4:	5d                   	pop    %rbp
    7ee5:	c3                   	retq   

0000000000007ee6 <safe_mul_func_uint32_t_u_u>:
    7ee6:	f3 0f 1e fa          	endbr64 
    7eea:	55                   	push   %rbp
    7eeb:	48 89 e5             	mov    %rsp,%rbp
    7eee:	89 7d fc             	mov    %edi,-0x4(%rbp)
    7ef1:	89 75 f8             	mov    %esi,-0x8(%rbp)
    7ef4:	8b 45 fc             	mov    -0x4(%rbp),%eax
    7ef7:	0f af 45 f8          	imul   -0x8(%rbp),%eax
    7efb:	5d                   	pop    %rbp
    7efc:	c3                   	retq   

0000000000007efd <safe_mod_func_uint32_t_u_u>:
    7efd:	f3 0f 1e fa          	endbr64 
    7f01:	55                   	push   %rbp
    7f02:	48 89 e5             	mov    %rsp,%rbp
    7f05:	89 7d fc             	mov    %edi,-0x4(%rbp)
    7f08:	89 75 f8             	mov    %esi,-0x8(%rbp)
    7f0b:	83 7d f8 00          	cmpl   $0x0,-0x8(%rbp)
    7f0f:	74 0f                	je     7f20 <safe_mod_func_uint32_t_u_u+0x23>
    7f11:	8b 45 fc             	mov    -0x4(%rbp),%eax
    7f14:	ba 00 00 00 00       	mov    $0x0,%edx
    7f19:	f7 75 f8             	divl   -0x8(%rbp)
    7f1c:	89 d0                	mov    %edx,%eax
    7f1e:	eb 03                	jmp    7f23 <safe_mod_func_uint32_t_u_u+0x26>
    7f20:	8b 45 fc             	mov    -0x4(%rbp),%eax
    7f23:	5d                   	pop    %rbp
    7f24:	c3                   	retq   

0000000000007f25 <safe_div_func_uint32_t_u_u>:
    7f25:	f3 0f 1e fa          	endbr64 
    7f29:	55                   	push   %rbp
    7f2a:	48 89 e5             	mov    %rsp,%rbp
    7f2d:	89 7d fc             	mov    %edi,-0x4(%rbp)
    7f30:	89 75 f8             	mov    %esi,-0x8(%rbp)
    7f33:	83 7d f8 00          	cmpl   $0x0,-0x8(%rbp)
    7f37:	74 0d                	je     7f46 <safe_div_func_uint32_t_u_u+0x21>
    7f39:	8b 45 fc             	mov    -0x4(%rbp),%eax
    7f3c:	ba 00 00 00 00       	mov    $0x0,%edx
    7f41:	f7 75 f8             	divl   -0x8(%rbp)
    7f44:	eb 03                	jmp    7f49 <safe_div_func_uint32_t_u_u+0x24>
    7f46:	8b 45 fc             	mov    -0x4(%rbp),%eax
    7f49:	5d                   	pop    %rbp
    7f4a:	c3                   	retq   

0000000000007f4b <safe_lshift_func_uint32_t_u_s>:
    7f4b:	f3 0f 1e fa          	endbr64 
    7f4f:	55                   	push   %rbp
    7f50:	48 89 e5             	mov    %rsp,%rbp
    7f53:	89 7d fc             	mov    %edi,-0x4(%rbp)
    7f56:	89 75 f8             	mov    %esi,-0x8(%rbp)
    7f59:	83 7d f8 00          	cmpl   $0x0,-0x8(%rbp)
    7f5d:	78 27                	js     7f86 <safe_lshift_func_uint32_t_u_s+0x3b>
    7f5f:	83 7d f8 1f          	cmpl   $0x1f,-0x8(%rbp)
    7f63:	7f 21                	jg     7f86 <safe_lshift_func_uint32_t_u_s+0x3b>
    7f65:	8b 45 f8             	mov    -0x8(%rbp),%eax
    7f68:	ba ff ff ff ff       	mov    $0xffffffff,%edx
    7f6d:	89 c1                	mov    %eax,%ecx
    7f6f:	d3 ea                	shr    %cl,%edx
    7f71:	89 d0                	mov    %edx,%eax
    7f73:	39 45 fc             	cmp    %eax,-0x4(%rbp)
    7f76:	77 0e                	ja     7f86 <safe_lshift_func_uint32_t_u_s+0x3b>
    7f78:	8b 45 f8             	mov    -0x8(%rbp),%eax
    7f7b:	8b 55 fc             	mov    -0x4(%rbp),%edx
    7f7e:	89 c1                	mov    %eax,%ecx
    7f80:	d3 e2                	shl    %cl,%edx
    7f82:	89 d0                	mov    %edx,%eax
    7f84:	eb 03                	jmp    7f89 <safe_lshift_func_uint32_t_u_s+0x3e>
    7f86:	8b 45 fc             	mov    -0x4(%rbp),%eax
    7f89:	5d                   	pop    %rbp
    7f8a:	c3                   	retq   

0000000000007f8b <safe_lshift_func_uint32_t_u_u>:
    7f8b:	f3 0f 1e fa          	endbr64 
    7f8f:	55                   	push   %rbp
    7f90:	48 89 e5             	mov    %rsp,%rbp
    7f93:	89 7d fc             	mov    %edi,-0x4(%rbp)
    7f96:	89 75 f8             	mov    %esi,-0x8(%rbp)
    7f99:	83 7d f8 1f          	cmpl   $0x1f,-0x8(%rbp)
    7f9d:	77 21                	ja     7fc0 <safe_lshift_func_uint32_t_u_u+0x35>
    7f9f:	8b 45 f8             	mov    -0x8(%rbp),%eax
    7fa2:	ba ff ff ff ff       	mov    $0xffffffff,%edx
    7fa7:	89 c1                	mov    %eax,%ecx
    7fa9:	d3 ea                	shr    %cl,%edx
    7fab:	89 d0                	mov    %edx,%eax
    7fad:	39 45 fc             	cmp    %eax,-0x4(%rbp)
    7fb0:	77 0e                	ja     7fc0 <safe_lshift_func_uint32_t_u_u+0x35>
    7fb2:	8b 45 f8             	mov    -0x8(%rbp),%eax
    7fb5:	8b 55 fc             	mov    -0x4(%rbp),%edx
    7fb8:	89 c1                	mov    %eax,%ecx
    7fba:	d3 e2                	shl    %cl,%edx
    7fbc:	89 d0                	mov    %edx,%eax
    7fbe:	eb 03                	jmp    7fc3 <safe_lshift_func_uint32_t_u_u+0x38>
    7fc0:	8b 45 fc             	mov    -0x4(%rbp),%eax
    7fc3:	5d                   	pop    %rbp
    7fc4:	c3                   	retq   

0000000000007fc5 <safe_rshift_func_uint32_t_u_s>:
    7fc5:	f3 0f 1e fa          	endbr64 
    7fc9:	55                   	push   %rbp
    7fca:	48 89 e5             	mov    %rsp,%rbp
    7fcd:	89 7d fc             	mov    %edi,-0x4(%rbp)
    7fd0:	89 75 f8             	mov    %esi,-0x8(%rbp)
    7fd3:	83 7d f8 00          	cmpl   $0x0,-0x8(%rbp)
    7fd7:	78 14                	js     7fed <safe_rshift_func_uint32_t_u_s+0x28>
    7fd9:	83 7d f8 1f          	cmpl   $0x1f,-0x8(%rbp)
    7fdd:	7f 0e                	jg     7fed <safe_rshift_func_uint32_t_u_s+0x28>
    7fdf:	8b 45 f8             	mov    -0x8(%rbp),%eax
    7fe2:	8b 55 fc             	mov    -0x4(%rbp),%edx
    7fe5:	89 c1                	mov    %eax,%ecx
    7fe7:	d3 ea                	shr    %cl,%edx
    7fe9:	89 d0                	mov    %edx,%eax
    7feb:	eb 03                	jmp    7ff0 <safe_rshift_func_uint32_t_u_s+0x2b>
    7fed:	8b 45 fc             	mov    -0x4(%rbp),%eax
    7ff0:	5d                   	pop    %rbp
    7ff1:	c3                   	retq   

0000000000007ff2 <safe_rshift_func_uint32_t_u_u>:
    7ff2:	f3 0f 1e fa          	endbr64 
    7ff6:	55                   	push   %rbp
    7ff7:	48 89 e5             	mov    %rsp,%rbp
    7ffa:	89 7d fc             	mov    %edi,-0x4(%rbp)
    7ffd:	89 75 f8             	mov    %esi,-0x8(%rbp)
    8000:	83 7d f8 1f          	cmpl   $0x1f,-0x8(%rbp)
    8004:	77 0e                	ja     8014 <safe_rshift_func_uint32_t_u_u+0x22>
    8006:	8b 45 f8             	mov    -0x8(%rbp),%eax
    8009:	8b 55 fc             	mov    -0x4(%rbp),%edx
    800c:	89 c1                	mov    %eax,%ecx
    800e:	d3 ea                	shr    %cl,%edx
    8010:	89 d0                	mov    %edx,%eax
    8012:	eb 03                	jmp    8017 <safe_rshift_func_uint32_t_u_u+0x25>
    8014:	8b 45 fc             	mov    -0x4(%rbp),%eax
    8017:	5d                   	pop    %rbp
    8018:	c3                   	retq   

0000000000008019 <safe_unary_minus_func_uint64_t_u>:
    8019:	f3 0f 1e fa          	endbr64 
    801d:	55                   	push   %rbp
    801e:	48 89 e5             	mov    %rsp,%rbp
    8021:	48 89 7d f8          	mov    %rdi,-0x8(%rbp)
    8025:	48 8b 45 f8          	mov    -0x8(%rbp),%rax
    8029:	48 f7 d8             	neg    %rax
    802c:	5d                   	pop    %rbp
    802d:	c3                   	retq   

000000000000802e <safe_add_func_uint64_t_u_u>:
    802e:	f3 0f 1e fa          	endbr64 
    8032:	55                   	push   %rbp
    8033:	48 89 e5             	mov    %rsp,%rbp
    8036:	48 89 7d f8          	mov    %rdi,-0x8(%rbp)
    803a:	48 89 75 f0          	mov    %rsi,-0x10(%rbp)
    803e:	48 8b 55 f8          	mov    -0x8(%rbp),%rdx
    8042:	48 8b 45 f0          	mov    -0x10(%rbp),%rax
    8046:	48 01 d0             	add    %rdx,%rax
    8049:	5d                   	pop    %rbp
    804a:	c3                   	retq   

000000000000804b <safe_sub_func_uint64_t_u_u>:
    804b:	f3 0f 1e fa          	endbr64 
    804f:	55                   	push   %rbp
    8050:	48 89 e5             	mov    %rsp,%rbp
    8053:	48 89 7d f8          	mov    %rdi,-0x8(%rbp)
    8057:	48 89 75 f0          	mov    %rsi,-0x10(%rbp)
    805b:	48 8b 45 f8          	mov    -0x8(%rbp),%rax
    805f:	48 2b 45 f0          	sub    -0x10(%rbp),%rax
    8063:	5d                   	pop    %rbp
    8064:	c3                   	retq   

0000000000008065 <safe_mul_func_uint64_t_u_u>:
    8065:	f3 0f 1e fa          	endbr64 
    8069:	55                   	push   %rbp
    806a:	48 89 e5             	mov    %rsp,%rbp
    806d:	48 89 7d f8          	mov    %rdi,-0x8(%rbp)
    8071:	48 89 75 f0          	mov    %rsi,-0x10(%rbp)
    8075:	48 8b 45 f8          	mov    -0x8(%rbp),%rax
    8079:	48 0f af 45 f0       	imul   -0x10(%rbp),%rax
    807e:	5d                   	pop    %rbp
    807f:	c3                   	retq   

0000000000008080 <safe_mod_func_uint64_t_u_u>:
    8080:	f3 0f 1e fa          	endbr64 
    8084:	55                   	push   %rbp
    8085:	48 89 e5             	mov    %rsp,%rbp
    8088:	48 89 7d f8          	mov    %rdi,-0x8(%rbp)
    808c:	48 89 75 f0          	mov    %rsi,-0x10(%rbp)
    8090:	48 83 7d f0 00       	cmpq   $0x0,-0x10(%rbp)
    8095:	74 12                	je     80a9 <safe_mod_func_uint64_t_u_u+0x29>
    8097:	48 8b 45 f8          	mov    -0x8(%rbp),%rax
    809b:	ba 00 00 00 00       	mov    $0x0,%edx
    80a0:	48 f7 75 f0          	divq   -0x10(%rbp)
    80a4:	48 89 d0             	mov    %rdx,%rax
    80a7:	eb 04                	jmp    80ad <safe_mod_func_uint64_t_u_u+0x2d>
    80a9:	48 8b 45 f8          	mov    -0x8(%rbp),%rax
    80ad:	5d                   	pop    %rbp
    80ae:	c3                   	retq   

00000000000080af <safe_div_func_uint64_t_u_u>:
    80af:	f3 0f 1e fa          	endbr64 
    80b3:	55                   	push   %rbp
    80b4:	48 89 e5             	mov    %rsp,%rbp
    80b7:	48 89 7d f8          	mov    %rdi,-0x8(%rbp)
    80bb:	48 89 75 f0          	mov    %rsi,-0x10(%rbp)
    80bf:	48 83 7d f0 00       	cmpq   $0x0,-0x10(%rbp)
    80c4:	74 0f                	je     80d5 <safe_div_func_uint64_t_u_u+0x26>
    80c6:	48 8b 45 f8          	mov    -0x8(%rbp),%rax
    80ca:	ba 00 00 00 00       	mov    $0x0,%edx
    80cf:	48 f7 75 f0          	divq   -0x10(%rbp)
    80d3:	eb 04                	jmp    80d9 <safe_div_func_uint64_t_u_u+0x2a>
    80d5:	48 8b 45 f8          	mov    -0x8(%rbp),%rax
    80d9:	5d                   	pop    %rbp
    80da:	c3                   	retq   

00000000000080db <safe_lshift_func_uint64_t_u_s>:
    80db:	f3 0f 1e fa          	endbr64 
    80df:	55                   	push   %rbp
    80e0:	48 89 e5             	mov    %rsp,%rbp
    80e3:	48 89 7d f8          	mov    %rdi,-0x8(%rbp)
    80e7:	89 75 f4             	mov    %esi,-0xc(%rbp)
    80ea:	83 7d f4 00          	cmpl   $0x0,-0xc(%rbp)
    80ee:	78 2f                	js     811f <safe_lshift_func_uint64_t_u_s+0x44>
    80f0:	83 7d f4 1f          	cmpl   $0x1f,-0xc(%rbp)
    80f4:	7f 29                	jg     811f <safe_lshift_func_uint64_t_u_s+0x44>
    80f6:	8b 45 f4             	mov    -0xc(%rbp),%eax
    80f9:	48 c7 c2 ff ff ff ff 	mov    $0xffffffffffffffff,%rdx
    8100:	89 c1                	mov    %eax,%ecx
    8102:	48 d3 ea             	shr    %cl,%rdx
    8105:	48 89 d0             	mov    %rdx,%rax
    8108:	48 39 45 f8          	cmp    %rax,-0x8(%rbp)
    810c:	77 11                	ja     811f <safe_lshift_func_uint64_t_u_s+0x44>
    810e:	8b 45 f4             	mov    -0xc(%rbp),%eax
    8111:	48 8b 55 f8          	mov    -0x8(%rbp),%rdx
    8115:	89 c1                	mov    %eax,%ecx
    8117:	48 d3 e2             	shl    %cl,%rdx
    811a:	48 89 d0             	mov    %rdx,%rax
    811d:	eb 04                	jmp    8123 <safe_lshift_func_uint64_t_u_s+0x48>
    811f:	48 8b 45 f8          	mov    -0x8(%rbp),%rax
    8123:	5d                   	pop    %rbp
    8124:	c3                   	retq   

0000000000008125 <safe_lshift_func_uint64_t_u_u>:
    8125:	f3 0f 1e fa          	endbr64 
    8129:	55                   	push   %rbp
    812a:	48 89 e5             	mov    %rsp,%rbp
    812d:	48 89 7d f8          	mov    %rdi,-0x8(%rbp)
    8131:	89 75 f4             	mov    %esi,-0xc(%rbp)
    8134:	83 7d f4 1f          	cmpl   $0x1f,-0xc(%rbp)
    8138:	77 29                	ja     8163 <safe_lshift_func_uint64_t_u_u+0x3e>
    813a:	8b 45 f4             	mov    -0xc(%rbp),%eax
    813d:	48 c7 c2 ff ff ff ff 	mov    $0xffffffffffffffff,%rdx
    8144:	89 c1                	mov    %eax,%ecx
    8146:	48 d3 ea             	shr    %cl,%rdx
    8149:	48 89 d0             	mov    %rdx,%rax
    814c:	48 39 45 f8          	cmp    %rax,-0x8(%rbp)
    8150:	77 11                	ja     8163 <safe_lshift_func_uint64_t_u_u+0x3e>
    8152:	8b 45 f4             	mov    -0xc(%rbp),%eax
    8155:	48 8b 55 f8          	mov    -0x8(%rbp),%rdx
    8159:	89 c1                	mov    %eax,%ecx
    815b:	48 d3 e2             	shl    %cl,%rdx
    815e:	48 89 d0             	mov    %rdx,%rax
    8161:	eb 04                	jmp    8167 <safe_lshift_func_uint64_t_u_u+0x42>
    8163:	48 8b 45 f8          	mov    -0x8(%rbp),%rax
    8167:	5d                   	pop    %rbp
    8168:	c3                   	retq   

0000000000008169 <safe_rshift_func_uint64_t_u_s>:
    8169:	f3 0f 1e fa          	endbr64 
    816d:	55                   	push   %rbp
    816e:	48 89 e5             	mov    %rsp,%rbp
    8171:	48 89 7d f8          	mov    %rdi,-0x8(%rbp)
    8175:	89 75 f4             	mov    %esi,-0xc(%rbp)
    8178:	83 7d f4 00          	cmpl   $0x0,-0xc(%rbp)
    817c:	78 17                	js     8195 <safe_rshift_func_uint64_t_u_s+0x2c>
    817e:	83 7d f4 1f          	cmpl   $0x1f,-0xc(%rbp)
    8182:	7f 11                	jg     8195 <safe_rshift_func_uint64_t_u_s+0x2c>
    8184:	8b 45 f4             	mov    -0xc(%rbp),%eax
    8187:	48 8b 55 f8          	mov    -0x8(%rbp),%rdx
    818b:	89 c1                	mov    %eax,%ecx
    818d:	48 d3 ea             	shr    %cl,%rdx
    8190:	48 89 d0             	mov    %rdx,%rax
    8193:	eb 04                	jmp    8199 <safe_rshift_func_uint64_t_u_s+0x30>
    8195:	48 8b 45 f8          	mov    -0x8(%rbp),%rax
    8199:	5d                   	pop    %rbp
    819a:	c3                   	retq   

000000000000819b <safe_rshift_func_uint64_t_u_u>:
    819b:	f3 0f 1e fa          	endbr64 
    819f:	55                   	push   %rbp
    81a0:	48 89 e5             	mov    %rsp,%rbp
    81a3:	48 89 7d f8          	mov    %rdi,-0x8(%rbp)
    81a7:	89 75 f4             	mov    %esi,-0xc(%rbp)
    81aa:	83 7d f4 1f          	cmpl   $0x1f,-0xc(%rbp)
    81ae:	77 11                	ja     81c1 <safe_rshift_func_uint64_t_u_u+0x26>
    81b0:	8b 45 f4             	mov    -0xc(%rbp),%eax
    81b3:	48 8b 55 f8          	mov    -0x8(%rbp),%rdx
    81b7:	89 c1                	mov    %eax,%ecx
    81b9:	48 d3 ea             	shr    %cl,%rdx
    81bc:	48 89 d0             	mov    %rdx,%rax
    81bf:	eb 04                	jmp    81c5 <safe_rshift_func_uint64_t_u_u+0x2a>
    81c1:	48 8b 45 f8          	mov    -0x8(%rbp),%rax
    81c5:	5d                   	pop    %rbp
    81c6:	c3                   	retq   

00000000000081c7 <safe_add_func_float_f_f>:
    81c7:	f3 0f 1e fa          	endbr64 
    81cb:	55                   	push   %rbp
    81cc:	48 89 e5             	mov    %rsp,%rbp
    81cf:	f3 0f 11 45 fc       	movss  %xmm0,-0x4(%rbp)
    81d4:	f3 0f 11 4d f8       	movss  %xmm1,-0x8(%rbp)
    81d9:	f3 0f 10 4d fc       	movss  -0x4(%rbp),%xmm1
    81de:	f3 0f 10 05 ca 99 00 	movss  0x99ca(%rip),%xmm0        # 11bb0 <l_1473.4569+0x150>
    81e5:	00 
    81e6:	f3 0f 59 c8          	mulss  %xmm0,%xmm1
    81ea:	f3 0f 10 55 f8       	movss  -0x8(%rbp),%xmm2
    81ef:	f3 0f 10 05 b9 99 00 	movss  0x99b9(%rip),%xmm0        # 11bb0 <l_1473.4569+0x150>
    81f6:	00 
    81f7:	f3 0f 59 c2          	mulss  %xmm2,%xmm0
    81fb:	f3 0f 58 c1          	addss  %xmm1,%xmm0
    81ff:	f3 0f 10 0d b9 99 00 	movss  0x99b9(%rip),%xmm1        # 11bc0 <l_1473.4569+0x160>
    8206:	00 
    8207:	0f 54 c1             	andps  %xmm1,%xmm0
    820a:	0f 2f 05 bf 99 00 00 	comiss 0x99bf(%rip),%xmm0        # 11bd0 <l_1473.4569+0x170>
    8211:	76 07                	jbe    821a <safe_add_func_float_f_f+0x53>
    8213:	f3 0f 10 45 fc       	movss  -0x4(%rbp),%xmm0
    8218:	eb 0a                	jmp    8224 <safe_add_func_float_f_f+0x5d>
    821a:	f3 0f 10 45 fc       	movss  -0x4(%rbp),%xmm0
    821f:	f3 0f 58 45 f8       	addss  -0x8(%rbp),%xmm0
    8224:	5d                   	pop    %rbp
    8225:	c3                   	retq   

0000000000008226 <safe_sub_func_float_f_f>:
    8226:	f3 0f 1e fa          	endbr64 
    822a:	55                   	push   %rbp
    822b:	48 89 e5             	mov    %rsp,%rbp
    822e:	f3 0f 11 45 fc       	movss  %xmm0,-0x4(%rbp)
    8233:	f3 0f 11 4d f8       	movss  %xmm1,-0x8(%rbp)
    8238:	f3 0f 10 4d fc       	movss  -0x4(%rbp),%xmm1
    823d:	f3 0f 10 05 6b 99 00 	movss  0x996b(%rip),%xmm0        # 11bb0 <l_1473.4569+0x150>
    8244:	00 
    8245:	f3 0f 59 c1          	mulss  %xmm1,%xmm0
    8249:	f3 0f 10 55 f8       	movss  -0x8(%rbp),%xmm2
    824e:	f3 0f 10 0d 5a 99 00 	movss  0x995a(%rip),%xmm1        # 11bb0 <l_1473.4569+0x150>
    8255:	00 
    8256:	f3 0f 59 ca          	mulss  %xmm2,%xmm1
    825a:	f3 0f 5c c1          	subss  %xmm1,%xmm0
    825e:	f3 0f 10 0d 5a 99 00 	movss  0x995a(%rip),%xmm1        # 11bc0 <l_1473.4569+0x160>
    8265:	00 
    8266:	0f 54 c1             	andps  %xmm1,%xmm0
    8269:	0f 2f 05 60 99 00 00 	comiss 0x9960(%rip),%xmm0        # 11bd0 <l_1473.4569+0x170>
    8270:	76 07                	jbe    8279 <safe_sub_func_float_f_f+0x53>
    8272:	f3 0f 10 45 fc       	movss  -0x4(%rbp),%xmm0
    8277:	eb 0a                	jmp    8283 <safe_sub_func_float_f_f+0x5d>
    8279:	f3 0f 10 45 fc       	movss  -0x4(%rbp),%xmm0
    827e:	f3 0f 5c 45 f8       	subss  -0x8(%rbp),%xmm0
    8283:	5d                   	pop    %rbp
    8284:	c3                   	retq   

0000000000008285 <safe_mul_func_float_f_f>:
    8285:	f3 0f 1e fa          	endbr64 
    8289:	55                   	push   %rbp
    828a:	48 89 e5             	mov    %rsp,%rbp
    828d:	f3 0f 11 45 fc       	movss  %xmm0,-0x4(%rbp)
    8292:	f3 0f 11 4d f8       	movss  %xmm1,-0x8(%rbp)
    8297:	f3 0f 10 4d fc       	movss  -0x4(%rbp),%xmm1
    829c:	f3 0f 10 05 30 99 00 	movss  0x9930(%rip),%xmm0        # 11bd4 <l_1473.4569+0x174>
    82a3:	00 
    82a4:	f3 0f 59 c8          	mulss  %xmm0,%xmm1
    82a8:	f3 0f 10 55 f8       	movss  -0x8(%rbp),%xmm2
    82ad:	f3 0f 10 05 23 99 00 	movss  0x9923(%rip),%xmm0        # 11bd8 <l_1473.4569+0x178>
    82b4:	00 
    82b5:	f3 0f 59 c2          	mulss  %xmm2,%xmm0
    82b9:	f3 0f 59 c1          	mulss  %xmm1,%xmm0
    82bd:	f3 0f 10 0d fb 98 00 	movss  0x98fb(%rip),%xmm1        # 11bc0 <l_1473.4569+0x160>
    82c4:	00 
    82c5:	0f 54 c1             	andps  %xmm1,%xmm0
    82c8:	0f 2f 05 0d 99 00 00 	comiss 0x990d(%rip),%xmm0        # 11bdc <l_1473.4569+0x17c>
    82cf:	76 07                	jbe    82d8 <safe_mul_func_float_f_f+0x53>
    82d1:	f3 0f 10 45 fc       	movss  -0x4(%rbp),%xmm0
    82d6:	eb 0a                	jmp    82e2 <safe_mul_func_float_f_f+0x5d>
    82d8:	f3 0f 10 45 fc       	movss  -0x4(%rbp),%xmm0
    82dd:	f3 0f 59 45 f8       	mulss  -0x8(%rbp),%xmm0
    82e2:	5d                   	pop    %rbp
    82e3:	c3                   	retq   

00000000000082e4 <safe_div_func_float_f_f>:
    82e4:	f3 0f 1e fa          	endbr64 
    82e8:	55                   	push   %rbp
    82e9:	48 89 e5             	mov    %rsp,%rbp
    82ec:	f3 0f 11 45 fc       	movss  %xmm0,-0x4(%rbp)
    82f1:	f3 0f 11 4d f8       	movss  %xmm1,-0x8(%rbp)
    82f6:	f3 0f 10 45 f8       	movss  -0x8(%rbp),%xmm0
    82fb:	f3 0f 10 0d bd 98 00 	movss  0x98bd(%rip),%xmm1        # 11bc0 <l_1473.4569+0x160>
    8302:	00 
    8303:	0f 54 c8             	andps  %xmm0,%xmm1
    8306:	f3 0f 10 05 d2 98 00 	movss  0x98d2(%rip),%xmm0        # 11be0 <l_1473.4569+0x180>
    830d:	00 
    830e:	0f 2f c1             	comiss %xmm1,%xmm0
    8311:	0f 97 c0             	seta   %al
    8314:	83 f0 01             	xor    $0x1,%eax
    8317:	84 c0                	test   %al,%al
    8319:	75 56                	jne    8371 <safe_div_func_float_f_f+0x8d>
    831b:	66 0f ef c0          	pxor   %xmm0,%xmm0
    831f:	0f 2e 45 f8          	ucomiss -0x8(%rbp),%xmm0
    8323:	7a 0a                	jp     832f <safe_div_func_float_f_f+0x4b>
    8325:	66 0f ef c0          	pxor   %xmm0,%xmm0
    8329:	0f 2e 45 f8          	ucomiss -0x8(%rbp),%xmm0
    832d:	74 4e                	je     837d <safe_div_func_float_f_f+0x99>
    832f:	f3 0f 10 4d fc       	movss  -0x4(%rbp),%xmm1
    8334:	f3 0f 10 05 a8 98 00 	movss  0x98a8(%rip),%xmm0        # 11be4 <l_1473.4569+0x184>
    833b:	00 
    833c:	f3 0f 59 c1          	mulss  %xmm1,%xmm0
    8340:	f3 0f 10 55 f8       	movss  -0x8(%rbp),%xmm2
    8345:	f3 0f 10 0d 9b 98 00 	movss  0x989b(%rip),%xmm1        # 11be8 <l_1473.4569+0x188>
    834c:	00 
    834d:	f3 0f 59 ca          	mulss  %xmm2,%xmm1
    8351:	f3 0f 5e c1          	divss  %xmm1,%xmm0
    8355:	f3 0f 10 0d 63 98 00 	movss  0x9863(%rip),%xmm1        # 11bc0 <l_1473.4569+0x160>
    835c:	00 
    835d:	0f 54 c1             	andps  %xmm1,%xmm0
    8360:	0f 2f 05 85 98 00 00 	comiss 0x9885(%rip),%xmm0        # 11bec <l_1473.4569+0x18c>
    8367:	0f 97 c0             	seta   %al
    836a:	83 f0 01             	xor    $0x1,%eax
    836d:	84 c0                	test   %al,%al
    836f:	74 0c                	je     837d <safe_div_func_float_f_f+0x99>
    8371:	f3 0f 10 45 fc       	movss  -0x4(%rbp),%xmm0
    8376:	f3 0f 5e 45 f8       	divss  -0x8(%rbp),%xmm0
    837b:	eb 05                	jmp    8382 <safe_div_func_float_f_f+0x9e>
    837d:	f3 0f 10 45 fc       	movss  -0x4(%rbp),%xmm0
    8382:	5d                   	pop    %rbp
    8383:	c3                   	retq   

0000000000008384 <safe_add_func_double_f_f>:
    8384:	f3 0f 1e fa          	endbr64 
    8388:	55                   	push   %rbp
    8389:	48 89 e5             	mov    %rsp,%rbp
    838c:	f2 0f 11 45 f8       	movsd  %xmm0,-0x8(%rbp)
    8391:	f2 0f 11 4d f0       	movsd  %xmm1,-0x10(%rbp)
    8396:	f2 0f 10 4d f8       	movsd  -0x8(%rbp),%xmm1
    839b:	f2 0f 10 05 4d 98 00 	movsd  0x984d(%rip),%xmm0        # 11bf0 <l_1473.4569+0x190>
    83a2:	00 
    83a3:	f2 0f 59 c8          	mulsd  %xmm0,%xmm1
    83a7:	f2 0f 10 55 f0       	movsd  -0x10(%rbp),%xmm2
    83ac:	f2 0f 10 05 3c 98 00 	movsd  0x983c(%rip),%xmm0        # 11bf0 <l_1473.4569+0x190>
    83b3:	00 
    83b4:	f2 0f 59 c2          	mulsd  %xmm2,%xmm0
    83b8:	f2 0f 58 c1          	addsd  %xmm1,%xmm0
    83bc:	f3 0f 7e 0d 3c 98 00 	movq   0x983c(%rip),%xmm1        # 11c00 <l_1473.4569+0x1a0>
    83c3:	00 
    83c4:	66 0f 54 c1          	andpd  %xmm1,%xmm0
    83c8:	66 0f 2f 05 40 98 00 	comisd 0x9840(%rip),%xmm0        # 11c10 <l_1473.4569+0x1b0>
    83cf:	00 
    83d0:	76 07                	jbe    83d9 <safe_add_func_double_f_f+0x55>
    83d2:	f2 0f 10 45 f8       	movsd  -0x8(%rbp),%xmm0
    83d7:	eb 0a                	jmp    83e3 <safe_add_func_double_f_f+0x5f>
    83d9:	f2 0f 10 45 f8       	movsd  -0x8(%rbp),%xmm0
    83de:	f2 0f 58 45 f0       	addsd  -0x10(%rbp),%xmm0
    83e3:	5d                   	pop    %rbp
    83e4:	c3                   	retq   

00000000000083e5 <safe_sub_func_double_f_f>:
    83e5:	f3 0f 1e fa          	endbr64 
    83e9:	55                   	push   %rbp
    83ea:	48 89 e5             	mov    %rsp,%rbp
    83ed:	f2 0f 11 45 f8       	movsd  %xmm0,-0x8(%rbp)
    83f2:	f2 0f 11 4d f0       	movsd  %xmm1,-0x10(%rbp)
    83f7:	f2 0f 10 4d f8       	movsd  -0x8(%rbp),%xmm1
    83fc:	f2 0f 10 05 ec 97 00 	movsd  0x97ec(%rip),%xmm0        # 11bf0 <l_1473.4569+0x190>
    8403:	00 
    8404:	f2 0f 59 c1          	mulsd  %xmm1,%xmm0
    8408:	f2 0f 10 55 f0       	movsd  -0x10(%rbp),%xmm2
    840d:	f2 0f 10 0d db 97 00 	movsd  0x97db(%rip),%xmm1        # 11bf0 <l_1473.4569+0x190>
    8414:	00 
    8415:	f2 0f 59 ca          	mulsd  %xmm2,%xmm1
    8419:	f2 0f 5c c1          	subsd  %xmm1,%xmm0
    841d:	f3 0f 7e 0d db 97 00 	movq   0x97db(%rip),%xmm1        # 11c00 <l_1473.4569+0x1a0>
    8424:	00 
    8425:	66 0f 54 c1          	andpd  %xmm1,%xmm0
    8429:	66 0f 2f 05 df 97 00 	comisd 0x97df(%rip),%xmm0        # 11c10 <l_1473.4569+0x1b0>
    8430:	00 
    8431:	76 07                	jbe    843a <safe_sub_func_double_f_f+0x55>
    8433:	f2 0f 10 45 f8       	movsd  -0x8(%rbp),%xmm0
    8438:	eb 0a                	jmp    8444 <safe_sub_func_double_f_f+0x5f>
    843a:	f2 0f 10 45 f8       	movsd  -0x8(%rbp),%xmm0
    843f:	f2 0f 5c 45 f0       	subsd  -0x10(%rbp),%xmm0
    8444:	5d                   	pop    %rbp
    8445:	c3                   	retq   

0000000000008446 <safe_mul_func_double_f_f>:
    8446:	f3 0f 1e fa          	endbr64 
    844a:	55                   	push   %rbp
    844b:	48 89 e5             	mov    %rsp,%rbp
    844e:	f2 0f 11 45 f8       	movsd  %xmm0,-0x8(%rbp)
    8453:	f2 0f 11 4d f0       	movsd  %xmm1,-0x10(%rbp)
    8458:	f2 0f 10 4d f8       	movsd  -0x8(%rbp),%xmm1
    845d:	f2 0f 10 05 b3 97 00 	movsd  0x97b3(%rip),%xmm0        # 11c18 <l_1473.4569+0x1b8>
    8464:	00 
    8465:	f2 0f 59 c8          	mulsd  %xmm0,%xmm1
    8469:	f2 0f 10 55 f0       	movsd  -0x10(%rbp),%xmm2
    846e:	f2 0f 10 05 aa 97 00 	movsd  0x97aa(%rip),%xmm0        # 11c20 <l_1473.4569+0x1c0>
    8475:	00 
    8476:	f2 0f 59 c2          	mulsd  %xmm2,%xmm0
    847a:	f2 0f 59 c1          	mulsd  %xmm1,%xmm0
    847e:	f3 0f 7e 0d 7a 97 00 	movq   0x977a(%rip),%xmm1        # 11c00 <l_1473.4569+0x1a0>
    8485:	00 
    8486:	66 0f 54 c1          	andpd  %xmm1,%xmm0
    848a:	66 0f 2f 05 96 97 00 	comisd 0x9796(%rip),%xmm0        # 11c28 <l_1473.4569+0x1c8>
    8491:	00 
    8492:	76 07                	jbe    849b <safe_mul_func_double_f_f+0x55>
    8494:	f2 0f 10 45 f8       	movsd  -0x8(%rbp),%xmm0
    8499:	eb 0a                	jmp    84a5 <safe_mul_func_double_f_f+0x5f>
    849b:	f2 0f 10 45 f8       	movsd  -0x8(%rbp),%xmm0
    84a0:	f2 0f 59 45 f0       	mulsd  -0x10(%rbp),%xmm0
    84a5:	5d                   	pop    %rbp
    84a6:	c3                   	retq   

00000000000084a7 <safe_div_func_double_f_f>:
    84a7:	f3 0f 1e fa          	endbr64 
    84ab:	55                   	push   %rbp
    84ac:	48 89 e5             	mov    %rsp,%rbp
    84af:	f2 0f 11 45 f8       	movsd  %xmm0,-0x8(%rbp)
    84b4:	f2 0f 11 4d f0       	movsd  %xmm1,-0x10(%rbp)
    84b9:	f2 0f 10 45 f0       	movsd  -0x10(%rbp),%xmm0
    84be:	f3 0f 7e 0d 3a 97 00 	movq   0x973a(%rip),%xmm1        # 11c00 <l_1473.4569+0x1a0>
    84c5:	00 
    84c6:	66 0f 54 c8          	andpd  %xmm0,%xmm1
    84ca:	f2 0f 10 05 5e 97 00 	movsd  0x975e(%rip),%xmm0        # 11c30 <l_1473.4569+0x1d0>
    84d1:	00 
    84d2:	66 0f 2f c1          	comisd %xmm1,%xmm0
    84d6:	0f 97 c0             	seta   %al
    84d9:	83 f0 01             	xor    $0x1,%eax
    84dc:	84 c0                	test   %al,%al
    84de:	75 5a                	jne    853a <safe_div_func_double_f_f+0x93>
    84e0:	66 0f ef c0          	pxor   %xmm0,%xmm0
    84e4:	66 0f 2e 45 f0       	ucomisd -0x10(%rbp),%xmm0
    84e9:	7a 0b                	jp     84f6 <safe_div_func_double_f_f+0x4f>
    84eb:	66 0f ef c0          	pxor   %xmm0,%xmm0
    84ef:	66 0f 2e 45 f0       	ucomisd -0x10(%rbp),%xmm0
    84f4:	74 50                	je     8546 <safe_div_func_double_f_f+0x9f>
    84f6:	f2 0f 10 4d f8       	movsd  -0x8(%rbp),%xmm1
    84fb:	f2 0f 10 05 35 97 00 	movsd  0x9735(%rip),%xmm0        # 11c38 <l_1473.4569+0x1d8>
    8502:	00 
    8503:	f2 0f 59 c1          	mulsd  %xmm1,%xmm0
    8507:	f2 0f 10 55 f0       	movsd  -0x10(%rbp),%xmm2
    850c:	f2 0f 10 0d 2c 97 00 	movsd  0x972c(%rip),%xmm1        # 11c40 <l_1473.4569+0x1e0>
    8513:	00 
    8514:	f2 0f 59 ca          	mulsd  %xmm2,%xmm1
    8518:	f2 0f 5e c1          	divsd  %xmm1,%xmm0
    851c:	f3 0f 7e 0d dc 96 00 	movq   0x96dc(%rip),%xmm1        # 11c00 <l_1473.4569+0x1a0>
    8523:	00 
    8524:	66 0f 54 c1          	andpd  %xmm1,%xmm0
    8528:	66 0f 2f 05 18 97 00 	comisd 0x9718(%rip),%xmm0        # 11c48 <l_1473.4569+0x1e8>
    852f:	00 
    8530:	0f 97 c0             	seta   %al
    8533:	83 f0 01             	xor    $0x1,%eax
    8536:	84 c0                	test   %al,%al
    8538:	74 0c                	je     8546 <safe_div_func_double_f_f+0x9f>
    853a:	f2 0f 10 45 f8       	movsd  -0x8(%rbp),%xmm0
    853f:	f2 0f 5e 45 f0       	divsd  -0x10(%rbp),%xmm0
    8544:	eb 05                	jmp    854b <safe_div_func_double_f_f+0xa4>
    8546:	f2 0f 10 45 f8       	movsd  -0x8(%rbp),%xmm0
    854b:	5d                   	pop    %rbp
    854c:	c3                   	retq   

000000000000854d <safe_convert_func_float_to_int32_t>:
    854d:	f3 0f 1e fa          	endbr64 
    8551:	55                   	push   %rbp
    8552:	48 89 e5             	mov    %rsp,%rbp
    8555:	f3 0f 11 45 fc       	movss  %xmm0,-0x4(%rbp)
    855a:	f3 0f 10 05 ee 96 00 	movss  0x96ee(%rip),%xmm0        # 11c50 <l_1473.4569+0x1f0>
    8561:	00 
    8562:	0f 2f 45 fc          	comiss -0x4(%rbp),%xmm0
    8566:	0f 93 c0             	setae  %al
    8569:	83 f0 01             	xor    $0x1,%eax
    856c:	84 c0                	test   %al,%al
    856e:	74 21                	je     8591 <safe_convert_func_float_to_int32_t+0x44>
    8570:	f3 0f 10 45 fc       	movss  -0x4(%rbp),%xmm0
    8575:	0f 2f 05 d8 96 00 00 	comiss 0x96d8(%rip),%xmm0        # 11c54 <l_1473.4569+0x1f4>
    857c:	0f 93 c0             	setae  %al
    857f:	83 f0 01             	xor    $0x1,%eax
    8582:	84 c0                	test   %al,%al
    8584:	74 0b                	je     8591 <safe_convert_func_float_to_int32_t+0x44>
    8586:	f3 0f 10 45 fc       	movss  -0x4(%rbp),%xmm0
    858b:	f3 0f 2c c0          	cvttss2si %xmm0,%eax
    858f:	eb 05                	jmp    8596 <safe_convert_func_float_to_int32_t+0x49>
    8591:	b8 ff ff ff 7f       	mov    $0x7fffffff,%eax
    8596:	5d                   	pop    %rbp
    8597:	c3                   	retq   

0000000000008598 <crc32_gentab>:
    8598:	f3 0f 1e fa          	endbr64 
    859c:	55                   	push   %rbp
    859d:	48 89 e5             	mov    %rsp,%rbp
    85a0:	c7 45 fc 20 83 b8 ed 	movl   $0xedb88320,-0x4(%rbp)
    85a7:	c7 45 f4 00 00 00 00 	movl   $0x0,-0xc(%rbp)
    85ae:	eb 51                	jmp    8601 <crc32_gentab+0x69>
    85b0:	8b 45 f4             	mov    -0xc(%rbp),%eax
    85b3:	89 45 f0             	mov    %eax,-0x10(%rbp)
    85b6:	c7 45 f8 08 00 00 00 	movl   $0x8,-0x8(%rbp)
    85bd:	eb 1e                	jmp    85dd <crc32_gentab+0x45>
    85bf:	8b 45 f0             	mov    -0x10(%rbp),%eax
    85c2:	83 e0 01             	and    $0x1,%eax
    85c5:	85 c0                	test   %eax,%eax
    85c7:	74 0d                	je     85d6 <crc32_gentab+0x3e>
    85c9:	8b 45 f0             	mov    -0x10(%rbp),%eax
    85cc:	d1 e8                	shr    %eax
    85ce:	33 45 fc             	xor    -0x4(%rbp),%eax
    85d1:	89 45 f0             	mov    %eax,-0x10(%rbp)
    85d4:	eb 03                	jmp    85d9 <crc32_gentab+0x41>
    85d6:	d1 6d f0             	shrl   -0x10(%rbp)
    85d9:	83 6d f8 01          	subl   $0x1,-0x8(%rbp)
    85dd:	83 7d f8 00          	cmpl   $0x0,-0x8(%rbp)
    85e1:	7f dc                	jg     85bf <crc32_gentab+0x27>
    85e3:	8b 45 f4             	mov    -0xc(%rbp),%eax
    85e6:	48 98                	cltq   
    85e8:	48 8d 0c 85 00 00 00 	lea    0x0(,%rax,4),%rcx
    85ef:	00 
    85f0:	48 8d 15 a9 00 01 00 	lea    0x100a9(%rip),%rdx        # 186a0 <crc32_tab>
    85f7:	8b 45 f0             	mov    -0x10(%rbp),%eax
    85fa:	89 04 11             	mov    %eax,(%rcx,%rdx,1)
    85fd:	83 45 f4 01          	addl   $0x1,-0xc(%rbp)
    8601:	81 7d f4 ff 00 00 00 	cmpl   $0xff,-0xc(%rbp)
    8608:	7e a6                	jle    85b0 <crc32_gentab+0x18>
    860a:	90                   	nop
    860b:	90                   	nop
    860c:	5d                   	pop    %rbp
    860d:	c3                   	retq   

000000000000860e <crc32_byte>:
    860e:	f3 0f 1e fa          	endbr64 
    8612:	55                   	push   %rbp
    8613:	48 89 e5             	mov    %rsp,%rbp
    8616:	89 f8                	mov    %edi,%eax
    8618:	88 45 fc             	mov    %al,-0x4(%rbp)
    861b:	8b 05 ff c9 00 00    	mov    0xc9ff(%rip),%eax        # 15020 <crc32_context>
    8621:	c1 e8 08             	shr    $0x8,%eax
    8624:	89 c1                	mov    %eax,%ecx
    8626:	0f b6 55 fc          	movzbl -0x4(%rbp),%edx
    862a:	8b 05 f0 c9 00 00    	mov    0xc9f0(%rip),%eax        # 15020 <crc32_context>
    8630:	31 d0                	xor    %edx,%eax
    8632:	0f b6 c0             	movzbl %al,%eax
    8635:	89 c0                	mov    %eax,%eax
    8637:	48 8d 14 85 00 00 00 	lea    0x0(,%rax,4),%rdx
    863e:	00 
    863f:	48 8d 05 5a 00 01 00 	lea    0x1005a(%rip),%rax        # 186a0 <crc32_tab>
    8646:	8b 04 02             	mov    (%rdx,%rax,1),%eax
    8649:	31 c8                	xor    %ecx,%eax
    864b:	89 05 cf c9 00 00    	mov    %eax,0xc9cf(%rip)        # 15020 <crc32_context>
    8651:	90                   	nop
    8652:	5d                   	pop    %rbp
    8653:	c3                   	retq   

0000000000008654 <crc32_8bytes>:
    8654:	f3 0f 1e fa          	endbr64 
    8658:	55                   	push   %rbp
    8659:	48 89 e5             	mov    %rsp,%rbp
    865c:	48 83 ec 08          	sub    $0x8,%rsp
    8660:	48 89 7d f8          	mov    %rdi,-0x8(%rbp)
    8664:	48 8b 45 f8          	mov    -0x8(%rbp),%rax
    8668:	0f b6 c0             	movzbl %al,%eax
    866b:	89 c7                	mov    %eax,%edi
    866d:	e8 9c ff ff ff       	callq  860e <crc32_byte>
    8672:	48 8b 45 f8          	mov    -0x8(%rbp),%rax
    8676:	48 c1 e8 08          	shr    $0x8,%rax
    867a:	0f b6 c0             	movzbl %al,%eax
    867d:	89 c7                	mov    %eax,%edi
    867f:	e8 8a ff ff ff       	callq  860e <crc32_byte>
    8684:	48 8b 45 f8          	mov    -0x8(%rbp),%rax
    8688:	48 c1 e8 10          	shr    $0x10,%rax
    868c:	0f b6 c0             	movzbl %al,%eax
    868f:	89 c7                	mov    %eax,%edi
    8691:	e8 78 ff ff ff       	callq  860e <crc32_byte>
    8696:	48 8b 45 f8          	mov    -0x8(%rbp),%rax
    869a:	48 c1 e8 18          	shr    $0x18,%rax
    869e:	0f b6 c0             	movzbl %al,%eax
    86a1:	89 c7                	mov    %eax,%edi
    86a3:	e8 66 ff ff ff       	callq  860e <crc32_byte>
    86a8:	48 8b 45 f8          	mov    -0x8(%rbp),%rax
    86ac:	48 c1 e8 20          	shr    $0x20,%rax
    86b0:	0f b6 c0             	movzbl %al,%eax
    86b3:	89 c7                	mov    %eax,%edi
    86b5:	e8 54 ff ff ff       	callq  860e <crc32_byte>
    86ba:	48 8b 45 f8          	mov    -0x8(%rbp),%rax
    86be:	48 c1 e8 28          	shr    $0x28,%rax
    86c2:	0f b6 c0             	movzbl %al,%eax
    86c5:	89 c7                	mov    %eax,%edi
    86c7:	e8 42 ff ff ff       	callq  860e <crc32_byte>
    86cc:	48 8b 45 f8          	mov    -0x8(%rbp),%rax
    86d0:	48 c1 e8 30          	shr    $0x30,%rax
    86d4:	0f b6 c0             	movzbl %al,%eax
    86d7:	89 c7                	mov    %eax,%edi
    86d9:	e8 30 ff ff ff       	callq  860e <crc32_byte>
    86de:	48 8b 45 f8          	mov    -0x8(%rbp),%rax
    86e2:	48 c1 e8 38          	shr    $0x38,%rax
    86e6:	0f b6 c0             	movzbl %al,%eax
    86e9:	89 c7                	mov    %eax,%edi
    86eb:	e8 1e ff ff ff       	callq  860e <crc32_byte>
    86f0:	90                   	nop
    86f1:	c9                   	leaveq 
    86f2:	c3                   	retq   

00000000000086f3 <transparent_crc>:
    86f3:	f3 0f 1e fa          	endbr64 
    86f7:	55                   	push   %rbp
    86f8:	48 89 e5             	mov    %rsp,%rbp
    86fb:	48 83 ec 20          	sub    $0x20,%rsp
    86ff:	48 89 7d f8          	mov    %rdi,-0x8(%rbp)
    8703:	48 89 75 f0          	mov    %rsi,-0x10(%rbp)
    8707:	89 55 ec             	mov    %edx,-0x14(%rbp)
    870a:	48 8b 45 f8          	mov    -0x8(%rbp),%rax
    870e:	48 89 c7             	mov    %rax,%rdi
    8711:	e8 3e ff ff ff       	callq  8654 <crc32_8bytes>
    8716:	83 7d ec 00          	cmpl   $0x0,-0x14(%rbp)
    871a:	74 22                	je     873e <transparent_crc+0x4b>
    871c:	8b 05 fe c8 00 00    	mov    0xc8fe(%rip),%eax        # 15020 <crc32_context>
    8722:	f7 d0                	not    %eax
    8724:	89 c2                	mov    %eax,%edx
    8726:	48 8b 45 f0          	mov    -0x10(%rbp),%rax
    872a:	48 89 c6             	mov    %rax,%rsi
    872d:	48 8d 3d fc 88 00 00 	lea    0x88fc(%rip),%rdi        # 11030 <_IO_stdin_used+0x30>
    8734:	b8 00 00 00 00       	mov    $0x0,%eax
    8739:	e8 42 e9 ff ff       	callq  7080 <printf@plt>
    873e:	90                   	nop
    873f:	c9                   	leaveq 
    8740:	c3                   	retq   

0000000000008741 <transparent_crc_bytes>:
    8741:	f3 0f 1e fa          	endbr64 
    8745:	55                   	push   %rbp
    8746:	48 89 e5             	mov    %rsp,%rbp
    8749:	48 83 ec 30          	sub    $0x30,%rsp
    874d:	48 89 7d e8          	mov    %rdi,-0x18(%rbp)
    8751:	89 75 e4             	mov    %esi,-0x1c(%rbp)
    8754:	48 89 55 d8          	mov    %rdx,-0x28(%rbp)
    8758:	89 4d e0             	mov    %ecx,-0x20(%rbp)
    875b:	c7 45 fc 00 00 00 00 	movl   $0x0,-0x4(%rbp)
    8762:	eb 1e                	jmp    8782 <transparent_crc_bytes+0x41>
    8764:	8b 45 fc             	mov    -0x4(%rbp),%eax
    8767:	48 63 d0             	movslq %eax,%rdx
    876a:	48 8b 45 e8          	mov    -0x18(%rbp),%rax
    876e:	48 01 d0             	add    %rdx,%rax
    8771:	0f b6 00             	movzbl (%rax),%eax
    8774:	0f b6 c0             	movzbl %al,%eax
    8777:	89 c7                	mov    %eax,%edi
    8779:	e8 90 fe ff ff       	callq  860e <crc32_byte>
    877e:	83 45 fc 01          	addl   $0x1,-0x4(%rbp)
    8782:	8b 45 fc             	mov    -0x4(%rbp),%eax
    8785:	3b 45 e4             	cmp    -0x1c(%rbp),%eax
    8788:	7c da                	jl     8764 <transparent_crc_bytes+0x23>
    878a:	83 7d e0 00          	cmpl   $0x0,-0x20(%rbp)
    878e:	74 22                	je     87b2 <transparent_crc_bytes+0x71>
    8790:	8b 05 8a c8 00 00    	mov    0xc88a(%rip),%eax        # 15020 <crc32_context>
    8796:	f7 d0                	not    %eax
    8798:	89 c2                	mov    %eax,%edx
    879a:	48 8b 45 d8          	mov    -0x28(%rbp),%rax
    879e:	48 89 c6             	mov    %rax,%rsi
    87a1:	48 8d 3d 88 88 00 00 	lea    0x8888(%rip),%rdi        # 11030 <_IO_stdin_used+0x30>
    87a8:	b8 00 00 00 00       	mov    $0x0,%eax
    87ad:	e8 ce e8 ff ff       	callq  7080 <printf@plt>
    87b2:	90                   	nop
    87b3:	c9                   	leaveq 
    87b4:	c3                   	retq   

00000000000087b5 <func_1>:
    87b5:	f3 0f 1e fa          	endbr64 
    87b9:	55                   	push   %rbp
    87ba:	48 89 e5             	mov    %rsp,%rbp
    87bd:	41 57                	push   %r15
    87bf:	41 56                	push   %r14
    87c1:	41 55                	push   %r13
    87c3:	41 54                	push   %r12
    87c5:	53                   	push   %rbx
    87c6:	48 81 ec 08 0b 00 00 	sub    $0xb08,%rsp
    87cd:	64 48 8b 04 25 28 00 	mov    %fs:0x28,%rax
    87d4:	00 00 
    87d6:	48 89 45 c8          	mov    %rax,-0x38(%rbp)
    87da:	31 c0                	xor    %eax,%eax
    87dc:	66 c7 85 de f4 ff ff 	movw   $0x7d0f,-0xb22(%rbp)
    87e3:	0f 7d 
    87e5:	c7 85 08 f5 ff ff fa 	movl   $0xfffffffa,-0xaf8(%rbp)
    87ec:	ff ff ff 
    87ef:	c7 85 0c f5 ff ff 01 	movl   $0x1,-0xaf4(%rbp)
    87f6:	00 00 00 
    87f9:	48 8d 05 28 c8 00 00 	lea    0xc828(%rip),%rax        # 15028 <g_3>
    8800:	48 89 85 e0 f5 ff ff 	mov    %rax,-0xa20(%rbp)
    8807:	48 8d 05 1a c8 00 00 	lea    0xc81a(%rip),%rax        # 15028 <g_3>
    880e:	48 89 85 e8 f5 ff ff 	mov    %rax,-0xa18(%rbp)
    8815:	48 8d 05 0c c8 00 00 	lea    0xc80c(%rip),%rax        # 15028 <g_3>
    881c:	48 89 85 f0 f5 ff ff 	mov    %rax,-0xa10(%rbp)
    8823:	48 8d 05 fe c7 00 00 	lea    0xc7fe(%rip),%rax        # 15028 <g_3>
    882a:	48 89 85 f8 f5 ff ff 	mov    %rax,-0xa08(%rbp)
    8831:	48 8d 05 f0 c7 00 00 	lea    0xc7f0(%rip),%rax        # 15028 <g_3>
    8838:	48 89 85 00 f6 ff ff 	mov    %rax,-0xa00(%rbp)
    883f:	48 8d 05 e2 c7 00 00 	lea    0xc7e2(%rip),%rax        # 15028 <g_3>
    8846:	48 89 85 08 f6 ff ff 	mov    %rax,-0x9f8(%rbp)
    884d:	c6 85 d6 f4 ff ff 37 	movb   $0x37,-0xb2a(%rbp)
    8854:	48 8d 05 0d c8 00 00 	lea    0xc80d(%rip),%rax        # 15068 <g_14>
    885b:	48 89 85 18 f5 ff ff 	mov    %rax,-0xae8(%rbp)
    8862:	48 8d 05 5f ee 00 00 	lea    0xee5f(%rip),%rax        # 176c8 <g_20>
    8869:	48 89 85 20 f5 ff ff 	mov    %rax,-0xae0(%rbp)
    8870:	48 8d 05 09 c8 00 00 	lea    0xc809(%rip),%rax        # 15080 <g_42>
    8877:	48 89 85 28 f5 ff ff 	mov    %rax,-0xad8(%rbp)
    887e:	c6 85 d7 f4 ff ff 00 	movb   $0x0,-0xb29(%rbp)
    8885:	66 c7 85 e0 f4 ff ff 	movw   $0xdbff,-0xb20(%rbp)
    888c:	ff db 
    888e:	c6 85 d8 f4 ff ff 06 	movb   $0x6,-0xb28(%rbp)
    8895:	48 8d 85 60 f6 ff ff 	lea    -0x9a0(%rbp),%rax
    889c:	48 8d 15 fd 87 00 00 	lea    0x87fd(%rip),%rdx        # 110a0 <g_2821+0x18>
    88a3:	b9 31 00 00 00       	mov    $0x31,%ecx
    88a8:	48 89 c7             	mov    %rax,%rdi
    88ab:	48 89 d6             	mov    %rdx,%rsi
    88ae:	f3 48 a5             	rep movsq %ds:(%rsi),%es:(%rdi)
    88b1:	c7 85 10 f5 ff ff 16 	movl   $0x738af716,-0xaf0(%rbp)
    88b8:	f7 8a 73 
    88bb:	66 c7 85 e2 f4 ff ff 	movw   $0x6,-0xb1e(%rbp)
    88c2:	06 00 
    88c4:	c6 85 d9 f4 ff ff ef 	movb   $0xef,-0xb27(%rbp)
    88cb:	c7 85 e8 f4 ff ff f7 	movl   $0xfffffff7,-0xb18(%rbp)
    88d2:	ff ff ff 
    88d5:	c7 85 14 f5 ff ff 02 	movl   $0x2,-0xaec(%rbp)
    88dc:	00 00 00 
    88df:	66 c7 85 e4 f4 ff ff 	movw   $0x1,-0xb1c(%rbp)
    88e6:	01 00 
    88e8:	c6 85 da f4 ff ff 01 	movb   $0x1,-0xb26(%rbp)
    88ef:	c7 85 f0 f4 ff ff 1e 	movl   $0x3a36cd1e,-0xb10(%rbp)
    88f6:	cd 36 3a 
    88f9:	c7 85 f4 f4 ff ff 00 	movl   $0x0,-0xb0c(%rbp)
    8900:	00 00 00 
    8903:	eb 1b                	jmp    8920 <func_1+0x16b>
    8905:	8b 85 f4 f4 ff ff    	mov    -0xb0c(%rbp),%eax
    890b:	48 98                	cltq   
    890d:	48 c7 84 c5 70 f5 ff 	movq   $0x0,-0xa90(%rbp,%rax,8)
    8914:	ff 00 00 00 00 
    8919:	83 85 f4 f4 ff ff 01 	addl   $0x1,-0xb0c(%rbp)
    8920:	83 bd f4 f4 ff ff 01 	cmpl   $0x1,-0xb0c(%rbp)
    8927:	7e dc                	jle    8905 <func_1+0x150>
    8929:	c7 05 f5 c6 00 00 1c 	movl   $0x1c,0xc6f5(%rip)        # 15028 <g_3>
    8930:	00 00 00 
    8933:	eb 79                	jmp    89ae <func_1+0x1f9>
    8935:	48 c7 85 58 f5 ff ff 	movq   $0x0,-0xaa8(%rbp)
    893c:	00 00 00 00 
    8940:	48 8d 85 f0 f7 ff ff 	lea    -0x810(%rbp),%rax
    8947:	48 8d 15 92 d0 00 00 	lea    0xd092(%rip),%rdx        # 159e0 <g_3344+0x8>
    894e:	b9 fa 00 00 00       	mov    $0xfa,%ecx
    8953:	48 89 c7             	mov    %rax,%rdi
    8956:	48 89 d6             	mov    %rdx,%rsi
    8959:	f3 48 a5             	rep movsq %ds:(%rsi),%es:(%rdi)
    895c:	48 8d 85 f0 f7 ff ff 	lea    -0x810(%rbp),%rax
    8963:	48 05 48 06 00 00    	add    $0x648,%rax
    8969:	48 89 85 60 f5 ff ff 	mov    %rax,-0xaa0(%rbp)
    8970:	8b 05 e2 c6 00 00    	mov    0xc6e2(%rip),%eax        # 15058 <g_10+0x18>
    8976:	83 c0 01             	add    $0x1,%eax
    8979:	89 05 d9 c6 00 00    	mov    %eax,0xc6d9(%rip)        # 15058 <g_10+0x18>
    897f:	48 8b 05 f2 c6 00 00 	mov    0xc6f2(%rip),%rax        # 15078 <g_17>
    8986:	48 83 e8 01          	sub    $0x1,%rax
    898a:	48 89 05 e7 c6 00 00 	mov    %rax,0xc6e7(%rip)        # 15078 <g_17>
    8991:	48 8b 05 30 ed 00 00 	mov    0xed30(%rip),%rax        # 176c8 <g_20>
    8998:	48 89 85 60 f5 ff ff 	mov    %rax,-0xaa0(%rbp)
    899f:	8b 05 83 c6 00 00    	mov    0xc683(%rip),%eax        # 15028 <g_3>
    89a5:	83 e8 01             	sub    $0x1,%eax
    89a8:	89 05 7a c6 00 00    	mov    %eax,0xc67a(%rip)        # 15028 <g_3>
    89ae:	8b 05 74 c6 00 00    	mov    0xc674(%rip),%eax        # 15028 <g_3>
    89b4:	83 f8 0f             	cmp    $0xf,%eax
    89b7:	0f 84 78 ff ff ff    	je     8935 <func_1+0x180>
    89bd:	0f b6 85 d6 f4 ff ff 	movzbl -0xb2a(%rbp),%eax
    89c4:	83 e8 01             	sub    $0x1,%eax
    89c7:	88 85 d6 f4 ff ff    	mov    %al,-0xb2a(%rbp)
    89cd:	48 8b 85 20 f5 ff ff 	mov    -0xae0(%rbp),%rax
    89d4:	4c 8b 28             	mov    (%rax),%r13
    89d7:	0f b7 85 e0 f4 ff ff 	movzwl -0xb20(%rbp),%eax
    89de:	44 0f b6 e0          	movzbl %al,%r12d
    89e2:	48 8b 85 20 f5 ff ff 	mov    -0xae0(%rbp),%rax
    89e9:	48 8b 00             	mov    (%rax),%rax
    89ec:	48 8b 18             	mov    (%rax),%rbx
    89ef:	8b 05 7b c6 00 00    	mov    0xc67b(%rip),%eax        # 15070 <g_15>
    89f5:	0f b7 c0             	movzwl %ax,%eax
    89f8:	be 07 00 00 00       	mov    $0x7,%esi
    89fd:	89 c7                	mov    %eax,%edi
    89ff:	e8 ba f3 ff ff       	callq  7dbe <safe_lshift_func_uint16_t_u_s>
    8a04:	0f b7 c0             	movzwl %ax,%eax
    8a07:	48 89 c6             	mov    %rax,%rsi
    8a0a:	48 bf c5 34 f6 05 98 	movabs $0x993c4d9805f634c5,%rdi
    8a11:	4d 3c 99 
    8a14:	e8 32 f6 ff ff       	callq  804b <safe_sub_func_uint64_t_u_u>
    8a19:	49 89 c6             	mov    %rax,%r14
    8a1c:	48 8b 15 45 c6 00 00 	mov    0xc645(%rip),%rdx        # 15068 <g_14>
    8a23:	48 8b 85 18 f5 ff ff 	mov    -0xae8(%rbp),%rax
    8a2a:	48 89 10             	mov    %rdx,(%rax)
    8a2d:	48 83 bd 20 f5 ff ff 	cmpq   $0x0,-0xae0(%rbp)
    8a34:	00 
    8a35:	0f 95 c0             	setne  %al
    8a38:	44 0f b6 f8          	movzbl %al,%r15d
    8a3c:	48 8b 85 28 f5 ff ff 	mov    -0xad8(%rbp),%rax
    8a43:	c6 00 15             	movb   $0x15,(%rax)
    8a46:	48 8b 05 7b ec 00 00 	mov    0xec7b(%rip),%rax        # 176c8 <g_20>
    8a4d:	48 8b 00             	mov    (%rax),%rax
    8a50:	8b 30                	mov    (%rax),%esi
    8a52:	48 8b 15 a7 ec 00 00 	mov    0xeca7(%rip),%rdx        # 17700 <g_52>
    8a59:	8b 05 c9 c5 00 00    	mov    0xc5c9(%rip),%eax        # 15028 <g_3>
    8a5f:	89 c7                	mov    %eax,%edi
    8a61:	48 8b 85 20 f5 ff ff 	mov    -0xae0(%rbp),%rax
    8a68:	48 8b 00             	mov    (%rax),%rax
    8a6b:	48 8b 00             	mov    (%rax),%rax
    8a6e:	8b 00                	mov    (%rax),%eax
    8a70:	48 63 c8             	movslq %eax,%rcx
    8a73:	48 8b 05 0e c6 00 00 	mov    0xc60e(%rip),%rax        # 15088 <g_51>
    8a7a:	48 39 c1             	cmp    %rax,%rcx
    8a7d:	0f 9c c0             	setl   %al
    8a80:	0f b6 c0             	movzbl %al,%eax
    8a83:	48 8b 8d 20 f5 ff ff 	mov    -0xae0(%rbp),%rcx
    8a8a:	41 89 f0             	mov    %esi,%r8d
    8a8d:	89 fe                	mov    %edi,%esi
    8a8f:	48 89 c7             	mov    %rax,%rdi
    8a92:	e8 9c 08 00 00       	callq  9333 <func_45>
    8a97:	48 83 f8 01          	cmp    $0x1,%rax
    8a9b:	0f 97 c0             	seta   %al
    8a9e:	0f b6 d0             	movzbl %al,%edx
    8aa1:	48 8b 85 20 f5 ff ff 	mov    -0xae0(%rbp),%rax
    8aa8:	48 8b 00             	mov    (%rax),%rax
    8aab:	48 8b 00             	mov    (%rax),%rax
    8aae:	8b 00                	mov    (%rax),%eax
    8ab0:	39 c2                	cmp    %eax,%edx
    8ab2:	74 10                	je     8ac4 <func_1+0x30f>
    8ab4:	80 bd d7 f4 ff ff 00 	cmpb   $0x0,-0xb29(%rbp)
    8abb:	74 07                	je     8ac4 <func_1+0x30f>
    8abd:	b8 01 00 00 00       	mov    $0x1,%eax
    8ac2:	eb 05                	jmp    8ac9 <func_1+0x314>
    8ac4:	b8 00 00 00 00       	mov    $0x0,%eax
    8ac9:	0f b7 c0             	movzwl %ax,%eax
    8acc:	be 07 00 00 00       	mov    $0x7,%esi
    8ad1:	89 c7                	mov    %eax,%edi
    8ad3:	e8 27 f2 ff ff       	callq  7cff <safe_add_func_uint16_t_u_u>
    8ad8:	66 85 c0             	test   %ax,%ax
    8adb:	0f 94 c2             	sete   %dl
    8ade:	48 8b 05 db eb 00 00 	mov    0xebdb(%rip),%rax        # 176c0 <g_21>
    8ae5:	0f b6 d2             	movzbl %dl,%edx
    8ae8:	89 10                	mov    %edx,(%rax)
    8aea:	8b 00                	mov    (%rax),%eax
    8aec:	85 c0                	test   %eax,%eax
    8aee:	74 07                	je     8af7 <func_1+0x342>
    8af0:	b8 01 00 00 00       	mov    $0x1,%eax
    8af5:	eb 05                	jmp    8afc <func_1+0x347>
    8af7:	b8 00 00 00 00       	mov    $0x0,%eax
    8afc:	44 39 f8             	cmp    %r15d,%eax
    8aff:	7f 13                	jg     8b14 <func_1+0x35f>
    8b01:	48 8b 85 20 f5 ff ff 	mov    -0xae0(%rbp),%rax
    8b08:	48 8b 00             	mov    (%rax),%rax
    8b0b:	48 8b 00             	mov    (%rax),%rax
    8b0e:	8b 00                	mov    (%rax),%eax
    8b10:	85 c0                	test   %eax,%eax
    8b12:	74 07                	je     8b1b <func_1+0x366>
    8b14:	b8 01 00 00 00       	mov    $0x1,%eax
    8b19:	eb 05                	jmp    8b20 <func_1+0x36b>
    8b1b:	b8 00 00 00 00       	mov    $0x0,%eax
    8b20:	48 98                	cltq   
    8b22:	4c 21 f0             	and    %r14,%rax
    8b25:	48 85 c0             	test   %rax,%rax
    8b28:	74 07                	je     8b31 <func_1+0x37c>
    8b2a:	b9 01 00 00 00       	mov    $0x1,%ecx
    8b2f:	eb 05                	jmp    8b36 <func_1+0x381>
    8b31:	b9 00 00 00 00       	mov    $0x0,%ecx
    8b36:	48 8b 05 ab f6 00 00 	mov    0xf6ab(%rip),%rax        # 181e8 <g_2101>
    8b3d:	48 8b 00             	mov    (%rax),%rax
    8b40:	8b 10                	mov    (%rax),%edx
    8b42:	48 8b 05 9f f6 00 00 	mov    0xf69f(%rip),%rax        # 181e8 <g_2101>
    8b49:	48 8b 00             	mov    (%rax),%rax
    8b4c:	31 ca                	xor    %ecx,%edx
    8b4e:	89 10                	mov    %edx,(%rax)
    8b50:	8b 00                	mov    (%rax),%eax
    8b52:	4c 89 e9             	mov    %r13,%rcx
    8b55:	44 89 e2             	mov    %r12d,%edx
    8b58:	48 89 de             	mov    %rbx,%rsi
    8b5b:	89 c7                	mov    %eax,%edi
    8b5d:	e8 4e 07 00 00       	callq  92b0 <func_29>
    8b62:	48 89 05 87 ef 00 00 	mov    %rax,0xef87(%rip)        # 17af0 <g_1553>
    8b69:	48 c7 05 04 c5 00 00 	movq   $0xffffffffffffffe2,0xc504(%rip)        # 15078 <g_17>
    8b70:	e2 ff ff ff 
    8b74:	e9 f1 06 00 00       	jmpq   926a <func_1+0xab5>
    8b79:	66 c7 85 e6 f4 ff ff 	movw   $0x747c,-0xb1a(%rbp)
    8b80:	7c 74 
    8b82:	66 c7 85 80 f5 ff ff 	movw   $0x1,-0xa80(%rbp)
    8b89:	01 00 
    8b8b:	66 c7 85 82 f5 ff ff 	movw   $0xb7df,-0xa7e(%rbp)
    8b92:	df b7 
    8b94:	66 c7 85 84 f5 ff ff 	movw   $0x1,-0xa7c(%rbp)
    8b9b:	01 00 
    8b9d:	66 c7 85 86 f5 ff ff 	movw   $0xb7df,-0xa7a(%rbp)
    8ba4:	df b7 
    8ba6:	66 c7 85 88 f5 ff ff 	movw   $0x1,-0xa78(%rbp)
    8bad:	01 00 
    8baf:	66 c7 85 8a f5 ff ff 	movw   $0xb7df,-0xa76(%rbp)
    8bb6:	df b7 
    8bb8:	66 c7 85 8c f5 ff ff 	movw   $0x1,-0xa74(%rbp)
    8bbf:	01 00 
    8bc1:	66 c7 85 8e f5 ff ff 	movw   $0xb7df,-0xa72(%rbp)
    8bc8:	df b7 
    8bca:	66 c7 85 90 f5 ff ff 	movw   $0x1,-0xa70(%rbp)
    8bd1:	01 00 
    8bd3:	c6 85 db f4 ff ff db 	movb   $0xdb,-0xb25(%rbp)
    8bda:	c7 85 ec f4 ff ff c8 	movl   $0x90803fc8,-0xb14(%rbp)
    8be1:	3f 80 90 
    8be4:	c7 85 f8 f4 ff ff 00 	movl   $0x0,-0xb08(%rbp)
    8beb:	00 00 00 
    8bee:	eb 77                	jmp    8c67 <func_1+0x4b2>
    8bf0:	c7 85 fc f4 ff ff 00 	movl   $0x0,-0xb04(%rbp)
    8bf7:	00 00 00 
    8bfa:	eb 5b                	jmp    8c57 <func_1+0x4a2>
    8bfc:	c7 85 00 f5 ff ff 00 	movl   $0x0,-0xb00(%rbp)
    8c03:	00 00 00 
    8c06:	eb 3f                	jmp    8c47 <func_1+0x492>
    8c08:	8b 85 00 f5 ff ff    	mov    -0xb00(%rbp),%eax
    8c0e:	48 63 c8             	movslq %eax,%rcx
    8c11:	8b 85 f8 f4 ff ff    	mov    -0xb08(%rbp),%eax
    8c17:	48 63 d0             	movslq %eax,%rdx
    8c1a:	8b 85 fc f4 ff ff    	mov    -0xb04(%rbp),%eax
    8c20:	48 98                	cltq   
    8c22:	48 01 c2             	add    %rax,%rdx
    8c25:	48 89 d0             	mov    %rdx,%rax
    8c28:	48 01 c0             	add    %rax,%rax
    8c2b:	48 01 d0             	add    %rdx,%rax
    8c2e:	48 01 c8             	add    %rcx,%rax
    8c31:	48 8d 15 50 c6 00 00 	lea    0xc650(%rip),%rdx        # 15288 <g_417+0x148>
    8c38:	48 89 94 c5 a0 f5 ff 	mov    %rdx,-0xa60(%rbp,%rax,8)
    8c3f:	ff 
    8c40:	83 85 00 f5 ff ff 01 	addl   $0x1,-0xb00(%rbp)
    8c47:	83 bd 00 f5 ff ff 02 	cmpl   $0x2,-0xb00(%rbp)
    8c4e:	7e b8                	jle    8c08 <func_1+0x453>
    8c50:	83 85 fc f4 ff ff 01 	addl   $0x1,-0xb04(%rbp)
    8c57:	83 bd fc f4 ff ff 00 	cmpl   $0x0,-0xb04(%rbp)
    8c5e:	7e 9c                	jle    8bfc <func_1+0x447>
    8c60:	83 85 f8 f4 ff ff 01 	addl   $0x1,-0xb08(%rbp)
    8c67:	83 bd f8 f4 ff ff 00 	cmpl   $0x0,-0xb08(%rbp)
    8c6e:	7e 80                	jle    8bf0 <func_1+0x43b>
    8c70:	c7 85 f8 f4 ff ff 00 	movl   $0x0,-0xb08(%rbp)
    8c77:	00 00 00 
    8c7a:	eb 1b                	jmp    8c97 <func_1+0x4e2>
    8c7c:	8b 85 f8 f4 ff ff    	mov    -0xb08(%rbp),%eax
    8c82:	48 98                	cltq   
    8c84:	48 c7 84 c5 68 f5 ff 	movq   $0x0,-0xa98(%rbp,%rax,8)
    8c8b:	ff 00 00 00 00 
    8c90:	83 85 f8 f4 ff ff 01 	addl   $0x1,-0xb08(%rbp)
    8c97:	83 bd f8 f4 ff ff 00 	cmpl   $0x0,-0xb08(%rbp)
    8c9e:	7e dc                	jle    8c7c <func_1+0x4c7>
    8ca0:	8b 85 14 f5 ff ff    	mov    -0xaec(%rbp),%eax
    8ca6:	44 0f b7 e0          	movzwl %ax,%r12d
    8caa:	0f b7 05 0b cd 00 00 	movzwl 0xcd0b(%rip),%eax        # 159bc <g_3011>
    8cb1:	66 85 c0             	test   %ax,%ax
    8cb4:	0f 85 ac 00 00 00    	jne    8d66 <func_1+0x5b1>
    8cba:	8b 85 bc f7 ff ff    	mov    -0x844(%rbp),%eax
    8cc0:	0f b7 d8             	movzwl %ax,%ebx
    8cc3:	48 8b 05 46 eb 00 00 	mov    0xeb46(%rip),%rax        # 17810 <g_1181>
    8cca:	48 8b 00             	mov    (%rax),%rax
    8ccd:	0f b7 00             	movzwl (%rax),%eax
    8cd0:	0f bf d0             	movswl %ax,%edx
    8cd3:	0f b7 85 86 f5 ff ff 	movzwl -0xa7a(%rbp),%eax
    8cda:	66 83 f8 ff          	cmp    $0xffff,%ax
    8cde:	74 10                	je     8cf0 <func_1+0x53b>
    8ce0:	80 bd d8 f4 ff ff 00 	cmpb   $0x0,-0xb28(%rbp)
    8ce7:	74 07                	je     8cf0 <func_1+0x53b>
    8ce9:	b8 01 00 00 00       	mov    $0x1,%eax
    8cee:	eb 05                	jmp    8cf5 <func_1+0x540>
    8cf0:	b8 00 00 00 00       	mov    $0x0,%eax
    8cf5:	98                   	cwtl   
    8cf6:	89 d6                	mov    %edx,%esi
    8cf8:	89 c7                	mov    %eax,%edi
    8cfa:	e8 d4 e6 ff ff       	callq  73d3 <safe_sub_func_int16_t_s_s>
    8cff:	0f b7 c0             	movzwl %ax,%eax
    8d02:	89 de                	mov    %ebx,%esi
    8d04:	89 c7                	mov    %eax,%edi
    8d06:	e8 83 f0 ff ff       	callq  7d8e <safe_div_func_uint16_t_u_u>
    8d0b:	0f b7 d0             	movzwl %ax,%edx
    8d0e:	48 8b 05 5b ea 00 00 	mov    0xea5b(%rip),%rax        # 17770 <g_845>
    8d15:	48 8b 00             	mov    (%rax),%rax
    8d18:	0f b6 00             	movzbl (%rax),%eax
    8d1b:	0f be c0             	movsbl %al,%eax
    8d1e:	48 8b 0d 4b ea 00 00 	mov    0xea4b(%rip),%rcx        # 17770 <g_845>
    8d25:	48 8b 19             	mov    (%rcx),%rbx
    8d28:	89 d6                	mov    %edx,%esi
    8d2a:	89 c7                	mov    %eax,%edi
    8d2c:	e8 3b e6 ff ff       	callq  736c <safe_rshift_func_int8_t_s_u>
    8d31:	88 03                	mov    %al,(%rbx)
    8d33:	0f b6 03             	movzbl (%rbx),%eax
    8d36:	0f be c0             	movsbl %al,%eax
    8d39:	39 85 10 f5 ff ff    	cmp    %eax,-0xaf0(%rbp)
    8d3f:	48 8b 05 da ea 00 00 	mov    0xeada(%rip),%rax        # 17820 <g_1209>
    8d46:	8b 00                	mov    (%rax),%eax
    8d48:	89 c2                	mov    %eax,%edx
    8d4a:	8b 05 c0 c5 00 00    	mov    0xc5c0(%rip),%eax        # 15310 <g_789>
    8d50:	39 c2                	cmp    %eax,%edx
    8d52:	66 83 bd e6 f4 ff ff 	cmpw   $0x1,-0xb1a(%rbp)
    8d59:	01 
    8d5a:	7f 0a                	jg     8d66 <func_1+0x5b1>
    8d5c:	8b 85 e8 f4 ff ff    	mov    -0xb18(%rbp),%eax
    8d62:	85 c0                	test   %eax,%eax
    8d64:	74 07                	je     8d6d <func_1+0x5b8>
    8d66:	b8 01 00 00 00       	mov    $0x1,%eax
    8d6b:	eb 05                	jmp    8d72 <func_1+0x5bd>
    8d6d:	b8 00 00 00 00       	mov    $0x0,%eax
    8d72:	85 c0                	test   %eax,%eax
    8d74:	0f 95 c2             	setne  %dl
    8d77:	48 8b 85 20 f5 ff ff 	mov    -0xae0(%rbp),%rax
    8d7e:	48 8b 00             	mov    (%rax),%rax
    8d81:	48 8b 00             	mov    (%rax),%rax
    8d84:	0f b6 d2             	movzbl %dl,%edx
    8d87:	89 10                	mov    %edx,(%rax)
    8d89:	b8 00 00 00 00       	mov    $0x0,%eax
    8d8e:	0f b7 c0             	movzwl %ax,%eax
    8d91:	44 89 e6             	mov    %r12d,%esi
    8d94:	89 c7                	mov    %eax,%edi
    8d96:	e8 a2 ef ff ff       	callq  7d3d <safe_mul_func_uint16_t_u_u>
    8d9b:	66 85 c0             	test   %ax,%ax
    8d9e:	75 13                	jne    8db3 <func_1+0x5fe>
    8da0:	48 8b 85 20 f5 ff ff 	mov    -0xae0(%rbp),%rax
    8da7:	48 8b 00             	mov    (%rax),%rax
    8daa:	48 8b 00             	mov    (%rax),%rax
    8dad:	8b 00                	mov    (%rax),%eax
    8daf:	85 c0                	test   %eax,%eax
    8db1:	74 07                	je     8dba <func_1+0x605>
    8db3:	ba 01 00 00 00       	mov    $0x1,%edx
    8db8:	eb 05                	jmp    8dbf <func_1+0x60a>
    8dba:	ba 00 00 00 00       	mov    $0x0,%edx
    8dbf:	0f bf 85 e4 f4 ff ff 	movswl -0xb1c(%rbp),%eax
    8dc6:	21 c2                	and    %eax,%edx
    8dc8:	0f b7 05 09 cc 00 00 	movzwl 0xcc09(%rip),%eax        # 159d8 <g_3344>
    8dcf:	98                   	cwtl   
    8dd0:	39 c2                	cmp    %eax,%edx
    8dd2:	7f 46                	jg     8e1a <func_1+0x665>
    8dd4:	c6 85 dd f4 ff ff 01 	movb   $0x1,-0xb23(%rbp)
    8ddb:	8b 85 ec f4 ff ff    	mov    -0xb14(%rbp),%eax
    8de1:	83 e8 01             	sub    $0x1,%eax
    8de4:	89 85 ec f4 ff ff    	mov    %eax,-0xb14(%rbp)
    8dea:	48 8b 05 cf e8 00 00 	mov    0xe8cf(%rip),%rax        # 176c0 <g_21>
    8df1:	8b 00                	mov    (%rax),%eax
    8df3:	85 c0                	test   %eax,%eax
    8df5:	0f 85 82 04 00 00    	jne    927d <func_1+0xac8>
    8dfb:	80 bd dd f4 ff ff 00 	cmpb   $0x0,-0xb23(%rbp)
    8e02:	0f 85 78 04 00 00    	jne    9280 <func_1+0xacb>
    8e08:	80 bd da f4 ff ff 00 	cmpb   $0x0,-0xb26(%rbp)
    8e0f:	0f 84 3a 04 00 00    	je     924f <func_1+0xa9a>
    8e15:	e9 67 04 00 00       	jmpq   9281 <func_1+0xacc>
    8e1a:	48 b8 1a f6 2a bf 34 	movabs $0x9545e234bf2af61a,%rax
    8e21:	e2 45 95 
    8e24:	48 89 85 30 f5 ff ff 	mov    %rax,-0xad0(%rbp)
    8e2b:	c6 85 dc f4 ff ff 03 	movb   $0x3,-0xb24(%rbp)
    8e32:	48 8d 85 60 f6 ff ff 	lea    -0x9a0(%rbp),%rax
    8e39:	48 05 5c 01 00 00    	add    $0x15c,%rax
    8e3f:	48 89 85 38 f5 ff ff 	mov    %rax,-0xac8(%rbp)
    8e46:	c7 85 c0 f5 ff ff 09 	movl   $0x9,-0xa40(%rbp)
    8e4d:	00 00 00 
    8e50:	c7 85 c4 f5 ff ff 97 	movl   $0x40c68c97,-0xa3c(%rbp)
    8e57:	8c c6 40 
    8e5a:	c7 85 c8 f5 ff ff 09 	movl   $0x9,-0xa38(%rbp)
    8e61:	00 00 00 
    8e64:	c7 85 cc f5 ff ff 09 	movl   $0x9,-0xa34(%rbp)
    8e6b:	00 00 00 
    8e6e:	c7 85 d0 f5 ff ff 97 	movl   $0x40c68c97,-0xa30(%rbp)
    8e75:	8c c6 40 
    8e78:	c7 85 d4 f5 ff ff 09 	movl   $0x9,-0xa2c(%rbp)
    8e7f:	00 00 00 
    8e82:	48 c7 05 7b c4 00 00 	movq   $0x0,0xc47b(%rip)        # 15308 <g_676>
    8e89:	00 00 00 00 
    8e8d:	e9 ac 03 00 00       	jmpq   923e <func_1+0xa89>
    8e92:	48 8d 05 77 c2 00 00 	lea    0xc277(%rip),%rax        # 15110 <g_143>
    8e99:	48 89 85 40 f5 ff ff 	mov    %rax,-0xac0(%rbp)
    8ea0:	48 8d 05 21 e8 00 00 	lea    0xe821(%rip),%rax        # 176c8 <g_20>
    8ea7:	48 89 85 48 f5 ff ff 	mov    %rax,-0xab8(%rbp)
    8eae:	48 8d 85 f0 f7 ff ff 	lea    -0x810(%rbp),%rax
    8eb5:	48 8d 15 04 d3 00 00 	lea    0xd304(%rip),%rdx        # 161c0 <g_3344+0x7e8>
    8ebc:	b9 54 00 00 00       	mov    $0x54,%ecx
    8ec1:	48 89 c7             	mov    %rax,%rdi
    8ec4:	48 89 d6             	mov    %rdx,%rsi
    8ec7:	f3 48 a5             	rep movsq %ds:(%rsi),%es:(%rdi)
    8eca:	48 8d 05 ef ca 00 00 	lea    0xcaef(%rip),%rax        # 159c0 <g_3012>
    8ed1:	48 89 85 50 f5 ff ff 	mov    %rax,-0xab0(%rbp)
    8ed8:	c7 85 04 f5 ff ff 00 	movl   $0x0,-0xafc(%rbp)
    8edf:	00 00 00 
    8ee2:	eb 1e                	jmp    8f02 <func_1+0x74d>
    8ee4:	8b 85 04 f5 ff ff    	mov    -0xafc(%rbp),%eax
    8eea:	48 98                	cltq   
    8eec:	48 8d 15 95 c1 00 00 	lea    0xc195(%rip),%rdx        # 15088 <g_51>
    8ef3:	48 89 94 c5 10 f6 ff 	mov    %rdx,-0x9f0(%rbp,%rax,8)
    8efa:	ff 
    8efb:	83 85 04 f5 ff ff 01 	addl   $0x1,-0xafc(%rbp)
    8f02:	83 bd 04 f5 ff ff 08 	cmpl   $0x8,-0xafc(%rbp)
    8f09:	7e d9                	jle    8ee4 <func_1+0x72f>
    8f0b:	48 8b 85 40 f5 ff ff 	mov    -0xac0(%rbp),%rax
    8f12:	c7 00 05 00 00 00    	movl   $0x5,(%rax)
    8f18:	48 0f be 9d dc f4 ff 	movsbq -0xb24(%rbp),%rbx
    8f1f:	ff 
    8f20:	8b 05 b2 fb 00 00    	mov    0xfbb2(%rip),%eax        # 18ad8 <g_888>
    8f26:	85 c0                	test   %eax,%eax
    8f28:	0f 84 25 01 00 00    	je     9053 <func_1+0x89e>
    8f2e:	48 8b 85 48 f5 ff ff 	mov    -0xab8(%rbp),%rax
    8f35:	48 8b 00             	mov    (%rax),%rax
    8f38:	48 8b 00             	mov    (%rax),%rax
    8f3b:	8b 00                	mov    (%rax),%eax
    8f3d:	41 89 c6             	mov    %eax,%r14d
    8f40:	48 8b 85 48 f5 ff ff 	mov    -0xab8(%rbp),%rax
    8f47:	48 8b 00             	mov    (%rax),%rax
    8f4a:	48 8b 00             	mov    (%rax),%rax
    8f4d:	8b 00                	mov    (%rax),%eax
    8f4f:	44 0f b6 e0          	movzbl %al,%r12d
    8f53:	48 8b 85 68 f5 ff ff 	mov    -0xa98(%rbp),%rax
    8f5a:	48 39 85 48 f5 ff ff 	cmp    %rax,-0xab8(%rbp)
    8f61:	0f 94 c0             	sete   %al
    8f64:	0f b6 d0             	movzbl %al,%edx
    8f67:	48 8b 85 18 f5 ff ff 	mov    -0xae8(%rbp),%rax
    8f6e:	48 89 10             	mov    %rdx,(%rax)
    8f71:	48 8b 85 78 f5 ff ff 	mov    -0xa88(%rbp),%rax
    8f78:	48 85 c0             	test   %rax,%rax
    8f7b:	41 0f 94 c5          	sete   %r13b
    8f7f:	48 8d 85 e8 f4 ff ff 	lea    -0xb18(%rbp),%rax
    8f86:	48 39 85 40 f5 ff ff 	cmp    %rax,-0xac0(%rbp)
    8f8d:	0f 94 c0             	sete   %al
    8f90:	0f b6 c0             	movzbl %al,%eax
    8f93:	be c5 5a a3 04       	mov    $0x4a35ac5,%esi
    8f98:	89 c7                	mov    %eax,%edi
    8f9a:	e8 19 ef ff ff       	callq  7eb8 <safe_add_func_uint32_t_u_u>
    8f9f:	89 c2                	mov    %eax,%edx
    8fa1:	48 8b 05 b8 e7 00 00 	mov    0xe7b8(%rip),%rax        # 17760 <g_582>
    8fa8:	48 8b 00             	mov    (%rax),%rax
    8fab:	88 10                	mov    %dl,(%rax)
    8fad:	0f b6 00             	movzbl (%rax),%eax
    8fb0:	3c 01                	cmp    $0x1,%al
    8fb2:	0f 96 c0             	setbe  %al
    8fb5:	44 21 e8             	and    %r13d,%eax
    8fb8:	f7 d0                	not    %eax
    8fba:	0f b6 c0             	movzbl %al,%eax
    8fbd:	44 89 e6             	mov    %r12d,%esi
    8fc0:	89 c7                	mov    %eax,%edi
    8fc2:	e8 cc eb ff ff       	callq  7b93 <safe_mul_func_uint8_t_u_u>
    8fc7:	84 c0                	test   %al,%al
    8fc9:	74 07                	je     8fd2 <func_1+0x81d>
    8fcb:	ba 01 00 00 00       	mov    $0x1,%edx
    8fd0:	eb 05                	jmp    8fd7 <func_1+0x822>
    8fd2:	ba 00 00 00 00       	mov    $0x0,%edx
    8fd7:	0f be 85 dc f4 ff ff 	movsbl -0xb24(%rbp),%eax
    8fde:	39 c2                	cmp    %eax,%edx
    8fe0:	7c 0c                	jl     8fee <func_1+0x839>
    8fe2:	0f b7 05 27 c7 00 00 	movzwl 0xc727(%rip),%eax        # 15710 <g_2615>
    8fe9:	66 85 c0             	test   %ax,%ax
    8fec:	74 11                	je     8fff <func_1+0x84a>
    8fee:	8b 05 b4 fa 00 00    	mov    0xfab4(%rip),%eax        # 18aa8 <g_174>
    8ff4:	85 c0                	test   %eax,%eax
    8ff6:	74 07                	je     8fff <func_1+0x84a>
    8ff8:	b8 01 00 00 00       	mov    $0x1,%eax
    8ffd:	eb 05                	jmp    9004 <func_1+0x84f>
    8fff:	b8 00 00 00 00       	mov    $0x0,%eax
    9004:	98                   	cwtl   
    9005:	44 89 f6             	mov    %r14d,%esi
    9008:	89 c7                	mov    %eax,%edi
    900a:	e8 54 e5 ff ff       	callq  7563 <safe_rshift_func_int16_t_s_u>
    900f:	48 0f bf d0          	movswq %ax,%rdx
    9013:	48 8b 05 6e c0 00 00 	mov    0xc06e(%rip),%rax        # 15088 <g_51>
    901a:	48 21 d0             	and    %rdx,%rax
    901d:	48 89 05 64 c0 00 00 	mov    %rax,0xc064(%rip)        # 15088 <g_51>
    9024:	48 8b 05 5d c0 00 00 	mov    0xc05d(%rip),%rax        # 15088 <g_51>
    902b:	48 83 f0 fd          	xor    $0xfffffffffffffffd,%rax
    902f:	be 01 00 00 00       	mov    $0x1,%esi
    9034:	48 89 c7             	mov    %rax,%rdi
    9037:	e8 44 f0 ff ff       	callq  8080 <safe_mod_func_uint64_t_u_u>
    903c:	89 c2                	mov    %eax,%edx
    903e:	8b 05 b8 c6 00 00    	mov    0xc6b8(%rip),%eax        # 156fc <g_2538>
    9044:	31 d0                	xor    %edx,%eax
    9046:	89 05 b0 c6 00 00    	mov    %eax,0xc6b0(%rip)        # 156fc <g_2538>
    904c:	b8 01 00 00 00       	mov    $0x1,%eax
    9051:	eb 05                	jmp    9058 <func_1+0x8a3>
    9053:	b8 00 00 00 00       	mov    $0x0,%eax
    9058:	48 98                	cltq   
    905a:	48 89 de             	mov    %rbx,%rsi
    905d:	48 89 c7             	mov    %rax,%rdi
    9060:	e8 4f e9 ff ff       	callq  79b4 <safe_mod_func_int64_t_s_s>
    9065:	0f be c0             	movsbl %al,%eax
    9068:	be 02 00 00 00       	mov    $0x2,%esi
    906d:	89 c7                	mov    %eax,%edi
    906f:	e8 2d e2 ff ff       	callq  72a1 <safe_lshift_func_int8_t_s_s>
    9074:	be 8e 28 00 00       	mov    $0x288e,%esi
    9079:	bf 01 00 00 00       	mov    $0x1,%edi
    907e:	e8 ba ec ff ff       	callq  7d3d <safe_mul_func_uint16_t_u_u>
    9083:	0f b6 c0             	movzbl %al,%eax
    9086:	be 03 00 00 00       	mov    $0x3,%esi
    908b:	89 c7                	mov    %eax,%edi
    908d:	e8 73 eb ff ff       	callq  7c05 <safe_lshift_func_uint8_t_u_s>
    9092:	0f b6 85 dc f4 ff ff 	movzbl -0xb24(%rbp),%eax
    9099:	0f be c0             	movsbl %al,%eax
    909c:	09 85 f0 f4 ff ff    	or     %eax,-0xb10(%rbp)
    90a2:	48 8b 85 20 f5 ff ff 	mov    -0xae0(%rbp),%rax
    90a9:	48 8b 00             	mov    (%rax),%rax
    90ac:	48 8b 00             	mov    (%rax),%rax
    90af:	8b 08                	mov    (%rax),%ecx
    90b1:	48 8d 85 ec f4 ff ff 	lea    -0xb14(%rbp),%rax
    90b8:	48 39 85 38 f5 ff ff 	cmp    %rax,-0xac8(%rbp)
    90bf:	0f 95 c0             	setne  %al
    90c2:	0f b6 d0             	movzbl %al,%edx
    90c5:	48 8b 85 20 f5 ff ff 	mov    -0xae0(%rbp),%rax
    90cc:	48 8b 00             	mov    (%rax),%rax
    90cf:	48 8b 00             	mov    (%rax),%rax
    90d2:	21 ca                	and    %ecx,%edx
    90d4:	89 10                	mov    %edx,(%rax)
    90d6:	48 8b 85 48 f5 ff ff 	mov    -0xab8(%rbp),%rax
    90dd:	48 8b 00             	mov    (%rax),%rax
    90e0:	48 8b 00             	mov    (%rax),%rax
    90e3:	8b 00                	mov    (%rax),%eax
    90e5:	3d 17 59 00 00       	cmp    $0x5917,%eax
    90ea:	0f 94 c0             	sete   %al
    90ed:	44 0f b6 e8          	movzbl %al,%r13d
    90f1:	48 8b 85 48 f5 ff ff 	mov    -0xab8(%rbp),%rax
    90f8:	48 8b 00             	mov    (%rax),%rax
    90fb:	48 8b 00             	mov    (%rax),%rax
    90fe:	8b 00                	mov    (%rax),%eax
    9100:	0f be d8             	movsbl %al,%ebx
    9103:	48 8b 05 16 e7 00 00 	mov    0xe716(%rip),%rax        # 17820 <g_1209>
    910a:	44 8b 20             	mov    (%rax),%r12d
    910d:	8b 05 9d c8 00 00    	mov    0xc89d(%rip),%eax        # 159b0 <g_2956>
    9113:	48 63 d0             	movslq %eax,%rdx
    9116:	48 81 bd 30 f5 ff ff 	cmpq   $0xc78b,-0xad0(%rbp)
    911d:	8b c7 00 00 
    9121:	0f 9e c0             	setle  %al
    9124:	0f b6 c0             	movzbl %al,%eax
    9127:	48 89 d6             	mov    %rdx,%rsi
    912a:	48 89 c7             	mov    %rax,%rdi
    912d:	e8 fc ee ff ff       	callq  802e <safe_add_func_uint64_t_u_u>
    9132:	0f be d0             	movsbl %al,%edx
    9135:	8b 0d 85 c5 00 00    	mov    0xc585(%rip),%ecx        # 156c0 <g_1589>
    913b:	0f b7 05 66 bf 00 00 	movzwl 0xbf66(%rip),%eax        # 150a8 <g_53+0x8>
    9142:	0f b7 c0             	movzwl %ax,%eax
    9145:	39 c1                	cmp    %eax,%ecx
    9147:	0f 9c c0             	setl   %al
    914a:	0f b6 c0             	movzbl %al,%eax
    914d:	89 d6                	mov    %edx,%esi
    914f:	89 c7                	mov    %eax,%edi
    9151:	e8 bc e0 ff ff       	callq  7212 <safe_mul_func_int8_t_s_s>
    9156:	0f be c0             	movsbl %al,%eax
    9159:	44 89 e6             	mov    %r12d,%esi
    915c:	89 c7                	mov    %eax,%edi
    915e:	e8 53 e4 ff ff       	callq  75b6 <safe_add_func_int32_t_s_s>
    9163:	44 0f be e0          	movsbl %al,%r12d
    9167:	48 8b 05 92 e9 00 00 	mov    0xe992(%rip),%rax        # 17b00 <g_1623>
    916e:	0f b7 10             	movzwl (%rax),%edx
    9171:	48 8b 85 50 f5 ff ff 	mov    -0xab0(%rbp),%rax
    9178:	66 89 10             	mov    %dx,(%rax)
    917b:	48 8b 85 50 f5 ff ff 	mov    -0xab0(%rbp),%rax
    9182:	0f b7 00             	movzwl (%rax),%eax
    9185:	0f b7 d0             	movzwl %ax,%edx
    9188:	48 8b 85 48 f5 ff ff 	mov    -0xab8(%rbp),%rax
    918f:	48 8b 00             	mov    (%rax),%rax
    9192:	48 8b 00             	mov    (%rax),%rax
    9195:	8b 00                	mov    (%rax),%eax
    9197:	98                   	cwtl   
    9198:	89 d6                	mov    %edx,%esi
    919a:	89 c7                	mov    %eax,%edi
    919c:	e8 40 e3 ff ff       	callq  74e1 <safe_lshift_func_int16_t_s_u>
    91a1:	0f be c0             	movsbl %al,%eax
    91a4:	44 89 e6             	mov    %r12d,%esi
    91a7:	89 c7                	mov    %eax,%edi
    91a9:	e8 44 e0 ff ff       	callq  71f2 <safe_sub_func_int8_t_s_s>
    91ae:	0f be c0             	movsbl %al,%eax
    91b1:	89 de                	mov    %ebx,%esi
    91b3:	89 c7                	mov    %eax,%edi
    91b5:	e8 58 e0 ff ff       	callq  7212 <safe_mul_func_int8_t_s_s>
    91ba:	0f be c0             	movsbl %al,%eax
    91bd:	41 39 c5             	cmp    %eax,%r13d
    91c0:	0f 9e c0             	setle  %al
    91c3:	0f b6 c0             	movzbl %al,%eax
    91c6:	be 66 32 00 00       	mov    $0x3266,%esi
    91cb:	89 c7                	mov    %eax,%edi
    91cd:	e8 44 e2 ff ff       	callq  7416 <safe_mod_func_int16_t_s_s>
    91d2:	98                   	cwtl   
    91d3:	89 85 c8 f5 ff ff    	mov    %eax,-0xa38(%rbp)
    91d9:	66 c7 05 da c7 00 00 	movw   $0x0,0xc7da(%rip)        # 159bc <g_3011>
    91e0:	00 00 
    91e2:	eb 3b                	jmp    921f <func_1+0xa6a>
    91e4:	c7 85 c8 f5 ff ff 00 	movl   $0x0,-0xa38(%rbp)
    91eb:	00 00 00 
    91ee:	8b 8d c8 f5 ff ff    	mov    -0xa38(%rbp),%ecx
    91f4:	48 8b 05 cd e4 00 00 	mov    0xe4cd(%rip),%rax        # 176c8 <g_20>
    91fb:	48 8b 00             	mov    (%rax),%rax
    91fe:	8b 10                	mov    (%rax),%edx
    9200:	48 8b 05 c1 e4 00 00 	mov    0xe4c1(%rip),%rax        # 176c8 <g_20>
    9207:	48 8b 00             	mov    (%rax),%rax
    920a:	09 ca                	or     %ecx,%edx
    920c:	89 10                	mov    %edx,(%rax)
    920e:	0f b7 05 a7 c7 00 00 	movzwl 0xc7a7(%rip),%eax        # 159bc <g_3011>
    9215:	83 c0 01             	add    $0x1,%eax
    9218:	66 89 05 9d c7 00 00 	mov    %ax,0xc79d(%rip)        # 159bc <g_3011>
    921f:	0f b7 05 96 c7 00 00 	movzwl 0xc796(%rip),%eax        # 159bc <g_3011>
    9226:	66 83 f8 26          	cmp    $0x26,%ax
    922a:	74 b8                	je     91e4 <func_1+0xa2f>
    922c:	48 8b 05 d5 c0 00 00 	mov    0xc0d5(%rip),%rax        # 15308 <g_676>
    9233:	48 83 c0 01          	add    $0x1,%rax
    9237:	48 89 05 ca c0 00 00 	mov    %rax,0xc0ca(%rip)        # 15308 <g_676>
    923e:	48 8b 05 c3 c0 00 00 	mov    0xc0c3(%rip),%rax        # 15308 <g_676>
    9245:	48 83 f8 31          	cmp    $0x31,%rax
    9249:	0f 87 43 fc ff ff    	ja     8e92 <func_1+0x6dd>
    924f:	48 8b 05 22 be 00 00 	mov    0xbe22(%rip),%rax        # 15078 <g_17>
    9256:	be 08 00 00 00       	mov    $0x8,%esi
    925b:	48 89 c7             	mov    %rax,%rdi
    925e:	e8 cb ed ff ff       	callq  802e <safe_add_func_uint64_t_u_u>
    9263:	48 89 05 0e be 00 00 	mov    %rax,0xbe0e(%rip)        # 15078 <g_17>
    926a:	48 8b 05 07 be 00 00 	mov    0xbe07(%rip),%rax        # 15078 <g_17>
    9271:	48 83 f8 17          	cmp    $0x17,%rax
    9275:	0f 87 fe f8 ff ff    	ja     8b79 <func_1+0x3c4>
    927b:	eb 04                	jmp    9281 <func_1+0xacc>
    927d:	90                   	nop
    927e:	eb 01                	jmp    9281 <func_1+0xacc>
    9280:	90                   	nop
    9281:	48 8b 05 a8 f0 00 00 	mov    0xf0a8(%rip),%rax        # 18330 <g_2614>
    9288:	8b 00                	mov    (%rax),%eax
    928a:	48 8b 5d c8          	mov    -0x38(%rbp),%rbx
    928e:	64 48 33 1c 25 28 00 	xor    %fs:0x28,%rbx
    9295:	00 00 
    9297:	74 05                	je     929e <func_1+0xae9>
    9299:	e8 d2 dd ff ff       	callq  7070 <__stack_chk_fail@plt>
    929e:	48 81 c4 08 0b 00 00 	add    $0xb08,%rsp
    92a5:	5b                   	pop    %rbx
    92a6:	41 5c                	pop    %r12
    92a8:	41 5d                	pop    %r13
    92aa:	41 5e                	pop    %r14
    92ac:	41 5f                	pop    %r15
    92ae:	5d                   	pop    %rbp
    92af:	c3                   	retq   

00000000000092b0 <func_29>:
    92b0:	f3 0f 1e fa          	endbr64 
    92b4:	55                   	push   %rbp
    92b5:	48 89 e5             	mov    %rsp,%rbp
    92b8:	48 83 ec 50          	sub    $0x50,%rsp
    92bc:	89 7d cc             	mov    %edi,-0x34(%rbp)
    92bf:	48 89 75 c0          	mov    %rsi,-0x40(%rbp)
    92c3:	89 d0                	mov    %edx,%eax
    92c5:	48 89 4d b8          	mov    %rcx,-0x48(%rbp)
    92c9:	88 45 c8             	mov    %al,-0x38(%rbp)
    92cc:	64 48 8b 04 25 28 00 	mov    %fs:0x28,%rax
    92d3:	00 00 
    92d5:	48 89 45 f8          	mov    %rax,-0x8(%rbp)
    92d9:	31 c0                	xor    %eax,%eax
    92db:	c7 45 e4 08 00 00 00 	movl   $0x8,-0x1c(%rbp)
    92e2:	c6 45 df f7          	movb   $0xf7,-0x21(%rbp)
    92e6:	48 8d 05 03 be 00 00 	lea    0xbe03(%rip),%rax        # 150f0 <g_81+0x10>
    92ed:	48 89 45 e8          	mov    %rax,-0x18(%rbp)
    92f1:	c7 45 e0 00 00 00 00 	movl   $0x0,-0x20(%rbp)
    92f8:	eb 15                	jmp    930f <func_29+0x5f>
    92fa:	8b 45 e0             	mov    -0x20(%rbp),%eax
    92fd:	48 98                	cltq   
    92ff:	48 8d 15 2a c4 00 00 	lea    0xc42a(%rip),%rdx        # 15730 <g_2673+0x10>
    9306:	48 89 54 c5 f0       	mov    %rdx,-0x10(%rbp,%rax,8)
    930b:	83 45 e0 01          	addl   $0x1,-0x20(%rbp)
    930f:	83 7d e0 00          	cmpl   $0x0,-0x20(%rbp)
    9313:	7e e5                	jle    92fa <func_29+0x4a>
    9315:	80 6d df 01          	subb   $0x1,-0x21(%rbp)
    9319:	48 8b 45 e8          	mov    -0x18(%rbp),%rax
    931d:	48 8b 4d f8          	mov    -0x8(%rbp),%rcx
    9321:	64 48 33 0c 25 28 00 	xor    %fs:0x28,%rcx
    9328:	00 00 
    932a:	74 05                	je     9331 <func_29+0x81>
    932c:	e8 3f dd ff ff       	callq  7070 <__stack_chk_fail@plt>
    9331:	c9                   	leaveq 
    9332:	c3                   	retq   

0000000000009333 <func_45>:
    9333:	f3 0f 1e fa          	endbr64 
    9337:	55                   	push   %rbp
    9338:	48 89 e5             	mov    %rsp,%rbp
    933b:	48 81 ec 50 02 00 00 	sub    $0x250,%rsp
    9342:	48 89 bd c8 fd ff ff 	mov    %rdi,-0x238(%rbp)
    9349:	89 b5 c4 fd ff ff    	mov    %esi,-0x23c(%rbp)
    934f:	48 89 95 b8 fd ff ff 	mov    %rdx,-0x248(%rbp)
    9356:	48 89 8d b0 fd ff ff 	mov    %rcx,-0x250(%rbp)
    935d:	44 89 85 c0 fd ff ff 	mov    %r8d,-0x240(%rbp)
    9364:	64 48 8b 04 25 28 00 	mov    %fs:0x28,%rax
    936b:	00 00 
    936d:	48 89 45 f8          	mov    %rax,-0x8(%rbp)
    9371:	31 c0                	xor    %eax,%eax
    9373:	48 8d 05 76 bd 00 00 	lea    0xbd76(%rip),%rax        # 150f0 <g_81+0x10>
    937a:	48 89 85 f0 fd ff ff 	mov    %rax,-0x210(%rbp)
    9381:	c7 85 dc fd ff ff 00 	movl   $0x0,-0x224(%rbp)
    9388:	00 00 00 
    938b:	48 b8 23 15 8f 75 d8 	movabs $0xb72b2d8758f1523,%rax
    9392:	b2 72 0b 
    9395:	48 89 85 f8 fd ff ff 	mov    %rax,-0x208(%rbp)
    939c:	48 8d 05 81 bd 00 00 	lea    0xbd81(%rip),%rax        # 15124 <g_171>
    93a3:	48 89 85 00 fe ff ff 	mov    %rax,-0x200(%rbp)
    93aa:	48 c7 85 08 fe ff ff 	movq   $0x0,-0x1f8(%rbp)
    93b1:	00 00 00 00 
    93b5:	c7 85 e0 fd ff ff ff 	movl   $0xffffffff,-0x220(%rbp)
    93bc:	ff ff ff 
    93bf:	48 8d 05 62 f7 00 00 	lea    0xf762(%rip),%rax        # 18b28 <g_2067>
    93c6:	48 89 85 80 fe ff ff 	mov    %rax,-0x180(%rbp)
    93cd:	48 8d 05 54 f7 00 00 	lea    0xf754(%rip),%rax        # 18b28 <g_2067>
    93d4:	48 89 85 88 fe ff ff 	mov    %rax,-0x178(%rbp)
    93db:	48 8d 05 46 f7 00 00 	lea    0xf746(%rip),%rax        # 18b28 <g_2067>
    93e2:	48 89 85 90 fe ff ff 	mov    %rax,-0x170(%rbp)
    93e9:	48 8d 05 38 f7 00 00 	lea    0xf738(%rip),%rax        # 18b28 <g_2067>
    93f0:	48 89 85 98 fe ff ff 	mov    %rax,-0x168(%rbp)
    93f7:	48 8d 05 2a f7 00 00 	lea    0xf72a(%rip),%rax        # 18b28 <g_2067>
    93fe:	48 89 85 a0 fe ff ff 	mov    %rax,-0x160(%rbp)
    9405:	48 8d 05 1c f7 00 00 	lea    0xf71c(%rip),%rax        # 18b28 <g_2067>
    940c:	48 89 85 a8 fe ff ff 	mov    %rax,-0x158(%rbp)
    9413:	48 8d 05 0e f7 00 00 	lea    0xf70e(%rip),%rax        # 18b28 <g_2067>
    941a:	48 89 85 b0 fe ff ff 	mov    %rax,-0x150(%rbp)
    9421:	48 8d 05 00 f7 00 00 	lea    0xf700(%rip),%rax        # 18b28 <g_2067>
    9428:	48 89 85 b8 fe ff ff 	mov    %rax,-0x148(%rbp)
    942f:	48 b8 5a 83 41 5e b4 	movabs $0x305a38b45e41835a,%rax
    9436:	38 5a 30 
    9439:	48 89 85 10 fe ff ff 	mov    %rax,-0x1f0(%rbp)
    9440:	66 c7 85 d4 fd ff ff 	movw   $0x25f2,-0x22c(%rbp)
    9447:	f2 25 
    9449:	66 c7 85 40 fe ff ff 	movw   $0xfff7,-0x1c0(%rbp)
    9450:	f7 ff 
    9452:	66 c7 85 42 fe ff ff 	movw   $0xfff7,-0x1be(%rbp)
    9459:	f7 ff 
    945b:	66 c7 85 44 fe ff ff 	movw   $0xfff7,-0x1bc(%rbp)
    9462:	f7 ff 
    9464:	66 c7 85 46 fe ff ff 	movw   $0xfff7,-0x1ba(%rbp)
    946b:	f7 ff 
    946d:	66 c7 85 48 fe ff ff 	movw   $0xfff7,-0x1b8(%rbp)
    9474:	f7 ff 
    9476:	66 c7 85 4a fe ff ff 	movw   $0x1,-0x1b6(%rbp)
    947d:	01 00 
    947f:	66 c7 85 4c fe ff ff 	movw   $0x44ae,-0x1b4(%rbp)
    9486:	ae 44 
    9488:	66 c7 85 4e fe ff ff 	movw   $0x1,-0x1b2(%rbp)
    948f:	01 00 
    9491:	66 c7 85 50 fe ff ff 	movw   $0x44ae,-0x1b0(%rbp)
    9498:	ae 44 
    949a:	66 c7 85 52 fe ff ff 	movw   $0x1,-0x1ae(%rbp)
    94a1:	01 00 
    94a3:	66 c7 85 54 fe ff ff 	movw   $0xfff7,-0x1ac(%rbp)
    94aa:	f7 ff 
    94ac:	66 c7 85 56 fe ff ff 	movw   $0xfff7,-0x1aa(%rbp)
    94b3:	f7 ff 
    94b5:	66 c7 85 58 fe ff ff 	movw   $0xfff7,-0x1a8(%rbp)
    94bc:	f7 ff 
    94be:	66 c7 85 5a fe ff ff 	movw   $0xfff7,-0x1a6(%rbp)
    94c5:	f7 ff 
    94c7:	66 c7 85 5c fe ff ff 	movw   $0xfff7,-0x1a4(%rbp)
    94ce:	f7 ff 
    94d0:	48 8d 05 21 e6 00 00 	lea    0xe621(%rip),%rax        # 17af8 <g_1560>
    94d7:	48 89 85 e8 fd ff ff 	mov    %rax,-0x218(%rbp)
    94de:	48 8d 85 e8 fd ff ff 	lea    -0x218(%rbp),%rax
    94e5:	48 89 85 18 fe ff ff 	mov    %rax,-0x1e8(%rbp)
    94ec:	48 8d 05 15 e6 00 00 	lea    0xe615(%rip),%rax        # 17b08 <g_1660>
    94f3:	48 89 85 20 fe ff ff 	mov    %rax,-0x1e0(%rbp)
    94fa:	66 c7 85 d6 fd ff ff 	movw   $0xe2ad,-0x22a(%rbp)
    9501:	ad e2 
    9503:	48 8d 05 fe e1 00 00 	lea    0xe1fe(%rip),%rax        # 17708 <g_229>
    950a:	48 89 85 28 fe ff ff 	mov    %rax,-0x1d8(%rbp)
    9511:	48 8d 05 18 ee 00 00 	lea    0xee18(%rip),%rax        # 18330 <g_2614>
    9518:	48 89 85 c0 fe ff ff 	mov    %rax,-0x140(%rbp)
    951f:	48 c7 85 c8 fe ff ff 	movq   $0x0,-0x138(%rbp)
    9526:	00 00 00 00 
    952a:	48 8d 05 ff ed 00 00 	lea    0xedff(%rip),%rax        # 18330 <g_2614>
    9531:	48 89 85 d0 fe ff ff 	mov    %rax,-0x130(%rbp)
    9538:	48 8d 05 f1 ed 00 00 	lea    0xedf1(%rip),%rax        # 18330 <g_2614>
    953f:	48 89 85 d8 fe ff ff 	mov    %rax,-0x128(%rbp)
    9546:	48 8d 05 e3 ed 00 00 	lea    0xede3(%rip),%rax        # 18330 <g_2614>
    954d:	48 89 85 e0 fe ff ff 	mov    %rax,-0x120(%rbp)
    9554:	48 8d 05 d5 ed 00 00 	lea    0xedd5(%rip),%rax        # 18330 <g_2614>
    955b:	48 89 85 e8 fe ff ff 	mov    %rax,-0x118(%rbp)
    9562:	48 8d 05 c7 ed 00 00 	lea    0xedc7(%rip),%rax        # 18330 <g_2614>
    9569:	48 89 85 f0 fe ff ff 	mov    %rax,-0x110(%rbp)
    9570:	48 c7 85 f8 fe ff ff 	movq   $0x0,-0x108(%rbp)
    9577:	00 00 00 00 
    957b:	48 8d 05 ae ed 00 00 	lea    0xedae(%rip),%rax        # 18330 <g_2614>
    9582:	48 89 85 00 ff ff ff 	mov    %rax,-0x100(%rbp)
    9589:	48 8d 05 a0 ed 00 00 	lea    0xeda0(%rip),%rax        # 18330 <g_2614>
    9590:	48 89 85 08 ff ff ff 	mov    %rax,-0xf8(%rbp)
    9597:	48 8d 05 92 ed 00 00 	lea    0xed92(%rip),%rax        # 18330 <g_2614>
    959e:	48 89 85 10 ff ff ff 	mov    %rax,-0xf0(%rbp)
    95a5:	48 8d 05 84 ed 00 00 	lea    0xed84(%rip),%rax        # 18330 <g_2614>
    95ac:	48 89 85 18 ff ff ff 	mov    %rax,-0xe8(%rbp)
    95b3:	48 8d 05 76 ed 00 00 	lea    0xed76(%rip),%rax        # 18330 <g_2614>
    95ba:	48 89 85 20 ff ff ff 	mov    %rax,-0xe0(%rbp)
    95c1:	48 c7 85 28 ff ff ff 	movq   $0x0,-0xd8(%rbp)
    95c8:	00 00 00 00 
    95cc:	48 8d 05 5d ed 00 00 	lea    0xed5d(%rip),%rax        # 18330 <g_2614>
    95d3:	48 89 85 30 ff ff ff 	mov    %rax,-0xd0(%rbp)
    95da:	48 8d 05 4f ed 00 00 	lea    0xed4f(%rip),%rax        # 18330 <g_2614>
    95e1:	48 89 85 38 ff ff ff 	mov    %rax,-0xc8(%rbp)
    95e8:	48 8d 05 41 ed 00 00 	lea    0xed41(%rip),%rax        # 18330 <g_2614>
    95ef:	48 89 85 40 ff ff ff 	mov    %rax,-0xc0(%rbp)
    95f6:	48 8d 05 33 ed 00 00 	lea    0xed33(%rip),%rax        # 18330 <g_2614>
    95fd:	48 89 85 48 ff ff ff 	mov    %rax,-0xb8(%rbp)
    9604:	48 8d 05 25 ed 00 00 	lea    0xed25(%rip),%rax        # 18330 <g_2614>
    960b:	48 89 85 30 fe ff ff 	mov    %rax,-0x1d0(%rbp)
    9612:	48 b8 37 17 63 84 98 	movabs $0x7c04b49884631737,%rax
    9619:	b4 04 7c 
    961c:	48 89 85 38 fe ff ff 	mov    %rax,-0x1c8(%rbp)
    9623:	c7 85 e4 fd ff ff c7 	movl   $0xa91b30c7,-0x21c(%rbp)
    962a:	30 1b a9 
    962d:	c6 85 d3 fd ff ff f3 	movb   $0xf3,-0x22d(%rbp)
    9634:	66 c7 85 d8 fd ff ff 	movw   $0x26c5,-0x228(%rbp)
    963b:	c5 26 
    963d:	c7 85 60 fe ff ff 03 	movl   $0x3,-0x1a0(%rbp)
    9644:	00 00 00 
    9647:	c7 85 64 fe ff ff f7 	movl   $0xfffffff7,-0x19c(%rbp)
    964e:	ff ff ff 
    9651:	c7 85 68 fe ff ff 03 	movl   $0x3,-0x198(%rbp)
    9658:	00 00 00 
    965b:	c7 85 6c fe ff ff f7 	movl   $0xfffffff7,-0x194(%rbp)
    9662:	ff ff ff 
    9665:	c7 85 70 fe ff ff 03 	movl   $0x3,-0x190(%rbp)
    966c:	00 00 00 
    966f:	c7 85 74 fe ff ff f7 	movl   $0xfffffff7,-0x18c(%rbp)
    9676:	ff ff ff 
    9679:	c7 85 78 fe ff ff 03 	movl   $0x3,-0x188(%rbp)
    9680:	00 00 00 
    9683:	c7 85 7c fe ff ff f7 	movl   $0xfffffff7,-0x184(%rbp)
    968a:	ff ff ff 
    968d:	48 c7 85 50 ff ff ff 	movq   $0xfffffffffffffff6,-0xb0(%rbp)
    9694:	f6 ff ff ff 
    9698:	48 c7 85 58 ff ff ff 	movq   $0x0,-0xa8(%rbp)
    969f:	00 00 00 00 
    96a3:	48 c7 85 60 ff ff ff 	movq   $0xfffffffffffffff6,-0xa0(%rbp)
    96aa:	f6 ff ff ff 
    96ae:	48 b8 cb ec b1 10 1c 	movabs $0xb84ac81c10b1eccb,%rax
    96b5:	c8 4a b8 
    96b8:	48 89 85 68 ff ff ff 	mov    %rax,-0x98(%rbp)
    96bf:	48 ba 79 fc 8c f0 46 	movabs $0xf5e4a446f08cfc79,%rdx
    96c6:	a4 e4 f5 
    96c9:	48 89 95 70 ff ff ff 	mov    %rdx,-0x90(%rbp)
    96d0:	48 89 95 78 ff ff ff 	mov    %rdx,-0x88(%rbp)
    96d7:	48 89 45 80          	mov    %rax,-0x80(%rbp)
    96db:	48 c7 45 88 f6 ff ff 	movq   $0xfffffffffffffff6,-0x78(%rbp)
    96e2:	ff 
    96e3:	48 c7 45 90 00 00 00 	movq   $0x0,-0x70(%rbp)
    96ea:	00 
    96eb:	48 c7 45 98 f6 ff ff 	movq   $0xfffffffffffffff6,-0x68(%rbp)
    96f2:	ff 
    96f3:	48 89 45 a0          	mov    %rax,-0x60(%rbp)
    96f7:	48 89 55 a8          	mov    %rdx,-0x58(%rbp)
    96fb:	48 89 55 b0          	mov    %rdx,-0x50(%rbp)
    96ff:	48 89 45 b8          	mov    %rax,-0x48(%rbp)
    9703:	48 c7 45 c0 f6 ff ff 	movq   $0xfffffffffffffff6,-0x40(%rbp)
    970a:	ff 
    970b:	48 c7 45 c8 00 00 00 	movq   $0x0,-0x38(%rbp)
    9712:	00 
    9713:	48 c7 45 d0 f6 ff ff 	movq   $0xfffffffffffffff6,-0x30(%rbp)
    971a:	ff 
    971b:	48 89 45 d8          	mov    %rax,-0x28(%rbp)
    971f:	48 89 55 e0          	mov    %rdx,-0x20(%rbp)
    9723:	48 89 55 e8          	mov    %rdx,-0x18(%rbp)
    9727:	48 89 45 f0          	mov    %rax,-0x10(%rbp)
    972b:	66 c7 85 da fd ff ff 	movw   $0xc33c,-0x226(%rbp)
    9732:	3c c3 
    9734:	48 8b 85 c8 fd ff ff 	mov    -0x238(%rbp),%rax
    973b:	48 8b 4d f8          	mov    -0x8(%rbp),%rcx
    973f:	64 48 33 0c 25 28 00 	xor    %fs:0x28,%rcx
    9746:	00 00 
    9748:	74 05                	je     974f <func_45+0x41c>
    974a:	e8 21 d9 ff ff       	callq  7070 <__stack_chk_fail@plt>
    974f:	c9                   	leaveq 
    9750:	c3                   	retq   

0000000000009751 <func_58>:
    9751:	f3 0f 1e fa          	endbr64 
    9755:	55                   	push   %rbp
    9756:	48 89 e5             	mov    %rsp,%rbp
    9759:	48 83 ec 38          	sub    $0x38,%rsp
    975d:	89 f8                	mov    %edi,%eax
    975f:	89 75 d8             	mov    %esi,-0x28(%rbp)
    9762:	89 55 d4             	mov    %edx,-0x2c(%rbp)
    9765:	48 89 4d c8          	mov    %rcx,-0x38(%rbp)
    9769:	88 45 dc             	mov    %al,-0x24(%rbp)
    976c:	48 8d 05 b1 b9 00 00 	lea    0xb9b1(%rip),%rax        # 15124 <g_171>
    9773:	48 89 45 e8          	mov    %rax,-0x18(%rbp)
    9777:	48 8d 05 aa b8 00 00 	lea    0xb8aa(%rip),%rax        # 15028 <g_3>
    977e:	48 89 45 f0          	mov    %rax,-0x10(%rbp)
    9782:	48 8b 05 97 e0 00 00 	mov    0xe097(%rip),%rax        # 17820 <g_1209>
    9789:	8b 10                	mov    (%rax),%edx
    978b:	48 8b 05 8e e0 00 00 	mov    0xe08e(%rip),%rax        # 17820 <g_1209>
    9792:	83 ca 01             	or     $0x1,%edx
    9795:	89 10                	mov    %edx,(%rax)
    9797:	48 8b 05 2a df 00 00 	mov    0xdf2a(%rip),%rax        # 176c8 <g_20>
    979e:	48 8b 55 f0          	mov    -0x10(%rbp),%rdx
    97a2:	48 89 10             	mov    %rdx,(%rax)
    97a5:	c7 05 81 b9 00 00 00 	movl   $0x0,0xb981(%rip)        # 15130 <g_366>
    97ac:	00 00 00 
    97af:	eb 26                	jmp    97d7 <func_58+0x86>
    97b1:	48 8d 05 10 bf 00 00 	lea    0xbf10(%rip),%rax        # 156c8 <g_1589+0x8>
    97b8:	48 89 45 f8          	mov    %rax,-0x8(%rbp)
    97bc:	8b 05 6e b9 00 00    	mov    0xb96e(%rip),%eax        # 15130 <g_366>
    97c2:	48 98                	cltq   
    97c4:	be 02 00 00 00       	mov    $0x2,%esi
    97c9:	48 89 c7             	mov    %rax,%rdi
    97cc:	e8 7a e8 ff ff       	callq  804b <safe_sub_func_uint64_t_u_u>
    97d1:	89 05 59 b9 00 00    	mov    %eax,0xb959(%rip)        # 15130 <g_366>
    97d7:	8b 05 53 b9 00 00    	mov    0xb953(%rip),%eax        # 15130 <g_366>
    97dd:	83 f8 e6             	cmp    $0xffffffe6,%eax
    97e0:	7c cf                	jl     97b1 <func_58+0x60>
    97e2:	48 8d 05 2f e0 00 00 	lea    0xe02f(%rip),%rax        # 17818 <g_1206>
    97e9:	c9                   	leaveq 
    97ea:	c3                   	retq   

00000000000097eb <func_65>:
    97eb:	f3 0f 1e fa          	endbr64 
    97ef:	55                   	push   %rbp
    97f0:	48 89 e5             	mov    %rsp,%rbp
    97f3:	41 57                	push   %r15
    97f5:	41 56                	push   %r14
    97f7:	41 55                	push   %r13
    97f9:	41 54                	push   %r12
    97fb:	53                   	push   %rbx
    97fc:	48 81 ec 00 10 00 00 	sub    $0x1000,%rsp
    9803:	48 83 0c 24 00       	orq    $0x0,(%rsp)
    9808:	48 81 ec 58 04 00 00 	sub    $0x458,%rsp
    980f:	48 89 bd b8 eb ff ff 	mov    %rdi,-0x1448(%rbp)
    9816:	89 f0                	mov    %esi,%eax
    9818:	89 95 b0 eb ff ff    	mov    %edx,-0x1450(%rbp)
    981e:	89 ca                	mov    %ecx,%edx
    9820:	4c 89 85 a0 eb ff ff 	mov    %r8,-0x1460(%rbp)
    9827:	66 89 85 b4 eb ff ff 	mov    %ax,-0x144c(%rbp)
    982e:	89 d0                	mov    %edx,%eax
    9830:	88 85 ac eb ff ff    	mov    %al,-0x1454(%rbp)
    9836:	64 48 8b 04 25 28 00 	mov    %fs:0x28,%rax
    983d:	00 00 
    983f:	48 89 45 c8          	mov    %rax,-0x38(%rbp)
    9843:	31 c0                	xor    %eax,%eax
    9845:	66 c7 85 c4 eb ff ff 	movw   $0xfff9,-0x143c(%rbp)
    984c:	f9 ff 
    984e:	48 8d 85 c0 f8 ff ff 	lea    -0x740(%rbp),%rax
    9855:	48 8d 15 04 cc 00 00 	lea    0xcc04(%rip),%rdx        # 16460 <g_3344+0xa88>
    985c:	b9 e1 00 00 00       	mov    $0xe1,%ecx
    9861:	48 89 c7             	mov    %rax,%rdi
    9864:	48 89 d6             	mov    %rdx,%rsi
    9867:	f3 48 a5             	rep movsq %ds:(%rsi),%es:(%rdi)
    986a:	48 c7 85 90 ec ff ff 	movq   $0x0,-0x1370(%rbp)
    9871:	00 00 00 00 
    9875:	66 c7 85 c6 eb ff ff 	movw   $0xc2ed,-0x143a(%rbp)
    987c:	ed c2 
    987e:	48 8d 85 50 f1 ff ff 	lea    -0xeb0(%rbp),%rax
    9885:	48 8d 15 f4 d2 00 00 	lea    0xd2f4(%rip),%rdx        # 16b80 <g_3344+0x11a8>
    988c:	b9 2d 00 00 00       	mov    $0x2d,%ecx
    9891:	48 89 c7             	mov    %rax,%rdi
    9894:	48 89 d6             	mov    %rdx,%rsi
    9897:	f3 48 a5             	rep movsq %ds:(%rsi),%es:(%rdi)
    989a:	48 b8 17 03 9c 92 af 	movabs $0xd5c626af929c0317,%rax
    98a1:	26 c6 d5 
    98a4:	48 89 85 98 ec ff ff 	mov    %rax,-0x1368(%rbp)
    98ab:	66 c7 85 c8 eb ff ff 	movw   $0x0,-0x1438(%rbp)
    98b2:	00 00 
    98b4:	c7 85 d4 eb ff ff ff 	movl   $0xffffffff,-0x142c(%rbp)
    98bb:	ff ff ff 
    98be:	66 c7 85 ca eb ff ff 	movw   $0xffff,-0x1436(%rbp)
    98c5:	ff ff 
    98c7:	c7 85 04 ec ff ff 00 	movl   $0x0,-0x13fc(%rbp)
    98ce:	00 00 00 
    98d1:	48 8d 85 90 ec ff ff 	lea    -0x1370(%rbp),%rax
    98d8:	48 89 85 a0 ec ff ff 	mov    %rax,-0x1360(%rbp)
    98df:	48 8d 85 a0 ec ff ff 	lea    -0x1360(%rbp),%rax
    98e6:	48 89 85 a8 ec ff ff 	mov    %rax,-0x1358(%rbp)
    98ed:	48 8d 05 04 e2 00 00 	lea    0xe204(%rip),%rax        # 17af8 <g_1560>
    98f4:	48 89 85 d0 ec ff ff 	mov    %rax,-0x1330(%rbp)
    98fb:	48 c7 85 a0 ef ff ff 	movq   $0x0,-0x1060(%rbp)
    9902:	00 00 00 00 
    9906:	48 8d 05 cb e8 00 00 	lea    0xe8cb(%rip),%rax        # 181d8 <g_2011>
    990d:	48 89 85 a8 ef ff ff 	mov    %rax,-0x1058(%rbp)
    9914:	48 8d 05 bd e8 00 00 	lea    0xe8bd(%rip),%rax        # 181d8 <g_2011>
    991b:	48 89 85 b0 ef ff ff 	mov    %rax,-0x1050(%rbp)
    9922:	48 c7 85 b8 ef ff ff 	movq   $0x0,-0x1048(%rbp)
    9929:	00 00 00 00 
    992d:	48 8d 05 a4 e8 00 00 	lea    0xe8a4(%rip),%rax        # 181d8 <g_2011>
    9934:	48 89 85 c0 ef ff ff 	mov    %rax,-0x1040(%rbp)
    993b:	48 8d 05 96 e8 00 00 	lea    0xe896(%rip),%rax        # 181d8 <g_2011>
    9942:	48 89 85 c8 ef ff ff 	mov    %rax,-0x1038(%rbp)
    9949:	48 c7 85 d0 ef ff ff 	movq   $0x0,-0x1030(%rbp)
    9950:	00 00 00 00 
    9954:	48 8d 05 7d e8 00 00 	lea    0xe87d(%rip),%rax        # 181d8 <g_2011>
    995b:	48 89 85 d8 ef ff ff 	mov    %rax,-0x1028(%rbp)
    9962:	48 8d 05 6f e8 00 00 	lea    0xe86f(%rip),%rax        # 181d8 <g_2011>
    9969:	48 89 85 e0 ef ff ff 	mov    %rax,-0x1020(%rbp)
    9970:	48 c7 85 e8 ef ff ff 	movq   $0x0,-0x1018(%rbp)
    9977:	00 00 00 00 
    997b:	48 8d 05 56 e8 00 00 	lea    0xe856(%rip),%rax        # 181d8 <g_2011>
    9982:	48 89 85 f0 ef ff ff 	mov    %rax,-0x1010(%rbp)
    9989:	48 8d 05 48 e8 00 00 	lea    0xe848(%rip),%rax        # 181d8 <g_2011>
    9990:	48 89 85 f8 ef ff ff 	mov    %rax,-0x1008(%rbp)
    9997:	48 c7 85 00 f0 ff ff 	movq   $0x0,-0x1000(%rbp)
    999e:	00 00 00 00 
    99a2:	48 8d 05 2f e8 00 00 	lea    0xe82f(%rip),%rax        # 181d8 <g_2011>
    99a9:	48 89 85 08 f0 ff ff 	mov    %rax,-0xff8(%rbp)
    99b0:	48 8d 05 21 e8 00 00 	lea    0xe821(%rip),%rax        # 181d8 <g_2011>
    99b7:	48 89 85 10 f0 ff ff 	mov    %rax,-0xff0(%rbp)
    99be:	48 c7 85 18 f0 ff ff 	movq   $0x0,-0xfe8(%rbp)
    99c5:	00 00 00 00 
    99c9:	48 8d 05 08 e8 00 00 	lea    0xe808(%rip),%rax        # 181d8 <g_2011>
    99d0:	48 89 85 20 f0 ff ff 	mov    %rax,-0xfe0(%rbp)
    99d7:	48 8d 05 fa e7 00 00 	lea    0xe7fa(%rip),%rax        # 181d8 <g_2011>
    99de:	48 89 85 28 f0 ff ff 	mov    %rax,-0xfd8(%rbp)
    99e5:	48 c7 85 30 f0 ff ff 	movq   $0x0,-0xfd0(%rbp)
    99ec:	00 00 00 00 
    99f0:	48 8d 05 e1 e7 00 00 	lea    0xe7e1(%rip),%rax        # 181d8 <g_2011>
    99f7:	48 89 85 38 f0 ff ff 	mov    %rax,-0xfc8(%rbp)
    99fe:	48 8d 05 d3 e7 00 00 	lea    0xe7d3(%rip),%rax        # 181d8 <g_2011>
    9a05:	48 89 85 40 f0 ff ff 	mov    %rax,-0xfc0(%rbp)
    9a0c:	48 c7 85 48 f0 ff ff 	movq   $0x0,-0xfb8(%rbp)
    9a13:	00 00 00 00 
    9a17:	48 8d 05 ba e7 00 00 	lea    0xe7ba(%rip),%rax        # 181d8 <g_2011>
    9a1e:	48 89 85 50 f0 ff ff 	mov    %rax,-0xfb0(%rbp)
    9a25:	48 8d 05 ac e7 00 00 	lea    0xe7ac(%rip),%rax        # 181d8 <g_2011>
    9a2c:	48 89 85 58 f0 ff ff 	mov    %rax,-0xfa8(%rbp)
    9a33:	c7 85 08 ec ff ff 9a 	movl   $0x82abbf9a,-0x13f8(%rbp)
    9a3a:	bf ab 82 
    9a3d:	c6 85 c1 eb ff ff e3 	movb   $0xe3,-0x143f(%rbp)
    9a44:	48 8d 05 c5 f0 00 00 	lea    0xf0c5(%rip),%rax        # 18b10 <g_1929>
    9a4b:	48 89 85 60 f0 ff ff 	mov    %rax,-0xfa0(%rbp)
    9a52:	48 8d 05 b7 f0 00 00 	lea    0xf0b7(%rip),%rax        # 18b10 <g_1929>
    9a59:	48 89 85 68 f0 ff ff 	mov    %rax,-0xf98(%rbp)
    9a60:	48 8d 05 b1 f0 00 00 	lea    0xf0b1(%rip),%rax        # 18b18 <g_1930>
    9a67:	48 89 85 70 f0 ff ff 	mov    %rax,-0xf90(%rbp)
    9a6e:	48 c7 85 78 f0 ff ff 	movq   $0x0,-0xf88(%rbp)
    9a75:	00 00 00 00 
    9a79:	48 c7 85 80 f0 ff ff 	movq   $0x0,-0xf80(%rbp)
    9a80:	00 00 00 00 
    9a84:	48 8d 05 8d f0 00 00 	lea    0xf08d(%rip),%rax        # 18b18 <g_1930>
    9a8b:	48 89 85 88 f0 ff ff 	mov    %rax,-0xf78(%rbp)
    9a92:	48 8d 05 77 f0 00 00 	lea    0xf077(%rip),%rax        # 18b10 <g_1929>
    9a99:	48 89 85 90 f0 ff ff 	mov    %rax,-0xf70(%rbp)
    9aa0:	48 8d 05 71 f0 00 00 	lea    0xf071(%rip),%rax        # 18b18 <g_1930>
    9aa7:	48 89 85 98 f0 ff ff 	mov    %rax,-0xf68(%rbp)
    9aae:	48 8d 05 63 f0 00 00 	lea    0xf063(%rip),%rax        # 18b18 <g_1930>
    9ab5:	48 89 85 a0 f0 ff ff 	mov    %rax,-0xf60(%rbp)
    9abc:	48 8d 05 4d f0 00 00 	lea    0xf04d(%rip),%rax        # 18b10 <g_1929>
    9ac3:	48 89 85 a8 f0 ff ff 	mov    %rax,-0xf58(%rbp)
    9aca:	48 8d 05 3f f0 00 00 	lea    0xf03f(%rip),%rax        # 18b10 <g_1929>
    9ad1:	48 89 85 b0 f0 ff ff 	mov    %rax,-0xf50(%rbp)
    9ad8:	48 c7 85 b8 f0 ff ff 	movq   $0x0,-0xf48(%rbp)
    9adf:	00 00 00 00 
    9ae3:	48 8d 05 26 f0 00 00 	lea    0xf026(%rip),%rax        # 18b10 <g_1929>
    9aea:	48 89 85 c0 f0 ff ff 	mov    %rax,-0xf40(%rbp)
    9af1:	48 8d 05 20 f0 00 00 	lea    0xf020(%rip),%rax        # 18b18 <g_1930>
    9af8:	48 89 85 c8 f0 ff ff 	mov    %rax,-0xf38(%rbp)
    9aff:	48 8d 05 12 f0 00 00 	lea    0xf012(%rip),%rax        # 18b18 <g_1930>
    9b06:	48 89 85 d0 f0 ff ff 	mov    %rax,-0xf30(%rbp)
    9b0d:	48 8d 05 fc ef 00 00 	lea    0xeffc(%rip),%rax        # 18b10 <g_1929>
    9b14:	48 89 85 d8 f0 ff ff 	mov    %rax,-0xf28(%rbp)
    9b1b:	48 8d 05 f6 ef 00 00 	lea    0xeff6(%rip),%rax        # 18b18 <g_1930>
    9b22:	48 89 85 e0 f0 ff ff 	mov    %rax,-0xf20(%rbp)
    9b29:	48 c7 85 e8 f0 ff ff 	movq   $0x0,-0xf18(%rbp)
    9b30:	00 00 00 00 
    9b34:	48 c7 85 f0 f0 ff ff 	movq   $0x0,-0xf10(%rbp)
    9b3b:	00 00 00 00 
    9b3f:	48 8d 05 d2 ef 00 00 	lea    0xefd2(%rip),%rax        # 18b18 <g_1930>
    9b46:	48 89 85 f8 f0 ff ff 	mov    %rax,-0xf08(%rbp)
    9b4d:	48 8d 05 c4 ef 00 00 	lea    0xefc4(%rip),%rax        # 18b18 <g_1930>
    9b54:	48 89 85 00 f1 ff ff 	mov    %rax,-0xf00(%rbp)
    9b5b:	48 8d 05 b6 ef 00 00 	lea    0xefb6(%rip),%rax        # 18b18 <g_1930>
    9b62:	48 89 85 08 f1 ff ff 	mov    %rax,-0xef8(%rbp)
    9b69:	48 8d 05 a0 ef 00 00 	lea    0xefa0(%rip),%rax        # 18b10 <g_1929>
    9b70:	48 89 85 10 f1 ff ff 	mov    %rax,-0xef0(%rbp)
    9b77:	48 8d 05 9a ef 00 00 	lea    0xef9a(%rip),%rax        # 18b18 <g_1930>
    9b7e:	48 89 85 18 f1 ff ff 	mov    %rax,-0xee8(%rbp)
    9b85:	48 c7 85 20 f1 ff ff 	movq   $0x0,-0xee0(%rbp)
    9b8c:	00 00 00 00 
    9b90:	48 8d 05 79 ef 00 00 	lea    0xef79(%rip),%rax        # 18b10 <g_1929>
    9b97:	48 89 85 28 f1 ff ff 	mov    %rax,-0xed8(%rbp)
    9b9e:	48 8d 05 73 ef 00 00 	lea    0xef73(%rip),%rax        # 18b18 <g_1930>
    9ba5:	48 89 85 30 f1 ff ff 	mov    %rax,-0xed0(%rbp)
    9bac:	48 8d 05 65 ef 00 00 	lea    0xef65(%rip),%rax        # 18b18 <g_1930>
    9bb3:	48 89 85 38 f1 ff ff 	mov    %rax,-0xec8(%rbp)
    9bba:	48 8d 05 57 ef 00 00 	lea    0xef57(%rip),%rax        # 18b18 <g_1930>
    9bc1:	48 89 85 40 f1 ff ff 	mov    %rax,-0xec0(%rbp)
    9bc8:	48 8d 05 41 ef 00 00 	lea    0xef41(%rip),%rax        # 18b10 <g_1929>
    9bcf:	48 89 85 48 f1 ff ff 	mov    %rax,-0xeb8(%rbp)
    9bd6:	c7 85 0c ec ff ff 8c 	movl   $0x34c76b8c,-0x13f4(%rbp)
    9bdd:	6b c7 34 
    9be0:	48 c7 85 f0 ed ff ff 	movq   $0x0,-0x1210(%rbp)
    9be7:	00 00 00 00 
    9beb:	48 c7 85 f8 ed ff ff 	movq   $0x0,-0x1208(%rbp)
    9bf2:	00 00 00 00 
    9bf6:	48 c7 85 00 ee ff ff 	movq   $0x0,-0x1200(%rbp)
    9bfd:	00 00 00 00 
    9c01:	48 c7 85 08 ee ff ff 	movq   $0x0,-0x11f8(%rbp)
    9c08:	00 00 00 00 
    9c0c:	48 c7 85 d8 ec ff ff 	movq   $0xffffffffffffffff,-0x1328(%rbp)
    9c13:	ff ff ff ff 
    9c17:	66 c7 85 cc eb ff ff 	movw   $0x255f,-0x1434(%rbp)
    9c1e:	5f 25 
    9c20:	48 b8 41 97 7e 3b 2a 	movabs $0x4289dd2a3b7e9741,%rax
    9c27:	dd 89 42 
    9c2a:	48 89 85 e0 ec ff ff 	mov    %rax,-0x1320(%rbp)
    9c31:	c7 85 d8 eb ff ff 00 	movl   $0x0,-0x1428(%rbp)
    9c38:	00 00 00 
    9c3b:	eb 1e                	jmp    9c5b <func_65+0x470>
    9c3d:	8b 85 d8 eb ff ff    	mov    -0x1428(%rbp),%eax
    9c43:	48 98                	cltq   
    9c45:	48 8d 15 d4 b6 00 00 	lea    0xb6d4(%rip),%rdx        # 15320 <g_1051>
    9c4c:	48 89 94 c5 c0 ee ff 	mov    %rdx,-0x1140(%rbp,%rax,8)
    9c53:	ff 
    9c54:	83 85 d8 eb ff ff 01 	addl   $0x1,-0x1428(%rbp)
    9c5b:	83 bd d8 eb ff ff 09 	cmpl   $0x9,-0x1428(%rbp)
    9c62:	7e d9                	jle    9c3d <func_65+0x452>
    9c64:	c7 85 d8 eb ff ff 00 	movl   $0x0,-0x1428(%rbp)
    9c6b:	00 00 00 
    9c6e:	eb 1e                	jmp    9c8e <func_65+0x4a3>
    9c70:	8b 85 d8 eb ff ff    	mov    -0x1428(%rbp),%eax
    9c76:	48 98                	cltq   
    9c78:	48 8d 15 8d b4 00 00 	lea    0xb48d(%rip),%rdx        # 1510c <g_134>
    9c7f:	48 89 94 c5 c8 ed ff 	mov    %rdx,-0x1238(%rbp,%rax,8)
    9c86:	ff 
    9c87:	83 85 d8 eb ff ff 01 	addl   $0x1,-0x1428(%rbp)
    9c8e:	83 bd d8 eb ff ff 00 	cmpl   $0x0,-0x1428(%rbp)
    9c95:	7e d9                	jle    9c70 <func_65+0x485>
    9c97:	c7 85 d8 eb ff ff 00 	movl   $0x0,-0x1428(%rbp)
    9c9e:	00 00 00 
    9ca1:	eb 19                	jmp    9cbc <func_65+0x4d1>
    9ca3:	8b 85 d8 eb ff ff    	mov    -0x1428(%rbp),%eax
    9ca9:	48 98                	cltq   
    9cab:	66 c7 84 45 c4 ed ff 	movw   $0x0,-0x123c(%rbp,%rax,2)
    9cb2:	ff 00 00 
    9cb5:	83 85 d8 eb ff ff 01 	addl   $0x1,-0x1428(%rbp)
    9cbc:	83 bd d8 eb ff ff 01 	cmpl   $0x1,-0x1428(%rbp)
    9cc3:	7e de                	jle    9ca3 <func_65+0x4b8>
    9cc5:	90                   	nop
    9cc6:	0f b7 85 c4 eb ff ff 	movzwl -0x143c(%rbp),%eax
    9ccd:	89 c6                	mov    %eax,%esi
    9ccf:	bf 01 00 00 00       	mov    $0x1,%edi
    9cd4:	e8 26 e0 ff ff       	callq  7cff <safe_add_func_uint16_t_u_u>
    9cd9:	48 8b 15 40 db 00 00 	mov    0xdb40(%rip),%rdx        # 17820 <g_1209>
    9ce0:	8b 0a                	mov    (%rdx),%ecx
    9ce2:	0f b7 d0             	movzwl %ax,%edx
    9ce5:	48 8b 05 34 db 00 00 	mov    0xdb34(%rip),%rax        # 17820 <g_1209>
    9cec:	09 ca                	or     %ecx,%edx
    9cee:	89 10                	mov    %edx,(%rax)
    9cf0:	48 8b 05 d1 d9 00 00 	mov    0xd9d1(%rip),%rax        # 176c8 <g_20>
    9cf7:	48 8b 15 32 b0 00 00 	mov    0xb032(%rip),%rdx        # 14d30 <l_2227.4343+0x50>
    9cfe:	48 89 10             	mov    %rdx,(%rax)
    9d01:	66 83 bd b4 eb ff ff 	cmpw   $0x0,-0x144c(%rbp)
    9d08:	00 
    9d09:	0f 95 c0             	setne  %al
    9d0c:	44 0f b6 f8          	movzbl %al,%r15d
    9d10:	8b 85 04 ec ff ff    	mov    -0x13fc(%rbp),%eax
    9d16:	0f b6 d8             	movzbl %al,%ebx
    9d19:	8b 05 05 b6 00 00    	mov    0xb605(%rip),%eax        # 15324 <g_1051+0x4>
    9d1f:	89 c2                	mov    %eax,%edx
    9d21:	8b 85 b0 eb ff ff    	mov    -0x1450(%rbp),%eax
    9d27:	21 d0                	and    %edx,%eax
    9d29:	89 05 f5 b5 00 00    	mov    %eax,0xb5f5(%rip)        # 15324 <g_1051+0x4>
    9d2f:	8b 05 ef b5 00 00    	mov    0xb5ef(%rip),%eax        # 15324 <g_1051+0x4>
    9d35:	89 05 f5 b3 00 00    	mov    %eax,0xb3f5(%rip)        # 15130 <g_366>
    9d3b:	8b 05 ef b3 00 00    	mov    0xb3ef(%rip),%eax        # 15130 <g_366>
    9d41:	66 89 85 c6 eb ff ff 	mov    %ax,-0x143a(%rbp)
    9d48:	44 0f b6 a5 ac eb ff 	movzbl -0x1454(%rbp),%r12d
    9d4f:	ff 
    9d50:	44 0f b6 ad ac eb ff 	movzbl -0x1454(%rbp),%r13d
    9d57:	ff 
    9d58:	4c 0f bf b5 ca eb ff 	movswq -0x1436(%rbp),%r14
    9d5f:	ff 
    9d60:	48 8b 85 b8 eb ff ff 	mov    -0x1448(%rbp),%rax
    9d67:	0f b6 00             	movzbl (%rax),%eax
    9d6a:	0f be c0             	movsbl %al,%eax
    9d6d:	be 02 00 00 00       	mov    $0x2,%esi
    9d72:	89 c7                	mov    %eax,%edi
    9d74:	e8 75 d5 ff ff       	callq  72ee <safe_lshift_func_int8_t_s_u>
    9d79:	0f be d0             	movsbl %al,%edx
    9d7c:	8b 05 56 ed 00 00    	mov    0xed56(%rip),%eax        # 18ad8 <g_888>
    9d82:	09 d0                	or     %edx,%eax
    9d84:	89 05 4e ed 00 00    	mov    %eax,0xed4e(%rip)        # 18ad8 <g_888>
    9d8a:	48 8b 05 cf d9 00 00 	mov    0xd9cf(%rip),%rax        # 17760 <g_582>
    9d91:	48 8b 00             	mov    (%rax),%rax
    9d94:	0f b6 00             	movzbl (%rax),%eax
    9d97:	83 f0 fa             	xor    $0xfffffffa,%eax
    9d9a:	89 c2                	mov    %eax,%edx
    9d9c:	48 8b 05 7d da 00 00 	mov    0xda7d(%rip),%rax        # 17820 <g_1209>
    9da3:	0f b6 d2             	movzbl %dl,%edx
    9da6:	89 10                	mov    %edx,(%rax)
    9da8:	8b 00                	mov    (%rax),%eax
    9daa:	48 63 d0             	movslq %eax,%rdx
    9dad:	48 8b 85 98 ec ff ff 	mov    -0x1368(%rbp),%rax
    9db4:	48 21 d0             	and    %rdx,%rax
    9db7:	48 89 85 98 ec ff ff 	mov    %rax,-0x1368(%rbp)
    9dbe:	48 8b 85 98 ec ff ff 	mov    -0x1368(%rbp),%rax
    9dc5:	66 89 85 c8 eb ff ff 	mov    %ax,-0x1438(%rbp)
    9dcc:	0f b7 05 39 b3 00 00 	movzwl 0xb339(%rip),%eax        # 1510c <g_134>
    9dd3:	66 39 85 c8 eb ff ff 	cmp    %ax,-0x1438(%rbp)
    9dda:	0f 94 c0             	sete   %al
    9ddd:	0f b6 c0             	movzbl %al,%eax
    9de0:	89 85 d4 eb ff ff    	mov    %eax,-0x142c(%rbp)
    9de6:	8b 85 d4 eb ff ff    	mov    -0x142c(%rbp),%eax
    9dec:	48 63 d0             	movslq %eax,%rdx
    9def:	48 8b 05 82 b2 00 00 	mov    0xb282(%rip),%rax        # 15078 <g_17>
    9df6:	48 39 c2             	cmp    %rax,%rdx
    9df9:	0f 96 c0             	setbe  %al
    9dfc:	0f b6 c0             	movzbl %al,%eax
    9dff:	4c 89 f6             	mov    %r14,%rsi
    9e02:	48 89 c7             	mov    %rax,%rdi
    9e05:	e8 ed db ff ff       	callq  79f7 <safe_div_func_int64_t_s_s>
    9e0a:	8b 95 b0 eb ff ff    	mov    -0x1450(%rbp),%edx
    9e10:	89 d2                	mov    %edx,%edx
    9e12:	48 09 d0             	or     %rdx,%rax
    9e15:	4c 89 ee             	mov    %r13,%rsi
    9e18:	48 89 c7             	mov    %rax,%rdi
    9e1b:	e8 2b e2 ff ff       	callq  804b <safe_sub_func_uint64_t_u_u>
    9e20:	0f b7 c0             	movzwl %ax,%eax
    9e23:	44 89 e6             	mov    %r12d,%esi
    9e26:	89 c7                	mov    %eax,%edi
    9e28:	e8 d2 de ff ff       	callq  7cff <safe_add_func_uint16_t_u_u>
    9e2d:	0f b7 c0             	movzwl %ax,%eax
    9e30:	be 48 ce 9b 2b       	mov    $0x2b9bce48,%esi
    9e35:	89 c7                	mov    %eax,%edi
    9e37:	e8 7a d7 ff ff       	callq  75b6 <safe_add_func_int32_t_s_s>
    9e3c:	48 8b 85 b8 eb ff ff 	mov    -0x1448(%rbp),%rax
    9e43:	0f b6 00             	movzbl (%rax),%eax
    9e46:	0f b6 c0             	movzbl %al,%eax
    9e49:	83 e0 01             	and    $0x1,%eax
    9e4c:	89 de                	mov    %ebx,%esi
    9e4e:	89 c7                	mov    %eax,%edi
    9e50:	e8 59 dd ff ff       	callq  7bae <safe_mod_func_uint8_t_u_u>
    9e55:	0f b6 d0             	movzbl %al,%edx
    9e58:	8b 05 b2 b2 00 00    	mov    0xb2b2(%rip),%eax        # 15110 <g_143>
    9e5e:	39 c2                	cmp    %eax,%edx
    9e60:	0f 95 c0             	setne  %al
    9e63:	0f b6 c0             	movzbl %al,%eax
    9e66:	44 31 f8             	xor    %r15d,%eax
    9e69:	83 f8 3b             	cmp    $0x3b,%eax
    9e6c:	0f 9f c0             	setg   %al
    9e6f:	0f b6 c0             	movzbl %al,%eax
    9e72:	66 89 05 2f b8 00 00 	mov    %ax,0xb82f(%rip)        # 156a8 <g_1554>
    9e79:	0f b7 05 28 b8 00 00 	movzwl 0xb828(%rip),%eax        # 156a8 <g_1554>
    9e80:	0f b7 d0             	movzwl %ax,%edx
    9e83:	8b 85 b0 eb ff ff    	mov    -0x1450(%rbp),%eax
    9e89:	39 c2                	cmp    %eax,%edx
    9e8b:	0f 83 14 1f 00 00    	jae    bda5 <func_65+0x25ba>
    9e91:	48 8d 05 90 b1 00 00 	lea    0xb190(%rip),%rax        # 15028 <g_3>
    9e98:	48 89 85 c0 f2 ff ff 	mov    %rax,-0xd40(%rbp)
    9e9f:	48 8d 05 2a b8 00 00 	lea    0xb82a(%rip),%rax        # 156d0 <g_1589+0x10>
    9ea6:	48 89 85 c8 f2 ff ff 	mov    %rax,-0xd38(%rbp)
    9ead:	48 8d 85 d4 eb ff ff 	lea    -0x142c(%rbp),%rax
    9eb4:	48 89 85 d0 f2 ff ff 	mov    %rax,-0xd30(%rbp)
    9ebb:	48 8d 05 0e b8 00 00 	lea    0xb80e(%rip),%rax        # 156d0 <g_1589+0x10>
    9ec2:	48 89 85 d8 f2 ff ff 	mov    %rax,-0xd28(%rbp)
    9ec9:	48 8d 05 58 b1 00 00 	lea    0xb158(%rip),%rax        # 15028 <g_3>
    9ed0:	48 89 85 e0 f2 ff ff 	mov    %rax,-0xd20(%rbp)
    9ed7:	48 8d 05 ea b7 00 00 	lea    0xb7ea(%rip),%rax        # 156c8 <g_1589+0x8>
    9ede:	48 89 85 e8 f2 ff ff 	mov    %rax,-0xd18(%rbp)
    9ee5:	48 8d 85 d4 eb ff ff 	lea    -0x142c(%rbp),%rax
    9eec:	48 89 85 f0 f2 ff ff 	mov    %rax,-0xd10(%rbp)
    9ef3:	48 8d 05 2e b1 00 00 	lea    0xb12e(%rip),%rax        # 15028 <g_3>
    9efa:	48 89 85 f8 f2 ff ff 	mov    %rax,-0xd08(%rbp)
    9f01:	48 8d 05 bc b7 00 00 	lea    0xb7bc(%rip),%rax        # 156c4 <g_1589+0x4>
    9f08:	48 89 85 00 f3 ff ff 	mov    %rax,-0xd00(%rbp)
    9f0f:	48 8d 85 d4 eb ff ff 	lea    -0x142c(%rbp),%rax
    9f16:	48 89 85 08 f3 ff ff 	mov    %rax,-0xcf8(%rbp)
    9f1d:	48 8d 05 ac b7 00 00 	lea    0xb7ac(%rip),%rax        # 156d0 <g_1589+0x10>
    9f24:	48 89 85 10 f3 ff ff 	mov    %rax,-0xcf0(%rbp)
    9f2b:	48 8d 05 96 b7 00 00 	lea    0xb796(%rip),%rax        # 156c8 <g_1589+0x8>
    9f32:	48 89 85 18 f3 ff ff 	mov    %rax,-0xce8(%rbp)
    9f39:	48 8d 05 94 b7 00 00 	lea    0xb794(%rip),%rax        # 156d4 <g_1589+0x14>
    9f40:	48 89 85 20 f3 ff ff 	mov    %rax,-0xce0(%rbp)
    9f47:	48 8d 85 d4 eb ff ff 	lea    -0x142c(%rbp),%rax
    9f4e:	48 89 85 28 f3 ff ff 	mov    %rax,-0xcd8(%rbp)
    9f55:	48 8d 05 6c b7 00 00 	lea    0xb76c(%rip),%rax        # 156c8 <g_1589+0x8>
    9f5c:	48 89 85 30 f3 ff ff 	mov    %rax,-0xcd0(%rbp)
    9f63:	48 8d 05 66 b7 00 00 	lea    0xb766(%rip),%rax        # 156d0 <g_1589+0x10>
    9f6a:	48 89 85 38 f3 ff ff 	mov    %rax,-0xcc8(%rbp)
    9f71:	48 8d 85 d4 eb ff ff 	lea    -0x142c(%rbp),%rax
    9f78:	48 89 85 40 f3 ff ff 	mov    %rax,-0xcc0(%rbp)
    9f7f:	48 8d 05 3e b7 00 00 	lea    0xb73e(%rip),%rax        # 156c4 <g_1589+0x4>
    9f86:	48 89 85 48 f3 ff ff 	mov    %rax,-0xcb8(%rbp)
    9f8d:	48 8d 05 94 b0 00 00 	lea    0xb094(%rip),%rax        # 15028 <g_3>
    9f94:	48 89 85 50 f3 ff ff 	mov    %rax,-0xcb0(%rbp)
    9f9b:	48 8d 05 32 b7 00 00 	lea    0xb732(%rip),%rax        # 156d4 <g_1589+0x14>
    9fa2:	48 89 85 58 f3 ff ff 	mov    %rax,-0xca8(%rbp)
    9fa9:	48 8d 05 24 b7 00 00 	lea    0xb724(%rip),%rax        # 156d4 <g_1589+0x14>
    9fb0:	48 89 85 60 f3 ff ff 	mov    %rax,-0xca0(%rbp)
    9fb7:	48 8d 05 6a b0 00 00 	lea    0xb06a(%rip),%rax        # 15028 <g_3>
    9fbe:	48 89 85 68 f3 ff ff 	mov    %rax,-0xc98(%rbp)
    9fc5:	48 8d 05 04 b7 00 00 	lea    0xb704(%rip),%rax        # 156d0 <g_1589+0x10>
    9fcc:	48 89 85 70 f3 ff ff 	mov    %rax,-0xc90(%rbp)
    9fd3:	48 8d 85 d4 eb ff ff 	lea    -0x142c(%rbp),%rax
    9fda:	48 89 85 78 f3 ff ff 	mov    %rax,-0xc88(%rbp)
    9fe1:	48 8d 05 e8 b6 00 00 	lea    0xb6e8(%rip),%rax        # 156d0 <g_1589+0x10>
    9fe8:	48 89 85 80 f3 ff ff 	mov    %rax,-0xc80(%rbp)
    9fef:	48 8d 05 32 b0 00 00 	lea    0xb032(%rip),%rax        # 15028 <g_3>
    9ff6:	48 89 85 88 f3 ff ff 	mov    %rax,-0xc78(%rbp)
    9ffd:	48 8d 05 c4 b6 00 00 	lea    0xb6c4(%rip),%rax        # 156c8 <g_1589+0x8>
    a004:	48 89 85 90 f3 ff ff 	mov    %rax,-0xc70(%rbp)
    a00b:	48 8d 85 d4 eb ff ff 	lea    -0x142c(%rbp),%rax
    a012:	48 89 85 98 f3 ff ff 	mov    %rax,-0xc68(%rbp)
    a019:	48 8d 05 08 b0 00 00 	lea    0xb008(%rip),%rax        # 15028 <g_3>
    a020:	48 89 85 a0 f3 ff ff 	mov    %rax,-0xc60(%rbp)
    a027:	48 8d 05 96 b6 00 00 	lea    0xb696(%rip),%rax        # 156c4 <g_1589+0x4>
    a02e:	48 89 85 a8 f3 ff ff 	mov    %rax,-0xc58(%rbp)
    a035:	48 8d 85 d4 eb ff ff 	lea    -0x142c(%rbp),%rax
    a03c:	48 89 85 b0 f3 ff ff 	mov    %rax,-0xc50(%rbp)
    a043:	48 8d 05 86 b6 00 00 	lea    0xb686(%rip),%rax        # 156d0 <g_1589+0x10>
    a04a:	48 89 85 b8 f3 ff ff 	mov    %rax,-0xc48(%rbp)
    a051:	48 8d 05 70 b6 00 00 	lea    0xb670(%rip),%rax        # 156c8 <g_1589+0x8>
    a058:	48 89 85 c0 f3 ff ff 	mov    %rax,-0xc40(%rbp)
    a05f:	48 8d 05 6e b6 00 00 	lea    0xb66e(%rip),%rax        # 156d4 <g_1589+0x14>
    a066:	48 89 85 c8 f3 ff ff 	mov    %rax,-0xc38(%rbp)
    a06d:	48 8d 85 d4 eb ff ff 	lea    -0x142c(%rbp),%rax
    a074:	48 89 85 d0 f3 ff ff 	mov    %rax,-0xc30(%rbp)
    a07b:	48 8d 05 46 b6 00 00 	lea    0xb646(%rip),%rax        # 156c8 <g_1589+0x8>
    a082:	48 89 85 d8 f3 ff ff 	mov    %rax,-0xc28(%rbp)
    a089:	48 8d 05 40 b6 00 00 	lea    0xb640(%rip),%rax        # 156d0 <g_1589+0x10>
    a090:	48 89 85 e0 f3 ff ff 	mov    %rax,-0xc20(%rbp)
    a097:	48 8d 85 d4 eb ff ff 	lea    -0x142c(%rbp),%rax
    a09e:	48 89 85 e8 f3 ff ff 	mov    %rax,-0xc18(%rbp)
    a0a5:	48 8d 05 18 b6 00 00 	lea    0xb618(%rip),%rax        # 156c4 <g_1589+0x4>
    a0ac:	48 89 85 f0 f3 ff ff 	mov    %rax,-0xc10(%rbp)
    a0b3:	48 8d 05 6e af 00 00 	lea    0xaf6e(%rip),%rax        # 15028 <g_3>
    a0ba:	48 89 85 f8 f3 ff ff 	mov    %rax,-0xc08(%rbp)
    a0c1:	48 8d 05 0c b6 00 00 	lea    0xb60c(%rip),%rax        # 156d4 <g_1589+0x14>
    a0c8:	48 89 85 00 f4 ff ff 	mov    %rax,-0xc00(%rbp)
    a0cf:	48 8d 05 fe b5 00 00 	lea    0xb5fe(%rip),%rax        # 156d4 <g_1589+0x14>
    a0d6:	48 89 85 08 f4 ff ff 	mov    %rax,-0xbf8(%rbp)
    a0dd:	48 8d 05 44 af 00 00 	lea    0xaf44(%rip),%rax        # 15028 <g_3>
    a0e4:	48 89 85 10 f4 ff ff 	mov    %rax,-0xbf0(%rbp)
    a0eb:	48 8d 05 de b5 00 00 	lea    0xb5de(%rip),%rax        # 156d0 <g_1589+0x10>
    a0f2:	48 89 85 18 f4 ff ff 	mov    %rax,-0xbe8(%rbp)
    a0f9:	48 8d 85 d4 eb ff ff 	lea    -0x142c(%rbp),%rax
    a100:	48 89 85 20 f4 ff ff 	mov    %rax,-0xbe0(%rbp)
    a107:	48 8d 05 c2 b5 00 00 	lea    0xb5c2(%rip),%rax        # 156d0 <g_1589+0x10>
    a10e:	48 89 85 28 f4 ff ff 	mov    %rax,-0xbd8(%rbp)
    a115:	48 8d 05 0c af 00 00 	lea    0xaf0c(%rip),%rax        # 15028 <g_3>
    a11c:	48 89 85 30 f4 ff ff 	mov    %rax,-0xbd0(%rbp)
    a123:	48 8d 05 9e b5 00 00 	lea    0xb59e(%rip),%rax        # 156c8 <g_1589+0x8>
    a12a:	48 89 85 38 f4 ff ff 	mov    %rax,-0xbc8(%rbp)
    a131:	48 8d 85 d4 eb ff ff 	lea    -0x142c(%rbp),%rax
    a138:	48 89 85 40 f4 ff ff 	mov    %rax,-0xbc0(%rbp)
    a13f:	48 8d 05 e2 ae 00 00 	lea    0xaee2(%rip),%rax        # 15028 <g_3>
    a146:	48 89 85 48 f4 ff ff 	mov    %rax,-0xbb8(%rbp)
    a14d:	48 8d 05 70 b5 00 00 	lea    0xb570(%rip),%rax        # 156c4 <g_1589+0x4>
    a154:	48 89 85 50 f4 ff ff 	mov    %rax,-0xbb0(%rbp)
    a15b:	48 8d 85 d4 eb ff ff 	lea    -0x142c(%rbp),%rax
    a162:	48 89 85 58 f4 ff ff 	mov    %rax,-0xba8(%rbp)
    a169:	48 8d 05 60 b5 00 00 	lea    0xb560(%rip),%rax        # 156d0 <g_1589+0x10>
    a170:	48 89 85 60 f4 ff ff 	mov    %rax,-0xba0(%rbp)
    a177:	48 8d 05 4a b5 00 00 	lea    0xb54a(%rip),%rax        # 156c8 <g_1589+0x8>
    a17e:	48 89 85 68 f4 ff ff 	mov    %rax,-0xb98(%rbp)
    a185:	48 8d 05 48 b5 00 00 	lea    0xb548(%rip),%rax        # 156d4 <g_1589+0x14>
    a18c:	48 89 85 70 f4 ff ff 	mov    %rax,-0xb90(%rbp)
    a193:	48 8d 85 d4 eb ff ff 	lea    -0x142c(%rbp),%rax
    a19a:	48 89 85 78 f4 ff ff 	mov    %rax,-0xb88(%rbp)
    a1a1:	48 8d 05 20 b5 00 00 	lea    0xb520(%rip),%rax        # 156c8 <g_1589+0x8>
    a1a8:	48 89 85 80 f4 ff ff 	mov    %rax,-0xb80(%rbp)
    a1af:	48 8d 05 1a b5 00 00 	lea    0xb51a(%rip),%rax        # 156d0 <g_1589+0x10>
    a1b6:	48 89 85 88 f4 ff ff 	mov    %rax,-0xb78(%rbp)
    a1bd:	48 8d 85 d4 eb ff ff 	lea    -0x142c(%rbp),%rax
    a1c4:	48 89 85 90 f4 ff ff 	mov    %rax,-0xb70(%rbp)
    a1cb:	48 8d 05 f2 b4 00 00 	lea    0xb4f2(%rip),%rax        # 156c4 <g_1589+0x4>
    a1d2:	48 89 85 98 f4 ff ff 	mov    %rax,-0xb68(%rbp)
    a1d9:	48 8d 05 48 ae 00 00 	lea    0xae48(%rip),%rax        # 15028 <g_3>
    a1e0:	48 89 85 a0 f4 ff ff 	mov    %rax,-0xb60(%rbp)
    a1e7:	48 8d 05 e6 b4 00 00 	lea    0xb4e6(%rip),%rax        # 156d4 <g_1589+0x14>
    a1ee:	48 89 85 a8 f4 ff ff 	mov    %rax,-0xb58(%rbp)
    a1f5:	48 8d 05 d8 b4 00 00 	lea    0xb4d8(%rip),%rax        # 156d4 <g_1589+0x14>
    a1fc:	48 89 85 b0 f4 ff ff 	mov    %rax,-0xb50(%rbp)
    a203:	48 8d 05 32 b1 00 00 	lea    0xb132(%rip),%rax        # 1533c <g_1075>
    a20a:	48 89 85 e8 ec ff ff 	mov    %rax,-0x1318(%rbp)
    a211:	48 b8 bb 78 ba e5 8d 	movabs $0x56df128de5ba78bb,%rax
    a218:	12 df 56 
    a21b:	48 89 85 f0 ec ff ff 	mov    %rax,-0x1310(%rbp)
    a222:	48 8d 85 a0 ec ff ff 	lea    -0x1360(%rbp),%rax
    a229:	48 89 85 f8 ec ff ff 	mov    %rax,-0x1308(%rbp)
    a230:	48 b8 db 84 40 8e af 	movabs $0x2ccd12af8e4084db,%rax
    a237:	12 cd 2c 
    a23a:	48 89 85 00 ed ff ff 	mov    %rax,-0x1300(%rbp)
    a241:	48 8d 85 c0 ee ff ff 	lea    -0x1140(%rbp),%rax
    a248:	48 83 c0 40          	add    $0x40,%rax
    a24c:	48 89 85 b0 ec ff ff 	mov    %rax,-0x1350(%rbp)
    a253:	48 8d 85 b0 ec ff ff 	lea    -0x1350(%rbp),%rax
    a25a:	48 89 85 b8 ec ff ff 	mov    %rax,-0x1348(%rbp)
    a261:	48 c7 85 c0 ec ff ff 	movq   $0x0,-0x1340(%rbp)
    a268:	00 00 00 00 
    a26c:	48 c7 85 08 ed ff ff 	movq   $0x0,-0x12f8(%rbp)
    a273:	00 00 00 00 
    a277:	48 c7 85 10 ef ff ff 	movq   $0x1,-0x10f0(%rbp)
    a27e:	01 00 00 00 
    a282:	48 c7 85 18 ef ff ff 	movq   $0x1,-0x10e8(%rbp)
    a289:	01 00 00 00 
    a28d:	48 c7 85 20 ef ff ff 	movq   $0x1,-0x10e0(%rbp)
    a294:	01 00 00 00 
    a298:	48 c7 85 28 ef ff ff 	movq   $0x1,-0x10d8(%rbp)
    a29f:	01 00 00 00 
    a2a3:	48 c7 85 30 ef ff ff 	movq   $0x1,-0x10d0(%rbp)
    a2aa:	01 00 00 00 
    a2ae:	48 c7 85 38 ef ff ff 	movq   $0x1,-0x10c8(%rbp)
    a2b5:	01 00 00 00 
    a2b9:	48 c7 85 40 ef ff ff 	movq   $0x1,-0x10c0(%rbp)
    a2c0:	01 00 00 00 
    a2c4:	48 c7 85 48 ef ff ff 	movq   $0x1,-0x10b8(%rbp)
    a2cb:	01 00 00 00 
    a2cf:	48 c7 85 50 ef ff ff 	movq   $0x1,-0x10b0(%rbp)
    a2d6:	01 00 00 00 
    a2da:	48 c7 85 58 ef ff ff 	movq   $0x1,-0x10a8(%rbp)
    a2e1:	01 00 00 00 
    a2e5:	48 c7 85 60 ef ff ff 	movq   $0x1,-0x10a0(%rbp)
    a2ec:	01 00 00 00 
    a2f0:	48 c7 85 68 ef ff ff 	movq   $0x1,-0x1098(%rbp)
    a2f7:	01 00 00 00 
    a2fb:	48 c7 85 70 ef ff ff 	movq   $0x1,-0x1090(%rbp)
    a302:	01 00 00 00 
    a306:	48 c7 85 78 ef ff ff 	movq   $0x1,-0x1088(%rbp)
    a30d:	01 00 00 00 
    a311:	48 c7 85 80 ef ff ff 	movq   $0x1,-0x1080(%rbp)
    a318:	01 00 00 00 
    a31c:	48 c7 85 88 ef ff ff 	movq   $0x1,-0x1078(%rbp)
    a323:	01 00 00 00 
    a327:	48 c7 85 90 ef ff ff 	movq   $0x1,-0x1070(%rbp)
    a32e:	01 00 00 00 
    a332:	48 c7 85 98 ef ff ff 	movq   $0x1,-0x1068(%rbp)
    a339:	01 00 00 00 
    a33d:	48 c7 85 10 ed ff ff 	movq   $0x0,-0x12f0(%rbp)
    a344:	00 00 00 00 
    a348:	c7 85 38 ec ff ff 21 	movl   $0x692321,-0x13c8(%rbp)
    a34f:	23 69 00 
    a352:	c7 85 dc eb ff ff 00 	movl   $0x0,-0x1424(%rbp)
    a359:	00 00 00 
    a35c:	eb 4c                	jmp    a3aa <func_65+0xbbf>
    a35e:	c7 85 e0 eb ff ff 00 	movl   $0x0,-0x1420(%rbp)
    a365:	00 00 00 
    a368:	eb 30                	jmp    a39a <func_65+0xbaf>
    a36a:	8b 85 e0 eb ff ff    	mov    -0x1420(%rbp),%eax
    a370:	48 63 c8             	movslq %eax,%rcx
    a373:	8b 85 dc eb ff ff    	mov    -0x1424(%rbp),%eax
    a379:	48 63 d0             	movslq %eax,%rdx
    a37c:	48 89 d0             	mov    %rdx,%rax
    a37f:	48 01 c0             	add    %rax,%rax
    a382:	48 01 d0             	add    %rdx,%rax
    a385:	48 01 c8             	add    %rcx,%rax
    a388:	c7 84 85 d4 ed ff ff 	movl   $0xc33ea39a,-0x122c(%rbp,%rax,4)
    a38f:	9a a3 3e c3 
    a393:	83 85 e0 eb ff ff 01 	addl   $0x1,-0x1420(%rbp)
    a39a:	83 bd e0 eb ff ff 02 	cmpl   $0x2,-0x1420(%rbp)
    a3a1:	7e c7                	jle    a36a <func_65+0xb7f>
    a3a3:	83 85 dc eb ff ff 01 	addl   $0x1,-0x1424(%rbp)
    a3aa:	83 bd dc eb ff ff 00 	cmpl   $0x0,-0x1424(%rbp)
    a3b1:	7e ab                	jle    a35e <func_65+0xb73>
    a3b3:	90                   	nop
    a3b4:	48 8b 05 0d d3 00 00 	mov    0xd30d(%rip),%rax        # 176c8 <g_20>
    a3bb:	48 8b 95 58 f3 ff ff 	mov    -0xca8(%rbp),%rdx
    a3c2:	48 89 10             	mov    %rdx,(%rax)
    a3c5:	c6 05 b4 ac 00 00 00 	movb   $0x0,0xacb4(%rip)        # 15080 <g_42>
    a3cc:	e9 c0 19 00 00       	jmpq   bd91 <func_65+0x25a6>
    a3d1:	48 8d 05 88 de 00 00 	lea    0xde88(%rip),%rax        # 18260 <g_2268>
    a3d8:	48 89 85 18 ed ff ff 	mov    %rax,-0x12e8(%rbp)
    a3df:	c7 85 3c ec ff ff ac 	movl   $0xe93c93ac,-0x13c4(%rbp)
    a3e6:	93 3c e9 
    a3e9:	48 c7 85 20 ed ff ff 	movq   $0x1,-0x12e0(%rbp)
    a3f0:	01 00 00 00 
    a3f4:	c6 85 c0 eb ff ff fb 	movb   $0xfb,-0x1440(%rbp)
    a3fb:	48 8d 85 a0 ec ff ff 	lea    -0x1360(%rbp),%rax
    a402:	48 89 85 28 ed ff ff 	mov    %rax,-0x12d8(%rbp)
    a409:	c7 85 10 ee ff ff f7 	movl   $0xfffffff7,-0x11f0(%rbp)
    a410:	ff ff ff 
    a413:	c7 85 14 ee ff ff 52 	movl   $0xfe939e52,-0x11ec(%rbp)
    a41a:	9e 93 fe 
    a41d:	c7 85 18 ee ff ff f7 	movl   $0xfffffff7,-0x11e8(%rbp)
    a424:	ff ff ff 
    a427:	c7 85 1c ee ff ff 01 	movl   $0x1,-0x11e4(%rbp)
    a42e:	00 00 00 
    a431:	c7 85 20 ee ff ff 01 	movl   $0x1,-0x11e0(%rbp)
    a438:	00 00 00 
    a43b:	c7 85 24 ee ff ff f7 	movl   $0xfffffff7,-0x11dc(%rbp)
    a442:	ff ff ff 
    a445:	c7 85 28 ee ff ff 52 	movl   $0xfe939e52,-0x11d8(%rbp)
    a44c:	9e 93 fe 
    a44f:	c7 85 2c ee ff ff f7 	movl   $0xfffffff7,-0x11d4(%rbp)
    a456:	ff ff ff 
    a459:	c7 85 30 ee ff ff 01 	movl   $0x1,-0x11d0(%rbp)
    a460:	00 00 00 
    a463:	c7 85 34 ee ff ff 01 	movl   $0x1,-0x11cc(%rbp)
    a46a:	00 00 00 
    a46d:	c7 85 40 ec ff ff 68 	movl   $0xcab43068,-0x13c0(%rbp)
    a474:	30 b4 ca 
    a477:	48 8d 85 c0 ee ff ff 	lea    -0x1140(%rbp),%rax
    a47e:	48 83 c0 40          	add    $0x40,%rax
    a482:	48 89 85 30 ed ff ff 	mov    %rax,-0x12d0(%rbp)
    a489:	66 c7 85 ce eb ff ff 	movw   $0xc99c,-0x1432(%rbp)
    a490:	9c c9 
    a492:	48 c7 85 40 ee ff ff 	movq   $0x0,-0x11c0(%rbp)
    a499:	00 00 00 00 
    a49d:	48 c7 85 48 ee ff ff 	movq   $0x0,-0x11b8(%rbp)
    a4a4:	00 00 00 00 
    a4a8:	48 c7 85 50 ee ff ff 	movq   $0x0,-0x11b0(%rbp)
    a4af:	00 00 00 00 
    a4b3:	48 c7 85 58 ee ff ff 	movq   $0x0,-0x11a8(%rbp)
    a4ba:	00 00 00 00 
    a4be:	48 c7 85 60 ee ff ff 	movq   $0x0,-0x11a0(%rbp)
    a4c5:	00 00 00 00 
    a4c9:	48 c7 85 68 ee ff ff 	movq   $0x0,-0x1198(%rbp)
    a4d0:	00 00 00 00 
    a4d4:	c7 85 e4 eb ff ff 01 	movl   $0x1,-0x141c(%rbp)
    a4db:	00 00 00 
    a4de:	48 c7 85 38 ed ff ff 	movq   $0x0,-0x12c8(%rbp)
    a4e5:	00 00 00 00 
    a4e9:	c7 85 44 ec ff ff 56 	movl   $0x3fc6b856,-0x13bc(%rbp)
    a4f0:	b8 c6 3f 
    a4f3:	0f b6 9d ac eb ff ff 	movzbl -0x1454(%rbp),%ebx
    a4fa:	48 8b 85 20 ed ff ff 	mov    -0x12e0(%rbp),%rax
    a501:	89 85 a8 eb ff ff    	mov    %eax,-0x1458(%rbp)
    a507:	48 8b 05 fa d1 00 00 	mov    0xd1fa(%rip),%rax        # 17708 <g_229>
    a50e:	0f b6 00             	movzbl (%rax),%eax
    a511:	44 0f be e0          	movsbl %al,%r12d
    a515:	8b 05 0d ab 00 00    	mov    0xab0d(%rip),%eax        # 15028 <g_3>
    a51b:	44 0f bf e8          	movswl %ax,%r13d
    a51f:	48 8b 05 3a d2 00 00 	mov    0xd23a(%rip),%rax        # 17760 <g_582>
    a526:	48 8b 00             	mov    (%rax),%rax
    a529:	48 39 85 e8 ec ff ff 	cmp    %rax,-0x1318(%rbp)
    a530:	0f 94 c0             	sete   %al
    a533:	0f b6 c0             	movzbl %al,%eax
    a536:	48 89 85 98 eb ff ff 	mov    %rax,-0x1468(%rbp)
    a53d:	44 8b 35 04 75 00 00 	mov    0x7504(%rip),%r14d        # 11a48 <l_2288.4404>
    a544:	48 8b 05 d5 d2 00 00 	mov    0xd2d5(%rip),%rax        # 17820 <g_1209>
    a54b:	44 8b 38             	mov    (%rax),%r15d
    a54e:	8b 85 b0 eb ff ff    	mov    -0x1450(%rbp),%eax
    a554:	98                   	cwtl   
    a555:	89 85 94 eb ff ff    	mov    %eax,-0x146c(%rbp)
    a55b:	b8 14 52 02 12       	mov    $0x12025214,%eax
    a560:	83 f8 01             	cmp    $0x1,%eax
    a563:	0f 9e c0             	setle  %al
    a566:	0f b6 d0             	movzbl %al,%edx
    a569:	8b 05 d9 74 00 00    	mov    0x74d9(%rip),%eax        # 11a48 <l_2288.4404>
    a56f:	39 c2                	cmp    %eax,%edx
    a571:	0f 94 c0             	sete   %al
    a574:	0f b6 c0             	movzbl %al,%eax
    a577:	be 32 74 27 9c       	mov    $0x9c277432,%esi
    a57c:	89 c7                	mov    %eax,%edi
    a57e:	e8 49 d1 ff ff       	callq  76cc <safe_mod_func_int32_t_s_s>
    a583:	0f b7 c0             	movzwl %ax,%eax
    a586:	be 04 00 00 00       	mov    $0x4,%esi
    a58b:	89 c7                	mov    %eax,%edi
    a58d:	e8 e8 d8 ff ff       	callq  7e7a <safe_rshift_func_uint16_t_u_u>
    a592:	98                   	cwtl   
    a593:	8b b5 94 eb ff ff    	mov    -0x146c(%rbp),%esi
    a599:	89 c7                	mov    %eax,%edi
    a59b:	e8 55 ce ff ff       	callq  73f5 <safe_mul_func_int16_t_s_s>
    a5a0:	8b 85 b0 eb ff ff    	mov    -0x1450(%rbp),%eax
    a5a6:	98                   	cwtl   
    a5a7:	89 c6                	mov    %eax,%esi
    a5a9:	bf 07 00 00 00       	mov    $0x7,%edi
    a5ae:	e8 42 ce ff ff       	callq  73f5 <safe_mul_func_int16_t_s_s>
    a5b3:	98                   	cwtl   
    a5b4:	44 89 fe             	mov    %r15d,%esi
    a5b7:	89 c7                	mov    %eax,%edi
    a5b9:	e8 f8 cf ff ff       	callq  75b6 <safe_add_func_int32_t_s_s>
    a5be:	44 89 f6             	mov    %r14d,%esi
    a5c1:	89 c7                	mov    %eax,%edi
    a5c3:	e8 37 d1 ff ff       	callq  76ff <safe_div_func_int32_t_s_s>
    a5c8:	85 c0                	test   %eax,%eax
    a5ca:	74 11                	je     a5dd <func_65+0xdf2>
    a5cc:	48 83 bd f0 ec ff ff 	cmpq   $0x0,-0x1310(%rbp)
    a5d3:	00 
    a5d4:	74 07                	je     a5dd <func_65+0xdf2>
    a5d6:	b8 01 00 00 00       	mov    $0x1,%eax
    a5db:	eb 05                	jmp    a5e2 <func_65+0xdf7>
    a5dd:	b8 00 00 00 00       	mov    $0x0,%eax
    a5e2:	48 98                	cltq   
    a5e4:	48 89 05 7d aa 00 00 	mov    %rax,0xaa7d(%rip)        # 15068 <g_14>
    a5eb:	48 8b 05 76 aa 00 00 	mov    0xaa76(%rip),%rax        # 15068 <g_14>
    a5f2:	48 39 85 98 eb ff ff 	cmp    %rax,-0x1468(%rbp)
    a5f9:	75 0a                	jne    a605 <func_65+0xe1a>
    a5fb:	0f b7 85 c4 ed ff ff 	movzwl -0x123c(%rbp),%eax
    a602:	66 85 c0             	test   %ax,%ax
    a605:	48 8b 15 54 dc 00 00 	mov    0xdc54(%rip),%rdx        # 18260 <g_2268>
    a60c:	48 8b 85 18 ed ff ff 	mov    -0x12e8(%rbp),%rax
    a613:	48 89 10             	mov    %rdx,(%rax)
    a616:	48 8b 85 18 ed ff ff 	mov    -0x12e8(%rbp),%rax
    a61d:	48 8b 00             	mov    (%rax),%rax
    a620:	48 85 c0             	test   %rax,%rax
    a623:	0f 95 c0             	setne  %al
    a626:	0f b6 c0             	movzbl %al,%eax
    a629:	44 89 ee             	mov    %r13d,%esi
    a62c:	89 c7                	mov    %eax,%edi
    a62e:	e8 a0 cd ff ff       	callq  73d3 <safe_sub_func_int16_t_s_s>
    a633:	be 8f ff ff ff       	mov    $0xffffff8f,%esi
    a638:	bf f8 ff ff ff       	mov    $0xfffffff8,%edi
    a63d:	e8 d0 cb ff ff       	callq  7212 <safe_mul_func_int8_t_s_s>
    a642:	0f be c0             	movsbl %al,%eax
    a645:	be 0b 00 00 00       	mov    $0xb,%esi
    a64a:	89 c7                	mov    %eax,%edi
    a64c:	e8 d9 ce ff ff       	callq  752a <safe_rshift_func_int16_t_s_s>
    a651:	0f bf d0             	movswl %ax,%edx
    a654:	0f b7 85 b4 eb ff ff 	movzwl -0x144c(%rbp),%eax
    a65b:	39 c2                	cmp    %eax,%edx
    a65d:	0f 9e c0             	setle  %al
    a660:	0f b6 c0             	movzbl %al,%eax
    a663:	89 85 3c ec ff ff    	mov    %eax,-0x13c4(%rbp)
    a669:	48 8b 85 20 ed ff ff 	mov    -0x12e0(%rbp),%rax
    a670:	89 c2                	mov    %eax,%edx
    a672:	48 8b 85 e8 ec ff ff 	mov    -0x1318(%rbp),%rax
    a679:	88 10                	mov    %dl,(%rax)
    a67b:	48 8b 85 e8 ec ff ff 	mov    -0x1318(%rbp),%rax
    a682:	0f b6 00             	movzbl (%rax),%eax
    a685:	0f b6 c0             	movzbl %al,%eax
    a688:	66 39 85 b4 eb ff ff 	cmp    %ax,-0x144c(%rbp)
    a68f:	74 0a                	je     a69b <func_65+0xeb0>
    a691:	8b 85 b0 eb ff ff    	mov    -0x1450(%rbp),%eax
    a697:	85 c0                	test   %eax,%eax
    a699:	74 07                	je     a6a2 <func_65+0xeb7>
    a69b:	b8 01 00 00 00       	mov    $0x1,%eax
    a6a0:	eb 05                	jmp    a6a7 <func_65+0xebc>
    a6a2:	b8 00 00 00 00       	mov    $0x0,%eax
    a6a7:	f7 d0                	not    %eax
    a6a9:	0f be c0             	movsbl %al,%eax
    a6ac:	44 89 e6             	mov    %r12d,%esi
    a6af:	89 c7                	mov    %eax,%edi
    a6b1:	e8 3c cb ff ff       	callq  71f2 <safe_sub_func_int8_t_s_s>
    a6b6:	80 bd ac eb ff ff 01 	cmpb   $0x1,-0x1454(%rbp)
    a6bd:	0f 97 c0             	seta   %al
    a6c0:	0f b6 c0             	movzbl %al,%eax
    a6c3:	8b b5 a8 eb ff ff    	mov    -0x1458(%rbp),%esi
    a6c9:	89 c7                	mov    %eax,%edi
    a6cb:	e8 ee d6 ff ff       	callq  7dbe <safe_lshift_func_uint16_t_u_s>
    a6d0:	98                   	cwtl   
    a6d1:	89 de                	mov    %ebx,%esi
    a6d3:	89 c7                	mov    %eax,%edi
    a6d5:	e8 d9 cc ff ff       	callq  73b3 <safe_add_func_int16_t_s_s>
    a6da:	48 8b 05 7f d0 00 00 	mov    0xd07f(%rip),%rax        # 17760 <g_582>
    a6e1:	48 8b 00             	mov    (%rax),%rax
    a6e4:	0f b6 00             	movzbl (%rax),%eax
    a6e7:	0f b6 c0             	movzbl %al,%eax
    a6ea:	be 00 00 00 00       	mov    $0x0,%esi
    a6ef:	89 c7                	mov    %eax,%edi
    a6f1:	e8 64 d4 ff ff       	callq  7b5a <safe_add_func_uint8_t_u_u>
    a6f6:	84 c0                	test   %al,%al
    a6f8:	0f 84 13 06 00 00    	je     ad11 <func_65+0x1526>
    a6fe:	48 8d 85 a8 ec ff ff 	lea    -0x1358(%rbp),%rax
    a705:	48 89 85 70 ee ff ff 	mov    %rax,-0x1190(%rbp)
    a70c:	48 8d 85 a8 ec ff ff 	lea    -0x1358(%rbp),%rax
    a713:	48 89 85 78 ee ff ff 	mov    %rax,-0x1188(%rbp)
    a71a:	48 8d 85 a8 ec ff ff 	lea    -0x1358(%rbp),%rax
    a721:	48 89 85 80 ee ff ff 	mov    %rax,-0x1180(%rbp)
    a728:	48 8d 85 a8 ec ff ff 	lea    -0x1358(%rbp),%rax
    a72f:	48 89 85 88 ee ff ff 	mov    %rax,-0x1178(%rbp)
    a736:	48 8d 85 a8 ec ff ff 	lea    -0x1358(%rbp),%rax
    a73d:	48 89 85 90 ee ff ff 	mov    %rax,-0x1170(%rbp)
    a744:	48 8d 85 a8 ec ff ff 	lea    -0x1358(%rbp),%rax
    a74b:	48 89 85 98 ee ff ff 	mov    %rax,-0x1168(%rbp)
    a752:	c7 85 48 ec ff ff 08 	movl   $0x8,-0x13b8(%rbp)
    a759:	00 00 00 
    a75c:	48 8d 05 95 a9 00 00 	lea    0xa995(%rip),%rax        # 150f8 <g_108>
    a763:	48 89 85 48 ed ff ff 	mov    %rax,-0x12b8(%rbp)
    a76a:	48 8d 05 f7 a8 00 00 	lea    0xa8f7(%rip),%rax        # 15068 <g_14>
    a771:	48 89 85 50 ed ff ff 	mov    %rax,-0x12b0(%rbp)
    a778:	48 c7 85 58 ed ff ff 	movq   $0x0,-0x12a8(%rbp)
    a77f:	00 00 00 00 
    a783:	48 8d 05 4e da 00 00 	lea    0xda4e(%rip),%rax        # 181d8 <g_2011>
    a78a:	48 89 85 60 ed ff ff 	mov    %rax,-0x12a0(%rbp)
    a791:	c7 85 e8 eb ff ff 00 	movl   $0x0,-0x1418(%rbp)
    a798:	00 00 00 
    a79b:	eb 1a                	jmp    a7b7 <func_65+0xfcc>
    a79d:	8b 85 e8 eb ff ff    	mov    -0x1418(%rbp),%eax
    a7a3:	48 98                	cltq   
    a7a5:	c7 84 85 e0 ed ff ff 	movl   $0x1380ab54,-0x1220(%rbp,%rax,4)
    a7ac:	54 ab 80 13 
    a7b0:	83 85 e8 eb ff ff 01 	addl   $0x1,-0x1418(%rbp)
    a7b7:	83 bd e8 eb ff ff 00 	cmpl   $0x0,-0x1418(%rbp)
    a7be:	7e dd                	jle    a79d <func_65+0xfb2>
    a7c0:	0f b6 9d ac eb ff ff 	movzbl -0x1454(%rbp),%ebx
    a7c7:	44 0f b6 a5 ac eb ff 	movzbl -0x1454(%rbp),%r12d
    a7ce:	ff 
    a7cf:	48 83 bd 28 ed ff ff 	cmpq   $0x0,-0x12d8(%rbp)
    a7d6:	00 
    a7d7:	0f 95 c0             	setne  %al
    a7da:	0f b6 c8             	movzbl %al,%ecx
    a7dd:	48 8b 15 24 d3 00 00 	mov    0xd324(%rip),%rdx        # 17b08 <g_1660>
    a7e4:	48 8b 05 1d d3 00 00 	mov    0xd31d(%rip),%rax        # 17b08 <g_1660>
    a7eb:	48 8b 12             	mov    (%rdx),%rdx
    a7ee:	48 89 10             	mov    %rdx,(%rax)
    a7f1:	c7 85 48 ec ff ff 00 	movl   $0x0,-0x13b8(%rbp)
    a7f8:	00 00 00 
    a7fb:	8b 85 48 ec ff ff    	mov    -0x13b8(%rbp),%eax
    a801:	21 c8                	and    %ecx,%eax
    a803:	0f b7 c0             	movzwl %ax,%eax
    a806:	be 66 f6 00 00       	mov    $0xf666,%esi
    a80b:	89 c7                	mov    %eax,%edi
    a80d:	e8 2b d5 ff ff       	callq  7d3d <safe_mul_func_uint16_t_u_u>
    a812:	0f b7 d0             	movzwl %ax,%edx
    a815:	48 8b 85 a8 ec ff ff 	mov    -0x1358(%rbp),%rax
    a81c:	48 89 85 a8 ec ff ff 	mov    %rax,-0x1358(%rbp)
    a823:	48 8b 85 a8 ec ff ff 	mov    -0x1358(%rbp),%rax
    a82a:	48 89 85 f8 ec ff ff 	mov    %rax,-0x1308(%rbp)
    a831:	48 8b 05 a0 da 00 00 	mov    0xdaa0(%rip),%rax        # 182d8 <g_2306+0x58>
    a838:	48 39 85 f8 ec ff ff 	cmp    %rax,-0x1308(%rbp)
    a83f:	0f 95 c0             	setne  %al
    a842:	0f b6 c0             	movzbl %al,%eax
    a845:	66 89 05 b8 aa 00 00 	mov    %ax,0xaab8(%rip)        # 15304 <g_620>
    a84c:	0f b7 05 b1 aa 00 00 	movzwl 0xaab1(%rip),%eax        # 15304 <g_620>
    a853:	0f b7 c0             	movzwl %ax,%eax
    a856:	89 d6                	mov    %edx,%esi
    a858:	89 c7                	mov    %eax,%edi
    a85a:	e8 a7 d5 ff ff       	callq  7e06 <safe_lshift_func_uint16_t_u_u>
    a85f:	0f b7 d0             	movzwl %ax,%edx
    a862:	8b 85 e0 ed ff ff    	mov    -0x1220(%rbp),%eax
    a868:	48 98                	cltq   
    a86a:	48 31 d0             	xor    %rdx,%rax
    a86d:	48 83 f0 fa          	xor    $0xfffffffffffffffa,%rax
    a871:	48 89 c2             	mov    %rax,%rdx
    a874:	48 8b 05 a5 cf 00 00 	mov    0xcfa5(%rip),%rax        # 17820 <g_1209>
    a87b:	8b 00                	mov    (%rax),%eax
    a87d:	48 98                	cltq   
    a87f:	48 39 c2             	cmp    %rax,%rdx
    a882:	c7 85 e0 ed ff ff 00 	movl   $0x0,-0x1220(%rbp)
    a889:	00 00 00 
    a88c:	8b 85 e0 ed ff ff    	mov    -0x1220(%rbp),%eax
    a892:	89 c2                	mov    %eax,%edx
    a894:	0f b7 85 b4 eb ff ff 	movzwl -0x144c(%rbp),%eax
    a89b:	09 d0                	or     %edx,%eax
    a89d:	66 89 85 b4 eb ff ff 	mov    %ax,-0x144c(%rbp)
    a8a4:	0f b7 85 b4 eb ff ff 	movzwl -0x144c(%rbp),%eax
    a8ab:	be 9e 2d 00 00       	mov    $0x2d9e,%esi
    a8b0:	89 c7                	mov    %eax,%edi
    a8b2:	e8 d7 d4 ff ff       	callq  7d8e <safe_div_func_uint16_t_u_u>
    a8b7:	0f b7 c0             	movzwl %ax,%eax
    a8ba:	4c 89 e6             	mov    %r12,%rsi
    a8bd:	48 89 c7             	mov    %rax,%rdi
    a8c0:	e8 7c cf ff ff       	callq  7841 <safe_add_func_int64_t_s_s>
    a8c5:	89 c2                	mov    %eax,%edx
    a8c7:	48 8b 85 48 ed ff ff 	mov    -0x12b8(%rbp),%rax
    a8ce:	66 89 10             	mov    %dx,(%rax)
    a8d1:	48 8b 85 48 ed ff ff 	mov    -0x12b8(%rbp),%rax
    a8d8:	0f b7 00             	movzwl (%rax),%eax
    a8db:	98                   	cwtl   
    a8dc:	89 de                	mov    %ebx,%esi
    a8de:	89 c7                	mov    %eax,%edi
    a8e0:	e8 ee ca ff ff       	callq  73d3 <safe_sub_func_int16_t_s_s>
    a8e5:	48 8b 05 34 cf 00 00 	mov    0xcf34(%rip),%rax        # 17820 <g_1209>
    a8ec:	8b 00                	mov    (%rax),%eax
    a8ee:	85 c0                	test   %eax,%eax
    a8f0:	0f 84 2d 01 00 00    	je     aa23 <func_65+0x1238>
    a8f6:	48 8d 85 a0 ec ff ff 	lea    -0x1360(%rbp),%rax
    a8fd:	48 89 85 70 ed ff ff 	mov    %rax,-0x1290(%rbp)
    a904:	c7 85 4c ec ff ff ff 	movl   $0xffffffff,-0x13b4(%rbp)
    a90b:	ff ff ff 
    a90e:	48 8b 05 0b cf 00 00 	mov    0xcf0b(%rip),%rax        # 17820 <g_1209>
    a915:	0f b6 95 c0 eb ff ff 	movzbl -0x1440(%rbp),%edx
    a91c:	89 10                	mov    %edx,(%rax)
    a91e:	48 8b 05 a3 cd 00 00 	mov    0xcda3(%rip),%rax        # 176c8 <g_20>
    a925:	48 8b 95 a0 eb ff ff 	mov    -0x1460(%rbp),%rdx
    a92c:	48 8b 12             	mov    (%rdx),%rdx
    a92f:	48 89 10             	mov    %rdx,(%rax)
    a932:	48 8b 05 df ce 00 00 	mov    0xcedf(%rip),%rax        # 17818 <g_1206>
    a939:	8b 00                	mov    (%rax),%eax
    a93b:	85 c0                	test   %eax,%eax
    a93d:	74 0d                	je     a94c <func_65+0x1161>
    a93f:	8b 85 b0 eb ff ff    	mov    -0x1450(%rbp),%eax
    a945:	89 c0                	mov    %eax,%eax
    a947:	e9 4c 15 00 00       	jmpq   be98 <func_65+0x26ad>
    a94c:	48 8d 85 c0 f4 ff ff 	lea    -0xb40(%rbp),%rax
    a953:	48 8d 15 e6 68 00 00 	lea    0x68e6(%rip),%rdx        # 11240 <g_2821+0x1b8>
    a95a:	b9 80 00 00 00       	mov    $0x80,%ecx
    a95f:	48 89 c7             	mov    %rax,%rdi
    a962:	48 89 d6             	mov    %rdx,%rsi
    a965:	f3 48 a5             	rep movsq %ds:(%rsi),%es:(%rdi)
    a968:	c7 85 50 ec ff ff 00 	movl   $0x0,-0x13b0(%rbp)
    a96f:	00 00 00 
    a972:	81 bd 4c ec ff ff 78 	cmpl   $0x3a78,-0x13b4(%rbp)
    a979:	3a 00 00 
    a97c:	0f 94 c0             	sete   %al
    a97f:	0f b6 c0             	movzbl %al,%eax
    a982:	89 85 4c ec ff ff    	mov    %eax,-0x13b4(%rbp)
    a988:	8b 85 d0 f7 ff ff    	mov    -0x830(%rbp),%eax
    a98e:	0f b7 d0             	movzwl %ax,%edx
    a991:	48 8b 85 70 ed ff ff 	mov    -0x1290(%rbp),%rax
    a998:	48 3b 85 f8 ec ff ff 	cmp    -0x1308(%rbp),%rax
    a99f:	0f 94 c0             	sete   %al
    a9a2:	0f b6 c0             	movzbl %al,%eax
    a9a5:	89 d6                	mov    %edx,%esi
    a9a7:	89 c7                	mov    %eax,%edi
    a9a9:	e8 ae d3 ff ff       	callq  7d5c <safe_mod_func_uint16_t_u_u>
    a9ae:	48 8b 15 6b ce 00 00 	mov    0xce6b(%rip),%rdx        # 17820 <g_1209>
    a9b5:	8b 0a                	mov    (%rdx),%ecx
    a9b7:	0f b7 d0             	movzwl %ax,%edx
    a9ba:	48 8b 05 5f ce 00 00 	mov    0xce5f(%rip),%rax        # 17820 <g_1209>
    a9c1:	31 ca                	xor    %ecx,%edx
    a9c3:	89 10                	mov    %edx,(%rax)
    a9c5:	83 bd 4c ec ff ff 00 	cmpl   $0x0,-0x13b4(%rbp)
    a9cc:	0f 85 af 13 00 00    	jne    bd81 <func_65+0x2596>
    a9d2:	83 ad 50 ec ff ff 01 	subl   $0x1,-0x13b0(%rbp)
    a9d9:	0f b7 9d b4 eb ff ff 	movzwl -0x144c(%rbp),%ebx
    a9e0:	8b 95 4c ec ff ff    	mov    -0x13b4(%rbp),%edx
    a9e6:	8b 85 b0 eb ff ff    	mov    -0x1450(%rbp),%eax
    a9ec:	89 d6                	mov    %edx,%esi
    a9ee:	89 c7                	mov    %eax,%edi
    a9f0:	e8 08 d5 ff ff       	callq  7efd <safe_mod_func_uint32_t_u_u>
    a9f5:	89 c0                	mov    %eax,%eax
    a9f7:	48 89 de             	mov    %rbx,%rsi
    a9fa:	48 89 c7             	mov    %rax,%rdi
    a9fd:	e8 ad d6 ff ff       	callq  80af <safe_div_func_uint64_t_u_u>
    aa02:	89 c2                	mov    %eax,%edx
    aa04:	8b 85 4c ec ff ff    	mov    -0x13b4(%rbp),%eax
    aa0a:	21 d0                	and    %edx,%eax
    aa0c:	89 85 c0 f5 ff ff    	mov    %eax,-0xa40(%rbp)
    aa12:	8b 05 e0 ac 00 00    	mov    0xace0(%rip),%eax        # 156f8 <g_2331>
    aa18:	89 05 da ac 00 00    	mov    %eax,0xacda(%rip)        # 156f8 <g_2331>
    aa1e:	e9 1d 01 00 00       	jmpq   ab40 <func_65+0x1355>
    aa23:	48 8d 05 4e a6 00 00 	lea    0xa64e(%rip),%rax        # 15078 <g_17>
    aa2a:	48 89 85 68 ed ff ff 	mov    %rax,-0x1298(%rbp)
    aa31:	48 83 bd 20 ed ff ff 	cmpq   $0x0,-0x12e0(%rbp)
    aa38:	00 
    aa39:	0f 85 35 14 00 00    	jne    be74 <func_65+0x2689>
    aa3f:	48 8b 05 1a cd 00 00 	mov    0xcd1a(%rip),%rax        # 17760 <g_582>
    aa46:	48 8b 00             	mov    (%rax),%rax
    aa49:	0f b6 00             	movzbl (%rax),%eax
    aa4c:	44 0f b6 e8          	movzbl %al,%r13d
    aa50:	8b 85 b0 eb ff ff    	mov    -0x1450(%rbp),%eax
    aa56:	0f bf d8             	movswl %ax,%ebx
    aa59:	80 bd ac eb ff ff 00 	cmpb   $0x0,-0x1454(%rbp)
    aa60:	74 4d                	je     aaaf <func_65+0x12c4>
    aa62:	0f b7 85 b4 eb ff ff 	movzwl -0x144c(%rbp),%eax
    aa69:	0f b6 c0             	movzbl %al,%eax
    aa6c:	be 02 00 00 00       	mov    $0x2,%esi
    aa71:	89 c7                	mov    %eax,%edi
    aa73:	e8 15 d2 ff ff       	callq  7c8d <safe_rshift_func_uint8_t_u_s>
    aa78:	44 8b a5 48 ec ff ff 	mov    -0x13b8(%rbp),%r12d
    aa7f:	8b 85 e0 ed ff ff    	mov    -0x1220(%rbp),%eax
    aa85:	0f b6 c0             	movzbl %al,%eax
    aa88:	be 03 00 00 00       	mov    $0x3,%esi
    aa8d:	89 c7                	mov    %eax,%edi
    aa8f:	e8 f9 d1 ff ff       	callq  7c8d <safe_rshift_func_uint8_t_u_s>
    aa94:	0f b6 c0             	movzbl %al,%eax
    aa97:	44 89 e6             	mov    %r12d,%esi
    aa9a:	89 c7                	mov    %eax,%edi
    aa9c:	e8 40 ca ff ff       	callq  74e1 <safe_lshift_func_int16_t_s_u>
    aaa1:	48 8d 05 50 d0 00 00 	lea    0xd050(%rip),%rax        # 17af8 <g_1560>
    aaa8:	48 39 85 d0 ec ff ff 	cmp    %rax,-0x1330(%rbp)
    aaaf:	66 c7 85 b4 eb ff ff 	movw   $0x1,-0x144c(%rbp)
    aab6:	01 00 
    aab8:	8b 85 b0 eb ff ff    	mov    -0x1450(%rbp),%eax
    aabe:	83 f8 01             	cmp    $0x1,%eax
    aac1:	0f 97 c0             	seta   %al
    aac4:	0f b6 c0             	movzbl %al,%eax
    aac7:	89 de                	mov    %ebx,%esi
    aac9:	89 c7                	mov    %eax,%edi
    aacb:	e8 03 c9 ff ff       	callq  73d3 <safe_sub_func_int16_t_s_s>
    aad0:	66 3d c6 65          	cmp    $0x65c6,%ax
    aad4:	0f 9e c0             	setle  %al
    aad7:	0f b6 c0             	movzbl %al,%eax
    aada:	41 39 c5             	cmp    %eax,%r13d
    aadd:	b9 01 00 00 00       	mov    $0x1,%ecx
    aae2:	48 8b 85 68 ed ff ff 	mov    -0x1298(%rbp),%rax
    aae9:	48 8b 10             	mov    (%rax),%rdx
    aaec:	48 63 c1             	movslq %ecx,%rax
    aaef:	48 09 c2             	or     %rax,%rdx
    aaf2:	48 8b 85 68 ed ff ff 	mov    -0x1298(%rbp),%rax
    aaf9:	48 89 10             	mov    %rdx,(%rax)
    aafc:	48 8b 05 1d cd 00 00 	mov    0xcd1d(%rip),%rax        # 17820 <g_1209>
    ab03:	c7 00 84 18 9e b2    	movl   $0xb29e1884,(%rax)
    ab09:	c7 85 30 ee ff ff 89 	movl   $0xeca67189,-0x11d0(%rbp)
    ab10:	71 a6 ec 
    ab13:	c6 85 c0 eb ff ff 00 	movb   $0x0,-0x1440(%rbp)
    ab1a:	eb 1b                	jmp    ab37 <func_65+0x134c>
    ab1c:	48 8b 85 a0 eb ff ff 	mov    -0x1460(%rbp),%rax
    ab23:	48 8b 10             	mov    (%rax),%rdx
    ab26:	48 8b 85 a0 eb ff ff 	mov    -0x1460(%rbp),%rax
    ab2d:	48 89 10             	mov    %rdx,(%rax)
    ab30:	80 85 c0 eb ff ff 01 	addb   $0x1,-0x1440(%rbp)
    ab37:	80 bd c0 eb ff ff 00 	cmpb   $0x0,-0x1440(%rbp)
    ab3e:	74 dc                	je     ab1c <func_65+0x1331>
    ab40:	8b 85 2c ee ff ff    	mov    -0x11d4(%rbp),%eax
    ab46:	89 85 e0 ed ff ff    	mov    %eax,-0x1220(%rbp)
    ab4c:	8b 85 b0 eb ff ff    	mov    -0x1450(%rbp),%eax
    ab52:	0f b7 d8             	movzwl %ax,%ebx
    ab55:	8b 85 e0 ed ff ff    	mov    -0x1220(%rbp),%eax
    ab5b:	89 c6                	mov    %eax,%esi
    ab5d:	bf b0 69 00 00       	mov    $0x69b0,%edi
    ab62:	e8 c3 c9 ff ff       	callq  752a <safe_rshift_func_int16_t_s_s>
    ab67:	48 8b 85 d0 ef ff ff 	mov    -0x1030(%rbp),%rax
    ab6e:	48 89 85 60 ed ff ff 	mov    %rax,-0x12a0(%rbp)
    ab75:	48 8b 85 d0 ef ff ff 	mov    -0x1030(%rbp),%rax
    ab7c:	48 39 85 60 ed ff ff 	cmp    %rax,-0x12a0(%rbp)
    ab83:	0f 94 c2             	sete   %dl
    ab86:	48 8b 05 93 cc 00 00 	mov    0xcc93(%rip),%rax        # 17820 <g_1209>
    ab8d:	0f b6 d2             	movzbl %dl,%edx
    ab90:	89 10                	mov    %edx,(%rax)
    ab92:	8b 00                	mov    (%rax),%eax
    ab94:	89 85 08 ec ff ff    	mov    %eax,-0x13f8(%rbp)
    ab9a:	83 bd 08 ec ff ff 00 	cmpl   $0x0,-0x13f8(%rbp)
    aba1:	0f 84 e2 00 00 00    	je     ac89 <func_65+0x149e>
    aba7:	8b 85 b0 eb ff ff    	mov    -0x1450(%rbp),%eax
    abad:	41 89 c6             	mov    %eax,%r14d
    abb0:	44 0f b6 a5 ac eb ff 	movzbl -0x1454(%rbp),%r12d
    abb7:	ff 
    abb8:	44 8b 2d 89 6e 00 00 	mov    0x6e89(%rip),%r13d        # 11a48 <l_2288.4404>
    abbf:	48 8b 85 b8 eb ff ff 	mov    -0x1448(%rbp),%rax
    abc6:	0f b6 00             	movzbl (%rax),%eax
    abc9:	0f b6 d0             	movzbl %al,%edx
    abcc:	b8 00 00 00 00       	mov    $0x0,%eax
    abd1:	84 c0                	test   %al,%al
    abd3:	75 09                	jne    abde <func_65+0x13f3>
    abd5:	80 bd c1 eb ff ff 00 	cmpb   $0x0,-0x143f(%rbp)
    abdc:	74 07                	je     abe5 <func_65+0x13fa>
    abde:	b8 01 00 00 00       	mov    $0x1,%eax
    abe3:	eb 05                	jmp    abea <func_65+0x13ff>
    abe5:	b8 00 00 00 00       	mov    $0x0,%eax
    abea:	89 c1                	mov    %eax,%ecx
    abec:	48 8b 85 e8 ec ff ff 	mov    -0x1318(%rbp),%rax
    abf3:	88 08                	mov    %cl,(%rax)
    abf5:	48 8b 85 e8 ec ff ff 	mov    -0x1318(%rbp),%rax
    abfc:	0f b6 00             	movzbl (%rax),%eax
    abff:	84 c0                	test   %al,%al
    ac01:	75 0e                	jne    ac11 <func_65+0x1426>
    ac03:	48 8b 05 4e cb 00 00 	mov    0xcb4e(%rip),%rax        # 17758 <g_583>
    ac0a:	0f b6 00             	movzbl (%rax),%eax
    ac0d:	84 c0                	test   %al,%al
    ac0f:	74 07                	je     ac18 <func_65+0x142d>
    ac11:	b8 01 00 00 00       	mov    $0x1,%eax
    ac16:	eb 05                	jmp    ac1d <func_65+0x1432>
    ac18:	b8 00 00 00 00       	mov    $0x0,%eax
    ac1d:	0f b6 c0             	movzbl %al,%eax
    ac20:	89 d6                	mov    %edx,%esi
    ac22:	89 c7                	mov    %eax,%edi
    ac24:	e8 6a cf ff ff       	callq  7b93 <safe_mul_func_uint8_t_u_u>
    ac29:	0f be c0             	movsbl %al,%eax
    ac2c:	44 89 ee             	mov    %r13d,%esi
    ac2f:	89 c7                	mov    %eax,%edi
    ac31:	e8 6b c6 ff ff       	callq  72a1 <safe_lshift_func_int8_t_s_s>
    ac36:	8b 85 b0 eb ff ff    	mov    -0x1450(%rbp),%eax
    ac3c:	3d 62 dd ca 70       	cmp    $0x70cadd62,%eax
    ac41:	0f 96 c0             	setbe  %al
    ac44:	0f b6 c0             	movzbl %al,%eax
    ac47:	44 89 e6             	mov    %r12d,%esi
    ac4a:	89 c7                	mov    %eax,%edi
    ac4c:	e8 ce d0 ff ff       	callq  7d1f <safe_sub_func_uint16_t_u_u>
    ac51:	0f b7 d0             	movzwl %ax,%edx
    ac54:	8b 85 e0 ed ff ff    	mov    -0x1220(%rbp),%eax
    ac5a:	39 c2                	cmp    %eax,%edx
    ac5c:	7d 11                	jge    ac6f <func_65+0x1484>
    ac5e:	8b 85 b0 eb ff ff    	mov    -0x1450(%rbp),%eax
    ac64:	85 c0                	test   %eax,%eax
    ac66:	74 07                	je     ac6f <func_65+0x1484>
    ac68:	b8 01 00 00 00       	mov    $0x1,%eax
    ac6d:	eb 05                	jmp    ac74 <func_65+0x1489>
    ac6f:	b8 00 00 00 00       	mov    $0x0,%eax
    ac74:	44 89 f6             	mov    %r14d,%esi
    ac77:	89 c7                	mov    %eax,%edi
    ac79:	e8 87 c9 ff ff       	callq  7605 <safe_sub_func_int32_t_s_s>
    ac7e:	85 c0                	test   %eax,%eax
    ac80:	74 07                	je     ac89 <func_65+0x149e>
    ac82:	b8 01 00 00 00       	mov    $0x1,%eax
    ac87:	eb 05                	jmp    ac8e <func_65+0x14a3>
    ac89:	b8 00 00 00 00       	mov    $0x0,%eax
    ac8e:	48 63 d0             	movslq %eax,%rdx
    ac91:	0f b7 05 6c a6 00 00 	movzwl 0xa66c(%rip),%eax        # 15304 <g_620>
    ac98:	8d 48 ff             	lea    -0x1(%rax),%ecx
    ac9b:	66 89 0d 62 a6 00 00 	mov    %cx,0xa662(%rip)        # 15304 <g_620>
    aca2:	66 85 c0             	test   %ax,%ax
    aca5:	74 07                	je     acae <func_65+0x14c3>
    aca7:	b8 01 00 00 00       	mov    $0x1,%eax
    acac:	eb 05                	jmp    acb3 <func_65+0x14c8>
    acae:	b8 00 00 00 00       	mov    $0x0,%eax
    acb3:	48 63 c8             	movslq %eax,%rcx
    acb6:	48 8b 85 50 ed ff ff 	mov    -0x12b0(%rbp),%rax
    acbd:	48 89 08             	mov    %rcx,(%rax)
    acc0:	48 8b 85 50 ed ff ff 	mov    -0x12b0(%rbp),%rax
    acc7:	48 8b 00             	mov    (%rax),%rax
    acca:	48 89 d6             	mov    %rdx,%rsi
    accd:	48 89 c7             	mov    %rax,%rdi
    acd0:	e8 22 cd ff ff       	callq  79f7 <safe_div_func_int64_t_s_s>
    acd5:	8b 95 b0 eb ff ff    	mov    -0x1450(%rbp),%edx
    acdb:	89 d2                	mov    %edx,%edx
    acdd:	48 39 d0             	cmp    %rdx,%rax
    ace0:	7c 07                	jl     ace9 <func_65+0x14fe>
    ace2:	b8 ab 0c 00 00       	mov    $0xcab,%eax
    ace7:	eb 05                	jmp    acee <func_65+0x1503>
    ace9:	b8 aa 0c 00 00       	mov    $0xcaa,%eax
    acee:	be 16 15 00 00       	mov    $0x1516,%esi
    acf3:	89 c7                	mov    %eax,%edi
    acf5:	e8 1c c7 ff ff       	callq  7416 <safe_mod_func_int16_t_s_s>
    acfa:	89 de                	mov    %ebx,%esi
    acfc:	bf 00 00 00 00       	mov    $0x0,%edi
    ad01:	e8 88 d0 ff ff       	callq  7d8e <safe_div_func_uint16_t_u_u>
    ad06:	0f b7 c0             	movzwl %ax,%eax
    ad09:	21 85 48 ec ff ff    	and    %eax,-0x13b8(%rbp)
    ad0f:	eb 66                	jmp    ad77 <func_65+0x158c>
    ad11:	48 b8 91 5a e4 ad 63 	movabs $0xc280563ade45a91,%rax
    ad18:	05 28 0c 
    ad1b:	48 89 85 40 ed ff ff 	mov    %rax,-0x12c0(%rbp)
    ad22:	0f b7 05 69 a9 00 00 	movzwl 0xa969(%rip),%eax        # 15692 <g_1355+0x2>
    ad29:	66 85 c0             	test   %ax,%ax
    ad2c:	0f 94 c0             	sete   %al
    ad2f:	0f b6 d0             	movzbl %al,%edx
    ad32:	48 81 8d 40 ed ff ff 	orq    $0xb2bc,-0x12c0(%rbp)
    ad39:	bc b2 00 00 
    ad3d:	48 8b 85 40 ed ff ff 	mov    -0x12c0(%rbp),%rax
    ad44:	8b 8d 30 ee ff ff    	mov    -0x11d0(%rbp),%ecx
    ad4a:	31 c8                	xor    %ecx,%eax
    ad4c:	89 85 30 ee ff ff    	mov    %eax,-0x11d0(%rbp)
    ad52:	8b 85 30 ee ff ff    	mov    -0x11d0(%rbp),%eax
    ad58:	89 c1                	mov    %eax,%ecx
    ad5a:	8b 85 40 ec ff ff    	mov    -0x13c0(%rbp),%eax
    ad60:	21 c8                	and    %ecx,%eax
    ad62:	0f b6 c0             	movzbl %al,%eax
    ad65:	89 d6                	mov    %edx,%esi
    ad67:	89 c7                	mov    %eax,%edi
    ad69:	e8 25 ce ff ff       	callq  7b93 <safe_mul_func_uint8_t_u_u>
    ad6e:	0f b6 c0             	movzbl %al,%eax
    ad71:	89 85 3c ec ff ff    	mov    %eax,-0x13c4(%rbp)
    ad77:	c6 05 76 a9 00 00 00 	movb   $0x0,0xa976(%rip)        # 156f4 <g_1948>
    ad7e:	e9 16 06 00 00       	jmpq   b399 <func_65+0x1bae>
    ad83:	48 c7 85 a0 ed ff ff 	movq   $0x0,-0x1260(%rbp)
    ad8a:	00 00 00 00 
    ad8e:	48 8d 05 f3 a2 00 00 	lea    0xa2f3(%rip),%rax        # 15088 <g_51>
    ad95:	48 89 85 a8 ed ff ff 	mov    %rax,-0x1258(%rbp)
    ad9c:	c7 85 84 ec ff ff ff 	movl   $0xffffffff,-0x137c(%rbp)
    ada3:	ff ff ff 
    ada6:	c7 85 88 ec ff ff 2c 	movl   $0xe27a8d2c,-0x1378(%rbp)
    adad:	8d 7a e2 
    adb0:	48 8d 85 b8 ec ff ff 	lea    -0x1348(%rbp),%rax
    adb7:	48 89 85 c0 f4 ff ff 	mov    %rax,-0xb40(%rbp)
    adbe:	48 8d 05 33 dd 00 00 	lea    0xdd33(%rip),%rax        # 18af8 <g_1661>
    adc5:	48 89 85 c8 f4 ff ff 	mov    %rax,-0xb38(%rbp)
    adcc:	48 8d 85 b8 ec ff ff 	lea    -0x1348(%rbp),%rax
    add3:	48 89 85 d0 f4 ff ff 	mov    %rax,-0xb30(%rbp)
    adda:	48 8d 05 17 dd 00 00 	lea    0xdd17(%rip),%rax        # 18af8 <g_1661>
    ade1:	48 89 85 d8 f4 ff ff 	mov    %rax,-0xb28(%rbp)
    ade8:	48 8d 85 b8 ec ff ff 	lea    -0x1348(%rbp),%rax
    adef:	48 89 85 e0 f4 ff ff 	mov    %rax,-0xb20(%rbp)
    adf6:	48 8d 85 b8 ec ff ff 	lea    -0x1348(%rbp),%rax
    adfd:	48 89 85 e8 f4 ff ff 	mov    %rax,-0xb18(%rbp)
    ae04:	48 8d 85 b8 ec ff ff 	lea    -0x1348(%rbp),%rax
    ae0b:	48 89 85 f0 f4 ff ff 	mov    %rax,-0xb10(%rbp)
    ae12:	48 8d 85 b8 ec ff ff 	lea    -0x1348(%rbp),%rax
    ae19:	48 89 85 f8 f4 ff ff 	mov    %rax,-0xb08(%rbp)
    ae20:	48 8d 85 b8 ec ff ff 	lea    -0x1348(%rbp),%rax
    ae27:	48 89 85 00 f5 ff ff 	mov    %rax,-0xb00(%rbp)
    ae2e:	48 8d 85 b8 ec ff ff 	lea    -0x1348(%rbp),%rax
    ae35:	48 89 85 08 f5 ff ff 	mov    %rax,-0xaf8(%rbp)
    ae3c:	48 8d 85 b8 ec ff ff 	lea    -0x1348(%rbp),%rax
    ae43:	48 89 85 10 f5 ff ff 	mov    %rax,-0xaf0(%rbp)
    ae4a:	48 8d 05 a7 dc 00 00 	lea    0xdca7(%rip),%rax        # 18af8 <g_1661>
    ae51:	48 89 85 18 f5 ff ff 	mov    %rax,-0xae8(%rbp)
    ae58:	48 8d 85 b8 ec ff ff 	lea    -0x1348(%rbp),%rax
    ae5f:	48 89 85 20 f5 ff ff 	mov    %rax,-0xae0(%rbp)
    ae66:	48 8d 05 8b dc 00 00 	lea    0xdc8b(%rip),%rax        # 18af8 <g_1661>
    ae6d:	48 89 85 28 f5 ff ff 	mov    %rax,-0xad8(%rbp)
    ae74:	48 8d 85 b8 ec ff ff 	lea    -0x1348(%rbp),%rax
    ae7b:	48 89 85 30 f5 ff ff 	mov    %rax,-0xad0(%rbp)
    ae82:	48 8d 85 b8 ec ff ff 	lea    -0x1348(%rbp),%rax
    ae89:	48 89 85 38 f5 ff ff 	mov    %rax,-0xac8(%rbp)
    ae90:	48 8d 85 b8 ec ff ff 	lea    -0x1348(%rbp),%rax
    ae97:	48 89 85 40 f5 ff ff 	mov    %rax,-0xac0(%rbp)
    ae9e:	48 8d 85 b8 ec ff ff 	lea    -0x1348(%rbp),%rax
    aea5:	48 89 85 48 f5 ff ff 	mov    %rax,-0xab8(%rbp)
    aeac:	48 8d 85 b8 ec ff ff 	lea    -0x1348(%rbp),%rax
    aeb3:	48 89 85 50 f5 ff ff 	mov    %rax,-0xab0(%rbp)
    aeba:	48 8d 85 b8 ec ff ff 	lea    -0x1348(%rbp),%rax
    aec1:	48 89 85 58 f5 ff ff 	mov    %rax,-0xaa8(%rbp)
    aec8:	48 8d 85 b8 ec ff ff 	lea    -0x1348(%rbp),%rax
    aecf:	48 89 85 60 f5 ff ff 	mov    %rax,-0xaa0(%rbp)
    aed6:	48 8d 05 1b dc 00 00 	lea    0xdc1b(%rip),%rax        # 18af8 <g_1661>
    aedd:	48 89 85 68 f5 ff ff 	mov    %rax,-0xa98(%rbp)
    aee4:	48 8d 85 b8 ec ff ff 	lea    -0x1348(%rbp),%rax
    aeeb:	48 89 85 70 f5 ff ff 	mov    %rax,-0xa90(%rbp)
    aef2:	48 8d 05 ff db 00 00 	lea    0xdbff(%rip),%rax        # 18af8 <g_1661>
    aef9:	48 89 85 78 f5 ff ff 	mov    %rax,-0xa88(%rbp)
    af00:	48 8d 85 b8 ec ff ff 	lea    -0x1348(%rbp),%rax
    af07:	48 89 85 80 f5 ff ff 	mov    %rax,-0xa80(%rbp)
    af0e:	48 8d 85 b8 ec ff ff 	lea    -0x1348(%rbp),%rax
    af15:	48 89 85 88 f5 ff ff 	mov    %rax,-0xa78(%rbp)
    af1c:	48 8d 85 b8 ec ff ff 	lea    -0x1348(%rbp),%rax
    af23:	48 89 85 90 f5 ff ff 	mov    %rax,-0xa70(%rbp)
    af2a:	48 8d 85 b8 ec ff ff 	lea    -0x1348(%rbp),%rax
    af31:	48 89 85 98 f5 ff ff 	mov    %rax,-0xa68(%rbp)
    af38:	48 8d 85 b8 ec ff ff 	lea    -0x1348(%rbp),%rax
    af3f:	48 89 85 a0 f5 ff ff 	mov    %rax,-0xa60(%rbp)
    af46:	48 8d 85 b8 ec ff ff 	lea    -0x1348(%rbp),%rax
    af4d:	48 89 85 a8 f5 ff ff 	mov    %rax,-0xa58(%rbp)
    af54:	48 8d 85 b8 ec ff ff 	lea    -0x1348(%rbp),%rax
    af5b:	48 89 85 b0 f5 ff ff 	mov    %rax,-0xa50(%rbp)
    af62:	48 8d 05 8f db 00 00 	lea    0xdb8f(%rip),%rax        # 18af8 <g_1661>
    af69:	48 89 85 b8 f5 ff ff 	mov    %rax,-0xa48(%rbp)
    af70:	48 8d 85 b8 ec ff ff 	lea    -0x1348(%rbp),%rax
    af77:	48 89 85 c0 f5 ff ff 	mov    %rax,-0xa40(%rbp)
    af7e:	48 8d 05 73 db 00 00 	lea    0xdb73(%rip),%rax        # 18af8 <g_1661>
    af85:	48 89 85 c8 f5 ff ff 	mov    %rax,-0xa38(%rbp)
    af8c:	48 8d 85 b8 ec ff ff 	lea    -0x1348(%rbp),%rax
    af93:	48 89 85 d0 f5 ff ff 	mov    %rax,-0xa30(%rbp)
    af9a:	48 8d 85 b8 ec ff ff 	lea    -0x1348(%rbp),%rax
    afa1:	48 89 85 d8 f5 ff ff 	mov    %rax,-0xa28(%rbp)
    afa8:	48 8d 85 b8 ec ff ff 	lea    -0x1348(%rbp),%rax
    afaf:	48 89 85 e0 f5 ff ff 	mov    %rax,-0xa20(%rbp)
    afb6:	48 8d 85 b8 ec ff ff 	lea    -0x1348(%rbp),%rax
    afbd:	48 89 85 e8 f5 ff ff 	mov    %rax,-0xa18(%rbp)
    afc4:	48 8d 85 b8 ec ff ff 	lea    -0x1348(%rbp),%rax
    afcb:	48 89 85 f0 f5 ff ff 	mov    %rax,-0xa10(%rbp)
    afd2:	48 8d 85 b8 ec ff ff 	lea    -0x1348(%rbp),%rax
    afd9:	48 89 85 f8 f5 ff ff 	mov    %rax,-0xa08(%rbp)
    afe0:	48 8d 85 b8 ec ff ff 	lea    -0x1348(%rbp),%rax
    afe7:	48 89 85 00 f6 ff ff 	mov    %rax,-0xa00(%rbp)
    afee:	48 8d 05 03 db 00 00 	lea    0xdb03(%rip),%rax        # 18af8 <g_1661>
    aff5:	48 89 85 08 f6 ff ff 	mov    %rax,-0x9f8(%rbp)
    affc:	48 8d 85 b8 ec ff ff 	lea    -0x1348(%rbp),%rax
    b003:	48 89 85 10 f6 ff ff 	mov    %rax,-0x9f0(%rbp)
    b00a:	48 8d 05 e7 da 00 00 	lea    0xdae7(%rip),%rax        # 18af8 <g_1661>
    b011:	48 89 85 18 f6 ff ff 	mov    %rax,-0x9e8(%rbp)
    b018:	48 8d 85 b8 ec ff ff 	lea    -0x1348(%rbp),%rax
    b01f:	48 89 85 20 f6 ff ff 	mov    %rax,-0x9e0(%rbp)
    b026:	48 8b 05 93 c7 00 00 	mov    0xc793(%rip),%rax        # 177c0 <g_855>
    b02d:	48 8b 10             	mov    (%rax),%rdx
    b030:	48 8b 05 91 c6 00 00 	mov    0xc691(%rip),%rax        # 176c8 <g_20>
    b037:	48 8b 12             	mov    (%rdx),%rdx
    b03a:	48 89 10             	mov    %rdx,(%rax)
    b03d:	8b 05 cd a0 00 00    	mov    0xa0cd(%rip),%eax        # 15110 <g_143>
    b043:	85 c0                	test   %eax,%eax
    b045:	74 05                	je     b04c <func_65+0x1861>
    b047:	e9 68 f3 ff ff       	jmpq   a3b4 <func_65+0xbc9>
    b04c:	8b 85 88 ec ff ff    	mov    -0x1378(%rbp),%eax
    b052:	0f b7 d0             	movzwl %ax,%edx
    b055:	80 bd ac eb ff ff 00 	cmpb   $0x0,-0x1454(%rbp)
    b05c:	0f 94 c0             	sete   %al
    b05f:	0f b6 c0             	movzbl %al,%eax
    b062:	89 d6                	mov    %edx,%esi
    b064:	89 c7                	mov    %eax,%edi
    b066:	e8 d2 cc ff ff       	callq  7d3d <safe_mul_func_uint16_t_u_u>
    b06b:	0f b7 d0             	movzwl %ax,%edx
    b06e:	0f b7 85 b4 eb ff ff 	movzwl -0x144c(%rbp),%eax
    b075:	89 d6                	mov    %edx,%esi
    b077:	89 c7                	mov    %eax,%edi
    b079:	e8 bf cc ff ff       	callq  7d3d <safe_mul_func_uint16_t_u_u>
    b07e:	0f b7 d0             	movzwl %ax,%edx
    b081:	8b 85 b0 eb ff ff    	mov    -0x1450(%rbp),%eax
    b087:	31 d0                	xor    %edx,%eax
    b089:	89 c2                	mov    %eax,%edx
    b08b:	0f b6 85 ac eb ff ff 	movzbl -0x1454(%rbp),%eax
    b092:	48 89 d6             	mov    %rdx,%rsi
    b095:	48 89 c7             	mov    %rax,%rdi
    b098:	e8 5a c9 ff ff       	callq  79f7 <safe_div_func_int64_t_s_s>
    b09d:	8b 15 a9 69 00 00    	mov    0x69a9(%rip),%edx        # 11a4c <l_2288.4404+0x4>
    b0a3:	48 63 d2             	movslq %edx,%rdx
    b0a6:	48 39 d0             	cmp    %rdx,%rax
    b0a9:	0f 9c c0             	setl   %al
    b0ac:	0f b6 d0             	movzbl %al,%edx
    b0af:	0f b6 05 52 a0 00 00 	movzbl 0xa052(%rip),%eax        # 15108 <g_113+0x5>
    b0b6:	0f b6 c0             	movzbl %al,%eax
    b0b9:	31 85 84 ec ff ff    	xor    %eax,-0x137c(%rbp)
    b0bf:	8b 85 84 ec ff ff    	mov    -0x137c(%rbp),%eax
    b0c5:	0f b7 c0             	movzwl %ax,%eax
    b0c8:	89 d6                	mov    %edx,%esi
    b0ca:	89 c7                	mov    %eax,%edi
    b0cc:	e8 6c cc ff ff       	callq  7d3d <safe_mul_func_uint16_t_u_u>
    b0d1:	0f b6 85 ac eb ff ff 	movzbl -0x1454(%rbp),%eax
    b0d8:	39 85 88 ec ff ff    	cmp    %eax,-0x1378(%rbp)
    b0de:	0f 85 1e 01 00 00    	jne    b202 <func_65+0x1a17>
    b0e4:	c6 85 c3 eb ff ff 00 	movb   $0x0,-0x143d(%rbp)
    b0eb:	c7 85 8c ec ff ff 87 	movl   $0xd2368087,-0x1374(%rbp)
    b0f2:	80 36 d2 
    b0f5:	66 c7 85 d2 eb ff ff 	movw   $0x4b6a,-0x142e(%rbp)
    b0fc:	6a 4b 
    b0fe:	8b 95 2c ee ff ff    	mov    -0x11d4(%rbp),%edx
    b104:	0f bf 85 ce eb ff ff 	movswl -0x1432(%rbp),%eax
    b10b:	31 d0                	xor    %edx,%eax
    b10d:	89 85 2c ee ff ff    	mov    %eax,-0x11d4(%rbp)
    b113:	8b 85 30 ee ff ff    	mov    -0x11d0(%rbp),%eax
    b119:	0f b6 d8             	movzbl %al,%ebx
    b11c:	0f b6 85 ac eb ff ff 	movzbl -0x1454(%rbp),%eax
    b123:	22 85 c3 eb ff ff    	and    -0x143d(%rbp),%al
    b129:	89 c2                	mov    %eax,%edx
    b12b:	48 8b 05 2e c6 00 00 	mov    0xc62e(%rip),%rax        # 17760 <g_582>
    b132:	48 8b 00             	mov    (%rax),%rax
    b135:	88 10                	mov    %dl,(%rax)
    b137:	0f b6 00             	movzbl (%rax),%eax
    b13a:	0f b6 c0             	movzbl %al,%eax
    b13d:	89 c7                	mov    %eax,%edi
    b13f:	e8 01 ca ff ff       	callq  7b45 <safe_unary_minus_func_uint8_t_u>
    b144:	0f be c0             	movsbl %al,%eax
    b147:	be c4 ff ff ff       	mov    $0xffffffc4,%esi
    b14c:	89 c7                	mov    %eax,%edi
    b14e:	e8 bf c0 ff ff       	callq  7212 <safe_mul_func_int8_t_s_s>
    b153:	48 0f be d0          	movsbq %al,%rdx
    b157:	80 bd ac eb ff ff 00 	cmpb   $0x0,-0x1454(%rbp)
    b15e:	75 0a                	jne    b16a <func_65+0x197f>
    b160:	8b 85 30 ee ff ff    	mov    -0x11d0(%rbp),%eax
    b166:	85 c0                	test   %eax,%eax
    b168:	74 07                	je     b171 <func_65+0x1986>
    b16a:	b8 01 00 00 00       	mov    $0x1,%eax
    b16f:	eb 05                	jmp    b176 <func_65+0x198b>
    b171:	b8 00 00 00 00       	mov    $0x0,%eax
    b176:	48 98                	cltq   
    b178:	48 89 d6             	mov    %rdx,%rsi
    b17b:	48 89 c7             	mov    %rax,%rdi
    b17e:	e8 74 c8 ff ff       	callq  79f7 <safe_div_func_int64_t_s_s>
    b183:	0f b6 c0             	movzbl %al,%eax
    b186:	be 4d 00 00 00       	mov    $0x4d,%esi
    b18b:	89 c7                	mov    %eax,%edi
    b18d:	e8 c8 c9 ff ff       	callq  7b5a <safe_add_func_uint8_t_u_u>
    b192:	84 c0                	test   %al,%al
    b194:	75 0a                	jne    b1a0 <func_65+0x19b5>
    b196:	8b 05 54 a5 00 00    	mov    0xa554(%rip),%eax        # 156f0 <g_1752>
    b19c:	85 c0                	test   %eax,%eax
    b19e:	74 07                	je     b1a7 <func_65+0x19bc>
    b1a0:	b8 01 00 00 00       	mov    $0x1,%eax
    b1a5:	eb 05                	jmp    b1ac <func_65+0x19c1>
    b1a7:	b8 00 00 00 00       	mov    $0x0,%eax
    b1ac:	0b 85 88 ec ff ff    	or     -0x1378(%rbp),%eax
    b1b2:	89 c2                	mov    %eax,%edx
    b1b4:	0f b6 85 ac eb ff ff 	movzbl -0x1454(%rbp),%eax
    b1bb:	89 d6                	mov    %edx,%esi
    b1bd:	89 c7                	mov    %eax,%edi
    b1bf:	e8 9f c3 ff ff       	callq  7563 <safe_rshift_func_int16_t_s_u>
    b1c4:	8b 85 88 ec ff ff    	mov    -0x1378(%rbp),%eax
    b1ca:	0f b6 c0             	movzbl %al,%eax
    b1cd:	89 de                	mov    %ebx,%esi
    b1cf:	89 c7                	mov    %eax,%edi
    b1d1:	e8 bd c9 ff ff       	callq  7b93 <safe_mul_func_uint8_t_u_u>
    b1d6:	b9 00 00 00 00       	mov    $0x0,%ecx
    b1db:	48 8b 05 3e c6 00 00 	mov    0xc63e(%rip),%rax        # 17820 <g_1209>
    b1e2:	8b 10                	mov    (%rax),%edx
    b1e4:	48 8b 05 35 c6 00 00 	mov    0xc635(%rip),%rax        # 17820 <g_1209>
    b1eb:	31 ca                	xor    %ecx,%edx
    b1ed:	89 10                	mov    %edx,(%rax)
    b1ef:	0f b7 85 d2 eb ff ff 	movzwl -0x142e(%rbp),%eax
    b1f6:	83 c0 01             	add    $0x1,%eax
    b1f9:	66 89 85 d2 eb ff ff 	mov    %ax,-0x142e(%rbp)
    b200:	eb 5c                	jmp    b25e <func_65+0x1a73>
    b202:	66 c7 85 d0 eb ff ff 	movw   $0x82e3,-0x1430(%rbp)
    b209:	e3 82 
    b20b:	48 8d 85 b8 ec ff ff 	lea    -0x1348(%rbp),%rax
    b212:	48 89 85 b0 ed ff ff 	mov    %rax,-0x1250(%rbp)
    b219:	8b 85 30 ee ff ff    	mov    -0x11d0(%rbp),%eax
    b21f:	89 85 88 ec ff ff    	mov    %eax,-0x1378(%rbp)
    b225:	48 8b 05 f4 c5 00 00 	mov    0xc5f4(%rip),%rax        # 17820 <g_1209>
    b22c:	8b 95 88 ec ff ff    	mov    -0x1378(%rbp),%edx
    b232:	89 10                	mov    %edx,(%rax)
    b234:	8b 00                	mov    (%rax),%eax
    b236:	89 85 dc ed ff ff    	mov    %eax,-0x1224(%rbp)
    b23c:	66 83 a5 d0 eb ff ff 	andw   $0x1,-0x1430(%rbp)
    b243:	01 
    b244:	48 8b 85 c8 f4 ff ff 	mov    -0xb38(%rbp),%rax
    b24b:	48 39 85 b0 ed ff ff 	cmp    %rax,-0x1250(%rbp)
    b252:	0f 95 c0             	setne  %al
    b255:	0f b6 c0             	movzbl %al,%eax
    b258:	89 85 2c ee ff ff    	mov    %eax,-0x11d4(%rbp)
    b25e:	c6 05 d7 a0 00 00 00 	movb   $0x0,0xa0d7(%rip)        # 1533c <g_1075>
    b265:	e9 10 01 00 00       	jmpq   b37a <func_65+0x1b8f>
    b26a:	48 8d 05 4f a4 00 00 	lea    0xa44f(%rip),%rax        # 156c0 <g_1589>
    b271:	48 89 85 b8 ed ff ff 	mov    %rax,-0x1248(%rbp)
    b278:	0f b6 05 01 9e 00 00 	movzbl 0x9e01(%rip),%eax        # 15080 <g_42>
    b27f:	0f be c0             	movsbl %al,%eax
    b282:	8d 70 06             	lea    0x6(%rax),%esi
    b285:	0f b6 05 68 a4 00 00 	movzbl 0xa468(%rip),%eax        # 156f4 <g_1948>
    b28c:	0f b6 c0             	movzbl %al,%eax
    b28f:	0f b6 15 a6 a0 00 00 	movzbl 0xa0a6(%rip),%edx        # 1533c <g_1075>
    b296:	0f b6 d2             	movzbl %dl,%edx
    b299:	83 c2 05             	add    $0x5,%edx
    b29c:	48 63 ca             	movslq %edx,%rcx
    b29f:	48 63 d6             	movslq %esi,%rdx
    b2a2:	48 98                	cltq   
    b2a4:	48 01 c2             	add    %rax,%rdx
    b2a7:	48 89 d0             	mov    %rdx,%rax
    b2aa:	48 c1 e0 03          	shl    $0x3,%rax
    b2ae:	48 29 d0             	sub    %rdx,%rax
    b2b1:	48 01 c8             	add    %rcx,%rax
    b2b4:	48 8d 14 c5 00 00 00 	lea    0x0(,%rax,8),%rdx
    b2bb:	00 
    b2bc:	48 8d 05 7d 9e 00 00 	lea    0x9e7d(%rip),%rax        # 15140 <g_417>
    b2c3:	48 8b 04 02          	mov    (%rdx,%rax,1),%rax
    b2c7:	48 85 c0             	test   %rax,%rax
    b2ca:	0f 85 9e 00 00 00    	jne    b36e <func_65+0x1b83>
    b2d0:	48 8b 05 49 c5 00 00 	mov    0xc549(%rip),%rax        # 17820 <g_1209>
    b2d7:	c7 00 01 00 00 00    	movl   $0x1,(%rax)
    b2dd:	0f b6 05 9c 9d 00 00 	movzbl 0x9d9c(%rip),%eax        # 15080 <g_42>
    b2e4:	0f be c0             	movsbl %al,%eax
    b2e7:	8d 70 05             	lea    0x5(%rax),%esi
    b2ea:	0f b6 05 8f 9d 00 00 	movzbl 0x9d8f(%rip),%eax        # 15080 <g_42>
    b2f1:	0f be c0             	movsbl %al,%eax
    b2f4:	0f b6 15 41 a0 00 00 	movzbl 0xa041(%rip),%edx        # 1533c <g_1075>
    b2fb:	0f b6 d2             	movzbl %dl,%edx
    b2fe:	83 c2 01             	add    $0x1,%edx
    b301:	48 63 ca             	movslq %edx,%rcx
    b304:	48 63 d6             	movslq %esi,%rdx
    b307:	48 98                	cltq   
    b309:	48 01 c2             	add    %rax,%rdx
    b30c:	48 89 d0             	mov    %rdx,%rax
    b30f:	48 c1 e0 03          	shl    $0x3,%rax
    b313:	48 29 d0             	sub    %rdx,%rax
    b316:	48 01 c8             	add    %rcx,%rax
    b319:	48 8d 14 c5 00 00 00 	lea    0x0(,%rax,8),%rdx
    b320:	00 
    b321:	48 8d 05 18 9e 00 00 	lea    0x9e18(%rip),%rax        # 15140 <g_417>
    b328:	48 8b 04 02          	mov    (%rdx,%rax,1),%rax
    b32c:	48 85 c0             	test   %rax,%rax
    b32f:	74 12                	je     b343 <func_65+0x1b58>
    b331:	0f b6 05 04 a0 00 00 	movzbl 0xa004(%rip),%eax        # 1533c <g_1075>
    b338:	83 c0 01             	add    $0x1,%eax
    b33b:	88 05 fb 9f 00 00    	mov    %al,0x9ffb(%rip)        # 1533c <g_1075>
    b341:	eb 37                	jmp    b37a <func_65+0x1b8f>
    b343:	48 8b 05 7e c3 00 00 	mov    0xc37e(%rip),%rax        # 176c8 <g_20>
    b34a:	48 8b 95 b8 ed ff ff 	mov    -0x1248(%rbp),%rdx
    b351:	48 89 10             	mov    %rdx,(%rax)
    b354:	48 8b 00             	mov    (%rax),%rax
    b357:	48 89 85 68 ee ff ff 	mov    %rax,-0x1198(%rbp)
    b35e:	0f b6 05 1b 9d 00 00 	movzbl 0x9d1b(%rip),%eax        # 15080 <g_42>
    b365:	48 0f be c0          	movsbq %al,%rax
    b369:	e9 2a 0b 00 00       	jmpq   be98 <func_65+0x26ad>
    b36e:	48 8b 05 13 9f 00 00 	mov    0x9f13(%rip),%rax        # 15288 <g_417+0x148>
    b375:	e9 1e 0b 00 00       	jmpq   be98 <func_65+0x26ad>
    b37a:	0f b6 05 bb 9f 00 00 	movzbl 0x9fbb(%rip),%eax        # 1533c <g_1075>
    b381:	84 c0                	test   %al,%al
    b383:	0f 84 e1 fe ff ff    	je     b26a <func_65+0x1a7f>
    b389:	0f b6 05 64 a3 00 00 	movzbl 0xa364(%rip),%eax        # 156f4 <g_1948>
    b390:	83 c0 01             	add    $0x1,%eax
    b393:	88 05 5b a3 00 00    	mov    %al,0xa35b(%rip)        # 156f4 <g_1948>
    b399:	0f b6 05 54 a3 00 00 	movzbl 0xa354(%rip),%eax        # 156f4 <g_1948>
    b3a0:	84 c0                	test   %al,%al
    b3a2:	0f 84 db f9 ff ff    	je     ad83 <func_65+0x1598>
    b3a8:	c7 05 f6 d6 00 00 ee 	movl   $0xffffffee,0xd6f6(%rip)        # 18aa8 <g_174>
    b3af:	ff ff ff 
    b3b2:	e9 bb 09 00 00       	jmpq   bd72 <func_65+0x2587>
    b3b7:	48 c7 85 c8 ec ff ff 	movq   $0x0,-0x1338(%rbp)
    b3be:	00 00 00 00 
    b3c2:	c7 85 ec eb ff ff 00 	movl   $0x0,-0x1414(%rbp)
    b3c9:	00 00 00 
    b3cc:	c7 85 54 ec ff ff 2c 	movl   $0xf15a9d2c,-0x13ac(%rbp)
    b3d3:	9d 5a f1 
    b3d6:	48 c7 85 c0 f4 ff ff 	movq   $0x0,-0xb40(%rbp)
    b3dd:	00 00 00 00 
    b3e1:	48 8d 05 3c 9d 00 00 	lea    0x9d3c(%rip),%rax        # 15124 <g_171>
    b3e8:	48 89 85 c8 f4 ff ff 	mov    %rax,-0xb38(%rbp)
    b3ef:	48 8d 05 2e 9d 00 00 	lea    0x9d2e(%rip),%rax        # 15124 <g_171>
    b3f6:	48 89 85 d0 f4 ff ff 	mov    %rax,-0xb30(%rbp)
    b3fd:	48 c7 85 d8 f4 ff ff 	movq   $0x0,-0xb28(%rbp)
    b404:	00 00 00 00 
    b408:	48 8d 05 15 9d 00 00 	lea    0x9d15(%rip),%rax        # 15124 <g_171>
    b40f:	48 89 85 e0 f4 ff ff 	mov    %rax,-0xb20(%rbp)
    b416:	48 8d 05 07 9d 00 00 	lea    0x9d07(%rip),%rax        # 15124 <g_171>
    b41d:	48 89 85 e8 f4 ff ff 	mov    %rax,-0xb18(%rbp)
    b424:	48 c7 85 f0 f4 ff ff 	movq   $0x0,-0xb10(%rbp)
    b42b:	00 00 00 00 
    b42f:	48 8d 05 ee 9c 00 00 	lea    0x9cee(%rip),%rax        # 15124 <g_171>
    b436:	48 89 85 f8 f4 ff ff 	mov    %rax,-0xb08(%rbp)
    b43d:	48 8d 05 e0 9c 00 00 	lea    0x9ce0(%rip),%rax        # 15124 <g_171>
    b444:	48 89 85 00 f5 ff ff 	mov    %rax,-0xb00(%rbp)
    b44b:	48 c7 85 08 f5 ff ff 	movq   $0x0,-0xaf8(%rbp)
    b452:	00 00 00 00 
    b456:	48 8d 05 c3 d6 00 00 	lea    0xd6c3(%rip),%rax        # 18b20 <g_2013>
    b45d:	48 89 85 78 ed ff ff 	mov    %rax,-0x1288(%rbp)
    b464:	48 83 bd c8 ec ff ff 	cmpq   $0x0,-0x1338(%rbp)
    b46b:	00 
    b46c:	0f 95 c0             	setne  %al
    b46f:	0f b6 d0             	movzbl %al,%edx
    b472:	48 8b 05 df c2 00 00 	mov    0xc2df(%rip),%rax        # 17758 <g_583>
    b479:	0f b6 00             	movzbl (%rax),%eax
    b47c:	0f b6 c0             	movzbl %al,%eax
    b47f:	21 d0                	and    %edx,%eax
    b481:	85 c0                	test   %eax,%eax
    b483:	0f 84 05 05 00 00    	je     b98e <func_65+0x21a3>
    b489:	48 8d 05 50 cd 00 00 	lea    0xcd50(%rip),%rax        # 181e0 <g_2102>
    b490:	48 89 85 80 ed ff ff 	mov    %rax,-0x1280(%rbp)
    b497:	c7 85 f0 eb ff ff 6b 	movl   $0x48925b6b,-0x1410(%rbp)
    b49e:	5b 92 48 
    b4a1:	48 8d 85 98 ec ff ff 	lea    -0x1368(%rbp),%rax
    b4a8:	48 89 85 88 ed ff ff 	mov    %rax,-0x1278(%rbp)
    b4af:	48 b8 d2 cc 2c b8 a8 	movabs $0xb04045a8b82cccd2,%rax
    b4b6:	45 40 b0 
    b4b9:	48 89 85 90 ed ff ff 	mov    %rax,-0x1270(%rbp)
    b4c0:	c7 85 70 ec ff ff 01 	movl   $0x1,-0x1390(%rbp)
    b4c7:	00 00 00 
    b4ca:	c7 85 74 ec ff ff 00 	movl   $0x0,-0x138c(%rbp)
    b4d1:	00 00 00 
    b4d4:	c7 85 78 ec ff ff ff 	movl   $0xffffffff,-0x1388(%rbp)
    b4db:	ff ff ff 
    b4de:	c7 85 f4 eb ff ff 00 	movl   $0x0,-0x140c(%rbp)
    b4e5:	00 00 00 
    b4e8:	eb 19                	jmp    b503 <func_65+0x1d18>
    b4ea:	8b 85 f4 eb ff ff    	mov    -0x140c(%rbp),%eax
    b4f0:	48 98                	cltq   
    b4f2:	66 c7 84 45 e0 ed ff 	movw   $0x2ed4,-0x1220(%rbp,%rax,2)
    b4f9:	ff d4 2e 
    b4fc:	83 85 f4 eb ff ff 01 	addl   $0x1,-0x140c(%rbp)
    b503:	83 bd f4 eb ff ff 00 	cmpl   $0x0,-0x140c(%rbp)
    b50a:	7e de                	jle    b4ea <func_65+0x1cff>
    b50c:	48 c7 85 c8 ec ff ff 	movq   $0x0,-0x1338(%rbp)
    b513:	00 00 00 00 
    b517:	e9 bc 01 00 00       	jmpq   b6d8 <func_65+0x1eed>
    b51c:	c6 85 c2 eb ff ff 01 	movb   $0x1,-0x143e(%rbp)
    b523:	48 8d 85 c0 ec ff ff 	lea    -0x1340(%rbp),%rax
    b52a:	48 89 85 98 ed ff ff 	mov    %rax,-0x1268(%rbp)
    b531:	48 83 bd c8 ec ff ff 	cmpq   $0x0,-0x1338(%rbp)
    b538:	00 
    b539:	0f 85 a9 01 00 00    	jne    b6e8 <func_65+0x1efd>
    b53f:	8b 05 eb 9b 00 00    	mov    0x9beb(%rip),%eax        # 15130 <g_366>
    b545:	89 85 a8 eb ff ff    	mov    %eax,-0x1458(%rbp)
    b54b:	0f b7 85 e0 ed ff ff 	movzwl -0x1220(%rbp),%eax
    b552:	30 85 c2 eb ff ff    	xor    %al,-0x143e(%rbp)
    b558:	44 0f be b5 c2 eb ff 	movsbl -0x143e(%rbp),%r14d
    b55f:	ff 
    b560:	0f b6 9d ac eb ff ff 	movzbl -0x1454(%rbp),%ebx
    b567:	8b 85 b0 eb ff ff    	mov    -0x1450(%rbp),%eax
    b56d:	89 85 98 eb ff ff    	mov    %eax,-0x1468(%rbp)
    b573:	48 8b 05 e6 c1 00 00 	mov    0xc1e6(%rip),%rax        # 17760 <g_582>
    b57a:	48 8b 00             	mov    (%rax),%rax
    b57d:	0f b6 00             	movzbl (%rax),%eax
    b580:	44 0f b6 e0          	movzbl %al,%r12d
    b584:	0f b7 05 9d 9b 00 00 	movzwl 0x9b9d(%rip),%eax        # 15128 <g_307>
    b58b:	0f b7 c0             	movzwl %ax,%eax
    b58e:	89 85 ec eb ff ff    	mov    %eax,-0x1414(%rbp)
    b594:	83 bd ec eb ff ff 00 	cmpl   $0x0,-0x1414(%rbp)
    b59b:	48 8b 85 28 ed ff ff 	mov    -0x12d8(%rbp),%rax
    b5a2:	48 8b 00             	mov    (%rax),%rax
    b5a5:	48 8b 00             	mov    (%rax),%rax
    b5a8:	48 39 85 80 ed ff ff 	cmp    %rax,-0x1280(%rbp)
    b5af:	0f 95 c0             	setne  %al
    b5b2:	44 0f b6 f8          	movzbl %al,%r15d
    b5b6:	44 0f b7 ad b4 eb ff 	movzwl -0x144c(%rbp),%r13d
    b5bd:	ff 
    b5be:	48 8b 85 98 ed ff ff 	mov    -0x1268(%rbp),%rax
    b5c5:	48 c7 00 00 00 00 00 	movq   $0x0,(%rax)
    b5cc:	48 8b 85 98 ed ff ff 	mov    -0x1268(%rbp),%rax
    b5d3:	48 8b 00             	mov    (%rax),%rax
    b5d6:	48 85 c0             	test   %rax,%rax
    b5d9:	0f 94 c0             	sete   %al
    b5dc:	0f b6 c0             	movzbl %al,%eax
    b5df:	89 c7                	mov    %eax,%edi
    b5e1:	e8 d9 bb ff ff       	callq  71bf <safe_unary_minus_func_int8_t_s>
    b5e6:	48 8b 85 b8 eb ff ff 	mov    -0x1448(%rbp),%rax
    b5ed:	0f b6 00             	movzbl (%rax),%eax
    b5f0:	0f be c0             	movsbl %al,%eax
    b5f3:	44 89 ee             	mov    %r13d,%esi
    b5f6:	89 c7                	mov    %eax,%edi
    b5f8:	e8 f1 bc ff ff       	callq  72ee <safe_lshift_func_int8_t_s_u>
    b5fd:	48 0f be c0          	movsbq %al,%rax
    b601:	48 39 85 c8 ec ff ff 	cmp    %rax,-0x1338(%rbp)
    b608:	0f 9c c0             	setl   %al
    b60b:	0f b6 d0             	movzbl %al,%edx
    b60e:	8b 85 b0 eb ff ff    	mov    -0x1450(%rbp),%eax
    b614:	31 d0                	xor    %edx,%eax
    b616:	41 39 c7             	cmp    %eax,%r15d
    b619:	0f 92 c0             	setb   %al
    b61c:	0f b6 c0             	movzbl %al,%eax
    b61f:	44 89 e6             	mov    %r12d,%esi
    b622:	89 c7                	mov    %eax,%edi
    b624:	e8 b2 c5 ff ff       	callq  7bdb <safe_div_func_uint8_t_u_u>
    b629:	0f b6 c0             	movzbl %al,%eax
    b62c:	89 85 f0 eb ff ff    	mov    %eax,-0x1410(%rbp)
    b632:	83 bd f0 eb ff ff 00 	cmpl   $0x0,-0x1410(%rbp)
    b639:	48 8b 15 78 9b 00 00 	mov    0x9b78(%rip),%rdx        # 151b8 <g_417+0x78>
    b640:	48 8b 85 f0 f0 ff ff 	mov    -0xf10(%rbp),%rax
    b647:	48 39 85 08 ed ff ff 	cmp    %rax,-0x12f8(%rbp)
    b64e:	0f 94 c0             	sete   %al
    b651:	0f b6 c8             	movzbl %al,%ecx
    b654:	8b 85 b0 eb ff ff    	mov    -0x1450(%rbp),%eax
    b65a:	09 c8                	or     %ecx,%eax
    b65c:	83 f8 05             	cmp    $0x5,%eax
    b65f:	0f 94 c0             	sete   %al
    b662:	0f b6 c0             	movzbl %al,%eax
    b665:	48 39 c2             	cmp    %rax,%rdx
    b668:	0f 92 c0             	setb   %al
    b66b:	0f b6 c0             	movzbl %al,%eax
    b66e:	8b b5 98 eb ff ff    	mov    -0x1468(%rbp),%esi
    b674:	89 c7                	mov    %eax,%edi
    b676:	e8 af be ff ff       	callq  752a <safe_rshift_func_int16_t_s_s>
    b67b:	66 85 c0             	test   %ax,%ax
    b67e:	74 07                	je     b687 <func_65+0x1e9c>
    b680:	b8 01 00 00 00       	mov    $0x1,%eax
    b685:	eb 05                	jmp    b68c <func_65+0x1ea1>
    b687:	b8 00 00 00 00       	mov    $0x0,%eax
    b68c:	48 98                	cltq   
    b68e:	48 89 de             	mov    %rbx,%rsi
    b691:	48 89 c7             	mov    %rax,%rdi
    b694:	e8 0f c2 ff ff       	callq  78a8 <safe_sub_func_int64_t_s_s>
    b699:	48 39 85 c8 ec ff ff 	cmp    %rax,-0x1338(%rbp)
    b6a0:	0f 9c c0             	setl   %al
    b6a3:	0f b6 c0             	movzbl %al,%eax
    b6a6:	41 39 c6             	cmp    %eax,%r14d
    b6a9:	0f 95 c0             	setne  %al
    b6ac:	0f b6 c0             	movzbl %al,%eax
    b6af:	8b b5 a8 eb ff ff    	mov    -0x1458(%rbp),%esi
    b6b5:	89 c7                	mov    %eax,%edi
    b6b7:	e8 69 c8 ff ff       	callq  7f25 <safe_div_func_uint32_t_u_u>
    b6bc:	48 8b 15 5d c1 00 00 	mov    0xc15d(%rip),%rdx        # 17820 <g_1209>
    b6c3:	8b 12                	mov    (%rdx),%edx
    b6c5:	09 c2                	or     %eax,%edx
    b6c7:	48 8b 05 52 c1 00 00 	mov    0xc152(%rip),%rax        # 17820 <g_1209>
    b6ce:	89 10                	mov    %edx,(%rax)
    b6d0:	48 83 ad c8 ec ff ff 	subq   $0x1,-0x1338(%rbp)
    b6d7:	01 
    b6d8:	48 83 bd c8 ec ff ff 	cmpq   $0xfffffffffffffff5,-0x1338(%rbp)
    b6df:	f5 
    b6e0:	0f 85 36 fe ff ff    	jne    b51c <func_65+0x1d31>
    b6e6:	eb 01                	jmp    b6e9 <func_65+0x1efe>
    b6e8:	90                   	nop
    b6e9:	48 8b 85 90 ed ff ff 	mov    -0x1270(%rbp),%rax
    b6f0:	0f b7 d8             	movzwl %ax,%ebx
    b6f3:	0f b7 85 e0 ed ff ff 	movzwl -0x1220(%rbp),%eax
    b6fa:	0f bf d0             	movswl %ax,%edx
    b6fd:	b8 14 52 02 12       	mov    $0x12025214,%eax
    b702:	89 05 f4 99 00 00    	mov    %eax,0x99f4(%rip)        # 150fc <g_109>
    b708:	8b 05 ee 99 00 00    	mov    0x99ee(%rip),%eax        # 150fc <g_109>
    b70e:	89 d6                	mov    %edx,%esi
    b710:	89 c7                	mov    %eax,%edi
    b712:	e8 b9 c7 ff ff       	callq  7ed0 <safe_sub_func_uint32_t_u_u>
    b717:	0f b7 05 ce 9f 00 00 	movzwl 0x9fce(%rip),%eax        # 156ec <g_1670>
    b71e:	44 0f bf e0          	movswl %ax,%r12d
    b722:	8b 05 04 9c 00 00    	mov    0x9c04(%rip),%eax        # 1532c <g_1051+0xc>
    b728:	4c 63 e8             	movslq %eax,%r13
    b72b:	8b 85 ec eb ff ff    	mov    -0x1414(%rbp),%eax
    b731:	4c 63 f0             	movslq %eax,%r14
    b734:	48 8b 85 b8 eb ff ff 	mov    -0x1448(%rbp),%rax
    b73b:	0f b6 00             	movzbl (%rax),%eax
    b73e:	44 0f be f8          	movsbl %al,%r15d
    b742:	8b 85 b0 eb ff ff    	mov    -0x1450(%rbp),%eax
    b748:	89 85 a8 eb ff ff    	mov    %eax,-0x1458(%rbp)
    b74e:	8b 8d f0 eb ff ff    	mov    -0x1410(%rbp),%ecx
    b754:	89 8d 98 eb ff ff    	mov    %ecx,-0x1468(%rbp)
    b75a:	0f b6 bd ac eb ff ff 	movzbl -0x1454(%rbp),%edi
    b761:	89 bd 94 eb ff ff    	mov    %edi,-0x146c(%rbp)
    b767:	0f b7 05 be 99 00 00 	movzwl 0x99be(%rip),%eax        # 1512c <g_337>
    b76e:	0f b7 c0             	movzwl %ax,%eax
    b771:	48 8b 95 58 ef ff ff 	mov    -0x10a8(%rbp),%rdx
    b778:	89 c6                	mov    %eax,%esi
    b77a:	89 d7                	mov    %edx,%edi
    b77c:	e8 84 be ff ff       	callq  7605 <safe_sub_func_int32_t_s_s>
    b781:	0f b6 85 ac eb ff ff 	movzbl -0x1454(%rbp),%eax
    b788:	be 04 00 00 00       	mov    $0x4,%esi
    b78d:	89 c7                	mov    %eax,%edi
    b78f:	e8 71 c4 ff ff       	callq  7c05 <safe_lshift_func_uint8_t_u_s>
    b794:	48 8b 05 85 c0 00 00 	mov    0xc085(%rip),%rax        # 17820 <g_1209>
    b79b:	8b 00                	mov    (%rax),%eax
    b79d:	85 c0                	test   %eax,%eax
    b79f:	0f 9e c0             	setle  %al
    b7a2:	0f b6 c0             	movzbl %al,%eax
    b7a5:	8b b5 94 eb ff ff    	mov    -0x146c(%rbp),%esi
    b7ab:	89 c7                	mov    %eax,%edi
    b7ad:	e8 96 c6 ff ff       	callq  7e48 <safe_rshift_func_uint16_t_u_s>
    b7b2:	0f b7 c0             	movzwl %ax,%eax
    b7b5:	8b b5 98 eb ff ff    	mov    -0x1468(%rbp),%esi
    b7bb:	89 c7                	mov    %eax,%edi
    b7bd:	e8 63 c7 ff ff       	callq  7f25 <safe_div_func_uint32_t_u_u>
    b7c2:	89 c2                	mov    %eax,%edx
    b7c4:	48 8b 85 e8 ec ff ff 	mov    -0x1318(%rbp),%rax
    b7cb:	0f b6 00             	movzbl (%rax),%eax
    b7ce:	09 c2                	or     %eax,%edx
    b7d0:	48 8b 85 e8 ec ff ff 	mov    -0x1318(%rbp),%rax
    b7d7:	88 10                	mov    %dl,(%rax)
    b7d9:	8b b5 a8 eb ff ff    	mov    -0x1458(%rbp),%esi
    b7df:	bf 97 45 00 00       	mov    $0x4597,%edi
    b7e4:	e8 f8 bc ff ff       	callq  74e1 <safe_lshift_func_int16_t_s_u>
    b7e9:	48 0f bf c0          	movswq %ax,%rax
    b7ed:	48 be d0 c6 ec 74 1f 	movabs $0x4fe5de1f74ecc6d0,%rsi
    b7f4:	de e5 4f 
    b7f7:	48 89 c7             	mov    %rax,%rdi
    b7fa:	e8 b5 c1 ff ff       	callq  79b4 <safe_mod_func_int64_t_s_s>
    b7ff:	48 85 c0             	test   %rax,%rax
    b802:	75 0a                	jne    b80e <func_65+0x2023>
    b804:	48 83 bd c8 ec ff ff 	cmpq   $0x0,-0x1338(%rbp)
    b80b:	00 
    b80c:	74 07                	je     b815 <func_65+0x202a>
    b80e:	b8 01 00 00 00       	mov    $0x1,%eax
    b813:	eb 05                	jmp    b81a <func_65+0x202f>
    b815:	b8 00 00 00 00       	mov    $0x0,%eax
    b81a:	98                   	cwtl   
    b81b:	be 0e 00 00 00       	mov    $0xe,%esi
    b820:	89 c7                	mov    %eax,%edi
    b822:	e8 6b bc ff ff       	callq  7492 <safe_lshift_func_int16_t_s_s>
    b827:	48 8b 05 2a bf 00 00 	mov    0xbf2a(%rip),%rax        # 17758 <g_583>
    b82e:	8b 95 0c ec ff ff    	mov    -0x13f4(%rbp),%edx
    b834:	88 10                	mov    %dl,(%rax)
    b836:	0f b6 00             	movzbl (%rax),%eax
    b839:	0f b6 d0             	movzbl %al,%edx
    b83c:	0f b7 85 e0 ed ff ff 	movzwl -0x1220(%rbp),%eax
    b843:	66 83 f8 f8          	cmp    $0xfff8,%ax
    b847:	0f 9d c0             	setge  %al
    b84a:	0f b6 c0             	movzbl %al,%eax
    b84d:	39 c2                	cmp    %eax,%edx
    b84f:	0f 9f c0             	setg   %al
    b852:	0f b6 c0             	movzbl %al,%eax
    b855:	89 c7                	mov    %eax,%edi
    b857:	e8 41 bb ff ff       	callq  739d <safe_unary_minus_func_int16_t_s>
    b85c:	0f be c0             	movsbl %al,%eax
    b85f:	44 89 fe             	mov    %r15d,%esi
    b862:	89 c7                	mov    %eax,%edi
    b864:	e8 a9 b9 ff ff       	callq  7212 <safe_mul_func_int8_t_s_s>
    b869:	48 0f be d0          	movsbq %al,%rdx
    b86d:	48 8b 85 88 ed ff ff 	mov    -0x1278(%rbp),%rax
    b874:	48 89 10             	mov    %rdx,(%rax)
    b877:	48 8b 85 88 ed ff ff 	mov    -0x1278(%rbp),%rax
    b87e:	48 8b 00             	mov    (%rax),%rax
    b881:	4c 89 f6             	mov    %r14,%rsi
    b884:	48 89 c7             	mov    %rax,%rdi
    b887:	e8 28 c1 ff ff       	callq  79b4 <safe_mod_func_int64_t_s_s>
    b88c:	0f be d0             	movsbl %al,%edx
    b88f:	48 8b 85 c8 ec ff ff 	mov    -0x1338(%rbp),%rax
    b896:	0f be c0             	movsbl %al,%eax
    b899:	89 d6                	mov    %edx,%esi
    b89b:	89 c7                	mov    %eax,%edi
    b89d:	e8 50 b9 ff ff       	callq  71f2 <safe_sub_func_int8_t_s_s>
    b8a2:	48 0f be c0          	movsbq %al,%rax
    b8a6:	48 39 85 d8 ec ff ff 	cmp    %rax,-0x1328(%rbp)
    b8ad:	0f 97 c0             	seta   %al
    b8b0:	0f b6 c0             	movzbl %al,%eax
    b8b3:	be 01 00 00 00       	mov    $0x1,%esi
    b8b8:	89 c7                	mov    %eax,%edi
    b8ba:	e8 96 bb ff ff       	callq  7455 <safe_div_func_int16_t_s_s>
    b8bf:	48 0f bf c0          	movswq %ax,%rax
    b8c3:	4c 89 ee             	mov    %r13,%rsi
    b8c6:	48 89 c7             	mov    %rax,%rdi
    b8c9:	e8 e1 c7 ff ff       	callq  80af <safe_div_func_uint64_t_u_u>
    b8ce:	48 83 f8 05          	cmp    $0x5,%rax
    b8d2:	0f b7 85 b4 eb ff ff 	movzwl -0x144c(%rbp),%eax
    b8d9:	89 85 f0 eb ff ff    	mov    %eax,-0x1410(%rbp)
    b8df:	8b 85 f0 eb ff ff    	mov    -0x1410(%rbp),%eax
    b8e5:	44 89 e6             	mov    %r12d,%esi
    b8e8:	89 c7                	mov    %eax,%edi
    b8ea:	e8 c7 bc ff ff       	callq  75b6 <safe_add_func_int32_t_s_s>
    b8ef:	89 de                	mov    %ebx,%esi
    b8f1:	bf 00 00 00 00       	mov    $0x0,%edi
    b8f6:	e8 24 c4 ff ff       	callq  7d1f <safe_sub_func_uint16_t_u_u>
    b8fb:	66 85 c0             	test   %ax,%ax
    b8fe:	74 63                	je     b963 <func_65+0x2178>
    b900:	c7 85 7c ec ff ff ff 	movl   $0xffffffff,-0x1384(%rbp)
    b907:	ff ff ff 
    b90a:	c7 85 80 ec ff ff f9 	movl   $0xfffffff9,-0x1380(%rbp)
    b911:	ff ff ff 
    b914:	c7 85 f8 eb ff ff 00 	movl   $0x0,-0x1408(%rbp)
    b91b:	00 00 00 
    b91e:	eb 21                	jmp    b941 <func_65+0x2156>
    b920:	8b 85 f8 eb ff ff    	mov    -0x1408(%rbp),%eax
    b926:	48 98                	cltq   
    b928:	48 bb 43 1a cd af f8 	movabs $0x79a7a5f8afcd1a43,%rbx
    b92f:	a5 a7 79 
    b932:	48 89 9c c5 70 ee ff 	mov    %rbx,-0x1190(%rbp,%rax,8)
    b939:	ff 
    b93a:	83 85 f8 eb ff ff 01 	addl   $0x1,-0x1408(%rbp)
    b941:	83 bd f8 eb ff ff 08 	cmpl   $0x8,-0x1408(%rbp)
    b948:	7e d6                	jle    b920 <func_65+0x2135>
    b94a:	83 85 e4 eb ff ff 01 	addl   $0x1,-0x141c(%rbp)
    b951:	48 8b 05 c8 be 00 00 	mov    0xbec8(%rip),%rax        # 17820 <g_1209>
    b958:	c7 00 01 00 00 00    	movl   $0x1,(%rax)
    b95e:	e9 d1 03 00 00       	jmpq   bd34 <func_65+0x2549>
    b963:	48 8b 85 90 ed ff ff 	mov    -0x1270(%rbp),%rax
    b96a:	48 89 c6             	mov    %rax,%rsi
    b96d:	48 bf 45 83 32 00 78 	movabs $0xf0f8d77800328345,%rdi
    b974:	d7 f8 f0 
    b977:	e8 b2 c6 ff ff       	callq  802e <safe_add_func_uint64_t_u_u>
    b97c:	89 85 78 ec ff ff    	mov    %eax,-0x1388(%rbp)
    b982:	48 8b 05 a7 d1 00 00 	mov    0xd1a7(%rip),%rax        # 18b30 <g_2495>
    b989:	e9 0a 05 00 00       	jmpq   be98 <func_65+0x26ad>
    b98e:	c7 85 58 ec ff ff 25 	movl   $0x6e642825,-0x13a8(%rbp)
    b995:	28 64 6e 
    b998:	c7 85 5c ec ff ff 06 	movl   $0x6,-0x13a4(%rbp)
    b99f:	00 00 00 
    b9a2:	c7 85 60 ec ff ff ea 	movl   $0xd01fadea,-0x13a0(%rbp)
    b9a9:	ad 1f d0 
    b9ac:	c7 85 fc eb ff ff 00 	movl   $0x0,-0x1404(%rbp)
    b9b3:	00 00 00 
    b9b6:	eb 1e                	jmp    b9d6 <func_65+0x21eb>
    b9b8:	8b 85 fc eb ff ff    	mov    -0x1404(%rbp),%eax
    b9be:	48 98                	cltq   
    b9c0:	48 8d 15 59 d1 00 00 	lea    0xd159(%rip),%rdx        # 18b20 <g_2013>
    b9c7:	48 89 94 c5 70 ee ff 	mov    %rdx,-0x1190(%rbp,%rax,8)
    b9ce:	ff 
    b9cf:	83 85 fc eb ff ff 01 	addl   $0x1,-0x1404(%rbp)
    b9d6:	83 bd fc eb ff ff 04 	cmpl   $0x4,-0x1404(%rbp)
    b9dd:	7e d9                	jle    b9b8 <func_65+0x21cd>
    b9df:	c7 85 fc eb ff ff 00 	movl   $0x0,-0x1404(%rbp)
    b9e6:	00 00 00 
    b9e9:	eb 21                	jmp    ba0c <func_65+0x2221>
    b9eb:	8b 85 fc eb ff ff    	mov    -0x1404(%rbp),%eax
    b9f1:	48 98                	cltq   
    b9f3:	48 bb 69 68 76 c2 62 	movabs $0x9f25bc62c2766869,%rbx
    b9fa:	bc 25 9f 
    b9fd:	48 89 9c c5 e0 ed ff 	mov    %rbx,-0x1220(%rbp,%rax,8)
    ba04:	ff 
    ba05:	83 85 fc eb ff ff 01 	addl   $0x1,-0x1404(%rbp)
    ba0c:	83 bd fc eb ff ff 01 	cmpl   $0x1,-0x1404(%rbp)
    ba13:	7e d6                	jle    b9eb <func_65+0x2200>
    ba15:	48 c7 05 10 d1 00 00 	movq   $0x0,0xd110(%rip)        # 18b30 <g_2495>
    ba1c:	00 00 00 00 
    ba20:	e9 fe 02 00 00       	jmpq   bd23 <func_65+0x2538>
    ba25:	c7 85 64 ec ff ff 01 	movl   $0x1,-0x139c(%rbp)
    ba2c:	00 00 00 
    ba2f:	c7 85 68 ec ff ff ff 	movl   $0xffffffff,-0x1398(%rbp)
    ba36:	ff ff ff 
    ba39:	c7 85 6c ec ff ff e5 	movl   $0xa0c160e5,-0x1394(%rbp)
    ba40:	60 c1 a0 
    ba43:	8b 05 b7 9c 00 00    	mov    0x9cb7(%rip),%eax        # 15700 <g_2541>
    ba49:	0f be d8             	movsbl %al,%ebx
    ba4c:	48 8b 05 35 96 00 00 	mov    0x9635(%rip),%rax        # 15088 <g_51>
    ba53:	44 0f bf e0          	movswl %ax,%r12d
    ba57:	44 0f b7 ad b4 eb ff 	movzwl -0x144c(%rbp),%r13d
    ba5e:	ff 
    ba5f:	8b 85 44 ec ff ff    	mov    -0x13bc(%rbp),%eax
    ba65:	44 0f be f0          	movsbl %al,%r14d
    ba69:	48 8b 85 e0 ec ff ff 	mov    -0x1320(%rbp),%rax
    ba70:	89 85 a8 eb ff ff    	mov    %eax,-0x1458(%rbp)
    ba76:	0f b7 85 b4 eb ff ff 	movzwl -0x144c(%rbp),%eax
    ba7d:	89 85 98 eb ff ff    	mov    %eax,-0x1468(%rbp)
    ba83:	0f b7 85 b4 eb ff ff 	movzwl -0x144c(%rbp),%eax
    ba8a:	44 0f be f8          	movsbl %al,%r15d
    ba8e:	8b 85 64 ec ff ff    	mov    -0x139c(%rbp),%eax
    ba94:	98                   	cwtl   
    ba95:	89 85 94 eb ff ff    	mov    %eax,-0x146c(%rbp)
    ba9b:	0f b7 85 cc eb ff ff 	movzwl -0x1434(%rbp),%eax
    baa2:	0f b6 c0             	movzbl %al,%eax
    baa5:	89 85 90 eb ff ff    	mov    %eax,-0x1470(%rbp)
    baab:	48 8b 05 6e bd 00 00 	mov    0xbd6e(%rip),%rax        # 17820 <g_1209>
    bab2:	8b 00                	mov    (%rax),%eax
    bab4:	89 85 8c eb ff ff    	mov    %eax,-0x1474(%rbp)
    baba:	0f b7 8d b4 eb ff ff 	movzwl -0x144c(%rbp),%ecx
    bac1:	48 89 8d 80 eb ff ff 	mov    %rcx,-0x1480(%rbp)
    bac8:	8b 85 58 ec ff ff    	mov    -0x13a8(%rbp),%eax
    bace:	48 63 d0             	movslq %eax,%rdx
    bad1:	83 bd 54 ec ff ff ff 	cmpl   $0xffffffff,-0x13ac(%rbp)
    bad8:	0f 95 c0             	setne  %al
    badb:	0f b6 c0             	movzbl %al,%eax
    bade:	48 89 d6             	mov    %rdx,%rsi
    bae1:	48 89 c7             	mov    %rax,%rdi
    bae4:	e8 62 c5 ff ff       	callq  804b <safe_sub_func_uint64_t_u_u>
    bae9:	48 39 85 80 eb ff ff 	cmp    %rax,-0x1480(%rbp)
    baf0:	0f 96 c0             	setbe  %al
    baf3:	0f b6 c0             	movzbl %al,%eax
    baf6:	8b b5 8c eb ff ff    	mov    -0x1474(%rbp),%esi
    bafc:	89 c7                	mov    %eax,%edi
    bafe:	e8 02 bb ff ff       	callq  7605 <safe_sub_func_int32_t_s_s>
    bb03:	89 85 ec eb ff ff    	mov    %eax,-0x1414(%rbp)
    bb09:	8b 85 ec eb ff ff    	mov    -0x1414(%rbp),%eax
    bb0f:	3b 85 5c ec ff ff    	cmp    -0x13a4(%rbp),%eax
    bb15:	0f 9c c0             	setl   %al
    bb18:	0f b6 c0             	movzbl %al,%eax
    bb1b:	be 02 00 00 00       	mov    $0x2,%esi
    bb20:	89 c7                	mov    %eax,%edi
    bb22:	e8 7a b7 ff ff       	callq  72a1 <safe_lshift_func_int8_t_s_s>
    bb27:	89 c2                	mov    %eax,%edx
    bb29:	48 8b 05 28 bc 00 00 	mov    0xbc28(%rip),%rax        # 17758 <g_583>
    bb30:	88 10                	mov    %dl,(%rax)
    bb32:	66 c7 05 ed 95 00 00 	movw   $0x0,0x95ed(%rip)        # 15128 <g_307>
    bb39:	00 00 
    bb3b:	0f b7 05 e6 95 00 00 	movzwl 0x95e6(%rip),%eax        # 15128 <g_307>
    bb42:	66 85 c0             	test   %ax,%ax
    bb45:	74 13                	je     bb5a <func_65+0x236f>
    bb47:	48 8b 85 e8 ed ff ff 	mov    -0x1218(%rbp),%rax
    bb4e:	48 85 c0             	test   %rax,%rax
    bb51:	74 07                	je     bb5a <func_65+0x236f>
    bb53:	b8 01 00 00 00       	mov    $0x1,%eax
    bb58:	eb 05                	jmp    bb5f <func_65+0x2374>
    bb5a:	b8 00 00 00 00       	mov    $0x0,%eax
    bb5f:	48 63 d0             	movslq %eax,%rdx
    bb62:	48 8b 85 e8 ed ff ff 	mov    -0x1218(%rbp),%rax
    bb69:	48 39 c2             	cmp    %rax,%rdx
    bb6c:	0f 95 c0             	setne  %al
    bb6f:	89 c2                	mov    %eax,%edx
    bb71:	8b 85 b0 eb ff ff    	mov    -0x1450(%rbp),%eax
    bb77:	09 d0                	or     %edx,%eax
    bb79:	0f b6 c0             	movzbl %al,%eax
    bb7c:	8b b5 90 eb ff ff    	mov    -0x1470(%rbp),%esi
    bb82:	89 c7                	mov    %eax,%edi
    bb84:	e8 0a c0 ff ff       	callq  7b93 <safe_mul_func_uint8_t_u_u>
    bb89:	0f b7 85 b4 eb ff ff 	movzwl -0x144c(%rbp),%eax
    bb90:	98                   	cwtl   
    bb91:	8b b5 94 eb ff ff    	mov    -0x146c(%rbp),%esi
    bb97:	89 c7                	mov    %eax,%edi
    bb99:	e8 57 b8 ff ff       	callq  73f5 <safe_mul_func_int16_t_s_s>
    bb9e:	44 89 fe             	mov    %r15d,%esi
    bba1:	bf 01 00 00 00       	mov    $0x1,%edi
    bba6:	e8 67 b6 ff ff       	callq  7212 <safe_mul_func_int8_t_s_s>
    bbab:	0f be c0             	movsbl %al,%eax
    bbae:	39 85 98 eb ff ff    	cmp    %eax,-0x1468(%rbp)
    bbb4:	0f 9d c0             	setge  %al
    bbb7:	0f b6 d0             	movzbl %al,%edx
    bbba:	48 8b 05 57 bc 00 00 	mov    0xbc57(%rip),%rax        # 17818 <g_1206>
    bbc1:	8b 00                	mov    (%rax),%eax
    bbc3:	39 c2                	cmp    %eax,%edx
    bbc5:	0f 9d c0             	setge  %al
    bbc8:	0f b6 c0             	movzbl %al,%eax
    bbcb:	48 33 85 c8 ec ff ff 	xor    -0x1338(%rbp),%rax
    bbd2:	48 89 c2             	mov    %rax,%rdx
    bbd5:	8b 85 54 ec ff ff    	mov    -0x13ac(%rbp),%eax
    bbdb:	48 98                	cltq   
    bbdd:	48 21 d0             	and    %rdx,%rax
    bbe0:	48 83 f8 01          	cmp    $0x1,%rax
    bbe4:	0f 97 c0             	seta   %al
    bbe7:	0f b6 c0             	movzbl %al,%eax
    bbea:	66 89 05 ff 94 00 00 	mov    %ax,0x94ff(%rip)        # 150f0 <g_81+0x10>
    bbf1:	0f b7 05 f8 94 00 00 	movzwl 0x94f8(%rip),%eax        # 150f0 <g_81+0x10>
    bbf8:	0f b7 c0             	movzwl %ax,%eax
    bbfb:	8b b5 a8 eb ff ff    	mov    -0x1458(%rbp),%esi
    bc01:	89 c7                	mov    %eax,%edi
    bc03:	e8 40 c2 ff ff       	callq  7e48 <safe_rshift_func_uint16_t_u_s>
    bc08:	48 8b 85 38 ed ff ff 	mov    -0x12c8(%rbp),%rax
    bc0f:	48 89 05 4a cf 00 00 	mov    %rax,0xcf4a(%rip)        # 18b60 <g_2514+0x20>
    bc16:	b8 00 00 00 00       	mov    $0x0,%eax
    bc1b:	89 c2                	mov    %eax,%edx
    bc1d:	0f b6 85 ac eb ff ff 	movzbl -0x1454(%rbp),%eax
    bc24:	21 d0                	and    %edx,%eax
    bc26:	88 85 ac eb ff ff    	mov    %al,-0x1454(%rbp)
    bc2c:	44 89 f6             	mov    %r14d,%esi
    bc2f:	bf fa ff ff ff       	mov    $0xfffffffa,%edi
    bc34:	e8 b9 b5 ff ff       	callq  71f2 <safe_sub_func_int8_t_s_s>
    bc39:	48 0f be c0          	movsbq %al,%rax
    bc3d:	4c 89 ee             	mov    %r13,%rsi
    bc40:	48 89 c7             	mov    %rax,%rdi
    bc43:	e8 38 c4 ff ff       	callq  8080 <safe_mod_func_uint64_t_u_u>
    bc48:	89 c2                	mov    %eax,%edx
    bc4a:	8b 85 60 ec ff ff    	mov    -0x13a0(%rbp),%eax
    bc50:	89 c6                	mov    %eax,%esi
    bc52:	89 d7                	mov    %edx,%edi
    bc54:	e8 a4 c2 ff ff       	callq  7efd <safe_mod_func_uint32_t_u_u>
    bc59:	83 e0 fa             	and    $0xfffffffa,%eax
    bc5c:	0f be d0             	movsbl %al,%edx
    bc5f:	48 8b 05 0a bb 00 00 	mov    0xbb0a(%rip),%rax        # 17770 <g_845>
    bc66:	48 8b 08             	mov    (%rax),%rcx
    bc69:	48 8b 05 98 ba 00 00 	mov    0xba98(%rip),%rax        # 17708 <g_229>
    bc70:	0f b6 09             	movzbl (%rcx),%ecx
    bc73:	88 08                	mov    %cl,(%rax)
    bc75:	0f b6 00             	movzbl (%rax),%eax
    bc78:	0f be c0             	movsbl %al,%eax
    bc7b:	89 d6                	mov    %edx,%esi
    bc7d:	89 c7                	mov    %eax,%edi
    bc7f:	e8 ad b5 ff ff       	callq  7231 <safe_mod_func_int8_t_s_s>
    bc84:	48 8b 85 78 ed ff ff 	mov    -0x1288(%rbp),%rax
    bc8b:	48 89 85 88 ee ff ff 	mov    %rax,-0x1178(%rbp)
    bc92:	48 8b 95 88 ee ff ff 	mov    -0x1178(%rbp),%rdx
    bc99:	48 8b 05 c0 c5 00 00 	mov    0xc5c0(%rip),%rax        # 18260 <g_2268>
    bca0:	48 8b 00             	mov    (%rax),%rax
    bca3:	48 8b 00             	mov    (%rax),%rax
    bca6:	48 39 c2             	cmp    %rax,%rdx
    bca9:	0f 95 c0             	setne  %al
    bcac:	0f b6 d0             	movzbl %al,%edx
    bcaf:	8b 05 13 9a 00 00    	mov    0x9a13(%rip),%eax        # 156c8 <g_1589+0x8>
    bcb5:	39 c2                	cmp    %eax,%edx
    bcb7:	0f 9e c0             	setle  %al
    bcba:	0f b6 d0             	movzbl %al,%edx
    bcbd:	8b 05 39 9a 00 00    	mov    0x9a39(%rip),%eax        # 156fc <g_2538>
    bcc3:	39 c2                	cmp    %eax,%edx
    bcc5:	0f 94 c0             	sete   %al
    bcc8:	0f b6 c0             	movzbl %al,%eax
    bccb:	44 89 e6             	mov    %r12d,%esi
    bcce:	89 c7                	mov    %eax,%edi
    bcd0:	e8 fe b6 ff ff       	callq  73d3 <safe_sub_func_int16_t_s_s>
    bcd5:	98                   	cwtl   
    bcd6:	89 85 68 ec ff ff    	mov    %eax,-0x1398(%rbp)
    bcdc:	48 8b 85 08 f5 ff ff 	mov    -0xaf8(%rbp),%rax
    bce3:	48 39 85 b8 eb ff ff 	cmp    %rax,-0x1448(%rbp)
    bcea:	0f 95 c0             	setne  %al
    bced:	0f b6 c0             	movzbl %al,%eax
    bcf0:	89 85 38 ec ff ff    	mov    %eax,-0x13c8(%rbp)
    bcf6:	8b 85 38 ec ff ff    	mov    -0x13c8(%rbp),%eax
    bcfc:	0f be c0             	movsbl %al,%eax
    bcff:	89 de                	mov    %ebx,%esi
    bd01:	89 c7                	mov    %eax,%edi
    bd03:	e8 ea b4 ff ff       	callq  71f2 <safe_sub_func_int8_t_s_s>
    bd08:	0f be c0             	movsbl %al,%eax
    bd0b:	09 85 6c ec ff ff    	or     %eax,-0x1394(%rbp)
    bd11:	48 8b 05 18 ce 00 00 	mov    0xce18(%rip),%rax        # 18b30 <g_2495>
    bd18:	48 83 c0 01          	add    $0x1,%rax
    bd1c:	48 89 05 0d ce 00 00 	mov    %rax,0xce0d(%rip)        # 18b30 <g_2495>
    bd23:	48 8b 05 06 ce 00 00 	mov    0xce06(%rip),%rax        # 18b30 <g_2495>
    bd2a:	48 83 f8 02          	cmp    $0x2,%rax
    bd2e:	0f 86 f1 fc ff ff    	jbe    ba25 <func_65+0x223a>
    bd34:	8b 05 b6 99 00 00    	mov    0x99b6(%rip),%eax        # 156f0 <g_1752>
    bd3a:	85 c0                	test   %eax,%eax
    bd3c:	74 05                	je     bd43 <func_65+0x2558>
    bd3e:	e9 83 df ff ff       	jmpq   9cc6 <func_65+0x4db>
    bd43:	48 8b 05 7e b9 00 00 	mov    0xb97e(%rip),%rax        # 176c8 <g_20>
    bd4a:	48 8b 95 60 f4 ff ff 	mov    -0xba0(%rbp),%rdx
    bd51:	48 89 10             	mov    %rdx,(%rax)
    bd54:	8b 05 4e cd 00 00    	mov    0xcd4e(%rip),%eax        # 18aa8 <g_174>
    bd5a:	0f b6 c0             	movzbl %al,%eax
    bd5d:	be 07 00 00 00       	mov    $0x7,%esi
    bd62:	89 c7                	mov    %eax,%edi
    bd64:	e8 f1 bd ff ff       	callq  7b5a <safe_add_func_uint8_t_u_u>
    bd69:	0f b6 c0             	movzbl %al,%eax
    bd6c:	89 05 36 cd 00 00    	mov    %eax,0xcd36(%rip)        # 18aa8 <g_174>
    bd72:	8b 05 30 cd 00 00    	mov    0xcd30(%rip),%eax        # 18aa8 <g_174>
    bd78:	83 f8 1e             	cmp    $0x1e,%eax
    bd7b:	0f 86 36 f6 ff ff    	jbe    b3b7 <func_65+0x1bcc>
    bd81:	0f b6 05 f8 92 00 00 	movzbl 0x92f8(%rip),%eax        # 15080 <g_42>
    bd88:	83 c0 01             	add    $0x1,%eax
    bd8b:	88 05 ef 92 00 00    	mov    %al,0x92ef(%rip)        # 15080 <g_42>
    bd91:	0f b6 05 e8 92 00 00 	movzbl 0x92e8(%rip),%eax        # 15080 <g_42>
    bd98:	84 c0                	test   %al,%al
    bd9a:	0f 8e 31 e6 ff ff    	jle    a3d1 <func_65+0xbe6>
    bda0:	e9 d0 00 00 00       	jmpq   be75 <func_65+0x268a>
    bda5:	c7 85 10 ec ff ff f8 	movl   $0xfffffff8,-0x13f0(%rbp)
    bdac:	ff ff ff 
    bdaf:	c7 85 14 ec ff ff 11 	movl   $0xbe95a311,-0x13ec(%rbp)
    bdb6:	a3 95 be 
    bdb9:	c7 85 18 ec ff ff fb 	movl   $0xfffffffb,-0x13e8(%rbp)
    bdc0:	ff ff ff 
    bdc3:	c7 85 1c ec ff ff 99 	movl   $0x174e8299,-0x13e4(%rbp)
    bdca:	82 4e 17 
    bdcd:	c7 85 20 ec ff ff fc 	movl   $0xfffffffc,-0x13e0(%rbp)
    bdd4:	ff ff ff 
    bdd7:	c7 85 24 ec ff ff 05 	movl   $0x5,-0x13dc(%rbp)
    bdde:	00 00 00 
    bde1:	c7 85 28 ec ff ff 01 	movl   $0x1,-0x13d8(%rbp)
    bde8:	00 00 00 
    bdeb:	c7 85 2c ec ff ff f7 	movl   $0xfffffff7,-0x13d4(%rbp)
    bdf2:	ff ff ff 
    bdf5:	c7 85 30 ec ff ff 1d 	movl   $0x89167f1d,-0x13d0(%rbp)
    bdfc:	7f 16 89 
    bdff:	c7 85 34 ec ff ff fd 	movl   $0x124c91fd,-0x13cc(%rbp)
    be06:	91 4c 12 
    be09:	c7 85 00 ec ff ff 00 	movl   $0x0,-0x1400(%rbp)
    be10:	00 00 00 
    be13:	eb 1a                	jmp    be2f <func_65+0x2644>
    be15:	8b 85 00 ec ff ff    	mov    -0x1400(%rbp),%eax
    be1b:	48 98                	cltq   
    be1d:	c7 84 85 c0 f4 ff ff 	movl   $0xe5818166,-0xb40(%rbp,%rax,4)
    be24:	66 81 81 e5 
    be28:	83 85 00 ec ff ff 01 	addl   $0x1,-0x1400(%rbp)
    be2f:	83 bd 00 ec ff ff 02 	cmpl   $0x2,-0x1400(%rbp)
    be36:	7e dd                	jle    be15 <func_65+0x262a>
    be38:	48 8b 85 a0 eb ff ff 	mov    -0x1460(%rbp),%rax
    be3f:	48 8b 10             	mov    (%rax),%rdx
    be42:	48 8b 85 a0 eb ff ff 	mov    -0x1460(%rbp),%rax
    be49:	48 89 10             	mov    %rdx,(%rax)
    be4c:	48 8b 05 cd b9 00 00 	mov    0xb9cd(%rip),%rax        # 17820 <g_1209>
    be53:	c7 00 f9 ff ff ff    	movl   $0xfffffff9,(%rax)
    be59:	c7 85 10 ec ff ff f9 	movl   $0xfffffff9,-0x13f0(%rbp)
    be60:	ff ff ff 
    be63:	8b 05 9f 98 00 00    	mov    0x989f(%rip),%eax        # 15708 <g_2556>
    be69:	83 c0 01             	add    $0x1,%eax
    be6c:	89 05 96 98 00 00    	mov    %eax,0x9896(%rip)        # 15708 <g_2556>
    be72:	eb 01                	jmp    be75 <func_65+0x268a>
    be74:	90                   	nop
    be75:	48 8b 1d a4 b9 00 00 	mov    0xb9a4(%rip),%rbx        # 17820 <g_1209>
    be7c:	be 00 00 00 00       	mov    $0x0,%esi
    be81:	bf 19 8e 8c 23       	mov    $0x238c8e19,%edi
    be86:	e8 2b b7 ff ff       	callq  75b6 <safe_add_func_int32_t_s_s>
    be8b:	89 03                	mov    %eax,(%rbx)
    be8d:	0f b7 05 58 98 00 00 	movzwl 0x9858(%rip),%eax        # 156ec <g_1670>
    be94:	48 0f bf c0          	movswq %ax,%rax
    be98:	48 8b 5d c8          	mov    -0x38(%rbp),%rbx
    be9c:	64 48 33 1c 25 28 00 	xor    %fs:0x28,%rbx
    bea3:	00 00 
    bea5:	74 05                	je     beac <func_65+0x26c1>
    bea7:	e8 c4 b1 ff ff       	callq  7070 <__stack_chk_fail@plt>
    beac:	48 81 c4 58 14 00 00 	add    $0x1458,%rsp
    beb3:	5b                   	pop    %rbx
    beb4:	41 5c                	pop    %r12
    beb6:	41 5d                	pop    %r13
    beb8:	41 5e                	pop    %r14
    beba:	41 5f                	pop    %r15
    bebc:	5d                   	pop    %rbp
    bebd:	c3                   	retq   

000000000000bebe <func_71>:
    bebe:	f3 0f 1e fa          	endbr64 
    bec2:	55                   	push   %rbp
    bec3:	48 89 e5             	mov    %rsp,%rbp
    bec6:	41 57                	push   %r15
    bec8:	41 56                	push   %r14
    beca:	41 55                	push   %r13
    becc:	41 54                	push   %r12
    bece:	53                   	push   %rbx
    becf:	48 81 ec 88 00 00 00 	sub    $0x88,%rsp
    bed6:	48 89 bd 58 ff ff ff 	mov    %rdi,-0xa8(%rbp)
    bedd:	48 89 b5 50 ff ff ff 	mov    %rsi,-0xb0(%rbp)
    bee4:	64 48 8b 04 25 28 00 	mov    %fs:0x28,%rax
    beeb:	00 00 
    beed:	48 89 45 c8          	mov    %rax,-0x38(%rbp)
    bef1:	31 c0                	xor    %eax,%eax
    bef3:	48 8d 05 e6 cb 00 00 	lea    0xcbe6(%rip),%rax        # 18ae0 <g_947>
    befa:	48 89 85 78 ff ff ff 	mov    %rax,-0x88(%rbp)
    bf01:	48 c7 45 80 00 00 00 	movq   $0x0,-0x80(%rbp)
    bf08:	00 
    bf09:	48 c7 45 88 00 00 00 	movq   $0x0,-0x78(%rbp)
    bf10:	00 
    bf11:	48 8d 05 78 97 00 00 	lea    0x9778(%rip),%rax        # 15690 <g_1355>
    bf18:	48 89 45 90          	mov    %rax,-0x70(%rbp)
    bf1c:	c7 85 6c ff ff ff cb 	movl   $0x813249cb,-0x94(%rbp)
    bf23:	49 32 81 
    bf26:	48 b8 fb ba 49 da 7a 	movabs $0x1c72127ada49bafb,%rax
    bf2d:	12 72 1c 
    bf30:	48 89 45 98          	mov    %rax,-0x68(%rbp)
    bf34:	c7 85 74 ff ff ff ff 	movl   $0xffffffff,-0x8c(%rbp)
    bf3b:	ff ff ff 
    bf3e:	c7 85 70 ff ff ff 00 	movl   $0x0,-0x90(%rbp)
    bf45:	00 00 00 
    bf48:	eb 1b                	jmp    bf65 <func_71+0xa7>
    bf4a:	8b 85 70 ff ff ff    	mov    -0x90(%rbp),%eax
    bf50:	48 98                	cltq   
    bf52:	48 8d 15 2f 91 00 00 	lea    0x912f(%rip),%rdx        # 15088 <g_51>
    bf59:	48 89 54 c5 a0       	mov    %rdx,-0x60(%rbp,%rax,8)
    bf5e:	83 85 70 ff ff ff 01 	addl   $0x1,-0x90(%rbp)
    bf65:	83 bd 70 ff ff ff 03 	cmpl   $0x3,-0x90(%rbp)
    bf6c:	7e dc                	jle    bf4a <func_71+0x8c>
    bf6e:	48 8b 45 98          	mov    -0x68(%rbp),%rax
    bf72:	0f bf d8             	movswl %ax,%ebx
    bf75:	48 8d 05 6c b8 00 00 	lea    0xb86c(%rip),%rax        # 177e8 <g_944+0x8>
    bf7c:	48 89 45 88          	mov    %rax,-0x78(%rbp)
    bf80:	48 8b 45 88          	mov    -0x78(%rbp),%rax
    bf84:	48 3b 85 78 ff ff ff 	cmp    -0x88(%rbp),%rax
    bf8b:	0f 95 c0             	setne  %al
    bf8e:	0f b6 d0             	movzbl %al,%edx
    bf91:	8b 05 59 97 00 00    	mov    0x9759(%rip),%eax        # 156f0 <g_1752>
    bf97:	39 c2                	cmp    %eax,%edx
    bf99:	0f 97 c0             	seta   %al
    bf9c:	0f b6 d0             	movzbl %al,%edx
    bf9f:	48 8b 45 90          	mov    -0x70(%rbp),%rax
    bfa3:	66 89 10             	mov    %dx,(%rax)
    bfa6:	48 8b 45 90          	mov    -0x70(%rbp),%rax
    bfaa:	0f b7 00             	movzwl (%rax),%eax
    bfad:	66 85 c0             	test   %ax,%ax
    bfb0:	0f 85 ef 00 00 00    	jne    c0a5 <func_71+0x1e7>
    bfb6:	48 8b 45 98          	mov    -0x68(%rbp),%rax
    bfba:	41 89 c6             	mov    %eax,%r14d
    bfbd:	48 8b 45 98          	mov    -0x68(%rbp),%rax
    bfc1:	44 0f be e0          	movsbl %al,%r12d
    bfc5:	44 8b ad 6c ff ff ff 	mov    -0x94(%rbp),%r13d
    bfcc:	48 8b 45 98          	mov    -0x68(%rbp),%rax
    bfd0:	41 89 c7             	mov    %eax,%r15d
    bfd3:	48 8b 45 98          	mov    -0x68(%rbp),%rax
    bfd7:	98                   	cwtl   
    bfd8:	89 c6                	mov    %eax,%esi
    bfda:	bf 01 00 00 00       	mov    $0x1,%edi
    bfdf:	e8 11 b4 ff ff       	callq  73f5 <safe_mul_func_int16_t_s_s>
    bfe4:	48 8b 45 98          	mov    -0x68(%rbp),%rax
    bfe8:	0f be c0             	movsbl %al,%eax
    bfeb:	83 e0 01             	and    $0x1,%eax
    bfee:	44 89 fe             	mov    %r15d,%esi
    bff1:	89 c7                	mov    %eax,%edi
    bff3:	e8 f6 b2 ff ff       	callq  72ee <safe_lshift_func_int8_t_s_u>
    bff8:	66 98                	cbtw   
    bffa:	0f b7 c0             	movzwl %ax,%eax
    bffd:	44 89 ee             	mov    %r13d,%esi
    c000:	89 c7                	mov    %eax,%edi
    c002:	e8 b7 bd ff ff       	callq  7dbe <safe_lshift_func_uint16_t_u_s>
    c007:	0f be c0             	movsbl %al,%eax
    c00a:	44 89 e6             	mov    %r12d,%esi
    c00d:	89 c7                	mov    %eax,%edi
    c00f:	e8 c0 b1 ff ff       	callq  71d4 <safe_add_func_int8_t_s_s>
    c014:	c7 85 6c ff ff ff 00 	movl   $0x0,-0x94(%rbp)
    c01b:	00 00 00 
    c01e:	8b 85 6c ff ff ff    	mov    -0x94(%rbp),%eax
    c024:	48 98                	cltq   
    c026:	48 8b 55 98          	mov    -0x68(%rbp),%rdx
    c02a:	48 89 d6             	mov    %rdx,%rsi
    c02d:	48 89 c7             	mov    %rax,%rdi
    c030:	e8 7a c0 ff ff       	callq  80af <safe_div_func_uint64_t_u_u>
    c035:	48 85 c0             	test   %rax,%rax
    c038:	0f 94 c0             	sete   %al
    c03b:	89 c2                	mov    %eax,%edx
    c03d:	48 8b 85 50 ff ff ff 	mov    -0xb0(%rbp),%rax
    c044:	88 10                	mov    %dl,(%rax)
    c046:	48 8b 85 50 ff ff ff 	mov    -0xb0(%rbp),%rax
    c04d:	0f b6 00             	movzbl (%rax),%eax
    c050:	83 f0 08             	xor    $0x8,%eax
    c053:	0f be c0             	movsbl %al,%eax
    c056:	44 89 f6             	mov    %r14d,%esi
    c059:	89 c7                	mov    %eax,%edi
    c05b:	e8 8e b2 ff ff       	callq  72ee <safe_lshift_func_int8_t_s_u>
    c060:	48 0f be c0          	movsbq %al,%rax
    c064:	25 0d 45 00 00       	and    $0x450d,%eax
    c069:	48 39 45 98          	cmp    %rax,-0x68(%rbp)
    c06d:	0f 95 c0             	setne  %al
    c070:	0f b6 c0             	movzbl %al,%eax
    c073:	48 39 45 98          	cmp    %rax,-0x68(%rbp)
    c077:	0f 94 c0             	sete   %al
    c07a:	0f b6 c0             	movzbl %al,%eax
    c07d:	09 85 74 ff ff ff    	or     %eax,-0x8c(%rbp)
    c083:	0f b6 05 8e 90 00 00 	movzbl 0x908e(%rip),%eax        # 15118 <g_154>
    c08a:	0f b6 d0             	movzbl %al,%edx
    c08d:	48 b8 ae c8 51 43 72 	movabs $0xb079d0724351c8ae,%rax
    c094:	d0 79 b0 
    c097:	48 39 45 98          	cmp    %rax,-0x68(%rbp)
    c09b:	0f 97 c0             	seta   %al
    c09e:	0f b6 c0             	movzbl %al,%eax
    c0a1:	39 c2                	cmp    %eax,%edx
    c0a3:	75 07                	jne    c0ac <func_71+0x1ee>
    c0a5:	b8 01 00 00 00       	mov    $0x1,%eax
    c0aa:	eb 05                	jmp    c0b1 <func_71+0x1f3>
    c0ac:	b8 00 00 00 00       	mov    $0x0,%eax
    c0b1:	98                   	cwtl   
    c0b2:	89 de                	mov    %ebx,%esi
    c0b4:	89 c7                	mov    %eax,%edi
    c0b6:	e8 5b b3 ff ff       	callq  7416 <safe_mod_func_int16_t_s_s>
    c0bb:	0f bf d0             	movswl %ax,%edx
    c0be:	8b 05 68 8f 00 00    	mov    0x8f68(%rip),%eax        # 1502c <g_9>
    c0c4:	39 c2                	cmp    %eax,%edx
    c0c6:	0f 94 c2             	sete   %dl
    c0c9:	48 8b 05 50 b7 00 00 	mov    0xb750(%rip),%rax        # 17820 <g_1209>
    c0d0:	0f b6 d2             	movzbl %dl,%edx
    c0d3:	89 10                	mov    %edx,(%rax)
    c0d5:	48 8b 05 ec b5 00 00 	mov    0xb5ec(%rip),%rax        # 176c8 <g_20>
    c0dc:	48 8d 95 6c ff ff ff 	lea    -0x94(%rbp),%rdx
    c0e3:	48 89 10             	mov    %rdx,(%rax)
    c0e6:	48 8b 85 50 ff ff ff 	mov    -0xb0(%rbp),%rax
    c0ed:	48 8b 4d c8          	mov    -0x38(%rbp),%rcx
    c0f1:	64 48 33 0c 25 28 00 	xor    %fs:0x28,%rcx
    c0f8:	00 00 
    c0fa:	74 05                	je     c101 <func_71+0x243>
    c0fc:	e8 6f af ff ff       	callq  7070 <__stack_chk_fail@plt>
    c101:	48 81 c4 88 00 00 00 	add    $0x88,%rsp
    c108:	5b                   	pop    %rbx
    c109:	41 5c                	pop    %r12
    c10b:	41 5d                	pop    %r13
    c10d:	41 5e                	pop    %r14
    c10f:	41 5f                	pop    %r15
    c111:	5d                   	pop    %rbp
    c112:	c3                   	retq   

000000000000c113 <func_74>:
    c113:	f3 0f 1e fa          	endbr64 
    c117:	55                   	push   %rbp
    c118:	48 89 e5             	mov    %rsp,%rbp
    c11b:	48 81 ec 00 02 00 00 	sub    $0x200,%rsp
    c122:	48 89 bd 18 fe ff ff 	mov    %rdi,-0x1e8(%rbp)
    c129:	89 f0                	mov    %esi,%eax
    c12b:	48 89 95 08 fe ff ff 	mov    %rdx,-0x1f8(%rbp)
    c132:	89 8d 10 fe ff ff    	mov    %ecx,-0x1f0(%rbp)
    c138:	4c 89 85 00 fe ff ff 	mov    %r8,-0x200(%rbp)
    c13f:	66 89 85 14 fe ff ff 	mov    %ax,-0x1ec(%rbp)
    c146:	64 48 8b 04 25 28 00 	mov    %fs:0x28,%rax
    c14d:	00 00 
    c14f:	48 89 45 f8          	mov    %rax,-0x8(%rbp)
    c153:	31 c0                	xor    %eax,%eax
    c155:	48 8d 05 cc 8e 00 00 	lea    0x8ecc(%rip),%rax        # 15028 <g_3>
    c15c:	48 89 85 58 fe ff ff 	mov    %rax,-0x1a8(%rbp)
    c163:	c7 85 30 fe ff ff fd 	movl   $0x22bda4fd,-0x1d0(%rbp)
    c16a:	a4 bd 22 
    c16d:	66 c7 85 2a fe ff ff 	movw   $0xb153,-0x1d6(%rbp)
    c174:	53 b1 
    c176:	48 8d 05 03 8f 00 00 	lea    0x8f03(%rip),%rax        # 15080 <g_42>
    c17d:	48 89 85 60 fe ff ff 	mov    %rax,-0x1a0(%rbp)
    c184:	48 8d 05 6d 8f 00 00 	lea    0x8f6d(%rip),%rax        # 150f8 <g_108>
    c18b:	48 89 85 68 fe ff ff 	mov    %rax,-0x198(%rbp)
    c192:	48 8d 85 30 fe ff ff 	lea    -0x1d0(%rbp),%rax
    c199:	48 89 85 70 fe ff ff 	mov    %rax,-0x190(%rbp)
    c1a0:	c7 85 38 fe ff ff a9 	movl   $0xdec2e1a9,-0x1c8(%rbp)
    c1a7:	e1 c2 de 
    c1aa:	48 b8 a3 81 5f f9 03 	movabs $0xaa72fb03f95f81a3,%rax
    c1b1:	fb 72 aa 
    c1b4:	48 89 85 78 fe ff ff 	mov    %rax,-0x188(%rbp)
    c1bb:	c7 85 3c fe ff ff 05 	movl   $0x5,-0x1c4(%rbp)
    c1c2:	00 00 00 
    c1c5:	48 8d 05 a4 b5 00 00 	lea    0xb5a4(%rip),%rax        # 17770 <g_845>
    c1cc:	48 89 85 80 fe ff ff 	mov    %rax,-0x180(%rbp)
    c1d3:	48 8d 05 96 b6 00 00 	lea    0xb696(%rip),%rax        # 17870 <g_1299+0x30>
    c1da:	48 89 85 88 fe ff ff 	mov    %rax,-0x178(%rbp)
    c1e1:	66 c7 85 2c fe ff ff 	movw   $0xfffe,-0x1d4(%rbp)
    c1e8:	fe ff 
    c1ea:	48 c7 85 90 fe ff ff 	movq   $0x0,-0x170(%rbp)
    c1f1:	00 00 00 00 
    c1f5:	48 8d 05 fc c8 00 00 	lea    0xc8fc(%rip),%rax        # 18af8 <g_1661>
    c1fc:	48 89 85 98 fe ff ff 	mov    %rax,-0x168(%rbp)
    c203:	48 8d 05 e2 94 00 00 	lea    0x94e2(%rip),%rax        # 156ec <g_1670>
    c20a:	48 89 85 48 fe ff ff 	mov    %rax,-0x1b8(%rbp)
    c211:	48 8d 85 48 fe ff ff 	lea    -0x1b8(%rbp),%rax
    c218:	48 89 85 50 fe ff ff 	mov    %rax,-0x1b0(%rbp)
    c21f:	48 8d 85 50 fe ff ff 	lea    -0x1b0(%rbp),%rax
    c226:	48 89 85 a0 fe ff ff 	mov    %rax,-0x160(%rbp)
    c22d:	66 c7 45 80 f8 ff    	movw   $0xfff8,-0x80(%rbp)
    c233:	66 c7 45 82 01 00    	movw   $0x1,-0x7e(%rbp)
    c239:	66 c7 45 84 f3 e6    	movw   $0xe6f3,-0x7c(%rbp)
    c23f:	66 c7 45 86 de db    	movw   $0xdbde,-0x7a(%rbp)
    c245:	66 c7 45 88 de db    	movw   $0xdbde,-0x78(%rbp)
    c24b:	66 c7 45 8a f3 e6    	movw   $0xe6f3,-0x76(%rbp)
    c251:	66 c7 45 8c 01 00    	movw   $0x1,-0x74(%rbp)
    c257:	66 c7 45 8e de db    	movw   $0xdbde,-0x72(%rbp)
    c25d:	66 c7 45 90 f8 ff    	movw   $0xfff8,-0x70(%rbp)
    c263:	66 c7 45 92 09 00    	movw   $0x9,-0x6e(%rbp)
    c269:	66 c7 45 94 08 00    	movw   $0x8,-0x6c(%rbp)
    c26f:	66 c7 45 96 ff ff    	movw   $0xffff,-0x6a(%rbp)
    c275:	66 c7 45 98 fb ff    	movw   $0xfffb,-0x68(%rbp)
    c27b:	66 c7 45 9a fb ff    	movw   $0xfffb,-0x66(%rbp)
    c281:	66 c7 45 9c 09 00    	movw   $0x9,-0x64(%rbp)
    c287:	66 c7 45 9e f8 ff    	movw   $0xfff8,-0x62(%rbp)
    c28d:	66 c7 45 a0 de db    	movw   $0xdbde,-0x60(%rbp)
    c293:	66 c7 45 a2 f8 ff    	movw   $0xfff8,-0x5e(%rbp)
    c299:	66 c7 45 a4 09 00    	movw   $0x9,-0x5c(%rbp)
    c29f:	66 c7 45 a6 08 00    	movw   $0x8,-0x5a(%rbp)
    c2a5:	66 c7 45 a8 ff ff    	movw   $0xffff,-0x58(%rbp)
    c2ab:	66 c7 45 aa f3 e6    	movw   $0xe6f3,-0x56(%rbp)
    c2b1:	66 c7 45 ac 01 00    	movw   $0x1,-0x54(%rbp)
    c2b7:	66 c7 45 ae f8 ff    	movw   $0xfff8,-0x52(%rbp)
    c2bd:	66 c7 45 b0 08 00    	movw   $0x8,-0x50(%rbp)
    c2c3:	66 c7 45 b2 a0 fd    	movw   $0xfda0,-0x4e(%rbp)
    c2c9:	66 c7 45 b4 08 00    	movw   $0x8,-0x4c(%rbp)
    c2cf:	66 c7 45 b6 f8 ff    	movw   $0xfff8,-0x4a(%rbp)
    c2d5:	66 c7 45 b8 ff ff    	movw   $0xffff,-0x48(%rbp)
    c2db:	66 c7 45 ba ff ff    	movw   $0xffff,-0x46(%rbp)
    c2e1:	66 c7 45 bc 30 86    	movw   $0x8630,-0x44(%rbp)
    c2e7:	66 c7 45 be de db    	movw   $0xdbde,-0x42(%rbp)
    c2ed:	66 c7 45 c0 01 00    	movw   $0x1,-0x40(%rbp)
    c2f3:	66 c7 45 c2 fb ff    	movw   $0xfffb,-0x3e(%rbp)
    c2f9:	66 c7 45 c4 f3 e6    	movw   $0xe6f3,-0x3c(%rbp)
    c2ff:	66 c7 45 c6 f3 e6    	movw   $0xe6f3,-0x3a(%rbp)
    c305:	66 c7 45 c8 30 86    	movw   $0x8630,-0x38(%rbp)
    c30b:	66 c7 45 ca ff ff    	movw   $0xffff,-0x36(%rbp)
    c311:	66 c7 45 cc ff ff    	movw   $0xffff,-0x34(%rbp)
    c317:	66 c7 45 ce 30 86    	movw   $0x8630,-0x32(%rbp)
    c31d:	66 c7 45 d0 de db    	movw   $0xdbde,-0x30(%rbp)
    c323:	66 c7 45 d2 01 00    	movw   $0x1,-0x2e(%rbp)
    c329:	66 c7 45 d4 f3 e6    	movw   $0xe6f3,-0x2c(%rbp)
    c32f:	66 c7 45 d6 ff ff    	movw   $0xffff,-0x2a(%rbp)
    c335:	66 c7 45 d8 e4 87    	movw   $0x87e4,-0x28(%rbp)
    c33b:	66 c7 45 da 01 00    	movw   $0x1,-0x26(%rbp)
    c341:	66 c7 45 dc 09 00    	movw   $0x9,-0x24(%rbp)
    c347:	66 c7 45 de 09 00    	movw   $0x9,-0x22(%rbp)
    c34d:	66 c7 45 e0 01 00    	movw   $0x1,-0x20(%rbp)
    c353:	c7 85 40 fe ff ff 04 	movl   $0x4,-0x1c0(%rbp)
    c35a:	00 00 00 
    c35d:	c7 85 e0 fe ff ff f8 	movl   $0xfffffff8,-0x120(%rbp)
    c364:	ff ff ff 
    c367:	c7 85 e4 fe ff ff f6 	movl   $0xfffffff6,-0x11c(%rbp)
    c36e:	ff ff ff 
    c371:	c7 85 e8 fe ff ff f8 	movl   $0xfffffff8,-0x118(%rbp)
    c378:	ff ff ff 
    c37b:	c7 85 ec fe ff ff f6 	movl   $0xfffffff6,-0x114(%rbp)
    c382:	ff ff ff 
    c385:	c7 85 f0 fe ff ff f8 	movl   $0xfffffff8,-0x110(%rbp)
    c38c:	ff ff ff 
    c38f:	c7 85 f4 fe ff ff f6 	movl   $0xfffffff6,-0x10c(%rbp)
    c396:	ff ff ff 
    c399:	c7 85 f8 fe ff ff f8 	movl   $0xfffffff8,-0x108(%rbp)
    c3a0:	ff ff ff 
    c3a3:	c7 85 fc fe ff ff f6 	movl   $0xfffffff6,-0x104(%rbp)
    c3aa:	ff ff ff 
    c3ad:	48 b8 1f 28 e7 20 7d 	movabs $0x9b15547d20e7281f,%rax
    c3b4:	54 15 9b 
    c3b7:	48 89 85 a8 fe ff ff 	mov    %rax,-0x158(%rbp)
    c3be:	48 b8 bf bc 6c 02 20 	movabs $0x6da6c720026cbcbf,%rax
    c3c5:	c7 a6 6d 
    c3c8:	48 89 85 b0 fe ff ff 	mov    %rax,-0x150(%rbp)
    c3cf:	48 b8 5a fd 5a fd 5a 	movabs $0xfd5afd5afd5afd5a,%rax
    c3d6:	fd 5a fd 
    c3d9:	48 89 45 e5          	mov    %rax,-0x1b(%rbp)
    c3dd:	c6 45 ed 5a          	movb   $0x5a,-0x13(%rbp)
    c3e1:	48 b8 30 30 30 30 30 	movabs $0x3030303030303030,%rax
    c3e8:	30 30 30 
    c3eb:	48 89 45 ee          	mov    %rax,-0x12(%rbp)
    c3ef:	66 c7 45 f6 30 30    	movw   $0x3030,-0xa(%rbp)
    c3f5:	66 c7 85 2e fe ff ff 	movw   $0xfff7,-0x1d2(%rbp)
    c3fc:	f7 ff 
    c3fe:	c7 85 44 fe ff ff 01 	movl   $0x1,-0x1bc(%rbp)
    c405:	00 00 00 
    c408:	c7 85 34 fe ff ff 00 	movl   $0x0,-0x1cc(%rbp)
    c40f:	00 00 00 
    c412:	eb 1e                	jmp    c432 <func_74+0x31f>
    c414:	8b 85 34 fe ff ff    	mov    -0x1cc(%rbp),%eax
    c41a:	48 98                	cltq   
    c41c:	48 8d 15 dd 8c 00 00 	lea    0x8cdd(%rip),%rdx        # 15100 <g_111>
    c423:	48 89 94 c5 c0 fe ff 	mov    %rdx,-0x140(%rbp,%rax,8)
    c42a:	ff 
    c42b:	83 85 34 fe ff ff 01 	addl   $0x1,-0x1cc(%rbp)
    c432:	83 bd 34 fe ff ff 02 	cmpl   $0x2,-0x1cc(%rbp)
    c439:	7e d9                	jle    c414 <func_74+0x301>
    c43b:	c7 85 34 fe ff ff 00 	movl   $0x0,-0x1cc(%rbp)
    c442:	00 00 00 
    c445:	eb 1e                	jmp    c465 <func_74+0x352>
    c447:	8b 85 34 fe ff ff    	mov    -0x1cc(%rbp),%eax
    c44d:	48 98                	cltq   
    c44f:	48 8d 15 72 b2 00 00 	lea    0xb272(%rip),%rdx        # 176c8 <g_20>
    c456:	48 89 94 c5 00 ff ff 	mov    %rdx,-0x100(%rbp,%rax,8)
    c45d:	ff 
    c45e:	83 85 34 fe ff ff 01 	addl   $0x1,-0x1cc(%rbp)
    c465:	83 bd 34 fe ff ff 04 	cmpl   $0x4,-0x1cc(%rbp)
    c46c:	7e d9                	jle    c447 <func_74+0x334>
    c46e:	c7 85 34 fe ff ff 00 	movl   $0x0,-0x1cc(%rbp)
    c475:	00 00 00 
    c478:	eb 1e                	jmp    c498 <func_74+0x385>
    c47a:	8b 85 34 fe ff ff    	mov    -0x1cc(%rbp),%eax
    c480:	48 98                	cltq   
    c482:	48 8d 15 f7 8b 00 00 	lea    0x8bf7(%rip),%rdx        # 15080 <g_42>
    c489:	48 89 94 c5 30 ff ff 	mov    %rdx,-0xd0(%rbp,%rax,8)
    c490:	ff 
    c491:	83 85 34 fe ff ff 01 	addl   $0x1,-0x1cc(%rbp)
    c498:	83 bd 34 fe ff ff 09 	cmpl   $0x9,-0x1cc(%rbp)
    c49f:	7e d9                	jle    c47a <func_74+0x367>
    c4a1:	c7 85 34 fe ff ff 00 	movl   $0x0,-0x1cc(%rbp)
    c4a8:	00 00 00 
    c4ab:	eb 19                	jmp    c4c6 <func_74+0x3b3>
    c4ad:	8b 85 34 fe ff ff    	mov    -0x1cc(%rbp),%eax
    c4b3:	48 98                	cltq   
    c4b5:	66 c7 84 45 be fe ff 	movw   $0xffff,-0x142(%rbp,%rax,2)
    c4bc:	ff ff ff 
    c4bf:	83 85 34 fe ff ff 01 	addl   $0x1,-0x1cc(%rbp)
    c4c6:	83 bd 34 fe ff ff 00 	cmpl   $0x0,-0x1cc(%rbp)
    c4cd:	7e de                	jle    c4ad <func_74+0x39a>
    c4cf:	48 8b 85 80 fe ff ff 	mov    -0x180(%rbp),%rax
    c4d6:	48 8b 00             	mov    (%rax),%rax
    c4d9:	48 8b 00             	mov    (%rax),%rax
    c4dc:	48 8b 4d f8          	mov    -0x8(%rbp),%rcx
    c4e0:	64 48 33 0c 25 28 00 	xor    %fs:0x28,%rcx
    c4e7:	00 00 
    c4e9:	74 05                	je     c4f0 <func_74+0x3dd>
    c4eb:	e8 80 ab ff ff       	callq  7070 <__stack_chk_fail@plt>
    c4f0:	c9                   	leaveq 
    c4f1:	c3                   	retq   

000000000000c4f2 <func_87>:
    c4f2:	f3 0f 1e fa          	endbr64 
    c4f6:	55                   	push   %rbp
    c4f7:	48 89 e5             	mov    %rsp,%rbp
    c4fa:	41 56                	push   %r14
    c4fc:	41 55                	push   %r13
    c4fe:	41 54                	push   %r12
    c500:	53                   	push   %rbx
    c501:	48 81 ec a0 01 00 00 	sub    $0x1a0,%rsp
    c508:	48 89 bd 58 fe ff ff 	mov    %rdi,-0x1a8(%rbp)
    c50f:	89 b5 54 fe ff ff    	mov    %esi,-0x1ac(%rbp)
    c515:	48 89 95 48 fe ff ff 	mov    %rdx,-0x1b8(%rbp)
    c51c:	48 89 8d 40 fe ff ff 	mov    %rcx,-0x1c0(%rbp)
    c523:	64 48 8b 04 25 28 00 	mov    %fs:0x28,%rax
    c52a:	00 00 
    c52c:	48 89 45 d8          	mov    %rax,-0x28(%rbp)
    c530:	31 c0                	xor    %eax,%eax
    c532:	66 c7 85 68 fe ff ff 	movw   $0xaad0,-0x198(%rbp)
    c539:	d0 aa 
    c53b:	c7 85 78 fe ff ff f6 	movl   $0xfffffff6,-0x188(%rbp)
    c542:	ff ff ff 
    c545:	48 b8 06 ac ca 79 73 	movabs $0x5595c37379caac06,%rax
    c54c:	c3 95 55 
    c54f:	48 89 85 98 fe ff ff 	mov    %rax,-0x168(%rbp)
    c556:	c6 85 62 fe ff ff ff 	movb   $0xff,-0x19e(%rbp)
    c55d:	66 c7 85 6a fe ff ff 	movw   $0xffff,-0x196(%rbp)
    c564:	ff ff 
    c566:	c6 85 63 fe ff ff 3e 	movb   $0x3e,-0x19d(%rbp)
    c56d:	66 c7 85 6c fe ff ff 	movw   $0x1af6,-0x194(%rbp)
    c574:	f6 1a 
    c576:	c7 85 00 ff ff ff f9 	movl   $0xfffffff9,-0x100(%rbp)
    c57d:	ff ff ff 
    c580:	c7 85 04 ff ff ff f9 	movl   $0xfffffff9,-0xfc(%rbp)
    c587:	ff ff ff 
    c58a:	c7 85 08 ff ff ff 67 	movl   $0xa0b10367,-0xf8(%rbp)
    c591:	03 b1 a0 
    c594:	c7 85 0c ff ff ff f9 	movl   $0xfffffff9,-0xf4(%rbp)
    c59b:	ff ff ff 
    c59e:	c7 85 10 ff ff ff f9 	movl   $0xfffffff9,-0xf0(%rbp)
    c5a5:	ff ff ff 
    c5a8:	c7 85 14 ff ff ff 67 	movl   $0xa0b10367,-0xec(%rbp)
    c5af:	03 b1 a0 
    c5b2:	c7 85 18 ff ff ff f9 	movl   $0xfffffff9,-0xe8(%rbp)
    c5b9:	ff ff ff 
    c5bc:	c7 85 1c ff ff ff f9 	movl   $0xfffffff9,-0xe4(%rbp)
    c5c3:	ff ff ff 
    c5c6:	c7 85 20 ff ff ff 67 	movl   $0xa0b10367,-0xe0(%rbp)
    c5cd:	03 b1 a0 
    c5d0:	c7 85 24 ff ff ff f9 	movl   $0xfffffff9,-0xdc(%rbp)
    c5d7:	ff ff ff 
    c5da:	c6 85 64 fe ff ff 62 	movb   $0x62,-0x19c(%rbp)
    c5e1:	c7 85 7c fe ff ff 82 	movl   $0xe54c6e82,-0x184(%rbp)
    c5e8:	6e 4c e5 
    c5eb:	c7 85 70 fe ff ff 00 	movl   $0x0,-0x190(%rbp)
    c5f2:	00 00 00 
    c5f5:	eb 1e                	jmp    c615 <func_87+0x123>
    c5f7:	8b 85 70 fe ff ff    	mov    -0x190(%rbp),%eax
    c5fd:	48 98                	cltq   
    c5ff:	48 8d 15 0a 8d 00 00 	lea    0x8d0a(%rip),%rdx        # 15310 <g_789>
    c606:	48 89 94 c5 e0 fe ff 	mov    %rdx,-0x120(%rbp,%rax,8)
    c60d:	ff 
    c60e:	83 85 70 fe ff ff 01 	addl   $0x1,-0x190(%rbp)
    c615:	83 bd 70 fe ff ff 02 	cmpl   $0x2,-0x190(%rbp)
    c61c:	7e d9                	jle    c5f7 <func_87+0x105>
    c61e:	c7 05 e8 8a 00 00 01 	movl   $0x1,0x8ae8(%rip)        # 15110 <g_143>
    c625:	00 00 00 
    c628:	e9 08 09 00 00       	jmpq   cf35 <func_87+0xa43>
    c62d:	c7 85 80 fe ff ff 00 	movl   $0x0,-0x180(%rbp)
    c634:	00 00 00 
    c637:	c6 85 65 fe ff ff 96 	movb   $0x96,-0x19b(%rbp)
    c63e:	c7 85 74 fe ff ff 00 	movl   $0x0,-0x18c(%rbp)
    c645:	00 00 00 
    c648:	eb 1e                	jmp    c668 <func_87+0x176>
    c64a:	8b 85 74 fe ff ff    	mov    -0x18c(%rbp),%eax
    c650:	48 98                	cltq   
    c652:	48 8d 15 c9 8a 00 00 	lea    0x8ac9(%rip),%rdx        # 15122 <g_170>
    c659:	48 89 94 c5 30 ff ff 	mov    %rdx,-0xd0(%rbp,%rax,8)
    c660:	ff 
    c661:	83 85 74 fe ff ff 01 	addl   $0x1,-0x18c(%rbp)
    c668:	83 bd 74 fe ff ff 09 	cmpl   $0x9,-0x18c(%rbp)
    c66f:	7e d9                	jle    c64a <func_87+0x158>
    c671:	8b 05 99 8a 00 00    	mov    0x8a99(%rip),%eax        # 15110 <g_143>
    c677:	89 c0                	mov    %eax,%eax
    c679:	48 8d 14 85 00 00 00 	lea    0x0(,%rax,4),%rdx
    c680:	00 
    c681:	48 8d 05 98 8c 00 00 	lea    0x8c98(%rip),%rax        # 15320 <g_1051>
    c688:	8b 04 02             	mov    (%rdx,%rax,1),%eax
    c68b:	85 c0                	test   %eax,%eax
    c68d:	0f 84 ac 07 00 00    	je     ce3f <func_87+0x94d>
    c693:	48 8d 05 0e c4 00 00 	lea    0xc40e(%rip),%rax        # 18aa8 <g_174>
    c69a:	48 89 85 a0 fe ff ff 	mov    %rax,-0x160(%rbp)
    c6a1:	48 8d 05 78 8a 00 00 	lea    0x8a78(%rip),%rax        # 15120 <g_154+0x8>
    c6a8:	48 89 85 a8 fe ff ff 	mov    %rax,-0x158(%rbp)
    c6af:	c7 85 84 fe ff ff 00 	movl   $0x0,-0x17c(%rbp)
    c6b6:	00 00 00 
    c6b9:	48 8d 05 a8 89 00 00 	lea    0x89a8(%rip),%rax        # 15068 <g_14>
    c6c0:	48 89 85 b0 fe ff ff 	mov    %rax,-0x150(%rbp)
    c6c7:	8b 9d 54 fe ff ff    	mov    -0x1ac(%rbp),%ebx
    c6cd:	8b 05 3d 8a 00 00    	mov    0x8a3d(%rip),%eax        # 15110 <g_143>
    c6d3:	89 c0                	mov    %eax,%eax
    c6d5:	48 8d 14 85 00 00 00 	lea    0x0(,%rax,4),%rdx
    c6dc:	00 
    c6dd:	48 8d 05 3c 8c 00 00 	lea    0x8c3c(%rip),%rax        # 15320 <g_1051>
    c6e4:	8b 04 02             	mov    (%rdx,%rax,1),%eax
    c6e7:	41 89 c5             	mov    %eax,%r13d
    c6ea:	48 8b 05 17 b0 00 00 	mov    0xb017(%rip),%rax        # 17708 <g_229>
    c6f1:	c6 00 03             	movb   $0x3,(%rax)
    c6f4:	48 8b 05 5d b0 00 00 	mov    0xb05d(%rip),%rax        # 17758 <g_583>
    c6fb:	0f b6 00             	movzbl (%rax),%eax
    c6fe:	0f b6 c0             	movzbl %al,%eax
    c701:	be 03 00 00 00       	mov    $0x3,%esi
    c706:	89 c7                	mov    %eax,%edi
    c708:	e8 a1 b4 ff ff       	callq  7bae <safe_mod_func_uint8_t_u_u>
    c70d:	0f b6 d0             	movzbl %al,%edx
    c710:	8b 05 1a 8a 00 00    	mov    0x8a1a(%rip),%eax        # 15130 <g_366>
    c716:	39 85 54 fe ff ff    	cmp    %eax,-0x1ac(%rbp)
    c71c:	0f 94 c0             	sete   %al
    c71f:	0f b6 c0             	movzbl %al,%eax
    c722:	89 d6                	mov    %edx,%esi
    c724:	89 c7                	mov    %eax,%edi
    c726:	e8 12 b6 ff ff       	callq  7d3d <safe_mul_func_uint16_t_u_u>
    c72b:	48 8b 85 48 fe ff ff 	mov    -0x1b8(%rbp),%rax
    c732:	0f b6 00             	movzbl (%rax),%eax
    c735:	0f be d0             	movsbl %al,%edx
    c738:	8b 05 d2 89 00 00    	mov    0x89d2(%rip),%eax        # 15110 <g_143>
    c73e:	89 c1                	mov    %eax,%ecx
    c740:	48 8d 05 bc 89 00 00 	lea    0x89bc(%rip),%rax        # 15103 <g_113>
    c747:	0f b6 04 01          	movzbl (%rcx,%rax,1),%eax
    c74b:	83 c8 01             	or     $0x1,%eax
    c74e:	0f b6 c0             	movzbl %al,%eax
    c751:	39 c2                	cmp    %eax,%edx
    c753:	8b 05 b7 89 00 00    	mov    0x89b7(%rip),%eax        # 15110 <g_143>
    c759:	89 c2                	mov    %eax,%edx
    c75b:	48 8d 05 a1 89 00 00 	lea    0x89a1(%rip),%rax        # 15103 <g_113>
    c762:	0f b6 04 02          	movzbl (%rdx,%rax,1),%eax
    c766:	ba 00 00 00 00       	mov    $0x0,%edx
    c76b:	31 d0                	xor    %edx,%eax
    c76d:	44 0f be e0          	movsbl %al,%r12d
    c771:	8b 95 54 fe ff ff    	mov    -0x1ac(%rbp),%edx
    c777:	8b 05 93 89 00 00    	mov    0x8993(%rip),%eax        # 15110 <g_143>
    c77d:	89 c1                	mov    %eax,%ecx
    c77f:	48 8d 05 7d 89 00 00 	lea    0x897d(%rip),%rax        # 15103 <g_113>
    c786:	0f b6 04 01          	movzbl (%rcx,%rax,1),%eax
    c78a:	0f b6 c0             	movzbl %al,%eax
    c78d:	48 89 d6             	mov    %rdx,%rsi
    c790:	48 89 c7             	mov    %rax,%rdi
    c793:	e8 5f b2 ff ff       	callq  79f7 <safe_div_func_int64_t_s_s>
    c798:	0f be c0             	movsbl %al,%eax
    c79b:	44 89 e6             	mov    %r12d,%esi
    c79e:	89 c7                	mov    %eax,%edi
    c7a0:	e8 4d aa ff ff       	callq  71f2 <safe_sub_func_int8_t_s_s>
    c7a5:	0f be d0             	movsbl %al,%edx
    c7a8:	8b 05 62 89 00 00    	mov    0x8962(%rip),%eax        # 15110 <g_143>
    c7ae:	89 c1                	mov    %eax,%ecx
    c7b0:	48 8d 05 4c 89 00 00 	lea    0x894c(%rip),%rax        # 15103 <g_113>
    c7b7:	0f b6 04 01          	movzbl (%rcx,%rax,1),%eax
    c7bb:	0f b6 c0             	movzbl %al,%eax
    c7be:	39 c2                	cmp    %eax,%edx
    c7c0:	0f 9c c0             	setl   %al
    c7c3:	0f b6 c0             	movzbl %al,%eax
    c7c6:	44 89 ee             	mov    %r13d,%esi
    c7c9:	89 c7                	mov    %eax,%edi
    c7cb:	e8 aa b6 ff ff       	callq  7e7a <safe_rshift_func_uint16_t_u_u>
    c7d0:	66 85 c0             	test   %ax,%ax
    c7d3:	0f 94 c0             	sete   %al
    c7d6:	0f b6 c0             	movzbl %al,%eax
    c7d9:	48 89 de             	mov    %rbx,%rsi
    c7dc:	48 89 c7             	mov    %rax,%rdi
    c7df:	e8 13 b2 ff ff       	callq  79f7 <safe_div_func_int64_t_s_s>
    c7e4:	48 85 c0             	test   %rax,%rax
    c7e7:	0f 84 78 02 00 00    	je     ca65 <func_87+0x573>
    c7ed:	c6 85 66 fe ff ff f9 	movb   $0xf9,-0x19a(%rbp)
    c7f4:	48 8d 05 ad 88 00 00 	lea    0x88ad(%rip),%rax        # 150a8 <g_53+0x8>
    c7fb:	48 89 85 88 fe ff ff 	mov    %rax,-0x178(%rbp)
    c802:	48 8d 85 88 fe ff ff 	lea    -0x178(%rbp),%rax
    c809:	48 89 85 90 fe ff ff 	mov    %rax,-0x170(%rbp)
    c810:	be 08 00 00 00       	mov    $0x8,%esi
    c815:	bf 01 00 00 00       	mov    $0x1,%edi
    c81a:	e8 d3 a9 ff ff       	callq  71f2 <safe_sub_func_int8_t_s_s>
    c81f:	0f be d0             	movsbl %al,%edx
    c822:	0f b6 05 d9 88 00 00 	movzbl 0x88d9(%rip),%eax        # 15102 <g_112>
    c829:	0f be c0             	movsbl %al,%eax
    c82c:	89 d6                	mov    %edx,%esi
    c82e:	89 c7                	mov    %eax,%edi
    c830:	e8 c8 b6 ff ff       	callq  7efd <safe_mod_func_uint32_t_u_u>
    c835:	8b 9d 54 fe ff ff    	mov    -0x1ac(%rbp),%ebx
    c83b:	44 8b a5 54 fe ff ff 	mov    -0x1ac(%rbp),%r12d
    c842:	44 0f b6 ad 66 fe ff 	movzbl -0x19a(%rbp),%r13d
    c849:	ff 
    c84a:	44 8b b5 54 fe ff ff 	mov    -0x1ac(%rbp),%r14d
    c851:	48 8b 85 58 fe ff ff 	mov    -0x1a8(%rbp),%rax
    c858:	48 8b 00             	mov    (%rax),%rax
    c85b:	8b 00                	mov    (%rax),%eax
    c85d:	25 44 03 7a 4c       	and    $0x4c7a0344,%eax
    c862:	85 c0                	test   %eax,%eax
    c864:	74 1e                	je     c884 <func_87+0x392>
    c866:	8b 05 a4 88 00 00    	mov    0x88a4(%rip),%eax        # 15110 <g_143>
    c86c:	89 c2                	mov    %eax,%edx
    c86e:	48 8d 05 8e 88 00 00 	lea    0x888e(%rip),%rax        # 15103 <g_113>
    c875:	0f b6 04 02          	movzbl (%rdx,%rax,1),%eax
    c879:	84 c0                	test   %al,%al
    c87b:	74 07                	je     c884 <func_87+0x392>
    c87d:	b8 01 00 00 00       	mov    $0x1,%eax
    c882:	eb 05                	jmp    c889 <func_87+0x397>
    c884:	b8 00 00 00 00       	mov    $0x0,%eax
    c889:	89 c2                	mov    %eax,%edx
    c88b:	0f b6 05 2a c2 00 00 	movzbl 0xc22a(%rip),%eax        # 18abc <g_728>
    c892:	09 d0                	or     %edx,%eax
    c894:	0f b6 d0             	movzbl %al,%edx
    c897:	8b 85 54 fe ff ff    	mov    -0x1ac(%rbp),%eax
    c89d:	0f b6 c0             	movzbl %al,%eax
    c8a0:	89 d6                	mov    %edx,%esi
    c8a2:	89 c7                	mov    %eax,%edi
    c8a4:	e8 b1 b2 ff ff       	callq  7b5a <safe_add_func_uint8_t_u_u>
    c8a9:	0f bf 95 68 fe ff ff 	movswl -0x198(%rbp),%edx
    c8b0:	8b 05 46 88 00 00    	mov    0x8846(%rip),%eax        # 150fc <g_109>
    c8b6:	39 c2                	cmp    %eax,%edx
    c8b8:	0f 92 c0             	setb   %al
    c8bb:	0f b6 c0             	movzbl %al,%eax
    c8be:	4c 89 f6             	mov    %r14,%rsi
    c8c1:	48 89 c7             	mov    %rax,%rdi
    c8c4:	e8 eb b0 ff ff       	callq  79b4 <safe_mod_func_int64_t_s_s>
    c8c9:	81 bd 54 fe ff ff 15 	cmpl   $0x2415,-0x1ac(%rbp)
    c8d0:	24 00 00 
    c8d3:	0f 97 c0             	seta   %al
    c8d6:	89 c2                	mov    %eax,%edx
    c8d8:	8b 85 54 fe ff ff    	mov    -0x1ac(%rbp),%eax
    c8de:	31 d0                	xor    %edx,%eax
    c8e0:	0f b6 d0             	movzbl %al,%edx
    c8e3:	8b 85 54 fe ff ff    	mov    -0x1ac(%rbp),%eax
    c8e9:	0f b6 c0             	movzbl %al,%eax
    c8ec:	89 d6                	mov    %edx,%esi
    c8ee:	89 c7                	mov    %eax,%edi
    c8f0:	e8 b9 b2 ff ff       	callq  7bae <safe_mod_func_uint8_t_u_u>
    c8f5:	0f b6 c0             	movzbl %al,%eax
    c8f8:	44 89 ee             	mov    %r13d,%esi
    c8fb:	89 c7                	mov    %eax,%edi
    c8fd:	e8 fb b5 ff ff       	callq  7efd <safe_mod_func_uint32_t_u_u>
    c902:	89 c0                	mov    %eax,%eax
    c904:	4c 89 e6             	mov    %r12,%rsi
    c907:	48 89 c7             	mov    %rax,%rdi
    c90a:	e8 32 af ff ff       	callq  7841 <safe_add_func_int64_t_s_s>
    c90f:	48 89 de             	mov    %rbx,%rsi
    c912:	48 89 c7             	mov    %rax,%rdi
    c915:	e8 dd b0 ff ff       	callq  79f7 <safe_div_func_int64_t_s_s>
    c91a:	48 8b 85 40 fe ff ff 	mov    -0x1c0(%rbp),%rax
    c921:	c7 00 00 00 00 00    	movl   $0x0,(%rax)
    c927:	0f b7 05 c2 87 00 00 	movzwl 0x87c2(%rip),%eax        # 150f0 <g_81+0x10>
    c92e:	0f b7 d0             	movzwl %ax,%edx
    c931:	48 8b 85 40 fe ff ff 	mov    -0x1c0(%rbp),%rax
    c938:	89 10                	mov    %edx,(%rax)
    c93a:	66 c7 05 b5 87 00 00 	movw   $0x0,0x87b5(%rip)        # 150f8 <g_108>
    c941:	00 00 
    c943:	e9 07 01 00 00       	jmpq   ca4f <func_87+0x55d>
    c948:	66 c7 85 6e fe ff ff 	movw   $0x8426,-0x192(%rbp)
    c94f:	26 84 
    c951:	48 8b 05 c8 ae 00 00 	mov    0xaec8(%rip),%rax        # 17820 <g_1209>
    c958:	8b 00                	mov    (%rax),%eax
    c95a:	89 c2                	mov    %eax,%edx
    c95c:	0f b7 85 6e fe ff ff 	movzwl -0x192(%rbp),%eax
    c963:	21 d0                	and    %edx,%eax
    c965:	66 89 85 6e fe ff ff 	mov    %ax,-0x192(%rbp)
    c96c:	c6 05 49 c1 00 00 00 	movb   $0x0,0xc149(%rip)        # 18abc <g_728>
    c973:	eb 60                	jmp    c9d5 <func_87+0x4e3>
    c975:	c6 85 67 fe ff ff de 	movb   $0xde,-0x199(%rbp)
    c97c:	48 8d 85 90 fe ff ff 	lea    -0x170(%rbp),%rax
    c983:	48 89 85 d8 fe ff ff 	mov    %rax,-0x128(%rbp)
    c98a:	48 8b 85 40 fe ff ff 	mov    -0x1c0(%rbp),%rax
    c991:	8b 00                	mov    (%rax),%eax
    c993:	89 c2                	mov    %eax,%edx
    c995:	0f b6 85 67 fe ff ff 	movzbl -0x199(%rbp),%eax
    c99c:	09 d0                	or     %edx,%eax
    c99e:	88 85 67 fe ff ff    	mov    %al,-0x199(%rbp)
    c9a4:	48 8b 95 90 fe ff ff 	mov    -0x170(%rbp),%rdx
    c9ab:	48 8b 85 d8 fe ff ff 	mov    -0x128(%rbp),%rax
    c9b2:	48 89 10             	mov    %rdx,(%rax)
    c9b5:	48 8b 85 58 fe ff ff 	mov    -0x1a8(%rbp),%rax
    c9bc:	48 8b 00             	mov    (%rax),%rax
    c9bf:	8b 00                	mov    (%rax),%eax
    c9c1:	85 c0                	test   %eax,%eax
    c9c3:	75 1d                	jne    c9e2 <func_87+0x4f0>
    c9c5:	0f b6 05 f0 c0 00 00 	movzbl 0xc0f0(%rip),%eax        # 18abc <g_728>
    c9cc:	83 c0 01             	add    $0x1,%eax
    c9cf:	88 05 e7 c0 00 00    	mov    %al,0xc0e7(%rip)        # 18abc <g_728>
    c9d5:	0f b6 05 e0 c0 00 00 	movzbl 0xc0e0(%rip),%eax        # 18abc <g_728>
    c9dc:	3c 06                	cmp    $0x6,%al
    c9de:	76 95                	jbe    c975 <func_87+0x483>
    c9e0:	eb 01                	jmp    c9e3 <func_87+0x4f1>
    c9e2:	90                   	nop
    c9e3:	48 8b 05 36 ae 00 00 	mov    0xae36(%rip),%rax        # 17820 <g_1209>
    c9ea:	8b 08                	mov    (%rax),%ecx
    c9ec:	0f b7 95 6e fe ff ff 	movzwl -0x192(%rbp),%edx
    c9f3:	48 8b 05 26 ae 00 00 	mov    0xae26(%rip),%rax        # 17820 <g_1209>
    c9fa:	31 ca                	xor    %ecx,%edx
    c9fc:	89 10                	mov    %edx,(%rax)
    c9fe:	66 c7 85 68 fe ff ff 	movw   $0x0,-0x198(%rbp)
    ca05:	00 00 
    ca07:	66 83 bd 68 fe ff ff 	cmpw   $0x1,-0x198(%rbp)
    ca0e:	01 
    ca0f:	7f 2d                	jg     ca3e <func_87+0x54c>
    ca11:	0f b7 05 e0 86 00 00 	movzwl 0x86e0(%rip),%eax        # 150f8 <g_108>
    ca18:	98                   	cwtl   
    ca19:	83 c0 01             	add    $0x1,%eax
    ca1c:	48 98                	cltq   
    ca1e:	48 8d 14 00          	lea    (%rax,%rax,1),%rdx
    ca22:	48 8d 05 67 8c 00 00 	lea    0x8c67(%rip),%rax        # 15690 <g_1355>
    ca29:	0f b7 04 02          	movzwl (%rdx,%rax,1),%eax
    ca2d:	66 85 c0             	test   %ax,%ax
    ca30:	75 0b                	jne    ca3d <func_87+0x54b>
    ca32:	8b 85 54 fe ff ff    	mov    -0x1ac(%rbp),%eax
    ca38:	e9 5b 05 00 00       	jmpq   cf98 <func_87+0xaa6>
    ca3d:	90                   	nop
    ca3e:	0f b7 05 b3 86 00 00 	movzwl 0x86b3(%rip),%eax        # 150f8 <g_108>
    ca45:	83 c0 01             	add    $0x1,%eax
    ca48:	66 89 05 a9 86 00 00 	mov    %ax,0x86a9(%rip)        # 150f8 <g_108>
    ca4f:	0f b7 05 a2 86 00 00 	movzwl 0x86a2(%rip),%eax        # 150f8 <g_108>
    ca56:	66 83 f8 06          	cmp    $0x6,%ax
    ca5a:	0f 8e e8 fe ff ff    	jle    c948 <func_87+0x456>
    ca60:	e9 8e 01 00 00       	jmpq   cbf3 <func_87+0x701>
    ca65:	48 c7 85 b8 fe ff ff 	movq   $0x0,-0x148(%rbp)
    ca6c:	00 00 00 00 
    ca70:	48 c7 85 c0 fe ff ff 	movq   $0x0,-0x140(%rbp)
    ca77:	00 00 00 00 
    ca7b:	48 c7 85 c8 fe ff ff 	movq   $0x0,-0x138(%rbp)
    ca82:	00 00 00 00 
    ca86:	48 8d 05 4b c0 00 00 	lea    0xc04b(%rip),%rax        # 18ad8 <g_888>
    ca8d:	48 89 85 d0 fe ff ff 	mov    %rax,-0x130(%rbp)
    ca94:	c7 45 80 90 1f 65 33 	movl   $0x33651f90,-0x80(%rbp)
    ca9b:	c7 45 84 ff ff ff ff 	movl   $0xffffffff,-0x7c(%rbp)
    caa2:	c7 45 88 ff ff ff ff 	movl   $0xffffffff,-0x78(%rbp)
    caa9:	c7 45 8c 90 1f 65 33 	movl   $0x33651f90,-0x74(%rbp)
    cab0:	c7 45 90 ff ff ff ff 	movl   $0xffffffff,-0x70(%rbp)
    cab7:	c7 45 94 ff ff ff ff 	movl   $0xffffffff,-0x6c(%rbp)
    cabe:	c7 45 98 90 1f 65 33 	movl   $0x33651f90,-0x68(%rbp)
    cac5:	c7 45 9c ff ff ff ff 	movl   $0xffffffff,-0x64(%rbp)
    cacc:	c7 45 a0 ff ff ff ff 	movl   $0xffffffff,-0x60(%rbp)
    cad3:	c7 45 a4 90 1f 65 33 	movl   $0x33651f90,-0x5c(%rbp)
    cada:	c7 45 a8 ff ff ff ff 	movl   $0xffffffff,-0x58(%rbp)
    cae1:	c7 45 ac 90 1f 65 33 	movl   $0x33651f90,-0x54(%rbp)
    cae8:	c7 45 b0 ff ff ff ff 	movl   $0xffffffff,-0x50(%rbp)
    caef:	c7 45 b4 ff ff ff ff 	movl   $0xffffffff,-0x4c(%rbp)
    caf6:	c7 45 b8 90 1f 65 33 	movl   $0x33651f90,-0x48(%rbp)
    cafd:	c7 45 bc ff ff ff ff 	movl   $0xffffffff,-0x44(%rbp)
    cb04:	c7 45 c0 ff ff ff ff 	movl   $0xffffffff,-0x40(%rbp)
    cb0b:	c7 45 c4 90 1f 65 33 	movl   $0x33651f90,-0x3c(%rbp)
    cb12:	c7 45 c8 ff ff ff ff 	movl   $0xffffffff,-0x38(%rbp)
    cb19:	c7 45 cc ff ff ff ff 	movl   $0xffffffff,-0x34(%rbp)
    cb20:	8b 45 9c             	mov    -0x64(%rbp),%eax
    cb23:	41 89 c4             	mov    %eax,%r12d
    cb26:	48 0f bf 95 68 fe ff 	movswq -0x198(%rbp),%rdx
    cb2d:	ff 
    cb2e:	8b 85 54 fe ff ff    	mov    -0x1ac(%rbp),%eax
    cb34:	48 89 d6             	mov    %rdx,%rsi
    cb37:	48 89 c7             	mov    %rax,%rdi
    cb3a:	e8 41 b5 ff ff       	callq  8080 <safe_mod_func_uint64_t_u_u>
    cb3f:	48 89 c3             	mov    %rax,%rbx
    cb42:	48 8b 85 58 fe ff ff 	mov    -0x1a8(%rbp),%rax
    cb49:	48 8b 00             	mov    (%rax),%rax
    cb4c:	8b 10                	mov    (%rax),%edx
    cb4e:	b8 14 52 02 12       	mov    $0x12025214,%eax
    cb53:	83 f8 05             	cmp    $0x5,%eax
    cb56:	0f 9e c0             	setle  %al
    cb59:	0f b6 c0             	movzbl %al,%eax
    cb5c:	39 c2                	cmp    %eax,%edx
    cb5e:	0f 94 c0             	sete   %al
    cb61:	0f b6 c0             	movzbl %al,%eax
    cb64:	39 85 54 fe ff ff    	cmp    %eax,-0x1ac(%rbp)
    cb6a:	0f 94 c0             	sete   %al
    cb6d:	0f b6 c0             	movzbl %al,%eax
    cb70:	be 04 00 00 00       	mov    $0x4,%esi
    cb75:	89 c7                	mov    %eax,%edi
    cb77:	e8 12 b2 ff ff       	callq  7d8e <safe_div_func_uint16_t_u_u>
    cb7c:	48 8b 05 d5 ab 00 00 	mov    0xabd5(%rip),%rax        # 17758 <g_583>
    cb83:	0f b6 00             	movzbl (%rax),%eax
    cb86:	0f b6 d0             	movzbl %al,%edx
    cb89:	48 8b 85 48 fe ff ff 	mov    -0x1b8(%rbp),%rax
    cb90:	0f b6 00             	movzbl (%rax),%eax
    cb93:	0f be c0             	movsbl %al,%eax
    cb96:	89 d6                	mov    %edx,%esi
    cb98:	89 c7                	mov    %eax,%edi
    cb9a:	e8 4f a7 ff ff       	callq  72ee <safe_lshift_func_int8_t_s_u>
    cb9f:	f7 d0                	not    %eax
    cba1:	c0 e8 07             	shr    $0x7,%al
    cba4:	0f b6 d0             	movzbl %al,%edx
    cba7:	48 8b 85 d0 fe ff ff 	mov    -0x130(%rbp),%rax
    cbae:	89 10                	mov    %edx,(%rax)
    cbb0:	48 8b 85 d0 fe ff ff 	mov    -0x130(%rbp),%rax
    cbb7:	8b 00                	mov    (%rax),%eax
    cbb9:	89 c0                	mov    %eax,%eax
    cbbb:	48 39 c3             	cmp    %rax,%rbx
    cbbe:	0f 95 c0             	setne  %al
    cbc1:	0f b6 c0             	movzbl %al,%eax
    cbc4:	44 89 e6             	mov    %r12d,%esi
    cbc7:	89 c7                	mov    %eax,%edi
    cbc9:	e8 38 b2 ff ff       	callq  7e06 <safe_lshift_func_uint16_t_u_u>
    cbce:	8b 45 9c             	mov    -0x64(%rbp),%eax
    cbd1:	83 f0 01             	xor    $0x1,%eax
    cbd4:	98                   	cwtl   
    cbd5:	be 93 b5 ff ff       	mov    $0xffffb593,%esi
    cbda:	89 c7                	mov    %eax,%edi
    cbdc:	e8 14 a8 ff ff       	callq  73f5 <safe_mul_func_int16_t_s_s>
    cbe1:	66 85 c0             	test   %ax,%ax
    cbe4:	0f 9f c0             	setg   %al
    cbe7:	0f b6 d0             	movzbl %al,%edx
    cbea:	48 8b 85 40 fe ff ff 	mov    -0x1c0(%rbp),%rax
    cbf1:	89 10                	mov    %edx,(%rax)
    cbf3:	0f b6 9d 63 fe ff ff 	movzbl -0x19d(%rbp),%ebx
    cbfa:	0f bf 95 68 fe ff ff 	movswl -0x198(%rbp),%edx
    cc01:	48 8b 85 a0 fe ff ff 	mov    -0x160(%rbp),%rax
    cc08:	c7 00 89 a9 92 65    	movl   $0x6592a989,(%rax)
    cc0e:	48 8b 85 a0 fe ff ff 	mov    -0x160(%rbp),%rax
    cc15:	8b 00                	mov    (%rax),%eax
    cc17:	39 c2                	cmp    %eax,%edx
    cc19:	48 8b 05 50 ab 00 00 	mov    0xab50(%rip),%rax        # 17770 <g_845>
    cc20:	48 8b 00             	mov    (%rax),%rax
    cc23:	0f b6 00             	movzbl (%rax),%eax
    cc26:	84 c0                	test   %al,%al
    cc28:	0f 84 24 01 00 00    	je     cd52 <func_87+0x860>
    cc2e:	0f bf 85 68 fe ff ff 	movswl -0x198(%rbp),%eax
    cc35:	39 85 54 fe ff ff    	cmp    %eax,-0x1ac(%rbp)
    cc3b:	0f 96 c0             	setbe  %al
    cc3e:	44 0f b6 e0          	movzbl %al,%r12d
    cc42:	48 8b 85 a8 fe ff ff 	mov    -0x158(%rbp),%rax
    cc49:	0f b6 00             	movzbl (%rax),%eax
    cc4c:	8d 50 ff             	lea    -0x1(%rax),%edx
    cc4f:	48 8b 85 a8 fe ff ff 	mov    -0x158(%rbp),%rax
    cc56:	88 10                	mov    %dl,(%rax)
    cc58:	48 8b 85 a8 fe ff ff 	mov    -0x158(%rbp),%rax
    cc5f:	0f b6 00             	movzbl (%rax),%eax
    cc62:	0f b6 c0             	movzbl %al,%eax
    cc65:	89 85 80 fe ff ff    	mov    %eax,-0x180(%rbp)
    cc6b:	83 bd 54 fe ff ff 00 	cmpl   $0x0,-0x1ac(%rbp)
    cc72:	75 23                	jne    cc97 <func_87+0x7a5>
    cc74:	8b 85 54 fe ff ff    	mov    -0x1ac(%rbp),%eax
    cc7a:	0f bf d0             	movswl %ax,%edx
    cc7d:	8b 85 54 fe ff ff    	mov    -0x1ac(%rbp),%eax
    cc83:	98                   	cwtl   
    cc84:	89 d6                	mov    %edx,%esi
    cc86:	89 c7                	mov    %eax,%edi
    cc88:	e8 68 a7 ff ff       	callq  73f5 <safe_mul_func_int16_t_s_s>
    cc8d:	66 83 bd 68 fe ff ff 	cmpw   $0x37,-0x198(%rbp)
    cc94:	37 
    cc95:	74 07                	je     cc9e <func_87+0x7ac>
    cc97:	b8 01 00 00 00       	mov    $0x1,%eax
    cc9c:	eb 05                	jmp    cca3 <func_87+0x7b1>
    cc9e:	b8 00 00 00 00       	mov    $0x0,%eax
    cca3:	89 c2                	mov    %eax,%edx
    cca5:	48 8b 85 48 fe ff ff 	mov    -0x1b8(%rbp),%rax
    ccac:	88 10                	mov    %dl,(%rax)
    ccae:	48 8b 85 48 fe ff ff 	mov    -0x1b8(%rbp),%rax
    ccb5:	0f b6 00             	movzbl (%rax),%eax
    ccb8:	84 c0                	test   %al,%al
    ccba:	74 15                	je     ccd1 <func_87+0x7df>
    ccbc:	48 8b 85 48 fe ff ff 	mov    -0x1b8(%rbp),%rax
    ccc3:	0f b6 00             	movzbl (%rax),%eax
    ccc6:	84 c0                	test   %al,%al
    ccc8:	74 07                	je     ccd1 <func_87+0x7df>
    ccca:	b8 01 00 00 00       	mov    $0x1,%eax
    cccf:	eb 05                	jmp    ccd6 <func_87+0x7e4>
    ccd1:	b8 00 00 00 00       	mov    $0x0,%eax
    ccd6:	0f b7 c0             	movzwl %ax,%eax
    ccd9:	be 09 00 00 00       	mov    $0x9,%esi
    ccde:	89 c7                	mov    %eax,%edi
    cce0:	e8 21 b1 ff ff       	callq  7e06 <safe_lshift_func_uint16_t_u_u>
    cce5:	0f b7 c0             	movzwl %ax,%eax
    cce8:	39 85 80 fe ff ff    	cmp    %eax,-0x180(%rbp)
    ccee:	0f 9c c0             	setl   %al
    ccf1:	0f b6 c0             	movzbl %al,%eax
    ccf4:	48 39 85 98 fe ff ff 	cmp    %rax,-0x168(%rbp)
    ccfb:	0f 97 c0             	seta   %al
    ccfe:	0f b6 c0             	movzbl %al,%eax
    cd01:	39 85 54 fe ff ff    	cmp    %eax,-0x1ac(%rbp)
    cd07:	74 19                	je     cd22 <func_87+0x830>
    cd09:	80 bd 65 fe ff ff 00 	cmpb   $0x0,-0x19b(%rbp)
    cd10:	74 10                	je     cd22 <func_87+0x830>
    cd12:	80 bd 62 fe ff ff 00 	cmpb   $0x0,-0x19e(%rbp)
    cd19:	74 07                	je     cd22 <func_87+0x830>
    cd1b:	b8 01 00 00 00       	mov    $0x1,%eax
    cd20:	eb 05                	jmp    cd27 <func_87+0x835>
    cd22:	b8 00 00 00 00       	mov    $0x0,%eax
    cd27:	98                   	cwtl   
    cd28:	be 07 00 00 00       	mov    $0x7,%esi
    cd2d:	89 c7                	mov    %eax,%edi
    cd2f:	e8 9f a6 ff ff       	callq  73d3 <safe_sub_func_int16_t_s_s>
    cd34:	48 0f bf c0          	movswq %ax,%rax
    cd38:	48 be 87 a6 61 ff 4f 	movabs $0x1a89e4fff61a687,%rsi
    cd3f:	9e a8 01 
    cd42:	48 89 c7             	mov    %rax,%rdi
    cd45:	e8 ad ac ff ff       	callq  79f7 <safe_div_func_int64_t_s_s>
    cd4a:	25 f6 ff 00 00       	and    $0xfff6,%eax
    cd4f:	49 39 c4             	cmp    %rax,%r12
    cd52:	8b 05 d4 82 00 00    	mov    0x82d4(%rip),%eax        # 1502c <g_9>
    cd58:	0f b7 c0             	movzwl %ax,%eax
    cd5b:	be 06 00 00 00       	mov    $0x6,%esi
    cd60:	89 c7                	mov    %eax,%edi
    cd62:	e8 13 b1 ff ff       	callq  7e7a <safe_rshift_func_uint16_t_u_u>
    cd67:	66 21 85 6a fe ff ff 	and    %ax,-0x196(%rbp)
    cd6e:	0f b7 85 6a fe ff ff 	movzwl -0x196(%rbp),%eax
    cd75:	0f b6 c0             	movzbl %al,%eax
    cd78:	89 de                	mov    %ebx,%esi
    cd7a:	89 c7                	mov    %eax,%edi
    cd7c:	e8 84 ae ff ff       	callq  7c05 <safe_lshift_func_uint8_t_u_s>
    cd81:	b9 01 00 00 00       	mov    $0x1,%ecx
    cd86:	48 8b 85 b0 fe ff ff 	mov    -0x150(%rbp),%rax
    cd8d:	48 8b 10             	mov    (%rax),%rdx
    cd90:	48 63 c1             	movslq %ecx,%rax
    cd93:	48 21 c2             	and    %rax,%rdx
    cd96:	48 8b 85 b0 fe ff ff 	mov    -0x150(%rbp),%rax
    cd9d:	48 89 10             	mov    %rdx,(%rax)
    cda0:	48 8b 85 b0 fe ff ff 	mov    -0x150(%rbp),%rax
    cda7:	48 8b 10             	mov    (%rax),%rdx
    cdaa:	48 0f bf 85 68 fe ff 	movswq -0x198(%rbp),%rax
    cdb1:	ff 
    cdb2:	48 39 c2             	cmp    %rax,%rdx
    cdb5:	0f 9e c0             	setle  %al
    cdb8:	0f b6 c0             	movzbl %al,%eax
    cdbb:	39 85 84 fe ff ff    	cmp    %eax,-0x17c(%rbp)
    cdc1:	0f 95 c0             	setne  %al
    cdc4:	0f b6 c0             	movzbl %al,%eax
    cdc7:	89 c2                	mov    %eax,%edx
    cdc9:	8b 05 09 bd 00 00    	mov    0xbd09(%rip),%eax        # 18ad8 <g_888>
    cdcf:	09 d0                	or     %edx,%eax
    cdd1:	89 05 01 bd 00 00    	mov    %eax,0xbd01(%rip)        # 18ad8 <g_888>
    cdd7:	8b 05 fb bc 00 00    	mov    0xbcfb(%rip),%eax        # 18ad8 <g_888>
    cddd:	be 04 41 fb aa       	mov    $0xaafb4104,%esi
    cde2:	89 c7                	mov    %eax,%edi
    cde4:	e8 3c b1 ff ff       	callq  7f25 <safe_div_func_uint32_t_u_u>
    cde9:	0f b6 d0             	movzbl %al,%edx
    cdec:	48 8b 05 6d a9 00 00 	mov    0xa96d(%rip),%rax        # 17760 <g_582>
    cdf3:	48 8b 00             	mov    (%rax),%rax
    cdf6:	0f b6 08             	movzbl (%rax),%ecx
    cdf9:	83 e9 01             	sub    $0x1,%ecx
    cdfc:	88 08                	mov    %cl,(%rax)
    cdfe:	0f b6 00             	movzbl (%rax),%eax
    ce01:	0f b6 c0             	movzbl %al,%eax
    ce04:	89 d6                	mov    %edx,%esi
    ce06:	89 c7                	mov    %eax,%edi
    ce08:	e8 6b ad ff ff       	callq  7b78 <safe_sub_func_uint8_t_u_u>
    ce0d:	0f b6 c0             	movzbl %al,%eax
    ce10:	be d7 6a 00 00       	mov    $0x6ad7,%esi
    ce15:	89 c7                	mov    %eax,%edi
    ce17:	e8 d9 a5 ff ff       	callq  73f5 <safe_mul_func_int16_t_s_s>
    ce1c:	89 c2                	mov    %eax,%edx
    ce1e:	48 8b 05 fb a9 00 00 	mov    0xa9fb(%rip),%rax        # 17820 <g_1209>
    ce25:	0f bf d2             	movswl %dx,%edx
    ce28:	89 10                	mov    %edx,(%rax)
    ce2a:	48 8b 85 58 fe ff ff 	mov    -0x1a8(%rbp),%rax
    ce31:	48 8b 00             	mov    (%rax),%rax
    ce34:	8b 00                	mov    (%rax),%eax
    ce36:	85 c0                	test   %eax,%eax
    ce38:	74 12                	je     ce4c <func_87+0x95a>
    ce3a:	e9 e7 00 00 00       	jmpq   cf26 <func_87+0xa34>
    ce3f:	80 bd 65 fe ff ff 00 	cmpb   $0x0,-0x19b(%rbp)
    ce46:	0f 85 fa 00 00 00    	jne    cf46 <func_87+0xa54>
    ce4c:	8b 05 be 82 00 00    	mov    0x82be(%rip),%eax        # 15110 <g_143>
    ce52:	89 c0                	mov    %eax,%eax
    ce54:	48 8d 14 85 00 00 00 	lea    0x0(,%rax,4),%rdx
    ce5b:	00 
    ce5c:	48 8d 05 bd 84 00 00 	lea    0x84bd(%rip),%rax        # 15320 <g_1051>
    ce63:	8b 04 02             	mov    (%rdx,%rax,1),%eax
    ce66:	48 63 d8             	movslq %eax,%rbx
    ce69:	48 8b 85 48 fe ff ff 	mov    -0x1b8(%rbp),%rax
    ce70:	0f b6 00             	movzbl (%rax),%eax
    ce73:	0f be c0             	movsbl %al,%eax
    ce76:	be fb ff ff ff       	mov    $0xfffffffb,%esi
    ce7b:	89 c7                	mov    %eax,%edi
    ce7d:	e8 90 a3 ff ff       	callq  7212 <safe_mul_func_int8_t_s_s>
    ce82:	48 0f be c0          	movsbq %al,%rax
    ce86:	48 89 de             	mov    %rbx,%rsi
    ce89:	48 89 c7             	mov    %rax,%rdi
    ce8c:	e8 ef b1 ff ff       	callq  8080 <safe_mod_func_uint64_t_u_u>
    ce91:	48 8b 05 d8 a8 00 00 	mov    0xa8d8(%rip),%rax        # 17770 <g_845>
    ce98:	48 8b 00             	mov    (%rax),%rax
    ce9b:	48 8b 95 48 fe ff ff 	mov    -0x1b8(%rbp),%rdx
    cea2:	0f b6 12             	movzbl (%rdx),%edx
    cea5:	88 10                	mov    %dl,(%rax)
    cea7:	0f b6 00             	movzbl (%rax),%eax
    ceaa:	0f be c0             	movsbl %al,%eax
    cead:	39 85 54 fe ff ff    	cmp    %eax,-0x1ac(%rbp)
    ceb3:	74 07                	je     cebc <func_87+0x9ca>
    ceb5:	83 bd 54 fe ff ff 00 	cmpl   $0x0,-0x1ac(%rbp)
    cebc:	be f0 37 00 00       	mov    $0x37f0,%esi
    cec1:	bf 00 00 00 00       	mov    $0x0,%edi
    cec6:	e8 72 ae ff ff       	callq  7d3d <safe_mul_func_uint16_t_u_u>
    cecb:	0f b7 c0             	movzwl %ax,%eax
    cece:	89 85 80 fe ff ff    	mov    %eax,-0x180(%rbp)
    ced4:	8b 85 80 fe ff ff    	mov    -0x180(%rbp),%eax
    ceda:	0f b7 c0             	movzwl %ax,%eax
    cedd:	89 c6                	mov    %eax,%esi
    cedf:	bf 01 00 00 00       	mov    $0x1,%edi
    cee4:	e8 36 ae ff ff       	callq  7d1f <safe_sub_func_uint16_t_u_u>
    cee9:	98                   	cwtl   
    ceea:	be ee 15 00 00       	mov    $0x15ee,%esi
    ceef:	89 c7                	mov    %eax,%edi
    cef1:	e8 dd a4 ff ff       	callq  73d3 <safe_sub_func_int16_t_s_s>
    cef6:	0f bf d0             	movswl %ax,%edx
    cef9:	0f b7 85 6c fe ff ff 	movzwl -0x194(%rbp),%eax
    cf00:	39 c2                	cmp    %eax,%edx
    cf02:	0f 9e c0             	setle  %al
    cf05:	0f b6 c0             	movzbl %al,%eax
    cf08:	48 89 c7             	mov    %rax,%rdi
    cf0b:	e8 09 b1 ff ff       	callq  8019 <safe_unary_minus_func_uint64_t_u>
    cf10:	48 8b 95 40 fe ff ff 	mov    -0x1c0(%rbp),%rdx
    cf17:	8b 12                	mov    (%rdx),%edx
    cf19:	31 d0                	xor    %edx,%eax
    cf1b:	89 c2                	mov    %eax,%edx
    cf1d:	48 8b 85 40 fe ff ff 	mov    -0x1c0(%rbp),%rax
    cf24:	89 10                	mov    %edx,(%rax)
    cf26:	8b 05 e4 81 00 00    	mov    0x81e4(%rip),%eax        # 15110 <g_143>
    cf2c:	83 c0 01             	add    $0x1,%eax
    cf2f:	89 05 db 81 00 00    	mov    %eax,0x81db(%rip)        # 15110 <g_143>
    cf35:	8b 05 d5 81 00 00    	mov    0x81d5(%rip),%eax        # 15110 <g_143>
    cf3b:	83 f8 06             	cmp    $0x6,%eax
    cf3e:	0f 86 e9 f6 ff ff    	jbe    c62d <func_87+0x13b>
    cf44:	eb 01                	jmp    cf47 <func_87+0xa55>
    cf46:	90                   	nop
    cf47:	48 8b 05 d2 a8 00 00 	mov    0xa8d2(%rip),%rax        # 17820 <g_1209>
    cf4e:	8b 08                	mov    (%rax),%ecx
    cf50:	48 8b 85 40 fe ff ff 	mov    -0x1c0(%rbp),%rax
    cf57:	8b 10                	mov    (%rax),%edx
    cf59:	48 8b 05 c0 a8 00 00 	mov    0xa8c0(%rip),%rax        # 17820 <g_1209>
    cf60:	31 ca                	xor    %ecx,%edx
    cf62:	89 10                	mov    %edx,(%rax)
    cf64:	0f b6 85 64 fe ff ff 	movzbl -0x19c(%rbp),%eax
    cf6b:	8d 50 01             	lea    0x1(%rax),%edx
    cf6e:	88 95 64 fe ff ff    	mov    %dl,-0x19c(%rbp)
    cf74:	0f b6 c0             	movzbl %al,%eax
    cf77:	23 85 7c fe ff ff    	and    -0x184(%rbp),%eax
    cf7d:	89 c2                	mov    %eax,%edx
    cf7f:	48 8b 05 9a a8 00 00 	mov    0xa89a(%rip),%rax        # 17820 <g_1209>
    cf86:	89 10                	mov    %edx,(%rax)
    cf88:	8b 10                	mov    (%rax),%edx
    cf8a:	48 8b 85 40 fe ff ff 	mov    -0x1c0(%rbp),%rax
    cf91:	89 10                	mov    %edx,(%rax)
    cf93:	b8 14 52 02 12       	mov    $0x12025214,%eax
    cf98:	48 8b 5d d8          	mov    -0x28(%rbp),%rbx
    cf9c:	64 48 33 1c 25 28 00 	xor    %fs:0x28,%rbx
    cfa3:	00 00 
    cfa5:	74 05                	je     cfac <func_87+0xaba>
    cfa7:	e8 c4 a0 ff ff       	callq  7070 <__stack_chk_fail@plt>
    cfac:	48 81 c4 a0 01 00 00 	add    $0x1a0,%rsp
    cfb3:	5b                   	pop    %rbx
    cfb4:	41 5c                	pop    %r12
    cfb6:	41 5d                	pop    %r13
    cfb8:	41 5e                	pop    %r14
    cfba:	5d                   	pop    %rbp
    cfbb:	c3                   	retq   

000000000000cfbc <func_92>:
    cfbc:	f3 0f 1e fa          	endbr64 
    cfc0:	55                   	push   %rbp
    cfc1:	48 89 e5             	mov    %rsp,%rbp
    cfc4:	89 f8                	mov    %edi,%eax
    cfc6:	48 89 75 f0          	mov    %rsi,-0x10(%rbp)
    cfca:	48 89 55 e8          	mov    %rdx,-0x18(%rbp)
    cfce:	89 ca                	mov    %ecx,%edx
    cfd0:	44 89 c1             	mov    %r8d,%ecx
    cfd3:	66 89 45 fc          	mov    %ax,-0x4(%rbp)
    cfd7:	89 d0                	mov    %edx,%eax
    cfd9:	88 45 f8             	mov    %al,-0x8(%rbp)
    cfdc:	89 c8                	mov    %ecx,%eax
    cfde:	88 45 e4             	mov    %al,-0x1c(%rbp)
    cfe1:	48 8b 45 e8          	mov    -0x18(%rbp),%rax
    cfe5:	48 8b 00             	mov    (%rax),%rax
    cfe8:	5d                   	pop    %rbp
    cfe9:	c3                   	retq   

000000000000cfea <func_99>:
    cfea:	f3 0f 1e fa          	endbr64 
    cfee:	55                   	push   %rbp
    cfef:	48 89 e5             	mov    %rsp,%rbp
    cff2:	41 56                	push   %r14
    cff4:	41 55                	push   %r13
    cff6:	41 54                	push   %r12
    cff8:	53                   	push   %rbx
    cff9:	48 81 ec 00 10 00 00 	sub    $0x1000,%rsp
    d000:	48 83 0c 24 00       	orq    $0x0,(%rsp)
    d005:	48 81 ec c0 08 00 00 	sub    $0x8c0,%rsp
    d00c:	48 89 bd 28 e7 ff ff 	mov    %rdi,-0x18d8(%rbp)
    d013:	89 b5 24 e7 ff ff    	mov    %esi,-0x18dc(%rbp)
    d019:	64 48 8b 04 25 28 00 	mov    %fs:0x28,%rax
    d020:	00 00 
    d022:	48 89 45 d8          	mov    %rax,-0x28(%rbp)
    d026:	31 c0                	xor    %eax,%eax
    d028:	48 8d 05 f9 7f 00 00 	lea    0x7ff9(%rip),%rax        # 15028 <g_3>
    d02f:	48 89 85 e0 e7 ff ff 	mov    %rax,-0x1820(%rbp)
    d036:	48 8d 05 eb 7f 00 00 	lea    0x7feb(%rip),%rax        # 15028 <g_3>
    d03d:	48 89 85 60 e8 ff ff 	mov    %rax,-0x17a0(%rbp)
    d044:	48 c7 85 68 e8 ff ff 	movq   $0x0,-0x1798(%rbp)
    d04b:	00 00 00 00 
    d04f:	48 8d 85 90 ee ff ff 	lea    -0x1170(%rbp),%rax
    d056:	48 8d 15 a3 9c 00 00 	lea    0x9ca3(%rip),%rdx        # 16d00 <g_3344+0x1328>
    d05d:	b9 36 00 00 00       	mov    $0x36,%ecx
    d062:	48 89 c7             	mov    %rax,%rdi
    d065:	48 89 d6             	mov    %rdx,%rsi
    d068:	f3 48 a5             	rep movsq %ds:(%rsi),%es:(%rdi)
    d06b:	66 c7 85 3c e7 ff ff 	movw   $0x6,-0x18c4(%rbp)
    d072:	06 00 
    d074:	48 8d 05 85 80 00 00 	lea    0x8085(%rip),%rax        # 15100 <g_111>
    d07b:	48 89 85 e8 e7 ff ff 	mov    %rax,-0x1818(%rbp)
    d082:	48 8d 85 50 ed ff ff 	lea    -0x12b0(%rbp),%rax
    d089:	48 8d 15 30 9e 00 00 	lea    0x9e30(%rip),%rdx        # 16ec0 <g_3344+0x14e8>
    d090:	b9 28 00 00 00       	mov    $0x28,%ecx
    d095:	48 89 c7             	mov    %rax,%rdi
    d098:	48 89 d6             	mov    %rdx,%rsi
    d09b:	f3 48 a5             	rep movsq %ds:(%rsi),%es:(%rdi)
    d09e:	c7 85 4c e7 ff ff d5 	movl   $0xe640c1d5,-0x18b4(%rbp)
    d0a5:	c1 40 e6 
    d0a8:	c6 85 37 e7 ff ff b4 	movb   $0xb4,-0x18c9(%rbp)
    d0af:	c7 85 50 e7 ff ff 08 	movl   $0x8,-0x18b0(%rbp)
    d0b6:	00 00 00 
    d0b9:	c7 85 54 e7 ff ff 66 	movl   $0x6d712266,-0x18ac(%rbp)
    d0c0:	22 71 6d 
    d0c3:	c7 85 58 e7 ff ff 24 	movl   $0x5bfef924,-0x18a8(%rbp)
    d0ca:	f9 fe 5b 
    d0cd:	c7 85 5c e7 ff ff 52 	movl   $0xa27bd152,-0x18a4(%rbp)
    d0d4:	d1 7b a2 
    d0d7:	48 b8 b8 b8 b8 b8 b8 	movabs $0xb8b8b8b8b8b8b8b8,%rax
    d0de:	b8 b8 b8 
    d0e1:	48 89 45 cf          	mov    %rax,-0x31(%rbp)
    d0e5:	c6 45 d7 b8          	movb   $0xb8,-0x29(%rbp)
    d0e9:	48 8d 05 40 80 00 00 	lea    0x8040(%rip),%rax        # 15130 <g_366>
    d0f0:	48 89 85 f0 e7 ff ff 	mov    %rax,-0x1810(%rbp)
    d0f7:	48 8d 85 f0 e7 ff ff 	lea    -0x1810(%rbp),%rax
    d0fe:	48 89 85 d0 e9 ff ff 	mov    %rax,-0x1630(%rbp)
    d105:	48 8d 85 f0 e7 ff ff 	lea    -0x1810(%rbp),%rax
    d10c:	48 89 85 d8 e9 ff ff 	mov    %rax,-0x1628(%rbp)
    d113:	48 8d 85 f0 e7 ff ff 	lea    -0x1810(%rbp),%rax
    d11a:	48 89 85 e0 e9 ff ff 	mov    %rax,-0x1620(%rbp)
    d121:	48 8d 85 f0 e7 ff ff 	lea    -0x1810(%rbp),%rax
    d128:	48 89 85 e8 e9 ff ff 	mov    %rax,-0x1618(%rbp)
    d12f:	48 8d 85 f0 e7 ff ff 	lea    -0x1810(%rbp),%rax
    d136:	48 89 85 f0 e9 ff ff 	mov    %rax,-0x1610(%rbp)
    d13d:	48 8d 05 14 a6 00 00 	lea    0xa614(%rip),%rax        # 17758 <g_583>
    d144:	48 89 85 70 e8 ff ff 	mov    %rax,-0x1790(%rbp)
    d14b:	c7 85 60 e7 ff ff ff 	movl   $0xffffffff,-0x18a0(%rbp)
    d152:	ff ff ff 
    d155:	c6 85 38 e7 ff ff 88 	movb   $0x88,-0x18c8(%rbp)
    d15c:	48 c7 85 78 e8 ff ff 	movq   $0xfffffffffffffffe,-0x1788(%rbp)
    d163:	fe ff ff ff 
    d167:	c7 85 64 e7 ff ff 00 	movl   $0x0,-0x189c(%rbp)
    d16e:	00 00 00 
    d171:	c7 85 68 e7 ff ff 28 	movl   $0xeb51f328,-0x1898(%rbp)
    d178:	f3 51 eb 
    d17b:	c7 85 6c e7 ff ff 56 	movl   $0x75496956,-0x1894(%rbp)
    d182:	69 49 75 
    d185:	c7 85 70 e7 ff ff ff 	movl   $0xffffffff,-0x1890(%rbp)
    d18c:	ff ff ff 
    d18f:	c7 85 90 ea ff ff 00 	movl   $0x0,-0x1570(%rbp)
    d196:	00 00 00 
    d199:	c7 85 94 ea ff ff ff 	movl   $0xffffffff,-0x156c(%rbp)
    d1a0:	ff ff ff 
    d1a3:	c7 85 98 ea ff ff f7 	movl   $0xfffffff7,-0x1568(%rbp)
    d1aa:	ff ff ff 
    d1ad:	c7 85 9c ea ff ff f7 	movl   $0xfffffff7,-0x1564(%rbp)
    d1b4:	ff ff ff 
    d1b7:	c7 85 a0 ea ff ff f7 	movl   $0xfffffff7,-0x1560(%rbp)
    d1be:	ff ff ff 
    d1c1:	c7 85 a4 ea ff ff ff 	movl   $0xffffffff,-0x155c(%rbp)
    d1c8:	ff ff ff 
    d1cb:	c7 85 a8 ea ff ff 00 	movl   $0x0,-0x1558(%rbp)
    d1d2:	00 00 00 
    d1d5:	c7 85 ac ea ff ff 8c 	movl   $0xbf4e788c,-0x1554(%rbp)
    d1dc:	78 4e bf 
    d1df:	c7 85 b0 ea ff ff ff 	movl   $0xffffffff,-0x1550(%rbp)
    d1e6:	ff ff ff 
    d1e9:	c7 85 b4 ea ff ff 8c 	movl   $0xbf4e788c,-0x154c(%rbp)
    d1f0:	78 4e bf 
    d1f3:	c7 85 b8 ea ff ff 00 	movl   $0x0,-0x1548(%rbp)
    d1fa:	00 00 00 
    d1fd:	c7 85 bc ea ff ff ff 	movl   $0xffffffff,-0x1544(%rbp)
    d204:	ff ff ff 
    d207:	c7 85 c0 ea ff ff f7 	movl   $0xfffffff7,-0x1540(%rbp)
    d20e:	ff ff ff 
    d211:	c7 85 c4 ea ff ff ff 	movl   $0xffffffff,-0x153c(%rbp)
    d218:	ff ff ff 
    d21b:	48 8d 05 f2 80 00 00 	lea    0x80f2(%rip),%rax        # 15314 <g_804>
    d222:	48 89 85 f8 e7 ff ff 	mov    %rax,-0x1808(%rbp)
    d229:	48 8d 85 90 ee ff ff 	lea    -0x1170(%rbp),%rax
    d230:	48 83 c0 28          	add    $0x28,%rax
    d234:	48 89 85 00 e8 ff ff 	mov    %rax,-0x1800(%rbp)
    d23b:	48 8d 85 00 e8 ff ff 	lea    -0x1800(%rbp),%rax
    d242:	48 89 85 70 f2 ff ff 	mov    %rax,-0xd90(%rbp)
    d249:	48 8d 85 00 e8 ff ff 	lea    -0x1800(%rbp),%rax
    d250:	48 89 85 78 f2 ff ff 	mov    %rax,-0xd88(%rbp)
    d257:	48 8d 85 00 e8 ff ff 	lea    -0x1800(%rbp),%rax
    d25e:	48 89 85 80 f2 ff ff 	mov    %rax,-0xd80(%rbp)
    d265:	48 8d 85 00 e8 ff ff 	lea    -0x1800(%rbp),%rax
    d26c:	48 89 85 88 f2 ff ff 	mov    %rax,-0xd78(%rbp)
    d273:	48 8d 85 00 e8 ff ff 	lea    -0x1800(%rbp),%rax
    d27a:	48 89 85 90 f2 ff ff 	mov    %rax,-0xd70(%rbp)
    d281:	48 8d 85 00 e8 ff ff 	lea    -0x1800(%rbp),%rax
    d288:	48 89 85 98 f2 ff ff 	mov    %rax,-0xd68(%rbp)
    d28f:	48 8d 85 00 e8 ff ff 	lea    -0x1800(%rbp),%rax
    d296:	48 89 85 a0 f2 ff ff 	mov    %rax,-0xd60(%rbp)
    d29d:	48 c7 85 a8 f2 ff ff 	movq   $0x0,-0xd58(%rbp)
    d2a4:	00 00 00 00 
    d2a8:	48 8d 85 00 e8 ff ff 	lea    -0x1800(%rbp),%rax
    d2af:	48 89 85 b0 f2 ff ff 	mov    %rax,-0xd50(%rbp)
    d2b6:	48 8d 85 00 e8 ff ff 	lea    -0x1800(%rbp),%rax
    d2bd:	48 89 85 b8 f2 ff ff 	mov    %rax,-0xd48(%rbp)
    d2c4:	48 8d 85 00 e8 ff ff 	lea    -0x1800(%rbp),%rax
    d2cb:	48 89 85 c0 f2 ff ff 	mov    %rax,-0xd40(%rbp)
    d2d2:	48 8d 85 00 e8 ff ff 	lea    -0x1800(%rbp),%rax
    d2d9:	48 89 85 c8 f2 ff ff 	mov    %rax,-0xd38(%rbp)
    d2e0:	48 c7 85 d0 f2 ff ff 	movq   $0x0,-0xd30(%rbp)
    d2e7:	00 00 00 00 
    d2eb:	48 8d 85 00 e8 ff ff 	lea    -0x1800(%rbp),%rax
    d2f2:	48 89 85 d8 f2 ff ff 	mov    %rax,-0xd28(%rbp)
    d2f9:	48 c7 85 e0 f2 ff ff 	movq   $0x0,-0xd20(%rbp)
    d300:	00 00 00 00 
    d304:	48 c7 85 e8 f2 ff ff 	movq   $0x0,-0xd18(%rbp)
    d30b:	00 00 00 00 
    d30f:	48 c7 85 f0 f2 ff ff 	movq   $0x0,-0xd10(%rbp)
    d316:	00 00 00 00 
    d31a:	48 c7 85 f8 f2 ff ff 	movq   $0x0,-0xd08(%rbp)
    d321:	00 00 00 00 
    d325:	48 8d 85 00 e8 ff ff 	lea    -0x1800(%rbp),%rax
    d32c:	48 89 85 00 f3 ff ff 	mov    %rax,-0xd00(%rbp)
    d333:	48 8d 85 00 e8 ff ff 	lea    -0x1800(%rbp),%rax
    d33a:	48 89 85 08 f3 ff ff 	mov    %rax,-0xcf8(%rbp)
    d341:	48 8d 85 00 e8 ff ff 	lea    -0x1800(%rbp),%rax
    d348:	48 89 85 10 f3 ff ff 	mov    %rax,-0xcf0(%rbp)
    d34f:	48 c7 85 18 f3 ff ff 	movq   $0x0,-0xce8(%rbp)
    d356:	00 00 00 00 
    d35a:	48 8d 85 00 e8 ff ff 	lea    -0x1800(%rbp),%rax
    d361:	48 89 85 20 f3 ff ff 	mov    %rax,-0xce0(%rbp)
    d368:	48 8d 85 00 e8 ff ff 	lea    -0x1800(%rbp),%rax
    d36f:	48 89 85 28 f3 ff ff 	mov    %rax,-0xcd8(%rbp)
    d376:	48 8d 85 00 e8 ff ff 	lea    -0x1800(%rbp),%rax
    d37d:	48 89 85 30 f3 ff ff 	mov    %rax,-0xcd0(%rbp)
    d384:	48 c7 85 38 f3 ff ff 	movq   $0x0,-0xcc8(%rbp)
    d38b:	00 00 00 00 
    d38f:	48 8d 85 00 e8 ff ff 	lea    -0x1800(%rbp),%rax
    d396:	48 89 85 40 f3 ff ff 	mov    %rax,-0xcc0(%rbp)
    d39d:	48 c7 85 48 f3 ff ff 	movq   $0x0,-0xcb8(%rbp)
    d3a4:	00 00 00 00 
    d3a8:	48 8d 85 00 e8 ff ff 	lea    -0x1800(%rbp),%rax
    d3af:	48 89 85 50 f3 ff ff 	mov    %rax,-0xcb0(%rbp)
    d3b6:	48 c7 85 58 f3 ff ff 	movq   $0x0,-0xca8(%rbp)
    d3bd:	00 00 00 00 
    d3c1:	48 8d 85 00 e8 ff ff 	lea    -0x1800(%rbp),%rax
    d3c8:	48 89 85 60 f3 ff ff 	mov    %rax,-0xca0(%rbp)
    d3cf:	48 8d 85 00 e8 ff ff 	lea    -0x1800(%rbp),%rax
    d3d6:	48 89 85 68 f3 ff ff 	mov    %rax,-0xc98(%rbp)
    d3dd:	48 8d 85 00 e8 ff ff 	lea    -0x1800(%rbp),%rax
    d3e4:	48 89 85 70 f3 ff ff 	mov    %rax,-0xc90(%rbp)
    d3eb:	48 c7 85 78 f3 ff ff 	movq   $0x0,-0xc88(%rbp)
    d3f2:	00 00 00 00 
    d3f6:	48 8d 85 00 e8 ff ff 	lea    -0x1800(%rbp),%rax
    d3fd:	48 89 85 80 f3 ff ff 	mov    %rax,-0xc80(%rbp)
    d404:	48 8d 85 00 e8 ff ff 	lea    -0x1800(%rbp),%rax
    d40b:	48 89 85 88 f3 ff ff 	mov    %rax,-0xc78(%rbp)
    d412:	48 c7 85 90 f3 ff ff 	movq   $0x0,-0xc70(%rbp)
    d419:	00 00 00 00 
    d41d:	48 8d 85 00 e8 ff ff 	lea    -0x1800(%rbp),%rax
    d424:	48 89 85 98 f3 ff ff 	mov    %rax,-0xc68(%rbp)
    d42b:	48 8d 85 00 e8 ff ff 	lea    -0x1800(%rbp),%rax
    d432:	48 89 85 a0 f3 ff ff 	mov    %rax,-0xc60(%rbp)
    d439:	48 8d 85 00 e8 ff ff 	lea    -0x1800(%rbp),%rax
    d440:	48 89 85 a8 f3 ff ff 	mov    %rax,-0xc58(%rbp)
    d447:	48 8d 85 00 e8 ff ff 	lea    -0x1800(%rbp),%rax
    d44e:	48 89 85 b0 f3 ff ff 	mov    %rax,-0xc50(%rbp)
    d455:	48 8d 85 00 e8 ff ff 	lea    -0x1800(%rbp),%rax
    d45c:	48 89 85 b8 f3 ff ff 	mov    %rax,-0xc48(%rbp)
    d463:	48 8d 85 00 e8 ff ff 	lea    -0x1800(%rbp),%rax
    d46a:	48 89 85 c0 f3 ff ff 	mov    %rax,-0xc40(%rbp)
    d471:	48 8d 85 00 e8 ff ff 	lea    -0x1800(%rbp),%rax
    d478:	48 89 85 c8 f3 ff ff 	mov    %rax,-0xc38(%rbp)
    d47f:	48 c7 85 d0 f3 ff ff 	movq   $0x0,-0xc30(%rbp)
    d486:	00 00 00 00 
    d48a:	48 8d 85 00 e8 ff ff 	lea    -0x1800(%rbp),%rax
    d491:	48 89 85 d8 f3 ff ff 	mov    %rax,-0xc28(%rbp)
    d498:	48 8d 85 00 e8 ff ff 	lea    -0x1800(%rbp),%rax
    d49f:	48 89 85 e0 f3 ff ff 	mov    %rax,-0xc20(%rbp)
    d4a6:	48 8d 85 00 e8 ff ff 	lea    -0x1800(%rbp),%rax
    d4ad:	48 89 85 e8 f3 ff ff 	mov    %rax,-0xc18(%rbp)
    d4b4:	48 8d 85 00 e8 ff ff 	lea    -0x1800(%rbp),%rax
    d4bb:	48 89 85 f0 f3 ff ff 	mov    %rax,-0xc10(%rbp)
    d4c2:	48 8d 85 00 e8 ff ff 	lea    -0x1800(%rbp),%rax
    d4c9:	48 89 85 f8 f3 ff ff 	mov    %rax,-0xc08(%rbp)
    d4d0:	48 8d 85 00 e8 ff ff 	lea    -0x1800(%rbp),%rax
    d4d7:	48 89 85 00 f4 ff ff 	mov    %rax,-0xc00(%rbp)
    d4de:	48 8d 85 00 e8 ff ff 	lea    -0x1800(%rbp),%rax
    d4e5:	48 89 85 08 f4 ff ff 	mov    %rax,-0xbf8(%rbp)
    d4ec:	48 8d 85 00 e8 ff ff 	lea    -0x1800(%rbp),%rax
    d4f3:	48 89 85 10 f4 ff ff 	mov    %rax,-0xbf0(%rbp)
    d4fa:	48 8d 85 00 e8 ff ff 	lea    -0x1800(%rbp),%rax
    d501:	48 89 85 18 f4 ff ff 	mov    %rax,-0xbe8(%rbp)
    d508:	48 8d 85 00 e8 ff ff 	lea    -0x1800(%rbp),%rax
    d50f:	48 89 85 20 f4 ff ff 	mov    %rax,-0xbe0(%rbp)
    d516:	48 8d 85 00 e8 ff ff 	lea    -0x1800(%rbp),%rax
    d51d:	48 89 85 28 f4 ff ff 	mov    %rax,-0xbd8(%rbp)
    d524:	48 c7 85 30 f4 ff ff 	movq   $0x0,-0xbd0(%rbp)
    d52b:	00 00 00 00 
    d52f:	48 8d 85 00 e8 ff ff 	lea    -0x1800(%rbp),%rax
    d536:	48 89 85 38 f4 ff ff 	mov    %rax,-0xbc8(%rbp)
    d53d:	48 8d 85 00 e8 ff ff 	lea    -0x1800(%rbp),%rax
    d544:	48 89 85 40 f4 ff ff 	mov    %rax,-0xbc0(%rbp)
    d54b:	48 c7 85 48 f4 ff ff 	movq   $0x0,-0xbb8(%rbp)
    d552:	00 00 00 00 
    d556:	48 8d 85 00 e8 ff ff 	lea    -0x1800(%rbp),%rax
    d55d:	48 89 85 50 f4 ff ff 	mov    %rax,-0xbb0(%rbp)
    d564:	48 8d 85 00 e8 ff ff 	lea    -0x1800(%rbp),%rax
    d56b:	48 89 85 58 f4 ff ff 	mov    %rax,-0xba8(%rbp)
    d572:	48 8d 85 00 e8 ff ff 	lea    -0x1800(%rbp),%rax
    d579:	48 89 85 60 f4 ff ff 	mov    %rax,-0xba0(%rbp)
    d580:	48 8d 85 00 e8 ff ff 	lea    -0x1800(%rbp),%rax
    d587:	48 89 85 68 f4 ff ff 	mov    %rax,-0xb98(%rbp)
    d58e:	48 8d 85 00 e8 ff ff 	lea    -0x1800(%rbp),%rax
    d595:	48 89 85 70 f4 ff ff 	mov    %rax,-0xb90(%rbp)
    d59c:	48 8d 85 00 e8 ff ff 	lea    -0x1800(%rbp),%rax
    d5a3:	48 89 85 78 f4 ff ff 	mov    %rax,-0xb88(%rbp)
    d5aa:	48 8d 85 00 e8 ff ff 	lea    -0x1800(%rbp),%rax
    d5b1:	48 89 85 80 f4 ff ff 	mov    %rax,-0xb80(%rbp)
    d5b8:	48 8d 85 00 e8 ff ff 	lea    -0x1800(%rbp),%rax
    d5bf:	48 89 85 88 f4 ff ff 	mov    %rax,-0xb78(%rbp)
    d5c6:	48 8d 85 00 e8 ff ff 	lea    -0x1800(%rbp),%rax
    d5cd:	48 89 85 90 f4 ff ff 	mov    %rax,-0xb70(%rbp)
    d5d4:	48 8d 85 00 e8 ff ff 	lea    -0x1800(%rbp),%rax
    d5db:	48 89 85 98 f4 ff ff 	mov    %rax,-0xb68(%rbp)
    d5e2:	48 8d 85 00 e8 ff ff 	lea    -0x1800(%rbp),%rax
    d5e9:	48 89 85 a0 f4 ff ff 	mov    %rax,-0xb60(%rbp)
    d5f0:	48 8d 85 00 e8 ff ff 	lea    -0x1800(%rbp),%rax
    d5f7:	48 89 85 a8 f4 ff ff 	mov    %rax,-0xb58(%rbp)
    d5fe:	48 8d 85 00 e8 ff ff 	lea    -0x1800(%rbp),%rax
    d605:	48 89 85 b0 f4 ff ff 	mov    %rax,-0xb50(%rbp)
    d60c:	48 c7 85 b8 f4 ff ff 	movq   $0x0,-0xb48(%rbp)
    d613:	00 00 00 00 
    d617:	48 c7 85 c0 f4 ff ff 	movq   $0x0,-0xb40(%rbp)
    d61e:	00 00 00 00 
    d622:	48 8d 85 00 e8 ff ff 	lea    -0x1800(%rbp),%rax
    d629:	48 89 85 c8 f4 ff ff 	mov    %rax,-0xb38(%rbp)
    d630:	48 8d 85 00 e8 ff ff 	lea    -0x1800(%rbp),%rax
    d637:	48 89 85 d0 f4 ff ff 	mov    %rax,-0xb30(%rbp)
    d63e:	48 8d 85 00 e8 ff ff 	lea    -0x1800(%rbp),%rax
    d645:	48 89 85 d8 f4 ff ff 	mov    %rax,-0xb28(%rbp)
    d64c:	48 8d 85 00 e8 ff ff 	lea    -0x1800(%rbp),%rax
    d653:	48 89 85 e0 f4 ff ff 	mov    %rax,-0xb20(%rbp)
    d65a:	48 8d 85 00 e8 ff ff 	lea    -0x1800(%rbp),%rax
    d661:	48 89 85 e8 f4 ff ff 	mov    %rax,-0xb18(%rbp)
    d668:	48 8d 85 00 e8 ff ff 	lea    -0x1800(%rbp),%rax
    d66f:	48 89 85 f0 f4 ff ff 	mov    %rax,-0xb10(%rbp)
    d676:	48 8d 85 00 e8 ff ff 	lea    -0x1800(%rbp),%rax
    d67d:	48 89 85 f8 f4 ff ff 	mov    %rax,-0xb08(%rbp)
    d684:	48 c7 85 00 f5 ff ff 	movq   $0x0,-0xb00(%rbp)
    d68b:	00 00 00 00 
    d68f:	48 8d 85 00 e8 ff ff 	lea    -0x1800(%rbp),%rax
    d696:	48 89 85 08 f5 ff ff 	mov    %rax,-0xaf8(%rbp)
    d69d:	48 8d 85 00 e8 ff ff 	lea    -0x1800(%rbp),%rax
    d6a4:	48 89 85 10 f5 ff ff 	mov    %rax,-0xaf0(%rbp)
    d6ab:	48 8d 85 00 e8 ff ff 	lea    -0x1800(%rbp),%rax
    d6b2:	48 89 85 18 f5 ff ff 	mov    %rax,-0xae8(%rbp)
    d6b9:	48 8d 85 00 e8 ff ff 	lea    -0x1800(%rbp),%rax
    d6c0:	48 89 85 20 f5 ff ff 	mov    %rax,-0xae0(%rbp)
    d6c7:	48 c7 85 28 f5 ff ff 	movq   $0x0,-0xad8(%rbp)
    d6ce:	00 00 00 00 
    d6d2:	48 8d 85 00 e8 ff ff 	lea    -0x1800(%rbp),%rax
    d6d9:	48 89 85 30 f5 ff ff 	mov    %rax,-0xad0(%rbp)
    d6e0:	48 c7 85 38 f5 ff ff 	movq   $0x0,-0xac8(%rbp)
    d6e7:	00 00 00 00 
    d6eb:	48 c7 85 40 f5 ff ff 	movq   $0x0,-0xac0(%rbp)
    d6f2:	00 00 00 00 
    d6f6:	48 c7 85 48 f5 ff ff 	movq   $0x0,-0xab8(%rbp)
    d6fd:	00 00 00 00 
    d701:	48 c7 85 50 f5 ff ff 	movq   $0x0,-0xab0(%rbp)
    d708:	00 00 00 00 
    d70c:	48 8d 85 00 e8 ff ff 	lea    -0x1800(%rbp),%rax
    d713:	48 89 85 58 f5 ff ff 	mov    %rax,-0xaa8(%rbp)
    d71a:	48 8d 85 00 e8 ff ff 	lea    -0x1800(%rbp),%rax
    d721:	48 89 85 60 f5 ff ff 	mov    %rax,-0xaa0(%rbp)
    d728:	48 8d 85 00 e8 ff ff 	lea    -0x1800(%rbp),%rax
    d72f:	48 89 85 68 f5 ff ff 	mov    %rax,-0xa98(%rbp)
    d736:	48 c7 85 70 f5 ff ff 	movq   $0x0,-0xa90(%rbp)
    d73d:	00 00 00 00 
    d741:	48 8d 85 00 e8 ff ff 	lea    -0x1800(%rbp),%rax
    d748:	48 89 85 78 f5 ff ff 	mov    %rax,-0xa88(%rbp)
    d74f:	48 8d 85 00 e8 ff ff 	lea    -0x1800(%rbp),%rax
    d756:	48 89 85 80 f5 ff ff 	mov    %rax,-0xa80(%rbp)
    d75d:	48 8d 85 00 e8 ff ff 	lea    -0x1800(%rbp),%rax
    d764:	48 89 85 88 f5 ff ff 	mov    %rax,-0xa78(%rbp)
    d76b:	48 c7 85 90 f5 ff ff 	movq   $0x0,-0xa70(%rbp)
    d772:	00 00 00 00 
    d776:	48 8d 85 00 e8 ff ff 	lea    -0x1800(%rbp),%rax
    d77d:	48 89 85 98 f5 ff ff 	mov    %rax,-0xa68(%rbp)
    d784:	48 c7 85 a0 f5 ff ff 	movq   $0x0,-0xa60(%rbp)
    d78b:	00 00 00 00 
    d78f:	48 8d 85 00 e8 ff ff 	lea    -0x1800(%rbp),%rax
    d796:	48 89 85 a8 f5 ff ff 	mov    %rax,-0xa58(%rbp)
    d79d:	48 c7 85 b0 f5 ff ff 	movq   $0x0,-0xa50(%rbp)
    d7a4:	00 00 00 00 
    d7a8:	48 8d 85 00 e8 ff ff 	lea    -0x1800(%rbp),%rax
    d7af:	48 89 85 b8 f5 ff ff 	mov    %rax,-0xa48(%rbp)
    d7b6:	48 8d 85 00 e8 ff ff 	lea    -0x1800(%rbp),%rax
    d7bd:	48 89 85 c0 f5 ff ff 	mov    %rax,-0xa40(%rbp)
    d7c4:	48 8d 85 00 e8 ff ff 	lea    -0x1800(%rbp),%rax
    d7cb:	48 89 85 c8 f5 ff ff 	mov    %rax,-0xa38(%rbp)
    d7d2:	48 c7 85 d0 f5 ff ff 	movq   $0x0,-0xa30(%rbp)
    d7d9:	00 00 00 00 
    d7dd:	48 8d 85 00 e8 ff ff 	lea    -0x1800(%rbp),%rax
    d7e4:	48 89 85 d8 f5 ff ff 	mov    %rax,-0xa28(%rbp)
    d7eb:	48 8d 85 00 e8 ff ff 	lea    -0x1800(%rbp),%rax
    d7f2:	48 89 85 e0 f5 ff ff 	mov    %rax,-0xa20(%rbp)
    d7f9:	48 c7 85 e8 f5 ff ff 	movq   $0x0,-0xa18(%rbp)
    d800:	00 00 00 00 
    d804:	48 8d 85 00 e8 ff ff 	lea    -0x1800(%rbp),%rax
    d80b:	48 89 85 f0 f5 ff ff 	mov    %rax,-0xa10(%rbp)
    d812:	48 8d 85 00 e8 ff ff 	lea    -0x1800(%rbp),%rax
    d819:	48 89 85 f8 f5 ff ff 	mov    %rax,-0xa08(%rbp)
    d820:	48 8d 85 00 e8 ff ff 	lea    -0x1800(%rbp),%rax
    d827:	48 89 85 00 f6 ff ff 	mov    %rax,-0xa00(%rbp)
    d82e:	48 8d 85 00 e8 ff ff 	lea    -0x1800(%rbp),%rax
    d835:	48 89 85 08 f6 ff ff 	mov    %rax,-0x9f8(%rbp)
    d83c:	48 8d 85 00 e8 ff ff 	lea    -0x1800(%rbp),%rax
    d843:	48 89 85 10 f6 ff ff 	mov    %rax,-0x9f0(%rbp)
    d84a:	48 8d 85 00 e8 ff ff 	lea    -0x1800(%rbp),%rax
    d851:	48 89 85 18 f6 ff ff 	mov    %rax,-0x9e8(%rbp)
    d858:	48 8d 85 00 e8 ff ff 	lea    -0x1800(%rbp),%rax
    d85f:	48 89 85 20 f6 ff ff 	mov    %rax,-0x9e0(%rbp)
    d866:	48 c7 85 28 f6 ff ff 	movq   $0x0,-0x9d8(%rbp)
    d86d:	00 00 00 00 
    d871:	48 8d 85 00 e8 ff ff 	lea    -0x1800(%rbp),%rax
    d878:	48 89 85 30 f6 ff ff 	mov    %rax,-0x9d0(%rbp)
    d87f:	48 8d 85 00 e8 ff ff 	lea    -0x1800(%rbp),%rax
    d886:	48 89 85 38 f6 ff ff 	mov    %rax,-0x9c8(%rbp)
    d88d:	48 8d 85 00 e8 ff ff 	lea    -0x1800(%rbp),%rax
    d894:	48 89 85 40 f6 ff ff 	mov    %rax,-0x9c0(%rbp)
    d89b:	48 8d 85 00 e8 ff ff 	lea    -0x1800(%rbp),%rax
    d8a2:	48 89 85 48 f6 ff ff 	mov    %rax,-0x9b8(%rbp)
    d8a9:	48 8d 85 00 e8 ff ff 	lea    -0x1800(%rbp),%rax
    d8b0:	48 89 85 50 f6 ff ff 	mov    %rax,-0x9b0(%rbp)
    d8b7:	48 8d 85 00 e8 ff ff 	lea    -0x1800(%rbp),%rax
    d8be:	48 89 85 58 f6 ff ff 	mov    %rax,-0x9a8(%rbp)
    d8c5:	48 8d 85 00 e8 ff ff 	lea    -0x1800(%rbp),%rax
    d8cc:	48 89 85 60 f6 ff ff 	mov    %rax,-0x9a0(%rbp)
    d8d3:	48 8d 85 00 e8 ff ff 	lea    -0x1800(%rbp),%rax
    d8da:	48 89 85 68 f6 ff ff 	mov    %rax,-0x998(%rbp)
    d8e1:	48 8d 85 00 e8 ff ff 	lea    -0x1800(%rbp),%rax
    d8e8:	48 89 85 70 f6 ff ff 	mov    %rax,-0x990(%rbp)
    d8ef:	48 8d 85 00 e8 ff ff 	lea    -0x1800(%rbp),%rax
    d8f6:	48 89 85 78 f6 ff ff 	mov    %rax,-0x988(%rbp)
    d8fd:	48 8d 85 00 e8 ff ff 	lea    -0x1800(%rbp),%rax
    d904:	48 89 85 80 f6 ff ff 	mov    %rax,-0x980(%rbp)
    d90b:	48 c7 85 88 f6 ff ff 	movq   $0x0,-0x978(%rbp)
    d912:	00 00 00 00 
    d916:	48 8d 85 00 e8 ff ff 	lea    -0x1800(%rbp),%rax
    d91d:	48 89 85 90 f6 ff ff 	mov    %rax,-0x970(%rbp)
    d924:	48 8d 85 00 e8 ff ff 	lea    -0x1800(%rbp),%rax
    d92b:	48 89 85 98 f6 ff ff 	mov    %rax,-0x968(%rbp)
    d932:	48 c7 85 a0 f6 ff ff 	movq   $0x0,-0x960(%rbp)
    d939:	00 00 00 00 
    d93d:	48 8d 85 00 e8 ff ff 	lea    -0x1800(%rbp),%rax
    d944:	48 89 85 a8 f6 ff ff 	mov    %rax,-0x958(%rbp)
    d94b:	48 8d 85 00 e8 ff ff 	lea    -0x1800(%rbp),%rax
    d952:	48 89 85 b0 f6 ff ff 	mov    %rax,-0x950(%rbp)
    d959:	48 8d 85 00 e8 ff ff 	lea    -0x1800(%rbp),%rax
    d960:	48 89 85 b8 f6 ff ff 	mov    %rax,-0x948(%rbp)
    d967:	48 8d 85 00 e8 ff ff 	lea    -0x1800(%rbp),%rax
    d96e:	48 89 85 c0 f6 ff ff 	mov    %rax,-0x940(%rbp)
    d975:	48 8d 85 00 e8 ff ff 	lea    -0x1800(%rbp),%rax
    d97c:	48 89 85 c8 f6 ff ff 	mov    %rax,-0x938(%rbp)
    d983:	48 8d 85 00 e8 ff ff 	lea    -0x1800(%rbp),%rax
    d98a:	48 89 85 d0 f6 ff ff 	mov    %rax,-0x930(%rbp)
    d991:	48 8d 85 00 e8 ff ff 	lea    -0x1800(%rbp),%rax
    d998:	48 89 85 d8 f6 ff ff 	mov    %rax,-0x928(%rbp)
    d99f:	48 8d 85 00 e8 ff ff 	lea    -0x1800(%rbp),%rax
    d9a6:	48 89 85 e0 f6 ff ff 	mov    %rax,-0x920(%rbp)
    d9ad:	48 8d 85 00 e8 ff ff 	lea    -0x1800(%rbp),%rax
    d9b4:	48 89 85 e8 f6 ff ff 	mov    %rax,-0x918(%rbp)
    d9bb:	48 8d 85 00 e8 ff ff 	lea    -0x1800(%rbp),%rax
    d9c2:	48 89 85 f0 f6 ff ff 	mov    %rax,-0x910(%rbp)
    d9c9:	48 8d 85 00 e8 ff ff 	lea    -0x1800(%rbp),%rax
    d9d0:	48 89 85 f8 f6 ff ff 	mov    %rax,-0x908(%rbp)
    d9d7:	48 8d 85 00 e8 ff ff 	lea    -0x1800(%rbp),%rax
    d9de:	48 89 85 00 f7 ff ff 	mov    %rax,-0x900(%rbp)
    d9e5:	48 8d 85 00 e8 ff ff 	lea    -0x1800(%rbp),%rax
    d9ec:	48 89 85 08 f7 ff ff 	mov    %rax,-0x8f8(%rbp)
    d9f3:	48 c7 85 10 f7 ff ff 	movq   $0x0,-0x8f0(%rbp)
    d9fa:	00 00 00 00 
    d9fe:	48 c7 85 18 f7 ff ff 	movq   $0x0,-0x8e8(%rbp)
    da05:	00 00 00 00 
    da09:	48 8d 85 00 e8 ff ff 	lea    -0x1800(%rbp),%rax
    da10:	48 89 85 20 f7 ff ff 	mov    %rax,-0x8e0(%rbp)
    da17:	48 8d 85 00 e8 ff ff 	lea    -0x1800(%rbp),%rax
    da1e:	48 89 85 28 f7 ff ff 	mov    %rax,-0x8d8(%rbp)
    da25:	48 8d 85 00 e8 ff ff 	lea    -0x1800(%rbp),%rax
    da2c:	48 89 85 30 f7 ff ff 	mov    %rax,-0x8d0(%rbp)
    da33:	48 8d 85 00 e8 ff ff 	lea    -0x1800(%rbp),%rax
    da3a:	48 89 85 38 f7 ff ff 	mov    %rax,-0x8c8(%rbp)
    da41:	48 8d 85 00 e8 ff ff 	lea    -0x1800(%rbp),%rax
    da48:	48 89 85 40 f7 ff ff 	mov    %rax,-0x8c0(%rbp)
    da4f:	48 8d 85 00 e8 ff ff 	lea    -0x1800(%rbp),%rax
    da56:	48 89 85 48 f7 ff ff 	mov    %rax,-0x8b8(%rbp)
    da5d:	48 8d 85 00 e8 ff ff 	lea    -0x1800(%rbp),%rax
    da64:	48 89 85 50 f7 ff ff 	mov    %rax,-0x8b0(%rbp)
    da6b:	48 c7 85 58 f7 ff ff 	movq   $0x0,-0x8a8(%rbp)
    da72:	00 00 00 00 
    da76:	48 8d 85 00 e8 ff ff 	lea    -0x1800(%rbp),%rax
    da7d:	48 89 85 60 f7 ff ff 	mov    %rax,-0x8a0(%rbp)
    da84:	48 8d 85 00 e8 ff ff 	lea    -0x1800(%rbp),%rax
    da8b:	48 89 85 68 f7 ff ff 	mov    %rax,-0x898(%rbp)
    da92:	48 8d 85 00 e8 ff ff 	lea    -0x1800(%rbp),%rax
    da99:	48 89 85 70 f7 ff ff 	mov    %rax,-0x890(%rbp)
    daa0:	48 8d 85 00 e8 ff ff 	lea    -0x1800(%rbp),%rax
    daa7:	48 89 85 78 f7 ff ff 	mov    %rax,-0x888(%rbp)
    daae:	48 c7 85 80 f7 ff ff 	movq   $0x0,-0x880(%rbp)
    dab5:	00 00 00 00 
    dab9:	48 8d 85 00 e8 ff ff 	lea    -0x1800(%rbp),%rax
    dac0:	48 89 85 88 f7 ff ff 	mov    %rax,-0x878(%rbp)
    dac7:	48 c7 85 90 f7 ff ff 	movq   $0x0,-0x870(%rbp)
    dace:	00 00 00 00 
    dad2:	48 c7 85 98 f7 ff ff 	movq   $0x0,-0x868(%rbp)
    dad9:	00 00 00 00 
    dadd:	48 c7 85 a0 f7 ff ff 	movq   $0x0,-0x860(%rbp)
    dae4:	00 00 00 00 
    dae8:	48 c7 85 a8 f7 ff ff 	movq   $0x0,-0x858(%rbp)
    daef:	00 00 00 00 
    daf3:	48 8d 85 00 e8 ff ff 	lea    -0x1800(%rbp),%rax
    dafa:	48 89 85 b0 f7 ff ff 	mov    %rax,-0x850(%rbp)
    db01:	48 8d 85 00 e8 ff ff 	lea    -0x1800(%rbp),%rax
    db08:	48 89 85 b8 f7 ff ff 	mov    %rax,-0x848(%rbp)
    db0f:	48 8d 85 00 e8 ff ff 	lea    -0x1800(%rbp),%rax
    db16:	48 89 85 c0 f7 ff ff 	mov    %rax,-0x840(%rbp)
    db1d:	48 c7 85 c8 f7 ff ff 	movq   $0x0,-0x838(%rbp)
    db24:	00 00 00 00 
    db28:	48 8d 85 00 e8 ff ff 	lea    -0x1800(%rbp),%rax
    db2f:	48 89 85 d0 f7 ff ff 	mov    %rax,-0x830(%rbp)
    db36:	48 8d 85 00 e8 ff ff 	lea    -0x1800(%rbp),%rax
    db3d:	48 89 85 d8 f7 ff ff 	mov    %rax,-0x828(%rbp)
    db44:	48 8d 85 00 e8 ff ff 	lea    -0x1800(%rbp),%rax
    db4b:	48 89 85 e0 f7 ff ff 	mov    %rax,-0x820(%rbp)
    db52:	48 c7 85 e8 f7 ff ff 	movq   $0x0,-0x818(%rbp)
    db59:	00 00 00 00 
    db5d:	48 8d 85 00 e8 ff ff 	lea    -0x1800(%rbp),%rax
    db64:	48 89 85 f0 f7 ff ff 	mov    %rax,-0x810(%rbp)
    db6b:	48 c7 85 f8 f7 ff ff 	movq   $0x0,-0x808(%rbp)
    db72:	00 00 00 00 
    db76:	48 8d 85 00 e8 ff ff 	lea    -0x1800(%rbp),%rax
    db7d:	48 89 85 00 f8 ff ff 	mov    %rax,-0x800(%rbp)
    db84:	48 c7 85 08 f8 ff ff 	movq   $0x0,-0x7f8(%rbp)
    db8b:	00 00 00 00 
    db8f:	48 8d 85 00 e8 ff ff 	lea    -0x1800(%rbp),%rax
    db96:	48 89 85 10 f8 ff ff 	mov    %rax,-0x7f0(%rbp)
    db9d:	48 8d 85 00 e8 ff ff 	lea    -0x1800(%rbp),%rax
    dba4:	48 89 85 18 f8 ff ff 	mov    %rax,-0x7e8(%rbp)
    dbab:	48 8d 85 00 e8 ff ff 	lea    -0x1800(%rbp),%rax
    dbb2:	48 89 85 20 f8 ff ff 	mov    %rax,-0x7e0(%rbp)
    dbb9:	48 c7 85 28 f8 ff ff 	movq   $0x0,-0x7d8(%rbp)
    dbc0:	00 00 00 00 
    dbc4:	48 8d 85 00 e8 ff ff 	lea    -0x1800(%rbp),%rax
    dbcb:	48 89 85 30 f8 ff ff 	mov    %rax,-0x7d0(%rbp)
    dbd2:	48 8d 85 00 e8 ff ff 	lea    -0x1800(%rbp),%rax
    dbd9:	48 89 85 38 f8 ff ff 	mov    %rax,-0x7c8(%rbp)
    dbe0:	48 c7 85 40 f8 ff ff 	movq   $0x0,-0x7c0(%rbp)
    dbe7:	00 00 00 00 
    dbeb:	48 8d 85 00 e8 ff ff 	lea    -0x1800(%rbp),%rax
    dbf2:	48 89 85 48 f8 ff ff 	mov    %rax,-0x7b8(%rbp)
    dbf9:	48 8d 85 00 e8 ff ff 	lea    -0x1800(%rbp),%rax
    dc00:	48 89 85 50 f8 ff ff 	mov    %rax,-0x7b0(%rbp)
    dc07:	48 8d 85 00 e8 ff ff 	lea    -0x1800(%rbp),%rax
    dc0e:	48 89 85 58 f8 ff ff 	mov    %rax,-0x7a8(%rbp)
    dc15:	48 c7 85 60 f8 ff ff 	movq   $0x0,-0x7a0(%rbp)
    dc1c:	00 00 00 00 
    dc20:	48 8d 85 00 e8 ff ff 	lea    -0x1800(%rbp),%rax
    dc27:	48 89 85 68 f8 ff ff 	mov    %rax,-0x798(%rbp)
    dc2e:	48 8d 85 00 e8 ff ff 	lea    -0x1800(%rbp),%rax
    dc35:	48 89 85 70 f8 ff ff 	mov    %rax,-0x790(%rbp)
    dc3c:	48 8d 85 00 e8 ff ff 	lea    -0x1800(%rbp),%rax
    dc43:	48 89 85 78 f8 ff ff 	mov    %rax,-0x788(%rbp)
    dc4a:	48 8d 85 00 e8 ff ff 	lea    -0x1800(%rbp),%rax
    dc51:	48 89 85 80 f8 ff ff 	mov    %rax,-0x780(%rbp)
    dc58:	48 c7 85 88 f8 ff ff 	movq   $0x0,-0x778(%rbp)
    dc5f:	00 00 00 00 
    dc63:	48 c7 85 90 f8 ff ff 	movq   $0x0,-0x770(%rbp)
    dc6a:	00 00 00 00 
    dc6e:	48 8d 85 00 e8 ff ff 	lea    -0x1800(%rbp),%rax
    dc75:	48 89 85 98 f8 ff ff 	mov    %rax,-0x768(%rbp)
    dc7c:	48 8d 85 00 e8 ff ff 	lea    -0x1800(%rbp),%rax
    dc83:	48 89 85 a0 f8 ff ff 	mov    %rax,-0x760(%rbp)
    dc8a:	48 8d 85 00 e8 ff ff 	lea    -0x1800(%rbp),%rax
    dc91:	48 89 85 a8 f8 ff ff 	mov    %rax,-0x758(%rbp)
    dc98:	48 8d 85 00 e8 ff ff 	lea    -0x1800(%rbp),%rax
    dc9f:	48 89 85 b0 f8 ff ff 	mov    %rax,-0x750(%rbp)
    dca6:	48 8d 85 00 e8 ff ff 	lea    -0x1800(%rbp),%rax
    dcad:	48 89 85 b8 f8 ff ff 	mov    %rax,-0x748(%rbp)
    dcb4:	48 c7 85 c0 f8 ff ff 	movq   $0x0,-0x740(%rbp)
    dcbb:	00 00 00 00 
    dcbf:	48 8d 85 00 e8 ff ff 	lea    -0x1800(%rbp),%rax
    dcc6:	48 89 85 c8 f8 ff ff 	mov    %rax,-0x738(%rbp)
    dccd:	48 c7 85 d0 f8 ff ff 	movq   $0x0,-0x730(%rbp)
    dcd4:	00 00 00 00 
    dcd8:	48 8d 85 00 e8 ff ff 	lea    -0x1800(%rbp),%rax
    dcdf:	48 89 85 d8 f8 ff ff 	mov    %rax,-0x728(%rbp)
    dce6:	48 c7 85 e0 f8 ff ff 	movq   $0x0,-0x720(%rbp)
    dced:	00 00 00 00 
    dcf1:	48 8d 85 00 e8 ff ff 	lea    -0x1800(%rbp),%rax
    dcf8:	48 89 85 e8 f8 ff ff 	mov    %rax,-0x718(%rbp)
    dcff:	48 c7 85 f0 f8 ff ff 	movq   $0x0,-0x710(%rbp)
    dd06:	00 00 00 00 
    dd0a:	48 8d 85 00 e8 ff ff 	lea    -0x1800(%rbp),%rax
    dd11:	48 89 85 f8 f8 ff ff 	mov    %rax,-0x708(%rbp)
    dd18:	48 8d 85 00 f9 ff ff 	lea    -0x700(%rbp),%rax
    dd1f:	48 8d 15 da 92 00 00 	lea    0x92da(%rip),%rdx        # 17000 <g_3344+0x1628>
    dd26:	b9 d8 00 00 00       	mov    $0xd8,%ecx
    dd2b:	48 89 c7             	mov    %rax,%rdi
    dd2e:	48 89 d6             	mov    %rdx,%rsi
    dd31:	f3 48 a5             	rep movsq %ds:(%rsi),%es:(%rdi)
    dd34:	48 8d 05 85 99 00 00 	lea    0x9985(%rip),%rax        # 176c0 <g_21>
    dd3b:	48 89 85 08 e8 ff ff 	mov    %rax,-0x17f8(%rbp)
    dd42:	48 c7 85 80 e8 ff ff 	movq   $0x0,-0x1780(%rbp)
    dd49:	00 00 00 00 
    dd4d:	66 c7 85 3e e7 ff ff 	movw   $0xffff,-0x18c2(%rbp)
    dd54:	ff ff 
    dd56:	48 b8 73 29 40 fb 53 	movabs $0xb3c4da53fb402973,%rax
    dd5d:	da c4 b3 
    dd60:	48 89 85 88 e8 ff ff 	mov    %rax,-0x1778(%rbp)
    dd67:	48 c7 85 10 e8 ff ff 	movq   $0x0,-0x17f0(%rbp)
    dd6e:	00 00 00 00 
    dd72:	48 8d 05 4f 99 00 00 	lea    0x994f(%rip),%rax        # 176c8 <g_20>
    dd79:	48 89 85 18 e8 ff ff 	mov    %rax,-0x17e8(%rbp)
    dd80:	48 8d 85 18 e8 ff ff 	lea    -0x17e8(%rbp),%rax
    dd87:	48 89 85 20 e8 ff ff 	mov    %rax,-0x17e0(%rbp)
    dd8e:	48 8d 85 20 e8 ff ff 	lea    -0x17e0(%rbp),%rax
    dd95:	48 89 85 90 e8 ff ff 	mov    %rax,-0x1770(%rbp)
    dd9c:	48 c7 85 98 e8 ff ff 	movq   $0xffffffffffffffff,-0x1768(%rbp)
    dda3:	ff ff ff ff 
    dda7:	48 c7 85 a0 e8 ff ff 	movq   $0x0,-0x1760(%rbp)
    ddae:	00 00 00 00 
    ddb2:	48 c7 85 28 e8 ff ff 	movq   $0x0,-0x17d8(%rbp)
    ddb9:	00 00 00 00 
    ddbd:	48 8d 85 28 e8 ff ff 	lea    -0x17d8(%rbp),%rax
    ddc4:	48 89 85 30 e8 ff ff 	mov    %rax,-0x17d0(%rbp)
    ddcb:	48 8d 85 10 e8 ff ff 	lea    -0x17f0(%rbp),%rax
    ddd2:	48 89 85 38 e8 ff ff 	mov    %rax,-0x17c8(%rbp)
    ddd9:	66 c7 05 16 73 00 00 	movw   $0x0,0x7316(%rip)        # 150f8 <g_108>
    dde0:	00 00 
    dde2:	e9 be 01 00 00       	jmpq   dfa5 <func_99+0xfbb>
    dde7:	48 8d 05 d2 98 00 00 	lea    0x98d2(%rip),%rax        # 176c0 <g_21>
    ddee:	48 89 85 40 f0 ff ff 	mov    %rax,-0xfc0(%rbp)
    ddf5:	48 8d 05 c4 98 00 00 	lea    0x98c4(%rip),%rax        # 176c0 <g_21>
    ddfc:	48 89 85 48 f0 ff ff 	mov    %rax,-0xfb8(%rbp)
    de03:	48 8d 85 e0 e7 ff ff 	lea    -0x1820(%rbp),%rax
    de0a:	48 89 85 50 f0 ff ff 	mov    %rax,-0xfb0(%rbp)
    de11:	48 8d 05 a8 98 00 00 	lea    0x98a8(%rip),%rax        # 176c0 <g_21>
    de18:	48 89 85 58 f0 ff ff 	mov    %rax,-0xfa8(%rbp)
    de1f:	48 8d 05 9a 98 00 00 	lea    0x989a(%rip),%rax        # 176c0 <g_21>
    de26:	48 89 85 60 f0 ff ff 	mov    %rax,-0xfa0(%rbp)
    de2d:	48 8d 85 e0 e7 ff ff 	lea    -0x1820(%rbp),%rax
    de34:	48 89 85 68 f0 ff ff 	mov    %rax,-0xf98(%rbp)
    de3b:	48 8d 05 7e 98 00 00 	lea    0x987e(%rip),%rax        # 176c0 <g_21>
    de42:	48 89 85 70 f0 ff ff 	mov    %rax,-0xf90(%rbp)
    de49:	48 8d 05 70 98 00 00 	lea    0x9870(%rip),%rax        # 176c0 <g_21>
    de50:	48 89 85 78 f0 ff ff 	mov    %rax,-0xf88(%rbp)
    de57:	48 8d 85 e0 e7 ff ff 	lea    -0x1820(%rbp),%rax
    de5e:	48 89 85 80 f0 ff ff 	mov    %rax,-0xf80(%rbp)
    de65:	48 c7 85 88 e9 ff ff 	movq   $0x0,-0x1678(%rbp)
    de6c:	00 00 00 00 
    de70:	48 8d 05 31 72 00 00 	lea    0x7231(%rip),%rax        # 150a8 <g_53+0x8>
    de77:	48 89 85 90 e9 ff ff 	mov    %rax,-0x1670(%rbp)
    de7e:	48 8d 05 87 72 00 00 	lea    0x7287(%rip),%rax        # 1510c <g_134>
    de85:	48 89 85 98 e9 ff ff 	mov    %rax,-0x1668(%rbp)
    de8c:	c6 85 3b e7 ff ff 88 	movb   $0x88,-0x18c5(%rbp)
    de93:	48 c7 85 30 ec ff ff 	movq   $0x0,-0x13d0(%rbp)
    de9a:	00 00 00 00 
    de9e:	48 c7 85 38 ec ff ff 	movq   $0x0,-0x13c8(%rbp)
    dea5:	00 00 00 00 
    dea9:	48 c7 85 40 ec ff ff 	movq   $0x0,-0x13c0(%rbp)
    deb0:	00 00 00 00 
    deb4:	48 c7 85 48 ec ff ff 	movq   $0x0,-0x13b8(%rbp)
    debb:	00 00 00 00 
    debf:	48 c7 85 50 ec ff ff 	movq   $0x0,-0x13b0(%rbp)
    dec6:	00 00 00 00 
    deca:	48 c7 85 58 ec ff ff 	movq   $0x0,-0x13a8(%rbp)
    ded1:	00 00 00 00 
    ded5:	48 c7 85 60 ec ff ff 	movq   $0x0,-0x13a0(%rbp)
    dedc:	00 00 00 00 
    dee0:	48 c7 85 68 ec ff ff 	movq   $0x0,-0x1398(%rbp)
    dee7:	00 00 00 00 
    deeb:	48 b8 e4 20 89 a8 de 	movabs $0x35286adea88920e4,%rax
    def2:	6a 28 35 
    def5:	48 89 85 a0 e9 ff ff 	mov    %rax,-0x1660(%rbp)
    defc:	48 8b 05 c5 97 00 00 	mov    0x97c5(%rip),%rax        # 176c8 <g_20>
    df03:	48 8b 00             	mov    (%rax),%rax
    df06:	8b 00                	mov    (%rax),%eax
    df08:	85 c0                	test   %eax,%eax
    df0a:	75 3e                	jne    df4a <func_99+0xf60>
    df0c:	8b 85 24 e7 ff ff    	mov    -0x18dc(%rbp),%eax
    df12:	0f b6 d8             	movzbl %al,%ebx
    df15:	48 8b 05 74 6e 00 00 	mov    0x6e74(%rip),%rax        # 14d90 <l_120.4722+0x10>
    df1c:	48 8b 95 e0 e7 ff ff 	mov    -0x1820(%rbp),%rdx
    df23:	48 89 95 60 e8 ff ff 	mov    %rdx,-0x17a0(%rbp)
    df2a:	48 39 85 60 e8 ff ff 	cmp    %rax,-0x17a0(%rbp)
    df31:	0f 95 c0             	setne  %al
    df34:	0f b6 c0             	movzbl %al,%eax
    df37:	89 c7                	mov    %eax,%edi
    df39:	e8 ab 9d ff ff       	callq  7ce9 <safe_unary_minus_func_uint16_t_u>
    df3e:	89 de                	mov    %ebx,%esi
    df40:	bf 01 00 00 00       	mov    $0x1,%edi
    df45:	e8 2e 9c ff ff       	callq  7b78 <safe_sub_func_uint8_t_u_u>
    df4a:	b8 01 00 00 00       	mov    $0x1,%eax
    df4f:	89 c2                	mov    %eax,%edx
    df51:	48 8b 85 90 e9 ff ff 	mov    -0x1670(%rbp),%rax
    df58:	66 89 10             	mov    %dx,(%rax)
    df5b:	48 8b 85 90 e9 ff ff 	mov    -0x1670(%rbp),%rax
    df62:	0f b7 00             	movzwl (%rax),%eax
    df65:	66 85 c0             	test   %ax,%ax
    df68:	0f 95 c0             	setne  %al
    df6b:	0f b6 d0             	movzbl %al,%edx
    df6e:	48 8b 05 03 71 00 00 	mov    0x7103(%rip),%rax        # 15078 <g_17>
    df75:	48 89 d6             	mov    %rdx,%rsi
    df78:	48 89 c7             	mov    %rax,%rdi
    df7b:	e8 2f a1 ff ff       	callq  80af <safe_div_func_uint64_t_u_u>
    df80:	48 8b 95 e0 e7 ff ff 	mov    -0x1820(%rbp),%rdx
    df87:	8b 12                	mov    (%rdx),%edx
    df89:	09 c2                	or     %eax,%edx
    df8b:	48 8b 85 e0 e7 ff ff 	mov    -0x1820(%rbp),%rax
    df92:	89 10                	mov    %edx,(%rax)
    df94:	0f b7 05 5d 71 00 00 	movzwl 0x715d(%rip),%eax        # 150f8 <g_108>
    df9b:	83 c0 01             	add    $0x1,%eax
    df9e:	66 89 05 53 71 00 00 	mov    %ax,0x7153(%rip)        # 150f8 <g_108>
    dfa5:	0f b7 05 4c 71 00 00 	movzwl 0x714c(%rip),%eax        # 150f8 <g_108>
    dfac:	66 83 f8 06          	cmp    $0x6,%ax
    dfb0:	0f 8e 31 fe ff ff    	jle    dde7 <func_99+0xdfd>
    dfb6:	48 8b 05 03 97 00 00 	mov    0x9703(%rip),%rax        # 176c0 <g_21>
    dfbd:	8b 00                	mov    (%rax),%eax
    dfbf:	85 c0                	test   %eax,%eax
    dfc1:	0f 84 32 01 00 00    	je     e0f9 <func_99+0x110f>
    dfc7:	c7 85 80 e7 ff ff fa 	movl   $0xfffffffa,-0x1880(%rbp)
    dfce:	ff ff ff 
    dfd1:	c7 85 84 e7 ff ff 8f 	movl   $0xf2b5618f,-0x187c(%rbp)
    dfd8:	61 b5 f2 
    dfdb:	c7 85 88 e7 ff ff fa 	movl   $0xfffffffa,-0x1878(%rbp)
    dfe2:	ff ff ff 
    dfe5:	48 8d 85 e8 e7 ff ff 	lea    -0x1818(%rbp),%rax
    dfec:	48 89 85 c8 e8 ff ff 	mov    %rax,-0x1738(%rbp)
    dff3:	48 c7 85 d0 e8 ff ff 	movq   $0xffffffffffffffff,-0x1730(%rbp)
    dffa:	ff ff ff ff 
    dffe:	48 8d 05 83 72 00 00 	lea    0x7283(%rip),%rax        # 15288 <g_417+0x148>
    e005:	48 89 85 d8 e8 ff ff 	mov    %rax,-0x1728(%rbp)
    e00c:	c7 05 fa 70 00 00 00 	movl   $0x0,0x70fa(%rip)        # 15110 <g_143>
    e013:	00 00 00 
    e016:	eb 2b                	jmp    e043 <func_99+0x1059>
    e018:	8b 05 f2 70 00 00    	mov    0x70f2(%rip),%eax        # 15110 <g_143>
    e01e:	85 c0                	test   %eax,%eax
    e020:	74 05                	je     e027 <func_99+0x103d>
    e022:	e9 b2 fd ff ff       	jmpq   ddd9 <func_99+0xdef>
    e027:	48 8b 05 92 96 00 00 	mov    0x9692(%rip),%rax        # 176c0 <g_21>
    e02e:	8b 00                	mov    (%rax),%eax
    e030:	85 c0                	test   %eax,%eax
    e032:	75 1c                	jne    e050 <func_99+0x1066>
    e034:	8b 05 d6 70 00 00    	mov    0x70d6(%rip),%eax        # 15110 <g_143>
    e03a:	83 c0 01             	add    $0x1,%eax
    e03d:	89 05 cd 70 00 00    	mov    %eax,0x70cd(%rip)        # 15110 <g_143>
    e043:	8b 05 c7 70 00 00    	mov    0x70c7(%rip),%eax        # 15110 <g_143>
    e049:	83 f8 30             	cmp    $0x30,%eax
    e04c:	77 ca                	ja     e018 <func_99+0x102e>
    e04e:	eb 01                	jmp    e051 <func_99+0x1067>
    e050:	90                   	nop
    e051:	48 8b 15 70 96 00 00 	mov    0x9670(%rip),%rdx        # 176c8 <g_20>
    e058:	48 8b 05 69 96 00 00 	mov    0x9669(%rip),%rax        # 176c8 <g_20>
    e05f:	48 8b 12             	mov    (%rdx),%rdx
    e062:	48 89 10             	mov    %rdx,(%rax)
    e065:	c6 05 b8 70 00 00 11 	movb   $0x11,0x70b8(%rip)        # 15124 <g_171>
    e06c:	eb 77                	jmp    e0e5 <func_99+0x10fb>
    e06e:	48 8d 05 83 70 00 00 	lea    0x7083(%rip),%rax        # 150f8 <g_108>
    e075:	48 89 85 e0 e8 ff ff 	mov    %rax,-0x1720(%rbp)
    e07c:	c7 85 8c e7 ff ff b5 	movl   $0xa27feab5,-0x1874(%rbp)
    e083:	ea 7f a2 
    e086:	c7 85 90 e7 ff ff fe 	movl   $0xfffffffe,-0x1870(%rbp)
    e08d:	ff ff ff 
    e090:	c7 85 94 e7 ff ff 30 	movl   $0xce254330,-0x186c(%rbp)
    e097:	43 25 ce 
    e09a:	48 8d 85 50 ed ff ff 	lea    -0x12b0(%rbp),%rax
    e0a1:	48 05 a8 00 00 00    	add    $0xa8,%rax
    e0a7:	48 89 85 e8 e8 ff ff 	mov    %rax,-0x1718(%rbp)
    e0ae:	48 c7 85 f0 e8 ff ff 	movq   $0x0,-0x1710(%rbp)
    e0b5:	00 00 00 00 
    e0b9:	48 8d 05 40 96 00 00 	lea    0x9640(%rip),%rax        # 17700 <g_52>
    e0c0:	48 89 85 f8 e8 ff ff 	mov    %rax,-0x1708(%rbp)
    e0c7:	48 8d 05 22 72 00 00 	lea    0x7222(%rip),%rax        # 152f0 <g_417+0x1b0>
    e0ce:	48 89 85 00 e9 ff ff 	mov    %rax,-0x1700(%rbp)
    e0d5:	0f b6 05 48 70 00 00 	movzbl 0x7048(%rip),%eax        # 15124 <g_171>
    e0dc:	83 e8 01             	sub    $0x1,%eax
    e0df:	88 05 3f 70 00 00    	mov    %al,0x703f(%rip)        # 15124 <g_171>
    e0e5:	0f b6 05 38 70 00 00 	movzbl 0x7038(%rip),%eax        # 15124 <g_171>
    e0ec:	3c 0f                	cmp    $0xf,%al
    e0ee:	0f 8f 7a ff ff ff    	jg     e06e <func_99+0x1084>
    e0f4:	e9 94 02 00 00       	jmpq   e38d <func_99+0x13a3>
    e0f9:	48 8d 85 37 e7 ff ff 	lea    -0x18c9(%rbp),%rax
    e100:	48 89 85 48 e8 ff ff 	mov    %rax,-0x17b8(%rbp)
    e107:	48 8d 85 48 e8 ff ff 	lea    -0x17b8(%rbp),%rax
    e10e:	48 89 85 a8 e8 ff ff 	mov    %rax,-0x1758(%rbp)
    e115:	c7 85 40 f0 ff ff b5 	movl   $0x2fd75eb5,-0xfc0(%rbp)
    e11c:	5e d7 2f 
    e11f:	c7 85 44 f0 ff ff f5 	movl   $0x281ccaf5,-0xfbc(%rbp)
    e126:	ca 1c 28 
    e129:	c7 85 48 f0 ff ff 11 	movl   $0x9eabac11,-0xfb8(%rbp)
    e130:	ac ab 9e 
    e133:	c7 85 4c f0 ff ff fe 	movl   $0xfffffffe,-0xfb4(%rbp)
    e13a:	ff ff ff 
    e13d:	c7 85 50 f0 ff ff bb 	movl   $0xbc7edfbb,-0xfb0(%rbp)
    e144:	df 7e bc 
    e147:	c7 85 54 f0 ff ff 07 	movl   $0x7,-0xfac(%rbp)
    e14e:	00 00 00 
    e151:	c7 85 58 f0 ff ff ff 	movl   $0xffffffff,-0xfa8(%rbp)
    e158:	ff ff ff 
    e15b:	c7 85 5c f0 ff ff 07 	movl   $0x7,-0xfa4(%rbp)
    e162:	00 00 00 
    e165:	c7 85 60 f0 ff ff 07 	movl   $0x7,-0xfa0(%rbp)
    e16c:	00 00 00 
    e16f:	c7 85 64 f0 ff ff 11 	movl   $0x9eabac11,-0xf9c(%rbp)
    e176:	ac ab 9e 
    e179:	c7 85 68 f0 ff ff b5 	movl   $0x2fd75eb5,-0xf98(%rbp)
    e180:	5e d7 2f 
    e183:	c7 85 6c f0 ff ff 07 	movl   $0x7,-0xf94(%rbp)
    e18a:	00 00 00 
    e18d:	c7 85 70 f0 ff ff b5 	movl   $0x2fd75eb5,-0xf90(%rbp)
    e194:	5e d7 2f 
    e197:	c7 85 74 f0 ff ff 07 	movl   $0x7,-0xf8c(%rbp)
    e19e:	00 00 00 
    e1a1:	c7 85 78 f0 ff ff fe 	movl   $0xfffffffe,-0xf88(%rbp)
    e1a8:	ff ff ff 
    e1ab:	c7 85 7c f0 ff ff fe 	movl   $0xfffffffe,-0xf84(%rbp)
    e1b2:	ff ff ff 
    e1b5:	c7 85 80 f0 ff ff f5 	movl   $0x281ccaf5,-0xf80(%rbp)
    e1bc:	ca 1c 28 
    e1bf:	c7 85 84 f0 ff ff f5 	movl   $0x281ccaf5,-0xf7c(%rbp)
    e1c6:	ca 1c 28 
    e1c9:	c7 85 88 f0 ff ff ff 	movl   $0xffffffff,-0xf78(%rbp)
    e1d0:	ff ff ff 
    e1d3:	c7 85 8c f0 ff ff bb 	movl   $0xbc7edfbb,-0xf74(%rbp)
    e1da:	df 7e bc 
    e1dd:	c7 85 90 f0 ff ff f5 	movl   $0x281ccaf5,-0xf70(%rbp)
    e1e4:	ca 1c 28 
    e1e7:	c7 85 94 f0 ff ff 11 	movl   $0x9eabac11,-0xf6c(%rbp)
    e1ee:	ac ab 9e 
    e1f1:	c7 85 98 f0 ff ff fe 	movl   $0xfffffffe,-0xf68(%rbp)
    e1f8:	ff ff ff 
    e1fb:	c7 85 9c f0 ff ff f5 	movl   $0x281ccaf5,-0xf64(%rbp)
    e202:	ca 1c 28 
    e205:	c7 85 a0 f0 ff ff b5 	movl   $0x2fd75eb5,-0xf60(%rbp)
    e20c:	5e d7 2f 
    e20f:	c7 85 a4 f0 ff ff bb 	movl   $0xbc7edfbb,-0xf5c(%rbp)
    e216:	df 7e bc 
    e219:	c7 85 a8 f0 ff ff b5 	movl   $0x2fd75eb5,-0xf58(%rbp)
    e220:	5e d7 2f 
    e223:	c7 85 ac f0 ff ff fe 	movl   $0xfffffffe,-0xf54(%rbp)
    e22a:	ff ff ff 
    e22d:	c7 85 74 e7 ff ff 00 	movl   $0x0,-0x188c(%rbp)
    e234:	00 00 00 
    e237:	c7 85 78 e7 ff ff ce 	movl   $0x23df25ce,-0x1888(%rbp)
    e23e:	25 df 23 
    e241:	c7 85 7c e7 ff ff 01 	movl   $0x1,-0x1884(%rbp)
    e248:	00 00 00 
    e24b:	c7 85 d0 ea ff ff 2b 	movl   $0x36ca5d2b,-0x1530(%rbp)
    e252:	5d ca 36 
    e255:	c7 85 d4 ea ff ff 2b 	movl   $0x36ca5d2b,-0x152c(%rbp)
    e25c:	5d ca 36 
    e25f:	c7 85 d8 ea ff ff 2b 	movl   $0x36ca5d2b,-0x1528(%rbp)
    e266:	5d ca 36 
    e269:	c7 85 dc ea ff ff 2b 	movl   $0x36ca5d2b,-0x1524(%rbp)
    e270:	5d ca 36 
    e273:	c7 85 e0 ea ff ff 2b 	movl   $0x36ca5d2b,-0x1520(%rbp)
    e27a:	5d ca 36 
    e27d:	c7 85 e4 ea ff ff 2b 	movl   $0x36ca5d2b,-0x151c(%rbp)
    e284:	5d ca 36 
    e287:	c7 85 e8 ea ff ff 2b 	movl   $0x36ca5d2b,-0x1518(%rbp)
    e28e:	5d ca 36 
    e291:	c7 85 ec ea ff ff 2b 	movl   $0x36ca5d2b,-0x1514(%rbp)
    e298:	5d ca 36 
    e29b:	48 8d 05 c6 6d 00 00 	lea    0x6dc6(%rip),%rax        # 15068 <g_14>
    e2a2:	48 89 85 40 eb ff ff 	mov    %rax,-0x14c0(%rbp)
    e2a9:	48 c7 85 48 eb ff ff 	movq   $0x0,-0x14b8(%rbp)
    e2b0:	00 00 00 00 
    e2b4:	48 8d 05 ad 6d 00 00 	lea    0x6dad(%rip),%rax        # 15068 <g_14>
    e2bb:	48 89 85 50 eb ff ff 	mov    %rax,-0x14b0(%rbp)
    e2c2:	48 8d 05 9f 6d 00 00 	lea    0x6d9f(%rip),%rax        # 15068 <g_14>
    e2c9:	48 89 85 58 eb ff ff 	mov    %rax,-0x14a8(%rbp)
    e2d0:	48 c7 85 60 eb ff ff 	movq   $0x0,-0x14a0(%rbp)
    e2d7:	00 00 00 00 
    e2db:	48 8d 05 86 6d 00 00 	lea    0x6d86(%rip),%rax        # 15068 <g_14>
    e2e2:	48 89 85 68 eb ff ff 	mov    %rax,-0x1498(%rbp)
    e2e9:	48 8d 05 78 6d 00 00 	lea    0x6d78(%rip),%rax        # 15068 <g_14>
    e2f0:	48 89 85 70 eb ff ff 	mov    %rax,-0x1490(%rbp)
    e2f7:	48 c7 85 78 eb ff ff 	movq   $0x0,-0x1488(%rbp)
    e2fe:	00 00 00 00 
    e302:	48 8d 05 5f 6d 00 00 	lea    0x6d5f(%rip),%rax        # 15068 <g_14>
    e309:	48 89 85 80 eb ff ff 	mov    %rax,-0x1480(%rbp)
    e310:	48 c7 85 b0 e8 ff ff 	movq   $0x0,-0x1750(%rbp)
    e317:	00 00 00 00 
    e31b:	48 8d 05 a6 93 00 00 	lea    0x93a6(%rip),%rax        # 176c8 <g_20>
    e322:	48 89 85 50 e8 ff ff 	mov    %rax,-0x17b0(%rbp)
    e329:	48 8d 85 50 e8 ff ff 	lea    -0x17b0(%rbp),%rax
    e330:	48 89 85 58 e8 ff ff 	mov    %rax,-0x17a8(%rbp)
    e337:	48 8d 85 58 e8 ff ff 	lea    -0x17a8(%rbp),%rax
    e33e:	48 89 85 b8 e8 ff ff 	mov    %rax,-0x1748(%rbp)
    e345:	48 8d 05 b4 93 00 00 	lea    0x93b4(%rip),%rax        # 17700 <g_52>
    e34c:	48 89 85 c0 e8 ff ff 	mov    %rax,-0x1740(%rbp)
    e353:	c6 45 ce 29          	movb   $0x29,-0x32(%rbp)
    e357:	c7 85 44 e7 ff ff 00 	movl   $0x0,-0x18bc(%rbp)
    e35e:	00 00 00 
    e361:	eb 21                	jmp    e384 <func_99+0x139a>
    e363:	8b 85 44 e7 ff ff    	mov    -0x18bc(%rbp),%eax
    e369:	48 98                	cltq   
    e36b:	48 bb d2 e7 21 8e 40 	movabs $0x703cec408e21e7d2,%rbx
    e372:	ec 3c 70 
    e375:	48 89 9c c5 30 ec ff 	mov    %rbx,-0x13d0(%rbp,%rax,8)
    e37c:	ff 
    e37d:	83 85 44 e7 ff ff 01 	addl   $0x1,-0x18bc(%rbp)
    e384:	83 bd 44 e7 ff ff 08 	cmpl   $0x8,-0x18bc(%rbp)
    e38b:	7e d6                	jle    e363 <func_99+0x1379>
    e38d:	48 8b 05 2c 94 00 00 	mov    0x942c(%rip),%rax        # 177c0 <g_855>
    e394:	48 8b 10             	mov    (%rax),%rdx
    e397:	48 8b 85 08 e8 ff ff 	mov    -0x17f8(%rbp),%rax
    e39e:	48 8b 12             	mov    (%rdx),%rdx
    e3a1:	48 89 10             	mov    %rdx,(%rax)
    e3a4:	66 c7 05 53 6d 00 00 	movw   $0x8,0x6d53(%rip)        # 15100 <g_111>
    e3ab:	08 00 
    e3ad:	90                   	nop
    e3ae:	0f b7 05 4b 6d 00 00 	movzwl 0x6d4b(%rip),%eax        # 15100 <g_111>
    e3b5:	66 85 c0             	test   %ax,%ax
    e3b8:	0f 88 cf 10 00 00    	js     f48d <func_99+0x24a3>
    e3be:	c7 85 00 ea ff ff 00 	movl   $0xfd194200,-0x1600(%rbp)
    e3c5:	42 19 fd 
    e3c8:	c7 85 04 ea ff ff 01 	movl   $0x1,-0x15fc(%rbp)
    e3cf:	00 00 00 
    e3d2:	c7 85 08 ea ff ff 00 	movl   $0xfd194200,-0x15f8(%rbp)
    e3d9:	42 19 fd 
    e3dc:	c7 85 0c ea ff ff 01 	movl   $0x1,-0x15f4(%rbp)
    e3e3:	00 00 00 
    e3e6:	c7 85 10 ea ff ff 00 	movl   $0xfd194200,-0x15f0(%rbp)
    e3ed:	42 19 fd 
    e3f0:	c7 85 14 ea ff ff 01 	movl   $0x1,-0x15ec(%rbp)
    e3f7:	00 00 00 
    e3fa:	c7 85 18 ea ff ff 00 	movl   $0xfd194200,-0x15e8(%rbp)
    e401:	42 19 fd 
    e404:	c7 85 1c ea ff ff 01 	movl   $0x1,-0x15e4(%rbp)
    e40b:	00 00 00 
    e40e:	c7 85 20 ea ff ff 00 	movl   $0xfd194200,-0x15e0(%rbp)
    e415:	42 19 fd 
    e418:	c7 85 24 ea ff ff 01 	movl   $0x1,-0x15dc(%rbp)
    e41f:	00 00 00 
    e422:	c7 85 98 e7 ff ff e7 	movl   $0x12bc41e7,-0x1868(%rbp)
    e429:	41 bc 12 
    e42c:	48 8d 05 4d 6c 00 00 	lea    0x6c4d(%rip),%rax        # 15080 <g_42>
    e433:	48 89 85 08 e9 ff ff 	mov    %rax,-0x16f8(%rbp)
    e43a:	48 8d 05 bb 6c 00 00 	lea    0x6cbb(%rip),%rax        # 150fc <g_109>
    e441:	48 89 85 10 e9 ff ff 	mov    %rax,-0x16f0(%rbp)
    e448:	48 c7 85 30 ea ff ff 	movq   $0x0,-0x15d0(%rbp)
    e44f:	00 00 00 00 
    e453:	48 c7 85 38 ea ff ff 	movq   $0x0,-0x15c8(%rbp)
    e45a:	00 00 00 00 
    e45e:	48 c7 85 40 ea ff ff 	movq   $0x0,-0x15c0(%rbp)
    e465:	00 00 00 00 
    e469:	48 c7 85 48 ea ff ff 	movq   $0x0,-0x15b8(%rbp)
    e470:	00 00 00 00 
    e474:	48 c7 85 50 ea ff ff 	movq   $0x0,-0x15b0(%rbp)
    e47b:	00 00 00 00 
    e47f:	c7 85 9c e7 ff ff 4a 	movl   $0x19d2504a,-0x1864(%rbp)
    e486:	50 d2 19 
    e489:	c7 85 a0 e7 ff ff 00 	movl   $0x0,-0x1860(%rbp)
    e490:	00 00 00 
    e493:	c7 85 a4 e7 ff ff ba 	movl   $0x28e87ba,-0x185c(%rbp)
    e49a:	87 8e 02 
    e49d:	c7 85 a8 e7 ff ff ff 	movl   $0xffffffff,-0x1858(%rbp)
    e4a4:	ff ff ff 
    e4a7:	48 8d 05 c2 2b 00 00 	lea    0x2bc2(%rip),%rax        # 11070 <g_1235+0x10>
    e4ae:	48 89 85 40 e8 ff ff 	mov    %rax,-0x17c0(%rbp)
    e4b5:	48 c7 85 30 ec ff ff 	movq   $0x0,-0x13d0(%rbp)
    e4bc:	00 00 00 00 
    e4c0:	48 c7 85 38 ec ff ff 	movq   $0x0,-0x13c8(%rbp)
    e4c7:	00 00 00 00 
    e4cb:	48 c7 85 40 ec ff ff 	movq   $0x0,-0x13c0(%rbp)
    e4d2:	00 00 00 00 
    e4d6:	48 8d 85 40 e8 ff ff 	lea    -0x17c0(%rbp),%rax
    e4dd:	48 89 85 48 ec ff ff 	mov    %rax,-0x13b8(%rbp)
    e4e4:	48 8d 85 40 e8 ff ff 	lea    -0x17c0(%rbp),%rax
    e4eb:	48 89 85 50 ec ff ff 	mov    %rax,-0x13b0(%rbp)
    e4f2:	48 c7 85 58 ec ff ff 	movq   $0x0,-0x13a8(%rbp)
    e4f9:	00 00 00 00 
    e4fd:	48 8d 85 40 e8 ff ff 	lea    -0x17c0(%rbp),%rax
    e504:	48 89 85 60 ec ff ff 	mov    %rax,-0x13a0(%rbp)
    e50b:	48 8d 85 40 e8 ff ff 	lea    -0x17c0(%rbp),%rax
    e512:	48 89 85 68 ec ff ff 	mov    %rax,-0x1398(%rbp)
    e519:	48 c7 85 70 ec ff ff 	movq   $0x0,-0x1390(%rbp)
    e520:	00 00 00 00 
    e524:	48 8d 85 40 e8 ff ff 	lea    -0x17c0(%rbp),%rax
    e52b:	48 89 85 78 ec ff ff 	mov    %rax,-0x1388(%rbp)
    e532:	48 8d 85 40 e8 ff ff 	lea    -0x17c0(%rbp),%rax
    e539:	48 89 85 80 ec ff ff 	mov    %rax,-0x1380(%rbp)
    e540:	48 c7 85 88 ec ff ff 	movq   $0x0,-0x1378(%rbp)
    e547:	00 00 00 00 
    e54b:	48 8d 85 40 e8 ff ff 	lea    -0x17c0(%rbp),%rax
    e552:	48 89 85 90 ec ff ff 	mov    %rax,-0x1370(%rbp)
    e559:	48 8d 85 40 e8 ff ff 	lea    -0x17c0(%rbp),%rax
    e560:	48 89 85 98 ec ff ff 	mov    %rax,-0x1368(%rbp)
    e567:	48 c7 85 a0 ec ff ff 	movq   $0x0,-0x1360(%rbp)
    e56e:	00 00 00 00 
    e572:	48 c7 85 a8 ec ff ff 	movq   $0x0,-0x1358(%rbp)
    e579:	00 00 00 00 
    e57d:	48 c7 85 b0 ec ff ff 	movq   $0x0,-0x1350(%rbp)
    e584:	00 00 00 00 
    e588:	48 c7 85 b8 ec ff ff 	movq   $0x0,-0x1348(%rbp)
    e58f:	00 00 00 00 
    e593:	48 c7 85 c0 ec ff ff 	movq   $0x0,-0x1340(%rbp)
    e59a:	00 00 00 00 
    e59e:	48 c7 85 c8 ec ff ff 	movq   $0x0,-0x1338(%rbp)
    e5a5:	00 00 00 00 
    e5a9:	48 c7 85 d0 ec ff ff 	movq   $0x0,-0x1330(%rbp)
    e5b0:	00 00 00 00 
    e5b4:	48 8d 85 40 e8 ff ff 	lea    -0x17c0(%rbp),%rax
    e5bb:	48 89 85 d8 ec ff ff 	mov    %rax,-0x1328(%rbp)
    e5c2:	48 8d 85 40 e8 ff ff 	lea    -0x17c0(%rbp),%rax
    e5c9:	48 89 85 e0 ec ff ff 	mov    %rax,-0x1320(%rbp)
    e5d0:	48 c7 85 e8 ec ff ff 	movq   $0x0,-0x1318(%rbp)
    e5d7:	00 00 00 00 
    e5db:	48 8d 85 40 e8 ff ff 	lea    -0x17c0(%rbp),%rax
    e5e2:	48 89 85 f0 ec ff ff 	mov    %rax,-0x1310(%rbp)
    e5e9:	48 8d 85 40 e8 ff ff 	lea    -0x17c0(%rbp),%rax
    e5f0:	48 89 85 f8 ec ff ff 	mov    %rax,-0x1308(%rbp)
    e5f7:	48 c7 85 00 ed ff ff 	movq   $0x0,-0x1300(%rbp)
    e5fe:	00 00 00 00 
    e602:	48 8d 85 40 e8 ff ff 	lea    -0x17c0(%rbp),%rax
    e609:	48 89 85 08 ed ff ff 	mov    %rax,-0x12f8(%rbp)
    e610:	48 8d 85 40 e8 ff ff 	lea    -0x17c0(%rbp),%rax
    e617:	48 89 85 10 ed ff ff 	mov    %rax,-0x12f0(%rbp)
    e61e:	48 c7 85 18 ed ff ff 	movq   $0x0,-0x12e8(%rbp)
    e625:	00 00 00 00 
    e629:	48 8d 85 40 e8 ff ff 	lea    -0x17c0(%rbp),%rax
    e630:	48 89 85 20 ed ff ff 	mov    %rax,-0x12e0(%rbp)
    e637:	48 8d 85 40 e8 ff ff 	lea    -0x17c0(%rbp),%rax
    e63e:	48 89 85 28 ed ff ff 	mov    %rax,-0x12d8(%rbp)
    e645:	48 c7 85 30 ed ff ff 	movq   $0x0,-0x12d0(%rbp)
    e64c:	00 00 00 00 
    e650:	48 c7 85 38 ed ff ff 	movq   $0x0,-0x12c8(%rbp)
    e657:	00 00 00 00 
    e65b:	48 c7 85 40 ed ff ff 	movq   $0x0,-0x12c0(%rbp)
    e662:	00 00 00 00 
    e666:	48 c7 85 48 ed ff ff 	movq   $0x0,-0x12b8(%rbp)
    e66d:	00 00 00 00 
    e671:	48 8d 85 b0 e9 ff ff 	lea    -0x1650(%rbp),%rax
    e678:	48 83 c0 18          	add    $0x18,%rax
    e67c:	48 89 85 48 e8 ff ff 	mov    %rax,-0x17b8(%rbp)
    e683:	48 8d 85 48 e8 ff ff 	lea    -0x17b8(%rbp),%rax
    e68a:	48 89 85 18 e9 ff ff 	mov    %rax,-0x16e8(%rbp)
    e691:	c7 85 40 e7 ff ff 09 	movl   $0x9,-0x18c0(%rbp)
    e698:	00 00 00 
    e69b:	48 c7 85 20 e9 ff ff 	movq   $0x0,-0x16e0(%rbp)
    e6a2:	00 00 00 00 
    e6a6:	c7 85 d0 ea ff ff ae 	movl   $0x539606ae,-0x1530(%rbp)
    e6ad:	06 96 53 
    e6b0:	c7 85 d4 ea ff ff d0 	movl   $0x11ab13d0,-0x152c(%rbp)
    e6b7:	13 ab 11 
    e6ba:	c7 85 d8 ea ff ff 08 	movl   $0x8,-0x1528(%rbp)
    e6c1:	00 00 00 
    e6c4:	c7 85 dc ea ff ff d0 	movl   $0x11ab13d0,-0x1524(%rbp)
    e6cb:	13 ab 11 
    e6ce:	c7 85 e0 ea ff ff ae 	movl   $0x539606ae,-0x1520(%rbp)
    e6d5:	06 96 53 
    e6d8:	c7 85 e4 ea ff ff fe 	movl   $0xfffffffe,-0x151c(%rbp)
    e6df:	ff ff ff 
    e6e2:	c7 85 e8 ea ff ff 07 	movl   $0x7,-0x1518(%rbp)
    e6e9:	00 00 00 
    e6ec:	c7 85 ec ea ff ff 69 	movl   $0x755fb069,-0x1514(%rbp)
    e6f3:	b0 5f 75 
    e6f6:	c7 85 f0 ea ff ff ff 	movl   $0xffffffff,-0x1510(%rbp)
    e6fd:	ff ff ff 
    e700:	c7 85 f4 ea ff ff fd 	movl   $0xfffffffd,-0x150c(%rbp)
    e707:	ff ff ff 
    e70a:	c7 85 f8 ea ff ff ff 	movl   $0xffffffff,-0x1508(%rbp)
    e711:	ff ff ff 
    e714:	c7 85 fc ea ff ff ae 	movl   $0x539606ae,-0x1504(%rbp)
    e71b:	06 96 53 
    e71e:	c7 85 00 eb ff ff 07 	movl   $0x7,-0x1500(%rbp)
    e725:	00 00 00 
    e728:	c7 85 04 eb ff ff ae 	movl   $0x539606ae,-0x14fc(%rbp)
    e72f:	06 96 53 
    e732:	c7 85 08 eb ff ff f9 	movl   $0xfffffff9,-0x14f8(%rbp)
    e739:	ff ff ff 
    e73c:	c7 85 0c eb ff ff fb 	movl   $0xfffffffb,-0x14f4(%rbp)
    e743:	ff ff ff 
    e746:	c7 85 10 eb ff ff fb 	movl   $0xfffffffb,-0x14f0(%rbp)
    e74d:	ff ff ff 
    e750:	c7 85 14 eb ff ff f9 	movl   $0xfffffff9,-0x14ec(%rbp)
    e757:	ff ff ff 
    e75a:	c7 85 18 eb ff ff d0 	movl   $0x11ab13d0,-0x14e8(%rbp)
    e761:	13 ab 11 
    e764:	c7 85 1c eb ff ff ff 	movl   $0xffffffff,-0x14e4(%rbp)
    e76b:	ff ff ff 
    e76e:	c7 85 20 eb ff ff 69 	movl   $0x755fb069,-0x14e0(%rbp)
    e775:	b0 5f 75 
    e778:	c7 85 24 eb ff ff 69 	movl   $0x755fb069,-0x14dc(%rbp)
    e77f:	b0 5f 75 
    e782:	c7 85 28 eb ff ff ff 	movl   $0xffffffff,-0x14d8(%rbp)
    e789:	ff ff ff 
    e78c:	c7 85 2c eb ff ff d0 	movl   $0x11ab13d0,-0x14d4(%rbp)
    e793:	13 ab 11 
    e796:	c7 85 30 eb ff ff f9 	movl   $0xfffffff9,-0x14d0(%rbp)
    e79d:	ff ff ff 
    e7a0:	c7 85 34 eb ff ff fb 	movl   $0xfffffffb,-0x14cc(%rbp)
    e7a7:	ff ff ff 
    e7aa:	c7 85 38 eb ff ff fb 	movl   $0xfffffffb,-0x14c8(%rbp)
    e7b1:	ff ff ff 
    e7b4:	c7 85 3c eb ff ff fd 	movl   $0xfffffffd,-0x14c4(%rbp)
    e7bb:	ff ff ff 
    e7be:	48 8d 85 18 e8 ff ff 	lea    -0x17e8(%rbp),%rax
    e7c5:	48 89 85 40 f0 ff ff 	mov    %rax,-0xfc0(%rbp)
    e7cc:	48 8d 85 18 e8 ff ff 	lea    -0x17e8(%rbp),%rax
    e7d3:	48 89 85 48 f0 ff ff 	mov    %rax,-0xfb8(%rbp)
    e7da:	48 8d 85 18 e8 ff ff 	lea    -0x17e8(%rbp),%rax
    e7e1:	48 89 85 50 f0 ff ff 	mov    %rax,-0xfb0(%rbp)
    e7e8:	48 8d 85 18 e8 ff ff 	lea    -0x17e8(%rbp),%rax
    e7ef:	48 89 85 58 f0 ff ff 	mov    %rax,-0xfa8(%rbp)
    e7f6:	48 c7 85 60 f0 ff ff 	movq   $0x0,-0xfa0(%rbp)
    e7fd:	00 00 00 00 
    e801:	48 c7 85 68 f0 ff ff 	movq   $0x0,-0xf98(%rbp)
    e808:	00 00 00 00 
    e80c:	48 c7 85 70 f0 ff ff 	movq   $0x0,-0xf90(%rbp)
    e813:	00 00 00 00 
    e817:	48 c7 85 78 f0 ff ff 	movq   $0x0,-0xf88(%rbp)
    e81e:	00 00 00 00 
    e822:	48 c7 85 80 f0 ff ff 	movq   $0x0,-0xf80(%rbp)
    e829:	00 00 00 00 
    e82d:	48 c7 85 88 f0 ff ff 	movq   $0x0,-0xf78(%rbp)
    e834:	00 00 00 00 
    e838:	48 8d 85 18 e8 ff ff 	lea    -0x17e8(%rbp),%rax
    e83f:	48 89 85 90 f0 ff ff 	mov    %rax,-0xf70(%rbp)
    e846:	48 8d 85 18 e8 ff ff 	lea    -0x17e8(%rbp),%rax
    e84d:	48 89 85 98 f0 ff ff 	mov    %rax,-0xf68(%rbp)
    e854:	48 8d 85 18 e8 ff ff 	lea    -0x17e8(%rbp),%rax
    e85b:	48 89 85 a0 f0 ff ff 	mov    %rax,-0xf60(%rbp)
    e862:	48 8d 85 18 e8 ff ff 	lea    -0x17e8(%rbp),%rax
    e869:	48 89 85 a8 f0 ff ff 	mov    %rax,-0xf58(%rbp)
    e870:	48 8d 85 18 e8 ff ff 	lea    -0x17e8(%rbp),%rax
    e877:	48 89 85 b0 f0 ff ff 	mov    %rax,-0xf50(%rbp)
    e87e:	48 8d 85 18 e8 ff ff 	lea    -0x17e8(%rbp),%rax
    e885:	48 89 85 b8 f0 ff ff 	mov    %rax,-0xf48(%rbp)
    e88c:	48 c7 85 c0 f0 ff ff 	movq   $0x0,-0xf40(%rbp)
    e893:	00 00 00 00 
    e897:	48 c7 85 c8 f0 ff ff 	movq   $0x0,-0xf38(%rbp)
    e89e:	00 00 00 00 
    e8a2:	48 c7 85 d0 f0 ff ff 	movq   $0x0,-0xf30(%rbp)
    e8a9:	00 00 00 00 
    e8ad:	48 8d 85 18 e8 ff ff 	lea    -0x17e8(%rbp),%rax
    e8b4:	48 89 85 d8 f0 ff ff 	mov    %rax,-0xf28(%rbp)
    e8bb:	48 8d 85 18 e8 ff ff 	lea    -0x17e8(%rbp),%rax
    e8c2:	48 89 85 e0 f0 ff ff 	mov    %rax,-0xf20(%rbp)
    e8c9:	48 c7 85 e8 f0 ff ff 	movq   $0x0,-0xf18(%rbp)
    e8d0:	00 00 00 00 
    e8d4:	48 c7 85 f0 f0 ff ff 	movq   $0x0,-0xf10(%rbp)
    e8db:	00 00 00 00 
    e8df:	48 c7 85 f8 f0 ff ff 	movq   $0x0,-0xf08(%rbp)
    e8e6:	00 00 00 00 
    e8ea:	48 8d 85 18 e8 ff ff 	lea    -0x17e8(%rbp),%rax
    e8f1:	48 89 85 00 f1 ff ff 	mov    %rax,-0xf00(%rbp)
    e8f8:	48 8d 85 18 e8 ff ff 	lea    -0x17e8(%rbp),%rax
    e8ff:	48 89 85 08 f1 ff ff 	mov    %rax,-0xef8(%rbp)
    e906:	48 8d 85 18 e8 ff ff 	lea    -0x17e8(%rbp),%rax
    e90d:	48 89 85 10 f1 ff ff 	mov    %rax,-0xef0(%rbp)
    e914:	48 8d 85 18 e8 ff ff 	lea    -0x17e8(%rbp),%rax
    e91b:	48 89 85 18 f1 ff ff 	mov    %rax,-0xee8(%rbp)
    e922:	48 8d 85 18 e8 ff ff 	lea    -0x17e8(%rbp),%rax
    e929:	48 89 85 20 f1 ff ff 	mov    %rax,-0xee0(%rbp)
    e930:	48 8d 85 18 e8 ff ff 	lea    -0x17e8(%rbp),%rax
    e937:	48 89 85 28 f1 ff ff 	mov    %rax,-0xed8(%rbp)
    e93e:	48 8d 85 18 e8 ff ff 	lea    -0x17e8(%rbp),%rax
    e945:	48 89 85 30 f1 ff ff 	mov    %rax,-0xed0(%rbp)
    e94c:	48 c7 85 38 f1 ff ff 	movq   $0x0,-0xec8(%rbp)
    e953:	00 00 00 00 
    e957:	48 c7 85 40 f1 ff ff 	movq   $0x0,-0xec0(%rbp)
    e95e:	00 00 00 00 
    e962:	48 8d 85 18 e8 ff ff 	lea    -0x17e8(%rbp),%rax
    e969:	48 89 85 48 f1 ff ff 	mov    %rax,-0xeb8(%rbp)
    e970:	48 8d 85 18 e8 ff ff 	lea    -0x17e8(%rbp),%rax
    e977:	48 89 85 50 f1 ff ff 	mov    %rax,-0xeb0(%rbp)
    e97e:	48 8d 85 18 e8 ff ff 	lea    -0x17e8(%rbp),%rax
    e985:	48 89 85 58 f1 ff ff 	mov    %rax,-0xea8(%rbp)
    e98c:	48 8d 85 18 e8 ff ff 	lea    -0x17e8(%rbp),%rax
    e993:	48 89 85 60 f1 ff ff 	mov    %rax,-0xea0(%rbp)
    e99a:	48 8d 85 18 e8 ff ff 	lea    -0x17e8(%rbp),%rax
    e9a1:	48 89 85 68 f1 ff ff 	mov    %rax,-0xe98(%rbp)
    e9a8:	48 c7 85 70 f1 ff ff 	movq   $0x0,-0xe90(%rbp)
    e9af:	00 00 00 00 
    e9b3:	48 c7 85 78 f1 ff ff 	movq   $0x0,-0xe88(%rbp)
    e9ba:	00 00 00 00 
    e9be:	48 8d 85 18 e8 ff ff 	lea    -0x17e8(%rbp),%rax
    e9c5:	48 89 85 80 f1 ff ff 	mov    %rax,-0xe80(%rbp)
    e9cc:	48 8d 85 18 e8 ff ff 	lea    -0x17e8(%rbp),%rax
    e9d3:	48 89 85 88 f1 ff ff 	mov    %rax,-0xe78(%rbp)
    e9da:	48 8d 85 18 e8 ff ff 	lea    -0x17e8(%rbp),%rax
    e9e1:	48 89 85 90 f1 ff ff 	mov    %rax,-0xe70(%rbp)
    e9e8:	48 8d 85 18 e8 ff ff 	lea    -0x17e8(%rbp),%rax
    e9ef:	48 89 85 98 f1 ff ff 	mov    %rax,-0xe68(%rbp)
    e9f6:	48 c7 85 a0 f1 ff ff 	movq   $0x0,-0xe60(%rbp)
    e9fd:	00 00 00 00 
    ea01:	48 8d 85 18 e8 ff ff 	lea    -0x17e8(%rbp),%rax
    ea08:	48 89 85 a8 f1 ff ff 	mov    %rax,-0xe58(%rbp)
    ea0f:	48 c7 85 b0 f1 ff ff 	movq   $0x0,-0xe50(%rbp)
    ea16:	00 00 00 00 
    ea1a:	48 8d 85 18 e8 ff ff 	lea    -0x17e8(%rbp),%rax
    ea21:	48 89 85 b8 f1 ff ff 	mov    %rax,-0xe48(%rbp)
    ea28:	48 c7 85 c0 f1 ff ff 	movq   $0x0,-0xe40(%rbp)
    ea2f:	00 00 00 00 
    ea33:	48 8d 85 18 e8 ff ff 	lea    -0x17e8(%rbp),%rax
    ea3a:	48 89 85 c8 f1 ff ff 	mov    %rax,-0xe38(%rbp)
    ea41:	48 c7 85 d0 f1 ff ff 	movq   $0x0,-0xe30(%rbp)
    ea48:	00 00 00 00 
    ea4c:	48 8d 85 18 e8 ff ff 	lea    -0x17e8(%rbp),%rax
    ea53:	48 89 85 d8 f1 ff ff 	mov    %rax,-0xe28(%rbp)
    ea5a:	48 c7 85 e0 f1 ff ff 	movq   $0x0,-0xe20(%rbp)
    ea61:	00 00 00 00 
    ea65:	48 8d 85 18 e8 ff ff 	lea    -0x17e8(%rbp),%rax
    ea6c:	48 89 85 e8 f1 ff ff 	mov    %rax,-0xe18(%rbp)
    ea73:	48 8d 85 18 e8 ff ff 	lea    -0x17e8(%rbp),%rax
    ea7a:	48 89 85 f0 f1 ff ff 	mov    %rax,-0xe10(%rbp)
    ea81:	48 c7 85 f8 f1 ff ff 	movq   $0x0,-0xe08(%rbp)
    ea88:	00 00 00 00 
    ea8c:	48 c7 85 00 f2 ff ff 	movq   $0x0,-0xe00(%rbp)
    ea93:	00 00 00 00 
    ea97:	48 c7 85 08 f2 ff ff 	movq   $0x0,-0xdf8(%rbp)
    ea9e:	00 00 00 00 
    eaa2:	48 8d 85 18 e8 ff ff 	lea    -0x17e8(%rbp),%rax
    eaa9:	48 89 85 10 f2 ff ff 	mov    %rax,-0xdf0(%rbp)
    eab0:	48 8d 85 18 e8 ff ff 	lea    -0x17e8(%rbp),%rax
    eab7:	48 89 85 18 f2 ff ff 	mov    %rax,-0xde8(%rbp)
    eabe:	48 8d 85 18 e8 ff ff 	lea    -0x17e8(%rbp),%rax
    eac5:	48 89 85 20 f2 ff ff 	mov    %rax,-0xde0(%rbp)
    eacc:	48 c7 85 28 f2 ff ff 	movq   $0x0,-0xdd8(%rbp)
    ead3:	00 00 00 00 
    ead7:	48 8d 85 18 e8 ff ff 	lea    -0x17e8(%rbp),%rax
    eade:	48 89 85 30 f2 ff ff 	mov    %rax,-0xdd0(%rbp)
    eae5:	48 c7 85 38 f2 ff ff 	movq   $0x0,-0xdc8(%rbp)
    eaec:	00 00 00 00 
    eaf0:	48 c7 85 40 f2 ff ff 	movq   $0x0,-0xdc0(%rbp)
    eaf7:	00 00 00 00 
    eafb:	48 8d 85 18 e8 ff ff 	lea    -0x17e8(%rbp),%rax
    eb02:	48 89 85 48 f2 ff ff 	mov    %rax,-0xdb8(%rbp)
    eb09:	48 8d 85 18 e8 ff ff 	lea    -0x17e8(%rbp),%rax
    eb10:	48 89 85 50 f2 ff ff 	mov    %rax,-0xdb0(%rbp)
    eb17:	48 c7 85 58 f2 ff ff 	movq   $0x0,-0xda8(%rbp)
    eb1e:	00 00 00 00 
    eb22:	48 c7 85 60 f2 ff ff 	movq   $0x0,-0xda0(%rbp)
    eb29:	00 00 00 00 
    eb2d:	48 8d 85 18 e8 ff ff 	lea    -0x17e8(%rbp),%rax
    eb34:	48 89 85 68 f2 ff ff 	mov    %rax,-0xd98(%rbp)
    eb3b:	48 8d 85 d0 e9 ff ff 	lea    -0x1630(%rbp),%rax
    eb42:	48 83 c0 10          	add    $0x10,%rax
    eb46:	48 89 85 28 e9 ff ff 	mov    %rax,-0x16d8(%rbp)
    eb4d:	c7 85 48 e7 ff ff 00 	movl   $0x0,-0x18b8(%rbp)
    eb54:	00 00 00 
    eb57:	eb 1a                	jmp    eb73 <func_99+0x1b89>
    eb59:	8b 85 48 e7 ff ff    	mov    -0x18b8(%rbp),%eax
    eb5f:	48 98                	cltq   
    eb61:	c7 84 85 ac e9 ff ff 	movl   $0x1,-0x1654(%rbp,%rax,4)
    eb68:	01 00 00 00 
    eb6c:	83 85 48 e7 ff ff 01 	addl   $0x1,-0x18b8(%rbp)
    eb73:	83 bd 48 e7 ff ff 00 	cmpl   $0x0,-0x18b8(%rbp)
    eb7a:	7e dd                	jle    eb59 <func_99+0x1b6f>
    eb7c:	c7 85 48 e7 ff ff 00 	movl   $0x0,-0x18b8(%rbp)
    eb83:	00 00 00 
    eb86:	eb 22                	jmp    ebaa <func_99+0x1bc0>
    eb88:	8b 85 48 e7 ff ff    	mov    -0x18b8(%rbp),%eax
    eb8e:	48 98                	cltq   
    eb90:	48 8d 95 30 ec ff ff 	lea    -0x13d0(%rbp),%rdx
    eb97:	48 83 c2 58          	add    $0x58,%rdx
    eb9b:	48 89 94 c5 b0 e9 ff 	mov    %rdx,-0x1650(%rbp,%rax,8)
    eba2:	ff 
    eba3:	83 85 48 e7 ff ff 01 	addl   $0x1,-0x18b8(%rbp)
    ebaa:	83 bd 48 e7 ff ff 03 	cmpl   $0x3,-0x18b8(%rbp)
    ebb1:	7e d5                	jle    eb88 <func_99+0x1b9e>
    ebb3:	c6 85 38 e7 ff ff 03 	movb   $0x3,-0x18c8(%rbp)
    ebba:	e9 92 02 00 00       	jmpq   ee51 <func_99+0x1e67>
    ebbf:	c6 85 39 e7 ff ff 3b 	movb   $0x3b,-0x18c7(%rbp)
    ebc6:	c7 85 bc e7 ff ff 7a 	movl   $0xfbced67a,-0x1844(%rbp)
    ebcd:	d6 ce fb 
    ebd0:	c7 85 c0 e7 ff ff fd 	movl   $0xfffffffd,-0x1840(%rbp)
    ebd7:	ff ff ff 
    ebda:	c7 85 c4 e7 ff ff 01 	movl   $0x1,-0x183c(%rbp)
    ebe1:	00 00 00 
    ebe4:	c7 85 c8 e7 ff ff 01 	movl   $0x1,-0x1838(%rbp)
    ebeb:	00 00 00 
    ebee:	c7 85 cc e7 ff ff 30 	movl   $0x4d706a30,-0x1834(%rbp)
    ebf5:	6a 70 4d 
    ebf8:	c7 85 d0 e7 ff ff d5 	movl   $0x64c58d5,-0x1830(%rbp)
    ebff:	58 4c 06 
    ec02:	c7 85 d4 e7 ff ff c8 	movl   $0xcd4b6bc8,-0x182c(%rbp)
    ec09:	6b 4b cd 
    ec0c:	c7 85 60 ea ff ff 54 	movl   $0xe1d09d54,-0x15a0(%rbp)
    ec13:	9d d0 e1 
    ec16:	c7 85 64 ea ff ff 05 	movl   $0x38218505,-0x159c(%rbp)
    ec1d:	85 21 38 
    ec20:	c7 85 68 ea ff ff 54 	movl   $0xe1d09d54,-0x1598(%rbp)
    ec27:	9d d0 e1 
    ec2a:	c7 85 6c ea ff ff 54 	movl   $0xe1d09d54,-0x1594(%rbp)
    ec31:	9d d0 e1 
    ec34:	c7 85 70 ea ff ff 05 	movl   $0x38218505,-0x1590(%rbp)
    ec3b:	85 21 38 
    ec3e:	c7 85 74 ea ff ff 54 	movl   $0xe1d09d54,-0x158c(%rbp)
    ec45:	9d d0 e1 
    ec48:	c7 85 78 ea ff ff 54 	movl   $0xe1d09d54,-0x1588(%rbp)
    ec4f:	9d d0 e1 
    ec52:	48 8d 05 fb 66 00 00 	lea    0x66fb(%rip),%rax        # 15354 <g_1081+0x14>
    ec59:	48 89 85 78 e9 ff ff 	mov    %rax,-0x1688(%rbp)
    ec60:	c7 85 d8 e7 ff ff 01 	movl   $0x1,-0x1828(%rbp)
    ec67:	00 00 00 
    ec6a:	48 8d 85 00 ea ff ff 	lea    -0x1600(%rbp),%rax
    ec71:	48 83 c0 08          	add    $0x8,%rax
    ec75:	48 89 85 80 e9 ff ff 	mov    %rax,-0x1680(%rbp)
    ec7c:	48 8d 85 08 e8 ff ff 	lea    -0x17f8(%rbp),%rax
    ec83:	48 89 85 50 e8 ff ff 	mov    %rax,-0x17b0(%rbp)
    ec8a:	48 8d 85 50 e8 ff ff 	lea    -0x17b0(%rbp),%rax
    ec91:	48 89 85 58 e8 ff ff 	mov    %rax,-0x17a8(%rbp)
    ec98:	48 8d 85 58 e8 ff ff 	lea    -0x17a8(%rbp),%rax
    ec9f:	48 89 85 40 eb ff ff 	mov    %rax,-0x14c0(%rbp)
    eca6:	48 8d 85 58 e8 ff ff 	lea    -0x17a8(%rbp),%rax
    ecad:	48 89 85 48 eb ff ff 	mov    %rax,-0x14b8(%rbp)
    ecb4:	48 8d 85 58 e8 ff ff 	lea    -0x17a8(%rbp),%rax
    ecbb:	48 89 85 50 eb ff ff 	mov    %rax,-0x14b0(%rbp)
    ecc2:	48 8d 85 58 e8 ff ff 	lea    -0x17a8(%rbp),%rax
    ecc9:	48 89 85 58 eb ff ff 	mov    %rax,-0x14a8(%rbp)
    ecd0:	48 8d 85 58 e8 ff ff 	lea    -0x17a8(%rbp),%rax
    ecd7:	48 89 85 60 eb ff ff 	mov    %rax,-0x14a0(%rbp)
    ecde:	48 c7 85 68 eb ff ff 	movq   $0x0,-0x1498(%rbp)
    ece5:	00 00 00 00 
    ece9:	48 8d 85 58 e8 ff ff 	lea    -0x17a8(%rbp),%rax
    ecf0:	48 89 85 70 eb ff ff 	mov    %rax,-0x1490(%rbp)
    ecf7:	48 8d 85 58 e8 ff ff 	lea    -0x17a8(%rbp),%rax
    ecfe:	48 89 85 78 eb ff ff 	mov    %rax,-0x1488(%rbp)
    ed05:	48 8d 85 58 e8 ff ff 	lea    -0x17a8(%rbp),%rax
    ed0c:	48 89 85 80 eb ff ff 	mov    %rax,-0x1480(%rbp)
    ed13:	48 8d 85 58 e8 ff ff 	lea    -0x17a8(%rbp),%rax
    ed1a:	48 89 85 88 eb ff ff 	mov    %rax,-0x1478(%rbp)
    ed21:	48 8d 85 58 e8 ff ff 	lea    -0x17a8(%rbp),%rax
    ed28:	48 89 85 90 eb ff ff 	mov    %rax,-0x1470(%rbp)
    ed2f:	48 8d 85 58 e8 ff ff 	lea    -0x17a8(%rbp),%rax
    ed36:	48 89 85 98 eb ff ff 	mov    %rax,-0x1468(%rbp)
    ed3d:	48 8d 85 58 e8 ff ff 	lea    -0x17a8(%rbp),%rax
    ed44:	48 89 85 a0 eb ff ff 	mov    %rax,-0x1460(%rbp)
    ed4b:	48 8d 85 58 e8 ff ff 	lea    -0x17a8(%rbp),%rax
    ed52:	48 89 85 a8 eb ff ff 	mov    %rax,-0x1458(%rbp)
    ed59:	48 8d 85 58 e8 ff ff 	lea    -0x17a8(%rbp),%rax
    ed60:	48 89 85 b0 eb ff ff 	mov    %rax,-0x1450(%rbp)
    ed67:	48 8d 85 58 e8 ff ff 	lea    -0x17a8(%rbp),%rax
    ed6e:	48 89 85 b8 eb ff ff 	mov    %rax,-0x1448(%rbp)
    ed75:	48 8d 85 58 e8 ff ff 	lea    -0x17a8(%rbp),%rax
    ed7c:	48 89 85 c0 eb ff ff 	mov    %rax,-0x1440(%rbp)
    ed83:	48 8d 85 58 e8 ff ff 	lea    -0x17a8(%rbp),%rax
    ed8a:	48 89 85 c8 eb ff ff 	mov    %rax,-0x1438(%rbp)
    ed91:	48 8d 85 58 e8 ff ff 	lea    -0x17a8(%rbp),%rax
    ed98:	48 89 85 d0 eb ff ff 	mov    %rax,-0x1430(%rbp)
    ed9f:	48 8d 85 58 e8 ff ff 	lea    -0x17a8(%rbp),%rax
    eda6:	48 89 85 d8 eb ff ff 	mov    %rax,-0x1428(%rbp)
    edad:	48 8d 85 58 e8 ff ff 	lea    -0x17a8(%rbp),%rax
    edb4:	48 89 85 e0 eb ff ff 	mov    %rax,-0x1420(%rbp)
    edbb:	48 8d 85 58 e8 ff ff 	lea    -0x17a8(%rbp),%rax
    edc2:	48 89 85 e8 eb ff ff 	mov    %rax,-0x1418(%rbp)
    edc9:	48 8d 85 58 e8 ff ff 	lea    -0x17a8(%rbp),%rax
    edd0:	48 89 85 f0 eb ff ff 	mov    %rax,-0x1410(%rbp)
    edd7:	48 8d 85 58 e8 ff ff 	lea    -0x17a8(%rbp),%rax
    edde:	48 89 85 f8 eb ff ff 	mov    %rax,-0x1408(%rbp)
    ede5:	48 8d 85 58 e8 ff ff 	lea    -0x17a8(%rbp),%rax
    edec:	48 89 85 00 ec ff ff 	mov    %rax,-0x1400(%rbp)
    edf3:	48 8d 85 58 e8 ff ff 	lea    -0x17a8(%rbp),%rax
    edfa:	48 89 85 08 ec ff ff 	mov    %rax,-0x13f8(%rbp)
    ee01:	48 8d 85 58 e8 ff ff 	lea    -0x17a8(%rbp),%rax
    ee08:	48 89 85 10 ec ff ff 	mov    %rax,-0x13f0(%rbp)
    ee0f:	48 8d 85 58 e8 ff ff 	lea    -0x17a8(%rbp),%rax
    ee16:	48 89 85 18 ec ff ff 	mov    %rax,-0x13e8(%rbp)
    ee1d:	48 8d 85 58 e8 ff ff 	lea    -0x17a8(%rbp),%rax
    ee24:	48 89 85 20 ec ff ff 	mov    %rax,-0x13e0(%rbp)
    ee2b:	48 8d 85 58 e8 ff ff 	lea    -0x17a8(%rbp),%rax
    ee32:	48 89 85 28 ec ff ff 	mov    %rax,-0x13d8(%rbp)
    ee39:	c6 85 3a e7 ff ff 01 	movb   $0x1,-0x18c6(%rbp)
    ee40:	c7 85 dc e7 ff ff fd 	movl   $0xfffffffd,-0x1824(%rbp)
    ee47:	ff ff ff 
    ee4a:	80 85 38 e7 ff ff 01 	addb   $0x1,-0x18c8(%rbp)
    ee51:	80 bd 38 e7 ff ff 08 	cmpb   $0x8,-0x18c8(%rbp)
    ee58:	0f 86 61 fd ff ff    	jbe    ebbf <func_99+0x1bd5>
    ee5e:	48 8b 05 b3 89 00 00 	mov    0x89b3(%rip),%rax        # 17818 <g_1206>
    ee65:	8b 00                	mov    (%rax),%eax
    ee67:	85 c0                	test   %eax,%eax
    ee69:	0f 84 7f 01 00 00    	je     efee <func_99+0x2004>
    ee6f:	48 8d 85 30 e8 ff ff 	lea    -0x17d0(%rbp),%rax
    ee76:	48 89 85 50 e9 ff ff 	mov    %rax,-0x16b0(%rbp)
    ee7d:	48 8d 05 e4 61 00 00 	lea    0x61e4(%rip),%rax        # 15068 <g_14>
    ee84:	48 89 85 58 e9 ff ff 	mov    %rax,-0x16a8(%rbp)
    ee8b:	c7 85 b4 e7 ff ff ff 	movl   $0xffffffff,-0x184c(%rbp)
    ee92:	ff ff ff 
    ee95:	48 c7 85 60 e9 ff ff 	movq   $0x0,-0x16a0(%rbp)
    ee9c:	00 00 00 00 
    eea0:	48 8d 05 51 62 00 00 	lea    0x6251(%rip),%rax        # 150f8 <g_108>
    eea7:	48 89 85 68 e9 ff ff 	mov    %rax,-0x1698(%rbp)
    eeae:	48 8d 85 f8 e7 ff ff 	lea    -0x1808(%rbp),%rax
    eeb5:	48 89 85 58 e8 ff ff 	mov    %rax,-0x17a8(%rbp)
    eebc:	48 8d 85 58 e8 ff ff 	lea    -0x17a8(%rbp),%rax
    eec3:	48 89 85 70 e9 ff ff 	mov    %rax,-0x1690(%rbp)
    eeca:	c7 85 b8 e7 ff ff 04 	movl   $0x4,-0x1848(%rbp)
    eed1:	00 00 00 
    eed4:	80 bd 38 e7 ff ff 00 	cmpb   $0x0,-0x18c8(%rbp)
    eedb:	74 05                	je     eee2 <func_99+0x1ef8>
    eedd:	e9 ab f4 ff ff       	jmpq   e38d <func_99+0x13a3>
    eee2:	48 8b 05 37 8b 00 00 	mov    0x8b37(%rip),%rax        # 17a20 <g_1298>
    eee9:	48 39 85 a0 e8 ff ff 	cmp    %rax,-0x1760(%rbp)
    eef0:	0f 94 c0             	sete   %al
    eef3:	0f b6 c0             	movzbl %al,%eax
    eef6:	48 be 81 9a 1f e6 9a 	movabs $0xa1e2fc9ae61f9a81,%rsi
    eefd:	fc e2 a1 
    ef00:	48 89 c7             	mov    %rax,%rdi
    ef03:	e8 78 91 ff ff       	callq  8080 <safe_mod_func_uint64_t_u_u>
    ef08:	48 8b 95 30 e8 ff ff 	mov    -0x17d0(%rbp),%rdx
    ef0f:	48 8b 85 50 e9 ff ff 	mov    -0x16b0(%rbp),%rax
    ef16:	48 89 10             	mov    %rdx,(%rax)
    ef19:	8b 9d 24 e7 ff ff    	mov    -0x18dc(%rbp),%ebx
    ef1f:	8b 85 24 e7 ff ff    	mov    -0x18dc(%rbp),%eax
    ef25:	0f bf d0             	movswl %ax,%edx
    ef28:	48 8b 85 68 e9 ff ff 	mov    -0x1698(%rbp),%rax
    ef2f:	66 c7 00 33 a1       	movw   $0xa133,(%rax)
    ef34:	48 8b 85 70 e9 ff ff 	mov    -0x1690(%rbp),%rax
    ef3b:	48 8d 8d f8 e7 ff ff 	lea    -0x1808(%rbp),%rcx
    ef42:	48 89 08             	mov    %rcx,(%rax)
    ef45:	48 8b 85 70 e9 ff ff 	mov    -0x1690(%rbp),%rax
    ef4c:	48 8b 00             	mov    (%rax),%rax
    ef4f:	48 8d 0d aa 87 00 00 	lea    0x87aa(%rip),%rcx        # 17700 <g_52>
    ef56:	48 39 c8             	cmp    %rcx,%rax
    ef59:	0f 94 c0             	sete   %al
    ef5c:	0f b6 c0             	movzbl %al,%eax
    ef5f:	09 85 9c e7 ff ff    	or     %eax,-0x1864(%rbp)
    ef65:	0f b6 05 ad 61 00 00 	movzbl 0x61ad(%rip),%eax        # 15119 <g_154+0x1>
    ef6c:	84 c0                	test   %al,%al
    ef6e:	0f 95 c0             	setne  %al
    ef71:	0f b6 c0             	movzbl %al,%eax
    ef74:	89 d6                	mov    %edx,%esi
    ef76:	89 c7                	mov    %eax,%edi
    ef78:	e8 99 84 ff ff       	callq  7416 <safe_mod_func_int16_t_s_s>
    ef7d:	48 0f bf d0          	movswq %ax,%rdx
    ef81:	48 8b 85 58 e9 ff ff 	mov    -0x16a8(%rbp),%rax
    ef88:	48 c7 00 00 00 00 00 	movq   $0x0,(%rax)
    ef8f:	48 8b 85 58 e9 ff ff 	mov    -0x16a8(%rbp),%rax
    ef96:	48 8b 00             	mov    (%rax),%rax
    ef99:	48 89 d6             	mov    %rdx,%rsi
    ef9c:	48 89 c7             	mov    %rax,%rdi
    ef9f:	e8 10 8a ff ff       	callq  79b4 <safe_mod_func_int64_t_s_s>
    efa4:	0f b6 c0             	movzbl %al,%eax
    efa7:	8b 95 b4 e7 ff ff    	mov    -0x184c(%rbp),%edx
    efad:	89 d6                	mov    %edx,%esi
    efaf:	89 c7                	mov    %eax,%edi
    efb1:	e8 4f 8c ff ff       	callq  7c05 <safe_lshift_func_uint8_t_u_s>
    efb6:	0f b6 c0             	movzbl %al,%eax
    efb9:	89 de                	mov    %ebx,%esi
    efbb:	89 c7                	mov    %eax,%edi
    efbd:	e8 3d 87 ff ff       	callq  76ff <safe_div_func_int32_t_s_s>
    efc2:	39 85 24 e7 ff ff    	cmp    %eax,-0x18dc(%rbp)
    efc8:	0f 94 c2             	sete   %dl
    efcb:	48 8b 85 e0 e7 ff ff 	mov    -0x1820(%rbp),%rax
    efd2:	0f b6 d2             	movzbl %dl,%edx
    efd5:	89 10                	mov    %edx,(%rax)
    efd7:	8b 00                	mov    (%rax),%eax
    efd9:	31 85 b8 e7 ff ff    	xor    %eax,-0x1848(%rbp)
    efdf:	48 8b 05 e2 86 00 00 	mov    0x86e2(%rip),%rax        # 176c8 <g_20>
    efe6:	48 8b 00             	mov    (%rax),%rax
    efe9:	e9 af 04 00 00       	jmpq   f49d <func_99+0x24b3>
    efee:	48 8d 05 37 61 00 00 	lea    0x6137(%rip),%rax        # 1512c <g_337>
    eff5:	48 89 85 60 ea ff ff 	mov    %rax,-0x15a0(%rbp)
    effc:	48 8d 05 29 61 00 00 	lea    0x6129(%rip),%rax        # 1512c <g_337>
    f003:	48 89 85 68 ea ff ff 	mov    %rax,-0x1598(%rbp)
    f00a:	48 8d 05 1b 61 00 00 	lea    0x611b(%rip),%rax        # 1512c <g_337>
    f011:	48 89 85 70 ea ff ff 	mov    %rax,-0x1590(%rbp)
    f018:	48 8d 05 0d 61 00 00 	lea    0x610d(%rip),%rax        # 1512c <g_337>
    f01f:	48 89 85 78 ea ff ff 	mov    %rax,-0x1588(%rbp)
    f026:	48 8d 05 ff 60 00 00 	lea    0x60ff(%rip),%rax        # 1512c <g_337>
    f02d:	48 89 85 80 ea ff ff 	mov    %rax,-0x1580(%rbp)
    f034:	48 8d 05 f1 60 00 00 	lea    0x60f1(%rip),%rax        # 1512c <g_337>
    f03b:	48 89 85 88 ea ff ff 	mov    %rax,-0x1578(%rbp)
    f042:	48 8d 05 ba 60 00 00 	lea    0x60ba(%rip),%rax        # 15103 <g_113>
    f049:	48 89 85 58 e8 ff ff 	mov    %rax,-0x17a8(%rbp)
    f050:	48 8d 85 58 e8 ff ff 	lea    -0x17a8(%rbp),%rax
    f057:	48 89 85 30 e9 ff ff 	mov    %rax,-0x16d0(%rbp)
    f05e:	48 8d 85 e8 e7 ff ff 	lea    -0x1818(%rbp),%rax
    f065:	48 89 85 38 e9 ff ff 	mov    %rax,-0x16c8(%rbp)
    f06c:	48 8d 85 38 e8 ff ff 	lea    -0x17c8(%rbp),%rax
    f073:	48 89 85 40 e9 ff ff 	mov    %rax,-0x16c0(%rbp)
    f07a:	c7 85 ac e7 ff ff c5 	movl   $0x74a3a2c5,-0x1854(%rbp)
    f081:	a2 a3 74 
    f084:	c7 85 b0 e7 ff ff 06 	movl   $0x1c923306,-0x1850(%rbp)
    f08b:	33 92 1c 
    f08e:	48 8d 85 40 e7 ff ff 	lea    -0x18c0(%rbp),%rax
    f095:	48 89 85 48 e9 ff ff 	mov    %rax,-0x16b8(%rbp)
    f09c:	c7 85 40 eb ff ff 05 	movl   $0x2f8b6505,-0x14c0(%rbp)
    f0a3:	65 8b 2f 
    f0a6:	c7 85 44 eb ff ff a5 	movl   $0x4c7ed0a5,-0x14bc(%rbp)
    f0ad:	d0 7e 4c 
    f0b0:	c7 85 48 eb ff ff fc 	movl   $0xfffffffc,-0x14b8(%rbp)
    f0b7:	ff ff ff 
    f0ba:	c7 85 4c eb ff ff ff 	movl   $0xffffffff,-0x14b4(%rbp)
    f0c1:	ff ff ff 
    f0c4:	c7 85 50 eb ff ff 05 	movl   $0x2f8b6505,-0x14b0(%rbp)
    f0cb:	65 8b 2f 
    f0ce:	c7 85 54 eb ff ff 01 	movl   $0x1,-0x14ac(%rbp)
    f0d5:	00 00 00 
    f0d8:	c7 85 58 eb ff ff ff 	movl   $0xffffffff,-0x14a8(%rbp)
    f0df:	ff ff ff 
    f0e2:	c7 85 5c eb ff ff ff 	movl   $0xffffffff,-0x14a4(%rbp)
    f0e9:	ff ff ff 
    f0ec:	c7 85 60 eb ff ff fc 	movl   $0xfffffffc,-0x14a0(%rbp)
    f0f3:	ff ff ff 
    f0f6:	c7 85 64 eb ff ff ff 	movl   $0xffffffff,-0x149c(%rbp)
    f0fd:	ff ff ff 
    f100:	c7 85 68 eb ff ff fc 	movl   $0xfffffffc,-0x1498(%rbp)
    f107:	ff ff ff 
    f10a:	c7 85 6c eb ff ff 05 	movl   $0x2f8b6505,-0x1494(%rbp)
    f111:	65 8b 2f 
    f114:	c7 85 70 eb ff ff 05 	movl   $0x2f8b6505,-0x1490(%rbp)
    f11b:	65 8b 2f 
    f11e:	c7 85 74 eb ff ff fc 	movl   $0xfffffffc,-0x148c(%rbp)
    f125:	ff ff ff 
    f128:	c7 85 78 eb ff ff ff 	movl   $0xffffffff,-0x1488(%rbp)
    f12f:	ff ff ff 
    f132:	c7 85 7c eb ff ff fc 	movl   $0xfffffffc,-0x1484(%rbp)
    f139:	ff ff ff 
    f13c:	c7 85 80 eb ff ff ff 	movl   $0xffffffff,-0x1480(%rbp)
    f143:	ff ff ff 
    f146:	c7 85 84 eb ff ff ff 	movl   $0xffffffff,-0x147c(%rbp)
    f14d:	ff ff ff 
    f150:	c7 85 88 eb ff ff 01 	movl   $0x1,-0x1478(%rbp)
    f157:	00 00 00 
    f15a:	c7 85 8c eb ff ff 05 	movl   $0x2f8b6505,-0x1474(%rbp)
    f161:	65 8b 2f 
    f164:	c7 85 90 eb ff ff ff 	movl   $0xffffffff,-0x1470(%rbp)
    f16b:	ff ff ff 
    f16e:	c7 85 94 eb ff ff fc 	movl   $0xfffffffc,-0x146c(%rbp)
    f175:	ff ff ff 
    f178:	c7 85 98 eb ff ff a5 	movl   $0x4c7ed0a5,-0x1468(%rbp)
    f17f:	d0 7e 4c 
    f182:	c7 85 9c eb ff ff 05 	movl   $0x2f8b6505,-0x1464(%rbp)
    f189:	65 8b 2f 
    f18c:	c7 85 a0 eb ff ff fc 	movl   $0xfffffffc,-0x1460(%rbp)
    f193:	ff ff ff 
    f196:	c7 85 a4 eb ff ff 02 	movl   $0x2,-0x145c(%rbp)
    f19d:	00 00 00 
    f1a0:	c7 85 a8 eb ff ff fc 	movl   $0xfffffffc,-0x1458(%rbp)
    f1a7:	ff ff ff 
    f1aa:	c7 85 ac eb ff ff 01 	movl   $0x1,-0x1454(%rbp)
    f1b1:	00 00 00 
    f1b4:	c7 85 b0 eb ff ff 00 	movl   $0x0,-0x1450(%rbp)
    f1bb:	00 00 00 
    f1be:	c7 85 b4 eb ff ff 01 	movl   $0x1,-0x144c(%rbp)
    f1c5:	00 00 00 
    f1c8:	48 83 bd 30 e9 ff ff 	cmpq   $0x0,-0x16d0(%rbp)
    f1cf:	00 
    f1d0:	74 37                	je     f209 <func_99+0x221f>
    f1d2:	83 bd 24 e7 ff ff 00 	cmpl   $0x0,-0x18dc(%rbp)
    f1d9:	0f 94 c1             	sete   %cl
    f1dc:	48 8b 85 28 e7 ff ff 	mov    -0x18d8(%rbp),%rax
    f1e3:	0f b6 10             	movzbl (%rax),%edx
    f1e6:	48 8b 05 1b 85 00 00 	mov    0x851b(%rip),%rax        # 17708 <g_229>
    f1ed:	0f b6 30             	movzbl (%rax),%esi
    f1f0:	48 8b 05 11 85 00 00 	mov    0x8511(%rip),%rax        # 17708 <g_229>
    f1f7:	83 f6 f8             	xor    $0xfffffff8,%esi
    f1fa:	40 88 30             	mov    %sil,(%rax)
    f1fd:	0f b6 00             	movzbl (%rax),%eax
    f200:	38 c2                	cmp    %al,%dl
    f202:	0f 95 c0             	setne  %al
    f205:	21 c8                	and    %ecx,%eax
    f207:	84 c0                	test   %al,%al
    f209:	0f b7 05 1c 5f 00 00 	movzwl 0x5f1c(%rip),%eax        # 1512c <g_337>
    f210:	83 c0 01             	add    $0x1,%eax
    f213:	66 89 05 12 5f 00 00 	mov    %ax,0x5f12(%rip)        # 1512c <g_337>
    f21a:	0f b7 05 0b 5f 00 00 	movzwl 0x5f0b(%rip),%eax        # 1512c <g_337>
    f221:	0f b7 d0             	movzwl %ax,%edx
    f224:	8b 85 38 eb ff ff    	mov    -0x14c8(%rbp),%eax
    f22a:	39 c2                	cmp    %eax,%edx
    f22c:	0f 94 c0             	sete   %al
    f22f:	0f b6 c0             	movzbl %al,%eax
    f232:	39 85 24 e7 ff ff    	cmp    %eax,-0x18dc(%rbp)
    f238:	0f 94 c0             	sete   %al
    f23b:	0f b6 c8             	movzbl %al,%ecx
    f23e:	48 8b 85 e0 e7 ff ff 	mov    -0x1820(%rbp),%rax
    f245:	8b 10                	mov    (%rax),%edx
    f247:	48 8b 85 e0 e7 ff ff 	mov    -0x1820(%rbp),%rax
    f24e:	21 ca                	and    %ecx,%edx
    f250:	89 10                	mov    %edx,(%rax)
    f252:	8b 85 ac e7 ff ff    	mov    -0x1854(%rbp),%eax
    f258:	0f bf d8             	movswl %ax,%ebx
    f25b:	48 8b 85 28 e7 ff ff 	mov    -0x18d8(%rbp),%rax
    f262:	0f b6 00             	movzbl (%rax),%eax
    f265:	44 0f be e0          	movsbl %al,%r12d
    f269:	48 8b 85 20 e8 ff ff 	mov    -0x17e0(%rbp),%rax
    f270:	48 8b 00             	mov    (%rax),%rax
    f273:	48 8b 00             	mov    (%rax),%rax
    f276:	48 8b 00             	mov    (%rax),%rax
    f279:	8b 00                	mov    (%rax),%eax
    f27b:	0f b7 c0             	movzwl %ax,%eax
    f27e:	be 0e 00 00 00       	mov    $0xe,%esi
    f283:	89 c7                	mov    %eax,%edi
    f285:	e8 be 8b ff ff       	callq  7e48 <safe_rshift_func_uint16_t_u_s>
    f28a:	66 85 c0             	test   %ax,%ax
    f28d:	0f 85 f9 00 00 00    	jne    f38c <func_99+0x23a2>
    f293:	83 bd 24 e7 ff ff 00 	cmpl   $0x0,-0x18dc(%rbp)
    f29a:	0f 84 c8 00 00 00    	je     f368 <func_99+0x237e>
    f2a0:	0f b6 05 d9 5d 00 00 	movzbl 0x5dd9(%rip),%eax        # 15080 <g_42>
    f2a7:	44 0f be e8          	movsbl %al,%r13d
    f2ab:	8b 85 ac e7 ff ff    	mov    -0x1854(%rbp),%eax
    f2b1:	44 0f be f0          	movsbl %al,%r14d
    f2b5:	48 8b 85 38 e9 ff ff 	mov    -0x16c8(%rbp),%rax
    f2bc:	48 8d 15 35 5e 00 00 	lea    0x5e35(%rip),%rdx        # 150f8 <g_108>
    f2c3:	48 89 10             	mov    %rdx,(%rax)
    f2c6:	83 bd 24 e7 ff ff 00 	cmpl   $0x0,-0x18dc(%rbp)
    f2cd:	0f 94 c0             	sete   %al
    f2d0:	0f b6 d0             	movzbl %al,%edx
    f2d3:	0f b7 05 b6 63 00 00 	movzwl 0x63b6(%rip),%eax        # 15690 <g_1355>
    f2da:	98                   	cwtl   
    f2db:	39 c2                	cmp    %eax,%edx
    f2dd:	0f 94 c0             	sete   %al
    f2e0:	0f b6 c0             	movzbl %al,%eax
    f2e3:	be 08 00 00 00       	mov    $0x8,%esi
    f2e8:	89 c7                	mov    %eax,%edi
    f2ea:	e8 7b 7f ff ff       	callq  726a <safe_div_func_int8_t_s_s>
    f2ef:	48 8b 95 38 e8 ff ff 	mov    -0x17c8(%rbp),%rdx
    f2f6:	48 8b 85 40 e9 ff ff 	mov    -0x16c0(%rbp),%rax
    f2fd:	48 89 10             	mov    %rdx,(%rax)
    f300:	44 89 f6             	mov    %r14d,%esi
    f303:	bf 00 00 00 00       	mov    $0x0,%edi
    f308:	e8 e5 7e ff ff       	callq  71f2 <safe_sub_func_int8_t_s_s>
    f30d:	66 98                	cbtw   
    f30f:	0f b7 c0             	movzwl %ax,%eax
    f312:	89 c6                	mov    %eax,%esi
    f314:	bf 00 00 00 00       	mov    $0x0,%edi
    f319:	e8 01 8a ff ff       	callq  7d1f <safe_sub_func_uint16_t_u_u>
    f31e:	0f b7 c0             	movzwl %ax,%eax
    f321:	44 89 ee             	mov    %r13d,%esi
    f324:	89 c7                	mov    %eax,%edi
    f326:	e8 fa 8b ff ff       	callq  7f25 <safe_div_func_uint32_t_u_u>
    f32b:	48 8b 95 10 e9 ff ff 	mov    -0x16f0(%rbp),%rdx
    f332:	89 02                	mov    %eax,(%rdx)
    f334:	48 8b 85 10 e9 ff ff 	mov    -0x16f0(%rbp),%rax
    f33b:	8b 00                	mov    (%rax),%eax
    f33d:	85 c0                	test   %eax,%eax
    f33f:	74 07                	je     f348 <func_99+0x235e>
    f341:	b8 01 00 00 00       	mov    $0x1,%eax
    f346:	eb 05                	jmp    f34d <func_99+0x2363>
    f348:	b8 00 00 00 00       	mov    $0x0,%eax
    f34d:	0f b7 c0             	movzwl %ax,%eax
    f350:	be ff ff 00 00       	mov    $0xffff,%esi
    f355:	89 c7                	mov    %eax,%edi
    f357:	e8 e1 89 ff ff       	callq  7d3d <safe_mul_func_uint16_t_u_u>
    f35c:	66 85 c0             	test   %ax,%ax
    f35f:	74 07                	je     f368 <func_99+0x237e>
    f361:	b8 01 00 00 00       	mov    $0x1,%eax
    f366:	eb 05                	jmp    f36d <func_99+0x2383>
    f368:	b8 00 00 00 00       	mov    $0x0,%eax
    f36d:	23 85 ac e7 ff ff    	and    -0x1854(%rbp),%eax
    f373:	89 c2                	mov    %eax,%edx
    f375:	0f b6 05 9e 5d 00 00 	movzbl 0x5d9e(%rip),%eax        # 1511a <g_154+0x2>
    f37c:	0f b6 c0             	movzbl %al,%eax
    f37f:	39 c2                	cmp    %eax,%edx
    f381:	75 09                	jne    f38c <func_99+0x23a2>
    f383:	83 bd 24 e7 ff ff 00 	cmpl   $0x0,-0x18dc(%rbp)
    f38a:	74 07                	je     f393 <func_99+0x23a9>
    f38c:	b8 01 00 00 00       	mov    $0x1,%eax
    f391:	eb 05                	jmp    f398 <func_99+0x23ae>
    f393:	b8 00 00 00 00       	mov    $0x0,%eax
    f398:	48 98                	cltq   
    f39a:	83 e0 06             	and    $0x6,%eax
    f39d:	48 89 c2             	mov    %rax,%rdx
    f3a0:	48 8b 85 60 e8 ff ff 	mov    -0x17a0(%rbp),%rax
    f3a7:	8b 00                	mov    (%rax),%eax
    f3a9:	09 c2                	or     %eax,%edx
    f3ab:	48 8b 85 60 e8 ff ff 	mov    -0x17a0(%rbp),%rax
    f3b2:	89 10                	mov    %edx,(%rax)
    f3b4:	48 8b 85 60 e8 ff ff 	mov    -0x17a0(%rbp),%rax
    f3bb:	8b 00                	mov    (%rax),%eax
    f3bd:	31 85 b0 e7 ff ff    	xor    %eax,-0x1850(%rbp)
    f3c3:	8b 85 b0 e7 ff ff    	mov    -0x1850(%rbp),%eax
    f3c9:	89 c2                	mov    %eax,%edx
    f3cb:	0f b7 05 5a 5d 00 00 	movzwl 0x5d5a(%rip),%eax        # 1512c <g_337>
    f3d2:	31 d0                	xor    %edx,%eax
    f3d4:	0f be c0             	movsbl %al,%eax
    f3d7:	44 89 e6             	mov    %r12d,%esi
    f3da:	89 c7                	mov    %eax,%edi
    f3dc:	e8 54 7f ff ff       	callq  7335 <safe_rshift_func_int8_t_s_s>
    f3e1:	0f be c0             	movsbl %al,%eax
    f3e4:	39 85 24 e7 ff ff    	cmp    %eax,-0x18dc(%rbp)
    f3ea:	0f 95 c0             	setne  %al
    f3ed:	0f b6 c0             	movzbl %al,%eax
    f3f0:	89 de                	mov    %ebx,%esi
    f3f2:	89 c7                	mov    %eax,%edi
    f3f4:	e8 ba 7f ff ff       	callq  73b3 <safe_add_func_int16_t_s_s>
    f3f9:	0f b7 c0             	movzwl %ax,%eax
    f3fc:	8b 95 24 e7 ff ff    	mov    -0x18dc(%rbp),%edx
    f402:	89 d6                	mov    %edx,%esi
    f404:	89 c7                	mov    %eax,%edi
    f406:	e8 6f 8a ff ff       	callq  7e7a <safe_rshift_func_uint16_t_u_u>
    f40b:	83 bd 24 e7 ff ff 00 	cmpl   $0x0,-0x18dc(%rbp)
    f412:	74 07                	je     f41b <func_99+0x2431>
    f414:	ba 01 00 00 00       	mov    $0x1,%edx
    f419:	eb 05                	jmp    f420 <func_99+0x2436>
    f41b:	ba 00 00 00 00       	mov    $0x0,%edx
    f420:	48 8b 85 48 e9 ff ff 	mov    -0x16b8(%rbp),%rax
    f427:	8b 00                	mov    (%rax),%eax
    f429:	09 c2                	or     %eax,%edx
    f42b:	48 8b 85 48 e9 ff ff 	mov    -0x16b8(%rbp),%rax
    f432:	89 10                	mov    %edx,(%rax)
    f434:	0f b7 05 c5 5c 00 00 	movzwl 0x5cc5(%rip),%eax        # 15100 <g_111>
    f43b:	98                   	cwtl   
    f43c:	48 63 d0             	movslq %eax,%rdx
    f43f:	48 8d 0d d2 5c 00 00 	lea    0x5cd2(%rip),%rcx        # 15118 <g_154>
    f446:	c6 04 0a 00          	movb   $0x0,(%rdx,%rcx,1)
    f44a:	48 98                	cltq   
    f44c:	48 8d 15 c5 5c 00 00 	lea    0x5cc5(%rip),%rdx        # 15118 <g_154>
    f453:	0f b6 04 10          	movzbl (%rax,%rdx,1),%eax
    f457:	0f b6 d0             	movzbl %al,%edx
    f45a:	8b 85 24 e7 ff ff    	mov    -0x18dc(%rbp),%eax
    f460:	0f b6 c0             	movzbl %al,%eax
    f463:	89 d6                	mov    %edx,%esi
    f465:	89 c7                	mov    %eax,%edi
    f467:	e8 27 87 ff ff       	callq  7b93 <safe_mul_func_uint8_t_u_u>
    f46c:	0f b6 c0             	movzbl %al,%eax
    f46f:	89 85 ac e7 ff ff    	mov    %eax,-0x1854(%rbp)
    f475:	8b 85 ac e7 ff ff    	mov    -0x1854(%rbp),%eax
    f47b:	89 85 64 eb ff ff    	mov    %eax,-0x149c(%rbp)
    f481:	48 8b 05 40 82 00 00 	mov    0x8240(%rip),%rax        # 176c8 <g_20>
    f488:	48 8b 00             	mov    (%rax),%rax
    f48b:	eb 10                	jmp    f49d <func_99+0x24b3>
    f48d:	48 8b 85 20 e8 ff ff 	mov    -0x17e0(%rbp),%rax
    f494:	48 8b 00             	mov    (%rax),%rax
    f497:	48 8b 00             	mov    (%rax),%rax
    f49a:	48 8b 00             	mov    (%rax),%rax
    f49d:	48 8b 5d d8          	mov    -0x28(%rbp),%rbx
    f4a1:	64 48 33 1c 25 28 00 	xor    %fs:0x28,%rbx
    f4a8:	00 00 
    f4aa:	74 05                	je     f4b1 <func_99+0x24c7>
    f4ac:	e8 bf 7b ff ff       	callq  7070 <__stack_chk_fail@plt>
    f4b1:	48 81 c4 c0 18 00 00 	add    $0x18c0,%rsp
    f4b8:	5b                   	pop    %rbx
    f4b9:	41 5c                	pop    %r12
    f4bb:	41 5d                	pop    %r13
    f4bd:	41 5e                	pop    %r14
    f4bf:	5d                   	pop    %rbp
    f4c0:	c3                   	retq   

000000000000f4c1 <main>:
    f4c1:	f3 0f 1e fa          	endbr64 
    f4c5:	55                   	push   %rbp
    f4c6:	48 89 e5             	mov    %rsp,%rbp
    f4c9:	48 83 ec 20          	sub    $0x20,%rsp
    f4cd:	89 7d ec             	mov    %edi,-0x14(%rbp)
    f4d0:	48 89 75 e0          	mov    %rsi,-0x20(%rbp)
    f4d4:	c7 45 fc 00 00 00 00 	movl   $0x0,-0x4(%rbp)
    f4db:	83 7d ec 02          	cmpl   $0x2,-0x14(%rbp)
    f4df:	75 25                	jne    f506 <main+0x45>
    f4e1:	48 8b 45 e0          	mov    -0x20(%rbp),%rax
    f4e5:	48 83 c0 08          	add    $0x8,%rax
    f4e9:	48 8b 00             	mov    (%rax),%rax
    f4ec:	48 8d 35 4d 21 00 00 	lea    0x214d(%rip),%rsi        # 11640 <g_2821+0x5b8>
    f4f3:	48 89 c7             	mov    %rax,%rdi
    f4f6:	e8 95 7b ff ff       	callq  7090 <strcmp@plt>
    f4fb:	85 c0                	test   %eax,%eax
    f4fd:	75 07                	jne    f506 <main+0x45>
    f4ff:	c7 45 fc 01 00 00 00 	movl   $0x1,-0x4(%rbp)
    f506:	e8 7e 7c ff ff       	callq  7189 <platform_main_begin>
    f50b:	e8 88 90 ff ff       	callq  8598 <crc32_gentab>
    f510:	e8 a0 92 ff ff       	callq  87b5 <func_1>
    f515:	8b 05 09 5b 00 00    	mov    0x5b09(%rip),%eax        # 15024 <g_2>
    f51b:	48 98                	cltq   
    f51d:	8b 55 fc             	mov    -0x4(%rbp),%edx
    f520:	48 8d 35 1b 21 00 00 	lea    0x211b(%rip),%rsi        # 11642 <g_2821+0x5ba>
    f527:	48 89 c7             	mov    %rax,%rdi
    f52a:	e8 c4 91 ff ff       	callq  86f3 <transparent_crc>
    f52f:	8b 05 f3 5a 00 00    	mov    0x5af3(%rip),%eax        # 15028 <g_3>
    f535:	48 98                	cltq   
    f537:	8b 55 fc             	mov    -0x4(%rbp),%edx
    f53a:	48 8d 35 05 21 00 00 	lea    0x2105(%rip),%rsi        # 11646 <g_2821+0x5be>
    f541:	48 89 c7             	mov    %rax,%rdi
    f544:	e8 aa 91 ff ff       	callq  86f3 <transparent_crc>
    f549:	8b 05 dd 5a 00 00    	mov    0x5add(%rip),%eax        # 1502c <g_9>
    f54f:	48 98                	cltq   
    f551:	8b 55 fc             	mov    -0x4(%rbp),%edx
    f554:	48 8d 35 ef 20 00 00 	lea    0x20ef(%rip),%rsi        # 1164a <g_2821+0x5c2>
    f55b:	48 89 c7             	mov    %rax,%rdi
    f55e:	e8 90 91 ff ff       	callq  86f3 <transparent_crc>
    f563:	c7 45 f0 00 00 00 00 	movl   $0x0,-0x10(%rbp)
    f56a:	eb 4d                	jmp    f5b9 <main+0xf8>
    f56c:	8b 45 f0             	mov    -0x10(%rbp),%eax
    f56f:	48 98                	cltq   
    f571:	48 8d 14 85 00 00 00 	lea    0x0(,%rax,4),%rdx
    f578:	00 
    f579:	48 8d 05 c0 5a 00 00 	lea    0x5ac0(%rip),%rax        # 15040 <g_10>
    f580:	8b 04 02             	mov    (%rdx,%rax,1),%eax
    f583:	89 c1                	mov    %eax,%ecx
    f585:	8b 45 fc             	mov    -0x4(%rbp),%eax
    f588:	89 c2                	mov    %eax,%edx
    f58a:	48 8d 35 bd 20 00 00 	lea    0x20bd(%rip),%rsi        # 1164e <g_2821+0x5c6>
    f591:	48 89 cf             	mov    %rcx,%rdi
    f594:	e8 5a 91 ff ff       	callq  86f3 <transparent_crc>
    f599:	83 7d fc 00          	cmpl   $0x0,-0x4(%rbp)
    f59d:	74 16                	je     f5b5 <main+0xf4>
    f59f:	8b 45 f0             	mov    -0x10(%rbp),%eax
    f5a2:	89 c6                	mov    %eax,%esi
    f5a4:	48 8d 3d ab 20 00 00 	lea    0x20ab(%rip),%rdi        # 11656 <g_2821+0x5ce>
    f5ab:	b8 00 00 00 00       	mov    $0x0,%eax
    f5b0:	e8 cb 7a ff ff       	callq  7080 <printf@plt>
    f5b5:	83 45 f0 01          	addl   $0x1,-0x10(%rbp)
    f5b9:	83 7d f0 07          	cmpl   $0x7,-0x10(%rbp)
    f5bd:	7e ad                	jle    f56c <main+0xab>
    f5bf:	8b 05 9b 5a 00 00    	mov    0x5a9b(%rip),%eax        # 15060 <g_13>
    f5c5:	48 98                	cltq   
    f5c7:	8b 55 fc             	mov    -0x4(%rbp),%edx
    f5ca:	48 8d 35 93 20 00 00 	lea    0x2093(%rip),%rsi        # 11664 <g_2821+0x5dc>
    f5d1:	48 89 c7             	mov    %rax,%rdi
    f5d4:	e8 1a 91 ff ff       	callq  86f3 <transparent_crc>
    f5d9:	48 8b 05 88 5a 00 00 	mov    0x5a88(%rip),%rax        # 15068 <g_14>
    f5e0:	48 89 c1             	mov    %rax,%rcx
    f5e3:	8b 45 fc             	mov    -0x4(%rbp),%eax
    f5e6:	89 c2                	mov    %eax,%edx
    f5e8:	48 8d 35 7a 20 00 00 	lea    0x207a(%rip),%rsi        # 11669 <g_2821+0x5e1>
    f5ef:	48 89 cf             	mov    %rcx,%rdi
    f5f2:	e8 fc 90 ff ff       	callq  86f3 <transparent_crc>
    f5f7:	8b 05 73 5a 00 00    	mov    0x5a73(%rip),%eax        # 15070 <g_15>
    f5fd:	48 98                	cltq   
    f5ff:	8b 55 fc             	mov    -0x4(%rbp),%edx
    f602:	48 8d 35 65 20 00 00 	lea    0x2065(%rip),%rsi        # 1166e <g_2821+0x5e6>
    f609:	48 89 c7             	mov    %rax,%rdi
    f60c:	e8 e2 90 ff ff       	callq  86f3 <transparent_crc>
    f611:	48 8b 05 60 5a 00 00 	mov    0x5a60(%rip),%rax        # 15078 <g_17>
    f618:	8b 55 fc             	mov    -0x4(%rbp),%edx
    f61b:	48 8d 35 51 20 00 00 	lea    0x2051(%rip),%rsi        # 11673 <g_2821+0x5eb>
    f622:	48 89 c7             	mov    %rax,%rdi
    f625:	e8 c9 90 ff ff       	callq  86f3 <transparent_crc>
    f62a:	0f b6 05 4f 5a 00 00 	movzbl 0x5a4f(%rip),%eax        # 15080 <g_42>
    f631:	48 0f be c0          	movsbq %al,%rax
    f635:	8b 55 fc             	mov    -0x4(%rbp),%edx
    f638:	48 8d 35 39 20 00 00 	lea    0x2039(%rip),%rsi        # 11678 <g_2821+0x5f0>
    f63f:	48 89 c7             	mov    %rax,%rdi
    f642:	e8 ac 90 ff ff       	callq  86f3 <transparent_crc>
    f647:	48 8b 05 3a 5a 00 00 	mov    0x5a3a(%rip),%rax        # 15088 <g_51>
    f64e:	48 89 c1             	mov    %rax,%rcx
    f651:	8b 45 fc             	mov    -0x4(%rbp),%eax
    f654:	89 c2                	mov    %eax,%edx
    f656:	48 8d 35 20 20 00 00 	lea    0x2020(%rip),%rsi        # 1167d <g_2821+0x5f5>
    f65d:	48 89 cf             	mov    %rcx,%rdi
    f660:	e8 8e 90 ff ff       	callq  86f3 <transparent_crc>
    f665:	c7 45 f0 00 00 00 00 	movl   $0x0,-0x10(%rbp)
    f66c:	eb 77                	jmp    f6e5 <main+0x224>
    f66e:	c7 45 f4 00 00 00 00 	movl   $0x0,-0xc(%rbp)
    f675:	eb 64                	jmp    f6db <main+0x21a>
    f677:	8b 45 f4             	mov    -0xc(%rbp),%eax
    f67a:	48 63 c8             	movslq %eax,%rcx
    f67d:	8b 45 f0             	mov    -0x10(%rbp),%eax
    f680:	48 63 d0             	movslq %eax,%rdx
    f683:	48 89 d0             	mov    %rdx,%rax
    f686:	48 c1 e0 03          	shl    $0x3,%rax
    f68a:	48 29 d0             	sub    %rdx,%rax
    f68d:	48 01 c8             	add    %rcx,%rax
    f690:	48 8d 14 85 00 00 00 	lea    0x0(,%rax,4),%rdx
    f697:	00 
    f698:	48 8d 05 01 5a 00 00 	lea    0x5a01(%rip),%rax        # 150a0 <g_53>
    f69f:	0f b7 04 02          	movzwl (%rdx,%rax,1),%eax
    f6a3:	0f b7 c0             	movzwl %ax,%eax
    f6a6:	8b 55 fc             	mov    -0x4(%rbp),%edx
    f6a9:	48 8d 35 d2 1f 00 00 	lea    0x1fd2(%rip),%rsi        # 11682 <g_2821+0x5fa>
    f6b0:	48 89 c7             	mov    %rax,%rdi
    f6b3:	e8 3b 90 ff ff       	callq  86f3 <transparent_crc>
    f6b8:	83 7d fc 00          	cmpl   $0x0,-0x4(%rbp)
    f6bc:	74 19                	je     f6d7 <main+0x216>
    f6be:	8b 55 f4             	mov    -0xc(%rbp),%edx
    f6c1:	8b 45 f0             	mov    -0x10(%rbp),%eax
    f6c4:	89 c6                	mov    %eax,%esi
    f6c6:	48 8d 3d c3 1f 00 00 	lea    0x1fc3(%rip),%rdi        # 11690 <g_2821+0x608>
    f6cd:	b8 00 00 00 00       	mov    $0x0,%eax
    f6d2:	e8 a9 79 ff ff       	callq  7080 <printf@plt>
    f6d7:	83 45 f4 01          	addl   $0x1,-0xc(%rbp)
    f6db:	83 7d f4 06          	cmpl   $0x6,-0xc(%rbp)
    f6df:	7e 96                	jle    f677 <main+0x1b6>
    f6e1:	83 45 f0 01          	addl   $0x1,-0x10(%rbp)
    f6e5:	83 7d f0 01          	cmpl   $0x1,-0x10(%rbp)
    f6e9:	7e 83                	jle    f66e <main+0x1ad>
    f6eb:	c7 45 f0 00 00 00 00 	movl   $0x0,-0x10(%rbp)
    f6f2:	eb 6f                	jmp    f763 <main+0x2a2>
    f6f4:	c7 45 f4 00 00 00 00 	movl   $0x0,-0xc(%rbp)
    f6fb:	eb 5c                	jmp    f759 <main+0x298>
    f6fd:	8b 45 f4             	mov    -0xc(%rbp),%eax
    f700:	48 98                	cltq   
    f702:	8b 55 f0             	mov    -0x10(%rbp),%edx
    f705:	48 63 d2             	movslq %edx,%rdx
    f708:	48 01 d2             	add    %rdx,%rdx
    f70b:	48 01 d0             	add    %rdx,%rax
    f70e:	48 8d 14 85 00 00 00 	lea    0x0(,%rax,4),%rdx
    f715:	00 
    f716:	48 8d 05 c3 59 00 00 	lea    0x59c3(%rip),%rax        # 150e0 <g_81>
    f71d:	0f b7 04 02          	movzwl (%rdx,%rax,1),%eax
    f721:	0f b7 c0             	movzwl %ax,%eax
    f724:	8b 55 fc             	mov    -0x4(%rbp),%edx
    f727:	48 8d 35 74 1f 00 00 	lea    0x1f74(%rip),%rsi        # 116a2 <g_2821+0x61a>
    f72e:	48 89 c7             	mov    %rax,%rdi
    f731:	e8 bd 8f ff ff       	callq  86f3 <transparent_crc>
    f736:	83 7d fc 00          	cmpl   $0x0,-0x4(%rbp)
    f73a:	74 19                	je     f755 <main+0x294>
    f73c:	8b 55 f4             	mov    -0xc(%rbp),%edx
    f73f:	8b 45 f0             	mov    -0x10(%rbp),%eax
    f742:	89 c6                	mov    %eax,%esi
    f744:	48 8d 3d 45 1f 00 00 	lea    0x1f45(%rip),%rdi        # 11690 <g_2821+0x608>
    f74b:	b8 00 00 00 00       	mov    $0x0,%eax
    f750:	e8 2b 79 ff ff       	callq  7080 <printf@plt>
    f755:	83 45 f4 01          	addl   $0x1,-0xc(%rbp)
    f759:	83 7d f4 01          	cmpl   $0x1,-0xc(%rbp)
    f75d:	7e 9e                	jle    f6fd <main+0x23c>
    f75f:	83 45 f0 01          	addl   $0x1,-0x10(%rbp)
    f763:	83 7d f0 02          	cmpl   $0x2,-0x10(%rbp)
    f767:	7e 8b                	jle    f6f4 <main+0x233>
    f769:	0f b7 05 88 59 00 00 	movzwl 0x5988(%rip),%eax        # 150f8 <g_108>
    f770:	48 0f bf c0          	movswq %ax,%rax
    f774:	8b 55 fc             	mov    -0x4(%rbp),%edx
    f777:	48 8d 35 32 1f 00 00 	lea    0x1f32(%rip),%rsi        # 116b0 <g_2821+0x628>
    f77e:	48 89 c7             	mov    %rax,%rdi
    f781:	e8 6d 8f ff ff       	callq  86f3 <transparent_crc>
    f786:	8b 05 70 59 00 00    	mov    0x5970(%rip),%eax        # 150fc <g_109>
    f78c:	89 c1                	mov    %eax,%ecx
    f78e:	8b 45 fc             	mov    -0x4(%rbp),%eax
    f791:	89 c2                	mov    %eax,%edx
    f793:	48 8d 35 1c 1f 00 00 	lea    0x1f1c(%rip),%rsi        # 116b6 <g_2821+0x62e>
    f79a:	48 89 cf             	mov    %rcx,%rdi
    f79d:	e8 51 8f ff ff       	callq  86f3 <transparent_crc>
    f7a2:	0f b7 05 57 59 00 00 	movzwl 0x5957(%rip),%eax        # 15100 <g_111>
    f7a9:	48 0f bf c0          	movswq %ax,%rax
    f7ad:	8b 55 fc             	mov    -0x4(%rbp),%edx
    f7b0:	48 8d 35 05 1f 00 00 	lea    0x1f05(%rip),%rsi        # 116bc <g_2821+0x634>
    f7b7:	48 89 c7             	mov    %rax,%rdi
    f7ba:	e8 34 8f ff ff       	callq  86f3 <transparent_crc>
    f7bf:	0f b6 05 3c 59 00 00 	movzbl 0x593c(%rip),%eax        # 15102 <g_112>
    f7c6:	48 0f be c0          	movsbq %al,%rax
    f7ca:	8b 55 fc             	mov    -0x4(%rbp),%edx
    f7cd:	48 8d 35 ee 1e 00 00 	lea    0x1eee(%rip),%rsi        # 116c2 <g_2821+0x63a>
    f7d4:	48 89 c7             	mov    %rax,%rdi
    f7d7:	e8 17 8f ff ff       	callq  86f3 <transparent_crc>
    f7dc:	c7 45 f0 00 00 00 00 	movl   $0x0,-0x10(%rbp)
    f7e3:	eb 45                	jmp    f82a <main+0x369>
    f7e5:	8b 45 f0             	mov    -0x10(%rbp),%eax
    f7e8:	48 98                	cltq   
    f7ea:	48 8d 15 12 59 00 00 	lea    0x5912(%rip),%rdx        # 15103 <g_113>
    f7f1:	0f b6 04 10          	movzbl (%rax,%rdx,1),%eax
    f7f5:	0f b6 c0             	movzbl %al,%eax
    f7f8:	8b 55 fc             	mov    -0x4(%rbp),%edx
    f7fb:	48 8d 35 c6 1e 00 00 	lea    0x1ec6(%rip),%rsi        # 116c8 <g_2821+0x640>
    f802:	48 89 c7             	mov    %rax,%rdi
    f805:	e8 e9 8e ff ff       	callq  86f3 <transparent_crc>
    f80a:	83 7d fc 00          	cmpl   $0x0,-0x4(%rbp)
    f80e:	74 16                	je     f826 <main+0x365>
    f810:	8b 45 f0             	mov    -0x10(%rbp),%eax
    f813:	89 c6                	mov    %eax,%esi
    f815:	48 8d 3d 3a 1e 00 00 	lea    0x1e3a(%rip),%rdi        # 11656 <g_2821+0x5ce>
    f81c:	b8 00 00 00 00       	mov    $0x0,%eax
    f821:	e8 5a 78 ff ff       	callq  7080 <printf@plt>
    f826:	83 45 f0 01          	addl   $0x1,-0x10(%rbp)
    f82a:	83 7d f0 06          	cmpl   $0x6,-0x10(%rbp)
    f82e:	7e b5                	jle    f7e5 <main+0x324>
    f830:	0f b7 05 d5 58 00 00 	movzwl 0x58d5(%rip),%eax        # 1510c <g_134>
    f837:	0f b7 c0             	movzwl %ax,%eax
    f83a:	8b 55 fc             	mov    -0x4(%rbp),%edx
    f83d:	48 8d 35 8d 1e 00 00 	lea    0x1e8d(%rip),%rsi        # 116d1 <g_2821+0x649>
    f844:	48 89 c7             	mov    %rax,%rdi
    f847:	e8 a7 8e ff ff       	callq  86f3 <transparent_crc>
    f84c:	8b 05 be 58 00 00    	mov    0x58be(%rip),%eax        # 15110 <g_143>
    f852:	89 c1                	mov    %eax,%ecx
    f854:	8b 45 fc             	mov    -0x4(%rbp),%eax
    f857:	89 c2                	mov    %eax,%edx
    f859:	48 8d 35 7a 1e 00 00 	lea    0x1e7a(%rip),%rsi        # 116da <g_2821+0x652>
    f860:	48 89 cf             	mov    %rcx,%rdi
    f863:	e8 8b 8e ff ff       	callq  86f3 <transparent_crc>
    f868:	c7 45 f0 00 00 00 00 	movl   $0x0,-0x10(%rbp)
    f86f:	eb 45                	jmp    f8b6 <main+0x3f5>
    f871:	8b 45 f0             	mov    -0x10(%rbp),%eax
    f874:	48 98                	cltq   
    f876:	48 8d 15 9b 58 00 00 	lea    0x589b(%rip),%rdx        # 15118 <g_154>
    f87d:	0f b6 04 10          	movzbl (%rax,%rdx,1),%eax
    f881:	0f b6 c0             	movzbl %al,%eax
    f884:	8b 55 fc             	mov    -0x4(%rbp),%edx
    f887:	48 8d 35 52 1e 00 00 	lea    0x1e52(%rip),%rsi        # 116e0 <g_2821+0x658>
    f88e:	48 89 c7             	mov    %rax,%rdi
    f891:	e8 5d 8e ff ff       	callq  86f3 <transparent_crc>
    f896:	83 7d fc 00          	cmpl   $0x0,-0x4(%rbp)
    f89a:	74 16                	je     f8b2 <main+0x3f1>
    f89c:	8b 45 f0             	mov    -0x10(%rbp),%eax
    f89f:	89 c6                	mov    %eax,%esi
    f8a1:	48 8d 3d ae 1d 00 00 	lea    0x1dae(%rip),%rdi        # 11656 <g_2821+0x5ce>
    f8a8:	b8 00 00 00 00       	mov    $0x0,%eax
    f8ad:	e8 ce 77 ff ff       	callq  7080 <printf@plt>
    f8b2:	83 45 f0 01          	addl   $0x1,-0x10(%rbp)
    f8b6:	83 7d f0 08          	cmpl   $0x8,-0x10(%rbp)
    f8ba:	7e b5                	jle    f871 <main+0x3b0>
    f8bc:	0f b7 05 5f 58 00 00 	movzwl 0x585f(%rip),%eax        # 15122 <g_170>
    f8c3:	48 0f bf c0          	movswq %ax,%rax
    f8c7:	8b 55 fc             	mov    -0x4(%rbp),%edx
    f8ca:	48 8d 35 18 1e 00 00 	lea    0x1e18(%rip),%rsi        # 116e9 <g_2821+0x661>
    f8d1:	48 89 c7             	mov    %rax,%rdi
    f8d4:	e8 1a 8e ff ff       	callq  86f3 <transparent_crc>
    f8d9:	0f b6 05 44 58 00 00 	movzbl 0x5844(%rip),%eax        # 15124 <g_171>
    f8e0:	48 0f be c0          	movsbq %al,%rax
    f8e4:	8b 55 fc             	mov    -0x4(%rbp),%edx
    f8e7:	48 8d 35 01 1e 00 00 	lea    0x1e01(%rip),%rsi        # 116ef <g_2821+0x667>
    f8ee:	48 89 c7             	mov    %rax,%rdi
    f8f1:	e8 fd 8d ff ff       	callq  86f3 <transparent_crc>
    f8f6:	8b 05 ac 91 00 00    	mov    0x91ac(%rip),%eax        # 18aa8 <g_174>
    f8fc:	89 c1                	mov    %eax,%ecx
    f8fe:	8b 45 fc             	mov    -0x4(%rbp),%eax
    f901:	89 c2                	mov    %eax,%edx
    f903:	48 8d 35 eb 1d 00 00 	lea    0x1deb(%rip),%rsi        # 116f5 <g_2821+0x66d>
    f90a:	48 89 cf             	mov    %rcx,%rdi
    f90d:	e8 e1 8d ff ff       	callq  86f3 <transparent_crc>
    f912:	0f b7 05 0f 58 00 00 	movzwl 0x580f(%rip),%eax        # 15128 <g_307>
    f919:	0f b7 c0             	movzwl %ax,%eax
    f91c:	8b 55 fc             	mov    -0x4(%rbp),%edx
    f91f:	48 8d 35 d5 1d 00 00 	lea    0x1dd5(%rip),%rsi        # 116fb <g_2821+0x673>
    f926:	48 89 c7             	mov    %rax,%rdi
    f929:	e8 c5 8d ff ff       	callq  86f3 <transparent_crc>
    f92e:	0f b7 05 f7 57 00 00 	movzwl 0x57f7(%rip),%eax        # 1512c <g_337>
    f935:	0f b7 c0             	movzwl %ax,%eax
    f938:	8b 55 fc             	mov    -0x4(%rbp),%edx
    f93b:	48 8d 35 c2 1d 00 00 	lea    0x1dc2(%rip),%rsi        # 11704 <g_2821+0x67c>
    f942:	48 89 c7             	mov    %rax,%rdi
    f945:	e8 a9 8d ff ff       	callq  86f3 <transparent_crc>
    f94a:	8b 05 e0 57 00 00    	mov    0x57e0(%rip),%eax        # 15130 <g_366>
    f950:	48 98                	cltq   
    f952:	8b 55 fc             	mov    -0x4(%rbp),%edx
    f955:	48 8d 35 b1 1d 00 00 	lea    0x1db1(%rip),%rsi        # 1170d <g_2821+0x685>
    f95c:	48 89 c7             	mov    %rax,%rdi
    f95f:	e8 8f 8d ff ff       	callq  86f3 <transparent_crc>
    f964:	c7 45 f0 00 00 00 00 	movl   $0x0,-0x10(%rbp)
    f96b:	e9 96 00 00 00       	jmpq   fa06 <main+0x545>
    f970:	c7 45 f4 00 00 00 00 	movl   $0x0,-0xc(%rbp)
    f977:	eb 7f                	jmp    f9f8 <main+0x537>
    f979:	c7 45 f8 00 00 00 00 	movl   $0x0,-0x8(%rbp)
    f980:	eb 6c                	jmp    f9ee <main+0x52d>
    f982:	8b 45 f8             	mov    -0x8(%rbp),%eax
    f985:	48 63 c8             	movslq %eax,%rcx
    f988:	8b 45 f0             	mov    -0x10(%rbp),%eax
    f98b:	48 63 d0             	movslq %eax,%rdx
    f98e:	8b 45 f4             	mov    -0xc(%rbp),%eax
    f991:	48 98                	cltq   
    f993:	48 01 c2             	add    %rax,%rdx
    f996:	48 89 d0             	mov    %rdx,%rax
    f999:	48 c1 e0 03          	shl    $0x3,%rax
    f99d:	48 29 d0             	sub    %rdx,%rax
    f9a0:	48 01 c8             	add    %rcx,%rax
    f9a3:	48 8d 14 c5 00 00 00 	lea    0x0(,%rax,8),%rdx
    f9aa:	00 
    f9ab:	48 8d 05 8e 57 00 00 	lea    0x578e(%rip),%rax        # 15140 <g_417>
    f9b2:	48 8b 04 02          	mov    (%rdx,%rax,1),%rax
    f9b6:	8b 55 fc             	mov    -0x4(%rbp),%edx
    f9b9:	48 8d 35 53 1d 00 00 	lea    0x1d53(%rip),%rsi        # 11713 <g_2821+0x68b>
    f9c0:	48 89 c7             	mov    %rax,%rdi
    f9c3:	e8 2b 8d ff ff       	callq  86f3 <transparent_crc>
    f9c8:	83 7d fc 00          	cmpl   $0x0,-0x4(%rbp)
    f9cc:	74 1c                	je     f9ea <main+0x529>
    f9ce:	8b 4d f8             	mov    -0x8(%rbp),%ecx
    f9d1:	8b 55 f4             	mov    -0xc(%rbp),%edx
    f9d4:	8b 45 f0             	mov    -0x10(%rbp),%eax
    f9d7:	89 c6                	mov    %eax,%esi
    f9d9:	48 8d 3d 42 1d 00 00 	lea    0x1d42(%rip),%rdi        # 11722 <g_2821+0x69a>
    f9e0:	b8 00 00 00 00       	mov    $0x0,%eax
    f9e5:	e8 96 76 ff ff       	callq  7080 <printf@plt>
    f9ea:	83 45 f8 01          	addl   $0x1,-0x8(%rbp)
    f9ee:	83 7d f8 06          	cmpl   $0x6,-0x8(%rbp)
    f9f2:	7e 8e                	jle    f982 <main+0x4c1>
    f9f4:	83 45 f4 01          	addl   $0x1,-0xc(%rbp)
    f9f8:	83 7d f4 00          	cmpl   $0x0,-0xc(%rbp)
    f9fc:	0f 8e 77 ff ff ff    	jle    f979 <main+0x4b8>
    fa02:	83 45 f0 01          	addl   $0x1,-0x10(%rbp)
    fa06:	83 7d f0 07          	cmpl   $0x7,-0x10(%rbp)
    fa0a:	0f 8e 60 ff ff ff    	jle    f970 <main+0x4af>
    fa10:	c7 45 f0 00 00 00 00 	movl   $0x0,-0x10(%rbp)
    fa17:	eb 45                	jmp    fa5e <main+0x59d>
    fa19:	8b 45 f0             	mov    -0x10(%rbp),%eax
    fa1c:	48 98                	cltq   
    fa1e:	48 8d 15 2f 16 00 00 	lea    0x162f(%rip),%rdx        # 11054 <g_523>
    fa25:	0f b6 04 10          	movzbl (%rax,%rdx,1),%eax
    fa29:	0f b6 c0             	movzbl %al,%eax
    fa2c:	8b 55 fc             	mov    -0x4(%rbp),%edx
    fa2f:	48 8d 35 02 1d 00 00 	lea    0x1d02(%rip),%rsi        # 11738 <g_2821+0x6b0>
    fa36:	48 89 c7             	mov    %rax,%rdi
    fa39:	e8 b5 8c ff ff       	callq  86f3 <transparent_crc>
    fa3e:	83 7d fc 00          	cmpl   $0x0,-0x4(%rbp)
    fa42:	74 16                	je     fa5a <main+0x599>
    fa44:	8b 45 f0             	mov    -0x10(%rbp),%eax
    fa47:	89 c6                	mov    %eax,%esi
    fa49:	48 8d 3d 06 1c 00 00 	lea    0x1c06(%rip),%rdi        # 11656 <g_2821+0x5ce>
    fa50:	b8 00 00 00 00       	mov    $0x0,%eax
    fa55:	e8 26 76 ff ff       	callq  7080 <printf@plt>
    fa5a:	83 45 f0 01          	addl   $0x1,-0x10(%rbp)
    fa5e:	83 7d f0 06          	cmpl   $0x6,-0x10(%rbp)
    fa62:	7e b5                	jle    fa19 <main+0x558>
    fa64:	8b 05 4e 90 00 00    	mov    0x904e(%rip),%eax        # 18ab8 <g_531>
    fa6a:	48 98                	cltq   
    fa6c:	8b 55 fc             	mov    -0x4(%rbp),%edx
    fa6f:	48 8d 35 cb 1c 00 00 	lea    0x1ccb(%rip),%rsi        # 11741 <g_2821+0x6b9>
    fa76:	48 89 c7             	mov    %rax,%rdi
    fa79:	e8 75 8c ff ff       	callq  86f3 <transparent_crc>
    fa7e:	8b 05 7c 58 00 00    	mov    0x587c(%rip),%eax        # 15300 <g_544>
    fa84:	89 c1                	mov    %eax,%ecx
    fa86:	8b 45 fc             	mov    -0x4(%rbp),%eax
    fa89:	89 c2                	mov    %eax,%edx
    fa8b:	48 8d 35 b5 1c 00 00 	lea    0x1cb5(%rip),%rsi        # 11747 <g_2821+0x6bf>
    fa92:	48 89 cf             	mov    %rcx,%rdi
    fa95:	e8 59 8c ff ff       	callq  86f3 <transparent_crc>
    fa9a:	0f b7 05 63 58 00 00 	movzwl 0x5863(%rip),%eax        # 15304 <g_620>
    faa1:	0f b7 c0             	movzwl %ax,%eax
    faa4:	8b 55 fc             	mov    -0x4(%rbp),%edx
    faa7:	48 8d 35 9f 1c 00 00 	lea    0x1c9f(%rip),%rsi        # 1174d <g_2821+0x6c5>
    faae:	48 89 c7             	mov    %rax,%rdi
    fab1:	e8 3d 8c ff ff       	callq  86f3 <transparent_crc>
    fab6:	48 8b 05 4b 58 00 00 	mov    0x584b(%rip),%rax        # 15308 <g_676>
    fabd:	8b 55 fc             	mov    -0x4(%rbp),%edx
    fac0:	48 8d 35 8f 1c 00 00 	lea    0x1c8f(%rip),%rsi        # 11756 <g_2821+0x6ce>
    fac7:	48 89 c7             	mov    %rax,%rdi
    faca:	e8 24 8c ff ff       	callq  86f3 <transparent_crc>
    facf:	0f b6 05 e6 8f 00 00 	movzbl 0x8fe6(%rip),%eax        # 18abc <g_728>
    fad6:	0f b6 c0             	movzbl %al,%eax
    fad9:	8b 55 fc             	mov    -0x4(%rbp),%edx
    fadc:	48 8d 35 79 1c 00 00 	lea    0x1c79(%rip),%rsi        # 1175c <g_2821+0x6d4>
    fae3:	48 89 c7             	mov    %rax,%rdi
    fae6:	e8 08 8c ff ff       	callq  86f3 <transparent_crc>
    faeb:	8b 05 1f 58 00 00    	mov    0x581f(%rip),%eax        # 15310 <g_789>
    faf1:	89 c1                	mov    %eax,%ecx
    faf3:	8b 45 fc             	mov    -0x4(%rbp),%eax
    faf6:	89 c2                	mov    %eax,%edx
    faf8:	48 8d 35 63 1c 00 00 	lea    0x1c63(%rip),%rsi        # 11762 <g_2821+0x6da>
    faff:	48 89 cf             	mov    %rcx,%rdi
    fb02:	e8 ec 8b ff ff       	callq  86f3 <transparent_crc>
    fb07:	0f b7 05 06 58 00 00 	movzwl 0x5806(%rip),%eax        # 15314 <g_804>
    fb0e:	0f b7 c0             	movzwl %ax,%eax
    fb11:	8b 55 fc             	mov    -0x4(%rbp),%edx
    fb14:	48 8d 35 4d 1c 00 00 	lea    0x1c4d(%rip),%rsi        # 11768 <g_2821+0x6e0>
    fb1b:	48 89 c7             	mov    %rax,%rdi
    fb1e:	e8 d0 8b ff ff       	callq  86f3 <transparent_crc>
    fb23:	8b 05 af 8f 00 00    	mov    0x8faf(%rip),%eax        # 18ad8 <g_888>
    fb29:	89 c1                	mov    %eax,%ecx
    fb2b:	8b 45 fc             	mov    -0x4(%rbp),%eax
    fb2e:	89 c2                	mov    %eax,%edx
    fb30:	48 8d 35 3a 1c 00 00 	lea    0x1c3a(%rip),%rsi        # 11771 <g_2821+0x6e9>
    fb37:	48 89 cf             	mov    %rcx,%rdi
    fb3a:	e8 b4 8b ff ff       	callq  86f3 <transparent_crc>
    fb3f:	c7 45 f0 00 00 00 00 	movl   $0x0,-0x10(%rbp)
    fb46:	eb 4b                	jmp    fb93 <main+0x6d2>
    fb48:	8b 45 f0             	mov    -0x10(%rbp),%eax
    fb4b:	48 98                	cltq   
    fb4d:	48 8d 14 85 00 00 00 	lea    0x0(,%rax,4),%rdx
    fb54:	00 
    fb55:	48 8d 05 c4 57 00 00 	lea    0x57c4(%rip),%rax        # 15320 <g_1051>
    fb5c:	8b 04 02             	mov    (%rdx,%rax,1),%eax
    fb5f:	48 98                	cltq   
    fb61:	8b 55 fc             	mov    -0x4(%rbp),%edx
    fb64:	48 8d 35 0c 1c 00 00 	lea    0x1c0c(%rip),%rsi        # 11777 <g_2821+0x6ef>
    fb6b:	48 89 c7             	mov    %rax,%rdi
    fb6e:	e8 80 8b ff ff       	callq  86f3 <transparent_crc>
    fb73:	83 7d fc 00          	cmpl   $0x0,-0x4(%rbp)
    fb77:	74 16                	je     fb8f <main+0x6ce>
    fb79:	8b 45 f0             	mov    -0x10(%rbp),%eax
    fb7c:	89 c6                	mov    %eax,%esi
    fb7e:	48 8d 3d d1 1a 00 00 	lea    0x1ad1(%rip),%rdi        # 11656 <g_2821+0x5ce>
    fb85:	b8 00 00 00 00       	mov    $0x0,%eax
    fb8a:	e8 f1 74 ff ff       	callq  7080 <printf@plt>
    fb8f:	83 45 f0 01          	addl   $0x1,-0x10(%rbp)
    fb93:	83 7d f0 06          	cmpl   $0x6,-0x10(%rbp)
    fb97:	7e af                	jle    fb48 <main+0x687>
    fb99:	0f b6 05 9c 57 00 00 	movzbl 0x579c(%rip),%eax        # 1533c <g_1075>
    fba0:	0f b6 c0             	movzbl %al,%eax
    fba3:	8b 55 fc             	mov    -0x4(%rbp),%edx
    fba6:	48 8d 35 d4 1b 00 00 	lea    0x1bd4(%rip),%rsi        # 11781 <g_2821+0x6f9>
    fbad:	48 89 c7             	mov    %rax,%rdi
    fbb0:	e8 3e 8b ff ff       	callq  86f3 <transparent_crc>
    fbb5:	c7 45 f0 00 00 00 00 	movl   $0x0,-0x10(%rbp)
    fbbc:	e9 b4 00 00 00       	jmpq   fc75 <main+0x7b4>
    fbc1:	c7 45 f4 00 00 00 00 	movl   $0x0,-0xc(%rbp)
    fbc8:	e9 9a 00 00 00       	jmpq   fc67 <main+0x7a6>
    fbcd:	c7 45 f8 00 00 00 00 	movl   $0x0,-0x8(%rbp)
    fbd4:	e9 80 00 00 00       	jmpq   fc59 <main+0x798>
    fbd9:	8b 45 f8             	mov    -0x8(%rbp),%eax
    fbdc:	48 63 f0             	movslq %eax,%rsi
    fbdf:	8b 45 f0             	mov    -0x10(%rbp),%eax
    fbe2:	48 63 d0             	movslq %eax,%rdx
    fbe5:	8b 45 f4             	mov    -0xc(%rbp),%eax
    fbe8:	48 63 c8             	movslq %eax,%rcx
    fbeb:	48 89 d0             	mov    %rdx,%rax
    fbee:	48 c1 e0 02          	shl    $0x2,%rax
    fbf2:	48 01 d0             	add    %rdx,%rax
    fbf5:	48 c1 e0 02          	shl    $0x2,%rax
    fbf9:	48 01 d0             	add    %rdx,%rax
    fbfc:	48 89 ca             	mov    %rcx,%rdx
    fbff:	48 01 d2             	add    %rdx,%rdx
    fc02:	48 01 ca             	add    %rcx,%rdx
    fc05:	48 01 d0             	add    %rdx,%rax
    fc08:	48 01 f0             	add    %rsi,%rax
    fc0b:	48 8d 14 85 00 00 00 	lea    0x0(,%rax,4),%rdx
    fc12:	00 
    fc13:	48 8d 05 26 57 00 00 	lea    0x5726(%rip),%rax        # 15340 <g_1081>
    fc1a:	0f b7 04 02          	movzwl (%rdx,%rax,1),%eax
    fc1e:	0f b7 c0             	movzwl %ax,%eax
    fc21:	8b 55 fc             	mov    -0x4(%rbp),%edx
    fc24:	48 8d 35 5d 1b 00 00 	lea    0x1b5d(%rip),%rsi        # 11788 <g_2821+0x700>
    fc2b:	48 89 c7             	mov    %rax,%rdi
    fc2e:	e8 c0 8a ff ff       	callq  86f3 <transparent_crc>
    fc33:	83 7d fc 00          	cmpl   $0x0,-0x4(%rbp)
    fc37:	74 1c                	je     fc55 <main+0x794>
    fc39:	8b 4d f8             	mov    -0x8(%rbp),%ecx
    fc3c:	8b 55 f4             	mov    -0xc(%rbp),%edx
    fc3f:	8b 45 f0             	mov    -0x10(%rbp),%eax
    fc42:	89 c6                	mov    %eax,%esi
    fc44:	48 8d 3d d7 1a 00 00 	lea    0x1ad7(%rip),%rdi        # 11722 <g_2821+0x69a>
    fc4b:	b8 00 00 00 00       	mov    $0x0,%eax
    fc50:	e8 2b 74 ff ff       	callq  7080 <printf@plt>
    fc55:	83 45 f8 01          	addl   $0x1,-0x8(%rbp)
    fc59:	83 7d f8 02          	cmpl   $0x2,-0x8(%rbp)
    fc5d:	0f 8e 76 ff ff ff    	jle    fbd9 <main+0x718>
    fc63:	83 45 f4 01          	addl   $0x1,-0xc(%rbp)
    fc67:	83 7d f4 06          	cmpl   $0x6,-0xc(%rbp)
    fc6b:	0f 8e 5c ff ff ff    	jle    fbcd <main+0x70c>
    fc71:	83 45 f0 01          	addl   $0x1,-0x10(%rbp)
    fc75:	83 7d f0 09          	cmpl   $0x9,-0x10(%rbp)
    fc79:	0f 8e 42 ff ff ff    	jle    fbc1 <main+0x700>
    fc7f:	c7 45 f0 00 00 00 00 	movl   $0x0,-0x10(%rbp)
    fc86:	eb 4b                	jmp    fcd3 <main+0x812>
    fc88:	8b 45 f0             	mov    -0x10(%rbp),%eax
    fc8b:	48 98                	cltq   
    fc8d:	48 8d 14 85 00 00 00 	lea    0x0(,%rax,4),%rdx
    fc94:	00 
    fc95:	48 8d 05 c4 13 00 00 	lea    0x13c4(%rip),%rax        # 11060 <g_1235>
    fc9c:	8b 04 02             	mov    (%rdx,%rax,1),%eax
    fc9f:	48 98                	cltq   
    fca1:	8b 55 fc             	mov    -0x4(%rbp),%edx
    fca4:	48 8d 35 f0 1a 00 00 	lea    0x1af0(%rip),%rsi        # 1179b <g_2821+0x713>
    fcab:	48 89 c7             	mov    %rax,%rdi
    fcae:	e8 40 8a ff ff       	callq  86f3 <transparent_crc>
    fcb3:	83 7d fc 00          	cmpl   $0x0,-0x4(%rbp)
    fcb7:	74 16                	je     fccf <main+0x80e>
    fcb9:	8b 45 f0             	mov    -0x10(%rbp),%eax
    fcbc:	89 c6                	mov    %eax,%esi
    fcbe:	48 8d 3d 91 19 00 00 	lea    0x1991(%rip),%rdi        # 11656 <g_2821+0x5ce>
    fcc5:	b8 00 00 00 00       	mov    $0x0,%eax
    fcca:	e8 b1 73 ff ff       	callq  7080 <printf@plt>
    fccf:	83 45 f0 01          	addl   $0x1,-0x10(%rbp)
    fcd3:	83 7d f0 08          	cmpl   $0x8,-0x10(%rbp)
    fcd7:	7e af                	jle    fc88 <main+0x7c7>
    fcd9:	c7 45 f0 00 00 00 00 	movl   $0x0,-0x10(%rbp)
    fce0:	eb 4a                	jmp    fd2c <main+0x86b>
    fce2:	8b 45 f0             	mov    -0x10(%rbp),%eax
    fce5:	48 98                	cltq   
    fce7:	48 8d 14 00          	lea    (%rax,%rax,1),%rdx
    fceb:	48 8d 05 9e 59 00 00 	lea    0x599e(%rip),%rax        # 15690 <g_1355>
    fcf2:	0f b7 04 02          	movzwl (%rdx,%rax,1),%eax
    fcf6:	48 0f bf c0          	movswq %ax,%rax
    fcfa:	8b 55 fc             	mov    -0x4(%rbp),%edx
    fcfd:	48 8d 35 a1 1a 00 00 	lea    0x1aa1(%rip),%rsi        # 117a5 <g_2821+0x71d>
    fd04:	48 89 c7             	mov    %rax,%rdi
    fd07:	e8 e7 89 ff ff       	callq  86f3 <transparent_crc>
    fd0c:	83 7d fc 00          	cmpl   $0x0,-0x4(%rbp)
    fd10:	74 16                	je     fd28 <main+0x867>
    fd12:	8b 45 f0             	mov    -0x10(%rbp),%eax
    fd15:	89 c6                	mov    %eax,%esi
    fd17:	48 8d 3d 38 19 00 00 	lea    0x1938(%rip),%rdi        # 11656 <g_2821+0x5ce>
    fd1e:	b8 00 00 00 00       	mov    $0x0,%eax
    fd23:	e8 58 73 ff ff       	callq  7080 <printf@plt>
    fd28:	83 45 f0 01          	addl   $0x1,-0x10(%rbp)
    fd2c:	83 7d f0 08          	cmpl   $0x8,-0x10(%rbp)
    fd30:	7e b0                	jle    fce2 <main+0x821>
    fd32:	8b 05 6c 59 00 00    	mov    0x596c(%rip),%eax        # 156a4 <g_1525>
    fd38:	48 98                	cltq   
    fd3a:	8b 55 fc             	mov    -0x4(%rbp),%edx
    fd3d:	48 8d 35 6b 1a 00 00 	lea    0x1a6b(%rip),%rsi        # 117af <g_2821+0x727>
    fd44:	48 89 c7             	mov    %rax,%rdi
    fd47:	e8 a7 89 ff ff       	callq  86f3 <transparent_crc>
    fd4c:	0f b7 05 55 59 00 00 	movzwl 0x5955(%rip),%eax        # 156a8 <g_1554>
    fd53:	0f b7 c0             	movzwl %ax,%eax
    fd56:	8b 55 fc             	mov    -0x4(%rbp),%edx
    fd59:	48 8d 35 56 1a 00 00 	lea    0x1a56(%rip),%rsi        # 117b6 <g_2821+0x72e>
    fd60:	48 89 c7             	mov    %rax,%rdi
    fd63:	e8 8b 89 ff ff       	callq  86f3 <transparent_crc>
    fd68:	c7 45 f0 00 00 00 00 	movl   $0x0,-0x10(%rbp)
    fd6f:	eb 4b                	jmp    fdbc <main+0x8fb>
    fd71:	8b 45 f0             	mov    -0x10(%rbp),%eax
    fd74:	48 98                	cltq   
    fd76:	48 8d 14 85 00 00 00 	lea    0x0(,%rax,4),%rdx
    fd7d:	00 
    fd7e:	48 8d 05 3b 59 00 00 	lea    0x593b(%rip),%rax        # 156c0 <g_1589>
    fd85:	8b 04 02             	mov    (%rdx,%rax,1),%eax
    fd88:	48 98                	cltq   
    fd8a:	8b 55 fc             	mov    -0x4(%rbp),%edx
    fd8d:	48 8d 35 2c 1a 00 00 	lea    0x1a2c(%rip),%rsi        # 117c0 <g_2821+0x738>
    fd94:	48 89 c7             	mov    %rax,%rdi
    fd97:	e8 57 89 ff ff       	callq  86f3 <transparent_crc>
    fd9c:	83 7d fc 00          	cmpl   $0x0,-0x4(%rbp)
    fda0:	74 16                	je     fdb8 <main+0x8f7>
    fda2:	8b 45 f0             	mov    -0x10(%rbp),%eax
    fda5:	89 c6                	mov    %eax,%esi
    fda7:	48 8d 3d a8 18 00 00 	lea    0x18a8(%rip),%rdi        # 11656 <g_2821+0x5ce>
    fdae:	b8 00 00 00 00       	mov    $0x0,%eax
    fdb3:	e8 c8 72 ff ff       	callq  7080 <printf@plt>
    fdb8:	83 45 f0 01          	addl   $0x1,-0x10(%rbp)
    fdbc:	83 7d f0 09          	cmpl   $0x9,-0x10(%rbp)
    fdc0:	7e af                	jle    fd71 <main+0x8b0>
    fdc2:	0f b7 05 1f 59 00 00 	movzwl 0x591f(%rip),%eax        # 156e8 <g_1606>
    fdc9:	48 0f bf c0          	movswq %ax,%rax
    fdcd:	8b 55 fc             	mov    -0x4(%rbp),%edx
    fdd0:	48 8d 35 f3 19 00 00 	lea    0x19f3(%rip),%rsi        # 117ca <g_2821+0x742>
    fdd7:	48 89 c7             	mov    %rax,%rdi
    fdda:	e8 14 89 ff ff       	callq  86f3 <transparent_crc>
    fddf:	0f b7 05 04 59 00 00 	movzwl 0x5904(%rip),%eax        # 156ea <g_1624>
    fde6:	0f b7 c0             	movzwl %ax,%eax
    fde9:	8b 55 fc             	mov    -0x4(%rbp),%edx
    fdec:	48 8d 35 de 19 00 00 	lea    0x19de(%rip),%rsi        # 117d1 <g_2821+0x749>
    fdf3:	48 89 c7             	mov    %rax,%rdi
    fdf6:	e8 f8 88 ff ff       	callq  86f3 <transparent_crc>
    fdfb:	0f b7 05 ea 58 00 00 	movzwl 0x58ea(%rip),%eax        # 156ec <g_1670>
    fe02:	48 0f bf c0          	movswq %ax,%rax
    fe06:	8b 55 fc             	mov    -0x4(%rbp),%edx
    fe09:	48 8d 35 c8 19 00 00 	lea    0x19c8(%rip),%rsi        # 117d8 <g_2821+0x750>
    fe10:	48 89 c7             	mov    %rax,%rdi
    fe13:	e8 db 88 ff ff       	callq  86f3 <transparent_crc>
    fe18:	0f b7 05 cf 58 00 00 	movzwl 0x58cf(%rip),%eax        # 156ee <g_1694>
    fe1f:	48 0f bf c0          	movswq %ax,%rax
    fe23:	8b 55 fc             	mov    -0x4(%rbp),%edx
    fe26:	48 8d 35 b2 19 00 00 	lea    0x19b2(%rip),%rsi        # 117df <g_2821+0x757>
    fe2d:	48 89 c7             	mov    %rax,%rdi
    fe30:	e8 be 88 ff ff       	callq  86f3 <transparent_crc>
    fe35:	8b 05 b5 58 00 00    	mov    0x58b5(%rip),%eax        # 156f0 <g_1752>
    fe3b:	89 c1                	mov    %eax,%ecx
    fe3d:	8b 45 fc             	mov    -0x4(%rbp),%eax
    fe40:	89 c2                	mov    %eax,%edx
    fe42:	48 8d 35 9d 19 00 00 	lea    0x199d(%rip),%rsi        # 117e6 <g_2821+0x75e>
    fe49:	48 89 cf             	mov    %rcx,%rdi
    fe4c:	e8 a2 88 ff ff       	callq  86f3 <transparent_crc>
    fe51:	c7 45 f0 00 00 00 00 	movl   $0x0,-0x10(%rbp)
    fe58:	eb 4b                	jmp    fea5 <main+0x9e4>
    fe5a:	8b 45 f0             	mov    -0x10(%rbp),%eax
    fe5d:	48 98                	cltq   
    fe5f:	48 8d 14 85 00 00 00 	lea    0x0(,%rax,4),%rdx
    fe66:	00 
    fe67:	48 8d 05 92 8c 00 00 	lea    0x8c92(%rip),%rax        # 18b00 <g_1844>
    fe6e:	8b 04 02             	mov    (%rdx,%rax,1),%eax
    fe71:	48 98                	cltq   
    fe73:	8b 55 fc             	mov    -0x4(%rbp),%edx
    fe76:	48 8d 35 70 19 00 00 	lea    0x1970(%rip),%rsi        # 117ed <g_2821+0x765>
    fe7d:	48 89 c7             	mov    %rax,%rdi
    fe80:	e8 6e 88 ff ff       	callq  86f3 <transparent_crc>
    fe85:	83 7d fc 00          	cmpl   $0x0,-0x4(%rbp)
    fe89:	74 16                	je     fea1 <main+0x9e0>
    fe8b:	8b 45 f0             	mov    -0x10(%rbp),%eax
    fe8e:	89 c6                	mov    %eax,%esi
    fe90:	48 8d 3d bf 17 00 00 	lea    0x17bf(%rip),%rdi        # 11656 <g_2821+0x5ce>
    fe97:	b8 00 00 00 00       	mov    $0x0,%eax
    fe9c:	e8 df 71 ff ff       	callq  7080 <printf@plt>
    fea1:	83 45 f0 01          	addl   $0x1,-0x10(%rbp)
    fea5:	83 7d f0 01          	cmpl   $0x1,-0x10(%rbp)
    fea9:	7e af                	jle    fe5a <main+0x999>
    feab:	0f b6 05 42 58 00 00 	movzbl 0x5842(%rip),%eax        # 156f4 <g_1948>
    feb2:	0f b6 c0             	movzbl %al,%eax
    feb5:	8b 55 fc             	mov    -0x4(%rbp),%edx
    feb8:	48 8d 35 38 19 00 00 	lea    0x1938(%rip),%rsi        # 117f7 <g_2821+0x76f>
    febf:	48 89 c7             	mov    %rax,%rdi
    fec2:	e8 2c 88 ff ff       	callq  86f3 <transparent_crc>
    fec7:	0f b7 05 28 58 00 00 	movzwl 0x5828(%rip),%eax        # 156f6 <g_1962>
    fece:	0f b7 c0             	movzwl %ax,%eax
    fed1:	8b 55 fc             	mov    -0x4(%rbp),%edx
    fed4:	48 8d 35 23 19 00 00 	lea    0x1923(%rip),%rsi        # 117fe <g_2821+0x776>
    fedb:	48 89 c7             	mov    %rax,%rdi
    fede:	e8 10 88 ff ff       	callq  86f3 <transparent_crc>
    fee3:	8b 05 0f 58 00 00    	mov    0x580f(%rip),%eax        # 156f8 <g_2331>
    fee9:	48 98                	cltq   
    feeb:	8b 55 fc             	mov    -0x4(%rbp),%edx
    feee:	48 8d 35 10 19 00 00 	lea    0x1910(%rip),%rsi        # 11805 <g_2821+0x77d>
    fef5:	48 89 c7             	mov    %rax,%rdi
    fef8:	e8 f6 87 ff ff       	callq  86f3 <transparent_crc>
    fefd:	48 8b 05 2c 8c 00 00 	mov    0x8c2c(%rip),%rax        # 18b30 <g_2495>
    ff04:	8b 55 fc             	mov    -0x4(%rbp),%edx
    ff07:	48 8d 35 fe 18 00 00 	lea    0x18fe(%rip),%rsi        # 1180c <g_2821+0x784>
    ff0e:	48 89 c7             	mov    %rax,%rdi
    ff11:	e8 dd 87 ff ff       	callq  86f3 <transparent_crc>
    ff16:	8b 05 e0 57 00 00    	mov    0x57e0(%rip),%eax        # 156fc <g_2538>
    ff1c:	89 c1                	mov    %eax,%ecx
    ff1e:	8b 45 fc             	mov    -0x4(%rbp),%eax
    ff21:	89 c2                	mov    %eax,%edx
    ff23:	48 8d 35 e9 18 00 00 	lea    0x18e9(%rip),%rsi        # 11813 <g_2821+0x78b>
    ff2a:	48 89 cf             	mov    %rcx,%rdi
    ff2d:	e8 c1 87 ff ff       	callq  86f3 <transparent_crc>
    ff32:	8b 05 c8 57 00 00    	mov    0x57c8(%rip),%eax        # 15700 <g_2541>
    ff38:	48 98                	cltq   
    ff3a:	8b 55 fc             	mov    -0x4(%rbp),%edx
    ff3d:	48 8d 35 d6 18 00 00 	lea    0x18d6(%rip),%rsi        # 1181a <g_2821+0x792>
    ff44:	48 89 c7             	mov    %rax,%rdi
    ff47:	e8 a7 87 ff ff       	callq  86f3 <transparent_crc>
    ff4c:	0f b7 05 b1 57 00 00 	movzwl 0x57b1(%rip),%eax        # 15704 <g_2551>
    ff53:	48 0f bf c0          	movswq %ax,%rax
    ff57:	8b 55 fc             	mov    -0x4(%rbp),%edx
    ff5a:	48 8d 35 c0 18 00 00 	lea    0x18c0(%rip),%rsi        # 11821 <g_2821+0x799>
    ff61:	48 89 c7             	mov    %rax,%rdi
    ff64:	e8 8a 87 ff ff       	callq  86f3 <transparent_crc>
    ff69:	8b 05 99 57 00 00    	mov    0x5799(%rip),%eax        # 15708 <g_2556>
    ff6f:	89 c1                	mov    %eax,%ecx
    ff71:	8b 45 fc             	mov    -0x4(%rbp),%eax
    ff74:	89 c2                	mov    %eax,%edx
    ff76:	48 8d 35 ab 18 00 00 	lea    0x18ab(%rip),%rsi        # 11828 <g_2821+0x7a0>
    ff7d:	48 89 cf             	mov    %rcx,%rdi
    ff80:	e8 6e 87 ff ff       	callq  86f3 <transparent_crc>
    ff85:	0f b7 05 80 57 00 00 	movzwl 0x5780(%rip),%eax        # 1570c <g_2563>
    ff8c:	0f b7 c0             	movzwl %ax,%eax
    ff8f:	8b 55 fc             	mov    -0x4(%rbp),%edx
    ff92:	48 8d 35 96 18 00 00 	lea    0x1896(%rip),%rsi        # 1182f <g_2821+0x7a7>
    ff99:	48 89 c7             	mov    %rax,%rdi
    ff9c:	e8 52 87 ff ff       	callq  86f3 <transparent_crc>
    ffa1:	b8 8e 27 75 2a       	mov    $0x2a75278e,%eax
    ffa6:	89 c1                	mov    %eax,%ecx
    ffa8:	8b 45 fc             	mov    -0x4(%rbp),%eax
    ffab:	89 c2                	mov    %eax,%edx
    ffad:	48 8d 35 82 18 00 00 	lea    0x1882(%rip),%rsi        # 11836 <g_2821+0x7ae>
    ffb4:	48 89 cf             	mov    %rcx,%rdi
    ffb7:	e8 37 87 ff ff       	callq  86f3 <transparent_crc>
    ffbc:	8b 05 4e 57 00 00    	mov    0x574e(%rip),%eax        # 15710 <g_2615>
    ffc2:	48 98                	cltq   
    ffc4:	8b 55 fc             	mov    -0x4(%rbp),%edx
    ffc7:	48 8d 35 6f 18 00 00 	lea    0x186f(%rip),%rsi        # 1183d <g_2821+0x7b5>
    ffce:	48 89 c7             	mov    %rax,%rdi
    ffd1:	e8 1d 87 ff ff       	callq  86f3 <transparent_crc>
    ffd6:	8b 05 34 57 00 00    	mov    0x5734(%rip),%eax        # 15710 <g_2615>
    ffdc:	89 c1                	mov    %eax,%ecx
    ffde:	8b 45 fc             	mov    -0x4(%rbp),%eax
    ffe1:	89 c2                	mov    %eax,%edx
    ffe3:	48 8d 35 5d 18 00 00 	lea    0x185d(%rip),%rsi        # 11847 <g_2821+0x7bf>
    ffea:	48 89 cf             	mov    %rcx,%rdi
    ffed:	e8 01 87 ff ff       	callq  86f3 <transparent_crc>
    fff2:	0f b7 05 17 57 00 00 	movzwl 0x5717(%rip),%eax        # 15710 <g_2615>
    fff9:	48 0f bf c0          	movswq %ax,%rax
    fffd:	8b 55 fc             	mov    -0x4(%rbp),%edx
   10000:	48 8d 35 4a 18 00 00 	lea    0x184a(%rip),%rsi        # 11851 <g_2821+0x7c9>
   10007:	48 89 c7             	mov    %rax,%rdi
   1000a:	e8 e4 86 ff ff       	callq  86f3 <transparent_crc>
   1000f:	0f b7 05 fa 56 00 00 	movzwl 0x56fa(%rip),%eax        # 15710 <g_2615>
   10016:	0f b7 c0             	movzwl %ax,%eax
   10019:	8b 55 fc             	mov    -0x4(%rbp),%edx
   1001c:	48 8d 35 38 18 00 00 	lea    0x1838(%rip),%rsi        # 1185b <g_2821+0x7d3>
   10023:	48 89 c7             	mov    %rax,%rdi
   10026:	e8 c8 86 ff ff       	callq  86f3 <transparent_crc>
   1002b:	0f b7 05 e2 56 00 00 	movzwl 0x56e2(%rip),%eax        # 15714 <g_2659>
   10032:	0f b7 c0             	movzwl %ax,%eax
   10035:	8b 55 fc             	mov    -0x4(%rbp),%edx
   10038:	48 8d 35 26 18 00 00 	lea    0x1826(%rip),%rsi        # 11865 <g_2821+0x7dd>
   1003f:	48 89 c7             	mov    %rax,%rdi
   10042:	e8 ac 86 ff ff       	callq  86f3 <transparent_crc>
   10047:	c7 45 f0 00 00 00 00 	movl   $0x0,-0x10(%rbp)
   1004e:	e9 d3 00 00 00       	jmpq   10126 <main+0xc65>
   10053:	8b 45 f0             	mov    -0x10(%rbp),%eax
   10056:	48 98                	cltq   
   10058:	48 8d 14 85 00 00 00 	lea    0x0(,%rax,4),%rdx
   1005f:	00 
   10060:	48 8d 05 b9 56 00 00 	lea    0x56b9(%rip),%rax        # 15720 <g_2673>
   10067:	8b 04 02             	mov    (%rdx,%rax,1),%eax
   1006a:	48 98                	cltq   
   1006c:	8b 55 fc             	mov    -0x4(%rbp),%edx
   1006f:	48 8d 35 f6 17 00 00 	lea    0x17f6(%rip),%rsi        # 1186c <g_2821+0x7e4>
   10076:	48 89 c7             	mov    %rax,%rdi
   10079:	e8 75 86 ff ff       	callq  86f3 <transparent_crc>
   1007e:	8b 45 f0             	mov    -0x10(%rbp),%eax
   10081:	48 98                	cltq   
   10083:	48 8d 14 85 00 00 00 	lea    0x0(,%rax,4),%rdx
   1008a:	00 
   1008b:	48 8d 05 8e 56 00 00 	lea    0x568e(%rip),%rax        # 15720 <g_2673>
   10092:	8b 04 02             	mov    (%rdx,%rax,1),%eax
   10095:	89 c1                	mov    %eax,%ecx
   10097:	8b 45 fc             	mov    -0x4(%rbp),%eax
   1009a:	89 c2                	mov    %eax,%edx
   1009c:	48 8d 35 d6 17 00 00 	lea    0x17d6(%rip),%rsi        # 11879 <g_2821+0x7f1>
   100a3:	48 89 cf             	mov    %rcx,%rdi
   100a6:	e8 48 86 ff ff       	callq  86f3 <transparent_crc>
   100ab:	8b 45 f0             	mov    -0x10(%rbp),%eax
   100ae:	48 98                	cltq   
   100b0:	48 8d 14 85 00 00 00 	lea    0x0(,%rax,4),%rdx
   100b7:	00 
   100b8:	48 8d 05 61 56 00 00 	lea    0x5661(%rip),%rax        # 15720 <g_2673>
   100bf:	0f b7 04 02          	movzwl (%rdx,%rax,1),%eax
   100c3:	48 0f bf c0          	movswq %ax,%rax
   100c7:	8b 55 fc             	mov    -0x4(%rbp),%edx
   100ca:	48 8d 35 b5 17 00 00 	lea    0x17b5(%rip),%rsi        # 11886 <g_2821+0x7fe>
   100d1:	48 89 c7             	mov    %rax,%rdi
   100d4:	e8 1a 86 ff ff       	callq  86f3 <transparent_crc>
   100d9:	8b 45 f0             	mov    -0x10(%rbp),%eax
   100dc:	48 98                	cltq   
   100de:	48 8d 14 85 00 00 00 	lea    0x0(,%rax,4),%rdx
   100e5:	00 
   100e6:	48 8d 05 33 56 00 00 	lea    0x5633(%rip),%rax        # 15720 <g_2673>
   100ed:	0f b7 04 02          	movzwl (%rdx,%rax,1),%eax
   100f1:	0f b7 c0             	movzwl %ax,%eax
   100f4:	8b 55 fc             	mov    -0x4(%rbp),%edx
   100f7:	48 8d 35 95 17 00 00 	lea    0x1795(%rip),%rsi        # 11893 <g_2821+0x80b>
   100fe:	48 89 c7             	mov    %rax,%rdi
   10101:	e8 ed 85 ff ff       	callq  86f3 <transparent_crc>
   10106:	83 7d fc 00          	cmpl   $0x0,-0x4(%rbp)
   1010a:	74 16                	je     10122 <main+0xc61>
   1010c:	8b 45 f0             	mov    -0x10(%rbp),%eax
   1010f:	89 c6                	mov    %eax,%esi
   10111:	48 8d 3d 3e 15 00 00 	lea    0x153e(%rip),%rdi        # 11656 <g_2821+0x5ce>
   10118:	b8 00 00 00 00       	mov    $0x0,%eax
   1011d:	e8 5e 6f ff ff       	callq  7080 <printf@plt>
   10122:	83 45 f0 01          	addl   $0x1,-0x10(%rbp)
   10126:	83 7d f0 07          	cmpl   $0x7,-0x10(%rbp)
   1012a:	0f 8e 23 ff ff ff    	jle    10053 <main+0xb92>
   10130:	c7 45 f0 00 00 00 00 	movl   $0x0,-0x10(%rbp)
   10137:	e9 d3 00 00 00       	jmpq   1020f <main+0xd4e>
   1013c:	8b 45 f0             	mov    -0x10(%rbp),%eax
   1013f:	48 98                	cltq   
   10141:	48 8d 14 85 00 00 00 	lea    0x0(,%rax,4),%rdx
   10148:	00 
   10149:	48 8d 05 f0 55 00 00 	lea    0x55f0(%rip),%rax        # 15740 <g_2674>
   10150:	8b 04 02             	mov    (%rdx,%rax,1),%eax
   10153:	48 98                	cltq   
   10155:	8b 55 fc             	mov    -0x4(%rbp),%edx
   10158:	48 8d 35 41 17 00 00 	lea    0x1741(%rip),%rsi        # 118a0 <g_2821+0x818>
   1015f:	48 89 c7             	mov    %rax,%rdi
   10162:	e8 8c 85 ff ff       	callq  86f3 <transparent_crc>
   10167:	8b 45 f0             	mov    -0x10(%rbp),%eax
   1016a:	48 98                	cltq   
   1016c:	48 8d 14 85 00 00 00 	lea    0x0(,%rax,4),%rdx
   10173:	00 
   10174:	48 8d 05 c5 55 00 00 	lea    0x55c5(%rip),%rax        # 15740 <g_2674>
   1017b:	8b 04 02             	mov    (%rdx,%rax,1),%eax
   1017e:	89 c1                	mov    %eax,%ecx
   10180:	8b 45 fc             	mov    -0x4(%rbp),%eax
   10183:	89 c2                	mov    %eax,%edx
   10185:	48 8d 35 21 17 00 00 	lea    0x1721(%rip),%rsi        # 118ad <g_2821+0x825>
   1018c:	48 89 cf             	mov    %rcx,%rdi
   1018f:	e8 5f 85 ff ff       	callq  86f3 <transparent_crc>
   10194:	8b 45 f0             	mov    -0x10(%rbp),%eax
   10197:	48 98                	cltq   
   10199:	48 8d 14 85 00 00 00 	lea    0x0(,%rax,4),%rdx
   101a0:	00 
   101a1:	48 8d 05 98 55 00 00 	lea    0x5598(%rip),%rax        # 15740 <g_2674>
   101a8:	0f b7 04 02          	movzwl (%rdx,%rax,1),%eax
   101ac:	48 0f bf c0          	movswq %ax,%rax
   101b0:	8b 55 fc             	mov    -0x4(%rbp),%edx
   101b3:	48 8d 35 00 17 00 00 	lea    0x1700(%rip),%rsi        # 118ba <g_2821+0x832>
   101ba:	48 89 c7             	mov    %rax,%rdi
   101bd:	e8 31 85 ff ff       	callq  86f3 <transparent_crc>
   101c2:	8b 45 f0             	mov    -0x10(%rbp),%eax
   101c5:	48 98                	cltq   
   101c7:	48 8d 14 85 00 00 00 	lea    0x0(,%rax,4),%rdx
   101ce:	00 
   101cf:	48 8d 05 6a 55 00 00 	lea    0x556a(%rip),%rax        # 15740 <g_2674>
   101d6:	0f b7 04 02          	movzwl (%rdx,%rax,1),%eax
   101da:	0f b7 c0             	movzwl %ax,%eax
   101dd:	8b 55 fc             	mov    -0x4(%rbp),%edx
   101e0:	48 8d 35 e0 16 00 00 	lea    0x16e0(%rip),%rsi        # 118c7 <g_2821+0x83f>
   101e7:	48 89 c7             	mov    %rax,%rdi
   101ea:	e8 04 85 ff ff       	callq  86f3 <transparent_crc>
   101ef:	83 7d fc 00          	cmpl   $0x0,-0x4(%rbp)
   101f3:	74 16                	je     1020b <main+0xd4a>
   101f5:	8b 45 f0             	mov    -0x10(%rbp),%eax
   101f8:	89 c6                	mov    %eax,%esi
   101fa:	48 8d 3d 55 14 00 00 	lea    0x1455(%rip),%rdi        # 11656 <g_2821+0x5ce>
   10201:	b8 00 00 00 00       	mov    $0x0,%eax
   10206:	e8 75 6e ff ff       	callq  7080 <printf@plt>
   1020b:	83 45 f0 01          	addl   $0x1,-0x10(%rbp)
   1020f:	83 7d f0 09          	cmpl   $0x9,-0x10(%rbp)
   10213:	0f 8e 23 ff ff ff    	jle    1013c <main+0xc7b>
   10219:	8b 05 49 55 00 00    	mov    0x5549(%rip),%eax        # 15768 <g_2675>
   1021f:	48 98                	cltq   
   10221:	8b 55 fc             	mov    -0x4(%rbp),%edx
   10224:	48 8d 35 a9 16 00 00 	lea    0x16a9(%rip),%rsi        # 118d4 <g_2821+0x84c>
   1022b:	48 89 c7             	mov    %rax,%rdi
   1022e:	e8 c0 84 ff ff       	callq  86f3 <transparent_crc>
   10233:	8b 05 2f 55 00 00    	mov    0x552f(%rip),%eax        # 15768 <g_2675>
   10239:	89 c1                	mov    %eax,%ecx
   1023b:	8b 45 fc             	mov    -0x4(%rbp),%eax
   1023e:	89 c2                	mov    %eax,%edx
   10240:	48 8d 35 97 16 00 00 	lea    0x1697(%rip),%rsi        # 118de <g_2821+0x856>
   10247:	48 89 cf             	mov    %rcx,%rdi
   1024a:	e8 a4 84 ff ff       	callq  86f3 <transparent_crc>
   1024f:	0f b7 05 12 55 00 00 	movzwl 0x5512(%rip),%eax        # 15768 <g_2675>
   10256:	48 0f bf c0          	movswq %ax,%rax
   1025a:	8b 55 fc             	mov    -0x4(%rbp),%edx
   1025d:	48 8d 35 84 16 00 00 	lea    0x1684(%rip),%rsi        # 118e8 <g_2821+0x860>
   10264:	48 89 c7             	mov    %rax,%rdi
   10267:	e8 87 84 ff ff       	callq  86f3 <transparent_crc>
   1026c:	0f b7 05 f5 54 00 00 	movzwl 0x54f5(%rip),%eax        # 15768 <g_2675>
   10273:	0f b7 c0             	movzwl %ax,%eax
   10276:	8b 55 fc             	mov    -0x4(%rbp),%edx
   10279:	48 8d 35 72 16 00 00 	lea    0x1672(%rip),%rsi        # 118f2 <g_2821+0x86a>
   10280:	48 89 c7             	mov    %rax,%rdi
   10283:	e8 6b 84 ff ff       	callq  86f3 <transparent_crc>
   10288:	8b 05 da 88 00 00    	mov    0x88da(%rip),%eax        # 18b68 <g_2676>
   1028e:	48 98                	cltq   
   10290:	8b 55 fc             	mov    -0x4(%rbp),%edx
   10293:	48 8d 35 62 16 00 00 	lea    0x1662(%rip),%rsi        # 118fc <g_2821+0x874>
   1029a:	48 89 c7             	mov    %rax,%rdi
   1029d:	e8 51 84 ff ff       	callq  86f3 <transparent_crc>
   102a2:	8b 05 c0 88 00 00    	mov    0x88c0(%rip),%eax        # 18b68 <g_2676>
   102a8:	89 c1                	mov    %eax,%ecx
   102aa:	8b 45 fc             	mov    -0x4(%rbp),%eax
   102ad:	89 c2                	mov    %eax,%edx
   102af:	48 8d 35 50 16 00 00 	lea    0x1650(%rip),%rsi        # 11906 <g_2821+0x87e>
   102b6:	48 89 cf             	mov    %rcx,%rdi
   102b9:	e8 35 84 ff ff       	callq  86f3 <transparent_crc>
   102be:	0f b7 05 a3 88 00 00 	movzwl 0x88a3(%rip),%eax        # 18b68 <g_2676>
   102c5:	48 0f bf c0          	movswq %ax,%rax
   102c9:	8b 55 fc             	mov    -0x4(%rbp),%edx
   102cc:	48 8d 35 3d 16 00 00 	lea    0x163d(%rip),%rsi        # 11910 <g_2821+0x888>
   102d3:	48 89 c7             	mov    %rax,%rdi
   102d6:	e8 18 84 ff ff       	callq  86f3 <transparent_crc>
   102db:	0f b7 05 86 88 00 00 	movzwl 0x8886(%rip),%eax        # 18b68 <g_2676>
   102e2:	0f b7 c0             	movzwl %ax,%eax
   102e5:	8b 55 fc             	mov    -0x4(%rbp),%edx
   102e8:	48 8d 35 2b 16 00 00 	lea    0x162b(%rip),%rsi        # 1191a <g_2821+0x892>
   102ef:	48 89 c7             	mov    %rax,%rdi
   102f2:	e8 fc 83 ff ff       	callq  86f3 <transparent_crc>
   102f7:	8b 05 6f 54 00 00    	mov    0x546f(%rip),%eax        # 1576c <g_2677>
   102fd:	48 98                	cltq   
   102ff:	8b 55 fc             	mov    -0x4(%rbp),%edx
   10302:	48 8d 35 1b 16 00 00 	lea    0x161b(%rip),%rsi        # 11924 <g_2821+0x89c>
   10309:	48 89 c7             	mov    %rax,%rdi
   1030c:	e8 e2 83 ff ff       	callq  86f3 <transparent_crc>
   10311:	8b 05 55 54 00 00    	mov    0x5455(%rip),%eax        # 1576c <g_2677>
   10317:	89 c1                	mov    %eax,%ecx
   10319:	8b 45 fc             	mov    -0x4(%rbp),%eax
   1031c:	89 c2                	mov    %eax,%edx
   1031e:	48 8d 35 09 16 00 00 	lea    0x1609(%rip),%rsi        # 1192e <g_2821+0x8a6>
   10325:	48 89 cf             	mov    %rcx,%rdi
   10328:	e8 c6 83 ff ff       	callq  86f3 <transparent_crc>
   1032d:	0f b7 05 38 54 00 00 	movzwl 0x5438(%rip),%eax        # 1576c <g_2677>
   10334:	48 0f bf c0          	movswq %ax,%rax
   10338:	8b 55 fc             	mov    -0x4(%rbp),%edx
   1033b:	48 8d 35 f6 15 00 00 	lea    0x15f6(%rip),%rsi        # 11938 <g_2821+0x8b0>
   10342:	48 89 c7             	mov    %rax,%rdi
   10345:	e8 a9 83 ff ff       	callq  86f3 <transparent_crc>
   1034a:	0f b7 05 1b 54 00 00 	movzwl 0x541b(%rip),%eax        # 1576c <g_2677>
   10351:	0f b7 c0             	movzwl %ax,%eax
   10354:	8b 55 fc             	mov    -0x4(%rbp),%edx
   10357:	48 8d 35 e4 15 00 00 	lea    0x15e4(%rip),%rsi        # 11942 <g_2821+0x8ba>
   1035e:	48 89 c7             	mov    %rax,%rdi
   10361:	e8 8d 83 ff ff       	callq  86f3 <transparent_crc>
   10366:	0f b7 05 03 54 00 00 	movzwl 0x5403(%rip),%eax        # 15770 <g_2744>
   1036d:	48 0f bf c0          	movswq %ax,%rax
   10371:	8b 55 fc             	mov    -0x4(%rbp),%edx
   10374:	48 8d 35 d1 15 00 00 	lea    0x15d1(%rip),%rsi        # 1194c <g_2821+0x8c4>
   1037b:	48 89 c7             	mov    %rax,%rdi
   1037e:	e8 70 83 ff ff       	callq  86f3 <transparent_crc>
   10383:	48 8b 05 ee 53 00 00 	mov    0x53ee(%rip),%rax        # 15778 <g_2749>
   1038a:	8b 55 fc             	mov    -0x4(%rbp),%edx
   1038d:	48 8d 35 bf 15 00 00 	lea    0x15bf(%rip),%rsi        # 11953 <g_2821+0x8cb>
   10394:	48 89 c7             	mov    %rax,%rdi
   10397:	e8 57 83 ff ff       	callq  86f3 <transparent_crc>
   1039c:	b9 08 00 00 00       	mov    $0x8,%ecx
   103a1:	8b 45 fc             	mov    -0x4(%rbp),%eax
   103a4:	89 c2                	mov    %eax,%edx
   103a6:	48 8d 35 ad 15 00 00 	lea    0x15ad(%rip),%rsi        # 1195a <g_2821+0x8d2>
   103ad:	48 89 cf             	mov    %rcx,%rdi
   103b0:	e8 3e 83 ff ff       	callq  86f3 <transparent_crc>
   103b5:	c7 45 f0 00 00 00 00 	movl   $0x0,-0x10(%rbp)
   103bc:	e9 a1 00 00 00       	jmpq   10462 <main+0xfa1>
   103c1:	c7 45 f4 00 00 00 00 	movl   $0x0,-0xc(%rbp)
   103c8:	e9 87 00 00 00       	jmpq   10454 <main+0xf93>
   103cd:	c7 45 f8 00 00 00 00 	movl   $0x0,-0x8(%rbp)
   103d4:	eb 74                	jmp    1044a <main+0xf89>
   103d6:	8b 45 f8             	mov    -0x8(%rbp),%eax
   103d9:	48 63 c8             	movslq %eax,%rcx
   103dc:	8b 45 f0             	mov    -0x10(%rbp),%eax
   103df:	48 63 d0             	movslq %eax,%rdx
   103e2:	8b 45 f4             	mov    -0xc(%rbp),%eax
   103e5:	48 63 f0             	movslq %eax,%rsi
   103e8:	48 89 d0             	mov    %rdx,%rax
   103eb:	48 c1 e0 03          	shl    $0x3,%rax
   103ef:	48 29 d0             	sub    %rdx,%rax
   103f2:	48 01 f0             	add    %rsi,%rax
   103f5:	48 c1 e0 02          	shl    $0x2,%rax
   103f9:	48 01 c8             	add    %rcx,%rax
   103fc:	48 8d 14 85 00 00 00 	lea    0x0(,%rax,4),%rdx
   10403:	00 
   10404:	48 8d 05 75 53 00 00 	lea    0x5375(%rip),%rax        # 15780 <g_2833>
   1040b:	8b 04 02             	mov    (%rdx,%rax,1),%eax
   1040e:	89 c1                	mov    %eax,%ecx
   10410:	8b 45 fc             	mov    -0x4(%rbp),%eax
   10413:	89 c2                	mov    %eax,%edx
   10415:	48 8d 35 45 15 00 00 	lea    0x1545(%rip),%rsi        # 11961 <g_2821+0x8d9>
   1041c:	48 89 cf             	mov    %rcx,%rdi
   1041f:	e8 cf 82 ff ff       	callq  86f3 <transparent_crc>
   10424:	83 7d fc 00          	cmpl   $0x0,-0x4(%rbp)
   10428:	74 1c                	je     10446 <main+0xf85>
   1042a:	8b 4d f8             	mov    -0x8(%rbp),%ecx
   1042d:	8b 55 f4             	mov    -0xc(%rbp),%edx
   10430:	8b 45 f0             	mov    -0x10(%rbp),%eax
   10433:	89 c6                	mov    %eax,%esi
   10435:	48 8d 3d e6 12 00 00 	lea    0x12e6(%rip),%rdi        # 11722 <g_2821+0x69a>
   1043c:	b8 00 00 00 00       	mov    $0x0,%eax
   10441:	e8 3a 6c ff ff       	callq  7080 <printf@plt>
   10446:	83 45 f8 01          	addl   $0x1,-0x8(%rbp)
   1044a:	83 7d f8 03          	cmpl   $0x3,-0x8(%rbp)
   1044e:	7e 86                	jle    103d6 <main+0xf15>
   10450:	83 45 f4 01          	addl   $0x1,-0xc(%rbp)
   10454:	83 7d f4 06          	cmpl   $0x6,-0xc(%rbp)
   10458:	0f 8e 6f ff ff ff    	jle    103cd <main+0xf0c>
   1045e:	83 45 f0 01          	addl   $0x1,-0x10(%rbp)
   10462:	83 7d f0 04          	cmpl   $0x4,-0x10(%rbp)
   10466:	0f 8e 55 ff ff ff    	jle    103c1 <main+0xf00>
   1046c:	8b 05 3e 55 00 00    	mov    0x553e(%rip),%eax        # 159b0 <g_2956>
   10472:	48 98                	cltq   
   10474:	8b 55 fc             	mov    -0x4(%rbp),%edx
   10477:	48 8d 35 f3 14 00 00 	lea    0x14f3(%rip),%rsi        # 11971 <g_2821+0x8e9>
   1047e:	48 89 c7             	mov    %rax,%rdi
   10481:	e8 6d 82 ff ff       	callq  86f3 <transparent_crc>
   10486:	8b 05 28 55 00 00    	mov    0x5528(%rip),%eax        # 159b4 <g_3009>
   1048c:	48 98                	cltq   
   1048e:	8b 55 fc             	mov    -0x4(%rbp),%edx
   10491:	48 8d 35 e0 14 00 00 	lea    0x14e0(%rip),%rsi        # 11978 <g_2821+0x8f0>
   10498:	48 89 c7             	mov    %rax,%rdi
   1049b:	e8 53 82 ff ff       	callq  86f3 <transparent_crc>
   104a0:	8b 05 0e 55 00 00    	mov    0x550e(%rip),%eax        # 159b4 <g_3009>
   104a6:	89 c1                	mov    %eax,%ecx
   104a8:	8b 45 fc             	mov    -0x4(%rbp),%eax
   104ab:	89 c2                	mov    %eax,%edx
   104ad:	48 8d 35 ce 14 00 00 	lea    0x14ce(%rip),%rsi        # 11982 <g_2821+0x8fa>
   104b4:	48 89 cf             	mov    %rcx,%rdi
   104b7:	e8 37 82 ff ff       	callq  86f3 <transparent_crc>
   104bc:	0f b7 05 f1 54 00 00 	movzwl 0x54f1(%rip),%eax        # 159b4 <g_3009>
   104c3:	48 0f bf c0          	movswq %ax,%rax
   104c7:	8b 55 fc             	mov    -0x4(%rbp),%edx
   104ca:	48 8d 35 bb 14 00 00 	lea    0x14bb(%rip),%rsi        # 1198c <g_2821+0x904>
   104d1:	48 89 c7             	mov    %rax,%rdi
   104d4:	e8 1a 82 ff ff       	callq  86f3 <transparent_crc>
   104d9:	0f b7 05 d4 54 00 00 	movzwl 0x54d4(%rip),%eax        # 159b4 <g_3009>
   104e0:	0f b7 c0             	movzwl %ax,%eax
   104e3:	8b 55 fc             	mov    -0x4(%rbp),%edx
   104e6:	48 8d 35 a9 14 00 00 	lea    0x14a9(%rip),%rsi        # 11996 <g_2821+0x90e>
   104ed:	48 89 c7             	mov    %rax,%rdi
   104f0:	e8 fe 81 ff ff       	callq  86f3 <transparent_crc>
   104f5:	8b 05 bd 54 00 00    	mov    0x54bd(%rip),%eax        # 159b8 <g_3010>
   104fb:	48 98                	cltq   
   104fd:	8b 55 fc             	mov    -0x4(%rbp),%edx
   10500:	48 8d 35 99 14 00 00 	lea    0x1499(%rip),%rsi        # 119a0 <g_2821+0x918>
   10507:	48 89 c7             	mov    %rax,%rdi
   1050a:	e8 e4 81 ff ff       	callq  86f3 <transparent_crc>
   1050f:	8b 05 a3 54 00 00    	mov    0x54a3(%rip),%eax        # 159b8 <g_3010>
   10515:	89 c1                	mov    %eax,%ecx
   10517:	8b 45 fc             	mov    -0x4(%rbp),%eax
   1051a:	89 c2                	mov    %eax,%edx
   1051c:	48 8d 35 87 14 00 00 	lea    0x1487(%rip),%rsi        # 119aa <g_2821+0x922>
   10523:	48 89 cf             	mov    %rcx,%rdi
   10526:	e8 c8 81 ff ff       	callq  86f3 <transparent_crc>
   1052b:	0f b7 05 86 54 00 00 	movzwl 0x5486(%rip),%eax        # 159b8 <g_3010>
   10532:	48 0f bf c0          	movswq %ax,%rax
   10536:	8b 55 fc             	mov    -0x4(%rbp),%edx
   10539:	48 8d 35 74 14 00 00 	lea    0x1474(%rip),%rsi        # 119b4 <g_2821+0x92c>
   10540:	48 89 c7             	mov    %rax,%rdi
   10543:	e8 ab 81 ff ff       	callq  86f3 <transparent_crc>
   10548:	0f b7 05 69 54 00 00 	movzwl 0x5469(%rip),%eax        # 159b8 <g_3010>
   1054f:	0f b7 c0             	movzwl %ax,%eax
   10552:	8b 55 fc             	mov    -0x4(%rbp),%edx
   10555:	48 8d 35 62 14 00 00 	lea    0x1462(%rip),%rsi        # 119be <g_2821+0x936>
   1055c:	48 89 c7             	mov    %rax,%rdi
   1055f:	e8 8f 81 ff ff       	callq  86f3 <transparent_crc>
   10564:	0f b7 05 51 54 00 00 	movzwl 0x5451(%rip),%eax        # 159bc <g_3011>
   1056b:	48 0f bf c0          	movswq %ax,%rax
   1056f:	8b 55 fc             	mov    -0x4(%rbp),%edx
   10572:	48 8d 35 4f 14 00 00 	lea    0x144f(%rip),%rsi        # 119c8 <g_2821+0x940>
   10579:	48 89 c7             	mov    %rax,%rdi
   1057c:	e8 72 81 ff ff       	callq  86f3 <transparent_crc>
   10581:	0f b7 05 34 54 00 00 	movzwl 0x5434(%rip),%eax        # 159bc <g_3011>
   10588:	0f b7 c0             	movzwl %ax,%eax
   1058b:	8b 55 fc             	mov    -0x4(%rbp),%edx
   1058e:	48 8d 35 3d 14 00 00 	lea    0x143d(%rip),%rsi        # 119d2 <g_2821+0x94a>
   10595:	48 89 c7             	mov    %rax,%rdi
   10598:	e8 56 81 ff ff       	callq  86f3 <transparent_crc>
   1059d:	0f b7 05 1c 54 00 00 	movzwl 0x541c(%rip),%eax        # 159c0 <g_3012>
   105a4:	48 0f bf c0          	movswq %ax,%rax
   105a8:	8b 55 fc             	mov    -0x4(%rbp),%edx
   105ab:	48 8d 35 2a 14 00 00 	lea    0x142a(%rip),%rsi        # 119dc <g_2821+0x954>
   105b2:	48 89 c7             	mov    %rax,%rdi
   105b5:	e8 39 81 ff ff       	callq  86f3 <transparent_crc>
   105ba:	0f b7 05 ff 53 00 00 	movzwl 0x53ff(%rip),%eax        # 159c0 <g_3012>
   105c1:	0f b7 c0             	movzwl %ax,%eax
   105c4:	8b 55 fc             	mov    -0x4(%rbp),%edx
   105c7:	48 8d 35 18 14 00 00 	lea    0x1418(%rip),%rsi        # 119e6 <g_2821+0x95e>
   105ce:	48 89 c7             	mov    %rax,%rdi
   105d1:	e8 1d 81 ff ff       	callq  86f3 <transparent_crc>
   105d6:	0f b7 05 e7 53 00 00 	movzwl 0x53e7(%rip),%eax        # 159c4 <g_3115>
   105dd:	0f b7 c0             	movzwl %ax,%eax
   105e0:	8b 55 fc             	mov    -0x4(%rbp),%edx
   105e3:	48 8d 35 06 14 00 00 	lea    0x1406(%rip),%rsi        # 119f0 <g_2821+0x968>
   105ea:	48 89 c7             	mov    %rax,%rdi
   105ed:	e8 01 81 ff ff       	callq  86f3 <transparent_crc>
   105f2:	8b 05 d0 53 00 00    	mov    0x53d0(%rip),%eax        # 159c8 <g_3117>
   105f8:	89 c1                	mov    %eax,%ecx
   105fa:	8b 45 fc             	mov    -0x4(%rbp),%eax
   105fd:	89 c2                	mov    %eax,%edx
   105ff:	48 8d 35 f4 13 00 00 	lea    0x13f4(%rip),%rsi        # 119fa <g_2821+0x972>
   10606:	48 89 cf             	mov    %rcx,%rdi
   10609:	e8 e5 80 ff ff       	callq  86f3 <transparent_crc>
   1060e:	0f b6 05 b7 53 00 00 	movzbl 0x53b7(%rip),%eax        # 159cc <g_3259>
   10615:	48 0f be c0          	movsbq %al,%rax
   10619:	8b 55 fc             	mov    -0x4(%rbp),%edx
   1061c:	48 8d 35 de 13 00 00 	lea    0x13de(%rip),%rsi        # 11a01 <g_2821+0x979>
   10623:	48 89 c7             	mov    %rax,%rdi
   10626:	e8 c8 80 ff ff       	callq  86f3 <transparent_crc>
   1062b:	c7 45 f0 00 00 00 00 	movl   $0x0,-0x10(%rbp)
   10632:	e9 d3 00 00 00       	jmpq   1070a <main+0x1249>
   10637:	8b 45 f0             	mov    -0x10(%rbp),%eax
   1063a:	48 98                	cltq   
   1063c:	48 8d 14 85 00 00 00 	lea    0x0(,%rax,4),%rdx
   10643:	00 
   10644:	48 8d 05 85 53 00 00 	lea    0x5385(%rip),%rax        # 159d0 <g_3265>
   1064b:	8b 04 02             	mov    (%rdx,%rax,1),%eax
   1064e:	48 98                	cltq   
   10650:	8b 55 fc             	mov    -0x4(%rbp),%edx
   10653:	48 8d 35 ae 13 00 00 	lea    0x13ae(%rip),%rsi        # 11a08 <g_2821+0x980>
   1065a:	48 89 c7             	mov    %rax,%rdi
   1065d:	e8 91 80 ff ff       	callq  86f3 <transparent_crc>
   10662:	8b 45 f0             	mov    -0x10(%rbp),%eax
   10665:	48 98                	cltq   
   10667:	48 8d 14 85 00 00 00 	lea    0x0(,%rax,4),%rdx
   1066e:	00 
   1066f:	48 8d 05 5a 53 00 00 	lea    0x535a(%rip),%rax        # 159d0 <g_3265>
   10676:	8b 04 02             	mov    (%rdx,%rax,1),%eax
   10679:	89 c1                	mov    %eax,%ecx
   1067b:	8b 45 fc             	mov    -0x4(%rbp),%eax
   1067e:	89 c2                	mov    %eax,%edx
   10680:	48 8d 35 8e 13 00 00 	lea    0x138e(%rip),%rsi        # 11a15 <g_2821+0x98d>
   10687:	48 89 cf             	mov    %rcx,%rdi
   1068a:	e8 64 80 ff ff       	callq  86f3 <transparent_crc>
   1068f:	8b 45 f0             	mov    -0x10(%rbp),%eax
   10692:	48 98                	cltq   
   10694:	48 8d 14 85 00 00 00 	lea    0x0(,%rax,4),%rdx
   1069b:	00 
   1069c:	48 8d 05 2d 53 00 00 	lea    0x532d(%rip),%rax        # 159d0 <g_3265>
   106a3:	0f b7 04 02          	movzwl (%rdx,%rax,1),%eax
   106a7:	48 0f bf c0          	movswq %ax,%rax
   106ab:	8b 55 fc             	mov    -0x4(%rbp),%edx
   106ae:	48 8d 35 6d 13 00 00 	lea    0x136d(%rip),%rsi        # 11a22 <g_2821+0x99a>
   106b5:	48 89 c7             	mov    %rax,%rdi
   106b8:	e8 36 80 ff ff       	callq  86f3 <transparent_crc>
   106bd:	8b 45 f0             	mov    -0x10(%rbp),%eax
   106c0:	48 98                	cltq   
   106c2:	48 8d 14 85 00 00 00 	lea    0x0(,%rax,4),%rdx
   106c9:	00 
   106ca:	48 8d 05 ff 52 00 00 	lea    0x52ff(%rip),%rax        # 159d0 <g_3265>
   106d1:	0f b7 04 02          	movzwl (%rdx,%rax,1),%eax
   106d5:	0f b7 c0             	movzwl %ax,%eax
   106d8:	8b 55 fc             	mov    -0x4(%rbp),%edx
   106db:	48 8d 35 4d 13 00 00 	lea    0x134d(%rip),%rsi        # 11a2f <g_2821+0x9a7>
   106e2:	48 89 c7             	mov    %rax,%rdi
   106e5:	e8 09 80 ff ff       	callq  86f3 <transparent_crc>
   106ea:	83 7d fc 00          	cmpl   $0x0,-0x4(%rbp)
   106ee:	74 16                	je     10706 <main+0x1245>
   106f0:	8b 45 f0             	mov    -0x10(%rbp),%eax
   106f3:	89 c6                	mov    %eax,%esi
   106f5:	48 8d 3d 5a 0f 00 00 	lea    0xf5a(%rip),%rdi        # 11656 <g_2821+0x5ce>
   106fc:	b8 00 00 00 00       	mov    $0x0,%eax
   10701:	e8 7a 69 ff ff       	callq  7080 <printf@plt>
   10706:	83 45 f0 01          	addl   $0x1,-0x10(%rbp)
   1070a:	83 7d f0 01          	cmpl   $0x1,-0x10(%rbp)
   1070e:	0f 8e 23 ff ff ff    	jle    10637 <main+0x1176>
   10714:	0f b7 05 bd 52 00 00 	movzwl 0x52bd(%rip),%eax        # 159d8 <g_3344>
   1071b:	48 0f bf c0          	movswq %ax,%rax
   1071f:	8b 55 fc             	mov    -0x4(%rbp),%edx
   10722:	48 8d 35 13 13 00 00 	lea    0x1313(%rip),%rsi        # 11a3c <g_2821+0x9b4>
   10729:	48 89 c7             	mov    %rax,%rdi
   1072c:	e8 c2 7f ff ff       	callq  86f3 <transparent_crc>
   10731:	8b 05 e9 48 00 00    	mov    0x48e9(%rip),%eax        # 15020 <crc32_context>
   10737:	f7 d0                	not    %eax
   10739:	89 c2                	mov    %eax,%edx
   1073b:	8b 45 fc             	mov    -0x4(%rbp),%eax
   1073e:	89 c6                	mov    %eax,%esi
   10740:	89 d7                	mov    %edx,%edi
   10742:	e8 4d 6a ff ff       	callq  7194 <platform_main_end>
   10747:	b8 00 00 00 00       	mov    $0x0,%eax
   1074c:	c9                   	leaveq 
   1074d:	c3                   	retq   
   1074e:	66 90                	xchg   %ax,%ax

0000000000010750 <__libc_csu_init>:
   10750:	f3 0f 1e fa          	endbr64 
   10754:	41 57                	push   %r15
   10756:	4c 8d 3d 53 45 00 00 	lea    0x4553(%rip),%r15        # 14cb0 <__frame_dummy_init_array_entry>
   1075d:	41 56                	push   %r14
   1075f:	49 89 d6             	mov    %rdx,%r14
   10762:	41 55                	push   %r13
   10764:	49 89 f5             	mov    %rsi,%r13
   10767:	41 54                	push   %r12
   10769:	41 89 fc             	mov    %edi,%r12d
   1076c:	55                   	push   %rbp
   1076d:	48 8d 2d 44 45 00 00 	lea    0x4544(%rip),%rbp        # 14cb8 <__do_global_dtors_aux_fini_array_entry>
   10774:	53                   	push   %rbx
   10775:	4c 29 fd             	sub    %r15,%rbp
   10778:	48 83 ec 08          	sub    $0x8,%rsp
   1077c:	e8 7f 68 ff ff       	callq  7000 <_init>
   10781:	48 c1 fd 03          	sar    $0x3,%rbp
   10785:	74 1f                	je     107a6 <__libc_csu_init+0x56>
   10787:	31 db                	xor    %ebx,%ebx
   10789:	0f 1f 80 00 00 00 00 	nopl   0x0(%rax)
   10790:	4c 89 f2             	mov    %r14,%rdx
   10793:	4c 89 ee             	mov    %r13,%rsi
   10796:	44 89 e7             	mov    %r12d,%edi
   10799:	41 ff 14 df          	callq  *(%r15,%rbx,8)
   1079d:	48 83 c3 01          	add    $0x1,%rbx
   107a1:	48 39 dd             	cmp    %rbx,%rbp
   107a4:	75 ea                	jne    10790 <__libc_csu_init+0x40>
   107a6:	48 83 c4 08          	add    $0x8,%rsp
   107aa:	5b                   	pop    %rbx
   107ab:	5d                   	pop    %rbp
   107ac:	41 5c                	pop    %r12
   107ae:	41 5d                	pop    %r13
   107b0:	41 5e                	pop    %r14
   107b2:	41 5f                	pop    %r15
   107b4:	c3                   	retq   
   107b5:	66 66 2e 0f 1f 84 00 	data16 nopw %cs:0x0(%rax,%rax,1)
   107bc:	00 00 00 00 

00000000000107c0 <__libc_csu_fini>:
   107c0:	f3 0f 1e fa          	endbr64 
   107c4:	c3                   	retq   
