


Disassembly of section .text:

00000000000080a0 <_start>:
    80a0:	f3 0f 1e fa          	endbr64 
    80a4:	31 ed                	xor    %ebp,%ebp
    80a6:	49 89 d1             	mov    %rdx,%r9
    80a9:	5e                   	pop    %rsi
    80aa:	48 89 e2             	mov    %rsp,%rdx
    80ad:	48 83 e4 f0          	and    $0xfffffffffffffff0,%rsp
    80b1:	50                   	push   %rax
    80b2:	54                   	push   %rsp
    80b3:	4c 8d 05 46 c4 00 00 	lea    0xc446(%rip),%r8        # 14500 <__libc_csu_fini>
    80ba:	48 8d 0d cf c3 00 00 	lea    0xc3cf(%rip),%rcx        # 14490 <__libc_csu_init>
    80c1:	48 8d 3d e5 b6 00 00 	lea    0xb6e5(%rip),%rdi        # 137ad <main>
    80c8:	ff 15 fa 1e 01 00    	callq  *0x11efa(%rip)        # 19fc8 <__libc_start_main@GLIBC_2.2.5>
    80ce:	f4                   	hlt    
    80cf:	90                   	nop

00000000000080d0 <deregister_tm_clones>:
    80d0:	48 8d 3d f1 51 01 00 	lea    0x151f1(%rip),%rdi        # 1d2c8 <__TMC_END__>
    80d7:	48 8d 05 ea 51 01 00 	lea    0x151ea(%rip),%rax        # 1d2c8 <__TMC_END__>
    80de:	48 39 f8             	cmp    %rdi,%rax
    80e1:	74 15                	je     80f8 <deregister_tm_clones+0x28>
    80e3:	48 8b 05 d6 1e 01 00 	mov    0x11ed6(%rip),%rax        # 19fc0 <_ITM_deregisterTMCloneTable>
    80ea:	48 85 c0             	test   %rax,%rax
    80ed:	74 09                	je     80f8 <deregister_tm_clones+0x28>
    80ef:	ff e0                	jmpq   *%rax
    80f1:	0f 1f 80 00 00 00 00 	nopl   0x0(%rax)
    80f8:	c3                   	retq   
    80f9:	0f 1f 80 00 00 00 00 	nopl   0x0(%rax)

0000000000008100 <register_tm_clones>:
    8100:	48 8d 3d c1 51 01 00 	lea    0x151c1(%rip),%rdi        # 1d2c8 <__TMC_END__>
    8107:	48 8d 35 ba 51 01 00 	lea    0x151ba(%rip),%rsi        # 1d2c8 <__TMC_END__>
    810e:	48 29 fe             	sub    %rdi,%rsi
    8111:	48 89 f0             	mov    %rsi,%rax
    8114:	48 c1 ee 3f          	shr    $0x3f,%rsi
    8118:	48 c1 f8 03          	sar    $0x3,%rax
    811c:	48 01 c6             	add    %rax,%rsi
    811f:	48 d1 fe             	sar    %rsi
    8122:	74 14                	je     8138 <register_tm_clones+0x38>
    8124:	48 8b 05 ad 1e 01 00 	mov    0x11ead(%rip),%rax        # 19fd8 <_ITM_registerTMCloneTable>
    812b:	48 85 c0             	test   %rax,%rax
    812e:	74 08                	je     8138 <register_tm_clones+0x38>
    8130:	ff e0                	jmpq   *%rax
    8132:	66 0f 1f 44 00 00    	nopw   0x0(%rax,%rax,1)
    8138:	c3                   	retq   
    8139:	0f 1f 80 00 00 00 00 	nopl   0x0(%rax)

0000000000008140 <__do_global_dtors_aux>:
    8140:	f3 0f 1e fa          	endbr64 
    8144:	80 3d 95 51 01 00 00 	cmpb   $0x0,0x15195(%rip)        # 1d2e0 <completed.8061>
    814b:	75 2b                	jne    8178 <__do_global_dtors_aux+0x38>
    814d:	55                   	push   %rbp
    814e:	48 83 3d 8a 1e 01 00 	cmpq   $0x0,0x11e8a(%rip)        # 19fe0 <__cxa_finalize@GLIBC_2.2.5>
    8155:	00 
    8156:	48 89 e5             	mov    %rsp,%rbp
    8159:	74 0c                	je     8167 <__do_global_dtors_aux+0x27>
    815b:	48 8b 3d a6 1e 01 00 	mov    0x11ea6(%rip),%rdi        # 1a008 <__dso_handle>
    8162:	e8 f9 fe ff ff       	callq  8060 <__cxa_finalize@plt>
    8167:	e8 64 ff ff ff       	callq  80d0 <deregister_tm_clones>
    816c:	c6 05 6d 51 01 00 01 	movb   $0x1,0x1516d(%rip)        # 1d2e0 <completed.8061>
    8173:	5d                   	pop    %rbp
    8174:	c3                   	retq   
    8175:	0f 1f 00             	nopl   (%rax)
    8178:	c3                   	retq   
    8179:	0f 1f 80 00 00 00 00 	nopl   0x0(%rax)

0000000000008180 <frame_dummy>:
    8180:	f3 0f 1e fa          	endbr64 
    8184:	e9 77 ff ff ff       	jmpq   8100 <register_tm_clones>

0000000000008189 <platform_main_begin>:
    8189:	f3 0f 1e fa          	endbr64 
    818d:	55                   	push   %rbp
    818e:	48 89 e5             	mov    %rsp,%rbp
    8191:	90                   	nop
    8192:	5d                   	pop    %rbp
    8193:	c3                   	retq   

0000000000008194 <platform_main_end>:
    8194:	f3 0f 1e fa          	endbr64 
    8198:	55                   	push   %rbp
    8199:	48 89 e5             	mov    %rsp,%rbp
    819c:	48 83 ec 10          	sub    $0x10,%rsp
    81a0:	89 7d fc             	mov    %edi,-0x4(%rbp)
    81a3:	89 75 f8             	mov    %esi,-0x8(%rbp)
    81a6:	8b 45 fc             	mov    -0x4(%rbp),%eax
    81a9:	89 c6                	mov    %eax,%esi
    81ab:	48 8d 3d 6e ce 00 00 	lea    0xce6e(%rip),%rdi        # 15020 <_IO_stdin_used+0x20>
    81b2:	b8 00 00 00 00       	mov    $0x0,%eax
    81b7:	e8 c4 fe ff ff       	callq  8080 <printf@plt>
    81bc:	90                   	nop
    81bd:	c9                   	leaveq 
    81be:	c3                   	retq   

00000000000081bf <safe_unary_minus_func_int8_t_s>:
    81bf:	f3 0f 1e fa          	endbr64 
    81c3:	55                   	push   %rbp
    81c4:	48 89 e5             	mov    %rsp,%rbp
    81c7:	89 f8                	mov    %edi,%eax
    81c9:	88 45 fc             	mov    %al,-0x4(%rbp)
    81cc:	0f b6 45 fc          	movzbl -0x4(%rbp),%eax
    81d0:	f7 d8                	neg    %eax
    81d2:	5d                   	pop    %rbp
    81d3:	c3                   	retq   

00000000000081d4 <safe_add_func_int8_t_s_s>:
    81d4:	f3 0f 1e fa          	endbr64 
    81d8:	55                   	push   %rbp
    81d9:	48 89 e5             	mov    %rsp,%rbp
    81dc:	89 fa                	mov    %edi,%edx
    81de:	89 f0                	mov    %esi,%eax
    81e0:	88 55 fc             	mov    %dl,-0x4(%rbp)
    81e3:	88 45 f8             	mov    %al,-0x8(%rbp)
    81e6:	0f b6 55 fc          	movzbl -0x4(%rbp),%edx
    81ea:	0f b6 45 f8          	movzbl -0x8(%rbp),%eax
    81ee:	01 d0                	add    %edx,%eax
    81f0:	5d                   	pop    %rbp
    81f1:	c3                   	retq   

00000000000081f2 <safe_sub_func_int8_t_s_s>:
    81f2:	f3 0f 1e fa          	endbr64 
    81f6:	55                   	push   %rbp
    81f7:	48 89 e5             	mov    %rsp,%rbp
    81fa:	89 fa                	mov    %edi,%edx
    81fc:	89 f0                	mov    %esi,%eax
    81fe:	88 55 fc             	mov    %dl,-0x4(%rbp)
    8201:	88 45 f8             	mov    %al,-0x8(%rbp)
    8204:	0f b6 55 fc          	movzbl -0x4(%rbp),%edx
    8208:	0f b6 45 f8          	movzbl -0x8(%rbp),%eax
    820c:	29 c2                	sub    %eax,%edx
    820e:	89 d0                	mov    %edx,%eax
    8210:	5d                   	pop    %rbp
    8211:	c3                   	retq   

0000000000008212 <safe_mul_func_int8_t_s_s>:
    8212:	f3 0f 1e fa          	endbr64 
    8216:	55                   	push   %rbp
    8217:	48 89 e5             	mov    %rsp,%rbp
    821a:	89 fa                	mov    %edi,%edx
    821c:	89 f0                	mov    %esi,%eax
    821e:	88 55 fc             	mov    %dl,-0x4(%rbp)
    8221:	88 45 f8             	mov    %al,-0x8(%rbp)
    8224:	0f b6 45 fc          	movzbl -0x4(%rbp),%eax
    8228:	0f b6 55 f8          	movzbl -0x8(%rbp),%edx
    822c:	0f af c2             	imul   %edx,%eax
    822f:	5d                   	pop    %rbp
    8230:	c3                   	retq   

0000000000008231 <safe_mod_func_int8_t_s_s>:
    8231:	f3 0f 1e fa          	endbr64 
    8235:	55                   	push   %rbp
    8236:	48 89 e5             	mov    %rsp,%rbp
    8239:	89 fa                	mov    %edi,%edx
    823b:	89 f0                	mov    %esi,%eax
    823d:	88 55 fc             	mov    %dl,-0x4(%rbp)
    8240:	88 45 f8             	mov    %al,-0x8(%rbp)
    8243:	80 7d f8 00          	cmpb   $0x0,-0x8(%rbp)
    8247:	74 1b                	je     8264 <safe_mod_func_int8_t_s_s+0x33>
    8249:	80 7d fc 80          	cmpb   $0x80,-0x4(%rbp)
    824d:	75 06                	jne    8255 <safe_mod_func_int8_t_s_s+0x24>
    824f:	80 7d f8 ff          	cmpb   $0xff,-0x8(%rbp)
    8253:	74 0f                	je     8264 <safe_mod_func_int8_t_s_s+0x33>
    8255:	0f be 45 fc          	movsbl -0x4(%rbp),%eax
    8259:	0f be 4d f8          	movsbl -0x8(%rbp),%ecx
    825d:	99                   	cltd   
    825e:	f7 f9                	idiv   %ecx
    8260:	89 d0                	mov    %edx,%eax
    8262:	eb 04                	jmp    8268 <safe_mod_func_int8_t_s_s+0x37>
    8264:	0f b6 45 fc          	movzbl -0x4(%rbp),%eax
    8268:	5d                   	pop    %rbp
    8269:	c3                   	retq   

000000000000826a <safe_div_func_int8_t_s_s>:
    826a:	f3 0f 1e fa          	endbr64 
    826e:	55                   	push   %rbp
    826f:	48 89 e5             	mov    %rsp,%rbp
    8272:	89 fa                	mov    %edi,%edx
    8274:	89 f0                	mov    %esi,%eax
    8276:	88 55 fc             	mov    %dl,-0x4(%rbp)
    8279:	88 45 f8             	mov    %al,-0x8(%rbp)
    827c:	80 7d f8 00          	cmpb   $0x0,-0x8(%rbp)
    8280:	74 19                	je     829b <safe_div_func_int8_t_s_s+0x31>
    8282:	80 7d fc 80          	cmpb   $0x80,-0x4(%rbp)
    8286:	75 06                	jne    828e <safe_div_func_int8_t_s_s+0x24>
    8288:	80 7d f8 ff          	cmpb   $0xff,-0x8(%rbp)
    828c:	74 0d                	je     829b <safe_div_func_int8_t_s_s+0x31>
    828e:	0f be 45 fc          	movsbl -0x4(%rbp),%eax
    8292:	0f be 4d f8          	movsbl -0x8(%rbp),%ecx
    8296:	99                   	cltd   
    8297:	f7 f9                	idiv   %ecx
    8299:	eb 04                	jmp    829f <safe_div_func_int8_t_s_s+0x35>
    829b:	0f b6 45 fc          	movzbl -0x4(%rbp),%eax
    829f:	5d                   	pop    %rbp
    82a0:	c3                   	retq   

00000000000082a1 <safe_lshift_func_int8_t_s_s>:
    82a1:	f3 0f 1e fa          	endbr64 
    82a5:	55                   	push   %rbp
    82a6:	48 89 e5             	mov    %rsp,%rbp
    82a9:	89 f8                	mov    %edi,%eax
    82ab:	89 75 f8             	mov    %esi,-0x8(%rbp)
    82ae:	88 45 fc             	mov    %al,-0x4(%rbp)
    82b1:	80 7d fc 00          	cmpb   $0x0,-0x4(%rbp)
    82b5:	78 31                	js     82e8 <safe_lshift_func_int8_t_s_s+0x47>
    82b7:	83 7d f8 00          	cmpl   $0x0,-0x8(%rbp)
    82bb:	78 2b                	js     82e8 <safe_lshift_func_int8_t_s_s+0x47>
    82bd:	83 7d f8 1f          	cmpl   $0x1f,-0x8(%rbp)
    82c1:	7f 25                	jg     82e8 <safe_lshift_func_int8_t_s_s+0x47>
    82c3:	0f be 55 fc          	movsbl -0x4(%rbp),%edx
    82c7:	8b 45 f8             	mov    -0x8(%rbp),%eax
    82ca:	be 7f 00 00 00       	mov    $0x7f,%esi
    82cf:	89 c1                	mov    %eax,%ecx
    82d1:	d3 fe                	sar    %cl,%esi
    82d3:	89 f0                	mov    %esi,%eax
    82d5:	39 c2                	cmp    %eax,%edx
    82d7:	7f 0f                	jg     82e8 <safe_lshift_func_int8_t_s_s+0x47>
    82d9:	0f be 55 fc          	movsbl -0x4(%rbp),%edx
    82dd:	8b 45 f8             	mov    -0x8(%rbp),%eax
    82e0:	89 c1                	mov    %eax,%ecx
    82e2:	d3 e2                	shl    %cl,%edx
    82e4:	89 d0                	mov    %edx,%eax
    82e6:	eb 04                	jmp    82ec <safe_lshift_func_int8_t_s_s+0x4b>
    82e8:	0f b6 45 fc          	movzbl -0x4(%rbp),%eax
    82ec:	5d                   	pop    %rbp
    82ed:	c3                   	retq   

00000000000082ee <safe_lshift_func_int8_t_s_u>:
    82ee:	f3 0f 1e fa          	endbr64 
    82f2:	55                   	push   %rbp
    82f3:	48 89 e5             	mov    %rsp,%rbp
    82f6:	89 f8                	mov    %edi,%eax
    82f8:	89 75 f8             	mov    %esi,-0x8(%rbp)
    82fb:	88 45 fc             	mov    %al,-0x4(%rbp)
    82fe:	80 7d fc 00          	cmpb   $0x0,-0x4(%rbp)
    8302:	78 2b                	js     832f <safe_lshift_func_int8_t_s_u+0x41>
    8304:	83 7d f8 1f          	cmpl   $0x1f,-0x8(%rbp)
    8308:	77 25                	ja     832f <safe_lshift_func_int8_t_s_u+0x41>
    830a:	0f be 55 fc          	movsbl -0x4(%rbp),%edx
    830e:	8b 45 f8             	mov    -0x8(%rbp),%eax
    8311:	be 7f 00 00 00       	mov    $0x7f,%esi
    8316:	89 c1                	mov    %eax,%ecx
    8318:	d3 fe                	sar    %cl,%esi
    831a:	89 f0                	mov    %esi,%eax
    831c:	39 c2                	cmp    %eax,%edx
    831e:	7f 0f                	jg     832f <safe_lshift_func_int8_t_s_u+0x41>
    8320:	0f be 55 fc          	movsbl -0x4(%rbp),%edx
    8324:	8b 45 f8             	mov    -0x8(%rbp),%eax
    8327:	89 c1                	mov    %eax,%ecx
    8329:	d3 e2                	shl    %cl,%edx
    832b:	89 d0                	mov    %edx,%eax
    832d:	eb 04                	jmp    8333 <safe_lshift_func_int8_t_s_u+0x45>
    832f:	0f b6 45 fc          	movzbl -0x4(%rbp),%eax
    8333:	5d                   	pop    %rbp
    8334:	c3                   	retq   

0000000000008335 <safe_rshift_func_int8_t_s_s>:
    8335:	f3 0f 1e fa          	endbr64 
    8339:	55                   	push   %rbp
    833a:	48 89 e5             	mov    %rsp,%rbp
    833d:	89 f8                	mov    %edi,%eax
    833f:	89 75 f8             	mov    %esi,-0x8(%rbp)
    8342:	88 45 fc             	mov    %al,-0x4(%rbp)
    8345:	80 7d fc 00          	cmpb   $0x0,-0x4(%rbp)
    8349:	78 1b                	js     8366 <safe_rshift_func_int8_t_s_s+0x31>
    834b:	83 7d f8 00          	cmpl   $0x0,-0x8(%rbp)
    834f:	78 15                	js     8366 <safe_rshift_func_int8_t_s_s+0x31>
    8351:	83 7d f8 1f          	cmpl   $0x1f,-0x8(%rbp)
    8355:	7f 0f                	jg     8366 <safe_rshift_func_int8_t_s_s+0x31>
    8357:	0f be 55 fc          	movsbl -0x4(%rbp),%edx
    835b:	8b 45 f8             	mov    -0x8(%rbp),%eax
    835e:	89 c1                	mov    %eax,%ecx
    8360:	d3 fa                	sar    %cl,%edx
    8362:	89 d0                	mov    %edx,%eax
    8364:	eb 04                	jmp    836a <safe_rshift_func_int8_t_s_s+0x35>
    8366:	0f b6 45 fc          	movzbl -0x4(%rbp),%eax
    836a:	5d                   	pop    %rbp
    836b:	c3                   	retq   

000000000000836c <safe_rshift_func_int8_t_s_u>:
    836c:	f3 0f 1e fa          	endbr64 
    8370:	55                   	push   %rbp
    8371:	48 89 e5             	mov    %rsp,%rbp
    8374:	89 f8                	mov    %edi,%eax
    8376:	89 75 f8             	mov    %esi,-0x8(%rbp)
    8379:	88 45 fc             	mov    %al,-0x4(%rbp)
    837c:	80 7d fc 00          	cmpb   $0x0,-0x4(%rbp)
    8380:	78 15                	js     8397 <safe_rshift_func_int8_t_s_u+0x2b>
    8382:	83 7d f8 1f          	cmpl   $0x1f,-0x8(%rbp)
    8386:	77 0f                	ja     8397 <safe_rshift_func_int8_t_s_u+0x2b>
    8388:	0f be 55 fc          	movsbl -0x4(%rbp),%edx
    838c:	8b 45 f8             	mov    -0x8(%rbp),%eax
    838f:	89 c1                	mov    %eax,%ecx
    8391:	d3 fa                	sar    %cl,%edx
    8393:	89 d0                	mov    %edx,%eax
    8395:	eb 04                	jmp    839b <safe_rshift_func_int8_t_s_u+0x2f>
    8397:	0f b6 45 fc          	movzbl -0x4(%rbp),%eax
    839b:	5d                   	pop    %rbp
    839c:	c3                   	retq   

000000000000839d <safe_unary_minus_func_int16_t_s>:
    839d:	f3 0f 1e fa          	endbr64 
    83a1:	55                   	push   %rbp
    83a2:	48 89 e5             	mov    %rsp,%rbp
    83a5:	89 f8                	mov    %edi,%eax
    83a7:	66 89 45 fc          	mov    %ax,-0x4(%rbp)
    83ab:	0f b7 45 fc          	movzwl -0x4(%rbp),%eax
    83af:	f7 d8                	neg    %eax
    83b1:	5d                   	pop    %rbp
    83b2:	c3                   	retq   

00000000000083b3 <safe_add_func_int16_t_s_s>:
    83b3:	f3 0f 1e fa          	endbr64 
    83b7:	55                   	push   %rbp
    83b8:	48 89 e5             	mov    %rsp,%rbp
    83bb:	89 fa                	mov    %edi,%edx
    83bd:	89 f0                	mov    %esi,%eax
    83bf:	66 89 55 fc          	mov    %dx,-0x4(%rbp)
    83c3:	66 89 45 f8          	mov    %ax,-0x8(%rbp)
    83c7:	0f b7 55 fc          	movzwl -0x4(%rbp),%edx
    83cb:	0f b7 45 f8          	movzwl -0x8(%rbp),%eax
    83cf:	01 d0                	add    %edx,%eax
    83d1:	5d                   	pop    %rbp
    83d2:	c3                   	retq   

00000000000083d3 <safe_sub_func_int16_t_s_s>:
    83d3:	f3 0f 1e fa          	endbr64 
    83d7:	55                   	push   %rbp
    83d8:	48 89 e5             	mov    %rsp,%rbp
    83db:	89 fa                	mov    %edi,%edx
    83dd:	89 f0                	mov    %esi,%eax
    83df:	66 89 55 fc          	mov    %dx,-0x4(%rbp)
    83e3:	66 89 45 f8          	mov    %ax,-0x8(%rbp)
    83e7:	0f b7 55 fc          	movzwl -0x4(%rbp),%edx
    83eb:	0f b7 45 f8          	movzwl -0x8(%rbp),%eax
    83ef:	29 c2                	sub    %eax,%edx
    83f1:	89 d0                	mov    %edx,%eax
    83f3:	5d                   	pop    %rbp
    83f4:	c3                   	retq   

00000000000083f5 <safe_mul_func_int16_t_s_s>:
    83f5:	f3 0f 1e fa          	endbr64 
    83f9:	55                   	push   %rbp
    83fa:	48 89 e5             	mov    %rsp,%rbp
    83fd:	89 fa                	mov    %edi,%edx
    83ff:	89 f0                	mov    %esi,%eax
    8401:	66 89 55 fc          	mov    %dx,-0x4(%rbp)
    8405:	66 89 45 f8          	mov    %ax,-0x8(%rbp)
    8409:	0f b7 55 fc          	movzwl -0x4(%rbp),%edx
    840d:	0f b7 45 f8          	movzwl -0x8(%rbp),%eax
    8411:	0f af c2             	imul   %edx,%eax
    8414:	5d                   	pop    %rbp
    8415:	c3                   	retq   

0000000000008416 <safe_mod_func_int16_t_s_s>:
    8416:	f3 0f 1e fa          	endbr64 
    841a:	55                   	push   %rbp
    841b:	48 89 e5             	mov    %rsp,%rbp
    841e:	89 fa                	mov    %edi,%edx
    8420:	89 f0                	mov    %esi,%eax
    8422:	66 89 55 fc          	mov    %dx,-0x4(%rbp)
    8426:	66 89 45 f8          	mov    %ax,-0x8(%rbp)
    842a:	66 83 7d f8 00       	cmpw   $0x0,-0x8(%rbp)
    842f:	74 1e                	je     844f <safe_mod_func_int16_t_s_s+0x39>
    8431:	66 81 7d fc 00 80    	cmpw   $0x8000,-0x4(%rbp)
    8437:	75 07                	jne    8440 <safe_mod_func_int16_t_s_s+0x2a>
    8439:	66 83 7d f8 ff       	cmpw   $0xffff,-0x8(%rbp)
    843e:	74 0f                	je     844f <safe_mod_func_int16_t_s_s+0x39>
    8440:	0f bf 45 fc          	movswl -0x4(%rbp),%eax
    8444:	0f bf 4d f8          	movswl -0x8(%rbp),%ecx
    8448:	99                   	cltd   
    8449:	f7 f9                	idiv   %ecx
    844b:	89 d0                	mov    %edx,%eax
    844d:	eb 04                	jmp    8453 <safe_mod_func_int16_t_s_s+0x3d>
    844f:	0f b7 45 fc          	movzwl -0x4(%rbp),%eax
    8453:	5d                   	pop    %rbp
    8454:	c3                   	retq   

0000000000008455 <safe_div_func_int16_t_s_s>:
    8455:	f3 0f 1e fa          	endbr64 
    8459:	55                   	push   %rbp
    845a:	48 89 e5             	mov    %rsp,%rbp
    845d:	89 fa                	mov    %edi,%edx
    845f:	89 f0                	mov    %esi,%eax
    8461:	66 89 55 fc          	mov    %dx,-0x4(%rbp)
    8465:	66 89 45 f8          	mov    %ax,-0x8(%rbp)
    8469:	66 83 7d f8 00       	cmpw   $0x0,-0x8(%rbp)
    846e:	74 1c                	je     848c <safe_div_func_int16_t_s_s+0x37>
    8470:	66 81 7d fc 00 80    	cmpw   $0x8000,-0x4(%rbp)
    8476:	75 07                	jne    847f <safe_div_func_int16_t_s_s+0x2a>
    8478:	66 83 7d f8 ff       	cmpw   $0xffff,-0x8(%rbp)
    847d:	74 0d                	je     848c <safe_div_func_int16_t_s_s+0x37>
    847f:	0f bf 45 fc          	movswl -0x4(%rbp),%eax
    8483:	0f bf 4d f8          	movswl -0x8(%rbp),%ecx
    8487:	99                   	cltd   
    8488:	f7 f9                	idiv   %ecx
    848a:	eb 04                	jmp    8490 <safe_div_func_int16_t_s_s+0x3b>
    848c:	0f b7 45 fc          	movzwl -0x4(%rbp),%eax
    8490:	5d                   	pop    %rbp
    8491:	c3                   	retq   

0000000000008492 <safe_lshift_func_int16_t_s_s>:
    8492:	f3 0f 1e fa          	endbr64 
    8496:	55                   	push   %rbp
    8497:	48 89 e5             	mov    %rsp,%rbp
    849a:	89 f8                	mov    %edi,%eax
    849c:	89 75 f8             	mov    %esi,-0x8(%rbp)
    849f:	66 89 45 fc          	mov    %ax,-0x4(%rbp)
    84a3:	66 83 7d fc 00       	cmpw   $0x0,-0x4(%rbp)
    84a8:	78 31                	js     84db <safe_lshift_func_int16_t_s_s+0x49>
    84aa:	83 7d f8 00          	cmpl   $0x0,-0x8(%rbp)
    84ae:	78 2b                	js     84db <safe_lshift_func_int16_t_s_s+0x49>
    84b0:	83 7d f8 1f          	cmpl   $0x1f,-0x8(%rbp)
    84b4:	7f 25                	jg     84db <safe_lshift_func_int16_t_s_s+0x49>
    84b6:	0f bf 55 fc          	movswl -0x4(%rbp),%edx
    84ba:	8b 45 f8             	mov    -0x8(%rbp),%eax
    84bd:	be ff 7f 00 00       	mov    $0x7fff,%esi
    84c2:	89 c1                	mov    %eax,%ecx
    84c4:	d3 fe                	sar    %cl,%esi
    84c6:	89 f0                	mov    %esi,%eax
    84c8:	39 c2                	cmp    %eax,%edx
    84ca:	7f 0f                	jg     84db <safe_lshift_func_int16_t_s_s+0x49>
    84cc:	0f bf 55 fc          	movswl -0x4(%rbp),%edx
    84d0:	8b 45 f8             	mov    -0x8(%rbp),%eax
    84d3:	89 c1                	mov    %eax,%ecx
    84d5:	d3 e2                	shl    %cl,%edx
    84d7:	89 d0                	mov    %edx,%eax
    84d9:	eb 04                	jmp    84df <safe_lshift_func_int16_t_s_s+0x4d>
    84db:	0f b7 45 fc          	movzwl -0x4(%rbp),%eax
    84df:	5d                   	pop    %rbp
    84e0:	c3                   	retq   

00000000000084e1 <safe_lshift_func_int16_t_s_u>:
    84e1:	f3 0f 1e fa          	endbr64 
    84e5:	55                   	push   %rbp
    84e6:	48 89 e5             	mov    %rsp,%rbp
    84e9:	89 f8                	mov    %edi,%eax
    84eb:	89 75 f8             	mov    %esi,-0x8(%rbp)
    84ee:	66 89 45 fc          	mov    %ax,-0x4(%rbp)
    84f2:	66 83 7d fc 00       	cmpw   $0x0,-0x4(%rbp)
    84f7:	78 2b                	js     8524 <safe_lshift_func_int16_t_s_u+0x43>
    84f9:	83 7d f8 1f          	cmpl   $0x1f,-0x8(%rbp)
    84fd:	77 25                	ja     8524 <safe_lshift_func_int16_t_s_u+0x43>
    84ff:	0f bf 55 fc          	movswl -0x4(%rbp),%edx
    8503:	8b 45 f8             	mov    -0x8(%rbp),%eax
    8506:	be ff 7f 00 00       	mov    $0x7fff,%esi
    850b:	89 c1                	mov    %eax,%ecx
    850d:	d3 fe                	sar    %cl,%esi
    850f:	89 f0                	mov    %esi,%eax
    8511:	39 c2                	cmp    %eax,%edx
    8513:	7f 0f                	jg     8524 <safe_lshift_func_int16_t_s_u+0x43>
    8515:	0f bf 55 fc          	movswl -0x4(%rbp),%edx
    8519:	8b 45 f8             	mov    -0x8(%rbp),%eax
    851c:	89 c1                	mov    %eax,%ecx
    851e:	d3 e2                	shl    %cl,%edx
    8520:	89 d0                	mov    %edx,%eax
    8522:	eb 04                	jmp    8528 <safe_lshift_func_int16_t_s_u+0x47>
    8524:	0f b7 45 fc          	movzwl -0x4(%rbp),%eax
    8528:	5d                   	pop    %rbp
    8529:	c3                   	retq   

000000000000852a <safe_rshift_func_int16_t_s_s>:
    852a:	f3 0f 1e fa          	endbr64 
    852e:	55                   	push   %rbp
    852f:	48 89 e5             	mov    %rsp,%rbp
    8532:	89 f8                	mov    %edi,%eax
    8534:	89 75 f8             	mov    %esi,-0x8(%rbp)
    8537:	66 89 45 fc          	mov    %ax,-0x4(%rbp)
    853b:	66 83 7d fc 00       	cmpw   $0x0,-0x4(%rbp)
    8540:	78 1b                	js     855d <safe_rshift_func_int16_t_s_s+0x33>
    8542:	83 7d f8 00          	cmpl   $0x0,-0x8(%rbp)
    8546:	78 15                	js     855d <safe_rshift_func_int16_t_s_s+0x33>
    8548:	83 7d f8 1f          	cmpl   $0x1f,-0x8(%rbp)
    854c:	7f 0f                	jg     855d <safe_rshift_func_int16_t_s_s+0x33>
    854e:	0f bf 55 fc          	movswl -0x4(%rbp),%edx
    8552:	8b 45 f8             	mov    -0x8(%rbp),%eax
    8555:	89 c1                	mov    %eax,%ecx
    8557:	d3 fa                	sar    %cl,%edx
    8559:	89 d0                	mov    %edx,%eax
    855b:	eb 04                	jmp    8561 <safe_rshift_func_int16_t_s_s+0x37>
    855d:	0f b7 45 fc          	movzwl -0x4(%rbp),%eax
    8561:	5d                   	pop    %rbp
    8562:	c3                   	retq   

0000000000008563 <safe_rshift_func_int16_t_s_u>:
    8563:	f3 0f 1e fa          	endbr64 
    8567:	55                   	push   %rbp
    8568:	48 89 e5             	mov    %rsp,%rbp
    856b:	89 f8                	mov    %edi,%eax
    856d:	89 75 f8             	mov    %esi,-0x8(%rbp)
    8570:	66 89 45 fc          	mov    %ax,-0x4(%rbp)
    8574:	66 83 7d fc 00       	cmpw   $0x0,-0x4(%rbp)
    8579:	78 15                	js     8590 <safe_rshift_func_int16_t_s_u+0x2d>
    857b:	83 7d f8 1f          	cmpl   $0x1f,-0x8(%rbp)
    857f:	77 0f                	ja     8590 <safe_rshift_func_int16_t_s_u+0x2d>
    8581:	0f bf 55 fc          	movswl -0x4(%rbp),%edx
    8585:	8b 45 f8             	mov    -0x8(%rbp),%eax
    8588:	89 c1                	mov    %eax,%ecx
    858a:	d3 fa                	sar    %cl,%edx
    858c:	89 d0                	mov    %edx,%eax
    858e:	eb 04                	jmp    8594 <safe_rshift_func_int16_t_s_u+0x31>
    8590:	0f b7 45 fc          	movzwl -0x4(%rbp),%eax
    8594:	5d                   	pop    %rbp
    8595:	c3                   	retq   

0000000000008596 <safe_unary_minus_func_int32_t_s>:
    8596:	f3 0f 1e fa          	endbr64 
    859a:	55                   	push   %rbp
    859b:	48 89 e5             	mov    %rsp,%rbp
    859e:	89 7d fc             	mov    %edi,-0x4(%rbp)
    85a1:	81 7d fc 00 00 00 80 	cmpl   $0x80000000,-0x4(%rbp)
    85a8:	74 07                	je     85b1 <safe_unary_minus_func_int32_t_s+0x1b>
    85aa:	8b 45 fc             	mov    -0x4(%rbp),%eax
    85ad:	f7 d8                	neg    %eax
    85af:	eb 03                	jmp    85b4 <safe_unary_minus_func_int32_t_s+0x1e>
    85b1:	8b 45 fc             	mov    -0x4(%rbp),%eax
    85b4:	5d                   	pop    %rbp
    85b5:	c3                   	retq   

00000000000085b6 <safe_add_func_int32_t_s_s>:
    85b6:	f3 0f 1e fa          	endbr64 
    85ba:	55                   	push   %rbp
    85bb:	48 89 e5             	mov    %rsp,%rbp
    85be:	89 7d fc             	mov    %edi,-0x4(%rbp)
    85c1:	89 75 f8             	mov    %esi,-0x8(%rbp)
    85c4:	83 7d fc 00          	cmpl   $0x0,-0x4(%rbp)
    85c8:	7e 13                	jle    85dd <safe_add_func_int32_t_s_s+0x27>
    85ca:	83 7d f8 00          	cmpl   $0x0,-0x8(%rbp)
    85ce:	7e 0d                	jle    85dd <safe_add_func_int32_t_s_s+0x27>
    85d0:	b8 ff ff ff 7f       	mov    $0x7fffffff,%eax
    85d5:	2b 45 f8             	sub    -0x8(%rbp),%eax
    85d8:	39 45 fc             	cmp    %eax,-0x4(%rbp)
    85db:	7f 23                	jg     8600 <safe_add_func_int32_t_s_s+0x4a>
    85dd:	83 7d fc 00          	cmpl   $0x0,-0x4(%rbp)
    85e1:	79 13                	jns    85f6 <safe_add_func_int32_t_s_s+0x40>
    85e3:	83 7d f8 00          	cmpl   $0x0,-0x8(%rbp)
    85e7:	79 0d                	jns    85f6 <safe_add_func_int32_t_s_s+0x40>
    85e9:	b8 00 00 00 80       	mov    $0x80000000,%eax
    85ee:	2b 45 f8             	sub    -0x8(%rbp),%eax
    85f1:	39 45 fc             	cmp    %eax,-0x4(%rbp)
    85f4:	7c 0a                	jl     8600 <safe_add_func_int32_t_s_s+0x4a>
    85f6:	8b 55 fc             	mov    -0x4(%rbp),%edx
    85f9:	8b 45 f8             	mov    -0x8(%rbp),%eax
    85fc:	01 d0                	add    %edx,%eax
    85fe:	eb 03                	jmp    8603 <safe_add_func_int32_t_s_s+0x4d>
    8600:	8b 45 fc             	mov    -0x4(%rbp),%eax
    8603:	5d                   	pop    %rbp
    8604:	c3                   	retq   

0000000000008605 <safe_sub_func_int32_t_s_s>:
    8605:	f3 0f 1e fa          	endbr64 
    8609:	55                   	push   %rbp
    860a:	48 89 e5             	mov    %rsp,%rbp
    860d:	89 7d fc             	mov    %edi,-0x4(%rbp)
    8610:	89 75 f8             	mov    %esi,-0x8(%rbp)
    8613:	8b 45 fc             	mov    -0x4(%rbp),%eax
    8616:	33 45 f8             	xor    -0x8(%rbp),%eax
    8619:	89 c2                	mov    %eax,%edx
    861b:	8b 45 fc             	mov    -0x4(%rbp),%eax
    861e:	33 45 f8             	xor    -0x8(%rbp),%eax
    8621:	25 00 00 00 80       	and    $0x80000000,%eax
    8626:	33 45 fc             	xor    -0x4(%rbp),%eax
    8629:	2b 45 f8             	sub    -0x8(%rbp),%eax
    862c:	33 45 f8             	xor    -0x8(%rbp),%eax
    862f:	21 d0                	and    %edx,%eax
    8631:	85 c0                	test   %eax,%eax
    8633:	78 08                	js     863d <safe_sub_func_int32_t_s_s+0x38>
    8635:	8b 45 fc             	mov    -0x4(%rbp),%eax
    8638:	2b 45 f8             	sub    -0x8(%rbp),%eax
    863b:	eb 03                	jmp    8640 <safe_sub_func_int32_t_s_s+0x3b>
    863d:	8b 45 fc             	mov    -0x4(%rbp),%eax
    8640:	5d                   	pop    %rbp
    8641:	c3                   	retq   

0000000000008642 <safe_mul_func_int32_t_s_s>:
    8642:	f3 0f 1e fa          	endbr64 
    8646:	55                   	push   %rbp
    8647:	48 89 e5             	mov    %rsp,%rbp
    864a:	89 7d fc             	mov    %edi,-0x4(%rbp)
    864d:	89 75 f8             	mov    %esi,-0x8(%rbp)
    8650:	83 7d fc 00          	cmpl   $0x0,-0x4(%rbp)
    8654:	7e 14                	jle    866a <safe_mul_func_int32_t_s_s+0x28>
    8656:	83 7d f8 00          	cmpl   $0x0,-0x8(%rbp)
    865a:	7e 0e                	jle    866a <safe_mul_func_int32_t_s_s+0x28>
    865c:	b8 ff ff ff 7f       	mov    $0x7fffffff,%eax
    8661:	99                   	cltd   
    8662:	f7 7d f8             	idivl  -0x8(%rbp)
    8665:	39 45 fc             	cmp    %eax,-0x4(%rbp)
    8668:	7f 5d                	jg     86c7 <safe_mul_func_int32_t_s_s+0x85>
    866a:	83 7d fc 00          	cmpl   $0x0,-0x4(%rbp)
    866e:	7e 14                	jle    8684 <safe_mul_func_int32_t_s_s+0x42>
    8670:	83 7d f8 00          	cmpl   $0x0,-0x8(%rbp)
    8674:	7f 0e                	jg     8684 <safe_mul_func_int32_t_s_s+0x42>
    8676:	b8 00 00 00 80       	mov    $0x80000000,%eax
    867b:	99                   	cltd   
    867c:	f7 7d fc             	idivl  -0x4(%rbp)
    867f:	39 45 f8             	cmp    %eax,-0x8(%rbp)
    8682:	7c 43                	jl     86c7 <safe_mul_func_int32_t_s_s+0x85>
    8684:	83 7d fc 00          	cmpl   $0x0,-0x4(%rbp)
    8688:	7f 14                	jg     869e <safe_mul_func_int32_t_s_s+0x5c>
    868a:	83 7d f8 00          	cmpl   $0x0,-0x8(%rbp)
    868e:	7e 0e                	jle    869e <safe_mul_func_int32_t_s_s+0x5c>
    8690:	b8 00 00 00 80       	mov    $0x80000000,%eax
    8695:	99                   	cltd   
    8696:	f7 7d f8             	idivl  -0x8(%rbp)
    8699:	39 45 fc             	cmp    %eax,-0x4(%rbp)
    869c:	7c 29                	jl     86c7 <safe_mul_func_int32_t_s_s+0x85>
    869e:	83 7d fc 00          	cmpl   $0x0,-0x4(%rbp)
    86a2:	7f 1a                	jg     86be <safe_mul_func_int32_t_s_s+0x7c>
    86a4:	83 7d f8 00          	cmpl   $0x0,-0x8(%rbp)
    86a8:	7f 14                	jg     86be <safe_mul_func_int32_t_s_s+0x7c>
    86aa:	83 7d fc 00          	cmpl   $0x0,-0x4(%rbp)
    86ae:	74 0e                	je     86be <safe_mul_func_int32_t_s_s+0x7c>
    86b0:	b8 ff ff ff 7f       	mov    $0x7fffffff,%eax
    86b5:	99                   	cltd   
    86b6:	f7 7d fc             	idivl  -0x4(%rbp)
    86b9:	39 45 f8             	cmp    %eax,-0x8(%rbp)
    86bc:	7c 09                	jl     86c7 <safe_mul_func_int32_t_s_s+0x85>
    86be:	8b 45 fc             	mov    -0x4(%rbp),%eax
    86c1:	0f af 45 f8          	imul   -0x8(%rbp),%eax
    86c5:	eb 03                	jmp    86ca <safe_mul_func_int32_t_s_s+0x88>
    86c7:	8b 45 fc             	mov    -0x4(%rbp),%eax
    86ca:	5d                   	pop    %rbp
    86cb:	c3                   	retq   

00000000000086cc <safe_mod_func_int32_t_s_s>:
    86cc:	f3 0f 1e fa          	endbr64 
    86d0:	55                   	push   %rbp
    86d1:	48 89 e5             	mov    %rsp,%rbp
    86d4:	89 7d fc             	mov    %edi,-0x4(%rbp)
    86d7:	89 75 f8             	mov    %esi,-0x8(%rbp)
    86da:	83 7d f8 00          	cmpl   $0x0,-0x8(%rbp)
    86de:	74 1a                	je     86fa <safe_mod_func_int32_t_s_s+0x2e>
    86e0:	81 7d fc 00 00 00 80 	cmpl   $0x80000000,-0x4(%rbp)
    86e7:	75 06                	jne    86ef <safe_mod_func_int32_t_s_s+0x23>
    86e9:	83 7d f8 ff          	cmpl   $0xffffffff,-0x8(%rbp)
    86ed:	74 0b                	je     86fa <safe_mod_func_int32_t_s_s+0x2e>
    86ef:	8b 45 fc             	mov    -0x4(%rbp),%eax
    86f2:	99                   	cltd   
    86f3:	f7 7d f8             	idivl  -0x8(%rbp)
    86f6:	89 d0                	mov    %edx,%eax
    86f8:	eb 03                	jmp    86fd <safe_mod_func_int32_t_s_s+0x31>
    86fa:	8b 45 fc             	mov    -0x4(%rbp),%eax
    86fd:	5d                   	pop    %rbp
    86fe:	c3                   	retq   

00000000000086ff <safe_div_func_int32_t_s_s>:
    86ff:	f3 0f 1e fa          	endbr64 
    8703:	55                   	push   %rbp
    8704:	48 89 e5             	mov    %rsp,%rbp
    8707:	89 7d fc             	mov    %edi,-0x4(%rbp)
    870a:	89 75 f8             	mov    %esi,-0x8(%rbp)
    870d:	83 7d f8 00          	cmpl   $0x0,-0x8(%rbp)
    8711:	74 18                	je     872b <safe_div_func_int32_t_s_s+0x2c>
    8713:	81 7d fc 00 00 00 80 	cmpl   $0x80000000,-0x4(%rbp)
    871a:	75 06                	jne    8722 <safe_div_func_int32_t_s_s+0x23>
    871c:	83 7d f8 ff          	cmpl   $0xffffffff,-0x8(%rbp)
    8720:	74 09                	je     872b <safe_div_func_int32_t_s_s+0x2c>
    8722:	8b 45 fc             	mov    -0x4(%rbp),%eax
    8725:	99                   	cltd   
    8726:	f7 7d f8             	idivl  -0x8(%rbp)
    8729:	eb 03                	jmp    872e <safe_div_func_int32_t_s_s+0x2f>
    872b:	8b 45 fc             	mov    -0x4(%rbp),%eax
    872e:	5d                   	pop    %rbp
    872f:	c3                   	retq   

0000000000008730 <safe_lshift_func_int32_t_s_s>:
    8730:	f3 0f 1e fa          	endbr64 
    8734:	55                   	push   %rbp
    8735:	48 89 e5             	mov    %rsp,%rbp
    8738:	89 7d fc             	mov    %edi,-0x4(%rbp)
    873b:	89 75 f8             	mov    %esi,-0x8(%rbp)
    873e:	83 7d fc 00          	cmpl   $0x0,-0x4(%rbp)
    8742:	78 2d                	js     8771 <safe_lshift_func_int32_t_s_s+0x41>
    8744:	83 7d f8 00          	cmpl   $0x0,-0x8(%rbp)
    8748:	78 27                	js     8771 <safe_lshift_func_int32_t_s_s+0x41>
    874a:	83 7d f8 1f          	cmpl   $0x1f,-0x8(%rbp)
    874e:	7f 21                	jg     8771 <safe_lshift_func_int32_t_s_s+0x41>
    8750:	8b 45 f8             	mov    -0x8(%rbp),%eax
    8753:	ba ff ff ff 7f       	mov    $0x7fffffff,%edx
    8758:	89 c1                	mov    %eax,%ecx
    875a:	d3 fa                	sar    %cl,%edx
    875c:	89 d0                	mov    %edx,%eax
    875e:	39 45 fc             	cmp    %eax,-0x4(%rbp)
    8761:	7f 0e                	jg     8771 <safe_lshift_func_int32_t_s_s+0x41>
    8763:	8b 45 f8             	mov    -0x8(%rbp),%eax
    8766:	8b 55 fc             	mov    -0x4(%rbp),%edx
    8769:	89 c1                	mov    %eax,%ecx
    876b:	d3 e2                	shl    %cl,%edx
    876d:	89 d0                	mov    %edx,%eax
    876f:	eb 03                	jmp    8774 <safe_lshift_func_int32_t_s_s+0x44>
    8771:	8b 45 fc             	mov    -0x4(%rbp),%eax
    8774:	5d                   	pop    %rbp
    8775:	c3                   	retq   

0000000000008776 <safe_lshift_func_int32_t_s_u>:
    8776:	f3 0f 1e fa          	endbr64 
    877a:	55                   	push   %rbp
    877b:	48 89 e5             	mov    %rsp,%rbp
    877e:	89 7d fc             	mov    %edi,-0x4(%rbp)
    8781:	89 75 f8             	mov    %esi,-0x8(%rbp)
    8784:	83 7d fc 00          	cmpl   $0x0,-0x4(%rbp)
    8788:	78 27                	js     87b1 <safe_lshift_func_int32_t_s_u+0x3b>
    878a:	83 7d f8 1f          	cmpl   $0x1f,-0x8(%rbp)
    878e:	77 21                	ja     87b1 <safe_lshift_func_int32_t_s_u+0x3b>
    8790:	8b 45 f8             	mov    -0x8(%rbp),%eax
    8793:	ba ff ff ff 7f       	mov    $0x7fffffff,%edx
    8798:	89 c1                	mov    %eax,%ecx
    879a:	d3 fa                	sar    %cl,%edx
    879c:	89 d0                	mov    %edx,%eax
    879e:	39 45 fc             	cmp    %eax,-0x4(%rbp)
    87a1:	7f 0e                	jg     87b1 <safe_lshift_func_int32_t_s_u+0x3b>
    87a3:	8b 45 f8             	mov    -0x8(%rbp),%eax
    87a6:	8b 55 fc             	mov    -0x4(%rbp),%edx
    87a9:	89 c1                	mov    %eax,%ecx
    87ab:	d3 e2                	shl    %cl,%edx
    87ad:	89 d0                	mov    %edx,%eax
    87af:	eb 03                	jmp    87b4 <safe_lshift_func_int32_t_s_u+0x3e>
    87b1:	8b 45 fc             	mov    -0x4(%rbp),%eax
    87b4:	5d                   	pop    %rbp
    87b5:	c3                   	retq   

00000000000087b6 <safe_rshift_func_int32_t_s_s>:
    87b6:	f3 0f 1e fa          	endbr64 
    87ba:	55                   	push   %rbp
    87bb:	48 89 e5             	mov    %rsp,%rbp
    87be:	89 7d fc             	mov    %edi,-0x4(%rbp)
    87c1:	89 75 f8             	mov    %esi,-0x8(%rbp)
    87c4:	83 7d fc 00          	cmpl   $0x0,-0x4(%rbp)
    87c8:	78 1a                	js     87e4 <safe_rshift_func_int32_t_s_s+0x2e>
    87ca:	83 7d f8 00          	cmpl   $0x0,-0x8(%rbp)
    87ce:	78 14                	js     87e4 <safe_rshift_func_int32_t_s_s+0x2e>
    87d0:	83 7d f8 1f          	cmpl   $0x1f,-0x8(%rbp)
    87d4:	7f 0e                	jg     87e4 <safe_rshift_func_int32_t_s_s+0x2e>
    87d6:	8b 45 f8             	mov    -0x8(%rbp),%eax
    87d9:	8b 55 fc             	mov    -0x4(%rbp),%edx
    87dc:	89 c1                	mov    %eax,%ecx
    87de:	d3 fa                	sar    %cl,%edx
    87e0:	89 d0                	mov    %edx,%eax
    87e2:	eb 03                	jmp    87e7 <safe_rshift_func_int32_t_s_s+0x31>
    87e4:	8b 45 fc             	mov    -0x4(%rbp),%eax
    87e7:	5d                   	pop    %rbp
    87e8:	c3                   	retq   

00000000000087e9 <safe_rshift_func_int32_t_s_u>:
    87e9:	f3 0f 1e fa          	endbr64 
    87ed:	55                   	push   %rbp
    87ee:	48 89 e5             	mov    %rsp,%rbp
    87f1:	89 7d fc             	mov    %edi,-0x4(%rbp)
    87f4:	89 75 f8             	mov    %esi,-0x8(%rbp)
    87f7:	83 7d fc 00          	cmpl   $0x0,-0x4(%rbp)
    87fb:	78 14                	js     8811 <safe_rshift_func_int32_t_s_u+0x28>
    87fd:	83 7d f8 1f          	cmpl   $0x1f,-0x8(%rbp)
    8801:	77 0e                	ja     8811 <safe_rshift_func_int32_t_s_u+0x28>
    8803:	8b 45 f8             	mov    -0x8(%rbp),%eax
    8806:	8b 55 fc             	mov    -0x4(%rbp),%edx
    8809:	89 c1                	mov    %eax,%ecx
    880b:	d3 fa                	sar    %cl,%edx
    880d:	89 d0                	mov    %edx,%eax
    880f:	eb 03                	jmp    8814 <safe_rshift_func_int32_t_s_u+0x2b>
    8811:	8b 45 fc             	mov    -0x4(%rbp),%eax
    8814:	5d                   	pop    %rbp
    8815:	c3                   	retq   

0000000000008816 <safe_unary_minus_func_int64_t_s>:
    8816:	f3 0f 1e fa          	endbr64 
    881a:	55                   	push   %rbp
    881b:	48 89 e5             	mov    %rsp,%rbp
    881e:	48 89 7d f8          	mov    %rdi,-0x8(%rbp)
    8822:	48 b8 00 00 00 00 00 	movabs $0x8000000000000000,%rax
    8829:	00 00 80 
    882c:	48 39 45 f8          	cmp    %rax,-0x8(%rbp)
    8830:	74 09                	je     883b <safe_unary_minus_func_int64_t_s+0x25>
    8832:	48 8b 45 f8          	mov    -0x8(%rbp),%rax
    8836:	48 f7 d8             	neg    %rax
    8839:	eb 04                	jmp    883f <safe_unary_minus_func_int64_t_s+0x29>
    883b:	48 8b 45 f8          	mov    -0x8(%rbp),%rax
    883f:	5d                   	pop    %rbp
    8840:	c3                   	retq   

0000000000008841 <safe_add_func_int64_t_s_s>:
    8841:	f3 0f 1e fa          	endbr64 
    8845:	55                   	push   %rbp
    8846:	48 89 e5             	mov    %rsp,%rbp
    8849:	48 89 7d f8          	mov    %rdi,-0x8(%rbp)
    884d:	48 89 75 f0          	mov    %rsi,-0x10(%rbp)
    8851:	48 83 7d f8 00       	cmpq   $0x0,-0x8(%rbp)
    8856:	7e 1b                	jle    8873 <safe_add_func_int64_t_s_s+0x32>
    8858:	48 83 7d f0 00       	cmpq   $0x0,-0x10(%rbp)
    885d:	7e 14                	jle    8873 <safe_add_func_int64_t_s_s+0x32>
    885f:	48 b8 ff ff ff ff ff 	movabs $0x7fffffffffffffff,%rax
    8866:	ff ff 7f 
    8869:	48 2b 45 f0          	sub    -0x10(%rbp),%rax
    886d:	48 39 45 f8          	cmp    %rax,-0x8(%rbp)
    8871:	7f 2f                	jg     88a2 <safe_add_func_int64_t_s_s+0x61>
    8873:	48 83 7d f8 00       	cmpq   $0x0,-0x8(%rbp)
    8878:	79 1b                	jns    8895 <safe_add_func_int64_t_s_s+0x54>
    887a:	48 83 7d f0 00       	cmpq   $0x0,-0x10(%rbp)
    887f:	79 14                	jns    8895 <safe_add_func_int64_t_s_s+0x54>
    8881:	48 b8 00 00 00 00 00 	movabs $0x8000000000000000,%rax
    8888:	00 00 80 
    888b:	48 2b 45 f0          	sub    -0x10(%rbp),%rax
    888f:	48 39 45 f8          	cmp    %rax,-0x8(%rbp)
    8893:	7c 0d                	jl     88a2 <safe_add_func_int64_t_s_s+0x61>
    8895:	48 8b 55 f8          	mov    -0x8(%rbp),%rdx
    8899:	48 8b 45 f0          	mov    -0x10(%rbp),%rax
    889d:	48 01 d0             	add    %rdx,%rax
    88a0:	eb 04                	jmp    88a6 <safe_add_func_int64_t_s_s+0x65>
    88a2:	48 8b 45 f8          	mov    -0x8(%rbp),%rax
    88a6:	5d                   	pop    %rbp
    88a7:	c3                   	retq   

00000000000088a8 <safe_sub_func_int64_t_s_s>:
    88a8:	f3 0f 1e fa          	endbr64 
    88ac:	55                   	push   %rbp
    88ad:	48 89 e5             	mov    %rsp,%rbp
    88b0:	48 89 7d f8          	mov    %rdi,-0x8(%rbp)
    88b4:	48 89 75 f0          	mov    %rsi,-0x10(%rbp)
    88b8:	48 8b 45 f8          	mov    -0x8(%rbp),%rax
    88bc:	48 33 45 f0          	xor    -0x10(%rbp),%rax
    88c0:	48 89 c2             	mov    %rax,%rdx
    88c3:	48 8b 45 f8          	mov    -0x8(%rbp),%rax
    88c7:	48 33 45 f0          	xor    -0x10(%rbp),%rax
    88cb:	48 b9 00 00 00 00 00 	movabs $0x8000000000000000,%rcx
    88d2:	00 00 80 
    88d5:	48 21 c8             	and    %rcx,%rax
    88d8:	48 33 45 f8          	xor    -0x8(%rbp),%rax
    88dc:	48 2b 45 f0          	sub    -0x10(%rbp),%rax
    88e0:	48 33 45 f0          	xor    -0x10(%rbp),%rax
    88e4:	48 21 d0             	and    %rdx,%rax
    88e7:	48 85 c0             	test   %rax,%rax
    88ea:	78 0a                	js     88f6 <safe_sub_func_int64_t_s_s+0x4e>
    88ec:	48 8b 45 f8          	mov    -0x8(%rbp),%rax
    88f0:	48 2b 45 f0          	sub    -0x10(%rbp),%rax
    88f4:	eb 04                	jmp    88fa <safe_sub_func_int64_t_s_s+0x52>
    88f6:	48 8b 45 f8          	mov    -0x8(%rbp),%rax
    88fa:	5d                   	pop    %rbp
    88fb:	c3                   	retq   

00000000000088fc <safe_mul_func_int64_t_s_s>:
    88fc:	f3 0f 1e fa          	endbr64 
    8900:	55                   	push   %rbp
    8901:	48 89 e5             	mov    %rsp,%rbp
    8904:	48 89 7d f8          	mov    %rdi,-0x8(%rbp)
    8908:	48 89 75 f0          	mov    %rsi,-0x10(%rbp)
    890c:	48 83 7d f8 00       	cmpq   $0x0,-0x8(%rbp)
    8911:	7e 1d                	jle    8930 <safe_mul_func_int64_t_s_s+0x34>
    8913:	48 83 7d f0 00       	cmpq   $0x0,-0x10(%rbp)
    8918:	7e 16                	jle    8930 <safe_mul_func_int64_t_s_s+0x34>
    891a:	48 b8 ff ff ff ff ff 	movabs $0x7fffffffffffffff,%rax
    8921:	ff ff 7f 
    8924:	48 99                	cqto   
    8926:	48 f7 7d f0          	idivq  -0x10(%rbp)
    892a:	48 39 45 f8          	cmp    %rax,-0x8(%rbp)
    892e:	7f 7e                	jg     89ae <safe_mul_func_int64_t_s_s+0xb2>
    8930:	48 83 7d f8 00       	cmpq   $0x0,-0x8(%rbp)
    8935:	7e 1d                	jle    8954 <safe_mul_func_int64_t_s_s+0x58>
    8937:	48 83 7d f0 00       	cmpq   $0x0,-0x10(%rbp)
    893c:	7f 16                	jg     8954 <safe_mul_func_int64_t_s_s+0x58>
    893e:	48 b8 00 00 00 00 00 	movabs $0x8000000000000000,%rax
    8945:	00 00 80 
    8948:	48 99                	cqto   
    894a:	48 f7 7d f8          	idivq  -0x8(%rbp)
    894e:	48 39 45 f0          	cmp    %rax,-0x10(%rbp)
    8952:	7c 5a                	jl     89ae <safe_mul_func_int64_t_s_s+0xb2>
    8954:	48 83 7d f8 00       	cmpq   $0x0,-0x8(%rbp)
    8959:	7f 1d                	jg     8978 <safe_mul_func_int64_t_s_s+0x7c>
    895b:	48 83 7d f0 00       	cmpq   $0x0,-0x10(%rbp)
    8960:	7e 16                	jle    8978 <safe_mul_func_int64_t_s_s+0x7c>
    8962:	48 b8 00 00 00 00 00 	movabs $0x8000000000000000,%rax
    8969:	00 00 80 
    896c:	48 99                	cqto   
    896e:	48 f7 7d f0          	idivq  -0x10(%rbp)
    8972:	48 39 45 f8          	cmp    %rax,-0x8(%rbp)
    8976:	7c 36                	jl     89ae <safe_mul_func_int64_t_s_s+0xb2>
    8978:	48 83 7d f8 00       	cmpq   $0x0,-0x8(%rbp)
    897d:	7f 24                	jg     89a3 <safe_mul_func_int64_t_s_s+0xa7>
    897f:	48 83 7d f0 00       	cmpq   $0x0,-0x10(%rbp)
    8984:	7f 1d                	jg     89a3 <safe_mul_func_int64_t_s_s+0xa7>
    8986:	48 83 7d f8 00       	cmpq   $0x0,-0x8(%rbp)
    898b:	74 16                	je     89a3 <safe_mul_func_int64_t_s_s+0xa7>
    898d:	48 b8 ff ff ff ff ff 	movabs $0x7fffffffffffffff,%rax
    8994:	ff ff 7f 
    8997:	48 99                	cqto   
    8999:	48 f7 7d f8          	idivq  -0x8(%rbp)
    899d:	48 39 45 f0          	cmp    %rax,-0x10(%rbp)
    89a1:	7c 0b                	jl     89ae <safe_mul_func_int64_t_s_s+0xb2>
    89a3:	48 8b 45 f8          	mov    -0x8(%rbp),%rax
    89a7:	48 0f af 45 f0       	imul   -0x10(%rbp),%rax
    89ac:	eb 04                	jmp    89b2 <safe_mul_func_int64_t_s_s+0xb6>
    89ae:	48 8b 45 f8          	mov    -0x8(%rbp),%rax
    89b2:	5d                   	pop    %rbp
    89b3:	c3                   	retq   

00000000000089b4 <safe_mod_func_int64_t_s_s>:
    89b4:	f3 0f 1e fa          	endbr64 
    89b8:	55                   	push   %rbp
    89b9:	48 89 e5             	mov    %rsp,%rbp
    89bc:	48 89 7d f8          	mov    %rdi,-0x8(%rbp)
    89c0:	48 89 75 f0          	mov    %rsi,-0x10(%rbp)
    89c4:	48 83 7d f0 00       	cmpq   $0x0,-0x10(%rbp)
    89c9:	74 26                	je     89f1 <safe_mod_func_int64_t_s_s+0x3d>
    89cb:	48 b8 00 00 00 00 00 	movabs $0x8000000000000000,%rax
    89d2:	00 00 80 
    89d5:	48 39 45 f8          	cmp    %rax,-0x8(%rbp)
    89d9:	75 07                	jne    89e2 <safe_mod_func_int64_t_s_s+0x2e>
    89db:	48 83 7d f0 ff       	cmpq   $0xffffffffffffffff,-0x10(%rbp)
    89e0:	74 0f                	je     89f1 <safe_mod_func_int64_t_s_s+0x3d>
    89e2:	48 8b 45 f8          	mov    -0x8(%rbp),%rax
    89e6:	48 99                	cqto   
    89e8:	48 f7 7d f0          	idivq  -0x10(%rbp)
    89ec:	48 89 d0             	mov    %rdx,%rax
    89ef:	eb 04                	jmp    89f5 <safe_mod_func_int64_t_s_s+0x41>
    89f1:	48 8b 45 f8          	mov    -0x8(%rbp),%rax
    89f5:	5d                   	pop    %rbp
    89f6:	c3                   	retq   

00000000000089f7 <safe_div_func_int64_t_s_s>:
    89f7:	f3 0f 1e fa          	endbr64 
    89fb:	55                   	push   %rbp
    89fc:	48 89 e5             	mov    %rsp,%rbp
    89ff:	48 89 7d f8          	mov    %rdi,-0x8(%rbp)
    8a03:	48 89 75 f0          	mov    %rsi,-0x10(%rbp)
    8a07:	48 83 7d f0 00       	cmpq   $0x0,-0x10(%rbp)
    8a0c:	74 23                	je     8a31 <safe_div_func_int64_t_s_s+0x3a>
    8a0e:	48 b8 00 00 00 00 00 	movabs $0x8000000000000000,%rax
    8a15:	00 00 80 
    8a18:	48 39 45 f8          	cmp    %rax,-0x8(%rbp)
    8a1c:	75 07                	jne    8a25 <safe_div_func_int64_t_s_s+0x2e>
    8a1e:	48 83 7d f0 ff       	cmpq   $0xffffffffffffffff,-0x10(%rbp)
    8a23:	74 0c                	je     8a31 <safe_div_func_int64_t_s_s+0x3a>
    8a25:	48 8b 45 f8          	mov    -0x8(%rbp),%rax
    8a29:	48 99                	cqto   
    8a2b:	48 f7 7d f0          	idivq  -0x10(%rbp)
    8a2f:	eb 04                	jmp    8a35 <safe_div_func_int64_t_s_s+0x3e>
    8a31:	48 8b 45 f8          	mov    -0x8(%rbp),%rax
    8a35:	5d                   	pop    %rbp
    8a36:	c3                   	retq   

0000000000008a37 <safe_lshift_func_int64_t_s_s>:
    8a37:	f3 0f 1e fa          	endbr64 
    8a3b:	55                   	push   %rbp
    8a3c:	48 89 e5             	mov    %rsp,%rbp
    8a3f:	48 89 7d f8          	mov    %rdi,-0x8(%rbp)
    8a43:	89 75 f4             	mov    %esi,-0xc(%rbp)
    8a46:	48 83 7d f8 00       	cmpq   $0x0,-0x8(%rbp)
    8a4b:	78 38                	js     8a85 <safe_lshift_func_int64_t_s_s+0x4e>
    8a4d:	83 7d f4 00          	cmpl   $0x0,-0xc(%rbp)
    8a51:	78 32                	js     8a85 <safe_lshift_func_int64_t_s_s+0x4e>
    8a53:	83 7d f4 1f          	cmpl   $0x1f,-0xc(%rbp)
    8a57:	7f 2c                	jg     8a85 <safe_lshift_func_int64_t_s_s+0x4e>
    8a59:	8b 45 f4             	mov    -0xc(%rbp),%eax
    8a5c:	48 ba ff ff ff ff ff 	movabs $0x7fffffffffffffff,%rdx
    8a63:	ff ff 7f 
    8a66:	89 c1                	mov    %eax,%ecx
    8a68:	48 d3 fa             	sar    %cl,%rdx
    8a6b:	48 89 d0             	mov    %rdx,%rax
    8a6e:	48 39 45 f8          	cmp    %rax,-0x8(%rbp)
    8a72:	7f 11                	jg     8a85 <safe_lshift_func_int64_t_s_s+0x4e>
    8a74:	8b 45 f4             	mov    -0xc(%rbp),%eax
    8a77:	48 8b 55 f8          	mov    -0x8(%rbp),%rdx
    8a7b:	89 c1                	mov    %eax,%ecx
    8a7d:	48 d3 e2             	shl    %cl,%rdx
    8a80:	48 89 d0             	mov    %rdx,%rax
    8a83:	eb 04                	jmp    8a89 <safe_lshift_func_int64_t_s_s+0x52>
    8a85:	48 8b 45 f8          	mov    -0x8(%rbp),%rax
    8a89:	5d                   	pop    %rbp
    8a8a:	c3                   	retq   

0000000000008a8b <safe_lshift_func_int64_t_s_u>:
    8a8b:	f3 0f 1e fa          	endbr64 
    8a8f:	55                   	push   %rbp
    8a90:	48 89 e5             	mov    %rsp,%rbp
    8a93:	48 89 7d f8          	mov    %rdi,-0x8(%rbp)
    8a97:	89 75 f4             	mov    %esi,-0xc(%rbp)
    8a9a:	48 83 7d f8 00       	cmpq   $0x0,-0x8(%rbp)
    8a9f:	78 32                	js     8ad3 <safe_lshift_func_int64_t_s_u+0x48>
    8aa1:	83 7d f4 1f          	cmpl   $0x1f,-0xc(%rbp)
    8aa5:	77 2c                	ja     8ad3 <safe_lshift_func_int64_t_s_u+0x48>
    8aa7:	8b 45 f4             	mov    -0xc(%rbp),%eax
    8aaa:	48 ba ff ff ff ff ff 	movabs $0x7fffffffffffffff,%rdx
    8ab1:	ff ff 7f 
    8ab4:	89 c1                	mov    %eax,%ecx
    8ab6:	48 d3 fa             	sar    %cl,%rdx
    8ab9:	48 89 d0             	mov    %rdx,%rax
    8abc:	48 39 45 f8          	cmp    %rax,-0x8(%rbp)
    8ac0:	7f 11                	jg     8ad3 <safe_lshift_func_int64_t_s_u+0x48>
    8ac2:	8b 45 f4             	mov    -0xc(%rbp),%eax
    8ac5:	48 8b 55 f8          	mov    -0x8(%rbp),%rdx
    8ac9:	89 c1                	mov    %eax,%ecx
    8acb:	48 d3 e2             	shl    %cl,%rdx
    8ace:	48 89 d0             	mov    %rdx,%rax
    8ad1:	eb 04                	jmp    8ad7 <safe_lshift_func_int64_t_s_u+0x4c>
    8ad3:	48 8b 45 f8          	mov    -0x8(%rbp),%rax
    8ad7:	5d                   	pop    %rbp
    8ad8:	c3                   	retq   

0000000000008ad9 <safe_rshift_func_int64_t_s_s>:
    8ad9:	f3 0f 1e fa          	endbr64 
    8add:	55                   	push   %rbp
    8ade:	48 89 e5             	mov    %rsp,%rbp
    8ae1:	48 89 7d f8          	mov    %rdi,-0x8(%rbp)
    8ae5:	89 75 f4             	mov    %esi,-0xc(%rbp)
    8ae8:	48 83 7d f8 00       	cmpq   $0x0,-0x8(%rbp)
    8aed:	78 1d                	js     8b0c <safe_rshift_func_int64_t_s_s+0x33>
    8aef:	83 7d f4 00          	cmpl   $0x0,-0xc(%rbp)
    8af3:	78 17                	js     8b0c <safe_rshift_func_int64_t_s_s+0x33>
    8af5:	83 7d f4 1f          	cmpl   $0x1f,-0xc(%rbp)
    8af9:	7f 11                	jg     8b0c <safe_rshift_func_int64_t_s_s+0x33>
    8afb:	8b 45 f4             	mov    -0xc(%rbp),%eax
    8afe:	48 8b 55 f8          	mov    -0x8(%rbp),%rdx
    8b02:	89 c1                	mov    %eax,%ecx
    8b04:	48 d3 fa             	sar    %cl,%rdx
    8b07:	48 89 d0             	mov    %rdx,%rax
    8b0a:	eb 04                	jmp    8b10 <safe_rshift_func_int64_t_s_s+0x37>
    8b0c:	48 8b 45 f8          	mov    -0x8(%rbp),%rax
    8b10:	5d                   	pop    %rbp
    8b11:	c3                   	retq   

0000000000008b12 <safe_rshift_func_int64_t_s_u>:
    8b12:	f3 0f 1e fa          	endbr64 
    8b16:	55                   	push   %rbp
    8b17:	48 89 e5             	mov    %rsp,%rbp
    8b1a:	48 89 7d f8          	mov    %rdi,-0x8(%rbp)
    8b1e:	89 75 f4             	mov    %esi,-0xc(%rbp)
    8b21:	48 83 7d f8 00       	cmpq   $0x0,-0x8(%rbp)
    8b26:	78 17                	js     8b3f <safe_rshift_func_int64_t_s_u+0x2d>
    8b28:	83 7d f4 1f          	cmpl   $0x1f,-0xc(%rbp)
    8b2c:	77 11                	ja     8b3f <safe_rshift_func_int64_t_s_u+0x2d>
    8b2e:	8b 45 f4             	mov    -0xc(%rbp),%eax
    8b31:	48 8b 55 f8          	mov    -0x8(%rbp),%rdx
    8b35:	89 c1                	mov    %eax,%ecx
    8b37:	48 d3 fa             	sar    %cl,%rdx
    8b3a:	48 89 d0             	mov    %rdx,%rax
    8b3d:	eb 04                	jmp    8b43 <safe_rshift_func_int64_t_s_u+0x31>
    8b3f:	48 8b 45 f8          	mov    -0x8(%rbp),%rax
    8b43:	5d                   	pop    %rbp
    8b44:	c3                   	retq   

0000000000008b45 <safe_unary_minus_func_uint8_t_u>:
    8b45:	f3 0f 1e fa          	endbr64 
    8b49:	55                   	push   %rbp
    8b4a:	48 89 e5             	mov    %rsp,%rbp
    8b4d:	89 f8                	mov    %edi,%eax
    8b4f:	88 45 fc             	mov    %al,-0x4(%rbp)
    8b52:	0f b6 45 fc          	movzbl -0x4(%rbp),%eax
    8b56:	f7 d8                	neg    %eax
    8b58:	5d                   	pop    %rbp
    8b59:	c3                   	retq   

0000000000008b5a <safe_add_func_uint8_t_u_u>:
    8b5a:	f3 0f 1e fa          	endbr64 
    8b5e:	55                   	push   %rbp
    8b5f:	48 89 e5             	mov    %rsp,%rbp
    8b62:	89 fa                	mov    %edi,%edx
    8b64:	89 f0                	mov    %esi,%eax
    8b66:	88 55 fc             	mov    %dl,-0x4(%rbp)
    8b69:	88 45 f8             	mov    %al,-0x8(%rbp)
    8b6c:	0f b6 55 fc          	movzbl -0x4(%rbp),%edx
    8b70:	0f b6 45 f8          	movzbl -0x8(%rbp),%eax
    8b74:	01 d0                	add    %edx,%eax
    8b76:	5d                   	pop    %rbp
    8b77:	c3                   	retq   

0000000000008b78 <safe_sub_func_uint8_t_u_u>:
    8b78:	f3 0f 1e fa          	endbr64 
    8b7c:	55                   	push   %rbp
    8b7d:	48 89 e5             	mov    %rsp,%rbp
    8b80:	89 fa                	mov    %edi,%edx
    8b82:	89 f0                	mov    %esi,%eax
    8b84:	88 55 fc             	mov    %dl,-0x4(%rbp)
    8b87:	88 45 f8             	mov    %al,-0x8(%rbp)
    8b8a:	0f b6 45 fc          	movzbl -0x4(%rbp),%eax
    8b8e:	2a 45 f8             	sub    -0x8(%rbp),%al
    8b91:	5d                   	pop    %rbp
    8b92:	c3                   	retq   

0000000000008b93 <safe_mul_func_uint8_t_u_u>:
    8b93:	f3 0f 1e fa          	endbr64 
    8b97:	55                   	push   %rbp
    8b98:	48 89 e5             	mov    %rsp,%rbp
    8b9b:	89 fa                	mov    %edi,%edx
    8b9d:	89 f0                	mov    %esi,%eax
    8b9f:	88 55 fc             	mov    %dl,-0x4(%rbp)
    8ba2:	88 45 f8             	mov    %al,-0x8(%rbp)
    8ba5:	0f b6 45 fc          	movzbl -0x4(%rbp),%eax
    8ba9:	f6 65 f8             	mulb   -0x8(%rbp)
    8bac:	5d                   	pop    %rbp
    8bad:	c3                   	retq   

0000000000008bae <safe_mod_func_uint8_t_u_u>:
    8bae:	f3 0f 1e fa          	endbr64 
    8bb2:	55                   	push   %rbp
    8bb3:	48 89 e5             	mov    %rsp,%rbp
    8bb6:	89 fa                	mov    %edi,%edx
    8bb8:	89 f0                	mov    %esi,%eax
    8bba:	88 55 fc             	mov    %dl,-0x4(%rbp)
    8bbd:	88 45 f8             	mov    %al,-0x8(%rbp)
    8bc0:	80 7d f8 00          	cmpb   $0x0,-0x8(%rbp)
    8bc4:	74 0f                	je     8bd5 <safe_mod_func_uint8_t_u_u+0x27>
    8bc6:	0f b6 45 fc          	movzbl -0x4(%rbp),%eax
    8bca:	0f b6 c0             	movzbl %al,%eax
    8bcd:	f6 75 f8             	divb   -0x8(%rbp)
    8bd0:	0f b6 c4             	movzbl %ah,%eax
    8bd3:	eb 04                	jmp    8bd9 <safe_mod_func_uint8_t_u_u+0x2b>
    8bd5:	0f b6 45 fc          	movzbl -0x4(%rbp),%eax
    8bd9:	5d                   	pop    %rbp
    8bda:	c3                   	retq   

0000000000008bdb <safe_div_func_uint8_t_u_u>:
    8bdb:	f3 0f 1e fa          	endbr64 
    8bdf:	55                   	push   %rbp
    8be0:	48 89 e5             	mov    %rsp,%rbp
    8be3:	89 fa                	mov    %edi,%edx
    8be5:	89 f0                	mov    %esi,%eax
    8be7:	88 55 fc             	mov    %dl,-0x4(%rbp)
    8bea:	88 45 f8             	mov    %al,-0x8(%rbp)
    8bed:	80 7d f8 00          	cmpb   $0x0,-0x8(%rbp)
    8bf1:	74 0c                	je     8bff <safe_div_func_uint8_t_u_u+0x24>
    8bf3:	0f b6 45 fc          	movzbl -0x4(%rbp),%eax
    8bf7:	0f b6 c0             	movzbl %al,%eax
    8bfa:	f6 75 f8             	divb   -0x8(%rbp)
    8bfd:	eb 04                	jmp    8c03 <safe_div_func_uint8_t_u_u+0x28>
    8bff:	0f b6 45 fc          	movzbl -0x4(%rbp),%eax
    8c03:	5d                   	pop    %rbp
    8c04:	c3                   	retq   

0000000000008c05 <safe_lshift_func_uint8_t_u_s>:
    8c05:	f3 0f 1e fa          	endbr64 
    8c09:	55                   	push   %rbp
    8c0a:	48 89 e5             	mov    %rsp,%rbp
    8c0d:	89 f8                	mov    %edi,%eax
    8c0f:	89 75 f8             	mov    %esi,-0x8(%rbp)
    8c12:	88 45 fc             	mov    %al,-0x4(%rbp)
    8c15:	83 7d f8 00          	cmpl   $0x0,-0x8(%rbp)
    8c19:	78 2b                	js     8c46 <safe_lshift_func_uint8_t_u_s+0x41>
    8c1b:	83 7d f8 1f          	cmpl   $0x1f,-0x8(%rbp)
    8c1f:	7f 25                	jg     8c46 <safe_lshift_func_uint8_t_u_s+0x41>
    8c21:	0f b6 55 fc          	movzbl -0x4(%rbp),%edx
    8c25:	8b 45 f8             	mov    -0x8(%rbp),%eax
    8c28:	be ff 00 00 00       	mov    $0xff,%esi
    8c2d:	89 c1                	mov    %eax,%ecx
    8c2f:	d3 fe                	sar    %cl,%esi
    8c31:	89 f0                	mov    %esi,%eax
    8c33:	39 c2                	cmp    %eax,%edx
    8c35:	7f 0f                	jg     8c46 <safe_lshift_func_uint8_t_u_s+0x41>
    8c37:	0f b6 55 fc          	movzbl -0x4(%rbp),%edx
    8c3b:	8b 45 f8             	mov    -0x8(%rbp),%eax
    8c3e:	89 c1                	mov    %eax,%ecx
    8c40:	d3 e2                	shl    %cl,%edx
    8c42:	89 d0                	mov    %edx,%eax
    8c44:	eb 04                	jmp    8c4a <safe_lshift_func_uint8_t_u_s+0x45>
    8c46:	0f b6 45 fc          	movzbl -0x4(%rbp),%eax
    8c4a:	5d                   	pop    %rbp
    8c4b:	c3                   	retq   

0000000000008c4c <safe_lshift_func_uint8_t_u_u>:
    8c4c:	f3 0f 1e fa          	endbr64 
    8c50:	55                   	push   %rbp
    8c51:	48 89 e5             	mov    %rsp,%rbp
    8c54:	89 f8                	mov    %edi,%eax
    8c56:	89 75 f8             	mov    %esi,-0x8(%rbp)
    8c59:	88 45 fc             	mov    %al,-0x4(%rbp)
    8c5c:	83 7d f8 1f          	cmpl   $0x1f,-0x8(%rbp)
    8c60:	77 25                	ja     8c87 <safe_lshift_func_uint8_t_u_u+0x3b>
    8c62:	0f b6 55 fc          	movzbl -0x4(%rbp),%edx
    8c66:	8b 45 f8             	mov    -0x8(%rbp),%eax
    8c69:	be ff 00 00 00       	mov    $0xff,%esi
    8c6e:	89 c1                	mov    %eax,%ecx
    8c70:	d3 fe                	sar    %cl,%esi
    8c72:	89 f0                	mov    %esi,%eax
    8c74:	39 c2                	cmp    %eax,%edx
    8c76:	7f 0f                	jg     8c87 <safe_lshift_func_uint8_t_u_u+0x3b>
    8c78:	0f b6 55 fc          	movzbl -0x4(%rbp),%edx
    8c7c:	8b 45 f8             	mov    -0x8(%rbp),%eax
    8c7f:	89 c1                	mov    %eax,%ecx
    8c81:	d3 e2                	shl    %cl,%edx
    8c83:	89 d0                	mov    %edx,%eax
    8c85:	eb 04                	jmp    8c8b <safe_lshift_func_uint8_t_u_u+0x3f>
    8c87:	0f b6 45 fc          	movzbl -0x4(%rbp),%eax
    8c8b:	5d                   	pop    %rbp
    8c8c:	c3                   	retq   

0000000000008c8d <safe_rshift_func_uint8_t_u_s>:
    8c8d:	f3 0f 1e fa          	endbr64 
    8c91:	55                   	push   %rbp
    8c92:	48 89 e5             	mov    %rsp,%rbp
    8c95:	89 f8                	mov    %edi,%eax
    8c97:	89 75 f8             	mov    %esi,-0x8(%rbp)
    8c9a:	88 45 fc             	mov    %al,-0x4(%rbp)
    8c9d:	83 7d f8 00          	cmpl   $0x0,-0x8(%rbp)
    8ca1:	78 15                	js     8cb8 <safe_rshift_func_uint8_t_u_s+0x2b>
    8ca3:	83 7d f8 1f          	cmpl   $0x1f,-0x8(%rbp)
    8ca7:	7f 0f                	jg     8cb8 <safe_rshift_func_uint8_t_u_s+0x2b>
    8ca9:	0f b6 55 fc          	movzbl -0x4(%rbp),%edx
    8cad:	8b 45 f8             	mov    -0x8(%rbp),%eax
    8cb0:	89 c1                	mov    %eax,%ecx
    8cb2:	d3 fa                	sar    %cl,%edx
    8cb4:	89 d0                	mov    %edx,%eax
    8cb6:	eb 04                	jmp    8cbc <safe_rshift_func_uint8_t_u_s+0x2f>
    8cb8:	0f b6 45 fc          	movzbl -0x4(%rbp),%eax
    8cbc:	5d                   	pop    %rbp
    8cbd:	c3                   	retq   

0000000000008cbe <safe_rshift_func_uint8_t_u_u>:
    8cbe:	f3 0f 1e fa          	endbr64 
    8cc2:	55                   	push   %rbp
    8cc3:	48 89 e5             	mov    %rsp,%rbp
    8cc6:	89 f8                	mov    %edi,%eax
    8cc8:	89 75 f8             	mov    %esi,-0x8(%rbp)
    8ccb:	88 45 fc             	mov    %al,-0x4(%rbp)
    8cce:	83 7d f8 1f          	cmpl   $0x1f,-0x8(%rbp)
    8cd2:	77 0f                	ja     8ce3 <safe_rshift_func_uint8_t_u_u+0x25>
    8cd4:	0f b6 55 fc          	movzbl -0x4(%rbp),%edx
    8cd8:	8b 45 f8             	mov    -0x8(%rbp),%eax
    8cdb:	89 c1                	mov    %eax,%ecx
    8cdd:	d3 fa                	sar    %cl,%edx
    8cdf:	89 d0                	mov    %edx,%eax
    8ce1:	eb 04                	jmp    8ce7 <safe_rshift_func_uint8_t_u_u+0x29>
    8ce3:	0f b6 45 fc          	movzbl -0x4(%rbp),%eax
    8ce7:	5d                   	pop    %rbp
    8ce8:	c3                   	retq   

0000000000008ce9 <safe_unary_minus_func_uint16_t_u>:
    8ce9:	f3 0f 1e fa          	endbr64 
    8ced:	55                   	push   %rbp
    8cee:	48 89 e5             	mov    %rsp,%rbp
    8cf1:	89 f8                	mov    %edi,%eax
    8cf3:	66 89 45 fc          	mov    %ax,-0x4(%rbp)
    8cf7:	0f b7 45 fc          	movzwl -0x4(%rbp),%eax
    8cfb:	f7 d8                	neg    %eax
    8cfd:	5d                   	pop    %rbp
    8cfe:	c3                   	retq   

0000000000008cff <safe_add_func_uint16_t_u_u>:
    8cff:	f3 0f 1e fa          	endbr64 
    8d03:	55                   	push   %rbp
    8d04:	48 89 e5             	mov    %rsp,%rbp
    8d07:	89 fa                	mov    %edi,%edx
    8d09:	89 f0                	mov    %esi,%eax
    8d0b:	66 89 55 fc          	mov    %dx,-0x4(%rbp)
    8d0f:	66 89 45 f8          	mov    %ax,-0x8(%rbp)
    8d13:	0f b7 55 fc          	movzwl -0x4(%rbp),%edx
    8d17:	0f b7 45 f8          	movzwl -0x8(%rbp),%eax
    8d1b:	01 d0                	add    %edx,%eax
    8d1d:	5d                   	pop    %rbp
    8d1e:	c3                   	retq   

0000000000008d1f <safe_sub_func_uint16_t_u_u>:
    8d1f:	f3 0f 1e fa          	endbr64 
    8d23:	55                   	push   %rbp
    8d24:	48 89 e5             	mov    %rsp,%rbp
    8d27:	89 fa                	mov    %edi,%edx
    8d29:	89 f0                	mov    %esi,%eax
    8d2b:	66 89 55 fc          	mov    %dx,-0x4(%rbp)
    8d2f:	66 89 45 f8          	mov    %ax,-0x8(%rbp)
    8d33:	0f b7 45 fc          	movzwl -0x4(%rbp),%eax
    8d37:	66 2b 45 f8          	sub    -0x8(%rbp),%ax
    8d3b:	5d                   	pop    %rbp
    8d3c:	c3                   	retq   

0000000000008d3d <safe_mul_func_uint16_t_u_u>:
    8d3d:	f3 0f 1e fa          	endbr64 
    8d41:	55                   	push   %rbp
    8d42:	48 89 e5             	mov    %rsp,%rbp
    8d45:	89 fa                	mov    %edi,%edx
    8d47:	89 f0                	mov    %esi,%eax
    8d49:	66 89 55 fc          	mov    %dx,-0x4(%rbp)
    8d4d:	66 89 45 f8          	mov    %ax,-0x8(%rbp)
    8d51:	0f b7 45 fc          	movzwl -0x4(%rbp),%eax
    8d55:	66 0f af 45 f8       	imul   -0x8(%rbp),%ax
    8d5a:	5d                   	pop    %rbp
    8d5b:	c3                   	retq   

0000000000008d5c <safe_mod_func_uint16_t_u_u>:
    8d5c:	f3 0f 1e fa          	endbr64 
    8d60:	55                   	push   %rbp
    8d61:	48 89 e5             	mov    %rsp,%rbp
    8d64:	89 fa                	mov    %edi,%edx
    8d66:	89 f0                	mov    %esi,%eax
    8d68:	66 89 55 fc          	mov    %dx,-0x4(%rbp)
    8d6c:	66 89 45 f8          	mov    %ax,-0x8(%rbp)
    8d70:	66 83 7d f8 00       	cmpw   $0x0,-0x8(%rbp)
    8d75:	74 11                	je     8d88 <safe_mod_func_uint16_t_u_u+0x2c>
    8d77:	0f b7 45 fc          	movzwl -0x4(%rbp),%eax
    8d7b:	ba 00 00 00 00       	mov    $0x0,%edx
    8d80:	66 f7 75 f8          	divw   -0x8(%rbp)
    8d84:	89 d0                	mov    %edx,%eax
    8d86:	eb 04                	jmp    8d8c <safe_mod_func_uint16_t_u_u+0x30>
    8d88:	0f b7 45 fc          	movzwl -0x4(%rbp),%eax
    8d8c:	5d                   	pop    %rbp
    8d8d:	c3                   	retq   

0000000000008d8e <safe_div_func_uint16_t_u_u>:
    8d8e:	f3 0f 1e fa          	endbr64 
    8d92:	55                   	push   %rbp
    8d93:	48 89 e5             	mov    %rsp,%rbp
    8d96:	89 fa                	mov    %edi,%edx
    8d98:	89 f0                	mov    %esi,%eax
    8d9a:	66 89 55 fc          	mov    %dx,-0x4(%rbp)
    8d9e:	66 89 45 f8          	mov    %ax,-0x8(%rbp)
    8da2:	66 83 7d f8 00       	cmpw   $0x0,-0x8(%rbp)
    8da7:	74 0f                	je     8db8 <safe_div_func_uint16_t_u_u+0x2a>
    8da9:	0f b7 45 fc          	movzwl -0x4(%rbp),%eax
    8dad:	ba 00 00 00 00       	mov    $0x0,%edx
    8db2:	66 f7 75 f8          	divw   -0x8(%rbp)
    8db6:	eb 04                	jmp    8dbc <safe_div_func_uint16_t_u_u+0x2e>
    8db8:	0f b7 45 fc          	movzwl -0x4(%rbp),%eax
    8dbc:	5d                   	pop    %rbp
    8dbd:	c3                   	retq   

0000000000008dbe <safe_lshift_func_uint16_t_u_s>:
    8dbe:	f3 0f 1e fa          	endbr64 
    8dc2:	55                   	push   %rbp
    8dc3:	48 89 e5             	mov    %rsp,%rbp
    8dc6:	89 f8                	mov    %edi,%eax
    8dc8:	89 75 f8             	mov    %esi,-0x8(%rbp)
    8dcb:	66 89 45 fc          	mov    %ax,-0x4(%rbp)
    8dcf:	83 7d f8 00          	cmpl   $0x0,-0x8(%rbp)
    8dd3:	78 2b                	js     8e00 <safe_lshift_func_uint16_t_u_s+0x42>
    8dd5:	83 7d f8 1f          	cmpl   $0x1f,-0x8(%rbp)
    8dd9:	7f 25                	jg     8e00 <safe_lshift_func_uint16_t_u_s+0x42>
    8ddb:	0f b7 55 fc          	movzwl -0x4(%rbp),%edx
    8ddf:	8b 45 f8             	mov    -0x8(%rbp),%eax
    8de2:	be ff ff 00 00       	mov    $0xffff,%esi
    8de7:	89 c1                	mov    %eax,%ecx
    8de9:	d3 fe                	sar    %cl,%esi
    8deb:	89 f0                	mov    %esi,%eax
    8ded:	39 c2                	cmp    %eax,%edx
    8def:	7f 0f                	jg     8e00 <safe_lshift_func_uint16_t_u_s+0x42>
    8df1:	0f b7 55 fc          	movzwl -0x4(%rbp),%edx
    8df5:	8b 45 f8             	mov    -0x8(%rbp),%eax
    8df8:	89 c1                	mov    %eax,%ecx
    8dfa:	d3 e2                	shl    %cl,%edx
    8dfc:	89 d0                	mov    %edx,%eax
    8dfe:	eb 04                	jmp    8e04 <safe_lshift_func_uint16_t_u_s+0x46>
    8e00:	0f b7 45 fc          	movzwl -0x4(%rbp),%eax
    8e04:	5d                   	pop    %rbp
    8e05:	c3                   	retq   

0000000000008e06 <safe_lshift_func_uint16_t_u_u>:
    8e06:	f3 0f 1e fa          	endbr64 
    8e0a:	55                   	push   %rbp
    8e0b:	48 89 e5             	mov    %rsp,%rbp
    8e0e:	89 f8                	mov    %edi,%eax
    8e10:	89 75 f8             	mov    %esi,-0x8(%rbp)
    8e13:	66 89 45 fc          	mov    %ax,-0x4(%rbp)
    8e17:	83 7d f8 1f          	cmpl   $0x1f,-0x8(%rbp)
    8e1b:	77 25                	ja     8e42 <safe_lshift_func_uint16_t_u_u+0x3c>
    8e1d:	0f b7 55 fc          	movzwl -0x4(%rbp),%edx
    8e21:	8b 45 f8             	mov    -0x8(%rbp),%eax
    8e24:	be ff ff 00 00       	mov    $0xffff,%esi
    8e29:	89 c1                	mov    %eax,%ecx
    8e2b:	d3 fe                	sar    %cl,%esi
    8e2d:	89 f0                	mov    %esi,%eax
    8e2f:	39 c2                	cmp    %eax,%edx
    8e31:	7f 0f                	jg     8e42 <safe_lshift_func_uint16_t_u_u+0x3c>
    8e33:	0f b7 55 fc          	movzwl -0x4(%rbp),%edx
    8e37:	8b 45 f8             	mov    -0x8(%rbp),%eax
    8e3a:	89 c1                	mov    %eax,%ecx
    8e3c:	d3 e2                	shl    %cl,%edx
    8e3e:	89 d0                	mov    %edx,%eax
    8e40:	eb 04                	jmp    8e46 <safe_lshift_func_uint16_t_u_u+0x40>
    8e42:	0f b7 45 fc          	movzwl -0x4(%rbp),%eax
    8e46:	5d                   	pop    %rbp
    8e47:	c3                   	retq   

0000000000008e48 <safe_rshift_func_uint16_t_u_s>:
    8e48:	f3 0f 1e fa          	endbr64 
    8e4c:	55                   	push   %rbp
    8e4d:	48 89 e5             	mov    %rsp,%rbp
    8e50:	89 f8                	mov    %edi,%eax
    8e52:	89 75 f8             	mov    %esi,-0x8(%rbp)
    8e55:	66 89 45 fc          	mov    %ax,-0x4(%rbp)
    8e59:	83 7d f8 00          	cmpl   $0x0,-0x8(%rbp)
    8e5d:	78 15                	js     8e74 <safe_rshift_func_uint16_t_u_s+0x2c>
    8e5f:	83 7d f8 1f          	cmpl   $0x1f,-0x8(%rbp)
    8e63:	7f 0f                	jg     8e74 <safe_rshift_func_uint16_t_u_s+0x2c>
    8e65:	0f b7 55 fc          	movzwl -0x4(%rbp),%edx
    8e69:	8b 45 f8             	mov    -0x8(%rbp),%eax
    8e6c:	89 c1                	mov    %eax,%ecx
    8e6e:	d3 fa                	sar    %cl,%edx
    8e70:	89 d0                	mov    %edx,%eax
    8e72:	eb 04                	jmp    8e78 <safe_rshift_func_uint16_t_u_s+0x30>
    8e74:	0f b7 45 fc          	movzwl -0x4(%rbp),%eax
    8e78:	5d                   	pop    %rbp
    8e79:	c3                   	retq   

0000000000008e7a <safe_rshift_func_uint16_t_u_u>:
    8e7a:	f3 0f 1e fa          	endbr64 
    8e7e:	55                   	push   %rbp
    8e7f:	48 89 e5             	mov    %rsp,%rbp
    8e82:	89 f8                	mov    %edi,%eax
    8e84:	89 75 f8             	mov    %esi,-0x8(%rbp)
    8e87:	66 89 45 fc          	mov    %ax,-0x4(%rbp)
    8e8b:	83 7d f8 1f          	cmpl   $0x1f,-0x8(%rbp)
    8e8f:	77 0f                	ja     8ea0 <safe_rshift_func_uint16_t_u_u+0x26>
    8e91:	0f b7 55 fc          	movzwl -0x4(%rbp),%edx
    8e95:	8b 45 f8             	mov    -0x8(%rbp),%eax
    8e98:	89 c1                	mov    %eax,%ecx
    8e9a:	d3 fa                	sar    %cl,%edx
    8e9c:	89 d0                	mov    %edx,%eax
    8e9e:	eb 04                	jmp    8ea4 <safe_rshift_func_uint16_t_u_u+0x2a>
    8ea0:	0f b7 45 fc          	movzwl -0x4(%rbp),%eax
    8ea4:	5d                   	pop    %rbp
    8ea5:	c3                   	retq   

0000000000008ea6 <safe_unary_minus_func_uint32_t_u>:
    8ea6:	f3 0f 1e fa          	endbr64 
    8eaa:	55                   	push   %rbp
    8eab:	48 89 e5             	mov    %rsp,%rbp
    8eae:	89 7d fc             	mov    %edi,-0x4(%rbp)
    8eb1:	8b 45 fc             	mov    -0x4(%rbp),%eax
    8eb4:	f7 d8                	neg    %eax
    8eb6:	5d                   	pop    %rbp
    8eb7:	c3                   	retq   

0000000000008eb8 <safe_add_func_uint32_t_u_u>:
    8eb8:	f3 0f 1e fa          	endbr64 
    8ebc:	55                   	push   %rbp
    8ebd:	48 89 e5             	mov    %rsp,%rbp
    8ec0:	89 7d fc             	mov    %edi,-0x4(%rbp)
    8ec3:	89 75 f8             	mov    %esi,-0x8(%rbp)
    8ec6:	8b 55 fc             	mov    -0x4(%rbp),%edx
    8ec9:	8b 45 f8             	mov    -0x8(%rbp),%eax
    8ecc:	01 d0                	add    %edx,%eax
    8ece:	5d                   	pop    %rbp
    8ecf:	c3                   	retq   

0000000000008ed0 <safe_sub_func_uint32_t_u_u>:
    8ed0:	f3 0f 1e fa          	endbr64 
    8ed4:	55                   	push   %rbp
    8ed5:	48 89 e5             	mov    %rsp,%rbp
    8ed8:	89 7d fc             	mov    %edi,-0x4(%rbp)
    8edb:	89 75 f8             	mov    %esi,-0x8(%rbp)
    8ede:	8b 45 fc             	mov    -0x4(%rbp),%eax
    8ee1:	2b 45 f8             	sub    -0x8(%rbp),%eax
    8ee4:	5d                   	pop    %rbp
    8ee5:	c3                   	retq   

0000000000008ee6 <safe_mul_func_uint32_t_u_u>:
    8ee6:	f3 0f 1e fa          	endbr64 
    8eea:	55                   	push   %rbp
    8eeb:	48 89 e5             	mov    %rsp,%rbp
    8eee:	89 7d fc             	mov    %edi,-0x4(%rbp)
    8ef1:	89 75 f8             	mov    %esi,-0x8(%rbp)
    8ef4:	8b 45 fc             	mov    -0x4(%rbp),%eax
    8ef7:	0f af 45 f8          	imul   -0x8(%rbp),%eax
    8efb:	5d                   	pop    %rbp
    8efc:	c3                   	retq   

0000000000008efd <safe_mod_func_uint32_t_u_u>:
    8efd:	f3 0f 1e fa          	endbr64 
    8f01:	55                   	push   %rbp
    8f02:	48 89 e5             	mov    %rsp,%rbp
    8f05:	89 7d fc             	mov    %edi,-0x4(%rbp)
    8f08:	89 75 f8             	mov    %esi,-0x8(%rbp)
    8f0b:	83 7d f8 00          	cmpl   $0x0,-0x8(%rbp)
    8f0f:	74 0f                	je     8f20 <safe_mod_func_uint32_t_u_u+0x23>
    8f11:	8b 45 fc             	mov    -0x4(%rbp),%eax
    8f14:	ba 00 00 00 00       	mov    $0x0,%edx
    8f19:	f7 75 f8             	divl   -0x8(%rbp)
    8f1c:	89 d0                	mov    %edx,%eax
    8f1e:	eb 03                	jmp    8f23 <safe_mod_func_uint32_t_u_u+0x26>
    8f20:	8b 45 fc             	mov    -0x4(%rbp),%eax
    8f23:	5d                   	pop    %rbp
    8f24:	c3                   	retq   

0000000000008f25 <safe_div_func_uint32_t_u_u>:
    8f25:	f3 0f 1e fa          	endbr64 
    8f29:	55                   	push   %rbp
    8f2a:	48 89 e5             	mov    %rsp,%rbp
    8f2d:	89 7d fc             	mov    %edi,-0x4(%rbp)
    8f30:	89 75 f8             	mov    %esi,-0x8(%rbp)
    8f33:	83 7d f8 00          	cmpl   $0x0,-0x8(%rbp)
    8f37:	74 0d                	je     8f46 <safe_div_func_uint32_t_u_u+0x21>
    8f39:	8b 45 fc             	mov    -0x4(%rbp),%eax
    8f3c:	ba 00 00 00 00       	mov    $0x0,%edx
    8f41:	f7 75 f8             	divl   -0x8(%rbp)
    8f44:	eb 03                	jmp    8f49 <safe_div_func_uint32_t_u_u+0x24>
    8f46:	8b 45 fc             	mov    -0x4(%rbp),%eax
    8f49:	5d                   	pop    %rbp
    8f4a:	c3                   	retq   

0000000000008f4b <safe_lshift_func_uint32_t_u_s>:
    8f4b:	f3 0f 1e fa          	endbr64 
    8f4f:	55                   	push   %rbp
    8f50:	48 89 e5             	mov    %rsp,%rbp
    8f53:	89 7d fc             	mov    %edi,-0x4(%rbp)
    8f56:	89 75 f8             	mov    %esi,-0x8(%rbp)
    8f59:	83 7d f8 00          	cmpl   $0x0,-0x8(%rbp)
    8f5d:	78 27                	js     8f86 <safe_lshift_func_uint32_t_u_s+0x3b>
    8f5f:	83 7d f8 1f          	cmpl   $0x1f,-0x8(%rbp)
    8f63:	7f 21                	jg     8f86 <safe_lshift_func_uint32_t_u_s+0x3b>
    8f65:	8b 45 f8             	mov    -0x8(%rbp),%eax
    8f68:	ba ff ff ff ff       	mov    $0xffffffff,%edx
    8f6d:	89 c1                	mov    %eax,%ecx
    8f6f:	d3 ea                	shr    %cl,%edx
    8f71:	89 d0                	mov    %edx,%eax
    8f73:	39 45 fc             	cmp    %eax,-0x4(%rbp)
    8f76:	77 0e                	ja     8f86 <safe_lshift_func_uint32_t_u_s+0x3b>
    8f78:	8b 45 f8             	mov    -0x8(%rbp),%eax
    8f7b:	8b 55 fc             	mov    -0x4(%rbp),%edx
    8f7e:	89 c1                	mov    %eax,%ecx
    8f80:	d3 e2                	shl    %cl,%edx
    8f82:	89 d0                	mov    %edx,%eax
    8f84:	eb 03                	jmp    8f89 <safe_lshift_func_uint32_t_u_s+0x3e>
    8f86:	8b 45 fc             	mov    -0x4(%rbp),%eax
    8f89:	5d                   	pop    %rbp
    8f8a:	c3                   	retq   

0000000000008f8b <safe_lshift_func_uint32_t_u_u>:
    8f8b:	f3 0f 1e fa          	endbr64 
    8f8f:	55                   	push   %rbp
    8f90:	48 89 e5             	mov    %rsp,%rbp
    8f93:	89 7d fc             	mov    %edi,-0x4(%rbp)
    8f96:	89 75 f8             	mov    %esi,-0x8(%rbp)
    8f99:	83 7d f8 1f          	cmpl   $0x1f,-0x8(%rbp)
    8f9d:	77 21                	ja     8fc0 <safe_lshift_func_uint32_t_u_u+0x35>
    8f9f:	8b 45 f8             	mov    -0x8(%rbp),%eax
    8fa2:	ba ff ff ff ff       	mov    $0xffffffff,%edx
    8fa7:	89 c1                	mov    %eax,%ecx
    8fa9:	d3 ea                	shr    %cl,%edx
    8fab:	89 d0                	mov    %edx,%eax
    8fad:	39 45 fc             	cmp    %eax,-0x4(%rbp)
    8fb0:	77 0e                	ja     8fc0 <safe_lshift_func_uint32_t_u_u+0x35>
    8fb2:	8b 45 f8             	mov    -0x8(%rbp),%eax
    8fb5:	8b 55 fc             	mov    -0x4(%rbp),%edx
    8fb8:	89 c1                	mov    %eax,%ecx
    8fba:	d3 e2                	shl    %cl,%edx
    8fbc:	89 d0                	mov    %edx,%eax
    8fbe:	eb 03                	jmp    8fc3 <safe_lshift_func_uint32_t_u_u+0x38>
    8fc0:	8b 45 fc             	mov    -0x4(%rbp),%eax
    8fc3:	5d                   	pop    %rbp
    8fc4:	c3                   	retq   

0000000000008fc5 <safe_rshift_func_uint32_t_u_s>:
    8fc5:	f3 0f 1e fa          	endbr64 
    8fc9:	55                   	push   %rbp
    8fca:	48 89 e5             	mov    %rsp,%rbp
    8fcd:	89 7d fc             	mov    %edi,-0x4(%rbp)
    8fd0:	89 75 f8             	mov    %esi,-0x8(%rbp)
    8fd3:	83 7d f8 00          	cmpl   $0x0,-0x8(%rbp)
    8fd7:	78 14                	js     8fed <safe_rshift_func_uint32_t_u_s+0x28>
    8fd9:	83 7d f8 1f          	cmpl   $0x1f,-0x8(%rbp)
    8fdd:	7f 0e                	jg     8fed <safe_rshift_func_uint32_t_u_s+0x28>
    8fdf:	8b 45 f8             	mov    -0x8(%rbp),%eax
    8fe2:	8b 55 fc             	mov    -0x4(%rbp),%edx
    8fe5:	89 c1                	mov    %eax,%ecx
    8fe7:	d3 ea                	shr    %cl,%edx
    8fe9:	89 d0                	mov    %edx,%eax
    8feb:	eb 03                	jmp    8ff0 <safe_rshift_func_uint32_t_u_s+0x2b>
    8fed:	8b 45 fc             	mov    -0x4(%rbp),%eax
    8ff0:	5d                   	pop    %rbp
    8ff1:	c3                   	retq   

0000000000008ff2 <safe_rshift_func_uint32_t_u_u>:
    8ff2:	f3 0f 1e fa          	endbr64 
    8ff6:	55                   	push   %rbp
    8ff7:	48 89 e5             	mov    %rsp,%rbp
    8ffa:	89 7d fc             	mov    %edi,-0x4(%rbp)
    8ffd:	89 75 f8             	mov    %esi,-0x8(%rbp)
    9000:	83 7d f8 1f          	cmpl   $0x1f,-0x8(%rbp)
    9004:	77 0e                	ja     9014 <safe_rshift_func_uint32_t_u_u+0x22>
    9006:	8b 45 f8             	mov    -0x8(%rbp),%eax
    9009:	8b 55 fc             	mov    -0x4(%rbp),%edx
    900c:	89 c1                	mov    %eax,%ecx
    900e:	d3 ea                	shr    %cl,%edx
    9010:	89 d0                	mov    %edx,%eax
    9012:	eb 03                	jmp    9017 <safe_rshift_func_uint32_t_u_u+0x25>
    9014:	8b 45 fc             	mov    -0x4(%rbp),%eax
    9017:	5d                   	pop    %rbp
    9018:	c3                   	retq   

0000000000009019 <safe_unary_minus_func_uint64_t_u>:
    9019:	f3 0f 1e fa          	endbr64 
    901d:	55                   	push   %rbp
    901e:	48 89 e5             	mov    %rsp,%rbp
    9021:	48 89 7d f8          	mov    %rdi,-0x8(%rbp)
    9025:	48 8b 45 f8          	mov    -0x8(%rbp),%rax
    9029:	48 f7 d8             	neg    %rax
    902c:	5d                   	pop    %rbp
    902d:	c3                   	retq   

000000000000902e <safe_add_func_uint64_t_u_u>:
    902e:	f3 0f 1e fa          	endbr64 
    9032:	55                   	push   %rbp
    9033:	48 89 e5             	mov    %rsp,%rbp
    9036:	48 89 7d f8          	mov    %rdi,-0x8(%rbp)
    903a:	48 89 75 f0          	mov    %rsi,-0x10(%rbp)
    903e:	48 8b 55 f8          	mov    -0x8(%rbp),%rdx
    9042:	48 8b 45 f0          	mov    -0x10(%rbp),%rax
    9046:	48 01 d0             	add    %rdx,%rax
    9049:	5d                   	pop    %rbp
    904a:	c3                   	retq   

000000000000904b <safe_sub_func_uint64_t_u_u>:
    904b:	f3 0f 1e fa          	endbr64 
    904f:	55                   	push   %rbp
    9050:	48 89 e5             	mov    %rsp,%rbp
    9053:	48 89 7d f8          	mov    %rdi,-0x8(%rbp)
    9057:	48 89 75 f0          	mov    %rsi,-0x10(%rbp)
    905b:	48 8b 45 f8          	mov    -0x8(%rbp),%rax
    905f:	48 2b 45 f0          	sub    -0x10(%rbp),%rax
    9063:	5d                   	pop    %rbp
    9064:	c3                   	retq   

0000000000009065 <safe_mul_func_uint64_t_u_u>:
    9065:	f3 0f 1e fa          	endbr64 
    9069:	55                   	push   %rbp
    906a:	48 89 e5             	mov    %rsp,%rbp
    906d:	48 89 7d f8          	mov    %rdi,-0x8(%rbp)
    9071:	48 89 75 f0          	mov    %rsi,-0x10(%rbp)
    9075:	48 8b 45 f8          	mov    -0x8(%rbp),%rax
    9079:	48 0f af 45 f0       	imul   -0x10(%rbp),%rax
    907e:	5d                   	pop    %rbp
    907f:	c3                   	retq   

0000000000009080 <safe_mod_func_uint64_t_u_u>:
    9080:	f3 0f 1e fa          	endbr64 
    9084:	55                   	push   %rbp
    9085:	48 89 e5             	mov    %rsp,%rbp
    9088:	48 89 7d f8          	mov    %rdi,-0x8(%rbp)
    908c:	48 89 75 f0          	mov    %rsi,-0x10(%rbp)
    9090:	48 83 7d f0 00       	cmpq   $0x0,-0x10(%rbp)
    9095:	74 12                	je     90a9 <safe_mod_func_uint64_t_u_u+0x29>
    9097:	48 8b 45 f8          	mov    -0x8(%rbp),%rax
    909b:	ba 00 00 00 00       	mov    $0x0,%edx
    90a0:	48 f7 75 f0          	divq   -0x10(%rbp)
    90a4:	48 89 d0             	mov    %rdx,%rax
    90a7:	eb 04                	jmp    90ad <safe_mod_func_uint64_t_u_u+0x2d>
    90a9:	48 8b 45 f8          	mov    -0x8(%rbp),%rax
    90ad:	5d                   	pop    %rbp
    90ae:	c3                   	retq   

00000000000090af <safe_div_func_uint64_t_u_u>:
    90af:	f3 0f 1e fa          	endbr64 
    90b3:	55                   	push   %rbp
    90b4:	48 89 e5             	mov    %rsp,%rbp
    90b7:	48 89 7d f8          	mov    %rdi,-0x8(%rbp)
    90bb:	48 89 75 f0          	mov    %rsi,-0x10(%rbp)
    90bf:	48 83 7d f0 00       	cmpq   $0x0,-0x10(%rbp)
    90c4:	74 0f                	je     90d5 <safe_div_func_uint64_t_u_u+0x26>
    90c6:	48 8b 45 f8          	mov    -0x8(%rbp),%rax
    90ca:	ba 00 00 00 00       	mov    $0x0,%edx
    90cf:	48 f7 75 f0          	divq   -0x10(%rbp)
    90d3:	eb 04                	jmp    90d9 <safe_div_func_uint64_t_u_u+0x2a>
    90d5:	48 8b 45 f8          	mov    -0x8(%rbp),%rax
    90d9:	5d                   	pop    %rbp
    90da:	c3                   	retq   

00000000000090db <safe_lshift_func_uint64_t_u_s>:
    90db:	f3 0f 1e fa          	endbr64 
    90df:	55                   	push   %rbp
    90e0:	48 89 e5             	mov    %rsp,%rbp
    90e3:	48 89 7d f8          	mov    %rdi,-0x8(%rbp)
    90e7:	89 75 f4             	mov    %esi,-0xc(%rbp)
    90ea:	83 7d f4 00          	cmpl   $0x0,-0xc(%rbp)
    90ee:	78 2f                	js     911f <safe_lshift_func_uint64_t_u_s+0x44>
    90f0:	83 7d f4 1f          	cmpl   $0x1f,-0xc(%rbp)
    90f4:	7f 29                	jg     911f <safe_lshift_func_uint64_t_u_s+0x44>
    90f6:	8b 45 f4             	mov    -0xc(%rbp),%eax
    90f9:	48 c7 c2 ff ff ff ff 	mov    $0xffffffffffffffff,%rdx
    9100:	89 c1                	mov    %eax,%ecx
    9102:	48 d3 ea             	shr    %cl,%rdx
    9105:	48 89 d0             	mov    %rdx,%rax
    9108:	48 39 45 f8          	cmp    %rax,-0x8(%rbp)
    910c:	77 11                	ja     911f <safe_lshift_func_uint64_t_u_s+0x44>
    910e:	8b 45 f4             	mov    -0xc(%rbp),%eax
    9111:	48 8b 55 f8          	mov    -0x8(%rbp),%rdx
    9115:	89 c1                	mov    %eax,%ecx
    9117:	48 d3 e2             	shl    %cl,%rdx
    911a:	48 89 d0             	mov    %rdx,%rax
    911d:	eb 04                	jmp    9123 <safe_lshift_func_uint64_t_u_s+0x48>
    911f:	48 8b 45 f8          	mov    -0x8(%rbp),%rax
    9123:	5d                   	pop    %rbp
    9124:	c3                   	retq   

0000000000009125 <safe_lshift_func_uint64_t_u_u>:
    9125:	f3 0f 1e fa          	endbr64 
    9129:	55                   	push   %rbp
    912a:	48 89 e5             	mov    %rsp,%rbp
    912d:	48 89 7d f8          	mov    %rdi,-0x8(%rbp)
    9131:	89 75 f4             	mov    %esi,-0xc(%rbp)
    9134:	83 7d f4 1f          	cmpl   $0x1f,-0xc(%rbp)
    9138:	77 29                	ja     9163 <safe_lshift_func_uint64_t_u_u+0x3e>
    913a:	8b 45 f4             	mov    -0xc(%rbp),%eax
    913d:	48 c7 c2 ff ff ff ff 	mov    $0xffffffffffffffff,%rdx
    9144:	89 c1                	mov    %eax,%ecx
    9146:	48 d3 ea             	shr    %cl,%rdx
    9149:	48 89 d0             	mov    %rdx,%rax
    914c:	48 39 45 f8          	cmp    %rax,-0x8(%rbp)
    9150:	77 11                	ja     9163 <safe_lshift_func_uint64_t_u_u+0x3e>
    9152:	8b 45 f4             	mov    -0xc(%rbp),%eax
    9155:	48 8b 55 f8          	mov    -0x8(%rbp),%rdx
    9159:	89 c1                	mov    %eax,%ecx
    915b:	48 d3 e2             	shl    %cl,%rdx
    915e:	48 89 d0             	mov    %rdx,%rax
    9161:	eb 04                	jmp    9167 <safe_lshift_func_uint64_t_u_u+0x42>
    9163:	48 8b 45 f8          	mov    -0x8(%rbp),%rax
    9167:	5d                   	pop    %rbp
    9168:	c3                   	retq   

0000000000009169 <safe_rshift_func_uint64_t_u_s>:
    9169:	f3 0f 1e fa          	endbr64 
    916d:	55                   	push   %rbp
    916e:	48 89 e5             	mov    %rsp,%rbp
    9171:	48 89 7d f8          	mov    %rdi,-0x8(%rbp)
    9175:	89 75 f4             	mov    %esi,-0xc(%rbp)
    9178:	83 7d f4 00          	cmpl   $0x0,-0xc(%rbp)
    917c:	78 17                	js     9195 <safe_rshift_func_uint64_t_u_s+0x2c>
    917e:	83 7d f4 1f          	cmpl   $0x1f,-0xc(%rbp)
    9182:	7f 11                	jg     9195 <safe_rshift_func_uint64_t_u_s+0x2c>
    9184:	8b 45 f4             	mov    -0xc(%rbp),%eax
    9187:	48 8b 55 f8          	mov    -0x8(%rbp),%rdx
    918b:	89 c1                	mov    %eax,%ecx
    918d:	48 d3 ea             	shr    %cl,%rdx
    9190:	48 89 d0             	mov    %rdx,%rax
    9193:	eb 04                	jmp    9199 <safe_rshift_func_uint64_t_u_s+0x30>
    9195:	48 8b 45 f8          	mov    -0x8(%rbp),%rax
    9199:	5d                   	pop    %rbp
    919a:	c3                   	retq   

000000000000919b <safe_rshift_func_uint64_t_u_u>:
    919b:	f3 0f 1e fa          	endbr64 
    919f:	55                   	push   %rbp
    91a0:	48 89 e5             	mov    %rsp,%rbp
    91a3:	48 89 7d f8          	mov    %rdi,-0x8(%rbp)
    91a7:	89 75 f4             	mov    %esi,-0xc(%rbp)
    91aa:	83 7d f4 1f          	cmpl   $0x1f,-0xc(%rbp)
    91ae:	77 11                	ja     91c1 <safe_rshift_func_uint64_t_u_u+0x26>
    91b0:	8b 45 f4             	mov    -0xc(%rbp),%eax
    91b3:	48 8b 55 f8          	mov    -0x8(%rbp),%rdx
    91b7:	89 c1                	mov    %eax,%ecx
    91b9:	48 d3 ea             	shr    %cl,%rdx
    91bc:	48 89 d0             	mov    %rdx,%rax
    91bf:	eb 04                	jmp    91c5 <safe_rshift_func_uint64_t_u_u+0x2a>
    91c1:	48 8b 45 f8          	mov    -0x8(%rbp),%rax
    91c5:	5d                   	pop    %rbp
    91c6:	c3                   	retq   

00000000000091c7 <safe_add_func_float_f_f>:
    91c7:	f3 0f 1e fa          	endbr64 
    91cb:	55                   	push   %rbp
    91cc:	48 89 e5             	mov    %rsp,%rbp
    91cf:	f3 0f 11 45 fc       	movss  %xmm0,-0x4(%rbp)
    91d4:	f3 0f 11 4d f8       	movss  %xmm1,-0x8(%rbp)
    91d9:	f3 0f 10 4d fc       	movss  -0x4(%rbp),%xmm1
    91de:	f3 0f 10 05 6a d2 00 	movss  0xd26a(%rip),%xmm0        # 16450 <l_1550.4246+0x10>
    91e5:	00 
    91e6:	f3 0f 59 c8          	mulss  %xmm0,%xmm1
    91ea:	f3 0f 10 55 f8       	movss  -0x8(%rbp),%xmm2
    91ef:	f3 0f 10 05 59 d2 00 	movss  0xd259(%rip),%xmm0        # 16450 <l_1550.4246+0x10>
    91f6:	00 
    91f7:	f3 0f 59 c2          	mulss  %xmm2,%xmm0
    91fb:	f3 0f 58 c1          	addss  %xmm1,%xmm0
    91ff:	f3 0f 10 0d 59 d2 00 	movss  0xd259(%rip),%xmm1        # 16460 <l_1550.4246+0x20>
    9206:	00 
    9207:	0f 54 c1             	andps  %xmm1,%xmm0
    920a:	0f 2f 05 5f d2 00 00 	comiss 0xd25f(%rip),%xmm0        # 16470 <l_1550.4246+0x30>
    9211:	76 07                	jbe    921a <safe_add_func_float_f_f+0x53>
    9213:	f3 0f 10 45 fc       	movss  -0x4(%rbp),%xmm0
    9218:	eb 0a                	jmp    9224 <safe_add_func_float_f_f+0x5d>
    921a:	f3 0f 10 45 fc       	movss  -0x4(%rbp),%xmm0
    921f:	f3 0f 58 45 f8       	addss  -0x8(%rbp),%xmm0
    9224:	5d                   	pop    %rbp
    9225:	c3                   	retq   

0000000000009226 <safe_sub_func_float_f_f>:
    9226:	f3 0f 1e fa          	endbr64 
    922a:	55                   	push   %rbp
    922b:	48 89 e5             	mov    %rsp,%rbp
    922e:	f3 0f 11 45 fc       	movss  %xmm0,-0x4(%rbp)
    9233:	f3 0f 11 4d f8       	movss  %xmm1,-0x8(%rbp)
    9238:	f3 0f 10 4d fc       	movss  -0x4(%rbp),%xmm1
    923d:	f3 0f 10 05 0b d2 00 	movss  0xd20b(%rip),%xmm0        # 16450 <l_1550.4246+0x10>
    9244:	00 
    9245:	f3 0f 59 c1          	mulss  %xmm1,%xmm0
    9249:	f3 0f 10 55 f8       	movss  -0x8(%rbp),%xmm2
    924e:	f3 0f 10 0d fa d1 00 	movss  0xd1fa(%rip),%xmm1        # 16450 <l_1550.4246+0x10>
    9255:	00 
    9256:	f3 0f 59 ca          	mulss  %xmm2,%xmm1
    925a:	f3 0f 5c c1          	subss  %xmm1,%xmm0
    925e:	f3 0f 10 0d fa d1 00 	movss  0xd1fa(%rip),%xmm1        # 16460 <l_1550.4246+0x20>
    9265:	00 
    9266:	0f 54 c1             	andps  %xmm1,%xmm0
    9269:	0f 2f 05 00 d2 00 00 	comiss 0xd200(%rip),%xmm0        # 16470 <l_1550.4246+0x30>
    9270:	76 07                	jbe    9279 <safe_sub_func_float_f_f+0x53>
    9272:	f3 0f 10 45 fc       	movss  -0x4(%rbp),%xmm0
    9277:	eb 0a                	jmp    9283 <safe_sub_func_float_f_f+0x5d>
    9279:	f3 0f 10 45 fc       	movss  -0x4(%rbp),%xmm0
    927e:	f3 0f 5c 45 f8       	subss  -0x8(%rbp),%xmm0
    9283:	5d                   	pop    %rbp
    9284:	c3                   	retq   

0000000000009285 <safe_mul_func_float_f_f>:
    9285:	f3 0f 1e fa          	endbr64 
    9289:	55                   	push   %rbp
    928a:	48 89 e5             	mov    %rsp,%rbp
    928d:	f3 0f 11 45 fc       	movss  %xmm0,-0x4(%rbp)
    9292:	f3 0f 11 4d f8       	movss  %xmm1,-0x8(%rbp)
    9297:	f3 0f 10 4d fc       	movss  -0x4(%rbp),%xmm1
    929c:	f3 0f 10 05 d0 d1 00 	movss  0xd1d0(%rip),%xmm0        # 16474 <l_1550.4246+0x34>
    92a3:	00 
    92a4:	f3 0f 59 c8          	mulss  %xmm0,%xmm1
    92a8:	f3 0f 10 55 f8       	movss  -0x8(%rbp),%xmm2
    92ad:	f3 0f 10 05 c3 d1 00 	movss  0xd1c3(%rip),%xmm0        # 16478 <l_1550.4246+0x38>
    92b4:	00 
    92b5:	f3 0f 59 c2          	mulss  %xmm2,%xmm0
    92b9:	f3 0f 59 c1          	mulss  %xmm1,%xmm0
    92bd:	f3 0f 10 0d 9b d1 00 	movss  0xd19b(%rip),%xmm1        # 16460 <l_1550.4246+0x20>
    92c4:	00 
    92c5:	0f 54 c1             	andps  %xmm1,%xmm0
    92c8:	0f 2f 05 ad d1 00 00 	comiss 0xd1ad(%rip),%xmm0        # 1647c <l_1550.4246+0x3c>
    92cf:	76 07                	jbe    92d8 <safe_mul_func_float_f_f+0x53>
    92d1:	f3 0f 10 45 fc       	movss  -0x4(%rbp),%xmm0
    92d6:	eb 0a                	jmp    92e2 <safe_mul_func_float_f_f+0x5d>
    92d8:	f3 0f 10 45 fc       	movss  -0x4(%rbp),%xmm0
    92dd:	f3 0f 59 45 f8       	mulss  -0x8(%rbp),%xmm0
    92e2:	5d                   	pop    %rbp
    92e3:	c3                   	retq   

00000000000092e4 <safe_div_func_float_f_f>:
    92e4:	f3 0f 1e fa          	endbr64 
    92e8:	55                   	push   %rbp
    92e9:	48 89 e5             	mov    %rsp,%rbp
    92ec:	f3 0f 11 45 fc       	movss  %xmm0,-0x4(%rbp)
    92f1:	f3 0f 11 4d f8       	movss  %xmm1,-0x8(%rbp)
    92f6:	f3 0f 10 45 f8       	movss  -0x8(%rbp),%xmm0
    92fb:	f3 0f 10 0d 5d d1 00 	movss  0xd15d(%rip),%xmm1        # 16460 <l_1550.4246+0x20>
    9302:	00 
    9303:	0f 54 c8             	andps  %xmm0,%xmm1
    9306:	f3 0f 10 05 72 d1 00 	movss  0xd172(%rip),%xmm0        # 16480 <l_1550.4246+0x40>
    930d:	00 
    930e:	0f 2f c1             	comiss %xmm1,%xmm0
    9311:	0f 97 c0             	seta   %al
    9314:	83 f0 01             	xor    $0x1,%eax
    9317:	84 c0                	test   %al,%al
    9319:	75 56                	jne    9371 <safe_div_func_float_f_f+0x8d>
    931b:	66 0f ef c0          	pxor   %xmm0,%xmm0
    931f:	0f 2e 45 f8          	ucomiss -0x8(%rbp),%xmm0
    9323:	7a 0a                	jp     932f <safe_div_func_float_f_f+0x4b>
    9325:	66 0f ef c0          	pxor   %xmm0,%xmm0
    9329:	0f 2e 45 f8          	ucomiss -0x8(%rbp),%xmm0
    932d:	74 4e                	je     937d <safe_div_func_float_f_f+0x99>
    932f:	f3 0f 10 4d fc       	movss  -0x4(%rbp),%xmm1
    9334:	f3 0f 10 05 48 d1 00 	movss  0xd148(%rip),%xmm0        # 16484 <l_1550.4246+0x44>
    933b:	00 
    933c:	f3 0f 59 c1          	mulss  %xmm1,%xmm0
    9340:	f3 0f 10 55 f8       	movss  -0x8(%rbp),%xmm2
    9345:	f3 0f 10 0d 3b d1 00 	movss  0xd13b(%rip),%xmm1        # 16488 <l_1550.4246+0x48>
    934c:	00 
    934d:	f3 0f 59 ca          	mulss  %xmm2,%xmm1
    9351:	f3 0f 5e c1          	divss  %xmm1,%xmm0
    9355:	f3 0f 10 0d 03 d1 00 	movss  0xd103(%rip),%xmm1        # 16460 <l_1550.4246+0x20>
    935c:	00 
    935d:	0f 54 c1             	andps  %xmm1,%xmm0
    9360:	0f 2f 05 25 d1 00 00 	comiss 0xd125(%rip),%xmm0        # 1648c <l_1550.4246+0x4c>
    9367:	0f 97 c0             	seta   %al
    936a:	83 f0 01             	xor    $0x1,%eax
    936d:	84 c0                	test   %al,%al
    936f:	74 0c                	je     937d <safe_div_func_float_f_f+0x99>
    9371:	f3 0f 10 45 fc       	movss  -0x4(%rbp),%xmm0
    9376:	f3 0f 5e 45 f8       	divss  -0x8(%rbp),%xmm0
    937b:	eb 05                	jmp    9382 <safe_div_func_float_f_f+0x9e>
    937d:	f3 0f 10 45 fc       	movss  -0x4(%rbp),%xmm0
    9382:	5d                   	pop    %rbp
    9383:	c3                   	retq   

0000000000009384 <safe_add_func_double_f_f>:
    9384:	f3 0f 1e fa          	endbr64 
    9388:	55                   	push   %rbp
    9389:	48 89 e5             	mov    %rsp,%rbp
    938c:	f2 0f 11 45 f8       	movsd  %xmm0,-0x8(%rbp)
    9391:	f2 0f 11 4d f0       	movsd  %xmm1,-0x10(%rbp)
    9396:	f2 0f 10 4d f8       	movsd  -0x8(%rbp),%xmm1
    939b:	f2 0f 10 05 ed d0 00 	movsd  0xd0ed(%rip),%xmm0        # 16490 <l_1550.4246+0x50>
    93a2:	00 
    93a3:	f2 0f 59 c8          	mulsd  %xmm0,%xmm1
    93a7:	f2 0f 10 55 f0       	movsd  -0x10(%rbp),%xmm2
    93ac:	f2 0f 10 05 dc d0 00 	movsd  0xd0dc(%rip),%xmm0        # 16490 <l_1550.4246+0x50>
    93b3:	00 
    93b4:	f2 0f 59 c2          	mulsd  %xmm2,%xmm0
    93b8:	f2 0f 58 c1          	addsd  %xmm1,%xmm0
    93bc:	f3 0f 7e 0d dc d0 00 	movq   0xd0dc(%rip),%xmm1        # 164a0 <l_1550.4246+0x60>
    93c3:	00 
    93c4:	66 0f 54 c1          	andpd  %xmm1,%xmm0
    93c8:	66 0f 2f 05 e0 d0 00 	comisd 0xd0e0(%rip),%xmm0        # 164b0 <l_1550.4246+0x70>
    93cf:	00 
    93d0:	76 07                	jbe    93d9 <safe_add_func_double_f_f+0x55>
    93d2:	f2 0f 10 45 f8       	movsd  -0x8(%rbp),%xmm0
    93d7:	eb 0a                	jmp    93e3 <safe_add_func_double_f_f+0x5f>
    93d9:	f2 0f 10 45 f8       	movsd  -0x8(%rbp),%xmm0
    93de:	f2 0f 58 45 f0       	addsd  -0x10(%rbp),%xmm0
    93e3:	5d                   	pop    %rbp
    93e4:	c3                   	retq   

00000000000093e5 <safe_sub_func_double_f_f>:
    93e5:	f3 0f 1e fa          	endbr64 
    93e9:	55                   	push   %rbp
    93ea:	48 89 e5             	mov    %rsp,%rbp
    93ed:	f2 0f 11 45 f8       	movsd  %xmm0,-0x8(%rbp)
    93f2:	f2 0f 11 4d f0       	movsd  %xmm1,-0x10(%rbp)
    93f7:	f2 0f 10 4d f8       	movsd  -0x8(%rbp),%xmm1
    93fc:	f2 0f 10 05 8c d0 00 	movsd  0xd08c(%rip),%xmm0        # 16490 <l_1550.4246+0x50>
    9403:	00 
    9404:	f2 0f 59 c1          	mulsd  %xmm1,%xmm0
    9408:	f2 0f 10 55 f0       	movsd  -0x10(%rbp),%xmm2
    940d:	f2 0f 10 0d 7b d0 00 	movsd  0xd07b(%rip),%xmm1        # 16490 <l_1550.4246+0x50>
    9414:	00 
    9415:	f2 0f 59 ca          	mulsd  %xmm2,%xmm1
    9419:	f2 0f 5c c1          	subsd  %xmm1,%xmm0
    941d:	f3 0f 7e 0d 7b d0 00 	movq   0xd07b(%rip),%xmm1        # 164a0 <l_1550.4246+0x60>
    9424:	00 
    9425:	66 0f 54 c1          	andpd  %xmm1,%xmm0
    9429:	66 0f 2f 05 7f d0 00 	comisd 0xd07f(%rip),%xmm0        # 164b0 <l_1550.4246+0x70>
    9430:	00 
    9431:	76 07                	jbe    943a <safe_sub_func_double_f_f+0x55>
    9433:	f2 0f 10 45 f8       	movsd  -0x8(%rbp),%xmm0
    9438:	eb 0a                	jmp    9444 <safe_sub_func_double_f_f+0x5f>
    943a:	f2 0f 10 45 f8       	movsd  -0x8(%rbp),%xmm0
    943f:	f2 0f 5c 45 f0       	subsd  -0x10(%rbp),%xmm0
    9444:	5d                   	pop    %rbp
    9445:	c3                   	retq   

0000000000009446 <safe_mul_func_double_f_f>:
    9446:	f3 0f 1e fa          	endbr64 
    944a:	55                   	push   %rbp
    944b:	48 89 e5             	mov    %rsp,%rbp
    944e:	f2 0f 11 45 f8       	movsd  %xmm0,-0x8(%rbp)
    9453:	f2 0f 11 4d f0       	movsd  %xmm1,-0x10(%rbp)
    9458:	f2 0f 10 4d f8       	movsd  -0x8(%rbp),%xmm1
    945d:	f2 0f 10 05 53 d0 00 	movsd  0xd053(%rip),%xmm0        # 164b8 <l_1550.4246+0x78>
    9464:	00 
    9465:	f2 0f 59 c8          	mulsd  %xmm0,%xmm1
    9469:	f2 0f 10 55 f0       	movsd  -0x10(%rbp),%xmm2
    946e:	f2 0f 10 05 4a d0 00 	movsd  0xd04a(%rip),%xmm0        # 164c0 <l_1550.4246+0x80>
    9475:	00 
    9476:	f2 0f 59 c2          	mulsd  %xmm2,%xmm0
    947a:	f2 0f 59 c1          	mulsd  %xmm1,%xmm0
    947e:	f3 0f 7e 0d 1a d0 00 	movq   0xd01a(%rip),%xmm1        # 164a0 <l_1550.4246+0x60>
    9485:	00 
    9486:	66 0f 54 c1          	andpd  %xmm1,%xmm0
    948a:	66 0f 2f 05 36 d0 00 	comisd 0xd036(%rip),%xmm0        # 164c8 <l_1550.4246+0x88>
    9491:	00 
    9492:	76 07                	jbe    949b <safe_mul_func_double_f_f+0x55>
    9494:	f2 0f 10 45 f8       	movsd  -0x8(%rbp),%xmm0
    9499:	eb 0a                	jmp    94a5 <safe_mul_func_double_f_f+0x5f>
    949b:	f2 0f 10 45 f8       	movsd  -0x8(%rbp),%xmm0
    94a0:	f2 0f 59 45 f0       	mulsd  -0x10(%rbp),%xmm0
    94a5:	5d                   	pop    %rbp
    94a6:	c3                   	retq   

00000000000094a7 <safe_div_func_double_f_f>:
    94a7:	f3 0f 1e fa          	endbr64 
    94ab:	55                   	push   %rbp
    94ac:	48 89 e5             	mov    %rsp,%rbp
    94af:	f2 0f 11 45 f8       	movsd  %xmm0,-0x8(%rbp)
    94b4:	f2 0f 11 4d f0       	movsd  %xmm1,-0x10(%rbp)
    94b9:	f2 0f 10 45 f0       	movsd  -0x10(%rbp),%xmm0
    94be:	f3 0f 7e 0d da cf 00 	movq   0xcfda(%rip),%xmm1        # 164a0 <l_1550.4246+0x60>
    94c5:	00 
    94c6:	66 0f 54 c8          	andpd  %xmm0,%xmm1
    94ca:	f2 0f 10 05 fe cf 00 	movsd  0xcffe(%rip),%xmm0        # 164d0 <l_1550.4246+0x90>
    94d1:	00 
    94d2:	66 0f 2f c1          	comisd %xmm1,%xmm0
    94d6:	0f 97 c0             	seta   %al
    94d9:	83 f0 01             	xor    $0x1,%eax
    94dc:	84 c0                	test   %al,%al
    94de:	75 5a                	jne    953a <safe_div_func_double_f_f+0x93>
    94e0:	66 0f ef c0          	pxor   %xmm0,%xmm0
    94e4:	66 0f 2e 45 f0       	ucomisd -0x10(%rbp),%xmm0
    94e9:	7a 0b                	jp     94f6 <safe_div_func_double_f_f+0x4f>
    94eb:	66 0f ef c0          	pxor   %xmm0,%xmm0
    94ef:	66 0f 2e 45 f0       	ucomisd -0x10(%rbp),%xmm0
    94f4:	74 50                	je     9546 <safe_div_func_double_f_f+0x9f>
    94f6:	f2 0f 10 4d f8       	movsd  -0x8(%rbp),%xmm1
    94fb:	f2 0f 10 05 d5 cf 00 	movsd  0xcfd5(%rip),%xmm0        # 164d8 <l_1550.4246+0x98>
    9502:	00 
    9503:	f2 0f 59 c1          	mulsd  %xmm1,%xmm0
    9507:	f2 0f 10 55 f0       	movsd  -0x10(%rbp),%xmm2
    950c:	f2 0f 10 0d cc cf 00 	movsd  0xcfcc(%rip),%xmm1        # 164e0 <l_1550.4246+0xa0>
    9513:	00 
    9514:	f2 0f 59 ca          	mulsd  %xmm2,%xmm1
    9518:	f2 0f 5e c1          	divsd  %xmm1,%xmm0
    951c:	f3 0f 7e 0d 7c cf 00 	movq   0xcf7c(%rip),%xmm1        # 164a0 <l_1550.4246+0x60>
    9523:	00 
    9524:	66 0f 54 c1          	andpd  %xmm1,%xmm0
    9528:	66 0f 2f 05 b8 cf 00 	comisd 0xcfb8(%rip),%xmm0        # 164e8 <l_1550.4246+0xa8>
    952f:	00 
    9530:	0f 97 c0             	seta   %al
    9533:	83 f0 01             	xor    $0x1,%eax
    9536:	84 c0                	test   %al,%al
    9538:	74 0c                	je     9546 <safe_div_func_double_f_f+0x9f>
    953a:	f2 0f 10 45 f8       	movsd  -0x8(%rbp),%xmm0
    953f:	f2 0f 5e 45 f0       	divsd  -0x10(%rbp),%xmm0
    9544:	eb 05                	jmp    954b <safe_div_func_double_f_f+0xa4>
    9546:	f2 0f 10 45 f8       	movsd  -0x8(%rbp),%xmm0
    954b:	5d                   	pop    %rbp
    954c:	c3                   	retq   

000000000000954d <safe_convert_func_float_to_int32_t>:
    954d:	f3 0f 1e fa          	endbr64 
    9551:	55                   	push   %rbp
    9552:	48 89 e5             	mov    %rsp,%rbp
    9555:	f3 0f 11 45 fc       	movss  %xmm0,-0x4(%rbp)
    955a:	f3 0f 10 05 8e cf 00 	movss  0xcf8e(%rip),%xmm0        # 164f0 <l_1550.4246+0xb0>
    9561:	00 
    9562:	0f 2f 45 fc          	comiss -0x4(%rbp),%xmm0
    9566:	0f 93 c0             	setae  %al
    9569:	83 f0 01             	xor    $0x1,%eax
    956c:	84 c0                	test   %al,%al
    956e:	74 21                	je     9591 <safe_convert_func_float_to_int32_t+0x44>
    9570:	f3 0f 10 45 fc       	movss  -0x4(%rbp),%xmm0
    9575:	0f 2f 05 78 cf 00 00 	comiss 0xcf78(%rip),%xmm0        # 164f4 <l_1550.4246+0xb4>
    957c:	0f 93 c0             	setae  %al
    957f:	83 f0 01             	xor    $0x1,%eax
    9582:	84 c0                	test   %al,%al
    9584:	74 0b                	je     9591 <safe_convert_func_float_to_int32_t+0x44>
    9586:	f3 0f 10 45 fc       	movss  -0x4(%rbp),%xmm0
    958b:	f3 0f 2c c0          	cvttss2si %xmm0,%eax
    958f:	eb 05                	jmp    9596 <safe_convert_func_float_to_int32_t+0x49>
    9591:	b8 ff ff ff 7f       	mov    $0x7fffffff,%eax
    9596:	5d                   	pop    %rbp
    9597:	c3                   	retq   

0000000000009598 <crc32_gentab>:
    9598:	f3 0f 1e fa          	endbr64 
    959c:	55                   	push   %rbp
    959d:	48 89 e5             	mov    %rsp,%rbp
    95a0:	c7 45 fc 20 83 b8 ed 	movl   $0xedb88320,-0x4(%rbp)
    95a7:	c7 45 f4 00 00 00 00 	movl   $0x0,-0xc(%rbp)
    95ae:	eb 51                	jmp    9601 <crc32_gentab+0x69>
    95b0:	8b 45 f4             	mov    -0xc(%rbp),%eax
    95b3:	89 45 f0             	mov    %eax,-0x10(%rbp)
    95b6:	c7 45 f8 08 00 00 00 	movl   $0x8,-0x8(%rbp)
    95bd:	eb 1e                	jmp    95dd <crc32_gentab+0x45>
    95bf:	8b 45 f0             	mov    -0x10(%rbp),%eax
    95c2:	83 e0 01             	and    $0x1,%eax
    95c5:	85 c0                	test   %eax,%eax
    95c7:	74 0d                	je     95d6 <crc32_gentab+0x3e>
    95c9:	8b 45 f0             	mov    -0x10(%rbp),%eax
    95cc:	d1 e8                	shr    %eax
    95ce:	33 45 fc             	xor    -0x4(%rbp),%eax
    95d1:	89 45 f0             	mov    %eax,-0x10(%rbp)
    95d4:	eb 03                	jmp    95d9 <crc32_gentab+0x41>
    95d6:	d1 6d f0             	shrl   -0x10(%rbp)
    95d9:	83 6d f8 01          	subl   $0x1,-0x8(%rbp)
    95dd:	83 7d f8 00          	cmpl   $0x0,-0x8(%rbp)
    95e1:	7f dc                	jg     95bf <crc32_gentab+0x27>
    95e3:	8b 45 f4             	mov    -0xc(%rbp),%eax
    95e6:	48 98                	cltq   
    95e8:	48 8d 0c 85 00 00 00 	lea    0x0(,%rax,4),%rcx
    95ef:	00 
    95f0:	48 8d 15 09 3d 01 00 	lea    0x13d09(%rip),%rdx        # 1d300 <crc32_tab>
    95f7:	8b 45 f0             	mov    -0x10(%rbp),%eax
    95fa:	89 04 11             	mov    %eax,(%rcx,%rdx,1)
    95fd:	83 45 f4 01          	addl   $0x1,-0xc(%rbp)
    9601:	81 7d f4 ff 00 00 00 	cmpl   $0xff,-0xc(%rbp)
    9608:	7e a6                	jle    95b0 <crc32_gentab+0x18>
    960a:	90                   	nop
    960b:	90                   	nop
    960c:	5d                   	pop    %rbp
    960d:	c3                   	retq   

000000000000960e <crc32_byte>:
    960e:	f3 0f 1e fa          	endbr64 
    9612:	55                   	push   %rbp
    9613:	48 89 e5             	mov    %rsp,%rbp
    9616:	89 f8                	mov    %edi,%eax
    9618:	88 45 fc             	mov    %al,-0x4(%rbp)
    961b:	8b 05 ff 09 01 00    	mov    0x109ff(%rip),%eax        # 1a020 <crc32_context>
    9621:	c1 e8 08             	shr    $0x8,%eax
    9624:	89 c1                	mov    %eax,%ecx
    9626:	0f b6 55 fc          	movzbl -0x4(%rbp),%edx
    962a:	8b 05 f0 09 01 00    	mov    0x109f0(%rip),%eax        # 1a020 <crc32_context>
    9630:	31 d0                	xor    %edx,%eax
    9632:	0f b6 c0             	movzbl %al,%eax
    9635:	89 c0                	mov    %eax,%eax
    9637:	48 8d 14 85 00 00 00 	lea    0x0(,%rax,4),%rdx
    963e:	00 
    963f:	48 8d 05 ba 3c 01 00 	lea    0x13cba(%rip),%rax        # 1d300 <crc32_tab>
    9646:	8b 04 02             	mov    (%rdx,%rax,1),%eax
    9649:	31 c8                	xor    %ecx,%eax
    964b:	89 05 cf 09 01 00    	mov    %eax,0x109cf(%rip)        # 1a020 <crc32_context>
    9651:	90                   	nop
    9652:	5d                   	pop    %rbp
    9653:	c3                   	retq   

0000000000009654 <crc32_8bytes>:
    9654:	f3 0f 1e fa          	endbr64 
    9658:	55                   	push   %rbp
    9659:	48 89 e5             	mov    %rsp,%rbp
    965c:	48 83 ec 08          	sub    $0x8,%rsp
    9660:	48 89 7d f8          	mov    %rdi,-0x8(%rbp)
    9664:	48 8b 45 f8          	mov    -0x8(%rbp),%rax
    9668:	0f b6 c0             	movzbl %al,%eax
    966b:	89 c7                	mov    %eax,%edi
    966d:	e8 9c ff ff ff       	callq  960e <crc32_byte>
    9672:	48 8b 45 f8          	mov    -0x8(%rbp),%rax
    9676:	48 c1 e8 08          	shr    $0x8,%rax
    967a:	0f b6 c0             	movzbl %al,%eax
    967d:	89 c7                	mov    %eax,%edi
    967f:	e8 8a ff ff ff       	callq  960e <crc32_byte>
    9684:	48 8b 45 f8          	mov    -0x8(%rbp),%rax
    9688:	48 c1 e8 10          	shr    $0x10,%rax
    968c:	0f b6 c0             	movzbl %al,%eax
    968f:	89 c7                	mov    %eax,%edi
    9691:	e8 78 ff ff ff       	callq  960e <crc32_byte>
    9696:	48 8b 45 f8          	mov    -0x8(%rbp),%rax
    969a:	48 c1 e8 18          	shr    $0x18,%rax
    969e:	0f b6 c0             	movzbl %al,%eax
    96a1:	89 c7                	mov    %eax,%edi
    96a3:	e8 66 ff ff ff       	callq  960e <crc32_byte>
    96a8:	48 8b 45 f8          	mov    -0x8(%rbp),%rax
    96ac:	48 c1 e8 20          	shr    $0x20,%rax
    96b0:	0f b6 c0             	movzbl %al,%eax
    96b3:	89 c7                	mov    %eax,%edi
    96b5:	e8 54 ff ff ff       	callq  960e <crc32_byte>
    96ba:	48 8b 45 f8          	mov    -0x8(%rbp),%rax
    96be:	48 c1 e8 28          	shr    $0x28,%rax
    96c2:	0f b6 c0             	movzbl %al,%eax
    96c5:	89 c7                	mov    %eax,%edi
    96c7:	e8 42 ff ff ff       	callq  960e <crc32_byte>
    96cc:	48 8b 45 f8          	mov    -0x8(%rbp),%rax
    96d0:	48 c1 e8 30          	shr    $0x30,%rax
    96d4:	0f b6 c0             	movzbl %al,%eax
    96d7:	89 c7                	mov    %eax,%edi
    96d9:	e8 30 ff ff ff       	callq  960e <crc32_byte>
    96de:	48 8b 45 f8          	mov    -0x8(%rbp),%rax
    96e2:	48 c1 e8 38          	shr    $0x38,%rax
    96e6:	0f b6 c0             	movzbl %al,%eax
    96e9:	89 c7                	mov    %eax,%edi
    96eb:	e8 1e ff ff ff       	callq  960e <crc32_byte>
    96f0:	90                   	nop
    96f1:	c9                   	leaveq 
    96f2:	c3                   	retq   

00000000000096f3 <transparent_crc>:
    96f3:	f3 0f 1e fa          	endbr64 
    96f7:	55                   	push   %rbp
    96f8:	48 89 e5             	mov    %rsp,%rbp
    96fb:	48 83 ec 20          	sub    $0x20,%rsp
    96ff:	48 89 7d f8          	mov    %rdi,-0x8(%rbp)
    9703:	48 89 75 f0          	mov    %rsi,-0x10(%rbp)
    9707:	89 55 ec             	mov    %edx,-0x14(%rbp)
    970a:	48 8b 45 f8          	mov    -0x8(%rbp),%rax
    970e:	48 89 c7             	mov    %rax,%rdi
    9711:	e8 3e ff ff ff       	callq  9654 <crc32_8bytes>
    9716:	83 7d ec 00          	cmpl   $0x0,-0x14(%rbp)
    971a:	74 22                	je     973e <transparent_crc+0x4b>
    971c:	8b 05 fe 08 01 00    	mov    0x108fe(%rip),%eax        # 1a020 <crc32_context>
    9722:	f7 d0                	not    %eax
    9724:	89 c2                	mov    %eax,%edx
    9726:	48 8b 45 f0          	mov    -0x10(%rbp),%rax
    972a:	48 89 c6             	mov    %rax,%rsi
    972d:	48 8d 3d fc b8 00 00 	lea    0xb8fc(%rip),%rdi        # 15030 <_IO_stdin_used+0x30>
    9734:	b8 00 00 00 00       	mov    $0x0,%eax
    9739:	e8 42 e9 ff ff       	callq  8080 <printf@plt>
    973e:	90                   	nop
    973f:	c9                   	leaveq 
    9740:	c3                   	retq   

0000000000009741 <transparent_crc_bytes>:
    9741:	f3 0f 1e fa          	endbr64 
    9745:	55                   	push   %rbp
    9746:	48 89 e5             	mov    %rsp,%rbp
    9749:	48 83 ec 30          	sub    $0x30,%rsp
    974d:	48 89 7d e8          	mov    %rdi,-0x18(%rbp)
    9751:	89 75 e4             	mov    %esi,-0x1c(%rbp)
    9754:	48 89 55 d8          	mov    %rdx,-0x28(%rbp)
    9758:	89 4d e0             	mov    %ecx,-0x20(%rbp)
    975b:	c7 45 fc 00 00 00 00 	movl   $0x0,-0x4(%rbp)
    9762:	eb 1e                	jmp    9782 <transparent_crc_bytes+0x41>
    9764:	8b 45 fc             	mov    -0x4(%rbp),%eax
    9767:	48 63 d0             	movslq %eax,%rdx
    976a:	48 8b 45 e8          	mov    -0x18(%rbp),%rax
    976e:	48 01 d0             	add    %rdx,%rax
    9771:	0f b6 00             	movzbl (%rax),%eax
    9774:	0f b6 c0             	movzbl %al,%eax
    9777:	89 c7                	mov    %eax,%edi
    9779:	e8 90 fe ff ff       	callq  960e <crc32_byte>
    977e:	83 45 fc 01          	addl   $0x1,-0x4(%rbp)
    9782:	8b 45 fc             	mov    -0x4(%rbp),%eax
    9785:	3b 45 e4             	cmp    -0x1c(%rbp),%eax
    9788:	7c da                	jl     9764 <transparent_crc_bytes+0x23>
    978a:	83 7d e0 00          	cmpl   $0x0,-0x20(%rbp)
    978e:	74 22                	je     97b2 <transparent_crc_bytes+0x71>
    9790:	8b 05 8a 08 01 00    	mov    0x1088a(%rip),%eax        # 1a020 <crc32_context>
    9796:	f7 d0                	not    %eax
    9798:	89 c2                	mov    %eax,%edx
    979a:	48 8b 45 d8          	mov    -0x28(%rbp),%rax
    979e:	48 89 c6             	mov    %rax,%rsi
    97a1:	48 8d 3d 88 b8 00 00 	lea    0xb888(%rip),%rdi        # 15030 <_IO_stdin_used+0x30>
    97a8:	b8 00 00 00 00       	mov    $0x0,%eax
    97ad:	e8 ce e8 ff ff       	callq  8080 <printf@plt>
    97b2:	90                   	nop
    97b3:	c9                   	leaveq 
    97b4:	c3                   	retq   

00000000000097b5 <func_1>:
    97b5:	f3 0f 1e fa          	endbr64 
    97b9:	55                   	push   %rbp
    97ba:	48 89 e5             	mov    %rsp,%rbp
    97bd:	48 81 ec 10 01 00 00 	sub    $0x110,%rsp
    97c4:	64 48 8b 04 25 28 00 	mov    %fs:0x28,%rax
    97cb:	00 00 
    97cd:	48 89 45 f8          	mov    %rax,-0x8(%rbp)
    97d1:	31 c0                	xor    %eax,%eax
    97d3:	48 8d 05 52 08 01 00 	lea    0x10852(%rip),%rax        # 1a02c <g_9>
    97da:	48 89 85 08 ff ff ff 	mov    %rax,-0xf8(%rbp)
    97e1:	48 c7 85 30 ff ff ff 	movq   $0xfffffffffffffffc,-0xd0(%rbp)
    97e8:	fc ff ff ff 
    97ec:	c7 85 fc fe ff ff 01 	movl   $0x1,-0x104(%rbp)
    97f3:	00 00 00 
    97f6:	48 8d 05 9b 31 01 00 	lea    0x1319b(%rip),%rax        # 1c998 <g_1125>
    97fd:	48 89 85 38 ff ff ff 	mov    %rax,-0xc8(%rbp)
    9804:	48 8d 05 3d 08 01 00 	lea    0x1083d(%rip),%rax        # 1a048 <g_121>
    980b:	48 89 85 40 ff ff ff 	mov    %rax,-0xc0(%rbp)
    9812:	48 c7 85 48 ff ff ff 	movq   $0x0,-0xb8(%rbp)
    9819:	00 00 00 00 
    981d:	48 c7 85 50 ff ff ff 	movq   $0x0,-0xb0(%rbp)
    9824:	00 00 00 00 
    9828:	48 c7 85 58 ff ff ff 	movq   $0x0,-0xa8(%rbp)
    982f:	00 00 00 00 
    9833:	48 8d 05 be 13 01 00 	lea    0x113be(%rip),%rax        # 1abf8 <g_1605>
    983a:	48 89 85 60 ff ff ff 	mov    %rax,-0xa0(%rbp)
    9841:	66 c7 85 f6 fe ff ff 	movw   $0xfffe,-0x10a(%rbp)
    9848:	fe ff 
    984a:	48 c7 85 68 ff ff ff 	movq   $0x0,-0x98(%rbp)
    9851:	00 00 00 00 
    9855:	48 c7 85 10 ff ff ff 	movq   $0x1,-0xf0(%rbp)
    985c:	01 00 00 00 
    9860:	c7 85 f8 fe ff ff 00 	movl   $0x0,-0x108(%rbp)
    9867:	00 00 00 
    986a:	eb 1b                	jmp    9887 <func_1+0xd2>
    986c:	8b 85 f8 fe ff ff    	mov    -0x108(%rbp),%eax
    9872:	48 98                	cltq   
    9874:	48 8d 95 08 ff ff ff 	lea    -0xf8(%rbp),%rdx
    987b:	48 89 54 c5 90       	mov    %rdx,-0x70(%rbp,%rax,8)
    9880:	83 85 f8 fe ff ff 01 	addl   $0x1,-0x108(%rbp)
    9887:	83 bd f8 fe ff ff 03 	cmpl   $0x3,-0x108(%rbp)
    988e:	7e dc                	jle    986c <func_1+0xb7>
    9890:	c7 05 8a 07 01 00 0e 	movl   $0xe,0x1078a(%rip)        # 1a024 <g_2>
    9897:	00 00 00 
    989a:	e9 f4 00 00 00       	jmpq   9993 <func_1+0x1de>
    989f:	48 8d 05 7e 07 01 00 	lea    0x1077e(%rip),%rax        # 1a024 <g_2>
    98a6:	48 89 85 18 ff ff ff 	mov    %rax,-0xe8(%rbp)
    98ad:	48 8d 85 18 ff ff ff 	lea    -0xe8(%rbp),%rax
    98b4:	48 89 85 70 ff ff ff 	mov    %rax,-0x90(%rbp)
    98bb:	48 c7 85 20 ff ff ff 	movq   $0x5,-0xe0(%rbp)
    98c2:	05 00 00 00 
    98c6:	c7 45 d0 f0 fa c5 d3 	movl   $0xd3c5faf0,-0x30(%rbp)
    98cd:	c7 45 d4 01 00 00 00 	movl   $0x1,-0x2c(%rbp)
    98d4:	c7 45 d8 00 00 00 00 	movl   $0x0,-0x28(%rbp)
    98db:	c7 45 dc 00 00 00 00 	movl   $0x0,-0x24(%rbp)
    98e2:	c7 45 e0 01 00 00 00 	movl   $0x1,-0x20(%rbp)
    98e9:	c7 45 e4 f0 fa c5 d3 	movl   $0xd3c5faf0,-0x1c(%rbp)
    98f0:	c7 45 e8 01 00 00 00 	movl   $0x1,-0x18(%rbp)
    98f7:	c7 45 ec 00 00 00 00 	movl   $0x0,-0x14(%rbp)
    98fe:	c7 45 f0 00 00 00 00 	movl   $0x0,-0x10(%rbp)
    9905:	c7 45 f4 01 00 00 00 	movl   $0x1,-0xc(%rbp)
    990c:	48 8d 05 85 30 01 00 	lea    0x13085(%rip),%rax        # 1c998 <g_1125>
    9913:	48 89 85 78 ff ff ff 	mov    %rax,-0x88(%rbp)
    991a:	48 8d 05 7f 30 01 00 	lea    0x1307f(%rip),%rax        # 1c9a0 <g_1124>
    9921:	48 89 45 80          	mov    %rax,-0x80(%rbp)
    9925:	c7 85 00 ff ff ff 84 	movl   $0xec869b84,-0x100(%rbp)
    992c:	9b 86 ec 
    992f:	c7 85 04 ff ff ff f9 	movl   $0xfffffff9,-0xfc(%rbp)
    9936:	ff ff ff 
    9939:	48 8d 05 c2 12 01 00 	lea    0x112c2(%rip),%rax        # 1ac02 <g_1672+0x2>
    9940:	48 89 45 88          	mov    %rax,-0x78(%rbp)
    9944:	48 c7 85 28 ff ff ff 	movq   $0x0,-0xd8(%rbp)
    994b:	00 00 00 00 
    994f:	48 c7 45 b0 00 00 00 	movq   $0x0,-0x50(%rbp)
    9956:	00 
    9957:	48 8d 85 28 ff ff ff 	lea    -0xd8(%rbp),%rax
    995e:	48 89 45 b8          	mov    %rax,-0x48(%rbp)
    9962:	48 c7 45 c0 00 00 00 	movq   $0x0,-0x40(%rbp)
    9969:	00 
    996a:	48 8d 85 28 ff ff ff 	lea    -0xd8(%rbp),%rax
    9971:	48 89 45 c8          	mov    %rax,-0x38(%rbp)
    9975:	8b 05 a9 06 01 00    	mov    0x106a9(%rip),%eax        # 1a024 <g_2>
    997b:	0f b6 c0             	movzbl %al,%eax
    997e:	be 01 00 00 00       	mov    $0x1,%esi
    9983:	89 c7                	mov    %eax,%edi
    9985:	e8 d0 f1 ff ff       	callq  8b5a <safe_add_func_uint8_t_u_u>
    998a:	0f b6 c0             	movzbl %al,%eax
    998d:	89 05 91 06 01 00    	mov    %eax,0x10691(%rip)        # 1a024 <g_2>
    9993:	8b 05 8b 06 01 00    	mov    0x1068b(%rip),%eax        # 1a024 <g_2>
    9999:	83 f8 1c             	cmp    $0x1c,%eax
    999c:	0f 8e fd fe ff ff    	jle    989f <func_1+0xea>
    99a2:	48 8b 85 10 ff ff ff 	mov    -0xf0(%rbp),%rax
    99a9:	48 8b 4d f8          	mov    -0x8(%rbp),%rcx
    99ad:	64 48 33 0c 25 28 00 	xor    %fs:0x28,%rcx
    99b4:	00 00 
    99b6:	74 05                	je     99bd <func_1+0x208>
    99b8:	e8 b3 e6 ff ff       	callq  8070 <__stack_chk_fail@plt>
    99bd:	c9                   	leaveq 
    99be:	c3                   	retq   

00000000000099bf <func_24>:
    99bf:	f3 0f 1e fa          	endbr64 
    99c3:	55                   	push   %rbp
    99c4:	48 89 e5             	mov    %rsp,%rbp
    99c7:	41 56                	push   %r14
    99c9:	41 55                	push   %r13
    99cb:	41 54                	push   %r12
    99cd:	53                   	push   %rbx
    99ce:	48 81 ec f0 00 00 00 	sub    $0xf0,%rsp
    99d5:	48 89 bd 08 ff ff ff 	mov    %rdi,-0xf8(%rbp)
    99dc:	48 89 b5 00 ff ff ff 	mov    %rsi,-0x100(%rbp)
    99e3:	48 89 95 f8 fe ff ff 	mov    %rdx,-0x108(%rbp)
    99ea:	64 48 8b 04 25 28 00 	mov    %fs:0x28,%rax
    99f1:	00 00 
    99f3:	48 89 45 d8          	mov    %rax,-0x28(%rbp)
    99f7:	31 c0                	xor    %eax,%eax
    99f9:	c7 85 14 ff ff ff 07 	movl   $0x7,-0xec(%rbp)
    9a00:	00 00 00 
    9a03:	48 b8 5f 54 84 8f 8a 	movabs $0xb1a06a8a8f84545f,%rax
    9a0a:	6a a0 b1 
    9a0d:	48 89 85 20 ff ff ff 	mov    %rax,-0xe0(%rbp)
    9a14:	48 8d 05 dd 08 01 00 	lea    0x108dd(%rip),%rax        # 1a2f8 <g_346>
    9a1b:	48 89 85 70 ff ff ff 	mov    %rax,-0x90(%rbp)
    9a22:	48 8d 05 c5 09 01 00 	lea    0x109c5(%rip),%rax        # 1a3ee <g_853>
    9a29:	48 89 85 78 ff ff ff 	mov    %rax,-0x88(%rbp)
    9a30:	48 8d 05 b7 09 01 00 	lea    0x109b7(%rip),%rax        # 1a3ee <g_853>
    9a37:	48 89 45 80          	mov    %rax,-0x80(%rbp)
    9a3b:	48 8d 05 b6 08 01 00 	lea    0x108b6(%rip),%rax        # 1a2f8 <g_346>
    9a42:	48 89 45 88          	mov    %rax,-0x78(%rbp)
    9a46:	48 8d 05 fd 05 01 00 	lea    0x105fd(%rip),%rax        # 1a04a <g_124>
    9a4d:	48 89 45 90          	mov    %rax,-0x70(%rbp)
    9a51:	48 8d 05 96 09 01 00 	lea    0x10996(%rip),%rax        # 1a3ee <g_853>
    9a58:	48 89 45 98          	mov    %rax,-0x68(%rbp)
    9a5c:	48 c7 45 a0 00 00 00 	movq   $0x0,-0x60(%rbp)
    9a63:	00 
    9a64:	48 8d 05 83 09 01 00 	lea    0x10983(%rip),%rax        # 1a3ee <g_853>
    9a6b:	48 89 45 a8          	mov    %rax,-0x58(%rbp)
    9a6f:	48 8d 05 78 09 01 00 	lea    0x10978(%rip),%rax        # 1a3ee <g_853>
    9a76:	48 89 45 b0          	mov    %rax,-0x50(%rbp)
    9a7a:	48 c7 45 b8 00 00 00 	movq   $0x0,-0x48(%rbp)
    9a81:	00 
    9a82:	48 c7 45 c0 00 00 00 	movq   $0x0,-0x40(%rbp)
    9a89:	00 
    9a8a:	48 c7 45 c8 00 00 00 	movq   $0x0,-0x38(%rbp)
    9a91:	00 
    9a92:	c7 85 18 ff ff ff ff 	movl   $0xffffffff,-0xe8(%rbp)
    9a99:	ff ff ff 
    9a9c:	48 b8 85 e2 cb 92 0f 	movabs $0x9f46cb0f92cbe285,%rax
    9aa3:	cb 46 9f 
    9aa6:	48 89 85 28 ff ff ff 	mov    %rax,-0xd8(%rbp)
    9aad:	48 8b 05 4c 26 01 00 	mov    0x1264c(%rip),%rax        # 1c100 <g_239>
    9ab4:	8b 95 14 ff ff ff    	mov    -0xec(%rbp),%edx
    9aba:	48 89 10             	mov    %rdx,(%rax)
    9abd:	48 8b 85 f8 fe ff ff 	mov    -0x108(%rbp),%rax
    9ac4:	44 8b 28             	mov    (%rax),%r13d
    9ac7:	8b 05 73 11 01 00    	mov    0x11173(%rip),%eax        # 1ac40 <g_1996>
    9acd:	41 89 c6             	mov    %eax,%r14d
    9ad0:	8b 9d 14 ff ff ff    	mov    -0xec(%rbp),%ebx
    9ad6:	48 8b 85 20 ff ff ff 	mov    -0xe0(%rbp),%rax
    9add:	44 0f b7 e0          	movzwl %ax,%r12d
    9ae1:	48 8b 85 20 ff ff ff 	mov    -0xe0(%rbp),%rax
    9ae8:	0f be c0             	movsbl %al,%eax
    9aeb:	be 01 00 00 00       	mov    $0x1,%esi
    9af0:	89 c7                	mov    %eax,%edi
    9af2:	e8 f7 e7 ff ff       	callq  82ee <safe_lshift_func_int8_t_s_u>
    9af7:	66 98                	cbtw   
    9af9:	0f b7 c0             	movzwl %ax,%eax
    9afc:	44 89 e6             	mov    %r12d,%esi
    9aff:	89 c7                	mov    %eax,%edi
    9b01:	e8 f9 f1 ff ff       	callq  8cff <safe_add_func_uint16_t_u_u>
    9b06:	0f b7 c0             	movzwl %ax,%eax
    9b09:	48 89 de             	mov    %rbx,%rsi
    9b0c:	48 89 c7             	mov    %rax,%rdi
    9b0f:	e8 6c f5 ff ff       	callq  9080 <safe_mod_func_uint64_t_u_u>
    9b14:	48 8b 05 5d 37 01 00 	mov    0x1375d(%rip),%rax        # 1d278 <g_1992>
    9b1b:	48 89 05 56 37 01 00 	mov    %rax,0x13756(%rip)        # 1d278 <g_1992>
    9b22:	48 8b 05 4f 37 01 00 	mov    0x1374f(%rip),%rax        # 1d278 <g_1992>
    9b29:	48 8d 15 e0 36 01 00 	lea    0x136e0(%rip),%rdx        # 1d210 <g_1719>
    9b30:	48 39 d0             	cmp    %rdx,%rax
    9b33:	0f 95 c0             	setne  %al
    9b36:	0f b6 c0             	movzbl %al,%eax
    9b39:	89 85 18 ff ff ff    	mov    %eax,-0xe8(%rbp)
    9b3f:	8b 85 18 ff ff ff    	mov    -0xe8(%rbp),%eax
    9b45:	39 85 14 ff ff ff    	cmp    %eax,-0xec(%rbp)
    9b4b:	0f 96 c0             	setbe  %al
    9b4e:	0f b6 c0             	movzbl %al,%eax
    9b51:	be bb 55 00 00       	mov    $0x55bb,%esi
    9b56:	89 c7                	mov    %eax,%edi
    9b58:	e8 b9 e8 ff ff       	callq  8416 <safe_mod_func_int16_t_s_s>
    9b5d:	98                   	cwtl   
    9b5e:	39 85 14 ff ff ff    	cmp    %eax,-0xec(%rbp)
    9b64:	0f 93 c0             	setae  %al
    9b67:	0f b6 d0             	movzbl %al,%edx
    9b6a:	48 8b 85 20 ff ff ff 	mov    -0xe0(%rbp),%rax
    9b71:	48 39 c2             	cmp    %rax,%rdx
    9b74:	0f 95 c0             	setne  %al
    9b77:	0f b6 c0             	movzbl %al,%eax
    9b7a:	44 89 f6             	mov    %r14d,%esi
    9b7d:	89 c7                	mov    %eax,%edi
    9b7f:	e8 4c f3 ff ff       	callq  8ed0 <safe_sub_func_uint32_t_u_u>
    9b84:	98                   	cwtl   
    9b85:	be 01 00 00 00       	mov    $0x1,%esi
    9b8a:	89 c7                	mov    %eax,%edi
    9b8c:	e8 22 e8 ff ff       	callq  83b3 <safe_add_func_int16_t_s_s>
    9b91:	98                   	cwtl   
    9b92:	41 39 c5             	cmp    %eax,%r13d
    9b95:	0f 9c c0             	setl   %al
    9b98:	0f b6 d0             	movzbl %al,%edx
    9b9b:	48 8b 85 f8 fe ff ff 	mov    -0x108(%rbp),%rax
    9ba2:	89 10                	mov    %edx,(%rax)
    9ba4:	c7 05 fa 0f 01 00 00 	movl   $0x0,0x10ffa(%rip)        # 1aba8 <g_1521>
    9bab:	00 00 00 
    9bae:	90                   	nop
    9baf:	8b 05 f3 0f 01 00    	mov    0x10ff3(%rip),%eax        # 1aba8 <g_1521>
    9bb5:	83 f8 02             	cmp    $0x2,%eax
    9bb8:	77 1d                	ja     9bd7 <func_24+0x218>
    9bba:	48 b8 51 7e 45 45 ee 	movabs $0xe1f014ee45457e51,%rax
    9bc1:	14 f0 e1 
    9bc4:	48 89 85 30 ff ff ff 	mov    %rax,-0xd0(%rbp)
    9bcb:	48 8b 85 30 ff ff ff 	mov    -0xd0(%rbp),%rax
    9bd2:	e9 85 02 00 00       	jmpq   9e5c <func_24+0x49d>
    9bd7:	48 c7 05 0e 07 01 00 	movq   $0x0,0x1070e(%rip)        # 1a2f0 <g_303>
    9bde:	00 00 00 00 
    9be2:	e9 5d 02 00 00       	jmpq   9e44 <func_24+0x485>
    9be7:	c7 85 1c ff ff ff 09 	movl   $0x9,-0xe4(%rbp)
    9bee:	00 00 00 
    9bf1:	48 8d 05 10 25 01 00 	lea    0x12510(%rip),%rax        # 1c108 <g_270>
    9bf8:	48 89 85 38 ff ff ff 	mov    %rax,-0xc8(%rbp)
    9bff:	48 8d 05 2a 04 01 00 	lea    0x1042a(%rip),%rax        # 1a030 <g_19>
    9c06:	48 89 85 40 ff ff ff 	mov    %rax,-0xc0(%rbp)
    9c0d:	48 c7 85 48 ff ff ff 	movq   $0x0,-0xb8(%rbp)
    9c14:	00 00 00 00 
    9c18:	c7 85 10 ff ff ff 00 	movl   $0x0,-0xf0(%rbp)
    9c1f:	00 00 00 
    9c22:	eb 1e                	jmp    9c42 <func_24+0x283>
    9c24:	8b 85 10 ff ff ff    	mov    -0xf0(%rbp),%eax
    9c2a:	48 98                	cltq   
    9c2c:	48 8d 15 cd 24 01 00 	lea    0x124cd(%rip),%rdx        # 1c100 <g_239>
    9c33:	48 89 94 c5 50 ff ff 	mov    %rdx,-0xb0(%rbp,%rax,8)
    9c3a:	ff 
    9c3b:	83 85 10 ff ff ff 01 	addl   $0x1,-0xf0(%rbp)
    9c42:	83 bd 10 ff ff ff 03 	cmpl   $0x3,-0xf0(%rbp)
    9c49:	7e d9                	jle    9c24 <func_24+0x265>
    9c4b:	48 8b 85 00 ff ff ff 	mov    -0x100(%rbp),%rax
    9c52:	0f b6 00             	movzbl (%rax),%eax
    9c55:	0f be d8             	movsbl %al,%ebx
    9c58:	48 8b 05 a1 24 01 00 	mov    0x124a1(%rip),%rax        # 1c100 <g_239>
    9c5f:	48 b9 b9 52 3c 94 4f 	movabs $0x9036ed4f943c52b9,%rcx
    9c66:	ed 36 90 
    9c69:	48 89 08             	mov    %rcx,(%rax)
    9c6c:	4c 8b 28             	mov    (%rax),%r13
    9c6f:	8b 05 1b c7 00 00    	mov    0xc71b(%rip),%eax        # 16390 <l_2013.4210+0x10>
    9c75:	41 89 c6             	mov    %eax,%r14d
    9c78:	48 8b 05 79 24 01 00 	mov    0x12479(%rip),%rax        # 1c0f8 <g_197>
    9c7f:	48 8b 00             	mov    (%rax),%rax
    9c82:	c7 00 00 00 00 00    	movl   $0x0,(%rax)
    9c88:	48 8b 05 91 2c 01 00 	mov    0x12c91(%rip),%rax        # 1c920 <g_561>
    9c8f:	48 8b 85 20 ff ff ff 	mov    -0xe0(%rbp),%rax
    9c96:	0f bf d0             	movswl %ax,%edx
    9c99:	48 8b 05 08 04 01 00 	mov    0x10408(%rip),%rax        # 1a0a8 <g_161+0x28>
    9ca0:	48 b9 4b e1 db 53 d1 	movabs $0xd4bc24d153dbe14b,%rcx
    9ca7:	24 bc d4 
    9caa:	48 39 c8             	cmp    %rcx,%rax
    9cad:	0f 96 c0             	setbe  %al
    9cb0:	0f b6 c0             	movzbl %al,%eax
    9cb3:	89 d6                	mov    %edx,%esi
    9cb5:	89 c7                	mov    %eax,%edi
    9cb7:	e8 39 e7 ff ff       	callq  83f5 <safe_mul_func_int16_t_s_s>
    9cbc:	44 0f bf e0          	movswl %ax,%r12d
    9cc0:	8b 85 18 ff ff ff    	mov    -0xe8(%rbp),%eax
    9cc6:	89 85 1c ff ff ff    	mov    %eax,-0xe4(%rbp)
    9ccc:	8b 85 1c ff ff ff    	mov    -0xe4(%rbp),%eax
    9cd2:	98                   	cwtl   
    9cd3:	be 0b 00 00 00       	mov    $0xb,%esi
    9cd8:	89 c7                	mov    %eax,%edi
    9cda:	e8 84 e8 ff ff       	callq  8563 <safe_rshift_func_int16_t_s_u>
    9cdf:	0f b6 c0             	movzbl %al,%eax
    9ce2:	44 89 e6             	mov    %r12d,%esi
    9ce5:	89 c7                	mov    %eax,%edi
    9ce7:	e8 d2 ef ff ff       	callq  8cbe <safe_rshift_func_uint8_t_u_u>
    9cec:	84 c0                	test   %al,%al
    9cee:	74 10                	je     9d00 <func_24+0x341>
    9cf0:	83 bd 1c ff ff ff 00 	cmpl   $0x0,-0xe4(%rbp)
    9cf7:	74 07                	je     9d00 <func_24+0x341>
    9cf9:	b8 01 00 00 00       	mov    $0x1,%eax
    9cfe:	eb 05                	jmp    9d05 <func_24+0x346>
    9d00:	b8 00 00 00 00       	mov    $0x0,%eax
    9d05:	3d f9 00 00 00       	cmp    $0xf9,%eax
    9d0a:	0f 97 c0             	seta   %al
    9d0d:	0f b6 c0             	movzbl %al,%eax
    9d10:	44 89 f6             	mov    %r14d,%esi
    9d13:	89 c7                	mov    %eax,%edi
    9d15:	e8 a4 ef ff ff       	callq  8cbe <safe_rshift_func_uint8_t_u_u>
    9d1a:	be ff ff ff ff       	mov    $0xffffffff,%esi
    9d1f:	bf 01 00 00 00       	mov    $0x1,%edi
    9d24:	e8 ab e4 ff ff       	callq  81d4 <safe_add_func_int8_t_s_s>
    9d29:	3c fa                	cmp    $0xfa,%al
    9d2b:	0f 94 c0             	sete   %al
    9d2e:	0f b6 c0             	movzbl %al,%eax
    9d31:	49 39 c5             	cmp    %rax,%r13
    9d34:	0f 9c c0             	setl   %al
    9d37:	0f b6 c0             	movzbl %al,%eax
    9d3a:	89 de                	mov    %ebx,%esi
    9d3c:	89 c7                	mov    %eax,%edi
    9d3e:	e8 f2 e5 ff ff       	callq  8335 <safe_rshift_func_int8_t_s_s>
    9d43:	0f be d0             	movsbl %al,%edx
    9d46:	8b 05 58 c6 00 00    	mov    0xc658(%rip),%eax        # 163a4 <l_2013.4210+0x24>
    9d4c:	39 c2                	cmp    %eax,%edx
    9d4e:	48 8b 85 f8 fe ff ff 	mov    -0x108(%rbp),%rax
    9d55:	c7 00 fc 21 07 2d    	movl   $0x2d0721fc,(%rax)
    9d5b:	8b 05 87 05 01 00    	mov    0x10587(%rip),%eax        # 1a2e8 <g_302>
    9d61:	0f b6 d8             	movzbl %al,%ebx
    9d64:	48 8b 05 dd 0e 01 00 	mov    0x10edd(%rip),%rax        # 1ac48 <g_2028>
    9d6b:	41 89 c5             	mov    %eax,%r13d
    9d6e:	48 8b 85 20 ff ff ff 	mov    -0xe0(%rbp),%rax
    9d75:	41 89 c6             	mov    %eax,%r14d
    9d78:	48 8b 15 99 23 01 00 	mov    0x12399(%rip),%rdx        # 1c118 <g_268>
    9d7f:	48 8b 05 fa 2b 01 00 	mov    0x12bfa(%rip),%rax        # 1c980 <g_943>
    9d86:	48 8b 12             	mov    (%rdx),%rdx
    9d89:	48 89 10             	mov    %rdx,(%rax)
    9d8c:	48 8b 00             	mov    (%rax),%rax
    9d8f:	48 39 85 38 ff ff ff 	cmp    %rax,-0xc8(%rbp)
    9d96:	0f 95 c0             	setne  %al
    9d99:	44 0f b6 e0          	movzbl %al,%r12d
    9d9d:	48 8d 05 64 0e 01 00 	lea    0x10e64(%rip),%rax        # 1ac08 <g_1760>
    9da4:	48 89 05 55 23 01 00 	mov    %rax,0x12355(%rip)        # 1c100 <g_239>
    9dab:	be 01 00 00 00       	mov    $0x1,%esi
    9db0:	bf e7 3b 00 00       	mov    $0x3be7,%edi
    9db5:	e8 d4 ef ff ff       	callq  8d8e <safe_div_func_uint16_t_u_u>
    9dba:	0f b7 d0             	movzwl %ax,%edx
    9dbd:	8b 85 14 ff ff ff    	mov    -0xec(%rbp),%eax
    9dc3:	48 89 d6             	mov    %rdx,%rsi
    9dc6:	48 89 c7             	mov    %rax,%rdi
    9dc9:	e8 7d f2 ff ff       	callq  904b <safe_sub_func_uint64_t_u_u>
    9dce:	48 8b 95 20 ff ff ff 	mov    -0xe0(%rbp),%rdx
    9dd5:	48 39 d0             	cmp    %rdx,%rax
    9dd8:	0f 96 c0             	setbe  %al
    9ddb:	0f b6 c0             	movzbl %al,%eax
    9dde:	41 39 c4             	cmp    %eax,%r12d
    9de1:	0f 9f c0             	setg   %al
    9de4:	0f b6 c0             	movzbl %al,%eax
    9de7:	44 89 f6             	mov    %r14d,%esi
    9dea:	89 c7                	mov    %eax,%edi
    9dec:	e8 89 f0 ff ff       	callq  8e7a <safe_rshift_func_uint16_t_u_u>
    9df1:	66 85 c0             	test   %ax,%ax
    9df4:	48 8b 05 b5 2b 01 00 	mov    0x12bb5(%rip),%rax        # 1c9b0 <g_1126>
    9dfb:	48 8b 00             	mov    (%rax),%rax
    9dfe:	48 8b 00             	mov    (%rax),%rax
    9e01:	8b 95 18 ff ff ff    	mov    -0xe8(%rbp),%edx
    9e07:	66 89 10             	mov    %dx,(%rax)
    9e0a:	0f b7 00             	movzwl (%rax),%eax
    9e0d:	0f b7 c0             	movzwl %ax,%eax
    9e10:	44 89 ee             	mov    %r13d,%esi
    9e13:	89 c7                	mov    %eax,%edi
    9e15:	e8 60 f0 ff ff       	callq  8e7a <safe_rshift_func_uint16_t_u_u>
    9e1a:	0f b6 c0             	movzbl %al,%eax
    9e1d:	89 de                	mov    %ebx,%esi
    9e1f:	89 c7                	mov    %eax,%edi
    9e21:	e8 88 ed ff ff       	callq  8bae <safe_mod_func_uint8_t_u_u>
    9e26:	0f b6 d0             	movzbl %al,%edx
    9e29:	48 8b 85 f8 fe ff ff 	mov    -0x108(%rbp),%rax
    9e30:	89 10                	mov    %edx,(%rax)
    9e32:	48 8b 05 b7 04 01 00 	mov    0x104b7(%rip),%rax        # 1a2f0 <g_303>
    9e39:	48 83 c0 01          	add    $0x1,%rax
    9e3d:	48 89 05 ac 04 01 00 	mov    %rax,0x104ac(%rip)        # 1a2f0 <g_303>
    9e44:	48 8b 05 a5 04 01 00 	mov    0x104a5(%rip),%rax        # 1a2f0 <g_303>
    9e4b:	48 83 f8 0a          	cmp    $0xa,%rax
    9e4f:	0f 86 92 fd ff ff    	jbe    9be7 <func_24+0x228>
    9e55:	48 8b 85 28 ff ff ff 	mov    -0xd8(%rbp),%rax
    9e5c:	48 8b 4d d8          	mov    -0x28(%rbp),%rcx
    9e60:	64 48 33 0c 25 28 00 	xor    %fs:0x28,%rcx
    9e67:	00 00 
    9e69:	74 05                	je     9e70 <func_24+0x4b1>
    9e6b:	e8 00 e2 ff ff       	callq  8070 <__stack_chk_fail@plt>
    9e70:	48 81 c4 f0 00 00 00 	add    $0xf0,%rsp
    9e77:	5b                   	pop    %rbx
    9e78:	41 5c                	pop    %r12
    9e7a:	41 5d                	pop    %r13
    9e7c:	41 5e                	pop    %r14
    9e7e:	5d                   	pop    %rbp
    9e7f:	c3                   	retq   

0000000000009e80 <func_28>:
    9e80:	f3 0f 1e fa          	endbr64 
    9e84:	55                   	push   %rbp
    9e85:	48 89 e5             	mov    %rsp,%rbp
    9e88:	41 57                	push   %r15
    9e8a:	41 56                	push   %r14
    9e8c:	41 55                	push   %r13
    9e8e:	41 54                	push   %r12
    9e90:	53                   	push   %rbx
    9e91:	48 81 ec 00 10 00 00 	sub    $0x1000,%rsp
    9e98:	48 83 0c 24 00       	orq    $0x0,(%rsp)
    9e9d:	48 81 ec 00 10 00 00 	sub    $0x1000,%rsp
    9ea4:	48 83 0c 24 00       	orq    $0x0,(%rsp)
    9ea9:	48 81 ec 18 0a 00 00 	sub    $0xa18,%rsp
    9eb0:	48 89 bd d8 d5 ff ff 	mov    %rdi,-0x2a28(%rbp)
    9eb7:	48 89 b5 d0 d5 ff ff 	mov    %rsi,-0x2a30(%rbp)
    9ebe:	64 48 8b 04 25 28 00 	mov    %fs:0x28,%rax
    9ec5:	00 00 
    9ec7:	48 89 45 c8          	mov    %rax,-0x38(%rbp)
    9ecb:	31 c0                	xor    %eax,%eax
    9ecd:	48 c7 85 28 d7 ff ff 	movq   $0x9,-0x28d8(%rbp)
    9ed4:	09 00 00 00 
    9ed8:	48 8d 85 60 f0 ff ff 	lea    -0xfa0(%rbp),%rax
    9edf:	48 8d 15 7a 0d 01 00 	lea    0x10d7a(%rip),%rdx        # 1ac60 <g_2100+0x8>
    9ee6:	b9 f0 00 00 00       	mov    $0xf0,%ecx
    9eeb:	48 89 c7             	mov    %rax,%rdi
    9eee:	48 89 d6             	mov    %rdx,%rsi
    9ef1:	f3 48 a5             	rep movsq %ds:(%rsi),%es:(%rdi)
    9ef4:	c7 85 04 d6 ff ff f8 	movl   $0xfffffff8,-0x29fc(%rbp)
    9efb:	ff ff ff 
    9efe:	c7 85 08 d6 ff ff 01 	movl   $0x1,-0x29f8(%rbp)
    9f05:	00 00 00 
    9f08:	c7 85 a0 dc ff ff fe 	movl   $0xfffffffe,-0x2360(%rbp)
    9f0f:	ff ff ff 
    9f12:	c7 85 a4 dc ff ff ff 	movl   $0xffffffff,-0x235c(%rbp)
    9f19:	ff ff ff 
    9f1c:	c7 85 a8 dc ff ff fe 	movl   $0xfffffffe,-0x2358(%rbp)
    9f23:	ff ff ff 
    9f26:	c7 85 ac dc ff ff 04 	movl   $0x4,-0x2354(%rbp)
    9f2d:	00 00 00 
    9f30:	c7 85 b0 dc ff ff ff 	movl   $0xffffffff,-0x2350(%rbp)
    9f37:	ff ff ff 
    9f3a:	c7 85 b4 dc ff ff 21 	movl   $0xe7895821,-0x234c(%rbp)
    9f41:	58 89 e7 
    9f44:	c7 85 b8 dc ff ff fe 	movl   $0xfffffffe,-0x2348(%rbp)
    9f4b:	ff ff ff 
    9f4e:	c7 85 bc dc ff ff f9 	movl   $0xfffffff9,-0x2344(%rbp)
    9f55:	ff ff ff 
    9f58:	c7 85 c0 dc ff ff 04 	movl   $0x4,-0x2340(%rbp)
    9f5f:	00 00 00 
    9f62:	c7 85 c4 dc ff ff 04 	movl   $0x4,-0x233c(%rbp)
    9f69:	00 00 00 
    9f6c:	c7 85 c8 dc ff ff f9 	movl   $0xfffffff9,-0x2338(%rbp)
    9f73:	ff ff ff 
    9f76:	c7 85 cc dc ff ff fe 	movl   $0xfffffffe,-0x2334(%rbp)
    9f7d:	ff ff ff 
    9f80:	c7 85 d0 dc ff ff fe 	movl   $0xfffffffe,-0x2330(%rbp)
    9f87:	ff ff ff 
    9f8a:	c7 85 d4 dc ff ff fc 	movl   $0xfffffffc,-0x232c(%rbp)
    9f91:	ff ff ff 
    9f94:	c7 85 d8 dc ff ff 21 	movl   $0xe7895821,-0x2328(%rbp)
    9f9b:	58 89 e7 
    9f9e:	c7 85 dc dc ff ff 04 	movl   $0x4,-0x2324(%rbp)
    9fa5:	00 00 00 
    9fa8:	c7 85 e0 dc ff ff fc 	movl   $0xfffffffc,-0x2320(%rbp)
    9faf:	ff ff ff 
    9fb2:	c7 85 e4 dc ff ff 04 	movl   $0x4,-0x231c(%rbp)
    9fb9:	00 00 00 
    9fbc:	c7 85 e8 dc ff ff fe 	movl   $0xfffffffe,-0x2318(%rbp)
    9fc3:	ff ff ff 
    9fc6:	c7 85 ec dc ff ff ff 	movl   $0xffffffff,-0x2314(%rbp)
    9fcd:	ff ff ff 
    9fd0:	c7 85 f0 dc ff ff fe 	movl   $0xfffffffe,-0x2310(%rbp)
    9fd7:	ff ff ff 
    9fda:	c7 85 f4 dc ff ff 04 	movl   $0x4,-0x230c(%rbp)
    9fe1:	00 00 00 
    9fe4:	c7 85 f8 dc ff ff ff 	movl   $0xffffffff,-0x2308(%rbp)
    9feb:	ff ff ff 
    9fee:	c7 85 fc dc ff ff 21 	movl   $0xe7895821,-0x2304(%rbp)
    9ff5:	58 89 e7 
    9ff8:	c7 85 00 dd ff ff fe 	movl   $0xfffffffe,-0x2300(%rbp)
    9fff:	ff ff ff 
    a002:	c7 85 04 dd ff ff f9 	movl   $0xfffffff9,-0x22fc(%rbp)
    a009:	ff ff ff 
    a00c:	c7 85 08 dd ff ff 04 	movl   $0x4,-0x22f8(%rbp)
    a013:	00 00 00 
    a016:	c7 85 0c dd ff ff 04 	movl   $0x4,-0x22f4(%rbp)
    a01d:	00 00 00 
    a020:	c7 85 10 dd ff ff f9 	movl   $0xfffffff9,-0x22f0(%rbp)
    a027:	ff ff ff 
    a02a:	c7 85 14 dd ff ff fe 	movl   $0xfffffffe,-0x22ec(%rbp)
    a031:	ff ff ff 
    a034:	c7 85 18 dd ff ff fe 	movl   $0xfffffffe,-0x22e8(%rbp)
    a03b:	ff ff ff 
    a03e:	c7 85 1c dd ff ff fc 	movl   $0xfffffffc,-0x22e4(%rbp)
    a045:	ff ff ff 
    a048:	c7 85 20 dd ff ff 21 	movl   $0xe7895821,-0x22e0(%rbp)
    a04f:	58 89 e7 
    a052:	c7 85 24 dd ff ff 04 	movl   $0x4,-0x22dc(%rbp)
    a059:	00 00 00 
    a05c:	c7 85 28 dd ff ff fc 	movl   $0xfffffffc,-0x22d8(%rbp)
    a063:	ff ff ff 
    a066:	c7 85 2c dd ff ff 04 	movl   $0x4,-0x22d4(%rbp)
    a06d:	00 00 00 
    a070:	48 c7 85 e8 d7 ff ff 	movq   $0xffffffffffffffff,-0x2818(%rbp)
    a077:	ff ff ff ff 
    a07b:	48 8d 05 de 0a 01 00 	lea    0x10ade(%rip),%rax        # 1ab60 <g_1049>
    a082:	48 89 85 f8 d7 ff ff 	mov    %rax,-0x2808(%rbp)
    a089:	c7 85 54 d6 ff ff f6 	movl   $0xfffffff6,-0x29ac(%rbp)
    a090:	ff ff ff 
    a093:	48 8d 05 5e 20 01 00 	lea    0x1205e(%rip),%rax        # 1c0f8 <g_197>
    a09a:	48 89 85 30 d7 ff ff 	mov    %rax,-0x28d0(%rbp)
    a0a1:	48 8d 05 f0 28 01 00 	lea    0x128f0(%rip),%rax        # 1c998 <g_1125>
    a0a8:	48 89 85 00 d8 ff ff 	mov    %rax,-0x2800(%rbp)
    a0af:	48 c7 85 38 d7 ff ff 	movq   $0xffffffffffffffff,-0x28c8(%rbp)
    a0b6:	ff ff ff ff 
    a0ba:	c7 85 0c d6 ff ff 02 	movl   $0x2,-0x29f4(%rbp)
    a0c1:	00 00 00 
    a0c4:	48 c7 85 08 d8 ff ff 	movq   $0x0,-0x27f8(%rbp)
    a0cb:	00 00 00 00 
    a0cf:	48 8d 85 c0 ea ff ff 	lea    -0x1540(%rbp),%rax
    a0d6:	48 8d 15 03 13 01 00 	lea    0x11303(%rip),%rdx        # 1b3e0 <g_2100+0x788>
    a0dd:	b9 b4 00 00 00       	mov    $0xb4,%ecx
    a0e2:	48 89 c7             	mov    %rax,%rdi
    a0e5:	48 89 d6             	mov    %rdx,%rsi
    a0e8:	f3 48 a5             	rep movsq %ds:(%rsi),%es:(%rdi)
    a0eb:	c7 85 58 d6 ff ff ff 	movl   $0xffffffff,-0x29a8(%rbp)
    a0f2:	ff ff ff 
    a0f5:	48 8d 05 4c 28 01 00 	lea    0x1284c(%rip),%rax        # 1c948 <g_872>
    a0fc:	48 89 85 10 d8 ff ff 	mov    %rax,-0x27f0(%rbp)
    a103:	c7 85 5c d6 ff ff 1d 	movl   $0xcb7dc81d,-0x29a4(%rbp)
    a10a:	c8 7d cb 
    a10d:	48 c7 85 18 d8 ff ff 	movq   $0x0,-0x27e8(%rbp)
    a114:	00 00 00 00 
    a118:	48 8d 85 08 d6 ff ff 	lea    -0x29f8(%rbp),%rax
    a11f:	48 89 85 f0 e7 ff ff 	mov    %rax,-0x1810(%rbp)
    a126:	48 8d 05 bb 01 01 00 	lea    0x101bb(%rip),%rax        # 1a2e8 <g_302>
    a12d:	48 89 85 f8 e7 ff ff 	mov    %rax,-0x1808(%rbp)
    a134:	48 c7 85 00 e8 ff ff 	movq   $0x0,-0x1800(%rbp)
    a13b:	00 00 00 00 
    a13f:	48 c7 85 08 e8 ff ff 	movq   $0x0,-0x17f8(%rbp)
    a146:	00 00 00 00 
    a14a:	48 8d 05 97 01 01 00 	lea    0x10197(%rip),%rax        # 1a2e8 <g_302>
    a151:	48 89 85 10 e8 ff ff 	mov    %rax,-0x17f0(%rbp)
    a158:	48 8d 85 08 d6 ff ff 	lea    -0x29f8(%rbp),%rax
    a15f:	48 89 85 18 e8 ff ff 	mov    %rax,-0x17e8(%rbp)
    a166:	48 8d 85 a0 dc ff ff 	lea    -0x2360(%rbp),%rax
    a16d:	48 83 c0 04          	add    $0x4,%rax
    a171:	48 89 85 20 e8 ff ff 	mov    %rax,-0x17e0(%rbp)
    a178:	48 8d 85 04 d6 ff ff 	lea    -0x29fc(%rbp),%rax
    a17f:	48 89 85 28 e8 ff ff 	mov    %rax,-0x17d8(%rbp)
    a186:	48 8d 85 a0 dc ff ff 	lea    -0x2360(%rbp),%rax
    a18d:	48 83 c0 04          	add    $0x4,%rax
    a191:	48 89 85 30 e8 ff ff 	mov    %rax,-0x17d0(%rbp)
    a198:	48 8d 85 04 d6 ff ff 	lea    -0x29fc(%rbp),%rax
    a19f:	48 89 85 38 e8 ff ff 	mov    %rax,-0x17c8(%rbp)
    a1a6:	48 8d 05 5b 01 01 00 	lea    0x1015b(%rip),%rax        # 1a308 <g_435>
    a1ad:	48 89 85 40 e8 ff ff 	mov    %rax,-0x17c0(%rbp)
    a1b4:	48 8d 85 0c d6 ff ff 	lea    -0x29f4(%rbp),%rax
    a1bb:	48 89 85 48 e8 ff ff 	mov    %rax,-0x17b8(%rbp)
    a1c2:	48 8d 85 04 d6 ff ff 	lea    -0x29fc(%rbp),%rax
    a1c9:	48 89 85 50 e8 ff ff 	mov    %rax,-0x17b0(%rbp)
    a1d0:	48 8d 85 08 d6 ff ff 	lea    -0x29f8(%rbp),%rax
    a1d7:	48 89 85 58 e8 ff ff 	mov    %rax,-0x17a8(%rbp)
    a1de:	48 8d 05 47 fe 00 00 	lea    0xfe47(%rip),%rax        # 1a02c <g_9>
    a1e5:	48 89 85 60 e8 ff ff 	mov    %rax,-0x17a0(%rbp)
    a1ec:	48 8d 05 f5 00 01 00 	lea    0x100f5(%rip),%rax        # 1a2e8 <g_302>
    a1f3:	48 89 85 68 e8 ff ff 	mov    %rax,-0x1798(%rbp)
    a1fa:	48 8d 05 2b fe 00 00 	lea    0xfe2b(%rip),%rax        # 1a02c <g_9>
    a201:	48 89 85 70 e8 ff ff 	mov    %rax,-0x1790(%rbp)
    a208:	48 8d 85 04 d6 ff ff 	lea    -0x29fc(%rbp),%rax
    a20f:	48 89 85 78 e8 ff ff 	mov    %rax,-0x1788(%rbp)
    a216:	48 c7 85 80 e8 ff ff 	movq   $0x0,-0x1780(%rbp)
    a21d:	00 00 00 00 
    a221:	48 c7 85 88 e8 ff ff 	movq   $0x0,-0x1778(%rbp)
    a228:	00 00 00 00 
    a22c:	48 8d 85 a0 dc ff ff 	lea    -0x2360(%rbp),%rax
    a233:	48 83 c0 04          	add    $0x4,%rax
    a237:	48 89 85 90 e8 ff ff 	mov    %rax,-0x1770(%rbp)
    a23e:	48 c7 85 98 e8 ff ff 	movq   $0x0,-0x1768(%rbp)
    a245:	00 00 00 00 
    a249:	48 8d 85 08 d6 ff ff 	lea    -0x29f8(%rbp),%rax
    a250:	48 89 85 a0 e8 ff ff 	mov    %rax,-0x1760(%rbp)
    a257:	48 8d 85 a0 dc ff ff 	lea    -0x2360(%rbp),%rax
    a25e:	48 83 c0 04          	add    $0x4,%rax
    a262:	48 89 85 a8 e8 ff ff 	mov    %rax,-0x1758(%rbp)
    a269:	48 c7 85 b0 e8 ff ff 	movq   $0x0,-0x1750(%rbp)
    a270:	00 00 00 00 
    a274:	48 8d 85 a0 dc ff ff 	lea    -0x2360(%rbp),%rax
    a27b:	48 83 c0 04          	add    $0x4,%rax
    a27f:	48 89 85 b8 e8 ff ff 	mov    %rax,-0x1748(%rbp)
    a286:	48 8d 85 08 d6 ff ff 	lea    -0x29f8(%rbp),%rax
    a28d:	48 89 85 c0 e8 ff ff 	mov    %rax,-0x1740(%rbp)
    a294:	48 8d 85 a0 dc ff ff 	lea    -0x2360(%rbp),%rax
    a29b:	48 83 c0 04          	add    $0x4,%rax
    a29f:	48 89 85 c8 e8 ff ff 	mov    %rax,-0x1738(%rbp)
    a2a6:	48 8d 85 0c d6 ff ff 	lea    -0x29f4(%rbp),%rax
    a2ad:	48 89 85 d0 e8 ff ff 	mov    %rax,-0x1730(%rbp)
    a2b4:	48 8d 85 0c d6 ff ff 	lea    -0x29f4(%rbp),%rax
    a2bb:	48 89 85 d8 e8 ff ff 	mov    %rax,-0x1728(%rbp)
    a2c2:	48 8d 85 a0 dc ff ff 	lea    -0x2360(%rbp),%rax
    a2c9:	48 83 c0 04          	add    $0x4,%rax
    a2cd:	48 89 85 e0 e8 ff ff 	mov    %rax,-0x1720(%rbp)
    a2d4:	48 8d 05 0d 00 01 00 	lea    0x1000d(%rip),%rax        # 1a2e8 <g_302>
    a2db:	48 89 85 e8 e8 ff ff 	mov    %rax,-0x1718(%rbp)
    a2e2:	48 8d 85 a0 dc ff ff 	lea    -0x2360(%rbp),%rax
    a2e9:	48 83 c0 04          	add    $0x4,%rax
    a2ed:	48 89 85 f0 e8 ff ff 	mov    %rax,-0x1710(%rbp)
    a2f4:	48 c7 85 f8 e8 ff ff 	movq   $0x0,-0x1708(%rbp)
    a2fb:	00 00 00 00 
    a2ff:	48 8d 85 04 d6 ff ff 	lea    -0x29fc(%rbp),%rax
    a306:	48 89 85 00 e9 ff ff 	mov    %rax,-0x1700(%rbp)
    a30d:	48 8d 85 04 d6 ff ff 	lea    -0x29fc(%rbp),%rax
    a314:	48 89 85 08 e9 ff ff 	mov    %rax,-0x16f8(%rbp)
    a31b:	48 c7 85 10 e9 ff ff 	movq   $0x0,-0x16f0(%rbp)
    a322:	00 00 00 00 
    a326:	48 c7 85 18 e9 ff ff 	movq   $0x0,-0x16e8(%rbp)
    a32d:	00 00 00 00 
    a331:	48 c7 85 20 e9 ff ff 	movq   $0x0,-0x16e0(%rbp)
    a338:	00 00 00 00 
    a33c:	48 8d 85 08 d6 ff ff 	lea    -0x29f8(%rbp),%rax
    a343:	48 89 85 28 e9 ff ff 	mov    %rax,-0x16d8(%rbp)
    a34a:	48 8d 85 08 d6 ff ff 	lea    -0x29f8(%rbp),%rax
    a351:	48 89 85 30 e9 ff ff 	mov    %rax,-0x16d0(%rbp)
    a358:	48 8d 05 89 ff 00 00 	lea    0xff89(%rip),%rax        # 1a2e8 <g_302>
    a35f:	48 89 85 38 e9 ff ff 	mov    %rax,-0x16c8(%rbp)
    a366:	48 8d 85 04 d6 ff ff 	lea    -0x29fc(%rbp),%rax
    a36d:	48 89 85 40 e9 ff ff 	mov    %rax,-0x16c0(%rbp)
    a374:	48 c7 85 48 e9 ff ff 	movq   $0x0,-0x16b8(%rbp)
    a37b:	00 00 00 00 
    a37f:	48 8d 85 0c d6 ff ff 	lea    -0x29f4(%rbp),%rax
    a386:	48 89 85 50 e9 ff ff 	mov    %rax,-0x16b0(%rbp)
    a38d:	48 8d 85 04 d6 ff ff 	lea    -0x29fc(%rbp),%rax
    a394:	48 89 85 58 e9 ff ff 	mov    %rax,-0x16a8(%rbp)
    a39b:	48 8d 85 04 d6 ff ff 	lea    -0x29fc(%rbp),%rax
    a3a2:	48 89 85 60 e9 ff ff 	mov    %rax,-0x16a0(%rbp)
    a3a9:	48 8d 05 58 ff 00 00 	lea    0xff58(%rip),%rax        # 1a308 <g_435>
    a3b0:	48 89 85 68 e9 ff ff 	mov    %rax,-0x1698(%rbp)
    a3b7:	48 8d 85 a0 dc ff ff 	lea    -0x2360(%rbp),%rax
    a3be:	48 83 c0 04          	add    $0x4,%rax
    a3c2:	48 89 85 70 e9 ff ff 	mov    %rax,-0x1690(%rbp)
    a3c9:	48 8d 05 18 ff 00 00 	lea    0xff18(%rip),%rax        # 1a2e8 <g_302>
    a3d0:	48 89 85 78 e9 ff ff 	mov    %rax,-0x1688(%rbp)
    a3d7:	48 8d 85 04 d6 ff ff 	lea    -0x29fc(%rbp),%rax
    a3de:	48 89 85 80 e9 ff ff 	mov    %rax,-0x1680(%rbp)
    a3e5:	48 8d 05 fc fe 00 00 	lea    0xfefc(%rip),%rax        # 1a2e8 <g_302>
    a3ec:	48 89 85 88 e9 ff ff 	mov    %rax,-0x1678(%rbp)
    a3f3:	48 8d 85 a0 dc ff ff 	lea    -0x2360(%rbp),%rax
    a3fa:	48 83 c0 04          	add    $0x4,%rax
    a3fe:	48 89 85 90 e9 ff ff 	mov    %rax,-0x1670(%rbp)
    a405:	48 8d 05 fc fe 00 00 	lea    0xfefc(%rip),%rax        # 1a308 <g_435>
    a40c:	48 89 85 98 e9 ff ff 	mov    %rax,-0x1668(%rbp)
    a413:	48 8d 85 08 d6 ff ff 	lea    -0x29f8(%rbp),%rax
    a41a:	48 89 85 a0 e9 ff ff 	mov    %rax,-0x1660(%rbp)
    a421:	48 8d 85 08 d6 ff ff 	lea    -0x29f8(%rbp),%rax
    a428:	48 89 85 a8 e9 ff ff 	mov    %rax,-0x1658(%rbp)
    a42f:	48 8d 85 04 d6 ff ff 	lea    -0x29fc(%rbp),%rax
    a436:	48 89 85 b0 e9 ff ff 	mov    %rax,-0x1650(%rbp)
    a43d:	48 8d 85 a0 dc ff ff 	lea    -0x2360(%rbp),%rax
    a444:	48 83 c0 04          	add    $0x4,%rax
    a448:	48 89 85 b8 e9 ff ff 	mov    %rax,-0x1648(%rbp)
    a44f:	48 8d 85 08 d6 ff ff 	lea    -0x29f8(%rbp),%rax
    a456:	48 89 85 c0 e9 ff ff 	mov    %rax,-0x1640(%rbp)
    a45d:	48 8d 05 c8 fb 00 00 	lea    0xfbc8(%rip),%rax        # 1a02c <g_9>
    a464:	48 89 85 c8 e9 ff ff 	mov    %rax,-0x1638(%rbp)
    a46b:	48 8d 85 0c d6 ff ff 	lea    -0x29f4(%rbp),%rax
    a472:	48 89 85 d0 e9 ff ff 	mov    %rax,-0x1630(%rbp)
    a479:	48 c7 85 d8 e9 ff ff 	movq   $0x0,-0x1628(%rbp)
    a480:	00 00 00 00 
    a484:	48 8d 85 a0 dc ff ff 	lea    -0x2360(%rbp),%rax
    a48b:	48 83 c0 04          	add    $0x4,%rax
    a48f:	48 89 85 e0 e9 ff ff 	mov    %rax,-0x1620(%rbp)
    a496:	48 8d 85 0c d6 ff ff 	lea    -0x29f4(%rbp),%rax
    a49d:	48 89 85 e8 e9 ff ff 	mov    %rax,-0x1618(%rbp)
    a4a4:	48 8d 05 81 fb 00 00 	lea    0xfb81(%rip),%rax        # 1a02c <g_9>
    a4ab:	48 89 85 f0 e9 ff ff 	mov    %rax,-0x1610(%rbp)
    a4b2:	48 8d 85 a0 dc ff ff 	lea    -0x2360(%rbp),%rax
    a4b9:	48 83 c0 04          	add    $0x4,%rax
    a4bd:	48 89 85 f8 e9 ff ff 	mov    %rax,-0x1608(%rbp)
    a4c4:	48 8d 85 08 d6 ff ff 	lea    -0x29f8(%rbp),%rax
    a4cb:	48 89 85 00 ea ff ff 	mov    %rax,-0x1600(%rbp)
    a4d2:	48 8d 85 04 d6 ff ff 	lea    -0x29fc(%rbp),%rax
    a4d9:	48 89 85 08 ea ff ff 	mov    %rax,-0x15f8(%rbp)
    a4e0:	48 c7 85 10 ea ff ff 	movq   $0x0,-0x15f0(%rbp)
    a4e7:	00 00 00 00 
    a4eb:	48 8d 05 3a fb 00 00 	lea    0xfb3a(%rip),%rax        # 1a02c <g_9>
    a4f2:	48 89 85 18 ea ff ff 	mov    %rax,-0x15e8(%rbp)
    a4f9:	48 8d 85 a0 dc ff ff 	lea    -0x2360(%rbp),%rax
    a500:	48 83 c0 04          	add    $0x4,%rax
    a504:	48 89 85 20 ea ff ff 	mov    %rax,-0x15e0(%rbp)
    a50b:	48 8d 85 04 d6 ff ff 	lea    -0x29fc(%rbp),%rax
    a512:	48 89 85 28 ea ff ff 	mov    %rax,-0x15d8(%rbp)
    a519:	48 8d 85 04 d6 ff ff 	lea    -0x29fc(%rbp),%rax
    a520:	48 89 85 30 ea ff ff 	mov    %rax,-0x15d0(%rbp)
    a527:	48 8d 85 04 d6 ff ff 	lea    -0x29fc(%rbp),%rax
    a52e:	48 89 85 38 ea ff ff 	mov    %rax,-0x15c8(%rbp)
    a535:	48 8d 85 04 d6 ff ff 	lea    -0x29fc(%rbp),%rax
    a53c:	48 89 85 40 ea ff ff 	mov    %rax,-0x15c0(%rbp)
    a543:	48 8d 85 a0 dc ff ff 	lea    -0x2360(%rbp),%rax
    a54a:	48 83 c0 04          	add    $0x4,%rax
    a54e:	48 89 85 48 ea ff ff 	mov    %rax,-0x15b8(%rbp)
    a555:	48 8d 05 ac fd 00 00 	lea    0xfdac(%rip),%rax        # 1a308 <g_435>
    a55c:	48 89 85 50 ea ff ff 	mov    %rax,-0x15b0(%rbp)
    a563:	48 8d 85 a0 dc ff ff 	lea    -0x2360(%rbp),%rax
    a56a:	48 83 c0 04          	add    $0x4,%rax
    a56e:	48 89 85 58 ea ff ff 	mov    %rax,-0x15a8(%rbp)
    a575:	48 8d 85 04 d6 ff ff 	lea    -0x29fc(%rbp),%rax
    a57c:	48 89 85 60 ea ff ff 	mov    %rax,-0x15a0(%rbp)
    a583:	48 8d 85 04 d6 ff ff 	lea    -0x29fc(%rbp),%rax
    a58a:	48 89 85 68 ea ff ff 	mov    %rax,-0x1598(%rbp)
    a591:	48 8d 85 04 d6 ff ff 	lea    -0x29fc(%rbp),%rax
    a598:	48 89 85 70 ea ff ff 	mov    %rax,-0x1590(%rbp)
    a59f:	48 8d 85 0c d6 ff ff 	lea    -0x29f4(%rbp),%rax
    a5a6:	48 89 85 78 ea ff ff 	mov    %rax,-0x1588(%rbp)
    a5ad:	48 8d 85 04 d6 ff ff 	lea    -0x29fc(%rbp),%rax
    a5b4:	48 89 85 80 ea ff ff 	mov    %rax,-0x1580(%rbp)
    a5bb:	48 8d 05 46 fd 00 00 	lea    0xfd46(%rip),%rax        # 1a308 <g_435>
    a5c2:	48 89 85 88 ea ff ff 	mov    %rax,-0x1578(%rbp)
    a5c9:	48 c7 85 90 ea ff ff 	movq   $0x0,-0x1570(%rbp)
    a5d0:	00 00 00 00 
    a5d4:	48 8d 85 08 d6 ff ff 	lea    -0x29f8(%rbp),%rax
    a5db:	48 89 85 98 ea ff ff 	mov    %rax,-0x1568(%rbp)
    a5e2:	48 c7 85 a0 ea ff ff 	movq   $0x0,-0x1560(%rbp)
    a5e9:	00 00 00 00 
    a5ed:	48 8d 85 0c d6 ff ff 	lea    -0x29f4(%rbp),%rax
    a5f4:	48 89 85 a8 ea ff ff 	mov    %rax,-0x1558(%rbp)
    a5fb:	48 8d 05 06 fd 00 00 	lea    0xfd06(%rip),%rax        # 1a308 <g_435>
    a602:	48 89 85 b0 ea ff ff 	mov    %rax,-0x1550(%rbp)
    a609:	48 8d 85 04 d6 ff ff 	lea    -0x29fc(%rbp),%rax
    a610:	48 89 85 b8 ea ff ff 	mov    %rax,-0x1548(%rbp)
    a617:	c7 85 60 d6 ff ff c1 	movl   $0x5a2e85c1,-0x29a0(%rbp)
    a61e:	85 2e 5a 
    a621:	66 c7 85 90 db ff ff 	movw   $0xdee1,-0x2470(%rbp)
    a628:	e1 de 
    a62a:	66 c7 85 92 db ff ff 	movw   $0xdee1,-0x246e(%rbp)
    a631:	e1 de 
    a633:	66 c7 85 94 db ff ff 	movw   $0xdee1,-0x246c(%rbp)
    a63a:	e1 de 
    a63c:	66 c7 85 96 db ff ff 	movw   $0xdee1,-0x246a(%rbp)
    a643:	e1 de 
    a645:	66 c7 85 98 db ff ff 	movw   $0xdee1,-0x2468(%rbp)
    a64c:	e1 de 
    a64e:	66 c7 85 9a db ff ff 	movw   $0xdee1,-0x2466(%rbp)
    a655:	e1 de 
    a657:	66 c7 85 9c db ff ff 	movw   $0xdee1,-0x2464(%rbp)
    a65e:	e1 de 
    a660:	66 c7 85 9e db ff ff 	movw   $0xdee1,-0x2462(%rbp)
    a667:	e1 de 
    a669:	66 c7 85 a0 db ff ff 	movw   $0xdee1,-0x2460(%rbp)
    a670:	e1 de 
    a672:	66 c7 85 a2 db ff ff 	movw   $0xdee1,-0x245e(%rbp)
    a679:	e1 de 
    a67b:	66 c7 85 a4 db ff ff 	movw   $0xdee1,-0x245c(%rbp)
    a682:	e1 de 
    a684:	66 c7 85 a6 db ff ff 	movw   $0xdee1,-0x245a(%rbp)
    a68b:	e1 de 
    a68d:	66 c7 85 a8 db ff ff 	movw   $0xdee1,-0x2458(%rbp)
    a694:	e1 de 
    a696:	66 c7 85 aa db ff ff 	movw   $0xdee1,-0x2456(%rbp)
    a69d:	e1 de 
    a69f:	66 c7 85 ac db ff ff 	movw   $0xdee1,-0x2454(%rbp)
    a6a6:	e1 de 
    a6a8:	66 c7 85 ae db ff ff 	movw   $0xdee1,-0x2452(%rbp)
    a6af:	e1 de 
    a6b1:	66 c7 85 b0 db ff ff 	movw   $0xdee1,-0x2450(%rbp)
    a6b8:	e1 de 
    a6ba:	66 c7 85 b2 db ff ff 	movw   $0xdee1,-0x244e(%rbp)
    a6c1:	e1 de 
    a6c3:	66 c7 85 b4 db ff ff 	movw   $0xdee1,-0x244c(%rbp)
    a6ca:	e1 de 
    a6cc:	66 c7 85 b6 db ff ff 	movw   $0xdee1,-0x244a(%rbp)
    a6d3:	e1 de 
    a6d5:	66 c7 85 b8 db ff ff 	movw   $0xdee1,-0x2448(%rbp)
    a6dc:	e1 de 
    a6de:	66 c7 85 ba db ff ff 	movw   $0xdee1,-0x2446(%rbp)
    a6e5:	e1 de 
    a6e7:	66 c7 85 bc db ff ff 	movw   $0xdee1,-0x2444(%rbp)
    a6ee:	e1 de 
    a6f0:	66 c7 85 be db ff ff 	movw   $0xdee1,-0x2442(%rbp)
    a6f7:	e1 de 
    a6f9:	66 c7 85 c0 db ff ff 	movw   $0xdee1,-0x2440(%rbp)
    a700:	e1 de 
    a702:	66 c7 85 c2 db ff ff 	movw   $0xdee1,-0x243e(%rbp)
    a709:	e1 de 
    a70b:	66 c7 85 c4 db ff ff 	movw   $0xdee1,-0x243c(%rbp)
    a712:	e1 de 
    a714:	66 c7 85 c6 db ff ff 	movw   $0xdee1,-0x243a(%rbp)
    a71b:	e1 de 
    a71d:	66 c7 85 c8 db ff ff 	movw   $0xdee1,-0x2438(%rbp)
    a724:	e1 de 
    a726:	66 c7 85 ca db ff ff 	movw   $0xdee1,-0x2436(%rbp)
    a72d:	e1 de 
    a72f:	48 8d 05 22 22 01 00 	lea    0x12222(%rip),%rax        # 1c958 <g_875>
    a736:	48 89 85 40 d7 ff ff 	mov    %rax,-0x28c0(%rbp)
    a73d:	48 8d 85 40 d7 ff ff 	lea    -0x28c0(%rbp),%rax
    a744:	48 89 85 40 df ff ff 	mov    %rax,-0x20c0(%rbp)
    a74b:	48 8d 85 40 d7 ff ff 	lea    -0x28c0(%rbp),%rax
    a752:	48 89 85 48 df ff ff 	mov    %rax,-0x20b8(%rbp)
    a759:	48 8d 85 40 d7 ff ff 	lea    -0x28c0(%rbp),%rax
    a760:	48 89 85 50 df ff ff 	mov    %rax,-0x20b0(%rbp)
    a767:	48 8d 85 40 d7 ff ff 	lea    -0x28c0(%rbp),%rax
    a76e:	48 89 85 58 df ff ff 	mov    %rax,-0x20a8(%rbp)
    a775:	48 8d 85 40 d7 ff ff 	lea    -0x28c0(%rbp),%rax
    a77c:	48 89 85 60 df ff ff 	mov    %rax,-0x20a0(%rbp)
    a783:	48 c7 85 68 df ff ff 	movq   $0x0,-0x2098(%rbp)
    a78a:	00 00 00 00 
    a78e:	48 8d 85 40 d7 ff ff 	lea    -0x28c0(%rbp),%rax
    a795:	48 89 85 70 df ff ff 	mov    %rax,-0x2090(%rbp)
    a79c:	48 c7 85 78 df ff ff 	movq   $0x0,-0x2088(%rbp)
    a7a3:	00 00 00 00 
    a7a7:	48 8d 85 40 d7 ff ff 	lea    -0x28c0(%rbp),%rax
    a7ae:	48 89 85 80 df ff ff 	mov    %rax,-0x2080(%rbp)
    a7b5:	48 8d 85 40 d7 ff ff 	lea    -0x28c0(%rbp),%rax
    a7bc:	48 89 85 88 df ff ff 	mov    %rax,-0x2078(%rbp)
    a7c3:	48 8d 85 40 d7 ff ff 	lea    -0x28c0(%rbp),%rax
    a7ca:	48 89 85 90 df ff ff 	mov    %rax,-0x2070(%rbp)
    a7d1:	48 8d 85 40 d7 ff ff 	lea    -0x28c0(%rbp),%rax
    a7d8:	48 89 85 98 df ff ff 	mov    %rax,-0x2068(%rbp)
    a7df:	48 8d 85 40 d7 ff ff 	lea    -0x28c0(%rbp),%rax
    a7e6:	48 89 85 a0 df ff ff 	mov    %rax,-0x2060(%rbp)
    a7ed:	48 8d 85 40 d7 ff ff 	lea    -0x28c0(%rbp),%rax
    a7f4:	48 89 85 a8 df ff ff 	mov    %rax,-0x2058(%rbp)
    a7fb:	48 8d 85 40 d7 ff ff 	lea    -0x28c0(%rbp),%rax
    a802:	48 89 85 b0 df ff ff 	mov    %rax,-0x2050(%rbp)
    a809:	48 c7 85 b8 df ff ff 	movq   $0x0,-0x2048(%rbp)
    a810:	00 00 00 00 
    a814:	48 8d 85 40 d7 ff ff 	lea    -0x28c0(%rbp),%rax
    a81b:	48 89 85 c0 df ff ff 	mov    %rax,-0x2040(%rbp)
    a822:	48 8d 85 40 d7 ff ff 	lea    -0x28c0(%rbp),%rax
    a829:	48 89 85 c8 df ff ff 	mov    %rax,-0x2038(%rbp)
    a830:	48 8d 85 40 d7 ff ff 	lea    -0x28c0(%rbp),%rax
    a837:	48 89 85 d0 df ff ff 	mov    %rax,-0x2030(%rbp)
    a83e:	48 8d 85 40 d7 ff ff 	lea    -0x28c0(%rbp),%rax
    a845:	48 89 85 d8 df ff ff 	mov    %rax,-0x2028(%rbp)
    a84c:	48 8d 85 40 d7 ff ff 	lea    -0x28c0(%rbp),%rax
    a853:	48 89 85 e0 df ff ff 	mov    %rax,-0x2020(%rbp)
    a85a:	48 8d 85 40 d7 ff ff 	lea    -0x28c0(%rbp),%rax
    a861:	48 89 85 e8 df ff ff 	mov    %rax,-0x2018(%rbp)
    a868:	48 8d 85 40 d7 ff ff 	lea    -0x28c0(%rbp),%rax
    a86f:	48 89 85 f0 df ff ff 	mov    %rax,-0x2010(%rbp)
    a876:	48 8d 85 40 d7 ff ff 	lea    -0x28c0(%rbp),%rax
    a87d:	48 89 85 f8 df ff ff 	mov    %rax,-0x2008(%rbp)
    a884:	48 8d 85 40 d7 ff ff 	lea    -0x28c0(%rbp),%rax
    a88b:	48 89 85 00 e0 ff ff 	mov    %rax,-0x2000(%rbp)
    a892:	48 8d 85 40 d7 ff ff 	lea    -0x28c0(%rbp),%rax
    a899:	48 89 85 08 e0 ff ff 	mov    %rax,-0x1ff8(%rbp)
    a8a0:	48 8d 85 40 d7 ff ff 	lea    -0x28c0(%rbp),%rax
    a8a7:	48 89 85 10 e0 ff ff 	mov    %rax,-0x1ff0(%rbp)
    a8ae:	48 8d 85 40 d7 ff ff 	lea    -0x28c0(%rbp),%rax
    a8b5:	48 89 85 18 e0 ff ff 	mov    %rax,-0x1fe8(%rbp)
    a8bc:	48 8d 85 40 d7 ff ff 	lea    -0x28c0(%rbp),%rax
    a8c3:	48 89 85 20 e0 ff ff 	mov    %rax,-0x1fe0(%rbp)
    a8ca:	48 c7 85 28 e0 ff ff 	movq   $0x0,-0x1fd8(%rbp)
    a8d1:	00 00 00 00 
    a8d5:	48 8d 85 40 d7 ff ff 	lea    -0x28c0(%rbp),%rax
    a8dc:	48 89 85 30 e0 ff ff 	mov    %rax,-0x1fd0(%rbp)
    a8e3:	48 8d 85 40 d7 ff ff 	lea    -0x28c0(%rbp),%rax
    a8ea:	48 89 85 38 e0 ff ff 	mov    %rax,-0x1fc8(%rbp)
    a8f1:	48 8d 85 40 d7 ff ff 	lea    -0x28c0(%rbp),%rax
    a8f8:	48 89 85 40 e0 ff ff 	mov    %rax,-0x1fc0(%rbp)
    a8ff:	48 8d 85 40 d7 ff ff 	lea    -0x28c0(%rbp),%rax
    a906:	48 89 85 48 e0 ff ff 	mov    %rax,-0x1fb8(%rbp)
    a90d:	48 8d 85 40 d7 ff ff 	lea    -0x28c0(%rbp),%rax
    a914:	48 89 85 50 e0 ff ff 	mov    %rax,-0x1fb0(%rbp)
    a91b:	48 8d 85 40 d7 ff ff 	lea    -0x28c0(%rbp),%rax
    a922:	48 89 85 58 e0 ff ff 	mov    %rax,-0x1fa8(%rbp)
    a929:	48 8d 85 40 d7 ff ff 	lea    -0x28c0(%rbp),%rax
    a930:	48 89 85 60 e0 ff ff 	mov    %rax,-0x1fa0(%rbp)
    a937:	48 c7 85 68 e0 ff ff 	movq   $0x0,-0x1f98(%rbp)
    a93e:	00 00 00 00 
    a942:	48 8d 85 40 d7 ff ff 	lea    -0x28c0(%rbp),%rax
    a949:	48 89 85 70 e0 ff ff 	mov    %rax,-0x1f90(%rbp)
    a950:	48 c7 85 78 e0 ff ff 	movq   $0x0,-0x1f88(%rbp)
    a957:	00 00 00 00 
    a95b:	48 8d 85 40 d7 ff ff 	lea    -0x28c0(%rbp),%rax
    a962:	48 89 85 80 e0 ff ff 	mov    %rax,-0x1f80(%rbp)
    a969:	48 8d 85 40 d7 ff ff 	lea    -0x28c0(%rbp),%rax
    a970:	48 89 85 88 e0 ff ff 	mov    %rax,-0x1f78(%rbp)
    a977:	48 8d 85 40 d7 ff ff 	lea    -0x28c0(%rbp),%rax
    a97e:	48 89 85 90 e0 ff ff 	mov    %rax,-0x1f70(%rbp)
    a985:	48 8d 85 40 d7 ff ff 	lea    -0x28c0(%rbp),%rax
    a98c:	48 89 85 98 e0 ff ff 	mov    %rax,-0x1f68(%rbp)
    a993:	48 8d 85 40 d7 ff ff 	lea    -0x28c0(%rbp),%rax
    a99a:	48 89 85 a0 e0 ff ff 	mov    %rax,-0x1f60(%rbp)
    a9a1:	48 8d 05 9c fa 00 00 	lea    0xfa9c(%rip),%rax        # 1a444 <g_979>
    a9a8:	48 89 85 20 d8 ff ff 	mov    %rax,-0x27e0(%rbp)
    a9af:	66 c7 85 f0 d5 ff ff 	movw   $0x3a8d,-0x2a10(%rbp)
    a9b6:	8d 3a 
    a9b8:	48 c7 85 48 d7 ff ff 	movq   $0x0,-0x28b8(%rbp)
    a9bf:	00 00 00 00 
    a9c3:	66 c7 85 10 dc ff ff 	movw   $0xfff9,-0x23f0(%rbp)
    a9ca:	f9 ff 
    a9cc:	66 c7 85 12 dc ff ff 	movw   $0xfff9,-0x23ee(%rbp)
    a9d3:	f9 ff 
    a9d5:	66 c7 85 14 dc ff ff 	movw   $0x5,-0x23ec(%rbp)
    a9dc:	05 00 
    a9de:	66 c7 85 16 dc ff ff 	movw   $0xfff9,-0x23ea(%rbp)
    a9e5:	f9 ff 
    a9e7:	66 c7 85 18 dc ff ff 	movw   $0xfff9,-0x23e8(%rbp)
    a9ee:	f9 ff 
    a9f0:	66 c7 85 1a dc ff ff 	movw   $0x5,-0x23e6(%rbp)
    a9f7:	05 00 
    a9f9:	66 c7 85 1c dc ff ff 	movw   $0xfff9,-0x23e4(%rbp)
    aa00:	f9 ff 
    aa02:	66 c7 85 1e dc ff ff 	movw   $0xfff9,-0x23e2(%rbp)
    aa09:	f9 ff 
    aa0b:	66 c7 85 20 dc ff ff 	movw   $0x5,-0x23e0(%rbp)
    aa12:	05 00 
    aa14:	66 c7 85 22 dc ff ff 	movw   $0xfff9,-0x23de(%rbp)
    aa1b:	f9 ff 
    aa1d:	66 c7 85 24 dc ff ff 	movw   $0xfff9,-0x23dc(%rbp)
    aa24:	f9 ff 
    aa26:	66 c7 85 26 dc ff ff 	movw   $0xffff,-0x23da(%rbp)
    aa2d:	ff ff 
    aa2f:	66 c7 85 28 dc ff ff 	movw   $0xffff,-0x23d8(%rbp)
    aa36:	ff ff 
    aa38:	66 c7 85 2a dc ff ff 	movw   $0xfff9,-0x23d6(%rbp)
    aa3f:	f9 ff 
    aa41:	66 c7 85 2c dc ff ff 	movw   $0xffff,-0x23d4(%rbp)
    aa48:	ff ff 
    aa4a:	66 c7 85 2e dc ff ff 	movw   $0xffff,-0x23d2(%rbp)
    aa51:	ff ff 
    aa53:	66 c7 85 30 dc ff ff 	movw   $0xfff9,-0x23d0(%rbp)
    aa5a:	f9 ff 
    aa5c:	66 c7 85 32 dc ff ff 	movw   $0xffff,-0x23ce(%rbp)
    aa63:	ff ff 
    aa65:	66 c7 85 34 dc ff ff 	movw   $0xffff,-0x23cc(%rbp)
    aa6c:	ff ff 
    aa6e:	66 c7 85 36 dc ff ff 	movw   $0xfff9,-0x23ca(%rbp)
    aa75:	f9 ff 
    aa77:	66 c7 85 38 dc ff ff 	movw   $0xffff,-0x23c8(%rbp)
    aa7e:	ff ff 
    aa80:	66 c7 85 3a dc ff ff 	movw   $0xfff9,-0x23c6(%rbp)
    aa87:	f9 ff 
    aa89:	66 c7 85 3c dc ff ff 	movw   $0xffff,-0x23c4(%rbp)
    aa90:	ff ff 
    aa92:	66 c7 85 3e dc ff ff 	movw   $0xffff,-0x23c2(%rbp)
    aa99:	ff ff 
    aa9b:	66 c7 85 40 dc ff ff 	movw   $0xfff9,-0x23c0(%rbp)
    aaa2:	f9 ff 
    aaa4:	66 c7 85 42 dc ff ff 	movw   $0xffff,-0x23be(%rbp)
    aaab:	ff ff 
    aaad:	66 c7 85 44 dc ff ff 	movw   $0xffff,-0x23bc(%rbp)
    aab4:	ff ff 
    aab6:	66 c7 85 46 dc ff ff 	movw   $0xfff9,-0x23ba(%rbp)
    aabd:	f9 ff 
    aabf:	66 c7 85 48 dc ff ff 	movw   $0xffff,-0x23b8(%rbp)
    aac6:	ff ff 
    aac8:	66 c7 85 4a dc ff ff 	movw   $0xffff,-0x23b6(%rbp)
    aacf:	ff ff 
    aad1:	66 c7 85 4c dc ff ff 	movw   $0xfff9,-0x23b4(%rbp)
    aad8:	f9 ff 
    aada:	66 c7 85 4e dc ff ff 	movw   $0xfff9,-0x23b2(%rbp)
    aae1:	f9 ff 
    aae3:	66 c7 85 50 dc ff ff 	movw   $0x5,-0x23b0(%rbp)
    aaea:	05 00 
    aaec:	66 c7 85 52 dc ff ff 	movw   $0xfff9,-0x23ae(%rbp)
    aaf3:	f9 ff 
    aaf5:	66 c7 85 54 dc ff ff 	movw   $0xfff9,-0x23ac(%rbp)
    aafc:	f9 ff 
    aafe:	66 c7 85 56 dc ff ff 	movw   $0x5,-0x23aa(%rbp)
    ab05:	05 00 
    ab07:	66 c7 85 58 dc ff ff 	movw   $0xfff9,-0x23a8(%rbp)
    ab0e:	f9 ff 
    ab10:	66 c7 85 5a dc ff ff 	movw   $0xfff9,-0x23a6(%rbp)
    ab17:	f9 ff 
    ab19:	66 c7 85 5c dc ff ff 	movw   $0x5,-0x23a4(%rbp)
    ab20:	05 00 
    ab22:	66 c7 85 5e dc ff ff 	movw   $0xfff9,-0x23a2(%rbp)
    ab29:	f9 ff 
    ab2b:	66 c7 85 60 dc ff ff 	movw   $0xffff,-0x23a0(%rbp)
    ab32:	ff ff 
    ab34:	66 c7 85 62 dc ff ff 	movw   $0x5,-0x239e(%rbp)
    ab3b:	05 00 
    ab3d:	66 c7 85 64 dc ff ff 	movw   $0x5,-0x239c(%rbp)
    ab44:	05 00 
    ab46:	66 c7 85 66 dc ff ff 	movw   $0xffff,-0x239a(%rbp)
    ab4d:	ff ff 
    ab4f:	66 c7 85 68 dc ff ff 	movw   $0x5,-0x2398(%rbp)
    ab56:	05 00 
    ab58:	66 c7 85 6a dc ff ff 	movw   $0x5,-0x2396(%rbp)
    ab5f:	05 00 
    ab61:	66 c7 85 6c dc ff ff 	movw   $0xffff,-0x2394(%rbp)
    ab68:	ff ff 
    ab6a:	66 c7 85 6e dc ff ff 	movw   $0x5,-0x2392(%rbp)
    ab71:	05 00 
    ab73:	66 c7 85 70 dc ff ff 	movw   $0x5,-0x2390(%rbp)
    ab7a:	05 00 
    ab7c:	66 c7 85 72 dc ff ff 	movw   $0xffff,-0x238e(%rbp)
    ab83:	ff ff 
    ab85:	66 c7 85 74 dc ff ff 	movw   $0x5,-0x238c(%rbp)
    ab8c:	05 00 
    ab8e:	66 c7 85 76 dc ff ff 	movw   $0xffff,-0x238a(%rbp)
    ab95:	ff ff 
    ab97:	66 c7 85 78 dc ff ff 	movw   $0x5,-0x2388(%rbp)
    ab9e:	05 00 
    aba0:	66 c7 85 7a dc ff ff 	movw   $0x5,-0x2386(%rbp)
    aba7:	05 00 
    aba9:	66 c7 85 7c dc ff ff 	movw   $0xffff,-0x2384(%rbp)
    abb0:	ff ff 
    abb2:	66 c7 85 7e dc ff ff 	movw   $0x5,-0x2382(%rbp)
    abb9:	05 00 
    abbb:	66 c7 85 80 dc ff ff 	movw   $0x5,-0x2380(%rbp)
    abc2:	05 00 
    abc4:	66 c7 85 82 dc ff ff 	movw   $0xffff,-0x237e(%rbp)
    abcb:	ff ff 
    abcd:	66 c7 85 84 dc ff ff 	movw   $0x5,-0x237c(%rbp)
    abd4:	05 00 
    abd6:	66 c7 85 86 dc ff ff 	movw   $0x5,-0x237a(%rbp)
    abdd:	05 00 
    abdf:	66 c7 85 88 dc ff ff 	movw   $0xffff,-0x2378(%rbp)
    abe6:	ff ff 
    abe8:	66 c7 85 8a dc ff ff 	movw   $0xffff,-0x2376(%rbp)
    abef:	ff ff 
    abf1:	66 c7 85 8c dc ff ff 	movw   $0xfff9,-0x2374(%rbp)
    abf8:	f9 ff 
    abfa:	66 c7 85 8e dc ff ff 	movw   $0xffff,-0x2372(%rbp)
    ac01:	ff ff 
    ac03:	66 c7 85 90 dc ff ff 	movw   $0xffff,-0x2370(%rbp)
    ac0a:	ff ff 
    ac0c:	66 c7 85 92 dc ff ff 	movw   $0xfff9,-0x236e(%rbp)
    ac13:	f9 ff 
    ac15:	66 c7 85 94 dc ff ff 	movw   $0xffff,-0x236c(%rbp)
    ac1c:	ff ff 
    ac1e:	66 c7 85 96 dc ff ff 	movw   $0xffff,-0x236a(%rbp)
    ac25:	ff ff 
    ac27:	66 c7 85 98 dc ff ff 	movw   $0xfff9,-0x2368(%rbp)
    ac2e:	f9 ff 
    ac30:	66 c7 85 9a dc ff ff 	movw   $0xffff,-0x2366(%rbp)
    ac37:	ff ff 
    ac39:	c7 85 14 d6 ff ff 00 	movl   $0x0,-0x29ec(%rbp)
    ac40:	00 00 00 
    ac43:	eb 1b                	jmp    ac60 <func_28+0xde0>
    ac45:	8b 85 14 d6 ff ff    	mov    -0x29ec(%rbp),%eax
    ac4b:	48 98                	cltq   
    ac4d:	48 c7 84 c5 b0 da ff 	movq   $0x0,-0x2550(%rbp,%rax,8)
    ac54:	ff 00 00 00 00 
    ac59:	83 85 14 d6 ff ff 01 	addl   $0x1,-0x29ec(%rbp)
    ac60:	83 bd 14 d6 ff ff 01 	cmpl   $0x1,-0x29ec(%rbp)
    ac67:	7e dc                	jle    ac45 <func_28+0xdc5>
    ac69:	48 8b 05 90 14 01 00 	mov    0x11490(%rip),%rax        # 1c100 <g_239>
    ac70:	48 8b 00             	mov    (%rax),%rax
    ac73:	48 85 c0             	test   %rax,%rax
    ac76:	0f 85 ec 48 00 00    	jne    f568 <func_28+0x56e8>
    ac7c:	48 8d 05 6d 14 01 00 	lea    0x1146d(%rip),%rax        # 1c0f0 <g_198>
    ac83:	48 89 85 28 d8 ff ff 	mov    %rax,-0x27d8(%rbp)
    ac8a:	48 8d 85 b0 e0 ff ff 	lea    -0x1f50(%rbp),%rax
    ac91:	48 8d 15 c8 a3 00 00 	lea    0xa3c8(%rip),%rdx        # 15060 <g_182+0xc>
    ac98:	b9 48 00 00 00       	mov    $0x48,%ecx
    ac9d:	48 89 c7             	mov    %rax,%rdi
    aca0:	48 89 d6             	mov    %rdx,%rsi
    aca3:	f3 48 a5             	rep movsq %ds:(%rsi),%es:(%rdi)
    aca6:	48 c7 85 30 d8 ff ff 	movq   $0x0,-0x27d0(%rbp)
    acad:	00 00 00 00 
    acb1:	48 8d 05 a8 f3 00 00 	lea    0xf3a8(%rip),%rax        # 1a060 <g_159>
    acb8:	48 89 85 50 d7 ff ff 	mov    %rax,-0x28b0(%rbp)
    acbf:	c7 85 10 d6 ff ff 56 	movl   $0xbb3f9356,-0x29f0(%rbp)
    acc6:	93 3f bb 
    acc9:	48 8d 05 80 f3 00 00 	lea    0xf380(%rip),%rax        # 1a050 <g_145>
    acd0:	48 89 85 58 d7 ff ff 	mov    %rax,-0x28a8(%rbp)
    acd7:	48 8d 85 58 d7 ff ff 	lea    -0x28a8(%rbp),%rax
    acde:	48 89 85 38 d8 ff ff 	mov    %rax,-0x27c8(%rbp)
    ace5:	48 c7 85 40 d8 ff ff 	movq   $0x0,-0x27c0(%rbp)
    acec:	00 00 00 00 
    acf0:	48 8d 05 53 f3 00 00 	lea    0xf353(%rip),%rax        # 1a04a <g_124>
    acf7:	48 89 85 60 d7 ff ff 	mov    %rax,-0x28a0(%rbp)
    acfe:	48 8d 85 60 d7 ff ff 	lea    -0x28a0(%rbp),%rax
    ad05:	48 89 85 20 de ff ff 	mov    %rax,-0x21e0(%rbp)
    ad0c:	48 8d 85 60 d7 ff ff 	lea    -0x28a0(%rbp),%rax
    ad13:	48 89 85 28 de ff ff 	mov    %rax,-0x21d8(%rbp)
    ad1a:	48 8d 85 60 d7 ff ff 	lea    -0x28a0(%rbp),%rax
    ad21:	48 89 85 30 de ff ff 	mov    %rax,-0x21d0(%rbp)
    ad28:	48 8d 85 60 d7 ff ff 	lea    -0x28a0(%rbp),%rax
    ad2f:	48 89 85 38 de ff ff 	mov    %rax,-0x21c8(%rbp)
    ad36:	48 8d 85 60 d7 ff ff 	lea    -0x28a0(%rbp),%rax
    ad3d:	48 89 85 40 de ff ff 	mov    %rax,-0x21c0(%rbp)
    ad44:	48 8d 85 60 d7 ff ff 	lea    -0x28a0(%rbp),%rax
    ad4b:	48 89 85 48 de ff ff 	mov    %rax,-0x21b8(%rbp)
    ad52:	48 8d 85 60 d7 ff ff 	lea    -0x28a0(%rbp),%rax
    ad59:	48 89 85 50 de ff ff 	mov    %rax,-0x21b0(%rbp)
    ad60:	48 8d 85 60 d7 ff ff 	lea    -0x28a0(%rbp),%rax
    ad67:	48 89 85 58 de ff ff 	mov    %rax,-0x21a8(%rbp)
    ad6e:	48 8d 85 60 d7 ff ff 	lea    -0x28a0(%rbp),%rax
    ad75:	48 89 85 60 de ff ff 	mov    %rax,-0x21a0(%rbp)
    ad7c:	48 8d 85 60 d7 ff ff 	lea    -0x28a0(%rbp),%rax
    ad83:	48 89 85 68 de ff ff 	mov    %rax,-0x2198(%rbp)
    ad8a:	48 8d 85 60 d7 ff ff 	lea    -0x28a0(%rbp),%rax
    ad91:	48 89 85 70 de ff ff 	mov    %rax,-0x2190(%rbp)
    ad98:	48 8d 85 60 d7 ff ff 	lea    -0x28a0(%rbp),%rax
    ad9f:	48 89 85 78 de ff ff 	mov    %rax,-0x2188(%rbp)
    ada6:	48 8d 85 60 d7 ff ff 	lea    -0x28a0(%rbp),%rax
    adad:	48 89 85 80 de ff ff 	mov    %rax,-0x2180(%rbp)
    adb4:	48 8d 85 60 d7 ff ff 	lea    -0x28a0(%rbp),%rax
    adbb:	48 89 85 88 de ff ff 	mov    %rax,-0x2178(%rbp)
    adc2:	48 8d 85 60 d7 ff ff 	lea    -0x28a0(%rbp),%rax
    adc9:	48 89 85 90 de ff ff 	mov    %rax,-0x2170(%rbp)
    add0:	48 8d 85 60 d7 ff ff 	lea    -0x28a0(%rbp),%rax
    add7:	48 89 85 98 de ff ff 	mov    %rax,-0x2168(%rbp)
    adde:	48 8d 85 60 d7 ff ff 	lea    -0x28a0(%rbp),%rax
    ade5:	48 89 85 a0 de ff ff 	mov    %rax,-0x2160(%rbp)
    adec:	48 8d 85 60 d7 ff ff 	lea    -0x28a0(%rbp),%rax
    adf3:	48 89 85 a8 de ff ff 	mov    %rax,-0x2158(%rbp)
    adfa:	48 8d 85 60 d7 ff ff 	lea    -0x28a0(%rbp),%rax
    ae01:	48 89 85 b0 de ff ff 	mov    %rax,-0x2150(%rbp)
    ae08:	48 8d 85 60 d7 ff ff 	lea    -0x28a0(%rbp),%rax
    ae0f:	48 89 85 b8 de ff ff 	mov    %rax,-0x2148(%rbp)
    ae16:	48 8d 85 60 d7 ff ff 	lea    -0x28a0(%rbp),%rax
    ae1d:	48 89 85 c0 de ff ff 	mov    %rax,-0x2140(%rbp)
    ae24:	48 8d 85 60 d7 ff ff 	lea    -0x28a0(%rbp),%rax
    ae2b:	48 89 85 c8 de ff ff 	mov    %rax,-0x2138(%rbp)
    ae32:	48 8d 85 60 d7 ff ff 	lea    -0x28a0(%rbp),%rax
    ae39:	48 89 85 d0 de ff ff 	mov    %rax,-0x2130(%rbp)
    ae40:	48 8d 85 60 d7 ff ff 	lea    -0x28a0(%rbp),%rax
    ae47:	48 89 85 d8 de ff ff 	mov    %rax,-0x2128(%rbp)
    ae4e:	48 8d 85 60 d7 ff ff 	lea    -0x28a0(%rbp),%rax
    ae55:	48 89 85 e0 de ff ff 	mov    %rax,-0x2120(%rbp)
    ae5c:	48 8d 85 60 d7 ff ff 	lea    -0x28a0(%rbp),%rax
    ae63:	48 89 85 e8 de ff ff 	mov    %rax,-0x2118(%rbp)
    ae6a:	48 8d 85 60 d7 ff ff 	lea    -0x28a0(%rbp),%rax
    ae71:	48 89 85 f0 de ff ff 	mov    %rax,-0x2110(%rbp)
    ae78:	48 8d 85 60 d7 ff ff 	lea    -0x28a0(%rbp),%rax
    ae7f:	48 89 85 f8 de ff ff 	mov    %rax,-0x2108(%rbp)
    ae86:	48 8d 85 60 d7 ff ff 	lea    -0x28a0(%rbp),%rax
    ae8d:	48 89 85 00 df ff ff 	mov    %rax,-0x2100(%rbp)
    ae94:	48 8d 85 60 d7 ff ff 	lea    -0x28a0(%rbp),%rax
    ae9b:	48 89 85 08 df ff ff 	mov    %rax,-0x20f8(%rbp)
    aea2:	48 8d 85 60 d7 ff ff 	lea    -0x28a0(%rbp),%rax
    aea9:	48 89 85 10 df ff ff 	mov    %rax,-0x20f0(%rbp)
    aeb0:	48 8d 85 60 d7 ff ff 	lea    -0x28a0(%rbp),%rax
    aeb7:	48 89 85 18 df ff ff 	mov    %rax,-0x20e8(%rbp)
    aebe:	48 8d 85 60 d7 ff ff 	lea    -0x28a0(%rbp),%rax
    aec5:	48 89 85 20 df ff ff 	mov    %rax,-0x20e0(%rbp)
    aecc:	48 8d 85 60 d7 ff ff 	lea    -0x28a0(%rbp),%rax
    aed3:	48 89 85 28 df ff ff 	mov    %rax,-0x20d8(%rbp)
    aeda:	48 8d 85 60 d7 ff ff 	lea    -0x28a0(%rbp),%rax
    aee1:	48 89 85 30 df ff ff 	mov    %rax,-0x20d0(%rbp)
    aee8:	48 8d 85 60 d7 ff ff 	lea    -0x28a0(%rbp),%rax
    aeef:	48 89 85 38 df ff ff 	mov    %rax,-0x20c8(%rbp)
    aef6:	48 8d 85 20 de ff ff 	lea    -0x21e0(%rbp),%rax
    aefd:	48 05 f8 00 00 00    	add    $0xf8,%rax
    af03:	48 89 85 48 d8 ff ff 	mov    %rax,-0x27b8(%rbp)
    af0a:	66 c7 85 ec d5 ff ff 	movw   $0xffff,-0x2a14(%rbp)
    af11:	ff ff 
    af13:	48 8d 05 36 f1 00 00 	lea    0xf136(%rip),%rax        # 1a050 <g_145>
    af1a:	48 89 85 68 d7 ff ff 	mov    %rax,-0x2898(%rbp)
    af21:	48 c7 85 50 d8 ff ff 	movq   $0x0,-0x27b0(%rbp)
    af28:	00 00 00 00 
    af2c:	48 8d 05 d5 f3 00 00 	lea    0xf3d5(%rip),%rax        # 1a308 <g_435>
    af33:	48 89 85 f0 e2 ff ff 	mov    %rax,-0x1d10(%rbp)
    af3a:	48 8d 85 10 d6 ff ff 	lea    -0x29f0(%rbp),%rax
    af41:	48 89 85 f8 e2 ff ff 	mov    %rax,-0x1d08(%rbp)
    af48:	48 8d 05 99 f3 00 00 	lea    0xf399(%rip),%rax        # 1a2e8 <g_302>
    af4f:	48 89 85 00 e3 ff ff 	mov    %rax,-0x1d00(%rbp)
    af56:	48 8d 85 10 d6 ff ff 	lea    -0x29f0(%rbp),%rax
    af5d:	48 89 85 08 e3 ff ff 	mov    %rax,-0x1cf8(%rbp)
    af64:	48 8d 05 9d f3 00 00 	lea    0xf39d(%rip),%rax        # 1a308 <g_435>
    af6b:	48 89 85 10 e3 ff ff 	mov    %rax,-0x1cf0(%rbp)
    af72:	48 8d 85 a0 dc ff ff 	lea    -0x2360(%rbp),%rax
    af79:	48 83 c0 04          	add    $0x4,%rax
    af7d:	48 89 85 18 e3 ff ff 	mov    %rax,-0x1ce8(%rbp)
    af84:	48 8d 05 5d f3 00 00 	lea    0xf35d(%rip),%rax        # 1a2e8 <g_302>
    af8b:	48 89 85 20 e3 ff ff 	mov    %rax,-0x1ce0(%rbp)
    af92:	48 8d 85 a0 dc ff ff 	lea    -0x2360(%rbp),%rax
    af99:	48 83 c0 58          	add    $0x58,%rax
    af9d:	48 89 85 28 e3 ff ff 	mov    %rax,-0x1cd8(%rbp)
    afa4:	48 8d 85 10 d6 ff ff 	lea    -0x29f0(%rbp),%rax
    afab:	48 89 85 30 e3 ff ff 	mov    %rax,-0x1cd0(%rbp)
    afb2:	48 8d 85 a0 dc ff ff 	lea    -0x2360(%rbp),%rax
    afb9:	48 83 c0 54          	add    $0x54,%rax
    afbd:	48 89 85 38 e3 ff ff 	mov    %rax,-0x1cc8(%rbp)
    afc4:	48 8d 85 a0 dc ff ff 	lea    -0x2360(%rbp),%rax
    afcb:	48 83 c0 04          	add    $0x4,%rax
    afcf:	48 89 85 40 e3 ff ff 	mov    %rax,-0x1cc0(%rbp)
    afd6:	48 8d 05 0b f3 00 00 	lea    0xf30b(%rip),%rax        # 1a2e8 <g_302>
    afdd:	48 89 85 48 e3 ff ff 	mov    %rax,-0x1cb8(%rbp)
    afe4:	48 8d 85 a0 dc ff ff 	lea    -0x2360(%rbp),%rax
    afeb:	48 83 c0 58          	add    $0x58,%rax
    afef:	48 89 85 50 e3 ff ff 	mov    %rax,-0x1cb0(%rbp)
    aff6:	48 8d 85 10 d6 ff ff 	lea    -0x29f0(%rbp),%rax
    affd:	48 89 85 58 e3 ff ff 	mov    %rax,-0x1ca8(%rbp)
    b004:	48 8d 85 a0 dc ff ff 	lea    -0x2360(%rbp),%rax
    b00b:	48 83 c0 54          	add    $0x54,%rax
    b00f:	48 89 85 60 e3 ff ff 	mov    %rax,-0x1ca0(%rbp)
    b016:	48 8d 05 eb f2 00 00 	lea    0xf2eb(%rip),%rax        # 1a308 <g_435>
    b01d:	48 89 85 68 e3 ff ff 	mov    %rax,-0x1c98(%rbp)
    b024:	48 8d 85 10 d6 ff ff 	lea    -0x29f0(%rbp),%rax
    b02b:	48 89 85 70 e3 ff ff 	mov    %rax,-0x1c90(%rbp)
    b032:	48 8d 85 10 d6 ff ff 	lea    -0x29f0(%rbp),%rax
    b039:	48 89 85 78 e3 ff ff 	mov    %rax,-0x1c88(%rbp)
    b040:	48 8d 05 c1 f2 00 00 	lea    0xf2c1(%rip),%rax        # 1a308 <g_435>
    b047:	48 89 85 80 e3 ff ff 	mov    %rax,-0x1c80(%rbp)
    b04e:	48 8d 85 a0 dc ff ff 	lea    -0x2360(%rbp),%rax
    b055:	48 83 c0 54          	add    $0x54,%rax
    b059:	48 89 85 88 e3 ff ff 	mov    %rax,-0x1c78(%rbp)
    b060:	48 8d 05 81 f2 00 00 	lea    0xf281(%rip),%rax        # 1a2e8 <g_302>
    b067:	48 89 85 90 e3 ff ff 	mov    %rax,-0x1c70(%rbp)
    b06e:	48 8d 85 10 d6 ff ff 	lea    -0x29f0(%rbp),%rax
    b075:	48 89 85 98 e3 ff ff 	mov    %rax,-0x1c68(%rbp)
    b07c:	48 8d 85 10 d6 ff ff 	lea    -0x29f0(%rbp),%rax
    b083:	48 89 85 a0 e3 ff ff 	mov    %rax,-0x1c60(%rbp)
    b08a:	48 8d 05 57 f2 00 00 	lea    0xf257(%rip),%rax        # 1a2e8 <g_302>
    b091:	48 89 85 a8 e3 ff ff 	mov    %rax,-0x1c58(%rbp)
    b098:	48 8d 05 69 f2 00 00 	lea    0xf269(%rip),%rax        # 1a308 <g_435>
    b09f:	48 89 85 b0 e3 ff ff 	mov    %rax,-0x1c50(%rbp)
    b0a6:	48 8d 85 a0 dc ff ff 	lea    -0x2360(%rbp),%rax
    b0ad:	48 83 c0 48          	add    $0x48,%rax
    b0b1:	48 89 85 b8 e3 ff ff 	mov    %rax,-0x1c48(%rbp)
    b0b8:	48 8d 05 29 f2 00 00 	lea    0xf229(%rip),%rax        # 1a2e8 <g_302>
    b0bf:	48 89 85 c0 e3 ff ff 	mov    %rax,-0x1c40(%rbp)
    b0c6:	48 8d 85 a0 dc ff ff 	lea    -0x2360(%rbp),%rax
    b0cd:	48 83 c0 04          	add    $0x4,%rax
    b0d1:	48 89 85 c8 e3 ff ff 	mov    %rax,-0x1c38(%rbp)
    b0d8:	48 c7 85 d0 e3 ff ff 	movq   $0x0,-0x1c30(%rbp)
    b0df:	00 00 00 00 
    b0e3:	48 8d 05 fe f1 00 00 	lea    0xf1fe(%rip),%rax        # 1a2e8 <g_302>
    b0ea:	48 89 85 d8 e3 ff ff 	mov    %rax,-0x1c28(%rbp)
    b0f1:	48 8d 05 2c ef 00 00 	lea    0xef2c(%rip),%rax        # 1a024 <g_2>
    b0f8:	48 89 85 e0 e3 ff ff 	mov    %rax,-0x1c20(%rbp)
    b0ff:	48 8d 05 02 f2 00 00 	lea    0xf202(%rip),%rax        # 1a308 <g_435>
    b106:	48 89 85 e8 e3 ff ff 	mov    %rax,-0x1c18(%rbp)
    b10d:	48 8d 85 a0 dc ff ff 	lea    -0x2360(%rbp),%rax
    b114:	48 83 c0 2c          	add    $0x2c,%rax
    b118:	48 89 85 f0 e3 ff ff 	mov    %rax,-0x1c10(%rbp)
    b11f:	48 8d 05 e2 f1 00 00 	lea    0xf1e2(%rip),%rax        # 1a308 <g_435>
    b126:	48 89 85 f8 e3 ff ff 	mov    %rax,-0x1c08(%rbp)
    b12d:	48 c7 85 00 e4 ff ff 	movq   $0x0,-0x1c00(%rbp)
    b134:	00 00 00 00 
    b138:	48 8d 05 a9 f1 00 00 	lea    0xf1a9(%rip),%rax        # 1a2e8 <g_302>
    b13f:	48 89 85 08 e4 ff ff 	mov    %rax,-0x1bf8(%rbp)
    b146:	48 8d 85 10 d6 ff ff 	lea    -0x29f0(%rbp),%rax
    b14d:	48 89 85 10 e4 ff ff 	mov    %rax,-0x1bf0(%rbp)
    b154:	48 8d 05 8d f1 00 00 	lea    0xf18d(%rip),%rax        # 1a2e8 <g_302>
    b15b:	48 89 85 18 e4 ff ff 	mov    %rax,-0x1be8(%rbp)
    b162:	48 c7 85 20 e4 ff ff 	movq   $0x0,-0x1be0(%rbp)
    b169:	00 00 00 00 
    b16d:	48 8d 05 94 f1 00 00 	lea    0xf194(%rip),%rax        # 1a308 <g_435>
    b174:	48 89 85 28 e4 ff ff 	mov    %rax,-0x1bd8(%rbp)
    b17b:	48 8d 05 66 f1 00 00 	lea    0xf166(%rip),%rax        # 1a2e8 <g_302>
    b182:	48 89 85 30 e4 ff ff 	mov    %rax,-0x1bd0(%rbp)
    b189:	48 8d 05 94 ee 00 00 	lea    0xee94(%rip),%rax        # 1a024 <g_2>
    b190:	48 89 85 38 e4 ff ff 	mov    %rax,-0x1bc8(%rbp)
    b197:	48 8d 05 4a f1 00 00 	lea    0xf14a(%rip),%rax        # 1a2e8 <g_302>
    b19e:	48 89 85 40 e4 ff ff 	mov    %rax,-0x1bc0(%rbp)
    b1a5:	48 8d 05 3c f1 00 00 	lea    0xf13c(%rip),%rax        # 1a2e8 <g_302>
    b1ac:	48 89 85 48 e4 ff ff 	mov    %rax,-0x1bb8(%rbp)
    b1b3:	48 8d 85 10 d6 ff ff 	lea    -0x29f0(%rbp),%rax
    b1ba:	48 89 85 50 e4 ff ff 	mov    %rax,-0x1bb0(%rbp)
    b1c1:	48 8d 85 a0 dc ff ff 	lea    -0x2360(%rbp),%rax
    b1c8:	48 83 c0 04          	add    $0x4,%rax
    b1cc:	48 89 85 58 e4 ff ff 	mov    %rax,-0x1ba8(%rbp)
    b1d3:	48 c7 85 60 e4 ff ff 	movq   $0x0,-0x1ba0(%rbp)
    b1da:	00 00 00 00 
    b1de:	48 8d 85 04 d6 ff ff 	lea    -0x29fc(%rbp),%rax
    b1e5:	48 89 85 68 e4 ff ff 	mov    %rax,-0x1b98(%rbp)
    b1ec:	48 8d 05 15 f1 00 00 	lea    0xf115(%rip),%rax        # 1a308 <g_435>
    b1f3:	48 89 85 70 e4 ff ff 	mov    %rax,-0x1b90(%rbp)
    b1fa:	48 8d 85 a0 dc ff ff 	lea    -0x2360(%rbp),%rax
    b201:	48 83 c0 04          	add    $0x4,%rax
    b205:	48 89 85 78 e4 ff ff 	mov    %rax,-0x1b88(%rbp)
    b20c:	48 8d 85 a0 dc ff ff 	lea    -0x2360(%rbp),%rax
    b213:	48 83 c0 04          	add    $0x4,%rax
    b217:	48 89 85 80 e4 ff ff 	mov    %rax,-0x1b80(%rbp)
    b21e:	48 8d 85 a0 dc ff ff 	lea    -0x2360(%rbp),%rax
    b225:	48 83 c0 04          	add    $0x4,%rax
    b229:	48 89 85 88 e4 ff ff 	mov    %rax,-0x1b78(%rbp)
    b230:	48 8d 05 d1 f0 00 00 	lea    0xf0d1(%rip),%rax        # 1a308 <g_435>
    b237:	48 89 85 90 e4 ff ff 	mov    %rax,-0x1b70(%rbp)
    b23e:	48 8d 85 10 d6 ff ff 	lea    -0x29f0(%rbp),%rax
    b245:	48 89 85 98 e4 ff ff 	mov    %rax,-0x1b68(%rbp)
    b24c:	48 8d 85 04 d6 ff ff 	lea    -0x29fc(%rbp),%rax
    b253:	48 89 85 a0 e4 ff ff 	mov    %rax,-0x1b60(%rbp)
    b25a:	48 8d 85 a0 dc ff ff 	lea    -0x2360(%rbp),%rax
    b261:	48 83 c0 54          	add    $0x54,%rax
    b265:	48 89 85 a8 e4 ff ff 	mov    %rax,-0x1b58(%rbp)
    b26c:	48 8d 85 a0 dc ff ff 	lea    -0x2360(%rbp),%rax
    b273:	48 83 c0 54          	add    $0x54,%rax
    b277:	48 89 85 b0 e4 ff ff 	mov    %rax,-0x1b50(%rbp)
    b27e:	48 8d 85 04 d6 ff ff 	lea    -0x29fc(%rbp),%rax
    b285:	48 89 85 b8 e4 ff ff 	mov    %rax,-0x1b48(%rbp)
    b28c:	48 8d 85 10 d6 ff ff 	lea    -0x29f0(%rbp),%rax
    b293:	48 89 85 c0 e4 ff ff 	mov    %rax,-0x1b40(%rbp)
    b29a:	48 8d 05 67 f0 00 00 	lea    0xf067(%rip),%rax        # 1a308 <g_435>
    b2a1:	48 89 85 c8 e4 ff ff 	mov    %rax,-0x1b38(%rbp)
    b2a8:	48 8d 85 a0 dc ff ff 	lea    -0x2360(%rbp),%rax
    b2af:	48 83 c0 2c          	add    $0x2c,%rax
    b2b3:	48 89 85 d0 e4 ff ff 	mov    %rax,-0x1b30(%rbp)
    b2ba:	48 8d 85 a0 dc ff ff 	lea    -0x2360(%rbp),%rax
    b2c1:	48 83 c0 2c          	add    $0x2c,%rax
    b2c5:	48 89 85 d8 e4 ff ff 	mov    %rax,-0x1b28(%rbp)
    b2cc:	48 8d 05 15 f0 00 00 	lea    0xf015(%rip),%rax        # 1a2e8 <g_302>
    b2d3:	48 89 85 e0 e4 ff ff 	mov    %rax,-0x1b20(%rbp)
    b2da:	48 8d 85 10 d6 ff ff 	lea    -0x29f0(%rbp),%rax
    b2e1:	48 89 85 e8 e4 ff ff 	mov    %rax,-0x1b18(%rbp)
    b2e8:	48 8d 05 19 f0 00 00 	lea    0xf019(%rip),%rax        # 1a308 <g_435>
    b2ef:	48 89 85 f0 e4 ff ff 	mov    %rax,-0x1b10(%rbp)
    b2f6:	48 8d 05 27 ed 00 00 	lea    0xed27(%rip),%rax        # 1a024 <g_2>
    b2fd:	48 89 85 f8 e4 ff ff 	mov    %rax,-0x1b08(%rbp)
    b304:	48 8d 85 a0 dc ff ff 	lea    -0x2360(%rbp),%rax
    b30b:	48 83 c0 58          	add    $0x58,%rax
    b30f:	48 89 85 00 e5 ff ff 	mov    %rax,-0x1b00(%rbp)
    b316:	48 8d 05 cb ef 00 00 	lea    0xefcb(%rip),%rax        # 1a2e8 <g_302>
    b31d:	48 89 85 08 e5 ff ff 	mov    %rax,-0x1af8(%rbp)
    b324:	48 8d 85 04 d6 ff ff 	lea    -0x29fc(%rbp),%rax
    b32b:	48 89 85 10 e5 ff ff 	mov    %rax,-0x1af0(%rbp)
    b332:	48 8d 85 a0 dc ff ff 	lea    -0x2360(%rbp),%rax
    b339:	48 83 c0 48          	add    $0x48,%rax
    b33d:	48 89 85 18 e5 ff ff 	mov    %rax,-0x1ae8(%rbp)
    b344:	48 8d 85 a0 dc ff ff 	lea    -0x2360(%rbp),%rax
    b34b:	48 83 c0 54          	add    $0x54,%rax
    b34f:	48 89 85 20 e5 ff ff 	mov    %rax,-0x1ae0(%rbp)
    b356:	48 c7 85 28 e5 ff ff 	movq   $0x0,-0x1ad8(%rbp)
    b35d:	00 00 00 00 
    b361:	48 8d 85 a0 dc ff ff 	lea    -0x2360(%rbp),%rax
    b368:	48 83 c0 2c          	add    $0x2c,%rax
    b36c:	48 89 85 30 e5 ff ff 	mov    %rax,-0x1ad0(%rbp)
    b373:	48 8d 85 a0 dc ff ff 	lea    -0x2360(%rbp),%rax
    b37a:	48 83 c0 04          	add    $0x4,%rax
    b37e:	48 89 85 38 e5 ff ff 	mov    %rax,-0x1ac8(%rbp)
    b385:	48 8d 85 a0 dc ff ff 	lea    -0x2360(%rbp),%rax
    b38c:	48 83 c0 58          	add    $0x58,%rax
    b390:	48 89 85 40 e5 ff ff 	mov    %rax,-0x1ac0(%rbp)
    b397:	48 8d 85 10 d6 ff ff 	lea    -0x29f0(%rbp),%rax
    b39e:	48 89 85 48 e5 ff ff 	mov    %rax,-0x1ab8(%rbp)
    b3a5:	48 8d 85 a0 dc ff ff 	lea    -0x2360(%rbp),%rax
    b3ac:	48 83 c0 58          	add    $0x58,%rax
    b3b0:	48 89 85 50 e5 ff ff 	mov    %rax,-0x1ab0(%rbp)
    b3b7:	48 8d 85 a0 dc ff ff 	lea    -0x2360(%rbp),%rax
    b3be:	48 83 c0 04          	add    $0x4,%rax
    b3c2:	48 89 85 58 e5 ff ff 	mov    %rax,-0x1aa8(%rbp)
    b3c9:	48 8d 85 a0 dc ff ff 	lea    -0x2360(%rbp),%rax
    b3d0:	48 83 c0 2c          	add    $0x2c,%rax
    b3d4:	48 89 85 60 e5 ff ff 	mov    %rax,-0x1aa0(%rbp)
    b3db:	48 c7 85 68 e5 ff ff 	movq   $0x0,-0x1a98(%rbp)
    b3e2:	00 00 00 00 
    b3e6:	66 c7 85 f2 d5 ff ff 	movw   $0x1,-0x2a0e(%rbp)
    b3ed:	01 00 
    b3ef:	c7 85 64 d6 ff ff 00 	movl   $0x0,-0x299c(%rbp)
    b3f6:	00 00 00 
    b3f9:	48 c7 85 58 d8 ff ff 	movq   $0x1,-0x27a8(%rbp)
    b400:	01 00 00 00 
    b404:	48 c7 85 60 d8 ff ff 	movq   $0x0,-0x27a0(%rbp)
    b40b:	00 00 00 00 
    b40f:	48 8d 05 ea 0c 01 00 	lea    0x10cea(%rip),%rax        # 1c100 <g_239>
    b416:	48 89 85 70 d7 ff ff 	mov    %rax,-0x2890(%rbp)
    b41d:	48 8d 05 d4 f6 00 00 	lea    0xf6d4(%rip),%rax        # 1aaf8 <g_1047+0x698>
    b424:	48 89 85 78 d7 ff ff 	mov    %rax,-0x2888(%rbp)
    b42b:	48 8d 85 78 d7 ff ff 	lea    -0x2888(%rbp),%rax
    b432:	48 89 85 30 dd ff ff 	mov    %rax,-0x22d0(%rbp)
    b439:	48 8d 85 78 d7 ff ff 	lea    -0x2888(%rbp),%rax
    b440:	48 89 85 38 dd ff ff 	mov    %rax,-0x22c8(%rbp)
    b447:	48 8d 85 78 d7 ff ff 	lea    -0x2888(%rbp),%rax
    b44e:	48 89 85 40 dd ff ff 	mov    %rax,-0x22c0(%rbp)
    b455:	48 8d 85 78 d7 ff ff 	lea    -0x2888(%rbp),%rax
    b45c:	48 89 85 48 dd ff ff 	mov    %rax,-0x22b8(%rbp)
    b463:	48 8d 85 78 d7 ff ff 	lea    -0x2888(%rbp),%rax
    b46a:	48 89 85 50 dd ff ff 	mov    %rax,-0x22b0(%rbp)
    b471:	48 8d 85 78 d7 ff ff 	lea    -0x2888(%rbp),%rax
    b478:	48 89 85 58 dd ff ff 	mov    %rax,-0x22a8(%rbp)
    b47f:	48 8d 85 78 d7 ff ff 	lea    -0x2888(%rbp),%rax
    b486:	48 89 85 60 dd ff ff 	mov    %rax,-0x22a0(%rbp)
    b48d:	48 8d 85 78 d7 ff ff 	lea    -0x2888(%rbp),%rax
    b494:	48 89 85 68 dd ff ff 	mov    %rax,-0x2298(%rbp)
    b49b:	48 8d 85 78 d7 ff ff 	lea    -0x2888(%rbp),%rax
    b4a2:	48 89 85 70 dd ff ff 	mov    %rax,-0x2290(%rbp)
    b4a9:	48 8d 85 78 d7 ff ff 	lea    -0x2888(%rbp),%rax
    b4b0:	48 89 85 78 dd ff ff 	mov    %rax,-0x2288(%rbp)
    b4b7:	48 8d 85 78 d7 ff ff 	lea    -0x2888(%rbp),%rax
    b4be:	48 89 85 80 dd ff ff 	mov    %rax,-0x2280(%rbp)
    b4c5:	48 8d 85 78 d7 ff ff 	lea    -0x2888(%rbp),%rax
    b4cc:	48 89 85 88 dd ff ff 	mov    %rax,-0x2278(%rbp)
    b4d3:	48 8d 85 78 d7 ff ff 	lea    -0x2888(%rbp),%rax
    b4da:	48 89 85 90 dd ff ff 	mov    %rax,-0x2270(%rbp)
    b4e1:	48 8d 85 78 d7 ff ff 	lea    -0x2888(%rbp),%rax
    b4e8:	48 89 85 98 dd ff ff 	mov    %rax,-0x2268(%rbp)
    b4ef:	48 8d 85 78 d7 ff ff 	lea    -0x2888(%rbp),%rax
    b4f6:	48 89 85 a0 dd ff ff 	mov    %rax,-0x2260(%rbp)
    b4fd:	48 8d 85 78 d7 ff ff 	lea    -0x2888(%rbp),%rax
    b504:	48 89 85 a8 dd ff ff 	mov    %rax,-0x2258(%rbp)
    b50b:	48 8d 85 78 d7 ff ff 	lea    -0x2888(%rbp),%rax
    b512:	48 89 85 b0 dd ff ff 	mov    %rax,-0x2250(%rbp)
    b519:	48 8d 85 78 d7 ff ff 	lea    -0x2888(%rbp),%rax
    b520:	48 89 85 b8 dd ff ff 	mov    %rax,-0x2248(%rbp)
    b527:	48 8d 85 78 d7 ff ff 	lea    -0x2888(%rbp),%rax
    b52e:	48 89 85 c0 dd ff ff 	mov    %rax,-0x2240(%rbp)
    b535:	48 8d 85 78 d7 ff ff 	lea    -0x2888(%rbp),%rax
    b53c:	48 89 85 c8 dd ff ff 	mov    %rax,-0x2238(%rbp)
    b543:	48 8d 85 78 d7 ff ff 	lea    -0x2888(%rbp),%rax
    b54a:	48 89 85 d0 dd ff ff 	mov    %rax,-0x2230(%rbp)
    b551:	48 8d 85 78 d7 ff ff 	lea    -0x2888(%rbp),%rax
    b558:	48 89 85 d8 dd ff ff 	mov    %rax,-0x2228(%rbp)
    b55f:	48 8d 85 78 d7 ff ff 	lea    -0x2888(%rbp),%rax
    b566:	48 89 85 e0 dd ff ff 	mov    %rax,-0x2220(%rbp)
    b56d:	48 8d 85 78 d7 ff ff 	lea    -0x2888(%rbp),%rax
    b574:	48 89 85 e8 dd ff ff 	mov    %rax,-0x2218(%rbp)
    b57b:	48 8d 85 78 d7 ff ff 	lea    -0x2888(%rbp),%rax
    b582:	48 89 85 f0 dd ff ff 	mov    %rax,-0x2210(%rbp)
    b589:	48 8d 85 78 d7 ff ff 	lea    -0x2888(%rbp),%rax
    b590:	48 89 85 f8 dd ff ff 	mov    %rax,-0x2208(%rbp)
    b597:	48 8d 85 78 d7 ff ff 	lea    -0x2888(%rbp),%rax
    b59e:	48 89 85 00 de ff ff 	mov    %rax,-0x2200(%rbp)
    b5a5:	48 8d 85 78 d7 ff ff 	lea    -0x2888(%rbp),%rax
    b5ac:	48 89 85 08 de ff ff 	mov    %rax,-0x21f8(%rbp)
    b5b3:	48 8d 85 78 d7 ff ff 	lea    -0x2888(%rbp),%rax
    b5ba:	48 89 85 10 de ff ff 	mov    %rax,-0x21f0(%rbp)
    b5c1:	48 8d 85 78 d7 ff ff 	lea    -0x2888(%rbp),%rax
    b5c8:	48 89 85 18 de ff ff 	mov    %rax,-0x21e8(%rbp)
    b5cf:	c7 85 68 d6 ff ff 06 	movl   $0x6,-0x2998(%rbp)
    b5d6:	00 00 00 
    b5d9:	48 b8 46 2f 9b f1 d1 	movabs $0xed44a7d1f19b2f46,%rax
    b5e0:	a7 44 ed 
    b5e3:	48 89 85 68 d8 ff ff 	mov    %rax,-0x2798(%rbp)
    b5ea:	48 8d 85 50 d7 ff ff 	lea    -0x28b0(%rbp),%rax
    b5f1:	48 89 85 80 d7 ff ff 	mov    %rax,-0x2880(%rbp)
    b5f8:	48 8d 85 80 d7 ff ff 	lea    -0x2880(%rbp),%rax
    b5ff:	48 89 85 88 d7 ff ff 	mov    %rax,-0x2878(%rbp)
    b606:	48 8d 85 88 d7 ff ff 	lea    -0x2878(%rbp),%rax
    b60d:	48 89 85 70 d8 ff ff 	mov    %rax,-0x2790(%rbp)
    b614:	c7 85 e0 da ff ff 01 	movl   $0x1,-0x2520(%rbp)
    b61b:	00 00 00 
    b61e:	c7 85 e4 da ff ff 54 	movl   $0xcd9d5254,-0x251c(%rbp)
    b625:	52 9d cd 
    b628:	c7 85 e8 da ff ff 01 	movl   $0x1,-0x2518(%rbp)
    b62f:	00 00 00 
    b632:	c7 85 ec da ff ff 01 	movl   $0x1,-0x2514(%rbp)
    b639:	00 00 00 
    b63c:	c7 85 f0 da ff ff 54 	movl   $0xcd9d5254,-0x2510(%rbp)
    b643:	52 9d cd 
    b646:	c7 85 f4 da ff ff 01 	movl   $0x1,-0x250c(%rbp)
    b64d:	00 00 00 
    b650:	48 c7 85 90 d7 ff ff 	movq   $0x0,-0x2870(%rbp)
    b657:	00 00 00 00 
    b65b:	c7 85 6c d6 ff ff f8 	movl   $0xfffffff8,-0x2994(%rbp)
    b662:	ff ff ff 
    b665:	c6 85 e5 d5 ff ff 01 	movb   $0x1,-0x2a1b(%rbp)
    b66c:	48 8d 05 ad 0a 01 00 	lea    0x10aad(%rip),%rax        # 1c120 <g_283>
    b673:	48 89 85 98 d7 ff ff 	mov    %rax,-0x2868(%rbp)
    b67a:	48 8d 85 98 d7 ff ff 	lea    -0x2868(%rbp),%rax
    b681:	48 89 85 78 d8 ff ff 	mov    %rax,-0x2788(%rbp)
    b688:	48 8d 05 d9 11 01 00 	lea    0x111d9(%rip),%rax        # 1c868 <g_356+0x728>
    b68f:	48 89 85 80 d8 ff ff 	mov    %rax,-0x2780(%rbp)
    b696:	0f b7 05 ad e9 00 00 	movzwl 0xe9ad(%rip),%eax        # 1a04a <g_124>
    b69d:	48 0f bf d8          	movswq %ax,%rbx
    b6a1:	48 8b 85 28 d7 ff ff 	mov    -0x28d8(%rbp),%rax
    b6a8:	44 0f b6 e0          	movzbl %al,%r12d
    b6ac:	8b 85 88 e1 ff ff    	mov    -0x1e78(%rbp),%eax
    b6b2:	4c 63 e8             	movslq %eax,%r13
    b6b5:	48 8b 05 84 12 01 00 	mov    0x11284(%rip),%rax        # 1c940 <g_873>
    b6bc:	0f b7 00             	movzwl (%rax),%eax
    b6bf:	0f b7 c0             	movzwl %ax,%eax
    b6c2:	89 c6                	mov    %eax,%esi
    b6c4:	bf 52 0d 00 00       	mov    $0xd52,%edi
    b6c9:	e8 ac d7 ff ff       	callq  8e7a <safe_rshift_func_uint16_t_u_u>
    b6ce:	ba 01 00 00 00       	mov    $0x1,%edx
    b6d3:	48 8b 85 50 d7 ff ff 	mov    -0x28b0(%rbp),%rax
    b6da:	89 10                	mov    %edx,(%rax)
    b6dc:	48 8b 85 28 d7 ff ff 	mov    -0x28d8(%rbp),%rax
    b6e3:	48 83 f0 61          	xor    $0x61,%rax
    b6e7:	4c 89 ee             	mov    %r13,%rsi
    b6ea:	48 89 c7             	mov    %rax,%rdi
    b6ed:	e8 b6 d1 ff ff       	callq  88a8 <safe_sub_func_int64_t_s_s>
    b6f2:	48 8b 85 28 d7 ff ff 	mov    -0x28d8(%rbp),%rax
    b6f9:	48 85 c0             	test   %rax,%rax
    b6fc:	75 0c                	jne    b70a <func_28+0x188a>
    b6fe:	48 8b 85 28 d7 ff ff 	mov    -0x28d8(%rbp),%rax
    b705:	48 85 c0             	test   %rax,%rax
    b708:	74 07                	je     b711 <func_28+0x1891>
    b70a:	b8 01 00 00 00       	mov    $0x1,%eax
    b70f:	eb 05                	jmp    b716 <func_28+0x1896>
    b711:	b8 00 00 00 00       	mov    $0x0,%eax
    b716:	0f b6 c0             	movzbl %al,%eax
    b719:	44 89 e6             	mov    %r12d,%esi
    b71c:	89 c7                	mov    %eax,%edi
    b71e:	e8 37 d4 ff ff       	callq  8b5a <safe_add_func_uint8_t_u_u>
    b723:	0f b6 d0             	movzbl %al,%edx
    b726:	8b 85 90 e1 ff ff    	mov    -0x1e70(%rbp),%eax
    b72c:	31 d0                	xor    %edx,%eax
    b72e:	48 63 d0             	movslq %eax,%rdx
    b731:	8b 85 9c e2 ff ff    	mov    -0x1d64(%rbp),%eax
    b737:	48 98                	cltq   
    b739:	48 89 d6             	mov    %rdx,%rsi
    b73c:	48 89 c7             	mov    %rax,%rdi
    b73f:	e8 70 d2 ff ff       	callq  89b4 <safe_mod_func_int64_t_s_s>
    b744:	0f be c0             	movsbl %al,%eax
    b747:	89 c7                	mov    %eax,%edi
    b749:	e8 71 ca ff ff       	callq  81bf <safe_unary_minus_func_int8_t_s>
    b74e:	0f b7 05 59 eb 00 00 	movzwl 0xeb59(%rip),%eax        # 1a2ae <g_293+0x12e>
    b755:	0f b7 c0             	movzwl %ax,%eax
    b758:	48 89 de             	mov    %rbx,%rsi
    b75b:	48 89 c7             	mov    %rax,%rdi
    b75e:	e8 e8 d8 ff ff       	callq  904b <safe_sub_func_uint64_t_u_u>
    b763:	48 89 c1             	mov    %rax,%rcx
    b766:	48 83 bd 28 d8 ff ff 	cmpq   $0x0,-0x27d8(%rbp)
    b76d:	00 
    b76e:	0f 94 c2             	sete   %dl
    b771:	48 8b 85 28 d8 ff ff 	mov    -0x27d8(%rbp),%rax
    b778:	48 8b 00             	mov    (%rax),%rax
    b77b:	0f b6 d2             	movzbl %dl,%edx
    b77e:	89 10                	mov    %edx,(%rax)
    b780:	48 89 ce             	mov    %rcx,%rsi
    b783:	bf 00 00 00 00       	mov    $0x0,%edi
    b788:	e8 6a d2 ff ff       	callq  89f7 <safe_div_func_int64_t_s_s>
    b78d:	8b 15 cd e9 00 00    	mov    0xe9cd(%rip),%edx        # 1a160 <g_194>
    b793:	89 d2                	mov    %edx,%edx
    b795:	48 39 d0             	cmp    %rdx,%rax
    b798:	0f 9e c2             	setle  %dl
    b79b:	48 8b 05 3e 09 01 00 	mov    0x1093e(%rip),%rax        # 1c0e0 <g_16>
    b7a2:	0f b6 d2             	movzbl %dl,%edx
    b7a5:	89 10                	mov    %edx,(%rax)
    b7a7:	8b 00                	mov    (%rax),%eax
    b7a9:	85 c0                	test   %eax,%eax
    b7ab:	0f 84 c3 0c 00 00    	je     c474 <func_28+0x25f4>
    b7b1:	48 8d 85 e0 f7 ff ff 	lea    -0x820(%rbp),%rax
    b7b8:	48 8d 15 e1 9a 00 00 	lea    0x9ae1(%rip),%rdx        # 152a0 <g_182+0x24c>
    b7bf:	b9 1f 00 00 00       	mov    $0x1f,%ecx
    b7c4:	48 89 c7             	mov    %rax,%rdi
    b7c7:	48 89 d6             	mov    %rdx,%rsi
    b7ca:	f3 48 a5             	rep movsq %ds:(%rsi),%es:(%rdi)
    b7cd:	48 89 f2             	mov    %rsi,%rdx
    b7d0:	48 89 f8             	mov    %rdi,%rax
    b7d3:	8b 0a                	mov    (%rdx),%ecx
    b7d5:	89 08                	mov    %ecx,(%rax)
    b7d7:	c7 85 18 d6 ff ff a8 	movl   $0x6b6834a8,-0x29e8(%rbp)
    b7de:	34 68 6b 
    b7e1:	48 c7 85 88 d8 ff ff 	movq   $0x0,-0x2778(%rbp)
    b7e8:	00 00 00 00 
    b7ec:	48 8d 05 6d e8 00 00 	lea    0xe86d(%rip),%rax        # 1a060 <g_159>
    b7f3:	48 89 85 c0 d7 ff ff 	mov    %rax,-0x2840(%rbp)
    b7fa:	48 8d 85 c0 d7 ff ff 	lea    -0x2840(%rbp),%rax
    b801:	48 89 85 c8 d7 ff ff 	mov    %rax,-0x2838(%rbp)
    b808:	48 8d 85 c8 d7 ff ff 	lea    -0x2838(%rbp),%rax
    b80f:	48 89 85 90 d8 ff ff 	mov    %rax,-0x2770(%rbp)
    b816:	48 8d 85 10 d6 ff ff 	lea    -0x29f0(%rbp),%rax
    b81d:	48 89 85 d0 d7 ff ff 	mov    %rax,-0x2830(%rbp)
    b824:	48 8d 85 d0 d7 ff ff 	lea    -0x2830(%rbp),%rax
    b82b:	48 89 85 98 d8 ff ff 	mov    %rax,-0x2768(%rbp)
    b832:	48 8d 05 6f 11 01 00 	lea    0x1116f(%rip),%rax        # 1c9a8 <g_1127>
    b839:	48 89 85 a0 d8 ff ff 	mov    %rax,-0x2760(%rbp)
    b840:	48 c7 85 a8 d8 ff ff 	movq   $0x0,-0x2758(%rbp)
    b847:	00 00 00 00 
    b84b:	48 8d 05 1e e9 00 00 	lea    0xe91e(%rip),%rax        # 1a170 <g_292>
    b852:	48 89 85 b0 d8 ff ff 	mov    %rax,-0x2750(%rbp)
    b859:	48 8d 05 ec e7 00 00 	lea    0xe7ec(%rip),%rax        # 1a04c <g_126>
    b860:	48 89 85 b8 d8 ff ff 	mov    %rax,-0x2748(%rbp)
    b867:	48 8d 85 a0 dc ff ff 	lea    -0x2360(%rbp),%rax
    b86e:	48 05 84 00 00 00    	add    $0x84,%rax
    b874:	48 89 85 c0 d8 ff ff 	mov    %rax,-0x2740(%rbp)
    b87b:	48 c7 85 c8 d8 ff ff 	movq   $0x0,-0x2738(%rbp)
    b882:	00 00 00 00 
    b886:	c7 85 1c d6 ff ff 00 	movl   $0x0,-0x29e4(%rbp)
    b88d:	00 00 00 
    b890:	eb 1e                	jmp    b8b0 <func_28+0x1a30>
    b892:	8b 85 1c d6 ff ff    	mov    -0x29e4(%rbp),%eax
    b898:	48 98                	cltq   
    b89a:	48 8d 15 a3 eb 00 00 	lea    0xeba3(%rip),%rdx        # 1a444 <g_979>
    b8a1:	48 89 94 c5 50 db ff 	mov    %rdx,-0x24b0(%rbp,%rax,8)
    b8a8:	ff 
    b8a9:	83 85 1c d6 ff ff 01 	addl   $0x1,-0x29e4(%rbp)
    b8b0:	83 bd 1c d6 ff ff 01 	cmpl   $0x1,-0x29e4(%rbp)
    b8b7:	7e d9                	jle    b892 <func_28+0x1a12>
    b8b9:	c7 05 9d e7 00 00 f7 	movl   $0xfffffff7,0xe79d(%rip)        # 1a060 <g_159>
    b8c0:	ff ff ff 
    b8c3:	e9 50 06 00 00       	jmpq   bf18 <func_28+0x2098>
    b8c8:	c6 85 e3 d5 ff ff 00 	movb   $0x0,-0x2a1d(%rbp)
    b8cf:	66 c7 85 f4 d5 ff ff 	movw   $0xf1f5,-0x2a0c(%rbp)
    b8d6:	f5 f1 
    b8d8:	48 8d 05 71 e7 00 00 	lea    0xe771(%rip),%rax        # 1a050 <g_145>
    b8df:	48 89 85 d8 d7 ff ff 	mov    %rax,-0x2828(%rbp)
    b8e6:	48 8d 85 d8 d7 ff ff 	lea    -0x2828(%rbp),%rax
    b8ed:	48 89 85 e0 d7 ff ff 	mov    %rax,-0x2820(%rbp)
    b8f4:	48 8d 85 e0 d7 ff ff 	lea    -0x2820(%rbp),%rax
    b8fb:	48 89 85 d8 d8 ff ff 	mov    %rax,-0x2728(%rbp)
    b902:	48 8d 05 2f e7 00 00 	lea    0xe72f(%rip),%rax        # 1a038 <g_73>
    b909:	48 89 85 e0 d8 ff ff 	mov    %rax,-0x2720(%rbp)
    b910:	c7 85 74 d6 ff ff ff 	movl   $0xffffffff,-0x298c(%rbp)
    b917:	ff ff ff 
    b91a:	48 8d 05 0b e7 00 00 	lea    0xe70b(%rip),%rax        # 1a02c <g_9>
    b921:	48 89 85 e8 d8 ff ff 	mov    %rax,-0x2718(%rbp)
    b928:	48 8d 05 09 e7 00 00 	lea    0xe709(%rip),%rax        # 1a038 <g_73>
    b92f:	48 89 85 f0 d8 ff ff 	mov    %rax,-0x2710(%rbp)
    b936:	48 8d 85 b0 e0 ff ff 	lea    -0x1f50(%rbp),%rax
    b93d:	48 05 94 00 00 00    	add    $0x94,%rax
    b943:	48 89 85 f8 d8 ff ff 	mov    %rax,-0x2708(%rbp)
    b94a:	48 8d 05 db e6 00 00 	lea    0xe6db(%rip),%rax        # 1a02c <g_9>
    b951:	48 89 85 00 d9 ff ff 	mov    %rax,-0x2700(%rbp)
    b958:	48 8d 85 b0 e0 ff ff 	lea    -0x1f50(%rbp),%rax
    b95f:	48 05 ec 01 00 00    	add    $0x1ec,%rax
    b965:	48 89 85 08 d9 ff ff 	mov    %rax,-0x26f8(%rbp)
    b96c:	c7 85 20 d6 ff ff 00 	movl   $0x0,-0x29e0(%rbp)
    b973:	00 00 00 
    b976:	eb 4d                	jmp    b9c5 <func_28+0x1b45>
    b978:	c7 85 24 d6 ff ff 00 	movl   $0x0,-0x29dc(%rbp)
    b97f:	00 00 00 
    b982:	eb 31                	jmp    b9b5 <func_28+0x1b35>
    b984:	8b 85 24 d6 ff ff    	mov    -0x29dc(%rbp),%eax
    b98a:	48 63 c8             	movslq %eax,%rcx
    b98d:	8b 85 20 d6 ff ff    	mov    -0x29e0(%rbp),%eax
    b993:	48 63 d0             	movslq %eax,%rdx
    b996:	48 89 d0             	mov    %rdx,%rax
    b999:	48 01 c0             	add    %rax,%rax
    b99c:	48 01 d0             	add    %rdx,%rax
    b99f:	48 01 c8             	add    %rcx,%rax
    b9a2:	48 c7 84 c5 d0 db ff 	movq   $0x0,-0x2430(%rbp,%rax,8)
    b9a9:	ff 00 00 00 00 
    b9ae:	83 85 24 d6 ff ff 01 	addl   $0x1,-0x29dc(%rbp)
    b9b5:	83 bd 24 d6 ff ff 02 	cmpl   $0x2,-0x29dc(%rbp)
    b9bc:	7e c6                	jle    b984 <func_28+0x1b04>
    b9be:	83 85 20 d6 ff ff 01 	addl   $0x1,-0x29e0(%rbp)
    b9c5:	83 bd 20 d6 ff ff 00 	cmpl   $0x0,-0x29e0(%rbp)
    b9cc:	7e aa                	jle    b978 <func_28+0x1af8>
    b9ce:	c7 05 30 e9 00 00 00 	movl   $0x0,0xe930(%rip)        # 1a308 <g_435>
    b9d5:	00 00 00 
    b9d8:	e9 60 03 00 00       	jmpq   bd3d <func_28+0x1ebd>
    b9dd:	66 c7 85 ee d5 ff ff 	movw   $0x93a1,-0x2a12(%rbp)
    b9e4:	a1 93 
    b9e6:	c6 85 e6 d5 ff ff 08 	movb   $0x8,-0x2a1a(%rbp)
    b9ed:	48 8d 05 5c e6 00 00 	lea    0xe65c(%rip),%rax        # 1a050 <g_145>
    b9f4:	48 89 85 10 d9 ff ff 	mov    %rax,-0x26f0(%rbp)
    b9fb:	48 8d 05 e6 e8 00 00 	lea    0xe8e6(%rip),%rax        # 1a2e8 <g_302>
    ba02:	48 89 85 70 e5 ff ff 	mov    %rax,-0x1a90(%rbp)
    ba09:	48 8d 05 d8 e8 00 00 	lea    0xe8d8(%rip),%rax        # 1a2e8 <g_302>
    ba10:	48 89 85 78 e5 ff ff 	mov    %rax,-0x1a88(%rbp)
    ba17:	48 8d 05 ca e8 00 00 	lea    0xe8ca(%rip),%rax        # 1a2e8 <g_302>
    ba1e:	48 89 85 80 e5 ff ff 	mov    %rax,-0x1a80(%rbp)
    ba25:	48 8d 05 bc e8 00 00 	lea    0xe8bc(%rip),%rax        # 1a2e8 <g_302>
    ba2c:	48 89 85 88 e5 ff ff 	mov    %rax,-0x1a78(%rbp)
    ba33:	48 8d 05 ae e8 00 00 	lea    0xe8ae(%rip),%rax        # 1a2e8 <g_302>
    ba3a:	48 89 85 90 e5 ff ff 	mov    %rax,-0x1a70(%rbp)
    ba41:	66 c7 05 ae e8 00 00 	movw   $0x0,0xe8ae(%rip)        # 1a2f8 <g_346>
    ba48:	00 00 
    ba4a:	e9 b6 02 00 00       	jmpq   bd05 <func_28+0x1e85>
    ba4f:	48 8d 05 d2 f0 00 00 	lea    0xf0d2(%rip),%rax        # 1ab28 <g_1047+0x6c8>
    ba56:	48 89 85 18 d9 ff ff 	mov    %rax,-0x26e8(%rbp)
    ba5d:	48 8d 05 fc f0 00 00 	lea    0xf0fc(%rip),%rax        # 1ab60 <g_1049>
    ba64:	48 89 85 20 d9 ff ff 	mov    %rax,-0x26e0(%rbp)
    ba6b:	0f b6 85 e3 d5 ff ff 	movzbl -0x2a1d(%rbp),%eax
    ba72:	83 c0 01             	add    $0x1,%eax
    ba75:	88 85 e3 d5 ff ff    	mov    %al,-0x2a1d(%rbp)
    ba7b:	0f b7 85 ee d5 ff ff 	movzwl -0x2a12(%rbp),%eax
    ba82:	83 c0 01             	add    $0x1,%eax
    ba85:	66 89 85 ee d5 ff ff 	mov    %ax,-0x2a12(%rbp)
    ba8c:	48 8b 05 8d 0e 01 00 	mov    0x10e8d(%rip),%rax        # 1c920 <g_561>
    ba93:	8b 18                	mov    (%rax),%ebx
    ba95:	0f b7 05 5c e8 00 00 	movzwl 0xe85c(%rip),%eax        # 1a2f8 <g_346>
    ba9c:	98                   	cwtl   
    ba9d:	8d 50 03             	lea    0x3(%rax),%edx
    baa0:	0f b7 05 51 e8 00 00 	movzwl 0xe851(%rip),%eax        # 1a2f8 <g_346>
    baa7:	98                   	cwtl   
    baa8:	8d 48 01             	lea    0x1(%rax),%ecx
    baab:	0f b7 05 46 e8 00 00 	movzwl 0xe846(%rip),%eax        # 1a2f8 <g_346>
    bab2:	98                   	cwtl   
    bab3:	48 63 f0             	movslq %eax,%rsi
    bab6:	48 63 d2             	movslq %edx,%rdx
    bab9:	48 63 c9             	movslq %ecx,%rcx
    babc:	48 89 d0             	mov    %rdx,%rax
    babf:	48 c1 e0 03          	shl    $0x3,%rax
    bac3:	48 01 d0             	add    %rdx,%rax
    bac6:	48 01 c0             	add    %rax,%rax
    bac9:	48 89 ca             	mov    %rcx,%rdx
    bacc:	48 01 d2             	add    %rdx,%rdx
    bacf:	48 01 ca             	add    %rcx,%rdx
    bad2:	48 01 d0             	add    %rdx,%rax
    bad5:	48 01 f0             	add    %rsi,%rax
    bad8:	44 8b ac 85 b0 e0 ff 	mov    -0x1f50(%rbp,%rax,4),%r13d
    badf:	ff 
    bae0:	44 0f b6 a5 e6 d5 ff 	movzbl -0x2a1a(%rbp),%r12d
    bae7:	ff 
    bae8:	0f b6 85 7b f8 ff ff 	movzbl -0x785(%rbp),%eax
    baef:	48 0f be c0          	movsbq %al,%rax
    baf3:	48 be fa 17 4d 58 e1 	movabs $0x521399e1584d17fa,%rsi
    bafa:	99 13 52 
    bafd:	48 89 c7             	mov    %rax,%rdi
    bb00:	e8 3c cd ff ff       	callq  8841 <safe_add_func_int64_t_s_s>
    bb05:	48 8b 95 18 d9 ff ff 	mov    -0x26e8(%rbp),%rdx
    bb0c:	48 8b 12             	mov    (%rdx),%rdx
    bb0f:	48 31 c2             	xor    %rax,%rdx
    bb12:	48 8b 85 18 d9 ff ff 	mov    -0x26e8(%rbp),%rax
    bb19:	48 89 10             	mov    %rdx,(%rax)
    bb1c:	48 8b 85 18 d9 ff ff 	mov    -0x26e8(%rbp),%rax
    bb23:	48 8b 10             	mov    (%rax),%rdx
    bb26:	48 8b 85 20 d9 ff ff 	mov    -0x26e0(%rbp),%rax
    bb2d:	48 8b 00             	mov    (%rax),%rax
    bb30:	48 f7 d0             	not    %rax
    bb33:	48 89 c1             	mov    %rax,%rcx
    bb36:	48 8b 85 20 d9 ff ff 	mov    -0x26e0(%rbp),%rax
    bb3d:	48 89 08             	mov    %rcx,(%rax)
    bb40:	48 8b 85 20 d9 ff ff 	mov    -0x26e0(%rbp),%rax
    bb47:	48 8b 00             	mov    (%rax),%rax
    bb4a:	48 21 d0             	and    %rdx,%rax
    bb4d:	48 83 f8 fd          	cmp    $0xfffffffffffffffd,%rax
    bb51:	0f 9c c0             	setl   %al
    bb54:	0f b6 f0             	movzbl %al,%esi
    bb57:	48 8b 15 8a 05 01 00 	mov    0x1058a(%rip),%rdx        # 1c0e8 <g_15>
    bb5e:	48 8b 85 d0 d5 ff ff 	mov    -0x2a30(%rbp),%rax
    bb65:	48 8b 00             	mov    (%rax),%rax
    bb68:	48 8b 12             	mov    (%rdx),%rdx
    bb6b:	48 89 10             	mov    %rdx,(%rax)
    bb6e:	48 8b 38             	mov    (%rax),%rdi
    bb71:	0f b7 05 80 e7 00 00 	movzwl 0xe780(%rip),%eax        # 1a2f8 <g_346>
    bb78:	98                   	cwtl   
    bb79:	8d 50 03             	lea    0x3(%rax),%edx
    bb7c:	0f b7 05 75 e7 00 00 	movzwl 0xe775(%rip),%eax        # 1a2f8 <g_346>
    bb83:	98                   	cwtl   
    bb84:	8d 48 01             	lea    0x1(%rax),%ecx
    bb87:	0f b7 05 6a e7 00 00 	movzwl 0xe76a(%rip),%eax        # 1a2f8 <g_346>
    bb8e:	98                   	cwtl   
    bb8f:	4c 8d 85 b0 e0 ff ff 	lea    -0x1f50(%rbp),%r8
    bb96:	4c 63 c8             	movslq %eax,%r9
    bb99:	48 63 d2             	movslq %edx,%rdx
    bb9c:	48 89 d0             	mov    %rdx,%rax
    bb9f:	48 c1 e0 03          	shl    $0x3,%rax
    bba3:	48 01 d0             	add    %rdx,%rax
    bba6:	48 01 c0             	add    %rax,%rax
    bba9:	48 63 c9             	movslq %ecx,%rcx
    bbac:	48 89 ca             	mov    %rcx,%rdx
    bbaf:	48 01 d2             	add    %rdx,%rdx
    bbb2:	48 01 ca             	add    %rcx,%rdx
    bbb5:	48 01 d0             	add    %rdx,%rax
    bbb8:	4c 01 c8             	add    %r9,%rax
    bbbb:	48 c1 e0 02          	shl    $0x2,%rax
    bbbf:	49 8d 14 00          	lea    (%r8,%rax,1),%rdx
    bbc3:	48 8b 85 d8 d5 ff ff 	mov    -0x2a28(%rbp),%rax
    bbca:	48 89 10             	mov    %rdx,(%rax)
    bbcd:	48 8b 85 d8 d5 ff ff 	mov    -0x2a28(%rbp),%rax
    bbd4:	48 8b 00             	mov    (%rax),%rax
    bbd7:	48 39 c7             	cmp    %rax,%rdi
    bbda:	0f 94 c0             	sete   %al
    bbdd:	0f b6 c0             	movzbl %al,%eax
    bbe0:	89 c7                	mov    %eax,%edi
    bbe2:	e8 ac cf ff ff       	callq  8b93 <safe_mul_func_uint8_t_u_u>
    bbe7:	0f b7 05 0a e7 00 00 	movzwl 0xe70a(%rip),%eax        # 1a2f8 <g_346>
    bbee:	98                   	cwtl   
    bbef:	8d 50 03             	lea    0x3(%rax),%edx
    bbf2:	0f b7 05 ff e6 00 00 	movzwl 0xe6ff(%rip),%eax        # 1a2f8 <g_346>
    bbf9:	98                   	cwtl   
    bbfa:	8d 48 01             	lea    0x1(%rax),%ecx
    bbfd:	0f b7 05 f4 e6 00 00 	movzwl 0xe6f4(%rip),%eax        # 1a2f8 <g_346>
    bc04:	98                   	cwtl   
    bc05:	48 63 f0             	movslq %eax,%rsi
    bc08:	48 63 d2             	movslq %edx,%rdx
    bc0b:	48 63 c9             	movslq %ecx,%rcx
    bc0e:	48 89 d0             	mov    %rdx,%rax
    bc11:	48 c1 e0 03          	shl    $0x3,%rax
    bc15:	48 01 d0             	add    %rdx,%rax
    bc18:	48 01 c0             	add    %rax,%rax
    bc1b:	48 89 ca             	mov    %rcx,%rdx
    bc1e:	48 01 d2             	add    %rdx,%rdx
    bc21:	48 01 ca             	add    %rcx,%rdx
    bc24:	48 01 d0             	add    %rdx,%rax
    bc27:	48 01 f0             	add    %rsi,%rax
    bc2a:	8b 84 85 b0 e0 ff ff 	mov    -0x1f50(%rbp,%rax,4),%eax
    bc31:	85 c0                	test   %eax,%eax
    bc33:	74 07                	je     bc3c <func_28+0x1dbc>
    bc35:	ba 01 00 00 00       	mov    $0x1,%edx
    bc3a:	eb 05                	jmp    bc41 <func_28+0x1dc1>
    bc3c:	ba 00 00 00 00       	mov    $0x0,%edx
    bc41:	0f b6 85 7b f8 ff ff 	movzbl -0x785(%rbp),%eax
    bc48:	0f be c0             	movsbl %al,%eax
    bc4b:	31 d0                	xor    %edx,%eax
    bc4d:	48 63 d0             	movslq %eax,%rdx
    bc50:	48 8b 05 a9 04 01 00 	mov    0x104a9(%rip),%rax        # 1c100 <g_239>
    bc57:	48 8b 00             	mov    (%rax),%rax
    bc5a:	48 89 d6             	mov    %rdx,%rsi
    bc5d:	48 89 c7             	mov    %rax,%rdi
    bc60:	e8 92 cd ff ff       	callq  89f7 <safe_div_func_int64_t_s_s>
    bc65:	48 89 c2             	mov    %rax,%rdx
    bc68:	48 8b 05 89 04 01 00 	mov    0x10489(%rip),%rax        # 1c0f8 <g_197>
    bc6f:	48 8b 00             	mov    (%rax),%rax
    bc72:	89 10                	mov    %edx,(%rax)
    bc74:	8b 00                	mov    (%rax),%eax
    bc76:	44 89 e6             	mov    %r12d,%esi
    bc79:	89 c7                	mov    %eax,%edi
    bc7b:	e8 38 d2 ff ff       	callq  8eb8 <safe_add_func_uint32_t_u_u>
    bc80:	35 89 5d 00 00       	xor    $0x5d89,%eax
    bc85:	89 c2                	mov    %eax,%edx
    bc87:	48 8b 85 28 d7 ff ff 	mov    -0x28d8(%rbp),%rax
    bc8e:	48 39 c2             	cmp    %rax,%rdx
    bc91:	0f 92 c0             	setb   %al
    bc94:	0f b6 d0             	movzbl %al,%edx
    bc97:	0f b6 85 e6 d5 ff ff 	movzbl -0x2a1a(%rbp),%eax
    bc9e:	39 c2                	cmp    %eax,%edx
    bca0:	0f 9f c0             	setg   %al
    bca3:	0f b6 d0             	movzbl %al,%edx
    bca6:	0f b6 85 7b f8 ff ff 	movzbl -0x785(%rbp),%eax
    bcad:	0f be c0             	movsbl %al,%eax
    bcb0:	31 d0                	xor    %edx,%eax
    bcb2:	f7 d0                	not    %eax
    bcb4:	41 39 c5             	cmp    %eax,%r13d
    bcb7:	7c 07                	jl     bcc0 <func_28+0x1e40>
    bcb9:	b8 c9 00 00 00       	mov    $0xc9,%eax
    bcbe:	eb 05                	jmp    bcc5 <func_28+0x1e45>
    bcc0:	b8 c8 00 00 00       	mov    $0xc8,%eax
    bcc5:	89 de                	mov    %ebx,%esi
    bcc7:	89 c7                	mov    %eax,%edi
    bcc9:	e8 37 c9 ff ff       	callq  8605 <safe_sub_func_int32_t_s_s>
    bcce:	0f b6 95 7b f8 ff ff 	movzbl -0x785(%rbp),%edx
    bcd5:	0f be d2             	movsbl %dl,%edx
    bcd8:	39 d0                	cmp    %edx,%eax
    bcda:	0f 9e c0             	setle  %al
    bcdd:	0f b6 c0             	movzbl %al,%eax
    bce0:	48 63 d0             	movslq %eax,%rdx
    bce3:	48 8b 05 7e ee 00 00 	mov    0xee7e(%rip),%rax        # 1ab68 <g_1051>
    bcea:	48 21 d0             	and    %rdx,%rax
    bced:	48 89 05 74 ee 00 00 	mov    %rax,0xee74(%rip)        # 1ab68 <g_1051>
    bcf4:	0f b7 05 fd e5 00 00 	movzwl 0xe5fd(%rip),%eax        # 1a2f8 <g_346>
    bcfb:	83 c0 01             	add    $0x1,%eax
    bcfe:	66 89 05 f3 e5 00 00 	mov    %ax,0xe5f3(%rip)        # 1a2f8 <g_346>
    bd05:	0f b7 05 ec e5 00 00 	movzwl 0xe5ec(%rip),%eax        # 1a2f8 <g_346>
    bd0c:	66 83 f8 02          	cmp    $0x2,%ax
    bd10:	0f 8e 39 fd ff ff    	jle    ba4f <func_28+0x1bcf>
    bd16:	8b 05 54 ee 00 00    	mov    0xee54(%rip),%eax        # 1ab70 <g_1055>
    bd1c:	83 e8 01             	sub    $0x1,%eax
    bd1f:	89 05 4b ee 00 00    	mov    %eax,0xee4b(%rip)        # 1ab70 <g_1055>
    bd25:	8b 05 dd e5 00 00    	mov    0xe5dd(%rip),%eax        # 1a308 <g_435>
    bd2b:	be 03 00 00 00       	mov    $0x3,%esi
    bd30:	89 c7                	mov    %eax,%edi
    bd32:	e8 81 d1 ff ff       	callq  8eb8 <safe_add_func_uint32_t_u_u>
    bd37:	89 05 cb e5 00 00    	mov    %eax,0xe5cb(%rip)        # 1a308 <g_435>
    bd3d:	8b 05 c5 e5 00 00    	mov    0xe5c5(%rip),%eax        # 1a308 <g_435>
    bd43:	83 f8 09             	cmp    $0x9,%eax
    bd46:	0f 8f 91 fc ff ff    	jg     b9dd <func_28+0x1b5d>
    bd4c:	8b 85 10 d6 ff ff    	mov    -0x29f0(%rbp),%eax
    bd52:	83 f8 05             	cmp    $0x5,%eax
    bd55:	0f 96 c0             	setbe  %al
    bd58:	0f b6 d0             	movzbl %al,%edx
    bd5b:	48 8b 05 96 03 01 00 	mov    0x10396(%rip),%rax        # 1c0f8 <g_197>
    bd62:	48 8b 08             	mov    (%rax),%rcx
    bd65:	48 8b 85 98 f0 ff ff 	mov    -0xf68(%rbp),%rax
    bd6c:	48 39 c1             	cmp    %rax,%rcx
    bd6f:	0f 95 c0             	setne  %al
    bd72:	0f b6 c0             	movzbl %al,%eax
    bd75:	39 c2                	cmp    %eax,%edx
    bd77:	0f 9f c0             	setg   %al
    bd7a:	44 0f b6 e8          	movzbl %al,%r13d
    bd7e:	0f b6 85 7b f8 ff ff 	movzbl -0x785(%rbp),%eax
    bd85:	0f be d8             	movsbl %al,%ebx
    bd88:	44 0f b6 a5 e3 d5 ff 	movzbl -0x2a1d(%rbp),%r12d
    bd8f:	ff 
    bd90:	48 8b 85 d8 d5 ff ff 	mov    -0x2a28(%rbp),%rax
    bd97:	48 8b 00             	mov    (%rax),%rax
    bd9a:	0f b6 95 e3 d5 ff ff 	movzbl -0x2a1d(%rbp),%edx
    bda1:	89 10                	mov    %edx,(%rax)
    bda3:	8b 00                	mov    (%rax),%eax
    bda5:	41 89 c6             	mov    %eax,%r14d
    bda8:	48 8b 85 28 d7 ff ff 	mov    -0x28d8(%rbp),%rax
    bdaf:	0f be c0             	movsbl %al,%eax
    bdb2:	8b 95 18 d6 ff ff    	mov    -0x29e8(%rbp),%edx
    bdb8:	89 d6                	mov    %edx,%esi
    bdba:	89 c7                	mov    %eax,%edi
    bdbc:	e8 74 c5 ff ff       	callq  8335 <safe_rshift_func_int8_t_s_s>
    bdc1:	89 c2                	mov    %eax,%edx
    bdc3:	8b 05 1b a6 00 00    	mov    0xa61b(%rip),%eax        # 163e4 <l_1021.4263+0x24>
    bdc9:	31 d0                	xor    %edx,%eax
    bdcb:	0f be c0             	movsbl %al,%eax
    bdce:	be 33 00 00 00       	mov    $0x33,%esi
    bdd3:	89 c7                	mov    %eax,%edi
    bdd5:	e8 38 c4 ff ff       	callq  8212 <safe_mul_func_int8_t_s_s>
    bdda:	66 0f be d0          	movsbw %al,%dx
    bdde:	0f b6 85 e3 d5 ff ff 	movzbl -0x2a1d(%rbp),%eax
    bde5:	21 d0                	and    %edx,%eax
    bde7:	44 31 f0             	xor    %r14d,%eax
    bdea:	0f b7 c0             	movzwl %ax,%eax
    bded:	44 89 e6             	mov    %r12d,%esi
    bdf0:	89 c7                	mov    %eax,%edi
    bdf2:	e8 46 cf ff ff       	callq  8d3d <safe_mul_func_uint16_t_u_u>
    bdf7:	0f b7 d0             	movzwl %ax,%edx
    bdfa:	0f b6 85 e3 d5 ff ff 	movzbl -0x2a1d(%rbp),%eax
    be01:	31 d0                	xor    %edx,%eax
    be03:	be 6a c5 52 88       	mov    $0x8852c56a,%esi
    be08:	89 c7                	mov    %eax,%edi
    be0a:	e8 16 d1 ff ff       	callq  8f25 <safe_div_func_uint32_t_u_u>
    be0f:	89 c2                	mov    %eax,%edx
    be11:	48 8b 05 e8 02 01 00 	mov    0x102e8(%rip),%rax        # 1c100 <g_239>
    be18:	48 8b 00             	mov    (%rax),%rax
    be1b:	48 39 c2             	cmp    %rax,%rdx
    be1e:	7f 0a                	jg     be2a <func_28+0x1faa>
    be20:	48 8b 85 28 d7 ff ff 	mov    -0x28d8(%rbp),%rax
    be27:	48 85 c0             	test   %rax,%rax
    be2a:	48 83 bd 88 d8 ff ff 	cmpq   $0x0,-0x2778(%rbp)
    be31:	00 
    be32:	75 07                	jne    be3b <func_28+0x1fbb>
    be34:	80 bd e3 d5 ff ff 00 	cmpb   $0x0,-0x2a1d(%rbp)
    be3b:	48 8b 85 d8 d8 ff ff 	mov    -0x2728(%rbp),%rax
    be42:	48 c7 00 00 00 00 00 	movq   $0x0,(%rax)
    be49:	48 8b 85 d8 d8 ff ff 	mov    -0x2728(%rbp),%rax
    be50:	48 8b 00             	mov    (%rax),%rax
    be53:	48 39 85 38 d8 ff ff 	cmp    %rax,-0x27c8(%rbp)
    be5a:	0f 94 c0             	sete   %al
    be5d:	88 05 e5 e1 00 00    	mov    %al,0xe1e5(%rip)        # 1a048 <g_121>
    be63:	0f b6 05 de e1 00 00 	movzbl 0xe1de(%rip),%eax        # 1a048 <g_121>
    be6a:	0f be c0             	movsbl %al,%eax
    be6d:	be 01 00 00 00       	mov    $0x1,%esi
    be72:	89 c7                	mov    %eax,%edi
    be74:	e8 75 c4 ff ff       	callq  82ee <safe_lshift_func_int8_t_s_u>
    be79:	48 8b 85 28 d7 ff ff 	mov    -0x28d8(%rbp),%rax
    be80:	0f be c0             	movsbl %al,%eax
    be83:	89 de                	mov    %ebx,%esi
    be85:	89 c7                	mov    %eax,%edi
    be87:	e8 de c3 ff ff       	callq  826a <safe_div_func_int8_t_s_s>
    be8c:	89 c2                	mov    %eax,%edx
    be8e:	48 8b 85 28 d7 ff ff 	mov    -0x28d8(%rbp),%rax
    be95:	31 d0                	xor    %edx,%eax
    be97:	0f be c0             	movsbl %al,%eax
    be9a:	be ce ff ff ff       	mov    $0xffffffce,%esi
    be9f:	89 c7                	mov    %eax,%edi
    bea1:	e8 6c c3 ff ff       	callq  8212 <safe_mul_func_int8_t_s_s>
    bea6:	89 c2                	mov    %eax,%edx
    bea8:	48 8b 05 51 02 01 00 	mov    0x10251(%rip),%rax        # 1c100 <g_239>
    beaf:	48 0f be d2          	movsbq %dl,%rdx
    beb3:	48 89 10             	mov    %rdx,(%rax)
    beb6:	48 8b 00             	mov    (%rax),%rax
    beb9:	49 39 c5             	cmp    %rax,%r13
    bebc:	ba cb 58 cf f3       	mov    $0xf3cf58cb,%edx
    bec1:	48 8b 85 e0 d8 ff ff 	mov    -0x2720(%rbp),%rax
    bec8:	8b 00                	mov    (%rax),%eax
    beca:	31 c2                	xor    %eax,%edx
    becc:	48 8b 85 e0 d8 ff ff 	mov    -0x2720(%rbp),%rax
    bed3:	89 10                	mov    %edx,(%rax)
    bed5:	48 8b 85 e0 d8 ff ff 	mov    -0x2720(%rbp),%rax
    bedc:	8b 00                	mov    (%rax),%eax
    bede:	89 85 74 d6 ff ff    	mov    %eax,-0x298c(%rbp)
    bee4:	48 8b 85 b8 da ff ff 	mov    -0x2548(%rbp),%rax
    beeb:	48 39 85 48 d8 ff ff 	cmp    %rax,-0x27b8(%rbp)
    bef2:	0f 94 c0             	sete   %al
    bef5:	0f b6 d0             	movzbl %al,%edx
    bef8:	48 8b 85 e0 d8 ff ff 	mov    -0x2720(%rbp),%rax
    beff:	89 10                	mov    %edx,(%rax)
    bf01:	66 83 ad ec d5 ff ff 	subw   $0x1,-0x2a14(%rbp)
    bf08:	01 
    bf09:	8b 05 51 e1 00 00    	mov    0xe151(%rip),%eax        # 1a060 <g_159>
    bf0f:	83 c0 01             	add    $0x1,%eax
    bf12:	89 05 48 e1 00 00    	mov    %eax,0xe148(%rip)        # 1a060 <g_159>
    bf18:	8b 05 42 e1 00 00    	mov    0xe142(%rip),%eax        # 1a060 <g_159>
    bf1e:	83 f8 08             	cmp    $0x8,%eax
    bf21:	0f 87 a1 f9 ff ff    	ja     b8c8 <func_28+0x1a48>
    bf27:	c7 85 18 d6 ff ff 00 	movl   $0x0,-0x29e8(%rbp)
    bf2e:	00 00 00 
    bf31:	e9 c7 03 00 00       	jmpq   c2fd <func_28+0x247d>
    bf36:	48 c7 85 d0 d8 ff ff 	movq   $0x0,-0x2730(%rbp)
    bf3d:	00 00 00 00 
    bf41:	c7 85 70 d6 ff ff fd 	movl   $0xfffffffd,-0x2990(%rbp)
    bf48:	ff ff ff 
    bf4b:	c7 05 eb e4 00 00 00 	movl   $0x0,0xe4eb(%rip)        # 1a440 <g_879>
    bf52:	00 00 00 
    bf55:	e9 8d 03 00 00       	jmpq   c2e7 <func_28+0x2467>
    bf5a:	48 8d 05 4f 0a 01 00 	lea    0x10a4f(%rip),%rax        # 1c9b0 <g_1126>
    bf61:	48 89 85 70 e5 ff ff 	mov    %rax,-0x1a90(%rbp)
    bf68:	48 8d 05 41 0a 01 00 	lea    0x10a41(%rip),%rax        # 1c9b0 <g_1126>
    bf6f:	48 89 85 78 e5 ff ff 	mov    %rax,-0x1a88(%rbp)
    bf76:	48 8d 05 33 0a 01 00 	lea    0x10a33(%rip),%rax        # 1c9b0 <g_1126>
    bf7d:	48 89 85 80 e5 ff ff 	mov    %rax,-0x1a80(%rbp)
    bf84:	48 8d 05 25 0a 01 00 	lea    0x10a25(%rip),%rax        # 1c9b0 <g_1126>
    bf8b:	48 89 85 88 e5 ff ff 	mov    %rax,-0x1a78(%rbp)
    bf92:	48 8d 05 17 0a 01 00 	lea    0x10a17(%rip),%rax        # 1c9b0 <g_1126>
    bf99:	48 89 85 90 e5 ff ff 	mov    %rax,-0x1a70(%rbp)
    bfa0:	48 8d 05 09 0a 01 00 	lea    0x10a09(%rip),%rax        # 1c9b0 <g_1126>
    bfa7:	48 89 85 98 e5 ff ff 	mov    %rax,-0x1a68(%rbp)
    bfae:	48 8d 05 fb 09 01 00 	lea    0x109fb(%rip),%rax        # 1c9b0 <g_1126>
    bfb5:	48 89 85 a0 e5 ff ff 	mov    %rax,-0x1a60(%rbp)
    bfbc:	48 8d 05 ed 09 01 00 	lea    0x109ed(%rip),%rax        # 1c9b0 <g_1126>
    bfc3:	48 89 85 a8 e5 ff ff 	mov    %rax,-0x1a58(%rbp)
    bfca:	66 c7 05 1b e4 00 00 	movw   $0x0,0xe41b(%rip)        # 1a3ee <g_853>
    bfd1:	00 00 
    bfd3:	e9 67 01 00 00       	jmpq   c13f <func_28+0x22bf>
    bfd8:	8b 85 18 d6 ff ff    	mov    -0x29e8(%rbp),%eax
    bfde:	8d 50 03             	lea    0x3(%rax),%edx
    bfe1:	0f b7 05 06 e4 00 00 	movzwl 0xe406(%rip),%eax        # 1a3ee <g_853>
    bfe8:	0f bf c8             	movswl %ax,%ecx
    bfeb:	8b 85 18 d6 ff ff    	mov    -0x29e8(%rbp),%eax
    bff1:	44 8d 40 02          	lea    0x2(%rax),%r8d
    bff5:	48 8b 85 d0 d5 ff ff 	mov    -0x2a30(%rbp),%rax
    bffc:	48 8b 30             	mov    (%rax),%rsi
    bfff:	48 8d bd b0 e0 ff ff 	lea    -0x1f50(%rbp),%rdi
    c006:	4d 63 c0             	movslq %r8d,%r8
    c009:	48 63 d2             	movslq %edx,%rdx
    c00c:	48 89 d0             	mov    %rdx,%rax
    c00f:	48 c1 e0 03          	shl    $0x3,%rax
    c013:	48 01 d0             	add    %rdx,%rax
    c016:	48 01 c0             	add    %rax,%rax
    c019:	48 63 c9             	movslq %ecx,%rcx
    c01c:	48 89 ca             	mov    %rcx,%rdx
    c01f:	48 01 d2             	add    %rdx,%rdx
    c022:	48 01 ca             	add    %rcx,%rdx
    c025:	48 01 d0             	add    %rdx,%rax
    c028:	4c 01 c0             	add    %r8,%rax
    c02b:	48 c1 e0 02          	shl    $0x2,%rax
    c02f:	48 01 f8             	add    %rdi,%rax
    c032:	48 89 06             	mov    %rax,(%rsi)
    c035:	0f b7 05 b2 e3 00 00 	movzwl 0xe3b2(%rip),%eax        # 1a3ee <g_853>
    c03c:	98                   	cwtl   
    c03d:	8d 50 05             	lea    0x5(%rax),%edx
    c040:	0f b7 05 a7 e3 00 00 	movzwl 0xe3a7(%rip),%eax        # 1a3ee <g_853>
    c047:	98                   	cwtl   
    c048:	8d 48 03             	lea    0x3(%rax),%ecx
    c04b:	0f b7 05 9c e3 00 00 	movzwl 0xe39c(%rip),%eax        # 1a3ee <g_853>
    c052:	98                   	cwtl   
    c053:	83 c0 02             	add    $0x2,%eax
    c056:	48 63 f0             	movslq %eax,%rsi
    c059:	48 63 d2             	movslq %edx,%rdx
    c05c:	48 63 c9             	movslq %ecx,%rcx
    c05f:	48 89 d0             	mov    %rdx,%rax
    c062:	48 c1 e0 03          	shl    $0x3,%rax
    c066:	48 01 d0             	add    %rdx,%rax
    c069:	48 01 c0             	add    %rax,%rax
    c06c:	48 89 ca             	mov    %rcx,%rdx
    c06f:	48 01 d2             	add    %rdx,%rdx
    c072:	48 01 ca             	add    %rcx,%rdx
    c075:	48 01 d0             	add    %rdx,%rax
    c078:	48 01 f0             	add    %rsi,%rax
    c07b:	c7 84 85 b0 e0 ff ff 	movl   $0xfffffffc,-0x1f50(%rbp,%rax,4)
    c082:	fc ff ff ff 
    c086:	0f b7 05 61 e3 00 00 	movzwl 0xe361(%rip),%eax        # 1a3ee <g_853>
    c08d:	98                   	cwtl   
    c08e:	0f b7 15 59 e3 00 00 	movzwl 0xe359(%rip),%edx        # 1a3ee <g_853>
    c095:	0f bf d2             	movswl %dx,%edx
    c098:	8d 4a 04             	lea    0x4(%rdx),%ecx
    c09b:	8b 95 18 d6 ff ff    	mov    -0x29e8(%rbp),%edx
    c0a1:	83 c2 01             	add    $0x1,%edx
    c0a4:	48 63 f2             	movslq %edx,%rsi
    c0a7:	48 63 d0             	movslq %eax,%rdx
    c0aa:	48 63 c9             	movslq %ecx,%rcx
    c0ad:	48 89 d0             	mov    %rdx,%rax
    c0b0:	48 01 c0             	add    %rax,%rax
    c0b3:	48 01 d0             	add    %rdx,%rax
    c0b6:	48 8d 14 c5 00 00 00 	lea    0x0(,%rax,8),%rdx
    c0bd:	00 
    c0be:	48 01 d0             	add    %rdx,%rax
    c0c1:	48 89 ca             	mov    %rcx,%rdx
    c0c4:	48 01 d2             	add    %rdx,%rdx
    c0c7:	48 01 ca             	add    %rcx,%rdx
    c0ca:	48 01 d0             	add    %rdx,%rax
    c0cd:	48 01 f0             	add    %rsi,%rax
    c0d0:	48 8d 14 c5 00 00 00 	lea    0x0(,%rax,8),%rdx
    c0d7:	00 
    c0d8:	48 8d 05 a1 df 00 00 	lea    0xdfa1(%rip),%rax        # 1a080 <g_161>
    c0df:	48 8b 14 02          	mov    (%rdx,%rax,1),%rdx
    c0e3:	8b 05 57 e3 00 00    	mov    0xe357(%rip),%eax        # 1a440 <g_879>
    c0e9:	44 8d 40 05          	lea    0x5(%rax),%r8d
    c0ed:	0f b7 05 fa e2 00 00 	movzwl 0xe2fa(%rip),%eax        # 1a3ee <g_853>
    c0f4:	98                   	cwtl   
    c0f5:	8d 48 05             	lea    0x5(%rax),%ecx
    c0f8:	0f b7 05 ef e2 00 00 	movzwl 0xe2ef(%rip),%eax        # 1a3ee <g_853>
    c0ff:	98                   	cwtl   
    c100:	89 d7                	mov    %edx,%edi
    c102:	48 63 f0             	movslq %eax,%rsi
    c105:	44 89 c2             	mov    %r8d,%edx
    c108:	48 63 c9             	movslq %ecx,%rcx
    c10b:	48 89 d0             	mov    %rdx,%rax
    c10e:	48 c1 e0 03          	shl    $0x3,%rax
    c112:	48 01 d0             	add    %rdx,%rax
    c115:	48 01 c0             	add    %rax,%rax
    c118:	48 89 ca             	mov    %rcx,%rdx
    c11b:	48 01 d2             	add    %rdx,%rdx
    c11e:	48 01 ca             	add    %rcx,%rdx
    c121:	48 01 d0             	add    %rdx,%rax
    c124:	48 01 f0             	add    %rsi,%rax
    c127:	89 bc 85 b0 e0 ff ff 	mov    %edi,-0x1f50(%rbp,%rax,4)
    c12e:	0f b7 05 b9 e2 00 00 	movzwl 0xe2b9(%rip),%eax        # 1a3ee <g_853>
    c135:	83 e8 01             	sub    $0x1,%eax
    c138:	66 89 05 af e2 00 00 	mov    %ax,0xe2af(%rip)        # 1a3ee <g_853>
    c13f:	0f b7 05 a8 e2 00 00 	movzwl 0xe2a8(%rip),%eax        # 1a3ee <g_853>
    c146:	66 85 c0             	test   %ax,%ax
    c149:	0f 89 89 fe ff ff    	jns    bfd8 <func_28+0x2158>
    c14f:	8b 85 a4 dc ff ff    	mov    -0x235c(%rbp),%eax
    c155:	0f bf d8             	movswl %ax,%ebx
    c158:	48 8b 05 19 08 01 00 	mov    0x10819(%rip),%rax        # 1c978 <g_927>
    c15f:	48 8b 85 d8 d5 ff ff 	mov    -0x2a28(%rbp),%rax
    c166:	48 8b 00             	mov    (%rax),%rax
    c169:	8b 10                	mov    (%rax),%edx
    c16b:	48 8b 85 d8 d5 ff ff 	mov    -0x2a28(%rbp),%rax
    c172:	48 8b 00             	mov    (%rax),%rax
    c175:	23 95 70 d6 ff ff    	and    -0x2990(%rbp),%edx
    c17b:	89 10                	mov    %edx,(%rax)
    c17d:	8b 00                	mov    (%rax),%eax
    c17f:	85 c0                	test   %eax,%eax
    c181:	74 3b                	je     c1be <func_28+0x233e>
    c183:	0f b6 85 7b f8 ff ff 	movzbl -0x785(%rbp),%eax
    c18a:	48 0f be c0          	movsbq %al,%rax
    c18e:	48 89 c6             	mov    %rax,%rsi
    c191:	bf 00 00 00 00       	mov    $0x0,%edi
    c196:	e8 14 cf ff ff       	callq  90af <safe_div_func_uint64_t_u_u>
    c19b:	8b 85 70 d6 ff ff    	mov    -0x2990(%rbp),%eax
    c1a1:	98                   	cwtl   
    c1a2:	89 c6                	mov    %eax,%esi
    c1a4:	bf 87 dc ff ff       	mov    $0xffffdc87,%edi
    c1a9:	e8 47 c2 ff ff       	callq  83f5 <safe_mul_func_int16_t_s_s>
    c1ae:	0f b7 c0             	movzwl %ax,%eax
    c1b1:	89 c6                	mov    %eax,%esi
    c1b3:	bf ff ff 00 00       	mov    $0xffff,%edi
    c1b8:	e8 80 cb ff ff       	callq  8d3d <safe_mul_func_uint16_t_u_u>
    c1bd:	90                   	nop
    c1be:	48 8b 85 d0 d8 ff ff 	mov    -0x2730(%rbp),%rax
    c1c5:	48 89 05 c4 07 01 00 	mov    %rax,0x107c4(%rip)        # 1c990 <g_1104>
    c1cc:	48 8b 05 bd 07 01 00 	mov    0x107bd(%rip),%rax        # 1c990 <g_1104>
    c1d3:	48 89 85 90 d8 ff ff 	mov    %rax,-0x2770(%rbp)
    c1da:	48 83 bd 90 d8 ff ff 	cmpq   $0x0,-0x2770(%rbp)
    c1e1:	00 
    c1e2:	0f 94 c0             	sete   %al
    c1e5:	44 0f b6 e0          	movzbl %al,%r12d
    c1e9:	48 8b 05 60 07 01 00 	mov    0x10760(%rip),%rax        # 1c950 <g_874>
    c1f0:	48 8b 00             	mov    (%rax),%rax
    c1f3:	0f b7 00             	movzwl (%rax),%eax
    c1f6:	0f bf d0             	movswl %ax,%edx
    c1f9:	8b 85 04 d6 ff ff    	mov    -0x29fc(%rbp),%eax
    c1ff:	98                   	cwtl   
    c200:	89 d6                	mov    %edx,%esi
    c202:	89 c7                	mov    %eax,%edi
    c204:	e8 ec c1 ff ff       	callq  83f5 <safe_mul_func_int16_t_s_s>
    c209:	0f bf d0             	movswl %ax,%edx
    c20c:	48 8b 85 d8 d5 ff ff 	mov    -0x2a28(%rbp),%rax
    c213:	48 8b 00             	mov    (%rax),%rax
    c216:	8b 00                	mov    (%rax),%eax
    c218:	89 c1                	mov    %eax,%ecx
    c21a:	48 8b 05 cf fe 00 00 	mov    0xfecf(%rip),%rax        # 1c0f0 <g_198>
    c221:	8b 00                	mov    (%rax),%eax
    c223:	39 c1                	cmp    %eax,%ecx
    c225:	0f 96 c0             	setbe  %al
    c228:	0f b6 c0             	movzbl %al,%eax
    c22b:	39 c2                	cmp    %eax,%edx
    c22d:	0f 9f c0             	setg   %al
    c230:	0f b6 d0             	movzbl %al,%edx
    c233:	8b 05 9f a1 00 00    	mov    0xa19f(%rip),%eax        # 163d8 <l_1021.4263+0x18>
    c239:	39 c2                	cmp    %eax,%edx
    c23b:	0f 92 c0             	setb   %al
    c23e:	0f b6 c0             	movzbl %al,%eax
    c241:	41 39 c4             	cmp    %eax,%r12d
    c244:	0f 9c c0             	setl   %al
    c247:	0f b6 d0             	movzbl %al,%edx
    c24a:	48 8b 05 ef e6 00 00 	mov    0xe6ef(%rip),%rax        # 1a940 <g_1047+0x4e0>
    c251:	48 39 c2             	cmp    %rax,%rdx
    c254:	0f 9d c0             	setge  %al
    c257:	0f b6 c0             	movzbl %al,%eax
    c25a:	89 de                	mov    %ebx,%esi
    c25c:	89 c7                	mov    %eax,%edi
    c25e:	e8 70 c1 ff ff       	callq  83d3 <safe_sub_func_int16_t_s_s>
    c263:	66 85 c0             	test   %ax,%ax
    c266:	74 0c                	je     c274 <func_28+0x23f4>
    c268:	48 8b 05 31 07 01 00 	mov    0x10731(%rip),%rax        # 1c9a0 <g_1124>
    c26f:	e9 0c 4b 00 00       	jmpq   10d80 <func_28+0x6f00>
    c274:	48 8b 85 d0 d5 ff ff 	mov    -0x2a30(%rbp),%rax
    c27b:	48 8b 00             	mov    (%rax),%rax
    c27e:	48 8b 10             	mov    (%rax),%rdx
    c281:	48 8b 85 d8 d5 ff ff 	mov    -0x2a28(%rbp),%rax
    c288:	48 8b 00             	mov    (%rax),%rax
    c28b:	8b 12                	mov    (%rdx),%edx
    c28d:	89 10                	mov    %edx,(%rax)
    c28f:	48 8b 05 4a fe 00 00 	mov    0xfe4a(%rip),%rax        # 1c0e0 <g_16>
    c296:	8b 10                	mov    (%rax),%edx
    c298:	48 8b 05 41 fe 00 00 	mov    0xfe41(%rip),%rax        # 1c0e0 <g_16>
    c29f:	83 e2 01             	and    $0x1,%edx
    c2a2:	89 10                	mov    %edx,(%rax)
    c2a4:	48 8b 85 d0 d5 ff ff 	mov    -0x2a30(%rbp),%rax
    c2ab:	48 8b 00             	mov    (%rax),%rax
    c2ae:	48 8b 10             	mov    (%rax),%rdx
    c2b1:	48 8b 05 28 fe 00 00 	mov    0xfe28(%rip),%rax        # 1c0e0 <g_16>
    c2b8:	8b 12                	mov    (%rdx),%edx
    c2ba:	89 10                	mov    %edx,(%rax)
    c2bc:	48 8b 05 ed 06 01 00 	mov    0x106ed(%rip),%rax        # 1c9b0 <g_1126>
    c2c3:	48 89 85 a0 d8 ff ff 	mov    %rax,-0x2760(%rbp)
    c2ca:	48 8b 85 a0 d8 ff ff 	mov    -0x2760(%rbp),%rax
    c2d1:	48 89 05 d8 06 01 00 	mov    %rax,0x106d8(%rip)        # 1c9b0 <g_1126>
    c2d8:	8b 05 62 e1 00 00    	mov    0xe162(%rip),%eax        # 1a440 <g_879>
    c2de:	83 c0 01             	add    $0x1,%eax
    c2e1:	89 05 59 e1 00 00    	mov    %eax,0xe159(%rip)        # 1a440 <g_879>
    c2e7:	8b 05 53 e1 00 00    	mov    0xe153(%rip),%eax        # 1a440 <g_879>
    c2ed:	83 f8 02             	cmp    $0x2,%eax
    c2f0:	0f 86 64 fc ff ff    	jbe    bf5a <func_28+0x20da>
    c2f6:	83 85 18 d6 ff ff 01 	addl   $0x1,-0x29e8(%rbp)
    c2fd:	83 bd 18 d6 ff ff 00 	cmpl   $0x0,-0x29e8(%rbp)
    c304:	0f 8e 2c fc ff ff    	jle    bf36 <func_28+0x20b6>
    c30a:	48 8b 85 28 d7 ff ff 	mov    -0x28d8(%rbp),%rax
    c311:	89 c2                	mov    %eax,%edx
    c313:	48 8b 85 b0 d8 ff ff 	mov    -0x2750(%rbp),%rax
    c31a:	89 10                	mov    %edx,(%rax)
    c31c:	48 8b 85 b0 d8 ff ff 	mov    -0x2750(%rbp),%rax
    c323:	8b 10                	mov    (%rax),%edx
    c325:	48 8b 85 b8 d8 ff ff 	mov    -0x2748(%rbp),%rax
    c32c:	8b 00                	mov    (%rax),%eax
    c32e:	09 c2                	or     %eax,%edx
    c330:	48 8b 85 b8 d8 ff ff 	mov    -0x2748(%rbp),%rax
    c337:	89 10                	mov    %edx,(%rax)
    c339:	8b 05 a5 a0 00 00    	mov    0xa0a5(%rip),%eax        # 163e4 <l_1021.4263+0x24>
    c33f:	89 c2                	mov    %eax,%edx
    c341:	48 8b 05 10 06 01 00 	mov    0x10610(%rip),%rax        # 1c958 <g_875>
    c348:	48 8b 00             	mov    (%rax),%rax
    c34b:	0f b7 00             	movzwl (%rax),%eax
    c34e:	0f b7 c0             	movzwl %ax,%eax
    c351:	89 d6                	mov    %edx,%esi
    c353:	89 c7                	mov    %eax,%edi
    c355:	e8 ee ca ff ff       	callq  8e48 <safe_rshift_func_uint16_t_u_s>
    c35a:	0f b7 d0             	movzwl %ax,%edx
    c35d:	48 8b 05 34 06 01 00 	mov    0x10634(%rip),%rax        # 1c998 <g_1125>
    c364:	8b 00                	mov    (%rax),%eax
    c366:	39 c2                	cmp    %eax,%edx
    c368:	40 0f 94 c6          	sete   %sil
    c36c:	48 8b 85 98 d8 ff ff 	mov    -0x2768(%rbp),%rax
    c373:	48 8b 00             	mov    (%rax),%rax
    c376:	8b 00                	mov    (%rax),%eax
    c378:	89 c2                	mov    %eax,%edx
    c37a:	0f b6 05 67 e0 00 00 	movzbl 0xe067(%rip),%eax        # 1a3e8 <g_719>
    c381:	21 d0                	and    %edx,%eax
    c383:	88 05 5f e0 00 00    	mov    %al,0xe05f(%rip)        # 1a3e8 <g_719>
    c389:	0f b6 05 58 e0 00 00 	movzbl 0xe058(%rip),%eax        # 1a3e8 <g_719>
    c390:	0f b6 d0             	movzbl %al,%edx
    c393:	0f b7 8d ec d5 ff ff 	movzwl -0x2a14(%rbp),%ecx
    c39a:	8b 85 08 d6 ff ff    	mov    -0x29f8(%rbp),%eax
    c3a0:	21 c8                	and    %ecx,%eax
    c3a2:	89 85 08 d6 ff ff    	mov    %eax,-0x29f8(%rbp)
    c3a8:	8b 85 08 d6 ff ff    	mov    -0x29f8(%rbp),%eax
    c3ae:	39 c2                	cmp    %eax,%edx
    c3b0:	0f 9f c0             	setg   %al
    c3b3:	0f b6 d0             	movzbl %al,%edx
    c3b6:	8b 05 80 a0 00 00    	mov    0xa080(%rip),%eax        # 1643c <l_1021.4263+0x7c>
    c3bc:	39 c2                	cmp    %eax,%edx
    c3be:	0f 94 c0             	sete   %al
    c3c1:	09 f0                	or     %esi,%eax
    c3c3:	0f b6 d8             	movzbl %al,%ebx
    c3c6:	48 8b 85 28 d7 ff ff 	mov    -0x28d8(%rbp),%rax
    c3cd:	0f b7 d0             	movzwl %ax,%edx
    c3d0:	8b 05 2e a0 00 00    	mov    0xa02e(%rip),%eax        # 16404 <l_1021.4263+0x44>
    c3d6:	3d 76 e9 00 00       	cmp    $0xe976,%eax
    c3db:	0f 94 c0             	sete   %al
    c3de:	0f b6 c0             	movzbl %al,%eax
    c3e1:	89 d6                	mov    %edx,%esi
    c3e3:	89 c7                	mov    %eax,%edi
    c3e5:	e8 15 c9 ff ff       	callq  8cff <safe_add_func_uint16_t_u_u>
    c3ea:	0f b7 c0             	movzwl %ax,%eax
    c3ed:	48 be 0b 84 11 e7 fc 	movabs $0x923cd6fce711840b,%rsi
    c3f4:	d6 3c 92 
    c3f7:	48 89 c7             	mov    %rax,%rdi
    c3fa:	e8 42 c4 ff ff       	callq  8841 <safe_add_func_int64_t_s_s>
    c3ff:	8b 85 9c e2 ff ff    	mov    -0x1d64(%rbp),%eax
    c405:	85 c0                	test   %eax,%eax
    c407:	74 0c                	je     c415 <func_28+0x2595>
    c409:	48 8b 85 28 d7 ff ff 	mov    -0x28d8(%rbp),%rax
    c410:	48 85 c0             	test   %rax,%rax
    c413:	75 0a                	jne    c41f <func_28+0x259f>
    c415:	8b 05 59 e7 00 00    	mov    0xe759(%rip),%eax        # 1ab74 <g_1141>
    c41b:	85 c0                	test   %eax,%eax
    c41d:	74 07                	je     c426 <func_28+0x25a6>
    c41f:	b8 01 00 00 00       	mov    $0x1,%eax
    c424:	eb 05                	jmp    c42b <func_28+0x25ab>
    c426:	b8 00 00 00 00       	mov    $0x0,%eax
    c42b:	85 c0                	test   %eax,%eax
    c42d:	0f 94 c0             	sete   %al
    c430:	0f b6 c0             	movzbl %al,%eax
    c433:	39 c3                	cmp    %eax,%ebx
    c435:	7f 0c                	jg     c443 <func_28+0x25c3>
    c437:	48 b8 67 fa 73 5a 0c 	movabs $0x4891970c5a73fa67,%rax
    c43e:	97 91 48 
    c441:	eb 0a                	jmp    c44d <func_28+0x25cd>
    c443:	48 b8 66 fa 73 5a 0c 	movabs $0x4891970c5a73fa66,%rax
    c44a:	97 91 48 
    c44d:	48 8b 95 c0 d8 ff ff 	mov    -0x2740(%rbp),%rdx
    c454:	8b 12                	mov    (%rdx),%edx
    c456:	31 c2                	xor    %eax,%edx
    c458:	48 8b 85 c0 d8 ff ff 	mov    -0x2740(%rbp),%rax
    c45f:	89 10                	mov    %edx,(%rax)
    c461:	48 8b 05 58 05 01 00 	mov    0x10558(%rip),%rax        # 1c9c0 <g_1144>
    c468:	48 8b 95 c8 d8 ff ff 	mov    -0x2738(%rbp),%rdx
    c46f:	48 89 10             	mov    %rdx,(%rax)
    c472:	eb 0d                	jmp    c481 <func_28+0x2601>
    c474:	48 8b 05 65 fc 00 00 	mov    0xfc65(%rip),%rax        # 1c0e0 <g_16>
    c47b:	c7 00 cf d8 58 a3    	movl   $0xa358d8cf,(%rax)
    c481:	8b 9d 64 d6 ff ff    	mov    -0x299c(%rbp),%ebx
    c487:	0f b7 95 ec d5 ff ff 	movzwl -0x2a14(%rbp),%edx
    c48e:	8b 85 a4 dc ff ff    	mov    -0x235c(%rbp),%eax
    c494:	0f b7 c0             	movzwl %ax,%eax
    c497:	89 d6                	mov    %edx,%esi
    c499:	89 c7                	mov    %eax,%edi
    c49b:	e8 9d c8 ff ff       	callq  8d3d <safe_mul_func_uint16_t_u_u>
    c4a0:	66 89 85 f2 d5 ff ff 	mov    %ax,-0x2a0e(%rbp)
    c4a7:	8b 85 a4 dc ff ff    	mov    -0x235c(%rbp),%eax
    c4ad:	83 f8 01             	cmp    $0x1,%eax
    c4b0:	0f 94 c0             	sete   %al
    c4b3:	0f b6 c0             	movzbl %al,%eax
    c4b6:	be 03 00 00 00       	mov    $0x3,%esi
    c4bb:	89 c7                	mov    %eax,%edi
    c4bd:	e8 43 c7 ff ff       	callq  8c05 <safe_lshift_func_uint8_t_u_s>
    c4c2:	84 c0                	test   %al,%al
    c4c4:	74 11                	je     c4d7 <func_28+0x2657>
    c4c6:	8b 85 a4 dc ff ff    	mov    -0x235c(%rbp),%eax
    c4cc:	85 c0                	test   %eax,%eax
    c4ce:	74 07                	je     c4d7 <func_28+0x2657>
    c4d0:	b8 01 00 00 00       	mov    $0x1,%eax
    c4d5:	eb 05                	jmp    c4dc <func_28+0x265c>
    c4d7:	b8 00 00 00 00       	mov    $0x0,%eax
    c4dc:	48 98                	cltq   
    c4de:	48 0b 85 e8 d7 ff ff 	or     -0x2818(%rbp),%rax
    c4e5:	48 89 de             	mov    %rbx,%rsi
    c4e8:	48 89 c7             	mov    %rax,%rdi
    c4eb:	e8 bf cb ff ff       	callq  90af <safe_div_func_uint64_t_u_u>
    c4f0:	0f b7 d0             	movzwl %ax,%edx
    c4f3:	0f b7 05 f2 de 00 00 	movzwl 0xdef2(%rip),%eax        # 1a3ec <g_850>
    c4fa:	48 0f bf c8          	movswq %ax,%rcx
    c4fe:	48 8b 05 fb fb 00 00 	mov    0xfbfb(%rip),%rax        # 1c100 <g_239>
    c505:	48 8b 00             	mov    (%rax),%rax
    c508:	48 09 c8             	or     %rcx,%rax
    c50b:	48 85 c0             	test   %rax,%rax
    c50e:	75 16                	jne    c526 <func_28+0x26a6>
    c510:	48 8b 05 29 db 00 00 	mov    0xdb29(%rip),%rax        # 1a040 <g_81>
    c517:	48 89 c1             	mov    %rax,%rcx
    c51a:	48 8b 85 28 d7 ff ff 	mov    -0x28d8(%rbp),%rax
    c521:	48 39 c1             	cmp    %rax,%rcx
    c524:	76 07                	jbe    c52d <func_28+0x26ad>
    c526:	b8 01 00 00 00       	mov    $0x1,%eax
    c52b:	eb 05                	jmp    c532 <func_28+0x26b2>
    c52d:	b8 00 00 00 00       	mov    $0x0,%eax
    c532:	89 85 08 d6 ff ff    	mov    %eax,-0x29f8(%rbp)
    c538:	48 8b 05 01 04 01 00 	mov    0x10401(%rip),%rax        # 1c940 <g_873>
    c53f:	0f b7 30             	movzwl (%rax),%esi
    c542:	48 8b 85 68 d7 ff ff 	mov    -0x2898(%rbp),%rax
    c549:	0f b7 08             	movzwl (%rax),%ecx
    c54c:	48 8b 85 68 d7 ff ff 	mov    -0x2898(%rbp),%rax
    c553:	09 f1                	or     %esi,%ecx
    c555:	66 89 08             	mov    %cx,(%rax)
    c558:	0f b7 00             	movzwl (%rax),%eax
    c55b:	0f b7 c0             	movzwl %ax,%eax
    c55e:	89 d6                	mov    %edx,%esi
    c560:	89 c7                	mov    %eax,%edi
    c562:	e8 d6 c7 ff ff       	callq  8d3d <safe_mul_func_uint16_t_u_u>
    c567:	0f b7 05 7e de 00 00 	movzwl 0xde7e(%rip),%eax        # 1a3ec <g_850>
    c56e:	66 85 c0             	test   %ax,%ax
    c571:	74 09                	je     c57c <func_28+0x26fc>
    c573:	0f b6 05 96 dd 00 00 	movzbl 0xdd96(%rip),%eax        # 1a310 <g_640>
    c57a:	84 c0                	test   %al,%al
    c57c:	48 8b 05 5d fb 00 00 	mov    0xfb5d(%rip),%rax        # 1c0e0 <g_16>
    c583:	8b 10                	mov    (%rax),%edx
    c585:	48 8b 05 54 fb 00 00 	mov    0xfb54(%rip),%rax        # 1c0e0 <g_16>
    c58c:	83 f2 01             	xor    $0x1,%edx
    c58f:	89 10                	mov    %edx,(%rax)
    c591:	8b 10                	mov    (%rax),%edx
    c593:	48 8b 85 40 d8 ff ff 	mov    -0x27c0(%rbp),%rax
    c59a:	b9 00 00 00 00       	mov    $0x0,%ecx
    c59f:	48 89 c6             	mov    %rax,%rsi
    c5a2:	48 8d 3d ef 03 01 00 	lea    0x103ef(%rip),%rdi        # 1c998 <g_1125>
    c5a9:	e8 74 52 00 00       	callq  11822 <func_37>
    c5ae:	48 89 85 50 d8 ff ff 	mov    %rax,-0x27b0(%rbp)
    c5b5:	8b 95 a4 dc ff ff    	mov    -0x235c(%rbp),%edx
    c5bb:	8b 85 a4 dc ff ff    	mov    -0x235c(%rbp),%eax
    c5c1:	89 d6                	mov    %edx,%esi
    c5c3:	89 c7                	mov    %eax,%edi
    c5c5:	e8 02 c1 ff ff       	callq  86cc <safe_mod_func_int32_t_s_s>
    c5ca:	85 c0                	test   %eax,%eax
    c5cc:	0f 84 af 00 00 00    	je     c681 <func_28+0x2801>
    c5d2:	66 c7 85 70 e5 ff ff 	movw   $0x7,-0x1a90(%rbp)
    c5d9:	07 00 
    c5db:	66 c7 85 72 e5 ff ff 	movw   $0x7,-0x1a8e(%rbp)
    c5e2:	07 00 
    c5e4:	66 c7 85 74 e5 ff ff 	movw   $0x7,-0x1a8c(%rbp)
    c5eb:	07 00 
    c5ed:	66 c7 85 76 e5 ff ff 	movw   $0x7,-0x1a8a(%rbp)
    c5f4:	07 00 
    c5f6:	66 c7 85 78 e5 ff ff 	movw   $0x7,-0x1a88(%rbp)
    c5fd:	07 00 
    c5ff:	66 c7 85 7a e5 ff ff 	movw   $0x7,-0x1a86(%rbp)
    c606:	07 00 
    c608:	66 c7 85 7c e5 ff ff 	movw   $0x7,-0x1a84(%rbp)
    c60f:	07 00 
    c611:	66 c7 85 7e e5 ff ff 	movw   $0x7,-0x1a82(%rbp)
    c618:	07 00 
    c61a:	c7 85 cc d6 ff ff ff 	movl   $0xffffffff,-0x2934(%rbp)
    c621:	ff ff ff 
    c624:	c7 85 d0 d6 ff ff 35 	movl   $0x57aa635,-0x2930(%rbp)
    c62b:	a6 7a 05 
    c62e:	c7 85 d4 d6 ff ff 01 	movl   $0x1,-0x292c(%rbp)
    c635:	00 00 00 
    c638:	c7 85 e0 f7 ff ff 05 	movl   $0x5,-0x820(%rbp)
    c63f:	00 00 00 
    c642:	c7 85 e4 f7 ff ff 00 	movl   $0x0,-0x81c(%rbp)
    c649:	00 00 00 
    c64c:	c7 85 e8 f7 ff ff 00 	movl   $0x0,-0x818(%rbp)
    c653:	00 00 00 
    c656:	c7 85 ec f7 ff ff 05 	movl   $0x5,-0x814(%rbp)
    c65d:	00 00 00 
    c660:	c7 85 f0 f7 ff ff 00 	movl   $0x0,-0x810(%rbp)
    c667:	00 00 00 
    c66a:	c7 85 f4 f7 ff ff 00 	movl   $0x0,-0x80c(%rbp)
    c671:	00 00 00 
    c674:	48 83 85 58 d8 ff ff 	addq   $0x1,-0x27a8(%rbp)
    c67b:	01 
    c67c:	e9 e4 30 00 00       	jmpq   f765 <func_28+0x58e5>
    c681:	48 8d 05 b8 02 01 00 	lea    0x102b8(%rip),%rax        # 1c940 <g_873>
    c688:	48 89 85 a0 d7 ff ff 	mov    %rax,-0x2860(%rbp)
    c68f:	c7 85 28 d6 ff ff 05 	movl   $0x5,-0x29d8(%rbp)
    c696:	00 00 00 
    c699:	c7 85 78 d6 ff ff 8d 	movl   $0x96087f8d,-0x2988(%rbp)
    c6a0:	7f 08 96 
    c6a3:	c7 85 7c d6 ff ff 88 	movl   $0x855f1488,-0x2984(%rbp)
    c6aa:	14 5f 85 
    c6ad:	48 8d 05 9c 02 01 00 	lea    0x1029c(%rip),%rax        # 1c950 <g_874>
    c6b4:	48 89 85 a8 d7 ff ff 	mov    %rax,-0x2858(%rbp)
    c6bb:	48 8d 85 a8 d7 ff ff 	lea    -0x2858(%rbp),%rax
    c6c2:	48 89 85 b0 d7 ff ff 	mov    %rax,-0x2850(%rbp)
    c6c9:	c7 85 80 d6 ff ff 56 	movl   $0xd3a38456,-0x2980(%rbp)
    c6d0:	84 a3 d3 
    c6d3:	c7 85 84 d6 ff ff eb 	movl   $0xff897aeb,-0x297c(%rbp)
    c6da:	7a 89 ff 
    c6dd:	c7 85 88 d6 ff ff 85 	movl   $0xb82a8e85,-0x2978(%rbp)
    c6e4:	8e 2a b8 
    c6e7:	c7 85 8c d6 ff ff ba 	movl   $0xaec5daba,-0x2974(%rbp)
    c6ee:	da c5 ae 
    c6f1:	c7 85 90 d6 ff ff 00 	movl   $0x0,-0x2970(%rbp)
    c6f8:	00 00 00 
    c6fb:	48 c7 85 00 db ff ff 	movq   $0x6,-0x2500(%rbp)
    c702:	06 00 00 00 
    c706:	48 c7 85 08 db ff ff 	movq   $0x6,-0x24f8(%rbp)
    c70d:	06 00 00 00 
    c711:	48 c7 85 10 db ff ff 	movq   $0x6,-0x24f0(%rbp)
    c718:	06 00 00 00 
    c71c:	48 c7 85 18 db ff ff 	movq   $0x6,-0x24e8(%rbp)
    c723:	06 00 00 00 
    c727:	48 b8 ea c4 b6 51 51 	movabs $0xf73765151b6c4ea,%rax
    c72e:	76 73 0f 
    c731:	48 89 85 28 d9 ff ff 	mov    %rax,-0x26d8(%rbp)
    c738:	66 c7 85 f6 d5 ff ff 	movw   $0x9,-0x2a0a(%rbp)
    c73f:	09 00 
    c741:	c6 85 e7 d5 ff ff e9 	movb   $0xe9,-0x2a19(%rbp)
    c748:	48 8d 05 d1 f9 00 00 	lea    0xf9d1(%rip),%rax        # 1c120 <g_283>
    c74f:	48 89 85 b8 d7 ff ff 	mov    %rax,-0x2848(%rbp)
    c756:	48 8d 85 b8 d7 ff ff 	lea    -0x2848(%rbp),%rax
    c75d:	48 89 85 c0 d7 ff ff 	mov    %rax,-0x2840(%rbp)
    c764:	c7 85 94 d6 ff ff 00 	movl   $0x0,-0x296c(%rbp)
    c76b:	00 00 00 
    c76e:	c7 85 2c d6 ff ff 00 	movl   $0x0,-0x29d4(%rbp)
    c775:	00 00 00 
    c778:	eb 1e                	jmp    c798 <func_28+0x2918>
    c77a:	8b 85 2c d6 ff ff    	mov    -0x29d4(%rbp),%eax
    c780:	48 98                	cltq   
    c782:	48 8d 15 bb dc 00 00 	lea    0xdcbb(%rip),%rdx        # 1a444 <g_979>
    c789:	48 89 94 c5 20 db ff 	mov    %rdx,-0x24e0(%rbp,%rax,8)
    c790:	ff 
    c791:	83 85 2c d6 ff ff 01 	addl   $0x1,-0x29d4(%rbp)
    c798:	83 bd 2c d6 ff ff 04 	cmpl   $0x4,-0x29d4(%rbp)
    c79f:	7e d9                	jle    c77a <func_28+0x28fa>
    c7a1:	c7 85 2c d6 ff ff 00 	movl   $0x0,-0x29d4(%rbp)
    c7a8:	00 00 00 
    c7ab:	eb 1a                	jmp    c7c7 <func_28+0x2947>
    c7ad:	8b 85 2c d6 ff ff    	mov    -0x29d4(%rbp),%eax
    c7b3:	48 98                	cltq   
    c7b5:	c7 84 85 c0 da ff ff 	movl   $0xfffffff6,-0x2540(%rbp,%rax,4)
    c7bc:	f6 ff ff ff 
    c7c0:	83 85 2c d6 ff ff 01 	addl   $0x1,-0x29d4(%rbp)
    c7c7:	83 bd 2c d6 ff ff 04 	cmpl   $0x4,-0x29d4(%rbp)
    c7ce:	7e dd                	jle    c7ad <func_28+0x292d>
    c7d0:	c7 85 2c d6 ff ff 00 	movl   $0x0,-0x29d4(%rbp)
    c7d7:	00 00 00 
    c7da:	eb 47                	jmp    c823 <func_28+0x29a3>
    c7dc:	c7 85 30 d6 ff ff 00 	movl   $0x0,-0x29d0(%rbp)
    c7e3:	00 00 00 
    c7e6:	eb 2b                	jmp    c813 <func_28+0x2993>
    c7e8:	8b 85 30 d6 ff ff    	mov    -0x29d0(%rbp),%eax
    c7ee:	48 98                	cltq   
    c7f0:	8b 95 2c d6 ff ff    	mov    -0x29d4(%rbp),%edx
    c7f6:	48 63 d2             	movslq %edx,%rdx
    c7f9:	48 c1 e2 02          	shl    $0x2,%rdx
    c7fd:	48 01 d0             	add    %rdx,%rax
    c800:	48 c7 84 c5 d0 db ff 	movq   $0x0,-0x2430(%rbp,%rax,8)
    c807:	ff 00 00 00 00 
    c80c:	83 85 30 d6 ff ff 01 	addl   $0x1,-0x29d0(%rbp)
    c813:	83 bd 30 d6 ff ff 03 	cmpl   $0x3,-0x29d0(%rbp)
    c81a:	7e cc                	jle    c7e8 <func_28+0x2968>
    c81c:	83 85 2c d6 ff ff 01 	addl   $0x1,-0x29d4(%rbp)
    c823:	83 bd 2c d6 ff ff 01 	cmpl   $0x1,-0x29d4(%rbp)
    c82a:	7e b0                	jle    c7dc <func_28+0x295c>
    c82c:	c6 05 15 d8 00 00 00 	movb   $0x0,0xd815(%rip)        # 1a048 <g_121>
    c833:	e9 dd 06 00 00       	jmpq   cf15 <func_28+0x3095>
    c838:	c7 85 c4 d6 ff ff fa 	movl   $0xc91e87fa,-0x293c(%rbp)
    c83f:	87 1e c9 
    c842:	c7 85 c8 d6 ff ff 00 	movl   $0x0,-0x2938(%rbp)
    c849:	00 00 00 
    c84c:	48 8d 05 ed d7 00 00 	lea    0xd7ed(%rip),%rax        # 1a040 <g_81>
    c853:	48 89 85 a8 d9 ff ff 	mov    %rax,-0x2658(%rbp)
    c85a:	48 8d 85 b0 d7 ff ff 	lea    -0x2850(%rbp),%rax
    c861:	48 89 85 b0 d9 ff ff 	mov    %rax,-0x2650(%rbp)
    c868:	48 8d 85 e0 f7 ff ff 	lea    -0x820(%rbp),%rax
    c86f:	48 8d 15 2a 8b 00 00 	lea    0x8b2a(%rip),%rdx        # 153a0 <g_182+0x34c>
    c876:	b9 36 00 00 00       	mov    $0x36,%ecx
    c87b:	48 89 c7             	mov    %rax,%rdi
    c87e:	48 89 d6             	mov    %rdx,%rsi
    c881:	f3 48 a5             	rep movsq %ds:(%rsi),%es:(%rdi)
    c884:	48 8d 05 6d da 00 00 	lea    0xda6d(%rip),%rax        # 1a2f8 <g_346>
    c88b:	48 89 85 b8 d9 ff ff 	mov    %rax,-0x2648(%rbp)
    c892:	48 8d 05 6f f8 00 00 	lea    0xf86f(%rip),%rax        # 1c108 <g_270>
    c899:	48 89 85 c0 d9 ff ff 	mov    %rax,-0x2640(%rbp)
    c8a0:	48 8d 85 28 d7 ff ff 	lea    -0x28d8(%rbp),%rax
    c8a7:	48 89 85 c8 d9 ff ff 	mov    %rax,-0x2638(%rbp)
    c8ae:	48 8d 05 5b f8 00 00 	lea    0xf85b(%rip),%rax        # 1c110 <g_269>
    c8b5:	48 89 85 60 d8 ff ff 	mov    %rax,-0x27a0(%rbp)
    c8bc:	48 8b 85 50 d8 ff ff 	mov    -0x27b0(%rbp),%rax
    c8c3:	8b 00                	mov    (%rax),%eax
    c8c5:	85 c0                	test   %eax,%eax
    c8c7:	0f 84 46 01 00 00    	je     ca13 <func_28+0x2b93>
    c8cd:	48 c7 85 f0 d9 ff ff 	movq   $0xffffffffffffffff,-0x2610(%rbp)
    c8d4:	ff ff ff ff 
    c8d8:	48 8b 05 d1 00 01 00 	mov    0x100d1(%rip),%rax        # 1c9b0 <g_1126>
    c8df:	48 8b 00             	mov    (%rax),%rax
    c8e2:	48 8b 00             	mov    (%rax),%rax
    c8e5:	0f b7 00             	movzwl (%rax),%eax
    c8e8:	0f b7 d8             	movzwl %ax,%ebx
    c8eb:	48 8b 85 28 d7 ff ff 	mov    -0x28d8(%rbp),%rax
    c8f2:	89 c2                	mov    %eax,%edx
    c8f4:	8b 85 28 d6 ff ff    	mov    -0x29d8(%rbp),%eax
    c8fa:	39 85 c4 d6 ff ff    	cmp    %eax,-0x293c(%rbp)
    c900:	0f 92 c0             	setb   %al
    c903:	0f b6 c0             	movzbl %al,%eax
    c906:	89 d6                	mov    %edx,%esi
    c908:	89 c7                	mov    %eax,%edi
    c90a:	e8 af c3 ff ff       	callq  8cbe <safe_rshift_func_uint8_t_u_u>
    c90f:	48 8b 85 50 d8 ff ff 	mov    -0x27b0(%rbp),%rax
    c916:	8b 00                	mov    (%rax),%eax
    c918:	98                   	cwtl   
    c919:	be 03 00 00 00       	mov    $0x3,%esi
    c91e:	89 c7                	mov    %eax,%edi
    c920:	e8 3e bc ff ff       	callq  8563 <safe_rshift_func_int16_t_s_u>
    c925:	66 85 c0             	test   %ax,%ax
    c928:	48 83 bd f0 d9 ff ff 	cmpq   $0x0,-0x2610(%rbp)
    c92f:	00 
    c930:	0f 95 c0             	setne  %al
    c933:	0f b6 c0             	movzbl %al,%eax
    c936:	89 de                	mov    %ebx,%esi
    c938:	89 c7                	mov    %eax,%edi
    c93a:	e8 4f c4 ff ff       	callq  8d8e <safe_div_func_uint16_t_u_u>
    c93f:	66 35 5a 69          	xor    $0x695a,%ax
    c943:	0f b7 d0             	movzwl %ax,%edx
    c946:	8b 85 28 d6 ff ff    	mov    -0x29d8(%rbp),%eax
    c94c:	48 98                	cltq   
    c94e:	48 21 c2             	and    %rax,%rdx
    c951:	49 89 d4             	mov    %rdx,%r12
    c954:	44 8b ad a4 dc ff ff 	mov    -0x235c(%rbp),%r13d
    c95b:	8b 85 28 d6 ff ff    	mov    -0x29d8(%rbp),%eax
    c961:	0f bf d8             	movswl %ax,%ebx
    c964:	0f b6 05 cd d6 00 00 	movzbl 0xd6cd(%rip),%eax        # 1a038 <g_73>
    c96b:	44 0f be f0          	movsbl %al,%r14d
    c96f:	48 8b 05 72 f7 00 00 	mov    0xf772(%rip),%rax        # 1c0e8 <g_15>
    c976:	48 8b 00             	mov    (%rax),%rax
    c979:	44 8b 38             	mov    (%rax),%r15d
    c97c:	be 07 00 00 00       	mov    $0x7,%esi
    c981:	bf 01 00 00 00       	mov    $0x1,%edi
    c986:	e8 7a c2 ff ff       	callq  8c05 <safe_lshift_func_uint8_t_u_s>
    c98b:	0f b6 c0             	movzbl %al,%eax
    c98e:	41 39 c7             	cmp    %eax,%r15d
    c991:	0f 94 c0             	sete   %al
    c994:	0f b6 c0             	movzbl %al,%eax
    c997:	44 09 f0             	or     %r14d,%eax
    c99a:	89 85 04 d6 ff ff    	mov    %eax,-0x29fc(%rbp)
    c9a0:	8b 85 04 d6 ff ff    	mov    -0x29fc(%rbp),%eax
    c9a6:	98                   	cwtl   
    c9a7:	89 de                	mov    %ebx,%esi
    c9a9:	89 c7                	mov    %eax,%edi
    c9ab:	e8 03 ba ff ff       	callq  83b3 <safe_add_func_int16_t_s_s>
    c9b0:	98                   	cwtl   
    c9b1:	41 39 c5             	cmp    %eax,%r13d
    c9b4:	0f 94 c0             	sete   %al
    c9b7:	0f b6 d0             	movzbl %al,%edx
    c9ba:	48 8b 05 3f f7 00 00 	mov    0xf73f(%rip),%rax        # 1c100 <g_239>
    c9c1:	48 8b 08             	mov    (%rax),%rcx
    c9c4:	48 63 d2             	movslq %edx,%rdx
    c9c7:	48 8b 05 32 f7 00 00 	mov    0xf732(%rip),%rax        # 1c100 <g_239>
    c9ce:	48 31 ca             	xor    %rcx,%rdx
    c9d1:	48 89 10             	mov    %rdx,(%rax)
    c9d4:	48 8b 00             	mov    (%rax),%rax
    c9d7:	4c 89 e6             	mov    %r12,%rsi
    c9da:	48 89 c7             	mov    %rax,%rdi
    c9dd:	e8 15 c0 ff ff       	callq  89f7 <safe_div_func_int64_t_s_s>
    c9e2:	89 85 78 d6 ff ff    	mov    %eax,-0x2988(%rbp)
    c9e8:	48 8b 85 d8 d5 ff ff 	mov    -0x2a28(%rbp),%rax
    c9ef:	48 8b 00             	mov    (%rax),%rax
    c9f2:	8b 95 78 d6 ff ff    	mov    -0x2988(%rbp),%edx
    c9f8:	89 10                	mov    %edx,(%rax)
    c9fa:	83 bd 64 d6 ff ff 00 	cmpl   $0x0,-0x299c(%rbp)
    ca01:	0f 85 5b 2b 00 00    	jne    f562 <func_28+0x56e2>
    ca07:	48 8d 05 8a ff 00 00 	lea    0xff8a(%rip),%rax        # 1c998 <g_1125>
    ca0e:	e9 6d 43 00 00       	jmpq   10d80 <func_28+0x6f00>
    ca13:	48 c7 85 d0 d9 ff ff 	movq   $0xffffffffffffffff,-0x2630(%rbp)
    ca1a:	ff ff ff ff 
    ca1e:	48 8d 05 1f da 00 00 	lea    0xda1f(%rip),%rax        # 1a444 <g_979>
    ca25:	48 89 85 70 e5 ff ff 	mov    %rax,-0x1a90(%rbp)
    ca2c:	48 8d 05 11 da 00 00 	lea    0xda11(%rip),%rax        # 1a444 <g_979>
    ca33:	48 89 85 78 e5 ff ff 	mov    %rax,-0x1a88(%rbp)
    ca3a:	48 8d 05 03 da 00 00 	lea    0xda03(%rip),%rax        # 1a444 <g_979>
    ca41:	48 89 85 80 e5 ff ff 	mov    %rax,-0x1a80(%rbp)
    ca48:	48 c7 85 88 e5 ff ff 	movq   $0x0,-0x1a78(%rbp)
    ca4f:	00 00 00 00 
    ca53:	48 8d 05 ea d9 00 00 	lea    0xd9ea(%rip),%rax        # 1a444 <g_979>
    ca5a:	48 89 85 90 e5 ff ff 	mov    %rax,-0x1a70(%rbp)
    ca61:	48 8d 05 dc d9 00 00 	lea    0xd9dc(%rip),%rax        # 1a444 <g_979>
    ca68:	48 89 85 98 e5 ff ff 	mov    %rax,-0x1a68(%rbp)
    ca6f:	48 8d 05 ce d9 00 00 	lea    0xd9ce(%rip),%rax        # 1a444 <g_979>
    ca76:	48 89 85 a0 e5 ff ff 	mov    %rax,-0x1a60(%rbp)
    ca7d:	48 8d 05 c0 d9 00 00 	lea    0xd9c0(%rip),%rax        # 1a444 <g_979>
    ca84:	48 89 85 a8 e5 ff ff 	mov    %rax,-0x1a58(%rbp)
    ca8b:	48 8d 05 b2 d9 00 00 	lea    0xd9b2(%rip),%rax        # 1a444 <g_979>
    ca92:	48 89 85 b0 e5 ff ff 	mov    %rax,-0x1a50(%rbp)
    ca99:	48 c7 85 b8 e5 ff ff 	movq   $0x0,-0x1a48(%rbp)
    caa0:	00 00 00 00 
    caa4:	48 8d 05 99 d9 00 00 	lea    0xd999(%rip),%rax        # 1a444 <g_979>
    caab:	48 89 85 c0 e5 ff ff 	mov    %rax,-0x1a40(%rbp)
    cab2:	48 8d 05 8b d9 00 00 	lea    0xd98b(%rip),%rax        # 1a444 <g_979>
    cab9:	48 89 85 c8 e5 ff ff 	mov    %rax,-0x1a38(%rbp)
    cac0:	48 8d 05 7d d9 00 00 	lea    0xd97d(%rip),%rax        # 1a444 <g_979>
    cac7:	48 89 85 d0 e5 ff ff 	mov    %rax,-0x1a30(%rbp)
    cace:	48 8d 05 6f d9 00 00 	lea    0xd96f(%rip),%rax        # 1a444 <g_979>
    cad5:	48 89 85 d8 e5 ff ff 	mov    %rax,-0x1a28(%rbp)
    cadc:	48 c7 85 e0 e5 ff ff 	movq   $0x0,-0x1a20(%rbp)
    cae3:	00 00 00 00 
    cae7:	48 8d 05 56 d9 00 00 	lea    0xd956(%rip),%rax        # 1a444 <g_979>
    caee:	48 89 85 e8 e5 ff ff 	mov    %rax,-0x1a18(%rbp)
    caf5:	48 c7 85 f0 e5 ff ff 	movq   $0x0,-0x1a10(%rbp)
    cafc:	00 00 00 00 
    cb00:	48 8d 05 3d d9 00 00 	lea    0xd93d(%rip),%rax        # 1a444 <g_979>
    cb07:	48 89 85 f8 e5 ff ff 	mov    %rax,-0x1a08(%rbp)
    cb0e:	48 8d 05 2f d9 00 00 	lea    0xd92f(%rip),%rax        # 1a444 <g_979>
    cb15:	48 89 85 00 e6 ff ff 	mov    %rax,-0x1a00(%rbp)
    cb1c:	48 c7 85 08 e6 ff ff 	movq   $0x0,-0x19f8(%rbp)
    cb23:	00 00 00 00 
    cb27:	48 8d 05 16 d9 00 00 	lea    0xd916(%rip),%rax        # 1a444 <g_979>
    cb2e:	48 89 85 10 e6 ff ff 	mov    %rax,-0x19f0(%rbp)
    cb35:	48 8d 05 ec df 00 00 	lea    0xdfec(%rip),%rax        # 1ab28 <g_1047+0x6c8>
    cb3c:	48 89 85 d8 d9 ff ff 	mov    %rax,-0x2628(%rbp)
    cb43:	48 8b 05 ae f5 00 00 	mov    0xf5ae(%rip),%rax        # 1c0f8 <g_197>
    cb4a:	48 8b 00             	mov    (%rax),%rax
    cb4d:	8b 00                	mov    (%rax),%eax
    cb4f:	85 c0                	test   %eax,%eax
    cb51:	0f 94 c2             	sete   %dl
    cb54:	48 8b 85 d8 d5 ff ff 	mov    -0x2a28(%rbp),%rax
    cb5b:	48 8b 00             	mov    (%rax),%rax
    cb5e:	0f b6 d2             	movzbl %dl,%edx
    cb61:	89 10                	mov    %edx,(%rax)
    cb63:	48 8b 15 7e f5 00 00 	mov    0xf57e(%rip),%rdx        # 1c0e8 <g_15>
    cb6a:	48 8b 05 77 f5 00 00 	mov    0xf577(%rip),%rax        # 1c0e8 <g_15>
    cb71:	48 8b 12             	mov    (%rdx),%rdx
    cb74:	48 89 10             	mov    %rdx,(%rax)
    cb77:	8b 85 c4 d6 ff ff    	mov    -0x293c(%rbp),%eax
    cb7d:	0f b6 d0             	movzbl %al,%edx
    cb80:	48 8b 85 d0 d9 ff ff 	mov    -0x2630(%rbp),%rax
    cb87:	89 85 c8 d6 ff ff    	mov    %eax,-0x2938(%rbp)
    cb8d:	8b 85 c8 d6 ff ff    	mov    -0x2938(%rbp),%eax
    cb93:	0f b6 c0             	movzbl %al,%eax
    cb96:	89 d6                	mov    %edx,%esi
    cb98:	89 c7                	mov    %eax,%edi
    cb9a:	e8 f4 bf ff ff       	callq  8b93 <safe_mul_func_uint8_t_u_u>
    cb9f:	89 c2                	mov    %eax,%edx
    cba1:	48 8b 85 d8 d5 ff ff 	mov    -0x2a28(%rbp),%rax
    cba8:	48 8b 00             	mov    (%rax),%rax
    cbab:	0f b6 d2             	movzbl %dl,%edx
    cbae:	89 10                	mov    %edx,(%rax)
    cbb0:	8b 00                	mov    (%rax),%eax
    cbb2:	85 c0                	test   %eax,%eax
    cbb4:	74 42                	je     cbf8 <func_28+0x2d78>
    cbb6:	48 8b 85 f8 d7 ff ff 	mov    -0x2808(%rbp),%rax
    cbbd:	48 89 85 a8 d9 ff ff 	mov    %rax,-0x2658(%rbp)
    cbc4:	48 8b 85 a8 d9 ff ff 	mov    -0x2658(%rbp),%rax
    cbcb:	48 3b 85 d8 d9 ff ff 	cmp    -0x2628(%rbp),%rax
    cbd2:	0f 95 c0             	setne  %al
    cbd5:	0f b6 c0             	movzbl %al,%eax
    cbd8:	89 c7                	mov    %eax,%edi
    cbda:	e8 66 bf ff ff       	callq  8b45 <safe_unary_minus_func_uint8_t_u>
    cbdf:	48 8b 15 fa f4 00 00 	mov    0xf4fa(%rip),%rdx        # 1c0e0 <g_16>
    cbe6:	8b 0a                	mov    (%rdx),%ecx
    cbe8:	0f b6 d0             	movzbl %al,%edx
    cbeb:	48 8b 05 ee f4 00 00 	mov    0xf4ee(%rip),%rax        # 1c0e0 <g_16>
    cbf2:	09 ca                	or     %ecx,%edx
    cbf4:	89 10                	mov    %edx,(%rax)
    cbf6:	eb 24                	jmp    cc1c <func_28+0x2d9c>
    cbf8:	48 8b 15 e9 f4 00 00 	mov    0xf4e9(%rip),%rdx        # 1c0e8 <g_15>
    cbff:	48 8b 85 d0 d5 ff ff 	mov    -0x2a30(%rbp),%rax
    cc06:	48 8b 00             	mov    (%rax),%rax
    cc09:	48 8b 12             	mov    (%rdx),%rdx
    cc0c:	48 89 10             	mov    %rdx,(%rax)
    cc0f:	48 8b 15 8a fd 00 00 	mov    0xfd8a(%rip),%rdx        # 1c9a0 <g_1124>
    cc16:	48 8b 00             	mov    (%rax),%rax
    cc19:	48 89 02             	mov    %rax,(%rdx)
    cc1c:	48 c7 05 09 d4 00 00 	movq   $0x1,0xd409(%rip)        # 1a030 <g_19>
    cc23:	01 00 00 00 
    cc27:	eb 78                	jmp    cca1 <func_28+0x2e21>
    cc29:	48 c7 85 e0 d9 ff ff 	movq   $0x0,-0x2620(%rbp)
    cc30:	00 00 00 00 
    cc34:	48 8d 85 70 d7 ff ff 	lea    -0x2890(%rbp),%rax
    cc3b:	48 89 85 e8 d9 ff ff 	mov    %rax,-0x2618(%rbp)
    cc42:	48 8b 95 70 d7 ff ff 	mov    -0x2890(%rbp),%rdx
    cc49:	48 8b 85 e8 d9 ff ff 	mov    -0x2618(%rbp),%rax
    cc50:	48 89 10             	mov    %rdx,(%rax)
    cc53:	48 8b 85 e8 d9 ff ff 	mov    -0x2618(%rbp),%rax
    cc5a:	48 8b 10             	mov    (%rax),%rdx
    cc5d:	48 8b 85 98 dd ff ff 	mov    -0x2268(%rbp),%rax
    cc64:	48 39 c2             	cmp    %rax,%rdx
    cc67:	0f 94 c2             	sete   %dl
    cc6a:	48 8b 85 d8 d5 ff ff 	mov    -0x2a28(%rbp),%rax
    cc71:	48 8b 00             	mov    (%rax),%rax
    cc74:	0f b6 d2             	movzbl %dl,%edx
    cc77:	89 10                	mov    %edx,(%rax)
    cc79:	48 83 bd e8 d7 ff ff 	cmpq   $0x0,-0x2818(%rbp)
    cc80:	00 
    cc81:	75 0b                	jne    cc8e <func_28+0x2e0e>
    cc83:	83 bd 7c d6 ff ff 00 	cmpl   $0x0,-0x2984(%rbp)
    cc8a:	75 28                	jne    ccb4 <func_28+0x2e34>
    cc8c:	eb 01                	jmp    cc8f <func_28+0x2e0f>
    cc8e:	90                   	nop
    cc8f:	48 8b 05 9a d3 00 00 	mov    0xd39a(%rip),%rax        # 1a030 <g_19>
    cc96:	48 83 c0 01          	add    $0x1,%rax
    cc9a:	48 89 05 8f d3 00 00 	mov    %rax,0xd38f(%rip)        # 1a030 <g_19>
    cca1:	48 8b 05 88 d3 00 00 	mov    0xd388(%rip),%rax        # 1a030 <g_19>
    cca8:	48 83 f8 04          	cmp    $0x4,%rax
    ccac:	0f 86 77 ff ff ff    	jbe    cc29 <func_28+0x2da9>
    ccb2:	eb 01                	jmp    ccb5 <func_28+0x2e35>
    ccb4:	90                   	nop
    ccb5:	48 8b 95 b0 d7 ff ff 	mov    -0x2850(%rbp),%rdx
    ccbc:	48 8b 85 b0 d9 ff ff 	mov    -0x2650(%rbp),%rax
    ccc3:	48 89 10             	mov    %rdx,(%rax)
    ccc6:	48 8b 85 78 f9 ff ff 	mov    -0x688(%rbp),%rax
    cccd:	89 85 c8 d5 ff ff    	mov    %eax,-0x2a38(%rbp)
    ccd3:	8b 85 7c d6 ff ff    	mov    -0x2984(%rbp),%eax
    ccd9:	0f b7 d8             	movzwl %ax,%ebx
    ccdc:	8b 85 c4 d6 ff ff    	mov    -0x293c(%rbp),%eax
    cce2:	44 0f be e0          	movsbl %al,%r12d
    cce6:	8b 85 68 d6 ff ff    	mov    -0x2998(%rbp),%eax
    ccec:	44 0f bf e8          	movswl %ax,%r13d
    ccf0:	8b 85 7c d6 ff ff    	mov    -0x2984(%rbp),%eax
    ccf6:	44 0f bf f0          	movswl %ax,%r14d
    ccfa:	8b 85 28 d6 ff ff    	mov    -0x29d8(%rbp),%eax
    cd00:	44 0f b7 f8          	movzwl %ax,%r15d
    cd04:	8b 85 c8 d6 ff ff    	mov    -0x2938(%rbp),%eax
    cd0a:	48 98                	cltq   
    cd0c:	48 89 85 c0 d5 ff ff 	mov    %rax,-0x2a40(%rbp)
    cd13:	8b 85 7c d6 ff ff    	mov    -0x2984(%rbp),%eax
    cd19:	89 c6                	mov    %eax,%esi
    cd1b:	bf f6 ff ff ff       	mov    $0xfffffff6,%edi
    cd20:	e8 7c b5 ff ff       	callq  82a1 <safe_lshift_func_int8_t_s_s>
    cd25:	0f b6 c0             	movzbl %al,%eax
    cd28:	be ff 00 00 00       	mov    $0xff,%esi
    cd2d:	89 c7                	mov    %eax,%edi
    cd2f:	e8 5f be ff ff       	callq  8b93 <safe_mul_func_uint8_t_u_u>
    cd34:	0f b6 c0             	movzbl %al,%eax
    cd37:	be 01 00 00 00       	mov    $0x1,%esi
    cd3c:	89 c7                	mov    %eax,%edi
    cd3e:	e8 35 be ff ff       	callq  8b78 <safe_sub_func_uint8_t_u_u>
    cd43:	0f b6 d0             	movzbl %al,%edx
    cd46:	48 8b 05 0b fc 00 00 	mov    0xfc0b(%rip),%rax        # 1c958 <g_875>
    cd4d:	48 8b 00             	mov    (%rax),%rax
    cd50:	0f b7 00             	movzwl (%rax),%eax
    cd53:	0f b7 c0             	movzwl %ax,%eax
    cd56:	89 d6                	mov    %edx,%esi
    cd58:	89 c7                	mov    %eax,%edi
    cd5a:	e8 de bf ff ff       	callq  8d3d <safe_mul_func_uint16_t_u_u>
    cd5f:	0f b7 d0             	movzwl %ax,%edx
    cd62:	0f b6 05 97 d5 00 00 	movzbl 0xd597(%rip),%eax        # 1a300 <g_427>
    cd69:	0f be c0             	movsbl %al,%eax
    cd6c:	39 c2                	cmp    %eax,%edx
    cd6e:	0f 9f c0             	setg   %al
    cd71:	0f b6 d0             	movzbl %al,%edx
    cd74:	8b 85 a8 dc ff ff    	mov    -0x2358(%rbp),%eax
    cd7a:	39 c2                	cmp    %eax,%edx
    cd7c:	0f 94 c0             	sete   %al
    cd7f:	0f b6 c0             	movzbl %al,%eax
    cd82:	48 8b b5 c0 d5 ff ff 	mov    -0x2a40(%rbp),%rsi
    cd89:	48 89 c7             	mov    %rax,%rdi
    cd8c:	e8 ba c2 ff ff       	callq  904b <safe_sub_func_uint64_t_u_u>
    cd91:	0f b7 c0             	movzwl %ax,%eax
    cd94:	44 89 fe             	mov    %r15d,%esi
    cd97:	89 c7                	mov    %eax,%edi
    cd99:	e8 be bf ff ff       	callq  8d5c <safe_mod_func_uint16_t_u_u>
    cd9e:	48 83 bd c0 d9 ff ff 	cmpq   $0x0,-0x2640(%rbp)
    cda5:	00 
    cda6:	48 8b 95 c8 d9 ff ff 	mov    -0x2638(%rbp),%rdx
    cdad:	48 8b 12             	mov    (%rdx),%rdx
    cdb0:	0f b7 c0             	movzwl %ax,%eax
    cdb3:	48 09 c2             	or     %rax,%rdx
    cdb6:	48 8b 85 c8 d9 ff ff 	mov    -0x2638(%rbp),%rax
    cdbd:	48 89 10             	mov    %rdx,(%rax)
    cdc0:	48 8b 85 50 d8 ff ff 	mov    -0x27b0(%rbp),%rax
    cdc7:	8b 00                	mov    (%rax),%eax
    cdc9:	f7 d0                	not    %eax
    cdcb:	0f b6 d0             	movzbl %al,%edx
    cdce:	8b 05 14 d5 00 00    	mov    0xd514(%rip),%eax        # 1a2e8 <g_302>
    cdd4:	0f b6 c0             	movzbl %al,%eax
    cdd7:	89 d6                	mov    %edx,%esi
    cdd9:	89 c7                	mov    %eax,%edi
    cddb:	e8 fb bd ff ff       	callq  8bdb <safe_div_func_uint8_t_u_u>
    cde0:	0f b6 c0             	movzbl %al,%eax
    cde3:	25 c6 1d 00 00       	and    $0x1dc6,%eax
    cde8:	be 0c 00 00 00       	mov    $0xc,%esi
    cded:	89 c7                	mov    %eax,%edi
    cdef:	e8 ca bf ff ff       	callq  8dbe <safe_lshift_func_uint16_t_u_s>
    cdf4:	98                   	cwtl   
    cdf5:	44 89 f6             	mov    %r14d,%esi
    cdf8:	89 c7                	mov    %eax,%edi
    cdfa:	e8 d4 b5 ff ff       	callq  83d3 <safe_sub_func_int16_t_s_s>
    cdff:	89 c2                	mov    %eax,%edx
    ce01:	48 8b 85 70 d7 ff ff 	mov    -0x2890(%rbp),%rax
    ce08:	48 8b 00             	mov    (%rax),%rax
    ce0b:	48 0f bf d2          	movswq %dx,%rdx
    ce0f:	48 89 10             	mov    %rdx,(%rax)
    ce12:	48 8b 00             	mov    (%rax),%rax
    ce15:	48 ba 33 ef 21 71 3e 	movabs $0xed82f93e7121ef33,%rdx
    ce1c:	f9 82 ed 
    ce1f:	48 39 d0             	cmp    %rdx,%rax
    ce22:	0f 95 c0             	setne  %al
    ce25:	0f b6 c0             	movzbl %al,%eax
    ce28:	44 89 ee             	mov    %r13d,%esi
    ce2b:	89 c7                	mov    %eax,%edi
    ce2d:	e8 e4 b5 ff ff       	callq  8416 <safe_mod_func_int16_t_s_s>
    ce32:	98                   	cwtl   
    ce33:	89 c6                	mov    %eax,%esi
    ce35:	bf 01 00 00 00       	mov    $0x1,%edi
    ce3a:	e8 79 c0 ff ff       	callq  8eb8 <safe_add_func_uint32_t_u_u>
    ce3f:	8b 85 ec dc ff ff    	mov    -0x2314(%rbp),%eax
    ce45:	0f be c0             	movsbl %al,%eax
    ce48:	44 89 e6             	mov    %r12d,%esi
    ce4b:	89 c7                	mov    %eax,%edi
    ce4d:	e8 a0 b3 ff ff       	callq  81f2 <safe_sub_func_int8_t_s_s>
    ce52:	0f be c0             	movsbl %al,%eax
    ce55:	89 85 c8 d6 ff ff    	mov    %eax,-0x2938(%rbp)
    ce5b:	83 bd c8 d6 ff ff 00 	cmpl   $0x0,-0x2938(%rbp)
    ce62:	0f 94 c0             	sete   %al
    ce65:	0f b6 c0             	movzbl %al,%eax
    ce68:	39 85 28 d6 ff ff    	cmp    %eax,-0x29d8(%rbp)
    ce6e:	0f 9f c0             	setg   %al
    ce71:	0f b6 c0             	movzbl %al,%eax
    ce74:	48 63 d0             	movslq %eax,%rdx
    ce77:	48 8b 05 da d1 00 00 	mov    0xd1da(%rip),%rax        # 1a058 <g_147>
    ce7e:	48 09 d0             	or     %rdx,%rax
    ce81:	48 89 05 d0 d1 00 00 	mov    %rax,0xd1d0(%rip)        # 1a058 <g_147>
    ce88:	be 06 00 00 00       	mov    $0x6,%esi
    ce8d:	bf 01 00 00 00       	mov    $0x1,%edi
    ce92:	e8 21 c0 ff ff       	callq  8eb8 <safe_add_func_uint32_t_u_u>
    ce97:	89 c2                	mov    %eax,%edx
    ce99:	48 8b 05 b8 fa 00 00 	mov    0xfab8(%rip),%rax        # 1c958 <g_875>
    cea0:	48 8b 00             	mov    (%rax),%rax
    cea3:	66 89 10             	mov    %dx,(%rax)
    cea6:	0f b7 00             	movzwl (%rax),%eax
    cea9:	0f b7 c0             	movzwl %ax,%eax
    ceac:	89 de                	mov    %ebx,%esi
    ceae:	89 c7                	mov    %eax,%edi
    ceb0:	e8 6a be ff ff       	callq  8d1f <safe_sub_func_uint16_t_u_u>
    ceb5:	0f b7 c0             	movzwl %ax,%eax
    ceb8:	be 01 00 00 00       	mov    $0x1,%esi
    cebd:	89 c7                	mov    %eax,%edi
    cebf:	e8 3b b8 ff ff       	callq  86ff <safe_div_func_int32_t_s_s>
    cec4:	98                   	cwtl   
    cec5:	8b 95 78 d6 ff ff    	mov    -0x2988(%rbp),%edx
    cecb:	89 d6                	mov    %edx,%esi
    cecd:	89 c7                	mov    %eax,%edi
    cecf:	e8 56 b6 ff ff       	callq  852a <safe_rshift_func_int16_t_s_s>
    ced4:	48 8b 85 68 d8 ff ff 	mov    -0x2798(%rbp),%rax
    cedb:	0c c5                	or     $0xc5,%al
    cedd:	98                   	cwtl   
    cede:	8b b5 c8 d5 ff ff    	mov    -0x2a38(%rbp),%esi
    cee4:	89 c7                	mov    %eax,%edi
    cee6:	e8 a7 b5 ff ff       	callq  8492 <safe_lshift_func_int16_t_s_s>
    ceeb:	89 c2                	mov    %eax,%edx
    ceed:	48 8b 05 ec f1 00 00 	mov    0xf1ec(%rip),%rax        # 1c0e0 <g_16>
    cef4:	0f bf d2             	movswl %dx,%edx
    cef7:	89 10                	mov    %edx,(%rax)
    cef9:	0f b6 05 48 d1 00 00 	movzbl 0xd148(%rip),%eax        # 1a048 <g_121>
    cf00:	0f be c0             	movsbl %al,%eax
    cf03:	be 07 00 00 00       	mov    $0x7,%esi
    cf08:	89 c7                	mov    %eax,%edi
    cf0a:	e8 e3 b2 ff ff       	callq  81f2 <safe_sub_func_int8_t_s_s>
    cf0f:	88 05 33 d1 00 00    	mov    %al,0xd133(%rip)        # 1a048 <g_121>
    cf15:	0f b6 05 2c d1 00 00 	movzbl 0xd12c(%rip),%eax        # 1a048 <g_121>
    cf1c:	3c f9                	cmp    $0xf9,%al
    cf1e:	0f 8d 14 f9 ff ff    	jge    c838 <func_28+0x29b8>
    cf24:	48 8b 05 cd d7 00 00 	mov    0xd7cd(%rip),%rax        # 1a6f8 <g_1047+0x298>
    cf2b:	0f be d8             	movsbl %al,%ebx
    cf2e:	48 8b 85 50 d8 ff ff 	mov    -0x27b0(%rbp),%rax
    cf35:	8b 00                	mov    (%rax),%eax
    cf37:	3d b9 94 82 44       	cmp    $0x448294b9,%eax
    cf3c:	0f 94 c0             	sete   %al
    cf3f:	89 c2                	mov    %eax,%edx
    cf41:	0f b6 05 fc d4 00 00 	movzbl 0xd4fc(%rip),%eax        # 1a444 <g_979>
    cf48:	31 d0                	xor    %edx,%eax
    cf4a:	88 05 f4 d4 00 00    	mov    %al,0xd4f4(%rip)        # 1a444 <g_979>
    cf50:	0f b6 05 ed d4 00 00 	movzbl 0xd4ed(%rip),%eax        # 1a444 <g_979>
    cf57:	0f b6 d0             	movzbl %al,%edx
    cf5a:	48 8b 05 3f fa 00 00 	mov    0xfa3f(%rip),%rax        # 1c9a0 <g_1124>
    cf61:	48 8b 00             	mov    (%rax),%rax
    cf64:	8b 08                	mov    (%rax),%ecx
    cf66:	48 8b 85 d8 d5 ff ff 	mov    -0x2a28(%rbp),%rax
    cf6d:	48 8b 00             	mov    (%rax),%rax
    cf70:	8b 00                	mov    (%rax),%eax
    cf72:	39 c1                	cmp    %eax,%ecx
    cf74:	0f 94 c0             	sete   %al
    cf77:	0f b6 c0             	movzbl %al,%eax
    cf7a:	39 c2                	cmp    %eax,%edx
    cf7c:	48 8b 05 e5 d1 00 00 	mov    0xd1e5(%rip),%rax        # 1a168 <g_290>
    cf83:	48 8b 85 30 d7 ff ff 	mov    -0x28d0(%rbp),%rax
    cf8a:	48 85 c0             	test   %rax,%rax
    cf8d:	0f 94 c0             	sete   %al
    cf90:	0f b6 d0             	movzbl %al,%edx
    cf93:	8b 85 08 d6 ff ff    	mov    -0x29f8(%rbp),%eax
    cf99:	39 c2                	cmp    %eax,%edx
    cf9b:	0f 95 c0             	setne  %al
    cf9e:	44 0f b6 e0          	movzbl %al,%r12d
    cfa2:	8b 85 54 d6 ff ff    	mov    -0x29ac(%rbp),%eax
    cfa8:	0f b7 d0             	movzwl %ax,%edx
    cfab:	8b 85 08 d6 ff ff    	mov    -0x29f8(%rbp),%eax
    cfb1:	0f b7 c0             	movzwl %ax,%eax
    cfb4:	89 d6                	mov    %edx,%esi
    cfb6:	89 c7                	mov    %eax,%edi
    cfb8:	e8 d1 bd ff ff       	callq  8d8e <safe_div_func_uint16_t_u_u>
    cfbd:	0f b7 c0             	movzwl %ax,%eax
    cfc0:	4c 89 e6             	mov    %r12,%rsi
    cfc3:	48 89 c7             	mov    %rax,%rdi
    cfc6:	e8 dd b8 ff ff       	callq  88a8 <safe_sub_func_int64_t_s_s>
    cfcb:	0f be c0             	movsbl %al,%eax
    cfce:	89 de                	mov    %ebx,%esi
    cfd0:	89 c7                	mov    %eax,%edi
    cfd2:	e8 5a b2 ff ff       	callq  8231 <safe_mod_func_int8_t_s_s>
    cfd7:	3c 03                	cmp    $0x3,%al
    cfd9:	7e 20                	jle    cffb <func_28+0x317b>
    cfdb:	c7 85 bc d6 ff ff 05 	movl   $0x5,-0x2944(%rbp)
    cfe2:	00 00 00 
    cfe5:	c7 85 c0 d6 ff ff ff 	movl   $0xffffffff,-0x2940(%rbp)
    cfec:	ff ff ff 
    cfef:	83 ad 80 d6 ff ff 01 	subl   $0x1,-0x2980(%rbp)
    cff6:	e9 6a 27 00 00       	jmpq   f765 <func_28+0x58e5>
    cffb:	48 8d 85 88 d7 ff ff 	lea    -0x2878(%rbp),%rax
    d002:	48 89 85 c8 d7 ff ff 	mov    %rax,-0x2838(%rbp)
    d009:	48 8d 85 c8 d7 ff ff 	lea    -0x2838(%rbp),%rax
    d010:	48 89 85 70 e5 ff ff 	mov    %rax,-0x1a90(%rbp)
    d017:	48 8d 85 c8 d7 ff ff 	lea    -0x2838(%rbp),%rax
    d01e:	48 89 85 78 e5 ff ff 	mov    %rax,-0x1a88(%rbp)
    d025:	48 8d 85 c8 d7 ff ff 	lea    -0x2838(%rbp),%rax
    d02c:	48 89 85 80 e5 ff ff 	mov    %rax,-0x1a80(%rbp)
    d033:	48 8d 85 c8 d7 ff ff 	lea    -0x2838(%rbp),%rax
    d03a:	48 89 85 88 e5 ff ff 	mov    %rax,-0x1a78(%rbp)
    d041:	48 8d 85 c8 d7 ff ff 	lea    -0x2838(%rbp),%rax
    d048:	48 89 85 90 e5 ff ff 	mov    %rax,-0x1a70(%rbp)
    d04f:	48 8d 85 c8 d7 ff ff 	lea    -0x2838(%rbp),%rax
    d056:	48 89 85 98 e5 ff ff 	mov    %rax,-0x1a68(%rbp)
    d05d:	48 8d 85 c8 d7 ff ff 	lea    -0x2838(%rbp),%rax
    d064:	48 89 85 a0 e5 ff ff 	mov    %rax,-0x1a60(%rbp)
    d06b:	48 8d 85 c8 d7 ff ff 	lea    -0x2838(%rbp),%rax
    d072:	48 89 85 a8 e5 ff ff 	mov    %rax,-0x1a58(%rbp)
    d079:	48 8d 85 c8 d7 ff ff 	lea    -0x2838(%rbp),%rax
    d080:	48 89 85 b0 e5 ff ff 	mov    %rax,-0x1a50(%rbp)
    d087:	48 8d 85 c8 d7 ff ff 	lea    -0x2838(%rbp),%rax
    d08e:	48 89 85 b8 e5 ff ff 	mov    %rax,-0x1a48(%rbp)
    d095:	48 8d 85 c8 d7 ff ff 	lea    -0x2838(%rbp),%rax
    d09c:	48 89 85 c0 e5 ff ff 	mov    %rax,-0x1a40(%rbp)
    d0a3:	48 8d 85 c8 d7 ff ff 	lea    -0x2838(%rbp),%rax
    d0aa:	48 89 85 c8 e5 ff ff 	mov    %rax,-0x1a38(%rbp)
    d0b1:	48 8d 85 c8 d7 ff ff 	lea    -0x2838(%rbp),%rax
    d0b8:	48 89 85 d0 e5 ff ff 	mov    %rax,-0x1a30(%rbp)
    d0bf:	48 8d 85 c8 d7 ff ff 	lea    -0x2838(%rbp),%rax
    d0c6:	48 89 85 d8 e5 ff ff 	mov    %rax,-0x1a28(%rbp)
    d0cd:	48 8d 85 c8 d7 ff ff 	lea    -0x2838(%rbp),%rax
    d0d4:	48 89 85 e0 e5 ff ff 	mov    %rax,-0x1a20(%rbp)
    d0db:	48 8d 85 c8 d7 ff ff 	lea    -0x2838(%rbp),%rax
    d0e2:	48 89 85 e8 e5 ff ff 	mov    %rax,-0x1a18(%rbp)
    d0e9:	48 8d 85 c8 d7 ff ff 	lea    -0x2838(%rbp),%rax
    d0f0:	48 89 85 f0 e5 ff ff 	mov    %rax,-0x1a10(%rbp)
    d0f7:	48 8d 85 c8 d7 ff ff 	lea    -0x2838(%rbp),%rax
    d0fe:	48 89 85 f8 e5 ff ff 	mov    %rax,-0x1a08(%rbp)
    d105:	48 8d 85 c8 d7 ff ff 	lea    -0x2838(%rbp),%rax
    d10c:	48 89 85 00 e6 ff ff 	mov    %rax,-0x1a00(%rbp)
    d113:	48 8d 85 c8 d7 ff ff 	lea    -0x2838(%rbp),%rax
    d11a:	48 89 85 08 e6 ff ff 	mov    %rax,-0x19f8(%rbp)
    d121:	48 8d 85 c8 d7 ff ff 	lea    -0x2838(%rbp),%rax
    d128:	48 89 85 10 e6 ff ff 	mov    %rax,-0x19f0(%rbp)
    d12f:	48 8d 85 c8 d7 ff ff 	lea    -0x2838(%rbp),%rax
    d136:	48 89 85 18 e6 ff ff 	mov    %rax,-0x19e8(%rbp)
    d13d:	48 8d 85 c8 d7 ff ff 	lea    -0x2838(%rbp),%rax
    d144:	48 89 85 20 e6 ff ff 	mov    %rax,-0x19e0(%rbp)
    d14b:	48 8d 85 c8 d7 ff ff 	lea    -0x2838(%rbp),%rax
    d152:	48 89 85 28 e6 ff ff 	mov    %rax,-0x19d8(%rbp)
    d159:	48 8d 85 c8 d7 ff ff 	lea    -0x2838(%rbp),%rax
    d160:	48 89 85 30 e6 ff ff 	mov    %rax,-0x19d0(%rbp)
    d167:	48 8d 85 c8 d7 ff ff 	lea    -0x2838(%rbp),%rax
    d16e:	48 89 85 38 e6 ff ff 	mov    %rax,-0x19c8(%rbp)
    d175:	48 8d 85 c8 d7 ff ff 	lea    -0x2838(%rbp),%rax
    d17c:	48 89 85 40 e6 ff ff 	mov    %rax,-0x19c0(%rbp)
    d183:	48 8d 85 c8 d7 ff ff 	lea    -0x2838(%rbp),%rax
    d18a:	48 89 85 48 e6 ff ff 	mov    %rax,-0x19b8(%rbp)
    d191:	48 8d 85 c8 d7 ff ff 	lea    -0x2838(%rbp),%rax
    d198:	48 89 85 50 e6 ff ff 	mov    %rax,-0x19b0(%rbp)
    d19f:	48 8d 85 c8 d7 ff ff 	lea    -0x2838(%rbp),%rax
    d1a6:	48 89 85 58 e6 ff ff 	mov    %rax,-0x19a8(%rbp)
    d1ad:	48 8d 85 c8 d7 ff ff 	lea    -0x2838(%rbp),%rax
    d1b4:	48 89 85 60 e6 ff ff 	mov    %rax,-0x19a0(%rbp)
    d1bb:	48 8d 85 c8 d7 ff ff 	lea    -0x2838(%rbp),%rax
    d1c2:	48 89 85 68 e6 ff ff 	mov    %rax,-0x1998(%rbp)
    d1c9:	48 8d 85 c8 d7 ff ff 	lea    -0x2838(%rbp),%rax
    d1d0:	48 89 85 70 e6 ff ff 	mov    %rax,-0x1990(%rbp)
    d1d7:	48 8d 85 c8 d7 ff ff 	lea    -0x2838(%rbp),%rax
    d1de:	48 89 85 78 e6 ff ff 	mov    %rax,-0x1988(%rbp)
    d1e5:	48 8d 85 c8 d7 ff ff 	lea    -0x2838(%rbp),%rax
    d1ec:	48 89 85 80 e6 ff ff 	mov    %rax,-0x1980(%rbp)
    d1f3:	48 8d 85 c8 d7 ff ff 	lea    -0x2838(%rbp),%rax
    d1fa:	48 89 85 88 e6 ff ff 	mov    %rax,-0x1978(%rbp)
    d201:	48 8d 85 c8 d7 ff ff 	lea    -0x2838(%rbp),%rax
    d208:	48 89 85 90 e6 ff ff 	mov    %rax,-0x1970(%rbp)
    d20f:	48 8d 85 c8 d7 ff ff 	lea    -0x2838(%rbp),%rax
    d216:	48 89 85 98 e6 ff ff 	mov    %rax,-0x1968(%rbp)
    d21d:	48 8d 85 c8 d7 ff ff 	lea    -0x2838(%rbp),%rax
    d224:	48 89 85 a0 e6 ff ff 	mov    %rax,-0x1960(%rbp)
    d22b:	48 8d 85 c8 d7 ff ff 	lea    -0x2838(%rbp),%rax
    d232:	48 89 85 a8 e6 ff ff 	mov    %rax,-0x1958(%rbp)
    d239:	48 8d 85 c8 d7 ff ff 	lea    -0x2838(%rbp),%rax
    d240:	48 89 85 b0 e6 ff ff 	mov    %rax,-0x1950(%rbp)
    d247:	48 8d 85 c8 d7 ff ff 	lea    -0x2838(%rbp),%rax
    d24e:	48 89 85 b8 e6 ff ff 	mov    %rax,-0x1948(%rbp)
    d255:	48 8d 85 c8 d7 ff ff 	lea    -0x2838(%rbp),%rax
    d25c:	48 89 85 c0 e6 ff ff 	mov    %rax,-0x1940(%rbp)
    d263:	48 8d 85 c8 d7 ff ff 	lea    -0x2838(%rbp),%rax
    d26a:	48 89 85 c8 e6 ff ff 	mov    %rax,-0x1938(%rbp)
    d271:	48 8d 85 c8 d7 ff ff 	lea    -0x2838(%rbp),%rax
    d278:	48 89 85 d0 e6 ff ff 	mov    %rax,-0x1930(%rbp)
    d27f:	48 8d 85 c8 d7 ff ff 	lea    -0x2838(%rbp),%rax
    d286:	48 89 85 d8 e6 ff ff 	mov    %rax,-0x1928(%rbp)
    d28d:	48 8d 85 c8 d7 ff ff 	lea    -0x2838(%rbp),%rax
    d294:	48 89 85 e0 e6 ff ff 	mov    %rax,-0x1920(%rbp)
    d29b:	48 8d 85 c8 d7 ff ff 	lea    -0x2838(%rbp),%rax
    d2a2:	48 89 85 e8 e6 ff ff 	mov    %rax,-0x1918(%rbp)
    d2a9:	48 8d 85 c8 d7 ff ff 	lea    -0x2838(%rbp),%rax
    d2b0:	48 89 85 f0 e6 ff ff 	mov    %rax,-0x1910(%rbp)
    d2b7:	48 8d 85 c8 d7 ff ff 	lea    -0x2838(%rbp),%rax
    d2be:	48 89 85 f8 e6 ff ff 	mov    %rax,-0x1908(%rbp)
    d2c5:	48 8d 85 c8 d7 ff ff 	lea    -0x2838(%rbp),%rax
    d2cc:	48 89 85 00 e7 ff ff 	mov    %rax,-0x1900(%rbp)
    d2d3:	48 8d 85 c8 d7 ff ff 	lea    -0x2838(%rbp),%rax
    d2da:	48 89 85 08 e7 ff ff 	mov    %rax,-0x18f8(%rbp)
    d2e1:	48 8d 85 c8 d7 ff ff 	lea    -0x2838(%rbp),%rax
    d2e8:	48 89 85 10 e7 ff ff 	mov    %rax,-0x18f0(%rbp)
    d2ef:	48 8d 85 c8 d7 ff ff 	lea    -0x2838(%rbp),%rax
    d2f6:	48 89 85 18 e7 ff ff 	mov    %rax,-0x18e8(%rbp)
    d2fd:	48 8d 85 c8 d7 ff ff 	lea    -0x2838(%rbp),%rax
    d304:	48 89 85 20 e7 ff ff 	mov    %rax,-0x18e0(%rbp)
    d30b:	48 8d 85 c8 d7 ff ff 	lea    -0x2838(%rbp),%rax
    d312:	48 89 85 28 e7 ff ff 	mov    %rax,-0x18d8(%rbp)
    d319:	48 8d 85 c8 d7 ff ff 	lea    -0x2838(%rbp),%rax
    d320:	48 89 85 30 e7 ff ff 	mov    %rax,-0x18d0(%rbp)
    d327:	48 8d 85 c8 d7 ff ff 	lea    -0x2838(%rbp),%rax
    d32e:	48 89 85 38 e7 ff ff 	mov    %rax,-0x18c8(%rbp)
    d335:	48 8d 85 c8 d7 ff ff 	lea    -0x2838(%rbp),%rax
    d33c:	48 89 85 40 e7 ff ff 	mov    %rax,-0x18c0(%rbp)
    d343:	48 8d 85 c8 d7 ff ff 	lea    -0x2838(%rbp),%rax
    d34a:	48 89 85 48 e7 ff ff 	mov    %rax,-0x18b8(%rbp)
    d351:	48 8d 85 c8 d7 ff ff 	lea    -0x2838(%rbp),%rax
    d358:	48 89 85 50 e7 ff ff 	mov    %rax,-0x18b0(%rbp)
    d35f:	48 8d 85 c8 d7 ff ff 	lea    -0x2838(%rbp),%rax
    d366:	48 89 85 58 e7 ff ff 	mov    %rax,-0x18a8(%rbp)
    d36d:	48 8d 85 c8 d7 ff ff 	lea    -0x2838(%rbp),%rax
    d374:	48 89 85 60 e7 ff ff 	mov    %rax,-0x18a0(%rbp)
    d37b:	48 8d 85 c8 d7 ff ff 	lea    -0x2838(%rbp),%rax
    d382:	48 89 85 68 e7 ff ff 	mov    %rax,-0x1898(%rbp)
    d389:	48 8d 85 c8 d7 ff ff 	lea    -0x2838(%rbp),%rax
    d390:	48 89 85 70 e7 ff ff 	mov    %rax,-0x1890(%rbp)
    d397:	48 8d 85 c8 d7 ff ff 	lea    -0x2838(%rbp),%rax
    d39e:	48 89 85 78 e7 ff ff 	mov    %rax,-0x1888(%rbp)
    d3a5:	48 8d 85 c8 d7 ff ff 	lea    -0x2838(%rbp),%rax
    d3ac:	48 89 85 80 e7 ff ff 	mov    %rax,-0x1880(%rbp)
    d3b3:	48 8d 85 c8 d7 ff ff 	lea    -0x2838(%rbp),%rax
    d3ba:	48 89 85 88 e7 ff ff 	mov    %rax,-0x1878(%rbp)
    d3c1:	48 8d 85 c8 d7 ff ff 	lea    -0x2838(%rbp),%rax
    d3c8:	48 89 85 90 e7 ff ff 	mov    %rax,-0x1870(%rbp)
    d3cf:	48 8d 85 c8 d7 ff ff 	lea    -0x2838(%rbp),%rax
    d3d6:	48 89 85 98 e7 ff ff 	mov    %rax,-0x1868(%rbp)
    d3dd:	48 8d 85 c8 d7 ff ff 	lea    -0x2838(%rbp),%rax
    d3e4:	48 89 85 a0 e7 ff ff 	mov    %rax,-0x1860(%rbp)
    d3eb:	48 8d 85 c8 d7 ff ff 	lea    -0x2838(%rbp),%rax
    d3f2:	48 89 85 a8 e7 ff ff 	mov    %rax,-0x1858(%rbp)
    d3f9:	48 8d 85 c8 d7 ff ff 	lea    -0x2838(%rbp),%rax
    d400:	48 89 85 b0 e7 ff ff 	mov    %rax,-0x1850(%rbp)
    d407:	48 8d 85 c8 d7 ff ff 	lea    -0x2838(%rbp),%rax
    d40e:	48 89 85 b8 e7 ff ff 	mov    %rax,-0x1848(%rbp)
    d415:	48 8d 85 c8 d7 ff ff 	lea    -0x2838(%rbp),%rax
    d41c:	48 89 85 c0 e7 ff ff 	mov    %rax,-0x1840(%rbp)
    d423:	48 8d 85 c8 d7 ff ff 	lea    -0x2838(%rbp),%rax
    d42a:	48 89 85 c8 e7 ff ff 	mov    %rax,-0x1838(%rbp)
    d431:	48 8d 85 c8 d7 ff ff 	lea    -0x2838(%rbp),%rax
    d438:	48 89 85 d0 e7 ff ff 	mov    %rax,-0x1830(%rbp)
    d43f:	48 8d 85 c8 d7 ff ff 	lea    -0x2838(%rbp),%rax
    d446:	48 89 85 d8 e7 ff ff 	mov    %rax,-0x1828(%rbp)
    d44d:	48 8d 85 c8 d7 ff ff 	lea    -0x2838(%rbp),%rax
    d454:	48 89 85 e0 e7 ff ff 	mov    %rax,-0x1820(%rbp)
    d45b:	48 8d 85 c8 d7 ff ff 	lea    -0x2838(%rbp),%rax
    d462:	48 89 85 e8 e7 ff ff 	mov    %rax,-0x1818(%rbp)
    d469:	c7 85 98 d6 ff ff 01 	movl   $0x1,-0x2968(%rbp)
    d470:	00 00 00 
    d473:	c7 85 9c d6 ff ff fb 	movl   $0x651844fb,-0x2964(%rbp)
    d47a:	44 18 65 
    d47d:	48 b8 eb 39 67 c7 d0 	movabs $0x245fb4d0c76739eb,%rax
    d484:	b4 5f 24 
    d487:	48 89 85 d0 d7 ff ff 	mov    %rax,-0x2830(%rbp)
    d48e:	48 c7 85 f0 d7 ff ff 	movq   $0xfffffffffffffff9,-0x2810(%rbp)
    d495:	f9 ff ff ff 
    d499:	48 8d 05 00 f5 00 00 	lea    0xf500(%rip),%rax        # 1c9a0 <g_1124>
    d4a0:	48 89 85 30 d9 ff ff 	mov    %rax,-0x26d0(%rbp)
    d4a7:	c6 85 e8 d5 ff ff f0 	movb   $0xf0,-0x2a18(%rbp)
    d4ae:	c7 85 a0 d6 ff ff b4 	movl   $0x6e7c6ab4,-0x2960(%rbp)
    d4b5:	6a 7c 6e 
    d4b8:	48 8d 05 2f cf 00 00 	lea    0xcf2f(%rip),%rax        # 1a3ee <g_853>
    d4bf:	48 89 85 38 d9 ff ff 	mov    %rax,-0x26c8(%rbp)
    d4c6:	66 c7 85 f8 d5 ff ff 	movw   $0xf479,-0x2a08(%rbp)
    d4cd:	79 f4 
    d4cf:	48 8d 05 2a ce 00 00 	lea    0xce2a(%rip),%rax        # 1a300 <g_427>
    d4d6:	48 89 85 d8 d7 ff ff 	mov    %rax,-0x2828(%rbp)
    d4dd:	48 8d 05 64 cb 00 00 	lea    0xcb64(%rip),%rax        # 1a048 <g_121>
    d4e4:	48 89 85 40 d9 ff ff 	mov    %rax,-0x26c0(%rbp)
    d4eb:	48 8d 85 a0 d7 ff ff 	lea    -0x2860(%rbp),%rax
    d4f2:	48 89 85 48 d9 ff ff 	mov    %rax,-0x26b8(%rbp)
    d4f9:	48 8b 05 80 f4 00 00 	mov    0xf480(%rip),%rax        # 1c980 <g_943>
    d500:	48 8b 00             	mov    (%rax),%rax
    d503:	48 89 85 70 d8 ff ff 	mov    %rax,-0x2790(%rbp)
    d50a:	48 8d 85 30 d7 ff ff 	lea    -0x28d0(%rbp),%rax
    d511:	48 89 05 b8 f4 00 00 	mov    %rax,0xf4b8(%rip)        # 1c9d0 <g_1274>
    d518:	48 8b 05 b1 f4 00 00 	mov    0xf4b1(%rip),%rax        # 1c9d0 <g_1274>
    d51f:	48 39 85 70 d8 ff ff 	cmp    %rax,-0x2790(%rbp)
    d526:	0f 84 25 04 00 00    	je     d951 <func_28+0x3ad1>
    d52c:	48 c7 85 58 d9 ff ff 	movq   $0x1,-0x26a8(%rbp)
    d533:	01 00 00 00 
    d537:	66 c7 85 fc d5 ff ff 	movw   $0x9b08,-0x2a04(%rbp)
    d53e:	08 9b 
    d540:	48 8d 05 b9 cd 00 00 	lea    0xcdb9(%rip),%rax        # 1a300 <g_427>
    d547:	48 89 85 60 d9 ff ff 	mov    %rax,-0x26a0(%rbp)
    d54e:	48 c7 85 e0 d7 ff ff 	movq   $0xffffffffffffffff,-0x2820(%rbp)
    d555:	ff ff ff ff 
    d559:	c7 85 a4 d6 ff ff ff 	movl   $0xffffffff,-0x295c(%rbp)
    d560:	ff ff ff 
    d563:	48 c7 85 68 d9 ff ff 	movq   $0xfffffffffffffffb,-0x2698(%rbp)
    d56a:	fb ff ff ff 
    d56e:	c7 85 34 d6 ff ff 00 	movl   $0x0,-0x29cc(%rbp)
    d575:	00 00 00 
    d578:	eb 1a                	jmp    d594 <func_28+0x3714>
    d57a:	8b 85 34 d6 ff ff    	mov    -0x29cc(%rbp),%eax
    d580:	48 98                	cltq   
    d582:	c7 84 85 e0 f7 ff ff 	movl   $0x33e4a741,-0x820(%rbp,%rax,4)
    d589:	41 a7 e4 33 
    d58d:	83 85 34 d6 ff ff 01 	addl   $0x1,-0x29cc(%rbp)
    d594:	83 bd 34 d6 ff ff 02 	cmpl   $0x2,-0x29cc(%rbp)
    d59b:	7e dd                	jle    d57a <func_28+0x36fa>
    d59d:	8b 85 04 d6 ff ff    	mov    -0x29fc(%rbp),%eax
    d5a3:	85 c0                	test   %eax,%eax
    d5a5:	0f 85 d6 ee ff ff    	jne    c481 <func_28+0x2601>
    d5ab:	66 83 85 fc d5 ff ff 	addw   $0x1,-0x2a04(%rbp)
    d5b2:	01 
    d5b3:	48 c7 c6 f7 ff ff ff 	mov    $0xfffffffffffffff7,%rsi
    d5ba:	bf 01 00 00 00       	mov    $0x1,%edi
    d5bf:	e8 33 b4 ff ff       	callq  89f7 <safe_div_func_int64_t_s_s>
    d5c4:	8b 05 76 ce 00 00    	mov    0xce76(%rip),%eax        # 1a440 <g_879>
    d5ca:	89 c3                	mov    %eax,%ebx
    d5cc:	48 8b 85 60 d9 ff ff 	mov    -0x26a0(%rbp),%rax
    d5d3:	0f b6 00             	movzbl (%rax),%eax
    d5d6:	83 e0 f6             	and    $0xfffffff6,%eax
    d5d9:	89 c2                	mov    %eax,%edx
    d5db:	48 8b 85 60 d9 ff ff 	mov    -0x26a0(%rbp),%rax
    d5e2:	88 10                	mov    %dl,(%rax)
    d5e4:	48 8b 85 60 d9 ff ff 	mov    -0x26a0(%rbp),%rax
    d5eb:	0f b6 00             	movzbl (%rax),%eax
    d5ee:	84 c0                	test   %al,%al
    d5f0:	0f 85 8e 00 00 00    	jne    d684 <func_28+0x3804>
    d5f6:	83 bd 7c d6 ff ff 00 	cmpl   $0x0,-0x2984(%rbp)
    d5fd:	74 66                	je     d665 <func_28+0x37e5>
    d5ff:	48 83 bd e8 d7 ff ff 	cmpq   $0x0,-0x2818(%rbp)
    d606:	00 
    d607:	74 2b                	je     d634 <func_28+0x37b4>
    d609:	8b 85 98 d6 ff ff    	mov    -0x2968(%rbp),%eax
    d60f:	48 63 d0             	movslq %eax,%rdx
    d612:	48 8b 85 50 d8 ff ff 	mov    -0x27b0(%rbp),%rax
    d619:	8b 00                	mov    (%rax),%eax
    d61b:	48 98                	cltq   
    d61d:	48 89 d6             	mov    %rdx,%rsi
    d620:	48 89 c7             	mov    %rax,%rdi
    d623:	e8 8c b3 ff ff       	callq  89b4 <safe_mod_func_int64_t_s_s>
    d628:	48 85 c0             	test   %rax,%rax
    d62b:	74 07                	je     d634 <func_28+0x37b4>
    d62d:	b8 01 00 00 00       	mov    $0x1,%eax
    d632:	eb 05                	jmp    d639 <func_28+0x37b9>
    d634:	b8 00 00 00 00       	mov    $0x0,%eax
    d639:	83 f8 ff             	cmp    $0xffffffff,%eax
    d63c:	74 11                	je     d64f <func_28+0x37cf>
    d63e:	8b 85 e4 da ff ff    	mov    -0x251c(%rbp),%eax
    d644:	85 c0                	test   %eax,%eax
    d646:	74 07                	je     d64f <func_28+0x37cf>
    d648:	b8 01 00 00 00       	mov    $0x1,%eax
    d64d:	eb 05                	jmp    d654 <func_28+0x37d4>
    d64f:	b8 00 00 00 00       	mov    $0x0,%eax
    d654:	0f b6 c0             	movzbl %al,%eax
    d657:	be a9 00 00 00       	mov    $0xa9,%esi
    d65c:	89 c7                	mov    %eax,%edi
    d65e:	e8 30 b5 ff ff       	callq  8b93 <safe_mul_func_uint8_t_u_u>
    d663:	84 c0                	test   %al,%al
    d665:	0f b6 05 e4 c9 00 00 	movzbl 0xc9e4(%rip),%eax        # 1a050 <g_145>
    d66c:	48 0f be c0          	movsbq %al,%rax
    d670:	48 89 85 f0 d7 ff ff 	mov    %rax,-0x2810(%rbp)
    d677:	48 8b 85 d0 d7 ff ff 	mov    -0x2830(%rbp),%rax
    d67e:	48 83 f8 01          	cmp    $0x1,%rax
    d682:	74 07                	je     d68b <func_28+0x380b>
    d684:	b8 01 00 00 00       	mov    $0x1,%eax
    d689:	eb 05                	jmp    d690 <func_28+0x3810>
    d68b:	b8 00 00 00 00       	mov    $0x0,%eax
    d690:	48 98                	cltq   
    d692:	48 89 de             	mov    %rbx,%rsi
    d695:	48 89 c7             	mov    %rax,%rdi
    d698:	e8 5a b3 ff ff       	callq  89f7 <safe_div_func_int64_t_s_s>
    d69d:	48 39 85 58 d9 ff ff 	cmp    %rax,-0x26a8(%rbp)
    d6a4:	0f 95 c0             	setne  %al
    d6a7:	0f b6 c0             	movzbl %al,%eax
    d6aa:	be ff ff ff ff       	mov    $0xffffffff,%esi
    d6af:	89 c7                	mov    %eax,%edi
    d6b1:	e8 00 af ff ff       	callq  85b6 <safe_add_func_int32_t_s_s>
    d6b6:	0f be c0             	movsbl %al,%eax
    d6b9:	8b 95 54 d6 ff ff    	mov    -0x29ac(%rbp),%edx
    d6bf:	89 d6                	mov    %edx,%esi
    d6c1:	89 c7                	mov    %eax,%edi
    d6c3:	e8 a4 ac ff ff       	callq  836c <safe_rshift_func_int8_t_s_u>
    d6c8:	66 c7 85 fe d5 ff ff 	movw   $0x0,-0x2a02(%rbp)
    d6cf:	00 00 
    d6d1:	48 c7 85 70 d9 ff ff 	movq   $0x0,-0x2690(%rbp)
    d6d8:	00 00 00 00 
    d6dc:	48 8d 05 4d c9 00 00 	lea    0xc94d(%rip),%rax        # 1a030 <g_19>
    d6e3:	48 89 85 78 d9 ff ff 	mov    %rax,-0x2688(%rbp)
    d6ea:	48 83 bd 58 d9 ff ff 	cmpq   $0x0,-0x26a8(%rbp)
    d6f1:	00 
    d6f2:	0f 85 ce 00 00 00    	jne    d7c6 <func_28+0x3946>
    d6f8:	48 8b 15 f1 e9 00 00 	mov    0xe9f1(%rip),%rdx        # 1c0f0 <g_198>
    d6ff:	48 8b 05 ea e9 00 00 	mov    0xe9ea(%rip),%rax        # 1c0f0 <g_198>
    d706:	8b 12                	mov    (%rdx),%edx
    d708:	89 10                	mov    %edx,(%rax)
    d70a:	8b 10                	mov    (%rax),%edx
    d70c:	8b 85 98 d6 ff ff    	mov    -0x2968(%rbp),%eax
    d712:	89 d6                	mov    %edx,%esi
    d714:	89 c7                	mov    %eax,%edi
    d716:	e8 b5 b7 ff ff       	callq  8ed0 <safe_sub_func_uint32_t_u_u>
    d71b:	85 c0                	test   %eax,%eax
    d71d:	74 6d                	je     d78c <func_28+0x390c>
    d71f:	8b 85 98 d6 ff ff    	mov    -0x2968(%rbp),%eax
    d725:	0f b7 c0             	movzwl %ax,%eax
    d728:	89 c6                	mov    %eax,%esi
    d72a:	bf b7 c5 00 00       	mov    $0xc5b7,%edi
    d72f:	e8 5a b6 ff ff       	callq  8d8e <safe_div_func_uint16_t_u_u>
    d734:	0f b7 c0             	movzwl %ax,%eax
    d737:	89 85 98 d6 ff ff    	mov    %eax,-0x2968(%rbp)
    d73d:	be 00 00 00 00       	mov    $0x0,%esi
    d742:	bf ff ff ff ff       	mov    $0xffffffff,%edi
    d747:	e8 a6 aa ff ff       	callq  81f2 <safe_sub_func_int8_t_s_s>
    d74c:	84 c0                	test   %al,%al
    d74e:	75 08                	jne    d758 <func_28+0x38d8>
    d750:	66 83 bd fe d5 ff ff 	cmpw   $0x0,-0x2a02(%rbp)
    d757:	00 
    d758:	0f bf 85 fe d5 ff ff 	movswl -0x2a02(%rbp),%eax
    d75f:	be 50 16 e4 88       	mov    $0x88e41650,%esi
    d764:	89 c7                	mov    %eax,%edi
    d766:	e8 4d b7 ff ff       	callq  8eb8 <safe_add_func_uint32_t_u_u>
    d76b:	0f be d0             	movsbl %al,%edx
    d76e:	48 8b 85 f0 d7 ff ff 	mov    -0x2810(%rbp),%rax
    d775:	0f be c0             	movsbl %al,%eax
    d778:	89 d6                	mov    %edx,%esi
    d77a:	89 c7                	mov    %eax,%edi
    d77c:	e8 91 aa ff ff       	callq  8212 <safe_mul_func_int8_t_s_s>
    d781:	84 c0                	test   %al,%al
    d783:	74 07                	je     d78c <func_28+0x390c>
    d785:	ba 01 00 00 00       	mov    $0x1,%edx
    d78a:	eb 05                	jmp    d791 <func_28+0x3911>
    d78c:	ba 00 00 00 00       	mov    $0x0,%edx
    d791:	48 8b 85 a8 d7 ff ff 	mov    -0x2858(%rbp),%rax
    d798:	48 8b 00             	mov    (%rax),%rax
    d79b:	48 8b 00             	mov    (%rax),%rax
    d79e:	66 89 10             	mov    %dx,(%rax)
    d7a1:	0f b7 00             	movzwl (%rax),%eax
    d7a4:	0f b7 c0             	movzwl %ax,%eax
    d7a7:	be 03 00 00 00       	mov    $0x3,%esi
    d7ac:	89 c7                	mov    %eax,%edi
    d7ae:	e8 95 b6 ff ff       	callq  8e48 <safe_rshift_func_uint16_t_u_s>
    d7b3:	0f be c0             	movsbl %al,%eax
    d7b6:	be 02 00 00 00       	mov    $0x2,%esi
    d7bb:	89 c7                	mov    %eax,%edi
    d7bd:	e8 2c ab ff ff       	callq  82ee <safe_lshift_func_int8_t_s_u>
    d7c2:	84 c0                	test   %al,%al
    d7c4:	74 07                	je     d7cd <func_28+0x394d>
    d7c6:	b8 01 00 00 00       	mov    $0x1,%eax
    d7cb:	eb 05                	jmp    d7d2 <func_28+0x3952>
    d7cd:	b8 00 00 00 00       	mov    $0x0,%eax
    d7d2:	3d ad 60 00 00       	cmp    $0x60ad,%eax
    d7d7:	0f 9f c0             	setg   %al
    d7da:	0f b6 d0             	movzbl %al,%edx
    d7dd:	48 8b b5 40 db ff ff 	mov    -0x24c0(%rbp),%rsi
    d7e4:	48 8b 8d 30 d9 ff ff 	mov    -0x26d0(%rbp),%rcx
    d7eb:	48 8b 85 00 d8 ff ff 	mov    -0x2800(%rbp),%rax
    d7f2:	48 89 c7             	mov    %rax,%rdi
    d7f5:	e8 28 40 00 00       	callq  11822 <func_37>
    d7fa:	48 8b 95 d8 d5 ff ff 	mov    -0x2a28(%rbp),%rdx
    d801:	48 89 02             	mov    %rax,(%rdx)
    d804:	66 83 bd fc d5 ff ff 	cmpw   $0x0,-0x2a04(%rbp)
    d80b:	00 
    d80c:	75 12                	jne    d820 <func_28+0x39a0>
    d80e:	48 8b 05 43 f1 00 00 	mov    0xf143(%rip),%rax        # 1c958 <g_875>
    d815:	48 8b 00             	mov    (%rax),%rax
    d818:	0f b7 00             	movzwl (%rax),%eax
    d81b:	66 85 c0             	test   %ax,%ax
    d81e:	74 07                	je     d827 <func_28+0x39a7>
    d820:	b8 01 00 00 00       	mov    $0x1,%eax
    d825:	eb 05                	jmp    d82c <func_28+0x39ac>
    d827:	b8 00 00 00 00       	mov    $0x0,%eax
    d82c:	f7 d0                	not    %eax
    d82e:	09 85 28 d6 ff ff    	or     %eax,-0x29d8(%rbp)
    d834:	48 8b 85 e0 d7 ff ff 	mov    -0x2820(%rbp),%rax
    d83b:	41 89 c6             	mov    %eax,%r14d
    d83e:	48 8b 85 30 d9 ff ff 	mov    -0x26d0(%rbp),%rax
    d845:	48 8b 00             	mov    (%rax),%rax
    d848:	48 8b 00             	mov    (%rax),%rax
    d84b:	8b 00                	mov    (%rax),%eax
    d84d:	0f bf d8             	movswl %ax,%ebx
    d850:	8b 85 80 d6 ff ff    	mov    -0x2980(%rbp),%eax
    d856:	44 0f bf e0          	movswl %ax,%r12d
    d85a:	48 8b 85 00 d8 ff ff 	mov    -0x2800(%rbp),%rax
    d861:	48 8b 00             	mov    (%rax),%rax
    d864:	8b 00                	mov    (%rax),%eax
    d866:	44 0f bf e8          	movswl %ax,%r13d
    d86a:	48 8b 85 f8 d7 ff ff 	mov    -0x2808(%rbp),%rax
    d871:	48 8b 10             	mov    (%rax),%rdx
    d874:	48 8b 05 85 e8 00 00 	mov    0xe885(%rip),%rax        # 1c100 <g_239>
    d87b:	48 8b 00             	mov    (%rax),%rax
    d87e:	48 09 c2             	or     %rax,%rdx
    d881:	48 8b 85 f8 d7 ff ff 	mov    -0x2808(%rbp),%rax
    d888:	48 89 10             	mov    %rdx,(%rax)
    d88b:	48 8b 85 78 d9 ff ff 	mov    -0x2688(%rbp),%rax
    d892:	48 8b 10             	mov    (%rax),%rdx
    d895:	48 8b 85 e0 d7 ff ff 	mov    -0x2820(%rbp),%rax
    d89c:	48 21 c2             	and    %rax,%rdx
    d89f:	48 8b 85 78 d9 ff ff 	mov    -0x2688(%rbp),%rax
    d8a6:	48 89 10             	mov    %rdx,(%rax)
    d8a9:	48 8b 85 78 d9 ff ff 	mov    -0x2688(%rbp),%rax
    d8b0:	48 8b 00             	mov    (%rax),%rax
    d8b3:	41 89 c7             	mov    %eax,%r15d
    d8b6:	be 01 00 00 00       	mov    $0x1,%esi
    d8bb:	bf 01 00 00 00       	mov    $0x1,%edi
    d8c0:	e8 f3 b5 ff ff       	callq  8eb8 <safe_add_func_uint32_t_u_u>
    d8c5:	85 c0                	test   %eax,%eax
    d8c7:	74 16                	je     d8df <func_28+0x3a5f>
    d8c9:	48 8b 05 30 e8 00 00 	mov    0xe830(%rip),%rax        # 1c100 <g_239>
    d8d0:	48 8b 00             	mov    (%rax),%rax
    d8d3:	48 85 c0             	test   %rax,%rax
    d8d6:	74 07                	je     d8df <func_28+0x3a5f>
    d8d8:	b8 01 00 00 00       	mov    $0x1,%eax
    d8dd:	eb 05                	jmp    d8e4 <func_28+0x3a64>
    d8df:	b8 00 00 00 00       	mov    $0x0,%eax
    d8e4:	44 89 fa             	mov    %r15d,%edx
    d8e7:	21 c2                	and    %eax,%edx
    d8e9:	0f b7 85 fe d5 ff ff 	movzwl -0x2a02(%rbp),%eax
    d8f0:	31 d0                	xor    %edx,%eax
    d8f2:	98                   	cwtl   
    d8f3:	44 89 ee             	mov    %r13d,%esi
    d8f6:	89 c7                	mov    %eax,%edi
    d8f8:	e8 f8 aa ff ff       	callq  83f5 <safe_mul_func_int16_t_s_s>
    d8fd:	98                   	cwtl   
    d8fe:	44 89 e6             	mov    %r12d,%esi
    d901:	89 c7                	mov    %eax,%edi
    d903:	e8 ab aa ff ff       	callq  83b3 <safe_add_func_int16_t_s_s>
    d908:	98                   	cwtl   
    d909:	89 de                	mov    %ebx,%esi
    d90b:	89 c7                	mov    %eax,%edi
    d90d:	e8 c1 aa ff ff       	callq  83d3 <safe_sub_func_int16_t_s_s>
    d912:	66 39 85 fe d5 ff ff 	cmp    %ax,-0x2a02(%rbp)
    d919:	74 0e                	je     d929 <func_28+0x3aa9>
    d91b:	48 8b 85 00 d8 ff ff 	mov    -0x2800(%rbp),%rax
    d922:	48 8b 00             	mov    (%rax),%rax
    d925:	8b 00                	mov    (%rax),%eax
    d927:	85 c0                	test   %eax,%eax
    d929:	44 89 f6             	mov    %r14d,%esi
    d92c:	bf 01 00 00 00       	mov    $0x1,%edi
    d931:	e8 f4 ab ff ff       	callq  852a <safe_rshift_func_int16_t_s_s>
    d936:	c6 85 e8 d5 ff ff 01 	movb   $0x1,-0x2a18(%rbp)
    d93d:	48 8b 85 50 d8 ff ff 	mov    -0x27b0(%rbp),%rax
    d944:	8b 00                	mov    (%rax),%eax
    d946:	21 85 28 d6 ff ff    	and    %eax,-0x29d8(%rbp)
    d94c:	e9 56 01 00 00       	jmpq   daa7 <func_28+0x3c27>
    d951:	66 c7 85 fa d5 ff ff 	movw   $0xc287,-0x2a06(%rbp)
    d958:	87 c2 
    d95a:	48 8d 85 68 d7 ff ff 	lea    -0x2898(%rbp),%rax
    d961:	48 89 85 50 d9 ff ff 	mov    %rax,-0x26b0(%rbp)
    d968:	48 8b 85 b0 d7 ff ff 	mov    -0x2850(%rbp),%rax
    d96f:	48 8b 00             	mov    (%rax),%rax
    d972:	48 8b 00             	mov    (%rax),%rax
    d975:	48 89 85 50 d9 ff ff 	mov    %rax,-0x26b0(%rbp)
    d97c:	48 8b 85 a8 d7 ff ff 	mov    -0x2858(%rbp),%rax
    d983:	48 8b 00             	mov    (%rax),%rax
    d986:	48 39 85 50 d9 ff ff 	cmp    %rax,-0x26b0(%rbp)
    d98d:	0f 94 c0             	sete   %al
    d990:	0f b6 d8             	movzbl %al,%ebx
    d993:	83 bd 8c d6 ff ff 00 	cmpl   $0x0,-0x2974(%rbp)
    d99a:	74 27                	je     d9c3 <func_28+0x3b43>
    d99c:	0f b7 85 fa d5 ff ff 	movzwl -0x2a06(%rbp),%eax
    d9a3:	89 c6                	mov    %eax,%esi
    d9a5:	bf ff ff ff ff       	mov    $0xffffffff,%edi
    d9aa:	e8 86 a9 ff ff       	callq  8335 <safe_rshift_func_int8_t_s_s>
    d9af:	0f be c0             	movsbl %al,%eax
    d9b2:	0b 85 90 d6 ff ff    	or     -0x2970(%rbp),%eax
    d9b8:	85 c0                	test   %eax,%eax
    d9ba:	74 07                	je     d9c3 <func_28+0x3b43>
    d9bc:	b8 01 00 00 00       	mov    $0x1,%eax
    d9c1:	eb 05                	jmp    d9c8 <func_28+0x3b48>
    d9c3:	b8 00 00 00 00       	mov    $0x0,%eax
    d9c8:	39 d8                	cmp    %ebx,%eax
    d9ca:	7f 17                	jg     d9e3 <func_28+0x3b63>
    d9cc:	48 8b 85 00 d8 ff ff 	mov    -0x2800(%rbp),%rax
    d9d3:	48 8b 00             	mov    (%rax),%rax
    d9d6:	8b 00                	mov    (%rax),%eax
    d9d8:	85 c0                	test   %eax,%eax
    d9da:	74 07                	je     d9e3 <func_28+0x3b63>
    d9dc:	b8 01 00 00 00       	mov    $0x1,%eax
    d9e1:	eb 05                	jmp    d9e8 <func_28+0x3b68>
    d9e3:	b8 00 00 00 00       	mov    $0x0,%eax
    d9e8:	89 c2                	mov    %eax,%edx
    d9ea:	8b 85 90 d6 ff ff    	mov    -0x2970(%rbp),%eax
    d9f0:	21 d0                	and    %edx,%eax
    d9f2:	0f b7 d8             	movzwl %ax,%ebx
    d9f5:	48 8b 85 00 d8 ff ff 	mov    -0x2800(%rbp),%rax
    d9fc:	48 8b 00             	mov    (%rax),%rax
    d9ff:	8b 00                	mov    (%rax),%eax
    da01:	48 98                	cltq   
    da03:	48 89 c6             	mov    %rax,%rsi
    da06:	bf 01 00 00 00       	mov    $0x1,%edi
    da0b:	e8 e7 af ff ff       	callq  89f7 <safe_div_func_int64_t_s_s>
    da10:	0f b7 c0             	movzwl %ax,%eax
    da13:	89 de                	mov    %ebx,%esi
    da15:	89 c7                	mov    %eax,%edi
    da17:	e8 40 b3 ff ff       	callq  8d5c <safe_mod_func_uint16_t_u_u>
    da1c:	44 0f b7 e0          	movzwl %ax,%r12d
    da20:	48 8b 85 a0 d7 ff ff 	mov    -0x2860(%rbp),%rax
    da27:	48 8b 18             	mov    (%rax),%rbx
    da2a:	be 04 00 00 00       	mov    $0x4,%esi
    da2f:	bf fb ff 00 00       	mov    $0xfffb,%edi
    da34:	e8 cd b3 ff ff       	callq  8e06 <safe_lshift_func_uint16_t_u_u>
    da39:	66 89 03             	mov    %ax,(%rbx)
    da3c:	0f b7 03             	movzwl (%rbx),%eax
    da3f:	0f b7 c0             	movzwl %ax,%eax
    da42:	44 89 e6             	mov    %r12d,%esi
    da45:	89 c7                	mov    %eax,%edi
    da47:	e8 b3 b2 ff ff       	callq  8cff <safe_add_func_uint16_t_u_u>
    da4c:	66 85 c0             	test   %ax,%ax
    da4f:	75 0d                	jne    da5e <func_28+0x3bde>
    da51:	48 8b 85 50 d8 ff ff 	mov    -0x27b0(%rbp),%rax
    da58:	8b 00                	mov    (%rax),%eax
    da5a:	85 c0                	test   %eax,%eax
    da5c:	74 07                	je     da65 <func_28+0x3be5>
    da5e:	b8 01 00 00 00       	mov    $0x1,%eax
    da63:	eb 05                	jmp    da6a <func_28+0x3bea>
    da65:	b8 00 00 00 00       	mov    $0x0,%eax
    da6a:	33 85 88 d6 ff ff    	xor    -0x2978(%rbp),%eax
    da70:	48 98                	cltq   
    da72:	ba 3e 2d 52 ac       	mov    $0xac522d3e,%edx
    da77:	48 31 c2             	xor    %rax,%rdx
    da7a:	48 8b 05 7f e6 00 00 	mov    0xe67f(%rip),%rax        # 1c100 <g_239>
    da81:	48 8b 00             	mov    (%rax),%rax
    da84:	48 21 c2             	and    %rax,%rdx
    da87:	48 8b 85 00 d8 ff ff 	mov    -0x2800(%rbp),%rax
    da8e:	48 8b 00             	mov    (%rax),%rax
    da91:	8b 00                	mov    (%rax),%eax
    da93:	48 98                	cltq   
    da95:	48 39 c2             	cmp    %rax,%rdx
    da98:	0f 94 c2             	sete   %dl
    da9b:	48 8b 05 3e e6 00 00 	mov    0xe63e(%rip),%rax        # 1c0e0 <g_16>
    daa2:	0f b6 d2             	movzbl %dl,%edx
    daa5:	89 10                	mov    %edx,(%rax)
    daa7:	48 8b 85 30 d9 ff ff 	mov    -0x26d0(%rbp),%rax
    daae:	48 8b 00             	mov    (%rax),%rax
    dab1:	48 8b 00             	mov    (%rax),%rax
    dab4:	48 89 85 90 d7 ff ff 	mov    %rax,-0x2870(%rbp)
    dabb:	8b 85 78 d6 ff ff    	mov    -0x2988(%rbp),%eax
    dac1:	48 63 d0             	movslq %eax,%rdx
    dac4:	0f b6 05 7d c5 00 00 	movzbl 0xc57d(%rip),%eax        # 1a048 <g_121>
    dacb:	48 0f be c0          	movsbq %al,%rax
    dacf:	48 89 d6             	mov    %rdx,%rsi
    dad2:	48 89 c7             	mov    %rax,%rdi
    dad5:	e8 d5 b5 ff ff       	callq  90af <safe_div_func_uint64_t_u_u>
    dada:	49 89 c6             	mov    %rax,%r14
    dadd:	48 8b 85 50 d8 ff ff 	mov    -0x27b0(%rbp),%rax
    dae4:	8b 00                	mov    (%rax),%eax
    dae6:	0f be d8             	movsbl %al,%ebx
    dae9:	48 8b 85 28 d9 ff ff 	mov    -0x26d8(%rbp),%rax
    daf0:	44 0f b7 e0          	movzwl %ax,%r12d
    daf4:	48 8b 85 00 d8 ff ff 	mov    -0x2800(%rbp),%rax
    dafb:	48 8b 00             	mov    (%rax),%rax
    dafe:	8b 00                	mov    (%rax),%eax
    db00:	44 0f be e8          	movsbl %al,%r13d
    db04:	48 8b 85 50 d8 ff ff 	mov    -0x27b0(%rbp),%rax
    db0b:	8b 10                	mov    (%rax),%edx
    db0d:	48 8b 85 38 d9 ff ff 	mov    -0x26c8(%rbp),%rax
    db14:	48 89 05 fd e7 00 00 	mov    %rax,0xe7fd(%rip)        # 1c318 <g_356+0x1d8>
    db1b:	48 8b 85 00 d8 ff ff 	mov    -0x2800(%rbp),%rax
    db22:	48 8b 00             	mov    (%rax),%rax
    db25:	8b 00                	mov    (%rax),%eax
    db27:	89 d6                	mov    %edx,%esi
    db29:	89 c7                	mov    %eax,%edi
    db2b:	e8 cf ab ff ff       	callq  86ff <safe_div_func_int32_t_s_s>
    db30:	0f be c0             	movsbl %al,%eax
    db33:	44 89 ee             	mov    %r13d,%esi
    db36:	89 c7                	mov    %eax,%edi
    db38:	e8 d5 a6 ff ff       	callq  8212 <safe_mul_func_int8_t_s_s>
    db3d:	66 98                	cbtw   
    db3f:	0f b7 c0             	movzwl %ax,%eax
    db42:	44 89 e6             	mov    %r12d,%esi
    db45:	89 c7                	mov    %eax,%edi
    db47:	e8 d3 b1 ff ff       	callq  8d1f <safe_sub_func_uint16_t_u_u>
    db4c:	48 8b 85 30 d9 ff ff 	mov    -0x26d0(%rbp),%rax
    db53:	48 8b 00             	mov    (%rax),%rax
    db56:	48 8b 00             	mov    (%rax),%rax
    db59:	8b 00                	mov    (%rax),%eax
    db5b:	85 c0                	test   %eax,%eax
    db5d:	0f 94 c0             	sete   %al
    db60:	0f b6 c0             	movzbl %al,%eax
    db63:	be 02 00 00 00       	mov    $0x2,%esi
    db68:	89 c7                	mov    %eax,%edi
    db6a:	e8 d9 b2 ff ff       	callq  8e48 <safe_rshift_func_uint16_t_u_s>
    db6f:	66 83 f8 32          	cmp    $0x32,%ax
    db73:	0f 97 c0             	seta   %al
    db76:	0f b6 c0             	movzbl %al,%eax
    db79:	be 00 00 00 00       	mov    $0x0,%esi
    db7e:	89 c7                	mov    %eax,%edi
    db80:	e8 80 b0 ff ff       	callq  8c05 <safe_lshift_func_uint8_t_u_s>
    db85:	0f be c0             	movsbl %al,%eax
    db88:	89 de                	mov    %ebx,%esi
    db8a:	89 c7                	mov    %eax,%edi
    db8c:	e8 81 a6 ff ff       	callq  8212 <safe_mul_func_int8_t_s_s>
    db91:	48 0f be c0          	movsbq %al,%rax
    db95:	49 39 c6             	cmp    %rax,%r14
    db98:	48 8b 85 b0 d7 ff ff 	mov    -0x2850(%rbp),%rax
    db9f:	48 8b 00             	mov    (%rax),%rax
    dba2:	48 8d 15 97 ed 00 00 	lea    0xed97(%rip),%rdx        # 1c940 <g_873>
    dba9:	48 89 10             	mov    %rdx,(%rax)
    dbac:	48 8b 10             	mov    (%rax),%rdx
    dbaf:	48 8d 85 68 d7 ff ff 	lea    -0x2898(%rbp),%rax
    dbb6:	48 39 c2             	cmp    %rax,%rdx
    dbb9:	0f 95 c0             	setne  %al
    dbbc:	0f b6 d0             	movzbl %al,%edx
    dbbf:	48 8b 85 00 d8 ff ff 	mov    -0x2800(%rbp),%rax
    dbc6:	48 8b 00             	mov    (%rax),%rax
    dbc9:	8b 00                	mov    (%rax),%eax
    dbcb:	39 c2                	cmp    %eax,%edx
    dbcd:	0f 8e 38 0e 00 00    	jle    ea0b <func_28+0x4b8b>
    dbd3:	c7 85 a8 d6 ff ff 38 	movl   $0xd5425638,-0x2958(%rbp)
    dbda:	56 42 d5 
    dbdd:	48 8d 05 1c c7 00 00 	lea    0xc71c(%rip),%rax        # 1a300 <g_427>
    dbe4:	48 89 85 a0 d9 ff ff 	mov    %rax,-0x2660(%rbp)
    dbeb:	83 85 a8 d6 ff ff 01 	addl   $0x1,-0x2958(%rbp)
    dbf2:	48 8b 85 d0 d5 ff ff 	mov    -0x2a30(%rbp),%rax
    dbf9:	48 8b 00             	mov    (%rax),%rax
    dbfc:	48 8b 00             	mov    (%rax),%rax
    dbff:	8b 00                	mov    (%rax),%eax
    dc01:	85 c0                	test   %eax,%eax
    dc03:	0f 84 b8 0d 00 00    	je     e9c1 <func_28+0x4b41>
    dc09:	48 c7 85 e0 f7 ff ff 	movq   $0x0,-0x820(%rbp)
    dc10:	00 00 00 00 
    dc14:	48 8d 85 d8 d7 ff ff 	lea    -0x2828(%rbp),%rax
    dc1b:	48 89 85 e8 f7 ff ff 	mov    %rax,-0x818(%rbp)
    dc22:	48 8d 85 d8 d7 ff ff 	lea    -0x2828(%rbp),%rax
    dc29:	48 89 85 f0 f7 ff ff 	mov    %rax,-0x810(%rbp)
    dc30:	48 c7 85 f8 f7 ff ff 	movq   $0x0,-0x808(%rbp)
    dc37:	00 00 00 00 
    dc3b:	48 8d 85 d8 d7 ff ff 	lea    -0x2828(%rbp),%rax
    dc42:	48 89 85 00 f8 ff ff 	mov    %rax,-0x800(%rbp)
    dc49:	48 8d 85 d8 d7 ff ff 	lea    -0x2828(%rbp),%rax
    dc50:	48 89 85 08 f8 ff ff 	mov    %rax,-0x7f8(%rbp)
    dc57:	48 c7 85 10 f8 ff ff 	movq   $0x0,-0x7f0(%rbp)
    dc5e:	00 00 00 00 
    dc62:	48 c7 85 18 f8 ff ff 	movq   $0x0,-0x7e8(%rbp)
    dc69:	00 00 00 00 
    dc6d:	48 8d 85 d8 d7 ff ff 	lea    -0x2828(%rbp),%rax
    dc74:	48 89 85 20 f8 ff ff 	mov    %rax,-0x7e0(%rbp)
    dc7b:	48 8d 85 d8 d7 ff ff 	lea    -0x2828(%rbp),%rax
    dc82:	48 89 85 28 f8 ff ff 	mov    %rax,-0x7d8(%rbp)
    dc89:	48 8d 85 d8 d7 ff ff 	lea    -0x2828(%rbp),%rax
    dc90:	48 89 85 30 f8 ff ff 	mov    %rax,-0x7d0(%rbp)
    dc97:	48 c7 85 38 f8 ff ff 	movq   $0x0,-0x7c8(%rbp)
    dc9e:	00 00 00 00 
    dca2:	48 8d 85 d8 d7 ff ff 	lea    -0x2828(%rbp),%rax
    dca9:	48 89 85 40 f8 ff ff 	mov    %rax,-0x7c0(%rbp)
    dcb0:	48 c7 85 48 f8 ff ff 	movq   $0x0,-0x7b8(%rbp)
    dcb7:	00 00 00 00 
    dcbb:	48 8d 85 d8 d7 ff ff 	lea    -0x2828(%rbp),%rax
    dcc2:	48 89 85 50 f8 ff ff 	mov    %rax,-0x7b0(%rbp)
    dcc9:	48 8d 85 d8 d7 ff ff 	lea    -0x2828(%rbp),%rax
    dcd0:	48 89 85 58 f8 ff ff 	mov    %rax,-0x7a8(%rbp)
    dcd7:	48 8d 85 d8 d7 ff ff 	lea    -0x2828(%rbp),%rax
    dcde:	48 89 85 60 f8 ff ff 	mov    %rax,-0x7a0(%rbp)
    dce5:	48 8d 85 d8 d7 ff ff 	lea    -0x2828(%rbp),%rax
    dcec:	48 89 85 68 f8 ff ff 	mov    %rax,-0x798(%rbp)
    dcf3:	48 c7 85 70 f8 ff ff 	movq   $0x0,-0x790(%rbp)
    dcfa:	00 00 00 00 
    dcfe:	48 8d 85 d8 d7 ff ff 	lea    -0x2828(%rbp),%rax
    dd05:	48 89 85 78 f8 ff ff 	mov    %rax,-0x788(%rbp)
    dd0c:	48 8d 85 d8 d7 ff ff 	lea    -0x2828(%rbp),%rax
    dd13:	48 89 85 80 f8 ff ff 	mov    %rax,-0x780(%rbp)
    dd1a:	48 8d 85 d8 d7 ff ff 	lea    -0x2828(%rbp),%rax
    dd21:	48 89 85 88 f8 ff ff 	mov    %rax,-0x778(%rbp)
    dd28:	48 8d 85 d8 d7 ff ff 	lea    -0x2828(%rbp),%rax
    dd2f:	48 89 85 90 f8 ff ff 	mov    %rax,-0x770(%rbp)
    dd36:	48 8d 85 d8 d7 ff ff 	lea    -0x2828(%rbp),%rax
    dd3d:	48 89 85 98 f8 ff ff 	mov    %rax,-0x768(%rbp)
    dd44:	48 c7 85 a0 f8 ff ff 	movq   $0x0,-0x760(%rbp)
    dd4b:	00 00 00 00 
    dd4f:	48 c7 85 a8 f8 ff ff 	movq   $0x0,-0x758(%rbp)
    dd56:	00 00 00 00 
    dd5a:	48 8d 85 d8 d7 ff ff 	lea    -0x2828(%rbp),%rax
    dd61:	48 89 85 b0 f8 ff ff 	mov    %rax,-0x750(%rbp)
    dd68:	48 c7 85 b8 f8 ff ff 	movq   $0x0,-0x748(%rbp)
    dd6f:	00 00 00 00 
    dd73:	48 8d 85 d8 d7 ff ff 	lea    -0x2828(%rbp),%rax
    dd7a:	48 89 85 c0 f8 ff ff 	mov    %rax,-0x740(%rbp)
    dd81:	48 8d 85 d8 d7 ff ff 	lea    -0x2828(%rbp),%rax
    dd88:	48 89 85 c8 f8 ff ff 	mov    %rax,-0x738(%rbp)
    dd8f:	48 8d 85 d8 d7 ff ff 	lea    -0x2828(%rbp),%rax
    dd96:	48 89 85 d0 f8 ff ff 	mov    %rax,-0x730(%rbp)
    dd9d:	48 8d 85 d8 d7 ff ff 	lea    -0x2828(%rbp),%rax
    dda4:	48 89 85 d8 f8 ff ff 	mov    %rax,-0x728(%rbp)
    ddab:	48 8d 85 d8 d7 ff ff 	lea    -0x2828(%rbp),%rax
    ddb2:	48 89 85 e0 f8 ff ff 	mov    %rax,-0x720(%rbp)
    ddb9:	48 8d 85 d8 d7 ff ff 	lea    -0x2828(%rbp),%rax
    ddc0:	48 89 85 e8 f8 ff ff 	mov    %rax,-0x718(%rbp)
    ddc7:	48 8d 85 d8 d7 ff ff 	lea    -0x2828(%rbp),%rax
    ddce:	48 89 85 f0 f8 ff ff 	mov    %rax,-0x710(%rbp)
    ddd5:	48 8d 85 d8 d7 ff ff 	lea    -0x2828(%rbp),%rax
    dddc:	48 89 85 f8 f8 ff ff 	mov    %rax,-0x708(%rbp)
    dde3:	48 8d 85 d8 d7 ff ff 	lea    -0x2828(%rbp),%rax
    ddea:	48 89 85 00 f9 ff ff 	mov    %rax,-0x700(%rbp)
    ddf1:	48 8d 85 d8 d7 ff ff 	lea    -0x2828(%rbp),%rax
    ddf8:	48 89 85 08 f9 ff ff 	mov    %rax,-0x6f8(%rbp)
    ddff:	48 8d 85 d8 d7 ff ff 	lea    -0x2828(%rbp),%rax
    de06:	48 89 85 10 f9 ff ff 	mov    %rax,-0x6f0(%rbp)
    de0d:	48 8d 85 d8 d7 ff ff 	lea    -0x2828(%rbp),%rax
    de14:	48 89 85 18 f9 ff ff 	mov    %rax,-0x6e8(%rbp)
    de1b:	48 8d 85 d8 d7 ff ff 	lea    -0x2828(%rbp),%rax
    de22:	48 89 85 20 f9 ff ff 	mov    %rax,-0x6e0(%rbp)
    de29:	48 8d 85 d8 d7 ff ff 	lea    -0x2828(%rbp),%rax
    de30:	48 89 85 28 f9 ff ff 	mov    %rax,-0x6d8(%rbp)
    de37:	48 8d 85 d8 d7 ff ff 	lea    -0x2828(%rbp),%rax
    de3e:	48 89 85 30 f9 ff ff 	mov    %rax,-0x6d0(%rbp)
    de45:	48 8d 85 d8 d7 ff ff 	lea    -0x2828(%rbp),%rax
    de4c:	48 89 85 38 f9 ff ff 	mov    %rax,-0x6c8(%rbp)
    de53:	48 8d 85 d8 d7 ff ff 	lea    -0x2828(%rbp),%rax
    de5a:	48 89 85 40 f9 ff ff 	mov    %rax,-0x6c0(%rbp)
    de61:	48 8d 85 d8 d7 ff ff 	lea    -0x2828(%rbp),%rax
    de68:	48 89 85 48 f9 ff ff 	mov    %rax,-0x6b8(%rbp)
    de6f:	48 8d 85 d8 d7 ff ff 	lea    -0x2828(%rbp),%rax
    de76:	48 89 85 50 f9 ff ff 	mov    %rax,-0x6b0(%rbp)
    de7d:	48 8d 85 d8 d7 ff ff 	lea    -0x2828(%rbp),%rax
    de84:	48 89 85 58 f9 ff ff 	mov    %rax,-0x6a8(%rbp)
    de8b:	48 8d 85 d8 d7 ff ff 	lea    -0x2828(%rbp),%rax
    de92:	48 89 85 60 f9 ff ff 	mov    %rax,-0x6a0(%rbp)
    de99:	48 8d 85 d8 d7 ff ff 	lea    -0x2828(%rbp),%rax
    dea0:	48 89 85 68 f9 ff ff 	mov    %rax,-0x698(%rbp)
    dea7:	48 8d 85 d8 d7 ff ff 	lea    -0x2828(%rbp),%rax
    deae:	48 89 85 70 f9 ff ff 	mov    %rax,-0x690(%rbp)
    deb5:	48 8d 85 d8 d7 ff ff 	lea    -0x2828(%rbp),%rax
    debc:	48 89 85 78 f9 ff ff 	mov    %rax,-0x688(%rbp)
    dec3:	48 8d 85 d8 d7 ff ff 	lea    -0x2828(%rbp),%rax
    deca:	48 89 85 80 f9 ff ff 	mov    %rax,-0x680(%rbp)
    ded1:	48 8d 85 d8 d7 ff ff 	lea    -0x2828(%rbp),%rax
    ded8:	48 89 85 88 f9 ff ff 	mov    %rax,-0x678(%rbp)
    dedf:	48 8d 85 d8 d7 ff ff 	lea    -0x2828(%rbp),%rax
    dee6:	48 89 85 90 f9 ff ff 	mov    %rax,-0x670(%rbp)
    deed:	48 8d 85 d8 d7 ff ff 	lea    -0x2828(%rbp),%rax
    def4:	48 89 85 98 f9 ff ff 	mov    %rax,-0x668(%rbp)
    defb:	48 8d 85 d8 d7 ff ff 	lea    -0x2828(%rbp),%rax
    df02:	48 89 85 a0 f9 ff ff 	mov    %rax,-0x660(%rbp)
    df09:	48 8d 85 d8 d7 ff ff 	lea    -0x2828(%rbp),%rax
    df10:	48 89 85 a8 f9 ff ff 	mov    %rax,-0x658(%rbp)
    df17:	48 8d 85 d8 d7 ff ff 	lea    -0x2828(%rbp),%rax
    df1e:	48 89 85 b0 f9 ff ff 	mov    %rax,-0x650(%rbp)
    df25:	48 8d 85 d8 d7 ff ff 	lea    -0x2828(%rbp),%rax
    df2c:	48 89 85 b8 f9 ff ff 	mov    %rax,-0x648(%rbp)
    df33:	48 8d 85 d8 d7 ff ff 	lea    -0x2828(%rbp),%rax
    df3a:	48 89 85 c0 f9 ff ff 	mov    %rax,-0x640(%rbp)
    df41:	48 8d 85 d8 d7 ff ff 	lea    -0x2828(%rbp),%rax
    df48:	48 89 85 c8 f9 ff ff 	mov    %rax,-0x638(%rbp)
    df4f:	48 8d 85 d8 d7 ff ff 	lea    -0x2828(%rbp),%rax
    df56:	48 89 85 d0 f9 ff ff 	mov    %rax,-0x630(%rbp)
    df5d:	48 8d 85 d8 d7 ff ff 	lea    -0x2828(%rbp),%rax
    df64:	48 89 85 d8 f9 ff ff 	mov    %rax,-0x628(%rbp)
    df6b:	48 8d 85 d8 d7 ff ff 	lea    -0x2828(%rbp),%rax
    df72:	48 89 85 e0 f9 ff ff 	mov    %rax,-0x620(%rbp)
    df79:	48 8d 85 d8 d7 ff ff 	lea    -0x2828(%rbp),%rax
    df80:	48 89 85 e8 f9 ff ff 	mov    %rax,-0x618(%rbp)
    df87:	48 8d 85 d8 d7 ff ff 	lea    -0x2828(%rbp),%rax
    df8e:	48 89 85 f0 f9 ff ff 	mov    %rax,-0x610(%rbp)
    df95:	48 8d 85 d8 d7 ff ff 	lea    -0x2828(%rbp),%rax
    df9c:	48 89 85 f8 f9 ff ff 	mov    %rax,-0x608(%rbp)
    dfa3:	48 8d 85 d8 d7 ff ff 	lea    -0x2828(%rbp),%rax
    dfaa:	48 89 85 00 fa ff ff 	mov    %rax,-0x600(%rbp)
    dfb1:	48 8d 85 d8 d7 ff ff 	lea    -0x2828(%rbp),%rax
    dfb8:	48 89 85 08 fa ff ff 	mov    %rax,-0x5f8(%rbp)
    dfbf:	48 8d 85 d8 d7 ff ff 	lea    -0x2828(%rbp),%rax
    dfc6:	48 89 85 10 fa ff ff 	mov    %rax,-0x5f0(%rbp)
    dfcd:	48 8d 85 d8 d7 ff ff 	lea    -0x2828(%rbp),%rax
    dfd4:	48 89 85 18 fa ff ff 	mov    %rax,-0x5e8(%rbp)
    dfdb:	48 8d 85 d8 d7 ff ff 	lea    -0x2828(%rbp),%rax
    dfe2:	48 89 85 20 fa ff ff 	mov    %rax,-0x5e0(%rbp)
    dfe9:	48 8d 85 d8 d7 ff ff 	lea    -0x2828(%rbp),%rax
    dff0:	48 89 85 28 fa ff ff 	mov    %rax,-0x5d8(%rbp)
    dff7:	48 8d 85 d8 d7 ff ff 	lea    -0x2828(%rbp),%rax
    dffe:	48 89 85 30 fa ff ff 	mov    %rax,-0x5d0(%rbp)
    e005:	48 8d 85 d8 d7 ff ff 	lea    -0x2828(%rbp),%rax
    e00c:	48 89 85 38 fa ff ff 	mov    %rax,-0x5c8(%rbp)
    e013:	48 8d 85 d8 d7 ff ff 	lea    -0x2828(%rbp),%rax
    e01a:	48 89 85 40 fa ff ff 	mov    %rax,-0x5c0(%rbp)
    e021:	48 8d 85 d8 d7 ff ff 	lea    -0x2828(%rbp),%rax
    e028:	48 89 85 48 fa ff ff 	mov    %rax,-0x5b8(%rbp)
    e02f:	48 8d 85 d8 d7 ff ff 	lea    -0x2828(%rbp),%rax
    e036:	48 89 85 50 fa ff ff 	mov    %rax,-0x5b0(%rbp)
    e03d:	48 8d 85 d8 d7 ff ff 	lea    -0x2828(%rbp),%rax
    e044:	48 89 85 58 fa ff ff 	mov    %rax,-0x5a8(%rbp)
    e04b:	48 8d 85 d8 d7 ff ff 	lea    -0x2828(%rbp),%rax
    e052:	48 89 85 60 fa ff ff 	mov    %rax,-0x5a0(%rbp)
    e059:	48 8d 85 d8 d7 ff ff 	lea    -0x2828(%rbp),%rax
    e060:	48 89 85 68 fa ff ff 	mov    %rax,-0x598(%rbp)
    e067:	48 8d 85 d8 d7 ff ff 	lea    -0x2828(%rbp),%rax
    e06e:	48 89 85 70 fa ff ff 	mov    %rax,-0x590(%rbp)
    e075:	48 8d 85 d8 d7 ff ff 	lea    -0x2828(%rbp),%rax
    e07c:	48 89 85 78 fa ff ff 	mov    %rax,-0x588(%rbp)
    e083:	48 8d 85 d8 d7 ff ff 	lea    -0x2828(%rbp),%rax
    e08a:	48 89 85 80 fa ff ff 	mov    %rax,-0x580(%rbp)
    e091:	48 8d 85 d8 d7 ff ff 	lea    -0x2828(%rbp),%rax
    e098:	48 89 85 88 fa ff ff 	mov    %rax,-0x578(%rbp)
    e09f:	48 8d 85 d8 d7 ff ff 	lea    -0x2828(%rbp),%rax
    e0a6:	48 89 85 90 fa ff ff 	mov    %rax,-0x570(%rbp)
    e0ad:	48 8d 85 d8 d7 ff ff 	lea    -0x2828(%rbp),%rax
    e0b4:	48 89 85 98 fa ff ff 	mov    %rax,-0x568(%rbp)
    e0bb:	48 8d 85 d8 d7 ff ff 	lea    -0x2828(%rbp),%rax
    e0c2:	48 89 85 a0 fa ff ff 	mov    %rax,-0x560(%rbp)
    e0c9:	48 8d 85 d8 d7 ff ff 	lea    -0x2828(%rbp),%rax
    e0d0:	48 89 85 a8 fa ff ff 	mov    %rax,-0x558(%rbp)
    e0d7:	48 8d 85 d8 d7 ff ff 	lea    -0x2828(%rbp),%rax
    e0de:	48 89 85 b0 fa ff ff 	mov    %rax,-0x550(%rbp)
    e0e5:	48 8d 85 d8 d7 ff ff 	lea    -0x2828(%rbp),%rax
    e0ec:	48 89 85 b8 fa ff ff 	mov    %rax,-0x548(%rbp)
    e0f3:	48 8d 85 d8 d7 ff ff 	lea    -0x2828(%rbp),%rax
    e0fa:	48 89 85 c0 fa ff ff 	mov    %rax,-0x540(%rbp)
    e101:	48 8d 85 d8 d7 ff ff 	lea    -0x2828(%rbp),%rax
    e108:	48 89 85 c8 fa ff ff 	mov    %rax,-0x538(%rbp)
    e10f:	48 8d 85 d8 d7 ff ff 	lea    -0x2828(%rbp),%rax
    e116:	48 89 85 d0 fa ff ff 	mov    %rax,-0x530(%rbp)
    e11d:	48 8d 85 d8 d7 ff ff 	lea    -0x2828(%rbp),%rax
    e124:	48 89 85 d8 fa ff ff 	mov    %rax,-0x528(%rbp)
    e12b:	48 8d 85 d8 d7 ff ff 	lea    -0x2828(%rbp),%rax
    e132:	48 89 85 e0 fa ff ff 	mov    %rax,-0x520(%rbp)
    e139:	48 8d 85 d8 d7 ff ff 	lea    -0x2828(%rbp),%rax
    e140:	48 89 85 e8 fa ff ff 	mov    %rax,-0x518(%rbp)
    e147:	48 8d 85 d8 d7 ff ff 	lea    -0x2828(%rbp),%rax
    e14e:	48 89 85 f0 fa ff ff 	mov    %rax,-0x510(%rbp)
    e155:	48 8d 85 d8 d7 ff ff 	lea    -0x2828(%rbp),%rax
    e15c:	48 89 85 f8 fa ff ff 	mov    %rax,-0x508(%rbp)
    e163:	48 8d 85 d8 d7 ff ff 	lea    -0x2828(%rbp),%rax
    e16a:	48 89 85 00 fb ff ff 	mov    %rax,-0x500(%rbp)
    e171:	48 8d 85 d8 d7 ff ff 	lea    -0x2828(%rbp),%rax
    e178:	48 89 85 08 fb ff ff 	mov    %rax,-0x4f8(%rbp)
    e17f:	48 8d 85 d8 d7 ff ff 	lea    -0x2828(%rbp),%rax
    e186:	48 89 85 10 fb ff ff 	mov    %rax,-0x4f0(%rbp)
    e18d:	48 8d 85 d8 d7 ff ff 	lea    -0x2828(%rbp),%rax
    e194:	48 89 85 18 fb ff ff 	mov    %rax,-0x4e8(%rbp)
    e19b:	48 8d 85 d8 d7 ff ff 	lea    -0x2828(%rbp),%rax
    e1a2:	48 89 85 20 fb ff ff 	mov    %rax,-0x4e0(%rbp)
    e1a9:	48 8d 85 d8 d7 ff ff 	lea    -0x2828(%rbp),%rax
    e1b0:	48 89 85 28 fb ff ff 	mov    %rax,-0x4d8(%rbp)
    e1b7:	48 8d 85 d8 d7 ff ff 	lea    -0x2828(%rbp),%rax
    e1be:	48 89 85 30 fb ff ff 	mov    %rax,-0x4d0(%rbp)
    e1c5:	48 8d 85 d8 d7 ff ff 	lea    -0x2828(%rbp),%rax
    e1cc:	48 89 85 38 fb ff ff 	mov    %rax,-0x4c8(%rbp)
    e1d3:	48 8d 85 d8 d7 ff ff 	lea    -0x2828(%rbp),%rax
    e1da:	48 89 85 40 fb ff ff 	mov    %rax,-0x4c0(%rbp)
    e1e1:	48 8d 85 d8 d7 ff ff 	lea    -0x2828(%rbp),%rax
    e1e8:	48 89 85 48 fb ff ff 	mov    %rax,-0x4b8(%rbp)
    e1ef:	48 8d 85 d8 d7 ff ff 	lea    -0x2828(%rbp),%rax
    e1f6:	48 89 85 50 fb ff ff 	mov    %rax,-0x4b0(%rbp)
    e1fd:	48 8d 85 d8 d7 ff ff 	lea    -0x2828(%rbp),%rax
    e204:	48 89 85 58 fb ff ff 	mov    %rax,-0x4a8(%rbp)
    e20b:	48 8d 85 d8 d7 ff ff 	lea    -0x2828(%rbp),%rax
    e212:	48 89 85 60 fb ff ff 	mov    %rax,-0x4a0(%rbp)
    e219:	48 8d 85 d8 d7 ff ff 	lea    -0x2828(%rbp),%rax
    e220:	48 89 85 68 fb ff ff 	mov    %rax,-0x498(%rbp)
    e227:	48 8d 85 d8 d7 ff ff 	lea    -0x2828(%rbp),%rax
    e22e:	48 89 85 70 fb ff ff 	mov    %rax,-0x490(%rbp)
    e235:	48 8d 85 d8 d7 ff ff 	lea    -0x2828(%rbp),%rax
    e23c:	48 89 85 78 fb ff ff 	mov    %rax,-0x488(%rbp)
    e243:	48 8d 85 d8 d7 ff ff 	lea    -0x2828(%rbp),%rax
    e24a:	48 89 85 80 fb ff ff 	mov    %rax,-0x480(%rbp)
    e251:	48 8d 85 d8 d7 ff ff 	lea    -0x2828(%rbp),%rax
    e258:	48 89 85 88 fb ff ff 	mov    %rax,-0x478(%rbp)
    e25f:	48 8d 85 d8 d7 ff ff 	lea    -0x2828(%rbp),%rax
    e266:	48 89 85 90 fb ff ff 	mov    %rax,-0x470(%rbp)
    e26d:	48 8d 85 d8 d7 ff ff 	lea    -0x2828(%rbp),%rax
    e274:	48 89 85 98 fb ff ff 	mov    %rax,-0x468(%rbp)
    e27b:	48 8d 85 d8 d7 ff ff 	lea    -0x2828(%rbp),%rax
    e282:	48 89 85 a0 fb ff ff 	mov    %rax,-0x460(%rbp)
    e289:	48 8d 85 d8 d7 ff ff 	lea    -0x2828(%rbp),%rax
    e290:	48 89 85 a8 fb ff ff 	mov    %rax,-0x458(%rbp)
    e297:	48 8d 85 d8 d7 ff ff 	lea    -0x2828(%rbp),%rax
    e29e:	48 89 85 b0 fb ff ff 	mov    %rax,-0x450(%rbp)
    e2a5:	48 8d 85 d8 d7 ff ff 	lea    -0x2828(%rbp),%rax
    e2ac:	48 89 85 b8 fb ff ff 	mov    %rax,-0x448(%rbp)
    e2b3:	48 8d 85 d8 d7 ff ff 	lea    -0x2828(%rbp),%rax
    e2ba:	48 89 85 c0 fb ff ff 	mov    %rax,-0x440(%rbp)
    e2c1:	48 8d 85 d8 d7 ff ff 	lea    -0x2828(%rbp),%rax
    e2c8:	48 89 85 c8 fb ff ff 	mov    %rax,-0x438(%rbp)
    e2cf:	48 8d 85 d8 d7 ff ff 	lea    -0x2828(%rbp),%rax
    e2d6:	48 89 85 d0 fb ff ff 	mov    %rax,-0x430(%rbp)
    e2dd:	48 8d 85 d8 d7 ff ff 	lea    -0x2828(%rbp),%rax
    e2e4:	48 89 85 d8 fb ff ff 	mov    %rax,-0x428(%rbp)
    e2eb:	48 8d 85 d8 d7 ff ff 	lea    -0x2828(%rbp),%rax
    e2f2:	48 89 85 e0 fb ff ff 	mov    %rax,-0x420(%rbp)
    e2f9:	48 8d 85 d8 d7 ff ff 	lea    -0x2828(%rbp),%rax
    e300:	48 89 85 e8 fb ff ff 	mov    %rax,-0x418(%rbp)
    e307:	48 8d 85 d8 d7 ff ff 	lea    -0x2828(%rbp),%rax
    e30e:	48 89 85 f0 fb ff ff 	mov    %rax,-0x410(%rbp)
    e315:	48 8d 85 d8 d7 ff ff 	lea    -0x2828(%rbp),%rax
    e31c:	48 89 85 f8 fb ff ff 	mov    %rax,-0x408(%rbp)
    e323:	48 8d 85 d8 d7 ff ff 	lea    -0x2828(%rbp),%rax
    e32a:	48 89 85 00 fc ff ff 	mov    %rax,-0x400(%rbp)
    e331:	48 8d 85 d8 d7 ff ff 	lea    -0x2828(%rbp),%rax
    e338:	48 89 85 08 fc ff ff 	mov    %rax,-0x3f8(%rbp)
    e33f:	48 8d 85 d8 d7 ff ff 	lea    -0x2828(%rbp),%rax
    e346:	48 89 85 10 fc ff ff 	mov    %rax,-0x3f0(%rbp)
    e34d:	48 8d 85 d8 d7 ff ff 	lea    -0x2828(%rbp),%rax
    e354:	48 89 85 18 fc ff ff 	mov    %rax,-0x3e8(%rbp)
    e35b:	48 8d 85 d8 d7 ff ff 	lea    -0x2828(%rbp),%rax
    e362:	48 89 85 20 fc ff ff 	mov    %rax,-0x3e0(%rbp)
    e369:	48 8d 85 d8 d7 ff ff 	lea    -0x2828(%rbp),%rax
    e370:	48 89 85 28 fc ff ff 	mov    %rax,-0x3d8(%rbp)
    e377:	48 8d 85 d8 d7 ff ff 	lea    -0x2828(%rbp),%rax
    e37e:	48 89 85 30 fc ff ff 	mov    %rax,-0x3d0(%rbp)
    e385:	48 8d 85 d8 d7 ff ff 	lea    -0x2828(%rbp),%rax
    e38c:	48 89 85 38 fc ff ff 	mov    %rax,-0x3c8(%rbp)
    e393:	48 8d 85 d8 d7 ff ff 	lea    -0x2828(%rbp),%rax
    e39a:	48 89 85 40 fc ff ff 	mov    %rax,-0x3c0(%rbp)
    e3a1:	48 8d 85 d8 d7 ff ff 	lea    -0x2828(%rbp),%rax
    e3a8:	48 89 85 48 fc ff ff 	mov    %rax,-0x3b8(%rbp)
    e3af:	48 8d 85 d8 d7 ff ff 	lea    -0x2828(%rbp),%rax
    e3b6:	48 89 85 50 fc ff ff 	mov    %rax,-0x3b0(%rbp)
    e3bd:	48 8d 85 d8 d7 ff ff 	lea    -0x2828(%rbp),%rax
    e3c4:	48 89 85 58 fc ff ff 	mov    %rax,-0x3a8(%rbp)
    e3cb:	48 8d 85 d8 d7 ff ff 	lea    -0x2828(%rbp),%rax
    e3d2:	48 89 85 60 fc ff ff 	mov    %rax,-0x3a0(%rbp)
    e3d9:	48 8d 85 d8 d7 ff ff 	lea    -0x2828(%rbp),%rax
    e3e0:	48 89 85 68 fc ff ff 	mov    %rax,-0x398(%rbp)
    e3e7:	48 8d 85 d8 d7 ff ff 	lea    -0x2828(%rbp),%rax
    e3ee:	48 89 85 70 fc ff ff 	mov    %rax,-0x390(%rbp)
    e3f5:	48 8d 85 d8 d7 ff ff 	lea    -0x2828(%rbp),%rax
    e3fc:	48 89 85 78 fc ff ff 	mov    %rax,-0x388(%rbp)
    e403:	48 8d 85 d8 d7 ff ff 	lea    -0x2828(%rbp),%rax
    e40a:	48 89 85 80 fc ff ff 	mov    %rax,-0x380(%rbp)
    e411:	48 8d 85 d8 d7 ff ff 	lea    -0x2828(%rbp),%rax
    e418:	48 89 85 88 fc ff ff 	mov    %rax,-0x378(%rbp)
    e41f:	48 8d 85 d8 d7 ff ff 	lea    -0x2828(%rbp),%rax
    e426:	48 89 85 90 fc ff ff 	mov    %rax,-0x370(%rbp)
    e42d:	48 8d 85 d8 d7 ff ff 	lea    -0x2828(%rbp),%rax
    e434:	48 89 85 98 fc ff ff 	mov    %rax,-0x368(%rbp)
    e43b:	48 8d 85 d8 d7 ff ff 	lea    -0x2828(%rbp),%rax
    e442:	48 89 85 a0 fc ff ff 	mov    %rax,-0x360(%rbp)
    e449:	48 8d 85 d8 d7 ff ff 	lea    -0x2828(%rbp),%rax
    e450:	48 89 85 a8 fc ff ff 	mov    %rax,-0x358(%rbp)
    e457:	48 8d 85 d8 d7 ff ff 	lea    -0x2828(%rbp),%rax
    e45e:	48 89 85 b0 fc ff ff 	mov    %rax,-0x350(%rbp)
    e465:	48 8d 85 d8 d7 ff ff 	lea    -0x2828(%rbp),%rax
    e46c:	48 89 85 b8 fc ff ff 	mov    %rax,-0x348(%rbp)
    e473:	48 8d 85 d8 d7 ff ff 	lea    -0x2828(%rbp),%rax
    e47a:	48 89 85 c0 fc ff ff 	mov    %rax,-0x340(%rbp)
    e481:	48 8d 85 d8 d7 ff ff 	lea    -0x2828(%rbp),%rax
    e488:	48 89 85 c8 fc ff ff 	mov    %rax,-0x338(%rbp)
    e48f:	48 8d 85 d8 d7 ff ff 	lea    -0x2828(%rbp),%rax
    e496:	48 89 85 d0 fc ff ff 	mov    %rax,-0x330(%rbp)
    e49d:	48 8d 85 d8 d7 ff ff 	lea    -0x2828(%rbp),%rax
    e4a4:	48 89 85 d8 fc ff ff 	mov    %rax,-0x328(%rbp)
    e4ab:	48 8d 85 d8 d7 ff ff 	lea    -0x2828(%rbp),%rax
    e4b2:	48 89 85 e0 fc ff ff 	mov    %rax,-0x320(%rbp)
    e4b9:	48 8d 85 d8 d7 ff ff 	lea    -0x2828(%rbp),%rax
    e4c0:	48 89 85 e8 fc ff ff 	mov    %rax,-0x318(%rbp)
    e4c7:	48 8d 85 d8 d7 ff ff 	lea    -0x2828(%rbp),%rax
    e4ce:	48 89 85 f0 fc ff ff 	mov    %rax,-0x310(%rbp)
    e4d5:	48 8d 85 d8 d7 ff ff 	lea    -0x2828(%rbp),%rax
    e4dc:	48 89 85 f8 fc ff ff 	mov    %rax,-0x308(%rbp)
    e4e3:	48 8d 85 d8 d7 ff ff 	lea    -0x2828(%rbp),%rax
    e4ea:	48 89 85 00 fd ff ff 	mov    %rax,-0x300(%rbp)
    e4f1:	48 8d 85 d8 d7 ff ff 	lea    -0x2828(%rbp),%rax
    e4f8:	48 89 85 08 fd ff ff 	mov    %rax,-0x2f8(%rbp)
    e4ff:	48 8d 85 d8 d7 ff ff 	lea    -0x2828(%rbp),%rax
    e506:	48 89 85 10 fd ff ff 	mov    %rax,-0x2f0(%rbp)
    e50d:	48 8d 85 d8 d7 ff ff 	lea    -0x2828(%rbp),%rax
    e514:	48 89 85 18 fd ff ff 	mov    %rax,-0x2e8(%rbp)
    e51b:	48 8d 85 d8 d7 ff ff 	lea    -0x2828(%rbp),%rax
    e522:	48 89 85 20 fd ff ff 	mov    %rax,-0x2e0(%rbp)
    e529:	48 8d 85 d8 d7 ff ff 	lea    -0x2828(%rbp),%rax
    e530:	48 89 85 28 fd ff ff 	mov    %rax,-0x2d8(%rbp)
    e537:	48 8d 85 d8 d7 ff ff 	lea    -0x2828(%rbp),%rax
    e53e:	48 89 85 30 fd ff ff 	mov    %rax,-0x2d0(%rbp)
    e545:	48 8d 85 d8 d7 ff ff 	lea    -0x2828(%rbp),%rax
    e54c:	48 89 85 38 fd ff ff 	mov    %rax,-0x2c8(%rbp)
    e553:	48 8d 85 d8 d7 ff ff 	lea    -0x2828(%rbp),%rax
    e55a:	48 89 85 40 fd ff ff 	mov    %rax,-0x2c0(%rbp)
    e561:	48 8d 85 d8 d7 ff ff 	lea    -0x2828(%rbp),%rax
    e568:	48 89 85 48 fd ff ff 	mov    %rax,-0x2b8(%rbp)
    e56f:	48 8d 85 d8 d7 ff ff 	lea    -0x2828(%rbp),%rax
    e576:	48 89 85 50 fd ff ff 	mov    %rax,-0x2b0(%rbp)
    e57d:	48 8d 85 d8 d7 ff ff 	lea    -0x2828(%rbp),%rax
    e584:	48 89 85 58 fd ff ff 	mov    %rax,-0x2a8(%rbp)
    e58b:	48 8d 85 d8 d7 ff ff 	lea    -0x2828(%rbp),%rax
    e592:	48 89 85 60 fd ff ff 	mov    %rax,-0x2a0(%rbp)
    e599:	48 8d 85 d8 d7 ff ff 	lea    -0x2828(%rbp),%rax
    e5a0:	48 89 85 68 fd ff ff 	mov    %rax,-0x298(%rbp)
    e5a7:	48 8d 85 d8 d7 ff ff 	lea    -0x2828(%rbp),%rax
    e5ae:	48 89 85 70 fd ff ff 	mov    %rax,-0x290(%rbp)
    e5b5:	48 8d 85 d8 d7 ff ff 	lea    -0x2828(%rbp),%rax
    e5bc:	48 89 85 78 fd ff ff 	mov    %rax,-0x288(%rbp)
    e5c3:	48 8d 85 d8 d7 ff ff 	lea    -0x2828(%rbp),%rax
    e5ca:	48 89 85 80 fd ff ff 	mov    %rax,-0x280(%rbp)
    e5d1:	48 8d 85 d8 d7 ff ff 	lea    -0x2828(%rbp),%rax
    e5d8:	48 89 85 88 fd ff ff 	mov    %rax,-0x278(%rbp)
    e5df:	48 8d 85 d8 d7 ff ff 	lea    -0x2828(%rbp),%rax
    e5e6:	48 89 85 90 fd ff ff 	mov    %rax,-0x270(%rbp)
    e5ed:	48 8d 85 d8 d7 ff ff 	lea    -0x2828(%rbp),%rax
    e5f4:	48 89 85 98 fd ff ff 	mov    %rax,-0x268(%rbp)
    e5fb:	48 8d 85 d8 d7 ff ff 	lea    -0x2828(%rbp),%rax
    e602:	48 89 85 a0 fd ff ff 	mov    %rax,-0x260(%rbp)
    e609:	48 8d 85 d8 d7 ff ff 	lea    -0x2828(%rbp),%rax
    e610:	48 89 85 a8 fd ff ff 	mov    %rax,-0x258(%rbp)
    e617:	48 8d 85 d8 d7 ff ff 	lea    -0x2828(%rbp),%rax
    e61e:	48 89 85 b0 fd ff ff 	mov    %rax,-0x250(%rbp)
    e625:	48 8d 85 d8 d7 ff ff 	lea    -0x2828(%rbp),%rax
    e62c:	48 89 85 b8 fd ff ff 	mov    %rax,-0x248(%rbp)
    e633:	48 8d 85 d8 d7 ff ff 	lea    -0x2828(%rbp),%rax
    e63a:	48 89 85 c0 fd ff ff 	mov    %rax,-0x240(%rbp)
    e641:	48 8d 85 d8 d7 ff ff 	lea    -0x2828(%rbp),%rax
    e648:	48 89 85 c8 fd ff ff 	mov    %rax,-0x238(%rbp)
    e64f:	48 8d 85 d8 d7 ff ff 	lea    -0x2828(%rbp),%rax
    e656:	48 89 85 d0 fd ff ff 	mov    %rax,-0x230(%rbp)
    e65d:	48 8d 85 d8 d7 ff ff 	lea    -0x2828(%rbp),%rax
    e664:	48 89 85 d8 fd ff ff 	mov    %rax,-0x228(%rbp)
    e66b:	48 8d 85 d8 d7 ff ff 	lea    -0x2828(%rbp),%rax
    e672:	48 89 85 e0 fd ff ff 	mov    %rax,-0x220(%rbp)
    e679:	48 8d 85 d8 d7 ff ff 	lea    -0x2828(%rbp),%rax
    e680:	48 89 85 e8 fd ff ff 	mov    %rax,-0x218(%rbp)
    e687:	48 8d 85 d8 d7 ff ff 	lea    -0x2828(%rbp),%rax
    e68e:	48 89 85 f0 fd ff ff 	mov    %rax,-0x210(%rbp)
    e695:	48 8d 85 d8 d7 ff ff 	lea    -0x2828(%rbp),%rax
    e69c:	48 89 85 f8 fd ff ff 	mov    %rax,-0x208(%rbp)
    e6a3:	48 8d 85 d8 d7 ff ff 	lea    -0x2828(%rbp),%rax
    e6aa:	48 89 85 00 fe ff ff 	mov    %rax,-0x200(%rbp)
    e6b1:	48 8d 85 d8 d7 ff ff 	lea    -0x2828(%rbp),%rax
    e6b8:	48 89 85 08 fe ff ff 	mov    %rax,-0x1f8(%rbp)
    e6bf:	48 8d 85 d8 d7 ff ff 	lea    -0x2828(%rbp),%rax
    e6c6:	48 89 85 10 fe ff ff 	mov    %rax,-0x1f0(%rbp)
    e6cd:	48 8d 85 d8 d7 ff ff 	lea    -0x2828(%rbp),%rax
    e6d4:	48 89 85 18 fe ff ff 	mov    %rax,-0x1e8(%rbp)
    e6db:	48 8d 85 d8 d7 ff ff 	lea    -0x2828(%rbp),%rax
    e6e2:	48 89 85 20 fe ff ff 	mov    %rax,-0x1e0(%rbp)
    e6e9:	48 8d 85 d8 d7 ff ff 	lea    -0x2828(%rbp),%rax
    e6f0:	48 89 85 28 fe ff ff 	mov    %rax,-0x1d8(%rbp)
    e6f7:	48 8d 85 d8 d7 ff ff 	lea    -0x2828(%rbp),%rax
    e6fe:	48 89 85 30 fe ff ff 	mov    %rax,-0x1d0(%rbp)
    e705:	48 8d 85 d8 d7 ff ff 	lea    -0x2828(%rbp),%rax
    e70c:	48 89 85 38 fe ff ff 	mov    %rax,-0x1c8(%rbp)
    e713:	48 8d 85 d8 d7 ff ff 	lea    -0x2828(%rbp),%rax
    e71a:	48 89 85 40 fe ff ff 	mov    %rax,-0x1c0(%rbp)
    e721:	48 8d 85 d8 d7 ff ff 	lea    -0x2828(%rbp),%rax
    e728:	48 89 85 48 fe ff ff 	mov    %rax,-0x1b8(%rbp)
    e72f:	48 8d 85 d8 d7 ff ff 	lea    -0x2828(%rbp),%rax
    e736:	48 89 85 50 fe ff ff 	mov    %rax,-0x1b0(%rbp)
    e73d:	48 8d 85 d8 d7 ff ff 	lea    -0x2828(%rbp),%rax
    e744:	48 89 85 58 fe ff ff 	mov    %rax,-0x1a8(%rbp)
    e74b:	48 8d 85 d8 d7 ff ff 	lea    -0x2828(%rbp),%rax
    e752:	48 89 85 60 fe ff ff 	mov    %rax,-0x1a0(%rbp)
    e759:	48 8d 85 d8 d7 ff ff 	lea    -0x2828(%rbp),%rax
    e760:	48 89 85 68 fe ff ff 	mov    %rax,-0x198(%rbp)
    e767:	48 8d 85 d8 d7 ff ff 	lea    -0x2828(%rbp),%rax
    e76e:	48 89 85 70 fe ff ff 	mov    %rax,-0x190(%rbp)
    e775:	48 8d 85 d8 d7 ff ff 	lea    -0x2828(%rbp),%rax
    e77c:	48 89 85 78 fe ff ff 	mov    %rax,-0x188(%rbp)
    e783:	48 8d 85 d8 d7 ff ff 	lea    -0x2828(%rbp),%rax
    e78a:	48 89 85 80 fe ff ff 	mov    %rax,-0x180(%rbp)
    e791:	48 8d 85 d8 d7 ff ff 	lea    -0x2828(%rbp),%rax
    e798:	48 89 85 88 fe ff ff 	mov    %rax,-0x178(%rbp)
    e79f:	48 8d 85 d8 d7 ff ff 	lea    -0x2828(%rbp),%rax
    e7a6:	48 89 85 90 fe ff ff 	mov    %rax,-0x170(%rbp)
    e7ad:	48 8d 85 d8 d7 ff ff 	lea    -0x2828(%rbp),%rax
    e7b4:	48 89 85 98 fe ff ff 	mov    %rax,-0x168(%rbp)
    e7bb:	48 8d 85 d8 d7 ff ff 	lea    -0x2828(%rbp),%rax
    e7c2:	48 89 85 a0 fe ff ff 	mov    %rax,-0x160(%rbp)
    e7c9:	48 8d 85 d8 d7 ff ff 	lea    -0x2828(%rbp),%rax
    e7d0:	48 89 85 a8 fe ff ff 	mov    %rax,-0x158(%rbp)
    e7d7:	48 8d 85 d8 d7 ff ff 	lea    -0x2828(%rbp),%rax
    e7de:	48 89 85 b0 fe ff ff 	mov    %rax,-0x150(%rbp)
    e7e5:	48 8d 85 d8 d7 ff ff 	lea    -0x2828(%rbp),%rax
    e7ec:	48 89 85 b8 fe ff ff 	mov    %rax,-0x148(%rbp)
    e7f3:	48 8d 85 d8 d7 ff ff 	lea    -0x2828(%rbp),%rax
    e7fa:	48 89 85 c0 fe ff ff 	mov    %rax,-0x140(%rbp)
    e801:	48 8d 85 d8 d7 ff ff 	lea    -0x2828(%rbp),%rax
    e808:	48 89 85 c8 fe ff ff 	mov    %rax,-0x138(%rbp)
    e80f:	48 8d 85 d8 d7 ff ff 	lea    -0x2828(%rbp),%rax
    e816:	48 89 85 d0 fe ff ff 	mov    %rax,-0x130(%rbp)
    e81d:	48 8d 85 d8 d7 ff ff 	lea    -0x2828(%rbp),%rax
    e824:	48 89 85 d8 fe ff ff 	mov    %rax,-0x128(%rbp)
    e82b:	48 8d 85 d8 d7 ff ff 	lea    -0x2828(%rbp),%rax
    e832:	48 89 85 e0 fe ff ff 	mov    %rax,-0x120(%rbp)
    e839:	48 8d 85 d8 d7 ff ff 	lea    -0x2828(%rbp),%rax
    e840:	48 89 85 e8 fe ff ff 	mov    %rax,-0x118(%rbp)
    e847:	48 8d 85 d8 d7 ff ff 	lea    -0x2828(%rbp),%rax
    e84e:	48 89 85 f0 fe ff ff 	mov    %rax,-0x110(%rbp)
    e855:	48 8d 85 d8 d7 ff ff 	lea    -0x2828(%rbp),%rax
    e85c:	48 89 85 f8 fe ff ff 	mov    %rax,-0x108(%rbp)
    e863:	48 8d 85 d8 d7 ff ff 	lea    -0x2828(%rbp),%rax
    e86a:	48 89 85 00 ff ff ff 	mov    %rax,-0x100(%rbp)
    e871:	48 8d 85 d8 d7 ff ff 	lea    -0x2828(%rbp),%rax
    e878:	48 89 85 08 ff ff ff 	mov    %rax,-0xf8(%rbp)
    e87f:	48 8d 85 d8 d7 ff ff 	lea    -0x2828(%rbp),%rax
    e886:	48 89 85 10 ff ff ff 	mov    %rax,-0xf0(%rbp)
    e88d:	48 8d 85 d8 d7 ff ff 	lea    -0x2828(%rbp),%rax
    e894:	48 89 85 18 ff ff ff 	mov    %rax,-0xe8(%rbp)
    e89b:	48 8d 85 d8 d7 ff ff 	lea    -0x2828(%rbp),%rax
    e8a2:	48 89 85 20 ff ff ff 	mov    %rax,-0xe0(%rbp)
    e8a9:	48 8d 85 d8 d7 ff ff 	lea    -0x2828(%rbp),%rax
    e8b0:	48 89 85 28 ff ff ff 	mov    %rax,-0xd8(%rbp)
    e8b7:	48 c7 85 30 ff ff ff 	movq   $0x0,-0xd0(%rbp)
    e8be:	00 00 00 00 
    e8c2:	48 8d 85 d8 d7 ff ff 	lea    -0x2828(%rbp),%rax
    e8c9:	48 89 85 38 ff ff ff 	mov    %rax,-0xc8(%rbp)
    e8d0:	48 8d 85 d8 d7 ff ff 	lea    -0x2828(%rbp),%rax
    e8d7:	48 89 85 40 ff ff ff 	mov    %rax,-0xc0(%rbp)
    e8de:	48 c7 85 48 ff ff ff 	movq   $0x0,-0xb8(%rbp)
    e8e5:	00 00 00 00 
    e8e9:	48 8d 85 d8 d7 ff ff 	lea    -0x2828(%rbp),%rax
    e8f0:	48 89 85 50 ff ff ff 	mov    %rax,-0xb0(%rbp)
    e8f7:	48 8d 85 d8 d7 ff ff 	lea    -0x2828(%rbp),%rax
    e8fe:	48 89 85 58 ff ff ff 	mov    %rax,-0xa8(%rbp)
    e905:	48 8d 85 d8 d7 ff ff 	lea    -0x2828(%rbp),%rax
    e90c:	48 89 85 60 ff ff ff 	mov    %rax,-0xa0(%rbp)
    e913:	48 8d 85 d8 d7 ff ff 	lea    -0x2828(%rbp),%rax
    e91a:	48 89 85 68 ff ff ff 	mov    %rax,-0x98(%rbp)
    e921:	48 8d 85 d8 d7 ff ff 	lea    -0x2828(%rbp),%rax
    e928:	48 89 85 70 ff ff ff 	mov    %rax,-0x90(%rbp)
    e92f:	48 8d 85 d8 d7 ff ff 	lea    -0x2828(%rbp),%rax
    e936:	48 89 85 78 ff ff ff 	mov    %rax,-0x88(%rbp)
    e93d:	48 8d 85 d8 d7 ff ff 	lea    -0x2828(%rbp),%rax
    e944:	48 89 45 80          	mov    %rax,-0x80(%rbp)
    e948:	48 8d 85 d8 d7 ff ff 	lea    -0x2828(%rbp),%rax
    e94f:	48 89 45 88          	mov    %rax,-0x78(%rbp)
    e953:	48 8d 85 d8 d7 ff ff 	lea    -0x2828(%rbp),%rax
    e95a:	48 89 45 90          	mov    %rax,-0x70(%rbp)
    e95e:	48 8d 85 d8 d7 ff ff 	lea    -0x2828(%rbp),%rax
    e965:	48 89 45 98          	mov    %rax,-0x68(%rbp)
    e969:	48 8d 85 d8 d7 ff ff 	lea    -0x2828(%rbp),%rax
    e970:	48 89 45 a0          	mov    %rax,-0x60(%rbp)
    e974:	48 c7 45 a8 00 00 00 	movq   $0x0,-0x58(%rbp)
    e97b:	00 
    e97c:	48 8d 85 d8 d7 ff ff 	lea    -0x2828(%rbp),%rax
    e983:	48 89 45 b0          	mov    %rax,-0x50(%rbp)
    e987:	48 8d 85 d8 d7 ff ff 	lea    -0x2828(%rbp),%rax
    e98e:	48 89 45 b8          	mov    %rax,-0x48(%rbp)
    e992:	48 8b 85 d8 d7 ff ff 	mov    -0x2828(%rbp),%rax
    e999:	48 89 85 a0 d9 ff ff 	mov    %rax,-0x2660(%rbp)
    e9a0:	48 8b 85 a0 d9 ff ff 	mov    -0x2660(%rbp),%rax
    e9a7:	48 89 85 08 d8 ff ff 	mov    %rax,-0x27f8(%rbp)
    e9ae:	48 8b 85 08 d8 ff ff 	mov    -0x27f8(%rbp),%rax
    e9b5:	48 89 85 30 ec ff ff 	mov    %rax,-0x13d0(%rbp)
    e9bc:	e9 d5 04 00 00       	jmpq   ee96 <func_28+0x5016>
    e9c1:	48 8d 85 e0 f7 ff ff 	lea    -0x820(%rbp),%rax
    e9c8:	48 8d 15 91 6b 00 00 	lea    0x6b91(%rip),%rdx        # 15560 <g_182+0x50c>
    e9cf:	b9 3c 00 00 00       	mov    $0x3c,%ecx
    e9d4:	48 89 c7             	mov    %rax,%rdi
    e9d7:	48 89 d6             	mov    %rdx,%rsi
    e9da:	f3 48 a5             	rep movsq %ds:(%rsi),%es:(%rdi)
    e9dd:	48 89 f2             	mov    %rsi,%rdx
    e9e0:	48 89 f8             	mov    %rdi,%rax
    e9e3:	8b 0a                	mov    (%rdx),%ecx
    e9e5:	89 08                	mov    %ecx,(%rax)
    e9e7:	48 8d 40 04          	lea    0x4(%rax),%rax
    e9eb:	48 8d 52 04          	lea    0x4(%rdx),%rdx
    e9ef:	0f b7 0a             	movzwl (%rdx),%ecx
    e9f2:	66 89 08             	mov    %cx,(%rax)
    e9f5:	0f b7 85 7c f8 ff ff 	movzwl -0x784(%rbp),%eax
    e9fc:	83 c0 01             	add    $0x1,%eax
    e9ff:	66 89 85 7c f8 ff ff 	mov    %ax,-0x784(%rbp)
    ea06:	e9 8b 04 00 00       	jmpq   ee96 <func_28+0x5016>
    ea0b:	48 8d 05 0e d7 00 00 	lea    0xd70e(%rip),%rax        # 1c120 <g_283>
    ea12:	48 89 85 80 d9 ff ff 	mov    %rax,-0x2680(%rbp)
    ea19:	48 c7 85 88 d9 ff ff 	movq   $0xffffffffffffffff,-0x2678(%rbp)
    ea20:	ff ff ff ff 
    ea24:	44 8b a5 c8 da ff ff 	mov    -0x2538(%rbp),%r12d
    ea2b:	48 8b 05 ce d6 00 00 	mov    0xd6ce(%rip),%rax        # 1c100 <g_239>
    ea32:	48 8b 18             	mov    (%rax),%rbx
    ea35:	48 8b 85 80 d9 ff ff 	mov    -0x2680(%rbp),%rax
    ea3c:	48 8d 95 00 db ff ff 	lea    -0x2500(%rbp),%rdx
    ea43:	48 89 10             	mov    %rdx,(%rax)
    ea46:	48 8b 85 80 d9 ff ff 	mov    -0x2680(%rbp),%rax
    ea4d:	48 8b 10             	mov    (%rax),%rdx
    ea50:	48 8d 85 38 d7 ff ff 	lea    -0x28c8(%rbp),%rax
    ea57:	48 39 c2             	cmp    %rax,%rdx
    ea5a:	0f 94 c0             	sete   %al
    ea5d:	89 c1                	mov    %eax,%ecx
    ea5f:	48 8b 85 30 d9 ff ff 	mov    -0x26d0(%rbp),%rax
    ea66:	48 8b 00             	mov    (%rax),%rax
    ea69:	48 8b 00             	mov    (%rax),%rax
    ea6c:	8b 10                	mov    (%rax),%edx
    ea6e:	48 8b 85 00 d8 ff ff 	mov    -0x2800(%rbp),%rax
    ea75:	48 8b 00             	mov    (%rax),%rax
    ea78:	8b 00                	mov    (%rax),%eax
    ea7a:	39 c2                	cmp    %eax,%edx
    ea7c:	0f 9d c0             	setge  %al
    ea7f:	31 c8                	xor    %ecx,%eax
    ea81:	0f be c0             	movsbl %al,%eax
    ea84:	be 8d ff ff ff       	mov    $0xffffff8d,%esi
    ea89:	89 c7                	mov    %eax,%edi
    ea8b:	e8 da 97 ff ff       	callq  826a <safe_div_func_int8_t_s_s>
    ea90:	48 0f be c0          	movsbq %al,%rax
    ea94:	48 89 de             	mov    %rbx,%rsi
    ea97:	48 89 c7             	mov    %rax,%rdi
    ea9a:	e8 15 9f ff ff       	callq  89b4 <safe_mod_func_int64_t_s_s>
    ea9f:	48 89 c3             	mov    %rax,%rbx
    eaa2:	0f b6 85 e5 d5 ff ff 	movzbl -0x2a1b(%rbp),%eax
    eaa9:	be 01 00 00 00       	mov    $0x1,%esi
    eaae:	89 c7                	mov    %eax,%edi
    eab0:	e8 6a a2 ff ff       	callq  8d1f <safe_sub_func_uint16_t_u_u>
    eab5:	0f b7 d0             	movzwl %ax,%edx
    eab8:	8b 05 ce c0 00 00    	mov    0xc0ce(%rip),%eax        # 1ab8c <g_1425>
    eabe:	39 c2                	cmp    %eax,%edx
    eac0:	0f 97 c0             	seta   %al
    eac3:	0f b6 d0             	movzbl %al,%edx
    eac6:	8b 05 6c b5 00 00    	mov    0xb56c(%rip),%eax        # 1a038 <g_73>
    eacc:	39 c2                	cmp    %eax,%edx
    eace:	0f 9e c0             	setle  %al
    ead1:	0f b6 c0             	movzbl %al,%eax
    ead4:	be d5 db 0e ae       	mov    $0xae0edbd5,%esi
    ead9:	89 c7                	mov    %eax,%edi
    eadb:	e8 1f 9c ff ff       	callq  86ff <safe_div_func_int32_t_s_s>
    eae0:	0f be c0             	movsbl %al,%eax
    eae3:	be 01 00 00 00       	mov    $0x1,%esi
    eae8:	89 c7                	mov    %eax,%edi
    eaea:	e8 ff 97 ff ff       	callq  82ee <safe_lshift_func_int8_t_s_u>
    eaef:	48 0f be c0          	movsbq %al,%rax
    eaf3:	48 39 c3             	cmp    %rax,%rbx
    eaf6:	0f 9e c0             	setle  %al
    eaf9:	0f b6 c0             	movzbl %al,%eax
    eafc:	44 21 e0             	and    %r12d,%eax
    eaff:	83 f8 01             	cmp    $0x1,%eax
    eb02:	0f 96 c2             	setbe  %dl
    eb05:	48 8b 05 14 de 00 00 	mov    0xde14(%rip),%rax        # 1c920 <g_561>
    eb0c:	0f b6 d2             	movzbl %dl,%edx
    eb0f:	89 10                	mov    %edx,(%rax)
    eb11:	8b 00                	mov    (%rax),%eax
    eb13:	85 c0                	test   %eax,%eax
    eb15:	74 22                	je     eb39 <func_28+0x4cb9>
    eb17:	48 8d 05 7a de 00 00 	lea    0xde7a(%rip),%rax        # 1c998 <g_1125>
    eb1e:	48 89 85 98 d9 ff ff 	mov    %rax,-0x2668(%rbp)
    eb25:	48 83 ad 88 d9 ff ff 	subq   $0x1,-0x2678(%rbp)
    eb2c:	01 
    eb2d:	48 8b 85 f8 db ff ff 	mov    -0x2408(%rbp),%rax
    eb34:	e9 47 22 00 00       	jmpq   10d80 <func_28+0x6f00>
    eb39:	48 b8 54 86 95 5e 42 	movabs $0x17379d425e958654,%rax
    eb40:	9d 37 17 
    eb43:	48 89 85 e0 d7 ff ff 	mov    %rax,-0x2820(%rbp)
    eb4a:	48 8d 05 b7 d5 00 00 	lea    0xd5b7(%rip),%rax        # 1c108 <g_270>
    eb51:	48 89 85 50 db ff ff 	mov    %rax,-0x24b0(%rbp)
    eb58:	48 8d 05 a9 d5 00 00 	lea    0xd5a9(%rip),%rax        # 1c108 <g_270>
    eb5f:	48 89 85 58 db ff ff 	mov    %rax,-0x24a8(%rbp)
    eb66:	48 8d 05 9b d5 00 00 	lea    0xd59b(%rip),%rax        # 1c108 <g_270>
    eb6d:	48 89 85 60 db ff ff 	mov    %rax,-0x24a0(%rbp)
    eb74:	48 8d 05 8d d5 00 00 	lea    0xd58d(%rip),%rax        # 1c108 <g_270>
    eb7b:	48 89 85 68 db ff ff 	mov    %rax,-0x2498(%rbp)
    eb82:	48 8d 05 7f d5 00 00 	lea    0xd57f(%rip),%rax        # 1c108 <g_270>
    eb89:	48 89 85 70 db ff ff 	mov    %rax,-0x2490(%rbp)
    eb90:	48 8d 05 71 d5 00 00 	lea    0xd571(%rip),%rax        # 1c108 <g_270>
    eb97:	48 89 85 78 db ff ff 	mov    %rax,-0x2488(%rbp)
    eb9e:	48 8d 05 63 d5 00 00 	lea    0xd563(%rip),%rax        # 1c108 <g_270>
    eba5:	48 89 85 80 db ff ff 	mov    %rax,-0x2480(%rbp)
    ebac:	c7 85 e0 f7 ff ff 97 	movl   $0x95d2ca97,-0x820(%rbp)
    ebb3:	ca d2 95 
    ebb6:	c7 85 e4 f7 ff ff 97 	movl   $0x95d2ca97,-0x81c(%rbp)
    ebbd:	ca d2 95 
    ebc0:	c7 85 e8 f7 ff ff 02 	movl   $0x2,-0x818(%rbp)
    ebc7:	00 00 00 
    ebca:	c7 85 ec f7 ff ff 97 	movl   $0x95d2ca97,-0x814(%rbp)
    ebd1:	ca d2 95 
    ebd4:	c7 85 f0 f7 ff ff 97 	movl   $0x95d2ca97,-0x810(%rbp)
    ebdb:	ca d2 95 
    ebde:	c7 85 f4 f7 ff ff 29 	movl   $0x5bccfa29,-0x80c(%rbp)
    ebe5:	fa cc 5b 
    ebe8:	c7 85 f8 f7 ff ff 29 	movl   $0x5bccfa29,-0x808(%rbp)
    ebef:	fa cc 5b 
    ebf2:	c7 85 fc f7 ff ff 97 	movl   $0x95d2ca97,-0x804(%rbp)
    ebf9:	ca d2 95 
    ebfc:	c7 85 00 f8 ff ff 29 	movl   $0x5bccfa29,-0x800(%rbp)
    ec03:	fa cc 5b 
    ec06:	c7 85 04 f8 ff ff 97 	movl   $0x95d2ca97,-0x7fc(%rbp)
    ec0d:	ca d2 95 
    ec10:	c7 85 08 f8 ff ff 29 	movl   $0x5bccfa29,-0x7f8(%rbp)
    ec17:	fa cc 5b 
    ec1a:	c7 85 0c f8 ff ff 29 	movl   $0x5bccfa29,-0x7f4(%rbp)
    ec21:	fa cc 5b 
    ec24:	c7 85 10 f8 ff ff 97 	movl   $0x95d2ca97,-0x7f0(%rbp)
    ec2b:	ca d2 95 
    ec2e:	c7 85 14 f8 ff ff 97 	movl   $0x95d2ca97,-0x7ec(%rbp)
    ec35:	ca d2 95 
    ec38:	c7 85 18 f8 ff ff 02 	movl   $0x2,-0x7e8(%rbp)
    ec3f:	00 00 00 
    ec42:	c7 85 1c f8 ff ff 97 	movl   $0x95d2ca97,-0x7e4(%rbp)
    ec49:	ca d2 95 
    ec4c:	c7 85 20 f8 ff ff 97 	movl   $0x95d2ca97,-0x7e0(%rbp)
    ec53:	ca d2 95 
    ec56:	c7 85 24 f8 ff ff 29 	movl   $0x5bccfa29,-0x7dc(%rbp)
    ec5d:	fa cc 5b 
    ec60:	c7 85 28 f8 ff ff 29 	movl   $0x5bccfa29,-0x7d8(%rbp)
    ec67:	fa cc 5b 
    ec6a:	c7 85 2c f8 ff ff 97 	movl   $0x95d2ca97,-0x7d4(%rbp)
    ec71:	ca d2 95 
    ec74:	c7 85 30 f8 ff ff 29 	movl   $0x5bccfa29,-0x7d0(%rbp)
    ec7b:	fa cc 5b 
    ec7e:	c7 85 34 f8 ff ff 97 	movl   $0x95d2ca97,-0x7cc(%rbp)
    ec85:	ca d2 95 
    ec88:	c7 85 38 f8 ff ff 29 	movl   $0x5bccfa29,-0x7c8(%rbp)
    ec8f:	fa cc 5b 
    ec92:	c7 85 3c f8 ff ff 29 	movl   $0x5bccfa29,-0x7c4(%rbp)
    ec99:	fa cc 5b 
    ec9c:	c7 85 40 f8 ff ff 97 	movl   $0x95d2ca97,-0x7c0(%rbp)
    eca3:	ca d2 95 
    eca6:	c7 85 44 f8 ff ff 97 	movl   $0x95d2ca97,-0x7bc(%rbp)
    ecad:	ca d2 95 
    ecb0:	c7 85 48 f8 ff ff 02 	movl   $0x2,-0x7b8(%rbp)
    ecb7:	00 00 00 
    ecba:	c7 85 4c f8 ff ff 97 	movl   $0x95d2ca97,-0x7b4(%rbp)
    ecc1:	ca d2 95 
    ecc4:	c7 85 50 f8 ff ff 97 	movl   $0x95d2ca97,-0x7b0(%rbp)
    eccb:	ca d2 95 
    ecce:	c7 85 54 f8 ff ff 29 	movl   $0x5bccfa29,-0x7ac(%rbp)
    ecd5:	fa cc 5b 
    ecd8:	c7 85 58 f8 ff ff 29 	movl   $0x5bccfa29,-0x7a8(%rbp)
    ecdf:	fa cc 5b 
    ece2:	c7 85 5c f8 ff ff 97 	movl   $0x95d2ca97,-0x7a4(%rbp)
    ece9:	ca d2 95 
    ecec:	c7 85 60 f8 ff ff 29 	movl   $0x5bccfa29,-0x7a0(%rbp)
    ecf3:	fa cc 5b 
    ecf6:	c7 85 64 f8 ff ff 97 	movl   $0x95d2ca97,-0x79c(%rbp)
    ecfd:	ca d2 95 
    ed00:	c7 85 68 f8 ff ff 29 	movl   $0x5bccfa29,-0x798(%rbp)
    ed07:	fa cc 5b 
    ed0a:	c7 85 6c f8 ff ff 29 	movl   $0x5bccfa29,-0x794(%rbp)
    ed11:	fa cc 5b 
    ed14:	c7 85 70 f8 ff ff 97 	movl   $0x95d2ca97,-0x790(%rbp)
    ed1b:	ca d2 95 
    ed1e:	c7 85 74 f8 ff ff 97 	movl   $0x95d2ca97,-0x78c(%rbp)
    ed25:	ca d2 95 
    ed28:	c7 85 78 f8 ff ff 02 	movl   $0x2,-0x788(%rbp)
    ed2f:	00 00 00 
    ed32:	c7 85 7c f8 ff ff 97 	movl   $0x95d2ca97,-0x784(%rbp)
    ed39:	ca d2 95 
    ed3c:	c7 85 80 f8 ff ff 97 	movl   $0x95d2ca97,-0x780(%rbp)
    ed43:	ca d2 95 
    ed46:	c7 85 84 f8 ff ff 29 	movl   $0x5bccfa29,-0x77c(%rbp)
    ed4d:	fa cc 5b 
    ed50:	c7 85 88 f8 ff ff 29 	movl   $0x5bccfa29,-0x778(%rbp)
    ed57:	fa cc 5b 
    ed5a:	c7 85 8c f8 ff ff 97 	movl   $0x95d2ca97,-0x774(%rbp)
    ed61:	ca d2 95 
    ed64:	c7 85 90 f8 ff ff 29 	movl   $0x5bccfa29,-0x770(%rbp)
    ed6b:	fa cc 5b 
    ed6e:	c7 85 94 f8 ff ff 97 	movl   $0x95d2ca97,-0x76c(%rbp)
    ed75:	ca d2 95 
    ed78:	c7 85 98 f8 ff ff 29 	movl   $0x5bccfa29,-0x768(%rbp)
    ed7f:	fa cc 5b 
    ed82:	c7 85 9c f8 ff ff 29 	movl   $0x5bccfa29,-0x764(%rbp)
    ed89:	fa cc 5b 
    ed8c:	48 8d 85 90 d7 ff ff 	lea    -0x2870(%rbp),%rax
    ed93:	48 89 85 90 d9 ff ff 	mov    %rax,-0x2670(%rbp)
    ed9a:	48 8b 85 00 d8 ff ff 	mov    -0x2800(%rbp),%rax
    eda1:	48 8b 00             	mov    (%rax),%rax
    eda4:	8b 00                	mov    (%rax),%eax
    eda6:	48 63 d8             	movslq %eax,%rbx
    eda9:	48 8b 05 70 d3 00 00 	mov    0xd370(%rip),%rax        # 1c120 <g_283>
    edb0:	48 8b 95 38 d7 ff ff 	mov    -0x28c8(%rbp),%rdx
    edb7:	48 89 10             	mov    %rdx,(%rax)
    edba:	0f b6 95 e7 d5 ff ff 	movzbl -0x2a19(%rbp),%edx
    edc1:	48 8b 85 50 db ff ff 	mov    -0x24b0(%rbp),%rax
    edc8:	48 85 c0             	test   %rax,%rax
    edcb:	0f 94 c0             	sete   %al
    edce:	0f b6 c0             	movzbl %al,%eax
    edd1:	89 d6                	mov    %edx,%esi
    edd3:	89 c7                	mov    %eax,%edi
    edd5:	e8 25 9f ff ff       	callq  8cff <safe_add_func_uint16_t_u_u>
    edda:	0f b7 d0             	movzwl %ax,%edx
    eddd:	48 8b 85 f8 d7 ff ff 	mov    -0x2808(%rbp),%rax
    ede4:	48 c7 00 01 00 00 00 	movq   $0x1,(%rax)
    edeb:	48 8b 85 f8 d7 ff ff 	mov    -0x2808(%rbp),%rax
    edf2:	48 8b 00             	mov    (%rax),%rax
    edf5:	48 89 d6             	mov    %rdx,%rsi
    edf8:	48 89 c7             	mov    %rax,%rdi
    edfb:	e8 f7 9b ff ff       	callq  89f7 <safe_div_func_int64_t_s_s>
    ee00:	48 83 f8 fb          	cmp    $0xfffffffffffffffb,%rax
    ee04:	0f 94 c0             	sete   %al
    ee07:	0f b6 d0             	movzbl %al,%edx
    ee0a:	48 8b 85 30 d9 ff ff 	mov    -0x26d0(%rbp),%rax
    ee11:	48 8b 00             	mov    (%rax),%rax
    ee14:	48 8b 00             	mov    (%rax),%rax
    ee17:	8b 00                	mov    (%rax),%eax
    ee19:	39 c2                	cmp    %eax,%edx
    ee1b:	0f 9e c0             	setle  %al
    ee1e:	0f b6 c0             	movzbl %al,%eax
    ee21:	89 c6                	mov    %eax,%esi
    ee23:	bf b6 6e 00 00       	mov    $0x6eb6,%edi
    ee28:	e8 c8 95 ff ff       	callq  83f5 <safe_mul_func_int16_t_s_s>
    ee2d:	66 83 f8 fb          	cmp    $0xfffb,%ax
    ee31:	0f 97 c0             	seta   %al
    ee34:	0f b6 d0             	movzbl %al,%edx
    ee37:	48 8b 85 30 d9 ff ff 	mov    -0x26d0(%rbp),%rax
    ee3e:	48 8b 00             	mov    (%rax),%rax
    ee41:	48 8b 00             	mov    (%rax),%rax
    ee44:	8b 00                	mov    (%rax),%eax
    ee46:	98                   	cwtl   
    ee47:	89 d6                	mov    %edx,%esi
    ee49:	89 c7                	mov    %eax,%edi
    ee4b:	e8 a5 95 ff ff       	callq  83f5 <safe_mul_func_int16_t_s_s>
    ee50:	89 c2                	mov    %eax,%edx
    ee52:	48 8b 05 a7 d2 00 00 	mov    0xd2a7(%rip),%rax        # 1c100 <g_239>
    ee59:	48 0f bf d2          	movswq %dx,%rdx
    ee5d:	48 89 10             	mov    %rdx,(%rax)
    ee60:	48 8b 00             	mov    (%rax),%rax
    ee63:	48 89 de             	mov    %rbx,%rsi
    ee66:	48 89 c7             	mov    %rax,%rdi
    ee69:	e8 89 9b ff ff       	callq  89f7 <safe_div_func_int64_t_s_s>
    ee6e:	48 85 c0             	test   %rax,%rax
    ee71:	8b 05 c5 b5 00 00    	mov    0xb5c5(%rip),%eax        # 1a43c <g_856>
    ee77:	ba 00 00 00 00       	mov    $0x0,%edx
    ee7c:	8b 85 8c f8 ff ff    	mov    -0x774(%rbp),%eax
    ee82:	31 d0                	xor    %edx,%eax
    ee84:	89 85 8c f8 ff ff    	mov    %eax,-0x774(%rbp)
    ee8a:	48 8d 05 07 db 00 00 	lea    0xdb07(%rip),%rax        # 1c998 <g_1125>
    ee91:	e9 ea 1e 00 00       	jmpq   10d80 <func_28+0x6f00>
    ee96:	48 8b 05 13 db 00 00 	mov    0xdb13(%rip),%rax        # 1c9b0 <g_1126>
    ee9d:	48 8b 00             	mov    (%rax),%rax
    eea0:	48 8b 00             	mov    (%rax),%rax
    eea3:	0f b7 00             	movzwl (%rax),%eax
    eea6:	0f bf d8             	movswl %ax,%ebx
    eea9:	48 8b 05 50 d2 00 00 	mov    0xd250(%rip),%rax        # 1c100 <g_239>
    eeb0:	48 8b 10             	mov    (%rax),%rdx
    eeb3:	48 8b 05 46 d2 00 00 	mov    0xd246(%rip),%rax        # 1c100 <g_239>
    eeba:	48 8b 00             	mov    (%rax),%rax
    eebd:	48 89 d6             	mov    %rdx,%rsi
    eec0:	48 89 c7             	mov    %rax,%rdi
    eec3:	e8 2f 9b ff ff       	callq  89f7 <safe_div_func_int64_t_s_s>
    eec8:	49 89 c6             	mov    %rax,%r14
    eecb:	48 8b 85 00 d8 ff ff 	mov    -0x2800(%rbp),%rax
    eed2:	48 8b 00             	mov    (%rax),%rax
    eed5:	8b 00                	mov    (%rax),%eax
    eed7:	44 0f b7 e0          	movzwl %ax,%r12d
    eedb:	48 8b 85 30 d9 ff ff 	mov    -0x26d0(%rbp),%rax
    eee2:	48 8b 00             	mov    (%rax),%rax
    eee5:	48 8b 00             	mov    (%rax),%rax
    eee8:	44 8b 28             	mov    (%rax),%r13d
    eeeb:	48 8b 85 00 d8 ff ff 	mov    -0x2800(%rbp),%rax
    eef2:	48 8b 00             	mov    (%rax),%rax
    eef5:	8b 00                	mov    (%rax),%eax
    eef7:	48 63 d0             	movslq %eax,%rdx
    eefa:	48 8b 05 17 b5 00 00 	mov    0xb517(%rip),%rax        # 1a418 <g_854+0x18>
    ef01:	48 39 c2             	cmp    %rax,%rdx
    ef04:	0f 9d c0             	setge  %al
    ef07:	89 c2                	mov    %eax,%edx
    ef09:	48 8b 85 40 d9 ff ff 	mov    -0x26c0(%rbp),%rax
    ef10:	88 10                	mov    %dl,(%rax)
    ef12:	48 8b 85 40 d9 ff ff 	mov    -0x26c0(%rbp),%rax
    ef19:	0f b6 00             	movzbl (%rax),%eax
    ef1c:	44 0f be f8          	movsbl %al,%r15d
    ef20:	48 8b 85 30 d9 ff ff 	mov    -0x26d0(%rbp),%rax
    ef27:	48 8b 00             	mov    (%rax),%rax
    ef2a:	48 8b 00             	mov    (%rax),%rax
    ef2d:	8b 00                	mov    (%rax),%eax
    ef2f:	85 c0                	test   %eax,%eax
    ef31:	75 0f                	jne    ef42 <func_28+0x50c2>
    ef33:	48 8b 05 c6 d1 00 00 	mov    0xd1c6(%rip),%rax        # 1c100 <g_239>
    ef3a:	48 8b 00             	mov    (%rax),%rax
    ef3d:	48 85 c0             	test   %rax,%rax
    ef40:	74 07                	je     ef49 <func_28+0x50c9>
    ef42:	b8 01 00 00 00       	mov    $0x1,%eax
    ef47:	eb 05                	jmp    ef4e <func_28+0x50ce>
    ef49:	b8 00 00 00 00       	mov    $0x0,%eax
    ef4e:	48 63 d0             	movslq %eax,%rdx
    ef51:	48 8b 05 a8 d1 00 00 	mov    0xd1a8(%rip),%rax        # 1c100 <g_239>
    ef58:	48 8b 00             	mov    (%rax),%rax
    ef5b:	48 39 c2             	cmp    %rax,%rdx
    ef5e:	0f 9c c0             	setl   %al
    ef61:	0f b6 c0             	movzbl %al,%eax
    ef64:	89 c6                	mov    %eax,%esi
    ef66:	bf b0 97 26 32       	mov    $0x322697b0,%edi
    ef6b:	e8 60 9f ff ff       	callq  8ed0 <safe_sub_func_uint32_t_u_u>
    ef70:	0f b6 c0             	movzbl %al,%eax
    ef73:	be eb 00 00 00       	mov    $0xeb,%esi
    ef78:	89 c7                	mov    %eax,%edi
    ef7a:	e8 5c 9c ff ff       	callq  8bdb <safe_div_func_uint8_t_u_u>
    ef7f:	0f b6 d0             	movzbl %al,%edx
    ef82:	48 8b 85 90 d7 ff ff 	mov    -0x2870(%rbp),%rax
    ef89:	8b 00                	mov    (%rax),%eax
    ef8b:	39 c2                	cmp    %eax,%edx
    ef8d:	0f 94 c0             	sete   %al
    ef90:	0f b6 c0             	movzbl %al,%eax
    ef93:	41 39 c7             	cmp    %eax,%r15d
    ef96:	48 8b 85 90 d7 ff ff 	mov    -0x2870(%rbp),%rax
    ef9d:	8b 00                	mov    (%rax),%eax
    ef9f:	89 c2                	mov    %eax,%edx
    efa1:	48 8b 85 38 d9 ff ff 	mov    -0x26c8(%rbp),%rax
    efa8:	66 89 10             	mov    %dx,(%rax)
    efab:	48 8b 85 38 d9 ff ff 	mov    -0x26c8(%rbp),%rax
    efb2:	0f b7 00             	movzwl (%rax),%eax
    efb5:	0f bf d0             	movswl %ax,%edx
    efb8:	48 8b 85 30 d9 ff ff 	mov    -0x26d0(%rbp),%rax
    efbf:	48 8b 00             	mov    (%rax),%rax
    efc2:	48 8b 00             	mov    (%rax),%rax
    efc5:	8b 00                	mov    (%rax),%eax
    efc7:	09 d0                	or     %edx,%eax
    efc9:	0d 68 27 00 00       	or     $0x2768,%eax
    efce:	44 89 ee             	mov    %r13d,%esi
    efd1:	89 c7                	mov    %eax,%edi
    efd3:	e8 de 95 ff ff       	callq  85b6 <safe_add_func_int32_t_s_s>
    efd8:	48 8b 85 30 d9 ff ff 	mov    -0x26d0(%rbp),%rax
    efdf:	48 8b 00             	mov    (%rax),%rax
    efe2:	48 8b 00             	mov    (%rax),%rax
    efe5:	8b 00                	mov    (%rax),%eax
    efe7:	0f be c0             	movsbl %al,%eax
    efea:	be 01 00 00 00       	mov    $0x1,%esi
    efef:	89 c7                	mov    %eax,%edi
    eff1:	e8 1c 92 ff ff       	callq  8212 <safe_mul_func_int8_t_s_s>
    eff6:	48 0f be d0          	movsbq %al,%rdx
    effa:	48 8b 05 27 bb 00 00 	mov    0xbb27(%rip),%rax        # 1ab28 <g_1047+0x6c8>
    f001:	48 39 c2             	cmp    %rax,%rdx
    f004:	75 1a                	jne    f020 <func_28+0x51a0>
    f006:	48 8b 85 30 d9 ff ff 	mov    -0x26d0(%rbp),%rax
    f00d:	48 8b 00             	mov    (%rax),%rax
    f010:	48 8b 00             	mov    (%rax),%rax
    f013:	8b 00                	mov    (%rax),%eax
    f015:	85 c0                	test   %eax,%eax
    f017:	74 07                	je     f020 <func_28+0x51a0>
    f019:	ba 01 00 00 00       	mov    $0x1,%edx
    f01e:	eb 05                	jmp    f025 <func_28+0x51a5>
    f020:	ba 00 00 00 00       	mov    $0x0,%edx
    f025:	48 8b 85 30 d9 ff ff 	mov    -0x26d0(%rbp),%rax
    f02c:	48 8b 00             	mov    (%rax),%rax
    f02f:	48 8b 00             	mov    (%rax),%rax
    f032:	8b 00                	mov    (%rax),%eax
    f034:	39 c2                	cmp    %eax,%edx
    f036:	0f 9e c0             	setle  %al
    f039:	0f b6 c0             	movzbl %al,%eax
    f03c:	44 89 e6             	mov    %r12d,%esi
    f03f:	89 c7                	mov    %eax,%edi
    f041:	e8 48 9d ff ff       	callq  8d8e <safe_div_func_uint16_t_u_u>
    f046:	0f b7 c0             	movzwl %ax,%eax
    f049:	89 c7                	mov    %eax,%edi
    f04b:	e8 56 9e ff ff       	callq  8ea6 <safe_unary_minus_func_uint32_t_u>
    f050:	0f be c0             	movsbl %al,%eax
    f053:	be 05 00 00 00       	mov    $0x5,%esi
    f058:	89 c7                	mov    %eax,%edi
    f05a:	e8 42 92 ff ff       	callq  82a1 <safe_lshift_func_int8_t_s_s>
    f05f:	48 0f be c0          	movsbq %al,%rax
    f063:	49 39 c6             	cmp    %rax,%r14
    f066:	48 8b 85 90 d7 ff ff 	mov    -0x2870(%rbp),%rax
    f06d:	8b 00                	mov    (%rax),%eax
    f06f:	83 f8 fe             	cmp    $0xfffffffe,%eax
    f072:	0f 9c c2             	setl   %dl
    f075:	48 8b 85 70 d7 ff ff 	mov    -0x2890(%rbp),%rax
    f07c:	48 8b 00             	mov    (%rax),%rax
    f07f:	0f b6 d2             	movzbl %dl,%edx
    f082:	48 89 10             	mov    %rdx,(%rax)
    f085:	48 8b 00             	mov    (%rax),%rax
    f088:	89 c2                	mov    %eax,%edx
    f08a:	48 8b 05 17 b0 00 00 	mov    0xb017(%rip),%rax        # 1a0a8 <g_161+0x28>
    f091:	31 d0                	xor    %edx,%eax
    f093:	0f b7 c0             	movzwl %ax,%eax
    f096:	be 7c aa 00 00       	mov    $0xaa7c,%esi
    f09b:	89 c7                	mov    %eax,%edi
    f09d:	e8 9b 9c ff ff       	callq  8d3d <safe_mul_func_uint16_t_u_u>
    f0a2:	98                   	cwtl   
    f0a3:	89 de                	mov    %ebx,%esi
    f0a5:	89 c7                	mov    %eax,%edi
    f0a7:	e8 49 93 ff ff       	callq  83f5 <safe_mul_func_int16_t_s_s>
    f0ac:	66 85 c0             	test   %ax,%ax
    f0af:	0f 84 29 04 00 00    	je     f4de <func_28+0x565e>
    f0b5:	48 8d 85 c0 d7 ff ff 	lea    -0x2840(%rbp),%rax
    f0bc:	48 89 85 e0 f7 ff ff 	mov    %rax,-0x820(%rbp)
    f0c3:	48 8d 85 c0 d7 ff ff 	lea    -0x2840(%rbp),%rax
    f0ca:	48 89 85 e8 f7 ff ff 	mov    %rax,-0x818(%rbp)
    f0d1:	48 8d 85 c0 d7 ff ff 	lea    -0x2840(%rbp),%rax
    f0d8:	48 89 85 f0 f7 ff ff 	mov    %rax,-0x810(%rbp)
    f0df:	48 8d 85 c0 d7 ff ff 	lea    -0x2840(%rbp),%rax
    f0e6:	48 89 85 f8 f7 ff ff 	mov    %rax,-0x808(%rbp)
    f0ed:	48 8d 85 c0 d7 ff ff 	lea    -0x2840(%rbp),%rax
    f0f4:	48 89 85 00 f8 ff ff 	mov    %rax,-0x800(%rbp)
    f0fb:	48 8d 85 c0 d7 ff ff 	lea    -0x2840(%rbp),%rax
    f102:	48 89 85 08 f8 ff ff 	mov    %rax,-0x7f8(%rbp)
    f109:	48 8d 85 c0 d7 ff ff 	lea    -0x2840(%rbp),%rax
    f110:	48 89 85 10 f8 ff ff 	mov    %rax,-0x7f0(%rbp)
    f117:	48 8d 85 c0 d7 ff ff 	lea    -0x2840(%rbp),%rax
    f11e:	48 89 85 18 f8 ff ff 	mov    %rax,-0x7e8(%rbp)
    f125:	48 8d 85 c0 d7 ff ff 	lea    -0x2840(%rbp),%rax
    f12c:	48 89 85 20 f8 ff ff 	mov    %rax,-0x7e0(%rbp)
    f133:	48 8d 85 c0 d7 ff ff 	lea    -0x2840(%rbp),%rax
    f13a:	48 89 85 28 f8 ff ff 	mov    %rax,-0x7d8(%rbp)
    f141:	48 c7 85 30 f8 ff ff 	movq   $0x0,-0x7d0(%rbp)
    f148:	00 00 00 00 
    f14c:	48 8d 85 c0 d7 ff ff 	lea    -0x2840(%rbp),%rax
    f153:	48 89 85 38 f8 ff ff 	mov    %rax,-0x7c8(%rbp)
    f15a:	48 8d 85 c0 d7 ff ff 	lea    -0x2840(%rbp),%rax
    f161:	48 89 85 40 f8 ff ff 	mov    %rax,-0x7c0(%rbp)
    f168:	48 8d 85 c0 d7 ff ff 	lea    -0x2840(%rbp),%rax
    f16f:	48 89 85 48 f8 ff ff 	mov    %rax,-0x7b8(%rbp)
    f176:	48 8d 85 c0 d7 ff ff 	lea    -0x2840(%rbp),%rax
    f17d:	48 89 85 50 f8 ff ff 	mov    %rax,-0x7b0(%rbp)
    f184:	48 c7 85 58 f8 ff ff 	movq   $0x0,-0x7a8(%rbp)
    f18b:	00 00 00 00 
    f18f:	48 c7 85 60 f8 ff ff 	movq   $0x0,-0x7a0(%rbp)
    f196:	00 00 00 00 
    f19a:	48 c7 85 68 f8 ff ff 	movq   $0x0,-0x798(%rbp)
    f1a1:	00 00 00 00 
    f1a5:	48 8d 85 c0 d7 ff ff 	lea    -0x2840(%rbp),%rax
    f1ac:	48 89 85 70 f8 ff ff 	mov    %rax,-0x790(%rbp)
    f1b3:	48 8d 85 c0 d7 ff ff 	lea    -0x2840(%rbp),%rax
    f1ba:	48 89 85 78 f8 ff ff 	mov    %rax,-0x788(%rbp)
    f1c1:	48 8d 85 c0 d7 ff ff 	lea    -0x2840(%rbp),%rax
    f1c8:	48 89 85 80 f8 ff ff 	mov    %rax,-0x780(%rbp)
    f1cf:	48 8d 85 c0 d7 ff ff 	lea    -0x2840(%rbp),%rax
    f1d6:	48 89 85 88 f8 ff ff 	mov    %rax,-0x778(%rbp)
    f1dd:	48 8d 85 c0 d7 ff ff 	lea    -0x2840(%rbp),%rax
    f1e4:	48 89 85 90 f8 ff ff 	mov    %rax,-0x770(%rbp)
    f1eb:	48 8d 85 c0 d7 ff ff 	lea    -0x2840(%rbp),%rax
    f1f2:	48 89 85 98 f8 ff ff 	mov    %rax,-0x768(%rbp)
    f1f9:	48 8d 85 c0 d7 ff ff 	lea    -0x2840(%rbp),%rax
    f200:	48 89 85 a0 f8 ff ff 	mov    %rax,-0x760(%rbp)
    f207:	48 8d 85 c0 d7 ff ff 	lea    -0x2840(%rbp),%rax
    f20e:	48 89 85 a8 f8 ff ff 	mov    %rax,-0x758(%rbp)
    f215:	48 8d 85 c0 d7 ff ff 	lea    -0x2840(%rbp),%rax
    f21c:	48 89 85 b0 f8 ff ff 	mov    %rax,-0x750(%rbp)
    f223:	48 8d 85 c0 d7 ff ff 	lea    -0x2840(%rbp),%rax
    f22a:	48 89 85 b8 f8 ff ff 	mov    %rax,-0x748(%rbp)
    f231:	48 c7 85 c0 f8 ff ff 	movq   $0x0,-0x740(%rbp)
    f238:	00 00 00 00 
    f23c:	48 8d 85 c0 d7 ff ff 	lea    -0x2840(%rbp),%rax
    f243:	48 89 85 c8 f8 ff ff 	mov    %rax,-0x738(%rbp)
    f24a:	48 8d 85 c0 d7 ff ff 	lea    -0x2840(%rbp),%rax
    f251:	48 89 85 d0 f8 ff ff 	mov    %rax,-0x730(%rbp)
    f258:	48 c7 85 d8 f8 ff ff 	movq   $0x0,-0x728(%rbp)
    f25f:	00 00 00 00 
    f263:	48 8d 85 c0 d7 ff ff 	lea    -0x2840(%rbp),%rax
    f26a:	48 89 85 e0 f8 ff ff 	mov    %rax,-0x720(%rbp)
    f271:	48 8d 85 c0 d7 ff ff 	lea    -0x2840(%rbp),%rax
    f278:	48 89 85 e8 f8 ff ff 	mov    %rax,-0x718(%rbp)
    f27f:	48 8d 85 c0 d7 ff ff 	lea    -0x2840(%rbp),%rax
    f286:	48 89 85 f0 f8 ff ff 	mov    %rax,-0x710(%rbp)
    f28d:	48 8d 85 c0 d7 ff ff 	lea    -0x2840(%rbp),%rax
    f294:	48 89 85 f8 f8 ff ff 	mov    %rax,-0x708(%rbp)
    f29b:	48 8d 85 c0 d7 ff ff 	lea    -0x2840(%rbp),%rax
    f2a2:	48 89 85 00 f9 ff ff 	mov    %rax,-0x700(%rbp)
    f2a9:	48 8d 85 c0 d7 ff ff 	lea    -0x2840(%rbp),%rax
    f2b0:	48 89 85 08 f9 ff ff 	mov    %rax,-0x6f8(%rbp)
    f2b7:	48 8d 85 c0 d7 ff ff 	lea    -0x2840(%rbp),%rax
    f2be:	48 89 85 10 f9 ff ff 	mov    %rax,-0x6f0(%rbp)
    f2c5:	48 8d 85 c0 d7 ff ff 	lea    -0x2840(%rbp),%rax
    f2cc:	48 89 85 18 f9 ff ff 	mov    %rax,-0x6e8(%rbp)
    f2d3:	c7 85 b0 d6 ff ff b4 	movl   $0x1bf35ab4,-0x2950(%rbp)
    f2da:	5a f3 1b 
    f2dd:	c7 85 b4 d6 ff ff 00 	movl   $0x0,-0x294c(%rbp)
    f2e4:	00 00 00 
    f2e7:	c7 85 b8 d6 ff ff 00 	movl   $0x0,-0x2948(%rbp)
    f2ee:	00 00 00 
    f2f1:	48 8b 85 c0 d7 ff ff 	mov    -0x2840(%rbp),%rax
    f2f8:	48 89 85 78 d8 ff ff 	mov    %rax,-0x2788(%rbp)
    f2ff:	48 8d 85 98 d7 ff ff 	lea    -0x2868(%rbp),%rax
    f306:	48 39 85 78 d8 ff ff 	cmp    %rax,-0x2788(%rbp)
    f30d:	0f 94 c0             	sete   %al
    f310:	44 0f b6 e0          	movzbl %al,%r12d
    f314:	48 8b 85 b8 d7 ff ff 	mov    -0x2848(%rbp),%rax
    f31b:	48 8b 00             	mov    (%rax),%rax
    f31e:	48 8b 95 d0 d7 ff ff 	mov    -0x2830(%rbp),%rdx
    f325:	48 89 10             	mov    %rdx,(%rax)
    f328:	48 8b 85 00 d8 ff ff 	mov    -0x2800(%rbp),%rax
    f32f:	48 8b 00             	mov    (%rax),%rax
    f332:	8b 18                	mov    (%rax),%ebx
    f334:	48 8b 85 30 d9 ff ff 	mov    -0x26d0(%rbp),%rax
    f33b:	48 8b 00             	mov    (%rax),%rax
    f33e:	48 8b 00             	mov    (%rax),%rax
    f341:	8b 00                	mov    (%rax),%eax
    f343:	41 89 c5             	mov    %eax,%r13d
    f346:	48 8b 85 d8 d5 ff ff 	mov    -0x2a28(%rbp),%rax
    f34d:	48 8b 00             	mov    (%rax),%rax
    f350:	8b 10                	mov    (%rax),%edx
    f352:	48 8b 05 8f cd 00 00 	mov    0xcd8f(%rip),%rax        # 1c0e8 <g_15>
    f359:	48 8b 00             	mov    (%rax),%rax
    f35c:	8b 00                	mov    (%rax),%eax
    f35e:	39 c2                	cmp    %eax,%edx
    f360:	0f 95 c0             	setne  %al
    f363:	0f b6 d0             	movzbl %al,%edx
    f366:	48 8b 85 00 d8 ff ff 	mov    -0x2800(%rbp),%rax
    f36d:	48 8b 00             	mov    (%rax),%rax
    f370:	8b 00                	mov    (%rax),%eax
    f372:	0f b7 c0             	movzwl %ax,%eax
    f375:	89 d6                	mov    %edx,%esi
    f377:	89 c7                	mov    %eax,%edi
    f379:	e8 bf 99 ff ff       	callq  8d3d <safe_mul_func_uint16_t_u_u>
    f37e:	0f b7 c0             	movzwl %ax,%eax
    f381:	39 85 58 d6 ff ff    	cmp    %eax,-0x29a8(%rbp)
    f387:	0f 9d c0             	setge  %al
    f38a:	0f b6 c0             	movzbl %al,%eax
    f38d:	44 89 ee             	mov    %r13d,%esi
    f390:	89 c7                	mov    %eax,%edi
    f392:	e8 e3 9a ff ff       	callq  8e7a <safe_rshift_func_uint16_t_u_u>
    f397:	66 3d f6 00          	cmp    $0xf6,%ax
    f39b:	0f 97 c0             	seta   %al
    f39e:	0f b6 d0             	movzbl %al,%edx
    f3a1:	48 8b 85 30 d9 ff ff 	mov    -0x26d0(%rbp),%rax
    f3a8:	48 8b 00             	mov    (%rax),%rax
    f3ab:	48 8b 00             	mov    (%rax),%rax
    f3ae:	8b 00                	mov    (%rax),%eax
    f3b0:	31 d0                	xor    %edx,%eax
    f3b2:	89 c2                	mov    %eax,%edx
    f3b4:	8b 05 a6 ac 00 00    	mov    0xaca6(%rip),%eax        # 1a060 <g_159>
    f3ba:	39 c2                	cmp    %eax,%edx
    f3bc:	0f 93 c0             	setae  %al
    f3bf:	0f b6 c0             	movzbl %al,%eax
    f3c2:	be c5 00 00 00       	mov    $0xc5,%esi
    f3c7:	89 c7                	mov    %eax,%edi
    f3c9:	e8 aa 97 ff ff       	callq  8b78 <safe_sub_func_uint8_t_u_u>
    f3ce:	89 c2                	mov    %eax,%edx
    f3d0:	48 8b 85 b0 d7 ff ff 	mov    -0x2850(%rbp),%rax
    f3d7:	48 8b 00             	mov    (%rax),%rax
    f3da:	48 8b 00             	mov    (%rax),%rax
    f3dd:	48 8b 00             	mov    (%rax),%rax
    f3e0:	0f b6 d2             	movzbl %dl,%edx
    f3e3:	66 89 10             	mov    %dx,(%rax)
    f3e6:	0f b7 00             	movzwl (%rax),%eax
    f3e9:	0f b7 d0             	movzwl %ax,%edx
    f3ec:	48 8b 85 00 d8 ff ff 	mov    -0x2800(%rbp),%rax
    f3f3:	48 8b 00             	mov    (%rax),%rax
    f3f6:	8b 00                	mov    (%rax),%eax
    f3f8:	39 c2                	cmp    %eax,%edx
    f3fa:	0f 95 c0             	setne  %al
    f3fd:	0f b6 c0             	movzbl %al,%eax
    f400:	89 de                	mov    %ebx,%esi
    f402:	89 c7                	mov    %eax,%edi
    f404:	e8 89 90 ff ff       	callq  8492 <safe_lshift_func_int16_t_s_s>
    f409:	48 8b 85 d0 d5 ff ff 	mov    -0x2a30(%rbp),%rax
    f410:	48 8b 00             	mov    (%rax),%rax
    f413:	48 8b 00             	mov    (%rax),%rax
    f416:	8b 00                	mov    (%rax),%eax
    f418:	83 f8 01             	cmp    $0x1,%eax
    f41b:	0f 9f c0             	setg   %al
    f41e:	0f b6 c0             	movzbl %al,%eax
    f421:	8b 95 b0 d6 ff ff    	mov    -0x2950(%rbp),%edx
    f427:	89 d6                	mov    %edx,%esi
    f429:	89 c7                	mov    %eax,%edi
    f42b:	e8 5d 98 ff ff       	callq  8c8d <safe_rshift_func_uint8_t_u_s>
    f430:	84 c0                	test   %al,%al
    f432:	74 17                	je     f44b <func_28+0x55cb>
    f434:	48 8b 85 00 d8 ff ff 	mov    -0x2800(%rbp),%rax
    f43b:	48 8b 00             	mov    (%rax),%rax
    f43e:	8b 00                	mov    (%rax),%eax
    f440:	85 c0                	test   %eax,%eax
    f442:	74 07                	je     f44b <func_28+0x55cb>
    f444:	b8 01 00 00 00       	mov    $0x1,%eax
    f449:	eb 05                	jmp    f450 <func_28+0x55d0>
    f44b:	b8 00 00 00 00       	mov    $0x0,%eax
    f450:	3d b2 77 d1 51       	cmp    $0x51d177b2,%eax
    f455:	0f 9f c0             	setg   %al
    f458:	0f b6 c0             	movzbl %al,%eax
    f45b:	09 85 28 d6 ff ff    	or     %eax,-0x29d8(%rbp)
    f461:	8b 85 28 d6 ff ff    	mov    -0x29d8(%rbp),%eax
    f467:	89 85 b0 d6 ff ff    	mov    %eax,-0x2950(%rbp)
    f46d:	8b 85 b0 d6 ff ff    	mov    -0x2950(%rbp),%eax
    f473:	89 85 b4 d6 ff ff    	mov    %eax,-0x294c(%rbp)
    f479:	44 39 a5 b4 d6 ff ff 	cmp    %r12d,-0x294c(%rbp)
    f480:	0f 9c c0             	setl   %al
    f483:	0f b6 c8             	movzbl %al,%ecx
    f486:	48 8b 85 00 d8 ff ff 	mov    -0x2800(%rbp),%rax
    f48d:	48 8b 00             	mov    (%rax),%rax
    f490:	8b 10                	mov    (%rax),%edx
    f492:	0f b6 05 4f af 00 00 	movzbl 0xaf4f(%rip),%eax        # 1a3e8 <g_719>
    f499:	21 c8                	and    %ecx,%eax
    f49b:	88 05 47 af 00 00    	mov    %al,0xaf47(%rip)        # 1a3e8 <g_719>
    f4a1:	0f b6 05 40 af 00 00 	movzbl 0xaf40(%rip),%eax        # 1a3e8 <g_719>
    f4a8:	3c 01                	cmp    $0x1,%al
    f4aa:	0f 97 c0             	seta   %al
    f4ad:	0f b6 c0             	movzbl %al,%eax
    f4b0:	39 c2                	cmp    %eax,%edx
    f4b2:	0f 9d c0             	setge  %al
    f4b5:	0f b6 c0             	movzbl %al,%eax
    f4b8:	39 85 b8 d6 ff ff    	cmp    %eax,-0x2948(%rbp)
    f4be:	0f 9f c0             	setg   %al
    f4c1:	0f b6 c0             	movzbl %al,%eax
    f4c4:	89 85 b8 d6 ff ff    	mov    %eax,-0x2948(%rbp)
    f4ca:	48 8b 05 0f cc 00 00 	mov    0xcc0f(%rip),%rax        # 1c0e0 <g_16>
    f4d1:	8b 00                	mov    (%rax),%eax
    f4d3:	89 85 04 d6 ff ff    	mov    %eax,-0x29fc(%rbp)
    f4d9:	e9 87 02 00 00       	jmpq   f765 <func_28+0x58e5>
    f4de:	c7 85 ac d6 ff ff 00 	movl   $0x0,-0x2954(%rbp)
    f4e5:	00 00 00 
    f4e8:	48 8b 85 00 d8 ff ff 	mov    -0x2800(%rbp),%rax
    f4ef:	48 8b 00             	mov    (%rax),%rax
    f4f2:	8b 00                	mov    (%rax),%eax
    f4f4:	0f b6 c0             	movzbl %al,%eax
    f4f7:	48 8b 95 80 d8 ff ff 	mov    -0x2780(%rbp),%rdx
    f4fe:	48 89 15 d3 dc 00 00 	mov    %rdx,0xdcd3(%rip)        # 1d1d8 <g_1498>
    f505:	89 c6                	mov    %eax,%esi
    f507:	bf 00 00 00 00       	mov    $0x0,%edi
    f50c:	e8 ca 96 ff ff       	callq  8bdb <safe_div_func_uint8_t_u_u>
    f511:	0f b6 d0             	movzbl %al,%edx
    f514:	48 8b 05 65 d4 00 00 	mov    0xd465(%rip),%rax        # 1c980 <g_943>
    f51b:	48 8b 00             	mov    (%rax),%rax
    f51e:	48 85 c0             	test   %rax,%rax
    f521:	75 13                	jne    f536 <func_28+0x56b6>
    f523:	8b 85 ac d6 ff ff    	mov    -0x2954(%rbp),%eax
    f529:	89 85 0c d6 ff ff    	mov    %eax,-0x29f4(%rbp)
    f52f:	b8 00 00 00 00       	mov    $0x0,%eax
    f534:	eb 05                	jmp    f53b <func_28+0x56bb>
    f536:	b8 01 00 00 00       	mov    $0x1,%eax
    f53b:	48 98                	cltq   
    f53d:	48 89 d6             	mov    %rdx,%rsi
    f540:	48 89 c7             	mov    %rax,%rdi
    f543:	e8 38 9b ff ff       	callq  9080 <safe_mod_func_uint64_t_u_u>
    f548:	8b 95 5c d6 ff ff    	mov    -0x29a4(%rbp),%edx
    f54e:	48 39 d0             	cmp    %rdx,%rax
    f551:	0f 97 c0             	seta   %al
    f554:	0f b6 c0             	movzbl %al,%eax
    f557:	89 85 94 d6 ff ff    	mov    %eax,-0x296c(%rbp)
    f55d:	e9 03 02 00 00       	jmpq   f765 <func_28+0x58e5>
    f562:	90                   	nop
    f563:	e9 19 cf ff ff       	jmpq   c481 <func_28+0x2601>
    f568:	48 8d 05 29 d4 00 00 	lea    0xd429(%rip),%rax        # 1c998 <g_1125>
    f56f:	48 89 85 e0 f7 ff ff 	mov    %rax,-0x820(%rbp)
    f576:	48 8d 05 1b d4 00 00 	lea    0xd41b(%rip),%rax        # 1c998 <g_1125>
    f57d:	48 89 85 e8 f7 ff ff 	mov    %rax,-0x818(%rbp)
    f584:	48 8d 05 0d d4 00 00 	lea    0xd40d(%rip),%rax        # 1c998 <g_1125>
    f58b:	48 89 85 f0 f7 ff ff 	mov    %rax,-0x810(%rbp)
    f592:	48 8d 05 ff d3 00 00 	lea    0xd3ff(%rip),%rax        # 1c998 <g_1125>
    f599:	48 89 85 f8 f7 ff ff 	mov    %rax,-0x808(%rbp)
    f5a0:	48 8d 05 f1 d3 00 00 	lea    0xd3f1(%rip),%rax        # 1c998 <g_1125>
    f5a7:	48 89 85 00 f8 ff ff 	mov    %rax,-0x800(%rbp)
    f5ae:	48 8d 05 e3 d3 00 00 	lea    0xd3e3(%rip),%rax        # 1c998 <g_1125>
    f5b5:	48 89 85 08 f8 ff ff 	mov    %rax,-0x7f8(%rbp)
    f5bc:	48 8d 05 d5 d3 00 00 	lea    0xd3d5(%rip),%rax        # 1c998 <g_1125>
    f5c3:	48 89 85 10 f8 ff ff 	mov    %rax,-0x7f0(%rbp)
    f5ca:	48 8d 05 c7 d3 00 00 	lea    0xd3c7(%rip),%rax        # 1c998 <g_1125>
    f5d1:	48 89 85 18 f8 ff ff 	mov    %rax,-0x7e8(%rbp)
    f5d8:	48 8d 05 b9 d3 00 00 	lea    0xd3b9(%rip),%rax        # 1c998 <g_1125>
    f5df:	48 89 85 20 f8 ff ff 	mov    %rax,-0x7e0(%rbp)
    f5e6:	c7 85 70 e5 ff ff 86 	movl   $0x40e33886,-0x1a90(%rbp)
    f5ed:	38 e3 40 
    f5f0:	c7 85 74 e5 ff ff 31 	movl   $0x7b2f2431,-0x1a8c(%rbp)
    f5f7:	24 2f 7b 
    f5fa:	c7 85 78 e5 ff ff 86 	movl   $0x40e33886,-0x1a88(%rbp)
    f601:	38 e3 40 
    f604:	c7 85 7c e5 ff ff 31 	movl   $0x7b2f2431,-0x1a84(%rbp)
    f60b:	24 2f 7b 
    f60e:	c7 85 80 e5 ff ff 86 	movl   $0x40e33886,-0x1a80(%rbp)
    f615:	38 e3 40 
    f618:	c7 85 84 e5 ff ff 31 	movl   $0x7b2f2431,-0x1a7c(%rbp)
    f61f:	24 2f 7b 
    f622:	c7 85 88 e5 ff ff 86 	movl   $0x40e33886,-0x1a78(%rbp)
    f629:	38 e3 40 
    f62c:	c7 85 8c e5 ff ff 31 	movl   $0x7b2f2431,-0x1a74(%rbp)
    f633:	24 2f 7b 
    f636:	c7 85 90 e5 ff ff 86 	movl   $0x40e33886,-0x1a70(%rbp)
    f63d:	38 e3 40 
    f640:	c7 85 94 e5 ff ff 31 	movl   $0x7b2f2431,-0x1a6c(%rbp)
    f647:	24 2f 7b 
    f64a:	48 8b 85 d0 d5 ff ff 	mov    -0x2a30(%rbp),%rax
    f651:	48 8b 00             	mov    (%rax),%rax
    f654:	48 8b 10             	mov    (%rax),%rdx
    f657:	48 8b 05 82 ca 00 00 	mov    0xca82(%rip),%rax        # 1c0e0 <g_16>
    f65e:	8b 12                	mov    (%rdx),%edx
    f660:	89 10                	mov    %edx,(%rax)
    f662:	48 8b 85 00 d8 ff ff 	mov    -0x2800(%rbp),%rax
    f669:	48 8b 00             	mov    (%rax),%rax
    f66c:	8b 18                	mov    (%rax),%ebx
    f66e:	48 8b 85 00 d8 ff ff 	mov    -0x2800(%rbp),%rax
    f675:	48 8b 00             	mov    (%rax),%rax
    f678:	8b 00                	mov    (%rax),%eax
    f67a:	44 0f bf e0          	movswl %ax,%r12d
    f67e:	8b 05 cc a9 00 00    	mov    0xa9cc(%rip),%eax        # 1a050 <g_145>
    f684:	48 98                	cltq   
    f686:	48 89 05 db b4 00 00 	mov    %rax,0xb4db(%rip)        # 1ab68 <g_1051>
    f68d:	48 8b 15 d4 b4 00 00 	mov    0xb4d4(%rip),%rdx        # 1ab68 <g_1051>
    f694:	48 8b 85 00 d8 ff ff 	mov    -0x2800(%rbp),%rax
    f69b:	48 8b 00             	mov    (%rax),%rax
    f69e:	8b 00                	mov    (%rax),%eax
    f6a0:	f7 d0                	not    %eax
    f6a2:	48 98                	cltq   
    f6a4:	48 39 c2             	cmp    %rax,%rdx
    f6a7:	0f 97 c0             	seta   %al
    f6aa:	0f b6 d0             	movzbl %al,%edx
    f6ad:	8b 85 78 e5 ff ff    	mov    -0x1a88(%rbp),%eax
    f6b3:	21 d0                	and    %edx,%eax
    f6b5:	89 85 78 e5 ff ff    	mov    %eax,-0x1a88(%rbp)
    f6bb:	8b 95 78 e5 ff ff    	mov    -0x1a88(%rbp),%edx
    f6c1:	8b 05 71 a9 00 00    	mov    0xa971(%rip),%eax        # 1a038 <g_73>
    f6c7:	0f b6 c0             	movzbl %al,%eax
    f6ca:	89 d6                	mov    %edx,%esi
    f6cc:	89 c7                	mov    %eax,%edi
    f6ce:	e8 32 95 ff ff       	callq  8c05 <safe_lshift_func_uint8_t_u_s>
    f6d3:	48 8b 85 00 d8 ff ff 	mov    -0x2800(%rbp),%rax
    f6da:	48 8b 00             	mov    (%rax),%rax
    f6dd:	8b 10                	mov    (%rax),%edx
    f6df:	48 8b 85 00 d8 ff ff 	mov    -0x2800(%rbp),%rax
    f6e6:	48 8b 00             	mov    (%rax),%rax
    f6e9:	8b 00                	mov    (%rax),%eax
    f6eb:	0f b7 c0             	movzwl %ax,%eax
    f6ee:	89 d6                	mov    %edx,%esi
    f6f0:	89 c7                	mov    %eax,%edi
    f6f2:	e8 c7 96 ff ff       	callq  8dbe <safe_lshift_func_uint16_t_u_s>
    f6f7:	48 8d 05 8a d2 00 00 	lea    0xd28a(%rip),%rax        # 1c988 <g_1106>
    f6fe:	48 8b 00             	mov    (%rax),%rax
    f701:	44 8b 28             	mov    (%rax),%r13d
    f704:	48 8b 85 00 d8 ff ff 	mov    -0x2800(%rbp),%rax
    f70b:	48 8b 00             	mov    (%rax),%rax
    f70e:	8b 00                	mov    (%rax),%eax
    f710:	89 c6                	mov    %eax,%esi
    f712:	bf fa 00 00 00       	mov    $0xfa,%edi
    f717:	e8 e9 94 ff ff       	callq  8c05 <safe_lshift_func_uint8_t_u_s>
    f71c:	84 c0                	test   %al,%al
    f71e:	0f 94 c0             	sete   %al
    f721:	0f b6 c0             	movzbl %al,%eax
    f724:	41 39 c5             	cmp    %eax,%r13d
    f727:	77 07                	ja     f730 <func_28+0x58b0>
    f729:	b8 01 00 00 00       	mov    $0x1,%eax
    f72e:	eb 05                	jmp    f735 <func_28+0x58b5>
    f730:	b8 00 00 00 00       	mov    $0x0,%eax
    f735:	44 89 e6             	mov    %r12d,%esi
    f738:	89 c7                	mov    %eax,%edi
    f73a:	e8 0d 28 00 00       	callq  11f4c <func_44>
    f73f:	48 89 c6             	mov    %rax,%rsi
    f742:	48 8b 85 f8 f7 ff ff 	mov    -0x808(%rbp),%rax
    f749:	4c 8b 25 98 c9 00 00 	mov    0xc998(%rip),%r12        # 1c0e8 <g_15>
    f750:	48 8d 0d 49 d2 00 00 	lea    0xd249(%rip),%rcx        # 1c9a0 <g_1124>
    f757:	89 da                	mov    %ebx,%edx
    f759:	48 89 c7             	mov    %rax,%rdi
    f75c:	e8 c1 20 00 00       	callq  11822 <func_37>
    f761:	49 89 04 24          	mov    %rax,(%r12)
    f765:	8b 05 3d b4 00 00    	mov    0xb43d(%rip),%eax        # 1aba8 <g_1521>
    f76b:	83 c0 01             	add    $0x1,%eax
    f76e:	89 05 34 b4 00 00    	mov    %eax,0xb434(%rip)        # 1aba8 <g_1521>
    f774:	48 8b 05 dd d1 00 00 	mov    0xd1dd(%rip),%rax        # 1c958 <g_875>
    f77b:	48 8b 00             	mov    (%rax),%rax
    f77e:	0f b7 00             	movzwl (%rax),%eax
    f781:	0f b7 c0             	movzwl %ax,%eax
    f784:	89 c7                	mov    %eax,%edi
    f786:	e8 5e 95 ff ff       	callq  8ce9 <safe_unary_minus_func_uint16_t_u>
    f78b:	66 85 c0             	test   %ax,%ax
    f78e:	0f 84 09 03 00 00    	je     fa9d <func_28+0x5c1d>
    f794:	48 8d 85 b0 da ff ff 	lea    -0x2550(%rbp),%rax
    f79b:	48 83 c0 08          	add    $0x8,%rax
    f79f:	48 89 85 78 da ff ff 	mov    %rax,-0x2588(%rbp)
    f7a6:	48 8d 05 93 ac 00 00 	lea    0xac93(%rip),%rax        # 1a440 <g_879>
    f7ad:	48 89 85 80 da ff ff 	mov    %rax,-0x2580(%rbp)
    f7b4:	48 c7 85 88 da ff ff 	movq   $0x0,-0x2578(%rbp)
    f7bb:	00 00 00 00 
    f7bf:	c7 85 10 d7 ff ff 07 	movl   $0x7,-0x28f0(%rbp)
    f7c6:	00 00 00 
    f7c9:	48 8d 05 b8 b3 00 00 	lea    0xb3b8(%rip),%rax        # 1ab88 <g_1365>
    f7d0:	48 89 85 70 e5 ff ff 	mov    %rax,-0x1a90(%rbp)
    f7d7:	48 8d 05 aa b3 00 00 	lea    0xb3aa(%rip),%rax        # 1ab88 <g_1365>
    f7de:	48 89 85 78 e5 ff ff 	mov    %rax,-0x1a88(%rbp)
    f7e5:	48 8d 05 9c b3 00 00 	lea    0xb39c(%rip),%rax        # 1ab88 <g_1365>
    f7ec:	48 89 85 80 e5 ff ff 	mov    %rax,-0x1a80(%rbp)
    f7f3:	48 8d 05 8e b3 00 00 	lea    0xb38e(%rip),%rax        # 1ab88 <g_1365>
    f7fa:	48 89 85 88 e5 ff ff 	mov    %rax,-0x1a78(%rbp)
    f801:	48 8d 05 80 b3 00 00 	lea    0xb380(%rip),%rax        # 1ab88 <g_1365>
    f808:	48 89 85 90 e5 ff ff 	mov    %rax,-0x1a70(%rbp)
    f80f:	48 8d 05 72 b3 00 00 	lea    0xb372(%rip),%rax        # 1ab88 <g_1365>
    f816:	48 89 85 98 e5 ff ff 	mov    %rax,-0x1a68(%rbp)
    f81d:	48 8d 05 64 b3 00 00 	lea    0xb364(%rip),%rax        # 1ab88 <g_1365>
    f824:	48 89 85 a0 e5 ff ff 	mov    %rax,-0x1a60(%rbp)
    f82b:	48 8d 05 d6 c8 00 00 	lea    0xc8d6(%rip),%rax        # 1c108 <g_270>
    f832:	48 89 85 90 da ff ff 	mov    %rax,-0x2570(%rbp)
    f839:	48 8d 05 58 d1 00 00 	lea    0xd158(%rip),%rax        # 1c998 <g_1125>
    f840:	48 89 85 98 da ff ff 	mov    %rax,-0x2568(%rbp)
    f847:	c7 85 14 d7 ff ff b9 	movl   $0x78ac0ab9,-0x28ec(%rbp)
    f84e:	0a ac 78 
    f851:	66 c7 85 00 d6 ff ff 	movw   $0xe7c,-0x2a00(%rbp)
    f858:	7c 0e 
    f85a:	c7 85 18 d7 ff ff 00 	movl   $0x0,-0x28e8(%rbp)
    f861:	00 00 00 
    f864:	c7 85 1c d7 ff ff a0 	movl   $0x244b65a0,-0x28e4(%rbp)
    f86b:	65 4b 24 
    f86e:	c7 85 f0 e2 ff ff 39 	movl   $0x7bac3f39,-0x1d10(%rbp)
    f875:	3f ac 7b 
    f878:	c7 85 f4 e2 ff ff 39 	movl   $0x7bac3f39,-0x1d0c(%rbp)
    f87f:	3f ac 7b 
    f882:	c7 85 f8 e2 ff ff 39 	movl   $0x7bac3f39,-0x1d08(%rbp)
    f889:	3f ac 7b 
    f88c:	c7 85 fc e2 ff ff 39 	movl   $0x7bac3f39,-0x1d04(%rbp)
    f893:	3f ac 7b 
    f896:	c7 85 00 e3 ff ff 39 	movl   $0x7bac3f39,-0x1d00(%rbp)
    f89d:	3f ac 7b 
    f8a0:	c7 85 04 e3 ff ff 39 	movl   $0x7bac3f39,-0x1cfc(%rbp)
    f8a7:	3f ac 7b 
    f8aa:	c7 85 08 e3 ff ff 39 	movl   $0x7bac3f39,-0x1cf8(%rbp)
    f8b1:	3f ac 7b 
    f8b4:	c7 85 0c e3 ff ff 39 	movl   $0x7bac3f39,-0x1cf4(%rbp)
    f8bb:	3f ac 7b 
    f8be:	c7 85 10 e3 ff ff 39 	movl   $0x7bac3f39,-0x1cf0(%rbp)
    f8c5:	3f ac 7b 
    f8c8:	48 b8 df a7 7b 1c 87 	movabs $0x9aac61871c7ba7df,%rax
    f8cf:	61 ac 9a 
    f8d2:	48 89 85 a0 da ff ff 	mov    %rax,-0x2560(%rbp)
    f8d9:	48 8d 05 d0 d0 00 00 	lea    0xd0d0(%rip),%rax        # 1c9b0 <g_1126>
    f8e0:	48 89 85 a8 da ff ff 	mov    %rax,-0x2558(%rbp)
    f8e7:	c7 85 20 d7 ff ff 03 	movl   $0x3,-0x28e0(%rbp)
    f8ee:	00 00 00 
    f8f1:	c6 85 eb d5 ff ff ff 	movb   $0xff,-0x2a15(%rbp)
    f8f8:	66 c7 85 02 d6 ff ff 	movw   $0x1,-0x29fe(%rbp)
    f8ff:	01 00 
    f901:	c7 85 24 d7 ff ff 0a 	movl   $0x2606ee0a,-0x28dc(%rbp)
    f908:	ee 06 26 
    f90b:	c7 85 38 d6 ff ff 00 	movl   $0x0,-0x29c8(%rbp)
    f912:	00 00 00 
    f915:	eb 51                	jmp    f968 <func_28+0x5ae8>
    f917:	c7 85 3c d6 ff ff 00 	movl   $0x0,-0x29c4(%rbp)
    f91e:	00 00 00 
    f921:	eb 35                	jmp    f958 <func_28+0x5ad8>
    f923:	8b 85 3c d6 ff ff    	mov    -0x29c4(%rbp),%eax
    f929:	48 63 c8             	movslq %eax,%rcx
    f92c:	8b 85 38 d6 ff ff    	mov    -0x29c8(%rbp),%eax
    f932:	48 63 d0             	movslq %eax,%rdx
    f935:	48 89 d0             	mov    %rdx,%rax
    f938:	48 c1 e0 03          	shl    $0x3,%rax
    f93c:	48 01 d0             	add    %rdx,%rax
    f93f:	48 01 c8             	add    %rcx,%rax
    f942:	48 8d 15 8f d8 00 00 	lea    0xd88f(%rip),%rdx        # 1d1d8 <g_1498>
    f949:	48 89 94 c5 e0 f7 ff 	mov    %rdx,-0x820(%rbp,%rax,8)
    f950:	ff 
    f951:	83 85 3c d6 ff ff 01 	addl   $0x1,-0x29c4(%rbp)
    f958:	83 bd 3c d6 ff ff 08 	cmpl   $0x8,-0x29c4(%rbp)
    f95f:	7e c2                	jle    f923 <func_28+0x5aa3>
    f961:	83 85 38 d6 ff ff 01 	addl   $0x1,-0x29c8(%rbp)
    f968:	83 bd 38 d6 ff ff 00 	cmpl   $0x0,-0x29c8(%rbp)
    f96f:	7e a6                	jle    f917 <func_28+0x5a97>
    f971:	8b 85 10 d7 ff ff    	mov    -0x28f0(%rbp),%eax
    f977:	0f bf d8             	movswl %ax,%ebx
    f97a:	8b 85 10 d7 ff ff    	mov    -0x28f0(%rbp),%eax
    f980:	44 0f bf e0          	movswl %ax,%r12d
    f984:	48 8b 05 bd cf 00 00 	mov    0xcfbd(%rip),%rax        # 1c948 <g_872>
    f98b:	48 8b 00             	mov    (%rax),%rax
    f98e:	0f b7 00             	movzwl (%rax),%eax
    f991:	0f b7 d0             	movzwl %ax,%edx
    f994:	0f b7 05 11 b2 00 00 	movzwl 0xb211(%rip),%eax        # 1abac <g_1542>
    f99b:	0f b7 c8             	movzwl %ax,%ecx
    f99e:	8b 05 94 a6 00 00    	mov    0xa694(%rip),%eax        # 1a038 <g_73>
    f9a4:	39 c1                	cmp    %eax,%ecx
    f9a6:	0f 9f c0             	setg   %al
    f9a9:	0f b6 c8             	movzbl %al,%ecx
    f9ac:	48 8b 85 80 da ff ff 	mov    -0x2580(%rbp),%rax
    f9b3:	89 08                	mov    %ecx,(%rax)
    f9b5:	48 8d 05 94 a6 00 00 	lea    0xa694(%rip),%rax        # 1a050 <g_145>
    f9bc:	48 89 85 88 da ff ff 	mov    %rax,-0x2578(%rbp)
    f9c3:	83 bd 10 d7 ff ff 00 	cmpl   $0x0,-0x28f0(%rbp)
    f9ca:	0f 9f c0             	setg   %al
    f9cd:	0f b6 c0             	movzbl %al,%eax
    f9d0:	89 d6                	mov    %edx,%esi
    f9d2:	89 c7                	mov    %eax,%edi
    f9d4:	e8 a1 94 ff ff       	callq  8e7a <safe_rshift_func_uint16_t_u_u>
    f9d9:	0f b7 d0             	movzwl %ax,%edx
    f9dc:	48 8b b5 20 f8 ff ff 	mov    -0x7e0(%rbp),%rsi
    f9e3:	48 8b 8d b0 da ff ff 	mov    -0x2550(%rbp),%rcx
    f9ea:	48 8b 85 78 da ff ff 	mov    -0x2588(%rbp),%rax
    f9f1:	48 89 08             	mov    %rcx,(%rax)
    f9f4:	48 8b 85 78 da ff ff 	mov    -0x2588(%rbp),%rax
    f9fb:	48 8b 00             	mov    (%rax),%rax
    f9fe:	48 39 c6             	cmp    %rax,%rsi
    fa01:	0f 95 c0             	setne  %al
    fa04:	0f b6 c8             	movzbl %al,%ecx
    fa07:	48 8b 05 f2 c6 00 00 	mov    0xc6f2(%rip),%rax        # 1c100 <g_239>
    fa0e:	48 8b 00             	mov    (%rax),%rax
    fa11:	48 39 c1             	cmp    %rax,%rcx
    fa14:	0f 95 c0             	setne  %al
    fa17:	0f b6 c0             	movzbl %al,%eax
    fa1a:	89 d6                	mov    %edx,%esi
    fa1c:	89 c7                	mov    %eax,%edi
    fa1e:	e8 39 93 ff ff       	callq  8d5c <safe_mod_func_uint16_t_u_u>
    fa23:	98                   	cwtl   
    fa24:	44 89 e6             	mov    %r12d,%esi
    fa27:	89 c7                	mov    %eax,%edi
    fa29:	e8 e8 89 ff ff       	callq  8416 <safe_mod_func_int16_t_s_s>
    fa2e:	98                   	cwtl   
    fa2f:	be 00 00 00 00       	mov    $0x0,%esi
    fa34:	89 c7                	mov    %eax,%edi
    fa36:	e8 28 8b ff ff       	callq  8563 <safe_rshift_func_int16_t_s_u>
    fa3b:	66 85 c0             	test   %ax,%ax
    fa3e:	75 0a                	jne    fa4a <func_28+0x5bca>
    fa40:	8b 05 c2 a8 00 00    	mov    0xa8c2(%rip),%eax        # 1a308 <g_435>
    fa46:	85 c0                	test   %eax,%eax
    fa48:	74 10                	je     fa5a <func_28+0x5bda>
    fa4a:	83 bd 10 d7 ff ff 00 	cmpl   $0x0,-0x28f0(%rbp)
    fa51:	74 07                	je     fa5a <func_28+0x5bda>
    fa53:	b8 01 00 00 00       	mov    $0x1,%eax
    fa58:	eb 05                	jmp    fa5f <func_28+0x5bdf>
    fa5a:	b8 00 00 00 00       	mov    $0x0,%eax
    fa5f:	98                   	cwtl   
    fa60:	89 de                	mov    %ebx,%esi
    fa62:	89 c7                	mov    %eax,%edi
    fa64:	e8 ad 89 ff ff       	callq  8416 <safe_mod_func_int16_t_s_s>
    fa69:	0f be c0             	movsbl %al,%eax
    fa6c:	be 00 00 00 00       	mov    $0x0,%esi
    fa71:	89 c7                	mov    %eax,%edi
    fa73:	e8 9a 87 ff ff       	callq  8212 <safe_mul_func_int8_t_s_s>
    fa78:	48 0f be c0          	movsbq %al,%rax
    fa7c:	48 c7 c6 ff ff ff ff 	mov    $0xffffffffffffffff,%rsi
    fa83:	48 89 c7             	mov    %rax,%rdi
    fa86:	e8 a3 95 ff ff       	callq  902e <safe_add_func_uint64_t_u_u>
    fa8b:	89 85 10 d7 ff ff    	mov    %eax,-0x28f0(%rbp)
    fa91:	48 8b 85 00 d8 ff ff 	mov    -0x2800(%rbp),%rax
    fa98:	e9 e3 12 00 00       	jmpq   10d80 <func_28+0x6f00>
    fa9d:	48 8d 85 90 db ff ff 	lea    -0x2470(%rbp),%rax
    faa4:	48 83 c0 0a          	add    $0xa,%rax
    faa8:	48 89 85 f0 e2 ff ff 	mov    %rax,-0x1d10(%rbp)
    faaf:	48 8d 85 90 db ff ff 	lea    -0x2470(%rbp),%rax
    fab6:	48 83 c0 0a          	add    $0xa,%rax
    faba:	48 89 85 f8 e2 ff ff 	mov    %rax,-0x1d08(%rbp)
    fac1:	48 c7 85 00 e3 ff ff 	movq   $0x0,-0x1d00(%rbp)
    fac8:	00 00 00 00 
    facc:	48 8d 05 77 a5 00 00 	lea    0xa577(%rip),%rax        # 1a04a <g_124>
    fad3:	48 89 85 08 e3 ff ff 	mov    %rax,-0x1cf8(%rbp)
    fada:	48 c7 85 10 e3 ff ff 	movq   $0x0,-0x1cf0(%rbp)
    fae1:	00 00 00 00 
    fae5:	48 8d 85 90 db ff ff 	lea    -0x2470(%rbp),%rax
    faec:	48 83 c0 0a          	add    $0xa,%rax
    faf0:	48 89 85 18 e3 ff ff 	mov    %rax,-0x1ce8(%rbp)
    faf7:	48 8d 85 90 db ff ff 	lea    -0x2470(%rbp),%rax
    fafe:	48 83 c0 0a          	add    $0xa,%rax
    fb02:	48 89 85 20 e3 ff ff 	mov    %rax,-0x1ce0(%rbp)
    fb09:	48 c7 85 28 e3 ff ff 	movq   $0x0,-0x1cd8(%rbp)
    fb10:	00 00 00 00 
    fb14:	48 8d 05 2f a5 00 00 	lea    0xa52f(%rip),%rax        # 1a04a <g_124>
    fb1b:	48 89 85 30 e3 ff ff 	mov    %rax,-0x1cd0(%rbp)
    fb22:	48 c7 85 38 e3 ff ff 	movq   $0x0,-0x1cc8(%rbp)
    fb29:	00 00 00 00 
    fb2d:	c7 85 40 d6 ff ff 31 	movl   $0xe8d9bb31,-0x29c0(%rbp)
    fb34:	bb d9 e8 
    fb37:	c7 85 44 d6 ff ff 00 	movl   $0x0,-0x29bc(%rbp)
    fb3e:	00 00 00 
    fb41:	48 8d 05 08 a5 00 00 	lea    0xa508(%rip),%rax        # 1a050 <g_145>
    fb48:	48 89 85 f8 d9 ff ff 	mov    %rax,-0x2608(%rbp)
    fb4f:	48 c7 85 00 da ff ff 	movq   $0x0,-0x2600(%rbp)
    fb56:	00 00 00 00 
    fb5a:	48 8d 05 fb a5 00 00 	lea    0xa5fb(%rip),%rax        # 1a15c <g_193>
    fb61:	48 89 85 08 da ff ff 	mov    %rax,-0x25f8(%rbp)
    fb68:	c7 85 c8 d7 ff ff b2 	movl   $0xa97a9bb2,-0x2838(%rbp)
    fb6f:	9b 7a a9 
    fb72:	48 8d 05 5f d6 00 00 	lea    0xd65f(%rip),%rax        # 1d1d8 <g_1498>
    fb79:	48 89 85 10 da ff ff 	mov    %rax,-0x25f0(%rbp)
    fb80:	48 8d 05 89 db 00 00 	lea    0xdb89(%rip),%rax        # 1d710 <g_284>
    fb87:	48 89 85 d0 d7 ff ff 	mov    %rax,-0x2830(%rbp)
    fb8e:	c7 85 d8 d6 ff ff 9c 	movl   $0xd885c49c,-0x2928(%rbp)
    fb95:	c4 85 d8 
    fb98:	c7 85 dc d6 ff ff 39 	movl   $0xd22b0a39,-0x2924(%rbp)
    fb9f:	0a 2b d2 
    fba2:	48 8d 05 ef cd 00 00 	lea    0xcdef(%rip),%rax        # 1c998 <g_1125>
    fba9:	48 89 85 18 da ff ff 	mov    %rax,-0x25e8(%rbp)
    fbb0:	48 8b 85 f0 e2 ff ff 	mov    -0x1d10(%rbp),%rax
    fbb7:	48 85 c0             	test   %rax,%rax
    fbba:	0f 94 c0             	sete   %al
    fbbd:	44 0f b6 e0          	movzbl %al,%r12d
    fbc1:	48 8b 85 f8 d9 ff ff 	mov    -0x2608(%rbp),%rax
    fbc8:	0f b6 00             	movzbl (%rax),%eax
    fbcb:	8b 95 40 d6 ff ff    	mov    -0x29c0(%rbp),%edx
    fbd1:	31 c2                	xor    %eax,%edx
    fbd3:	48 8b 85 f8 d9 ff ff 	mov    -0x2608(%rbp),%rax
    fbda:	88 10                	mov    %dl,(%rax)
    fbdc:	48 8b 85 f8 d9 ff ff 	mov    -0x2608(%rbp),%rax
    fbe3:	0f b6 00             	movzbl (%rax),%eax
    fbe6:	0f be d8             	movsbl %al,%ebx
    fbe9:	8b 85 40 d6 ff ff    	mov    -0x29c0(%rbp),%eax
    fbef:	89 c2                	mov    %eax,%edx
    fbf1:	8b 85 44 d6 ff ff    	mov    -0x29bc(%rbp),%eax
    fbf7:	09 d0                	or     %edx,%eax
    fbf9:	0f b6 c0             	movzbl %al,%eax
    fbfc:	89 c6                	mov    %eax,%esi
    fbfe:	bf f6 00 00 00       	mov    $0xf6,%edi
    fc03:	e8 52 8f ff ff       	callq  8b5a <safe_add_func_uint8_t_u_u>
    fc08:	0f b6 d0             	movzbl %al,%edx
    fc0b:	0f b6 05 e6 af 00 00 	movzbl 0xafe6(%rip),%eax        # 1abf8 <g_1605>
    fc12:	0f b6 c0             	movzbl %al,%eax
    fc15:	89 d6                	mov    %edx,%esi
    fc17:	89 c7                	mov    %eax,%edi
    fc19:	e8 bd 8f ff ff       	callq  8bdb <safe_div_func_uint8_t_u_u>
    fc1e:	0f be c0             	movsbl %al,%eax
    fc21:	89 de                	mov    %ebx,%esi
    fc23:	89 c7                	mov    %eax,%edi
    fc25:	e8 0b 87 ff ff       	callq  8335 <safe_rshift_func_int8_t_s_s>
    fc2a:	0f be c0             	movsbl %al,%eax
    fc2d:	44 09 e0             	or     %r12d,%eax
    fc30:	89 c3                	mov    %eax,%ebx
    fc32:	8b 85 40 d6 ff ff    	mov    -0x29c0(%rbp),%eax
    fc38:	48 63 d0             	movslq %eax,%rdx
    fc3b:	48 8b 05 be c4 00 00 	mov    0xc4be(%rip),%rax        # 1c100 <g_239>
    fc42:	48 8b 00             	mov    (%rax),%rax
    fc45:	48 39 c2             	cmp    %rax,%rdx
    fc48:	0f 94 c0             	sete   %al
    fc4b:	f7 d0                	not    %eax
    fc4d:	89 c2                	mov    %eax,%edx
    fc4f:	48 8b 85 08 da ff ff 	mov    -0x25f8(%rbp),%rax
    fc56:	88 10                	mov    %dl,(%rax)
    fc58:	be cc 18 1e 56       	mov    $0x561e18cc,%esi
    fc5d:	bf ff ff ff ff       	mov    $0xffffffff,%edi
    fc62:	e8 96 92 ff ff       	callq  8efd <safe_mod_func_uint32_t_u_u>
    fc67:	09 d8                	or     %ebx,%eax
    fc69:	85 c0                	test   %eax,%eax
    fc6b:	0f 84 f4 0f 00 00    	je     10c65 <func_28+0x6de5>
    fc71:	c7 85 48 d6 ff ff 07 	movl   $0x14afd607,-0x29b8(%rbp)
    fc78:	d6 af 14 
    fc7b:	48 8d 05 6c a7 00 00 	lea    0xa76c(%rip),%rax        # 1a3ee <g_853>
    fc82:	48 89 85 20 da ff ff 	mov    %rax,-0x25e0(%rbp)
    fc89:	48 8d 85 38 d7 ff ff 	lea    -0x28c8(%rbp),%rax
    fc90:	48 89 85 28 da ff ff 	mov    %rax,-0x25d8(%rbp)
    fc97:	48 8d 85 28 d7 ff ff 	lea    -0x28d8(%rbp),%rax
    fc9e:	48 89 85 d8 d7 ff ff 	mov    %rax,-0x2828(%rbp)
    fca5:	c7 85 e4 d6 ff ff ae 	movl   $0x2fb51cae,-0x291c(%rbp)
    fcac:	1c b5 2f 
    fcaf:	c7 85 50 db ff ff ff 	movl   $0xffffffff,-0x24b0(%rbp)
    fcb6:	ff ff ff 
    fcb9:	c7 85 54 db ff ff ff 	movl   $0xffffffff,-0x24ac(%rbp)
    fcc0:	ff ff ff 
    fcc3:	c7 85 58 db ff ff ff 	movl   $0xffffffff,-0x24a8(%rbp)
    fcca:	ff ff ff 
    fccd:	c7 85 5c db ff ff ff 	movl   $0xffffffff,-0x24a4(%rbp)
    fcd4:	ff ff ff 
    fcd7:	c7 85 60 db ff ff ff 	movl   $0xffffffff,-0x24a0(%rbp)
    fcde:	ff ff ff 
    fce1:	c6 85 e4 d5 ff ff 04 	movb   $0x4,-0x2a1c(%rbp)
    fce8:	48 c7 85 e8 d7 ff ff 	movq   $0x0,-0x2818(%rbp)
    fcef:	00 00 00 00 
    fcf3:	e9 5a 0f 00 00       	jmpq   10c52 <func_28+0x6dd2>
    fcf8:	c7 85 20 de ff ff 46 	movl   $0x78156746,-0x21e0(%rbp)
    fcff:	67 15 78 
    fd02:	c7 85 24 de ff ff 46 	movl   $0x78156746,-0x21dc(%rbp)
    fd09:	67 15 78 
    fd0c:	c7 85 28 de ff ff 2c 	movl   $0x968df82c,-0x21d8(%rbp)
    fd13:	f8 8d 96 
    fd16:	c7 85 2c de ff ff 46 	movl   $0x78156746,-0x21d4(%rbp)
    fd1d:	67 15 78 
    fd20:	c7 85 30 de ff ff 46 	movl   $0x78156746,-0x21d0(%rbp)
    fd27:	67 15 78 
    fd2a:	c7 85 34 de ff ff 2c 	movl   $0x968df82c,-0x21cc(%rbp)
    fd31:	f8 8d 96 
    fd34:	c7 85 38 de ff ff 46 	movl   $0x78156746,-0x21c8(%rbp)
    fd3b:	67 15 78 
    fd3e:	c7 85 3c de ff ff 46 	movl   $0x78156746,-0x21c4(%rbp)
    fd45:	67 15 78 
    fd48:	c7 85 40 de ff ff 2c 	movl   $0x968df82c,-0x21c0(%rbp)
    fd4f:	f8 8d 96 
    fd52:	c6 85 e9 d5 ff ff ff 	movb   $0xff,-0x2a17(%rbp)
    fd59:	48 8d 05 48 a3 00 00 	lea    0xa348(%rip),%rax        # 1a0a8 <g_161+0x28>
    fd60:	48 89 85 30 da ff ff 	mov    %rax,-0x25d0(%rbp)
    fd67:	48 8d 85 70 e5 ff ff 	lea    -0x1a90(%rbp),%rax
    fd6e:	48 8d 15 eb 59 00 00 	lea    0x59eb(%rip),%rdx        # 15760 <g_182+0x70c>
    fd75:	b9 36 00 00 00       	mov    $0x36,%ecx
    fd7a:	48 89 c7             	mov    %rax,%rdi
    fd7d:	48 89 d6             	mov    %rdx,%rsi
    fd80:	f3 48 a5             	rep movsq %ds:(%rsi),%es:(%rdi)
    fd83:	48 8d 05 ae a2 00 00 	lea    0xa2ae(%rip),%rax        # 1a038 <g_73>
    fd8a:	48 89 85 e0 d7 ff ff 	mov    %rax,-0x2820(%rbp)
    fd91:	c7 85 e8 d6 ff ff ff 	movl   $0xffffffff,-0x2918(%rbp)
    fd98:	ff ff ff 
    fd9b:	c7 85 4c d6 ff ff fc 	movl   $0xfffffffc,-0x29b4(%rbp)
    fda2:	ff ff ff 
    fda5:	c7 85 ec d6 ff ff 00 	movl   $0x0,-0x2914(%rbp)
    fdac:	00 00 00 
    fdaf:	c7 85 f0 d6 ff ff 29 	movl   $0x7bab6829,-0x2910(%rbp)
    fdb6:	68 ab 7b 
    fdb9:	48 8d 85 d0 db ff ff 	lea    -0x2430(%rbp),%rax
    fdc0:	48 83 c0 08          	add    $0x8,%rax
    fdc4:	48 89 85 38 da ff ff 	mov    %rax,-0x25c8(%rbp)
    fdcb:	c7 85 f4 d6 ff ff 01 	movl   $0x1,-0x290c(%rbp)
    fdd2:	00 00 00 
    fdd5:	48 8d 85 60 f0 ff ff 	lea    -0xfa0(%rbp),%rax
    fddc:	48 05 70 02 00 00    	add    $0x270,%rax
    fde2:	48 89 85 e0 f7 ff ff 	mov    %rax,-0x820(%rbp)
    fde9:	48 8d 85 60 f0 ff ff 	lea    -0xfa0(%rbp),%rax
    fdf0:	48 05 70 02 00 00    	add    $0x270,%rax
    fdf6:	48 89 85 e8 f7 ff ff 	mov    %rax,-0x818(%rbp)
    fdfd:	48 8d 05 84 cb 00 00 	lea    0xcb84(%rip),%rax        # 1c988 <g_1106>
    fe04:	48 89 85 f0 f7 ff ff 	mov    %rax,-0x810(%rbp)
    fe0b:	48 8d 85 60 f0 ff ff 	lea    -0xfa0(%rbp),%rax
    fe12:	48 83 c0 38          	add    $0x38,%rax
    fe16:	48 89 85 f8 f7 ff ff 	mov    %rax,-0x808(%rbp)
    fe1d:	48 8d 85 60 f0 ff ff 	lea    -0xfa0(%rbp),%rax
    fe24:	48 05 c0 01 00 00    	add    $0x1c0,%rax
    fe2a:	48 89 85 00 f8 ff ff 	mov    %rax,-0x800(%rbp)
    fe31:	48 8d 05 50 cb 00 00 	lea    0xcb50(%rip),%rax        # 1c988 <g_1106>
    fe38:	48 89 85 08 f8 ff ff 	mov    %rax,-0x7f8(%rbp)
    fe3f:	48 8d 85 60 f0 ff ff 	lea    -0xfa0(%rbp),%rax
    fe46:	48 05 c0 01 00 00    	add    $0x1c0,%rax
    fe4c:	48 89 85 10 f8 ff ff 	mov    %rax,-0x7f0(%rbp)
    fe53:	48 8d 85 60 f0 ff ff 	lea    -0xfa0(%rbp),%rax
    fe5a:	48 83 c0 38          	add    $0x38,%rax
    fe5e:	48 89 85 18 f8 ff ff 	mov    %rax,-0x7e8(%rbp)
    fe65:	48 c7 85 20 f8 ff ff 	movq   $0x0,-0x7e0(%rbp)
    fe6c:	00 00 00 00 
    fe70:	48 8d 85 60 f0 ff ff 	lea    -0xfa0(%rbp),%rax
    fe77:	48 83 c0 38          	add    $0x38,%rax
    fe7b:	48 89 85 28 f8 ff ff 	mov    %rax,-0x7d8(%rbp)
    fe82:	48 c7 85 30 f8 ff ff 	movq   $0x0,-0x7d0(%rbp)
    fe89:	00 00 00 00 
    fe8d:	48 c7 85 38 f8 ff ff 	movq   $0x0,-0x7c8(%rbp)
    fe94:	00 00 00 00 
    fe98:	48 8d 85 60 f0 ff ff 	lea    -0xfa0(%rbp),%rax
    fe9f:	48 83 c0 38          	add    $0x38,%rax
    fea3:	48 89 85 40 f8 ff ff 	mov    %rax,-0x7c0(%rbp)
    feaa:	48 8d 85 60 f0 ff ff 	lea    -0xfa0(%rbp),%rax
    feb1:	48 83 c0 38          	add    $0x38,%rax
    feb5:	48 89 85 48 f8 ff ff 	mov    %rax,-0x7b8(%rbp)
    febc:	48 8d 85 60 f0 ff ff 	lea    -0xfa0(%rbp),%rax
    fec3:	48 83 c0 38          	add    $0x38,%rax
    fec7:	48 89 85 50 f8 ff ff 	mov    %rax,-0x7b0(%rbp)
    fece:	48 8d 85 60 f0 ff ff 	lea    -0xfa0(%rbp),%rax
    fed5:	48 83 c0 38          	add    $0x38,%rax
    fed9:	48 89 85 58 f8 ff ff 	mov    %rax,-0x7a8(%rbp)
    fee0:	48 8d 85 60 f0 ff ff 	lea    -0xfa0(%rbp),%rax
    fee7:	48 83 c0 38          	add    $0x38,%rax
    feeb:	48 89 85 60 f8 ff ff 	mov    %rax,-0x7a0(%rbp)
    fef2:	48 8d 85 60 f0 ff ff 	lea    -0xfa0(%rbp),%rax
    fef9:	48 83 c0 38          	add    $0x38,%rax
    fefd:	48 89 85 68 f8 ff ff 	mov    %rax,-0x798(%rbp)
    ff04:	48 8d 85 60 f0 ff ff 	lea    -0xfa0(%rbp),%rax
    ff0b:	48 83 c0 38          	add    $0x38,%rax
    ff0f:	48 89 85 70 f8 ff ff 	mov    %rax,-0x790(%rbp)
    ff16:	48 8d 85 60 f0 ff ff 	lea    -0xfa0(%rbp),%rax
    ff1d:	48 83 c0 38          	add    $0x38,%rax
    ff21:	48 89 85 78 f8 ff ff 	mov    %rax,-0x788(%rbp)
    ff28:	48 c7 85 80 f8 ff ff 	movq   $0x0,-0x780(%rbp)
    ff2f:	00 00 00 00 
    ff33:	48 c7 85 88 f8 ff ff 	movq   $0x0,-0x778(%rbp)
    ff3a:	00 00 00 00 
    ff3e:	48 8d 85 60 f0 ff ff 	lea    -0xfa0(%rbp),%rax
    ff45:	48 83 c0 38          	add    $0x38,%rax
    ff49:	48 89 85 90 f8 ff ff 	mov    %rax,-0x770(%rbp)
    ff50:	48 c7 85 98 f8 ff ff 	movq   $0x0,-0x768(%rbp)
    ff57:	00 00 00 00 
    ff5b:	48 8d 85 60 f0 ff ff 	lea    -0xfa0(%rbp),%rax
    ff62:	48 83 c0 38          	add    $0x38,%rax
    ff66:	48 89 85 a0 f8 ff ff 	mov    %rax,-0x760(%rbp)
    ff6d:	48 8d 85 60 f0 ff ff 	lea    -0xfa0(%rbp),%rax
    ff74:	48 05 c0 01 00 00    	add    $0x1c0,%rax
    ff7a:	48 89 85 a8 f8 ff ff 	mov    %rax,-0x758(%rbp)
    ff81:	48 8d 05 00 ca 00 00 	lea    0xca00(%rip),%rax        # 1c988 <g_1106>
    ff88:	48 89 85 b0 f8 ff ff 	mov    %rax,-0x750(%rbp)
    ff8f:	48 8d 85 60 f0 ff ff 	lea    -0xfa0(%rbp),%rax
    ff96:	48 05 c0 01 00 00    	add    $0x1c0,%rax
    ff9c:	48 89 85 b8 f8 ff ff 	mov    %rax,-0x748(%rbp)
    ffa3:	48 8d 85 60 f0 ff ff 	lea    -0xfa0(%rbp),%rax
    ffaa:	48 83 c0 38          	add    $0x38,%rax
    ffae:	48 89 85 c0 f8 ff ff 	mov    %rax,-0x740(%rbp)
    ffb5:	48 8d 05 cc c9 00 00 	lea    0xc9cc(%rip),%rax        # 1c988 <g_1106>
    ffbc:	48 89 85 c8 f8 ff ff 	mov    %rax,-0x738(%rbp)
    ffc3:	48 8d 85 60 f0 ff ff 	lea    -0xfa0(%rbp),%rax
    ffca:	48 05 70 02 00 00    	add    $0x270,%rax
    ffd0:	48 89 85 d0 f8 ff ff 	mov    %rax,-0x730(%rbp)
    ffd7:	48 8d 85 60 f0 ff ff 	lea    -0xfa0(%rbp),%rax
    ffde:	48 05 70 02 00 00    	add    $0x270,%rax
    ffe4:	48 89 85 d8 f8 ff ff 	mov    %rax,-0x728(%rbp)
    ffeb:	48 c7 85 e0 f8 ff ff 	movq   $0x0,-0x720(%rbp)
    fff2:	00 00 00 00 
    fff6:	48 8d 85 60 f0 ff ff 	lea    -0xfa0(%rbp),%rax
    fffd:	48 05 c0 01 00 00    	add    $0x1c0,%rax
   10003:	48 89 85 e8 f8 ff ff 	mov    %rax,-0x718(%rbp)
   1000a:	48 c7 85 f0 f8 ff ff 	movq   $0x0,-0x710(%rbp)
   10011:	00 00 00 00 
   10015:	48 c7 85 f8 f8 ff ff 	movq   $0x0,-0x708(%rbp)
   1001c:	00 00 00 00 
   10020:	48 8d 85 60 f0 ff ff 	lea    -0xfa0(%rbp),%rax
   10027:	48 05 c0 01 00 00    	add    $0x1c0,%rax
   1002d:	48 89 85 00 f9 ff ff 	mov    %rax,-0x700(%rbp)
   10034:	48 c7 85 08 f9 ff ff 	movq   $0x0,-0x6f8(%rbp)
   1003b:	00 00 00 00 
   1003f:	48 8d 85 60 f0 ff ff 	lea    -0xfa0(%rbp),%rax
   10046:	48 83 c0 38          	add    $0x38,%rax
   1004a:	48 89 85 10 f9 ff ff 	mov    %rax,-0x6f0(%rbp)
   10051:	48 8d 85 60 f0 ff ff 	lea    -0xfa0(%rbp),%rax
   10058:	48 05 c0 01 00 00    	add    $0x1c0,%rax
   1005e:	48 89 85 18 f9 ff ff 	mov    %rax,-0x6e8(%rbp)
   10065:	48 8d 85 60 f0 ff ff 	lea    -0xfa0(%rbp),%rax
   1006c:	48 05 70 02 00 00    	add    $0x270,%rax
   10072:	48 89 85 20 f9 ff ff 	mov    %rax,-0x6e0(%rbp)
   10079:	48 8d 85 60 f0 ff ff 	lea    -0xfa0(%rbp),%rax
   10080:	48 83 c0 38          	add    $0x38,%rax
   10084:	48 89 85 28 f9 ff ff 	mov    %rax,-0x6d8(%rbp)
   1008b:	48 c7 85 30 f9 ff ff 	movq   $0x0,-0x6d0(%rbp)
   10092:	00 00 00 00 
   10096:	48 8d 85 60 f0 ff ff 	lea    -0xfa0(%rbp),%rax
   1009d:	48 05 70 02 00 00    	add    $0x270,%rax
   100a3:	48 89 85 38 f9 ff ff 	mov    %rax,-0x6c8(%rbp)
   100aa:	48 c7 85 40 f9 ff ff 	movq   $0x0,-0x6c0(%rbp)
   100b1:	00 00 00 00 
   100b5:	48 8d 85 60 f0 ff ff 	lea    -0xfa0(%rbp),%rax
   100bc:	48 83 c0 38          	add    $0x38,%rax
   100c0:	48 89 85 48 f9 ff ff 	mov    %rax,-0x6b8(%rbp)
   100c7:	48 8d 85 60 f0 ff ff 	lea    -0xfa0(%rbp),%rax
   100ce:	48 05 70 02 00 00    	add    $0x270,%rax
   100d4:	48 89 85 50 f9 ff ff 	mov    %rax,-0x6b0(%rbp)
   100db:	48 c7 85 58 f9 ff ff 	movq   $0x0,-0x6a8(%rbp)
   100e2:	00 00 00 00 
   100e6:	48 8d 85 60 f0 ff ff 	lea    -0xfa0(%rbp),%rax
   100ed:	48 05 c0 01 00 00    	add    $0x1c0,%rax
   100f3:	48 89 85 60 f9 ff ff 	mov    %rax,-0x6a0(%rbp)
   100fa:	48 8d 85 60 f0 ff ff 	lea    -0xfa0(%rbp),%rax
   10101:	48 83 c0 38          	add    $0x38,%rax
   10105:	48 89 85 68 f9 ff ff 	mov    %rax,-0x698(%rbp)
   1010c:	48 8d 05 75 c8 00 00 	lea    0xc875(%rip),%rax        # 1c988 <g_1106>
   10113:	48 89 85 70 f9 ff ff 	mov    %rax,-0x690(%rbp)
   1011a:	48 8d 85 60 f0 ff ff 	lea    -0xfa0(%rbp),%rax
   10121:	48 05 70 02 00 00    	add    $0x270,%rax
   10127:	48 89 85 78 f9 ff ff 	mov    %rax,-0x688(%rbp)
   1012e:	48 8d 85 60 f0 ff ff 	lea    -0xfa0(%rbp),%rax
   10135:	48 05 70 02 00 00    	add    $0x270,%rax
   1013b:	48 89 85 80 f9 ff ff 	mov    %rax,-0x680(%rbp)
   10142:	48 8d 05 3f c8 00 00 	lea    0xc83f(%rip),%rax        # 1c988 <g_1106>
   10149:	48 89 85 88 f9 ff ff 	mov    %rax,-0x678(%rbp)
   10150:	48 8d 85 60 f0 ff ff 	lea    -0xfa0(%rbp),%rax
   10157:	48 83 c0 38          	add    $0x38,%rax
   1015b:	48 89 85 90 f9 ff ff 	mov    %rax,-0x670(%rbp)
   10162:	48 8d 85 60 f0 ff ff 	lea    -0xfa0(%rbp),%rax
   10169:	48 05 c0 01 00 00    	add    $0x1c0,%rax
   1016f:	48 89 85 98 f9 ff ff 	mov    %rax,-0x668(%rbp)
   10176:	48 c7 85 a0 f9 ff ff 	movq   $0x0,-0x660(%rbp)
   1017d:	00 00 00 00 
   10181:	48 8d 85 60 f0 ff ff 	lea    -0xfa0(%rbp),%rax
   10188:	48 05 70 02 00 00    	add    $0x270,%rax
   1018e:	48 89 85 a8 f9 ff ff 	mov    %rax,-0x658(%rbp)
   10195:	48 8d 85 60 f0 ff ff 	lea    -0xfa0(%rbp),%rax
   1019c:	48 83 c0 38          	add    $0x38,%rax
   101a0:	48 89 85 b0 f9 ff ff 	mov    %rax,-0x650(%rbp)
   101a7:	48 c7 85 b8 f9 ff ff 	movq   $0x0,-0x648(%rbp)
   101ae:	00 00 00 00 
   101b2:	48 8d 85 60 f0 ff ff 	lea    -0xfa0(%rbp),%rax
   101b9:	48 05 70 02 00 00    	add    $0x270,%rax
   101bf:	48 89 85 c0 f9 ff ff 	mov    %rax,-0x640(%rbp)
   101c6:	48 c7 85 c8 f9 ff ff 	movq   $0x0,-0x638(%rbp)
   101cd:	00 00 00 00 
   101d1:	48 8d 85 60 f0 ff ff 	lea    -0xfa0(%rbp),%rax
   101d8:	48 83 c0 38          	add    $0x38,%rax
   101dc:	48 89 85 d0 f9 ff ff 	mov    %rax,-0x630(%rbp)
   101e3:	48 8d 85 60 f0 ff ff 	lea    -0xfa0(%rbp),%rax
   101ea:	48 05 70 02 00 00    	add    $0x270,%rax
   101f0:	48 89 85 d8 f9 ff ff 	mov    %rax,-0x628(%rbp)
   101f7:	c7 85 50 d6 ff ff 00 	movl   $0x0,-0x29b0(%rbp)
   101fe:	00 00 00 
   10201:	eb 1e                	jmp    10221 <func_28+0x63a1>
   10203:	8b 85 50 d6 ff ff    	mov    -0x29b0(%rbp),%eax
   10209:	48 98                	cltq   
   1020b:	48 8d 95 48 d7 ff ff 	lea    -0x28b8(%rbp),%rdx
   10212:	48 89 94 c5 d0 db ff 	mov    %rdx,-0x2430(%rbp,%rax,8)
   10219:	ff 
   1021a:	83 85 50 d6 ff ff 01 	addl   $0x1,-0x29b0(%rbp)
   10221:	83 bd 50 d6 ff ff 02 	cmpl   $0x2,-0x29b0(%rbp)
   10228:	7e d9                	jle    10203 <func_28+0x6383>
   1022a:	c7 85 50 d6 ff ff 00 	movl   $0x0,-0x29b0(%rbp)
   10231:	00 00 00 
   10234:	eb 1a                	jmp    10250 <func_28+0x63d0>
   10236:	8b 85 50 d6 ff ff    	mov    -0x29b0(%rbp),%eax
   1023c:	48 98                	cltq   
   1023e:	c7 84 85 20 db ff ff 	movl   $0x9,-0x24e0(%rbp,%rax,4)
   10245:	09 00 00 00 
   10249:	83 85 50 d6 ff ff 01 	addl   $0x1,-0x29b0(%rbp)
   10250:	83 bd 50 d6 ff ff 02 	cmpl   $0x2,-0x29b0(%rbp)
   10257:	7e dd                	jle    10236 <func_28+0x63b6>
   10259:	48 8b 05 08 a9 00 00 	mov    0xa908(%rip),%rax        # 1ab68 <g_1051>
   10260:	0f b6 d8             	movzbl %al,%ebx
   10263:	48 8b 05 96 be 00 00 	mov    0xbe96(%rip),%rax        # 1c100 <g_239>
   1026a:	48 8b 10             	mov    (%rax),%rdx
   1026d:	48 8b 05 8c be 00 00 	mov    0xbe8c(%rip),%rax        # 1c100 <g_239>
   10274:	48 8b 00             	mov    (%rax),%rax
   10277:	48 89 d6             	mov    %rdx,%rsi
   1027a:	48 89 c7             	mov    %rax,%rdi
   1027d:	e8 32 87 ff ff       	callq  89b4 <safe_mod_func_int64_t_s_s>
   10282:	44 8b a5 30 de ff ff 	mov    -0x21d0(%rbp),%r12d
   10289:	0f b6 05 70 a0 00 00 	movzbl 0xa070(%rip),%eax        # 1a300 <g_427>
   10290:	0f be c0             	movsbl %al,%eax
   10293:	89 c6                	mov    %eax,%esi
   10295:	bf 08 00 00 00       	mov    $0x8,%edi
   1029a:	e8 17 83 ff ff       	callq  85b6 <safe_add_func_int32_t_s_s>
   1029f:	8b 85 48 d6 ff ff    	mov    -0x29b8(%rbp),%eax
   102a5:	f7 d0                	not    %eax
   102a7:	c1 e8 1f             	shr    $0x1f,%eax
   102aa:	0f b6 c0             	movzbl %al,%eax
   102ad:	be fc ff ff ff       	mov    $0xfffffffc,%esi
   102b2:	89 c7                	mov    %eax,%edi
   102b4:	e8 1b 7f ff ff       	callq  81d4 <safe_add_func_int8_t_s_s>
   102b9:	0f be c0             	movsbl %al,%eax
   102bc:	41 39 c4             	cmp    %eax,%r12d
   102bf:	0f 9c c0             	setl   %al
   102c2:	0f b6 d0             	movzbl %al,%edx
   102c5:	48 8b 05 0c cf 00 00 	mov    0xcf0c(%rip),%rax        # 1d1d8 <g_1498>
   102cc:	48 8b 00             	mov    (%rax),%rax
   102cf:	48 39 85 20 da ff ff 	cmp    %rax,-0x25e0(%rbp)
   102d6:	0f 94 c0             	sete   %al
   102d9:	0f b6 c0             	movzbl %al,%eax
   102dc:	89 d6                	mov    %edx,%esi
   102de:	89 c7                	mov    %eax,%edi
   102e0:	e8 d9 8a ff ff       	callq  8dbe <safe_lshift_func_uint16_t_u_s>
   102e5:	8b 85 34 de ff ff    	mov    -0x21cc(%rbp),%eax
   102eb:	83 f8 06             	cmp    $0x6,%eax
   102ee:	48 8b 85 30 d7 ff ff 	mov    -0x28d0(%rbp),%rax
   102f5:	48 8b 00             	mov    (%rax),%rax
   102f8:	48 8b 00             	mov    (%rax),%rax
   102fb:	8b 10                	mov    (%rax),%edx
   102fd:	8d 4a ff             	lea    -0x1(%rdx),%ecx
   10300:	89 08                	mov    %ecx,(%rax)
   10302:	48 8b 05 e7 c6 00 00 	mov    0xc6e7(%rip),%rax        # 1c9f0 <g_1433>
   10309:	48 8b 00             	mov    (%rax),%rax
   1030c:	48 8b 00             	mov    (%rax),%rax
   1030f:	0f b7 00             	movzwl (%rax),%eax
   10312:	0f b7 c8             	movzwl %ax,%ecx
   10315:	8b 85 48 d6 ff ff    	mov    -0x29b8(%rbp),%eax
   1031b:	48 63 f0             	movslq %eax,%rsi
   1031e:	48 8b 05 33 9d 00 00 	mov    0x9d33(%rip),%rax        # 1a058 <g_147>
   10325:	48 39 c6             	cmp    %rax,%rsi
   10328:	0f 94 c0             	sete   %al
   1032b:	0f b6 c0             	movzbl %al,%eax
   1032e:	39 c1                	cmp    %eax,%ecx
   10330:	0f 9f c0             	setg   %al
   10333:	0f b6 c0             	movzbl %al,%eax
   10336:	39 c2                	cmp    %eax,%edx
   10338:	0f 95 c0             	setne  %al
   1033b:	0f b6 c0             	movzbl %al,%eax
   1033e:	89 de                	mov    %ebx,%esi
   10340:	89 c7                	mov    %eax,%edi
   10342:	e8 13 88 ff ff       	callq  8b5a <safe_add_func_uint8_t_u_u>
   10347:	0f b6 c0             	movzbl %al,%eax
   1034a:	21 85 44 d6 ff ff    	and    %eax,-0x29bc(%rbp)
   10350:	48 83 bd 20 da ff ff 	cmpq   $0x0,-0x25e0(%rbp)
   10357:	00 
   10358:	0f 84 e9 00 00 00    	je     10447 <func_28+0x65c7>
   1035e:	8b 05 a4 9f 00 00    	mov    0x9fa4(%rip),%eax        # 1a308 <g_435>
   10364:	41 89 c4             	mov    %eax,%r12d
   10367:	48 8b 85 f8 d7 ff ff 	mov    -0x2808(%rbp),%rax
   1036e:	48 8b 10             	mov    (%rax),%rdx
   10371:	48 8b 05 88 bd 00 00 	mov    0xbd88(%rip),%rax        # 1c100 <g_239>
   10378:	48 8b 00             	mov    (%rax),%rax
   1037b:	48 09 c2             	or     %rax,%rdx
   1037e:	48 8b 85 f8 d7 ff ff 	mov    -0x2808(%rbp),%rax
   10385:	48 89 10             	mov    %rdx,(%rax)
   10388:	48 8b 85 f8 d7 ff ff 	mov    -0x2808(%rbp),%rax
   1038f:	48 8b 18             	mov    (%rax),%rbx
   10392:	8b 95 30 de ff ff    	mov    -0x21d0(%rbp),%edx
   10398:	8b 85 40 de ff ff    	mov    -0x21c0(%rbp),%eax
   1039e:	83 f8 03             	cmp    $0x3,%eax
   103a1:	0f 94 c0             	sete   %al
   103a4:	0f b6 c0             	movzbl %al,%eax
   103a7:	39 c2                	cmp    %eax,%edx
   103a9:	7e 09                	jle    103b4 <func_28+0x6534>
   103ab:	83 bd 40 d6 ff ff 00 	cmpl   $0x0,-0x29c0(%rbp)
   103b2:	74 07                	je     103bb <func_28+0x653b>
   103b4:	b8 01 00 00 00       	mov    $0x1,%eax
   103b9:	eb 05                	jmp    103c0 <func_28+0x6540>
   103bb:	b8 00 00 00 00       	mov    $0x0,%eax
   103c0:	48 98                	cltq   
   103c2:	48 89 c6             	mov    %rax,%rsi
   103c5:	48 bf 9e 71 d9 bc 2a 	movabs $0xbd6baa2abcd9719e,%rdi
   103cc:	aa 6b bd 
   103cf:	e8 d4 84 ff ff       	callq  88a8 <safe_sub_func_int64_t_s_s>
   103d4:	83 bd 48 d6 ff ff 00 	cmpl   $0x0,-0x29b8(%rbp)
   103db:	74 10                	je     103ed <func_28+0x656d>
   103dd:	83 bd 48 d6 ff ff 00 	cmpl   $0x0,-0x29b8(%rbp)
   103e4:	74 07                	je     103ed <func_28+0x656d>
   103e6:	b8 01 00 00 00       	mov    $0x1,%eax
   103eb:	eb 05                	jmp    103f2 <func_28+0x6572>
   103ed:	b8 00 00 00 00       	mov    $0x0,%eax
   103f2:	48 63 d0             	movslq %eax,%rdx
   103f5:	48 8b 05 04 bd 00 00 	mov    0xbd04(%rip),%rax        # 1c100 <g_239>
   103fc:	48 8b 00             	mov    (%rax),%rax
   103ff:	48 39 c2             	cmp    %rax,%rdx
   10402:	0f 94 c0             	sete   %al
   10405:	0f b6 c0             	movzbl %al,%eax
   10408:	48 39 c3             	cmp    %rax,%rbx
   1040b:	0f 95 c0             	setne  %al
   1040e:	0f b6 c0             	movzbl %al,%eax
   10411:	48 8b 95 40 d7 ff ff 	mov    -0x28c0(%rbp),%rdx
   10418:	48 8b 12             	mov    (%rdx),%rdx
   1041b:	48 8b 12             	mov    (%rdx),%rdx
   1041e:	66 c7 02 01 00       	movw   $0x1,(%rdx)
   10423:	89 c6                	mov    %eax,%esi
   10425:	bf 01 00 00 00       	mov    $0x1,%edi
   1042a:	e8 d0 88 ff ff       	callq  8cff <safe_add_func_uint16_t_u_u>
   1042f:	0f be c0             	movsbl %al,%eax
   10432:	44 89 e6             	mov    %r12d,%esi
   10435:	89 c7                	mov    %eax,%edi
   10437:	e8 b2 7e ff ff       	callq  82ee <safe_lshift_func_int8_t_s_u>
   1043c:	84 c0                	test   %al,%al
   1043e:	74 07                	je     10447 <func_28+0x65c7>
   10440:	b8 01 00 00 00       	mov    $0x1,%eax
   10445:	eb 05                	jmp    1044c <func_28+0x65cc>
   10447:	b8 00 00 00 00       	mov    $0x0,%eax
   1044c:	83 c8 47             	or     $0x47,%eax
   1044f:	89 c2                	mov    %eax,%edx
   10451:	0f be 85 e9 d5 ff ff 	movsbl -0x2a17(%rbp),%eax
   10458:	39 c2                	cmp    %eax,%edx
   1045a:	0f 9d c0             	setge  %al
   1045d:	0f b6 c0             	movzbl %al,%eax
   10460:	89 c2                	mov    %eax,%edx
   10462:	8b 85 c8 d7 ff ff    	mov    -0x2838(%rbp),%eax
   10468:	21 d0                	and    %edx,%eax
   1046a:	89 85 c8 d7 ff ff    	mov    %eax,-0x2838(%rbp)
   10470:	66 c7 05 7f 9e 00 00 	movw   $0x3,0x9e7f(%rip)        # 1a2f8 <g_346>
   10477:	03 00 
   10479:	e9 57 05 00 00       	jmpq   109d5 <func_28+0x6b55>
   1047e:	c7 85 30 dd ff ff 58 	movl   $0xf7c88658,-0x22d0(%rbp)
   10485:	86 c8 f7 
   10488:	c7 85 34 dd ff ff 0a 	movl   $0x145adf0a,-0x22cc(%rbp)
   1048f:	df 5a 14 
   10492:	c7 85 38 dd ff ff 0a 	movl   $0x145adf0a,-0x22c8(%rbp)
   10499:	df 5a 14 
   1049c:	c7 85 3c dd ff ff 58 	movl   $0xf7c88658,-0x22c4(%rbp)
   104a3:	86 c8 f7 
   104a6:	c7 85 40 dd ff ff 0a 	movl   $0x145adf0a,-0x22c0(%rbp)
   104ad:	df 5a 14 
   104b0:	c7 85 44 dd ff ff 0a 	movl   $0x145adf0a,-0x22bc(%rbp)
   104b7:	df 5a 14 
   104ba:	48 c7 85 48 da ff ff 	movq   $0x0,-0x25b8(%rbp)
   104c1:	00 00 00 00 
   104c5:	c7 85 fc d6 ff ff 09 	movl   $0x9,-0x2904(%rbp)
   104cc:	00 00 00 
   104cf:	c7 85 00 d7 ff ff ff 	movl   $0xffffffff,-0x2900(%rbp)
   104d6:	ff ff ff 
   104d9:	c7 85 04 d7 ff ff 2f 	movl   $0x7246c92f,-0x28fc(%rbp)
   104e0:	c9 46 72 
   104e3:	c7 85 08 d7 ff ff f7 	movl   $0xfffffff7,-0x28f8(%rbp)
   104ea:	ff ff ff 
   104ed:	48 c7 85 50 da ff ff 	movq   $0x0,-0x25b0(%rbp)
   104f4:	00 00 00 00 
   104f8:	48 8d 05 f9 cc 00 00 	lea    0xccf9(%rip),%rax        # 1d1f8 <g_1702+0x18>
   104ff:	48 89 85 58 da ff ff 	mov    %rax,-0x25a8(%rbp)
   10506:	c7 05 d8 9d 00 00 01 	movl   $0x1,0x9dd8(%rip)        # 1a2e8 <g_302>
   1050d:	00 00 00 
   10510:	e9 23 03 00 00       	jmpq   10838 <func_28+0x69b8>
   10515:	48 8d 85 d8 d7 ff ff 	lea    -0x2828(%rbp),%rax
   1051c:	48 89 85 b0 e0 ff ff 	mov    %rax,-0x1f50(%rbp)
   10523:	48 8d 85 d8 d7 ff ff 	lea    -0x2828(%rbp),%rax
   1052a:	48 89 85 b8 e0 ff ff 	mov    %rax,-0x1f48(%rbp)
   10531:	48 8d 85 d8 d7 ff ff 	lea    -0x2828(%rbp),%rax
   10538:	48 89 85 c0 e0 ff ff 	mov    %rax,-0x1f40(%rbp)
   1053f:	48 8d 85 d8 d7 ff ff 	lea    -0x2828(%rbp),%rax
   10546:	48 89 85 c8 e0 ff ff 	mov    %rax,-0x1f38(%rbp)
   1054d:	48 8d 85 d8 d7 ff ff 	lea    -0x2828(%rbp),%rax
   10554:	48 89 85 d0 e0 ff ff 	mov    %rax,-0x1f30(%rbp)
   1055b:	48 8d 85 d8 d7 ff ff 	lea    -0x2828(%rbp),%rax
   10562:	48 89 85 d8 e0 ff ff 	mov    %rax,-0x1f28(%rbp)
   10569:	48 8d 85 d8 d7 ff ff 	lea    -0x2828(%rbp),%rax
   10570:	48 89 85 e0 e0 ff ff 	mov    %rax,-0x1f20(%rbp)
   10577:	48 8d 85 d8 d7 ff ff 	lea    -0x2828(%rbp),%rax
   1057e:	48 89 85 e8 e0 ff ff 	mov    %rax,-0x1f18(%rbp)
   10585:	48 8d 85 e0 d7 ff ff 	lea    -0x2820(%rbp),%rax
   1058c:	48 89 85 60 da ff ff 	mov    %rax,-0x25a0(%rbp)
   10593:	c7 85 0c d7 ff ff 9f 	movl   $0x7afda79f,-0x28f4(%rbp)
   1059a:	a7 fd 7a 
   1059d:	48 8d 85 40 d7 ff ff 	lea    -0x28c0(%rbp),%rax
   105a4:	48 89 85 68 da ff ff 	mov    %rax,-0x2598(%rbp)
   105ab:	48 8d 85 70 e5 ff ff 	lea    -0x1a90(%rbp),%rax
   105b2:	48 05 70 01 00 00    	add    $0x170,%rax
   105b8:	48 89 85 70 da ff ff 	mov    %rax,-0x2590(%rbp)
   105bf:	8b 85 0c d7 ff ff    	mov    -0x28f4(%rbp),%eax
   105c5:	89 85 48 d6 ff ff    	mov    %eax,-0x29b8(%rbp)
   105cb:	48 8b 95 e0 d7 ff ff 	mov    -0x2820(%rbp),%rdx
   105d2:	48 8b 85 60 da ff ff 	mov    -0x25a0(%rbp),%rax
   105d9:	48 89 10             	mov    %rdx,(%rax)
   105dc:	48 8b 85 d8 d7 ff ff 	mov    -0x2828(%rbp),%rax
   105e3:	48 89 85 48 d7 ff ff 	mov    %rax,-0x28b8(%rbp)
   105ea:	48 8b 85 48 d7 ff ff 	mov    -0x28b8(%rbp),%rax
   105f1:	48 39 85 30 da ff ff 	cmp    %rax,-0x25d0(%rbp)
   105f8:	0f 95 c0             	setne  %al
   105fb:	0f b6 d0             	movzbl %al,%edx
   105fe:	48 8b 85 d8 d7 ff ff 	mov    -0x2828(%rbp),%rax
   10605:	48 8b 08             	mov    (%rax),%rcx
   10608:	48 83 c1 01          	add    $0x1,%rcx
   1060c:	48 89 08             	mov    %rcx,(%rax)
   1060f:	48 8b 00             	mov    (%rax),%rax
   10612:	48 83 f8 01          	cmp    $0x1,%rax
   10616:	0f 96 c0             	setbe  %al
   10619:	0f b6 c0             	movzbl %al,%eax
   1061c:	39 c2                	cmp    %eax,%edx
   1061e:	0f 9c c0             	setl   %al
   10621:	0f b6 c0             	movzbl %al,%eax
   10624:	be 70 00 00 00       	mov    $0x70,%esi
   10629:	89 c7                	mov    %eax,%edi
   1062b:	e8 c2 7b ff ff       	callq  81f2 <safe_sub_func_int8_t_s_s>
   10630:	c7 85 0c d7 ff ff 00 	movl   $0x0,-0x28f4(%rbp)
   10637:	00 00 00 
   1063a:	8b 05 e4 99 00 00    	mov    0x99e4(%rip),%eax        # 1a024 <g_2>
   10640:	48 63 d8             	movslq %eax,%rbx
   10643:	0f b7 05 ae 9c 00 00 	movzwl 0x9cae(%rip),%eax        # 1a2f8 <g_346>
   1064a:	44 0f be e0          	movsbl %al,%r12d
   1064e:	8b 85 30 dd ff ff    	mov    -0x22d0(%rbp),%eax
   10654:	41 89 c7             	mov    %eax,%r15d
   10657:	0f b7 05 8e 9d 00 00 	movzwl 0x9d8e(%rip),%eax        # 1a3ec <g_850>
   1065e:	0f b6 c0             	movzbl %al,%eax
   10661:	be 03 00 00 00       	mov    $0x3,%esi
   10666:	89 c7                	mov    %eax,%edi
   10668:	e8 98 85 ff ff       	callq  8c05 <safe_lshift_func_uint8_t_u_s>
   1066d:	48 8b 85 e0 e6 ff ff 	mov    -0x1920(%rbp),%rax
   10674:	48 89 85 c8 d5 ff ff 	mov    %rax,-0x2a38(%rbp)
   1067b:	8b 85 48 d6 ff ff    	mov    -0x29b8(%rbp),%eax
   10681:	0f be d0             	movsbl %al,%edx
   10684:	8b 85 40 de ff ff    	mov    -0x21c0(%rbp),%eax
   1068a:	48 63 c8             	movslq %eax,%rcx
   1068d:	48 8b 85 e0 e6 ff ff 	mov    -0x1920(%rbp),%rax
   10694:	48 39 c1             	cmp    %rax,%rcx
   10697:	0f 97 c0             	seta   %al
   1069a:	0f b6 c0             	movzbl %al,%eax
   1069d:	89 d6                	mov    %edx,%esi
   1069f:	89 c7                	mov    %eax,%edi
   106a1:	e8 6c 7b ff ff       	callq  8212 <safe_mul_func_int8_t_s_s>
   106a6:	0f be c0             	movsbl %al,%eax
   106a9:	be 0a 00 00 00       	mov    $0xa,%esi
   106ae:	89 c7                	mov    %eax,%edi
   106b0:	e8 ae 7e ff ff       	callq  8563 <safe_rshift_func_int16_t_s_u>
   106b5:	66 85 c0             	test   %ax,%ax
   106b8:	0f 84 91 00 00 00    	je     1074f <func_28+0x68cf>
   106be:	0f b7 05 93 d0 00 00 	movzwl 0xd093(%rip),%eax        # 1d758 <g_1626>
   106c5:	0f b7 d0             	movzwl %ax,%edx
   106c8:	48 8b 85 30 da ff ff 	mov    -0x25d0(%rbp),%rax
   106cf:	48 89 10             	mov    %rdx,(%rax)
   106d2:	48 8b 85 30 da ff ff 	mov    -0x25d0(%rbp),%rax
   106d9:	4c 8b 30             	mov    (%rax),%r14
   106dc:	8b 85 48 d6 ff ff    	mov    -0x29b8(%rbp),%eax
   106e2:	44 0f b6 e8          	movzbl %al,%r13d
   106e6:	48 8b 05 e3 ca 00 00 	mov    0xcae3(%rip),%rax        # 1d1d0 <g_1431>
   106ed:	48 8b 00             	mov    (%rax),%rax
   106f0:	48 39 85 68 da ff ff 	cmp    %rax,-0x2598(%rbp)
   106f7:	0f 95 c0             	setne  %al
   106fa:	0f b6 c0             	movzbl %al,%eax
   106fd:	89 c6                	mov    %eax,%esi
   106ff:	bf 00 00 00 00       	mov    $0x0,%edi
   10704:	e8 8a 84 ff ff       	callq  8b93 <safe_mul_func_uint8_t_u_u>
   10709:	0f b6 d0             	movzbl %al,%edx
   1070c:	48 8b 85 e0 e6 ff ff 	mov    -0x1920(%rbp),%rax
   10713:	48 39 c2             	cmp    %rax,%rdx
   10716:	0f 95 c0             	setne  %al
   10719:	0f b6 c0             	movzbl %al,%eax
   1071c:	44 89 ee             	mov    %r13d,%esi
   1071f:	89 c7                	mov    %eax,%edi
   10721:	e8 6d 84 ff ff       	callq  8b93 <safe_mul_func_uint8_t_u_u>
   10726:	0f b6 c0             	movzbl %al,%eax
   10729:	be 02 00 00 00       	mov    $0x2,%esi
   1072e:	89 c7                	mov    %eax,%edi
   10730:	e8 58 85 ff ff       	callq  8c8d <safe_rshift_func_uint8_t_u_s>
   10735:	0f b6 c0             	movzbl %al,%eax
   10738:	89 c7                	mov    %eax,%edi
   1073a:	e8 5e 7c ff ff       	callq  839d <safe_unary_minus_func_int16_t_s>
   1073f:	48 0f bf c0          	movswq %ax,%rax
   10743:	49 39 c6             	cmp    %rax,%r14
   10746:	74 07                	je     1074f <func_28+0x68cf>
   10748:	b8 01 00 00 00       	mov    $0x1,%eax
   1074d:	eb 05                	jmp    10754 <func_28+0x68d4>
   1074f:	b8 00 00 00 00       	mov    $0x0,%eax
   10754:	48 98                	cltq   
   10756:	48 8b b5 c8 d5 ff ff 	mov    -0x2a38(%rbp),%rsi
   1075d:	48 89 c7             	mov    %rax,%rdi
   10760:	e8 4f 82 ff ff       	callq  89b4 <safe_mod_func_int64_t_s_s>
   10765:	48 85 c0             	test   %rax,%rax
   10768:	44 89 fe             	mov    %r15d,%esi
   1076b:	bf 01 00 00 00       	mov    $0x1,%edi
   10770:	e8 49 86 ff ff       	callq  8dbe <safe_lshift_func_uint16_t_u_s>
   10775:	89 c2                	mov    %eax,%edx
   10777:	8b 85 0c d7 ff ff    	mov    -0x28f4(%rbp),%eax
   1077d:	31 d0                	xor    %edx,%eax
   1077f:	83 f0 e4             	xor    $0xffffffe4,%eax
   10782:	89 c2                	mov    %eax,%edx
   10784:	48 8b 05 1d c2 00 00 	mov    0xc21d(%rip),%rax        # 1c9a8 <g_1127>
   1078b:	48 8b 00             	mov    (%rax),%rax
   1078e:	0f b7 00             	movzwl (%rax),%eax
   10791:	09 d0                	or     %edx,%eax
   10793:	0f be c0             	movsbl %al,%eax
   10796:	44 89 e6             	mov    %r12d,%esi
   10799:	89 c7                	mov    %eax,%edi
   1079b:	e8 72 7a ff ff       	callq  8212 <safe_mul_func_int8_t_s_s>
   107a0:	48 83 bd 10 da ff ff 	cmpq   $0x0,-0x25f0(%rbp)
   107a7:	00 
   107a8:	0f 95 c0             	setne  %al
   107ab:	0f b6 c0             	movzbl %al,%eax
   107ae:	39 85 0c d7 ff ff    	cmp    %eax,-0x28f4(%rbp)
   107b4:	7d 07                	jge    107bd <func_28+0x693d>
   107b6:	83 bd 48 d6 ff ff 00 	cmpl   $0x0,-0x29b8(%rbp)
   107bd:	8b 85 44 d6 ff ff    	mov    -0x29bc(%rbp),%eax
   107c3:	48 98                	cltq   
   107c5:	48 89 de             	mov    %rbx,%rsi
   107c8:	48 89 c7             	mov    %rax,%rdi
   107cb:	e8 d8 80 ff ff       	callq  88a8 <safe_sub_func_int64_t_s_s>
   107d0:	be 00 00 00 00       	mov    $0x0,%esi
   107d5:	89 c7                	mov    %eax,%edi
   107d7:	e8 29 7e ff ff       	callq  8605 <safe_sub_func_int32_t_s_s>
   107dc:	48 8b 05 1d ca 00 00 	mov    0xca1d(%rip),%rax        # 1d200 <g_1701>
   107e3:	48 8b 00             	mov    (%rax),%rax
   107e6:	48 8b 95 70 da ff ff 	mov    -0x2590(%rbp),%rdx
   107ed:	48 89 10             	mov    %rdx,(%rax)
   107f0:	48 8b 00             	mov    (%rax),%rax
   107f3:	48 89 85 d0 d7 ff ff 	mov    %rax,-0x2830(%rbp)
   107fa:	48 8d 85 40 df ff ff 	lea    -0x20c0(%rbp),%rax
   10801:	48 05 50 01 00 00    	add    $0x150,%rax
   10807:	48 89 85 48 da ff ff 	mov    %rax,-0x25b8(%rbp)
   1080e:	48 8b 05 0b c1 00 00 	mov    0xc10b(%rip),%rax        # 1c920 <g_561>
   10815:	8b 00                	mov    (%rax),%eax
   10817:	89 85 0c d7 ff ff    	mov    %eax,-0x28f4(%rbp)
   1081d:	8b 85 0c d7 ff ff    	mov    -0x28f4(%rbp),%eax
   10823:	89 85 40 d6 ff ff    	mov    %eax,-0x29c0(%rbp)
   10829:	8b 05 b9 9a 00 00    	mov    0x9ab9(%rip),%eax        # 1a2e8 <g_302>
   1082f:	83 e8 01             	sub    $0x1,%eax
   10832:	89 05 b0 9a 00 00    	mov    %eax,0x9ab0(%rip)        # 1a2e8 <g_302>
   10838:	8b 05 aa 9a 00 00    	mov    0x9aaa(%rip),%eax        # 1a2e8 <g_302>
   1083e:	85 c0                	test   %eax,%eax
   10840:	0f 89 cf fc ff ff    	jns    10515 <func_28+0x6695>
   10846:	0f b7 05 0b cf 00 00 	movzwl 0xcf0b(%rip),%eax        # 1d758 <g_1626>
   1084d:	66 85 c0             	test   %ax,%ax
   10850:	0f 85 f0 03 00 00    	jne    10c46 <func_28+0x6dc6>
   10856:	0f b6 85 e4 d5 ff ff 	movzbl -0x2a1c(%rbp),%eax
   1085d:	83 c0 01             	add    $0x1,%eax
   10860:	88 85 e4 d5 ff ff    	mov    %al,-0x2a1c(%rbp)
   10866:	c7 85 4c d6 ff ff 03 	movl   $0x3,-0x29b4(%rbp)
   1086d:	00 00 00 
   10870:	e9 3f 01 00 00       	jmpq   109b4 <func_28+0x6b34>
   10875:	83 bd d8 d6 ff ff 00 	cmpl   $0x0,-0x2928(%rbp)
   1087c:	0f 85 41 01 00 00    	jne    109c3 <func_28+0x6b43>
   10882:	48 c7 85 38 da ff ff 	movq   $0x0,-0x25c8(%rbp)
   10889:	00 00 00 00 
   1088d:	8b 9d 30 dd ff ff    	mov    -0x22d0(%rbp),%ebx
   10893:	48 8b 05 26 c1 00 00 	mov    0xc126(%rip),%rax        # 1c9c0 <g_1144>
   1089a:	48 8b 10             	mov    (%rax),%rdx
   1089d:	48 8d 85 d0 d7 ff ff 	lea    -0x2830(%rbp),%rax
   108a4:	48 39 c2             	cmp    %rax,%rdx
   108a7:	0f 84 ce 00 00 00    	je     1097b <func_28+0x6afb>
   108ad:	8b 85 3c dd ff ff    	mov    -0x22c4(%rbp),%eax
   108b3:	89 c0                	mov    %eax,%eax
   108b5:	48 89 c6             	mov    %rax,%rsi
   108b8:	bf 03 00 00 00       	mov    $0x3,%edi
   108bd:	e8 f2 80 ff ff       	callq  89b4 <safe_mod_func_int64_t_s_s>
   108c2:	49 89 c4             	mov    %rax,%r12
   108c5:	0f b6 05 40 9a 00 00 	movzbl 0x9a40(%rip),%eax        # 1a30c <g_569>
   108cc:	0f b6 c0             	movzbl %al,%eax
   108cf:	be 06 00 00 00       	mov    $0x6,%esi
   108d4:	89 c7                	mov    %eax,%edi
   108d6:	e8 2a 83 ff ff       	callq  8c05 <safe_lshift_func_uint8_t_u_s>
   108db:	0f b6 c0             	movzbl %al,%eax
   108de:	4c 89 e6             	mov    %r12,%rsi
   108e1:	48 89 c7             	mov    %rax,%rdi
   108e4:	e8 cb 80 ff ff       	callq  89b4 <safe_mod_func_int64_t_s_s>
   108e9:	48 8b 05 68 c0 00 00 	mov    0xc068(%rip),%rax        # 1c958 <g_875>
   108f0:	48 8b 00             	mov    (%rax),%rax
   108f3:	48 8b 15 5e c0 00 00 	mov    0xc05e(%rip),%rdx        # 1c958 <g_875>
   108fa:	48 8b 12             	mov    (%rdx),%rdx
   108fd:	48 89 95 50 da ff ff 	mov    %rdx,-0x25b0(%rbp)
   10904:	48 39 85 50 da ff ff 	cmp    %rax,-0x25b0(%rbp)
   1090b:	48 83 bd 58 da ff ff 	cmpq   $0x0,-0x25a8(%rbp)
   10912:	00 
   10913:	0f 95 c0             	setne  %al
   10916:	0f b6 c0             	movzbl %al,%eax
   10919:	be 0b 00 00 00       	mov    $0xb,%esi
   1091e:	89 c7                	mov    %eax,%edi
   10920:	e8 3e 7c ff ff       	callq  8563 <safe_rshift_func_int16_t_s_u>
   10925:	66 3d a3 00          	cmp    $0xa3,%ax
   10929:	0f 9e c0             	setle  %al
   1092c:	0f b6 c0             	movzbl %al,%eax
   1092f:	8b 95 40 dd ff ff    	mov    -0x22c0(%rbp),%edx
   10935:	89 c6                	mov    %eax,%esi
   10937:	89 d7                	mov    %edx,%edi
   10939:	e8 78 7c ff ff       	callq  85b6 <safe_add_func_int32_t_s_s>
   1093e:	85 c0                	test   %eax,%eax
   10940:	48 8b 85 30 da ff ff 	mov    -0x25d0(%rbp),%rax
   10947:	48 c7 00 00 00 00 00 	movq   $0x0,(%rax)
   1094e:	0f b6 05 fb 96 00 00 	movzbl 0x96fb(%rip),%eax        # 1a050 <g_145>
   10955:	0f be c0             	movsbl %al,%eax
   10958:	39 85 e4 d6 ff ff    	cmp    %eax,-0x291c(%rbp)
   1095e:	0f 9c c0             	setl   %al
   10961:	0f b6 c0             	movzbl %al,%eax
   10964:	be 03 00 00 00       	mov    $0x3,%esi
   10969:	89 c7                	mov    %eax,%edi
   1096b:	e8 dc 82 ff ff       	callq  8c4c <safe_lshift_func_uint8_t_u_u>
   10970:	84 c0                	test   %al,%al
   10972:	74 07                	je     1097b <func_28+0x6afb>
   10974:	b8 01 00 00 00       	mov    $0x1,%eax
   10979:	eb 05                	jmp    10980 <func_28+0x6b00>
   1097b:	b8 00 00 00 00       	mov    $0x0,%eax
   10980:	89 c2                	mov    %eax,%edx
   10982:	48 8b 05 7f b7 00 00 	mov    0xb77f(%rip),%rax        # 1c108 <g_270>
   10989:	48 8b 00             	mov    (%rax),%rax
   1098c:	48 8b 00             	mov    (%rax),%rax
   1098f:	8b 00                	mov    (%rax),%eax
   10991:	39 c2                	cmp    %eax,%edx
   10993:	89 de                	mov    %ebx,%esi
   10995:	bf 71 b5 00 00       	mov    $0xb571,%edi
   1099a:	e8 67 84 ff ff       	callq  8e06 <safe_lshift_func_uint16_t_u_u>
   1099f:	89 c2                	mov    %eax,%edx
   109a1:	48 8b 05 78 bf 00 00 	mov    0xbf78(%rip),%rax        # 1c920 <g_561>
   109a8:	0f b7 d2             	movzwl %dx,%edx
   109ab:	89 10                	mov    %edx,(%rax)
   109ad:	83 ad 4c d6 ff ff 01 	subl   $0x1,-0x29b4(%rbp)
   109b4:	83 bd 4c d6 ff ff 00 	cmpl   $0x0,-0x29b4(%rbp)
   109bb:	0f 89 b4 fe ff ff    	jns    10875 <func_28+0x69f5>
   109c1:	eb 01                	jmp    109c4 <func_28+0x6b44>
   109c3:	90                   	nop
   109c4:	0f b7 05 2d 99 00 00 	movzwl 0x992d(%rip),%eax        # 1a2f8 <g_346>
   109cb:	83 e8 01             	sub    $0x1,%eax
   109ce:	66 89 05 23 99 00 00 	mov    %ax,0x9923(%rip)        # 1a2f8 <g_346>
   109d5:	0f b7 05 1c 99 00 00 	movzwl 0x991c(%rip),%eax        # 1a2f8 <g_346>
   109dc:	66 85 c0             	test   %ax,%ax
   109df:	0f 89 99 fa ff ff    	jns    1047e <func_28+0x65fe>
   109e5:	0f b6 05 4d a2 00 00 	movzbl 0xa24d(%rip),%eax        # 1ac39 <g_1944+0x1>
   109ec:	83 e8 01             	sub    $0x1,%eax
   109ef:	88 05 44 a2 00 00    	mov    %al,0xa244(%rip)        # 1ac39 <g_1944+0x1>
   109f5:	c6 05 60 97 00 00 00 	movb   $0x0,0x9760(%rip)        # 1a15c <g_193>
   109fc:	e9 2c 02 00 00       	jmpq   10c2d <func_28+0x6dad>
   10a01:	c7 85 f8 d6 ff ff 75 	movl   $0x20bf6f75,-0x2908(%rbp)
   10a08:	6f bf 20 
   10a0b:	c7 05 5b 97 00 00 02 	movl   $0x2,0x975b(%rip)        # 1a170 <g_292>
   10a12:	00 00 00 
   10a15:	eb 18                	jmp    10a2f <func_28+0x6baf>
   10a17:	83 bd f8 d6 ff ff 00 	cmpl   $0x0,-0x2908(%rbp)
   10a1e:	75 1b                	jne    10a3b <func_28+0x6bbb>
   10a20:	8b 05 4a 97 00 00    	mov    0x974a(%rip),%eax        # 1a170 <g_292>
   10a26:	83 e8 01             	sub    $0x1,%eax
   10a29:	89 05 41 97 00 00    	mov    %eax,0x9741(%rip)        # 1a170 <g_292>
   10a2f:	8b 05 3b 97 00 00    	mov    0x973b(%rip),%eax        # 1a170 <g_292>
   10a35:	85 c0                	test   %eax,%eax
   10a37:	79 de                	jns    10a17 <func_28+0x6b97>
   10a39:	eb 01                	jmp    10a3c <func_28+0x6bbc>
   10a3b:	90                   	nop
   10a3c:	48 8b 05 a5 b6 00 00 	mov    0xb6a5(%rip),%rax        # 1c0e8 <g_15>
   10a43:	48 8d 95 c8 d7 ff ff 	lea    -0x2838(%rbp),%rdx
   10a4a:	48 89 10             	mov    %rdx,(%rax)
   10a4d:	48 c7 05 b8 cc 00 00 	movq   $0x0,0xccb8(%rip)        # 1d710 <g_284>
   10a54:	00 00 00 00 
   10a58:	e9 af 01 00 00       	jmpq   10c0c <func_28+0x6d8c>
   10a5d:	c6 85 ea d5 ff ff 8d 	movb   $0x8d,-0x2a16(%rbp)
   10a64:	48 8d 05 1d bf 00 00 	lea    0xbf1d(%rip),%rax        # 1c988 <g_1106>
   10a6b:	48 89 85 40 da ff ff 	mov    %rax,-0x25c0(%rbp)
   10a72:	8b 85 04 d6 ff ff    	mov    -0x29fc(%rbp),%eax
   10a78:	85 c0                	test   %eax,%eax
   10a7a:	0f 85 cc 01 00 00    	jne    10c4c <func_28+0x6dcc>
   10a80:	48 8b 85 10 d8 ff ff 	mov    -0x27f0(%rbp),%rax
   10a87:	48 8b 00             	mov    (%rax),%rax
   10a8a:	48 8b 18             	mov    (%rax),%rbx
   10a8d:	be 0e 00 00 00       	mov    $0xe,%esi
   10a92:	bf 00 00 00 00       	mov    $0x0,%edi
   10a97:	e8 ac 83 ff ff       	callq  8e48 <safe_rshift_func_uint16_t_u_s>
   10a9c:	66 89 03             	mov    %ax,(%rbx)
   10a9f:	0f b7 03             	movzwl (%rbx),%eax
   10aa2:	0f b7 c0             	movzwl %ax,%eax
   10aa5:	be 0c 00 00 00       	mov    $0xc,%esi
   10aaa:	89 c7                	mov    %eax,%edi
   10aac:	e8 97 83 ff ff       	callq  8e48 <safe_rshift_func_uint16_t_u_s>
   10ab1:	89 c2                	mov    %eax,%edx
   10ab3:	48 8b 05 2e b6 00 00 	mov    0xb62e(%rip),%rax        # 1c0e8 <g_15>
   10aba:	48 8b 00             	mov    (%rax),%rax
   10abd:	0f b7 d2             	movzwl %dx,%edx
   10ac0:	89 10                	mov    %edx,(%rax)
   10ac2:	8b 85 f8 d6 ff ff    	mov    -0x2908(%rbp),%eax
   10ac8:	89 c2                	mov    %eax,%edx
   10aca:	48 8b 85 f8 d9 ff ff 	mov    -0x2608(%rbp),%rax
   10ad1:	88 10                	mov    %dl,(%rax)
   10ad3:	48 8b 85 f8 d9 ff ff 	mov    -0x2608(%rbp),%rax
   10ada:	0f b6 00             	movzbl (%rax),%eax
   10add:	84 c0                	test   %al,%al
   10adf:	0f 85 ef 00 00 00    	jne    10bd4 <func_28+0x6d54>
   10ae5:	8b 85 58 db ff ff    	mov    -0x24a8(%rbp),%eax
   10aeb:	48 63 d8             	movslq %eax,%rbx
   10aee:	8b 85 44 d6 ff ff    	mov    -0x29bc(%rbp),%eax
   10af4:	89 c2                	mov    %eax,%edx
   10af6:	48 8b 85 f8 d9 ff ff 	mov    -0x2608(%rbp),%rax
   10afd:	88 10                	mov    %dl,(%rax)
   10aff:	0f b7 85 9a dc ff ff 	movzwl -0x2366(%rbp),%eax
   10b06:	44 0f bf e0          	movswl %ax,%r12d
   10b0a:	48 8b 85 d0 d5 ff ff 	mov    -0x2a30(%rbp),%rax
   10b11:	48 8b 00             	mov    (%rax),%rax
   10b14:	48 85 c0             	test   %rax,%rax
   10b17:	0f 94 c0             	sete   %al
   10b1a:	44 0f b6 e8          	movzbl %al,%r13d
   10b1e:	48 8b 05 cb b5 00 00 	mov    0xb5cb(%rip),%rax        # 1c0f0 <g_198>
   10b25:	8b 00                	mov    (%rax),%eax
   10b27:	85 c0                	test   %eax,%eax
   10b29:	74 55                	je     10b80 <func_28+0x6d00>
   10b2b:	8b 85 f4 d6 ff ff    	mov    -0x290c(%rbp),%eax
   10b31:	0f bf d0             	movswl %ax,%edx
   10b34:	48 8b 85 20 d8 ff ff 	mov    -0x27e0(%rbp),%rax
   10b3b:	c6 00 01             	movb   $0x1,(%rax)
   10b3e:	0f be 85 ea d5 ff ff 	movsbl -0x2a16(%rbp),%eax
   10b45:	83 e0 01             	and    $0x1,%eax
   10b48:	0b 85 f8 d6 ff ff    	or     -0x2908(%rbp),%eax
   10b4e:	85 c0                	test   %eax,%eax
   10b50:	0f 95 c0             	setne  %al
   10b53:	0f b6 c8             	movzbl %al,%ecx
   10b56:	48 8b 85 20 da ff ff 	mov    -0x25e0(%rbp),%rax
   10b5d:	66 89 08             	mov    %cx,(%rax)
   10b60:	48 8b 85 20 da ff ff 	mov    -0x25e0(%rbp),%rax
   10b67:	0f b7 00             	movzwl (%rax),%eax
   10b6a:	98                   	cwtl   
   10b6b:	89 d6                	mov    %edx,%esi
   10b6d:	89 c7                	mov    %eax,%edi
   10b6f:	e8 81 78 ff ff       	callq  83f5 <safe_mul_func_int16_t_s_s>
   10b74:	66 85 c0             	test   %ax,%ax
   10b77:	74 07                	je     10b80 <func_28+0x6d00>
   10b79:	b8 01 00 00 00       	mov    $0x1,%eax
   10b7e:	eb 05                	jmp    10b85 <func_28+0x6d05>
   10b80:	b8 00 00 00 00       	mov    $0x0,%eax
   10b85:	44 39 e8             	cmp    %r13d,%eax
   10b88:	0f 9e c0             	setle  %al
   10b8b:	0f b6 c0             	movzbl %al,%eax
   10b8e:	44 89 e6             	mov    %r12d,%esi
   10b91:	89 c7                	mov    %eax,%edi
   10b93:	e8 1b 78 ff ff       	callq  83b3 <safe_add_func_int16_t_s_s>
   10b98:	48 8b 85 f8 d9 ff ff 	mov    -0x2608(%rbp),%rax
   10b9f:	c6 00 4a             	movb   $0x4a,(%rax)
   10ba2:	48 8b 85 f8 d9 ff ff 	mov    -0x2608(%rbp),%rax
   10ba9:	0f b6 00             	movzbl (%rax),%eax
   10bac:	0f be c0             	movsbl %al,%eax
   10baf:	89 c7                	mov    %eax,%edi
   10bb1:	e8 09 76 ff ff       	callq  81bf <safe_unary_minus_func_int8_t_s>
   10bb6:	48 89 de             	mov    %rbx,%rsi
   10bb9:	48 c7 c7 fe ff ff ff 	mov    $0xfffffffffffffffe,%rdi
   10bc0:	e8 86 84 ff ff       	callq  904b <safe_sub_func_uint64_t_u_u>
   10bc5:	88 05 3b a0 00 00    	mov    %al,0xa03b(%rip)        # 1ac06 <g_1672+0x6>
   10bcb:	83 bd f8 d6 ff ff 00 	cmpl   $0x0,-0x2908(%rbp)
   10bd2:	74 07                	je     10bdb <func_28+0x6d5b>
   10bd4:	b9 01 00 00 00       	mov    $0x1,%ecx
   10bd9:	eb 05                	jmp    10be0 <func_28+0x6d60>
   10bdb:	b9 00 00 00 00       	mov    $0x0,%ecx
   10be0:	48 8b 05 01 b5 00 00 	mov    0xb501(%rip),%rax        # 1c0e8 <g_15>
   10be7:	48 8b 00             	mov    (%rax),%rax
   10bea:	8b 10                	mov    (%rax),%edx
   10bec:	48 8b 05 f5 b4 00 00 	mov    0xb4f5(%rip),%rax        # 1c0e8 <g_15>
   10bf3:	48 8b 00             	mov    (%rax),%rax
   10bf6:	21 ca                	and    %ecx,%edx
   10bf8:	89 10                	mov    %edx,(%rax)
   10bfa:	48 8b 05 0f cb 00 00 	mov    0xcb0f(%rip),%rax        # 1d710 <g_284>
   10c01:	48 83 c0 01          	add    $0x1,%rax
   10c05:	48 89 05 04 cb 00 00 	mov    %rax,0xcb04(%rip)        # 1d710 <g_284>
   10c0c:	48 8b 05 fd ca 00 00 	mov    0xcafd(%rip),%rax        # 1d710 <g_284>
   10c13:	48 83 f8 03          	cmp    $0x3,%rax
   10c17:	0f 86 40 fe ff ff    	jbe    10a5d <func_28+0x6bdd>
   10c1d:	0f b6 05 38 95 00 00 	movzbl 0x9538(%rip),%eax        # 1a15c <g_193>
   10c24:	83 c0 01             	add    $0x1,%eax
   10c27:	88 05 2f 95 00 00    	mov    %al,0x952f(%rip)        # 1a15c <g_193>
   10c2d:	0f b6 05 28 95 00 00 	movzbl 0x9528(%rip),%eax        # 1a15c <g_193>
   10c34:	3c 03                	cmp    $0x3,%al
   10c36:	0f 8e c5 fd ff ff    	jle    10a01 <func_28+0x6b81>
   10c3c:	48 83 85 e8 d7 ff ff 	addq   $0x1,-0x2818(%rbp)
   10c43:	01 
   10c44:	eb 0c                	jmp    10c52 <func_28+0x6dd2>
   10c46:	90                   	nop
   10c47:	e9 19 eb ff ff       	jmpq   f765 <func_28+0x58e5>
   10c4c:	90                   	nop
   10c4d:	e9 13 eb ff ff       	jmpq   f765 <func_28+0x58e5>
   10c52:	48 83 bd e8 d7 ff ff 	cmpq   $0x1,-0x2818(%rbp)
   10c59:	01 
   10c5a:	0f 86 98 f0 ff ff    	jbe    fcf8 <func_28+0x5e78>
   10c60:	e9 14 01 00 00       	jmpq   10d79 <func_28+0x6ef9>
   10c65:	c7 85 e0 d6 ff ff ff 	movl   $0xffffffff,-0x2920(%rbp)
   10c6c:	ff ff ff 
   10c6f:	48 8b 05 aa bc 00 00 	mov    0xbcaa(%rip),%rax        # 1c920 <g_561>
   10c76:	44 8b 28             	mov    (%rax),%r13d
   10c79:	8b 85 e0 d6 ff ff    	mov    -0x2920(%rbp),%eax
   10c7f:	0f be d8             	movsbl %al,%ebx
   10c82:	48 8b 05 77 b4 00 00 	mov    0xb477(%rip),%rax        # 1c100 <g_239>
   10c89:	48 8b 00             	mov    (%rax),%rax
   10c8c:	49 89 c6             	mov    %rax,%r14
   10c8f:	8b 85 e0 d6 ff ff    	mov    -0x2920(%rbp),%eax
   10c95:	44 0f be e0          	movsbl %al,%r12d
   10c99:	8b 85 c8 d7 ff ff    	mov    -0x2838(%rbp),%eax
   10c9f:	41 89 c7             	mov    %eax,%r15d
   10ca2:	0f b6 05 cf 9e 00 00 	movzbl 0x9ecf(%rip),%eax        # 1ab78 <g_1360>
   10ca9:	0f be c0             	movsbl %al,%eax
   10cac:	39 85 e0 d6 ff ff    	cmp    %eax,-0x2920(%rbp)
   10cb2:	0f 95 c0             	setne  %al
   10cb5:	0f b6 c0             	movzbl %al,%eax
   10cb8:	39 85 e0 d6 ff ff    	cmp    %eax,-0x2920(%rbp)
   10cbe:	0f 95 c0             	setne  %al
   10cc1:	0f b6 d0             	movzbl %al,%edx
   10cc4:	8b 85 40 d6 ff ff    	mov    -0x29c0(%rbp),%eax
   10cca:	0f b7 c0             	movzwl %ax,%eax
   10ccd:	89 d6                	mov    %edx,%esi
   10ccf:	89 c7                	mov    %eax,%edi
   10cd1:	e8 67 80 ff ff       	callq  8d3d <safe_mul_func_uint16_t_u_u>
   10cd6:	0f b7 c0             	movzwl %ax,%eax
   10cd9:	39 85 e0 d6 ff ff    	cmp    %eax,-0x2920(%rbp)
   10cdf:	0f 9f c0             	setg   %al
   10ce2:	0f b6 c0             	movzbl %al,%eax
   10ce5:	be 03 00 00 00       	mov    $0x3,%esi
   10cea:	89 c7                	mov    %eax,%edi
   10cec:	e8 14 79 ff ff       	callq  8605 <safe_sub_func_int32_t_s_s>
   10cf1:	44 89 fe             	mov    %r15d,%esi
   10cf4:	89 c7                	mov    %eax,%edi
   10cf6:	e8 bd 81 ff ff       	callq  8eb8 <safe_add_func_uint32_t_u_u>
   10cfb:	0f be c0             	movsbl %al,%eax
   10cfe:	44 89 e6             	mov    %r12d,%esi
   10d01:	89 c7                	mov    %eax,%edi
   10d03:	e8 cc 74 ff ff       	callq  81d4 <safe_add_func_int8_t_s_s>
   10d08:	4c 89 f6             	mov    %r14,%rsi
   10d0b:	bf 01 00 00 00       	mov    $0x1,%edi
   10d10:	e8 19 83 ff ff       	callq  902e <safe_add_func_uint64_t_u_u>
   10d15:	0f be c0             	movsbl %al,%eax
   10d18:	89 de                	mov    %ebx,%esi
   10d1a:	89 c7                	mov    %eax,%edi
   10d1c:	e8 b3 74 ff ff       	callq  81d4 <safe_add_func_int8_t_s_s>
   10d21:	0f be c0             	movsbl %al,%eax
   10d24:	41 39 c5             	cmp    %eax,%r13d
   10d27:	0f 95 c0             	setne  %al
   10d2a:	89 c2                	mov    %eax,%edx
   10d2c:	48 8b 85 08 da ff ff 	mov    -0x25f8(%rbp),%rax
   10d33:	88 10                	mov    %dl,(%rax)
   10d35:	48 8b 85 08 da ff ff 	mov    -0x25f8(%rbp),%rax
   10d3c:	0f b6 00             	movzbl (%rax),%eax
   10d3f:	0f be c0             	movsbl %al,%eax
   10d42:	39 85 dc d6 ff ff    	cmp    %eax,-0x2924(%rbp)
   10d48:	75 07                	jne    10d51 <func_28+0x6ed1>
   10d4a:	ba 01 00 00 00       	mov    $0x1,%edx
   10d4f:	eb 05                	jmp    10d56 <func_28+0x6ed6>
   10d51:	ba 00 00 00 00       	mov    $0x0,%edx
   10d56:	8b 05 dc 92 00 00    	mov    0x92dc(%rip),%eax        # 1a038 <g_73>
   10d5c:	39 c2                	cmp    %eax,%edx
   10d5e:	0f 94 c0             	sete   %al
   10d61:	0f b6 c0             	movzbl %al,%eax
   10d64:	39 85 e0 d6 ff ff    	cmp    %eax,-0x2920(%rbp)
   10d6a:	0f 9d c2             	setge  %dl
   10d6d:	48 8b 05 ac bb 00 00 	mov    0xbbac(%rip),%rax        # 1c920 <g_561>
   10d74:	0f b6 d2             	movzbl %dl,%edx
   10d77:	89 10                	mov    %edx,(%rax)
   10d79:	48 8b 85 18 da ff ff 	mov    -0x25e8(%rbp),%rax
   10d80:	48 8b 5d c8          	mov    -0x38(%rbp),%rbx
   10d84:	64 48 33 1c 25 28 00 	xor    %fs:0x28,%rbx
   10d8b:	00 00 
   10d8d:	74 05                	je     10d94 <func_28+0x6f14>
   10d8f:	e8 dc 72 ff ff       	callq  8070 <__stack_chk_fail@plt>
   10d94:	48 81 c4 18 2a 00 00 	add    $0x2a18,%rsp
   10d9b:	5b                   	pop    %rbx
   10d9c:	41 5c                	pop    %r12
   10d9e:	41 5d                	pop    %r13
   10da0:	41 5e                	pop    %r14
   10da2:	41 5f                	pop    %r15
   10da4:	5d                   	pop    %rbp
   10da5:	c3                   	retq   

0000000000010da6 <func_34>:
   10da6:	f3 0f 1e fa          	endbr64 
   10daa:	55                   	push   %rbp
   10dab:	48 89 e5             	mov    %rsp,%rbp
   10dae:	41 57                	push   %r15
   10db0:	41 56                	push   %r14
   10db2:	41 55                	push   %r13
   10db4:	41 54                	push   %r12
   10db6:	53                   	push   %rbx
   10db7:	48 81 ec d8 04 00 00 	sub    $0x4d8,%rsp
   10dbe:	89 f8                	mov    %edi,%eax
   10dc0:	66 89 85 1c fb ff ff 	mov    %ax,-0x4e4(%rbp)
   10dc7:	64 48 8b 04 25 28 00 	mov    %fs:0x28,%rax
   10dce:	00 00 
   10dd0:	48 89 45 c8          	mov    %rax,-0x38(%rbp)
   10dd4:	31 c0                	xor    %eax,%eax
   10dd6:	48 8d 05 47 92 00 00 	lea    0x9247(%rip),%rax        # 1a024 <g_2>
   10ddd:	48 89 85 30 fb ff ff 	mov    %rax,-0x4d0(%rbp)
   10de4:	48 8d 85 30 fb ff ff 	lea    -0x4d0(%rbp),%rax
   10deb:	48 89 85 38 fb ff ff 	mov    %rax,-0x4c8(%rbp)
   10df2:	48 c7 85 50 fb ff ff 	movq   $0x0,-0x4b0(%rbp)
   10df9:	00 00 00 00 
   10dfd:	48 8d 05 34 92 00 00 	lea    0x9234(%rip),%rax        # 1a038 <g_73>
   10e04:	48 89 85 58 fb ff ff 	mov    %rax,-0x4a8(%rbp)
   10e0b:	48 c7 85 60 fb ff ff 	movq   $0x0,-0x4a0(%rbp)
   10e12:	00 00 00 00 
   10e16:	48 8d 05 13 92 00 00 	lea    0x9213(%rip),%rax        # 1a030 <g_19>
   10e1d:	48 89 85 68 fb ff ff 	mov    %rax,-0x498(%rbp)
   10e24:	48 8d 05 15 92 00 00 	lea    0x9215(%rip),%rax        # 1a040 <g_81>
   10e2b:	48 89 85 70 fb ff ff 	mov    %rax,-0x490(%rbp)
   10e32:	c7 85 2c fb ff ff 97 	movl   $0xfb42cd97,-0x4d4(%rbp)
   10e39:	cd 42 fb 
   10e3c:	48 c7 85 78 fb ff ff 	movq   $0x1,-0x488(%rbp)
   10e43:	01 00 00 00 
   10e47:	48 c7 85 40 fb ff ff 	movq   $0x0,-0x4c0(%rbp)
   10e4e:	00 00 00 00 
   10e52:	48 8d 05 87 b2 00 00 	lea    0xb287(%rip),%rax        # 1c0e0 <g_16>
   10e59:	48 89 85 48 fb ff ff 	mov    %rax,-0x4b8(%rbp)
   10e60:	48 8d 85 48 fb ff ff 	lea    -0x4b8(%rbp),%rax
   10e67:	48 89 85 80 fb ff ff 	mov    %rax,-0x480(%rbp)
   10e6e:	48 c7 85 88 fb ff ff 	movq   $0x0,-0x478(%rbp)
   10e75:	00 00 00 00 
   10e79:	48 8d 05 88 94 00 00 	lea    0x9488(%rip),%rax        # 1a308 <g_435>
   10e80:	48 89 85 90 fb ff ff 	mov    %rax,-0x470(%rbp)
   10e87:	48 8d 05 7a 94 00 00 	lea    0x947a(%rip),%rax        # 1a308 <g_435>
   10e8e:	48 89 85 98 fb ff ff 	mov    %rax,-0x468(%rbp)
   10e95:	48 8d 05 88 91 00 00 	lea    0x9188(%rip),%rax        # 1a024 <g_2>
   10e9c:	48 89 85 a0 fb ff ff 	mov    %rax,-0x460(%rbp)
   10ea3:	48 8d 05 7a 91 00 00 	lea    0x917a(%rip),%rax        # 1a024 <g_2>
   10eaa:	48 89 85 a8 fb ff ff 	mov    %rax,-0x458(%rbp)
   10eb1:	48 8d 05 50 94 00 00 	lea    0x9450(%rip),%rax        # 1a308 <g_435>
   10eb8:	48 89 85 b0 fb ff ff 	mov    %rax,-0x450(%rbp)
   10ebf:	48 8d 85 2c fb ff ff 	lea    -0x4d4(%rbp),%rax
   10ec6:	48 89 85 b8 fb ff ff 	mov    %rax,-0x448(%rbp)
   10ecd:	48 c7 85 c0 fb ff ff 	movq   $0x0,-0x440(%rbp)
   10ed4:	00 00 00 00 
   10ed8:	48 c7 85 c8 fb ff ff 	movq   $0x0,-0x438(%rbp)
   10edf:	00 00 00 00 
   10ee3:	48 8d 85 2c fb ff ff 	lea    -0x4d4(%rbp),%rax
   10eea:	48 89 85 d0 fb ff ff 	mov    %rax,-0x430(%rbp)
   10ef1:	48 8d 05 2c 91 00 00 	lea    0x912c(%rip),%rax        # 1a024 <g_2>
   10ef8:	48 89 85 d8 fb ff ff 	mov    %rax,-0x428(%rbp)
   10eff:	48 8d 05 02 94 00 00 	lea    0x9402(%rip),%rax        # 1a308 <g_435>
   10f06:	48 89 85 e0 fb ff ff 	mov    %rax,-0x420(%rbp)
   10f0d:	48 8d 05 10 91 00 00 	lea    0x9110(%rip),%rax        # 1a024 <g_2>
   10f14:	48 89 85 e8 fb ff ff 	mov    %rax,-0x418(%rbp)
   10f1b:	48 8d 05 e6 93 00 00 	lea    0x93e6(%rip),%rax        # 1a308 <g_435>
   10f22:	48 89 85 f0 fb ff ff 	mov    %rax,-0x410(%rbp)
   10f29:	48 c7 85 f8 fb ff ff 	movq   $0x0,-0x408(%rbp)
   10f30:	00 00 00 00 
   10f34:	48 8d 05 cd 93 00 00 	lea    0x93cd(%rip),%rax        # 1a308 <g_435>
   10f3b:	48 89 85 00 fc ff ff 	mov    %rax,-0x400(%rbp)
   10f42:	48 8d 05 bf 93 00 00 	lea    0x93bf(%rip),%rax        # 1a308 <g_435>
   10f49:	48 89 85 08 fc ff ff 	mov    %rax,-0x3f8(%rbp)
   10f50:	48 c7 85 10 fc ff ff 	movq   $0x0,-0x3f0(%rbp)
   10f57:	00 00 00 00 
   10f5b:	48 c7 85 18 fc ff ff 	movq   $0x0,-0x3e8(%rbp)
   10f62:	00 00 00 00 
   10f66:	48 8d 85 2c fb ff ff 	lea    -0x4d4(%rbp),%rax
   10f6d:	48 89 85 20 fc ff ff 	mov    %rax,-0x3e0(%rbp)
   10f74:	48 8d 05 8d 93 00 00 	lea    0x938d(%rip),%rax        # 1a308 <g_435>
   10f7b:	48 89 85 28 fc ff ff 	mov    %rax,-0x3d8(%rbp)
   10f82:	48 8d 05 7f 93 00 00 	lea    0x937f(%rip),%rax        # 1a308 <g_435>
   10f89:	48 89 85 30 fc ff ff 	mov    %rax,-0x3d0(%rbp)
   10f90:	48 c7 85 38 fc ff ff 	movq   $0x0,-0x3c8(%rbp)
   10f97:	00 00 00 00 
   10f9b:	48 8d 85 2c fb ff ff 	lea    -0x4d4(%rbp),%rax
   10fa2:	48 89 85 40 fc ff ff 	mov    %rax,-0x3c0(%rbp)
   10fa9:	48 8d 85 2c fb ff ff 	lea    -0x4d4(%rbp),%rax
   10fb0:	48 89 85 48 fc ff ff 	mov    %rax,-0x3b8(%rbp)
   10fb7:	48 c7 85 50 fc ff ff 	movq   $0x0,-0x3b0(%rbp)
   10fbe:	00 00 00 00 
   10fc2:	48 8d 85 2c fb ff ff 	lea    -0x4d4(%rbp),%rax
   10fc9:	48 89 85 58 fc ff ff 	mov    %rax,-0x3a8(%rbp)
   10fd0:	48 8d 85 2c fb ff ff 	lea    -0x4d4(%rbp),%rax
   10fd7:	48 89 85 60 fc ff ff 	mov    %rax,-0x3a0(%rbp)
   10fde:	48 8d 05 23 93 00 00 	lea    0x9323(%rip),%rax        # 1a308 <g_435>
   10fe5:	48 89 85 68 fc ff ff 	mov    %rax,-0x398(%rbp)
   10fec:	48 8d 85 2c fb ff ff 	lea    -0x4d4(%rbp),%rax
   10ff3:	48 89 85 70 fc ff ff 	mov    %rax,-0x390(%rbp)
   10ffa:	48 8d 85 2c fb ff ff 	lea    -0x4d4(%rbp),%rax
   11001:	48 89 85 78 fc ff ff 	mov    %rax,-0x388(%rbp)
   11008:	48 8d 05 f9 92 00 00 	lea    0x92f9(%rip),%rax        # 1a308 <g_435>
   1100f:	48 89 85 80 fc ff ff 	mov    %rax,-0x380(%rbp)
   11016:	48 8d 85 2c fb ff ff 	lea    -0x4d4(%rbp),%rax
   1101d:	48 89 85 88 fc ff ff 	mov    %rax,-0x378(%rbp)
   11024:	48 8d 05 dd 92 00 00 	lea    0x92dd(%rip),%rax        # 1a308 <g_435>
   1102b:	48 89 85 90 fc ff ff 	mov    %rax,-0x370(%rbp)
   11032:	48 8d 05 eb 8f 00 00 	lea    0x8feb(%rip),%rax        # 1a024 <g_2>
   11039:	48 89 85 98 fc ff ff 	mov    %rax,-0x368(%rbp)
   11040:	48 c7 85 a0 fc ff ff 	movq   $0x0,-0x360(%rbp)
   11047:	00 00 00 00 
   1104b:	48 8d 05 d2 8f 00 00 	lea    0x8fd2(%rip),%rax        # 1a024 <g_2>
   11052:	48 89 85 a8 fc ff ff 	mov    %rax,-0x358(%rbp)
   11059:	48 8d 05 a8 92 00 00 	lea    0x92a8(%rip),%rax        # 1a308 <g_435>
   11060:	48 89 85 b0 fc ff ff 	mov    %rax,-0x350(%rbp)
   11067:	48 8d 05 9a 92 00 00 	lea    0x929a(%rip),%rax        # 1a308 <g_435>
   1106e:	48 89 85 b8 fc ff ff 	mov    %rax,-0x348(%rbp)
   11075:	48 8d 85 2c fb ff ff 	lea    -0x4d4(%rbp),%rax
   1107c:	48 89 85 c0 fc ff ff 	mov    %rax,-0x340(%rbp)
   11083:	48 8d 05 7e 92 00 00 	lea    0x927e(%rip),%rax        # 1a308 <g_435>
   1108a:	48 89 85 c8 fc ff ff 	mov    %rax,-0x338(%rbp)
   11091:	48 8d 05 8c 8f 00 00 	lea    0x8f8c(%rip),%rax        # 1a024 <g_2>
   11098:	48 89 85 d0 fc ff ff 	mov    %rax,-0x330(%rbp)
   1109f:	48 8d 85 2c fb ff ff 	lea    -0x4d4(%rbp),%rax
   110a6:	48 89 85 d8 fc ff ff 	mov    %rax,-0x328(%rbp)
   110ad:	48 8d 85 2c fb ff ff 	lea    -0x4d4(%rbp),%rax
   110b4:	48 89 85 e0 fc ff ff 	mov    %rax,-0x320(%rbp)
   110bb:	48 8d 05 62 8f 00 00 	lea    0x8f62(%rip),%rax        # 1a024 <g_2>
   110c2:	48 89 85 e8 fc ff ff 	mov    %rax,-0x318(%rbp)
   110c9:	48 8d 05 38 92 00 00 	lea    0x9238(%rip),%rax        # 1a308 <g_435>
   110d0:	48 89 85 f0 fc ff ff 	mov    %rax,-0x310(%rbp)
   110d7:	48 8d 85 2c fb ff ff 	lea    -0x4d4(%rbp),%rax
   110de:	48 89 85 f8 fc ff ff 	mov    %rax,-0x308(%rbp)
   110e5:	48 8d 85 2c fb ff ff 	lea    -0x4d4(%rbp),%rax
   110ec:	48 89 85 00 fd ff ff 	mov    %rax,-0x300(%rbp)
   110f3:	48 8d 85 2c fb ff ff 	lea    -0x4d4(%rbp),%rax
   110fa:	48 89 85 08 fd ff ff 	mov    %rax,-0x2f8(%rbp)
   11101:	48 8d 85 2c fb ff ff 	lea    -0x4d4(%rbp),%rax
   11108:	48 89 85 10 fd ff ff 	mov    %rax,-0x2f0(%rbp)
   1110f:	48 8d 85 2c fb ff ff 	lea    -0x4d4(%rbp),%rax
   11116:	48 89 85 18 fd ff ff 	mov    %rax,-0x2e8(%rbp)
   1111d:	48 c7 85 20 fd ff ff 	movq   $0x0,-0x2e0(%rbp)
   11124:	00 00 00 00 
   11128:	48 c7 85 28 fd ff ff 	movq   $0x0,-0x2d8(%rbp)
   1112f:	00 00 00 00 
   11133:	48 8d 05 ea 8e 00 00 	lea    0x8eea(%rip),%rax        # 1a024 <g_2>
   1113a:	48 89 85 30 fd ff ff 	mov    %rax,-0x2d0(%rbp)
   11141:	48 8d 05 c0 91 00 00 	lea    0x91c0(%rip),%rax        # 1a308 <g_435>
   11148:	48 89 85 38 fd ff ff 	mov    %rax,-0x2c8(%rbp)
   1114f:	48 c7 85 40 fd ff ff 	movq   $0x0,-0x2c0(%rbp)
   11156:	00 00 00 00 
   1115a:	48 8d 85 2c fb ff ff 	lea    -0x4d4(%rbp),%rax
   11161:	48 89 85 48 fd ff ff 	mov    %rax,-0x2b8(%rbp)
   11168:	48 8d 05 b5 8e 00 00 	lea    0x8eb5(%rip),%rax        # 1a024 <g_2>
   1116f:	48 89 85 50 fd ff ff 	mov    %rax,-0x2b0(%rbp)
   11176:	48 8d 05 a7 8e 00 00 	lea    0x8ea7(%rip),%rax        # 1a024 <g_2>
   1117d:	48 89 85 58 fd ff ff 	mov    %rax,-0x2a8(%rbp)
   11184:	48 8d 85 2c fb ff ff 	lea    -0x4d4(%rbp),%rax
   1118b:	48 89 85 60 fd ff ff 	mov    %rax,-0x2a0(%rbp)
   11192:	48 8d 05 8b 8e 00 00 	lea    0x8e8b(%rip),%rax        # 1a024 <g_2>
   11199:	48 89 85 68 fd ff ff 	mov    %rax,-0x298(%rbp)
   111a0:	48 8d 85 2c fb ff ff 	lea    -0x4d4(%rbp),%rax
   111a7:	48 89 85 70 fd ff ff 	mov    %rax,-0x290(%rbp)
   111ae:	48 8d 05 6f 8e 00 00 	lea    0x8e6f(%rip),%rax        # 1a024 <g_2>
   111b5:	48 89 85 78 fd ff ff 	mov    %rax,-0x288(%rbp)
   111bc:	48 8d 05 61 8e 00 00 	lea    0x8e61(%rip),%rax        # 1a024 <g_2>
   111c3:	48 89 85 80 fd ff ff 	mov    %rax,-0x280(%rbp)
   111ca:	48 8d 05 37 91 00 00 	lea    0x9137(%rip),%rax        # 1a308 <g_435>
   111d1:	48 89 85 88 fd ff ff 	mov    %rax,-0x278(%rbp)
   111d8:	48 8d 05 29 91 00 00 	lea    0x9129(%rip),%rax        # 1a308 <g_435>
   111df:	48 89 85 90 fd ff ff 	mov    %rax,-0x270(%rbp)
   111e6:	48 8d 85 2c fb ff ff 	lea    -0x4d4(%rbp),%rax
   111ed:	48 89 85 98 fd ff ff 	mov    %rax,-0x268(%rbp)
   111f4:	48 8d 85 2c fb ff ff 	lea    -0x4d4(%rbp),%rax
   111fb:	48 89 85 a0 fd ff ff 	mov    %rax,-0x260(%rbp)
   11202:	48 c7 85 a8 fd ff ff 	movq   $0x0,-0x258(%rbp)
   11209:	00 00 00 00 
   1120d:	48 8d 85 2c fb ff ff 	lea    -0x4d4(%rbp),%rax
   11214:	48 89 85 b0 fd ff ff 	mov    %rax,-0x250(%rbp)
   1121b:	48 8d 05 02 8e 00 00 	lea    0x8e02(%rip),%rax        # 1a024 <g_2>
   11222:	48 89 85 b8 fd ff ff 	mov    %rax,-0x248(%rbp)
   11229:	48 8d 05 f4 8d 00 00 	lea    0x8df4(%rip),%rax        # 1a024 <g_2>
   11230:	48 89 85 c0 fd ff ff 	mov    %rax,-0x240(%rbp)
   11237:	48 8d 85 2c fb ff ff 	lea    -0x4d4(%rbp),%rax
   1123e:	48 89 85 c8 fd ff ff 	mov    %rax,-0x238(%rbp)
   11245:	48 c7 85 d0 fd ff ff 	movq   $0x0,-0x230(%rbp)
   1124c:	00 00 00 00 
   11250:	48 c7 85 d8 fd ff ff 	movq   $0x0,-0x228(%rbp)
   11257:	00 00 00 00 
   1125b:	48 8d 05 c2 8d 00 00 	lea    0x8dc2(%rip),%rax        # 1a024 <g_2>
   11262:	48 89 85 e0 fd ff ff 	mov    %rax,-0x220(%rbp)
   11269:	48 8d 05 98 90 00 00 	lea    0x9098(%rip),%rax        # 1a308 <g_435>
   11270:	48 89 85 e8 fd ff ff 	mov    %rax,-0x218(%rbp)
   11277:	48 8d 85 2c fb ff ff 	lea    -0x4d4(%rbp),%rax
   1127e:	48 89 85 f0 fd ff ff 	mov    %rax,-0x210(%rbp)
   11285:	48 8d 85 2c fb ff ff 	lea    -0x4d4(%rbp),%rax
   1128c:	48 89 85 f8 fd ff ff 	mov    %rax,-0x208(%rbp)
   11293:	48 8d 05 6e 90 00 00 	lea    0x906e(%rip),%rax        # 1a308 <g_435>
   1129a:	48 89 85 00 fe ff ff 	mov    %rax,-0x200(%rbp)
   112a1:	48 8d 05 7c 8d 00 00 	lea    0x8d7c(%rip),%rax        # 1a024 <g_2>
   112a8:	48 89 85 08 fe ff ff 	mov    %rax,-0x1f8(%rbp)
   112af:	48 c7 85 10 fe ff ff 	movq   $0x0,-0x1f0(%rbp)
   112b6:	00 00 00 00 
   112ba:	48 8d 85 2c fb ff ff 	lea    -0x4d4(%rbp),%rax
   112c1:	48 89 85 18 fe ff ff 	mov    %rax,-0x1e8(%rbp)
   112c8:	48 c7 85 20 fe ff ff 	movq   $0x0,-0x1e0(%rbp)
   112cf:	00 00 00 00 
   112d3:	48 8d 85 2c fb ff ff 	lea    -0x4d4(%rbp),%rax
   112da:	48 89 85 28 fe ff ff 	mov    %rax,-0x1d8(%rbp)
   112e1:	48 8d 05 20 90 00 00 	lea    0x9020(%rip),%rax        # 1a308 <g_435>
   112e8:	48 89 85 30 fe ff ff 	mov    %rax,-0x1d0(%rbp)
   112ef:	48 8d 05 12 90 00 00 	lea    0x9012(%rip),%rax        # 1a308 <g_435>
   112f6:	48 89 85 38 fe ff ff 	mov    %rax,-0x1c8(%rbp)
   112fd:	48 8d 85 2c fb ff ff 	lea    -0x4d4(%rbp),%rax
   11304:	48 89 85 40 fe ff ff 	mov    %rax,-0x1c0(%rbp)
   1130b:	48 8d 05 f6 8f 00 00 	lea    0x8ff6(%rip),%rax        # 1a308 <g_435>
   11312:	48 89 85 48 fe ff ff 	mov    %rax,-0x1b8(%rbp)
   11319:	48 8d 05 04 8d 00 00 	lea    0x8d04(%rip),%rax        # 1a024 <g_2>
   11320:	48 89 85 50 fe ff ff 	mov    %rax,-0x1b0(%rbp)
   11327:	48 8d 85 2c fb ff ff 	lea    -0x4d4(%rbp),%rax
   1132e:	48 89 85 58 fe ff ff 	mov    %rax,-0x1a8(%rbp)
   11335:	48 8d 05 e8 8c 00 00 	lea    0x8ce8(%rip),%rax        # 1a024 <g_2>
   1133c:	48 89 85 60 fe ff ff 	mov    %rax,-0x1a0(%rbp)
   11343:	48 c7 85 68 fe ff ff 	movq   $0x0,-0x198(%rbp)
   1134a:	00 00 00 00 
   1134e:	48 8d 05 cf 8c 00 00 	lea    0x8ccf(%rip),%rax        # 1a024 <g_2>
   11355:	48 89 85 70 fe ff ff 	mov    %rax,-0x190(%rbp)
   1135c:	48 c7 85 78 fe ff ff 	movq   $0x0,-0x188(%rbp)
   11363:	00 00 00 00 
   11367:	48 8d 05 9a 8f 00 00 	lea    0x8f9a(%rip),%rax        # 1a308 <g_435>
   1136e:	48 89 85 80 fe ff ff 	mov    %rax,-0x180(%rbp)
   11375:	48 c7 85 88 fe ff ff 	movq   $0x0,-0x178(%rbp)
   1137c:	00 00 00 00 
   11380:	48 8d 05 9d 8c 00 00 	lea    0x8c9d(%rip),%rax        # 1a024 <g_2>
   11387:	48 89 85 90 fe ff ff 	mov    %rax,-0x170(%rbp)
   1138e:	48 c7 85 98 fe ff ff 	movq   $0x0,-0x168(%rbp)
   11395:	00 00 00 00 
   11399:	48 8d 05 84 8c 00 00 	lea    0x8c84(%rip),%rax        # 1a024 <g_2>
   113a0:	48 89 85 a0 fe ff ff 	mov    %rax,-0x160(%rbp)
   113a7:	48 8d 05 5a 8f 00 00 	lea    0x8f5a(%rip),%rax        # 1a308 <g_435>
   113ae:	48 89 85 a8 fe ff ff 	mov    %rax,-0x158(%rbp)
   113b5:	48 c7 85 b0 fe ff ff 	movq   $0x0,-0x150(%rbp)
   113bc:	00 00 00 00 
   113c0:	48 8d 85 2c fb ff ff 	lea    -0x4d4(%rbp),%rax
   113c7:	48 89 85 b8 fe ff ff 	mov    %rax,-0x148(%rbp)
   113ce:	48 8d 05 33 8f 00 00 	lea    0x8f33(%rip),%rax        # 1a308 <g_435>
   113d5:	48 89 85 c0 fe ff ff 	mov    %rax,-0x140(%rbp)
   113dc:	48 8d 05 25 8f 00 00 	lea    0x8f25(%rip),%rax        # 1a308 <g_435>
   113e3:	48 89 85 c8 fe ff ff 	mov    %rax,-0x138(%rbp)
   113ea:	48 c7 85 d0 fe ff ff 	movq   $0x0,-0x130(%rbp)
   113f1:	00 00 00 00 
   113f5:	48 8d 85 2c fb ff ff 	lea    -0x4d4(%rbp),%rax
   113fc:	48 89 85 d8 fe ff ff 	mov    %rax,-0x128(%rbp)
   11403:	48 8d 85 2c fb ff ff 	lea    -0x4d4(%rbp),%rax
   1140a:	48 89 85 e0 fe ff ff 	mov    %rax,-0x120(%rbp)
   11411:	48 c7 85 e8 fe ff ff 	movq   $0x0,-0x118(%rbp)
   11418:	00 00 00 00 
   1141c:	48 c7 85 f0 fe ff ff 	movq   $0x0,-0x110(%rbp)
   11423:	00 00 00 00 
   11427:	48 c7 85 f8 fe ff ff 	movq   $0x0,-0x108(%rbp)
   1142e:	00 00 00 00 
   11432:	48 8d 85 2c fb ff ff 	lea    -0x4d4(%rbp),%rax
   11439:	48 89 85 00 ff ff ff 	mov    %rax,-0x100(%rbp)
   11440:	48 8d 05 dd 8b 00 00 	lea    0x8bdd(%rip),%rax        # 1a024 <g_2>
   11447:	48 89 85 08 ff ff ff 	mov    %rax,-0xf8(%rbp)
   1144e:	48 8d 05 cf 8b 00 00 	lea    0x8bcf(%rip),%rax        # 1a024 <g_2>
   11455:	48 89 85 10 ff ff ff 	mov    %rax,-0xf0(%rbp)
   1145c:	48 8d 85 2c fb ff ff 	lea    -0x4d4(%rbp),%rax
   11463:	48 89 85 18 ff ff ff 	mov    %rax,-0xe8(%rbp)
   1146a:	48 c7 85 20 ff ff ff 	movq   $0x0,-0xe0(%rbp)
   11471:	00 00 00 00 
   11475:	48 c7 85 28 ff ff ff 	movq   $0x0,-0xd8(%rbp)
   1147c:	00 00 00 00 
   11480:	48 8d 05 81 8e 00 00 	lea    0x8e81(%rip),%rax        # 1a308 <g_435>
   11487:	48 89 85 30 ff ff ff 	mov    %rax,-0xd0(%rbp)
   1148e:	48 8d 05 73 8e 00 00 	lea    0x8e73(%rip),%rax        # 1a308 <g_435>
   11495:	48 89 85 38 ff ff ff 	mov    %rax,-0xc8(%rbp)
   1149c:	48 8d 05 65 8e 00 00 	lea    0x8e65(%rip),%rax        # 1a308 <g_435>
   114a3:	48 89 85 40 ff ff ff 	mov    %rax,-0xc0(%rbp)
   114aa:	48 8d 85 2c fb ff ff 	lea    -0x4d4(%rbp),%rax
   114b1:	48 89 85 48 ff ff ff 	mov    %rax,-0xb8(%rbp)
   114b8:	48 c7 85 50 ff ff ff 	movq   $0x0,-0xb0(%rbp)
   114bf:	00 00 00 00 
   114c3:	48 8d 05 5a 8b 00 00 	lea    0x8b5a(%rip),%rax        # 1a024 <g_2>
   114ca:	48 89 85 58 ff ff ff 	mov    %rax,-0xa8(%rbp)
   114d1:	48 8d 85 2c fb ff ff 	lea    -0x4d4(%rbp),%rax
   114d8:	48 89 85 60 ff ff ff 	mov    %rax,-0xa0(%rbp)
   114df:	48 8d 85 2c fb ff ff 	lea    -0x4d4(%rbp),%rax
   114e6:	48 89 85 68 ff ff ff 	mov    %rax,-0x98(%rbp)
   114ed:	48 8d 05 14 8e 00 00 	lea    0x8e14(%rip),%rax        # 1a308 <g_435>
   114f4:	48 89 85 70 ff ff ff 	mov    %rax,-0x90(%rbp)
   114fb:	48 8d 05 06 8e 00 00 	lea    0x8e06(%rip),%rax        # 1a308 <g_435>
   11502:	48 89 85 78 ff ff ff 	mov    %rax,-0x88(%rbp)
   11509:	48 8d 05 14 8b 00 00 	lea    0x8b14(%rip),%rax        # 1a024 <g_2>
   11510:	48 89 45 80          	mov    %rax,-0x80(%rbp)
   11514:	48 8d 85 2c fb ff ff 	lea    -0x4d4(%rbp),%rax
   1151b:	48 89 45 88          	mov    %rax,-0x78(%rbp)
   1151f:	48 8d 05 e2 8d 00 00 	lea    0x8de2(%rip),%rax        # 1a308 <g_435>
   11526:	48 89 45 90          	mov    %rax,-0x70(%rbp)
   1152a:	48 c7 45 98 00 00 00 	movq   $0x0,-0x68(%rbp)
   11531:	00 
   11532:	48 8d 05 cf 8d 00 00 	lea    0x8dcf(%rip),%rax        # 1a308 <g_435>
   11539:	48 89 45 a0          	mov    %rax,-0x60(%rbp)
   1153d:	48 8d 85 2c fb ff ff 	lea    -0x4d4(%rbp),%rax
   11544:	48 89 45 a8          	mov    %rax,-0x58(%rbp)
   11548:	48 8d 05 d5 8a 00 00 	lea    0x8ad5(%rip),%rax        # 1a024 <g_2>
   1154f:	48 89 45 b0          	mov    %rax,-0x50(%rbp)
   11553:	48 8d 85 2c fb ff ff 	lea    -0x4d4(%rbp),%rax
   1155a:	48 89 45 b8          	mov    %rax,-0x48(%rbp)
   1155e:	48 8d 05 a3 8d 00 00 	lea    0x8da3(%rip),%rax        # 1a308 <g_435>
   11565:	48 89 45 c0          	mov    %rax,-0x40(%rbp)
   11569:	48 8b 05 78 ab 00 00 	mov    0xab78(%rip),%rax        # 1c0e8 <g_15>
   11570:	48 8b 00             	mov    (%rax),%rax
   11573:	8b 18                	mov    (%rax),%ebx
   11575:	0f b7 85 1c fb ff ff 	movzwl -0x4e4(%rbp),%eax
   1157c:	44 0f b7 e0          	movzwl %ax,%r12d
   11580:	48 8b 85 30 fb ff ff 	mov    -0x4d0(%rbp),%rax
   11587:	44 8b 28             	mov    (%rax),%r13d
   1158a:	0f b6 05 97 8a 00 00 	movzbl 0x8a97(%rip),%eax        # 1a028 <g_7>
   11591:	44 0f b6 f0          	movzbl %al,%r14d
   11595:	48 8b 85 38 fb ff ff 	mov    -0x4c8(%rbp),%rax
   1159c:	48 8b 00             	mov    (%rax),%rax
   1159f:	44 8b 38             	mov    (%rax),%r15d
   115a2:	48 8b 85 78 fb ff ff 	mov    -0x488(%rbp),%rax
   115a9:	98                   	cwtl   
   115aa:	89 85 18 fb ff ff    	mov    %eax,-0x4e8(%rbp)
   115b0:	48 8b 05 31 ab 00 00 	mov    0xab31(%rip),%rax        # 1c0e8 <g_15>
   115b7:	48 8b 00             	mov    (%rax),%rax
   115ba:	48 89 85 10 fb ff ff 	mov    %rax,-0x4f0(%rbp)
   115c1:	8b 85 2c fb ff ff    	mov    -0x4d4(%rbp),%eax
   115c7:	89 85 0c fb ff ff    	mov    %eax,-0x4f4(%rbp)
   115cd:	48 8b 85 30 fb ff ff 	mov    -0x4d0(%rbp),%rax
   115d4:	8b 00                	mov    (%rax),%eax
   115d6:	0f bf d0             	movswl %ax,%edx
   115d9:	48 8b 85 58 fb ff ff 	mov    -0x4a8(%rbp),%rax
   115e0:	0f b6 00             	movzbl (%rax),%eax
   115e3:	83 e0 2f             	and    $0x2f,%eax
   115e6:	89 c1                	mov    %eax,%ecx
   115e8:	48 8b 85 58 fb ff ff 	mov    -0x4a8(%rbp),%rax
   115ef:	88 08                	mov    %cl,(%rax)
   115f1:	48 8b 85 58 fb ff ff 	mov    -0x4a8(%rbp),%rax
   115f8:	0f b6 00             	movzbl (%rax),%eax
   115fb:	84 c0                	test   %al,%al
   115fd:	74 76                	je     11675 <func_34+0x8cf>
   115ff:	48 8b 85 68 fb ff ff 	mov    -0x498(%rbp),%rax
   11606:	48 8b 00             	mov    (%rax),%rax
   11609:	48 8d 48 01          	lea    0x1(%rax),%rcx
   1160d:	48 8b 85 68 fb ff ff 	mov    -0x498(%rbp),%rax
   11614:	48 89 08             	mov    %rcx,(%rax)
   11617:	48 8b 85 70 fb ff ff 	mov    -0x490(%rbp),%rax
   1161e:	48 8b 08             	mov    (%rax),%rcx
   11621:	48 8b 85 30 fb ff ff 	mov    -0x4d0(%rbp),%rax
   11628:	8b 00                	mov    (%rax),%eax
   1162a:	c1 e8 1f             	shr    $0x1f,%eax
   1162d:	0f b6 c0             	movzbl %al,%eax
   11630:	48 09 c1             	or     %rax,%rcx
   11633:	48 8b 85 70 fb ff ff 	mov    -0x490(%rbp),%rax
   1163a:	48 89 08             	mov    %rcx,(%rax)
   1163d:	48 8b 85 70 fb ff ff 	mov    -0x490(%rbp),%rax
   11644:	48 8b 00             	mov    (%rax),%rax
   11647:	48 85 c0             	test   %rax,%rax
   1164a:	0f 95 c0             	setne  %al
   1164d:	0f b6 c8             	movzbl %al,%ecx
   11650:	0f bf 85 1c fb ff ff 	movswl -0x4e4(%rbp),%eax
   11657:	39 c1                	cmp    %eax,%ecx
   11659:	7c 09                	jl     11664 <func_34+0x8be>
   1165b:	0f b6 05 d6 89 00 00 	movzbl 0x89d6(%rip),%eax        # 1a038 <g_73>
   11662:	84 c0                	test   %al,%al
   11664:	66 83 bd 1c fb ff ff 	cmpw   $0x0,-0x4e4(%rbp)
   1166b:	00 
   1166c:	74 07                	je     11675 <func_34+0x8cf>
   1166e:	b8 01 00 00 00       	mov    $0x1,%eax
   11673:	eb 05                	jmp    1167a <func_34+0x8d4>
   11675:	b8 00 00 00 00       	mov    $0x0,%eax
   1167a:	0f b7 c0             	movzwl %ax,%eax
   1167d:	89 d6                	mov    %edx,%esi
   1167f:	89 c7                	mov    %eax,%edi
   11681:	e8 83 18 00 00       	callq  12f09 <func_70>
   11686:	48 8b 95 10 fb ff ff 	mov    -0x4f0(%rbp),%rdx
   1168d:	8b b5 0c fb ff ff    	mov    -0x4f4(%rbp),%esi
   11693:	48 89 c7             	mov    %rax,%rdi
   11696:	e8 bb 12 00 00       	callq  12956 <func_66>
   1169b:	48 89 c6             	mov    %rax,%rsi
   1169e:	48 8b 85 38 fb ff ff 	mov    -0x4c8(%rbp),%rax
   116a5:	48 8b 00             	mov    (%rax),%rax
   116a8:	8b 00                	mov    (%rax),%eax
   116aa:	48 8b 8d 40 fb ff ff 	mov    -0x4c0(%rbp),%rcx
   116b1:	48 8b 95 58 fb ff ff 	mov    -0x4a8(%rbp),%rdx
   116b8:	49 89 c8             	mov    %rcx,%r8
   116bb:	48 89 d1             	mov    %rdx,%rcx
   116be:	8b 95 18 fb ff ff    	mov    -0x4e8(%rbp),%edx
   116c4:	89 c7                	mov    %eax,%edi
   116c6:	e8 ff 10 00 00       	callq  127ca <func_60>
   116cb:	48 8b 95 80 fb ff ff 	mov    -0x480(%rbp),%rdx
   116d2:	48 89 02             	mov    %rax,(%rdx)
   116d5:	48 8b 85 80 fb ff ff 	mov    -0x480(%rbp),%rax
   116dc:	48 8b 00             	mov    (%rax),%rax
   116df:	48 8d 15 fa a9 00 00 	lea    0xa9fa(%rip),%rdx        # 1c0e0 <g_16>
   116e6:	48 39 d0             	cmp    %rdx,%rax
   116e9:	0f 94 c0             	sete   %al
   116ec:	0f b6 c0             	movzbl %al,%eax
   116ef:	44 89 fe             	mov    %r15d,%esi
   116f2:	89 c7                	mov    %eax,%edi
   116f4:	e8 0c 6f ff ff       	callq  8605 <safe_sub_func_int32_t_s_s>
   116f9:	48 8b 85 50 fb ff ff 	mov    -0x4b0(%rbp),%rax
   11700:	48 89 c7             	mov    %rax,%rdi
   11703:	e8 bb 0e 00 00       	callq  125c3 <func_56>
   11708:	0f b6 c0             	movzbl %al,%eax
   1170b:	44 89 f6             	mov    %r14d,%esi
   1170e:	89 c7                	mov    %eax,%edi
   11710:	e8 c6 74 ff ff       	callq  8bdb <safe_div_func_uint8_t_u_u>
   11715:	48 8b 85 38 fb ff ff 	mov    -0x4c8(%rbp),%rax
   1171c:	48 8b 00             	mov    (%rax),%rax
   1171f:	8b 00                	mov    (%rax),%eax
   11721:	85 c0                	test   %eax,%eax
   11723:	74 07                	je     1172c <func_34+0x986>
   11725:	b8 01 00 00 00       	mov    $0x1,%eax
   1172a:	eb 05                	jmp    11731 <func_34+0x98b>
   1172c:	b8 00 00 00 00       	mov    $0x0,%eax
   11731:	89 c2                	mov    %eax,%edx
   11733:	48 8b 85 88 fb ff ff 	mov    -0x478(%rbp),%rax
   1173a:	21 d0                	and    %edx,%eax
   1173c:	89 c2                	mov    %eax,%edx
   1173e:	48 8b 05 cb 89 00 00 	mov    0x89cb(%rip),%rax        # 1a110 <g_161+0x90>
   11745:	31 d0                	xor    %edx,%eax
   11747:	98                   	cwtl   
   11748:	44 89 ee             	mov    %r13d,%esi
   1174b:	89 c7                	mov    %eax,%edi
   1174d:	e8 d8 6d ff ff       	callq  852a <safe_rshift_func_int16_t_s_s>
   11752:	66 85 c0             	test   %ax,%ax
   11755:	74 07                	je     1175e <func_34+0x9b8>
   11757:	b8 01 00 00 00       	mov    $0x1,%eax
   1175c:	eb 05                	jmp    11763 <func_34+0x9bd>
   1175e:	b8 00 00 00 00       	mov    $0x0,%eax
   11763:	f7 d0                	not    %eax
   11765:	0f b7 c0             	movzwl %ax,%eax
   11768:	44 89 e6             	mov    %r12d,%esi
   1176b:	89 c7                	mov    %eax,%edi
   1176d:	e8 cb 75 ff ff       	callq  8d3d <safe_mul_func_uint16_t_u_u>
   11772:	0f b7 d0             	movzwl %ax,%edx
   11775:	8b 05 8d 8b 00 00    	mov    0x8b8d(%rip),%eax        # 1a308 <g_435>
   1177b:	21 d0                	and    %edx,%eax
   1177d:	89 05 85 8b 00 00    	mov    %eax,0x8b85(%rip)        # 1a308 <g_435>
   11783:	8b 05 7f 8b 00 00    	mov    0x8b7f(%rip),%eax        # 1a308 <g_435>
   11789:	85 c0                	test   %eax,%eax
   1178b:	74 11                	je     1179e <func_34+0x9f8>
   1178d:	66 83 bd 1c fb ff ff 	cmpw   $0x0,-0x4e4(%rbp)
   11794:	00 
   11795:	74 07                	je     1179e <func_34+0x9f8>
   11797:	b8 01 00 00 00       	mov    $0x1,%eax
   1179c:	eb 05                	jmp    117a3 <func_34+0x9fd>
   1179e:	b8 00 00 00 00       	mov    $0x0,%eax
   117a3:	48 98                	cltq   
   117a5:	48 c7 c6 ff ff ff ff 	mov    $0xffffffffffffffff,%rsi
   117ac:	48 89 c7             	mov    %rax,%rdi
   117af:	e8 97 78 ff ff       	callq  904b <safe_sub_func_uint64_t_u_u>
   117b4:	0f bf d0             	movswl %ax,%edx
   117b7:	48 8b 05 2a a9 00 00 	mov    0xa92a(%rip),%rax        # 1c0e8 <g_15>
   117be:	48 8b 00             	mov    (%rax),%rax
   117c1:	8b 00                	mov    (%rax),%eax
   117c3:	89 d6                	mov    %edx,%esi
   117c5:	89 c7                	mov    %eax,%edi
   117c7:	e8 80 07 00 00       	callq  11f4c <func_44>
   117cc:	48 89 c6             	mov    %rax,%rsi
   117cf:	48 8b 85 38 fb ff ff 	mov    -0x4c8(%rbp),%rax
   117d6:	4c 8b a5 38 fb ff ff 	mov    -0x4c8(%rbp),%r12
   117dd:	48 8d 95 38 fb ff ff 	lea    -0x4c8(%rbp),%rdx
   117e4:	48 89 d1             	mov    %rdx,%rcx
   117e7:	89 da                	mov    %ebx,%edx
   117e9:	48 89 c7             	mov    %rax,%rdi
   117ec:	e8 31 00 00 00       	callq  11822 <func_37>
   117f1:	49 89 04 24          	mov    %rax,(%r12)
   117f5:	48 8d 05 e4 a8 00 00 	lea    0xa8e4(%rip),%rax        # 1c0e0 <g_16>
   117fc:	48 8b 5d c8          	mov    -0x38(%rbp),%rbx
   11800:	64 48 33 1c 25 28 00 	xor    %fs:0x28,%rbx
   11807:	00 00 
   11809:	74 05                	je     11810 <func_34+0xa6a>
   1180b:	e8 60 68 ff ff       	callq  8070 <__stack_chk_fail@plt>
   11810:	48 81 c4 d8 04 00 00 	add    $0x4d8,%rsp
   11817:	5b                   	pop    %rbx
   11818:	41 5c                	pop    %r12
   1181a:	41 5d                	pop    %r13
   1181c:	41 5e                	pop    %r14
   1181e:	41 5f                	pop    %r15
   11820:	5d                   	pop    %rbp
   11821:	c3                   	retq   

0000000000011822 <func_37>:
   11822:	f3 0f 1e fa          	endbr64 
   11826:	55                   	push   %rbp
   11827:	48 89 e5             	mov    %rsp,%rbp
   1182a:	48 81 ec 60 0a 00 00 	sub    $0xa60,%rsp
   11831:	48 89 bd b8 f5 ff ff 	mov    %rdi,-0xa48(%rbp)
   11838:	48 89 b5 b0 f5 ff ff 	mov    %rsi,-0xa50(%rbp)
   1183f:	89 95 ac f5 ff ff    	mov    %edx,-0xa54(%rbp)
   11845:	48 89 8d a0 f5 ff ff 	mov    %rcx,-0xa60(%rbp)
   1184c:	64 48 8b 04 25 28 00 	mov    %fs:0x28,%rax
   11853:	00 00 
   11855:	48 89 45 f8          	mov    %rax,-0x8(%rbp)
   11859:	31 c0                	xor    %eax,%eax
   1185b:	c6 85 cd f5 ff ff 01 	movb   $0x1,-0xa33(%rbp)
   11862:	c7 85 e0 f5 ff ff ff 	movl   $0xffffffff,-0xa20(%rbp)
   11869:	ff ff ff 
   1186c:	48 b8 08 08 fa 08 08 	movabs $0x808fa0808fa0808,%rax
   11873:	fa 08 08 
   11876:	48 89 85 c0 f6 ff ff 	mov    %rax,-0x940(%rbp)
   1187d:	c6 85 c8 f6 ff ff fa 	movb   $0xfa,-0x938(%rbp)
   11884:	48 be bf bf f9 bf bf 	movabs $0xbfbff9bfbff9bfbf,%rsi
   1188b:	f9 bf bf 
   1188e:	48 89 b5 c9 f6 ff ff 	mov    %rsi,-0x937(%rbp)
   11895:	c6 85 d1 f6 ff ff f9 	movb   $0xf9,-0x92f(%rbp)
   1189c:	48 89 85 d2 f6 ff ff 	mov    %rax,-0x92e(%rbp)
   118a3:	c6 85 da f6 ff ff fa 	movb   $0xfa,-0x926(%rbp)
   118aa:	48 8d 05 77 af 00 00 	lea    0xaf77(%rip),%rax        # 1c828 <g_356+0x6e8>
   118b1:	48 89 85 50 f6 ff ff 	mov    %rax,-0x9b0(%rbp)
   118b8:	48 c7 85 58 f6 ff ff 	movq   $0x0,-0x9a8(%rbp)
   118bf:	00 00 00 00 
   118c3:	c6 85 ce f5 ff ff fc 	movb   $0xfc,-0xa32(%rbp)
   118ca:	48 8d 05 77 87 00 00 	lea    0x8777(%rip),%rax        # 1a048 <g_121>
   118d1:	48 89 85 60 f6 ff ff 	mov    %rax,-0x9a0(%rbp)
   118d8:	48 8d 05 f3 8a 00 00 	lea    0x8af3(%rip),%rax        # 1a3d2 <g_683+0xb2>
   118df:	48 89 85 20 f6 ff ff 	mov    %rax,-0x9e0(%rbp)
   118e6:	48 8d 85 20 f6 ff ff 	lea    -0x9e0(%rbp),%rax
   118ed:	48 89 85 68 f6 ff ff 	mov    %rax,-0x998(%rbp)
   118f4:	c7 85 70 f7 ff ff 6b 	movl   $0x9faf126b,-0x890(%rbp)
   118fb:	12 af 9f 
   118fe:	c7 85 74 f7 ff ff d1 	movl   $0xa0937fd1,-0x88c(%rbp)
   11905:	7f 93 a0 
   11908:	c7 85 78 f7 ff ff ff 	movl   $0xffffffff,-0x888(%rbp)
   1190f:	ff ff ff 
   11912:	c7 85 7c f7 ff ff fa 	movl   $0xfffffffa,-0x884(%rbp)
   11919:	ff ff ff 
   1191c:	c7 85 80 f7 ff ff c0 	movl   $0xbdeb1dc0,-0x880(%rbp)
   11923:	1d eb bd 
   11926:	c7 85 84 f7 ff ff 6b 	movl   $0x9faf126b,-0x87c(%rbp)
   1192d:	12 af 9f 
   11930:	c7 85 88 f7 ff ff ff 	movl   $0xffffffff,-0x878(%rbp)
   11937:	ff ff ff 
   1193a:	c7 85 8c f7 ff ff 01 	movl   $0x1,-0x874(%rbp)
   11941:	00 00 00 
   11944:	c7 85 90 f7 ff ff ff 	movl   $0xffffffff,-0x870(%rbp)
   1194b:	ff ff ff 
   1194e:	c7 85 94 f7 ff ff 6b 	movl   $0x9faf126b,-0x86c(%rbp)
   11955:	12 af 9f 
   11958:	c7 85 98 f7 ff ff d1 	movl   $0xa0937fd1,-0x868(%rbp)
   1195f:	7f 93 a0 
   11962:	c7 85 9c f7 ff ff 04 	movl   $0x4,-0x864(%rbp)
   11969:	00 00 00 
   1196c:	c7 85 a0 f7 ff ff fb 	movl   $0xc3ce33fb,-0x860(%rbp)
   11973:	33 ce c3 
   11976:	c7 85 a4 f7 ff ff fa 	movl   $0xfffffffa,-0x85c(%rbp)
   1197d:	ff ff ff 
   11980:	c7 85 a8 f7 ff ff 0d 	movl   $0xc69a450d,-0x858(%rbp)
   11987:	45 9a c6 
   1198a:	c7 85 ac f7 ff ff fb 	movl   $0xc3ce33fb,-0x854(%rbp)
   11991:	33 ce c3 
   11994:	c7 85 b0 f7 ff ff 04 	movl   $0x4,-0x850(%rbp)
   1199b:	00 00 00 
   1199e:	c7 85 b4 f7 ff ff d1 	movl   $0xa0937fd1,-0x84c(%rbp)
   119a5:	7f 93 a0 
   119a8:	c7 85 b8 f7 ff ff d1 	movl   $0xa0937fd1,-0x848(%rbp)
   119af:	7f 93 a0 
   119b2:	c7 85 bc f7 ff ff 04 	movl   $0x4,-0x844(%rbp)
   119b9:	00 00 00 
   119bc:	c7 85 c0 f7 ff ff 01 	movl   $0x1,-0x840(%rbp)
   119c3:	00 00 00 
   119c6:	c7 85 c4 f7 ff ff ff 	movl   $0xffffffff,-0x83c(%rbp)
   119cd:	ff ff ff 
   119d0:	c7 85 c8 f7 ff ff 6b 	movl   $0x9faf126b,-0x838(%rbp)
   119d7:	12 af 9f 
   119da:	c7 85 cc f7 ff ff 04 	movl   $0x4,-0x834(%rbp)
   119e1:	00 00 00 
   119e4:	c7 85 d0 f7 ff ff 0d 	movl   $0xc69a450d,-0x830(%rbp)
   119eb:	45 9a c6 
   119ee:	c7 85 d4 f7 ff ff ff 	movl   $0xffffffff,-0x82c(%rbp)
   119f5:	ff ff ff 
   119f8:	c7 85 d8 f7 ff ff d1 	movl   $0xa0937fd1,-0x828(%rbp)
   119ff:	7f 93 a0 
   11a02:	c7 85 dc f7 ff ff 6b 	movl   $0x9faf126b,-0x824(%rbp)
   11a09:	12 af 9f 
   11a0c:	c7 85 e0 f7 ff ff df 	movl   $0x92b7b6df,-0x820(%rbp)
   11a13:	b6 b7 92 
   11a16:	c7 85 e4 f7 ff ff 6b 	movl   $0x9faf126b,-0x81c(%rbp)
   11a1d:	12 af 9f 
   11a20:	c7 85 e8 f7 ff ff 0d 	movl   $0xc69a450d,-0x818(%rbp)
   11a27:	45 9a c6 
   11a2a:	c7 85 ec f7 ff ff 0d 	movl   $0xc69a450d,-0x814(%rbp)
   11a31:	45 9a c6 
   11a34:	c7 85 f0 f7 ff ff d1 	movl   $0xa0937fd1,-0x810(%rbp)
   11a3b:	7f 93 a0 
   11a3e:	c7 85 f4 f7 ff ff 01 	movl   $0x1,-0x80c(%rbp)
   11a45:	00 00 00 
   11a48:	c7 85 f8 f7 ff ff c0 	movl   $0xbdeb1dc0,-0x808(%rbp)
   11a4f:	1d eb bd 
   11a52:	c7 85 e4 f5 ff ff 01 	movl   $0x1,-0xa1c(%rbp)
   11a59:	00 00 00 
   11a5c:	c7 85 d0 f5 ff ff 00 	movl   $0x0,-0xa30(%rbp)
   11a63:	00 00 00 
   11a66:	eb 53                	jmp    11abb <func_37+0x299>
   11a68:	c7 85 d4 f5 ff ff 00 	movl   $0x0,-0xa2c(%rbp)
   11a6f:	00 00 00 
   11a72:	eb 37                	jmp    11aab <func_37+0x289>
   11a74:	8b 85 d4 f5 ff ff    	mov    -0xa2c(%rbp),%eax
   11a7a:	48 63 c8             	movslq %eax,%rcx
   11a7d:	8b 85 d0 f5 ff ff    	mov    -0xa30(%rbp),%eax
   11a83:	48 63 d0             	movslq %eax,%rdx
   11a86:	48 89 d0             	mov    %rdx,%rax
   11a89:	48 01 c0             	add    %rax,%rax
   11a8c:	48 01 d0             	add    %rdx,%rax
   11a8f:	48 01 c0             	add    %rax,%rax
   11a92:	48 01 c8             	add    %rcx,%rax
   11a95:	48 8d 15 44 a6 00 00 	lea    0xa644(%rip),%rdx        # 1c0e0 <g_16>
   11a9c:	48 89 94 c5 00 f7 ff 	mov    %rdx,-0x900(%rbp,%rax,8)
   11aa3:	ff 
   11aa4:	83 85 d4 f5 ff ff 01 	addl   $0x1,-0xa2c(%rbp)
   11aab:	83 bd d4 f5 ff ff 05 	cmpl   $0x5,-0xa2c(%rbp)
   11ab2:	7e c0                	jle    11a74 <func_37+0x252>
   11ab4:	83 85 d0 f5 ff ff 01 	addl   $0x1,-0xa30(%rbp)
   11abb:	83 bd d0 f5 ff ff 00 	cmpl   $0x0,-0xa30(%rbp)
   11ac2:	7e a4                	jle    11a68 <func_37+0x246>
   11ac4:	c7 85 d0 f5 ff ff 00 	movl   $0x0,-0xa30(%rbp)
   11acb:	00 00 00 
   11ace:	eb 1a                	jmp    11aea <func_37+0x2c8>
   11ad0:	8b 85 d0 f5 ff ff    	mov    -0xa30(%rbp),%eax
   11ad6:	48 98                	cltq   
   11ad8:	c7 84 85 e0 f6 ff ff 	movl   $0xffffffff,-0x920(%rbp,%rax,4)
   11adf:	ff ff ff ff 
   11ae3:	83 85 d0 f5 ff ff 01 	addl   $0x1,-0xa30(%rbp)
   11aea:	83 bd d0 f5 ff ff 06 	cmpl   $0x6,-0xa30(%rbp)
   11af1:	7e dd                	jle    11ad0 <func_37+0x2ae>
   11af3:	c7 05 63 86 00 00 00 	movl   $0x0,0x8663(%rip)        # 1a160 <g_194>
   11afa:	00 00 00 
   11afd:	e9 1b 04 00 00       	jmpq   11f1d <func_37+0x6fb>
   11b02:	c7 85 d8 f5 ff ff 02 	movl   $0x2,-0xa28(%rbp)
   11b09:	00 00 00 
   11b0c:	48 8d 05 d5 a5 00 00 	lea    0xa5d5(%rip),%rax        # 1c0e8 <g_15>
   11b13:	48 89 85 70 f6 ff ff 	mov    %rax,-0x990(%rbp)
   11b1a:	c7 85 e8 f5 ff ff 01 	movl   $0x1,-0xa18(%rbp)
   11b21:	00 00 00 
   11b24:	48 8d 85 f0 f8 ff ff 	lea    -0x710(%rbp),%rax
   11b2b:	48 8d 15 ee 3d 00 00 	lea    0x3dee(%rip),%rdx        # 15920 <g_182+0x8cc>
   11b32:	b9 46 00 00 00       	mov    $0x46,%ecx
   11b37:	48 89 c7             	mov    %rax,%rdi
   11b3a:	48 89 d6             	mov    %rdx,%rsi
   11b3d:	f3 48 a5             	rep movsq %ds:(%rsi),%es:(%rdi)
   11b40:	c7 85 ec f5 ff ff fc 	movl   $0x5738afc,-0xa14(%rbp)
   11b47:	8a 73 05 
   11b4a:	48 8d 85 70 fd ff ff 	lea    -0x290(%rbp),%rax
   11b51:	48 8d 15 28 9e 00 00 	lea    0x9e28(%rip),%rdx        # 1b980 <g_2100+0xd28>
   11b58:	b9 51 00 00 00       	mov    $0x51,%ecx
   11b5d:	48 89 c7             	mov    %rax,%rdi
   11b60:	48 89 d6             	mov    %rdx,%rsi
   11b63:	f3 48 a5             	rep movsq %ds:(%rsi),%es:(%rdi)
   11b66:	48 8d 05 cb 84 00 00 	lea    0x84cb(%rip),%rax        # 1a038 <g_73>
   11b6d:	48 89 85 78 f6 ff ff 	mov    %rax,-0x988(%rbp)
   11b74:	48 b8 14 93 c1 68 72 	movabs $0xb5bdb47268c19314,%rax
   11b7b:	b4 bd b5 
   11b7e:	48 89 85 28 f6 ff ff 	mov    %rax,-0x9d8(%rbp)
   11b85:	48 8d 05 32 88 00 00 	lea    0x8832(%rip),%rax        # 1a3be <g_683+0x9e>
   11b8c:	48 89 85 00 f8 ff ff 	mov    %rax,-0x800(%rbp)
   11b93:	48 8d 05 38 88 00 00 	lea    0x8838(%rip),%rax        # 1a3d2 <g_683+0xb2>
   11b9a:	48 89 85 08 f8 ff ff 	mov    %rax,-0x7f8(%rbp)
   11ba1:	48 8d 05 2a 88 00 00 	lea    0x882a(%rip),%rax        # 1a3d2 <g_683+0xb2>
   11ba8:	48 89 85 10 f8 ff ff 	mov    %rax,-0x7f0(%rbp)
   11baf:	48 8d 05 1c 88 00 00 	lea    0x881c(%rip),%rax        # 1a3d2 <g_683+0xb2>
   11bb6:	48 89 85 18 f8 ff ff 	mov    %rax,-0x7e8(%rbp)
   11bbd:	48 8d 05 0e 88 00 00 	lea    0x880e(%rip),%rax        # 1a3d2 <g_683+0xb2>
   11bc4:	48 89 85 20 f8 ff ff 	mov    %rax,-0x7e0(%rbp)
   11bcb:	48 8d 05 ec 87 00 00 	lea    0x87ec(%rip),%rax        # 1a3be <g_683+0x9e>
   11bd2:	48 89 85 28 f8 ff ff 	mov    %rax,-0x7d8(%rbp)
   11bd9:	48 8d 05 f2 87 00 00 	lea    0x87f2(%rip),%rax        # 1a3d2 <g_683+0xb2>
   11be0:	48 89 85 30 f8 ff ff 	mov    %rax,-0x7d0(%rbp)
   11be7:	48 c7 85 38 f8 ff ff 	movq   $0x0,-0x7c8(%rbp)
   11bee:	00 00 00 00 
   11bf2:	48 8d 05 d9 87 00 00 	lea    0x87d9(%rip),%rax        # 1a3d2 <g_683+0xb2>
   11bf9:	48 89 85 40 f8 ff ff 	mov    %rax,-0x7c0(%rbp)
   11c00:	48 8d 05 cb 87 00 00 	lea    0x87cb(%rip),%rax        # 1a3d2 <g_683+0xb2>
   11c07:	48 89 85 48 f8 ff ff 	mov    %rax,-0x7b8(%rbp)
   11c0e:	48 8d 05 bd 87 00 00 	lea    0x87bd(%rip),%rax        # 1a3d2 <g_683+0xb2>
   11c15:	48 89 85 50 f8 ff ff 	mov    %rax,-0x7b0(%rbp)
   11c1c:	48 8d 05 af 87 00 00 	lea    0x87af(%rip),%rax        # 1a3d2 <g_683+0xb2>
   11c23:	48 89 85 58 f8 ff ff 	mov    %rax,-0x7a8(%rbp)
   11c2a:	48 8d 05 a1 87 00 00 	lea    0x87a1(%rip),%rax        # 1a3d2 <g_683+0xb2>
   11c31:	48 89 85 60 f8 ff ff 	mov    %rax,-0x7a0(%rbp)
   11c38:	48 8d 05 93 87 00 00 	lea    0x8793(%rip),%rax        # 1a3d2 <g_683+0xb2>
   11c3f:	48 89 85 68 f8 ff ff 	mov    %rax,-0x798(%rbp)
   11c46:	48 8d 05 85 87 00 00 	lea    0x8785(%rip),%rax        # 1a3d2 <g_683+0xb2>
   11c4d:	48 89 85 70 f8 ff ff 	mov    %rax,-0x790(%rbp)
   11c54:	48 8d 05 63 87 00 00 	lea    0x8763(%rip),%rax        # 1a3be <g_683+0x9e>
   11c5b:	48 89 85 78 f8 ff ff 	mov    %rax,-0x788(%rbp)
   11c62:	48 8d 05 69 87 00 00 	lea    0x8769(%rip),%rax        # 1a3d2 <g_683+0xb2>
   11c69:	48 89 85 80 f8 ff ff 	mov    %rax,-0x780(%rbp)
   11c70:	48 8d 05 5b 87 00 00 	lea    0x875b(%rip),%rax        # 1a3d2 <g_683+0xb2>
   11c77:	48 89 85 88 f8 ff ff 	mov    %rax,-0x778(%rbp)
   11c7e:	48 8d 05 4d 87 00 00 	lea    0x874d(%rip),%rax        # 1a3d2 <g_683+0xb2>
   11c85:	48 89 85 90 f8 ff ff 	mov    %rax,-0x770(%rbp)
   11c8c:	48 8d 05 3f 87 00 00 	lea    0x873f(%rip),%rax        # 1a3d2 <g_683+0xb2>
   11c93:	48 89 85 98 f8 ff ff 	mov    %rax,-0x768(%rbp)
   11c9a:	48 8d 05 1d 87 00 00 	lea    0x871d(%rip),%rax        # 1a3be <g_683+0x9e>
   11ca1:	48 89 85 a0 f8 ff ff 	mov    %rax,-0x760(%rbp)
   11ca8:	48 8d 05 23 87 00 00 	lea    0x8723(%rip),%rax        # 1a3d2 <g_683+0xb2>
   11caf:	48 89 85 a8 f8 ff ff 	mov    %rax,-0x758(%rbp)
   11cb6:	48 c7 85 b0 f8 ff ff 	movq   $0x0,-0x750(%rbp)
   11cbd:	00 00 00 00 
   11cc1:	48 8d 05 0a 87 00 00 	lea    0x870a(%rip),%rax        # 1a3d2 <g_683+0xb2>
   11cc8:	48 89 85 b8 f8 ff ff 	mov    %rax,-0x748(%rbp)
   11ccf:	48 8d 05 fc 86 00 00 	lea    0x86fc(%rip),%rax        # 1a3d2 <g_683+0xb2>
   11cd6:	48 89 85 c0 f8 ff ff 	mov    %rax,-0x740(%rbp)
   11cdd:	48 8d 05 ee 86 00 00 	lea    0x86ee(%rip),%rax        # 1a3d2 <g_683+0xb2>
   11ce4:	48 89 85 c8 f8 ff ff 	mov    %rax,-0x738(%rbp)
   11ceb:	48 8d 05 e0 86 00 00 	lea    0x86e0(%rip),%rax        # 1a3d2 <g_683+0xb2>
   11cf2:	48 89 85 d0 f8 ff ff 	mov    %rax,-0x730(%rbp)
   11cf9:	48 8d 05 d2 86 00 00 	lea    0x86d2(%rip),%rax        # 1a3d2 <g_683+0xb2>
   11d00:	48 89 85 d8 f8 ff ff 	mov    %rax,-0x728(%rbp)
   11d07:	48 8d 05 c4 86 00 00 	lea    0x86c4(%rip),%rax        # 1a3d2 <g_683+0xb2>
   11d0e:	48 89 85 e0 f8 ff ff 	mov    %rax,-0x720(%rbp)
   11d15:	48 8d 05 b6 86 00 00 	lea    0x86b6(%rip),%rax        # 1a3d2 <g_683+0xb2>
   11d1c:	48 89 85 e8 f8 ff ff 	mov    %rax,-0x718(%rbp)
   11d23:	48 8d 85 00 f8 ff ff 	lea    -0x800(%rbp),%rax
   11d2a:	48 83 c0 68          	add    $0x68,%rax
   11d2e:	48 89 85 30 f6 ff ff 	mov    %rax,-0x9d0(%rbp)
   11d35:	48 8d 05 cc a3 00 00 	lea    0xa3cc(%rip),%rax        # 1c108 <g_270>
   11d3c:	48 89 85 80 f6 ff ff 	mov    %rax,-0x980(%rbp)
   11d43:	c7 85 f0 f5 ff ff ff 	movl   $0xffffffff,-0xa10(%rbp)
   11d4a:	ff ff ff 
   11d4d:	c7 85 f4 f5 ff ff ed 	movl   $0x8aac7ded,-0xa0c(%rbp)
   11d54:	7d ac 8a 
   11d57:	c7 85 f8 f5 ff ff 02 	movl   $0x2,-0xa08(%rbp)
   11d5e:	00 00 00 
   11d61:	c7 85 fc f5 ff ff 01 	movl   $0x1,-0xa04(%rbp)
   11d68:	00 00 00 
   11d6b:	c7 85 00 f6 ff ff ff 	movl   $0xffffffff,-0xa00(%rbp)
   11d72:	ff ff ff 
   11d75:	c7 85 04 f6 ff ff 09 	movl   $0x9,-0x9fc(%rbp)
   11d7c:	00 00 00 
   11d7f:	c7 85 08 f6 ff ff 19 	movl   $0x4dcb9819,-0x9f8(%rbp)
   11d86:	98 cb 4d 
   11d89:	48 c7 85 88 f6 ff ff 	movq   $0x0,-0x978(%rbp)
   11d90:	00 00 00 00 
   11d94:	c7 85 0c f6 ff ff b7 	movl   $0x61dccbb7,-0x9f4(%rbp)
   11d9b:	cb dc 61 
   11d9e:	c7 85 dc f5 ff ff 00 	movl   $0x0,-0xa24(%rbp)
   11da5:	00 00 00 
   11da8:	eb 1e                	jmp    11dc8 <func_37+0x5a6>
   11daa:	8b 85 dc f5 ff ff    	mov    -0xa24(%rbp),%eax
   11db0:	48 98                	cltq   
   11db2:	48 8d 95 30 f6 ff ff 	lea    -0x9d0(%rbp),%rdx
   11db9:	48 89 94 c5 30 f7 ff 	mov    %rdx,-0x8d0(%rbp,%rax,8)
   11dc0:	ff 
   11dc1:	83 85 dc f5 ff ff 01 	addl   $0x1,-0xa24(%rbp)
   11dc8:	83 bd dc f5 ff ff 06 	cmpl   $0x6,-0xa24(%rbp)
   11dcf:	7e d9                	jle    11daa <func_37+0x588>
   11dd1:	c7 85 dc f5 ff ff 00 	movl   $0x0,-0xa24(%rbp)
   11dd8:	00 00 00 
   11ddb:	eb 1e                	jmp    11dfb <func_37+0x5d9>
   11ddd:	8b 85 dc f5 ff ff    	mov    -0xa24(%rbp),%eax
   11de3:	48 98                	cltq   
   11de5:	48 8d 15 24 a3 00 00 	lea    0xa324(%rip),%rdx        # 1c110 <g_269>
   11dec:	48 89 94 c5 b8 f6 ff 	mov    %rdx,-0x948(%rbp,%rax,8)
   11df3:	ff 
   11df4:	83 85 dc f5 ff ff 01 	addl   $0x1,-0xa24(%rbp)
   11dfb:	83 bd dc f5 ff ff 00 	cmpl   $0x0,-0xa24(%rbp)
   11e02:	7e d9                	jle    11ddd <func_37+0x5bb>
   11e04:	c7 05 fa 84 00 00 00 	movl   $0x0,0x84fa(%rip)        # 1a308 <g_435>
   11e0b:	00 00 00 
   11e0e:	e9 e1 00 00 00       	jmpq   11ef4 <func_37+0x6d2>
   11e13:	c7 85 10 f6 ff ff f7 	movl   $0x599cdf7,-0x9f0(%rbp)
   11e1a:	cd 99 05 
   11e1d:	c7 85 14 f6 ff ff f8 	movl   $0x367221f8,-0x9ec(%rbp)
   11e24:	21 72 36 
   11e27:	c7 85 18 f6 ff ff 37 	movl   $0xaafe8837,-0x9e8(%rbp)
   11e2e:	88 fe aa 
   11e31:	48 8d 05 c8 84 00 00 	lea    0x84c8(%rip),%rax        # 1a300 <g_427>
   11e38:	48 89 85 38 f6 ff ff 	mov    %rax,-0x9c8(%rbp)
   11e3f:	48 8d 85 38 f6 ff ff 	lea    -0x9c8(%rbp),%rax
   11e46:	48 89 85 40 f6 ff ff 	mov    %rax,-0x9c0(%rbp)
   11e4d:	48 8d 85 40 f6 ff ff 	lea    -0x9c0(%rbp),%rax
   11e54:	48 89 85 90 f6 ff ff 	mov    %rax,-0x970(%rbp)
   11e5b:	48 8d 85 38 f6 ff ff 	lea    -0x9c8(%rbp),%rax
   11e62:	48 89 85 48 f6 ff ff 	mov    %rax,-0x9b8(%rbp)
   11e69:	48 8d 85 48 f6 ff ff 	lea    -0x9b8(%rbp),%rax
   11e70:	48 89 85 98 f6 ff ff 	mov    %rax,-0x968(%rbp)
   11e77:	48 c7 85 a0 f6 ff ff 	movq   $0x0,-0x960(%rbp)
   11e7e:	00 00 00 00 
   11e82:	48 8d 85 00 f7 ff ff 	lea    -0x900(%rbp),%rax
   11e89:	48 83 c0 10          	add    $0x10,%rax
   11e8d:	48 89 85 a8 f6 ff ff 	mov    %rax,-0x958(%rbp)
   11e94:	c6 85 cf f5 ff ff 01 	movb   $0x1,-0xa31(%rbp)
   11e9b:	48 c7 85 b0 f6 ff ff 	movq   $0xfffffffffffffff9,-0x950(%rbp)
   11ea2:	f9 ff ff ff 
   11ea6:	c7 85 1c f6 ff ff 53 	movl   $0x53befb53,-0x9e4(%rbp)
   11ead:	fb be 53 
   11eb0:	48 8d 85 20 fb ff ff 	lea    -0x4e0(%rbp),%rax
   11eb7:	48 8d 15 a2 3c 00 00 	lea    0x3ca2(%rip),%rdx        # 15b60 <g_182+0xb0c>
   11ebe:	b9 49 00 00 00       	mov    $0x49,%ecx
   11ec3:	48 89 c7             	mov    %rax,%rdi
   11ec6:	48 89 d6             	mov    %rdx,%rsi
   11ec9:	f3 48 a5             	rep movsq %ds:(%rsi),%es:(%rdi)
   11ecc:	48 89 f2             	mov    %rsi,%rdx
   11ecf:	48 89 f8             	mov    %rdi,%rax
   11ed2:	8b 0a                	mov    (%rdx),%ecx
   11ed4:	89 08                	mov    %ecx,(%rax)
   11ed6:	48 8d 40 04          	lea    0x4(%rax),%rax
   11eda:	48 8d 52 04          	lea    0x4(%rdx),%rdx
   11ede:	83 ad d8 f5 ff ff 01 	subl   $0x1,-0xa28(%rbp)
   11ee5:	8b 05 1d 84 00 00    	mov    0x841d(%rip),%eax        # 1a308 <g_435>
   11eeb:	83 c0 01             	add    $0x1,%eax
   11eee:	89 05 14 84 00 00    	mov    %eax,0x8414(%rip)        # 1a308 <g_435>
   11ef4:	8b 05 0e 84 00 00    	mov    0x840e(%rip),%eax        # 1a308 <g_435>
   11efa:	85 c0                	test   %eax,%eax
   11efc:	0f 8e 11 ff ff ff    	jle    11e13 <func_37+0x5f1>
   11f02:	8b 05 58 82 00 00    	mov    0x8258(%rip),%eax        # 1a160 <g_194>
   11f08:	89 c0                	mov    %eax,%eax
   11f0a:	be 02 00 00 00       	mov    $0x2,%esi
   11f0f:	48 89 c7             	mov    %rax,%rdi
   11f12:	e8 17 71 ff ff       	callq  902e <safe_add_func_uint64_t_u_u>
   11f17:	89 05 43 82 00 00    	mov    %eax,0x8243(%rip)        # 1a160 <g_194>
   11f1d:	8b 05 3d 82 00 00    	mov    0x823d(%rip),%eax        # 1a160 <g_194>
   11f23:	83 f8 21             	cmp    $0x21,%eax
   11f26:	0f 84 d6 fb ff ff    	je     11b02 <func_37+0x2e0>
   11f2c:	48 8b 05 b5 a1 00 00 	mov    0xa1b5(%rip),%rax        # 1c0e8 <g_15>
   11f33:	48 8b 00             	mov    (%rax),%rax
   11f36:	48 8b 7d f8          	mov    -0x8(%rbp),%rdi
   11f3a:	64 48 33 3c 25 28 00 	xor    %fs:0x28,%rdi
   11f41:	00 00 
   11f43:	74 05                	je     11f4a <func_37+0x728>
   11f45:	e8 26 61 ff ff       	callq  8070 <__stack_chk_fail@plt>
   11f4a:	c9                   	leaveq 
   11f4b:	c3                   	retq   

0000000000011f4c <func_44>:
   11f4c:	f3 0f 1e fa          	endbr64 
   11f50:	55                   	push   %rbp
   11f51:	48 89 e5             	mov    %rsp,%rbp
   11f54:	41 54                	push   %r12
   11f56:	53                   	push   %rbx
   11f57:	48 81 ec 80 03 00 00 	sub    $0x380,%rsp
   11f5e:	89 bd 7c fc ff ff    	mov    %edi,-0x384(%rbp)
   11f64:	89 f0                	mov    %esi,%eax
   11f66:	66 89 85 78 fc ff ff 	mov    %ax,-0x388(%rbp)
   11f6d:	64 48 8b 04 25 28 00 	mov    %fs:0x28,%rax
   11f74:	00 00 
   11f76:	48 89 45 e8          	mov    %rax,-0x18(%rbp)
   11f7a:	31 c0                	xor    %eax,%eax
   11f7c:	48 c7 85 a0 fc ff ff 	movq   $0x7,-0x360(%rbp)
   11f83:	07 00 00 00 
   11f87:	66 c7 85 8c fc ff ff 	movw   $0x4,-0x374(%rbp)
   11f8e:	04 00 
   11f90:	c7 85 98 fc ff ff ff 	movl   $0x66d6a5ff,-0x368(%rbp)
   11f97:	a5 d6 66 
   11f9a:	c7 85 90 fc ff ff 31 	movl   $0x753bea31,-0x370(%rbp)
   11fa1:	ea 3b 75 
   11fa4:	c7 85 94 fc ff ff 01 	movl   $0x1,-0x36c(%rbp)
   11fab:	00 00 00 
   11fae:	48 8d 05 9b 80 00 00 	lea    0x809b(%rip),%rax        # 1a050 <g_145>
   11fb5:	48 89 85 a8 fc ff ff 	mov    %rax,-0x358(%rbp)
   11fbc:	48 8d 05 8d 80 00 00 	lea    0x808d(%rip),%rax        # 1a050 <g_145>
   11fc3:	48 89 85 b0 fc ff ff 	mov    %rax,-0x350(%rbp)
   11fca:	48 8d 05 7f 80 00 00 	lea    0x807f(%rip),%rax        # 1a050 <g_145>
   11fd1:	48 89 85 b8 fc ff ff 	mov    %rax,-0x348(%rbp)
   11fd8:	48 8d 85 90 fc ff ff 	lea    -0x370(%rbp),%rax
   11fdf:	48 89 85 c0 fc ff ff 	mov    %rax,-0x340(%rbp)
   11fe6:	48 8d 05 3f 80 00 00 	lea    0x803f(%rip),%rax        # 1a02c <g_9>
   11fed:	48 89 85 c8 fc ff ff 	mov    %rax,-0x338(%rbp)
   11ff4:	48 8d 05 3d 80 00 00 	lea    0x803d(%rip),%rax        # 1a038 <g_73>
   11ffb:	48 89 85 d0 fc ff ff 	mov    %rax,-0x330(%rbp)
   12002:	48 8d 05 23 80 00 00 	lea    0x8023(%rip),%rax        # 1a02c <g_9>
   12009:	48 89 85 d8 fc ff ff 	mov    %rax,-0x328(%rbp)
   12010:	48 8d 05 21 80 00 00 	lea    0x8021(%rip),%rax        # 1a038 <g_73>
   12017:	48 89 85 e0 fc ff ff 	mov    %rax,-0x320(%rbp)
   1201e:	48 8d 85 94 fc ff ff 	lea    -0x36c(%rbp),%rax
   12025:	48 89 85 e8 fc ff ff 	mov    %rax,-0x318(%rbp)
   1202c:	48 c7 85 f0 fc ff ff 	movq   $0x0,-0x310(%rbp)
   12033:	00 00 00 00 
   12037:	48 8d 85 94 fc ff ff 	lea    -0x36c(%rbp),%rax
   1203e:	48 89 85 f8 fc ff ff 	mov    %rax,-0x308(%rbp)
   12045:	48 8d 05 04 80 00 00 	lea    0x8004(%rip),%rax        # 1a050 <g_145>
   1204c:	48 89 85 10 fd ff ff 	mov    %rax,-0x2f0(%rbp)
   12053:	48 8d 05 d2 7f 00 00 	lea    0x7fd2(%rip),%rax        # 1a02c <g_9>
   1205a:	48 89 85 18 fd ff ff 	mov    %rax,-0x2e8(%rbp)
   12061:	48 8d 05 c4 7f 00 00 	lea    0x7fc4(%rip),%rax        # 1a02c <g_9>
   12068:	48 89 85 20 fd ff ff 	mov    %rax,-0x2e0(%rbp)
   1206f:	48 c7 85 28 fd ff ff 	movq   $0x0,-0x2d8(%rbp)
   12076:	00 00 00 00 
   1207a:	48 c7 85 30 fd ff ff 	movq   $0x0,-0x2d0(%rbp)
   12081:	00 00 00 00 
   12085:	48 8d 85 94 fc ff ff 	lea    -0x36c(%rbp),%rax
   1208c:	48 89 85 38 fd ff ff 	mov    %rax,-0x2c8(%rbp)
   12093:	48 8d 05 92 7f 00 00 	lea    0x7f92(%rip),%rax        # 1a02c <g_9>
   1209a:	48 89 85 40 fd ff ff 	mov    %rax,-0x2c0(%rbp)
   120a1:	48 8d 05 84 7f 00 00 	lea    0x7f84(%rip),%rax        # 1a02c <g_9>
   120a8:	48 89 85 48 fd ff ff 	mov    %rax,-0x2b8(%rbp)
   120af:	48 8d 05 52 82 00 00 	lea    0x8252(%rip),%rax        # 1a308 <g_435>
   120b6:	48 89 85 50 fd ff ff 	mov    %rax,-0x2b0(%rbp)
   120bd:	48 c7 85 58 fd ff ff 	movq   $0x0,-0x2a8(%rbp)
   120c4:	00 00 00 00 
   120c8:	48 c7 85 60 fd ff ff 	movq   $0x0,-0x2a0(%rbp)
   120cf:	00 00 00 00 
   120d3:	48 c7 85 68 fd ff ff 	movq   $0x0,-0x298(%rbp)
   120da:	00 00 00 00 
   120de:	48 c7 85 70 fd ff ff 	movq   $0x0,-0x290(%rbp)
   120e5:	00 00 00 00 
   120e9:	48 8d 05 3c 7f 00 00 	lea    0x7f3c(%rip),%rax        # 1a02c <g_9>
   120f0:	48 89 85 78 fd ff ff 	mov    %rax,-0x288(%rbp)
   120f7:	48 c7 85 80 fd ff ff 	movq   $0x0,-0x280(%rbp)
   120fe:	00 00 00 00 
   12102:	48 8d 85 90 fc ff ff 	lea    -0x370(%rbp),%rax
   12109:	48 89 85 88 fd ff ff 	mov    %rax,-0x278(%rbp)
   12110:	48 c7 85 90 fd ff ff 	movq   $0x0,-0x270(%rbp)
   12117:	00 00 00 00 
   1211b:	48 8d 05 2e 7f 00 00 	lea    0x7f2e(%rip),%rax        # 1a050 <g_145>
   12122:	48 89 85 98 fd ff ff 	mov    %rax,-0x268(%rbp)
   12129:	48 8d 05 20 7f 00 00 	lea    0x7f20(%rip),%rax        # 1a050 <g_145>
   12130:	48 89 85 a0 fd ff ff 	mov    %rax,-0x260(%rbp)
   12137:	48 8d 05 ee 7e 00 00 	lea    0x7eee(%rip),%rax        # 1a02c <g_9>
   1213e:	48 89 85 a8 fd ff ff 	mov    %rax,-0x258(%rbp)
   12145:	48 8d 05 e0 7e 00 00 	lea    0x7ee0(%rip),%rax        # 1a02c <g_9>
   1214c:	48 89 85 b0 fd ff ff 	mov    %rax,-0x250(%rbp)
   12153:	48 c7 85 b8 fd ff ff 	movq   $0x0,-0x248(%rbp)
   1215a:	00 00 00 00 
   1215e:	48 c7 85 c0 fd ff ff 	movq   $0x0,-0x240(%rbp)
   12165:	00 00 00 00 
   12169:	48 8d 85 94 fc ff ff 	lea    -0x36c(%rbp),%rax
   12170:	48 89 85 c8 fd ff ff 	mov    %rax,-0x238(%rbp)
   12177:	48 8d 05 ae 7e 00 00 	lea    0x7eae(%rip),%rax        # 1a02c <g_9>
   1217e:	48 89 85 d0 fd ff ff 	mov    %rax,-0x230(%rbp)
   12185:	48 8d 05 a0 7e 00 00 	lea    0x7ea0(%rip),%rax        # 1a02c <g_9>
   1218c:	48 89 85 d8 fd ff ff 	mov    %rax,-0x228(%rbp)
   12193:	48 8d 05 6e 81 00 00 	lea    0x816e(%rip),%rax        # 1a308 <g_435>
   1219a:	48 89 85 e0 fd ff ff 	mov    %rax,-0x220(%rbp)
   121a1:	48 c7 85 e8 fd ff ff 	movq   $0x0,-0x218(%rbp)
   121a8:	00 00 00 00 
   121ac:	48 c7 85 f0 fd ff ff 	movq   $0x0,-0x210(%rbp)
   121b3:	00 00 00 00 
   121b7:	48 c7 85 f8 fd ff ff 	movq   $0x0,-0x208(%rbp)
   121be:	00 00 00 00 
   121c2:	48 c7 85 00 fe ff ff 	movq   $0x0,-0x200(%rbp)
   121c9:	00 00 00 00 
   121cd:	48 8d 05 58 7e 00 00 	lea    0x7e58(%rip),%rax        # 1a02c <g_9>
   121d4:	48 89 85 08 fe ff ff 	mov    %rax,-0x1f8(%rbp)
   121db:	48 c7 85 10 fe ff ff 	movq   $0x0,-0x1f0(%rbp)
   121e2:	00 00 00 00 
   121e6:	48 8d 85 90 fc ff ff 	lea    -0x370(%rbp),%rax
   121ed:	48 89 85 18 fe ff ff 	mov    %rax,-0x1e8(%rbp)
   121f4:	48 c7 85 20 fe ff ff 	movq   $0x0,-0x1e0(%rbp)
   121fb:	00 00 00 00 
   121ff:	48 8d 05 4a 7e 00 00 	lea    0x7e4a(%rip),%rax        # 1a050 <g_145>
   12206:	48 89 85 28 fe ff ff 	mov    %rax,-0x1d8(%rbp)
   1220d:	48 8d 05 3c 7e 00 00 	lea    0x7e3c(%rip),%rax        # 1a050 <g_145>
   12214:	48 89 85 30 fe ff ff 	mov    %rax,-0x1d0(%rbp)
   1221b:	48 8d 05 0a 7e 00 00 	lea    0x7e0a(%rip),%rax        # 1a02c <g_9>
   12222:	48 89 85 38 fe ff ff 	mov    %rax,-0x1c8(%rbp)
   12229:	48 8d 05 fc 7d 00 00 	lea    0x7dfc(%rip),%rax        # 1a02c <g_9>
   12230:	48 89 85 40 fe ff ff 	mov    %rax,-0x1c0(%rbp)
   12237:	48 c7 85 48 fe ff ff 	movq   $0x0,-0x1b8(%rbp)
   1223e:	00 00 00 00 
   12242:	48 c7 85 50 fe ff ff 	movq   $0x0,-0x1b0(%rbp)
   12249:	00 00 00 00 
   1224d:	48 8d 85 94 fc ff ff 	lea    -0x36c(%rbp),%rax
   12254:	48 89 85 58 fe ff ff 	mov    %rax,-0x1a8(%rbp)
   1225b:	48 8d 05 ca 7d 00 00 	lea    0x7dca(%rip),%rax        # 1a02c <g_9>
   12262:	48 89 85 60 fe ff ff 	mov    %rax,-0x1a0(%rbp)
   12269:	48 8d 05 bc 7d 00 00 	lea    0x7dbc(%rip),%rax        # 1a02c <g_9>
   12270:	48 89 85 68 fe ff ff 	mov    %rax,-0x198(%rbp)
   12277:	48 8d 05 8a 80 00 00 	lea    0x808a(%rip),%rax        # 1a308 <g_435>
   1227e:	48 89 85 70 fe ff ff 	mov    %rax,-0x190(%rbp)
   12285:	48 c7 85 78 fe ff ff 	movq   $0x0,-0x188(%rbp)
   1228c:	00 00 00 00 
   12290:	48 c7 85 80 fe ff ff 	movq   $0x0,-0x180(%rbp)
   12297:	00 00 00 00 
   1229b:	48 c7 85 88 fe ff ff 	movq   $0x0,-0x178(%rbp)
   122a2:	00 00 00 00 
   122a6:	48 c7 85 90 fe ff ff 	movq   $0x0,-0x170(%rbp)
   122ad:	00 00 00 00 
   122b1:	48 8d 05 74 7d 00 00 	lea    0x7d74(%rip),%rax        # 1a02c <g_9>
   122b8:	48 89 85 98 fe ff ff 	mov    %rax,-0x168(%rbp)
   122bf:	48 c7 85 a0 fe ff ff 	movq   $0x0,-0x160(%rbp)
   122c6:	00 00 00 00 
   122ca:	48 8d 85 90 fc ff ff 	lea    -0x370(%rbp),%rax
   122d1:	48 89 85 a8 fe ff ff 	mov    %rax,-0x158(%rbp)
   122d8:	48 c7 85 b0 fe ff ff 	movq   $0x0,-0x150(%rbp)
   122df:	00 00 00 00 
   122e3:	48 8d 05 66 7d 00 00 	lea    0x7d66(%rip),%rax        # 1a050 <g_145>
   122ea:	48 89 85 b8 fe ff ff 	mov    %rax,-0x148(%rbp)
   122f1:	48 8d 05 58 7d 00 00 	lea    0x7d58(%rip),%rax        # 1a050 <g_145>
   122f8:	48 89 85 c0 fe ff ff 	mov    %rax,-0x140(%rbp)
   122ff:	48 8d 05 26 7d 00 00 	lea    0x7d26(%rip),%rax        # 1a02c <g_9>
   12306:	48 89 85 c8 fe ff ff 	mov    %rax,-0x138(%rbp)
   1230d:	48 8d 05 18 7d 00 00 	lea    0x7d18(%rip),%rax        # 1a02c <g_9>
   12314:	48 89 85 d0 fe ff ff 	mov    %rax,-0x130(%rbp)
   1231b:	48 c7 85 d8 fe ff ff 	movq   $0x0,-0x128(%rbp)
   12322:	00 00 00 00 
   12326:	48 c7 85 e0 fe ff ff 	movq   $0x0,-0x120(%rbp)
   1232d:	00 00 00 00 
   12331:	48 8d 85 94 fc ff ff 	lea    -0x36c(%rbp),%rax
   12338:	48 89 85 e8 fe ff ff 	mov    %rax,-0x118(%rbp)
   1233f:	48 8d 05 e6 7c 00 00 	lea    0x7ce6(%rip),%rax        # 1a02c <g_9>
   12346:	48 89 85 f0 fe ff ff 	mov    %rax,-0x110(%rbp)
   1234d:	48 8d 05 d8 7c 00 00 	lea    0x7cd8(%rip),%rax        # 1a02c <g_9>
   12354:	48 89 85 f8 fe ff ff 	mov    %rax,-0x108(%rbp)
   1235b:	48 8d 05 a6 7f 00 00 	lea    0x7fa6(%rip),%rax        # 1a308 <g_435>
   12362:	48 89 85 00 ff ff ff 	mov    %rax,-0x100(%rbp)
   12369:	48 c7 85 08 ff ff ff 	movq   $0x0,-0xf8(%rbp)
   12370:	00 00 00 00 
   12374:	48 c7 85 10 ff ff ff 	movq   $0x0,-0xf0(%rbp)
   1237b:	00 00 00 00 
   1237f:	48 c7 85 18 ff ff ff 	movq   $0x0,-0xe8(%rbp)
   12386:	00 00 00 00 
   1238a:	48 c7 85 20 ff ff ff 	movq   $0x0,-0xe0(%rbp)
   12391:	00 00 00 00 
   12395:	48 8d 05 90 7c 00 00 	lea    0x7c90(%rip),%rax        # 1a02c <g_9>
   1239c:	48 89 85 28 ff ff ff 	mov    %rax,-0xd8(%rbp)
   123a3:	48 c7 85 30 ff ff ff 	movq   $0x0,-0xd0(%rbp)
   123aa:	00 00 00 00 
   123ae:	48 8d 85 90 fc ff ff 	lea    -0x370(%rbp),%rax
   123b5:	48 89 85 38 ff ff ff 	mov    %rax,-0xc8(%rbp)
   123bc:	48 c7 85 40 ff ff ff 	movq   $0x0,-0xc0(%rbp)
   123c3:	00 00 00 00 
   123c7:	48 8d 05 82 7c 00 00 	lea    0x7c82(%rip),%rax        # 1a050 <g_145>
   123ce:	48 89 85 48 ff ff ff 	mov    %rax,-0xb8(%rbp)
   123d5:	48 8d 05 74 7c 00 00 	lea    0x7c74(%rip),%rax        # 1a050 <g_145>
   123dc:	48 89 85 50 ff ff ff 	mov    %rax,-0xb0(%rbp)
   123e3:	48 8d 05 42 7c 00 00 	lea    0x7c42(%rip),%rax        # 1a02c <g_9>
   123ea:	48 89 85 58 ff ff ff 	mov    %rax,-0xa8(%rbp)
   123f1:	48 8d 05 34 7c 00 00 	lea    0x7c34(%rip),%rax        # 1a02c <g_9>
   123f8:	48 89 85 60 ff ff ff 	mov    %rax,-0xa0(%rbp)
   123ff:	48 c7 85 68 ff ff ff 	movq   $0x0,-0x98(%rbp)
   12406:	00 00 00 00 
   1240a:	48 c7 85 70 ff ff ff 	movq   $0x0,-0x90(%rbp)
   12411:	00 00 00 00 
   12415:	48 8d 85 94 fc ff ff 	lea    -0x36c(%rbp),%rax
   1241c:	48 89 85 78 ff ff ff 	mov    %rax,-0x88(%rbp)
   12423:	48 8d 05 02 7c 00 00 	lea    0x7c02(%rip),%rax        # 1a02c <g_9>
   1242a:	48 89 45 80          	mov    %rax,-0x80(%rbp)
   1242e:	48 8d 05 f7 7b 00 00 	lea    0x7bf7(%rip),%rax        # 1a02c <g_9>
   12435:	48 89 45 88          	mov    %rax,-0x78(%rbp)
   12439:	48 8d 05 c8 7e 00 00 	lea    0x7ec8(%rip),%rax        # 1a308 <g_435>
   12440:	48 89 45 90          	mov    %rax,-0x70(%rbp)
   12444:	48 c7 45 98 00 00 00 	movq   $0x0,-0x68(%rbp)
   1244b:	00 
   1244c:	48 c7 45 a0 00 00 00 	movq   $0x0,-0x60(%rbp)
   12453:	00 
   12454:	48 c7 45 a8 00 00 00 	movq   $0x0,-0x58(%rbp)
   1245b:	00 
   1245c:	48 c7 45 b0 00 00 00 	movq   $0x0,-0x50(%rbp)
   12463:	00 
   12464:	48 8d 05 c1 7b 00 00 	lea    0x7bc1(%rip),%rax        # 1a02c <g_9>
   1246b:	48 89 45 b8          	mov    %rax,-0x48(%rbp)
   1246f:	48 c7 45 c0 00 00 00 	movq   $0x0,-0x40(%rbp)
   12476:	00 
   12477:	48 8d 85 90 fc ff ff 	lea    -0x370(%rbp),%rax
   1247e:	48 89 45 c8          	mov    %rax,-0x38(%rbp)
   12482:	48 c7 45 d0 00 00 00 	movq   $0x0,-0x30(%rbp)
   12489:	00 
   1248a:	48 8d 05 bf 7b 00 00 	lea    0x7bbf(%rip),%rax        # 1a050 <g_145>
   12491:	48 89 45 d8          	mov    %rax,-0x28(%rbp)
   12495:	c7 85 9c fc ff ff 01 	movl   $0x1,-0x364(%rbp)
   1249c:	00 00 00 
   1249f:	66 c7 85 8e fc ff ff 	movw   $0xd77e,-0x372(%rbp)
   124a6:	7e d7 
   124a8:	48 8d 05 99 7b 00 00 	lea    0x7b99(%rip),%rax        # 1a048 <g_121>
   124af:	48 89 85 00 fd ff ff 	mov    %rax,-0x300(%rbp)
   124b6:	48 83 ad a0 fc ff ff 	subq   $0x1,-0x360(%rbp)
   124bd:	01 
   124be:	83 bd 98 fc ff ff 00 	cmpl   $0x0,-0x368(%rbp)
   124c5:	75 0a                	jne    124d1 <func_44+0x585>
   124c7:	66 83 bd 78 fc ff ff 	cmpw   $0x0,-0x388(%rbp)
   124ce:	00 
   124cf:	74 07                	je     124d8 <func_44+0x58c>
   124d1:	ba 01 00 00 00       	mov    $0x1,%edx
   124d6:	eb 05                	jmp    124dd <func_44+0x591>
   124d8:	ba 00 00 00 00       	mov    $0x0,%edx
   124dd:	8b 85 90 fc ff ff    	mov    -0x370(%rbp),%eax
   124e3:	09 d0                	or     %edx,%eax
   124e5:	89 85 90 fc ff ff    	mov    %eax,-0x370(%rbp)
   124eb:	8b 85 90 fc ff ff    	mov    -0x370(%rbp),%eax
   124f1:	48 63 d8             	movslq %eax,%rbx
   124f4:	48 8b 05 1d 9c 00 00 	mov    0x9c1d(%rip),%rax        # 1c118 <g_268>
   124fb:	48 8b 00             	mov    (%rax),%rax
   124fe:	48 85 c0             	test   %rax,%rax
   12501:	0f 94 c0             	sete   %al
   12504:	0f b6 c0             	movzbl %al,%eax
   12507:	89 85 94 fc ff ff    	mov    %eax,-0x36c(%rbp)
   1250d:	8b 85 94 fc ff ff    	mov    -0x36c(%rbp),%eax
   12513:	4c 63 e0             	movslq %eax,%r12
   12516:	0f b7 85 8c fc ff ff 	movzwl -0x374(%rbp),%eax
   1251d:	0f b6 c0             	movzbl %al,%eax
   12520:	89 c6                	mov    %eax,%esi
   12522:	bf 01 00 00 00       	mov    $0x1,%edi
   12527:	e8 67 66 ff ff       	callq  8b93 <safe_mul_func_uint8_t_u_u>
   1252c:	0f b6 c0             	movzbl %al,%eax
   1252f:	48 89 c6             	mov    %rax,%rsi
   12532:	48 bf 16 be 3c 52 03 	movabs $0xecabb803523cbe16,%rdi
   12539:	b8 ab ec 
   1253c:	e8 6e 6b ff ff       	callq  90af <safe_div_func_uint64_t_u_u>
   12541:	4c 31 e0             	xor    %r12,%rax
   12544:	48 39 c3             	cmp    %rax,%rbx
   12547:	0f 92 c0             	setb   %al
   1254a:	0f b6 c0             	movzbl %al,%eax
   1254d:	48 39 85 a0 fc ff ff 	cmp    %rax,-0x360(%rbp)
   12554:	0f 95 c0             	setne  %al
   12557:	0f b6 d0             	movzbl %al,%edx
   1255a:	0f bf 85 78 fc ff ff 	movswl -0x388(%rbp),%eax
   12561:	39 c2                	cmp    %eax,%edx
   12563:	7c 17                	jl     1257c <func_44+0x630>
   12565:	48 8d 05 cc 7a 00 00 	lea    0x7acc(%rip),%rax        # 1a038 <g_73>
   1256c:	48 89 85 08 fd ff ff 	mov    %rax,-0x2f8(%rbp)
   12573:	48 8b 85 08 fd ff ff 	mov    -0x2f8(%rbp),%rax
   1257a:	eb 27                	jmp    125a3 <func_44+0x657>
   1257c:	48 8b 05 5d 9b 00 00 	mov    0x9b5d(%rip),%rax        # 1c0e0 <g_16>
   12583:	8b 10                	mov    (%rax),%edx
   12585:	48 8b 05 54 9b 00 00 	mov    0x9b54(%rip),%rax        # 1c0e0 <g_16>
   1258c:	81 e2 68 6a f5 16    	and    $0x16f56a68,%edx
   12592:	89 10                	mov    %edx,(%rax)
   12594:	66 83 85 8e fc ff ff 	addw   $0x1,-0x372(%rbp)
   1259b:	01 
   1259c:	48 8b 85 00 fd ff ff 	mov    -0x300(%rbp),%rax
   125a3:	48 8b 4d e8          	mov    -0x18(%rbp),%rcx
   125a7:	64 48 33 0c 25 28 00 	xor    %fs:0x28,%rcx
   125ae:	00 00 
   125b0:	74 05                	je     125b7 <func_44+0x66b>
   125b2:	e8 b9 5a ff ff       	callq  8070 <__stack_chk_fail@plt>
   125b7:	48 81 c4 80 03 00 00 	add    $0x380,%rsp
   125be:	5b                   	pop    %rbx
   125bf:	41 5c                	pop    %r12
   125c1:	5d                   	pop    %rbp
   125c2:	c3                   	retq   

00000000000125c3 <func_56>:
   125c3:	f3 0f 1e fa          	endbr64 
   125c7:	55                   	push   %rbp
   125c8:	48 89 e5             	mov    %rsp,%rbp
   125cb:	48 81 ec a0 00 00 00 	sub    $0xa0,%rsp
   125d2:	48 89 bd 68 ff ff ff 	mov    %rdi,-0x98(%rbp)
   125d9:	64 48 8b 04 25 28 00 	mov    %fs:0x28,%rax
   125e0:	00 00 
   125e2:	48 89 45 f8          	mov    %rax,-0x8(%rbp)
   125e6:	31 c0                	xor    %eax,%eax
   125e8:	48 c7 45 88 00 00 00 	movq   $0x0,-0x78(%rbp)
   125ef:	00 
   125f0:	48 8d 45 88          	lea    -0x78(%rbp),%rax
   125f4:	48 89 45 98          	mov    %rax,-0x68(%rbp)
   125f8:	48 8d 05 f9 7c 00 00 	lea    0x7cf9(%rip),%rax        # 1a2f8 <g_346>
   125ff:	48 89 45 a0          	mov    %rax,-0x60(%rbp)
   12603:	48 c7 45 a8 00 00 00 	movq   $0x0,-0x58(%rbp)
   1260a:	00 
   1260b:	c7 85 7c ff ff ff a1 	movl   $0x52e81ba1,-0x84(%rbp)
   12612:	1b e8 52 
   12615:	c7 05 41 7a 00 00 00 	movl   $0x0,0x7a41(%rip)        # 1a060 <g_159>
   1261c:	00 00 00 
   1261f:	e9 7b 01 00 00       	jmpq   1279f <func_56+0x1dc>
   12624:	48 c7 45 90 00 00 00 	movq   $0x0,-0x70(%rbp)
   1262b:	00 
   1262c:	48 8d 05 dd 9a 00 00 	lea    0x9add(%rip),%rax        # 1c110 <g_269>
   12633:	48 89 45 b0          	mov    %rax,-0x50(%rbp)
   12637:	c7 45 84 06 00 00 00 	movl   $0x6,-0x7c(%rbp)
   1263e:	48 8d 05 cb b0 00 00 	lea    0xb0cb(%rip),%rax        # 1d710 <g_284>
   12645:	48 89 45 b8          	mov    %rax,-0x48(%rbp)
   12649:	c7 45 80 00 00 00 00 	movl   $0x0,-0x80(%rbp)
   12650:	eb 15                	jmp    12667 <func_56+0xa4>
   12652:	8b 45 80             	mov    -0x80(%rbp),%eax
   12655:	48 98                	cltq   
   12657:	48 8d 15 82 9a 00 00 	lea    0x9a82(%rip),%rdx        # 1c0e0 <g_16>
   1265e:	48 89 54 c5 c0       	mov    %rdx,-0x40(%rbp,%rax,8)
   12663:	83 45 80 01          	addl   $0x1,-0x80(%rbp)
   12667:	83 7d 80 05          	cmpl   $0x5,-0x80(%rbp)
   1266b:	7e e5                	jle    12652 <func_56+0x8f>
   1266d:	48 8b 55 90          	mov    -0x70(%rbp),%rdx
   12671:	48 8b 45 b0          	mov    -0x50(%rbp),%rax
   12675:	48 89 10             	mov    %rdx,(%rax)
   12678:	48 8b 45 b0          	mov    -0x50(%rbp),%rax
   1267c:	48 8b 00             	mov    (%rax),%rax
   1267f:	48 39 45 98          	cmp    %rax,-0x68(%rbp)
   12683:	0f 94 c0             	sete   %al
   12686:	0f b6 c0             	movzbl %al,%eax
   12689:	89 c7                	mov    %eax,%edi
   1268b:	e8 0d 5d ff ff       	callq  839d <safe_unary_minus_func_int16_t_s>
   12690:	66 85 c0             	test   %ax,%ax
   12693:	74 22                	je     126b7 <func_56+0xf4>
   12695:	48 8b 45 b8          	mov    -0x48(%rbp),%rax
   12699:	48 3b 45 a8          	cmp    -0x58(%rbp),%rax
   1269d:	0f 94 c0             	sete   %al
   126a0:	0f b6 c0             	movzbl %al,%eax
   126a3:	33 45 84             	xor    -0x7c(%rbp),%eax
   126a6:	83 c8 12             	or     $0x12,%eax
   126a9:	23 45 84             	and    -0x7c(%rbp),%eax
   126ac:	85 c0                	test   %eax,%eax
   126ae:	74 07                	je     126b7 <func_56+0xf4>
   126b0:	b8 01 00 00 00       	mov    $0x1,%eax
   126b5:	eb 05                	jmp    126bc <func_56+0xf9>
   126b7:	b8 00 00 00 00       	mov    $0x0,%eax
   126bc:	3b 85 7c ff ff ff    	cmp    -0x84(%rbp),%eax
   126c2:	0f 95 c0             	setne  %al
   126c5:	0f b6 c0             	movzbl %al,%eax
   126c8:	be 05 00 00 00       	mov    $0x5,%esi
   126cd:	89 c7                	mov    %eax,%edi
   126cf:	e8 be 5d ff ff       	callq  8492 <safe_lshift_func_int16_t_s_s>
   126d4:	48 8b 15 3d 9a 00 00 	mov    0x9a3d(%rip),%rdx        # 1c118 <g_268>
   126db:	48 8d 45 90          	lea    -0x70(%rbp),%rax
   126df:	48 39 c2             	cmp    %rax,%rdx
   126e2:	83 7d 84 00          	cmpl   $0x0,-0x7c(%rbp)
   126e6:	74 0b                	je     126f3 <func_56+0x130>
   126e8:	8b 85 7c ff ff ff    	mov    -0x84(%rbp),%eax
   126ee:	e9 c1 00 00 00       	jmpq   127b4 <func_56+0x1f1>
   126f3:	48 8b 05 e6 99 00 00 	mov    0x99e6(%rip),%rax        # 1c0e0 <g_16>
   126fa:	8b 08                	mov    (%rax),%ecx
   126fc:	48 8b 05 e5 99 00 00 	mov    0x99e5(%rip),%rax        # 1c0e8 <g_15>
   12703:	48 8b 00             	mov    (%rax),%rax
   12706:	8b 10                	mov    (%rax),%edx
   12708:	48 8b 05 d1 99 00 00 	mov    0x99d1(%rip),%rax        # 1c0e0 <g_16>
   1270f:	21 ca                	and    %ecx,%edx
   12711:	89 10                	mov    %edx,(%rax)
   12713:	83 bd 7c ff ff ff 00 	cmpl   $0x0,-0x84(%rbp)
   1271a:	75 67                	jne    12783 <func_56+0x1c0>
   1271c:	48 c7 05 09 79 00 00 	movq   $0x1b,0x7909(%rip)        # 1a030 <g_19>
   12723:	1b 00 00 00 
   12727:	90                   	nop
   12728:	48 8b 05 01 79 00 00 	mov    0x7901(%rip),%rax        # 1a030 <g_19>
   1272f:	48 83 f8 1b          	cmp    $0x1b,%rax
   12733:	75 08                	jne    1273d <func_56+0x17a>
   12735:	8b 05 15 79 00 00    	mov    0x7915(%rip),%eax        # 1a050 <g_145>
   1273b:	eb 77                	jmp    127b4 <func_56+0x1f1>
   1273d:	c7 05 19 7a 00 00 00 	movl   $0x0,0x7a19(%rip)        # 1a160 <g_194>
   12744:	00 00 00 
   12747:	eb 2d                	jmp    12776 <func_56+0x1b3>
   12749:	48 8b 45 d8          	mov    -0x28(%rbp),%rax
   1274d:	48 85 c0             	test   %rax,%rax
   12750:	0f 94 c0             	sete   %al
   12753:	0f b6 c0             	movzbl %al,%eax
   12756:	89 85 7c ff ff ff    	mov    %eax,-0x84(%rbp)
   1275c:	8b 05 fe 79 00 00    	mov    0x79fe(%rip),%eax        # 1a160 <g_194>
   12762:	98                   	cwtl   
   12763:	be 05 00 00 00       	mov    $0x5,%esi
   12768:	89 c7                	mov    %eax,%edi
   1276a:	e8 44 5c ff ff       	callq  83b3 <safe_add_func_int16_t_s_s>
   1276f:	98                   	cwtl   
   12770:	89 05 ea 79 00 00    	mov    %eax,0x79ea(%rip)        # 1a160 <g_194>
   12776:	8b 05 e4 79 00 00    	mov    0x79e4(%rip),%eax        # 1a160 <g_194>
   1277c:	83 f8 23             	cmp    $0x23,%eax
   1277f:	75 c8                	jne    12749 <func_56+0x186>
   12781:	eb 01                	jmp    12784 <func_56+0x1c1>
   12783:	90                   	nop
   12784:	8b 05 d6 78 00 00    	mov    0x78d6(%rip),%eax        # 1a060 <g_159>
   1278a:	89 c0                	mov    %eax,%eax
   1278c:	be 01 00 00 00       	mov    $0x1,%esi
   12791:	48 89 c7             	mov    %rax,%rdi
   12794:	e8 95 68 ff ff       	callq  902e <safe_add_func_uint64_t_u_u>
   12799:	89 05 c1 78 00 00    	mov    %eax,0x78c1(%rip)        # 1a060 <g_159>
   1279f:	8b 05 bb 78 00 00    	mov    0x78bb(%rip),%eax        # 1a060 <g_159>
   127a5:	83 f8 11             	cmp    $0x11,%eax
   127a8:	0f 87 76 fe ff ff    	ja     12624 <func_56+0x61>
   127ae:	8b 85 7c ff ff ff    	mov    -0x84(%rbp),%eax
   127b4:	48 8b 4d f8          	mov    -0x8(%rbp),%rcx
   127b8:	64 48 33 0c 25 28 00 	xor    %fs:0x28,%rcx
   127bf:	00 00 
   127c1:	74 05                	je     127c8 <func_56+0x205>
   127c3:	e8 a8 58 ff ff       	callq  8070 <__stack_chk_fail@plt>
   127c8:	c9                   	leaveq 
   127c9:	c3                   	retq   

00000000000127ca <func_60>:
   127ca:	f3 0f 1e fa          	endbr64 
   127ce:	55                   	push   %rbp
   127cf:	48 89 e5             	mov    %rsp,%rbp
   127d2:	41 55                	push   %r13
   127d4:	41 54                	push   %r12
   127d6:	53                   	push   %rbx
   127d7:	48 83 ec 50          	sub    $0x50,%rsp
   127db:	89 7d b4             	mov    %edi,-0x4c(%rbp)
   127de:	48 89 75 a8          	mov    %rsi,-0x58(%rbp)
   127e2:	89 d0                	mov    %edx,%eax
   127e4:	48 89 4d a0          	mov    %rcx,-0x60(%rbp)
   127e8:	4c 89 45 98          	mov    %r8,-0x68(%rbp)
   127ec:	66 89 45 b0          	mov    %ax,-0x50(%rbp)
   127f0:	c7 45 c0 fd ff ff ff 	movl   $0xfffffffd,-0x40(%rbp)
   127f7:	48 8d 05 fa 7a 00 00 	lea    0x7afa(%rip),%rax        # 1a2f8 <g_346>
   127fe:	48 89 45 c8          	mov    %rax,-0x38(%rbp)
   12802:	c7 45 c4 fd ff ff ff 	movl   $0xfffffffd,-0x3c(%rbp)
   12809:	48 8d 05 40 78 00 00 	lea    0x7840(%rip),%rax        # 1a050 <g_145>
   12810:	48 89 45 d0          	mov    %rax,-0x30(%rbp)
   12814:	48 c7 45 d8 00 00 00 	movq   $0x0,-0x28(%rbp)
   1281b:	00 
   1281c:	48 8d 05 15 78 00 00 	lea    0x7815(%rip),%rax        # 1a038 <g_73>
   12823:	48 89 45 e0          	mov    %rax,-0x20(%rbp)
   12827:	48 8b 45 a0          	mov    -0x60(%rbp),%rax
   1282b:	0f b6 00             	movzbl (%rax),%eax
   1282e:	0f be d8             	movsbl %al,%ebx
   12831:	8b 45 c0             	mov    -0x40(%rbp),%eax
   12834:	f7 d0                	not    %eax
   12836:	41 89 c5             	mov    %eax,%r13d
   12839:	48 8b 05 c0 98 00 00 	mov    0x98c0(%rip),%rax        # 1c100 <g_239>
   12840:	48 c7 00 00 00 00 00 	movq   $0x0,(%rax)
   12847:	4c 8b 20             	mov    (%rax),%r12
   1284a:	8b 45 b4             	mov    -0x4c(%rbp),%eax
   1284d:	89 c6                	mov    %eax,%esi
   1284f:	bf 00 00 00 00       	mov    $0x0,%edi
   12854:	e8 21 66 ff ff       	callq  8e7a <safe_rshift_func_uint16_t_u_u>
   12859:	0f b7 c8             	movzwl %ax,%ecx
   1285c:	0f bf 55 b0          	movswl -0x50(%rbp),%edx
   12860:	48 8b 05 79 98 00 00 	mov    0x9879(%rip),%rax        # 1c0e0 <g_16>
   12867:	09 ca                	or     %ecx,%edx
   12869:	89 10                	mov    %edx,(%rax)
   1286b:	0f b6 05 c6 77 00 00 	movzbl 0x77c6(%rip),%eax        # 1a038 <g_73>
   12872:	0f be d0             	movsbl %al,%edx
   12875:	48 8b 45 c8          	mov    -0x38(%rbp),%rax
   12879:	0f b7 4d b0          	movzwl -0x50(%rbp),%ecx
   1287d:	66 89 08             	mov    %cx,(%rax)
   12880:	48 8b 45 c8          	mov    -0x38(%rbp),%rax
   12884:	0f b7 00             	movzwl (%rax),%eax
   12887:	98                   	cwtl   
   12888:	89 d6                	mov    %edx,%esi
   1288a:	89 c7                	mov    %eax,%edi
   1288c:	e8 c4 5b ff ff       	callq  8455 <safe_div_func_int16_t_s_s>
   12891:	0f bf d0             	movswl %ax,%edx
   12894:	48 8b 05 6d 98 00 00 	mov    0x986d(%rip),%rax        # 1c108 <g_270>
   1289b:	48 8b 00             	mov    (%rax),%rax
   1289e:	48 8b 00             	mov    (%rax),%rax
   128a1:	48 85 c0             	test   %rax,%rax
   128a4:	0f 94 c0             	sete   %al
   128a7:	0f b6 c0             	movzbl %al,%eax
   128aa:	09 d0                	or     %edx,%eax
   128ac:	21 45 c4             	and    %eax,-0x3c(%rbp)
   128af:	48 8b 45 d0          	mov    -0x30(%rbp),%rax
   128b3:	8b 55 c4             	mov    -0x3c(%rbp),%edx
   128b6:	89 10                	mov    %edx,(%rax)
   128b8:	48 8b 45 d0          	mov    -0x30(%rbp),%rax
   128bc:	8b 10                	mov    (%rax),%edx
   128be:	0f bf 45 b0          	movswl -0x50(%rbp),%eax
   128c2:	39 c2                	cmp    %eax,%edx
   128c4:	0f 95 c0             	setne  %al
   128c7:	0f b6 d0             	movzbl %al,%edx
   128ca:	48 8b 45 98          	mov    -0x68(%rbp),%rax
   128ce:	98                   	cwtl   
   128cf:	89 d6                	mov    %edx,%esi
   128d1:	89 c7                	mov    %eax,%edi
   128d3:	e8 fb 5a ff ff       	callq  83d3 <safe_sub_func_int16_t_s_s>
   128d8:	66 85 c0             	test   %ax,%ax
   128db:	75 0a                	jne    128e7 <func_60+0x11d>
   128dd:	48 8b 45 d0          	mov    -0x30(%rbp),%rax
   128e1:	8b 00                	mov    (%rax),%eax
   128e3:	85 c0                	test   %eax,%eax
   128e5:	74 07                	je     128ee <func_60+0x124>
   128e7:	ba 01 00 00 00       	mov    $0x1,%edx
   128ec:	eb 05                	jmp    128f3 <func_60+0x129>
   128ee:	ba 00 00 00 00       	mov    $0x0,%edx
   128f3:	8b 05 77 78 00 00    	mov    0x7877(%rip),%eax        # 1a170 <g_292>
   128f9:	39 c2                	cmp    %eax,%edx
   128fb:	0f 94 c0             	sete   %al
   128fe:	0f b6 c0             	movzbl %al,%eax
   12901:	f7 d0                	not    %eax
   12903:	48 98                	cltq   
   12905:	49 39 c4             	cmp    %rax,%r12
   12908:	0f 94 c0             	sete   %al
   1290b:	0f b6 c0             	movzbl %al,%eax
   1290e:	41 39 c5             	cmp    %eax,%r13d
   12911:	0f 9f c0             	setg   %al
   12914:	0f b6 c0             	movzbl %al,%eax
   12917:	89 de                	mov    %ebx,%esi
   12919:	89 c7                	mov    %eax,%edi
   1291b:	e8 81 59 ff ff       	callq  82a1 <safe_lshift_func_int8_t_s_s>
   12920:	0f be d0             	movsbl %al,%edx
   12923:	8b 05 47 78 00 00    	mov    0x7847(%rip),%eax        # 1a170 <g_292>
   12929:	39 c2                	cmp    %eax,%edx
   1292b:	0f 9e c0             	setle  %al
   1292e:	0f b6 d0             	movzbl %al,%edx
   12931:	48 8b 45 98          	mov    -0x68(%rbp),%rax
   12935:	48 39 c2             	cmp    %rax,%rdx
   12938:	0f 95 c0             	setne  %al
   1293b:	0f b6 d0             	movzbl %al,%edx
   1293e:	48 8b 45 e0          	mov    -0x20(%rbp),%rax
   12942:	89 10                	mov    %edx,(%rax)
   12944:	48 8d 05 95 97 00 00 	lea    0x9795(%rip),%rax        # 1c0e0 <g_16>
   1294b:	48 83 c4 50          	add    $0x50,%rsp
   1294f:	5b                   	pop    %rbx
   12950:	41 5c                	pop    %r12
   12952:	41 5d                	pop    %r13
   12954:	5d                   	pop    %rbp
   12955:	c3                   	retq   

0000000000012956 <func_66>:
   12956:	f3 0f 1e fa          	endbr64 
   1295a:	55                   	push   %rbp
   1295b:	48 89 e5             	mov    %rsp,%rbp
   1295e:	41 54                	push   %r12
   12960:	53                   	push   %rbx
   12961:	48 81 ec b0 05 00 00 	sub    $0x5b0,%rsp
   12968:	48 89 bd 58 fa ff ff 	mov    %rdi,-0x5a8(%rbp)
   1296f:	89 b5 54 fa ff ff    	mov    %esi,-0x5ac(%rbp)
   12975:	48 89 95 48 fa ff ff 	mov    %rdx,-0x5b8(%rbp)
   1297c:	64 48 8b 04 25 28 00 	mov    %fs:0x28,%rax
   12983:	00 00 
   12985:	48 89 45 e8          	mov    %rax,-0x18(%rbp)
   12989:	31 c0                	xor    %eax,%eax
   1298b:	48 8d 85 30 fb ff ff 	lea    -0x4d0(%rbp),%rax
   12992:	48 8d 15 87 92 00 00 	lea    0x9287(%rip),%rdx        # 1bc20 <g_2100+0xfc8>
   12999:	b9 96 00 00 00       	mov    $0x96,%ecx
   1299e:	48 89 c7             	mov    %rax,%rdi
   129a1:	48 89 d6             	mov    %rdx,%rsi
   129a4:	f3 48 a5             	rep movsq %ds:(%rsi),%es:(%rdi)
   129a7:	48 b8 63 80 eb 0c 61 	movabs $0x494529610ceb8063,%rax
   129ae:	29 45 49 
   129b1:	48 89 85 98 fa ff ff 	mov    %rax,-0x568(%rbp)
   129b8:	48 8d 05 49 97 00 00 	lea    0x9749(%rip),%rax        # 1c108 <g_270>
   129bf:	48 89 85 a0 fa ff ff 	mov    %rax,-0x560(%rbp)
   129c6:	c7 85 6c fa ff ff 00 	movl   $0x0,-0x594(%rbp)
   129cd:	00 00 00 
   129d0:	eb 72                	jmp    12a44 <func_66+0xee>
   129d2:	c7 85 70 fa ff ff 00 	movl   $0x0,-0x590(%rbp)
   129d9:	00 00 00 
   129dc:	eb 56                	jmp    12a34 <func_66+0xde>
   129de:	c7 85 74 fa ff ff 00 	movl   $0x0,-0x58c(%rbp)
   129e5:	00 00 00 
   129e8:	eb 3a                	jmp    12a24 <func_66+0xce>
   129ea:	8b 85 74 fa ff ff    	mov    -0x58c(%rbp),%eax
   129f0:	48 98                	cltq   
   129f2:	8b 95 6c fa ff ff    	mov    -0x594(%rbp),%edx
   129f8:	48 63 ca             	movslq %edx,%rcx
   129fb:	8b 95 70 fa ff ff    	mov    -0x590(%rbp),%edx
   12a01:	48 63 d2             	movslq %edx,%rdx
   12a04:	48 01 ca             	add    %rcx,%rdx
   12a07:	48 01 d2             	add    %rdx,%rdx
   12a0a:	48 8d 4d f0          	lea    -0x10(%rbp),%rcx
   12a0e:	48 01 ca             	add    %rcx,%rdx
   12a11:	48 01 d0             	add    %rdx,%rax
   12a14:	48 2d 1c 05 00 00    	sub    $0x51c,%rax
   12a1a:	c6 00 c5             	movb   $0xc5,(%rax)
   12a1d:	83 85 74 fa ff ff 01 	addl   $0x1,-0x58c(%rbp)
   12a24:	83 bd 74 fa ff ff 01 	cmpl   $0x1,-0x58c(%rbp)
   12a2b:	7e bd                	jle    129ea <func_66+0x94>
   12a2d:	83 85 70 fa ff ff 01 	addl   $0x1,-0x590(%rbp)
   12a34:	83 bd 70 fa ff ff 00 	cmpl   $0x0,-0x590(%rbp)
   12a3b:	7e a1                	jle    129de <func_66+0x88>
   12a3d:	83 85 6c fa ff ff 01 	addl   $0x1,-0x594(%rbp)
   12a44:	83 bd 6c fa ff ff 05 	cmpl   $0x5,-0x594(%rbp)
   12a4b:	7e 85                	jle    129d2 <func_66+0x7c>
   12a4d:	c7 05 d5 75 00 00 00 	movl   $0x0,0x75d5(%rip)        # 1a02c <g_9>
   12a54:	00 00 00 
   12a57:	eb 72                	jmp    12acb <func_66+0x175>
   12a59:	48 c7 85 a8 fa ff ff 	movq   $0x0,-0x558(%rbp)
   12a60:	00 00 00 00 
   12a64:	48 8b 05 75 96 00 00 	mov    0x9675(%rip),%rax        # 1c0e0 <g_16>
   12a6b:	8b 00                	mov    (%rax),%eax
   12a6d:	89 85 54 fa ff ff    	mov    %eax,-0x5ac(%rbp)
   12a73:	c7 05 e3 75 00 00 e7 	movl   $0xffffffe7,0x75e3(%rip)        # 1a060 <g_159>
   12a7a:	ff ff ff 
   12a7d:	90                   	nop
   12a7e:	8b 05 dc 75 00 00    	mov    0x75dc(%rip),%eax        # 1a060 <g_159>
   12a84:	83 f8 32             	cmp    $0x32,%eax
   12a87:	77 0c                	ja     12a95 <func_66+0x13f>
   12a89:	48 8d 05 50 96 00 00 	lea    0x9650(%rip),%rax        # 1c0e0 <g_16>
   12a90:	e9 54 04 00 00       	jmpq   12ee9 <func_66+0x593>
   12a95:	0f b6 85 df fa ff ff 	movzbl -0x521(%rbp),%eax
   12a9c:	83 e8 01             	sub    $0x1,%eax
   12a9f:	88 85 df fa ff ff    	mov    %al,-0x521(%rbp)
   12aa5:	8b 05 b5 75 00 00    	mov    0x75b5(%rip),%eax        # 1a060 <g_159>
   12aab:	85 c0                	test   %eax,%eax
   12aad:	75 39                	jne    12ae8 <func_66+0x192>
   12aaf:	48 8b 05 2a 96 00 00 	mov    0x962a(%rip),%rax        # 1c0e0 <g_16>
   12ab6:	8b 00                	mov    (%rax),%eax
   12ab8:	85 c0                	test   %eax,%eax
   12aba:	75 1c                	jne    12ad8 <func_66+0x182>
   12abc:	8b 05 6a 75 00 00    	mov    0x756a(%rip),%eax        # 1a02c <g_9>
   12ac2:	83 e8 01             	sub    $0x1,%eax
   12ac5:	89 05 61 75 00 00    	mov    %eax,0x7561(%rip)        # 1a02c <g_9>
   12acb:	8b 05 5b 75 00 00    	mov    0x755b(%rip),%eax        # 1a02c <g_9>
   12ad1:	83 f8 ec             	cmp    $0xffffffec,%eax
   12ad4:	7c 83                	jl     12a59 <func_66+0x103>
   12ad6:	eb 01                	jmp    12ad9 <func_66+0x183>
   12ad8:	90                   	nop
   12ad9:	48 8b 05 00 96 00 00 	mov    0x9600(%rip),%rax        # 1c0e0 <g_16>
   12ae0:	c7 00 06 fc 0b cc    	movl   $0xcc0bfc06,(%rax)
   12ae6:	eb 01                	jmp    12ae9 <func_66+0x193>
   12ae8:	90                   	nop
   12ae9:	48 8b 85 80 fc ff ff 	mov    -0x380(%rbp),%rax
   12af0:	48 89 85 00 fc ff ff 	mov    %rax,-0x400(%rbp)
   12af7:	66 c7 05 4a 75 00 00 	movw   $0x5,0x754a(%rip)        # 1a04a <g_124>
   12afe:	05 00 
   12b00:	e9 cc 03 00 00       	jmpq   12ed1 <func_66+0x57b>
   12b05:	66 c7 85 66 fa ff ff 	movw   $0xffff,-0x59a(%rbp)
   12b0c:	ff ff 
   12b0e:	48 8d 05 93 75 00 00 	lea    0x7593(%rip),%rax        # 1a0a8 <g_161+0x28>
   12b15:	48 89 85 b0 fa ff ff 	mov    %rax,-0x550(%rbp)
   12b1c:	c7 85 7c fa ff ff f8 	movl   $0xfffffff8,-0x584(%rbp)
   12b23:	ff ff ff 
   12b26:	66 c7 85 68 fa ff ff 	movw   $0x4914,-0x598(%rbp)
   12b2d:	14 49 
   12b2f:	c7 85 80 fa ff ff f2 	movl   $0x67e706f2,-0x580(%rbp)
   12b36:	06 e7 67 
   12b39:	c7 05 a5 77 00 00 00 	movl   $0x0,0x77a5(%rip)        # 1a2e8 <g_302>
   12b40:	00 00 00 
   12b43:	e9 b6 02 00 00       	jmpq   12dfe <func_66+0x4a8>
   12b48:	c7 85 84 fa ff ff f3 	movl   $0xd7f472f3,-0x57c(%rbp)
   12b4f:	72 f4 d7 
   12b52:	48 8d 05 9f 77 00 00 	lea    0x779f(%rip),%rax        # 1a2f8 <g_346>
   12b59:	48 89 85 b8 fa ff ff 	mov    %rax,-0x548(%rbp)
   12b60:	48 8d 05 89 77 00 00 	lea    0x7789(%rip),%rax        # 1a2f0 <g_303>
   12b67:	48 89 85 c0 fa ff ff 	mov    %rax,-0x540(%rbp)
   12b6e:	48 8d 05 db 74 00 00 	lea    0x74db(%rip),%rax        # 1a050 <g_145>
   12b75:	48 89 85 c8 fa ff ff 	mov    %rax,-0x538(%rbp)
   12b7c:	c7 85 88 fa ff ff 01 	movl   $0x1,-0x578(%rbp)
   12b83:	00 00 00 
   12b86:	c7 85 78 fa ff ff 00 	movl   $0x0,-0x588(%rbp)
   12b8d:	00 00 00 
   12b90:	eb 1b                	jmp    12bad <func_66+0x257>
   12b92:	8b 85 78 fa ff ff    	mov    -0x588(%rbp),%eax
   12b98:	48 98                	cltq   
   12b9a:	48 c7 84 c5 e0 fa ff 	movq   $0x8,-0x520(%rbp,%rax,8)
   12ba1:	ff 08 00 00 00 
   12ba6:	83 85 78 fa ff ff 01 	addl   $0x1,-0x588(%rbp)
   12bad:	83 bd 78 fa ff ff 09 	cmpl   $0x9,-0x588(%rbp)
   12bb4:	7e dc                	jle    12b92 <func_66+0x23c>
   12bb6:	48 8b 85 f0 fa ff ff 	mov    -0x510(%rbp),%rax
   12bbd:	0f b6 d8             	movzbl %al,%ebx
   12bc0:	8b 85 54 fa ff ff    	mov    -0x5ac(%rbp),%eax
   12bc6:	44 0f b7 e0          	movzwl %ax,%r12d
   12bca:	48 8b 15 4f 95 00 00 	mov    0x954f(%rip),%rdx        # 1c120 <g_283>
   12bd1:	48 8b 05 48 95 00 00 	mov    0x9548(%rip),%rax        # 1c120 <g_283>
   12bd8:	48 8b 12             	mov    (%rdx),%rdx
   12bdb:	48 89 10             	mov    %rdx,(%rax)
   12bde:	b8 01 00 00 00       	mov    $0x1,%eax
   12be3:	89 c2                	mov    %eax,%edx
   12be5:	48 8b 85 c8 fa ff ff 	mov    -0x538(%rbp),%rax
   12bec:	88 10                	mov    %dl,(%rax)
   12bee:	48 8b 85 c8 fa ff ff 	mov    -0x538(%rbp),%rax
   12bf5:	0f b6 00             	movzbl (%rax),%eax
   12bf8:	0f be c0             	movsbl %al,%eax
   12bfb:	be f9 ff ff ff       	mov    $0xfffffff9,%esi
   12c00:	89 c7                	mov    %eax,%edi
   12c02:	e8 0b 56 ff ff       	callq  8212 <safe_mul_func_int8_t_s_s>
   12c07:	66 98                	cbtw   
   12c09:	0f b7 c0             	movzwl %ax,%eax
   12c0c:	44 89 e6             	mov    %r12d,%esi
   12c0f:	89 c7                	mov    %eax,%edi
   12c11:	e8 27 61 ff ff       	callq  8d3d <safe_mul_func_uint16_t_u_u>
   12c16:	0f b7 c0             	movzwl %ax,%eax
   12c19:	39 85 84 fa ff ff    	cmp    %eax,-0x57c(%rbp)
   12c1f:	75 13                	jne    12c34 <func_66+0x2de>
   12c21:	48 8b 85 58 fa ff ff 	mov    -0x5a8(%rbp),%rax
   12c28:	48 8b 00             	mov    (%rax),%rax
   12c2b:	48 8b 00             	mov    (%rax),%rax
   12c2e:	8b 00                	mov    (%rax),%eax
   12c30:	85 c0                	test   %eax,%eax
   12c32:	74 07                	je     12c3b <func_66+0x2e5>
   12c34:	b8 01 00 00 00       	mov    $0x1,%eax
   12c39:	eb 05                	jmp    12c40 <func_66+0x2ea>
   12c3b:	b8 00 00 00 00       	mov    $0x0,%eax
   12c40:	0f b7 c0             	movzwl %ax,%eax
   12c43:	be ff ff 00 00       	mov    $0xffff,%esi
   12c48:	89 c7                	mov    %eax,%edi
   12c4a:	e8 ee 60 ff ff       	callq  8d3d <safe_mul_func_uint16_t_u_u>
   12c4f:	48 8b 15 8a 94 00 00 	mov    0x948a(%rip),%rdx        # 1c0e0 <g_16>
   12c56:	8b 12                	mov    (%rdx),%edx
   12c58:	89 d6                	mov    %edx,%esi
   12c5a:	48 8b 15 a7 94 00 00 	mov    0x94a7(%rip),%rdx        # 1c108 <g_270>
   12c61:	48 8b 12             	mov    (%rdx),%rdx
   12c64:	48 8b 12             	mov    (%rdx),%rdx
   12c67:	8b 0a                	mov    (%rdx),%ecx
   12c69:	0f b7 d0             	movzwl %ax,%edx
   12c6c:	48 8b 05 95 94 00 00 	mov    0x9495(%rip),%rax        # 1c108 <g_270>
   12c73:	48 8b 00             	mov    (%rax),%rax
   12c76:	48 8b 00             	mov    (%rax),%rax
   12c79:	21 ca                	and    %ecx,%edx
   12c7b:	89 10                	mov    %edx,(%rax)
   12c7d:	8b 00                	mov    (%rax),%eax
   12c7f:	39 c6                	cmp    %eax,%esi
   12c81:	0f 93 c0             	setae  %al
   12c84:	0f b6 c0             	movzbl %al,%eax
   12c87:	89 de                	mov    %ebx,%esi
   12c89:	89 c7                	mov    %eax,%edi
   12c8b:	e8 1e 5f ff ff       	callq  8bae <safe_mod_func_uint8_t_u_u>
   12c90:	0f b6 c0             	movzbl %al,%eax
   12c93:	ba 00 00 00 00       	mov    $0x0,%edx
   12c98:	09 c2                	or     %eax,%edx
   12c9a:	8b 05 8c 73 00 00    	mov    0x738c(%rip),%eax        # 1a02c <g_9>
   12ca0:	39 c2                	cmp    %eax,%edx
   12ca2:	0f 97 c0             	seta   %al
   12ca5:	0f b6 c0             	movzbl %al,%eax
   12ca8:	39 85 54 fa ff ff    	cmp    %eax,-0x5ac(%rbp)
   12cae:	66 83 bd 66 fa ff ff 	cmpw   $0x0,-0x59a(%rbp)
   12cb5:	00 
   12cb6:	48 8b 85 58 fa ff ff 	mov    -0x5a8(%rbp),%rax
   12cbd:	48 8b 00             	mov    (%rax),%rax
   12cc0:	48 8b 00             	mov    (%rax),%rax
   12cc3:	8b 00                	mov    (%rax),%eax
   12cc5:	89 85 88 fa ff ff    	mov    %eax,-0x578(%rbp)
   12ccb:	c7 05 83 74 00 00 08 	movl   $0x8,0x7483(%rip)        # 1a158 <g_185>
   12cd2:	00 00 00 
   12cd5:	e9 f9 00 00 00       	jmpq   12dd3 <func_66+0x47d>
   12cda:	48 b8 7a fe 41 fb 3a 	movabs $0xb3200a3afb41fe7a,%rax
   12ce1:	0a 20 b3 
   12ce4:	48 89 85 90 fa ff ff 	mov    %rax,-0x570(%rbp)
   12ceb:	66 c7 85 6a fa ff ff 	movw   $0x1ad9,-0x596(%rbp)
   12cf2:	d9 1a 
   12cf4:	c7 85 8c fa ff ff 00 	movl   $0x0,-0x574(%rbp)
   12cfb:	00 00 00 
   12cfe:	48 8d 05 13 96 00 00 	lea    0x9613(%rip),%rax        # 1c318 <g_356+0x1d8>
   12d05:	48 85 c0             	test   %rax,%rax
   12d08:	0f 95 c0             	setne  %al
   12d0b:	0f b6 d8             	movzbl %al,%ebx
   12d0e:	0f b6 05 47 74 00 00 	movzbl 0x7447(%rip),%eax        # 1a15c <g_193>
   12d15:	44 0f be e0          	movsbl %al,%r12d
   12d19:	8b 95 88 fa ff ff    	mov    -0x578(%rbp),%edx
   12d1f:	0f b7 85 6a fa ff ff 	movzwl -0x596(%rbp),%eax
   12d26:	89 d6                	mov    %edx,%esi
   12d28:	89 c7                	mov    %eax,%edi
   12d2a:	e8 a1 61 ff ff       	callq  8ed0 <safe_sub_func_uint32_t_u_u>
   12d2f:	0f be d0             	movsbl %al,%edx
   12d32:	8b 85 54 fa ff ff    	mov    -0x5ac(%rbp),%eax
   12d38:	0f be c0             	movsbl %al,%eax
   12d3b:	89 d6                	mov    %edx,%esi
   12d3d:	89 c7                	mov    %eax,%edi
   12d3f:	e8 ce 54 ff ff       	callq  8212 <safe_mul_func_int8_t_s_s>
   12d44:	0f be c0             	movsbl %al,%eax
   12d47:	89 c7                	mov    %eax,%edi
   12d49:	e8 48 58 ff ff       	callq  8596 <safe_unary_minus_func_int32_t_s>
   12d4e:	48 63 d0             	movslq %eax,%rdx
   12d51:	48 8b 05 b8 a9 00 00 	mov    0xa9b8(%rip),%rax        # 1d710 <g_284>
   12d58:	48 39 c2             	cmp    %rax,%rdx
   12d5b:	0f 97 c0             	seta   %al
   12d5e:	0f b6 c0             	movzbl %al,%eax
   12d61:	be 02 00 00 00       	mov    $0x2,%esi
   12d66:	89 c7                	mov    %eax,%edi
   12d68:	e8 c8 55 ff ff       	callq  8335 <safe_rshift_func_int8_t_s_s>
   12d6d:	be 00 00 00 00       	mov    $0x0,%esi
   12d72:	bf 00 00 00 00       	mov    $0x0,%edi
   12d77:	e8 6a 61 ff ff       	callq  8ee6 <safe_mul_func_uint32_t_u_u>
   12d7c:	8b 95 88 fa ff ff    	mov    -0x578(%rbp),%edx
   12d82:	39 d0                	cmp    %edx,%eax
   12d84:	0f 93 c0             	setae  %al
   12d87:	0f b6 c0             	movzbl %al,%eax
   12d8a:	8b 95 54 fa ff ff    	mov    -0x5ac(%rbp),%edx
   12d90:	09 d0                	or     %edx,%eax
   12d92:	0f b7 c0             	movzwl %ax,%eax
   12d95:	be 10 8b 00 00       	mov    $0x8b10,%esi
   12d9a:	89 c7                	mov    %eax,%edi
   12d9c:	e8 bb 5f ff ff       	callq  8d5c <safe_mod_func_uint16_t_u_u>
   12da1:	0f b7 c0             	movzwl %ax,%eax
   12da4:	41 39 c4             	cmp    %eax,%r12d
   12da7:	0f 95 c0             	setne  %al
   12daa:	0f b6 c0             	movzbl %al,%eax
   12dad:	be 04 00 00 00       	mov    $0x4,%esi
   12db2:	89 c7                	mov    %eax,%edi
   12db4:	e8 b3 55 ff ff       	callq  836c <safe_rshift_func_int8_t_s_u>
   12db9:	0f be c0             	movsbl %al,%eax
   12dbc:	09 d8                	or     %ebx,%eax
   12dbe:	89 85 8c fa ff ff    	mov    %eax,-0x574(%rbp)
   12dc4:	8b 05 8e 73 00 00    	mov    0x738e(%rip),%eax        # 1a158 <g_185>
   12dca:	83 c0 01             	add    $0x1,%eax
   12dcd:	89 05 85 73 00 00    	mov    %eax,0x7385(%rip)        # 1a158 <g_185>
   12dd3:	8b 05 7f 73 00 00    	mov    0x737f(%rip),%eax        # 1a158 <g_185>
   12dd9:	83 f8 37             	cmp    $0x37,%eax
   12ddc:	0f 87 f8 fe ff ff    	ja     12cda <func_66+0x384>
   12de2:	48 8b 85 48 fa ff ff 	mov    -0x5b8(%rbp),%rax
   12de9:	8b 00                	mov    (%rax),%eax
   12deb:	85 c0                	test   %eax,%eax
   12ded:	75 20                	jne    12e0f <func_66+0x4b9>
   12def:	8b 05 f3 74 00 00    	mov    0x74f3(%rip),%eax        # 1a2e8 <g_302>
   12df5:	83 e8 01             	sub    $0x1,%eax
   12df8:	89 05 ea 74 00 00    	mov    %eax,0x74ea(%rip)        # 1a2e8 <g_302>
   12dfe:	8b 05 e4 74 00 00    	mov    0x74e4(%rip),%eax        # 1a2e8 <g_302>
   12e04:	83 f8 e3             	cmp    $0xffffffe3,%eax
   12e07:	0f 8d 3b fd ff ff    	jge    12b48 <func_66+0x1f2>
   12e0d:	eb 01                	jmp    12e10 <func_66+0x4ba>
   12e0f:	90                   	nop
   12e10:	8b 05 4a 73 00 00    	mov    0x734a(%rip),%eax        # 1a160 <g_194>
   12e16:	0f b6 d8             	movzbl %al,%ebx
   12e19:	8b 85 7c fa ff ff    	mov    -0x584(%rbp),%eax
   12e1f:	44 0f be e0          	movsbl %al,%r12d
   12e23:	48 83 bd b0 fa ff ff 	cmpq   $0x0,-0x550(%rbp)
   12e2a:	00 
   12e2b:	0f 95 c0             	setne  %al
   12e2e:	0f b6 c0             	movzbl %al,%eax
   12e31:	be 05 00 00 00       	mov    $0x5,%esi
   12e36:	89 c7                	mov    %eax,%edi
   12e38:	e8 f4 53 ff ff       	callq  8231 <safe_mod_func_int8_t_s_s>
   12e3d:	0f be c0             	movsbl %al,%eax
   12e40:	f7 d0                	not    %eax
   12e42:	89 c2                	mov    %eax,%edx
   12e44:	0f bf 85 66 fa ff ff 	movswl -0x59a(%rbp),%eax
   12e4b:	39 c2                	cmp    %eax,%edx
   12e4d:	0f 9c c0             	setl   %al
   12e50:	0f b6 c0             	movzbl %al,%eax
   12e53:	44 89 e6             	mov    %r12d,%esi
   12e56:	89 c7                	mov    %eax,%edi
   12e58:	e8 77 53 ff ff       	callq  81d4 <safe_add_func_int8_t_s_s>
   12e5d:	48 83 bd a0 fa ff ff 	cmpq   $0x0,-0x560(%rbp)
   12e64:	00 
   12e65:	0f 94 c0             	sete   %al
   12e68:	0f b6 c0             	movzbl %al,%eax
   12e6b:	be 01 00 00 00       	mov    $0x1,%esi
   12e70:	89 c7                	mov    %eax,%edi
   12e72:	e8 3c 55 ff ff       	callq  83b3 <safe_add_func_int16_t_s_s>
   12e77:	83 bd 7c fa ff ff 00 	cmpl   $0x0,-0x584(%rbp)
   12e7e:	b8 01 00 00 00       	mov    $0x1,%eax
   12e83:	0f b6 c0             	movzbl %al,%eax
   12e86:	89 de                	mov    %ebx,%esi
   12e88:	89 c7                	mov    %eax,%edi
   12e8a:	e8 04 5d ff ff       	callq  8b93 <safe_mul_func_uint8_t_u_u>
   12e8f:	b8 01 00 00 00       	mov    $0x1,%eax
   12e94:	0f b6 c0             	movzbl %al,%eax
   12e97:	be 04 00 00 00       	mov    $0x4,%esi
   12e9c:	89 c7                	mov    %eax,%edi
   12e9e:	e8 1b 5e ff ff       	callq  8cbe <safe_rshift_func_uint8_t_u_u>
   12ea3:	0f b6 c0             	movzbl %al,%eax
   12ea6:	48 0b 85 98 fa ff ff 	or     -0x568(%rbp),%rax
   12ead:	48 89 c7             	mov    %rax,%rdi
   12eb0:	e8 61 59 ff ff       	callq  8816 <safe_unary_minus_func_int64_t_s>
   12eb5:	b8 90 fd 86 fc       	mov    $0xfc86fd90,%eax
   12eba:	21 85 80 fa ff ff    	and    %eax,-0x580(%rbp)
   12ec0:	0f b7 05 83 71 00 00 	movzwl 0x7183(%rip),%eax        # 1a04a <g_124>
   12ec7:	83 c0 01             	add    $0x1,%eax
   12eca:	66 89 05 79 71 00 00 	mov    %ax,0x7179(%rip)        # 1a04a <g_124>
   12ed1:	0f b7 05 72 71 00 00 	movzwl 0x7172(%rip),%eax        # 1a04a <g_124>
   12ed8:	66 83 f8 06          	cmp    $0x6,%ax
   12edc:	0f 8e 23 fc ff ff    	jle    12b05 <func_66+0x1af>
   12ee2:	48 8d 05 f7 91 00 00 	lea    0x91f7(%rip),%rax        # 1c0e0 <g_16>
   12ee9:	48 8b 5d e8          	mov    -0x18(%rbp),%rbx
   12eed:	64 48 33 1c 25 28 00 	xor    %fs:0x28,%rbx
   12ef4:	00 00 
   12ef6:	74 05                	je     12efd <func_66+0x5a7>
   12ef8:	e8 73 51 ff ff       	callq  8070 <__stack_chk_fail@plt>
   12efd:	48 81 c4 b0 05 00 00 	add    $0x5b0,%rsp
   12f04:	5b                   	pop    %rbx
   12f05:	41 5c                	pop    %r12
   12f07:	5d                   	pop    %rbp
   12f08:	c3                   	retq   

0000000000012f09 <func_70>:
   12f09:	f3 0f 1e fa          	endbr64 
   12f0d:	55                   	push   %rbp
   12f0e:	48 89 e5             	mov    %rsp,%rbp
   12f11:	48 81 ec 70 06 00 00 	sub    $0x670,%rsp
   12f18:	89 fa                	mov    %edi,%edx
   12f1a:	89 f0                	mov    %esi,%eax
   12f1c:	66 89 95 9c f9 ff ff 	mov    %dx,-0x664(%rbp)
   12f23:	66 89 85 98 f9 ff ff 	mov    %ax,-0x668(%rbp)
   12f2a:	64 48 8b 04 25 28 00 	mov    %fs:0x28,%rax
   12f31:	00 00 
   12f33:	48 89 45 f8          	mov    %rax,-0x8(%rbp)
   12f37:	31 c0                	xor    %eax,%eax
   12f39:	48 b8 0e bb e8 e0 27 	movabs $0xd553f327e0e8bb0e,%rax
   12f40:	f3 53 d5 
   12f43:	48 89 85 c0 f9 ff ff 	mov    %rax,-0x640(%rbp)
   12f4a:	48 8d 05 8f 91 00 00 	lea    0x918f(%rip),%rax        # 1c0e0 <g_16>
   12f51:	48 89 85 e8 f9 ff ff 	mov    %rax,-0x618(%rbp)
   12f58:	c7 85 50 fb ff ff 01 	movl   $0x1,-0x4b0(%rbp)
   12f5f:	00 00 00 
   12f62:	c7 85 54 fb ff ff 1c 	movl   $0xb56ec41c,-0x4ac(%rbp)
   12f69:	c4 6e b5 
   12f6c:	c7 85 58 fb ff ff 0d 	movl   $0xf1ab120d,-0x4a8(%rbp)
   12f73:	12 ab f1 
   12f76:	c7 85 5c fb ff ff ff 	movl   $0xffffffff,-0x4a4(%rbp)
   12f7d:	ff ff ff 
   12f80:	c7 85 60 fb ff ff ff 	movl   $0xffffffff,-0x4a0(%rbp)
   12f87:	ff ff ff 
   12f8a:	c7 85 64 fb ff ff 0d 	movl   $0xf1ab120d,-0x49c(%rbp)
   12f91:	12 ab f1 
   12f94:	c7 85 68 fb ff ff 00 	movl   $0x0,-0x498(%rbp)
   12f9b:	00 00 00 
   12f9e:	c7 85 6c fb ff ff 00 	movl   $0x0,-0x494(%rbp)
   12fa5:	00 00 00 
   12fa8:	c7 85 70 fb ff ff 01 	movl   $0x1,-0x490(%rbp)
   12faf:	00 00 00 
   12fb2:	c7 85 74 fb ff ff 05 	movl   $0x5,-0x48c(%rbp)
   12fb9:	00 00 00 
   12fbc:	c7 85 78 fb ff ff ff 	movl   $0xffffffff,-0x488(%rbp)
   12fc3:	ff ff ff 
   12fc6:	c7 85 7c fb ff ff cb 	movl   $0x606ef8cb,-0x484(%rbp)
   12fcd:	f8 6e 60 
   12fd0:	c7 85 80 fb ff ff ff 	movl   $0xffffffff,-0x480(%rbp)
   12fd7:	ff ff ff 
   12fda:	c7 85 84 fb ff ff 1c 	movl   $0xb56ec41c,-0x47c(%rbp)
   12fe1:	c4 6e b5 
   12fe4:	c7 85 88 fb ff ff 00 	movl   $0x0,-0x478(%rbp)
   12feb:	00 00 00 
   12fee:	c7 85 8c fb ff ff 05 	movl   $0x5,-0x474(%rbp)
   12ff5:	00 00 00 
   12ff8:	c7 85 90 fb ff ff 1c 	movl   $0xb56ec41c,-0x470(%rbp)
   12fff:	c4 6e b5 
   13002:	c7 85 94 fb ff ff 01 	movl   $0x1,-0x46c(%rbp)
   13009:	00 00 00 
   1300c:	c7 85 98 fb ff ff 00 	movl   $0x0,-0x468(%rbp)
   13013:	00 00 00 
   13016:	c7 85 9c fb ff ff ff 	movl   $0xffffffff,-0x464(%rbp)
   1301d:	ff ff ff 
   13020:	c7 85 a0 fb ff ff 00 	movl   $0x0,-0x460(%rbp)
   13027:	00 00 00 
   1302a:	c7 85 a4 fb ff ff ff 	movl   $0xffffffff,-0x45c(%rbp)
   13031:	ff ff ff 
   13034:	c7 85 a8 fb ff ff 00 	movl   $0x0,-0x458(%rbp)
   1303b:	00 00 00 
   1303e:	c7 85 ac fb ff ff cb 	movl   $0x606ef8cb,-0x454(%rbp)
   13045:	f8 6e 60 
   13048:	c7 85 b0 fb ff ff 01 	movl   $0x1,-0x450(%rbp)
   1304f:	00 00 00 
   13052:	c7 85 b4 fb ff ff ff 	movl   $0xffffffff,-0x44c(%rbp)
   13059:	ff ff ff 
   1305c:	c7 85 b8 fb ff ff 01 	movl   $0x1,-0x448(%rbp)
   13063:	00 00 00 
   13066:	c7 85 bc fb ff ff 01 	movl   $0x1,-0x444(%rbp)
   1306d:	00 00 00 
   13070:	c7 85 c0 fb ff ff 1c 	movl   $0xb56ec41c,-0x440(%rbp)
   13077:	c4 6e b5 
   1307a:	c7 85 c4 fb ff ff 0d 	movl   $0xf1ab120d,-0x43c(%rbp)
   13081:	12 ab f1 
   13084:	c7 85 c8 fb ff ff 01 	movl   $0x1,-0x438(%rbp)
   1308b:	00 00 00 
   1308e:	c7 85 cc fb ff ff 1c 	movl   $0xb56ec41c,-0x434(%rbp)
   13095:	c4 6e b5 
   13098:	c7 85 d0 fb ff ff 0d 	movl   $0xf1ab120d,-0x430(%rbp)
   1309f:	12 ab f1 
   130a2:	c7 85 d4 fb ff ff ff 	movl   $0xffffffff,-0x42c(%rbp)
   130a9:	ff ff ff 
   130ac:	c7 85 d8 fb ff ff ff 	movl   $0xffffffff,-0x428(%rbp)
   130b3:	ff ff ff 
   130b6:	c7 85 dc fb ff ff 0d 	movl   $0xf1ab120d,-0x424(%rbp)
   130bd:	12 ab f1 
   130c0:	48 8d 05 8d 1f 00 00 	lea    0x1f8d(%rip),%rax        # 15054 <g_182>
   130c7:	48 89 85 f0 f9 ff ff 	mov    %rax,-0x610(%rbp)
   130ce:	48 b8 a2 e3 ce 24 26 	movabs $0x48e4e02624cee3a2,%rax
   130d5:	e0 e4 48 
   130d8:	48 89 85 c8 f9 ff ff 	mov    %rax,-0x638(%rbp)
   130df:	66 c7 85 a6 f9 ff ff 	movw   $0x0,-0x65a(%rbp)
   130e6:	00 00 
   130e8:	c7 85 b4 f9 ff ff fe 	movl   $0xfffffffe,-0x64c(%rbp)
   130ef:	ff ff ff 
   130f2:	c7 85 b8 f9 ff ff 22 	movl   $0xed6d0522,-0x648(%rbp)
   130f9:	05 6d ed 
   130fc:	48 8d 05 e5 71 00 00 	lea    0x71e5(%rip),%rax        # 1a2e8 <g_302>
   13103:	48 89 85 f8 f9 ff ff 	mov    %rax,-0x608(%rbp)
   1310a:	48 c7 85 00 fa ff ff 	movq   $0x0,-0x600(%rbp)
   13111:	00 00 00 00 
   13115:	48 8d 05 cc 71 00 00 	lea    0x71cc(%rip),%rax        # 1a2e8 <g_302>
   1311c:	48 89 85 08 fa ff ff 	mov    %rax,-0x5f8(%rbp)
   13123:	48 8d 05 0e 6f 00 00 	lea    0x6f0e(%rip),%rax        # 1a038 <g_73>
   1312a:	48 89 85 10 fa ff ff 	mov    %rax,-0x5f0(%rbp)
   13131:	48 8d 05 18 6f 00 00 	lea    0x6f18(%rip),%rax        # 1a050 <g_145>
   13138:	48 89 85 18 fa ff ff 	mov    %rax,-0x5e8(%rbp)
   1313f:	48 8d 05 a2 71 00 00 	lea    0x71a2(%rip),%rax        # 1a2e8 <g_302>
   13146:	48 89 85 20 fa ff ff 	mov    %rax,-0x5e0(%rbp)
   1314d:	48 8d 85 50 fb ff ff 	lea    -0x4b0(%rbp),%rax
   13154:	48 83 c0 60          	add    $0x60,%rax
   13158:	48 89 85 28 fa ff ff 	mov    %rax,-0x5d8(%rbp)
   1315f:	48 8d 05 d2 6e 00 00 	lea    0x6ed2(%rip),%rax        # 1a038 <g_73>
   13166:	48 89 85 30 fa ff ff 	mov    %rax,-0x5d0(%rbp)
   1316d:	48 c7 85 38 fa ff ff 	movq   $0x0,-0x5c8(%rbp)
   13174:	00 00 00 00 
   13178:	48 8d 05 d1 6e 00 00 	lea    0x6ed1(%rip),%rax        # 1a050 <g_145>
   1317f:	48 89 85 40 fa ff ff 	mov    %rax,-0x5c0(%rbp)
   13186:	66 c7 85 a8 f9 ff ff 	movw   $0x1,-0x658(%rbp)
   1318d:	01 00 
   1318f:	c7 85 ac f9 ff ff 00 	movl   $0x0,-0x654(%rbp)
   13196:	00 00 00 
   13199:	eb 1e                	jmp    131b9 <func_70+0x2b0>
   1319b:	8b 85 ac f9 ff ff    	mov    -0x654(%rbp),%eax
   131a1:	48 98                	cltq   
   131a3:	48 8d 15 8e 6e 00 00 	lea    0x6e8e(%rip),%rdx        # 1a038 <g_73>
   131aa:	48 89 94 c5 a0 fa ff 	mov    %rdx,-0x560(%rbp,%rax,8)
   131b1:	ff 
   131b2:	83 85 ac f9 ff ff 01 	addl   $0x1,-0x654(%rbp)
   131b9:	83 bd ac f9 ff ff 03 	cmpl   $0x3,-0x654(%rbp)
   131c0:	7e d9                	jle    1319b <func_70+0x292>
   131c2:	66 c7 85 9c f9 ff ff 	movw   $0x0,-0x664(%rbp)
   131c9:	00 00 
   131cb:	e9 92 05 00 00       	jmpq   13762 <func_70+0x859>
   131d0:	48 8d 85 a0 fe ff ff 	lea    -0x160(%rbp),%rax
   131d7:	48 8d 15 e2 2b 00 00 	lea    0x2be2(%rip),%rdx        # 15dc0 <g_182+0xd6c>
   131de:	b9 2a 00 00 00       	mov    $0x2a,%ecx
   131e3:	48 89 c7             	mov    %rax,%rdi
   131e6:	48 89 d6             	mov    %rdx,%rsi
   131e9:	f3 48 a5             	rep movsq %ds:(%rsi),%es:(%rdi)
   131ec:	c7 85 bc f9 ff ff 00 	movl   $0x0,-0x644(%rbp)
   131f3:	00 00 00 
   131f6:	48 8d 85 60 fd ff ff 	lea    -0x2a0(%rbp),%rax
   131fd:	48 8d 15 1c 2d 00 00 	lea    0x2d1c(%rip),%rdx        # 15f20 <g_182+0xecc>
   13204:	b9 28 00 00 00       	mov    $0x28,%ecx
   13209:	48 89 c7             	mov    %rax,%rdi
   1320c:	48 89 d6             	mov    %rdx,%rsi
   1320f:	f3 48 a5             	rep movsq %ds:(%rsi),%es:(%rdi)
   13212:	48 8d 05 47 6e 00 00 	lea    0x6e47(%rip),%rax        # 1a060 <g_159>
   13219:	48 89 85 48 fa ff ff 	mov    %rax,-0x5b8(%rbp)
   13220:	c6 85 a3 f9 ff ff 01 	movb   $0x1,-0x65d(%rbp)
   13227:	48 8d 05 ca 8e 00 00 	lea    0x8eca(%rip),%rax        # 1c0f8 <g_197>
   1322e:	48 89 85 d0 f9 ff ff 	mov    %rax,-0x630(%rbp)
   13235:	48 8d 85 d0 f9 ff ff 	lea    -0x630(%rbp),%rax
   1323c:	48 89 85 d8 f9 ff ff 	mov    %rax,-0x628(%rbp)
   13243:	48 8d 85 d8 f9 ff ff 	lea    -0x628(%rbp),%rax
   1324a:	48 89 85 50 fa ff ff 	mov    %rax,-0x5b0(%rbp)
   13251:	48 8d 05 90 8e 00 00 	lea    0x8e90(%rip),%rax        # 1c0e8 <g_15>
   13258:	48 89 85 58 fa ff ff 	mov    %rax,-0x5a8(%rbp)
   1325f:	48 8d 85 50 fb ff ff 	lea    -0x4b0(%rbp),%rax
   13266:	48 83 c0 78          	add    $0x78,%rax
   1326a:	48 89 85 e0 fb ff ff 	mov    %rax,-0x420(%rbp)
   13271:	48 8d 85 50 fb ff ff 	lea    -0x4b0(%rbp),%rax
   13278:	48 83 c0 78          	add    $0x78,%rax
   1327c:	48 89 85 e8 fb ff ff 	mov    %rax,-0x418(%rbp)
   13283:	48 8d 05 a2 6d 00 00 	lea    0x6da2(%rip),%rax        # 1a02c <g_9>
   1328a:	48 89 85 f0 fb ff ff 	mov    %rax,-0x410(%rbp)
   13291:	48 8d 05 a0 6d 00 00 	lea    0x6da0(%rip),%rax        # 1a038 <g_73>
   13298:	48 89 85 f8 fb ff ff 	mov    %rax,-0x408(%rbp)
   1329f:	48 8d 85 50 fb ff ff 	lea    -0x4b0(%rbp),%rax
   132a6:	48 83 c0 54          	add    $0x54,%rax
   132aa:	48 89 85 00 fc ff ff 	mov    %rax,-0x400(%rbp)
   132b1:	48 8d 05 80 6d 00 00 	lea    0x6d80(%rip),%rax        # 1a038 <g_73>
   132b8:	48 89 85 08 fc ff ff 	mov    %rax,-0x3f8(%rbp)
   132bf:	48 8d 05 66 6d 00 00 	lea    0x6d66(%rip),%rax        # 1a02c <g_9>
   132c6:	48 89 85 10 fc ff ff 	mov    %rax,-0x3f0(%rbp)
   132cd:	48 8d 05 50 6d 00 00 	lea    0x6d50(%rip),%rax        # 1a024 <g_2>
   132d4:	48 89 85 18 fc ff ff 	mov    %rax,-0x3e8(%rbp)
   132db:	48 8d 05 42 6d 00 00 	lea    0x6d42(%rip),%rax        # 1a024 <g_2>
   132e2:	48 89 85 20 fc ff ff 	mov    %rax,-0x3e0(%rbp)
   132e9:	48 8d 05 3c 6d 00 00 	lea    0x6d3c(%rip),%rax        # 1a02c <g_9>
   132f0:	48 89 85 28 fc ff ff 	mov    %rax,-0x3d8(%rbp)
   132f7:	48 8d 05 3a 6d 00 00 	lea    0x6d3a(%rip),%rax        # 1a038 <g_73>
   132fe:	48 89 85 30 fc ff ff 	mov    %rax,-0x3d0(%rbp)
   13305:	48 8d 85 50 fb ff ff 	lea    -0x4b0(%rbp),%rax
   1330c:	48 83 c0 54          	add    $0x54,%rax
   13310:	48 89 85 38 fc ff ff 	mov    %rax,-0x3c8(%rbp)
   13317:	48 8d 05 1a 6d 00 00 	lea    0x6d1a(%rip),%rax        # 1a038 <g_73>
   1331e:	48 89 85 40 fc ff ff 	mov    %rax,-0x3c0(%rbp)
   13325:	48 8d 05 00 6d 00 00 	lea    0x6d00(%rip),%rax        # 1a02c <g_9>
   1332c:	48 89 85 48 fc ff ff 	mov    %rax,-0x3b8(%rbp)
   13333:	48 8d 05 ea 6c 00 00 	lea    0x6cea(%rip),%rax        # 1a024 <g_2>
   1333a:	48 89 85 50 fc ff ff 	mov    %rax,-0x3b0(%rbp)
   13341:	48 8d 05 dc 6c 00 00 	lea    0x6cdc(%rip),%rax        # 1a024 <g_2>
   13348:	48 89 85 58 fc ff ff 	mov    %rax,-0x3a8(%rbp)
   1334f:	48 8d 05 d6 6c 00 00 	lea    0x6cd6(%rip),%rax        # 1a02c <g_9>
   13356:	48 89 85 60 fc ff ff 	mov    %rax,-0x3a0(%rbp)
   1335d:	48 8d 05 d4 6c 00 00 	lea    0x6cd4(%rip),%rax        # 1a038 <g_73>
   13364:	48 89 85 68 fc ff ff 	mov    %rax,-0x398(%rbp)
   1336b:	48 8d 85 50 fb ff ff 	lea    -0x4b0(%rbp),%rax
   13372:	48 83 c0 54          	add    $0x54,%rax
   13376:	48 89 85 70 fc ff ff 	mov    %rax,-0x390(%rbp)
   1337d:	48 8d 05 b4 6c 00 00 	lea    0x6cb4(%rip),%rax        # 1a038 <g_73>
   13384:	48 89 85 78 fc ff ff 	mov    %rax,-0x388(%rbp)
   1338b:	48 c7 05 9a 6c 00 00 	movq   $0x0,0x6c9a(%rip)        # 1a030 <g_19>
   13392:	00 00 00 00 
   13396:	e9 76 03 00 00       	jmpq   13711 <func_70+0x808>
   1339b:	48 8d 85 c0 fa ff ff 	lea    -0x540(%rbp),%rax
   133a2:	48 83 c0 10          	add    $0x10,%rax
   133a6:	48 89 85 e0 f9 ff ff 	mov    %rax,-0x620(%rbp)
   133ad:	48 8d 85 e0 f9 ff ff 	lea    -0x620(%rbp),%rax
   133b4:	48 89 85 60 fa ff ff 	mov    %rax,-0x5a0(%rbp)
   133bb:	66 c7 85 a4 f9 ff ff 	movw   $0xfce6,-0x65c(%rbp)
   133c2:	e6 fc 
   133c4:	48 8d 85 a4 f9 ff ff 	lea    -0x65c(%rbp),%rax
   133cb:	48 89 85 68 fa ff ff 	mov    %rax,-0x598(%rbp)
   133d2:	48 8d 05 53 6c 00 00 	lea    0x6c53(%rip),%rax        # 1a02c <g_9>
   133d9:	48 89 85 00 fb ff ff 	mov    %rax,-0x500(%rbp)
   133e0:	48 8d 05 45 6c 00 00 	lea    0x6c45(%rip),%rax        # 1a02c <g_9>
   133e7:	48 89 85 08 fb ff ff 	mov    %rax,-0x4f8(%rbp)
   133ee:	48 8d 05 37 6c 00 00 	lea    0x6c37(%rip),%rax        # 1a02c <g_9>
   133f5:	48 89 85 10 fb ff ff 	mov    %rax,-0x4f0(%rbp)
   133fc:	48 8d 05 29 6c 00 00 	lea    0x6c29(%rip),%rax        # 1a02c <g_9>
   13403:	48 89 85 18 fb ff ff 	mov    %rax,-0x4e8(%rbp)
   1340a:	48 8d 05 1b 6c 00 00 	lea    0x6c1b(%rip),%rax        # 1a02c <g_9>
   13411:	48 89 85 20 fb ff ff 	mov    %rax,-0x4e0(%rbp)
   13418:	48 8d 05 0d 6c 00 00 	lea    0x6c0d(%rip),%rax        # 1a02c <g_9>
   1341f:	48 89 85 28 fb ff ff 	mov    %rax,-0x4d8(%rbp)
   13426:	48 8d 05 ff 6b 00 00 	lea    0x6bff(%rip),%rax        # 1a02c <g_9>
   1342d:	48 89 85 30 fb ff ff 	mov    %rax,-0x4d0(%rbp)
   13434:	48 8d 05 f1 6b 00 00 	lea    0x6bf1(%rip),%rax        # 1a02c <g_9>
   1343b:	48 89 85 38 fb ff ff 	mov    %rax,-0x4c8(%rbp)
   13442:	48 8d 05 e3 6b 00 00 	lea    0x6be3(%rip),%rax        # 1a02c <g_9>
   13449:	48 89 85 40 fb ff ff 	mov    %rax,-0x4c0(%rbp)
   13450:	48 c7 85 70 fa ff ff 	movq   $0x0,-0x590(%rbp)
   13457:	00 00 00 00 
   1345b:	48 8d 05 e6 6b 00 00 	lea    0x6be6(%rip),%rax        # 1a048 <g_121>
   13462:	48 89 85 78 fa ff ff 	mov    %rax,-0x588(%rbp)
   13469:	48 8d 05 da 6b 00 00 	lea    0x6bda(%rip),%rax        # 1a04a <g_124>
   13470:	48 89 85 80 fa ff ff 	mov    %rax,-0x580(%rbp)
   13477:	48 8d 05 ba 6b 00 00 	lea    0x6bba(%rip),%rax        # 1a038 <g_73>
   1347e:	48 89 85 88 fa ff ff 	mov    %rax,-0x578(%rbp)
   13485:	66 c7 85 aa f9 ff ff 	movw   $0x6,-0x656(%rbp)
   1348c:	06 00 
   1348e:	48 8d 85 60 fd ff ff 	lea    -0x2a0(%rbp),%rax
   13495:	48 05 18 01 00 00    	add    $0x118,%rax
   1349b:	48 89 85 90 fa ff ff 	mov    %rax,-0x570(%rbp)
   134a2:	48 8d 05 4f 8c 00 00 	lea    0x8c4f(%rip),%rax        # 1c0f8 <g_197>
   134a9:	48 89 85 98 fa ff ff 	mov    %rax,-0x568(%rbp)
   134b0:	c7 85 80 fc ff ff 65 	movl   $0x40ad0065,-0x380(%rbp)
   134b7:	00 ad 40 
   134ba:	c7 85 84 fc ff ff 15 	movl   $0x68e3bd15,-0x37c(%rbp)
   134c1:	bd e3 68 
   134c4:	c7 85 88 fc ff ff fd 	movl   $0xfffffffd,-0x378(%rbp)
   134cb:	ff ff ff 
   134ce:	c7 85 8c fc ff ff fd 	movl   $0xfffffffd,-0x374(%rbp)
   134d5:	ff ff ff 
   134d8:	c7 85 90 fc ff ff 15 	movl   $0x68e3bd15,-0x370(%rbp)
   134df:	bd e3 68 
   134e2:	c7 85 94 fc ff ff 65 	movl   $0x40ad0065,-0x36c(%rbp)
   134e9:	00 ad 40 
   134ec:	c7 85 98 fc ff ff 15 	movl   $0x68e3bd15,-0x368(%rbp)
   134f3:	bd e3 68 
   134f6:	c7 85 9c fc ff ff fd 	movl   $0xfffffffd,-0x364(%rbp)
   134fd:	ff ff ff 
   13500:	c7 85 a0 fc ff ff fd 	movl   $0xfffffffd,-0x360(%rbp)
   13507:	ff ff ff 
   1350a:	c7 85 a4 fc ff ff 15 	movl   $0x68e3bd15,-0x35c(%rbp)
   13511:	bd e3 68 
   13514:	c7 85 a8 fc ff ff 65 	movl   $0x40ad0065,-0x358(%rbp)
   1351b:	00 ad 40 
   1351e:	c7 85 ac fc ff ff 15 	movl   $0x68e3bd15,-0x354(%rbp)
   13525:	bd e3 68 
   13528:	c7 85 b0 fc ff ff fd 	movl   $0xfffffffd,-0x350(%rbp)
   1352f:	ff ff ff 
   13532:	c7 85 b4 fc ff ff fd 	movl   $0xfffffffd,-0x34c(%rbp)
   13539:	ff ff ff 
   1353c:	c7 85 b8 fc ff ff 15 	movl   $0x68e3bd15,-0x348(%rbp)
   13543:	bd e3 68 
   13546:	c7 85 bc fc ff ff 65 	movl   $0x40ad0065,-0x344(%rbp)
   1354d:	00 ad 40 
   13550:	c7 85 c0 fc ff ff 15 	movl   $0x68e3bd15,-0x340(%rbp)
   13557:	bd e3 68 
   1355a:	c7 85 c4 fc ff ff fd 	movl   $0xfffffffd,-0x33c(%rbp)
   13561:	ff ff ff 
   13564:	c7 85 c8 fc ff ff fd 	movl   $0xfffffffd,-0x338(%rbp)
   1356b:	ff ff ff 
   1356e:	c7 85 cc fc ff ff 15 	movl   $0x68e3bd15,-0x334(%rbp)
   13575:	bd e3 68 
   13578:	c7 85 d0 fc ff ff 65 	movl   $0x40ad0065,-0x330(%rbp)
   1357f:	00 ad 40 
   13582:	c7 85 d4 fc ff ff 15 	movl   $0x68e3bd15,-0x32c(%rbp)
   13589:	bd e3 68 
   1358c:	c7 85 d8 fc ff ff fd 	movl   $0xfffffffd,-0x328(%rbp)
   13593:	ff ff ff 
   13596:	c7 85 dc fc ff ff fd 	movl   $0xfffffffd,-0x324(%rbp)
   1359d:	ff ff ff 
   135a0:	c7 85 e0 fc ff ff 15 	movl   $0x68e3bd15,-0x320(%rbp)
   135a7:	bd e3 68 
   135aa:	c7 85 e4 fc ff ff 65 	movl   $0x40ad0065,-0x31c(%rbp)
   135b1:	00 ad 40 
   135b4:	c7 85 e8 fc ff ff 15 	movl   $0x68e3bd15,-0x318(%rbp)
   135bb:	bd e3 68 
   135be:	c7 85 ec fc ff ff fd 	movl   $0xfffffffd,-0x314(%rbp)
   135c5:	ff ff ff 
   135c8:	c7 85 f0 fc ff ff fd 	movl   $0xfffffffd,-0x310(%rbp)
   135cf:	ff ff ff 
   135d2:	c7 85 f4 fc ff ff 15 	movl   $0x68e3bd15,-0x30c(%rbp)
   135d9:	bd e3 68 
   135dc:	c7 85 f8 fc ff ff 65 	movl   $0x40ad0065,-0x308(%rbp)
   135e3:	00 ad 40 
   135e6:	c7 85 fc fc ff ff 15 	movl   $0x68e3bd15,-0x304(%rbp)
   135ed:	bd e3 68 
   135f0:	c7 85 00 fd ff ff fd 	movl   $0xfffffffd,-0x300(%rbp)
   135f7:	ff ff ff 
   135fa:	c7 85 04 fd ff ff fd 	movl   $0xfffffffd,-0x2fc(%rbp)
   13601:	ff ff ff 
   13604:	c7 85 08 fd ff ff 15 	movl   $0x68e3bd15,-0x2f8(%rbp)
   1360b:	bd e3 68 
   1360e:	c7 85 0c fd ff ff 65 	movl   $0x40ad0065,-0x2f4(%rbp)
   13615:	00 ad 40 
   13618:	c7 85 10 fd ff ff 15 	movl   $0x68e3bd15,-0x2f0(%rbp)
   1361f:	bd e3 68 
   13622:	c7 85 14 fd ff ff fd 	movl   $0xfffffffd,-0x2ec(%rbp)
   13629:	ff ff ff 
   1362c:	c7 85 18 fd ff ff fd 	movl   $0xfffffffd,-0x2e8(%rbp)
   13633:	ff ff ff 
   13636:	c7 85 1c fd ff ff 15 	movl   $0x68e3bd15,-0x2e4(%rbp)
   1363d:	bd e3 68 
   13640:	c7 85 20 fd ff ff 65 	movl   $0x40ad0065,-0x2e0(%rbp)
   13647:	00 ad 40 
   1364a:	c7 85 24 fd ff ff 15 	movl   $0x68e3bd15,-0x2dc(%rbp)
   13651:	bd e3 68 
   13654:	c7 85 28 fd ff ff fd 	movl   $0xfffffffd,-0x2d8(%rbp)
   1365b:	ff ff ff 
   1365e:	c7 85 2c fd ff ff fd 	movl   $0xfffffffd,-0x2d4(%rbp)
   13665:	ff ff ff 
   13668:	c7 85 30 fd ff ff 15 	movl   $0x68e3bd15,-0x2d0(%rbp)
   1366f:	bd e3 68 
   13672:	c7 85 34 fd ff ff 65 	movl   $0x40ad0065,-0x2cc(%rbp)
   13679:	00 ad 40 
   1367c:	c7 85 38 fd ff ff 15 	movl   $0x68e3bd15,-0x2c8(%rbp)
   13683:	bd e3 68 
   13686:	c7 85 3c fd ff ff fd 	movl   $0xfffffffd,-0x2c4(%rbp)
   1368d:	ff ff ff 
   13690:	c7 85 40 fd ff ff fd 	movl   $0xfffffffd,-0x2c0(%rbp)
   13697:	ff ff ff 
   1369a:	c7 85 44 fd ff ff 15 	movl   $0x68e3bd15,-0x2bc(%rbp)
   136a1:	bd e3 68 
   136a4:	c7 85 48 fd ff ff 65 	movl   $0x40ad0065,-0x2b8(%rbp)
   136ab:	00 ad 40 
   136ae:	c7 85 4c fd ff ff 15 	movl   $0x68e3bd15,-0x2b4(%rbp)
   136b5:	bd e3 68 
   136b8:	c7 85 50 fd ff ff fd 	movl   $0xfffffffd,-0x2b0(%rbp)
   136bf:	ff ff ff 
   136c2:	c7 85 54 fd ff ff fd 	movl   $0xfffffffd,-0x2ac(%rbp)
   136c9:	ff ff ff 
   136cc:	c7 85 b0 f9 ff ff 00 	movl   $0x0,-0x650(%rbp)
   136d3:	00 00 00 
   136d6:	eb 1e                	jmp    136f6 <func_70+0x7ed>
   136d8:	8b 85 b0 f9 ff ff    	mov    -0x650(%rbp),%eax
   136de:	48 98                	cltq   
   136e0:	48 8d 15 45 69 00 00 	lea    0x6945(%rip),%rdx        # 1a02c <g_9>
   136e7:	48 89 94 c5 c0 fa ff 	mov    %rdx,-0x540(%rbp,%rax,8)
   136ee:	ff 
   136ef:	83 85 b0 f9 ff ff 01 	addl   $0x1,-0x650(%rbp)
   136f6:	83 bd b0 f9 ff ff 07 	cmpl   $0x7,-0x650(%rbp)
   136fd:	7e d9                	jle    136d8 <func_70+0x7cf>
   136ff:	48 8b 05 2a 69 00 00 	mov    0x692a(%rip),%rax        # 1a030 <g_19>
   13706:	48 83 c0 01          	add    $0x1,%rax
   1370a:	48 89 05 1f 69 00 00 	mov    %rax,0x691f(%rip)        # 1a030 <g_19>
   13711:	48 8b 05 18 69 00 00 	mov    0x6918(%rip),%rax        # 1a030 <g_19>
   13718:	48 83 f8 05          	cmp    $0x5,%rax
   1371c:	0f 86 79 fc ff ff    	jbe    1339b <func_70+0x492>
   13722:	66 83 bd 98 f9 ff ff 	cmpw   $0x0,-0x668(%rbp)
   13729:	00 
   1372a:	75 46                	jne    13772 <func_70+0x869>
   1372c:	48 8b 85 58 fa ff ff 	mov    -0x5a8(%rbp),%rax
   13733:	48 8b 00             	mov    (%rax),%rax
   13736:	48 8b 00             	mov    (%rax),%rax
   13739:	8b 00                	mov    (%rax),%eax
   1373b:	85 c0                	test   %eax,%eax
   1373d:	75 36                	jne    13775 <func_70+0x86c>
   1373f:	48 8b 05 aa 6b 00 00 	mov    0x6baa(%rip),%rax        # 1a2f0 <g_303>
   13746:	48 83 c0 01          	add    $0x1,%rax
   1374a:	48 89 05 9f 6b 00 00 	mov    %rax,0x6b9f(%rip)        # 1a2f0 <g_303>
   13751:	0f b7 85 9c f9 ff ff 	movzwl -0x664(%rbp),%eax
   13758:	83 c0 01             	add    $0x1,%eax
   1375b:	66 89 85 9c f9 ff ff 	mov    %ax,-0x664(%rbp)
   13762:	66 83 bd 9c f9 ff ff 	cmpw   $0x36,-0x664(%rbp)
   13769:	36 
   1376a:	0f 85 60 fa ff ff    	jne    131d0 <func_70+0x2c7>
   13770:	eb 04                	jmp    13776 <func_70+0x86d>
   13772:	90                   	nop
   13773:	eb 01                	jmp    13776 <func_70+0x86d>
   13775:	90                   	nop
   13776:	48 8b 15 63 89 00 00 	mov    0x8963(%rip),%rdx        # 1c0e0 <g_16>
   1377d:	48 8b 05 5c 89 00 00 	mov    0x895c(%rip),%rax        # 1c0e0 <g_16>
   13784:	8b 12                	mov    (%rdx),%edx
   13786:	89 10                	mov    %edx,(%rax)
   13788:	66 83 ad a8 f9 ff ff 	subw   $0x1,-0x658(%rbp)
   1378f:	01 
   13790:	48 8d 05 51 89 00 00 	lea    0x8951(%rip),%rax        # 1c0e8 <g_15>
   13797:	48 8b 4d f8          	mov    -0x8(%rbp),%rcx
   1379b:	64 48 33 0c 25 28 00 	xor    %fs:0x28,%rcx
   137a2:	00 00 
   137a4:	74 05                	je     137ab <func_70+0x8a2>
   137a6:	e8 c5 48 ff ff       	callq  8070 <__stack_chk_fail@plt>
   137ab:	c9                   	leaveq 
   137ac:	c3                   	retq   

00000000000137ad <main>:
   137ad:	f3 0f 1e fa          	endbr64 
   137b1:	55                   	push   %rbp
   137b2:	48 89 e5             	mov    %rsp,%rbp
   137b5:	48 83 ec 20          	sub    $0x20,%rsp
   137b9:	89 7d ec             	mov    %edi,-0x14(%rbp)
   137bc:	48 89 75 e0          	mov    %rsi,-0x20(%rbp)
   137c0:	c7 45 fc 00 00 00 00 	movl   $0x0,-0x4(%rbp)
   137c7:	83 7d ec 02          	cmpl   $0x2,-0x14(%rbp)
   137cb:	75 25                	jne    137f2 <main+0x45>
   137cd:	48 8b 45 e0          	mov    -0x20(%rbp),%rax
   137d1:	48 83 c0 08          	add    $0x8,%rax
   137d5:	48 8b 00             	mov    (%rax),%rax
   137d8:	48 8d 35 81 28 00 00 	lea    0x2881(%rip),%rsi        # 16060 <g_182+0x100c>
   137df:	48 89 c7             	mov    %rax,%rdi
   137e2:	e8 a9 48 ff ff       	callq  8090 <strcmp@plt>
   137e7:	85 c0                	test   %eax,%eax
   137e9:	75 07                	jne    137f2 <main+0x45>
   137eb:	c7 45 fc 01 00 00 00 	movl   $0x1,-0x4(%rbp)
   137f2:	e8 92 49 ff ff       	callq  8189 <platform_main_begin>
   137f7:	e8 9c 5d ff ff       	callq  9598 <crc32_gentab>
   137fc:	e8 b4 5f ff ff       	callq  97b5 <func_1>
   13801:	8b 05 1d 68 00 00    	mov    0x681d(%rip),%eax        # 1a024 <g_2>
   13807:	48 98                	cltq   
   13809:	8b 55 fc             	mov    -0x4(%rbp),%edx
   1380c:	48 8d 35 4f 28 00 00 	lea    0x284f(%rip),%rsi        # 16062 <g_182+0x100e>
   13813:	48 89 c7             	mov    %rax,%rdi
   13816:	e8 d8 5e ff ff       	callq  96f3 <transparent_crc>
   1381b:	0f b6 05 06 68 00 00 	movzbl 0x6806(%rip),%eax        # 1a028 <g_7>
   13822:	48 0f be c0          	movsbq %al,%rax
   13826:	8b 55 fc             	mov    -0x4(%rbp),%edx
   13829:	48 8d 35 36 28 00 00 	lea    0x2836(%rip),%rsi        # 16066 <g_182+0x1012>
   13830:	48 89 c7             	mov    %rax,%rdi
   13833:	e8 bb 5e ff ff       	callq  96f3 <transparent_crc>
   13838:	8b 05 ee 67 00 00    	mov    0x67ee(%rip),%eax        # 1a02c <g_9>
   1383e:	48 98                	cltq   
   13840:	8b 55 fc             	mov    -0x4(%rbp),%edx
   13843:	48 8d 35 20 28 00 00 	lea    0x2820(%rip),%rsi        # 1606a <g_182+0x1016>
   1384a:	48 89 c7             	mov    %rax,%rdi
   1384d:	e8 a1 5e ff ff       	callq  96f3 <transparent_crc>
   13852:	48 8b 05 d7 67 00 00 	mov    0x67d7(%rip),%rax        # 1a030 <g_19>
   13859:	8b 55 fc             	mov    -0x4(%rbp),%edx
   1385c:	48 8d 35 0b 28 00 00 	lea    0x280b(%rip),%rsi        # 1606e <g_182+0x101a>
   13863:	48 89 c7             	mov    %rax,%rdi
   13866:	e8 88 5e ff ff       	callq  96f3 <transparent_crc>
   1386b:	0f b6 05 c6 67 00 00 	movzbl 0x67c6(%rip),%eax        # 1a038 <g_73>
   13872:	48 0f be c0          	movsbq %al,%rax
   13876:	8b 55 fc             	mov    -0x4(%rbp),%edx
   13879:	48 8d 35 f6 27 00 00 	lea    0x27f6(%rip),%rsi        # 16076 <g_182+0x1022>
   13880:	48 89 c7             	mov    %rax,%rdi
   13883:	e8 6b 5e ff ff       	callq  96f3 <transparent_crc>
   13888:	0f b6 05 a9 67 00 00 	movzbl 0x67a9(%rip),%eax        # 1a038 <g_73>
   1388f:	0f b6 c0             	movzbl %al,%eax
   13892:	8b 55 fc             	mov    -0x4(%rbp),%edx
   13895:	48 8d 35 e2 27 00 00 	lea    0x27e2(%rip),%rsi        # 1607e <g_182+0x102a>
   1389c:	48 89 c7             	mov    %rax,%rdi
   1389f:	e8 4f 5e ff ff       	callq  96f3 <transparent_crc>
   138a4:	48 8b 05 95 67 00 00 	mov    0x6795(%rip),%rax        # 1a040 <g_81>
   138ab:	48 89 c1             	mov    %rax,%rcx
   138ae:	8b 45 fc             	mov    -0x4(%rbp),%eax
   138b1:	89 c2                	mov    %eax,%edx
   138b3:	48 8d 35 cc 27 00 00 	lea    0x27cc(%rip),%rsi        # 16086 <g_182+0x1032>
   138ba:	48 89 cf             	mov    %rcx,%rdi
   138bd:	e8 31 5e ff ff       	callq  96f3 <transparent_crc>
   138c2:	0f b6 05 7f 67 00 00 	movzbl 0x677f(%rip),%eax        # 1a048 <g_121>
   138c9:	48 0f be c0          	movsbq %al,%rax
   138cd:	8b 55 fc             	mov    -0x4(%rbp),%edx
   138d0:	48 8d 35 b4 27 00 00 	lea    0x27b4(%rip),%rsi        # 1608b <g_182+0x1037>
   138d7:	48 89 c7             	mov    %rax,%rdi
   138da:	e8 14 5e ff ff       	callq  96f3 <transparent_crc>
   138df:	0f b7 05 64 67 00 00 	movzwl 0x6764(%rip),%eax        # 1a04a <g_124>
   138e6:	48 0f bf c0          	movswq %ax,%rax
   138ea:	8b 55 fc             	mov    -0x4(%rbp),%edx
   138ed:	48 8d 35 9d 27 00 00 	lea    0x279d(%rip),%rsi        # 16091 <g_182+0x103d>
   138f4:	48 89 c7             	mov    %rax,%rdi
   138f7:	e8 f7 5d ff ff       	callq  96f3 <transparent_crc>
   138fc:	8b 05 4a 67 00 00    	mov    0x674a(%rip),%eax        # 1a04c <g_126>
   13902:	48 98                	cltq   
   13904:	8b 55 fc             	mov    -0x4(%rbp),%edx
   13907:	48 8d 35 89 27 00 00 	lea    0x2789(%rip),%rsi        # 16097 <g_182+0x1043>
   1390e:	48 89 c7             	mov    %rax,%rdi
   13911:	e8 dd 5d ff ff       	callq  96f3 <transparent_crc>
   13916:	0f b6 05 33 67 00 00 	movzbl 0x6733(%rip),%eax        # 1a050 <g_145>
   1391d:	48 0f be c0          	movsbq %al,%rax
   13921:	8b 55 fc             	mov    -0x4(%rbp),%edx
   13924:	48 8d 35 72 27 00 00 	lea    0x2772(%rip),%rsi        # 1609d <g_182+0x1049>
   1392b:	48 89 c7             	mov    %rax,%rdi
   1392e:	e8 c0 5d ff ff       	callq  96f3 <transparent_crc>
   13933:	0f b6 05 16 67 00 00 	movzbl 0x6716(%rip),%eax        # 1a050 <g_145>
   1393a:	0f b6 c0             	movzbl %al,%eax
   1393d:	8b 55 fc             	mov    -0x4(%rbp),%edx
   13940:	48 8d 35 5f 27 00 00 	lea    0x275f(%rip),%rsi        # 160a6 <g_182+0x1052>
   13947:	48 89 c7             	mov    %rax,%rdi
   1394a:	e8 a4 5d ff ff       	callq  96f3 <transparent_crc>
   1394f:	48 8b 05 02 67 00 00 	mov    0x6702(%rip),%rax        # 1a058 <g_147>
   13956:	8b 55 fc             	mov    -0x4(%rbp),%edx
   13959:	48 8d 35 4f 27 00 00 	lea    0x274f(%rip),%rsi        # 160af <g_182+0x105b>
   13960:	48 89 c7             	mov    %rax,%rdi
   13963:	e8 8b 5d ff ff       	callq  96f3 <transparent_crc>
   13968:	8b 05 f2 66 00 00    	mov    0x66f2(%rip),%eax        # 1a060 <g_159>
   1396e:	89 c1                	mov    %eax,%ecx
   13970:	8b 45 fc             	mov    -0x4(%rbp),%eax
   13973:	89 c2                	mov    %eax,%edx
   13975:	48 8d 35 39 27 00 00 	lea    0x2739(%rip),%rsi        # 160b5 <g_182+0x1061>
   1397c:	48 89 cf             	mov    %rcx,%rdi
   1397f:	e8 6f 5d ff ff       	callq  96f3 <transparent_crc>
   13984:	c7 45 f0 00 00 00 00 	movl   $0x0,-0x10(%rbp)
   1398b:	e9 b4 00 00 00       	jmpq   13a44 <main+0x297>
   13990:	c7 45 f4 00 00 00 00 	movl   $0x0,-0xc(%rbp)
   13997:	e9 9a 00 00 00       	jmpq   13a36 <main+0x289>
   1399c:	c7 45 f8 00 00 00 00 	movl   $0x0,-0x8(%rbp)
   139a3:	e9 80 00 00 00       	jmpq   13a28 <main+0x27b>
   139a8:	8b 45 f8             	mov    -0x8(%rbp),%eax
   139ab:	48 63 f0             	movslq %eax,%rsi
   139ae:	8b 45 f0             	mov    -0x10(%rbp),%eax
   139b1:	48 63 d0             	movslq %eax,%rdx
   139b4:	8b 45 f4             	mov    -0xc(%rbp),%eax
   139b7:	48 63 c8             	movslq %eax,%rcx
   139ba:	48 89 d0             	mov    %rdx,%rax
   139bd:	48 01 c0             	add    %rax,%rax
   139c0:	48 01 d0             	add    %rdx,%rax
   139c3:	48 8d 14 c5 00 00 00 	lea    0x0(,%rax,8),%rdx
   139ca:	00 
   139cb:	48 01 d0             	add    %rdx,%rax
   139ce:	48 89 ca             	mov    %rcx,%rdx
   139d1:	48 01 d2             	add    %rdx,%rdx
   139d4:	48 01 ca             	add    %rcx,%rdx
   139d7:	48 01 d0             	add    %rdx,%rax
   139da:	48 01 f0             	add    %rsi,%rax
   139dd:	48 8d 14 c5 00 00 00 	lea    0x0(,%rax,8),%rdx
   139e4:	00 
   139e5:	48 8d 05 94 66 00 00 	lea    0x6694(%rip),%rax        # 1a080 <g_161>
   139ec:	48 8b 04 02          	mov    (%rdx,%rax,1),%rax
   139f0:	8b 55 fc             	mov    -0x4(%rbp),%edx
   139f3:	48 8d 35 c1 26 00 00 	lea    0x26c1(%rip),%rsi        # 160bb <g_182+0x1067>
   139fa:	48 89 c7             	mov    %rax,%rdi
   139fd:	e8 f1 5c ff ff       	callq  96f3 <transparent_crc>
   13a02:	83 7d fc 00          	cmpl   $0x0,-0x4(%rbp)
   13a06:	74 1c                	je     13a24 <main+0x277>
   13a08:	8b 4d f8             	mov    -0x8(%rbp),%ecx
   13a0b:	8b 55 f4             	mov    -0xc(%rbp),%edx
   13a0e:	8b 45 f0             	mov    -0x10(%rbp),%eax
   13a11:	89 c6                	mov    %eax,%esi
   13a13:	48 8d 3d b0 26 00 00 	lea    0x26b0(%rip),%rdi        # 160ca <g_182+0x1076>
   13a1a:	b8 00 00 00 00       	mov    $0x0,%eax
   13a1f:	e8 5c 46 ff ff       	callq  8080 <printf@plt>
   13a24:	83 45 f8 01          	addl   $0x1,-0x8(%rbp)
   13a28:	83 7d f8 02          	cmpl   $0x2,-0x8(%rbp)
   13a2c:	0f 8e 76 ff ff ff    	jle    139a8 <main+0x1fb>
   13a32:	83 45 f4 01          	addl   $0x1,-0xc(%rbp)
   13a36:	83 7d f4 08          	cmpl   $0x8,-0xc(%rbp)
   13a3a:	0f 8e 5c ff ff ff    	jle    1399c <main+0x1ef>
   13a40:	83 45 f0 01          	addl   $0x1,-0x10(%rbp)
   13a44:	83 7d f0 00          	cmpl   $0x0,-0x10(%rbp)
   13a48:	0f 8e 42 ff ff ff    	jle    13990 <main+0x1e3>
   13a4e:	b8 00 00 00 00       	mov    $0x0,%eax
   13a53:	89 c1                	mov    %eax,%ecx
   13a55:	8b 45 fc             	mov    -0x4(%rbp),%eax
   13a58:	89 c2                	mov    %eax,%edx
   13a5a:	48 8d 35 7f 26 00 00 	lea    0x267f(%rip),%rsi        # 160e0 <g_182+0x108c>
   13a61:	48 89 cf             	mov    %rcx,%rdi
   13a64:	e8 8a 5c ff ff       	callq  96f3 <transparent_crc>
   13a69:	8b 05 e9 66 00 00    	mov    0x66e9(%rip),%eax        # 1a158 <g_185>
   13a6f:	89 c1                	mov    %eax,%ecx
   13a71:	8b 45 fc             	mov    -0x4(%rbp),%eax
   13a74:	89 c2                	mov    %eax,%edx
   13a76:	48 8d 35 69 26 00 00 	lea    0x2669(%rip),%rsi        # 160e6 <g_182+0x1092>
   13a7d:	48 89 cf             	mov    %rcx,%rdi
   13a80:	e8 6e 5c ff ff       	callq  96f3 <transparent_crc>
   13a85:	0f b6 05 d0 66 00 00 	movzbl 0x66d0(%rip),%eax        # 1a15c <g_193>
   13a8c:	48 0f be c0          	movsbq %al,%rax
   13a90:	8b 55 fc             	mov    -0x4(%rbp),%edx
   13a93:	48 8d 35 52 26 00 00 	lea    0x2652(%rip),%rsi        # 160ec <g_182+0x1098>
   13a9a:	48 89 c7             	mov    %rax,%rdi
   13a9d:	e8 51 5c ff ff       	callq  96f3 <transparent_crc>
   13aa2:	8b 05 b8 66 00 00    	mov    0x66b8(%rip),%eax        # 1a160 <g_194>
   13aa8:	89 c1                	mov    %eax,%ecx
   13aaa:	8b 45 fc             	mov    -0x4(%rbp),%eax
   13aad:	89 c2                	mov    %eax,%edx
   13aaf:	48 8d 35 3c 26 00 00 	lea    0x263c(%rip),%rsi        # 160f2 <g_182+0x109e>
   13ab6:	48 89 cf             	mov    %rcx,%rdi
   13ab9:	e8 35 5c ff ff       	callq  96f3 <transparent_crc>
   13abe:	48 8b 05 4b 9c 00 00 	mov    0x9c4b(%rip),%rax        # 1d710 <g_284>
   13ac5:	8b 55 fc             	mov    -0x4(%rbp),%edx
   13ac8:	48 8d 35 29 26 00 00 	lea    0x2629(%rip),%rsi        # 160f8 <g_182+0x10a4>
   13acf:	48 89 c7             	mov    %rax,%rdi
   13ad2:	e8 1c 5c ff ff       	callq  96f3 <transparent_crc>
   13ad7:	48 8b 05 8a 66 00 00 	mov    0x668a(%rip),%rax        # 1a168 <g_290>
   13ade:	48 89 c1             	mov    %rax,%rcx
   13ae1:	8b 45 fc             	mov    -0x4(%rbp),%eax
   13ae4:	89 c2                	mov    %eax,%edx
   13ae6:	48 8d 35 14 26 00 00 	lea    0x2614(%rip),%rsi        # 16101 <g_182+0x10ad>
   13aed:	48 89 cf             	mov    %rcx,%rdi
   13af0:	e8 fe 5b ff ff       	callq  96f3 <transparent_crc>
   13af5:	8b 05 75 66 00 00    	mov    0x6675(%rip),%eax        # 1a170 <g_292>
   13afb:	48 98                	cltq   
   13afd:	8b 55 fc             	mov    -0x4(%rbp),%edx
   13b00:	48 8d 35 00 26 00 00 	lea    0x2600(%rip),%rsi        # 16107 <g_182+0x10b3>
   13b07:	48 89 c7             	mov    %rax,%rdi
   13b0a:	e8 e4 5b ff ff       	callq  96f3 <transparent_crc>
   13b0f:	c7 45 f0 00 00 00 00 	movl   $0x0,-0x10(%rbp)
   13b16:	e9 af 00 00 00       	jmpq   13bca <main+0x41d>
   13b1b:	c7 45 f4 00 00 00 00 	movl   $0x0,-0xc(%rbp)
   13b22:	e9 95 00 00 00       	jmpq   13bbc <main+0x40f>
   13b27:	c7 45 f8 00 00 00 00 	movl   $0x0,-0x8(%rbp)
   13b2e:	eb 7e                	jmp    13bae <main+0x401>
   13b30:	8b 45 f8             	mov    -0x8(%rbp),%eax
   13b33:	48 63 f0             	movslq %eax,%rsi
   13b36:	8b 45 f0             	mov    -0x10(%rbp),%eax
   13b39:	48 98                	cltq   
   13b3b:	8b 55 f4             	mov    -0xc(%rbp),%edx
   13b3e:	48 63 ca             	movslq %edx,%rcx
   13b41:	48 89 c2             	mov    %rax,%rdx
   13b44:	48 c1 e2 03          	shl    $0x3,%rdx
   13b48:	48 01 c2             	add    %rax,%rdx
   13b4b:	48 8d 04 12          	lea    (%rdx,%rdx,1),%rax
   13b4f:	48 89 c2             	mov    %rax,%rdx
   13b52:	48 89 c8             	mov    %rcx,%rax
   13b55:	48 01 c0             	add    %rax,%rax
   13b58:	48 01 c8             	add    %rcx,%rax
   13b5b:	48 01 c0             	add    %rax,%rax
   13b5e:	48 01 d0             	add    %rdx,%rax
   13b61:	48 01 f0             	add    %rsi,%rax
   13b64:	48 8d 14 00          	lea    (%rax,%rax,1),%rdx
   13b68:	48 8d 05 11 66 00 00 	lea    0x6611(%rip),%rax        # 1a180 <g_293>
   13b6f:	0f b7 04 02          	movzwl (%rdx,%rax,1),%eax
   13b73:	0f b7 c0             	movzwl %ax,%eax
   13b76:	8b 55 fc             	mov    -0x4(%rbp),%edx
   13b79:	48 8d 35 8d 25 00 00 	lea    0x258d(%rip),%rsi        # 1610d <g_182+0x10b9>
   13b80:	48 89 c7             	mov    %rax,%rdi
   13b83:	e8 6b 5b ff ff       	callq  96f3 <transparent_crc>
   13b88:	83 7d fc 00          	cmpl   $0x0,-0x4(%rbp)
   13b8c:	74 1c                	je     13baa <main+0x3fd>
   13b8e:	8b 4d f8             	mov    -0x8(%rbp),%ecx
   13b91:	8b 55 f4             	mov    -0xc(%rbp),%edx
   13b94:	8b 45 f0             	mov    -0x10(%rbp),%eax
   13b97:	89 c6                	mov    %eax,%esi
   13b99:	48 8d 3d 2a 25 00 00 	lea    0x252a(%rip),%rdi        # 160ca <g_182+0x1076>
   13ba0:	b8 00 00 00 00       	mov    $0x0,%eax
   13ba5:	e8 d6 44 ff ff       	callq  8080 <printf@plt>
   13baa:	83 45 f8 01          	addl   $0x1,-0x8(%rbp)
   13bae:	83 7d f8 05          	cmpl   $0x5,-0x8(%rbp)
   13bb2:	0f 8e 78 ff ff ff    	jle    13b30 <main+0x383>
   13bb8:	83 45 f4 01          	addl   $0x1,-0xc(%rbp)
   13bbc:	83 7d f4 02          	cmpl   $0x2,-0xc(%rbp)
   13bc0:	0f 8e 61 ff ff ff    	jle    13b27 <main+0x37a>
   13bc6:	83 45 f0 01          	addl   $0x1,-0x10(%rbp)
   13bca:	83 7d f0 09          	cmpl   $0x9,-0x10(%rbp)
   13bce:	0f 8e 47 ff ff ff    	jle    13b1b <main+0x36e>
   13bd4:	0f b7 05 3d 9b 00 00 	movzwl 0x9b3d(%rip),%eax        # 1d718 <g_300>
   13bdb:	48 0f bf c0          	movswq %ax,%rax
   13bdf:	8b 55 fc             	mov    -0x4(%rbp),%edx
   13be2:	48 8d 35 33 25 00 00 	lea    0x2533(%rip),%rsi        # 1611c <g_182+0x10c8>
   13be9:	48 89 c7             	mov    %rax,%rdi
   13bec:	e8 02 5b ff ff       	callq  96f3 <transparent_crc>
   13bf1:	8b 05 f1 66 00 00    	mov    0x66f1(%rip),%eax        # 1a2e8 <g_302>
   13bf7:	48 98                	cltq   
   13bf9:	8b 55 fc             	mov    -0x4(%rbp),%edx
   13bfc:	48 8d 35 1f 25 00 00 	lea    0x251f(%rip),%rsi        # 16122 <g_182+0x10ce>
   13c03:	48 89 c7             	mov    %rax,%rdi
   13c06:	e8 e8 5a ff ff       	callq  96f3 <transparent_crc>
   13c0b:	48 8b 05 de 66 00 00 	mov    0x66de(%rip),%rax        # 1a2f0 <g_303>
   13c12:	8b 55 fc             	mov    -0x4(%rbp),%edx
   13c15:	48 8d 35 0c 25 00 00 	lea    0x250c(%rip),%rsi        # 16128 <g_182+0x10d4>
   13c1c:	48 89 c7             	mov    %rax,%rdi
   13c1f:	e8 cf 5a ff ff       	callq  96f3 <transparent_crc>
   13c24:	0f b7 05 cd 66 00 00 	movzwl 0x66cd(%rip),%eax        # 1a2f8 <g_346>
   13c2b:	48 0f bf c0          	movswq %ax,%rax
   13c2f:	8b 55 fc             	mov    -0x4(%rbp),%edx
   13c32:	48 8d 35 f5 24 00 00 	lea    0x24f5(%rip),%rsi        # 1612e <g_182+0x10da>
   13c39:	48 89 c7             	mov    %rax,%rdi
   13c3c:	e8 b2 5a ff ff       	callq  96f3 <transparent_crc>
   13c41:	0f b6 05 b8 66 00 00 	movzbl 0x66b8(%rip),%eax        # 1a300 <g_427>
   13c48:	48 0f be c0          	movsbq %al,%rax
   13c4c:	8b 55 fc             	mov    -0x4(%rbp),%edx
   13c4f:	48 8d 35 de 24 00 00 	lea    0x24de(%rip),%rsi        # 16134 <g_182+0x10e0>
   13c56:	48 89 c7             	mov    %rax,%rdi
   13c59:	e8 95 5a ff ff       	callq  96f3 <transparent_crc>
   13c5e:	0f b6 05 9b 66 00 00 	movzbl 0x669b(%rip),%eax        # 1a300 <g_427>
   13c65:	0f b6 c0             	movzbl %al,%eax
   13c68:	8b 55 fc             	mov    -0x4(%rbp),%edx
   13c6b:	48 8d 35 cb 24 00 00 	lea    0x24cb(%rip),%rsi        # 1613d <g_182+0x10e9>
   13c72:	48 89 c7             	mov    %rax,%rdi
   13c75:	e8 79 5a ff ff       	callq  96f3 <transparent_crc>
   13c7a:	8b 05 88 66 00 00    	mov    0x6688(%rip),%eax        # 1a308 <g_435>
   13c80:	48 98                	cltq   
   13c82:	8b 55 fc             	mov    -0x4(%rbp),%edx
   13c85:	48 8d 35 ba 24 00 00 	lea    0x24ba(%rip),%rsi        # 16146 <g_182+0x10f2>
   13c8c:	48 89 c7             	mov    %rax,%rdi
   13c8f:	e8 5f 5a ff ff       	callq  96f3 <transparent_crc>
   13c94:	0f b6 05 71 66 00 00 	movzbl 0x6671(%rip),%eax        # 1a30c <g_569>
   13c9b:	0f b6 c0             	movzbl %al,%eax
   13c9e:	8b 55 fc             	mov    -0x4(%rbp),%edx
   13ca1:	48 8d 35 a4 24 00 00 	lea    0x24a4(%rip),%rsi        # 1614c <g_182+0x10f8>
   13ca8:	48 89 c7             	mov    %rax,%rdi
   13cab:	e8 43 5a ff ff       	callq  96f3 <transparent_crc>
   13cb0:	0f b6 05 59 66 00 00 	movzbl 0x6659(%rip),%eax        # 1a310 <g_640>
   13cb7:	48 0f be c0          	movsbq %al,%rax
   13cbb:	8b 55 fc             	mov    -0x4(%rbp),%edx
   13cbe:	48 8d 35 8d 24 00 00 	lea    0x248d(%rip),%rsi        # 16152 <g_182+0x10fe>
   13cc5:	48 89 c7             	mov    %rax,%rdi
   13cc8:	e8 26 5a ff ff       	callq  96f3 <transparent_crc>
   13ccd:	0f b6 05 3c 66 00 00 	movzbl 0x663c(%rip),%eax        # 1a310 <g_640>
   13cd4:	0f b6 c0             	movzbl %al,%eax
   13cd7:	8b 55 fc             	mov    -0x4(%rbp),%edx
   13cda:	48 8d 35 7a 24 00 00 	lea    0x247a(%rip),%rsi        # 1615b <g_182+0x1107>
   13ce1:	48 89 c7             	mov    %rax,%rdi
   13ce4:	e8 0a 5a ff ff       	callq  96f3 <transparent_crc>
   13ce9:	8b 05 29 66 00 00    	mov    0x6629(%rip),%eax        # 1a318 <g_661>
   13cef:	89 c1                	mov    %eax,%ecx
   13cf1:	8b 45 fc             	mov    -0x4(%rbp),%eax
   13cf4:	89 c2                	mov    %eax,%edx
   13cf6:	48 8d 35 67 24 00 00 	lea    0x2467(%rip),%rsi        # 16164 <g_182+0x1110>
   13cfd:	48 89 cf             	mov    %rcx,%rdi
   13d00:	e8 ee 59 ff ff       	callq  96f3 <transparent_crc>
   13d05:	c7 45 f0 00 00 00 00 	movl   $0x0,-0x10(%rbp)
   13d0c:	eb 76                	jmp    13d84 <main+0x5d7>
   13d0e:	c7 45 f4 00 00 00 00 	movl   $0x0,-0xc(%rbp)
   13d15:	eb 63                	jmp    13d7a <main+0x5cd>
   13d17:	8b 45 f4             	mov    -0xc(%rbp),%eax
   13d1a:	48 63 c8             	movslq %eax,%rcx
   13d1d:	8b 45 f0             	mov    -0x10(%rbp),%eax
   13d20:	48 63 d0             	movslq %eax,%rdx
   13d23:	48 89 d0             	mov    %rdx,%rax
   13d26:	48 c1 e0 02          	shl    $0x2,%rax
   13d2a:	48 01 d0             	add    %rdx,%rax
   13d2d:	48 01 c0             	add    %rax,%rax
   13d30:	48 01 c8             	add    %rcx,%rax
   13d33:	48 8d 14 00          	lea    (%rax,%rax,1),%rdx
   13d37:	48 8d 05 e2 65 00 00 	lea    0x65e2(%rip),%rax        # 1a320 <g_683>
   13d3e:	0f b7 04 02          	movzwl (%rdx,%rax,1),%eax
   13d42:	0f b7 c0             	movzwl %ax,%eax
   13d45:	8b 55 fc             	mov    -0x4(%rbp),%edx
   13d48:	48 8d 35 1b 24 00 00 	lea    0x241b(%rip),%rsi        # 1616a <g_182+0x1116>
   13d4f:	48 89 c7             	mov    %rax,%rdi
   13d52:	e8 9c 59 ff ff       	callq  96f3 <transparent_crc>
   13d57:	83 7d fc 00          	cmpl   $0x0,-0x4(%rbp)
   13d5b:	74 19                	je     13d76 <main+0x5c9>
   13d5d:	8b 55 f4             	mov    -0xc(%rbp),%edx
   13d60:	8b 45 f0             	mov    -0x10(%rbp),%eax
   13d63:	89 c6                	mov    %eax,%esi
   13d65:	48 8d 3d 0a 24 00 00 	lea    0x240a(%rip),%rdi        # 16176 <g_182+0x1122>
   13d6c:	b8 00 00 00 00       	mov    $0x0,%eax
   13d71:	e8 0a 43 ff ff       	callq  8080 <printf@plt>
   13d76:	83 45 f4 01          	addl   $0x1,-0xc(%rbp)
   13d7a:	83 7d f4 09          	cmpl   $0x9,-0xc(%rbp)
   13d7e:	7e 97                	jle    13d17 <main+0x56a>
   13d80:	83 45 f0 01          	addl   $0x1,-0x10(%rbp)
   13d84:	83 7d f0 09          	cmpl   $0x9,-0x10(%rbp)
   13d88:	7e 84                	jle    13d0e <main+0x561>
   13d8a:	0f b6 05 57 66 00 00 	movzbl 0x6657(%rip),%eax        # 1a3e8 <g_719>
   13d91:	0f b6 c0             	movzbl %al,%eax
   13d94:	8b 55 fc             	mov    -0x4(%rbp),%edx
   13d97:	48 8d 35 ea 23 00 00 	lea    0x23ea(%rip),%rsi        # 16188 <g_182+0x1134>
   13d9e:	48 89 c7             	mov    %rax,%rdi
   13da1:	e8 4d 59 ff ff       	callq  96f3 <transparent_crc>
   13da6:	0f b7 05 3d 66 00 00 	movzwl 0x663d(%rip),%eax        # 1a3ea <g_846>
   13dad:	48 0f bf c0          	movswq %ax,%rax
   13db1:	8b 55 fc             	mov    -0x4(%rbp),%edx
   13db4:	48 8d 35 d3 23 00 00 	lea    0x23d3(%rip),%rsi        # 1618e <g_182+0x113a>
   13dbb:	48 89 c7             	mov    %rax,%rdi
   13dbe:	e8 30 59 ff ff       	callq  96f3 <transparent_crc>
   13dc3:	0f b7 05 22 66 00 00 	movzwl 0x6622(%rip),%eax        # 1a3ec <g_850>
   13dca:	48 0f bf c0          	movswq %ax,%rax
   13dce:	8b 55 fc             	mov    -0x4(%rbp),%edx
   13dd1:	48 8d 35 bc 23 00 00 	lea    0x23bc(%rip),%rsi        # 16194 <g_182+0x1140>
   13dd8:	48 89 c7             	mov    %rax,%rdi
   13ddb:	e8 13 59 ff ff       	callq  96f3 <transparent_crc>
   13de0:	0f b7 05 07 66 00 00 	movzwl 0x6607(%rip),%eax        # 1a3ee <g_853>
   13de7:	48 0f bf c0          	movswq %ax,%rax
   13deb:	8b 55 fc             	mov    -0x4(%rbp),%edx
   13dee:	48 8d 35 a5 23 00 00 	lea    0x23a5(%rip),%rsi        # 1619a <g_182+0x1146>
   13df5:	48 89 c7             	mov    %rax,%rdi
   13df8:	e8 f6 58 ff ff       	callq  96f3 <transparent_crc>
   13dfd:	c7 45 f0 00 00 00 00 	movl   $0x0,-0x10(%rbp)
   13e04:	eb 4f                	jmp    13e55 <main+0x6a8>
   13e06:	8b 45 f0             	mov    -0x10(%rbp),%eax
   13e09:	48 98                	cltq   
   13e0b:	48 8d 14 c5 00 00 00 	lea    0x0(,%rax,8),%rdx
   13e12:	00 
   13e13:	48 8d 05 e6 65 00 00 	lea    0x65e6(%rip),%rax        # 1a400 <g_854>
   13e1a:	48 8b 04 02          	mov    (%rdx,%rax,1),%rax
   13e1e:	48 89 c1             	mov    %rax,%rcx
   13e21:	8b 45 fc             	mov    -0x4(%rbp),%eax
   13e24:	89 c2                	mov    %eax,%edx
   13e26:	48 8d 35 73 23 00 00 	lea    0x2373(%rip),%rsi        # 161a0 <g_182+0x114c>
   13e2d:	48 89 cf             	mov    %rcx,%rdi
   13e30:	e8 be 58 ff ff       	callq  96f3 <transparent_crc>
   13e35:	83 7d fc 00          	cmpl   $0x0,-0x4(%rbp)
   13e39:	74 16                	je     13e51 <main+0x6a4>
   13e3b:	8b 45 f0             	mov    -0x10(%rbp),%eax
   13e3e:	89 c6                	mov    %eax,%esi
   13e40:	48 8d 3d 62 23 00 00 	lea    0x2362(%rip),%rdi        # 161a9 <g_182+0x1155>
   13e47:	b8 00 00 00 00       	mov    $0x0,%eax
   13e4c:	e8 2f 42 ff ff       	callq  8080 <printf@plt>
   13e51:	83 45 f0 01          	addl   $0x1,-0x10(%rbp)
   13e55:	83 7d f0 06          	cmpl   $0x6,-0x10(%rbp)
   13e59:	7e ab                	jle    13e06 <main+0x659>
   13e5b:	0f b7 05 d6 65 00 00 	movzwl 0x65d6(%rip),%eax        # 1a438 <g_855>
   13e62:	48 0f bf c0          	movswq %ax,%rax
   13e66:	8b 55 fc             	mov    -0x4(%rbp),%edx
   13e69:	48 8d 35 47 23 00 00 	lea    0x2347(%rip),%rsi        # 161b7 <g_182+0x1163>
   13e70:	48 89 c7             	mov    %rax,%rdi
   13e73:	e8 7b 58 ff ff       	callq  96f3 <transparent_crc>
   13e78:	c7 45 f0 00 00 00 00 	movl   $0x0,-0x10(%rbp)
   13e7f:	eb 4d                	jmp    13ece <main+0x721>
   13e81:	8b 45 f0             	mov    -0x10(%rbp),%eax
   13e84:	48 98                	cltq   
   13e86:	48 8d 14 85 00 00 00 	lea    0x0(,%rax,4),%rdx
   13e8d:	00 
   13e8e:	48 8d 05 a7 65 00 00 	lea    0x65a7(%rip),%rax        # 1a43c <g_856>
   13e95:	8b 04 02             	mov    (%rdx,%rax,1),%eax
   13e98:	89 c1                	mov    %eax,%ecx
   13e9a:	8b 45 fc             	mov    -0x4(%rbp),%eax
   13e9d:	89 c2                	mov    %eax,%edx
   13e9f:	48 8d 35 17 23 00 00 	lea    0x2317(%rip),%rsi        # 161bd <g_182+0x1169>
   13ea6:	48 89 cf             	mov    %rcx,%rdi
   13ea9:	e8 45 58 ff ff       	callq  96f3 <transparent_crc>
   13eae:	83 7d fc 00          	cmpl   $0x0,-0x4(%rbp)
   13eb2:	74 16                	je     13eca <main+0x71d>
   13eb4:	8b 45 f0             	mov    -0x10(%rbp),%eax
   13eb7:	89 c6                	mov    %eax,%esi
   13eb9:	48 8d 3d e9 22 00 00 	lea    0x22e9(%rip),%rdi        # 161a9 <g_182+0x1155>
   13ec0:	b8 00 00 00 00       	mov    $0x0,%eax
   13ec5:	e8 b6 41 ff ff       	callq  8080 <printf@plt>
   13eca:	83 45 f0 01          	addl   $0x1,-0x10(%rbp)
   13ece:	83 7d f0 00          	cmpl   $0x0,-0x10(%rbp)
   13ed2:	7e ad                	jle    13e81 <main+0x6d4>
   13ed4:	8b 05 66 65 00 00    	mov    0x6566(%rip),%eax        # 1a440 <g_879>
   13eda:	89 c1                	mov    %eax,%ecx
   13edc:	8b 45 fc             	mov    -0x4(%rbp),%eax
   13edf:	89 c2                	mov    %eax,%edx
   13ee1:	48 8d 35 de 22 00 00 	lea    0x22de(%rip),%rsi        # 161c6 <g_182+0x1172>
   13ee8:	48 89 cf             	mov    %rcx,%rdi
   13eeb:	e8 03 58 ff ff       	callq  96f3 <transparent_crc>
   13ef0:	0f b6 05 4d 65 00 00 	movzbl 0x654d(%rip),%eax        # 1a444 <g_979>
   13ef7:	0f b6 c0             	movzbl %al,%eax
   13efa:	8b 55 fc             	mov    -0x4(%rbp),%edx
   13efd:	48 8d 35 c8 22 00 00 	lea    0x22c8(%rip),%rsi        # 161cc <g_182+0x1178>
   13f04:	48 89 c7             	mov    %rax,%rdi
   13f07:	e8 e7 57 ff ff       	callq  96f3 <transparent_crc>
   13f0c:	c7 45 f0 00 00 00 00 	movl   $0x0,-0x10(%rbp)
   13f13:	e9 9c 00 00 00       	jmpq   13fb4 <main+0x807>
   13f18:	c7 45 f4 00 00 00 00 	movl   $0x0,-0xc(%rbp)
   13f1f:	e9 82 00 00 00       	jmpq   13fa6 <main+0x7f9>
   13f24:	c7 45 f8 00 00 00 00 	movl   $0x0,-0x8(%rbp)
   13f2b:	eb 6f                	jmp    13f9c <main+0x7ef>
   13f2d:	8b 45 f8             	mov    -0x8(%rbp),%eax
   13f30:	48 98                	cltq   
   13f32:	8b 55 f0             	mov    -0x10(%rbp),%edx
   13f35:	48 63 ca             	movslq %edx,%rcx
   13f38:	8b 55 f4             	mov    -0xc(%rbp),%edx
   13f3b:	48 63 d2             	movslq %edx,%rdx
   13f3e:	48 c1 e1 03          	shl    $0x3,%rcx
   13f42:	48 01 ca             	add    %rcx,%rdx
   13f45:	48 c1 e2 02          	shl    $0x2,%rdx
   13f49:	48 01 d0             	add    %rdx,%rax
   13f4c:	48 8d 14 c5 00 00 00 	lea    0x0(,%rax,8),%rdx
   13f53:	00 
   13f54:	48 8d 05 05 65 00 00 	lea    0x6505(%rip),%rax        # 1a460 <g_1047>
   13f5b:	48 8b 04 02          	mov    (%rdx,%rax,1),%rax
   13f5f:	48 89 c1             	mov    %rax,%rcx
   13f62:	8b 45 fc             	mov    -0x4(%rbp),%eax
   13f65:	89 c2                	mov    %eax,%edx
   13f67:	48 8d 35 64 22 00 00 	lea    0x2264(%rip),%rsi        # 161d2 <g_182+0x117e>
   13f6e:	48 89 cf             	mov    %rcx,%rdi
   13f71:	e8 7d 57 ff ff       	callq  96f3 <transparent_crc>
   13f76:	83 7d fc 00          	cmpl   $0x0,-0x4(%rbp)
   13f7a:	74 1c                	je     13f98 <main+0x7eb>
   13f7c:	8b 4d f8             	mov    -0x8(%rbp),%ecx
   13f7f:	8b 55 f4             	mov    -0xc(%rbp),%edx
   13f82:	8b 45 f0             	mov    -0x10(%rbp),%eax
   13f85:	89 c6                	mov    %eax,%esi
   13f87:	48 8d 3d 3c 21 00 00 	lea    0x213c(%rip),%rdi        # 160ca <g_182+0x1076>
   13f8e:	b8 00 00 00 00       	mov    $0x0,%eax
   13f93:	e8 e8 40 ff ff       	callq  8080 <printf@plt>
   13f98:	83 45 f8 01          	addl   $0x1,-0x8(%rbp)
   13f9c:	83 7d f8 03          	cmpl   $0x3,-0x8(%rbp)
   13fa0:	7e 8b                	jle    13f2d <main+0x780>
   13fa2:	83 45 f4 01          	addl   $0x1,-0xc(%rbp)
   13fa6:	83 7d f4 07          	cmpl   $0x7,-0xc(%rbp)
   13faa:	0f 8e 74 ff ff ff    	jle    13f24 <main+0x777>
   13fb0:	83 45 f0 01          	addl   $0x1,-0x10(%rbp)
   13fb4:	83 7d f0 06          	cmpl   $0x6,-0x10(%rbp)
   13fb8:	0f 8e 5a ff ff ff    	jle    13f18 <main+0x76b>
   13fbe:	48 8b 05 9b 6b 00 00 	mov    0x6b9b(%rip),%rax        # 1ab60 <g_1049>
   13fc5:	48 89 c1             	mov    %rax,%rcx
   13fc8:	8b 45 fc             	mov    -0x4(%rbp),%eax
   13fcb:	89 c2                	mov    %eax,%edx
   13fcd:	48 8d 35 0e 22 00 00 	lea    0x220e(%rip),%rsi        # 161e2 <g_182+0x118e>
   13fd4:	48 89 cf             	mov    %rcx,%rdi
   13fd7:	e8 17 57 ff ff       	callq  96f3 <transparent_crc>
   13fdc:	48 8b 05 85 6b 00 00 	mov    0x6b85(%rip),%rax        # 1ab68 <g_1051>
   13fe3:	8b 55 fc             	mov    -0x4(%rbp),%edx
   13fe6:	48 8d 35 fc 21 00 00 	lea    0x21fc(%rip),%rsi        # 161e9 <g_182+0x1195>
   13fed:	48 89 c7             	mov    %rax,%rdi
   13ff0:	e8 fe 56 ff ff       	callq  96f3 <transparent_crc>
   13ff5:	8b 05 75 6b 00 00    	mov    0x6b75(%rip),%eax        # 1ab70 <g_1055>
   13ffb:	89 c1                	mov    %eax,%ecx
   13ffd:	8b 45 fc             	mov    -0x4(%rbp),%eax
   14000:	89 c2                	mov    %eax,%edx
   14002:	48 8d 35 e7 21 00 00 	lea    0x21e7(%rip),%rsi        # 161f0 <g_182+0x119c>
   14009:	48 89 cf             	mov    %rcx,%rdi
   1400c:	e8 e2 56 ff ff       	callq  96f3 <transparent_crc>
   14011:	8b 05 5d 6b 00 00    	mov    0x6b5d(%rip),%eax        # 1ab74 <g_1141>
   14017:	48 98                	cltq   
   14019:	8b 55 fc             	mov    -0x4(%rbp),%edx
   1401c:	48 8d 35 d4 21 00 00 	lea    0x21d4(%rip),%rsi        # 161f7 <g_182+0x11a3>
   14023:	48 89 c7             	mov    %rax,%rdi
   14026:	e8 c8 56 ff ff       	callq  96f3 <transparent_crc>
   1402b:	0f b6 05 46 6b 00 00 	movzbl 0x6b46(%rip),%eax        # 1ab78 <g_1360>
   14032:	48 0f be c0          	movsbq %al,%rax
   14036:	8b 55 fc             	mov    -0x4(%rbp),%edx
   14039:	48 8d 35 be 21 00 00 	lea    0x21be(%rip),%rsi        # 161fe <g_182+0x11aa>
   14040:	48 89 c7             	mov    %rax,%rdi
   14043:	e8 ab 56 ff ff       	callq  96f3 <transparent_crc>
   14048:	8b 05 2e 6b 00 00    	mov    0x6b2e(%rip),%eax        # 1ab7c <g_1361>
   1404e:	48 98                	cltq   
   14050:	8b 55 fc             	mov    -0x4(%rbp),%edx
   14053:	48 8d 35 ab 21 00 00 	lea    0x21ab(%rip),%rsi        # 16205 <g_182+0x11b1>
   1405a:	48 89 c7             	mov    %rax,%rdi
   1405d:	e8 91 56 ff ff       	callq  96f3 <transparent_crc>
   14062:	8b 05 18 6b 00 00    	mov    0x6b18(%rip),%eax        # 1ab80 <g_1363>
   14068:	48 98                	cltq   
   1406a:	8b 55 fc             	mov    -0x4(%rbp),%edx
   1406d:	48 8d 35 98 21 00 00 	lea    0x2198(%rip),%rsi        # 1620c <g_182+0x11b8>
   14074:	48 89 c7             	mov    %rax,%rdi
   14077:	e8 77 56 ff ff       	callq  96f3 <transparent_crc>
   1407c:	8b 05 02 6b 00 00    	mov    0x6b02(%rip),%eax        # 1ab84 <g_1364>
   14082:	48 98                	cltq   
   14084:	8b 55 fc             	mov    -0x4(%rbp),%edx
   14087:	48 8d 35 85 21 00 00 	lea    0x2185(%rip),%rsi        # 16213 <g_182+0x11bf>
   1408e:	48 89 c7             	mov    %rax,%rdi
   14091:	e8 5d 56 ff ff       	callq  96f3 <transparent_crc>
   14096:	0f b7 05 eb 6a 00 00 	movzwl 0x6aeb(%rip),%eax        # 1ab88 <g_1365>
   1409d:	0f b7 c0             	movzwl %ax,%eax
   140a0:	8b 55 fc             	mov    -0x4(%rbp),%edx
   140a3:	48 8d 35 70 21 00 00 	lea    0x2170(%rip),%rsi        # 1621a <g_182+0x11c6>
   140aa:	48 89 c7             	mov    %rax,%rdi
   140ad:	e8 41 56 ff ff       	callq  96f3 <transparent_crc>
   140b2:	8b 05 d4 6a 00 00    	mov    0x6ad4(%rip),%eax        # 1ab8c <g_1425>
   140b8:	89 c1                	mov    %eax,%ecx
   140ba:	8b 45 fc             	mov    -0x4(%rbp),%eax
   140bd:	89 c2                	mov    %eax,%edx
   140bf:	48 8d 35 5b 21 00 00 	lea    0x215b(%rip),%rsi        # 16221 <g_182+0x11cd>
   140c6:	48 89 cf             	mov    %rcx,%rdi
   140c9:	e8 25 56 ff ff       	callq  96f3 <transparent_crc>
   140ce:	0f b6 05 bb 6a 00 00 	movzbl 0x6abb(%rip),%eax        # 1ab90 <g_1509>
   140d5:	48 0f be c0          	movsbq %al,%rax
   140d9:	8b 55 fc             	mov    -0x4(%rbp),%edx
   140dc:	48 8d 35 45 21 00 00 	lea    0x2145(%rip),%rsi        # 16228 <g_182+0x11d4>
   140e3:	48 89 c7             	mov    %rax,%rdi
   140e6:	e8 08 56 ff ff       	callq  96f3 <transparent_crc>
   140eb:	0f b6 05 9e 6a 00 00 	movzbl 0x6a9e(%rip),%eax        # 1ab90 <g_1509>
   140f2:	0f b6 c0             	movzbl %al,%eax
   140f5:	8b 55 fc             	mov    -0x4(%rbp),%edx
   140f8:	48 8d 35 33 21 00 00 	lea    0x2133(%rip),%rsi        # 16232 <g_182+0x11de>
   140ff:	48 89 c7             	mov    %rax,%rdi
   14102:	e8 ec 55 ff ff       	callq  96f3 <transparent_crc>
   14107:	48 8b 05 8a 6a 00 00 	mov    0x6a8a(%rip),%rax        # 1ab98 <g_1519>
   1410e:	48 89 c1             	mov    %rax,%rcx
   14111:	8b 45 fc             	mov    -0x4(%rbp),%eax
   14114:	89 c2                	mov    %eax,%edx
   14116:	48 8d 35 1f 21 00 00 	lea    0x211f(%rip),%rsi        # 1623c <g_182+0x11e8>
   1411d:	48 89 cf             	mov    %rcx,%rdi
   14120:	e8 ce 55 ff ff       	callq  96f3 <transparent_crc>
   14125:	48 8b 05 74 6a 00 00 	mov    0x6a74(%rip),%rax        # 1aba0 <g_1520>
   1412c:	48 89 c1             	mov    %rax,%rcx
   1412f:	8b 45 fc             	mov    -0x4(%rbp),%eax
   14132:	89 c2                	mov    %eax,%edx
   14134:	48 8d 35 08 21 00 00 	lea    0x2108(%rip),%rsi        # 16243 <g_182+0x11ef>
   1413b:	48 89 cf             	mov    %rcx,%rdi
   1413e:	e8 b0 55 ff ff       	callq  96f3 <transparent_crc>
   14143:	8b 05 5f 6a 00 00    	mov    0x6a5f(%rip),%eax        # 1aba8 <g_1521>
   14149:	89 c1                	mov    %eax,%ecx
   1414b:	8b 45 fc             	mov    -0x4(%rbp),%eax
   1414e:	89 c2                	mov    %eax,%edx
   14150:	48 8d 35 f3 20 00 00 	lea    0x20f3(%rip),%rsi        # 1624a <g_182+0x11f6>
   14157:	48 89 cf             	mov    %rcx,%rdi
   1415a:	e8 94 55 ff ff       	callq  96f3 <transparent_crc>
   1415f:	0f b7 05 46 6a 00 00 	movzwl 0x6a46(%rip),%eax        # 1abac <g_1542>
   14166:	0f b7 c0             	movzwl %ax,%eax
   14169:	8b 55 fc             	mov    -0x4(%rbp),%edx
   1416c:	48 8d 35 de 20 00 00 	lea    0x20de(%rip),%rsi        # 16251 <g_182+0x11fd>
   14173:	48 89 c7             	mov    %rax,%rdi
   14176:	e8 78 55 ff ff       	callq  96f3 <transparent_crc>
   1417b:	8b 05 2f 6a 00 00    	mov    0x6a2f(%rip),%eax        # 1abb0 <g_1562>
   14181:	48 98                	cltq   
   14183:	8b 55 fc             	mov    -0x4(%rbp),%edx
   14186:	48 8d 35 cb 20 00 00 	lea    0x20cb(%rip),%rsi        # 16258 <g_182+0x1204>
   1418d:	48 89 c7             	mov    %rax,%rdi
   14190:	e8 5e 55 ff ff       	callq  96f3 <transparent_crc>
   14195:	c7 45 f0 00 00 00 00 	movl   $0x0,-0x10(%rbp)
   1419c:	eb 6c                	jmp    1420a <main+0xa5d>
   1419e:	c7 45 f4 00 00 00 00 	movl   $0x0,-0xc(%rbp)
   141a5:	eb 59                	jmp    14200 <main+0xa53>
   141a7:	8b 45 f4             	mov    -0xc(%rbp),%eax
   141aa:	48 98                	cltq   
   141ac:	8b 55 f0             	mov    -0x10(%rbp),%edx
   141af:	48 63 d2             	movslq %edx,%rdx
   141b2:	48 c1 e2 02          	shl    $0x2,%rdx
   141b6:	48 01 d0             	add    %rdx,%rax
   141b9:	48 8d 14 00          	lea    (%rax,%rax,1),%rdx
   141bd:	48 8d 05 fc 69 00 00 	lea    0x69fc(%rip),%rax        # 1abc0 <g_1563>
   141c4:	0f b7 04 02          	movzwl (%rdx,%rax,1),%eax
   141c8:	0f b7 c0             	movzwl %ax,%eax
   141cb:	8b 55 fc             	mov    -0x4(%rbp),%edx
   141ce:	48 8d 35 8a 20 00 00 	lea    0x208a(%rip),%rsi        # 1625f <g_182+0x120b>
   141d5:	48 89 c7             	mov    %rax,%rdi
   141d8:	e8 16 55 ff ff       	callq  96f3 <transparent_crc>
   141dd:	83 7d fc 00          	cmpl   $0x0,-0x4(%rbp)
   141e1:	74 19                	je     141fc <main+0xa4f>
   141e3:	8b 55 f4             	mov    -0xc(%rbp),%edx
   141e6:	8b 45 f0             	mov    -0x10(%rbp),%eax
   141e9:	89 c6                	mov    %eax,%esi
   141eb:	48 8d 3d 84 1f 00 00 	lea    0x1f84(%rip),%rdi        # 16176 <g_182+0x1122>
   141f2:	b8 00 00 00 00       	mov    $0x0,%eax
   141f7:	e8 84 3e ff ff       	callq  8080 <printf@plt>
   141fc:	83 45 f4 01          	addl   $0x1,-0xc(%rbp)
   14200:	83 7d f4 03          	cmpl   $0x3,-0xc(%rbp)
   14204:	7e a1                	jle    141a7 <main+0x9fa>
   14206:	83 45 f0 01          	addl   $0x1,-0x10(%rbp)
   1420a:	83 7d f0 06          	cmpl   $0x6,-0x10(%rbp)
   1420e:	7e 8e                	jle    1419e <main+0x9f1>
   14210:	0f b6 05 e1 69 00 00 	movzbl 0x69e1(%rip),%eax        # 1abf8 <g_1605>
   14217:	48 0f be c0          	movsbq %al,%rax
   1421b:	8b 55 fc             	mov    -0x4(%rbp),%edx
   1421e:	48 8d 35 47 20 00 00 	lea    0x2047(%rip),%rsi        # 1626c <g_182+0x1218>
   14225:	48 89 c7             	mov    %rax,%rdi
   14228:	e8 c6 54 ff ff       	callq  96f3 <transparent_crc>
   1422d:	0f b6 05 c4 69 00 00 	movzbl 0x69c4(%rip),%eax        # 1abf8 <g_1605>
   14234:	0f b6 c0             	movzbl %al,%eax
   14237:	8b 55 fc             	mov    -0x4(%rbp),%edx
   1423a:	48 8d 35 35 20 00 00 	lea    0x2035(%rip),%rsi        # 16276 <g_182+0x1222>
   14241:	48 89 c7             	mov    %rax,%rdi
   14244:	e8 aa 54 ff ff       	callq  96f3 <transparent_crc>
   14249:	0f b7 05 08 95 00 00 	movzwl 0x9508(%rip),%eax        # 1d758 <g_1626>
   14250:	0f b7 c0             	movzwl %ax,%eax
   14253:	8b 55 fc             	mov    -0x4(%rbp),%edx
   14256:	48 8d 35 23 20 00 00 	lea    0x2023(%rip),%rsi        # 16280 <g_182+0x122c>
   1425d:	48 89 c7             	mov    %rax,%rdi
   14260:	e8 8e 54 ff ff       	callq  96f3 <transparent_crc>
   14265:	c7 45 f0 00 00 00 00 	movl   $0x0,-0x10(%rbp)
   1426c:	eb 45                	jmp    142b3 <main+0xb06>
   1426e:	8b 45 f0             	mov    -0x10(%rbp),%eax
   14271:	48 98                	cltq   
   14273:	48 8d 15 86 69 00 00 	lea    0x6986(%rip),%rdx        # 1ac00 <g_1672>
   1427a:	0f b6 04 10          	movzbl (%rax,%rdx,1),%eax
   1427e:	0f b6 c0             	movzbl %al,%eax
   14281:	8b 55 fc             	mov    -0x4(%rbp),%edx
   14284:	48 8d 35 fc 1f 00 00 	lea    0x1ffc(%rip),%rsi        # 16287 <g_182+0x1233>
   1428b:	48 89 c7             	mov    %rax,%rdi
   1428e:	e8 60 54 ff ff       	callq  96f3 <transparent_crc>
   14293:	83 7d fc 00          	cmpl   $0x0,-0x4(%rbp)
   14297:	74 16                	je     142af <main+0xb02>
   14299:	8b 45 f0             	mov    -0x10(%rbp),%eax
   1429c:	89 c6                	mov    %eax,%esi
   1429e:	48 8d 3d 04 1f 00 00 	lea    0x1f04(%rip),%rdi        # 161a9 <g_182+0x1155>
   142a5:	b8 00 00 00 00       	mov    $0x0,%eax
   142aa:	e8 d1 3d ff ff       	callq  8080 <printf@plt>
   142af:	83 45 f0 01          	addl   $0x1,-0x10(%rbp)
   142b3:	83 7d f0 07          	cmpl   $0x7,-0x10(%rbp)
   142b7:	7e b5                	jle    1426e <main+0xac1>
   142b9:	48 8b 05 48 69 00 00 	mov    0x6948(%rip),%rax        # 1ac08 <g_1760>
   142c0:	48 89 c1             	mov    %rax,%rcx
   142c3:	8b 45 fc             	mov    -0x4(%rbp),%eax
   142c6:	89 c2                	mov    %eax,%edx
   142c8:	48 8d 35 c2 1f 00 00 	lea    0x1fc2(%rip),%rsi        # 16291 <g_182+0x123d>
   142cf:	48 89 cf             	mov    %rcx,%rdi
   142d2:	e8 1c 54 ff ff       	callq  96f3 <transparent_crc>
   142d7:	8b 05 33 69 00 00    	mov    0x6933(%rip),%eax        # 1ac10 <g_1761>
   142dd:	89 c1                	mov    %eax,%ecx
   142df:	8b 45 fc             	mov    -0x4(%rbp),%eax
   142e2:	89 c2                	mov    %eax,%edx
   142e4:	48 8d 35 ad 1f 00 00 	lea    0x1fad(%rip),%rsi        # 16298 <g_182+0x1244>
   142eb:	48 89 cf             	mov    %rcx,%rdi
   142ee:	e8 00 54 ff ff       	callq  96f3 <transparent_crc>
   142f3:	c7 45 f0 00 00 00 00 	movl   $0x0,-0x10(%rbp)
   142fa:	eb 4f                	jmp    1434b <main+0xb9e>
   142fc:	8b 45 f0             	mov    -0x10(%rbp),%eax
   142ff:	48 98                	cltq   
   14301:	48 8d 14 c5 00 00 00 	lea    0x0(,%rax,8),%rdx
   14308:	00 
   14309:	48 8d 05 10 69 00 00 	lea    0x6910(%rip),%rax        # 1ac20 <g_1943>
   14310:	48 8b 04 02          	mov    (%rdx,%rax,1),%rax
   14314:	48 89 c1             	mov    %rax,%rcx
   14317:	8b 45 fc             	mov    -0x4(%rbp),%eax
   1431a:	89 c2                	mov    %eax,%edx
   1431c:	48 8d 35 7c 1f 00 00 	lea    0x1f7c(%rip),%rsi        # 1629f <g_182+0x124b>
   14323:	48 89 cf             	mov    %rcx,%rdi
   14326:	e8 c8 53 ff ff       	callq  96f3 <transparent_crc>
   1432b:	83 7d fc 00          	cmpl   $0x0,-0x4(%rbp)
   1432f:	74 16                	je     14347 <main+0xb9a>
   14331:	8b 45 f0             	mov    -0x10(%rbp),%eax
   14334:	89 c6                	mov    %eax,%esi
   14336:	48 8d 3d 6c 1e 00 00 	lea    0x1e6c(%rip),%rdi        # 161a9 <g_182+0x1155>
   1433d:	b8 00 00 00 00       	mov    $0x0,%eax
   14342:	e8 39 3d ff ff       	callq  8080 <printf@plt>
   14347:	83 45 f0 01          	addl   $0x1,-0x10(%rbp)
   1434b:	83 7d f0 02          	cmpl   $0x2,-0x10(%rbp)
   1434f:	7e ab                	jle    142fc <main+0xb4f>
   14351:	c7 45 f0 00 00 00 00 	movl   $0x0,-0x10(%rbp)
   14358:	eb 45                	jmp    1439f <main+0xbf2>
   1435a:	8b 45 f0             	mov    -0x10(%rbp),%eax
   1435d:	48 98                	cltq   
   1435f:	48 8d 15 d2 68 00 00 	lea    0x68d2(%rip),%rdx        # 1ac38 <g_1944>
   14366:	0f b6 04 10          	movzbl (%rax,%rdx,1),%eax
   1436a:	0f b6 c0             	movzbl %al,%eax
   1436d:	8b 55 fc             	mov    -0x4(%rbp),%edx
   14370:	48 8d 35 32 1f 00 00 	lea    0x1f32(%rip),%rsi        # 162a9 <g_182+0x1255>
   14377:	48 89 c7             	mov    %rax,%rdi
   1437a:	e8 74 53 ff ff       	callq  96f3 <transparent_crc>
   1437f:	83 7d fc 00          	cmpl   $0x0,-0x4(%rbp)
   14383:	74 16                	je     1439b <main+0xbee>
   14385:	8b 45 f0             	mov    -0x10(%rbp),%eax
   14388:	89 c6                	mov    %eax,%esi
   1438a:	48 8d 3d 18 1e 00 00 	lea    0x1e18(%rip),%rdi        # 161a9 <g_182+0x1155>
   14391:	b8 00 00 00 00       	mov    $0x0,%eax
   14396:	e8 e5 3c ff ff       	callq  8080 <printf@plt>
   1439b:	83 45 f0 01          	addl   $0x1,-0x10(%rbp)
   1439f:	83 7d f0 04          	cmpl   $0x4,-0x10(%rbp)
   143a3:	7e b5                	jle    1435a <main+0xbad>
   143a5:	8b 05 95 68 00 00    	mov    0x6895(%rip),%eax        # 1ac40 <g_1996>
   143ab:	48 98                	cltq   
   143ad:	8b 55 fc             	mov    -0x4(%rbp),%edx
   143b0:	48 8d 35 fc 1e 00 00 	lea    0x1efc(%rip),%rsi        # 162b3 <g_182+0x125f>
   143b7:	48 89 c7             	mov    %rax,%rdi
   143ba:	e8 34 53 ff ff       	callq  96f3 <transparent_crc>
   143bf:	48 8b 05 82 68 00 00 	mov    0x6882(%rip),%rax        # 1ac48 <g_2028>
   143c6:	8b 55 fc             	mov    -0x4(%rbp),%edx
   143c9:	48 8d 35 ea 1e 00 00 	lea    0x1eea(%rip),%rsi        # 162ba <g_182+0x1266>
   143d0:	48 89 c7             	mov    %rax,%rdi
   143d3:	e8 1b 53 ff ff       	callq  96f3 <transparent_crc>
   143d8:	0f b6 05 71 68 00 00 	movzbl 0x6871(%rip),%eax        # 1ac50 <g_2035>
   143df:	48 0f be c0          	movsbq %al,%rax
   143e3:	8b 55 fc             	mov    -0x4(%rbp),%edx
   143e6:	48 8d 35 d4 1e 00 00 	lea    0x1ed4(%rip),%rsi        # 162c1 <g_182+0x126d>
   143ed:	48 89 c7             	mov    %rax,%rdi
   143f0:	e8 fe 52 ff ff       	callq  96f3 <transparent_crc>
   143f5:	0f b6 05 54 68 00 00 	movzbl 0x6854(%rip),%eax        # 1ac50 <g_2035>
   143fc:	0f b6 c0             	movzbl %al,%eax
   143ff:	8b 55 fc             	mov    -0x4(%rbp),%edx
   14402:	48 8d 35 c2 1e 00 00 	lea    0x1ec2(%rip),%rsi        # 162cb <g_182+0x1277>
   14409:	48 89 c7             	mov    %rax,%rdi
   1440c:	e8 e2 52 ff ff       	callq  96f3 <transparent_crc>
   14411:	0f b6 05 48 93 00 00 	movzbl 0x9348(%rip),%eax        # 1d760 <g_2089>
   14418:	48 0f be c0          	movsbq %al,%rax
   1441c:	8b 55 fc             	mov    -0x4(%rbp),%edx
   1441f:	48 8d 35 af 1e 00 00 	lea    0x1eaf(%rip),%rsi        # 162d5 <g_182+0x1281>
   14426:	48 89 c7             	mov    %rax,%rdi
   14429:	e8 c5 52 ff ff       	callq  96f3 <transparent_crc>
   1442e:	0f b6 05 2b 93 00 00 	movzbl 0x932b(%rip),%eax        # 1d760 <g_2089>
   14435:	0f b6 c0             	movzbl %al,%eax
   14438:	8b 55 fc             	mov    -0x4(%rbp),%edx
   1443b:	48 8d 35 9d 1e 00 00 	lea    0x1e9d(%rip),%rsi        # 162df <g_182+0x128b>
   14442:	48 89 c7             	mov    %rax,%rdi
   14445:	e8 a9 52 ff ff       	callq  96f3 <transparent_crc>
   1444a:	0f b6 05 07 68 00 00 	movzbl 0x6807(%rip),%eax        # 1ac58 <g_2100>
   14451:	0f b6 c0             	movzbl %al,%eax
   14454:	8b 55 fc             	mov    -0x4(%rbp),%edx
   14457:	48 8d 35 8b 1e 00 00 	lea    0x1e8b(%rip),%rsi        # 162e9 <g_182+0x1295>
   1445e:	48 89 c7             	mov    %rax,%rdi
   14461:	e8 8d 52 ff ff       	callq  96f3 <transparent_crc>
   14466:	8b 05 b4 5b 00 00    	mov    0x5bb4(%rip),%eax        # 1a020 <crc32_context>
   1446c:	f7 d0                	not    %eax
   1446e:	89 c2                	mov    %eax,%edx
   14470:	8b 45 fc             	mov    -0x4(%rbp),%eax
   14473:	89 c6                	mov    %eax,%esi
   14475:	89 d7                	mov    %edx,%edi
   14477:	e8 18 3d ff ff       	callq  8194 <platform_main_end>
   1447c:	b8 00 00 00 00       	mov    $0x0,%eax
   14481:	c9                   	leaveq 
   14482:	c3                   	retq   
   14483:	66 2e 0f 1f 84 00 00 	nopw   %cs:0x0(%rax,%rax,1)
   1448a:	00 00 00 
   1448d:	0f 1f 00             	nopl   (%rax)

0000000000014490 <__libc_csu_init>:
   14490:	f3 0f 1e fa          	endbr64 
   14494:	41 57                	push   %r15
   14496:	4c 8d 3d 13 50 00 00 	lea    0x5013(%rip),%r15        # 194b0 <__frame_dummy_init_array_entry>
   1449d:	41 56                	push   %r14
   1449f:	49 89 d6             	mov    %rdx,%r14
   144a2:	41 55                	push   %r13
   144a4:	49 89 f5             	mov    %rsi,%r13
   144a7:	41 54                	push   %r12
   144a9:	41 89 fc             	mov    %edi,%r12d
   144ac:	55                   	push   %rbp
   144ad:	48 8d 2d 04 50 00 00 	lea    0x5004(%rip),%rbp        # 194b8 <__do_global_dtors_aux_fini_array_entry>
   144b4:	53                   	push   %rbx
   144b5:	4c 29 fd             	sub    %r15,%rbp
   144b8:	48 83 ec 08          	sub    $0x8,%rsp
   144bc:	e8 3f 3b ff ff       	callq  8000 <_init>
   144c1:	48 c1 fd 03          	sar    $0x3,%rbp
   144c5:	74 1f                	je     144e6 <__libc_csu_init+0x56>
   144c7:	31 db                	xor    %ebx,%ebx
   144c9:	0f 1f 80 00 00 00 00 	nopl   0x0(%rax)
   144d0:	4c 89 f2             	mov    %r14,%rdx
   144d3:	4c 89 ee             	mov    %r13,%rsi
   144d6:	44 89 e7             	mov    %r12d,%edi
   144d9:	41 ff 14 df          	callq  *(%r15,%rbx,8)
   144dd:	48 83 c3 01          	add    $0x1,%rbx
   144e1:	48 39 dd             	cmp    %rbx,%rbp
   144e4:	75 ea                	jne    144d0 <__libc_csu_init+0x40>
   144e6:	48 83 c4 08          	add    $0x8,%rsp
   144ea:	5b                   	pop    %rbx
   144eb:	5d                   	pop    %rbp
   144ec:	41 5c                	pop    %r12
   144ee:	41 5d                	pop    %r13
   144f0:	41 5e                	pop    %r14
   144f2:	41 5f                	pop    %r15
   144f4:	c3                   	retq   
   144f5:	66 66 2e 0f 1f 84 00 	data16 nopw %cs:0x0(%rax,%rax,1)
   144fc:	00 00 00 00 

0000000000014500 <__libc_csu_fini>:
   14500:	f3 0f 1e fa          	endbr64 
   14504:	c3                   	retq   
