


Disassembly of section .text:

00000000000070a0 <_start>:
    70a0:	f3 0f 1e fa          	endbr64 
    70a4:	31 ed                	xor    %ebp,%ebp
    70a6:	49 89 d1             	mov    %rdx,%r9
    70a9:	5e                   	pop    %rsi
    70aa:	48 89 e2             	mov    %rsp,%rdx
    70ad:	48 83 e4 f0          	and    $0xfffffffffffffff0,%rsp
    70b1:	50                   	push   %rax
    70b2:	54                   	push   %rsp
    70b3:	4c 8d 05 06 dc 00 00 	lea    0xdc06(%rip),%r8        # 14cc0 <__libc_csu_fini>
    70ba:	48 8d 0d 8f db 00 00 	lea    0xdb8f(%rip),%rcx        # 14c50 <__libc_csu_init>
    70c1:	48 8d 3d d1 d2 00 00 	lea    0xd2d1(%rip),%rdi        # 14399 <main>
    70c8:	ff 15 12 2f 01 00    	callq  *0x12f12(%rip)        # 19fe0 <__libc_start_main@GLIBC_2.2.5>
    70ce:	f4                   	hlt    
    70cf:	90                   	nop

00000000000070d0 <deregister_tm_clones>:
    70d0:	48 8d 3d 11 61 01 00 	lea    0x16111(%rip),%rdi        # 1d1e8 <__TMC_END__>
    70d7:	48 8d 05 0a 61 01 00 	lea    0x1610a(%rip),%rax        # 1d1e8 <__TMC_END__>
    70de:	48 39 f8             	cmp    %rdi,%rax
    70e1:	74 15                	je     70f8 <deregister_tm_clones+0x28>
    70e3:	48 8b 05 ee 2e 01 00 	mov    0x12eee(%rip),%rax        # 19fd8 <_ITM_deregisterTMCloneTable>
    70ea:	48 85 c0             	test   %rax,%rax
    70ed:	74 09                	je     70f8 <deregister_tm_clones+0x28>
    70ef:	ff e0                	jmpq   *%rax
    70f1:	0f 1f 80 00 00 00 00 	nopl   0x0(%rax)
    70f8:	c3                   	retq   
    70f9:	0f 1f 80 00 00 00 00 	nopl   0x0(%rax)

0000000000007100 <register_tm_clones>:
    7100:	48 8d 3d e1 60 01 00 	lea    0x160e1(%rip),%rdi        # 1d1e8 <__TMC_END__>
    7107:	48 8d 35 da 60 01 00 	lea    0x160da(%rip),%rsi        # 1d1e8 <__TMC_END__>
    710e:	48 29 fe             	sub    %rdi,%rsi
    7111:	48 89 f0             	mov    %rsi,%rax
    7114:	48 c1 ee 3f          	shr    $0x3f,%rsi
    7118:	48 c1 f8 03          	sar    $0x3,%rax
    711c:	48 01 c6             	add    %rax,%rsi
    711f:	48 d1 fe             	sar    %rsi
    7122:	74 14                	je     7138 <register_tm_clones+0x38>
    7124:	48 8b 05 c5 2e 01 00 	mov    0x12ec5(%rip),%rax        # 19ff0 <_ITM_registerTMCloneTable>
    712b:	48 85 c0             	test   %rax,%rax
    712e:	74 08                	je     7138 <register_tm_clones+0x38>
    7130:	ff e0                	jmpq   *%rax
    7132:	66 0f 1f 44 00 00    	nopw   0x0(%rax,%rax,1)
    7138:	c3                   	retq   
    7139:	0f 1f 80 00 00 00 00 	nopl   0x0(%rax)

0000000000007140 <__do_global_dtors_aux>:
    7140:	f3 0f 1e fa          	endbr64 
    7144:	80 3d b5 60 01 00 00 	cmpb   $0x0,0x160b5(%rip)        # 1d200 <completed.8061>
    714b:	75 2b                	jne    7178 <__do_global_dtors_aux+0x38>
    714d:	55                   	push   %rbp
    714e:	48 83 3d a2 2e 01 00 	cmpq   $0x0,0x12ea2(%rip)        # 19ff8 <__cxa_finalize@GLIBC_2.2.5>
    7155:	00 
    7156:	48 89 e5             	mov    %rsp,%rbp
    7159:	74 0c                	je     7167 <__do_global_dtors_aux+0x27>
    715b:	48 8b 3d a6 2e 01 00 	mov    0x12ea6(%rip),%rdi        # 1a008 <__dso_handle>
    7162:	e8 f9 fe ff ff       	callq  7060 <__cxa_finalize@plt>
    7167:	e8 64 ff ff ff       	callq  70d0 <deregister_tm_clones>
    716c:	c6 05 8d 60 01 00 01 	movb   $0x1,0x1608d(%rip)        # 1d200 <completed.8061>
    7173:	5d                   	pop    %rbp
    7174:	c3                   	retq   
    7175:	0f 1f 00             	nopl   (%rax)
    7178:	c3                   	retq   
    7179:	0f 1f 80 00 00 00 00 	nopl   0x0(%rax)

0000000000007180 <frame_dummy>:
    7180:	f3 0f 1e fa          	endbr64 
    7184:	e9 77 ff ff ff       	jmpq   7100 <register_tm_clones>

0000000000007189 <platform_main_begin>:
    7189:	f3 0f 1e fa          	endbr64 
    718d:	55                   	push   %rbp
    718e:	48 89 e5             	mov    %rsp,%rbp
    7191:	90                   	nop
    7192:	5d                   	pop    %rbp
    7193:	c3                   	retq   

0000000000007194 <platform_main_end>:
    7194:	f3 0f 1e fa          	endbr64 
    7198:	55                   	push   %rbp
    7199:	48 89 e5             	mov    %rsp,%rbp
    719c:	48 83 ec 10          	sub    $0x10,%rsp
    71a0:	89 7d fc             	mov    %edi,-0x4(%rbp)
    71a3:	89 75 f8             	mov    %esi,-0x8(%rbp)
    71a6:	8b 45 fc             	mov    -0x4(%rbp),%eax
    71a9:	89 c6                	mov    %eax,%esi
    71ab:	48 8d 3d 6e de 00 00 	lea    0xde6e(%rip),%rdi        # 15020 <_IO_stdin_used+0x20>
    71b2:	b8 00 00 00 00       	mov    $0x0,%eax
    71b7:	e8 c4 fe ff ff       	callq  7080 <printf@plt>
    71bc:	90                   	nop
    71bd:	c9                   	leaveq 
    71be:	c3                   	retq   

00000000000071bf <safe_unary_minus_func_int8_t_s>:
    71bf:	f3 0f 1e fa          	endbr64 
    71c3:	55                   	push   %rbp
    71c4:	48 89 e5             	mov    %rsp,%rbp
    71c7:	89 f8                	mov    %edi,%eax
    71c9:	88 45 fc             	mov    %al,-0x4(%rbp)
    71cc:	0f b6 45 fc          	movzbl -0x4(%rbp),%eax
    71d0:	f7 d8                	neg    %eax
    71d2:	5d                   	pop    %rbp
    71d3:	c3                   	retq   

00000000000071d4 <safe_add_func_int8_t_s_s>:
    71d4:	f3 0f 1e fa          	endbr64 
    71d8:	55                   	push   %rbp
    71d9:	48 89 e5             	mov    %rsp,%rbp
    71dc:	89 fa                	mov    %edi,%edx
    71de:	89 f0                	mov    %esi,%eax
    71e0:	88 55 fc             	mov    %dl,-0x4(%rbp)
    71e3:	88 45 f8             	mov    %al,-0x8(%rbp)
    71e6:	0f b6 55 fc          	movzbl -0x4(%rbp),%edx
    71ea:	0f b6 45 f8          	movzbl -0x8(%rbp),%eax
    71ee:	01 d0                	add    %edx,%eax
    71f0:	5d                   	pop    %rbp
    71f1:	c3                   	retq   

00000000000071f2 <safe_sub_func_int8_t_s_s>:
    71f2:	f3 0f 1e fa          	endbr64 
    71f6:	55                   	push   %rbp
    71f7:	48 89 e5             	mov    %rsp,%rbp
    71fa:	89 fa                	mov    %edi,%edx
    71fc:	89 f0                	mov    %esi,%eax
    71fe:	88 55 fc             	mov    %dl,-0x4(%rbp)
    7201:	88 45 f8             	mov    %al,-0x8(%rbp)
    7204:	0f b6 55 fc          	movzbl -0x4(%rbp),%edx
    7208:	0f b6 45 f8          	movzbl -0x8(%rbp),%eax
    720c:	29 c2                	sub    %eax,%edx
    720e:	89 d0                	mov    %edx,%eax
    7210:	5d                   	pop    %rbp
    7211:	c3                   	retq   

0000000000007212 <safe_mul_func_int8_t_s_s>:
    7212:	f3 0f 1e fa          	endbr64 
    7216:	55                   	push   %rbp
    7217:	48 89 e5             	mov    %rsp,%rbp
    721a:	89 fa                	mov    %edi,%edx
    721c:	89 f0                	mov    %esi,%eax
    721e:	88 55 fc             	mov    %dl,-0x4(%rbp)
    7221:	88 45 f8             	mov    %al,-0x8(%rbp)
    7224:	0f b6 45 fc          	movzbl -0x4(%rbp),%eax
    7228:	0f b6 55 f8          	movzbl -0x8(%rbp),%edx
    722c:	0f af c2             	imul   %edx,%eax
    722f:	5d                   	pop    %rbp
    7230:	c3                   	retq   

0000000000007231 <safe_mod_func_int8_t_s_s>:
    7231:	f3 0f 1e fa          	endbr64 
    7235:	55                   	push   %rbp
    7236:	48 89 e5             	mov    %rsp,%rbp
    7239:	89 fa                	mov    %edi,%edx
    723b:	89 f0                	mov    %esi,%eax
    723d:	88 55 fc             	mov    %dl,-0x4(%rbp)
    7240:	88 45 f8             	mov    %al,-0x8(%rbp)
    7243:	80 7d f8 00          	cmpb   $0x0,-0x8(%rbp)
    7247:	74 1b                	je     7264 <safe_mod_func_int8_t_s_s+0x33>
    7249:	80 7d fc 80          	cmpb   $0x80,-0x4(%rbp)
    724d:	75 06                	jne    7255 <safe_mod_func_int8_t_s_s+0x24>
    724f:	80 7d f8 ff          	cmpb   $0xff,-0x8(%rbp)
    7253:	74 0f                	je     7264 <safe_mod_func_int8_t_s_s+0x33>
    7255:	0f be 45 fc          	movsbl -0x4(%rbp),%eax
    7259:	0f be 4d f8          	movsbl -0x8(%rbp),%ecx
    725d:	99                   	cltd   
    725e:	f7 f9                	idiv   %ecx
    7260:	89 d0                	mov    %edx,%eax
    7262:	eb 04                	jmp    7268 <safe_mod_func_int8_t_s_s+0x37>
    7264:	0f b6 45 fc          	movzbl -0x4(%rbp),%eax
    7268:	5d                   	pop    %rbp
    7269:	c3                   	retq   

000000000000726a <safe_div_func_int8_t_s_s>:
    726a:	f3 0f 1e fa          	endbr64 
    726e:	55                   	push   %rbp
    726f:	48 89 e5             	mov    %rsp,%rbp
    7272:	89 fa                	mov    %edi,%edx
    7274:	89 f0                	mov    %esi,%eax
    7276:	88 55 fc             	mov    %dl,-0x4(%rbp)
    7279:	88 45 f8             	mov    %al,-0x8(%rbp)
    727c:	80 7d f8 00          	cmpb   $0x0,-0x8(%rbp)
    7280:	74 19                	je     729b <safe_div_func_int8_t_s_s+0x31>
    7282:	80 7d fc 80          	cmpb   $0x80,-0x4(%rbp)
    7286:	75 06                	jne    728e <safe_div_func_int8_t_s_s+0x24>
    7288:	80 7d f8 ff          	cmpb   $0xff,-0x8(%rbp)
    728c:	74 0d                	je     729b <safe_div_func_int8_t_s_s+0x31>
    728e:	0f be 45 fc          	movsbl -0x4(%rbp),%eax
    7292:	0f be 4d f8          	movsbl -0x8(%rbp),%ecx
    7296:	99                   	cltd   
    7297:	f7 f9                	idiv   %ecx
    7299:	eb 04                	jmp    729f <safe_div_func_int8_t_s_s+0x35>
    729b:	0f b6 45 fc          	movzbl -0x4(%rbp),%eax
    729f:	5d                   	pop    %rbp
    72a0:	c3                   	retq   

00000000000072a1 <safe_lshift_func_int8_t_s_s>:
    72a1:	f3 0f 1e fa          	endbr64 
    72a5:	55                   	push   %rbp
    72a6:	48 89 e5             	mov    %rsp,%rbp
    72a9:	89 f8                	mov    %edi,%eax
    72ab:	89 75 f8             	mov    %esi,-0x8(%rbp)
    72ae:	88 45 fc             	mov    %al,-0x4(%rbp)
    72b1:	80 7d fc 00          	cmpb   $0x0,-0x4(%rbp)
    72b5:	78 31                	js     72e8 <safe_lshift_func_int8_t_s_s+0x47>
    72b7:	83 7d f8 00          	cmpl   $0x0,-0x8(%rbp)
    72bb:	78 2b                	js     72e8 <safe_lshift_func_int8_t_s_s+0x47>
    72bd:	83 7d f8 1f          	cmpl   $0x1f,-0x8(%rbp)
    72c1:	7f 25                	jg     72e8 <safe_lshift_func_int8_t_s_s+0x47>
    72c3:	0f be 55 fc          	movsbl -0x4(%rbp),%edx
    72c7:	8b 45 f8             	mov    -0x8(%rbp),%eax
    72ca:	be 7f 00 00 00       	mov    $0x7f,%esi
    72cf:	89 c1                	mov    %eax,%ecx
    72d1:	d3 fe                	sar    %cl,%esi
    72d3:	89 f0                	mov    %esi,%eax
    72d5:	39 c2                	cmp    %eax,%edx
    72d7:	7f 0f                	jg     72e8 <safe_lshift_func_int8_t_s_s+0x47>
    72d9:	0f be 55 fc          	movsbl -0x4(%rbp),%edx
    72dd:	8b 45 f8             	mov    -0x8(%rbp),%eax
    72e0:	89 c1                	mov    %eax,%ecx
    72e2:	d3 e2                	shl    %cl,%edx
    72e4:	89 d0                	mov    %edx,%eax
    72e6:	eb 04                	jmp    72ec <safe_lshift_func_int8_t_s_s+0x4b>
    72e8:	0f b6 45 fc          	movzbl -0x4(%rbp),%eax
    72ec:	5d                   	pop    %rbp
    72ed:	c3                   	retq   

00000000000072ee <safe_lshift_func_int8_t_s_u>:
    72ee:	f3 0f 1e fa          	endbr64 
    72f2:	55                   	push   %rbp
    72f3:	48 89 e5             	mov    %rsp,%rbp
    72f6:	89 f8                	mov    %edi,%eax
    72f8:	89 75 f8             	mov    %esi,-0x8(%rbp)
    72fb:	88 45 fc             	mov    %al,-0x4(%rbp)
    72fe:	80 7d fc 00          	cmpb   $0x0,-0x4(%rbp)
    7302:	78 2b                	js     732f <safe_lshift_func_int8_t_s_u+0x41>
    7304:	83 7d f8 1f          	cmpl   $0x1f,-0x8(%rbp)
    7308:	77 25                	ja     732f <safe_lshift_func_int8_t_s_u+0x41>
    730a:	0f be 55 fc          	movsbl -0x4(%rbp),%edx
    730e:	8b 45 f8             	mov    -0x8(%rbp),%eax
    7311:	be 7f 00 00 00       	mov    $0x7f,%esi
    7316:	89 c1                	mov    %eax,%ecx
    7318:	d3 fe                	sar    %cl,%esi
    731a:	89 f0                	mov    %esi,%eax
    731c:	39 c2                	cmp    %eax,%edx
    731e:	7f 0f                	jg     732f <safe_lshift_func_int8_t_s_u+0x41>
    7320:	0f be 55 fc          	movsbl -0x4(%rbp),%edx
    7324:	8b 45 f8             	mov    -0x8(%rbp),%eax
    7327:	89 c1                	mov    %eax,%ecx
    7329:	d3 e2                	shl    %cl,%edx
    732b:	89 d0                	mov    %edx,%eax
    732d:	eb 04                	jmp    7333 <safe_lshift_func_int8_t_s_u+0x45>
    732f:	0f b6 45 fc          	movzbl -0x4(%rbp),%eax
    7333:	5d                   	pop    %rbp
    7334:	c3                   	retq   

0000000000007335 <safe_rshift_func_int8_t_s_s>:
    7335:	f3 0f 1e fa          	endbr64 
    7339:	55                   	push   %rbp
    733a:	48 89 e5             	mov    %rsp,%rbp
    733d:	89 f8                	mov    %edi,%eax
    733f:	89 75 f8             	mov    %esi,-0x8(%rbp)
    7342:	88 45 fc             	mov    %al,-0x4(%rbp)
    7345:	80 7d fc 00          	cmpb   $0x0,-0x4(%rbp)
    7349:	78 1b                	js     7366 <safe_rshift_func_int8_t_s_s+0x31>
    734b:	83 7d f8 00          	cmpl   $0x0,-0x8(%rbp)
    734f:	78 15                	js     7366 <safe_rshift_func_int8_t_s_s+0x31>
    7351:	83 7d f8 1f          	cmpl   $0x1f,-0x8(%rbp)
    7355:	7f 0f                	jg     7366 <safe_rshift_func_int8_t_s_s+0x31>
    7357:	0f be 55 fc          	movsbl -0x4(%rbp),%edx
    735b:	8b 45 f8             	mov    -0x8(%rbp),%eax
    735e:	89 c1                	mov    %eax,%ecx
    7360:	d3 fa                	sar    %cl,%edx
    7362:	89 d0                	mov    %edx,%eax
    7364:	eb 04                	jmp    736a <safe_rshift_func_int8_t_s_s+0x35>
    7366:	0f b6 45 fc          	movzbl -0x4(%rbp),%eax
    736a:	5d                   	pop    %rbp
    736b:	c3                   	retq   

000000000000736c <safe_rshift_func_int8_t_s_u>:
    736c:	f3 0f 1e fa          	endbr64 
    7370:	55                   	push   %rbp
    7371:	48 89 e5             	mov    %rsp,%rbp
    7374:	89 f8                	mov    %edi,%eax
    7376:	89 75 f8             	mov    %esi,-0x8(%rbp)
    7379:	88 45 fc             	mov    %al,-0x4(%rbp)
    737c:	80 7d fc 00          	cmpb   $0x0,-0x4(%rbp)
    7380:	78 15                	js     7397 <safe_rshift_func_int8_t_s_u+0x2b>
    7382:	83 7d f8 1f          	cmpl   $0x1f,-0x8(%rbp)
    7386:	77 0f                	ja     7397 <safe_rshift_func_int8_t_s_u+0x2b>
    7388:	0f be 55 fc          	movsbl -0x4(%rbp),%edx
    738c:	8b 45 f8             	mov    -0x8(%rbp),%eax
    738f:	89 c1                	mov    %eax,%ecx
    7391:	d3 fa                	sar    %cl,%edx
    7393:	89 d0                	mov    %edx,%eax
    7395:	eb 04                	jmp    739b <safe_rshift_func_int8_t_s_u+0x2f>
    7397:	0f b6 45 fc          	movzbl -0x4(%rbp),%eax
    739b:	5d                   	pop    %rbp
    739c:	c3                   	retq   

000000000000739d <safe_unary_minus_func_int16_t_s>:
    739d:	f3 0f 1e fa          	endbr64 
    73a1:	55                   	push   %rbp
    73a2:	48 89 e5             	mov    %rsp,%rbp
    73a5:	89 f8                	mov    %edi,%eax
    73a7:	66 89 45 fc          	mov    %ax,-0x4(%rbp)
    73ab:	0f b7 45 fc          	movzwl -0x4(%rbp),%eax
    73af:	f7 d8                	neg    %eax
    73b1:	5d                   	pop    %rbp
    73b2:	c3                   	retq   

00000000000073b3 <safe_add_func_int16_t_s_s>:
    73b3:	f3 0f 1e fa          	endbr64 
    73b7:	55                   	push   %rbp
    73b8:	48 89 e5             	mov    %rsp,%rbp
    73bb:	89 fa                	mov    %edi,%edx
    73bd:	89 f0                	mov    %esi,%eax
    73bf:	66 89 55 fc          	mov    %dx,-0x4(%rbp)
    73c3:	66 89 45 f8          	mov    %ax,-0x8(%rbp)
    73c7:	0f b7 55 fc          	movzwl -0x4(%rbp),%edx
    73cb:	0f b7 45 f8          	movzwl -0x8(%rbp),%eax
    73cf:	01 d0                	add    %edx,%eax
    73d1:	5d                   	pop    %rbp
    73d2:	c3                   	retq   

00000000000073d3 <safe_sub_func_int16_t_s_s>:
    73d3:	f3 0f 1e fa          	endbr64 
    73d7:	55                   	push   %rbp
    73d8:	48 89 e5             	mov    %rsp,%rbp
    73db:	89 fa                	mov    %edi,%edx
    73dd:	89 f0                	mov    %esi,%eax
    73df:	66 89 55 fc          	mov    %dx,-0x4(%rbp)
    73e3:	66 89 45 f8          	mov    %ax,-0x8(%rbp)
    73e7:	0f b7 55 fc          	movzwl -0x4(%rbp),%edx
    73eb:	0f b7 45 f8          	movzwl -0x8(%rbp),%eax
    73ef:	29 c2                	sub    %eax,%edx
    73f1:	89 d0                	mov    %edx,%eax
    73f3:	5d                   	pop    %rbp
    73f4:	c3                   	retq   

00000000000073f5 <safe_mul_func_int16_t_s_s>:
    73f5:	f3 0f 1e fa          	endbr64 
    73f9:	55                   	push   %rbp
    73fa:	48 89 e5             	mov    %rsp,%rbp
    73fd:	89 fa                	mov    %edi,%edx
    73ff:	89 f0                	mov    %esi,%eax
    7401:	66 89 55 fc          	mov    %dx,-0x4(%rbp)
    7405:	66 89 45 f8          	mov    %ax,-0x8(%rbp)
    7409:	0f b7 55 fc          	movzwl -0x4(%rbp),%edx
    740d:	0f b7 45 f8          	movzwl -0x8(%rbp),%eax
    7411:	0f af c2             	imul   %edx,%eax
    7414:	5d                   	pop    %rbp
    7415:	c3                   	retq   

0000000000007416 <safe_mod_func_int16_t_s_s>:
    7416:	f3 0f 1e fa          	endbr64 
    741a:	55                   	push   %rbp
    741b:	48 89 e5             	mov    %rsp,%rbp
    741e:	89 fa                	mov    %edi,%edx
    7420:	89 f0                	mov    %esi,%eax
    7422:	66 89 55 fc          	mov    %dx,-0x4(%rbp)
    7426:	66 89 45 f8          	mov    %ax,-0x8(%rbp)
    742a:	66 83 7d f8 00       	cmpw   $0x0,-0x8(%rbp)
    742f:	74 1e                	je     744f <safe_mod_func_int16_t_s_s+0x39>
    7431:	66 81 7d fc 00 80    	cmpw   $0x8000,-0x4(%rbp)
    7437:	75 07                	jne    7440 <safe_mod_func_int16_t_s_s+0x2a>
    7439:	66 83 7d f8 ff       	cmpw   $0xffff,-0x8(%rbp)
    743e:	74 0f                	je     744f <safe_mod_func_int16_t_s_s+0x39>
    7440:	0f bf 45 fc          	movswl -0x4(%rbp),%eax
    7444:	0f bf 4d f8          	movswl -0x8(%rbp),%ecx
    7448:	99                   	cltd   
    7449:	f7 f9                	idiv   %ecx
    744b:	89 d0                	mov    %edx,%eax
    744d:	eb 04                	jmp    7453 <safe_mod_func_int16_t_s_s+0x3d>
    744f:	0f b7 45 fc          	movzwl -0x4(%rbp),%eax
    7453:	5d                   	pop    %rbp
    7454:	c3                   	retq   

0000000000007455 <safe_div_func_int16_t_s_s>:
    7455:	f3 0f 1e fa          	endbr64 
    7459:	55                   	push   %rbp
    745a:	48 89 e5             	mov    %rsp,%rbp
    745d:	89 fa                	mov    %edi,%edx
    745f:	89 f0                	mov    %esi,%eax
    7461:	66 89 55 fc          	mov    %dx,-0x4(%rbp)
    7465:	66 89 45 f8          	mov    %ax,-0x8(%rbp)
    7469:	66 83 7d f8 00       	cmpw   $0x0,-0x8(%rbp)
    746e:	74 1c                	je     748c <safe_div_func_int16_t_s_s+0x37>
    7470:	66 81 7d fc 00 80    	cmpw   $0x8000,-0x4(%rbp)
    7476:	75 07                	jne    747f <safe_div_func_int16_t_s_s+0x2a>
    7478:	66 83 7d f8 ff       	cmpw   $0xffff,-0x8(%rbp)
    747d:	74 0d                	je     748c <safe_div_func_int16_t_s_s+0x37>
    747f:	0f bf 45 fc          	movswl -0x4(%rbp),%eax
    7483:	0f bf 4d f8          	movswl -0x8(%rbp),%ecx
    7487:	99                   	cltd   
    7488:	f7 f9                	idiv   %ecx
    748a:	eb 04                	jmp    7490 <safe_div_func_int16_t_s_s+0x3b>
    748c:	0f b7 45 fc          	movzwl -0x4(%rbp),%eax
    7490:	5d                   	pop    %rbp
    7491:	c3                   	retq   

0000000000007492 <safe_lshift_func_int16_t_s_s>:
    7492:	f3 0f 1e fa          	endbr64 
    7496:	55                   	push   %rbp
    7497:	48 89 e5             	mov    %rsp,%rbp
    749a:	89 f8                	mov    %edi,%eax
    749c:	89 75 f8             	mov    %esi,-0x8(%rbp)
    749f:	66 89 45 fc          	mov    %ax,-0x4(%rbp)
    74a3:	66 83 7d fc 00       	cmpw   $0x0,-0x4(%rbp)
    74a8:	78 31                	js     74db <safe_lshift_func_int16_t_s_s+0x49>
    74aa:	83 7d f8 00          	cmpl   $0x0,-0x8(%rbp)
    74ae:	78 2b                	js     74db <safe_lshift_func_int16_t_s_s+0x49>
    74b0:	83 7d f8 1f          	cmpl   $0x1f,-0x8(%rbp)
    74b4:	7f 25                	jg     74db <safe_lshift_func_int16_t_s_s+0x49>
    74b6:	0f bf 55 fc          	movswl -0x4(%rbp),%edx
    74ba:	8b 45 f8             	mov    -0x8(%rbp),%eax
    74bd:	be ff 7f 00 00       	mov    $0x7fff,%esi
    74c2:	89 c1                	mov    %eax,%ecx
    74c4:	d3 fe                	sar    %cl,%esi
    74c6:	89 f0                	mov    %esi,%eax
    74c8:	39 c2                	cmp    %eax,%edx
    74ca:	7f 0f                	jg     74db <safe_lshift_func_int16_t_s_s+0x49>
    74cc:	0f bf 55 fc          	movswl -0x4(%rbp),%edx
    74d0:	8b 45 f8             	mov    -0x8(%rbp),%eax
    74d3:	89 c1                	mov    %eax,%ecx
    74d5:	d3 e2                	shl    %cl,%edx
    74d7:	89 d0                	mov    %edx,%eax
    74d9:	eb 04                	jmp    74df <safe_lshift_func_int16_t_s_s+0x4d>
    74db:	0f b7 45 fc          	movzwl -0x4(%rbp),%eax
    74df:	5d                   	pop    %rbp
    74e0:	c3                   	retq   

00000000000074e1 <safe_lshift_func_int16_t_s_u>:
    74e1:	f3 0f 1e fa          	endbr64 
    74e5:	55                   	push   %rbp
    74e6:	48 89 e5             	mov    %rsp,%rbp
    74e9:	89 f8                	mov    %edi,%eax
    74eb:	89 75 f8             	mov    %esi,-0x8(%rbp)
    74ee:	66 89 45 fc          	mov    %ax,-0x4(%rbp)
    74f2:	66 83 7d fc 00       	cmpw   $0x0,-0x4(%rbp)
    74f7:	78 2b                	js     7524 <safe_lshift_func_int16_t_s_u+0x43>
    74f9:	83 7d f8 1f          	cmpl   $0x1f,-0x8(%rbp)
    74fd:	77 25                	ja     7524 <safe_lshift_func_int16_t_s_u+0x43>
    74ff:	0f bf 55 fc          	movswl -0x4(%rbp),%edx
    7503:	8b 45 f8             	mov    -0x8(%rbp),%eax
    7506:	be ff 7f 00 00       	mov    $0x7fff,%esi
    750b:	89 c1                	mov    %eax,%ecx
    750d:	d3 fe                	sar    %cl,%esi
    750f:	89 f0                	mov    %esi,%eax
    7511:	39 c2                	cmp    %eax,%edx
    7513:	7f 0f                	jg     7524 <safe_lshift_func_int16_t_s_u+0x43>
    7515:	0f bf 55 fc          	movswl -0x4(%rbp),%edx
    7519:	8b 45 f8             	mov    -0x8(%rbp),%eax
    751c:	89 c1                	mov    %eax,%ecx
    751e:	d3 e2                	shl    %cl,%edx
    7520:	89 d0                	mov    %edx,%eax
    7522:	eb 04                	jmp    7528 <safe_lshift_func_int16_t_s_u+0x47>
    7524:	0f b7 45 fc          	movzwl -0x4(%rbp),%eax
    7528:	5d                   	pop    %rbp
    7529:	c3                   	retq   

000000000000752a <safe_rshift_func_int16_t_s_s>:
    752a:	f3 0f 1e fa          	endbr64 
    752e:	55                   	push   %rbp
    752f:	48 89 e5             	mov    %rsp,%rbp
    7532:	89 f8                	mov    %edi,%eax
    7534:	89 75 f8             	mov    %esi,-0x8(%rbp)
    7537:	66 89 45 fc          	mov    %ax,-0x4(%rbp)
    753b:	66 83 7d fc 00       	cmpw   $0x0,-0x4(%rbp)
    7540:	78 1b                	js     755d <safe_rshift_func_int16_t_s_s+0x33>
    7542:	83 7d f8 00          	cmpl   $0x0,-0x8(%rbp)
    7546:	78 15                	js     755d <safe_rshift_func_int16_t_s_s+0x33>
    7548:	83 7d f8 1f          	cmpl   $0x1f,-0x8(%rbp)
    754c:	7f 0f                	jg     755d <safe_rshift_func_int16_t_s_s+0x33>
    754e:	0f bf 55 fc          	movswl -0x4(%rbp),%edx
    7552:	8b 45 f8             	mov    -0x8(%rbp),%eax
    7555:	89 c1                	mov    %eax,%ecx
    7557:	d3 fa                	sar    %cl,%edx
    7559:	89 d0                	mov    %edx,%eax
    755b:	eb 04                	jmp    7561 <safe_rshift_func_int16_t_s_s+0x37>
    755d:	0f b7 45 fc          	movzwl -0x4(%rbp),%eax
    7561:	5d                   	pop    %rbp
    7562:	c3                   	retq   

0000000000007563 <safe_rshift_func_int16_t_s_u>:
    7563:	f3 0f 1e fa          	endbr64 
    7567:	55                   	push   %rbp
    7568:	48 89 e5             	mov    %rsp,%rbp
    756b:	89 f8                	mov    %edi,%eax
    756d:	89 75 f8             	mov    %esi,-0x8(%rbp)
    7570:	66 89 45 fc          	mov    %ax,-0x4(%rbp)
    7574:	66 83 7d fc 00       	cmpw   $0x0,-0x4(%rbp)
    7579:	78 15                	js     7590 <safe_rshift_func_int16_t_s_u+0x2d>
    757b:	83 7d f8 1f          	cmpl   $0x1f,-0x8(%rbp)
    757f:	77 0f                	ja     7590 <safe_rshift_func_int16_t_s_u+0x2d>
    7581:	0f bf 55 fc          	movswl -0x4(%rbp),%edx
    7585:	8b 45 f8             	mov    -0x8(%rbp),%eax
    7588:	89 c1                	mov    %eax,%ecx
    758a:	d3 fa                	sar    %cl,%edx
    758c:	89 d0                	mov    %edx,%eax
    758e:	eb 04                	jmp    7594 <safe_rshift_func_int16_t_s_u+0x31>
    7590:	0f b7 45 fc          	movzwl -0x4(%rbp),%eax
    7594:	5d                   	pop    %rbp
    7595:	c3                   	retq   

0000000000007596 <safe_unary_minus_func_int32_t_s>:
    7596:	f3 0f 1e fa          	endbr64 
    759a:	55                   	push   %rbp
    759b:	48 89 e5             	mov    %rsp,%rbp
    759e:	89 7d fc             	mov    %edi,-0x4(%rbp)
    75a1:	81 7d fc 00 00 00 80 	cmpl   $0x80000000,-0x4(%rbp)
    75a8:	74 07                	je     75b1 <safe_unary_minus_func_int32_t_s+0x1b>
    75aa:	8b 45 fc             	mov    -0x4(%rbp),%eax
    75ad:	f7 d8                	neg    %eax
    75af:	eb 03                	jmp    75b4 <safe_unary_minus_func_int32_t_s+0x1e>
    75b1:	8b 45 fc             	mov    -0x4(%rbp),%eax
    75b4:	5d                   	pop    %rbp
    75b5:	c3                   	retq   

00000000000075b6 <safe_add_func_int32_t_s_s>:
    75b6:	f3 0f 1e fa          	endbr64 
    75ba:	55                   	push   %rbp
    75bb:	48 89 e5             	mov    %rsp,%rbp
    75be:	89 7d fc             	mov    %edi,-0x4(%rbp)
    75c1:	89 75 f8             	mov    %esi,-0x8(%rbp)
    75c4:	83 7d fc 00          	cmpl   $0x0,-0x4(%rbp)
    75c8:	7e 13                	jle    75dd <safe_add_func_int32_t_s_s+0x27>
    75ca:	83 7d f8 00          	cmpl   $0x0,-0x8(%rbp)
    75ce:	7e 0d                	jle    75dd <safe_add_func_int32_t_s_s+0x27>
    75d0:	b8 ff ff ff 7f       	mov    $0x7fffffff,%eax
    75d5:	2b 45 f8             	sub    -0x8(%rbp),%eax
    75d8:	39 45 fc             	cmp    %eax,-0x4(%rbp)
    75db:	7f 23                	jg     7600 <safe_add_func_int32_t_s_s+0x4a>
    75dd:	83 7d fc 00          	cmpl   $0x0,-0x4(%rbp)
    75e1:	79 13                	jns    75f6 <safe_add_func_int32_t_s_s+0x40>
    75e3:	83 7d f8 00          	cmpl   $0x0,-0x8(%rbp)
    75e7:	79 0d                	jns    75f6 <safe_add_func_int32_t_s_s+0x40>
    75e9:	b8 00 00 00 80       	mov    $0x80000000,%eax
    75ee:	2b 45 f8             	sub    -0x8(%rbp),%eax
    75f1:	39 45 fc             	cmp    %eax,-0x4(%rbp)
    75f4:	7c 0a                	jl     7600 <safe_add_func_int32_t_s_s+0x4a>
    75f6:	8b 55 fc             	mov    -0x4(%rbp),%edx
    75f9:	8b 45 f8             	mov    -0x8(%rbp),%eax
    75fc:	01 d0                	add    %edx,%eax
    75fe:	eb 03                	jmp    7603 <safe_add_func_int32_t_s_s+0x4d>
    7600:	8b 45 fc             	mov    -0x4(%rbp),%eax
    7603:	5d                   	pop    %rbp
    7604:	c3                   	retq   

0000000000007605 <safe_sub_func_int32_t_s_s>:
    7605:	f3 0f 1e fa          	endbr64 
    7609:	55                   	push   %rbp
    760a:	48 89 e5             	mov    %rsp,%rbp
    760d:	89 7d fc             	mov    %edi,-0x4(%rbp)
    7610:	89 75 f8             	mov    %esi,-0x8(%rbp)
    7613:	8b 45 fc             	mov    -0x4(%rbp),%eax
    7616:	33 45 f8             	xor    -0x8(%rbp),%eax
    7619:	89 c2                	mov    %eax,%edx
    761b:	8b 45 fc             	mov    -0x4(%rbp),%eax
    761e:	33 45 f8             	xor    -0x8(%rbp),%eax
    7621:	25 00 00 00 80       	and    $0x80000000,%eax
    7626:	33 45 fc             	xor    -0x4(%rbp),%eax
    7629:	2b 45 f8             	sub    -0x8(%rbp),%eax
    762c:	33 45 f8             	xor    -0x8(%rbp),%eax
    762f:	21 d0                	and    %edx,%eax
    7631:	85 c0                	test   %eax,%eax
    7633:	78 08                	js     763d <safe_sub_func_int32_t_s_s+0x38>
    7635:	8b 45 fc             	mov    -0x4(%rbp),%eax
    7638:	2b 45 f8             	sub    -0x8(%rbp),%eax
    763b:	eb 03                	jmp    7640 <safe_sub_func_int32_t_s_s+0x3b>
    763d:	8b 45 fc             	mov    -0x4(%rbp),%eax
    7640:	5d                   	pop    %rbp
    7641:	c3                   	retq   

0000000000007642 <safe_mul_func_int32_t_s_s>:
    7642:	f3 0f 1e fa          	endbr64 
    7646:	55                   	push   %rbp
    7647:	48 89 e5             	mov    %rsp,%rbp
    764a:	89 7d fc             	mov    %edi,-0x4(%rbp)
    764d:	89 75 f8             	mov    %esi,-0x8(%rbp)
    7650:	83 7d fc 00          	cmpl   $0x0,-0x4(%rbp)
    7654:	7e 14                	jle    766a <safe_mul_func_int32_t_s_s+0x28>
    7656:	83 7d f8 00          	cmpl   $0x0,-0x8(%rbp)
    765a:	7e 0e                	jle    766a <safe_mul_func_int32_t_s_s+0x28>
    765c:	b8 ff ff ff 7f       	mov    $0x7fffffff,%eax
    7661:	99                   	cltd   
    7662:	f7 7d f8             	idivl  -0x8(%rbp)
    7665:	39 45 fc             	cmp    %eax,-0x4(%rbp)
    7668:	7f 5d                	jg     76c7 <safe_mul_func_int32_t_s_s+0x85>
    766a:	83 7d fc 00          	cmpl   $0x0,-0x4(%rbp)
    766e:	7e 14                	jle    7684 <safe_mul_func_int32_t_s_s+0x42>
    7670:	83 7d f8 00          	cmpl   $0x0,-0x8(%rbp)
    7674:	7f 0e                	jg     7684 <safe_mul_func_int32_t_s_s+0x42>
    7676:	b8 00 00 00 80       	mov    $0x80000000,%eax
    767b:	99                   	cltd   
    767c:	f7 7d fc             	idivl  -0x4(%rbp)
    767f:	39 45 f8             	cmp    %eax,-0x8(%rbp)
    7682:	7c 43                	jl     76c7 <safe_mul_func_int32_t_s_s+0x85>
    7684:	83 7d fc 00          	cmpl   $0x0,-0x4(%rbp)
    7688:	7f 14                	jg     769e <safe_mul_func_int32_t_s_s+0x5c>
    768a:	83 7d f8 00          	cmpl   $0x0,-0x8(%rbp)
    768e:	7e 0e                	jle    769e <safe_mul_func_int32_t_s_s+0x5c>
    7690:	b8 00 00 00 80       	mov    $0x80000000,%eax
    7695:	99                   	cltd   
    7696:	f7 7d f8             	idivl  -0x8(%rbp)
    7699:	39 45 fc             	cmp    %eax,-0x4(%rbp)
    769c:	7c 29                	jl     76c7 <safe_mul_func_int32_t_s_s+0x85>
    769e:	83 7d fc 00          	cmpl   $0x0,-0x4(%rbp)
    76a2:	7f 1a                	jg     76be <safe_mul_func_int32_t_s_s+0x7c>
    76a4:	83 7d f8 00          	cmpl   $0x0,-0x8(%rbp)
    76a8:	7f 14                	jg     76be <safe_mul_func_int32_t_s_s+0x7c>
    76aa:	83 7d fc 00          	cmpl   $0x0,-0x4(%rbp)
    76ae:	74 0e                	je     76be <safe_mul_func_int32_t_s_s+0x7c>
    76b0:	b8 ff ff ff 7f       	mov    $0x7fffffff,%eax
    76b5:	99                   	cltd   
    76b6:	f7 7d fc             	idivl  -0x4(%rbp)
    76b9:	39 45 f8             	cmp    %eax,-0x8(%rbp)
    76bc:	7c 09                	jl     76c7 <safe_mul_func_int32_t_s_s+0x85>
    76be:	8b 45 fc             	mov    -0x4(%rbp),%eax
    76c1:	0f af 45 f8          	imul   -0x8(%rbp),%eax
    76c5:	eb 03                	jmp    76ca <safe_mul_func_int32_t_s_s+0x88>
    76c7:	8b 45 fc             	mov    -0x4(%rbp),%eax
    76ca:	5d                   	pop    %rbp
    76cb:	c3                   	retq   

00000000000076cc <safe_mod_func_int32_t_s_s>:
    76cc:	f3 0f 1e fa          	endbr64 
    76d0:	55                   	push   %rbp
    76d1:	48 89 e5             	mov    %rsp,%rbp
    76d4:	89 7d fc             	mov    %edi,-0x4(%rbp)
    76d7:	89 75 f8             	mov    %esi,-0x8(%rbp)
    76da:	83 7d f8 00          	cmpl   $0x0,-0x8(%rbp)
    76de:	74 1a                	je     76fa <safe_mod_func_int32_t_s_s+0x2e>
    76e0:	81 7d fc 00 00 00 80 	cmpl   $0x80000000,-0x4(%rbp)
    76e7:	75 06                	jne    76ef <safe_mod_func_int32_t_s_s+0x23>
    76e9:	83 7d f8 ff          	cmpl   $0xffffffff,-0x8(%rbp)
    76ed:	74 0b                	je     76fa <safe_mod_func_int32_t_s_s+0x2e>
    76ef:	8b 45 fc             	mov    -0x4(%rbp),%eax
    76f2:	99                   	cltd   
    76f3:	f7 7d f8             	idivl  -0x8(%rbp)
    76f6:	89 d0                	mov    %edx,%eax
    76f8:	eb 03                	jmp    76fd <safe_mod_func_int32_t_s_s+0x31>
    76fa:	8b 45 fc             	mov    -0x4(%rbp),%eax
    76fd:	5d                   	pop    %rbp
    76fe:	c3                   	retq   

00000000000076ff <safe_div_func_int32_t_s_s>:
    76ff:	f3 0f 1e fa          	endbr64 
    7703:	55                   	push   %rbp
    7704:	48 89 e5             	mov    %rsp,%rbp
    7707:	89 7d fc             	mov    %edi,-0x4(%rbp)
    770a:	89 75 f8             	mov    %esi,-0x8(%rbp)
    770d:	83 7d f8 00          	cmpl   $0x0,-0x8(%rbp)
    7711:	74 18                	je     772b <safe_div_func_int32_t_s_s+0x2c>
    7713:	81 7d fc 00 00 00 80 	cmpl   $0x80000000,-0x4(%rbp)
    771a:	75 06                	jne    7722 <safe_div_func_int32_t_s_s+0x23>
    771c:	83 7d f8 ff          	cmpl   $0xffffffff,-0x8(%rbp)
    7720:	74 09                	je     772b <safe_div_func_int32_t_s_s+0x2c>
    7722:	8b 45 fc             	mov    -0x4(%rbp),%eax
    7725:	99                   	cltd   
    7726:	f7 7d f8             	idivl  -0x8(%rbp)
    7729:	eb 03                	jmp    772e <safe_div_func_int32_t_s_s+0x2f>
    772b:	8b 45 fc             	mov    -0x4(%rbp),%eax
    772e:	5d                   	pop    %rbp
    772f:	c3                   	retq   

0000000000007730 <safe_lshift_func_int32_t_s_s>:
    7730:	f3 0f 1e fa          	endbr64 
    7734:	55                   	push   %rbp
    7735:	48 89 e5             	mov    %rsp,%rbp
    7738:	89 7d fc             	mov    %edi,-0x4(%rbp)
    773b:	89 75 f8             	mov    %esi,-0x8(%rbp)
    773e:	83 7d fc 00          	cmpl   $0x0,-0x4(%rbp)
    7742:	78 2d                	js     7771 <safe_lshift_func_int32_t_s_s+0x41>
    7744:	83 7d f8 00          	cmpl   $0x0,-0x8(%rbp)
    7748:	78 27                	js     7771 <safe_lshift_func_int32_t_s_s+0x41>
    774a:	83 7d f8 1f          	cmpl   $0x1f,-0x8(%rbp)
    774e:	7f 21                	jg     7771 <safe_lshift_func_int32_t_s_s+0x41>
    7750:	8b 45 f8             	mov    -0x8(%rbp),%eax
    7753:	ba ff ff ff 7f       	mov    $0x7fffffff,%edx
    7758:	89 c1                	mov    %eax,%ecx
    775a:	d3 fa                	sar    %cl,%edx
    775c:	89 d0                	mov    %edx,%eax
    775e:	39 45 fc             	cmp    %eax,-0x4(%rbp)
    7761:	7f 0e                	jg     7771 <safe_lshift_func_int32_t_s_s+0x41>
    7763:	8b 45 f8             	mov    -0x8(%rbp),%eax
    7766:	8b 55 fc             	mov    -0x4(%rbp),%edx
    7769:	89 c1                	mov    %eax,%ecx
    776b:	d3 e2                	shl    %cl,%edx
    776d:	89 d0                	mov    %edx,%eax
    776f:	eb 03                	jmp    7774 <safe_lshift_func_int32_t_s_s+0x44>
    7771:	8b 45 fc             	mov    -0x4(%rbp),%eax
    7774:	5d                   	pop    %rbp
    7775:	c3                   	retq   

0000000000007776 <safe_lshift_func_int32_t_s_u>:
    7776:	f3 0f 1e fa          	endbr64 
    777a:	55                   	push   %rbp
    777b:	48 89 e5             	mov    %rsp,%rbp
    777e:	89 7d fc             	mov    %edi,-0x4(%rbp)
    7781:	89 75 f8             	mov    %esi,-0x8(%rbp)
    7784:	83 7d fc 00          	cmpl   $0x0,-0x4(%rbp)
    7788:	78 27                	js     77b1 <safe_lshift_func_int32_t_s_u+0x3b>
    778a:	83 7d f8 1f          	cmpl   $0x1f,-0x8(%rbp)
    778e:	77 21                	ja     77b1 <safe_lshift_func_int32_t_s_u+0x3b>
    7790:	8b 45 f8             	mov    -0x8(%rbp),%eax
    7793:	ba ff ff ff 7f       	mov    $0x7fffffff,%edx
    7798:	89 c1                	mov    %eax,%ecx
    779a:	d3 fa                	sar    %cl,%edx
    779c:	89 d0                	mov    %edx,%eax
    779e:	39 45 fc             	cmp    %eax,-0x4(%rbp)
    77a1:	7f 0e                	jg     77b1 <safe_lshift_func_int32_t_s_u+0x3b>
    77a3:	8b 45 f8             	mov    -0x8(%rbp),%eax
    77a6:	8b 55 fc             	mov    -0x4(%rbp),%edx
    77a9:	89 c1                	mov    %eax,%ecx
    77ab:	d3 e2                	shl    %cl,%edx
    77ad:	89 d0                	mov    %edx,%eax
    77af:	eb 03                	jmp    77b4 <safe_lshift_func_int32_t_s_u+0x3e>
    77b1:	8b 45 fc             	mov    -0x4(%rbp),%eax
    77b4:	5d                   	pop    %rbp
    77b5:	c3                   	retq   

00000000000077b6 <safe_rshift_func_int32_t_s_s>:
    77b6:	f3 0f 1e fa          	endbr64 
    77ba:	55                   	push   %rbp
    77bb:	48 89 e5             	mov    %rsp,%rbp
    77be:	89 7d fc             	mov    %edi,-0x4(%rbp)
    77c1:	89 75 f8             	mov    %esi,-0x8(%rbp)
    77c4:	83 7d fc 00          	cmpl   $0x0,-0x4(%rbp)
    77c8:	78 1a                	js     77e4 <safe_rshift_func_int32_t_s_s+0x2e>
    77ca:	83 7d f8 00          	cmpl   $0x0,-0x8(%rbp)
    77ce:	78 14                	js     77e4 <safe_rshift_func_int32_t_s_s+0x2e>
    77d0:	83 7d f8 1f          	cmpl   $0x1f,-0x8(%rbp)
    77d4:	7f 0e                	jg     77e4 <safe_rshift_func_int32_t_s_s+0x2e>
    77d6:	8b 45 f8             	mov    -0x8(%rbp),%eax
    77d9:	8b 55 fc             	mov    -0x4(%rbp),%edx
    77dc:	89 c1                	mov    %eax,%ecx
    77de:	d3 fa                	sar    %cl,%edx
    77e0:	89 d0                	mov    %edx,%eax
    77e2:	eb 03                	jmp    77e7 <safe_rshift_func_int32_t_s_s+0x31>
    77e4:	8b 45 fc             	mov    -0x4(%rbp),%eax
    77e7:	5d                   	pop    %rbp
    77e8:	c3                   	retq   

00000000000077e9 <safe_rshift_func_int32_t_s_u>:
    77e9:	f3 0f 1e fa          	endbr64 
    77ed:	55                   	push   %rbp
    77ee:	48 89 e5             	mov    %rsp,%rbp
    77f1:	89 7d fc             	mov    %edi,-0x4(%rbp)
    77f4:	89 75 f8             	mov    %esi,-0x8(%rbp)
    77f7:	83 7d fc 00          	cmpl   $0x0,-0x4(%rbp)
    77fb:	78 14                	js     7811 <safe_rshift_func_int32_t_s_u+0x28>
    77fd:	83 7d f8 1f          	cmpl   $0x1f,-0x8(%rbp)
    7801:	77 0e                	ja     7811 <safe_rshift_func_int32_t_s_u+0x28>
    7803:	8b 45 f8             	mov    -0x8(%rbp),%eax
    7806:	8b 55 fc             	mov    -0x4(%rbp),%edx
    7809:	89 c1                	mov    %eax,%ecx
    780b:	d3 fa                	sar    %cl,%edx
    780d:	89 d0                	mov    %edx,%eax
    780f:	eb 03                	jmp    7814 <safe_rshift_func_int32_t_s_u+0x2b>
    7811:	8b 45 fc             	mov    -0x4(%rbp),%eax
    7814:	5d                   	pop    %rbp
    7815:	c3                   	retq   

0000000000007816 <safe_unary_minus_func_int64_t_s>:
    7816:	f3 0f 1e fa          	endbr64 
    781a:	55                   	push   %rbp
    781b:	48 89 e5             	mov    %rsp,%rbp
    781e:	48 89 7d f8          	mov    %rdi,-0x8(%rbp)
    7822:	48 b8 00 00 00 00 00 	movabs $0x8000000000000000,%rax
    7829:	00 00 80 
    782c:	48 39 45 f8          	cmp    %rax,-0x8(%rbp)
    7830:	74 09                	je     783b <safe_unary_minus_func_int64_t_s+0x25>
    7832:	48 8b 45 f8          	mov    -0x8(%rbp),%rax
    7836:	48 f7 d8             	neg    %rax
    7839:	eb 04                	jmp    783f <safe_unary_minus_func_int64_t_s+0x29>
    783b:	48 8b 45 f8          	mov    -0x8(%rbp),%rax
    783f:	5d                   	pop    %rbp
    7840:	c3                   	retq   

0000000000007841 <safe_add_func_int64_t_s_s>:
    7841:	f3 0f 1e fa          	endbr64 
    7845:	55                   	push   %rbp
    7846:	48 89 e5             	mov    %rsp,%rbp
    7849:	48 89 7d f8          	mov    %rdi,-0x8(%rbp)
    784d:	48 89 75 f0          	mov    %rsi,-0x10(%rbp)
    7851:	48 83 7d f8 00       	cmpq   $0x0,-0x8(%rbp)
    7856:	7e 1b                	jle    7873 <safe_add_func_int64_t_s_s+0x32>
    7858:	48 83 7d f0 00       	cmpq   $0x0,-0x10(%rbp)
    785d:	7e 14                	jle    7873 <safe_add_func_int64_t_s_s+0x32>
    785f:	48 b8 ff ff ff ff ff 	movabs $0x7fffffffffffffff,%rax
    7866:	ff ff 7f 
    7869:	48 2b 45 f0          	sub    -0x10(%rbp),%rax
    786d:	48 39 45 f8          	cmp    %rax,-0x8(%rbp)
    7871:	7f 2f                	jg     78a2 <safe_add_func_int64_t_s_s+0x61>
    7873:	48 83 7d f8 00       	cmpq   $0x0,-0x8(%rbp)
    7878:	79 1b                	jns    7895 <safe_add_func_int64_t_s_s+0x54>
    787a:	48 83 7d f0 00       	cmpq   $0x0,-0x10(%rbp)
    787f:	79 14                	jns    7895 <safe_add_func_int64_t_s_s+0x54>
    7881:	48 b8 00 00 00 00 00 	movabs $0x8000000000000000,%rax
    7888:	00 00 80 
    788b:	48 2b 45 f0          	sub    -0x10(%rbp),%rax
    788f:	48 39 45 f8          	cmp    %rax,-0x8(%rbp)
    7893:	7c 0d                	jl     78a2 <safe_add_func_int64_t_s_s+0x61>
    7895:	48 8b 55 f8          	mov    -0x8(%rbp),%rdx
    7899:	48 8b 45 f0          	mov    -0x10(%rbp),%rax
    789d:	48 01 d0             	add    %rdx,%rax
    78a0:	eb 04                	jmp    78a6 <safe_add_func_int64_t_s_s+0x65>
    78a2:	48 8b 45 f8          	mov    -0x8(%rbp),%rax
    78a6:	5d                   	pop    %rbp
    78a7:	c3                   	retq   

00000000000078a8 <safe_sub_func_int64_t_s_s>:
    78a8:	f3 0f 1e fa          	endbr64 
    78ac:	55                   	push   %rbp
    78ad:	48 89 e5             	mov    %rsp,%rbp
    78b0:	48 89 7d f8          	mov    %rdi,-0x8(%rbp)
    78b4:	48 89 75 f0          	mov    %rsi,-0x10(%rbp)
    78b8:	48 8b 45 f8          	mov    -0x8(%rbp),%rax
    78bc:	48 33 45 f0          	xor    -0x10(%rbp),%rax
    78c0:	48 89 c2             	mov    %rax,%rdx
    78c3:	48 8b 45 f8          	mov    -0x8(%rbp),%rax
    78c7:	48 33 45 f0          	xor    -0x10(%rbp),%rax
    78cb:	48 b9 00 00 00 00 00 	movabs $0x8000000000000000,%rcx
    78d2:	00 00 80 
    78d5:	48 21 c8             	and    %rcx,%rax
    78d8:	48 33 45 f8          	xor    -0x8(%rbp),%rax
    78dc:	48 2b 45 f0          	sub    -0x10(%rbp),%rax
    78e0:	48 33 45 f0          	xor    -0x10(%rbp),%rax
    78e4:	48 21 d0             	and    %rdx,%rax
    78e7:	48 85 c0             	test   %rax,%rax
    78ea:	78 0a                	js     78f6 <safe_sub_func_int64_t_s_s+0x4e>
    78ec:	48 8b 45 f8          	mov    -0x8(%rbp),%rax
    78f0:	48 2b 45 f0          	sub    -0x10(%rbp),%rax
    78f4:	eb 04                	jmp    78fa <safe_sub_func_int64_t_s_s+0x52>
    78f6:	48 8b 45 f8          	mov    -0x8(%rbp),%rax
    78fa:	5d                   	pop    %rbp
    78fb:	c3                   	retq   

00000000000078fc <safe_mul_func_int64_t_s_s>:
    78fc:	f3 0f 1e fa          	endbr64 
    7900:	55                   	push   %rbp
    7901:	48 89 e5             	mov    %rsp,%rbp
    7904:	48 89 7d f8          	mov    %rdi,-0x8(%rbp)
    7908:	48 89 75 f0          	mov    %rsi,-0x10(%rbp)
    790c:	48 83 7d f8 00       	cmpq   $0x0,-0x8(%rbp)
    7911:	7e 1d                	jle    7930 <safe_mul_func_int64_t_s_s+0x34>
    7913:	48 83 7d f0 00       	cmpq   $0x0,-0x10(%rbp)
    7918:	7e 16                	jle    7930 <safe_mul_func_int64_t_s_s+0x34>
    791a:	48 b8 ff ff ff ff ff 	movabs $0x7fffffffffffffff,%rax
    7921:	ff ff 7f 
    7924:	48 99                	cqto   
    7926:	48 f7 7d f0          	idivq  -0x10(%rbp)
    792a:	48 39 45 f8          	cmp    %rax,-0x8(%rbp)
    792e:	7f 7e                	jg     79ae <safe_mul_func_int64_t_s_s+0xb2>
    7930:	48 83 7d f8 00       	cmpq   $0x0,-0x8(%rbp)
    7935:	7e 1d                	jle    7954 <safe_mul_func_int64_t_s_s+0x58>
    7937:	48 83 7d f0 00       	cmpq   $0x0,-0x10(%rbp)
    793c:	7f 16                	jg     7954 <safe_mul_func_int64_t_s_s+0x58>
    793e:	48 b8 00 00 00 00 00 	movabs $0x8000000000000000,%rax
    7945:	00 00 80 
    7948:	48 99                	cqto   
    794a:	48 f7 7d f8          	idivq  -0x8(%rbp)
    794e:	48 39 45 f0          	cmp    %rax,-0x10(%rbp)
    7952:	7c 5a                	jl     79ae <safe_mul_func_int64_t_s_s+0xb2>
    7954:	48 83 7d f8 00       	cmpq   $0x0,-0x8(%rbp)
    7959:	7f 1d                	jg     7978 <safe_mul_func_int64_t_s_s+0x7c>
    795b:	48 83 7d f0 00       	cmpq   $0x0,-0x10(%rbp)
    7960:	7e 16                	jle    7978 <safe_mul_func_int64_t_s_s+0x7c>
    7962:	48 b8 00 00 00 00 00 	movabs $0x8000000000000000,%rax
    7969:	00 00 80 
    796c:	48 99                	cqto   
    796e:	48 f7 7d f0          	idivq  -0x10(%rbp)
    7972:	48 39 45 f8          	cmp    %rax,-0x8(%rbp)
    7976:	7c 36                	jl     79ae <safe_mul_func_int64_t_s_s+0xb2>
    7978:	48 83 7d f8 00       	cmpq   $0x0,-0x8(%rbp)
    797d:	7f 24                	jg     79a3 <safe_mul_func_int64_t_s_s+0xa7>
    797f:	48 83 7d f0 00       	cmpq   $0x0,-0x10(%rbp)
    7984:	7f 1d                	jg     79a3 <safe_mul_func_int64_t_s_s+0xa7>
    7986:	48 83 7d f8 00       	cmpq   $0x0,-0x8(%rbp)
    798b:	74 16                	je     79a3 <safe_mul_func_int64_t_s_s+0xa7>
    798d:	48 b8 ff ff ff ff ff 	movabs $0x7fffffffffffffff,%rax
    7994:	ff ff 7f 
    7997:	48 99                	cqto   
    7999:	48 f7 7d f8          	idivq  -0x8(%rbp)
    799d:	48 39 45 f0          	cmp    %rax,-0x10(%rbp)
    79a1:	7c 0b                	jl     79ae <safe_mul_func_int64_t_s_s+0xb2>
    79a3:	48 8b 45 f8          	mov    -0x8(%rbp),%rax
    79a7:	48 0f af 45 f0       	imul   -0x10(%rbp),%rax
    79ac:	eb 04                	jmp    79b2 <safe_mul_func_int64_t_s_s+0xb6>
    79ae:	48 8b 45 f8          	mov    -0x8(%rbp),%rax
    79b2:	5d                   	pop    %rbp
    79b3:	c3                   	retq   

00000000000079b4 <safe_mod_func_int64_t_s_s>:
    79b4:	f3 0f 1e fa          	endbr64 
    79b8:	55                   	push   %rbp
    79b9:	48 89 e5             	mov    %rsp,%rbp
    79bc:	48 89 7d f8          	mov    %rdi,-0x8(%rbp)
    79c0:	48 89 75 f0          	mov    %rsi,-0x10(%rbp)
    79c4:	48 83 7d f0 00       	cmpq   $0x0,-0x10(%rbp)
    79c9:	74 26                	je     79f1 <safe_mod_func_int64_t_s_s+0x3d>
    79cb:	48 b8 00 00 00 00 00 	movabs $0x8000000000000000,%rax
    79d2:	00 00 80 
    79d5:	48 39 45 f8          	cmp    %rax,-0x8(%rbp)
    79d9:	75 07                	jne    79e2 <safe_mod_func_int64_t_s_s+0x2e>
    79db:	48 83 7d f0 ff       	cmpq   $0xffffffffffffffff,-0x10(%rbp)
    79e0:	74 0f                	je     79f1 <safe_mod_func_int64_t_s_s+0x3d>
    79e2:	48 8b 45 f8          	mov    -0x8(%rbp),%rax
    79e6:	48 99                	cqto   
    79e8:	48 f7 7d f0          	idivq  -0x10(%rbp)
    79ec:	48 89 d0             	mov    %rdx,%rax
    79ef:	eb 04                	jmp    79f5 <safe_mod_func_int64_t_s_s+0x41>
    79f1:	48 8b 45 f8          	mov    -0x8(%rbp),%rax
    79f5:	5d                   	pop    %rbp
    79f6:	c3                   	retq   

00000000000079f7 <safe_div_func_int64_t_s_s>:
    79f7:	f3 0f 1e fa          	endbr64 
    79fb:	55                   	push   %rbp
    79fc:	48 89 e5             	mov    %rsp,%rbp
    79ff:	48 89 7d f8          	mov    %rdi,-0x8(%rbp)
    7a03:	48 89 75 f0          	mov    %rsi,-0x10(%rbp)
    7a07:	48 83 7d f0 00       	cmpq   $0x0,-0x10(%rbp)
    7a0c:	74 23                	je     7a31 <safe_div_func_int64_t_s_s+0x3a>
    7a0e:	48 b8 00 00 00 00 00 	movabs $0x8000000000000000,%rax
    7a15:	00 00 80 
    7a18:	48 39 45 f8          	cmp    %rax,-0x8(%rbp)
    7a1c:	75 07                	jne    7a25 <safe_div_func_int64_t_s_s+0x2e>
    7a1e:	48 83 7d f0 ff       	cmpq   $0xffffffffffffffff,-0x10(%rbp)
    7a23:	74 0c                	je     7a31 <safe_div_func_int64_t_s_s+0x3a>
    7a25:	48 8b 45 f8          	mov    -0x8(%rbp),%rax
    7a29:	48 99                	cqto   
    7a2b:	48 f7 7d f0          	idivq  -0x10(%rbp)
    7a2f:	eb 04                	jmp    7a35 <safe_div_func_int64_t_s_s+0x3e>
    7a31:	48 8b 45 f8          	mov    -0x8(%rbp),%rax
    7a35:	5d                   	pop    %rbp
    7a36:	c3                   	retq   

0000000000007a37 <safe_lshift_func_int64_t_s_s>:
    7a37:	f3 0f 1e fa          	endbr64 
    7a3b:	55                   	push   %rbp
    7a3c:	48 89 e5             	mov    %rsp,%rbp
    7a3f:	48 89 7d f8          	mov    %rdi,-0x8(%rbp)
    7a43:	89 75 f4             	mov    %esi,-0xc(%rbp)
    7a46:	48 83 7d f8 00       	cmpq   $0x0,-0x8(%rbp)
    7a4b:	78 38                	js     7a85 <safe_lshift_func_int64_t_s_s+0x4e>
    7a4d:	83 7d f4 00          	cmpl   $0x0,-0xc(%rbp)
    7a51:	78 32                	js     7a85 <safe_lshift_func_int64_t_s_s+0x4e>
    7a53:	83 7d f4 1f          	cmpl   $0x1f,-0xc(%rbp)
    7a57:	7f 2c                	jg     7a85 <safe_lshift_func_int64_t_s_s+0x4e>
    7a59:	8b 45 f4             	mov    -0xc(%rbp),%eax
    7a5c:	48 ba ff ff ff ff ff 	movabs $0x7fffffffffffffff,%rdx
    7a63:	ff ff 7f 
    7a66:	89 c1                	mov    %eax,%ecx
    7a68:	48 d3 fa             	sar    %cl,%rdx
    7a6b:	48 89 d0             	mov    %rdx,%rax
    7a6e:	48 39 45 f8          	cmp    %rax,-0x8(%rbp)
    7a72:	7f 11                	jg     7a85 <safe_lshift_func_int64_t_s_s+0x4e>
    7a74:	8b 45 f4             	mov    -0xc(%rbp),%eax
    7a77:	48 8b 55 f8          	mov    -0x8(%rbp),%rdx
    7a7b:	89 c1                	mov    %eax,%ecx
    7a7d:	48 d3 e2             	shl    %cl,%rdx
    7a80:	48 89 d0             	mov    %rdx,%rax
    7a83:	eb 04                	jmp    7a89 <safe_lshift_func_int64_t_s_s+0x52>
    7a85:	48 8b 45 f8          	mov    -0x8(%rbp),%rax
    7a89:	5d                   	pop    %rbp
    7a8a:	c3                   	retq   

0000000000007a8b <safe_lshift_func_int64_t_s_u>:
    7a8b:	f3 0f 1e fa          	endbr64 
    7a8f:	55                   	push   %rbp
    7a90:	48 89 e5             	mov    %rsp,%rbp
    7a93:	48 89 7d f8          	mov    %rdi,-0x8(%rbp)
    7a97:	89 75 f4             	mov    %esi,-0xc(%rbp)
    7a9a:	48 83 7d f8 00       	cmpq   $0x0,-0x8(%rbp)
    7a9f:	78 32                	js     7ad3 <safe_lshift_func_int64_t_s_u+0x48>
    7aa1:	83 7d f4 1f          	cmpl   $0x1f,-0xc(%rbp)
    7aa5:	77 2c                	ja     7ad3 <safe_lshift_func_int64_t_s_u+0x48>
    7aa7:	8b 45 f4             	mov    -0xc(%rbp),%eax
    7aaa:	48 ba ff ff ff ff ff 	movabs $0x7fffffffffffffff,%rdx
    7ab1:	ff ff 7f 
    7ab4:	89 c1                	mov    %eax,%ecx
    7ab6:	48 d3 fa             	sar    %cl,%rdx
    7ab9:	48 89 d0             	mov    %rdx,%rax
    7abc:	48 39 45 f8          	cmp    %rax,-0x8(%rbp)
    7ac0:	7f 11                	jg     7ad3 <safe_lshift_func_int64_t_s_u+0x48>
    7ac2:	8b 45 f4             	mov    -0xc(%rbp),%eax
    7ac5:	48 8b 55 f8          	mov    -0x8(%rbp),%rdx
    7ac9:	89 c1                	mov    %eax,%ecx
    7acb:	48 d3 e2             	shl    %cl,%rdx
    7ace:	48 89 d0             	mov    %rdx,%rax
    7ad1:	eb 04                	jmp    7ad7 <safe_lshift_func_int64_t_s_u+0x4c>
    7ad3:	48 8b 45 f8          	mov    -0x8(%rbp),%rax
    7ad7:	5d                   	pop    %rbp
    7ad8:	c3                   	retq   

0000000000007ad9 <safe_rshift_func_int64_t_s_s>:
    7ad9:	f3 0f 1e fa          	endbr64 
    7add:	55                   	push   %rbp
    7ade:	48 89 e5             	mov    %rsp,%rbp
    7ae1:	48 89 7d f8          	mov    %rdi,-0x8(%rbp)
    7ae5:	89 75 f4             	mov    %esi,-0xc(%rbp)
    7ae8:	48 83 7d f8 00       	cmpq   $0x0,-0x8(%rbp)
    7aed:	78 1d                	js     7b0c <safe_rshift_func_int64_t_s_s+0x33>
    7aef:	83 7d f4 00          	cmpl   $0x0,-0xc(%rbp)
    7af3:	78 17                	js     7b0c <safe_rshift_func_int64_t_s_s+0x33>
    7af5:	83 7d f4 1f          	cmpl   $0x1f,-0xc(%rbp)
    7af9:	7f 11                	jg     7b0c <safe_rshift_func_int64_t_s_s+0x33>
    7afb:	8b 45 f4             	mov    -0xc(%rbp),%eax
    7afe:	48 8b 55 f8          	mov    -0x8(%rbp),%rdx
    7b02:	89 c1                	mov    %eax,%ecx
    7b04:	48 d3 fa             	sar    %cl,%rdx
    7b07:	48 89 d0             	mov    %rdx,%rax
    7b0a:	eb 04                	jmp    7b10 <safe_rshift_func_int64_t_s_s+0x37>
    7b0c:	48 8b 45 f8          	mov    -0x8(%rbp),%rax
    7b10:	5d                   	pop    %rbp
    7b11:	c3                   	retq   

0000000000007b12 <safe_rshift_func_int64_t_s_u>:
    7b12:	f3 0f 1e fa          	endbr64 
    7b16:	55                   	push   %rbp
    7b17:	48 89 e5             	mov    %rsp,%rbp
    7b1a:	48 89 7d f8          	mov    %rdi,-0x8(%rbp)
    7b1e:	89 75 f4             	mov    %esi,-0xc(%rbp)
    7b21:	48 83 7d f8 00       	cmpq   $0x0,-0x8(%rbp)
    7b26:	78 17                	js     7b3f <safe_rshift_func_int64_t_s_u+0x2d>
    7b28:	83 7d f4 1f          	cmpl   $0x1f,-0xc(%rbp)
    7b2c:	77 11                	ja     7b3f <safe_rshift_func_int64_t_s_u+0x2d>
    7b2e:	8b 45 f4             	mov    -0xc(%rbp),%eax
    7b31:	48 8b 55 f8          	mov    -0x8(%rbp),%rdx
    7b35:	89 c1                	mov    %eax,%ecx
    7b37:	48 d3 fa             	sar    %cl,%rdx
    7b3a:	48 89 d0             	mov    %rdx,%rax
    7b3d:	eb 04                	jmp    7b43 <safe_rshift_func_int64_t_s_u+0x31>
    7b3f:	48 8b 45 f8          	mov    -0x8(%rbp),%rax
    7b43:	5d                   	pop    %rbp
    7b44:	c3                   	retq   

0000000000007b45 <safe_unary_minus_func_uint8_t_u>:
    7b45:	f3 0f 1e fa          	endbr64 
    7b49:	55                   	push   %rbp
    7b4a:	48 89 e5             	mov    %rsp,%rbp
    7b4d:	89 f8                	mov    %edi,%eax
    7b4f:	88 45 fc             	mov    %al,-0x4(%rbp)
    7b52:	0f b6 45 fc          	movzbl -0x4(%rbp),%eax
    7b56:	f7 d8                	neg    %eax
    7b58:	5d                   	pop    %rbp
    7b59:	c3                   	retq   

0000000000007b5a <safe_add_func_uint8_t_u_u>:
    7b5a:	f3 0f 1e fa          	endbr64 
    7b5e:	55                   	push   %rbp
    7b5f:	48 89 e5             	mov    %rsp,%rbp
    7b62:	89 fa                	mov    %edi,%edx
    7b64:	89 f0                	mov    %esi,%eax
    7b66:	88 55 fc             	mov    %dl,-0x4(%rbp)
    7b69:	88 45 f8             	mov    %al,-0x8(%rbp)
    7b6c:	0f b6 55 fc          	movzbl -0x4(%rbp),%edx
    7b70:	0f b6 45 f8          	movzbl -0x8(%rbp),%eax
    7b74:	01 d0                	add    %edx,%eax
    7b76:	5d                   	pop    %rbp
    7b77:	c3                   	retq   

0000000000007b78 <safe_sub_func_uint8_t_u_u>:
    7b78:	f3 0f 1e fa          	endbr64 
    7b7c:	55                   	push   %rbp
    7b7d:	48 89 e5             	mov    %rsp,%rbp
    7b80:	89 fa                	mov    %edi,%edx
    7b82:	89 f0                	mov    %esi,%eax
    7b84:	88 55 fc             	mov    %dl,-0x4(%rbp)
    7b87:	88 45 f8             	mov    %al,-0x8(%rbp)
    7b8a:	0f b6 45 fc          	movzbl -0x4(%rbp),%eax
    7b8e:	2a 45 f8             	sub    -0x8(%rbp),%al
    7b91:	5d                   	pop    %rbp
    7b92:	c3                   	retq   

0000000000007b93 <safe_mul_func_uint8_t_u_u>:
    7b93:	f3 0f 1e fa          	endbr64 
    7b97:	55                   	push   %rbp
    7b98:	48 89 e5             	mov    %rsp,%rbp
    7b9b:	89 fa                	mov    %edi,%edx
    7b9d:	89 f0                	mov    %esi,%eax
    7b9f:	88 55 fc             	mov    %dl,-0x4(%rbp)
    7ba2:	88 45 f8             	mov    %al,-0x8(%rbp)
    7ba5:	0f b6 45 fc          	movzbl -0x4(%rbp),%eax
    7ba9:	f6 65 f8             	mulb   -0x8(%rbp)
    7bac:	5d                   	pop    %rbp
    7bad:	c3                   	retq   

0000000000007bae <safe_mod_func_uint8_t_u_u>:
    7bae:	f3 0f 1e fa          	endbr64 
    7bb2:	55                   	push   %rbp
    7bb3:	48 89 e5             	mov    %rsp,%rbp
    7bb6:	89 fa                	mov    %edi,%edx
    7bb8:	89 f0                	mov    %esi,%eax
    7bba:	88 55 fc             	mov    %dl,-0x4(%rbp)
    7bbd:	88 45 f8             	mov    %al,-0x8(%rbp)
    7bc0:	80 7d f8 00          	cmpb   $0x0,-0x8(%rbp)
    7bc4:	74 0f                	je     7bd5 <safe_mod_func_uint8_t_u_u+0x27>
    7bc6:	0f b6 45 fc          	movzbl -0x4(%rbp),%eax
    7bca:	0f b6 c0             	movzbl %al,%eax
    7bcd:	f6 75 f8             	divb   -0x8(%rbp)
    7bd0:	0f b6 c4             	movzbl %ah,%eax
    7bd3:	eb 04                	jmp    7bd9 <safe_mod_func_uint8_t_u_u+0x2b>
    7bd5:	0f b6 45 fc          	movzbl -0x4(%rbp),%eax
    7bd9:	5d                   	pop    %rbp
    7bda:	c3                   	retq   

0000000000007bdb <safe_div_func_uint8_t_u_u>:
    7bdb:	f3 0f 1e fa          	endbr64 
    7bdf:	55                   	push   %rbp
    7be0:	48 89 e5             	mov    %rsp,%rbp
    7be3:	89 fa                	mov    %edi,%edx
    7be5:	89 f0                	mov    %esi,%eax
    7be7:	88 55 fc             	mov    %dl,-0x4(%rbp)
    7bea:	88 45 f8             	mov    %al,-0x8(%rbp)
    7bed:	80 7d f8 00          	cmpb   $0x0,-0x8(%rbp)
    7bf1:	74 0c                	je     7bff <safe_div_func_uint8_t_u_u+0x24>
    7bf3:	0f b6 45 fc          	movzbl -0x4(%rbp),%eax
    7bf7:	0f b6 c0             	movzbl %al,%eax
    7bfa:	f6 75 f8             	divb   -0x8(%rbp)
    7bfd:	eb 04                	jmp    7c03 <safe_div_func_uint8_t_u_u+0x28>
    7bff:	0f b6 45 fc          	movzbl -0x4(%rbp),%eax
    7c03:	5d                   	pop    %rbp
    7c04:	c3                   	retq   

0000000000007c05 <safe_lshift_func_uint8_t_u_s>:
    7c05:	f3 0f 1e fa          	endbr64 
    7c09:	55                   	push   %rbp
    7c0a:	48 89 e5             	mov    %rsp,%rbp
    7c0d:	89 f8                	mov    %edi,%eax
    7c0f:	89 75 f8             	mov    %esi,-0x8(%rbp)
    7c12:	88 45 fc             	mov    %al,-0x4(%rbp)
    7c15:	83 7d f8 00          	cmpl   $0x0,-0x8(%rbp)
    7c19:	78 2b                	js     7c46 <safe_lshift_func_uint8_t_u_s+0x41>
    7c1b:	83 7d f8 1f          	cmpl   $0x1f,-0x8(%rbp)
    7c1f:	7f 25                	jg     7c46 <safe_lshift_func_uint8_t_u_s+0x41>
    7c21:	0f b6 55 fc          	movzbl -0x4(%rbp),%edx
    7c25:	8b 45 f8             	mov    -0x8(%rbp),%eax
    7c28:	be ff 00 00 00       	mov    $0xff,%esi
    7c2d:	89 c1                	mov    %eax,%ecx
    7c2f:	d3 fe                	sar    %cl,%esi
    7c31:	89 f0                	mov    %esi,%eax
    7c33:	39 c2                	cmp    %eax,%edx
    7c35:	7f 0f                	jg     7c46 <safe_lshift_func_uint8_t_u_s+0x41>
    7c37:	0f b6 55 fc          	movzbl -0x4(%rbp),%edx
    7c3b:	8b 45 f8             	mov    -0x8(%rbp),%eax
    7c3e:	89 c1                	mov    %eax,%ecx
    7c40:	d3 e2                	shl    %cl,%edx
    7c42:	89 d0                	mov    %edx,%eax
    7c44:	eb 04                	jmp    7c4a <safe_lshift_func_uint8_t_u_s+0x45>
    7c46:	0f b6 45 fc          	movzbl -0x4(%rbp),%eax
    7c4a:	5d                   	pop    %rbp
    7c4b:	c3                   	retq   

0000000000007c4c <safe_lshift_func_uint8_t_u_u>:
    7c4c:	f3 0f 1e fa          	endbr64 
    7c50:	55                   	push   %rbp
    7c51:	48 89 e5             	mov    %rsp,%rbp
    7c54:	89 f8                	mov    %edi,%eax
    7c56:	89 75 f8             	mov    %esi,-0x8(%rbp)
    7c59:	88 45 fc             	mov    %al,-0x4(%rbp)
    7c5c:	83 7d f8 1f          	cmpl   $0x1f,-0x8(%rbp)
    7c60:	77 25                	ja     7c87 <safe_lshift_func_uint8_t_u_u+0x3b>
    7c62:	0f b6 55 fc          	movzbl -0x4(%rbp),%edx
    7c66:	8b 45 f8             	mov    -0x8(%rbp),%eax
    7c69:	be ff 00 00 00       	mov    $0xff,%esi
    7c6e:	89 c1                	mov    %eax,%ecx
    7c70:	d3 fe                	sar    %cl,%esi
    7c72:	89 f0                	mov    %esi,%eax
    7c74:	39 c2                	cmp    %eax,%edx
    7c76:	7f 0f                	jg     7c87 <safe_lshift_func_uint8_t_u_u+0x3b>
    7c78:	0f b6 55 fc          	movzbl -0x4(%rbp),%edx
    7c7c:	8b 45 f8             	mov    -0x8(%rbp),%eax
    7c7f:	89 c1                	mov    %eax,%ecx
    7c81:	d3 e2                	shl    %cl,%edx
    7c83:	89 d0                	mov    %edx,%eax
    7c85:	eb 04                	jmp    7c8b <safe_lshift_func_uint8_t_u_u+0x3f>
    7c87:	0f b6 45 fc          	movzbl -0x4(%rbp),%eax
    7c8b:	5d                   	pop    %rbp
    7c8c:	c3                   	retq   

0000000000007c8d <safe_rshift_func_uint8_t_u_s>:
    7c8d:	f3 0f 1e fa          	endbr64 
    7c91:	55                   	push   %rbp
    7c92:	48 89 e5             	mov    %rsp,%rbp
    7c95:	89 f8                	mov    %edi,%eax
    7c97:	89 75 f8             	mov    %esi,-0x8(%rbp)
    7c9a:	88 45 fc             	mov    %al,-0x4(%rbp)
    7c9d:	83 7d f8 00          	cmpl   $0x0,-0x8(%rbp)
    7ca1:	78 15                	js     7cb8 <safe_rshift_func_uint8_t_u_s+0x2b>
    7ca3:	83 7d f8 1f          	cmpl   $0x1f,-0x8(%rbp)
    7ca7:	7f 0f                	jg     7cb8 <safe_rshift_func_uint8_t_u_s+0x2b>
    7ca9:	0f b6 55 fc          	movzbl -0x4(%rbp),%edx
    7cad:	8b 45 f8             	mov    -0x8(%rbp),%eax
    7cb0:	89 c1                	mov    %eax,%ecx
    7cb2:	d3 fa                	sar    %cl,%edx
    7cb4:	89 d0                	mov    %edx,%eax
    7cb6:	eb 04                	jmp    7cbc <safe_rshift_func_uint8_t_u_s+0x2f>
    7cb8:	0f b6 45 fc          	movzbl -0x4(%rbp),%eax
    7cbc:	5d                   	pop    %rbp
    7cbd:	c3                   	retq   

0000000000007cbe <safe_rshift_func_uint8_t_u_u>:
    7cbe:	f3 0f 1e fa          	endbr64 
    7cc2:	55                   	push   %rbp
    7cc3:	48 89 e5             	mov    %rsp,%rbp
    7cc6:	89 f8                	mov    %edi,%eax
    7cc8:	89 75 f8             	mov    %esi,-0x8(%rbp)
    7ccb:	88 45 fc             	mov    %al,-0x4(%rbp)
    7cce:	83 7d f8 1f          	cmpl   $0x1f,-0x8(%rbp)
    7cd2:	77 0f                	ja     7ce3 <safe_rshift_func_uint8_t_u_u+0x25>
    7cd4:	0f b6 55 fc          	movzbl -0x4(%rbp),%edx
    7cd8:	8b 45 f8             	mov    -0x8(%rbp),%eax
    7cdb:	89 c1                	mov    %eax,%ecx
    7cdd:	d3 fa                	sar    %cl,%edx
    7cdf:	89 d0                	mov    %edx,%eax
    7ce1:	eb 04                	jmp    7ce7 <safe_rshift_func_uint8_t_u_u+0x29>
    7ce3:	0f b6 45 fc          	movzbl -0x4(%rbp),%eax
    7ce7:	5d                   	pop    %rbp
    7ce8:	c3                   	retq   

0000000000007ce9 <safe_unary_minus_func_uint16_t_u>:
    7ce9:	f3 0f 1e fa          	endbr64 
    7ced:	55                   	push   %rbp
    7cee:	48 89 e5             	mov    %rsp,%rbp
    7cf1:	89 f8                	mov    %edi,%eax
    7cf3:	66 89 45 fc          	mov    %ax,-0x4(%rbp)
    7cf7:	0f b7 45 fc          	movzwl -0x4(%rbp),%eax
    7cfb:	f7 d8                	neg    %eax
    7cfd:	5d                   	pop    %rbp
    7cfe:	c3                   	retq   

0000000000007cff <safe_add_func_uint16_t_u_u>:
    7cff:	f3 0f 1e fa          	endbr64 
    7d03:	55                   	push   %rbp
    7d04:	48 89 e5             	mov    %rsp,%rbp
    7d07:	89 fa                	mov    %edi,%edx
    7d09:	89 f0                	mov    %esi,%eax
    7d0b:	66 89 55 fc          	mov    %dx,-0x4(%rbp)
    7d0f:	66 89 45 f8          	mov    %ax,-0x8(%rbp)
    7d13:	0f b7 55 fc          	movzwl -0x4(%rbp),%edx
    7d17:	0f b7 45 f8          	movzwl -0x8(%rbp),%eax
    7d1b:	01 d0                	add    %edx,%eax
    7d1d:	5d                   	pop    %rbp
    7d1e:	c3                   	retq   

0000000000007d1f <safe_sub_func_uint16_t_u_u>:
    7d1f:	f3 0f 1e fa          	endbr64 
    7d23:	55                   	push   %rbp
    7d24:	48 89 e5             	mov    %rsp,%rbp
    7d27:	89 fa                	mov    %edi,%edx
    7d29:	89 f0                	mov    %esi,%eax
    7d2b:	66 89 55 fc          	mov    %dx,-0x4(%rbp)
    7d2f:	66 89 45 f8          	mov    %ax,-0x8(%rbp)
    7d33:	0f b7 45 fc          	movzwl -0x4(%rbp),%eax
    7d37:	66 2b 45 f8          	sub    -0x8(%rbp),%ax
    7d3b:	5d                   	pop    %rbp
    7d3c:	c3                   	retq   

0000000000007d3d <safe_mul_func_uint16_t_u_u>:
    7d3d:	f3 0f 1e fa          	endbr64 
    7d41:	55                   	push   %rbp
    7d42:	48 89 e5             	mov    %rsp,%rbp
    7d45:	89 fa                	mov    %edi,%edx
    7d47:	89 f0                	mov    %esi,%eax
    7d49:	66 89 55 fc          	mov    %dx,-0x4(%rbp)
    7d4d:	66 89 45 f8          	mov    %ax,-0x8(%rbp)
    7d51:	0f b7 45 fc          	movzwl -0x4(%rbp),%eax
    7d55:	66 0f af 45 f8       	imul   -0x8(%rbp),%ax
    7d5a:	5d                   	pop    %rbp
    7d5b:	c3                   	retq   

0000000000007d5c <safe_mod_func_uint16_t_u_u>:
    7d5c:	f3 0f 1e fa          	endbr64 
    7d60:	55                   	push   %rbp
    7d61:	48 89 e5             	mov    %rsp,%rbp
    7d64:	89 fa                	mov    %edi,%edx
    7d66:	89 f0                	mov    %esi,%eax
    7d68:	66 89 55 fc          	mov    %dx,-0x4(%rbp)
    7d6c:	66 89 45 f8          	mov    %ax,-0x8(%rbp)
    7d70:	66 83 7d f8 00       	cmpw   $0x0,-0x8(%rbp)
    7d75:	74 11                	je     7d88 <safe_mod_func_uint16_t_u_u+0x2c>
    7d77:	0f b7 45 fc          	movzwl -0x4(%rbp),%eax
    7d7b:	ba 00 00 00 00       	mov    $0x0,%edx
    7d80:	66 f7 75 f8          	divw   -0x8(%rbp)
    7d84:	89 d0                	mov    %edx,%eax
    7d86:	eb 04                	jmp    7d8c <safe_mod_func_uint16_t_u_u+0x30>
    7d88:	0f b7 45 fc          	movzwl -0x4(%rbp),%eax
    7d8c:	5d                   	pop    %rbp
    7d8d:	c3                   	retq   

0000000000007d8e <safe_div_func_uint16_t_u_u>:
    7d8e:	f3 0f 1e fa          	endbr64 
    7d92:	55                   	push   %rbp
    7d93:	48 89 e5             	mov    %rsp,%rbp
    7d96:	89 fa                	mov    %edi,%edx
    7d98:	89 f0                	mov    %esi,%eax
    7d9a:	66 89 55 fc          	mov    %dx,-0x4(%rbp)
    7d9e:	66 89 45 f8          	mov    %ax,-0x8(%rbp)
    7da2:	66 83 7d f8 00       	cmpw   $0x0,-0x8(%rbp)
    7da7:	74 0f                	je     7db8 <safe_div_func_uint16_t_u_u+0x2a>
    7da9:	0f b7 45 fc          	movzwl -0x4(%rbp),%eax
    7dad:	ba 00 00 00 00       	mov    $0x0,%edx
    7db2:	66 f7 75 f8          	divw   -0x8(%rbp)
    7db6:	eb 04                	jmp    7dbc <safe_div_func_uint16_t_u_u+0x2e>
    7db8:	0f b7 45 fc          	movzwl -0x4(%rbp),%eax
    7dbc:	5d                   	pop    %rbp
    7dbd:	c3                   	retq   

0000000000007dbe <safe_lshift_func_uint16_t_u_s>:
    7dbe:	f3 0f 1e fa          	endbr64 
    7dc2:	55                   	push   %rbp
    7dc3:	48 89 e5             	mov    %rsp,%rbp
    7dc6:	89 f8                	mov    %edi,%eax
    7dc8:	89 75 f8             	mov    %esi,-0x8(%rbp)
    7dcb:	66 89 45 fc          	mov    %ax,-0x4(%rbp)
    7dcf:	83 7d f8 00          	cmpl   $0x0,-0x8(%rbp)
    7dd3:	78 2b                	js     7e00 <safe_lshift_func_uint16_t_u_s+0x42>
    7dd5:	83 7d f8 1f          	cmpl   $0x1f,-0x8(%rbp)
    7dd9:	7f 25                	jg     7e00 <safe_lshift_func_uint16_t_u_s+0x42>
    7ddb:	0f b7 55 fc          	movzwl -0x4(%rbp),%edx
    7ddf:	8b 45 f8             	mov    -0x8(%rbp),%eax
    7de2:	be ff ff 00 00       	mov    $0xffff,%esi
    7de7:	89 c1                	mov    %eax,%ecx
    7de9:	d3 fe                	sar    %cl,%esi
    7deb:	89 f0                	mov    %esi,%eax
    7ded:	39 c2                	cmp    %eax,%edx
    7def:	7f 0f                	jg     7e00 <safe_lshift_func_uint16_t_u_s+0x42>
    7df1:	0f b7 55 fc          	movzwl -0x4(%rbp),%edx
    7df5:	8b 45 f8             	mov    -0x8(%rbp),%eax
    7df8:	89 c1                	mov    %eax,%ecx
    7dfa:	d3 e2                	shl    %cl,%edx
    7dfc:	89 d0                	mov    %edx,%eax
    7dfe:	eb 04                	jmp    7e04 <safe_lshift_func_uint16_t_u_s+0x46>
    7e00:	0f b7 45 fc          	movzwl -0x4(%rbp),%eax
    7e04:	5d                   	pop    %rbp
    7e05:	c3                   	retq   

0000000000007e06 <safe_lshift_func_uint16_t_u_u>:
    7e06:	f3 0f 1e fa          	endbr64 
    7e0a:	55                   	push   %rbp
    7e0b:	48 89 e5             	mov    %rsp,%rbp
    7e0e:	89 f8                	mov    %edi,%eax
    7e10:	89 75 f8             	mov    %esi,-0x8(%rbp)
    7e13:	66 89 45 fc          	mov    %ax,-0x4(%rbp)
    7e17:	83 7d f8 1f          	cmpl   $0x1f,-0x8(%rbp)
    7e1b:	77 25                	ja     7e42 <safe_lshift_func_uint16_t_u_u+0x3c>
    7e1d:	0f b7 55 fc          	movzwl -0x4(%rbp),%edx
    7e21:	8b 45 f8             	mov    -0x8(%rbp),%eax
    7e24:	be ff ff 00 00       	mov    $0xffff,%esi
    7e29:	89 c1                	mov    %eax,%ecx
    7e2b:	d3 fe                	sar    %cl,%esi
    7e2d:	89 f0                	mov    %esi,%eax
    7e2f:	39 c2                	cmp    %eax,%edx
    7e31:	7f 0f                	jg     7e42 <safe_lshift_func_uint16_t_u_u+0x3c>
    7e33:	0f b7 55 fc          	movzwl -0x4(%rbp),%edx
    7e37:	8b 45 f8             	mov    -0x8(%rbp),%eax
    7e3a:	89 c1                	mov    %eax,%ecx
    7e3c:	d3 e2                	shl    %cl,%edx
    7e3e:	89 d0                	mov    %edx,%eax
    7e40:	eb 04                	jmp    7e46 <safe_lshift_func_uint16_t_u_u+0x40>
    7e42:	0f b7 45 fc          	movzwl -0x4(%rbp),%eax
    7e46:	5d                   	pop    %rbp
    7e47:	c3                   	retq   

0000000000007e48 <safe_rshift_func_uint16_t_u_s>:
    7e48:	f3 0f 1e fa          	endbr64 
    7e4c:	55                   	push   %rbp
    7e4d:	48 89 e5             	mov    %rsp,%rbp
    7e50:	89 f8                	mov    %edi,%eax
    7e52:	89 75 f8             	mov    %esi,-0x8(%rbp)
    7e55:	66 89 45 fc          	mov    %ax,-0x4(%rbp)
    7e59:	83 7d f8 00          	cmpl   $0x0,-0x8(%rbp)
    7e5d:	78 15                	js     7e74 <safe_rshift_func_uint16_t_u_s+0x2c>
    7e5f:	83 7d f8 1f          	cmpl   $0x1f,-0x8(%rbp)
    7e63:	7f 0f                	jg     7e74 <safe_rshift_func_uint16_t_u_s+0x2c>
    7e65:	0f b7 55 fc          	movzwl -0x4(%rbp),%edx
    7e69:	8b 45 f8             	mov    -0x8(%rbp),%eax
    7e6c:	89 c1                	mov    %eax,%ecx
    7e6e:	d3 fa                	sar    %cl,%edx
    7e70:	89 d0                	mov    %edx,%eax
    7e72:	eb 04                	jmp    7e78 <safe_rshift_func_uint16_t_u_s+0x30>
    7e74:	0f b7 45 fc          	movzwl -0x4(%rbp),%eax
    7e78:	5d                   	pop    %rbp
    7e79:	c3                   	retq   

0000000000007e7a <safe_rshift_func_uint16_t_u_u>:
    7e7a:	f3 0f 1e fa          	endbr64 
    7e7e:	55                   	push   %rbp
    7e7f:	48 89 e5             	mov    %rsp,%rbp
    7e82:	89 f8                	mov    %edi,%eax
    7e84:	89 75 f8             	mov    %esi,-0x8(%rbp)
    7e87:	66 89 45 fc          	mov    %ax,-0x4(%rbp)
    7e8b:	83 7d f8 1f          	cmpl   $0x1f,-0x8(%rbp)
    7e8f:	77 0f                	ja     7ea0 <safe_rshift_func_uint16_t_u_u+0x26>
    7e91:	0f b7 55 fc          	movzwl -0x4(%rbp),%edx
    7e95:	8b 45 f8             	mov    -0x8(%rbp),%eax
    7e98:	89 c1                	mov    %eax,%ecx
    7e9a:	d3 fa                	sar    %cl,%edx
    7e9c:	89 d0                	mov    %edx,%eax
    7e9e:	eb 04                	jmp    7ea4 <safe_rshift_func_uint16_t_u_u+0x2a>
    7ea0:	0f b7 45 fc          	movzwl -0x4(%rbp),%eax
    7ea4:	5d                   	pop    %rbp
    7ea5:	c3                   	retq   

0000000000007ea6 <safe_unary_minus_func_uint32_t_u>:
    7ea6:	f3 0f 1e fa          	endbr64 
    7eaa:	55                   	push   %rbp
    7eab:	48 89 e5             	mov    %rsp,%rbp
    7eae:	89 7d fc             	mov    %edi,-0x4(%rbp)
    7eb1:	8b 45 fc             	mov    -0x4(%rbp),%eax
    7eb4:	f7 d8                	neg    %eax
    7eb6:	5d                   	pop    %rbp
    7eb7:	c3                   	retq   

0000000000007eb8 <safe_add_func_uint32_t_u_u>:
    7eb8:	f3 0f 1e fa          	endbr64 
    7ebc:	55                   	push   %rbp
    7ebd:	48 89 e5             	mov    %rsp,%rbp
    7ec0:	89 7d fc             	mov    %edi,-0x4(%rbp)
    7ec3:	89 75 f8             	mov    %esi,-0x8(%rbp)
    7ec6:	8b 55 fc             	mov    -0x4(%rbp),%edx
    7ec9:	8b 45 f8             	mov    -0x8(%rbp),%eax
    7ecc:	01 d0                	add    %edx,%eax
    7ece:	5d                   	pop    %rbp
    7ecf:	c3                   	retq   

0000000000007ed0 <safe_sub_func_uint32_t_u_u>:
    7ed0:	f3 0f 1e fa          	endbr64 
    7ed4:	55                   	push   %rbp
    7ed5:	48 89 e5             	mov    %rsp,%rbp
    7ed8:	89 7d fc             	mov    %edi,-0x4(%rbp)
    7edb:	89 75 f8             	mov    %esi,-0x8(%rbp)
    7ede:	8b 45 fc             	mov    -0x4(%rbp),%eax
    7ee1:	2b 45 f8             	sub    -0x8(%rbp),%eax
    7ee4:	5d                   	pop    %rbp
    7ee5:	c3                   	retq   

0000000000007ee6 <safe_mul_func_uint32_t_u_u>:
    7ee6:	f3 0f 1e fa          	endbr64 
    7eea:	55                   	push   %rbp
    7eeb:	48 89 e5             	mov    %rsp,%rbp
    7eee:	89 7d fc             	mov    %edi,-0x4(%rbp)
    7ef1:	89 75 f8             	mov    %esi,-0x8(%rbp)
    7ef4:	8b 45 fc             	mov    -0x4(%rbp),%eax
    7ef7:	0f af 45 f8          	imul   -0x8(%rbp),%eax
    7efb:	5d                   	pop    %rbp
    7efc:	c3                   	retq   

0000000000007efd <safe_mod_func_uint32_t_u_u>:
    7efd:	f3 0f 1e fa          	endbr64 
    7f01:	55                   	push   %rbp
    7f02:	48 89 e5             	mov    %rsp,%rbp
    7f05:	89 7d fc             	mov    %edi,-0x4(%rbp)
    7f08:	89 75 f8             	mov    %esi,-0x8(%rbp)
    7f0b:	83 7d f8 00          	cmpl   $0x0,-0x8(%rbp)
    7f0f:	74 0f                	je     7f20 <safe_mod_func_uint32_t_u_u+0x23>
    7f11:	8b 45 fc             	mov    -0x4(%rbp),%eax
    7f14:	ba 00 00 00 00       	mov    $0x0,%edx
    7f19:	f7 75 f8             	divl   -0x8(%rbp)
    7f1c:	89 d0                	mov    %edx,%eax
    7f1e:	eb 03                	jmp    7f23 <safe_mod_func_uint32_t_u_u+0x26>
    7f20:	8b 45 fc             	mov    -0x4(%rbp),%eax
    7f23:	5d                   	pop    %rbp
    7f24:	c3                   	retq   

0000000000007f25 <safe_div_func_uint32_t_u_u>:
    7f25:	f3 0f 1e fa          	endbr64 
    7f29:	55                   	push   %rbp
    7f2a:	48 89 e5             	mov    %rsp,%rbp
    7f2d:	89 7d fc             	mov    %edi,-0x4(%rbp)
    7f30:	89 75 f8             	mov    %esi,-0x8(%rbp)
    7f33:	83 7d f8 00          	cmpl   $0x0,-0x8(%rbp)
    7f37:	74 0d                	je     7f46 <safe_div_func_uint32_t_u_u+0x21>
    7f39:	8b 45 fc             	mov    -0x4(%rbp),%eax
    7f3c:	ba 00 00 00 00       	mov    $0x0,%edx
    7f41:	f7 75 f8             	divl   -0x8(%rbp)
    7f44:	eb 03                	jmp    7f49 <safe_div_func_uint32_t_u_u+0x24>
    7f46:	8b 45 fc             	mov    -0x4(%rbp),%eax
    7f49:	5d                   	pop    %rbp
    7f4a:	c3                   	retq   

0000000000007f4b <safe_lshift_func_uint32_t_u_s>:
    7f4b:	f3 0f 1e fa          	endbr64 
    7f4f:	55                   	push   %rbp
    7f50:	48 89 e5             	mov    %rsp,%rbp
    7f53:	89 7d fc             	mov    %edi,-0x4(%rbp)
    7f56:	89 75 f8             	mov    %esi,-0x8(%rbp)
    7f59:	83 7d f8 00          	cmpl   $0x0,-0x8(%rbp)
    7f5d:	78 27                	js     7f86 <safe_lshift_func_uint32_t_u_s+0x3b>
    7f5f:	83 7d f8 1f          	cmpl   $0x1f,-0x8(%rbp)
    7f63:	7f 21                	jg     7f86 <safe_lshift_func_uint32_t_u_s+0x3b>
    7f65:	8b 45 f8             	mov    -0x8(%rbp),%eax
    7f68:	ba ff ff ff ff       	mov    $0xffffffff,%edx
    7f6d:	89 c1                	mov    %eax,%ecx
    7f6f:	d3 ea                	shr    %cl,%edx
    7f71:	89 d0                	mov    %edx,%eax
    7f73:	39 45 fc             	cmp    %eax,-0x4(%rbp)
    7f76:	77 0e                	ja     7f86 <safe_lshift_func_uint32_t_u_s+0x3b>
    7f78:	8b 45 f8             	mov    -0x8(%rbp),%eax
    7f7b:	8b 55 fc             	mov    -0x4(%rbp),%edx
    7f7e:	89 c1                	mov    %eax,%ecx
    7f80:	d3 e2                	shl    %cl,%edx
    7f82:	89 d0                	mov    %edx,%eax
    7f84:	eb 03                	jmp    7f89 <safe_lshift_func_uint32_t_u_s+0x3e>
    7f86:	8b 45 fc             	mov    -0x4(%rbp),%eax
    7f89:	5d                   	pop    %rbp
    7f8a:	c3                   	retq   

0000000000007f8b <safe_lshift_func_uint32_t_u_u>:
    7f8b:	f3 0f 1e fa          	endbr64 
    7f8f:	55                   	push   %rbp
    7f90:	48 89 e5             	mov    %rsp,%rbp
    7f93:	89 7d fc             	mov    %edi,-0x4(%rbp)
    7f96:	89 75 f8             	mov    %esi,-0x8(%rbp)
    7f99:	83 7d f8 1f          	cmpl   $0x1f,-0x8(%rbp)
    7f9d:	77 21                	ja     7fc0 <safe_lshift_func_uint32_t_u_u+0x35>
    7f9f:	8b 45 f8             	mov    -0x8(%rbp),%eax
    7fa2:	ba ff ff ff ff       	mov    $0xffffffff,%edx
    7fa7:	89 c1                	mov    %eax,%ecx
    7fa9:	d3 ea                	shr    %cl,%edx
    7fab:	89 d0                	mov    %edx,%eax
    7fad:	39 45 fc             	cmp    %eax,-0x4(%rbp)
    7fb0:	77 0e                	ja     7fc0 <safe_lshift_func_uint32_t_u_u+0x35>
    7fb2:	8b 45 f8             	mov    -0x8(%rbp),%eax
    7fb5:	8b 55 fc             	mov    -0x4(%rbp),%edx
    7fb8:	89 c1                	mov    %eax,%ecx
    7fba:	d3 e2                	shl    %cl,%edx
    7fbc:	89 d0                	mov    %edx,%eax
    7fbe:	eb 03                	jmp    7fc3 <safe_lshift_func_uint32_t_u_u+0x38>
    7fc0:	8b 45 fc             	mov    -0x4(%rbp),%eax
    7fc3:	5d                   	pop    %rbp
    7fc4:	c3                   	retq   

0000000000007fc5 <safe_rshift_func_uint32_t_u_s>:
    7fc5:	f3 0f 1e fa          	endbr64 
    7fc9:	55                   	push   %rbp
    7fca:	48 89 e5             	mov    %rsp,%rbp
    7fcd:	89 7d fc             	mov    %edi,-0x4(%rbp)
    7fd0:	89 75 f8             	mov    %esi,-0x8(%rbp)
    7fd3:	83 7d f8 00          	cmpl   $0x0,-0x8(%rbp)
    7fd7:	78 14                	js     7fed <safe_rshift_func_uint32_t_u_s+0x28>
    7fd9:	83 7d f8 1f          	cmpl   $0x1f,-0x8(%rbp)
    7fdd:	7f 0e                	jg     7fed <safe_rshift_func_uint32_t_u_s+0x28>
    7fdf:	8b 45 f8             	mov    -0x8(%rbp),%eax
    7fe2:	8b 55 fc             	mov    -0x4(%rbp),%edx
    7fe5:	89 c1                	mov    %eax,%ecx
    7fe7:	d3 ea                	shr    %cl,%edx
    7fe9:	89 d0                	mov    %edx,%eax
    7feb:	eb 03                	jmp    7ff0 <safe_rshift_func_uint32_t_u_s+0x2b>
    7fed:	8b 45 fc             	mov    -0x4(%rbp),%eax
    7ff0:	5d                   	pop    %rbp
    7ff1:	c3                   	retq   

0000000000007ff2 <safe_rshift_func_uint32_t_u_u>:
    7ff2:	f3 0f 1e fa          	endbr64 
    7ff6:	55                   	push   %rbp
    7ff7:	48 89 e5             	mov    %rsp,%rbp
    7ffa:	89 7d fc             	mov    %edi,-0x4(%rbp)
    7ffd:	89 75 f8             	mov    %esi,-0x8(%rbp)
    8000:	83 7d f8 1f          	cmpl   $0x1f,-0x8(%rbp)
    8004:	77 0e                	ja     8014 <safe_rshift_func_uint32_t_u_u+0x22>
    8006:	8b 45 f8             	mov    -0x8(%rbp),%eax
    8009:	8b 55 fc             	mov    -0x4(%rbp),%edx
    800c:	89 c1                	mov    %eax,%ecx
    800e:	d3 ea                	shr    %cl,%edx
    8010:	89 d0                	mov    %edx,%eax
    8012:	eb 03                	jmp    8017 <safe_rshift_func_uint32_t_u_u+0x25>
    8014:	8b 45 fc             	mov    -0x4(%rbp),%eax
    8017:	5d                   	pop    %rbp
    8018:	c3                   	retq   

0000000000008019 <safe_unary_minus_func_uint64_t_u>:
    8019:	f3 0f 1e fa          	endbr64 
    801d:	55                   	push   %rbp
    801e:	48 89 e5             	mov    %rsp,%rbp
    8021:	48 89 7d f8          	mov    %rdi,-0x8(%rbp)
    8025:	48 8b 45 f8          	mov    -0x8(%rbp),%rax
    8029:	48 f7 d8             	neg    %rax
    802c:	5d                   	pop    %rbp
    802d:	c3                   	retq   

000000000000802e <safe_add_func_uint64_t_u_u>:
    802e:	f3 0f 1e fa          	endbr64 
    8032:	55                   	push   %rbp
    8033:	48 89 e5             	mov    %rsp,%rbp
    8036:	48 89 7d f8          	mov    %rdi,-0x8(%rbp)
    803a:	48 89 75 f0          	mov    %rsi,-0x10(%rbp)
    803e:	48 8b 55 f8          	mov    -0x8(%rbp),%rdx
    8042:	48 8b 45 f0          	mov    -0x10(%rbp),%rax
    8046:	48 01 d0             	add    %rdx,%rax
    8049:	5d                   	pop    %rbp
    804a:	c3                   	retq   

000000000000804b <safe_sub_func_uint64_t_u_u>:
    804b:	f3 0f 1e fa          	endbr64 
    804f:	55                   	push   %rbp
    8050:	48 89 e5             	mov    %rsp,%rbp
    8053:	48 89 7d f8          	mov    %rdi,-0x8(%rbp)
    8057:	48 89 75 f0          	mov    %rsi,-0x10(%rbp)
    805b:	48 8b 45 f8          	mov    -0x8(%rbp),%rax
    805f:	48 2b 45 f0          	sub    -0x10(%rbp),%rax
    8063:	5d                   	pop    %rbp
    8064:	c3                   	retq   

0000000000008065 <safe_mul_func_uint64_t_u_u>:
    8065:	f3 0f 1e fa          	endbr64 
    8069:	55                   	push   %rbp
    806a:	48 89 e5             	mov    %rsp,%rbp
    806d:	48 89 7d f8          	mov    %rdi,-0x8(%rbp)
    8071:	48 89 75 f0          	mov    %rsi,-0x10(%rbp)
    8075:	48 8b 45 f8          	mov    -0x8(%rbp),%rax
    8079:	48 0f af 45 f0       	imul   -0x10(%rbp),%rax
    807e:	5d                   	pop    %rbp
    807f:	c3                   	retq   

0000000000008080 <safe_mod_func_uint64_t_u_u>:
    8080:	f3 0f 1e fa          	endbr64 
    8084:	55                   	push   %rbp
    8085:	48 89 e5             	mov    %rsp,%rbp
    8088:	48 89 7d f8          	mov    %rdi,-0x8(%rbp)
    808c:	48 89 75 f0          	mov    %rsi,-0x10(%rbp)
    8090:	48 83 7d f0 00       	cmpq   $0x0,-0x10(%rbp)
    8095:	74 12                	je     80a9 <safe_mod_func_uint64_t_u_u+0x29>
    8097:	48 8b 45 f8          	mov    -0x8(%rbp),%rax
    809b:	ba 00 00 00 00       	mov    $0x0,%edx
    80a0:	48 f7 75 f0          	divq   -0x10(%rbp)
    80a4:	48 89 d0             	mov    %rdx,%rax
    80a7:	eb 04                	jmp    80ad <safe_mod_func_uint64_t_u_u+0x2d>
    80a9:	48 8b 45 f8          	mov    -0x8(%rbp),%rax
    80ad:	5d                   	pop    %rbp
    80ae:	c3                   	retq   

00000000000080af <safe_div_func_uint64_t_u_u>:
    80af:	f3 0f 1e fa          	endbr64 
    80b3:	55                   	push   %rbp
    80b4:	48 89 e5             	mov    %rsp,%rbp
    80b7:	48 89 7d f8          	mov    %rdi,-0x8(%rbp)
    80bb:	48 89 75 f0          	mov    %rsi,-0x10(%rbp)
    80bf:	48 83 7d f0 00       	cmpq   $0x0,-0x10(%rbp)
    80c4:	74 0f                	je     80d5 <safe_div_func_uint64_t_u_u+0x26>
    80c6:	48 8b 45 f8          	mov    -0x8(%rbp),%rax
    80ca:	ba 00 00 00 00       	mov    $0x0,%edx
    80cf:	48 f7 75 f0          	divq   -0x10(%rbp)
    80d3:	eb 04                	jmp    80d9 <safe_div_func_uint64_t_u_u+0x2a>
    80d5:	48 8b 45 f8          	mov    -0x8(%rbp),%rax
    80d9:	5d                   	pop    %rbp
    80da:	c3                   	retq   

00000000000080db <safe_lshift_func_uint64_t_u_s>:
    80db:	f3 0f 1e fa          	endbr64 
    80df:	55                   	push   %rbp
    80e0:	48 89 e5             	mov    %rsp,%rbp
    80e3:	48 89 7d f8          	mov    %rdi,-0x8(%rbp)
    80e7:	89 75 f4             	mov    %esi,-0xc(%rbp)
    80ea:	83 7d f4 00          	cmpl   $0x0,-0xc(%rbp)
    80ee:	78 2f                	js     811f <safe_lshift_func_uint64_t_u_s+0x44>
    80f0:	83 7d f4 1f          	cmpl   $0x1f,-0xc(%rbp)
    80f4:	7f 29                	jg     811f <safe_lshift_func_uint64_t_u_s+0x44>
    80f6:	8b 45 f4             	mov    -0xc(%rbp),%eax
    80f9:	48 c7 c2 ff ff ff ff 	mov    $0xffffffffffffffff,%rdx
    8100:	89 c1                	mov    %eax,%ecx
    8102:	48 d3 ea             	shr    %cl,%rdx
    8105:	48 89 d0             	mov    %rdx,%rax
    8108:	48 39 45 f8          	cmp    %rax,-0x8(%rbp)
    810c:	77 11                	ja     811f <safe_lshift_func_uint64_t_u_s+0x44>
    810e:	8b 45 f4             	mov    -0xc(%rbp),%eax
    8111:	48 8b 55 f8          	mov    -0x8(%rbp),%rdx
    8115:	89 c1                	mov    %eax,%ecx
    8117:	48 d3 e2             	shl    %cl,%rdx
    811a:	48 89 d0             	mov    %rdx,%rax
    811d:	eb 04                	jmp    8123 <safe_lshift_func_uint64_t_u_s+0x48>
    811f:	48 8b 45 f8          	mov    -0x8(%rbp),%rax
    8123:	5d                   	pop    %rbp
    8124:	c3                   	retq   

0000000000008125 <safe_lshift_func_uint64_t_u_u>:
    8125:	f3 0f 1e fa          	endbr64 
    8129:	55                   	push   %rbp
    812a:	48 89 e5             	mov    %rsp,%rbp
    812d:	48 89 7d f8          	mov    %rdi,-0x8(%rbp)
    8131:	89 75 f4             	mov    %esi,-0xc(%rbp)
    8134:	83 7d f4 1f          	cmpl   $0x1f,-0xc(%rbp)
    8138:	77 29                	ja     8163 <safe_lshift_func_uint64_t_u_u+0x3e>
    813a:	8b 45 f4             	mov    -0xc(%rbp),%eax
    813d:	48 c7 c2 ff ff ff ff 	mov    $0xffffffffffffffff,%rdx
    8144:	89 c1                	mov    %eax,%ecx
    8146:	48 d3 ea             	shr    %cl,%rdx
    8149:	48 89 d0             	mov    %rdx,%rax
    814c:	48 39 45 f8          	cmp    %rax,-0x8(%rbp)
    8150:	77 11                	ja     8163 <safe_lshift_func_uint64_t_u_u+0x3e>
    8152:	8b 45 f4             	mov    -0xc(%rbp),%eax
    8155:	48 8b 55 f8          	mov    -0x8(%rbp),%rdx
    8159:	89 c1                	mov    %eax,%ecx
    815b:	48 d3 e2             	shl    %cl,%rdx
    815e:	48 89 d0             	mov    %rdx,%rax
    8161:	eb 04                	jmp    8167 <safe_lshift_func_uint64_t_u_u+0x42>
    8163:	48 8b 45 f8          	mov    -0x8(%rbp),%rax
    8167:	5d                   	pop    %rbp
    8168:	c3                   	retq   

0000000000008169 <safe_rshift_func_uint64_t_u_s>:
    8169:	f3 0f 1e fa          	endbr64 
    816d:	55                   	push   %rbp
    816e:	48 89 e5             	mov    %rsp,%rbp
    8171:	48 89 7d f8          	mov    %rdi,-0x8(%rbp)
    8175:	89 75 f4             	mov    %esi,-0xc(%rbp)
    8178:	83 7d f4 00          	cmpl   $0x0,-0xc(%rbp)
    817c:	78 17                	js     8195 <safe_rshift_func_uint64_t_u_s+0x2c>
    817e:	83 7d f4 1f          	cmpl   $0x1f,-0xc(%rbp)
    8182:	7f 11                	jg     8195 <safe_rshift_func_uint64_t_u_s+0x2c>
    8184:	8b 45 f4             	mov    -0xc(%rbp),%eax
    8187:	48 8b 55 f8          	mov    -0x8(%rbp),%rdx
    818b:	89 c1                	mov    %eax,%ecx
    818d:	48 d3 ea             	shr    %cl,%rdx
    8190:	48 89 d0             	mov    %rdx,%rax
    8193:	eb 04                	jmp    8199 <safe_rshift_func_uint64_t_u_s+0x30>
    8195:	48 8b 45 f8          	mov    -0x8(%rbp),%rax
    8199:	5d                   	pop    %rbp
    819a:	c3                   	retq   

000000000000819b <safe_rshift_func_uint64_t_u_u>:
    819b:	f3 0f 1e fa          	endbr64 
    819f:	55                   	push   %rbp
    81a0:	48 89 e5             	mov    %rsp,%rbp
    81a3:	48 89 7d f8          	mov    %rdi,-0x8(%rbp)
    81a7:	89 75 f4             	mov    %esi,-0xc(%rbp)
    81aa:	83 7d f4 1f          	cmpl   $0x1f,-0xc(%rbp)
    81ae:	77 11                	ja     81c1 <safe_rshift_func_uint64_t_u_u+0x26>
    81b0:	8b 45 f4             	mov    -0xc(%rbp),%eax
    81b3:	48 8b 55 f8          	mov    -0x8(%rbp),%rdx
    81b7:	89 c1                	mov    %eax,%ecx
    81b9:	48 d3 ea             	shr    %cl,%rdx
    81bc:	48 89 d0             	mov    %rdx,%rax
    81bf:	eb 04                	jmp    81c5 <safe_rshift_func_uint64_t_u_u+0x2a>
    81c1:	48 8b 45 f8          	mov    -0x8(%rbp),%rax
    81c5:	5d                   	pop    %rbp
    81c6:	c3                   	retq   

00000000000081c7 <safe_add_func_float_f_f>:
    81c7:	f3 0f 1e fa          	endbr64 
    81cb:	55                   	push   %rbp
    81cc:	48 89 e5             	mov    %rsp,%rbp
    81cf:	f3 0f 11 45 fc       	movss  %xmm0,-0x4(%rbp)
    81d4:	f3 0f 11 4d f8       	movss  %xmm1,-0x8(%rbp)
    81d9:	f3 0f 10 4d fc       	movss  -0x4(%rbp),%xmm1
    81de:	f3 0f 10 05 7e ef 00 	movss  0xef7e(%rip),%xmm0        # 17164 <l_497.4841+0x14>
    81e5:	00 
    81e6:	f3 0f 59 c8          	mulss  %xmm0,%xmm1
    81ea:	f3 0f 10 55 f8       	movss  -0x8(%rbp),%xmm2
    81ef:	f3 0f 10 05 6d ef 00 	movss  0xef6d(%rip),%xmm0        # 17164 <l_497.4841+0x14>
    81f6:	00 
    81f7:	f3 0f 59 c2          	mulss  %xmm2,%xmm0
    81fb:	f3 0f 58 c1          	addss  %xmm1,%xmm0
    81ff:	f3 0f 10 0d 69 ef 00 	movss  0xef69(%rip),%xmm1        # 17170 <l_497.4841+0x20>
    8206:	00 
    8207:	0f 54 c1             	andps  %xmm1,%xmm0
    820a:	0f 2f 05 6f ef 00 00 	comiss 0xef6f(%rip),%xmm0        # 17180 <l_497.4841+0x30>
    8211:	76 07                	jbe    821a <safe_add_func_float_f_f+0x53>
    8213:	f3 0f 10 45 fc       	movss  -0x4(%rbp),%xmm0
    8218:	eb 0a                	jmp    8224 <safe_add_func_float_f_f+0x5d>
    821a:	f3 0f 10 45 fc       	movss  -0x4(%rbp),%xmm0
    821f:	f3 0f 58 45 f8       	addss  -0x8(%rbp),%xmm0
    8224:	5d                   	pop    %rbp
    8225:	c3                   	retq   

0000000000008226 <safe_sub_func_float_f_f>:
    8226:	f3 0f 1e fa          	endbr64 
    822a:	55                   	push   %rbp
    822b:	48 89 e5             	mov    %rsp,%rbp
    822e:	f3 0f 11 45 fc       	movss  %xmm0,-0x4(%rbp)
    8233:	f3 0f 11 4d f8       	movss  %xmm1,-0x8(%rbp)
    8238:	f3 0f 10 4d fc       	movss  -0x4(%rbp),%xmm1
    823d:	f3 0f 10 05 1f ef 00 	movss  0xef1f(%rip),%xmm0        # 17164 <l_497.4841+0x14>
    8244:	00 
    8245:	f3 0f 59 c1          	mulss  %xmm1,%xmm0
    8249:	f3 0f 10 55 f8       	movss  -0x8(%rbp),%xmm2
    824e:	f3 0f 10 0d 0e ef 00 	movss  0xef0e(%rip),%xmm1        # 17164 <l_497.4841+0x14>
    8255:	00 
    8256:	f3 0f 59 ca          	mulss  %xmm2,%xmm1
    825a:	f3 0f 5c c1          	subss  %xmm1,%xmm0
    825e:	f3 0f 10 0d 0a ef 00 	movss  0xef0a(%rip),%xmm1        # 17170 <l_497.4841+0x20>
    8265:	00 
    8266:	0f 54 c1             	andps  %xmm1,%xmm0
    8269:	0f 2f 05 10 ef 00 00 	comiss 0xef10(%rip),%xmm0        # 17180 <l_497.4841+0x30>
    8270:	76 07                	jbe    8279 <safe_sub_func_float_f_f+0x53>
    8272:	f3 0f 10 45 fc       	movss  -0x4(%rbp),%xmm0
    8277:	eb 0a                	jmp    8283 <safe_sub_func_float_f_f+0x5d>
    8279:	f3 0f 10 45 fc       	movss  -0x4(%rbp),%xmm0
    827e:	f3 0f 5c 45 f8       	subss  -0x8(%rbp),%xmm0
    8283:	5d                   	pop    %rbp
    8284:	c3                   	retq   

0000000000008285 <safe_mul_func_float_f_f>:
    8285:	f3 0f 1e fa          	endbr64 
    8289:	55                   	push   %rbp
    828a:	48 89 e5             	mov    %rsp,%rbp
    828d:	f3 0f 11 45 fc       	movss  %xmm0,-0x4(%rbp)
    8292:	f3 0f 11 4d f8       	movss  %xmm1,-0x8(%rbp)
    8297:	f3 0f 10 4d fc       	movss  -0x4(%rbp),%xmm1
    829c:	f3 0f 10 05 e0 ee 00 	movss  0xeee0(%rip),%xmm0        # 17184 <l_497.4841+0x34>
    82a3:	00 
    82a4:	f3 0f 59 c8          	mulss  %xmm0,%xmm1
    82a8:	f3 0f 10 55 f8       	movss  -0x8(%rbp),%xmm2
    82ad:	f3 0f 10 05 d3 ee 00 	movss  0xeed3(%rip),%xmm0        # 17188 <l_497.4841+0x38>
    82b4:	00 
    82b5:	f3 0f 59 c2          	mulss  %xmm2,%xmm0
    82b9:	f3 0f 59 c1          	mulss  %xmm1,%xmm0
    82bd:	f3 0f 10 0d ab ee 00 	movss  0xeeab(%rip),%xmm1        # 17170 <l_497.4841+0x20>
    82c4:	00 
    82c5:	0f 54 c1             	andps  %xmm1,%xmm0
    82c8:	0f 2f 05 bd ee 00 00 	comiss 0xeebd(%rip),%xmm0        # 1718c <l_497.4841+0x3c>
    82cf:	76 07                	jbe    82d8 <safe_mul_func_float_f_f+0x53>
    82d1:	f3 0f 10 45 fc       	movss  -0x4(%rbp),%xmm0
    82d6:	eb 0a                	jmp    82e2 <safe_mul_func_float_f_f+0x5d>
    82d8:	f3 0f 10 45 fc       	movss  -0x4(%rbp),%xmm0
    82dd:	f3 0f 59 45 f8       	mulss  -0x8(%rbp),%xmm0
    82e2:	5d                   	pop    %rbp
    82e3:	c3                   	retq   

00000000000082e4 <safe_div_func_float_f_f>:
    82e4:	f3 0f 1e fa          	endbr64 
    82e8:	55                   	push   %rbp
    82e9:	48 89 e5             	mov    %rsp,%rbp
    82ec:	f3 0f 11 45 fc       	movss  %xmm0,-0x4(%rbp)
    82f1:	f3 0f 11 4d f8       	movss  %xmm1,-0x8(%rbp)
    82f6:	f3 0f 10 45 f8       	movss  -0x8(%rbp),%xmm0
    82fb:	f3 0f 10 0d 6d ee 00 	movss  0xee6d(%rip),%xmm1        # 17170 <l_497.4841+0x20>
    8302:	00 
    8303:	0f 54 c8             	andps  %xmm0,%xmm1
    8306:	f3 0f 10 05 82 ee 00 	movss  0xee82(%rip),%xmm0        # 17190 <l_497.4841+0x40>
    830d:	00 
    830e:	0f 2f c1             	comiss %xmm1,%xmm0
    8311:	0f 97 c0             	seta   %al
    8314:	83 f0 01             	xor    $0x1,%eax
    8317:	84 c0                	test   %al,%al
    8319:	75 56                	jne    8371 <safe_div_func_float_f_f+0x8d>
    831b:	66 0f ef c0          	pxor   %xmm0,%xmm0
    831f:	0f 2e 45 f8          	ucomiss -0x8(%rbp),%xmm0
    8323:	7a 0a                	jp     832f <safe_div_func_float_f_f+0x4b>
    8325:	66 0f ef c0          	pxor   %xmm0,%xmm0
    8329:	0f 2e 45 f8          	ucomiss -0x8(%rbp),%xmm0
    832d:	74 4e                	je     837d <safe_div_func_float_f_f+0x99>
    832f:	f3 0f 10 4d fc       	movss  -0x4(%rbp),%xmm1
    8334:	f3 0f 10 05 58 ee 00 	movss  0xee58(%rip),%xmm0        # 17194 <l_497.4841+0x44>
    833b:	00 
    833c:	f3 0f 59 c1          	mulss  %xmm1,%xmm0
    8340:	f3 0f 10 55 f8       	movss  -0x8(%rbp),%xmm2
    8345:	f3 0f 10 0d 4b ee 00 	movss  0xee4b(%rip),%xmm1        # 17198 <l_497.4841+0x48>
    834c:	00 
    834d:	f3 0f 59 ca          	mulss  %xmm2,%xmm1
    8351:	f3 0f 5e c1          	divss  %xmm1,%xmm0
    8355:	f3 0f 10 0d 13 ee 00 	movss  0xee13(%rip),%xmm1        # 17170 <l_497.4841+0x20>
    835c:	00 
    835d:	0f 54 c1             	andps  %xmm1,%xmm0
    8360:	0f 2f 05 35 ee 00 00 	comiss 0xee35(%rip),%xmm0        # 1719c <l_497.4841+0x4c>
    8367:	0f 97 c0             	seta   %al
    836a:	83 f0 01             	xor    $0x1,%eax
    836d:	84 c0                	test   %al,%al
    836f:	74 0c                	je     837d <safe_div_func_float_f_f+0x99>
    8371:	f3 0f 10 45 fc       	movss  -0x4(%rbp),%xmm0
    8376:	f3 0f 5e 45 f8       	divss  -0x8(%rbp),%xmm0
    837b:	eb 05                	jmp    8382 <safe_div_func_float_f_f+0x9e>
    837d:	f3 0f 10 45 fc       	movss  -0x4(%rbp),%xmm0
    8382:	5d                   	pop    %rbp
    8383:	c3                   	retq   

0000000000008384 <safe_add_func_double_f_f>:
    8384:	f3 0f 1e fa          	endbr64 
    8388:	55                   	push   %rbp
    8389:	48 89 e5             	mov    %rsp,%rbp
    838c:	f2 0f 11 45 f8       	movsd  %xmm0,-0x8(%rbp)
    8391:	f2 0f 11 4d f0       	movsd  %xmm1,-0x10(%rbp)
    8396:	f2 0f 10 4d f8       	movsd  -0x8(%rbp),%xmm1
    839b:	f2 0f 10 05 fd ed 00 	movsd  0xedfd(%rip),%xmm0        # 171a0 <l_497.4841+0x50>
    83a2:	00 
    83a3:	f2 0f 59 c8          	mulsd  %xmm0,%xmm1
    83a7:	f2 0f 10 55 f0       	movsd  -0x10(%rbp),%xmm2
    83ac:	f2 0f 10 05 ec ed 00 	movsd  0xedec(%rip),%xmm0        # 171a0 <l_497.4841+0x50>
    83b3:	00 
    83b4:	f2 0f 59 c2          	mulsd  %xmm2,%xmm0
    83b8:	f2 0f 58 c1          	addsd  %xmm1,%xmm0
    83bc:	f3 0f 7e 0d ec ed 00 	movq   0xedec(%rip),%xmm1        # 171b0 <l_497.4841+0x60>
    83c3:	00 
    83c4:	66 0f 54 c1          	andpd  %xmm1,%xmm0
    83c8:	66 0f 2f 05 f0 ed 00 	comisd 0xedf0(%rip),%xmm0        # 171c0 <l_497.4841+0x70>
    83cf:	00 
    83d0:	76 07                	jbe    83d9 <safe_add_func_double_f_f+0x55>
    83d2:	f2 0f 10 45 f8       	movsd  -0x8(%rbp),%xmm0
    83d7:	eb 0a                	jmp    83e3 <safe_add_func_double_f_f+0x5f>
    83d9:	f2 0f 10 45 f8       	movsd  -0x8(%rbp),%xmm0
    83de:	f2 0f 58 45 f0       	addsd  -0x10(%rbp),%xmm0
    83e3:	5d                   	pop    %rbp
    83e4:	c3                   	retq   

00000000000083e5 <safe_sub_func_double_f_f>:
    83e5:	f3 0f 1e fa          	endbr64 
    83e9:	55                   	push   %rbp
    83ea:	48 89 e5             	mov    %rsp,%rbp
    83ed:	f2 0f 11 45 f8       	movsd  %xmm0,-0x8(%rbp)
    83f2:	f2 0f 11 4d f0       	movsd  %xmm1,-0x10(%rbp)
    83f7:	f2 0f 10 4d f8       	movsd  -0x8(%rbp),%xmm1
    83fc:	f2 0f 10 05 9c ed 00 	movsd  0xed9c(%rip),%xmm0        # 171a0 <l_497.4841+0x50>
    8403:	00 
    8404:	f2 0f 59 c1          	mulsd  %xmm1,%xmm0
    8408:	f2 0f 10 55 f0       	movsd  -0x10(%rbp),%xmm2
    840d:	f2 0f 10 0d 8b ed 00 	movsd  0xed8b(%rip),%xmm1        # 171a0 <l_497.4841+0x50>
    8414:	00 
    8415:	f2 0f 59 ca          	mulsd  %xmm2,%xmm1
    8419:	f2 0f 5c c1          	subsd  %xmm1,%xmm0
    841d:	f3 0f 7e 0d 8b ed 00 	movq   0xed8b(%rip),%xmm1        # 171b0 <l_497.4841+0x60>
    8424:	00 
    8425:	66 0f 54 c1          	andpd  %xmm1,%xmm0
    8429:	66 0f 2f 05 8f ed 00 	comisd 0xed8f(%rip),%xmm0        # 171c0 <l_497.4841+0x70>
    8430:	00 
    8431:	76 07                	jbe    843a <safe_sub_func_double_f_f+0x55>
    8433:	f2 0f 10 45 f8       	movsd  -0x8(%rbp),%xmm0
    8438:	eb 0a                	jmp    8444 <safe_sub_func_double_f_f+0x5f>
    843a:	f2 0f 10 45 f8       	movsd  -0x8(%rbp),%xmm0
    843f:	f2 0f 5c 45 f0       	subsd  -0x10(%rbp),%xmm0
    8444:	5d                   	pop    %rbp
    8445:	c3                   	retq   

0000000000008446 <safe_mul_func_double_f_f>:
    8446:	f3 0f 1e fa          	endbr64 
    844a:	55                   	push   %rbp
    844b:	48 89 e5             	mov    %rsp,%rbp
    844e:	f2 0f 11 45 f8       	movsd  %xmm0,-0x8(%rbp)
    8453:	f2 0f 11 4d f0       	movsd  %xmm1,-0x10(%rbp)
    8458:	f2 0f 10 4d f8       	movsd  -0x8(%rbp),%xmm1
    845d:	f2 0f 10 05 63 ed 00 	movsd  0xed63(%rip),%xmm0        # 171c8 <l_497.4841+0x78>
    8464:	00 
    8465:	f2 0f 59 c8          	mulsd  %xmm0,%xmm1
    8469:	f2 0f 10 55 f0       	movsd  -0x10(%rbp),%xmm2
    846e:	f2 0f 10 05 5a ed 00 	movsd  0xed5a(%rip),%xmm0        # 171d0 <l_497.4841+0x80>
    8475:	00 
    8476:	f2 0f 59 c2          	mulsd  %xmm2,%xmm0
    847a:	f2 0f 59 c1          	mulsd  %xmm1,%xmm0
    847e:	f3 0f 7e 0d 2a ed 00 	movq   0xed2a(%rip),%xmm1        # 171b0 <l_497.4841+0x60>
    8485:	00 
    8486:	66 0f 54 c1          	andpd  %xmm1,%xmm0
    848a:	66 0f 2f 05 46 ed 00 	comisd 0xed46(%rip),%xmm0        # 171d8 <l_497.4841+0x88>
    8491:	00 
    8492:	76 07                	jbe    849b <safe_mul_func_double_f_f+0x55>
    8494:	f2 0f 10 45 f8       	movsd  -0x8(%rbp),%xmm0
    8499:	eb 0a                	jmp    84a5 <safe_mul_func_double_f_f+0x5f>
    849b:	f2 0f 10 45 f8       	movsd  -0x8(%rbp),%xmm0
    84a0:	f2 0f 59 45 f0       	mulsd  -0x10(%rbp),%xmm0
    84a5:	5d                   	pop    %rbp
    84a6:	c3                   	retq   

00000000000084a7 <safe_div_func_double_f_f>:
    84a7:	f3 0f 1e fa          	endbr64 
    84ab:	55                   	push   %rbp
    84ac:	48 89 e5             	mov    %rsp,%rbp
    84af:	f2 0f 11 45 f8       	movsd  %xmm0,-0x8(%rbp)
    84b4:	f2 0f 11 4d f0       	movsd  %xmm1,-0x10(%rbp)
    84b9:	f2 0f 10 45 f0       	movsd  -0x10(%rbp),%xmm0
    84be:	f3 0f 7e 0d ea ec 00 	movq   0xecea(%rip),%xmm1        # 171b0 <l_497.4841+0x60>
    84c5:	00 
    84c6:	66 0f 54 c8          	andpd  %xmm0,%xmm1
    84ca:	f2 0f 10 05 0e ed 00 	movsd  0xed0e(%rip),%xmm0        # 171e0 <l_497.4841+0x90>
    84d1:	00 
    84d2:	66 0f 2f c1          	comisd %xmm1,%xmm0
    84d6:	0f 97 c0             	seta   %al
    84d9:	83 f0 01             	xor    $0x1,%eax
    84dc:	84 c0                	test   %al,%al
    84de:	75 5a                	jne    853a <safe_div_func_double_f_f+0x93>
    84e0:	66 0f ef c0          	pxor   %xmm0,%xmm0
    84e4:	66 0f 2e 45 f0       	ucomisd -0x10(%rbp),%xmm0
    84e9:	7a 0b                	jp     84f6 <safe_div_func_double_f_f+0x4f>
    84eb:	66 0f ef c0          	pxor   %xmm0,%xmm0
    84ef:	66 0f 2e 45 f0       	ucomisd -0x10(%rbp),%xmm0
    84f4:	74 50                	je     8546 <safe_div_func_double_f_f+0x9f>
    84f6:	f2 0f 10 4d f8       	movsd  -0x8(%rbp),%xmm1
    84fb:	f2 0f 10 05 e5 ec 00 	movsd  0xece5(%rip),%xmm0        # 171e8 <l_497.4841+0x98>
    8502:	00 
    8503:	f2 0f 59 c1          	mulsd  %xmm1,%xmm0
    8507:	f2 0f 10 55 f0       	movsd  -0x10(%rbp),%xmm2
    850c:	f2 0f 10 0d dc ec 00 	movsd  0xecdc(%rip),%xmm1        # 171f0 <l_497.4841+0xa0>
    8513:	00 
    8514:	f2 0f 59 ca          	mulsd  %xmm2,%xmm1
    8518:	f2 0f 5e c1          	divsd  %xmm1,%xmm0
    851c:	f3 0f 7e 0d 8c ec 00 	movq   0xec8c(%rip),%xmm1        # 171b0 <l_497.4841+0x60>
    8523:	00 
    8524:	66 0f 54 c1          	andpd  %xmm1,%xmm0
    8528:	66 0f 2f 05 c8 ec 00 	comisd 0xecc8(%rip),%xmm0        # 171f8 <l_497.4841+0xa8>
    852f:	00 
    8530:	0f 97 c0             	seta   %al
    8533:	83 f0 01             	xor    $0x1,%eax
    8536:	84 c0                	test   %al,%al
    8538:	74 0c                	je     8546 <safe_div_func_double_f_f+0x9f>
    853a:	f2 0f 10 45 f8       	movsd  -0x8(%rbp),%xmm0
    853f:	f2 0f 5e 45 f0       	divsd  -0x10(%rbp),%xmm0
    8544:	eb 05                	jmp    854b <safe_div_func_double_f_f+0xa4>
    8546:	f2 0f 10 45 f8       	movsd  -0x8(%rbp),%xmm0
    854b:	5d                   	pop    %rbp
    854c:	c3                   	retq   

000000000000854d <safe_convert_func_float_to_int32_t>:
    854d:	f3 0f 1e fa          	endbr64 
    8551:	55                   	push   %rbp
    8552:	48 89 e5             	mov    %rsp,%rbp
    8555:	f3 0f 11 45 fc       	movss  %xmm0,-0x4(%rbp)
    855a:	f3 0f 10 05 9e ec 00 	movss  0xec9e(%rip),%xmm0        # 17200 <l_497.4841+0xb0>
    8561:	00 
    8562:	0f 2f 45 fc          	comiss -0x4(%rbp),%xmm0
    8566:	0f 93 c0             	setae  %al
    8569:	83 f0 01             	xor    $0x1,%eax
    856c:	84 c0                	test   %al,%al
    856e:	74 21                	je     8591 <safe_convert_func_float_to_int32_t+0x44>
    8570:	f3 0f 10 45 fc       	movss  -0x4(%rbp),%xmm0
    8575:	0f 2f 05 88 ec 00 00 	comiss 0xec88(%rip),%xmm0        # 17204 <l_497.4841+0xb4>
    857c:	0f 93 c0             	setae  %al
    857f:	83 f0 01             	xor    $0x1,%eax
    8582:	84 c0                	test   %al,%al
    8584:	74 0b                	je     8591 <safe_convert_func_float_to_int32_t+0x44>
    8586:	f3 0f 10 45 fc       	movss  -0x4(%rbp),%xmm0
    858b:	f3 0f 2c c0          	cvttss2si %xmm0,%eax
    858f:	eb 05                	jmp    8596 <safe_convert_func_float_to_int32_t+0x49>
    8591:	b8 ff ff ff 7f       	mov    $0x7fffffff,%eax
    8596:	5d                   	pop    %rbp
    8597:	c3                   	retq   

0000000000008598 <crc32_gentab>:
    8598:	f3 0f 1e fa          	endbr64 
    859c:	55                   	push   %rbp
    859d:	48 89 e5             	mov    %rsp,%rbp
    85a0:	c7 45 fc 20 83 b8 ed 	movl   $0xedb88320,-0x4(%rbp)
    85a7:	c7 45 f4 00 00 00 00 	movl   $0x0,-0xc(%rbp)
    85ae:	eb 51                	jmp    8601 <crc32_gentab+0x69>
    85b0:	8b 45 f4             	mov    -0xc(%rbp),%eax
    85b3:	89 45 f0             	mov    %eax,-0x10(%rbp)
    85b6:	c7 45 f8 08 00 00 00 	movl   $0x8,-0x8(%rbp)
    85bd:	eb 1e                	jmp    85dd <crc32_gentab+0x45>
    85bf:	8b 45 f0             	mov    -0x10(%rbp),%eax
    85c2:	83 e0 01             	and    $0x1,%eax
    85c5:	85 c0                	test   %eax,%eax
    85c7:	74 0d                	je     85d6 <crc32_gentab+0x3e>
    85c9:	8b 45 f0             	mov    -0x10(%rbp),%eax
    85cc:	d1 e8                	shr    %eax
    85ce:	33 45 fc             	xor    -0x4(%rbp),%eax
    85d1:	89 45 f0             	mov    %eax,-0x10(%rbp)
    85d4:	eb 03                	jmp    85d9 <crc32_gentab+0x41>
    85d6:	d1 6d f0             	shrl   -0x10(%rbp)
    85d9:	83 6d f8 01          	subl   $0x1,-0x8(%rbp)
    85dd:	83 7d f8 00          	cmpl   $0x0,-0x8(%rbp)
    85e1:	7f dc                	jg     85bf <crc32_gentab+0x27>
    85e3:	8b 45 f4             	mov    -0xc(%rbp),%eax
    85e6:	48 98                	cltq   
    85e8:	48 8d 0c 85 00 00 00 	lea    0x0(,%rax,4),%rcx
    85ef:	00 
    85f0:	48 8d 15 29 4c 01 00 	lea    0x14c29(%rip),%rdx        # 1d220 <crc32_tab>
    85f7:	8b 45 f0             	mov    -0x10(%rbp),%eax
    85fa:	89 04 11             	mov    %eax,(%rcx,%rdx,1)
    85fd:	83 45 f4 01          	addl   $0x1,-0xc(%rbp)
    8601:	81 7d f4 ff 00 00 00 	cmpl   $0xff,-0xc(%rbp)
    8608:	7e a6                	jle    85b0 <crc32_gentab+0x18>
    860a:	90                   	nop
    860b:	90                   	nop
    860c:	5d                   	pop    %rbp
    860d:	c3                   	retq   

000000000000860e <crc32_byte>:
    860e:	f3 0f 1e fa          	endbr64 
    8612:	55                   	push   %rbp
    8613:	48 89 e5             	mov    %rsp,%rbp
    8616:	89 f8                	mov    %edi,%eax
    8618:	88 45 fc             	mov    %al,-0x4(%rbp)
    861b:	8b 05 ff 19 01 00    	mov    0x119ff(%rip),%eax        # 1a020 <crc32_context>
    8621:	c1 e8 08             	shr    $0x8,%eax
    8624:	89 c1                	mov    %eax,%ecx
    8626:	0f b6 55 fc          	movzbl -0x4(%rbp),%edx
    862a:	8b 05 f0 19 01 00    	mov    0x119f0(%rip),%eax        # 1a020 <crc32_context>
    8630:	31 d0                	xor    %edx,%eax
    8632:	0f b6 c0             	movzbl %al,%eax
    8635:	89 c0                	mov    %eax,%eax
    8637:	48 8d 14 85 00 00 00 	lea    0x0(,%rax,4),%rdx
    863e:	00 
    863f:	48 8d 05 da 4b 01 00 	lea    0x14bda(%rip),%rax        # 1d220 <crc32_tab>
    8646:	8b 04 02             	mov    (%rdx,%rax,1),%eax
    8649:	31 c8                	xor    %ecx,%eax
    864b:	89 05 cf 19 01 00    	mov    %eax,0x119cf(%rip)        # 1a020 <crc32_context>
    8651:	90                   	nop
    8652:	5d                   	pop    %rbp
    8653:	c3                   	retq   

0000000000008654 <crc32_8bytes>:
    8654:	f3 0f 1e fa          	endbr64 
    8658:	55                   	push   %rbp
    8659:	48 89 e5             	mov    %rsp,%rbp
    865c:	48 83 ec 08          	sub    $0x8,%rsp
    8660:	48 89 7d f8          	mov    %rdi,-0x8(%rbp)
    8664:	48 8b 45 f8          	mov    -0x8(%rbp),%rax
    8668:	0f b6 c0             	movzbl %al,%eax
    866b:	89 c7                	mov    %eax,%edi
    866d:	e8 9c ff ff ff       	callq  860e <crc32_byte>
    8672:	48 8b 45 f8          	mov    -0x8(%rbp),%rax
    8676:	48 c1 e8 08          	shr    $0x8,%rax
    867a:	0f b6 c0             	movzbl %al,%eax
    867d:	89 c7                	mov    %eax,%edi
    867f:	e8 8a ff ff ff       	callq  860e <crc32_byte>
    8684:	48 8b 45 f8          	mov    -0x8(%rbp),%rax
    8688:	48 c1 e8 10          	shr    $0x10,%rax
    868c:	0f b6 c0             	movzbl %al,%eax
    868f:	89 c7                	mov    %eax,%edi
    8691:	e8 78 ff ff ff       	callq  860e <crc32_byte>
    8696:	48 8b 45 f8          	mov    -0x8(%rbp),%rax
    869a:	48 c1 e8 18          	shr    $0x18,%rax
    869e:	0f b6 c0             	movzbl %al,%eax
    86a1:	89 c7                	mov    %eax,%edi
    86a3:	e8 66 ff ff ff       	callq  860e <crc32_byte>
    86a8:	48 8b 45 f8          	mov    -0x8(%rbp),%rax
    86ac:	48 c1 e8 20          	shr    $0x20,%rax
    86b0:	0f b6 c0             	movzbl %al,%eax
    86b3:	89 c7                	mov    %eax,%edi
    86b5:	e8 54 ff ff ff       	callq  860e <crc32_byte>
    86ba:	48 8b 45 f8          	mov    -0x8(%rbp),%rax
    86be:	48 c1 e8 28          	shr    $0x28,%rax
    86c2:	0f b6 c0             	movzbl %al,%eax
    86c5:	89 c7                	mov    %eax,%edi
    86c7:	e8 42 ff ff ff       	callq  860e <crc32_byte>
    86cc:	48 8b 45 f8          	mov    -0x8(%rbp),%rax
    86d0:	48 c1 e8 30          	shr    $0x30,%rax
    86d4:	0f b6 c0             	movzbl %al,%eax
    86d7:	89 c7                	mov    %eax,%edi
    86d9:	e8 30 ff ff ff       	callq  860e <crc32_byte>
    86de:	48 8b 45 f8          	mov    -0x8(%rbp),%rax
    86e2:	48 c1 e8 38          	shr    $0x38,%rax
    86e6:	0f b6 c0             	movzbl %al,%eax
    86e9:	89 c7                	mov    %eax,%edi
    86eb:	e8 1e ff ff ff       	callq  860e <crc32_byte>
    86f0:	90                   	nop
    86f1:	c9                   	leaveq 
    86f2:	c3                   	retq   

00000000000086f3 <transparent_crc>:
    86f3:	f3 0f 1e fa          	endbr64 
    86f7:	55                   	push   %rbp
    86f8:	48 89 e5             	mov    %rsp,%rbp
    86fb:	48 83 ec 20          	sub    $0x20,%rsp
    86ff:	48 89 7d f8          	mov    %rdi,-0x8(%rbp)
    8703:	48 89 75 f0          	mov    %rsi,-0x10(%rbp)
    8707:	89 55 ec             	mov    %edx,-0x14(%rbp)
    870a:	48 8b 45 f8          	mov    -0x8(%rbp),%rax
    870e:	48 89 c7             	mov    %rax,%rdi
    8711:	e8 3e ff ff ff       	callq  8654 <crc32_8bytes>
    8716:	83 7d ec 00          	cmpl   $0x0,-0x14(%rbp)
    871a:	74 22                	je     873e <transparent_crc+0x4b>
    871c:	8b 05 fe 18 01 00    	mov    0x118fe(%rip),%eax        # 1a020 <crc32_context>
    8722:	f7 d0                	not    %eax
    8724:	89 c2                	mov    %eax,%edx
    8726:	48 8b 45 f0          	mov    -0x10(%rbp),%rax
    872a:	48 89 c6             	mov    %rax,%rsi
    872d:	48 8d 3d fc c8 00 00 	lea    0xc8fc(%rip),%rdi        # 15030 <_IO_stdin_used+0x30>
    8734:	b8 00 00 00 00       	mov    $0x0,%eax
    8739:	e8 42 e9 ff ff       	callq  7080 <printf@plt>
    873e:	90                   	nop
    873f:	c9                   	leaveq 
    8740:	c3                   	retq   

0000000000008741 <transparent_crc_bytes>:
    8741:	f3 0f 1e fa          	endbr64 
    8745:	55                   	push   %rbp
    8746:	48 89 e5             	mov    %rsp,%rbp
    8749:	48 83 ec 30          	sub    $0x30,%rsp
    874d:	48 89 7d e8          	mov    %rdi,-0x18(%rbp)
    8751:	89 75 e4             	mov    %esi,-0x1c(%rbp)
    8754:	48 89 55 d8          	mov    %rdx,-0x28(%rbp)
    8758:	89 4d e0             	mov    %ecx,-0x20(%rbp)
    875b:	c7 45 fc 00 00 00 00 	movl   $0x0,-0x4(%rbp)
    8762:	eb 1e                	jmp    8782 <transparent_crc_bytes+0x41>
    8764:	8b 45 fc             	mov    -0x4(%rbp),%eax
    8767:	48 63 d0             	movslq %eax,%rdx
    876a:	48 8b 45 e8          	mov    -0x18(%rbp),%rax
    876e:	48 01 d0             	add    %rdx,%rax
    8771:	0f b6 00             	movzbl (%rax),%eax
    8774:	0f b6 c0             	movzbl %al,%eax
    8777:	89 c7                	mov    %eax,%edi
    8779:	e8 90 fe ff ff       	callq  860e <crc32_byte>
    877e:	83 45 fc 01          	addl   $0x1,-0x4(%rbp)
    8782:	8b 45 fc             	mov    -0x4(%rbp),%eax
    8785:	3b 45 e4             	cmp    -0x1c(%rbp),%eax
    8788:	7c da                	jl     8764 <transparent_crc_bytes+0x23>
    878a:	83 7d e0 00          	cmpl   $0x0,-0x20(%rbp)
    878e:	74 22                	je     87b2 <transparent_crc_bytes+0x71>
    8790:	8b 05 8a 18 01 00    	mov    0x1188a(%rip),%eax        # 1a020 <crc32_context>
    8796:	f7 d0                	not    %eax
    8798:	89 c2                	mov    %eax,%edx
    879a:	48 8b 45 d8          	mov    -0x28(%rbp),%rax
    879e:	48 89 c6             	mov    %rax,%rsi
    87a1:	48 8d 3d 88 c8 00 00 	lea    0xc888(%rip),%rdi        # 15030 <_IO_stdin_used+0x30>
    87a8:	b8 00 00 00 00       	mov    $0x0,%eax
    87ad:	e8 ce e8 ff ff       	callq  7080 <printf@plt>
    87b2:	90                   	nop
    87b3:	c9                   	leaveq 
    87b4:	c3                   	retq   

00000000000087b5 <func_1>:
    87b5:	f3 0f 1e fa          	endbr64 
    87b9:	55                   	push   %rbp
    87ba:	48 89 e5             	mov    %rsp,%rbp
    87bd:	41 57                	push   %r15
    87bf:	41 56                	push   %r14
    87c1:	41 55                	push   %r13
    87c3:	41 54                	push   %r12
    87c5:	53                   	push   %rbx
    87c6:	48 81 ec 48 0a 00 00 	sub    $0xa48,%rsp
    87cd:	64 48 8b 04 25 28 00 	mov    %fs:0x28,%rax
    87d4:	00 00 
    87d6:	48 89 45 c8          	mov    %rax,-0x38(%rbp)
    87da:	31 c0                	xor    %eax,%eax
    87dc:	c7 85 f4 f5 ff ff ff 	movl   $0xffffffff,-0xa0c(%rbp)
    87e3:	ff ff ff 
    87e6:	48 8d 85 f4 f5 ff ff 	lea    -0xa0c(%rbp),%rax
    87ed:	48 89 85 b8 f6 ff ff 	mov    %rax,-0x948(%rbp)
    87f4:	48 8d 05 31 18 01 00 	lea    0x11831(%rip),%rax        # 1a02c <g_26+0x4>
    87fb:	48 89 85 c0 f6 ff ff 	mov    %rax,-0x940(%rbp)
    8802:	c6 85 e4 f5 ff ff b1 	movb   $0xb1,-0xa1c(%rbp)
    8809:	48 8d 05 46 18 01 00 	lea    0x11846(%rip),%rax        # 1a056 <g_34+0x16>
    8810:	48 89 85 c8 f6 ff ff 	mov    %rax,-0x938(%rbp)
    8817:	48 8d 85 f4 f5 ff ff 	lea    -0xa0c(%rbp),%rax
    881e:	48 89 85 10 fc ff ff 	mov    %rax,-0x3f0(%rbp)
    8825:	48 8d 85 f4 f5 ff ff 	lea    -0xa0c(%rbp),%rax
    882c:	48 89 85 18 fc ff ff 	mov    %rax,-0x3e8(%rbp)
    8833:	48 8d 85 f4 f5 ff ff 	lea    -0xa0c(%rbp),%rax
    883a:	48 89 85 20 fc ff ff 	mov    %rax,-0x3e0(%rbp)
    8841:	48 8d 85 f4 f5 ff ff 	lea    -0xa0c(%rbp),%rax
    8848:	48 89 85 28 fc ff ff 	mov    %rax,-0x3d8(%rbp)
    884f:	48 8d 85 f4 f5 ff ff 	lea    -0xa0c(%rbp),%rax
    8856:	48 89 85 30 fc ff ff 	mov    %rax,-0x3d0(%rbp)
    885d:	48 8d 85 f4 f5 ff ff 	lea    -0xa0c(%rbp),%rax
    8864:	48 89 85 38 fc ff ff 	mov    %rax,-0x3c8(%rbp)
    886b:	48 8d 85 f4 f5 ff ff 	lea    -0xa0c(%rbp),%rax
    8872:	48 89 85 40 fc ff ff 	mov    %rax,-0x3c0(%rbp)
    8879:	48 8d 85 f4 f5 ff ff 	lea    -0xa0c(%rbp),%rax
    8880:	48 89 85 48 fc ff ff 	mov    %rax,-0x3b8(%rbp)
    8887:	48 8d 85 f4 f5 ff ff 	lea    -0xa0c(%rbp),%rax
    888e:	48 89 85 50 fc ff ff 	mov    %rax,-0x3b0(%rbp)
    8895:	48 8d 85 f4 f5 ff ff 	lea    -0xa0c(%rbp),%rax
    889c:	48 89 85 58 fc ff ff 	mov    %rax,-0x3a8(%rbp)
    88a3:	48 8d 85 f4 f5 ff ff 	lea    -0xa0c(%rbp),%rax
    88aa:	48 89 85 60 fc ff ff 	mov    %rax,-0x3a0(%rbp)
    88b1:	48 8d 85 f4 f5 ff ff 	lea    -0xa0c(%rbp),%rax
    88b8:	48 89 85 68 fc ff ff 	mov    %rax,-0x398(%rbp)
    88bf:	48 8d 85 f4 f5 ff ff 	lea    -0xa0c(%rbp),%rax
    88c6:	48 89 85 70 fc ff ff 	mov    %rax,-0x390(%rbp)
    88cd:	48 8d 85 f4 f5 ff ff 	lea    -0xa0c(%rbp),%rax
    88d4:	48 89 85 78 fc ff ff 	mov    %rax,-0x388(%rbp)
    88db:	48 8d 85 f4 f5 ff ff 	lea    -0xa0c(%rbp),%rax
    88e2:	48 89 85 80 fc ff ff 	mov    %rax,-0x380(%rbp)
    88e9:	48 8d 85 f4 f5 ff ff 	lea    -0xa0c(%rbp),%rax
    88f0:	48 89 85 88 fc ff ff 	mov    %rax,-0x378(%rbp)
    88f7:	48 8d 85 f4 f5 ff ff 	lea    -0xa0c(%rbp),%rax
    88fe:	48 89 85 90 fc ff ff 	mov    %rax,-0x370(%rbp)
    8905:	48 8d 85 f4 f5 ff ff 	lea    -0xa0c(%rbp),%rax
    890c:	48 89 85 98 fc ff ff 	mov    %rax,-0x368(%rbp)
    8913:	48 8d 85 f4 f5 ff ff 	lea    -0xa0c(%rbp),%rax
    891a:	48 89 85 a0 fc ff ff 	mov    %rax,-0x360(%rbp)
    8921:	48 8d 85 f4 f5 ff ff 	lea    -0xa0c(%rbp),%rax
    8928:	48 89 85 a8 fc ff ff 	mov    %rax,-0x358(%rbp)
    892f:	48 8d 85 f4 f5 ff ff 	lea    -0xa0c(%rbp),%rax
    8936:	48 89 85 b0 fc ff ff 	mov    %rax,-0x350(%rbp)
    893d:	48 8d 85 f4 f5 ff ff 	lea    -0xa0c(%rbp),%rax
    8944:	48 89 85 b8 fc ff ff 	mov    %rax,-0x348(%rbp)
    894b:	48 8d 85 f4 f5 ff ff 	lea    -0xa0c(%rbp),%rax
    8952:	48 89 85 c0 fc ff ff 	mov    %rax,-0x340(%rbp)
    8959:	48 8d 85 f4 f5 ff ff 	lea    -0xa0c(%rbp),%rax
    8960:	48 89 85 c8 fc ff ff 	mov    %rax,-0x338(%rbp)
    8967:	48 8d 85 f4 f5 ff ff 	lea    -0xa0c(%rbp),%rax
    896e:	48 89 85 d0 fc ff ff 	mov    %rax,-0x330(%rbp)
    8975:	48 8d 85 f4 f5 ff ff 	lea    -0xa0c(%rbp),%rax
    897c:	48 89 85 d8 fc ff ff 	mov    %rax,-0x328(%rbp)
    8983:	48 8d 85 f4 f5 ff ff 	lea    -0xa0c(%rbp),%rax
    898a:	48 89 85 e0 fc ff ff 	mov    %rax,-0x320(%rbp)
    8991:	48 8d 85 f4 f5 ff ff 	lea    -0xa0c(%rbp),%rax
    8998:	48 89 85 e8 fc ff ff 	mov    %rax,-0x318(%rbp)
    899f:	48 8d 85 f4 f5 ff ff 	lea    -0xa0c(%rbp),%rax
    89a6:	48 89 85 f0 fc ff ff 	mov    %rax,-0x310(%rbp)
    89ad:	48 8d 85 f4 f5 ff ff 	lea    -0xa0c(%rbp),%rax
    89b4:	48 89 85 f8 fc ff ff 	mov    %rax,-0x308(%rbp)
    89bb:	48 8d 85 f4 f5 ff ff 	lea    -0xa0c(%rbp),%rax
    89c2:	48 89 85 00 fd ff ff 	mov    %rax,-0x300(%rbp)
    89c9:	48 8d 85 f4 f5 ff ff 	lea    -0xa0c(%rbp),%rax
    89d0:	48 89 85 08 fd ff ff 	mov    %rax,-0x2f8(%rbp)
    89d7:	48 8d 85 f4 f5 ff ff 	lea    -0xa0c(%rbp),%rax
    89de:	48 89 85 10 fd ff ff 	mov    %rax,-0x2f0(%rbp)
    89e5:	48 8d 85 f4 f5 ff ff 	lea    -0xa0c(%rbp),%rax
    89ec:	48 89 85 18 fd ff ff 	mov    %rax,-0x2e8(%rbp)
    89f3:	48 8d 85 f4 f5 ff ff 	lea    -0xa0c(%rbp),%rax
    89fa:	48 89 85 20 fd ff ff 	mov    %rax,-0x2e0(%rbp)
    8a01:	48 8d 85 f4 f5 ff ff 	lea    -0xa0c(%rbp),%rax
    8a08:	48 89 85 28 fd ff ff 	mov    %rax,-0x2d8(%rbp)
    8a0f:	48 8d 85 f4 f5 ff ff 	lea    -0xa0c(%rbp),%rax
    8a16:	48 89 85 30 fd ff ff 	mov    %rax,-0x2d0(%rbp)
    8a1d:	48 8d 85 f4 f5 ff ff 	lea    -0xa0c(%rbp),%rax
    8a24:	48 89 85 38 fd ff ff 	mov    %rax,-0x2c8(%rbp)
    8a2b:	48 8d 85 f4 f5 ff ff 	lea    -0xa0c(%rbp),%rax
    8a32:	48 89 85 40 fd ff ff 	mov    %rax,-0x2c0(%rbp)
    8a39:	48 8d 85 f4 f5 ff ff 	lea    -0xa0c(%rbp),%rax
    8a40:	48 89 85 48 fd ff ff 	mov    %rax,-0x2b8(%rbp)
    8a47:	48 8d 85 f4 f5 ff ff 	lea    -0xa0c(%rbp),%rax
    8a4e:	48 89 85 50 fd ff ff 	mov    %rax,-0x2b0(%rbp)
    8a55:	48 8d 85 f4 f5 ff ff 	lea    -0xa0c(%rbp),%rax
    8a5c:	48 89 85 58 fd ff ff 	mov    %rax,-0x2a8(%rbp)
    8a63:	48 8d 85 f4 f5 ff ff 	lea    -0xa0c(%rbp),%rax
    8a6a:	48 89 85 60 fd ff ff 	mov    %rax,-0x2a0(%rbp)
    8a71:	48 8d 85 f4 f5 ff ff 	lea    -0xa0c(%rbp),%rax
    8a78:	48 89 85 68 fd ff ff 	mov    %rax,-0x298(%rbp)
    8a7f:	48 8d 85 f4 f5 ff ff 	lea    -0xa0c(%rbp),%rax
    8a86:	48 89 85 70 fd ff ff 	mov    %rax,-0x290(%rbp)
    8a8d:	48 c7 85 68 f6 ff ff 	movq   $0x0,-0x998(%rbp)
    8a94:	00 00 00 00 
    8a98:	48 8d 85 e4 f5 ff ff 	lea    -0xa1c(%rbp),%rax
    8a9f:	48 89 85 70 f6 ff ff 	mov    %rax,-0x990(%rbp)
    8aa6:	48 b8 97 e3 85 d3 8a 	movabs $0x46bb218ad385e397,%rax
    8aad:	21 bb 46 
    8ab0:	48 89 85 d0 f6 ff ff 	mov    %rax,-0x930(%rbp)
    8ab7:	48 8d 05 ca 16 01 00 	lea    0x116ca(%rip),%rax        # 1a188 <g_103+0x108>
    8abe:	48 89 85 78 f6 ff ff 	mov    %rax,-0x988(%rbp)
    8ac5:	48 8d 05 68 4b 01 00 	lea    0x14b68(%rip),%rax        # 1d634 <g_139>
    8acc:	48 89 85 80 f6 ff ff 	mov    %rax,-0x980(%rbp)
    8ad3:	48 c7 85 d8 f6 ff ff 	movq   $0x0,-0x928(%rbp)
    8ada:	00 00 00 00 
    8ade:	48 8d 05 9f 17 01 00 	lea    0x1179f(%rip),%rax        # 1a284 <g_310>
    8ae5:	48 89 85 e0 f6 ff ff 	mov    %rax,-0x920(%rbp)
    8aec:	48 8d 05 c5 41 01 00 	lea    0x141c5(%rip),%rax        # 1ccb8 <g_944>
    8af3:	48 89 85 88 f6 ff ff 	mov    %rax,-0x978(%rbp)
    8afa:	48 8d 85 88 f6 ff ff 	lea    -0x978(%rbp),%rax
    8b01:	48 89 85 90 f6 ff ff 	mov    %rax,-0x970(%rbp)
    8b08:	c7 85 f8 f5 ff ff f7 	movl   $0xfffffff7,-0xa08(%rbp)
    8b0f:	ff ff ff 
    8b12:	48 c7 85 98 f6 ff ff 	movq   $0x0,-0x968(%rbp)
    8b19:	00 00 00 00 
    8b1d:	48 8d 05 14 4b 01 00 	lea    0x14b14(%rip),%rax        # 1d638 <g_167>
    8b24:	48 89 85 e8 f6 ff ff 	mov    %rax,-0x918(%rbp)
    8b2b:	c7 85 1c f6 ff ff 73 	movl   $0xdc229373,-0x9e4(%rbp)
    8b32:	93 22 dc 
    8b35:	66 c7 85 ee f5 ff ff 	movw   $0x0,-0xa12(%rbp)
    8b3c:	00 00 
    8b3e:	c7 85 fc f5 ff ff 03 	movl   $0xbf636e03,-0xa04(%rbp)
    8b45:	6e 63 bf 
    8b48:	c7 85 20 f6 ff ff 01 	movl   $0x1,-0x9e0(%rbp)
    8b4f:	00 00 00 
    8b52:	c6 85 e6 f5 ff ff cb 	movb   $0xcb,-0xa1a(%rbp)
    8b59:	c6 85 e7 f5 ff ff ff 	movb   $0xff,-0xa19(%rbp)
    8b60:	c7 85 34 f6 ff ff b4 	movl   $0xce44c4b4,-0x9cc(%rbp)
    8b67:	c4 44 ce 
    8b6a:	c7 85 00 f6 ff ff 1d 	movl   $0xa052f31d,-0xa00(%rbp)
    8b71:	f3 52 a0 
    8b74:	c7 85 04 f6 ff ff 03 	movl   $0x3,-0x9fc(%rbp)
    8b7b:	00 00 00 
    8b7e:	c7 85 40 fa ff ff 04 	movl   $0x8313bc04,-0x5c0(%rbp)
    8b85:	bc 13 83 
    8b88:	c7 85 44 fa ff ff 6a 	movl   $0x32fee26a,-0x5bc(%rbp)
    8b8f:	e2 fe 32 
    8b92:	c7 85 48 fa ff ff 6a 	movl   $0x32fee26a,-0x5b8(%rbp)
    8b99:	e2 fe 32 
    8b9c:	c7 85 4c fa ff ff 04 	movl   $0x8313bc04,-0x5b4(%rbp)
    8ba3:	bc 13 83 
    8ba6:	c7 85 50 fa ff ff 6a 	movl   $0x32fee26a,-0x5b0(%rbp)
    8bad:	e2 fe 32 
    8bb0:	c7 85 54 fa ff ff 6a 	movl   $0x32fee26a,-0x5ac(%rbp)
    8bb7:	e2 fe 32 
    8bba:	c7 85 58 fa ff ff 04 	movl   $0x8313bc04,-0x5a8(%rbp)
    8bc1:	bc 13 83 
    8bc4:	c7 85 5c fa ff ff 6a 	movl   $0x32fee26a,-0x5a4(%rbp)
    8bcb:	e2 fe 32 
    8bce:	c7 85 60 fa ff ff 04 	movl   $0x8313bc04,-0x5a0(%rbp)
    8bd5:	bc 13 83 
    8bd8:	c7 85 64 fa ff ff 6a 	movl   $0x32fee26a,-0x59c(%rbp)
    8bdf:	e2 fe 32 
    8be2:	c7 85 68 fa ff ff 6a 	movl   $0x32fee26a,-0x598(%rbp)
    8be9:	e2 fe 32 
    8bec:	c7 85 6c fa ff ff 04 	movl   $0x8313bc04,-0x594(%rbp)
    8bf3:	bc 13 83 
    8bf6:	c7 85 70 fa ff ff 6a 	movl   $0x32fee26a,-0x590(%rbp)
    8bfd:	e2 fe 32 
    8c00:	c7 85 74 fa ff ff 6a 	movl   $0x32fee26a,-0x58c(%rbp)
    8c07:	e2 fe 32 
    8c0a:	c7 85 78 fa ff ff 04 	movl   $0x8313bc04,-0x588(%rbp)
    8c11:	bc 13 83 
    8c14:	c7 85 7c fa ff ff 04 	movl   $0x8313bc04,-0x584(%rbp)
    8c1b:	bc 13 83 
    8c1e:	c7 85 80 fa ff ff 9d 	movl   $0xd1e4189d,-0x580(%rbp)
    8c25:	18 e4 d1 
    8c28:	c7 85 84 fa ff ff 04 	movl   $0x8313bc04,-0x57c(%rbp)
    8c2f:	bc 13 83 
    8c32:	c7 85 88 fa ff ff 04 	movl   $0x8313bc04,-0x578(%rbp)
    8c39:	bc 13 83 
    8c3c:	c7 85 8c fa ff ff 9d 	movl   $0xd1e4189d,-0x574(%rbp)
    8c43:	18 e4 d1 
    8c46:	c7 85 90 fa ff ff 04 	movl   $0x8313bc04,-0x570(%rbp)
    8c4d:	bc 13 83 
    8c50:	c7 85 94 fa ff ff 04 	movl   $0x8313bc04,-0x56c(%rbp)
    8c57:	bc 13 83 
    8c5a:	c7 85 98 fa ff ff 6a 	movl   $0x32fee26a,-0x568(%rbp)
    8c61:	e2 fe 32 
    8c64:	c7 85 9c fa ff ff 6a 	movl   $0x32fee26a,-0x564(%rbp)
    8c6b:	e2 fe 32 
    8c6e:	c7 85 a0 fa ff ff 04 	movl   $0x8313bc04,-0x560(%rbp)
    8c75:	bc 13 83 
    8c78:	c7 85 a4 fa ff ff 6a 	movl   $0x32fee26a,-0x55c(%rbp)
    8c7f:	e2 fe 32 
    8c82:	c7 85 a8 fa ff ff 6a 	movl   $0x32fee26a,-0x558(%rbp)
    8c89:	e2 fe 32 
    8c8c:	c7 85 ac fa ff ff 04 	movl   $0x8313bc04,-0x554(%rbp)
    8c93:	bc 13 83 
    8c96:	c7 85 b0 fa ff ff 6a 	movl   $0x32fee26a,-0x550(%rbp)
    8c9d:	e2 fe 32 
    8ca0:	c7 85 b4 fa ff ff 04 	movl   $0x8313bc04,-0x54c(%rbp)
    8ca7:	bc 13 83 
    8caa:	c7 85 b8 fa ff ff 6a 	movl   $0x32fee26a,-0x548(%rbp)
    8cb1:	e2 fe 32 
    8cb4:	c7 85 bc fa ff ff 6a 	movl   $0x32fee26a,-0x544(%rbp)
    8cbb:	e2 fe 32 
    8cbe:	c7 85 c0 fa ff ff 04 	movl   $0x8313bc04,-0x540(%rbp)
    8cc5:	bc 13 83 
    8cc8:	c7 85 c4 fa ff ff 6a 	movl   $0x32fee26a,-0x53c(%rbp)
    8ccf:	e2 fe 32 
    8cd2:	c7 85 c8 fa ff ff 6a 	movl   $0x32fee26a,-0x538(%rbp)
    8cd9:	e2 fe 32 
    8cdc:	c7 85 cc fa ff ff 04 	movl   $0x8313bc04,-0x534(%rbp)
    8ce3:	bc 13 83 
    8ce6:	c7 85 d0 fa ff ff 04 	movl   $0x8313bc04,-0x530(%rbp)
    8ced:	bc 13 83 
    8cf0:	c7 85 d4 fa ff ff 9d 	movl   $0xd1e4189d,-0x52c(%rbp)
    8cf7:	18 e4 d1 
    8cfa:	c7 85 d8 fa ff ff 04 	movl   $0x8313bc04,-0x528(%rbp)
    8d01:	bc 13 83 
    8d04:	c7 85 dc fa ff ff 04 	movl   $0x8313bc04,-0x524(%rbp)
    8d0b:	bc 13 83 
    8d0e:	c7 85 e0 fa ff ff 9d 	movl   $0xd1e4189d,-0x520(%rbp)
    8d15:	18 e4 d1 
    8d18:	c7 85 e4 fa ff ff 04 	movl   $0x8313bc04,-0x51c(%rbp)
    8d1f:	bc 13 83 
    8d22:	c7 85 e8 fa ff ff 04 	movl   $0x8313bc04,-0x518(%rbp)
    8d29:	bc 13 83 
    8d2c:	c7 85 ec fa ff ff 6a 	movl   $0x32fee26a,-0x514(%rbp)
    8d33:	e2 fe 32 
    8d36:	c7 85 f0 fa ff ff 6a 	movl   $0x32fee26a,-0x510(%rbp)
    8d3d:	e2 fe 32 
    8d40:	c7 85 f4 fa ff ff 04 	movl   $0x8313bc04,-0x50c(%rbp)
    8d47:	bc 13 83 
    8d4a:	c7 85 f8 fa ff ff 6a 	movl   $0x32fee26a,-0x508(%rbp)
    8d51:	e2 fe 32 
    8d54:	c7 85 fc fa ff ff 9d 	movl   $0xd1e4189d,-0x504(%rbp)
    8d5b:	18 e4 d1 
    8d5e:	c7 85 00 fb ff ff 6a 	movl   $0x32fee26a,-0x500(%rbp)
    8d65:	e2 fe 32 
    8d68:	c7 85 04 fb ff ff 9d 	movl   $0xd1e4189d,-0x4fc(%rbp)
    8d6f:	18 e4 d1 
    8d72:	c7 85 08 fb ff ff 6a 	movl   $0x32fee26a,-0x4f8(%rbp)
    8d79:	e2 fe 32 
    8d7c:	c7 85 0c fb ff ff 9d 	movl   $0xd1e4189d,-0x4f4(%rbp)
    8d83:	18 e4 d1 
    8d86:	c7 85 10 fb ff ff 9d 	movl   $0xd1e4189d,-0x4f0(%rbp)
    8d8d:	18 e4 d1 
    8d90:	c7 85 14 fb ff ff 6a 	movl   $0x32fee26a,-0x4ec(%rbp)
    8d97:	e2 fe 32 
    8d9a:	c7 85 18 fb ff ff 9d 	movl   $0xd1e4189d,-0x4e8(%rbp)
    8da1:	18 e4 d1 
    8da4:	c7 85 1c fb ff ff 9d 	movl   $0xd1e4189d,-0x4e4(%rbp)
    8dab:	18 e4 d1 
    8dae:	48 8d 05 1b 15 01 00 	lea    0x1151b(%rip),%rax        # 1a2d0 <g_511>
    8db5:	48 89 85 f0 f6 ff ff 	mov    %rax,-0x910(%rbp)
    8dbc:	66 c7 85 ec f5 ff ff 	movw   $0x0,-0xa14(%rbp)
    8dc3:	00 00 
    8dc5:	48 c7 85 a0 f6 ff ff 	movq   $0x0,-0x960(%rbp)
    8dcc:	00 00 00 00 
    8dd0:	48 8d 85 a0 f6 ff ff 	lea    -0x960(%rbp),%rax
    8dd7:	48 89 85 b0 f8 ff ff 	mov    %rax,-0x750(%rbp)
    8dde:	48 8d 85 a0 f6 ff ff 	lea    -0x960(%rbp),%rax
    8de5:	48 89 85 b8 f8 ff ff 	mov    %rax,-0x748(%rbp)
    8dec:	48 8d 85 a0 f6 ff ff 	lea    -0x960(%rbp),%rax
    8df3:	48 89 85 c0 f8 ff ff 	mov    %rax,-0x740(%rbp)
    8dfa:	48 8d 85 a0 f6 ff ff 	lea    -0x960(%rbp),%rax
    8e01:	48 89 85 c8 f8 ff ff 	mov    %rax,-0x738(%rbp)
    8e08:	48 8d 85 a0 f6 ff ff 	lea    -0x960(%rbp),%rax
    8e0f:	48 89 85 d0 f8 ff ff 	mov    %rax,-0x730(%rbp)
    8e16:	c7 85 20 fb ff ff d2 	movl   $0x1fe6fd2,-0x4e0(%rbp)
    8e1d:	6f fe 01 
    8e20:	66 c7 85 24 fb ff ff 	movw   $0x4882,-0x4dc(%rbp)
    8e27:	82 48 
    8e29:	c7 85 26 fb ff ff 06 	movl   $0xff01de06,-0x4da(%rbp)
    8e30:	de 01 ff 
    8e33:	66 c7 85 2a fb ff ff 	movw   $0x14b0,-0x4d6(%rbp)
    8e3a:	b0 14 
    8e3c:	c7 85 2c fb ff ff 00 	movl   $0x9e1b0100,-0x4d4(%rbp)
    8e43:	01 1b 9e 
    8e46:	66 c7 85 30 fb ff ff 	movw   $0x901,-0x4d0(%rbp)
    8e4d:	01 09 
    8e4f:	c7 85 32 fb ff ff 05 	movl   $0x66011405,-0x4ce(%rbp)
    8e56:	14 01 66 
    8e59:	66 c7 85 36 fb ff ff 	movw   $0xc5ff,-0x4ca(%rbp)
    8e60:	ff c5 
    8e62:	c7 85 38 fb ff ff 03 	movl   $0x98fe0103,-0x4c8(%rbp)
    8e69:	01 fe 98 
    8e6c:	66 c7 85 3c fb ff ff 	movw   $0xa314,-0x4c4(%rbp)
    8e73:	14 a3 
    8e75:	c7 85 3e fb ff ff f7 	movl   $0xff1603f7,-0x4c2(%rbp)
    8e7c:	03 16 ff 
    8e7f:	66 c7 85 42 fb ff ff 	movw   $0x48fb,-0x4be(%rbp)
    8e86:	fb 48 
    8e88:	c7 85 44 fb ff ff 98 	movl   $0x4bfe4798,-0x4bc(%rbp)
    8e8f:	47 fe 4b 
    8e92:	66 c7 85 48 fb ff ff 	movw   $0xfa03,-0x4b8(%rbp)
    8e99:	03 fa 
    8e9b:	c7 85 4a fb ff ff ba 	movl   $0x168801ba,-0x4b6(%rbp)
    8ea2:	01 88 16 
    8ea5:	66 c7 85 4e fb ff ff 	movw   $0xf89c,-0x4b2(%rbp)
    8eac:	9c f8 
    8eae:	c7 85 50 fb ff ff 4c 	movl   $0x101024c,-0x4b0(%rbp)
    8eb5:	02 01 01 
    8eb8:	66 c7 85 54 fb ff ff 	movw   $0x133,-0x4ac(%rbp)
    8ebf:	33 01 
    8ec1:	c7 85 56 fb ff ff 01 	movl   $0x601ff01,-0x4aa(%rbp)
    8ec8:	ff 01 06 
    8ecb:	66 c7 85 5a fb ff ff 	movw   $0xf814,-0x4a6(%rbp)
    8ed2:	14 f8 
    8ed4:	c7 85 5c fb ff ff 9c 	movl   $0x9dfae59c,-0x4a4(%rbp)
    8edb:	e5 fa 9d 
    8ede:	66 c7 85 60 fb ff ff 	movw   $0x7901,-0x4a0(%rbp)
    8ee5:	01 79 
    8ee7:	c7 85 62 fb ff ff fe 	movl   $0x9d01ccfe,-0x49e(%rbp)
    8eee:	cc 01 9d 
    8ef1:	66 c7 85 66 fb ff ff 	movw   $0x603,-0x49a(%rbp)
    8ef8:	03 06 
    8efa:	c7 85 68 fb ff ff 9c 	movl   $0x64b019c,-0x498(%rbp)
    8f01:	01 4b 06 
    8f04:	66 c7 85 6c fb ff ff 	movw   $0xfc33,-0x494(%rbp)
    8f0b:	33 fc 
    8f0d:	c7 85 6e fb ff ff 01 	movl   $0x1070401,-0x492(%rbp)
    8f14:	04 07 01 
    8f17:	66 c7 85 72 fb ff ff 	movw   $0xbd17,-0x48e(%rbp)
    8f1e:	17 bd 
    8f20:	c7 85 74 fb ff ff 4c 	movl   $0x1601004c,-0x48c(%rbp)
    8f27:	00 01 16 
    8f2a:	66 c7 85 78 fb ff ff 	movw   $0xbcac,-0x488(%rbp)
    8f31:	ac bc 
    8f33:	c7 85 7a fb ff ff ba 	movl   $0x4b8201ba,-0x486(%rbp)
    8f3a:	01 82 4b 
    8f3d:	66 c7 85 7e fb ff ff 	movw   $0xe504,-0x482(%rbp)
    8f44:	04 e5 
    8f46:	c7 85 80 fb ff ff 98 	movl   $0xffff3398,-0x480(%rbp)
    8f4d:	33 ff ff 
    8f50:	66 c7 85 84 fb ff ff 	movw   $0xfbfc,-0x47c(%rbp)
    8f57:	fc fb 
    8f59:	c7 85 86 fb ff ff f7 	movl   $0x984b07f7,-0x47a(%rbp)
    8f60:	07 4b 98 
    8f63:	66 c7 85 8a fb ff ff 	movw   $0x33ee,-0x476(%rbp)
    8f6a:	ee 33 
    8f6c:	c7 85 8c fb ff ff 03 	movl   $0x669e8203,-0x474(%rbp)
    8f73:	82 9e 66 
    8f76:	66 c7 85 90 fb ff ff 	movw   $0xfeff,-0x470(%rbp)
    8f7d:	ff fe 
    8f7f:	c7 85 92 fb ff ff 05 	movl   $0x9eb41705,-0x46e(%rbp)
    8f86:	17 b4 9e 
    8f89:	66 c7 85 96 fb ff ff 	movw   $0xf8dd,-0x46a(%rbp)
    8f90:	dd f8 
    8f92:	c7 85 98 fb ff ff 00 	movl   $0xff040100,-0x468(%rbp)
    8f99:	01 04 ff 
    8f9c:	66 c7 85 9c fb ff ff 	movw   $0x7,-0x464(%rbp)
    8fa3:	07 00 
    8fa5:	c7 85 9e fb ff ff 06 	movl   $0x13e3306,-0x462(%rbp)
    8fac:	33 3e 01 
    8faf:	66 c7 85 a2 fb ff ff 	movw   $0x98de,-0x45e(%rbp)
    8fb6:	de 98 
    8fb8:	c7 85 a4 fb ff ff d2 	movl   $0xfe889ed2,-0x45c(%rbp)
    8fbf:	9e 88 fe 
    8fc2:	66 c7 85 a8 fb ff ff 	movw   $0x6f48,-0x458(%rbp)
    8fc9:	48 6f 
    8fcb:	c7 85 aa fb ff ff ff 	movl   $0xf8fefaff,-0x456(%rbp)
    8fd2:	fa fe f8 
    8fd5:	66 c7 85 ae fb ff ff 	movw   $0x17,-0x452(%rbp)
    8fdc:	17 00 
    8fde:	c7 85 b0 fb ff ff 9d 	movl   $0x405de9d,-0x450(%rbp)
    8fe5:	de 05 04 
    8fe8:	66 c7 85 b4 fb ff ff 	movw   $0xa306,-0x44c(%rbp)
    8fef:	06 a3 
    8ff1:	c7 85 b6 fb ff ff 00 	movl   $0x102ba00,-0x44a(%rbp)
    8ff8:	ba 02 01 
    8ffb:	66 c7 85 ba fb ff ff 	movw   $0x90c,-0x446(%rbp)
    9002:	0c 09 
    9004:	c7 85 bc fb ff ff 16 	movl   $0x3e3fcc16,-0x444(%rbp)
    900b:	cc 3f 3e 
    900e:	66 c7 85 c0 fb ff ff 	movw   $0x5aff,-0x440(%rbp)
    9015:	ff 5a 
    9017:	c7 85 c2 fb ff ff fc 	movl   $0x981bfefc,-0x43e(%rbp)
    901e:	fe 1b 98 
    9021:	66 c7 85 c6 fb ff ff 	movw   $0x101,-0x43a(%rbp)
    9028:	01 01 
    902a:	c7 85 c8 fb ff ff ff 	movl   $0xff1616ff,-0x438(%rbp)
    9031:	16 16 ff 
    9034:	66 c7 85 cc fb ff ff 	movw   $0x33,-0x434(%rbp)
    903b:	33 00 
    903d:	c7 85 ce fb ff ff 59 	movl   $0x51b4759,-0x432(%rbp)
    9044:	47 1b 05 
    9047:	66 c7 85 d2 fb ff ff 	movw   $0x166,-0x42e(%rbp)
    904e:	66 01 
    9050:	c7 85 d4 fb ff ff 06 	movl   $0x1bcff06,-0x42c(%rbp)
    9057:	ff bc 01 
    905a:	66 c7 85 d8 fb ff ff 	movw   $0xfa66,-0x428(%rbp)
    9061:	66 fa 
    9063:	c7 85 da fb ff ff f8 	movl   $0xdeb001f8,-0x426(%rbp)
    906a:	01 b0 de 
    906d:	66 c7 85 de fb ff ff 	movw   $0x103,-0x422(%rbp)
    9074:	03 01 
    9076:	c7 85 e0 fb ff ff dd 	movl   $0xbd02dedd,-0x420(%rbp)
    907d:	de 02 bd 
    9080:	66 c7 85 e4 fb ff ff 	movw   $0x107,-0x41c(%rbp)
    9087:	07 01 
    9089:	c7 85 e6 fb ff ff 3e 	movl   $0x654cfe3e,-0x41a(%rbp)
    9090:	fe 4c 65 
    9093:	66 c7 85 ea fb ff ff 	movw   $0x8809,-0x416(%rbp)
    909a:	09 88 
    909c:	c7 85 ec fb ff ff 1b 	movl   $0xff01011b,-0x414(%rbp)
    90a3:	01 01 ff 
    90a6:	66 c7 85 f0 fb ff ff 	movw   $0xfeff,-0x410(%rbp)
    90ad:	ff fe 
    90af:	c7 85 f2 fb ff ff 01 	movl   $0x1050601,-0x40e(%rbp)
    90b6:	06 05 01 
    90b9:	66 c7 85 f6 fb ff ff 	movw   $0x16bd,-0x40a(%rbp)
    90c0:	bd 16 
    90c2:	c7 85 f8 fb ff ff 0f 	movl   $0xde77ee0f,-0x408(%rbp)
    90c9:	ee 77 de 
    90cc:	66 c7 85 fc fb ff ff 	movw   $0xfe00,-0x404(%rbp)
    90d3:	00 fe 
    90d5:	c7 85 fe fb ff ff 00 	movl   $0xde004c00,-0x402(%rbp)
    90dc:	4c 00 de 
    90df:	66 c7 85 02 fc ff ff 	movw   $0x1fb,-0x3fe(%rbp)
    90e6:	fb 01 
    90e8:	c7 85 04 fc ff ff fb 	movl   $0x101f8fb,-0x3fc(%rbp)
    90ef:	f8 01 01 
    90f2:	66 c7 85 08 fc ff ff 	movw   $0x1bee,-0x3f8(%rbp)
    90f9:	ee 1b 
    90fb:	c7 85 0a fc ff ff dd 	movl   $0xc53f03dd,-0x3f6(%rbp)
    9102:	03 3f c5 
    9105:	66 c7 85 0e fc ff ff 	movw   $0x101,-0x3f2(%rbp)
    910c:	01 01 
    910e:	48 8d 85 90 f6 ff ff 	lea    -0x970(%rbp),%rax
    9115:	48 89 85 f8 f6 ff ff 	mov    %rax,-0x908(%rbp)
    911c:	c7 85 38 f6 ff ff ff 	movl   $0xffffffff,-0x9c8(%rbp)
    9123:	ff ff ff 
    9126:	48 c7 85 00 f7 ff ff 	movq   $0x1,-0x900(%rbp)
    912d:	01 00 00 00 
    9131:	c7 85 3c f6 ff ff 91 	movl   $0x5c45e491,-0x9c4(%rbp)
    9138:	e4 45 5c 
    913b:	8b 85 f4 f5 ff ff    	mov    -0xa0c(%rbp),%eax
    9141:	85 c0                	test   %eax,%eax
    9143:	0f 84 80 03 00 00    	je     94c9 <func_1+0xd14>
    9149:	b8 00 00 00 00       	mov    $0x0,%eax
    914e:	89 c0                	mov    %eax,%eax
    9150:	48 89 85 d8 f5 ff ff 	mov    %rax,-0xa28(%rbp)
    9157:	48 8b 85 d0 f6 ff ff 	mov    -0x930(%rbp),%rax
    915e:	48 89 85 d0 f5 ff ff 	mov    %rax,-0xa30(%rbp)
    9165:	8b 05 f5 0e 01 00    	mov    0x10ef5(%rip),%eax        # 1a060 <g_94>
    916b:	89 85 cc f5 ff ff    	mov    %eax,-0xa34(%rbp)
    9171:	48 8b 85 d0 f6 ff ff 	mov    -0x930(%rbp),%rax
    9178:	0f be c0             	movsbl %al,%eax
    917b:	89 85 c8 f5 ff ff    	mov    %eax,-0xa38(%rbp)
    9181:	48 8b 85 d0 f6 ff ff 	mov    -0x930(%rbp),%rax
    9188:	89 85 c4 f5 ff ff    	mov    %eax,-0xa3c(%rbp)
    918e:	8b 05 cc 0e 01 00    	mov    0x10ecc(%rip),%eax        # 1a060 <g_94>
    9194:	89 85 c0 f5 ff ff    	mov    %eax,-0xa40(%rbp)
    919a:	8b 05 c0 0e 01 00    	mov    0x10ec0(%rip),%eax        # 1a060 <g_94>
    91a0:	89 85 bc f5 ff ff    	mov    %eax,-0xa44(%rbp)
    91a6:	48 8b 85 b8 f6 ff ff 	mov    -0x948(%rbp),%rax
    91ad:	8b 00                	mov    (%rax),%eax
    91af:	8d 50 ff             	lea    -0x1(%rax),%edx
    91b2:	48 8b 85 b8 f6 ff ff 	mov    -0x948(%rbp),%rax
    91b9:	89 10                	mov    %edx,(%rax)
    91bb:	48 8b 85 d0 f6 ff ff 	mov    -0x930(%rbp),%rax
    91c2:	0f b6 c0             	movzbl %al,%eax
    91c5:	89 85 b8 f5 ff ff    	mov    %eax,-0xa48(%rbp)
    91cb:	8b 05 e7 10 01 00    	mov    0x110e7(%rip),%eax        # 1a2b8 <g_469+0x18>
    91d1:	89 85 b4 f5 ff ff    	mov    %eax,-0xa4c(%rbp)
    91d7:	48 8b 85 c0 f6 ff ff 	mov    -0x940(%rbp),%rax
    91de:	0f b7 00             	movzwl (%rax),%eax
    91e1:	8d 48 01             	lea    0x1(%rax),%ecx
    91e4:	48 8b 95 c0 f6 ff ff 	mov    -0x940(%rbp),%rdx
    91eb:	66 89 0a             	mov    %cx,(%rdx)
    91ee:	0f b7 c0             	movzwl %ax,%eax
    91f1:	89 85 b0 f5 ff ff    	mov    %eax,-0xa50(%rbp)
    91f7:	8b 85 f4 f5 ff ff    	mov    -0xa0c(%rbp),%eax
    91fd:	0f b7 d0             	movzwl %ax,%edx
    9200:	8b 05 2e 0e 01 00    	mov    0x10e2e(%rip),%eax        # 1a034 <g_31>
    9206:	0f b7 c0             	movzwl %ax,%eax
    9209:	89 d6                	mov    %edx,%esi
    920b:	89 c7                	mov    %eax,%edi
    920d:	e8 0d eb ff ff       	callq  7d1f <safe_sub_func_uint16_t_u_u>
    9212:	88 85 e4 f5 ff ff    	mov    %al,-0xa1c(%rbp)
    9218:	0f b6 85 e4 f5 ff ff 	movzbl -0xa1c(%rbp),%eax
    921f:	0f b6 d0             	movzbl %al,%edx
    9222:	48 8b 85 c8 f6 ff ff 	mov    -0x938(%rbp),%rax
    9229:	66 89 10             	mov    %dx,(%rax)
    922c:	48 8b 85 c8 f6 ff ff 	mov    -0x938(%rbp),%rax
    9233:	0f b7 00             	movzwl (%rax),%eax
    9236:	66 85 c0             	test   %ax,%ax
    9239:	0f 85 b1 01 00 00    	jne    93f0 <func_1+0xc3b>
    923f:	48 8b 85 d0 f6 ff ff 	mov    -0x930(%rbp),%rax
    9246:	89 85 ac f5 ff ff    	mov    %eax,-0xa54(%rbp)
    924c:	48 8b 85 d0 f6 ff ff 	mov    -0x930(%rbp),%rax
    9253:	89 85 a8 f5 ff ff    	mov    %eax,-0xa58(%rbp)
    9259:	48 8b 85 d0 f6 ff ff 	mov    -0x930(%rbp),%rax
    9260:	98                   	cwtl   
    9261:	89 85 a4 f5 ff ff    	mov    %eax,-0xa5c(%rbp)
    9267:	8b 85 f4 f5 ff ff    	mov    -0xa0c(%rbp),%eax
    926d:	98                   	cwtl   
    926e:	89 85 a0 f5 ff ff    	mov    %eax,-0xa60(%rbp)
    9274:	b8 00 00 00 00       	mov    $0x0,%eax
    9279:	89 85 9c f5 ff ff    	mov    %eax,-0xa64(%rbp)
    927f:	48 8b 85 d0 f6 ff ff 	mov    -0x930(%rbp),%rax
    9286:	44 0f b7 f8          	movzwl %ax,%r15d
    928a:	0f b7 05 b5 0d 01 00 	movzwl 0x10db5(%rip),%eax        # 1a046 <g_34+0x6>
    9291:	66 85 c0             	test   %ax,%ax
    9294:	0f 85 06 01 00 00    	jne    93a0 <func_1+0xbeb>
    929a:	b8 00 00 00 00       	mov    $0x0,%eax
    929f:	89 c0                	mov    %eax,%eax
    92a1:	48 89 85 90 f5 ff ff 	mov    %rax,-0xa70(%rbp)
    92a8:	b8 00 00 00 00       	mov    $0x0,%eax
    92ad:	41 89 c6             	mov    %eax,%r14d
    92b0:	b8 00 00 00 00       	mov    $0x0,%eax
    92b5:	44 0f bf e8          	movswl %ax,%r13d
    92b9:	48 8b 85 d0 f6 ff ff 	mov    -0x930(%rbp),%rax
    92c0:	41 89 c4             	mov    %eax,%r12d
    92c3:	48 8b 1d 46 2a 01 00 	mov    0x12a46(%rip),%rbx        # 1bd10 <g_70+0x10>
    92ca:	be 08 00 00 00       	mov    $0x8,%esi
    92cf:	bf a0 d8 ff ff       	mov    $0xffffd8a0,%edi
    92d4:	e8 8a e2 ff ff       	callq  7563 <safe_rshift_func_int16_t_s_u>
    92d9:	0f be c0             	movsbl %al,%eax
    92dc:	be 01 00 00 00       	mov    $0x1,%esi
    92e1:	89 c7                	mov    %eax,%edi
    92e3:	e8 b9 df ff ff       	callq  72a1 <safe_lshift_func_int8_t_s_s>
    92e8:	8b 85 f4 f5 ff ff    	mov    -0xa0c(%rbp),%eax
    92ee:	0f be f8             	movsbl %al,%edi
    92f1:	48 8b 85 c0 f6 ff ff 	mov    -0x940(%rbp),%rax
    92f8:	44 89 e1             	mov    %r12d,%ecx
    92fb:	48 89 c2             	mov    %rax,%rdx
    92fe:	48 89 de             	mov    %rbx,%rsi
    9301:	e8 b8 8f 00 00       	callq  122be <func_61>
    9306:	b8 00 00 00 00       	mov    $0x0,%eax
    930b:	48 8d 15 1e 43 01 00 	lea    0x1431e(%rip),%rdx        # 1d630 <g_112>
    9312:	48 8d 35 17 43 01 00 	lea    0x14317(%rip),%rsi        # 1d630 <g_112>
    9319:	89 c7                	mov    %eax,%edi
    931b:	e8 ed 72 00 00       	callq  1060d <func_57>
    9320:	48 89 c7             	mov    %rax,%rdi
    9323:	48 8d 85 f4 f5 ff ff 	lea    -0xa0c(%rbp),%rax
    932a:	4c 8b 85 90 f5 ff ff 	mov    -0xa70(%rbp),%r8
    9331:	4c 89 f1             	mov    %r14,%rcx
    9334:	44 89 ea             	mov    %r13d,%edx
    9337:	48 89 c6             	mov    %rax,%rsi
    933a:	e8 aa 72 00 00       	callq  105e9 <func_51>
    933f:	3c 40                	cmp    $0x40,%al
    9341:	0f 94 c0             	sete   %al
    9344:	0f b6 d0             	movzbl %al,%edx
    9347:	48 8b 85 d0 f6 ff ff 	mov    -0x930(%rbp),%rax
    934e:	21 d0                	and    %edx,%eax
    9350:	0f bf c8             	movswl %ax,%ecx
    9353:	48 8b 95 10 fc ff ff 	mov    -0x3f0(%rbp),%rdx
    935a:	48 8d 85 f4 f5 ff ff 	lea    -0xa0c(%rbp),%rax
    9361:	48 39 c2             	cmp    %rax,%rdx
    9364:	0f 95 c0             	setne  %al
    9367:	89 c6                	mov    %eax,%esi
    9369:	8b 85 f4 f5 ff ff    	mov    -0xa0c(%rbp),%eax
    936f:	48 8b 95 70 f6 ff ff 	mov    -0x990(%rbp),%rdx
    9376:	09 f0                	or     %esi,%eax
    9378:	88 02                	mov    %al,(%rdx)
    937a:	0f b6 02             	movzbl (%rdx),%eax
    937d:	0f b6 c0             	movzbl %al,%eax
    9380:	f7 d0                	not    %eax
    9382:	98                   	cwtl   
    9383:	89 ce                	mov    %ecx,%esi
    9385:	89 c7                	mov    %eax,%edi
    9387:	e8 69 e0 ff ff       	callq  73f5 <safe_mul_func_int16_t_s_s>
    938c:	48 8b 95 78 f6 ff ff 	mov    -0x988(%rbp),%rdx
    9393:	48 0f bf c0          	movswq %ax,%rax
    9397:	48 89 02             	mov    %rax,(%rdx)
    939a:	48 8b 02             	mov    (%rdx),%rax
    939d:	48 85 c0             	test   %rax,%rax
    93a0:	48 8d 85 f4 f5 ff ff 	lea    -0xa0c(%rbp),%rax
    93a7:	44 8b 85 a4 f5 ff ff 	mov    -0xa5c(%rbp),%r8d
    93ae:	8b 8d a0 f5 ff ff    	mov    -0xa60(%rbp),%ecx
    93b4:	8b 95 9c f5 ff ff    	mov    -0xa64(%rbp),%edx
    93ba:	44 89 fe             	mov    %r15d,%esi
    93bd:	48 89 c7             	mov    %rax,%rdi
    93c0:	e8 4d 5a 00 00       	callq  ee12 <func_39>
    93c5:	8b b5 a8 f5 ff ff    	mov    -0xa58(%rbp),%esi
    93cb:	89 c7                	mov    %eax,%edi
    93cd:	e8 fa e2 ff ff       	callq  76cc <safe_mod_func_int32_t_s_s>
    93d2:	8b b5 ac f5 ff ff    	mov    -0xa54(%rbp),%esi
    93d8:	89 c7                	mov    %eax,%edi
    93da:	e8 1e eb ff ff       	callq  7efd <safe_mod_func_uint32_t_u_u>
    93df:	85 c0                	test   %eax,%eax
    93e1:	75 0d                	jne    93f0 <func_1+0xc3b>
    93e3:	48 8b 05 56 38 01 00 	mov    0x13856(%rip),%rax        # 1cc40 <g_867>
    93ea:	8b 00                	mov    (%rax),%eax
    93ec:	85 c0                	test   %eax,%eax
    93ee:	74 07                	je     93f7 <func_1+0xc42>
    93f0:	b8 01 00 00 00       	mov    $0x1,%eax
    93f5:	eb 05                	jmp    93fc <func_1+0xc47>
    93f7:	b8 00 00 00 00       	mov    $0x0,%eax
    93fc:	0b 85 b0 f5 ff ff    	or     -0xa50(%rbp),%eax
    9402:	8b b5 b4 f5 ff ff    	mov    -0xa4c(%rbp),%esi
    9408:	89 c7                	mov    %eax,%edi
    940a:	e8 f6 e1 ff ff       	callq  7605 <safe_sub_func_int32_t_s_s>
    940f:	8b b5 b8 f5 ff ff    	mov    -0xa48(%rbp),%esi
    9415:	bf ff 00 00 00       	mov    $0xff,%edi
    941a:	e8 8f e7 ff ff       	callq  7bae <safe_mod_func_uint8_t_u_u>
    941f:	0f b6 c0             	movzbl %al,%eax
    9422:	8b b5 bc f5 ff ff    	mov    -0xa44(%rbp),%esi
    9428:	89 c7                	mov    %eax,%edi
    942a:	e8 8f e9 ff ff       	callq  7dbe <safe_lshift_func_uint16_t_u_s>
    942f:	0f b7 c0             	movzwl %ax,%eax
    9432:	48 39 85 d0 f6 ff ff 	cmp    %rax,-0x930(%rbp)
    9439:	72 08                	jb     9443 <func_1+0xc8e>
    943b:	8b 85 f4 f5 ff ff    	mov    -0xa0c(%rbp),%eax
    9441:	85 c0                	test   %eax,%eax
    9443:	b8 00 00 00 00       	mov    $0x0,%eax
    9448:	83 f8 01             	cmp    $0x1,%eax
    944b:	8b 85 f4 f5 ff ff    	mov    -0xa0c(%rbp),%eax
    9451:	89 c0                	mov    %eax,%eax
    9453:	8b 95 c4 f5 ff ff    	mov    -0xa3c(%rbp),%edx
    9459:	8b b5 c0 f5 ff ff    	mov    -0xa40(%rbp),%esi
    945f:	48 89 c7             	mov    %rax,%rdi
    9462:	e8 d6 56 00 00       	callq  eb3d <func_12>
    9467:	83 c8 07             	or     $0x7,%eax
    946a:	89 c2                	mov    %eax,%edx
    946c:	48 8b 85 80 f6 ff ff 	mov    -0x980(%rbp),%rax
    9473:	0f bf d2             	movswl %dx,%edx
    9476:	89 10                	mov    %edx,(%rax)
    9478:	8b 00                	mov    (%rax),%eax
    947a:	be fd ff ff ff       	mov    $0xfffffffd,%esi
    947f:	89 c7                	mov    %eax,%edi
    9481:	e8 4a ea ff ff       	callq  7ed0 <safe_sub_func_uint32_t_u_u>
    9486:	85 c0                	test   %eax,%eax
    9488:	74 07                	je     9491 <func_1+0xcdc>
    948a:	b8 01 00 00 00       	mov    $0x1,%eax
    948f:	eb 05                	jmp    9496 <func_1+0xce1>
    9491:	b8 00 00 00 00       	mov    $0x0,%eax
    9496:	0f be c0             	movsbl %al,%eax
    9499:	8b b5 c8 f5 ff ff    	mov    -0xa38(%rbp),%esi
    949f:	89 c7                	mov    %eax,%edi
    94a1:	e8 4c dd ff ff       	callq  71f2 <safe_sub_func_int8_t_s_s>
    94a6:	0f be c0             	movsbl %al,%eax
    94a9:	48 8b 8d d8 f5 ff ff 	mov    -0xa28(%rbp),%rcx
    94b0:	48 8b 95 d0 f5 ff ff 	mov    -0xa30(%rbp),%rdx
    94b7:	8b b5 cc f5 ff ff    	mov    -0xa34(%rbp),%esi
    94bd:	89 c7                	mov    %eax,%edi
    94bf:	e8 be 21 00 00       	callq  b682 <func_3>
    94c4:	66 85 c0             	test   %ax,%ax
    94c7:	74 07                	je     94d0 <func_1+0xd1b>
    94c9:	ba 01 00 00 00       	mov    $0x1,%edx
    94ce:	eb 05                	jmp    94d5 <func_1+0xd20>
    94d0:	ba 00 00 00 00       	mov    $0x0,%edx
    94d5:	48 8b 05 ec 37 01 00 	mov    0x137ec(%rip),%rax        # 1ccc8 <g_1119>
    94dc:	89 10                	mov    %edx,(%rax)
    94de:	48 8b 05 e3 37 01 00 	mov    0x137e3(%rip),%rax        # 1ccc8 <g_1119>
    94e5:	48 8b 95 d0 f6 ff ff 	mov    -0x930(%rbp),%rdx
    94ec:	89 10                	mov    %edx,(%rax)
    94ee:	48 8b 85 e0 f6 ff ff 	mov    -0x920(%rbp),%rax
    94f5:	66 c7 00 77 d8       	movw   $0xd877,(%rax)
    94fa:	48 8b 15 87 41 01 00 	mov    0x14187(%rip),%rdx        # 1d688 <g_1334>
    9501:	48 8b 85 90 f6 ff ff 	mov    -0x970(%rbp),%rax
    9508:	48 39 c2             	cmp    %rax,%rdx
    950b:	0f 94 c0             	sete   %al
    950e:	0f b6 d0             	movzbl %al,%edx
    9511:	8b 85 f8 f5 ff ff    	mov    -0xa08(%rbp),%eax
    9517:	89 c1                	mov    %eax,%ecx
    9519:	48 8b 85 e8 f6 ff ff 	mov    -0x918(%rbp),%rax
    9520:	89 08                	mov    %ecx,(%rax)
    9522:	48 8b 85 e8 f6 ff ff 	mov    -0x918(%rbp),%rax
    9529:	8b 00                	mov    (%rax),%eax
    952b:	39 c2                	cmp    %eax,%edx
    952d:	0f 85 3d 09 00 00    	jne    9e70 <func_1+0x16bb>
    9533:	c6 85 14 f6 ff ff ff 	movb   $0xff,-0x9ec(%rbp)
    953a:	48 8d 05 43 0d 01 00 	lea    0x10d43(%rip),%rax        # 1a284 <g_310>
    9541:	48 89 85 d0 f7 ff ff 	mov    %rax,-0x830(%rbp)
    9548:	48 8d 05 b1 10 01 00 	lea    0x110b1(%rip),%rax        # 1a600 <g_1155>
    954f:	48 89 85 d8 f7 ff ff 	mov    %rax,-0x828(%rbp)
    9556:	c7 85 54 f6 ff ff d8 	movl   $0xd62456d8,-0x9ac(%rbp)
    955d:	56 24 d6 
    9560:	c7 05 82 0d 01 00 00 	movl   $0x0,0x10d82(%rip)        # 1a2ec <g_835>
    9567:	00 00 00 
    956a:	e9 58 07 00 00       	jmpq   9cc7 <func_1+0x1512>
    956f:	48 b8 08 b7 9d 70 4f 	movabs $0x6860524f709db708,%rax
    9576:	52 60 68 
    9579:	48 89 85 e0 f7 ff ff 	mov    %rax,-0x820(%rbp)
    9580:	c7 85 5c f6 ff ff 1e 	movl   $0x63cbe81e,-0x9a4(%rbp)
    9587:	e8 cb 63 
    958a:	48 8d 85 78 f6 ff ff 	lea    -0x988(%rbp),%rax
    9591:	48 89 85 e8 f7 ff ff 	mov    %rax,-0x818(%rbp)
    9598:	c7 85 b0 f6 ff ff f6 	movl   $0xfffffff6,-0x950(%rbp)
    959f:	ff ff ff 
    95a2:	48 8d 85 80 fd ff ff 	lea    -0x280(%rbp),%rax
    95a9:	48 83 c0 04          	add    $0x4,%rax
    95ad:	48 89 85 f0 f7 ff ff 	mov    %rax,-0x810(%rbp)
    95b4:	48 8d 85 b0 f6 ff ff 	lea    -0x950(%rbp),%rax
    95bb:	48 89 85 f8 f7 ff ff 	mov    %rax,-0x808(%rbp)
    95c2:	48 8d 05 37 10 01 00 	lea    0x11037(%rip),%rax        # 1a600 <g_1155>
    95c9:	48 89 85 00 f8 ff ff 	mov    %rax,-0x800(%rbp)
    95d0:	48 8d 05 29 10 01 00 	lea    0x11029(%rip),%rax        # 1a600 <g_1155>
    95d7:	48 89 85 08 f8 ff ff 	mov    %rax,-0x7f8(%rbp)
    95de:	48 c7 85 10 f8 ff ff 	movq   $0x0,-0x7f0(%rbp)
    95e5:	00 00 00 00 
    95e9:	48 8d 05 48 40 01 00 	lea    0x14048(%rip),%rax        # 1d638 <g_167>
    95f0:	48 89 85 18 f8 ff ff 	mov    %rax,-0x7e8(%rbp)
    95f7:	48 c7 85 20 f8 ff ff 	movq   $0x0,-0x7e0(%rbp)
    95fe:	00 00 00 00 
    9602:	48 8d 85 80 fd ff ff 	lea    -0x280(%rbp),%rax
    9609:	48 89 85 28 f8 ff ff 	mov    %rax,-0x7d8(%rbp)
    9610:	c7 85 24 f6 ff ff 00 	movl   $0x0,-0x9dc(%rbp)
    9617:	00 00 00 
    961a:	eb 4c                	jmp    9668 <func_1+0xeb3>
    961c:	c7 85 28 f6 ff ff 00 	movl   $0x0,-0x9d8(%rbp)
    9623:	00 00 00 
    9626:	eb 30                	jmp    9658 <func_1+0xea3>
    9628:	8b 85 28 f6 ff ff    	mov    -0x9d8(%rbp),%eax
    962e:	48 63 c8             	movslq %eax,%rcx
    9631:	8b 85 24 f6 ff ff    	mov    -0x9dc(%rbp),%eax
    9637:	48 63 d0             	movslq %eax,%rdx
    963a:	48 89 d0             	mov    %rdx,%rax
    963d:	48 01 c0             	add    %rax,%rax
    9640:	48 01 d0             	add    %rdx,%rax
    9643:	48 01 c8             	add    %rcx,%rax
    9646:	c7 84 85 80 fd ff ff 	movl   $0x225fa81,-0x280(%rbp,%rax,4)
    964d:	81 fa 25 02 
    9651:	83 85 28 f6 ff ff 01 	addl   $0x1,-0x9d8(%rbp)
    9658:	83 bd 28 f6 ff ff 02 	cmpl   $0x2,-0x9d8(%rbp)
    965f:	7e c7                	jle    9628 <func_1+0xe73>
    9661:	83 85 24 f6 ff ff 01 	addl   $0x1,-0x9dc(%rbp)
    9668:	83 bd 24 f6 ff ff 05 	cmpl   $0x5,-0x9dc(%rbp)
    966f:	7e ab                	jle    961c <func_1+0xe67>
    9671:	c7 85 24 f6 ff ff 00 	movl   $0x0,-0x9dc(%rbp)
    9678:	00 00 00 
    967b:	eb 1e                	jmp    969b <func_1+0xee6>
    967d:	8b 85 24 f6 ff ff    	mov    -0x9dc(%rbp),%eax
    9683:	48 98                	cltq   
    9685:	48 8d 95 b0 f6 ff ff 	lea    -0x950(%rbp),%rdx
    968c:	48 89 94 c5 a0 f9 ff 	mov    %rdx,-0x660(%rbp,%rax,8)
    9693:	ff 
    9694:	83 85 24 f6 ff ff 01 	addl   $0x1,-0x9dc(%rbp)
    969b:	83 bd 24 f6 ff ff 02 	cmpl   $0x2,-0x9dc(%rbp)
    96a2:	7e d9                	jle    967d <func_1+0xec8>
    96a4:	48 83 bd e0 f7 ff ff 	cmpq   $0x0,-0x820(%rbp)
    96ab:	00 
    96ac:	0f 84 19 02 00 00    	je     98cb <func_1+0x1116>
    96b2:	48 c7 85 58 f8 ff ff 	movq   $0x0,-0x7a8(%rbp)
    96b9:	00 00 00 00 
    96bd:	48 8d 05 40 0f 01 00 	lea    0x10f40(%rip),%rax        # 1a604 <g_1357>
    96c4:	48 89 85 60 f8 ff ff 	mov    %rax,-0x7a0(%rbp)
    96cb:	48 b8 ee 37 07 60 39 	movabs $0x5f9d1a39600737ee,%rax
    96d2:	1a 9d 5f 
    96d5:	48 89 85 68 f8 ff ff 	mov    %rax,-0x798(%rbp)
    96dc:	0f b6 85 14 f6 ff ff 	movzbl -0x9ec(%rbp),%eax
    96e3:	66 98                	cbtw   
    96e5:	0f b7 d8             	movzwl %ax,%ebx
    96e8:	48 8b 85 68 f8 ff ff 	mov    -0x798(%rbp),%rax
    96ef:	44 0f b6 e0          	movzbl %al,%r12d
    96f3:	0f b7 05 4c da 00 00 	movzwl 0xda4c(%rip),%eax        # 17146 <l_1348.4145+0x86>
    96fa:	66 85 c0             	test   %ax,%ax
    96fd:	0f 84 94 00 00 00    	je     9797 <func_1+0xfe2>
    9703:	0f b6 85 14 f6 ff ff 	movzbl -0x9ec(%rbp),%eax
    970a:	0f be d0             	movsbl %al,%edx
    970d:	48 8b 85 60 f8 ff ff 	mov    -0x7a0(%rbp),%rax
    9714:	c7 00 01 00 00 00    	movl   $0x1,(%rax)
    971a:	48 8b 85 60 f8 ff ff 	mov    -0x7a0(%rbp),%rax
    9721:	8b 00                	mov    (%rax),%eax
    9723:	39 c2                	cmp    %eax,%edx
    9725:	7d 07                	jge    972e <func_1+0xf79>
    9727:	b8 01 00 00 00       	mov    $0x1,%eax
    972c:	eb 05                	jmp    9733 <func_1+0xf7e>
    972e:	b8 00 00 00 00       	mov    $0x0,%eax
    9733:	48 98                	cltq   
    9735:	48 ba 60 1f 17 2d e1 	movabs $0xa25978e12d171f60,%rdx
    973c:	78 59 a2 
    973f:	48 31 d0             	xor    %rdx,%rax
    9742:	48 33 85 e0 f7 ff ff 	xor    -0x820(%rbp),%rax
    9749:	49 89 c6             	mov    %rax,%r14
    974c:	48 8b 85 e8 f6 ff ff 	mov    -0x918(%rbp),%rax
    9753:	44 8b 28             	mov    (%rax),%r13d
    9756:	be 08 00 00 00       	mov    $0x8,%esi
    975b:	bf b1 33 00 00       	mov    $0x33b1,%edi
    9760:	e8 9a e5 ff ff       	callq  7cff <safe_add_func_uint16_t_u_u>
    9765:	0f b7 c0             	movzwl %ax,%eax
    9768:	41 39 c5             	cmp    %eax,%r13d
    976b:	75 0a                	jne    9777 <func_1+0xfc2>
    976d:	8b 05 8d 0e 01 00    	mov    0x10e8d(%rip),%eax        # 1a600 <g_1155>
    9773:	85 c0                	test   %eax,%eax
    9775:	74 07                	je     977e <func_1+0xfc9>
    9777:	b8 01 00 00 00       	mov    $0x1,%eax
    977c:	eb 05                	jmp    9783 <func_1+0xfce>
    977e:	b8 00 00 00 00       	mov    $0x0,%eax
    9783:	48 98                	cltq   
    9785:	4c 89 f6             	mov    %r14,%rsi
    9788:	48 89 c7             	mov    %rax,%rdi
    978b:	e8 24 e2 ff ff       	callq  79b4 <safe_mod_func_int64_t_s_s>
    9790:	b8 01 00 00 00       	mov    $0x1,%eax
    9795:	eb 05                	jmp    979c <func_1+0xfe7>
    9797:	b8 00 00 00 00       	mov    $0x0,%eax
    979c:	0f b6 c0             	movzbl %al,%eax
    979f:	44 89 e6             	mov    %r12d,%esi
    97a2:	89 c7                	mov    %eax,%edi
    97a4:	e8 cf e3 ff ff       	callq  7b78 <safe_sub_func_uint8_t_u_u>
    97a9:	48 8b 05 10 35 01 00 	mov    0x13510(%rip),%rax        # 1ccc0 <g_1022>
    97b0:	8b 00                	mov    (%rax),%eax
    97b2:	83 f8 01             	cmp    $0x1,%eax
    97b5:	0f 94 c0             	sete   %al
    97b8:	0f b6 d0             	movzbl %al,%edx
    97bb:	48 8b 85 c8 f6 ff ff 	mov    -0x938(%rbp),%rax
    97c2:	66 89 10             	mov    %dx,(%rax)
    97c5:	48 8b 85 c8 f6 ff ff 	mov    -0x938(%rbp),%rax
    97cc:	0f b7 00             	movzwl (%rax),%eax
    97cf:	0f b7 c0             	movzwl %ax,%eax
    97d2:	89 de                	mov    %ebx,%esi
    97d4:	89 c7                	mov    %eax,%edi
    97d6:	e8 44 e5 ff ff       	callq  7d1f <safe_sub_func_uint16_t_u_u>
    97db:	0f b7 d0             	movzwl %ax,%edx
    97de:	0f b6 85 14 f6 ff ff 	movzbl -0x9ec(%rbp),%eax
    97e5:	0f be c0             	movsbl %al,%eax
    97e8:	21 d0                	and    %edx,%eax
    97ea:	89 c2                	mov    %eax,%edx
    97ec:	48 8b 85 e0 f7 ff ff 	mov    -0x820(%rbp),%rax
    97f3:	21 d0                	and    %edx,%eax
    97f5:	89 c2                	mov    %eax,%edx
    97f7:	48 8b 85 e8 f6 ff ff 	mov    -0x918(%rbp),%rax
    97fe:	89 10                	mov    %edx,(%rax)
    9800:	48 8b 85 e8 f6 ff ff 	mov    -0x918(%rbp),%rax
    9807:	8b 00                	mov    (%rax),%eax
    9809:	85 c0                	test   %eax,%eax
    980b:	74 24                	je     9831 <func_1+0x107c>
    980d:	48 c7 85 e0 f7 ff ff 	movq   $0x0,-0x820(%rbp)
    9814:	00 00 00 00 
    9818:	48 83 bd e0 f7 ff ff 	cmpq   $0x5,-0x820(%rbp)
    981f:	05 
    9820:	0f 87 9a 00 00 00    	ja     98c0 <func_1+0x110b>
    9826:	8b 05 c0 0a 01 00    	mov    0x10ac0(%rip),%eax        # 1a2ec <g_835>
    982c:	e9 2b 1e 00 00       	jmpq   b65c <func_1+0x2ea7>
    9831:	48 8d 05 b0 35 01 00 	lea    0x135b0(%rip),%rax        # 1cde8 <g_1363>
    9838:	48 89 85 70 f8 ff ff 	mov    %rax,-0x790(%rbp)
    983f:	48 8b 15 a2 35 01 00 	mov    0x135a2(%rip),%rdx        # 1cde8 <g_1363>
    9846:	48 8b 85 70 f8 ff ff 	mov    -0x790(%rbp),%rax
    984d:	48 89 10             	mov    %rdx,(%rax)
    9850:	48 8b 85 c8 f6 ff ff 	mov    -0x938(%rbp),%rax
    9857:	66 c7 00 01 00       	movw   $0x1,(%rax)
    985c:	48 8b 85 e0 f6 ff ff 	mov    -0x920(%rbp),%rax
    9863:	0f b7 00             	movzwl (%rax),%eax
    9866:	66 0d e9 df          	or     $0xdfe9,%ax
    986a:	89 c2                	mov    %eax,%edx
    986c:	48 8b 85 e0 f6 ff ff 	mov    -0x920(%rbp),%rax
    9873:	66 89 10             	mov    %dx,(%rax)
    9876:	48 8b 85 e0 f6 ff ff 	mov    -0x920(%rbp),%rax
    987d:	0f b7 00             	movzwl (%rax),%eax
    9880:	98                   	cwtl   
    9881:	be 01 00 00 00       	mov    $0x1,%esi
    9886:	89 c7                	mov    %eax,%edi
    9888:	e8 68 db ff ff       	callq  73f5 <safe_mul_func_int16_t_s_s>
    988d:	98                   	cwtl   
    988e:	83 e0 fc             	and    $0xfffffffc,%eax
    9891:	89 85 a8 fd ff ff    	mov    %eax,-0x258(%rbp)
    9897:	8b 85 a8 fd ff ff    	mov    -0x258(%rbp),%eax
    989d:	98                   	cwtl   
    989e:	be 00 00 00 00       	mov    $0x0,%esi
    98a3:	89 c7                	mov    %eax,%edi
    98a5:	e8 e8 db ff ff       	callq  7492 <safe_lshift_func_int16_t_s_s>
    98aa:	98                   	cwtl   
    98ab:	89 85 5c f6 ff ff    	mov    %eax,-0x9a4(%rbp)
    98b1:	0f b6 85 14 f6 ff ff 	movzbl -0x9ec(%rbp),%eax
    98b8:	84 c0                	test   %al,%al
    98ba:	0f 85 eb 03 00 00    	jne    9cab <func_1+0x14f6>
    98c0:	8b 85 1c f6 ff ff    	mov    -0x9e4(%rbp),%eax
    98c6:	e9 91 1d 00 00       	jmpq   b65c <func_1+0x2ea7>
    98cb:	c6 85 ea f5 ff ff 05 	movb   $0x5,-0xa16(%rbp)
    98d2:	66 c7 85 a8 f6 ff ff 	movw   $0x0,-0x958(%rbp)
    98d9:	00 00 
    98db:	c7 85 60 f6 ff ff ff 	movl   $0xffffffff,-0x9a0(%rbp)
    98e2:	ff ff ff 
    98e5:	c7 85 64 f6 ff ff 6a 	movl   $0xf3dcaf6a,-0x99c(%rbp)
    98ec:	af dc f3 
    98ef:	48 8b 85 e8 f6 ff ff 	mov    -0x918(%rbp),%rax
    98f6:	8b 10                	mov    (%rax),%edx
    98f8:	0f be 85 ea f5 ff ff 	movsbl -0xa16(%rbp),%eax
    98ff:	21 c2                	and    %eax,%edx
    9901:	48 8b 85 e8 f6 ff ff 	mov    -0x918(%rbp),%rax
    9908:	89 10                	mov    %edx,(%rax)
    990a:	48 8d 05 57 2d 01 00 	lea    0x12d57(%rip),%rax        # 1c668 <g_573>
    9911:	48 39 85 e8 f7 ff ff 	cmp    %rax,-0x818(%rbp)
    9918:	0f 95 c0             	setne  %al
    991b:	0f b6 c0             	movzbl %al,%eax
    991e:	be 04 00 00 00       	mov    $0x4,%esi
    9923:	89 c7                	mov    %eax,%edi
    9925:	e8 94 e4 ff ff       	callq  7dbe <safe_lshift_func_uint16_t_u_s>
    992a:	66 85 c0             	test   %ax,%ax
    992d:	0f 84 ab 01 00 00    	je     9ade <func_1+0x1329>
    9933:	c6 85 eb f5 ff ff 63 	movb   $0x63,-0xa15(%rbp)
    993a:	48 8d 05 ff 36 01 00 	lea    0x136ff(%rip),%rax        # 1d040 <g_1392>
    9941:	48 89 85 40 f8 ff ff 	mov    %rax,-0x7c0(%rbp)
    9948:	48 8d 85 a8 f6 ff ff 	lea    -0x958(%rbp),%rax
    994f:	48 89 85 48 f8 ff ff 	mov    %rax,-0x7b8(%rbp)
    9956:	48 8d 05 a3 0c 01 00 	lea    0x10ca3(%rip),%rax        # 1a600 <g_1155>
    995d:	48 89 85 50 f8 ff ff 	mov    %rax,-0x7b0(%rbp)
    9964:	0f b6 85 14 f6 ff ff 	movzbl -0x9ec(%rbp),%eax
    996b:	0f be d8             	movsbl %al,%ebx
    996e:	48 8b 15 cb 36 01 00 	mov    0x136cb(%rip),%rdx        # 1d040 <g_1392>
    9975:	48 8b 85 40 f8 ff ff 	mov    -0x7c0(%rbp),%rax
    997c:	48 89 10             	mov    %rdx,(%rax)
    997f:	48 8b 85 40 f8 ff ff 	mov    -0x7c0(%rbp),%rax
    9986:	48 8b 00             	mov    (%rax),%rax
    9989:	48 8d 15 a8 35 01 00 	lea    0x135a8(%rip),%rdx        # 1cf38 <g_1390+0x138>
    9990:	48 39 d0             	cmp    %rdx,%rax
    9993:	0f 95 c0             	setne  %al
    9996:	44 0f b6 e8          	movzbl %al,%r13d
    999a:	8b 05 94 06 01 00    	mov    0x10694(%rip),%eax        # 1a034 <g_31>
    99a0:	44 0f b7 e0          	movzwl %ax,%r12d
    99a4:	0f b7 85 a8 f6 ff ff 	movzwl -0x958(%rbp),%eax
    99ab:	0f b6 d0             	movzbl %al,%edx
    99ae:	0f b7 85 a8 f6 ff ff 	movzwl -0x958(%rbp),%eax
    99b5:	0f b6 c0             	movzbl %al,%eax
    99b8:	89 d6                	mov    %edx,%esi
    99ba:	89 c7                	mov    %eax,%edi
    99bc:	e8 ed e1 ff ff       	callq  7bae <safe_mod_func_uint8_t_u_u>
    99c1:	44 89 e6             	mov    %r12d,%esi
    99c4:	bf 01 00 00 00       	mov    $0x1,%edi
    99c9:	e8 6f e3 ff ff       	callq  7d3d <safe_mul_func_uint16_t_u_u>
    99ce:	0f b7 c0             	movzwl %ax,%eax
    99d1:	41 39 c5             	cmp    %eax,%r13d
    99d4:	0f 9c c0             	setl   %al
    99d7:	0f b6 c0             	movzbl %al,%eax
    99da:	89 de                	mov    %ebx,%esi
    99dc:	89 c7                	mov    %eax,%edi
    99de:	e8 af da ff ff       	callq  7492 <safe_lshift_func_int16_t_s_s>
    99e3:	0f b6 85 eb f5 ff ff 	movzbl -0xa15(%rbp),%eax
    99ea:	be 01 00 00 00       	mov    $0x1,%esi
    99ef:	89 c7                	mov    %eax,%edi
    99f1:	e8 10 e4 ff ff       	callq  7e06 <safe_lshift_func_uint16_t_u_u>
    99f6:	0f b7 d8             	movzwl %ax,%ebx
    99f9:	8b 85 5c f6 ff ff    	mov    -0x9a4(%rbp),%eax
    99ff:	0f b6 d0             	movzbl %al,%edx
    9a02:	0f b6 85 eb f5 ff ff 	movzbl -0xa15(%rbp),%eax
    9a09:	89 d6                	mov    %edx,%esi
    9a0b:	89 c7                	mov    %eax,%edi
    9a0d:	e8 c9 e1 ff ff       	callq  7bdb <safe_div_func_uint8_t_u_u>
    9a12:	0f b6 c0             	movzbl %al,%eax
    9a15:	89 de                	mov    %ebx,%esi
    9a17:	89 c7                	mov    %eax,%edi
    9a19:	e8 98 db ff ff       	callq  75b6 <safe_add_func_int32_t_s_s>
    9a1e:	0f b7 c0             	movzwl %ax,%eax
    9a21:	89 c6                	mov    %eax,%esi
    9a23:	bf ff ff 00 00       	mov    $0xffff,%edi
    9a28:	e8 10 e3 ff ff       	callq  7d3d <safe_mul_func_uint16_t_u_u>
    9a2d:	0f b7 d0             	movzwl %ax,%edx
    9a30:	48 8b 85 e8 f6 ff ff 	mov    -0x918(%rbp),%rax
    9a37:	89 10                	mov    %edx,(%rax)
    9a39:	be 01 00 00 00       	mov    $0x1,%esi
    9a3e:	bf 01 00 00 00       	mov    $0x1,%edi
    9a43:	e8 e9 d7 ff ff       	callq  7231 <safe_mod_func_int8_t_s_s>
    9a48:	ba 00 00 00 00       	mov    $0x0,%edx
    9a4d:	48 8b 85 50 f8 ff ff 	mov    -0x7b0(%rbp),%rax
    9a54:	8b 00                	mov    (%rax),%eax
    9a56:	31 c2                	xor    %eax,%edx
    9a58:	48 8b 85 50 f8 ff ff 	mov    -0x7b0(%rbp),%rax
    9a5f:	89 10                	mov    %edx,(%rax)
    9a61:	48 8b 85 50 f8 ff ff 	mov    -0x7b0(%rbp),%rax
    9a68:	8b 00                	mov    (%rax),%eax
    9a6a:	85 c0                	test   %eax,%eax
    9a6c:	74 0c                	je     9a7a <func_1+0x12c5>
    9a6e:	0f b7 85 a8 f6 ff ff 	movzwl -0x958(%rbp),%eax
    9a75:	e9 e2 1b 00 00       	jmpq   b65c <func_1+0x2ea7>
    9a7a:	48 8b 05 a7 32 01 00 	mov    0x132a7(%rip),%rax        # 1cd28 <g_1120>
    9a81:	48 8b 00             	mov    (%rax),%rax
    9a84:	48 8b 00             	mov    (%rax),%rax
    9a87:	48 8b 95 d8 f7 ff ff 	mov    -0x828(%rbp),%rdx
    9a8e:	48 89 10             	mov    %rdx,(%rax)
    9a91:	8b 05 79 0b 01 00    	mov    0x10b79(%rip),%eax        # 1a610 <g_1407>
    9a97:	83 e8 01             	sub    $0x1,%eax
    9a9a:	89 05 70 0b 01 00    	mov    %eax,0x10b70(%rip)        # 1a610 <g_1407>
    9aa0:	83 bd 64 f6 ff ff 00 	cmpl   $0x0,-0x99c(%rbp)
    9aa7:	0f 85 01 02 00 00    	jne    9cae <func_1+0x14f9>
    9aad:	48 8b 05 74 32 01 00 	mov    0x13274(%rip),%rax        # 1cd28 <g_1120>
    9ab4:	48 8b 00             	mov    (%rax),%rax
    9ab7:	48 8b 00             	mov    (%rax),%rax
    9aba:	48 8b 95 d8 f7 ff ff 	mov    -0x828(%rbp),%rdx
    9ac1:	48 89 10             	mov    %rdx,(%rax)
    9ac4:	48 8b 05 1d 32 01 00 	mov    0x1321d(%rip),%rax        # 1cce8 <g_1122>
    9acb:	48 c7 00 00 00 00 00 	movq   $0x0,(%rax)
    9ad2:	83 85 20 f6 ff ff 01 	addl   $0x1,-0x9e0(%rbp)
    9ad9:	e9 d1 01 00 00       	jmpq   9caf <func_1+0x14fa>
    9ade:	48 8d 05 1f 0b 01 00 	lea    0x10b1f(%rip),%rax        # 1a604 <g_1357>
    9ae5:	48 89 85 30 f8 ff ff 	mov    %rax,-0x7d0(%rbp)
    9aec:	c7 85 1c f6 ff ff 00 	movl   $0x0,-0x9e4(%rbp)
    9af3:	00 00 00 
    9af6:	e9 94 01 00 00       	jmpq   9c8f <func_1+0x14da>
    9afb:	48 8d 85 98 f6 ff ff 	lea    -0x968(%rbp),%rax
    9b02:	48 89 85 38 f8 ff ff 	mov    %rax,-0x7c8(%rbp)
    9b09:	48 8b 05 18 32 01 00 	mov    0x13218(%rip),%rax        # 1cd28 <g_1120>
    9b10:	48 8b 00             	mov    (%rax),%rax
    9b13:	48 8b 00             	mov    (%rax),%rax
    9b16:	48 8b 95 30 f8 ff ff 	mov    -0x7d0(%rbp),%rdx
    9b1d:	48 89 10             	mov    %rdx,(%rax)
    9b20:	48 8b 10             	mov    (%rax),%rdx
    9b23:	48 8b 85 38 f8 ff ff 	mov    -0x7c8(%rbp),%rax
    9b2a:	48 89 10             	mov    %rdx,(%rax)
    9b2d:	8b 85 a8 fd ff ff    	mov    -0x258(%rbp),%eax
    9b33:	41 89 c5             	mov    %eax,%r13d
    9b36:	0f b7 95 ee f5 ff ff 	movzwl -0xa12(%rbp),%edx
    9b3d:	8b 85 64 f6 ff ff    	mov    -0x99c(%rbp),%eax
    9b43:	48 89 d6             	mov    %rdx,%rsi
    9b46:	48 89 c7             	mov    %rax,%rdi
    9b49:	e8 f3 dc ff ff       	callq  7841 <safe_add_func_int64_t_s_s>
    9b4e:	48 85 c0             	test   %rax,%rax
    9b51:	0f 85 ff 00 00 00    	jne    9c56 <func_1+0x14a1>
    9b57:	48 8b 85 d8 f7 ff ff 	mov    -0x828(%rbp),%rax
    9b5e:	8b 00                	mov    (%rax),%eax
    9b60:	41 89 c6             	mov    %eax,%r14d
    9b63:	48 8b 85 d8 f7 ff ff 	mov    -0x828(%rbp),%rax
    9b6a:	8b 00                	mov    (%rax),%eax
    9b6c:	85 c0                	test   %eax,%eax
    9b6e:	74 7f                	je     9bef <func_1+0x143a>
    9b70:	48 8b 85 38 f8 ff ff 	mov    -0x7c8(%rbp),%rax
    9b77:	48 8b 00             	mov    (%rax),%rax
    9b7a:	44 8b 20             	mov    (%rax),%r12d
    9b7d:	8b 9d b0 f6 ff ff    	mov    -0x950(%rbp),%ebx
    9b83:	8b 05 2f 07 01 00    	mov    0x1072f(%rip),%eax        # 1a2b8 <g_469+0x18>
    9b89:	0f b7 c0             	movzwl %ax,%eax
    9b8c:	be 05 00 00 00       	mov    $0x5,%esi
    9b91:	89 c7                	mov    %eax,%edi
    9b93:	e8 b0 e2 ff ff       	callq  7e48 <safe_rshift_func_uint16_t_u_s>
    9b98:	48 8b 95 e0 f6 ff ff 	mov    -0x920(%rbp),%rdx
    9b9f:	0f b7 12             	movzwl (%rdx),%edx
    9ba2:	31 c2                	xor    %eax,%edx
    9ba4:	48 8b 85 e0 f6 ff ff 	mov    -0x920(%rbp),%rax
    9bab:	66 89 10             	mov    %dx,(%rax)
    9bae:	48 8b 85 e0 f6 ff ff 	mov    -0x920(%rbp),%rax
    9bb5:	0f b7 00             	movzwl (%rax),%eax
    9bb8:	98                   	cwtl   
    9bb9:	89 de                	mov    %ebx,%esi
    9bbb:	89 c7                	mov    %eax,%edi
    9bbd:	e8 68 d9 ff ff       	callq  752a <safe_rshift_func_int16_t_s_s>
    9bc2:	0f bf d0             	movswl %ax,%edx
    9bc5:	8b 85 b0 f6 ff ff    	mov    -0x950(%rbp),%eax
    9bcb:	39 c2                	cmp    %eax,%edx
    9bcd:	0f 94 c0             	sete   %al
    9bd0:	0f b6 c0             	movzbl %al,%eax
    9bd3:	41 39 c4             	cmp    %eax,%r12d
    9bd6:	7f 10                	jg     9be8 <func_1+0x1433>
    9bd8:	48 8b 85 38 f8 ff ff 	mov    -0x7c8(%rbp),%rax
    9bdf:	48 8b 00             	mov    (%rax),%rax
    9be2:	8b 00                	mov    (%rax),%eax
    9be4:	85 c0                	test   %eax,%eax
    9be6:	74 07                	je     9bef <func_1+0x143a>
    9be8:	b8 01 00 00 00       	mov    $0x1,%eax
    9bed:	eb 05                	jmp    9bf4 <func_1+0x143f>
    9bef:	b8 00 00 00 00       	mov    $0x0,%eax
    9bf4:	0f b6 d8             	movzbl %al,%ebx
    9bf7:	48 8b 85 d8 f7 ff ff 	mov    -0x828(%rbp),%rax
    9bfe:	8b 00                	mov    (%rax),%eax
    9c00:	41 89 c4             	mov    %eax,%r12d
    9c03:	48 8b 85 d8 f7 ff ff 	mov    -0x828(%rbp),%rax
    9c0a:	8b 00                	mov    (%rax),%eax
    9c0c:	0f b7 c0             	movzwl %ax,%eax
    9c0f:	be 06 00 00 00       	mov    $0x6,%esi
    9c14:	89 c7                	mov    %eax,%edi
    9c16:	e8 a3 e1 ff ff       	callq  7dbe <safe_lshift_func_uint16_t_u_s>
    9c1b:	44 31 e0             	xor    %r12d,%eax
    9c1e:	f7 d0                	not    %eax
    9c20:	0f b6 c0             	movzbl %al,%eax
    9c23:	89 de                	mov    %ebx,%esi
    9c25:	89 c7                	mov    %eax,%edi
    9c27:	e8 82 df ff ff       	callq  7bae <safe_mod_func_uint8_t_u_u>
    9c2c:	ba 00 00 00 00       	mov    $0x0,%edx
    9c31:	21 d0                	and    %edx,%eax
    9c33:	0f b6 c0             	movzbl %al,%eax
    9c36:	44 89 f6             	mov    %r14d,%esi
    9c39:	89 c7                	mov    %eax,%edi
    9c3b:	e8 7e e0 ff ff       	callq  7cbe <safe_rshift_func_uint8_t_u_u>
    9c40:	48 8b 05 e9 30 01 00 	mov    0x130e9(%rip),%rax        # 1cd30 <g_1165>
    9c47:	48 8b 10             	mov    (%rax),%rdx
    9c4a:	48 8b 05 f7 39 01 00 	mov    0x139f7(%rip),%rax        # 1d648 <g_391+0x8>
    9c51:	48 39 c2             	cmp    %rax,%rdx
    9c54:	75 07                	jne    9c5d <func_1+0x14a8>
    9c56:	b8 01 00 00 00       	mov    $0x1,%eax
    9c5b:	eb 05                	jmp    9c62 <func_1+0x14ad>
    9c5d:	b8 00 00 00 00       	mov    $0x0,%eax
    9c62:	0f be c0             	movsbl %al,%eax
    9c65:	44 89 ee             	mov    %r13d,%esi
    9c68:	89 c7                	mov    %eax,%edi
    9c6a:	e8 fd d6 ff ff       	callq  736c <safe_rshift_func_int8_t_s_u>
    9c6f:	ba 01 00 00 00       	mov    $0x1,%edx
    9c74:	48 8b 85 e8 f6 ff ff 	mov    -0x918(%rbp),%rax
    9c7b:	8b 00                	mov    (%rax),%eax
    9c7d:	21 c2                	and    %eax,%edx
    9c7f:	48 8b 85 e8 f6 ff ff 	mov    -0x918(%rbp),%rax
    9c86:	89 10                	mov    %edx,(%rax)
    9c88:	83 85 1c f6 ff ff 01 	addl   $0x1,-0x9e4(%rbp)
    9c8f:	83 bd 1c f6 ff ff 35 	cmpl   $0x35,-0x9e4(%rbp)
    9c96:	0f 87 5f fe ff ff    	ja     9afb <func_1+0x1346>
    9c9c:	48 b8 60 1f 17 2d e1 	movabs $0xa25978e12d171f60,%rax
    9ca3:	78 59 a2 
    9ca6:	e9 b1 19 00 00       	jmpq   b65c <func_1+0x2ea7>
    9cab:	90                   	nop
    9cac:	eb 01                	jmp    9caf <func_1+0x14fa>
    9cae:	90                   	nop
    9caf:	8b 05 37 06 01 00    	mov    0x10637(%rip),%eax        # 1a2ec <g_835>
    9cb5:	be 05 00 00 00       	mov    $0x5,%esi
    9cba:	89 c7                	mov    %eax,%edi
    9cbc:	e8 f5 d8 ff ff       	callq  75b6 <safe_add_func_int32_t_s_s>
    9cc1:	89 05 25 06 01 00    	mov    %eax,0x10625(%rip)        # 1a2ec <g_835>
    9cc7:	8b 05 1f 06 01 00    	mov    0x1061f(%rip),%eax        # 1a2ec <g_835>
    9ccd:	83 f8 28             	cmp    $0x28,%eax
    9cd0:	0f 85 99 f8 ff ff    	jne    956f <func_1+0xdba>
    9cd6:	c7 85 20 f6 ff ff e3 	movl   $0xffffffe3,-0x9e0(%rbp)
    9cdd:	ff ff ff 
    9ce0:	e9 79 01 00 00       	jmpq   9e5e <func_1+0x16a9>
    9ce5:	c7 85 58 f6 ff ff ff 	movl   $0xffffffff,-0x9a8(%rbp)
    9cec:	ff ff ff 
    9cef:	48 8b 05 32 30 01 00 	mov    0x13032(%rip),%rax        # 1cd28 <g_1120>
    9cf6:	48 8b 00             	mov    (%rax),%rax
    9cf9:	48 8b 00             	mov    (%rax),%rax
    9cfc:	48 c7 00 00 00 00 00 	movq   $0x0,(%rax)
    9d03:	48 8b 85 d8 f7 ff ff 	mov    -0x828(%rbp),%rax
    9d0a:	8b 00                	mov    (%rax),%eax
    9d0c:	0f be d8             	movsbl %al,%ebx
    9d0f:	be 06 00 00 00       	mov    $0x6,%esi
    9d14:	bf 00 00 00 00       	mov    $0x0,%edi
    9d19:	e8 e7 de ff ff       	callq  7c05 <safe_lshift_func_uint8_t_u_s>
    9d1e:	84 c0                	test   %al,%al
    9d20:	0f 85 96 00 00 00    	jne    9dbc <func_1+0x1607>
    9d26:	48 8b 85 d8 f7 ff ff 	mov    -0x828(%rbp),%rax
    9d2d:	8b 00                	mov    (%rax),%eax
    9d2f:	44 0f b6 e0          	movzbl %al,%r12d
    9d33:	48 8b 85 70 f6 ff ff 	mov    -0x990(%rbp),%rax
    9d3a:	0f b6 10             	movzbl (%rax),%edx
    9d3d:	8d 4a 01             	lea    0x1(%rdx),%ecx
    9d40:	88 08                	mov    %cl,(%rax)
    9d42:	44 0f b6 ea          	movzbl %dl,%r13d
    9d46:	8b 85 58 f6 ff ff    	mov    -0x9a8(%rbp),%eax
    9d4c:	0f b7 d0             	movzwl %ax,%edx
    9d4f:	8b 85 58 f6 ff ff    	mov    -0x9a8(%rbp),%eax
    9d55:	48 98                	cltq   
    9d57:	48 b9 65 86 1f 26 d8 	movabs $0x8c979d8261f8665,%rcx
    9d5e:	79 c9 08 
    9d61:	48 39 c8             	cmp    %rcx,%rax
    9d64:	0f 97 c0             	seta   %al
    9d67:	0f b6 c0             	movzbl %al,%eax
    9d6a:	89 d6                	mov    %edx,%esi
    9d6c:	89 c7                	mov    %eax,%edi
    9d6e:	e8 1b e0 ff ff       	callq  7d8e <safe_div_func_uint16_t_u_u>
    9d73:	0f b6 c0             	movzbl %al,%eax
    9d76:	be 02 00 00 00       	mov    $0x2,%esi
    9d7b:	89 c7                	mov    %eax,%edi
    9d7d:	e8 83 de ff ff       	callq  7c05 <safe_lshift_func_uint8_t_u_s>
    9d82:	3c 01                	cmp    $0x1,%al
    9d84:	0f 94 c2             	sete   %dl
    9d87:	48 8b 05 ca 28 01 00 	mov    0x128ca(%rip),%rax        # 1c658 <g_564>
    9d8e:	88 10                	mov    %dl,(%rax)
    9d90:	0f b6 00             	movzbl (%rax),%eax
    9d93:	0f be c0             	movsbl %al,%eax
    9d96:	41 39 c5             	cmp    %eax,%r13d
    9d99:	0f 9d c0             	setge  %al
    9d9c:	0f b6 c0             	movzbl %al,%eax
    9d9f:	be f7 ff ff ff       	mov    $0xfffffff7,%esi
    9da4:	89 c7                	mov    %eax,%edi
    9da6:	e8 67 d4 ff ff       	callq  7212 <safe_mul_func_int8_t_s_s>
    9dab:	44 89 e6             	mov    %r12d,%esi
    9dae:	bf 01 00 00 00       	mov    $0x1,%edi
    9db3:	e8 23 de ff ff       	callq  7bdb <safe_div_func_uint8_t_u_u>
    9db8:	84 c0                	test   %al,%al
    9dba:	74 07                	je     9dc3 <func_1+0x160e>
    9dbc:	b8 01 00 00 00       	mov    $0x1,%eax
    9dc1:	eb 05                	jmp    9dc8 <func_1+0x1613>
    9dc3:	b8 00 00 00 00       	mov    $0x0,%eax
    9dc8:	0f be c0             	movsbl %al,%eax
    9dcb:	89 de                	mov    %ebx,%esi
    9dcd:	89 c7                	mov    %eax,%edi
    9dcf:	e8 3e d4 ff ff       	callq  7212 <safe_mul_func_int8_t_s_s>
    9dd4:	0f b6 c0             	movzbl %al,%eax
    9dd7:	be 04 00 00 00       	mov    $0x4,%esi
    9ddc:	89 c7                	mov    %eax,%edi
    9dde:	e8 22 de ff ff       	callq  7c05 <safe_lshift_func_uint8_t_u_s>
    9de3:	0f b6 d0             	movzbl %al,%edx
    9de6:	48 8b 85 e8 f6 ff ff 	mov    -0x918(%rbp),%rax
    9ded:	8b 00                	mov    (%rax),%eax
    9def:	31 d0                	xor    %edx,%eax
    9df1:	be 00 00 00 00       	mov    $0x0,%esi
    9df6:	89 c7                	mov    %eax,%edi
    9df8:	e8 d3 e0 ff ff       	callq  7ed0 <safe_sub_func_uint32_t_u_u>
    9dfd:	89 c2                	mov    %eax,%edx
    9dff:	8b 85 58 f6 ff ff    	mov    -0x9a8(%rbp),%eax
    9e05:	0f be c0             	movsbl %al,%eax
    9e08:	89 d6                	mov    %edx,%esi
    9e0a:	89 c7                	mov    %eax,%edi
    9e0c:	e8 90 d4 ff ff       	callq  72a1 <safe_lshift_func_int8_t_s_s>
    9e11:	8b 05 69 04 01 00    	mov    0x10469(%rip),%eax        # 1a280 <g_191>
    9e17:	83 c8 bf             	or     $0xffffffbf,%eax
    9e1a:	0f b6 c0             	movzbl %al,%eax
    9e1d:	48 8b 15 04 2f 01 00 	mov    0x12f04(%rip),%rdx        # 1cd28 <g_1120>
    9e24:	48 8b 12             	mov    (%rdx),%rdx
    9e27:	48 8b 1a             	mov    (%rdx),%rbx
    9e2a:	89 c7                	mov    %eax,%edi
    9e2c:	e8 63 a4 00 00       	callq  14294 <func_109>
    9e31:	48 89 03             	mov    %rax,(%rbx)
    9e34:	48 8b 85 d8 f7 ff ff 	mov    -0x828(%rbp),%rax
    9e3b:	8b 00                	mov    (%rax),%eax
    9e3d:	0f b6 c0             	movzbl %al,%eax
    9e40:	48 8b 15 e1 2e 01 00 	mov    0x12ee1(%rip),%rdx        # 1cd28 <g_1120>
    9e47:	48 8b 12             	mov    (%rdx),%rdx
    9e4a:	48 8b 1a             	mov    (%rdx),%rbx
    9e4d:	89 c7                	mov    %eax,%edi
    9e4f:	e8 40 a4 00 00       	callq  14294 <func_109>
    9e54:	48 89 03             	mov    %rax,(%rbx)
    9e57:	83 85 20 f6 ff ff 01 	addl   $0x1,-0x9e0(%rbp)
    9e5e:	83 bd 20 f6 ff ff 34 	cmpl   $0x34,-0x9e0(%rbp)
    9e65:	0f 86 7a fe ff ff    	jbe    9ce5 <func_1+0x1530>
    9e6b:	e9 b4 16 00 00       	jmpq   b524 <func_1+0x2d6f>
    9e70:	48 c7 85 08 f7 ff ff 	movq   $0x0,-0x8f8(%rbp)
    9e77:	00 00 00 00 
    9e7b:	48 8d 05 82 07 01 00 	lea    0x10782(%rip),%rax        # 1a604 <g_1357>
    9e82:	48 89 85 a8 f6 ff ff 	mov    %rax,-0x958(%rbp)
    9e89:	c7 85 08 f6 ff ff 03 	movl   $0x3,-0x9f8(%rbp)
    9e90:	00 00 00 
    9e93:	48 8d 85 04 f6 ff ff 	lea    -0x9fc(%rbp),%rax
    9e9a:	48 89 85 10 f7 ff ff 	mov    %rax,-0x8f0(%rbp)
    9ea1:	48 8d 85 00 f6 ff ff 	lea    -0xa00(%rbp),%rax
    9ea8:	48 89 85 18 f7 ff ff 	mov    %rax,-0x8e8(%rbp)
    9eaf:	48 c7 85 20 f7 ff ff 	movq   $0x0,-0x8e0(%rbp)
    9eb6:	00 00 00 00 
    9eba:	48 8d 85 04 f6 ff ff 	lea    -0x9fc(%rbp),%rax
    9ec1:	48 89 85 28 f7 ff ff 	mov    %rax,-0x8d8(%rbp)
    9ec8:	48 8d 05 31 07 01 00 	lea    0x10731(%rip),%rax        # 1a600 <g_1155>
    9ecf:	48 89 85 30 f7 ff ff 	mov    %rax,-0x8d0(%rbp)
    9ed6:	48 8d 85 40 fa ff ff 	lea    -0x5c0(%rbp),%rax
    9edd:	48 83 c0 34          	add    $0x34,%rax
    9ee1:	48 89 85 38 f7 ff ff 	mov    %rax,-0x8c8(%rbp)
    9ee8:	48 c7 85 40 f7 ff ff 	movq   $0x0,-0x8c0(%rbp)
    9eef:	00 00 00 00 
    9ef3:	48 c7 85 48 f7 ff ff 	movq   $0x0,-0x8b8(%rbp)
    9efa:	00 00 00 00 
    9efe:	48 8d 85 04 f6 ff ff 	lea    -0x9fc(%rbp),%rax
    9f05:	48 89 85 50 f7 ff ff 	mov    %rax,-0x8b0(%rbp)
    9f0c:	48 8d 85 08 f6 ff ff 	lea    -0x9f8(%rbp),%rax
    9f13:	48 89 85 e0 f8 ff ff 	mov    %rax,-0x720(%rbp)
    9f1a:	48 8d 85 08 f6 ff ff 	lea    -0x9f8(%rbp),%rax
    9f21:	48 89 85 e8 f8 ff ff 	mov    %rax,-0x718(%rbp)
    9f28:	48 8d 85 08 f6 ff ff 	lea    -0x9f8(%rbp),%rax
    9f2f:	48 89 85 f0 f8 ff ff 	mov    %rax,-0x710(%rbp)
    9f36:	48 8d 85 08 f6 ff ff 	lea    -0x9f8(%rbp),%rax
    9f3d:	48 89 85 f8 f8 ff ff 	mov    %rax,-0x708(%rbp)
    9f44:	48 8d 85 08 f6 ff ff 	lea    -0x9f8(%rbp),%rax
    9f4b:	48 89 85 00 f9 ff ff 	mov    %rax,-0x700(%rbp)
    9f52:	48 8d 85 08 f6 ff ff 	lea    -0x9f8(%rbp),%rax
    9f59:	48 89 85 08 f9 ff ff 	mov    %rax,-0x6f8(%rbp)
    9f60:	c7 85 40 f6 ff ff 07 	movl   $0x7,-0x9c0(%rbp)
    9f67:	00 00 00 
    9f6a:	c7 05 c0 36 01 00 00 	movl   $0x0,0x136c0(%rip)        # 1d634 <g_139>
    9f71:	00 00 00 
    9f74:	e9 de 12 00 00       	jmpq   b257 <func_1+0x2aa2>
    9f79:	c6 85 e5 f5 ff ff 84 	movb   $0x84,-0xa1b(%rbp)
    9f80:	48 c7 85 b0 f6 ff ff 	movq   $0x1,-0x950(%rbp)
    9f87:	01 00 00 00 
    9f8b:	c7 85 0c f6 ff ff ff 	movl   $0xffffffff,-0x9f4(%rbp)
    9f92:	ff ff ff 
    9f95:	48 8d 85 70 f6 ff ff 	lea    -0x990(%rbp),%rax
    9f9c:	48 89 85 a0 f9 ff ff 	mov    %rax,-0x660(%rbp)
    9fa3:	48 8d 85 70 f6 ff ff 	lea    -0x990(%rbp),%rax
    9faa:	48 89 85 a8 f9 ff ff 	mov    %rax,-0x658(%rbp)
    9fb1:	48 8d 85 70 f6 ff ff 	lea    -0x990(%rbp),%rax
    9fb8:	48 89 85 b0 f9 ff ff 	mov    %rax,-0x650(%rbp)
    9fbf:	48 8d 85 70 f6 ff ff 	lea    -0x990(%rbp),%rax
    9fc6:	48 89 85 b8 f9 ff ff 	mov    %rax,-0x648(%rbp)
    9fcd:	48 8d 85 70 f6 ff ff 	lea    -0x990(%rbp),%rax
    9fd4:	48 89 85 c0 f9 ff ff 	mov    %rax,-0x640(%rbp)
    9fdb:	48 8d 85 68 f6 ff ff 	lea    -0x998(%rbp),%rax
    9fe2:	48 89 85 c8 f9 ff ff 	mov    %rax,-0x638(%rbp)
    9fe9:	48 8d 05 20 1d 01 00 	lea    0x11d20(%rip),%rax        # 1bd10 <g_70+0x10>
    9ff0:	48 89 85 d0 f9 ff ff 	mov    %rax,-0x630(%rbp)
    9ff7:	48 8d 85 68 f6 ff ff 	lea    -0x998(%rbp),%rax
    9ffe:	48 89 85 d8 f9 ff ff 	mov    %rax,-0x628(%rbp)
    a005:	48 8d 05 04 1d 01 00 	lea    0x11d04(%rip),%rax        # 1bd10 <g_70+0x10>
    a00c:	48 89 85 e0 f9 ff ff 	mov    %rax,-0x620(%rbp)
    a013:	48 8d 85 68 f6 ff ff 	lea    -0x998(%rbp),%rax
    a01a:	48 89 85 e8 f9 ff ff 	mov    %rax,-0x618(%rbp)
    a021:	48 8d 85 70 f6 ff ff 	lea    -0x990(%rbp),%rax
    a028:	48 89 85 f0 f9 ff ff 	mov    %rax,-0x610(%rbp)
    a02f:	48 8d 85 70 f6 ff ff 	lea    -0x990(%rbp),%rax
    a036:	48 89 85 f8 f9 ff ff 	mov    %rax,-0x608(%rbp)
    a03d:	48 8d 85 70 f6 ff ff 	lea    -0x990(%rbp),%rax
    a044:	48 89 85 00 fa ff ff 	mov    %rax,-0x600(%rbp)
    a04b:	48 8d 85 70 f6 ff ff 	lea    -0x990(%rbp),%rax
    a052:	48 89 85 08 fa ff ff 	mov    %rax,-0x5f8(%rbp)
    a059:	48 8d 85 70 f6 ff ff 	lea    -0x990(%rbp),%rax
    a060:	48 89 85 10 fa ff ff 	mov    %rax,-0x5f0(%rbp)
    a067:	48 8d 85 68 f6 ff ff 	lea    -0x998(%rbp),%rax
    a06e:	48 89 85 18 fa ff ff 	mov    %rax,-0x5e8(%rbp)
    a075:	48 8d 05 94 1c 01 00 	lea    0x11c94(%rip),%rax        # 1bd10 <g_70+0x10>
    a07c:	48 89 85 20 fa ff ff 	mov    %rax,-0x5e0(%rbp)
    a083:	48 8d 85 68 f6 ff ff 	lea    -0x998(%rbp),%rax
    a08a:	48 89 85 28 fa ff ff 	mov    %rax,-0x5d8(%rbp)
    a091:	48 8d 05 78 1c 01 00 	lea    0x11c78(%rip),%rax        # 1bd10 <g_70+0x10>
    a098:	48 89 85 30 fa ff ff 	mov    %rax,-0x5d0(%rbp)
    a09f:	48 8d 85 68 f6 ff ff 	lea    -0x998(%rbp),%rax
    a0a6:	48 89 85 38 fa ff ff 	mov    %rax,-0x5c8(%rbp)
    a0ad:	48 c7 85 78 f7 ff ff 	movq   $0x0,-0x888(%rbp)
    a0b4:	00 00 00 00 
    a0b8:	66 c7 85 f2 f5 ff ff 	movw   $0x0,-0xa0e(%rbp)
    a0bf:	00 00 
    a0c1:	48 8d 85 f8 f5 ff ff 	lea    -0xa08(%rbp),%rax
    a0c8:	48 89 85 80 f7 ff ff 	mov    %rax,-0x880(%rbp)
    a0cf:	c7 85 2c f6 ff ff 00 	movl   $0x0,-0x9d4(%rbp)
    a0d6:	00 00 00 
    a0d9:	eb 42                	jmp    a11d <func_1+0x1968>
    a0db:	c7 85 30 f6 ff ff 00 	movl   $0x0,-0x9d0(%rbp)
    a0e2:	00 00 00 
    a0e5:	eb 26                	jmp    a10d <func_1+0x1958>
    a0e7:	8b 85 30 f6 ff ff    	mov    -0x9d0(%rbp),%eax
    a0ed:	48 63 d0             	movslq %eax,%rdx
    a0f0:	8b 85 2c f6 ff ff    	mov    -0x9d4(%rbp),%eax
    a0f6:	48 98                	cltq   
    a0f8:	48 01 d0             	add    %rdx,%rax
    a0fb:	c7 84 85 84 f8 ff ff 	movl   $0x1,-0x77c(%rbp,%rax,4)
    a102:	01 00 00 00 
    a106:	83 85 30 f6 ff ff 01 	addl   $0x1,-0x9d0(%rbp)
    a10d:	83 bd 30 f6 ff ff 00 	cmpl   $0x0,-0x9d0(%rbp)
    a114:	7e d1                	jle    a0e7 <func_1+0x1932>
    a116:	83 85 2c f6 ff ff 01 	addl   $0x1,-0x9d4(%rbp)
    a11d:	83 bd 2c f6 ff ff 02 	cmpl   $0x2,-0x9d4(%rbp)
    a124:	7e b5                	jle    a0db <func_1+0x1926>
    a126:	c7 85 2c f6 ff ff 00 	movl   $0x0,-0x9d4(%rbp)
    a12d:	00 00 00 
    a130:	eb 1b                	jmp    a14d <func_1+0x1998>
    a132:	8b 85 2c f6 ff ff    	mov    -0x9d4(%rbp),%eax
    a138:	48 98                	cltq   
    a13a:	48 c7 84 c5 78 f8 ff 	movq   $0x0,-0x788(%rbp,%rax,8)
    a141:	ff 00 00 00 00 
    a146:	83 85 2c f6 ff ff 01 	addl   $0x1,-0x9d4(%rbp)
    a14d:	83 bd 2c f6 ff ff 00 	cmpl   $0x0,-0x9d4(%rbp)
    a154:	7e dc                	jle    a132 <func_1+0x197d>
    a156:	0f b7 05 f9 fe 00 00 	movzwl 0xfef9(%rip),%eax        # 1a056 <g_34+0x16>
    a15d:	0f b7 c0             	movzwl %ax,%eax
    a160:	be 02 00 00 00       	mov    $0x2,%esi
    a165:	89 c7                	mov    %eax,%edi
    a167:	e8 0e dd ff ff       	callq  7e7a <safe_rshift_func_uint16_t_u_u>
    a16c:	66 85 c0             	test   %ax,%ax
    a16f:	0f 84 ff 00 00 00    	je     a274 <func_1+0x1abf>
    a175:	48 8b 05 ec 24 01 00 	mov    0x124ec(%rip),%rax        # 1c668 <g_573>
    a17c:	48 8b 00             	mov    (%rax),%rax
    a17f:	0f b6 85 e6 f5 ff ff 	movzbl -0xa1a(%rbp),%eax
    a186:	48 ba 65 86 1f 26 d8 	movabs $0x8c979d8261f8665,%rdx
    a18d:	79 c9 08 
    a190:	48 31 c2             	xor    %rax,%rdx
    a193:	48 8b 85 78 f6 ff ff 	mov    -0x988(%rbp),%rax
    a19a:	48 89 10             	mov    %rdx,(%rax)
    a19d:	48 8b 00             	mov    (%rax),%rax
    a1a0:	48 85 c0             	test   %rax,%rax
    a1a3:	0f 84 ca 00 00 00    	je     a273 <func_1+0x1abe>
    a1a9:	0f b6 85 e5 f5 ff ff 	movzbl -0xa1b(%rbp),%eax
    a1b0:	66 98                	cbtw   
    a1b2:	0f b7 d8             	movzwl %ax,%ebx
    a1b5:	0f b6 85 e5 f5 ff ff 	movzbl -0xa1b(%rbp),%eax
    a1bc:	44 0f be e0          	movsbl %al,%r12d
    a1c0:	0f b7 05 95 fe 00 00 	movzwl 0xfe95(%rip),%eax        # 1a05c <g_92>
    a1c7:	4c 0f bf e8          	movswq %ax,%r13
    a1cb:	be fa ff ff ff       	mov    $0xfffffffa,%esi
    a1d0:	bf 00 00 00 00       	mov    $0x0,%edi
    a1d5:	e8 57 d0 ff ff       	callq  7231 <safe_mod_func_int8_t_s_s>
    a1da:	48 8b 95 e8 f6 ff ff 	mov    -0x918(%rbp),%rdx
    a1e1:	8b 12                	mov    (%rdx),%edx
    a1e3:	0f be c0             	movsbl %al,%eax
    a1e6:	31 c2                	xor    %eax,%edx
    a1e8:	48 8b 85 e8 f6 ff ff 	mov    -0x918(%rbp),%rax
    a1ef:	89 10                	mov    %edx,(%rax)
    a1f1:	48 8b 85 e8 f6 ff ff 	mov    -0x918(%rbp),%rax
    a1f8:	8b 00                	mov    (%rax),%eax
    a1fa:	89 c2                	mov    %eax,%edx
    a1fc:	48 8b 85 e0 f6 ff ff 	mov    -0x920(%rbp),%rax
    a203:	66 89 10             	mov    %dx,(%rax)
    a206:	48 8b 85 e0 f6 ff ff 	mov    -0x920(%rbp),%rax
    a20d:	0f b7 00             	movzwl (%rax),%eax
    a210:	98                   	cwtl   
    a211:	be 06 00 00 00       	mov    $0x6,%esi
    a216:	89 c7                	mov    %eax,%edi
    a218:	e8 75 d2 ff ff       	callq  7492 <safe_lshift_func_int16_t_s_s>
    a21d:	0f b6 95 e5 f5 ff ff 	movzbl -0xa1b(%rbp),%edx
    a224:	66 0f be d2          	movsbw %dl,%dx
    a228:	66 39 d0             	cmp    %dx,%ax
    a22b:	0f 9d c0             	setge  %al
    a22e:	0f b6 c0             	movzbl %al,%eax
    a231:	4c 89 ee             	mov    %r13,%rsi
    a234:	48 89 c7             	mov    %rax,%rdi
    a237:	e8 44 de ff ff       	callq  8080 <safe_mod_func_uint64_t_u_u>
    a23c:	44 89 e6             	mov    %r12d,%esi
    a23f:	bf 01 be ff ff       	mov    $0xffffbe01,%edi
    a244:	e8 49 d2 ff ff       	callq  7492 <safe_lshift_func_int16_t_s_s>
    a249:	0f b7 c0             	movzwl %ax,%eax
    a24c:	89 de                	mov    %ebx,%esi
    a24e:	89 c7                	mov    %eax,%edi
    a250:	e8 39 db ff ff       	callq  7d8e <safe_div_func_uint16_t_u_u>
    a255:	0f b7 c0             	movzwl %ax,%eax
    a258:	48 39 85 08 f7 ff ff 	cmp    %rax,-0x8f8(%rbp)
    a25f:	0f 94 c0             	sete   %al
    a262:	0f b6 c0             	movzbl %al,%eax
    a265:	be 00 00 00 00       	mov    $0x0,%esi
    a26a:	89 c7                	mov    %eax,%edi
    a26c:	e8 4d da ff ff       	callq  7cbe <safe_rshift_func_uint8_t_u_u>
    a271:	84 c0                	test   %al,%al
    a273:	90                   	nop
    a274:	b8 00 00 00 00       	mov    $0x0,%eax
    a279:	48 89 c2             	mov    %rax,%rdx
    a27c:	48 8b 85 b0 f6 ff ff 	mov    -0x950(%rbp),%rax
    a283:	48 09 d0             	or     %rdx,%rax
    a286:	48 89 85 b0 f6 ff ff 	mov    %rax,-0x950(%rbp)
    a28d:	48 8b 05 54 2a 01 00 	mov    0x12a54(%rip),%rax        # 1cce8 <g_1122>
    a294:	48 8b 95 a8 f6 ff ff 	mov    -0x958(%rbp),%rdx
    a29b:	48 89 10             	mov    %rdx,(%rax)
    a29e:	66 c7 05 b5 fd 00 00 	movw   $0xffee,0xfdb5(%rip)        # 1a05c <g_92>
    a2a5:	ee ff 
    a2a7:	e9 c1 06 00 00       	jmpq   a96d <func_1+0x21b8>
    a2ac:	c6 85 e8 f5 ff ff 05 	movb   $0x5,-0xa18(%rbp)
    a2b3:	48 8d 85 fc f5 ff ff 	lea    -0xa04(%rbp),%rax
    a2ba:	48 89 85 90 f7 ff ff 	mov    %rax,-0x870(%rbp)
    a2c1:	c7 85 10 f6 ff ff 0e 	movl   $0x48eff70e,-0x9f0(%rbp)
    a2c8:	f7 ef 48 
    a2cb:	48 8d 05 66 33 01 00 	lea    0x13366(%rip),%rax        # 1d638 <g_167>
    a2d2:	48 89 85 98 f7 ff ff 	mov    %rax,-0x868(%rbp)
    a2d9:	48 8d 05 58 33 01 00 	lea    0x13358(%rip),%rax        # 1d638 <g_167>
    a2e0:	48 89 85 a0 f7 ff ff 	mov    %rax,-0x860(%rbp)
    a2e7:	c7 85 14 f6 ff ff fd 	movl   $0xfffffffd,-0x9ec(%rbp)
    a2ee:	ff ff ff 
    a2f1:	48 8d 85 10 f6 ff ff 	lea    -0x9f0(%rbp),%rax
    a2f8:	48 89 85 a8 f7 ff ff 	mov    %rax,-0x858(%rbp)
    a2ff:	48 c7 85 b0 f7 ff ff 	movq   $0x0,-0x850(%rbp)
    a306:	00 00 00 00 
    a30a:	48 8d 05 ef 02 01 00 	lea    0x102ef(%rip),%rax        # 1a600 <g_1155>
    a311:	48 89 85 b8 f7 ff ff 	mov    %rax,-0x848(%rbp)
    a318:	48 c7 85 80 fd ff ff 	movq   $0x0,-0x280(%rbp)
    a31f:	00 00 00 00 
    a323:	48 8d 85 fc f5 ff ff 	lea    -0xa04(%rbp),%rax
    a32a:	48 89 85 88 fd ff ff 	mov    %rax,-0x278(%rbp)
    a331:	48 8d 05 c8 02 01 00 	lea    0x102c8(%rip),%rax        # 1a600 <g_1155>
    a338:	48 89 85 90 fd ff ff 	mov    %rax,-0x270(%rbp)
    a33f:	48 8d 85 14 f6 ff ff 	lea    -0x9ec(%rbp),%rax
    a346:	48 89 85 98 fd ff ff 	mov    %rax,-0x268(%rbp)
    a34d:	48 8d 85 14 f6 ff ff 	lea    -0x9ec(%rbp),%rax
    a354:	48 89 85 a0 fd ff ff 	mov    %rax,-0x260(%rbp)
    a35b:	48 8d 05 9e 02 01 00 	lea    0x1029e(%rip),%rax        # 1a600 <g_1155>
    a362:	48 89 85 a8 fd ff ff 	mov    %rax,-0x258(%rbp)
    a369:	48 8d 85 fc f5 ff ff 	lea    -0xa04(%rbp),%rax
    a370:	48 89 85 b0 fd ff ff 	mov    %rax,-0x250(%rbp)
    a377:	48 c7 85 b8 fd ff ff 	movq   $0x0,-0x248(%rbp)
    a37e:	00 00 00 00 
    a382:	48 8d 05 af 32 01 00 	lea    0x132af(%rip),%rax        # 1d638 <g_167>
    a389:	48 89 85 c0 fd ff ff 	mov    %rax,-0x240(%rbp)
    a390:	48 8d 85 fc f5 ff ff 	lea    -0xa04(%rbp),%rax
    a397:	48 89 85 c8 fd ff ff 	mov    %rax,-0x238(%rbp)
    a39e:	48 8d 85 14 f6 ff ff 	lea    -0x9ec(%rbp),%rax
    a3a5:	48 89 85 d0 fd ff ff 	mov    %rax,-0x230(%rbp)
    a3ac:	48 8d 85 fc f5 ff ff 	lea    -0xa04(%rbp),%rax
    a3b3:	48 89 85 d8 fd ff ff 	mov    %rax,-0x228(%rbp)
    a3ba:	48 8d 85 fc f5 ff ff 	lea    -0xa04(%rbp),%rax
    a3c1:	48 89 85 e0 fd ff ff 	mov    %rax,-0x220(%rbp)
    a3c8:	48 8d 85 fc f5 ff ff 	lea    -0xa04(%rbp),%rax
    a3cf:	48 89 85 e8 fd ff ff 	mov    %rax,-0x218(%rbp)
    a3d6:	48 8d 85 14 f6 ff ff 	lea    -0x9ec(%rbp),%rax
    a3dd:	48 89 85 f0 fd ff ff 	mov    %rax,-0x210(%rbp)
    a3e4:	48 8d 85 fc f5 ff ff 	lea    -0xa04(%rbp),%rax
    a3eb:	48 89 85 f8 fd ff ff 	mov    %rax,-0x208(%rbp)
    a3f2:	48 8d 85 fc f5 ff ff 	lea    -0xa04(%rbp),%rax
    a3f9:	48 89 85 00 fe ff ff 	mov    %rax,-0x200(%rbp)
    a400:	48 8d 85 fc f5 ff ff 	lea    -0xa04(%rbp),%rax
    a407:	48 89 85 08 fe ff ff 	mov    %rax,-0x1f8(%rbp)
    a40e:	48 8d 85 14 f6 ff ff 	lea    -0x9ec(%rbp),%rax
    a415:	48 89 85 10 fe ff ff 	mov    %rax,-0x1f0(%rbp)
    a41c:	48 8d 85 fc f5 ff ff 	lea    -0xa04(%rbp),%rax
    a423:	48 89 85 18 fe ff ff 	mov    %rax,-0x1e8(%rbp)
    a42a:	48 8d 05 07 32 01 00 	lea    0x13207(%rip),%rax        # 1d638 <g_167>
    a431:	48 89 85 20 fe ff ff 	mov    %rax,-0x1e0(%rbp)
    a438:	48 c7 85 28 fe ff ff 	movq   $0x0,-0x1d8(%rbp)
    a43f:	00 00 00 00 
    a443:	48 8d 85 fc f5 ff ff 	lea    -0xa04(%rbp),%rax
    a44a:	48 89 85 30 fe ff ff 	mov    %rax,-0x1d0(%rbp)
    a451:	48 8d 05 a8 01 01 00 	lea    0x101a8(%rip),%rax        # 1a600 <g_1155>
    a458:	48 89 85 38 fe ff ff 	mov    %rax,-0x1c8(%rbp)
    a45f:	48 8d 85 14 f6 ff ff 	lea    -0x9ec(%rbp),%rax
    a466:	48 89 85 40 fe ff ff 	mov    %rax,-0x1c0(%rbp)
    a46d:	48 8d 85 14 f6 ff ff 	lea    -0x9ec(%rbp),%rax
    a474:	48 89 85 48 fe ff ff 	mov    %rax,-0x1b8(%rbp)
    a47b:	48 8d 05 7e 01 01 00 	lea    0x1017e(%rip),%rax        # 1a600 <g_1155>
    a482:	48 89 85 50 fe ff ff 	mov    %rax,-0x1b0(%rbp)
    a489:	48 8d 85 fc f5 ff ff 	lea    -0xa04(%rbp),%rax
    a490:	48 89 85 58 fe ff ff 	mov    %rax,-0x1a8(%rbp)
    a497:	48 c7 85 60 fe ff ff 	movq   $0x0,-0x1a0(%rbp)
    a49e:	00 00 00 00 
    a4a2:	48 8d 05 8f 31 01 00 	lea    0x1318f(%rip),%rax        # 1d638 <g_167>
    a4a9:	48 89 85 68 fe ff ff 	mov    %rax,-0x198(%rbp)
    a4b0:	48 8d 85 fc f5 ff ff 	lea    -0xa04(%rbp),%rax
    a4b7:	48 89 85 70 fe ff ff 	mov    %rax,-0x190(%rbp)
    a4be:	48 8d 85 14 f6 ff ff 	lea    -0x9ec(%rbp),%rax
    a4c5:	48 89 85 78 fe ff ff 	mov    %rax,-0x188(%rbp)
    a4cc:	48 8d 85 fc f5 ff ff 	lea    -0xa04(%rbp),%rax
    a4d3:	48 89 85 80 fe ff ff 	mov    %rax,-0x180(%rbp)
    a4da:	48 8d 85 fc f5 ff ff 	lea    -0xa04(%rbp),%rax
    a4e1:	48 89 85 88 fe ff ff 	mov    %rax,-0x178(%rbp)
    a4e8:	48 8d 85 fc f5 ff ff 	lea    -0xa04(%rbp),%rax
    a4ef:	48 89 85 90 fe ff ff 	mov    %rax,-0x170(%rbp)
    a4f6:	48 8d 85 14 f6 ff ff 	lea    -0x9ec(%rbp),%rax
    a4fd:	48 89 85 98 fe ff ff 	mov    %rax,-0x168(%rbp)
    a504:	48 8d 85 fc f5 ff ff 	lea    -0xa04(%rbp),%rax
    a50b:	48 89 85 a0 fe ff ff 	mov    %rax,-0x160(%rbp)
    a512:	48 8d 85 fc f5 ff ff 	lea    -0xa04(%rbp),%rax
    a519:	48 89 85 a8 fe ff ff 	mov    %rax,-0x158(%rbp)
    a520:	48 8d 85 fc f5 ff ff 	lea    -0xa04(%rbp),%rax
    a527:	48 89 85 b0 fe ff ff 	mov    %rax,-0x150(%rbp)
    a52e:	48 8d 85 14 f6 ff ff 	lea    -0x9ec(%rbp),%rax
    a535:	48 89 85 b8 fe ff ff 	mov    %rax,-0x148(%rbp)
    a53c:	48 8d 85 fc f5 ff ff 	lea    -0xa04(%rbp),%rax
    a543:	48 89 85 c0 fe ff ff 	mov    %rax,-0x140(%rbp)
    a54a:	48 8d 05 e7 30 01 00 	lea    0x130e7(%rip),%rax        # 1d638 <g_167>
    a551:	48 89 85 c8 fe ff ff 	mov    %rax,-0x138(%rbp)
    a558:	48 c7 85 d0 fe ff ff 	movq   $0x0,-0x130(%rbp)
    a55f:	00 00 00 00 
    a563:	48 8d 85 fc f5 ff ff 	lea    -0xa04(%rbp),%rax
    a56a:	48 89 85 d8 fe ff ff 	mov    %rax,-0x128(%rbp)
    a571:	48 8d 05 88 00 01 00 	lea    0x10088(%rip),%rax        # 1a600 <g_1155>
    a578:	48 89 85 e0 fe ff ff 	mov    %rax,-0x120(%rbp)
    a57f:	48 8d 85 14 f6 ff ff 	lea    -0x9ec(%rbp),%rax
    a586:	48 89 85 e8 fe ff ff 	mov    %rax,-0x118(%rbp)
    a58d:	48 8d 85 14 f6 ff ff 	lea    -0x9ec(%rbp),%rax
    a594:	48 89 85 f0 fe ff ff 	mov    %rax,-0x110(%rbp)
    a59b:	48 8d 05 5e 00 01 00 	lea    0x1005e(%rip),%rax        # 1a600 <g_1155>
    a5a2:	48 89 85 f8 fe ff ff 	mov    %rax,-0x108(%rbp)
    a5a9:	48 8d 85 fc f5 ff ff 	lea    -0xa04(%rbp),%rax
    a5b0:	48 89 85 00 ff ff ff 	mov    %rax,-0x100(%rbp)
    a5b7:	48 c7 85 08 ff ff ff 	movq   $0x0,-0xf8(%rbp)
    a5be:	00 00 00 00 
    a5c2:	48 8d 05 6f 30 01 00 	lea    0x1306f(%rip),%rax        # 1d638 <g_167>
    a5c9:	48 89 85 10 ff ff ff 	mov    %rax,-0xf0(%rbp)
    a5d0:	48 8d 85 fc f5 ff ff 	lea    -0xa04(%rbp),%rax
    a5d7:	48 89 85 18 ff ff ff 	mov    %rax,-0xe8(%rbp)
    a5de:	48 8d 85 14 f6 ff ff 	lea    -0x9ec(%rbp),%rax
    a5e5:	48 89 85 20 ff ff ff 	mov    %rax,-0xe0(%rbp)
    a5ec:	48 8d 85 fc f5 ff ff 	lea    -0xa04(%rbp),%rax
    a5f3:	48 89 85 28 ff ff ff 	mov    %rax,-0xd8(%rbp)
    a5fa:	48 8d 85 fc f5 ff ff 	lea    -0xa04(%rbp),%rax
    a601:	48 89 85 30 ff ff ff 	mov    %rax,-0xd0(%rbp)
    a608:	48 8d 85 fc f5 ff ff 	lea    -0xa04(%rbp),%rax
    a60f:	48 89 85 38 ff ff ff 	mov    %rax,-0xc8(%rbp)
    a616:	48 8d 85 14 f6 ff ff 	lea    -0x9ec(%rbp),%rax
    a61d:	48 89 85 40 ff ff ff 	mov    %rax,-0xc0(%rbp)
    a624:	48 8d 85 fc f5 ff ff 	lea    -0xa04(%rbp),%rax
    a62b:	48 89 85 48 ff ff ff 	mov    %rax,-0xb8(%rbp)
    a632:	48 8d 85 fc f5 ff ff 	lea    -0xa04(%rbp),%rax
    a639:	48 89 85 50 ff ff ff 	mov    %rax,-0xb0(%rbp)
    a640:	48 8d 85 fc f5 ff ff 	lea    -0xa04(%rbp),%rax
    a647:	48 89 85 58 ff ff ff 	mov    %rax,-0xa8(%rbp)
    a64e:	48 8d 85 14 f6 ff ff 	lea    -0x9ec(%rbp),%rax
    a655:	48 89 85 60 ff ff ff 	mov    %rax,-0xa0(%rbp)
    a65c:	48 8d 85 fc f5 ff ff 	lea    -0xa04(%rbp),%rax
    a663:	48 89 85 68 ff ff ff 	mov    %rax,-0x98(%rbp)
    a66a:	48 8d 05 c7 2f 01 00 	lea    0x12fc7(%rip),%rax        # 1d638 <g_167>
    a671:	48 89 85 70 ff ff ff 	mov    %rax,-0x90(%rbp)
    a678:	48 c7 85 78 ff ff ff 	movq   $0x0,-0x88(%rbp)
    a67f:	00 00 00 00 
    a683:	48 8d 85 fc f5 ff ff 	lea    -0xa04(%rbp),%rax
    a68a:	48 89 45 80          	mov    %rax,-0x80(%rbp)
    a68e:	48 8d 05 6b ff 00 00 	lea    0xff6b(%rip),%rax        # 1a600 <g_1155>
    a695:	48 89 45 88          	mov    %rax,-0x78(%rbp)
    a699:	48 8d 85 14 f6 ff ff 	lea    -0x9ec(%rbp),%rax
    a6a0:	48 89 45 90          	mov    %rax,-0x70(%rbp)
    a6a4:	48 8d 85 14 f6 ff ff 	lea    -0x9ec(%rbp),%rax
    a6ab:	48 89 45 98          	mov    %rax,-0x68(%rbp)
    a6af:	48 8d 05 4a ff 00 00 	lea    0xff4a(%rip),%rax        # 1a600 <g_1155>
    a6b6:	48 89 45 a0          	mov    %rax,-0x60(%rbp)
    a6ba:	48 8d 85 fc f5 ff ff 	lea    -0xa04(%rbp),%rax
    a6c1:	48 89 45 a8          	mov    %rax,-0x58(%rbp)
    a6c5:	48 c7 45 b0 00 00 00 	movq   $0x0,-0x50(%rbp)
    a6cc:	00 
    a6cd:	48 8d 05 64 2f 01 00 	lea    0x12f64(%rip),%rax        # 1d638 <g_167>
    a6d4:	48 89 45 b8          	mov    %rax,-0x48(%rbp)
    a6d8:	c7 85 50 f6 ff ff 38 	movl   $0xf4886938,-0x9b0(%rbp)
    a6df:	69 88 f4 
    a6e2:	48 8b 85 e8 f6 ff ff 	mov    -0x918(%rbp),%rax
    a6e9:	8b 10                	mov    (%rax),%edx
    a6eb:	48 8b 85 e8 f6 ff ff 	mov    -0x918(%rbp),%rax
    a6f2:	89 10                	mov    %edx,(%rax)
    a6f4:	48 8b 05 5d 1f 01 00 	mov    0x11f5d(%rip),%rax        # 1c658 <g_564>
    a6fb:	c6 00 00             	movb   $0x0,(%rax)
    a6fe:	0f b6 8d e8 f5 ff ff 	movzbl -0xa18(%rbp),%ecx
    a705:	48 8b 05 bc 25 01 00 	mov    0x125bc(%rip),%rax        # 1ccc8 <g_1119>
    a70c:	8b 10                	mov    (%rax),%edx
    a70e:	48 8b 05 b3 25 01 00 	mov    0x125b3(%rip),%rax        # 1ccc8 <g_1119>
    a715:	21 ca                	and    %ecx,%edx
    a717:	89 10                	mov    %edx,(%rax)
    a719:	83 85 50 f6 ff ff 01 	addl   $0x1,-0x9b0(%rbp)
    a720:	48 8b 85 a8 f6 ff ff 	mov    -0x958(%rbp),%rax
    a727:	8b 00                	mov    (%rax),%eax
    a729:	85 c0                	test   %eax,%eax
    a72b:	0f 84 30 02 00 00    	je     a961 <func_1+0x21ac>
    a731:	c6 85 e9 f5 ff ff 85 	movb   $0x85,-0xa17(%rbp)
    a738:	48 c7 85 c0 f7 ff ff 	movq   $0x0,-0x840(%rbp)
    a73f:	00 00 00 00 
    a743:	48 8d 05 fc fe 00 00 	lea    0xfefc(%rip),%rax        # 1a646 <g_1541>
    a74a:	48 89 85 c8 f7 ff ff 	mov    %rax,-0x838(%rbp)
    a751:	c7 85 50 f9 ff ff 2d 	movl   $0xbdee612d,-0x6b0(%rbp)
    a758:	61 ee bd 
    a75b:	c7 85 54 f9 ff ff 2d 	movl   $0xbdee612d,-0x6ac(%rbp)
    a762:	61 ee bd 
    a765:	c7 85 58 f9 ff ff 2d 	movl   $0xbdee612d,-0x6a8(%rbp)
    a76c:	61 ee bd 
    a76f:	c7 85 5c f9 ff ff 2d 	movl   $0xbdee612d,-0x6a4(%rbp)
    a776:	61 ee bd 
    a779:	c7 85 60 f9 ff ff 2d 	movl   $0xbdee612d,-0x6a0(%rbp)
    a780:	61 ee bd 
    a783:	c7 85 64 f9 ff ff 2d 	movl   $0xbdee612d,-0x69c(%rbp)
    a78a:	61 ee bd 
    a78d:	c7 85 68 f9 ff ff 2d 	movl   $0xbdee612d,-0x698(%rbp)
    a794:	61 ee bd 
    a797:	8b 85 8c f8 ff ff    	mov    -0x774(%rbp),%eax
    a79d:	0f b6 c0             	movzbl %al,%eax
    a7a0:	48 8b 1d 41 25 01 00 	mov    0x12541(%rip),%rbx        # 1cce8 <g_1122>
    a7a7:	89 c7                	mov    %eax,%edi
    a7a9:	e8 e6 9a 00 00       	callq  14294 <func_109>
    a7ae:	48 89 03             	mov    %rax,(%rbx)
    a7b1:	0f b7 05 8c fe 00 00 	movzwl 0xfe8c(%rip),%eax        # 1a644 <g_1516>
    a7b8:	83 c0 01             	add    $0x1,%eax
    a7bb:	66 89 05 82 fe 00 00 	mov    %ax,0xfe82(%rip)        # 1a644 <g_1516>
    a7c2:	0f b6 85 e9 f5 ff ff 	movzbl -0xa17(%rbp),%eax
    a7c9:	83 e8 01             	sub    $0x1,%eax
    a7cc:	88 85 e9 f5 ff ff    	mov    %al,-0xa17(%rbp)
    a7d2:	8b 85 88 f8 ff ff    	mov    -0x778(%rbp),%eax
    a7d8:	48 98                	cltq   
    a7da:	48 be 02 b2 99 5a 06 	movabs $0x6d0436065a99b202,%rsi
    a7e1:	36 04 6d 
    a7e4:	48 89 c7             	mov    %rax,%rdi
    a7e7:	e8 c3 d8 ff ff       	callq  80af <safe_div_func_uint64_t_u_u>
    a7ec:	89 c3                	mov    %eax,%ebx
    a7ee:	48 8b 85 10 fa ff ff 	mov    -0x5f0(%rbp),%rax
    a7f5:	48 8d 15 14 15 01 00 	lea    0x11514(%rip),%rdx        # 1bd10 <g_70+0x10>
    a7fc:	48 39 d0             	cmp    %rdx,%rax
    a7ff:	0f 94 c0             	sete   %al
    a802:	0f b6 d0             	movzbl %al,%edx
    a805:	48 8b 05 cc fa 00 00 	mov    0xfacc(%rip),%rax        # 1a2d8 <g_574>
    a80c:	48 39 c2             	cmp    %rax,%rdx
    a80f:	0f 9f c0             	setg   %al
    a812:	0f b6 c0             	movzbl %al,%eax
    a815:	be 0c 00 00 00       	mov    $0xc,%esi
    a81a:	89 c7                	mov    %eax,%edi
    a81c:	e8 9d d5 ff ff       	callq  7dbe <safe_lshift_func_uint16_t_u_s>
    a821:	09 d8                	or     %ebx,%eax
    a823:	98                   	cwtl   
    a824:	89 c6                	mov    %eax,%esi
    a826:	bf 9b 89 ff ff       	mov    $0xffff899b,%edi
    a82b:	e8 a3 cb ff ff       	callq  73d3 <safe_sub_func_int16_t_s_s>
    a830:	0f b6 85 e5 f5 ff ff 	movzbl -0xa1b(%rbp),%eax
    a837:	0f be d8             	movsbl %al,%ebx
    a83a:	80 bd e9 f5 ff ff 00 	cmpb   $0x0,-0xa17(%rbp)
    a841:	75 69                	jne    a8ac <func_1+0x20f7>
    a843:	48 ba 65 86 1f 26 d8 	movabs $0x8c979d8261f8665,%rdx
    a84a:	79 c9 08 
    a84d:	b8 11 c8 f4 c2       	mov    $0xc2f4c811,%eax
    a852:	48 39 c2             	cmp    %rax,%rdx
    a855:	0f 97 c0             	seta   %al
    a858:	0f b6 c0             	movzbl %al,%eax
    a85b:	be 01 00 00 00       	mov    $0x1,%esi
    a860:	89 c7                	mov    %eax,%edi
    a862:	e8 e5 d3 ff ff       	callq  7c4c <safe_lshift_func_uint8_t_u_u>
    a867:	0f b7 05 d6 fd 00 00 	movzwl 0xfdd6(%rip),%eax        # 1a644 <g_1516>
    a86e:	66 83 f8 01          	cmp    $0x1,%ax
    a872:	0f 97 c0             	seta   %al
    a875:	0f b6 c0             	movzbl %al,%eax
    a878:	be 00 00 00 00       	mov    $0x0,%esi
    a87d:	89 c7                	mov    %eax,%edi
    a87f:	e8 09 d4 ff ff       	callq  7c8d <safe_rshift_func_uint8_t_u_s>
    a884:	48 8b 85 e0 f6 ff ff 	mov    -0x920(%rbp),%rax
    a88b:	66 c7 00 76 b1       	movw   $0xb176,(%rax)
    a890:	48 8b 85 e0 f6 ff ff 	mov    -0x920(%rbp),%rax
    a897:	0f b7 00             	movzwl (%rax),%eax
    a89a:	98                   	cwtl   
    a89b:	be 09 00 00 00       	mov    $0x9,%esi
    a8a0:	89 c7                	mov    %eax,%edi
    a8a2:	e8 3a cc ff ff       	callq  74e1 <safe_lshift_func_int16_t_s_u>
    a8a7:	66 85 c0             	test   %ax,%ax
    a8aa:	74 07                	je     a8b3 <func_1+0x20fe>
    a8ac:	ba 01 00 00 00       	mov    $0x1,%edx
    a8b1:	eb 05                	jmp    a8b8 <func_1+0x2103>
    a8b3:	ba 00 00 00 00       	mov    $0x0,%edx
    a8b8:	48 8b 85 c0 f6 ff ff 	mov    -0x940(%rbp),%rax
    a8bf:	0f b7 00             	movzwl (%rax),%eax
    a8c2:	89 c1                	mov    %eax,%ecx
    a8c4:	89 d0                	mov    %edx,%eax
    a8c6:	31 c8                	xor    %ecx,%eax
    a8c8:	89 c2                	mov    %eax,%edx
    a8ca:	48 8b 85 c0 f6 ff ff 	mov    -0x940(%rbp),%rax
    a8d1:	66 89 10             	mov    %dx,(%rax)
    a8d4:	48 8b 85 c0 f6 ff ff 	mov    -0x940(%rbp),%rax
    a8db:	0f b7 00             	movzwl (%rax),%eax
    a8de:	0f b7 c0             	movzwl %ax,%eax
    a8e1:	89 de                	mov    %ebx,%esi
    a8e3:	89 c7                	mov    %eax,%edi
    a8e5:	e8 5e d5 ff ff       	callq  7e48 <safe_rshift_func_uint16_t_u_s>
    a8ea:	48 8b 95 c8 f7 ff ff 	mov    -0x838(%rbp),%rdx
    a8f1:	0f b7 12             	movzwl (%rdx),%edx
    a8f4:	09 c2                	or     %eax,%edx
    a8f6:	48 8b 85 c8 f7 ff ff 	mov    -0x838(%rbp),%rax
    a8fd:	66 89 10             	mov    %dx,(%rax)
    a900:	8b 85 60 f9 ff ff    	mov    -0x6a0(%rbp),%eax
    a906:	89 c0                	mov    %eax,%eax
    a908:	83 e0 01             	and    $0x1,%eax
    a90b:	8b 95 60 f9 ff ff    	mov    -0x6a0(%rbp),%edx
    a911:	89 d2                	mov    %edx,%edx
    a913:	48 39 d0             	cmp    %rdx,%rax
    a916:	7e 08                	jle    a920 <func_1+0x216b>
    a918:	8b 85 0c f6 ff ff    	mov    -0x9f4(%rbp),%eax
    a91e:	85 c0                	test   %eax,%eax
    a920:	48 8b 85 e8 f6 ff ff 	mov    -0x918(%rbp),%rax
    a927:	c7 00 01 00 00 00    	movl   $0x1,(%rax)
    a92d:	48 8b 85 e8 f6 ff ff 	mov    -0x918(%rbp),%rax
    a934:	8b 10                	mov    (%rax),%edx
    a936:	48 8b 85 90 f7 ff ff 	mov    -0x870(%rbp),%rax
    a93d:	89 10                	mov    %edx,(%rax)
    a93f:	0f b7 05 16 f7 00 00 	movzwl 0xf716(%rip),%eax        # 1a05c <g_92>
    a946:	0f b6 c0             	movzbl %al,%eax
    a949:	be 05 00 00 00       	mov    $0x5,%esi
    a94e:	89 c7                	mov    %eax,%edi
    a950:	e8 23 d2 ff ff       	callq  7b78 <safe_sub_func_uint8_t_u_u>
    a955:	0f b6 c0             	movzbl %al,%eax
    a958:	66 89 05 fd f6 00 00 	mov    %ax,0xf6fd(%rip)        # 1a05c <g_92>
    a95f:	eb 0c                	jmp    a96d <func_1+0x21b8>
    a961:	48 8b 05 d0 f8 00 00 	mov    0xf8d0(%rip),%rax        # 1a238 <g_107+0x18>
    a968:	e9 ef 0c 00 00       	jmpq   b65c <func_1+0x2ea7>
    a96d:	0f b7 05 e8 f6 00 00 	movzwl 0xf6e8(%rip),%eax        # 1a05c <g_92>
    a974:	66 83 f8 ed          	cmp    $0xffed,%ax
    a978:	0f 84 2e f9 ff ff    	je     a2ac <func_1+0x1af7>
    a97e:	48 8b 05 5b 23 01 00 	mov    0x1235b(%rip),%rax        # 1cce0 <g_1116>
    a985:	48 8b 00             	mov    (%rax),%rax
    a988:	48 8b 00             	mov    (%rax),%rax
    a98b:	48 8b 00             	mov    (%rax),%rax
    a98e:	8b 00                	mov    (%rax),%eax
    a990:	85 c0                	test   %eax,%eax
    a992:	0f 84 8e 06 00 00    	je     b026 <func_1+0x2871>
    a998:	c7 85 80 fd ff ff 61 	movl   $0x2c5bb461,-0x280(%rbp)
    a99f:	b4 5b 2c 
    a9a2:	c7 85 84 fd ff ff 3f 	movl   $0x9993433f,-0x27c(%rbp)
    a9a9:	43 93 99 
    a9ac:	c7 85 88 fd ff ff 00 	movl   $0x0,-0x278(%rbp)
    a9b3:	00 00 00 
    a9b6:	c7 85 8c fd ff ff 3f 	movl   $0x9993433f,-0x274(%rbp)
    a9bd:	43 93 99 
    a9c0:	c7 85 90 fd ff ff 61 	movl   $0x2c5bb461,-0x270(%rbp)
    a9c7:	b4 5b 2c 
    a9ca:	c7 85 94 fd ff ff 3f 	movl   $0x9993433f,-0x26c(%rbp)
    a9d1:	43 93 99 
    a9d4:	c7 85 98 fd ff ff 00 	movl   $0x0,-0x268(%rbp)
    a9db:	00 00 00 
    a9de:	c7 85 9c fd ff ff 3f 	movl   $0x9993433f,-0x264(%rbp)
    a9e5:	43 93 99 
    a9e8:	c7 85 a0 fd ff ff 61 	movl   $0x2c5bb461,-0x260(%rbp)
    a9ef:	b4 5b 2c 
    a9f2:	c7 85 a4 fd ff ff 3f 	movl   $0x9993433f,-0x25c(%rbp)
    a9f9:	43 93 99 
    a9fc:	c7 85 a8 fd ff ff 00 	movl   $0x0,-0x258(%rbp)
    aa03:	00 00 00 
    aa06:	c7 85 ac fd ff ff 3f 	movl   $0x9993433f,-0x254(%rbp)
    aa0d:	43 93 99 
    aa10:	c7 85 b0 fd ff ff 61 	movl   $0x2c5bb461,-0x250(%rbp)
    aa17:	b4 5b 2c 
    aa1a:	c7 85 b4 fd ff ff 3f 	movl   $0x9993433f,-0x24c(%rbp)
    aa21:	43 93 99 
    aa24:	c7 85 b8 fd ff ff 00 	movl   $0x0,-0x248(%rbp)
    aa2b:	00 00 00 
    aa2e:	c7 85 bc fd ff ff 3f 	movl   $0x9993433f,-0x244(%rbp)
    aa35:	43 93 99 
    aa38:	c7 85 c0 fd ff ff 61 	movl   $0x2c5bb461,-0x240(%rbp)
    aa3f:	b4 5b 2c 
    aa42:	c7 85 c4 fd ff ff 3f 	movl   $0x9993433f,-0x23c(%rbp)
    aa49:	43 93 99 
    aa4c:	c7 85 c8 fd ff ff 00 	movl   $0x0,-0x238(%rbp)
    aa53:	00 00 00 
    aa56:	c7 85 cc fd ff ff 3f 	movl   $0x9993433f,-0x234(%rbp)
    aa5d:	43 93 99 
    aa60:	c7 85 d0 fd ff ff 61 	movl   $0x2c5bb461,-0x230(%rbp)
    aa67:	b4 5b 2c 
    aa6a:	c7 85 d4 fd ff ff 3f 	movl   $0x9993433f,-0x22c(%rbp)
    aa71:	43 93 99 
    aa74:	c7 85 d8 fd ff ff 00 	movl   $0x0,-0x228(%rbp)
    aa7b:	00 00 00 
    aa7e:	c7 85 dc fd ff ff 3f 	movl   $0x9993433f,-0x224(%rbp)
    aa85:	43 93 99 
    aa88:	c7 85 e0 fd ff ff 61 	movl   $0x2c5bb461,-0x220(%rbp)
    aa8f:	b4 5b 2c 
    aa92:	c7 85 e4 fd ff ff 3f 	movl   $0x9993433f,-0x21c(%rbp)
    aa99:	43 93 99 
    aa9c:	c7 85 e8 fd ff ff 00 	movl   $0x0,-0x218(%rbp)
    aaa3:	00 00 00 
    aaa6:	c7 85 ec fd ff ff 3f 	movl   $0x9993433f,-0x214(%rbp)
    aaad:	43 93 99 
    aab0:	c7 85 f0 fd ff ff 61 	movl   $0x2c5bb461,-0x210(%rbp)
    aab7:	b4 5b 2c 
    aaba:	c7 85 f4 fd ff ff 3f 	movl   $0x9993433f,-0x20c(%rbp)
    aac1:	43 93 99 
    aac4:	c7 85 f8 fd ff ff 00 	movl   $0x0,-0x208(%rbp)
    aacb:	00 00 00 
    aace:	c7 85 fc fd ff ff 3f 	movl   $0x9993433f,-0x204(%rbp)
    aad5:	43 93 99 
    aad8:	c7 85 00 fe ff ff 61 	movl   $0x2c5bb461,-0x200(%rbp)
    aadf:	b4 5b 2c 
    aae2:	c7 85 04 fe ff ff 3f 	movl   $0x9993433f,-0x1fc(%rbp)
    aae9:	43 93 99 
    aaec:	c7 85 08 fe ff ff 00 	movl   $0x0,-0x1f8(%rbp)
    aaf3:	00 00 00 
    aaf6:	c7 85 0c fe ff ff 3f 	movl   $0x9993433f,-0x1f4(%rbp)
    aafd:	43 93 99 
    ab00:	c7 85 10 fe ff ff 61 	movl   $0x2c5bb461,-0x1f0(%rbp)
    ab07:	b4 5b 2c 
    ab0a:	c7 85 14 fe ff ff 3f 	movl   $0x9993433f,-0x1ec(%rbp)
    ab11:	43 93 99 
    ab14:	c7 85 18 fe ff ff 00 	movl   $0x0,-0x1e8(%rbp)
    ab1b:	00 00 00 
    ab1e:	c7 85 1c fe ff ff 3f 	movl   $0x9993433f,-0x1e4(%rbp)
    ab25:	43 93 99 
    ab28:	c7 85 20 fe ff ff 61 	movl   $0x2c5bb461,-0x1e0(%rbp)
    ab2f:	b4 5b 2c 
    ab32:	c7 85 24 fe ff ff 3f 	movl   $0x9993433f,-0x1dc(%rbp)
    ab39:	43 93 99 
    ab3c:	c7 85 28 fe ff ff 00 	movl   $0x0,-0x1d8(%rbp)
    ab43:	00 00 00 
    ab46:	c7 85 2c fe ff ff 3f 	movl   $0x9993433f,-0x1d4(%rbp)
    ab4d:	43 93 99 
    ab50:	c7 85 30 fe ff ff 61 	movl   $0x2c5bb461,-0x1d0(%rbp)
    ab57:	b4 5b 2c 
    ab5a:	c7 85 34 fe ff ff 3f 	movl   $0x9993433f,-0x1cc(%rbp)
    ab61:	43 93 99 
    ab64:	c7 85 38 fe ff ff 00 	movl   $0x0,-0x1c8(%rbp)
    ab6b:	00 00 00 
    ab6e:	c7 85 3c fe ff ff 3f 	movl   $0x9993433f,-0x1c4(%rbp)
    ab75:	43 93 99 
    ab78:	c7 85 40 fe ff ff 61 	movl   $0x2c5bb461,-0x1c0(%rbp)
    ab7f:	b4 5b 2c 
    ab82:	c7 85 44 fe ff ff 3f 	movl   $0x9993433f,-0x1bc(%rbp)
    ab89:	43 93 99 
    ab8c:	c7 85 48 fe ff ff 00 	movl   $0x0,-0x1b8(%rbp)
    ab93:	00 00 00 
    ab96:	c7 85 4c fe ff ff 3f 	movl   $0x9993433f,-0x1b4(%rbp)
    ab9d:	43 93 99 
    aba0:	c7 85 50 fe ff ff 61 	movl   $0x2c5bb461,-0x1b0(%rbp)
    aba7:	b4 5b 2c 
    abaa:	c7 85 54 fe ff ff 3f 	movl   $0x9993433f,-0x1ac(%rbp)
    abb1:	43 93 99 
    abb4:	c7 85 58 fe ff ff 00 	movl   $0x0,-0x1a8(%rbp)
    abbb:	00 00 00 
    abbe:	c7 85 5c fe ff ff 3f 	movl   $0x9993433f,-0x1a4(%rbp)
    abc5:	43 93 99 
    abc8:	c6 85 e4 f5 ff ff 00 	movb   $0x0,-0xa1c(%rbp)
    abcf:	e9 21 04 00 00       	jmpq   aff5 <func_1+0x2840>
    abd4:	c7 85 90 f8 ff ff ff 	movl   $0xffffffff,-0x770(%rbp)
    abdb:	ff ff ff 
    abde:	c7 85 94 f8 ff ff f9 	movl   $0xfffffff9,-0x76c(%rbp)
    abe5:	ff ff ff 
    abe8:	c7 85 98 f8 ff ff f9 	movl   $0xfffffff9,-0x768(%rbp)
    abef:	ff ff ff 
    abf2:	c7 85 9c f8 ff ff ff 	movl   $0xffffffff,-0x764(%rbp)
    abf9:	ff ff ff 
    abfc:	c7 85 a0 f8 ff ff f9 	movl   $0xfffffff9,-0x760(%rbp)
    ac03:	ff ff ff 
    ac06:	c7 85 a4 f8 ff ff f9 	movl   $0xfffffff9,-0x75c(%rbp)
    ac0d:	ff ff ff 
    ac10:	48 8d 85 e5 f5 ff ff 	lea    -0xa1b(%rbp),%rax
    ac17:	48 89 85 88 f7 ff ff 	mov    %rax,-0x878(%rbp)
    ac1e:	48 8d 05 0f 2a 01 00 	lea    0x12a0f(%rip),%rax        # 1d634 <g_139>
    ac25:	48 89 85 50 f9 ff ff 	mov    %rax,-0x6b0(%rbp)
    ac2c:	48 8d 85 90 f8 ff ff 	lea    -0x770(%rbp),%rax
    ac33:	48 83 c0 14          	add    $0x14,%rax
    ac37:	48 89 85 58 f9 ff ff 	mov    %rax,-0x6a8(%rbp)
    ac3e:	48 8d 05 ef 29 01 00 	lea    0x129ef(%rip),%rax        # 1d634 <g_139>
    ac45:	48 89 85 60 f9 ff ff 	mov    %rax,-0x6a0(%rbp)
    ac4c:	48 8d 85 90 f8 ff ff 	lea    -0x770(%rbp),%rax
    ac53:	48 83 c0 14          	add    $0x14,%rax
    ac57:	48 89 85 68 f9 ff ff 	mov    %rax,-0x698(%rbp)
    ac5e:	48 8d 05 cf 29 01 00 	lea    0x129cf(%rip),%rax        # 1d634 <g_139>
    ac65:	48 89 85 70 f9 ff ff 	mov    %rax,-0x690(%rbp)
    ac6c:	48 8d 85 90 f8 ff ff 	lea    -0x770(%rbp),%rax
    ac73:	48 83 c0 14          	add    $0x14,%rax
    ac77:	48 89 85 78 f9 ff ff 	mov    %rax,-0x688(%rbp)
    ac7e:	48 8d 05 af 29 01 00 	lea    0x129af(%rip),%rax        # 1d634 <g_139>
    ac85:	48 89 85 80 f9 ff ff 	mov    %rax,-0x680(%rbp)
    ac8c:	48 8d 85 90 f8 ff ff 	lea    -0x770(%rbp),%rax
    ac93:	48 83 c0 14          	add    $0x14,%rax
    ac97:	48 89 85 88 f9 ff ff 	mov    %rax,-0x678(%rbp)
    ac9e:	48 8d 05 8f 29 01 00 	lea    0x1298f(%rip),%rax        # 1d634 <g_139>
    aca5:	48 89 85 90 f9 ff ff 	mov    %rax,-0x670(%rbp)
    acac:	48 8d 85 90 f8 ff ff 	lea    -0x770(%rbp),%rax
    acb3:	48 83 c0 14          	add    $0x14,%rax
    acb7:	48 89 85 98 f9 ff ff 	mov    %rax,-0x668(%rbp)
    acbe:	48 8d 05 a3 29 01 00 	lea    0x129a3(%rip),%rax        # 1d668 <g_895>
    acc5:	48 89 85 10 f9 ff ff 	mov    %rax,-0x6f0(%rbp)
    accc:	48 8d 85 b0 f6 ff ff 	lea    -0x950(%rbp),%rax
    acd3:	48 89 85 18 f9 ff ff 	mov    %rax,-0x6e8(%rbp)
    acda:	48 8d 05 87 29 01 00 	lea    0x12987(%rip),%rax        # 1d668 <g_895>
    ace1:	48 89 85 20 f9 ff ff 	mov    %rax,-0x6e0(%rbp)
    ace8:	48 8d 05 79 29 01 00 	lea    0x12979(%rip),%rax        # 1d668 <g_895>
    acef:	48 89 85 28 f9 ff ff 	mov    %rax,-0x6d8(%rbp)
    acf6:	48 8d 85 b0 f6 ff ff 	lea    -0x950(%rbp),%rax
    acfd:	48 89 85 30 f9 ff ff 	mov    %rax,-0x6d0(%rbp)
    ad04:	48 8d 05 5d 29 01 00 	lea    0x1295d(%rip),%rax        # 1d668 <g_895>
    ad0b:	48 89 85 38 f9 ff ff 	mov    %rax,-0x6c8(%rbp)
    ad12:	48 8d 05 4f 29 01 00 	lea    0x1294f(%rip),%rax        # 1d668 <g_895>
    ad19:	48 89 85 40 f9 ff ff 	mov    %rax,-0x6c0(%rbp)
    ad20:	48 8d 85 b0 f6 ff ff 	lea    -0x950(%rbp),%rax
    ad27:	48 89 85 48 f9 ff ff 	mov    %rax,-0x6b8(%rbp)
    ad2e:	c7 85 4c f6 ff ff fe 	movl   $0xfffffffe,-0x9b4(%rbp)
    ad35:	ff ff ff 
    ad38:	0f b6 05 d1 f4 00 00 	movzbl 0xf4d1(%rip),%eax        # 1a210 <g_105>
    ad3f:	48 0f be d8          	movsbq %al,%rbx
    ad43:	44 8b a5 a4 f8 ff ff 	mov    -0x75c(%rbp),%r12d
    ad4a:	48 8d 05 07 f3 00 00 	lea    0xf307(%rip),%rax        # 1a058 <g_71>
    ad51:	48 89 85 f0 f6 ff ff 	mov    %rax,-0x910(%rbp)
    ad58:	48 b8 65 86 1f 26 d8 	movabs $0x8c979d8261f8665,%rax
    ad5f:	79 c9 08 
    ad62:	41 89 c5             	mov    %eax,%r13d
    ad65:	48 8b 05 ec 18 01 00 	mov    0x118ec(%rip),%rax        # 1c658 <g_564>
    ad6c:	0f b6 00             	movzbl (%rax),%eax
    ad6f:	0f be d0             	movsbl %al,%edx
    ad72:	48 8b 85 e8 f6 ff ff 	mov    -0x918(%rbp),%rax
    ad79:	8b 08                	mov    (%rax),%ecx
    ad7b:	0f b7 85 f2 f5 ff ff 	movzwl -0xa0e(%rbp),%eax
    ad82:	21 c1                	and    %eax,%ecx
    ad84:	48 8b 85 e8 f6 ff ff 	mov    -0x918(%rbp),%rax
    ad8b:	89 08                	mov    %ecx,(%rax)
    ad8d:	48 8b 85 e8 f6 ff ff 	mov    -0x918(%rbp),%rax
    ad94:	8b 00                	mov    (%rax),%eax
    ad96:	83 f8 ff             	cmp    $0xffffffff,%eax
    ad99:	0f 95 c0             	setne  %al
    ad9c:	0f b6 c0             	movzbl %al,%eax
    ad9f:	89 d6                	mov    %edx,%esi
    ada1:	89 c7                	mov    %eax,%edi
    ada3:	e8 e5 ce ff ff       	callq  7c8d <safe_rshift_func_uint8_t_u_s>
    ada8:	0f b6 d0             	movzbl %al,%edx
    adab:	8b 05 3b f5 00 00    	mov    0xf53b(%rip),%eax        # 1a2ec <g_835>
    adb1:	21 d0                	and    %edx,%eax
    adb3:	89 05 33 f5 00 00    	mov    %eax,0xf533(%rip)        # 1a2ec <g_835>
    adb9:	48 8b 05 80 1e 01 00 	mov    0x11e80(%rip),%rax        # 1cc40 <g_867>
    adc0:	8b 00                	mov    (%rax),%eax
    adc2:	44 89 ee             	mov    %r13d,%esi
    adc5:	bf 01 00 00 00       	mov    $0x1,%edi
    adca:	e8 12 c7 ff ff       	callq  74e1 <safe_lshift_func_int16_t_s_u>
    adcf:	98                   	cwtl   
    add0:	89 85 84 f8 ff ff    	mov    %eax,-0x77c(%rbp)
    add6:	8b 8d 84 f8 ff ff    	mov    -0x77c(%rbp),%ecx
    addc:	48 8b 85 a8 f6 ff ff 	mov    -0x958(%rbp),%rax
    ade3:	8b 00                	mov    (%rax),%eax
    ade5:	83 e0 01             	and    $0x1,%eax
    ade8:	89 c2                	mov    %eax,%edx
    adea:	48 8b 85 88 f7 ff ff 	mov    -0x878(%rbp),%rax
    adf1:	0f b6 00             	movzbl (%rax),%eax
    adf4:	09 c1                	or     %eax,%ecx
    adf6:	48 8b 85 88 f7 ff ff 	mov    -0x878(%rbp),%rax
    adfd:	88 08                	mov    %cl,(%rax)
    adff:	48 8b 85 88 f7 ff ff 	mov    -0x878(%rbp),%rax
    ae06:	0f b6 00             	movzbl (%rax),%eax
    ae09:	0f be c0             	movsbl %al,%eax
    ae0c:	39 c2                	cmp    %eax,%edx
    ae0e:	0f 9f c0             	setg   %al
    ae11:	0f b6 d0             	movzbl %al,%edx
    ae14:	8b 85 c0 fd ff ff    	mov    -0x240(%rbp),%eax
    ae1a:	0f be c0             	movsbl %al,%eax
    ae1d:	89 d6                	mov    %edx,%esi
    ae1f:	89 c7                	mov    %eax,%edi
    ae21:	e8 cc c3 ff ff       	callq  71f2 <safe_sub_func_int8_t_s_s>
    ae26:	0f be d0             	movsbl %al,%edx
    ae29:	8b 05 19 f8 00 00    	mov    0xf819(%rip),%eax        # 1a648 <g_1564>
    ae2f:	21 d0                	and    %edx,%eax
    ae31:	89 05 11 f8 00 00    	mov    %eax,0xf811(%rip)        # 1a648 <g_1564>
    ae37:	8b 15 0b f8 00 00    	mov    0xf80b(%rip),%edx        # 1a648 <g_1564>
    ae3d:	8b 85 0c f6 ff ff    	mov    -0x9f4(%rbp),%eax
    ae43:	21 d0                	and    %edx,%eax
    ae45:	89 85 0c f6 ff ff    	mov    %eax,-0x9f4(%rbp)
    ae4b:	8b 85 0c f6 ff ff    	mov    -0x9f4(%rbp),%eax
    ae51:	44 89 e6             	mov    %r12d,%esi
    ae54:	89 c7                	mov    %eax,%edi
    ae56:	e8 5d d0 ff ff       	callq  7eb8 <safe_add_func_uint32_t_u_u>
    ae5b:	8b 95 a4 f8 ff ff    	mov    -0x75c(%rbp),%edx
    ae61:	39 d0                	cmp    %edx,%eax
    ae63:	0f 94 c0             	sete   %al
    ae66:	0f b6 c0             	movzbl %al,%eax
    ae69:	48 89 de             	mov    %rbx,%rsi
    ae6c:	48 89 c7             	mov    %rax,%rdi
    ae6f:	e8 83 cb ff ff       	callq  79f7 <safe_div_func_int64_t_s_s>
    ae74:	0f b6 d0             	movzbl %al,%edx
    ae77:	8b 8d a4 f8 ff ff    	mov    -0x75c(%rbp),%ecx
    ae7d:	48 83 bd 78 f7 ff ff 	cmpq   $0x0,-0x888(%rbp)
    ae84:	00 
    ae85:	0f 95 c0             	setne  %al
    ae88:	0f b6 c0             	movzbl %al,%eax
    ae8b:	39 c1                	cmp    %eax,%ecx
    ae8d:	0f 94 c0             	sete   %al
    ae90:	0f b6 c0             	movzbl %al,%eax
    ae93:	89 d6                	mov    %edx,%esi
    ae95:	89 c7                	mov    %eax,%edi
    ae97:	e8 12 cd ff ff       	callq  7bae <safe_mod_func_uint8_t_u_u>
    ae9c:	84 c0                	test   %al,%al
    ae9e:	0f 84 84 00 00 00    	je     af28 <func_1+0x2773>
    aea4:	48 8b 05 3d 1e 01 00 	mov    0x11e3d(%rip),%rax        # 1cce8 <g_1122>
    aeab:	48 8b 95 58 f9 ff ff 	mov    -0x6a8(%rbp),%rdx
    aeb2:	48 89 10             	mov    %rdx,(%rax)
    aeb5:	8b 9d 88 f8 ff ff    	mov    -0x778(%rbp),%ebx
    aebb:	48 8b 05 1e 1e 01 00 	mov    0x11e1e(%rip),%rax        # 1cce0 <g_1116>
    aec2:	48 8b 00             	mov    (%rax),%rax
    aec5:	48 8b 00             	mov    (%rax),%rax
    aec8:	48 8b 05 61 0f 01 00 	mov    0x10f61(%rip),%rax        # 1be30 <g_190>
    aecf:	8b 00                	mov    (%rax),%eax
    aed1:	48 8b 85 a8 f6 ff ff 	mov    -0x958(%rbp),%rax
    aed8:	8b 00                	mov    (%rax),%eax
    aeda:	0f b7 c0             	movzwl %ax,%eax
    aedd:	48 8b 95 c0 f6 ff ff 	mov    -0x940(%rbp),%rdx
    aee4:	66 c7 02 00 00       	movw   $0x0,(%rdx)
    aee9:	89 c6                	mov    %eax,%esi
    aeeb:	bf 00 00 00 00       	mov    $0x0,%edi
    aef0:	e8 48 ce ff ff       	callq  7d3d <safe_mul_func_uint16_t_u_u>
    aef5:	66 09 85 ec f5 ff ff 	or     %ax,-0xa14(%rbp)
    aefc:	0f b6 05 49 f7 00 00 	movzbl 0xf749(%rip),%eax        # 1a64c <g_1579>
    af03:	0f b6 d0             	movzbl %al,%edx
    af06:	48 8b 05 83 f3 00 00 	mov    0xf383(%rip),%rax        # 1a290 <g_428>
    af0d:	48 21 d0             	and    %rdx,%rax
    af10:	48 89 05 79 f3 00 00 	mov    %rax,0xf379(%rip)        # 1a290 <g_428>
    af17:	be f9 ff ff ff       	mov    $0xfffffff9,%esi
    af1c:	bf 08 00 00 00       	mov    $0x8,%edi
    af21:	e8 cf c4 ff ff       	callq  73f5 <safe_mul_func_int16_t_s_s>
    af26:	eb 0f                	jmp    af37 <func_1+0x2782>
    af28:	0f b6 05 b9 f3 00 00 	movzbl 0xf3b9(%rip),%eax        # 1a2e8 <g_673>
    af2f:	0f b6 c0             	movzbl %al,%eax
    af32:	e9 25 07 00 00       	jmpq   b65c <func_1+0x2ea7>
    af37:	48 8b 85 88 f9 ff ff 	mov    -0x678(%rbp),%rax
    af3e:	48 39 85 80 f7 ff ff 	cmp    %rax,-0x880(%rbp)
    af45:	0f 95 c0             	setne  %al
    af48:	0f b6 d0             	movzbl %al,%edx
    af4b:	48 8b 85 f0 f6 ff ff 	mov    -0x910(%rbp),%rax
    af52:	0f b6 00             	movzbl (%rax),%eax
    af55:	83 f0 fd             	xor    $0xfffffffd,%eax
    af58:	89 c1                	mov    %eax,%ecx
    af5a:	48 8b 85 f0 f6 ff ff 	mov    -0x910(%rbp),%rax
    af61:	88 08                	mov    %cl,(%rax)
    af63:	48 8b 85 f0 f6 ff ff 	mov    -0x910(%rbp),%rax
    af6a:	0f b6 00             	movzbl (%rax),%eax
    af6d:	0f b6 c0             	movzbl %al,%eax
    af70:	89 d6                	mov    %edx,%esi
    af72:	89 c7                	mov    %eax,%edi
    af74:	e8 e1 cb ff ff       	callq  7b5a <safe_add_func_uint8_t_u_u>
    af79:	84 c0                	test   %al,%al
    af7b:	0f 94 c0             	sete   %al
    af7e:	0f b6 c0             	movzbl %al,%eax
    af81:	48 ba 65 86 1f 26 d8 	movabs $0x8c979d8261f8665,%rdx
    af88:	79 c9 08 
    af8b:	48 39 d0             	cmp    %rdx,%rax
    af8e:	0f 92 c0             	setb   %al
    af91:	0f b6 d0             	movzbl %al,%edx
    af94:	8b 85 0c f6 ff ff    	mov    -0x9f4(%rbp),%eax
    af9a:	39 c2                	cmp    %eax,%edx
    af9c:	0f 9e c0             	setle  %al
    af9f:	0f b6 c0             	movzbl %al,%eax
    afa2:	39 c3                	cmp    %eax,%ebx
    afa4:	0f 9e c0             	setle  %al
    afa7:	0f b6 c0             	movzbl %al,%eax
    afaa:	89 85 4c f6 ff ff    	mov    %eax,-0x9b4(%rbp)
    afb0:	8b 85 4c f6 ff ff    	mov    -0x9b4(%rbp),%eax
    afb6:	48 98                	cltq   
    afb8:	48 ba 40 89 b9 48 1d 	movabs $0x6bea531d48b98940,%rdx
    afbf:	53 ea 6b 
    afc2:	48 09 c2             	or     %rax,%rdx
    afc5:	48 8b 85 e8 f6 ff ff 	mov    -0x918(%rbp),%rax
    afcc:	8b 00                	mov    (%rax),%eax
    afce:	31 c2                	xor    %eax,%edx
    afd0:	48 8b 85 e8 f6 ff ff 	mov    -0x918(%rbp),%rax
    afd7:	89 10                	mov    %edx,(%rax)
    afd9:	0f b6 85 e4 f5 ff ff 	movzbl -0xa1c(%rbp),%eax
    afe0:	0f b6 c0             	movzbl %al,%eax
    afe3:	be 01 00 00 00       	mov    $0x1,%esi
    afe8:	89 c7                	mov    %eax,%edi
    afea:	e8 c9 ce ff ff       	callq  7eb8 <safe_add_func_uint32_t_u_u>
    afef:	88 85 e4 f5 ff ff    	mov    %al,-0xa1c(%rbp)
    aff5:	0f b6 85 e4 f5 ff ff 	movzbl -0xa1c(%rbp),%eax
    affc:	3c 05                	cmp    $0x5,%al
    affe:	0f 86 d0 fb ff ff    	jbe    abd4 <func_1+0x241f>
    b004:	48 8b 05 1d 1d 01 00 	mov    0x11d1d(%rip),%rax        # 1cd28 <g_1120>
    b00b:	48 8b 00             	mov    (%rax),%rax
    b00e:	48 8b 00             	mov    (%rax),%rax
    b011:	48 c7 00 00 00 00 00 	movq   $0x0,(%rax)
    b018:	48 8b 85 a8 f6 ff ff 	mov    -0x958(%rbp),%rax
    b01f:	8b 00                	mov    (%rax),%eax
    b021:	e9 36 06 00 00       	jmpq   b65c <func_1+0x2ea7>
    b026:	c7 85 44 f6 ff ff 08 	movl   $0x8,-0x9bc(%rbp)
    b02d:	00 00 00 
    b030:	c7 85 48 f6 ff ff b9 	movl   $0x2e81eb9,-0x9b8(%rbp)
    b037:	1e e8 02 
    b03a:	48 8d 05 07 f6 00 00 	lea    0xf607(%rip),%rax        # 1a648 <g_1564>
    b041:	48 89 85 80 fd ff ff 	mov    %rax,-0x280(%rbp)
    b048:	48 8d 85 0c f6 ff ff 	lea    -0x9f4(%rbp),%rax
    b04f:	48 89 85 88 fd ff ff 	mov    %rax,-0x278(%rbp)
    b056:	48 8d 85 0c f6 ff ff 	lea    -0x9f4(%rbp),%rax
    b05d:	48 89 85 90 fd ff ff 	mov    %rax,-0x270(%rbp)
    b064:	48 8d 05 dd f5 00 00 	lea    0xf5dd(%rip),%rax        # 1a648 <g_1564>
    b06b:	48 89 85 98 fd ff ff 	mov    %rax,-0x268(%rbp)
    b072:	48 8d 85 0c f6 ff ff 	lea    -0x9f4(%rbp),%rax
    b079:	48 89 85 a0 fd ff ff 	mov    %rax,-0x260(%rbp)
    b080:	48 8d 85 0c f6 ff ff 	lea    -0x9f4(%rbp),%rax
    b087:	48 89 85 a8 fd ff ff 	mov    %rax,-0x258(%rbp)
    b08e:	48 8d 05 b3 f5 00 00 	lea    0xf5b3(%rip),%rax        # 1a648 <g_1564>
    b095:	48 89 85 b0 fd ff ff 	mov    %rax,-0x250(%rbp)
    b09c:	8b 85 44 f6 ff ff    	mov    -0x9bc(%rbp),%eax
    b0a2:	0f bf d0             	movswl %ax,%edx
    b0a5:	48 8b 85 a8 f6 ff ff 	mov    -0x958(%rbp),%rax
    b0ac:	8b 00                	mov    (%rax),%eax
    b0ae:	41 89 c0             	mov    %eax,%r8d
    b0b1:	48 8b 85 f0 f6 ff ff 	mov    -0x910(%rbp),%rax
    b0b8:	0f b6 00             	movzbl (%rax),%eax
    b0bb:	8d 70 ff             	lea    -0x1(%rax),%esi
    b0be:	48 8b 8d f0 f6 ff ff 	mov    -0x910(%rbp),%rcx
    b0c5:	40 88 31             	mov    %sil,(%rcx)
    b0c8:	0f b6 c8             	movzbl %al,%ecx
    b0cb:	48 8b 05 86 15 01 00 	mov    0x11586(%rip),%rax        # 1c658 <g_564>
    b0d2:	0f b6 00             	movzbl (%rax),%eax
    b0d5:	0f be f0             	movsbl %al,%esi
    b0d8:	48 8b 85 78 f8 ff ff 	mov    -0x788(%rbp),%rax
    b0df:	48 8d 3d 52 1f 01 00 	lea    0x11f52(%rip),%rdi        # 1d038 <g_1390+0x238>
    b0e6:	48 39 f8             	cmp    %rdi,%rax
    b0e9:	0f 95 c0             	setne  %al
    b0ec:	0f b6 c0             	movzbl %al,%eax
    b0ef:	39 c6                	cmp    %eax,%esi
    b0f1:	0f 9e c0             	setle  %al
    b0f4:	0f b6 c0             	movzbl %al,%eax
    b0f7:	09 c8                	or     %ecx,%eax
    b0f9:	89 c1                	mov    %eax,%ecx
    b0fb:	48 8b 05 46 1b 01 00 	mov    0x11b46(%rip),%rax        # 1cc48 <g_866>
    b102:	48 8b 00             	mov    (%rax),%rax
    b105:	8b 00                	mov    (%rax),%eax
    b107:	21 c8                	and    %ecx,%eax
    b109:	41 39 c0             	cmp    %eax,%r8d
    b10c:	0f 94 c0             	sete   %al
    b10f:	0f b6 c8             	movzbl %al,%ecx
    b112:	48 8b 85 a8 f6 ff ff 	mov    -0x958(%rbp),%rax
    b119:	8b 00                	mov    (%rax),%eax
    b11b:	39 c1                	cmp    %eax,%ecx
    b11d:	0f 94 c0             	sete   %al
    b120:	0f b6 c0             	movzbl %al,%eax
    b123:	89 d6                	mov    %edx,%esi
    b125:	89 c7                	mov    %eax,%edi
    b127:	e8 a7 c2 ff ff       	callq  73d3 <safe_sub_func_int16_t_s_s>
    b12c:	98                   	cwtl   
    b12d:	09 85 48 f6 ff ff    	or     %eax,-0x9b8(%rbp)
    b133:	48 8b 05 1e 15 01 00 	mov    0x1151e(%rip),%rax        # 1c658 <g_564>
    b13a:	0f b6 00             	movzbl (%rax),%eax
    b13d:	83 c8 09             	or     $0x9,%eax
    b140:	0f be d0             	movsbl %al,%edx
    b143:	8b 85 44 f6 ff ff    	mov    -0x9bc(%rbp),%eax
    b149:	48 8b 0d d8 1b 01 00 	mov    0x11bd8(%rip),%rcx        # 1cd28 <g_1120>
    b150:	48 8b 09             	mov    (%rcx),%rcx
    b153:	48 8b 09             	mov    (%rcx),%rcx
    b156:	48 8b 19             	mov    (%rcx),%rbx
    b159:	89 d6                	mov    %edx,%esi
    b15b:	89 c7                	mov    %eax,%edi
    b15d:	e8 54 c4 ff ff       	callq  75b6 <safe_add_func_int32_t_s_s>
    b162:	89 03                	mov    %eax,(%rbx)
    b164:	c7 85 1c f6 ff ff 00 	movl   $0x0,-0x9e4(%rbp)
    b16b:	00 00 00 
    b16e:	e9 b7 00 00 00       	jmpq   b22a <func_1+0x2a75>
    b173:	c7 85 18 f6 ff ff 00 	movl   $0x0,-0x9e8(%rbp)
    b17a:	00 00 00 
    b17d:	eb 1e                	jmp    b19d <func_1+0x29e8>
    b17f:	8b 85 18 f6 ff ff    	mov    -0x9e8(%rbp),%eax
    b185:	48 98                	cltq   
    b187:	48 8d 95 80 f6 ff ff 	lea    -0x980(%rbp),%rdx
    b18e:	48 89 94 c5 50 f9 ff 	mov    %rdx,-0x6b0(%rbp,%rax,8)
    b195:	ff 
    b196:	83 85 18 f6 ff ff 01 	addl   $0x1,-0x9e8(%rbp)
    b19d:	83 bd 18 f6 ff ff 03 	cmpl   $0x3,-0x9e8(%rbp)
    b1a4:	7e d9                	jle    b17f <func_1+0x29ca>
    b1a6:	48 8b 05 1b 1b 01 00 	mov    0x11b1b(%rip),%rax        # 1ccc8 <g_1119>
    b1ad:	8b 08                	mov    (%rax),%ecx
    b1af:	48 8b 85 50 f9 ff ff 	mov    -0x6b0(%rbp),%rax
    b1b6:	48 85 c0             	test   %rax,%rax
    b1b9:	0f 94 c0             	sete   %al
    b1bc:	0f b6 d0             	movzbl %al,%edx
    b1bf:	48 8b 05 02 1b 01 00 	mov    0x11b02(%rip),%rax        # 1ccc8 <g_1119>
    b1c6:	09 ca                	or     %ecx,%edx
    b1c8:	89 10                	mov    %edx,(%rax)
    b1ca:	c6 05 87 ee 00 00 f2 	movb   $0xf2,0xee87(%rip)        # 1a058 <g_71>
    b1d1:	eb 34                	jmp    b207 <func_1+0x2a52>
    b1d3:	0f b6 05 0e f1 00 00 	movzbl 0xf10e(%rip),%eax        # 1a2e8 <g_673>
    b1da:	84 c0                	test   %al,%al
    b1dc:	74 05                	je     b1e3 <func_1+0x2a2e>
    b1de:	e9 fb e2 ff ff       	jmpq   94de <func_1+0xd29>
    b1e3:	83 bd 48 f6 ff ff 00 	cmpl   $0x0,-0x9b8(%rbp)
    b1ea:	0f b6 05 67 ee 00 00 	movzbl 0xee67(%rip),%eax        # 1a058 <g_71>
    b1f1:	0f b6 c0             	movzbl %al,%eax
    b1f4:	be 01 00 00 00       	mov    $0x1,%esi
    b1f9:	48 89 c7             	mov    %rax,%rdi
    b1fc:	e8 40 c6 ff ff       	callq  7841 <safe_add_func_int64_t_s_s>
    b201:	88 05 51 ee 00 00    	mov    %al,0xee51(%rip)        # 1a058 <g_71>
    b207:	0f b6 05 4a ee 00 00 	movzbl 0xee4a(%rip),%eax        # 1a058 <g_71>
    b20e:	3c 04                	cmp    $0x4,%al
    b210:	75 c1                	jne    b1d3 <func_1+0x2a1e>
    b212:	8b 85 1c f6 ff ff    	mov    -0x9e4(%rbp),%eax
    b218:	be 04 00 00 00       	mov    $0x4,%esi
    b21d:	89 c7                	mov    %eax,%edi
    b21f:	e8 94 cc ff ff       	callq  7eb8 <safe_add_func_uint32_t_u_u>
    b224:	89 85 1c f6 ff ff    	mov    %eax,-0x9e4(%rbp)
    b22a:	83 bd 1c f6 ff ff 08 	cmpl   $0x8,-0x9e4(%rbp)
    b231:	0f 87 3c ff ff ff    	ja     b173 <func_1+0x29be>
    b237:	48 8b 05 aa 1a 01 00 	mov    0x11aaa(%rip),%rax        # 1cce8 <g_1122>
    b23e:	48 8b 95 98 fd ff ff 	mov    -0x268(%rbp),%rdx
    b245:	48 89 10             	mov    %rdx,(%rax)
    b248:	8b 05 e6 23 01 00    	mov    0x123e6(%rip),%eax        # 1d634 <g_139>
    b24e:	83 c0 01             	add    $0x1,%eax
    b251:	89 05 dd 23 01 00    	mov    %eax,0x123dd(%rip)        # 1d634 <g_139>
    b257:	8b 05 d7 23 01 00    	mov    0x123d7(%rip),%eax        # 1d634 <g_139>
    b25d:	83 f8 13             	cmp    $0x13,%eax
    b260:	0f 86 13 ed ff ff    	jbe    9f79 <func_1+0x17c4>
    b266:	c7 85 1c f6 ff ff 00 	movl   $0x0,-0x9e4(%rbp)
    b26d:	00 00 00 
    b270:	e9 9b 02 00 00       	jmpq   b510 <func_1+0x2d5b>
    b275:	48 c7 85 58 f7 ff ff 	movq   $0x1,-0x8a8(%rbp)
    b27c:	01 00 00 00 
    b280:	48 8d 05 b9 1d 01 00 	lea    0x11db9(%rip),%rax        # 1d040 <g_1392>
    b287:	48 89 85 60 f7 ff ff 	mov    %rax,-0x8a0(%rbp)
    b28e:	48 8d 85 80 fd ff ff 	lea    -0x280(%rbp),%rax
    b295:	48 8d 15 c4 f3 00 00 	lea    0xf3c4(%rip),%rdx        # 1a660 <g_1579+0x14>
    b29c:	b9 3c 00 00 00       	mov    $0x3c,%ecx
    b2a1:	48 89 c7             	mov    %rax,%rdi
    b2a4:	48 89 d6             	mov    %rdx,%rsi
    b2a7:	f3 48 a5             	rep movsq %ds:(%rsi),%es:(%rdi)
    b2aa:	48 8d 85 80 fd ff ff 	lea    -0x280(%rbp),%rax
    b2b1:	48 05 b8 01 00 00    	add    $0x1b8,%rax
    b2b7:	48 89 85 68 f7 ff ff 	mov    %rax,-0x898(%rbp)
    b2be:	48 c7 85 b0 f6 ff ff 	movq   $0x0,-0x950(%rbp)
    b2c5:	00 00 00 00 
    b2c9:	48 8d 85 b0 f6 ff ff 	lea    -0x950(%rbp),%rax
    b2d0:	48 89 85 70 f7 ff ff 	mov    %rax,-0x890(%rbp)
    b2d7:	66 c7 85 f0 f5 ff ff 	movw   $0x38f7,-0xa10(%rbp)
    b2de:	f7 38 
    b2e0:	48 8b 85 c0 f8 ff ff 	mov    -0x740(%rbp),%rax
    b2e7:	48 8d 15 02 14 01 00 	lea    0x11402(%rip),%rdx        # 1c6f0 <g_572+0x70>
    b2ee:	48 39 d0             	cmp    %rdx,%rax
    b2f1:	0f 94 c0             	sete   %al
    b2f4:	0f b6 d0             	movzbl %al,%edx
    b2f7:	48 8b 85 e8 f6 ff ff 	mov    -0x918(%rbp),%rax
    b2fe:	89 10                	mov    %edx,(%rax)
    b300:	48 8b 85 a8 f6 ff ff 	mov    -0x958(%rbp),%rax
    b307:	8b 00                	mov    (%rax),%eax
    b309:	0f be d0             	movsbl %al,%edx
    b30c:	48 81 bd 58 f7 ff ff 	cmpq   $0x7842,-0x8a8(%rbp)
    b313:	42 78 00 00 
    b317:	0f 94 c0             	sete   %al
    b31a:	0f b6 c0             	movzbl %al,%eax
    b31d:	89 d6                	mov    %edx,%esi
    b31f:	89 c7                	mov    %eax,%edi
    b321:	e8 cc be ff ff       	callq  71f2 <safe_sub_func_int8_t_s_s>
    b326:	0f be d0             	movsbl %al,%edx
    b329:	48 8b 85 e8 f6 ff ff 	mov    -0x918(%rbp),%rax
    b330:	89 10                	mov    %edx,(%rax)
    b332:	48 8b 85 a8 f6 ff ff 	mov    -0x958(%rbp),%rax
    b339:	8b 00                	mov    (%rax),%eax
    b33b:	85 c0                	test   %eax,%eax
    b33d:	0f 9f c0             	setg   %al
    b340:	0f b6 c0             	movzbl %al,%eax
    b343:	be 34 00 00 00       	mov    $0x34,%esi
    b348:	89 c7                	mov    %eax,%edi
    b34a:	e8 a3 be ff ff       	callq  71f2 <safe_sub_func_int8_t_s_s>
    b34f:	0f b6 95 66 fb ff ff 	movzbl -0x49a(%rbp),%edx
    b356:	21 d0                	and    %edx,%eax
    b358:	88 85 66 fb ff ff    	mov    %al,-0x49a(%rbp)
    b35e:	0f b6 85 66 fb ff ff 	movzbl -0x49a(%rbp),%eax
    b365:	84 c0                	test   %al,%al
    b367:	74 07                	je     b370 <func_1+0x2bbb>
    b369:	b8 01 00 00 00       	mov    $0x1,%eax
    b36e:	eb 05                	jmp    b375 <func_1+0x2bc0>
    b370:	b8 00 00 00 00       	mov    $0x0,%eax
    b375:	0f b7 c0             	movzwl %ax,%eax
    b378:	be 03 00 00 00       	mov    $0x3,%esi
    b37d:	89 c7                	mov    %eax,%edi
    b37f:	e8 d8 c9 ff ff       	callq  7d5c <safe_mod_func_uint16_t_u_u>
    b384:	b9 01 00 00 00       	mov    $0x1,%ecx
    b389:	48 8b 05 38 19 01 00 	mov    0x11938(%rip),%rax        # 1ccc8 <g_1119>
    b390:	8b 10                	mov    (%rax),%edx
    b392:	48 8b 05 2f 19 01 00 	mov    0x1192f(%rip),%rax        # 1ccc8 <g_1119>
    b399:	09 ca                	or     %ecx,%edx
    b39b:	89 10                	mov    %edx,(%rax)
    b39d:	48 8b 85 e8 f6 ff ff 	mov    -0x918(%rbp),%rax
    b3a4:	8b 00                	mov    (%rax),%eax
    b3a6:	48 98                	cltq   
    b3a8:	48 39 85 58 f7 ff ff 	cmp    %rax,-0x8a8(%rbp)
    b3af:	48 8b 85 a8 f6 ff ff 	mov    -0x958(%rbp),%rax
    b3b6:	8b 18                	mov    (%rax),%ebx
    b3b8:	48 8b 85 a8 f6 ff ff 	mov    -0x958(%rbp),%rax
    b3bf:	8b 00                	mov    (%rax),%eax
    b3c1:	85 c0                	test   %eax,%eax
    b3c3:	0f 85 b6 00 00 00    	jne    b47f <func_1+0x2cca>
    b3c9:	48 8b 05 38 f2 00 00 	mov    0xf238(%rip),%rax        # 1a608 <g_1391>
    b3d0:	0f bf d0             	movswl %ax,%edx
    b3d3:	48 8b 85 70 f7 ff ff 	mov    -0x890(%rbp),%rax
    b3da:	48 c7 00 00 00 00 00 	movq   $0x0,(%rax)
    b3e1:	48 8b 05 28 1d 01 00 	mov    0x11d28(%rip),%rax        # 1d110 <g_1634+0xb0>
    b3e8:	48 85 c0             	test   %rax,%rax
    b3eb:	0f 95 c0             	setne  %al
    b3ee:	0f b6 c0             	movzbl %al,%eax
    b3f1:	89 d6                	mov    %edx,%esi
    b3f3:	89 c7                	mov    %eax,%edi
    b3f5:	e8 b9 bf ff ff       	callq  73b3 <safe_add_func_int16_t_s_s>
    b3fa:	98                   	cwtl   
    b3fb:	48 8b 95 e8 f6 ff ff 	mov    -0x918(%rbp),%rdx
    b402:	8b 12                	mov    (%rdx),%edx
    b404:	89 c6                	mov    %eax,%esi
    b406:	89 d7                	mov    %edx,%edi
    b408:	e8 18 cb ff ff       	callq  7f25 <safe_div_func_uint32_t_u_u>
    b40d:	0f b7 15 18 ec 00 00 	movzwl 0xec18(%rip),%edx        # 1a02c <g_26+0x4>
    b414:	0f b7 d2             	movzwl %dx,%edx
    b417:	39 d0                	cmp    %edx,%eax
    b419:	0f 94 c0             	sete   %al
    b41c:	0f b6 c0             	movzbl %al,%eax
    b41f:	be 00 00 00 00       	mov    $0x0,%esi
    b424:	89 c7                	mov    %eax,%edi
    b426:	e8 c3 be ff ff       	callq  72ee <safe_lshift_func_int8_t_s_u>
    b42b:	48 0f be c0          	movsbq %al,%rax
    b42f:	48 39 85 58 f7 ff ff 	cmp    %rax,-0x8a8(%rbp)
    b436:	0f 9e c0             	setle  %al
    b439:	0f b6 d0             	movzbl %al,%edx
    b43c:	48 8b 85 e8 f6 ff ff 	mov    -0x918(%rbp),%rax
    b443:	8b 00                	mov    (%rax),%eax
    b445:	21 c2                	and    %eax,%edx
    b447:	0f b7 05 f2 eb 00 00 	movzwl 0xebf2(%rip),%eax        # 1a040 <g_34>
    b44e:	89 c1                	mov    %eax,%ecx
    b450:	89 d0                	mov    %edx,%eax
    b452:	31 c8                	xor    %ecx,%eax
    b454:	66 89 05 e5 eb 00 00 	mov    %ax,0xebe5(%rip)        # 1a040 <g_34>
    b45b:	48 8b 85 58 f7 ff ff 	mov    -0x8a8(%rbp),%rax
    b462:	0d 9a 70 06 aa       	or     $0xaa06709a,%eax
    b467:	89 c2                	mov    %eax,%edx
    b469:	48 8b 85 a8 f6 ff ff 	mov    -0x958(%rbp),%rax
    b470:	8b 00                	mov    (%rax),%eax
    b472:	89 d6                	mov    %edx,%esi
    b474:	89 c7                	mov    %eax,%edi
    b476:	e8 3b c1 ff ff       	callq  75b6 <safe_add_func_int32_t_s_s>
    b47b:	85 c0                	test   %eax,%eax
    b47d:	74 07                	je     b486 <func_1+0x2cd1>
    b47f:	b8 01 00 00 00       	mov    $0x1,%eax
    b484:	eb 05                	jmp    b48b <func_1+0x2cd6>
    b486:	b8 00 00 00 00       	mov    $0x0,%eax
    b48b:	0f b6 c0             	movzbl %al,%eax
    b48e:	be 01 00 00 00       	mov    $0x1,%esi
    b493:	89 c7                	mov    %eax,%edi
    b495:	e8 14 c7 ff ff       	callq  7bae <safe_mod_func_uint8_t_u_u>
    b49a:	0f b6 d0             	movzbl %al,%edx
    b49d:	48 8b 85 a8 f6 ff ff 	mov    -0x958(%rbp),%rax
    b4a4:	8b 00                	mov    (%rax),%eax
    b4a6:	21 d0                	and    %edx,%eax
    b4a8:	0f bf d0             	movswl %ax,%edx
    b4ab:	48 8b 85 58 f7 ff ff 	mov    -0x8a8(%rbp),%rax
    b4b2:	98                   	cwtl   
    b4b3:	89 d6                	mov    %edx,%esi
    b4b5:	89 c7                	mov    %eax,%edi
    b4b7:	e8 39 bf ff ff       	callq  73f5 <safe_mul_func_int16_t_s_s>
    b4bc:	98                   	cwtl   
    b4bd:	89 de                	mov    %ebx,%esi
    b4bf:	89 c7                	mov    %eax,%edi
    b4c1:	e8 64 c0 ff ff       	callq  752a <safe_rshift_func_int16_t_s_s>
    b4c6:	98                   	cwtl   
    b4c7:	89 c6                	mov    %eax,%esi
    b4c9:	bf bf 00 00 00       	mov    $0xbf,%edi
    b4ce:	e8 79 c7 ff ff       	callq  7c4c <safe_lshift_func_uint8_t_u_u>
    b4d3:	0f be c0             	movsbl %al,%eax
    b4d6:	be 03 00 00 00       	mov    $0x3,%esi
    b4db:	89 c7                	mov    %eax,%edi
    b4dd:	e8 0c be ff ff       	callq  72ee <safe_lshift_func_int8_t_s_u>
    b4e2:	89 c2                	mov    %eax,%edx
    b4e4:	48 8b 85 80 f6 ff ff 	mov    -0x980(%rbp),%rax
    b4eb:	0f be d2             	movsbl %dl,%edx
    b4ee:	89 10                	mov    %edx,(%rax)
    b4f0:	48 8b 85 58 f7 ff ff 	mov    -0x8a8(%rbp),%rax
    b4f7:	89 c2                	mov    %eax,%edx
    b4f9:	0f b7 85 f0 f5 ff ff 	movzwl -0xa10(%rbp),%eax
    b500:	21 d0                	and    %edx,%eax
    b502:	66 89 85 f0 f5 ff ff 	mov    %ax,-0xa10(%rbp)
    b509:	83 85 1c f6 ff ff 01 	addl   $0x1,-0x9e4(%rbp)
    b510:	83 bd 1c f6 ff ff 2d 	cmpl   $0x2d,-0x9e4(%rbp)
    b517:	0f 87 58 fd ff ff    	ja     b275 <func_1+0x2ac0>
    b51d:	83 ad 40 f6 ff ff 01 	subl   $0x1,-0x9c0(%rbp)
    b524:	8b 9d 3c f6 ff ff    	mov    -0x9c4(%rbp),%ebx
    b52a:	8b 05 30 eb 00 00    	mov    0xeb30(%rip),%eax        # 1a060 <g_94>
    b530:	83 f8 02             	cmp    $0x2,%eax
    b533:	0f 96 c0             	setbe  %al
    b536:	0f b6 d0             	movzbl %al,%edx
    b539:	48 8d 05 a8 18 01 00 	lea    0x118a8(%rip),%rax        # 1cde8 <g_1363>
    b540:	48 39 85 f8 f6 ff ff 	cmp    %rax,-0x908(%rbp)
    b547:	0f 95 c0             	setne  %al
    b54a:	0f b6 c0             	movzbl %al,%eax
    b54d:	48 89 d6             	mov    %rdx,%rsi
    b550:	48 89 c7             	mov    %rax,%rdi
    b553:	e8 f3 ca ff ff       	callq  804b <safe_sub_func_uint64_t_u_u>
    b558:	48 8b 85 e8 f6 ff ff 	mov    -0x918(%rbp),%rax
    b55f:	44 8b 20             	mov    (%rax),%r12d
    b562:	48 8b 85 e8 f6 ff ff 	mov    -0x918(%rbp),%rax
    b569:	8b 00                	mov    (%rax),%eax
    b56b:	48 98                	cltq   
    b56d:	48 89 c7             	mov    %rax,%rdi
    b570:	e8 a4 ca ff ff       	callq  8019 <safe_unary_minus_func_uint64_t_u>
    b575:	89 c2                	mov    %eax,%edx
    b577:	8b 85 38 f6 ff ff    	mov    -0x9c8(%rbp),%eax
    b57d:	98                   	cwtl   
    b57e:	89 d6                	mov    %edx,%esi
    b580:	89 c7                	mov    %eax,%edi
    b582:	e8 a3 bf ff ff       	callq  752a <safe_rshift_func_int16_t_s_s>
    b587:	98                   	cwtl   
    b588:	41 39 c4             	cmp    %eax,%r12d
    b58b:	7d 3d                	jge    b5ca <func_1+0x2e15>
    b58d:	48 8b 85 00 f7 ff ff 	mov    -0x900(%rbp),%rax
    b594:	0f b6 c0             	movzbl %al,%eax
    b597:	be f7 00 00 00       	mov    $0xf7,%esi
    b59c:	89 c7                	mov    %eax,%edi
    b59e:	e8 d5 c5 ff ff       	callq  7b78 <safe_sub_func_uint8_t_u_u>
    b5a3:	0f b6 d0             	movzbl %al,%edx
    b5a6:	48 8b 85 c0 f6 ff ff 	mov    -0x940(%rbp),%rax
    b5ad:	66 89 10             	mov    %dx,(%rax)
    b5b0:	48 8b 85 c0 f6 ff ff 	mov    -0x940(%rbp),%rax
    b5b7:	0f b7 00             	movzwl (%rax),%eax
    b5ba:	0f b7 d0             	movzwl %ax,%edx
    b5bd:	48 8b 85 e8 f6 ff ff 	mov    -0x918(%rbp),%rax
    b5c4:	8b 00                	mov    (%rax),%eax
    b5c6:	09 d0                	or     %edx,%eax
    b5c8:	85 c0                	test   %eax,%eax
    b5ca:	be 01 00 00 00       	mov    $0x1,%esi
    b5cf:	bf 84 ff ff ff       	mov    $0xffffff84,%edi
    b5d4:	e8 58 bc ff ff       	callq  7231 <safe_mod_func_int8_t_s_s>
    b5d9:	48 8b 05 70 1a 01 00 	mov    0x11a70(%rip),%rax        # 1d050 <g_1636>
    b5e0:	48 8b 00             	mov    (%rax),%rax
    b5e3:	48 8b 00             	mov    (%rax),%rax
    b5e6:	8b 05 74 ea 00 00    	mov    0xea74(%rip),%eax        # 1a060 <g_94>
    b5ec:	0f b7 c0             	movzwl %ax,%eax
    b5ef:	be 59 19 00 00       	mov    $0x1959,%esi
    b5f4:	89 c7                	mov    %eax,%edi
    b5f6:	e8 42 c7 ff ff       	callq  7d3d <safe_mul_func_uint16_t_u_u>
    b5fb:	0f b7 c0             	movzwl %ax,%eax
    b5fe:	ba 00 00 00 00       	mov    $0x0,%edx
    b603:	39 d0                	cmp    %edx,%eax
    b605:	be c4 00 00 00       	mov    $0xc4,%esi
    b60a:	bf f9 00 00 00       	mov    $0xf9,%edi
    b60f:	e8 7f c5 ff ff       	callq  7b93 <safe_mul_func_uint8_t_u_u>
    b614:	84 c0                	test   %al,%al
    b616:	0f 95 c0             	setne  %al
    b619:	0f b6 c0             	movzbl %al,%eax
    b61c:	89 de                	mov    %ebx,%esi
    b61e:	89 c7                	mov    %eax,%edi
    b620:	e8 27 c6 ff ff       	callq  7c4c <safe_lshift_func_uint8_t_u_u>
    b625:	84 c0                	test   %al,%al
    b627:	75 13                	jne    b63c <func_1+0x2e87>
    b629:	48 8b 05 28 1a 01 00 	mov    0x11a28(%rip),%rax        # 1d058 <g_1635>
    b630:	48 8b 00             	mov    (%rax),%rax
    b633:	48 8b 00             	mov    (%rax),%rax
    b636:	48 8b 00             	mov    (%rax),%rax
    b639:	48 85 c0             	test   %rax,%rax
    b63c:	48 8b 05 e5 16 01 00 	mov    0x116e5(%rip),%rax        # 1cd28 <g_1120>
    b643:	48 8b 00             	mov    (%rax),%rax
    b646:	48 8b 00             	mov    (%rax),%rax
    b649:	48 8d 95 00 f6 ff ff 	lea    -0xa00(%rbp),%rdx
    b650:	48 89 10             	mov    %rdx,(%rax)
    b653:	48 8b 85 e8 f6 ff ff 	mov    -0x918(%rbp),%rax
    b65a:	8b 00                	mov    (%rax),%eax
    b65c:	48 8b 5d c8          	mov    -0x38(%rbp),%rbx
    b660:	64 48 33 1c 25 28 00 	xor    %fs:0x28,%rbx
    b667:	00 00 
    b669:	74 05                	je     b670 <func_1+0x2ebb>
    b66b:	e8 00 ba ff ff       	callq  7070 <__stack_chk_fail@plt>
    b670:	48 81 c4 48 0a 00 00 	add    $0xa48,%rsp
    b677:	5b                   	pop    %rbx
    b678:	41 5c                	pop    %r12
    b67a:	41 5d                	pop    %r13
    b67c:	41 5e                	pop    %r14
    b67e:	41 5f                	pop    %r15
    b680:	5d                   	pop    %rbp
    b681:	c3                   	retq   

000000000000b682 <func_3>:
    b682:	f3 0f 1e fa          	endbr64 
    b686:	55                   	push   %rbp
    b687:	48 89 e5             	mov    %rsp,%rbp
    b68a:	41 57                	push   %r15
    b68c:	41 56                	push   %r14
    b68e:	41 55                	push   %r13
    b690:	41 54                	push   %r12
    b692:	53                   	push   %rbx
    b693:	48 81 ec 00 10 00 00 	sub    $0x1000,%rsp
    b69a:	48 83 0c 24 00       	orq    $0x0,(%rsp)
    b69f:	48 81 ec a8 04 00 00 	sub    $0x4a8,%rsp
    b6a6:	89 bd 4c eb ff ff    	mov    %edi,-0x14b4(%rbp)
    b6ac:	89 b5 48 eb ff ff    	mov    %esi,-0x14b8(%rbp)
    b6b2:	48 89 95 40 eb ff ff 	mov    %rdx,-0x14c0(%rbp)
    b6b9:	48 89 8d 38 eb ff ff 	mov    %rcx,-0x14c8(%rbp)
    b6c0:	64 48 8b 04 25 28 00 	mov    %fs:0x28,%rax
    b6c7:	00 00 
    b6c9:	48 89 45 c8          	mov    %rax,-0x38(%rbp)
    b6cd:	31 c0                	xor    %eax,%eax
    b6cf:	48 8d 05 62 1f 01 00 	lea    0x11f62(%rip),%rax        # 1d638 <g_167>
    b6d6:	48 89 85 e0 ed ff ff 	mov    %rax,-0x1220(%rbp)
    b6dd:	48 8d 05 54 1f 01 00 	lea    0x11f54(%rip),%rax        # 1d638 <g_167>
    b6e4:	48 89 85 e8 ed ff ff 	mov    %rax,-0x1218(%rbp)
    b6eb:	48 8d 05 46 1f 01 00 	lea    0x11f46(%rip),%rax        # 1d638 <g_167>
    b6f2:	48 89 85 f0 ed ff ff 	mov    %rax,-0x1210(%rbp)
    b6f9:	48 8d 05 38 1f 01 00 	lea    0x11f38(%rip),%rax        # 1d638 <g_167>
    b700:	48 89 85 f8 ed ff ff 	mov    %rax,-0x1208(%rbp)
    b707:	48 8d 05 2a 1f 01 00 	lea    0x11f2a(%rip),%rax        # 1d638 <g_167>
    b70e:	48 89 85 00 ee ff ff 	mov    %rax,-0x1200(%rbp)
    b715:	48 b8 61 83 d3 f3 b6 	movabs $0x1b36cfb6f3d38361,%rax
    b71c:	cf 36 1b 
    b71f:	48 89 85 30 ec ff ff 	mov    %rax,-0x13d0(%rbp)
    b726:	c6 85 5f eb ff ff 40 	movb   $0x40,-0x14a1(%rbp)
    b72d:	48 8d 05 ac eb 00 00 	lea    0xebac(%rip),%rax        # 1a2e0 <g_590>
    b734:	48 89 85 f8 eb ff ff 	mov    %rax,-0x1408(%rbp)
    b73b:	c7 85 70 eb ff ff b3 	movl   $0x9426db3,-0x1490(%rbp)
    b742:	6d 42 09 
    b745:	c6 85 60 eb ff ff d5 	movb   $0xd5,-0x14a0(%rbp)
    b74c:	66 c7 85 90 ed ff ff 	movw   $0x733e,-0x1270(%rbp)
    b753:	3e 73 
    b755:	66 c7 85 92 ed ff ff 	movw   $0xffff,-0x126e(%rbp)
    b75c:	ff ff 
    b75e:	66 c7 85 94 ed ff ff 	movw   $0x0,-0x126c(%rbp)
    b765:	00 00 
    b767:	66 c7 85 96 ed ff ff 	movw   $0xffff,-0x126a(%rbp)
    b76e:	ff ff 
    b770:	66 c7 85 98 ed ff ff 	movw   $0x733e,-0x1268(%rbp)
    b777:	3e 73 
    b779:	66 c7 85 9a ed ff ff 	movw   $0xffff,-0x1266(%rbp)
    b780:	ff ff 
    b782:	66 c7 85 9c ed ff ff 	movw   $0x0,-0x1264(%rbp)
    b789:	00 00 
    b78b:	66 c7 85 9e ed ff ff 	movw   $0xffff,-0x1262(%rbp)
    b792:	ff ff 
    b794:	66 c7 85 a0 ed ff ff 	movw   $0x733e,-0x1260(%rbp)
    b79b:	3e 73 
    b79d:	66 c7 85 a2 ed ff ff 	movw   $0xffff,-0x125e(%rbp)
    b7a4:	ff ff 
    b7a6:	66 c7 85 a4 ed ff ff 	movw   $0x0,-0x125c(%rbp)
    b7ad:	00 00 
    b7af:	66 c7 85 a6 ed ff ff 	movw   $0xffff,-0x125a(%rbp)
    b7b6:	ff ff 
    b7b8:	66 c7 85 a8 ed ff ff 	movw   $0x733e,-0x1258(%rbp)
    b7bf:	3e 73 
    b7c1:	66 c7 85 aa ed ff ff 	movw   $0xffff,-0x1256(%rbp)
    b7c8:	ff ff 
    b7ca:	66 c7 85 ac ed ff ff 	movw   $0x0,-0x1254(%rbp)
    b7d1:	00 00 
    b7d3:	66 c7 85 ae ed ff ff 	movw   $0xffff,-0x1252(%rbp)
    b7da:	ff ff 
    b7dc:	66 c7 85 66 eb ff ff 	movw   $0xcb1b,-0x149a(%rbp)
    b7e3:	1b cb 
    b7e5:	c7 85 90 eb ff ff 09 	movl   $0x9,-0x1470(%rbp)
    b7ec:	00 00 00 
    b7ef:	48 b8 91 6a dc 53 2a 	movabs $0xcfd6172a53dc6a91,%rax
    b7f6:	17 d6 cf 
    b7f9:	48 89 85 28 ec ff ff 	mov    %rax,-0x13d8(%rbp)
    b800:	c7 85 b0 ed ff ff a3 	movl   $0x6b2910a3,-0x1250(%rbp)
    b807:	10 29 6b 
    b80a:	c7 85 b4 ed ff ff ff 	movl   $0xffffffff,-0x124c(%rbp)
    b811:	ff ff ff 
    b814:	c7 85 b8 ed ff ff a3 	movl   $0x6b2910a3,-0x1248(%rbp)
    b81b:	10 29 6b 
    b81e:	c7 85 bc ed ff ff ff 	movl   $0xffffffff,-0x1244(%rbp)
    b825:	ff ff ff 
    b828:	c7 85 c0 ed ff ff a3 	movl   $0x6b2910a3,-0x1240(%rbp)
    b82f:	10 29 6b 
    b832:	c7 85 c4 ed ff ff ff 	movl   $0xffffffff,-0x123c(%rbp)
    b839:	ff ff ff 
    b83c:	c7 85 c8 ed ff ff a3 	movl   $0x6b2910a3,-0x1238(%rbp)
    b843:	10 29 6b 
    b846:	c7 85 cc ed ff ff ff 	movl   $0xffffffff,-0x1234(%rbp)
    b84d:	ff ff ff 
    b850:	c7 85 d0 ed ff ff a3 	movl   $0x6b2910a3,-0x1230(%rbp)
    b857:	10 29 6b 
    b85a:	48 c7 85 38 ec ff ff 	movq   $0x0,-0x13c8(%rbp)
    b861:	00 00 00 00 
    b865:	48 c7 85 40 ec ff ff 	movq   $0x0,-0x13c0(%rbp)
    b86c:	00 00 00 00 
    b870:	c7 85 80 eb ff ff 00 	movl   $0x0,-0x1480(%rbp)
    b877:	00 00 00 
    b87a:	eb 14                	jmp    b890 <func_3+0x20e>
    b87c:	8b 85 80 eb ff ff    	mov    -0x1480(%rbp),%eax
    b882:	48 98                	cltq   
    b884:	c6 44 05 c5 12       	movb   $0x12,-0x3b(%rbp,%rax,1)
    b889:	83 85 80 eb ff ff 01 	addl   $0x1,-0x1480(%rbp)
    b890:	83 bd 80 eb ff ff 02 	cmpl   $0x2,-0x1480(%rbp)
    b897:	7e e3                	jle    b87c <func_3+0x1fa>
    b899:	48 83 ad 30 ec ff ff 	subq   $0x1,-0x13d0(%rbp)
    b8a0:	01 
    b8a1:	c7 85 4c eb ff ff 05 	movl   $0x5,-0x14b4(%rbp)
    b8a8:	00 00 00 
    b8ab:	90                   	nop
    b8ac:	8b 85 4c eb ff ff    	mov    -0x14b4(%rbp),%eax
    b8b2:	83 f8 21             	cmp    $0x21,%eax
    b8b5:	76 0b                	jbe    b8c2 <func_3+0x240>
    b8b7:	8b 85 4c eb ff ff    	mov    -0x14b4(%rbp),%eax
    b8bd:	e9 55 32 00 00       	jmpq   eb17 <func_3+0x3495>
    b8c2:	0f b6 85 5f eb ff ff 	movzbl -0x14a1(%rbp),%eax
    b8c9:	83 e8 01             	sub    $0x1,%eax
    b8cc:	88 85 5f eb ff ff    	mov    %al,-0x14a1(%rbp)
    b8d2:	0f b7 9d 66 eb ff ff 	movzwl -0x149a(%rbp),%ebx
    b8d9:	4c 8b a5 38 eb ff ff 	mov    -0x14c8(%rbp),%r12
    b8e0:	8b 05 4a 1d 01 00    	mov    0x11d4a(%rip),%eax        # 1d630 <g_112>
    b8e6:	44 0f b7 e8          	movzwl %ax,%r13d
    b8ea:	44 0f be b5 60 eb ff 	movsbl -0x14a0(%rbp),%r14d
    b8f1:	ff 
    b8f2:	8b 85 4c eb ff ff    	mov    -0x14b4(%rbp),%eax
    b8f8:	83 f8 64             	cmp    $0x64,%eax
    b8fb:	0f 94 c0             	sete   %al
    b8fe:	44 0f b6 f8          	movzbl %al,%r15d
    b902:	48 8b 85 38 eb ff ff 	mov    -0x14c8(%rbp),%rax
    b909:	0f b6 c0             	movzbl %al,%eax
    b90c:	be 14 00 00 00       	mov    $0x14,%esi
    b911:	89 c7                	mov    %eax,%edi
    b913:	e8 7b c2 ff ff       	callq  7b93 <safe_mul_func_uint8_t_u_u>
    b918:	8b 15 5a 1d 01 00    	mov    0x11d5a(%rip),%edx        # 1d678 <g_1052>
    b91e:	48 8b 85 f8 eb ff ff 	mov    -0x1408(%rbp),%rax
    b925:	89 d2                	mov    %edx,%edx
    b927:	48 89 10             	mov    %rdx,(%rax)
    b92a:	48 8b 00             	mov    (%rax),%rax
    b92d:	48 83 f8 01          	cmp    $0x1,%rax
    b931:	76 18                	jbe    b94b <func_3+0x2c9>
    b933:	8b 85 4c eb ff ff    	mov    -0x14b4(%rbp),%eax
    b939:	98                   	cwtl   
    b93a:	be 0c 00 00 00       	mov    $0xc,%esi
    b93f:	89 c7                	mov    %eax,%edi
    b941:	e8 9b bb ff ff       	callq  74e1 <safe_lshift_func_int16_t_s_u>
    b946:	66 85 c0             	test   %ax,%ax
    b949:	74 07                	je     b952 <func_3+0x2d0>
    b94b:	b8 01 00 00 00       	mov    $0x1,%eax
    b950:	eb 05                	jmp    b957 <func_3+0x2d5>
    b952:	b8 00 00 00 00       	mov    $0x0,%eax
    b957:	0f b7 c0             	movzwl %ax,%eax
    b95a:	44 89 fe             	mov    %r15d,%esi
    b95d:	89 c7                	mov    %eax,%edi
    b95f:	e8 bb c3 ff ff       	callq  7d1f <safe_sub_func_uint16_t_u_u>
    b964:	8b 85 70 eb ff ff    	mov    -0x1490(%rbp),%eax
    b96a:	0f b7 c0             	movzwl %ax,%eax
    b96d:	44 89 f6             	mov    %r14d,%esi
    b970:	89 c7                	mov    %eax,%edi
    b972:	e8 47 c4 ff ff       	callq  7dbe <safe_lshift_func_uint16_t_u_s>
    b977:	0f b7 c0             	movzwl %ax,%eax
    b97a:	48 8b 95 40 eb ff ff 	mov    -0x14c0(%rbp),%rdx
    b981:	48 89 d6             	mov    %rdx,%rsi
    b984:	48 89 c7             	mov    %rax,%rdi
    b987:	e8 28 c0 ff ff       	callq  79b4 <safe_mod_func_int64_t_s_s>
    b98c:	48 39 85 38 eb ff ff 	cmp    %rax,-0x14c8(%rbp)
    b993:	0f 9f c0             	setg   %al
    b996:	0f b6 d0             	movzbl %al,%edx
    b999:	0f b7 85 a0 ed ff ff 	movzwl -0x1260(%rbp),%eax
    b9a0:	98                   	cwtl   
    b9a1:	39 c2                	cmp    %eax,%edx
    b9a3:	0f 95 c0             	setne  %al
    b9a6:	0f b6 c0             	movzbl %al,%eax
    b9a9:	44 89 ee             	mov    %r13d,%esi
    b9ac:	89 c7                	mov    %eax,%edi
    b9ae:	e8 6c c3 ff ff       	callq  7d1f <safe_sub_func_uint16_t_u_u>
    b9b3:	0f b7 c0             	movzwl %ax,%eax
    b9b6:	48 39 85 38 eb ff ff 	cmp    %rax,-0x14c8(%rbp)
    b9bd:	0f 9f c0             	setg   %al
    b9c0:	0f b6 c0             	movzbl %al,%eax
    b9c3:	4c 89 e6             	mov    %r12,%rsi
    b9c6:	48 89 c7             	mov    %rax,%rdi
    b9c9:	e8 7d c6 ff ff       	callq  804b <safe_sub_func_uint64_t_u_u>
    b9ce:	98                   	cwtl   
    b9cf:	be 06 00 00 00       	mov    $0x6,%esi
    b9d4:	89 c7                	mov    %eax,%edi
    b9d6:	e8 88 bb ff ff       	callq  7563 <safe_rshift_func_int16_t_s_u>
    b9db:	0f b6 c0             	movzbl %al,%eax
    b9de:	89 de                	mov    %ebx,%esi
    b9e0:	89 c7                	mov    %eax,%edi
    b9e2:	e8 1e c2 ff ff       	callq  7c05 <safe_lshift_func_uint8_t_u_s>
    b9e7:	84 c0                	test   %al,%al
    b9e9:	0f 84 4e 0f 00 00    	je     c93d <func_3+0x12bb>
    b9ef:	c7 85 e0 eb ff ff 09 	movl   $0x9,-0x1420(%rbp)
    b9f6:	00 00 00 
    b9f9:	48 c7 85 d8 ec ff ff 	movq   $0x0,-0x1328(%rbp)
    ba00:	00 00 00 00 
    ba04:	48 8d 85 f8 eb ff ff 	lea    -0x1408(%rbp),%rax
    ba0b:	48 89 85 40 f8 ff ff 	mov    %rax,-0x7c0(%rbp)
    ba12:	48 8d 85 f8 eb ff ff 	lea    -0x1408(%rbp),%rax
    ba19:	48 89 85 48 f8 ff ff 	mov    %rax,-0x7b8(%rbp)
    ba20:	48 8d 85 f8 eb ff ff 	lea    -0x1408(%rbp),%rax
    ba27:	48 89 85 50 f8 ff ff 	mov    %rax,-0x7b0(%rbp)
    ba2e:	48 8d 85 f8 eb ff ff 	lea    -0x1408(%rbp),%rax
    ba35:	48 89 85 58 f8 ff ff 	mov    %rax,-0x7a8(%rbp)
    ba3c:	48 8d 85 f8 eb ff ff 	lea    -0x1408(%rbp),%rax
    ba43:	48 89 85 60 f8 ff ff 	mov    %rax,-0x7a0(%rbp)
    ba4a:	48 c7 85 68 f8 ff ff 	movq   $0x0,-0x798(%rbp)
    ba51:	00 00 00 00 
    ba55:	48 c7 85 70 f8 ff ff 	movq   $0x0,-0x790(%rbp)
    ba5c:	00 00 00 00 
    ba60:	48 c7 85 78 f8 ff ff 	movq   $0x0,-0x788(%rbp)
    ba67:	00 00 00 00 
    ba6b:	48 c7 85 80 f8 ff ff 	movq   $0x0,-0x780(%rbp)
    ba72:	00 00 00 00 
    ba76:	48 c7 85 88 f8 ff ff 	movq   $0x0,-0x778(%rbp)
    ba7d:	00 00 00 00 
    ba81:	48 c7 85 90 f8 ff ff 	movq   $0x0,-0x770(%rbp)
    ba88:	00 00 00 00 
    ba8c:	48 8d 85 f8 eb ff ff 	lea    -0x1408(%rbp),%rax
    ba93:	48 89 85 98 f8 ff ff 	mov    %rax,-0x768(%rbp)
    ba9a:	48 8d 85 f8 eb ff ff 	lea    -0x1408(%rbp),%rax
    baa1:	48 89 85 a0 f8 ff ff 	mov    %rax,-0x760(%rbp)
    baa8:	48 8d 85 f8 eb ff ff 	lea    -0x1408(%rbp),%rax
    baaf:	48 89 85 a8 f8 ff ff 	mov    %rax,-0x758(%rbp)
    bab6:	48 c7 85 b0 f8 ff ff 	movq   $0x0,-0x750(%rbp)
    babd:	00 00 00 00 
    bac1:	48 c7 85 b8 f8 ff ff 	movq   $0x0,-0x748(%rbp)
    bac8:	00 00 00 00 
    bacc:	48 c7 85 c0 f8 ff ff 	movq   $0x0,-0x740(%rbp)
    bad3:	00 00 00 00 
    bad7:	48 8d 85 f8 eb ff ff 	lea    -0x1408(%rbp),%rax
    bade:	48 89 85 c8 f8 ff ff 	mov    %rax,-0x738(%rbp)
    bae5:	48 c7 85 d0 f8 ff ff 	movq   $0x0,-0x730(%rbp)
    baec:	00 00 00 00 
    baf0:	48 8d 85 f8 eb ff ff 	lea    -0x1408(%rbp),%rax
    baf7:	48 89 85 d8 f8 ff ff 	mov    %rax,-0x728(%rbp)
    bafe:	48 c7 85 e0 f8 ff ff 	movq   $0x0,-0x720(%rbp)
    bb05:	00 00 00 00 
    bb09:	48 c7 85 e8 f8 ff ff 	movq   $0x0,-0x718(%rbp)
    bb10:	00 00 00 00 
    bb14:	48 8d 85 f8 eb ff ff 	lea    -0x1408(%rbp),%rax
    bb1b:	48 89 85 f0 f8 ff ff 	mov    %rax,-0x710(%rbp)
    bb22:	48 c7 85 f8 f8 ff ff 	movq   $0x0,-0x708(%rbp)
    bb29:	00 00 00 00 
    bb2d:	48 c7 85 00 f9 ff ff 	movq   $0x0,-0x700(%rbp)
    bb34:	00 00 00 00 
    bb38:	48 c7 85 08 f9 ff ff 	movq   $0x0,-0x6f8(%rbp)
    bb3f:	00 00 00 00 
    bb43:	48 8d 85 f8 eb ff ff 	lea    -0x1408(%rbp),%rax
    bb4a:	48 89 85 10 f9 ff ff 	mov    %rax,-0x6f0(%rbp)
    bb51:	48 c7 85 18 f9 ff ff 	movq   $0x0,-0x6e8(%rbp)
    bb58:	00 00 00 00 
    bb5c:	48 c7 85 20 f9 ff ff 	movq   $0x0,-0x6e0(%rbp)
    bb63:	00 00 00 00 
    bb67:	48 c7 85 28 f9 ff ff 	movq   $0x0,-0x6d8(%rbp)
    bb6e:	00 00 00 00 
    bb72:	48 8d 85 f8 eb ff ff 	lea    -0x1408(%rbp),%rax
    bb79:	48 89 85 30 f9 ff ff 	mov    %rax,-0x6d0(%rbp)
    bb80:	48 8d 85 f8 eb ff ff 	lea    -0x1408(%rbp),%rax
    bb87:	48 89 85 38 f9 ff ff 	mov    %rax,-0x6c8(%rbp)
    bb8e:	48 c7 85 40 f9 ff ff 	movq   $0x0,-0x6c0(%rbp)
    bb95:	00 00 00 00 
    bb99:	48 8d 85 f8 eb ff ff 	lea    -0x1408(%rbp),%rax
    bba0:	48 89 85 48 f9 ff ff 	mov    %rax,-0x6b8(%rbp)
    bba7:	48 8d 85 f8 eb ff ff 	lea    -0x1408(%rbp),%rax
    bbae:	48 89 85 50 f9 ff ff 	mov    %rax,-0x6b0(%rbp)
    bbb5:	48 8d 85 f8 eb ff ff 	lea    -0x1408(%rbp),%rax
    bbbc:	48 89 85 58 f9 ff ff 	mov    %rax,-0x6a8(%rbp)
    bbc3:	48 8d 85 f8 eb ff ff 	lea    -0x1408(%rbp),%rax
    bbca:	48 89 85 60 f9 ff ff 	mov    %rax,-0x6a0(%rbp)
    bbd1:	48 8d 85 f8 eb ff ff 	lea    -0x1408(%rbp),%rax
    bbd8:	48 89 85 68 f9 ff ff 	mov    %rax,-0x698(%rbp)
    bbdf:	48 c7 85 70 f9 ff ff 	movq   $0x0,-0x690(%rbp)
    bbe6:	00 00 00 00 
    bbea:	48 8d 85 f8 eb ff ff 	lea    -0x1408(%rbp),%rax
    bbf1:	48 89 85 78 f9 ff ff 	mov    %rax,-0x688(%rbp)
    bbf8:	48 c7 85 80 f9 ff ff 	movq   $0x0,-0x680(%rbp)
    bbff:	00 00 00 00 
    bc03:	48 8d 85 f8 eb ff ff 	lea    -0x1408(%rbp),%rax
    bc0a:	48 89 85 88 f9 ff ff 	mov    %rax,-0x678(%rbp)
    bc11:	48 8d 85 f8 eb ff ff 	lea    -0x1408(%rbp),%rax
    bc18:	48 89 85 90 f9 ff ff 	mov    %rax,-0x670(%rbp)
    bc1f:	48 c7 85 98 f9 ff ff 	movq   $0x0,-0x668(%rbp)
    bc26:	00 00 00 00 
    bc2a:	48 8d 85 f8 eb ff ff 	lea    -0x1408(%rbp),%rax
    bc31:	48 89 85 a0 f9 ff ff 	mov    %rax,-0x660(%rbp)
    bc38:	48 8d 85 f8 eb ff ff 	lea    -0x1408(%rbp),%rax
    bc3f:	48 89 85 a8 f9 ff ff 	mov    %rax,-0x658(%rbp)
    bc46:	48 c7 85 b0 f9 ff ff 	movq   $0x0,-0x650(%rbp)
    bc4d:	00 00 00 00 
    bc51:	48 c7 85 b8 f9 ff ff 	movq   $0x0,-0x648(%rbp)
    bc58:	00 00 00 00 
    bc5c:	48 8d 85 f8 eb ff ff 	lea    -0x1408(%rbp),%rax
    bc63:	48 89 85 c0 f9 ff ff 	mov    %rax,-0x640(%rbp)
    bc6a:	48 c7 85 c8 f9 ff ff 	movq   $0x0,-0x638(%rbp)
    bc71:	00 00 00 00 
    bc75:	48 c7 85 d0 f9 ff ff 	movq   $0x0,-0x630(%rbp)
    bc7c:	00 00 00 00 
    bc80:	48 8d 85 f8 eb ff ff 	lea    -0x1408(%rbp),%rax
    bc87:	48 89 85 d8 f9 ff ff 	mov    %rax,-0x628(%rbp)
    bc8e:	48 c7 85 e0 f9 ff ff 	movq   $0x0,-0x620(%rbp)
    bc95:	00 00 00 00 
    bc99:	48 c7 85 e8 f9 ff ff 	movq   $0x0,-0x618(%rbp)
    bca0:	00 00 00 00 
    bca4:	48 8d 85 f8 eb ff ff 	lea    -0x1408(%rbp),%rax
    bcab:	48 89 85 f0 f9 ff ff 	mov    %rax,-0x610(%rbp)
    bcb2:	48 8d 85 f8 eb ff ff 	lea    -0x1408(%rbp),%rax
    bcb9:	48 89 85 f8 f9 ff ff 	mov    %rax,-0x608(%rbp)
    bcc0:	48 c7 85 00 fa ff ff 	movq   $0x0,-0x600(%rbp)
    bcc7:	00 00 00 00 
    bccb:	48 8d 85 f8 eb ff ff 	lea    -0x1408(%rbp),%rax
    bcd2:	48 89 85 08 fa ff ff 	mov    %rax,-0x5f8(%rbp)
    bcd9:	48 8d 85 f8 eb ff ff 	lea    -0x1408(%rbp),%rax
    bce0:	48 89 85 10 fa ff ff 	mov    %rax,-0x5f0(%rbp)
    bce7:	48 8d 85 f8 eb ff ff 	lea    -0x1408(%rbp),%rax
    bcee:	48 89 85 18 fa ff ff 	mov    %rax,-0x5e8(%rbp)
    bcf5:	48 c7 85 20 fa ff ff 	movq   $0x0,-0x5e0(%rbp)
    bcfc:	00 00 00 00 
    bd00:	48 8d 85 f8 eb ff ff 	lea    -0x1408(%rbp),%rax
    bd07:	48 89 85 28 fa ff ff 	mov    %rax,-0x5d8(%rbp)
    bd0e:	48 8d 85 f8 eb ff ff 	lea    -0x1408(%rbp),%rax
    bd15:	48 89 85 30 fa ff ff 	mov    %rax,-0x5d0(%rbp)
    bd1c:	48 c7 85 38 fa ff ff 	movq   $0x0,-0x5c8(%rbp)
    bd23:	00 00 00 00 
    bd27:	48 c7 85 40 fa ff ff 	movq   $0x0,-0x5c0(%rbp)
    bd2e:	00 00 00 00 
    bd32:	48 c7 85 48 fa ff ff 	movq   $0x0,-0x5b8(%rbp)
    bd39:	00 00 00 00 
    bd3d:	48 8d 85 f8 eb ff ff 	lea    -0x1408(%rbp),%rax
    bd44:	48 89 85 50 fa ff ff 	mov    %rax,-0x5b0(%rbp)
    bd4b:	48 8d 85 f8 eb ff ff 	lea    -0x1408(%rbp),%rax
    bd52:	48 89 85 58 fa ff ff 	mov    %rax,-0x5a8(%rbp)
    bd59:	48 c7 85 60 fa ff ff 	movq   $0x0,-0x5a0(%rbp)
    bd60:	00 00 00 00 
    bd64:	48 8d 85 f8 eb ff ff 	lea    -0x1408(%rbp),%rax
    bd6b:	48 89 85 68 fa ff ff 	mov    %rax,-0x598(%rbp)
    bd72:	48 8d 85 f8 eb ff ff 	lea    -0x1408(%rbp),%rax
    bd79:	48 89 85 70 fa ff ff 	mov    %rax,-0x590(%rbp)
    bd80:	48 8d 85 f8 eb ff ff 	lea    -0x1408(%rbp),%rax
    bd87:	48 89 85 78 fa ff ff 	mov    %rax,-0x588(%rbp)
    bd8e:	48 c7 85 80 fa ff ff 	movq   $0x0,-0x580(%rbp)
    bd95:	00 00 00 00 
    bd99:	48 8d 85 f8 eb ff ff 	lea    -0x1408(%rbp),%rax
    bda0:	48 89 85 88 fa ff ff 	mov    %rax,-0x578(%rbp)
    bda7:	48 8d 85 f8 eb ff ff 	lea    -0x1408(%rbp),%rax
    bdae:	48 89 85 90 fa ff ff 	mov    %rax,-0x570(%rbp)
    bdb5:	48 c7 85 98 fa ff ff 	movq   $0x0,-0x568(%rbp)
    bdbc:	00 00 00 00 
    bdc0:	48 c7 85 a0 fa ff ff 	movq   $0x0,-0x560(%rbp)
    bdc7:	00 00 00 00 
    bdcb:	48 c7 85 a8 fa ff ff 	movq   $0x0,-0x558(%rbp)
    bdd2:	00 00 00 00 
    bdd6:	48 c7 85 b0 fa ff ff 	movq   $0x0,-0x550(%rbp)
    bddd:	00 00 00 00 
    bde1:	48 c7 85 b8 fa ff ff 	movq   $0x0,-0x548(%rbp)
    bde8:	00 00 00 00 
    bdec:	48 8d 85 f8 eb ff ff 	lea    -0x1408(%rbp),%rax
    bdf3:	48 89 85 c0 fa ff ff 	mov    %rax,-0x540(%rbp)
    bdfa:	48 c7 85 c8 fa ff ff 	movq   $0x0,-0x538(%rbp)
    be01:	00 00 00 00 
    be05:	48 c7 85 d0 fa ff ff 	movq   $0x0,-0x530(%rbp)
    be0c:	00 00 00 00 
    be10:	48 8d 85 f8 eb ff ff 	lea    -0x1408(%rbp),%rax
    be17:	48 89 85 d8 fa ff ff 	mov    %rax,-0x528(%rbp)
    be1e:	48 8d 85 f8 eb ff ff 	lea    -0x1408(%rbp),%rax
    be25:	48 89 85 e0 fa ff ff 	mov    %rax,-0x520(%rbp)
    be2c:	48 c7 85 e8 fa ff ff 	movq   $0x0,-0x518(%rbp)
    be33:	00 00 00 00 
    be37:	48 8d 85 f8 eb ff ff 	lea    -0x1408(%rbp),%rax
    be3e:	48 89 85 f0 fa ff ff 	mov    %rax,-0x510(%rbp)
    be45:	48 8d 85 f8 eb ff ff 	lea    -0x1408(%rbp),%rax
    be4c:	48 89 85 f8 fa ff ff 	mov    %rax,-0x508(%rbp)
    be53:	48 c7 85 00 fb ff ff 	movq   $0x0,-0x500(%rbp)
    be5a:	00 00 00 00 
    be5e:	48 8d 85 f8 eb ff ff 	lea    -0x1408(%rbp),%rax
    be65:	48 89 85 08 fb ff ff 	mov    %rax,-0x4f8(%rbp)
    be6c:	48 c7 85 10 fb ff ff 	movq   $0x0,-0x4f0(%rbp)
    be73:	00 00 00 00 
    be77:	48 8d 85 f8 eb ff ff 	lea    -0x1408(%rbp),%rax
    be7e:	48 89 85 18 fb ff ff 	mov    %rax,-0x4e8(%rbp)
    be85:	48 8d 85 f8 eb ff ff 	lea    -0x1408(%rbp),%rax
    be8c:	48 89 85 20 fb ff ff 	mov    %rax,-0x4e0(%rbp)
    be93:	48 c7 85 28 fb ff ff 	movq   $0x0,-0x4d8(%rbp)
    be9a:	00 00 00 00 
    be9e:	48 c7 85 30 fb ff ff 	movq   $0x0,-0x4d0(%rbp)
    bea5:	00 00 00 00 
    bea9:	48 8d 85 f8 eb ff ff 	lea    -0x1408(%rbp),%rax
    beb0:	48 89 85 38 fb ff ff 	mov    %rax,-0x4c8(%rbp)
    beb7:	48 8d 85 f8 eb ff ff 	lea    -0x1408(%rbp),%rax
    bebe:	48 89 85 40 fb ff ff 	mov    %rax,-0x4c0(%rbp)
    bec5:	48 c7 85 48 fb ff ff 	movq   $0x0,-0x4b8(%rbp)
    becc:	00 00 00 00 
    bed0:	48 8d 85 f8 eb ff ff 	lea    -0x1408(%rbp),%rax
    bed7:	48 89 85 50 fb ff ff 	mov    %rax,-0x4b0(%rbp)
    bede:	48 8d 85 f8 eb ff ff 	lea    -0x1408(%rbp),%rax
    bee5:	48 89 85 58 fb ff ff 	mov    %rax,-0x4a8(%rbp)
    beec:	48 8d 85 f8 eb ff ff 	lea    -0x1408(%rbp),%rax
    bef3:	48 89 85 60 fb ff ff 	mov    %rax,-0x4a0(%rbp)
    befa:	48 c7 85 68 fb ff ff 	movq   $0x0,-0x498(%rbp)
    bf01:	00 00 00 00 
    bf05:	48 8d 85 f8 eb ff ff 	lea    -0x1408(%rbp),%rax
    bf0c:	48 89 85 70 fb ff ff 	mov    %rax,-0x490(%rbp)
    bf13:	48 8d 85 f8 eb ff ff 	lea    -0x1408(%rbp),%rax
    bf1a:	48 89 85 78 fb ff ff 	mov    %rax,-0x488(%rbp)
    bf21:	48 8d 85 f8 eb ff ff 	lea    -0x1408(%rbp),%rax
    bf28:	48 89 85 80 fb ff ff 	mov    %rax,-0x480(%rbp)
    bf2f:	48 8d 85 f8 eb ff ff 	lea    -0x1408(%rbp),%rax
    bf36:	48 89 85 88 fb ff ff 	mov    %rax,-0x478(%rbp)
    bf3d:	48 c7 85 90 fb ff ff 	movq   $0x0,-0x470(%rbp)
    bf44:	00 00 00 00 
    bf48:	48 8d 85 f8 eb ff ff 	lea    -0x1408(%rbp),%rax
    bf4f:	48 89 85 98 fb ff ff 	mov    %rax,-0x468(%rbp)
    bf56:	48 8d 85 f8 eb ff ff 	lea    -0x1408(%rbp),%rax
    bf5d:	48 89 85 a0 fb ff ff 	mov    %rax,-0x460(%rbp)
    bf64:	48 c7 85 a8 fb ff ff 	movq   $0x0,-0x458(%rbp)
    bf6b:	00 00 00 00 
    bf6f:	48 c7 85 b0 fb ff ff 	movq   $0x0,-0x450(%rbp)
    bf76:	00 00 00 00 
    bf7a:	48 8d 85 f8 eb ff ff 	lea    -0x1408(%rbp),%rax
    bf81:	48 89 85 b8 fb ff ff 	mov    %rax,-0x448(%rbp)
    bf88:	48 8d 85 f8 eb ff ff 	lea    -0x1408(%rbp),%rax
    bf8f:	48 89 85 c0 fb ff ff 	mov    %rax,-0x440(%rbp)
    bf96:	48 c7 85 c8 fb ff ff 	movq   $0x0,-0x438(%rbp)
    bf9d:	00 00 00 00 
    bfa1:	48 8d 85 f8 eb ff ff 	lea    -0x1408(%rbp),%rax
    bfa8:	48 89 85 d0 fb ff ff 	mov    %rax,-0x430(%rbp)
    bfaf:	48 c7 85 d8 fb ff ff 	movq   $0x0,-0x428(%rbp)
    bfb6:	00 00 00 00 
    bfba:	48 8d 85 f8 eb ff ff 	lea    -0x1408(%rbp),%rax
    bfc1:	48 89 85 e0 fb ff ff 	mov    %rax,-0x420(%rbp)
    bfc8:	48 8d 85 f8 eb ff ff 	lea    -0x1408(%rbp),%rax
    bfcf:	48 89 85 e8 fb ff ff 	mov    %rax,-0x418(%rbp)
    bfd6:	48 c7 85 f0 fb ff ff 	movq   $0x0,-0x410(%rbp)
    bfdd:	00 00 00 00 
    bfe1:	48 8d 85 f8 eb ff ff 	lea    -0x1408(%rbp),%rax
    bfe8:	48 89 85 f8 fb ff ff 	mov    %rax,-0x408(%rbp)
    bfef:	48 8d 05 5a 16 01 00 	lea    0x1165a(%rip),%rax        # 1d650 <g_413>
    bff6:	48 89 85 80 ef ff ff 	mov    %rax,-0x1080(%rbp)
    bffd:	48 8d 05 4c 16 01 00 	lea    0x1164c(%rip),%rax        # 1d650 <g_413>
    c004:	48 89 85 88 ef ff ff 	mov    %rax,-0x1078(%rbp)
    c00b:	48 8d 05 3e 16 01 00 	lea    0x1163e(%rip),%rax        # 1d650 <g_413>
    c012:	48 89 85 90 ef ff ff 	mov    %rax,-0x1070(%rbp)
    c019:	48 8d 05 30 16 01 00 	lea    0x11630(%rip),%rax        # 1d650 <g_413>
    c020:	48 89 85 98 ef ff ff 	mov    %rax,-0x1068(%rbp)
    c027:	48 8d 05 22 16 01 00 	lea    0x11622(%rip),%rax        # 1d650 <g_413>
    c02e:	48 89 85 a0 ef ff ff 	mov    %rax,-0x1060(%rbp)
    c035:	48 8d 05 14 16 01 00 	lea    0x11614(%rip),%rax        # 1d650 <g_413>
    c03c:	48 89 85 a8 ef ff ff 	mov    %rax,-0x1058(%rbp)
    c043:	48 8d 05 06 16 01 00 	lea    0x11606(%rip),%rax        # 1d650 <g_413>
    c04a:	48 89 85 b0 ef ff ff 	mov    %rax,-0x1050(%rbp)
    c051:	48 8d 05 f8 15 01 00 	lea    0x115f8(%rip),%rax        # 1d650 <g_413>
    c058:	48 89 85 b8 ef ff ff 	mov    %rax,-0x1048(%rbp)
    c05f:	48 8d 05 ea 15 01 00 	lea    0x115ea(%rip),%rax        # 1d650 <g_413>
    c066:	48 89 85 c0 ef ff ff 	mov    %rax,-0x1040(%rbp)
    c06d:	48 8d 85 80 ef ff ff 	lea    -0x1080(%rbp),%rax
    c074:	48 89 85 e0 ec ff ff 	mov    %rax,-0x1320(%rbp)
    c07b:	48 8d 05 de 05 01 00 	lea    0x105de(%rip),%rax        # 1c660 <g_563>
    c082:	48 89 85 e8 ec ff ff 	mov    %rax,-0x1318(%rbp)
    c089:	48 8d 85 c0 f0 ff ff 	lea    -0xf40(%rbp),%rax
    c090:	48 8d 15 a9 e7 00 00 	lea    0xe7a9(%rip),%rdx        # 1a840 <g_1579+0x1f4>
    c097:	b9 36 00 00 00       	mov    $0x36,%ecx
    c09c:	48 89 c7             	mov    %rax,%rdi
    c09f:	48 89 d6             	mov    %rdx,%rsi
    c0a2:	f3 48 a5             	rep movsq %ds:(%rsi),%es:(%rdi)
    c0a5:	c7 85 e4 eb ff ff 00 	movl   $0x0,-0x141c(%rbp)
    c0ac:	00 00 00 
    c0af:	c7 05 77 15 01 00 00 	movl   $0x0,0x11577(%rip)        # 1d630 <g_112>
    c0b6:	00 00 00 
    c0b9:	eb 33                	jmp    c0ee <func_3+0xa6c>
    c0bb:	48 c7 85 f0 ec ff ff 	movq   $0x1,-0x1310(%rbp)
    c0c2:	01 00 00 00 
    c0c6:	48 83 bd f0 ec ff ff 	cmpq   $0x0,-0x1310(%rbp)
    c0cd:	00 
    c0ce:	75 2b                	jne    c0fb <func_3+0xa79>
    c0d0:	8b 05 5a 15 01 00    	mov    0x1155a(%rip),%eax        # 1d630 <g_112>
    c0d6:	0f b6 c0             	movzbl %al,%eax
    c0d9:	be 08 00 00 00       	mov    $0x8,%esi
    c0de:	89 c7                	mov    %eax,%edi
    c0e0:	e8 75 ba ff ff       	callq  7b5a <safe_add_func_uint8_t_u_u>
    c0e5:	0f b6 c0             	movzbl %al,%eax
    c0e8:	89 05 42 15 01 00    	mov    %eax,0x11542(%rip)        # 1d630 <g_112>
    c0ee:	8b 05 3c 15 01 00    	mov    0x1153c(%rip),%eax        # 1d630 <g_112>
    c0f4:	83 f8 36             	cmp    $0x36,%eax
    c0f7:	74 c2                	je     c0bb <func_3+0xa39>
    c0f9:	eb 01                	jmp    c0fc <func_3+0xa7a>
    c0fb:	90                   	nop
    c0fc:	48 8d 85 70 eb ff ff 	lea    -0x1490(%rbp),%rax
    c103:	48 89 85 f8 ec ff ff 	mov    %rax,-0x1308(%rbp)
    c10a:	48 8d 05 27 0b 01 00 	lea    0x10b27(%rip),%rax        # 1cc38 <g_758>
    c111:	48 89 85 00 ed ff ff 	mov    %rax,-0x1300(%rbp)
    c118:	48 c7 85 08 ed ff ff 	movq   $0xffffffffffffffff,-0x12f8(%rbp)
    c11f:	ff ff ff ff 
    c123:	c7 85 e8 eb ff ff 8c 	movl   $0xe3beaa8c,-0x1418(%rbp)
    c12a:	aa be e3 
    c12d:	c7 85 ec eb ff ff fe 	movl   $0xfffffffe,-0x1414(%rbp)
    c134:	ff ff ff 
    c137:	c7 85 84 eb ff ff 00 	movl   $0x0,-0x147c(%rbp)
    c13e:	00 00 00 
    c141:	eb 1a                	jmp    c15d <func_3+0xadb>
    c143:	8b 85 84 eb ff ff    	mov    -0x147c(%rbp),%eax
    c149:	48 98                	cltq   
    c14b:	c7 84 85 e0 ee ff ff 	movl   $0xee2dad51,-0x1120(%rbp,%rax,4)
    c152:	51 ad 2d ee 
    c156:	83 85 84 eb ff ff 01 	addl   $0x1,-0x147c(%rbp)
    c15d:	83 bd 84 eb ff ff 05 	cmpl   $0x5,-0x147c(%rbp)
    c164:	7e dd                	jle    c143 <func_3+0xac1>
    c166:	8b 85 48 eb ff ff    	mov    -0x14b8(%rbp),%eax
    c16c:	0f b6 d8             	movzbl %al,%ebx
    c16f:	48 8b 05 32 e0 00 00 	mov    0xe032(%rip),%rax        # 1a1a8 <g_103+0x128>
    c176:	44 0f b7 e0          	movzwl %ax,%r12d
    c17a:	81 bd e0 eb ff ff 2c 	cmpl   $0xb62c,-0x1420(%rbp)
    c181:	b6 00 00 
    c184:	0f 96 c0             	setbe  %al
    c187:	0f b6 d0             	movzbl %al,%edx
    c18a:	8b 85 ec ee ff ff    	mov    -0x1114(%rbp),%eax
    c190:	39 c2                	cmp    %eax,%edx
    c192:	0f 9d c0             	setge  %al
    c195:	0f b6 c0             	movzbl %al,%eax
    c198:	be 02 00 00 00       	mov    $0x2,%esi
    c19d:	89 c7                	mov    %eax,%edi
    c19f:	e8 3d b3 ff ff       	callq  74e1 <safe_lshift_func_int16_t_s_u>
    c1a4:	98                   	cwtl   
    c1a5:	48 8b 95 40 eb ff ff 	mov    -0x14c0(%rbp),%rdx
    c1ac:	09 d0                	or     %edx,%eax
    c1ae:	35 da b1 40 5c       	xor    $0x5c40b1da,%eax
    c1b3:	be 00 00 00 00       	mov    $0x0,%esi
    c1b8:	89 c7                	mov    %eax,%edi
    c1ba:	e8 46 b4 ff ff       	callq  7605 <safe_sub_func_int32_t_s_s>
    c1bf:	0f b6 c0             	movzbl %al,%eax
    c1c2:	89 c7                	mov    %eax,%edi
    c1c4:	e8 7c b9 ff ff       	callq  7b45 <safe_unary_minus_func_uint8_t_u>
    c1c9:	48 8b 95 40 eb ff ff 	mov    -0x14c0(%rbp),%rdx
    c1d0:	48 8b 85 38 eb ff ff 	mov    -0x14c8(%rbp),%rax
    c1d7:	48 89 d6             	mov    %rdx,%rsi
    c1da:	48 89 c7             	mov    %rax,%rdi
    c1dd:	e8 d2 b7 ff ff       	callq  79b4 <safe_mod_func_int64_t_s_s>
    c1e2:	48 89 c2             	mov    %rax,%rdx
    c1e5:	48 b8 ec 6a 1d ee f9 	movabs $0xb55d59f9ee1d6aec,%rax
    c1ec:	59 5d b5 
    c1ef:	48 39 c2             	cmp    %rax,%rdx
    c1f2:	48 8b 05 4f 0a 01 00 	mov    0x10a4f(%rip),%rax        # 1cc48 <g_866>
    c1f9:	48 8b 00             	mov    (%rax),%rax
    c1fc:	8b 00                	mov    (%rax),%eax
    c1fe:	b8 01 00 00 00       	mov    $0x1,%eax
    c203:	0f b7 c0             	movzwl %ax,%eax
    c206:	44 89 e6             	mov    %r12d,%esi
    c209:	89 c7                	mov    %eax,%edi
    c20b:	e8 ef ba ff ff       	callq  7cff <safe_add_func_uint16_t_u_u>
    c210:	0f b6 c0             	movzbl %al,%eax
    c213:	89 de                	mov    %ebx,%esi
    c215:	89 c7                	mov    %eax,%edi
    c217:	e8 92 b9 ff ff       	callq  7bae <safe_mod_func_uint8_t_u_u>
    c21c:	0f b6 c0             	movzbl %al,%eax
    c21f:	48 8b 15 fa e0 00 00 	mov    0xe0fa(%rip),%rdx        # 1a320 <g_1070+0x20>
    c226:	89 c6                	mov    %eax,%esi
    c228:	89 d7                	mov    %edx,%edi
    c22a:	e8 a1 bc ff ff       	callq  7ed0 <safe_sub_func_uint32_t_u_u>
    c22f:	48 8b 85 00 ed ff ff 	mov    -0x1300(%rbp),%rax
    c236:	48 8b 95 f8 ec ff ff 	mov    -0x1308(%rbp),%rdx
    c23d:	48 89 10             	mov    %rdx,(%rax)
    c240:	48 8b 85 00 ed ff ff 	mov    -0x1300(%rbp),%rax
    c247:	48 8b 00             	mov    (%rax),%rax
    c24a:	48 39 85 d8 ec ff ff 	cmp    %rax,-0x1328(%rbp)
    c251:	0f 95 c0             	setne  %al
    c254:	0f b6 d0             	movzbl %al,%edx
    c257:	8b 85 ec ee ff ff    	mov    -0x1114(%rbp),%eax
    c25d:	39 c2                	cmp    %eax,%edx
    c25f:	0f 95 c0             	setne  %al
    c262:	0f b6 c0             	movzbl %al,%eax
    c265:	be 96 c4 ff ff       	mov    $0xffffc496,%esi
    c26a:	89 c7                	mov    %eax,%edi
    c26c:	e8 a5 b1 ff ff       	callq  7416 <safe_mod_func_int16_t_s_s>
    c271:	8b 95 ec ee ff ff    	mov    -0x1114(%rbp),%edx
    c277:	8b 85 48 eb ff ff    	mov    -0x14b8(%rbp),%eax
    c27d:	39 c2                	cmp    %eax,%edx
    c27f:	0f 9d c0             	setge  %al
    c282:	0f b6 d0             	movzbl %al,%edx
    c285:	48 8b 05 bc 03 01 00 	mov    0x103bc(%rip),%rax        # 1c648 <g_411>
    c28c:	48 8b 00             	mov    (%rax),%rax
    c28f:	48 8b 00             	mov    (%rax),%rax
    c292:	48 85 c0             	test   %rax,%rax
    c295:	0f 95 c0             	setne  %al
    c298:	0f b6 c0             	movzbl %al,%eax
    c29b:	39 85 e0 eb ff ff    	cmp    %eax,-0x1420(%rbp)
    c2a1:	0f 94 c0             	sete   %al
    c2a4:	0f b6 c0             	movzbl %al,%eax
    c2a7:	89 d6                	mov    %edx,%esi
    c2a9:	89 c7                	mov    %eax,%edi
    c2ab:	e8 e3 b8 ff ff       	callq  7b93 <safe_mul_func_uint8_t_u_u>
    c2b0:	8b 85 f0 ee ff ff    	mov    -0x1110(%rbp),%eax
    c2b6:	89 c2                	mov    %eax,%edx
    c2b8:	8b 85 4c eb ff ff    	mov    -0x14b4(%rbp),%eax
    c2be:	39 c2                	cmp    %eax,%edx
    c2c0:	0f 83 62 04 00 00    	jae    c728 <func_3+0x10a6>
    c2c6:	66 c7 85 6e eb ff ff 	movw   $0x1,-0x1492(%rbp)
    c2cd:	01 00 
    c2cf:	48 8d 85 e0 ed ff ff 	lea    -0x1220(%rbp),%rax
    c2d6:	48 83 c0 10          	add    $0x10,%rax
    c2da:	48 89 85 10 ed ff ff 	mov    %rax,-0x12f0(%rbp)
    c2e1:	48 8d 85 90 ed ff ff 	lea    -0x1270(%rbp),%rax
    c2e8:	48 83 c0 10          	add    $0x10,%rax
    c2ec:	48 89 85 18 ed ff ff 	mov    %rax,-0x12e8(%rbp)
    c2f3:	48 8d 85 5f eb ff ff 	lea    -0x14a1(%rbp),%rax
    c2fa:	48 89 85 20 ed ff ff 	mov    %rax,-0x12e0(%rbp)
    c301:	c7 85 78 eb ff ff 00 	movl   $0x0,-0x1488(%rbp)
    c308:	00 00 00 
    c30b:	eb 1e                	jmp    c32b <func_3+0xca9>
    c30d:	8b 85 78 eb ff ff    	mov    -0x1488(%rbp),%eax
    c313:	48 98                	cltq   
    c315:	48 8d 15 d0 df 00 00 	lea    0xdfd0(%rip),%rdx        # 1a2ec <g_835>
    c31c:	48 89 94 c5 30 ef ff 	mov    %rdx,-0x10d0(%rbp,%rax,8)
    c323:	ff 
    c324:	83 85 78 eb ff ff 01 	addl   $0x1,-0x1488(%rbp)
    c32b:	83 bd 78 eb ff ff 04 	cmpl   $0x4,-0x1488(%rbp)
    c332:	7e d9                	jle    c30d <func_3+0xc8b>
    c334:	81 bd e0 eb ff ff 7d 	cmpl   $0xaf7d,-0x1420(%rbp)
    c33b:	af 00 00 
    c33e:	0f 95 c0             	setne  %al
    c341:	44 0f b6 e0          	movzbl %al,%r12d
    c345:	48 83 bd 38 eb ff ff 	cmpq   $0x0,-0x14c8(%rbp)
    c34c:	00 
    c34d:	0f 95 c0             	setne  %al
    c350:	0f b6 c0             	movzbl %al,%eax
    c353:	be 0e 00 00 00       	mov    $0xe,%esi
    c358:	89 c7                	mov    %eax,%edi
    c35a:	e8 1b bb ff ff       	callq  7e7a <safe_rshift_func_uint16_t_u_u>
    c35f:	0f b6 c0             	movzbl %al,%eax
    c362:	89 c6                	mov    %eax,%esi
    c364:	bf b0 00 00 00       	mov    $0xb0,%edi
    c369:	e8 25 b8 ff ff       	callq  7b93 <safe_mul_func_uint8_t_u_u>
    c36e:	84 c0                	test   %al,%al
    c370:	74 08                	je     c37a <func_3+0xcf8>
    c372:	48 83 bd 08 ed ff ff 	cmpq   $0x0,-0x12f8(%rbp)
    c379:	00 
    c37a:	8b 9d e0 eb ff ff    	mov    -0x1420(%rbp),%ebx
    c380:	8b 85 48 eb ff ff    	mov    -0x14b8(%rbp),%eax
    c386:	89 c6                	mov    %eax,%esi
    c388:	bf 01 00 00 00       	mov    $0x1,%edi
    c38d:	e8 4f b1 ff ff       	callq  74e1 <safe_lshift_func_int16_t_s_u>
    c392:	0f b6 c0             	movzbl %al,%eax
    c395:	89 de                	mov    %ebx,%esi
    c397:	89 c7                	mov    %eax,%edi
    c399:	e8 ef b8 ff ff       	callq  7c8d <safe_rshift_func_uint8_t_u_s>
    c39e:	0f b6 d0             	movzbl %al,%edx
    c3a1:	8b 85 4c eb ff ff    	mov    -0x14b4(%rbp),%eax
    c3a7:	0f b7 c0             	movzwl %ax,%eax
    c3aa:	89 d6                	mov    %edx,%esi
    c3ac:	89 c7                	mov    %eax,%edi
    c3ae:	e8 a9 b9 ff ff       	callq  7d5c <safe_mod_func_uint16_t_u_u>
    c3b3:	0f b7 d0             	movzwl %ax,%edx
    c3b6:	8b 85 4c eb ff ff    	mov    -0x14b4(%rbp),%eax
    c3bc:	39 c2                	cmp    %eax,%edx
    c3be:	0f 95 c0             	setne  %al
    c3c1:	0f b6 c0             	movzbl %al,%eax
    c3c4:	89 c7                	mov    %eax,%edi
    c3c6:	e8 f4 ad ff ff       	callq  71bf <safe_unary_minus_func_int8_t_s>
    c3cb:	0f be c0             	movsbl %al,%eax
    c3ce:	41 39 c4             	cmp    %eax,%r12d
    c3d1:	0f 9f c0             	setg   %al
    c3d4:	0f b6 c0             	movzbl %al,%eax
    c3d7:	89 c2                	mov    %eax,%edx
    c3d9:	0f b7 85 6e eb ff ff 	movzwl -0x1492(%rbp),%eax
    c3e0:	31 d0                	xor    %edx,%eax
    c3e2:	66 89 85 6e eb ff ff 	mov    %ax,-0x1492(%rbp)
    c3e9:	48 8b 85 10 ed ff ff 	mov    -0x12f0(%rbp),%rax
    c3f0:	48 8d 95 48 eb ff ff 	lea    -0x14b8(%rbp),%rdx
    c3f7:	48 89 10             	mov    %rdx,(%rax)
    c3fa:	8b 85 ec ee ff ff    	mov    -0x1114(%rbp),%eax
    c400:	0f bf d8             	movswl %ax,%ebx
    c403:	48 8b 05 d6 08 01 00 	mov    0x108d6(%rip),%rax        # 1cce0 <g_1116>
    c40a:	be 05 00 00 00       	mov    $0x5,%esi
    c40f:	bf 01 00 00 00       	mov    $0x1,%edi
    c414:	e8 ec b7 ff ff       	callq  7c05 <safe_lshift_func_uint8_t_u_s>
    c419:	48 8b 85 18 ed ff ff 	mov    -0x12e8(%rbp),%rax
    c420:	66 c7 00 00 00       	movw   $0x0,(%rax)
    c425:	48 8b 85 18 ed ff ff 	mov    -0x12e8(%rbp),%rax
    c42c:	0f b7 00             	movzwl (%rax),%eax
    c42f:	98                   	cwtl   
    c430:	89 85 e8 eb ff ff    	mov    %eax,-0x1418(%rbp)
    c436:	8b 85 e8 eb ff ff    	mov    -0x1418(%rbp),%eax
    c43c:	98                   	cwtl   
    c43d:	be bd 9f ff ff       	mov    $0xffff9fbd,%esi
    c442:	89 c7                	mov    %eax,%edi
    c444:	e8 8a af ff ff       	callq  73d3 <safe_sub_func_int16_t_s_s>
    c449:	89 c2                	mov    %eax,%edx
    c44b:	8b 85 4c eb ff ff    	mov    -0x14b4(%rbp),%eax
    c451:	21 d0                	and    %edx,%eax
    c453:	98                   	cwtl   
    c454:	89 de                	mov    %ebx,%esi
    c456:	89 c7                	mov    %eax,%edi
    c458:	e8 56 af ff ff       	callq  73b3 <safe_add_func_int16_t_s_s>
    c45d:	48 0f bf c0          	movswq %ax,%rax
    c461:	48 0b 85 40 eb ff ff 	or     -0x14c0(%rbp),%rax
    c468:	48 85 c0             	test   %rax,%rax
    c46b:	74 10                	je     c47d <func_3+0xdfb>
    c46d:	83 bd e8 eb ff ff 00 	cmpl   $0x0,-0x1418(%rbp)
    c474:	74 07                	je     c47d <func_3+0xdfb>
    c476:	b8 01 00 00 00       	mov    $0x1,%eax
    c47b:	eb 05                	jmp    c482 <func_3+0xe00>
    c47d:	b8 00 00 00 00       	mov    $0x0,%eax
    c482:	85 c0                	test   %eax,%eax
    c484:	0f 9e c2             	setle  %dl
    c487:	48 8b 85 f8 eb ff ff 	mov    -0x1408(%rbp),%rax
    c48e:	0f b6 d2             	movzbl %dl,%edx
    c491:	48 89 10             	mov    %rdx,(%rax)
    c494:	be 01 00 00 00       	mov    $0x1,%esi
    c499:	bf 01 00 00 00       	mov    $0x1,%edi
    c49e:	e8 52 af ff ff       	callq  73f5 <safe_mul_func_int16_t_s_s>
    c4a3:	8b 85 e0 eb ff ff    	mov    -0x1420(%rbp),%eax
    c4a9:	48 39 85 38 eb ff ff 	cmp    %rax,-0x14c8(%rbp)
    c4b0:	0f 9c c0             	setl   %al
    c4b3:	0f b6 d0             	movzbl %al,%edx
    c4b6:	48 8b 85 20 ed ff ff 	mov    -0x12e0(%rbp),%rax
    c4bd:	0f b6 00             	movzbl (%rax),%eax
    c4c0:	89 c1                	mov    %eax,%ecx
    c4c2:	89 d0                	mov    %edx,%eax
    c4c4:	21 c8                	and    %ecx,%eax
    c4c6:	89 c2                	mov    %eax,%edx
    c4c8:	48 8b 85 20 ed ff ff 	mov    -0x12e0(%rbp),%rax
    c4cf:	88 10                	mov    %dl,(%rax)
    c4d1:	48 8b 85 20 ed ff ff 	mov    -0x12e0(%rbp),%rax
    c4d8:	0f b6 00             	movzbl (%rax),%eax
    c4db:	0f b6 c0             	movzbl %al,%eax
    c4de:	be 06 00 00 00       	mov    $0x6,%esi
    c4e3:	89 c7                	mov    %eax,%edi
    c4e5:	e8 1b b7 ff ff       	callq  7c05 <safe_lshift_func_uint8_t_u_s>
    c4ea:	0f b6 c0             	movzbl %al,%eax
    c4ed:	89 05 41 11 01 00    	mov    %eax,0x11141(%rip)        # 1d634 <g_139>
    c4f3:	8b 05 3b 11 01 00    	mov    0x1113b(%rip),%eax        # 1d634 <g_139>
    c4f9:	be ec bf ed e3       	mov    $0xe3edbfec,%esi
    c4fe:	89 c7                	mov    %eax,%edi
    c500:	e8 b3 b9 ff ff       	callq  7eb8 <safe_add_func_uint32_t_u_u>
    c505:	48 83 bd 38 eb ff ff 	cmpq   $0x1,-0x14c8(%rbp)
    c50c:	01 
    c50d:	0f 9e c0             	setle  %al
    c510:	0f b6 c0             	movzbl %al,%eax
    c513:	8b 95 e0 ee ff ff    	mov    -0x1120(%rbp),%edx
    c519:	31 d0                	xor    %edx,%eax
    c51b:	0f bf d0             	movswl %ax,%edx
    c51e:	8b 85 4c eb ff ff    	mov    -0x14b4(%rbp),%eax
    c524:	98                   	cwtl   
    c525:	89 d6                	mov    %edx,%esi
    c527:	89 c7                	mov    %eax,%edi
    c529:	e8 a5 ae ff ff       	callq  73d3 <safe_sub_func_int16_t_s_s>
    c52e:	66 85 c0             	test   %ax,%ax
    c531:	74 0b                	je     c53e <func_3+0xebc>
    c533:	8b 05 27 db 00 00    	mov    0xdb27(%rip),%eax        # 1a060 <g_94>
    c539:	e9 d9 25 00 00       	jmpq   eb17 <func_3+0x3495>
    c53e:	48 8d 05 2b 07 01 00 	lea    0x1072b(%rip),%rax        # 1cc70 <g_933+0x10>
    c545:	48 89 85 28 ed ff ff 	mov    %rax,-0x12d8(%rbp)
    c54c:	48 8d 05 0d 01 01 00 	lea    0x1010d(%rip),%rax        # 1c660 <g_563>
    c553:	48 89 85 18 ec ff ff 	mov    %rax,-0x13e8(%rbp)
    c55a:	48 8d 85 18 ec ff ff 	lea    -0x13e8(%rbp),%rax
    c561:	48 89 85 30 ed ff ff 	mov    %rax,-0x12d0(%rbp)
    c568:	48 c7 85 20 ec ff ff 	movq   $0x0,-0x13e0(%rbp)
    c56f:	00 00 00 00 
    c573:	48 c7 85 00 f0 ff ff 	movq   $0x0,-0x1000(%rbp)
    c57a:	00 00 00 00 
    c57e:	48 8d 85 20 ec ff ff 	lea    -0x13e0(%rbp),%rax
    c585:	48 89 85 08 f0 ff ff 	mov    %rax,-0xff8(%rbp)
    c58c:	48 c7 85 10 f0 ff ff 	movq   $0x0,-0xff0(%rbp)
    c593:	00 00 00 00 
    c597:	48 c7 85 18 f0 ff ff 	movq   $0x0,-0xfe8(%rbp)
    c59e:	00 00 00 00 
    c5a2:	48 8d 85 20 ec ff ff 	lea    -0x13e0(%rbp),%rax
    c5a9:	48 89 85 20 f0 ff ff 	mov    %rax,-0xfe0(%rbp)
    c5b0:	48 c7 85 28 f0 ff ff 	movq   $0x0,-0xfd8(%rbp)
    c5b7:	00 00 00 00 
    c5bb:	48 c7 85 30 f0 ff ff 	movq   $0x0,-0xfd0(%rbp)
    c5c2:	00 00 00 00 
    c5c6:	48 8d 85 20 ec ff ff 	lea    -0x13e0(%rbp),%rax
    c5cd:	48 89 85 38 f0 ff ff 	mov    %rax,-0xfc8(%rbp)
    c5d4:	48 c7 85 40 f0 ff ff 	movq   $0x0,-0xfc0(%rbp)
    c5db:	00 00 00 00 
    c5df:	48 c7 85 48 f0 ff ff 	movq   $0x0,-0xfb8(%rbp)
    c5e6:	00 00 00 00 
    c5ea:	48 8d 05 07 de 00 00 	lea    0xde07(%rip),%rax        # 1a3f8 <g_1070+0xf8>
    c5f1:	48 89 85 38 ed ff ff 	mov    %rax,-0x12c8(%rbp)
    c5f8:	c7 85 f4 eb ff ff 01 	movl   $0x1,-0x140c(%rbp)
    c5ff:	00 00 00 
    c602:	8b 85 f4 eb ff ff    	mov    -0x140c(%rbp),%eax
    c608:	0f b6 d8             	movzbl %al,%ebx
    c60b:	8b 85 ec ee ff ff    	mov    -0x1114(%rbp),%eax
    c611:	41 89 c4             	mov    %eax,%r12d
    c614:	8b 85 f4 eb ff ff    	mov    -0x140c(%rbp),%eax
    c61a:	0f bf d0             	movswl %ax,%edx
    c61d:	48 8b 85 28 ed ff ff 	mov    -0x12d8(%rbp),%rax
    c624:	48 8b 8d e8 ec ff ff 	mov    -0x1318(%rbp),%rcx
    c62b:	48 89 08             	mov    %rcx,(%rax)
    c62e:	48 8b 85 30 ed ff ff 	mov    -0x12d0(%rbp),%rax
    c635:	48 8d 0d 24 00 01 00 	lea    0x10024(%rip),%rcx        # 1c660 <g_563>
    c63c:	48 89 08             	mov    %rcx,(%rax)
    c63f:	48 8b 85 30 ed ff ff 	mov    -0x12d0(%rbp),%rax
    c646:	48 8b 00             	mov    (%rax),%rax
    c649:	48 89 85 60 f1 ff ff 	mov    %rax,-0xea0(%rbp)
    c650:	48 8b 85 38 ed ff ff 	mov    -0x12c8(%rbp),%rax
    c657:	48 b9 3f de 98 e3 ee 	movabs $0x8c4751eee398de3f,%rcx
    c65e:	51 47 8c 
    c661:	48 89 08             	mov    %rcx,(%rax)
    c664:	b8 01 00 00 00       	mov    $0x1,%eax
    c669:	48 98                	cltq   
    c66b:	48 23 85 08 ed ff ff 	and    -0x12f8(%rbp),%rax
    c672:	48 89 c1             	mov    %rax,%rcx
    c675:	48 8b 85 18 ed ff ff 	mov    -0x12e8(%rbp),%rax
    c67c:	0f b7 00             	movzwl (%rax),%eax
    c67f:	09 c1                	or     %eax,%ecx
    c681:	48 8b 85 18 ed ff ff 	mov    -0x12e8(%rbp),%rax
    c688:	66 89 08             	mov    %cx,(%rax)
    c68b:	48 8b 85 18 ed ff ff 	mov    -0x12e8(%rbp),%rax
    c692:	0f b7 00             	movzwl (%rax),%eax
    c695:	0f bf c8             	movswl %ax,%ecx
    c698:	8b 85 f0 ee ff ff    	mov    -0x1110(%rbp),%eax
    c69e:	39 c1                	cmp    %eax,%ecx
    c6a0:	0f 94 c0             	sete   %al
    c6a3:	0f b6 c0             	movzbl %al,%eax
    c6a6:	89 d6                	mov    %edx,%esi
    c6a8:	89 c7                	mov    %eax,%edi
    c6aa:	e8 04 ad ff ff       	callq  73b3 <safe_add_func_int16_t_s_s>
    c6af:	98                   	cwtl   
    c6b0:	be 02 00 00 00       	mov    $0x2,%esi
    c6b5:	89 c7                	mov    %eax,%edi
    c6b7:	e8 99 ad ff ff       	callq  7455 <safe_div_func_int16_t_s_s>
    c6bc:	48 0f bf d0          	movswq %ax,%rdx
    c6c0:	48 8d 05 79 ff 00 00 	lea    0xff79(%rip),%rax        # 1c640 <g_412>
    c6c7:	48 39 85 e0 ec ff ff 	cmp    %rax,-0x1320(%rbp)
    c6ce:	0f 95 c0             	setne  %al
    c6d1:	0f b6 c0             	movzbl %al,%eax
    c6d4:	48 89 d6             	mov    %rdx,%rsi
    c6d7:	48 89 c7             	mov    %rax,%rdi
    c6da:	e8 a1 b9 ff ff       	callq  8080 <safe_mod_func_uint64_t_u_u>
    c6df:	8b 85 48 eb ff ff    	mov    -0x14b8(%rbp),%eax
    c6e5:	85 c0                	test   %eax,%eax
    c6e7:	0f 95 c0             	setne  %al
    c6ea:	0f b6 c0             	movzbl %al,%eax
    c6ed:	44 89 e6             	mov    %r12d,%esi
    c6f0:	89 c7                	mov    %eax,%edi
    c6f2:	e8 d9 b7 ff ff       	callq  7ed0 <safe_sub_func_uint32_t_u_u>
    c6f7:	0f b6 c0             	movzbl %al,%eax
    c6fa:	89 de                	mov    %ebx,%esi
    c6fc:	89 c7                	mov    %eax,%edi
    c6fe:	e8 d8 b4 ff ff       	callq  7bdb <safe_div_func_uint8_t_u_u>
    c703:	b9 01 00 00 00       	mov    $0x1,%ecx
    c708:	48 8b 05 b9 05 01 00 	mov    0x105b9(%rip),%rax        # 1ccc8 <g_1119>
    c70f:	8b 10                	mov    (%rax),%edx
    c711:	48 8b 05 b0 05 01 00 	mov    0x105b0(%rip),%rax        # 1ccc8 <g_1119>
    c718:	09 ca                	or     %ecx,%edx
    c71a:	89 10                	mov    %edx,(%rax)
    c71c:	48 8b 85 38 eb ff ff 	mov    -0x14c8(%rbp),%rax
    c723:	e9 ef 23 00 00       	jmpq   eb17 <func_3+0x3495>
    c728:	66 c7 85 6c eb ff ff 	movw   $0x3410,-0x1494(%rbp)
    c72f:	10 34 
    c731:	c7 85 f0 eb ff ff 39 	movl   $0x81095739,-0x1410(%rbp)
    c738:	57 09 81 
    c73b:	66 c7 85 00 f0 ff ff 	movw   $0xefcd,-0x1000(%rbp)
    c742:	cd ef 
    c744:	66 c7 85 02 f0 ff ff 	movw   $0xefcd,-0xffe(%rbp)
    c74b:	cd ef 
    c74d:	66 c7 85 04 f0 ff ff 	movw   $0x5b7,-0xffc(%rbp)
    c754:	b7 05 
    c756:	66 c7 85 06 f0 ff ff 	movw   $0x9d4c,-0xffa(%rbp)
    c75d:	4c 9d 
    c75f:	66 c7 85 08 f0 ff ff 	movw   $0x2,-0xff8(%rbp)
    c766:	02 00 
    c768:	66 c7 85 0a f0 ff ff 	movw   $0x5b7,-0xff6(%rbp)
    c76f:	b7 05 
    c771:	66 c7 85 0c f0 ff ff 	movw   $0x2,-0xff4(%rbp)
    c778:	02 00 
    c77a:	66 c7 85 0e f0 ff ff 	movw   $0x9d4c,-0xff2(%rbp)
    c781:	4c 9d 
    c783:	66 c7 85 10 f0 ff ff 	movw   $0x0,-0xff0(%rbp)
    c78a:	00 00 
    c78c:	66 c7 85 12 f0 ff ff 	movw   $0x9d4c,-0xfee(%rbp)
    c793:	4c 9d 
    c795:	66 c7 85 14 f0 ff ff 	movw   $0x0,-0xfec(%rbp)
    c79c:	00 00 
    c79e:	66 c7 85 16 f0 ff ff 	movw   $0x1,-0xfea(%rbp)
    c7a5:	01 00 
    c7a7:	66 c7 85 18 f0 ff ff 	movw   $0x9d4c,-0xfe8(%rbp)
    c7ae:	4c 9d 
    c7b0:	66 c7 85 1a f0 ff ff 	movw   $0x4,-0xfe6(%rbp)
    c7b7:	04 00 
    c7b9:	66 c7 85 1c f0 ff ff 	movw   $0x4,-0xfe4(%rbp)
    c7c0:	04 00 
    c7c2:	66 c7 85 1e f0 ff ff 	movw   $0x9d4c,-0xfe2(%rbp)
    c7c9:	4c 9d 
    c7cb:	66 c7 85 20 f0 ff ff 	movw   $0x9d4c,-0xfe0(%rbp)
    c7d2:	4c 9d 
    c7d4:	66 c7 85 22 f0 ff ff 	movw   $0x4,-0xfde(%rbp)
    c7db:	04 00 
    c7dd:	66 c7 85 24 f0 ff ff 	movw   $0x4,-0xfdc(%rbp)
    c7e4:	04 00 
    c7e6:	66 c7 85 26 f0 ff ff 	movw   $0x9d4c,-0xfda(%rbp)
    c7ed:	4c 9d 
    c7ef:	66 c7 85 28 f0 ff ff 	movw   $0x1,-0xfd8(%rbp)
    c7f6:	01 00 
    c7f8:	66 c7 85 2a f0 ff ff 	movw   $0x0,-0xfd6(%rbp)
    c7ff:	00 00 
    c801:	66 c7 85 2c f0 ff ff 	movw   $0x9d4c,-0xfd4(%rbp)
    c808:	4c 9d 
    c80a:	66 c7 85 2e f0 ff ff 	movw   $0x0,-0xfd2(%rbp)
    c811:	00 00 
    c813:	66 c7 85 30 f0 ff ff 	movw   $0x9d4c,-0xfd0(%rbp)
    c81a:	4c 9d 
    c81c:	66 c7 85 32 f0 ff ff 	movw   $0x2,-0xfce(%rbp)
    c823:	02 00 
    c825:	66 c7 85 34 f0 ff ff 	movw   $0x5b7,-0xfcc(%rbp)
    c82c:	b7 05 
    c82e:	66 c7 85 36 f0 ff ff 	movw   $0x2,-0xfca(%rbp)
    c835:	02 00 
    c837:	66 c7 85 38 f0 ff ff 	movw   $0x9d4c,-0xfc8(%rbp)
    c83e:	4c 9d 
    c840:	66 c7 85 3a f0 ff ff 	movw   $0x5b7,-0xfc6(%rbp)
    c847:	b7 05 
    c849:	66 c7 85 3c f0 ff ff 	movw   $0xefcd,-0xfc4(%rbp)
    c850:	cd ef 
    c852:	66 c7 85 3e f0 ff ff 	movw   $0xefcd,-0xfc2(%rbp)
    c859:	cd ef 
    c85b:	c7 85 7c eb ff ff 00 	movl   $0x0,-0x1484(%rbp)
    c862:	00 00 00 
    c865:	eb 1a                	jmp    c881 <func_3+0x11ff>
    c867:	8b 85 7c eb ff ff    	mov    -0x1484(%rbp),%eax
    c86d:	48 98                	cltq   
    c86f:	c7 84 85 30 ef ff ff 	movl   $0x9,-0x10d0(%rbp,%rax,4)
    c876:	09 00 00 00 
    c87a:	83 85 7c eb ff ff 01 	addl   $0x1,-0x1484(%rbp)
    c881:	83 bd 7c eb ff ff 02 	cmpl   $0x2,-0x1484(%rbp)
    c888:	7e dd                	jle    c867 <func_3+0x11e5>
    c88a:	c6 85 5f eb ff ff e7 	movb   $0xe7,-0x14a1(%rbp)
    c891:	90                   	nop
    c892:	0f b6 85 5f eb ff ff 	movzbl -0x14a1(%rbp),%eax
    c899:	3c 26                	cmp    $0x26,%al
    c89b:	77 52                	ja     c8ef <func_3+0x126d>
    c89d:	c6 85 65 eb ff ff f8 	movb   $0xf8,-0x149b(%rbp)
    c8a4:	48 8b 15 1d 04 01 00 	mov    0x1041d(%rip),%rdx        # 1ccc8 <g_1119>
    c8ab:	48 8b 05 16 04 01 00 	mov    0x10416(%rip),%rax        # 1ccc8 <g_1119>
    c8b2:	8b 12                	mov    (%rdx),%edx
    c8b4:	89 10                	mov    %edx,(%rax)
    c8b6:	48 c7 05 1f da 00 00 	movq   $0x0,0xda1f(%rip)        # 1a2e0 <g_590>
    c8bd:	00 00 00 00 
    c8c1:	90                   	nop
    c8c2:	48 8b 05 17 da 00 00 	mov    0xda17(%rip),%rax        # 1a2e0 <g_590>
    c8c9:	48 83 f8 31          	cmp    $0x31,%rax
    c8cd:	75 15                	jne    c8e4 <func_3+0x1262>
    c8cf:	80 bd 65 eb ff ff 00 	cmpb   $0x0,-0x149b(%rbp)
    c8d6:	75 0b                	jne    c8e3 <func_3+0x1261>
    c8d8:	8b 05 56 0d 01 00    	mov    0x10d56(%rip),%eax        # 1d634 <g_139>
    c8de:	e9 34 22 00 00       	jmpq   eb17 <func_3+0x3495>
    c8e3:	90                   	nop
    c8e4:	8b 85 4c eb ff ff    	mov    -0x14b4(%rbp),%eax
    c8ea:	e9 28 22 00 00       	jmpq   eb17 <func_3+0x3495>
    c8ef:	83 85 ec eb ff ff 01 	addl   $0x1,-0x1414(%rbp)
    c8f6:	c7 85 4c eb ff ff 00 	movl   $0x0,-0x14b4(%rbp)
    c8fd:	00 00 00 
    c900:	eb 1f                	jmp    c921 <func_3+0x129f>
    c902:	0f b7 85 10 f0 ff ff 	movzwl -0xff0(%rbp),%eax
    c909:	0f b7 c0             	movzwl %ax,%eax
    c90c:	89 85 48 eb ff ff    	mov    %eax,-0x14b8(%rbp)
    c912:	8b 85 4c eb ff ff    	mov    -0x14b4(%rbp),%eax
    c918:	83 c0 01             	add    $0x1,%eax
    c91b:	89 85 4c eb ff ff    	mov    %eax,-0x14b4(%rbp)
    c921:	8b 85 4c eb ff ff    	mov    -0x14b4(%rbp),%eax
    c927:	85 c0                	test   %eax,%eax
    c929:	74 d7                	je     c902 <func_3+0x1280>
    c92b:	48 8b 05 96 03 01 00 	mov    0x10396(%rip),%rax        # 1ccc8 <g_1119>
    c932:	c7 00 7e 2a 56 a7    	movl   $0xa7562a7e,(%rax)
    c938:	e9 d0 21 00 00       	jmpq   eb0d <func_3+0x348b>
    c93d:	c7 85 80 ef ff ff 61 	movl   $0x5c946361,-0x1080(%rbp)
    c944:	63 94 5c 
    c947:	c7 85 84 ef ff ff ff 	movl   $0xffffffff,-0x107c(%rbp)
    c94e:	ff ff ff 
    c951:	c7 85 88 ef ff ff 00 	movl   $0x0,-0x1078(%rbp)
    c958:	00 00 00 
    c95b:	c7 85 8c ef ff ff bf 	movl   $0x2b95a6bf,-0x1074(%rbp)
    c962:	a6 95 2b 
    c965:	c7 85 90 ef ff ff 61 	movl   $0x5c946361,-0x1070(%rbp)
    c96c:	63 94 5c 
    c96f:	c7 85 94 ef ff ff fb 	movl   $0xfffffffb,-0x106c(%rbp)
    c976:	ff ff ff 
    c979:	c7 85 98 ef ff ff 00 	movl   $0x0,-0x1068(%rbp)
    c980:	00 00 00 
    c983:	c7 85 9c ef ff ff 00 	movl   $0x0,-0x1064(%rbp)
    c98a:	00 00 00 
    c98d:	c7 85 a0 ef ff ff fb 	movl   $0xfffffffb,-0x1060(%rbp)
    c994:	ff ff ff 
    c997:	c7 85 a4 ef ff ff 00 	movl   $0x0,-0x105c(%rbp)
    c99e:	00 00 00 
    c9a1:	c7 85 a8 ef ff ff 61 	movl   $0x5c946361,-0x1058(%rbp)
    c9a8:	63 94 5c 
    c9ab:	c7 85 ac ef ff ff ff 	movl   $0xffffffff,-0x1054(%rbp)
    c9b2:	ff ff ff 
    c9b5:	c7 85 b0 ef ff ff f7 	movl   $0xfffffff7,-0x1050(%rbp)
    c9bc:	ff ff ff 
    c9bf:	c7 85 b4 ef ff ff ff 	movl   $0xffffffff,-0x104c(%rbp)
    c9c6:	ff ff ff 
    c9c9:	c7 85 b8 ef ff ff 61 	movl   $0x5c946361,-0x1048(%rbp)
    c9d0:	63 94 5c 
    c9d3:	c7 85 bc ef ff ff 00 	movl   $0x0,-0x1044(%rbp)
    c9da:	00 00 00 
    c9dd:	c7 85 c0 ef ff ff fb 	movl   $0xfffffffb,-0x1040(%rbp)
    c9e4:	ff ff ff 
    c9e7:	c7 85 c4 ef ff ff 00 	movl   $0x0,-0x103c(%rbp)
    c9ee:	00 00 00 
    c9f1:	c7 85 c8 ef ff ff 00 	movl   $0x0,-0x1038(%rbp)
    c9f8:	00 00 00 
    c9fb:	c7 85 cc ef ff ff fb 	movl   $0xfffffffb,-0x1034(%rbp)
    ca02:	ff ff ff 
    ca05:	c7 85 d0 ef ff ff 61 	movl   $0x5c946361,-0x1030(%rbp)
    ca0c:	63 94 5c 
    ca0f:	c7 85 d4 ef ff ff bf 	movl   $0x2b95a6bf,-0x102c(%rbp)
    ca16:	a6 95 2b 
    ca19:	c7 85 d8 ef ff ff 00 	movl   $0x0,-0x1028(%rbp)
    ca20:	00 00 00 
    ca23:	c7 85 dc ef ff ff ff 	movl   $0xffffffff,-0x1024(%rbp)
    ca2a:	ff ff ff 
    ca2d:	c7 85 e0 ef ff ff 00 	movl   $0x0,-0x1020(%rbp)
    ca34:	00 00 00 
    ca37:	c7 85 e4 ef ff ff fb 	movl   $0xfffffffb,-0x101c(%rbp)
    ca3e:	ff ff ff 
    ca41:	c7 85 e8 ef ff ff fb 	movl   $0xfffffffb,-0x1018(%rbp)
    ca48:	ff ff ff 
    ca4b:	c7 85 ec ef ff ff 01 	movl   $0x1,-0x1014(%rbp)
    ca52:	00 00 00 
    ca55:	c7 85 f0 ef ff ff fb 	movl   $0xfffffffb,-0x1010(%rbp)
    ca5c:	ff ff ff 
    ca5f:	c7 85 f4 ef ff ff fb 	movl   $0xfffffffb,-0x100c(%rbp)
    ca66:	ff ff ff 
    ca69:	c7 85 94 eb ff ff 01 	movl   $0x1,-0x146c(%rbp)
    ca70:	00 00 00 
    ca73:	c7 85 50 ed ff ff fe 	movl   $0xfffffffe,-0x12b0(%rbp)
    ca7a:	ff ff ff 
    ca7d:	c7 85 54 ed ff ff 03 	movl   $0x56be3a03,-0x12ac(%rbp)
    ca84:	3a be 56 
    ca87:	c7 85 58 ed ff ff fe 	movl   $0xfffffffe,-0x12a8(%rbp)
    ca8e:	ff ff ff 
    ca91:	c7 85 5c ed ff ff fe 	movl   $0xfffffffe,-0x12a4(%rbp)
    ca98:	ff ff ff 
    ca9b:	c7 85 60 ed ff ff 03 	movl   $0x56be3a03,-0x12a0(%rbp)
    caa2:	3a be 56 
    caa5:	c7 85 64 ed ff ff fe 	movl   $0xfffffffe,-0x129c(%rbp)
    caac:	ff ff ff 
    caaf:	c7 85 98 eb ff ff 00 	movl   $0x0,-0x1468(%rbp)
    cab6:	00 00 00 
    cab9:	c7 85 74 eb ff ff 00 	movl   $0x0,-0x148c(%rbp)
    cac0:	00 00 00 
    cac3:	66 c7 85 68 eb ff ff 	movw   $0x3702,-0x1498(%rbp)
    caca:	02 37 
    cacc:	48 c7 85 48 ec ff ff 	movq   $0x0,-0x13b8(%rbp)
    cad3:	00 00 00 00 
    cad7:	48 c7 85 50 ec ff ff 	movq   $0x0,-0x13b0(%rbp)
    cade:	00 00 00 00 
    cae2:	48 c7 85 00 ec ff ff 	movq   $0x0,-0x1400(%rbp)
    cae9:	00 00 00 00 
    caed:	48 8d 85 00 ec ff ff 	lea    -0x1400(%rbp),%rax
    caf4:	48 89 85 08 ec ff ff 	mov    %rax,-0x13f8(%rbp)
    cafb:	48 8d 85 08 ec ff ff 	lea    -0x13f8(%rbp),%rax
    cb02:	48 89 85 10 ec ff ff 	mov    %rax,-0x13f0(%rbp)
    cb09:	48 8d 85 c0 f0 ff ff 	lea    -0xf40(%rbp),%rax
    cb10:	48 8d 15 e9 de 00 00 	lea    0xdee9(%rip),%rdx        # 1aa00 <g_1579+0x3b4>
    cb17:	b9 f0 00 00 00       	mov    $0xf0,%ecx
    cb1c:	48 89 c7             	mov    %rax,%rdi
    cb1f:	48 89 d6             	mov    %rdx,%rsi
    cb22:	f3 48 a5             	rep movsq %ds:(%rsi),%es:(%rdi)
    cb25:	c6 85 61 eb ff ff 1e 	movb   $0x1e,-0x149f(%rbp)
    cb2c:	48 8d 05 b9 d7 00 00 	lea    0xd7b9(%rip),%rax        # 1a2ec <g_835>
    cb33:	48 89 85 90 ee ff ff 	mov    %rax,-0x1170(%rbp)
    cb3a:	48 8d 05 ab d7 00 00 	lea    0xd7ab(%rip),%rax        # 1a2ec <g_835>
    cb41:	48 89 85 98 ee ff ff 	mov    %rax,-0x1168(%rbp)
    cb48:	48 8d 05 9d d7 00 00 	lea    0xd79d(%rip),%rax        # 1a2ec <g_835>
    cb4f:	48 89 85 a0 ee ff ff 	mov    %rax,-0x1160(%rbp)
    cb56:	48 8d 05 8f d7 00 00 	lea    0xd78f(%rip),%rax        # 1a2ec <g_835>
    cb5d:	48 89 85 a8 ee ff ff 	mov    %rax,-0x1158(%rbp)
    cb64:	48 8d 05 81 d7 00 00 	lea    0xd781(%rip),%rax        # 1a2ec <g_835>
    cb6b:	48 89 85 b0 ee ff ff 	mov    %rax,-0x1150(%rbp)
    cb72:	48 8d 05 73 d7 00 00 	lea    0xd773(%rip),%rax        # 1a2ec <g_835>
    cb79:	48 89 85 b8 ee ff ff 	mov    %rax,-0x1148(%rbp)
    cb80:	48 8d 05 65 d7 00 00 	lea    0xd765(%rip),%rax        # 1a2ec <g_835>
    cb87:	48 89 85 c0 ee ff ff 	mov    %rax,-0x1140(%rbp)
    cb8e:	48 8d 05 57 d7 00 00 	lea    0xd757(%rip),%rax        # 1a2ec <g_835>
    cb95:	48 89 85 c8 ee ff ff 	mov    %rax,-0x1138(%rbp)
    cb9c:	48 8d 05 49 d7 00 00 	lea    0xd749(%rip),%rax        # 1a2ec <g_835>
    cba3:	48 89 85 d0 ee ff ff 	mov    %rax,-0x1130(%rbp)
    cbaa:	83 bd 90 eb ff ff 00 	cmpl   $0x0,-0x1470(%rbp)
    cbb1:	0f 84 55 02 00 00    	je     ce0c <func_3+0x178a>
    cbb7:	c7 85 b4 eb ff ff ee 	movl   $0x470490ee,-0x144c(%rbp)
    cbbe:	90 04 47 
    cbc1:	c6 85 63 eb ff ff 01 	movb   $0x1,-0x149d(%rbp)
    cbc8:	48 c7 85 40 eb ff ff 	movq   $0x1,-0x14c0(%rbp)
    cbcf:	01 00 00 00 
    cbd3:	48 83 bd 40 eb ff ff 	cmpq   $0x0,-0x14c0(%rbp)
    cbda:	00 
    cbdb:	78 28                	js     cc05 <func_3+0x1583>
    cbdd:	48 c7 85 c0 ec ff ff 	movq   $0xfffffffffffffffc,-0x1340(%rbp)
    cbe4:	fc ff ff ff 
    cbe8:	48 8b 05 41 01 01 00 	mov    0x10141(%rip),%rax        # 1cd30 <g_1165>
    cbef:	48 8b 15 4a 0a 01 00 	mov    0x10a4a(%rip),%rdx        # 1d640 <g_391>
    cbf6:	48 89 10             	mov    %rdx,(%rax)
    cbf9:	48 8b 85 c0 ec ff ff 	mov    -0x1340(%rbp),%rax
    cc00:	e9 12 1f 00 00       	jmpq   eb17 <func_3+0x3495>
    cc05:	48 c7 85 38 eb ff ff 	movq   $0xfffffffffffffffb,-0x14c8(%rbp)
    cc0c:	fb ff ff ff 
    cc10:	e9 5a 01 00 00       	jmpq   cd6f <func_3+0x16ed>
    cc15:	c6 85 64 eb ff ff 01 	movb   $0x1,-0x149c(%rbp)
    cc1c:	c7 85 40 f8 ff ff 4c 	movl   $0x872f554c,-0x7c0(%rbp)
    cc23:	55 2f 87 
    cc26:	c7 85 44 f8 ff ff 4c 	movl   $0x872f554c,-0x7bc(%rbp)
    cc2d:	55 2f 87 
    cc30:	c7 85 48 f8 ff ff 01 	movl   $0x1,-0x7b8(%rbp)
    cc37:	00 00 00 
    cc3a:	c7 85 4c f8 ff ff fe 	movl   $0xfffffffe,-0x7b4(%rbp)
    cc41:	ff ff ff 
    cc44:	c7 85 50 f8 ff ff 04 	movl   $0x4,-0x7b0(%rbp)
    cc4b:	00 00 00 
    cc4e:	c7 85 54 f8 ff ff fe 	movl   $0xfffffffe,-0x7ac(%rbp)
    cc55:	ff ff ff 
    cc58:	c7 85 58 f8 ff ff 01 	movl   $0x1,-0x7a8(%rbp)
    cc5f:	00 00 00 
    cc62:	c7 85 5c f8 ff ff 4c 	movl   $0x872f554c,-0x7a4(%rbp)
    cc69:	55 2f 87 
    cc6c:	c7 85 60 f8 ff ff 4c 	movl   $0x872f554c,-0x7a0(%rbp)
    cc73:	55 2f 87 
    cc76:	c7 85 64 f8 ff ff 01 	movl   $0x1,-0x79c(%rbp)
    cc7d:	00 00 00 
    cc80:	c7 85 68 f8 ff ff 75 	movl   $0xe8610475,-0x798(%rbp)
    cc87:	04 61 e8 
    cc8a:	c7 85 6c f8 ff ff fe 	movl   $0xfffffffe,-0x794(%rbp)
    cc91:	ff ff ff 
    cc94:	c7 85 70 f8 ff ff 1a 	movl   $0xaa2bd21a,-0x790(%rbp)
    cc9b:	d2 2b aa 
    cc9e:	c7 85 74 f8 ff ff 1a 	movl   $0xaa2bd21a,-0x78c(%rbp)
    cca5:	d2 2b aa 
    cca8:	c7 85 78 f8 ff ff fe 	movl   $0xfffffffe,-0x788(%rbp)
    ccaf:	ff ff ff 
    ccb2:	c7 85 7c f8 ff ff 75 	movl   $0xe8610475,-0x784(%rbp)
    ccb9:	04 61 e8 
    ccbc:	c7 85 80 f8 ff ff 01 	movl   $0x1,-0x780(%rbp)
    ccc3:	00 00 00 
    ccc6:	c7 85 84 f8 ff ff 75 	movl   $0xe8610475,-0x77c(%rbp)
    cccd:	04 61 e8 
    ccd0:	c7 85 88 f8 ff ff fe 	movl   $0xfffffffe,-0x778(%rbp)
    ccd7:	ff ff ff 
    ccda:	c7 85 8c f8 ff ff 1a 	movl   $0xaa2bd21a,-0x774(%rbp)
    cce1:	d2 2b aa 
    cce4:	c7 85 90 f8 ff ff ff 	movl   $0xffffffff,-0x770(%rbp)
    cceb:	ff ff ff 
    ccee:	c7 85 94 f8 ff ff 4c 	movl   $0x872f554c,-0x76c(%rbp)
    ccf5:	55 2f 87 
    ccf8:	c7 85 98 f8 ff ff ff 	movl   $0xffffffff,-0x768(%rbp)
    ccff:	ff ff ff 
    cd02:	c7 85 9c f8 ff ff 1a 	movl   $0xaa2bd21a,-0x764(%rbp)
    cd09:	d2 2b aa 
    cd0c:	c7 85 a0 f8 ff ff 01 	movl   $0x1,-0x760(%rbp)
    cd13:	00 00 00 
    cd16:	c7 85 a4 f8 ff ff 01 	movl   $0x1,-0x75c(%rbp)
    cd1d:	00 00 00 
    cd20:	c7 85 a8 f8 ff ff 1a 	movl   $0xaa2bd21a,-0x758(%rbp)
    cd27:	d2 2b aa 
    cd2a:	c7 85 ac f8 ff ff ff 	movl   $0xffffffff,-0x754(%rbp)
    cd31:	ff ff ff 
    cd34:	c7 85 b0 f8 ff ff 4c 	movl   $0x872f554c,-0x750(%rbp)
    cd3b:	55 2f 87 
    cd3e:	c7 85 b4 f8 ff ff ff 	movl   $0xffffffff,-0x74c(%rbp)
    cd45:	ff ff ff 
    cd48:	48 83 85 28 ec ff ff 	addq   $0x1,-0x13d8(%rbp)
    cd4f:	01 
    cd50:	48 8b 85 38 eb ff ff 	mov    -0x14c8(%rbp),%rax
    cd57:	98                   	cwtl   
    cd58:	be 09 00 00 00       	mov    $0x9,%esi
    cd5d:	89 c7                	mov    %eax,%edi
    cd5f:	e8 4f a6 ff ff       	callq  73b3 <safe_add_func_int16_t_s_s>
    cd64:	48 0f bf c0          	movswq %ax,%rax
    cd68:	48 89 85 38 eb ff ff 	mov    %rax,-0x14c8(%rbp)
    cd6f:	48 83 bd 38 eb ff ff 	cmpq   $0x8,-0x14c8(%rbp)
    cd76:	08 
    cd77:	0f 8e 98 fe ff ff    	jle    cc15 <func_3+0x1593>
    cd7d:	8b 85 58 ed ff ff    	mov    -0x12a8(%rbp),%eax
    cd83:	0f be d8             	movsbl %al,%ebx
    cd86:	8b 85 b4 eb ff ff    	mov    -0x144c(%rbp),%eax
    cd8c:	89 c6                	mov    %eax,%esi
    cd8e:	bf 01 00 00 00       	mov    $0x1,%edi
    cd93:	e8 26 b0 ff ff       	callq  7dbe <safe_lshift_func_uint16_t_u_s>
    cd98:	0f b7 c0             	movzwl %ax,%eax
    cd9b:	48 39 85 40 eb ff ff 	cmp    %rax,-0x14c0(%rbp)
    cda2:	0f 9d c0             	setge  %al
    cda5:	0f b6 d0             	movzbl %al,%edx
    cda8:	8b 05 42 d5 00 00    	mov    0xd542(%rip),%eax        # 1a2f0 <g_868>
    cdae:	39 c2                	cmp    %eax,%edx
    cdb0:	0f 97 c0             	seta   %al
    cdb3:	0f b6 c0             	movzbl %al,%eax
    cdb6:	48 39 85 40 eb ff ff 	cmp    %rax,-0x14c0(%rbp)
    cdbd:	0f 9d c0             	setge  %al
    cdc0:	0f b6 d0             	movzbl %al,%edx
    cdc3:	8b 85 48 eb ff ff    	mov    -0x14b8(%rbp),%eax
    cdc9:	39 c2                	cmp    %eax,%edx
    cdcb:	0f 9f c0             	setg   %al
    cdce:	0f b6 c0             	movzbl %al,%eax
    cdd1:	89 c6                	mov    %eax,%esi
    cdd3:	bf 01 00 00 00       	mov    $0x1,%edi
    cdd8:	e8 15 a4 ff ff       	callq  71f2 <safe_sub_func_int8_t_s_s>
    cddd:	0f be c0             	movsbl %al,%eax
    cde0:	89 de                	mov    %ebx,%esi
    cde2:	89 c7                	mov    %eax,%edi
    cde4:	e8 81 a4 ff ff       	callq  726a <safe_div_func_int8_t_s_s>
    cde9:	88 85 63 eb ff ff    	mov    %al,-0x149d(%rbp)
    cdef:	0f b6 85 63 eb ff ff 	movzbl -0x149d(%rbp),%eax
    cdf6:	0f be d0             	movsbl %al,%edx
    cdf9:	8b 05 01 d8 00 00    	mov    0xd801(%rip),%eax        # 1a600 <g_1155>
    cdff:	31 d0                	xor    %edx,%eax
    ce01:	89 05 f9 d7 00 00    	mov    %eax,0xd7f9(%rip)        # 1a600 <g_1155>
    ce07:	e9 38 18 00 00       	jmpq   e644 <func_3+0x2fc2>
    ce0c:	c7 85 00 f0 ff ff fe 	movl   $0xfffffffe,-0x1000(%rbp)
    ce13:	ff ff ff 
    ce16:	c7 85 04 f0 ff ff 05 	movl   $0x5,-0xffc(%rbp)
    ce1d:	00 00 00 
    ce20:	c7 85 08 f0 ff ff 00 	movl   $0x0,-0xff8(%rbp)
    ce27:	00 00 00 
    ce2a:	c7 85 0c f0 ff ff 05 	movl   $0x5,-0xff4(%rbp)
    ce31:	00 00 00 
    ce34:	c7 85 10 f0 ff ff fe 	movl   $0xfffffffe,-0xff0(%rbp)
    ce3b:	ff ff ff 
    ce3e:	c7 85 14 f0 ff ff fe 	movl   $0xfffffffe,-0xfec(%rbp)
    ce45:	ff ff ff 
    ce48:	c7 85 18 f0 ff ff 05 	movl   $0x5,-0xfe8(%rbp)
    ce4f:	00 00 00 
    ce52:	c7 85 1c f0 ff ff 00 	movl   $0x0,-0xfe4(%rbp)
    ce59:	00 00 00 
    ce5c:	c7 85 20 f0 ff ff fe 	movl   $0xfffffffe,-0xfe0(%rbp)
    ce63:	ff ff ff 
    ce66:	c7 85 24 f0 ff ff fe 	movl   $0xfffffffe,-0xfdc(%rbp)
    ce6d:	ff ff ff 
    ce70:	c7 85 28 f0 ff ff 05 	movl   $0x5,-0xfd8(%rbp)
    ce77:	00 00 00 
    ce7a:	c7 85 2c f0 ff ff 00 	movl   $0x0,-0xfd4(%rbp)
    ce81:	00 00 00 
    ce84:	c7 85 30 f0 ff ff 05 	movl   $0x5,-0xfd0(%rbp)
    ce8b:	00 00 00 
    ce8e:	c7 85 34 f0 ff ff fe 	movl   $0xfffffffe,-0xfcc(%rbp)
    ce95:	ff ff ff 
    ce98:	c7 85 38 f0 ff ff fe 	movl   $0xfffffffe,-0xfc8(%rbp)
    ce9f:	ff ff ff 
    cea2:	c7 85 3c f0 ff ff 05 	movl   $0x5,-0xfc4(%rbp)
    cea9:	00 00 00 
    ceac:	c7 85 40 f0 ff ff 3a 	movl   $0x4989473a,-0xfc0(%rbp)
    ceb3:	47 89 49 
    ceb6:	c7 85 44 f0 ff ff 05 	movl   $0x5,-0xfbc(%rbp)
    cebd:	00 00 00 
    cec0:	c7 85 48 f0 ff ff 05 	movl   $0x5,-0xfb8(%rbp)
    cec7:	00 00 00 
    ceca:	c7 85 4c f0 ff ff 3a 	movl   $0x4989473a,-0xfb4(%rbp)
    ced1:	47 89 49 
    ced4:	c7 85 50 f0 ff ff c4 	movl   $0x1c9a67c4,-0xfb0(%rbp)
    cedb:	67 9a 1c 
    cede:	c7 85 54 f0 ff ff 3a 	movl   $0x4989473a,-0xfac(%rbp)
    cee5:	47 89 49 
    cee8:	c7 85 58 f0 ff ff 05 	movl   $0x5,-0xfa8(%rbp)
    ceef:	00 00 00 
    cef2:	c7 85 5c f0 ff ff 05 	movl   $0x5,-0xfa4(%rbp)
    cef9:	00 00 00 
    cefc:	c7 85 60 f0 ff ff 05 	movl   $0x5,-0xfa0(%rbp)
    cf03:	00 00 00 
    cf06:	c7 85 64 f0 ff ff c4 	movl   $0x1c9a67c4,-0xf9c(%rbp)
    cf0d:	67 9a 1c 
    cf10:	c7 85 68 f0 ff ff 00 	movl   $0x0,-0xf98(%rbp)
    cf17:	00 00 00 
    cf1a:	c7 85 6c f0 ff ff 00 	movl   $0x0,-0xf94(%rbp)
    cf21:	00 00 00 
    cf24:	c7 85 70 f0 ff ff c4 	movl   $0x1c9a67c4,-0xf90(%rbp)
    cf2b:	67 9a 1c 
    cf2e:	c7 85 74 f0 ff ff 05 	movl   $0x5,-0xf8c(%rbp)
    cf35:	00 00 00 
    cf38:	c7 85 78 f0 ff ff c4 	movl   $0x1c9a67c4,-0xf88(%rbp)
    cf3f:	67 9a 1c 
    cf42:	c7 85 7c f0 ff ff 00 	movl   $0x0,-0xf84(%rbp)
    cf49:	00 00 00 
    cf4c:	c7 85 80 f0 ff ff 3a 	movl   $0x4989473a,-0xf80(%rbp)
    cf53:	47 89 49 
    cf56:	c7 85 84 f0 ff ff c4 	movl   $0x1c9a67c4,-0xf7c(%rbp)
    cf5d:	67 9a 1c 
    cf60:	c7 85 88 f0 ff ff 3a 	movl   $0x4989473a,-0xf78(%rbp)
    cf67:	47 89 49 
    cf6a:	c7 85 8c f0 ff ff 05 	movl   $0x5,-0xf74(%rbp)
    cf71:	00 00 00 
    cf74:	c7 85 90 f0 ff ff 05 	movl   $0x5,-0xf70(%rbp)
    cf7b:	00 00 00 
    cf7e:	c7 85 94 f0 ff ff 3a 	movl   $0x4989473a,-0xf6c(%rbp)
    cf85:	47 89 49 
    cf88:	c7 85 98 f0 ff ff c4 	movl   $0x1c9a67c4,-0xf68(%rbp)
    cf8f:	67 9a 1c 
    cf92:	c7 85 9c f0 ff ff 3a 	movl   $0x4989473a,-0xf64(%rbp)
    cf99:	47 89 49 
    cf9c:	c7 85 a0 f0 ff ff fe 	movl   $0xfffffffe,-0xf60(%rbp)
    cfa3:	ff ff ff 
    cfa6:	c7 85 a4 f0 ff ff 05 	movl   $0x5,-0xf5c(%rbp)
    cfad:	00 00 00 
    cfb0:	c7 85 a8 f0 ff ff 00 	movl   $0x0,-0xf58(%rbp)
    cfb7:	00 00 00 
    cfba:	c7 85 ac f0 ff ff 05 	movl   $0x5,-0xf54(%rbp)
    cfc1:	00 00 00 
    cfc4:	c7 85 b0 f0 ff ff fe 	movl   $0xfffffffe,-0xf50(%rbp)
    cfcb:	ff ff ff 
    cfce:	c7 85 b4 f0 ff ff fe 	movl   $0xfffffffe,-0xf4c(%rbp)
    cfd5:	ff ff ff 
    cfd8:	c7 85 b8 f0 ff ff 05 	movl   $0x5,-0xf48(%rbp)
    cfdf:	00 00 00 
    cfe2:	c7 85 bc f0 ff ff 00 	movl   $0x0,-0xf44(%rbp)
    cfe9:	00 00 00 
    cfec:	c6 85 62 eb ff ff 07 	movb   $0x7,-0x149e(%rbp)
    cff3:	48 8d 05 3e d2 00 00 	lea    0xd23e(%rip),%rax        # 1a238 <g_107+0x18>
    cffa:	48 89 85 58 ec ff ff 	mov    %rax,-0x13a8(%rbp)
    d001:	48 c7 85 e0 ee ff ff 	movq   $0x0,-0x1120(%rbp)
    d008:	00 00 00 00 
    d00c:	48 c7 85 e8 ee ff ff 	movq   $0x0,-0x1118(%rbp)
    d013:	00 00 00 00 
    d017:	48 c7 85 f0 ee ff ff 	movq   $0x0,-0x1110(%rbp)
    d01e:	00 00 00 00 
    d022:	48 c7 85 f8 ee ff ff 	movq   $0x0,-0x1108(%rbp)
    d029:	00 00 00 00 
    d02d:	48 c7 85 00 ef ff ff 	movq   $0x0,-0x1100(%rbp)
    d034:	00 00 00 00 
    d038:	48 c7 85 08 ef ff ff 	movq   $0x0,-0x10f8(%rbp)
    d03f:	00 00 00 00 
    d043:	48 c7 85 10 ef ff ff 	movq   $0x0,-0x10f0(%rbp)
    d04a:	00 00 00 00 
    d04e:	48 c7 85 18 ef ff ff 	movq   $0x0,-0x10e8(%rbp)
    d055:	00 00 00 00 
    d059:	48 c7 85 20 ef ff ff 	movq   $0x0,-0x10e0(%rbp)
    d060:	00 00 00 00 
    d064:	48 c7 85 28 ef ff ff 	movq   $0x0,-0x10d8(%rbp)
    d06b:	00 00 00 00 
    d06f:	48 8d 05 9a ec 00 00 	lea    0xec9a(%rip),%rax        # 1bd10 <g_70+0x10>
    d076:	48 89 85 60 ec ff ff 	mov    %rax,-0x13a0(%rbp)
    d07d:	48 8d 05 b0 05 01 00 	lea    0x105b0(%rip),%rax        # 1d634 <g_139>
    d084:	48 89 85 68 ec ff ff 	mov    %rax,-0x1398(%rbp)
    d08b:	0f b6 85 62 eb ff ff 	movzbl -0x149e(%rbp),%eax
    d092:	83 c0 01             	add    $0x1,%eax
    d095:	88 85 62 eb ff ff    	mov    %al,-0x149e(%rbp)
    d09b:	c7 05 93 05 01 00 00 	movl   $0x0,0x10593(%rip)        # 1d638 <g_167>
    d0a2:	00 00 00 
    d0a5:	e9 4d 15 00 00       	jmpq   e5f7 <func_3+0x2f75>
    d0aa:	48 8d 05 1f d2 00 00 	lea    0xd21f(%rip),%rax        # 1a2d0 <g_511>
    d0b1:	48 89 85 70 ec ff ff 	mov    %rax,-0x1390(%rbp)
    d0b8:	48 c7 85 78 ec ff ff 	movq   $0x0,-0x1388(%rbp)
    d0bf:	00 00 00 00 
    d0c3:	48 8d 85 70 ed ff ff 	lea    -0x1290(%rbp),%rax
    d0ca:	48 83 c0 08          	add    $0x8,%rax
    d0ce:	48 89 85 80 ec ff ff 	mov    %rax,-0x1380(%rbp)
    d0d5:	48 8d 05 5c fb 00 00 	lea    0xfb5c(%rip),%rax        # 1cc38 <g_758>
    d0dc:	48 89 85 18 ec ff ff 	mov    %rax,-0x13e8(%rbp)
    d0e3:	48 8d 85 18 ec ff ff 	lea    -0x13e8(%rbp),%rax
    d0ea:	48 89 85 88 ec ff ff 	mov    %rax,-0x1378(%rbp)
    d0f1:	48 8d 05 5a cf 00 00 	lea    0xcf5a(%rip),%rax        # 1a052 <g_34+0x12>
    d0f8:	48 89 85 90 ec ff ff 	mov    %rax,-0x1370(%rbp)
    d0ff:	66 c7 85 6a eb ff ff 	movw   $0x6,-0x1496(%rbp)
    d106:	06 00 
    d108:	48 8d 85 5f eb ff ff 	lea    -0x14a1(%rbp),%rax
    d10f:	48 89 85 98 ec ff ff 	mov    %rax,-0x1368(%rbp)
    d116:	c7 85 9c eb ff ff fc 	movl   $0xfffffffc,-0x1464(%rbp)
    d11d:	ff ff ff 
    d120:	c7 85 a0 eb ff ff fd 	movl   $0xfffffffd,-0x1460(%rbp)
    d127:	ff ff ff 
    d12a:	c7 85 a4 eb ff ff fe 	movl   $0x731258fe,-0x145c(%rbp)
    d131:	58 12 73 
    d134:	c7 85 88 eb ff ff 00 	movl   $0x0,-0x1478(%rbp)
    d13b:	00 00 00 
    d13e:	eb 1e                	jmp    d15e <func_3+0x1adc>
    d140:	8b 85 88 eb ff ff    	mov    -0x1478(%rbp),%eax
    d146:	48 98                	cltq   
    d148:	48 8d 15 41 7f 00 00 	lea    0x7f41(%rip),%rdx        # 15090 <g_1204>
    d14f:	48 89 94 c5 70 ed ff 	mov    %rdx,-0x1290(%rbp,%rax,8)
    d156:	ff 
    d157:	83 85 88 eb ff ff 01 	addl   $0x1,-0x1478(%rbp)
    d15e:	83 bd 88 eb ff ff 02 	cmpl   $0x2,-0x1478(%rbp)
    d165:	7e d9                	jle    d140 <func_3+0x1abe>
    d167:	c7 85 88 eb ff ff 00 	movl   $0x0,-0x1478(%rbp)
    d16e:	00 00 00 
    d171:	eb 1e                	jmp    d191 <func_3+0x1b0f>
    d173:	8b 85 88 eb ff ff    	mov    -0x1478(%rbp),%eax
    d179:	48 98                	cltq   
    d17b:	48 8d 15 6a d1 00 00 	lea    0xd16a(%rip),%rdx        # 1a2ec <g_835>
    d182:	48 89 94 c5 40 ed ff 	mov    %rdx,-0x12c0(%rbp,%rax,8)
    d189:	ff 
    d18a:	83 85 88 eb ff ff 01 	addl   $0x1,-0x1478(%rbp)
    d191:	83 bd 88 eb ff ff 01 	cmpl   $0x1,-0x1478(%rbp)
    d198:	7e d9                	jle    d173 <func_3+0x1af1>
    d19a:	48 8b 85 40 eb ff ff 	mov    -0x14c0(%rbp),%rax
    d1a1:	0f b7 d8             	movzwl %ax,%ebx
    d1a4:	48 8b 85 40 eb ff ff 	mov    -0x14c0(%rbp),%rax
    d1ab:	44 0f b7 e0          	movzwl %ax,%r12d
    d1af:	44 8b ad 48 eb ff ff 	mov    -0x14b8(%rbp),%r13d
    d1b6:	48 8b 85 38 eb ff ff 	mov    -0x14c8(%rbp),%rax
    d1bd:	89 c2                	mov    %eax,%edx
    d1bf:	48 8b 05 7a fa 00 00 	mov    0xfa7a(%rip),%rax        # 1cc40 <g_867>
    d1c6:	8b 00                	mov    (%rax),%eax
    d1c8:	89 d6                	mov    %edx,%esi
    d1ca:	89 c7                	mov    %eax,%edi
    d1cc:	e8 ff ac ff ff       	callq  7ed0 <safe_sub_func_uint32_t_u_u>
    d1d1:	3d 23 e4 25 26       	cmp    $0x2625e423,%eax
    d1d6:	0f 95 c0             	setne  %al
    d1d9:	0f b6 c0             	movzbl %al,%eax
    d1dc:	44 89 ee             	mov    %r13d,%esi
    d1df:	89 c7                	mov    %eax,%edi
    d1e1:	e8 44 a3 ff ff       	callq  752a <safe_rshift_func_int16_t_s_s>
    d1e6:	89 c2                	mov    %eax,%edx
    d1e8:	8b 85 4c eb ff ff    	mov    -0x14b4(%rbp),%eax
    d1ee:	09 d0                	or     %edx,%eax
    d1f0:	0f b7 c0             	movzwl %ax,%eax
    d1f3:	44 89 e6             	mov    %r12d,%esi
    d1f6:	89 c7                	mov    %eax,%edi
    d1f8:	e8 22 ab ff ff       	callq  7d1f <safe_sub_func_uint16_t_u_u>
    d1fd:	48 8b 8d f8 ee ff ff 	mov    -0x1108(%rbp),%rcx
    d204:	48 8b 95 28 ef ff ff 	mov    -0x10d8(%rbp),%rdx
    d20b:	48 8b 85 88 ec ff ff 	mov    -0x1378(%rbp),%rax
    d212:	48 89 10             	mov    %rdx,(%rax)
    d215:	48 8b 85 88 ec ff ff 	mov    -0x1378(%rbp),%rax
    d21c:	48 8b 00             	mov    (%rax),%rax
    d21f:	48 39 c1             	cmp    %rax,%rcx
    d222:	75 14                	jne    d238 <func_3+0x1bb6>
    d224:	8b 85 4c eb ff ff    	mov    -0x14b4(%rbp),%eax
    d22a:	89 c0                	mov    %eax,%eax
    d22c:	48 23 85 40 eb ff ff 	and    -0x14c0(%rbp),%rax
    d233:	48 85 c0             	test   %rax,%rax
    d236:	74 07                	je     d23f <func_3+0x1bbd>
    d238:	b8 01 00 00 00       	mov    $0x1,%eax
    d23d:	eb 05                	jmp    d244 <func_3+0x1bc2>
    d23f:	b8 00 00 00 00       	mov    $0x0,%eax
    d244:	89 c2                	mov    %eax,%edx
    d246:	48 8b 85 90 ec ff ff 	mov    -0x1370(%rbp),%rax
    d24d:	66 89 10             	mov    %dx,(%rax)
    d250:	48 8b 05 c9 cf 00 00 	mov    0xcfc9(%rip),%rax        # 1a220 <g_107>
    d257:	48 83 f8 01          	cmp    $0x1,%rax
    d25b:	0f 9f c0             	setg   %al
    d25e:	0f b6 c0             	movzbl %al,%eax
    d261:	89 de                	mov    %ebx,%esi
    d263:	89 c7                	mov    %eax,%edi
    d265:	e8 95 aa ff ff       	callq  7cff <safe_add_func_uint16_t_u_u>
    d26a:	0f b6 c0             	movzbl %al,%eax
    d26d:	be 3e 00 00 00       	mov    $0x3e,%esi
    d272:	89 c7                	mov    %eax,%edi
    d274:	e8 e1 a8 ff ff       	callq  7b5a <safe_add_func_uint8_t_u_u>
    d279:	48 8b 95 98 ec ff ff 	mov    -0x1368(%rbp),%rdx
    d280:	88 02                	mov    %al,(%rdx)
    d282:	48 8b 85 98 ec ff ff 	mov    -0x1368(%rbp),%rax
    d289:	0f b6 00             	movzbl (%rax),%eax
    d28c:	84 c0                	test   %al,%al
    d28e:	74 11                	je     d2a1 <func_3+0x1c1f>
    d290:	8b 85 58 ed ff ff    	mov    -0x12a8(%rbp),%eax
    d296:	85 c0                	test   %eax,%eax
    d298:	74 07                	je     d2a1 <func_3+0x1c1f>
    d29a:	b8 01 00 00 00       	mov    $0x1,%eax
    d29f:	eb 05                	jmp    d2a6 <func_3+0x1c24>
    d2a1:	b8 00 00 00 00       	mov    $0x0,%eax
    d2a6:	3d b8 5e 00 00       	cmp    $0x5eb8,%eax
    d2ab:	0f 9e c0             	setle  %al
    d2ae:	0f b6 d0             	movzbl %al,%edx
    d2b1:	48 8b 85 58 ec ff ff 	mov    -0x13a8(%rbp),%rax
    d2b8:	48 89 10             	mov    %rdx,(%rax)
    d2bb:	48 8b 85 58 ec ff ff 	mov    -0x13a8(%rbp),%rax
    d2c2:	48 8b 00             	mov    (%rax),%rax
    d2c5:	48 8b 95 40 eb ff ff 	mov    -0x14c0(%rbp),%rdx
    d2cc:	48 89 d6             	mov    %rdx,%rsi
    d2cf:	48 89 c7             	mov    %rax,%rdi
    d2d2:	e8 dd a6 ff ff       	callq  79b4 <safe_mod_func_int64_t_s_s>
    d2d7:	48 85 c0             	test   %rax,%rax
    d2da:	48 8b 85 80 ec ff ff 	mov    -0x1380(%rbp),%rax
    d2e1:	48 8d 15 38 d0 00 00 	lea    0xd038(%rip),%rdx        # 1a320 <g_1070+0x20>
    d2e8:	48 89 10             	mov    %rdx,(%rax)
    d2eb:	48 8d 05 2e d0 00 00 	lea    0xd02e(%rip),%rax        # 1a320 <g_1070+0x20>
    d2f2:	48 39 85 58 ec ff ff 	cmp    %rax,-0x13a8(%rbp)
    d2f9:	0f 95 c0             	setne  %al
    d2fc:	0f b6 c0             	movzbl %al,%eax
    d2ff:	8b 95 98 eb ff ff    	mov    -0x1468(%rbp),%edx
    d305:	89 d6                	mov    %edx,%esi
    d307:	89 c7                	mov    %eax,%edi
    d309:	e8 84 a1 ff ff       	callq  7492 <safe_lshift_func_int16_t_s_s>
    d30e:	98                   	cwtl   
    d30f:	89 c7                	mov    %eax,%edi
    d311:	e8 90 ab ff ff       	callq  7ea6 <safe_unary_minus_func_uint32_t_u>
    d316:	0f b6 d0             	movzbl %al,%edx
    d319:	48 8b 85 70 ec ff ff 	mov    -0x1390(%rbp),%rax
    d320:	0f b6 00             	movzbl (%rax),%eax
    d323:	8d 48 01             	lea    0x1(%rax),%ecx
    d326:	48 8b 85 70 ec ff ff 	mov    -0x1390(%rbp),%rax
    d32d:	88 08                	mov    %cl,(%rax)
    d32f:	48 8b 85 70 ec ff ff 	mov    -0x1390(%rbp),%rax
    d336:	0f b6 00             	movzbl (%rax),%eax
    d339:	0f b6 c0             	movzbl %al,%eax
    d33c:	89 d6                	mov    %edx,%esi
    d33e:	89 c7                	mov    %eax,%edi
    d340:	e8 33 a8 ff ff       	callq  7b78 <safe_sub_func_uint8_t_u_u>
    d345:	8b 85 80 ef ff ff    	mov    -0x1080(%rbp),%eax
    d34b:	48 98                	cltq   
    d34d:	48 ba 73 c4 5c 4a 74 	movabs $0x8bc8c2744a5cc473,%rdx
    d354:	c2 c8 8b 
    d357:	48 39 d0             	cmp    %rdx,%rax
    d35a:	0f 94 c0             	sete   %al
    d35d:	0f b6 c0             	movzbl %al,%eax
    d360:	89 05 ce 02 01 00    	mov    %eax,0x102ce(%rip)        # 1d634 <g_139>
    d366:	48 8b 85 40 eb ff ff 	mov    -0x14c0(%rbp),%rax
    d36d:	48 c1 e8 3f          	shr    $0x3f,%rax
    d371:	0f b6 d0             	movzbl %al,%edx
    d374:	8b 85 3c f0 ff ff    	mov    -0xfc4(%rbp),%eax
    d37a:	31 d0                	xor    %edx,%eax
    d37c:	89 85 3c f0 ff ff    	mov    %eax,-0xfc4(%rbp)
    d382:	66 c7 05 cf cc 00 00 	movw   $0x0,0xcccf(%rip)        # 1a05a <g_89>
    d389:	00 00 
    d38b:	e9 32 12 00 00       	jmpq   e5c2 <func_3+0x2f40>
    d390:	48 8d 85 e0 ee ff ff 	lea    -0x1120(%rbp),%rax
    d397:	48 83 c0 08          	add    $0x8,%rax
    d39b:	48 89 85 a0 ec ff ff 	mov    %rax,-0x1360(%rbp)
    d3a2:	c7 85 10 ee ff ff da 	movl   $0xbae25fda,-0x11f0(%rbp)
    d3a9:	5f e2 ba 
    d3ac:	c7 85 14 ee ff ff 07 	movl   $0x86bda807,-0x11ec(%rbp)
    d3b3:	a8 bd 86 
    d3b6:	c7 85 18 ee ff ff fe 	movl   $0xdc39aafe,-0x11e8(%rbp)
    d3bd:	aa 39 dc 
    d3c0:	c7 85 1c ee ff ff f7 	movl   $0xfffffff7,-0x11e4(%rbp)
    d3c7:	ff ff ff 
    d3ca:	c7 85 20 ee ff ff f7 	movl   $0xfffffff7,-0x11e0(%rbp)
    d3d1:	ff ff ff 
    d3d4:	c7 85 24 ee ff ff fe 	movl   $0xdc39aafe,-0x11dc(%rbp)
    d3db:	aa 39 dc 
    d3de:	c7 85 28 ee ff ff 07 	movl   $0x86bda807,-0x11d8(%rbp)
    d3e5:	a8 bd 86 
    d3e8:	c7 85 2c ee ff ff da 	movl   $0xbae25fda,-0x11d4(%rbp)
    d3ef:	5f e2 ba 
    d3f2:	c7 85 30 ee ff ff 07 	movl   $0x86bda807,-0x11d0(%rbp)
    d3f9:	a8 bd 86 
    d3fc:	c7 85 34 ee ff ff fe 	movl   $0xdc39aafe,-0x11cc(%rbp)
    d403:	aa 39 dc 
    d406:	c7 85 38 ee ff ff 38 	movl   $0xb37ac638,-0x11c8(%rbp)
    d40d:	c6 7a b3 
    d410:	c7 85 3c ee ff ff 38 	movl   $0xb37ac638,-0x11c4(%rbp)
    d417:	c6 7a b3 
    d41a:	c7 85 40 ee ff ff da 	movl   $0xbae25fda,-0x11c0(%rbp)
    d421:	5f e2 ba 
    d424:	c7 85 44 ee ff ff fe 	movl   $0xdc39aafe,-0x11bc(%rbp)
    d42b:	aa 39 dc 
    d42e:	48 8d 05 2b f2 00 00 	lea    0xf22b(%rip),%rax        # 1c660 <g_563>
    d435:	48 89 85 a8 ec ff ff 	mov    %rax,-0x1358(%rbp)
    d43c:	48 c7 85 b0 ec ff ff 	movq   $0x0,-0x1350(%rbp)
    d443:	00 00 00 00 
    d447:	c7 85 48 eb ff ff ff 	movl   $0xffffffff,-0x14b8(%rbp)
    d44e:	ff ff ff 
    d451:	c7 05 1d 02 01 00 00 	movl   $0x0,0x1021d(%rip)        # 1d678 <g_1052>
    d458:	00 00 00 
    d45b:	eb 22                	jmp    d47f <func_3+0x1dfd>
    d45d:	8b 05 15 02 01 00    	mov    0x10215(%rip),%eax        # 1d678 <g_1052>
    d463:	89 c0                	mov    %eax,%eax
    d465:	c7 84 85 50 ed ff ff 	movl   $0x198b1f02,-0x12b0(%rbp,%rax,4)
    d46c:	02 1f 8b 19 
    d470:	8b 05 02 02 01 00    	mov    0x10202(%rip),%eax        # 1d678 <g_1052>
    d476:	83 c0 01             	add    $0x1,%eax
    d479:	89 05 f9 01 01 00    	mov    %eax,0x101f9(%rip)        # 1d678 <g_1052>
    d47f:	8b 05 f3 01 01 00    	mov    0x101f3(%rip),%eax        # 1d678 <g_1052>
    d485:	83 f8 05             	cmp    $0x5,%eax
    d488:	76 d3                	jbe    d45d <func_3+0x1ddb>
    d48a:	48 8b 85 88 ec ff ff 	mov    -0x1378(%rbp),%rax
    d491:	48 8b 08             	mov    (%rax),%rcx
    d494:	48 8b 85 88 ec ff ff 	mov    -0x1378(%rbp),%rax
    d49b:	48 8b 10             	mov    (%rax),%rdx
    d49e:	48 8b 85 a0 ec ff ff 	mov    -0x1360(%rbp),%rax
    d4a5:	48 89 10             	mov    %rdx,(%rax)
    d4a8:	48 8b 85 a0 ec ff ff 	mov    -0x1360(%rbp),%rax
    d4af:	48 8b 00             	mov    (%rax),%rax
    d4b2:	48 39 c1             	cmp    %rax,%rcx
    d4b5:	0f 85 74 01 00 00    	jne    d62f <func_3+0x1fad>
    d4bb:	c7 85 ac eb ff ff ff 	movl   $0xffffffff,-0x1454(%rbp)
    d4c2:	ff ff ff 
    d4c5:	c7 85 b0 eb ff ff f8 	movl   $0xfffffff8,-0x1450(%rbp)
    d4cc:	ff ff ff 
    d4cf:	48 8d 05 da 7b 00 00 	lea    0x7bda(%rip),%rax        # 150b0 <g_1245+0x10>
    d4d6:	48 89 85 20 ec ff ff 	mov    %rax,-0x13e0(%rbp)
    d4dd:	48 8d 85 20 ec ff ff 	lea    -0x13e0(%rbp),%rax
    d4e4:	48 89 85 b8 ec ff ff 	mov    %rax,-0x1348(%rbp)
    d4eb:	83 bd ac eb ff ff 00 	cmpl   $0x0,-0x1454(%rbp)
    d4f2:	0f 85 dd 10 00 00    	jne    e5d5 <func_3+0x2f53>
    d4f8:	83 ad 74 eb ff ff 01 	subl   $0x1,-0x148c(%rbp)
    d4ff:	83 bd ac eb ff ff 00 	cmpl   $0x0,-0x1454(%rbp)
    d506:	0f 85 e8 00 00 00    	jne    d5f4 <func_3+0x1f72>
    d50c:	8b 95 20 ee ff ff    	mov    -0x11e0(%rbp),%edx
    d512:	8b 85 cc ed ff ff    	mov    -0x1234(%rbp),%eax
    d518:	85 c0                	test   %eax,%eax
    d51a:	74 11                	je     d52d <func_3+0x1eab>
    d51c:	66 83 bd 6a eb ff ff 	cmpw   $0x0,-0x1496(%rbp)
    d523:	00 
    d524:	74 07                	je     d52d <func_3+0x1eab>
    d526:	be 01 00 00 00       	mov    $0x1,%esi
    d52b:	eb 05                	jmp    d532 <func_3+0x1eb0>
    d52d:	be 00 00 00 00       	mov    $0x0,%esi
    d532:	48 8b 85 b8 ec ff ff 	mov    -0x1348(%rbp),%rax
    d539:	48 8d 0d 28 01 01 00 	lea    0x10128(%rip),%rcx        # 1d668 <g_895>
    d540:	48 89 08             	mov    %rcx,(%rax)
    d543:	48 8b 85 b8 ec ff ff 	mov    -0x1348(%rbp),%rax
    d54a:	48 8b 00             	mov    (%rax),%rax
    d54d:	48 8d 0d 4c 7b 00 00 	lea    0x7b4c(%rip),%rcx        # 150a0 <g_1245>
    d554:	48 39 c8             	cmp    %rcx,%rax
    d557:	0f 95 c0             	setne  %al
    d55a:	0f b6 c8             	movzbl %al,%ecx
    d55d:	8b 85 4c eb ff ff    	mov    -0x14b4(%rbp),%eax
    d563:	39 c1                	cmp    %eax,%ecx
    d565:	77 0a                	ja     d571 <func_3+0x1eef>
    d567:	48 83 bd 38 eb ff ff 	cmpq   $0x0,-0x14c8(%rbp)
    d56e:	00 
    d56f:	74 07                	je     d578 <func_3+0x1ef6>
    d571:	b9 01 00 00 00       	mov    $0x1,%ecx
    d576:	eb 05                	jmp    d57d <func_3+0x1efb>
    d578:	b9 00 00 00 00       	mov    $0x0,%ecx
    d57d:	8b 85 2c ee ff ff    	mov    -0x11d4(%rbp),%eax
    d583:	39 c1                	cmp    %eax,%ecx
    d585:	0f 9d c0             	setge  %al
    d588:	0f b6 c0             	movzbl %al,%eax
    d58b:	39 c6                	cmp    %eax,%esi
    d58d:	0f 9f c0             	setg   %al
    d590:	0f b6 c0             	movzbl %al,%eax
    d593:	21 d0                	and    %edx,%eax
    d595:	83 f8 ff             	cmp    $0xffffffff,%eax
    d598:	0f 95 c0             	setne  %al
    d59b:	0f b6 c0             	movzbl %al,%eax
    d59e:	be 09 00 00 00       	mov    $0x9,%esi
    d5a3:	89 c7                	mov    %eax,%edi
    d5a5:	e8 b9 9f ff ff       	callq  7563 <safe_rshift_func_int16_t_s_u>
    d5aa:	48 0f bf d0          	movswq %ax,%rdx
    d5ae:	48 8b 05 b3 f0 00 00 	mov    0xf0b3(%rip),%rax        # 1c668 <g_573>
    d5b5:	48 8b 00             	mov    (%rax),%rax
    d5b8:	48 89 d6             	mov    %rdx,%rsi
    d5bb:	48 89 c7             	mov    %rax,%rdi
    d5be:	e8 f1 a3 ff ff       	callq  79b4 <safe_mod_func_int64_t_s_s>
    d5c3:	48 85 c0             	test   %rax,%rax
    d5c6:	74 11                	je     d5d9 <func_3+0x1f57>
    d5c8:	8b 85 4c eb ff ff    	mov    -0x14b4(%rbp),%eax
    d5ce:	85 c0                	test   %eax,%eax
    d5d0:	74 07                	je     d5d9 <func_3+0x1f57>
    d5d2:	b8 01 00 00 00       	mov    $0x1,%eax
    d5d7:	eb 05                	jmp    d5de <func_3+0x1f5c>
    d5d9:	b8 00 00 00 00       	mov    $0x0,%eax
    d5de:	0f be c0             	movsbl %al,%eax
    d5e1:	be 05 00 00 00       	mov    $0x5,%esi
    d5e6:	89 c7                	mov    %eax,%edi
    d5e8:	e8 48 9d ff ff       	callq  7335 <safe_rshift_func_int8_t_s_s>
    d5ed:	b8 01 00 00 00       	mov    $0x1,%eax
    d5f2:	eb 05                	jmp    d5f9 <func_3+0x1f77>
    d5f4:	b8 00 00 00 00       	mov    $0x0,%eax
    d5f9:	3d a8 00 00 00       	cmp    $0xa8,%eax
    d5fe:	75 08                	jne    d608 <func_3+0x1f86>
    d600:	48 83 bd 38 eb ff ff 	cmpq   $0x0,-0x14c8(%rbp)
    d607:	00 
    d608:	8b 05 de cc 00 00    	mov    0xccde(%rip),%eax        # 1a2ec <g_835>
    d60e:	83 e8 01             	sub    $0x1,%eax
    d611:	89 05 d5 cc 00 00    	mov    %eax,0xccd5(%rip)        # 1a2ec <g_835>
    d617:	ba 01 00 00 00       	mov    $0x1,%edx
    d61c:	8b 85 48 eb ff ff    	mov    -0x14b8(%rbp),%eax
    d622:	21 d0                	and    %edx,%eax
    d624:	89 85 48 eb ff ff    	mov    %eax,-0x14b8(%rbp)
    d62a:	e9 82 0f 00 00       	jmpq   e5b1 <func_3+0x2f2f>
    d62f:	48 8d 05 5a f6 00 00 	lea    0xf65a(%rip),%rax        # 1cc90 <g_933+0x30>
    d636:	48 89 85 50 ee ff ff 	mov    %rax,-0x11b0(%rbp)
    d63d:	48 8d 05 4c f6 00 00 	lea    0xf64c(%rip),%rax        # 1cc90 <g_933+0x30>
    d644:	48 89 85 58 ee ff ff 	mov    %rax,-0x11a8(%rbp)
    d64b:	48 8d 05 3e f6 00 00 	lea    0xf63e(%rip),%rax        # 1cc90 <g_933+0x30>
    d652:	48 89 85 60 ee ff ff 	mov    %rax,-0x11a0(%rbp)
    d659:	48 8d 05 30 f6 00 00 	lea    0xf630(%rip),%rax        # 1cc90 <g_933+0x30>
    d660:	48 89 85 68 ee ff ff 	mov    %rax,-0x1198(%rbp)
    d667:	48 8d 05 22 f6 00 00 	lea    0xf622(%rip),%rax        # 1cc90 <g_933+0x30>
    d66e:	48 89 85 70 ee ff ff 	mov    %rax,-0x1190(%rbp)
    d675:	48 8d 05 14 f6 00 00 	lea    0xf614(%rip),%rax        # 1cc90 <g_933+0x30>
    d67c:	48 89 85 78 ee ff ff 	mov    %rax,-0x1188(%rbp)
    d683:	48 8d 05 06 f6 00 00 	lea    0xf606(%rip),%rax        # 1cc90 <g_933+0x30>
    d68a:	48 89 85 80 ee ff ff 	mov    %rax,-0x1180(%rbp)
    d691:	48 8d 05 f8 f5 00 00 	lea    0xf5f8(%rip),%rax        # 1cc90 <g_933+0x30>
    d698:	48 89 85 88 ee ff ff 	mov    %rax,-0x1178(%rbp)
    d69f:	c7 85 a8 eb ff ff ef 	movl   $0x5f8208ef,-0x1458(%rbp)
    d6a6:	08 82 5f 
    d6a9:	48 c7 85 30 ef ff ff 	movq   $0x0,-0x10d0(%rbp)
    d6b0:	00 00 00 00 
    d6b4:	48 c7 85 38 ef ff ff 	movq   $0x0,-0x10c8(%rbp)
    d6bb:	00 00 00 00 
    d6bf:	48 c7 85 40 ef ff ff 	movq   $0x0,-0x10c0(%rbp)
    d6c6:	00 00 00 00 
    d6ca:	48 c7 85 48 ef ff ff 	movq   $0x0,-0x10b8(%rbp)
    d6d1:	00 00 00 00 
    d6d5:	48 c7 85 50 ef ff ff 	movq   $0x0,-0x10b0(%rbp)
    d6dc:	00 00 00 00 
    d6e0:	48 8d 85 10 ec ff ff 	lea    -0x13f0(%rbp),%rax
    d6e7:	48 89 85 58 ef ff ff 	mov    %rax,-0x10a8(%rbp)
    d6ee:	48 8d 85 10 ec ff ff 	lea    -0x13f0(%rbp),%rax
    d6f5:	48 89 85 60 ef ff ff 	mov    %rax,-0x10a0(%rbp)
    d6fc:	48 8d 85 10 ec ff ff 	lea    -0x13f0(%rbp),%rax
    d703:	48 89 85 68 ef ff ff 	mov    %rax,-0x1098(%rbp)
    d70a:	48 8d 85 10 ec ff ff 	lea    -0x13f0(%rbp),%rax
    d711:	48 89 85 70 ef ff ff 	mov    %rax,-0x1090(%rbp)
    d718:	48 8d 85 10 ec ff ff 	lea    -0x13f0(%rbp),%rax
    d71f:	48 89 85 78 ef ff ff 	mov    %rax,-0x1088(%rbp)
    d726:	48 8d 05 fb fe 00 00 	lea    0xfefb(%rip),%rax        # 1d628 <g_101>
    d72d:	48 89 85 20 ec ff ff 	mov    %rax,-0x13e0(%rbp)
    d734:	48 8d 85 20 ec ff ff 	lea    -0x13e0(%rbp),%rax
    d73b:	48 89 85 40 f8 ff ff 	mov    %rax,-0x7c0(%rbp)
    d742:	48 c7 85 48 f8 ff ff 	movq   $0x0,-0x7b8(%rbp)
    d749:	00 00 00 00 
    d74d:	48 c7 85 50 f8 ff ff 	movq   $0x0,-0x7b0(%rbp)
    d754:	00 00 00 00 
    d758:	48 c7 85 58 f8 ff ff 	movq   $0x0,-0x7a8(%rbp)
    d75f:	00 00 00 00 
    d763:	48 8d 85 20 ec ff ff 	lea    -0x13e0(%rbp),%rax
    d76a:	48 89 85 60 f8 ff ff 	mov    %rax,-0x7a0(%rbp)
    d771:	48 8d 85 20 ec ff ff 	lea    -0x13e0(%rbp),%rax
    d778:	48 89 85 68 f8 ff ff 	mov    %rax,-0x798(%rbp)
    d77f:	48 c7 85 70 f8 ff ff 	movq   $0x0,-0x790(%rbp)
    d786:	00 00 00 00 
    d78a:	48 8d 85 20 ec ff ff 	lea    -0x13e0(%rbp),%rax
    d791:	48 89 85 78 f8 ff ff 	mov    %rax,-0x788(%rbp)
    d798:	48 c7 85 80 f8 ff ff 	movq   $0x0,-0x780(%rbp)
    d79f:	00 00 00 00 
    d7a3:	48 8d 85 20 ec ff ff 	lea    -0x13e0(%rbp),%rax
    d7aa:	48 89 85 88 f8 ff ff 	mov    %rax,-0x778(%rbp)
    d7b1:	48 8d 85 20 ec ff ff 	lea    -0x13e0(%rbp),%rax
    d7b8:	48 89 85 90 f8 ff ff 	mov    %rax,-0x770(%rbp)
    d7bf:	48 8d 85 20 ec ff ff 	lea    -0x13e0(%rbp),%rax
    d7c6:	48 89 85 98 f8 ff ff 	mov    %rax,-0x768(%rbp)
    d7cd:	48 8d 85 20 ec ff ff 	lea    -0x13e0(%rbp),%rax
    d7d4:	48 89 85 a0 f8 ff ff 	mov    %rax,-0x760(%rbp)
    d7db:	48 8d 85 20 ec ff ff 	lea    -0x13e0(%rbp),%rax
    d7e2:	48 89 85 a8 f8 ff ff 	mov    %rax,-0x758(%rbp)
    d7e9:	48 c7 85 b0 f8 ff ff 	movq   $0x0,-0x750(%rbp)
    d7f0:	00 00 00 00 
    d7f4:	48 c7 85 b8 f8 ff ff 	movq   $0x0,-0x748(%rbp)
    d7fb:	00 00 00 00 
    d7ff:	48 c7 85 c0 f8 ff ff 	movq   $0x0,-0x740(%rbp)
    d806:	00 00 00 00 
    d80a:	48 8d 85 20 ec ff ff 	lea    -0x13e0(%rbp),%rax
    d811:	48 89 85 c8 f8 ff ff 	mov    %rax,-0x738(%rbp)
    d818:	48 c7 85 d0 f8 ff ff 	movq   $0x0,-0x730(%rbp)
    d81f:	00 00 00 00 
    d823:	48 c7 85 d8 f8 ff ff 	movq   $0x0,-0x728(%rbp)
    d82a:	00 00 00 00 
    d82e:	48 8d 85 20 ec ff ff 	lea    -0x13e0(%rbp),%rax
    d835:	48 89 85 e0 f8 ff ff 	mov    %rax,-0x720(%rbp)
    d83c:	48 c7 85 e8 f8 ff ff 	movq   $0x0,-0x718(%rbp)
    d843:	00 00 00 00 
    d847:	48 8d 85 20 ec ff ff 	lea    -0x13e0(%rbp),%rax
    d84e:	48 89 85 f0 f8 ff ff 	mov    %rax,-0x710(%rbp)
    d855:	48 8d 85 20 ec ff ff 	lea    -0x13e0(%rbp),%rax
    d85c:	48 89 85 f8 f8 ff ff 	mov    %rax,-0x708(%rbp)
    d863:	48 8d 85 20 ec ff ff 	lea    -0x13e0(%rbp),%rax
    d86a:	48 89 85 00 f9 ff ff 	mov    %rax,-0x700(%rbp)
    d871:	48 c7 85 08 f9 ff ff 	movq   $0x0,-0x6f8(%rbp)
    d878:	00 00 00 00 
    d87c:	48 8d 85 20 ec ff ff 	lea    -0x13e0(%rbp),%rax
    d883:	48 89 85 10 f9 ff ff 	mov    %rax,-0x6f0(%rbp)
    d88a:	48 c7 85 18 f9 ff ff 	movq   $0x0,-0x6e8(%rbp)
    d891:	00 00 00 00 
    d895:	48 8d 85 20 ec ff ff 	lea    -0x13e0(%rbp),%rax
    d89c:	48 89 85 20 f9 ff ff 	mov    %rax,-0x6e0(%rbp)
    d8a3:	48 8d 85 20 ec ff ff 	lea    -0x13e0(%rbp),%rax
    d8aa:	48 89 85 28 f9 ff ff 	mov    %rax,-0x6d8(%rbp)
    d8b1:	48 8d 85 20 ec ff ff 	lea    -0x13e0(%rbp),%rax
    d8b8:	48 89 85 30 f9 ff ff 	mov    %rax,-0x6d0(%rbp)
    d8bf:	48 8d 85 20 ec ff ff 	lea    -0x13e0(%rbp),%rax
    d8c6:	48 89 85 38 f9 ff ff 	mov    %rax,-0x6c8(%rbp)
    d8cd:	48 8d 85 20 ec ff ff 	lea    -0x13e0(%rbp),%rax
    d8d4:	48 89 85 40 f9 ff ff 	mov    %rax,-0x6c0(%rbp)
    d8db:	48 c7 85 48 f9 ff ff 	movq   $0x0,-0x6b8(%rbp)
    d8e2:	00 00 00 00 
    d8e6:	48 8d 85 20 ec ff ff 	lea    -0x13e0(%rbp),%rax
    d8ed:	48 89 85 50 f9 ff ff 	mov    %rax,-0x6b0(%rbp)
    d8f4:	48 8d 85 20 ec ff ff 	lea    -0x13e0(%rbp),%rax
    d8fb:	48 89 85 58 f9 ff ff 	mov    %rax,-0x6a8(%rbp)
    d902:	48 8d 85 20 ec ff ff 	lea    -0x13e0(%rbp),%rax
    d909:	48 89 85 60 f9 ff ff 	mov    %rax,-0x6a0(%rbp)
    d910:	48 8d 85 20 ec ff ff 	lea    -0x13e0(%rbp),%rax
    d917:	48 89 85 68 f9 ff ff 	mov    %rax,-0x698(%rbp)
    d91e:	48 8d 85 20 ec ff ff 	lea    -0x13e0(%rbp),%rax
    d925:	48 89 85 70 f9 ff ff 	mov    %rax,-0x690(%rbp)
    d92c:	48 c7 85 78 f9 ff ff 	movq   $0x0,-0x688(%rbp)
    d933:	00 00 00 00 
    d937:	48 8d 85 20 ec ff ff 	lea    -0x13e0(%rbp),%rax
    d93e:	48 89 85 80 f9 ff ff 	mov    %rax,-0x680(%rbp)
    d945:	48 c7 85 88 f9 ff ff 	movq   $0x0,-0x678(%rbp)
    d94c:	00 00 00 00 
    d950:	48 8d 85 20 ec ff ff 	lea    -0x13e0(%rbp),%rax
    d957:	48 89 85 90 f9 ff ff 	mov    %rax,-0x670(%rbp)
    d95e:	48 8d 85 20 ec ff ff 	lea    -0x13e0(%rbp),%rax
    d965:	48 89 85 98 f9 ff ff 	mov    %rax,-0x668(%rbp)
    d96c:	48 c7 85 a0 f9 ff ff 	movq   $0x0,-0x660(%rbp)
    d973:	00 00 00 00 
    d977:	48 8d 85 20 ec ff ff 	lea    -0x13e0(%rbp),%rax
    d97e:	48 89 85 a8 f9 ff ff 	mov    %rax,-0x658(%rbp)
    d985:	48 c7 85 b0 f9 ff ff 	movq   $0x0,-0x650(%rbp)
    d98c:	00 00 00 00 
    d990:	48 c7 85 b8 f9 ff ff 	movq   $0x0,-0x648(%rbp)
    d997:	00 00 00 00 
    d99b:	48 8d 85 20 ec ff ff 	lea    -0x13e0(%rbp),%rax
    d9a2:	48 89 85 c0 f9 ff ff 	mov    %rax,-0x640(%rbp)
    d9a9:	48 8d 85 20 ec ff ff 	lea    -0x13e0(%rbp),%rax
    d9b0:	48 89 85 c8 f9 ff ff 	mov    %rax,-0x638(%rbp)
    d9b7:	48 8d 85 20 ec ff ff 	lea    -0x13e0(%rbp),%rax
    d9be:	48 89 85 d0 f9 ff ff 	mov    %rax,-0x630(%rbp)
    d9c5:	48 8d 85 20 ec ff ff 	lea    -0x13e0(%rbp),%rax
    d9cc:	48 89 85 d8 f9 ff ff 	mov    %rax,-0x628(%rbp)
    d9d3:	48 c7 85 e0 f9 ff ff 	movq   $0x0,-0x620(%rbp)
    d9da:	00 00 00 00 
    d9de:	48 8d 85 20 ec ff ff 	lea    -0x13e0(%rbp),%rax
    d9e5:	48 89 85 e8 f9 ff ff 	mov    %rax,-0x618(%rbp)
    d9ec:	48 8d 85 20 ec ff ff 	lea    -0x13e0(%rbp),%rax
    d9f3:	48 89 85 f0 f9 ff ff 	mov    %rax,-0x610(%rbp)
    d9fa:	48 8d 85 20 ec ff ff 	lea    -0x13e0(%rbp),%rax
    da01:	48 89 85 f8 f9 ff ff 	mov    %rax,-0x608(%rbp)
    da08:	48 8d 85 20 ec ff ff 	lea    -0x13e0(%rbp),%rax
    da0f:	48 89 85 00 fa ff ff 	mov    %rax,-0x600(%rbp)
    da16:	48 c7 85 08 fa ff ff 	movq   $0x0,-0x5f8(%rbp)
    da1d:	00 00 00 00 
    da21:	48 8d 85 20 ec ff ff 	lea    -0x13e0(%rbp),%rax
    da28:	48 89 85 10 fa ff ff 	mov    %rax,-0x5f0(%rbp)
    da2f:	48 8d 85 20 ec ff ff 	lea    -0x13e0(%rbp),%rax
    da36:	48 89 85 18 fa ff ff 	mov    %rax,-0x5e8(%rbp)
    da3d:	48 8d 85 20 ec ff ff 	lea    -0x13e0(%rbp),%rax
    da44:	48 89 85 20 fa ff ff 	mov    %rax,-0x5e0(%rbp)
    da4b:	48 8d 85 20 ec ff ff 	lea    -0x13e0(%rbp),%rax
    da52:	48 89 85 28 fa ff ff 	mov    %rax,-0x5d8(%rbp)
    da59:	48 c7 85 30 fa ff ff 	movq   $0x0,-0x5d0(%rbp)
    da60:	00 00 00 00 
    da64:	48 8d 85 20 ec ff ff 	lea    -0x13e0(%rbp),%rax
    da6b:	48 89 85 38 fa ff ff 	mov    %rax,-0x5c8(%rbp)
    da72:	48 c7 85 40 fa ff ff 	movq   $0x0,-0x5c0(%rbp)
    da79:	00 00 00 00 
    da7d:	48 c7 85 48 fa ff ff 	movq   $0x0,-0x5b8(%rbp)
    da84:	00 00 00 00 
    da88:	48 c7 85 50 fa ff ff 	movq   $0x0,-0x5b0(%rbp)
    da8f:	00 00 00 00 
    da93:	48 8d 85 20 ec ff ff 	lea    -0x13e0(%rbp),%rax
    da9a:	48 89 85 58 fa ff ff 	mov    %rax,-0x5a8(%rbp)
    daa1:	48 8d 85 20 ec ff ff 	lea    -0x13e0(%rbp),%rax
    daa8:	48 89 85 60 fa ff ff 	mov    %rax,-0x5a0(%rbp)
    daaf:	48 8d 85 20 ec ff ff 	lea    -0x13e0(%rbp),%rax
    dab6:	48 89 85 68 fa ff ff 	mov    %rax,-0x598(%rbp)
    dabd:	48 c7 85 70 fa ff ff 	movq   $0x0,-0x590(%rbp)
    dac4:	00 00 00 00 
    dac8:	48 c7 85 78 fa ff ff 	movq   $0x0,-0x588(%rbp)
    dacf:	00 00 00 00 
    dad3:	48 8d 85 20 ec ff ff 	lea    -0x13e0(%rbp),%rax
    dada:	48 89 85 80 fa ff ff 	mov    %rax,-0x580(%rbp)
    dae1:	48 8d 85 20 ec ff ff 	lea    -0x13e0(%rbp),%rax
    dae8:	48 89 85 88 fa ff ff 	mov    %rax,-0x578(%rbp)
    daef:	48 8d 85 20 ec ff ff 	lea    -0x13e0(%rbp),%rax
    daf6:	48 89 85 90 fa ff ff 	mov    %rax,-0x570(%rbp)
    dafd:	48 c7 85 98 fa ff ff 	movq   $0x0,-0x568(%rbp)
    db04:	00 00 00 00 
    db08:	48 8d 85 20 ec ff ff 	lea    -0x13e0(%rbp),%rax
    db0f:	48 89 85 a0 fa ff ff 	mov    %rax,-0x560(%rbp)
    db16:	48 c7 85 a8 fa ff ff 	movq   $0x0,-0x558(%rbp)
    db1d:	00 00 00 00 
    db21:	48 8d 85 20 ec ff ff 	lea    -0x13e0(%rbp),%rax
    db28:	48 89 85 b0 fa ff ff 	mov    %rax,-0x550(%rbp)
    db2f:	48 8d 85 20 ec ff ff 	lea    -0x13e0(%rbp),%rax
    db36:	48 89 85 b8 fa ff ff 	mov    %rax,-0x548(%rbp)
    db3d:	48 c7 85 c0 fa ff ff 	movq   $0x0,-0x540(%rbp)
    db44:	00 00 00 00 
    db48:	48 c7 85 c8 fa ff ff 	movq   $0x0,-0x538(%rbp)
    db4f:	00 00 00 00 
    db53:	48 8d 85 20 ec ff ff 	lea    -0x13e0(%rbp),%rax
    db5a:	48 89 85 d0 fa ff ff 	mov    %rax,-0x530(%rbp)
    db61:	48 c7 85 d8 fa ff ff 	movq   $0x0,-0x528(%rbp)
    db68:	00 00 00 00 
    db6c:	48 8d 85 20 ec ff ff 	lea    -0x13e0(%rbp),%rax
    db73:	48 89 85 e0 fa ff ff 	mov    %rax,-0x520(%rbp)
    db7a:	48 8d 85 20 ec ff ff 	lea    -0x13e0(%rbp),%rax
    db81:	48 89 85 e8 fa ff ff 	mov    %rax,-0x518(%rbp)
    db88:	48 c7 85 f0 fa ff ff 	movq   $0x0,-0x510(%rbp)
    db8f:	00 00 00 00 
    db93:	48 8d 85 20 ec ff ff 	lea    -0x13e0(%rbp),%rax
    db9a:	48 89 85 f8 fa ff ff 	mov    %rax,-0x508(%rbp)
    dba1:	48 8d 85 20 ec ff ff 	lea    -0x13e0(%rbp),%rax
    dba8:	48 89 85 00 fb ff ff 	mov    %rax,-0x500(%rbp)
    dbaf:	48 8d 85 20 ec ff ff 	lea    -0x13e0(%rbp),%rax
    dbb6:	48 89 85 08 fb ff ff 	mov    %rax,-0x4f8(%rbp)
    dbbd:	48 8d 85 20 ec ff ff 	lea    -0x13e0(%rbp),%rax
    dbc4:	48 89 85 10 fb ff ff 	mov    %rax,-0x4f0(%rbp)
    dbcb:	48 8d 85 20 ec ff ff 	lea    -0x13e0(%rbp),%rax
    dbd2:	48 89 85 18 fb ff ff 	mov    %rax,-0x4e8(%rbp)
    dbd9:	48 8d 85 20 ec ff ff 	lea    -0x13e0(%rbp),%rax
    dbe0:	48 89 85 20 fb ff ff 	mov    %rax,-0x4e0(%rbp)
    dbe7:	48 8d 85 20 ec ff ff 	lea    -0x13e0(%rbp),%rax
    dbee:	48 89 85 28 fb ff ff 	mov    %rax,-0x4d8(%rbp)
    dbf5:	48 8d 85 20 ec ff ff 	lea    -0x13e0(%rbp),%rax
    dbfc:	48 89 85 30 fb ff ff 	mov    %rax,-0x4d0(%rbp)
    dc03:	48 8d 85 20 ec ff ff 	lea    -0x13e0(%rbp),%rax
    dc0a:	48 89 85 38 fb ff ff 	mov    %rax,-0x4c8(%rbp)
    dc11:	48 8d 85 20 ec ff ff 	lea    -0x13e0(%rbp),%rax
    dc18:	48 89 85 40 fb ff ff 	mov    %rax,-0x4c0(%rbp)
    dc1f:	48 c7 85 48 fb ff ff 	movq   $0x0,-0x4b8(%rbp)
    dc26:	00 00 00 00 
    dc2a:	48 c7 85 50 fb ff ff 	movq   $0x0,-0x4b0(%rbp)
    dc31:	00 00 00 00 
    dc35:	48 8d 85 20 ec ff ff 	lea    -0x13e0(%rbp),%rax
    dc3c:	48 89 85 58 fb ff ff 	mov    %rax,-0x4a8(%rbp)
    dc43:	48 8d 85 20 ec ff ff 	lea    -0x13e0(%rbp),%rax
    dc4a:	48 89 85 60 fb ff ff 	mov    %rax,-0x4a0(%rbp)
    dc51:	48 8d 85 20 ec ff ff 	lea    -0x13e0(%rbp),%rax
    dc58:	48 89 85 68 fb ff ff 	mov    %rax,-0x498(%rbp)
    dc5f:	48 8d 85 20 ec ff ff 	lea    -0x13e0(%rbp),%rax
    dc66:	48 89 85 70 fb ff ff 	mov    %rax,-0x490(%rbp)
    dc6d:	48 8d 85 20 ec ff ff 	lea    -0x13e0(%rbp),%rax
    dc74:	48 89 85 78 fb ff ff 	mov    %rax,-0x488(%rbp)
    dc7b:	48 8d 85 20 ec ff ff 	lea    -0x13e0(%rbp),%rax
    dc82:	48 89 85 80 fb ff ff 	mov    %rax,-0x480(%rbp)
    dc89:	48 8d 85 20 ec ff ff 	lea    -0x13e0(%rbp),%rax
    dc90:	48 89 85 88 fb ff ff 	mov    %rax,-0x478(%rbp)
    dc97:	48 8d 85 20 ec ff ff 	lea    -0x13e0(%rbp),%rax
    dc9e:	48 89 85 90 fb ff ff 	mov    %rax,-0x470(%rbp)
    dca5:	48 8d 85 20 ec ff ff 	lea    -0x13e0(%rbp),%rax
    dcac:	48 89 85 98 fb ff ff 	mov    %rax,-0x468(%rbp)
    dcb3:	48 c7 85 a0 fb ff ff 	movq   $0x0,-0x460(%rbp)
    dcba:	00 00 00 00 
    dcbe:	48 8d 85 20 ec ff ff 	lea    -0x13e0(%rbp),%rax
    dcc5:	48 89 85 a8 fb ff ff 	mov    %rax,-0x458(%rbp)
    dccc:	48 8d 85 20 ec ff ff 	lea    -0x13e0(%rbp),%rax
    dcd3:	48 89 85 b0 fb ff ff 	mov    %rax,-0x450(%rbp)
    dcda:	48 c7 85 b8 fb ff ff 	movq   $0x0,-0x448(%rbp)
    dce1:	00 00 00 00 
    dce5:	48 c7 85 c0 fb ff ff 	movq   $0x0,-0x440(%rbp)
    dcec:	00 00 00 00 
    dcf0:	48 c7 85 c8 fb ff ff 	movq   $0x0,-0x438(%rbp)
    dcf7:	00 00 00 00 
    dcfb:	48 8d 85 20 ec ff ff 	lea    -0x13e0(%rbp),%rax
    dd02:	48 89 85 d0 fb ff ff 	mov    %rax,-0x430(%rbp)
    dd09:	48 8d 85 20 ec ff ff 	lea    -0x13e0(%rbp),%rax
    dd10:	48 89 85 d8 fb ff ff 	mov    %rax,-0x428(%rbp)
    dd17:	48 8d 85 20 ec ff ff 	lea    -0x13e0(%rbp),%rax
    dd1e:	48 89 85 e0 fb ff ff 	mov    %rax,-0x420(%rbp)
    dd25:	48 c7 85 e8 fb ff ff 	movq   $0x0,-0x418(%rbp)
    dd2c:	00 00 00 00 
    dd30:	48 8d 85 20 ec ff ff 	lea    -0x13e0(%rbp),%rax
    dd37:	48 89 85 f0 fb ff ff 	mov    %rax,-0x410(%rbp)
    dd3e:	48 8d 85 20 ec ff ff 	lea    -0x13e0(%rbp),%rax
    dd45:	48 89 85 f8 fb ff ff 	mov    %rax,-0x408(%rbp)
    dd4c:	48 c7 85 00 fc ff ff 	movq   $0x0,-0x400(%rbp)
    dd53:	00 00 00 00 
    dd57:	48 c7 85 08 fc ff ff 	movq   $0x0,-0x3f8(%rbp)
    dd5e:	00 00 00 00 
    dd62:	48 c7 85 10 fc ff ff 	movq   $0x0,-0x3f0(%rbp)
    dd69:	00 00 00 00 
    dd6d:	48 c7 85 18 fc ff ff 	movq   $0x0,-0x3e8(%rbp)
    dd74:	00 00 00 00 
    dd78:	48 8d 85 20 ec ff ff 	lea    -0x13e0(%rbp),%rax
    dd7f:	48 89 85 20 fc ff ff 	mov    %rax,-0x3e0(%rbp)
    dd86:	48 8d 85 20 ec ff ff 	lea    -0x13e0(%rbp),%rax
    dd8d:	48 89 85 28 fc ff ff 	mov    %rax,-0x3d8(%rbp)
    dd94:	48 8d 85 20 ec ff ff 	lea    -0x13e0(%rbp),%rax
    dd9b:	48 89 85 30 fc ff ff 	mov    %rax,-0x3d0(%rbp)
    dda2:	48 c7 85 38 fc ff ff 	movq   $0x0,-0x3c8(%rbp)
    dda9:	00 00 00 00 
    ddad:	48 8d 85 20 ec ff ff 	lea    -0x13e0(%rbp),%rax
    ddb4:	48 89 85 40 fc ff ff 	mov    %rax,-0x3c0(%rbp)
    ddbb:	48 8d 85 20 ec ff ff 	lea    -0x13e0(%rbp),%rax
    ddc2:	48 89 85 48 fc ff ff 	mov    %rax,-0x3b8(%rbp)
    ddc9:	48 c7 85 50 fc ff ff 	movq   $0x0,-0x3b0(%rbp)
    ddd0:	00 00 00 00 
    ddd4:	48 8d 85 20 ec ff ff 	lea    -0x13e0(%rbp),%rax
    dddb:	48 89 85 58 fc ff ff 	mov    %rax,-0x3a8(%rbp)
    dde2:	48 8d 85 20 ec ff ff 	lea    -0x13e0(%rbp),%rax
    dde9:	48 89 85 60 fc ff ff 	mov    %rax,-0x3a0(%rbp)
    ddf0:	48 8d 85 20 ec ff ff 	lea    -0x13e0(%rbp),%rax
    ddf7:	48 89 85 68 fc ff ff 	mov    %rax,-0x398(%rbp)
    ddfe:	48 8d 85 20 ec ff ff 	lea    -0x13e0(%rbp),%rax
    de05:	48 89 85 70 fc ff ff 	mov    %rax,-0x390(%rbp)
    de0c:	48 8d 85 20 ec ff ff 	lea    -0x13e0(%rbp),%rax
    de13:	48 89 85 78 fc ff ff 	mov    %rax,-0x388(%rbp)
    de1a:	48 8d 85 20 ec ff ff 	lea    -0x13e0(%rbp),%rax
    de21:	48 89 85 80 fc ff ff 	mov    %rax,-0x380(%rbp)
    de28:	48 8d 85 20 ec ff ff 	lea    -0x13e0(%rbp),%rax
    de2f:	48 89 85 88 fc ff ff 	mov    %rax,-0x378(%rbp)
    de36:	48 c7 85 90 fc ff ff 	movq   $0x0,-0x370(%rbp)
    de3d:	00 00 00 00 
    de41:	48 c7 85 98 fc ff ff 	movq   $0x0,-0x368(%rbp)
    de48:	00 00 00 00 
    de4c:	48 8d 85 20 ec ff ff 	lea    -0x13e0(%rbp),%rax
    de53:	48 89 85 a0 fc ff ff 	mov    %rax,-0x360(%rbp)
    de5a:	48 8d 85 20 ec ff ff 	lea    -0x13e0(%rbp),%rax
    de61:	48 89 85 a8 fc ff ff 	mov    %rax,-0x358(%rbp)
    de68:	48 8d 85 20 ec ff ff 	lea    -0x13e0(%rbp),%rax
    de6f:	48 89 85 b0 fc ff ff 	mov    %rax,-0x350(%rbp)
    de76:	48 8d 85 20 ec ff ff 	lea    -0x13e0(%rbp),%rax
    de7d:	48 89 85 b8 fc ff ff 	mov    %rax,-0x348(%rbp)
    de84:	48 8d 85 20 ec ff ff 	lea    -0x13e0(%rbp),%rax
    de8b:	48 89 85 c0 fc ff ff 	mov    %rax,-0x340(%rbp)
    de92:	48 8d 85 20 ec ff ff 	lea    -0x13e0(%rbp),%rax
    de99:	48 89 85 c8 fc ff ff 	mov    %rax,-0x338(%rbp)
    dea0:	48 c7 85 d0 fc ff ff 	movq   $0x0,-0x330(%rbp)
    dea7:	00 00 00 00 
    deab:	48 c7 85 d8 fc ff ff 	movq   $0x0,-0x328(%rbp)
    deb2:	00 00 00 00 
    deb6:	48 c7 85 e0 fc ff ff 	movq   $0x0,-0x320(%rbp)
    debd:	00 00 00 00 
    dec1:	48 8d 85 20 ec ff ff 	lea    -0x13e0(%rbp),%rax
    dec8:	48 89 85 e8 fc ff ff 	mov    %rax,-0x318(%rbp)
    decf:	48 8d 85 20 ec ff ff 	lea    -0x13e0(%rbp),%rax
    ded6:	48 89 85 f0 fc ff ff 	mov    %rax,-0x310(%rbp)
    dedd:	48 c7 85 f8 fc ff ff 	movq   $0x0,-0x308(%rbp)
    dee4:	00 00 00 00 
    dee8:	48 8d 85 20 ec ff ff 	lea    -0x13e0(%rbp),%rax
    deef:	48 89 85 00 fd ff ff 	mov    %rax,-0x300(%rbp)
    def6:	48 c7 85 08 fd ff ff 	movq   $0x0,-0x2f8(%rbp)
    defd:	00 00 00 00 
    df01:	48 8d 85 20 ec ff ff 	lea    -0x13e0(%rbp),%rax
    df08:	48 89 85 10 fd ff ff 	mov    %rax,-0x2f0(%rbp)
    df0f:	48 8d 85 20 ec ff ff 	lea    -0x13e0(%rbp),%rax
    df16:	48 89 85 18 fd ff ff 	mov    %rax,-0x2e8(%rbp)
    df1d:	48 8d 85 20 ec ff ff 	lea    -0x13e0(%rbp),%rax
    df24:	48 89 85 20 fd ff ff 	mov    %rax,-0x2e0(%rbp)
    df2b:	48 8d 85 20 ec ff ff 	lea    -0x13e0(%rbp),%rax
    df32:	48 89 85 28 fd ff ff 	mov    %rax,-0x2d8(%rbp)
    df39:	48 8d 85 20 ec ff ff 	lea    -0x13e0(%rbp),%rax
    df40:	48 89 85 30 fd ff ff 	mov    %rax,-0x2d0(%rbp)
    df47:	48 c7 85 38 fd ff ff 	movq   $0x0,-0x2c8(%rbp)
    df4e:	00 00 00 00 
    df52:	48 c7 85 40 fd ff ff 	movq   $0x0,-0x2c0(%rbp)
    df59:	00 00 00 00 
    df5d:	48 c7 85 48 fd ff ff 	movq   $0x0,-0x2b8(%rbp)
    df64:	00 00 00 00 
    df68:	48 8d 85 20 ec ff ff 	lea    -0x13e0(%rbp),%rax
    df6f:	48 89 85 50 fd ff ff 	mov    %rax,-0x2b0(%rbp)
    df76:	48 c7 85 58 fd ff ff 	movq   $0x0,-0x2a8(%rbp)
    df7d:	00 00 00 00 
    df81:	48 c7 85 60 fd ff ff 	movq   $0x0,-0x2a0(%rbp)
    df88:	00 00 00 00 
    df8c:	48 8d 85 20 ec ff ff 	lea    -0x13e0(%rbp),%rax
    df93:	48 89 85 68 fd ff ff 	mov    %rax,-0x298(%rbp)
    df9a:	48 c7 85 70 fd ff ff 	movq   $0x0,-0x290(%rbp)
    dfa1:	00 00 00 00 
    dfa5:	48 8d 85 20 ec ff ff 	lea    -0x13e0(%rbp),%rax
    dfac:	48 89 85 78 fd ff ff 	mov    %rax,-0x288(%rbp)
    dfb3:	48 c7 85 80 fd ff ff 	movq   $0x0,-0x280(%rbp)
    dfba:	00 00 00 00 
    dfbe:	48 8d 85 20 ec ff ff 	lea    -0x13e0(%rbp),%rax
    dfc5:	48 89 85 88 fd ff ff 	mov    %rax,-0x278(%rbp)
    dfcc:	48 8d 85 20 ec ff ff 	lea    -0x13e0(%rbp),%rax
    dfd3:	48 89 85 90 fd ff ff 	mov    %rax,-0x270(%rbp)
    dfda:	48 8d 85 20 ec ff ff 	lea    -0x13e0(%rbp),%rax
    dfe1:	48 89 85 98 fd ff ff 	mov    %rax,-0x268(%rbp)
    dfe8:	48 8d 85 20 ec ff ff 	lea    -0x13e0(%rbp),%rax
    dfef:	48 89 85 a0 fd ff ff 	mov    %rax,-0x260(%rbp)
    dff6:	48 8d 85 20 ec ff ff 	lea    -0x13e0(%rbp),%rax
    dffd:	48 89 85 a8 fd ff ff 	mov    %rax,-0x258(%rbp)
    e004:	48 c7 85 b0 fd ff ff 	movq   $0x0,-0x250(%rbp)
    e00b:	00 00 00 00 
    e00f:	48 8d 85 20 ec ff ff 	lea    -0x13e0(%rbp),%rax
    e016:	48 89 85 b8 fd ff ff 	mov    %rax,-0x248(%rbp)
    e01d:	48 8d 85 20 ec ff ff 	lea    -0x13e0(%rbp),%rax
    e024:	48 89 85 c0 fd ff ff 	mov    %rax,-0x240(%rbp)
    e02b:	48 8d 85 20 ec ff ff 	lea    -0x13e0(%rbp),%rax
    e032:	48 89 85 c8 fd ff ff 	mov    %rax,-0x238(%rbp)
    e039:	48 8d 85 20 ec ff ff 	lea    -0x13e0(%rbp),%rax
    e040:	48 89 85 d0 fd ff ff 	mov    %rax,-0x230(%rbp)
    e047:	48 8d 85 20 ec ff ff 	lea    -0x13e0(%rbp),%rax
    e04e:	48 89 85 d8 fd ff ff 	mov    %rax,-0x228(%rbp)
    e055:	48 c7 85 e0 fd ff ff 	movq   $0x0,-0x220(%rbp)
    e05c:	00 00 00 00 
    e060:	48 8d 85 20 ec ff ff 	lea    -0x13e0(%rbp),%rax
    e067:	48 89 85 e8 fd ff ff 	mov    %rax,-0x218(%rbp)
    e06e:	48 8d 85 20 ec ff ff 	lea    -0x13e0(%rbp),%rax
    e075:	48 89 85 f0 fd ff ff 	mov    %rax,-0x210(%rbp)
    e07c:	48 8d 85 20 ec ff ff 	lea    -0x13e0(%rbp),%rax
    e083:	48 89 85 f8 fd ff ff 	mov    %rax,-0x208(%rbp)
    e08a:	48 8d 85 20 ec ff ff 	lea    -0x13e0(%rbp),%rax
    e091:	48 89 85 00 fe ff ff 	mov    %rax,-0x200(%rbp)
    e098:	48 8d 85 20 ec ff ff 	lea    -0x13e0(%rbp),%rax
    e09f:	48 89 85 08 fe ff ff 	mov    %rax,-0x1f8(%rbp)
    e0a6:	48 8d 85 20 ec ff ff 	lea    -0x13e0(%rbp),%rax
    e0ad:	48 89 85 10 fe ff ff 	mov    %rax,-0x1f0(%rbp)
    e0b4:	48 8d 85 20 ec ff ff 	lea    -0x13e0(%rbp),%rax
    e0bb:	48 89 85 18 fe ff ff 	mov    %rax,-0x1e8(%rbp)
    e0c2:	48 c7 85 20 fe ff ff 	movq   $0x0,-0x1e0(%rbp)
    e0c9:	00 00 00 00 
    e0cd:	48 8d 85 20 ec ff ff 	lea    -0x13e0(%rbp),%rax
    e0d4:	48 89 85 28 fe ff ff 	mov    %rax,-0x1d8(%rbp)
    e0db:	48 8d 85 20 ec ff ff 	lea    -0x13e0(%rbp),%rax
    e0e2:	48 89 85 30 fe ff ff 	mov    %rax,-0x1d0(%rbp)
    e0e9:	48 8d 85 20 ec ff ff 	lea    -0x13e0(%rbp),%rax
    e0f0:	48 89 85 38 fe ff ff 	mov    %rax,-0x1c8(%rbp)
    e0f7:	48 8d 85 20 ec ff ff 	lea    -0x13e0(%rbp),%rax
    e0fe:	48 89 85 40 fe ff ff 	mov    %rax,-0x1c0(%rbp)
    e105:	48 8d 85 20 ec ff ff 	lea    -0x13e0(%rbp),%rax
    e10c:	48 89 85 48 fe ff ff 	mov    %rax,-0x1b8(%rbp)
    e113:	48 c7 85 50 fe ff ff 	movq   $0x0,-0x1b0(%rbp)
    e11a:	00 00 00 00 
    e11e:	48 c7 85 58 fe ff ff 	movq   $0x0,-0x1a8(%rbp)
    e125:	00 00 00 00 
    e129:	48 8d 85 20 ec ff ff 	lea    -0x13e0(%rbp),%rax
    e130:	48 89 85 60 fe ff ff 	mov    %rax,-0x1a0(%rbp)
    e137:	48 8d 85 20 ec ff ff 	lea    -0x13e0(%rbp),%rax
    e13e:	48 89 85 68 fe ff ff 	mov    %rax,-0x198(%rbp)
    e145:	48 c7 85 70 fe ff ff 	movq   $0x0,-0x190(%rbp)
    e14c:	00 00 00 00 
    e150:	48 8d 85 20 ec ff ff 	lea    -0x13e0(%rbp),%rax
    e157:	48 89 85 78 fe ff ff 	mov    %rax,-0x188(%rbp)
    e15e:	48 c7 85 80 fe ff ff 	movq   $0x0,-0x180(%rbp)
    e165:	00 00 00 00 
    e169:	48 8d 85 20 ec ff ff 	lea    -0x13e0(%rbp),%rax
    e170:	48 89 85 88 fe ff ff 	mov    %rax,-0x178(%rbp)
    e177:	48 8d 85 20 ec ff ff 	lea    -0x13e0(%rbp),%rax
    e17e:	48 89 85 90 fe ff ff 	mov    %rax,-0x170(%rbp)
    e185:	48 8d 85 20 ec ff ff 	lea    -0x13e0(%rbp),%rax
    e18c:	48 89 85 98 fe ff ff 	mov    %rax,-0x168(%rbp)
    e193:	48 8d 85 20 ec ff ff 	lea    -0x13e0(%rbp),%rax
    e19a:	48 89 85 a0 fe ff ff 	mov    %rax,-0x160(%rbp)
    e1a1:	48 c7 85 a8 fe ff ff 	movq   $0x0,-0x158(%rbp)
    e1a8:	00 00 00 00 
    e1ac:	48 8d 85 20 ec ff ff 	lea    -0x13e0(%rbp),%rax
    e1b3:	48 89 85 b0 fe ff ff 	mov    %rax,-0x150(%rbp)
    e1ba:	48 8d 85 20 ec ff ff 	lea    -0x13e0(%rbp),%rax
    e1c1:	48 89 85 b8 fe ff ff 	mov    %rax,-0x148(%rbp)
    e1c8:	48 c7 85 c0 fe ff ff 	movq   $0x0,-0x140(%rbp)
    e1cf:	00 00 00 00 
    e1d3:	48 8d 85 20 ec ff ff 	lea    -0x13e0(%rbp),%rax
    e1da:	48 89 85 c8 fe ff ff 	mov    %rax,-0x138(%rbp)
    e1e1:	48 8d 85 20 ec ff ff 	lea    -0x13e0(%rbp),%rax
    e1e8:	48 89 85 d0 fe ff ff 	mov    %rax,-0x130(%rbp)
    e1ef:	48 8d 85 20 ec ff ff 	lea    -0x13e0(%rbp),%rax
    e1f6:	48 89 85 d8 fe ff ff 	mov    %rax,-0x128(%rbp)
    e1fd:	48 c7 85 e0 fe ff ff 	movq   $0x0,-0x120(%rbp)
    e204:	00 00 00 00 
    e208:	48 8d 85 20 ec ff ff 	lea    -0x13e0(%rbp),%rax
    e20f:	48 89 85 e8 fe ff ff 	mov    %rax,-0x118(%rbp)
    e216:	48 c7 85 f0 fe ff ff 	movq   $0x0,-0x110(%rbp)
    e21d:	00 00 00 00 
    e221:	48 8d 85 20 ec ff ff 	lea    -0x13e0(%rbp),%rax
    e228:	48 89 85 f8 fe ff ff 	mov    %rax,-0x108(%rbp)
    e22f:	48 8d 85 20 ec ff ff 	lea    -0x13e0(%rbp),%rax
    e236:	48 89 85 00 ff ff ff 	mov    %rax,-0x100(%rbp)
    e23d:	48 8d 85 20 ec ff ff 	lea    -0x13e0(%rbp),%rax
    e244:	48 89 85 08 ff ff ff 	mov    %rax,-0xf8(%rbp)
    e24b:	48 c7 85 10 ff ff ff 	movq   $0x0,-0xf0(%rbp)
    e252:	00 00 00 00 
    e256:	48 c7 85 18 ff ff ff 	movq   $0x0,-0xe8(%rbp)
    e25d:	00 00 00 00 
    e261:	48 8d 85 20 ec ff ff 	lea    -0x13e0(%rbp),%rax
    e268:	48 89 85 20 ff ff ff 	mov    %rax,-0xe0(%rbp)
    e26f:	48 8d 85 20 ec ff ff 	lea    -0x13e0(%rbp),%rax
    e276:	48 89 85 28 ff ff ff 	mov    %rax,-0xd8(%rbp)
    e27d:	48 8d 85 20 ec ff ff 	lea    -0x13e0(%rbp),%rax
    e284:	48 89 85 30 ff ff ff 	mov    %rax,-0xd0(%rbp)
    e28b:	48 8d 85 20 ec ff ff 	lea    -0x13e0(%rbp),%rax
    e292:	48 89 85 38 ff ff ff 	mov    %rax,-0xc8(%rbp)
    e299:	48 c7 85 40 ff ff ff 	movq   $0x0,-0xc0(%rbp)
    e2a0:	00 00 00 00 
    e2a4:	48 8d 85 20 ec ff ff 	lea    -0x13e0(%rbp),%rax
    e2ab:	48 89 85 48 ff ff ff 	mov    %rax,-0xb8(%rbp)
    e2b2:	48 8d 85 20 ec ff ff 	lea    -0x13e0(%rbp),%rax
    e2b9:	48 89 85 50 ff ff ff 	mov    %rax,-0xb0(%rbp)
    e2c0:	48 8d 85 20 ec ff ff 	lea    -0x13e0(%rbp),%rax
    e2c7:	48 89 85 58 ff ff ff 	mov    %rax,-0xa8(%rbp)
    e2ce:	48 8d 85 20 ec ff ff 	lea    -0x13e0(%rbp),%rax
    e2d5:	48 89 85 60 ff ff ff 	mov    %rax,-0xa0(%rbp)
    e2dc:	48 c7 85 68 ff ff ff 	movq   $0x0,-0x98(%rbp)
    e2e3:	00 00 00 00 
    e2e7:	48 c7 85 70 ff ff ff 	movq   $0x0,-0x90(%rbp)
    e2ee:	00 00 00 00 
    e2f2:	48 8d 85 20 ec ff ff 	lea    -0x13e0(%rbp),%rax
    e2f9:	48 89 85 78 ff ff ff 	mov    %rax,-0x88(%rbp)
    e300:	48 c7 45 80 00 00 00 	movq   $0x0,-0x80(%rbp)
    e307:	00 
    e308:	48 8d 85 20 ec ff ff 	lea    -0x13e0(%rbp),%rax
    e30f:	48 89 45 88          	mov    %rax,-0x78(%rbp)
    e313:	48 8d 85 20 ec ff ff 	lea    -0x13e0(%rbp),%rax
    e31a:	48 89 45 90          	mov    %rax,-0x70(%rbp)
    e31e:	48 c7 45 98 00 00 00 	movq   $0x0,-0x68(%rbp)
    e325:	00 
    e326:	48 8d 85 20 ec ff ff 	lea    -0x13e0(%rbp),%rax
    e32d:	48 89 45 a0          	mov    %rax,-0x60(%rbp)
    e331:	48 8d 85 20 ec ff ff 	lea    -0x13e0(%rbp),%rax
    e338:	48 89 45 a8          	mov    %rax,-0x58(%rbp)
    e33c:	48 c7 45 b0 00 00 00 	movq   $0x0,-0x50(%rbp)
    e343:	00 
    e344:	48 8d 85 20 ec ff ff 	lea    -0x13e0(%rbp),%rax
    e34b:	48 89 45 b8          	mov    %rax,-0x48(%rbp)
    e34f:	8b 85 40 ee ff ff    	mov    -0x11c0(%rbp),%eax
    e355:	41 89 c5             	mov    %eax,%r13d
    e358:	48 c7 85 a8 ec ff ff 	movq   $0x0,-0x1358(%rbp)
    e35f:	00 00 00 00 
    e363:	48 8b 15 46 e9 00 00 	mov    0xe946(%rip),%rdx        # 1ccb0 <g_932>
    e36a:	48 8b 05 3f e9 00 00 	mov    0xe93f(%rip),%rax        # 1ccb0 <g_932>
    e371:	48 8b 12             	mov    (%rdx),%rdx
    e374:	48 89 10             	mov    %rdx,(%rax)
    e377:	48 8b 00             	mov    (%rax),%rax
    e37a:	48 39 85 a8 ec ff ff 	cmp    %rax,-0x1358(%rbp)
    e381:	0f 85 0b 01 00 00    	jne    e492 <func_3+0x2e10>
    e387:	be 0d 00 00 00       	mov    $0xd,%esi
    e38c:	bf fa ff ff ff       	mov    $0xfffffffa,%edi
    e391:	e8 cd 91 ff ff       	callq  7563 <safe_rshift_func_int16_t_s_u>
    e396:	48 8b 85 38 eb ff ff 	mov    -0x14c8(%rbp),%rax
    e39d:	0f be d8             	movsbl %al,%ebx
    e3a0:	44 0f b6 a5 62 eb ff 	movzbl -0x149e(%rbp),%r12d
    e3a7:	ff 
    e3a8:	48 8b 85 40 eb ff ff 	mov    -0x14c0(%rbp),%rax
    e3af:	41 89 c6             	mov    %eax,%r14d
    e3b2:	48 8b 85 f8 eb ff ff 	mov    -0x1408(%rbp),%rax
    e3b9:	48 b9 90 ac 12 67 22 	movabs $0xd2ef75226712ac90,%rcx
    e3c0:	75 ef d2 
    e3c3:	48 89 08             	mov    %rcx,(%rax)
    e3c6:	be d7 8d 00 00       	mov    $0x8dd7,%esi
    e3cb:	bf 48 b0 00 00       	mov    $0xb048,%edi
    e3d0:	e8 b9 99 ff ff       	callq  7d8e <safe_div_func_uint16_t_u_u>
    e3d5:	0f b7 c0             	movzwl %ax,%eax
    e3d8:	48 be 4a a0 43 52 e2 	movabs $0x93e98ee25243a04a,%rsi
    e3df:	8e e9 93 
    e3e2:	48 89 c7             	mov    %rax,%rdi
    e3e5:	e8 be 94 ff ff       	callq  78a8 <safe_sub_func_int64_t_s_s>
    e3ea:	48 ba 90 ac 12 67 22 	movabs $0xd2ef75226712ac90,%rdx
    e3f1:	75 ef d2 
    e3f4:	48 39 d0             	cmp    %rdx,%rax
    e3f7:	0f 94 c0             	sete   %al
    e3fa:	0f b6 d0             	movzbl %al,%edx
    e3fd:	0f b6 05 0c be 00 00 	movzbl 0xbe0c(%rip),%eax        # 1a210 <g_105>
    e404:	0f be c0             	movsbl %al,%eax
    e407:	39 c2                	cmp    %eax,%edx
    e409:	0f 94 c0             	sete   %al
    e40c:	0f b6 c0             	movzbl %al,%eax
    e40f:	44 89 f6             	mov    %r14d,%esi
    e412:	89 c7                	mov    %eax,%edi
    e414:	e8 79 90 ff ff       	callq  7492 <safe_lshift_func_int16_t_s_s>
    e419:	48 8b 05 20 e2 00 00 	mov    0xe220(%rip),%rax        # 1c640 <g_412>
    e420:	48 8b 00             	mov    (%rax),%rax
    e423:	48 39 85 48 ec ff ff 	cmp    %rax,-0x13b8(%rbp)
    e42a:	0f 94 c0             	sete   %al
    e42d:	0f b6 c0             	movzbl %al,%eax
    e430:	44 89 e6             	mov    %r12d,%esi
    e433:	89 c7                	mov    %eax,%edi
    e435:	e8 03 99 ff ff       	callq  7d3d <safe_mul_func_uint16_t_u_u>
    e43a:	0f be d0             	movsbl %al,%edx
    e43d:	48 8b 05 14 e2 00 00 	mov    0xe214(%rip),%rax        # 1c658 <g_564>
    e444:	0f b6 00             	movzbl (%rax),%eax
    e447:	0f be c0             	movsbl %al,%eax
    e44a:	89 d6                	mov    %edx,%esi
    e44c:	89 c7                	mov    %eax,%edi
    e44e:	e8 9f 8d ff ff       	callq  71f2 <safe_sub_func_int8_t_s_s>
    e453:	0f be c0             	movsbl %al,%eax
    e456:	89 de                	mov    %ebx,%esi
    e458:	89 c7                	mov    %eax,%edi
    e45a:	e8 0b 8e ff ff       	callq  726a <safe_div_func_int8_t_s_s>
    e45f:	48 8b 05 ba e7 00 00 	mov    0xe7ba(%rip),%rax        # 1cc20 <g_630>
    e466:	8b 00                	mov    (%rax),%eax
    e468:	89 85 48 eb ff ff    	mov    %eax,-0x14b8(%rbp)
    e46e:	48 8b 85 60 ec ff ff 	mov    -0x13a0(%rbp),%rax
    e475:	48 3b 85 50 ec ff ff 	cmp    -0x13b0(%rbp),%rax
    e47c:	0f 95 c0             	setne  %al
    e47f:	0f b6 c0             	movzbl %al,%eax
    e482:	c1 e8 1f             	shr    $0x1f,%eax
    e485:	0f b6 c0             	movzbl %al,%eax
    e488:	0b 85 a8 eb ff ff    	or     -0x1458(%rbp),%eax
    e48e:	85 c0                	test   %eax,%eax
    e490:	75 07                	jne    e499 <func_3+0x2e17>
    e492:	ba 01 00 00 00       	mov    $0x1,%edx
    e497:	eb 05                	jmp    e49e <func_3+0x2e1c>
    e499:	ba 00 00 00 00       	mov    $0x0,%edx
    e49e:	48 8b 85 60 ec ff ff 	mov    -0x13a0(%rbp),%rax
    e4a5:	48 8b 00             	mov    (%rax),%rax
    e4a8:	88 10                	mov    %dl,(%rax)
    e4aa:	0f b6 00             	movzbl (%rax),%eax
    e4ad:	84 c0                	test   %al,%al
    e4af:	74 07                	je     e4b8 <func_3+0x2e36>
    e4b1:	83 bd 9c eb ff ff 00 	cmpl   $0x0,-0x1464(%rbp)
    e4b8:	66 83 bd 68 eb ff ff 	cmpw   $0x1,-0x1498(%rbp)
    e4bf:	01 
    e4c0:	0f 94 c0             	sete   %al
    e4c3:	0f b6 c0             	movzbl %al,%eax
    e4c6:	44 89 ee             	mov    %r13d,%esi
    e4c9:	89 c7                	mov    %eax,%edi
    e4cb:	e8 ee 97 ff ff       	callq  7cbe <safe_rshift_func_uint8_t_u_u>
    e4d0:	be 01 00 00 00       	mov    $0x1,%esi
    e4d5:	bf 01 00 00 00       	mov    $0x1,%edi
    e4da:	e8 d9 99 ff ff       	callq  7eb8 <safe_add_func_uint32_t_u_u>
    e4df:	89 c2                	mov    %eax,%edx
    e4e1:	48 8b 05 e0 e7 00 00 	mov    0xe7e0(%rip),%rax        # 1ccc8 <g_1119>
    e4e8:	89 10                	mov    %edx,(%rax)
    e4ea:	48 8d 85 08 ec ff ff 	lea    -0x13f8(%rbp),%rax
    e4f1:	48 89 85 b0 ec ff ff 	mov    %rax,-0x1350(%rbp)
    e4f8:	48 8b 85 10 ec ff ff 	mov    -0x13f0(%rbp),%rax
    e4ff:	48 39 85 b0 ec ff ff 	cmp    %rax,-0x1350(%rbp)
    e506:	0f 95 c0             	setne  %al
    e509:	0f b6 d8             	movzbl %al,%ebx
    e50c:	8b 85 a4 eb ff ff    	mov    -0x145c(%rbp),%eax
    e512:	48 98                	cltq   
    e514:	8b 95 4c eb ff ff    	mov    -0x14b4(%rbp),%edx
    e51a:	89 d2                	mov    %edx,%edx
    e51c:	48 89 c6             	mov    %rax,%rsi
    e51f:	48 89 d7             	mov    %rdx,%rdi
    e522:	e8 8d 94 ff ff       	callq  79b4 <safe_mod_func_int64_t_s_s>
    e527:	48 39 c3             	cmp    %rax,%rbx
    e52a:	0f 95 c0             	setne  %al
    e52d:	0f b6 d0             	movzbl %al,%edx
    e530:	48 8b 85 f8 eb ff ff 	mov    -0x1408(%rbp),%rax
    e537:	48 8b 08             	mov    (%rax),%rcx
    e53a:	48 63 d2             	movslq %edx,%rdx
    e53d:	48 8b 85 f8 eb ff ff 	mov    -0x1408(%rbp),%rax
    e544:	48 31 ca             	xor    %rcx,%rdx
    e547:	48 89 10             	mov    %rdx,(%rax)
    e54a:	48 8b 05 e7 e7 00 00 	mov    0xe7e7(%rip),%rax        # 1cd38 <g_1290>
    e551:	8b 85 14 ee ff ff    	mov    -0x11ec(%rbp),%eax
    e557:	3d c7 00 00 00       	cmp    $0xc7,%eax
    e55c:	0f 94 c0             	sete   %al
    e55f:	0f b6 c0             	movzbl %al,%eax
    e562:	be 02 00 00 00       	mov    $0x2,%esi
    e567:	89 c7                	mov    %eax,%edi
    e569:	e8 1f 97 ff ff       	callq  7c8d <safe_rshift_func_uint8_t_u_s>
    e56e:	0f b6 c0             	movzbl %al,%eax
    e571:	48 be 76 86 98 b3 41 	movabs $0x21a33341b3988676,%rsi
    e578:	33 a3 21 
    e57b:	48 89 c7             	mov    %rax,%rdi
    e57e:	e8 ab 9a ff ff       	callq  802e <safe_add_func_uint64_t_u_u>
    e583:	0f bf d0             	movswl %ax,%edx
    e586:	8b 85 a8 eb ff ff    	mov    -0x1458(%rbp),%eax
    e58c:	98                   	cwtl   
    e58d:	89 d6                	mov    %edx,%esi
    e58f:	89 c7                	mov    %eax,%edi
    e591:	e8 5f 8e ff ff       	callq  73f5 <safe_mul_func_int16_t_s_s>
    e596:	0f bf d0             	movswl %ax,%edx
    e599:	8b 85 48 eb ff ff    	mov    -0x14b8(%rbp),%eax
    e59f:	21 d0                	and    %edx,%eax
    e5a1:	89 85 48 eb ff ff    	mov    %eax,-0x14b8(%rbp)
    e5a7:	8b 85 4c eb ff ff    	mov    -0x14b4(%rbp),%eax
    e5ad:	85 c0                	test   %eax,%eax
    e5af:	75 27                	jne    e5d8 <func_3+0x2f56>
    e5b1:	0f b7 05 a2 ba 00 00 	movzwl 0xbaa2(%rip),%eax        # 1a05a <g_89>
    e5b8:	83 c0 01             	add    $0x1,%eax
    e5bb:	66 89 05 98 ba 00 00 	mov    %ax,0xba98(%rip)        # 1a05a <g_89>
    e5c2:	0f b7 05 91 ba 00 00 	movzwl 0xba91(%rip),%eax        # 1a05a <g_89>
    e5c9:	66 83 f8 04          	cmp    $0x4,%ax
    e5cd:	0f 86 bd ed ff ff    	jbe    d390 <func_3+0x1d0e>
    e5d3:	eb 04                	jmp    e5d9 <func_3+0x2f57>
    e5d5:	90                   	nop
    e5d6:	eb 01                	jmp    e5d9 <func_3+0x2f57>
    e5d8:	90                   	nop
    e5d9:	8b 05 59 f0 00 00    	mov    0xf059(%rip),%eax        # 1d638 <g_167>
    e5df:	0f be c0             	movsbl %al,%eax
    e5e2:	be 03 00 00 00       	mov    $0x3,%esi
    e5e7:	89 c7                	mov    %eax,%edi
    e5e9:	e8 e6 8b ff ff       	callq  71d4 <safe_add_func_int8_t_s_s>
    e5ee:	0f be c0             	movsbl %al,%eax
    e5f1:	89 05 41 f0 00 00    	mov    %eax,0xf041(%rip)        # 1d638 <g_167>
    e5f7:	8b 05 3b f0 00 00    	mov    0xf03b(%rip),%eax        # 1d638 <g_167>
    e5fd:	83 f8 04             	cmp    $0x4,%eax
    e600:	0f 8f a4 ea ff ff    	jg     d0aa <func_3+0x1a28>
    e606:	48 8b 85 68 ec ff ff 	mov    -0x1398(%rbp),%rax
    e60d:	8b 00                	mov    (%rax),%eax
    e60f:	8d 50 ff             	lea    -0x1(%rax),%edx
    e612:	48 8b 85 68 ec ff ff 	mov    -0x1398(%rbp),%rax
    e619:	89 10                	mov    %edx,(%rax)
    e61b:	be 06 00 00 00       	mov    $0x6,%esi
    e620:	bf 00 00 00 00       	mov    $0x0,%edi
    e625:	e8 22 96 ff ff       	callq  7c4c <safe_lshift_func_uint8_t_u_u>
    e62a:	0f b6 d0             	movzbl %al,%edx
    e62d:	8b 85 48 eb ff ff    	mov    -0x14b8(%rbp),%eax
    e633:	39 c2                	cmp    %eax,%edx
    e635:	0f 9f c2             	setg   %dl
    e638:	48 8b 05 89 e6 00 00 	mov    0xe689(%rip),%rax        # 1ccc8 <g_1119>
    e63f:	0f b6 d2             	movzbl %dl,%edx
    e642:	89 10                	mov    %edx,(%rax)
    e644:	48 8d 85 c0 f0 ff ff 	lea    -0xf40(%rbp),%rax
    e64b:	48 05 f8 03 00 00    	add    $0x3f8,%rax
    e651:	48 89 85 c8 ec ff ff 	mov    %rax,-0x1338(%rbp)
    e658:	48 8d 05 f7 b9 00 00 	lea    0xb9f7(%rip),%rax        # 1a056 <g_34+0x16>
    e65f:	48 89 85 d0 ec ff ff 	mov    %rax,-0x1330(%rbp)
    e666:	c7 85 40 f8 ff ff 05 	movl   $0x2b444405,-0x7c0(%rbp)
    e66d:	44 44 2b 
    e670:	c7 85 44 f8 ff ff 2d 	movl   $0xb8b3d42d,-0x7bc(%rbp)
    e677:	d4 b3 b8 
    e67a:	c7 85 48 f8 ff ff 04 	movl   $0x4,-0x7b8(%rbp)
    e681:	00 00 00 
    e684:	c7 85 4c f8 ff ff 76 	movl   $0x80858776,-0x7b4(%rbp)
    e68b:	87 85 80 
    e68e:	c7 85 50 f8 ff ff fa 	movl   $0xfffffffa,-0x7b0(%rbp)
    e695:	ff ff ff 
    e698:	c7 85 54 f8 ff ff 05 	movl   $0x2b444405,-0x7ac(%rbp)
    e69f:	44 44 2b 
    e6a2:	c7 85 58 f8 ff ff 38 	movl   $0xabedeb38,-0x7a8(%rbp)
    e6a9:	eb ed ab 
    e6ac:	c7 85 5c f8 ff ff 2d 	movl   $0xb8b3d42d,-0x7a4(%rbp)
    e6b3:	d4 b3 b8 
    e6b6:	c7 85 60 f8 ff ff 76 	movl   $0x80858776,-0x7a0(%rbp)
    e6bd:	87 85 80 
    e6c0:	c7 85 64 f8 ff ff 38 	movl   $0xabedeb38,-0x79c(%rbp)
    e6c7:	eb ed ab 
    e6ca:	c7 85 68 f8 ff ff 0a 	movl   $0xdf61570a,-0x798(%rbp)
    e6d1:	57 61 df 
    e6d4:	c7 85 6c f8 ff ff 38 	movl   $0xabedeb38,-0x794(%rbp)
    e6db:	eb ed ab 
    e6de:	c7 85 70 f8 ff ff 38 	movl   $0xabedeb38,-0x790(%rbp)
    e6e5:	eb ed ab 
    e6e8:	c7 85 74 f8 ff ff 0a 	movl   $0xdf61570a,-0x78c(%rbp)
    e6ef:	57 61 df 
    e6f2:	c7 85 78 f8 ff ff 38 	movl   $0xabedeb38,-0x788(%rbp)
    e6f9:	eb ed ab 
    e6fc:	c7 85 7c f8 ff ff 76 	movl   $0x80858776,-0x784(%rbp)
    e703:	87 85 80 
    e706:	c7 85 80 f8 ff ff 2d 	movl   $0xb8b3d42d,-0x780(%rbp)
    e70d:	d4 b3 b8 
    e710:	c7 85 84 f8 ff ff 38 	movl   $0xabedeb38,-0x77c(%rbp)
    e717:	eb ed ab 
    e71a:	c7 85 88 f8 ff ff 05 	movl   $0x2b444405,-0x778(%rbp)
    e721:	44 44 2b 
    e724:	c7 85 8c f8 ff ff fa 	movl   $0xfffffffa,-0x774(%rbp)
    e72b:	ff ff ff 
    e72e:	c7 85 90 f8 ff ff 76 	movl   $0x80858776,-0x770(%rbp)
    e735:	87 85 80 
    e738:	c7 85 94 f8 ff ff 04 	movl   $0x4,-0x76c(%rbp)
    e73f:	00 00 00 
    e742:	c7 85 98 f8 ff ff 2d 	movl   $0xb8b3d42d,-0x768(%rbp)
    e749:	d4 b3 b8 
    e74c:	c7 85 9c f8 ff ff 05 	movl   $0x2b444405,-0x764(%rbp)
    e753:	44 44 2b 
    e756:	c7 85 a0 f8 ff ff 76 	movl   $0x80858776,-0x760(%rbp)
    e75d:	87 85 80 
    e760:	c7 85 a4 f8 ff ff 0a 	movl   $0xdf61570a,-0x75c(%rbp)
    e767:	57 61 df 
    e76a:	c7 85 a8 f8 ff ff 04 	movl   $0x4,-0x758(%rbp)
    e771:	00 00 00 
    e774:	c7 85 ac f8 ff ff 04 	movl   $0x4,-0x754(%rbp)
    e77b:	00 00 00 
    e77e:	c7 85 b0 f8 ff ff 0a 	movl   $0xdf61570a,-0x750(%rbp)
    e785:	57 61 df 
    e788:	c7 85 b4 f8 ff ff 76 	movl   $0x80858776,-0x74c(%rbp)
    e78f:	87 85 80 
    e792:	c7 85 b8 f8 ff ff 05 	movl   $0x2b444405,-0x748(%rbp)
    e799:	44 44 2b 
    e79c:	c7 85 bc f8 ff ff 2d 	movl   $0xb8b3d42d,-0x744(%rbp)
    e7a3:	d4 b3 b8 
    e7a6:	c7 85 c0 f8 ff ff 04 	movl   $0x4,-0x740(%rbp)
    e7ad:	00 00 00 
    e7b0:	c7 85 c4 f8 ff ff 76 	movl   $0x80858776,-0x73c(%rbp)
    e7b7:	87 85 80 
    e7ba:	c7 85 c8 f8 ff ff fa 	movl   $0xfffffffa,-0x738(%rbp)
    e7c1:	ff ff ff 
    e7c4:	c7 85 cc f8 ff ff 05 	movl   $0x2b444405,-0x734(%rbp)
    e7cb:	44 44 2b 
    e7ce:	c7 85 d0 f8 ff ff 38 	movl   $0xabedeb38,-0x730(%rbp)
    e7d5:	eb ed ab 
    e7d8:	c7 85 d4 f8 ff ff 2d 	movl   $0xb8b3d42d,-0x72c(%rbp)
    e7df:	d4 b3 b8 
    e7e2:	c7 85 d8 f8 ff ff 76 	movl   $0x80858776,-0x728(%rbp)
    e7e9:	87 85 80 
    e7ec:	c7 85 dc f8 ff ff 38 	movl   $0xabedeb38,-0x724(%rbp)
    e7f3:	eb ed ab 
    e7f6:	c7 85 e0 f8 ff ff 0a 	movl   $0xdf61570a,-0x720(%rbp)
    e7fd:	57 61 df 
    e800:	c7 85 e4 f8 ff ff 38 	movl   $0xabedeb38,-0x71c(%rbp)
    e807:	eb ed ab 
    e80a:	c7 85 e8 f8 ff ff 38 	movl   $0xabedeb38,-0x718(%rbp)
    e811:	eb ed ab 
    e814:	c7 85 ec f8 ff ff 0a 	movl   $0xdf61570a,-0x714(%rbp)
    e81b:	57 61 df 
    e81e:	c7 85 f0 f8 ff ff 38 	movl   $0xabedeb38,-0x710(%rbp)
    e825:	eb ed ab 
    e828:	c7 85 f4 f8 ff ff 76 	movl   $0x80858776,-0x70c(%rbp)
    e82f:	87 85 80 
    e832:	c7 85 f8 f8 ff ff 2d 	movl   $0xb8b3d42d,-0x708(%rbp)
    e839:	d4 b3 b8 
    e83c:	c7 85 fc f8 ff ff 38 	movl   $0xabedeb38,-0x704(%rbp)
    e843:	eb ed ab 
    e846:	48 8b 95 d8 f5 ff ff 	mov    -0xa28(%rbp),%rdx
    e84d:	48 8b 85 c8 ec ff ff 	mov    -0x1338(%rbp),%rax
    e854:	48 89 10             	mov    %rdx,(%rax)
    e857:	48 8b 85 c8 ec ff ff 	mov    -0x1338(%rbp),%rax
    e85e:	48 8b 00             	mov    (%rax),%rax
    e861:	48 8d 15 d8 ed 00 00 	lea    0xedd8(%rip),%rdx        # 1d640 <g_391>
    e868:	48 39 d0             	cmp    %rdx,%rax
    e86b:	0f 95 c0             	setne  %al
    e86e:	0f b6 d0             	movzbl %al,%edx
    e871:	8b 85 48 eb ff ff    	mov    -0x14b8(%rbp),%eax
    e877:	89 85 64 ed ff ff    	mov    %eax,-0x129c(%rbp)
    e87d:	8b 85 64 ed ff ff    	mov    -0x129c(%rbp),%eax
    e883:	39 c2                	cmp    %eax,%edx
    e885:	7c 38                	jl     e8bf <func_3+0x323d>
    e887:	be 01 00 00 00       	mov    $0x1,%esi
    e88c:	bf ff ff ff ff       	mov    $0xffffffff,%edi
    e891:	e8 5f 8b ff ff       	callq  73f5 <safe_mul_func_int16_t_s_s>
    e896:	66 85 c0             	test   %ax,%ax
    e899:	74 24                	je     e8bf <func_3+0x323d>
    e89b:	48 8b 85 d0 ec ff ff 	mov    -0x1330(%rbp),%rax
    e8a2:	66 c7 00 00 00       	movw   $0x0,(%rax)
    e8a7:	8b 85 48 eb ff ff    	mov    -0x14b8(%rbp),%eax
    e8ad:	98                   	cwtl   
    e8ae:	be 00 00 00 00       	mov    $0x0,%esi
    e8b3:	89 c7                	mov    %eax,%edi
    e8b5:	e8 3b 8b ff ff       	callq  73f5 <safe_mul_func_int16_t_s_s>
    e8ba:	66 85 c0             	test   %ax,%ax
    e8bd:	75 0a                	jne    e8c9 <func_3+0x3247>
    e8bf:	48 83 bd 38 eb ff ff 	cmpq   $0x0,-0x14c8(%rbp)
    e8c6:	00 
    e8c7:	74 07                	je     e8d0 <func_3+0x324e>
    e8c9:	b8 01 00 00 00       	mov    $0x1,%eax
    e8ce:	eb 05                	jmp    e8d5 <func_3+0x3253>
    e8d0:	b8 00 00 00 00       	mov    $0x0,%eax
    e8d5:	89 85 48 eb ff ff    	mov    %eax,-0x14b8(%rbp)
    e8db:	8b 85 48 eb ff ff    	mov    -0x14b8(%rbp),%eax
    e8e1:	89 85 98 eb ff ff    	mov    %eax,-0x1468(%rbp)
    e8e7:	8b 85 98 eb ff ff    	mov    -0x1468(%rbp),%eax
    e8ed:	89 85 cc f8 ff ff    	mov    %eax,-0x734(%rbp)
    e8f3:	48 83 bd 38 ec ff ff 	cmpq   $0x0,-0x13c8(%rbp)
    e8fa:	00 
    e8fb:	0f 95 c0             	setne  %al
    e8fe:	0f b6 c0             	movzbl %al,%eax
    e901:	89 c7                	mov    %eax,%edi
    e903:	e8 8e 8c ff ff       	callq  7596 <safe_unary_minus_func_int32_t_s>
    e908:	0f b6 c0             	movzbl %al,%eax
    e90b:	89 c6                	mov    %eax,%esi
    e90d:	bf 7a 00 00 00       	mov    $0x7a,%edi
    e912:	e8 97 92 ff ff       	callq  7bae <safe_mod_func_uint8_t_u_u>
    e917:	84 c0                	test   %al,%al
    e919:	74 3a                	je     e955 <func_3+0x32d3>
    e91b:	48 c7 85 30 ec ff ff 	movq   $0x0,-0x13d0(%rbp)
    e922:	00 00 00 00 
    e926:	eb 1e                	jmp    e946 <func_3+0x32c4>
    e928:	48 8b 85 30 ec ff ff 	mov    -0x13d0(%rbp),%rax
    e92f:	48 8d 15 ca bc 00 00 	lea    0xbcca(%rip),%rdx        # 1a600 <g_1155>
    e936:	48 89 94 c5 e0 ed ff 	mov    %rdx,-0x1220(%rbp,%rax,8)
    e93d:	ff 
    e93e:	48 83 85 30 ec ff ff 	addq   $0x1,-0x13d0(%rbp)
    e945:	01 
    e946:	48 83 bd 30 ec ff ff 	cmpq   $0x4,-0x13d0(%rbp)
    e94d:	04 
    e94e:	76 d8                	jbe    e928 <func_3+0x32a6>
    e950:	e9 cc 00 00 00       	jmpq   ea21 <func_3+0x339f>
    e955:	c7 85 40 f8 ff ff f9 	movl   $0xf9f9f9f9,-0x7c0(%rbp)
    e95c:	f9 f9 f9 
    e95f:	c7 85 44 f8 ff ff f9 	movl   $0xf9f9f9f9,-0x7bc(%rbp)
    e966:	f9 f9 f9 
    e969:	c7 85 48 f8 ff ff f9 	movl   $0xf9f9f9f9,-0x7b8(%rbp)
    e970:	f9 f9 f9 
    e973:	c7 85 4c f8 ff ff f9 	movl   $0xf9f9f9f9,-0x7b4(%rbp)
    e97a:	f9 f9 f9 
    e97d:	c7 85 50 f8 ff ff f9 	movl   $0xf9f9f9f9,-0x7b0(%rbp)
    e984:	f9 f9 f9 
    e987:	c7 85 b8 eb ff ff 89 	movl   $0x8603b789,-0x1448(%rbp)
    e98e:	b7 03 86 
    e991:	c7 85 bc eb ff ff 01 	movl   $0x1,-0x1444(%rbp)
    e998:	00 00 00 
    e99b:	c7 85 c0 eb ff ff 03 	movl   $0x3,-0x1440(%rbp)
    e9a2:	00 00 00 
    e9a5:	c7 85 c4 eb ff ff 0b 	movl   $0x3615b20b,-0x143c(%rbp)
    e9ac:	b2 15 36 
    e9af:	c7 85 c8 eb ff ff d5 	movl   $0x41fe55d5,-0x1438(%rbp)
    e9b6:	55 fe 41 
    e9b9:	c7 85 cc eb ff ff fb 	movl   $0xfffffffb,-0x1434(%rbp)
    e9c0:	ff ff ff 
    e9c3:	c7 85 d0 eb ff ff 01 	movl   $0x1,-0x1430(%rbp)
    e9ca:	00 00 00 
    e9cd:	c7 85 d4 eb ff ff f6 	movl   $0xfffffff6,-0x142c(%rbp)
    e9d4:	ff ff ff 
    e9d7:	c7 85 d8 eb ff ff a7 	movl   $0xec2703a7,-0x1428(%rbp)
    e9de:	03 27 ec 
    e9e1:	c7 85 dc eb ff ff ff 	movl   $0xffffffff,-0x1424(%rbp)
    e9e8:	ff ff ff 
    e9eb:	c7 85 8c eb ff ff 00 	movl   $0x0,-0x1474(%rbp)
    e9f2:	00 00 00 
    e9f5:	eb 1a                	jmp    ea11 <func_3+0x338f>
    e9f7:	8b 85 8c eb ff ff    	mov    -0x1474(%rbp),%eax
    e9fd:	48 98                	cltq   
    e9ff:	c7 84 85 00 f0 ff ff 	movl   $0x2daa303a,-0x1000(%rbp,%rax,4)
    ea06:	3a 30 aa 2d 
    ea0a:	83 85 8c eb ff ff 01 	addl   $0x1,-0x1474(%rbp)
    ea11:	83 bd 8c eb ff ff 00 	cmpl   $0x0,-0x1474(%rbp)
    ea18:	7e dd                	jle    e9f7 <func_3+0x3375>
    ea1a:	80 85 61 eb ff ff 01 	addb   $0x1,-0x149f(%rbp)
    ea21:	c6 05 e8 b7 00 00 00 	movb   $0x0,0xb7e8(%rip)        # 1a210 <g_105>
    ea28:	e9 d1 00 00 00       	jmpq   eafe <func_3+0x347c>
    ea2d:	48 8b 85 f0 ed ff ff 	mov    -0x1210(%rbp),%rax
    ea34:	48 89 85 40 ec ff ff 	mov    %rax,-0x13c0(%rbp)
    ea3b:	48 8b 85 90 ee ff ff 	mov    -0x1170(%rbp),%rax
    ea42:	48 39 85 40 ec ff ff 	cmp    %rax,-0x13c0(%rbp)
    ea49:	0f 85 8b 00 00 00    	jne    eada <func_3+0x3458>
    ea4f:	48 8b 05 92 e2 00 00 	mov    0xe292(%rip),%rax        # 1cce8 <g_1122>
    ea56:	48 8d 95 48 eb ff ff 	lea    -0x14b8(%rbp),%rdx
    ea5d:	48 89 10             	mov    %rdx,(%rax)
    ea60:	c6 05 69 b8 00 00 15 	movb   $0x15,0xb869(%rip)        # 1a2d0 <g_511>
    ea67:	eb 64                	jmp    eacd <func_3+0x344b>
    ea69:	48 8b 05 78 e2 00 00 	mov    0xe278(%rip),%rax        # 1cce8 <g_1122>
    ea70:	48 8d 95 48 eb ff ff 	lea    -0x14b8(%rbp),%rdx
    ea77:	48 89 10             	mov    %rdx,(%rax)
    ea7a:	c7 85 70 eb ff ff 00 	movl   $0x0,-0x1490(%rbp)
    ea81:	00 00 00 
    ea84:	eb 20                	jmp    eaa6 <func_3+0x3424>
    ea86:	48 8b 05 5b e2 00 00 	mov    0xe25b(%rip),%rax        # 1cce8 <g_1122>
    ea8d:	48 8d 95 48 eb ff ff 	lea    -0x14b8(%rbp),%rdx
    ea94:	48 89 10             	mov    %rdx,(%rax)
    ea97:	8b 85 70 eb ff ff    	mov    -0x1490(%rbp),%eax
    ea9d:	83 c0 01             	add    $0x1,%eax
    eaa0:	89 85 70 eb ff ff    	mov    %eax,-0x1490(%rbp)
    eaa6:	8b 85 70 eb ff ff    	mov    -0x1490(%rbp),%eax
    eaac:	83 f8 03             	cmp    $0x3,%eax
    eaaf:	76 d5                	jbe    ea86 <func_3+0x3404>
    eab1:	0f b6 05 18 b8 00 00 	movzbl 0xb818(%rip),%eax        # 1a2d0 <g_511>
    eab8:	0f be c0             	movsbl %al,%eax
    eabb:	be 09 00 00 00       	mov    $0x9,%esi
    eac0:	89 c7                	mov    %eax,%edi
    eac2:	e8 0d 87 ff ff       	callq  71d4 <safe_add_func_int8_t_s_s>
    eac7:	88 05 03 b8 00 00    	mov    %al,0xb803(%rip)        # 1a2d0 <g_511>
    eacd:	0f b6 05 fc b7 00 00 	movzbl 0xb7fc(%rip),%eax        # 1a2d0 <g_511>
    ead4:	3c 1e                	cmp    $0x1e,%al
    ead6:	75 91                	jne    ea69 <func_3+0x33e7>
    ead8:	eb 14                	jmp    eaee <func_3+0x346c>
    eada:	48 8b 05 47 e2 00 00 	mov    0xe247(%rip),%rax        # 1cd28 <g_1120>
    eae1:	48 8b 00             	mov    (%rax),%rax
    eae4:	48 8b 00             	mov    (%rax),%rax
    eae7:	48 c7 00 00 00 00 00 	movq   $0x0,(%rax)
    eaee:	0f b6 05 1b b7 00 00 	movzbl 0xb71b(%rip),%eax        # 1a210 <g_105>
    eaf5:	83 e8 01             	sub    $0x1,%eax
    eaf8:	88 05 12 b7 00 00    	mov    %al,0xb712(%rip)        # 1a210 <g_105>
    eafe:	0f b6 05 0b b7 00 00 	movzbl 0xb70b(%rip),%eax        # 1a210 <g_105>
    eb05:	3c ff                	cmp    $0xff,%al
    eb07:	0f 8c 20 ff ff ff    	jl     ea2d <func_3+0x33ab>
    eb0d:	48 b8 65 86 1f 26 d8 	movabs $0x8c979d8261f8665,%rax
    eb14:	79 c9 08 
    eb17:	48 8b 5d c8          	mov    -0x38(%rbp),%rbx
    eb1b:	64 48 33 1c 25 28 00 	xor    %fs:0x28,%rbx
    eb22:	00 00 
    eb24:	74 05                	je     eb2b <func_3+0x34a9>
    eb26:	e8 45 85 ff ff       	callq  7070 <__stack_chk_fail@plt>
    eb2b:	48 81 c4 a8 14 00 00 	add    $0x14a8,%rsp
    eb32:	5b                   	pop    %rbx
    eb33:	41 5c                	pop    %r12
    eb35:	41 5d                	pop    %r13
    eb37:	41 5e                	pop    %r14
    eb39:	41 5f                	pop    %r15
    eb3b:	5d                   	pop    %rbp
    eb3c:	c3                   	retq   

000000000000eb3d <func_12>:
    eb3d:	f3 0f 1e fa          	endbr64 
    eb41:	55                   	push   %rbp
    eb42:	48 89 e5             	mov    %rsp,%rbp
    eb45:	41 55                	push   %r13
    eb47:	41 54                	push   %r12
    eb49:	53                   	push   %rbx
    eb4a:	48 81 ec a8 00 00 00 	sub    $0xa8,%rsp
    eb51:	48 89 bd 48 ff ff ff 	mov    %rdi,-0xb8(%rbp)
    eb58:	89 b5 44 ff ff ff    	mov    %esi,-0xbc(%rbp)
    eb5e:	89 95 40 ff ff ff    	mov    %edx,-0xc0(%rbp)
    eb64:	64 48 8b 04 25 28 00 	mov    %fs:0x28,%rax
    eb6b:	00 00 
    eb6d:	48 89 45 d8          	mov    %rax,-0x28(%rbp)
    eb71:	31 c0                	xor    %eax,%eax
    eb73:	c7 85 5c ff ff ff 2d 	movl   $0x2607fb2d,-0xa4(%rbp)
    eb7a:	fb 07 26 
    eb7d:	48 c7 85 68 ff ff ff 	movq   $0x0,-0x98(%rbp)
    eb84:	00 00 00 00 
    eb88:	48 8d 05 5d b7 00 00 	lea    0xb75d(%rip),%rax        # 1a2ec <g_835>
    eb8f:	48 89 45 a0          	mov    %rax,-0x60(%rbp)
    eb93:	48 8d 05 52 b7 00 00 	lea    0xb752(%rip),%rax        # 1a2ec <g_835>
    eb9a:	48 89 45 a8          	mov    %rax,-0x58(%rbp)
    eb9e:	48 8d 05 47 b7 00 00 	lea    0xb747(%rip),%rax        # 1a2ec <g_835>
    eba5:	48 89 45 b0          	mov    %rax,-0x50(%rbp)
    eba9:	48 8d 05 3c b7 00 00 	lea    0xb73c(%rip),%rax        # 1a2ec <g_835>
    ebb0:	48 89 45 b8          	mov    %rax,-0x48(%rbp)
    ebb4:	c7 85 54 ff ff ff 07 	movl   $0x7,-0xac(%rbp)
    ebbb:	00 00 00 
    ebbe:	48 b8 1e 03 1e 1e 03 	movabs $0x31e1e031e1e031e,%rax
    ebc5:	1e 1e 03 
    ebc8:	48 89 45 ce          	mov    %rax,-0x32(%rbp)
    ebcc:	66 c7 45 d6 1e 1e    	movw   $0x1e1e,-0x2a(%rbp)
    ebd2:	48 8d 05 4f ea 00 00 	lea    0xea4f(%rip),%rax        # 1d628 <g_101>
    ebd9:	48 89 85 70 ff ff ff 	mov    %rax,-0x90(%rbp)
    ebe0:	48 8d 45 80          	lea    -0x80(%rbp),%rax
    ebe4:	48 83 c0 08          	add    $0x8,%rax
    ebe8:	48 89 85 60 ff ff ff 	mov    %rax,-0xa0(%rbp)
    ebef:	48 8d 85 60 ff ff ff 	lea    -0xa0(%rbp),%rax
    ebf6:	48 89 85 78 ff ff ff 	mov    %rax,-0x88(%rbp)
    ebfd:	c7 85 58 ff ff ff 00 	movl   $0x0,-0xa8(%rbp)
    ec04:	00 00 00 
    ec07:	eb 17                	jmp    ec20 <func_12+0xe3>
    ec09:	8b 85 58 ff ff ff    	mov    -0xa8(%rbp),%eax
    ec0f:	48 98                	cltq   
    ec11:	c7 44 85 80 b3 ac 5e 	movl   $0x3a5eacb3,-0x80(%rbp,%rax,4)
    ec18:	3a 
    ec19:	83 85 58 ff ff ff 01 	addl   $0x1,-0xa8(%rbp)
    ec20:	83 bd 58 ff ff ff 04 	cmpl   $0x4,-0xa8(%rbp)
    ec27:	7e e0                	jle    ec09 <func_12+0xcc>
    ec29:	48 8b 85 48 ff ff ff 	mov    -0xb8(%rbp),%rax
    ec30:	0f b6 d8             	movzbl %al,%ebx
    ec33:	0f b6 05 d6 b5 00 00 	movzbl 0xb5d6(%rip),%eax        # 1a210 <g_105>
    ec3a:	44 0f be e0          	movsbl %al,%r12d
    ec3e:	8b 85 5c ff ff ff    	mov    -0xa4(%rbp),%eax
    ec44:	44 0f b7 e8          	movzwl %ax,%r13d
    ec48:	83 bd 5c ff ff ff 4e 	cmpl   $0x4e,-0xa4(%rbp)
    ec4f:	0f 97 c0             	seta   %al
    ec52:	0f b6 c0             	movzbl %al,%eax
    ec55:	89 05 d9 e9 00 00    	mov    %eax,0xe9d9(%rip)        # 1d634 <g_139>
    ec5b:	8b 05 d3 e9 00 00    	mov    0xe9d3(%rip),%eax        # 1d634 <g_139>
    ec61:	89 85 44 ff ff ff    	mov    %eax,-0xbc(%rbp)
    ec67:	8b 85 44 ff ff ff    	mov    -0xbc(%rbp),%eax
    ec6d:	48 33 85 48 ff ff ff 	xor    -0xb8(%rbp),%rax
    ec74:	48 89 c2             	mov    %rax,%rdx
    ec77:	8b 85 40 ff ff ff    	mov    -0xc0(%rbp),%eax
    ec7d:	48 89 d6             	mov    %rdx,%rsi
    ec80:	48 89 c7             	mov    %rax,%rdi
    ec83:	e8 27 94 ff ff       	callq  80af <safe_div_func_uint64_t_u_u>
    ec88:	89 c2                	mov    %eax,%edx
    ec8a:	8b 45 84             	mov    -0x7c(%rbp),%eax
    ec8d:	0b 85 5c ff ff ff    	or     -0xa4(%rbp),%eax
    ec93:	89 45 84             	mov    %eax,-0x7c(%rbp)
    ec96:	8b 45 84             	mov    -0x7c(%rbp),%eax
    ec99:	98                   	cwtl   
    ec9a:	89 d6                	mov    %edx,%esi
    ec9c:	89 c7                	mov    %eax,%edi
    ec9e:	e8 3e 88 ff ff       	callq  74e1 <safe_lshift_func_int16_t_s_u>
    eca3:	98                   	cwtl   
    eca4:	89 c6                	mov    %eax,%esi
    eca6:	bf 01 00 00 00       	mov    $0x1,%edi
    ecab:	e8 45 87 ff ff       	callq  73f5 <safe_mul_func_int16_t_s_s>
    ecb0:	98                   	cwtl   
    ecb1:	be 00 00 00 00       	mov    $0x0,%esi
    ecb6:	89 c7                	mov    %eax,%edi
    ecb8:	e8 fb 91 ff ff       	callq  7eb8 <safe_add_func_uint32_t_u_u>
    ecbd:	8b 95 54 ff ff ff    	mov    -0xac(%rbp),%edx
    ecc3:	09 d0                	or     %edx,%eax
    ecc5:	89 85 54 ff ff ff    	mov    %eax,-0xac(%rbp)
    eccb:	8b 85 54 ff ff ff    	mov    -0xac(%rbp),%eax
    ecd1:	0f be c0             	movsbl %al,%eax
    ecd4:	be 02 00 00 00       	mov    $0x2,%esi
    ecd9:	89 c7                	mov    %eax,%edi
    ecdb:	e8 55 86 ff ff       	callq  7335 <safe_rshift_func_int8_t_s_s>
    ece0:	0f be c0             	movsbl %al,%eax
    ece3:	39 85 5c ff ff ff    	cmp    %eax,-0xa4(%rbp)
    ece9:	0f 94 c0             	sete   %al
    ecec:	0f b6 c0             	movzbl %al,%eax
    ecef:	44 89 ee             	mov    %r13d,%esi
    ecf2:	89 c7                	mov    %eax,%edi
    ecf4:	e8 26 90 ff ff       	callq  7d1f <safe_sub_func_uint16_t_u_u>
    ecf9:	66 85 c0             	test   %ax,%ax
    ecfc:	74 11                	je     ed0f <func_12+0x1d2>
    ecfe:	48 83 bd 48 ff ff ff 	cmpq   $0x0,-0xb8(%rbp)
    ed05:	00 
    ed06:	74 07                	je     ed0f <func_12+0x1d2>
    ed08:	b8 01 00 00 00       	mov    $0x1,%eax
    ed0d:	eb 05                	jmp    ed14 <func_12+0x1d7>
    ed0f:	b8 00 00 00 00       	mov    $0x0,%eax
    ed14:	66 35 77 47          	xor    $0x4777,%ax
    ed18:	98                   	cwtl   
    ed19:	44 89 e6             	mov    %r12d,%esi
    ed1c:	89 c7                	mov    %eax,%edi
    ed1e:	e8 d2 86 ff ff       	callq  73f5 <safe_mul_func_int16_t_s_s>
    ed23:	8b 45 88             	mov    -0x78(%rbp),%eax
    ed26:	85 c0                	test   %eax,%eax
    ed28:	74 07                	je     ed31 <func_12+0x1f4>
    ed2a:	b8 01 00 00 00       	mov    $0x1,%eax
    ed2f:	eb 05                	jmp    ed36 <func_12+0x1f9>
    ed31:	b8 00 00 00 00       	mov    $0x0,%eax
    ed36:	48 98                	cltq   
    ed38:	48 39 85 48 ff ff ff 	cmp    %rax,-0xb8(%rbp)
    ed3f:	0f 94 c0             	sete   %al
    ed42:	0f b6 c0             	movzbl %al,%eax
    ed45:	89 de                	mov    %ebx,%esi
    ed47:	89 c7                	mov    %eax,%edi
    ed49:	e8 45 8e ff ff       	callq  7b93 <safe_mul_func_uint8_t_u_u>
    ed4e:	0f b6 c0             	movzbl %al,%eax
    ed51:	39 85 5c ff ff ff    	cmp    %eax,-0xa4(%rbp)
    ed57:	0f 94 c0             	sete   %al
    ed5a:	0f b6 c0             	movzbl %al,%eax
    ed5d:	be 00 00 00 00       	mov    $0x0,%esi
    ed62:	89 c7                	mov    %eax,%edi
    ed64:	e8 d4 8f ff ff       	callq  7d3d <safe_mul_func_uint16_t_u_u>
    ed69:	0f b7 c0             	movzwl %ax,%eax
    ed6c:	8b 95 5c ff ff ff    	mov    -0xa4(%rbp),%edx
    ed72:	89 d6                	mov    %edx,%esi
    ed74:	89 c7                	mov    %eax,%edi
    ed76:	e8 aa 91 ff ff       	callq  7f25 <safe_div_func_uint32_t_u_u>
    ed7b:	39 85 5c ff ff ff    	cmp    %eax,-0xa4(%rbp)
    ed81:	0f 92 c0             	setb   %al
    ed84:	0f b6 d0             	movzbl %al,%edx
    ed87:	0f b6 45 cf          	movzbl -0x31(%rbp),%eax
    ed8b:	0f be c0             	movsbl %al,%eax
    ed8e:	09 c2                	or     %eax,%edx
    ed90:	0f b6 45 d1          	movzbl -0x2f(%rbp),%eax
    ed94:	0f be c0             	movsbl %al,%eax
    ed97:	39 c2                	cmp    %eax,%edx
    ed99:	0f 9c c0             	setl   %al
    ed9c:	0f b6 c8             	movzbl %al,%ecx
    ed9f:	0f b6 45 d7          	movzbl -0x29(%rbp),%eax
    eda3:	0f be d0             	movsbl %al,%edx
    eda6:	48 8b 05 13 df 00 00 	mov    0xdf13(%rip),%rax        # 1ccc0 <g_1022>
    edad:	21 ca                	and    %ecx,%edx
    edaf:	89 10                	mov    %edx,(%rax)
    edb1:	48 8b 85 70 ff ff ff 	mov    -0x90(%rbp),%rax
    edb8:	48 8d 95 54 ff ff ff 	lea    -0xac(%rbp),%rdx
    edbf:	48 89 10             	mov    %rdx,(%rax)
    edc2:	48 8b 85 70 ff ff ff 	mov    -0x90(%rbp),%rax
    edc9:	48 8b 10             	mov    (%rax),%rdx
    edcc:	48 8b 85 78 ff ff ff 	mov    -0x88(%rbp),%rax
    edd3:	48 89 10             	mov    %rdx,(%rax)
    edd6:	48 8b 05 4b de 00 00 	mov    0xde4b(%rip),%rax        # 1cc28 <g_631>
    eddd:	48 8b 10             	mov    (%rax),%rdx
    ede0:	48 8b 85 70 ff ff ff 	mov    -0x90(%rbp),%rax
    ede7:	48 89 10             	mov    %rdx,(%rax)
    edea:	8b 85 44 ff ff ff    	mov    -0xbc(%rbp),%eax
    edf0:	48 8b 4d d8          	mov    -0x28(%rbp),%rcx
    edf4:	64 48 33 0c 25 28 00 	xor    %fs:0x28,%rcx
    edfb:	00 00 
    edfd:	74 05                	je     ee04 <func_12+0x2c7>
    edff:	e8 6c 82 ff ff       	callq  7070 <__stack_chk_fail@plt>
    ee04:	48 81 c4 a8 00 00 00 	add    $0xa8,%rsp
    ee0b:	5b                   	pop    %rbx
    ee0c:	41 5c                	pop    %r12
    ee0e:	41 5d                	pop    %r13
    ee10:	5d                   	pop    %rbp
    ee11:	c3                   	retq   

000000000000ee12 <func_39>:
    ee12:	f3 0f 1e fa          	endbr64 
    ee16:	55                   	push   %rbp
    ee17:	48 89 e5             	mov    %rsp,%rbp
    ee1a:	41 57                	push   %r15
    ee1c:	41 56                	push   %r14
    ee1e:	41 55                	push   %r13
    ee20:	41 54                	push   %r12
    ee22:	53                   	push   %rbx
    ee23:	48 81 ec 18 09 00 00 	sub    $0x918,%rsp
    ee2a:	48 89 bd d8 f6 ff ff 	mov    %rdi,-0x928(%rbp)
    ee31:	89 95 d0 f6 ff ff    	mov    %edx,-0x930(%rbp)
    ee37:	89 c8                	mov    %ecx,%eax
    ee39:	44 89 c2             	mov    %r8d,%edx
    ee3c:	89 f1                	mov    %esi,%ecx
    ee3e:	66 89 8d d4 f6 ff ff 	mov    %cx,-0x92c(%rbp)
    ee45:	66 89 85 cc f6 ff ff 	mov    %ax,-0x934(%rbp)
    ee4c:	89 d0                	mov    %edx,%eax
    ee4e:	66 89 85 c8 f6 ff ff 	mov    %ax,-0x938(%rbp)
    ee55:	64 48 8b 04 25 28 00 	mov    %fs:0x28,%rax
    ee5c:	00 00 
    ee5e:	48 89 45 c8          	mov    %rax,-0x38(%rbp)
    ee62:	31 c0                	xor    %eax,%eax
    ee64:	c6 85 f1 f6 ff ff ff 	movb   $0xff,-0x90f(%rbp)
    ee6b:	48 8d 05 c6 e7 00 00 	lea    0xe7c6(%rip),%rax        # 1d638 <g_167>
    ee72:	48 89 85 68 f7 ff ff 	mov    %rax,-0x898(%rbp)
    ee79:	c7 85 60 f7 ff ff 01 	movl   $0x1,-0x8a0(%rbp)
    ee80:	00 00 00 
    ee83:	c7 85 50 f9 ff ff d2 	movl   $0x341fafd2,-0x6b0(%rbp)
    ee8a:	af 1f 34 
    ee8d:	c7 85 54 f9 ff ff c4 	movl   $0x11df13c4,-0x6ac(%rbp)
    ee94:	13 df 11 
    ee97:	c7 85 58 f9 ff ff 00 	movl   $0x0,-0x6a8(%rbp)
    ee9e:	00 00 00 
    eea1:	c7 85 5c f9 ff ff c4 	movl   $0x11df13c4,-0x6a4(%rbp)
    eea8:	13 df 11 
    eeab:	c7 85 60 f9 ff ff d2 	movl   $0x341fafd2,-0x6a0(%rbp)
    eeb2:	af 1f 34 
    eeb5:	c7 85 64 f9 ff ff d2 	movl   $0x341fafd2,-0x69c(%rbp)
    eebc:	af 1f 34 
    eebf:	c7 85 68 f9 ff ff c4 	movl   $0x11df13c4,-0x698(%rbp)
    eec6:	13 df 11 
    eec9:	c7 85 6c f9 ff ff 00 	movl   $0x0,-0x694(%rbp)
    eed0:	00 00 00 
    eed3:	c7 85 70 f9 ff ff c4 	movl   $0x11df13c4,-0x690(%rbp)
    eeda:	13 df 11 
    eedd:	c7 85 74 f9 ff ff d2 	movl   $0x341fafd2,-0x68c(%rbp)
    eee4:	af 1f 34 
    eee7:	c7 85 78 f9 ff ff d2 	movl   $0x341fafd2,-0x688(%rbp)
    eeee:	af 1f 34 
    eef1:	c7 85 7c f9 ff ff c4 	movl   $0x11df13c4,-0x684(%rbp)
    eef8:	13 df 11 
    eefb:	c7 85 80 f9 ff ff 00 	movl   $0x0,-0x680(%rbp)
    ef02:	00 00 00 
    ef05:	c7 85 84 f9 ff ff c4 	movl   $0x11df13c4,-0x67c(%rbp)
    ef0c:	13 df 11 
    ef0f:	48 8d 05 6e b3 00 00 	lea    0xb36e(%rip),%rax        # 1a284 <g_310>
    ef16:	48 89 85 70 f7 ff ff 	mov    %rax,-0x890(%rbp)
    ef1d:	48 8d 85 70 f7 ff ff 	lea    -0x890(%rbp),%rax
    ef24:	48 89 85 78 f7 ff ff 	mov    %rax,-0x888(%rbp)
    ef2b:	48 8d 85 78 f7 ff ff 	lea    -0x888(%rbp),%rax
    ef32:	48 89 85 88 f8 ff ff 	mov    %rax,-0x778(%rbp)
    ef39:	48 c7 85 80 f7 ff ff 	movq   $0x0,-0x880(%rbp)
    ef40:	00 00 00 00 
    ef44:	48 8d 85 80 f7 ff ff 	lea    -0x880(%rbp),%rax
    ef4b:	48 89 85 88 f7 ff ff 	mov    %rax,-0x878(%rbp)
    ef52:	48 8d 85 88 f7 ff ff 	lea    -0x878(%rbp),%rax
    ef59:	48 89 85 90 f8 ff ff 	mov    %rax,-0x770(%rbp)
    ef60:	66 c7 85 d0 f8 ff ff 	movw   $0xfffc,-0x730(%rbp)
    ef67:	fc ff 
    ef69:	66 c7 85 d2 f8 ff ff 	movw   $0xfffc,-0x72e(%rbp)
    ef70:	fc ff 
    ef72:	66 c7 85 d4 f8 ff ff 	movw   $0xfffc,-0x72c(%rbp)
    ef79:	fc ff 
    ef7b:	66 c7 85 d6 f8 ff ff 	movw   $0xfffc,-0x72a(%rbp)
    ef82:	fc ff 
    ef84:	66 c7 85 d8 f8 ff ff 	movw   $0xfffc,-0x728(%rbp)
    ef8b:	fc ff 
    ef8d:	66 c7 85 da f8 ff ff 	movw   $0xfffc,-0x726(%rbp)
    ef94:	fc ff 
    ef96:	66 c7 85 dc f8 ff ff 	movw   $0xfffc,-0x724(%rbp)
    ef9d:	fc ff 
    ef9f:	66 c7 85 de f8 ff ff 	movw   $0xfffc,-0x722(%rbp)
    efa6:	fc ff 
    efa8:	66 c7 85 e0 f8 ff ff 	movw   $0xfffc,-0x720(%rbp)
    efaf:	fc ff 
    efb1:	66 c7 85 e2 f8 ff ff 	movw   $0xfffc,-0x71e(%rbp)
    efb8:	fc ff 
    efba:	48 c7 85 80 f8 ff ff 	movq   $0x0,-0x780(%rbp)
    efc1:	00 00 00 00 
    efc5:	c7 85 58 f7 ff ff 00 	movl   $0x0,-0x8a8(%rbp)
    efcc:	00 00 00 
    efcf:	eb 19                	jmp    efea <func_39+0x1d8>
    efd1:	8b 85 58 f7 ff ff    	mov    -0x8a8(%rbp),%eax
    efd7:	48 98                	cltq   
    efd9:	66 c7 84 45 9a f8 ff 	movw   $0xffff,-0x766(%rbp,%rax,2)
    efe0:	ff ff ff 
    efe3:	83 85 58 f7 ff ff 01 	addl   $0x1,-0x8a8(%rbp)
    efea:	83 bd 58 f7 ff ff 02 	cmpl   $0x2,-0x8a8(%rbp)
    eff1:	7e de                	jle    efd1 <func_39+0x1bf>
    eff3:	90                   	nop
    eff4:	48 8b 05 25 dc 00 00 	mov    0xdc25(%rip),%rax        # 1cc20 <g_630>
    effb:	8b 08                	mov    (%rax),%ecx
    effd:	0f b7 95 9a f8 ff ff 	movzwl -0x766(%rbp),%edx
    f004:	0f bf d2             	movswl %dx,%edx
    f007:	31 ca                	xor    %ecx,%edx
    f009:	89 10                	mov    %edx,(%rax)
    f00b:	48 8b 05 16 ce 00 00 	mov    0xce16(%rip),%rax        # 1be28 <g_166>
    f012:	c7 00 13 de cf 3e    	movl   $0x3ecfde13,(%rax)
    f018:	48 8b 05 09 dc 00 00 	mov    0xdc09(%rip),%rax        # 1cc28 <g_631>
    f01f:	48 8b 95 d8 f6 ff ff 	mov    -0x928(%rbp),%rdx
    f026:	48 89 10             	mov    %rdx,(%rax)
    f029:	c6 05 28 b0 00 00 00 	movb   $0x0,0xb028(%rip)        # 1a058 <g_71>
    f030:	e9 76 15 00 00       	jmpq   105ab <func_39+0x1799>
    f035:	48 c7 85 78 f8 ff ff 	movq   $0x0,-0x788(%rbp)
    f03c:	00 00 00 00 
    f040:	c7 85 4c f7 ff ff da 	movl   $0xafbb26da,-0x8b4(%rbp)
    f047:	26 bb af 
    f04a:	c7 85 50 f7 ff ff 0f 	movl   $0x44de550f,-0x8b0(%rbp)
    f051:	55 de 44 
    f054:	c7 85 54 f7 ff ff 01 	movl   $0x1,-0x8ac(%rbp)
    f05b:	00 00 00 
    f05e:	c7 85 38 f7 ff ff 2a 	movl   $0x45d82e2a,-0x8c8(%rbp)
    f065:	2e d8 45 
    f068:	c7 85 3c f7 ff ff bf 	movl   $0x7362bf,-0x8c4(%rbp)
    f06f:	62 73 00 
    f072:	c7 85 00 f7 ff ff f7 	movl   $0xfffffff7,-0x900(%rbp)
    f079:	ff ff ff 
    f07c:	c7 85 40 f7 ff ff fb 	movl   $0xd4a294fb,-0x8c0(%rbp)
    f083:	94 a2 d4 
    f086:	c7 85 f4 f6 ff ff 28 	movl   $0xe11b3f28,-0x90c(%rbp)
    f08d:	3f 1b e1 
    f090:	c7 85 44 f7 ff ff f9 	movl   $0x9b8b29f9,-0x8bc(%rbp)
    f097:	29 8b 9b 
    f09a:	c7 85 48 f7 ff ff d6 	movl   $0x33335fd6,-0x8b8(%rbp)
    f0a1:	5f 33 33 
    f0a4:	48 8d 05 b5 af 00 00 	lea    0xafb5(%rip),%rax        # 1a060 <g_94>
    f0ab:	48 89 85 90 f7 ff ff 	mov    %rax,-0x870(%rbp)
    f0b2:	48 8d 85 90 f7 ff ff 	lea    -0x870(%rbp),%rax
    f0b9:	48 89 85 48 f8 ff ff 	mov    %rax,-0x7b8(%rbp)
    f0c0:	48 8d 05 c9 b1 00 00 	lea    0xb1c9(%rip),%rax        # 1a290 <g_428>
    f0c7:	48 89 85 50 f8 ff ff 	mov    %rax,-0x7b0(%rbp)
    f0ce:	48 c7 85 98 f7 ff ff 	movq   $0x0,-0x868(%rbp)
    f0d5:	00 00 00 00 
    f0d9:	48 8d 85 98 f7 ff ff 	lea    -0x868(%rbp),%rax
    f0e0:	48 89 85 58 f8 ff ff 	mov    %rax,-0x7a8(%rbp)
    f0e7:	48 c7 85 60 f8 ff ff 	movq   $0x0,-0x7a0(%rbp)
    f0ee:	00 00 00 00 
    f0f2:	48 c7 85 68 f8 ff ff 	movq   $0x0,-0x798(%rbp)
    f0f9:	00 00 00 00 
    f0fd:	48 8d 05 48 af 00 00 	lea    0xaf48(%rip),%rax        # 1a04c <g_34+0xc>
    f104:	48 89 85 70 f8 ff ff 	mov    %rax,-0x790(%rbp)
    f10b:	48 8d 85 80 f7 ff ff 	lea    -0x880(%rbp),%rax
    f112:	48 89 85 20 fa ff ff 	mov    %rax,-0x5e0(%rbp)
    f119:	48 8d 85 80 f7 ff ff 	lea    -0x880(%rbp),%rax
    f120:	48 89 85 28 fa ff ff 	mov    %rax,-0x5d8(%rbp)
    f127:	48 8d 85 80 f7 ff ff 	lea    -0x880(%rbp),%rax
    f12e:	48 89 85 30 fa ff ff 	mov    %rax,-0x5d0(%rbp)
    f135:	48 8d 85 80 f7 ff ff 	lea    -0x880(%rbp),%rax
    f13c:	48 89 85 38 fa ff ff 	mov    %rax,-0x5c8(%rbp)
    f143:	48 8d 85 80 f7 ff ff 	lea    -0x880(%rbp),%rax
    f14a:	48 89 85 40 fa ff ff 	mov    %rax,-0x5c0(%rbp)
    f151:	48 8d 85 80 f7 ff ff 	lea    -0x880(%rbp),%rax
    f158:	48 89 85 48 fa ff ff 	mov    %rax,-0x5b8(%rbp)
    f15f:	48 8d 85 80 f7 ff ff 	lea    -0x880(%rbp),%rax
    f166:	48 89 85 50 fa ff ff 	mov    %rax,-0x5b0(%rbp)
    f16d:	48 8d 85 80 f7 ff ff 	lea    -0x880(%rbp),%rax
    f174:	48 89 85 58 fa ff ff 	mov    %rax,-0x5a8(%rbp)
    f17b:	48 8d 85 80 f7 ff ff 	lea    -0x880(%rbp),%rax
    f182:	48 89 85 60 fa ff ff 	mov    %rax,-0x5a0(%rbp)
    f189:	48 8d 85 80 f7 ff ff 	lea    -0x880(%rbp),%rax
    f190:	48 89 85 68 fa ff ff 	mov    %rax,-0x598(%rbp)
    f197:	48 8d 85 f4 f6 ff ff 	lea    -0x90c(%rbp),%rax
    f19e:	48 89 85 a0 f7 ff ff 	mov    %rax,-0x860(%rbp)
    f1a5:	66 c7 85 f2 f6 ff ff 	movw   $0x4cdd,-0x90e(%rbp)
    f1ac:	dd 4c 
    f1ae:	c7 05 7c e4 00 00 00 	movl   $0x0,0xe47c(%rip)        # 1d634 <g_139>
    f1b5:	00 00 00 
    f1b8:	90                   	nop
    f1b9:	8b 05 75 e4 00 00    	mov    0xe475(%rip),%eax        # 1d634 <g_139>
    f1bf:	83 f8 01             	cmp    $0x1,%eax
    f1c2:	0f 87 1d 12 00 00    	ja     103e5 <func_39+0x15d3>
    f1c8:	48 b8 70 f4 f4 f4 b1 	movabs $0xb1f4b1b1f4f4f470,%rax
    f1cf:	b1 f4 b1 
    f1d2:	48 89 85 f0 f8 ff ff 	mov    %rax,-0x710(%rbp)
    f1d9:	66 c7 85 f8 f8 ff ff 	movw   $0xf4b1,-0x708(%rbp)
    f1e0:	b1 f4 
    f1e2:	48 b8 b1 f4 b1 b1 f4 	movabs $0xf4b1b1f4b1b1f4b1,%rax
    f1e9:	b1 b1 f4 
    f1ec:	48 89 85 fa f8 ff ff 	mov    %rax,-0x706(%rbp)
    f1f3:	66 c7 85 02 f9 ff ff 	movw   $0xb1b1,-0x6fe(%rbp)
    f1fa:	b1 b1 
    f1fc:	48 b8 f4 f4 70 f4 f4 	movabs $0xf4f470f4f470f4f4,%rax
    f203:	70 f4 f4 
    f206:	48 89 85 04 f9 ff ff 	mov    %rax,-0x6fc(%rbp)
    f20d:	66 c7 85 0c f9 ff ff 	movw   $0xf470,-0x6f4(%rbp)
    f214:	70 f4 
    f216:	48 b8 f4 b1 b1 f4 b1 	movabs $0xb1f4b1b1f4b1b1f4,%rax
    f21d:	b1 f4 b1 
    f220:	48 89 85 0e f9 ff ff 	mov    %rax,-0x6f2(%rbp)
    f227:	66 c7 85 16 f9 ff ff 	movw   $0xf4b1,-0x6ea(%rbp)
    f22e:	b1 f4 
    f230:	48 8d 85 e0 fb ff ff 	lea    -0x420(%rbp),%rax
    f237:	48 8d 15 82 5e 00 00 	lea    0x5e82(%rip),%rdx        # 150c0 <g_1245+0x20>
    f23e:	b9 7d 00 00 00       	mov    $0x7d,%ecx
    f243:	48 89 c7             	mov    %rax,%rdi
    f246:	48 89 d6             	mov    %rdx,%rsi
    f249:	f3 48 a5             	rep movsq %ds:(%rsi),%es:(%rdi)
    f24c:	48 8d 85 68 f7 ff ff 	lea    -0x898(%rbp),%rax
    f253:	48 89 85 90 f9 ff ff 	mov    %rax,-0x670(%rbp)
    f25a:	48 8d 85 68 f7 ff ff 	lea    -0x898(%rbp),%rax
    f261:	48 89 85 98 f9 ff ff 	mov    %rax,-0x668(%rbp)
    f268:	48 8d 85 68 f7 ff ff 	lea    -0x898(%rbp),%rax
    f26f:	48 89 85 a0 f9 ff ff 	mov    %rax,-0x660(%rbp)
    f276:	48 8d 85 68 f7 ff ff 	lea    -0x898(%rbp),%rax
    f27d:	48 89 85 a8 f9 ff ff 	mov    %rax,-0x658(%rbp)
    f284:	48 8d 85 68 f7 ff ff 	lea    -0x898(%rbp),%rax
    f28b:	48 89 85 b0 f9 ff ff 	mov    %rax,-0x650(%rbp)
    f292:	48 8d 85 68 f7 ff ff 	lea    -0x898(%rbp),%rax
    f299:	48 89 85 b8 f9 ff ff 	mov    %rax,-0x648(%rbp)
    f2a0:	48 8d 85 68 f7 ff ff 	lea    -0x898(%rbp),%rax
    f2a7:	48 89 85 c0 f9 ff ff 	mov    %rax,-0x640(%rbp)
    f2ae:	48 8d 85 90 f9 ff ff 	lea    -0x670(%rbp),%rax
    f2b5:	48 83 c0 18          	add    $0x18,%rax
    f2b9:	48 89 85 a8 f7 ff ff 	mov    %rax,-0x858(%rbp)
    f2c0:	66 c7 85 a0 f8 ff ff 	movw   $0xffff,-0x760(%rbp)
    f2c7:	ff ff 
    f2c9:	66 c7 85 a2 f8 ff ff 	movw   $0xa547,-0x75e(%rbp)
    f2d0:	47 a5 
    f2d2:	66 c7 85 a4 f8 ff ff 	movw   $0xffff,-0x75c(%rbp)
    f2d9:	ff ff 
    f2db:	66 c7 85 a6 f8 ff ff 	movw   $0xa547,-0x75a(%rbp)
    f2e2:	47 a5 
    f2e4:	66 c7 85 a8 f8 ff ff 	movw   $0xffff,-0x758(%rbp)
    f2eb:	ff ff 
    f2ed:	66 c7 85 aa f8 ff ff 	movw   $0xa547,-0x756(%rbp)
    f2f4:	47 a5 
    f2f6:	66 c7 85 ac f8 ff ff 	movw   $0xffff,-0x754(%rbp)
    f2fd:	ff ff 
    f2ff:	66 c7 85 ae f8 ff ff 	movw   $0xa547,-0x752(%rbp)
    f306:	47 a5 
    f308:	48 c7 85 38 f8 ff ff 	movq   $0x0,-0x7c8(%rbp)
    f30f:	00 00 00 00 
    f313:	c6 85 f0 f6 ff ff 01 	movb   $0x1,-0x910(%rbp)
    f31a:	48 8d 05 37 d3 00 00 	lea    0xd337(%rip),%rax        # 1c658 <g_564>
    f321:	48 89 85 40 f8 ff ff 	mov    %rax,-0x7c0(%rbp)
    f328:	0f b7 85 9a f8 ff ff 	movzwl -0x766(%rbp),%eax
    f32f:	66 85 c0             	test   %ax,%ax
    f332:	0f 84 c7 00 00 00    	je     f3ff <func_39+0x5ed>
    f338:	66 83 bd cc f6 ff ff 	cmpw   $0x0,-0x934(%rbp)
    f33f:	00 
    f340:	0f 85 9e 10 00 00    	jne    103e4 <func_39+0x15d2>
    f346:	0f b6 95 f4 f8 ff ff 	movzbl -0x70c(%rbp),%edx
    f34d:	48 8b 05 d4 e2 00 00 	mov    0xe2d4(%rip),%rax        # 1d628 <g_101>
    f354:	0f be d2             	movsbl %dl,%edx
    f357:	89 10                	mov    %edx,(%rax)
    f359:	66 c7 85 c8 f6 ff ff 	movw   $0x1,-0x938(%rbp)
    f360:	01 00 
    f362:	eb 69                	jmp    f3cd <func_39+0x5bb>
    f364:	c7 85 64 f7 ff ff ee 	movl   $0x8ace08ee,-0x89c(%rbp)
    f36b:	08 ce 8a 
    f36e:	83 bd 64 f7 ff ff 00 	cmpl   $0x0,-0x89c(%rbp)
    f375:	75 62                	jne    f3d9 <func_39+0x5c7>
    f377:	80 bd f1 f6 ff ff 00 	cmpb   $0x0,-0x90f(%rbp)
    f37e:	75 5c                	jne    f3dc <func_39+0x5ca>
    f380:	48 8b 05 a1 e2 00 00 	mov    0xe2a1(%rip),%rax        # 1d628 <g_101>
    f387:	8b 10                	mov    (%rax),%edx
    f389:	0f b6 85 fe f8 ff ff 	movzbl -0x702(%rbp),%eax
    f390:	0f be c0             	movsbl %al,%eax
    f393:	f7 d0                	not    %eax
    f395:	89 c1                	mov    %eax,%ecx
    f397:	48 8b 05 8a e2 00 00 	mov    0xe28a(%rip),%rax        # 1d628 <g_101>
    f39e:	21 ca                	and    %ecx,%edx
    f3a0:	89 10                	mov    %edx,(%rax)
    f3a2:	48 8b 05 7f e2 00 00 	mov    0xe27f(%rip),%rax        # 1d628 <g_101>
    f3a9:	8b 00                	mov    (%rax),%eax
    f3ab:	33 85 64 f7 ff ff    	xor    -0x89c(%rbp),%eax
    f3b1:	89 c2                	mov    %eax,%edx
    f3b3:	48 8b 05 6e e2 00 00 	mov    0xe26e(%rip),%rax        # 1d628 <g_101>
    f3ba:	89 10                	mov    %edx,(%rax)
    f3bc:	0f b7 85 c8 f6 ff ff 	movzwl -0x938(%rbp),%eax
    f3c3:	83 e8 01             	sub    $0x1,%eax
    f3c6:	66 89 85 c8 f6 ff ff 	mov    %ax,-0x938(%rbp)
    f3cd:	66 83 bd c8 f6 ff ff 	cmpw   $0x0,-0x938(%rbp)
    f3d4:	00 
    f3d5:	79 8d                	jns    f364 <func_39+0x552>
    f3d7:	eb 04                	jmp    f3dd <func_39+0x5cb>
    f3d9:	90                   	nop
    f3da:	eb 01                	jmp    f3dd <func_39+0x5cb>
    f3dc:	90                   	nop
    f3dd:	48 8b 05 4c d8 00 00 	mov    0xd84c(%rip),%rax        # 1cc30 <g_639>
    f3e4:	48 8b 95 68 f7 ff ff 	mov    -0x898(%rbp),%rdx
    f3eb:	48 89 10             	mov    %rdx,(%rax)
    f3ee:	48 8b 05 2b ca 00 00 	mov    0xca2b(%rip),%rax        # 1be20 <g_137>
    f3f5:	48 8b 00             	mov    (%rax),%rax
    f3f8:	8b 00                	mov    (%rax),%eax
    f3fa:	e9 c4 11 00 00       	jmpq   105c3 <func_39+0x17b1>
    f3ff:	c7 85 f8 f6 ff ff ff 	movl   $0xffffffff,-0x908(%rbp)
    f406:	ff ff ff 
    f409:	48 c7 85 d0 f9 ff ff 	movq   $0x0,-0x630(%rbp)
    f410:	00 00 00 00 
    f414:	48 c7 85 d8 f9 ff ff 	movq   $0x0,-0x628(%rbp)
    f41b:	00 00 00 00 
    f41f:	48 8d 05 62 ae 00 00 	lea    0xae62(%rip),%rax        # 1a288 <g_311>
    f426:	48 89 85 e0 f9 ff ff 	mov    %rax,-0x620(%rbp)
    f42d:	48 c7 85 e8 f9 ff ff 	movq   $0x0,-0x618(%rbp)
    f434:	00 00 00 00 
    f438:	48 c7 85 f0 f9 ff ff 	movq   $0x0,-0x610(%rbp)
    f43f:	00 00 00 00 
    f443:	48 8d 05 3e ae 00 00 	lea    0xae3e(%rip),%rax        # 1a288 <g_311>
    f44a:	48 89 85 f8 f9 ff ff 	mov    %rax,-0x608(%rbp)
    f451:	48 c7 85 00 fa ff ff 	movq   $0x0,-0x600(%rbp)
    f458:	00 00 00 00 
    f45c:	48 c7 85 08 fa ff ff 	movq   $0x0,-0x5f8(%rbp)
    f463:	00 00 00 00 
    f467:	48 8d 05 1a ae 00 00 	lea    0xae1a(%rip),%rax        # 1a288 <g_311>
    f46e:	48 89 85 10 fa ff ff 	mov    %rax,-0x5f0(%rbp)
    f475:	c7 85 34 f7 ff ff 75 	movl   $0x6f5c7f75,-0x8cc(%rbp)
    f47c:	7f 5c 6f 
    f47f:	c7 85 24 f7 ff ff 00 	movl   $0x0,-0x8dc(%rbp)
    f486:	00 00 00 
    f489:	c7 85 28 f7 ff ff 1b 	movl   $0x476ab71b,-0x8d8(%rbp)
    f490:	b7 6a 47 
    f493:	c7 85 2c f7 ff ff 00 	movl   $0x0,-0x8d4(%rbp)
    f49a:	00 00 00 
    f49d:	c7 85 30 f7 ff ff 00 	movl   $0x0,-0x8d0(%rbp)
    f4a4:	00 00 00 
    f4a7:	48 c7 85 20 f8 ff ff 	movq   $0x0,-0x7e0(%rbp)
    f4ae:	00 00 00 00 
    f4b2:	48 8d 05 d7 ad 00 00 	lea    0xadd7(%rip),%rax        # 1a290 <g_428>
    f4b9:	48 89 85 b0 f7 ff ff 	mov    %rax,-0x850(%rbp)
    f4c0:	c6 85 ef f6 ff ff 0a 	movb   $0xa,-0x911(%rbp)
    f4c7:	48 8d 05 92 ad 00 00 	lea    0xad92(%rip),%rax        # 1a260 <g_107+0x40>
    f4ce:	48 89 85 b8 f7 ff ff 	mov    %rax,-0x848(%rbp)
    f4d5:	48 8d 85 b8 f7 ff ff 	lea    -0x848(%rbp),%rax
    f4dc:	48 89 85 c0 f7 ff ff 	mov    %rax,-0x840(%rbp)
    f4e3:	48 8d 85 c0 f7 ff ff 	lea    -0x840(%rbp),%rax
    f4ea:	48 89 85 28 f8 ff ff 	mov    %rax,-0x7d8(%rbp)
    f4f1:	48 c7 85 30 f8 ff ff 	movq   $0x0,-0x7d0(%rbp)
    f4f8:	00 00 00 00 
    f4fc:	c7 85 20 f7 ff ff 00 	movl   $0x0,-0x8e0(%rbp)
    f503:	00 00 00 
    f506:	eb 1e                	jmp    f526 <func_39+0x714>
    f508:	8b 85 20 f7 ff ff    	mov    -0x8e0(%rbp),%eax
    f50e:	48 98                	cltq   
    f510:	48 8d 15 b9 ad 00 00 	lea    0xadb9(%rip),%rdx        # 1a2d0 <g_511>
    f517:	48 89 94 c5 20 f9 ff 	mov    %rdx,-0x6e0(%rbp,%rax,8)
    f51e:	ff 
    f51f:	83 85 20 f7 ff ff 01 	addl   $0x1,-0x8e0(%rbp)
    f526:	83 bd 20 f7 ff ff 04 	cmpl   $0x4,-0x8e0(%rbp)
    f52d:	7e d9                	jle    f508 <func_39+0x6f6>
    f52f:	66 83 bd cc f6 ff ff 	cmpw   $0x0,-0x934(%rbp)
    f536:	00 
    f537:	75 4a                	jne    f583 <func_39+0x771>
    f539:	48 8b 85 68 f7 ff ff 	mov    -0x898(%rbp),%rax
    f540:	8b 00                	mov    (%rax),%eax
    f542:	83 f8 08             	cmp    $0x8,%eax
    f545:	0f 95 c0             	setne  %al
    f548:	0f b6 c0             	movzbl %al,%eax
    f54b:	be 57 ce ff ff       	mov    $0xffffce57,%esi
    f550:	89 c7                	mov    %eax,%edi
    f552:	e8 9e 7e ff ff       	callq  73f5 <safe_mul_func_int16_t_s_s>
    f557:	48 8b 85 68 f7 ff ff 	mov    -0x898(%rbp),%rax
    f55e:	8b 00                	mov    (%rax),%eax
    f560:	89 c3                	mov    %eax,%ebx
    f562:	be 01 00 00 00       	mov    $0x1,%esi
    f567:	bf 00 00 00 00       	mov    $0x0,%edi
    f56c:	e8 84 7e ff ff       	callq  73f5 <safe_mul_func_int16_t_s_s>
    f571:	8b 85 d0 f6 ff ff    	mov    -0x930(%rbp),%eax
    f577:	0f be c0             	movsbl %al,%eax
    f57a:	89 de                	mov    %ebx,%esi
    f57c:	89 c7                	mov    %eax,%edi
    f57e:	e8 e9 7d ff ff       	callq  736c <safe_rshift_func_int8_t_s_u>
    f583:	48 8b 85 68 f7 ff ff 	mov    -0x898(%rbp),%rax
    f58a:	8b 00                	mov    (%rax),%eax
    f58c:	0f b7 c0             	movzwl %ax,%eax
    f58f:	be 09 00 00 00       	mov    $0x9,%esi
    f594:	89 c7                	mov    %eax,%edi
    f596:	e8 ad 88 ff ff       	callq  7e48 <safe_rshift_func_uint16_t_u_s>
    f59b:	0f b6 c0             	movzbl %al,%eax
    f59e:	be 01 00 00 00       	mov    $0x1,%esi
    f5a3:	89 c7                	mov    %eax,%edi
    f5a5:	e8 e9 85 ff ff       	callq  7b93 <safe_mul_func_uint8_t_u_u>
    f5aa:	0f b6 d0             	movzbl %al,%edx
    f5ad:	0f bf 85 cc f6 ff ff 	movswl -0x934(%rbp),%eax
    f5b4:	39 c2                	cmp    %eax,%edx
    f5b6:	0f 9d c0             	setge  %al
    f5b9:	0f b6 d0             	movzbl %al,%edx
    f5bc:	8b 85 d0 f6 ff ff    	mov    -0x930(%rbp),%eax
    f5c2:	39 c2                	cmp    %eax,%edx
    f5c4:	75 0a                	jne    f5d0 <func_39+0x7be>
    f5c6:	8b 85 d0 f6 ff ff    	mov    -0x930(%rbp),%eax
    f5cc:	85 c0                	test   %eax,%eax
    f5ce:	74 07                	je     f5d7 <func_39+0x7c5>
    f5d0:	ba 01 00 00 00       	mov    $0x1,%edx
    f5d5:	eb 05                	jmp    f5dc <func_39+0x7ca>
    f5d7:	ba 00 00 00 00       	mov    $0x0,%edx
    f5dc:	0f b7 05 63 aa 00 00 	movzwl 0xaa63(%rip),%eax        # 1a046 <g_34+0x6>
    f5e3:	0f b7 c0             	movzwl %ax,%eax
    f5e6:	39 c2                	cmp    %eax,%edx
    f5e8:	0f 9c c0             	setl   %al
    f5eb:	0f b6 d0             	movzbl %al,%edx
    f5ee:	0f bf 85 c8 f6 ff ff 	movswl -0x938(%rbp),%eax
    f5f5:	39 c2                	cmp    %eax,%edx
    f5f7:	0f 95 c0             	setne  %al
    f5fa:	0f b6 c0             	movzbl %al,%eax
    f5fd:	be 02 00 00 00       	mov    $0x2,%esi
    f602:	89 c7                	mov    %eax,%edi
    f604:	e8 98 7c ff ff       	callq  72a1 <safe_lshift_func_int8_t_s_s>
    f609:	0f be c0             	movsbl %al,%eax
    f60c:	be 95 ff ff ff       	mov    $0xffffff95,%esi
    f611:	89 c7                	mov    %eax,%edi
    f613:	e8 fa 7b ff ff       	callq  7212 <safe_mul_func_int8_t_s_s>
    f618:	84 c0                	test   %al,%al
    f61a:	0f 84 43 0a 00 00    	je     10063 <func_39+0x1251>
    f620:	48 8d 05 33 aa 00 00 	lea    0xaa33(%rip),%rax        # 1a05a <g_89>
    f627:	48 89 85 18 f8 ff ff 	mov    %rax,-0x7e8(%rbp)
    f62e:	c7 85 fc f6 ff ff fa 	movl   $0xfffffffa,-0x904(%rbp)
    f635:	ff ff ff 
    f638:	c7 85 0c f7 ff ff 07 	movl   $0x7,-0x8f4(%rbp)
    f63f:	00 00 00 
    f642:	c7 85 10 f7 ff ff 08 	movl   $0x8,-0x8f0(%rbp)
    f649:	00 00 00 
    f64c:	c7 85 14 f7 ff ff f8 	movl   $0xfffffff8,-0x8ec(%rbp)
    f653:	ff ff ff 
    f656:	c7 85 18 f7 ff ff c3 	movl   $0x25546c3,-0x8e8(%rbp)
    f65d:	46 55 02 
    f660:	48 c7 85 f0 f7 ff ff 	movq   $0x1,-0x810(%rbp)
    f667:	01 00 00 00 
    f66b:	c7 85 1c f7 ff ff 00 	movl   $0x0,-0x8e4(%rbp)
    f672:	00 00 00 
    f675:	eb 46                	jmp    f6bd <func_39+0x8ab>
    f677:	c7 85 5c f7 ff ff 00 	movl   $0x0,-0x8a4(%rbp)
    f67e:	00 00 00 
    f681:	eb 2a                	jmp    f6ad <func_39+0x89b>
    f683:	8b 85 5c f7 ff ff    	mov    -0x8a4(%rbp),%eax
    f689:	48 98                	cltq   
    f68b:	8b 95 1c f7 ff ff    	mov    -0x8e4(%rbp),%edx
    f691:	48 63 d2             	movslq %edx,%rdx
    f694:	48 c1 e2 02          	shl    $0x2,%rdx
    f698:	48 01 d0             	add    %rdx,%rax
    f69b:	c7 84 85 b0 f8 ff ff 	movl   $0x2f8ca723,-0x750(%rbp,%rax,4)
    f6a2:	23 a7 8c 2f 
    f6a6:	83 85 5c f7 ff ff 01 	addl   $0x1,-0x8a4(%rbp)
    f6ad:	83 bd 5c f7 ff ff 03 	cmpl   $0x3,-0x8a4(%rbp)
    f6b4:	7e cd                	jle    f683 <func_39+0x871>
    f6b6:	83 85 1c f7 ff ff 01 	addl   $0x1,-0x8e4(%rbp)
    f6bd:	83 bd 1c f7 ff ff 00 	cmpl   $0x0,-0x8e4(%rbp)
    f6c4:	7e b1                	jle    f677 <func_39+0x865>
    f6c6:	0f b6 85 f4 f8 ff ff 	movzbl -0x70c(%rbp),%eax
    f6cd:	0f be d0             	movsbl %al,%edx
    f6d0:	8b 85 f8 f6 ff ff    	mov    -0x908(%rbp),%eax
    f6d6:	39 c2                	cmp    %eax,%edx
    f6d8:	0f 94 c0             	sete   %al
    f6db:	0f b6 d8             	movzbl %al,%ebx
    f6de:	48 8b 85 18 f8 ff ff 	mov    -0x7e8(%rbp),%rax
    f6e5:	0f b7 00             	movzwl (%rax),%eax
    f6e8:	8d 48 ff             	lea    -0x1(%rax),%ecx
    f6eb:	48 8b 95 18 f8 ff ff 	mov    -0x7e8(%rbp),%rdx
    f6f2:	66 89 0a             	mov    %cx,(%rdx)
    f6f5:	0f b7 c0             	movzwl %ax,%eax
    f6f8:	be fa ff 00 00       	mov    $0xfffa,%esi
    f6fd:	89 c7                	mov    %eax,%edi
    f6ff:	e8 1b 86 ff ff       	callq  7d1f <safe_sub_func_uint16_t_u_u>
    f704:	0f b7 c0             	movzwl %ax,%eax
    f707:	09 d8                	or     %ebx,%eax
    f709:	85 c0                	test   %eax,%eax
    f70b:	0f 84 b0 00 00 00    	je     f7c1 <func_39+0x9af>
    f711:	48 8d 05 b8 ab 00 00 	lea    0xabb8(%rip),%rax        # 1a2d0 <g_511>
    f718:	48 89 85 e0 f7 ff ff 	mov    %rax,-0x820(%rbp)
    f71f:	48 c7 85 d0 f7 ff ff 	movq   $0x0,-0x830(%rbp)
    f726:	00 00 00 00 
    f72a:	48 8d 05 b7 ab 00 00 	lea    0xabb7(%rip),%rax        # 1a2e8 <g_673>
    f731:	48 89 85 d8 f7 ff ff 	mov    %rax,-0x828(%rbp)
    f738:	c7 85 04 f7 ff ff 04 	movl   $0x4,-0x8fc(%rbp)
    f73f:	00 00 00 
    f742:	48 8b 85 e0 f7 ff ff 	mov    -0x820(%rbp),%rax
    f749:	0f b6 00             	movzbl (%rax),%eax
    f74c:	8d 50 ff             	lea    -0x1(%rax),%edx
    f74f:	48 8b 85 e0 f7 ff ff 	mov    -0x820(%rbp),%rax
    f756:	88 10                	mov    %dl,(%rax)
    f758:	48 8b 85 e0 f7 ff ff 	mov    -0x820(%rbp),%rax
    f75f:	0f b6 10             	movzbl (%rax),%edx
    f762:	48 8b 85 d8 f7 ff ff 	mov    -0x828(%rbp),%rax
    f769:	88 10                	mov    %dl,(%rax)
    f76b:	48 8b 85 d8 f7 ff ff 	mov    -0x828(%rbp),%rax
    f772:	0f b6 00             	movzbl (%rax),%eax
    f775:	0f b6 d0             	movzbl %al,%edx
    f778:	48 8b 05 d9 ce 00 00 	mov    0xced9(%rip),%rax        # 1c658 <g_564>
    f77f:	0f b6 08             	movzbl (%rax),%ecx
    f782:	48 8b 05 cf ce 00 00 	mov    0xcecf(%rip),%rax        # 1c658 <g_564>
    f789:	83 f1 01             	xor    $0x1,%ecx
    f78c:	88 08                	mov    %cl,(%rax)
    f78e:	0f b6 00             	movzbl (%rax),%eax
    f791:	0f be c0             	movsbl %al,%eax
    f794:	39 c2                	cmp    %eax,%edx
    f796:	0f 9e c0             	setle  %al
    f799:	0f b6 c0             	movzbl %al,%eax
    f79c:	09 85 04 f7 ff ff    	or     %eax,-0x8fc(%rbp)
    f7a2:	8b 85 04 f7 ff ff    	mov    -0x8fc(%rbp),%eax
    f7a8:	89 85 fc f6 ff ff    	mov    %eax,-0x904(%rbp)
    f7ae:	66 83 bd cc f6 ff ff 	cmpw   $0x0,-0x934(%rbp)
    f7b5:	00 
    f7b6:	0f 84 74 04 00 00    	je     fc30 <func_39+0xe1e>
    f7bc:	e9 24 0c 00 00       	jmpq   103e5 <func_39+0x15d3>
    f7c1:	48 8d 05 70 de 00 00 	lea    0xde70(%rip),%rax        # 1d638 <g_167>
    f7c8:	48 89 85 f8 f7 ff ff 	mov    %rax,-0x808(%rbp)
    f7cf:	48 8d 85 fc f6 ff ff 	lea    -0x904(%rbp),%rax
    f7d6:	48 89 85 00 f8 ff ff 	mov    %rax,-0x800(%rbp)
    f7dd:	48 8d 85 e0 fb ff ff 	lea    -0x420(%rbp),%rax
    f7e4:	48 05 f4 00 00 00    	add    $0xf4,%rax
    f7ea:	48 89 85 08 f8 ff ff 	mov    %rax,-0x7f8(%rbp)
    f7f1:	48 8d 85 fc f6 ff ff 	lea    -0x904(%rbp),%rax
    f7f8:	48 89 85 10 f8 ff ff 	mov    %rax,-0x7f0(%rbp)
    f7ff:	48 8d 85 e0 fb ff ff 	lea    -0x420(%rbp),%rax
    f806:	48 05 ac 03 00 00    	add    $0x3ac,%rax
    f80c:	48 89 85 70 fa ff ff 	mov    %rax,-0x590(%rbp)
    f813:	48 8d 85 e0 fb ff ff 	lea    -0x420(%rbp),%rax
    f81a:	48 05 0c 01 00 00    	add    $0x10c,%rax
    f820:	48 89 85 78 fa ff ff 	mov    %rax,-0x588(%rbp)
    f827:	48 8d 85 f8 f6 ff ff 	lea    -0x908(%rbp),%rax
    f82e:	48 89 85 80 fa ff ff 	mov    %rax,-0x580(%rbp)
    f835:	48 c7 85 88 fa ff ff 	movq   $0x0,-0x578(%rbp)
    f83c:	00 00 00 00 
    f840:	48 8d 05 f1 dd 00 00 	lea    0xddf1(%rip),%rax        # 1d638 <g_167>
    f847:	48 89 85 90 fa ff ff 	mov    %rax,-0x570(%rbp)
    f84e:	48 c7 85 98 fa ff ff 	movq   $0x0,-0x568(%rbp)
    f855:	00 00 00 00 
    f859:	48 8d 85 e0 fb ff ff 	lea    -0x420(%rbp),%rax
    f860:	48 05 ac 03 00 00    	add    $0x3ac,%rax
    f866:	48 89 85 a0 fa ff ff 	mov    %rax,-0x560(%rbp)
    f86d:	48 8d 85 e0 fb ff ff 	lea    -0x420(%rbp),%rax
    f874:	48 05 ac 03 00 00    	add    $0x3ac,%rax
    f87a:	48 89 85 a8 fa ff ff 	mov    %rax,-0x558(%rbp)
    f881:	48 c7 85 b0 fa ff ff 	movq   $0x0,-0x550(%rbp)
    f888:	00 00 00 00 
    f88c:	48 8d 05 a5 dd 00 00 	lea    0xdda5(%rip),%rax        # 1d638 <g_167>
    f893:	48 89 85 b8 fa ff ff 	mov    %rax,-0x548(%rbp)
    f89a:	48 8d 85 e0 fb ff ff 	lea    -0x420(%rbp),%rax
    f8a1:	48 05 ac 03 00 00    	add    $0x3ac,%rax
    f8a7:	48 89 85 c0 fa ff ff 	mov    %rax,-0x540(%rbp)
    f8ae:	48 c7 85 c8 fa ff ff 	movq   $0x0,-0x538(%rbp)
    f8b5:	00 00 00 00 
    f8b9:	48 8d 85 f8 f6 ff ff 	lea    -0x908(%rbp),%rax
    f8c0:	48 89 85 d0 fa ff ff 	mov    %rax,-0x530(%rbp)
    f8c7:	48 8d 05 6a dd 00 00 	lea    0xdd6a(%rip),%rax        # 1d638 <g_167>
    f8ce:	48 89 85 d8 fa ff ff 	mov    %rax,-0x528(%rbp)
    f8d5:	48 8d 85 e0 fb ff ff 	lea    -0x420(%rbp),%rax
    f8dc:	48 05 0c 01 00 00    	add    $0x10c,%rax
    f8e2:	48 89 85 e0 fa ff ff 	mov    %rax,-0x520(%rbp)
    f8e9:	48 8d 85 f8 f6 ff ff 	lea    -0x908(%rbp),%rax
    f8f0:	48 89 85 e8 fa ff ff 	mov    %rax,-0x518(%rbp)
    f8f7:	48 8d 05 3a dd 00 00 	lea    0xdd3a(%rip),%rax        # 1d638 <g_167>
    f8fe:	48 89 85 f0 fa ff ff 	mov    %rax,-0x510(%rbp)
    f905:	48 8d 05 2c dd 00 00 	lea    0xdd2c(%rip),%rax        # 1d638 <g_167>
    f90c:	48 89 85 f8 fa ff ff 	mov    %rax,-0x508(%rbp)
    f913:	48 8d 05 1e dd 00 00 	lea    0xdd1e(%rip),%rax        # 1d638 <g_167>
    f91a:	48 89 85 00 fb ff ff 	mov    %rax,-0x500(%rbp)
    f921:	48 8d 85 f8 f6 ff ff 	lea    -0x908(%rbp),%rax
    f928:	48 89 85 08 fb ff ff 	mov    %rax,-0x4f8(%rbp)
    f92f:	48 c7 85 10 fb ff ff 	movq   $0x0,-0x4f0(%rbp)
    f936:	00 00 00 00 
    f93a:	48 c7 85 18 fb ff ff 	movq   $0x0,-0x4e8(%rbp)
    f941:	00 00 00 00 
    f945:	48 8d 85 e0 fb ff ff 	lea    -0x420(%rbp),%rax
    f94c:	48 05 ac 03 00 00    	add    $0x3ac,%rax
    f952:	48 89 85 20 fb ff ff 	mov    %rax,-0x4e0(%rbp)
    f959:	48 8d 05 d8 dc 00 00 	lea    0xdcd8(%rip),%rax        # 1d638 <g_167>
    f960:	48 89 85 28 fb ff ff 	mov    %rax,-0x4d8(%rbp)
    f967:	48 c7 85 30 fb ff ff 	movq   $0x0,-0x4d0(%rbp)
    f96e:	00 00 00 00 
    f972:	48 8d 85 f8 f6 ff ff 	lea    -0x908(%rbp),%rax
    f979:	48 89 85 38 fb ff ff 	mov    %rax,-0x4c8(%rbp)
    f980:	48 8d 85 e0 fb ff ff 	lea    -0x420(%rbp),%rax
    f987:	48 05 b0 00 00 00    	add    $0xb0,%rax
    f98d:	48 89 85 40 fb ff ff 	mov    %rax,-0x4c0(%rbp)
    f994:	48 c7 85 48 fb ff ff 	movq   $0x0,-0x4b8(%rbp)
    f99b:	00 00 00 00 
    f99f:	48 c7 85 50 fb ff ff 	movq   $0x0,-0x4b0(%rbp)
    f9a6:	00 00 00 00 
    f9aa:	48 8d 85 e0 fb ff ff 	lea    -0x420(%rbp),%rax
    f9b1:	48 05 b0 00 00 00    	add    $0xb0,%rax
    f9b7:	48 89 85 58 fb ff ff 	mov    %rax,-0x4a8(%rbp)
    f9be:	48 8d 85 fc f6 ff ff 	lea    -0x904(%rbp),%rax
    f9c5:	48 89 85 60 fb ff ff 	mov    %rax,-0x4a0(%rbp)
    f9cc:	48 8d 85 f8 f6 ff ff 	lea    -0x908(%rbp),%rax
    f9d3:	48 89 85 68 fb ff ff 	mov    %rax,-0x498(%rbp)
    f9da:	48 8d 85 e0 fb ff ff 	lea    -0x420(%rbp),%rax
    f9e1:	48 05 ac 03 00 00    	add    $0x3ac,%rax
    f9e7:	48 89 85 70 fb ff ff 	mov    %rax,-0x490(%rbp)
    f9ee:	48 c7 85 78 fb ff ff 	movq   $0x0,-0x488(%rbp)
    f9f5:	00 00 00 00 
    f9f9:	48 c7 85 80 fb ff ff 	movq   $0x0,-0x480(%rbp)
    fa00:	00 00 00 00 
    fa04:	48 8d 05 2d dc 00 00 	lea    0xdc2d(%rip),%rax        # 1d638 <g_167>
    fa0b:	48 89 85 88 fb ff ff 	mov    %rax,-0x478(%rbp)
    fa12:	48 c7 85 90 fb ff ff 	movq   $0x0,-0x470(%rbp)
    fa19:	00 00 00 00 
    fa1d:	48 8d 85 f8 f6 ff ff 	lea    -0x908(%rbp),%rax
    fa24:	48 89 85 98 fb ff ff 	mov    %rax,-0x468(%rbp)
    fa2b:	48 8d 85 e0 fb ff ff 	lea    -0x420(%rbp),%rax
    fa32:	48 05 ac 03 00 00    	add    $0x3ac,%rax
    fa38:	48 89 85 a0 fb ff ff 	mov    %rax,-0x460(%rbp)
    fa3f:	48 8d 85 f8 f6 ff ff 	lea    -0x908(%rbp),%rax
    fa46:	48 89 85 a8 fb ff ff 	mov    %rax,-0x458(%rbp)
    fa4d:	48 c7 85 b0 fb ff ff 	movq   $0x0,-0x450(%rbp)
    fa54:	00 00 00 00 
    fa58:	48 c7 85 b8 fb ff ff 	movq   $0x0,-0x448(%rbp)
    fa5f:	00 00 00 00 
    fa63:	48 c7 85 c0 fb ff ff 	movq   $0x0,-0x440(%rbp)
    fa6a:	00 00 00 00 
    fa6e:	48 8d 85 fc f6 ff ff 	lea    -0x904(%rbp),%rax
    fa75:	48 89 85 c8 fb ff ff 	mov    %rax,-0x438(%rbp)
    fa7c:	48 8d 85 e0 fb ff ff 	lea    -0x420(%rbp),%rax
    fa83:	48 05 0c 01 00 00    	add    $0x10c,%rax
    fa89:	48 89 85 d0 fb ff ff 	mov    %rax,-0x430(%rbp)
    fa90:	66 c7 85 c0 f8 ff ff 	movw   $0xfffb,-0x740(%rbp)
    fa97:	fb ff 
    fa99:	66 c7 85 c2 f8 ff ff 	movw   $0xfffb,-0x73e(%rbp)
    faa0:	fb ff 
    faa2:	66 c7 85 c4 f8 ff ff 	movw   $0x6,-0x73c(%rbp)
    faa9:	06 00 
    faab:	66 c7 85 c6 f8 ff ff 	movw   $0xfffb,-0x73a(%rbp)
    fab2:	fb ff 
    fab4:	66 c7 85 c8 f8 ff ff 	movw   $0xfffb,-0x738(%rbp)
    fabb:	fb ff 
    fabd:	66 c7 85 ca f8 ff ff 	movw   $0x6,-0x736(%rbp)
    fac4:	06 00 
    fac6:	66 c7 85 cc f8 ff ff 	movw   $0xfffb,-0x734(%rbp)
    facd:	fb ff 
    facf:	66 c7 85 ce f8 ff ff 	movw   $0xfffb,-0x732(%rbp)
    fad6:	fb ff 
    fad8:	48 8d 05 7d a5 00 00 	lea    0xa57d(%rip),%rax        # 1a05c <g_92>
    fadf:	48 89 85 e8 f7 ff ff 	mov    %rax,-0x818(%rbp)
    fae6:	48 83 85 f0 f7 ff ff 	addq   $0x1,-0x810(%rbp)
    faed:	01 
    faee:	8b 05 c4 a7 00 00    	mov    0xa7c4(%rip),%eax        # 1a2b8 <g_469+0x18>
    faf4:	be dd 6e 17 d8       	mov    $0xd8176edd,%esi
    faf9:	89 c7                	mov    %eax,%edi
    fafb:	e8 d0 83 ff ff       	callq  7ed0 <safe_sub_func_uint32_t_u_u>
    fb00:	41 89 c5             	mov    %eax,%r13d
    fb03:	8b 85 3c f7 ff ff    	mov    -0x8c4(%rbp),%eax
    fb09:	89 c2                	mov    %eax,%edx
    fb0b:	48 8b 85 e8 f7 ff ff 	mov    -0x818(%rbp),%rax
    fb12:	66 89 10             	mov    %dx,(%rax)
    fb15:	48 8b 85 e8 f7 ff ff 	mov    -0x818(%rbp),%rax
    fb1c:	0f b7 00             	movzwl (%rax),%eax
    fb1f:	0f bf d8             	movswl %ax,%ebx
    fb22:	8b 05 90 a7 00 00    	mov    0xa790(%rip),%eax        # 1a2b8 <g_469+0x18>
    fb28:	0f b7 c0             	movzwl %ax,%eax
    fb2b:	be 0d 00 00 00       	mov    $0xd,%esi
    fb30:	89 c7                	mov    %eax,%edi
    fb32:	e8 43 83 ff ff       	callq  7e7a <safe_rshift_func_uint16_t_u_u>
    fb37:	0f b7 c0             	movzwl %ax,%eax
    fb3a:	39 c3                	cmp    %eax,%ebx
    fb3c:	7d 15                	jge    fb53 <func_39+0xd41>
    fb3e:	48 8b 85 00 f8 ff ff 	mov    -0x800(%rbp),%rax
    fb45:	8b 00                	mov    (%rax),%eax
    fb47:	85 c0                	test   %eax,%eax
    fb49:	74 08                	je     fb53 <func_39+0xd41>
    fb4b:	41 be 01 00 00 00    	mov    $0x1,%r14d
    fb51:	eb 06                	jmp    fb59 <func_39+0xd47>
    fb53:	41 be 00 00 00 00    	mov    $0x0,%r14d
    fb59:	8b 9d 34 f7 ff ff    	mov    -0x8cc(%rbp),%ebx
    fb5f:	0f b6 85 f4 f8 ff ff 	movzbl -0x70c(%rbp),%eax
    fb66:	44 0f be e0          	movsbl %al,%r12d
    fb6a:	8b 85 b8 f8 ff ff    	mov    -0x748(%rbp),%eax
    fb70:	85 c0                	test   %eax,%eax
    fb72:	74 20                	je     fb94 <func_39+0xd82>
    fb74:	be 07 00 00 00       	mov    $0x7,%esi
    fb79:	bf a1 9d ff ff       	mov    $0xffff9da1,%edi
    fb7e:	e8 5e 79 ff ff       	callq  74e1 <safe_lshift_func_int16_t_s_u>
    fb83:	0f be c0             	movsbl %al,%eax
    fb86:	89 c6                	mov    %eax,%esi
    fb88:	bf ff ff ff ff       	mov    $0xffffffff,%edi
    fb8d:	e8 d8 76 ff ff       	callq  726a <safe_div_func_int8_t_s_s>
    fb92:	84 c0                	test   %al,%al
    fb94:	48 8b 05 bd ca 00 00 	mov    0xcabd(%rip),%rax        # 1c658 <g_564>
    fb9b:	0f b6 00             	movzbl (%rax),%eax
    fb9e:	0f be c0             	movsbl %al,%eax
    fba1:	44 89 e6             	mov    %r12d,%esi
    fba4:	89 c7                	mov    %eax,%edi
    fba6:	e8 67 76 ff ff       	callq  7212 <safe_mul_func_int8_t_s_s>
    fbab:	89 de                	mov    %ebx,%esi
    fbad:	bf 34 00 00 00       	mov    $0x34,%edi
    fbb2:	e8 07 81 ff ff       	callq  7cbe <safe_rshift_func_uint8_t_u_u>
    fbb7:	0f b6 d0             	movzbl %al,%edx
    fbba:	0f b6 05 4f a6 00 00 	movzbl 0xa64f(%rip),%eax        # 1a210 <g_105>
    fbc1:	0f be c0             	movsbl %al,%eax
    fbc4:	21 d0                	and    %edx,%eax
    fbc6:	41 39 c6             	cmp    %eax,%r14d
    fbc9:	0f 9f c0             	setg   %al
    fbcc:	0f b6 c0             	movzbl %al,%eax
    fbcf:	41 39 c5             	cmp    %eax,%r13d
    fbd2:	75 0a                	jne    fbde <func_39+0xdcc>
    fbd4:	66 83 bd cc f6 ff ff 	cmpw   $0x0,-0x934(%rbp)
    fbdb:	00 
    fbdc:	74 07                	je     fbe5 <func_39+0xdd3>
    fbde:	b8 01 00 00 00       	mov    $0x1,%eax
    fbe3:	eb 05                	jmp    fbea <func_39+0xdd8>
    fbe5:	b8 00 00 00 00       	mov    $0x0,%eax
    fbea:	0f b7 c0             	movzwl %ax,%eax
    fbed:	be 47 b8 00 00       	mov    $0xb847,%esi
    fbf2:	89 c7                	mov    %eax,%edi
    fbf4:	e8 44 81 ff ff       	callq  7d3d <safe_mul_func_uint16_t_u_u>
    fbf9:	8b 85 f4 f6 ff ff    	mov    -0x90c(%rbp),%eax
    fbff:	85 c0                	test   %eax,%eax
    fc01:	0f 9f c0             	setg   %al
    fc04:	0f b6 d0             	movzbl %al,%edx
    fc07:	0f b7 05 48 a4 00 00 	movzwl 0xa448(%rip),%eax        # 1a056 <g_34+0x16>
    fc0e:	0f b7 c0             	movzwl %ax,%eax
    fc11:	39 c2                	cmp    %eax,%edx
    fc13:	0f 9e c2             	setle  %dl
    fc16:	48 8b 05 13 d0 00 00 	mov    0xd013(%rip),%rax        # 1cc30 <g_639>
    fc1d:	48 8b 00             	mov    (%rax),%rax
    fc20:	0f b6 d2             	movzbl %dl,%edx
    fc23:	89 10                	mov    %edx,(%rax)
    fc25:	8b 85 d0 f6 ff ff    	mov    -0x930(%rbp),%eax
    fc2b:	e9 93 09 00 00       	jmpq   105c3 <func_39+0x17b1>
    fc30:	66 c7 05 4b a6 00 00 	movw   $0x1,0xa64b(%rip)        # 1a284 <g_310>
    fc37:	01 00 
    fc39:	e9 9d 00 00 00       	jmpq   fcdb <func_39+0xec9>
    fc3e:	48 8d 85 a8 f7 ff ff 	lea    -0x858(%rbp),%rax
    fc45:	48 89 85 70 fa ff ff 	mov    %rax,-0x590(%rbp)
    fc4c:	48 8d 85 a8 f7 ff ff 	lea    -0x858(%rbp),%rax
    fc53:	48 89 85 78 fa ff ff 	mov    %rax,-0x588(%rbp)
    fc5a:	48 8d 85 a8 f7 ff ff 	lea    -0x858(%rbp),%rax
    fc61:	48 89 85 80 fa ff ff 	mov    %rax,-0x580(%rbp)
    fc68:	48 8d 85 a8 f7 ff ff 	lea    -0x858(%rbp),%rax
    fc6f:	48 89 85 88 fa ff ff 	mov    %rax,-0x578(%rbp)
    fc76:	48 8d 85 a8 f7 ff ff 	lea    -0x858(%rbp),%rax
    fc7d:	48 89 85 90 fa ff ff 	mov    %rax,-0x570(%rbp)
    fc84:	48 8d 85 a8 f7 ff ff 	lea    -0x858(%rbp),%rax
    fc8b:	48 89 85 98 fa ff ff 	mov    %rax,-0x568(%rbp)
    fc92:	48 8d 85 a8 f7 ff ff 	lea    -0x858(%rbp),%rax
    fc99:	48 89 85 a0 fa ff ff 	mov    %rax,-0x560(%rbp)
    fca0:	48 8b 85 a8 f7 ff ff 	mov    -0x858(%rbp),%rax
    fca7:	48 89 85 a8 f7 ff ff 	mov    %rax,-0x858(%rbp)
    fcae:	48 8b 85 a8 f7 ff ff 	mov    -0x858(%rbp),%rax
    fcb5:	48 89 85 20 f8 ff ff 	mov    %rax,-0x7e0(%rbp)
    fcbc:	48 8b 05 5d c1 00 00 	mov    0xc15d(%rip),%rax        # 1be20 <g_137>
    fcc3:	48 8b 00             	mov    (%rax),%rax
    fcc6:	8b 00                	mov    (%rax),%eax
    fcc8:	85 c0                	test   %eax,%eax
    fcca:	0f b7 05 b3 a5 00 00 	movzwl 0xa5b3(%rip),%eax        # 1a284 <g_310>
    fcd1:	83 e8 01             	sub    $0x1,%eax
    fcd4:	66 89 05 a9 a5 00 00 	mov    %ax,0xa5a9(%rip)        # 1a284 <g_310>
    fcdb:	0f b7 05 a2 a5 00 00 	movzwl 0xa5a2(%rip),%eax        # 1a284 <g_310>
    fce2:	66 85 c0             	test   %ax,%ax
    fce5:	0f 89 53 ff ff ff    	jns    fc3e <func_39+0xe2c>
    fceb:	66 83 bd c8 f6 ff ff 	cmpw   $0x0,-0x938(%rbp)
    fcf2:	00 
    fcf3:	74 13                	je     fd08 <func_39+0xef6>
    fcf5:	66 83 bd d4 f6 ff ff 	cmpw   $0x0,-0x92c(%rbp)
    fcfc:	00 
    fcfd:	0f 84 a9 04 00 00    	je     101ac <func_39+0x139a>
    fd03:	e9 dd 06 00 00       	jmpq   103e5 <func_39+0x15d3>
    fd08:	c7 85 08 f7 ff ff ff 	movl   $0xffffffff,-0x8f8(%rbp)
    fd0f:	ff ff ff 
    fd12:	48 8d 05 6b a5 00 00 	lea    0xa56b(%rip),%rax        # 1a284 <g_310>
    fd19:	48 89 85 c8 f7 ff ff 	mov    %rax,-0x838(%rbp)
    fd20:	8b 85 f8 f6 ff ff    	mov    -0x908(%rbp),%eax
    fd26:	85 c0                	test   %eax,%eax
    fd28:	74 05                	je     fd2f <func_39+0xf1d>
    fd2a:	e9 c5 f2 ff ff       	jmpq   eff4 <func_39+0x1e2>
    fd2f:	48 8b 05 22 c9 00 00 	mov    0xc922(%rip),%rax        # 1c658 <g_564>
    fd36:	0f b6 00             	movzbl (%rax),%eax
    fd39:	0f be d8             	movsbl %al,%ebx
    fd3c:	8b 85 08 f7 ff ff    	mov    -0x8f8(%rbp),%eax
    fd42:	89 c2                	mov    %eax,%edx
    fd44:	48 8b 85 c8 f7 ff ff 	mov    -0x838(%rbp),%rax
    fd4b:	66 89 10             	mov    %dx,(%rax)
    fd4e:	48 8b 85 c8 f7 ff ff 	mov    -0x838(%rbp),%rax
    fd55:	0f b7 00             	movzwl (%rax),%eax
    fd58:	44 0f bf e8          	movswl %ax,%r13d
    fd5c:	0f b7 85 cc f6 ff ff 	movzwl -0x934(%rbp),%eax
    fd63:	44 0f b7 e0          	movzwl %ax,%r12d
    fd67:	66 81 bd c8 f6 ff ff 	cmpw   $0xf7,-0x938(%rbp)
    fd6e:	f7 00 
    fd70:	0f 94 c0             	sete   %al
    fd73:	0f b6 c0             	movzbl %al,%eax
    fd76:	89 c6                	mov    %eax,%esi
    fd78:	bf 01 00 00 00       	mov    $0x1,%edi
    fd7d:	e8 4e 81 ff ff       	callq  7ed0 <safe_sub_func_uint32_t_u_u>
    fd82:	b8 01 00 00 00       	mov    $0x1,%eax
    fd87:	0f b7 c0             	movzwl %ax,%eax
    fd8a:	44 89 e6             	mov    %r12d,%esi
    fd8d:	89 c7                	mov    %eax,%edi
    fd8f:	e8 a9 7f ff ff       	callq  7d3d <safe_mul_func_uint16_t_u_u>
    fd94:	0f b7 d0             	movzwl %ax,%edx
    fd97:	0f bf 85 cc f6 ff ff 	movswl -0x934(%rbp),%eax
    fd9e:	39 c2                	cmp    %eax,%edx
    fda0:	0f 9c c0             	setl   %al
    fda3:	0f b6 c0             	movzbl %al,%eax
    fda6:	41 39 c5             	cmp    %eax,%r13d
    fda9:	0f 95 c0             	setne  %al
    fdac:	0f b6 c0             	movzbl %al,%eax
    fdaf:	89 de                	mov    %ebx,%esi
    fdb1:	89 c7                	mov    %eax,%edi
    fdb3:	e8 1c 74 ff ff       	callq  71d4 <safe_add_func_int8_t_s_s>
    fdb8:	0f b7 85 d4 f6 ff ff 	movzwl -0x92c(%rbp),%eax
    fdbf:	be ee c1 18 ad       	mov    $0xad18c1ee,%esi
    fdc4:	89 c7                	mov    %eax,%edi
    fdc6:	e8 ed 80 ff ff       	callq  7eb8 <safe_add_func_uint32_t_u_u>
    fdcb:	89 c2                	mov    %eax,%edx
    fdcd:	48 8b 85 a8 f7 ff ff 	mov    -0x858(%rbp),%rax
    fdd4:	48 8b 00             	mov    (%rax),%rax
    fdd7:	48 8b 00             	mov    (%rax),%rax
    fdda:	89 10                	mov    %edx,(%rax)
    fddc:	48 8b 85 68 f7 ff ff 	mov    -0x898(%rbp),%rax
    fde3:	8b 00                	mov    (%rax),%eax
    fde5:	0f bf d0             	movswl %ax,%edx
    fde8:	8b 85 08 f7 ff ff    	mov    -0x8f8(%rbp),%eax
    fdee:	98                   	cwtl   
    fdef:	89 d6                	mov    %edx,%esi
    fdf1:	89 c7                	mov    %eax,%edi
    fdf3:	e8 5d 76 ff ff       	callq  7455 <safe_div_func_int16_t_s_s>
    fdf8:	89 c2                	mov    %eax,%edx
    fdfa:	48 8b 05 57 c8 00 00 	mov    0xc857(%rip),%rax        # 1c658 <g_564>
    fe01:	0f b6 08             	movzbl (%rax),%ecx
    fe04:	48 8b 05 4d c8 00 00 	mov    0xc84d(%rip),%rax        # 1c658 <g_564>
    fe0b:	09 ca                	or     %ecx,%edx
    fe0d:	88 10                	mov    %dl,(%rax)
    fe0f:	0f b6 00             	movzbl (%rax),%eax
    fe12:	44 0f be e0          	movsbl %al,%r12d
    fe16:	0f b7 9d d4 f6 ff ff 	movzwl -0x92c(%rbp),%ebx
    fe1d:	0f b7 85 a2 f8 ff ff 	movzwl -0x75e(%rbp),%eax
    fe24:	66 85 c0             	test   %ax,%ax
    fe27:	75 07                	jne    fe30 <func_39+0x101e>
    fe29:	ba 97 42 00 00       	mov    $0x4297,%edx
    fe2e:	eb 05                	jmp    fe35 <func_39+0x1023>
    fe30:	ba 96 42 00 00       	mov    $0x4296,%edx
    fe35:	8b 05 7d a4 00 00    	mov    0xa47d(%rip),%eax        # 1a2b8 <g_469+0x18>
    fe3b:	0f b7 c0             	movzwl %ax,%eax
    fe3e:	89 d6                	mov    %edx,%esi
    fe40:	89 c7                	mov    %eax,%edi
    fe42:	e8 f6 7e ff ff       	callq  7d3d <safe_mul_func_uint16_t_u_u>
    fe47:	be f4 bf 88 1e       	mov    $0x1e88bff4,%esi
    fe4c:	bf 00 00 00 00       	mov    $0x0,%edi
    fe51:	e8 76 78 ff ff       	callq  76cc <safe_mod_func_int32_t_s_s>
    fe56:	48 98                	cltq   
    fe58:	ba fd ff ff ff       	mov    $0xfffffffd,%edx
    fe5d:	48 39 d0             	cmp    %rdx,%rax
    fe60:	0f 95 c0             	setne  %al
    fe63:	0f b6 c0             	movzbl %al,%eax
    fe66:	48 89 de             	mov    %rbx,%rsi
    fe69:	48 89 c7             	mov    %rax,%rdi
    fe6c:	e8 3e 82 ff ff       	callq  80af <safe_div_func_uint64_t_u_u>
    fe71:	48 85 c0             	test   %rax,%rax
    fe74:	75 0c                	jne    fe82 <func_39+0x1070>
    fe76:	48 8b 05 7b a2 00 00 	mov    0xa27b(%rip),%rax        # 1a0f8 <g_103+0x78>
    fe7d:	48 85 c0             	test   %rax,%rax
    fe80:	74 07                	je     fe89 <func_39+0x1077>
    fe82:	b8 01 00 00 00       	mov    $0x1,%eax
    fe87:	eb 05                	jmp    fe8e <func_39+0x107c>
    fe89:	b8 00 00 00 00       	mov    $0x0,%eax
    fe8e:	89 85 00 f7 ff ff    	mov    %eax,-0x900(%rbp)
    fe94:	8b 85 00 f7 ff ff    	mov    -0x900(%rbp),%eax
    fe9a:	0f b6 c0             	movzbl %al,%eax
    fe9d:	be 03 00 00 00       	mov    $0x3,%esi
    fea2:	89 c7                	mov    %eax,%edi
    fea4:	e8 a3 7d ff ff       	callq  7c4c <safe_lshift_func_uint8_t_u_u>
    fea9:	0f b6 c0             	movzbl %al,%eax
    feac:	44 89 e2             	mov    %r12d,%edx
    feaf:	09 c2                	or     %eax,%edx
    feb1:	8b 85 d0 f6 ff ff    	mov    -0x930(%rbp),%eax
    feb7:	39 c2                	cmp    %eax,%edx
    feb9:	0f 9e c2             	setle  %dl
    febc:	48 8b 85 68 f7 ff ff 	mov    -0x898(%rbp),%rax
    fec3:	0f b6 d2             	movzbl %dl,%edx
    fec6:	89 10                	mov    %edx,(%rax)
    fec8:	48 c7 05 65 cd 00 00 	movq   $0x0,0xcd65(%rip)        # 1cc38 <g_758>
    fecf:	00 00 00 00 
    fed3:	48 8b 05 5e cd 00 00 	mov    0xcd5e(%rip),%rax        # 1cc38 <g_758>
    feda:	48 39 85 38 f8 ff ff 	cmp    %rax,-0x7c8(%rbp)
    fee1:	41 0f 94 c7          	sete   %r15b
    fee5:	0f bf 9d cc f6 ff ff 	movswl -0x934(%rbp),%ebx
    feec:	0f b7 85 c8 f6 ff ff 	movzwl -0x938(%rbp),%eax
    fef3:	44 0f b7 e0          	movzwl %ax,%r12d
    fef7:	66 83 bd cc f6 ff ff 	cmpw   $0x0,-0x934(%rbp)
    fefe:	00 
    feff:	75 3e                	jne    ff3f <func_39+0x112d>
    ff01:	0f b7 85 cc f6 ff ff 	movzwl -0x934(%rbp),%eax
    ff08:	44 0f b6 e8          	movzbl %al,%r13d
    ff0c:	44 0f bf b5 c8 f6 ff 	movswl -0x938(%rbp),%r14d
    ff13:	ff 
    ff14:	8b 85 08 f7 ff ff    	mov    -0x8f8(%rbp),%eax
    ff1a:	98                   	cwtl   
    ff1b:	89 c6                	mov    %eax,%esi
    ff1d:	bf ff ff ff ff       	mov    $0xffffffff,%edi
    ff22:	e8 ef 74 ff ff       	callq  7416 <safe_mod_func_int16_t_s_s>
    ff27:	98                   	cwtl   
    ff28:	44 89 f6             	mov    %r14d,%esi
    ff2b:	89 c7                	mov    %eax,%edi
    ff2d:	e8 c3 74 ff ff       	callq  73f5 <safe_mul_func_int16_t_s_s>
    ff32:	0f b6 c0             	movzbl %al,%eax
    ff35:	44 89 ee             	mov    %r13d,%esi
    ff38:	89 c7                	mov    %eax,%edi
    ff3a:	e8 6f 7c ff ff       	callq  7bae <safe_mod_func_uint8_t_u_u>
    ff3f:	b9 01 00 00 00       	mov    $0x1,%ecx
    ff44:	48 8b 85 18 f8 ff ff 	mov    -0x7e8(%rbp),%rax
    ff4b:	0f b7 00             	movzwl (%rax),%eax
    ff4e:	89 c2                	mov    %eax,%edx
    ff50:	89 c8                	mov    %ecx,%eax
    ff52:	09 d0                	or     %edx,%eax
    ff54:	89 c2                	mov    %eax,%edx
    ff56:	48 8b 85 18 f8 ff ff 	mov    -0x7e8(%rbp),%rax
    ff5d:	66 89 10             	mov    %dx,(%rax)
    ff60:	48 8b 85 18 f8 ff ff 	mov    -0x7e8(%rbp),%rax
    ff67:	0f b7 00             	movzwl (%rax),%eax
    ff6a:	0f b7 c0             	movzwl %ax,%eax
    ff6d:	44 89 e6             	mov    %r12d,%esi
    ff70:	89 c7                	mov    %eax,%edi
    ff72:	e8 e5 7d ff ff       	callq  7d5c <safe_mod_func_uint16_t_u_u>
    ff77:	66 85 c0             	test   %ax,%ax
    ff7a:	74 0a                	je     ff86 <func_39+0x1174>
    ff7c:	0f b7 05 01 a3 00 00 	movzwl 0xa301(%rip),%eax        # 1a284 <g_310>
    ff83:	66 85 c0             	test   %ax,%ax
    ff86:	0f b7 85 d4 f6 ff ff 	movzwl -0x92c(%rbp),%eax
    ff8d:	0f b6 d0             	movzbl %al,%edx
    ff90:	48 8b 05 c1 c6 00 00 	mov    0xc6c1(%rip),%rax        # 1c658 <g_564>
    ff97:	0f b6 00             	movzbl (%rax),%eax
    ff9a:	66 98                	cbtw   
    ff9c:	66 39 85 cc f6 ff ff 	cmp    %ax,-0x934(%rbp)
    ffa3:	0f 95 c0             	setne  %al
    ffa6:	0f b6 c0             	movzbl %al,%eax
    ffa9:	89 d6                	mov    %edx,%esi
    ffab:	89 c7                	mov    %eax,%edi
    ffad:	e8 a8 7b ff ff       	callq  7b5a <safe_add_func_uint8_t_u_u>
    ffb2:	be 66 00 00 00       	mov    $0x66,%esi
    ffb7:	bf 01 00 00 00       	mov    $0x1,%edi
    ffbc:	e8 99 7b ff ff       	callq  7b5a <safe_add_func_uint8_t_u_u>
    ffc1:	0f b6 d0             	movzbl %al,%edx
    ffc4:	48 8b 85 a8 f7 ff ff 	mov    -0x858(%rbp),%rax
    ffcb:	48 8b 00             	mov    (%rax),%rax
    ffce:	48 8b 00             	mov    (%rax),%rax
    ffd1:	8b 00                	mov    (%rax),%eax
    ffd3:	21 c2                	and    %eax,%edx
    ffd5:	0f bf 85 c8 f6 ff ff 	movswl -0x938(%rbp),%eax
    ffdc:	21 c2                	and    %eax,%edx
    ffde:	8b 85 d0 f6 ff ff    	mov    -0x930(%rbp),%eax
    ffe4:	09 d0                	or     %edx,%eax
    ffe6:	48 98                	cltq   
    ffe8:	48 c7 c6 ff ff ff ff 	mov    $0xffffffffffffffff,%rsi
    ffef:	48 89 c7             	mov    %rax,%rdi
    fff2:	e8 b8 80 ff ff       	callq  80af <safe_div_func_uint64_t_u_u>
    fff7:	48 89 c2             	mov    %rax,%rdx
    fffa:	48 8b 05 67 c6 00 00 	mov    0xc667(%rip),%rax        # 1c668 <g_573>
   10001:	48 8b 00             	mov    (%rax),%rax
   10004:	48 89 d6             	mov    %rdx,%rsi
   10007:	48 89 c7             	mov    %rax,%rdi
   1000a:	e8 e8 79 ff ff       	callq  79f7 <safe_div_func_int64_t_s_s>
   1000f:	89 de                	mov    %ebx,%esi
   10011:	89 c7                	mov    %eax,%edi
   10013:	e8 b8 7e ff ff       	callq  7ed0 <safe_sub_func_uint32_t_u_u>
   10018:	85 c0                	test   %eax,%eax
   1001a:	75 0a                	jne    10026 <func_39+0x1214>
   1001c:	66 83 bd d4 f6 ff ff 	cmpw   $0x0,-0x92c(%rbp)
   10023:	00 
   10024:	74 07                	je     1002d <func_39+0x121b>
   10026:	b8 01 00 00 00       	mov    $0x1,%eax
   1002b:	eb 05                	jmp    10032 <func_39+0x1220>
   1002d:	b8 00 00 00 00       	mov    $0x0,%eax
   10032:	3b 85 3c f7 ff ff    	cmp    -0x8c4(%rbp),%eax
   10038:	0f 94 c0             	sete   %al
   1003b:	44 31 f8             	xor    %r15d,%eax
   1003e:	0f b6 d0             	movzbl %al,%edx
   10041:	8b 05 61 a2 00 00    	mov    0xa261(%rip),%eax        # 1a2a8 <g_469+0x8>
   10047:	39 c2                	cmp    %eax,%edx
   10049:	0f 9f c2             	setg   %dl
   1004c:	48 8b 85 a8 f7 ff ff 	mov    -0x858(%rbp),%rax
   10053:	48 8b 00             	mov    (%rax),%rax
   10056:	48 8b 00             	mov    (%rax),%rax
   10059:	0f b6 d2             	movzbl %dl,%edx
   1005c:	89 10                	mov    %edx,(%rax)
   1005e:	e9 49 01 00 00       	jmpq   101ac <func_39+0x139a>
   10063:	c7 85 70 fa ff ff fb 	movl   $0x9e0dbbfb,-0x590(%rbp)
   1006a:	bb 0d 9e 
   1006d:	c7 85 74 fa ff ff fa 	movl   $0xfffffffa,-0x58c(%rbp)
   10074:	ff ff ff 
   10077:	c7 85 78 fa ff ff ec 	movl   $0xae656dec,-0x588(%rbp)
   1007e:	6d 65 ae 
   10081:	c7 85 7c fa ff ff fa 	movl   $0xfffffffa,-0x584(%rbp)
   10088:	ff ff ff 
   1008b:	c7 85 80 fa ff ff fb 	movl   $0x9e0dbbfb,-0x580(%rbp)
   10092:	bb 0d 9e 
   10095:	c7 85 84 fa ff ff fb 	movl   $0x9e0dbbfb,-0x57c(%rbp)
   1009c:	bb 0d 9e 
   1009f:	c7 85 88 fa ff ff fa 	movl   $0xfffffffa,-0x578(%rbp)
   100a6:	ff ff ff 
   100a9:	c7 85 8c fa ff ff ec 	movl   $0xae656dec,-0x574(%rbp)
   100b0:	6d 65 ae 
   100b3:	c7 85 90 fa ff ff fa 	movl   $0xfffffffa,-0x570(%rbp)
   100ba:	ff ff ff 
   100bd:	c7 85 94 fa ff ff 00 	movl   $0x0,-0x56c(%rbp)
   100c4:	00 00 00 
   100c7:	c7 85 98 fa ff ff 08 	movl   $0x8,-0x568(%rbp)
   100ce:	00 00 00 
   100d1:	c7 85 9c fa ff ff 08 	movl   $0x8,-0x564(%rbp)
   100d8:	00 00 00 
   100db:	c7 85 a0 fa ff ff 08 	movl   $0x8,-0x560(%rbp)
   100e2:	00 00 00 
   100e5:	c7 85 a4 fa ff ff 04 	movl   $0x4,-0x55c(%rbp)
   100ec:	00 00 00 
   100ef:	c7 85 a8 fa ff ff b7 	movl   $0x985237b7,-0x558(%rbp)
   100f6:	37 52 98 
   100f9:	c7 85 ac fa ff ff 04 	movl   $0x4,-0x554(%rbp)
   10100:	00 00 00 
   10103:	c7 85 b0 fa ff ff 08 	movl   $0x8,-0x550(%rbp)
   1010a:	00 00 00 
   1010d:	c7 85 b4 fa ff ff 08 	movl   $0x8,-0x54c(%rbp)
   10114:	00 00 00 
   10117:	c7 85 b8 fa ff ff fa 	movl   $0xfffffffa,-0x548(%rbp)
   1011e:	ff ff ff 
   10121:	c7 85 bc fa ff ff fa 	movl   $0xfffffffa,-0x544(%rbp)
   10128:	ff ff ff 
   1012b:	c7 85 c0 fa ff ff f6 	movl   $0xfffffff6,-0x540(%rbp)
   10132:	ff ff ff 
   10135:	c7 85 c4 fa ff ff 84 	movl   $0x412f7d84,-0x53c(%rbp)
   1013c:	7d 2f 41 
   1013f:	c7 85 c8 fa ff ff f6 	movl   $0xfffffff6,-0x538(%rbp)
   10146:	ff ff ff 
   10149:	c7 85 cc fa ff ff fa 	movl   $0xfffffffa,-0x534(%rbp)
   10150:	ff ff ff 
   10153:	c7 85 d0 fa ff ff fa 	movl   $0xfffffffa,-0x530(%rbp)
   1015a:	ff ff ff 
   1015d:	c7 85 d4 fa ff ff f6 	movl   $0xfffffff6,-0x52c(%rbp)
   10164:	ff ff ff 
   10167:	c7 85 d8 fa ff ff 84 	movl   $0x412f7d84,-0x528(%rbp)
   1016e:	7d 2f 41 
   10171:	48 c7 05 14 a1 00 00 	movq   $0x0,0xa114(%rip)        # 1a290 <g_428>
   10178:	00 00 00 00 
   1017c:	eb 21                	jmp    1019f <func_39+0x138d>
   1017e:	8b 85 ac fa ff ff    	mov    -0x554(%rbp),%eax
   10184:	83 e8 01             	sub    $0x1,%eax
   10187:	89 85 ac fa ff ff    	mov    %eax,-0x554(%rbp)
   1018d:	48 8b 05 fc a0 00 00 	mov    0xa0fc(%rip),%rax        # 1a290 <g_428>
   10194:	48 83 c0 01          	add    $0x1,%rax
   10198:	48 89 05 f1 a0 00 00 	mov    %rax,0xa0f1(%rip)        # 1a290 <g_428>
   1019f:	48 8b 05 ea a0 00 00 	mov    0xa0ea(%rip),%rax        # 1a290 <g_428>
   101a6:	48 83 f8 01          	cmp    $0x1,%rax
   101aa:	76 d2                	jbe    1017e <func_39+0x136c>
   101ac:	0f bf 9d c8 f6 ff ff 	movswl -0x938(%rbp),%ebx
   101b3:	8b 85 d0 f6 ff ff    	mov    -0x930(%rbp),%eax
   101b9:	41 89 c6             	mov    %eax,%r14d
   101bc:	44 0f b7 a5 d4 f6 ff 	movzwl -0x92c(%rbp),%r12d
   101c3:	ff 
   101c4:	48 8b 85 d8 f6 ff ff 	mov    -0x928(%rbp),%rax
   101cb:	8b 00                	mov    (%rax),%eax
   101cd:	8d 50 01             	lea    0x1(%rax),%edx
   101d0:	48 8b 85 d8 f6 ff ff 	mov    -0x928(%rbp),%rax
   101d7:	89 10                	mov    %edx,(%rax)
   101d9:	44 0f b7 ad d4 f6 ff 	movzwl -0x92c(%rbp),%r13d
   101e0:	ff 
   101e1:	48 8b 05 48 c4 00 00 	mov    0xc448(%rip),%rax        # 1c630 <g_377>
   101e8:	8b 00                	mov    (%rax),%eax
   101ea:	41 89 c7             	mov    %eax,%r15d
   101ed:	48 8b 05 14 9f 00 00 	mov    0x9f14(%rip),%rax        # 1a108 <g_103+0x88>
   101f4:	48 89 85 c0 f6 ff ff 	mov    %rax,-0x940(%rbp)
   101fb:	8b 85 d0 f6 ff ff    	mov    -0x930(%rbp),%eax
   10201:	0f bf d0             	movswl %ax,%edx
   10204:	48 8b 85 a8 f7 ff ff 	mov    -0x858(%rbp),%rax
   1020b:	48 8b 00             	mov    (%rax),%rax
   1020e:	48 85 c0             	test   %rax,%rax
   10211:	0f 94 c0             	sete   %al
   10214:	0f b6 c0             	movzbl %al,%eax
   10217:	89 d6                	mov    %edx,%esi
   10219:	89 c7                	mov    %eax,%edi
   1021b:	e8 d5 71 ff ff       	callq  73f5 <safe_mul_func_int16_t_s_s>
   10220:	48 8b 85 b0 f7 ff ff 	mov    -0x850(%rbp),%rax
   10227:	48 85 c0             	test   %rax,%rax
   1022a:	0f 94 c0             	sete   %al
   1022d:	0f b6 d0             	movzbl %al,%edx
   10230:	0f bf 85 cc f6 ff ff 	movswl -0x934(%rbp),%eax
   10237:	89 d1                	mov    %edx,%ecx
   10239:	09 c1                	or     %eax,%ecx
   1023b:	8b 95 d0 f6 ff ff    	mov    -0x930(%rbp),%edx
   10241:	48 8b 85 b0 f7 ff ff 	mov    -0x850(%rbp),%rax
   10248:	48 63 d2             	movslq %edx,%rdx
   1024b:	48 89 10             	mov    %rdx,(%rax)
   1024e:	48 8b 10             	mov    (%rax),%rdx
   10251:	48 63 c9             	movslq %ecx,%rcx
   10254:	48 8b 05 85 a0 00 00 	mov    0xa085(%rip),%rax        # 1a2e0 <g_590>
   1025b:	48 31 c8             	xor    %rcx,%rax
   1025e:	48 89 05 7b a0 00 00 	mov    %rax,0xa07b(%rip)        # 1a2e0 <g_590>
   10265:	48 8b 05 74 a0 00 00 	mov    0xa074(%rip),%rax        # 1a2e0 <g_590>
   1026c:	48 39 c2             	cmp    %rax,%rdx
   1026f:	0f 94 c0             	sete   %al
   10272:	0f b6 d0             	movzbl %al,%edx
   10275:	0f bf 85 c8 f6 ff ff 	movswl -0x938(%rbp),%eax
   1027c:	39 c2                	cmp    %eax,%edx
   1027e:	0f 9d c0             	setge  %al
   10281:	0f b6 c0             	movzbl %al,%eax
   10284:	48 8b b5 c0 f6 ff ff 	mov    -0x940(%rbp),%rsi
   1028b:	48 89 c7             	mov    %rax,%rdi
   1028e:	e8 b8 7d ff ff       	callq  804b <safe_sub_func_uint64_t_u_u>
   10293:	48 83 f8 fc          	cmp    $0xfffffffffffffffc,%rax
   10297:	0f 96 c0             	setbe  %al
   1029a:	0f b6 c0             	movzbl %al,%eax
   1029d:	44 89 fe             	mov    %r15d,%esi
   102a0:	89 c7                	mov    %eax,%edi
   102a2:	e8 7e 7c ff ff       	callq  7f25 <safe_div_func_uint32_t_u_u>
   102a7:	85 c0                	test   %eax,%eax
   102a9:	74 11                	je     102bc <func_39+0x14aa>
   102ab:	66 83 bd d4 f6 ff ff 	cmpw   $0x0,-0x92c(%rbp)
   102b2:	00 
   102b3:	74 07                	je     102bc <func_39+0x14aa>
   102b5:	b8 01 00 00 00       	mov    $0x1,%eax
   102ba:	eb 05                	jmp    102c1 <func_39+0x14af>
   102bc:	b8 00 00 00 00       	mov    $0x0,%eax
   102c1:	89 c2                	mov    %eax,%edx
   102c3:	b8 00 00 00 00       	mov    $0x0,%eax
   102c8:	39 c2                	cmp    %eax,%edx
   102ca:	72 11                	jb     102dd <func_39+0x14cb>
   102cc:	66 83 bd c8 f6 ff ff 	cmpw   $0x0,-0x938(%rbp)
   102d3:	00 
   102d4:	74 07                	je     102dd <func_39+0x14cb>
   102d6:	b8 01 00 00 00       	mov    $0x1,%eax
   102db:	eb 05                	jmp    102e2 <func_39+0x14d0>
   102dd:	b8 00 00 00 00       	mov    $0x0,%eax
   102e2:	0f b6 c0             	movzbl %al,%eax
   102e5:	be df 00 00 00       	mov    $0xdf,%esi
   102ea:	89 c7                	mov    %eax,%edi
   102ec:	e8 a2 78 ff ff       	callq  7b93 <safe_mul_func_uint8_t_u_u>
   102f1:	0f bf 85 c8 f6 ff ff 	movswl -0x938(%rbp),%eax
   102f8:	89 c6                	mov    %eax,%esi
   102fa:	bf ff ff ff ff       	mov    $0xffffffff,%edi
   102ff:	e8 c8 73 ff ff       	callq  76cc <safe_mod_func_int32_t_s_s>
   10304:	44 89 ee             	mov    %r13d,%esi
   10307:	bf fc ff ff ff       	mov    $0xfffffffc,%edi
   1030c:	e8 f4 72 ff ff       	callq  7605 <safe_sub_func_int32_t_s_s>
   10311:	0f be c0             	movsbl %al,%eax
   10314:	be 00 00 00 00       	mov    $0x0,%esi
   10319:	89 c7                	mov    %eax,%edi
   1031b:	e8 4c 70 ff ff       	callq  736c <safe_rshift_func_int8_t_s_u>
   10320:	66 98                	cbtw   
   10322:	0f b7 15 2d 9d 00 00 	movzwl 0x9d2d(%rip),%edx        # 1a056 <g_34+0x16>
   10329:	09 d0                	or     %edx,%eax
   1032b:	0f b7 c0             	movzwl %ax,%eax
   1032e:	44 89 e6             	mov    %r12d,%esi
   10331:	89 c7                	mov    %eax,%edi
   10333:	e8 42 7b ff ff       	callq  7e7a <safe_rshift_func_uint16_t_u_u>
   10338:	66 35 e9 f0          	xor    $0xf0e9,%ax
   1033c:	0f b7 c0             	movzwl %ax,%eax
   1033f:	be 0b 00 00 00       	mov    $0xb,%esi
   10344:	89 c7                	mov    %eax,%edi
   10346:	e8 fd 7a ff ff       	callq  7e48 <safe_rshift_func_uint16_t_u_s>
   1034b:	0f b7 05 fa 9c 00 00 	movzwl 0x9cfa(%rip),%eax        # 1a04c <g_34+0xc>
   10352:	0f b7 c0             	movzwl %ax,%eax
   10355:	39 85 34 f7 ff ff    	cmp    %eax,-0x8cc(%rbp)
   1035b:	0f 94 c0             	sete   %al
   1035e:	0f b6 c0             	movzbl %al,%eax
   10361:	44 89 f6             	mov    %r14d,%esi
   10364:	89 c7                	mov    %eax,%edi
   10366:	e8 e1 78 ff ff       	callq  7c4c <safe_lshift_func_uint8_t_u_u>
   1036b:	0f b6 c0             	movzbl %al,%eax
   1036e:	89 de                	mov    %ebx,%esi
   10370:	89 c7                	mov    %eax,%edi
   10372:	e8 7e 70 ff ff       	callq  73f5 <safe_mul_func_int16_t_s_s>
   10377:	f7 d0                	not    %eax
   10379:	0f be c0             	movsbl %al,%eax
   1037c:	be 04 00 00 00       	mov    $0x4,%esi
   10381:	89 c7                	mov    %eax,%edi
   10383:	e8 66 6f ff ff       	callq  72ee <safe_lshift_func_int8_t_s_u>
   10388:	84 c0                	test   %al,%al
   1038a:	74 12                	je     1039e <func_39+0x158c>
   1038c:	0f b6 05 55 9f 00 00 	movzbl 0x9f55(%rip),%eax        # 1a2e8 <g_673>
   10393:	84 c0                	test   %al,%al
   10395:	74 07                	je     1039e <func_39+0x158c>
   10397:	b8 01 00 00 00       	mov    $0x1,%eax
   1039c:	eb 05                	jmp    103a3 <func_39+0x1591>
   1039e:	b8 00 00 00 00       	mov    $0x0,%eax
   103a3:	0f b7 c0             	movzwl %ax,%eax
   103a6:	89 c6                	mov    %eax,%esi
   103a8:	bf 04 00 00 00       	mov    $0x4,%edi
   103ad:	e8 4d 79 ff ff       	callq  7cff <safe_add_func_uint16_t_u_u>
   103b2:	48 8b 85 a8 f7 ff ff 	mov    -0x858(%rbp),%rax
   103b9:	48 8b 00             	mov    (%rax),%rax
   103bc:	48 8b 00             	mov    (%rax),%rax
   103bf:	8b 00                	mov    (%rax),%eax
   103c1:	0f b6 c0             	movzbl %al,%eax
   103c4:	48 8b 95 a8 f7 ff ff 	mov    -0x858(%rbp),%rdx
   103cb:	48 8b 1a             	mov    (%rdx),%rbx
   103ce:	89 c7                	mov    %eax,%edi
   103d0:	e8 bf 3e 00 00       	callq  14294 <func_109>
   103d5:	48 89 03             	mov    %rax,(%rbx)
   103d8:	0f be 85 ef f6 ff ff 	movsbl -0x911(%rbp),%eax
   103df:	e9 df 01 00 00       	jmpq   105c3 <func_39+0x17b1>
   103e4:	90                   	nop
   103e5:	8b 85 d0 f6 ff ff    	mov    -0x930(%rbp),%eax
   103eb:	48 63 d8             	movslq %eax,%rbx
   103ee:	48 8b 85 50 f8 ff ff 	mov    -0x7b0(%rbp),%rax
   103f5:	48 8b 00             	mov    (%rax),%rax
   103f8:	48 8d 50 ff          	lea    -0x1(%rax),%rdx
   103fc:	48 8b 85 50 f8 ff ff 	mov    -0x7b0(%rbp),%rax
   10403:	48 89 10             	mov    %rdx,(%rax)
   10406:	48 8d 85 d0 f6 ff ff 	lea    -0x930(%rbp),%rax
   1040d:	48 89 05 a4 c8 00 00 	mov    %rax,0xc8a4(%rip)        # 1ccb8 <g_944>
   10414:	48 8b 15 9d c8 00 00 	mov    0xc89d(%rip),%rdx        # 1ccb8 <g_944>
   1041b:	48 8b 85 48 f8 ff ff 	mov    -0x7b8(%rbp),%rax
   10422:	48 89 10             	mov    %rdx,(%rax)
   10425:	48 8b 05 2c c2 00 00 	mov    0xc22c(%rip),%rax        # 1c658 <g_564>
   1042c:	0f b6 00             	movzbl (%rax),%eax
   1042f:	3c 01                	cmp    $0x1,%al
   10431:	0f 9e c0             	setle  %al
   10434:	0f b6 d0             	movzbl %al,%edx
   10437:	0f bf 85 c8 f6 ff ff 	movswl -0x938(%rbp),%eax
   1043e:	89 d6                	mov    %edx,%esi
   10440:	89 c7                	mov    %eax,%edi
   10442:	e8 6f 71 ff ff       	callq  75b6 <safe_add_func_int32_t_s_s>
   10447:	48 8b 95 70 f8 ff ff 	mov    -0x790(%rbp),%rdx
   1044e:	0f b7 12             	movzwl (%rdx),%edx
   10451:	21 d0                	and    %edx,%eax
   10453:	89 c2                	mov    %eax,%edx
   10455:	48 8b 85 70 f8 ff ff 	mov    -0x790(%rbp),%rax
   1045c:	66 89 10             	mov    %dx,(%rax)
   1045f:	48 8b 85 70 f8 ff ff 	mov    -0x790(%rbp),%rax
   10466:	0f b7 00             	movzwl (%rax),%eax
   10469:	0f b7 c0             	movzwl %ax,%eax
   1046c:	be 06 00 00 00       	mov    $0x6,%esi
   10471:	89 c7                	mov    %eax,%edi
   10473:	e8 02 7a ff ff       	callq  7e7a <safe_rshift_func_uint16_t_u_u>
   10478:	8b 85 d0 f6 ff ff    	mov    -0x930(%rbp),%eax
   1047e:	0f b7 d0             	movzwl %ax,%edx
   10481:	0f b7 85 cc f6 ff ff 	movzwl -0x934(%rbp),%eax
   10488:	0f b7 c0             	movzwl %ax,%eax
   1048b:	89 d6                	mov    %edx,%esi
   1048d:	89 c7                	mov    %eax,%edi
   1048f:	e8 8b 78 ff ff       	callq  7d1f <safe_sub_func_uint16_t_u_u>
   10494:	0f b7 d0             	movzwl %ax,%edx
   10497:	48 8b 85 68 f7 ff ff 	mov    -0x898(%rbp),%rax
   1049e:	8b 00                	mov    (%rax),%eax
   104a0:	39 85 48 f7 ff ff    	cmp    %eax,-0x8b8(%rbp)
   104a6:	0f 9e c0             	setle  %al
   104a9:	0f b6 c0             	movzbl %al,%eax
   104ac:	39 c2                	cmp    %eax,%edx
   104ae:	0f 9d c0             	setge  %al
   104b1:	0f b6 d0             	movzbl %al,%edx
   104b4:	8b 85 d0 f6 ff ff    	mov    -0x930(%rbp),%eax
   104ba:	0f be c0             	movsbl %al,%eax
   104bd:	89 d6                	mov    %edx,%esi
   104bf:	89 c7                	mov    %eax,%edi
   104c1:	e8 4c 6d ff ff       	callq  7212 <safe_mul_func_int8_t_s_s>
   104c6:	48 8b 85 50 fa ff ff 	mov    -0x5b0(%rbp),%rax
   104cd:	48 85 c0             	test   %rax,%rax
   104d0:	0f 95 c0             	setne  %al
   104d3:	0f b6 c0             	movzbl %al,%eax
   104d6:	48 89 de             	mov    %rbx,%rsi
   104d9:	48 89 c7             	mov    %rax,%rdi
   104dc:	e8 60 73 ff ff       	callq  7841 <safe_add_func_int64_t_s_s>
   104e1:	48 8b 85 68 f7 ff ff 	mov    -0x898(%rbp),%rax
   104e8:	8b 00                	mov    (%rax),%eax
   104ea:	0f b6 c0             	movzbl %al,%eax
   104ed:	89 c7                	mov    %eax,%edi
   104ef:	e8 a0 3d 00 00       	callq  14294 <func_109>
   104f4:	48 89 85 a0 f7 ff ff 	mov    %rax,-0x860(%rbp)
   104fb:	48 8b 05 26 d1 00 00 	mov    0xd126(%rip),%rax        # 1d628 <g_101>
   10502:	c7 00 a1 ec b8 86    	movl   $0x86b8eca1,(%rax)
   10508:	48 8b 85 68 f7 ff ff 	mov    -0x898(%rbp),%rax
   1050f:	8b 18                	mov    (%rax),%ebx
   10511:	be 03 00 00 00       	mov    $0x3,%esi
   10516:	bf 00 00 00 00       	mov    $0x0,%edi
   1051b:	e8 9e 78 ff ff       	callq  7dbe <safe_lshift_func_uint16_t_u_s>
   10520:	0f b7 c0             	movzwl %ax,%eax
   10523:	39 c3                	cmp    %eax,%ebx
   10525:	0f bf 95 cc f6 ff ff 	movswl -0x934(%rbp),%edx
   1052c:	48 8b 85 a0 f7 ff ff 	mov    -0x860(%rbp),%rax
   10533:	8b 00                	mov    (%rax),%eax
   10535:	98                   	cwtl   
   10536:	89 d6                	mov    %edx,%esi
   10538:	89 c7                	mov    %eax,%edi
   1053a:	e8 74 6e ff ff       	callq  73b3 <safe_add_func_int16_t_s_s>
   1053f:	66 83 f8 04          	cmp    $0x4,%ax
   10543:	48 8b 85 a0 f7 ff ff 	mov    -0x860(%rbp),%rax
   1054a:	48 8d 15 df d0 00 00 	lea    0xd0df(%rip),%rdx        # 1d630 <g_112>
   10551:	48 39 d0             	cmp    %rdx,%rax
   10554:	0f 95 c0             	setne  %al
   10557:	0f b6 d0             	movzbl %al,%edx
   1055a:	48 8b 85 70 f8 ff ff 	mov    -0x790(%rbp),%rax
   10561:	66 89 10             	mov    %dx,(%rax)
   10564:	66 81 bd f2 f6 ff ff 	cmpw   $0x8a06,-0x90e(%rbp)
   1056b:	06 8a 
   1056d:	0f 94 c0             	sete   %al
   10570:	0f b6 c0             	movzbl %al,%eax
   10573:	be 01 00 00 00       	mov    $0x1,%esi
   10578:	89 c7                	mov    %eax,%edi
   1057a:	e8 ab 6f ff ff       	callq  752a <safe_rshift_func_int16_t_s_s>
   1057f:	48 8b 85 68 f7 ff ff 	mov    -0x898(%rbp),%rax
   10586:	0f bf 95 c8 f6 ff ff 	movswl -0x938(%rbp),%edx
   1058d:	89 10                	mov    %edx,(%rax)
   1058f:	0f b6 05 c2 9a 00 00 	movzbl 0x9ac2(%rip),%eax        # 1a058 <g_71>
   10596:	0f b6 c0             	movzbl %al,%eax
   10599:	be 08 00 00 00       	mov    $0x8,%esi
   1059e:	89 c7                	mov    %eax,%edi
   105a0:	e8 11 70 ff ff       	callq  75b6 <safe_add_func_int32_t_s_s>
   105a5:	88 05 ad 9a 00 00    	mov    %al,0x9aad(%rip)        # 1a058 <g_71>
   105ab:	0f b6 05 a6 9a 00 00 	movzbl 0x9aa6(%rip),%eax        # 1a058 <g_71>
   105b2:	3c 27                	cmp    $0x27,%al
   105b4:	0f 86 7b ea ff ff    	jbe    f035 <func_39+0x223>
   105ba:	48 8b 85 68 f7 ff ff 	mov    -0x898(%rbp),%rax
   105c1:	8b 00                	mov    (%rax),%eax
   105c3:	48 8b 5d c8          	mov    -0x38(%rbp),%rbx
   105c7:	64 48 33 1c 25 28 00 	xor    %fs:0x28,%rbx
   105ce:	00 00 
   105d0:	74 05                	je     105d7 <func_39+0x17c5>
   105d2:	e8 99 6a ff ff       	callq  7070 <__stack_chk_fail@plt>
   105d7:	48 81 c4 18 09 00 00 	add    $0x918,%rsp
   105de:	5b                   	pop    %rbx
   105df:	41 5c                	pop    %r12
   105e1:	41 5d                	pop    %r13
   105e3:	41 5e                	pop    %r14
   105e5:	41 5f                	pop    %r15
   105e7:	5d                   	pop    %rbp
   105e8:	c3                   	retq   

00000000000105e9 <func_51>:
   105e9:	f3 0f 1e fa          	endbr64 
   105ed:	55                   	push   %rbp
   105ee:	48 89 e5             	mov    %rsp,%rbp
   105f1:	48 89 7d f8          	mov    %rdi,-0x8(%rbp)
   105f5:	48 89 75 f0          	mov    %rsi,-0x10(%rbp)
   105f9:	89 d0                	mov    %edx,%eax
   105fb:	48 89 4d e0          	mov    %rcx,-0x20(%rbp)
   105ff:	4c 89 45 d8          	mov    %r8,-0x28(%rbp)
   10603:	66 89 45 ec          	mov    %ax,-0x14(%rbp)
   10607:	48 8b 45 e0          	mov    -0x20(%rbp),%rax
   1060b:	5d                   	pop    %rbp
   1060c:	c3                   	retq   

000000000001060d <func_57>:
   1060d:	f3 0f 1e fa          	endbr64 
   10611:	55                   	push   %rbp
   10612:	48 89 e5             	mov    %rsp,%rbp
   10615:	41 56                	push   %r14
   10617:	41 55                	push   %r13
   10619:	41 54                	push   %r12
   1061b:	53                   	push   %rbx
   1061c:	48 81 ec 00 10 00 00 	sub    $0x1000,%rsp
   10623:	48 83 0c 24 00       	orq    $0x0,(%rsp)
   10628:	48 81 ec 90 03 00 00 	sub    $0x390,%rsp
   1062f:	89 bd 6c ec ff ff    	mov    %edi,-0x1394(%rbp)
   10635:	48 89 b5 60 ec ff ff 	mov    %rsi,-0x13a0(%rbp)
   1063c:	48 89 95 58 ec ff ff 	mov    %rdx,-0x13a8(%rbp)
   10643:	64 48 8b 04 25 28 00 	mov    %fs:0x28,%rax
   1064a:	00 00 
   1064c:	48 89 45 d8          	mov    %rax,-0x28(%rbp)
   10650:	31 c0                	xor    %eax,%eax
   10652:	c6 85 76 ec ff ff 9b 	movb   $0x9b,-0x138a(%rbp)
   10659:	48 8d 05 d8 cf 00 00 	lea    0xcfd8(%rip),%rax        # 1d638 <g_167>
   10660:	48 89 85 18 ed ff ff 	mov    %rax,-0x12e8(%rbp)
   10667:	c7 85 84 ec ff ff 01 	movl   $0x1,-0x137c(%rbp)
   1066e:	00 00 00 
   10671:	c7 85 88 ec ff ff ff 	movl   $0xffffffff,-0x1378(%rbp)
   10678:	ff ff ff 
   1067b:	48 c7 85 50 ed ff ff 	movq   $0x0,-0x12b0(%rbp)
   10682:	00 00 00 00 
   10686:	66 c7 85 78 ec ff ff 	movw   $0xf79a,-0x1388(%rbp)
   1068d:	9a f7 
   1068f:	48 8d 85 40 f6 ff ff 	lea    -0x9c0(%rbp),%rax
   10696:	48 8d 15 23 4e 00 00 	lea    0x4e23(%rip),%rdx        # 154c0 <g_1245+0x420>
   1069d:	b9 7e 00 00 00       	mov    $0x7e,%ecx
   106a2:	48 89 c7             	mov    %rax,%rdi
   106a5:	48 89 d6             	mov    %rdx,%rsi
   106a8:	f3 48 a5             	rep movsq %ds:(%rsi),%es:(%rdi)
   106ab:	48 8d 05 1e 9c 00 00 	lea    0x9c1e(%rip),%rax        # 1a2d0 <g_511>
   106b2:	48 89 85 10 ef ff ff 	mov    %rax,-0x10f0(%rbp)
   106b9:	48 8d 05 98 99 00 00 	lea    0x9998(%rip),%rax        # 1a058 <g_71>
   106c0:	48 89 85 18 ef ff ff 	mov    %rax,-0x10e8(%rbp)
   106c7:	48 8d 05 02 9c 00 00 	lea    0x9c02(%rip),%rax        # 1a2d0 <g_511>
   106ce:	48 89 85 20 ef ff ff 	mov    %rax,-0x10e0(%rbp)
   106d5:	48 8d 05 7c 99 00 00 	lea    0x997c(%rip),%rax        # 1a058 <g_71>
   106dc:	48 89 85 28 ef ff ff 	mov    %rax,-0x10d8(%rbp)
   106e3:	48 8d 05 e6 9b 00 00 	lea    0x9be6(%rip),%rax        # 1a2d0 <g_511>
   106ea:	48 89 85 30 ef ff ff 	mov    %rax,-0x10d0(%rbp)
   106f1:	48 8d 05 60 99 00 00 	lea    0x9960(%rip),%rax        # 1a058 <g_71>
   106f8:	48 89 85 38 ef ff ff 	mov    %rax,-0x10c8(%rbp)
   106ff:	48 8d 05 ca 9b 00 00 	lea    0x9bca(%rip),%rax        # 1a2d0 <g_511>
   10706:	48 89 85 40 ef ff ff 	mov    %rax,-0x10c0(%rbp)
   1070d:	48 8d 05 44 99 00 00 	lea    0x9944(%rip),%rax        # 1a058 <g_71>
   10714:	48 89 85 48 ef ff ff 	mov    %rax,-0x10b8(%rbp)
   1071b:	c7 85 98 ec ff ff 00 	movl   $0x0,-0x1368(%rbp)
   10722:	00 00 00 
   10725:	eb 45                	jmp    1076c <func_57+0x15f>
   10727:	c7 85 9c ec ff ff 00 	movl   $0x0,-0x1364(%rbp)
   1072e:	00 00 00 
   10731:	eb 29                	jmp    1075c <func_57+0x14f>
   10733:	8b 85 9c ec ff ff    	mov    -0x1364(%rbp),%eax
   10739:	48 98                	cltq   
   1073b:	8b 95 98 ec ff ff    	mov    -0x1368(%rbp),%edx
   10741:	48 63 d2             	movslq %edx,%rdx
   10744:	48 01 d2             	add    %rdx,%rdx
   10747:	48 01 d0             	add    %rdx,%rax
   1074a:	c7 84 85 7c ee ff ff 	movl   $0x67ae3591,-0x1184(%rbp,%rax,4)
   10751:	91 35 ae 67 
   10755:	83 85 9c ec ff ff 01 	addl   $0x1,-0x1364(%rbp)
   1075c:	83 bd 9c ec ff ff 01 	cmpl   $0x1,-0x1364(%rbp)
   10763:	7e ce                	jle    10733 <func_57+0x126>
   10765:	83 85 98 ec ff ff 01 	addl   $0x1,-0x1368(%rbp)
   1076c:	83 bd 98 ec ff ff 00 	cmpl   $0x0,-0x1368(%rbp)
   10773:	7e b2                	jle    10727 <func_57+0x11a>
   10775:	c6 05 dc 98 00 00 00 	movb   $0x0,0x98dc(%rip)        # 1a058 <g_71>
   1077c:	e9 03 1b 00 00       	jmpq   12284 <func_57+0x1c77>
   10781:	48 8d 85 50 ef ff ff 	lea    -0x10b0(%rbp),%rax
   10788:	48 8d 15 f1 a9 00 00 	lea    0xa9f1(%rip),%rdx        # 1b180 <g_1579+0xb34>
   1078f:	b9 32 00 00 00       	mov    $0x32,%ecx
   10794:	48 89 c7             	mov    %rax,%rdi
   10797:	48 89 d6             	mov    %rdx,%rsi
   1079a:	f3 48 a5             	rep movsq %ds:(%rsi),%es:(%rdi)
   1079d:	48 8d 05 9c be 00 00 	lea    0xbe9c(%rip),%rax        # 1c640 <g_412>
   107a4:	48 89 85 58 ed ff ff 	mov    %rax,-0x12a8(%rbp)
   107ab:	c7 85 8c ec ff ff 00 	movl   $0x0,-0x1374(%rbp)
   107b2:	00 00 00 
   107b5:	c7 85 90 ec ff ff 6d 	movl   $0x7186db6d,-0x1370(%rbp)
   107bc:	db 86 71 
   107bf:	66 c7 85 7a ec ff ff 	movw   $0xeb96,-0x1386(%rbp)
   107c6:	96 eb 
   107c8:	48 8d 05 c1 9a 00 00 	lea    0x9ac1(%rip),%rax        # 1a290 <g_428>
   107cf:	48 89 85 20 ed ff ff 	mov    %rax,-0x12e0(%rbp)
   107d6:	66 c7 85 7c ec ff ff 	movw   $0x1,-0x1384(%rbp)
   107dd:	01 00 
   107df:	48 8d 85 20 ed ff ff 	lea    -0x12e0(%rbp),%rax
   107e6:	48 89 85 60 ed ff ff 	mov    %rax,-0x12a0(%rbp)
   107ed:	48 c7 85 68 ed ff ff 	movq   $0xfffffffffffffff9,-0x1298(%rbp)
   107f4:	f9 ff ff ff 
   107f8:	c7 85 b0 ee ff ff 58 	movl   $0xf5eedc58,-0x1150(%rbp)
   107ff:	dc ee f5 
   10802:	c7 85 b4 ee ff ff 83 	movl   $0x9f654c83,-0x114c(%rbp)
   10809:	4c 65 9f 
   1080c:	c7 85 b8 ee ff ff 83 	movl   $0x9f654c83,-0x1148(%rbp)
   10813:	4c 65 9f 
   10816:	c7 85 bc ee ff ff 58 	movl   $0xf5eedc58,-0x1144(%rbp)
   1081d:	dc ee f5 
   10820:	c7 85 c0 ee ff ff 83 	movl   $0x9f654c83,-0x1140(%rbp)
   10827:	4c 65 9f 
   1082a:	c7 85 c4 ee ff ff 83 	movl   $0x9f654c83,-0x113c(%rbp)
   10831:	4c 65 9f 
   10834:	c7 85 c8 ee ff ff 58 	movl   $0xf5eedc58,-0x1138(%rbp)
   1083b:	dc ee f5 
   1083e:	c7 85 cc ee ff ff 83 	movl   $0x9f654c83,-0x1134(%rbp)
   10845:	4c 65 9f 
   10848:	c7 85 d0 ee ff ff 83 	movl   $0x9f654c83,-0x1130(%rbp)
   1084f:	4c 65 9f 
   10852:	c7 85 d4 ee ff ff 58 	movl   $0xf5eedc58,-0x112c(%rbp)
   10859:	dc ee f5 
   1085c:	48 c7 85 40 ed ff ff 	movq   $0x2,-0x12c0(%rbp)
   10863:	02 00 00 00 
   10867:	48 8d 85 8c ec ff ff 	lea    -0x1374(%rbp),%rax
   1086e:	48 89 85 70 ed ff ff 	mov    %rax,-0x1290(%rbp)
   10875:	48 8d 05 bc cd 00 00 	lea    0xcdbc(%rip),%rax        # 1d638 <g_167>
   1087c:	48 89 85 78 ed ff ff 	mov    %rax,-0x1288(%rbp)
   10883:	48 8d 85 b0 ee ff ff 	lea    -0x1150(%rbp),%rax
   1088a:	48 83 c0 1c          	add    $0x1c,%rax
   1088e:	48 89 85 28 ed ff ff 	mov    %rax,-0x12d8(%rbp)
   10895:	48 8d 85 84 ec ff ff 	lea    -0x137c(%rbp),%rax
   1089c:	48 89 85 80 ed ff ff 	mov    %rax,-0x1280(%rbp)
   108a3:	48 8d 85 b0 ee ff ff 	lea    -0x1150(%rbp),%rax
   108aa:	48 89 85 88 ed ff ff 	mov    %rax,-0x1278(%rbp)
   108b1:	48 8d 85 b0 ee ff ff 	lea    -0x1150(%rbp),%rax
   108b8:	48 83 c0 18          	add    $0x18,%rax
   108bc:	48 89 85 30 fa ff ff 	mov    %rax,-0x5d0(%rbp)
   108c3:	48 8d 85 90 ec ff ff 	lea    -0x1370(%rbp),%rax
   108ca:	48 89 85 38 fa ff ff 	mov    %rax,-0x5c8(%rbp)
   108d1:	48 8d 85 84 ec ff ff 	lea    -0x137c(%rbp),%rax
   108d8:	48 89 85 40 fa ff ff 	mov    %rax,-0x5c0(%rbp)
   108df:	48 8d 85 7c ee ff ff 	lea    -0x1184(%rbp),%rax
   108e6:	48 83 c0 04          	add    $0x4,%rax
   108ea:	48 89 85 48 fa ff ff 	mov    %rax,-0x5b8(%rbp)
   108f1:	48 8d 85 7c ee ff ff 	lea    -0x1184(%rbp),%rax
   108f8:	48 89 85 50 fa ff ff 	mov    %rax,-0x5b0(%rbp)
   108ff:	48 8d 85 b0 ee ff ff 	lea    -0x1150(%rbp),%rax
   10906:	48 89 85 58 fa ff ff 	mov    %rax,-0x5a8(%rbp)
   1090d:	48 c7 85 60 fa ff ff 	movq   $0x0,-0x5a0(%rbp)
   10914:	00 00 00 00 
   10918:	48 8d 85 b0 ee ff ff 	lea    -0x1150(%rbp),%rax
   1091f:	48 89 85 68 fa ff ff 	mov    %rax,-0x598(%rbp)
   10926:	48 c7 85 70 fa ff ff 	movq   $0x0,-0x590(%rbp)
   1092d:	00 00 00 00 
   10931:	48 8d 85 84 ec ff ff 	lea    -0x137c(%rbp),%rax
   10938:	48 89 85 78 fa ff ff 	mov    %rax,-0x588(%rbp)
   1093f:	48 8d 85 b0 ee ff ff 	lea    -0x1150(%rbp),%rax
   10946:	48 89 85 80 fa ff ff 	mov    %rax,-0x580(%rbp)
   1094d:	48 8d 85 7c ee ff ff 	lea    -0x1184(%rbp),%rax
   10954:	48 83 c0 04          	add    $0x4,%rax
   10958:	48 89 85 88 fa ff ff 	mov    %rax,-0x578(%rbp)
   1095f:	48 8d 85 b0 ee ff ff 	lea    -0x1150(%rbp),%rax
   10966:	48 89 85 90 fa ff ff 	mov    %rax,-0x570(%rbp)
   1096d:	48 8d 85 b0 ee ff ff 	lea    -0x1150(%rbp),%rax
   10974:	48 83 c0 18          	add    $0x18,%rax
   10978:	48 89 85 98 fa ff ff 	mov    %rax,-0x568(%rbp)
   1097f:	48 8d 85 b0 ee ff ff 	lea    -0x1150(%rbp),%rax
   10986:	48 89 85 a0 fa ff ff 	mov    %rax,-0x560(%rbp)
   1098d:	48 8d 85 7c ee ff ff 	lea    -0x1184(%rbp),%rax
   10994:	48 83 c0 04          	add    $0x4,%rax
   10998:	48 89 85 a8 fa ff ff 	mov    %rax,-0x558(%rbp)
   1099f:	48 8d 85 b0 ee ff ff 	lea    -0x1150(%rbp),%rax
   109a6:	48 89 85 b0 fa ff ff 	mov    %rax,-0x550(%rbp)
   109ad:	48 8d 85 84 ec ff ff 	lea    -0x137c(%rbp),%rax
   109b4:	48 89 85 b8 fa ff ff 	mov    %rax,-0x548(%rbp)
   109bb:	48 8d 85 88 ec ff ff 	lea    -0x1378(%rbp),%rax
   109c2:	48 89 85 c0 fa ff ff 	mov    %rax,-0x540(%rbp)
   109c9:	48 8d 85 b0 ee ff ff 	lea    -0x1150(%rbp),%rax
   109d0:	48 83 c0 18          	add    $0x18,%rax
   109d4:	48 89 85 c8 fa ff ff 	mov    %rax,-0x538(%rbp)
   109db:	48 8d 85 7c ee ff ff 	lea    -0x1184(%rbp),%rax
   109e2:	48 83 c0 04          	add    $0x4,%rax
   109e6:	48 89 85 d0 fa ff ff 	mov    %rax,-0x530(%rbp)
   109ed:	48 c7 85 d8 fa ff ff 	movq   $0x0,-0x528(%rbp)
   109f4:	00 00 00 00 
   109f8:	48 8d 85 7c ee ff ff 	lea    -0x1184(%rbp),%rax
   109ff:	48 89 85 e0 fa ff ff 	mov    %rax,-0x520(%rbp)
   10a06:	48 c7 85 e8 fa ff ff 	movq   $0x0,-0x518(%rbp)
   10a0d:	00 00 00 00 
   10a11:	48 8d 85 7c ee ff ff 	lea    -0x1184(%rbp),%rax
   10a18:	48 89 85 f0 fa ff ff 	mov    %rax,-0x510(%rbp)
   10a1f:	48 8d 85 7c ee ff ff 	lea    -0x1184(%rbp),%rax
   10a26:	48 89 85 f8 fa ff ff 	mov    %rax,-0x508(%rbp)
   10a2d:	48 8d 85 b0 ee ff ff 	lea    -0x1150(%rbp),%rax
   10a34:	48 89 85 00 fb ff ff 	mov    %rax,-0x500(%rbp)
   10a3b:	48 8d 85 90 ec ff ff 	lea    -0x1370(%rbp),%rax
   10a42:	48 89 85 08 fb ff ff 	mov    %rax,-0x4f8(%rbp)
   10a49:	48 c7 85 10 fb ff ff 	movq   $0x0,-0x4f0(%rbp)
   10a50:	00 00 00 00 
   10a54:	48 8d 85 84 ec ff ff 	lea    -0x137c(%rbp),%rax
   10a5b:	48 89 85 18 fb ff ff 	mov    %rax,-0x4e8(%rbp)
   10a62:	48 8d 85 7c ee ff ff 	lea    -0x1184(%rbp),%rax
   10a69:	48 89 85 20 fb ff ff 	mov    %rax,-0x4e0(%rbp)
   10a70:	48 8d 85 7c ee ff ff 	lea    -0x1184(%rbp),%rax
   10a77:	48 83 c0 04          	add    $0x4,%rax
   10a7b:	48 89 85 28 fb ff ff 	mov    %rax,-0x4d8(%rbp)
   10a82:	48 8d 85 88 ec ff ff 	lea    -0x1378(%rbp),%rax
   10a89:	48 89 85 30 fb ff ff 	mov    %rax,-0x4d0(%rbp)
   10a90:	48 8d 05 a1 cb 00 00 	lea    0xcba1(%rip),%rax        # 1d638 <g_167>
   10a97:	48 89 85 38 fb ff ff 	mov    %rax,-0x4c8(%rbp)
   10a9e:	48 8d 05 93 cb 00 00 	lea    0xcb93(%rip),%rax        # 1d638 <g_167>
   10aa5:	48 89 85 40 fb ff ff 	mov    %rax,-0x4c0(%rbp)
   10aac:	48 8d 85 88 ec ff ff 	lea    -0x1378(%rbp),%rax
   10ab3:	48 89 85 48 fb ff ff 	mov    %rax,-0x4b8(%rbp)
   10aba:	48 8d 85 88 ec ff ff 	lea    -0x1378(%rbp),%rax
   10ac1:	48 89 85 50 fb ff ff 	mov    %rax,-0x4b0(%rbp)
   10ac8:	48 8d 85 7c ee ff ff 	lea    -0x1184(%rbp),%rax
   10acf:	48 89 85 58 fb ff ff 	mov    %rax,-0x4a8(%rbp)
   10ad6:	48 8d 85 7c ee ff ff 	lea    -0x1184(%rbp),%rax
   10add:	48 89 85 60 fb ff ff 	mov    %rax,-0x4a0(%rbp)
   10ae4:	48 8d 85 7c ee ff ff 	lea    -0x1184(%rbp),%rax
   10aeb:	48 89 85 68 fb ff ff 	mov    %rax,-0x498(%rbp)
   10af2:	48 8d 85 88 ec ff ff 	lea    -0x1378(%rbp),%rax
   10af9:	48 89 85 70 fb ff ff 	mov    %rax,-0x490(%rbp)
   10b00:	48 c7 85 78 fb ff ff 	movq   $0x0,-0x488(%rbp)
   10b07:	00 00 00 00 
   10b0b:	48 c7 85 80 fb ff ff 	movq   $0x0,-0x480(%rbp)
   10b12:	00 00 00 00 
   10b16:	48 8d 05 1b cb 00 00 	lea    0xcb1b(%rip),%rax        # 1d638 <g_167>
   10b1d:	48 89 85 88 fb ff ff 	mov    %rax,-0x478(%rbp)
   10b24:	48 8d 85 90 ec ff ff 	lea    -0x1370(%rbp),%rax
   10b2b:	48 89 85 90 fb ff ff 	mov    %rax,-0x470(%rbp)
   10b32:	48 8d 85 84 ec ff ff 	lea    -0x137c(%rbp),%rax
   10b39:	48 89 85 98 fb ff ff 	mov    %rax,-0x468(%rbp)
   10b40:	48 8d 85 b0 ee ff ff 	lea    -0x1150(%rbp),%rax
   10b47:	48 89 85 a0 fb ff ff 	mov    %rax,-0x460(%rbp)
   10b4e:	48 8d 85 90 ec ff ff 	lea    -0x1370(%rbp),%rax
   10b55:	48 89 85 a8 fb ff ff 	mov    %rax,-0x458(%rbp)
   10b5c:	48 8d 85 7c ee ff ff 	lea    -0x1184(%rbp),%rax
   10b63:	48 89 85 b0 fb ff ff 	mov    %rax,-0x450(%rbp)
   10b6a:	48 8d 05 c7 ca 00 00 	lea    0xcac7(%rip),%rax        # 1d638 <g_167>
   10b71:	48 89 85 b8 fb ff ff 	mov    %rax,-0x448(%rbp)
   10b78:	48 c7 85 c0 fb ff ff 	movq   $0x0,-0x440(%rbp)
   10b7f:	00 00 00 00 
   10b83:	48 8d 85 7c ee ff ff 	lea    -0x1184(%rbp),%rax
   10b8a:	48 89 85 c8 fb ff ff 	mov    %rax,-0x438(%rbp)
   10b91:	48 8d 85 7c ee ff ff 	lea    -0x1184(%rbp),%rax
   10b98:	48 89 85 d0 fb ff ff 	mov    %rax,-0x430(%rbp)
   10b9f:	48 c7 85 d8 fb ff ff 	movq   $0x0,-0x428(%rbp)
   10ba6:	00 00 00 00 
   10baa:	48 8d 85 b0 ee ff ff 	lea    -0x1150(%rbp),%rax
   10bb1:	48 83 c0 18          	add    $0x18,%rax
   10bb5:	48 89 85 e0 fb ff ff 	mov    %rax,-0x420(%rbp)
   10bbc:	48 8d 85 90 ec ff ff 	lea    -0x1370(%rbp),%rax
   10bc3:	48 89 85 e8 fb ff ff 	mov    %rax,-0x418(%rbp)
   10bca:	48 8d 85 b0 ee ff ff 	lea    -0x1150(%rbp),%rax
   10bd1:	48 89 85 f0 fb ff ff 	mov    %rax,-0x410(%rbp)
   10bd8:	48 c7 85 f8 fb ff ff 	movq   $0x0,-0x408(%rbp)
   10bdf:	00 00 00 00 
   10be3:	48 c7 85 00 fc ff ff 	movq   $0x0,-0x400(%rbp)
   10bea:	00 00 00 00 
   10bee:	48 c7 85 08 fc ff ff 	movq   $0x0,-0x3f8(%rbp)
   10bf5:	00 00 00 00 
   10bf9:	48 c7 85 10 fc ff ff 	movq   $0x0,-0x3f0(%rbp)
   10c00:	00 00 00 00 
   10c04:	48 8d 85 b0 ee ff ff 	lea    -0x1150(%rbp),%rax
   10c0b:	48 89 85 18 fc ff ff 	mov    %rax,-0x3e8(%rbp)
   10c12:	48 8d 85 90 ec ff ff 	lea    -0x1370(%rbp),%rax
   10c19:	48 89 85 20 fc ff ff 	mov    %rax,-0x3e0(%rbp)
   10c20:	48 8d 05 11 ca 00 00 	lea    0xca11(%rip),%rax        # 1d638 <g_167>
   10c27:	48 89 85 28 fc ff ff 	mov    %rax,-0x3d8(%rbp)
   10c2e:	48 c7 85 30 fc ff ff 	movq   $0x0,-0x3d0(%rbp)
   10c35:	00 00 00 00 
   10c39:	48 8d 85 b0 ee ff ff 	lea    -0x1150(%rbp),%rax
   10c40:	48 83 c0 18          	add    $0x18,%rax
   10c44:	48 89 85 38 fc ff ff 	mov    %rax,-0x3c8(%rbp)
   10c4b:	48 c7 85 40 fc ff ff 	movq   $0x0,-0x3c0(%rbp)
   10c52:	00 00 00 00 
   10c56:	48 8d 85 90 ec ff ff 	lea    -0x1370(%rbp),%rax
   10c5d:	48 89 85 48 fc ff ff 	mov    %rax,-0x3b8(%rbp)
   10c64:	48 8d 85 88 ec ff ff 	lea    -0x1378(%rbp),%rax
   10c6b:	48 89 85 50 fc ff ff 	mov    %rax,-0x3b0(%rbp)
   10c72:	48 8d 85 b0 ee ff ff 	lea    -0x1150(%rbp),%rax
   10c79:	48 89 85 58 fc ff ff 	mov    %rax,-0x3a8(%rbp)
   10c80:	48 8d 85 b0 ee ff ff 	lea    -0x1150(%rbp),%rax
   10c87:	48 89 85 60 fc ff ff 	mov    %rax,-0x3a0(%rbp)
   10c8e:	48 8d 85 7c ee ff ff 	lea    -0x1184(%rbp),%rax
   10c95:	48 89 85 68 fc ff ff 	mov    %rax,-0x398(%rbp)
   10c9c:	48 8d 85 7c ee ff ff 	lea    -0x1184(%rbp),%rax
   10ca3:	48 83 c0 04          	add    $0x4,%rax
   10ca7:	48 89 85 70 fc ff ff 	mov    %rax,-0x390(%rbp)
   10cae:	48 8d 85 7c ee ff ff 	lea    -0x1184(%rbp),%rax
   10cb5:	48 89 85 78 fc ff ff 	mov    %rax,-0x388(%rbp)
   10cbc:	48 c7 85 80 fc ff ff 	movq   $0x0,-0x380(%rbp)
   10cc3:	00 00 00 00 
   10cc7:	48 8d 85 7c ee ff ff 	lea    -0x1184(%rbp),%rax
   10cce:	48 89 85 88 fc ff ff 	mov    %rax,-0x378(%rbp)
   10cd5:	48 c7 85 90 fc ff ff 	movq   $0x0,-0x370(%rbp)
   10cdc:	00 00 00 00 
   10ce0:	48 c7 85 98 fc ff ff 	movq   $0x0,-0x368(%rbp)
   10ce7:	00 00 00 00 
   10ceb:	48 8d 85 7c ee ff ff 	lea    -0x1184(%rbp),%rax
   10cf2:	48 83 c0 04          	add    $0x4,%rax
   10cf6:	48 89 85 a0 fc ff ff 	mov    %rax,-0x360(%rbp)
   10cfd:	48 8d 85 b0 ee ff ff 	lea    -0x1150(%rbp),%rax
   10d04:	48 89 85 a8 fc ff ff 	mov    %rax,-0x358(%rbp)
   10d0b:	48 8d 85 7c ee ff ff 	lea    -0x1184(%rbp),%rax
   10d12:	48 83 c0 04          	add    $0x4,%rax
   10d16:	48 89 85 b0 fc ff ff 	mov    %rax,-0x350(%rbp)
   10d1d:	48 8d 85 b0 ee ff ff 	lea    -0x1150(%rbp),%rax
   10d24:	48 89 85 b8 fc ff ff 	mov    %rax,-0x348(%rbp)
   10d2b:	48 c7 85 c0 fc ff ff 	movq   $0x0,-0x340(%rbp)
   10d32:	00 00 00 00 
   10d36:	48 8d 85 7c ee ff ff 	lea    -0x1184(%rbp),%rax
   10d3d:	48 89 85 c8 fc ff ff 	mov    %rax,-0x338(%rbp)
   10d44:	48 8d 85 7c ee ff ff 	lea    -0x1184(%rbp),%rax
   10d4b:	48 89 85 d0 fc ff ff 	mov    %rax,-0x330(%rbp)
   10d52:	48 c7 85 d8 fc ff ff 	movq   $0x0,-0x328(%rbp)
   10d59:	00 00 00 00 
   10d5d:	48 8d 85 b0 ee ff ff 	lea    -0x1150(%rbp),%rax
   10d64:	48 89 85 e0 fc ff ff 	mov    %rax,-0x320(%rbp)
   10d6b:	48 8d 85 90 ec ff ff 	lea    -0x1370(%rbp),%rax
   10d72:	48 89 85 e8 fc ff ff 	mov    %rax,-0x318(%rbp)
   10d79:	48 8d 85 90 ec ff ff 	lea    -0x1370(%rbp),%rax
   10d80:	48 89 85 f0 fc ff ff 	mov    %rax,-0x310(%rbp)
   10d87:	48 8d 85 7c ee ff ff 	lea    -0x1184(%rbp),%rax
   10d8e:	48 83 c0 04          	add    $0x4,%rax
   10d92:	48 89 85 f8 fc ff ff 	mov    %rax,-0x308(%rbp)
   10d99:	48 c7 85 00 fd ff ff 	movq   $0x0,-0x300(%rbp)
   10da0:	00 00 00 00 
   10da4:	48 8d 85 90 ec ff ff 	lea    -0x1370(%rbp),%rax
   10dab:	48 89 85 08 fd ff ff 	mov    %rax,-0x2f8(%rbp)
   10db2:	48 8d 85 b0 ee ff ff 	lea    -0x1150(%rbp),%rax
   10db9:	48 89 85 10 fd ff ff 	mov    %rax,-0x2f0(%rbp)
   10dc0:	48 8d 85 7c ee ff ff 	lea    -0x1184(%rbp),%rax
   10dc7:	48 89 85 18 fd ff ff 	mov    %rax,-0x2e8(%rbp)
   10dce:	48 8d 05 63 c8 00 00 	lea    0xc863(%rip),%rax        # 1d638 <g_167>
   10dd5:	48 89 85 20 fd ff ff 	mov    %rax,-0x2e0(%rbp)
   10ddc:	48 8d 85 b0 ee ff ff 	lea    -0x1150(%rbp),%rax
   10de3:	48 89 85 28 fd ff ff 	mov    %rax,-0x2d8(%rbp)
   10dea:	48 8d 85 b0 ee ff ff 	lea    -0x1150(%rbp),%rax
   10df1:	48 89 85 30 fd ff ff 	mov    %rax,-0x2d0(%rbp)
   10df8:	48 8d 85 7c ee ff ff 	lea    -0x1184(%rbp),%rax
   10dff:	48 89 85 38 fd ff ff 	mov    %rax,-0x2c8(%rbp)
   10e06:	48 8d 85 7c ee ff ff 	lea    -0x1184(%rbp),%rax
   10e0d:	48 89 85 40 fd ff ff 	mov    %rax,-0x2c0(%rbp)
   10e14:	48 8d 85 7c ee ff ff 	lea    -0x1184(%rbp),%rax
   10e1b:	48 89 85 48 fd ff ff 	mov    %rax,-0x2b8(%rbp)
   10e22:	48 8d 85 b0 ee ff ff 	lea    -0x1150(%rbp),%rax
   10e29:	48 89 85 50 fd ff ff 	mov    %rax,-0x2b0(%rbp)
   10e30:	48 8d 85 90 ec ff ff 	lea    -0x1370(%rbp),%rax
   10e37:	48 89 85 58 fd ff ff 	mov    %rax,-0x2a8(%rbp)
   10e3e:	48 c7 85 60 fd ff ff 	movq   $0x0,-0x2a0(%rbp)
   10e45:	00 00 00 00 
   10e49:	48 8d 85 90 ec ff ff 	lea    -0x1370(%rbp),%rax
   10e50:	48 89 85 68 fd ff ff 	mov    %rax,-0x298(%rbp)
   10e57:	48 8d 05 da c7 00 00 	lea    0xc7da(%rip),%rax        # 1d638 <g_167>
   10e5e:	48 89 85 70 fd ff ff 	mov    %rax,-0x290(%rbp)
   10e65:	48 8d 85 90 ec ff ff 	lea    -0x1370(%rbp),%rax
   10e6c:	48 89 85 78 fd ff ff 	mov    %rax,-0x288(%rbp)
   10e73:	48 c7 85 80 fd ff ff 	movq   $0x0,-0x280(%rbp)
   10e7a:	00 00 00 00 
   10e7e:	48 8d 85 90 ec ff ff 	lea    -0x1370(%rbp),%rax
   10e85:	48 89 85 88 fd ff ff 	mov    %rax,-0x278(%rbp)
   10e8c:	48 8d 85 7c ee ff ff 	lea    -0x1184(%rbp),%rax
   10e93:	48 89 85 90 fd ff ff 	mov    %rax,-0x270(%rbp)
   10e9a:	48 8d 85 7c ee ff ff 	lea    -0x1184(%rbp),%rax
   10ea1:	48 89 85 98 fd ff ff 	mov    %rax,-0x268(%rbp)
   10ea8:	48 c7 85 a0 fd ff ff 	movq   $0x0,-0x260(%rbp)
   10eaf:	00 00 00 00 
   10eb3:	48 8d 85 b0 ee ff ff 	lea    -0x1150(%rbp),%rax
   10eba:	48 89 85 a8 fd ff ff 	mov    %rax,-0x258(%rbp)
   10ec1:	48 8d 85 90 ec ff ff 	lea    -0x1370(%rbp),%rax
   10ec8:	48 89 85 b0 fd ff ff 	mov    %rax,-0x250(%rbp)
   10ecf:	48 8d 85 90 ec ff ff 	lea    -0x1370(%rbp),%rax
   10ed6:	48 89 85 b8 fd ff ff 	mov    %rax,-0x248(%rbp)
   10edd:	48 8d 85 7c ee ff ff 	lea    -0x1184(%rbp),%rax
   10ee4:	48 83 c0 04          	add    $0x4,%rax
   10ee8:	48 89 85 c0 fd ff ff 	mov    %rax,-0x240(%rbp)
   10eef:	48 8d 85 7c ee ff ff 	lea    -0x1184(%rbp),%rax
   10ef6:	48 89 85 c8 fd ff ff 	mov    %rax,-0x238(%rbp)
   10efd:	48 c7 85 d0 fd ff ff 	movq   $0x0,-0x230(%rbp)
   10f04:	00 00 00 00 
   10f08:	48 8d 85 7c ee ff ff 	lea    -0x1184(%rbp),%rax
   10f0f:	48 89 85 d8 fd ff ff 	mov    %rax,-0x228(%rbp)
   10f16:	48 c7 85 e0 fd ff ff 	movq   $0x0,-0x220(%rbp)
   10f1d:	00 00 00 00 
   10f21:	48 8d 85 7c ee ff ff 	lea    -0x1184(%rbp),%rax
   10f28:	48 89 85 e8 fd ff ff 	mov    %rax,-0x218(%rbp)
   10f2f:	48 8d 85 7c ee ff ff 	lea    -0x1184(%rbp),%rax
   10f36:	48 83 c0 04          	add    $0x4,%rax
   10f3a:	48 89 85 f0 fd ff ff 	mov    %rax,-0x210(%rbp)
   10f41:	48 8d 05 f0 c6 00 00 	lea    0xc6f0(%rip),%rax        # 1d638 <g_167>
   10f48:	48 89 85 f8 fd ff ff 	mov    %rax,-0x208(%rbp)
   10f4f:	48 8d 85 7c ee ff ff 	lea    -0x1184(%rbp),%rax
   10f56:	48 89 85 00 fe ff ff 	mov    %rax,-0x200(%rbp)
   10f5d:	48 8d 85 b0 ee ff ff 	lea    -0x1150(%rbp),%rax
   10f64:	48 89 85 08 fe ff ff 	mov    %rax,-0x1f8(%rbp)
   10f6b:	48 8d 85 90 ec ff ff 	lea    -0x1370(%rbp),%rax
   10f72:	48 89 85 10 fe ff ff 	mov    %rax,-0x1f0(%rbp)
   10f79:	48 8d 85 90 ec ff ff 	lea    -0x1370(%rbp),%rax
   10f80:	48 89 85 18 fe ff ff 	mov    %rax,-0x1e8(%rbp)
   10f87:	48 c7 85 20 fe ff ff 	movq   $0x0,-0x1e0(%rbp)
   10f8e:	00 00 00 00 
   10f92:	48 8d 85 b0 ee ff ff 	lea    -0x1150(%rbp),%rax
   10f99:	48 83 c0 18          	add    $0x18,%rax
   10f9d:	48 89 85 28 fe ff ff 	mov    %rax,-0x1d8(%rbp)
   10fa4:	48 c7 85 30 fe ff ff 	movq   $0x0,-0x1d0(%rbp)
   10fab:	00 00 00 00 
   10faf:	48 8d 05 82 c6 00 00 	lea    0xc682(%rip),%rax        # 1d638 <g_167>
   10fb6:	48 89 85 38 fe ff ff 	mov    %rax,-0x1c8(%rbp)
   10fbd:	48 c7 85 40 fe ff ff 	movq   $0x0,-0x1c0(%rbp)
   10fc4:	00 00 00 00 
   10fc8:	48 8d 85 b0 ee ff ff 	lea    -0x1150(%rbp),%rax
   10fcf:	48 83 c0 18          	add    $0x18,%rax
   10fd3:	48 89 85 48 fe ff ff 	mov    %rax,-0x1b8(%rbp)
   10fda:	48 c7 85 50 fe ff ff 	movq   $0x0,-0x1b0(%rbp)
   10fe1:	00 00 00 00 
   10fe5:	48 8d 85 90 ec ff ff 	lea    -0x1370(%rbp),%rax
   10fec:	48 89 85 58 fe ff ff 	mov    %rax,-0x1a8(%rbp)
   10ff3:	48 8d 85 88 ec ff ff 	lea    -0x1378(%rbp),%rax
   10ffa:	48 89 85 60 fe ff ff 	mov    %rax,-0x1a0(%rbp)
   11001:	48 c7 85 68 fe ff ff 	movq   $0x0,-0x198(%rbp)
   11008:	00 00 00 00 
   1100c:	48 8d 85 b0 ee ff ff 	lea    -0x1150(%rbp),%rax
   11013:	48 89 85 70 fe ff ff 	mov    %rax,-0x190(%rbp)
   1101a:	48 8d 85 90 ec ff ff 	lea    -0x1370(%rbp),%rax
   11021:	48 89 85 78 fe ff ff 	mov    %rax,-0x188(%rbp)
   11028:	48 8d 85 b0 ee ff ff 	lea    -0x1150(%rbp),%rax
   1102f:	48 83 c0 18          	add    $0x18,%rax
   11033:	48 89 85 80 fe ff ff 	mov    %rax,-0x180(%rbp)
   1103a:	48 c7 85 88 fe ff ff 	movq   $0x0,-0x178(%rbp)
   11041:	00 00 00 00 
   11045:	48 8d 85 b0 ee ff ff 	lea    -0x1150(%rbp),%rax
   1104c:	48 89 85 90 fe ff ff 	mov    %rax,-0x170(%rbp)
   11053:	48 8d 85 7c ee ff ff 	lea    -0x1184(%rbp),%rax
   1105a:	48 89 85 98 fe ff ff 	mov    %rax,-0x168(%rbp)
   11061:	48 8d 05 d0 c5 00 00 	lea    0xc5d0(%rip),%rax        # 1d638 <g_167>
   11068:	48 89 85 a0 fe ff ff 	mov    %rax,-0x160(%rbp)
   1106f:	48 8d 85 b0 ee ff ff 	lea    -0x1150(%rbp),%rax
   11076:	48 89 85 a8 fe ff ff 	mov    %rax,-0x158(%rbp)
   1107d:	48 8d 85 7c ee ff ff 	lea    -0x1184(%rbp),%rax
   11084:	48 89 85 b0 fe ff ff 	mov    %rax,-0x150(%rbp)
   1108b:	48 8d 85 90 ec ff ff 	lea    -0x1370(%rbp),%rax
   11092:	48 89 85 b8 fe ff ff 	mov    %rax,-0x148(%rbp)
   11099:	48 8d 85 b0 ee ff ff 	lea    -0x1150(%rbp),%rax
   110a0:	48 89 85 c0 fe ff ff 	mov    %rax,-0x140(%rbp)
   110a7:	48 8d 85 84 ec ff ff 	lea    -0x137c(%rbp),%rax
   110ae:	48 89 85 c8 fe ff ff 	mov    %rax,-0x138(%rbp)
   110b5:	48 8d 85 90 ec ff ff 	lea    -0x1370(%rbp),%rax
   110bc:	48 89 85 d0 fe ff ff 	mov    %rax,-0x130(%rbp)
   110c3:	48 c7 85 d8 fe ff ff 	movq   $0x0,-0x128(%rbp)
   110ca:	00 00 00 00 
   110ce:	48 c7 85 e0 fe ff ff 	movq   $0x0,-0x120(%rbp)
   110d5:	00 00 00 00 
   110d9:	48 8d 85 90 ec ff ff 	lea    -0x1370(%rbp),%rax
   110e0:	48 89 85 e8 fe ff ff 	mov    %rax,-0x118(%rbp)
   110e7:	48 8d 85 84 ec ff ff 	lea    -0x137c(%rbp),%rax
   110ee:	48 89 85 f0 fe ff ff 	mov    %rax,-0x110(%rbp)
   110f5:	48 8d 85 7c ee ff ff 	lea    -0x1184(%rbp),%rax
   110fc:	48 89 85 f8 fe ff ff 	mov    %rax,-0x108(%rbp)
   11103:	48 8d 85 7c ee ff ff 	lea    -0x1184(%rbp),%rax
   1110a:	48 89 85 00 ff ff ff 	mov    %rax,-0x100(%rbp)
   11111:	48 8d 85 7c ee ff ff 	lea    -0x1184(%rbp),%rax
   11118:	48 89 85 08 ff ff ff 	mov    %rax,-0xf8(%rbp)
   1111f:	48 8d 85 88 ec ff ff 	lea    -0x1378(%rbp),%rax
   11126:	48 89 85 10 ff ff ff 	mov    %rax,-0xf0(%rbp)
   1112d:	48 c7 85 18 ff ff ff 	movq   $0x0,-0xe8(%rbp)
   11134:	00 00 00 00 
   11138:	48 c7 85 20 ff ff ff 	movq   $0x0,-0xe0(%rbp)
   1113f:	00 00 00 00 
   11143:	48 8d 05 ee c4 00 00 	lea    0xc4ee(%rip),%rax        # 1d638 <g_167>
   1114a:	48 89 85 28 ff ff ff 	mov    %rax,-0xd8(%rbp)
   11151:	48 8d 85 90 ec ff ff 	lea    -0x1370(%rbp),%rax
   11158:	48 89 85 30 ff ff ff 	mov    %rax,-0xd0(%rbp)
   1115f:	48 c7 85 38 ff ff ff 	movq   $0x0,-0xc8(%rbp)
   11166:	00 00 00 00 
   1116a:	48 8d 85 7c ee ff ff 	lea    -0x1184(%rbp),%rax
   11171:	48 89 85 40 ff ff ff 	mov    %rax,-0xc0(%rbp)
   11178:	48 8d 85 84 ec ff ff 	lea    -0x137c(%rbp),%rax
   1117f:	48 89 85 48 ff ff ff 	mov    %rax,-0xb8(%rbp)
   11186:	48 c7 85 50 ff ff ff 	movq   $0x0,-0xb0(%rbp)
   1118d:	00 00 00 00 
   11191:	48 8d 85 90 ec ff ff 	lea    -0x1370(%rbp),%rax
   11198:	48 89 85 58 ff ff ff 	mov    %rax,-0xa8(%rbp)
   1119f:	48 8d 05 92 c4 00 00 	lea    0xc492(%rip),%rax        # 1d638 <g_167>
   111a6:	48 89 85 60 ff ff ff 	mov    %rax,-0xa0(%rbp)
   111ad:	48 8d 85 b0 ee ff ff 	lea    -0x1150(%rbp),%rax
   111b4:	48 89 85 68 ff ff ff 	mov    %rax,-0x98(%rbp)
   111bb:	48 8d 85 7c ee ff ff 	lea    -0x1184(%rbp),%rax
   111c2:	48 89 85 70 ff ff ff 	mov    %rax,-0x90(%rbp)
   111c9:	48 8d 85 7c ee ff ff 	lea    -0x1184(%rbp),%rax
   111d0:	48 89 85 78 ff ff ff 	mov    %rax,-0x88(%rbp)
   111d7:	48 8d 85 7c ee ff ff 	lea    -0x1184(%rbp),%rax
   111de:	48 89 45 80          	mov    %rax,-0x80(%rbp)
   111e2:	48 c7 45 88 00 00 00 	movq   $0x0,-0x78(%rbp)
   111e9:	00 
   111ea:	48 8d 85 88 ec ff ff 	lea    -0x1378(%rbp),%rax
   111f1:	48 89 45 90          	mov    %rax,-0x70(%rbp)
   111f5:	48 8d 85 7c ee ff ff 	lea    -0x1184(%rbp),%rax
   111fc:	48 89 45 98          	mov    %rax,-0x68(%rbp)
   11200:	48 8d 85 90 ec ff ff 	lea    -0x1370(%rbp),%rax
   11207:	48 89 45 a0          	mov    %rax,-0x60(%rbp)
   1120b:	48 8d 85 90 ec ff ff 	lea    -0x1370(%rbp),%rax
   11212:	48 89 45 a8          	mov    %rax,-0x58(%rbp)
   11216:	48 8d 85 7c ee ff ff 	lea    -0x1184(%rbp),%rax
   1121d:	48 89 45 b0          	mov    %rax,-0x50(%rbp)
   11221:	48 8d 85 88 ec ff ff 	lea    -0x1378(%rbp),%rax
   11228:	48 89 45 b8          	mov    %rax,-0x48(%rbp)
   1122c:	48 8d 85 7c ee ff ff 	lea    -0x1184(%rbp),%rax
   11233:	48 83 c0 04          	add    $0x4,%rax
   11237:	48 89 45 c0          	mov    %rax,-0x40(%rbp)
   1123b:	48 8d 85 90 ec ff ff 	lea    -0x1370(%rbp),%rax
   11242:	48 89 45 c8          	mov    %rax,-0x38(%rbp)
   11246:	48 b8 c5 8f fd b8 fd 	movabs $0x2d7138fdb8fd8fc5,%rax
   1124d:	38 71 2d 
   11250:	48 89 85 90 ed ff ff 	mov    %rax,-0x1270(%rbp)
   11257:	66 c7 85 7e ec ff ff 	movw   $0x822f,-0x1382(%rbp)
   1125e:	2f 82 
   11260:	c7 85 94 ec ff ff 09 	movl   $0x9,-0x136c(%rbp)
   11267:	00 00 00 
   1126a:	c7 85 a0 ec ff ff 39 	movl   $0x59628c39,-0x1360(%rbp)
   11271:	8c 62 59 
   11274:	c7 85 a4 ec ff ff 00 	movl   $0x0,-0x135c(%rbp)
   1127b:	00 00 00 
   1127e:	eb 1e                	jmp    1129e <func_57+0xc91>
   11280:	8b 85 a4 ec ff ff    	mov    -0x135c(%rbp),%eax
   11286:	48 98                	cltq   
   11288:	48 8d 15 81 8f 00 00 	lea    0x8f81(%rip),%rdx        # 1a210 <g_105>
   1128f:	48 89 94 c5 90 ee ff 	mov    %rdx,-0x1170(%rbp,%rax,8)
   11296:	ff 
   11297:	83 85 a4 ec ff ff 01 	addl   $0x1,-0x135c(%rbp)
   1129e:	83 bd a4 ec ff ff 02 	cmpl   $0x2,-0x135c(%rbp)
   112a5:	7e d9                	jle    11280 <func_57+0xc73>
   112a7:	c7 85 a4 ec ff ff 00 	movl   $0x0,-0x135c(%rbp)
   112ae:	00 00 00 
   112b1:	eb 19                	jmp    112cc <func_57+0xcbf>
   112b3:	8b 85 a4 ec ff ff    	mov    -0x135c(%rbp),%eax
   112b9:	48 98                	cltq   
   112bb:	66 c7 84 45 86 ee ff 	movw   $0xfff8,-0x117a(%rbp,%rax,2)
   112c2:	ff f8 ff 
   112c5:	83 85 a4 ec ff ff 01 	addl   $0x1,-0x135c(%rbp)
   112cc:	83 bd a4 ec ff ff 04 	cmpl   $0x4,-0x135c(%rbp)
   112d3:	7e de                	jle    112b3 <func_57+0xca6>
   112d5:	48 8b 85 98 ef ff ff 	mov    -0x1068(%rbp),%rax
   112dc:	48 85 c0             	test   %rax,%rax
   112df:	0f 95 c0             	setne  %al
   112e2:	0f b6 c0             	movzbl %al,%eax
   112e5:	89 c7                	mov    %eax,%edi
   112e7:	e8 d3 5e ff ff       	callq  71bf <safe_unary_minus_func_int8_t_s>
   112ec:	0f b6 c0             	movzbl %al,%eax
   112ef:	be 04 00 00 00       	mov    $0x4,%esi
   112f4:	89 c7                	mov    %eax,%edi
   112f6:	e8 92 69 ff ff       	callq  7c8d <safe_rshift_func_uint8_t_u_s>
   112fb:	0f bf 9d 7c ec ff ff 	movswl -0x1384(%rbp),%ebx
   11302:	48 8b 05 5f 8f 00 00 	mov    0x8f5f(%rip),%rax        # 1a268 <g_107+0x48>
   11309:	88 85 76 ec ff ff    	mov    %al,-0x138a(%rbp)
   1130f:	0f b6 85 76 ec ff ff 	movzbl -0x138a(%rbp),%eax
   11316:	3c ff                	cmp    $0xff,%al
   11318:	74 07                	je     11321 <func_57+0xd14>
   1131a:	b8 01 00 00 00       	mov    $0x1,%eax
   1131f:	eb 05                	jmp    11326 <func_57+0xd19>
   11321:	b8 00 00 00 00       	mov    $0x0,%eax
   11326:	39 85 6c ec ff ff    	cmp    %eax,-0x1394(%rbp)
   1132c:	48 8b 05 f5 aa 00 00 	mov    0xaaf5(%rip),%rax        # 1be28 <g_166>
   11333:	8b 00                	mov    (%rax),%eax
   11335:	85 c0                	test   %eax,%eax
   11337:	74 10                	je     11349 <func_57+0xd3c>
   11339:	83 bd 6c ec ff ff 00 	cmpl   $0x0,-0x1394(%rbp)
   11340:	74 07                	je     11349 <func_57+0xd3c>
   11342:	b8 01 00 00 00       	mov    $0x1,%eax
   11347:	eb 05                	jmp    1134e <func_57+0xd41>
   11349:	b8 00 00 00 00       	mov    $0x0,%eax
   1134e:	f7 d0                	not    %eax
   11350:	39 85 6c ec ff ff    	cmp    %eax,-0x1394(%rbp)
   11356:	0f 92 c0             	setb   %al
   11359:	0f b6 c0             	movzbl %al,%eax
   1135c:	89 85 8c ec ff ff    	mov    %eax,-0x1374(%rbp)
   11362:	8b 95 8c ec ff ff    	mov    -0x1374(%rbp),%edx
   11368:	8b 85 90 ec ff ff    	mov    -0x1370(%rbp),%eax
   1136e:	39 c2                	cmp    %eax,%edx
   11370:	74 13                	je     11385 <func_57+0xd78>
   11372:	0f b6 85 76 ec ff ff 	movzbl -0x138a(%rbp),%eax
   11379:	84 c0                	test   %al,%al
   1137b:	74 08                	je     11385 <func_57+0xd78>
   1137d:	66 83 bd 7a ec ff ff 	cmpw   $0x0,-0x1386(%rbp)
   11384:	00 
   11385:	48 be 83 87 50 6b 02 	movabs $0x5c0020026b508783,%rsi
   1138c:	20 00 5c 
   1138f:	bf 00 00 00 00       	mov    $0x0,%edi
   11394:	e8 16 6d ff ff       	callq  80af <safe_div_func_uint64_t_u_u>
   11399:	89 85 90 ec ff ff    	mov    %eax,-0x1370(%rbp)
   1139f:	8b 85 90 ec ff ff    	mov    -0x1370(%rbp),%eax
   113a5:	39 85 6c ec ff ff    	cmp    %eax,-0x1394(%rbp)
   113ab:	0f 94 c0             	sete   %al
   113ae:	0f b6 d0             	movzbl %al,%edx
   113b1:	48 8b 85 20 ed ff ff 	mov    -0x12e0(%rbp),%rax
   113b8:	48 8b 08             	mov    (%rax),%rcx
   113bb:	48 63 d2             	movslq %edx,%rdx
   113be:	48 8b 85 20 ed ff ff 	mov    -0x12e0(%rbp),%rax
   113c5:	48 21 ca             	and    %rcx,%rdx
   113c8:	48 89 10             	mov    %rdx,(%rax)
   113cb:	48 8b 00             	mov    (%rax),%rax
   113ce:	48 83 f8 08          	cmp    $0x8,%rax
   113d2:	0f 94 c0             	sete   %al
   113d5:	0f b6 c0             	movzbl %al,%eax
   113d8:	89 de                	mov    %ebx,%esi
   113da:	89 c7                	mov    %eax,%edi
   113dc:	e8 dd 69 ff ff       	callq  7dbe <safe_lshift_func_uint16_t_u_s>
   113e1:	48 8b 05 60 b2 00 00 	mov    0xb260(%rip),%rax        # 1c648 <g_411>
   113e8:	48 89 85 58 ed ff ff 	mov    %rax,-0x12a8(%rbp)
   113ef:	48 83 bd 58 ed ff ff 	cmpq   $0x0,-0x12a8(%rbp)
   113f6:	00 
   113f7:	0f 94 c0             	sete   %al
   113fa:	0f b6 d0             	movzbl %al,%edx
   113fd:	8b 85 90 ec ff ff    	mov    -0x1370(%rbp),%eax
   11403:	83 f8 fe             	cmp    $0xfffffffe,%eax
   11406:	0f 94 c0             	sete   %al
   11409:	0f b6 c0             	movzbl %al,%eax
   1140c:	39 85 6c ec ff ff    	cmp    %eax,-0x1394(%rbp)
   11412:	0f 97 c0             	seta   %al
   11415:	0f b6 c8             	movzbl %al,%ecx
   11418:	0f b6 05 39 8c 00 00 	movzbl 0x8c39(%rip),%eax        # 1a058 <g_71>
   1141f:	0f b6 c0             	movzbl %al,%eax
   11422:	09 c8                	or     %ecx,%eax
   11424:	f7 d0                	not    %eax
   11426:	48 98                	cltq   
   11428:	25 f8 ce 00 00       	and    $0xcef8,%eax
   1142d:	48 39 c2             	cmp    %rax,%rdx
   11430:	0f 84 25 01 00 00    	je     1155b <func_57+0xf4e>
   11436:	c7 85 c0 ec ff ff 06 	movl   $0x6,-0x1340(%rbp)
   1143d:	00 00 00 
   11440:	48 8d 85 18 ed ff ff 	lea    -0x12e8(%rbp),%rax
   11447:	48 89 85 20 ee ff ff 	mov    %rax,-0x11e0(%rbp)
   1144e:	48 8d 85 8c ec ff ff 	lea    -0x1374(%rbp),%rax
   11455:	48 89 85 38 ed ff ff 	mov    %rax,-0x12c8(%rbp)
   1145c:	48 8d 85 38 ed ff ff 	lea    -0x12c8(%rbp),%rax
   11463:	48 89 85 28 ee ff ff 	mov    %rax,-0x11d8(%rbp)
   1146a:	48 8d 85 90 ec ff ff 	lea    -0x1370(%rbp),%rax
   11471:	48 89 85 30 ee ff ff 	mov    %rax,-0x11d0(%rbp)
   11478:	48 8b 95 18 ed ff ff 	mov    -0x12e8(%rbp),%rdx
   1147f:	48 8b 85 20 ee ff ff 	mov    -0x11e0(%rbp),%rax
   11486:	48 89 10             	mov    %rdx,(%rax)
   11489:	48 8b 85 20 ee ff ff 	mov    -0x11e0(%rbp),%rax
   11490:	48 8b 10             	mov    (%rax),%rdx
   11493:	48 8b 85 28 ee ff ff 	mov    -0x11d8(%rbp),%rax
   1149a:	48 89 10             	mov    %rdx,(%rax)
   1149d:	c7 85 6c ec ff ff fb 	movl   $0xfffffffb,-0x1394(%rbp)
   114a4:	ff ff ff 
   114a7:	eb 54                	jmp    114fd <func_57+0xef0>
   114a9:	c7 85 a8 ec ff ff 00 	movl   $0x0,-0x1358(%rbp)
   114b0:	00 00 00 
   114b3:	eb 1b                	jmp    114d0 <func_57+0xec3>
   114b5:	8b 85 a8 ec ff ff    	mov    -0x1358(%rbp),%eax
   114bb:	48 98                	cltq   
   114bd:	48 c7 84 c5 70 f2 ff 	movq   $0x0,-0xd90(%rbp,%rax,8)
   114c4:	ff 00 00 00 00 
   114c9:	83 85 a8 ec ff ff 01 	addl   $0x1,-0x1358(%rbp)
   114d0:	83 bd a8 ec ff ff 00 	cmpl   $0x0,-0x1358(%rbp)
   114d7:	7e dc                	jle    114b5 <func_57+0xea8>
   114d9:	c7 85 90 ec ff ff fe 	movl   $0xfffffffe,-0x1370(%rbp)
   114e0:	ff ff ff 
   114e3:	8b 85 6c ec ff ff    	mov    -0x1394(%rbp),%eax
   114e9:	98                   	cwtl   
   114ea:	be 06 00 00 00       	mov    $0x6,%esi
   114ef:	89 c7                	mov    %eax,%edi
   114f1:	e8 bd 5e ff ff       	callq  73b3 <safe_add_func_int16_t_s_s>
   114f6:	98                   	cwtl   
   114f7:	89 85 6c ec ff ff    	mov    %eax,-0x1394(%rbp)
   114fd:	83 bd 6c ec ff ff 39 	cmpl   $0x39,-0x1394(%rbp)
   11504:	77 a3                	ja     114a9 <func_57+0xe9c>
   11506:	48 8b 85 18 ed ff ff 	mov    -0x12e8(%rbp),%rax
   1150d:	8b 00                	mov    (%rax),%eax
   1150f:	0f be c0             	movsbl %al,%eax
   11512:	be 06 00 00 00       	mov    $0x6,%esi
   11517:	89 c7                	mov    %eax,%edi
   11519:	e8 4e 5e ff ff       	callq  736c <safe_rshift_func_int8_t_s_u>
   1151e:	48 8b 95 30 ee ff ff 	mov    -0x11d0(%rbp),%rdx
   11525:	8b 12                	mov    (%rdx),%edx
   11527:	0f be c0             	movsbl %al,%eax
   1152a:	21 c2                	and    %eax,%edx
   1152c:	48 8b 85 30 ee ff ff 	mov    -0x11d0(%rbp),%rax
   11533:	89 10                	mov    %edx,(%rax)
   11535:	c7 05 49 8d 00 00 1b 	movl   $0x1b,0x8d49(%rip)        # 1a288 <g_311>
   1153c:	00 00 00 
   1153f:	90                   	nop
   11540:	8b 05 42 8d 00 00    	mov    0x8d42(%rip),%eax        # 1a288 <g_311>
   11546:	83 f8 3c             	cmp    $0x3c,%eax
   11549:	0f 84 10 05 00 00    	je     11a5f <func_57+0x1452>
   1154f:	48 8d 05 02 8b 00 00 	lea    0x8b02(%rip),%rax        # 1a058 <g_71>
   11556:	e9 3f 0d 00 00       	jmpq   1229a <func_57+0x1c8d>
   1155b:	48 c7 85 98 ed ff ff 	movq   $0x0,-0x1268(%rbp)
   11562:	00 00 00 00 
   11566:	48 c7 85 a0 ed ff ff 	movq   $0x0,-0x1260(%rbp)
   1156d:	00 00 00 00 
   11571:	48 c7 85 a8 ed ff ff 	movq   $0x0,-0x1258(%rbp)
   11578:	00 00 00 00 
   1157c:	48 8d 05 ad c0 00 00 	lea    0xc0ad(%rip),%rax        # 1d630 <g_112>
   11583:	48 89 85 30 ed ff ff 	mov    %rax,-0x12d0(%rbp)
   1158a:	48 8d 85 30 ed ff ff 	lea    -0x12d0(%rbp),%rax
   11591:	48 89 85 b0 ed ff ff 	mov    %rax,-0x1250(%rbp)
   11598:	c7 85 b4 ec ff ff ff 	movl   $0xffffffff,-0x134c(%rbp)
   1159f:	ff ff ff 
   115a2:	48 8d 85 70 f2 ff ff 	lea    -0xd90(%rbp),%rax
   115a9:	48 8d 15 10 43 00 00 	lea    0x4310(%rip),%rdx        # 158c0 <g_1245+0x820>
   115b0:	b9 79 00 00 00       	mov    $0x79,%ecx
   115b5:	48 89 c7             	mov    %rax,%rdi
   115b8:	48 89 d6             	mov    %rdx,%rsi
   115bb:	f3 48 a5             	rep movsq %ds:(%rsi),%es:(%rdi)
   115be:	48 89 f2             	mov    %rsi,%rdx
   115c1:	48 89 f8             	mov    %rdi,%rax
   115c4:	8b 0a                	mov    (%rdx),%ecx
   115c6:	89 08                	mov    %ecx,(%rax)
   115c8:	48 8d 40 04          	lea    0x4(%rax),%rax
   115cc:	48 8d 52 04          	lea    0x4(%rdx),%rdx
   115d0:	48 8d 85 b0 ee ff ff 	lea    -0x1150(%rbp),%rax
   115d7:	48 89 85 b8 ed ff ff 	mov    %rax,-0x1248(%rbp)
   115de:	be 0a 00 00 00       	mov    $0xa,%esi
   115e3:	bf b9 5b 00 00       	mov    $0x5bb9,%edi
   115e8:	e8 d1 67 ff ff       	callq  7dbe <safe_lshift_func_uint16_t_u_s>
   115ed:	66 85 c0             	test   %ax,%ax
   115f0:	75 08                	jne    115fa <func_57+0xfed>
   115f2:	66 83 bd 7c ec ff ff 	cmpw   $0x0,-0x1384(%rbp)
   115f9:	00 
   115fa:	48 8b 85 b0 ed ff ff 	mov    -0x1250(%rbp),%rax
   11601:	48 8d 15 80 8c 00 00 	lea    0x8c80(%rip),%rdx        # 1a288 <g_311>
   11608:	48 89 10             	mov    %rdx,(%rax)
   1160b:	48 8b 85 b0 ed ff ff 	mov    -0x1250(%rbp),%rax
   11612:	48 8b 00             	mov    (%rax),%rax
   11615:	48 39 85 58 ec ff ff 	cmp    %rax,-0x13a8(%rbp)
   1161c:	0f 94 c0             	sete   %al
   1161f:	0f b6 c0             	movzbl %al,%eax
   11622:	39 85 6c ec ff ff    	cmp    %eax,-0x1394(%rbp)
   11628:	0f 86 02 01 00 00    	jbe    11730 <func_57+0x1123>
   1162e:	48 8d 85 90 ee ff ff 	lea    -0x1170(%rbp),%rax
   11635:	48 83 c0 10          	add    $0x10,%rax
   11639:	48 89 85 f0 ed ff ff 	mov    %rax,-0x1210(%rbp)
   11640:	48 8d 85 90 ec ff ff 	lea    -0x1370(%rbp),%rax
   11647:	48 89 85 f8 ed ff ff 	mov    %rax,-0x1208(%rbp)
   1164e:	48 8d 85 8c ec ff ff 	lea    -0x1374(%rbp),%rax
   11655:	48 89 85 00 ee ff ff 	mov    %rax,-0x1200(%rbp)
   1165c:	48 c7 85 08 ee ff ff 	movq   $0x0,-0x11f8(%rbp)
   11663:	00 00 00 00 
   11667:	48 8d 05 ca bf 00 00 	lea    0xbfca(%rip),%rax        # 1d638 <g_167>
   1166e:	48 89 85 e0 f0 ff ff 	mov    %rax,-0xf20(%rbp)
   11675:	48 8d 05 bc bf 00 00 	lea    0xbfbc(%rip),%rax        # 1d638 <g_167>
   1167c:	48 89 85 e8 f0 ff ff 	mov    %rax,-0xf18(%rbp)
   11683:	48 8d 05 ae bf 00 00 	lea    0xbfae(%rip),%rax        # 1d638 <g_167>
   1168a:	48 89 85 f0 f0 ff ff 	mov    %rax,-0xf10(%rbp)
   11691:	48 8d 05 a0 bf 00 00 	lea    0xbfa0(%rip),%rax        # 1d638 <g_167>
   11698:	48 89 85 f8 f0 ff ff 	mov    %rax,-0xf08(%rbp)
   1169f:	c7 85 b8 ec ff ff 01 	movl   $0x1,-0x1348(%rbp)
   116a6:	00 00 00 
   116a9:	c7 85 bc ec ff ff 0b 	movl   $0x20b5a90b,-0x1344(%rbp)
   116b0:	a9 b5 20 
   116b3:	48 8d 05 fe 8b 00 00 	lea    0x8bfe(%rip),%rax        # 1a2b8 <g_469+0x18>
   116ba:	48 89 85 38 ed ff ff 	mov    %rax,-0x12c8(%rbp)
   116c1:	48 8d 85 38 ed ff ff 	lea    -0x12c8(%rbp),%rax
   116c8:	48 89 85 10 ee ff ff 	mov    %rax,-0x11f0(%rbp)
   116cf:	48 8d 05 7a bf 00 00 	lea    0xbf7a(%rip),%rax        # 1d650 <g_413>
   116d6:	48 89 85 18 ee ff ff 	mov    %rax,-0x11e8(%rbp)
   116dd:	48 8b 85 f0 ed ff ff 	mov    -0x1210(%rbp),%rax
   116e4:	48 c7 00 00 00 00 00 	movq   $0x0,(%rax)
   116eb:	48 8b 85 f0 ed ff ff 	mov    -0x1210(%rbp),%rax
   116f2:	48 8b 00             	mov    (%rax),%rax
   116f5:	48 8d 15 14 8b 00 00 	lea    0x8b14(%rip),%rdx        # 1a210 <g_105>
   116fc:	48 39 d0             	cmp    %rdx,%rax
   116ff:	8b 05 7b 8b 00 00    	mov    0x8b7b(%rip),%eax        # 1a280 <g_191>
   11705:	83 85 bc ec ff ff 01 	addl   $0x1,-0x1344(%rbp)
   1170c:	48 8b 05 3d bf 00 00 	mov    0xbf3d(%rip),%rax        # 1d650 <g_413>
   11713:	48 89 85 10 ee ff ff 	mov    %rax,-0x11f0(%rbp)
   1171a:	48 8b 85 18 ee ff ff 	mov    -0x11e8(%rbp),%rax
   11721:	48 8b 95 10 ee ff ff 	mov    -0x11f0(%rbp),%rdx
   11728:	48 89 10             	mov    %rdx,(%rax)
   1172b:	e9 23 03 00 00       	jmpq   11a53 <func_57+0x1446>
   11730:	48 c7 85 c0 ed ff ff 	movq   $0xffffffffffffffff,-0x1240(%rbp)
   11737:	ff ff ff ff 
   1173b:	c7 05 ef be 00 00 08 	movl   $0x8,0xbeef(%rip)        # 1d634 <g_139>
   11742:	00 00 00 
   11745:	e9 a6 01 00 00       	jmpq   118f0 <func_57+0x12e3>
   1174a:	48 8d 05 1f 8b 00 00 	lea    0x8b1f(%rip),%rax        # 1a270 <g_107+0x50>
   11751:	48 89 85 38 ed ff ff 	mov    %rax,-0x12c8(%rbp)
   11758:	48 8d 85 38 ed ff ff 	lea    -0x12c8(%rbp),%rax
   1175f:	48 89 85 e0 ed ff ff 	mov    %rax,-0x1220(%rbp)
   11766:	48 8d 85 90 ec ff ff 	lea    -0x1370(%rbp),%rax
   1176d:	48 89 85 e8 ed ff ff 	mov    %rax,-0x1218(%rbp)
   11774:	8b 9d 6c ec ff ff    	mov    -0x1394(%rbp),%ebx
   1177a:	8b 85 6c ec ff ff    	mov    -0x1394(%rbp),%eax
   11780:	44 0f bf e0          	movswl %ax,%r12d
   11784:	8b 85 6c ec ff ff    	mov    -0x1394(%rbp),%eax
   1178a:	48 be 9c 6a 01 af 3c 	movabs $0x272b9f3caf016a9c,%rsi
   11791:	9f 2b 27 
   11794:	48 89 c7             	mov    %rax,%rdi
   11797:	e8 13 69 ff ff       	callq  80af <safe_div_func_uint64_t_u_u>
   1179c:	89 c2                	mov    %eax,%edx
   1179e:	48 8b 85 60 ec ff ff 	mov    -0x13a0(%rbp),%rax
   117a5:	89 10                	mov    %edx,(%rax)
   117a7:	48 8b 85 c0 ed ff ff 	mov    -0x1240(%rbp),%rax
   117ae:	44 0f be e8          	movsbl %al,%r13d
   117b2:	48 83 bd 40 ed ff ff 	cmpq   $0x0,-0x12c0(%rbp)
   117b9:	00 
   117ba:	0f 84 80 00 00 00    	je     11840 <func_57+0x1233>
   117c0:	0f b7 05 93 88 00 00 	movzwl 0x8893(%rip),%eax        # 1a05a <g_89>
   117c7:	44 0f b7 f0          	movzwl %ax,%r14d
   117cb:	83 bd 6c ec ff ff 00 	cmpl   $0x0,-0x1394(%rbp)
   117d2:	75 3f                	jne    11813 <func_57+0x1206>
   117d4:	8b 85 6c ec ff ff    	mov    -0x1394(%rbp),%eax
   117da:	98                   	cwtl   
   117db:	c7 85 d8 f3 ff ff 06 	movl   $0x8e06,-0xc28(%rbp)
   117e2:	8e 00 00 
   117e5:	89 c6                	mov    %eax,%esi
   117e7:	bf 06 8e ff ff       	mov    $0xffff8e06,%edi
   117ec:	e8 64 5c ff ff       	callq  7455 <safe_div_func_int16_t_s_s>
   117f1:	8b 05 c1 8a 00 00    	mov    0x8ac1(%rip),%eax        # 1a2b8 <g_469+0x18>
   117f7:	48 98                	cltq   
   117f9:	48 c7 c6 fc ff ff ff 	mov    $0xfffffffffffffffc,%rsi
   11800:	48 89 c7             	mov    %rax,%rdi
   11803:	e8 a7 68 ff ff       	callq  80af <safe_div_func_uint64_t_u_u>
   11808:	89 c7                	mov    %eax,%edi
   1180a:	e8 87 5d ff ff       	callq  7596 <safe_unary_minus_func_int32_t_s>
   1180f:	85 c0                	test   %eax,%eax
   11811:	74 07                	je     1181a <func_57+0x120d>
   11813:	b8 01 00 00 00       	mov    $0x1,%eax
   11818:	eb 05                	jmp    1181f <func_57+0x1212>
   1181a:	b8 00 00 00 00       	mov    $0x0,%eax
   1181f:	39 85 6c ec ff ff    	cmp    %eax,-0x1394(%rbp)
   11825:	0f 95 c0             	setne  %al
   11828:	0f b6 c0             	movzbl %al,%eax
   1182b:	44 89 f6             	mov    %r14d,%esi
   1182e:	89 c7                	mov    %eax,%edi
   11830:	e8 81 5d ff ff       	callq  75b6 <safe_add_func_int32_t_s_s>
   11835:	85 c0                	test   %eax,%eax
   11837:	74 07                	je     11840 <func_57+0x1233>
   11839:	b8 01 00 00 00       	mov    $0x1,%eax
   1183e:	eb 05                	jmp    11845 <func_57+0x1238>
   11840:	b8 00 00 00 00       	mov    $0x0,%eax
   11845:	0f be c0             	movsbl %al,%eax
   11848:	44 89 ee             	mov    %r13d,%esi
   1184b:	89 c7                	mov    %eax,%edi
   1184d:	e8 df 59 ff ff       	callq  7231 <safe_mod_func_int8_t_s_s>
   11852:	8b 15 fc 58 00 00    	mov    0x58fc(%rip),%edx        # 17154 <l_497.4841+0x4>
   11858:	31 d0                	xor    %edx,%eax
   1185a:	0f be d0             	movsbl %al,%edx
   1185d:	48 8b 8d 38 ed ff ff 	mov    -0x12c8(%rbp),%rcx
   11864:	48 8b 85 e0 ed ff ff 	mov    -0x1220(%rbp),%rax
   1186b:	48 89 08             	mov    %rcx,(%rax)
   1186e:	48 8b 85 e0 ed ff ff 	mov    -0x1220(%rbp),%rax
   11875:	48 8b 00             	mov    (%rax),%rax
   11878:	48 39 85 50 ed ff ff 	cmp    %rax,-0x12b0(%rbp)
   1187f:	0f 95 c0             	setne  %al
   11882:	0f b6 c0             	movzbl %al,%eax
   11885:	39 85 6c ec ff ff    	cmp    %eax,-0x1394(%rbp)
   1188b:	0f 95 c0             	setne  %al
   1188e:	0f b6 c0             	movzbl %al,%eax
   11891:	89 d6                	mov    %edx,%esi
   11893:	89 c7                	mov    %eax,%edi
   11895:	e8 3a 59 ff ff       	callq  71d4 <safe_add_func_int8_t_s_s>
   1189a:	0f be c0             	movsbl %al,%eax
   1189d:	44 89 e6             	mov    %r12d,%esi
   118a0:	89 c7                	mov    %eax,%edi
   118a2:	e8 4e 5b ff ff       	callq  73f5 <safe_mul_func_int16_t_s_s>
   118a7:	98                   	cwtl   
   118a8:	89 de                	mov    %ebx,%esi
   118aa:	89 c7                	mov    %eax,%edi
   118ac:	e8 4e 5e ff ff       	callq  76ff <safe_div_func_int32_t_s_s>
   118b1:	0f b7 05 cc 89 00 00 	movzwl 0x89cc(%rip),%eax        # 1a284 <g_310>
   118b8:	f7 d0                	not    %eax
   118ba:	66 c1 e8 0f          	shr    $0xf,%ax
   118be:	0f b6 d0             	movzbl %al,%edx
   118c1:	48 8b 85 e8 ed ff ff 	mov    -0x1218(%rbp),%rax
   118c8:	8b 00                	mov    (%rax),%eax
   118ca:	09 c2                	or     %eax,%edx
   118cc:	48 8b 85 e8 ed ff ff 	mov    -0x1218(%rbp),%rax
   118d3:	89 10                	mov    %edx,(%rax)
   118d5:	8b 05 59 bd 00 00    	mov    0xbd59(%rip),%eax        # 1d634 <g_139>
   118db:	89 c0                	mov    %eax,%eax
   118dd:	be 03 00 00 00       	mov    $0x3,%esi
   118e2:	48 89 c7             	mov    %rax,%rdi
   118e5:	e8 44 67 ff ff       	callq  802e <safe_add_func_uint64_t_u_u>
   118ea:	89 05 44 bd 00 00    	mov    %eax,0xbd44(%rip)        # 1d634 <g_139>
   118f0:	8b 05 3e bd 00 00    	mov    0xbd3e(%rip),%eax        # 1d634 <g_139>
   118f6:	83 f8 15             	cmp    $0x15,%eax
   118f9:	0f 86 4b fe ff ff    	jbe    1174a <func_57+0x113d>
   118ff:	48 c7 85 40 ed ff ff 	movq   $0x0,-0x12c0(%rbp)
   11906:	00 00 00 00 
   1190a:	e9 36 01 00 00       	jmpq   11a45 <func_57+0x1438>
   1190f:	48 c7 85 c8 ed ff ff 	movq   $0xffffffffffffffff,-0x1238(%rbp)
   11916:	ff ff ff ff 
   1191a:	48 8d 05 af 89 00 00 	lea    0x89af(%rip),%rax        # 1a2d0 <g_511>
   11921:	48 89 85 d0 ed ff ff 	mov    %rax,-0x1230(%rbp)
   11928:	48 c7 85 d8 ed ff ff 	movq   $0x0,-0x1228(%rbp)
   1192f:	00 00 00 00 
   11933:	48 8d 85 18 ed ff ff 	lea    -0x12e8(%rbp),%rax
   1193a:	48 89 85 e0 f0 ff ff 	mov    %rax,-0xf20(%rbp)
   11941:	48 8d 85 18 ed ff ff 	lea    -0x12e8(%rbp),%rax
   11948:	48 89 85 e8 f0 ff ff 	mov    %rax,-0xf18(%rbp)
   1194f:	48 8d 85 18 ed ff ff 	lea    -0x12e8(%rbp),%rax
   11956:	48 89 85 f0 f0 ff ff 	mov    %rax,-0xf10(%rbp)
   1195d:	48 8d 85 18 ed ff ff 	lea    -0x12e8(%rbp),%rax
   11964:	48 89 85 f8 f0 ff ff 	mov    %rax,-0xf08(%rbp)
   1196b:	48 8d 85 18 ed ff ff 	lea    -0x12e8(%rbp),%rax
   11972:	48 89 85 00 f1 ff ff 	mov    %rax,-0xf00(%rbp)
   11979:	48 8d 85 18 ed ff ff 	lea    -0x12e8(%rbp),%rax
   11980:	48 89 85 08 f1 ff ff 	mov    %rax,-0xef8(%rbp)
   11987:	8b 9d 6c ec ff ff    	mov    -0x1394(%rbp),%ebx
   1198d:	be d5 82 00 00       	mov    $0x82d5,%esi
   11992:	bf f7 ab 00 00       	mov    $0xabf7,%edi
   11997:	e8 83 63 ff ff       	callq  7d1f <safe_sub_func_uint16_t_u_u>
   1199c:	66 85 c0             	test   %ax,%ax
   1199f:	74 12                	je     119b3 <func_57+0x13a6>
   119a1:	be 0f 00 00 00       	mov    $0xf,%esi
   119a6:	bf 2e f5 ff ff       	mov    $0xfffff52e,%edi
   119ab:	e8 b3 5b ff ff       	callq  7563 <safe_rshift_func_int16_t_s_u>
   119b0:	66 85 c0             	test   %ax,%ax
   119b3:	48 83 bd c8 ed ff ff 	cmpq   $0x0,-0x1238(%rbp)
   119ba:	00 
   119bb:	0f 9e c0             	setle  %al
   119be:	0f b6 c0             	movzbl %al,%eax
   119c1:	be 03 00 00 00       	mov    $0x3,%esi
   119c6:	89 c7                	mov    %eax,%edi
   119c8:	e8 7f 62 ff ff       	callq  7c4c <safe_lshift_func_uint8_t_u_u>
   119cd:	0f b6 d0             	movzbl %al,%edx
   119d0:	48 8b 85 18 ed ff ff 	mov    -0x12e8(%rbp),%rax
   119d7:	8b 00                	mov    (%rax),%eax
   119d9:	98                   	cwtl   
   119da:	89 d6                	mov    %edx,%esi
   119dc:	89 c7                	mov    %eax,%edi
   119de:	e8 fe 5a ff ff       	callq  74e1 <safe_lshift_func_int16_t_s_u>
   119e3:	98                   	cwtl   
   119e4:	89 de                	mov    %ebx,%esi
   119e6:	89 c7                	mov    %eax,%edi
   119e8:	e8 12 5d ff ff       	callq  76ff <safe_div_func_int32_t_s_s>
   119ed:	48 8b 85 40 ed ff ff 	mov    -0x12c0(%rbp),%rax
   119f4:	48 8d 14 c5 00 00 00 	lea    0x0(,%rax,8),%rdx
   119fb:	00 
   119fc:	48 8d 05 35 ac 00 00 	lea    0xac35(%rip),%rax        # 1c638 <g_392>
   11a03:	48 8b 04 02          	mov    (%rdx,%rax,1),%rax
   11a07:	48 8b 95 40 ed ff ff 	mov    -0x12c0(%rbp),%rdx
   11a0e:	48 8d 0c d5 00 00 00 	lea    0x0(,%rdx,8),%rcx
   11a15:	00 
   11a16:	48 8d 15 1b ac 00 00 	lea    0xac1b(%rip),%rdx        # 1c638 <g_392>
   11a1d:	48 89 04 11          	mov    %rax,(%rcx,%rdx,1)
   11a21:	48 8d 85 8c ec ff ff 	lea    -0x1374(%rbp),%rax
   11a28:	48 89 05 21 ac 00 00 	mov    %rax,0xac21(%rip)        # 1c650 <g_514>
   11a2f:	48 8b 05 1a ac 00 00 	mov    0xac1a(%rip),%rax        # 1c650 <g_514>
   11a36:	48 89 85 b8 ed ff ff 	mov    %rax,-0x1248(%rbp)
   11a3d:	48 83 85 40 ed ff ff 	addq   $0x1,-0x12c0(%rbp)
   11a44:	01 
   11a45:	48 83 bd 40 ed ff ff 	cmpq   $0x0,-0x12c0(%rbp)
   11a4c:	00 
   11a4d:	0f 8e bc fe ff ff    	jle    1190f <func_57+0x1302>
   11a53:	48 8b 85 a0 ee ff ff 	mov    -0x1160(%rbp),%rax
   11a5a:	e9 3b 08 00 00       	jmpq   1229a <func_57+0x1c8d>
   11a5f:	83 85 a0 ec ff ff 01 	addl   $0x1,-0x1360(%rbp)
   11a66:	c7 85 8c ec ff ff 00 	movl   $0x0,-0x1374(%rbp)
   11a6d:	00 00 00 
   11a70:	e9 da 07 00 00       	jmpq   1224f <func_57+0x1c42>
   11a75:	c6 85 77 ec ff ff 0c 	movb   $0xc,-0x1389(%rbp)
   11a7c:	c7 85 c4 ec ff ff f6 	movl   $0xfffffff6,-0x133c(%rbp)
   11a83:	ff ff ff 
   11a86:	c7 85 30 ed ff ff 74 	movl   $0x741f9a74,-0x12d0(%rbp)
   11a8d:	9a 1f 74 
   11a90:	c7 85 c8 ec ff ff 01 	movl   $0x1,-0x1338(%rbp)
   11a97:	00 00 00 
   11a9a:	c7 85 cc ec ff ff 02 	movl   $0xd78d4702,-0x1334(%rbp)
   11aa1:	47 8d d7 
   11aa4:	c7 85 d0 ec ff ff 00 	movl   $0x0,-0x1330(%rbp)
   11aab:	00 00 00 
   11aae:	c7 85 d4 ec ff ff a6 	movl   $0x7f9fdba6,-0x132c(%rbp)
   11ab5:	db 9f 7f 
   11ab8:	c7 85 d8 ec ff ff f8 	movl   $0xfffffff8,-0x1328(%rbp)
   11abf:	ff ff ff 
   11ac2:	c7 85 dc ec ff ff ff 	movl   $0xffffffff,-0x1324(%rbp)
   11ac9:	ff ff ff 
   11acc:	c7 85 e0 ec ff ff 26 	movl   $0x49e7f626,-0x1320(%rbp)
   11ad3:	f6 e7 49 
   11ad6:	48 8d 85 70 f2 ff ff 	lea    -0xd90(%rbp),%rax
   11add:	48 8d 15 bc 41 00 00 	lea    0x41bc(%rip),%rdx        # 15ca0 <g_1245+0xc00>
   11ae4:	b9 62 00 00 00       	mov    $0x62,%ecx
   11ae9:	48 89 c7             	mov    %rax,%rdi
   11aec:	48 89 d6             	mov    %rdx,%rsi
   11aef:	f3 48 a5             	rep movsq %ds:(%rsi),%es:(%rdi)
   11af2:	48 8d 85 b0 ee ff ff 	lea    -0x1150(%rbp),%rax
   11af9:	48 83 c0 04          	add    $0x4,%rax
   11afd:	48 89 85 48 ed ff ff 	mov    %rax,-0x12b8(%rbp)
   11b04:	83 bd 6c ec ff ff 00 	cmpl   $0x0,-0x1394(%rbp)
   11b0b:	0f 84 ff 00 00 00    	je     11c10 <func_57+0x1603>
   11b11:	66 c7 85 82 ec ff ff 	movw   $0x5,-0x137e(%rbp)
   11b18:	05 00 
   11b1a:	48 8d 85 e0 f0 ff ff 	lea    -0xf20(%rbp),%rax
   11b21:	48 8d 15 98 44 00 00 	lea    0x4498(%rip),%rdx        # 15fc0 <g_1245+0xf20>
   11b28:	b9 32 00 00 00       	mov    $0x32,%ecx
   11b2d:	48 89 c7             	mov    %rax,%rdi
   11b30:	48 89 d6             	mov    %rdx,%rsi
   11b33:	f3 48 a5             	rep movsq %ds:(%rsi),%es:(%rdi)
   11b36:	c6 05 d3 86 00 00 06 	movb   $0x6,0x86d3(%rip)        # 1a210 <g_105>
   11b3d:	e9 9c 00 00 00       	jmpq   11bde <func_57+0x15d1>
   11b42:	48 8d 05 eb ba 00 00 	lea    0xbaeb(%rip),%rax        # 1d634 <g_139>
   11b49:	48 89 85 70 ee ff ff 	mov    %rax,-0x1190(%rbp)
   11b50:	c7 85 38 ed ff ff ff 	movl   $0xffffffff,-0x12c8(%rbp)
   11b57:	ff ff ff 
   11b5a:	c7 85 ac ec ff ff 00 	movl   $0x0,-0x1354(%rbp)
   11b61:	00 00 00 
   11b64:	eb 1e                	jmp    11b84 <func_57+0x1577>
   11b66:	8b 85 ac ec ff ff    	mov    -0x1354(%rbp),%eax
   11b6c:	48 98                	cltq   
   11b6e:	48 8d 95 94 ec ff ff 	lea    -0x136c(%rbp),%rdx
   11b75:	48 89 94 c5 e0 ee ff 	mov    %rdx,-0x1120(%rbp,%rax,8)
   11b7c:	ff 
   11b7d:	83 85 ac ec ff ff 01 	addl   $0x1,-0x1354(%rbp)
   11b84:	83 bd ac ec ff ff 05 	cmpl   $0x5,-0x1354(%rbp)
   11b8b:	7e d9                	jle    11b66 <func_57+0x1559>
   11b8d:	be 03 00 00 00       	mov    $0x3,%esi
   11b92:	bf d8 ff ff ff       	mov    $0xffffffd8,%edi
   11b97:	e8 99 57 ff ff       	callq  7335 <safe_rshift_func_int8_t_s_s>
   11b9c:	c7 85 38 ed ff ff 4a 	movl   $0xd67a794a,-0x12c8(%rbp)
   11ba3:	79 7a d6 
   11ba6:	8b 85 38 ed ff ff    	mov    -0x12c8(%rbp),%eax
   11bac:	30 85 77 ec ff ff    	xor    %al,-0x1389(%rbp)
   11bb2:	48 8d 85 38 ed ff ff 	lea    -0x12c8(%rbp),%rax
   11bb9:	48 89 85 08 ef ff ff 	mov    %rax,-0x10f8(%rbp)
   11bc0:	0f b6 05 49 86 00 00 	movzbl 0x8649(%rip),%eax        # 1a210 <g_105>
   11bc7:	48 0f be c0          	movsbq %al,%rax
   11bcb:	be 07 00 00 00       	mov    $0x7,%esi
   11bd0:	48 89 c7             	mov    %rax,%rdi
   11bd3:	e8 69 5c ff ff       	callq  7841 <safe_add_func_int64_t_s_s>
   11bd8:	88 05 32 86 00 00    	mov    %al,0x8632(%rip)        # 1a210 <g_105>
   11bde:	0f b6 05 2b 86 00 00 	movzbl 0x862b(%rip),%eax        # 1a210 <g_105>
   11be5:	3c 0f                	cmp    $0xf,%al
   11be7:	0f 84 55 ff ff ff    	je     11b42 <func_57+0x1535>
   11bed:	8b 85 8c ec ff ff    	mov    -0x1374(%rbp),%eax
   11bf3:	0f b7 c0             	movzwl %ax,%eax
   11bf6:	be 06 00 00 00       	mov    $0x6,%esi
   11bfb:	89 c7                	mov    %eax,%edi
   11bfd:	e8 fd 60 ff ff       	callq  7cff <safe_add_func_uint16_t_u_u>
   11c02:	0f b7 c0             	movzwl %ax,%eax
   11c05:	89 85 8c ec ff ff    	mov    %eax,-0x1374(%rbp)
   11c0b:	e9 3f 06 00 00       	jmpq   1224f <func_57+0x1c42>
   11c10:	c7 85 e4 ec ff ff 2b 	movl   $0x852bf2b,-0x131c(%rbp)
   11c17:	bf 52 08 
   11c1a:	48 8d 85 90 ee ff ff 	lea    -0x1170(%rbp),%rax
   11c21:	48 83 c0 08          	add    $0x8,%rax
   11c25:	48 89 85 38 ee ff ff 	mov    %rax,-0x11c8(%rbp)
   11c2c:	48 c7 85 40 ee ff ff 	movq   $0x0,-0x11c0(%rbp)
   11c33:	00 00 00 00 
   11c37:	48 c7 85 48 ee ff ff 	movq   $0x0,-0x11b8(%rbp)
   11c3e:	00 00 00 00 
   11c42:	48 c7 85 38 ed ff ff 	movq   $0x0,-0x12c8(%rbp)
   11c49:	00 00 00 00 
   11c4d:	48 8d 85 38 ed ff ff 	lea    -0x12c8(%rbp),%rax
   11c54:	48 89 85 50 ee ff ff 	mov    %rax,-0x11b0(%rbp)
   11c5b:	c7 85 e8 ec ff ff 5c 	movl   $0x9034065c,-0x1318(%rbp)
   11c62:	06 34 90 
   11c65:	c7 85 ec ec ff ff 58 	movl   $0x244e5658,-0x1314(%rbp)
   11c6c:	56 4e 24 
   11c6f:	c7 85 f0 ec ff ff f7 	movl   $0xfffffff7,-0x1310(%rbp)
   11c76:	ff ff ff 
   11c79:	c7 85 f4 ec ff ff a5 	movl   $0xf1c13aa5,-0x130c(%rbp)
   11c80:	3a c1 f1 
   11c83:	c7 85 f8 ec ff ff ff 	movl   $0xffffffff,-0x1308(%rbp)
   11c8a:	ff ff ff 
   11c8d:	c7 85 fc ec ff ff cb 	movl   $0x2515efcb,-0x1304(%rbp)
   11c94:	ef 15 25 
   11c97:	c7 85 b0 ec ff ff 59 	movl   $0x14cb8159,-0x1350(%rbp)
   11c9e:	81 cb 14 
   11ca1:	c7 85 00 ed ff ff f9 	movl   $0xfffffff9,-0x1300(%rbp)
   11ca8:	ff ff ff 
   11cab:	48 8b 85 38 ee ff ff 	mov    -0x11c8(%rbp),%rax
   11cb2:	48 89 05 a7 a9 00 00 	mov    %rax,0xa9a7(%rip)        # 1c660 <g_563>
   11cb9:	48 8b 15 a0 a9 00 00 	mov    0xa9a0(%rip),%rdx        # 1c660 <g_563>
   11cc0:	48 8b 85 50 ee ff ff 	mov    -0x11b0(%rbp),%rax
   11cc7:	48 8d 0d 8a a9 00 00 	lea    0xa98a(%rip),%rcx        # 1c658 <g_564>
   11cce:	48 89 08             	mov    %rcx,(%rax)
   11cd1:	48 8b 85 50 ee ff ff 	mov    -0x11b0(%rbp),%rax
   11cd8:	48 8b 00             	mov    (%rax),%rax
   11cdb:	48 39 c2             	cmp    %rax,%rdx
   11cde:	0f 95 c0             	setne  %al
   11ce1:	0f b6 c0             	movzbl %al,%eax
   11ce4:	23 85 e4 ec ff ff    	and    -0x131c(%rbp),%eax
   11cea:	89 c2                	mov    %eax,%edx
   11cec:	8b 85 6c ec ff ff    	mov    -0x1394(%rbp),%eax
   11cf2:	48 89 d6             	mov    %rdx,%rsi
   11cf5:	48 89 c7             	mov    %rax,%rdi
   11cf8:	e8 83 63 ff ff       	callq  8080 <safe_mod_func_uint64_t_u_u>
   11cfd:	48 89 c3             	mov    %rax,%rbx
   11d00:	be 01 00 00 00       	mov    $0x1,%esi
   11d05:	bf 03 00 00 00       	mov    $0x3,%edi
   11d0a:	e8 e6 56 ff ff       	callq  73f5 <safe_mul_func_int16_t_s_s>
   11d0f:	48 8b 05 02 af 00 00 	mov    0xaf02(%rip),%rax        # 1cc18 <g_572+0x598>
   11d16:	0f be 85 77 ec ff ff 	movsbl -0x1389(%rbp),%eax
   11d1d:	f7 d0                	not    %eax
   11d1f:	39 85 6c ec ff ff    	cmp    %eax,-0x1394(%rbp)
   11d25:	0f 96 c0             	setbe  %al
   11d28:	0f b6 d0             	movzbl %al,%edx
   11d2b:	48 8b 05 26 a9 00 00 	mov    0xa926(%rip),%rax        # 1c658 <g_564>
   11d32:	0f b6 00             	movzbl (%rax),%eax
   11d35:	89 c1                	mov    %eax,%ecx
   11d37:	89 d8                	mov    %ebx,%eax
   11d39:	09 c1                	or     %eax,%ecx
   11d3b:	48 8b 05 16 a9 00 00 	mov    0xa916(%rip),%rax        # 1c658 <g_564>
   11d42:	88 08                	mov    %cl,(%rax)
   11d44:	0f b6 08             	movzbl (%rax),%ecx
   11d47:	48 8b 85 88 ed ff ff 	mov    -0x1278(%rbp),%rax
   11d4e:	8b 00                	mov    (%rax),%eax
   11d50:	21 c2                	and    %eax,%edx
   11d52:	48 8b 85 88 ed ff ff 	mov    -0x1278(%rbp),%rax
   11d59:	89 10                	mov    %edx,(%rax)
   11d5b:	48 8b 85 88 ed ff ff 	mov    -0x1278(%rbp),%rax
   11d62:	8b 00                	mov    (%rax),%eax
   11d64:	48 98                	cltq   
   11d66:	ba 07 f9 a9 ed       	mov    $0xeda9f907,%edx
   11d6b:	48 09 d0             	or     %rdx,%rax
   11d6e:	48 85 c0             	test   %rax,%rax
   11d71:	0f 9f c0             	setg   %al
   11d74:	09 c8                	or     %ecx,%eax
   11d76:	0f b6 c0             	movzbl %al,%eax
   11d79:	be 03 00 00 00       	mov    $0x3,%esi
   11d7e:	89 c7                	mov    %eax,%edi
   11d80:	e8 08 5f ff ff       	callq  7c8d <safe_rshift_func_uint8_t_u_s>
   11d85:	0f b6 d0             	movzbl %al,%edx
   11d88:	48 8b 85 80 ed ff ff 	mov    -0x1280(%rbp),%rax
   11d8f:	89 10                	mov    %edx,(%rax)
   11d91:	c7 85 a0 ec ff ff 00 	movl   $0x0,-0x1360(%rbp)
   11d98:	00 00 00 
   11d9b:	e9 72 04 00 00       	jmpq   12212 <func_57+0x1c05>
   11da0:	66 c7 85 80 ec ff ff 	movw   $0xfff7,-0x1380(%rbp)
   11da7:	f7 ff 
   11da9:	48 8d 05 30 85 00 00 	lea    0x8530(%rip),%rax        # 1a2e0 <g_590>
   11db0:	48 89 85 58 ee ff ff 	mov    %rax,-0x11a8(%rbp)
   11db7:	c7 85 04 ed ff ff ef 	movl   $0x383d8aef,-0x12fc(%rbp)
   11dbe:	8a 3d 38 
   11dc1:	c7 85 08 ed ff ff ff 	movl   $0xffffffff,-0x12f8(%rbp)
   11dc8:	ff ff ff 
   11dcb:	c7 85 0c ed ff ff 02 	movl   $0x2,-0x12f4(%rbp)
   11dd2:	00 00 00 
   11dd5:	c7 85 10 ed ff ff 01 	movl   $0x1,-0x12f0(%rbp)
   11ddc:	00 00 00 
   11ddf:	c7 85 14 ed ff ff ae 	movl   $0xeb0ccae,-0x12ec(%rbp)
   11de6:	cc b0 0e 
   11de9:	c7 85 e0 f0 ff ff ba 	movl   $0x920a51ba,-0xf20(%rbp)
   11df0:	51 0a 92 
   11df3:	c7 85 e4 f0 ff ff 72 	movl   $0x31bc9172,-0xf1c(%rbp)
   11dfa:	91 bc 31 
   11dfd:	c7 85 e8 f0 ff ff ba 	movl   $0x920a51ba,-0xf18(%rbp)
   11e04:	51 0a 92 
   11e07:	c7 85 ec f0 ff ff f9 	movl   $0xfffffff9,-0xf14(%rbp)
   11e0e:	ff ff ff 
   11e11:	c7 85 f0 f0 ff ff 72 	movl   $0x31bc9172,-0xf10(%rbp)
   11e18:	91 bc 31 
   11e1b:	c7 85 f4 f0 ff ff e0 	movl   $0x36b46ce0,-0xf0c(%rbp)
   11e22:	6c b4 36 
   11e25:	c7 85 f8 f0 ff ff e0 	movl   $0x36b46ce0,-0xf08(%rbp)
   11e2c:	6c b4 36 
   11e2f:	c7 85 fc f0 ff ff 72 	movl   $0x31bc9172,-0xf04(%rbp)
   11e36:	91 bc 31 
   11e39:	c7 85 00 f1 ff ff 72 	movl   $0x31bc9172,-0xf00(%rbp)
   11e40:	91 bc 31 
   11e43:	c7 85 04 f1 ff ff e0 	movl   $0x36b46ce0,-0xefc(%rbp)
   11e4a:	6c b4 36 
   11e4d:	c7 85 08 f1 ff ff 00 	movl   $0x0,-0xef8(%rbp)
   11e54:	00 00 00 
   11e57:	c7 85 0c f1 ff ff e0 	movl   $0x36b46ce0,-0xef4(%rbp)
   11e5e:	6c b4 36 
   11e61:	c7 85 10 f1 ff ff ff 	movl   $0xffffffff,-0xef0(%rbp)
   11e68:	ff ff ff 
   11e6b:	c7 85 14 f1 ff ff b7 	movl   $0x479e21b7,-0xeec(%rbp)
   11e72:	21 9e 47 
   11e75:	c7 85 18 f1 ff ff e0 	movl   $0x36b46ce0,-0xee8(%rbp)
   11e7c:	6c b4 36 
   11e7f:	c7 85 1c f1 ff ff b7 	movl   $0x479e21b7,-0xee4(%rbp)
   11e86:	21 9e 47 
   11e89:	c7 85 20 f1 ff ff e0 	movl   $0x36b46ce0,-0xee0(%rbp)
   11e90:	6c b4 36 
   11e93:	c7 85 24 f1 ff ff f9 	movl   $0xfffffff9,-0xedc(%rbp)
   11e9a:	ff ff ff 
   11e9d:	c7 85 28 f1 ff ff d8 	movl   $0xc2fe9cd8,-0xed8(%rbp)
   11ea4:	9c fe c2 
   11ea7:	c7 85 2c f1 ff ff f9 	movl   $0xfffffff9,-0xed4(%rbp)
   11eae:	ff ff ff 
   11eb1:	c7 85 30 f1 ff ff e0 	movl   $0x36b46ce0,-0xed0(%rbp)
   11eb8:	6c b4 36 
   11ebb:	c7 85 34 f1 ff ff d8 	movl   $0xc2fe9cd8,-0xecc(%rbp)
   11ec2:	9c fe c2 
   11ec5:	c7 85 38 f1 ff ff ba 	movl   $0x920a51ba,-0xec8(%rbp)
   11ecc:	51 0a 92 
   11ecf:	c7 85 3c f1 ff ff ba 	movl   $0x920a51ba,-0xec4(%rbp)
   11ed6:	51 0a 92 
   11ed9:	c7 85 40 f1 ff ff b7 	movl   $0x479e21b7,-0xec0(%rbp)
   11ee0:	21 9e 47 
   11ee3:	c7 85 44 f1 ff ff f9 	movl   $0xfffffff9,-0xebc(%rbp)
   11eea:	ff ff ff 
   11eed:	c7 85 48 f1 ff ff ff 	movl   $0xffffffff,-0xeb8(%rbp)
   11ef4:	ff ff ff 
   11ef7:	c7 85 4c f1 ff ff ff 	movl   $0xffffffff,-0xeb4(%rbp)
   11efe:	ff ff ff 
   11f01:	c7 85 50 f1 ff ff f9 	movl   $0xfffffff9,-0xeb0(%rbp)
   11f08:	ff ff ff 
   11f0b:	c7 85 54 f1 ff ff b7 	movl   $0x479e21b7,-0xeac(%rbp)
   11f12:	21 9e 47 
   11f15:	c7 85 58 f1 ff ff 00 	movl   $0x0,-0xea8(%rbp)
   11f1c:	00 00 00 
   11f1f:	c7 85 5c f1 ff ff f9 	movl   $0xfffffff9,-0xea4(%rbp)
   11f26:	ff ff ff 
   11f29:	c7 85 60 f1 ff ff ba 	movl   $0x920a51ba,-0xea0(%rbp)
   11f30:	51 0a 92 
   11f33:	c7 85 64 f1 ff ff 00 	movl   $0x0,-0xe9c(%rbp)
   11f3a:	00 00 00 
   11f3d:	c7 85 68 f1 ff ff ff 	movl   $0xffffffff,-0xe98(%rbp)
   11f44:	ff ff ff 
   11f47:	c7 85 6c f1 ff ff ba 	movl   $0x920a51ba,-0xe94(%rbp)
   11f4e:	51 0a 92 
   11f51:	c7 85 70 f1 ff ff ff 	movl   $0xffffffff,-0xe90(%rbp)
   11f58:	ff ff ff 
   11f5b:	c7 85 74 f1 ff ff 00 	movl   $0x0,-0xe8c(%rbp)
   11f62:	00 00 00 
   11f65:	c7 85 78 f1 ff ff ba 	movl   $0x920a51ba,-0xe88(%rbp)
   11f6c:	51 0a 92 
   11f6f:	c7 85 7c f1 ff ff b7 	movl   $0x479e21b7,-0xe84(%rbp)
   11f76:	21 9e 47 
   11f79:	48 8b 85 18 ed ff ff 	mov    -0x12e8(%rbp),%rax
   11f80:	8b 10                	mov    (%rax),%edx
   11f82:	48 8b 85 78 ed ff ff 	mov    -0x1288(%rbp),%rax
   11f89:	89 10                	mov    %edx,(%rax)
   11f8b:	48 8b 85 78 ed ff ff 	mov    -0x1288(%rbp),%rax
   11f92:	44 8b 20             	mov    (%rax),%r12d
   11f95:	8b 85 6c ec ff ff    	mov    -0x1394(%rbp),%eax
   11f9b:	0f be d8             	movsbl %al,%ebx
   11f9e:	8b 05 90 b6 00 00    	mov    0xb690(%rip),%eax        # 1d634 <g_139>
   11fa4:	41 89 c5             	mov    %eax,%r13d
   11fa7:	48 8b 05 ba a6 00 00 	mov    0xa6ba(%rip),%rax        # 1c668 <g_573>
   11fae:	48 8b 00             	mov    (%rax),%rax
   11fb1:	83 bd 6c ec ff ff 01 	cmpl   $0x1,-0x1394(%rbp)
   11fb8:	0f 97 c0             	seta   %al
   11fbb:	0f b6 c0             	movzbl %al,%eax
   11fbe:	be 00 00 00 00       	mov    $0x0,%esi
   11fc3:	89 c7                	mov    %eax,%edi
   11fc5:	e8 6b 53 ff ff       	callq  7335 <safe_rshift_func_int8_t_s_s>
   11fca:	0f be c0             	movsbl %al,%eax
   11fcd:	39 85 6c ec ff ff    	cmp    %eax,-0x1394(%rbp)
   11fd3:	8b 05 df 82 00 00    	mov    0x82df(%rip),%eax        # 1a2b8 <g_469+0x18>
   11fd9:	85 c0                	test   %eax,%eax
   11fdb:	74 11                	je     11fee <func_57+0x19e1>
   11fdd:	66 83 bd 80 ec ff ff 	cmpw   $0x0,-0x1380(%rbp)
   11fe4:	00 
   11fe5:	74 07                	je     11fee <func_57+0x19e1>
   11fe7:	b8 01 00 00 00       	mov    $0x1,%eax
   11fec:	eb 05                	jmp    11ff3 <func_57+0x19e6>
   11fee:	b8 00 00 00 00       	mov    $0x0,%eax
   11ff3:	89 c6                	mov    %eax,%esi
   11ff5:	bf 01 00 00 00       	mov    $0x1,%edi
   11ffa:	e8 4d 5c ff ff       	callq  7c4c <safe_lshift_func_uint8_t_u_u>
   11fff:	0f b6 c0             	movzbl %al,%eax
   12002:	4c 89 ee             	mov    %r13,%rsi
   12005:	48 89 c7             	mov    %rax,%rdi
   12008:	e8 ea 59 ff ff       	callq  79f7 <safe_div_func_int64_t_s_s>
   1200d:	0f be c0             	movsbl %al,%eax
   12010:	89 de                	mov    %ebx,%esi
   12012:	89 c7                	mov    %eax,%edi
   12014:	e8 f9 51 ff ff       	callq  7212 <safe_mul_func_int8_t_s_s>
   12019:	89 c2                	mov    %eax,%edx
   1201b:	48 8b 85 20 ed ff ff 	mov    -0x12e0(%rbp),%rax
   12022:	48 0f be d2          	movsbq %dl,%rdx
   12026:	48 89 10             	mov    %rdx,(%rax)
   12029:	48 8b 00             	mov    (%rax),%rax
   1202c:	48 89 c7             	mov    %rax,%rdi
   1202f:	e8 e5 5f ff ff       	callq  8019 <safe_unary_minus_func_uint64_t_u>
   12034:	48 8b 15 1d a6 00 00 	mov    0xa61d(%rip),%rdx        # 1c658 <g_564>
   1203b:	0f b6 12             	movzbl (%rdx),%edx
   1203e:	48 0f be d2          	movsbq %dl,%rdx
   12042:	48 39 d0             	cmp    %rdx,%rax
   12045:	0f 96 c0             	setbe  %al
   12048:	89 c2                	mov    %eax,%edx
   1204a:	8b 05 e0 b5 00 00    	mov    0xb5e0(%rip),%eax        # 1d630 <g_112>
   12050:	09 d0                	or     %edx,%eax
   12052:	0f be d0             	movsbl %al,%edx
   12055:	48 8b 05 04 a6 00 00 	mov    0xa604(%rip),%rax        # 1c660 <g_563>
   1205c:	48 8b 00             	mov    (%rax),%rax
   1205f:	0f b6 00             	movzbl (%rax),%eax
   12062:	0f be c0             	movsbl %al,%eax
   12065:	89 d6                	mov    %edx,%esi
   12067:	89 c7                	mov    %eax,%edi
   12069:	e8 84 51 ff ff       	callq  71f2 <safe_sub_func_int8_t_s_s>
   1206e:	0f be c0             	movsbl %al,%eax
   12071:	41 39 c4             	cmp    %eax,%r12d
   12074:	0f 9e c0             	setle  %al
   12077:	0f b6 d0             	movzbl %al,%edx
   1207a:	48 8b 85 28 ed ff ff 	mov    -0x12d8(%rbp),%rax
   12081:	8b 00                	mov    (%rax),%eax
   12083:	39 c2                	cmp    %eax,%edx
   12085:	0f 94 c0             	sete   %al
   12088:	0f b6 d0             	movzbl %al,%edx
   1208b:	0f b6 05 7e 81 00 00 	movzbl 0x817e(%rip),%eax        # 1a210 <g_105>
   12092:	0f be c0             	movsbl %al,%eax
   12095:	21 d0                	and    %edx,%eax
   12097:	48 63 d0             	movslq %eax,%rdx
   1209a:	48 8b 85 58 ee ff ff 	mov    -0x11a8(%rbp),%rax
   120a1:	48 89 10             	mov    %rdx,(%rax)
   120a4:	48 8b 85 58 ee ff ff 	mov    -0x11a8(%rbp),%rax
   120ab:	48 8b 00             	mov    (%rax),%rax
   120ae:	48 ba ee f9 a4 c5 f4 	movabs $0x2862c3f4c5a4f9ee,%rdx
   120b5:	c3 62 28 
   120b8:	48 39 d0             	cmp    %rdx,%rax
   120bb:	0f 95 c0             	setne  %al
   120be:	0f b6 d0             	movzbl %al,%edx
   120c1:	48 8b 85 70 ed ff ff 	mov    -0x1290(%rbp),%rax
   120c8:	8b 00                	mov    (%rax),%eax
   120ca:	39 c2                	cmp    %eax,%edx
   120cc:	0f 9e c2             	setle  %dl
   120cf:	48 8b 85 28 ed ff ff 	mov    -0x12d8(%rbp),%rax
   120d6:	0f b6 d2             	movzbl %dl,%edx
   120d9:	89 10                	mov    %edx,(%rax)
   120db:	8b 85 24 f9 ff ff    	mov    -0x6dc(%rbp),%eax
   120e1:	83 c0 01             	add    $0x1,%eax
   120e4:	89 85 24 f9 ff ff    	mov    %eax,-0x6dc(%rbp)
   120ea:	c7 05 40 b5 00 00 00 	movl   $0x0,0xb540(%rip)        # 1d634 <g_139>
   120f1:	00 00 00 
   120f4:	e9 ec 00 00 00       	jmpq   121e5 <func_57+0x1bd8>
   120f9:	48 8d 85 30 ed ff ff 	lea    -0x12d0(%rbp),%rax
   12100:	48 89 85 60 ee ff ff 	mov    %rax,-0x11a0(%rbp)
   12107:	48 8d 85 28 ed ff ff 	lea    -0x12d8(%rbp),%rax
   1210e:	48 89 85 68 ee ff ff 	mov    %rax,-0x1198(%rbp)
   12115:	8b 05 19 b5 00 00    	mov    0xb519(%rip),%eax        # 1d634 <g_139>
   1211b:	8d 50 03             	lea    0x3(%rax),%edx
   1211e:	8b 0d 10 b5 00 00    	mov    0xb510(%rip),%ecx        # 1d634 <g_139>
   12124:	8b 05 0a b5 00 00    	mov    0xb50a(%rip),%eax        # 1d634 <g_139>
   1212a:	83 c0 02             	add    $0x2,%eax
   1212d:	89 c6                	mov    %eax,%esi
   1212f:	89 d2                	mov    %edx,%edx
   12131:	89 c9                	mov    %ecx,%ecx
   12133:	48 89 d0             	mov    %rdx,%rax
   12136:	48 c1 e0 03          	shl    $0x3,%rax
   1213a:	48 01 d0             	add    %rdx,%rax
   1213d:	48 c1 e0 02          	shl    $0x2,%rax
   12141:	48 89 ca             	mov    %rcx,%rdx
   12144:	48 c1 e2 03          	shl    $0x3,%rdx
   12148:	48 01 ca             	add    %rcx,%rdx
   1214b:	48 01 d0             	add    %rdx,%rax
   1214e:	48 01 f0             	add    %rsi,%rax
   12151:	8b 84 85 40 f6 ff ff 	mov    -0x9c0(%rbp,%rax,4),%eax
   12158:	0f be c0             	movsbl %al,%eax
   1215b:	be d7 ff ff ff       	mov    $0xffffffd7,%esi
   12160:	89 c7                	mov    %eax,%edi
   12162:	e8 6d 50 ff ff       	callq  71d4 <safe_add_func_int8_t_s_s>
   12167:	48 8b 95 90 ee ff ff 	mov    -0x1170(%rbp),%rdx
   1216e:	48 8d 85 76 ec ff ff 	lea    -0x138a(%rbp),%rax
   12175:	48 39 c2             	cmp    %rax,%rdx
   12178:	0f 94 c0             	sete   %al
   1217b:	0f b6 d0             	movzbl %al,%edx
   1217e:	8b 05 b0 b4 00 00    	mov    0xb4b0(%rip),%eax        # 1d634 <g_139>
   12184:	89 c0                	mov    %eax,%eax
   12186:	0f b7 84 45 86 ee ff 	movzwl -0x117a(%rbp,%rax,2),%eax
   1218d:	ff 
   1218e:	98                   	cwtl   
   1218f:	39 c2                	cmp    %eax,%edx
   12191:	0f 95 c0             	setne  %al
   12194:	0f b6 c0             	movzbl %al,%eax
   12197:	be 01 00 00 00       	mov    $0x1,%esi
   1219c:	48 89 c7             	mov    %rax,%rdi
   1219f:	e8 a7 5e ff ff       	callq  804b <safe_sub_func_uint64_t_u_u>
   121a4:	89 c2                	mov    %eax,%edx
   121a6:	8b 85 b0 ec ff ff    	mov    -0x1350(%rbp),%eax
   121ac:	09 d0                	or     %edx,%eax
   121ae:	89 85 b0 ec ff ff    	mov    %eax,-0x1350(%rbp)
   121b4:	48 8b 85 68 ee ff ff 	mov    -0x1198(%rbp),%rax
   121bb:	48 8b 95 60 ee ff ff 	mov    -0x11a0(%rbp),%rdx
   121c2:	48 89 10             	mov    %rdx,(%rax)
   121c5:	48 8b 85 68 ee ff ff 	mov    -0x1198(%rbp),%rax
   121cc:	48 8b 00             	mov    (%rax),%rax
   121cf:	48 89 85 48 ed ff ff 	mov    %rax,-0x12b8(%rbp)
   121d6:	8b 05 58 b4 00 00    	mov    0xb458(%rip),%eax        # 1d634 <g_139>
   121dc:	83 c0 01             	add    $0x1,%eax
   121df:	89 05 4f b4 00 00    	mov    %eax,0xb44f(%rip)        # 1d634 <g_139>
   121e5:	8b 05 49 b4 00 00    	mov    0xb449(%rip),%eax        # 1d634 <g_139>
   121eb:	83 f8 03             	cmp    $0x3,%eax
   121ee:	0f 86 05 ff ff ff    	jbe    120f9 <func_57+0x1aec>
   121f4:	8b 85 a0 ec ff ff    	mov    -0x1360(%rbp),%eax
   121fa:	0f be c0             	movsbl %al,%eax
   121fd:	be 07 00 00 00       	mov    $0x7,%esi
   12202:	89 c7                	mov    %eax,%edi
   12204:	e8 cb 4f ff ff       	callq  71d4 <safe_add_func_int8_t_s_s>
   12209:	0f be c0             	movsbl %al,%eax
   1220c:	89 85 a0 ec ff ff    	mov    %eax,-0x1360(%rbp)
   12212:	83 bd a0 ec ff ff 30 	cmpl   $0x30,-0x1360(%rbp)
   12219:	0f 84 81 fb ff ff    	je     11da0 <func_57+0x1793>
   1221f:	48 8b 85 60 ed ff ff 	mov    -0x12a0(%rbp),%rax
   12226:	48 8b 00             	mov    (%rax),%rax
   12229:	48 8b 10             	mov    (%rax),%rdx
   1222c:	48 83 ea 01          	sub    $0x1,%rdx
   12230:	48 89 10             	mov    %rdx,(%rax)
   12233:	48 8b 00             	mov    (%rax),%rax
   12236:	25 c8 a1 9b 30       	and    $0x309ba1c8,%eax
   1223b:	89 c2                	mov    %eax,%edx
   1223d:	48 8b 85 48 ed ff ff 	mov    -0x12b8(%rbp),%rax
   12244:	89 10                	mov    %edx,(%rax)
   12246:	48 8b 85 98 ee ff ff 	mov    -0x1168(%rbp),%rax
   1224d:	eb 4b                	jmp    1229a <func_57+0x1c8d>
   1224f:	8b 85 8c ec ff ff    	mov    -0x1374(%rbp),%eax
   12255:	85 c0                	test   %eax,%eax
   12257:	0f 88 18 f8 ff ff    	js     11a75 <func_57+0x1468>
   1225d:	48 8b 85 28 ed ff ff 	mov    -0x12d8(%rbp),%rax
   12264:	8b 00                	mov    (%rax),%eax
   12266:	85 c0                	test   %eax,%eax
   12268:	0f b6 05 e9 7d 00 00 	movzbl 0x7de9(%rip),%eax        # 1a058 <g_71>
   1226f:	0f b6 c0             	movzbl %al,%eax
   12272:	be 07 00 00 00       	mov    $0x7,%esi
   12277:	89 c7                	mov    %eax,%edi
   12279:	e8 3a 5c ff ff       	callq  7eb8 <safe_add_func_uint32_t_u_u>
   1227e:	88 05 d4 7d 00 00    	mov    %al,0x7dd4(%rip)        # 1a058 <g_71>
   12284:	0f b6 05 cd 7d 00 00 	movzbl 0x7dcd(%rip),%eax        # 1a058 <g_71>
   1228b:	3c 14                	cmp    $0x14,%al
   1228d:	0f 87 ee e4 ff ff    	ja     10781 <func_57+0x174>
   12293:	48 8b 85 30 ef ff ff 	mov    -0x10d0(%rbp),%rax
   1229a:	48 8b 5d d8          	mov    -0x28(%rbp),%rbx
   1229e:	64 48 33 1c 25 28 00 	xor    %fs:0x28,%rbx
   122a5:	00 00 
   122a7:	74 05                	je     122ae <func_57+0x1ca1>
   122a9:	e8 c2 4d ff ff       	callq  7070 <__stack_chk_fail@plt>
   122ae:	48 81 c4 90 13 00 00 	add    $0x1390,%rsp
   122b5:	5b                   	pop    %rbx
   122b6:	41 5c                	pop    %r12
   122b8:	41 5d                	pop    %r13
   122ba:	41 5e                	pop    %r14
   122bc:	5d                   	pop    %rbp
   122bd:	c3                   	retq   

00000000000122be <func_61>:
   122be:	f3 0f 1e fa          	endbr64 
   122c2:	55                   	push   %rbp
   122c3:	48 89 e5             	mov    %rsp,%rbp
   122c6:	41 56                	push   %r14
   122c8:	41 55                	push   %r13
   122ca:	41 54                	push   %r12
   122cc:	53                   	push   %rbx
   122cd:	48 81 ec 40 04 00 00 	sub    $0x440,%rsp
   122d4:	89 f8                	mov    %edi,%eax
   122d6:	48 89 b5 b0 fb ff ff 	mov    %rsi,-0x450(%rbp)
   122dd:	48 89 95 a8 fb ff ff 	mov    %rdx,-0x458(%rbp)
   122e4:	89 8d b8 fb ff ff    	mov    %ecx,-0x448(%rbp)
   122ea:	88 85 bc fb ff ff    	mov    %al,-0x444(%rbp)
   122f0:	64 48 8b 04 25 28 00 	mov    %fs:0x28,%rax
   122f7:	00 00 
   122f9:	48 89 45 d8          	mov    %rax,-0x28(%rbp)
   122fd:	31 c0                	xor    %eax,%eax
   122ff:	48 c7 85 d8 fb ff ff 	movq   $0xfffffffffffffffb,-0x428(%rbp)
   12306:	fb ff ff ff 
   1230a:	48 8d 85 70 fc ff ff 	lea    -0x390(%rbp),%rax
   12311:	48 8d 15 48 3e 00 00 	lea    0x3e48(%rip),%rdx        # 16160 <g_1245+0x10c0>
   12318:	b9 6c 00 00 00       	mov    $0x6c,%ecx
   1231d:	48 89 c7             	mov    %rax,%rdi
   12320:	48 89 d6             	mov    %rdx,%rsi
   12323:	f3 48 a5             	rep movsq %ds:(%rsi),%es:(%rdi)
   12326:	48 c7 85 e0 fb ff ff 	movq   $0xffffffffffffffff,-0x420(%rbp)
   1232d:	ff ff ff ff 
   12331:	c7 85 d4 fb ff ff 57 	movl   $0x3a7aa557,-0x42c(%rbp)
   12338:	a5 7a 3a 
   1233b:	48 8d 05 c6 7d 00 00 	lea    0x7dc6(%rip),%rax        # 1a108 <g_103+0x88>
   12342:	48 89 85 e8 fb ff ff 	mov    %rax,-0x418(%rbp)
   12349:	48 8d 05 e8 7e 00 00 	lea    0x7ee8(%rip),%rax        # 1a238 <g_107+0x18>
   12350:	48 89 85 f0 fb ff ff 	mov    %rax,-0x410(%rbp)
   12357:	48 8d 05 e8 7c 00 00 	lea    0x7ce8(%rip),%rax        # 1a046 <g_34+0x6>
   1235e:	48 89 85 f8 fb ff ff 	mov    %rax,-0x408(%rbp)
   12365:	48 c7 85 00 fc ff ff 	movq   $0x0,-0x400(%rbp)
   1236c:	00 00 00 00 
   12370:	c7 85 c8 fb ff ff 00 	movl   $0x0,-0x438(%rbp)
   12377:	00 00 00 
   1237a:	eb 7a                	jmp    123f6 <func_61+0x138>
   1237c:	c7 85 cc fb ff ff 00 	movl   $0x0,-0x434(%rbp)
   12383:	00 00 00 
   12386:	eb 5e                	jmp    123e6 <func_61+0x128>
   12388:	c7 85 d0 fb ff ff 00 	movl   $0x0,-0x430(%rbp)
   1238f:	00 00 00 
   12392:	eb 42                	jmp    123d6 <func_61+0x118>
   12394:	8b 85 d0 fb ff ff    	mov    -0x430(%rbp),%eax
   1239a:	48 63 c8             	movslq %eax,%rcx
   1239d:	8b 85 c8 fb ff ff    	mov    -0x438(%rbp),%eax
   123a3:	48 63 d0             	movslq %eax,%rdx
   123a6:	8b 85 cc fb ff ff    	mov    -0x434(%rbp),%eax
   123ac:	48 98                	cltq   
   123ae:	48 01 c2             	add    %rax,%rdx
   123b1:	48 89 d0             	mov    %rdx,%rax
   123b4:	48 01 c0             	add    %rax,%rax
   123b7:	48 01 d0             	add    %rdx,%rax
   123ba:	48 01 c0             	add    %rax,%rax
   123bd:	48 01 c8             	add    %rcx,%rax
   123c0:	48 8d 15 99 7c 00 00 	lea    0x7c99(%rip),%rdx        # 1a060 <g_94>
   123c7:	48 89 94 c5 10 fc ff 	mov    %rdx,-0x3f0(%rbp,%rax,8)
   123ce:	ff 
   123cf:	83 85 d0 fb ff ff 01 	addl   $0x1,-0x430(%rbp)
   123d6:	83 bd d0 fb ff ff 05 	cmpl   $0x5,-0x430(%rbp)
   123dd:	7e b5                	jle    12394 <func_61+0xd6>
   123df:	83 85 cc fb ff ff 01 	addl   $0x1,-0x434(%rbp)
   123e6:	83 bd cc fb ff ff 00 	cmpl   $0x0,-0x434(%rbp)
   123ed:	7e 99                	jle    12388 <func_61+0xca>
   123ef:	83 85 c8 fb ff ff 01 	addl   $0x1,-0x438(%rbp)
   123f6:	83 bd c8 fb ff ff 01 	cmpl   $0x1,-0x438(%rbp)
   123fd:	0f 8e 79 ff ff ff    	jle    1237c <func_61+0xbe>
   12403:	c7 85 c8 fb ff ff 00 	movl   $0x0,-0x438(%rbp)
   1240a:	00 00 00 
   1240d:	eb 46                	jmp    12455 <func_61+0x197>
   1240f:	c7 85 cc fb ff ff 00 	movl   $0x0,-0x434(%rbp)
   12416:	00 00 00 
   12419:	eb 2a                	jmp    12445 <func_61+0x187>
   1241b:	8b 85 cc fb ff ff    	mov    -0x434(%rbp),%eax
   12421:	48 63 d0             	movslq %eax,%rdx
   12424:	8b 85 c8 fb ff ff    	mov    -0x438(%rbp),%eax
   1242a:	48 98                	cltq   
   1242c:	48 01 d0             	add    %rdx,%rax
   1242f:	48 8d 15 da 7d 00 00 	lea    0x7dda(%rip),%rdx        # 1a210 <g_105>
   12436:	48 89 94 c5 08 fc ff 	mov    %rdx,-0x3f8(%rbp,%rax,8)
   1243d:	ff 
   1243e:	83 85 cc fb ff ff 01 	addl   $0x1,-0x434(%rbp)
   12445:	83 bd cc fb ff ff 00 	cmpl   $0x0,-0x434(%rbp)
   1244c:	7e cd                	jle    1241b <func_61+0x15d>
   1244e:	83 85 c8 fb ff ff 01 	addl   $0x1,-0x438(%rbp)
   12455:	83 bd c8 fb ff ff 00 	cmpl   $0x0,-0x438(%rbp)
   1245c:	7e b1                	jle    1240f <func_61+0x151>
   1245e:	4c 8b b5 40 fc ff ff 	mov    -0x3c0(%rbp),%r14
   12465:	8b 05 f5 7b 00 00    	mov    0x7bf5(%rip),%eax        # 1a060 <g_94>
   1246b:	44 0f bf e0          	movswl %ax,%r12d
   1246f:	8b 85 b8 fb ff ff    	mov    -0x448(%rbp),%eax
   12475:	0f be d8             	movsbl %al,%ebx
   12478:	8b 85 d4 fb ff ff    	mov    -0x42c(%rbp),%eax
   1247e:	44 0f b7 e8          	movzwl %ax,%r13d
   12482:	0f b7 05 cd 7b 00 00 	movzwl 0x7bcd(%rip),%eax        # 1a056 <g_34+0x16>
   12489:	66 85 c0             	test   %ax,%ax
   1248c:	74 07                	je     12495 <func_61+0x1d7>
   1248e:	b8 01 00 00 00       	mov    $0x1,%eax
   12493:	eb 05                	jmp    1249a <func_61+0x1dc>
   12495:	b8 00 00 00 00       	mov    $0x0,%eax
   1249a:	89 c2                	mov    %eax,%edx
   1249c:	0f b7 05 b7 7b 00 00 	movzwl 0x7bb7(%rip),%eax        # 1a05a <g_89>
   124a3:	0f b7 c0             	movzwl %ax,%eax
   124a6:	48 89 85 d8 fb ff ff 	mov    %rax,-0x428(%rbp)
   124ad:	48 8b 85 d8 fb ff ff 	mov    -0x428(%rbp),%rax
   124b4:	0f b6 c0             	movzbl %al,%eax
   124b7:	89 d6                	mov    %edx,%esi
   124b9:	89 c7                	mov    %eax,%edi
   124bb:	e8 fe 57 ff ff       	callq  7cbe <safe_rshift_func_uint8_t_u_u>
   124c0:	0f b6 c0             	movzbl %al,%eax
   124c3:	66 89 05 92 7b 00 00 	mov    %ax,0x7b92(%rip)        # 1a05c <g_92>
   124ca:	0f b7 05 8b 7b 00 00 	movzwl 0x7b8b(%rip),%eax        # 1a05c <g_92>
   124d1:	48 0f bf c0          	movswq %ax,%rax
   124d5:	48 89 85 e0 fb ff ff 	mov    %rax,-0x420(%rbp)
   124dc:	48 8b 85 e0 fb ff ff 	mov    -0x420(%rbp),%rax
   124e3:	89 c1                	mov    %eax,%ecx
   124e5:	8b 85 b8 fb ff ff    	mov    -0x448(%rbp),%eax
   124eb:	44 89 ea             	mov    %r13d,%edx
   124ee:	89 ce                	mov    %ecx,%esi
   124f0:	89 c7                	mov    %eax,%edi
   124f2:	e8 bf 1c 00 00       	callq  141b6 <func_83>
   124f7:	48 8b 95 e8 fb ff ff 	mov    -0x418(%rbp),%rdx
   124fe:	48 89 02             	mov    %rax,(%rdx)
   12501:	48 8b 85 e8 fb ff ff 	mov    -0x418(%rbp),%rax
   12508:	48 8b 10             	mov    (%rax),%rdx
   1250b:	8b 85 d4 fb ff ff    	mov    -0x42c(%rbp),%eax
   12511:	48 98                	cltq   
   12513:	48 39 c2             	cmp    %rax,%rdx
   12516:	0f 94 c0             	sete   %al
   12519:	88 85 bc fb ff ff    	mov    %al,-0x444(%rbp)
   1251f:	0f b6 05 32 7b 00 00 	movzbl 0x7b32(%rip),%eax        # 1a058 <g_71>
   12526:	0f b6 d0             	movzbl %al,%edx
   12529:	48 8b 0d d0 7b 00 00 	mov    0x7bd0(%rip),%rcx        # 1a100 <g_103+0x80>
   12530:	8b 05 2a 7b 00 00    	mov    0x7b2a(%rip),%eax        # 1a060 <g_94>
   12536:	48 98                	cltq   
   12538:	48 39 c1             	cmp    %rax,%rcx
   1253b:	0f 9e c0             	setle  %al
   1253e:	0f b6 c0             	movzbl %al,%eax
   12541:	39 c2                	cmp    %eax,%edx
   12543:	0f 9e c0             	setle  %al
   12546:	0f b6 c0             	movzbl %al,%eax
   12549:	89 85 30 fe ff ff    	mov    %eax,-0x1d0(%rbp)
   1254f:	8b 85 30 fe ff ff    	mov    -0x1d0(%rbp),%eax
   12555:	48 63 d0             	movslq %eax,%rdx
   12558:	48 8b 85 f0 fb ff ff 	mov    -0x410(%rbp),%rax
   1255f:	48 89 10             	mov    %rdx,(%rax)
   12562:	48 8b 85 f0 fb ff ff 	mov    -0x410(%rbp),%rax
   12569:	48 8b 00             	mov    (%rax),%rax
   1256c:	48 89 c6             	mov    %rax,%rsi
   1256f:	bf 01 00 00 00       	mov    $0x1,%edi
   12574:	e8 83 53 ff ff       	callq  78fc <safe_mul_func_int64_t_s_s>
   12579:	0f b6 c0             	movzbl %al,%eax
   1257c:	48 8b b5 f8 fb ff ff 	mov    -0x408(%rbp),%rsi
   12583:	4d 89 f0             	mov    %r14,%r8
   12586:	44 89 e1             	mov    %r12d,%ecx
   12589:	89 da                	mov    %ebx,%edx
   1258b:	89 c7                	mov    %eax,%edi
   1258d:	e8 31 00 00 00       	callq  125c3 <func_73>
   12592:	48 89 85 00 fc ff ff 	mov    %rax,-0x400(%rbp)
   12599:	8b 05 99 b0 00 00    	mov    0xb099(%rip),%eax        # 1d638 <g_167>
   1259f:	48 8b 5d d8          	mov    -0x28(%rbp),%rbx
   125a3:	64 48 33 1c 25 28 00 	xor    %fs:0x28,%rbx
   125aa:	00 00 
   125ac:	74 05                	je     125b3 <func_61+0x2f5>
   125ae:	e8 bd 4a ff ff       	callq  7070 <__stack_chk_fail@plt>
   125b3:	48 81 c4 40 04 00 00 	add    $0x440,%rsp
   125ba:	5b                   	pop    %rbx
   125bb:	41 5c                	pop    %r12
   125bd:	41 5d                	pop    %r13
   125bf:	41 5e                	pop    %r14
   125c1:	5d                   	pop    %rbp
   125c2:	c3                   	retq   

00000000000125c3 <func_73>:
   125c3:	f3 0f 1e fa          	endbr64 
   125c7:	55                   	push   %rbp
   125c8:	48 89 e5             	mov    %rsp,%rbp
   125cb:	41 57                	push   %r15
   125cd:	41 56                	push   %r14
   125cf:	41 55                	push   %r13
   125d1:	41 54                	push   %r12
   125d3:	53                   	push   %rbx
   125d4:	48 81 ec 00 10 00 00 	sub    $0x1000,%rsp
   125db:	48 83 0c 24 00       	orq    $0x0,(%rsp)
   125e0:	48 81 ec 38 0b 00 00 	sub    $0xb38,%rsp
   125e7:	48 89 b5 c0 e4 ff ff 	mov    %rsi,-0x1b40(%rbp)
   125ee:	89 c8                	mov    %ecx,%eax
   125f0:	4c 89 85 b0 e4 ff ff 	mov    %r8,-0x1b50(%rbp)
   125f7:	89 f9                	mov    %edi,%ecx
   125f9:	88 8d cc e4 ff ff    	mov    %cl,-0x1b34(%rbp)
   125ff:	88 95 c8 e4 ff ff    	mov    %dl,-0x1b38(%rbp)
   12605:	66 89 85 bc e4 ff ff 	mov    %ax,-0x1b44(%rbp)
   1260c:	64 48 8b 04 25 28 00 	mov    %fs:0x28,%rax
   12613:	00 00 
   12615:	48 89 45 c8          	mov    %rax,-0x38(%rbp)
   12619:	31 c0                	xor    %eax,%eax
   1261b:	48 8d 05 0e b0 00 00 	lea    0xb00e(%rip),%rax        # 1d630 <g_112>
   12622:	48 89 85 b0 e5 ff ff 	mov    %rax,-0x1a50(%rbp)
   12629:	48 8d 85 30 f8 ff ff 	lea    -0x7d0(%rbp),%rax
   12630:	48 8d 15 e9 8c 00 00 	lea    0x8ce9(%rip),%rdx        # 1b320 <g_1579+0xcd4>
   12637:	b9 f3 00 00 00       	mov    $0xf3,%ecx
   1263c:	48 89 c7             	mov    %rax,%rdi
   1263f:	48 89 d6             	mov    %rdx,%rsi
   12642:	f3 48 a5             	rep movsq %ds:(%rsi),%es:(%rdi)
   12645:	48 8d 95 90 e8 ff ff 	lea    -0x1770(%rbp),%rdx
   1264c:	b8 00 00 00 00       	mov    $0x0,%eax
   12651:	b9 12 00 00 00       	mov    $0x12,%ecx
   12656:	48 89 d7             	mov    %rdx,%rdi
   12659:	f3 48 ab             	rep stos %rax,%es:(%rdi)
   1265c:	48 8d 85 90 e8 ff ff 	lea    -0x1770(%rbp),%rax
   12663:	48 83 c0 58          	add    $0x58,%rax
   12667:	48 89 85 50 e5 ff ff 	mov    %rax,-0x1ab0(%rbp)
   1266e:	48 8d 05 eb 79 00 00 	lea    0x79eb(%rip),%rax        # 1a060 <g_94>
   12675:	48 89 85 b8 e5 ff ff 	mov    %rax,-0x1a48(%rbp)
   1267c:	c7 85 e4 e4 ff ff 8e 	movl   $0xccb0868e,-0x1b1c(%rbp)
   12683:	86 b0 cc 
   12686:	66 c7 85 76 e6 ff ff 	movw   $0xadf1,-0x198a(%rbp)
   1268d:	f1 ad 
   1268f:	66 c7 85 78 e6 ff ff 	movw   $0xadf1,-0x1988(%rbp)
   12696:	f1 ad 
   12698:	66 c7 85 7a e6 ff ff 	movw   $0xadf1,-0x1986(%rbp)
   1269f:	f1 ad 
   126a1:	66 c7 85 7c e6 ff ff 	movw   $0xadf1,-0x1984(%rbp)
   126a8:	f1 ad 
   126aa:	66 c7 85 7e e6 ff ff 	movw   $0xadf1,-0x1982(%rbp)
   126b1:	f1 ad 
   126b3:	48 8d 05 7a af 00 00 	lea    0xaf7a(%rip),%rax        # 1d634 <g_139>
   126ba:	48 89 85 58 e5 ff ff 	mov    %rax,-0x1aa8(%rbp)
   126c1:	c7 85 a0 e6 ff ff 43 	movl   $0x83b1ef43,-0x1960(%rbp)
   126c8:	ef b1 83 
   126cb:	c7 85 a4 e6 ff ff a4 	movl   $0x84a610a4,-0x195c(%rbp)
   126d2:	10 a6 84 
   126d5:	c7 85 a8 e6 ff ff 43 	movl   $0x83b1ef43,-0x1958(%rbp)
   126dc:	ef b1 83 
   126df:	c7 85 ac e6 ff ff a4 	movl   $0x84a610a4,-0x1954(%rbp)
   126e6:	10 a6 84 
   126e9:	c7 85 b0 e6 ff ff 43 	movl   $0x83b1ef43,-0x1950(%rbp)
   126f0:	ef b1 83 
   126f3:	c7 85 b4 e6 ff ff a4 	movl   $0x84a610a4,-0x194c(%rbp)
   126fa:	10 a6 84 
   126fd:	c7 85 b8 e6 ff ff 43 	movl   $0x83b1ef43,-0x1948(%rbp)
   12704:	ef b1 83 
   12707:	c7 85 bc e6 ff ff a4 	movl   $0x84a610a4,-0x1944(%rbp)
   1270e:	10 a6 84 
   12711:	c7 85 c0 e6 ff ff 43 	movl   $0x83b1ef43,-0x1940(%rbp)
   12718:	ef b1 83 
   1271b:	c7 85 c4 e6 ff ff a4 	movl   $0x84a610a4,-0x193c(%rbp)
   12722:	10 a6 84 
   12725:	66 c7 85 e0 e4 ff ff 	movw   $0xffff,-0x1b20(%rbp)
   1272c:	ff ff 
   1272e:	48 8d 05 23 79 00 00 	lea    0x7923(%rip),%rax        # 1a058 <g_71>
   12735:	48 89 85 60 e5 ff ff 	mov    %rax,-0x1aa0(%rbp)
   1273c:	c6 85 d9 e4 ff ff 35 	movb   $0x35,-0x1b27(%rbp)
   12743:	c7 85 04 e5 ff ff 5d 	movl   $0x2039155d,-0x1afc(%rbp)
   1274a:	15 39 20 
   1274d:	c7 85 08 e5 ff ff ff 	movl   $0xffffffff,-0x1af8(%rbp)
   12754:	ff ff ff 
   12757:	c7 85 e8 e4 ff ff 01 	movl   $0x1,-0x1b18(%rbp)
   1275e:	00 00 00 
   12761:	c7 85 fc e4 ff ff 04 	movl   $0x4,-0x1b04(%rbp)
   12768:	00 00 00 
   1276b:	c7 85 d0 e6 ff ff df 	movl   $0xac70b6df,-0x1930(%rbp)
   12772:	b6 70 ac 
   12775:	c7 85 d4 e6 ff ff f7 	movl   $0xfffffff7,-0x192c(%rbp)
   1277c:	ff ff ff 
   1277f:	c7 85 d8 e6 ff ff df 	movl   $0xac70b6df,-0x1928(%rbp)
   12786:	b6 70 ac 
   12789:	c7 85 dc e6 ff ff f7 	movl   $0xfffffff7,-0x1924(%rbp)
   12790:	ff ff ff 
   12793:	c7 85 e0 e6 ff ff df 	movl   $0xac70b6df,-0x1920(%rbp)
   1279a:	b6 70 ac 
   1279d:	c7 85 e4 e6 ff ff f7 	movl   $0xfffffff7,-0x191c(%rbp)
   127a4:	ff ff ff 
   127a7:	c7 85 e8 e6 ff ff df 	movl   $0xac70b6df,-0x1918(%rbp)
   127ae:	b6 70 ac 
   127b1:	c7 85 ec e6 ff ff f7 	movl   $0xfffffff7,-0x1914(%rbp)
   127b8:	ff ff ff 
   127bb:	c7 85 f0 e6 ff ff df 	movl   $0xac70b6df,-0x1910(%rbp)
   127c2:	b6 70 ac 
   127c5:	c7 85 f4 e6 ff ff f7 	movl   $0xfffffff7,-0x190c(%rbp)
   127cc:	ff ff ff 
   127cf:	48 c7 85 90 e5 ff ff 	movq   $0x0,-0x1a70(%rbp)
   127d6:	00 00 00 00 
   127da:	48 8d 85 76 e6 ff ff 	lea    -0x198a(%rbp),%rax
   127e1:	48 83 c0 06          	add    $0x6,%rax
   127e5:	48 89 85 68 e5 ff ff 	mov    %rax,-0x1a98(%rbp)
   127ec:	48 8d 85 68 e5 ff ff 	lea    -0x1a98(%rbp),%rax
   127f3:	48 89 85 c0 e7 ff ff 	mov    %rax,-0x1840(%rbp)
   127fa:	48 8d 85 68 e5 ff ff 	lea    -0x1a98(%rbp),%rax
   12801:	48 89 85 c8 e7 ff ff 	mov    %rax,-0x1838(%rbp)
   12808:	48 8d 85 68 e5 ff ff 	lea    -0x1a98(%rbp),%rax
   1280f:	48 89 85 d0 e7 ff ff 	mov    %rax,-0x1830(%rbp)
   12816:	48 8d 85 68 e5 ff ff 	lea    -0x1a98(%rbp),%rax
   1281d:	48 89 85 d8 e7 ff ff 	mov    %rax,-0x1828(%rbp)
   12824:	48 8d 85 68 e5 ff ff 	lea    -0x1a98(%rbp),%rax
   1282b:	48 89 85 e0 e7 ff ff 	mov    %rax,-0x1820(%rbp)
   12832:	48 8d 85 68 e5 ff ff 	lea    -0x1a98(%rbp),%rax
   12839:	48 89 85 e8 e7 ff ff 	mov    %rax,-0x1818(%rbp)
   12840:	48 8d 85 68 e5 ff ff 	lea    -0x1a98(%rbp),%rax
   12847:	48 89 85 f0 e7 ff ff 	mov    %rax,-0x1810(%rbp)
   1284e:	48 8d 85 68 e5 ff ff 	lea    -0x1a98(%rbp),%rax
   12855:	48 89 85 f8 e7 ff ff 	mov    %rax,-0x1808(%rbp)
   1285c:	48 8d 85 68 e5 ff ff 	lea    -0x1a98(%rbp),%rax
   12863:	48 89 85 00 e8 ff ff 	mov    %rax,-0x1800(%rbp)
   1286a:	48 8d 85 68 e5 ff ff 	lea    -0x1a98(%rbp),%rax
   12871:	48 89 85 08 e8 ff ff 	mov    %rax,-0x17f8(%rbp)
   12878:	48 8d 85 e4 e4 ff ff 	lea    -0x1b1c(%rbp),%rax
   1287f:	48 89 85 98 e5 ff ff 	mov    %rax,-0x1a68(%rbp)
   12886:	c7 85 00 e5 ff ff 00 	movl   $0x0,-0x1b00(%rbp)
   1288d:	00 00 00 
   12890:	eb 1e                	jmp    128b0 <func_73+0x2ed>
   12892:	8b 85 00 e5 ff ff    	mov    -0x1b00(%rbp),%eax
   12898:	48 98                	cltq   
   1289a:	48 8d 15 ab 77 00 00 	lea    0x77ab(%rip),%rdx        # 1a04c <g_34+0xc>
   128a1:	48 89 94 c5 00 e7 ff 	mov    %rdx,-0x1900(%rbp,%rax,8)
   128a8:	ff 
   128a9:	83 85 00 e5 ff ff 01 	addl   $0x1,-0x1b00(%rbp)
   128b0:	83 bd 00 e5 ff ff 06 	cmpl   $0x6,-0x1b00(%rbp)
   128b7:	7e d9                	jle    12892 <func_73+0x2cf>
   128b9:	48 8d 05 70 ad 00 00 	lea    0xad70(%rip),%rax        # 1d630 <g_112>
   128c0:	48 39 85 b0 e5 ff ff 	cmp    %rax,-0x1a50(%rbp)
   128c7:	0f 85 85 00 00 00    	jne    12952 <func_73+0x38f>
   128cd:	0f b7 05 88 77 00 00 	movzwl 0x7788(%rip),%eax        # 1a05c <g_92>
   128d4:	48 0f bf d8          	movswq %ax,%rbx
   128d8:	48 8b 85 30 e7 ff ff 	mov    -0x18d0(%rbp),%rax
   128df:	48 85 c0             	test   %rax,%rax
   128e2:	0f 94 c0             	sete   %al
   128e5:	0f b6 c0             	movzbl %al,%eax
   128e8:	be 04 00 00 00       	mov    $0x4,%esi
   128ed:	89 c7                	mov    %eax,%edi
   128ef:	e8 99 53 ff ff       	callq  7c8d <safe_rshift_func_uint8_t_u_s>
   128f4:	0f b6 d0             	movzbl %al,%edx
   128f7:	8b 85 e4 e4 ff ff    	mov    -0x1b1c(%rbp),%eax
   128fd:	39 c2                	cmp    %eax,%edx
   128ff:	7f 0a                	jg     1290b <func_73+0x348>
   12901:	66 83 bd bc e4 ff ff 	cmpw   $0x0,-0x1b44(%rbp)
   12908:	00 
   12909:	74 07                	je     12912 <func_73+0x34f>
   1290b:	b8 01 00 00 00       	mov    $0x1,%eax
   12910:	eb 05                	jmp    12917 <func_73+0x354>
   12912:	b8 00 00 00 00       	mov    $0x0,%eax
   12917:	48 63 d0             	movslq %eax,%rdx
   1291a:	48 8b 85 50 e5 ff ff 	mov    -0x1ab0(%rbp),%rax
   12921:	48 8d 0d 38 77 00 00 	lea    0x7738(%rip),%rcx        # 1a060 <g_94>
   12928:	48 89 08             	mov    %rcx,(%rax)
   1292b:	48 8b 8d 58 ff ff ff 	mov    -0xa8(%rbp),%rcx
   12932:	48 8b 85 50 fc ff ff 	mov    -0x3b0(%rbp),%rax
   12939:	48 39 c1             	cmp    %rax,%rcx
   1293c:	0f 94 c0             	sete   %al
   1293f:	0f b6 c0             	movzbl %al,%eax
   12942:	48 89 d6             	mov    %rdx,%rsi
   12945:	48 89 c7             	mov    %rax,%rdi
   12948:	e8 5b 4f ff ff       	callq  78a8 <safe_sub_func_int64_t_s_s>
   1294d:	48 39 c3             	cmp    %rax,%rbx
   12950:	7c 07                	jl     12959 <func_73+0x396>
   12952:	b8 01 00 00 00       	mov    $0x1,%eax
   12957:	eb 05                	jmp    1295e <func_73+0x39b>
   12959:	b8 00 00 00 00       	mov    $0x0,%eax
   1295e:	66 89 85 7a e6 ff ff 	mov    %ax,-0x1986(%rbp)
   12965:	0f b7 85 7a e6 ff ff 	movzwl -0x1986(%rbp),%eax
   1296c:	0f bf d0             	movswl %ax,%edx
   1296f:	8b 85 e4 e4 ff ff    	mov    -0x1b1c(%rbp),%eax
   12975:	39 c2                	cmp    %eax,%edx
   12977:	0f 94 c0             	sete   %al
   1297a:	0f b6 c0             	movzbl %al,%eax
   1297d:	48 8b 1d 9c 94 00 00 	mov    0x949c(%rip),%rbx        # 1be20 <g_137>
   12984:	89 c7                	mov    %eax,%edi
   12986:	e8 09 19 00 00       	callq  14294 <func_109>
   1298b:	48 89 03             	mov    %rax,(%rbx)
   1298e:	48 8b 85 58 e5 ff ff 	mov    -0x1aa8(%rbp),%rax
   12995:	8b 10                	mov    (%rax),%edx
   12997:	83 c2 01             	add    $0x1,%edx
   1299a:	89 10                	mov    %edx,(%rax)
   1299c:	8b 00                	mov    (%rax),%eax
   1299e:	85 c0                	test   %eax,%eax
   129a0:	74 0a                	je     129ac <func_73+0x3e9>
   129a2:	0f b7 85 7a e6 ff ff 	movzwl -0x1986(%rbp),%eax
   129a9:	66 85 c0             	test   %ax,%ax
   129ac:	8b 85 e4 e4 ff ff    	mov    -0x1b1c(%rbp),%eax
   129b2:	89 c3                	mov    %eax,%ebx
   129b4:	8b 85 e4 e4 ff ff    	mov    -0x1b1c(%rbp),%eax
   129ba:	0f be c0             	movsbl %al,%eax
   129bd:	be d0 ff ff ff       	mov    $0xffffffd0,%esi
   129c2:	89 c7                	mov    %eax,%edi
   129c4:	e8 29 48 ff ff       	callq  71f2 <safe_sub_func_int8_t_s_s>
   129c9:	0f be c0             	movsbl %al,%eax
   129cc:	89 de                	mov    %ebx,%esi
   129ce:	89 c7                	mov    %eax,%edi
   129d0:	e8 28 55 ff ff       	callq  7efd <safe_mod_func_uint32_t_u_u>
   129d5:	0f b6 85 cc e4 ff ff 	movzbl -0x1b34(%rbp),%eax
   129dc:	84 c0                	test   %al,%al
   129de:	0f 94 c0             	sete   %al
   129e1:	0f b6 c0             	movzbl %al,%eax
   129e4:	89 85 e4 e4 ff ff    	mov    %eax,-0x1b1c(%rbp)
   129ea:	8b 85 e4 e4 ff ff    	mov    -0x1b1c(%rbp),%eax
   129f0:	48 63 d0             	movslq %eax,%rdx
   129f3:	48 8b 05 0e 77 00 00 	mov    0x770e(%rip),%rax        # 1a108 <g_103+0x88>
   129fa:	48 39 c2             	cmp    %rax,%rdx
   129fd:	0f 84 6b 13 00 00    	je     13d6e <func_73+0x17ab>
   12a03:	66 c7 85 de e4 ff ff 	movw   $0x4,-0x1b22(%rbp)
   12a0a:	04 00 
   12a0c:	48 8d 85 90 e8 ff ff 	lea    -0x1770(%rbp),%rax
   12a13:	48 83 c0 58          	add    $0x58,%rax
   12a17:	48 89 85 70 e5 ff ff 	mov    %rax,-0x1a90(%rbp)
   12a1e:	48 8d 05 0b 78 00 00 	lea    0x780b(%rip),%rax        # 1a230 <g_107+0x10>
   12a25:	48 89 85 c0 e5 ff ff 	mov    %rax,-0x1a40(%rbp)
   12a2c:	66 c7 85 20 e9 ff ff 	movw   $0x2f9,-0x16e0(%rbp)
   12a33:	f9 02 
   12a35:	66 c7 85 22 e9 ff ff 	movw   $0x8efd,-0x16de(%rbp)
   12a3c:	fd 8e 
   12a3e:	66 c7 85 24 e9 ff ff 	movw   $0xfc01,-0x16dc(%rbp)
   12a45:	01 fc 
   12a47:	66 c7 85 26 e9 ff ff 	movw   $0xfdff,-0x16da(%rbp)
   12a4e:	ff fd 
   12a50:	66 c7 85 28 e9 ff ff 	movw   $0x9ff9,-0x16d8(%rbp)
   12a57:	f9 9f 
   12a59:	66 c7 85 2a e9 ff ff 	movw   $0x600,-0x16d6(%rbp)
   12a60:	00 06 
   12a62:	66 c7 85 2c e9 ff ff 	movw   $0x654,-0x16d4(%rbp)
   12a69:	54 06 
   12a6b:	66 c7 85 2e e9 ff ff 	movw   $0x9f00,-0x16d2(%rbp)
   12a72:	00 9f 
   12a74:	66 c7 85 30 e9 ff ff 	movw   $0xfdf9,-0x16d0(%rbp)
   12a7b:	f9 fd 
   12a7d:	66 c7 85 32 e9 ff ff 	movw   $0xfcff,-0x16ce(%rbp)
   12a84:	ff fc 
   12a86:	66 c7 85 34 e9 ff ff 	movw   $0x8e01,-0x16cc(%rbp)
   12a8d:	01 8e 
   12a8f:	66 c7 85 36 e9 ff ff 	movw   $0x2fd,-0x16ca(%rbp)
   12a96:	fd 02 
   12a98:	66 c7 85 38 e9 ff ff 	movw   $0xf9f9,-0x16c8(%rbp)
   12a9f:	f9 f9 
   12aa1:	66 c7 85 3a e9 ff ff 	movw   $0x759,-0x16c6(%rbp)
   12aa8:	59 07 
   12aaa:	66 c7 85 3c e9 ff ff 	movw   $0x2b00,-0x16c4(%rbp)
   12ab1:	00 2b 
   12ab3:	66 c7 85 3e e9 ff ff 	movw   $0x4,-0x16c2(%rbp)
   12aba:	04 00 
   12abc:	66 c7 85 40 e9 ff ff 	movw   $0xc6f9,-0x16c0(%rbp)
   12ac3:	f9 c6 
   12ac5:	66 c7 85 42 e9 ff ff 	movw   $0xfad2,-0x16be(%rbp)
   12acc:	d2 fa 
   12ace:	66 c7 85 44 e9 ff ff 	movw   $0x54f9,-0x16bc(%rbp)
   12ad5:	f9 54 
   12ad7:	66 c7 85 46 e9 ff ff 	movw   $0x999f,-0x16ba(%rbp)
   12ade:	9f 99 
   12ae0:	66 c7 85 48 e9 ff ff 	movw   $0xff01,-0x16b8(%rbp)
   12ae7:	01 ff 
   12ae9:	66 c7 85 4a e9 ff ff 	movw   $0xc61f,-0x16b6(%rbp)
   12af0:	1f c6 
   12af2:	66 c7 85 4c e9 ff ff 	movw   $0xe2d2,-0x16b4(%rbp)
   12af9:	d2 e2 
   12afb:	66 c7 85 4e e9 ff ff 	movw   $0xec80,-0x16b2(%rbp)
   12b02:	80 ec 
   12b04:	66 c7 85 50 e9 ff ff 	movw   $0xff54,-0x16b0(%rbp)
   12b0b:	54 ff 
   12b0d:	66 c7 85 52 e9 ff ff 	movw   $0x7f8,-0x16ae(%rbp)
   12b14:	f8 07 
   12b16:	66 c7 85 54 e9 ff ff 	movw   $0xf92f,-0x16ac(%rbp)
   12b1d:	2f f9 
   12b1f:	66 c7 85 56 e9 ff ff 	movw   $0x9fa,-0x16aa(%rbp)
   12b26:	fa 09 
   12b28:	66 c7 85 58 e9 ff ff 	movw   $0xfd80,-0x16a8(%rbp)
   12b2f:	80 fd 
   12b31:	66 c7 85 5a e9 ff ff 	movw   $0xfa01,-0x16a6(%rbp)
   12b38:	01 fa 
   12b3a:	66 c7 85 5c e9 ff ff 	movw   $0xffd2,-0x16a4(%rbp)
   12b41:	d2 ff 
   12b43:	66 c7 85 5e e9 ff ff 	movw   $0x52fa,-0x16a2(%rbp)
   12b4a:	fa 52 
   12b4c:	66 c7 85 60 e9 ff ff 	movw   $0x99fb,-0x16a0(%rbp)
   12b53:	fb 99 
   12b55:	66 c7 85 62 e9 ff ff 	movw   $0xf9f9,-0x169e(%rbp)
   12b5c:	f9 f9 
   12b5e:	66 c7 85 64 e9 ff ff 	movw   $0xfa7c,-0x169c(%rbp)
   12b65:	7c fa 
   12b67:	66 c7 85 66 e9 ff ff 	movw   $0xd2,-0x169a(%rbp)
   12b6e:	d2 00 
   12b70:	66 c7 85 68 e9 ff ff 	movw   $0x68ff,-0x1698(%rbp)
   12b77:	ff 68 
   12b79:	66 c7 85 6a e9 ff ff 	movw   $0xfffa,-0x1696(%rbp)
   12b80:	fa ff 
   12b82:	66 c7 85 6c e9 ff ff 	movw   $0xfc,-0x1694(%rbp)
   12b89:	fc 00 
   12b8b:	66 c7 85 6e e9 ff ff 	movw   $0xfffc,-0x1692(%rbp)
   12b92:	fc ff 
   12b94:	66 c7 85 70 e9 ff ff 	movw   $0x68fa,-0x1690(%rbp)
   12b9b:	fa 68 
   12b9d:	66 c7 85 72 e9 ff ff 	movw   $0xff,-0x168e(%rbp)
   12ba4:	ff 00 
   12ba6:	66 c7 85 74 e9 ff ff 	movw   $0xfad2,-0x168c(%rbp)
   12bad:	d2 fa 
   12baf:	66 c7 85 76 e9 ff ff 	movw   $0xf97c,-0x168a(%rbp)
   12bb6:	7c f9 
   12bb8:	66 c7 85 78 e9 ff ff 	movw   $0x99f9,-0x1688(%rbp)
   12bbf:	f9 99 
   12bc1:	66 c7 85 7a e9 ff ff 	movw   $0x52fb,-0x1686(%rbp)
   12bc8:	fb 52 
   12bca:	66 c7 85 7c e9 ff ff 	movw   $0xfffa,-0x1684(%rbp)
   12bd1:	fa ff 
   12bd3:	66 c7 85 7e e9 ff ff 	movw   $0xfad2,-0x1682(%rbp)
   12bda:	d2 fa 
   12bdc:	66 c7 85 80 e9 ff ff 	movw   $0xfd01,-0x1680(%rbp)
   12be3:	01 fd 
   12be5:	66 c7 85 82 e9 ff ff 	movw   $0x980,-0x167e(%rbp)
   12bec:	80 09 
   12bee:	66 c7 85 84 e9 ff ff 	movw   $0xf9fa,-0x167c(%rbp)
   12bf5:	fa f9 
   12bf7:	66 c7 85 86 e9 ff ff 	movw   $0x72f,-0x167a(%rbp)
   12bfe:	2f 07 
   12c00:	66 c7 85 88 e9 ff ff 	movw   $0xfff8,-0x1678(%rbp)
   12c07:	f8 ff 
   12c09:	66 c7 85 8a e9 ff ff 	movw   $0xec54,-0x1676(%rbp)
   12c10:	54 ec 
   12c12:	66 c7 85 8c e9 ff ff 	movw   $0xe280,-0x1674(%rbp)
   12c19:	80 e2 
   12c1b:	66 c7 85 8e e9 ff ff 	movw   $0xc6d2,-0x1672(%rbp)
   12c22:	d2 c6 
   12c24:	66 c7 85 90 e9 ff ff 	movw   $0xff1f,-0x1670(%rbp)
   12c2b:	1f ff 
   12c2d:	66 c7 85 92 e9 ff ff 	movw   $0x9901,-0x166e(%rbp)
   12c34:	01 99 
   12c36:	66 c7 85 94 e9 ff ff 	movw   $0x549f,-0x166c(%rbp)
   12c3d:	9f 54 
   12c3f:	66 c7 85 96 e9 ff ff 	movw   $0xfaf9,-0x166a(%rbp)
   12c46:	f9 fa 
   12c48:	66 c7 85 98 e9 ff ff 	movw   $0xc6d2,-0x1668(%rbp)
   12c4f:	d2 c6 
   12c51:	66 c7 85 9a e9 ff ff 	movw   $0xf9,-0x1666(%rbp)
   12c58:	f9 00 
   12c5a:	66 c7 85 9c e9 ff ff 	movw   $0x904,-0x1664(%rbp)
   12c61:	04 09 
   12c63:	66 c7 85 9e e9 ff ff 	movw   $0x8054,-0x1662(%rbp)
   12c6a:	54 80 
   12c6c:	66 c7 85 a0 e9 ff ff 	movw   $0x1fc,-0x1660(%rbp)
   12c73:	fc 01 
   12c75:	66 c7 85 a2 e9 ff ff 	movw   $0xf9f8,-0x165e(%rbp)
   12c7c:	f8 f9 
   12c7e:	66 c7 85 a4 e9 ff ff 	movw   $0x6899,-0x165c(%rbp)
   12c85:	99 68 
   12c87:	66 c7 85 a6 e9 ff ff 	movw   $0xe204,-0x165a(%rbp)
   12c8e:	04 e2 
   12c90:	66 c7 85 a8 e9 ff ff 	movw   $0x2b01,-0x1658(%rbp)
   12c97:	01 2b 
   12c99:	66 c7 85 aa e9 ff ff 	movw   $0xfa7c,-0x1656(%rbp)
   12ca0:	7c fa 
   12ca2:	66 c7 85 ac e9 ff ff 	movw   $0x5201,-0x1654(%rbp)
   12ca9:	01 52 
   12cab:	66 c7 85 ae e9 ff ff 	movw   $0x5200,-0x1652(%rbp)
   12cb2:	00 52 
   12cb4:	66 c7 85 b0 e9 ff ff 	movw   $0xfa01,-0x1650(%rbp)
   12cbb:	01 fa 
   12cbd:	66 c7 85 b2 e9 ff ff 	movw   $0x2b7c,-0x164e(%rbp)
   12cc4:	7c 2b 
   12cc6:	66 c7 85 b4 e9 ff ff 	movw   $0xe201,-0x164c(%rbp)
   12ccd:	01 e2 
   12ccf:	66 c7 85 b6 e9 ff ff 	movw   $0x6804,-0x164a(%rbp)
   12cd6:	04 68 
   12cd8:	66 c7 85 b8 e9 ff ff 	movw   $0xf999,-0x1648(%rbp)
   12cdf:	99 f9 
   12ce1:	66 c7 85 ba e9 ff ff 	movw   $0x1f8,-0x1646(%rbp)
   12ce8:	f8 01 
   12cea:	66 c7 85 bc e9 ff ff 	movw   $0x80fc,-0x1644(%rbp)
   12cf1:	fc 80 
   12cf3:	66 c7 85 be e9 ff ff 	movw   $0x954,-0x1642(%rbp)
   12cfa:	54 09 
   12cfc:	66 c7 85 c0 e9 ff ff 	movw   $0x4,-0x1640(%rbp)
   12d03:	04 00 
   12d05:	66 c7 85 c2 e9 ff ff 	movw   $0xc6f9,-0x163e(%rbp)
   12d0c:	f9 c6 
   12d0e:	66 c7 85 c4 e9 ff ff 	movw   $0xfad2,-0x163c(%rbp)
   12d15:	d2 fa 
   12d17:	66 c7 85 c6 e9 ff ff 	movw   $0x54f9,-0x163a(%rbp)
   12d1e:	f9 54 
   12d20:	66 c7 85 c8 e9 ff ff 	movw   $0x999f,-0x1638(%rbp)
   12d27:	9f 99 
   12d29:	66 c7 85 ca e9 ff ff 	movw   $0xff01,-0x1636(%rbp)
   12d30:	01 ff 
   12d32:	66 c7 85 cc e9 ff ff 	movw   $0xc61f,-0x1634(%rbp)
   12d39:	1f c6 
   12d3b:	66 c7 85 ce e9 ff ff 	movw   $0xe2d2,-0x1632(%rbp)
   12d42:	d2 e2 
   12d44:	66 c7 85 d0 e9 ff ff 	movw   $0xec80,-0x1630(%rbp)
   12d4b:	80 ec 
   12d4d:	66 c7 85 d2 e9 ff ff 	movw   $0xff54,-0x162e(%rbp)
   12d54:	54 ff 
   12d56:	66 c7 85 d4 e9 ff ff 	movw   $0x7f8,-0x162c(%rbp)
   12d5d:	f8 07 
   12d5f:	66 c7 85 d6 e9 ff ff 	movw   $0xf92f,-0x162a(%rbp)
   12d66:	2f f9 
   12d68:	66 c7 85 d8 e9 ff ff 	movw   $0x9fa,-0x1628(%rbp)
   12d6f:	fa 09 
   12d71:	66 c7 85 da e9 ff ff 	movw   $0xfd80,-0x1626(%rbp)
   12d78:	80 fd 
   12d7a:	66 c7 85 dc e9 ff ff 	movw   $0xfa01,-0x1624(%rbp)
   12d81:	01 fa 
   12d83:	66 c7 85 de e9 ff ff 	movw   $0xffd2,-0x1622(%rbp)
   12d8a:	d2 ff 
   12d8c:	66 c7 85 e0 e9 ff ff 	movw   $0x52fa,-0x1620(%rbp)
   12d93:	fa 52 
   12d95:	66 c7 85 e2 e9 ff ff 	movw   $0x99fb,-0x161e(%rbp)
   12d9c:	fb 99 
   12d9e:	66 c7 85 e4 e9 ff ff 	movw   $0xf9f9,-0x161c(%rbp)
   12da5:	f9 f9 
   12da7:	66 c7 85 e6 e9 ff ff 	movw   $0xfa7c,-0x161a(%rbp)
   12dae:	7c fa 
   12db0:	c7 85 14 e5 ff ff 59 	movl   $0xeba72b59,-0x1aec(%rbp)
   12db7:	2b a7 eb 
   12dba:	c7 85 18 e5 ff ff c2 	movl   $0xa679ecc2,-0x1ae8(%rbp)
   12dc1:	ec 79 a6 
   12dc4:	c7 85 1c e5 ff ff 01 	movl   $0x1,-0x1ae4(%rbp)
   12dcb:	00 00 00 
   12dce:	c7 85 20 e5 ff ff 00 	movl   $0x0,-0x1ae0(%rbp)
   12dd5:	00 00 00 
   12dd8:	c7 85 ec e4 ff ff 05 	movl   $0x5,-0x1b14(%rbp)
   12ddf:	00 00 00 
   12de2:	c7 85 24 e5 ff ff de 	movl   $0x89d0c8de,-0x1adc(%rbp)
   12de9:	c8 d0 89 
   12dec:	c7 85 28 e5 ff ff a5 	movl   $0x254527a5,-0x1ad8(%rbp)
   12df3:	27 45 25 
   12df6:	c7 85 2c e5 ff ff f0 	movl   $0x14be0bf0,-0x1ad4(%rbp)
   12dfd:	0b be 14 
   12e00:	66 c7 05 51 72 00 00 	movw   $0x0,0x7251(%rip)        # 1a05a <g_89>
   12e07:	00 00 
   12e09:	e9 4a 0f 00 00       	jmpq   13d58 <func_73+0x1795>
   12e0e:	c6 85 d8 e4 ff ff 01 	movb   $0x1,-0x1b28(%rbp)
   12e15:	66 c7 85 dc e4 ff ff 	movw   $0x0,-0x1b24(%rbp)
   12e1c:	00 00 
   12e1e:	48 b8 25 b4 9e 4f dd 	movabs $0x56ef34dd4f9eb425,%rax
   12e25:	34 ef 56 
   12e28:	48 89 85 78 e5 ff ff 	mov    %rax,-0x1a88(%rbp)
   12e2f:	48 c7 85 c8 e5 ff ff 	movq   $0x0,-0x1a38(%rbp)
   12e36:	00 00 00 00 
   12e3a:	c6 85 da e4 ff ff f8 	movb   $0xf8,-0x1b26(%rbp)
   12e41:	c6 85 db e4 ff ff 51 	movb   $0x51,-0x1b25(%rbp)
   12e48:	c7 85 30 e5 ff ff 88 	movl   $0x6c55a288,-0x1ad0(%rbp)
   12e4f:	a2 55 6c 
   12e52:	c7 85 f0 e4 ff ff 67 	movl   $0xe9915f67,-0x1b10(%rbp)
   12e59:	5f 91 e9 
   12e5c:	c7 85 80 e6 ff ff e1 	movl   $0xc2b7b0e1,-0x1980(%rbp)
   12e63:	b0 b7 c2 
   12e66:	c7 85 84 e6 ff ff fc 	movl   $0xfffffffc,-0x197c(%rbp)
   12e6d:	ff ff ff 
   12e70:	c7 85 88 e6 ff ff fc 	movl   $0xfffffffc,-0x1978(%rbp)
   12e77:	ff ff ff 
   12e7a:	c7 85 8c e6 ff ff e1 	movl   $0xc2b7b0e1,-0x1974(%rbp)
   12e81:	b0 b7 c2 
   12e84:	c7 85 90 e6 ff ff fc 	movl   $0xfffffffc,-0x1970(%rbp)
   12e8b:	ff ff ff 
   12e8e:	c7 85 94 e6 ff ff fc 	movl   $0xfffffffc,-0x196c(%rbp)
   12e95:	ff ff ff 
   12e98:	48 8d 85 30 f1 ff ff 	lea    -0xed0(%rbp),%rax
   12e9f:	48 8d 15 1a 36 00 00 	lea    0x361a(%rip),%rdx        # 164c0 <g_1245+0x1420>
   12ea6:	b9 e0 00 00 00       	mov    $0xe0,%ecx
   12eab:	48 89 c7             	mov    %rax,%rdi
   12eae:	48 89 d6             	mov    %rdx,%rsi
   12eb1:	f3 48 a5             	rep movsq %ds:(%rsi),%es:(%rdi)
   12eb4:	66 c7 85 e2 e4 ff ff 	movw   $0x4,-0x1b1e(%rbp)
   12ebb:	04 00 
   12ebd:	48 8d 85 70 e5 ff ff 	lea    -0x1a90(%rbp),%rax
   12ec4:	48 89 85 80 e5 ff ff 	mov    %rax,-0x1a80(%rbp)
   12ecb:	48 8d 85 80 e5 ff ff 	lea    -0x1a80(%rbp),%rax
   12ed2:	48 89 85 d0 e5 ff ff 	mov    %rax,-0x1a30(%rbp)
   12ed9:	c6 85 cc e4 ff ff 00 	movb   $0x0,-0x1b34(%rbp)
   12ee0:	e9 6e 01 00 00       	jmpq   13053 <func_73+0xa90>
   12ee5:	48 c7 85 60 e6 ff ff 	movq   $0x0,-0x19a0(%rbp)
   12eec:	00 00 00 00 
   12ef0:	48 8d 05 11 72 00 00 	lea    0x7211(%rip),%rax        # 1a108 <g_103+0x88>
   12ef7:	48 89 85 a0 ed ff ff 	mov    %rax,-0x1260(%rbp)
   12efe:	48 8d 05 03 72 00 00 	lea    0x7203(%rip),%rax        # 1a108 <g_103+0x88>
   12f05:	48 89 85 a8 ed ff ff 	mov    %rax,-0x1258(%rbp)
   12f0c:	48 8d 05 f5 71 00 00 	lea    0x71f5(%rip),%rax        # 1a108 <g_103+0x88>
   12f13:	48 89 85 b0 ed ff ff 	mov    %rax,-0x1250(%rbp)
   12f1a:	48 8d 05 e7 71 00 00 	lea    0x71e7(%rip),%rax        # 1a108 <g_103+0x88>
   12f21:	48 89 85 b8 ed ff ff 	mov    %rax,-0x1248(%rbp)
   12f28:	48 8d 05 d9 71 00 00 	lea    0x71d9(%rip),%rax        # 1a108 <g_103+0x88>
   12f2f:	48 89 85 c0 ed ff ff 	mov    %rax,-0x1240(%rbp)
   12f36:	48 8d 05 cb 71 00 00 	lea    0x71cb(%rip),%rax        # 1a108 <g_103+0x88>
   12f3d:	48 89 85 c8 ed ff ff 	mov    %rax,-0x1238(%rbp)
   12f44:	48 8d 85 a0 ed ff ff 	lea    -0x1260(%rbp),%rax
   12f4b:	48 89 85 68 e6 ff ff 	mov    %rax,-0x1998(%rbp)
   12f52:	c7 85 4c e5 ff ff 01 	movl   $0x1,-0x1ab4(%rbp)
   12f59:	00 00 00 
   12f5c:	48 8d 05 d5 72 00 00 	lea    0x72d5(%rip),%rax        # 1a238 <g_107+0x18>
   12f63:	48 89 85 60 e6 ff ff 	mov    %rax,-0x19a0(%rbp)
   12f6a:	48 8b 95 a0 ed ff ff 	mov    -0x1260(%rbp),%rdx
   12f71:	48 8b 85 68 e6 ff ff 	mov    -0x1998(%rbp),%rax
   12f78:	48 89 10             	mov    %rdx,(%rax)
   12f7b:	48 8b 85 68 e6 ff ff 	mov    -0x1998(%rbp),%rax
   12f82:	48 8b 00             	mov    (%rax),%rax
   12f85:	48 8d 15 ac 72 00 00 	lea    0x72ac(%rip),%rdx        # 1a238 <g_107+0x18>
   12f8c:	48 39 d0             	cmp    %rdx,%rax
   12f8f:	8b 85 4c e5 ff ff    	mov    -0x1ab4(%rbp),%eax
   12f95:	0f be d8             	movsbl %al,%ebx
   12f98:	66 83 bd de e4 ff ff 	cmpw   $0x0,-0x1b22(%rbp)
   12f9f:	00 
   12fa0:	75 0c                	jne    12fae <func_73+0x9eb>
   12fa2:	0f b7 85 7a e6 ff ff 	movzwl -0x1986(%rbp),%eax
   12fa9:	66 85 c0             	test   %ax,%ax
   12fac:	74 07                	je     12fb5 <func_73+0x9f2>
   12fae:	b8 01 00 00 00       	mov    $0x1,%eax
   12fb3:	eb 05                	jmp    12fba <func_73+0x9f7>
   12fb5:	b8 00 00 00 00       	mov    $0x0,%eax
   12fba:	89 c2                	mov    %eax,%edx
   12fbc:	48 8b 05 75 72 00 00 	mov    0x7275(%rip),%rax        # 1a238 <g_107+0x18>
   12fc3:	21 d0                	and    %edx,%eax
   12fc5:	0f be c0             	movsbl %al,%eax
   12fc8:	be 07 00 00 00       	mov    $0x7,%esi
   12fcd:	89 c7                	mov    %eax,%edi
   12fcf:	e8 1a 43 ff ff       	callq  72ee <safe_lshift_func_int8_t_s_u>
   12fd4:	0f b7 15 7b 70 00 00 	movzwl 0x707b(%rip),%edx        # 1a056 <g_34+0x16>
   12fdb:	09 c2                	or     %eax,%edx
   12fdd:	8b 85 e4 e4 ff ff    	mov    -0x1b1c(%rbp),%eax
   12fe3:	31 d0                	xor    %edx,%eax
   12fe5:	0f be c0             	movsbl %al,%eax
   12fe8:	89 de                	mov    %ebx,%esi
   12fea:	89 c7                	mov    %eax,%edi
   12fec:	e8 e3 41 ff ff       	callq  71d4 <safe_add_func_int8_t_s_s>
   12ff1:	0f be c0             	movsbl %al,%eax
   12ff4:	be ac dc 0d c2       	mov    $0xc20ddcac,%esi
   12ff9:	89 c7                	mov    %eax,%edi
   12ffb:	e8 fd 4e ff ff       	callq  7efd <safe_mod_func_uint32_t_u_u>
   13000:	89 c2                	mov    %eax,%edx
   13002:	48 8b 85 c0 e4 ff ff 	mov    -0x1b40(%rbp),%rax
   13009:	66 89 10             	mov    %dx,(%rax)
   1300c:	48 8b 85 c0 e4 ff ff 	mov    -0x1b40(%rbp),%rax
   13013:	0f b7 00             	movzwl (%rax),%eax
   13016:	0f b7 c0             	movzwl %ax,%eax
   13019:	be 0e 00 00 00       	mov    $0xe,%esi
   1301e:	89 c7                	mov    %eax,%edi
   13020:	e8 99 4d ff ff       	callq  7dbe <safe_lshift_func_uint16_t_u_s>
   13025:	89 c2                	mov    %eax,%edx
   13027:	48 8b 05 fa 8d 00 00 	mov    0x8dfa(%rip),%rax        # 1be28 <g_166>
   1302e:	8b 08                	mov    (%rax),%ecx
   13030:	0f b7 d2             	movzwl %dx,%edx
   13033:	09 ca                	or     %ecx,%edx
   13035:	89 10                	mov    %edx,(%rax)
   13037:	0f b6 85 cc e4 ff ff 	movzbl -0x1b34(%rbp),%eax
   1303e:	0f be c0             	movsbl %al,%eax
   13041:	be 03 00 00 00       	mov    $0x3,%esi
   13046:	89 c7                	mov    %eax,%edi
   13048:	e8 87 41 ff ff       	callq  71d4 <safe_add_func_int8_t_s_s>
   1304d:	88 85 cc e4 ff ff    	mov    %al,-0x1b34(%rbp)
   13053:	0f b6 85 cc e4 ff ff 	movzbl -0x1b34(%rbp),%eax
   1305a:	3c 0f                	cmp    $0xf,%al
   1305c:	0f 87 83 fe ff ff    	ja     12ee5 <func_73+0x922>
   13062:	c6 05 a7 71 00 00 00 	movb   $0x0,0x71a7(%rip)        # 1a210 <g_105>
   13069:	e9 19 0c 00 00       	jmpq   13c87 <func_73+0x16c4>
   1306e:	48 8d 85 50 e5 ff ff 	lea    -0x1ab0(%rbp),%rax
   13075:	48 89 85 d8 e5 ff ff 	mov    %rax,-0x1a28(%rbp)
   1307c:	48 c7 85 e0 e5 ff ff 	movq   $0x0,-0x1a20(%rbp)
   13083:	00 00 00 00 
   13087:	48 8d 85 70 eb ff ff 	lea    -0x1490(%rbp),%rax
   1308e:	48 8d 15 2b 8a 00 00 	lea    0x8a2b(%rip),%rdx        # 1bac0 <g_1579+0x1474>
   13095:	b9 46 00 00 00       	mov    $0x46,%ecx
   1309a:	48 89 c7             	mov    %rax,%rdi
   1309d:	48 89 d6             	mov    %rdx,%rsi
   130a0:	f3 48 a5             	rep movsq %ds:(%rsi),%es:(%rdi)
   130a3:	c7 85 10 e8 ff ff ae 	movl   $0x40eaf7ae,-0x17f0(%rbp)
   130aa:	f7 ea 40 
   130ad:	c7 85 14 e8 ff ff da 	movl   $0xfed21ada,-0x17ec(%rbp)
   130b4:	1a d2 fe 
   130b7:	c7 85 18 e8 ff ff 00 	movl   $0x0,-0x17e8(%rbp)
   130be:	00 00 00 
   130c1:	c7 85 1c e8 ff ff ae 	movl   $0x40eaf7ae,-0x17e4(%rbp)
   130c8:	f7 ea 40 
   130cb:	c7 85 20 e8 ff ff 00 	movl   $0x0,-0x17e0(%rbp)
   130d2:	00 00 00 
   130d5:	c7 85 24 e8 ff ff da 	movl   $0xfed21ada,-0x17dc(%rbp)
   130dc:	1a d2 fe 
   130df:	c7 85 28 e8 ff ff ae 	movl   $0x40eaf7ae,-0x17d8(%rbp)
   130e6:	f7 ea 40 
   130e9:	c7 85 2c e8 ff ff 72 	movl   $0x84ec9872,-0x17d4(%rbp)
   130f0:	98 ec 84 
   130f3:	c7 85 30 e8 ff ff 72 	movl   $0x84ec9872,-0x17d0(%rbp)
   130fa:	98 ec 84 
   130fd:	c7 85 34 e8 ff ff ae 	movl   $0x40eaf7ae,-0x17cc(%rbp)
   13104:	f7 ea 40 
   13107:	c7 85 38 e8 ff ff 72 	movl   $0x84ec9872,-0x17c8(%rbp)
   1310e:	98 ec 84 
   13111:	c7 85 3c e8 ff ff f0 	movl   $0x606e3ef0,-0x17c4(%rbp)
   13118:	3e 6e 60 
   1311b:	c7 85 40 e8 ff ff 00 	movl   $0x0,-0x17c0(%rbp)
   13122:	00 00 00 
   13125:	c7 85 44 e8 ff ff 00 	movl   $0x0,-0x17bc(%rbp)
   1312c:	00 00 00 
   1312f:	c7 85 48 e8 ff ff f0 	movl   $0x606e3ef0,-0x17b8(%rbp)
   13136:	3e 6e 60 
   13139:	c7 85 4c e8 ff ff 72 	movl   $0x84ec9872,-0x17b4(%rbp)
   13140:	98 ec 84 
   13143:	c7 85 50 e8 ff ff da 	movl   $0xfed21ada,-0x17b0(%rbp)
   1314a:	1a d2 fe 
   1314d:	c7 85 54 e8 ff ff f0 	movl   $0x606e3ef0,-0x17ac(%rbp)
   13154:	3e 6e 60 
   13157:	c7 85 58 e8 ff ff da 	movl   $0xfed21ada,-0x17a8(%rbp)
   1315e:	1a d2 fe 
   13161:	c7 85 5c e8 ff ff 72 	movl   $0x84ec9872,-0x17a4(%rbp)
   13168:	98 ec 84 
   1316b:	c7 85 60 e8 ff ff 35 	movl   $0xf0cf8135,-0x17a0(%rbp)
   13172:	81 cf f0 
   13175:	c7 85 64 e8 ff ff f0 	movl   $0x606e3ef0,-0x179c(%rbp)
   1317c:	3e 6e 60 
   1317f:	c7 85 68 e8 ff ff 01 	movl   $0x1,-0x1798(%rbp)
   13186:	00 00 00 
   13189:	c7 85 6c e8 ff ff f0 	movl   $0x606e3ef0,-0x1794(%rbp)
   13190:	3e 6e 60 
   13193:	c7 85 70 e8 ff ff 35 	movl   $0xf0cf8135,-0x1790(%rbp)
   1319a:	81 cf f0 
   1319d:	c7 85 74 e8 ff ff 01 	movl   $0x1,-0x178c(%rbp)
   131a4:	00 00 00 
   131a7:	c7 85 78 e8 ff ff ae 	movl   $0x40eaf7ae,-0x1788(%rbp)
   131ae:	f7 ea 40 
   131b1:	c7 85 7c e8 ff ff ae 	movl   $0x40eaf7ae,-0x1784(%rbp)
   131b8:	f7 ea 40 
   131bb:	c7 85 80 e8 ff ff 01 	movl   $0x1,-0x1780(%rbp)
   131c2:	00 00 00 
   131c5:	c7 85 84 e8 ff ff 35 	movl   $0xf0cf8135,-0x177c(%rbp)
   131cc:	81 cf f0 
   131cf:	48 8d 85 10 e8 ff ff 	lea    -0x17f0(%rbp),%rax
   131d6:	48 83 c0 48          	add    $0x48,%rax
   131da:	48 89 85 f0 e9 ff ff 	mov    %rax,-0x1610(%rbp)
   131e1:	48 c7 85 f8 e9 ff ff 	movq   $0x0,-0x1608(%rbp)
   131e8:	00 00 00 00 
   131ec:	48 c7 85 00 ea ff ff 	movq   $0x0,-0x1600(%rbp)
   131f3:	00 00 00 00 
   131f7:	48 c7 85 08 ea ff ff 	movq   $0x0,-0x15f8(%rbp)
   131fe:	00 00 00 00 
   13202:	48 8d 85 10 e8 ff ff 	lea    -0x17f0(%rbp),%rax
   13209:	48 83 c0 48          	add    $0x48,%rax
   1320d:	48 89 85 10 ea ff ff 	mov    %rax,-0x15f0(%rbp)
   13214:	48 8d 05 1d a4 00 00 	lea    0xa41d(%rip),%rax        # 1d638 <g_167>
   1321b:	48 89 85 18 ea ff ff 	mov    %rax,-0x15e8(%rbp)
   13222:	48 8d 85 10 e8 ff ff 	lea    -0x17f0(%rbp),%rax
   13229:	48 83 c0 3c          	add    $0x3c,%rax
   1322d:	48 89 85 20 ea ff ff 	mov    %rax,-0x15e0(%rbp)
   13234:	48 8d 85 10 e8 ff ff 	lea    -0x17f0(%rbp),%rax
   1323b:	48 83 c0 70          	add    $0x70,%rax
   1323f:	48 89 85 28 ea ff ff 	mov    %rax,-0x15d8(%rbp)
   13246:	48 8d 85 10 e8 ff ff 	lea    -0x17f0(%rbp),%rax
   1324d:	48 83 c0 70          	add    $0x70,%rax
   13251:	48 89 85 30 ea ff ff 	mov    %rax,-0x15d0(%rbp)
   13258:	48 8d 85 10 e8 ff ff 	lea    -0x17f0(%rbp),%rax
   1325f:	48 83 c0 3c          	add    $0x3c,%rax
   13263:	48 89 85 38 ea ff ff 	mov    %rax,-0x15c8(%rbp)
   1326a:	48 8d 05 c7 a3 00 00 	lea    0xa3c7(%rip),%rax        # 1d638 <g_167>
   13271:	48 89 85 40 ea ff ff 	mov    %rax,-0x15c0(%rbp)
   13278:	48 8d 85 10 e8 ff ff 	lea    -0x17f0(%rbp),%rax
   1327f:	48 83 c0 48          	add    $0x48,%rax
   13283:	48 89 85 48 ea ff ff 	mov    %rax,-0x15b8(%rbp)
   1328a:	48 c7 85 50 ea ff ff 	movq   $0x0,-0x15b0(%rbp)
   13291:	00 00 00 00 
   13295:	48 c7 85 58 ea ff ff 	movq   $0x0,-0x15a8(%rbp)
   1329c:	00 00 00 00 
   132a0:	48 c7 85 60 ea ff ff 	movq   $0x0,-0x15a0(%rbp)
   132a7:	00 00 00 00 
   132ab:	48 8d 85 10 e8 ff ff 	lea    -0x17f0(%rbp),%rax
   132b2:	48 83 c0 48          	add    $0x48,%rax
   132b6:	48 89 85 68 ea ff ff 	mov    %rax,-0x1598(%rbp)
   132bd:	48 8d 05 74 a3 00 00 	lea    0xa374(%rip),%rax        # 1d638 <g_167>
   132c4:	48 89 85 70 ea ff ff 	mov    %rax,-0x1590(%rbp)
   132cb:	48 8d 85 10 e8 ff ff 	lea    -0x17f0(%rbp),%rax
   132d2:	48 83 c0 3c          	add    $0x3c,%rax
   132d6:	48 89 85 78 ea ff ff 	mov    %rax,-0x1588(%rbp)
   132dd:	48 8d 85 10 e8 ff ff 	lea    -0x17f0(%rbp),%rax
   132e4:	48 83 c0 70          	add    $0x70,%rax
   132e8:	48 89 85 80 ea ff ff 	mov    %rax,-0x1580(%rbp)
   132ef:	48 8d 85 10 e8 ff ff 	lea    -0x17f0(%rbp),%rax
   132f6:	48 83 c0 70          	add    $0x70,%rax
   132fa:	48 89 85 88 ea ff ff 	mov    %rax,-0x1578(%rbp)
   13301:	48 8d 85 10 e8 ff ff 	lea    -0x17f0(%rbp),%rax
   13308:	48 83 c0 3c          	add    $0x3c,%rax
   1330c:	48 89 85 90 ea ff ff 	mov    %rax,-0x1570(%rbp)
   13313:	48 8d 05 1e a3 00 00 	lea    0xa31e(%rip),%rax        # 1d638 <g_167>
   1331a:	48 89 85 98 ea ff ff 	mov    %rax,-0x1568(%rbp)
   13321:	48 8d 85 10 e8 ff ff 	lea    -0x17f0(%rbp),%rax
   13328:	48 83 c0 48          	add    $0x48,%rax
   1332c:	48 89 85 a0 ea ff ff 	mov    %rax,-0x1560(%rbp)
   13333:	48 c7 85 a8 ea ff ff 	movq   $0x0,-0x1558(%rbp)
   1333a:	00 00 00 00 
   1333e:	48 c7 85 b0 ea ff ff 	movq   $0x0,-0x1550(%rbp)
   13345:	00 00 00 00 
   13349:	48 c7 85 b8 ea ff ff 	movq   $0x0,-0x1548(%rbp)
   13350:	00 00 00 00 
   13354:	48 8d 85 10 e8 ff ff 	lea    -0x17f0(%rbp),%rax
   1335b:	48 83 c0 48          	add    $0x48,%rax
   1335f:	48 89 85 c0 ea ff ff 	mov    %rax,-0x1540(%rbp)
   13366:	48 8d 05 cb a2 00 00 	lea    0xa2cb(%rip),%rax        # 1d638 <g_167>
   1336d:	48 89 85 c8 ea ff ff 	mov    %rax,-0x1538(%rbp)
   13374:	48 8d 85 10 e8 ff ff 	lea    -0x17f0(%rbp),%rax
   1337b:	48 83 c0 3c          	add    $0x3c,%rax
   1337f:	48 89 85 d0 ea ff ff 	mov    %rax,-0x1530(%rbp)
   13386:	48 8d 85 10 e8 ff ff 	lea    -0x17f0(%rbp),%rax
   1338d:	48 83 c0 70          	add    $0x70,%rax
   13391:	48 89 85 d8 ea ff ff 	mov    %rax,-0x1528(%rbp)
   13398:	48 8d 85 10 e8 ff ff 	lea    -0x17f0(%rbp),%rax
   1339f:	48 83 c0 70          	add    $0x70,%rax
   133a3:	48 89 85 e0 ea ff ff 	mov    %rax,-0x1520(%rbp)
   133aa:	48 8d 85 10 e8 ff ff 	lea    -0x17f0(%rbp),%rax
   133b1:	48 83 c0 3c          	add    $0x3c,%rax
   133b5:	48 89 85 e8 ea ff ff 	mov    %rax,-0x1518(%rbp)
   133bc:	48 8d 05 75 a2 00 00 	lea    0xa275(%rip),%rax        # 1d638 <g_167>
   133c3:	48 89 85 f0 ea ff ff 	mov    %rax,-0x1510(%rbp)
   133ca:	48 8d 85 10 e8 ff ff 	lea    -0x17f0(%rbp),%rax
   133d1:	48 83 c0 48          	add    $0x48,%rax
   133d5:	48 89 85 f8 ea ff ff 	mov    %rax,-0x1508(%rbp)
   133dc:	48 c7 85 00 eb ff ff 	movq   $0x0,-0x1500(%rbp)
   133e3:	00 00 00 00 
   133e7:	48 c7 85 08 eb ff ff 	movq   $0x0,-0x14f8(%rbp)
   133ee:	00 00 00 00 
   133f2:	48 c7 85 10 eb ff ff 	movq   $0x0,-0x14f0(%rbp)
   133f9:	00 00 00 00 
   133fd:	48 8d 85 10 e8 ff ff 	lea    -0x17f0(%rbp),%rax
   13404:	48 83 c0 48          	add    $0x48,%rax
   13408:	48 89 85 18 eb ff ff 	mov    %rax,-0x14e8(%rbp)
   1340f:	48 8d 05 22 a2 00 00 	lea    0xa222(%rip),%rax        # 1d638 <g_167>
   13416:	48 89 85 20 eb ff ff 	mov    %rax,-0x14e0(%rbp)
   1341d:	48 8d 85 10 e8 ff ff 	lea    -0x17f0(%rbp),%rax
   13424:	48 83 c0 3c          	add    $0x3c,%rax
   13428:	48 89 85 28 eb ff ff 	mov    %rax,-0x14d8(%rbp)
   1342f:	48 8d 85 10 e8 ff ff 	lea    -0x17f0(%rbp),%rax
   13436:	48 83 c0 70          	add    $0x70,%rax
   1343a:	48 89 85 30 eb ff ff 	mov    %rax,-0x14d0(%rbp)
   13441:	48 8d 85 10 e8 ff ff 	lea    -0x17f0(%rbp),%rax
   13448:	48 83 c0 70          	add    $0x70,%rax
   1344c:	48 89 85 38 eb ff ff 	mov    %rax,-0x14c8(%rbp)
   13453:	48 8d 85 10 e8 ff ff 	lea    -0x17f0(%rbp),%rax
   1345a:	48 83 c0 3c          	add    $0x3c,%rax
   1345e:	48 89 85 40 eb ff ff 	mov    %rax,-0x14c0(%rbp)
   13465:	48 8d 05 cc a1 00 00 	lea    0xa1cc(%rip),%rax        # 1d638 <g_167>
   1346c:	48 89 85 48 eb ff ff 	mov    %rax,-0x14b8(%rbp)
   13473:	48 8d 85 10 e8 ff ff 	lea    -0x17f0(%rbp),%rax
   1347a:	48 83 c0 48          	add    $0x48,%rax
   1347e:	48 89 85 50 eb ff ff 	mov    %rax,-0x14b0(%rbp)
   13485:	48 c7 85 58 eb ff ff 	movq   $0x0,-0x14a8(%rbp)
   1348c:	00 00 00 00 
   13490:	48 c7 85 60 eb ff ff 	movq   $0x0,-0x14a0(%rbp)
   13497:	00 00 00 00 
   1349b:	48 c7 85 68 eb ff ff 	movq   $0x0,-0x1498(%rbp)
   134a2:	00 00 00 00 
   134a6:	48 8d 05 b3 6d 00 00 	lea    0x6db3(%rip),%rax        # 1a260 <g_107+0x40>
   134ad:	48 89 85 e8 e5 ff ff 	mov    %rax,-0x1a18(%rbp)
   134b4:	0f b7 85 dc e4 ff ff 	movzwl -0x1b24(%rbp),%eax
   134bb:	0f bf d8             	movswl %ax,%ebx
   134be:	48 8b 85 78 e5 ff ff 	mov    -0x1a88(%rbp),%rax
   134c5:	44 0f be e0          	movsbl %al,%r12d
   134c9:	0f b7 85 dc e4 ff ff 	movzwl -0x1b24(%rbp),%eax
   134d0:	0f bf d0             	movswl %ax,%edx
   134d3:	0f b6 85 d8 e4 ff ff 	movzbl -0x1b28(%rbp),%eax
   134da:	66 98                	cbtw   
   134dc:	0f b7 c0             	movzwl %ax,%eax
   134df:	89 d6                	mov    %edx,%esi
   134e1:	89 c7                	mov    %eax,%edi
   134e3:	e8 1e 49 ff ff       	callq  7e06 <safe_lshift_func_uint16_t_u_u>
   134e8:	0f b7 c8             	movzwl %ax,%ecx
   134eb:	48 8b 95 70 e5 ff ff 	mov    -0x1a90(%rbp),%rdx
   134f2:	48 8b 85 d8 e5 ff ff 	mov    -0x1a28(%rbp),%rax
   134f9:	48 89 10             	mov    %rdx,(%rax)
   134fc:	48 8b 85 d8 e5 ff ff 	mov    -0x1a28(%rbp),%rax
   13503:	48 8b 10             	mov    (%rax),%rdx
   13506:	48 8b 05 9b 8c 00 00 	mov    0x8c9b(%rip),%rax        # 1c1a8 <g_189+0x368>
   1350d:	48 39 c2             	cmp    %rax,%rdx
   13510:	74 09                	je     1351b <func_73+0xf58>
   13512:	80 bd c8 e4 ff ff 00 	cmpb   $0x0,-0x1b38(%rbp)
   13519:	7f 07                	jg     13522 <func_73+0xf5f>
   1351b:	b8 01 00 00 00       	mov    $0x1,%eax
   13520:	eb 05                	jmp    13527 <func_73+0xf64>
   13522:	b8 00 00 00 00       	mov    $0x0,%eax
   13527:	39 c8                	cmp    %ecx,%eax
   13529:	48 8d 05 90 6b 00 00 	lea    0x6b90(%rip),%rax        # 1a0c0 <g_103+0x40>
   13530:	48 39 85 c0 e5 ff ff 	cmp    %rax,-0x1a40(%rbp)
   13537:	0f 94 c0             	sete   %al
   1353a:	0f b6 c0             	movzbl %al,%eax
   1353d:	44 89 e6             	mov    %r12d,%esi
   13540:	89 c7                	mov    %eax,%edi
   13542:	e8 ab 3c ff ff       	callq  71f2 <safe_sub_func_int8_t_s_s>
   13547:	48 83 bd c8 e5 ff ff 	cmpq   $0x0,-0x1a38(%rbp)
   1354e:	00 
   1354f:	48 8b 85 c0 e4 ff ff 	mov    -0x1b40(%rbp),%rax
   13556:	66 c7 00 01 00       	movw   $0x1,(%rax)
   1355b:	0f b7 85 7a e6 ff ff 	movzwl -0x1986(%rbp),%eax
   13562:	66 85 c0             	test   %ax,%ax
   13565:	0f 9e c0             	setle  %al
   13568:	0f b6 d0             	movzbl %al,%edx
   1356b:	0f bf 85 bc e4 ff ff 	movswl -0x1b44(%rbp),%eax
   13572:	31 d0                	xor    %edx,%eax
   13574:	89 85 58 e8 ff ff    	mov    %eax,-0x17a8(%rbp)
   1357a:	8b 95 58 e8 ff ff    	mov    -0x17a8(%rbp),%edx
   13580:	8b 05 b2 a0 00 00    	mov    0xa0b2(%rip),%eax        # 1d638 <g_167>
   13586:	39 c2                	cmp    %eax,%edx
   13588:	0f 9e c0             	setle  %al
   1358b:	0f b6 c0             	movzbl %al,%eax
   1358e:	be 06 00 00 00       	mov    $0x6,%esi
   13593:	89 c7                	mov    %eax,%edi
   13595:	e8 24 47 ff ff       	callq  7cbe <safe_rshift_func_uint8_t_u_u>
   1359a:	84 c0                	test   %al,%al
   1359c:	75 09                	jne    135a7 <func_73+0xfe4>
   1359e:	80 bd c8 e4 ff ff 00 	cmpb   $0x0,-0x1b38(%rbp)
   135a5:	74 07                	je     135ae <func_73+0xfeb>
   135a7:	b8 01 00 00 00       	mov    $0x1,%eax
   135ac:	eb 05                	jmp    135b3 <func_73+0xff0>
   135ae:	b8 00 00 00 00       	mov    $0x0,%eax
   135b3:	48 98                	cltq   
   135b5:	be 01 00 00 00       	mov    $0x1,%esi
   135ba:	48 89 c7             	mov    %rax,%rdi
   135bd:	e8 35 44 ff ff       	callq  79f7 <safe_div_func_int64_t_s_s>
   135c2:	0f b7 c0             	movzwl %ax,%eax
   135c5:	89 de                	mov    %ebx,%esi
   135c7:	89 c7                	mov    %eax,%edi
   135c9:	e8 ac 48 ff ff       	callq  7e7a <safe_rshift_func_uint16_t_u_u>
   135ce:	0f b7 d8             	movzwl %ax,%ebx
   135d1:	0f bf 85 bc e4 ff ff 	movswl -0x1b44(%rbp),%eax
   135d8:	89 c6                	mov    %eax,%esi
   135da:	bf 01 00 00 00       	mov    $0x1,%edi
   135df:	e8 11 3e ff ff       	callq  73f5 <safe_mul_func_int16_t_s_s>
   135e4:	0f b6 c0             	movzbl %al,%eax
   135e7:	89 de                	mov    %ebx,%esi
   135e9:	89 c7                	mov    %eax,%edi
   135eb:	e8 ce 46 ff ff       	callq  7cbe <safe_rshift_func_uint8_t_u_u>
   135f0:	0f b6 c0             	movzbl %al,%eax
   135f3:	48 8b 95 78 e5 ff ff 	mov    -0x1a88(%rbp),%rdx
   135fa:	31 c2                	xor    %eax,%edx
   135fc:	48 8b 05 1d 90 00 00 	mov    0x901d(%rip),%rax        # 1c620 <g_198>
   13603:	89 10                	mov    %edx,(%rax)
   13605:	8b 85 b0 e6 ff ff    	mov    -0x1950(%rbp),%eax
   1360b:	35 d9 8c b9 e2       	xor    $0xe2b98cd9,%eax
   13610:	89 85 b0 e6 ff ff    	mov    %eax,-0x1950(%rbp)
   13616:	8b 85 b0 e6 ff ff    	mov    -0x1950(%rbp),%eax
   1361c:	8b 95 e4 e4 ff ff    	mov    -0x1b1c(%rbp),%edx
   13622:	09 d0                	or     %edx,%eax
   13624:	89 85 e4 e4 ff ff    	mov    %eax,-0x1b1c(%rbp)
   1362a:	48 8d 85 d8 e4 ff ff 	lea    -0x1b28(%rbp),%rax
   13631:	48 89 85 f0 e5 ff ff 	mov    %rax,-0x1a10(%rbp)
   13638:	c7 85 a0 ed ff ff ed 	movl   $0x9cb02fed,-0x1260(%rbp)
   1363f:	2f b0 9c 
   13642:	c7 85 a4 ed ff ff ed 	movl   $0x9cb02fed,-0x125c(%rbp)
   13649:	2f b0 9c 
   1364c:	c7 85 a8 ed ff ff ed 	movl   $0x9cb02fed,-0x1258(%rbp)
   13653:	2f b0 9c 
   13656:	c7 85 ac ed ff ff f6 	movl   $0xfffffff6,-0x1254(%rbp)
   1365d:	ff ff ff 
   13660:	c7 85 b0 ed ff ff f6 	movl   $0xfffffff6,-0x1250(%rbp)
   13667:	ff ff ff 
   1366a:	c7 85 b4 ed ff ff f6 	movl   $0xfffffff6,-0x124c(%rbp)
   13671:	ff ff ff 
   13674:	66 81 bd de e4 ff ff 	cmpw   $0x4c7,-0x1b22(%rbp)
   1367b:	c7 04 
   1367d:	41 0f 95 c5          	setne  %r13b
   13681:	0f b6 85 81 e9 ff ff 	movzbl -0x167f(%rbp),%eax
   13688:	0f b6 d8             	movzbl %al,%ebx
   1368b:	44 8b a5 b0 e6 ff ff 	mov    -0x1950(%rbp),%r12d
   13692:	48 8b 05 47 6a 00 00 	mov    0x6a47(%rip),%rax        # 1a0e0 <g_103+0x60>
   13699:	0f be d0             	movsbl %al,%edx
   1369c:	0f b7 05 b7 69 00 00 	movzwl 0x69b7(%rip),%eax        # 1a05a <g_89>
   136a3:	89 c1                	mov    %eax,%ecx
   136a5:	48 8b 85 f0 e5 ff ff 	mov    -0x1a10(%rbp),%rax
   136ac:	88 08                	mov    %cl,(%rax)
   136ae:	48 8b 85 f0 e5 ff ff 	mov    -0x1a10(%rbp),%rax
   136b5:	0f b6 00             	movzbl (%rax),%eax
   136b8:	0f be c0             	movsbl %al,%eax
   136bb:	89 d6                	mov    %edx,%esi
   136bd:	89 c7                	mov    %eax,%edi
   136bf:	e8 4e 3b ff ff       	callq  7212 <safe_mul_func_int8_t_s_s>
   136c4:	84 c0                	test   %al,%al
   136c6:	75 09                	jne    136d1 <func_73+0x110e>
   136c8:	80 bd da e4 ff ff 00 	cmpb   $0x0,-0x1b26(%rbp)
   136cf:	74 07                	je     136d8 <func_73+0x1115>
   136d1:	b8 01 00 00 00       	mov    $0x1,%eax
   136d6:	eb 05                	jmp    136dd <func_73+0x111a>
   136d8:	b8 00 00 00 00       	mov    $0x0,%eax
   136dd:	41 39 c4             	cmp    %eax,%r12d
   136e0:	8b 85 e4 e4 ff ff    	mov    -0x1b1c(%rbp),%eax
   136e6:	25 85 b9 40 db       	and    $0xdb40b985,%eax
   136eb:	89 85 e4 e4 ff ff    	mov    %eax,-0x1b1c(%rbp)
   136f1:	0f b6 05 60 69 00 00 	movzbl 0x6960(%rip),%eax        # 1a058 <g_71>
   136f8:	84 c0                	test   %al,%al
   136fa:	0f 95 c0             	setne  %al
   136fd:	0f b6 c0             	movzbl %al,%eax
   13700:	89 de                	mov    %ebx,%esi
   13702:	89 c7                	mov    %eax,%edi
   13704:	e8 fd 46 ff ff       	callq  7e06 <safe_lshift_func_uint16_t_u_u>
   13709:	66 85 c0             	test   %ax,%ax
   1370c:	74 11                	je     1371f <func_73+0x115c>
   1370e:	66 83 bd e0 e4 ff ff 	cmpw   $0x0,-0x1b20(%rbp)
   13715:	00 
   13716:	74 07                	je     1371f <func_73+0x115c>
   13718:	b8 01 00 00 00       	mov    $0x1,%eax
   1371d:	eb 05                	jmp    13724 <func_73+0x1161>
   1371f:	b8 00 00 00 00       	mov    $0x0,%eax
   13724:	83 e0 01             	and    $0x1,%eax
   13727:	44 21 e8             	and    %r13d,%eax
   1372a:	0f b6 c0             	movzbl %al,%eax
   1372d:	89 85 b4 ed ff ff    	mov    %eax,-0x124c(%rbp)
   13733:	8b 95 b4 ed ff ff    	mov    -0x124c(%rbp),%edx
   13739:	0f b6 85 cc e4 ff ff 	movzbl -0x1b34(%rbp),%eax
   13740:	0f b6 c0             	movzbl %al,%eax
   13743:	31 d0                	xor    %edx,%eax
   13745:	89 85 b4 ed ff ff    	mov    %eax,-0x124c(%rbp)
   1374b:	c7 85 fc e4 ff ff 09 	movl   $0x9,-0x1b04(%rbp)
   13752:	00 00 00 
   13755:	e9 0d 05 00 00       	jmpq   13c67 <func_73+0x16a4>
   1375a:	48 8d 85 dc e4 ff ff 	lea    -0x1b24(%rbp),%rax
   13761:	48 89 85 88 e5 ff ff 	mov    %rax,-0x1a78(%rbp)
   13768:	48 c7 85 f8 e5 ff ff 	movq   $0x1,-0x1a08(%rbp)
   1376f:	01 00 00 00 
   13773:	c7 85 34 e5 ff ff fa 	movl   $0xfffffffa,-0x1acc(%rbp)
   1377a:	ff ff ff 
   1377d:	48 c7 85 00 e6 ff ff 	movq   $0xfffffffffffffff9,-0x1a00(%rbp)
   13784:	f9 ff ff ff 
   13788:	48 c7 85 08 e6 ff ff 	movq   $0x1,-0x19f8(%rbp)
   1378f:	01 00 00 00 
   13793:	48 8d 85 ec e4 ff ff 	lea    -0x1b14(%rbp),%rax
   1379a:	48 89 85 10 e6 ff ff 	mov    %rax,-0x19f0(%rbp)
   137a1:	c7 85 f4 e4 ff ff 7d 	movl   $0xcbeac97d,-0x1b0c(%rbp)
   137a8:	c9 ea cb 
   137ab:	c7 85 38 e5 ff ff 97 	movl   $0x6dae3b97,-0x1ac8(%rbp)
   137b2:	3b ae 6d 
   137b5:	c7 85 3c e5 ff ff f2 	movl   $0x51bd0bf2,-0x1ac4(%rbp)
   137bc:	0b bd 51 
   137bf:	48 b8 b2 a2 09 48 8e 	movabs $0x44d20f8e4809a2b2,%rax
   137c6:	0f d2 44 
   137c9:	48 89 85 18 e6 ff ff 	mov    %rax,-0x19e8(%rbp)
   137d0:	48 8d 85 a0 ed ff ff 	lea    -0x1260(%rbp),%rax
   137d7:	48 8d 15 e2 33 00 00 	lea    0x33e2(%rip),%rdx        # 16bc0 <g_1245+0x1b20>
   137de:	b9 70 00 00 00       	mov    $0x70,%ecx
   137e3:	48 89 c7             	mov    %rax,%rdi
   137e6:	48 89 d6             	mov    %rdx,%rsi
   137e9:	f3 48 a5             	rep movsq %ds:(%rsi),%es:(%rdi)
   137ec:	48 89 f2             	mov    %rsi,%rdx
   137ef:	48 89 f8             	mov    %rdi,%rax
   137f2:	8b 0a                	mov    (%rdx),%ecx
   137f4:	89 08                	mov    %ecx,(%rax)
   137f6:	48 8d 85 d8 e4 ff ff 	lea    -0x1b28(%rbp),%rax
   137fd:	48 89 85 20 e6 ff ff 	mov    %rax,-0x19e0(%rbp)
   13804:	48 8b 85 88 e5 ff ff 	mov    -0x1a78(%rbp),%rax
   1380b:	66 c7 00 ee 42       	movw   $0x42ee,(%rax)
   13810:	81 bd 28 e5 ff ff ed 	cmpl   $0x42ed,-0x1ad8(%rbp)
   13817:	42 00 00 
   1381a:	0f 9f c0             	setg   %al
   1381d:	0f b6 d0             	movzbl %al,%edx
   13820:	8b 85 94 e6 ff ff    	mov    -0x196c(%rbp),%eax
   13826:	89 85 e4 e4 ff ff    	mov    %eax,-0x1b1c(%rbp)
   1382c:	8b 85 e4 e4 ff ff    	mov    -0x1b1c(%rbp),%eax
   13832:	39 c2                	cmp    %eax,%edx
   13834:	0f 9e c0             	setle  %al
   13837:	0f b6 d0             	movzbl %al,%edx
   1383a:	8b 85 fc e4 ff ff    	mov    -0x1b04(%rbp),%eax
   13840:	48 98                	cltq   
   13842:	89 94 85 d0 e6 ff ff 	mov    %edx,-0x1930(%rbp,%rax,4)
   13849:	66 83 bd de e4 ff ff 	cmpw   $0x0,-0x1b22(%rbp)
   13850:	00 
   13851:	0f 84 e7 02 00 00    	je     13b3e <func_73+0x157b>
   13857:	48 8d 85 78 e5 ff ff 	lea    -0x1a88(%rbp),%rax
   1385e:	48 89 85 28 e6 ff ff 	mov    %rax,-0x19d8(%rbp)
   13865:	c7 85 40 e5 ff ff 34 	movl   $0x23cbaf34,-0x1ac0(%rbp)
   1386c:	af cb 23 
   1386f:	c7 85 44 e5 ff ff ff 	movl   $0xffffffff,-0x1abc(%rbp)
   13876:	ff ff ff 
   13879:	c7 85 48 e5 ff ff 9d 	movl   $0x439d849d,-0x1ab8(%rbp)
   13880:	84 9d 43 
   13883:	c7 85 80 e7 ff ff 7b 	movl   $0x78fb5f7b,-0x1880(%rbp)
   1388a:	5f fb 78 
   1388d:	c7 85 84 e7 ff ff 7b 	movl   $0x78fb5f7b,-0x187c(%rbp)
   13894:	5f fb 78 
   13897:	c7 85 88 e7 ff ff 13 	movl   $0x407bed13,-0x1878(%rbp)
   1389e:	ed 7b 40 
   138a1:	c7 85 8c e7 ff ff 7b 	movl   $0x78fb5f7b,-0x1874(%rbp)
   138a8:	5f fb 78 
   138ab:	c7 85 90 e7 ff ff 7b 	movl   $0x78fb5f7b,-0x1870(%rbp)
   138b2:	5f fb 78 
   138b5:	c7 85 94 e7 ff ff 13 	movl   $0x407bed13,-0x186c(%rbp)
   138bc:	ed 7b 40 
   138bf:	c7 85 98 e7 ff ff 7b 	movl   $0x78fb5f7b,-0x1868(%rbp)
   138c6:	5f fb 78 
   138c9:	c7 85 9c e7 ff ff 7b 	movl   $0x78fb5f7b,-0x1864(%rbp)
   138d0:	5f fb 78 
   138d3:	c7 85 a0 e7 ff ff 13 	movl   $0x407bed13,-0x1860(%rbp)
   138da:	ed 7b 40 
   138dd:	c7 85 a4 e7 ff ff 7b 	movl   $0x78fb5f7b,-0x185c(%rbp)
   138e4:	5f fb 78 
   138e7:	c7 85 a8 e7 ff ff 7b 	movl   $0x78fb5f7b,-0x1858(%rbp)
   138ee:	5f fb 78 
   138f1:	c7 85 ac e7 ff ff 13 	movl   $0x407bed13,-0x1854(%rbp)
   138f8:	ed 7b 40 
   138fb:	c7 85 b0 e7 ff ff 7b 	movl   $0x78fb5f7b,-0x1850(%rbp)
   13902:	5f fb 78 
   13905:	c7 85 b4 e7 ff ff 7b 	movl   $0x78fb5f7b,-0x184c(%rbp)
   1390c:	5f fb 78 
   1390f:	c7 85 b8 e7 ff ff 13 	movl   $0x407bed13,-0x1848(%rbp)
   13916:	ed 7b 40 
   13919:	c7 85 bc e7 ff ff 7b 	movl   $0x78fb5f7b,-0x1844(%rbp)
   13920:	5f fb 78 
   13923:	48 8d 85 f0 e9 ff ff 	lea    -0x1610(%rbp),%rax
   1392a:	48 05 50 01 00 00    	add    $0x150,%rax
   13930:	48 89 85 30 e6 ff ff 	mov    %rax,-0x19d0(%rbp)
   13937:	48 8d 85 f0 e4 ff ff 	lea    -0x1b10(%rbp),%rax
   1393e:	48 89 85 38 e6 ff ff 	mov    %rax,-0x19c8(%rbp)
   13945:	c7 85 0c e5 ff ff 00 	movl   $0x0,-0x1af4(%rbp)
   1394c:	00 00 00 
   1394f:	eb 1b                	jmp    1396c <func_73+0x13a9>
   13951:	8b 85 0c e5 ff ff    	mov    -0x1af4(%rbp),%eax
   13957:	48 98                	cltq   
   13959:	48 c7 84 c5 40 e7 ff 	movq   $0x0,-0x18c0(%rbp,%rax,8)
   13960:	ff 00 00 00 00 
   13965:	83 85 0c e5 ff ff 01 	addl   $0x1,-0x1af4(%rbp)
   1396c:	83 bd 0c e5 ff ff 06 	cmpl   $0x6,-0x1af4(%rbp)
   13973:	7e dc                	jle    13951 <func_73+0x138e>
   13975:	44 0f b6 a5 da e4 ff 	movzbl -0x1b26(%rbp),%r12d
   1397c:	ff 
   1397d:	48 8b 05 b4 68 00 00 	mov    0x68b4(%rip),%rax        # 1a238 <g_107+0x18>
   13984:	89 85 b8 e4 ff ff    	mov    %eax,-0x1b48(%rbp)
   1398a:	0f b6 85 cc e4 ff ff 	movzbl -0x1b34(%rbp),%eax
   13991:	44 0f b6 e8          	movzbl %al,%r13d
   13995:	0f b6 85 cc e4 ff ff 	movzbl -0x1b34(%rbp),%eax
   1399c:	83 c8 01             	or     $0x1,%eax
   1399f:	0f b6 c0             	movzbl %al,%eax
   139a2:	48 89 85 a8 e4 ff ff 	mov    %rax,-0x1b58(%rbp)
   139a9:	8b 05 b1 66 00 00    	mov    0x66b1(%rip),%eax        # 1a060 <g_94>
   139af:	44 0f bf f0          	movswl %ax,%r14d
   139b3:	8b 85 40 e5 ff ff    	mov    -0x1ac0(%rbp),%eax
   139b9:	48 63 d8             	movslq %eax,%rbx
   139bc:	44 8b bd 40 e5 ff ff 	mov    -0x1ac0(%rbp),%r15d
   139c3:	8b 05 6b 9c 00 00    	mov    0x9c6b(%rip),%eax        # 1d634 <g_139>
   139c9:	89 c1                	mov    %eax,%ecx
   139cb:	48 89 8d a0 e4 ff ff 	mov    %rcx,-0x1b60(%rbp)
   139d2:	0f b7 05 ab 68 00 00 	movzwl 0x68ab(%rip),%eax        # 1a284 <g_310>
   139d9:	0f b7 c0             	movzwl %ax,%eax
   139dc:	48 8b 95 00 e6 ff ff 	mov    -0x1a00(%rbp),%rdx
   139e3:	89 95 18 e5 ff ff    	mov    %edx,-0x1ae8(%rbp)
   139e9:	89 c6                	mov    %eax,%esi
   139eb:	bf 00 00 00 00       	mov    $0x0,%edi
   139f0:	e8 0a 43 ff ff       	callq  7cff <safe_add_func_uint16_t_u_u>
   139f5:	0f b7 d0             	movzwl %ax,%edx
   139f8:	48 8b 85 28 e6 ff ff 	mov    -0x19d8(%rbp),%rax
   139ff:	48 89 10             	mov    %rdx,(%rax)
   13a02:	48 8b 85 28 e6 ff ff 	mov    -0x19d8(%rbp),%rax
   13a09:	48 8b 00             	mov    (%rax),%rax
   13a0c:	48 8b b5 a0 e4 ff ff 	mov    -0x1b60(%rbp),%rsi
   13a13:	48 89 c7             	mov    %rax,%rdi
   13a16:	e8 65 46 ff ff       	callq  8080 <safe_mod_func_uint64_t_u_u>
   13a1b:	48 85 c0             	test   %rax,%rax
   13a1e:	0f be 85 c8 e4 ff ff 	movsbl -0x1b38(%rbp),%eax
   13a25:	44 89 fe             	mov    %r15d,%esi
   13a28:	89 c7                	mov    %eax,%edi
   13a2a:	e8 34 3b ff ff       	callq  7563 <safe_rshift_func_int16_t_s_u>
   13a2f:	be 01 00 00 00       	mov    $0x1,%esi
   13a34:	bf 01 00 00 00       	mov    $0x1,%edi
   13a39:	e8 e7 44 ff ff       	callq  7f25 <safe_div_func_uint32_t_u_u>
   13a3e:	89 c0                	mov    %eax,%eax
   13a40:	48 89 de             	mov    %rbx,%rsi
   13a43:	48 89 c7             	mov    %rax,%rdi
   13a46:	e8 ac 3f ff ff       	callq  79f7 <safe_div_func_int64_t_s_s>
   13a4b:	89 c2                	mov    %eax,%edx
   13a4d:	0f be 85 c8 e4 ff ff 	movsbl -0x1b38(%rbp),%eax
   13a54:	31 c2                	xor    %eax,%edx
   13a56:	0f b7 05 ff 65 00 00 	movzwl 0x65ff(%rip),%eax        # 1a05c <g_92>
   13a5d:	98                   	cwtl   
   13a5e:	48 8b 9d 88 e5 ff ff 	mov    -0x1a78(%rbp),%rbx
   13a65:	89 d6                	mov    %edx,%esi
   13a67:	89 c7                	mov    %eax,%edi
   13a69:	e8 bc 3a ff ff       	callq  752a <safe_rshift_func_int16_t_s_s>
   13a6e:	66 89 03             	mov    %ax,(%rbx)
   13a71:	0f b7 03             	movzwl (%rbx),%eax
   13a74:	98                   	cwtl   
   13a75:	44 89 f6             	mov    %r14d,%esi
   13a78:	89 c7                	mov    %eax,%edi
   13a7a:	e8 d6 39 ff ff       	callq  7455 <safe_div_func_int16_t_s_s>
   13a7f:	48 0f bf c0          	movswq %ax,%rax
   13a83:	48 39 85 a8 e4 ff ff 	cmp    %rax,-0x1b58(%rbp)
   13a8a:	0f 94 c0             	sete   %al
   13a8d:	0f b6 c0             	movzbl %al,%eax
   13a90:	44 89 ee             	mov    %r13d,%esi
   13a93:	89 c7                	mov    %eax,%edi
   13a95:	e8 f9 40 ff ff       	callq  7b93 <safe_mul_func_uint8_t_u_u>
   13a9a:	0f b6 c0             	movzbl %al,%eax
   13a9d:	48 c7 c6 f8 ff ff ff 	mov    $0xfffffffffffffff8,%rsi
   13aa4:	48 89 c7             	mov    %rax,%rdi
   13aa7:	e8 95 3d ff ff       	callq  7841 <safe_add_func_int64_t_s_s>
   13aac:	48 8b 85 00 e6 ff ff 	mov    -0x1a00(%rbp),%rax
   13ab3:	48 89 85 08 e6 ff ff 	mov    %rax,-0x19f8(%rbp)
   13aba:	48 8b 85 08 e6 ff ff 	mov    -0x19f8(%rbp),%rax
   13ac1:	be 01 00 00 00       	mov    $0x1,%esi
   13ac6:	48 89 c7             	mov    %rax,%rdi
   13ac9:	e8 e1 45 ff ff       	callq  80af <safe_div_func_uint64_t_u_u>
   13ace:	98                   	cwtl   
   13acf:	8b b5 b8 e4 ff ff    	mov    -0x1b48(%rbp),%esi
   13ad5:	89 c7                	mov    %eax,%edi
   13ad7:	e8 b6 39 ff ff       	callq  7492 <safe_lshift_func_int16_t_s_s>
   13adc:	89 c2                	mov    %eax,%edx
   13ade:	48 8b 85 58 e5 ff ff 	mov    -0x1aa8(%rbp),%rax
   13ae5:	0f bf d2             	movswl %dx,%edx
   13ae8:	89 10                	mov    %edx,(%rax)
   13aea:	8b 00                	mov    (%rax),%eax
   13aec:	44 89 e6             	mov    %r12d,%esi
   13aef:	89 c7                	mov    %eax,%edi
   13af1:	e8 da 43 ff ff       	callq  7ed0 <safe_sub_func_uint32_t_u_u>
   13af6:	48 c7 85 10 e6 ff ff 	movq   $0x0,-0x19f0(%rbp)
   13afd:	00 00 00 00 
   13b01:	66 83 85 e2 e4 ff ff 	addw   $0x1,-0x1b1e(%rbp)
   13b08:	01 
   13b09:	48 8b 05 10 8b 00 00 	mov    0x8b10(%rip),%rax        # 1c620 <g_198>
   13b10:	8b 10                	mov    (%rax),%edx
   13b12:	81 ca 70 da 4a 68    	or     $0x684ada70,%edx
   13b18:	89 10                	mov    %edx,(%rax)
   13b1a:	48 8b 85 30 e6 ff ff 	mov    -0x19d0(%rbp),%rax
   13b21:	48 8d 95 e8 e4 ff ff 	lea    -0x1b18(%rbp),%rdx
   13b28:	48 89 10             	mov    %rdx,(%rax)
   13b2b:	48 8b 85 30 e6 ff ff 	mov    -0x19d0(%rbp),%rax
   13b32:	48 8b 00             	mov    (%rax),%rax
   13b35:	48 89 85 38 e6 ff ff 	mov    %rax,-0x19c8(%rbp)
   13b3c:	eb 0d                	jmp    13b4b <func_73+0x1588>
   13b3e:	80 bd c8 e4 ff ff 00 	cmpb   $0x0,-0x1b38(%rbp)
   13b45:	0f 85 2b 01 00 00    	jne    13c76 <func_73+0x16b3>
   13b4b:	0f b6 85 cc e4 ff ff 	movzbl -0x1b34(%rbp),%eax
   13b52:	0f be d0             	movsbl %al,%edx
   13b55:	48 8b 85 20 e6 ff ff 	mov    -0x19e0(%rbp),%rax
   13b5c:	0f b6 00             	movzbl (%rax),%eax
   13b5f:	83 e0 fa             	and    $0xfffffffa,%eax
   13b62:	89 c1                	mov    %eax,%ecx
   13b64:	48 8b 85 20 e6 ff ff 	mov    -0x19e0(%rbp),%rax
   13b6b:	88 08                	mov    %cl,(%rax)
   13b6d:	48 8b 85 20 e6 ff ff 	mov    -0x19e0(%rbp),%rax
   13b74:	0f b6 00             	movzbl (%rax),%eax
   13b77:	3c 08                	cmp    $0x8,%al
   13b79:	0f 94 c0             	sete   %al
   13b7c:	0f b6 c0             	movzbl %al,%eax
   13b7f:	89 d6                	mov    %edx,%esi
   13b81:	89 c7                	mov    %eax,%edi
   13b83:	e8 e2 36 ff ff       	callq  726a <safe_div_func_int8_t_s_s>
   13b88:	0f be d0             	movsbl %al,%edx
   13b8b:	8b 85 e4 e4 ff ff    	mov    -0x1b1c(%rbp),%eax
   13b91:	21 d0                	and    %edx,%eax
   13b93:	89 85 e4 e4 ff ff    	mov    %eax,-0x1b1c(%rbp)
   13b99:	8b 85 e4 e4 ff ff    	mov    -0x1b1c(%rbp),%eax
   13b9f:	85 c0                	test   %eax,%eax
   13ba1:	74 24                	je     13bc7 <func_73+0x1604>
   13ba3:	48 8d 05 7e 9a 00 00 	lea    0x9a7e(%rip),%rax        # 1d628 <g_101>
   13baa:	48 89 85 58 e6 ff ff 	mov    %rax,-0x19a8(%rbp)
   13bb1:	48 8b 85 58 e6 ff ff 	mov    -0x19a8(%rbp),%rax
   13bb8:	48 8b 95 b0 e4 ff ff 	mov    -0x1b50(%rbp),%rdx
   13bbf:	48 89 10             	mov    %rdx,(%rax)
   13bc2:	e9 99 00 00 00       	jmpq   13c60 <func_73+0x169d>
   13bc7:	48 c7 85 40 e6 ff ff 	movq   $0x0,-0x19c0(%rbp)
   13bce:	00 00 00 00 
   13bd2:	48 8d 85 80 e7 ff ff 	lea    -0x1880(%rbp),%rax
   13bd9:	48 83 c0 08          	add    $0x8,%rax
   13bdd:	48 89 85 48 e6 ff ff 	mov    %rax,-0x19b8(%rbp)
   13be4:	48 c7 85 50 e6 ff ff 	movq   $0x0,-0x19b0(%rbp)
   13beb:	00 00 00 00 
   13bef:	c7 85 10 e5 ff ff 00 	movl   $0x0,-0x1af0(%rbp)
   13bf6:	00 00 00 
   13bf9:	eb 1e                	jmp    13c19 <func_73+0x1656>
   13bfb:	8b 85 10 e5 ff ff    	mov    -0x1af0(%rbp),%eax
   13c01:	48 98                	cltq   
   13c03:	48 8d 95 88 e5 ff ff 	lea    -0x1a78(%rbp),%rdx
   13c0a:	48 89 94 c5 80 e7 ff 	mov    %rdx,-0x1880(%rbp,%rax,8)
   13c11:	ff 
   13c12:	83 85 10 e5 ff ff 01 	addl   $0x1,-0x1af0(%rbp)
   13c19:	83 bd 10 e5 ff ff 04 	cmpl   $0x4,-0x1af0(%rbp)
   13c20:	7e d9                	jle    13bfb <func_73+0x1638>
   13c22:	48 8b 95 a0 e7 ff ff 	mov    -0x1860(%rbp),%rdx
   13c29:	48 8b 85 48 e6 ff ff 	mov    -0x19b8(%rbp),%rax
   13c30:	48 89 10             	mov    %rdx,(%rax)
   13c33:	48 8b 05 ee 89 00 00 	mov    0x89ee(%rip),%rax        # 1c628 <g_366>
   13c3a:	48 8d 95 f4 e4 ff ff 	lea    -0x1b0c(%rbp),%rdx
   13c41:	48 89 10             	mov    %rdx,(%rax)
   13c44:	48 8b 05 dd 99 00 00 	mov    0x99dd(%rip),%rax        # 1d628 <g_101>
   13c4b:	c7 00 c9 dc fc ca    	movl   $0xcafcdcc9,(%rax)
   13c51:	8b 08                	mov    (%rax),%ecx
   13c53:	48 8b 05 ce 81 00 00 	mov    0x81ce(%rip),%rax        # 1be28 <g_166>
   13c5a:	8b 10                	mov    (%rax),%edx
   13c5c:	09 ca                	or     %ecx,%edx
   13c5e:	89 10                	mov    %edx,(%rax)
   13c60:	83 ad fc e4 ff ff 01 	subl   $0x1,-0x1b04(%rbp)
   13c67:	83 bd fc e4 ff ff 02 	cmpl   $0x2,-0x1b04(%rbp)
   13c6e:	0f 8f e6 fa ff ff    	jg     1375a <func_73+0x1197>
   13c74:	eb 01                	jmp    13c77 <func_73+0x16b4>
   13c76:	90                   	nop
   13c77:	0f b6 05 92 65 00 00 	movzbl 0x6592(%rip),%eax        # 1a210 <g_105>
   13c7e:	83 c0 01             	add    $0x1,%eax
   13c81:	88 05 89 65 00 00    	mov    %al,0x6589(%rip)        # 1a210 <g_105>
   13c87:	0f b6 05 82 65 00 00 	movzbl 0x6582(%rip),%eax        # 1a210 <g_105>
   13c8e:	3c 08                	cmp    $0x8,%al
   13c90:	0f 8f d8 f3 ff ff    	jg     1306e <func_73+0xaab>
   13c96:	48 8b 85 c0 e4 ff ff 	mov    -0x1b40(%rbp),%rax
   13c9d:	0f b7 00             	movzwl (%rax),%eax
   13ca0:	0f b7 d8             	movzwl %ax,%ebx
   13ca3:	48 8b 05 76 89 00 00 	mov    0x8976(%rip),%rax        # 1c620 <g_198>
   13caa:	48 8b 85 d0 e5 ff ff 	mov    -0x1a30(%rbp),%rax
   13cb1:	48 c7 00 00 00 00 00 	movq   $0x0,(%rax)
   13cb8:	48 8b 05 e9 64 00 00 	mov    0x64e9(%rip),%rax        # 1a1a8 <g_103+0x128>
   13cbf:	0f be d0             	movsbl %al,%edx
   13cc2:	83 bd 2c e5 ff ff 00 	cmpl   $0x0,-0x1ad4(%rbp)
   13cc9:	0f 95 c0             	setne  %al
   13ccc:	0f b6 c8             	movzbl %al,%ecx
   13ccf:	8b 85 e4 e4 ff ff    	mov    -0x1b1c(%rbp),%eax
   13cd5:	39 c1                	cmp    %eax,%ecx
   13cd7:	0f 9f c0             	setg   %al
   13cda:	89 c1                	mov    %eax,%ecx
   13cdc:	0f b6 85 cc e4 ff ff 	movzbl -0x1b34(%rbp),%eax
   13ce3:	31 c8                	xor    %ecx,%eax
   13ce5:	0f be c0             	movsbl %al,%eax
   13ce8:	89 d6                	mov    %edx,%esi
   13cea:	89 c7                	mov    %eax,%edi
   13cec:	e8 79 35 ff ff       	callq  726a <safe_div_func_int8_t_s_s>
   13cf1:	0f b6 85 cc e4 ff ff 	movzbl -0x1b34(%rbp),%eax
   13cf8:	84 c0                	test   %al,%al
   13cfa:	0f 94 c0             	sete   %al
   13cfd:	0f b6 c0             	movzbl %al,%eax
   13d00:	89 de                	mov    %ebx,%esi
   13d02:	89 c7                	mov    %eax,%edi
   13d04:	e8 fd 40 ff ff       	callq  7e06 <safe_lshift_func_uint16_t_u_u>
   13d09:	48 83 bd c0 e5 ff ff 	cmpq   $0x0,-0x1a40(%rbp)
   13d10:	00 
   13d11:	0f 95 c0             	setne  %al
   13d14:	0f b6 d0             	movzbl %al,%edx
   13d17:	8b 05 17 99 00 00    	mov    0x9917(%rip),%eax        # 1d634 <g_139>
   13d1d:	83 c8 fe             	or     $0xfffffffe,%eax
   13d20:	0f be c0             	movsbl %al,%eax
   13d23:	89 d6                	mov    %edx,%esi
   13d25:	89 c7                	mov    %eax,%edi
   13d27:	e8 e6 34 ff ff       	callq  7212 <safe_mul_func_int8_t_s_s>
   13d2c:	89 c2                	mov    %eax,%edx
   13d2e:	48 8b 05 fb 88 00 00 	mov    0x88fb(%rip),%rax        # 1c630 <g_377>
   13d35:	0f be d2             	movsbl %dl,%edx
   13d38:	89 10                	mov    %edx,(%rax)
   13d3a:	0f b7 05 19 63 00 00 	movzwl 0x6319(%rip),%eax        # 1a05a <g_89>
   13d41:	0f b7 c0             	movzwl %ax,%eax
   13d44:	be 02 00 00 00       	mov    $0x2,%esi
   13d49:	48 89 c7             	mov    %rax,%rdi
   13d4c:	e8 dd 42 ff ff       	callq  802e <safe_add_func_uint64_t_u_u>
   13d51:	66 89 05 02 63 00 00 	mov    %ax,0x6302(%rip)        # 1a05a <g_89>
   13d58:	0f b7 05 fb 62 00 00 	movzwl 0x62fb(%rip),%eax        # 1a05a <g_89>
   13d5f:	66 83 f8 0e          	cmp    $0xe,%ax
   13d63:	0f 84 a5 f0 ff ff    	je     12e0e <func_73+0x84b>
   13d69:	e9 e8 03 00 00       	jmpq   14156 <func_73+0x1b93>
   13d6e:	c7 85 a0 ed ff ff f0 	movl   $0x692d28f0,-0x1260(%rbp)
   13d75:	28 2d 69 
   13d78:	c7 85 a4 ed ff ff 06 	movl   $0x6,-0x125c(%rbp)
   13d7f:	00 00 00 
   13d82:	c7 85 a8 ed ff ff 38 	movl   $0x7f16b938,-0x1258(%rbp)
   13d89:	b9 16 7f 
   13d8c:	c7 85 ac ed ff ff 09 	movl   $0x9,-0x1254(%rbp)
   13d93:	00 00 00 
   13d96:	c7 85 b0 ed ff ff 38 	movl   $0x7f16b938,-0x1250(%rbp)
   13d9d:	b9 16 7f 
   13da0:	c7 85 b4 ed ff ff 06 	movl   $0x6,-0x124c(%rbp)
   13da7:	00 00 00 
   13daa:	c7 85 b8 ed ff ff f0 	movl   $0x692d28f0,-0x1248(%rbp)
   13db1:	28 2d 69 
   13db4:	c7 85 bc ed ff ff f0 	movl   $0x692d28f0,-0x1244(%rbp)
   13dbb:	28 2d 69 
   13dbe:	c7 85 c0 ed ff ff 06 	movl   $0x6,-0x1240(%rbp)
   13dc5:	00 00 00 
   13dc8:	c7 85 c4 ed ff ff 09 	movl   $0x9,-0x123c(%rbp)
   13dcf:	00 00 00 
   13dd2:	c7 85 c8 ed ff ff 1b 	movl   $0x7ac6931b,-0x1238(%rbp)
   13dd9:	93 c6 7a 
   13ddc:	c7 85 cc ed ff ff 1b 	movl   $0x7ac6931b,-0x1234(%rbp)
   13de3:	93 c6 7a 
   13de6:	c7 85 d0 ed ff ff 09 	movl   $0x9,-0x1230(%rbp)
   13ded:	00 00 00 
   13df0:	c7 85 d4 ed ff ff 06 	movl   $0x6,-0x122c(%rbp)
   13df7:	00 00 00 
   13dfa:	c7 85 d8 ed ff ff ff 	movl   $0xffffffff,-0x1228(%rbp)
   13e01:	ff ff ff 
   13e04:	c7 85 dc ed ff ff 06 	movl   $0x6,-0x1224(%rbp)
   13e0b:	00 00 00 
   13e0e:	48 c7 85 a0 e5 ff ff 	movq   $0x0,-0x1a60(%rbp)
   13e15:	00 00 00 00 
   13e19:	48 8d 85 c0 e7 ff ff 	lea    -0x1840(%rbp),%rax
   13e20:	48 89 85 a8 e5 ff ff 	mov    %rax,-0x1a58(%rbp)
   13e27:	48 c7 85 30 f1 ff ff 	movq   $0x0,-0xed0(%rbp)
   13e2e:	00 00 00 00 
   13e32:	48 8d 05 d7 7e 00 00 	lea    0x7ed7(%rip),%rax        # 1bd10 <g_70+0x10>
   13e39:	48 89 85 38 f1 ff ff 	mov    %rax,-0xec8(%rbp)
   13e40:	48 c7 85 40 f1 ff ff 	movq   $0x0,-0xec0(%rbp)
   13e47:	00 00 00 00 
   13e4b:	48 c7 85 48 f1 ff ff 	movq   $0x0,-0xeb8(%rbp)
   13e52:	00 00 00 00 
   13e56:	48 8d 05 b3 7e 00 00 	lea    0x7eb3(%rip),%rax        # 1bd10 <g_70+0x10>
   13e5d:	48 89 85 50 f1 ff ff 	mov    %rax,-0xeb0(%rbp)
   13e64:	48 8d 05 95 7e 00 00 	lea    0x7e95(%rip),%rax        # 1bd00 <g_70>
   13e6b:	48 89 85 58 f1 ff ff 	mov    %rax,-0xea8(%rbp)
   13e72:	48 8d 85 70 eb ff ff 	lea    -0x1490(%rbp),%rax
   13e79:	48 83 c0 08          	add    $0x8,%rax
   13e7d:	48 89 85 60 f1 ff ff 	mov    %rax,-0xea0(%rbp)
   13e84:	48 c7 85 68 f1 ff ff 	movq   $0x0,-0xe98(%rbp)
   13e8b:	00 00 00 00 
   13e8f:	48 8d 05 6a 7e 00 00 	lea    0x7e6a(%rip),%rax        # 1bd00 <g_70>
   13e96:	48 89 85 70 f1 ff ff 	mov    %rax,-0xe90(%rbp)
   13e9d:	48 c7 85 78 f1 ff ff 	movq   $0x0,-0xe88(%rbp)
   13ea4:	00 00 00 00 
   13ea8:	48 8d 05 51 7e 00 00 	lea    0x7e51(%rip),%rax        # 1bd00 <g_70>
   13eaf:	48 89 85 80 f1 ff ff 	mov    %rax,-0xe80(%rbp)
   13eb6:	48 8d 05 43 7e 00 00 	lea    0x7e43(%rip),%rax        # 1bd00 <g_70>
   13ebd:	48 89 85 88 f1 ff ff 	mov    %rax,-0xe78(%rbp)
   13ec4:	48 c7 85 90 f1 ff ff 	movq   $0x0,-0xe70(%rbp)
   13ecb:	00 00 00 00 
   13ecf:	48 8d 05 3a 7e 00 00 	lea    0x7e3a(%rip),%rax        # 1bd10 <g_70+0x10>
   13ed6:	48 89 85 98 f1 ff ff 	mov    %rax,-0xe68(%rbp)
   13edd:	48 8d 05 2c 7e 00 00 	lea    0x7e2c(%rip),%rax        # 1bd10 <g_70+0x10>
   13ee4:	48 89 85 a0 f1 ff ff 	mov    %rax,-0xe60(%rbp)
   13eeb:	48 c7 85 a8 f1 ff ff 	movq   $0x0,-0xe58(%rbp)
   13ef2:	00 00 00 00 
   13ef6:	48 8d 05 13 7e 00 00 	lea    0x7e13(%rip),%rax        # 1bd10 <g_70+0x10>
   13efd:	48 89 85 b0 f1 ff ff 	mov    %rax,-0xe50(%rbp)
   13f04:	48 c7 85 b8 f1 ff ff 	movq   $0x0,-0xe48(%rbp)
   13f0b:	00 00 00 00 
   13f0f:	48 c7 85 c0 f1 ff ff 	movq   $0x0,-0xe40(%rbp)
   13f16:	00 00 00 00 
   13f1a:	48 8d 05 ef 7d 00 00 	lea    0x7def(%rip),%rax        # 1bd10 <g_70+0x10>
   13f21:	48 89 85 c8 f1 ff ff 	mov    %rax,-0xe38(%rbp)
   13f28:	48 8d 05 e1 7d 00 00 	lea    0x7de1(%rip),%rax        # 1bd10 <g_70+0x10>
   13f2f:	48 89 85 d0 f1 ff ff 	mov    %rax,-0xe30(%rbp)
   13f36:	48 8d 85 70 eb ff ff 	lea    -0x1490(%rbp),%rax
   13f3d:	48 83 c0 08          	add    $0x8,%rax
   13f41:	48 89 85 d8 f1 ff ff 	mov    %rax,-0xe28(%rbp)
   13f48:	48 c7 85 e0 f1 ff ff 	movq   $0x0,-0xe20(%rbp)
   13f4f:	00 00 00 00 
   13f53:	48 8d 05 b6 7d 00 00 	lea    0x7db6(%rip),%rax        # 1bd10 <g_70+0x10>
   13f5a:	48 89 85 e8 f1 ff ff 	mov    %rax,-0xe18(%rbp)
   13f61:	48 c7 85 f0 f1 ff ff 	movq   $0x0,-0xe10(%rbp)
   13f68:	00 00 00 00 
   13f6c:	48 8d 05 9d 7d 00 00 	lea    0x7d9d(%rip),%rax        # 1bd10 <g_70+0x10>
   13f73:	48 89 85 f8 f1 ff ff 	mov    %rax,-0xe08(%rbp)
   13f7a:	48 8d 05 8f 7d 00 00 	lea    0x7d8f(%rip),%rax        # 1bd10 <g_70+0x10>
   13f81:	48 89 85 00 f2 ff ff 	mov    %rax,-0xe00(%rbp)
   13f88:	48 c7 85 08 f2 ff ff 	movq   $0x0,-0xdf8(%rbp)
   13f8f:	00 00 00 00 
   13f93:	48 8d 05 76 7d 00 00 	lea    0x7d76(%rip),%rax        # 1bd10 <g_70+0x10>
   13f9a:	48 89 85 10 f2 ff ff 	mov    %rax,-0xdf0(%rbp)
   13fa1:	48 8d 05 68 7d 00 00 	lea    0x7d68(%rip),%rax        # 1bd10 <g_70+0x10>
   13fa8:	48 89 85 18 f2 ff ff 	mov    %rax,-0xde8(%rbp)
   13faf:	48 c7 85 20 f2 ff ff 	movq   $0x0,-0xde0(%rbp)
   13fb6:	00 00 00 00 
   13fba:	48 8d 05 3f 7d 00 00 	lea    0x7d3f(%rip),%rax        # 1bd00 <g_70>
   13fc1:	48 89 85 28 f2 ff ff 	mov    %rax,-0xdd8(%rbp)
   13fc8:	48 8d 85 70 eb ff ff 	lea    -0x1490(%rbp),%rax
   13fcf:	48 83 c0 08          	add    $0x8,%rax
   13fd3:	48 89 85 30 f2 ff ff 	mov    %rax,-0xdd0(%rbp)
   13fda:	48 c7 85 38 f2 ff ff 	movq   $0x0,-0xdc8(%rbp)
   13fe1:	00 00 00 00 
   13fe5:	48 8d 05 14 7d 00 00 	lea    0x7d14(%rip),%rax        # 1bd00 <g_70>
   13fec:	48 89 85 40 f2 ff ff 	mov    %rax,-0xdc0(%rbp)
   13ff3:	c7 85 f8 e4 ff ff 00 	movl   $0x0,-0x1b08(%rbp)
   13ffa:	00 00 00 
   13ffd:	eb 1e                	jmp    1401d <func_73+0x1a5a>
   13fff:	8b 85 f8 e4 ff ff    	mov    -0x1b08(%rbp),%eax
   14005:	48 98                	cltq   
   14007:	48 8d 15 2a 96 00 00 	lea    0x962a(%rip),%rdx        # 1d638 <g_167>
   1400e:	48 89 94 c5 f0 e9 ff 	mov    %rdx,-0x1610(%rbp,%rax,8)
   14015:	ff 
   14016:	83 85 f8 e4 ff ff 01 	addl   $0x1,-0x1b08(%rbp)
   1401d:	83 bd f8 e4 ff ff 02 	cmpl   $0x2,-0x1b08(%rbp)
   14024:	7e d9                	jle    13fff <func_73+0x1a3c>
   14026:	c7 85 f8 e4 ff ff 00 	movl   $0x0,-0x1b08(%rbp)
   1402d:	00 00 00 
   14030:	eb 1e                	jmp    14050 <func_73+0x1a8d>
   14032:	8b 85 f8 e4 ff ff    	mov    -0x1b08(%rbp),%eax
   14038:	48 98                	cltq   
   1403a:	48 8d 15 17 60 00 00 	lea    0x6017(%rip),%rdx        # 1a058 <g_71>
   14041:	48 89 94 c5 70 eb ff 	mov    %rdx,-0x1490(%rbp,%rax,8)
   14048:	ff 
   14049:	83 85 f8 e4 ff ff 01 	addl   $0x1,-0x1b08(%rbp)
   14050:	83 bd f8 e4 ff ff 06 	cmpl   $0x6,-0x1b08(%rbp)
   14057:	7e d9                	jle    14032 <func_73+0x1a6f>
   14059:	48 0f bf 85 bc e4 ff 	movswq -0x1b44(%rbp),%rax
   14060:	ff 
   14061:	48 89 c6             	mov    %rax,%rsi
   14064:	48 bf 68 ae 94 1f c1 	movabs $0xff4179c11f94ae68,%rdi
   1406b:	79 41 ff 
   1406e:	e8 35 38 ff ff       	callq  78a8 <safe_sub_func_int64_t_s_s>
   14073:	0f b6 d0             	movzbl %al,%edx
   14076:	8b 85 dc ed ff ff    	mov    -0x1224(%rbp),%eax
   1407c:	0f b6 c0             	movzbl %al,%eax
   1407f:	89 d6                	mov    %edx,%esi
   14081:	89 c7                	mov    %eax,%edi
   14083:	e8 f0 3a ff ff       	callq  7b78 <safe_sub_func_uint8_t_u_u>
   14088:	0f b7 05 b7 5f 00 00 	movzwl 0x5fb7(%rip),%eax        # 1a046 <g_34+0x6>
   1408f:	0f be c0             	movsbl %al,%eax
   14092:	be 06 00 00 00       	mov    $0x6,%esi
   14097:	89 c7                	mov    %eax,%edi
   14099:	e8 50 32 ff ff       	callq  72ee <safe_lshift_func_int8_t_s_u>
   1409e:	48 8b 95 c0 e7 ff ff 	mov    -0x1840(%rbp),%rdx
   140a5:	48 8b 85 a8 e5 ff ff 	mov    -0x1a58(%rbp),%rax
   140ac:	48 89 10             	mov    %rdx,(%rax)
   140af:	48 8b 85 a8 e5 ff ff 	mov    -0x1a58(%rbp),%rax
   140b6:	48 8b 10             	mov    (%rax),%rdx
   140b9:	48 8b 05 88 95 00 00 	mov    0x9588(%rip),%rax        # 1d648 <g_391+0x8>
   140c0:	48 89 05 81 95 00 00 	mov    %rax,0x9581(%rip)        # 1d648 <g_391+0x8>
   140c7:	48 8b 05 7a 95 00 00 	mov    0x957a(%rip),%rax        # 1d648 <g_391+0x8>
   140ce:	48 39 c2             	cmp    %rax,%rdx
   140d1:	0f 94 c0             	sete   %al
   140d4:	0f b6 c0             	movzbl %al,%eax
   140d7:	be fb ff ff ff       	mov    $0xfffffffb,%esi
   140dc:	89 c7                	mov    %eax,%edi
   140de:	e8 12 33 ff ff       	callq  73f5 <safe_mul_func_int16_t_s_s>
   140e3:	66 83 bd e0 e4 ff ff 	cmpw   $0x0,-0x1b20(%rbp)
   140ea:	00 
   140eb:	0f 9f c0             	setg   %al
   140ee:	0f b6 c0             	movzbl %al,%eax
   140f1:	09 85 fc e4 ff ff    	or     %eax,-0x1b04(%rbp)
   140f7:	0f b6 05 12 61 00 00 	movzbl 0x6112(%rip),%eax        # 1a210 <g_105>
   140fe:	0f be d0             	movsbl %al,%edx
   14101:	48 8b 8d 80 eb ff ff 	mov    -0x1480(%rbp),%rcx
   14108:	48 8d 05 49 5f 00 00 	lea    0x5f49(%rip),%rax        # 1a058 <g_71>
   1410f:	48 89 05 ea 7b 00 00 	mov    %rax,0x7bea(%rip)        # 1bd00 <g_70>
   14116:	48 8b 05 e3 7b 00 00 	mov    0x7be3(%rip),%rax        # 1bd00 <g_70>
   1411d:	48 39 c1             	cmp    %rax,%rcx
   14120:	0f 94 c0             	sete   %al
   14123:	0f b6 c0             	movzbl %al,%eax
   14126:	89 d6                	mov    %edx,%esi
   14128:	89 c7                	mov    %eax,%edi
   1412a:	e8 1d 3b ff ff       	callq  7c4c <safe_lshift_func_uint8_t_u_u>
   1412f:	66 c7 85 bc e4 ff ff 	movw   $0xd946,-0x1b44(%rbp)
   14136:	46 d9 
   14138:	be 01 00 00 00       	mov    $0x1,%esi
   1413d:	bf 46 d9 ff ff       	mov    $0xffffd946,%edi
   14142:	e8 8c 32 ff ff       	callq  73d3 <safe_sub_func_int16_t_s_s>
   14147:	8b 95 e8 e6 ff ff    	mov    -0x1918(%rbp),%edx
   1414d:	98                   	cwtl   
   1414e:	21 d0                	and    %edx,%eax
   14150:	89 85 e8 e6 ff ff    	mov    %eax,-0x1918(%rbp)
   14156:	c7 85 08 e5 ff ff 05 	movl   $0x5,-0x1af8(%rbp)
   1415d:	00 00 00 
   14160:	eb 1e                	jmp    14180 <func_73+0x1bbd>
   14162:	48 8b 85 98 e5 ff ff 	mov    -0x1a68(%rbp),%rax
   14169:	8b 00                	mov    (%rax),%eax
   1416b:	83 f0 01             	xor    $0x1,%eax
   1416e:	89 c2                	mov    %eax,%edx
   14170:	48 8b 85 98 e5 ff ff 	mov    -0x1a68(%rbp),%rax
   14177:	89 10                	mov    %edx,(%rax)
   14179:	83 85 08 e5 ff ff 01 	addl   $0x1,-0x1af8(%rbp)
   14180:	83 bd 08 e5 ff ff 0c 	cmpl   $0xc,-0x1af8(%rbp)
   14187:	74 d9                	je     14162 <func_73+0x1b9f>
   14189:	48 8d 05 80 7b 00 00 	lea    0x7b80(%rip),%rax        # 1bd10 <g_70+0x10>
   14190:	48 8b 5d c8          	mov    -0x38(%rbp),%rbx
   14194:	64 48 33 1c 25 28 00 	xor    %fs:0x28,%rbx
   1419b:	00 00 
   1419d:	74 05                	je     141a4 <func_73+0x1be1>
   1419f:	e8 cc 2e ff ff       	callq  7070 <__stack_chk_fail@plt>
   141a4:	48 81 c4 38 1b 00 00 	add    $0x1b38,%rsp
   141ab:	5b                   	pop    %rbx
   141ac:	41 5c                	pop    %r12
   141ae:	41 5d                	pop    %r13
   141b0:	41 5e                	pop    %r14
   141b2:	41 5f                	pop    %r15
   141b4:	5d                   	pop    %rbp
   141b5:	c3                   	retq   

00000000000141b6 <func_83>:
   141b6:	f3 0f 1e fa          	endbr64 
   141ba:	55                   	push   %rbp
   141bb:	48 89 e5             	mov    %rsp,%rbp
   141be:	48 83 c4 80          	add    $0xffffffffffffff80,%rsp
   141c2:	89 7d 8c             	mov    %edi,-0x74(%rbp)
   141c5:	89 75 88             	mov    %esi,-0x78(%rbp)
   141c8:	89 d0                	mov    %edx,%eax
   141ca:	66 89 45 84          	mov    %ax,-0x7c(%rbp)
   141ce:	64 48 8b 04 25 28 00 	mov    %fs:0x28,%rax
   141d5:	00 00 
   141d7:	48 89 45 f8          	mov    %rax,-0x8(%rbp)
   141db:	31 c0                	xor    %eax,%eax
   141dd:	48 c7 45 98 00 00 00 	movq   $0x0,-0x68(%rbp)
   141e4:	00 
   141e5:	66 c7 05 6c 5e 00 00 	movw   $0xe,0x5e6c(%rip)        # 1a05a <g_89>
   141ec:	0e 00 
   141ee:	eb 78                	jmp    14268 <func_83+0xb2>
   141f0:	48 8d 45 98          	lea    -0x68(%rbp),%rax
   141f4:	48 89 45 a0          	mov    %rax,-0x60(%rbp)
   141f8:	48 8d 45 98          	lea    -0x68(%rbp),%rax
   141fc:	48 89 45 a8          	mov    %rax,-0x58(%rbp)
   14200:	48 8d 45 98          	lea    -0x68(%rbp),%rax
   14204:	48 89 45 b0          	mov    %rax,-0x50(%rbp)
   14208:	48 8d 45 98          	lea    -0x68(%rbp),%rax
   1420c:	48 89 45 b8          	mov    %rax,-0x48(%rbp)
   14210:	48 8d 45 98          	lea    -0x68(%rbp),%rax
   14214:	48 89 45 c0          	mov    %rax,-0x40(%rbp)
   14218:	48 8d 45 98          	lea    -0x68(%rbp),%rax
   1421c:	48 89 45 c8          	mov    %rax,-0x38(%rbp)
   14220:	48 8d 45 98          	lea    -0x68(%rbp),%rax
   14224:	48 89 45 d0          	mov    %rax,-0x30(%rbp)
   14228:	48 8d 45 98          	lea    -0x68(%rbp),%rax
   1422c:	48 89 45 d8          	mov    %rax,-0x28(%rbp)
   14230:	48 8d 45 98          	lea    -0x68(%rbp),%rax
   14234:	48 89 45 e0          	mov    %rax,-0x20(%rbp)
   14238:	48 8d 45 98          	lea    -0x68(%rbp),%rax
   1423c:	48 89 45 e8          	mov    %rax,-0x18(%rbp)
   14240:	48 8b 45 98          	mov    -0x68(%rbp),%rax
   14244:	48 89 05 dd 93 00 00 	mov    %rax,0x93dd(%rip)        # 1d628 <g_101>
   1424b:	0f b7 05 08 5e 00 00 	movzwl 0x5e08(%rip),%eax        # 1a05a <g_89>
   14252:	0f b7 c0             	movzwl %ax,%eax
   14255:	be 04 00 00 00       	mov    $0x4,%esi
   1425a:	89 c7                	mov    %eax,%edi
   1425c:	e8 9e 3a ff ff       	callq  7cff <safe_add_func_uint16_t_u_u>
   14261:	66 89 05 f2 5d 00 00 	mov    %ax,0x5df2(%rip)        # 1a05a <g_89>
   14268:	0f b7 05 eb 5d 00 00 	movzwl 0x5deb(%rip),%eax        # 1a05a <g_89>
   1426f:	66 83 f8 35          	cmp    $0x35,%ax
   14273:	0f 86 77 ff ff ff    	jbe    141f0 <func_83+0x3a>
   14279:	8b 45 88             	mov    -0x78(%rbp),%eax
   1427c:	48 98                	cltq   
   1427e:	48 8b 4d f8          	mov    -0x8(%rbp),%rcx
   14282:	64 48 33 0c 25 28 00 	xor    %fs:0x28,%rcx
   14289:	00 00 
   1428b:	74 05                	je     14292 <func_83+0xdc>
   1428d:	e8 de 2d ff ff       	callq  7070 <__stack_chk_fail@plt>
   14292:	c9                   	leaveq 
   14293:	c3                   	retq   

0000000000014294 <func_109>:
   14294:	f3 0f 1e fa          	endbr64 
   14298:	55                   	push   %rbp
   14299:	48 89 e5             	mov    %rsp,%rbp
   1429c:	53                   	push   %rbx
   1429d:	48 83 ec 48          	sub    $0x48,%rsp
   142a1:	89 f8                	mov    %edi,%eax
   142a3:	88 45 bc             	mov    %al,-0x44(%rbp)
   142a6:	64 48 8b 04 25 28 00 	mov    %fs:0x28,%rax
   142ad:	00 00 
   142af:	48 89 45 e8          	mov    %rax,-0x18(%rbp)
   142b3:	31 c0                	xor    %eax,%eax
   142b5:	48 b8 6b 9c 7f 75 0b 	movabs $0xc6d2ed0b757f9c6b,%rax
   142bc:	ed d2 c6 
   142bf:	48 89 45 d0          	mov    %rax,-0x30(%rbp)
   142c3:	c7 45 c4 c7 57 f5 eb 	movl   $0xebf557c7,-0x3c(%rbp)
   142ca:	48 8d 05 a7 5f 00 00 	lea    0x5fa7(%rip),%rax        # 1a278 <g_107+0x58>
   142d1:	48 89 45 d8          	mov    %rax,-0x28(%rbp)
   142d5:	48 8b 45 d0          	mov    -0x30(%rbp),%rax
   142d9:	89 45 c4             	mov    %eax,-0x3c(%rbp)
   142dc:	8b 45 c4             	mov    -0x3c(%rbp),%eax
   142df:	0f b7 d8             	movzwl %ax,%ebx
   142e2:	0f b6 45 bc          	movzbl -0x44(%rbp),%eax
   142e6:	be 07 00 00 00       	mov    $0x7,%esi
   142eb:	89 c7                	mov    %eax,%edi
   142ed:	e8 2d 3a ff ff       	callq  7d1f <safe_sub_func_uint16_t_u_u>
   142f2:	0f b7 c0             	movzwl %ax,%eax
   142f5:	89 de                	mov    %ebx,%esi
   142f7:	89 c7                	mov    %eax,%edi
   142f9:	e8 3f 3a ff ff       	callq  7d3d <safe_mul_func_uint16_t_u_u>
   142fe:	66 85 c0             	test   %ax,%ax
   14301:	74 24                	je     14327 <func_109+0x93>
   14303:	c7 45 cc f7 ff ff ff 	movl   $0xfffffff7,-0x34(%rbp)
   1430a:	48 8d 05 f7 5d 00 00 	lea    0x5df7(%rip),%rax        # 1a108 <g_103+0x88>
   14311:	48 39 45 d8          	cmp    %rax,-0x28(%rbp)
   14315:	0f 94 c0             	sete   %al
   14318:	0f b6 c0             	movzbl %al,%eax
   1431b:	09 45 cc             	or     %eax,-0x34(%rbp)
   1431e:	48 8b 05 03 93 00 00 	mov    0x9303(%rip),%rax        # 1d628 <g_101>
   14325:	eb 57                	jmp    1437e <func_109+0xea>
   14327:	48 8d 45 d0          	lea    -0x30(%rbp),%rax
   1432b:	48 89 45 e0          	mov    %rax,-0x20(%rbp)
   1432f:	c7 45 c8 d0 3b 1f fd 	movl   $0xfd1f3bd0,-0x38(%rbp)
   14336:	48 8b 05 c3 5e 00 00 	mov    0x5ec3(%rip),%rax        # 1a200 <g_103+0x180>
   1433d:	48 89 c2             	mov    %rax,%rdx
   14340:	48 8b 45 e0          	mov    -0x20(%rbp),%rax
   14344:	48 89 10             	mov    %rdx,(%rax)
   14347:	48 8b 45 e0          	mov    -0x20(%rbp),%rax
   1434b:	48 8b 18             	mov    (%rax),%rbx
   1434e:	8b 45 c8             	mov    -0x38(%rbp),%eax
   14351:	48 63 d0             	movslq %eax,%rdx
   14354:	0f b6 05 b5 5e 00 00 	movzbl 0x5eb5(%rip),%eax        # 1a210 <g_105>
   1435b:	48 0f be c0          	movsbq %al,%rax
   1435f:	48 89 d6             	mov    %rdx,%rsi
   14362:	48 89 c7             	mov    %rax,%rdi
   14365:	e8 3e 35 ff ff       	callq  78a8 <safe_sub_func_int64_t_s_s>
   1436a:	48 21 d8             	and    %rbx,%rax
   1436d:	89 c2                	mov    %eax,%edx
   1436f:	8b 45 c4             	mov    -0x3c(%rbp),%eax
   14372:	31 d0                	xor    %edx,%eax
   14374:	89 45 c4             	mov    %eax,-0x3c(%rbp)
   14377:	48 8b 05 aa 92 00 00 	mov    0x92aa(%rip),%rax        # 1d628 <g_101>
   1437e:	48 8b 4d e8          	mov    -0x18(%rbp),%rcx
   14382:	64 48 33 0c 25 28 00 	xor    %fs:0x28,%rcx
   14389:	00 00 
   1438b:	74 05                	je     14392 <func_109+0xfe>
   1438d:	e8 de 2c ff ff       	callq  7070 <__stack_chk_fail@plt>
   14392:	48 83 c4 48          	add    $0x48,%rsp
   14396:	5b                   	pop    %rbx
   14397:	5d                   	pop    %rbp
   14398:	c3                   	retq   

0000000000014399 <main>:
   14399:	f3 0f 1e fa          	endbr64 
   1439d:	55                   	push   %rbp
   1439e:	48 89 e5             	mov    %rsp,%rbp
   143a1:	48 83 ec 20          	sub    $0x20,%rsp
   143a5:	89 7d ec             	mov    %edi,-0x14(%rbp)
   143a8:	48 89 75 e0          	mov    %rsi,-0x20(%rbp)
   143ac:	c7 45 fc 00 00 00 00 	movl   $0x0,-0x4(%rbp)
   143b3:	83 7d ec 02          	cmpl   $0x2,-0x14(%rbp)
   143b7:	75 25                	jne    143de <main+0x45>
   143b9:	48 8b 45 e0          	mov    -0x20(%rbp),%rax
   143bd:	48 83 c0 08          	add    $0x8,%rax
   143c1:	48 8b 00             	mov    (%rax),%rax
   143c4:	48 8d 35 79 2b 00 00 	lea    0x2b79(%rip),%rsi        # 16f44 <g_1245+0x1ea4>
   143cb:	48 89 c7             	mov    %rax,%rdi
   143ce:	e8 bd 2c ff ff       	callq  7090 <strcmp@plt>
   143d3:	85 c0                	test   %eax,%eax
   143d5:	75 07                	jne    143de <main+0x45>
   143d7:	c7 45 fc 01 00 00 00 	movl   $0x1,-0x4(%rbp)
   143de:	e8 a6 2d ff ff       	callq  7189 <platform_main_begin>
   143e3:	e8 b0 41 ff ff       	callq  8598 <crc32_gentab>
   143e8:	e8 c8 43 ff ff       	callq  87b5 <func_1>
   143ed:	c7 45 f0 00 00 00 00 	movl   $0x0,-0x10(%rbp)
   143f4:	e9 95 00 00 00       	jmpq   1448e <main+0xf5>
   143f9:	c7 45 f4 00 00 00 00 	movl   $0x0,-0xc(%rbp)
   14400:	eb 7e                	jmp    14480 <main+0xe7>
   14402:	c7 45 f8 00 00 00 00 	movl   $0x0,-0x8(%rbp)
   14409:	eb 6b                	jmp    14476 <main+0xdd>
   1440b:	8b 45 f8             	mov    -0x8(%rbp),%eax
   1440e:	48 63 c8             	movslq %eax,%rcx
   14411:	8b 45 f0             	mov    -0x10(%rbp),%eax
   14414:	48 63 d0             	movslq %eax,%rdx
   14417:	8b 45 f4             	mov    -0xc(%rbp),%eax
   1441a:	48 98                	cltq   
   1441c:	48 01 c2             	add    %rax,%rdx
   1441f:	48 89 d0             	mov    %rdx,%rax
   14422:	48 c1 e0 02          	shl    $0x2,%rax
   14426:	48 01 d0             	add    %rdx,%rax
   14429:	48 01 c8             	add    %rcx,%rax
   1442c:	48 8d 14 00          	lea    (%rax,%rax,1),%rdx
   14430:	48 8d 05 f1 5b 00 00 	lea    0x5bf1(%rip),%rax        # 1a028 <g_26>
   14437:	0f b7 04 02          	movzwl (%rdx,%rax,1),%eax
   1443b:	0f b7 c0             	movzwl %ax,%eax
   1443e:	8b 55 fc             	mov    -0x4(%rbp),%edx
   14441:	48 8d 35 fe 2a 00 00 	lea    0x2afe(%rip),%rsi        # 16f46 <g_1245+0x1ea6>
   14448:	48 89 c7             	mov    %rax,%rdi
   1444b:	e8 a3 42 ff ff       	callq  86f3 <transparent_crc>
   14450:	83 7d fc 00          	cmpl   $0x0,-0x4(%rbp)
   14454:	74 1c                	je     14472 <main+0xd9>
   14456:	8b 4d f8             	mov    -0x8(%rbp),%ecx
   14459:	8b 55 f4             	mov    -0xc(%rbp),%edx
   1445c:	8b 45 f0             	mov    -0x10(%rbp),%eax
   1445f:	89 c6                	mov    %eax,%esi
   14461:	48 8d 3d ec 2a 00 00 	lea    0x2aec(%rip),%rdi        # 16f54 <g_1245+0x1eb4>
   14468:	b8 00 00 00 00       	mov    $0x0,%eax
   1446d:	e8 0e 2c ff ff       	callq  7080 <printf@plt>
   14472:	83 45 f8 01          	addl   $0x1,-0x8(%rbp)
   14476:	83 7d f8 04          	cmpl   $0x4,-0x8(%rbp)
   1447a:	7e 8f                	jle    1440b <main+0x72>
   1447c:	83 45 f4 01          	addl   $0x1,-0xc(%rbp)
   14480:	83 7d f4 00          	cmpl   $0x0,-0xc(%rbp)
   14484:	0f 8e 78 ff ff ff    	jle    14402 <main+0x69>
   1448a:	83 45 f0 01          	addl   $0x1,-0x10(%rbp)
   1448e:	83 7d f0 00          	cmpl   $0x0,-0x10(%rbp)
   14492:	0f 8e 61 ff ff ff    	jle    143f9 <main+0x60>
   14498:	8b 05 96 5b 00 00    	mov    0x5b96(%rip),%eax        # 1a034 <g_31>
   1449e:	48 98                	cltq   
   144a0:	8b 55 fc             	mov    -0x4(%rbp),%edx
   144a3:	48 8d 35 c0 2a 00 00 	lea    0x2ac0(%rip),%rsi        # 16f6a <g_1245+0x1eca>
   144aa:	48 89 c7             	mov    %rax,%rdi
   144ad:	e8 41 42 ff ff       	callq  86f3 <transparent_crc>
   144b2:	c7 45 f0 00 00 00 00 	movl   $0x0,-0x10(%rbp)
   144b9:	eb 6b                	jmp    14526 <main+0x18d>
   144bb:	c7 45 f4 00 00 00 00 	movl   $0x0,-0xc(%rbp)
   144c2:	eb 58                	jmp    1451c <main+0x183>
   144c4:	8b 45 f4             	mov    -0xc(%rbp),%eax
   144c7:	48 98                	cltq   
   144c9:	8b 55 f0             	mov    -0x10(%rbp),%edx
   144cc:	48 63 d2             	movslq %edx,%rdx
   144cf:	48 01 d2             	add    %rdx,%rdx
   144d2:	48 01 d0             	add    %rdx,%rax
   144d5:	48 8d 14 00          	lea    (%rax,%rax,1),%rdx
   144d9:	48 8d 05 60 5b 00 00 	lea    0x5b60(%rip),%rax        # 1a040 <g_34>
   144e0:	0f b7 04 02          	movzwl (%rdx,%rax,1),%eax
   144e4:	0f b7 c0             	movzwl %ax,%eax
   144e7:	8b 55 fc             	mov    -0x4(%rbp),%edx
   144ea:	48 8d 35 7e 2a 00 00 	lea    0x2a7e(%rip),%rsi        # 16f6f <g_1245+0x1ecf>
   144f1:	48 89 c7             	mov    %rax,%rdi
   144f4:	e8 fa 41 ff ff       	callq  86f3 <transparent_crc>
   144f9:	83 7d fc 00          	cmpl   $0x0,-0x4(%rbp)
   144fd:	74 19                	je     14518 <main+0x17f>
   144ff:	8b 55 f4             	mov    -0xc(%rbp),%edx
   14502:	8b 45 f0             	mov    -0x10(%rbp),%eax
   14505:	89 c6                	mov    %eax,%esi
   14507:	48 8d 3d 6c 2a 00 00 	lea    0x2a6c(%rip),%rdi        # 16f7a <g_1245+0x1eda>
   1450e:	b8 00 00 00 00       	mov    $0x0,%eax
   14513:	e8 68 2b ff ff       	callq  7080 <printf@plt>
   14518:	83 45 f4 01          	addl   $0x1,-0xc(%rbp)
   1451c:	83 7d f4 01          	cmpl   $0x1,-0xc(%rbp)
   14520:	7e a2                	jle    144c4 <main+0x12b>
   14522:	83 45 f0 01          	addl   $0x1,-0x10(%rbp)
   14526:	83 7d f0 05          	cmpl   $0x5,-0x10(%rbp)
   1452a:	7e 8f                	jle    144bb <main+0x122>
   1452c:	0f b6 05 25 5b 00 00 	movzbl 0x5b25(%rip),%eax        # 1a058 <g_71>
   14533:	0f b6 c0             	movzbl %al,%eax
   14536:	8b 55 fc             	mov    -0x4(%rbp),%edx
   14539:	48 8d 35 4c 2a 00 00 	lea    0x2a4c(%rip),%rsi        # 16f8c <g_1245+0x1eec>
   14540:	48 89 c7             	mov    %rax,%rdi
   14543:	e8 ab 41 ff ff       	callq  86f3 <transparent_crc>
   14548:	0f b7 05 0b 5b 00 00 	movzwl 0x5b0b(%rip),%eax        # 1a05a <g_89>
   1454f:	0f b7 c0             	movzwl %ax,%eax
   14552:	8b 55 fc             	mov    -0x4(%rbp),%edx
   14555:	48 8d 35 35 2a 00 00 	lea    0x2a35(%rip),%rsi        # 16f91 <g_1245+0x1ef1>
   1455c:	48 89 c7             	mov    %rax,%rdi
   1455f:	e8 8f 41 ff ff       	callq  86f3 <transparent_crc>
   14564:	0f b7 05 f1 5a 00 00 	movzwl 0x5af1(%rip),%eax        # 1a05c <g_92>
   1456b:	48 0f bf c0          	movswq %ax,%rax
   1456f:	8b 55 fc             	mov    -0x4(%rbp),%edx
   14572:	48 8d 35 1d 2a 00 00 	lea    0x2a1d(%rip),%rsi        # 16f96 <g_1245+0x1ef6>
   14579:	48 89 c7             	mov    %rax,%rdi
   1457c:	e8 72 41 ff ff       	callq  86f3 <transparent_crc>
   14581:	c7 45 f0 00 00 00 00 	movl   $0x0,-0x10(%rbp)
   14588:	eb 4b                	jmp    145d5 <main+0x23c>
   1458a:	8b 45 f0             	mov    -0x10(%rbp),%eax
   1458d:	48 98                	cltq   
   1458f:	48 8d 14 85 00 00 00 	lea    0x0(,%rax,4),%rdx
   14596:	00 
   14597:	48 8d 05 c2 5a 00 00 	lea    0x5ac2(%rip),%rax        # 1a060 <g_94>
   1459e:	8b 04 02             	mov    (%rdx,%rax,1),%eax
   145a1:	48 98                	cltq   
   145a3:	8b 55 fc             	mov    -0x4(%rbp),%edx
   145a6:	48 8d 35 ee 29 00 00 	lea    0x29ee(%rip),%rsi        # 16f9b <g_1245+0x1efb>
   145ad:	48 89 c7             	mov    %rax,%rdi
   145b0:	e8 3e 41 ff ff       	callq  86f3 <transparent_crc>
   145b5:	83 7d fc 00          	cmpl   $0x0,-0x4(%rbp)
   145b9:	74 16                	je     145d1 <main+0x238>
   145bb:	8b 45 f0             	mov    -0x10(%rbp),%eax
   145be:	89 c6                	mov    %eax,%esi
   145c0:	48 8d 3d dc 29 00 00 	lea    0x29dc(%rip),%rdi        # 16fa3 <g_1245+0x1f03>
   145c7:	b8 00 00 00 00       	mov    $0x0,%eax
   145cc:	e8 af 2a ff ff       	callq  7080 <printf@plt>
   145d1:	83 45 f0 01          	addl   $0x1,-0x10(%rbp)
   145d5:	83 7d f0 00          	cmpl   $0x0,-0x10(%rbp)
   145d9:	7e af                	jle    1458a <main+0x1f1>
   145db:	c7 45 f0 00 00 00 00 	movl   $0x0,-0x10(%rbp)
   145e2:	eb 79                	jmp    1465d <main+0x2c4>
   145e4:	c7 45 f4 00 00 00 00 	movl   $0x0,-0xc(%rbp)
   145eb:	eb 66                	jmp    14653 <main+0x2ba>
   145ed:	8b 45 f4             	mov    -0xc(%rbp),%eax
   145f0:	48 63 c8             	movslq %eax,%rcx
   145f3:	8b 45 f0             	mov    -0x10(%rbp),%eax
   145f6:	48 63 d0             	movslq %eax,%rdx
   145f9:	48 89 d0             	mov    %rdx,%rax
   145fc:	48 c1 e0 02          	shl    $0x2,%rax
   14600:	48 01 d0             	add    %rdx,%rax
   14603:	48 01 c8             	add    %rcx,%rax
   14606:	48 8d 14 c5 00 00 00 	lea    0x0(,%rax,8),%rdx
   1460d:	00 
   1460e:	48 8d 05 6b 5a 00 00 	lea    0x5a6b(%rip),%rax        # 1a080 <g_103>
   14615:	48 8b 04 02          	mov    (%rdx,%rax,1),%rax
   14619:	48 89 c1             	mov    %rax,%rcx
   1461c:	8b 45 fc             	mov    -0x4(%rbp),%eax
   1461f:	89 c2                	mov    %eax,%edx
   14621:	48 8d 35 89 29 00 00 	lea    0x2989(%rip),%rsi        # 16fb1 <g_1245+0x1f11>
   14628:	48 89 cf             	mov    %rcx,%rdi
   1462b:	e8 c3 40 ff ff       	callq  86f3 <transparent_crc>
   14630:	83 7d fc 00          	cmpl   $0x0,-0x4(%rbp)
   14634:	74 19                	je     1464f <main+0x2b6>
   14636:	8b 55 f4             	mov    -0xc(%rbp),%edx
   14639:	8b 45 f0             	mov    -0x10(%rbp),%eax
   1463c:	89 c6                	mov    %eax,%esi
   1463e:	48 8d 3d 35 29 00 00 	lea    0x2935(%rip),%rdi        # 16f7a <g_1245+0x1eda>
   14645:	b8 00 00 00 00       	mov    $0x0,%eax
   1464a:	e8 31 2a ff ff       	callq  7080 <printf@plt>
   1464f:	83 45 f4 01          	addl   $0x1,-0xc(%rbp)
   14653:	83 7d f4 04          	cmpl   $0x4,-0xc(%rbp)
   14657:	7e 94                	jle    145ed <main+0x254>
   14659:	83 45 f0 01          	addl   $0x1,-0x10(%rbp)
   1465d:	83 7d f0 09          	cmpl   $0x9,-0x10(%rbp)
   14661:	7e 81                	jle    145e4 <main+0x24b>
   14663:	0f b6 05 a6 5b 00 00 	movzbl 0x5ba6(%rip),%eax        # 1a210 <g_105>
   1466a:	48 0f be c0          	movsbq %al,%rax
   1466e:	8b 55 fc             	mov    -0x4(%rbp),%edx
   14671:	48 8d 35 45 29 00 00 	lea    0x2945(%rip),%rsi        # 16fbd <g_1245+0x1f1d>
   14678:	48 89 c7             	mov    %rax,%rdi
   1467b:	e8 73 40 ff ff       	callq  86f3 <transparent_crc>
   14680:	c7 45 f0 00 00 00 00 	movl   $0x0,-0x10(%rbp)
   14687:	eb 7b                	jmp    14704 <main+0x36b>
   14689:	c7 45 f4 00 00 00 00 	movl   $0x0,-0xc(%rbp)
   14690:	eb 68                	jmp    146fa <main+0x361>
   14692:	8b 45 f4             	mov    -0xc(%rbp),%eax
   14695:	48 63 c8             	movslq %eax,%rcx
   14698:	8b 45 f0             	mov    -0x10(%rbp),%eax
   1469b:	48 63 d0             	movslq %eax,%rdx
   1469e:	48 89 d0             	mov    %rdx,%rax
   146a1:	48 01 c0             	add    %rax,%rax
   146a4:	48 01 d0             	add    %rdx,%rax
   146a7:	48 01 c0             	add    %rax,%rax
   146aa:	48 01 c8             	add    %rcx,%rax
   146ad:	48 8d 14 c5 00 00 00 	lea    0x0(,%rax,8),%rdx
   146b4:	00 
   146b5:	48 8d 05 64 5b 00 00 	lea    0x5b64(%rip),%rax        # 1a220 <g_107>
   146bc:	48 8b 04 02          	mov    (%rdx,%rax,1),%rax
   146c0:	48 89 c1             	mov    %rax,%rcx
   146c3:	8b 45 fc             	mov    -0x4(%rbp),%eax
   146c6:	89 c2                	mov    %eax,%edx
   146c8:	48 8d 35 f4 28 00 00 	lea    0x28f4(%rip),%rsi        # 16fc3 <g_1245+0x1f23>
   146cf:	48 89 cf             	mov    %rcx,%rdi
   146d2:	e8 1c 40 ff ff       	callq  86f3 <transparent_crc>
   146d7:	83 7d fc 00          	cmpl   $0x0,-0x4(%rbp)
   146db:	74 19                	je     146f6 <main+0x35d>
   146dd:	8b 55 f4             	mov    -0xc(%rbp),%edx
   146e0:	8b 45 f0             	mov    -0x10(%rbp),%eax
   146e3:	89 c6                	mov    %eax,%esi
   146e5:	48 8d 3d 8e 28 00 00 	lea    0x288e(%rip),%rdi        # 16f7a <g_1245+0x1eda>
   146ec:	b8 00 00 00 00       	mov    $0x0,%eax
   146f1:	e8 8a 29 ff ff       	callq  7080 <printf@plt>
   146f6:	83 45 f4 01          	addl   $0x1,-0xc(%rbp)
   146fa:	83 7d f4 05          	cmpl   $0x5,-0xc(%rbp)
   146fe:	7e 92                	jle    14692 <main+0x2f9>
   14700:	83 45 f0 01          	addl   $0x1,-0x10(%rbp)
   14704:	83 7d f0 01          	cmpl   $0x1,-0x10(%rbp)
   14708:	0f 8e 7b ff ff ff    	jle    14689 <main+0x2f0>
   1470e:	8b 05 1c 8f 00 00    	mov    0x8f1c(%rip),%eax        # 1d630 <g_112>
   14714:	89 c1                	mov    %eax,%ecx
   14716:	8b 45 fc             	mov    -0x4(%rbp),%eax
   14719:	89 c2                	mov    %eax,%edx
   1471b:	48 8d 35 ad 28 00 00 	lea    0x28ad(%rip),%rsi        # 16fcf <g_1245+0x1f2f>
   14722:	48 89 cf             	mov    %rcx,%rdi
   14725:	e8 c9 3f ff ff       	callq  86f3 <transparent_crc>
   1472a:	8b 05 04 8f 00 00    	mov    0x8f04(%rip),%eax        # 1d634 <g_139>
   14730:	89 c1                	mov    %eax,%ecx
   14732:	8b 45 fc             	mov    -0x4(%rbp),%eax
   14735:	89 c2                	mov    %eax,%edx
   14737:	48 8d 35 97 28 00 00 	lea    0x2897(%rip),%rsi        # 16fd5 <g_1245+0x1f35>
   1473e:	48 89 cf             	mov    %rcx,%rdi
   14741:	e8 ad 3f ff ff       	callq  86f3 <transparent_crc>
   14746:	8b 05 ec 8e 00 00    	mov    0x8eec(%rip),%eax        # 1d638 <g_167>
   1474c:	48 98                	cltq   
   1474e:	8b 55 fc             	mov    -0x4(%rbp),%edx
   14751:	48 8d 35 83 28 00 00 	lea    0x2883(%rip),%rsi        # 16fdb <g_1245+0x1f3b>
   14758:	48 89 c7             	mov    %rax,%rdi
   1475b:	e8 93 3f ff ff       	callq  86f3 <transparent_crc>
   14760:	8b 05 1a 5b 00 00    	mov    0x5b1a(%rip),%eax        # 1a280 <g_191>
   14766:	48 98                	cltq   
   14768:	8b 55 fc             	mov    -0x4(%rbp),%edx
   1476b:	48 8d 35 6f 28 00 00 	lea    0x286f(%rip),%rsi        # 16fe1 <g_1245+0x1f41>
   14772:	48 89 c7             	mov    %rax,%rdi
   14775:	e8 79 3f ff ff       	callq  86f3 <transparent_crc>
   1477a:	c7 45 f0 00 00 00 00 	movl   $0x0,-0x10(%rbp)
   14781:	eb 4d                	jmp    147d0 <main+0x437>
   14783:	8b 45 f0             	mov    -0x10(%rbp),%eax
   14786:	48 98                	cltq   
   14788:	48 8d 14 85 00 00 00 	lea    0x0(,%rax,4),%rdx
   1478f:	00 
   14790:	48 8d 05 c9 08 00 00 	lea    0x8c9(%rip),%rax        # 15060 <g_238>
   14797:	8b 04 02             	mov    (%rdx,%rax,1),%eax
   1479a:	89 c1                	mov    %eax,%ecx
   1479c:	8b 45 fc             	mov    -0x4(%rbp),%eax
   1479f:	89 c2                	mov    %eax,%edx
   147a1:	48 8d 35 3f 28 00 00 	lea    0x283f(%rip),%rsi        # 16fe7 <g_1245+0x1f47>
   147a8:	48 89 cf             	mov    %rcx,%rdi
   147ab:	e8 43 3f ff ff       	callq  86f3 <transparent_crc>
   147b0:	83 7d fc 00          	cmpl   $0x0,-0x4(%rbp)
   147b4:	74 16                	je     147cc <main+0x433>
   147b6:	8b 45 f0             	mov    -0x10(%rbp),%eax
   147b9:	89 c6                	mov    %eax,%esi
   147bb:	48 8d 3d e1 27 00 00 	lea    0x27e1(%rip),%rdi        # 16fa3 <g_1245+0x1f03>
   147c2:	b8 00 00 00 00       	mov    $0x0,%eax
   147c7:	e8 b4 28 ff ff       	callq  7080 <printf@plt>
   147cc:	83 45 f0 01          	addl   $0x1,-0x10(%rbp)
   147d0:	83 7d f0 09          	cmpl   $0x9,-0x10(%rbp)
   147d4:	7e ad                	jle    14783 <main+0x3ea>
   147d6:	0f b7 05 a7 5a 00 00 	movzwl 0x5aa7(%rip),%eax        # 1a284 <g_310>
   147dd:	48 0f bf c0          	movswq %ax,%rax
   147e1:	8b 55 fc             	mov    -0x4(%rbp),%edx
   147e4:	48 8d 35 05 28 00 00 	lea    0x2805(%rip),%rsi        # 16ff0 <g_1245+0x1f50>
   147eb:	48 89 c7             	mov    %rax,%rdi
   147ee:	e8 00 3f ff ff       	callq  86f3 <transparent_crc>
   147f3:	8b 05 8f 5a 00 00    	mov    0x5a8f(%rip),%eax        # 1a288 <g_311>
   147f9:	89 c1                	mov    %eax,%ecx
   147fb:	8b 45 fc             	mov    -0x4(%rbp),%eax
   147fe:	89 c2                	mov    %eax,%edx
   14800:	48 8d 35 ef 27 00 00 	lea    0x27ef(%rip),%rsi        # 16ff6 <g_1245+0x1f56>
   14807:	48 89 cf             	mov    %rcx,%rdi
   1480a:	e8 e4 3e ff ff       	callq  86f3 <transparent_crc>
   1480f:	48 8b 05 7a 5a 00 00 	mov    0x5a7a(%rip),%rax        # 1a290 <g_428>
   14816:	8b 55 fc             	mov    -0x4(%rbp),%edx
   14819:	48 8d 35 dc 27 00 00 	lea    0x27dc(%rip),%rsi        # 16ffc <g_1245+0x1f5c>
   14820:	48 89 c7             	mov    %rax,%rdi
   14823:	e8 cb 3e ff ff       	callq  86f3 <transparent_crc>
   14828:	c7 45 f0 00 00 00 00 	movl   $0x0,-0x10(%rbp)
   1482f:	eb 6d                	jmp    1489e <main+0x505>
   14831:	c7 45 f4 00 00 00 00 	movl   $0x0,-0xc(%rbp)
   14838:	eb 5a                	jmp    14894 <main+0x4fb>
   1483a:	8b 45 f4             	mov    -0xc(%rbp),%eax
   1483d:	48 98                	cltq   
   1483f:	8b 55 f0             	mov    -0x10(%rbp),%edx
   14842:	48 63 d2             	movslq %edx,%rdx
   14845:	48 01 d2             	add    %rdx,%rdx
   14848:	48 01 d0             	add    %rdx,%rax
   1484b:	48 8d 14 85 00 00 00 	lea    0x0(,%rax,4),%rdx
   14852:	00 
   14853:	48 8d 05 46 5a 00 00 	lea    0x5a46(%rip),%rax        # 1a2a0 <g_469>
   1485a:	8b 04 02             	mov    (%rdx,%rax,1),%eax
   1485d:	48 98                	cltq   
   1485f:	8b 55 fc             	mov    -0x4(%rbp),%edx
   14862:	48 8d 35 99 27 00 00 	lea    0x2799(%rip),%rsi        # 17002 <g_1245+0x1f62>
   14869:	48 89 c7             	mov    %rax,%rdi
   1486c:	e8 82 3e ff ff       	callq  86f3 <transparent_crc>
   14871:	83 7d fc 00          	cmpl   $0x0,-0x4(%rbp)
   14875:	74 19                	je     14890 <main+0x4f7>
   14877:	8b 55 f4             	mov    -0xc(%rbp),%edx
   1487a:	8b 45 f0             	mov    -0x10(%rbp),%eax
   1487d:	89 c6                	mov    %eax,%esi
   1487f:	48 8d 3d f4 26 00 00 	lea    0x26f4(%rip),%rdi        # 16f7a <g_1245+0x1eda>
   14886:	b8 00 00 00 00       	mov    $0x0,%eax
   1488b:	e8 f0 27 ff ff       	callq  7080 <printf@plt>
   14890:	83 45 f4 01          	addl   $0x1,-0xc(%rbp)
   14894:	83 7d f4 01          	cmpl   $0x1,-0xc(%rbp)
   14898:	7e a0                	jle    1483a <main+0x4a1>
   1489a:	83 45 f0 01          	addl   $0x1,-0x10(%rbp)
   1489e:	83 7d f0 05          	cmpl   $0x5,-0x10(%rbp)
   148a2:	7e 8d                	jle    14831 <main+0x498>
   148a4:	0f b6 05 25 5a 00 00 	movzbl 0x5a25(%rip),%eax        # 1a2d0 <g_511>
   148ab:	0f b6 c0             	movzbl %al,%eax
   148ae:	8b 55 fc             	mov    -0x4(%rbp),%edx
   148b1:	48 8d 35 56 27 00 00 	lea    0x2756(%rip),%rsi        # 1700e <g_1245+0x1f6e>
   148b8:	48 89 c7             	mov    %rax,%rdi
   148bb:	e8 33 3e ff ff       	callq  86f3 <transparent_crc>
   148c0:	b8 62 a3 57 bc       	mov    $0xbc57a362,%eax
   148c5:	48 98                	cltq   
   148c7:	8b 55 fc             	mov    -0x4(%rbp),%edx
   148ca:	48 8d 35 43 27 00 00 	lea    0x2743(%rip),%rsi        # 17014 <g_1245+0x1f74>
   148d1:	48 89 c7             	mov    %rax,%rdi
   148d4:	e8 1a 3e ff ff       	callq  86f3 <transparent_crc>
   148d9:	48 8b 05 f8 59 00 00 	mov    0x59f8(%rip),%rax        # 1a2d8 <g_574>
   148e0:	48 89 c1             	mov    %rax,%rcx
   148e3:	8b 45 fc             	mov    -0x4(%rbp),%eax
   148e6:	89 c2                	mov    %eax,%edx
   148e8:	48 8d 35 2b 27 00 00 	lea    0x272b(%rip),%rsi        # 1701a <g_1245+0x1f7a>
   148ef:	48 89 cf             	mov    %rcx,%rdi
   148f2:	e8 fc 3d ff ff       	callq  86f3 <transparent_crc>
   148f7:	48 8b 05 e2 59 00 00 	mov    0x59e2(%rip),%rax        # 1a2e0 <g_590>
   148fe:	8b 55 fc             	mov    -0x4(%rbp),%edx
   14901:	48 8d 35 18 27 00 00 	lea    0x2718(%rip),%rsi        # 17020 <g_1245+0x1f80>
   14908:	48 89 c7             	mov    %rax,%rdi
   1490b:	e8 e3 3d ff ff       	callq  86f3 <transparent_crc>
   14910:	0f b6 05 d1 59 00 00 	movzbl 0x59d1(%rip),%eax        # 1a2e8 <g_673>
   14917:	0f b6 c0             	movzbl %al,%eax
   1491a:	8b 55 fc             	mov    -0x4(%rbp),%edx
   1491d:	48 8d 35 02 27 00 00 	lea    0x2702(%rip),%rsi        # 17026 <g_1245+0x1f86>
   14924:	48 89 c7             	mov    %rax,%rdi
   14927:	e8 c7 3d ff ff       	callq  86f3 <transparent_crc>
   1492c:	8b 05 ba 59 00 00    	mov    0x59ba(%rip),%eax        # 1a2ec <g_835>
   14932:	89 c1                	mov    %eax,%ecx
   14934:	8b 45 fc             	mov    -0x4(%rbp),%eax
   14937:	89 c2                	mov    %eax,%edx
   14939:	48 8d 35 ec 26 00 00 	lea    0x26ec(%rip),%rsi        # 1702c <g_1245+0x1f8c>
   14940:	48 89 cf             	mov    %rcx,%rdi
   14943:	e8 ab 3d ff ff       	callq  86f3 <transparent_crc>
   14948:	8b 05 a2 59 00 00    	mov    0x59a2(%rip),%eax        # 1a2f0 <g_868>
   1494e:	89 c1                	mov    %eax,%ecx
   14950:	8b 45 fc             	mov    -0x4(%rbp),%eax
   14953:	89 c2                	mov    %eax,%edx
   14955:	48 8d 35 d6 26 00 00 	lea    0x26d6(%rip),%rsi        # 17032 <g_1245+0x1f92>
   1495c:	48 89 cf             	mov    %rcx,%rdi
   1495f:	e8 8f 3d ff ff       	callq  86f3 <transparent_crc>
   14964:	48 8b 05 8d 59 00 00 	mov    0x598d(%rip),%rax        # 1a2f8 <g_892>
   1496b:	8b 55 fc             	mov    -0x4(%rbp),%edx
   1496e:	48 8d 35 c3 26 00 00 	lea    0x26c3(%rip),%rsi        # 17038 <g_1245+0x1f98>
   14975:	48 89 c7             	mov    %rax,%rdi
   14978:	e8 76 3d ff ff       	callq  86f3 <transparent_crc>
   1497d:	48 8b 05 e4 8c 00 00 	mov    0x8ce4(%rip),%rax        # 1d668 <g_895>
   14984:	8b 55 fc             	mov    -0x4(%rbp),%edx
   14987:	48 8d 35 b0 26 00 00 	lea    0x26b0(%rip),%rsi        # 1703e <g_1245+0x1f9e>
   1498e:	48 89 c7             	mov    %rax,%rdi
   14991:	e8 5d 3d ff ff       	callq  86f3 <transparent_crc>
   14996:	8b 05 dc 8c 00 00    	mov    0x8cdc(%rip),%eax        # 1d678 <g_1052>
   1499c:	89 c1                	mov    %eax,%ecx
   1499e:	8b 45 fc             	mov    -0x4(%rbp),%eax
   149a1:	89 c2                	mov    %eax,%edx
   149a3:	48 8d 35 9a 26 00 00 	lea    0x269a(%rip),%rsi        # 17044 <g_1245+0x1fa4>
   149aa:	48 89 cf             	mov    %rcx,%rdi
   149ad:	e8 41 3d ff ff       	callq  86f3 <transparent_crc>
   149b2:	c7 45 f0 00 00 00 00 	movl   $0x0,-0x10(%rbp)
   149b9:	e9 ba 00 00 00       	jmpq   14a78 <main+0x6df>
   149be:	c7 45 f4 00 00 00 00 	movl   $0x0,-0xc(%rbp)
   149c5:	e9 a0 00 00 00       	jmpq   14a6a <main+0x6d1>
   149ca:	c7 45 f8 00 00 00 00 	movl   $0x0,-0x8(%rbp)
   149d1:	e9 86 00 00 00       	jmpq   14a5c <main+0x6c3>
   149d6:	8b 45 f8             	mov    -0x8(%rbp),%eax
   149d9:	48 63 f0             	movslq %eax,%rsi
   149dc:	8b 45 f0             	mov    -0x10(%rbp),%eax
   149df:	48 98                	cltq   
   149e1:	8b 55 f4             	mov    -0xc(%rbp),%edx
   149e4:	48 63 ca             	movslq %edx,%rcx
   149e7:	48 89 c2             	mov    %rax,%rdx
   149ea:	48 01 d2             	add    %rdx,%rdx
   149ed:	48 01 c2             	add    %rax,%rdx
   149f0:	48 89 d0             	mov    %rdx,%rax
   149f3:	48 c1 e0 04          	shl    $0x4,%rax
   149f7:	48 89 c2             	mov    %rax,%rdx
   149fa:	48 89 c8             	mov    %rcx,%rax
   149fd:	48 01 c0             	add    %rax,%rax
   14a00:	48 01 c8             	add    %rcx,%rax
   14a03:	48 01 c0             	add    %rax,%rax
   14a06:	48 01 d0             	add    %rdx,%rax
   14a09:	48 01 f0             	add    %rsi,%rax
   14a0c:	48 8d 14 c5 00 00 00 	lea    0x0(,%rax,8),%rdx
   14a13:	00 
   14a14:	48 8d 05 e5 58 00 00 	lea    0x58e5(%rip),%rax        # 1a300 <g_1070>
   14a1b:	48 8b 04 02          	mov    (%rdx,%rax,1),%rax
   14a1f:	48 89 c1             	mov    %rax,%rcx
   14a22:	8b 45 fc             	mov    -0x4(%rbp),%eax
   14a25:	89 c2                	mov    %eax,%edx
   14a27:	48 8d 35 1d 26 00 00 	lea    0x261d(%rip),%rsi        # 1704b <g_1245+0x1fab>
   14a2e:	48 89 cf             	mov    %rcx,%rdi
   14a31:	e8 bd 3c ff ff       	callq  86f3 <transparent_crc>
   14a36:	83 7d fc 00          	cmpl   $0x0,-0x4(%rbp)
   14a3a:	74 1c                	je     14a58 <main+0x6bf>
   14a3c:	8b 4d f8             	mov    -0x8(%rbp),%ecx
   14a3f:	8b 55 f4             	mov    -0xc(%rbp),%edx
   14a42:	8b 45 f0             	mov    -0x10(%rbp),%eax
   14a45:	89 c6                	mov    %eax,%esi
   14a47:	48 8d 3d 06 25 00 00 	lea    0x2506(%rip),%rdi        # 16f54 <g_1245+0x1eb4>
   14a4e:	b8 00 00 00 00       	mov    $0x0,%eax
   14a53:	e8 28 26 ff ff       	callq  7080 <printf@plt>
   14a58:	83 45 f8 01          	addl   $0x1,-0x8(%rbp)
   14a5c:	83 7d f8 05          	cmpl   $0x5,-0x8(%rbp)
   14a60:	0f 8e 70 ff ff ff    	jle    149d6 <main+0x63d>
   14a66:	83 45 f4 01          	addl   $0x1,-0xc(%rbp)
   14a6a:	83 7d f4 07          	cmpl   $0x7,-0xc(%rbp)
   14a6e:	0f 8e 56 ff ff ff    	jle    149ca <main+0x631>
   14a74:	83 45 f0 01          	addl   $0x1,-0x10(%rbp)
   14a78:	83 7d f0 01          	cmpl   $0x1,-0x10(%rbp)
   14a7c:	0f 8e 3c ff ff ff    	jle    149be <main+0x625>
   14a82:	8b 05 78 5b 00 00    	mov    0x5b78(%rip),%eax        # 1a600 <g_1155>
   14a88:	48 98                	cltq   
   14a8a:	8b 55 fc             	mov    -0x4(%rbp),%edx
   14a8d:	48 8d 35 c7 25 00 00 	lea    0x25c7(%rip),%rsi        # 1705b <g_1245+0x1fbb>
   14a94:	48 89 c7             	mov    %rax,%rdi
   14a97:	e8 57 3c ff ff       	callq  86f3 <transparent_crc>
   14a9c:	48 b8 60 1f 17 2d e1 	movabs $0xa25978e12d171f60,%rax
   14aa3:	78 59 a2 
   14aa6:	48 89 c1             	mov    %rax,%rcx
   14aa9:	8b 45 fc             	mov    -0x4(%rbp),%eax
   14aac:	89 c2                	mov    %eax,%edx
   14aae:	48 8d 35 ad 25 00 00 	lea    0x25ad(%rip),%rsi        # 17062 <g_1245+0x1fc2>
   14ab5:	48 89 cf             	mov    %rcx,%rdi
   14ab8:	e8 36 3c ff ff       	callq  86f3 <transparent_crc>
   14abd:	c7 45 f0 00 00 00 00 	movl   $0x0,-0x10(%rbp)
   14ac4:	eb 4a                	jmp    14b10 <main+0x777>
   14ac6:	8b 45 f0             	mov    -0x10(%rbp),%eax
   14ac9:	48 98                	cltq   
   14acb:	48 8d 14 c5 00 00 00 	lea    0x0(,%rax,8),%rdx
   14ad2:	00 
   14ad3:	48 8d 05 c6 05 00 00 	lea    0x5c6(%rip),%rax        # 150a0 <g_1245>
   14ada:	48 8b 04 02          	mov    (%rdx,%rax,1),%rax
   14ade:	8b 55 fc             	mov    -0x4(%rbp),%edx
   14ae1:	48 8d 35 81 25 00 00 	lea    0x2581(%rip),%rsi        # 17069 <g_1245+0x1fc9>
   14ae8:	48 89 c7             	mov    %rax,%rdi
   14aeb:	e8 03 3c ff ff       	callq  86f3 <transparent_crc>
   14af0:	83 7d fc 00          	cmpl   $0x0,-0x4(%rbp)
   14af4:	74 16                	je     14b0c <main+0x773>
   14af6:	8b 45 f0             	mov    -0x10(%rbp),%eax
   14af9:	89 c6                	mov    %eax,%esi
   14afb:	48 8d 3d a1 24 00 00 	lea    0x24a1(%rip),%rdi        # 16fa3 <g_1245+0x1f03>
   14b02:	b8 00 00 00 00       	mov    $0x0,%eax
   14b07:	e8 74 25 ff ff       	callq  7080 <printf@plt>
   14b0c:	83 45 f0 01          	addl   $0x1,-0x10(%rbp)
   14b10:	83 7d f0 02          	cmpl   $0x2,-0x10(%rbp)
   14b14:	7e b0                	jle    14ac6 <main+0x72d>
   14b16:	8b 05 e8 5a 00 00    	mov    0x5ae8(%rip),%eax        # 1a604 <g_1357>
   14b1c:	48 98                	cltq   
   14b1e:	8b 55 fc             	mov    -0x4(%rbp),%edx
   14b21:	48 8d 35 4b 25 00 00 	lea    0x254b(%rip),%rsi        # 17073 <g_1245+0x1fd3>
   14b28:	48 89 c7             	mov    %rax,%rdi
   14b2b:	e8 c3 3b ff ff       	callq  86f3 <transparent_crc>
   14b30:	48 8b 05 d1 5a 00 00 	mov    0x5ad1(%rip),%rax        # 1a608 <g_1391>
   14b37:	8b 55 fc             	mov    -0x4(%rbp),%edx
   14b3a:	48 8d 35 39 25 00 00 	lea    0x2539(%rip),%rsi        # 1707a <g_1245+0x1fda>
   14b41:	48 89 c7             	mov    %rax,%rdi
   14b44:	e8 aa 3b ff ff       	callq  86f3 <transparent_crc>
   14b49:	8b 05 c1 5a 00 00    	mov    0x5ac1(%rip),%eax        # 1a610 <g_1407>
   14b4f:	89 c1                	mov    %eax,%ecx
   14b51:	8b 45 fc             	mov    -0x4(%rbp),%eax
   14b54:	89 c2                	mov    %eax,%edx
   14b56:	48 8d 35 24 25 00 00 	lea    0x2524(%rip),%rsi        # 17081 <g_1245+0x1fe1>
   14b5d:	48 89 cf             	mov    %rcx,%rdi
   14b60:	e8 8e 3b ff ff       	callq  86f3 <transparent_crc>
   14b65:	c7 45 f0 00 00 00 00 	movl   $0x0,-0x10(%rbp)
   14b6c:	eb 4b                	jmp    14bb9 <main+0x820>
   14b6e:	8b 45 f0             	mov    -0x10(%rbp),%eax
   14b71:	48 98                	cltq   
   14b73:	48 8d 14 85 00 00 00 	lea    0x0(,%rax,4),%rdx
   14b7a:	00 
   14b7b:	48 8d 05 9e 5a 00 00 	lea    0x5a9e(%rip),%rax        # 1a620 <g_1511>
   14b82:	8b 04 02             	mov    (%rdx,%rax,1),%eax
   14b85:	48 98                	cltq   
   14b87:	8b 55 fc             	mov    -0x4(%rbp),%edx
   14b8a:	48 8d 35 f7 24 00 00 	lea    0x24f7(%rip),%rsi        # 17088 <g_1245+0x1fe8>
   14b91:	48 89 c7             	mov    %rax,%rdi
   14b94:	e8 5a 3b ff ff       	callq  86f3 <transparent_crc>
   14b99:	83 7d fc 00          	cmpl   $0x0,-0x4(%rbp)
   14b9d:	74 16                	je     14bb5 <main+0x81c>
   14b9f:	8b 45 f0             	mov    -0x10(%rbp),%eax
   14ba2:	89 c6                	mov    %eax,%esi
   14ba4:	48 8d 3d f8 23 00 00 	lea    0x23f8(%rip),%rdi        # 16fa3 <g_1245+0x1f03>
   14bab:	b8 00 00 00 00       	mov    $0x0,%eax
   14bb0:	e8 cb 24 ff ff       	callq  7080 <printf@plt>
   14bb5:	83 45 f0 01          	addl   $0x1,-0x10(%rbp)
   14bb9:	83 7d f0 08          	cmpl   $0x8,-0x10(%rbp)
   14bbd:	7e af                	jle    14b6e <main+0x7d5>
   14bbf:	0f b7 05 7e 5a 00 00 	movzwl 0x5a7e(%rip),%eax        # 1a644 <g_1516>
   14bc6:	0f b7 c0             	movzwl %ax,%eax
   14bc9:	8b 55 fc             	mov    -0x4(%rbp),%edx
   14bcc:	48 8d 35 bf 24 00 00 	lea    0x24bf(%rip),%rsi        # 17092 <g_1245+0x1ff2>
   14bd3:	48 89 c7             	mov    %rax,%rdi
   14bd6:	e8 18 3b ff ff       	callq  86f3 <transparent_crc>
   14bdb:	0f b7 05 64 5a 00 00 	movzwl 0x5a64(%rip),%eax        # 1a646 <g_1541>
   14be2:	48 0f bf c0          	movswq %ax,%rax
   14be6:	8b 55 fc             	mov    -0x4(%rbp),%edx
   14be9:	48 8d 35 a9 24 00 00 	lea    0x24a9(%rip),%rsi        # 17099 <g_1245+0x1ff9>
   14bf0:	48 89 c7             	mov    %rax,%rdi
   14bf3:	e8 fb 3a ff ff       	callq  86f3 <transparent_crc>
   14bf8:	8b 05 4a 5a 00 00    	mov    0x5a4a(%rip),%eax        # 1a648 <g_1564>
   14bfe:	48 98                	cltq   
   14c00:	8b 55 fc             	mov    -0x4(%rbp),%edx
   14c03:	48 8d 35 96 24 00 00 	lea    0x2496(%rip),%rsi        # 170a0 <g_1245+0x2000>
   14c0a:	48 89 c7             	mov    %rax,%rdi
   14c0d:	e8 e1 3a ff ff       	callq  86f3 <transparent_crc>
   14c12:	0f b6 05 33 5a 00 00 	movzbl 0x5a33(%rip),%eax        # 1a64c <g_1579>
   14c19:	0f b6 c0             	movzbl %al,%eax
   14c1c:	8b 55 fc             	mov    -0x4(%rbp),%edx
   14c1f:	48 8d 35 81 24 00 00 	lea    0x2481(%rip),%rsi        # 170a7 <g_1245+0x2007>
   14c26:	48 89 c7             	mov    %rax,%rdi
   14c29:	e8 c5 3a ff ff       	callq  86f3 <transparent_crc>
   14c2e:	8b 05 ec 53 00 00    	mov    0x53ec(%rip),%eax        # 1a020 <crc32_context>
   14c34:	f7 d0                	not    %eax
   14c36:	89 c2                	mov    %eax,%edx
   14c38:	8b 45 fc             	mov    -0x4(%rbp),%eax
   14c3b:	89 c6                	mov    %eax,%esi
   14c3d:	89 d7                	mov    %edx,%edi
   14c3f:	e8 50 25 ff ff       	callq  7194 <platform_main_end>
   14c44:	b8 00 00 00 00       	mov    $0x0,%eax
   14c49:	c9                   	leaveq 
   14c4a:	c3                   	retq   
   14c4b:	0f 1f 44 00 00       	nopl   0x0(%rax,%rax,1)

0000000000014c50 <__libc_csu_init>:
   14c50:	f3 0f 1e fa          	endbr64 
   14c54:	41 57                	push   %r15
   14c56:	4c 8d 3d 43 51 00 00 	lea    0x5143(%rip),%r15        # 19da0 <__frame_dummy_init_array_entry>
   14c5d:	41 56                	push   %r14
   14c5f:	49 89 d6             	mov    %rdx,%r14
   14c62:	41 55                	push   %r13
   14c64:	49 89 f5             	mov    %rsi,%r13
   14c67:	41 54                	push   %r12
   14c69:	41 89 fc             	mov    %edi,%r12d
   14c6c:	55                   	push   %rbp
   14c6d:	48 8d 2d 34 51 00 00 	lea    0x5134(%rip),%rbp        # 19da8 <__do_global_dtors_aux_fini_array_entry>
   14c74:	53                   	push   %rbx
   14c75:	4c 29 fd             	sub    %r15,%rbp
   14c78:	48 83 ec 08          	sub    $0x8,%rsp
   14c7c:	e8 7f 23 ff ff       	callq  7000 <_init>
   14c81:	48 c1 fd 03          	sar    $0x3,%rbp
   14c85:	74 1f                	je     14ca6 <__libc_csu_init+0x56>
   14c87:	31 db                	xor    %ebx,%ebx
   14c89:	0f 1f 80 00 00 00 00 	nopl   0x0(%rax)
   14c90:	4c 89 f2             	mov    %r14,%rdx
   14c93:	4c 89 ee             	mov    %r13,%rsi
   14c96:	44 89 e7             	mov    %r12d,%edi
   14c99:	41 ff 14 df          	callq  *(%r15,%rbx,8)
   14c9d:	48 83 c3 01          	add    $0x1,%rbx
   14ca1:	48 39 dd             	cmp    %rbx,%rbp
   14ca4:	75 ea                	jne    14c90 <__libc_csu_init+0x40>
   14ca6:	48 83 c4 08          	add    $0x8,%rsp
   14caa:	5b                   	pop    %rbx
   14cab:	5d                   	pop    %rbp
   14cac:	41 5c                	pop    %r12
   14cae:	41 5d                	pop    %r13
   14cb0:	41 5e                	pop    %r14
   14cb2:	41 5f                	pop    %r15
   14cb4:	c3                   	retq   
   14cb5:	66 66 2e 0f 1f 84 00 	data16 nopw %cs:0x0(%rax,%rax,1)
   14cbc:	00 00 00 00 

0000000000014cc0 <__libc_csu_fini>:
   14cc0:	f3 0f 1e fa          	endbr64 
   14cc4:	c3                   	retq   
