


Disassembly of section .text:

00000000000060a0 <_start>:
    60a0:	f3 0f 1e fa          	endbr64 
    60a4:	31 ed                	xor    %ebp,%ebp
    60a6:	49 89 d1             	mov    %rdx,%r9
    60a9:	5e                   	pop    %rsi
    60aa:	48 89 e2             	mov    %rsp,%rdx
    60ad:	48 83 e4 f0          	and    $0xfffffffffffffff0,%rsp
    60b1:	50                   	push   %rax
    60b2:	54                   	push   %rsp
    60b3:	4c 8d 05 b6 bc 00 00 	lea    0xbcb6(%rip),%r8        # 11d70 <__libc_csu_fini>
    60ba:	48 8d 0d 3f bc 00 00 	lea    0xbc3f(%rip),%rcx        # 11d00 <__libc_csu_init>
    60c1:	48 8d 3d 93 a9 00 00 	lea    0xa993(%rip),%rdi        # 10a5b <main>
    60c8:	ff 15 fa 1e 01 00    	callq  *0x11efa(%rip)        # 17fc8 <__libc_start_main@GLIBC_2.2.5>
    60ce:	f4                   	hlt    
    60cf:	90                   	nop

00000000000060d0 <deregister_tm_clones>:
    60d0:	48 8d 3d 59 44 01 00 	lea    0x14459(%rip),%rdi        # 1a530 <__TMC_END__>
    60d7:	48 8d 05 52 44 01 00 	lea    0x14452(%rip),%rax        # 1a530 <__TMC_END__>
    60de:	48 39 f8             	cmp    %rdi,%rax
    60e1:	74 15                	je     60f8 <deregister_tm_clones+0x28>
    60e3:	48 8b 05 d6 1e 01 00 	mov    0x11ed6(%rip),%rax        # 17fc0 <_ITM_deregisterTMCloneTable>
    60ea:	48 85 c0             	test   %rax,%rax
    60ed:	74 09                	je     60f8 <deregister_tm_clones+0x28>
    60ef:	ff e0                	jmpq   *%rax
    60f1:	0f 1f 80 00 00 00 00 	nopl   0x0(%rax)
    60f8:	c3                   	retq   
    60f9:	0f 1f 80 00 00 00 00 	nopl   0x0(%rax)

0000000000006100 <register_tm_clones>:
    6100:	48 8d 3d 29 44 01 00 	lea    0x14429(%rip),%rdi        # 1a530 <__TMC_END__>
    6107:	48 8d 35 22 44 01 00 	lea    0x14422(%rip),%rsi        # 1a530 <__TMC_END__>
    610e:	48 29 fe             	sub    %rdi,%rsi
    6111:	48 89 f0             	mov    %rsi,%rax
    6114:	48 c1 ee 3f          	shr    $0x3f,%rsi
    6118:	48 c1 f8 03          	sar    $0x3,%rax
    611c:	48 01 c6             	add    %rax,%rsi
    611f:	48 d1 fe             	sar    %rsi
    6122:	74 14                	je     6138 <register_tm_clones+0x38>
    6124:	48 8b 05 ad 1e 01 00 	mov    0x11ead(%rip),%rax        # 17fd8 <_ITM_registerTMCloneTable>
    612b:	48 85 c0             	test   %rax,%rax
    612e:	74 08                	je     6138 <register_tm_clones+0x38>
    6130:	ff e0                	jmpq   *%rax
    6132:	66 0f 1f 44 00 00    	nopw   0x0(%rax,%rax,1)
    6138:	c3                   	retq   
    6139:	0f 1f 80 00 00 00 00 	nopl   0x0(%rax)

0000000000006140 <__do_global_dtors_aux>:
    6140:	f3 0f 1e fa          	endbr64 
    6144:	80 3d f5 43 01 00 00 	cmpb   $0x0,0x143f5(%rip)        # 1a540 <completed.8061>
    614b:	75 2b                	jne    6178 <__do_global_dtors_aux+0x38>
    614d:	55                   	push   %rbp
    614e:	48 83 3d 8a 1e 01 00 	cmpq   $0x0,0x11e8a(%rip)        # 17fe0 <__cxa_finalize@GLIBC_2.2.5>
    6155:	00 
    6156:	48 89 e5             	mov    %rsp,%rbp
    6159:	74 0c                	je     6167 <__do_global_dtors_aux+0x27>
    615b:	48 8b 3d a6 1e 01 00 	mov    0x11ea6(%rip),%rdi        # 18008 <__dso_handle>
    6162:	e8 f9 fe ff ff       	callq  6060 <__cxa_finalize@plt>
    6167:	e8 64 ff ff ff       	callq  60d0 <deregister_tm_clones>
    616c:	c6 05 cd 43 01 00 01 	movb   $0x1,0x143cd(%rip)        # 1a540 <completed.8061>
    6173:	5d                   	pop    %rbp
    6174:	c3                   	retq   
    6175:	0f 1f 00             	nopl   (%rax)
    6178:	c3                   	retq   
    6179:	0f 1f 80 00 00 00 00 	nopl   0x0(%rax)

0000000000006180 <frame_dummy>:
    6180:	f3 0f 1e fa          	endbr64 
    6184:	e9 77 ff ff ff       	jmpq   6100 <register_tm_clones>

0000000000006189 <platform_main_begin>:
    6189:	f3 0f 1e fa          	endbr64 
    618d:	55                   	push   %rbp
    618e:	48 89 e5             	mov    %rsp,%rbp
    6191:	90                   	nop
    6192:	5d                   	pop    %rbp
    6193:	c3                   	retq   

0000000000006194 <platform_main_end>:
    6194:	f3 0f 1e fa          	endbr64 
    6198:	55                   	push   %rbp
    6199:	48 89 e5             	mov    %rsp,%rbp
    619c:	48 83 ec 10          	sub    $0x10,%rsp
    61a0:	89 7d fc             	mov    %edi,-0x4(%rbp)
    61a3:	89 75 f8             	mov    %esi,-0x8(%rbp)
    61a6:	8b 45 fc             	mov    -0x4(%rbp),%eax
    61a9:	89 c6                	mov    %eax,%esi
    61ab:	48 8d 3d 6e be 00 00 	lea    0xbe6e(%rip),%rdi        # 12020 <_IO_stdin_used+0x20>
    61b2:	b8 00 00 00 00       	mov    $0x0,%eax
    61b7:	e8 c4 fe ff ff       	callq  6080 <printf@plt>
    61bc:	90                   	nop
    61bd:	c9                   	leaveq 
    61be:	c3                   	retq   

00000000000061bf <safe_unary_minus_func_int8_t_s>:
    61bf:	f3 0f 1e fa          	endbr64 
    61c3:	55                   	push   %rbp
    61c4:	48 89 e5             	mov    %rsp,%rbp
    61c7:	89 f8                	mov    %edi,%eax
    61c9:	88 45 fc             	mov    %al,-0x4(%rbp)
    61cc:	0f b6 45 fc          	movzbl -0x4(%rbp),%eax
    61d0:	f7 d8                	neg    %eax
    61d2:	5d                   	pop    %rbp
    61d3:	c3                   	retq   

00000000000061d4 <safe_add_func_int8_t_s_s>:
    61d4:	f3 0f 1e fa          	endbr64 
    61d8:	55                   	push   %rbp
    61d9:	48 89 e5             	mov    %rsp,%rbp
    61dc:	89 fa                	mov    %edi,%edx
    61de:	89 f0                	mov    %esi,%eax
    61e0:	88 55 fc             	mov    %dl,-0x4(%rbp)
    61e3:	88 45 f8             	mov    %al,-0x8(%rbp)
    61e6:	0f b6 55 fc          	movzbl -0x4(%rbp),%edx
    61ea:	0f b6 45 f8          	movzbl -0x8(%rbp),%eax
    61ee:	01 d0                	add    %edx,%eax
    61f0:	5d                   	pop    %rbp
    61f1:	c3                   	retq   

00000000000061f2 <safe_sub_func_int8_t_s_s>:
    61f2:	f3 0f 1e fa          	endbr64 
    61f6:	55                   	push   %rbp
    61f7:	48 89 e5             	mov    %rsp,%rbp
    61fa:	89 fa                	mov    %edi,%edx
    61fc:	89 f0                	mov    %esi,%eax
    61fe:	88 55 fc             	mov    %dl,-0x4(%rbp)
    6201:	88 45 f8             	mov    %al,-0x8(%rbp)
    6204:	0f b6 55 fc          	movzbl -0x4(%rbp),%edx
    6208:	0f b6 45 f8          	movzbl -0x8(%rbp),%eax
    620c:	29 c2                	sub    %eax,%edx
    620e:	89 d0                	mov    %edx,%eax
    6210:	5d                   	pop    %rbp
    6211:	c3                   	retq   

0000000000006212 <safe_mul_func_int8_t_s_s>:
    6212:	f3 0f 1e fa          	endbr64 
    6216:	55                   	push   %rbp
    6217:	48 89 e5             	mov    %rsp,%rbp
    621a:	89 fa                	mov    %edi,%edx
    621c:	89 f0                	mov    %esi,%eax
    621e:	88 55 fc             	mov    %dl,-0x4(%rbp)
    6221:	88 45 f8             	mov    %al,-0x8(%rbp)
    6224:	0f b6 45 fc          	movzbl -0x4(%rbp),%eax
    6228:	0f b6 55 f8          	movzbl -0x8(%rbp),%edx
    622c:	0f af c2             	imul   %edx,%eax
    622f:	5d                   	pop    %rbp
    6230:	c3                   	retq   

0000000000006231 <safe_mod_func_int8_t_s_s>:
    6231:	f3 0f 1e fa          	endbr64 
    6235:	55                   	push   %rbp
    6236:	48 89 e5             	mov    %rsp,%rbp
    6239:	89 fa                	mov    %edi,%edx
    623b:	89 f0                	mov    %esi,%eax
    623d:	88 55 fc             	mov    %dl,-0x4(%rbp)
    6240:	88 45 f8             	mov    %al,-0x8(%rbp)
    6243:	80 7d f8 00          	cmpb   $0x0,-0x8(%rbp)
    6247:	74 1b                	je     6264 <safe_mod_func_int8_t_s_s+0x33>
    6249:	80 7d fc 80          	cmpb   $0x80,-0x4(%rbp)
    624d:	75 06                	jne    6255 <safe_mod_func_int8_t_s_s+0x24>
    624f:	80 7d f8 ff          	cmpb   $0xff,-0x8(%rbp)
    6253:	74 0f                	je     6264 <safe_mod_func_int8_t_s_s+0x33>
    6255:	0f be 45 fc          	movsbl -0x4(%rbp),%eax
    6259:	0f be 4d f8          	movsbl -0x8(%rbp),%ecx
    625d:	99                   	cltd   
    625e:	f7 f9                	idiv   %ecx
    6260:	89 d0                	mov    %edx,%eax
    6262:	eb 04                	jmp    6268 <safe_mod_func_int8_t_s_s+0x37>
    6264:	0f b6 45 fc          	movzbl -0x4(%rbp),%eax
    6268:	5d                   	pop    %rbp
    6269:	c3                   	retq   

000000000000626a <safe_div_func_int8_t_s_s>:
    626a:	f3 0f 1e fa          	endbr64 
    626e:	55                   	push   %rbp
    626f:	48 89 e5             	mov    %rsp,%rbp
    6272:	89 fa                	mov    %edi,%edx
    6274:	89 f0                	mov    %esi,%eax
    6276:	88 55 fc             	mov    %dl,-0x4(%rbp)
    6279:	88 45 f8             	mov    %al,-0x8(%rbp)
    627c:	80 7d f8 00          	cmpb   $0x0,-0x8(%rbp)
    6280:	74 19                	je     629b <safe_div_func_int8_t_s_s+0x31>
    6282:	80 7d fc 80          	cmpb   $0x80,-0x4(%rbp)
    6286:	75 06                	jne    628e <safe_div_func_int8_t_s_s+0x24>
    6288:	80 7d f8 ff          	cmpb   $0xff,-0x8(%rbp)
    628c:	74 0d                	je     629b <safe_div_func_int8_t_s_s+0x31>
    628e:	0f be 45 fc          	movsbl -0x4(%rbp),%eax
    6292:	0f be 4d f8          	movsbl -0x8(%rbp),%ecx
    6296:	99                   	cltd   
    6297:	f7 f9                	idiv   %ecx
    6299:	eb 04                	jmp    629f <safe_div_func_int8_t_s_s+0x35>
    629b:	0f b6 45 fc          	movzbl -0x4(%rbp),%eax
    629f:	5d                   	pop    %rbp
    62a0:	c3                   	retq   

00000000000062a1 <safe_lshift_func_int8_t_s_s>:
    62a1:	f3 0f 1e fa          	endbr64 
    62a5:	55                   	push   %rbp
    62a6:	48 89 e5             	mov    %rsp,%rbp
    62a9:	89 f8                	mov    %edi,%eax
    62ab:	89 75 f8             	mov    %esi,-0x8(%rbp)
    62ae:	88 45 fc             	mov    %al,-0x4(%rbp)
    62b1:	80 7d fc 00          	cmpb   $0x0,-0x4(%rbp)
    62b5:	78 31                	js     62e8 <safe_lshift_func_int8_t_s_s+0x47>
    62b7:	83 7d f8 00          	cmpl   $0x0,-0x8(%rbp)
    62bb:	78 2b                	js     62e8 <safe_lshift_func_int8_t_s_s+0x47>
    62bd:	83 7d f8 1f          	cmpl   $0x1f,-0x8(%rbp)
    62c1:	7f 25                	jg     62e8 <safe_lshift_func_int8_t_s_s+0x47>
    62c3:	0f be 55 fc          	movsbl -0x4(%rbp),%edx
    62c7:	8b 45 f8             	mov    -0x8(%rbp),%eax
    62ca:	be 7f 00 00 00       	mov    $0x7f,%esi
    62cf:	89 c1                	mov    %eax,%ecx
    62d1:	d3 fe                	sar    %cl,%esi
    62d3:	89 f0                	mov    %esi,%eax
    62d5:	39 c2                	cmp    %eax,%edx
    62d7:	7f 0f                	jg     62e8 <safe_lshift_func_int8_t_s_s+0x47>
    62d9:	0f be 55 fc          	movsbl -0x4(%rbp),%edx
    62dd:	8b 45 f8             	mov    -0x8(%rbp),%eax
    62e0:	89 c1                	mov    %eax,%ecx
    62e2:	d3 e2                	shl    %cl,%edx
    62e4:	89 d0                	mov    %edx,%eax
    62e6:	eb 04                	jmp    62ec <safe_lshift_func_int8_t_s_s+0x4b>
    62e8:	0f b6 45 fc          	movzbl -0x4(%rbp),%eax
    62ec:	5d                   	pop    %rbp
    62ed:	c3                   	retq   

00000000000062ee <safe_lshift_func_int8_t_s_u>:
    62ee:	f3 0f 1e fa          	endbr64 
    62f2:	55                   	push   %rbp
    62f3:	48 89 e5             	mov    %rsp,%rbp
    62f6:	89 f8                	mov    %edi,%eax
    62f8:	89 75 f8             	mov    %esi,-0x8(%rbp)
    62fb:	88 45 fc             	mov    %al,-0x4(%rbp)
    62fe:	80 7d fc 00          	cmpb   $0x0,-0x4(%rbp)
    6302:	78 2b                	js     632f <safe_lshift_func_int8_t_s_u+0x41>
    6304:	83 7d f8 1f          	cmpl   $0x1f,-0x8(%rbp)
    6308:	77 25                	ja     632f <safe_lshift_func_int8_t_s_u+0x41>
    630a:	0f be 55 fc          	movsbl -0x4(%rbp),%edx
    630e:	8b 45 f8             	mov    -0x8(%rbp),%eax
    6311:	be 7f 00 00 00       	mov    $0x7f,%esi
    6316:	89 c1                	mov    %eax,%ecx
    6318:	d3 fe                	sar    %cl,%esi
    631a:	89 f0                	mov    %esi,%eax
    631c:	39 c2                	cmp    %eax,%edx
    631e:	7f 0f                	jg     632f <safe_lshift_func_int8_t_s_u+0x41>
    6320:	0f be 55 fc          	movsbl -0x4(%rbp),%edx
    6324:	8b 45 f8             	mov    -0x8(%rbp),%eax
    6327:	89 c1                	mov    %eax,%ecx
    6329:	d3 e2                	shl    %cl,%edx
    632b:	89 d0                	mov    %edx,%eax
    632d:	eb 04                	jmp    6333 <safe_lshift_func_int8_t_s_u+0x45>
    632f:	0f b6 45 fc          	movzbl -0x4(%rbp),%eax
    6333:	5d                   	pop    %rbp
    6334:	c3                   	retq   

0000000000006335 <safe_rshift_func_int8_t_s_s>:
    6335:	f3 0f 1e fa          	endbr64 
    6339:	55                   	push   %rbp
    633a:	48 89 e5             	mov    %rsp,%rbp
    633d:	89 f8                	mov    %edi,%eax
    633f:	89 75 f8             	mov    %esi,-0x8(%rbp)
    6342:	88 45 fc             	mov    %al,-0x4(%rbp)
    6345:	80 7d fc 00          	cmpb   $0x0,-0x4(%rbp)
    6349:	78 1b                	js     6366 <safe_rshift_func_int8_t_s_s+0x31>
    634b:	83 7d f8 00          	cmpl   $0x0,-0x8(%rbp)
    634f:	78 15                	js     6366 <safe_rshift_func_int8_t_s_s+0x31>
    6351:	83 7d f8 1f          	cmpl   $0x1f,-0x8(%rbp)
    6355:	7f 0f                	jg     6366 <safe_rshift_func_int8_t_s_s+0x31>
    6357:	0f be 55 fc          	movsbl -0x4(%rbp),%edx
    635b:	8b 45 f8             	mov    -0x8(%rbp),%eax
    635e:	89 c1                	mov    %eax,%ecx
    6360:	d3 fa                	sar    %cl,%edx
    6362:	89 d0                	mov    %edx,%eax
    6364:	eb 04                	jmp    636a <safe_rshift_func_int8_t_s_s+0x35>
    6366:	0f b6 45 fc          	movzbl -0x4(%rbp),%eax
    636a:	5d                   	pop    %rbp
    636b:	c3                   	retq   

000000000000636c <safe_rshift_func_int8_t_s_u>:
    636c:	f3 0f 1e fa          	endbr64 
    6370:	55                   	push   %rbp
    6371:	48 89 e5             	mov    %rsp,%rbp
    6374:	89 f8                	mov    %edi,%eax
    6376:	89 75 f8             	mov    %esi,-0x8(%rbp)
    6379:	88 45 fc             	mov    %al,-0x4(%rbp)
    637c:	80 7d fc 00          	cmpb   $0x0,-0x4(%rbp)
    6380:	78 15                	js     6397 <safe_rshift_func_int8_t_s_u+0x2b>
    6382:	83 7d f8 1f          	cmpl   $0x1f,-0x8(%rbp)
    6386:	77 0f                	ja     6397 <safe_rshift_func_int8_t_s_u+0x2b>
    6388:	0f be 55 fc          	movsbl -0x4(%rbp),%edx
    638c:	8b 45 f8             	mov    -0x8(%rbp),%eax
    638f:	89 c1                	mov    %eax,%ecx
    6391:	d3 fa                	sar    %cl,%edx
    6393:	89 d0                	mov    %edx,%eax
    6395:	eb 04                	jmp    639b <safe_rshift_func_int8_t_s_u+0x2f>
    6397:	0f b6 45 fc          	movzbl -0x4(%rbp),%eax
    639b:	5d                   	pop    %rbp
    639c:	c3                   	retq   

000000000000639d <safe_unary_minus_func_int16_t_s>:
    639d:	f3 0f 1e fa          	endbr64 
    63a1:	55                   	push   %rbp
    63a2:	48 89 e5             	mov    %rsp,%rbp
    63a5:	89 f8                	mov    %edi,%eax
    63a7:	66 89 45 fc          	mov    %ax,-0x4(%rbp)
    63ab:	0f b7 45 fc          	movzwl -0x4(%rbp),%eax
    63af:	f7 d8                	neg    %eax
    63b1:	5d                   	pop    %rbp
    63b2:	c3                   	retq   

00000000000063b3 <safe_add_func_int16_t_s_s>:
    63b3:	f3 0f 1e fa          	endbr64 
    63b7:	55                   	push   %rbp
    63b8:	48 89 e5             	mov    %rsp,%rbp
    63bb:	89 fa                	mov    %edi,%edx
    63bd:	89 f0                	mov    %esi,%eax
    63bf:	66 89 55 fc          	mov    %dx,-0x4(%rbp)
    63c3:	66 89 45 f8          	mov    %ax,-0x8(%rbp)
    63c7:	0f b7 55 fc          	movzwl -0x4(%rbp),%edx
    63cb:	0f b7 45 f8          	movzwl -0x8(%rbp),%eax
    63cf:	01 d0                	add    %edx,%eax
    63d1:	5d                   	pop    %rbp
    63d2:	c3                   	retq   

00000000000063d3 <safe_sub_func_int16_t_s_s>:
    63d3:	f3 0f 1e fa          	endbr64 
    63d7:	55                   	push   %rbp
    63d8:	48 89 e5             	mov    %rsp,%rbp
    63db:	89 fa                	mov    %edi,%edx
    63dd:	89 f0                	mov    %esi,%eax
    63df:	66 89 55 fc          	mov    %dx,-0x4(%rbp)
    63e3:	66 89 45 f8          	mov    %ax,-0x8(%rbp)
    63e7:	0f b7 55 fc          	movzwl -0x4(%rbp),%edx
    63eb:	0f b7 45 f8          	movzwl -0x8(%rbp),%eax
    63ef:	29 c2                	sub    %eax,%edx
    63f1:	89 d0                	mov    %edx,%eax
    63f3:	5d                   	pop    %rbp
    63f4:	c3                   	retq   

00000000000063f5 <safe_mul_func_int16_t_s_s>:
    63f5:	f3 0f 1e fa          	endbr64 
    63f9:	55                   	push   %rbp
    63fa:	48 89 e5             	mov    %rsp,%rbp
    63fd:	89 fa                	mov    %edi,%edx
    63ff:	89 f0                	mov    %esi,%eax
    6401:	66 89 55 fc          	mov    %dx,-0x4(%rbp)
    6405:	66 89 45 f8          	mov    %ax,-0x8(%rbp)
    6409:	0f b7 55 fc          	movzwl -0x4(%rbp),%edx
    640d:	0f b7 45 f8          	movzwl -0x8(%rbp),%eax
    6411:	0f af c2             	imul   %edx,%eax
    6414:	5d                   	pop    %rbp
    6415:	c3                   	retq   

0000000000006416 <safe_mod_func_int16_t_s_s>:
    6416:	f3 0f 1e fa          	endbr64 
    641a:	55                   	push   %rbp
    641b:	48 89 e5             	mov    %rsp,%rbp
    641e:	89 fa                	mov    %edi,%edx
    6420:	89 f0                	mov    %esi,%eax
    6422:	66 89 55 fc          	mov    %dx,-0x4(%rbp)
    6426:	66 89 45 f8          	mov    %ax,-0x8(%rbp)
    642a:	66 83 7d f8 00       	cmpw   $0x0,-0x8(%rbp)
    642f:	74 1e                	je     644f <safe_mod_func_int16_t_s_s+0x39>
    6431:	66 81 7d fc 00 80    	cmpw   $0x8000,-0x4(%rbp)
    6437:	75 07                	jne    6440 <safe_mod_func_int16_t_s_s+0x2a>
    6439:	66 83 7d f8 ff       	cmpw   $0xffff,-0x8(%rbp)
    643e:	74 0f                	je     644f <safe_mod_func_int16_t_s_s+0x39>
    6440:	0f bf 45 fc          	movswl -0x4(%rbp),%eax
    6444:	0f bf 4d f8          	movswl -0x8(%rbp),%ecx
    6448:	99                   	cltd   
    6449:	f7 f9                	idiv   %ecx
    644b:	89 d0                	mov    %edx,%eax
    644d:	eb 04                	jmp    6453 <safe_mod_func_int16_t_s_s+0x3d>
    644f:	0f b7 45 fc          	movzwl -0x4(%rbp),%eax
    6453:	5d                   	pop    %rbp
    6454:	c3                   	retq   

0000000000006455 <safe_div_func_int16_t_s_s>:
    6455:	f3 0f 1e fa          	endbr64 
    6459:	55                   	push   %rbp
    645a:	48 89 e5             	mov    %rsp,%rbp
    645d:	89 fa                	mov    %edi,%edx
    645f:	89 f0                	mov    %esi,%eax
    6461:	66 89 55 fc          	mov    %dx,-0x4(%rbp)
    6465:	66 89 45 f8          	mov    %ax,-0x8(%rbp)
    6469:	66 83 7d f8 00       	cmpw   $0x0,-0x8(%rbp)
    646e:	74 1c                	je     648c <safe_div_func_int16_t_s_s+0x37>
    6470:	66 81 7d fc 00 80    	cmpw   $0x8000,-0x4(%rbp)
    6476:	75 07                	jne    647f <safe_div_func_int16_t_s_s+0x2a>
    6478:	66 83 7d f8 ff       	cmpw   $0xffff,-0x8(%rbp)
    647d:	74 0d                	je     648c <safe_div_func_int16_t_s_s+0x37>
    647f:	0f bf 45 fc          	movswl -0x4(%rbp),%eax
    6483:	0f bf 4d f8          	movswl -0x8(%rbp),%ecx
    6487:	99                   	cltd   
    6488:	f7 f9                	idiv   %ecx
    648a:	eb 04                	jmp    6490 <safe_div_func_int16_t_s_s+0x3b>
    648c:	0f b7 45 fc          	movzwl -0x4(%rbp),%eax
    6490:	5d                   	pop    %rbp
    6491:	c3                   	retq   

0000000000006492 <safe_lshift_func_int16_t_s_s>:
    6492:	f3 0f 1e fa          	endbr64 
    6496:	55                   	push   %rbp
    6497:	48 89 e5             	mov    %rsp,%rbp
    649a:	89 f8                	mov    %edi,%eax
    649c:	89 75 f8             	mov    %esi,-0x8(%rbp)
    649f:	66 89 45 fc          	mov    %ax,-0x4(%rbp)
    64a3:	66 83 7d fc 00       	cmpw   $0x0,-0x4(%rbp)
    64a8:	78 31                	js     64db <safe_lshift_func_int16_t_s_s+0x49>
    64aa:	83 7d f8 00          	cmpl   $0x0,-0x8(%rbp)
    64ae:	78 2b                	js     64db <safe_lshift_func_int16_t_s_s+0x49>
    64b0:	83 7d f8 1f          	cmpl   $0x1f,-0x8(%rbp)
    64b4:	7f 25                	jg     64db <safe_lshift_func_int16_t_s_s+0x49>
    64b6:	0f bf 55 fc          	movswl -0x4(%rbp),%edx
    64ba:	8b 45 f8             	mov    -0x8(%rbp),%eax
    64bd:	be ff 7f 00 00       	mov    $0x7fff,%esi
    64c2:	89 c1                	mov    %eax,%ecx
    64c4:	d3 fe                	sar    %cl,%esi
    64c6:	89 f0                	mov    %esi,%eax
    64c8:	39 c2                	cmp    %eax,%edx
    64ca:	7f 0f                	jg     64db <safe_lshift_func_int16_t_s_s+0x49>
    64cc:	0f bf 55 fc          	movswl -0x4(%rbp),%edx
    64d0:	8b 45 f8             	mov    -0x8(%rbp),%eax
    64d3:	89 c1                	mov    %eax,%ecx
    64d5:	d3 e2                	shl    %cl,%edx
    64d7:	89 d0                	mov    %edx,%eax
    64d9:	eb 04                	jmp    64df <safe_lshift_func_int16_t_s_s+0x4d>
    64db:	0f b7 45 fc          	movzwl -0x4(%rbp),%eax
    64df:	5d                   	pop    %rbp
    64e0:	c3                   	retq   

00000000000064e1 <safe_lshift_func_int16_t_s_u>:
    64e1:	f3 0f 1e fa          	endbr64 
    64e5:	55                   	push   %rbp
    64e6:	48 89 e5             	mov    %rsp,%rbp
    64e9:	89 f8                	mov    %edi,%eax
    64eb:	89 75 f8             	mov    %esi,-0x8(%rbp)
    64ee:	66 89 45 fc          	mov    %ax,-0x4(%rbp)
    64f2:	66 83 7d fc 00       	cmpw   $0x0,-0x4(%rbp)
    64f7:	78 2b                	js     6524 <safe_lshift_func_int16_t_s_u+0x43>
    64f9:	83 7d f8 1f          	cmpl   $0x1f,-0x8(%rbp)
    64fd:	77 25                	ja     6524 <safe_lshift_func_int16_t_s_u+0x43>
    64ff:	0f bf 55 fc          	movswl -0x4(%rbp),%edx
    6503:	8b 45 f8             	mov    -0x8(%rbp),%eax
    6506:	be ff 7f 00 00       	mov    $0x7fff,%esi
    650b:	89 c1                	mov    %eax,%ecx
    650d:	d3 fe                	sar    %cl,%esi
    650f:	89 f0                	mov    %esi,%eax
    6511:	39 c2                	cmp    %eax,%edx
    6513:	7f 0f                	jg     6524 <safe_lshift_func_int16_t_s_u+0x43>
    6515:	0f bf 55 fc          	movswl -0x4(%rbp),%edx
    6519:	8b 45 f8             	mov    -0x8(%rbp),%eax
    651c:	89 c1                	mov    %eax,%ecx
    651e:	d3 e2                	shl    %cl,%edx
    6520:	89 d0                	mov    %edx,%eax
    6522:	eb 04                	jmp    6528 <safe_lshift_func_int16_t_s_u+0x47>
    6524:	0f b7 45 fc          	movzwl -0x4(%rbp),%eax
    6528:	5d                   	pop    %rbp
    6529:	c3                   	retq   

000000000000652a <safe_rshift_func_int16_t_s_s>:
    652a:	f3 0f 1e fa          	endbr64 
    652e:	55                   	push   %rbp
    652f:	48 89 e5             	mov    %rsp,%rbp
    6532:	89 f8                	mov    %edi,%eax
    6534:	89 75 f8             	mov    %esi,-0x8(%rbp)
    6537:	66 89 45 fc          	mov    %ax,-0x4(%rbp)
    653b:	66 83 7d fc 00       	cmpw   $0x0,-0x4(%rbp)
    6540:	78 1b                	js     655d <safe_rshift_func_int16_t_s_s+0x33>
    6542:	83 7d f8 00          	cmpl   $0x0,-0x8(%rbp)
    6546:	78 15                	js     655d <safe_rshift_func_int16_t_s_s+0x33>
    6548:	83 7d f8 1f          	cmpl   $0x1f,-0x8(%rbp)
    654c:	7f 0f                	jg     655d <safe_rshift_func_int16_t_s_s+0x33>
    654e:	0f bf 55 fc          	movswl -0x4(%rbp),%edx
    6552:	8b 45 f8             	mov    -0x8(%rbp),%eax
    6555:	89 c1                	mov    %eax,%ecx
    6557:	d3 fa                	sar    %cl,%edx
    6559:	89 d0                	mov    %edx,%eax
    655b:	eb 04                	jmp    6561 <safe_rshift_func_int16_t_s_s+0x37>
    655d:	0f b7 45 fc          	movzwl -0x4(%rbp),%eax
    6561:	5d                   	pop    %rbp
    6562:	c3                   	retq   

0000000000006563 <safe_rshift_func_int16_t_s_u>:
    6563:	f3 0f 1e fa          	endbr64 
    6567:	55                   	push   %rbp
    6568:	48 89 e5             	mov    %rsp,%rbp
    656b:	89 f8                	mov    %edi,%eax
    656d:	89 75 f8             	mov    %esi,-0x8(%rbp)
    6570:	66 89 45 fc          	mov    %ax,-0x4(%rbp)
    6574:	66 83 7d fc 00       	cmpw   $0x0,-0x4(%rbp)
    6579:	78 15                	js     6590 <safe_rshift_func_int16_t_s_u+0x2d>
    657b:	83 7d f8 1f          	cmpl   $0x1f,-0x8(%rbp)
    657f:	77 0f                	ja     6590 <safe_rshift_func_int16_t_s_u+0x2d>
    6581:	0f bf 55 fc          	movswl -0x4(%rbp),%edx
    6585:	8b 45 f8             	mov    -0x8(%rbp),%eax
    6588:	89 c1                	mov    %eax,%ecx
    658a:	d3 fa                	sar    %cl,%edx
    658c:	89 d0                	mov    %edx,%eax
    658e:	eb 04                	jmp    6594 <safe_rshift_func_int16_t_s_u+0x31>
    6590:	0f b7 45 fc          	movzwl -0x4(%rbp),%eax
    6594:	5d                   	pop    %rbp
    6595:	c3                   	retq   

0000000000006596 <safe_unary_minus_func_int32_t_s>:
    6596:	f3 0f 1e fa          	endbr64 
    659a:	55                   	push   %rbp
    659b:	48 89 e5             	mov    %rsp,%rbp
    659e:	89 7d fc             	mov    %edi,-0x4(%rbp)
    65a1:	81 7d fc 00 00 00 80 	cmpl   $0x80000000,-0x4(%rbp)
    65a8:	74 07                	je     65b1 <safe_unary_minus_func_int32_t_s+0x1b>
    65aa:	8b 45 fc             	mov    -0x4(%rbp),%eax
    65ad:	f7 d8                	neg    %eax
    65af:	eb 03                	jmp    65b4 <safe_unary_minus_func_int32_t_s+0x1e>
    65b1:	8b 45 fc             	mov    -0x4(%rbp),%eax
    65b4:	5d                   	pop    %rbp
    65b5:	c3                   	retq   

00000000000065b6 <safe_add_func_int32_t_s_s>:
    65b6:	f3 0f 1e fa          	endbr64 
    65ba:	55                   	push   %rbp
    65bb:	48 89 e5             	mov    %rsp,%rbp
    65be:	89 7d fc             	mov    %edi,-0x4(%rbp)
    65c1:	89 75 f8             	mov    %esi,-0x8(%rbp)
    65c4:	83 7d fc 00          	cmpl   $0x0,-0x4(%rbp)
    65c8:	7e 13                	jle    65dd <safe_add_func_int32_t_s_s+0x27>
    65ca:	83 7d f8 00          	cmpl   $0x0,-0x8(%rbp)
    65ce:	7e 0d                	jle    65dd <safe_add_func_int32_t_s_s+0x27>
    65d0:	b8 ff ff ff 7f       	mov    $0x7fffffff,%eax
    65d5:	2b 45 f8             	sub    -0x8(%rbp),%eax
    65d8:	39 45 fc             	cmp    %eax,-0x4(%rbp)
    65db:	7f 23                	jg     6600 <safe_add_func_int32_t_s_s+0x4a>
    65dd:	83 7d fc 00          	cmpl   $0x0,-0x4(%rbp)
    65e1:	79 13                	jns    65f6 <safe_add_func_int32_t_s_s+0x40>
    65e3:	83 7d f8 00          	cmpl   $0x0,-0x8(%rbp)
    65e7:	79 0d                	jns    65f6 <safe_add_func_int32_t_s_s+0x40>
    65e9:	b8 00 00 00 80       	mov    $0x80000000,%eax
    65ee:	2b 45 f8             	sub    -0x8(%rbp),%eax
    65f1:	39 45 fc             	cmp    %eax,-0x4(%rbp)
    65f4:	7c 0a                	jl     6600 <safe_add_func_int32_t_s_s+0x4a>
    65f6:	8b 55 fc             	mov    -0x4(%rbp),%edx
    65f9:	8b 45 f8             	mov    -0x8(%rbp),%eax
    65fc:	01 d0                	add    %edx,%eax
    65fe:	eb 03                	jmp    6603 <safe_add_func_int32_t_s_s+0x4d>
    6600:	8b 45 fc             	mov    -0x4(%rbp),%eax
    6603:	5d                   	pop    %rbp
    6604:	c3                   	retq   

0000000000006605 <safe_sub_func_int32_t_s_s>:
    6605:	f3 0f 1e fa          	endbr64 
    6609:	55                   	push   %rbp
    660a:	48 89 e5             	mov    %rsp,%rbp
    660d:	89 7d fc             	mov    %edi,-0x4(%rbp)
    6610:	89 75 f8             	mov    %esi,-0x8(%rbp)
    6613:	8b 45 fc             	mov    -0x4(%rbp),%eax
    6616:	33 45 f8             	xor    -0x8(%rbp),%eax
    6619:	89 c2                	mov    %eax,%edx
    661b:	8b 45 fc             	mov    -0x4(%rbp),%eax
    661e:	33 45 f8             	xor    -0x8(%rbp),%eax
    6621:	25 00 00 00 80       	and    $0x80000000,%eax
    6626:	33 45 fc             	xor    -0x4(%rbp),%eax
    6629:	2b 45 f8             	sub    -0x8(%rbp),%eax
    662c:	33 45 f8             	xor    -0x8(%rbp),%eax
    662f:	21 d0                	and    %edx,%eax
    6631:	85 c0                	test   %eax,%eax
    6633:	78 08                	js     663d <safe_sub_func_int32_t_s_s+0x38>
    6635:	8b 45 fc             	mov    -0x4(%rbp),%eax
    6638:	2b 45 f8             	sub    -0x8(%rbp),%eax
    663b:	eb 03                	jmp    6640 <safe_sub_func_int32_t_s_s+0x3b>
    663d:	8b 45 fc             	mov    -0x4(%rbp),%eax
    6640:	5d                   	pop    %rbp
    6641:	c3                   	retq   

0000000000006642 <safe_mul_func_int32_t_s_s>:
    6642:	f3 0f 1e fa          	endbr64 
    6646:	55                   	push   %rbp
    6647:	48 89 e5             	mov    %rsp,%rbp
    664a:	89 7d fc             	mov    %edi,-0x4(%rbp)
    664d:	89 75 f8             	mov    %esi,-0x8(%rbp)
    6650:	83 7d fc 00          	cmpl   $0x0,-0x4(%rbp)
    6654:	7e 14                	jle    666a <safe_mul_func_int32_t_s_s+0x28>
    6656:	83 7d f8 00          	cmpl   $0x0,-0x8(%rbp)
    665a:	7e 0e                	jle    666a <safe_mul_func_int32_t_s_s+0x28>
    665c:	b8 ff ff ff 7f       	mov    $0x7fffffff,%eax
    6661:	99                   	cltd   
    6662:	f7 7d f8             	idivl  -0x8(%rbp)
    6665:	39 45 fc             	cmp    %eax,-0x4(%rbp)
    6668:	7f 5d                	jg     66c7 <safe_mul_func_int32_t_s_s+0x85>
    666a:	83 7d fc 00          	cmpl   $0x0,-0x4(%rbp)
    666e:	7e 14                	jle    6684 <safe_mul_func_int32_t_s_s+0x42>
    6670:	83 7d f8 00          	cmpl   $0x0,-0x8(%rbp)
    6674:	7f 0e                	jg     6684 <safe_mul_func_int32_t_s_s+0x42>
    6676:	b8 00 00 00 80       	mov    $0x80000000,%eax
    667b:	99                   	cltd   
    667c:	f7 7d fc             	idivl  -0x4(%rbp)
    667f:	39 45 f8             	cmp    %eax,-0x8(%rbp)
    6682:	7c 43                	jl     66c7 <safe_mul_func_int32_t_s_s+0x85>
    6684:	83 7d fc 00          	cmpl   $0x0,-0x4(%rbp)
    6688:	7f 14                	jg     669e <safe_mul_func_int32_t_s_s+0x5c>
    668a:	83 7d f8 00          	cmpl   $0x0,-0x8(%rbp)
    668e:	7e 0e                	jle    669e <safe_mul_func_int32_t_s_s+0x5c>
    6690:	b8 00 00 00 80       	mov    $0x80000000,%eax
    6695:	99                   	cltd   
    6696:	f7 7d f8             	idivl  -0x8(%rbp)
    6699:	39 45 fc             	cmp    %eax,-0x4(%rbp)
    669c:	7c 29                	jl     66c7 <safe_mul_func_int32_t_s_s+0x85>
    669e:	83 7d fc 00          	cmpl   $0x0,-0x4(%rbp)
    66a2:	7f 1a                	jg     66be <safe_mul_func_int32_t_s_s+0x7c>
    66a4:	83 7d f8 00          	cmpl   $0x0,-0x8(%rbp)
    66a8:	7f 14                	jg     66be <safe_mul_func_int32_t_s_s+0x7c>
    66aa:	83 7d fc 00          	cmpl   $0x0,-0x4(%rbp)
    66ae:	74 0e                	je     66be <safe_mul_func_int32_t_s_s+0x7c>
    66b0:	b8 ff ff ff 7f       	mov    $0x7fffffff,%eax
    66b5:	99                   	cltd   
    66b6:	f7 7d fc             	idivl  -0x4(%rbp)
    66b9:	39 45 f8             	cmp    %eax,-0x8(%rbp)
    66bc:	7c 09                	jl     66c7 <safe_mul_func_int32_t_s_s+0x85>
    66be:	8b 45 fc             	mov    -0x4(%rbp),%eax
    66c1:	0f af 45 f8          	imul   -0x8(%rbp),%eax
    66c5:	eb 03                	jmp    66ca <safe_mul_func_int32_t_s_s+0x88>
    66c7:	8b 45 fc             	mov    -0x4(%rbp),%eax
    66ca:	5d                   	pop    %rbp
    66cb:	c3                   	retq   

00000000000066cc <safe_mod_func_int32_t_s_s>:
    66cc:	f3 0f 1e fa          	endbr64 
    66d0:	55                   	push   %rbp
    66d1:	48 89 e5             	mov    %rsp,%rbp
    66d4:	89 7d fc             	mov    %edi,-0x4(%rbp)
    66d7:	89 75 f8             	mov    %esi,-0x8(%rbp)
    66da:	83 7d f8 00          	cmpl   $0x0,-0x8(%rbp)
    66de:	74 1a                	je     66fa <safe_mod_func_int32_t_s_s+0x2e>
    66e0:	81 7d fc 00 00 00 80 	cmpl   $0x80000000,-0x4(%rbp)
    66e7:	75 06                	jne    66ef <safe_mod_func_int32_t_s_s+0x23>
    66e9:	83 7d f8 ff          	cmpl   $0xffffffff,-0x8(%rbp)
    66ed:	74 0b                	je     66fa <safe_mod_func_int32_t_s_s+0x2e>
    66ef:	8b 45 fc             	mov    -0x4(%rbp),%eax
    66f2:	99                   	cltd   
    66f3:	f7 7d f8             	idivl  -0x8(%rbp)
    66f6:	89 d0                	mov    %edx,%eax
    66f8:	eb 03                	jmp    66fd <safe_mod_func_int32_t_s_s+0x31>
    66fa:	8b 45 fc             	mov    -0x4(%rbp),%eax
    66fd:	5d                   	pop    %rbp
    66fe:	c3                   	retq   

00000000000066ff <safe_div_func_int32_t_s_s>:
    66ff:	f3 0f 1e fa          	endbr64 
    6703:	55                   	push   %rbp
    6704:	48 89 e5             	mov    %rsp,%rbp
    6707:	89 7d fc             	mov    %edi,-0x4(%rbp)
    670a:	89 75 f8             	mov    %esi,-0x8(%rbp)
    670d:	83 7d f8 00          	cmpl   $0x0,-0x8(%rbp)
    6711:	74 18                	je     672b <safe_div_func_int32_t_s_s+0x2c>
    6713:	81 7d fc 00 00 00 80 	cmpl   $0x80000000,-0x4(%rbp)
    671a:	75 06                	jne    6722 <safe_div_func_int32_t_s_s+0x23>
    671c:	83 7d f8 ff          	cmpl   $0xffffffff,-0x8(%rbp)
    6720:	74 09                	je     672b <safe_div_func_int32_t_s_s+0x2c>
    6722:	8b 45 fc             	mov    -0x4(%rbp),%eax
    6725:	99                   	cltd   
    6726:	f7 7d f8             	idivl  -0x8(%rbp)
    6729:	eb 03                	jmp    672e <safe_div_func_int32_t_s_s+0x2f>
    672b:	8b 45 fc             	mov    -0x4(%rbp),%eax
    672e:	5d                   	pop    %rbp
    672f:	c3                   	retq   

0000000000006730 <safe_lshift_func_int32_t_s_s>:
    6730:	f3 0f 1e fa          	endbr64 
    6734:	55                   	push   %rbp
    6735:	48 89 e5             	mov    %rsp,%rbp
    6738:	89 7d fc             	mov    %edi,-0x4(%rbp)
    673b:	89 75 f8             	mov    %esi,-0x8(%rbp)
    673e:	83 7d fc 00          	cmpl   $0x0,-0x4(%rbp)
    6742:	78 2d                	js     6771 <safe_lshift_func_int32_t_s_s+0x41>
    6744:	83 7d f8 00          	cmpl   $0x0,-0x8(%rbp)
    6748:	78 27                	js     6771 <safe_lshift_func_int32_t_s_s+0x41>
    674a:	83 7d f8 1f          	cmpl   $0x1f,-0x8(%rbp)
    674e:	7f 21                	jg     6771 <safe_lshift_func_int32_t_s_s+0x41>
    6750:	8b 45 f8             	mov    -0x8(%rbp),%eax
    6753:	ba ff ff ff 7f       	mov    $0x7fffffff,%edx
    6758:	89 c1                	mov    %eax,%ecx
    675a:	d3 fa                	sar    %cl,%edx
    675c:	89 d0                	mov    %edx,%eax
    675e:	39 45 fc             	cmp    %eax,-0x4(%rbp)
    6761:	7f 0e                	jg     6771 <safe_lshift_func_int32_t_s_s+0x41>
    6763:	8b 45 f8             	mov    -0x8(%rbp),%eax
    6766:	8b 55 fc             	mov    -0x4(%rbp),%edx
    6769:	89 c1                	mov    %eax,%ecx
    676b:	d3 e2                	shl    %cl,%edx
    676d:	89 d0                	mov    %edx,%eax
    676f:	eb 03                	jmp    6774 <safe_lshift_func_int32_t_s_s+0x44>
    6771:	8b 45 fc             	mov    -0x4(%rbp),%eax
    6774:	5d                   	pop    %rbp
    6775:	c3                   	retq   

0000000000006776 <safe_lshift_func_int32_t_s_u>:
    6776:	f3 0f 1e fa          	endbr64 
    677a:	55                   	push   %rbp
    677b:	48 89 e5             	mov    %rsp,%rbp
    677e:	89 7d fc             	mov    %edi,-0x4(%rbp)
    6781:	89 75 f8             	mov    %esi,-0x8(%rbp)
    6784:	83 7d fc 00          	cmpl   $0x0,-0x4(%rbp)
    6788:	78 27                	js     67b1 <safe_lshift_func_int32_t_s_u+0x3b>
    678a:	83 7d f8 1f          	cmpl   $0x1f,-0x8(%rbp)
    678e:	77 21                	ja     67b1 <safe_lshift_func_int32_t_s_u+0x3b>
    6790:	8b 45 f8             	mov    -0x8(%rbp),%eax
    6793:	ba ff ff ff 7f       	mov    $0x7fffffff,%edx
    6798:	89 c1                	mov    %eax,%ecx
    679a:	d3 fa                	sar    %cl,%edx
    679c:	89 d0                	mov    %edx,%eax
    679e:	39 45 fc             	cmp    %eax,-0x4(%rbp)
    67a1:	7f 0e                	jg     67b1 <safe_lshift_func_int32_t_s_u+0x3b>
    67a3:	8b 45 f8             	mov    -0x8(%rbp),%eax
    67a6:	8b 55 fc             	mov    -0x4(%rbp),%edx
    67a9:	89 c1                	mov    %eax,%ecx
    67ab:	d3 e2                	shl    %cl,%edx
    67ad:	89 d0                	mov    %edx,%eax
    67af:	eb 03                	jmp    67b4 <safe_lshift_func_int32_t_s_u+0x3e>
    67b1:	8b 45 fc             	mov    -0x4(%rbp),%eax
    67b4:	5d                   	pop    %rbp
    67b5:	c3                   	retq   

00000000000067b6 <safe_rshift_func_int32_t_s_s>:
    67b6:	f3 0f 1e fa          	endbr64 
    67ba:	55                   	push   %rbp
    67bb:	48 89 e5             	mov    %rsp,%rbp
    67be:	89 7d fc             	mov    %edi,-0x4(%rbp)
    67c1:	89 75 f8             	mov    %esi,-0x8(%rbp)
    67c4:	83 7d fc 00          	cmpl   $0x0,-0x4(%rbp)
    67c8:	78 1a                	js     67e4 <safe_rshift_func_int32_t_s_s+0x2e>
    67ca:	83 7d f8 00          	cmpl   $0x0,-0x8(%rbp)
    67ce:	78 14                	js     67e4 <safe_rshift_func_int32_t_s_s+0x2e>
    67d0:	83 7d f8 1f          	cmpl   $0x1f,-0x8(%rbp)
    67d4:	7f 0e                	jg     67e4 <safe_rshift_func_int32_t_s_s+0x2e>
    67d6:	8b 45 f8             	mov    -0x8(%rbp),%eax
    67d9:	8b 55 fc             	mov    -0x4(%rbp),%edx
    67dc:	89 c1                	mov    %eax,%ecx
    67de:	d3 fa                	sar    %cl,%edx
    67e0:	89 d0                	mov    %edx,%eax
    67e2:	eb 03                	jmp    67e7 <safe_rshift_func_int32_t_s_s+0x31>
    67e4:	8b 45 fc             	mov    -0x4(%rbp),%eax
    67e7:	5d                   	pop    %rbp
    67e8:	c3                   	retq   

00000000000067e9 <safe_rshift_func_int32_t_s_u>:
    67e9:	f3 0f 1e fa          	endbr64 
    67ed:	55                   	push   %rbp
    67ee:	48 89 e5             	mov    %rsp,%rbp
    67f1:	89 7d fc             	mov    %edi,-0x4(%rbp)
    67f4:	89 75 f8             	mov    %esi,-0x8(%rbp)
    67f7:	83 7d fc 00          	cmpl   $0x0,-0x4(%rbp)
    67fb:	78 14                	js     6811 <safe_rshift_func_int32_t_s_u+0x28>
    67fd:	83 7d f8 1f          	cmpl   $0x1f,-0x8(%rbp)
    6801:	77 0e                	ja     6811 <safe_rshift_func_int32_t_s_u+0x28>
    6803:	8b 45 f8             	mov    -0x8(%rbp),%eax
    6806:	8b 55 fc             	mov    -0x4(%rbp),%edx
    6809:	89 c1                	mov    %eax,%ecx
    680b:	d3 fa                	sar    %cl,%edx
    680d:	89 d0                	mov    %edx,%eax
    680f:	eb 03                	jmp    6814 <safe_rshift_func_int32_t_s_u+0x2b>
    6811:	8b 45 fc             	mov    -0x4(%rbp),%eax
    6814:	5d                   	pop    %rbp
    6815:	c3                   	retq   

0000000000006816 <safe_unary_minus_func_int64_t_s>:
    6816:	f3 0f 1e fa          	endbr64 
    681a:	55                   	push   %rbp
    681b:	48 89 e5             	mov    %rsp,%rbp
    681e:	48 89 7d f8          	mov    %rdi,-0x8(%rbp)
    6822:	48 b8 00 00 00 00 00 	movabs $0x8000000000000000,%rax
    6829:	00 00 80 
    682c:	48 39 45 f8          	cmp    %rax,-0x8(%rbp)
    6830:	74 09                	je     683b <safe_unary_minus_func_int64_t_s+0x25>
    6832:	48 8b 45 f8          	mov    -0x8(%rbp),%rax
    6836:	48 f7 d8             	neg    %rax
    6839:	eb 04                	jmp    683f <safe_unary_minus_func_int64_t_s+0x29>
    683b:	48 8b 45 f8          	mov    -0x8(%rbp),%rax
    683f:	5d                   	pop    %rbp
    6840:	c3                   	retq   

0000000000006841 <safe_add_func_int64_t_s_s>:
    6841:	f3 0f 1e fa          	endbr64 
    6845:	55                   	push   %rbp
    6846:	48 89 e5             	mov    %rsp,%rbp
    6849:	48 89 7d f8          	mov    %rdi,-0x8(%rbp)
    684d:	48 89 75 f0          	mov    %rsi,-0x10(%rbp)
    6851:	48 83 7d f8 00       	cmpq   $0x0,-0x8(%rbp)
    6856:	7e 1b                	jle    6873 <safe_add_func_int64_t_s_s+0x32>
    6858:	48 83 7d f0 00       	cmpq   $0x0,-0x10(%rbp)
    685d:	7e 14                	jle    6873 <safe_add_func_int64_t_s_s+0x32>
    685f:	48 b8 ff ff ff ff ff 	movabs $0x7fffffffffffffff,%rax
    6866:	ff ff 7f 
    6869:	48 2b 45 f0          	sub    -0x10(%rbp),%rax
    686d:	48 39 45 f8          	cmp    %rax,-0x8(%rbp)
    6871:	7f 2f                	jg     68a2 <safe_add_func_int64_t_s_s+0x61>
    6873:	48 83 7d f8 00       	cmpq   $0x0,-0x8(%rbp)
    6878:	79 1b                	jns    6895 <safe_add_func_int64_t_s_s+0x54>
    687a:	48 83 7d f0 00       	cmpq   $0x0,-0x10(%rbp)
    687f:	79 14                	jns    6895 <safe_add_func_int64_t_s_s+0x54>
    6881:	48 b8 00 00 00 00 00 	movabs $0x8000000000000000,%rax
    6888:	00 00 80 
    688b:	48 2b 45 f0          	sub    -0x10(%rbp),%rax
    688f:	48 39 45 f8          	cmp    %rax,-0x8(%rbp)
    6893:	7c 0d                	jl     68a2 <safe_add_func_int64_t_s_s+0x61>
    6895:	48 8b 55 f8          	mov    -0x8(%rbp),%rdx
    6899:	48 8b 45 f0          	mov    -0x10(%rbp),%rax
    689d:	48 01 d0             	add    %rdx,%rax
    68a0:	eb 04                	jmp    68a6 <safe_add_func_int64_t_s_s+0x65>
    68a2:	48 8b 45 f8          	mov    -0x8(%rbp),%rax
    68a6:	5d                   	pop    %rbp
    68a7:	c3                   	retq   

00000000000068a8 <safe_sub_func_int64_t_s_s>:
    68a8:	f3 0f 1e fa          	endbr64 
    68ac:	55                   	push   %rbp
    68ad:	48 89 e5             	mov    %rsp,%rbp
    68b0:	48 89 7d f8          	mov    %rdi,-0x8(%rbp)
    68b4:	48 89 75 f0          	mov    %rsi,-0x10(%rbp)
    68b8:	48 8b 45 f8          	mov    -0x8(%rbp),%rax
    68bc:	48 33 45 f0          	xor    -0x10(%rbp),%rax
    68c0:	48 89 c2             	mov    %rax,%rdx
    68c3:	48 8b 45 f8          	mov    -0x8(%rbp),%rax
    68c7:	48 33 45 f0          	xor    -0x10(%rbp),%rax
    68cb:	48 b9 00 00 00 00 00 	movabs $0x8000000000000000,%rcx
    68d2:	00 00 80 
    68d5:	48 21 c8             	and    %rcx,%rax
    68d8:	48 33 45 f8          	xor    -0x8(%rbp),%rax
    68dc:	48 2b 45 f0          	sub    -0x10(%rbp),%rax
    68e0:	48 33 45 f0          	xor    -0x10(%rbp),%rax
    68e4:	48 21 d0             	and    %rdx,%rax
    68e7:	48 85 c0             	test   %rax,%rax
    68ea:	78 0a                	js     68f6 <safe_sub_func_int64_t_s_s+0x4e>
    68ec:	48 8b 45 f8          	mov    -0x8(%rbp),%rax
    68f0:	48 2b 45 f0          	sub    -0x10(%rbp),%rax
    68f4:	eb 04                	jmp    68fa <safe_sub_func_int64_t_s_s+0x52>
    68f6:	48 8b 45 f8          	mov    -0x8(%rbp),%rax
    68fa:	5d                   	pop    %rbp
    68fb:	c3                   	retq   

00000000000068fc <safe_mul_func_int64_t_s_s>:
    68fc:	f3 0f 1e fa          	endbr64 
    6900:	55                   	push   %rbp
    6901:	48 89 e5             	mov    %rsp,%rbp
    6904:	48 89 7d f8          	mov    %rdi,-0x8(%rbp)
    6908:	48 89 75 f0          	mov    %rsi,-0x10(%rbp)
    690c:	48 83 7d f8 00       	cmpq   $0x0,-0x8(%rbp)
    6911:	7e 1d                	jle    6930 <safe_mul_func_int64_t_s_s+0x34>
    6913:	48 83 7d f0 00       	cmpq   $0x0,-0x10(%rbp)
    6918:	7e 16                	jle    6930 <safe_mul_func_int64_t_s_s+0x34>
    691a:	48 b8 ff ff ff ff ff 	movabs $0x7fffffffffffffff,%rax
    6921:	ff ff 7f 
    6924:	48 99                	cqto   
    6926:	48 f7 7d f0          	idivq  -0x10(%rbp)
    692a:	48 39 45 f8          	cmp    %rax,-0x8(%rbp)
    692e:	7f 7e                	jg     69ae <safe_mul_func_int64_t_s_s+0xb2>
    6930:	48 83 7d f8 00       	cmpq   $0x0,-0x8(%rbp)
    6935:	7e 1d                	jle    6954 <safe_mul_func_int64_t_s_s+0x58>
    6937:	48 83 7d f0 00       	cmpq   $0x0,-0x10(%rbp)
    693c:	7f 16                	jg     6954 <safe_mul_func_int64_t_s_s+0x58>
    693e:	48 b8 00 00 00 00 00 	movabs $0x8000000000000000,%rax
    6945:	00 00 80 
    6948:	48 99                	cqto   
    694a:	48 f7 7d f8          	idivq  -0x8(%rbp)
    694e:	48 39 45 f0          	cmp    %rax,-0x10(%rbp)
    6952:	7c 5a                	jl     69ae <safe_mul_func_int64_t_s_s+0xb2>
    6954:	48 83 7d f8 00       	cmpq   $0x0,-0x8(%rbp)
    6959:	7f 1d                	jg     6978 <safe_mul_func_int64_t_s_s+0x7c>
    695b:	48 83 7d f0 00       	cmpq   $0x0,-0x10(%rbp)
    6960:	7e 16                	jle    6978 <safe_mul_func_int64_t_s_s+0x7c>
    6962:	48 b8 00 00 00 00 00 	movabs $0x8000000000000000,%rax
    6969:	00 00 80 
    696c:	48 99                	cqto   
    696e:	48 f7 7d f0          	idivq  -0x10(%rbp)
    6972:	48 39 45 f8          	cmp    %rax,-0x8(%rbp)
    6976:	7c 36                	jl     69ae <safe_mul_func_int64_t_s_s+0xb2>
    6978:	48 83 7d f8 00       	cmpq   $0x0,-0x8(%rbp)
    697d:	7f 24                	jg     69a3 <safe_mul_func_int64_t_s_s+0xa7>
    697f:	48 83 7d f0 00       	cmpq   $0x0,-0x10(%rbp)
    6984:	7f 1d                	jg     69a3 <safe_mul_func_int64_t_s_s+0xa7>
    6986:	48 83 7d f8 00       	cmpq   $0x0,-0x8(%rbp)
    698b:	74 16                	je     69a3 <safe_mul_func_int64_t_s_s+0xa7>
    698d:	48 b8 ff ff ff ff ff 	movabs $0x7fffffffffffffff,%rax
    6994:	ff ff 7f 
    6997:	48 99                	cqto   
    6999:	48 f7 7d f8          	idivq  -0x8(%rbp)
    699d:	48 39 45 f0          	cmp    %rax,-0x10(%rbp)
    69a1:	7c 0b                	jl     69ae <safe_mul_func_int64_t_s_s+0xb2>
    69a3:	48 8b 45 f8          	mov    -0x8(%rbp),%rax
    69a7:	48 0f af 45 f0       	imul   -0x10(%rbp),%rax
    69ac:	eb 04                	jmp    69b2 <safe_mul_func_int64_t_s_s+0xb6>
    69ae:	48 8b 45 f8          	mov    -0x8(%rbp),%rax
    69b2:	5d                   	pop    %rbp
    69b3:	c3                   	retq   

00000000000069b4 <safe_mod_func_int64_t_s_s>:
    69b4:	f3 0f 1e fa          	endbr64 
    69b8:	55                   	push   %rbp
    69b9:	48 89 e5             	mov    %rsp,%rbp
    69bc:	48 89 7d f8          	mov    %rdi,-0x8(%rbp)
    69c0:	48 89 75 f0          	mov    %rsi,-0x10(%rbp)
    69c4:	48 83 7d f0 00       	cmpq   $0x0,-0x10(%rbp)
    69c9:	74 26                	je     69f1 <safe_mod_func_int64_t_s_s+0x3d>
    69cb:	48 b8 00 00 00 00 00 	movabs $0x8000000000000000,%rax
    69d2:	00 00 80 
    69d5:	48 39 45 f8          	cmp    %rax,-0x8(%rbp)
    69d9:	75 07                	jne    69e2 <safe_mod_func_int64_t_s_s+0x2e>
    69db:	48 83 7d f0 ff       	cmpq   $0xffffffffffffffff,-0x10(%rbp)
    69e0:	74 0f                	je     69f1 <safe_mod_func_int64_t_s_s+0x3d>
    69e2:	48 8b 45 f8          	mov    -0x8(%rbp),%rax
    69e6:	48 99                	cqto   
    69e8:	48 f7 7d f0          	idivq  -0x10(%rbp)
    69ec:	48 89 d0             	mov    %rdx,%rax
    69ef:	eb 04                	jmp    69f5 <safe_mod_func_int64_t_s_s+0x41>
    69f1:	48 8b 45 f8          	mov    -0x8(%rbp),%rax
    69f5:	5d                   	pop    %rbp
    69f6:	c3                   	retq   

00000000000069f7 <safe_div_func_int64_t_s_s>:
    69f7:	f3 0f 1e fa          	endbr64 
    69fb:	55                   	push   %rbp
    69fc:	48 89 e5             	mov    %rsp,%rbp
    69ff:	48 89 7d f8          	mov    %rdi,-0x8(%rbp)
    6a03:	48 89 75 f0          	mov    %rsi,-0x10(%rbp)
    6a07:	48 83 7d f0 00       	cmpq   $0x0,-0x10(%rbp)
    6a0c:	74 23                	je     6a31 <safe_div_func_int64_t_s_s+0x3a>
    6a0e:	48 b8 00 00 00 00 00 	movabs $0x8000000000000000,%rax
    6a15:	00 00 80 
    6a18:	48 39 45 f8          	cmp    %rax,-0x8(%rbp)
    6a1c:	75 07                	jne    6a25 <safe_div_func_int64_t_s_s+0x2e>
    6a1e:	48 83 7d f0 ff       	cmpq   $0xffffffffffffffff,-0x10(%rbp)
    6a23:	74 0c                	je     6a31 <safe_div_func_int64_t_s_s+0x3a>
    6a25:	48 8b 45 f8          	mov    -0x8(%rbp),%rax
    6a29:	48 99                	cqto   
    6a2b:	48 f7 7d f0          	idivq  -0x10(%rbp)
    6a2f:	eb 04                	jmp    6a35 <safe_div_func_int64_t_s_s+0x3e>
    6a31:	48 8b 45 f8          	mov    -0x8(%rbp),%rax
    6a35:	5d                   	pop    %rbp
    6a36:	c3                   	retq   

0000000000006a37 <safe_lshift_func_int64_t_s_s>:
    6a37:	f3 0f 1e fa          	endbr64 
    6a3b:	55                   	push   %rbp
    6a3c:	48 89 e5             	mov    %rsp,%rbp
    6a3f:	48 89 7d f8          	mov    %rdi,-0x8(%rbp)
    6a43:	89 75 f4             	mov    %esi,-0xc(%rbp)
    6a46:	48 83 7d f8 00       	cmpq   $0x0,-0x8(%rbp)
    6a4b:	78 38                	js     6a85 <safe_lshift_func_int64_t_s_s+0x4e>
    6a4d:	83 7d f4 00          	cmpl   $0x0,-0xc(%rbp)
    6a51:	78 32                	js     6a85 <safe_lshift_func_int64_t_s_s+0x4e>
    6a53:	83 7d f4 1f          	cmpl   $0x1f,-0xc(%rbp)
    6a57:	7f 2c                	jg     6a85 <safe_lshift_func_int64_t_s_s+0x4e>
    6a59:	8b 45 f4             	mov    -0xc(%rbp),%eax
    6a5c:	48 ba ff ff ff ff ff 	movabs $0x7fffffffffffffff,%rdx
    6a63:	ff ff 7f 
    6a66:	89 c1                	mov    %eax,%ecx
    6a68:	48 d3 fa             	sar    %cl,%rdx
    6a6b:	48 89 d0             	mov    %rdx,%rax
    6a6e:	48 39 45 f8          	cmp    %rax,-0x8(%rbp)
    6a72:	7f 11                	jg     6a85 <safe_lshift_func_int64_t_s_s+0x4e>
    6a74:	8b 45 f4             	mov    -0xc(%rbp),%eax
    6a77:	48 8b 55 f8          	mov    -0x8(%rbp),%rdx
    6a7b:	89 c1                	mov    %eax,%ecx
    6a7d:	48 d3 e2             	shl    %cl,%rdx
    6a80:	48 89 d0             	mov    %rdx,%rax
    6a83:	eb 04                	jmp    6a89 <safe_lshift_func_int64_t_s_s+0x52>
    6a85:	48 8b 45 f8          	mov    -0x8(%rbp),%rax
    6a89:	5d                   	pop    %rbp
    6a8a:	c3                   	retq   

0000000000006a8b <safe_lshift_func_int64_t_s_u>:
    6a8b:	f3 0f 1e fa          	endbr64 
    6a8f:	55                   	push   %rbp
    6a90:	48 89 e5             	mov    %rsp,%rbp
    6a93:	48 89 7d f8          	mov    %rdi,-0x8(%rbp)
    6a97:	89 75 f4             	mov    %esi,-0xc(%rbp)
    6a9a:	48 83 7d f8 00       	cmpq   $0x0,-0x8(%rbp)
    6a9f:	78 32                	js     6ad3 <safe_lshift_func_int64_t_s_u+0x48>
    6aa1:	83 7d f4 1f          	cmpl   $0x1f,-0xc(%rbp)
    6aa5:	77 2c                	ja     6ad3 <safe_lshift_func_int64_t_s_u+0x48>
    6aa7:	8b 45 f4             	mov    -0xc(%rbp),%eax
    6aaa:	48 ba ff ff ff ff ff 	movabs $0x7fffffffffffffff,%rdx
    6ab1:	ff ff 7f 
    6ab4:	89 c1                	mov    %eax,%ecx
    6ab6:	48 d3 fa             	sar    %cl,%rdx
    6ab9:	48 89 d0             	mov    %rdx,%rax
    6abc:	48 39 45 f8          	cmp    %rax,-0x8(%rbp)
    6ac0:	7f 11                	jg     6ad3 <safe_lshift_func_int64_t_s_u+0x48>
    6ac2:	8b 45 f4             	mov    -0xc(%rbp),%eax
    6ac5:	48 8b 55 f8          	mov    -0x8(%rbp),%rdx
    6ac9:	89 c1                	mov    %eax,%ecx
    6acb:	48 d3 e2             	shl    %cl,%rdx
    6ace:	48 89 d0             	mov    %rdx,%rax
    6ad1:	eb 04                	jmp    6ad7 <safe_lshift_func_int64_t_s_u+0x4c>
    6ad3:	48 8b 45 f8          	mov    -0x8(%rbp),%rax
    6ad7:	5d                   	pop    %rbp
    6ad8:	c3                   	retq   

0000000000006ad9 <safe_rshift_func_int64_t_s_s>:
    6ad9:	f3 0f 1e fa          	endbr64 
    6add:	55                   	push   %rbp
    6ade:	48 89 e5             	mov    %rsp,%rbp
    6ae1:	48 89 7d f8          	mov    %rdi,-0x8(%rbp)
    6ae5:	89 75 f4             	mov    %esi,-0xc(%rbp)
    6ae8:	48 83 7d f8 00       	cmpq   $0x0,-0x8(%rbp)
    6aed:	78 1d                	js     6b0c <safe_rshift_func_int64_t_s_s+0x33>
    6aef:	83 7d f4 00          	cmpl   $0x0,-0xc(%rbp)
    6af3:	78 17                	js     6b0c <safe_rshift_func_int64_t_s_s+0x33>
    6af5:	83 7d f4 1f          	cmpl   $0x1f,-0xc(%rbp)
    6af9:	7f 11                	jg     6b0c <safe_rshift_func_int64_t_s_s+0x33>
    6afb:	8b 45 f4             	mov    -0xc(%rbp),%eax
    6afe:	48 8b 55 f8          	mov    -0x8(%rbp),%rdx
    6b02:	89 c1                	mov    %eax,%ecx
    6b04:	48 d3 fa             	sar    %cl,%rdx
    6b07:	48 89 d0             	mov    %rdx,%rax
    6b0a:	eb 04                	jmp    6b10 <safe_rshift_func_int64_t_s_s+0x37>
    6b0c:	48 8b 45 f8          	mov    -0x8(%rbp),%rax
    6b10:	5d                   	pop    %rbp
    6b11:	c3                   	retq   

0000000000006b12 <safe_rshift_func_int64_t_s_u>:
    6b12:	f3 0f 1e fa          	endbr64 
    6b16:	55                   	push   %rbp
    6b17:	48 89 e5             	mov    %rsp,%rbp
    6b1a:	48 89 7d f8          	mov    %rdi,-0x8(%rbp)
    6b1e:	89 75 f4             	mov    %esi,-0xc(%rbp)
    6b21:	48 83 7d f8 00       	cmpq   $0x0,-0x8(%rbp)
    6b26:	78 17                	js     6b3f <safe_rshift_func_int64_t_s_u+0x2d>
    6b28:	83 7d f4 1f          	cmpl   $0x1f,-0xc(%rbp)
    6b2c:	77 11                	ja     6b3f <safe_rshift_func_int64_t_s_u+0x2d>
    6b2e:	8b 45 f4             	mov    -0xc(%rbp),%eax
    6b31:	48 8b 55 f8          	mov    -0x8(%rbp),%rdx
    6b35:	89 c1                	mov    %eax,%ecx
    6b37:	48 d3 fa             	sar    %cl,%rdx
    6b3a:	48 89 d0             	mov    %rdx,%rax
    6b3d:	eb 04                	jmp    6b43 <safe_rshift_func_int64_t_s_u+0x31>
    6b3f:	48 8b 45 f8          	mov    -0x8(%rbp),%rax
    6b43:	5d                   	pop    %rbp
    6b44:	c3                   	retq   

0000000000006b45 <safe_unary_minus_func_uint8_t_u>:
    6b45:	f3 0f 1e fa          	endbr64 
    6b49:	55                   	push   %rbp
    6b4a:	48 89 e5             	mov    %rsp,%rbp
    6b4d:	89 f8                	mov    %edi,%eax
    6b4f:	88 45 fc             	mov    %al,-0x4(%rbp)
    6b52:	0f b6 45 fc          	movzbl -0x4(%rbp),%eax
    6b56:	f7 d8                	neg    %eax
    6b58:	5d                   	pop    %rbp
    6b59:	c3                   	retq   

0000000000006b5a <safe_add_func_uint8_t_u_u>:
    6b5a:	f3 0f 1e fa          	endbr64 
    6b5e:	55                   	push   %rbp
    6b5f:	48 89 e5             	mov    %rsp,%rbp
    6b62:	89 fa                	mov    %edi,%edx
    6b64:	89 f0                	mov    %esi,%eax
    6b66:	88 55 fc             	mov    %dl,-0x4(%rbp)
    6b69:	88 45 f8             	mov    %al,-0x8(%rbp)
    6b6c:	0f b6 55 fc          	movzbl -0x4(%rbp),%edx
    6b70:	0f b6 45 f8          	movzbl -0x8(%rbp),%eax
    6b74:	01 d0                	add    %edx,%eax
    6b76:	5d                   	pop    %rbp
    6b77:	c3                   	retq   

0000000000006b78 <safe_sub_func_uint8_t_u_u>:
    6b78:	f3 0f 1e fa          	endbr64 
    6b7c:	55                   	push   %rbp
    6b7d:	48 89 e5             	mov    %rsp,%rbp
    6b80:	89 fa                	mov    %edi,%edx
    6b82:	89 f0                	mov    %esi,%eax
    6b84:	88 55 fc             	mov    %dl,-0x4(%rbp)
    6b87:	88 45 f8             	mov    %al,-0x8(%rbp)
    6b8a:	0f b6 45 fc          	movzbl -0x4(%rbp),%eax
    6b8e:	2a 45 f8             	sub    -0x8(%rbp),%al
    6b91:	5d                   	pop    %rbp
    6b92:	c3                   	retq   

0000000000006b93 <safe_mul_func_uint8_t_u_u>:
    6b93:	f3 0f 1e fa          	endbr64 
    6b97:	55                   	push   %rbp
    6b98:	48 89 e5             	mov    %rsp,%rbp
    6b9b:	89 fa                	mov    %edi,%edx
    6b9d:	89 f0                	mov    %esi,%eax
    6b9f:	88 55 fc             	mov    %dl,-0x4(%rbp)
    6ba2:	88 45 f8             	mov    %al,-0x8(%rbp)
    6ba5:	0f b6 45 fc          	movzbl -0x4(%rbp),%eax
    6ba9:	f6 65 f8             	mulb   -0x8(%rbp)
    6bac:	5d                   	pop    %rbp
    6bad:	c3                   	retq   

0000000000006bae <safe_mod_func_uint8_t_u_u>:
    6bae:	f3 0f 1e fa          	endbr64 
    6bb2:	55                   	push   %rbp
    6bb3:	48 89 e5             	mov    %rsp,%rbp
    6bb6:	89 fa                	mov    %edi,%edx
    6bb8:	89 f0                	mov    %esi,%eax
    6bba:	88 55 fc             	mov    %dl,-0x4(%rbp)
    6bbd:	88 45 f8             	mov    %al,-0x8(%rbp)
    6bc0:	80 7d f8 00          	cmpb   $0x0,-0x8(%rbp)
    6bc4:	74 0f                	je     6bd5 <safe_mod_func_uint8_t_u_u+0x27>
    6bc6:	0f b6 45 fc          	movzbl -0x4(%rbp),%eax
    6bca:	0f b6 c0             	movzbl %al,%eax
    6bcd:	f6 75 f8             	divb   -0x8(%rbp)
    6bd0:	0f b6 c4             	movzbl %ah,%eax
    6bd3:	eb 04                	jmp    6bd9 <safe_mod_func_uint8_t_u_u+0x2b>
    6bd5:	0f b6 45 fc          	movzbl -0x4(%rbp),%eax
    6bd9:	5d                   	pop    %rbp
    6bda:	c3                   	retq   

0000000000006bdb <safe_div_func_uint8_t_u_u>:
    6bdb:	f3 0f 1e fa          	endbr64 
    6bdf:	55                   	push   %rbp
    6be0:	48 89 e5             	mov    %rsp,%rbp
    6be3:	89 fa                	mov    %edi,%edx
    6be5:	89 f0                	mov    %esi,%eax
    6be7:	88 55 fc             	mov    %dl,-0x4(%rbp)
    6bea:	88 45 f8             	mov    %al,-0x8(%rbp)
    6bed:	80 7d f8 00          	cmpb   $0x0,-0x8(%rbp)
    6bf1:	74 0c                	je     6bff <safe_div_func_uint8_t_u_u+0x24>
    6bf3:	0f b6 45 fc          	movzbl -0x4(%rbp),%eax
    6bf7:	0f b6 c0             	movzbl %al,%eax
    6bfa:	f6 75 f8             	divb   -0x8(%rbp)
    6bfd:	eb 04                	jmp    6c03 <safe_div_func_uint8_t_u_u+0x28>
    6bff:	0f b6 45 fc          	movzbl -0x4(%rbp),%eax
    6c03:	5d                   	pop    %rbp
    6c04:	c3                   	retq   

0000000000006c05 <safe_lshift_func_uint8_t_u_s>:
    6c05:	f3 0f 1e fa          	endbr64 
    6c09:	55                   	push   %rbp
    6c0a:	48 89 e5             	mov    %rsp,%rbp
    6c0d:	89 f8                	mov    %edi,%eax
    6c0f:	89 75 f8             	mov    %esi,-0x8(%rbp)
    6c12:	88 45 fc             	mov    %al,-0x4(%rbp)
    6c15:	83 7d f8 00          	cmpl   $0x0,-0x8(%rbp)
    6c19:	78 2b                	js     6c46 <safe_lshift_func_uint8_t_u_s+0x41>
    6c1b:	83 7d f8 1f          	cmpl   $0x1f,-0x8(%rbp)
    6c1f:	7f 25                	jg     6c46 <safe_lshift_func_uint8_t_u_s+0x41>
    6c21:	0f b6 55 fc          	movzbl -0x4(%rbp),%edx
    6c25:	8b 45 f8             	mov    -0x8(%rbp),%eax
    6c28:	be ff 00 00 00       	mov    $0xff,%esi
    6c2d:	89 c1                	mov    %eax,%ecx
    6c2f:	d3 fe                	sar    %cl,%esi
    6c31:	89 f0                	mov    %esi,%eax
    6c33:	39 c2                	cmp    %eax,%edx
    6c35:	7f 0f                	jg     6c46 <safe_lshift_func_uint8_t_u_s+0x41>
    6c37:	0f b6 55 fc          	movzbl -0x4(%rbp),%edx
    6c3b:	8b 45 f8             	mov    -0x8(%rbp),%eax
    6c3e:	89 c1                	mov    %eax,%ecx
    6c40:	d3 e2                	shl    %cl,%edx
    6c42:	89 d0                	mov    %edx,%eax
    6c44:	eb 04                	jmp    6c4a <safe_lshift_func_uint8_t_u_s+0x45>
    6c46:	0f b6 45 fc          	movzbl -0x4(%rbp),%eax
    6c4a:	5d                   	pop    %rbp
    6c4b:	c3                   	retq   

0000000000006c4c <safe_lshift_func_uint8_t_u_u>:
    6c4c:	f3 0f 1e fa          	endbr64 
    6c50:	55                   	push   %rbp
    6c51:	48 89 e5             	mov    %rsp,%rbp
    6c54:	89 f8                	mov    %edi,%eax
    6c56:	89 75 f8             	mov    %esi,-0x8(%rbp)
    6c59:	88 45 fc             	mov    %al,-0x4(%rbp)
    6c5c:	83 7d f8 1f          	cmpl   $0x1f,-0x8(%rbp)
    6c60:	77 25                	ja     6c87 <safe_lshift_func_uint8_t_u_u+0x3b>
    6c62:	0f b6 55 fc          	movzbl -0x4(%rbp),%edx
    6c66:	8b 45 f8             	mov    -0x8(%rbp),%eax
    6c69:	be ff 00 00 00       	mov    $0xff,%esi
    6c6e:	89 c1                	mov    %eax,%ecx
    6c70:	d3 fe                	sar    %cl,%esi
    6c72:	89 f0                	mov    %esi,%eax
    6c74:	39 c2                	cmp    %eax,%edx
    6c76:	7f 0f                	jg     6c87 <safe_lshift_func_uint8_t_u_u+0x3b>
    6c78:	0f b6 55 fc          	movzbl -0x4(%rbp),%edx
    6c7c:	8b 45 f8             	mov    -0x8(%rbp),%eax
    6c7f:	89 c1                	mov    %eax,%ecx
    6c81:	d3 e2                	shl    %cl,%edx
    6c83:	89 d0                	mov    %edx,%eax
    6c85:	eb 04                	jmp    6c8b <safe_lshift_func_uint8_t_u_u+0x3f>
    6c87:	0f b6 45 fc          	movzbl -0x4(%rbp),%eax
    6c8b:	5d                   	pop    %rbp
    6c8c:	c3                   	retq   

0000000000006c8d <safe_rshift_func_uint8_t_u_s>:
    6c8d:	f3 0f 1e fa          	endbr64 
    6c91:	55                   	push   %rbp
    6c92:	48 89 e5             	mov    %rsp,%rbp
    6c95:	89 f8                	mov    %edi,%eax
    6c97:	89 75 f8             	mov    %esi,-0x8(%rbp)
    6c9a:	88 45 fc             	mov    %al,-0x4(%rbp)
    6c9d:	83 7d f8 00          	cmpl   $0x0,-0x8(%rbp)
    6ca1:	78 15                	js     6cb8 <safe_rshift_func_uint8_t_u_s+0x2b>
    6ca3:	83 7d f8 1f          	cmpl   $0x1f,-0x8(%rbp)
    6ca7:	7f 0f                	jg     6cb8 <safe_rshift_func_uint8_t_u_s+0x2b>
    6ca9:	0f b6 55 fc          	movzbl -0x4(%rbp),%edx
    6cad:	8b 45 f8             	mov    -0x8(%rbp),%eax
    6cb0:	89 c1                	mov    %eax,%ecx
    6cb2:	d3 fa                	sar    %cl,%edx
    6cb4:	89 d0                	mov    %edx,%eax
    6cb6:	eb 04                	jmp    6cbc <safe_rshift_func_uint8_t_u_s+0x2f>
    6cb8:	0f b6 45 fc          	movzbl -0x4(%rbp),%eax
    6cbc:	5d                   	pop    %rbp
    6cbd:	c3                   	retq   

0000000000006cbe <safe_rshift_func_uint8_t_u_u>:
    6cbe:	f3 0f 1e fa          	endbr64 
    6cc2:	55                   	push   %rbp
    6cc3:	48 89 e5             	mov    %rsp,%rbp
    6cc6:	89 f8                	mov    %edi,%eax
    6cc8:	89 75 f8             	mov    %esi,-0x8(%rbp)
    6ccb:	88 45 fc             	mov    %al,-0x4(%rbp)
    6cce:	83 7d f8 1f          	cmpl   $0x1f,-0x8(%rbp)
    6cd2:	77 0f                	ja     6ce3 <safe_rshift_func_uint8_t_u_u+0x25>
    6cd4:	0f b6 55 fc          	movzbl -0x4(%rbp),%edx
    6cd8:	8b 45 f8             	mov    -0x8(%rbp),%eax
    6cdb:	89 c1                	mov    %eax,%ecx
    6cdd:	d3 fa                	sar    %cl,%edx
    6cdf:	89 d0                	mov    %edx,%eax
    6ce1:	eb 04                	jmp    6ce7 <safe_rshift_func_uint8_t_u_u+0x29>
    6ce3:	0f b6 45 fc          	movzbl -0x4(%rbp),%eax
    6ce7:	5d                   	pop    %rbp
    6ce8:	c3                   	retq   

0000000000006ce9 <safe_unary_minus_func_uint16_t_u>:
    6ce9:	f3 0f 1e fa          	endbr64 
    6ced:	55                   	push   %rbp
    6cee:	48 89 e5             	mov    %rsp,%rbp
    6cf1:	89 f8                	mov    %edi,%eax
    6cf3:	66 89 45 fc          	mov    %ax,-0x4(%rbp)
    6cf7:	0f b7 45 fc          	movzwl -0x4(%rbp),%eax
    6cfb:	f7 d8                	neg    %eax
    6cfd:	5d                   	pop    %rbp
    6cfe:	c3                   	retq   

0000000000006cff <safe_add_func_uint16_t_u_u>:
    6cff:	f3 0f 1e fa          	endbr64 
    6d03:	55                   	push   %rbp
    6d04:	48 89 e5             	mov    %rsp,%rbp
    6d07:	89 fa                	mov    %edi,%edx
    6d09:	89 f0                	mov    %esi,%eax
    6d0b:	66 89 55 fc          	mov    %dx,-0x4(%rbp)
    6d0f:	66 89 45 f8          	mov    %ax,-0x8(%rbp)
    6d13:	0f b7 55 fc          	movzwl -0x4(%rbp),%edx
    6d17:	0f b7 45 f8          	movzwl -0x8(%rbp),%eax
    6d1b:	01 d0                	add    %edx,%eax
    6d1d:	5d                   	pop    %rbp
    6d1e:	c3                   	retq   

0000000000006d1f <safe_sub_func_uint16_t_u_u>:
    6d1f:	f3 0f 1e fa          	endbr64 
    6d23:	55                   	push   %rbp
    6d24:	48 89 e5             	mov    %rsp,%rbp
    6d27:	89 fa                	mov    %edi,%edx
    6d29:	89 f0                	mov    %esi,%eax
    6d2b:	66 89 55 fc          	mov    %dx,-0x4(%rbp)
    6d2f:	66 89 45 f8          	mov    %ax,-0x8(%rbp)
    6d33:	0f b7 45 fc          	movzwl -0x4(%rbp),%eax
    6d37:	66 2b 45 f8          	sub    -0x8(%rbp),%ax
    6d3b:	5d                   	pop    %rbp
    6d3c:	c3                   	retq   

0000000000006d3d <safe_mul_func_uint16_t_u_u>:
    6d3d:	f3 0f 1e fa          	endbr64 
    6d41:	55                   	push   %rbp
    6d42:	48 89 e5             	mov    %rsp,%rbp
    6d45:	89 fa                	mov    %edi,%edx
    6d47:	89 f0                	mov    %esi,%eax
    6d49:	66 89 55 fc          	mov    %dx,-0x4(%rbp)
    6d4d:	66 89 45 f8          	mov    %ax,-0x8(%rbp)
    6d51:	0f b7 45 fc          	movzwl -0x4(%rbp),%eax
    6d55:	66 0f af 45 f8       	imul   -0x8(%rbp),%ax
    6d5a:	5d                   	pop    %rbp
    6d5b:	c3                   	retq   

0000000000006d5c <safe_mod_func_uint16_t_u_u>:
    6d5c:	f3 0f 1e fa          	endbr64 
    6d60:	55                   	push   %rbp
    6d61:	48 89 e5             	mov    %rsp,%rbp
    6d64:	89 fa                	mov    %edi,%edx
    6d66:	89 f0                	mov    %esi,%eax
    6d68:	66 89 55 fc          	mov    %dx,-0x4(%rbp)
    6d6c:	66 89 45 f8          	mov    %ax,-0x8(%rbp)
    6d70:	66 83 7d f8 00       	cmpw   $0x0,-0x8(%rbp)
    6d75:	74 11                	je     6d88 <safe_mod_func_uint16_t_u_u+0x2c>
    6d77:	0f b7 45 fc          	movzwl -0x4(%rbp),%eax
    6d7b:	ba 00 00 00 00       	mov    $0x0,%edx
    6d80:	66 f7 75 f8          	divw   -0x8(%rbp)
    6d84:	89 d0                	mov    %edx,%eax
    6d86:	eb 04                	jmp    6d8c <safe_mod_func_uint16_t_u_u+0x30>
    6d88:	0f b7 45 fc          	movzwl -0x4(%rbp),%eax
    6d8c:	5d                   	pop    %rbp
    6d8d:	c3                   	retq   

0000000000006d8e <safe_div_func_uint16_t_u_u>:
    6d8e:	f3 0f 1e fa          	endbr64 
    6d92:	55                   	push   %rbp
    6d93:	48 89 e5             	mov    %rsp,%rbp
    6d96:	89 fa                	mov    %edi,%edx
    6d98:	89 f0                	mov    %esi,%eax
    6d9a:	66 89 55 fc          	mov    %dx,-0x4(%rbp)
    6d9e:	66 89 45 f8          	mov    %ax,-0x8(%rbp)
    6da2:	66 83 7d f8 00       	cmpw   $0x0,-0x8(%rbp)
    6da7:	74 0f                	je     6db8 <safe_div_func_uint16_t_u_u+0x2a>
    6da9:	0f b7 45 fc          	movzwl -0x4(%rbp),%eax
    6dad:	ba 00 00 00 00       	mov    $0x0,%edx
    6db2:	66 f7 75 f8          	divw   -0x8(%rbp)
    6db6:	eb 04                	jmp    6dbc <safe_div_func_uint16_t_u_u+0x2e>
    6db8:	0f b7 45 fc          	movzwl -0x4(%rbp),%eax
    6dbc:	5d                   	pop    %rbp
    6dbd:	c3                   	retq   

0000000000006dbe <safe_lshift_func_uint16_t_u_s>:
    6dbe:	f3 0f 1e fa          	endbr64 
    6dc2:	55                   	push   %rbp
    6dc3:	48 89 e5             	mov    %rsp,%rbp
    6dc6:	89 f8                	mov    %edi,%eax
    6dc8:	89 75 f8             	mov    %esi,-0x8(%rbp)
    6dcb:	66 89 45 fc          	mov    %ax,-0x4(%rbp)
    6dcf:	83 7d f8 00          	cmpl   $0x0,-0x8(%rbp)
    6dd3:	78 2b                	js     6e00 <safe_lshift_func_uint16_t_u_s+0x42>
    6dd5:	83 7d f8 1f          	cmpl   $0x1f,-0x8(%rbp)
    6dd9:	7f 25                	jg     6e00 <safe_lshift_func_uint16_t_u_s+0x42>
    6ddb:	0f b7 55 fc          	movzwl -0x4(%rbp),%edx
    6ddf:	8b 45 f8             	mov    -0x8(%rbp),%eax
    6de2:	be ff ff 00 00       	mov    $0xffff,%esi
    6de7:	89 c1                	mov    %eax,%ecx
    6de9:	d3 fe                	sar    %cl,%esi
    6deb:	89 f0                	mov    %esi,%eax
    6ded:	39 c2                	cmp    %eax,%edx
    6def:	7f 0f                	jg     6e00 <safe_lshift_func_uint16_t_u_s+0x42>
    6df1:	0f b7 55 fc          	movzwl -0x4(%rbp),%edx
    6df5:	8b 45 f8             	mov    -0x8(%rbp),%eax
    6df8:	89 c1                	mov    %eax,%ecx
    6dfa:	d3 e2                	shl    %cl,%edx
    6dfc:	89 d0                	mov    %edx,%eax
    6dfe:	eb 04                	jmp    6e04 <safe_lshift_func_uint16_t_u_s+0x46>
    6e00:	0f b7 45 fc          	movzwl -0x4(%rbp),%eax
    6e04:	5d                   	pop    %rbp
    6e05:	c3                   	retq   

0000000000006e06 <safe_lshift_func_uint16_t_u_u>:
    6e06:	f3 0f 1e fa          	endbr64 
    6e0a:	55                   	push   %rbp
    6e0b:	48 89 e5             	mov    %rsp,%rbp
    6e0e:	89 f8                	mov    %edi,%eax
    6e10:	89 75 f8             	mov    %esi,-0x8(%rbp)
    6e13:	66 89 45 fc          	mov    %ax,-0x4(%rbp)
    6e17:	83 7d f8 1f          	cmpl   $0x1f,-0x8(%rbp)
    6e1b:	77 25                	ja     6e42 <safe_lshift_func_uint16_t_u_u+0x3c>
    6e1d:	0f b7 55 fc          	movzwl -0x4(%rbp),%edx
    6e21:	8b 45 f8             	mov    -0x8(%rbp),%eax
    6e24:	be ff ff 00 00       	mov    $0xffff,%esi
    6e29:	89 c1                	mov    %eax,%ecx
    6e2b:	d3 fe                	sar    %cl,%esi
    6e2d:	89 f0                	mov    %esi,%eax
    6e2f:	39 c2                	cmp    %eax,%edx
    6e31:	7f 0f                	jg     6e42 <safe_lshift_func_uint16_t_u_u+0x3c>
    6e33:	0f b7 55 fc          	movzwl -0x4(%rbp),%edx
    6e37:	8b 45 f8             	mov    -0x8(%rbp),%eax
    6e3a:	89 c1                	mov    %eax,%ecx
    6e3c:	d3 e2                	shl    %cl,%edx
    6e3e:	89 d0                	mov    %edx,%eax
    6e40:	eb 04                	jmp    6e46 <safe_lshift_func_uint16_t_u_u+0x40>
    6e42:	0f b7 45 fc          	movzwl -0x4(%rbp),%eax
    6e46:	5d                   	pop    %rbp
    6e47:	c3                   	retq   

0000000000006e48 <safe_rshift_func_uint16_t_u_s>:
    6e48:	f3 0f 1e fa          	endbr64 
    6e4c:	55                   	push   %rbp
    6e4d:	48 89 e5             	mov    %rsp,%rbp
    6e50:	89 f8                	mov    %edi,%eax
    6e52:	89 75 f8             	mov    %esi,-0x8(%rbp)
    6e55:	66 89 45 fc          	mov    %ax,-0x4(%rbp)
    6e59:	83 7d f8 00          	cmpl   $0x0,-0x8(%rbp)
    6e5d:	78 15                	js     6e74 <safe_rshift_func_uint16_t_u_s+0x2c>
    6e5f:	83 7d f8 1f          	cmpl   $0x1f,-0x8(%rbp)
    6e63:	7f 0f                	jg     6e74 <safe_rshift_func_uint16_t_u_s+0x2c>
    6e65:	0f b7 55 fc          	movzwl -0x4(%rbp),%edx
    6e69:	8b 45 f8             	mov    -0x8(%rbp),%eax
    6e6c:	89 c1                	mov    %eax,%ecx
    6e6e:	d3 fa                	sar    %cl,%edx
    6e70:	89 d0                	mov    %edx,%eax
    6e72:	eb 04                	jmp    6e78 <safe_rshift_func_uint16_t_u_s+0x30>
    6e74:	0f b7 45 fc          	movzwl -0x4(%rbp),%eax
    6e78:	5d                   	pop    %rbp
    6e79:	c3                   	retq   

0000000000006e7a <safe_rshift_func_uint16_t_u_u>:
    6e7a:	f3 0f 1e fa          	endbr64 
    6e7e:	55                   	push   %rbp
    6e7f:	48 89 e5             	mov    %rsp,%rbp
    6e82:	89 f8                	mov    %edi,%eax
    6e84:	89 75 f8             	mov    %esi,-0x8(%rbp)
    6e87:	66 89 45 fc          	mov    %ax,-0x4(%rbp)
    6e8b:	83 7d f8 1f          	cmpl   $0x1f,-0x8(%rbp)
    6e8f:	77 0f                	ja     6ea0 <safe_rshift_func_uint16_t_u_u+0x26>
    6e91:	0f b7 55 fc          	movzwl -0x4(%rbp),%edx
    6e95:	8b 45 f8             	mov    -0x8(%rbp),%eax
    6e98:	89 c1                	mov    %eax,%ecx
    6e9a:	d3 fa                	sar    %cl,%edx
    6e9c:	89 d0                	mov    %edx,%eax
    6e9e:	eb 04                	jmp    6ea4 <safe_rshift_func_uint16_t_u_u+0x2a>
    6ea0:	0f b7 45 fc          	movzwl -0x4(%rbp),%eax
    6ea4:	5d                   	pop    %rbp
    6ea5:	c3                   	retq   

0000000000006ea6 <safe_unary_minus_func_uint32_t_u>:
    6ea6:	f3 0f 1e fa          	endbr64 
    6eaa:	55                   	push   %rbp
    6eab:	48 89 e5             	mov    %rsp,%rbp
    6eae:	89 7d fc             	mov    %edi,-0x4(%rbp)
    6eb1:	8b 45 fc             	mov    -0x4(%rbp),%eax
    6eb4:	f7 d8                	neg    %eax
    6eb6:	5d                   	pop    %rbp
    6eb7:	c3                   	retq   

0000000000006eb8 <safe_add_func_uint32_t_u_u>:
    6eb8:	f3 0f 1e fa          	endbr64 
    6ebc:	55                   	push   %rbp
    6ebd:	48 89 e5             	mov    %rsp,%rbp
    6ec0:	89 7d fc             	mov    %edi,-0x4(%rbp)
    6ec3:	89 75 f8             	mov    %esi,-0x8(%rbp)
    6ec6:	8b 55 fc             	mov    -0x4(%rbp),%edx
    6ec9:	8b 45 f8             	mov    -0x8(%rbp),%eax
    6ecc:	01 d0                	add    %edx,%eax
    6ece:	5d                   	pop    %rbp
    6ecf:	c3                   	retq   

0000000000006ed0 <safe_sub_func_uint32_t_u_u>:
    6ed0:	f3 0f 1e fa          	endbr64 
    6ed4:	55                   	push   %rbp
    6ed5:	48 89 e5             	mov    %rsp,%rbp
    6ed8:	89 7d fc             	mov    %edi,-0x4(%rbp)
    6edb:	89 75 f8             	mov    %esi,-0x8(%rbp)
    6ede:	8b 45 fc             	mov    -0x4(%rbp),%eax
    6ee1:	2b 45 f8             	sub    -0x8(%rbp),%eax
    6ee4:	5d                   	pop    %rbp
    6ee5:	c3                   	retq   

0000000000006ee6 <safe_mul_func_uint32_t_u_u>:
    6ee6:	f3 0f 1e fa          	endbr64 
    6eea:	55                   	push   %rbp
    6eeb:	48 89 e5             	mov    %rsp,%rbp
    6eee:	89 7d fc             	mov    %edi,-0x4(%rbp)
    6ef1:	89 75 f8             	mov    %esi,-0x8(%rbp)
    6ef4:	8b 45 fc             	mov    -0x4(%rbp),%eax
    6ef7:	0f af 45 f8          	imul   -0x8(%rbp),%eax
    6efb:	5d                   	pop    %rbp
    6efc:	c3                   	retq   

0000000000006efd <safe_mod_func_uint32_t_u_u>:
    6efd:	f3 0f 1e fa          	endbr64 
    6f01:	55                   	push   %rbp
    6f02:	48 89 e5             	mov    %rsp,%rbp
    6f05:	89 7d fc             	mov    %edi,-0x4(%rbp)
    6f08:	89 75 f8             	mov    %esi,-0x8(%rbp)
    6f0b:	83 7d f8 00          	cmpl   $0x0,-0x8(%rbp)
    6f0f:	74 0f                	je     6f20 <safe_mod_func_uint32_t_u_u+0x23>
    6f11:	8b 45 fc             	mov    -0x4(%rbp),%eax
    6f14:	ba 00 00 00 00       	mov    $0x0,%edx
    6f19:	f7 75 f8             	divl   -0x8(%rbp)
    6f1c:	89 d0                	mov    %edx,%eax
    6f1e:	eb 03                	jmp    6f23 <safe_mod_func_uint32_t_u_u+0x26>
    6f20:	8b 45 fc             	mov    -0x4(%rbp),%eax
    6f23:	5d                   	pop    %rbp
    6f24:	c3                   	retq   

0000000000006f25 <safe_div_func_uint32_t_u_u>:
    6f25:	f3 0f 1e fa          	endbr64 
    6f29:	55                   	push   %rbp
    6f2a:	48 89 e5             	mov    %rsp,%rbp
    6f2d:	89 7d fc             	mov    %edi,-0x4(%rbp)
    6f30:	89 75 f8             	mov    %esi,-0x8(%rbp)
    6f33:	83 7d f8 00          	cmpl   $0x0,-0x8(%rbp)
    6f37:	74 0d                	je     6f46 <safe_div_func_uint32_t_u_u+0x21>
    6f39:	8b 45 fc             	mov    -0x4(%rbp),%eax
    6f3c:	ba 00 00 00 00       	mov    $0x0,%edx
    6f41:	f7 75 f8             	divl   -0x8(%rbp)
    6f44:	eb 03                	jmp    6f49 <safe_div_func_uint32_t_u_u+0x24>
    6f46:	8b 45 fc             	mov    -0x4(%rbp),%eax
    6f49:	5d                   	pop    %rbp
    6f4a:	c3                   	retq   

0000000000006f4b <safe_lshift_func_uint32_t_u_s>:
    6f4b:	f3 0f 1e fa          	endbr64 
    6f4f:	55                   	push   %rbp
    6f50:	48 89 e5             	mov    %rsp,%rbp
    6f53:	89 7d fc             	mov    %edi,-0x4(%rbp)
    6f56:	89 75 f8             	mov    %esi,-0x8(%rbp)
    6f59:	83 7d f8 00          	cmpl   $0x0,-0x8(%rbp)
    6f5d:	78 27                	js     6f86 <safe_lshift_func_uint32_t_u_s+0x3b>
    6f5f:	83 7d f8 1f          	cmpl   $0x1f,-0x8(%rbp)
    6f63:	7f 21                	jg     6f86 <safe_lshift_func_uint32_t_u_s+0x3b>
    6f65:	8b 45 f8             	mov    -0x8(%rbp),%eax
    6f68:	ba ff ff ff ff       	mov    $0xffffffff,%edx
    6f6d:	89 c1                	mov    %eax,%ecx
    6f6f:	d3 ea                	shr    %cl,%edx
    6f71:	89 d0                	mov    %edx,%eax
    6f73:	39 45 fc             	cmp    %eax,-0x4(%rbp)
    6f76:	77 0e                	ja     6f86 <safe_lshift_func_uint32_t_u_s+0x3b>
    6f78:	8b 45 f8             	mov    -0x8(%rbp),%eax
    6f7b:	8b 55 fc             	mov    -0x4(%rbp),%edx
    6f7e:	89 c1                	mov    %eax,%ecx
    6f80:	d3 e2                	shl    %cl,%edx
    6f82:	89 d0                	mov    %edx,%eax
    6f84:	eb 03                	jmp    6f89 <safe_lshift_func_uint32_t_u_s+0x3e>
    6f86:	8b 45 fc             	mov    -0x4(%rbp),%eax
    6f89:	5d                   	pop    %rbp
    6f8a:	c3                   	retq   

0000000000006f8b <safe_lshift_func_uint32_t_u_u>:
    6f8b:	f3 0f 1e fa          	endbr64 
    6f8f:	55                   	push   %rbp
    6f90:	48 89 e5             	mov    %rsp,%rbp
    6f93:	89 7d fc             	mov    %edi,-0x4(%rbp)
    6f96:	89 75 f8             	mov    %esi,-0x8(%rbp)
    6f99:	83 7d f8 1f          	cmpl   $0x1f,-0x8(%rbp)
    6f9d:	77 21                	ja     6fc0 <safe_lshift_func_uint32_t_u_u+0x35>
    6f9f:	8b 45 f8             	mov    -0x8(%rbp),%eax
    6fa2:	ba ff ff ff ff       	mov    $0xffffffff,%edx
    6fa7:	89 c1                	mov    %eax,%ecx
    6fa9:	d3 ea                	shr    %cl,%edx
    6fab:	89 d0                	mov    %edx,%eax
    6fad:	39 45 fc             	cmp    %eax,-0x4(%rbp)
    6fb0:	77 0e                	ja     6fc0 <safe_lshift_func_uint32_t_u_u+0x35>
    6fb2:	8b 45 f8             	mov    -0x8(%rbp),%eax
    6fb5:	8b 55 fc             	mov    -0x4(%rbp),%edx
    6fb8:	89 c1                	mov    %eax,%ecx
    6fba:	d3 e2                	shl    %cl,%edx
    6fbc:	89 d0                	mov    %edx,%eax
    6fbe:	eb 03                	jmp    6fc3 <safe_lshift_func_uint32_t_u_u+0x38>
    6fc0:	8b 45 fc             	mov    -0x4(%rbp),%eax
    6fc3:	5d                   	pop    %rbp
    6fc4:	c3                   	retq   

0000000000006fc5 <safe_rshift_func_uint32_t_u_s>:
    6fc5:	f3 0f 1e fa          	endbr64 
    6fc9:	55                   	push   %rbp
    6fca:	48 89 e5             	mov    %rsp,%rbp
    6fcd:	89 7d fc             	mov    %edi,-0x4(%rbp)
    6fd0:	89 75 f8             	mov    %esi,-0x8(%rbp)
    6fd3:	83 7d f8 00          	cmpl   $0x0,-0x8(%rbp)
    6fd7:	78 14                	js     6fed <safe_rshift_func_uint32_t_u_s+0x28>
    6fd9:	83 7d f8 1f          	cmpl   $0x1f,-0x8(%rbp)
    6fdd:	7f 0e                	jg     6fed <safe_rshift_func_uint32_t_u_s+0x28>
    6fdf:	8b 45 f8             	mov    -0x8(%rbp),%eax
    6fe2:	8b 55 fc             	mov    -0x4(%rbp),%edx
    6fe5:	89 c1                	mov    %eax,%ecx
    6fe7:	d3 ea                	shr    %cl,%edx
    6fe9:	89 d0                	mov    %edx,%eax
    6feb:	eb 03                	jmp    6ff0 <safe_rshift_func_uint32_t_u_s+0x2b>
    6fed:	8b 45 fc             	mov    -0x4(%rbp),%eax
    6ff0:	5d                   	pop    %rbp
    6ff1:	c3                   	retq   

0000000000006ff2 <safe_rshift_func_uint32_t_u_u>:
    6ff2:	f3 0f 1e fa          	endbr64 
    6ff6:	55                   	push   %rbp
    6ff7:	48 89 e5             	mov    %rsp,%rbp
    6ffa:	89 7d fc             	mov    %edi,-0x4(%rbp)
    6ffd:	89 75 f8             	mov    %esi,-0x8(%rbp)
    7000:	83 7d f8 1f          	cmpl   $0x1f,-0x8(%rbp)
    7004:	77 0e                	ja     7014 <safe_rshift_func_uint32_t_u_u+0x22>
    7006:	8b 45 f8             	mov    -0x8(%rbp),%eax
    7009:	8b 55 fc             	mov    -0x4(%rbp),%edx
    700c:	89 c1                	mov    %eax,%ecx
    700e:	d3 ea                	shr    %cl,%edx
    7010:	89 d0                	mov    %edx,%eax
    7012:	eb 03                	jmp    7017 <safe_rshift_func_uint32_t_u_u+0x25>
    7014:	8b 45 fc             	mov    -0x4(%rbp),%eax
    7017:	5d                   	pop    %rbp
    7018:	c3                   	retq   

0000000000007019 <safe_unary_minus_func_uint64_t_u>:
    7019:	f3 0f 1e fa          	endbr64 
    701d:	55                   	push   %rbp
    701e:	48 89 e5             	mov    %rsp,%rbp
    7021:	48 89 7d f8          	mov    %rdi,-0x8(%rbp)
    7025:	48 8b 45 f8          	mov    -0x8(%rbp),%rax
    7029:	48 f7 d8             	neg    %rax
    702c:	5d                   	pop    %rbp
    702d:	c3                   	retq   

000000000000702e <safe_add_func_uint64_t_u_u>:
    702e:	f3 0f 1e fa          	endbr64 
    7032:	55                   	push   %rbp
    7033:	48 89 e5             	mov    %rsp,%rbp
    7036:	48 89 7d f8          	mov    %rdi,-0x8(%rbp)
    703a:	48 89 75 f0          	mov    %rsi,-0x10(%rbp)
    703e:	48 8b 55 f8          	mov    -0x8(%rbp),%rdx
    7042:	48 8b 45 f0          	mov    -0x10(%rbp),%rax
    7046:	48 01 d0             	add    %rdx,%rax
    7049:	5d                   	pop    %rbp
    704a:	c3                   	retq   

000000000000704b <safe_sub_func_uint64_t_u_u>:
    704b:	f3 0f 1e fa          	endbr64 
    704f:	55                   	push   %rbp
    7050:	48 89 e5             	mov    %rsp,%rbp
    7053:	48 89 7d f8          	mov    %rdi,-0x8(%rbp)
    7057:	48 89 75 f0          	mov    %rsi,-0x10(%rbp)
    705b:	48 8b 45 f8          	mov    -0x8(%rbp),%rax
    705f:	48 2b 45 f0          	sub    -0x10(%rbp),%rax
    7063:	5d                   	pop    %rbp
    7064:	c3                   	retq   

0000000000007065 <safe_mul_func_uint64_t_u_u>:
    7065:	f3 0f 1e fa          	endbr64 
    7069:	55                   	push   %rbp
    706a:	48 89 e5             	mov    %rsp,%rbp
    706d:	48 89 7d f8          	mov    %rdi,-0x8(%rbp)
    7071:	48 89 75 f0          	mov    %rsi,-0x10(%rbp)
    7075:	48 8b 45 f8          	mov    -0x8(%rbp),%rax
    7079:	48 0f af 45 f0       	imul   -0x10(%rbp),%rax
    707e:	5d                   	pop    %rbp
    707f:	c3                   	retq   

0000000000007080 <safe_mod_func_uint64_t_u_u>:
    7080:	f3 0f 1e fa          	endbr64 
    7084:	55                   	push   %rbp
    7085:	48 89 e5             	mov    %rsp,%rbp
    7088:	48 89 7d f8          	mov    %rdi,-0x8(%rbp)
    708c:	48 89 75 f0          	mov    %rsi,-0x10(%rbp)
    7090:	48 83 7d f0 00       	cmpq   $0x0,-0x10(%rbp)
    7095:	74 12                	je     70a9 <safe_mod_func_uint64_t_u_u+0x29>
    7097:	48 8b 45 f8          	mov    -0x8(%rbp),%rax
    709b:	ba 00 00 00 00       	mov    $0x0,%edx
    70a0:	48 f7 75 f0          	divq   -0x10(%rbp)
    70a4:	48 89 d0             	mov    %rdx,%rax
    70a7:	eb 04                	jmp    70ad <safe_mod_func_uint64_t_u_u+0x2d>
    70a9:	48 8b 45 f8          	mov    -0x8(%rbp),%rax
    70ad:	5d                   	pop    %rbp
    70ae:	c3                   	retq   

00000000000070af <safe_div_func_uint64_t_u_u>:
    70af:	f3 0f 1e fa          	endbr64 
    70b3:	55                   	push   %rbp
    70b4:	48 89 e5             	mov    %rsp,%rbp
    70b7:	48 89 7d f8          	mov    %rdi,-0x8(%rbp)
    70bb:	48 89 75 f0          	mov    %rsi,-0x10(%rbp)
    70bf:	48 83 7d f0 00       	cmpq   $0x0,-0x10(%rbp)
    70c4:	74 0f                	je     70d5 <safe_div_func_uint64_t_u_u+0x26>
    70c6:	48 8b 45 f8          	mov    -0x8(%rbp),%rax
    70ca:	ba 00 00 00 00       	mov    $0x0,%edx
    70cf:	48 f7 75 f0          	divq   -0x10(%rbp)
    70d3:	eb 04                	jmp    70d9 <safe_div_func_uint64_t_u_u+0x2a>
    70d5:	48 8b 45 f8          	mov    -0x8(%rbp),%rax
    70d9:	5d                   	pop    %rbp
    70da:	c3                   	retq   

00000000000070db <safe_lshift_func_uint64_t_u_s>:
    70db:	f3 0f 1e fa          	endbr64 
    70df:	55                   	push   %rbp
    70e0:	48 89 e5             	mov    %rsp,%rbp
    70e3:	48 89 7d f8          	mov    %rdi,-0x8(%rbp)
    70e7:	89 75 f4             	mov    %esi,-0xc(%rbp)
    70ea:	83 7d f4 00          	cmpl   $0x0,-0xc(%rbp)
    70ee:	78 2f                	js     711f <safe_lshift_func_uint64_t_u_s+0x44>
    70f0:	83 7d f4 1f          	cmpl   $0x1f,-0xc(%rbp)
    70f4:	7f 29                	jg     711f <safe_lshift_func_uint64_t_u_s+0x44>
    70f6:	8b 45 f4             	mov    -0xc(%rbp),%eax
    70f9:	48 c7 c2 ff ff ff ff 	mov    $0xffffffffffffffff,%rdx
    7100:	89 c1                	mov    %eax,%ecx
    7102:	48 d3 ea             	shr    %cl,%rdx
    7105:	48 89 d0             	mov    %rdx,%rax
    7108:	48 39 45 f8          	cmp    %rax,-0x8(%rbp)
    710c:	77 11                	ja     711f <safe_lshift_func_uint64_t_u_s+0x44>
    710e:	8b 45 f4             	mov    -0xc(%rbp),%eax
    7111:	48 8b 55 f8          	mov    -0x8(%rbp),%rdx
    7115:	89 c1                	mov    %eax,%ecx
    7117:	48 d3 e2             	shl    %cl,%rdx
    711a:	48 89 d0             	mov    %rdx,%rax
    711d:	eb 04                	jmp    7123 <safe_lshift_func_uint64_t_u_s+0x48>
    711f:	48 8b 45 f8          	mov    -0x8(%rbp),%rax
    7123:	5d                   	pop    %rbp
    7124:	c3                   	retq   

0000000000007125 <safe_lshift_func_uint64_t_u_u>:
    7125:	f3 0f 1e fa          	endbr64 
    7129:	55                   	push   %rbp
    712a:	48 89 e5             	mov    %rsp,%rbp
    712d:	48 89 7d f8          	mov    %rdi,-0x8(%rbp)
    7131:	89 75 f4             	mov    %esi,-0xc(%rbp)
    7134:	83 7d f4 1f          	cmpl   $0x1f,-0xc(%rbp)
    7138:	77 29                	ja     7163 <safe_lshift_func_uint64_t_u_u+0x3e>
    713a:	8b 45 f4             	mov    -0xc(%rbp),%eax
    713d:	48 c7 c2 ff ff ff ff 	mov    $0xffffffffffffffff,%rdx
    7144:	89 c1                	mov    %eax,%ecx
    7146:	48 d3 ea             	shr    %cl,%rdx
    7149:	48 89 d0             	mov    %rdx,%rax
    714c:	48 39 45 f8          	cmp    %rax,-0x8(%rbp)
    7150:	77 11                	ja     7163 <safe_lshift_func_uint64_t_u_u+0x3e>
    7152:	8b 45 f4             	mov    -0xc(%rbp),%eax
    7155:	48 8b 55 f8          	mov    -0x8(%rbp),%rdx
    7159:	89 c1                	mov    %eax,%ecx
    715b:	48 d3 e2             	shl    %cl,%rdx
    715e:	48 89 d0             	mov    %rdx,%rax
    7161:	eb 04                	jmp    7167 <safe_lshift_func_uint64_t_u_u+0x42>
    7163:	48 8b 45 f8          	mov    -0x8(%rbp),%rax
    7167:	5d                   	pop    %rbp
    7168:	c3                   	retq   

0000000000007169 <safe_rshift_func_uint64_t_u_s>:
    7169:	f3 0f 1e fa          	endbr64 
    716d:	55                   	push   %rbp
    716e:	48 89 e5             	mov    %rsp,%rbp
    7171:	48 89 7d f8          	mov    %rdi,-0x8(%rbp)
    7175:	89 75 f4             	mov    %esi,-0xc(%rbp)
    7178:	83 7d f4 00          	cmpl   $0x0,-0xc(%rbp)
    717c:	78 17                	js     7195 <safe_rshift_func_uint64_t_u_s+0x2c>
    717e:	83 7d f4 1f          	cmpl   $0x1f,-0xc(%rbp)
    7182:	7f 11                	jg     7195 <safe_rshift_func_uint64_t_u_s+0x2c>
    7184:	8b 45 f4             	mov    -0xc(%rbp),%eax
    7187:	48 8b 55 f8          	mov    -0x8(%rbp),%rdx
    718b:	89 c1                	mov    %eax,%ecx
    718d:	48 d3 ea             	shr    %cl,%rdx
    7190:	48 89 d0             	mov    %rdx,%rax
    7193:	eb 04                	jmp    7199 <safe_rshift_func_uint64_t_u_s+0x30>
    7195:	48 8b 45 f8          	mov    -0x8(%rbp),%rax
    7199:	5d                   	pop    %rbp
    719a:	c3                   	retq   

000000000000719b <safe_rshift_func_uint64_t_u_u>:
    719b:	f3 0f 1e fa          	endbr64 
    719f:	55                   	push   %rbp
    71a0:	48 89 e5             	mov    %rsp,%rbp
    71a3:	48 89 7d f8          	mov    %rdi,-0x8(%rbp)
    71a7:	89 75 f4             	mov    %esi,-0xc(%rbp)
    71aa:	83 7d f4 1f          	cmpl   $0x1f,-0xc(%rbp)
    71ae:	77 11                	ja     71c1 <safe_rshift_func_uint64_t_u_u+0x26>
    71b0:	8b 45 f4             	mov    -0xc(%rbp),%eax
    71b3:	48 8b 55 f8          	mov    -0x8(%rbp),%rdx
    71b7:	89 c1                	mov    %eax,%ecx
    71b9:	48 d3 ea             	shr    %cl,%rdx
    71bc:	48 89 d0             	mov    %rdx,%rax
    71bf:	eb 04                	jmp    71c5 <safe_rshift_func_uint64_t_u_u+0x2a>
    71c1:	48 8b 45 f8          	mov    -0x8(%rbp),%rax
    71c5:	5d                   	pop    %rbp
    71c6:	c3                   	retq   

00000000000071c7 <safe_add_func_float_f_f>:
    71c7:	f3 0f 1e fa          	endbr64 
    71cb:	55                   	push   %rbp
    71cc:	48 89 e5             	mov    %rsp,%rbp
    71cf:	f3 0f 11 45 fc       	movss  %xmm0,-0x4(%rbp)
    71d4:	f3 0f 11 4d f8       	movss  %xmm1,-0x8(%rbp)
    71d9:	f3 0f 10 4d fc       	movss  -0x4(%rbp),%xmm1
    71de:	f3 0f 10 05 4e d1 00 	movss  0xd14e(%rip),%xmm0        # 14334 <g_1114+0x22d4>
    71e5:	00 
    71e6:	f3 0f 59 c8          	mulss  %xmm0,%xmm1
    71ea:	f3 0f 10 55 f8       	movss  -0x8(%rbp),%xmm2
    71ef:	f3 0f 10 05 3d d1 00 	movss  0xd13d(%rip),%xmm0        # 14334 <g_1114+0x22d4>
    71f6:	00 
    71f7:	f3 0f 59 c2          	mulss  %xmm2,%xmm0
    71fb:	f3 0f 58 c1          	addss  %xmm1,%xmm0
    71ff:	f3 0f 10 0d 39 d1 00 	movss  0xd139(%rip),%xmm1        # 14340 <g_1114+0x22e0>
    7206:	00 
    7207:	0f 54 c1             	andps  %xmm1,%xmm0
    720a:	0f 2f 05 3f d1 00 00 	comiss 0xd13f(%rip),%xmm0        # 14350 <g_1114+0x22f0>
    7211:	76 07                	jbe    721a <safe_add_func_float_f_f+0x53>
    7213:	f3 0f 10 45 fc       	movss  -0x4(%rbp),%xmm0
    7218:	eb 0a                	jmp    7224 <safe_add_func_float_f_f+0x5d>
    721a:	f3 0f 10 45 fc       	movss  -0x4(%rbp),%xmm0
    721f:	f3 0f 58 45 f8       	addss  -0x8(%rbp),%xmm0
    7224:	5d                   	pop    %rbp
    7225:	c3                   	retq   

0000000000007226 <safe_sub_func_float_f_f>:
    7226:	f3 0f 1e fa          	endbr64 
    722a:	55                   	push   %rbp
    722b:	48 89 e5             	mov    %rsp,%rbp
    722e:	f3 0f 11 45 fc       	movss  %xmm0,-0x4(%rbp)
    7233:	f3 0f 11 4d f8       	movss  %xmm1,-0x8(%rbp)
    7238:	f3 0f 10 4d fc       	movss  -0x4(%rbp),%xmm1
    723d:	f3 0f 10 05 ef d0 00 	movss  0xd0ef(%rip),%xmm0        # 14334 <g_1114+0x22d4>
    7244:	00 
    7245:	f3 0f 59 c1          	mulss  %xmm1,%xmm0
    7249:	f3 0f 10 55 f8       	movss  -0x8(%rbp),%xmm2
    724e:	f3 0f 10 0d de d0 00 	movss  0xd0de(%rip),%xmm1        # 14334 <g_1114+0x22d4>
    7255:	00 
    7256:	f3 0f 59 ca          	mulss  %xmm2,%xmm1
    725a:	f3 0f 5c c1          	subss  %xmm1,%xmm0
    725e:	f3 0f 10 0d da d0 00 	movss  0xd0da(%rip),%xmm1        # 14340 <g_1114+0x22e0>
    7265:	00 
    7266:	0f 54 c1             	andps  %xmm1,%xmm0
    7269:	0f 2f 05 e0 d0 00 00 	comiss 0xd0e0(%rip),%xmm0        # 14350 <g_1114+0x22f0>
    7270:	76 07                	jbe    7279 <safe_sub_func_float_f_f+0x53>
    7272:	f3 0f 10 45 fc       	movss  -0x4(%rbp),%xmm0
    7277:	eb 0a                	jmp    7283 <safe_sub_func_float_f_f+0x5d>
    7279:	f3 0f 10 45 fc       	movss  -0x4(%rbp),%xmm0
    727e:	f3 0f 5c 45 f8       	subss  -0x8(%rbp),%xmm0
    7283:	5d                   	pop    %rbp
    7284:	c3                   	retq   

0000000000007285 <safe_mul_func_float_f_f>:
    7285:	f3 0f 1e fa          	endbr64 
    7289:	55                   	push   %rbp
    728a:	48 89 e5             	mov    %rsp,%rbp
    728d:	f3 0f 11 45 fc       	movss  %xmm0,-0x4(%rbp)
    7292:	f3 0f 11 4d f8       	movss  %xmm1,-0x8(%rbp)
    7297:	f3 0f 10 4d fc       	movss  -0x4(%rbp),%xmm1
    729c:	f3 0f 10 05 b0 d0 00 	movss  0xd0b0(%rip),%xmm0        # 14354 <g_1114+0x22f4>
    72a3:	00 
    72a4:	f3 0f 59 c8          	mulss  %xmm0,%xmm1
    72a8:	f3 0f 10 55 f8       	movss  -0x8(%rbp),%xmm2
    72ad:	f3 0f 10 05 a3 d0 00 	movss  0xd0a3(%rip),%xmm0        # 14358 <g_1114+0x22f8>
    72b4:	00 
    72b5:	f3 0f 59 c2          	mulss  %xmm2,%xmm0
    72b9:	f3 0f 59 c1          	mulss  %xmm1,%xmm0
    72bd:	f3 0f 10 0d 7b d0 00 	movss  0xd07b(%rip),%xmm1        # 14340 <g_1114+0x22e0>
    72c4:	00 
    72c5:	0f 54 c1             	andps  %xmm1,%xmm0
    72c8:	0f 2f 05 8d d0 00 00 	comiss 0xd08d(%rip),%xmm0        # 1435c <g_1114+0x22fc>
    72cf:	76 07                	jbe    72d8 <safe_mul_func_float_f_f+0x53>
    72d1:	f3 0f 10 45 fc       	movss  -0x4(%rbp),%xmm0
    72d6:	eb 0a                	jmp    72e2 <safe_mul_func_float_f_f+0x5d>
    72d8:	f3 0f 10 45 fc       	movss  -0x4(%rbp),%xmm0
    72dd:	f3 0f 59 45 f8       	mulss  -0x8(%rbp),%xmm0
    72e2:	5d                   	pop    %rbp
    72e3:	c3                   	retq   

00000000000072e4 <safe_div_func_float_f_f>:
    72e4:	f3 0f 1e fa          	endbr64 
    72e8:	55                   	push   %rbp
    72e9:	48 89 e5             	mov    %rsp,%rbp
    72ec:	f3 0f 11 45 fc       	movss  %xmm0,-0x4(%rbp)
    72f1:	f3 0f 11 4d f8       	movss  %xmm1,-0x8(%rbp)
    72f6:	f3 0f 10 45 f8       	movss  -0x8(%rbp),%xmm0
    72fb:	f3 0f 10 0d 3d d0 00 	movss  0xd03d(%rip),%xmm1        # 14340 <g_1114+0x22e0>
    7302:	00 
    7303:	0f 54 c8             	andps  %xmm0,%xmm1
    7306:	f3 0f 10 05 52 d0 00 	movss  0xd052(%rip),%xmm0        # 14360 <g_1114+0x2300>
    730d:	00 
    730e:	0f 2f c1             	comiss %xmm1,%xmm0
    7311:	0f 97 c0             	seta   %al
    7314:	83 f0 01             	xor    $0x1,%eax
    7317:	84 c0                	test   %al,%al
    7319:	75 56                	jne    7371 <safe_div_func_float_f_f+0x8d>
    731b:	66 0f ef c0          	pxor   %xmm0,%xmm0
    731f:	0f 2e 45 f8          	ucomiss -0x8(%rbp),%xmm0
    7323:	7a 0a                	jp     732f <safe_div_func_float_f_f+0x4b>
    7325:	66 0f ef c0          	pxor   %xmm0,%xmm0
    7329:	0f 2e 45 f8          	ucomiss -0x8(%rbp),%xmm0
    732d:	74 4e                	je     737d <safe_div_func_float_f_f+0x99>
    732f:	f3 0f 10 4d fc       	movss  -0x4(%rbp),%xmm1
    7334:	f3 0f 10 05 28 d0 00 	movss  0xd028(%rip),%xmm0        # 14364 <g_1114+0x2304>
    733b:	00 
    733c:	f3 0f 59 c1          	mulss  %xmm1,%xmm0
    7340:	f3 0f 10 55 f8       	movss  -0x8(%rbp),%xmm2
    7345:	f3 0f 10 0d 1b d0 00 	movss  0xd01b(%rip),%xmm1        # 14368 <g_1114+0x2308>
    734c:	00 
    734d:	f3 0f 59 ca          	mulss  %xmm2,%xmm1
    7351:	f3 0f 5e c1          	divss  %xmm1,%xmm0
    7355:	f3 0f 10 0d e3 cf 00 	movss  0xcfe3(%rip),%xmm1        # 14340 <g_1114+0x22e0>
    735c:	00 
    735d:	0f 54 c1             	andps  %xmm1,%xmm0
    7360:	0f 2f 05 05 d0 00 00 	comiss 0xd005(%rip),%xmm0        # 1436c <g_1114+0x230c>
    7367:	0f 97 c0             	seta   %al
    736a:	83 f0 01             	xor    $0x1,%eax
    736d:	84 c0                	test   %al,%al
    736f:	74 0c                	je     737d <safe_div_func_float_f_f+0x99>
    7371:	f3 0f 10 45 fc       	movss  -0x4(%rbp),%xmm0
    7376:	f3 0f 5e 45 f8       	divss  -0x8(%rbp),%xmm0
    737b:	eb 05                	jmp    7382 <safe_div_func_float_f_f+0x9e>
    737d:	f3 0f 10 45 fc       	movss  -0x4(%rbp),%xmm0
    7382:	5d                   	pop    %rbp
    7383:	c3                   	retq   

0000000000007384 <safe_add_func_double_f_f>:
    7384:	f3 0f 1e fa          	endbr64 
    7388:	55                   	push   %rbp
    7389:	48 89 e5             	mov    %rsp,%rbp
    738c:	f2 0f 11 45 f8       	movsd  %xmm0,-0x8(%rbp)
    7391:	f2 0f 11 4d f0       	movsd  %xmm1,-0x10(%rbp)
    7396:	f2 0f 10 4d f8       	movsd  -0x8(%rbp),%xmm1
    739b:	f2 0f 10 05 cd cf 00 	movsd  0xcfcd(%rip),%xmm0        # 14370 <g_1114+0x2310>
    73a2:	00 
    73a3:	f2 0f 59 c8          	mulsd  %xmm0,%xmm1
    73a7:	f2 0f 10 55 f0       	movsd  -0x10(%rbp),%xmm2
    73ac:	f2 0f 10 05 bc cf 00 	movsd  0xcfbc(%rip),%xmm0        # 14370 <g_1114+0x2310>
    73b3:	00 
    73b4:	f2 0f 59 c2          	mulsd  %xmm2,%xmm0
    73b8:	f2 0f 58 c1          	addsd  %xmm1,%xmm0
    73bc:	f3 0f 7e 0d bc cf 00 	movq   0xcfbc(%rip),%xmm1        # 14380 <g_1114+0x2320>
    73c3:	00 
    73c4:	66 0f 54 c1          	andpd  %xmm1,%xmm0
    73c8:	66 0f 2f 05 c0 cf 00 	comisd 0xcfc0(%rip),%xmm0        # 14390 <g_1114+0x2330>
    73cf:	00 
    73d0:	76 07                	jbe    73d9 <safe_add_func_double_f_f+0x55>
    73d2:	f2 0f 10 45 f8       	movsd  -0x8(%rbp),%xmm0
    73d7:	eb 0a                	jmp    73e3 <safe_add_func_double_f_f+0x5f>
    73d9:	f2 0f 10 45 f8       	movsd  -0x8(%rbp),%xmm0
    73de:	f2 0f 58 45 f0       	addsd  -0x10(%rbp),%xmm0
    73e3:	5d                   	pop    %rbp
    73e4:	c3                   	retq   

00000000000073e5 <safe_sub_func_double_f_f>:
    73e5:	f3 0f 1e fa          	endbr64 
    73e9:	55                   	push   %rbp
    73ea:	48 89 e5             	mov    %rsp,%rbp
    73ed:	f2 0f 11 45 f8       	movsd  %xmm0,-0x8(%rbp)
    73f2:	f2 0f 11 4d f0       	movsd  %xmm1,-0x10(%rbp)
    73f7:	f2 0f 10 4d f8       	movsd  -0x8(%rbp),%xmm1
    73fc:	f2 0f 10 05 6c cf 00 	movsd  0xcf6c(%rip),%xmm0        # 14370 <g_1114+0x2310>
    7403:	00 
    7404:	f2 0f 59 c1          	mulsd  %xmm1,%xmm0
    7408:	f2 0f 10 55 f0       	movsd  -0x10(%rbp),%xmm2
    740d:	f2 0f 10 0d 5b cf 00 	movsd  0xcf5b(%rip),%xmm1        # 14370 <g_1114+0x2310>
    7414:	00 
    7415:	f2 0f 59 ca          	mulsd  %xmm2,%xmm1
    7419:	f2 0f 5c c1          	subsd  %xmm1,%xmm0
    741d:	f3 0f 7e 0d 5b cf 00 	movq   0xcf5b(%rip),%xmm1        # 14380 <g_1114+0x2320>
    7424:	00 
    7425:	66 0f 54 c1          	andpd  %xmm1,%xmm0
    7429:	66 0f 2f 05 5f cf 00 	comisd 0xcf5f(%rip),%xmm0        # 14390 <g_1114+0x2330>
    7430:	00 
    7431:	76 07                	jbe    743a <safe_sub_func_double_f_f+0x55>
    7433:	f2 0f 10 45 f8       	movsd  -0x8(%rbp),%xmm0
    7438:	eb 0a                	jmp    7444 <safe_sub_func_double_f_f+0x5f>
    743a:	f2 0f 10 45 f8       	movsd  -0x8(%rbp),%xmm0
    743f:	f2 0f 5c 45 f0       	subsd  -0x10(%rbp),%xmm0
    7444:	5d                   	pop    %rbp
    7445:	c3                   	retq   

0000000000007446 <safe_mul_func_double_f_f>:
    7446:	f3 0f 1e fa          	endbr64 
    744a:	55                   	push   %rbp
    744b:	48 89 e5             	mov    %rsp,%rbp
    744e:	f2 0f 11 45 f8       	movsd  %xmm0,-0x8(%rbp)
    7453:	f2 0f 11 4d f0       	movsd  %xmm1,-0x10(%rbp)
    7458:	f2 0f 10 4d f8       	movsd  -0x8(%rbp),%xmm1
    745d:	f2 0f 10 05 33 cf 00 	movsd  0xcf33(%rip),%xmm0        # 14398 <g_1114+0x2338>
    7464:	00 
    7465:	f2 0f 59 c8          	mulsd  %xmm0,%xmm1
    7469:	f2 0f 10 55 f0       	movsd  -0x10(%rbp),%xmm2
    746e:	f2 0f 10 05 2a cf 00 	movsd  0xcf2a(%rip),%xmm0        # 143a0 <g_1114+0x2340>
    7475:	00 
    7476:	f2 0f 59 c2          	mulsd  %xmm2,%xmm0
    747a:	f2 0f 59 c1          	mulsd  %xmm1,%xmm0
    747e:	f3 0f 7e 0d fa ce 00 	movq   0xcefa(%rip),%xmm1        # 14380 <g_1114+0x2320>
    7485:	00 
    7486:	66 0f 54 c1          	andpd  %xmm1,%xmm0
    748a:	66 0f 2f 05 16 cf 00 	comisd 0xcf16(%rip),%xmm0        # 143a8 <g_1114+0x2348>
    7491:	00 
    7492:	76 07                	jbe    749b <safe_mul_func_double_f_f+0x55>
    7494:	f2 0f 10 45 f8       	movsd  -0x8(%rbp),%xmm0
    7499:	eb 0a                	jmp    74a5 <safe_mul_func_double_f_f+0x5f>
    749b:	f2 0f 10 45 f8       	movsd  -0x8(%rbp),%xmm0
    74a0:	f2 0f 59 45 f0       	mulsd  -0x10(%rbp),%xmm0
    74a5:	5d                   	pop    %rbp
    74a6:	c3                   	retq   

00000000000074a7 <safe_div_func_double_f_f>:
    74a7:	f3 0f 1e fa          	endbr64 
    74ab:	55                   	push   %rbp
    74ac:	48 89 e5             	mov    %rsp,%rbp
    74af:	f2 0f 11 45 f8       	movsd  %xmm0,-0x8(%rbp)
    74b4:	f2 0f 11 4d f0       	movsd  %xmm1,-0x10(%rbp)
    74b9:	f2 0f 10 45 f0       	movsd  -0x10(%rbp),%xmm0
    74be:	f3 0f 7e 0d ba ce 00 	movq   0xceba(%rip),%xmm1        # 14380 <g_1114+0x2320>
    74c5:	00 
    74c6:	66 0f 54 c8          	andpd  %xmm0,%xmm1
    74ca:	f2 0f 10 05 de ce 00 	movsd  0xcede(%rip),%xmm0        # 143b0 <g_1114+0x2350>
    74d1:	00 
    74d2:	66 0f 2f c1          	comisd %xmm1,%xmm0
    74d6:	0f 97 c0             	seta   %al
    74d9:	83 f0 01             	xor    $0x1,%eax
    74dc:	84 c0                	test   %al,%al
    74de:	75 5a                	jne    753a <safe_div_func_double_f_f+0x93>
    74e0:	66 0f ef c0          	pxor   %xmm0,%xmm0
    74e4:	66 0f 2e 45 f0       	ucomisd -0x10(%rbp),%xmm0
    74e9:	7a 0b                	jp     74f6 <safe_div_func_double_f_f+0x4f>
    74eb:	66 0f ef c0          	pxor   %xmm0,%xmm0
    74ef:	66 0f 2e 45 f0       	ucomisd -0x10(%rbp),%xmm0
    74f4:	74 50                	je     7546 <safe_div_func_double_f_f+0x9f>
    74f6:	f2 0f 10 4d f8       	movsd  -0x8(%rbp),%xmm1
    74fb:	f2 0f 10 05 b5 ce 00 	movsd  0xceb5(%rip),%xmm0        # 143b8 <g_1114+0x2358>
    7502:	00 
    7503:	f2 0f 59 c1          	mulsd  %xmm1,%xmm0
    7507:	f2 0f 10 55 f0       	movsd  -0x10(%rbp),%xmm2
    750c:	f2 0f 10 0d ac ce 00 	movsd  0xceac(%rip),%xmm1        # 143c0 <g_1114+0x2360>
    7513:	00 
    7514:	f2 0f 59 ca          	mulsd  %xmm2,%xmm1
    7518:	f2 0f 5e c1          	divsd  %xmm1,%xmm0
    751c:	f3 0f 7e 0d 5c ce 00 	movq   0xce5c(%rip),%xmm1        # 14380 <g_1114+0x2320>
    7523:	00 
    7524:	66 0f 54 c1          	andpd  %xmm1,%xmm0
    7528:	66 0f 2f 05 98 ce 00 	comisd 0xce98(%rip),%xmm0        # 143c8 <g_1114+0x2368>
    752f:	00 
    7530:	0f 97 c0             	seta   %al
    7533:	83 f0 01             	xor    $0x1,%eax
    7536:	84 c0                	test   %al,%al
    7538:	74 0c                	je     7546 <safe_div_func_double_f_f+0x9f>
    753a:	f2 0f 10 45 f8       	movsd  -0x8(%rbp),%xmm0
    753f:	f2 0f 5e 45 f0       	divsd  -0x10(%rbp),%xmm0
    7544:	eb 05                	jmp    754b <safe_div_func_double_f_f+0xa4>
    7546:	f2 0f 10 45 f8       	movsd  -0x8(%rbp),%xmm0
    754b:	5d                   	pop    %rbp
    754c:	c3                   	retq   

000000000000754d <safe_convert_func_float_to_int32_t>:
    754d:	f3 0f 1e fa          	endbr64 
    7551:	55                   	push   %rbp
    7552:	48 89 e5             	mov    %rsp,%rbp
    7555:	f3 0f 11 45 fc       	movss  %xmm0,-0x4(%rbp)
    755a:	f3 0f 10 05 6e ce 00 	movss  0xce6e(%rip),%xmm0        # 143d0 <g_1114+0x2370>
    7561:	00 
    7562:	0f 2f 45 fc          	comiss -0x4(%rbp),%xmm0
    7566:	0f 93 c0             	setae  %al
    7569:	83 f0 01             	xor    $0x1,%eax
    756c:	84 c0                	test   %al,%al
    756e:	74 21                	je     7591 <safe_convert_func_float_to_int32_t+0x44>
    7570:	f3 0f 10 45 fc       	movss  -0x4(%rbp),%xmm0
    7575:	0f 2f 05 58 ce 00 00 	comiss 0xce58(%rip),%xmm0        # 143d4 <g_1114+0x2374>
    757c:	0f 93 c0             	setae  %al
    757f:	83 f0 01             	xor    $0x1,%eax
    7582:	84 c0                	test   %al,%al
    7584:	74 0b                	je     7591 <safe_convert_func_float_to_int32_t+0x44>
    7586:	f3 0f 10 45 fc       	movss  -0x4(%rbp),%xmm0
    758b:	f3 0f 2c c0          	cvttss2si %xmm0,%eax
    758f:	eb 05                	jmp    7596 <safe_convert_func_float_to_int32_t+0x49>
    7591:	b8 ff ff ff 7f       	mov    $0x7fffffff,%eax
    7596:	5d                   	pop    %rbp
    7597:	c3                   	retq   

0000000000007598 <crc32_gentab>:
    7598:	f3 0f 1e fa          	endbr64 
    759c:	55                   	push   %rbp
    759d:	48 89 e5             	mov    %rsp,%rbp
    75a0:	c7 45 fc 20 83 b8 ed 	movl   $0xedb88320,-0x4(%rbp)
    75a7:	c7 45 f4 00 00 00 00 	movl   $0x0,-0xc(%rbp)
    75ae:	eb 51                	jmp    7601 <crc32_gentab+0x69>
    75b0:	8b 45 f4             	mov    -0xc(%rbp),%eax
    75b3:	89 45 f0             	mov    %eax,-0x10(%rbp)
    75b6:	c7 45 f8 08 00 00 00 	movl   $0x8,-0x8(%rbp)
    75bd:	eb 1e                	jmp    75dd <crc32_gentab+0x45>
    75bf:	8b 45 f0             	mov    -0x10(%rbp),%eax
    75c2:	83 e0 01             	and    $0x1,%eax
    75c5:	85 c0                	test   %eax,%eax
    75c7:	74 0d                	je     75d6 <crc32_gentab+0x3e>
    75c9:	8b 45 f0             	mov    -0x10(%rbp),%eax
    75cc:	d1 e8                	shr    %eax
    75ce:	33 45 fc             	xor    -0x4(%rbp),%eax
    75d1:	89 45 f0             	mov    %eax,-0x10(%rbp)
    75d4:	eb 03                	jmp    75d9 <crc32_gentab+0x41>
    75d6:	d1 6d f0             	shrl   -0x10(%rbp)
    75d9:	83 6d f8 01          	subl   $0x1,-0x8(%rbp)
    75dd:	83 7d f8 00          	cmpl   $0x0,-0x8(%rbp)
    75e1:	7f dc                	jg     75bf <crc32_gentab+0x27>
    75e3:	8b 45 f4             	mov    -0xc(%rbp),%eax
    75e6:	48 98                	cltq   
    75e8:	48 8d 0c 85 00 00 00 	lea    0x0(,%rax,4),%rcx
    75ef:	00 
    75f0:	48 8d 15 69 2f 01 00 	lea    0x12f69(%rip),%rdx        # 1a560 <crc32_tab>
    75f7:	8b 45 f0             	mov    -0x10(%rbp),%eax
    75fa:	89 04 11             	mov    %eax,(%rcx,%rdx,1)
    75fd:	83 45 f4 01          	addl   $0x1,-0xc(%rbp)
    7601:	81 7d f4 ff 00 00 00 	cmpl   $0xff,-0xc(%rbp)
    7608:	7e a6                	jle    75b0 <crc32_gentab+0x18>
    760a:	90                   	nop
    760b:	90                   	nop
    760c:	5d                   	pop    %rbp
    760d:	c3                   	retq   

000000000000760e <crc32_byte>:
    760e:	f3 0f 1e fa          	endbr64 
    7612:	55                   	push   %rbp
    7613:	48 89 e5             	mov    %rsp,%rbp
    7616:	89 f8                	mov    %edi,%eax
    7618:	88 45 fc             	mov    %al,-0x4(%rbp)
    761b:	8b 05 ff 09 01 00    	mov    0x109ff(%rip),%eax        # 18020 <crc32_context>
    7621:	c1 e8 08             	shr    $0x8,%eax
    7624:	89 c1                	mov    %eax,%ecx
    7626:	0f b6 55 fc          	movzbl -0x4(%rbp),%edx
    762a:	8b 05 f0 09 01 00    	mov    0x109f0(%rip),%eax        # 18020 <crc32_context>
    7630:	31 d0                	xor    %edx,%eax
    7632:	0f b6 c0             	movzbl %al,%eax
    7635:	89 c0                	mov    %eax,%eax
    7637:	48 8d 14 85 00 00 00 	lea    0x0(,%rax,4),%rdx
    763e:	00 
    763f:	48 8d 05 1a 2f 01 00 	lea    0x12f1a(%rip),%rax        # 1a560 <crc32_tab>
    7646:	8b 04 02             	mov    (%rdx,%rax,1),%eax
    7649:	31 c8                	xor    %ecx,%eax
    764b:	89 05 cf 09 01 00    	mov    %eax,0x109cf(%rip)        # 18020 <crc32_context>
    7651:	90                   	nop
    7652:	5d                   	pop    %rbp
    7653:	c3                   	retq   

0000000000007654 <crc32_8bytes>:
    7654:	f3 0f 1e fa          	endbr64 
    7658:	55                   	push   %rbp
    7659:	48 89 e5             	mov    %rsp,%rbp
    765c:	48 83 ec 08          	sub    $0x8,%rsp
    7660:	48 89 7d f8          	mov    %rdi,-0x8(%rbp)
    7664:	48 8b 45 f8          	mov    -0x8(%rbp),%rax
    7668:	0f b6 c0             	movzbl %al,%eax
    766b:	89 c7                	mov    %eax,%edi
    766d:	e8 9c ff ff ff       	callq  760e <crc32_byte>
    7672:	48 8b 45 f8          	mov    -0x8(%rbp),%rax
    7676:	48 c1 e8 08          	shr    $0x8,%rax
    767a:	0f b6 c0             	movzbl %al,%eax
    767d:	89 c7                	mov    %eax,%edi
    767f:	e8 8a ff ff ff       	callq  760e <crc32_byte>
    7684:	48 8b 45 f8          	mov    -0x8(%rbp),%rax
    7688:	48 c1 e8 10          	shr    $0x10,%rax
    768c:	0f b6 c0             	movzbl %al,%eax
    768f:	89 c7                	mov    %eax,%edi
    7691:	e8 78 ff ff ff       	callq  760e <crc32_byte>
    7696:	48 8b 45 f8          	mov    -0x8(%rbp),%rax
    769a:	48 c1 e8 18          	shr    $0x18,%rax
    769e:	0f b6 c0             	movzbl %al,%eax
    76a1:	89 c7                	mov    %eax,%edi
    76a3:	e8 66 ff ff ff       	callq  760e <crc32_byte>
    76a8:	48 8b 45 f8          	mov    -0x8(%rbp),%rax
    76ac:	48 c1 e8 20          	shr    $0x20,%rax
    76b0:	0f b6 c0             	movzbl %al,%eax
    76b3:	89 c7                	mov    %eax,%edi
    76b5:	e8 54 ff ff ff       	callq  760e <crc32_byte>
    76ba:	48 8b 45 f8          	mov    -0x8(%rbp),%rax
    76be:	48 c1 e8 28          	shr    $0x28,%rax
    76c2:	0f b6 c0             	movzbl %al,%eax
    76c5:	89 c7                	mov    %eax,%edi
    76c7:	e8 42 ff ff ff       	callq  760e <crc32_byte>
    76cc:	48 8b 45 f8          	mov    -0x8(%rbp),%rax
    76d0:	48 c1 e8 30          	shr    $0x30,%rax
    76d4:	0f b6 c0             	movzbl %al,%eax
    76d7:	89 c7                	mov    %eax,%edi
    76d9:	e8 30 ff ff ff       	callq  760e <crc32_byte>
    76de:	48 8b 45 f8          	mov    -0x8(%rbp),%rax
    76e2:	48 c1 e8 38          	shr    $0x38,%rax
    76e6:	0f b6 c0             	movzbl %al,%eax
    76e9:	89 c7                	mov    %eax,%edi
    76eb:	e8 1e ff ff ff       	callq  760e <crc32_byte>
    76f0:	90                   	nop
    76f1:	c9                   	leaveq 
    76f2:	c3                   	retq   

00000000000076f3 <transparent_crc>:
    76f3:	f3 0f 1e fa          	endbr64 
    76f7:	55                   	push   %rbp
    76f8:	48 89 e5             	mov    %rsp,%rbp
    76fb:	48 83 ec 20          	sub    $0x20,%rsp
    76ff:	48 89 7d f8          	mov    %rdi,-0x8(%rbp)
    7703:	48 89 75 f0          	mov    %rsi,-0x10(%rbp)
    7707:	89 55 ec             	mov    %edx,-0x14(%rbp)
    770a:	48 8b 45 f8          	mov    -0x8(%rbp),%rax
    770e:	48 89 c7             	mov    %rax,%rdi
    7711:	e8 3e ff ff ff       	callq  7654 <crc32_8bytes>
    7716:	83 7d ec 00          	cmpl   $0x0,-0x14(%rbp)
    771a:	74 22                	je     773e <transparent_crc+0x4b>
    771c:	8b 05 fe 08 01 00    	mov    0x108fe(%rip),%eax        # 18020 <crc32_context>
    7722:	f7 d0                	not    %eax
    7724:	89 c2                	mov    %eax,%edx
    7726:	48 8b 45 f0          	mov    -0x10(%rbp),%rax
    772a:	48 89 c6             	mov    %rax,%rsi
    772d:	48 8d 3d fc a8 00 00 	lea    0xa8fc(%rip),%rdi        # 12030 <_IO_stdin_used+0x30>
    7734:	b8 00 00 00 00       	mov    $0x0,%eax
    7739:	e8 42 e9 ff ff       	callq  6080 <printf@plt>
    773e:	90                   	nop
    773f:	c9                   	leaveq 
    7740:	c3                   	retq   

0000000000007741 <transparent_crc_bytes>:
    7741:	f3 0f 1e fa          	endbr64 
    7745:	55                   	push   %rbp
    7746:	48 89 e5             	mov    %rsp,%rbp
    7749:	48 83 ec 30          	sub    $0x30,%rsp
    774d:	48 89 7d e8          	mov    %rdi,-0x18(%rbp)
    7751:	89 75 e4             	mov    %esi,-0x1c(%rbp)
    7754:	48 89 55 d8          	mov    %rdx,-0x28(%rbp)
    7758:	89 4d e0             	mov    %ecx,-0x20(%rbp)
    775b:	c7 45 fc 00 00 00 00 	movl   $0x0,-0x4(%rbp)
    7762:	eb 1e                	jmp    7782 <transparent_crc_bytes+0x41>
    7764:	8b 45 fc             	mov    -0x4(%rbp),%eax
    7767:	48 63 d0             	movslq %eax,%rdx
    776a:	48 8b 45 e8          	mov    -0x18(%rbp),%rax
    776e:	48 01 d0             	add    %rdx,%rax
    7771:	0f b6 00             	movzbl (%rax),%eax
    7774:	0f b6 c0             	movzbl %al,%eax
    7777:	89 c7                	mov    %eax,%edi
    7779:	e8 90 fe ff ff       	callq  760e <crc32_byte>
    777e:	83 45 fc 01          	addl   $0x1,-0x4(%rbp)
    7782:	8b 45 fc             	mov    -0x4(%rbp),%eax
    7785:	3b 45 e4             	cmp    -0x1c(%rbp),%eax
    7788:	7c da                	jl     7764 <transparent_crc_bytes+0x23>
    778a:	83 7d e0 00          	cmpl   $0x0,-0x20(%rbp)
    778e:	74 22                	je     77b2 <transparent_crc_bytes+0x71>
    7790:	8b 05 8a 08 01 00    	mov    0x1088a(%rip),%eax        # 18020 <crc32_context>
    7796:	f7 d0                	not    %eax
    7798:	89 c2                	mov    %eax,%edx
    779a:	48 8b 45 d8          	mov    -0x28(%rbp),%rax
    779e:	48 89 c6             	mov    %rax,%rsi
    77a1:	48 8d 3d 88 a8 00 00 	lea    0xa888(%rip),%rdi        # 12030 <_IO_stdin_used+0x30>
    77a8:	b8 00 00 00 00       	mov    $0x0,%eax
    77ad:	e8 ce e8 ff ff       	callq  6080 <printf@plt>
    77b2:	90                   	nop
    77b3:	c9                   	leaveq 
    77b4:	c3                   	retq   

00000000000077b5 <func_1>:
    77b5:	f3 0f 1e fa          	endbr64 
    77b9:	55                   	push   %rbp
    77ba:	48 89 e5             	mov    %rsp,%rbp
    77bd:	41 57                	push   %r15
    77bf:	41 56                	push   %r14
    77c1:	41 55                	push   %r13
    77c3:	41 54                	push   %r12
    77c5:	53                   	push   %rbx
    77c6:	48 81 ec 00 10 00 00 	sub    $0x1000,%rsp
    77cd:	48 83 0c 24 00       	orq    $0x0,(%rsp)
    77d2:	48 81 ec 18 03 00 00 	sub    $0x318,%rsp
    77d9:	64 48 8b 04 25 28 00 	mov    %fs:0x28,%rax
    77e0:	00 00 
    77e2:	48 89 45 c8          	mov    %rax,-0x38(%rbp)
    77e6:	31 c0                	xor    %eax,%eax
    77e8:	c6 85 1d ed ff ff 01 	movb   $0x1,-0x12e3(%rbp)
    77ef:	48 8d 05 72 08 01 00 	lea    0x10872(%rip),%rax        # 18068 <g_69>
    77f6:	48 89 85 a0 ed ff ff 	mov    %rax,-0x1260(%rbp)
    77fd:	c7 85 48 ed ff ff 47 	movl   $0xf2d24d47,-0x12b8(%rbp)
    7804:	4d d2 f2 
    7807:	c7 85 4c ed ff ff f9 	movl   $0xfffffff9,-0x12b4(%rbp)
    780e:	ff ff ff 
    7811:	66 c7 85 10 ef ff ff 	movw   $0xa243,-0x10f0(%rbp)
    7818:	43 a2 
    781a:	66 c7 85 12 ef ff ff 	movw   $0xb1f1,-0x10ee(%rbp)
    7821:	f1 b1 
    7823:	66 c7 85 14 ef ff ff 	movw   $0xa243,-0x10ec(%rbp)
    782a:	43 a2 
    782c:	66 c7 85 16 ef ff ff 	movw   $0xb1f1,-0x10ea(%rbp)
    7833:	f1 b1 
    7835:	66 c7 85 18 ef ff ff 	movw   $0xa243,-0x10e8(%rbp)
    783c:	43 a2 
    783e:	66 c7 85 1a ef ff ff 	movw   $0xb1f1,-0x10e6(%rbp)
    7845:	f1 b1 
    7847:	66 c7 85 1c ef ff ff 	movw   $0xa243,-0x10e4(%rbp)
    784e:	43 a2 
    7850:	66 c7 85 1e ef ff ff 	movw   $0xb1f1,-0x10e2(%rbp)
    7857:	f1 b1 
    7859:	66 c7 85 20 ef ff ff 	movw   $0xa243,-0x10e0(%rbp)
    7860:	43 a2 
    7862:	66 c7 85 22 ef ff ff 	movw   $0xb1f1,-0x10de(%rbp)
    7869:	f1 b1 
    786b:	66 c7 85 24 ef ff ff 	movw   $0xa243,-0x10dc(%rbp)
    7872:	43 a2 
    7874:	66 c7 85 26 ef ff ff 	movw   $0xb1f1,-0x10da(%rbp)
    787b:	f1 b1 
    787d:	66 c7 85 28 ef ff ff 	movw   $0xa243,-0x10d8(%rbp)
    7884:	43 a2 
    7886:	66 c7 85 2a ef ff ff 	movw   $0xb1f1,-0x10d6(%rbp)
    788d:	f1 b1 
    788f:	66 c7 85 2c ef ff ff 	movw   $0xa243,-0x10d4(%rbp)
    7896:	43 a2 
    7898:	66 c7 85 2e ef ff ff 	movw   $0xb1f1,-0x10d2(%rbp)
    789f:	f1 b1 
    78a1:	66 c7 85 22 ed ff ff 	movw   $0xf04d,-0x12de(%rbp)
    78a8:	4d f0 
    78aa:	48 8d 05 af 24 01 00 	lea    0x124af(%rip),%rax        # 19d60 <g_636>
    78b1:	48 89 85 a8 ed ff ff 	mov    %rax,-0x1258(%rbp)
    78b8:	48 8d 85 a8 ed ff ff 	lea    -0x1258(%rbp),%rax
    78bf:	48 89 85 f8 ed ff ff 	mov    %rax,-0x1208(%rbp)
    78c6:	48 c7 85 00 ee ff ff 	movq   $0xffffffffffffffff,-0x1200(%rbp)
    78cd:	ff ff ff ff 
    78d1:	48 8d 05 a0 22 01 00 	lea    0x122a0(%rip),%rax        # 19b78 <g_317>
    78d8:	48 89 85 b0 ed ff ff 	mov    %rax,-0x1250(%rbp)
    78df:	c7 85 50 ed ff ff fb 	movl   $0xfffffffb,-0x12b0(%rbp)
    78e6:	ff ff ff 
    78e9:	48 c7 85 08 ee ff ff 	movq   $0x0,-0x11f8(%rbp)
    78f0:	00 00 00 00 
    78f4:	48 8d 85 00 f6 ff ff 	lea    -0xa00(%rbp),%rax
    78fb:	48 8d 15 de ae 00 00 	lea    0xaede(%rip),%rdx        # 127e0 <g_1114+0x780>
    7902:	b9 90 00 00 00       	mov    $0x90,%ecx
    7907:	48 89 c7             	mov    %rax,%rdi
    790a:	48 89 d6             	mov    %rdx,%rsi
    790d:	f3 48 a5             	rep movsq %ds:(%rsi),%es:(%rdi)
    7910:	48 b8 1f c3 83 d2 19 	movabs $0xf4949719d283c31f,%rax
    7917:	97 94 f4 
    791a:	48 89 85 10 ee ff ff 	mov    %rax,-0x11f0(%rbp)
    7921:	c7 85 54 ed ff ff fd 	movl   $0xfffffffd,-0x12ac(%rbp)
    7928:	ff ff ff 
    792b:	48 8d 85 b0 ed ff ff 	lea    -0x1250(%rbp),%rax
    7932:	48 89 85 b8 ed ff ff 	mov    %rax,-0x1248(%rbp)
    7939:	48 8d 85 b8 ed ff ff 	lea    -0x1248(%rbp),%rax
    7940:	48 89 85 50 ef ff ff 	mov    %rax,-0x10b0(%rbp)
    7947:	48 8d 85 b8 ed ff ff 	lea    -0x1248(%rbp),%rax
    794e:	48 89 85 58 ef ff ff 	mov    %rax,-0x10a8(%rbp)
    7955:	48 8d 85 b8 ed ff ff 	lea    -0x1248(%rbp),%rax
    795c:	48 89 85 60 ef ff ff 	mov    %rax,-0x10a0(%rbp)
    7963:	48 8d 85 b8 ed ff ff 	lea    -0x1248(%rbp),%rax
    796a:	48 89 85 68 ef ff ff 	mov    %rax,-0x1098(%rbp)
    7971:	48 8d 85 b8 ed ff ff 	lea    -0x1248(%rbp),%rax
    7978:	48 89 85 70 ef ff ff 	mov    %rax,-0x1090(%rbp)
    797f:	48 8d 85 50 ef ff ff 	lea    -0x10b0(%rbp),%rax
    7986:	48 89 85 18 ee ff ff 	mov    %rax,-0x11e8(%rbp)
    798d:	66 c7 85 24 ed ff ff 	movw   $0x4,-0x12dc(%rbp)
    7994:	04 00 
    7996:	c6 85 1e ed ff ff 99 	movb   $0x99,-0x12e2(%rbp)
    799d:	c7 85 28 ed ff ff 00 	movl   $0x0,-0x12d8(%rbp)
    79a4:	00 00 00 
    79a7:	eb 1e                	jmp    79c7 <func_1+0x212>
    79a9:	8b 85 28 ed ff ff    	mov    -0x12d8(%rbp),%eax
    79af:	48 98                	cltq   
    79b1:	48 8d 15 6c 06 01 00 	lea    0x1066c(%rip),%rdx        # 18024 <g_3>
    79b8:	48 89 94 c5 f0 ee ff 	mov    %rdx,-0x1110(%rbp,%rax,8)
    79bf:	ff 
    79c0:	83 85 28 ed ff ff 01 	addl   $0x1,-0x12d8(%rbp)
    79c7:	83 bd 28 ed ff ff 01 	cmpl   $0x1,-0x12d8(%rbp)
    79ce:	7e d9                	jle    79a9 <func_1+0x1f4>
    79d0:	c7 85 28 ed ff ff 00 	movl   $0x0,-0x12d8(%rbp)
    79d7:	00 00 00 
    79da:	eb 1a                	jmp    79f6 <func_1+0x241>
    79dc:	8b 85 28 ed ff ff    	mov    -0x12d8(%rbp),%eax
    79e2:	48 98                	cltq   
    79e4:	c7 84 85 e4 ee ff ff 	movl   $0xb5ed63b5,-0x111c(%rbp,%rax,4)
    79eb:	b5 63 ed b5 
    79ef:	83 85 28 ed ff ff 01 	addl   $0x1,-0x12d8(%rbp)
    79f6:	83 bd 28 ed ff ff 02 	cmpl   $0x2,-0x12d8(%rbp)
    79fd:	7e dd                	jle    79dc <func_1+0x227>
    79ff:	8b 05 63 2f 01 00    	mov    0x12f63(%rip),%eax        # 1a968 <g_5>
    7a05:	83 e8 01             	sub    $0x1,%eax
    7a08:	89 05 5a 2f 01 00    	mov    %eax,0x12f5a(%rip)        # 1a968 <g_5>
    7a0e:	0f b6 85 1d ed ff ff 	movzbl -0x12e3(%rbp),%eax
    7a15:	84 c0                	test   %al,%al
    7a17:	0f 84 74 12 00 00    	je     8c91 <func_1+0x14dc>
    7a1d:	48 c7 85 40 f0 ff ff 	movq   $0x0,-0xfc0(%rbp)
    7a24:	00 00 00 00 
    7a28:	48 b8 8a 78 4a 4d 87 	movabs $0xa94fe874d4a788a,%rax
    7a2f:	fe 94 0a 
    7a32:	48 89 85 48 f0 ff ff 	mov    %rax,-0xfb8(%rbp)
    7a39:	48 bb 62 76 f8 58 61 	movabs $0x26de0d6158f87662,%rbx
    7a40:	0d de 26 
    7a43:	48 89 9d 50 f0 ff ff 	mov    %rbx,-0xfb0(%rbp)
    7a4a:	48 c7 85 58 f0 ff ff 	movq   $0x0,-0xfa8(%rbp)
    7a51:	00 00 00 00 
    7a55:	48 c7 85 60 f0 ff ff 	movq   $0x3,-0xfa0(%rbp)
    7a5c:	03 00 00 00 
    7a60:	48 c7 85 68 f0 ff ff 	movq   $0x0,-0xf98(%rbp)
    7a67:	00 00 00 00 
    7a6b:	48 c7 85 70 f0 ff ff 	movq   $0x0,-0xf90(%rbp)
    7a72:	00 00 00 00 
    7a76:	48 bf 6c ce d2 ba 29 	movabs $0xf323e629bad2ce6c,%rdi
    7a7d:	e6 23 f3 
    7a80:	48 89 bd 78 f0 ff ff 	mov    %rdi,-0xf88(%rbp)
    7a87:	48 b9 16 2e 3e df 76 	movabs $0xb676bd76df3e2e16,%rcx
    7a8e:	bd 76 b6 
    7a91:	48 89 8d 80 f0 ff ff 	mov    %rcx,-0xf80(%rbp)
    7a98:	48 c7 85 88 f0 ff ff 	movq   $0x0,-0xf78(%rbp)
    7a9f:	00 00 00 00 
    7aa3:	48 89 85 90 f0 ff ff 	mov    %rax,-0xf70(%rbp)
    7aaa:	48 89 9d 98 f0 ff ff 	mov    %rbx,-0xf68(%rbp)
    7ab1:	48 c7 85 a0 f0 ff ff 	movq   $0x0,-0xf60(%rbp)
    7ab8:	00 00 00 00 
    7abc:	48 c7 85 a8 f0 ff ff 	movq   $0x3,-0xf58(%rbp)
    7ac3:	03 00 00 00 
    7ac7:	48 c7 85 b0 f0 ff ff 	movq   $0x0,-0xf50(%rbp)
    7ace:	00 00 00 00 
    7ad2:	48 c7 85 b8 f0 ff ff 	movq   $0x0,-0xf48(%rbp)
    7ad9:	00 00 00 00 
    7add:	48 89 bd c0 f0 ff ff 	mov    %rdi,-0xf40(%rbp)
    7ae4:	48 89 8d c8 f0 ff ff 	mov    %rcx,-0xf38(%rbp)
    7aeb:	48 8d 85 1d ed ff ff 	lea    -0x12e3(%rbp),%rax
    7af2:	48 89 85 c0 ed ff ff 	mov    %rax,-0x1240(%rbp)
    7af9:	48 c7 85 48 ee ff ff 	movq   $0x0,-0x11b8(%rbp)
    7b00:	00 00 00 00 
    7b04:	48 8d 05 5d 20 01 00 	lea    0x1205d(%rip),%rax        # 19b68 <g_87>
    7b0b:	48 89 85 50 ee ff ff 	mov    %rax,-0x11b0(%rbp)
    7b12:	48 8d 85 a0 ed ff ff 	lea    -0x1260(%rbp),%rax
    7b19:	48 89 85 58 ee ff ff 	mov    %rax,-0x11a8(%rbp)
    7b20:	c7 85 78 ed ff ff 13 	movl   $0xf3a1c13,-0x1288(%rbp)
    7b27:	1c 3a 0f 
    7b2a:	48 b8 65 df 48 d7 4d 	movabs $0xebfea84dd748df65,%rax
    7b31:	a8 fe eb 
    7b34:	48 89 85 60 ee ff ff 	mov    %rax,-0x11a0(%rbp)
    7b3b:	48 8d 05 4e 22 01 00 	lea    0x1224e(%rip),%rax        # 19d90 <g_972>
    7b42:	48 89 85 68 ee ff ff 	mov    %rax,-0x1198(%rbp)
    7b49:	48 8d 05 38 2e 01 00 	lea    0x12e38(%rip),%rax        # 1a988 <g_975>
    7b50:	48 89 85 70 ee ff ff 	mov    %rax,-0x1190(%rbp)
    7b57:	c7 85 7c ed ff ff 1b 	movl   $0x8891541b,-0x1284(%rbp)
    7b5e:	54 91 88 
    7b61:	c7 85 80 ed ff ff ff 	movl   $0xffffffff,-0x1280(%rbp)
    7b68:	ff ff ff 
    7b6b:	c7 85 10 f0 ff ff 00 	movl   $0x0,-0xff0(%rbp)
    7b72:	00 00 00 
    7b75:	c7 85 14 f0 ff ff 00 	movl   $0x0,-0xfec(%rbp)
    7b7c:	00 00 00 
    7b7f:	c7 85 18 f0 ff ff 00 	movl   $0x0,-0xfe8(%rbp)
    7b86:	00 00 00 
    7b89:	c7 85 1c f0 ff ff fb 	movl   $0xfffffffb,-0xfe4(%rbp)
    7b90:	ff ff ff 
    7b93:	c7 85 20 f0 ff ff fb 	movl   $0xfffffffb,-0xfe0(%rbp)
    7b9a:	ff ff ff 
    7b9d:	c7 85 24 f0 ff ff fb 	movl   $0xfffffffb,-0xfdc(%rbp)
    7ba4:	ff ff ff 
    7ba7:	c7 85 28 f0 ff ff 00 	movl   $0x0,-0xfd8(%rbp)
    7bae:	00 00 00 
    7bb1:	c7 85 2c f0 ff ff 00 	movl   $0x0,-0xfd4(%rbp)
    7bb8:	00 00 00 
    7bbb:	c7 85 30 f0 ff ff 00 	movl   $0x0,-0xfd0(%rbp)
    7bc2:	00 00 00 
    7bc5:	c7 85 34 f0 ff ff fb 	movl   $0xfffffffb,-0xfcc(%rbp)
    7bcc:	ff ff ff 
    7bcf:	c7 85 38 f0 ff ff fb 	movl   $0xfffffffb,-0xfc8(%rbp)
    7bd6:	ff ff ff 
    7bd9:	c7 85 3c f0 ff ff fb 	movl   $0xfffffffb,-0xfc4(%rbp)
    7be0:	ff ff ff 
    7be3:	c7 85 30 ef ff ff 7c 	movl   $0xfc595b7c,-0x10d0(%rbp)
    7bea:	5b 59 fc 
    7bed:	c7 85 34 ef ff ff 01 	movl   $0x1,-0x10cc(%rbp)
    7bf4:	00 00 00 
    7bf7:	c7 85 38 ef ff ff 7c 	movl   $0xfc595b7c,-0x10c8(%rbp)
    7bfe:	5b 59 fc 
    7c01:	c7 85 3c ef ff ff 7c 	movl   $0xfc595b7c,-0x10c4(%rbp)
    7c08:	5b 59 fc 
    7c0b:	c7 85 40 ef ff ff 01 	movl   $0x1,-0x10c0(%rbp)
    7c12:	00 00 00 
    7c15:	c7 85 44 ef ff ff 7c 	movl   $0xfc595b7c,-0x10bc(%rbp)
    7c1c:	5b 59 fc 
    7c1f:	c7 85 48 ef ff ff 7c 	movl   $0xfc595b7c,-0x10b8(%rbp)
    7c26:	5b 59 fc 
    7c29:	c7 85 4c ef ff ff 01 	movl   $0x1,-0x10b4(%rbp)
    7c30:	00 00 00 
    7c33:	c7 85 84 ed ff ff 88 	movl   $0xaeabc88,-0x127c(%rbp)
    7c3a:	bc ea 0a 
    7c3d:	c6 85 20 ed ff ff 8f 	movb   $0x8f,-0x12e0(%rbp)
    7c44:	48 b8 09 28 18 5c a6 	movabs $0x8a2808a65c182809,%rax
    7c4b:	08 28 8a 
    7c4e:	48 89 85 c8 ed ff ff 	mov    %rax,-0x1238(%rbp)
    7c55:	48 8d 05 e4 21 01 00 	lea    0x121e4(%rip),%rax        # 19e40 <g_1022+0x20>
    7c5c:	48 89 85 78 ee ff ff 	mov    %rax,-0x1188(%rbp)
    7c63:	c7 85 2c ed ff ff 00 	movl   $0x0,-0x12d4(%rbp)
    7c6a:	00 00 00 
    7c6d:	eb 1e                	jmp    7c8d <func_1+0x4d8>
    7c6f:	8b 85 2c ed ff ff    	mov    -0x12d4(%rbp),%eax
    7c75:	48 98                	cltq   
    7c77:	48 8d 15 1a 2d 01 00 	lea    0x12d1a(%rip),%rdx        # 1a998 <g_1058>
    7c7e:	48 89 94 c5 00 ef ff 	mov    %rdx,-0x1100(%rbp,%rax,8)
    7c85:	ff 
    7c86:	83 85 2c ed ff ff 01 	addl   $0x1,-0x12d4(%rbp)
    7c8d:	83 bd 2c ed ff ff 01 	cmpl   $0x1,-0x12d4(%rbp)
    7c94:	7e d9                	jle    7c6f <func_1+0x4ba>
    7c96:	0f b6 05 5f 05 01 00 	movzbl 0x1055f(%rip),%eax        # 181fc <g_956+0x1c>
    7c9d:	0f b6 c0             	movzbl %al,%eax
    7ca0:	89 85 08 ed ff ff    	mov    %eax,-0x12f8(%rbp)
    7ca6:	48 8b 85 60 ee ff ff 	mov    -0x11a0(%rbp),%rax
    7cad:	44 0f b7 f8          	movzwl %ax,%r15d
    7cb1:	0f b7 05 0c 05 01 00 	movzwl 0x1050c(%rip),%eax        # 181c4 <g_953>
    7cb8:	44 0f b7 f0          	movzwl %ax,%r14d
    7cbc:	8b 85 48 ed ff ff    	mov    -0x12b8(%rbp),%eax
    7cc2:	44 0f b6 e8          	movzbl %al,%r13d
    7cc6:	48 8b 85 f8 ee ff ff 	mov    -0x1108(%rbp),%rax
    7ccd:	48 89 85 00 ed ff ff 	mov    %rax,-0x1300(%rbp)
    7cd4:	0f b6 05 75 04 01 00 	movzbl 0x10475(%rip),%eax        # 18150 <g_658+0x10>
    7cdb:	0f b6 c0             	movzbl %al,%eax
    7cde:	48 89 85 f8 ec ff ff 	mov    %rax,-0x1308(%rbp)
    7ce5:	48 8b 85 f8 ee ff ff 	mov    -0x1108(%rbp),%rax
    7cec:	48 89 85 f0 ec ff ff 	mov    %rax,-0x1310(%rbp)
    7cf3:	48 8b 05 66 1e 01 00 	mov    0x11e66(%rip),%rax        # 19b60 <g_68>
    7cfa:	48 89 85 e8 ec ff ff 	mov    %rax,-0x1318(%rbp)
    7d01:	8b 05 2d 04 01 00    	mov    0x1042d(%rip),%eax        # 18134 <g_655>
    7d07:	89 85 e4 ec ff ff    	mov    %eax,-0x131c(%rbp)
    7d0d:	0f b6 05 20 04 01 00 	movzbl 0x10420(%rip),%eax        # 18134 <g_655>
    7d14:	0f b6 c0             	movzbl %al,%eax
    7d17:	89 85 e0 ec ff ff    	mov    %eax,-0x1320(%rbp)
    7d1d:	48 8b 85 b0 f0 ff ff 	mov    -0xf50(%rbp),%rax
    7d24:	48 89 85 d8 ec ff ff 	mov    %rax,-0x1328(%rbp)
    7d2b:	b8 55 e8 ff ff       	mov    $0xffffe855,%eax
    7d30:	0f b7 c0             	movzwl %ax,%eax
    7d33:	89 85 d4 ec ff ff    	mov    %eax,-0x132c(%rbp)
    7d39:	8b 05 11 04 01 00    	mov    0x10411(%rip),%eax        # 18150 <g_658+0x10>
    7d3f:	48 98                	cltq   
    7d41:	48 89 85 c8 ec ff ff 	mov    %rax,-0x1338(%rbp)
    7d48:	0f b6 05 01 04 01 00 	movzbl 0x10401(%rip),%eax        # 18150 <g_658+0x10>
    7d4f:	44 0f b6 e0          	movzbl %al,%r12d
    7d53:	8b 05 73 03 01 00    	mov    0x10373(%rip),%eax        # 180cc <g_481>
    7d59:	48 63 d8             	movslq %eax,%rbx
    7d5c:	48 8b 8d c0 ed ff ff 	mov    -0x1240(%rbp),%rcx
    7d63:	0f b6 11             	movzbl (%rcx),%edx
    7d66:	8d 42 01             	lea    0x1(%rdx),%eax
    7d69:	88 01                	mov    %al,(%rcx)
    7d6b:	84 d2                	test   %dl,%dl
    7d6d:	74 2d                	je     7d9c <func_1+0x5e7>
    7d6f:	48 8d 3d ae 02 01 00 	lea    0x102ae(%rip),%rdi        # 18024 <g_3>
    7d76:	e8 5b 33 00 00       	callq  b0d6 <func_52>
    7d7b:	48 89 c2             	mov    %rax,%rdx
    7d7e:	48 8b 85 50 ee ff ff 	mov    -0x11b0(%rbp),%rax
    7d85:	48 89 10             	mov    %rdx,(%rax)
    7d88:	48 8b 85 50 ee ff ff 	mov    -0x11b0(%rbp),%rax
    7d8f:	48 8b 10             	mov    (%rax),%rdx
    7d92:	48 8d 05 8b 02 01 00 	lea    0x1028b(%rip),%rax        # 18024 <g_3>
    7d99:	48 39 c2             	cmp    %rax,%rdx
    7d9c:	0f b7 05 25 03 01 00 	movzwl 0x10325(%rip),%eax        # 180c8 <g_479>
    7da3:	98                   	cwtl   
    7da4:	48 8d 0d b5 03 01 00 	lea    0x103b5(%rip),%rcx        # 18160 <g_766>
    7dab:	4c 89 e2             	mov    %r12,%rdx
    7dae:	48 89 de             	mov    %rbx,%rsi
    7db1:	89 c7                	mov    %eax,%edi
    7db3:	e8 43 31 00 00       	callq  aefb <func_44>
    7db8:	8b 05 aa 2b 01 00    	mov    0x12baa(%rip),%eax        # 1a968 <g_5>
    7dbe:	0f b6 f0             	movzbl %al,%esi
    7dc1:	8b 05 61 02 01 00    	mov    0x10261(%rip),%eax        # 18028 <g_4>
    7dc7:	0f b6 c0             	movzbl %al,%eax
    7dca:	4c 8b 85 c8 ec ff ff 	mov    -0x1338(%rbp),%r8
    7dd1:	b9 52 00 00 00       	mov    $0x52,%ecx
    7dd6:	48 8d 15 47 02 01 00 	lea    0x10247(%rip),%rdx        # 18024 <g_3>
    7ddd:	89 c7                	mov    %eax,%edi
    7ddf:	e8 26 23 00 00       	callq  a10a <func_38>
    7de4:	48 8b 85 a0 ed ff ff 	mov    -0x1260(%rbp),%rax
    7deb:	48 85 c0             	test   %rax,%rax
    7dee:	0f 95 c0             	setne  %al
    7df1:	0f b6 c0             	movzbl %al,%eax
    7df4:	8b b5 d4 ec ff ff    	mov    -0x132c(%rbp),%esi
    7dfa:	89 c7                	mov    %eax,%edi
    7dfc:	e8 5b ef ff ff       	callq  6d5c <safe_mod_func_uint16_t_u_u>
    7e01:	0f b7 c0             	movzwl %ax,%eax
    7e04:	48 39 85 d8 ec ff ff 	cmp    %rax,-0x1328(%rbp)
    7e0b:	8b 05 bb 02 01 00    	mov    0x102bb(%rip),%eax        # 180cc <g_481>
    7e11:	98                   	cwtl   
    7e12:	8b b5 e0 ec ff ff    	mov    -0x1320(%rbp),%esi
    7e18:	89 c7                	mov    %eax,%edi
    7e1a:	e8 b4 e5 ff ff       	callq  63d3 <safe_sub_func_int16_t_s_s>
    7e1f:	48 0f bf c0          	movswq %ax,%rax
    7e23:	4c 8b 85 f8 ec ff ff 	mov    -0x1308(%rbp),%r8
    7e2a:	48 8b 8d f0 ec ff ff 	mov    -0x1310(%rbp),%rcx
    7e31:	48 8b 95 e8 ec ff ff 	mov    -0x1318(%rbp),%rdx
    7e38:	8b b5 e4 ec ff ff    	mov    -0x131c(%rbp),%esi
    7e3e:	48 89 c7             	mov    %rax,%rdi
    7e41:	e8 a1 22 00 00       	callq  a0e7 <func_27>
    7e46:	48 8b 85 58 ee ff ff 	mov    -0x11a8(%rbp),%rax
    7e4d:	48 8d 15 14 02 01 00 	lea    0x10214(%rip),%rdx        # 18068 <g_69>
    7e54:	48 89 10             	mov    %rdx,(%rax)
    7e57:	48 8b 85 58 ee ff ff 	mov    -0x11a8(%rbp),%rax
    7e5e:	48 8b 00             	mov    (%rax),%rax
    7e61:	8b 8d 78 ed ff ff    	mov    -0x1288(%rbp),%ecx
    7e67:	48 8b 95 00 ed ff ff 	mov    -0x1300(%rbp),%rdx
    7e6e:	89 ce                	mov    %ecx,%esi
    7e70:	48 89 c7             	mov    %rax,%rdi
    7e73:	e8 6a 12 00 00       	callq  90e2 <func_23>
    7e78:	8b 85 e4 ee ff ff    	mov    -0x111c(%rbp),%eax
    7e7e:	0f b6 c0             	movzbl %al,%eax
    7e81:	44 8b 85 08 ed ff ff 	mov    -0x12f8(%rbp),%r8d
    7e88:	44 89 f9             	mov    %r15d,%ecx
    7e8b:	44 89 f2             	mov    %r14d,%edx
    7e8e:	44 89 ee             	mov    %r13d,%esi
    7e91:	89 c7                	mov    %eax,%edi
    7e93:	e8 26 12 00 00       	callq  90be <func_16>
    7e98:	66 3d 37 79          	cmp    $0x7937,%ax
    7e9c:	0f 95 c0             	setne  %al
    7e9f:	0f b6 d0             	movzbl %al,%edx
    7ea2:	8b 05 7c 01 01 00    	mov    0x1017c(%rip),%eax        # 18024 <g_3>
    7ea8:	0f b7 f0             	movzwl %ax,%esi
    7eab:	48 8b 85 f8 ee ff ff 	mov    -0x1108(%rbp),%rax
    7eb2:	48 8d 0d 6b 01 01 00 	lea    0x1016b(%rip),%rcx        # 18024 <g_3>
    7eb9:	48 89 c7             	mov    %rax,%rdi
    7ebc:	e8 ad 0f 00 00       	callq  8e6e <func_11>
    7ec1:	48 8b 95 68 ee ff ff 	mov    -0x1198(%rbp),%rdx
    7ec8:	48 89 02             	mov    %rax,(%rdx)
    7ecb:	48 8b 85 68 ee ff ff 	mov    -0x1198(%rbp),%rax
    7ed2:	48 8b 10             	mov    (%rax),%rdx
    7ed5:	48 8b 85 70 ee ff ff 	mov    -0x1190(%rbp),%rax
    7edc:	48 89 10             	mov    %rdx,(%rax)
    7edf:	0f b6 05 b6 02 01 00 	movzbl 0x102b6(%rip),%eax        # 1819c <g_950>
    7ee6:	3c 01                	cmp    $0x1,%al
    7ee8:	0f 95 c0             	setne  %al
    7eeb:	0f b6 c0             	movzbl %al,%eax
    7eee:	09 85 7c ed ff ff    	or     %eax,-0x1284(%rbp)
    7ef4:	8b 85 7c ed ff ff    	mov    -0x1284(%rbp),%eax
    7efa:	3b 85 80 ed ff ff    	cmp    -0x1280(%rbp),%eax
    7f00:	0f 95 c0             	setne  %al
    7f03:	0f b6 c0             	movzbl %al,%eax
    7f06:	be d8 94 cf 8e       	mov    $0x8ecf94d8,%esi
    7f0b:	89 c7                	mov    %eax,%edi
    7f0d:	e8 be ef ff ff       	callq  6ed0 <safe_sub_func_uint32_t_u_u>
    7f12:	8b 95 38 f0 ff ff    	mov    -0xfc8(%rbp),%edx
    7f18:	31 d0                	xor    %edx,%eax
    7f1a:	89 85 38 f0 ff ff    	mov    %eax,-0xfc8(%rbp)
    7f20:	8b 05 4a 01 01 00    	mov    0x1014a(%rip),%eax        # 18070 <g_111>
    7f26:	89 c2                	mov    %eax,%edx
    7f28:	48 8b 05 41 1c 01 00 	mov    0x11c41(%rip),%rax        # 19b70 <g_182>
    7f2f:	0f b7 00             	movzwl (%rax),%eax
    7f32:	0f b7 c0             	movzwl %ax,%eax
    7f35:	48 8d 0d f4 01 01 00 	lea    0x101f4(%rip),%rcx        # 18130 <g_651>
    7f3c:	89 c6                	mov    %eax,%esi
    7f3e:	48 8d 3d 1b 02 01 00 	lea    0x1021b(%rip),%rdi        # 18160 <g_766>
    7f45:	e8 24 0f 00 00       	callq  8e6e <func_11>
    7f4a:	48 8b 95 68 ee ff ff 	mov    -0x1198(%rbp),%rdx
    7f51:	48 89 02             	mov    %rax,(%rdx)
    7f54:	66 c7 05 63 02 01 00 	movw   $0x2,0x10263(%rip)        # 181c0 <g_952>
    7f5b:	02 00 
    7f5d:	e9 19 0d 00 00       	jmpq   8c7b <func_1+0x14c6>
    7f62:	66 c7 85 dc ee ff ff 	movw   $0xfffd,-0x1124(%rbp)
    7f69:	fd ff 
    7f6b:	66 c7 85 de ee ff ff 	movw   $0xfffd,-0x1122(%rbp)
    7f72:	fd ff 
    7f74:	66 c7 85 e0 ee ff ff 	movw   $0xfffd,-0x1120(%rbp)
    7f7b:	fd ff 
    7f7d:	66 c7 85 e2 ee ff ff 	movw   $0xfffd,-0x111e(%rbp)
    7f84:	fd ff 
    7f86:	48 8d 85 a0 ed ff ff 	lea    -0x1260(%rbp),%rax
    7f8d:	48 89 85 80 ef ff ff 	mov    %rax,-0x1080(%rbp)
    7f94:	48 8d 85 a0 ed ff ff 	lea    -0x1260(%rbp),%rax
    7f9b:	48 89 85 88 ef ff ff 	mov    %rax,-0x1078(%rbp)
    7fa2:	48 8d 85 a0 ed ff ff 	lea    -0x1260(%rbp),%rax
    7fa9:	48 89 85 90 ef ff ff 	mov    %rax,-0x1070(%rbp)
    7fb0:	48 8d 85 a0 ed ff ff 	lea    -0x1260(%rbp),%rax
    7fb7:	48 89 85 98 ef ff ff 	mov    %rax,-0x1068(%rbp)
    7fbe:	48 8d 85 a0 ed ff ff 	lea    -0x1260(%rbp),%rax
    7fc5:	48 89 85 a0 ef ff ff 	mov    %rax,-0x1060(%rbp)
    7fcc:	c6 85 21 ed ff ff 00 	movb   $0x0,-0x12df(%rbp)
    7fd3:	48 8d 85 70 f1 ff ff 	lea    -0xe90(%rbp),%rax
    7fda:	48 8d 15 7f ac 00 00 	lea    0xac7f(%rip),%rdx        # 12c60 <g_1114+0xc00>
    7fe1:	b9 28 00 00 00       	mov    $0x28,%ecx
    7fe6:	48 89 c7             	mov    %rax,%rdi
    7fe9:	48 89 d6             	mov    %rdx,%rsi
    7fec:	f3 48 a5             	rep movsq %ds:(%rsi),%es:(%rdi)
    7fef:	48 8d 85 b0 f2 ff ff 	lea    -0xd50(%rbp),%rax
    7ff6:	48 8d 15 a3 ad 00 00 	lea    0xada3(%rip),%rdx        # 12da0 <g_1114+0xd40>
    7ffd:	b9 69 00 00 00       	mov    $0x69,%ecx
    8002:	48 89 c7             	mov    %rax,%rdi
    8005:	48 89 d6             	mov    %rdx,%rsi
    8008:	f3 48 a5             	rep movsq %ds:(%rsi),%es:(%rdi)
    800b:	48 8d 05 26 1e 01 00 	lea    0x11e26(%rip),%rax        # 19e38 <g_1022+0x18>
    8012:	48 89 85 80 ee ff ff 	mov    %rax,-0x1180(%rbp)
    8019:	48 c7 85 d0 ed ff ff 	movq   $0x0,-0x1230(%rbp)
    8020:	00 00 00 00 
    8024:	48 8d 85 d0 ed ff ff 	lea    -0x1230(%rbp),%rax
    802b:	48 89 85 d8 ed ff ff 	mov    %rax,-0x1228(%rbp)
    8032:	48 c7 85 88 ee ff ff 	movq   $0x0,-0x1178(%rbp)
    8039:	00 00 00 00 
    803d:	48 8d 85 d8 ed ff ff 	lea    -0x1228(%rbp),%rax
    8044:	48 89 85 90 ee ff ff 	mov    %rax,-0x1170(%rbp)
    804b:	48 8d 85 c8 ed ff ff 	lea    -0x1238(%rbp),%rax
    8052:	48 89 85 d0 f0 ff ff 	mov    %rax,-0xf30(%rbp)
    8059:	48 8d 05 10 01 01 00 	lea    0x10110(%rip),%rax        # 18170 <g_817>
    8060:	48 89 85 d8 f0 ff ff 	mov    %rax,-0xf28(%rbp)
    8067:	48 c7 85 e0 f0 ff ff 	movq   $0x0,-0xf20(%rbp)
    806e:	00 00 00 00 
    8072:	48 c7 85 e8 f0 ff ff 	movq   $0x0,-0xf18(%rbp)
    8079:	00 00 00 00 
    807d:	48 c7 85 f0 f0 ff ff 	movq   $0x0,-0xf10(%rbp)
    8084:	00 00 00 00 
    8088:	48 8d 05 e1 00 01 00 	lea    0x100e1(%rip),%rax        # 18170 <g_817>
    808f:	48 89 85 f8 f0 ff ff 	mov    %rax,-0xf08(%rbp)
    8096:	48 8d 85 c8 ed ff ff 	lea    -0x1238(%rbp),%rax
    809d:	48 89 85 00 f1 ff ff 	mov    %rax,-0xf00(%rbp)
    80a4:	48 8d 85 c8 ed ff ff 	lea    -0x1238(%rbp),%rax
    80ab:	48 89 85 08 f1 ff ff 	mov    %rax,-0xef8(%rbp)
    80b2:	48 8d 05 b7 00 01 00 	lea    0x100b7(%rip),%rax        # 18170 <g_817>
    80b9:	48 89 85 10 f1 ff ff 	mov    %rax,-0xef0(%rbp)
    80c0:	48 c7 85 18 f1 ff ff 	movq   $0x0,-0xee8(%rbp)
    80c7:	00 00 00 00 
    80cb:	48 8d 05 9e 00 01 00 	lea    0x1009e(%rip),%rax        # 18170 <g_817>
    80d2:	48 89 85 20 f1 ff ff 	mov    %rax,-0xee0(%rbp)
    80d9:	48 8d 85 c8 ed ff ff 	lea    -0x1238(%rbp),%rax
    80e0:	48 89 85 28 f1 ff ff 	mov    %rax,-0xed8(%rbp)
    80e7:	48 8d 85 c8 ed ff ff 	lea    -0x1238(%rbp),%rax
    80ee:	48 89 85 30 f1 ff ff 	mov    %rax,-0xed0(%rbp)
    80f5:	48 8d 05 74 00 01 00 	lea    0x10074(%rip),%rax        # 18170 <g_817>
    80fc:	48 89 85 38 f1 ff ff 	mov    %rax,-0xec8(%rbp)
    8103:	48 c7 85 40 f1 ff ff 	movq   $0x0,-0xec0(%rbp)
    810a:	00 00 00 00 
    810e:	48 c7 85 48 f1 ff ff 	movq   $0x0,-0xeb8(%rbp)
    8115:	00 00 00 00 
    8119:	48 c7 85 50 f1 ff ff 	movq   $0x0,-0xeb0(%rbp)
    8120:	00 00 00 00 
    8124:	48 8d 05 45 00 01 00 	lea    0x10045(%rip),%rax        # 18170 <g_817>
    812b:	48 89 85 58 f1 ff ff 	mov    %rax,-0xea8(%rbp)
    8132:	48 8d 85 c8 ed ff ff 	lea    -0x1238(%rbp),%rax
    8139:	48 89 85 60 f1 ff ff 	mov    %rax,-0xea0(%rbp)
    8140:	48 8d 85 c8 ed ff ff 	lea    -0x1238(%rbp),%rax
    8147:	48 89 85 68 f1 ff ff 	mov    %rax,-0xe98(%rbp)
    814e:	48 8d 85 b0 ef ff ff 	lea    -0x1050(%rbp),%rax
    8155:	48 89 85 e0 ed ff ff 	mov    %rax,-0x1220(%rbp)
    815c:	48 8d 85 e0 ed ff ff 	lea    -0x1220(%rbp),%rax
    8163:	48 89 85 e8 ed ff ff 	mov    %rax,-0x1218(%rbp)
    816a:	48 c7 85 98 ee ff ff 	movq   $0x0,-0x1168(%rbp)
    8171:	00 00 00 00 
    8175:	48 8d 85 e8 ed ff ff 	lea    -0x1218(%rbp),%rax
    817c:	48 89 85 a0 ee ff ff 	mov    %rax,-0x1160(%rbp)
    8183:	48 c7 85 a8 ee ff ff 	movq   $0x0,-0x1158(%rbp)
    818a:	00 00 00 00 
    818e:	c7 85 30 ed ff ff 00 	movl   $0x0,-0x12d0(%rbp)
    8195:	00 00 00 
    8198:	eb 22                	jmp    81bc <func_1+0xa07>
    819a:	8b 85 30 ed ff ff    	mov    -0x12d0(%rbp),%eax
    81a0:	48 98                	cltq   
    81a2:	48 8d 95 d0 f0 ff ff 	lea    -0xf30(%rbp),%rdx
    81a9:	48 83 c2 40          	add    $0x40,%rdx
    81ad:	48 89 94 c5 b0 ef ff 	mov    %rdx,-0x1050(%rbp,%rax,8)
    81b4:	ff 
    81b5:	83 85 30 ed ff ff 01 	addl   $0x1,-0x12d0(%rbp)
    81bc:	83 bd 30 ed ff ff 04 	cmpl   $0x4,-0x12d0(%rbp)
    81c3:	7e d5                	jle    819a <func_1+0x9e5>
    81c5:	8b 05 ad ff 00 00    	mov    0xffad(%rip),%eax        # 18178 <g_872>
    81cb:	48 8b 85 68 ee ff ff 	mov    -0x1198(%rbp),%rax
    81d2:	48 8b 00             	mov    (%rax),%rax
    81d5:	8b 00                	mov    (%rax),%eax
    81d7:	0f b7 d8             	movzwl %ax,%ebx
    81da:	48 8b 05 17 1c 01 00 	mov    0x11c17(%rip),%rax        # 19df8 <g_994>
    81e1:	48 8b 00             	mov    (%rax),%rax
    81e4:	4c 8b 20             	mov    (%rax),%r12
    81e7:	48 8b 05 0a ff 00 00 	mov    0xff0a(%rip),%rax        # 180f8 <g_591+0x18>
    81ee:	41 89 c5             	mov    %eax,%r13d
    81f1:	48 8b 05 78 19 01 00 	mov    0x11978(%rip),%rax        # 19b70 <g_182>
    81f8:	66 c7 00 01 00       	movw   $0x1,(%rax)
    81fd:	0f b7 00             	movzwl (%rax),%eax
    8200:	41 89 c7             	mov    %eax,%r15d
    8203:	8b 05 c3 ff 00 00    	mov    0xffc3(%rip),%eax        # 181cc <g_955>
    8209:	41 89 c6             	mov    %eax,%r14d
    820c:	b8 55 e8 ff ff       	mov    $0xffffe855,%eax
    8211:	66 85 c0             	test   %ax,%ax
    8214:	74 07                	je     821d <func_1+0xa68>
    8216:	b8 f7 ff 00 00       	mov    $0xfff7,%eax
    821b:	eb 05                	jmp    8222 <func_1+0xa6d>
    821d:	b8 f6 ff 00 00       	mov    $0xfff6,%eax
    8222:	be ac 8e c4 92       	mov    $0x92c48eac,%esi
    8227:	89 c7                	mov    %eax,%edi
    8229:	e8 9e e4 ff ff       	callq  66cc <safe_mod_func_int32_t_s_s>
    822e:	89 c2                	mov    %eax,%edx
    8230:	48 8b 05 29 19 01 00 	mov    0x11929(%rip),%rax        # 19b60 <g_68>
    8237:	0f b6 08             	movzbl (%rax),%ecx
    823a:	48 8b 05 1f 19 01 00 	mov    0x1191f(%rip),%rax        # 19b60 <g_68>
    8241:	09 ca                	or     %ecx,%edx
    8243:	88 10                	mov    %dl,(%rax)
    8245:	48 8b 85 68 ee ff ff 	mov    -0x1198(%rbp),%rax
    824c:	48 8b 00             	mov    (%rax),%rax
    824f:	8b 10                	mov    (%rax),%edx
    8251:	0f b6 05 40 ff 00 00 	movzbl 0xff40(%rip),%eax        # 18198 <g_949>
    8258:	0f b6 c0             	movzbl %al,%eax
    825b:	39 c2                	cmp    %eax,%edx
    825d:	0f 94 c0             	sete   %al
    8260:	0f b6 c0             	movzbl %al,%eax
    8263:	48 be 59 b5 e1 de 5b 	movabs $0xa7eb055bdee1b559,%rsi
    826a:	05 eb a7 
    826d:	48 89 c7             	mov    %rax,%rdi
    8270:	e8 cc e5 ff ff       	callq  6841 <safe_add_func_int64_t_s_s>
    8275:	48 85 c0             	test   %rax,%rax
    8278:	0f 94 c0             	sete   %al
    827b:	0f b6 c0             	movzbl %al,%eax
    827e:	44 89 f6             	mov    %r14d,%esi
    8281:	89 c7                	mov    %eax,%edi
    8283:	e8 30 ec ff ff       	callq  6eb8 <safe_add_func_uint32_t_u_u>
    8288:	44 31 f8             	xor    %r15d,%eax
    828b:	0f b6 d0             	movzbl %al,%edx
    828e:	8b 85 4c ef ff ff    	mov    -0x10b4(%rbp),%eax
    8294:	0f b6 c0             	movzbl %al,%eax
    8297:	89 d6                	mov    %edx,%esi
    8299:	89 c7                	mov    %eax,%edi
    829b:	e8 0e e9 ff ff       	callq  6bae <safe_mod_func_uint8_t_u_u>
    82a0:	0f b6 c0             	movzbl %al,%eax
    82a3:	4d 89 e0             	mov    %r12,%r8
    82a6:	48 8d 0d e3 fd 00 00 	lea    0xfde3(%rip),%rcx        # 18090 <g_426>
    82ad:	48 8d 15 d4 fd 00 00 	lea    0xfdd4(%rip),%rdx        # 18088 <g_217>
    82b4:	44 89 ee             	mov    %r13d,%esi
    82b7:	48 89 c7             	mov    %rax,%rdi
    82ba:	e8 28 1e 00 00       	callq  a0e7 <func_27>
    82bf:	0f b7 85 dc ee ff ff 	movzwl -0x1124(%rbp),%eax
    82c6:	0f b7 d0             	movzwl %ax,%edx
    82c9:	48 8b 85 80 ef ff ff 	mov    -0x1080(%rbp),%rax
    82d0:	48 85 c0             	test   %rax,%rax
    82d3:	0f 94 c0             	sete   %al
    82d6:	0f b6 c0             	movzbl %al,%eax
    82d9:	39 c2                	cmp    %eax,%edx
    82db:	0f 94 c0             	sete   %al
    82de:	0f b6 c0             	movzbl %al,%eax
    82e1:	89 de                	mov    %ebx,%esi
    82e3:	89 c7                	mov    %eax,%edi
    82e5:	e8 a4 ea ff ff       	callq  6d8e <safe_div_func_uint16_t_u_u>
    82ea:	48 8b 05 67 1a 01 00 	mov    0x11a67(%rip),%rax        # 19d58 <g_637>
    82f1:	48 8b 00             	mov    (%rax),%rax
    82f4:	48 85 c0             	test   %rax,%rax
    82f7:	0f 9e c0             	setle  %al
    82fa:	0f b6 c8             	movzbl %al,%ecx
    82fd:	0f b7 85 dc ee ff ff 	movzwl -0x1124(%rbp),%eax
    8304:	0f b7 d0             	movzwl %ax,%edx
    8307:	48 8b 05 72 1a 01 00 	mov    0x11a72(%rip),%rax        # 19d80 <g_919>
    830e:	31 ca                	xor    %ecx,%edx
    8310:	89 10                	mov    %edx,(%rax)
    8312:	48 8b 05 67 1a 01 00 	mov    0x11a67(%rip),%rax        # 19d80 <g_919>
    8319:	8b 00                	mov    (%rax),%eax
    831b:	85 c0                	test   %eax,%eax
    831d:	0f 84 df 06 00 00    	je     8a02 <func_1+0x124d>
    8323:	48 8d 85 c0 ed ff ff 	lea    -0x1240(%rbp),%rax
    832a:	48 89 85 e0 ef ff ff 	mov    %rax,-0x1020(%rbp)
    8331:	48 8d 85 c0 ed ff ff 	lea    -0x1240(%rbp),%rax
    8338:	48 89 85 e8 ef ff ff 	mov    %rax,-0x1018(%rbp)
    833f:	48 8d 85 c0 ed ff ff 	lea    -0x1240(%rbp),%rax
    8346:	48 89 85 f0 ef ff ff 	mov    %rax,-0x1010(%rbp)
    834d:	48 8d 85 c0 ed ff ff 	lea    -0x1240(%rbp),%rax
    8354:	48 89 85 f8 ef ff ff 	mov    %rax,-0x1008(%rbp)
    835b:	48 8d 85 c0 ed ff ff 	lea    -0x1240(%rbp),%rax
    8362:	48 89 85 00 f0 ff ff 	mov    %rax,-0x1000(%rbp)
    8369:	48 8d 85 e0 ef ff ff 	lea    -0x1020(%rbp),%rax
    8370:	48 83 c0 10          	add    $0x10,%rax
    8374:	48 89 85 f0 ed ff ff 	mov    %rax,-0x1210(%rbp)
    837b:	48 8d 85 f0 ed ff ff 	lea    -0x1210(%rbp),%rax
    8382:	48 89 85 b8 ee ff ff 	mov    %rax,-0x1148(%rbp)
    8389:	c7 85 34 ed ff ff c0 	movl   $0x4ef747c0,-0x12cc(%rbp)
    8390:	47 f7 4e 
    8393:	48 8d 05 be fc 00 00 	lea    0xfcbe(%rip),%rax        # 18058 <g_54+0x18>
    839a:	48 89 85 c0 ee ff ff 	mov    %rax,-0x1140(%rbp)
    83a1:	c7 85 94 ed ff ff 01 	movl   $0x1,-0x126c(%rbp)
    83a8:	00 00 00 
    83ab:	48 8d 05 4e 1a 01 00 	lea    0x11a4e(%rip),%rax        # 19e00 <g_1023>
    83b2:	48 89 85 c8 ee ff ff 	mov    %rax,-0x1138(%rbp)
    83b9:	c7 85 98 ed ff ff 18 	movl   $0x12e28918,-0x1268(%rbp)
    83c0:	89 e2 12 
    83c3:	48 8b 05 be 19 01 00 	mov    0x119be(%rip),%rax        # 19d88 <g_961>
    83ca:	8b 10                	mov    (%rax),%edx
    83cc:	8b 05 9e fc 00 00    	mov    0xfc9e(%rip),%eax        # 18070 <g_111>
    83d2:	21 d0                	and    %edx,%eax
    83d4:	89 05 96 fc 00 00    	mov    %eax,0xfc96(%rip)        # 18070 <g_111>
    83da:	48 8b 95 f0 ed ff ff 	mov    -0x1210(%rbp),%rdx
    83e1:	48 8b 85 b8 ee ff ff 	mov    -0x1148(%rbp),%rax
    83e8:	48 89 10             	mov    %rdx,(%rax)
    83eb:	0f b7 85 dc ee ff ff 	movzwl -0x1124(%rbp),%eax
    83f2:	0f b6 d8             	movzbl %al,%ebx
    83f5:	8b 85 94 ed ff ff    	mov    -0x126c(%rbp),%eax
    83fb:	4c 63 e0             	movslq %eax,%r12
    83fe:	48 8b 05 53 19 01 00 	mov    0x11953(%rip),%rax        # 19d58 <g_637>
    8405:	48 c7 00 f9 ff ff ff 	movq   $0xfffffffffffffff9,(%rax)
    840c:	c7 85 34 ed ff ff f9 	movl   $0xfffffff9,-0x12cc(%rbp)
    8413:	ff ff ff 
    8416:	8b 85 34 ed ff ff    	mov    -0x12cc(%rbp),%eax
    841c:	48 98                	cltq   
    841e:	48 89 c7             	mov    %rax,%rdi
    8421:	e8 f0 e3 ff ff       	callq  6816 <safe_unary_minus_func_int64_t_s>
    8426:	48 85 c0             	test   %rax,%rax
    8429:	75 0c                	jne    8437 <func_1+0xc82>
    842b:	0f b7 05 6e fd 00 00 	movzwl 0xfd6e(%rip),%eax        # 181a0 <g_951>
    8432:	66 85 c0             	test   %ax,%ax
    8435:	74 07                	je     843e <func_1+0xc89>
    8437:	ba 01 00 00 00       	mov    $0x1,%edx
    843c:	eb 05                	jmp    8443 <func_1+0xc8e>
    843e:	ba 00 00 00 00       	mov    $0x0,%edx
    8443:	48 8b 85 c0 ee ff ff 	mov    -0x1140(%rbp),%rax
    844a:	0f b7 00             	movzwl (%rax),%eax
    844d:	09 c2                	or     %eax,%edx
    844f:	48 8b 85 c0 ee ff ff 	mov    -0x1140(%rbp),%rax
    8456:	66 89 10             	mov    %dx,(%rax)
    8459:	0f b7 05 68 fd 00 00 	movzwl 0xfd68(%rip),%eax        # 181c8 <g_954>
    8460:	44 0f b7 f8          	movzwl %ax,%r15d
    8464:	44 0f b6 ad 21 ed ff 	movzbl -0x12df(%rbp),%r13d
    846b:	ff 
    846c:	8b 85 94 ed ff ff    	mov    -0x126c(%rbp),%eax
    8472:	4c 63 f0             	movslq %eax,%r14
    8475:	8b 85 84 ed ff ff    	mov    -0x127c(%rbp),%eax
    847b:	0f b6 c0             	movzbl %al,%eax
    847e:	be 01 00 00 00       	mov    $0x1,%esi
    8483:	89 c7                	mov    %eax,%edi
    8485:	e8 7b e7 ff ff       	callq  6c05 <safe_lshift_func_uint8_t_u_s>
    848a:	be 04 00 00 00       	mov    $0x4,%esi
    848f:	bf 00 00 00 00       	mov    $0x0,%edi
    8494:	e8 9c de ff ff       	callq  6335 <safe_rshift_func_int8_t_s_s>
    8499:	48 0f be c0          	movsbq %al,%rax
    849d:	4c 89 f6             	mov    %r14,%rsi
    84a0:	48 89 c7             	mov    %rax,%rdi
    84a3:	e8 0c e5 ff ff       	callq  69b4 <safe_mod_func_int64_t_s_s>
    84a8:	be 01 00 00 00       	mov    $0x1,%esi
    84ad:	bf ff ff 00 00       	mov    $0xffff,%edi
    84b2:	e8 c3 e9 ff ff       	callq  6e7a <safe_rshift_func_uint16_t_u_u>
    84b7:	66 85 c0             	test   %ax,%ax
    84ba:	74 0a                	je     84c6 <func_1+0xd11>
    84bc:	0f b7 85 dc ee ff ff 	movzwl -0x1124(%rbp),%eax
    84c3:	66 85 c0             	test   %ax,%ax
    84c6:	0f b7 95 de ee ff ff 	movzwl -0x1122(%rbp),%edx
    84cd:	48 8b 05 a4 16 01 00 	mov    0x116a4(%rip),%rax        # 19b78 <g_317>
    84d4:	88 10                	mov    %dl,(%rax)
    84d6:	0f b6 00             	movzbl (%rax),%eax
    84d9:	0f b6 c0             	movzbl %al,%eax
    84dc:	44 89 ee             	mov    %r13d,%esi
    84df:	89 c7                	mov    %eax,%edi
    84e1:	e8 92 e6 ff ff       	callq  6b78 <safe_sub_func_uint8_t_u_u>
    84e6:	0f b6 d0             	movzbl %al,%edx
    84e9:	48 8b 05 98 24 01 00 	mov    0x12498(%rip),%rax        # 1a988 <g_975>
    84f0:	8b 00                	mov    (%rax),%eax
    84f2:	21 c2                	and    %eax,%edx
    84f4:	48 8b 05 65 16 01 00 	mov    0x11665(%rip),%rax        # 19b60 <g_68>
    84fb:	0f b6 00             	movzbl (%rax),%eax
    84fe:	0f be c0             	movsbl %al,%eax
    8501:	39 c2                	cmp    %eax,%edx
    8503:	0f 9d c2             	setge  %dl
    8506:	48 8b 05 63 16 01 00 	mov    0x11663(%rip),%rax        # 19b70 <g_182>
    850d:	0f b6 d2             	movzbl %dl,%edx
    8510:	66 89 10             	mov    %dx,(%rax)
    8513:	0f b7 00             	movzwl (%rax),%eax
    8516:	66 85 c0             	test   %ax,%ax
    8519:	74 11                	je     852c <func_1+0xd77>
    851b:	8b 05 73 fc 00 00    	mov    0xfc73(%rip),%eax        # 18194 <g_948>
    8521:	85 c0                	test   %eax,%eax
    8523:	74 07                	je     852c <func_1+0xd77>
    8525:	b8 01 00 00 00       	mov    $0x1,%eax
    852a:	eb 05                	jmp    8531 <func_1+0xd7c>
    852c:	b8 00 00 00 00       	mov    $0x0,%eax
    8531:	44 39 f8             	cmp    %r15d,%eax
    8534:	4c 89 e6             	mov    %r12,%rsi
    8537:	48 bf 1c 2e 6c 0b 35 	movabs $0x3d6d55350b6c2e1c,%rdi
    853e:	55 6d 3d 
    8541:	e8 e8 ea ff ff       	callq  702e <safe_add_func_uint64_t_u_u>
    8546:	89 c2                	mov    %eax,%edx
    8548:	b8 55 e8 ff ff       	mov    $0xffffe855,%eax
    854d:	98                   	cwtl   
    854e:	89 d6                	mov    %edx,%esi
    8550:	89 c7                	mov    %eax,%edi
    8552:	e8 ce e9 ff ff       	callq  6f25 <safe_div_func_uint32_t_u_u>
    8557:	0f b6 c0             	movzbl %al,%eax
    855a:	89 de                	mov    %ebx,%esi
    855c:	89 c7                	mov    %eax,%edi
    855e:	e8 78 e6 ff ff       	callq  6bdb <safe_div_func_uint8_t_u_u>
    8563:	89 c2                	mov    %eax,%edx
    8565:	48 8b 05 14 18 01 00 	mov    0x11814(%rip),%rax        # 19d80 <g_919>
    856c:	8b 08                	mov    (%rax),%ecx
    856e:	0f b6 d2             	movzbl %dl,%edx
    8571:	09 ca                	or     %ecx,%edx
    8573:	89 10                	mov    %edx,(%rax)
    8575:	8b 10                	mov    (%rax),%edx
    8577:	8b 05 13 fb 00 00    	mov    0xfb13(%rip),%eax        # 18090 <g_426>
    857d:	31 d0                	xor    %edx,%eax
    857f:	89 05 0b fb 00 00    	mov    %eax,0xfb0b(%rip)        # 18090 <g_426>
    8585:	c7 85 34 ed ff ff 02 	movl   $0x2,-0x12cc(%rbp)
    858c:	00 00 00 
    858f:	e9 5c 04 00 00       	jmpq   89f0 <func_1+0x123b>
    8594:	c7 85 38 ed ff ff ff 	movl   $0xffffffff,-0x12c8(%rbp)
    859b:	ff ff ff 
    859e:	c7 85 9c ed ff ff 7e 	movl   $0xd7f6947e,-0x1264(%rbp)
    85a5:	94 f6 d7 
    85a8:	48 c7 85 d0 ee ff ff 	movq   $0xfffffffffffffffb,-0x1130(%rbp)
    85af:	fb ff ff ff 
    85b3:	48 8b 05 c6 17 01 00 	mov    0x117c6(%rip),%rax        # 19d80 <g_919>
    85ba:	8b 10                	mov    (%rax),%edx
    85bc:	89 d1                	mov    %edx,%ecx
    85be:	8b 95 34 ed ff ff    	mov    -0x12cc(%rbp),%edx
    85c4:	48 63 d2             	movslq %edx,%rdx
    85c7:	48 c1 e2 05          	shl    $0x5,%rdx
    85cb:	48 8d 5d d0          	lea    -0x30(%rbp),%rbx
    85cf:	48 01 da             	add    %rbx,%rdx
    85d2:	48 81 ea 90 0f 00 00 	sub    $0xf90,%rdx
    85d9:	48 8b 12             	mov    (%rdx),%rdx
    85dc:	21 ca                	and    %ecx,%edx
    85de:	89 10                	mov    %edx,(%rax)
    85e0:	c7 05 46 fb 00 00 03 	movl   $0x3,0xfb46(%rip)        # 18130 <g_651>
    85e7:	00 00 00 
    85ea:	e9 3b 01 00 00       	jmpq   872a <func_1+0xf75>
    85ef:	48 8d 85 80 fa ff ff 	lea    -0x580(%rbp),%rax
    85f6:	48 8d 15 03 ab 00 00 	lea    0xab03(%rip),%rdx        # 13100 <g_1114+0x10a0>
    85fd:	b9 a8 00 00 00       	mov    $0xa8,%ecx
    8602:	48 89 c7             	mov    %rax,%rdi
    8605:	48 89 d6             	mov    %rdx,%rsi
    8608:	f3 48 a5             	rep movsq %ds:(%rsi),%es:(%rdi)
    860b:	48 8b 05 7e 17 01 00 	mov    0x1177e(%rip),%rax        # 19d90 <g_972>
    8612:	8b 00                	mov    (%rax),%eax
    8614:	85 c0                	test   %eax,%eax
    8616:	0f 85 1f 01 00 00    	jne    873b <func_1+0xf86>
    861c:	48 8b 85 b8 fc ff ff 	mov    -0x348(%rbp),%rax
    8623:	48 83 c0 01          	add    $0x1,%rax
    8627:	48 89 85 b8 fc ff ff 	mov    %rax,-0x348(%rbp)
    862e:	48 8b 05 53 23 01 00 	mov    0x12353(%rip),%rax        # 1a988 <g_975>
    8635:	8b 18                	mov    (%rax),%ebx
    8637:	8b 85 38 ed ff ff    	mov    -0x12c8(%rbp),%eax
    863d:	4c 63 e0             	movslq %eax,%r12
    8640:	8b 85 38 ed ff ff    	mov    -0x12c8(%rbp),%eax
    8646:	0f bf d0             	movswl %ax,%edx
    8649:	48 8b 05 18 fb 00 00 	mov    0xfb18(%rip),%rax        # 18168 <g_815>
    8650:	98                   	cwtl   
    8651:	89 d6                	mov    %edx,%esi
    8653:	89 c7                	mov    %eax,%edi
    8655:	e8 bc dd ff ff       	callq  6416 <safe_mod_func_int16_t_s_s>
    865a:	0f be c0             	movsbl %al,%eax
    865d:	8b 95 34 ed ff ff    	mov    -0x12cc(%rbp),%edx
    8663:	48 63 d2             	movslq %edx,%rdx
    8666:	48 c1 e2 05          	shl    $0x5,%rdx
    866a:	48 8d 75 d0          	lea    -0x30(%rbp),%rsi
    866e:	48 01 f2             	add    %rsi,%rdx
    8671:	48 81 ea 90 0f 00 00 	sub    $0xf90,%rdx
    8678:	48 8b 12             	mov    (%rdx),%rdx
    867b:	0f be d2             	movsbl %dl,%edx
    867e:	83 e2 6f             	and    $0x6f,%edx
    8681:	89 c6                	mov    %eax,%esi
    8683:	89 d7                	mov    %edx,%edi
    8685:	e8 88 db ff ff       	callq  6212 <safe_mul_func_int8_t_s_s>
    868a:	8b 85 38 ed ff ff    	mov    -0x12c8(%rbp),%eax
    8690:	48 98                	cltq   
    8692:	4c 89 e6             	mov    %r12,%rsi
    8695:	48 89 c7             	mov    %rax,%rdi
    8698:	e8 17 e3 ff ff       	callq  69b4 <safe_mod_func_int64_t_s_s>
    869d:	0f b7 85 dc ee ff ff 	movzwl -0x1124(%rbp),%eax
    86a4:	0f b7 c0             	movzwl %ax,%eax
    86a7:	39 85 38 ed ff ff    	cmp    %eax,-0x12c8(%rbp)
    86ad:	0f 9f c0             	setg   %al
    86b0:	0f b6 d0             	movzbl %al,%edx
    86b3:	48 8b 05 b6 14 01 00 	mov    0x114b6(%rip),%rax        # 19b70 <g_182>
    86ba:	0f b7 00             	movzwl (%rax),%eax
    86bd:	0f b7 c0             	movzwl %ax,%eax
    86c0:	39 c2                	cmp    %eax,%edx
    86c2:	0f 9c c0             	setl   %al
    86c5:	0f b6 c0             	movzbl %al,%eax
    86c8:	89 de                	mov    %ebx,%esi
    86ca:	89 c7                	mov    %eax,%edi
    86cc:	e8 fb df ff ff       	callq  66cc <safe_mod_func_int32_t_s_s>
    86d1:	48 98                	cltq   
    86d3:	48 8b 95 78 fb ff ff 	mov    -0x488(%rbp),%rdx
    86da:	48 89 c6             	mov    %rax,%rsi
    86dd:	48 89 d7             	mov    %rdx,%rdi
    86e0:	e8 12 e3 ff ff       	callq  69f7 <safe_div_func_int64_t_s_s>
    86e5:	48 8b 95 f0 f1 ff ff 	mov    -0xe10(%rbp),%rdx
    86ec:	48 21 d0             	and    %rdx,%rax
    86ef:	48 89 85 f0 f1 ff ff 	mov    %rax,-0xe10(%rbp)
    86f6:	48 8b 85 f0 f1 ff ff 	mov    -0xe10(%rbp),%rax
    86fd:	89 85 38 ed ff ff    	mov    %eax,-0x12c8(%rbp)
    8703:	48 8b 05 76 16 01 00 	mov    0x11676(%rip),%rax        # 19d80 <g_919>
    870a:	8b 95 38 ed ff ff    	mov    -0x12c8(%rbp),%edx
    8710:	89 10                	mov    %edx,(%rax)
    8712:	83 bd 38 ed ff ff 00 	cmpl   $0x0,-0x12c8(%rbp)
    8719:	75 23                	jne    873e <func_1+0xf89>
    871b:	8b 05 0f fa 00 00    	mov    0xfa0f(%rip),%eax        # 18130 <g_651>
    8721:	83 c0 01             	add    $0x1,%eax
    8724:	89 05 06 fa 00 00    	mov    %eax,0xfa06(%rip)        # 18130 <g_651>
    872a:	8b 05 00 fa 00 00    	mov    0xfa00(%rip),%eax        # 18130 <g_651>
    8730:	83 f8 08             	cmp    $0x8,%eax
    8733:	0f 8e b6 fe ff ff    	jle    85ef <func_1+0xe3a>
    8739:	eb 04                	jmp    873f <func_1+0xf8a>
    873b:	90                   	nop
    873c:	eb 01                	jmp    873f <func_1+0xf8a>
    873e:	90                   	nop
    873f:	c7 85 7c ed ff ff 02 	movl   $0x2,-0x1284(%rbp)
    8746:	00 00 00 
    8749:	83 bd 7c ed ff ff 00 	cmpl   $0x0,-0x1284(%rbp)
    8750:	0f 88 93 02 00 00    	js     89e9 <func_1+0x1234>
    8756:	c7 85 3c ed ff ff 00 	movl   $0x0,-0x12c4(%rbp)
    875d:	00 00 00 
    8760:	eb 46                	jmp    87a8 <func_1+0xff3>
    8762:	c7 85 40 ed ff ff 00 	movl   $0x0,-0x12c0(%rbp)
    8769:	00 00 00 
    876c:	eb 2a                	jmp    8798 <func_1+0xfe3>
    876e:	8b 85 40 ed ff ff    	mov    -0x12c0(%rbp),%eax
    8774:	48 98                	cltq   
    8776:	8b 95 3c ed ff ff    	mov    -0x12c4(%rbp),%edx
    877c:	48 63 d2             	movslq %edx,%rdx
    877f:	48 01 d2             	add    %rdx,%rdx
    8782:	48 01 d0             	add    %rdx,%rax
    8785:	48 c7 84 c5 80 fa ff 	movq   $0x1,-0x580(%rbp,%rax,8)
    878c:	ff 01 00 00 00 
    8791:	83 85 40 ed ff ff 01 	addl   $0x1,-0x12c0(%rbp)
    8798:	83 bd 40 ed ff ff 01 	cmpl   $0x1,-0x12c0(%rbp)
    879f:	7e cd                	jle    876e <func_1+0xfb9>
    87a1:	83 85 3c ed ff ff 01 	addl   $0x1,-0x12c4(%rbp)
    87a8:	83 bd 3c ed ff ff 02 	cmpl   $0x2,-0x12c4(%rbp)
    87af:	7e b1                	jle    8762 <func_1+0xfad>
    87b1:	48 8b 05 c8 15 01 00 	mov    0x115c8(%rip),%rax        # 19d80 <g_919>
    87b8:	8b 00                	mov    (%rax),%eax
    87ba:	21 85 9c ed ff ff    	and    %eax,-0x1264(%rbp)
    87c0:	48 8b 05 c1 21 01 00 	mov    0x121c1(%rip),%rax        # 1a988 <g_975>
    87c7:	8b 00                	mov    (%rax),%eax
    87c9:	85 c0                	test   %eax,%eax
    87cb:	0f 85 17 02 00 00    	jne    89e8 <func_1+0x1233>
    87d1:	48 8b 05 80 15 01 00 	mov    0x11580(%rip),%rax        # 19d58 <g_637>
    87d8:	48 8b 18             	mov    (%rax),%rbx
    87db:	8b 05 8f f8 00 00    	mov    0xf88f(%rip),%eax        # 18070 <g_111>
    87e1:	44 0f bf e0          	movswl %ax,%r12d
    87e5:	48 8b 85 80 fa ff ff 	mov    -0x580(%rbp),%rax
    87ec:	48 83 f8 02          	cmp    $0x2,%rax
    87f0:	0f 87 92 01 00 00    	ja     8988 <func_1+0x11d3>
    87f6:	4c 8b ad 80 fa ff ff 	mov    -0x580(%rbp),%r13
    87fd:	48 8b 05 6c 13 01 00 	mov    0x1136c(%rip),%rax        # 19b70 <g_182>
    8804:	0f b7 00             	movzwl (%rax),%eax
    8807:	44 0f b7 f0          	movzwl %ax,%r14d
    880b:	0f b7 05 56 fa 00 00 	movzwl 0xfa56(%rip),%eax        # 18268 <g_957+0x8>
    8812:	44 0f b7 f8          	movzwl %ax,%r15d
    8816:	48 83 bd d0 ee ff ff 	cmpq   $0x0,-0x1130(%rbp)
    881d:	00 
    881e:	0f 85 96 00 00 00    	jne    88ba <func_1+0x1105>
    8824:	8b 85 9c ed ff ff    	mov    -0x1264(%rbp),%eax
    882a:	48 63 d0             	movslq %eax,%rdx
    882d:	48 8b 05 24 15 01 00 	mov    0x11524(%rip),%rax        # 19d58 <g_637>
    8834:	48 8b 00             	mov    (%rax),%rax
    8837:	48 39 c2             	cmp    %rax,%rdx
    883a:	0f 9f c2             	setg   %dl
    883d:	48 8b 05 34 13 01 00 	mov    0x11334(%rip),%rax        # 19b78 <g_317>
    8844:	88 10                	mov    %dl,(%rax)
    8846:	0f b6 00             	movzbl (%rax),%eax
    8849:	0f b6 c0             	movzbl %al,%eax
    884c:	48 8b 95 f0 ed ff ff 	mov    -0x1210(%rbp),%rdx
    8853:	48 8b 12             	mov    (%rdx),%rdx
    8856:	48 8b 12             	mov    (%rdx),%rdx
    8859:	c6 02 fd             	movb   $0xfd,(%rdx)
    885c:	89 c6                	mov    %eax,%esi
    885e:	bf fd 00 00 00       	mov    $0xfd,%edi
    8863:	e8 10 e3 ff ff       	callq  6b78 <safe_sub_func_uint8_t_u_u>
    8868:	0f b6 c0             	movzbl %al,%eax
    886b:	48 be 80 13 5b 38 3a 	movabs $0x62b0dd3a385b1380,%rsi
    8872:	dd b0 62 
    8875:	48 89 c7             	mov    %rax,%rdi
    8878:	e8 37 e1 ff ff       	callq  69b4 <safe_mod_func_int64_t_s_s>
    887d:	48 89 85 08 ed ff ff 	mov    %rax,-0x12f8(%rbp)
    8884:	0f be 95 20 ed ff ff 	movsbl -0x12e0(%rbp),%edx
    888b:	0f b7 85 e2 ee ff ff 	movzwl -0x111e(%rbp),%eax
    8892:	0f b7 c0             	movzwl %ax,%eax
    8895:	39 c2                	cmp    %eax,%edx
    8897:	0f 9e c0             	setle  %al
    889a:	0f b6 c0             	movzbl %al,%eax
    889d:	be 01 00 00 00       	mov    $0x1,%esi
    88a2:	89 c7                	mov    %eax,%edi
    88a4:	e8 15 e4 ff ff       	callq  6cbe <safe_rshift_func_uint8_t_u_u>
    88a9:	3c 5c                	cmp    $0x5c,%al
    88ab:	0f 96 c0             	setbe  %al
    88ae:	0f b6 c0             	movzbl %al,%eax
    88b1:	48 39 85 08 ed ff ff 	cmp    %rax,-0x12f8(%rbp)
    88b8:	74 07                	je     88c1 <func_1+0x110c>
    88ba:	b8 01 00 00 00       	mov    $0x1,%eax
    88bf:	eb 05                	jmp    88c6 <func_1+0x1111>
    88c1:	b8 00 00 00 00       	mov    $0x0,%eax
    88c6:	0f b7 c0             	movzwl %ax,%eax
    88c9:	44 89 fe             	mov    %r15d,%esi
    88cc:	89 c7                	mov    %eax,%edi
    88ce:	e8 75 e5 ff ff       	callq  6e48 <safe_rshift_func_uint16_t_u_s>
    88d3:	48 8b 05 a6 14 01 00 	mov    0x114a6(%rip),%rax        # 19d80 <g_919>
    88da:	44 89 f6             	mov    %r14d,%esi
    88dd:	bf 00 00 00 00       	mov    $0x0,%edi
    88e2:	e8 56 e4 ff ff       	callq  6d3d <safe_mul_func_uint16_t_u_u>
    88e7:	0f b7 d0             	movzwl %ax,%edx
    88ea:	0f b7 05 cf f8 00 00 	movzwl 0xf8cf(%rip),%eax        # 181c0 <g_952>
    88f1:	0f b7 c0             	movzwl %ax,%eax
    88f4:	48 63 c8             	movslq %eax,%rcx
    88f7:	48 8d 34 cd 00 00 00 	lea    0x0(,%rcx,8),%rsi
    88fe:	00 
    88ff:	48 8d 0d da f7 00 00 	lea    0xf7da(%rip),%rcx        # 180e0 <g_591>
    8906:	48 8b 0c 0e          	mov    (%rsi,%rcx,1),%rcx
    890a:	48 8d 79 ff          	lea    -0x1(%rcx),%rdi
    890e:	48 63 c8             	movslq %eax,%rcx
    8911:	48 8d 34 cd 00 00 00 	lea    0x0(,%rcx,8),%rsi
    8918:	00 
    8919:	48 8d 0d c0 f7 00 00 	lea    0xf7c0(%rip),%rcx        # 180e0 <g_591>
    8920:	48 89 3c 0e          	mov    %rdi,(%rsi,%rcx,1)
    8924:	48 98                	cltq   
    8926:	48 8d 0c c5 00 00 00 	lea    0x0(,%rax,8),%rcx
    892d:	00 
    892e:	48 8d 05 ab f7 00 00 	lea    0xf7ab(%rip),%rax        # 180e0 <g_591>
    8935:	48 8b 04 01          	mov    (%rcx,%rax,1),%rax
    8939:	48 89 d6             	mov    %rdx,%rsi
    893c:	48 89 c7             	mov    %rax,%rdi
    893f:	e8 6b e7 ff ff       	callq  70af <safe_div_func_uint64_t_u_u>
    8944:	be d4 99 d2 7f       	mov    $0x7fd299d4,%esi
    8949:	89 c7                	mov    %eax,%edi
    894b:	e8 d5 e5 ff ff       	callq  6f25 <safe_div_func_uint32_t_u_u>
    8950:	0f b7 c0             	movzwl %ax,%eax
    8953:	be 0b 00 00 00       	mov    $0xb,%esi
    8958:	89 c7                	mov    %eax,%edi
    895a:	e8 5f e4 ff ff       	callq  6dbe <safe_lshift_func_uint16_t_u_s>
    895f:	0f b7 c0             	movzwl %ax,%eax
    8962:	4c 89 ee             	mov    %r13,%rsi
    8965:	48 89 c7             	mov    %rax,%rdi
    8968:	e8 8a e0 ff ff       	callq  69f7 <safe_div_func_int64_t_s_s>
    896d:	48 c7 c6 ff ff ff ff 	mov    $0xffffffffffffffff,%rsi
    8974:	48 89 c7             	mov    %rax,%rdi
    8977:	e8 2c df ff ff       	callq  68a8 <safe_sub_func_int64_t_s_s>
    897c:	48 85 c0             	test   %rax,%rax
    897f:	74 07                	je     8988 <func_1+0x11d3>
    8981:	b8 01 00 00 00       	mov    $0x1,%eax
    8986:	eb 05                	jmp    898d <func_1+0x11d8>
    8988:	b8 00 00 00 00       	mov    $0x0,%eax
    898d:	98                   	cwtl   
    898e:	44 89 e6             	mov    %r12d,%esi
    8991:	89 c7                	mov    %eax,%edi
    8993:	e8 5d da ff ff       	callq  63f5 <safe_mul_func_int16_t_s_s>
    8998:	48 0f bf c0          	movswq %ax,%rax
    899c:	48 89 de             	mov    %rbx,%rsi
    899f:	48 89 c7             	mov    %rax,%rdi
    89a2:	e8 0d e0 ff ff       	callq  69b4 <safe_mod_func_int64_t_s_s>
    89a7:	48 3d 15 b5 00 00    	cmp    $0xb515,%rax
    89ad:	0f 95 c0             	setne  %al
    89b0:	0f b6 d0             	movzbl %al,%edx
    89b3:	48 8b 85 80 fa ff ff 	mov    -0x580(%rbp),%rax
    89ba:	48 39 c2             	cmp    %rax,%rdx
    89bd:	0f 9c c0             	setl   %al
    89c0:	0f b6 c0             	movzbl %al,%eax
    89c3:	48 be 17 71 04 2e 42 	movabs $0x3354ce422e047117,%rsi
    89ca:	ce 54 33 
    89cd:	48 89 c7             	mov    %rax,%rdi
    89d0:	e8 6c de ff ff       	callq  6841 <safe_add_func_int64_t_s_s>
    89d5:	31 85 98 ed ff ff    	xor    %eax,-0x1268(%rbp)
    89db:	0f b7 05 e6 f6 00 00 	movzwl 0xf6e6(%rip),%eax        # 180c8 <g_479>
    89e2:	98                   	cwtl   
    89e3:	e9 60 04 00 00       	jmpq   8e48 <func_1+0x1693>
    89e8:	90                   	nop
    89e9:	83 ad 34 ed ff ff 01 	subl   $0x1,-0x12cc(%rbp)
    89f0:	83 bd 34 ed ff ff 00 	cmpl   $0x0,-0x12cc(%rbp)
    89f7:	0f 89 97 fb ff ff    	jns    8594 <func_1+0xddf>
    89fd:	e9 20 01 00 00       	jmpq   8b22 <func_1+0x136d>
    8a02:	c7 85 88 ed ff ff 00 	movl   $0x0,-0x1278(%rbp)
    8a09:	00 00 00 
    8a0c:	83 ad 88 ed ff ff 01 	subl   $0x1,-0x1278(%rbp)
    8a13:	c7 05 73 f6 00 00 00 	movl   $0x0,0xf673(%rip)        # 18090 <g_426>
    8a1a:	00 00 00 
    8a1d:	e9 c8 00 00 00       	jmpq   8aea <func_1+0x1335>
    8a22:	c7 85 8c ed ff ff ff 	movl   $0xffffffff,-0x1274(%rbp)
    8a29:	ff ff ff 
    8a2c:	c7 85 90 ed ff ff bb 	movl   $0x7bf7abb,-0x1270(%rbp)
    8a33:	7a bf 07 
    8a36:	48 8d 85 30 ef ff ff 	lea    -0x10d0(%rbp),%rax
    8a3d:	48 83 c0 1c          	add    $0x1c,%rax
    8a41:	48 89 85 b0 ee ff ff 	mov    %rax,-0x1150(%rbp)
    8a48:	c6 05 75 f7 00 00 00 	movb   $0x0,0xf775(%rip)        # 181c4 <g_953>
    8a4f:	90                   	nop
    8a50:	0f b6 05 6d f7 00 00 	movzbl 0xf76d(%rip),%eax        # 181c4 <g_953>
    8a57:	3c 02                	cmp    $0x2,%al
    8a59:	77 0b                	ja     8a66 <func_1+0x12b1>
    8a5b:	8b 05 2f f7 00 00    	mov    0xf72f(%rip),%eax        # 18190 <g_947>
    8a61:	e9 e2 03 00 00       	jmpq   8e48 <func_1+0x1693>
    8a66:	83 bd 8c ed ff ff 00 	cmpl   $0x0,-0x1274(%rbp)
    8a6d:	75 6b                	jne    8ada <func_1+0x1325>
    8a6f:	83 bd 90 ed ff ff 01 	cmpl   $0x1,-0x1270(%rbp)
    8a76:	0f 94 c0             	sete   %al
    8a79:	0f b6 d0             	movzbl %al,%edx
    8a7c:	48 8b 85 b0 ee ff ff 	mov    -0x1150(%rbp),%rax
    8a83:	8b 00                	mov    (%rax),%eax
    8a85:	8b 0d 71 f7 00 00    	mov    0xf771(%rip),%ecx        # 181fc <g_956+0x1c>
    8a8b:	31 c1                	xor    %eax,%ecx
    8a8d:	48 8b 85 b0 ee ff ff 	mov    -0x1150(%rbp),%rax
    8a94:	89 08                	mov    %ecx,(%rax)
    8a96:	48 8b 85 b0 ee ff ff 	mov    -0x1150(%rbp),%rax
    8a9d:	8b 00                	mov    (%rax),%eax
    8a9f:	39 c2                	cmp    %eax,%edx
    8aa1:	0f 92 c0             	setb   %al
    8aa4:	0f b6 c0             	movzbl %al,%eax
    8aa7:	48 63 d0             	movslq %eax,%rdx
    8aaa:	48 8b 85 c8 ed ff ff 	mov    -0x1238(%rbp),%rax
    8ab1:	48 09 d0             	or     %rdx,%rax
    8ab4:	48 89 85 c8 ed ff ff 	mov    %rax,-0x1238(%rbp)
    8abb:	c7 85 88 ed ff ff 00 	movl   $0x0,-0x1278(%rbp)
    8ac2:	00 00 00 
    8ac5:	83 bd 88 ed ff ff 02 	cmpl   $0x2,-0x1278(%rbp)
    8acc:	77 0d                	ja     8adb <func_1+0x1326>
    8ace:	48 8b 85 a8 f1 ff ff 	mov    -0xe58(%rbp),%rax
    8ad5:	e9 6e 03 00 00       	jmpq   8e48 <func_1+0x1693>
    8ada:	90                   	nop
    8adb:	8b 05 af f5 00 00    	mov    0xf5af(%rip),%eax        # 18090 <g_426>
    8ae1:	83 c0 01             	add    $0x1,%eax
    8ae4:	89 05 a6 f5 00 00    	mov    %eax,0xf5a6(%rip)        # 18090 <g_426>
    8aea:	8b 05 a0 f5 00 00    	mov    0xf5a0(%rip),%eax        # 18090 <g_426>
    8af0:	83 f8 02             	cmp    $0x2,%eax
    8af3:	0f 8e 29 ff ff ff    	jle    8a22 <func_1+0x126d>
    8af9:	48 8b 85 80 ee ff ff 	mov    -0x1180(%rbp),%rax
    8b00:	48 3b 85 78 ee ff ff 	cmp    -0x1188(%rbp),%rax
    8b07:	0f 94 c0             	sete   %al
    8b0a:	0f b6 c0             	movzbl %al,%eax
    8b0d:	89 85 1c f4 ff ff    	mov    %eax,-0xbe4(%rbp)
    8b13:	0f b7 05 72 f6 00 00 	movzwl 0xf672(%rip),%eax        # 1818c <g_945>
    8b1a:	0f b7 c0             	movzwl %ax,%eax
    8b1d:	e9 26 03 00 00       	jmpq   8e48 <func_1+0x1693>
    8b22:	48 8b 95 d8 ed ff ff 	mov    -0x1228(%rbp),%rdx
    8b29:	48 8b 85 90 ee ff ff 	mov    -0x1170(%rbp),%rax
    8b30:	48 89 10             	mov    %rdx,(%rax)
    8b33:	48 8b 85 90 ee ff ff 	mov    -0x1170(%rbp),%rax
    8b3a:	48 8b 08             	mov    (%rax),%rcx
    8b3d:	48 8b 95 e8 ed ff ff 	mov    -0x1218(%rbp),%rdx
    8b44:	48 8b 85 a0 ee ff ff 	mov    -0x1160(%rbp),%rax
    8b4b:	48 89 10             	mov    %rdx,(%rax)
    8b4e:	48 8b 85 a0 ee ff ff 	mov    -0x1160(%rbp),%rax
    8b55:	48 8b 00             	mov    (%rax),%rax
    8b58:	48 39 c1             	cmp    %rax,%rcx
    8b5b:	0f 95 c0             	setne  %al
    8b5e:	0f b6 c8             	movzbl %al,%ecx
    8b61:	48 8b 05 20 12 01 00 	mov    0x11220(%rip),%rax        # 19d88 <g_961>
    8b68:	8b 10                	mov    (%rax),%edx
    8b6a:	21 ca                	and    %ecx,%edx
    8b6c:	89 10                	mov    %edx,(%rax)
    8b6e:	48 8b 05 eb 0f 01 00 	mov    0x10feb(%rip),%rax        # 19b60 <g_68>
    8b75:	0f b6 00             	movzbl (%rax),%eax
    8b78:	0f be c0             	movsbl %al,%eax
    8b7b:	be 06 00 00 00       	mov    $0x6,%esi
    8b80:	89 c7                	mov    %eax,%edi
    8b82:	e8 ae d7 ff ff       	callq  6335 <safe_rshift_func_int8_t_s_s>
    8b87:	84 c0                	test   %al,%al
    8b89:	75 13                	jne    8b9e <func_1+0x13e9>
    8b8b:	48 8b 95 c0 ed ff ff 	mov    -0x1240(%rbp),%rdx
    8b92:	0f b6 02             	movzbl (%rdx),%eax
    8b95:	8d 48 ff             	lea    -0x1(%rax),%ecx
    8b98:	88 0a                	mov    %cl,(%rdx)
    8b9a:	84 c0                	test   %al,%al
    8b9c:	74 07                	je     8ba5 <func_1+0x13f0>
    8b9e:	b9 01 00 00 00       	mov    $0x1,%ecx
    8ba3:	eb 05                	jmp    8baa <func_1+0x13f5>
    8ba5:	b9 00 00 00 00       	mov    $0x0,%ecx
    8baa:	48 83 bd a8 ee ff ff 	cmpq   $0x0,-0x1158(%rbp)
    8bb1:	00 
    8bb2:	0f 95 c0             	setne  %al
    8bb5:	0f b6 d0             	movzbl %al,%edx
    8bb8:	0f b7 85 de ee ff ff 	movzwl -0x1122(%rbp),%eax
    8bbf:	0f b7 c0             	movzwl %ax,%eax
    8bc2:	39 c2                	cmp    %eax,%edx
    8bc4:	0f 9c c0             	setl   %al
    8bc7:	0f b6 c0             	movzbl %al,%eax
    8bca:	39 c1                	cmp    %eax,%ecx
    8bcc:	0f 9e c1             	setle  %cl
    8bcf:	0f b7 85 20 ef ff ff 	movzwl -0x10e0(%rbp),%eax
    8bd6:	89 c6                	mov    %eax,%esi
    8bd8:	48 8b 05 11 12 01 00 	mov    0x11211(%rip),%rax        # 19df0 <g_995>
    8bdf:	48 8b 00             	mov    (%rax),%rax
    8be2:	89 c2                	mov    %eax,%edx
    8be4:	48 8b 05 8d 0f 01 00 	mov    0x10f8d(%rip),%rax        # 19b78 <g_317>
    8beb:	09 f2                	or     %esi,%edx
    8bed:	88 10                	mov    %dl,(%rax)
    8bef:	0f b6 00             	movzbl (%rax),%eax
    8bf2:	3c 06                	cmp    $0x6,%al
    8bf4:	0f 97 c2             	seta   %dl
    8bf7:	48 8b 05 fa 11 01 00 	mov    0x111fa(%rip),%rax        # 19df8 <g_994>
    8bfe:	48 8b 00             	mov    (%rax),%rax
    8c01:	0f b6 d2             	movzbl %dl,%edx
    8c04:	48 89 10             	mov    %rdx,(%rax)
    8c07:	48 8b 00             	mov    (%rax),%rax
    8c0a:	48 85 c0             	test   %rax,%rax
    8c0d:	0f 95 c0             	setne  %al
    8c10:	21 c8                	and    %ecx,%eax
    8c12:	0f b6 d0             	movzbl %al,%edx
    8c15:	48 8b 85 70 ee ff ff 	mov    -0x1190(%rbp),%rax
    8c1c:	48 8b 00             	mov    (%rax),%rax
    8c1f:	8b 00                	mov    (%rax),%eax
    8c21:	21 c2                	and    %eax,%edx
    8c23:	0f b6 05 9e f5 00 00 	movzbl 0xf59e(%rip),%eax        # 181c8 <g_954>
    8c2a:	0f b6 c0             	movzbl %al,%eax
    8c2d:	31 d0                	xor    %edx,%eax
    8c2f:	89 85 8c f3 ff ff    	mov    %eax,-0xc74(%rbp)
    8c35:	c6 05 88 f5 00 00 00 	movb   $0x0,0xf588(%rip)        # 181c4 <g_953>
    8c3c:	eb 21                	jmp    8c5f <func_1+0x14aa>
    8c3e:	48 8b 05 0b 11 01 00 	mov    0x1110b(%rip),%rax        # 19d50 <g_533>
    8c45:	48 8b 00             	mov    (%rax),%rax
    8c48:	48 c7 00 00 00 00 00 	movq   $0x0,(%rax)
    8c4f:	0f b6 05 6e f5 00 00 	movzbl 0xf56e(%rip),%eax        # 181c4 <g_953>
    8c56:	83 c0 01             	add    $0x1,%eax
    8c59:	88 05 65 f5 00 00    	mov    %al,0xf565(%rip)        # 181c4 <g_953>
    8c5f:	0f b6 05 5e f5 00 00 	movzbl 0xf55e(%rip),%eax        # 181c4 <g_953>
    8c66:	3c 02                	cmp    $0x2,%al
    8c68:	76 d4                	jbe    8c3e <func_1+0x1489>
    8c6a:	0f b7 05 4f f5 00 00 	movzwl 0xf54f(%rip),%eax        # 181c0 <g_952>
    8c71:	83 c0 01             	add    $0x1,%eax
    8c74:	66 89 05 45 f5 00 00 	mov    %ax,0xf545(%rip)        # 181c0 <g_952>
    8c7b:	0f b7 05 3e f5 00 00 	movzwl 0xf53e(%rip),%eax        # 181c0 <g_952>
    8c82:	66 83 f8 08          	cmp    $0x8,%ax
    8c86:	0f 86 d6 f2 ff ff    	jbe    7f62 <func_1+0x7ad>
    8c8c:	e9 b0 01 00 00       	jmpq   8e41 <func_1+0x168c>
    8c91:	c7 85 58 ed ff ff 30 	movl   $0x1e953030,-0x12a8(%rbp)
    8c98:	30 95 1e 
    8c9b:	c7 85 5c ed ff ff ff 	movl   $0xffffffff,-0x12a4(%rbp)
    8ca2:	ff ff ff 
    8ca5:	c6 85 1f ed ff ff 0d 	movb   $0xd,-0x12e1(%rbp)
    8cac:	48 8d 05 ad 10 01 00 	lea    0x110ad(%rip),%rax        # 19d60 <g_636>
    8cb3:	48 89 85 e8 ed ff ff 	mov    %rax,-0x1218(%rbp)
    8cba:	48 8d 85 e8 ed ff ff 	lea    -0x1218(%rbp),%rax
    8cc1:	48 89 85 20 ee ff ff 	mov    %rax,-0x11e0(%rbp)
    8cc8:	66 c7 85 26 ed ff ff 	movw   $0x362c,-0x12da(%rbp)
    8ccf:	2c 36 
    8cd1:	c7 85 60 ed ff ff db 	movl   $0x4d6834db,-0x12a0(%rbp)
    8cd8:	34 68 4d 
    8cdb:	48 b8 f2 e1 bc 50 f2 	movabs $0xe7f75ef250bce1f2,%rax
    8ce2:	5e f7 e7 
    8ce5:	48 89 85 28 ee ff ff 	mov    %rax,-0x11d8(%rbp)
    8cec:	c7 85 64 ed ff ff ff 	movl   $0xffffffff,-0x129c(%rbp)
    8cf3:	ff ff ff 
    8cf6:	48 8d 85 f0 ee ff ff 	lea    -0x1110(%rbp),%rax
    8cfd:	48 83 c0 08          	add    $0x8,%rax
    8d01:	48 89 85 f0 ed ff ff 	mov    %rax,-0x1210(%rbp)
    8d08:	48 8d 85 f0 ed ff ff 	lea    -0x1210(%rbp),%rax
    8d0f:	48 89 85 30 ee ff ff 	mov    %rax,-0x11d0(%rbp)
    8d16:	c7 85 68 ed ff ff 90 	movl   $0x2b0b0990,-0x1298(%rbp)
    8d1d:	09 0b 2b 
    8d20:	c7 85 6c ed ff ff 4d 	movl   $0xdae3fa4d,-0x1294(%rbp)
    8d27:	fa e3 da 
    8d2a:	c7 85 80 fa ff ff 2f 	movl   $0x4e1fdc2f,-0x580(%rbp)
    8d31:	dc 1f 4e 
    8d34:	c7 85 84 fa ff ff 01 	movl   $0x1,-0x57c(%rbp)
    8d3b:	00 00 00 
    8d3e:	c7 85 88 fa ff ff 14 	movl   $0x1ecb3014,-0x578(%rbp)
    8d45:	30 cb 1e 
    8d48:	c7 85 8c fa ff ff 2f 	movl   $0x4e1fdc2f,-0x574(%rbp)
    8d4f:	dc 1f 4e 
    8d52:	c7 85 90 fa ff ff 2f 	movl   $0x4e1fdc2f,-0x570(%rbp)
    8d59:	dc 1f 4e 
    8d5c:	c7 85 94 fa ff ff 01 	movl   $0x1,-0x56c(%rbp)
    8d63:	00 00 00 
    8d66:	c7 85 98 fa ff ff 01 	movl   $0x1,-0x568(%rbp)
    8d6d:	00 00 00 
    8d70:	c7 85 9c fa ff ff 01 	movl   $0x1,-0x564(%rbp)
    8d77:	00 00 00 
    8d7a:	c7 85 a0 fa ff ff 01 	movl   $0x1,-0x560(%rbp)
    8d81:	00 00 00 
    8d84:	c7 85 a4 fa ff ff 01 	movl   $0x1,-0x55c(%rbp)
    8d8b:	00 00 00 
    8d8e:	c7 85 a8 fa ff ff 01 	movl   $0x1,-0x558(%rbp)
    8d95:	00 00 00 
    8d98:	c7 85 ac fa ff ff 14 	movl   $0x1ecb3014,-0x554(%rbp)
    8d9f:	30 cb 1e 
    8da2:	c7 85 b0 fa ff ff 01 	movl   $0x1,-0x550(%rbp)
    8da9:	00 00 00 
    8dac:	c7 85 b4 fa ff ff 01 	movl   $0x1,-0x54c(%rbp)
    8db3:	00 00 00 
    8db6:	c7 85 b8 fa ff ff 01 	movl   $0x1,-0x548(%rbp)
    8dbd:	00 00 00 
    8dc0:	c7 85 bc fa ff ff 2f 	movl   $0x4e1fdc2f,-0x544(%rbp)
    8dc7:	dc 1f 4e 
    8dca:	c7 85 c0 fa ff ff 01 	movl   $0x1,-0x540(%rbp)
    8dd1:	00 00 00 
    8dd4:	c7 85 c4 fa ff ff 14 	movl   $0x1ecb3014,-0x53c(%rbp)
    8ddb:	30 cb 1e 
    8dde:	c7 85 70 ed ff ff f1 	movl   $0x4c1601f1,-0x1290(%rbp)
    8de5:	01 16 4c 
    8de8:	c7 85 74 ed ff ff f6 	movl   $0xfffffff6,-0x128c(%rbp)
    8def:	ff ff ff 
    8df2:	48 b8 5c 29 62 55 7e 	movabs $0xb54e197e5562295c,%rax
    8df9:	19 4e b5 
    8dfc:	48 89 85 38 ee ff ff 	mov    %rax,-0x11c8(%rbp)
    8e03:	48 8d 05 1e f3 00 00 	lea    0xf31e(%rip),%rax        # 18128 <g_622>
    8e0a:	48 89 85 40 ee ff ff 	mov    %rax,-0x11c0(%rbp)
    8e11:	c7 85 44 ed ff ff 00 	movl   $0x0,-0x12bc(%rbp)
    8e18:	00 00 00 
    8e1b:	eb 1b                	jmp    8e38 <func_1+0x1683>
    8e1d:	8b 85 44 ed ff ff    	mov    -0x12bc(%rbp),%eax
    8e23:	48 98                	cltq   
    8e25:	48 c7 84 c5 b0 f2 ff 	movq   $0x6,-0xd50(%rbp,%rax,8)
    8e2c:	ff 06 00 00 00 
    8e31:	83 85 44 ed ff ff 01 	addl   $0x1,-0x12bc(%rbp)
    8e38:	83 bd 44 ed ff ff 00 	cmpl   $0x0,-0x12bc(%rbp)
    8e3f:	7e dc                	jle    8e1d <func_1+0x1668>
    8e41:	0f b6 85 1e ed ff ff 	movzbl -0x12e2(%rbp),%eax
    8e48:	48 8b 5d c8          	mov    -0x38(%rbp),%rbx
    8e4c:	64 48 33 1c 25 28 00 	xor    %fs:0x28,%rbx
    8e53:	00 00 
    8e55:	74 05                	je     8e5c <func_1+0x16a7>
    8e57:	e8 14 d2 ff ff       	callq  6070 <__stack_chk_fail@plt>
    8e5c:	48 81 c4 18 13 00 00 	add    $0x1318,%rsp
    8e63:	5b                   	pop    %rbx
    8e64:	41 5c                	pop    %r12
    8e66:	41 5d                	pop    %r13
    8e68:	41 5e                	pop    %r14
    8e6a:	41 5f                	pop    %r15
    8e6c:	5d                   	pop    %rbp
    8e6d:	c3                   	retq   

0000000000008e6e <func_11>:
    8e6e:	f3 0f 1e fa          	endbr64 
    8e72:	55                   	push   %rbp
    8e73:	48 89 e5             	mov    %rsp,%rbp
    8e76:	41 54                	push   %r12
    8e78:	53                   	push   %rbx
    8e79:	48 81 ec b0 00 00 00 	sub    $0xb0,%rsp
    8e80:	48 89 bd 58 ff ff ff 	mov    %rdi,-0xa8(%rbp)
    8e87:	89 f0                	mov    %esi,%eax
    8e89:	89 95 50 ff ff ff    	mov    %edx,-0xb0(%rbp)
    8e8f:	48 89 8d 48 ff ff ff 	mov    %rcx,-0xb8(%rbp)
    8e96:	66 89 85 54 ff ff ff 	mov    %ax,-0xac(%rbp)
    8e9d:	64 48 8b 04 25 28 00 	mov    %fs:0x28,%rax
    8ea4:	00 00 
    8ea6:	48 89 45 e8          	mov    %rax,-0x18(%rbp)
    8eaa:	31 c0                	xor    %eax,%eax
    8eac:	c7 85 64 ff ff ff ff 	movl   $0xffffffff,-0x9c(%rbp)
    8eb3:	ff ff ff 
    8eb6:	c6 85 61 ff ff ff 01 	movb   $0x1,-0x9f(%rbp)
    8ebd:	66 c7 85 62 ff ff ff 	movw   $0x1,-0x9e(%rbp)
    8ec4:	01 00 
    8ec6:	48 c7 85 70 ff ff ff 	movq   $0x0,-0x90(%rbp)
    8ecd:	00 00 00 00 
    8ed1:	c7 85 68 ff ff ff 00 	movl   $0x0,-0x98(%rbp)
    8ed8:	00 00 00 
    8edb:	eb 4e                	jmp    8f2b <func_11+0xbd>
    8edd:	c7 85 6c ff ff ff 00 	movl   $0x0,-0x94(%rbp)
    8ee4:	00 00 00 
    8ee7:	eb 32                	jmp    8f1b <func_11+0xad>
    8ee9:	8b 85 6c ff ff ff    	mov    -0x94(%rbp),%eax
    8eef:	48 63 c8             	movslq %eax,%rcx
    8ef2:	8b 85 68 ff ff ff    	mov    -0x98(%rbp),%eax
    8ef8:	48 63 d0             	movslq %eax,%rdx
    8efb:	48 89 d0             	mov    %rdx,%rax
    8efe:	48 01 c0             	add    %rax,%rax
    8f01:	48 01 d0             	add    %rdx,%rax
    8f04:	48 8d 14 08          	lea    (%rax,%rcx,1),%rdx
    8f08:	48 8d 85 70 ff ff ff 	lea    -0x90(%rbp),%rax
    8f0f:	48 89 44 d5 d0       	mov    %rax,-0x30(%rbp,%rdx,8)
    8f14:	83 85 6c ff ff ff 01 	addl   $0x1,-0x94(%rbp)
    8f1b:	83 bd 6c ff ff ff 02 	cmpl   $0x2,-0x94(%rbp)
    8f22:	7e c5                	jle    8ee9 <func_11+0x7b>
    8f24:	83 85 68 ff ff ff 01 	addl   $0x1,-0x98(%rbp)
    8f2b:	83 bd 68 ff ff ff 00 	cmpl   $0x0,-0x98(%rbp)
    8f32:	7e a9                	jle    8edd <func_11+0x6f>
    8f34:	8b 05 5a f2 00 00    	mov    0xf25a(%rip),%eax        # 18194 <g_948>
    8f3a:	48 8b 05 37 0c 01 00 	mov    0x10c37(%rip),%rax        # 19b78 <g_317>
    8f41:	0f b6 00             	movzbl (%rax),%eax
    8f44:	0f b6 d0             	movzbl %al,%edx
    8f47:	48 8b 05 02 0e 01 00 	mov    0x10e02(%rip),%rax        # 19d50 <g_533>
    8f4e:	48 8b 08             	mov    (%rax),%rcx
    8f51:	48 8d 85 58 ff ff ff 	lea    -0xa8(%rbp),%rax
    8f58:	48 39 c1             	cmp    %rax,%rcx
    8f5b:	0f 95 c0             	setne  %al
    8f5e:	0f b6 c8             	movzbl %al,%ecx
    8f61:	8b 85 64 ff ff ff    	mov    -0x9c(%rbp),%eax
    8f67:	09 c8                	or     %ecx,%eax
    8f69:	39 c2                	cmp    %eax,%edx
    8f6b:	0f 9e c0             	setle  %al
    8f6e:	44 0f b6 e0          	movzbl %al,%r12d
    8f72:	8b 85 50 ff ff ff    	mov    -0xb0(%rbp),%eax
    8f78:	0f b6 d8             	movzbl %al,%ebx
    8f7b:	48 8b 05 de 0b 01 00 	mov    0x10bde(%rip),%rax        # 19b60 <g_68>
    8f82:	0f b6 00             	movzbl (%rax),%eax
    8f85:	3c 01                	cmp    $0x1,%al
    8f87:	0f 9e c0             	setle  %al
    8f8a:	0f b6 d0             	movzbl %al,%edx
    8f8d:	0f b6 85 61 ff ff ff 	movzbl -0x9f(%rbp),%eax
    8f94:	89 d6                	mov    %edx,%esi
    8f96:	89 c7                	mov    %eax,%edi
    8f98:	e8 bd db ff ff       	callq  6b5a <safe_add_func_uint8_t_u_u>
    8f9d:	8b 85 64 ff ff ff    	mov    -0x9c(%rbp),%eax
    8fa3:	c1 e8 1f             	shr    $0x1f,%eax
    8fa6:	0f b6 c0             	movzbl %al,%eax
    8fa9:	89 de                	mov    %ebx,%esi
    8fab:	89 c7                	mov    %eax,%edi
    8fad:	e8 a8 db ff ff       	callq  6b5a <safe_add_func_uint8_t_u_u>
    8fb2:	0f b6 c0             	movzbl %al,%eax
    8fb5:	41 39 c4             	cmp    %eax,%r12d
    8fb8:	48 c7 85 78 ff ff ff 	movq   $0x1,-0x88(%rbp)
    8fbf:	01 00 00 00 
    8fc3:	48 8d 05 c6 f0 00 00 	lea    0xf0c6(%rip),%rax        # 18090 <g_426>
    8fca:	48 89 45 80          	mov    %rax,-0x80(%rbp)
    8fce:	48 c7 45 88 00 00 00 	movq   $0x0,-0x78(%rbp)
    8fd5:	00 
    8fd6:	48 8d 05 53 f1 00 00 	lea    0xf153(%rip),%rax        # 18130 <g_651>
    8fdd:	48 89 45 90          	mov    %rax,-0x70(%rbp)
    8fe1:	48 c7 45 98 00 00 00 	movq   $0x0,-0x68(%rbp)
    8fe8:	00 
    8fe9:	48 8d 05 40 f1 00 00 	lea    0xf140(%rip),%rax        # 18130 <g_651>
    8ff0:	48 89 45 a0          	mov    %rax,-0x60(%rbp)
    8ff4:	48 8d 05 75 f0 00 00 	lea    0xf075(%rip),%rax        # 18070 <g_111>
    8ffb:	48 89 45 a8          	mov    %rax,-0x58(%rbp)
    8fff:	48 8d 05 6a f0 00 00 	lea    0xf06a(%rip),%rax        # 18070 <g_111>
    9006:	48 89 45 b0          	mov    %rax,-0x50(%rbp)
    900a:	48 8d 05 53 f0 00 00 	lea    0xf053(%rip),%rax        # 18064 <g_55>
    9011:	48 89 45 b8          	mov    %rax,-0x48(%rbp)
    9015:	48 8d 05 54 f0 00 00 	lea    0xf054(%rip),%rax        # 18070 <g_111>
    901c:	48 89 45 c0          	mov    %rax,-0x40(%rbp)
    9020:	48 b8 6e 39 e3 74 ec 	movabs $0xe517f9ec74e3396e,%rax
    9027:	f9 17 e5 
    902a:	48 89 45 c8          	mov    %rax,-0x38(%rbp)
    902e:	48 83 6d c8 01       	subq   $0x1,-0x38(%rbp)
    9033:	48 8d 85 64 ff ff ff 	lea    -0x9c(%rbp),%rax
    903a:	48 39 85 48 ff ff ff 	cmp    %rax,-0xb8(%rbp)
    9041:	0f 94 c0             	sete   %al
    9044:	0f b6 d0             	movzbl %al,%edx
    9047:	80 bd 61 ff ff ff 01 	cmpb   $0x1,-0x9f(%rbp)
    904e:	40 0f 97 c6          	seta   %sil
    9052:	0f b7 8d 62 ff ff ff 	movzwl -0x9e(%rbp),%ecx
    9059:	48 8b 45 e0          	mov    -0x20(%rbp),%rax
    905d:	48 85 c0             	test   %rax,%rax
    9060:	0f 95 c0             	setne  %al
    9063:	0f b6 c0             	movzbl %al,%eax
    9066:	39 c1                	cmp    %eax,%ecx
    9068:	0f 9c c0             	setl   %al
    906b:	31 f0                	xor    %esi,%eax
    906d:	0f b6 c0             	movzbl %al,%eax
    9070:	89 d6                	mov    %edx,%esi
    9072:	89 c7                	mov    %eax,%edi
    9074:	e8 a6 dc ff ff       	callq  6d1f <safe_sub_func_uint16_t_u_u>
    9079:	66 23 85 54 ff ff ff 	and    -0xac(%rbp),%ax
    9080:	0f b7 d0             	movzwl %ax,%edx
    9083:	48 8b 85 48 ff ff ff 	mov    -0xb8(%rbp),%rax
    908a:	8b 00                	mov    (%rax),%eax
    908c:	21 c2                	and    %eax,%edx
    908e:	48 8b 85 48 ff ff ff 	mov    -0xb8(%rbp),%rax
    9095:	89 10                	mov    %edx,(%rax)
    9097:	48 8b 85 58 ff ff ff 	mov    -0xa8(%rbp),%rax
    909e:	48 8b 5d e8          	mov    -0x18(%rbp),%rbx
    90a2:	64 48 33 1c 25 28 00 	xor    %fs:0x28,%rbx
    90a9:	00 00 
    90ab:	74 05                	je     90b2 <func_11+0x244>
    90ad:	e8 be cf ff ff       	callq  6070 <__stack_chk_fail@plt>
    90b2:	48 81 c4 b0 00 00 00 	add    $0xb0,%rsp
    90b9:	5b                   	pop    %rbx
    90ba:	41 5c                	pop    %r12
    90bc:	5d                   	pop    %rbp
    90bd:	c3                   	retq   

00000000000090be <func_16>:
    90be:	f3 0f 1e fa          	endbr64 
    90c2:	55                   	push   %rbp
    90c3:	48 89 e5             	mov    %rsp,%rbp
    90c6:	89 55 f4             	mov    %edx,-0xc(%rbp)
    90c9:	89 c8                	mov    %ecx,%eax
    90cb:	44 89 45 ec          	mov    %r8d,-0x14(%rbp)
    90cf:	89 fa                	mov    %edi,%edx
    90d1:	88 55 fc             	mov    %dl,-0x4(%rbp)
    90d4:	89 f2                	mov    %esi,%edx
    90d6:	88 55 f8             	mov    %dl,-0x8(%rbp)
    90d9:	66 89 45 f0          	mov    %ax,-0x10(%rbp)
    90dd:	8b 45 f4             	mov    -0xc(%rbp),%eax
    90e0:	5d                   	pop    %rbp
    90e1:	c3                   	retq   

00000000000090e2 <func_23>:
    90e2:	f3 0f 1e fa          	endbr64 
    90e6:	55                   	push   %rbp
    90e7:	48 89 e5             	mov    %rsp,%rbp
    90ea:	41 57                	push   %r15
    90ec:	41 56                	push   %r14
    90ee:	41 55                	push   %r13
    90f0:	41 54                	push   %r12
    90f2:	53                   	push   %rbx
    90f3:	48 81 ec a8 06 00 00 	sub    $0x6a8,%rsp
    90fa:	48 89 bd 48 f9 ff ff 	mov    %rdi,-0x6b8(%rbp)
    9101:	89 b5 44 f9 ff ff    	mov    %esi,-0x6bc(%rbp)
    9107:	48 89 95 38 f9 ff ff 	mov    %rdx,-0x6c8(%rbp)
    910e:	64 48 8b 04 25 28 00 	mov    %fs:0x28,%rax
    9115:	00 00 
    9117:	48 89 45 c8          	mov    %rax,-0x38(%rbp)
    911b:	31 c0                	xor    %eax,%eax
    911d:	48 8d 05 3c 0c 01 00 	lea    0x10c3c(%rip),%rax        # 19d60 <g_636>
    9124:	48 89 85 a8 f9 ff ff 	mov    %rax,-0x658(%rbp)
    912b:	c7 85 30 fc ff ff ff 	movl   $0xffffffff,-0x3d0(%rbp)
    9132:	ff ff ff 
    9135:	c7 85 34 fc ff ff ff 	movl   $0xffffffff,-0x3cc(%rbp)
    913c:	ff ff ff 
    913f:	c7 85 38 fc ff ff 05 	movl   $0x5,-0x3c8(%rbp)
    9146:	00 00 00 
    9149:	c7 85 3c fc ff ff ff 	movl   $0xffffffff,-0x3c4(%rbp)
    9150:	ff ff ff 
    9153:	c7 85 40 fc ff ff 7c 	movl   $0xf7f5c57c,-0x3c0(%rbp)
    915a:	c5 f5 f7 
    915d:	c7 85 44 fc ff ff 77 	movl   $0x666f6977,-0x3bc(%rbp)
    9164:	69 6f 66 
    9167:	c7 85 48 fc ff ff ff 	movl   $0xffffffff,-0x3b8(%rbp)
    916e:	ff ff ff 
    9171:	c7 85 4c fc ff ff ff 	movl   $0xffffffff,-0x3b4(%rbp)
    9178:	ff ff ff 
    917b:	c7 85 50 fc ff ff 05 	movl   $0x5,-0x3b0(%rbp)
    9182:	00 00 00 
    9185:	c7 85 54 fc ff ff ff 	movl   $0xffffffff,-0x3ac(%rbp)
    918c:	ff ff ff 
    918f:	c7 85 58 fc ff ff 7c 	movl   $0xf7f5c57c,-0x3a8(%rbp)
    9196:	c5 f5 f7 
    9199:	c7 85 5c fc ff ff 77 	movl   $0x666f6977,-0x3a4(%rbp)
    91a0:	69 6f 66 
    91a3:	c7 85 60 fc ff ff ff 	movl   $0xffffffff,-0x3a0(%rbp)
    91aa:	ff ff ff 
    91ad:	c7 85 64 fc ff ff ff 	movl   $0xffffffff,-0x39c(%rbp)
    91b4:	ff ff ff 
    91b7:	c7 85 68 fc ff ff 05 	movl   $0x5,-0x398(%rbp)
    91be:	00 00 00 
    91c1:	c7 85 6c fc ff ff ff 	movl   $0xffffffff,-0x394(%rbp)
    91c8:	ff ff ff 
    91cb:	c7 85 70 fc ff ff 7c 	movl   $0xf7f5c57c,-0x390(%rbp)
    91d2:	c5 f5 f7 
    91d5:	c7 85 74 fc ff ff 77 	movl   $0x666f6977,-0x38c(%rbp)
    91dc:	69 6f 66 
    91df:	c7 85 78 fc ff ff ff 	movl   $0xffffffff,-0x388(%rbp)
    91e6:	ff ff ff 
    91e9:	c7 85 7c fc ff ff ff 	movl   $0xffffffff,-0x384(%rbp)
    91f0:	ff ff ff 
    91f3:	c7 85 80 fc ff ff 05 	movl   $0x5,-0x380(%rbp)
    91fa:	00 00 00 
    91fd:	c7 85 84 fc ff ff ff 	movl   $0xffffffff,-0x37c(%rbp)
    9204:	ff ff ff 
    9207:	c7 85 88 fc ff ff 7c 	movl   $0xf7f5c57c,-0x378(%rbp)
    920e:	c5 f5 f7 
    9211:	c7 85 8c fc ff ff 77 	movl   $0x666f6977,-0x374(%rbp)
    9218:	69 6f 66 
    921b:	c7 85 90 fc ff ff ff 	movl   $0xffffffff,-0x370(%rbp)
    9222:	ff ff ff 
    9225:	c7 85 94 fc ff ff ff 	movl   $0xffffffff,-0x36c(%rbp)
    922c:	ff ff ff 
    922f:	c7 85 98 fc ff ff 05 	movl   $0x5,-0x368(%rbp)
    9236:	00 00 00 
    9239:	c7 85 9c fc ff ff ff 	movl   $0xffffffff,-0x364(%rbp)
    9240:	ff ff ff 
    9243:	c7 85 a0 fc ff ff 7c 	movl   $0xf7f5c57c,-0x360(%rbp)
    924a:	c5 f5 f7 
    924d:	c7 85 a4 fc ff ff 77 	movl   $0x666f6977,-0x35c(%rbp)
    9254:	69 6f 66 
    9257:	c7 85 a8 fc ff ff ff 	movl   $0xffffffff,-0x358(%rbp)
    925e:	ff ff ff 
    9261:	c7 85 ac fc ff ff ff 	movl   $0xffffffff,-0x354(%rbp)
    9268:	ff ff ff 
    926b:	c7 85 b0 fc ff ff 05 	movl   $0x5,-0x350(%rbp)
    9272:	00 00 00 
    9275:	c7 85 b4 fc ff ff ff 	movl   $0xffffffff,-0x34c(%rbp)
    927c:	ff ff ff 
    927f:	c7 85 b8 fc ff ff 7c 	movl   $0xf7f5c57c,-0x348(%rbp)
    9286:	c5 f5 f7 
    9289:	c7 85 bc fc ff ff 77 	movl   $0x666f6977,-0x344(%rbp)
    9290:	69 6f 66 
    9293:	c7 85 c0 fc ff ff ff 	movl   $0xffffffff,-0x340(%rbp)
    929a:	ff ff ff 
    929d:	c7 85 c4 fc ff ff ff 	movl   $0xffffffff,-0x33c(%rbp)
    92a4:	ff ff ff 
    92a7:	c7 85 c8 fc ff ff 05 	movl   $0x5,-0x338(%rbp)
    92ae:	00 00 00 
    92b1:	c7 85 cc fc ff ff ff 	movl   $0xffffffff,-0x334(%rbp)
    92b8:	ff ff ff 
    92bb:	c7 85 d0 fc ff ff 7c 	movl   $0xf7f5c57c,-0x330(%rbp)
    92c2:	c5 f5 f7 
    92c5:	c7 85 d4 fc ff ff 77 	movl   $0x666f6977,-0x32c(%rbp)
    92cc:	69 6f 66 
    92cf:	c7 85 d8 fc ff ff ff 	movl   $0xffffffff,-0x328(%rbp)
    92d6:	ff ff ff 
    92d9:	c7 85 dc fc ff ff ff 	movl   $0xffffffff,-0x324(%rbp)
    92e0:	ff ff ff 
    92e3:	c7 85 e0 fc ff ff 05 	movl   $0x5,-0x320(%rbp)
    92ea:	00 00 00 
    92ed:	c7 85 e4 fc ff ff ff 	movl   $0xffffffff,-0x31c(%rbp)
    92f4:	ff ff ff 
    92f7:	c7 85 e8 fc ff ff 7c 	movl   $0xf7f5c57c,-0x318(%rbp)
    92fe:	c5 f5 f7 
    9301:	c7 85 ec fc ff ff 77 	movl   $0x666f6977,-0x314(%rbp)
    9308:	69 6f 66 
    930b:	c7 85 f0 fc ff ff ff 	movl   $0xffffffff,-0x310(%rbp)
    9312:	ff ff ff 
    9315:	c7 85 f4 fc ff ff ff 	movl   $0xffffffff,-0x30c(%rbp)
    931c:	ff ff ff 
    931f:	c7 85 f8 fc ff ff 05 	movl   $0x5,-0x308(%rbp)
    9326:	00 00 00 
    9329:	c7 85 fc fc ff ff ff 	movl   $0xffffffff,-0x304(%rbp)
    9330:	ff ff ff 
    9333:	c7 85 00 fd ff ff 7c 	movl   $0xf7f5c57c,-0x300(%rbp)
    933a:	c5 f5 f7 
    933d:	c7 85 04 fd ff ff 77 	movl   $0x666f6977,-0x2fc(%rbp)
    9344:	69 6f 66 
    9347:	c7 85 08 fd ff ff ff 	movl   $0xffffffff,-0x2f8(%rbp)
    934e:	ff ff ff 
    9351:	c7 85 0c fd ff ff ff 	movl   $0xffffffff,-0x2f4(%rbp)
    9358:	ff ff ff 
    935b:	c7 85 10 fd ff ff 05 	movl   $0x5,-0x2f0(%rbp)
    9362:	00 00 00 
    9365:	c7 85 14 fd ff ff ff 	movl   $0xffffffff,-0x2ec(%rbp)
    936c:	ff ff ff 
    936f:	c7 85 18 fd ff ff 7c 	movl   $0xf7f5c57c,-0x2e8(%rbp)
    9376:	c5 f5 f7 
    9379:	c7 85 1c fd ff ff 77 	movl   $0x666f6977,-0x2e4(%rbp)
    9380:	69 6f 66 
    9383:	48 c7 85 b0 f9 ff ff 	movq   $0xfffffffffffffffa,-0x650(%rbp)
    938a:	fa ff ff ff 
    938e:	48 b8 76 2e 0f 1c fc 	movabs $0x8eeaabfc1c0f2e76,%rax
    9395:	ab ea 8e 
    9398:	48 89 85 b8 f9 ff ff 	mov    %rax,-0x648(%rbp)
    939f:	48 8d 05 d2 07 01 00 	lea    0x107d2(%rip),%rax        # 19b78 <g_317>
    93a6:	48 89 85 c0 f9 ff ff 	mov    %rax,-0x640(%rbp)
    93ad:	48 8d 05 bc 15 01 00 	lea    0x115bc(%rip),%rax        # 1a970 <g_171>
    93b4:	48 89 85 78 f9 ff ff 	mov    %rax,-0x688(%rbp)
    93bb:	48 8d 85 78 f9 ff ff 	lea    -0x688(%rbp),%rax
    93c2:	48 89 85 c8 f9 ff ff 	mov    %rax,-0x638(%rbp)
    93c9:	c7 85 64 f9 ff ff 00 	movl   $0x0,-0x69c(%rbp)
    93d0:	00 00 00 
    93d3:	eb 1e                	jmp    93f3 <func_23+0x311>
    93d5:	8b 85 64 f9 ff ff    	mov    -0x69c(%rbp),%eax
    93db:	48 98                	cltq   
    93dd:	48 8d 15 7c 09 01 00 	lea    0x1097c(%rip),%rdx        # 19d60 <g_636>
    93e4:	48 89 94 c5 60 fa ff 	mov    %rdx,-0x5a0(%rbp,%rax,8)
    93eb:	ff 
    93ec:	83 85 64 f9 ff ff 01 	addl   $0x1,-0x69c(%rbp)
    93f3:	83 bd 64 f9 ff ff 02 	cmpl   $0x2,-0x69c(%rbp)
    93fa:	7e d9                	jle    93d5 <func_23+0x2f3>
    93fc:	c7 85 44 f9 ff ff 00 	movl   $0x0,-0x6bc(%rbp)
    9403:	00 00 00 
    9406:	e9 9f 0c 00 00       	jmpq   a0aa <func_23+0xfc8>
    940b:	48 8d 05 7a ec 00 00 	lea    0xec7a(%rip),%rax        # 1808c <g_355>
    9412:	48 89 85 d0 f9 ff ff 	mov    %rax,-0x630(%rbp)
    9419:	48 8d 05 c8 ec 00 00 	lea    0xecc8(%rip),%rax        # 180e8 <g_591+0x8>
    9420:	48 89 85 80 f9 ff ff 	mov    %rax,-0x680(%rbp)
    9427:	48 c7 85 a0 fa ff ff 	movq   $0x0,-0x560(%rbp)
    942e:	00 00 00 00 
    9432:	48 c7 85 a8 fa ff ff 	movq   $0x0,-0x558(%rbp)
    9439:	00 00 00 00 
    943d:	48 c7 85 b0 fa ff ff 	movq   $0x0,-0x550(%rbp)
    9444:	00 00 00 00 
    9448:	48 c7 85 b8 fa ff ff 	movq   $0x0,-0x548(%rbp)
    944f:	00 00 00 00 
    9453:	48 c7 85 c0 fa ff ff 	movq   $0x0,-0x540(%rbp)
    945a:	00 00 00 00 
    945e:	48 c7 85 c8 fa ff ff 	movq   $0x0,-0x538(%rbp)
    9465:	00 00 00 00 
    9469:	48 c7 85 d0 fa ff ff 	movq   $0x0,-0x530(%rbp)
    9470:	00 00 00 00 
    9474:	48 c7 85 d8 fa ff ff 	movq   $0x0,-0x528(%rbp)
    947b:	00 00 00 00 
    947f:	48 c7 85 e0 fa ff ff 	movq   $0x0,-0x520(%rbp)
    9486:	00 00 00 00 
    948a:	48 c7 85 e8 fa ff ff 	movq   $0x0,-0x518(%rbp)
    9491:	00 00 00 00 
    9495:	66 c7 85 5e f9 ff ff 	movw   $0x419c,-0x6a2(%rbp)
    949c:	9c 41 
    949e:	48 8d 05 bb 08 01 00 	lea    0x108bb(%rip),%rax        # 19d60 <g_636>
    94a5:	48 89 85 88 f9 ff ff 	mov    %rax,-0x678(%rbp)
    94ac:	48 8d 85 88 f9 ff ff 	lea    -0x678(%rbp),%rax
    94b3:	48 89 85 20 fd ff ff 	mov    %rax,-0x2e0(%rbp)
    94ba:	48 8d 85 88 f9 ff ff 	lea    -0x678(%rbp),%rax
    94c1:	48 89 85 28 fd ff ff 	mov    %rax,-0x2d8(%rbp)
    94c8:	48 8d 85 88 f9 ff ff 	lea    -0x678(%rbp),%rax
    94cf:	48 89 85 30 fd ff ff 	mov    %rax,-0x2d0(%rbp)
    94d6:	48 8d 85 88 f9 ff ff 	lea    -0x678(%rbp),%rax
    94dd:	48 89 85 38 fd ff ff 	mov    %rax,-0x2c8(%rbp)
    94e4:	48 8d 85 88 f9 ff ff 	lea    -0x678(%rbp),%rax
    94eb:	48 89 85 40 fd ff ff 	mov    %rax,-0x2c0(%rbp)
    94f2:	48 8d 85 88 f9 ff ff 	lea    -0x678(%rbp),%rax
    94f9:	48 89 85 48 fd ff ff 	mov    %rax,-0x2b8(%rbp)
    9500:	48 8d 85 88 f9 ff ff 	lea    -0x678(%rbp),%rax
    9507:	48 89 85 50 fd ff ff 	mov    %rax,-0x2b0(%rbp)
    950e:	48 8d 85 88 f9 ff ff 	lea    -0x678(%rbp),%rax
    9515:	48 89 85 58 fd ff ff 	mov    %rax,-0x2a8(%rbp)
    951c:	48 8d 85 88 f9 ff ff 	lea    -0x678(%rbp),%rax
    9523:	48 89 85 60 fd ff ff 	mov    %rax,-0x2a0(%rbp)
    952a:	48 8d 85 88 f9 ff ff 	lea    -0x678(%rbp),%rax
    9531:	48 89 85 68 fd ff ff 	mov    %rax,-0x298(%rbp)
    9538:	48 8d 85 88 f9 ff ff 	lea    -0x678(%rbp),%rax
    953f:	48 89 85 70 fd ff ff 	mov    %rax,-0x290(%rbp)
    9546:	48 8d 85 88 f9 ff ff 	lea    -0x678(%rbp),%rax
    954d:	48 89 85 78 fd ff ff 	mov    %rax,-0x288(%rbp)
    9554:	48 8d 85 88 f9 ff ff 	lea    -0x678(%rbp),%rax
    955b:	48 89 85 80 fd ff ff 	mov    %rax,-0x280(%rbp)
    9562:	48 8d 85 88 f9 ff ff 	lea    -0x678(%rbp),%rax
    9569:	48 89 85 88 fd ff ff 	mov    %rax,-0x278(%rbp)
    9570:	48 8d 85 88 f9 ff ff 	lea    -0x678(%rbp),%rax
    9577:	48 89 85 90 fd ff ff 	mov    %rax,-0x270(%rbp)
    957e:	48 8d 85 88 f9 ff ff 	lea    -0x678(%rbp),%rax
    9585:	48 89 85 98 fd ff ff 	mov    %rax,-0x268(%rbp)
    958c:	48 8d 85 88 f9 ff ff 	lea    -0x678(%rbp),%rax
    9593:	48 89 85 a0 fd ff ff 	mov    %rax,-0x260(%rbp)
    959a:	48 8d 85 88 f9 ff ff 	lea    -0x678(%rbp),%rax
    95a1:	48 89 85 a8 fd ff ff 	mov    %rax,-0x258(%rbp)
    95a8:	48 8d 85 88 f9 ff ff 	lea    -0x678(%rbp),%rax
    95af:	48 89 85 b0 fd ff ff 	mov    %rax,-0x250(%rbp)
    95b6:	48 8d 85 88 f9 ff ff 	lea    -0x678(%rbp),%rax
    95bd:	48 89 85 b8 fd ff ff 	mov    %rax,-0x248(%rbp)
    95c4:	48 8d 85 88 f9 ff ff 	lea    -0x678(%rbp),%rax
    95cb:	48 89 85 c0 fd ff ff 	mov    %rax,-0x240(%rbp)
    95d2:	48 8d 85 88 f9 ff ff 	lea    -0x678(%rbp),%rax
    95d9:	48 89 85 c8 fd ff ff 	mov    %rax,-0x238(%rbp)
    95e0:	48 8d 85 88 f9 ff ff 	lea    -0x678(%rbp),%rax
    95e7:	48 89 85 d0 fd ff ff 	mov    %rax,-0x230(%rbp)
    95ee:	48 8d 85 88 f9 ff ff 	lea    -0x678(%rbp),%rax
    95f5:	48 89 85 d8 fd ff ff 	mov    %rax,-0x228(%rbp)
    95fc:	48 8d 85 88 f9 ff ff 	lea    -0x678(%rbp),%rax
    9603:	48 89 85 e0 fd ff ff 	mov    %rax,-0x220(%rbp)
    960a:	48 8d 85 88 f9 ff ff 	lea    -0x678(%rbp),%rax
    9611:	48 89 85 e8 fd ff ff 	mov    %rax,-0x218(%rbp)
    9618:	48 8d 85 88 f9 ff ff 	lea    -0x678(%rbp),%rax
    961f:	48 89 85 f0 fd ff ff 	mov    %rax,-0x210(%rbp)
    9626:	48 8d 85 88 f9 ff ff 	lea    -0x678(%rbp),%rax
    962d:	48 89 85 f8 fd ff ff 	mov    %rax,-0x208(%rbp)
    9634:	48 8d 85 88 f9 ff ff 	lea    -0x678(%rbp),%rax
    963b:	48 89 85 00 fe ff ff 	mov    %rax,-0x200(%rbp)
    9642:	48 8d 85 88 f9 ff ff 	lea    -0x678(%rbp),%rax
    9649:	48 89 85 08 fe ff ff 	mov    %rax,-0x1f8(%rbp)
    9650:	48 8d 85 88 f9 ff ff 	lea    -0x678(%rbp),%rax
    9657:	48 89 85 10 fe ff ff 	mov    %rax,-0x1f0(%rbp)
    965e:	48 8d 85 88 f9 ff ff 	lea    -0x678(%rbp),%rax
    9665:	48 89 85 18 fe ff ff 	mov    %rax,-0x1e8(%rbp)
    966c:	48 8d 85 88 f9 ff ff 	lea    -0x678(%rbp),%rax
    9673:	48 89 85 20 fe ff ff 	mov    %rax,-0x1e0(%rbp)
    967a:	48 8d 85 88 f9 ff ff 	lea    -0x678(%rbp),%rax
    9681:	48 89 85 28 fe ff ff 	mov    %rax,-0x1d8(%rbp)
    9688:	48 8d 85 88 f9 ff ff 	lea    -0x678(%rbp),%rax
    968f:	48 89 85 30 fe ff ff 	mov    %rax,-0x1d0(%rbp)
    9696:	48 8d 85 88 f9 ff ff 	lea    -0x678(%rbp),%rax
    969d:	48 89 85 38 fe ff ff 	mov    %rax,-0x1c8(%rbp)
    96a4:	66 c7 85 60 f9 ff ff 	movw   $0xd699,-0x6a0(%rbp)
    96ab:	99 d6 
    96ad:	48 8d 05 b0 e9 00 00 	lea    0xe9b0(%rip),%rax        # 18064 <g_55>
    96b4:	48 89 85 d8 f9 ff ff 	mov    %rax,-0x628(%rbp)
    96bb:	48 8d 85 40 fe ff ff 	lea    -0x1c0(%rbp),%rax
    96c2:	48 8d 15 17 ec 00 00 	lea    0xec17(%rip),%rdx        # 182e0 <g_1479+0x20>
    96c9:	b9 30 00 00 00       	mov    $0x30,%ecx
    96ce:	48 89 c7             	mov    %rax,%rdi
    96d1:	48 89 d6             	mov    %rdx,%rsi
    96d4:	f3 48 a5             	rep movsq %ds:(%rsi),%es:(%rdi)
    96d7:	48 8d 05 9a 04 01 00 	lea    0x1049a(%rip),%rax        # 19b78 <g_317>
    96de:	48 89 85 f0 fa ff ff 	mov    %rax,-0x510(%rbp)
    96e5:	48 8d 05 8c 04 01 00 	lea    0x1048c(%rip),%rax        # 19b78 <g_317>
    96ec:	48 89 85 f8 fa ff ff 	mov    %rax,-0x508(%rbp)
    96f3:	48 8d 05 7e 04 01 00 	lea    0x1047e(%rip),%rax        # 19b78 <g_317>
    96fa:	48 89 85 00 fb ff ff 	mov    %rax,-0x500(%rbp)
    9701:	48 8d 05 70 04 01 00 	lea    0x10470(%rip),%rax        # 19b78 <g_317>
    9708:	48 89 85 08 fb ff ff 	mov    %rax,-0x4f8(%rbp)
    970f:	48 8d 05 62 04 01 00 	lea    0x10462(%rip),%rax        # 19b78 <g_317>
    9716:	48 89 85 10 fb ff ff 	mov    %rax,-0x4f0(%rbp)
    971d:	48 8d 05 54 04 01 00 	lea    0x10454(%rip),%rax        # 19b78 <g_317>
    9724:	48 89 85 18 fb ff ff 	mov    %rax,-0x4e8(%rbp)
    972b:	48 8d 05 46 04 01 00 	lea    0x10446(%rip),%rax        # 19b78 <g_317>
    9732:	48 89 85 20 fb ff ff 	mov    %rax,-0x4e0(%rbp)
    9739:	48 8d 05 38 04 01 00 	lea    0x10438(%rip),%rax        # 19b78 <g_317>
    9740:	48 89 85 28 fb ff ff 	mov    %rax,-0x4d8(%rbp)
    9747:	48 8d 05 2a 04 01 00 	lea    0x1042a(%rip),%rax        # 19b78 <g_317>
    974e:	48 89 85 30 fb ff ff 	mov    %rax,-0x4d0(%rbp)
    9755:	48 8d 05 1c 04 01 00 	lea    0x1041c(%rip),%rax        # 19b78 <g_317>
    975c:	48 89 85 38 fb ff ff 	mov    %rax,-0x4c8(%rbp)
    9763:	48 8d 05 0e 04 01 00 	lea    0x1040e(%rip),%rax        # 19b78 <g_317>
    976a:	48 89 85 40 fb ff ff 	mov    %rax,-0x4c0(%rbp)
    9771:	48 8d 05 00 04 01 00 	lea    0x10400(%rip),%rax        # 19b78 <g_317>
    9778:	48 89 85 48 fb ff ff 	mov    %rax,-0x4b8(%rbp)
    977f:	48 8d 05 42 e9 00 00 	lea    0xe942(%rip),%rax        # 180c8 <g_479>
    9786:	48 89 85 e0 f9 ff ff 	mov    %rax,-0x620(%rbp)
    978d:	48 c7 85 e8 f9 ff ff 	movq   $0x0,-0x618(%rbp)
    9794:	00 00 00 00 
    9798:	c6 85 5c f9 ff ff 1a 	movb   $0x1a,-0x6a4(%rbp)
    979f:	48 8b 85 d0 f9 ff ff 	mov    -0x630(%rbp),%rax
    97a6:	8b 00                	mov    (%rax),%eax
    97a8:	8d 50 ff             	lea    -0x1(%rax),%edx
    97ab:	48 8b 85 d0 f9 ff ff 	mov    -0x630(%rbp),%rax
    97b2:	89 10                	mov    %edx,(%rax)
    97b4:	48 8b 85 d0 f9 ff ff 	mov    -0x630(%rbp),%rax
    97bb:	44 8b 28             	mov    (%rax),%r13d
    97be:	0f b7 9d 60 f9 ff ff 	movzwl -0x6a0(%rbp),%ebx
    97c5:	44 8b a5 ec fc ff ff 	mov    -0x314(%rbp),%r12d
    97cc:	8b 85 44 f9 ff ff    	mov    -0x6bc(%rbp),%eax
    97d2:	4c 63 f0             	movslq %eax,%r14
    97d5:	48 8b 85 80 f9 ff ff 	mov    -0x680(%rbp),%rax
    97dc:	48 8b 10             	mov    (%rax),%rdx
    97df:	48 83 ea 01          	sub    $0x1,%rdx
    97e3:	48 89 10             	mov    %rdx,(%rax)
    97e6:	48 8b 05 6b 05 01 00 	mov    0x1056b(%rip),%rax        # 19d58 <g_637>
    97ed:	48 8b 00             	mov    (%rax),%rax
    97f0:	89 c2                	mov    %eax,%edx
    97f2:	0f b7 85 5e f9 ff ff 	movzwl -0x6a2(%rbp),%eax
    97f9:	09 d0                	or     %edx,%eax
    97fb:	66 89 85 5e f9 ff ff 	mov    %ax,-0x6a2(%rbp)
    9802:	0f b7 85 5e f9 ff ff 	movzwl -0x6a2(%rbp),%eax
    9809:	48 c7 c6 ff ff ff ff 	mov    $0xffffffffffffffff,%rsi
    9810:	48 89 c7             	mov    %rax,%rdi
    9813:	e8 90 d0 ff ff       	callq  68a8 <safe_sub_func_int64_t_s_s>
    9818:	48 85 c0             	test   %rax,%rax
    981b:	48 8b 85 60 fa ff ff 	mov    -0x5a0(%rbp),%rax
    9822:	48 8b 95 60 fa ff ff 	mov    -0x5a0(%rbp),%rdx
    9829:	48 89 95 a8 f9 ff ff 	mov    %rdx,-0x658(%rbp)
    9830:	48 39 85 a8 f9 ff ff 	cmp    %rax,-0x658(%rbp)
    9837:	8b 85 44 f9 ff ff    	mov    -0x6bc(%rbp),%eax
    983d:	48 98                	cltq   
    983f:	4d 89 f0             	mov    %r14,%r8
    9842:	48 8d 0d 47 e8 00 00 	lea    0xe847(%rip),%rcx        # 18090 <g_426>
    9849:	48 8d 15 18 e8 00 00 	lea    0xe818(%rip),%rdx        # 18068 <g_69>
    9850:	be 00 00 00 00       	mov    $0x0,%esi
    9855:	48 89 c7             	mov    %rax,%rdi
    9858:	e8 8a 08 00 00       	callq  a0e7 <func_27>
    985d:	8b 05 21 e9 00 00    	mov    0xe921(%rip),%eax        # 18184 <g_889>
    9863:	66 0d 7f e3          	or     $0xe37f,%ax
    9867:	0f b7 c0             	movzwl %ax,%eax
    986a:	44 89 e6             	mov    %r12d,%esi
    986d:	89 c7                	mov    %eax,%edi
    986f:	e8 d4 d5 ff ff       	callq  6e48 <safe_rshift_func_uint16_t_u_s>
    9874:	89 c2                	mov    %eax,%edx
    9876:	48 8b 85 80 f9 ff ff 	mov    -0x680(%rbp),%rax
    987d:	0f b7 d2             	movzwl %dx,%edx
    9880:	48 89 10             	mov    %rdx,(%rax)
    9883:	48 8b 00             	mov    (%rax),%rax
    9886:	48 89 de             	mov    %rbx,%rsi
    9889:	48 89 c7             	mov    %rax,%rdi
    988c:	e8 1e d8 ff ff       	callq  70af <safe_div_func_uint64_t_u_u>
    9891:	48 39 85 b0 f9 ff ff 	cmp    %rax,-0x650(%rbp)
    9898:	0f 97 c0             	seta   %al
    989b:	0f b6 c0             	movzbl %al,%eax
    989e:	41 39 c5             	cmp    %eax,%r13d
    98a1:	0f 93 c0             	setae  %al
    98a4:	0f b6 d0             	movzbl %al,%edx
    98a7:	48 8b 85 d8 f9 ff ff 	mov    -0x628(%rbp),%rax
    98ae:	8b 00                	mov    (%rax),%eax
    98b0:	31 c2                	xor    %eax,%edx
    98b2:	48 8b 85 d8 f9 ff ff 	mov    -0x628(%rbp),%rax
    98b9:	89 10                	mov    %edx,(%rax)
    98bb:	48 8b 85 d8 f9 ff ff 	mov    -0x628(%rbp),%rax
    98c2:	8b 00                	mov    (%rax),%eax
    98c4:	0f b7 c0             	movzwl %ax,%eax
    98c7:	be fb ff 00 00       	mov    $0xfffb,%esi
    98cc:	89 c7                	mov    %eax,%edi
    98ce:	e8 6a d4 ff ff       	callq  6d3d <safe_mul_func_uint16_t_u_u>
    98d3:	66 85 c0             	test   %ax,%ax
    98d6:	74 12                	je     98ea <func_23+0x808>
    98d8:	48 8b 85 38 f9 ff ff 	mov    -0x6c8(%rbp),%rax
    98df:	8b 00                	mov    (%rax),%eax
    98e1:	85 c0                	test   %eax,%eax
    98e3:	74 1e                	je     9903 <func_23+0x821>
    98e5:	e9 ce 07 00 00       	jmpq   a0b8 <func_23+0xfd6>
    98ea:	48 c7 05 73 02 01 00 	movq   $0x0,0x10273(%rip)        # 19b68 <g_87>
    98f1:	00 00 00 00 
    98f5:	48 8b 05 6c 02 01 00 	mov    0x1026c(%rip),%rax        # 19b68 <g_87>
    98fc:	48 89 85 d8 f9 ff ff 	mov    %rax,-0x628(%rbp)
    9903:	48 8b 05 76 04 01 00 	mov    0x10476(%rip),%rax        # 19d80 <g_919>
    990a:	48 8b 95 b0 f9 ff ff 	mov    -0x650(%rbp),%rdx
    9911:	89 10                	mov    %edx,(%rax)
    9913:	c7 05 6f e7 00 00 00 	movl   $0x0,0xe76f(%rip)        # 1808c <g_355>
    991a:	00 00 00 
    991d:	e9 6b 07 00 00       	jmpq   a08d <func_23+0xfab>
    9922:	48 8d 05 47 10 01 00 	lea    0x11047(%rip),%rax        # 1a970 <g_171>
    9929:	48 89 85 f0 f9 ff ff 	mov    %rax,-0x610(%rbp)
    9930:	48 8d 85 80 f9 ff ff 	lea    -0x680(%rbp),%rax
    9937:	48 89 85 90 f9 ff ff 	mov    %rax,-0x670(%rbp)
    993e:	48 8d 05 47 e8 00 00 	lea    0xe847(%rip),%rax        # 1818c <g_945>
    9945:	48 89 85 98 f9 ff ff 	mov    %rax,-0x668(%rbp)
    994c:	66 c7 85 62 f9 ff ff 	movw   $0xffff,-0x69e(%rbp)
    9953:	ff ff 
    9955:	48 8d 05 9c 04 01 00 	lea    0x1049c(%rip),%rax        # 19df8 <g_994>
    995c:	48 89 85 a0 f9 ff ff 	mov    %rax,-0x660(%rbp)
    9963:	c7 85 68 f9 ff ff 00 	movl   $0x0,-0x698(%rbp)
    996a:	00 00 00 
    996d:	eb 1e                	jmp    998d <func_23+0x8ab>
    996f:	8b 85 68 f9 ff ff    	mov    -0x698(%rbp),%eax
    9975:	48 98                	cltq   
    9977:	48 8d 95 a0 f9 ff ff 	lea    -0x660(%rbp),%rdx
    997e:	48 89 94 c5 80 fa ff 	mov    %rdx,-0x580(%rbp,%rax,8)
    9985:	ff 
    9986:	83 85 68 f9 ff ff 01 	addl   $0x1,-0x698(%rbp)
    998d:	83 bd 68 f9 ff ff 02 	cmpl   $0x2,-0x698(%rbp)
    9994:	7e d9                	jle    996f <func_23+0x88d>
    9996:	48 8b 05 d3 01 01 00 	mov    0x101d3(%rip),%rax        # 19b70 <g_182>
    999d:	0f b7 00             	movzwl (%rax),%eax
    99a0:	0f bf d8             	movswl %ax,%ebx
    99a3:	8b 85 44 f9 ff ff    	mov    -0x6bc(%rbp),%eax
    99a9:	44 0f b6 e0          	movzbl %al,%r12d
    99ad:	8b 05 c9 0f 01 00    	mov    0x10fc9(%rip),%eax        # 1a97c <g_932>
    99b3:	48 8b 05 a6 01 01 00 	mov    0x101a6(%rip),%rax        # 19b60 <g_68>
    99ba:	0f b6 00             	movzbl (%rax),%eax
    99bd:	84 c0                	test   %al,%al
    99bf:	0f 84 d6 00 00 00    	je     9a9b <func_23+0x9b9>
    99c5:	0f b7 85 62 f9 ff ff 	movzwl -0x69e(%rbp),%eax
    99cc:	44 0f b6 e8          	movzbl %al,%r13d
    99d0:	8b 05 5a e7 00 00    	mov    0xe75a(%rip),%eax        # 18130 <g_651>
    99d6:	44 0f b7 f0          	movzwl %ax,%r14d
    99da:	8b 85 44 f9 ff ff    	mov    -0x6bc(%rbp),%eax
    99e0:	0f b6 d0             	movzbl %al,%edx
    99e3:	48 8b 85 90 f9 ff ff 	mov    -0x670(%rbp),%rax
    99ea:	48 8d 0d 7f 0f 01 00 	lea    0x10f7f(%rip),%rcx        # 1a970 <g_171>
    99f1:	48 89 08             	mov    %rcx,(%rax)
    99f4:	48 8b 00             	mov    (%rax),%rax
    99f7:	48 39 85 f0 f9 ff ff 	cmp    %rax,-0x610(%rbp)
    99fe:	48 8b 05 5b 01 01 00 	mov    0x1015b(%rip),%rax        # 19b60 <g_68>
    9a05:	0f b6 00             	movzbl (%rax),%eax
    9a08:	0f be c8             	movsbl %al,%ecx
    9a0b:	8b 85 44 f9 ff ff    	mov    -0x6bc(%rbp),%eax
    9a11:	39 c1                	cmp    %eax,%ecx
    9a13:	0f 9e c0             	setle  %al
    9a16:	0f b6 c8             	movzbl %al,%ecx
    9a19:	8b 85 44 f9 ff ff    	mov    -0x6bc(%rbp),%eax
    9a1f:	39 c1                	cmp    %eax,%ecx
    9a21:	0f 94 c0             	sete   %al
    9a24:	0f b6 c0             	movzbl %al,%eax
    9a27:	89 d6                	mov    %edx,%esi
    9a29:	89 c7                	mov    %eax,%edi
    9a2b:	e8 ab d1 ff ff       	callq  6bdb <safe_div_func_uint8_t_u_u>
    9a30:	b8 00 00 00 00       	mov    $0x0,%eax
    9a35:	0f b7 c0             	movzwl %ax,%eax
    9a38:	44 89 f6             	mov    %r14d,%esi
    9a3b:	89 c7                	mov    %eax,%edi
    9a3d:	e8 4c d3 ff ff       	callq  6d8e <safe_div_func_uint16_t_u_u>
    9a42:	66 39 85 5e f9 ff ff 	cmp    %ax,-0x6a2(%rbp)
    9a49:	0f 95 c0             	setne  %al
    9a4c:	89 c2                	mov    %eax,%edx
    9a4e:	48 8b 85 48 f9 ff ff 	mov    -0x6b8(%rbp),%rax
    9a55:	0f b6 00             	movzbl (%rax),%eax
    9a58:	09 d0                	or     %edx,%eax
    9a5a:	0f b6 c0             	movzbl %al,%eax
    9a5d:	44 89 ee             	mov    %r13d,%esi
    9a60:	89 c7                	mov    %eax,%edi
    9a62:	e8 11 d1 ff ff       	callq  6b78 <safe_sub_func_uint8_t_u_u>
    9a67:	0f b6 c0             	movzbl %al,%eax
    9a6a:	48 39 85 b8 f9 ff ff 	cmp    %rax,-0x648(%rbp)
    9a71:	0f 9c c0             	setl   %al
    9a74:	0f b6 d0             	movzbl %al,%edx
    9a77:	8b 05 b7 e6 00 00    	mov    0xe6b7(%rip),%eax        # 18134 <g_655>
    9a7d:	39 c2                	cmp    %eax,%edx
    9a7f:	0f 9c c0             	setl   %al
    9a82:	0f b6 d0             	movzbl %al,%edx
    9a85:	48 8b 05 cc 02 01 00 	mov    0x102cc(%rip),%rax        # 19d58 <g_637>
    9a8c:	48 8b 00             	mov    (%rax),%rax
    9a8f:	48 39 c2             	cmp    %rax,%rdx
    9a92:	74 07                	je     9a9b <func_23+0x9b9>
    9a94:	b8 01 00 00 00       	mov    $0x1,%eax
    9a99:	eb 05                	jmp    9aa0 <func_23+0x9be>
    9a9b:	b8 00 00 00 00       	mov    $0x0,%eax
    9aa0:	89 c2                	mov    %eax,%edx
    9aa2:	8b 85 44 f9 ff ff    	mov    -0x6bc(%rbp),%eax
    9aa8:	21 d0                	and    %edx,%eax
    9aaa:	0f be c0             	movsbl %al,%eax
    9aad:	be 21 00 00 00       	mov    $0x21,%esi
    9ab2:	89 c7                	mov    %eax,%edi
    9ab4:	e8 59 c7 ff ff       	callq  6212 <safe_mul_func_int8_t_s_s>
    9ab9:	66 98                	cbtw   
    9abb:	0f b7 c0             	movzwl %ax,%eax
    9abe:	be 0b 00 00 00       	mov    $0xb,%esi
    9ac3:	89 c7                	mov    %eax,%edi
    9ac5:	e8 7e d3 ff ff       	callq  6e48 <safe_rshift_func_uint16_t_u_s>
    9aca:	0f b7 d0             	movzwl %ax,%edx
    9acd:	48 8b 05 8c 00 01 00 	mov    0x1008c(%rip),%rax        # 19b60 <g_68>
    9ad4:	0f b6 00             	movzbl (%rax),%eax
    9ad7:	0f be c0             	movsbl %al,%eax
    9ada:	39 c2                	cmp    %eax,%edx
    9adc:	0f 94 c0             	sete   %al
    9adf:	0f b6 c0             	movzbl %al,%eax
    9ae2:	be fe ff ff ff       	mov    $0xfffffffe,%esi
    9ae7:	89 c7                	mov    %eax,%edi
    9ae9:	e8 17 cb ff ff       	callq  6605 <safe_sub_func_int32_t_s_s>
    9aee:	0f b6 c0             	movzbl %al,%eax
    9af1:	83 e0 01             	and    $0x1,%eax
    9af4:	44 89 e6             	mov    %r12d,%esi
    9af7:	89 c7                	mov    %eax,%edi
    9af9:	e8 95 d0 ff ff       	callq  6b93 <safe_mul_func_uint8_t_u_u>
    9afe:	0f be c0             	movsbl %al,%eax
    9b01:	be ff ff ff ff       	mov    $0xffffffff,%esi
    9b06:	89 c7                	mov    %eax,%edi
    9b08:	e8 05 c7 ff ff       	callq  6212 <safe_mul_func_int8_t_s_s>
    9b0d:	0f be c0             	movsbl %al,%eax
    9b10:	89 de                	mov    %ebx,%esi
    9b12:	89 c7                	mov    %eax,%edi
    9b14:	e8 fd c8 ff ff       	callq  6416 <safe_mod_func_int16_t_s_s>
    9b19:	0f bf d0             	movswl %ax,%edx
    9b1c:	8b 85 44 f9 ff ff    	mov    -0x6bc(%rbp),%eax
    9b22:	98                   	cwtl   
    9b23:	89 d6                	mov    %edx,%esi
    9b25:	89 c7                	mov    %eax,%edi
    9b27:	e8 c9 c8 ff ff       	callq  63f5 <safe_mul_func_int16_t_s_s>
    9b2c:	89 c2                	mov    %eax,%edx
    9b2e:	48 8b 05 53 02 01 00 	mov    0x10253(%rip),%rax        # 19d88 <g_961>
    9b35:	0f bf d2             	movswl %dx,%edx
    9b38:	89 10                	mov    %edx,(%rax)
    9b3a:	8b 95 ec fc ff ff    	mov    -0x314(%rbp),%edx
    9b40:	48 8b 85 48 fb ff ff 	mov    -0x4b8(%rbp),%rax
    9b47:	48 39 85 c0 f9 ff ff 	cmp    %rax,-0x640(%rbp)
    9b4e:	0f 94 c0             	sete   %al
    9b51:	0f b6 c0             	movzbl %al,%eax
    9b54:	31 d0                	xor    %edx,%eax
    9b56:	89 85 ec fc ff ff    	mov    %eax,-0x314(%rbp)
    9b5c:	c7 05 ca e5 00 00 00 	movl   $0x0,0xe5ca(%rip)        # 18130 <g_651>
    9b63:	00 00 00 
    9b66:	90                   	nop
    9b67:	8b 05 c3 e5 00 00    	mov    0xe5c3(%rip),%eax        # 18130 <g_651>
    9b6d:	85 c0                	test   %eax,%eax
    9b6f:	0f 8f 09 05 00 00    	jg     a07e <func_23+0xf9c>
    9b75:	48 c7 85 f8 f9 ff ff 	movq   $0x0,-0x608(%rbp)
    9b7c:	00 00 00 00 
    9b80:	c7 85 6c f9 ff ff 08 	movl   $0x8,-0x694(%rbp)
    9b87:	00 00 00 
    9b8a:	48 8d 05 e7 e4 00 00 	lea    0xe4e7(%rip),%rax        # 18078 <g_172>
    9b91:	48 89 85 00 fa ff ff 	mov    %rax,-0x600(%rbp)
    9b98:	8b 05 92 e5 00 00    	mov    0xe592(%rip),%eax        # 18130 <g_651>
    9b9e:	8d 70 03             	lea    0x3(%rax),%esi
    9ba1:	8b 05 89 e5 00 00    	mov    0xe589(%rip),%eax        # 18130 <g_651>
    9ba7:	8b 15 83 e5 00 00    	mov    0xe583(%rip),%edx        # 18130 <g_651>
    9bad:	83 c2 06             	add    $0x6,%edx
    9bb0:	48 63 ca             	movslq %edx,%rcx
    9bb3:	48 63 d6             	movslq %esi,%rdx
    9bb6:	48 98                	cltq   
    9bb8:	48 01 c2             	add    %rax,%rdx
    9bbb:	48 89 d0             	mov    %rdx,%rax
    9bbe:	48 c1 e0 03          	shl    $0x3,%rax
    9bc2:	48 29 d0             	sub    %rdx,%rax
    9bc5:	48 8d 14 08          	lea    (%rax,%rcx,1),%rdx
    9bc9:	48 8d 05 d0 e4 00 00 	lea    0xe4d0(%rip),%rax        # 180a0 <g_454>
    9bd0:	48 01 d0             	add    %rdx,%rax
    9bd3:	0f b6 00             	movzbl (%rax),%eax
    9bd6:	c7 85 6c f9 ff ff 06 	movl   $0x6,-0x694(%rbp)
    9bdd:	00 00 00 
    9be0:	48 83 bd c8 f9 ff ff 	cmpq   $0x0,-0x638(%rbp)
    9be7:	00 
    9be8:	0f 94 c0             	sete   %al
    9beb:	0f b6 d0             	movzbl %al,%edx
    9bee:	48 8d 05 d3 e4 00 00 	lea    0xe4d3(%rip),%rax        # 180c8 <g_479>
    9bf5:	48 39 85 e0 f9 ff ff 	cmp    %rax,-0x620(%rbp)
    9bfc:	75 07                	jne    9c05 <func_23+0xb23>
    9bfe:	b8 fe ff ff ff       	mov    $0xfffffffe,%eax
    9c03:	eb 05                	jmp    9c0a <func_23+0xb28>
    9c05:	b8 ff ff ff ff       	mov    $0xffffffff,%eax
    9c0a:	48 39 d0             	cmp    %rdx,%rax
    9c0d:	75 07                	jne    9c16 <func_23+0xb34>
    9c0f:	ba 01 00 00 00       	mov    $0x1,%edx
    9c14:	eb 05                	jmp    9c1b <func_23+0xb39>
    9c16:	ba 00 00 00 00       	mov    $0x0,%edx
    9c1b:	48 8b 05 56 ff 00 00 	mov    0xff56(%rip),%rax        # 19b78 <g_317>
    9c22:	0f b6 00             	movzbl (%rax),%eax
    9c25:	0f b6 c0             	movzbl %al,%eax
    9c28:	09 d0                	or     %edx,%eax
    9c2a:	85 c0                	test   %eax,%eax
    9c2c:	75 11                	jne    9c3f <func_23+0xb5d>
    9c2e:	66 83 bd 62 f9 ff ff 	cmpw   $0x0,-0x69e(%rbp)
    9c35:	00 
    9c36:	74 07                	je     9c3f <func_23+0xb5d>
    9c38:	b8 01 00 00 00       	mov    $0x1,%eax
    9c3d:	eb 05                	jmp    9c44 <func_23+0xb62>
    9c3f:	b8 00 00 00 00       	mov    $0x0,%eax
    9c44:	85 c0                	test   %eax,%eax
    9c46:	0f 8e e5 03 00 00    	jle    a031 <func_23+0xf4f>
    9c4c:	48 8d 05 9d 01 01 00 	lea    0x1019d(%rip),%rax        # 19df0 <g_995>
    9c53:	48 89 85 08 fa ff ff 	mov    %rax,-0x5f8(%rbp)
    9c5a:	48 8b 05 ff fe 00 00 	mov    0xfeff(%rip),%rax        # 19b60 <g_68>
    9c61:	c6 00 00             	movb   $0x0,(%rax)
    9c64:	8b 85 44 f9 ff ff    	mov    -0x6bc(%rbp),%eax
    9c6a:	85 c0                	test   %eax,%eax
    9c6c:	48 8d 05 bd e4 00 00 	lea    0xe4bd(%rip),%rax        # 18130 <g_651>
    9c73:	48 89 05 16 01 01 00 	mov    %rax,0x10116(%rip)        # 19d90 <g_972>
    9c7a:	48 8b 05 0f 01 01 00 	mov    0x1010f(%rip),%rax        # 19d90 <g_972>
    9c81:	48 89 85 e8 f9 ff ff 	mov    %rax,-0x618(%rbp)
    9c88:	c7 85 6c f9 ff ff 00 	movl   $0x0,-0x694(%rbp)
    9c8f:	00 00 00 
    9c92:	e9 7e 03 00 00       	jmpq   a015 <func_23+0xf33>
    9c97:	48 c7 85 10 fa ff ff 	movq   $0x0,-0x5f0(%rbp)
    9c9e:	00 00 00 00 
    9ca2:	48 8d 85 90 f9 ff ff 	lea    -0x670(%rbp),%rax
    9ca9:	48 89 85 18 fa ff ff 	mov    %rax,-0x5e8(%rbp)
    9cb0:	c7 85 74 f9 ff ff e3 	movl   $0xac6a12e3,-0x68c(%rbp)
    9cb7:	12 6a ac 
    9cba:	c6 85 5d f9 ff ff fa 	movb   $0xfa,-0x6a3(%rbp)
    9cc1:	48 8d 05 a8 e3 00 00 	lea    0xe3a8(%rip),%rax        # 18070 <g_111>
    9cc8:	48 89 85 20 fa ff ff 	mov    %rax,-0x5e0(%rbp)
    9ccf:	48 8d 05 96 e3 00 00 	lea    0xe396(%rip),%rax        # 1806c <g_84>
    9cd6:	48 89 85 28 fa ff ff 	mov    %rax,-0x5d8(%rbp)
    9cdd:	48 8d 05 7c e4 00 00 	lea    0xe47c(%rip),%rax        # 18160 <g_766>
    9ce4:	48 89 85 30 fa ff ff 	mov    %rax,-0x5d0(%rbp)
    9ceb:	48 8d 05 72 e3 00 00 	lea    0xe372(%rip),%rax        # 18064 <g_55>
    9cf2:	48 89 85 38 fa ff ff 	mov    %rax,-0x5c8(%rbp)
    9cf9:	48 8d 05 64 e3 00 00 	lea    0xe364(%rip),%rax        # 18064 <g_55>
    9d00:	48 89 85 40 fa ff ff 	mov    %rax,-0x5c0(%rbp)
    9d07:	48 c7 85 48 fa ff ff 	movq   $0x0,-0x5b8(%rbp)
    9d0e:	00 00 00 00 
    9d12:	48 8d 05 57 e3 00 00 	lea    0xe357(%rip),%rax        # 18070 <g_111>
    9d19:	48 89 85 50 fa ff ff 	mov    %rax,-0x5b0(%rbp)
    9d20:	48 8d 05 39 e4 00 00 	lea    0xe439(%rip),%rax        # 18160 <g_766>
    9d27:	48 89 85 58 fa ff ff 	mov    %rax,-0x5a8(%rbp)
    9d2e:	48 8d 85 30 fc ff ff 	lea    -0x3d0(%rbp),%rax
    9d35:	48 05 bc 00 00 00    	add    $0xbc,%rax
    9d3b:	48 89 85 50 fb ff ff 	mov    %rax,-0x4b0(%rbp)
    9d42:	48 8d 85 30 fc ff ff 	lea    -0x3d0(%rbp),%rax
    9d49:	48 05 bc 00 00 00    	add    $0xbc,%rax
    9d4f:	48 89 85 58 fb ff ff 	mov    %rax,-0x4a8(%rbp)
    9d56:	48 8d 05 c7 e2 00 00 	lea    0xe2c7(%rip),%rax        # 18024 <g_3>
    9d5d:	48 89 85 60 fb ff ff 	mov    %rax,-0x4a0(%rbp)
    9d64:	48 8d 85 30 fc ff ff 	lea    -0x3d0(%rbp),%rax
    9d6b:	48 05 bc 00 00 00    	add    $0xbc,%rax
    9d71:	48 89 85 68 fb ff ff 	mov    %rax,-0x498(%rbp)
    9d78:	48 8d 05 a5 e2 00 00 	lea    0xe2a5(%rip),%rax        # 18024 <g_3>
    9d7f:	48 89 85 70 fb ff ff 	mov    %rax,-0x490(%rbp)
    9d86:	48 8d 05 97 e2 00 00 	lea    0xe297(%rip),%rax        # 18024 <g_3>
    9d8d:	48 89 85 78 fb ff ff 	mov    %rax,-0x488(%rbp)
    9d94:	48 8d 85 30 fc ff ff 	lea    -0x3d0(%rbp),%rax
    9d9b:	48 05 bc 00 00 00    	add    $0xbc,%rax
    9da1:	48 89 85 80 fb ff ff 	mov    %rax,-0x480(%rbp)
    9da8:	48 8d 05 75 e2 00 00 	lea    0xe275(%rip),%rax        # 18024 <g_3>
    9daf:	48 89 85 88 fb ff ff 	mov    %rax,-0x478(%rbp)
    9db6:	48 8d 05 67 e2 00 00 	lea    0xe267(%rip),%rax        # 18024 <g_3>
    9dbd:	48 89 85 90 fb ff ff 	mov    %rax,-0x470(%rbp)
    9dc4:	48 8d 05 a5 e2 00 00 	lea    0xe2a5(%rip),%rax        # 18070 <g_111>
    9dcb:	48 89 85 98 fb ff ff 	mov    %rax,-0x468(%rbp)
    9dd2:	48 8d 05 4b e2 00 00 	lea    0xe24b(%rip),%rax        # 18024 <g_3>
    9dd9:	48 89 85 a0 fb ff ff 	mov    %rax,-0x460(%rbp)
    9de0:	48 8d 05 85 e2 00 00 	lea    0xe285(%rip),%rax        # 1806c <g_84>
    9de7:	48 89 85 a8 fb ff ff 	mov    %rax,-0x458(%rbp)
    9dee:	48 c7 85 b0 fb ff ff 	movq   $0x0,-0x450(%rbp)
    9df5:	00 00 00 00 
    9df9:	48 8d 05 6c e2 00 00 	lea    0xe26c(%rip),%rax        # 1806c <g_84>
    9e00:	48 89 85 b8 fb ff ff 	mov    %rax,-0x448(%rbp)
    9e07:	48 8d 05 16 e2 00 00 	lea    0xe216(%rip),%rax        # 18024 <g_3>
    9e0e:	48 89 85 c0 fb ff ff 	mov    %rax,-0x440(%rbp)
    9e15:	48 8d 05 54 e2 00 00 	lea    0xe254(%rip),%rax        # 18070 <g_111>
    9e1c:	48 89 85 c8 fb ff ff 	mov    %rax,-0x438(%rbp)
    9e23:	48 8d 05 fa e1 00 00 	lea    0xe1fa(%rip),%rax        # 18024 <g_3>
    9e2a:	48 89 85 d0 fb ff ff 	mov    %rax,-0x430(%rbp)
    9e31:	48 8d 05 34 e2 00 00 	lea    0xe234(%rip),%rax        # 1806c <g_84>
    9e38:	48 89 85 d8 fb ff ff 	mov    %rax,-0x428(%rbp)
    9e3f:	48 8d 85 30 fc ff ff 	lea    -0x3d0(%rbp),%rax
    9e46:	48 05 bc 00 00 00    	add    $0xbc,%rax
    9e4c:	48 89 85 e0 fb ff ff 	mov    %rax,-0x420(%rbp)
    9e53:	48 8d 05 ca e1 00 00 	lea    0xe1ca(%rip),%rax        # 18024 <g_3>
    9e5a:	48 89 85 e8 fb ff ff 	mov    %rax,-0x418(%rbp)
    9e61:	48 8d 05 bc e1 00 00 	lea    0xe1bc(%rip),%rax        # 18024 <g_3>
    9e68:	48 89 85 f0 fb ff ff 	mov    %rax,-0x410(%rbp)
    9e6f:	48 8d 85 30 fc ff ff 	lea    -0x3d0(%rbp),%rax
    9e76:	48 05 bc 00 00 00    	add    $0xbc,%rax
    9e7c:	48 89 85 f8 fb ff ff 	mov    %rax,-0x408(%rbp)
    9e83:	48 8d 05 9a e1 00 00 	lea    0xe19a(%rip),%rax        # 18024 <g_3>
    9e8a:	48 89 85 00 fc ff ff 	mov    %rax,-0x400(%rbp)
    9e91:	48 8d 05 8c e1 00 00 	lea    0xe18c(%rip),%rax        # 18024 <g_3>
    9e98:	48 89 85 08 fc ff ff 	mov    %rax,-0x3f8(%rbp)
    9e9f:	48 8d 85 30 fc ff ff 	lea    -0x3d0(%rbp),%rax
    9ea6:	48 05 bc 00 00 00    	add    $0xbc,%rax
    9eac:	48 89 85 10 fc ff ff 	mov    %rax,-0x3f0(%rbp)
    9eb3:	48 8d 05 6a e1 00 00 	lea    0xe16a(%rip),%rax        # 18024 <g_3>
    9eba:	48 89 85 18 fc ff ff 	mov    %rax,-0x3e8(%rbp)
    9ec1:	48 8d 05 5c e1 00 00 	lea    0xe15c(%rip),%rax        # 18024 <g_3>
    9ec8:	48 89 85 20 fc ff ff 	mov    %rax,-0x3e0(%rbp)
    9ecf:	48 8b 05 8a fc 00 00 	mov    0xfc8a(%rip),%rax        # 19b60 <g_68>
    9ed6:	0f b6 00             	movzbl (%rax),%eax
    9ed9:	0f be d8             	movsbl %al,%ebx
    9edc:	0f b6 05 b1 e2 00 00 	movzbl 0xe2b1(%rip),%eax        # 18194 <g_948>
    9ee3:	44 0f b6 e0          	movzbl %al,%r12d
    9ee7:	8b 85 74 f9 ff ff    	mov    -0x68c(%rbp),%eax
    9eed:	44 0f bf e8          	movswl %ax,%r13d
    9ef1:	8b 85 44 f9 ff ff    	mov    -0x6bc(%rbp),%eax
    9ef7:	89 85 34 f9 ff ff    	mov    %eax,-0x6cc(%rbp)
    9efd:	8b 85 44 f9 ff ff    	mov    -0x6bc(%rbp),%eax
    9f03:	44 0f b7 f0          	movzwl %ax,%r14d
    9f07:	48 8b 15 ea fe 00 00 	mov    0xfeea(%rip),%rdx        # 19df8 <g_994>
    9f0e:	48 8b 85 18 fa ff ff 	mov    -0x5e8(%rbp),%rax
    9f15:	48 89 10             	mov    %rdx,(%rax)
    9f18:	48 8b 85 18 fa ff ff 	mov    -0x5e8(%rbp),%rax
    9f1f:	48 8b 00             	mov    (%rax),%rax
    9f22:	48 39 85 08 fa ff ff 	cmp    %rax,-0x5f8(%rbp)
    9f29:	0f 94 c0             	sete   %al
    9f2c:	44 0f b6 f8          	movzbl %al,%r15d
    9f30:	48 8b 85 00 fa ff ff 	mov    -0x600(%rbp),%rax
    9f37:	48 89 05 1a fe 00 00 	mov    %rax,0xfe1a(%rip)        # 19d58 <g_637>
    9f3e:	48 8b 05 13 fe 00 00 	mov    0xfe13(%rip),%rax        # 19d58 <g_637>
    9f45:	48 85 c0             	test   %rax,%rax
    9f48:	0f 95 c0             	setne  %al
    9f4b:	0f b6 c0             	movzbl %al,%eax
    9f4e:	be d5 ff ff ff       	mov    $0xffffffd5,%esi
    9f53:	89 c7                	mov    %eax,%edi
    9f55:	e8 d7 c2 ff ff       	callq  6231 <safe_mod_func_int8_t_s_s>
    9f5a:	0f be c0             	movsbl %al,%eax
    9f5d:	41 39 c7             	cmp    %eax,%r15d
    9f60:	44 89 f6             	mov    %r14d,%esi
    9f63:	bf 01 00 00 00       	mov    $0x1,%edi
    9f68:	e8 d0 cd ff ff       	callq  6d3d <safe_mul_func_uint16_t_u_u>
    9f6d:	0f b6 c0             	movzbl %al,%eax
    9f70:	8b b5 34 f9 ff ff    	mov    -0x6cc(%rbp),%esi
    9f76:	89 c7                	mov    %eax,%edi
    9f78:	e8 cf cc ff ff       	callq  6c4c <safe_lshift_func_uint8_t_u_u>
    9f7d:	0f b6 c0             	movzbl %al,%eax
    9f80:	44 89 ee             	mov    %r13d,%esi
    9f83:	89 c7                	mov    %eax,%edi
    9f85:	e8 6b c4 ff ff       	callq  63f5 <safe_mul_func_int16_t_s_s>
    9f8a:	0f b7 d0             	movzwl %ax,%edx
    9f8d:	48 8b 05 dc fb 00 00 	mov    0xfbdc(%rip),%rax        # 19b70 <g_182>
    9f94:	0f b7 00             	movzwl (%rax),%eax
    9f97:	0f b7 c0             	movzwl %ax,%eax
    9f9a:	89 d6                	mov    %edx,%esi
    9f9c:	89 c7                	mov    %eax,%edi
    9f9e:	e8 5c cd ff ff       	callq  6cff <safe_add_func_uint16_t_u_u>
    9fa3:	0f b6 85 5d f9 ff ff 	movzbl -0x6a3(%rbp),%eax
    9faa:	44 89 e6             	mov    %r12d,%esi
    9fad:	89 c7                	mov    %eax,%edi
    9faf:	e8 41 c4 ff ff       	callq  63f5 <safe_mul_func_int16_t_s_s>
    9fb4:	0f be c0             	movsbl %al,%eax
    9fb7:	89 de                	mov    %ebx,%esi
    9fb9:	89 c7                	mov    %eax,%edi
    9fbb:	e8 75 c3 ff ff       	callq  6335 <safe_rshift_func_int8_t_s_s>
    9fc0:	0f b6 c0             	movzbl %al,%eax
    9fc3:	be 7e 00 00 00       	mov    $0x7e,%esi
    9fc8:	89 c7                	mov    %eax,%edi
    9fca:	e8 0c cc ff ff       	callq  6bdb <safe_div_func_uint8_t_u_u>
    9fcf:	c7 85 ec fc ff ff ff 	movl   $0xffffffff,-0x314(%rbp)
    9fd6:	ff ff ff 
    9fd9:	80 85 5c f9 ff ff 01 	addb   $0x1,-0x6a4(%rbp)
    9fe0:	48 8b 05 91 fd 00 00 	mov    0xfd91(%rip),%rax        # 19d78 <g_692>
    9fe7:	48 8b 00             	mov    (%rax),%rax
    9fea:	48 8b 00             	mov    (%rax),%rax
    9fed:	48 8d 95 44 f9 ff ff 	lea    -0x6bc(%rbp),%rdx
    9ff4:	48 89 10             	mov    %rdx,(%rax)
    9ff7:	8b 85 6c f9 ff ff    	mov    -0x694(%rbp),%eax
    9ffd:	0f b6 c0             	movzbl %al,%eax
    a000:	be 02 00 00 00       	mov    $0x2,%esi
    a005:	89 c7                	mov    %eax,%edi
    a007:	e8 6c cb ff ff       	callq  6b78 <safe_sub_func_uint8_t_u_u>
    a00c:	0f b6 c0             	movzbl %al,%eax
    a00f:	89 85 6c f9 ff ff    	mov    %eax,-0x694(%rbp)
    a015:	83 bd 6c f9 ff ff ed 	cmpl   $0xffffffed,-0x694(%rbp)
    a01c:	0f 8c 75 fc ff ff    	jl     9c97 <func_23+0xbb5>
    a022:	48 8b 05 67 fd 00 00 	mov    0xfd67(%rip),%rax        # 19d90 <g_972>
    a029:	8b 00                	mov    (%rax),%eax
    a02b:	85 c0                	test   %eax,%eax
    a02d:	74 35                	je     a064 <func_23+0xf82>
    a02f:	eb 4d                	jmp    a07e <func_23+0xf9c>
    a031:	c7 85 70 f9 ff ff 00 	movl   $0x0,-0x690(%rbp)
    a038:	00 00 00 
    a03b:	eb 14                	jmp    a051 <func_23+0xf6f>
    a03d:	8b 85 70 f9 ff ff    	mov    -0x690(%rbp),%eax
    a043:	48 98                	cltq   
    a045:	c6 44 05 c6 02       	movb   $0x2,-0x3a(%rbp,%rax,1)
    a04a:	83 85 70 f9 ff ff 01 	addl   $0x1,-0x690(%rbp)
    a051:	83 bd 70 f9 ff ff 01 	cmpl   $0x1,-0x690(%rbp)
    a058:	7e e3                	jle    a03d <func_23+0xf5b>
    a05a:	0f b6 45 c6          	movzbl -0x3a(%rbp),%eax
    a05e:	83 c0 01             	add    $0x1,%eax
    a061:	88 45 c6             	mov    %al,-0x3a(%rbp)
    a064:	48 8b 05 e5 fd 00 00 	mov    0xfde5(%rip),%rax        # 19e50 <g_1021>
    a06b:	48 8b 95 80 fa ff ff 	mov    -0x580(%rbp),%rdx
    a072:	48 89 10             	mov    %rdx,(%rax)
    a075:	0f b7 85 62 f9 ff ff 	movzwl -0x69e(%rbp),%eax
    a07c:	eb 43                	jmp    a0c1 <func_23+0xfdf>
    a07e:	8b 05 08 e0 00 00    	mov    0xe008(%rip),%eax        # 1808c <g_355>
    a084:	83 c0 01             	add    $0x1,%eax
    a087:	89 05 ff df 00 00    	mov    %eax,0xdfff(%rip)        # 1808c <g_355>
    a08d:	8b 05 f9 df 00 00    	mov    0xdff9(%rip),%eax        # 1808c <g_355>
    a093:	85 c0                	test   %eax,%eax
    a095:	0f 84 87 f8 ff ff    	je     9922 <func_23+0x840>
    a09b:	8b 85 44 f9 ff ff    	mov    -0x6bc(%rbp),%eax
    a0a1:	83 c0 01             	add    $0x1,%eax
    a0a4:	89 85 44 f9 ff ff    	mov    %eax,-0x6bc(%rbp)
    a0aa:	8b 85 44 f9 ff ff    	mov    -0x6bc(%rbp),%eax
    a0b0:	85 c0                	test   %eax,%eax
    a0b2:	0f 8e 53 f3 ff ff    	jle    940b <func_23+0x329>
    a0b8:	48 8b 85 38 f9 ff ff 	mov    -0x6c8(%rbp),%rax
    a0bf:	8b 00                	mov    (%rax),%eax
    a0c1:	48 8b 5d c8          	mov    -0x38(%rbp),%rbx
    a0c5:	64 48 33 1c 25 28 00 	xor    %fs:0x28,%rbx
    a0cc:	00 00 
    a0ce:	74 05                	je     a0d5 <func_23+0xff3>
    a0d0:	e8 9b bf ff ff       	callq  6070 <__stack_chk_fail@plt>
    a0d5:	48 81 c4 a8 06 00 00 	add    $0x6a8,%rsp
    a0dc:	5b                   	pop    %rbx
    a0dd:	41 5c                	pop    %r12
    a0df:	41 5d                	pop    %r13
    a0e1:	41 5e                	pop    %r14
    a0e3:	41 5f                	pop    %r15
    a0e5:	5d                   	pop    %rbp
    a0e6:	c3                   	retq   

000000000000a0e7 <func_27>:
    a0e7:	f3 0f 1e fa          	endbr64 
    a0eb:	55                   	push   %rbp
    a0ec:	48 89 e5             	mov    %rsp,%rbp
    a0ef:	48 89 7d f8          	mov    %rdi,-0x8(%rbp)
    a0f3:	89 75 f4             	mov    %esi,-0xc(%rbp)
    a0f6:	48 89 55 e8          	mov    %rdx,-0x18(%rbp)
    a0fa:	48 89 4d e0          	mov    %rcx,-0x20(%rbp)
    a0fe:	4c 89 45 d8          	mov    %r8,-0x28(%rbp)
    a102:	8b 05 7c e0 00 00    	mov    0xe07c(%rip),%eax        # 18184 <g_889>
    a108:	5d                   	pop    %rbp
    a109:	c3                   	retq   

000000000000a10a <func_38>:
    a10a:	f3 0f 1e fa          	endbr64 
    a10e:	55                   	push   %rbp
    a10f:	48 89 e5             	mov    %rsp,%rbp
    a112:	41 56                	push   %r14
    a114:	41 55                	push   %r13
    a116:	41 54                	push   %r12
    a118:	53                   	push   %rbx
    a119:	48 81 ec 90 02 00 00 	sub    $0x290,%rsp
    a120:	48 89 95 60 fd ff ff 	mov    %rdx,-0x2a0(%rbp)
    a127:	89 c8                	mov    %ecx,%eax
    a129:	4c 89 85 50 fd ff ff 	mov    %r8,-0x2b0(%rbp)
    a130:	89 fa                	mov    %edi,%edx
    a132:	88 95 6c fd ff ff    	mov    %dl,-0x294(%rbp)
    a138:	89 f2                	mov    %esi,%edx
    a13a:	88 95 68 fd ff ff    	mov    %dl,-0x298(%rbp)
    a140:	88 85 5c fd ff ff    	mov    %al,-0x2a4(%rbp)
    a146:	64 48 8b 04 25 28 00 	mov    %fs:0x28,%rax
    a14d:	00 00 
    a14f:	48 89 45 d8          	mov    %rax,-0x28(%rbp)
    a153:	31 c0                	xor    %eax,%eax
    a155:	c7 85 8c fd ff ff 00 	movl   $0x0,-0x274(%rbp)
    a15c:	00 00 00 
    a15f:	c7 85 90 fd ff ff f8 	movl   $0xfffffff8,-0x270(%rbp)
    a166:	ff ff ff 
    a169:	c7 85 94 fd ff ff 03 	movl   $0x3,-0x26c(%rbp)
    a170:	00 00 00 
    a173:	c7 85 74 fd ff ff bf 	movl   $0x9f25a5bf,-0x28c(%rbp)
    a17a:	a5 25 9f 
    a17d:	c7 85 98 fd ff ff f6 	movl   $0xe06b6bf6,-0x268(%rbp)
    a184:	6b 6b e0 
    a187:	c7 85 7c fd ff ff fd 	movl   $0xfffffffd,-0x284(%rbp)
    a18e:	ff ff ff 
    a191:	48 c7 85 a0 fd ff ff 	movq   $0x0,-0x260(%rbp)
    a198:	00 00 00 00 
    a19c:	48 c7 85 a8 fd ff ff 	movq   $0x0,-0x258(%rbp)
    a1a3:	00 00 00 00 
    a1a7:	c7 85 80 fd ff ff 00 	movl   $0x0,-0x280(%rbp)
    a1ae:	00 00 00 
    a1b1:	eb 1a                	jmp    a1cd <func_38+0xc3>
    a1b3:	8b 85 80 fd ff ff    	mov    -0x280(%rbp),%eax
    a1b9:	48 98                	cltq   
    a1bb:	c7 84 85 fc fd ff ff 	movl   $0x5,-0x204(%rbp,%rax,4)
    a1c2:	05 00 00 00 
    a1c6:	83 85 80 fd ff ff 01 	addl   $0x1,-0x280(%rbp)
    a1cd:	83 bd 80 fd ff ff 00 	cmpl   $0x0,-0x280(%rbp)
    a1d4:	7e dd                	jle    a1b3 <func_38+0xa9>
    a1d6:	48 8b 05 73 fb 00 00 	mov    0xfb73(%rip),%rax        # 19d50 <g_533>
    a1dd:	48 8b 10             	mov    (%rax),%rdx
    a1e0:	48 8b 05 61 fb 00 00 	mov    0xfb61(%rip),%rax        # 19d48 <g_534>
    a1e7:	48 8b 12             	mov    (%rdx),%rdx
    a1ea:	48 89 10             	mov    %rdx,(%rax)
    a1ed:	c7 05 71 07 01 00 00 	movl   $0x0,0x10771(%rip)        # 1a968 <g_5>
    a1f4:	00 00 00 
    a1f7:	e9 33 0b 00 00       	jmpq   ad2f <func_38+0xc25>
    a1fc:	48 8d 05 6d f9 00 00 	lea    0xf96d(%rip),%rax        # 19b70 <g_182>
    a203:	48 89 85 c8 fd ff ff 	mov    %rax,-0x238(%rbp)
    a20a:	48 8d 05 77 de 00 00 	lea    0xde77(%rip),%rax        # 18088 <g_217>
    a211:	48 89 85 d0 fd ff ff 	mov    %rax,-0x230(%rbp)
    a218:	8b 05 4a 07 01 00    	mov    0x1074a(%rip),%eax        # 1a968 <g_5>
    a21e:	89 c0                	mov    %eax,%eax
    a220:	48 8d 14 c5 00 00 00 	lea    0x0(,%rax,8),%rdx
    a227:	00 
    a228:	48 8d 05 39 df 00 00 	lea    0xdf39(%rip),%rax        # 18168 <g_815>
    a22f:	48 01 d0             	add    %rdx,%rax
    a232:	48 89 85 b0 fe ff ff 	mov    %rax,-0x150(%rbp)
    a239:	8b 05 29 07 01 00    	mov    0x10729(%rip),%eax        # 1a968 <g_5>
    a23f:	89 c0                	mov    %eax,%eax
    a241:	48 8d 14 c5 00 00 00 	lea    0x0(,%rax,8),%rdx
    a248:	00 
    a249:	48 8d 05 18 df 00 00 	lea    0xdf18(%rip),%rax        # 18168 <g_815>
    a250:	48 01 d0             	add    %rdx,%rax
    a253:	48 89 85 b8 fe ff ff 	mov    %rax,-0x148(%rbp)
    a25a:	8b 05 08 07 01 00    	mov    0x10708(%rip),%eax        # 1a968 <g_5>
    a260:	89 c0                	mov    %eax,%eax
    a262:	48 8d 14 c5 00 00 00 	lea    0x0(,%rax,8),%rdx
    a269:	00 
    a26a:	48 8d 05 f7 de 00 00 	lea    0xdef7(%rip),%rax        # 18168 <g_815>
    a271:	48 01 d0             	add    %rdx,%rax
    a274:	48 89 85 c0 fe ff ff 	mov    %rax,-0x140(%rbp)
    a27b:	48 8d 05 ee de 00 00 	lea    0xdeee(%rip),%rax        # 18170 <g_817>
    a282:	48 89 85 c8 fe ff ff 	mov    %rax,-0x138(%rbp)
    a289:	48 c7 85 d0 fe ff ff 	movq   $0x0,-0x130(%rbp)
    a290:	00 00 00 00 
    a294:	48 8d 05 d5 de 00 00 	lea    0xded5(%rip),%rax        # 18170 <g_817>
    a29b:	48 89 85 d8 fe ff ff 	mov    %rax,-0x128(%rbp)
    a2a2:	8b 05 c0 06 01 00    	mov    0x106c0(%rip),%eax        # 1a968 <g_5>
    a2a8:	89 c0                	mov    %eax,%eax
    a2aa:	48 8d 14 c5 00 00 00 	lea    0x0(,%rax,8),%rdx
    a2b1:	00 
    a2b2:	48 8d 05 af de 00 00 	lea    0xdeaf(%rip),%rax        # 18168 <g_815>
    a2b9:	48 01 d0             	add    %rdx,%rax
    a2bc:	48 89 85 e0 fe ff ff 	mov    %rax,-0x120(%rbp)
    a2c3:	8b 05 9f 06 01 00    	mov    0x1069f(%rip),%eax        # 1a968 <g_5>
    a2c9:	89 c0                	mov    %eax,%eax
    a2cb:	48 8d 14 c5 00 00 00 	lea    0x0(,%rax,8),%rdx
    a2d2:	00 
    a2d3:	48 8d 05 8e de 00 00 	lea    0xde8e(%rip),%rax        # 18168 <g_815>
    a2da:	48 01 d0             	add    %rdx,%rax
    a2dd:	48 89 85 e8 fe ff ff 	mov    %rax,-0x118(%rbp)
    a2e4:	8b 05 7e 06 01 00    	mov    0x1067e(%rip),%eax        # 1a968 <g_5>
    a2ea:	89 c0                	mov    %eax,%eax
    a2ec:	48 8d 14 c5 00 00 00 	lea    0x0(,%rax,8),%rdx
    a2f3:	00 
    a2f4:	48 8d 05 6d de 00 00 	lea    0xde6d(%rip),%rax        # 18168 <g_815>
    a2fb:	48 01 d0             	add    %rdx,%rax
    a2fe:	48 89 85 f0 fe ff ff 	mov    %rax,-0x110(%rbp)
    a305:	48 8d 05 64 de 00 00 	lea    0xde64(%rip),%rax        # 18170 <g_817>
    a30c:	48 89 85 f8 fe ff ff 	mov    %rax,-0x108(%rbp)
    a313:	48 8d 05 4e de 00 00 	lea    0xde4e(%rip),%rax        # 18168 <g_815>
    a31a:	48 89 85 00 ff ff ff 	mov    %rax,-0x100(%rbp)
    a321:	8b 05 41 06 01 00    	mov    0x10641(%rip),%eax        # 1a968 <g_5>
    a327:	89 c0                	mov    %eax,%eax
    a329:	48 8d 14 c5 00 00 00 	lea    0x0(,%rax,8),%rdx
    a330:	00 
    a331:	48 8d 05 30 de 00 00 	lea    0xde30(%rip),%rax        # 18168 <g_815>
    a338:	48 01 d0             	add    %rdx,%rax
    a33b:	48 89 85 08 ff ff ff 	mov    %rax,-0xf8(%rbp)
    a342:	48 8d 05 27 de 00 00 	lea    0xde27(%rip),%rax        # 18170 <g_817>
    a349:	48 89 85 10 ff ff ff 	mov    %rax,-0xf0(%rbp)
    a350:	8b 05 12 06 01 00    	mov    0x10612(%rip),%eax        # 1a968 <g_5>
    a356:	89 c0                	mov    %eax,%eax
    a358:	48 8d 14 c5 00 00 00 	lea    0x0(,%rax,8),%rdx
    a35f:	00 
    a360:	48 8d 05 01 de 00 00 	lea    0xde01(%rip),%rax        # 18168 <g_815>
    a367:	48 01 d0             	add    %rdx,%rax
    a36a:	48 89 85 18 ff ff ff 	mov    %rax,-0xe8(%rbp)
    a371:	48 8d 05 f0 dd 00 00 	lea    0xddf0(%rip),%rax        # 18168 <g_815>
    a378:	48 89 85 20 ff ff ff 	mov    %rax,-0xe0(%rbp)
    a37f:	48 8d 05 ea dd 00 00 	lea    0xddea(%rip),%rax        # 18170 <g_817>
    a386:	48 89 85 28 ff ff ff 	mov    %rax,-0xd8(%rbp)
    a38d:	48 8d 05 dc dd 00 00 	lea    0xdddc(%rip),%rax        # 18170 <g_817>
    a394:	48 89 85 30 ff ff ff 	mov    %rax,-0xd0(%rbp)
    a39b:	48 8d 05 c6 dd 00 00 	lea    0xddc6(%rip),%rax        # 18168 <g_815>
    a3a2:	48 89 85 38 ff ff ff 	mov    %rax,-0xc8(%rbp)
    a3a9:	48 8d 05 c0 dd 00 00 	lea    0xddc0(%rip),%rax        # 18170 <g_817>
    a3b0:	48 89 85 40 ff ff ff 	mov    %rax,-0xc0(%rbp)
    a3b7:	48 8d 05 aa dd 00 00 	lea    0xddaa(%rip),%rax        # 18168 <g_815>
    a3be:	48 89 85 48 ff ff ff 	mov    %rax,-0xb8(%rbp)
    a3c5:	8b 05 9d 05 01 00    	mov    0x1059d(%rip),%eax        # 1a968 <g_5>
    a3cb:	89 c0                	mov    %eax,%eax
    a3cd:	48 8d 14 c5 00 00 00 	lea    0x0(,%rax,8),%rdx
    a3d4:	00 
    a3d5:	48 8d 05 8c dd 00 00 	lea    0xdd8c(%rip),%rax        # 18168 <g_815>
    a3dc:	48 01 d0             	add    %rdx,%rax
    a3df:	48 89 85 50 ff ff ff 	mov    %rax,-0xb0(%rbp)
    a3e6:	48 8d 05 7b dd 00 00 	lea    0xdd7b(%rip),%rax        # 18168 <g_815>
    a3ed:	48 89 85 58 ff ff ff 	mov    %rax,-0xa8(%rbp)
    a3f4:	48 8d 05 75 dd 00 00 	lea    0xdd75(%rip),%rax        # 18170 <g_817>
    a3fb:	48 89 85 60 ff ff ff 	mov    %rax,-0xa0(%rbp)
    a402:	48 8d 05 5f dd 00 00 	lea    0xdd5f(%rip),%rax        # 18168 <g_815>
    a409:	48 89 85 68 ff ff ff 	mov    %rax,-0x98(%rbp)
    a410:	48 8d 05 51 dd 00 00 	lea    0xdd51(%rip),%rax        # 18168 <g_815>
    a417:	48 89 85 70 ff ff ff 	mov    %rax,-0x90(%rbp)
    a41e:	48 8d 05 4b dd 00 00 	lea    0xdd4b(%rip),%rax        # 18170 <g_817>
    a425:	48 89 85 78 ff ff ff 	mov    %rax,-0x88(%rbp)
    a42c:	48 8d 05 35 dd 00 00 	lea    0xdd35(%rip),%rax        # 18168 <g_815>
    a433:	48 89 45 80          	mov    %rax,-0x80(%rbp)
    a437:	48 8d 05 32 dd 00 00 	lea    0xdd32(%rip),%rax        # 18170 <g_817>
    a43e:	48 89 45 88          	mov    %rax,-0x78(%rbp)
    a442:	8b 05 20 05 01 00    	mov    0x10520(%rip),%eax        # 1a968 <g_5>
    a448:	89 c0                	mov    %eax,%eax
    a44a:	48 8d 14 c5 00 00 00 	lea    0x0(,%rax,8),%rdx
    a451:	00 
    a452:	48 8d 05 0f dd 00 00 	lea    0xdd0f(%rip),%rax        # 18168 <g_815>
    a459:	48 01 d0             	add    %rdx,%rax
    a45c:	48 89 45 90          	mov    %rax,-0x70(%rbp)
    a460:	48 8d 05 09 dd 00 00 	lea    0xdd09(%rip),%rax        # 18170 <g_817>
    a467:	48 89 45 98          	mov    %rax,-0x68(%rbp)
    a46b:	48 8d 05 f6 dc 00 00 	lea    0xdcf6(%rip),%rax        # 18168 <g_815>
    a472:	48 89 45 a0          	mov    %rax,-0x60(%rbp)
    a476:	8b 05 ec 04 01 00    	mov    0x104ec(%rip),%eax        # 1a968 <g_5>
    a47c:	89 c0                	mov    %eax,%eax
    a47e:	48 8d 14 c5 00 00 00 	lea    0x0(,%rax,8),%rdx
    a485:	00 
    a486:	48 8d 05 db dc 00 00 	lea    0xdcdb(%rip),%rax        # 18168 <g_815>
    a48d:	48 01 d0             	add    %rdx,%rax
    a490:	48 89 45 a8          	mov    %rax,-0x58(%rbp)
    a494:	8b 05 ce 04 01 00    	mov    0x104ce(%rip),%eax        # 1a968 <g_5>
    a49a:	89 c0                	mov    %eax,%eax
    a49c:	48 8d 14 c5 00 00 00 	lea    0x0(,%rax,8),%rdx
    a4a3:	00 
    a4a4:	48 8d 05 bd dc 00 00 	lea    0xdcbd(%rip),%rax        # 18168 <g_815>
    a4ab:	48 01 d0             	add    %rdx,%rax
    a4ae:	48 89 45 b0          	mov    %rax,-0x50(%rbp)
    a4b2:	48 8d 05 af dc 00 00 	lea    0xdcaf(%rip),%rax        # 18168 <g_815>
    a4b9:	48 89 45 b8          	mov    %rax,-0x48(%rbp)
    a4bd:	48 8d 05 ac dc 00 00 	lea    0xdcac(%rip),%rax        # 18170 <g_817>
    a4c4:	48 89 45 c0          	mov    %rax,-0x40(%rbp)
    a4c8:	8b 05 9a 04 01 00    	mov    0x1049a(%rip),%eax        # 1a968 <g_5>
    a4ce:	89 c0                	mov    %eax,%eax
    a4d0:	48 8d 14 c5 00 00 00 	lea    0x0(,%rax,8),%rdx
    a4d7:	00 
    a4d8:	48 8d 05 89 dc 00 00 	lea    0xdc89(%rip),%rax        # 18168 <g_815>
    a4df:	48 01 d0             	add    %rdx,%rax
    a4e2:	48 89 45 c8          	mov    %rax,-0x38(%rbp)
    a4e6:	c7 85 78 fd ff ff ff 	movl   $0xffffffff,-0x288(%rbp)
    a4ed:	ff ff ff 
    a4f0:	c6 85 71 fd ff ff e6 	movb   $0xe6,-0x28f(%rbp)
    a4f7:	48 8d 05 32 dc 00 00 	lea    0xdc32(%rip),%rax        # 18130 <g_651>
    a4fe:	48 89 85 d8 fd ff ff 	mov    %rax,-0x228(%rbp)
    a505:	c7 85 10 fe ff ff 00 	movl   $0x0,-0x1f0(%rbp)
    a50c:	00 00 00 
    a50f:	c7 85 14 fe ff ff f8 	movl   $0xaef765f8,-0x1ec(%rbp)
    a516:	65 f7 ae 
    a519:	c7 85 18 fe ff ff f8 	movl   $0xaef765f8,-0x1e8(%rbp)
    a520:	65 f7 ae 
    a523:	c7 85 1c fe ff ff 00 	movl   $0x0,-0x1e4(%rbp)
    a52a:	00 00 00 
    a52d:	c7 85 20 fe ff ff f8 	movl   $0xaef765f8,-0x1e0(%rbp)
    a534:	65 f7 ae 
    a537:	c7 85 24 fe ff ff f8 	movl   $0xaef765f8,-0x1dc(%rbp)
    a53e:	65 f7 ae 
    a541:	c7 85 28 fe ff ff 00 	movl   $0x0,-0x1d8(%rbp)
    a548:	00 00 00 
    a54b:	c7 85 2c fe ff ff f8 	movl   $0xaef765f8,-0x1d4(%rbp)
    a552:	65 f7 ae 
    a555:	c7 85 30 fe ff ff f8 	movl   $0xaef765f8,-0x1d0(%rbp)
    a55c:	65 f7 ae 
    a55f:	c7 85 34 fe ff ff 00 	movl   $0x0,-0x1cc(%rbp)
    a566:	00 00 00 
    a569:	66 0f be 85 71 fd ff 	movsbw -0x28f(%rbp),%ax
    a570:	ff 
    a571:	0f b7 d8             	movzwl %ax,%ebx
    a574:	44 0f b6 a5 68 fd ff 	movzbl -0x298(%rbp),%r12d
    a57b:	ff 
    a57c:	44 8b ad fc fd ff ff 	mov    -0x204(%rbp),%r13d
    a583:	0f b6 05 3a db 00 00 	movzbl 0xdb3a(%rip),%eax        # 180c4 <g_456>
    a58a:	0f b6 c0             	movzbl %al,%eax
    a58d:	48 89 c6             	mov    %rax,%rsi
    a590:	bf 00 00 00 00       	mov    $0x0,%edi
    a595:	e8 a7 c2 ff ff       	callq  6841 <safe_add_func_int64_t_s_s>
    a59a:	8b 95 8c fd ff ff    	mov    -0x274(%rbp),%edx
    a5a0:	48 63 d2             	movslq %edx,%rdx
    a5a3:	48 39 d0             	cmp    %rdx,%rax
    a5a6:	0f 95 c0             	setne  %al
    a5a9:	0f b6 c0             	movzbl %al,%eax
    a5ac:	44 89 e9             	mov    %r13d,%ecx
    a5af:	09 c1                	or     %eax,%ecx
    a5b1:	48 8b 05 a8 f5 00 00 	mov    0xf5a8(%rip),%rax        # 19b60 <g_68>
    a5b8:	0f b6 00             	movzbl (%rax),%eax
    a5bb:	89 c2                	mov    %eax,%edx
    a5bd:	89 c8                	mov    %ecx,%eax
    a5bf:	21 c2                	and    %eax,%edx
    a5c1:	48 8b 05 98 f5 00 00 	mov    0xf598(%rip),%rax        # 19b60 <g_68>
    a5c8:	88 10                	mov    %dl,(%rax)
    a5ca:	0f b6 10             	movzbl (%rax),%edx
    a5cd:	48 8b 85 d0 fd ff ff 	mov    -0x230(%rbp),%rax
    a5d4:	0f b6 00             	movzbl (%rax),%eax
    a5d7:	21 c2                	and    %eax,%edx
    a5d9:	48 8b 85 d0 fd ff ff 	mov    -0x230(%rbp),%rax
    a5e0:	88 10                	mov    %dl,(%rax)
    a5e2:	48 8b 85 d0 fd ff ff 	mov    -0x230(%rbp),%rax
    a5e9:	0f b6 00             	movzbl (%rax),%eax
    a5ec:	48 0f be d0          	movsbq %al,%rdx
    a5f0:	48 8b 85 50 fd ff ff 	mov    -0x2b0(%rbp),%rax
    a5f7:	48 39 c2             	cmp    %rax,%rdx
    a5fa:	0f b6 85 5c fd ff ff 	movzbl -0x2a4(%rbp),%eax
    a601:	0f be d0             	movsbl %al,%edx
    a604:	8b 85 78 fd ff ff    	mov    -0x288(%rbp),%eax
    a60a:	09 d0                	or     %edx,%eax
    a60c:	89 85 78 fd ff ff    	mov    %eax,-0x288(%rbp)
    a612:	8b 85 78 fd ff ff    	mov    -0x288(%rbp),%eax
    a618:	85 c0                	test   %eax,%eax
    a61a:	75 20                	jne    a63c <func_38+0x532>
    a61c:	8b 05 46 03 01 00    	mov    0x10346(%rip),%eax        # 1a968 <g_5>
    a622:	89 c0                	mov    %eax,%eax
    a624:	48 8d 14 c5 00 00 00 	lea    0x0(,%rax,8),%rdx
    a62b:	00 
    a62c:	48 8d 05 35 db 00 00 	lea    0xdb35(%rip),%rax        # 18168 <g_815>
    a633:	48 8b 04 02          	mov    (%rdx,%rax,1),%rax
    a637:	48 85 c0             	test   %rax,%rax
    a63a:	74 07                	je     a643 <func_38+0x539>
    a63c:	b8 01 00 00 00       	mov    $0x1,%eax
    a641:	eb 05                	jmp    a648 <func_38+0x53e>
    a643:	b8 00 00 00 00       	mov    $0x0,%eax
    a648:	0f be c0             	movsbl %al,%eax
    a64b:	be 04 00 00 00       	mov    $0x4,%esi
    a650:	89 c7                	mov    %eax,%edi
    a652:	e8 15 bd ff ff       	callq  636c <safe_rshift_func_int8_t_s_u>
    a657:	0f b6 c0             	movzbl %al,%eax
    a65a:	be f9 00 00 00       	mov    $0xf9,%esi
    a65f:	89 c7                	mov    %eax,%edi
    a661:	e8 75 c5 ff ff       	callq  6bdb <safe_div_func_uint8_t_u_u>
    a666:	89 c2                	mov    %eax,%edx
    a668:	48 8b 85 c8 fd ff ff 	mov    -0x238(%rbp),%rax
    a66f:	48 8b 00             	mov    (%rax),%rax
    a672:	0f b6 d2             	movzbl %dl,%edx
    a675:	66 89 10             	mov    %dx,(%rax)
    a678:	0f b7 00             	movzwl (%rax),%eax
    a67b:	66 85 c0             	test   %ax,%ax
    a67e:	74 07                	je     a687 <func_38+0x57d>
    a680:	b8 01 00 00 00       	mov    $0x1,%eax
    a685:	eb 05                	jmp    a68c <func_38+0x582>
    a687:	b8 00 00 00 00       	mov    $0x0,%eax
    a68c:	0f b6 c0             	movzbl %al,%eax
    a68f:	44 89 e6             	mov    %r12d,%esi
    a692:	89 c7                	mov    %eax,%edi
    a694:	e8 25 c6 ff ff       	callq  6cbe <safe_rshift_func_uint8_t_u_u>
    a699:	0f b6 c0             	movzbl %al,%eax
    a69c:	89 de                	mov    %ebx,%esi
    a69e:	89 c7                	mov    %eax,%edi
    a6a0:	e8 98 c6 ff ff       	callq  6d3d <safe_mul_func_uint16_t_u_u>
    a6a5:	0f b6 85 68 fd ff ff 	movzbl -0x298(%rbp),%eax
    a6ac:	39 85 8c fd ff ff    	cmp    %eax,-0x274(%rbp)
    a6b2:	0f 95 c0             	setne  %al
    a6b5:	0f b6 d0             	movzbl %al,%edx
    a6b8:	48 8b 05 99 f6 00 00 	mov    0xf699(%rip),%rax        # 19d58 <g_637>
    a6bf:	48 8b 30             	mov    (%rax),%rsi
    a6c2:	8b 05 a0 02 01 00    	mov    0x102a0(%rip),%eax        # 1a968 <g_5>
    a6c8:	89 c0                	mov    %eax,%eax
    a6ca:	48 8d 0c c5 00 00 00 	lea    0x0(,%rax,8),%rcx
    a6d1:	00 
    a6d2:	48 8d 05 8f da 00 00 	lea    0xda8f(%rip),%rax        # 18168 <g_815>
    a6d9:	48 8b 0c 01          	mov    (%rcx,%rax,1),%rcx
    a6dd:	48 8b 05 74 f6 00 00 	mov    0xf674(%rip),%rax        # 19d58 <g_637>
    a6e4:	48 09 f1             	or     %rsi,%rcx
    a6e7:	48 89 08             	mov    %rcx,(%rax)
    a6ea:	48 8b 00             	mov    (%rax),%rax
    a6ed:	48 89 d6             	mov    %rdx,%rsi
    a6f0:	48 89 c7             	mov    %rax,%rdi
    a6f3:	e8 49 c1 ff ff       	callq  6841 <safe_add_func_int64_t_s_s>
    a6f8:	8b 95 8c fd ff ff    	mov    -0x274(%rbp),%edx
    a6fe:	48 63 d2             	movslq %edx,%rdx
    a701:	48 21 d0             	and    %rdx,%rax
    a704:	48 83 c8 07          	or     $0x7,%rax
    a708:	48 89 c2             	mov    %rax,%rdx
    a70b:	48 8b 85 d8 fd ff ff 	mov    -0x228(%rbp),%rax
    a712:	8b 00                	mov    (%rax),%eax
    a714:	31 c2                	xor    %eax,%edx
    a716:	48 8b 85 d8 fd ff ff 	mov    -0x228(%rbp),%rax
    a71d:	89 10                	mov    %edx,(%rax)
    a71f:	48 8b 85 d8 fd ff ff 	mov    -0x228(%rbp),%rax
    a726:	8b 95 8c fd ff ff    	mov    -0x274(%rbp),%edx
    a72c:	89 10                	mov    %edx,(%rax)
    a72e:	c7 05 2c d9 00 00 00 	movl   $0x0,0xd92c(%rip)        # 18064 <g_55>
    a735:	00 00 00 
    a738:	e9 d5 05 00 00       	jmpq   ad12 <func_38+0xc08>
    a73d:	66 c7 85 72 fd ff ff 	movw   $0xfffa,-0x28e(%rbp)
    a744:	fa ff 
    a746:	c7 85 84 fd ff ff 00 	movl   $0x0,-0x27c(%rbp)
    a74d:	00 00 00 
    a750:	eb 46                	jmp    a798 <func_38+0x68e>
    a752:	c7 85 88 fd ff ff 00 	movl   $0x0,-0x278(%rbp)
    a759:	00 00 00 
    a75c:	eb 2a                	jmp    a788 <func_38+0x67e>
    a75e:	8b 85 88 fd ff ff    	mov    -0x278(%rbp),%eax
    a764:	48 63 d0             	movslq %eax,%rdx
    a767:	8b 85 84 fd ff ff    	mov    -0x27c(%rbp),%eax
    a76d:	48 98                	cltq   
    a76f:	48 01 c2             	add    %rax,%rdx
    a772:	48 8d 85 78 fd ff ff 	lea    -0x288(%rbp),%rax
    a779:	48 89 84 d5 00 fe ff 	mov    %rax,-0x200(%rbp,%rdx,8)
    a780:	ff 
    a781:	83 85 88 fd ff ff 01 	addl   $0x1,-0x278(%rbp)
    a788:	83 bd 88 fd ff ff 00 	cmpl   $0x0,-0x278(%rbp)
    a78f:	7e cd                	jle    a75e <func_38+0x654>
    a791:	83 85 84 fd ff ff 01 	addl   $0x1,-0x27c(%rbp)
    a798:	83 bd 84 fd ff ff 01 	cmpl   $0x1,-0x27c(%rbp)
    a79f:	7e b1                	jle    a752 <func_38+0x648>
    a7a1:	83 ad 7c fd ff ff 01 	subl   $0x1,-0x284(%rbp)
    a7a8:	66 c7 05 27 d9 00 00 	movw   $0x0,0xd927(%rip)        # 180d8 <g_568>
    a7af:	00 00 
    a7b1:	eb 61                	jmp    a814 <func_38+0x70a>
    a7b3:	48 8d 85 b0 fe ff ff 	lea    -0x150(%rbp),%rax
    a7ba:	48 05 98 00 00 00    	add    $0x98,%rax
    a7c0:	48 89 85 f0 fd ff ff 	mov    %rax,-0x210(%rbp)
    a7c7:	48 8b 85 f0 fd ff ff 	mov    -0x210(%rbp),%rax
    a7ce:	48 8d 95 50 fd ff ff 	lea    -0x2b0(%rbp),%rdx
    a7d5:	48 89 10             	mov    %rdx,(%rax)
    a7d8:	48 8b 85 f0 fd ff ff 	mov    -0x210(%rbp),%rax
    a7df:	48 8b 00             	mov    (%rax),%rax
    a7e2:	48 39 85 a0 fd ff ff 	cmp    %rax,-0x260(%rbp)
    a7e9:	0f 94 c0             	sete   %al
    a7ec:	0f b6 d0             	movzbl %al,%edx
    a7ef:	48 8b 85 d8 fd ff ff 	mov    -0x228(%rbp),%rax
    a7f6:	8b 00                	mov    (%rax),%eax
    a7f8:	21 c2                	and    %eax,%edx
    a7fa:	48 8b 85 d8 fd ff ff 	mov    -0x228(%rbp),%rax
    a801:	89 10                	mov    %edx,(%rax)
    a803:	0f b7 05 ce d8 00 00 	movzwl 0xd8ce(%rip),%eax        # 180d8 <g_568>
    a80a:	83 c0 01             	add    $0x1,%eax
    a80d:	66 89 05 c4 d8 00 00 	mov    %ax,0xd8c4(%rip)        # 180d8 <g_568>
    a814:	0f b7 05 bd d8 00 00 	movzwl 0xd8bd(%rip),%eax        # 180d8 <g_568>
    a81b:	66 85 c0             	test   %ax,%ax
    a81e:	74 93                	je     a7b3 <func_38+0x6a9>
    a820:	48 8d 05 45 d8 00 00 	lea    0xd845(%rip),%rax        # 1806c <g_84>
    a827:	48 89 05 3a f3 00 00 	mov    %rax,0xf33a(%rip)        # 19b68 <g_87>
    a82e:	48 8b 05 33 f3 00 00 	mov    0xf333(%rip),%rax        # 19b68 <g_87>
    a835:	48 89 85 60 fd ff ff 	mov    %rax,-0x2a0(%rbp)
    a83c:	c6 05 45 d8 00 00 00 	movb   $0x0,0xd845(%rip)        # 18088 <g_217>
    a843:	e9 ac 04 00 00       	jmpq   acf4 <func_38+0xbea>
    a848:	48 8b 05 29 f5 00 00 	mov    0xf529(%rip),%rax        # 19d78 <g_692>
    a84f:	48 8b 00             	mov    (%rax),%rax
    a852:	48 8b 00             	mov    (%rax),%rax
    a855:	48 8b 95 60 fd ff ff 	mov    -0x2a0(%rbp),%rdx
    a85c:	48 89 10             	mov    %rdx,(%rax)
    a85f:	c7 05 23 d8 00 00 00 	movl   $0x0,0xd823(%rip)        # 1808c <g_355>
    a866:	00 00 00 
    a869:	e9 68 04 00 00       	jmpq   acd6 <func_38+0xbcc>
    a86e:	66 c7 85 40 fe ff ff 	movw   $0x8,-0x1c0(%rbp)
    a875:	08 00 
    a877:	66 c7 85 42 fe ff ff 	movw   $0x8,-0x1be(%rbp)
    a87e:	08 00 
    a880:	66 c7 85 44 fe ff ff 	movw   $0x8,-0x1bc(%rbp)
    a887:	08 00 
    a889:	66 c7 85 46 fe ff ff 	movw   $0x8,-0x1ba(%rbp)
    a890:	08 00 
    a892:	66 c7 85 48 fe ff ff 	movw   $0x8,-0x1b8(%rbp)
    a899:	08 00 
    a89b:	66 c7 85 4a fe ff ff 	movw   $0x8,-0x1b6(%rbp)
    a8a2:	08 00 
    a8a4:	66 c7 85 4c fe ff ff 	movw   $0x8,-0x1b4(%rbp)
    a8ab:	08 00 
    a8ad:	66 c7 85 4e fe ff ff 	movw   $0x8,-0x1b2(%rbp)
    a8b4:	08 00 
    a8b6:	66 c7 85 50 fe ff ff 	movw   $0x8,-0x1b0(%rbp)
    a8bd:	08 00 
    a8bf:	66 c7 85 52 fe ff ff 	movw   $0x8,-0x1ae(%rbp)
    a8c6:	08 00 
    a8c8:	66 c7 85 54 fe ff ff 	movw   $0x8,-0x1ac(%rbp)
    a8cf:	08 00 
    a8d1:	66 c7 85 56 fe ff ff 	movw   $0x8,-0x1aa(%rbp)
    a8d8:	08 00 
    a8da:	66 c7 85 58 fe ff ff 	movw   $0x8,-0x1a8(%rbp)
    a8e1:	08 00 
    a8e3:	66 c7 85 5a fe ff ff 	movw   $0x8,-0x1a6(%rbp)
    a8ea:	08 00 
    a8ec:	66 c7 85 5c fe ff ff 	movw   $0x8,-0x1a4(%rbp)
    a8f3:	08 00 
    a8f5:	66 c7 85 5e fe ff ff 	movw   $0x8,-0x1a2(%rbp)
    a8fc:	08 00 
    a8fe:	66 c7 85 60 fe ff ff 	movw   $0x8,-0x1a0(%rbp)
    a905:	08 00 
    a907:	66 c7 85 62 fe ff ff 	movw   $0x8,-0x19e(%rbp)
    a90e:	08 00 
    a910:	66 c7 85 64 fe ff ff 	movw   $0x8,-0x19c(%rbp)
    a917:	08 00 
    a919:	66 c7 85 66 fe ff ff 	movw   $0x8,-0x19a(%rbp)
    a920:	08 00 
    a922:	66 c7 85 68 fe ff ff 	movw   $0x8,-0x198(%rbp)
    a929:	08 00 
    a92b:	66 c7 85 6a fe ff ff 	movw   $0x8,-0x196(%rbp)
    a932:	08 00 
    a934:	66 c7 85 6c fe ff ff 	movw   $0x8,-0x194(%rbp)
    a93b:	08 00 
    a93d:	66 c7 85 6e fe ff ff 	movw   $0x8,-0x192(%rbp)
    a944:	08 00 
    a946:	66 c7 85 70 fe ff ff 	movw   $0x8,-0x190(%rbp)
    a94d:	08 00 
    a94f:	66 c7 85 72 fe ff ff 	movw   $0x8,-0x18e(%rbp)
    a956:	08 00 
    a958:	66 c7 85 74 fe ff ff 	movw   $0x8,-0x18c(%rbp)
    a95f:	08 00 
    a961:	66 c7 85 76 fe ff ff 	movw   $0x8,-0x18a(%rbp)
    a968:	08 00 
    a96a:	66 c7 85 78 fe ff ff 	movw   $0x8,-0x188(%rbp)
    a971:	08 00 
    a973:	66 c7 85 7a fe ff ff 	movw   $0x8,-0x186(%rbp)
    a97a:	08 00 
    a97c:	66 c7 85 7c fe ff ff 	movw   $0x8,-0x184(%rbp)
    a983:	08 00 
    a985:	66 c7 85 7e fe ff ff 	movw   $0x8,-0x182(%rbp)
    a98c:	08 00 
    a98e:	66 c7 85 80 fe ff ff 	movw   $0x8,-0x180(%rbp)
    a995:	08 00 
    a997:	66 c7 85 82 fe ff ff 	movw   $0x8,-0x17e(%rbp)
    a99e:	08 00 
    a9a0:	66 c7 85 84 fe ff ff 	movw   $0x8,-0x17c(%rbp)
    a9a7:	08 00 
    a9a9:	66 c7 85 86 fe ff ff 	movw   $0x8,-0x17a(%rbp)
    a9b0:	08 00 
    a9b2:	66 c7 85 88 fe ff ff 	movw   $0x8,-0x178(%rbp)
    a9b9:	08 00 
    a9bb:	66 c7 85 8a fe ff ff 	movw   $0x8,-0x176(%rbp)
    a9c2:	08 00 
    a9c4:	66 c7 85 8c fe ff ff 	movw   $0x8,-0x174(%rbp)
    a9cb:	08 00 
    a9cd:	66 c7 85 8e fe ff ff 	movw   $0x8,-0x172(%rbp)
    a9d4:	08 00 
    a9d6:	66 c7 85 90 fe ff ff 	movw   $0x8,-0x170(%rbp)
    a9dd:	08 00 
    a9df:	66 c7 85 92 fe ff ff 	movw   $0x8,-0x16e(%rbp)
    a9e6:	08 00 
    a9e8:	66 c7 85 94 fe ff ff 	movw   $0x8,-0x16c(%rbp)
    a9ef:	08 00 
    a9f1:	66 c7 85 96 fe ff ff 	movw   $0x8,-0x16a(%rbp)
    a9f8:	08 00 
    a9fa:	66 c7 85 98 fe ff ff 	movw   $0x8,-0x168(%rbp)
    aa01:	08 00 
    aa03:	66 c7 85 9a fe ff ff 	movw   $0x8,-0x166(%rbp)
    aa0a:	08 00 
    aa0c:	66 c7 85 9c fe ff ff 	movw   $0x8,-0x164(%rbp)
    aa13:	08 00 
    aa15:	66 c7 85 9e fe ff ff 	movw   $0x8,-0x162(%rbp)
    aa1c:	08 00 
    aa1e:	66 c7 85 a0 fe ff ff 	movw   $0x8,-0x160(%rbp)
    aa25:	08 00 
    aa27:	66 c7 85 a2 fe ff ff 	movw   $0x8,-0x15e(%rbp)
    aa2e:	08 00 
    aa30:	66 c7 85 a4 fe ff ff 	movw   $0x8,-0x15c(%rbp)
    aa37:	08 00 
    aa39:	66 c7 85 a6 fe ff ff 	movw   $0x8,-0x15a(%rbp)
    aa40:	08 00 
    aa42:	66 c7 85 a8 fe ff ff 	movw   $0x8,-0x158(%rbp)
    aa49:	08 00 
    aa4b:	66 c7 85 aa fe ff ff 	movw   $0x8,-0x156(%rbp)
    aa52:	08 00 
    aa54:	66 c7 85 ac fe ff ff 	movw   $0x8,-0x154(%rbp)
    aa5b:	08 00 
    aa5d:	66 c7 85 ae fe ff ff 	movw   $0x8,-0x152(%rbp)
    aa64:	08 00 
    aa66:	c7 05 fc d5 00 00 00 	movl   $0x0,0xd5fc(%rip)        # 1806c <g_84>
    aa6d:	00 00 00 
    aa70:	90                   	nop
    aa71:	8b 05 f5 d5 00 00    	mov    0xd5f5(%rip),%eax        # 1806c <g_84>
    aa77:	85 c0                	test   %eax,%eax
    aa79:	78 5b                	js     aad6 <func_38+0x9cc>
    aa7b:	8b 05 e3 d5 00 00    	mov    0xd5e3(%rip),%eax        # 18064 <g_55>
    aa81:	8b 0d e1 fe 00 00    	mov    0xfee1(%rip),%ecx        # 1a968 <g_5>
    aa87:	8b 15 db fe 00 00    	mov    0xfedb(%rip),%edx        # 1a968 <g_5>
    aa8d:	83 c2 04             	add    $0x4,%edx
    aa90:	89 d6                	mov    %edx,%esi
    aa92:	48 98                	cltq   
    aa94:	89 ca                	mov    %ecx,%edx
    aa96:	48 01 c2             	add    %rax,%rdx
    aa99:	48 89 d0             	mov    %rdx,%rax
    aa9c:	48 c1 e0 03          	shl    $0x3,%rax
    aaa0:	48 29 d0             	sub    %rdx,%rax
    aaa3:	48 8d 14 30          	lea    (%rax,%rsi,1),%rdx
    aaa7:	48 8d 05 f2 d5 00 00 	lea    0xd5f2(%rip),%rax        # 180a0 <g_454>
    aaae:	48 01 d0             	add    %rdx,%rax
    aab1:	0f b6 00             	movzbl (%rax),%eax
    aab4:	84 c0                	test   %al,%al
    aab6:	75 1d                	jne    aad5 <func_38+0x9cb>
    aab8:	48 8b 05 91 f2 00 00 	mov    0xf291(%rip),%rax        # 19d50 <g_533>
    aabf:	48 8b 00             	mov    (%rax),%rax
    aac2:	48 c7 00 00 00 00 00 	movq   $0x0,(%rax)
    aac9:	0f be 85 5c fd ff ff 	movsbl -0x2a4(%rbp),%eax
    aad0:	e9 02 04 00 00       	jmpq   aed7 <func_38+0xdcd>
    aad5:	90                   	nop
    aad6:	66 c7 05 4d d6 00 00 	movw   $0x0,0xd64d(%rip)        # 1812c <g_639>
    aadd:	00 00 
    aadf:	90                   	nop
    aae0:	0f b7 05 45 d6 00 00 	movzwl 0xd645(%rip),%eax        # 1812c <g_639>
    aae7:	66 83 f8 2e          	cmp    $0x2e,%ax
    aaeb:	76 62                	jbe    ab4f <func_38+0xa45>
    aaed:	48 b8 60 e6 30 84 5a 	movabs $0x4845ac5a8430e660,%rax
    aaf4:	ac 45 48 
    aaf7:	48 89 85 e8 fd ff ff 	mov    %rax,-0x218(%rbp)
    aafe:	48 8b 05 6b f0 00 00 	mov    0xf06b(%rip),%rax        # 19b70 <g_182>
    ab05:	0f b7 00             	movzwl (%rax),%eax
    ab08:	0f b7 c0             	movzwl %ax,%eax
    ab0b:	be 01 00 00 00       	mov    $0x1,%esi
    ab10:	89 c7                	mov    %eax,%edi
    ab12:	e8 31 c3 ff ff       	callq  6e48 <safe_rshift_func_uint16_t_u_s>
    ab17:	48 8b 15 52 f0 00 00 	mov    0xf052(%rip),%rdx        # 19b70 <g_182>
    ab1e:	0f b7 12             	movzwl (%rdx),%edx
    ab21:	66 39 d0             	cmp    %dx,%ax
    ab24:	0f 97 c0             	seta   %al
    ab27:	0f b6 c8             	movzbl %al,%ecx
    ab2a:	48 8b 05 47 f2 00 00 	mov    0xf247(%rip),%rax        # 19d78 <g_692>
    ab31:	48 8b 00             	mov    (%rax),%rax
    ab34:	48 8b 00             	mov    (%rax),%rax
    ab37:	48 8b 00             	mov    (%rax),%rax
    ab3a:	8b 10                	mov    (%rax),%edx
    ab3c:	09 ca                	or     %ecx,%edx
    ab3e:	89 10                	mov    %edx,(%rax)
    ab40:	0f b6 05 42 d5 00 00 	movzbl 0xd542(%rip),%eax        # 18089 <g_308>
    ab47:	0f b6 c0             	movzbl %al,%eax
    ab4a:	e9 88 03 00 00       	jmpq   aed7 <func_38+0xdcd>
    ab4f:	48 c7 05 16 d6 00 00 	movq   $0x0,0xd616(%rip)        # 18170 <g_817>
    ab56:	00 00 00 00 
    ab5a:	e9 58 01 00 00       	jmpq   acb7 <func_38+0xbad>
    ab5f:	48 8d 05 62 d5 00 00 	lea    0xd562(%rip),%rax        # 180c8 <g_479>
    ab66:	48 89 85 e0 fd ff ff 	mov    %rax,-0x220(%rbp)
    ab6d:	48 8b 85 e0 fd ff ff 	mov    -0x220(%rbp),%rax
    ab74:	0f b7 00             	movzwl (%rax),%eax
    ab77:	89 c1                	mov    %eax,%ecx
    ab79:	8b 05 e5 d4 00 00    	mov    0xd4e5(%rip),%eax        # 18064 <g_55>
    ab7f:	83 c0 08             	add    $0x8,%eax
    ab82:	48 98                	cltq   
    ab84:	48 8d 14 c5 00 00 00 	lea    0x0(,%rax,8),%rdx
    ab8b:	00 
    ab8c:	48 8d 05 4d d5 00 00 	lea    0xd54d(%rip),%rax        # 180e0 <g_591>
    ab93:	48 8b 04 02          	mov    (%rdx,%rax,1),%rax
    ab97:	09 c8                	or     %ecx,%eax
    ab99:	89 c2                	mov    %eax,%edx
    ab9b:	48 8b 85 e0 fd ff ff 	mov    -0x220(%rbp),%rax
    aba2:	66 89 10             	mov    %dx,(%rax)
    aba5:	48 8b 85 e0 fd ff ff 	mov    -0x220(%rbp),%rax
    abac:	0f b7 00             	movzwl (%rax),%eax
    abaf:	98                   	cwtl   
    abb0:	be f7 ff ff ff       	mov    $0xfffffff7,%esi
    abb5:	89 c7                	mov    %eax,%edi
    abb7:	e8 f7 b7 ff ff       	callq  63b3 <safe_add_func_int16_t_s_s>
    abbc:	41 89 c5             	mov    %eax,%r13d
    abbf:	0f b6 85 5c fd ff ff 	movzbl -0x2a4(%rbp),%eax
    abc6:	0f b6 d8             	movzbl %al,%ebx
    abc9:	8b 85 94 fd ff ff    	mov    -0x26c(%rbp),%eax
    abcf:	44 0f be e0          	movsbl %al,%r12d
    abd3:	48 8b 05 96 d5 00 00 	mov    0xd596(%rip),%rax        # 18170 <g_817>
    abda:	48 83 c0 08          	add    $0x8,%rax
    abde:	48 8d 14 c5 00 00 00 	lea    0x0(,%rax,8),%rdx
    abe5:	00 
    abe6:	48 8d 05 f3 d4 00 00 	lea    0xd4f3(%rip),%rax        # 180e0 <g_591>
    abed:	48 8b 14 02          	mov    (%rdx,%rax,1),%rdx
    abf1:	0f b6 8d 68 fd ff ff 	movzbl -0x298(%rbp),%ecx
    abf8:	0f be 85 5c fd ff ff 	movsbl -0x2a4(%rbp),%eax
    abff:	21 c8                	and    %ecx,%eax
    ac01:	48 98                	cltq   
    ac03:	48 21 d0             	and    %rdx,%rax
    ac06:	48 83 f8 03          	cmp    $0x3,%rax
    ac0a:	0f 96 c0             	setbe  %al
    ac0d:	44 0f b6 f0          	movzbl %al,%r14d
    ac11:	be 01 00 00 00       	mov    $0x1,%esi
    ac16:	bf 00 00 00 00       	mov    $0x0,%edi
    ac1b:	e8 ac ba ff ff       	callq  66cc <safe_mod_func_int32_t_s_s>
    ac20:	0f be c0             	movsbl %al,%eax
    ac23:	be f9 ff ff ff       	mov    $0xfffffff9,%esi
    ac28:	89 c7                	mov    %eax,%edi
    ac2a:	e8 e3 b5 ff ff       	callq  6212 <safe_mul_func_int8_t_s_s>
    ac2f:	0f be c0             	movsbl %al,%eax
    ac32:	44 89 f2             	mov    %r14d,%edx
    ac35:	09 c2                	or     %eax,%edx
    ac37:	0f b7 85 44 fe ff ff 	movzwl -0x1bc(%rbp),%eax
    ac3e:	0f b7 c0             	movzwl %ax,%eax
    ac41:	39 c2                	cmp    %eax,%edx
    ac43:	0f 9d c0             	setge  %al
    ac46:	0f b6 c0             	movzbl %al,%eax
    ac49:	39 85 98 fd ff ff    	cmp    %eax,-0x268(%rbp)
    ac4f:	0f 9e c0             	setle  %al
    ac52:	0f b6 c0             	movzbl %al,%eax
    ac55:	44 89 e6             	mov    %r12d,%esi
    ac58:	89 c7                	mov    %eax,%edi
    ac5a:	e8 0b b6 ff ff       	callq  626a <safe_div_func_int8_t_s_s>
    ac5f:	0f b6 c0             	movzbl %al,%eax
    ac62:	89 de                	mov    %ebx,%esi
    ac64:	89 c7                	mov    %eax,%edi
    ac66:	e8 28 bf ff ff       	callq  6b93 <safe_mul_func_uint8_t_u_u>
    ac6b:	0f b7 05 e6 d3 00 00 	movzwl 0xd3e6(%rip),%eax        # 18058 <g_54+0x18>
    ac72:	44 31 e8             	xor    %r13d,%eax
    ac75:	66 89 05 dc d3 00 00 	mov    %ax,0xd3dc(%rip)        # 18058 <g_54+0x18>
    ac7c:	0f b7 05 d5 d3 00 00 	movzwl 0xd3d5(%rip),%eax        # 18058 <g_54+0x18>
    ac83:	66 85 c0             	test   %ax,%ax
    ac86:	0f be 85 5c fd ff ff 	movsbl -0x2a4(%rbp),%eax
    ac8d:	39 85 7c fd ff ff    	cmp    %eax,-0x284(%rbp)
    ac93:	0f 93 c2             	setae  %dl
    ac96:	48 8b 05 ab f0 00 00 	mov    0xf0ab(%rip),%rax        # 19d48 <g_534>
    ac9d:	48 8b 00             	mov    (%rax),%rax
    aca0:	0f b6 d2             	movzbl %dl,%edx
    aca3:	89 10                	mov    %edx,(%rax)
    aca5:	48 8b 05 c4 d4 00 00 	mov    0xd4c4(%rip),%rax        # 18170 <g_817>
    acac:	48 83 c0 01          	add    $0x1,%rax
    acb0:	48 89 05 b9 d4 00 00 	mov    %rax,0xd4b9(%rip)        # 18170 <g_817>
    acb7:	48 8b 05 b2 d4 00 00 	mov    0xd4b2(%rip),%rax        # 18170 <g_817>
    acbe:	48 85 c0             	test   %rax,%rax
    acc1:	0f 8e 98 fe ff ff    	jle    ab5f <func_38+0xa55>
    acc7:	8b 05 bf d3 00 00    	mov    0xd3bf(%rip),%eax        # 1808c <g_355>
    accd:	83 c0 01             	add    $0x1,%eax
    acd0:	89 05 b6 d3 00 00    	mov    %eax,0xd3b6(%rip)        # 1808c <g_355>
    acd6:	8b 05 b0 d3 00 00    	mov    0xd3b0(%rip),%eax        # 1808c <g_355>
    acdc:	85 c0                	test   %eax,%eax
    acde:	0f 84 8a fb ff ff    	je     a86e <func_38+0x764>
    ace4:	0f b6 05 9d d3 00 00 	movzbl 0xd39d(%rip),%eax        # 18088 <g_217>
    aceb:	83 c0 01             	add    $0x1,%eax
    acee:	88 05 94 d3 00 00    	mov    %al,0xd394(%rip)        # 18088 <g_217>
    acf4:	0f b6 05 8d d3 00 00 	movzbl 0xd38d(%rip),%eax        # 18088 <g_217>
    acfb:	84 c0                	test   %al,%al
    acfd:	0f 8e 45 fb ff ff    	jle    a848 <func_38+0x73e>
    ad03:	8b 05 5b d3 00 00    	mov    0xd35b(%rip),%eax        # 18064 <g_55>
    ad09:	83 c0 01             	add    $0x1,%eax
    ad0c:	89 05 52 d3 00 00    	mov    %eax,0xd352(%rip)        # 18064 <g_55>
    ad12:	8b 05 4c d3 00 00    	mov    0xd34c(%rip),%eax        # 18064 <g_55>
    ad18:	85 c0                	test   %eax,%eax
    ad1a:	0f 8e 1d fa ff ff    	jle    a73d <func_38+0x633>
    ad20:	8b 05 42 fc 00 00    	mov    0xfc42(%rip),%eax        # 1a968 <g_5>
    ad26:	83 c0 01             	add    $0x1,%eax
    ad29:	89 05 39 fc 00 00    	mov    %eax,0xfc39(%rip)        # 1a968 <g_5>
    ad2f:	8b 05 33 fc 00 00    	mov    0xfc33(%rip),%eax        # 1a968 <g_5>
    ad35:	85 c0                	test   %eax,%eax
    ad37:	0f 84 bf f4 ff ff    	je     a1fc <func_38+0xf2>
    ad3d:	c6 85 6c fd ff ff 03 	movb   $0x3,-0x294(%rbp)
    ad44:	e9 61 01 00 00       	jmpq   aeaa <func_38+0xda0>
    ad49:	48 8d 05 18 f0 00 00 	lea    0xf018(%rip),%rax        # 19d68 <g_654>
    ad50:	48 89 85 b0 fd ff ff 	mov    %rax,-0x250(%rbp)
    ad57:	48 8d 05 6e d3 00 00 	lea    0xd36e(%rip),%rax        # 180cc <g_481>
    ad5e:	48 89 85 b8 fd ff ff 	mov    %rax,-0x248(%rbp)
    ad65:	c7 85 9c fd ff ff 73 	movl   $0xa23a9973,-0x264(%rbp)
    ad6c:	99 3a a2 
    ad6f:	48 8d 85 74 fd ff ff 	lea    -0x28c(%rbp),%rax
    ad76:	48 89 85 c0 fd ff ff 	mov    %rax,-0x240(%rbp)
    ad7d:	83 bd 8c fd ff ff 00 	cmpl   $0x0,-0x274(%rbp)
    ad84:	74 05                	je     ad8b <func_38+0xc81>
    ad86:	e9 62 f4 ff ff       	jmpq   a1ed <func_38+0xe3>
    ad8b:	8b 05 e7 d3 00 00    	mov    0xd3e7(%rip),%eax        # 18178 <g_872>
    ad91:	48 8b 85 50 fd ff ff 	mov    -0x2b0(%rbp),%rax
    ad98:	0f b6 d8             	movzbl %al,%ebx
    ad9b:	0f b6 85 6c fd ff ff 	movzbl -0x294(%rbp),%eax
    ada2:	48 98                	cltq   
    ada4:	48 8d 14 c5 00 00 00 	lea    0x0(,%rax,8),%rdx
    adab:	00 
    adac:	48 8d 05 2d d3 00 00 	lea    0xd32d(%rip),%rax        # 180e0 <g_591>
    adb3:	4c 8b 24 02          	mov    (%rdx,%rax,1),%r12
    adb7:	48 8b 05 a2 ed 00 00 	mov    0xeda2(%rip),%rax        # 19b60 <g_68>
    adbe:	c6 00 b3             	movb   $0xb3,(%rax)
    adc1:	be 01 00 00 00       	mov    $0x1,%esi
    adc6:	bf b3 ff ff ff       	mov    $0xffffffb3,%edi
    adcb:	e8 04 b4 ff ff       	callq  61d4 <safe_add_func_int8_t_s_s>
    add0:	44 0f be e8          	movsbl %al,%r13d
    add4:	0f b6 85 6c fd ff ff 	movzbl -0x294(%rbp),%eax
    addb:	48 98                	cltq   
    addd:	48 8d 14 c5 00 00 00 	lea    0x0(,%rax,8),%rdx
    ade4:	00 
    ade5:	48 8d 05 f4 d2 00 00 	lea    0xd2f4(%rip),%rax        # 180e0 <g_591>
    adec:	48 8b 04 02          	mov    (%rdx,%rax,1),%rax
    adf0:	89 c2                	mov    %eax,%edx
    adf2:	48 83 bd b8 fd ff ff 	cmpq   $0x0,-0x248(%rbp)
    adf9:	00 
    adfa:	0f 95 c0             	setne  %al
    adfd:	0f b6 c0             	movzbl %al,%eax
    ae00:	89 d6                	mov    %edx,%esi
    ae02:	89 c7                	mov    %eax,%edi
    ae04:	e8 c3 b8 ff ff       	callq  66cc <safe_mod_func_int32_t_s_s>
    ae09:	85 c0                	test   %eax,%eax
    ae0b:	75 0b                	jne    ae18 <func_38+0xd0e>
    ae0d:	0f b6 05 b2 d2 00 00 	movzbl 0xd2b2(%rip),%eax        # 180c6 <g_458>
    ae14:	84 c0                	test   %al,%al
    ae16:	74 07                	je     ae1f <func_38+0xd15>
    ae18:	b8 01 00 00 00       	mov    $0x1,%eax
    ae1d:	eb 05                	jmp    ae24 <func_38+0xd1a>
    ae1f:	b8 00 00 00 00       	mov    $0x0,%eax
    ae24:	44 39 e8             	cmp    %r13d,%eax
    ae27:	0f 9e c0             	setle  %al
    ae2a:	0f b6 c0             	movzbl %al,%eax
    ae2d:	49 39 c4             	cmp    %rax,%r12
    ae30:	0f 92 c0             	setb   %al
    ae33:	0f b6 c0             	movzbl %al,%eax
    ae36:	89 de                	mov    %ebx,%esi
    ae38:	89 c7                	mov    %eax,%edi
    ae3a:	e8 1b bd ff ff       	callq  6b5a <safe_add_func_uint8_t_u_u>
    ae3f:	0f b6 c0             	movzbl %al,%eax
    ae42:	89 85 9c fd ff ff    	mov    %eax,-0x264(%rbp)
    ae48:	0f b6 85 68 fd ff ff 	movzbl -0x298(%rbp),%eax
    ae4f:	33 85 9c fd ff ff    	xor    -0x264(%rbp),%eax
    ae55:	48 63 d0             	movslq %eax,%rdx
    ae58:	0f b6 85 6c fd ff ff 	movzbl -0x294(%rbp),%eax
    ae5f:	48 98                	cltq   
    ae61:	48 8d 0c c5 00 00 00 	lea    0x0(,%rax,8),%rcx
    ae68:	00 
    ae69:	48 8d 05 70 d2 00 00 	lea    0xd270(%rip),%rax        # 180e0 <g_591>
    ae70:	48 8b 04 01          	mov    (%rcx,%rax,1),%rax
    ae74:	48 39 c2             	cmp    %rax,%rdx
    ae77:	0f 97 c0             	seta   %al
    ae7a:	0f b6 d0             	movzbl %al,%edx
    ae7d:	48 8b 85 c0 fd ff ff 	mov    -0x240(%rbp),%rax
    ae84:	89 10                	mov    %edx,(%rax)
    ae86:	48 8b 85 c0 fd ff ff 	mov    -0x240(%rbp),%rax
    ae8d:	8b 10                	mov    (%rax),%edx
    ae8f:	48 8b 85 60 fd ff ff 	mov    -0x2a0(%rbp),%rax
    ae96:	8b 00                	mov    (%rax),%eax
    ae98:	09 c2                	or     %eax,%edx
    ae9a:	48 8b 85 c0 fd ff ff 	mov    -0x240(%rbp),%rax
    aea1:	89 10                	mov    %edx,(%rax)
    aea3:	80 85 6c fd ff ff 01 	addb   $0x1,-0x294(%rbp)
    aeaa:	80 bd 6c fd ff ff 08 	cmpb   $0x8,-0x294(%rbp)
    aeb1:	0f 86 92 fe ff ff    	jbe    ad49 <func_38+0xc3f>
    aeb7:	48 8d 05 b2 fa 00 00 	lea    0xfab2(%rip),%rax        # 1a970 <g_171>
    aebe:	48 39 85 a0 fd ff ff 	cmp    %rax,-0x260(%rbp)
    aec5:	0f 95 c0             	setne  %al
    aec8:	0f b6 c0             	movzbl %al,%eax
    aecb:	89 05 5f d2 00 00    	mov    %eax,0xd25f(%rip)        # 18130 <g_651>
    aed1:	8b 05 95 d1 00 00    	mov    0xd195(%rip),%eax        # 1806c <g_84>
    aed7:	48 8b 5d d8          	mov    -0x28(%rbp),%rbx
    aedb:	64 48 33 1c 25 28 00 	xor    %fs:0x28,%rbx
    aee2:	00 00 
    aee4:	74 05                	je     aeeb <func_38+0xde1>
    aee6:	e8 85 b1 ff ff       	callq  6070 <__stack_chk_fail@plt>
    aeeb:	48 81 c4 90 02 00 00 	add    $0x290,%rsp
    aef2:	5b                   	pop    %rbx
    aef3:	41 5c                	pop    %r12
    aef5:	41 5d                	pop    %r13
    aef7:	41 5e                	pop    %r14
    aef9:	5d                   	pop    %rbp
    aefa:	c3                   	retq   

000000000000aefb <func_44>:
    aefb:	f3 0f 1e fa          	endbr64 
    aeff:	55                   	push   %rbp
    af00:	48 89 e5             	mov    %rsp,%rbp
    af03:	48 81 ec 90 01 00 00 	sub    $0x190,%rsp
    af0a:	89 bd 8c fe ff ff    	mov    %edi,-0x174(%rbp)
    af10:	48 89 b5 80 fe ff ff 	mov    %rsi,-0x180(%rbp)
    af17:	48 89 95 78 fe ff ff 	mov    %rdx,-0x188(%rbp)
    af1e:	48 89 8d 70 fe ff ff 	mov    %rcx,-0x190(%rbp)
    af25:	64 48 8b 04 25 28 00 	mov    %fs:0x28,%rax
    af2c:	00 00 
    af2e:	48 89 45 f8          	mov    %rax,-0x8(%rbp)
    af32:	31 c0                	xor    %eax,%eax
    af34:	48 8d 85 d0 fe ff ff 	lea    -0x130(%rbp),%rax
    af3b:	48 8d 15 1e d5 00 00 	lea    0xd51e(%rip),%rdx        # 18460 <g_1479+0x1a0>
    af42:	b9 24 00 00 00       	mov    $0x24,%ecx
    af47:	48 89 c7             	mov    %rax,%rdi
    af4a:	48 89 d6             	mov    %rdx,%rsi
    af4d:	f3 48 a5             	rep movsq %ds:(%rsi),%es:(%rdi)
    af50:	48 8d 05 11 fa 00 00 	lea    0xfa11(%rip),%rax        # 1a968 <g_5>
    af57:	48 89 85 90 fe ff ff 	mov    %rax,-0x170(%rbp)
    af5e:	48 b8 b7 be 27 e0 8b 	movabs $0x3596828be027beb7,%rax
    af65:	82 96 35 
    af68:	48 89 85 98 fe ff ff 	mov    %rax,-0x168(%rbp)
    af6f:	48 c7 85 a0 fe ff ff 	movq   $0x0,-0x160(%rbp)
    af76:	00 00 00 00 
    af7a:	48 c7 85 a8 fe ff ff 	movq   $0x0,-0x158(%rbp)
    af81:	00 00 00 00 
    af85:	48 8d 05 dc d1 00 00 	lea    0xd1dc(%rip),%rax        # 18168 <g_815>
    af8c:	48 89 85 b0 fe ff ff 	mov    %rax,-0x150(%rbp)
    af93:	48 8d 05 d6 d1 00 00 	lea    0xd1d6(%rip),%rax        # 18170 <g_817>
    af9a:	48 89 85 b8 fe ff ff 	mov    %rax,-0x148(%rbp)
    afa1:	48 8d 05 e4 d0 00 00 	lea    0xd0e4(%rip),%rax        # 1808c <g_355>
    afa8:	48 89 85 c0 fe ff ff 	mov    %rax,-0x140(%rbp)
    afaf:	48 8d 05 ce d0 00 00 	lea    0xd0ce(%rip),%rax        # 18084 <g_194>
    afb6:	48 89 85 c8 fe ff ff 	mov    %rax,-0x138(%rbp)
    afbd:	48 8d 05 a4 ed 00 00 	lea    0xeda4(%rip),%rax        # 19d68 <g_654>
    afc4:	48 39 85 a0 fe ff ff 	cmp    %rax,-0x160(%rbp)
    afcb:	0f 95 c0             	setne  %al
    afce:	0f b6 c0             	movzbl %al,%eax
    afd1:	89 c6                	mov    %eax,%esi
    afd3:	bf 00 00 00 00       	mov    $0x0,%edi
    afd8:	e8 29 be ff ff       	callq  6e06 <safe_lshift_func_uint16_t_u_u>
    afdd:	0f b7 c0             	movzwl %ax,%eax
    afe0:	48 89 c7             	mov    %rax,%rdi
    afe3:	e8 2e b8 ff ff       	callq  6816 <safe_unary_minus_func_int64_t_s>
    afe8:	48 8b 95 78 fe ff ff 	mov    -0x188(%rbp),%rdx
    afef:	48 8b 85 b0 fe ff ff 	mov    -0x150(%rbp),%rax
    aff6:	48 8b 00             	mov    (%rax),%rax
    aff9:	48 31 d0             	xor    %rdx,%rax
    affc:	48 89 c2             	mov    %rax,%rdx
    afff:	48 8b 85 b0 fe ff ff 	mov    -0x150(%rbp),%rax
    b006:	48 89 10             	mov    %rdx,(%rax)
    b009:	48 8b 85 b0 fe ff ff 	mov    -0x150(%rbp),%rax
    b010:	48 8b 10             	mov    (%rax),%rdx
    b013:	48 8b 85 b8 fe ff ff 	mov    -0x148(%rbp),%rax
    b01a:	48 89 10             	mov    %rdx,(%rax)
    b01d:	48 8b 85 b8 fe ff ff 	mov    -0x148(%rbp),%rax
    b024:	48 8b 00             	mov    (%rax),%rax
    b027:	48 ba 82 88 2b ea 2b 	movabs $0x63985f2bea2b8882,%rdx
    b02e:	5f 98 63 
    b031:	48 39 d0             	cmp    %rdx,%rax
    b034:	0f 95 c0             	setne  %al
    b037:	0f b6 d0             	movzbl %al,%edx
    b03a:	48 8b 85 c0 fe ff ff 	mov    -0x140(%rbp),%rax
    b041:	8b 00                	mov    (%rax),%eax
    b043:	21 c2                	and    %eax,%edx
    b045:	48 8b 85 c0 fe ff ff 	mov    -0x140(%rbp),%rax
    b04c:	89 10                	mov    %edx,(%rax)
    b04e:	48 8b 85 c0 fe ff ff 	mov    -0x140(%rbp),%rax
    b055:	8b 10                	mov    (%rax),%edx
    b057:	48 8b 85 c8 fe ff ff 	mov    -0x138(%rbp),%rax
    b05e:	8b 00                	mov    (%rax),%eax
    b060:	09 c2                	or     %eax,%edx
    b062:	48 8b 85 c8 fe ff ff 	mov    -0x138(%rbp),%rax
    b069:	89 10                	mov    %edx,(%rax)
    b06b:	48 8b 85 c8 fe ff ff 	mov    -0x138(%rbp),%rax
    b072:	8b 00                	mov    (%rax),%eax
    b074:	85 c0                	test   %eax,%eax
    b076:	74 07                	je     b07f <func_44+0x184>
    b078:	b8 01 00 00 00       	mov    $0x1,%eax
    b07d:	eb 05                	jmp    b084 <func_44+0x189>
    b07f:	b8 00 00 00 00       	mov    $0x0,%eax
    b084:	83 f8 ff             	cmp    $0xffffffff,%eax
    b087:	0f 95 c0             	setne  %al
    b08a:	0f b6 d0             	movzbl %al,%edx
    b08d:	48 8b 05 c4 ec 00 00 	mov    0xecc4(%rip),%rax        # 19d58 <g_637>
    b094:	48 8b 00             	mov    (%rax),%rax
    b097:	48 89 d6             	mov    %rdx,%rsi
    b09a:	48 89 c7             	mov    %rax,%rdi
    b09d:	e8 9f b7 ff ff       	callq  6841 <safe_add_func_int64_t_s_s>
    b0a2:	48 8b 95 70 fe ff ff 	mov    -0x190(%rbp),%rdx
    b0a9:	8b 12                	mov    (%rdx),%edx
    b0ab:	31 c2                	xor    %eax,%edx
    b0ad:	48 8b 85 70 fe ff ff 	mov    -0x190(%rbp),%rax
    b0b4:	89 10                	mov    %edx,(%rax)
    b0b6:	0f b7 05 93 d0 00 00 	movzwl 0xd093(%rip),%eax        # 18150 <g_658+0x10>
    b0bd:	0f b7 c0             	movzwl %ax,%eax
    b0c0:	48 8b 4d f8          	mov    -0x8(%rbp),%rcx
    b0c4:	64 48 33 0c 25 28 00 	xor    %fs:0x28,%rcx
    b0cb:	00 00 
    b0cd:	74 05                	je     b0d4 <func_44+0x1d9>
    b0cf:	e8 9c af ff ff       	callq  6070 <__stack_chk_fail@plt>
    b0d4:	c9                   	leaveq 
    b0d5:	c3                   	retq   

000000000000b0d6 <func_52>:
    b0d6:	f3 0f 1e fa          	endbr64 
    b0da:	55                   	push   %rbp
    b0db:	48 89 e5             	mov    %rsp,%rbp
    b0de:	41 57                	push   %r15
    b0e0:	41 56                	push   %r14
    b0e2:	41 55                	push   %r13
    b0e4:	41 54                	push   %r12
    b0e6:	53                   	push   %rbx
    b0e7:	48 81 ec 00 10 00 00 	sub    $0x1000,%rsp
    b0ee:	48 83 0c 24 00       	orq    $0x0,(%rsp)
    b0f3:	48 81 ec 18 02 00 00 	sub    $0x218,%rsp
    b0fa:	48 89 bd c8 ed ff ff 	mov    %rdi,-0x1238(%rbp)
    b101:	64 48 8b 04 25 28 00 	mov    %fs:0x28,%rax
    b108:	00 00 
    b10a:	48 89 45 c8          	mov    %rax,-0x38(%rbp)
    b10e:	31 c0                	xor    %eax,%eax
    b110:	c7 85 28 ee ff ff 99 	movl   $0x86c3ce99,-0x11d8(%rbp)
    b117:	ce c3 86 
    b11a:	48 8d 05 57 cf 00 00 	lea    0xcf57(%rip),%rax        # 18078 <g_172>
    b121:	48 89 85 a0 ee ff ff 	mov    %rax,-0x1160(%rbp)
    b128:	48 8d 05 49 ea 00 00 	lea    0xea49(%rip),%rax        # 19b78 <g_317>
    b12f:	48 89 85 e0 f1 ff ff 	mov    %rax,-0xe20(%rbp)
    b136:	48 c7 85 e8 f1 ff ff 	movq   $0x0,-0xe18(%rbp)
    b13d:	00 00 00 00 
    b141:	48 c7 85 f0 f1 ff ff 	movq   $0x0,-0xe10(%rbp)
    b148:	00 00 00 00 
    b14c:	48 8d 05 25 ea 00 00 	lea    0xea25(%rip),%rax        # 19b78 <g_317>
    b153:	48 89 85 f8 f1 ff ff 	mov    %rax,-0xe08(%rbp)
    b15a:	48 c7 85 00 f2 ff ff 	movq   $0x0,-0xe00(%rbp)
    b161:	00 00 00 00 
    b165:	48 8d 05 0c ea 00 00 	lea    0xea0c(%rip),%rax        # 19b78 <g_317>
    b16c:	48 89 85 08 f2 ff ff 	mov    %rax,-0xdf8(%rbp)
    b173:	48 8d 05 fe e9 00 00 	lea    0xe9fe(%rip),%rax        # 19b78 <g_317>
    b17a:	48 89 85 10 f2 ff ff 	mov    %rax,-0xdf0(%rbp)
    b181:	48 8d 05 f0 e9 00 00 	lea    0xe9f0(%rip),%rax        # 19b78 <g_317>
    b188:	48 89 85 18 f2 ff ff 	mov    %rax,-0xde8(%rbp)
    b18f:	48 8d 05 e2 e9 00 00 	lea    0xe9e2(%rip),%rax        # 19b78 <g_317>
    b196:	48 89 85 20 f2 ff ff 	mov    %rax,-0xde0(%rbp)
    b19d:	48 8d 05 d4 e9 00 00 	lea    0xe9d4(%rip),%rax        # 19b78 <g_317>
    b1a4:	48 89 85 28 f2 ff ff 	mov    %rax,-0xdd8(%rbp)
    b1ab:	48 8d 05 c6 e9 00 00 	lea    0xe9c6(%rip),%rax        # 19b78 <g_317>
    b1b2:	48 89 85 30 f2 ff ff 	mov    %rax,-0xdd0(%rbp)
    b1b9:	48 8d 05 b8 e9 00 00 	lea    0xe9b8(%rip),%rax        # 19b78 <g_317>
    b1c0:	48 89 85 38 f2 ff ff 	mov    %rax,-0xdc8(%rbp)
    b1c7:	48 8d 05 aa e9 00 00 	lea    0xe9aa(%rip),%rax        # 19b78 <g_317>
    b1ce:	48 89 85 40 f2 ff ff 	mov    %rax,-0xdc0(%rbp)
    b1d5:	48 8d 05 9c e9 00 00 	lea    0xe99c(%rip),%rax        # 19b78 <g_317>
    b1dc:	48 89 85 48 f2 ff ff 	mov    %rax,-0xdb8(%rbp)
    b1e3:	48 8d 05 8e e9 00 00 	lea    0xe98e(%rip),%rax        # 19b78 <g_317>
    b1ea:	48 89 85 50 f2 ff ff 	mov    %rax,-0xdb0(%rbp)
    b1f1:	48 c7 85 58 f2 ff ff 	movq   $0x0,-0xda8(%rbp)
    b1f8:	00 00 00 00 
    b1fc:	48 8d 05 75 e9 00 00 	lea    0xe975(%rip),%rax        # 19b78 <g_317>
    b203:	48 89 85 60 f2 ff ff 	mov    %rax,-0xda0(%rbp)
    b20a:	48 c7 85 68 f2 ff ff 	movq   $0x0,-0xd98(%rbp)
    b211:	00 00 00 00 
    b215:	48 c7 85 70 f2 ff ff 	movq   $0x0,-0xd90(%rbp)
    b21c:	00 00 00 00 
    b220:	48 8d 05 51 e9 00 00 	lea    0xe951(%rip),%rax        # 19b78 <g_317>
    b227:	48 89 85 78 f2 ff ff 	mov    %rax,-0xd88(%rbp)
    b22e:	48 8d 05 43 e9 00 00 	lea    0xe943(%rip),%rax        # 19b78 <g_317>
    b235:	48 89 85 80 f2 ff ff 	mov    %rax,-0xd80(%rbp)
    b23c:	48 8d 05 35 e9 00 00 	lea    0xe935(%rip),%rax        # 19b78 <g_317>
    b243:	48 89 85 88 f2 ff ff 	mov    %rax,-0xd78(%rbp)
    b24a:	48 c7 85 90 f2 ff ff 	movq   $0x0,-0xd70(%rbp)
    b251:	00 00 00 00 
    b255:	48 c7 85 98 f2 ff ff 	movq   $0x0,-0xd68(%rbp)
    b25c:	00 00 00 00 
    b260:	48 8d 85 e0 f1 ff ff 	lea    -0xe20(%rbp),%rax
    b267:	48 83 c0 20          	add    $0x20,%rax
    b26b:	48 89 85 d8 ee ff ff 	mov    %rax,-0x1128(%rbp)
    b272:	48 c7 85 a8 ee ff ff 	movq   $0x0,-0x1158(%rbp)
    b279:	00 00 00 00 
    b27d:	48 8d 85 a8 ee ff ff 	lea    -0x1158(%rbp),%rax
    b284:	48 89 85 e0 ee ff ff 	mov    %rax,-0x1120(%rbp)
    b28b:	48 8d 85 30 f0 ff ff 	lea    -0xfd0(%rbp),%rax
    b292:	48 83 c0 08          	add    $0x8,%rax
    b296:	48 89 85 b0 ee ff ff 	mov    %rax,-0x1150(%rbp)
    b29d:	48 8d 05 b0 6d 00 00 	lea    0x6db0(%rip),%rax        # 12054 <g_797>
    b2a4:	48 89 85 e8 ee ff ff 	mov    %rax,-0x1118(%rbp)
    b2ab:	48 8d 05 16 ce 00 00 	lea    0xce16(%rip),%rax        # 180c8 <g_479>
    b2b2:	48 89 85 b8 ee ff ff 	mov    %rax,-0x1148(%rbp)
    b2b9:	48 8d 05 d0 cd 00 00 	lea    0xcdd0(%rip),%rax        # 18090 <g_426>
    b2c0:	48 89 85 c0 ee ff ff 	mov    %rax,-0x1140(%rbp)
    b2c7:	48 8d 85 c0 ee ff ff 	lea    -0x1140(%rbp),%rax
    b2ce:	48 89 85 f0 ee ff ff 	mov    %rax,-0x1110(%rbp)
    b2d5:	c7 85 fc ed ff ff 00 	movl   $0x0,-0x1204(%rbp)
    b2dc:	00 00 00 
    b2df:	eb 1a                	jmp    b2fb <func_52+0x225>
    b2e1:	8b 85 fc ed ff ff    	mov    -0x1204(%rbp),%eax
    b2e7:	48 98                	cltq   
    b2e9:	c7 84 85 04 f0 ff ff 	movl   $0x4,-0xffc(%rbp,%rax,4)
    b2f0:	04 00 00 00 
    b2f4:	83 85 fc ed ff ff 01 	addl   $0x1,-0x1204(%rbp)
    b2fb:	83 bd fc ed ff ff 02 	cmpl   $0x2,-0x1204(%rbp)
    b302:	7e dd                	jle    b2e1 <func_52+0x20b>
    b304:	c7 85 fc ed ff ff 00 	movl   $0x0,-0x1204(%rbp)
    b30b:	00 00 00 
    b30e:	eb 1b                	jmp    b32b <func_52+0x255>
    b310:	8b 85 fc ed ff ff    	mov    -0x1204(%rbp),%eax
    b316:	48 98                	cltq   
    b318:	48 c7 84 c5 30 f0 ff 	movq   $0x0,-0xfd0(%rbp,%rax,8)
    b31f:	ff 00 00 00 00 
    b324:	83 85 fc ed ff ff 01 	addl   $0x1,-0x1204(%rbp)
    b32b:	83 bd fc ed ff ff 02 	cmpl   $0x2,-0x1204(%rbp)
    b332:	7e dc                	jle    b310 <func_52+0x23a>
    b334:	c7 05 26 cd 00 00 02 	movl   $0x2,0xcd26(%rip)        # 18064 <g_55>
    b33b:	00 00 00 
    b33e:	e9 7a 35 00 00       	jmpq   e8bd <func_52+0x37e7>
    b343:	c7 85 d0 f0 ff ff 45 	movl   $0x56a32945,-0xf30(%rbp)
    b34a:	29 a3 56 
    b34d:	c7 85 d4 f0 ff ff f7 	movl   $0xfffffff7,-0xf2c(%rbp)
    b354:	ff ff ff 
    b357:	c7 85 d8 f0 ff ff ac 	movl   $0x71b2a7ac,-0xf28(%rbp)
    b35e:	a7 b2 71 
    b361:	c7 85 dc f0 ff ff fa 	movl   $0xfffffffa,-0xf24(%rbp)
    b368:	ff ff ff 
    b36b:	c7 85 e0 f0 ff ff fa 	movl   $0xfffffffa,-0xf20(%rbp)
    b372:	ff ff ff 
    b375:	c7 85 e4 f0 ff ff 4e 	movl   $0xfbd7c4e,-0xf1c(%rbp)
    b37c:	7c bd 0f 
    b37f:	c7 85 e8 f0 ff ff 45 	movl   $0x56a32945,-0xf18(%rbp)
    b386:	29 a3 56 
    b389:	c7 85 ec f0 ff ff f7 	movl   $0xfffffff7,-0xf14(%rbp)
    b390:	ff ff ff 
    b393:	c7 85 f0 f0 ff ff ac 	movl   $0x71b2a7ac,-0xf10(%rbp)
    b39a:	a7 b2 71 
    b39d:	c7 85 f4 f0 ff ff fa 	movl   $0xfffffffa,-0xf0c(%rbp)
    b3a4:	ff ff ff 
    b3a7:	c7 85 f8 f0 ff ff fa 	movl   $0xfffffffa,-0xf08(%rbp)
    b3ae:	ff ff ff 
    b3b1:	c7 85 fc f0 ff ff 4e 	movl   $0xfbd7c4e,-0xf04(%rbp)
    b3b8:	7c bd 0f 
    b3bb:	c7 85 00 f1 ff ff 45 	movl   $0x56a32945,-0xf00(%rbp)
    b3c2:	29 a3 56 
    b3c5:	c7 85 04 f1 ff ff f7 	movl   $0xfffffff7,-0xefc(%rbp)
    b3cc:	ff ff ff 
    b3cf:	c7 85 08 f1 ff ff ac 	movl   $0x71b2a7ac,-0xef8(%rbp)
    b3d6:	a7 b2 71 
    b3d9:	c7 85 0c f1 ff ff fa 	movl   $0xfffffffa,-0xef4(%rbp)
    b3e0:	ff ff ff 
    b3e3:	c7 85 10 f1 ff ff fa 	movl   $0xfffffffa,-0xef0(%rbp)
    b3ea:	ff ff ff 
    b3ed:	c7 85 14 f1 ff ff 4e 	movl   $0xfbd7c4e,-0xeec(%rbp)
    b3f4:	7c bd 0f 
    b3f7:	c7 85 18 f1 ff ff 45 	movl   $0x56a32945,-0xee8(%rbp)
    b3fe:	29 a3 56 
    b401:	c7 85 1c f1 ff ff f7 	movl   $0xfffffff7,-0xee4(%rbp)
    b408:	ff ff ff 
    b40b:	c7 85 20 f1 ff ff ac 	movl   $0x71b2a7ac,-0xee0(%rbp)
    b412:	a7 b2 71 
    b415:	c7 85 24 f1 ff ff fa 	movl   $0xfffffffa,-0xedc(%rbp)
    b41c:	ff ff ff 
    b41f:	c7 85 28 f1 ff ff fa 	movl   $0xfffffffa,-0xed8(%rbp)
    b426:	ff ff ff 
    b429:	c7 85 2c f1 ff ff 4e 	movl   $0xfbd7c4e,-0xed4(%rbp)
    b430:	7c bd 0f 
    b433:	c7 85 30 f1 ff ff 45 	movl   $0x56a32945,-0xed0(%rbp)
    b43a:	29 a3 56 
    b43d:	c7 85 34 f1 ff ff f7 	movl   $0xfffffff7,-0xecc(%rbp)
    b444:	ff ff ff 
    b447:	c7 85 38 f1 ff ff ac 	movl   $0x71b2a7ac,-0xec8(%rbp)
    b44e:	a7 b2 71 
    b451:	c7 85 3c f1 ff ff fa 	movl   $0xfffffffa,-0xec4(%rbp)
    b458:	ff ff ff 
    b45b:	c7 85 40 f1 ff ff fa 	movl   $0xfffffffa,-0xec0(%rbp)
    b462:	ff ff ff 
    b465:	c7 85 44 f1 ff ff 4e 	movl   $0xfbd7c4e,-0xebc(%rbp)
    b46c:	7c bd 0f 
    b46f:	48 c7 85 c8 ee ff ff 	movq   $0x0,-0x1138(%rbp)
    b476:	00 00 00 00 
    b47a:	c7 85 e8 ed ff ff 32 	movl   $0xc398c032,-0x1218(%rbp)
    b481:	c0 98 c3 
    b484:	c6 85 e0 ed ff ff 01 	movb   $0x1,-0x1220(%rbp)
    b48b:	c7 85 ec ed ff ff 0b 	movl   $0xca81170b,-0x1214(%rbp)
    b492:	17 81 ca 
    b495:	48 8d 85 a8 ee ff ff 	lea    -0x1158(%rbp),%rax
    b49c:	48 89 85 f8 ee ff ff 	mov    %rax,-0x1108(%rbp)
    b4a3:	c7 85 f8 ed ff ff 04 	movl   $0x4,-0x1208(%rbp)
    b4aa:	00 00 00 
    b4ad:	c6 85 df ed ff ff 2e 	movb   $0x2e,-0x1221(%rbp)
    b4b4:	66 c7 85 10 f0 ff ff 	movw   $0xffff,-0xff0(%rbp)
    b4bb:	ff ff 
    b4bd:	66 c7 85 12 f0 ff ff 	movw   $0xffff,-0xfee(%rbp)
    b4c4:	ff ff 
    b4c6:	66 c7 85 14 f0 ff ff 	movw   $0xffff,-0xfec(%rbp)
    b4cd:	ff ff 
    b4cf:	66 c7 85 16 f0 ff ff 	movw   $0xffff,-0xfea(%rbp)
    b4d6:	ff ff 
    b4d8:	66 c7 85 18 f0 ff ff 	movw   $0xffff,-0xfe8(%rbp)
    b4df:	ff ff 
    b4e1:	66 c7 85 1a f0 ff ff 	movw   $0xffff,-0xfe6(%rbp)
    b4e8:	ff ff 
    b4ea:	66 c7 85 1c f0 ff ff 	movw   $0xffff,-0xfe4(%rbp)
    b4f1:	ff ff 
    b4f3:	66 c7 85 1e f0 ff ff 	movw   $0xffff,-0xfe2(%rbp)
    b4fa:	ff ff 
    b4fc:	66 c7 85 20 f0 ff ff 	movw   $0xffff,-0xfe0(%rbp)
    b503:	ff ff 
    b505:	48 8d 05 5c e8 00 00 	lea    0xe85c(%rip),%rax        # 19d68 <g_654>
    b50c:	48 89 85 00 ef ff ff 	mov    %rax,-0x1100(%rbp)
    b513:	66 c7 85 e4 ed ff ff 	movw   $0x1,-0x121c(%rbp)
    b51a:	01 00 
    b51c:	48 8b 85 c8 ed ff ff 	mov    -0x1238(%rbp),%rax
    b523:	8b 00                	mov    (%rax),%eax
    b525:	85 c0                	test   %eax,%eax
    b527:	0f 84 dc 00 00 00    	je     b609 <func_52+0x533>
    b52d:	48 c7 85 28 ef ff ff 	movq   $0x0,-0x10d8(%rbp)
    b534:	00 00 00 00 
    b538:	48 8d 05 31 cb 00 00 	lea    0xcb31(%rip),%rax        # 18070 <g_111>
    b53f:	48 89 85 30 ef ff ff 	mov    %rax,-0x10d0(%rbp)
    b546:	48 8d 05 43 cb 00 00 	lea    0xcb43(%rip),%rax        # 18090 <g_426>
    b54d:	48 89 85 38 ef ff ff 	mov    %rax,-0x10c8(%rbp)
    b554:	8b 85 d0 f0 ff ff    	mov    -0xf30(%rbp),%eax
    b55a:	41 89 c4             	mov    %eax,%r12d
    b55d:	8b 05 01 cb 00 00    	mov    0xcb01(%rip),%eax        # 18064 <g_55>
    b563:	48 63 d8             	movslq %eax,%rbx
    b566:	8b 15 f8 ca 00 00    	mov    0xcaf8(%rip),%edx        # 18064 <g_55>
    b56c:	8b 0d f2 ca 00 00    	mov    0xcaf2(%rip),%ecx        # 18064 <g_55>
    b572:	48 8b 85 30 ef ff ff 	mov    -0x10d0(%rbp),%rax
    b579:	89 08                	mov    %ecx,(%rax)
    b57b:	48 8b 85 30 ef ff ff 	mov    -0x10d0(%rbp),%rax
    b582:	8b 00                	mov    (%rax),%eax
    b584:	89 d6                	mov    %edx,%esi
    b586:	89 c7                	mov    %eax,%edi
    b588:	e8 72 b1 ff ff       	callq  66ff <safe_div_func_int32_t_s_s>
    b58d:	41 89 c5             	mov    %eax,%r13d
    b590:	48 8b 05 c9 e5 00 00 	mov    0xe5c9(%rip),%rax        # 19b60 <g_68>
    b597:	48 89 c7             	mov    %rax,%rdi
    b59a:	e8 df 50 00 00       	callq  1067e <func_66>
    b59f:	89 c2                	mov    %eax,%edx
    b5a1:	8b 85 28 ee ff ff    	mov    -0x11d8(%rbp),%eax
    b5a7:	31 d0                	xor    %edx,%eax
    b5a9:	f7 d0                	not    %eax
    b5ab:	0f b6 c0             	movzbl %al,%eax
    b5ae:	44 89 ee             	mov    %r13d,%esi
    b5b1:	89 c7                	mov    %eax,%edi
    b5b3:	e8 06 b7 ff ff       	callq  6cbe <safe_rshift_func_uint8_t_u_u>
    b5b8:	0f b6 c0             	movzbl %al,%eax
    b5bb:	89 c6                	mov    %eax,%esi
    b5bd:	bf 00 00 00 00       	mov    $0x0,%edi
    b5c2:	e8 ec ad ff ff       	callq  63b3 <safe_add_func_int16_t_s_s>
    b5c7:	66 3d d6 07          	cmp    $0x7d6,%ax
    b5cb:	0f 94 c0             	sete   %al
    b5ce:	0f b6 c0             	movzbl %al,%eax
    b5d1:	44 89 e2             	mov    %r12d,%edx
    b5d4:	48 89 de             	mov    %rbx,%rsi
    b5d7:	89 c7                	mov    %eax,%edi
    b5d9:	e8 39 33 00 00       	callq  e917 <func_56>
    b5de:	48 8b 95 30 ef ff ff 	mov    -0x10d0(%rbp),%rdx
    b5e5:	89 02                	mov    %eax,(%rdx)
    b5e7:	48 8b 85 30 ef ff ff 	mov    -0x10d0(%rbp),%rax
    b5ee:	8b 10                	mov    (%rax),%edx
    b5f0:	48 8b 85 38 ef ff ff 	mov    -0x10c8(%rbp),%rax
    b5f7:	8b 00                	mov    (%rax),%eax
    b5f9:	31 c2                	xor    %eax,%edx
    b5fb:	48 8b 85 38 ef ff ff 	mov    -0x10c8(%rbp),%rax
    b602:	89 10                	mov    %edx,(%rax)
    b604:	e9 41 0e 00 00       	jmpq   c44a <func_52+0x1374>
    b609:	48 b8 ca 9a f5 dc 54 	movabs $0x4d7a7c54dcf59aca,%rax
    b610:	7c 7a 4d 
    b613:	48 89 85 08 ef ff ff 	mov    %rax,-0x10f8(%rbp)
    b61a:	48 c7 85 10 ef ff ff 	movq   $0x0,-0x10f0(%rbp)
    b621:	00 00 00 00 
    b625:	48 c7 85 18 ef ff ff 	movq   $0x0,-0x10e8(%rbp)
    b62c:	00 00 00 00 
    b630:	48 8d 85 a0 ee ff ff 	lea    -0x1160(%rbp),%rax
    b637:	48 89 85 40 f8 ff ff 	mov    %rax,-0x7c0(%rbp)
    b63e:	48 8d 85 a0 ee ff ff 	lea    -0x1160(%rbp),%rax
    b645:	48 89 85 48 f8 ff ff 	mov    %rax,-0x7b8(%rbp)
    b64c:	48 8d 85 a0 ee ff ff 	lea    -0x1160(%rbp),%rax
    b653:	48 89 85 50 f8 ff ff 	mov    %rax,-0x7b0(%rbp)
    b65a:	48 8d 85 a0 ee ff ff 	lea    -0x1160(%rbp),%rax
    b661:	48 89 85 58 f8 ff ff 	mov    %rax,-0x7a8(%rbp)
    b668:	48 8d 85 a0 ee ff ff 	lea    -0x1160(%rbp),%rax
    b66f:	48 89 85 60 f8 ff ff 	mov    %rax,-0x7a0(%rbp)
    b676:	48 c7 85 68 f8 ff ff 	movq   $0x0,-0x798(%rbp)
    b67d:	00 00 00 00 
    b681:	48 8d 85 a0 ee ff ff 	lea    -0x1160(%rbp),%rax
    b688:	48 89 85 70 f8 ff ff 	mov    %rax,-0x790(%rbp)
    b68f:	48 8d 85 a0 ee ff ff 	lea    -0x1160(%rbp),%rax
    b696:	48 89 85 78 f8 ff ff 	mov    %rax,-0x788(%rbp)
    b69d:	48 8d 85 a0 ee ff ff 	lea    -0x1160(%rbp),%rax
    b6a4:	48 89 85 80 f8 ff ff 	mov    %rax,-0x780(%rbp)
    b6ab:	48 8d 85 a0 ee ff ff 	lea    -0x1160(%rbp),%rax
    b6b2:	48 89 85 88 f8 ff ff 	mov    %rax,-0x778(%rbp)
    b6b9:	48 8d 85 a0 ee ff ff 	lea    -0x1160(%rbp),%rax
    b6c0:	48 89 85 90 f8 ff ff 	mov    %rax,-0x770(%rbp)
    b6c7:	48 8d 85 a0 ee ff ff 	lea    -0x1160(%rbp),%rax
    b6ce:	48 89 85 98 f8 ff ff 	mov    %rax,-0x768(%rbp)
    b6d5:	48 8d 85 a0 ee ff ff 	lea    -0x1160(%rbp),%rax
    b6dc:	48 89 85 a0 f8 ff ff 	mov    %rax,-0x760(%rbp)
    b6e3:	48 8d 85 a0 ee ff ff 	lea    -0x1160(%rbp),%rax
    b6ea:	48 89 85 a8 f8 ff ff 	mov    %rax,-0x758(%rbp)
    b6f1:	48 c7 85 b0 f8 ff ff 	movq   $0x0,-0x750(%rbp)
    b6f8:	00 00 00 00 
    b6fc:	48 8d 85 a0 ee ff ff 	lea    -0x1160(%rbp),%rax
    b703:	48 89 85 b8 f8 ff ff 	mov    %rax,-0x748(%rbp)
    b70a:	48 8d 85 a0 ee ff ff 	lea    -0x1160(%rbp),%rax
    b711:	48 89 85 c0 f8 ff ff 	mov    %rax,-0x740(%rbp)
    b718:	48 8d 85 a0 ee ff ff 	lea    -0x1160(%rbp),%rax
    b71f:	48 89 85 c8 f8 ff ff 	mov    %rax,-0x738(%rbp)
    b726:	48 8d 85 a0 ee ff ff 	lea    -0x1160(%rbp),%rax
    b72d:	48 89 85 d0 f8 ff ff 	mov    %rax,-0x730(%rbp)
    b734:	48 8d 85 a0 ee ff ff 	lea    -0x1160(%rbp),%rax
    b73b:	48 89 85 d8 f8 ff ff 	mov    %rax,-0x728(%rbp)
    b742:	48 c7 85 e0 f8 ff ff 	movq   $0x0,-0x720(%rbp)
    b749:	00 00 00 00 
    b74d:	48 8d 85 a0 ee ff ff 	lea    -0x1160(%rbp),%rax
    b754:	48 89 85 e8 f8 ff ff 	mov    %rax,-0x718(%rbp)
    b75b:	48 8d 85 a0 ee ff ff 	lea    -0x1160(%rbp),%rax
    b762:	48 89 85 f0 f8 ff ff 	mov    %rax,-0x710(%rbp)
    b769:	48 8d 85 a0 ee ff ff 	lea    -0x1160(%rbp),%rax
    b770:	48 89 85 f8 f8 ff ff 	mov    %rax,-0x708(%rbp)
    b777:	48 8d 85 a0 ee ff ff 	lea    -0x1160(%rbp),%rax
    b77e:	48 89 85 00 f9 ff ff 	mov    %rax,-0x700(%rbp)
    b785:	48 8d 85 a0 ee ff ff 	lea    -0x1160(%rbp),%rax
    b78c:	48 89 85 08 f9 ff ff 	mov    %rax,-0x6f8(%rbp)
    b793:	48 c7 85 10 f9 ff ff 	movq   $0x0,-0x6f0(%rbp)
    b79a:	00 00 00 00 
    b79e:	48 c7 85 18 f9 ff ff 	movq   $0x0,-0x6e8(%rbp)
    b7a5:	00 00 00 00 
    b7a9:	48 8d 85 a0 ee ff ff 	lea    -0x1160(%rbp),%rax
    b7b0:	48 89 85 20 f9 ff ff 	mov    %rax,-0x6e0(%rbp)
    b7b7:	48 8d 85 a0 ee ff ff 	lea    -0x1160(%rbp),%rax
    b7be:	48 89 85 28 f9 ff ff 	mov    %rax,-0x6d8(%rbp)
    b7c5:	48 8d 85 a0 ee ff ff 	lea    -0x1160(%rbp),%rax
    b7cc:	48 89 85 30 f9 ff ff 	mov    %rax,-0x6d0(%rbp)
    b7d3:	48 8d 85 a0 ee ff ff 	lea    -0x1160(%rbp),%rax
    b7da:	48 89 85 38 f9 ff ff 	mov    %rax,-0x6c8(%rbp)
    b7e1:	48 c7 85 40 f9 ff ff 	movq   $0x0,-0x6c0(%rbp)
    b7e8:	00 00 00 00 
    b7ec:	48 8d 85 a0 ee ff ff 	lea    -0x1160(%rbp),%rax
    b7f3:	48 89 85 48 f9 ff ff 	mov    %rax,-0x6b8(%rbp)
    b7fa:	48 8d 85 a0 ee ff ff 	lea    -0x1160(%rbp),%rax
    b801:	48 89 85 50 f9 ff ff 	mov    %rax,-0x6b0(%rbp)
    b808:	48 8d 85 a0 ee ff ff 	lea    -0x1160(%rbp),%rax
    b80f:	48 89 85 58 f9 ff ff 	mov    %rax,-0x6a8(%rbp)
    b816:	48 8d 85 a0 ee ff ff 	lea    -0x1160(%rbp),%rax
    b81d:	48 89 85 60 f9 ff ff 	mov    %rax,-0x6a0(%rbp)
    b824:	48 8d 85 a0 ee ff ff 	lea    -0x1160(%rbp),%rax
    b82b:	48 89 85 68 f9 ff ff 	mov    %rax,-0x698(%rbp)
    b832:	48 8d 85 a0 ee ff ff 	lea    -0x1160(%rbp),%rax
    b839:	48 89 85 70 f9 ff ff 	mov    %rax,-0x690(%rbp)
    b840:	48 8d 85 a0 ee ff ff 	lea    -0x1160(%rbp),%rax
    b847:	48 89 85 78 f9 ff ff 	mov    %rax,-0x688(%rbp)
    b84e:	48 c7 85 80 f9 ff ff 	movq   $0x0,-0x680(%rbp)
    b855:	00 00 00 00 
    b859:	48 c7 85 88 f9 ff ff 	movq   $0x0,-0x678(%rbp)
    b860:	00 00 00 00 
    b864:	48 8d 85 a0 ee ff ff 	lea    -0x1160(%rbp),%rax
    b86b:	48 89 85 90 f9 ff ff 	mov    %rax,-0x670(%rbp)
    b872:	48 c7 85 98 f9 ff ff 	movq   $0x0,-0x668(%rbp)
    b879:	00 00 00 00 
    b87d:	48 8d 85 a0 ee ff ff 	lea    -0x1160(%rbp),%rax
    b884:	48 89 85 a0 f9 ff ff 	mov    %rax,-0x660(%rbp)
    b88b:	48 8d 85 a0 ee ff ff 	lea    -0x1160(%rbp),%rax
    b892:	48 89 85 a8 f9 ff ff 	mov    %rax,-0x658(%rbp)
    b899:	48 8d 85 a0 ee ff ff 	lea    -0x1160(%rbp),%rax
    b8a0:	48 89 85 b0 f9 ff ff 	mov    %rax,-0x650(%rbp)
    b8a7:	48 8d 85 a0 ee ff ff 	lea    -0x1160(%rbp),%rax
    b8ae:	48 89 85 b8 f9 ff ff 	mov    %rax,-0x648(%rbp)
    b8b5:	48 8d 85 a0 ee ff ff 	lea    -0x1160(%rbp),%rax
    b8bc:	48 89 85 c0 f9 ff ff 	mov    %rax,-0x640(%rbp)
    b8c3:	48 8d 85 a0 ee ff ff 	lea    -0x1160(%rbp),%rax
    b8ca:	48 89 85 c8 f9 ff ff 	mov    %rax,-0x638(%rbp)
    b8d1:	48 8d 85 a0 ee ff ff 	lea    -0x1160(%rbp),%rax
    b8d8:	48 89 85 d0 f9 ff ff 	mov    %rax,-0x630(%rbp)
    b8df:	48 8d 85 a0 ee ff ff 	lea    -0x1160(%rbp),%rax
    b8e6:	48 89 85 d8 f9 ff ff 	mov    %rax,-0x628(%rbp)
    b8ed:	48 8d 85 a0 ee ff ff 	lea    -0x1160(%rbp),%rax
    b8f4:	48 89 85 e0 f9 ff ff 	mov    %rax,-0x620(%rbp)
    b8fb:	48 8d 85 a0 ee ff ff 	lea    -0x1160(%rbp),%rax
    b902:	48 89 85 e8 f9 ff ff 	mov    %rax,-0x618(%rbp)
    b909:	48 8d 85 a0 ee ff ff 	lea    -0x1160(%rbp),%rax
    b910:	48 89 85 f0 f9 ff ff 	mov    %rax,-0x610(%rbp)
    b917:	48 8d 85 a0 ee ff ff 	lea    -0x1160(%rbp),%rax
    b91e:	48 89 85 f8 f9 ff ff 	mov    %rax,-0x608(%rbp)
    b925:	48 c7 85 00 fa ff ff 	movq   $0x0,-0x600(%rbp)
    b92c:	00 00 00 00 
    b930:	48 8d 85 a0 ee ff ff 	lea    -0x1160(%rbp),%rax
    b937:	48 89 85 08 fa ff ff 	mov    %rax,-0x5f8(%rbp)
    b93e:	48 8d 85 a0 ee ff ff 	lea    -0x1160(%rbp),%rax
    b945:	48 89 85 10 fa ff ff 	mov    %rax,-0x5f0(%rbp)
    b94c:	48 c7 85 18 fa ff ff 	movq   $0x0,-0x5e8(%rbp)
    b953:	00 00 00 00 
    b957:	48 8d 85 a0 ee ff ff 	lea    -0x1160(%rbp),%rax
    b95e:	48 89 85 20 fa ff ff 	mov    %rax,-0x5e0(%rbp)
    b965:	48 8d 85 a0 ee ff ff 	lea    -0x1160(%rbp),%rax
    b96c:	48 89 85 28 fa ff ff 	mov    %rax,-0x5d8(%rbp)
    b973:	48 8d 85 a0 ee ff ff 	lea    -0x1160(%rbp),%rax
    b97a:	48 89 85 30 fa ff ff 	mov    %rax,-0x5d0(%rbp)
    b981:	48 8d 85 a0 ee ff ff 	lea    -0x1160(%rbp),%rax
    b988:	48 89 85 38 fa ff ff 	mov    %rax,-0x5c8(%rbp)
    b98f:	48 8d 85 a0 ee ff ff 	lea    -0x1160(%rbp),%rax
    b996:	48 89 85 40 fa ff ff 	mov    %rax,-0x5c0(%rbp)
    b99d:	48 8d 85 a0 ee ff ff 	lea    -0x1160(%rbp),%rax
    b9a4:	48 89 85 48 fa ff ff 	mov    %rax,-0x5b8(%rbp)
    b9ab:	48 8d 85 a0 ee ff ff 	lea    -0x1160(%rbp),%rax
    b9b2:	48 89 85 50 fa ff ff 	mov    %rax,-0x5b0(%rbp)
    b9b9:	48 8d 85 a0 ee ff ff 	lea    -0x1160(%rbp),%rax
    b9c0:	48 89 85 58 fa ff ff 	mov    %rax,-0x5a8(%rbp)
    b9c7:	48 8d 85 a0 ee ff ff 	lea    -0x1160(%rbp),%rax
    b9ce:	48 89 85 60 fa ff ff 	mov    %rax,-0x5a0(%rbp)
    b9d5:	48 8d 85 a0 ee ff ff 	lea    -0x1160(%rbp),%rax
    b9dc:	48 89 85 68 fa ff ff 	mov    %rax,-0x598(%rbp)
    b9e3:	48 8d 85 a0 ee ff ff 	lea    -0x1160(%rbp),%rax
    b9ea:	48 89 85 70 fa ff ff 	mov    %rax,-0x590(%rbp)
    b9f1:	48 8d 85 a0 ee ff ff 	lea    -0x1160(%rbp),%rax
    b9f8:	48 89 85 78 fa ff ff 	mov    %rax,-0x588(%rbp)
    b9ff:	48 8d 85 a0 ee ff ff 	lea    -0x1160(%rbp),%rax
    ba06:	48 89 85 80 fa ff ff 	mov    %rax,-0x580(%rbp)
    ba0d:	48 8d 85 a0 ee ff ff 	lea    -0x1160(%rbp),%rax
    ba14:	48 89 85 88 fa ff ff 	mov    %rax,-0x578(%rbp)
    ba1b:	48 8d 85 a0 ee ff ff 	lea    -0x1160(%rbp),%rax
    ba22:	48 89 85 90 fa ff ff 	mov    %rax,-0x570(%rbp)
    ba29:	48 8d 85 a0 ee ff ff 	lea    -0x1160(%rbp),%rax
    ba30:	48 89 85 98 fa ff ff 	mov    %rax,-0x568(%rbp)
    ba37:	48 8d 85 a0 ee ff ff 	lea    -0x1160(%rbp),%rax
    ba3e:	48 89 85 a0 fa ff ff 	mov    %rax,-0x560(%rbp)
    ba45:	48 8d 85 a0 ee ff ff 	lea    -0x1160(%rbp),%rax
    ba4c:	48 89 85 a8 fa ff ff 	mov    %rax,-0x558(%rbp)
    ba53:	48 8d 85 a0 ee ff ff 	lea    -0x1160(%rbp),%rax
    ba5a:	48 89 85 b0 fa ff ff 	mov    %rax,-0x550(%rbp)
    ba61:	48 8d 85 a0 ee ff ff 	lea    -0x1160(%rbp),%rax
    ba68:	48 89 85 b8 fa ff ff 	mov    %rax,-0x548(%rbp)
    ba6f:	48 8d 85 a0 ee ff ff 	lea    -0x1160(%rbp),%rax
    ba76:	48 89 85 c0 fa ff ff 	mov    %rax,-0x540(%rbp)
    ba7d:	48 8d 85 a0 ee ff ff 	lea    -0x1160(%rbp),%rax
    ba84:	48 89 85 c8 fa ff ff 	mov    %rax,-0x538(%rbp)
    ba8b:	48 8d 85 a0 ee ff ff 	lea    -0x1160(%rbp),%rax
    ba92:	48 89 85 d0 fa ff ff 	mov    %rax,-0x530(%rbp)
    ba99:	48 8d 85 a0 ee ff ff 	lea    -0x1160(%rbp),%rax
    baa0:	48 89 85 d8 fa ff ff 	mov    %rax,-0x528(%rbp)
    baa7:	48 8d 85 a0 ee ff ff 	lea    -0x1160(%rbp),%rax
    baae:	48 89 85 e0 fa ff ff 	mov    %rax,-0x520(%rbp)
    bab5:	48 8d 85 a0 ee ff ff 	lea    -0x1160(%rbp),%rax
    babc:	48 89 85 e8 fa ff ff 	mov    %rax,-0x518(%rbp)
    bac3:	48 8d 85 a0 ee ff ff 	lea    -0x1160(%rbp),%rax
    baca:	48 89 85 f0 fa ff ff 	mov    %rax,-0x510(%rbp)
    bad1:	48 8d 85 a0 ee ff ff 	lea    -0x1160(%rbp),%rax
    bad8:	48 89 85 f8 fa ff ff 	mov    %rax,-0x508(%rbp)
    badf:	48 8d 85 a0 ee ff ff 	lea    -0x1160(%rbp),%rax
    bae6:	48 89 85 00 fb ff ff 	mov    %rax,-0x500(%rbp)
    baed:	48 8d 85 a0 ee ff ff 	lea    -0x1160(%rbp),%rax
    baf4:	48 89 85 08 fb ff ff 	mov    %rax,-0x4f8(%rbp)
    bafb:	48 8d 85 a0 ee ff ff 	lea    -0x1160(%rbp),%rax
    bb02:	48 89 85 10 fb ff ff 	mov    %rax,-0x4f0(%rbp)
    bb09:	48 8d 85 a0 ee ff ff 	lea    -0x1160(%rbp),%rax
    bb10:	48 89 85 18 fb ff ff 	mov    %rax,-0x4e8(%rbp)
    bb17:	48 8d 85 a0 ee ff ff 	lea    -0x1160(%rbp),%rax
    bb1e:	48 89 85 20 fb ff ff 	mov    %rax,-0x4e0(%rbp)
    bb25:	48 c7 85 28 fb ff ff 	movq   $0x0,-0x4d8(%rbp)
    bb2c:	00 00 00 00 
    bb30:	48 8d 85 a0 ee ff ff 	lea    -0x1160(%rbp),%rax
    bb37:	48 89 85 30 fb ff ff 	mov    %rax,-0x4d0(%rbp)
    bb3e:	48 8d 85 a0 ee ff ff 	lea    -0x1160(%rbp),%rax
    bb45:	48 89 85 38 fb ff ff 	mov    %rax,-0x4c8(%rbp)
    bb4c:	48 8d 85 a0 ee ff ff 	lea    -0x1160(%rbp),%rax
    bb53:	48 89 85 40 fb ff ff 	mov    %rax,-0x4c0(%rbp)
    bb5a:	48 8d 85 a0 ee ff ff 	lea    -0x1160(%rbp),%rax
    bb61:	48 89 85 48 fb ff ff 	mov    %rax,-0x4b8(%rbp)
    bb68:	48 c7 85 50 fb ff ff 	movq   $0x0,-0x4b0(%rbp)
    bb6f:	00 00 00 00 
    bb73:	48 8d 85 a0 ee ff ff 	lea    -0x1160(%rbp),%rax
    bb7a:	48 89 85 58 fb ff ff 	mov    %rax,-0x4a8(%rbp)
    bb81:	48 8d 85 a0 ee ff ff 	lea    -0x1160(%rbp),%rax
    bb88:	48 89 85 60 fb ff ff 	mov    %rax,-0x4a0(%rbp)
    bb8f:	48 c7 85 68 fb ff ff 	movq   $0x0,-0x498(%rbp)
    bb96:	00 00 00 00 
    bb9a:	48 8d 85 a0 ee ff ff 	lea    -0x1160(%rbp),%rax
    bba1:	48 89 85 70 fb ff ff 	mov    %rax,-0x490(%rbp)
    bba8:	48 8d 85 a0 ee ff ff 	lea    -0x1160(%rbp),%rax
    bbaf:	48 89 85 78 fb ff ff 	mov    %rax,-0x488(%rbp)
    bbb6:	48 8d 85 a0 ee ff ff 	lea    -0x1160(%rbp),%rax
    bbbd:	48 89 85 80 fb ff ff 	mov    %rax,-0x480(%rbp)
    bbc4:	48 8d 85 a0 ee ff ff 	lea    -0x1160(%rbp),%rax
    bbcb:	48 89 85 88 fb ff ff 	mov    %rax,-0x478(%rbp)
    bbd2:	48 8d 85 a0 ee ff ff 	lea    -0x1160(%rbp),%rax
    bbd9:	48 89 85 90 fb ff ff 	mov    %rax,-0x470(%rbp)
    bbe0:	48 8d 85 a0 ee ff ff 	lea    -0x1160(%rbp),%rax
    bbe7:	48 89 85 98 fb ff ff 	mov    %rax,-0x468(%rbp)
    bbee:	48 8d 85 a0 ee ff ff 	lea    -0x1160(%rbp),%rax
    bbf5:	48 89 85 a0 fb ff ff 	mov    %rax,-0x460(%rbp)
    bbfc:	48 8d 85 a0 ee ff ff 	lea    -0x1160(%rbp),%rax
    bc03:	48 89 85 a8 fb ff ff 	mov    %rax,-0x458(%rbp)
    bc0a:	48 8d 85 a0 ee ff ff 	lea    -0x1160(%rbp),%rax
    bc11:	48 89 85 b0 fb ff ff 	mov    %rax,-0x450(%rbp)
    bc18:	48 8d 85 a0 ee ff ff 	lea    -0x1160(%rbp),%rax
    bc1f:	48 89 85 b8 fb ff ff 	mov    %rax,-0x448(%rbp)
    bc26:	48 8d 85 a0 ee ff ff 	lea    -0x1160(%rbp),%rax
    bc2d:	48 89 85 c0 fb ff ff 	mov    %rax,-0x440(%rbp)
    bc34:	48 8d 85 a0 ee ff ff 	lea    -0x1160(%rbp),%rax
    bc3b:	48 89 85 c8 fb ff ff 	mov    %rax,-0x438(%rbp)
    bc42:	48 8d 85 a0 ee ff ff 	lea    -0x1160(%rbp),%rax
    bc49:	48 89 85 d0 fb ff ff 	mov    %rax,-0x430(%rbp)
    bc50:	48 8d 85 a0 ee ff ff 	lea    -0x1160(%rbp),%rax
    bc57:	48 89 85 d8 fb ff ff 	mov    %rax,-0x428(%rbp)
    bc5e:	48 c7 85 e0 fb ff ff 	movq   $0x0,-0x420(%rbp)
    bc65:	00 00 00 00 
    bc69:	48 8d 85 a0 ee ff ff 	lea    -0x1160(%rbp),%rax
    bc70:	48 89 85 e8 fb ff ff 	mov    %rax,-0x418(%rbp)
    bc77:	48 8d 85 a0 ee ff ff 	lea    -0x1160(%rbp),%rax
    bc7e:	48 89 85 f0 fb ff ff 	mov    %rax,-0x410(%rbp)
    bc85:	48 8d 85 a0 ee ff ff 	lea    -0x1160(%rbp),%rax
    bc8c:	48 89 85 f8 fb ff ff 	mov    %rax,-0x408(%rbp)
    bc93:	48 8d 85 a0 ee ff ff 	lea    -0x1160(%rbp),%rax
    bc9a:	48 89 85 00 fc ff ff 	mov    %rax,-0x400(%rbp)
    bca1:	48 8d 85 a0 ee ff ff 	lea    -0x1160(%rbp),%rax
    bca8:	48 89 85 08 fc ff ff 	mov    %rax,-0x3f8(%rbp)
    bcaf:	48 8d 85 a0 ee ff ff 	lea    -0x1160(%rbp),%rax
    bcb6:	48 89 85 10 fc ff ff 	mov    %rax,-0x3f0(%rbp)
    bcbd:	48 8d 85 a0 ee ff ff 	lea    -0x1160(%rbp),%rax
    bcc4:	48 89 85 18 fc ff ff 	mov    %rax,-0x3e8(%rbp)
    bccb:	48 8d 85 a0 ee ff ff 	lea    -0x1160(%rbp),%rax
    bcd2:	48 89 85 20 fc ff ff 	mov    %rax,-0x3e0(%rbp)
    bcd9:	48 c7 85 28 fc ff ff 	movq   $0x0,-0x3d8(%rbp)
    bce0:	00 00 00 00 
    bce4:	48 8d 85 a0 ee ff ff 	lea    -0x1160(%rbp),%rax
    bceb:	48 89 85 30 fc ff ff 	mov    %rax,-0x3d0(%rbp)
    bcf2:	48 8d 85 a0 ee ff ff 	lea    -0x1160(%rbp),%rax
    bcf9:	48 89 85 38 fc ff ff 	mov    %rax,-0x3c8(%rbp)
    bd00:	48 8d 85 a0 ee ff ff 	lea    -0x1160(%rbp),%rax
    bd07:	48 89 85 40 fc ff ff 	mov    %rax,-0x3c0(%rbp)
    bd0e:	48 8d 85 a0 ee ff ff 	lea    -0x1160(%rbp),%rax
    bd15:	48 89 85 48 fc ff ff 	mov    %rax,-0x3b8(%rbp)
    bd1c:	48 8d 85 a0 ee ff ff 	lea    -0x1160(%rbp),%rax
    bd23:	48 89 85 50 fc ff ff 	mov    %rax,-0x3b0(%rbp)
    bd2a:	48 c7 85 58 fc ff ff 	movq   $0x0,-0x3a8(%rbp)
    bd31:	00 00 00 00 
    bd35:	48 8d 85 a0 ee ff ff 	lea    -0x1160(%rbp),%rax
    bd3c:	48 89 85 60 fc ff ff 	mov    %rax,-0x3a0(%rbp)
    bd43:	48 8d 85 a0 ee ff ff 	lea    -0x1160(%rbp),%rax
    bd4a:	48 89 85 68 fc ff ff 	mov    %rax,-0x398(%rbp)
    bd51:	48 8d 85 a0 ee ff ff 	lea    -0x1160(%rbp),%rax
    bd58:	48 89 85 70 fc ff ff 	mov    %rax,-0x390(%rbp)
    bd5f:	48 8d 85 a0 ee ff ff 	lea    -0x1160(%rbp),%rax
    bd66:	48 89 85 78 fc ff ff 	mov    %rax,-0x388(%rbp)
    bd6d:	48 8d 85 a0 ee ff ff 	lea    -0x1160(%rbp),%rax
    bd74:	48 89 85 80 fc ff ff 	mov    %rax,-0x380(%rbp)
    bd7b:	48 c7 85 88 fc ff ff 	movq   $0x0,-0x378(%rbp)
    bd82:	00 00 00 00 
    bd86:	48 c7 85 90 fc ff ff 	movq   $0x0,-0x370(%rbp)
    bd8d:	00 00 00 00 
    bd91:	48 8d 85 a0 ee ff ff 	lea    -0x1160(%rbp),%rax
    bd98:	48 89 85 98 fc ff ff 	mov    %rax,-0x368(%rbp)
    bd9f:	48 8d 85 a0 ee ff ff 	lea    -0x1160(%rbp),%rax
    bda6:	48 89 85 a0 fc ff ff 	mov    %rax,-0x360(%rbp)
    bdad:	48 8d 85 a0 ee ff ff 	lea    -0x1160(%rbp),%rax
    bdb4:	48 89 85 a8 fc ff ff 	mov    %rax,-0x358(%rbp)
    bdbb:	48 8d 85 a0 ee ff ff 	lea    -0x1160(%rbp),%rax
    bdc2:	48 89 85 b0 fc ff ff 	mov    %rax,-0x350(%rbp)
    bdc9:	48 c7 85 b8 fc ff ff 	movq   $0x0,-0x348(%rbp)
    bdd0:	00 00 00 00 
    bdd4:	48 8d 85 a0 ee ff ff 	lea    -0x1160(%rbp),%rax
    bddb:	48 89 85 c0 fc ff ff 	mov    %rax,-0x340(%rbp)
    bde2:	48 8d 85 a0 ee ff ff 	lea    -0x1160(%rbp),%rax
    bde9:	48 89 85 c8 fc ff ff 	mov    %rax,-0x338(%rbp)
    bdf0:	48 8d 85 a0 ee ff ff 	lea    -0x1160(%rbp),%rax
    bdf7:	48 89 85 d0 fc ff ff 	mov    %rax,-0x330(%rbp)
    bdfe:	48 8d 85 a0 ee ff ff 	lea    -0x1160(%rbp),%rax
    be05:	48 89 85 d8 fc ff ff 	mov    %rax,-0x328(%rbp)
    be0c:	48 8d 85 a0 ee ff ff 	lea    -0x1160(%rbp),%rax
    be13:	48 89 85 e0 fc ff ff 	mov    %rax,-0x320(%rbp)
    be1a:	48 8d 85 a0 ee ff ff 	lea    -0x1160(%rbp),%rax
    be21:	48 89 85 e8 fc ff ff 	mov    %rax,-0x318(%rbp)
    be28:	48 8d 85 a0 ee ff ff 	lea    -0x1160(%rbp),%rax
    be2f:	48 89 85 f0 fc ff ff 	mov    %rax,-0x310(%rbp)
    be36:	48 8d 85 a0 ee ff ff 	lea    -0x1160(%rbp),%rax
    be3d:	48 89 85 f8 fc ff ff 	mov    %rax,-0x308(%rbp)
    be44:	48 8d 85 a0 ee ff ff 	lea    -0x1160(%rbp),%rax
    be4b:	48 89 85 00 fd ff ff 	mov    %rax,-0x300(%rbp)
    be52:	48 8d 85 a0 ee ff ff 	lea    -0x1160(%rbp),%rax
    be59:	48 89 85 08 fd ff ff 	mov    %rax,-0x2f8(%rbp)
    be60:	48 8d 85 a0 ee ff ff 	lea    -0x1160(%rbp),%rax
    be67:	48 89 85 10 fd ff ff 	mov    %rax,-0x2f0(%rbp)
    be6e:	48 8d 85 a0 ee ff ff 	lea    -0x1160(%rbp),%rax
    be75:	48 89 85 18 fd ff ff 	mov    %rax,-0x2e8(%rbp)
    be7c:	48 8d 85 a0 ee ff ff 	lea    -0x1160(%rbp),%rax
    be83:	48 89 85 20 fd ff ff 	mov    %rax,-0x2e0(%rbp)
    be8a:	48 8d 85 a0 ee ff ff 	lea    -0x1160(%rbp),%rax
    be91:	48 89 85 28 fd ff ff 	mov    %rax,-0x2d8(%rbp)
    be98:	48 8d 85 a0 ee ff ff 	lea    -0x1160(%rbp),%rax
    be9f:	48 89 85 30 fd ff ff 	mov    %rax,-0x2d0(%rbp)
    bea6:	48 8d 85 a0 ee ff ff 	lea    -0x1160(%rbp),%rax
    bead:	48 89 85 38 fd ff ff 	mov    %rax,-0x2c8(%rbp)
    beb4:	48 8d 85 a0 ee ff ff 	lea    -0x1160(%rbp),%rax
    bebb:	48 89 85 40 fd ff ff 	mov    %rax,-0x2c0(%rbp)
    bec2:	48 8d 85 a0 ee ff ff 	lea    -0x1160(%rbp),%rax
    bec9:	48 89 85 48 fd ff ff 	mov    %rax,-0x2b8(%rbp)
    bed0:	48 8d 85 a0 ee ff ff 	lea    -0x1160(%rbp),%rax
    bed7:	48 89 85 50 fd ff ff 	mov    %rax,-0x2b0(%rbp)
    bede:	48 8d 85 a0 ee ff ff 	lea    -0x1160(%rbp),%rax
    bee5:	48 89 85 58 fd ff ff 	mov    %rax,-0x2a8(%rbp)
    beec:	48 8d 85 a0 ee ff ff 	lea    -0x1160(%rbp),%rax
    bef3:	48 89 85 60 fd ff ff 	mov    %rax,-0x2a0(%rbp)
    befa:	48 8d 85 a0 ee ff ff 	lea    -0x1160(%rbp),%rax
    bf01:	48 89 85 68 fd ff ff 	mov    %rax,-0x298(%rbp)
    bf08:	48 8d 85 a0 ee ff ff 	lea    -0x1160(%rbp),%rax
    bf0f:	48 89 85 70 fd ff ff 	mov    %rax,-0x290(%rbp)
    bf16:	48 c7 85 78 fd ff ff 	movq   $0x0,-0x288(%rbp)
    bf1d:	00 00 00 00 
    bf21:	48 8d 85 a0 ee ff ff 	lea    -0x1160(%rbp),%rax
    bf28:	48 89 85 80 fd ff ff 	mov    %rax,-0x280(%rbp)
    bf2f:	48 8d 85 a0 ee ff ff 	lea    -0x1160(%rbp),%rax
    bf36:	48 89 85 88 fd ff ff 	mov    %rax,-0x278(%rbp)
    bf3d:	48 8d 85 a0 ee ff ff 	lea    -0x1160(%rbp),%rax
    bf44:	48 89 85 90 fd ff ff 	mov    %rax,-0x270(%rbp)
    bf4b:	48 8d 85 a0 ee ff ff 	lea    -0x1160(%rbp),%rax
    bf52:	48 89 85 98 fd ff ff 	mov    %rax,-0x268(%rbp)
    bf59:	48 c7 85 a0 fd ff ff 	movq   $0x0,-0x260(%rbp)
    bf60:	00 00 00 00 
    bf64:	48 8d 85 a0 ee ff ff 	lea    -0x1160(%rbp),%rax
    bf6b:	48 89 85 a8 fd ff ff 	mov    %rax,-0x258(%rbp)
    bf72:	48 8d 85 a0 ee ff ff 	lea    -0x1160(%rbp),%rax
    bf79:	48 89 85 b0 fd ff ff 	mov    %rax,-0x250(%rbp)
    bf80:	48 8d 85 a0 ee ff ff 	lea    -0x1160(%rbp),%rax
    bf87:	48 89 85 b8 fd ff ff 	mov    %rax,-0x248(%rbp)
    bf8e:	48 8d 85 a0 ee ff ff 	lea    -0x1160(%rbp),%rax
    bf95:	48 89 85 c0 fd ff ff 	mov    %rax,-0x240(%rbp)
    bf9c:	48 8d 85 a0 ee ff ff 	lea    -0x1160(%rbp),%rax
    bfa3:	48 89 85 c8 fd ff ff 	mov    %rax,-0x238(%rbp)
    bfaa:	48 8d 85 a0 ee ff ff 	lea    -0x1160(%rbp),%rax
    bfb1:	48 89 85 d0 fd ff ff 	mov    %rax,-0x230(%rbp)
    bfb8:	48 8d 85 a0 ee ff ff 	lea    -0x1160(%rbp),%rax
    bfbf:	48 89 85 d8 fd ff ff 	mov    %rax,-0x228(%rbp)
    bfc6:	48 8d 85 a0 ee ff ff 	lea    -0x1160(%rbp),%rax
    bfcd:	48 89 85 e0 fd ff ff 	mov    %rax,-0x220(%rbp)
    bfd4:	48 8d 85 a0 ee ff ff 	lea    -0x1160(%rbp),%rax
    bfdb:	48 89 85 e8 fd ff ff 	mov    %rax,-0x218(%rbp)
    bfe2:	48 8d 85 a0 ee ff ff 	lea    -0x1160(%rbp),%rax
    bfe9:	48 89 85 f0 fd ff ff 	mov    %rax,-0x210(%rbp)
    bff0:	48 8d 85 a0 ee ff ff 	lea    -0x1160(%rbp),%rax
    bff7:	48 89 85 f8 fd ff ff 	mov    %rax,-0x208(%rbp)
    bffe:	48 c7 85 00 fe ff ff 	movq   $0x0,-0x200(%rbp)
    c005:	00 00 00 00 
    c009:	48 8d 85 a0 ee ff ff 	lea    -0x1160(%rbp),%rax
    c010:	48 89 85 08 fe ff ff 	mov    %rax,-0x1f8(%rbp)
    c017:	48 8d 85 a0 ee ff ff 	lea    -0x1160(%rbp),%rax
    c01e:	48 89 85 10 fe ff ff 	mov    %rax,-0x1f0(%rbp)
    c025:	48 8d 85 a0 ee ff ff 	lea    -0x1160(%rbp),%rax
    c02c:	48 89 85 18 fe ff ff 	mov    %rax,-0x1e8(%rbp)
    c033:	48 8d 85 a0 ee ff ff 	lea    -0x1160(%rbp),%rax
    c03a:	48 89 85 20 fe ff ff 	mov    %rax,-0x1e0(%rbp)
    c041:	48 8d 85 a0 ee ff ff 	lea    -0x1160(%rbp),%rax
    c048:	48 89 85 28 fe ff ff 	mov    %rax,-0x1d8(%rbp)
    c04f:	48 8d 85 a0 ee ff ff 	lea    -0x1160(%rbp),%rax
    c056:	48 89 85 30 fe ff ff 	mov    %rax,-0x1d0(%rbp)
    c05d:	48 8d 85 a0 ee ff ff 	lea    -0x1160(%rbp),%rax
    c064:	48 89 85 38 fe ff ff 	mov    %rax,-0x1c8(%rbp)
    c06b:	48 8d 85 a0 ee ff ff 	lea    -0x1160(%rbp),%rax
    c072:	48 89 85 40 fe ff ff 	mov    %rax,-0x1c0(%rbp)
    c079:	48 8d 85 a0 ee ff ff 	lea    -0x1160(%rbp),%rax
    c080:	48 89 85 48 fe ff ff 	mov    %rax,-0x1b8(%rbp)
    c087:	48 8d 85 a0 ee ff ff 	lea    -0x1160(%rbp),%rax
    c08e:	48 89 85 50 fe ff ff 	mov    %rax,-0x1b0(%rbp)
    c095:	48 c7 85 58 fe ff ff 	movq   $0x0,-0x1a8(%rbp)
    c09c:	00 00 00 00 
    c0a0:	48 8d 85 a0 ee ff ff 	lea    -0x1160(%rbp),%rax
    c0a7:	48 89 85 60 fe ff ff 	mov    %rax,-0x1a0(%rbp)
    c0ae:	48 8d 85 a0 ee ff ff 	lea    -0x1160(%rbp),%rax
    c0b5:	48 89 85 68 fe ff ff 	mov    %rax,-0x198(%rbp)
    c0bc:	48 8d 85 a0 ee ff ff 	lea    -0x1160(%rbp),%rax
    c0c3:	48 89 85 70 fe ff ff 	mov    %rax,-0x190(%rbp)
    c0ca:	48 8d 85 a0 ee ff ff 	lea    -0x1160(%rbp),%rax
    c0d1:	48 89 85 78 fe ff ff 	mov    %rax,-0x188(%rbp)
    c0d8:	48 8d 85 a0 ee ff ff 	lea    -0x1160(%rbp),%rax
    c0df:	48 89 85 80 fe ff ff 	mov    %rax,-0x180(%rbp)
    c0e6:	48 8d 85 a0 ee ff ff 	lea    -0x1160(%rbp),%rax
    c0ed:	48 89 85 88 fe ff ff 	mov    %rax,-0x178(%rbp)
    c0f4:	48 8d 85 a0 ee ff ff 	lea    -0x1160(%rbp),%rax
    c0fb:	48 89 85 90 fe ff ff 	mov    %rax,-0x170(%rbp)
    c102:	48 8d 85 a0 ee ff ff 	lea    -0x1160(%rbp),%rax
    c109:	48 89 85 98 fe ff ff 	mov    %rax,-0x168(%rbp)
    c110:	48 8d 85 a0 ee ff ff 	lea    -0x1160(%rbp),%rax
    c117:	48 89 85 a0 fe ff ff 	mov    %rax,-0x160(%rbp)
    c11e:	48 c7 85 a8 fe ff ff 	movq   $0x0,-0x158(%rbp)
    c125:	00 00 00 00 
    c129:	48 8d 85 a0 ee ff ff 	lea    -0x1160(%rbp),%rax
    c130:	48 89 85 b0 fe ff ff 	mov    %rax,-0x150(%rbp)
    c137:	48 8d 85 a0 ee ff ff 	lea    -0x1160(%rbp),%rax
    c13e:	48 89 85 b8 fe ff ff 	mov    %rax,-0x148(%rbp)
    c145:	48 c7 85 c0 fe ff ff 	movq   $0x0,-0x140(%rbp)
    c14c:	00 00 00 00 
    c150:	48 8d 85 a0 ee ff ff 	lea    -0x1160(%rbp),%rax
    c157:	48 89 85 c8 fe ff ff 	mov    %rax,-0x138(%rbp)
    c15e:	48 8d 85 a0 ee ff ff 	lea    -0x1160(%rbp),%rax
    c165:	48 89 85 d0 fe ff ff 	mov    %rax,-0x130(%rbp)
    c16c:	48 c7 85 d8 fe ff ff 	movq   $0x0,-0x128(%rbp)
    c173:	00 00 00 00 
    c177:	48 c7 85 e0 fe ff ff 	movq   $0x0,-0x120(%rbp)
    c17e:	00 00 00 00 
    c182:	48 8d 85 a0 ee ff ff 	lea    -0x1160(%rbp),%rax
    c189:	48 89 85 e8 fe ff ff 	mov    %rax,-0x118(%rbp)
    c190:	48 8d 85 a0 ee ff ff 	lea    -0x1160(%rbp),%rax
    c197:	48 89 85 f0 fe ff ff 	mov    %rax,-0x110(%rbp)
    c19e:	48 8d 85 a0 ee ff ff 	lea    -0x1160(%rbp),%rax
    c1a5:	48 89 85 f8 fe ff ff 	mov    %rax,-0x108(%rbp)
    c1ac:	48 8d 85 a0 ee ff ff 	lea    -0x1160(%rbp),%rax
    c1b3:	48 89 85 00 ff ff ff 	mov    %rax,-0x100(%rbp)
    c1ba:	48 8d 85 a0 ee ff ff 	lea    -0x1160(%rbp),%rax
    c1c1:	48 89 85 08 ff ff ff 	mov    %rax,-0xf8(%rbp)
    c1c8:	48 8d 85 a0 ee ff ff 	lea    -0x1160(%rbp),%rax
    c1cf:	48 89 85 10 ff ff ff 	mov    %rax,-0xf0(%rbp)
    c1d6:	48 8d 85 a0 ee ff ff 	lea    -0x1160(%rbp),%rax
    c1dd:	48 89 85 18 ff ff ff 	mov    %rax,-0xe8(%rbp)
    c1e4:	48 8d 85 a0 ee ff ff 	lea    -0x1160(%rbp),%rax
    c1eb:	48 89 85 20 ff ff ff 	mov    %rax,-0xe0(%rbp)
    c1f2:	48 8d 85 a0 ee ff ff 	lea    -0x1160(%rbp),%rax
    c1f9:	48 89 85 28 ff ff ff 	mov    %rax,-0xd8(%rbp)
    c200:	48 8d 85 a0 ee ff ff 	lea    -0x1160(%rbp),%rax
    c207:	48 89 85 30 ff ff ff 	mov    %rax,-0xd0(%rbp)
    c20e:	48 8d 85 a0 ee ff ff 	lea    -0x1160(%rbp),%rax
    c215:	48 89 85 38 ff ff ff 	mov    %rax,-0xc8(%rbp)
    c21c:	48 8d 85 a0 ee ff ff 	lea    -0x1160(%rbp),%rax
    c223:	48 89 85 40 ff ff ff 	mov    %rax,-0xc0(%rbp)
    c22a:	48 c7 85 48 ff ff ff 	movq   $0x0,-0xb8(%rbp)
    c231:	00 00 00 00 
    c235:	48 8d 85 a0 ee ff ff 	lea    -0x1160(%rbp),%rax
    c23c:	48 89 85 50 ff ff ff 	mov    %rax,-0xb0(%rbp)
    c243:	48 8d 85 a0 ee ff ff 	lea    -0x1160(%rbp),%rax
    c24a:	48 89 85 58 ff ff ff 	mov    %rax,-0xa8(%rbp)
    c251:	48 c7 85 60 ff ff ff 	movq   $0x0,-0xa0(%rbp)
    c258:	00 00 00 00 
    c25c:	48 8d 85 a0 ee ff ff 	lea    -0x1160(%rbp),%rax
    c263:	48 89 85 68 ff ff ff 	mov    %rax,-0x98(%rbp)
    c26a:	48 8d 85 a0 ee ff ff 	lea    -0x1160(%rbp),%rax
    c271:	48 89 85 70 ff ff ff 	mov    %rax,-0x90(%rbp)
    c278:	48 8d 85 a0 ee ff ff 	lea    -0x1160(%rbp),%rax
    c27f:	48 89 85 78 ff ff ff 	mov    %rax,-0x88(%rbp)
    c286:	48 c7 45 80 00 00 00 	movq   $0x0,-0x80(%rbp)
    c28d:	00 
    c28e:	48 8d 85 a0 ee ff ff 	lea    -0x1160(%rbp),%rax
    c295:	48 89 45 88          	mov    %rax,-0x78(%rbp)
    c299:	48 8d 85 a0 ee ff ff 	lea    -0x1160(%rbp),%rax
    c2a0:	48 89 45 90          	mov    %rax,-0x70(%rbp)
    c2a4:	48 8d 85 a0 ee ff ff 	lea    -0x1160(%rbp),%rax
    c2ab:	48 89 45 98          	mov    %rax,-0x68(%rbp)
    c2af:	48 8d 85 a0 ee ff ff 	lea    -0x1160(%rbp),%rax
    c2b6:	48 89 45 a0          	mov    %rax,-0x60(%rbp)
    c2ba:	48 8d 85 a0 ee ff ff 	lea    -0x1160(%rbp),%rax
    c2c1:	48 89 45 a8          	mov    %rax,-0x58(%rbp)
    c2c5:	48 8d 85 a0 ee ff ff 	lea    -0x1160(%rbp),%rax
    c2cc:	48 89 45 b0          	mov    %rax,-0x50(%rbp)
    c2d0:	48 8d 85 a0 ee ff ff 	lea    -0x1160(%rbp),%rax
    c2d7:	48 89 45 b8          	mov    %rax,-0x48(%rbp)
    c2db:	48 8d 85 80 f3 ff ff 	lea    -0xc80(%rbp),%rax
    c2e2:	48 83 c0 10          	add    $0x10,%rax
    c2e6:	48 89 85 20 ef ff ff 	mov    %rax,-0x10e0(%rbp)
    c2ed:	48 8d 85 80 f4 ff ff 	lea    -0xb80(%rbp),%rax
    c2f4:	48 8d 15 45 73 00 00 	lea    0x7345(%rip),%rdx        # 13640 <g_1114+0x15e0>
    c2fb:	b9 5a 00 00 00       	mov    $0x5a,%ecx
    c300:	48 89 c7             	mov    %rax,%rdi
    c303:	48 89 d6             	mov    %rdx,%rsi
    c306:	f3 48 a5             	rep movsq %ds:(%rsi),%es:(%rdi)
    c309:	c7 85 2c ee ff ff 53 	movl   $0x6b678653,-0x11d4(%rbp)
    c310:	86 67 6b 
    c313:	c7 85 00 ee ff ff 00 	movl   $0x0,-0x1200(%rbp)
    c31a:	00 00 00 
    c31d:	eb 1e                	jmp    c33d <func_52+0x1267>
    c31f:	8b 85 00 ee ff ff    	mov    -0x1200(%rbp),%eax
    c325:	48 98                	cltq   
    c327:	48 8d 15 4a d8 00 00 	lea    0xd84a(%rip),%rdx        # 19b78 <g_317>
    c32e:	48 89 94 c5 80 f3 ff 	mov    %rdx,-0xc80(%rbp,%rax,8)
    c335:	ff 
    c336:	83 85 00 ee ff ff 01 	addl   $0x1,-0x1200(%rbp)
    c33d:	83 bd 00 ee ff ff 02 	cmpl   $0x2,-0x1200(%rbp)
    c344:	7e d9                	jle    c31f <func_52+0x1249>
    c346:	8b 05 24 bd 00 00    	mov    0xbd24(%rip),%eax        # 18070 <g_111>
    c34c:	0f b7 d8             	movzwl %ax,%ebx
    c34f:	0f b7 05 ec bc 00 00 	movzwl 0xbcec(%rip),%eax        # 18042 <g_54+0x2>
    c356:	44 0f bf e0          	movswl %ax,%r12d
    c35a:	48 8b 85 20 ef ff ff 	mov    -0x10e0(%rbp),%rax
    c361:	48 c7 00 00 00 00 00 	movq   $0x0,(%rax)
    c368:	8b 85 e8 ed ff ff    	mov    -0x1218(%rbp),%eax
    c36e:	44 0f b6 e8          	movzbl %al,%r13d
    c372:	8b 85 28 ee ff ff    	mov    -0x11d8(%rbp),%eax
    c378:	98                   	cwtl   
    c379:	be 07 00 00 00       	mov    $0x7,%esi
    c37e:	89 c7                	mov    %eax,%edi
    c380:	e8 5c a1 ff ff       	callq  64e1 <safe_lshift_func_int16_t_s_u>
    c385:	41 89 c6             	mov    %eax,%r14d
    c388:	48 8b 85 08 ef ff ff 	mov    -0x10f8(%rbp),%rax
    c38f:	0f b6 c0             	movzbl %al,%eax
    c392:	8b 95 28 ee ff ff    	mov    -0x11d8(%rbp),%edx
    c398:	89 d6                	mov    %edx,%esi
    c39a:	89 c7                	mov    %eax,%edi
    c39c:	e8 1d a9 ff ff       	callq  6cbe <safe_rshift_func_uint8_t_u_u>
    c3a1:	44 31 f0             	xor    %r14d,%eax
    c3a4:	0f b6 c0             	movzbl %al,%eax
    c3a7:	44 89 ee             	mov    %r13d,%esi
    c3aa:	89 c7                	mov    %eax,%edi
    c3ac:	e8 c7 a7 ff ff       	callq  6b78 <safe_sub_func_uint8_t_u_u>
    c3b1:	48 8d 05 88 d9 00 00 	lea    0xd988(%rip),%rax        # 19d40 <g_444>
    c3b8:	48 8b 00             	mov    (%rax),%rax
    c3bb:	48 85 c0             	test   %rax,%rax
    c3be:	0f 95 c0             	setne  %al
    c3c1:	0f b6 c0             	movzbl %al,%eax
    c3c4:	44 89 e6             	mov    %r12d,%esi
    c3c7:	89 c7                	mov    %eax,%edi
    c3c9:	e8 02 ab ff ff       	callq  6ed0 <safe_sub_func_uint32_t_u_u>
    c3ce:	0f be c0             	movsbl %al,%eax
    c3d1:	89 c6                	mov    %eax,%esi
    c3d3:	bf 42 00 00 00       	mov    $0x42,%edi
    c3d8:	e8 35 9e ff ff       	callq  6212 <safe_mul_func_int8_t_s_s>
    c3dd:	48 8b 05 8c d7 00 00 	mov    0xd78c(%rip),%rax        # 19b70 <g_182>
    c3e4:	0f b7 00             	movzwl (%rax),%eax
    c3e7:	0f b7 c0             	movzwl %ax,%eax
    c3ea:	89 de                	mov    %ebx,%esi
    c3ec:	89 c7                	mov    %eax,%edi
    c3ee:	e8 2c a9 ff ff       	callq  6d1f <safe_sub_func_uint16_t_u_u>
    c3f3:	48 8b 85 a0 ee ff ff 	mov    -0x1160(%rbp),%rax
    c3fa:	48 89 85 a0 ee ff ff 	mov    %rax,-0x1160(%rbp)
    c401:	48 8b 95 a0 ee ff ff 	mov    -0x1160(%rbp),%rdx
    c408:	48 8b 85 c8 ee ff ff 	mov    -0x1138(%rbp),%rax
    c40f:	48 39 c2             	cmp    %rax,%rdx
    c412:	0f 95 c0             	setne  %al
    c415:	0f b6 c0             	movzbl %al,%eax
    c418:	39 85 28 ee ff ff    	cmp    %eax,-0x11d8(%rbp)
    c41e:	0f 92 c0             	setb   %al
    c421:	0f b6 c0             	movzbl %al,%eax
    c424:	be ff ff ff ff       	mov    $0xffffffff,%esi
    c429:	89 c7                	mov    %eax,%edi
    c42b:	e8 e2 9d ff ff       	callq  6212 <safe_mul_func_int8_t_s_s>
    c430:	0f be c0             	movsbl %al,%eax
    c433:	89 85 c0 f5 ff ff    	mov    %eax,-0xa40(%rbp)
    c439:	48 8b 85 08 ef ff ff 	mov    -0x10f8(%rbp),%rax
    c440:	48 83 c8 01          	or     $0x1,%rax
    c444:	09 85 2c ee ff ff    	or     %eax,-0x11d4(%rbp)
    c44a:	66 c7 05 2d bc 00 00 	movw   $0x0,0xbc2d(%rip)        # 18080 <g_183>
    c451:	00 00 
    c453:	e9 45 24 00 00       	jmpq   e89d <func_52+0x37c7>
    c458:	c7 85 f0 ed ff ff 03 	movl   $0x593b5e03,-0x1210(%rbp)
    c45f:	5e 3b 59 
    c462:	48 8d 85 d0 f0 ff ff 	lea    -0xf30(%rbp),%rax
    c469:	48 83 c0 14          	add    $0x14,%rax
    c46d:	48 89 85 40 f8 ff ff 	mov    %rax,-0x7c0(%rbp)
    c474:	48 8d 05 f1 bb 00 00 	lea    0xbbf1(%rip),%rax        # 1806c <g_84>
    c47b:	48 89 85 48 f8 ff ff 	mov    %rax,-0x7b8(%rbp)
    c482:	48 8d 05 e3 bb 00 00 	lea    0xbbe3(%rip),%rax        # 1806c <g_84>
    c489:	48 89 85 50 f8 ff ff 	mov    %rax,-0x7b0(%rbp)
    c490:	48 8d 05 cd bb 00 00 	lea    0xbbcd(%rip),%rax        # 18064 <g_55>
    c497:	48 89 85 58 f8 ff ff 	mov    %rax,-0x7a8(%rbp)
    c49e:	48 8d 05 c7 bb 00 00 	lea    0xbbc7(%rip),%rax        # 1806c <g_84>
    c4a5:	48 89 85 60 f8 ff ff 	mov    %rax,-0x7a0(%rbp)
    c4ac:	48 8d 05 b9 bb 00 00 	lea    0xbbb9(%rip),%rax        # 1806c <g_84>
    c4b3:	48 89 85 68 f8 ff ff 	mov    %rax,-0x798(%rbp)
    c4ba:	48 c7 85 70 f8 ff ff 	movq   $0x0,-0x790(%rbp)
    c4c1:	00 00 00 00 
    c4c5:	48 c7 85 78 f8 ff ff 	movq   $0x0,-0x788(%rbp)
    c4cc:	00 00 00 00 
    c4d0:	48 8d 05 b9 bb 00 00 	lea    0xbbb9(%rip),%rax        # 18090 <g_426>
    c4d7:	48 89 85 80 f8 ff ff 	mov    %rax,-0x780(%rbp)
    c4de:	48 8d 05 7f bb 00 00 	lea    0xbb7f(%rip),%rax        # 18064 <g_55>
    c4e5:	48 89 85 88 f8 ff ff 	mov    %rax,-0x778(%rbp)
    c4ec:	48 c7 85 90 f8 ff ff 	movq   $0x0,-0x770(%rbp)
    c4f3:	00 00 00 00 
    c4f7:	48 c7 85 98 f8 ff ff 	movq   $0x0,-0x768(%rbp)
    c4fe:	00 00 00 00 
    c502:	48 8d 85 d0 f0 ff ff 	lea    -0xf30(%rbp),%rax
    c509:	48 83 c0 28          	add    $0x28,%rax
    c50d:	48 89 85 a0 f8 ff ff 	mov    %rax,-0x760(%rbp)
    c514:	48 8d 05 75 bb 00 00 	lea    0xbb75(%rip),%rax        # 18090 <g_426>
    c51b:	48 89 85 a8 f8 ff ff 	mov    %rax,-0x758(%rbp)
    c522:	48 c7 85 b0 f8 ff ff 	movq   $0x0,-0x750(%rbp)
    c529:	00 00 00 00 
    c52d:	48 8d 85 ec ed ff ff 	lea    -0x1214(%rbp),%rax
    c534:	48 89 85 b8 f8 ff ff 	mov    %rax,-0x748(%rbp)
    c53b:	48 8d 05 22 bb 00 00 	lea    0xbb22(%rip),%rax        # 18064 <g_55>
    c542:	48 89 85 c0 f8 ff ff 	mov    %rax,-0x740(%rbp)
    c549:	48 c7 85 c8 f8 ff ff 	movq   $0x0,-0x738(%rbp)
    c550:	00 00 00 00 
    c554:	48 c7 85 d0 f8 ff ff 	movq   $0x0,-0x730(%rbp)
    c55b:	00 00 00 00 
    c55f:	48 8d 05 fe ba 00 00 	lea    0xbafe(%rip),%rax        # 18064 <g_55>
    c566:	48 89 85 d8 f8 ff ff 	mov    %rax,-0x728(%rbp)
    c56d:	48 8d 05 f0 ba 00 00 	lea    0xbaf0(%rip),%rax        # 18064 <g_55>
    c574:	48 89 85 e0 f8 ff ff 	mov    %rax,-0x720(%rbp)
    c57b:	48 c7 85 e8 f8 ff ff 	movq   $0x0,-0x718(%rbp)
    c582:	00 00 00 00 
    c586:	48 8d 05 d7 ba 00 00 	lea    0xbad7(%rip),%rax        # 18064 <g_55>
    c58d:	48 89 85 f0 f8 ff ff 	mov    %rax,-0x710(%rbp)
    c594:	48 8d 05 d1 ba 00 00 	lea    0xbad1(%rip),%rax        # 1806c <g_84>
    c59b:	48 89 85 f8 f8 ff ff 	mov    %rax,-0x708(%rbp)
    c5a2:	48 c7 85 00 f9 ff ff 	movq   $0x0,-0x700(%rbp)
    c5a9:	00 00 00 00 
    c5ad:	48 8d 85 d0 f0 ff ff 	lea    -0xf30(%rbp),%rax
    c5b4:	48 83 c0 4c          	add    $0x4c,%rax
    c5b8:	48 89 85 08 f9 ff ff 	mov    %rax,-0x6f8(%rbp)
    c5bf:	48 8d 85 d0 f0 ff ff 	lea    -0xf30(%rbp),%rax
    c5c6:	48 83 c0 38          	add    $0x38,%rax
    c5ca:	48 89 85 10 f9 ff ff 	mov    %rax,-0x6f0(%rbp)
    c5d1:	48 8d 85 ec ed ff ff 	lea    -0x1214(%rbp),%rax
    c5d8:	48 89 85 18 f9 ff ff 	mov    %rax,-0x6e8(%rbp)
    c5df:	48 8d 05 86 ba 00 00 	lea    0xba86(%rip),%rax        # 1806c <g_84>
    c5e6:	48 89 85 20 f9 ff ff 	mov    %rax,-0x6e0(%rbp)
    c5ed:	48 8d 85 d0 f0 ff ff 	lea    -0xf30(%rbp),%rax
    c5f4:	48 83 c0 08          	add    $0x8,%rax
    c5f8:	48 89 85 28 f9 ff ff 	mov    %rax,-0x6d8(%rbp)
    c5ff:	48 8d 85 d0 f0 ff ff 	lea    -0xf30(%rbp),%rax
    c606:	48 83 c0 28          	add    $0x28,%rax
    c60a:	48 89 85 30 f9 ff ff 	mov    %rax,-0x6d0(%rbp)
    c611:	48 8d 05 4c ba 00 00 	lea    0xba4c(%rip),%rax        # 18064 <g_55>
    c618:	48 89 85 38 f9 ff ff 	mov    %rax,-0x6c8(%rbp)
    c61f:	48 8d 05 3e ba 00 00 	lea    0xba3e(%rip),%rax        # 18064 <g_55>
    c626:	48 89 85 40 f9 ff ff 	mov    %rax,-0x6c0(%rbp)
    c62d:	48 8d 05 30 ba 00 00 	lea    0xba30(%rip),%rax        # 18064 <g_55>
    c634:	48 89 85 48 f9 ff ff 	mov    %rax,-0x6b8(%rbp)
    c63b:	48 8d 85 d0 f0 ff ff 	lea    -0xf30(%rbp),%rax
    c642:	48 83 c0 28          	add    $0x28,%rax
    c646:	48 89 85 50 f9 ff ff 	mov    %rax,-0x6b0(%rbp)
    c64d:	48 8d 05 10 ba 00 00 	lea    0xba10(%rip),%rax        # 18064 <g_55>
    c654:	48 89 85 58 f9 ff ff 	mov    %rax,-0x6a8(%rbp)
    c65b:	48 c7 85 60 f9 ff ff 	movq   $0x0,-0x6a0(%rbp)
    c662:	00 00 00 00 
    c666:	48 8d 05 03 ba 00 00 	lea    0xba03(%rip),%rax        # 18070 <g_111>
    c66d:	48 89 85 68 f9 ff ff 	mov    %rax,-0x698(%rbp)
    c674:	48 8d 05 f5 b9 00 00 	lea    0xb9f5(%rip),%rax        # 18070 <g_111>
    c67b:	48 89 85 70 f9 ff ff 	mov    %rax,-0x690(%rbp)
    c682:	48 8d 05 db b9 00 00 	lea    0xb9db(%rip),%rax        # 18064 <g_55>
    c689:	48 89 85 78 f9 ff ff 	mov    %rax,-0x688(%rbp)
    c690:	48 8d 85 ec ed ff ff 	lea    -0x1214(%rbp),%rax
    c697:	48 89 85 80 f9 ff ff 	mov    %rax,-0x680(%rbp)
    c69e:	48 8d 05 bf b9 00 00 	lea    0xb9bf(%rip),%rax        # 18064 <g_55>
    c6a5:	48 89 85 88 f9 ff ff 	mov    %rax,-0x678(%rbp)
    c6ac:	48 8d 85 d0 f0 ff ff 	lea    -0xf30(%rbp),%rax
    c6b3:	48 83 c0 14          	add    $0x14,%rax
    c6b7:	48 89 85 90 f9 ff ff 	mov    %rax,-0x670(%rbp)
    c6be:	48 8d 05 ab b9 00 00 	lea    0xb9ab(%rip),%rax        # 18070 <g_111>
    c6c5:	48 89 85 98 f9 ff ff 	mov    %rax,-0x668(%rbp)
    c6cc:	48 c7 85 a0 f9 ff ff 	movq   $0x0,-0x660(%rbp)
    c6d3:	00 00 00 00 
    c6d7:	48 8d 05 92 b9 00 00 	lea    0xb992(%rip),%rax        # 18070 <g_111>
    c6de:	48 89 85 a8 f9 ff ff 	mov    %rax,-0x658(%rbp)
    c6e5:	48 c7 85 b0 f9 ff ff 	movq   $0x0,-0x650(%rbp)
    c6ec:	00 00 00 00 
    c6f0:	48 8d 05 6d b9 00 00 	lea    0xb96d(%rip),%rax        # 18064 <g_55>
    c6f7:	48 89 85 b8 f9 ff ff 	mov    %rax,-0x648(%rbp)
    c6fe:	48 8d 05 8b b9 00 00 	lea    0xb98b(%rip),%rax        # 18090 <g_426>
    c705:	48 89 85 c0 f9 ff ff 	mov    %rax,-0x640(%rbp)
    c70c:	48 c7 85 c8 f9 ff ff 	movq   $0x0,-0x638(%rbp)
    c713:	00 00 00 00 
    c717:	48 8d 05 52 b9 00 00 	lea    0xb952(%rip),%rax        # 18070 <g_111>
    c71e:	48 89 85 d0 f9 ff ff 	mov    %rax,-0x630(%rbp)
    c725:	48 8d 05 40 b9 00 00 	lea    0xb940(%rip),%rax        # 1806c <g_84>
    c72c:	48 89 85 d8 f9 ff ff 	mov    %rax,-0x628(%rbp)
    c733:	48 8d 05 36 b9 00 00 	lea    0xb936(%rip),%rax        # 18070 <g_111>
    c73a:	48 89 85 e0 f9 ff ff 	mov    %rax,-0x620(%rbp)
    c741:	48 8d 05 1c b9 00 00 	lea    0xb91c(%rip),%rax        # 18064 <g_55>
    c748:	48 89 85 e8 f9 ff ff 	mov    %rax,-0x618(%rbp)
    c74f:	48 c7 85 f0 f9 ff ff 	movq   $0x0,-0x610(%rbp)
    c756:	00 00 00 00 
    c75a:	48 8d 85 d0 f0 ff ff 	lea    -0xf30(%rbp),%rax
    c761:	48 83 c0 14          	add    $0x14,%rax
    c765:	48 89 85 f8 f9 ff ff 	mov    %rax,-0x608(%rbp)
    c76c:	48 8d 05 f1 b8 00 00 	lea    0xb8f1(%rip),%rax        # 18064 <g_55>
    c773:	48 89 85 00 fa ff ff 	mov    %rax,-0x600(%rbp)
    c77a:	48 c7 85 08 fa ff ff 	movq   $0x0,-0x5f8(%rbp)
    c781:	00 00 00 00 
    c785:	48 8d 05 04 b9 00 00 	lea    0xb904(%rip),%rax        # 18090 <g_426>
    c78c:	48 89 85 10 fa ff ff 	mov    %rax,-0x5f0(%rbp)
    c793:	48 8d 85 d0 f0 ff ff 	lea    -0xf30(%rbp),%rax
    c79a:	48 83 c0 08          	add    $0x8,%rax
    c79e:	48 89 85 18 fa ff ff 	mov    %rax,-0x5e8(%rbp)
    c7a5:	48 8d 05 c0 b8 00 00 	lea    0xb8c0(%rip),%rax        # 1806c <g_84>
    c7ac:	48 89 85 20 fa ff ff 	mov    %rax,-0x5e0(%rbp)
    c7b3:	48 8d 05 b6 b8 00 00 	lea    0xb8b6(%rip),%rax        # 18070 <g_111>
    c7ba:	48 89 85 28 fa ff ff 	mov    %rax,-0x5d8(%rbp)
    c7c1:	48 8d 85 d0 f0 ff ff 	lea    -0xf30(%rbp),%rax
    c7c8:	48 83 c0 38          	add    $0x38,%rax
    c7cc:	48 89 85 30 fa ff ff 	mov    %rax,-0x5d0(%rbp)
    c7d3:	48 8d 05 b6 b8 00 00 	lea    0xb8b6(%rip),%rax        # 18090 <g_426>
    c7da:	48 89 85 38 fa ff ff 	mov    %rax,-0x5c8(%rbp)
    c7e1:	48 8d 85 ec ed ff ff 	lea    -0x1214(%rbp),%rax
    c7e8:	48 89 85 40 fa ff ff 	mov    %rax,-0x5c0(%rbp)
    c7ef:	48 8d 05 76 b8 00 00 	lea    0xb876(%rip),%rax        # 1806c <g_84>
    c7f6:	48 89 85 48 fa ff ff 	mov    %rax,-0x5b8(%rbp)
    c7fd:	48 8d 05 6c b8 00 00 	lea    0xb86c(%rip),%rax        # 18070 <g_111>
    c804:	48 89 85 50 fa ff ff 	mov    %rax,-0x5b0(%rbp)
    c80b:	48 8d 85 ec ed ff ff 	lea    -0x1214(%rbp),%rax
    c812:	48 89 85 58 fa ff ff 	mov    %rax,-0x5a8(%rbp)
    c819:	48 8d 05 44 b8 00 00 	lea    0xb844(%rip),%rax        # 18064 <g_55>
    c820:	48 89 85 60 fa ff ff 	mov    %rax,-0x5a0(%rbp)
    c827:	48 8d 85 d0 f0 ff ff 	lea    -0xf30(%rbp),%rax
    c82e:	48 83 c0 14          	add    $0x14,%rax
    c832:	48 89 85 68 fa ff ff 	mov    %rax,-0x598(%rbp)
    c839:	48 8d 85 ec ed ff ff 	lea    -0x1214(%rbp),%rax
    c840:	48 89 85 70 fa ff ff 	mov    %rax,-0x590(%rbp)
    c847:	48 c7 85 78 fa ff ff 	movq   $0x0,-0x588(%rbp)
    c84e:	00 00 00 00 
    c852:	48 8d 05 0b b8 00 00 	lea    0xb80b(%rip),%rax        # 18064 <g_55>
    c859:	48 89 85 80 fa ff ff 	mov    %rax,-0x580(%rbp)
    c860:	48 8d 05 09 b8 00 00 	lea    0xb809(%rip),%rax        # 18070 <g_111>
    c867:	48 89 85 88 fa ff ff 	mov    %rax,-0x578(%rbp)
    c86e:	48 c7 85 90 fa ff ff 	movq   $0x0,-0x570(%rbp)
    c875:	00 00 00 00 
    c879:	48 c7 85 98 fa ff ff 	movq   $0x0,-0x568(%rbp)
    c880:	00 00 00 00 
    c884:	48 8d 05 05 b8 00 00 	lea    0xb805(%rip),%rax        # 18090 <g_426>
    c88b:	48 89 85 a0 fa ff ff 	mov    %rax,-0x560(%rbp)
    c892:	48 c7 85 a8 fa ff ff 	movq   $0x0,-0x558(%rbp)
    c899:	00 00 00 00 
    c89d:	48 8d 05 c0 b7 00 00 	lea    0xb7c0(%rip),%rax        # 18064 <g_55>
    c8a4:	48 89 85 b0 fa ff ff 	mov    %rax,-0x550(%rbp)
    c8ab:	48 8d 85 d0 f0 ff ff 	lea    -0xf30(%rbp),%rax
    c8b2:	48 83 c0 14          	add    $0x14,%rax
    c8b6:	48 89 85 b8 fa ff ff 	mov    %rax,-0x548(%rbp)
    c8bd:	48 8d 05 cc b7 00 00 	lea    0xb7cc(%rip),%rax        # 18090 <g_426>
    c8c4:	48 89 85 c0 fa ff ff 	mov    %rax,-0x540(%rbp)
    c8cb:	48 8d 85 d0 f0 ff ff 	lea    -0xf30(%rbp),%rax
    c8d2:	48 83 c0 28          	add    $0x28,%rax
    c8d6:	48 89 85 c8 fa ff ff 	mov    %rax,-0x538(%rbp)
    c8dd:	48 8d 05 8c b7 00 00 	lea    0xb78c(%rip),%rax        # 18070 <g_111>
    c8e4:	48 89 85 d0 fa ff ff 	mov    %rax,-0x530(%rbp)
    c8eb:	48 8d 05 7a b7 00 00 	lea    0xb77a(%rip),%rax        # 1806c <g_84>
    c8f2:	48 89 85 d8 fa ff ff 	mov    %rax,-0x528(%rbp)
    c8f9:	48 8d 85 ec ed ff ff 	lea    -0x1214(%rbp),%rax
    c900:	48 89 85 e0 fa ff ff 	mov    %rax,-0x520(%rbp)
    c907:	48 c7 85 e8 fa ff ff 	movq   $0x0,-0x518(%rbp)
    c90e:	00 00 00 00 
    c912:	48 8d 05 53 b7 00 00 	lea    0xb753(%rip),%rax        # 1806c <g_84>
    c919:	48 89 85 f0 fa ff ff 	mov    %rax,-0x510(%rbp)
    c920:	48 c7 85 f8 fa ff ff 	movq   $0x0,-0x508(%rbp)
    c927:	00 00 00 00 
    c92b:	48 c7 85 00 fb ff ff 	movq   $0x0,-0x500(%rbp)
    c932:	00 00 00 00 
    c936:	48 8d 05 33 b7 00 00 	lea    0xb733(%rip),%rax        # 18070 <g_111>
    c93d:	48 89 85 08 fb ff ff 	mov    %rax,-0x4f8(%rbp)
    c944:	48 c7 85 10 fb ff ff 	movq   $0x0,-0x4f0(%rbp)
    c94b:	00 00 00 00 
    c94f:	48 8d 05 1a b7 00 00 	lea    0xb71a(%rip),%rax        # 18070 <g_111>
    c956:	48 89 85 18 fb ff ff 	mov    %rax,-0x4e8(%rbp)
    c95d:	48 8d 05 00 b7 00 00 	lea    0xb700(%rip),%rax        # 18064 <g_55>
    c964:	48 89 85 20 fb ff ff 	mov    %rax,-0x4e0(%rbp)
    c96b:	48 c7 85 28 fb ff ff 	movq   $0x0,-0x4d8(%rbp)
    c972:	00 00 00 00 
    c976:	48 8d 85 ec ed ff ff 	lea    -0x1214(%rbp),%rax
    c97d:	48 89 85 30 fb ff ff 	mov    %rax,-0x4d0(%rbp)
    c984:	48 c7 85 38 fb ff ff 	movq   $0x0,-0x4c8(%rbp)
    c98b:	00 00 00 00 
    c98f:	48 8d 85 ec ed ff ff 	lea    -0x1214(%rbp),%rax
    c996:	48 89 85 40 fb ff ff 	mov    %rax,-0x4c0(%rbp)
    c99d:	48 8d 05 cc b6 00 00 	lea    0xb6cc(%rip),%rax        # 18070 <g_111>
    c9a4:	48 89 85 48 fb ff ff 	mov    %rax,-0x4b8(%rbp)
    c9ab:	48 8d 85 ec ed ff ff 	lea    -0x1214(%rbp),%rax
    c9b2:	48 89 85 50 fb ff ff 	mov    %rax,-0x4b0(%rbp)
    c9b9:	48 8d 85 d0 f0 ff ff 	lea    -0xf30(%rbp),%rax
    c9c0:	48 83 c0 28          	add    $0x28,%rax
    c9c4:	48 89 85 58 fb ff ff 	mov    %rax,-0x4a8(%rbp)
    c9cb:	48 8d 85 d0 f0 ff ff 	lea    -0xf30(%rbp),%rax
    c9d2:	48 83 c0 28          	add    $0x28,%rax
    c9d6:	48 89 85 60 fb ff ff 	mov    %rax,-0x4a0(%rbp)
    c9dd:	48 8d 85 ec ed ff ff 	lea    -0x1214(%rbp),%rax
    c9e4:	48 89 85 68 fb ff ff 	mov    %rax,-0x498(%rbp)
    c9eb:	48 8d 05 72 b6 00 00 	lea    0xb672(%rip),%rax        # 18064 <g_55>
    c9f2:	48 89 85 70 fb ff ff 	mov    %rax,-0x490(%rbp)
    c9f9:	48 8d 05 64 b6 00 00 	lea    0xb664(%rip),%rax        # 18064 <g_55>
    ca00:	48 89 85 78 fb ff ff 	mov    %rax,-0x488(%rbp)
    ca07:	48 8d 05 62 b6 00 00 	lea    0xb662(%rip),%rax        # 18070 <g_111>
    ca0e:	48 89 85 80 fb ff ff 	mov    %rax,-0x480(%rbp)
    ca15:	48 c7 85 88 fb ff ff 	movq   $0x0,-0x478(%rbp)
    ca1c:	00 00 00 00 
    ca20:	48 8d 05 45 b6 00 00 	lea    0xb645(%rip),%rax        # 1806c <g_84>
    ca27:	48 89 85 90 fb ff ff 	mov    %rax,-0x470(%rbp)
    ca2e:	48 8d 85 d0 f0 ff ff 	lea    -0xf30(%rbp),%rax
    ca35:	48 83 c0 38          	add    $0x38,%rax
    ca39:	48 89 85 98 fb ff ff 	mov    %rax,-0x468(%rbp)
    ca40:	48 8d 05 1d b6 00 00 	lea    0xb61d(%rip),%rax        # 18064 <g_55>
    ca47:	48 89 85 a0 fb ff ff 	mov    %rax,-0x460(%rbp)
    ca4e:	48 c7 85 a8 fb ff ff 	movq   $0x0,-0x458(%rbp)
    ca55:	00 00 00 00 
    ca59:	48 c7 85 b0 fb ff ff 	movq   $0x0,-0x450(%rbp)
    ca60:	00 00 00 00 
    ca64:	48 8d 85 d0 f0 ff ff 	lea    -0xf30(%rbp),%rax
    ca6b:	48 89 85 b8 fb ff ff 	mov    %rax,-0x448(%rbp)
    ca72:	48 8d 85 d0 f0 ff ff 	lea    -0xf30(%rbp),%rax
    ca79:	48 83 c0 0c          	add    $0xc,%rax
    ca7d:	48 89 85 c0 fb ff ff 	mov    %rax,-0x440(%rbp)
    ca84:	48 8d 85 ec ed ff ff 	lea    -0x1214(%rbp),%rax
    ca8b:	48 89 85 c8 fb ff ff 	mov    %rax,-0x438(%rbp)
    ca92:	48 8d 05 d7 b5 00 00 	lea    0xb5d7(%rip),%rax        # 18070 <g_111>
    ca99:	48 89 85 d0 fb ff ff 	mov    %rax,-0x430(%rbp)
    caa0:	48 8d 85 d0 f0 ff ff 	lea    -0xf30(%rbp),%rax
    caa7:	48 89 85 d8 fb ff ff 	mov    %rax,-0x428(%rbp)
    caae:	48 c7 85 e0 fb ff ff 	movq   $0x0,-0x420(%rbp)
    cab5:	00 00 00 00 
    cab9:	48 8d 05 64 b5 00 00 	lea    0xb564(%rip),%rax        # 18024 <g_3>
    cac0:	48 89 85 e8 fb ff ff 	mov    %rax,-0x418(%rbp)
    cac7:	48 8d 05 a2 b5 00 00 	lea    0xb5a2(%rip),%rax        # 18070 <g_111>
    cace:	48 89 85 f0 fb ff ff 	mov    %rax,-0x410(%rbp)
    cad5:	48 8d 05 94 b5 00 00 	lea    0xb594(%rip),%rax        # 18070 <g_111>
    cadc:	48 89 85 f8 fb ff ff 	mov    %rax,-0x408(%rbp)
    cae3:	48 c7 85 00 fc ff ff 	movq   $0x0,-0x400(%rbp)
    caea:	00 00 00 00 
    caee:	48 8d 05 2f b5 00 00 	lea    0xb52f(%rip),%rax        # 18024 <g_3>
    caf5:	48 89 85 08 fc ff ff 	mov    %rax,-0x3f8(%rbp)
    cafc:	48 8d 85 ec ed ff ff 	lea    -0x1214(%rbp),%rax
    cb03:	48 89 85 10 fc ff ff 	mov    %rax,-0x3f0(%rbp)
    cb0a:	48 8d 05 5b b5 00 00 	lea    0xb55b(%rip),%rax        # 1806c <g_84>
    cb11:	48 89 85 18 fc ff ff 	mov    %rax,-0x3e8(%rbp)
    cb18:	48 8d 05 45 b5 00 00 	lea    0xb545(%rip),%rax        # 18064 <g_55>
    cb1f:	48 89 85 20 fc ff ff 	mov    %rax,-0x3e0(%rbp)
    cb26:	48 8d 85 d0 f0 ff ff 	lea    -0xf30(%rbp),%rax
    cb2d:	48 83 c0 14          	add    $0x14,%rax
    cb31:	48 89 85 28 fc ff ff 	mov    %rax,-0x3d8(%rbp)
    cb38:	48 8d 05 2d b5 00 00 	lea    0xb52d(%rip),%rax        # 1806c <g_84>
    cb3f:	48 89 85 30 fc ff ff 	mov    %rax,-0x3d0(%rbp)
    cb46:	48 8d 05 17 b5 00 00 	lea    0xb517(%rip),%rax        # 18064 <g_55>
    cb4d:	48 89 85 38 fc ff ff 	mov    %rax,-0x3c8(%rbp)
    cb54:	48 8d 85 d0 f0 ff ff 	lea    -0xf30(%rbp),%rax
    cb5b:	48 83 c0 14          	add    $0x14,%rax
    cb5f:	48 89 85 40 fc ff ff 	mov    %rax,-0x3c0(%rbp)
    cb66:	48 c7 85 48 fc ff ff 	movq   $0x0,-0x3b8(%rbp)
    cb6d:	00 00 00 00 
    cb71:	48 8d 05 f4 b4 00 00 	lea    0xb4f4(%rip),%rax        # 1806c <g_84>
    cb78:	48 89 85 50 fc ff ff 	mov    %rax,-0x3b0(%rbp)
    cb7f:	48 c7 85 58 fc ff ff 	movq   $0x0,-0x3a8(%rbp)
    cb86:	00 00 00 00 
    cb8a:	48 8d 05 93 b4 00 00 	lea    0xb493(%rip),%rax        # 18024 <g_3>
    cb91:	48 89 85 60 fc ff ff 	mov    %rax,-0x3a0(%rbp)
    cb98:	48 8d 85 d0 f0 ff ff 	lea    -0xf30(%rbp),%rax
    cb9f:	48 83 c0 6c          	add    $0x6c,%rax
    cba3:	48 89 85 68 fc ff ff 	mov    %rax,-0x398(%rbp)
    cbaa:	48 8d 85 ec ed ff ff 	lea    -0x1214(%rbp),%rax
    cbb1:	48 89 85 70 fc ff ff 	mov    %rax,-0x390(%rbp)
    cbb8:	48 8d 05 b1 b4 00 00 	lea    0xb4b1(%rip),%rax        # 18070 <g_111>
    cbbf:	48 89 85 78 fc ff ff 	mov    %rax,-0x388(%rbp)
    cbc6:	48 8d 85 d0 f0 ff ff 	lea    -0xf30(%rbp),%rax
    cbcd:	48 89 85 80 fc ff ff 	mov    %rax,-0x380(%rbp)
    cbd4:	48 8d 05 95 b4 00 00 	lea    0xb495(%rip),%rax        # 18070 <g_111>
    cbdb:	48 89 85 88 fc ff ff 	mov    %rax,-0x378(%rbp)
    cbe2:	48 8d 85 d0 f0 ff ff 	lea    -0xf30(%rbp),%rax
    cbe9:	48 89 85 90 fc ff ff 	mov    %rax,-0x370(%rbp)
    cbf0:	48 8d 85 d0 f0 ff ff 	lea    -0xf30(%rbp),%rax
    cbf7:	48 83 c0 6c          	add    $0x6c,%rax
    cbfb:	48 89 85 98 fc ff ff 	mov    %rax,-0x368(%rbp)
    cc02:	48 8d 05 5b b4 00 00 	lea    0xb45b(%rip),%rax        # 18064 <g_55>
    cc09:	48 89 85 a0 fc ff ff 	mov    %rax,-0x360(%rbp)
    cc10:	48 8d 85 d0 f0 ff ff 	lea    -0xf30(%rbp),%rax
    cc17:	48 89 85 a8 fc ff ff 	mov    %rax,-0x358(%rbp)
    cc1e:	48 8d 05 47 b4 00 00 	lea    0xb447(%rip),%rax        # 1806c <g_84>
    cc25:	48 89 85 b0 fc ff ff 	mov    %rax,-0x350(%rbp)
    cc2c:	48 8d 05 3d b4 00 00 	lea    0xb43d(%rip),%rax        # 18070 <g_111>
    cc33:	48 89 85 b8 fc ff ff 	mov    %rax,-0x348(%rbp)
    cc3a:	48 8d 85 f0 ed ff ff 	lea    -0x1210(%rbp),%rax
    cc41:	48 89 85 40 ef ff ff 	mov    %rax,-0x10c0(%rbp)
    cc48:	48 8d 05 19 d1 00 00 	lea    0xd119(%rip),%rax        # 19d68 <g_654>
    cc4f:	48 89 85 80 f0 ff ff 	mov    %rax,-0xf80(%rbp)
    cc56:	48 8d 05 0b d1 00 00 	lea    0xd10b(%rip),%rax        # 19d68 <g_654>
    cc5d:	48 89 85 88 f0 ff ff 	mov    %rax,-0xf78(%rbp)
    cc64:	48 8d 05 fd d0 00 00 	lea    0xd0fd(%rip),%rax        # 19d68 <g_654>
    cc6b:	48 89 85 90 f0 ff ff 	mov    %rax,-0xf70(%rbp)
    cc72:	48 8d 05 ef d0 00 00 	lea    0xd0ef(%rip),%rax        # 19d68 <g_654>
    cc79:	48 89 85 98 f0 ff ff 	mov    %rax,-0xf68(%rbp)
    cc80:	48 8d 05 e1 d0 00 00 	lea    0xd0e1(%rip),%rax        # 19d68 <g_654>
    cc87:	48 89 85 a0 f0 ff ff 	mov    %rax,-0xf60(%rbp)
    cc8e:	48 8d 05 d3 d0 00 00 	lea    0xd0d3(%rip),%rax        # 19d68 <g_654>
    cc95:	48 89 85 a8 f0 ff ff 	mov    %rax,-0xf58(%rbp)
    cc9c:	48 8d 05 c5 d0 00 00 	lea    0xd0c5(%rip),%rax        # 19d68 <g_654>
    cca3:	48 89 85 b0 f0 ff ff 	mov    %rax,-0xf50(%rbp)
    ccaa:	48 8d 05 b7 d0 00 00 	lea    0xd0b7(%rip),%rax        # 19d68 <g_654>
    ccb1:	48 89 85 b8 f0 ff ff 	mov    %rax,-0xf48(%rbp)
    ccb8:	48 8d 05 a9 d0 00 00 	lea    0xd0a9(%rip),%rax        # 19d68 <g_654>
    ccbf:	48 89 85 c0 f0 ff ff 	mov    %rax,-0xf40(%rbp)
    ccc6:	48 8d 05 9b d0 00 00 	lea    0xd09b(%rip),%rax        # 19d68 <g_654>
    cccd:	48 89 85 c8 f0 ff ff 	mov    %rax,-0xf38(%rbp)
    ccd4:	c7 85 04 ee ff ff 00 	movl   $0x0,-0x11fc(%rbp)
    ccdb:	00 00 00 
    ccde:	eb 51                	jmp    cd31 <func_52+0x1c5b>
    cce0:	c7 85 08 ee ff ff 00 	movl   $0x0,-0x11f8(%rbp)
    cce7:	00 00 00 
    ccea:	eb 35                	jmp    cd21 <func_52+0x1c4b>
    ccec:	8b 85 08 ee ff ff    	mov    -0x11f8(%rbp),%eax
    ccf2:	48 63 c8             	movslq %eax,%rcx
    ccf5:	8b 85 04 ee ff ff    	mov    -0x11fc(%rbp),%eax
    ccfb:	48 63 d0             	movslq %eax,%rdx
    ccfe:	48 89 d0             	mov    %rdx,%rax
    cd01:	48 c1 e0 03          	shl    $0x3,%rax
    cd05:	48 01 d0             	add    %rdx,%rax
    cd08:	48 01 c8             	add    %rcx,%rax
    cd0b:	48 8d 15 66 ce 00 00 	lea    0xce66(%rip),%rdx        # 19b78 <g_317>
    cd12:	48 89 94 c5 a0 f2 ff 	mov    %rdx,-0xd60(%rbp,%rax,8)
    cd19:	ff 
    cd1a:	83 85 08 ee ff ff 01 	addl   $0x1,-0x11f8(%rbp)
    cd21:	83 bd 08 ee ff ff 08 	cmpl   $0x8,-0x11f8(%rbp)
    cd28:	7e c2                	jle    ccec <func_52+0x1c16>
    cd2a:	83 85 04 ee ff ff 01 	addl   $0x1,-0x11fc(%rbp)
    cd31:	83 bd 04 ee ff ff 02 	cmpl   $0x2,-0x11fc(%rbp)
    cd38:	7e a6                	jle    cce0 <func_52+0x1c0a>
    cd3a:	c6 05 48 b3 00 00 00 	movb   $0x0,0xb348(%rip)        # 18089 <g_308>
    cd41:	90                   	nop
    cd42:	0f b6 05 40 b3 00 00 	movzbl 0xb340(%rip),%eax        # 18089 <g_308>
    cd49:	3c 02                	cmp    $0x2,%al
    cd4b:	0f 87 cb 02 00 00    	ja     d01c <func_52+0x1f46>
    cd51:	48 8d 05 70 b3 00 00 	lea    0xb370(%rip),%rax        # 180c8 <g_479>
    cd58:	48 89 85 f0 ef ff ff 	mov    %rax,-0x1010(%rbp)
    cd5f:	48 8d 85 e8 ed ff ff 	lea    -0x1218(%rbp),%rax
    cd66:	48 89 85 f8 ef ff ff 	mov    %rax,-0x1008(%rbp)
    cd6d:	c7 85 0c ee ff ff 00 	movl   $0x0,-0x11f4(%rbp)
    cd74:	00 00 00 
    cd77:	eb 1e                	jmp    cd97 <func_52+0x1cc1>
    cd79:	8b 85 0c ee ff ff    	mov    -0x11f4(%rbp),%eax
    cd7f:	48 98                	cltq   
    cd81:	48 8d 15 e4 b2 00 00 	lea    0xb2e4(%rip),%rdx        # 1806c <g_84>
    cd88:	48 89 94 c5 80 f3 ff 	mov    %rdx,-0xc80(%rbp,%rax,8)
    cd8f:	ff 
    cd90:	83 85 0c ee ff ff 01 	addl   $0x1,-0x11f4(%rbp)
    cd97:	83 bd 0c ee ff ff 00 	cmpl   $0x0,-0x11f4(%rbp)
    cd9e:	7e d9                	jle    cd79 <func_52+0x1ca3>
    cda0:	c7 85 0c ee ff ff 00 	movl   $0x0,-0x11f4(%rbp)
    cda7:	00 00 00 
    cdaa:	eb 1e                	jmp    cdca <func_52+0x1cf4>
    cdac:	8b 85 0c ee ff ff    	mov    -0x11f4(%rbp),%eax
    cdb2:	48 98                	cltq   
    cdb4:	48 8d 15 11 b3 00 00 	lea    0xb311(%rip),%rdx        # 180cc <g_481>
    cdbb:	48 89 94 c5 80 f4 ff 	mov    %rdx,-0xb80(%rbp,%rax,8)
    cdc2:	ff 
    cdc3:	83 85 0c ee ff ff 01 	addl   $0x1,-0x11f4(%rbp)
    cdca:	83 bd 0c ee ff ff 02 	cmpl   $0x2,-0x11f4(%rbp)
    cdd1:	7e d9                	jle    cdac <func_52+0x1cd6>
    cdd3:	8b 05 8b b2 00 00    	mov    0xb28b(%rip),%eax        # 18064 <g_55>
    cdd9:	0f b7 15 a0 b2 00 00 	movzwl 0xb2a0(%rip),%edx        # 18080 <g_183>
    cde0:	0f b7 d2             	movzwl %dx,%edx
    cde3:	48 63 ca             	movslq %edx,%rcx
    cde6:	48 63 d0             	movslq %eax,%rdx
    cde9:	48 89 d0             	mov    %rdx,%rax
    cdec:	48 01 c0             	add    %rax,%rax
    cdef:	48 01 d0             	add    %rdx,%rax
    cdf2:	48 01 c8             	add    %rcx,%rax
    cdf5:	48 8d 14 00          	lea    (%rax,%rax,1),%rdx
    cdf9:	48 8d 05 40 b2 00 00 	lea    0xb240(%rip),%rax        # 18040 <g_54>
    ce00:	0f b7 04 02          	movzwl (%rdx,%rax,1),%eax
    ce04:	0f bf d0             	movswl %ax,%edx
    ce07:	8b 85 f0 ed ff ff    	mov    -0x1210(%rbp),%eax
    ce0d:	21 d0                	and    %edx,%eax
    ce0f:	89 85 f0 ed ff ff    	mov    %eax,-0x1210(%rbp)
    ce15:	8b 1d 75 b2 00 00    	mov    0xb275(%rip),%ebx        # 18090 <g_426>
    ce1b:	0f b7 05 5e b2 00 00 	movzwl 0xb25e(%rip),%eax        # 18080 <g_183>
    ce22:	0f b7 c0             	movzwl %ax,%eax
    ce25:	8d 50 01             	lea    0x1(%rax),%edx
    ce28:	0f b6 05 5a b2 00 00 	movzbl 0xb25a(%rip),%eax        # 18089 <g_308>
    ce2f:	0f b6 c0             	movzbl %al,%eax
    ce32:	48 63 c8             	movslq %eax,%rcx
    ce35:	48 63 d2             	movslq %edx,%rdx
    ce38:	48 89 d0             	mov    %rdx,%rax
    ce3b:	48 01 c0             	add    %rax,%rax
    ce3e:	48 01 d0             	add    %rdx,%rax
    ce41:	48 01 c8             	add    %rcx,%rax
    ce44:	48 8d 14 00          	lea    (%rax,%rax,1),%rdx
    ce48:	48 8d 05 f1 b1 00 00 	lea    0xb1f1(%rip),%rax        # 18040 <g_54>
    ce4f:	0f b7 0c 02          	movzwl (%rdx,%rax,1),%ecx
    ce53:	48 83 bd e0 ee ff ff 	cmpq   $0x0,-0x1120(%rbp)
    ce5a:	00 
    ce5b:	0f 95 c0             	setne  %al
    ce5e:	0f b6 c0             	movzbl %al,%eax
    ce61:	0f b7 15 18 b2 00 00 	movzwl 0xb218(%rip),%edx        # 18080 <g_183>
    ce68:	0f b7 d2             	movzwl %dx,%edx
    ce6b:	8d 72 01             	lea    0x1(%rdx),%esi
    ce6e:	0f b6 15 14 b2 00 00 	movzbl 0xb214(%rip),%edx        # 18089 <g_308>
    ce75:	0f b6 d2             	movzbl %dl,%edx
    ce78:	09 c1                	or     %eax,%ecx
    ce7a:	89 cf                	mov    %ecx,%edi
    ce7c:	4c 63 c2             	movslq %edx,%r8
    ce7f:	48 63 ce             	movslq %esi,%rcx
    ce82:	48 89 c8             	mov    %rcx,%rax
    ce85:	48 01 c0             	add    %rax,%rax
    ce88:	48 01 c8             	add    %rcx,%rax
    ce8b:	4c 01 c0             	add    %r8,%rax
    ce8e:	48 8d 0c 00          	lea    (%rax,%rax,1),%rcx
    ce92:	48 8d 05 a7 b1 00 00 	lea    0xb1a7(%rip),%rax        # 18040 <g_54>
    ce99:	66 89 3c 01          	mov    %di,(%rcx,%rax,1)
    ce9d:	48 63 ca             	movslq %edx,%rcx
    cea0:	48 63 d6             	movslq %esi,%rdx
    cea3:	48 89 d0             	mov    %rdx,%rax
    cea6:	48 01 c0             	add    %rax,%rax
    cea9:	48 01 d0             	add    %rdx,%rax
    ceac:	48 01 c8             	add    %rcx,%rax
    ceaf:	48 8d 14 00          	lea    (%rax,%rax,1),%rdx
    ceb3:	48 8d 05 86 b1 00 00 	lea    0xb186(%rip),%rax        # 18040 <g_54>
    ceba:	44 0f b7 24 02       	movzwl (%rdx,%rax,1),%r12d
    cebf:	8b 85 f0 f0 ff ff    	mov    -0xf10(%rbp),%eax
    cec5:	89 85 2c f1 ff ff    	mov    %eax,-0xed4(%rbp)
    cecb:	8b 85 e8 ed ff ff    	mov    -0x1218(%rbp),%eax
    ced1:	85 c0                	test   %eax,%eax
    ced3:	74 62                	je     cf37 <func_52+0x1e61>
    ced5:	48 8b 85 a0 ee ff ff 	mov    -0x1160(%rbp),%rax
    cedc:	48 c7 00 00 00 00 00 	movq   $0x0,(%rax)
    cee3:	8b 85 f0 ed ff ff    	mov    -0x1210(%rbp),%eax
    cee9:	83 f8 07             	cmp    $0x7,%eax
    ceec:	0f 96 c0             	setbe  %al
    ceef:	0f b6 d0             	movzbl %al,%edx
    cef2:	0f b6 05 90 b1 00 00 	movzbl 0xb190(%rip),%eax        # 18089 <g_308>
    cef9:	0f b6 c0             	movzbl %al,%eax
    cefc:	39 c2                	cmp    %eax,%edx
    cefe:	0f 9c c0             	setl   %al
    cf01:	0f b6 d0             	movzbl %al,%edx
    cf04:	48 8b 85 f8 ef ff ff 	mov    -0x1008(%rbp),%rax
    cf0b:	8b 00                	mov    (%rax),%eax
    cf0d:	09 c2                	or     %eax,%edx
    cf0f:	48 8b 85 f8 ef ff ff 	mov    -0x1008(%rbp),%rax
    cf16:	89 10                	mov    %edx,(%rax)
    cf18:	48 8b 85 f8 ef ff ff 	mov    -0x1008(%rbp),%rax
    cf1f:	8b 00                	mov    (%rax),%eax
    cf21:	8b 15 49 b1 00 00    	mov    0xb149(%rip),%edx        # 18070 <g_111>
    cf27:	89 c6                	mov    %eax,%esi
    cf29:	89 d7                	mov    %edx,%edi
    cf2b:	e8 f5 9f ff ff       	callq  6f25 <safe_div_func_uint32_t_u_u>
    cf30:	b8 01 00 00 00       	mov    $0x1,%eax
    cf35:	eb 05                	jmp    cf3c <func_52+0x1e66>
    cf37:	b8 00 00 00 00       	mov    $0x0,%eax
    cf3c:	be 32 f1 06 f6       	mov    $0xf606f132,%esi
    cf41:	89 c7                	mov    %eax,%edi
    cf43:	e8 b7 97 ff ff       	callq  66ff <safe_div_func_int32_t_s_s>
    cf48:	bf 01 00 00 00       	mov    $0x1,%edi
    cf4d:	e8 54 9f ff ff       	callq  6ea6 <safe_unary_minus_func_uint32_t_u>
    cf52:	89 c2                	mov    %eax,%edx
    cf54:	48 8b 05 05 cc 00 00 	mov    0xcc05(%rip),%rax        # 19b60 <g_68>
    cf5b:	0f b6 00             	movzbl (%rax),%eax
    cf5e:	89 c1                	mov    %eax,%ecx
    cf60:	89 d0                	mov    %edx,%eax
    cf62:	09 c1                	or     %eax,%ecx
    cf64:	89 ca                	mov    %ecx,%edx
    cf66:	48 8b 05 f3 cb 00 00 	mov    0xcbf3(%rip),%rax        # 19b60 <g_68>
    cf6d:	88 10                	mov    %dl,(%rax)
    cf6f:	48 8b 05 fa cb 00 00 	mov    0xcbfa(%rip),%rax        # 19b70 <g_182>
    cf76:	0f b7 00             	movzwl (%rax),%eax
    cf79:	0f b7 d0             	movzwl %ax,%edx
    cf7c:	48 8b 85 f0 ef ff ff 	mov    -0x1010(%rbp),%rax
    cf83:	0f b7 00             	movzwl (%rax),%eax
    cf86:	44 89 e1             	mov    %r12d,%ecx
    cf89:	21 c1                	and    %eax,%ecx
    cf8b:	48 8b 85 f0 ef ff ff 	mov    -0x1010(%rbp),%rax
    cf92:	66 89 08             	mov    %cx,(%rax)
    cf95:	48 8b 85 f0 ef ff ff 	mov    -0x1010(%rbp),%rax
    cf9c:	0f b7 00             	movzwl (%rax),%eax
    cf9f:	98                   	cwtl   
    cfa0:	39 c2                	cmp    %eax,%edx
    cfa2:	0f 9c c2             	setl   %dl
    cfa5:	8b 05 e1 b0 00 00    	mov    0xb0e1(%rip),%eax        # 1808c <g_355>
    cfab:	85 c0                	test   %eax,%eax
    cfad:	0f 94 c0             	sete   %al
    cfb0:	09 d0                	or     %edx,%eax
    cfb2:	0f b6 c0             	movzbl %al,%eax
    cfb5:	be 02 00 00 00       	mov    $0x2,%esi
    cfba:	89 c7                	mov    %eax,%edi
    cfbc:	e8 b9 9e ff ff       	callq  6e7a <safe_rshift_func_uint16_t_u_u>
    cfc1:	0f b7 c0             	movzwl %ax,%eax
    cfc4:	89 de                	mov    %ebx,%esi
    cfc6:	89 c7                	mov    %eax,%edi
    cfc8:	e8 f1 9d ff ff       	callq  6dbe <safe_lshift_func_uint16_t_u_s>
    cfcd:	8b 85 d0 f0 ff ff    	mov    -0xf30(%rbp),%eax
    cfd3:	89 c2                	mov    %eax,%edx
    cfd5:	8b 85 f0 ed ff ff    	mov    -0x1210(%rbp),%eax
    cfdb:	39 c2                	cmp    %eax,%edx
    cfdd:	74 08                	je     cfe7 <func_52+0x1f11>
    cfdf:	8b 85 18 f1 ff ff    	mov    -0xee8(%rbp),%eax
    cfe5:	85 c0                	test   %eax,%eax
    cfe7:	48 8b 05 72 cb 00 00 	mov    0xcb72(%rip),%rax        # 19b60 <g_68>
    cfee:	0f b6 00             	movzbl (%rax),%eax
    cff1:	0f be d0             	movsbl %al,%edx
    cff4:	8b 85 f0 ed ff ff    	mov    -0x1210(%rbp),%eax
    cffa:	39 c2                	cmp    %eax,%edx
    cffc:	0f 94 c0             	sete   %al
    cfff:	0f b6 d0             	movzbl %al,%edx
    d002:	8b 85 ec ed ff ff    	mov    -0x1214(%rbp),%eax
    d008:	09 d0                	or     %edx,%eax
    d00a:	89 85 ec ed ff ff    	mov    %eax,-0x1214(%rbp)
    d010:	48 8d 05 55 b0 00 00 	lea    0xb055(%rip),%rax        # 1806c <g_84>
    d017:	e9 d5 18 00 00       	jmpq   e8f1 <func_52+0x381b>
    d01c:	48 8b 05 55 cb 00 00 	mov    0xcb55(%rip),%rax        # 19b78 <g_317>
    d023:	0f b6 00             	movzbl (%rax),%eax
    d026:	0f be d8             	movsbl %al,%ebx
    d029:	0f b6 05 58 b0 00 00 	movzbl 0xb058(%rip),%eax        # 18088 <g_217>
    d030:	66 98                	cbtw   
    d032:	44 0f b7 e0          	movzwl %ax,%r12d
    d036:	48 8b 05 23 cb 00 00 	mov    0xcb23(%rip),%rax        # 19b60 <g_68>
    d03d:	0f b6 00             	movzbl (%rax),%eax
    d040:	0f be c0             	movsbl %al,%eax
    d043:	89 c6                	mov    %eax,%esi
    d045:	bf fa 00 00 00       	mov    $0xfa,%edi
    d04a:	e8 3e 9c ff ff       	callq  6c8d <safe_rshift_func_uint8_t_u_s>
    d04f:	48 8b 05 1a cb 00 00 	mov    0xcb1a(%rip),%rax        # 19b70 <g_182>
    d056:	0f b7 00             	movzwl (%rax),%eax
    d059:	44 0f b7 e8          	movzwl %ax,%r13d
    d05d:	48 8b 05 fc ca 00 00 	mov    0xcafc(%rip),%rax        # 19b60 <g_68>
    d064:	0f b6 00             	movzbl (%rax),%eax
    d067:	44 0f be f0          	movsbl %al,%r14d
    d06b:	48 83 bd f8 ee ff ff 	cmpq   $0x0,-0x1108(%rbp)
    d072:	00 
    d073:	0f 95 c0             	setne  %al
    d076:	0f b6 c0             	movzbl %al,%eax
    d079:	89 c6                	mov    %eax,%esi
    d07b:	bf 01 00 00 00       	mov    $0x1,%edi
    d080:	e8 9a 9c ff ff       	callq  6d1f <safe_sub_func_uint16_t_u_u>
    d085:	0f be c0             	movsbl %al,%eax
    d088:	44 89 f6             	mov    %r14d,%esi
    d08b:	89 c7                	mov    %eax,%edi
    d08d:	e8 80 91 ff ff       	callq  6212 <safe_mul_func_int8_t_s_s>
    d092:	0f be c0             	movsbl %al,%eax
    d095:	44 89 ee             	mov    %r13d,%esi
    d098:	89 c7                	mov    %eax,%edi
    d09a:	e8 c4 94 ff ff       	callq  6563 <safe_rshift_func_int16_t_s_u>
    d09f:	0f b6 05 ce af 00 00 	movzbl 0xafce(%rip),%eax        # 18074 <g_149>
    d0a6:	0f b6 d0             	movzbl %al,%edx
    d0a9:	0f b6 05 d8 af 00 00 	movzbl 0xafd8(%rip),%eax        # 18088 <g_217>
    d0b0:	0f be c0             	movsbl %al,%eax
    d0b3:	89 d6                	mov    %edx,%esi
    d0b5:	89 c7                	mov    %eax,%edi
    d0b7:	e8 39 93 ff ff       	callq  63f5 <safe_mul_func_int16_t_s_s>
    d0bc:	98                   	cwtl   
    d0bd:	89 c7                	mov    %eax,%edi
    d0bf:	e8 d9 92 ff ff       	callq  639d <safe_unary_minus_func_int16_t_s>
    d0c4:	48 0f bf d0          	movswq %ax,%rdx
    d0c8:	48 8b 05 01 b0 00 00 	mov    0xb001(%rip),%rax        # 180d0 <g_508>
    d0cf:	48 31 d0             	xor    %rdx,%rax
    d0d2:	48 89 05 f7 af 00 00 	mov    %rax,0xaff7(%rip)        # 180d0 <g_508>
    d0d9:	48 8b 15 f0 af 00 00 	mov    0xaff0(%rip),%rdx        # 180d0 <g_508>
    d0e0:	8b 85 f8 ed ff ff    	mov    -0x1208(%rbp),%eax
    d0e6:	48 98                	cltq   
    d0e8:	48 39 c2             	cmp    %rax,%rdx
    d0eb:	0f 95 c0             	setne  %al
    d0ee:	0f b6 c0             	movzbl %al,%eax
    d0f1:	44 89 e6             	mov    %r12d,%esi
    d0f4:	89 c7                	mov    %eax,%edi
    d0f6:	e8 04 9c ff ff       	callq  6cff <safe_add_func_uint16_t_u_u>
    d0fb:	48 8b 85 40 ef ff ff 	mov    -0x10c0(%rbp),%rax
    d102:	c7 00 01 00 00 00    	movl   $0x1,(%rax)
    d108:	83 bd f8 ed ff ff 01 	cmpl   $0x1,-0x1208(%rbp)
    d10f:	0f 94 c0             	sete   %al
    d112:	0f b6 c0             	movzbl %al,%eax
    d115:	89 de                	mov    %ebx,%esi
    d117:	89 c7                	mov    %eax,%edi
    d119:	e8 f4 90 ff ff       	callq  6212 <safe_mul_func_int8_t_s_s>
    d11e:	84 c0                	test   %al,%al
    d120:	0f 84 ca 07 00 00    	je     d8f0 <func_52+0x281a>
    d126:	c7 85 30 ee ff ff fc 	movl   $0xfc5b52fc,-0x11d0(%rbp)
    d12d:	52 5b fc 
    d130:	48 8d 05 39 d8 00 00 	lea    0xd839(%rip),%rax        # 1a970 <g_171>
    d137:	48 89 85 50 ef ff ff 	mov    %rax,-0x10b0(%rbp)
    d13e:	48 8d 85 80 f3 ff ff 	lea    -0xc80(%rbp),%rax
    d145:	48 8d 15 d4 67 00 00 	lea    0x67d4(%rip),%rdx        # 13920 <g_1114+0x18c0>
    d14c:	b9 1f 00 00 00       	mov    $0x1f,%ecx
    d151:	48 89 c7             	mov    %rax,%rdi
    d154:	48 89 d6             	mov    %rdx,%rsi
    d157:	f3 48 a5             	rep movsq %ds:(%rsi),%es:(%rdi)
    d15a:	48 89 f2             	mov    %rsi,%rdx
    d15d:	48 89 f8             	mov    %rdi,%rax
    d160:	8b 0a                	mov    (%rdx),%ecx
    d162:	89 08                	mov    %ecx,(%rax)
    d164:	48 c7 85 58 ef ff ff 	movq   $0x0,-0x10a8(%rbp)
    d16b:	00 00 00 00 
    d16f:	48 c7 85 60 ef ff ff 	movq   $0x8,-0x10a0(%rbp)
    d176:	08 00 00 00 
    d17a:	8b 85 30 ee ff ff    	mov    -0x11d0(%rbp),%eax
    d180:	48 63 d0             	movslq %eax,%rdx
    d183:	48 8b 85 50 ef ff ff 	mov    -0x10b0(%rbp),%rax
    d18a:	48 89 10             	mov    %rdx,(%rax)
    d18d:	48 8b 85 c8 ed ff ff 	mov    -0x1238(%rbp),%rax
    d194:	8b 10                	mov    (%rax),%edx
    d196:	8b 85 94 f3 ff ff    	mov    -0xc6c(%rbp),%eax
    d19c:	31 d0                	xor    %edx,%eax
    d19e:	89 85 94 f3 ff ff    	mov    %eax,-0xc6c(%rbp)
    d1a4:	48 8b 85 c8 ed ff ff 	mov    -0x1238(%rbp),%rax
    d1ab:	8b 00                	mov    (%rax),%eax
    d1ad:	85 c0                	test   %eax,%eax
    d1af:	0f 85 f9 16 00 00    	jne    e8ae <func_52+0x37d8>
    d1b5:	c7 85 f8 ed ff ff e6 	movl   $0xffffffe6,-0x1208(%rbp)
    d1bc:	ff ff ff 
    d1bf:	e9 1d 07 00 00       	jmpq   d8e1 <func_52+0x280b>
    d1c4:	48 8d 85 80 f4 ff ff 	lea    -0xb80(%rbp),%rax
    d1cb:	48 8d 15 4e 68 00 00 	lea    0x684e(%rip),%rdx        # 13a20 <g_1114+0x19c0>
    d1d2:	b9 78 00 00 00       	mov    $0x78,%ecx
    d1d7:	48 89 c7             	mov    %rax,%rdi
    d1da:	48 89 d6             	mov    %rdx,%rsi
    d1dd:	f3 48 a5             	rep movsq %ds:(%rsi),%es:(%rdi)
    d1e0:	c7 85 34 ee ff ff ff 	movl   $0xffffffff,-0x11cc(%rbp)
    d1e7:	ff ff ff 
    d1ea:	c7 85 38 ee ff ff 6b 	movl   $0x4943b16b,-0x11c8(%rbp)
    d1f1:	b1 43 49 
    d1f4:	c7 85 3c ee ff ff f9 	movl   $0xfffffff9,-0x11c4(%rbp)
    d1fb:	ff ff ff 
    d1fe:	c7 85 40 ee ff ff 01 	movl   $0x1,-0x11c0(%rbp)
    d205:	00 00 00 
    d208:	c7 85 44 ee ff ff fd 	movl   $0xfffffffd,-0x11bc(%rbp)
    d20f:	ff ff ff 
    d212:	c7 85 48 ee ff ff 38 	movl   $0xa2001138,-0x11b8(%rbp)
    d219:	11 00 a2 
    d21c:	c7 85 4c ee ff ff 31 	movl   $0x99c4f631,-0x11b4(%rbp)
    d223:	f6 c4 99 
    d226:	c7 85 50 ee ff ff 09 	movl   $0x9,-0x11b0(%rbp)
    d22d:	00 00 00 
    d230:	c7 85 54 ee ff ff 00 	movl   $0x0,-0x11ac(%rbp)
    d237:	00 00 00 
    d23a:	c7 85 58 ee ff ff 2d 	movl   $0xd188df2d,-0x11a8(%rbp)
    d241:	df 88 d1 
    d244:	48 c7 85 68 ef ff ff 	movq   $0x0,-0x1098(%rbp)
    d24b:	00 00 00 00 
    d24f:	48 8b 05 1a c9 00 00 	mov    0xc91a(%rip),%rax        # 19b70 <g_182>
    d256:	0f b7 00             	movzwl (%rax),%eax
    d259:	0f b7 c0             	movzwl %ax,%eax
    d25c:	be 08 00 00 00       	mov    $0x8,%esi
    d261:	89 c7                	mov    %eax,%edi
    d263:	e8 e0 9b ff ff       	callq  6e48 <safe_rshift_func_uint16_t_u_s>
    d268:	83 bd 30 ee ff ff 00 	cmpl   $0x0,-0x11d0(%rbp)
    d26f:	0f 84 35 04 00 00    	je     d6aa <func_52+0x25d4>
    d275:	48 8d 05 d2 ad 00 00 	lea    0xadd2(%rip),%rax        # 1804e <g_54+0xe>
    d27c:	48 89 85 70 ef ff ff 	mov    %rax,-0x1090(%rbp)
    d283:	c7 85 5c ee ff ff 08 	movl   $0x8,-0x11a4(%rbp)
    d28a:	00 00 00 
    d28d:	c7 85 60 ee ff ff 75 	movl   $0xd854d075,-0x11a0(%rbp)
    d294:	d0 54 d8 
    d297:	c7 85 64 ee ff ff 95 	movl   $0x336f4e95,-0x119c(%rbp)
    d29e:	4e 6f 33 
    d2a1:	c7 85 68 ee ff ff 2d 	movl   $0xb581f72d,-0x1198(%rbp)
    d2a8:	f7 81 b5 
    d2ab:	c7 85 6c ee ff ff f9 	movl   $0xfffffff9,-0x1194(%rbp)
    d2b2:	ff ff ff 
    d2b5:	c7 85 50 f1 ff ff 01 	movl   $0x1,-0xeb0(%rbp)
    d2bc:	00 00 00 
    d2bf:	c7 85 54 f1 ff ff ff 	movl   $0xffffffff,-0xeac(%rbp)
    d2c6:	ff ff ff 
    d2c9:	c7 85 58 f1 ff ff 01 	movl   $0x1,-0xea8(%rbp)
    d2d0:	00 00 00 
    d2d3:	c7 85 5c f1 ff ff ff 	movl   $0xffffffff,-0xea4(%rbp)
    d2da:	ff ff ff 
    d2dd:	c7 85 60 f1 ff ff 01 	movl   $0x1,-0xea0(%rbp)
    d2e4:	00 00 00 
    d2e7:	c7 85 64 f1 ff ff ff 	movl   $0xffffffff,-0xe9c(%rbp)
    d2ee:	ff ff ff 
    d2f1:	c7 85 68 f1 ff ff 01 	movl   $0x1,-0xe98(%rbp)
    d2f8:	00 00 00 
    d2fb:	c7 85 6c f1 ff ff 00 	movl   $0x0,-0xe94(%rbp)
    d302:	00 00 00 
    d305:	c7 85 70 f1 ff ff 4c 	movl   $0x8ee22a4c,-0xe90(%rbp)
    d30c:	2a e2 8e 
    d30f:	c7 85 74 f1 ff ff 4c 	movl   $0x8ee22a4c,-0xe8c(%rbp)
    d316:	2a e2 8e 
    d319:	c7 85 78 f1 ff ff 00 	movl   $0x0,-0xe88(%rbp)
    d320:	00 00 00 
    d323:	c7 85 7c f1 ff ff 00 	movl   $0x0,-0xe84(%rbp)
    d32a:	00 00 00 
    d32d:	c7 85 80 f1 ff ff 4c 	movl   $0x8ee22a4c,-0xe80(%rbp)
    d334:	2a e2 8e 
    d337:	c7 85 84 f1 ff ff 4c 	movl   $0x8ee22a4c,-0xe7c(%rbp)
    d33e:	2a e2 8e 
    d341:	c7 85 88 f1 ff ff fd 	movl   $0xfffffffd,-0xe78(%rbp)
    d348:	ff ff ff 
    d34b:	c7 85 8c f1 ff ff ff 	movl   $0xffffffff,-0xe74(%rbp)
    d352:	ff ff ff 
    d355:	c7 85 90 f1 ff ff fd 	movl   $0xfffffffd,-0xe70(%rbp)
    d35c:	ff ff ff 
    d35f:	c7 85 94 f1 ff ff ff 	movl   $0xffffffff,-0xe6c(%rbp)
    d366:	ff ff ff 
    d369:	c7 85 98 f1 ff ff fd 	movl   $0xfffffffd,-0xe68(%rbp)
    d370:	ff ff ff 
    d373:	c7 85 9c f1 ff ff ff 	movl   $0xffffffff,-0xe64(%rbp)
    d37a:	ff ff ff 
    d37d:	c7 85 a0 f1 ff ff fd 	movl   $0xfffffffd,-0xe60(%rbp)
    d384:	ff ff ff 
    d387:	c7 85 a4 f1 ff ff 00 	movl   $0x0,-0xe5c(%rbp)
    d38e:	00 00 00 
    d391:	c7 85 a8 f1 ff ff 00 	movl   $0x0,-0xe58(%rbp)
    d398:	00 00 00 
    d39b:	c7 85 ac f1 ff ff 4c 	movl   $0x8ee22a4c,-0xe54(%rbp)
    d3a2:	2a e2 8e 
    d3a5:	c7 85 b0 f1 ff ff 4c 	movl   $0x8ee22a4c,-0xe50(%rbp)
    d3ac:	2a e2 8e 
    d3af:	c7 85 b4 f1 ff ff 00 	movl   $0x0,-0xe4c(%rbp)
    d3b6:	00 00 00 
    d3b9:	c7 85 b8 f1 ff ff 00 	movl   $0x0,-0xe48(%rbp)
    d3c0:	00 00 00 
    d3c3:	c7 85 bc f1 ff ff 4c 	movl   $0x8ee22a4c,-0xe44(%rbp)
    d3ca:	2a e2 8e 
    d3cd:	c7 85 c0 f1 ff ff 01 	movl   $0x1,-0xe40(%rbp)
    d3d4:	00 00 00 
    d3d7:	c7 85 c4 f1 ff ff ff 	movl   $0xffffffff,-0xe3c(%rbp)
    d3de:	ff ff ff 
    d3e1:	c7 85 c8 f1 ff ff 01 	movl   $0x1,-0xe38(%rbp)
    d3e8:	00 00 00 
    d3eb:	c7 85 cc f1 ff ff ff 	movl   $0xffffffff,-0xe34(%rbp)
    d3f2:	ff ff ff 
    d3f5:	c7 85 d0 f1 ff ff 01 	movl   $0x1,-0xe30(%rbp)
    d3fc:	00 00 00 
    d3ff:	c7 85 d4 f1 ff ff ff 	movl   $0xffffffff,-0xe2c(%rbp)
    d406:	ff ff ff 
    d409:	c7 85 d8 f1 ff ff 01 	movl   $0x1,-0xe28(%rbp)
    d410:	00 00 00 
    d413:	c7 85 10 ee ff ff 00 	movl   $0x0,-0x11f0(%rbp)
    d41a:	00 00 00 
    d41d:	eb 41                	jmp    d460 <func_52+0x238a>
    d41f:	c7 85 14 ee ff ff 00 	movl   $0x0,-0x11ec(%rbp)
    d426:	00 00 00 
    d429:	eb 25                	jmp    d450 <func_52+0x237a>
    d42b:	8b 85 14 ee ff ff    	mov    -0x11ec(%rbp),%eax
    d431:	48 63 d0             	movslq %eax,%rdx
    d434:	8b 85 10 ee ff ff    	mov    -0x11f0(%rbp),%eax
    d43a:	48 98                	cltq   
    d43c:	48 01 d0             	add    %rdx,%rax
    d43f:	66 c7 84 45 50 f0 ff 	movw   $0x2970,-0xfb0(%rbp,%rax,2)
    d446:	ff 70 29 
    d449:	83 85 14 ee ff ff 01 	addl   $0x1,-0x11ec(%rbp)
    d450:	83 bd 14 ee ff ff 00 	cmpl   $0x0,-0x11ec(%rbp)
    d457:	7e d2                	jle    d42b <func_52+0x2355>
    d459:	83 85 10 ee ff ff 01 	addl   $0x1,-0x11f0(%rbp)
    d460:	83 bd 10 ee ff ff 00 	cmpl   $0x0,-0x11f0(%rbp)
    d467:	7e b6                	jle    d41f <func_52+0x2349>
    d469:	8b 95 8c f4 ff ff    	mov    -0xb74(%rbp),%edx
    d46f:	48 8b 85 c8 ed ff ff 	mov    -0x1238(%rbp),%rax
    d476:	8b 00                	mov    (%rax),%eax
    d478:	09 d0                	or     %edx,%eax
    d47a:	89 85 8c f4 ff ff    	mov    %eax,-0xb74(%rbp)
    d480:	0f b7 85 50 f0 ff ff 	movzwl -0xfb0(%rbp),%eax
    d487:	83 c0 01             	add    $0x1,%eax
    d48a:	66 89 85 50 f0 ff ff 	mov    %ax,-0xfb0(%rbp)
    d491:	0f b7 85 50 f0 ff ff 	movzwl -0xfb0(%rbp),%eax
    d498:	0f b6 c0             	movzbl %al,%eax
    d49b:	be 02 00 00 00       	mov    $0x2,%esi
    d4a0:	89 c7                	mov    %eax,%edi
    d4a2:	e8 e6 97 ff ff       	callq  6c8d <safe_rshift_func_uint8_t_u_s>
    d4a7:	0f b6 c0             	movzbl %al,%eax
    d4aa:	89 85 34 ee ff ff    	mov    %eax,-0x11cc(%rbp)
    d4b0:	83 bd 34 ee ff ff 00 	cmpl   $0x0,-0x11cc(%rbp)
    d4b7:	8b 85 94 f3 ff ff    	mov    -0xc6c(%rbp),%eax
    d4bd:	0f bf d8             	movswl %ax,%ebx
    d4c0:	0f b6 05 c2 ab 00 00 	movzbl 0xabc2(%rip),%eax        # 18089 <g_308>
    d4c7:	44 0f b6 e0          	movzbl %al,%r12d
    d4cb:	8b 05 9b ab 00 00    	mov    0xab9b(%rip),%eax        # 1806c <g_84>
    d4d1:	44 0f b6 e8          	movzbl %al,%r13d
    d4d5:	8b 85 60 ee ff ff    	mov    -0x11a0(%rbp),%eax
    d4db:	4c 63 f0             	movslq %eax,%r14
    d4de:	48 8b 05 93 c6 00 00 	mov    0xc693(%rip),%rax        # 19b78 <g_317>
    d4e5:	0f b6 00             	movzbl (%rax),%eax
    d4e8:	44 0f b6 f8          	movzbl %al,%r15d
    d4ec:	8b 85 8c f4 ff ff    	mov    -0xb74(%rbp),%eax
    d4f2:	0f bf d0             	movswl %ax,%edx
    d4f5:	48 8b 85 70 ef ff ff 	mov    -0x1090(%rbp),%rax
    d4fc:	0f b7 00             	movzwl (%rax),%eax
    d4ff:	8b 8d 30 ee ff ff    	mov    -0x11d0(%rbp),%ecx
    d505:	21 c1                	and    %eax,%ecx
    d507:	48 8b 85 70 ef ff ff 	mov    -0x1090(%rbp),%rax
    d50e:	66 89 08             	mov    %cx,(%rax)
    d511:	83 bd 5c ee ff ff 03 	cmpl   $0x3,-0x11a4(%rbp)
    d518:	0f b6 8d e0 ed ff ff 	movzbl -0x1220(%rbp),%ecx
    d51f:	48 8b 05 3a c6 00 00 	mov    0xc63a(%rip),%rax        # 19b60 <g_68>
    d526:	0f b6 00             	movzbl (%rax),%eax
    d529:	0f be c0             	movsbl %al,%eax
    d52c:	39 c1                	cmp    %eax,%ecx
    d52e:	0f 94 c0             	sete   %al
    d531:	0f b6 c0             	movzbl %al,%eax
    d534:	89 d6                	mov    %edx,%esi
    d536:	89 c7                	mov    %eax,%edi
    d538:	e8 96 8e ff ff       	callq  63d3 <safe_sub_func_int16_t_s_s>
    d53d:	66 85 c0             	test   %ax,%ax
    d540:	75 0a                	jne    d54c <func_52+0x2476>
    d542:	8b 05 dc aa 00 00    	mov    0xaadc(%rip),%eax        # 18024 <g_3>
    d548:	85 c0                	test   %eax,%eax
    d54a:	74 07                	je     d553 <func_52+0x247d>
    d54c:	ba 01 00 00 00       	mov    $0x1,%edx
    d551:	eb 05                	jmp    d558 <func_52+0x2482>
    d553:	ba 00 00 00 00       	mov    $0x0,%edx
    d558:	48 8b 05 01 c6 00 00 	mov    0xc601(%rip),%rax        # 19b60 <g_68>
    d55f:	88 10                	mov    %dl,(%rax)
    d561:	0f b6 00             	movzbl (%rax),%eax
    d564:	0f be c0             	movsbl %al,%eax
    d567:	be 7b 00 00 00       	mov    $0x7b,%esi
    d56c:	89 c7                	mov    %eax,%edi
    d56e:	e8 7f 8c ff ff       	callq  61f2 <safe_sub_func_int8_t_s_s>
    d573:	44 89 fe             	mov    %r15d,%esi
    d576:	bf 00 00 00 00       	mov    $0x0,%edi
    d57b:	e8 ec 8d ff ff       	callq  636c <safe_rshift_func_int8_t_s_u>
    d580:	48 8b 05 e9 c5 00 00 	mov    0xc5e9(%rip),%rax        # 19b70 <g_182>
    d587:	0f b7 00             	movzwl (%rax),%eax
    d58a:	0f b7 c0             	movzwl %ax,%eax
    d58d:	be 00 00 00 00       	mov    $0x0,%esi
    d592:	89 c7                	mov    %eax,%edi
    d594:	e8 86 97 ff ff       	callq  6d1f <safe_sub_func_uint16_t_u_u>
    d599:	0f b7 c0             	movzwl %ax,%eax
    d59c:	4c 89 f6             	mov    %r14,%rsi
    d59f:	48 89 c7             	mov    %rax,%rdi
    d5a2:	e8 01 93 ff ff       	callq  68a8 <safe_sub_func_int64_t_s_s>
    d5a7:	0f b6 c0             	movzbl %al,%eax
    d5aa:	44 89 ee             	mov    %r13d,%esi
    d5ad:	89 c7                	mov    %eax,%edi
    d5af:	e8 df 95 ff ff       	callq  6b93 <safe_mul_func_uint8_t_u_u>
    d5b4:	48 8b 05 95 c7 00 00 	mov    0xc795(%rip),%rax        # 19d50 <g_533>
    d5bb:	48 85 c0             	test   %rax,%rax
    d5be:	8b 85 5c ee ff ff    	mov    -0x11a4(%rbp),%eax
    d5c4:	89 c6                	mov    %eax,%esi
    d5c6:	bf ba 5f f3 11       	mov    $0x11f35fba,%edi
    d5cb:	e8 e6 8f ff ff       	callq  65b6 <safe_add_func_int32_t_s_s>
    d5d0:	48 98                	cltq   
    d5d2:	4c 89 e6             	mov    %r12,%rsi
    d5d5:	48 89 c7             	mov    %rax,%rdi
    d5d8:	e8 cb 92 ff ff       	callq  68a8 <safe_sub_func_int64_t_s_s>
    d5dd:	0f b7 05 9c aa 00 00 	movzwl 0xaa9c(%rip),%eax        # 18080 <g_183>
    d5e4:	66 85 c0             	test   %ax,%ax
    d5e7:	74 07                	je     d5f0 <func_52+0x251a>
    d5e9:	b8 01 00 00 00       	mov    $0x1,%eax
    d5ee:	eb 05                	jmp    d5f5 <func_52+0x251f>
    d5f0:	b8 00 00 00 00       	mov    $0x0,%eax
    d5f5:	98                   	cwtl   
    d5f6:	89 de                	mov    %ebx,%esi
    d5f8:	89 c7                	mov    %eax,%edi
    d5fa:	e8 f6 8d ff ff       	callq  63f5 <safe_mul_func_int16_t_s_s>
    d5ff:	48 8b 85 a0 ee ff ff 	mov    -0x1160(%rbp),%rax
    d606:	48 c7 00 00 00 00 00 	movq   $0x0,(%rax)
    d60d:	48 8b 00             	mov    (%rax),%rax
    d610:	48 85 c0             	test   %rax,%rax
    d613:	75 08                	jne    d61d <func_52+0x2547>
    d615:	8b 85 94 f3 ff ff    	mov    -0xc6c(%rbp),%eax
    d61b:	85 c0                	test   %eax,%eax
    d61d:	48 8b 05 54 c5 00 00 	mov    0xc554(%rip),%rax        # 19b78 <g_317>
    d624:	0f b6 00             	movzbl (%rax),%eax
    d627:	0f b6 d0             	movzbl %al,%edx
    d62a:	48 8b 05 3f d3 00 00 	mov    0xd33f(%rip),%rax        # 1a970 <g_171>
    d631:	48 85 c0             	test   %rax,%rax
    d634:	0f 95 c0             	setne  %al
    d637:	0f b6 c0             	movzbl %al,%eax
    d63a:	39 c2                	cmp    %eax,%edx
    d63c:	0f 9c c0             	setl   %al
    d63f:	0f b6 d0             	movzbl %al,%edx
    d642:	8b 05 48 aa 00 00    	mov    0xaa48(%rip),%eax        # 18090 <g_426>
    d648:	21 d0                	and    %edx,%eax
    d64a:	89 05 40 aa 00 00    	mov    %eax,0xaa40(%rip)        # 18090 <g_426>
    d650:	8b 05 ce a9 00 00    	mov    0xa9ce(%rip),%eax        # 18024 <g_3>
    d656:	48 63 d0             	movslq %eax,%rdx
    d659:	48 8b 85 a0 ee ff ff 	mov    -0x1160(%rbp),%rax
    d660:	48 8b 30             	mov    (%rax),%rsi
    d663:	0f b7 85 50 f0 ff ff 	movzwl -0xfb0(%rbp),%eax
    d66a:	66 85 c0             	test   %ax,%ax
    d66d:	0f 94 c0             	sete   %al
    d670:	0f b6 c0             	movzbl %al,%eax
    d673:	48 63 c8             	movslq %eax,%rcx
    d676:	48 8b 85 a0 ee ff ff 	mov    -0x1160(%rbp),%rax
    d67d:	48 31 f1             	xor    %rsi,%rcx
    d680:	48 89 08             	mov    %rcx,(%rax)
    d683:	48 8b 00             	mov    (%rax),%rax
    d686:	48 89 d6             	mov    %rdx,%rsi
    d689:	48 89 c7             	mov    %rax,%rdi
    d68c:	e8 17 92 ff ff       	callq  68a8 <safe_sub_func_int64_t_s_s>
    d691:	89 85 ec ed ff ff    	mov    %eax,-0x1214(%rbp)
    d697:	0f b7 05 3a aa 00 00 	movzwl 0xaa3a(%rip),%eax        # 180d8 <g_568>
    d69e:	83 e8 01             	sub    $0x1,%eax
    d6a1:	66 89 05 30 aa 00 00 	mov    %ax,0xaa30(%rip)        # 180d8 <g_568>
    d6a8:	eb 17                	jmp    d6c1 <func_52+0x25eb>
    d6aa:	8b 15 c0 a9 00 00    	mov    0xa9c0(%rip),%edx        # 18070 <g_111>
    d6b0:	48 8b 85 c8 ed ff ff 	mov    -0x1238(%rbp),%rax
    d6b7:	8b 00                	mov    (%rax),%eax
    d6b9:	21 d0                	and    %edx,%eax
    d6bb:	89 05 af a9 00 00    	mov    %eax,0xa9af(%rip)        # 18070 <g_111>
    d6c1:	48 8b 05 b0 c4 00 00 	mov    0xc4b0(%rip),%rax        # 19b78 <g_317>
    d6c8:	0f b6 00             	movzbl (%rax),%eax
    d6cb:	0f b6 d8             	movzbl %al,%ebx
    d6ce:	48 8b 05 a3 c4 00 00 	mov    0xc4a3(%rip),%rax        # 19b78 <g_317>
    d6d5:	0f b6 00             	movzbl (%rax),%eax
    d6d8:	44 0f b6 e0          	movzbl %al,%r12d
    d6dc:	48 8b 05 95 c4 00 00 	mov    0xc495(%rip),%rax        # 19b78 <g_317>
    d6e3:	0f b6 00             	movzbl (%rax),%eax
    d6e6:	0f b6 d0             	movzbl %al,%edx
    d6e9:	48 8d 05 a0 a9 00 00 	lea    0xa9a0(%rip),%rax        # 18090 <g_426>
    d6f0:	48 39 85 40 ef ff ff 	cmp    %rax,-0x10c0(%rbp)
    d6f7:	0f 94 c1             	sete   %cl
    d6fa:	48 8b 05 5f c4 00 00 	mov    0xc45f(%rip),%rax        # 19b60 <g_68>
    d701:	88 08                	mov    %cl,(%rax)
    d703:	0f b6 00             	movzbl (%rax),%eax
    d706:	0f be c8             	movsbl %al,%ecx
    d709:	8b 85 8c f4 ff ff    	mov    -0xb74(%rbp),%eax
    d70f:	39 c1                	cmp    %eax,%ecx
    d711:	0f 94 c0             	sete   %al
    d714:	89 c1                	mov    %eax,%ecx
    d716:	48 8b 85 c8 ed ff ff 	mov    -0x1238(%rbp),%rax
    d71d:	8b 00                	mov    (%rax),%eax
    d71f:	31 c8                	xor    %ecx,%eax
    d721:	0f be c0             	movsbl %al,%eax
    d724:	89 d6                	mov    %edx,%esi
    d726:	89 c7                	mov    %eax,%edi
    d728:	e8 c1 8b ff ff       	callq  62ee <safe_lshift_func_int8_t_s_u>
    d72d:	0f be d0             	movsbl %al,%edx
    d730:	48 8b 85 c8 ed ff ff 	mov    -0x1238(%rbp),%rax
    d737:	8b 00                	mov    (%rax),%eax
    d739:	39 c2                	cmp    %eax,%edx
    d73b:	48 8b 85 a0 ee ff ff 	mov    -0x1160(%rbp),%rax
    d742:	48 c7 00 01 00 00 00 	movq   $0x1,(%rax)
    d749:	4c 8b 28             	mov    (%rax),%r13
    d74c:	48 8b 05 1d d2 00 00 	mov    0xd21d(%rip),%rax        # 1a970 <g_171>
    d753:	98                   	cwtl   
    d754:	89 c6                	mov    %eax,%esi
    d756:	bf 00 00 00 00       	mov    $0x0,%edi
    d75b:	e8 73 8c ff ff       	callq  63d3 <safe_sub_func_int16_t_s_s>
    d760:	48 0f bf c0          	movswq %ax,%rax
    d764:	4c 89 ee             	mov    %r13,%rsi
    d767:	48 89 c7             	mov    %rax,%rdi
    d76a:	e8 39 91 ff ff       	callq  68a8 <safe_sub_func_int64_t_s_s>
    d76f:	48 85 c0             	test   %rax,%rax
    d772:	48 8b 05 ff c3 00 00 	mov    0xc3ff(%rip),%rax        # 19b78 <g_317>
    d779:	0f b6 00             	movzbl (%rax),%eax
    d77c:	83 c8 01             	or     $0x1,%eax
    d77f:	0f b6 d0             	movzbl %al,%edx
    d782:	48 8b 05 47 a9 00 00 	mov    0xa947(%rip),%rax        # 180d0 <g_508>
    d789:	48 39 c2             	cmp    %rax,%rdx
    d78c:	0f 95 c0             	setne  %al
    d78f:	0f b6 c0             	movzbl %al,%eax
    d792:	89 85 94 f3 ff ff    	mov    %eax,-0xc6c(%rbp)
    d798:	8b 05 2e a9 00 00    	mov    0xa92e(%rip),%eax        # 180cc <g_481>
    d79e:	39 85 38 ee ff ff    	cmp    %eax,-0x11c8(%rbp)
    d7a4:	7c 0c                	jl     d7b2 <func_52+0x26dc>
    d7a6:	0f b7 85 14 f0 ff ff 	movzwl -0xfec(%rbp),%eax
    d7ad:	66 85 c0             	test   %ax,%ax
    d7b0:	74 07                	je     d7b9 <func_52+0x26e3>
    d7b2:	b8 01 00 00 00       	mov    $0x1,%eax
    d7b7:	eb 05                	jmp    d7be <func_52+0x26e8>
    d7b9:	b8 00 00 00 00       	mov    $0x0,%eax
    d7be:	83 f8 15             	cmp    $0x15,%eax
    d7c1:	0f 9f c0             	setg   %al
    d7c4:	0f b6 c0             	movzbl %al,%eax
    d7c7:	44 89 e6             	mov    %r12d,%esi
    d7ca:	89 c7                	mov    %eax,%edi
    d7cc:	e8 c2 93 ff ff       	callq  6b93 <safe_mul_func_uint8_t_u_u>
    d7d1:	0f be c0             	movsbl %al,%eax
    d7d4:	89 de                	mov    %ebx,%esi
    d7d6:	89 c7                	mov    %eax,%edi
    d7d8:	e8 11 8b ff ff       	callq  62ee <safe_lshift_func_int8_t_s_u>
    d7dd:	8b 85 bc f6 ff ff    	mov    -0x944(%rbp),%eax
    d7e3:	89 c0                	mov    %eax,%eax
    d7e5:	48 0b 85 60 ef ff ff 	or     -0x10a0(%rbp),%rax
    d7ec:	48 85 c0             	test   %rax,%rax
    d7ef:	74 0a                	je     d7fb <func_52+0x2725>
    d7f1:	48 8b 05 d8 a8 00 00 	mov    0xa8d8(%rip),%rax        # 180d0 <g_508>
    d7f8:	48 85 c0             	test   %rax,%rax
    d7fb:	48 8b 85 68 ef ff ff 	mov    -0x1098(%rbp),%rax
    d802:	48 3b 85 58 ef ff ff 	cmp    -0x10a8(%rbp),%rax
    d809:	0f 94 c0             	sete   %al
    d80c:	0f b6 d0             	movzbl %al,%edx
    d80f:	8b 85 1c f1 ff ff    	mov    -0xee4(%rbp),%eax
    d815:	31 d0                	xor    %edx,%eax
    d817:	89 85 1c f1 ff ff    	mov    %eax,-0xee4(%rbp)
    d81d:	66 c7 05 b2 a8 00 00 	movw   $0x0,0xa8b2(%rip)        # 180d8 <g_568>
    d824:	00 00 
    d826:	90                   	nop
    d827:	0f b7 05 aa a8 00 00 	movzwl 0xa8aa(%rip),%eax        # 180d8 <g_568>
    d82e:	66 83 f8 35          	cmp    $0x35,%ax
    d832:	76 25                	jbe    d859 <func_52+0x2783>
    d834:	48 c7 85 78 ef ff ff 	movq   $0x0,-0x1088(%rbp)
    d83b:	00 00 00 00 
    d83f:	48 8b 85 c8 ed ff ff 	mov    -0x1238(%rbp),%rax
    d846:	8b 00                	mov    (%rax),%eax
    d848:	85 c0                	test   %eax,%eax
    d84a:	75 0c                	jne    d858 <func_52+0x2782>
    d84c:	48 8b 85 78 ef ff ff 	mov    -0x1088(%rbp),%rax
    d853:	e9 99 10 00 00       	jmpq   e8f1 <func_52+0x381b>
    d858:	90                   	nop
    d859:	66 c7 05 76 a8 00 00 	movw   $0x0,0xa876(%rip)        # 180d8 <g_568>
    d860:	00 00 
    d862:	eb 69                	jmp    d8cd <func_52+0x27f7>
    d864:	48 b8 d6 e4 9c 98 01 	movabs $0x198d7401989ce4d6,%rax
    d86b:	74 8d 19 
    d86e:	48 89 85 50 f1 ff ff 	mov    %rax,-0xeb0(%rbp)
    d875:	48 89 85 58 f1 ff ff 	mov    %rax,-0xea8(%rbp)
    d87c:	48 c7 85 60 f1 ff ff 	movq   $0xffffffffffffffff,-0xea0(%rbp)
    d883:	ff ff ff ff 
    d887:	48 89 85 68 f1 ff ff 	mov    %rax,-0xe98(%rbp)
    d88e:	48 89 85 70 f1 ff ff 	mov    %rax,-0xe90(%rbp)
    d895:	48 c7 85 78 f1 ff ff 	movq   $0xffffffffffffffff,-0xe88(%rbp)
    d89c:	ff ff ff ff 
    d8a0:	48 8b 05 69 a8 00 00 	mov    0xa869(%rip),%rax        # 18110 <g_591+0x30>
    d8a7:	48 83 e8 01          	sub    $0x1,%rax
    d8ab:	48 89 05 5e a8 00 00 	mov    %rax,0xa85e(%rip)        # 18110 <g_591+0x30>
    d8b2:	0f b7 05 1f a8 00 00 	movzwl 0xa81f(%rip),%eax        # 180d8 <g_568>
    d8b9:	98                   	cwtl   
    d8ba:	be 07 00 00 00       	mov    $0x7,%esi
    d8bf:	89 c7                	mov    %eax,%edi
    d8c1:	e8 ed 8a ff ff       	callq  63b3 <safe_add_func_int16_t_s_s>
    d8c6:	66 89 05 0b a8 00 00 	mov    %ax,0xa80b(%rip)        # 180d8 <g_568>
    d8cd:	0f b7 05 04 a8 00 00 	movzwl 0xa804(%rip),%eax        # 180d8 <g_568>
    d8d4:	66 83 f8 27          	cmp    $0x27,%ax
    d8d8:	74 8a                	je     d864 <func_52+0x278e>
    d8da:	83 ad f8 ed ff ff 01 	subl   $0x1,-0x1208(%rbp)
    d8e1:	83 bd f8 ed ff ff e2 	cmpl   $0xffffffe2,-0x1208(%rbp)
    d8e8:	0f 84 d6 f8 ff ff    	je     d1c4 <func_52+0x20ee>
    d8ee:	eb 29                	jmp    d919 <func_52+0x2843>
    d8f0:	48 c7 85 48 ef ff ff 	movq   $0x8,-0x10b8(%rbp)
    d8f7:	08 00 00 00 
    d8fb:	48 8b 85 c8 ed ff ff 	mov    -0x1238(%rbp),%rax
    d902:	8b 00                	mov    (%rax),%eax
    d904:	89 85 0c f0 ff ff    	mov    %eax,-0xff4(%rbp)
    d90a:	8b 85 0c f0 ff ff    	mov    -0xff4(%rbp),%eax
    d910:	48 98                	cltq   
    d912:	48 89 85 48 ef ff ff 	mov    %rax,-0x10b8(%rbp)
    d919:	c7 05 69 a7 00 00 00 	movl   $0x0,0xa769(%rip)        # 1808c <g_355>
    d920:	00 00 00 
    d923:	e9 55 0f 00 00       	jmpq   e87d <func_52+0x37a7>
    d928:	c7 85 70 ee ff ff ff 	movl   $0xffffffff,-0x1190(%rbp)
    d92f:	ff ff ff 
    d932:	c7 85 f4 ed ff ff f7 	movl   $0x30738ef7,-0x120c(%rbp)
    d939:	8e 73 30 
    d93c:	48 8d 85 80 f4 ff ff 	lea    -0xb80(%rbp),%rax
    d943:	48 8d 15 96 64 00 00 	lea    0x6496(%rip),%rdx        # 13de0 <g_1114+0x1d80>
    d94a:	b9 24 00 00 00       	mov    $0x24,%ecx
    d94f:	48 89 c7             	mov    %rax,%rdi
    d952:	48 89 d6             	mov    %rdx,%rsi
    d955:	f3 48 a5             	rep movsq %ds:(%rsi),%es:(%rdi)
    d958:	48 8d 85 c8 ee ff ff 	lea    -0x1138(%rbp),%rax
    d95f:	48 89 85 80 ef ff ff 	mov    %rax,-0x1080(%rbp)
    d966:	48 8d 05 03 c4 00 00 	lea    0xc403(%rip),%rax        # 19d70 <g_653>
    d96d:	48 89 85 88 ef ff ff 	mov    %rax,-0x1078(%rbp)
    d974:	48 c7 85 90 ef ff ff 	movq   $0x0,-0x1070(%rbp)
    d97b:	00 00 00 00 
    d97f:	48 8d 85 df ed ff ff 	lea    -0x1221(%rbp),%rax
    d986:	48 89 85 80 f3 ff ff 	mov    %rax,-0xc80(%rbp)
    d98d:	48 8d 85 df ed ff ff 	lea    -0x1221(%rbp),%rax
    d994:	48 89 85 88 f3 ff ff 	mov    %rax,-0xc78(%rbp)
    d99b:	48 8d 85 df ed ff ff 	lea    -0x1221(%rbp),%rax
    d9a2:	48 89 85 90 f3 ff ff 	mov    %rax,-0xc70(%rbp)
    d9a9:	48 8d 85 df ed ff ff 	lea    -0x1221(%rbp),%rax
    d9b0:	48 89 85 98 f3 ff ff 	mov    %rax,-0xc68(%rbp)
    d9b7:	48 8d 85 df ed ff ff 	lea    -0x1221(%rbp),%rax
    d9be:	48 89 85 a0 f3 ff ff 	mov    %rax,-0xc60(%rbp)
    d9c5:	48 8d 85 df ed ff ff 	lea    -0x1221(%rbp),%rax
    d9cc:	48 89 85 a8 f3 ff ff 	mov    %rax,-0xc58(%rbp)
    d9d3:	48 8d 85 df ed ff ff 	lea    -0x1221(%rbp),%rax
    d9da:	48 89 85 b0 f3 ff ff 	mov    %rax,-0xc50(%rbp)
    d9e1:	48 8d 85 df ed ff ff 	lea    -0x1221(%rbp),%rax
    d9e8:	48 89 85 b8 f3 ff ff 	mov    %rax,-0xc48(%rbp)
    d9ef:	48 8d 85 df ed ff ff 	lea    -0x1221(%rbp),%rax
    d9f6:	48 89 85 c0 f3 ff ff 	mov    %rax,-0xc40(%rbp)
    d9fd:	c7 85 74 ee ff ff fa 	movl   $0xfffffffa,-0x118c(%rbp)
    da04:	ff ff ff 
    da07:	48 8d 85 e0 f1 ff ff 	lea    -0xe20(%rbp),%rax
    da0e:	48 83 c0 20          	add    $0x20,%rax
    da12:	48 89 85 98 ef ff ff 	mov    %rax,-0x1068(%rbp)
    da19:	c7 85 18 ee ff ff 06 	movl   $0x6,-0x11e8(%rbp)
    da20:	00 00 00 
    da23:	48 8d 85 b8 ee ff ff 	lea    -0x1148(%rbp),%rax
    da2a:	48 89 85 a0 ef ff ff 	mov    %rax,-0x1060(%rbp)
    da31:	8b 85 70 ee ff ff    	mov    -0x1190(%rbp),%eax
    da37:	0f bf d8             	movswl %ax,%ebx
    da3a:	0f b6 05 47 a6 00 00 	movzbl 0xa647(%rip),%eax        # 18088 <g_217>
    da41:	44 0f be e0          	movsbl %al,%r12d
    da45:	4c 8b 35 94 a6 00 00 	mov    0xa694(%rip),%r14        # 180e0 <g_591>
    da4c:	8b 05 7a a6 00 00    	mov    0xa67a(%rip),%eax        # 180cc <g_481>
    da52:	41 89 c7             	mov    %eax,%r15d
    da55:	8b 85 f4 ed ff ff    	mov    -0x120c(%rbp),%eax
    da5b:	4c 63 e8             	movslq %eax,%r13
    da5e:	0f b7 05 1b a6 00 00 	movzwl 0xa61b(%rip),%eax        # 18080 <g_183>
    da65:	0f b7 c0             	movzwl %ax,%eax
    da68:	39 85 70 ee ff ff    	cmp    %eax,-0x1190(%rbp)
    da6e:	0f 96 c2             	setbe  %dl
    da71:	48 8b 85 a0 ee ff ff 	mov    -0x1160(%rbp),%rax
    da78:	0f b6 d2             	movzbl %dl,%edx
    da7b:	48 89 10             	mov    %rdx,(%rax)
    da7e:	48 8b 10             	mov    (%rax),%rdx
    da81:	8b 85 f4 ed ff ff    	mov    -0x120c(%rbp),%eax
    da87:	48 98                	cltq   
    da89:	48 31 d0             	xor    %rdx,%rax
    da8c:	48 89 c6             	mov    %rax,%rsi
    da8f:	48 c7 c7 f9 ff ff ff 	mov    $0xfffffffffffffff9,%rdi
    da96:	e8 e5 95 ff ff       	callq  7080 <safe_mod_func_uint64_t_u_u>
    da9b:	4c 89 ee             	mov    %r13,%rsi
    da9e:	48 89 c7             	mov    %rax,%rdi
    daa1:	e8 02 8e ff ff       	callq  68a8 <safe_sub_func_int64_t_s_s>
    daa6:	8b 95 f4 ed ff ff    	mov    -0x120c(%rbp),%edx
    daac:	48 63 d2             	movslq %edx,%rdx
    daaf:	48 39 d0             	cmp    %rdx,%rax
    dab2:	74 07                	je     dabb <func_52+0x29e5>
    dab4:	ba 01 00 00 00       	mov    $0x1,%edx
    dab9:	eb 05                	jmp    dac0 <func_52+0x29ea>
    dabb:	ba 00 00 00 00       	mov    $0x0,%edx
    dac0:	0f b7 05 01 a6 00 00 	movzwl 0xa601(%rip),%eax        # 180c8 <g_479>
    dac7:	31 d0                	xor    %edx,%eax
    dac9:	0f b6 c0             	movzbl %al,%eax
    dacc:	be 00 00 00 00       	mov    $0x0,%esi
    dad1:	89 c7                	mov    %eax,%edi
    dad3:	e8 b5 91 ff ff       	callq  6c8d <safe_rshift_func_uint8_t_u_s>
    dad8:	0f b6 d0             	movzbl %al,%edx
    dadb:	8b 85 f4 ed ff ff    	mov    -0x120c(%rbp),%eax
    dae1:	21 d0                	and    %edx,%eax
    dae3:	89 85 fc f4 ff ff    	mov    %eax,-0xb04(%rbp)
    dae9:	8b 85 fc f4 ff ff    	mov    -0xb04(%rbp),%eax
    daef:	83 f8 77             	cmp    $0x77,%eax
    daf2:	0f 95 c0             	setne  %al
    daf5:	0f b6 c0             	movzbl %al,%eax
    daf8:	44 89 fe             	mov    %r15d,%esi
    dafb:	89 c7                	mov    %eax,%edi
    dafd:	e8 b6 93 ff ff       	callq  6eb8 <safe_add_func_uint32_t_u_u>
    db02:	89 c0                	mov    %eax,%eax
    db04:	4c 21 f0             	and    %r14,%rax
    db07:	48 83 f8 01          	cmp    $0x1,%rax
    db0b:	0f 97 c0             	seta   %al
    db0e:	0f b6 c0             	movzbl %al,%eax
    db11:	44 89 e6             	mov    %r12d,%esi
    db14:	89 c7                	mov    %eax,%edi
    db16:	e8 b9 86 ff ff       	callq  61d4 <safe_add_func_int8_t_s_s>
    db1b:	48 8b 05 56 c0 00 00 	mov    0xc056(%rip),%rax        # 19b78 <g_317>
    db22:	0f b6 10             	movzbl (%rax),%edx
    db25:	83 c2 01             	add    $0x1,%edx
    db28:	88 10                	mov    %dl,(%rax)
    db2a:	83 bd 70 ee ff ff 00 	cmpl   $0x0,-0x1190(%rbp)
    db31:	74 15                	je     db48 <func_52+0x2a72>
    db33:	48 8b 05 26 c0 00 00 	mov    0xc026(%rip),%rax        # 19b60 <g_68>
    db3a:	0f b6 00             	movzbl (%rax),%eax
    db3d:	84 c0                	test   %al,%al
    db3f:	74 07                	je     db48 <func_52+0x2a72>
    db41:	b8 01 00 00 00       	mov    $0x1,%eax
    db46:	eb 05                	jmp    db4d <func_52+0x2a77>
    db48:	b8 00 00 00 00       	mov    $0x0,%eax
    db4d:	83 e0 01             	and    $0x1,%eax
    db50:	48 83 bd 80 ef ff ff 	cmpq   $0x0,-0x1080(%rbp)
    db57:	00 
    db58:	0f 95 c2             	setne  %dl
    db5b:	21 d0                	and    %edx,%eax
    db5d:	0f b6 c0             	movzbl %al,%eax
    db60:	83 f0 05             	xor    $0x5,%eax
    db63:	89 c6                	mov    %eax,%esi
    db65:	bf 01 00 00 00       	mov    $0x1,%edi
    db6a:	e8 b6 93 ff ff       	callq  6f25 <safe_div_func_uint32_t_u_u>
    db6f:	0f be c0             	movsbl %al,%eax
    db72:	be 04 00 00 00       	mov    $0x4,%esi
    db77:	89 c7                	mov    %eax,%edi
    db79:	e8 23 87 ff ff       	callq  62a1 <safe_lshift_func_int8_t_s_s>
    db7e:	66 98                	cbtw   
    db80:	0f b7 c0             	movzwl %ax,%eax
    db83:	be 83 88 00 00       	mov    $0x8883,%esi
    db88:	89 c7                	mov    %eax,%edi
    db8a:	e8 cd 91 ff ff       	callq  6d5c <safe_mod_func_uint16_t_u_u>
    db8f:	8b 95 70 ee ff ff    	mov    -0x1190(%rbp),%edx
    db95:	09 d0                	or     %edx,%eax
    db97:	98                   	cwtl   
    db98:	89 de                	mov    %ebx,%esi
    db9a:	89 c7                	mov    %eax,%edi
    db9c:	e8 b4 88 ff ff       	callq  6455 <safe_div_func_int16_t_s_s>
    dba1:	66 85 c0             	test   %ax,%ax
    dba4:	0f 84 ec 01 00 00    	je     dd96 <func_52+0x2cc0>
    dbaa:	c6 85 e1 ed ff ff eb 	movb   $0xeb,-0x121f(%rbp)
    dbb1:	c7 85 7c ee ff ff 01 	movl   $0x1,-0x1184(%rbp)
    dbb8:	00 00 00 
    dbbb:	48 8d 85 e8 ed ff ff 	lea    -0x1218(%rbp),%rax
    dbc2:	48 89 85 a8 ef ff ff 	mov    %rax,-0x1058(%rbp)
    dbc9:	c7 85 80 ee ff ff 3c 	movl   $0x7c039a3c,-0x1180(%rbp)
    dbd0:	9a 03 7c 
    dbd3:	c7 85 84 ee ff ff 01 	movl   $0x1,-0x117c(%rbp)
    dbda:	00 00 00 
    dbdd:	48 8d 05 48 a5 00 00 	lea    0xa548(%rip),%rax        # 1812c <g_639>
    dbe4:	48 89 85 d0 ee ff ff 	mov    %rax,-0x1130(%rbp)
    dbeb:	8b 85 80 f5 ff ff    	mov    -0xa80(%rbp),%eax
    dbf1:	0d fd 17 69 4b       	or     $0x4b6917fd,%eax
    dbf6:	89 85 80 f5 ff ff    	mov    %eax,-0xa80(%rbp)
    dbfc:	8b 85 80 f5 ff ff    	mov    -0xa80(%rbp),%eax
    dc02:	88 85 e1 ed ff ff    	mov    %al,-0x121f(%rbp)
    dc08:	0f be 95 e1 ed ff ff 	movsbl -0x121f(%rbp),%edx
    dc0f:	0f b7 05 12 a5 00 00 	movzwl 0xa512(%rip),%eax        # 18128 <g_622>
    dc16:	98                   	cwtl   
    dc17:	09 d0                	or     %edx,%eax
    dc19:	89 c2                	mov    %eax,%edx
    dc1b:	48 8b 85 40 ef ff ff 	mov    -0x10c0(%rbp),%rax
    dc22:	c7 00 d3 25 8d 87    	movl   $0x878d25d3,(%rax)
    dc28:	48 8b 85 40 ef ff ff 	mov    -0x10c0(%rbp),%rax
    dc2f:	8b 00                	mov    (%rax),%eax
    dc31:	39 c2                	cmp    %eax,%edx
    dc33:	0f 97 c0             	seta   %al
    dc36:	44 0f b6 e0          	movzbl %al,%r12d
    dc3a:	48 8b 05 1f bf 00 00 	mov    0xbf1f(%rip),%rax        # 19b60 <g_68>
    dc41:	0f b6 00             	movzbl (%rax),%eax
    dc44:	0f be d8             	movsbl %al,%ebx
    dc47:	83 bd 7c ee ff ff 00 	cmpl   $0x0,-0x1184(%rbp)
    dc4e:	74 48                	je     dc98 <func_52+0x2bc2>
    dc50:	48 8b 85 a8 ef ff ff 	mov    -0x1058(%rbp),%rax
    dc57:	8b 00                	mov    (%rax),%eax
    dc59:	83 bd 7c ee ff ff 00 	cmpl   $0x0,-0x1184(%rbp)
    dc60:	75 09                	jne    dc6b <func_52+0x2b95>
    dc62:	83 bd 70 ee ff ff 28 	cmpl   $0x28,-0x1190(%rbp)
    dc69:	77 07                	ja     dc72 <func_52+0x2b9c>
    dc6b:	ba 01 00 00 00       	mov    $0x1,%edx
    dc70:	eb 05                	jmp    dc77 <func_52+0x2ba1>
    dc72:	ba 00 00 00 00       	mov    $0x0,%edx
    dc77:	89 d1                	mov    %edx,%ecx
    dc79:	48 8b 15 70 a4 00 00 	mov    0xa470(%rip),%rdx        # 180f0 <g_591+0x10>
    dc80:	09 ca                	or     %ecx,%edx
    dc82:	21 c2                	and    %eax,%edx
    dc84:	48 8b 85 a8 ef ff ff 	mov    -0x1058(%rbp),%rax
    dc8b:	89 10                	mov    %edx,(%rax)
    dc8d:	48 8b 85 a8 ef ff ff 	mov    -0x1058(%rbp),%rax
    dc94:	8b 00                	mov    (%rax),%eax
    dc96:	85 c0                	test   %eax,%eax
    dc98:	48 8b 85 c8 ed ff ff 	mov    -0x1238(%rbp),%rax
    dc9f:	8b 10                	mov    (%rax),%edx
    dca1:	8b 85 f4 ed ff ff    	mov    -0x120c(%rbp),%eax
    dca7:	85 c0                	test   %eax,%eax
    dca9:	0f 9f c0             	setg   %al
    dcac:	0f b6 c0             	movzbl %al,%eax
    dcaf:	39 c2                	cmp    %eax,%edx
    dcb1:	74 08                	je     dcbb <func_52+0x2be5>
    dcb3:	8b 05 6b a3 00 00    	mov    0xa36b(%rip),%eax        # 18024 <g_3>
    dcb9:	85 c0                	test   %eax,%eax
    dcbb:	48 8b 05 9e be 00 00 	mov    0xbe9e(%rip),%rax        # 19b60 <g_68>
    dcc2:	0f b6 00             	movzbl (%rax),%eax
    dcc5:	0f be c0             	movsbl %al,%eax
    dcc8:	89 c7                	mov    %eax,%edi
    dcca:	e8 f0 84 ff ff       	callq  61bf <safe_unary_minus_func_int8_t_s>
    dccf:	0f b6 c0             	movzbl %al,%eax
    dcd2:	89 de                	mov    %ebx,%esi
    dcd4:	89 c7                	mov    %eax,%edi
    dcd6:	e8 2a 8f ff ff       	callq  6c05 <safe_lshift_func_uint8_t_u_s>
    dcdb:	84 c0                	test   %al,%al
    dcdd:	75 0f                	jne    dcee <func_52+0x2c18>
    dcdf:	48 8b 05 8a be 00 00 	mov    0xbe8a(%rip),%rax        # 19b70 <g_182>
    dce6:	0f b7 00             	movzwl (%rax),%eax
    dce9:	66 85 c0             	test   %ax,%ax
    dcec:	74 07                	je     dcf5 <func_52+0x2c1f>
    dcee:	b8 01 00 00 00       	mov    $0x1,%eax
    dcf3:	eb 05                	jmp    dcfa <func_52+0x2c24>
    dcf5:	b8 00 00 00 00       	mov    $0x0,%eax
    dcfa:	44 39 e0             	cmp    %r12d,%eax
    dcfd:	7d 76                	jge    dd75 <func_52+0x2c9f>
    dcff:	c7 85 88 ee ff ff 00 	movl   $0x0,-0x1178(%rbp)
    dd06:	00 00 00 
    dd09:	c7 85 8c ee ff ff 25 	movl   $0x52ad1525,-0x1174(%rbp)
    dd10:	15 ad 52 
    dd13:	48 c7 85 b8 ef ff ff 	movq   $0x0,-0x1048(%rbp)
    dd1a:	00 00 00 00 
    dd1e:	c7 85 1c ee ff ff 00 	movl   $0x0,-0x11e4(%rbp)
    dd25:	00 00 00 
    dd28:	eb 14                	jmp    dd3e <func_52+0x2c68>
    dd2a:	8b 85 1c ee ff ff    	mov    -0x11e4(%rbp),%eax
    dd30:	48 98                	cltq   
    dd32:	c6 44 05 c5 ff       	movb   $0xff,-0x3b(%rbp,%rax,1)
    dd37:	83 85 1c ee ff ff 01 	addl   $0x1,-0x11e4(%rbp)
    dd3e:	83 bd 1c ee ff ff 02 	cmpl   $0x2,-0x11e4(%rbp)
    dd45:	7e e3                	jle    dd2a <func_52+0x2c54>
    dd47:	0f b6 45 c5          	movzbl -0x3b(%rbp),%eax
    dd4b:	83 c0 01             	add    $0x1,%eax
    dd4e:	88 45 c5             	mov    %al,-0x3b(%rbp)
    dd51:	48 8d 85 a0 ee ff ff 	lea    -0x1160(%rbp),%rax
    dd58:	48 89 05 01 c0 00 00 	mov    %rax,0xc001(%rip)        # 19d60 <g_636>
    dd5f:	48 8b 85 c8 ed ff ff 	mov    -0x1238(%rbp),%rax
    dd66:	8b 00                	mov    (%rax),%eax
    dd68:	85 c0                	test   %eax,%eax
    dd6a:	0f 84 91 00 00 00    	je     de01 <func_52+0x2d2b>
    dd70:	e9 17 0b 00 00       	jmpq   e88c <func_52+0x37b6>
    dd75:	48 8d 85 d0 ee ff ff 	lea    -0x1130(%rbp),%rax
    dd7c:	48 89 85 b0 ef ff ff 	mov    %rax,-0x1050(%rbp)
    dd83:	48 8b 95 d0 ee ff ff 	mov    -0x1130(%rbp),%rdx
    dd8a:	48 8b 85 b0 ef ff ff 	mov    -0x1050(%rbp),%rax
    dd91:	48 89 10             	mov    %rdx,(%rax)
    dd94:	eb 6b                	jmp    de01 <func_52+0x2d2b>
    dd96:	66 c7 85 e6 ed ff ff 	movw   $0x7,-0x121a(%rbp)
    dd9d:	07 00 
    dd9f:	c7 85 20 ee ff ff cb 	movl   $0x329ddfcb,-0x11e0(%rbp)
    dda6:	df 9d 32 
    dda9:	c7 85 78 ee ff ff 32 	movl   $0x402f1f32,-0x1188(%rbp)
    ddb0:	1f 2f 40 
    ddb3:	66 c7 05 1c a3 00 00 	movw   $0x1c,0xa31c(%rip)        # 180d8 <g_568>
    ddba:	1c 00 
    ddbc:	eb 2f                	jmp    dded <func_52+0x2d17>
    ddbe:	48 8b 85 c8 ed ff ff 	mov    -0x1238(%rbp),%rax
    ddc5:	8b 00                	mov    (%rax),%eax
    ddc7:	66 89 85 e6 ed ff ff 	mov    %ax,-0x121a(%rbp)
    ddce:	0f b7 85 e6 ed ff ff 	movzwl -0x121a(%rbp),%eax
    ddd5:	98                   	cwtl   
    ddd6:	31 85 20 ee ff ff    	xor    %eax,-0x11e0(%rbp)
    dddc:	0f b7 05 f5 a2 00 00 	movzwl 0xa2f5(%rip),%eax        # 180d8 <g_568>
    dde3:	83 e8 01             	sub    $0x1,%eax
    dde6:	66 89 05 eb a2 00 00 	mov    %ax,0xa2eb(%rip)        # 180d8 <g_568>
    dded:	0f b7 05 e4 a2 00 00 	movzwl 0xa2e4(%rip),%eax        # 180d8 <g_568>
    ddf4:	66 83 f8 06          	cmp    $0x6,%ax
    ddf8:	76 c4                	jbe    ddbe <func_52+0x2ce8>
    ddfa:	83 85 78 ee ff ff 01 	addl   $0x1,-0x1188(%rbp)
    de01:	c7 05 85 a2 00 00 00 	movl   $0x0,0xa285(%rip)        # 18090 <g_426>
    de08:	00 00 00 
    de0b:	eb 54                	jmp    de61 <func_52+0x2d8b>
    de0d:	c7 85 fc f4 ff ff f7 	movl   $0xfffffff7,-0xb04(%rbp)
    de14:	ff ff ff 
    de17:	0f b7 05 62 a2 00 00 	movzwl 0xa262(%rip),%eax        # 18080 <g_183>
    de1e:	0f b7 c0             	movzwl %ax,%eax
    de21:	8d 50 02             	lea    0x2(%rax),%edx
    de24:	8b 05 66 a2 00 00    	mov    0xa266(%rip),%eax        # 18090 <g_426>
    de2a:	48 63 c8             	movslq %eax,%rcx
    de2d:	48 63 d2             	movslq %edx,%rdx
    de30:	48 89 d0             	mov    %rdx,%rax
    de33:	48 01 c0             	add    %rax,%rax
    de36:	48 01 d0             	add    %rdx,%rax
    de39:	48 01 c8             	add    %rcx,%rax
    de3c:	48 8d 14 00          	lea    (%rax,%rax,1),%rdx
    de40:	48 8d 05 f9 a1 00 00 	lea    0xa1f9(%rip),%rax        # 18040 <g_54>
    de47:	0f b7 04 02          	movzwl (%rdx,%rax,1),%eax
    de4b:	98                   	cwtl   
    de4c:	89 05 1e a2 00 00    	mov    %eax,0xa21e(%rip)        # 18070 <g_111>
    de52:	8b 05 38 a2 00 00    	mov    0xa238(%rip),%eax        # 18090 <g_426>
    de58:	83 c0 01             	add    $0x1,%eax
    de5b:	89 05 2f a2 00 00    	mov    %eax,0xa22f(%rip)        # 18090 <g_426>
    de61:	8b 05 29 a2 00 00    	mov    0xa229(%rip),%eax        # 18090 <g_426>
    de67:	83 f8 02             	cmp    $0x2,%eax
    de6a:	7e a1                	jle    de0d <func_52+0x2d37>
    de6c:	48 8b 15 fd be 00 00 	mov    0xbefd(%rip),%rdx        # 19d70 <g_653>
    de73:	48 8b 85 88 ef ff ff 	mov    -0x1078(%rbp),%rax
    de7a:	48 89 10             	mov    %rdx,(%rax)
    de7d:	48 8b 85 88 ef ff ff 	mov    -0x1078(%rbp),%rax
    de84:	48 8b 00             	mov    (%rax),%rax
    de87:	48 8b 95 88 f0 ff ff 	mov    -0xf78(%rbp),%rdx
    de8e:	48 89 95 00 ef ff ff 	mov    %rdx,-0x1100(%rbp)
    de95:	48 39 85 00 ef ff ff 	cmp    %rax,-0x1100(%rbp)
    de9c:	41 0f 95 c5          	setne  %r13b
    dea0:	48 8b 85 c8 ed ff ff 	mov    -0x1238(%rbp),%rax
    dea7:	8b 18                	mov    (%rax),%ebx
    dea9:	48 8b 05 c8 bc 00 00 	mov    0xbcc8(%rip),%rax        # 19b78 <g_317>
    deb0:	0f b6 00             	movzbl (%rax),%eax
    deb3:	44 0f b6 e0          	movzbl %al,%r12d
    deb7:	8b 05 af a1 00 00    	mov    0xa1af(%rip),%eax        # 1806c <g_84>
    debd:	0f b7 c0             	movzwl %ax,%eax
    dec0:	89 c6                	mov    %eax,%esi
    dec2:	bf 01 00 00 00       	mov    $0x1,%edi
    dec7:	e8 90 8e ff ff       	callq  6d5c <safe_mod_func_uint16_t_u_u>
    decc:	98                   	cwtl   
    decd:	be 07 00 00 00       	mov    $0x7,%esi
    ded2:	89 c7                	mov    %eax,%edi
    ded4:	e8 da 84 ff ff       	callq  63b3 <safe_add_func_int16_t_s_s>
    ded9:	0f b6 c0             	movzbl %al,%eax
    dedc:	44 89 e6             	mov    %r12d,%esi
    dedf:	89 c7                	mov    %eax,%edi
    dee1:	e8 74 8c ff ff       	callq  6b5a <safe_add_func_uint8_t_u_u>
    dee6:	0f b6 c0             	movzbl %al,%eax
    dee9:	89 de                	mov    %ebx,%esi
    deeb:	89 c7                	mov    %eax,%edi
    deed:	e8 da 87 ff ff       	callq  66cc <safe_mod_func_int32_t_s_s>
    def2:	48 8b 85 c8 ed ff ff 	mov    -0x1238(%rbp),%rax
    def9:	8b 00                	mov    (%rax),%eax
    defb:	85 c0                	test   %eax,%eax
    defd:	74 07                	je     df06 <func_52+0x2e30>
    deff:	b8 01 00 00 00       	mov    $0x1,%eax
    df04:	eb 05                	jmp    df0b <func_52+0x2e35>
    df06:	b8 00 00 00 00       	mov    $0x0,%eax
    df0b:	89 c2                	mov    %eax,%edx
    df0d:	48 8b 05 4c bc 00 00 	mov    0xbc4c(%rip),%rax        # 19b60 <g_68>
    df14:	0f b6 00             	movzbl (%rax),%eax
    df17:	0f be c0             	movsbl %al,%eax
    df1a:	89 d6                	mov    %edx,%esi
    df1c:	89 c7                	mov    %eax,%edi
    df1e:	e8 49 84 ff ff       	callq  636c <safe_rshift_func_int8_t_s_u>
    df23:	84 c0                	test   %al,%al
    df25:	75 0d                	jne    df34 <func_52+0x2e5e>
    df27:	48 8b 85 c8 ed ff ff 	mov    -0x1238(%rbp),%rax
    df2e:	8b 00                	mov    (%rax),%eax
    df30:	85 c0                	test   %eax,%eax
    df32:	74 07                	je     df3b <func_52+0x2e65>
    df34:	b8 01 00 00 00       	mov    $0x1,%eax
    df39:	eb 05                	jmp    df40 <func_52+0x2e6a>
    df3b:	b8 00 00 00 00       	mov    $0x0,%eax
    df40:	83 e0 01             	and    $0x1,%eax
    df43:	44 31 e8             	xor    %r13d,%eax
    df46:	0f b6 c0             	movzbl %al,%eax
    df49:	89 c2                	mov    %eax,%edx
    df4b:	0f b6 05 36 a1 00 00 	movzbl 0xa136(%rip),%eax        # 18088 <g_217>
    df52:	09 d0                	or     %edx,%eax
    df54:	88 05 2e a1 00 00    	mov    %al,0xa12e(%rip)        # 18088 <g_217>
    df5a:	0f b6 05 27 a1 00 00 	movzbl 0xa127(%rip),%eax        # 18088 <g_217>
    df61:	0f be d0             	movsbl %al,%edx
    df64:	8b 85 fc f4 ff ff    	mov    -0xb04(%rbp),%eax
    df6a:	39 c2                	cmp    %eax,%edx
    df6c:	0f 9d c0             	setge  %al
    df6f:	0f b6 c0             	movzbl %al,%eax
    df72:	f7 d0                	not    %eax
    df74:	98                   	cwtl   
    df75:	be d3 e9 ff ff       	mov    $0xffffe9d3,%esi
    df7a:	89 c7                	mov    %eax,%edi
    df7c:	e8 95 84 ff ff       	callq  6416 <safe_mod_func_int16_t_s_s>
    df81:	48 8b 85 c8 ed ff ff 	mov    -0x1238(%rbp),%rax
    df88:	8b 00                	mov    (%rax),%eax
    df8a:	85 c0                	test   %eax,%eax
    df8c:	0f 84 ae 06 00 00    	je     e640 <func_52+0x356a>
    df92:	48 8d 05 93 a1 00 00 	lea    0xa193(%rip),%rax        # 1812c <g_639>
    df99:	48 89 85 c8 ef ff ff 	mov    %rax,-0x1038(%rbp)
    dfa0:	c7 85 94 ee ff ff 01 	movl   $0x1,-0x116c(%rbp)
    dfa7:	00 00 00 
    dfaa:	48 8d 05 95 a0 00 00 	lea    0xa095(%rip),%rax        # 18046 <g_54+0x6>
    dfb1:	48 89 85 d0 ef ff ff 	mov    %rax,-0x1030(%rbp)
    dfb8:	48 b8 83 4b e4 06 bd 	movabs $0xf31c14bd06e44b83,%rax
    dfbf:	14 1c f3 
    dfc2:	48 89 85 d8 ef ff ff 	mov    %rax,-0x1028(%rbp)
    dfc9:	c7 85 24 ee ff ff 00 	movl   $0x0,-0x11dc(%rbp)
    dfd0:	00 00 00 
    dfd3:	eb 1b                	jmp    dff0 <func_52+0x2f1a>
    dfd5:	8b 85 24 ee ff ff    	mov    -0x11dc(%rbp),%eax
    dfdb:	48 98                	cltq   
    dfdd:	48 c7 84 c5 50 f0 ff 	movq   $0x0,-0xfb0(%rbp,%rax,8)
    dfe4:	ff 00 00 00 00 
    dfe9:	83 85 24 ee ff ff 01 	addl   $0x1,-0x11dc(%rbp)
    dff0:	83 bd 24 ee ff ff 05 	cmpl   $0x5,-0x11dc(%rbp)
    dff7:	7e dc                	jle    dfd5 <func_52+0x2eff>
    dff9:	48 8b 05 78 bb 00 00 	mov    0xbb78(%rip),%rax        # 19b78 <g_317>
    e000:	0f b6 00             	movzbl (%rax),%eax
    e003:	0f b6 d8             	movzbl %al,%ebx
    e006:	48 8b 05 63 bb 00 00 	mov    0xbb63(%rip),%rax        # 19b70 <g_182>
    e00d:	0f b7 00             	movzwl (%rax),%eax
    e010:	44 0f b7 e0          	movzwl %ax,%r12d
    e014:	8b 85 94 ee ff ff    	mov    -0x116c(%rbp),%eax
    e01a:	89 c2                	mov    %eax,%edx
    e01c:	48 8b 85 d0 ef ff ff 	mov    -0x1030(%rbp),%rax
    e023:	66 89 10             	mov    %dx,(%rax)
    e026:	48 8b 85 d0 ef ff ff 	mov    -0x1030(%rbp),%rax
    e02d:	0f b7 00             	movzwl (%rax),%eax
    e030:	0f bf d0             	movswl %ax,%edx
    e033:	8b 85 70 ee ff ff    	mov    -0x1190(%rbp),%eax
    e039:	98                   	cwtl   
    e03a:	89 d6                	mov    %edx,%esi
    e03c:	89 c7                	mov    %eax,%edi
    e03e:	e8 b2 83 ff ff       	callq  63f5 <safe_mul_func_int16_t_s_s>
    e043:	66 85 c0             	test   %ax,%ax
    e046:	74 50                	je     e098 <func_52+0x2fc2>
    e048:	8b 85 6c f5 ff ff    	mov    -0xa94(%rbp),%eax
    e04e:	89 85 6c f5 ff ff    	mov    %eax,-0xa94(%rbp)
    e054:	8b 85 6c f5 ff ff    	mov    -0xa94(%rbp),%eax
    e05a:	89 85 94 ee ff ff    	mov    %eax,-0x116c(%rbp)
    e060:	44 8b ad 94 ee ff ff 	mov    -0x116c(%rbp),%r13d
    e067:	48 8b 05 f2 ba 00 00 	mov    0xbaf2(%rip),%rax        # 19b60 <g_68>
    e06e:	0f b6 00             	movzbl (%rax),%eax
    e071:	0f be c0             	movsbl %al,%eax
    e074:	89 c6                	mov    %eax,%esi
    e076:	bf 01 00 00 00       	mov    $0x1,%edi
    e07b:	e8 85 8b ff ff       	callq  6c05 <safe_lshift_func_uint8_t_u_s>
    e080:	0f b6 c0             	movzbl %al,%eax
    e083:	44 89 ee             	mov    %r13d,%esi
    e086:	89 c7                	mov    %eax,%edi
    e088:	e8 2b 8e ff ff       	callq  6eb8 <safe_add_func_uint32_t_u_u>
    e08d:	85 c0                	test   %eax,%eax
    e08f:	74 07                	je     e098 <func_52+0x2fc2>
    e091:	b8 01 00 00 00       	mov    $0x1,%eax
    e096:	eb 05                	jmp    e09d <func_52+0x2fc7>
    e098:	b8 00 00 00 00       	mov    $0x0,%eax
    e09d:	0f b7 c0             	movzwl %ax,%eax
    e0a0:	44 89 e6             	mov    %r12d,%esi
    e0a3:	89 c7                	mov    %eax,%edi
    e0a5:	e8 e4 8c ff ff       	callq  6d8e <safe_div_func_uint16_t_u_u>
    e0aa:	0f b7 c0             	movzwl %ax,%eax
    e0ad:	89 c6                	mov    %eax,%esi
    e0af:	bf 01 00 00 00       	mov    $0x1,%edi
    e0b4:	e8 fd 84 ff ff       	callq  65b6 <safe_add_func_int32_t_s_s>
    e0b9:	8b 85 fc f4 ff ff    	mov    -0xb04(%rbp),%eax
    e0bf:	0f b6 c0             	movzbl %al,%eax
    e0c2:	89 de                	mov    %ebx,%esi
    e0c4:	89 c7                	mov    %eax,%edi
    e0c6:	e8 e3 8a ff ff       	callq  6bae <safe_mod_func_uint8_t_u_u>
    e0cb:	0f b6 d0             	movzbl %al,%edx
    e0ce:	8b 05 f8 9f 00 00    	mov    0x9ff8(%rip),%eax        # 180cc <g_481>
    e0d4:	39 c2                	cmp    %eax,%edx
    e0d6:	0f 94 c2             	sete   %dl
    e0d9:	48 8b 05 80 ba 00 00 	mov    0xba80(%rip),%rax        # 19b60 <g_68>
    e0e0:	88 10                	mov    %dl,(%rax)
    e0e2:	8b 05 88 9f 00 00    	mov    0x9f88(%rip),%eax        # 18070 <g_111>
    e0e8:	83 f8 01             	cmp    $0x1,%eax
    e0eb:	0f 84 e9 01 00 00    	je     e2da <func_52+0x3204>
    e0f1:	c6 85 e2 ed ff ff fb 	movb   $0xfb,-0x121e(%rbp)
    e0f8:	c6 85 e3 ed ff ff 01 	movb   $0x1,-0x121d(%rbp)
    e0ff:	48 8d 05 6a c8 00 00 	lea    0xc86a(%rip),%rax        # 1a970 <g_171>
    e106:	48 89 85 e8 ef ff ff 	mov    %rax,-0x1018(%rbp)
    e10d:	0f b6 85 e3 ed ff ff 	movzbl -0x121d(%rbp),%eax
    e114:	83 c0 01             	add    $0x1,%eax
    e117:	88 85 e3 ed ff ff    	mov    %al,-0x121d(%rbp)
    e11d:	48 8d 05 2c bc 00 00 	lea    0xbc2c(%rip),%rax        # 19d50 <g_533>
    e124:	48 89 05 4d bc 00 00 	mov    %rax,0xbc4d(%rip)        # 19d78 <g_692>
    e12b:	48 8b 05 46 ba 00 00 	mov    0xba46(%rip),%rax        # 19b78 <g_317>
    e132:	0f b6 00             	movzbl (%rax),%eax
    e135:	0f be d0             	movsbl %al,%edx
    e138:	48 8b 0d 21 ba 00 00 	mov    0xba21(%rip),%rcx        # 19b60 <g_68>
    e13f:	48 8b 05 1a ba 00 00 	mov    0xba1a(%rip),%rax        # 19b60 <g_68>
    e146:	0f b6 09             	movzbl (%rcx),%ecx
    e149:	88 08                	mov    %cl,(%rax)
    e14b:	0f b6 00             	movzbl (%rax),%eax
    e14e:	0f be c0             	movsbl %al,%eax
    e151:	89 d6                	mov    %edx,%esi
    e153:	89 c7                	mov    %eax,%edi
    e155:	e8 7a 80 ff ff       	callq  61d4 <safe_add_func_int8_t_s_s>
    e15a:	0f be c0             	movsbl %al,%eax
    e15d:	89 85 94 f4 ff ff    	mov    %eax,-0xb6c(%rbp)
    e163:	8b 05 c7 9f 00 00    	mov    0x9fc7(%rip),%eax        # 18130 <g_651>
    e169:	0f bf d8             	movswl %ax,%ebx
    e16c:	0f b6 85 e3 ed ff ff 	movzbl -0x121d(%rbp),%eax
    e173:	44 0f be e0          	movsbl %al,%r12d
    e177:	c7 85 f0 f0 ff ff 4b 	movl   $0x43a2404b,-0xf10(%rbp)
    e17e:	40 a2 43 
    e181:	8b 85 f0 f0 ff ff    	mov    -0xf10(%rbp),%eax
    e187:	89 c6                	mov    %eax,%esi
    e189:	bf 02 00 00 00       	mov    $0x2,%edi
    e18e:	e8 39 85 ff ff       	callq  66cc <safe_mod_func_int32_t_s_s>
    e193:	48 8b 85 70 f0 ff ff 	mov    -0xf90(%rbp),%rax
    e19a:	48 85 c0             	test   %rax,%rax
    e19d:	0f 95 c0             	setne  %al
    e1a0:	44 0f b6 e8          	movzbl %al,%r13d
    e1a4:	8b 85 70 ee ff ff    	mov    -0x1190(%rbp),%eax
    e1aa:	48 89 c6             	mov    %rax,%rsi
    e1ad:	bf 00 00 00 00       	mov    $0x0,%edi
    e1b2:	e8 8a 86 ff ff       	callq  6841 <safe_add_func_int64_t_s_s>
    e1b7:	0f b6 c0             	movzbl %al,%eax
    e1ba:	be 00 00 00 00       	mov    $0x0,%esi
    e1bf:	89 c7                	mov    %eax,%edi
    e1c1:	e8 3f 8a ff ff       	callq  6c05 <safe_lshift_func_uint8_t_u_s>
    e1c6:	44 0f b6 f0          	movzbl %al,%r14d
    e1ca:	48 8b 85 00 ef ff ff 	mov    -0x1100(%rbp),%rax
    e1d1:	48 8b 10             	mov    (%rax),%rdx
    e1d4:	48 8b 85 00 ef ff ff 	mov    -0x1100(%rbp),%rax
    e1db:	48 89 10             	mov    %rdx,(%rax)
    e1de:	48 8b 85 00 ef ff ff 	mov    -0x1100(%rbp),%rax
    e1e5:	48 8b 10             	mov    (%rax),%rdx
    e1e8:	48 8b 05 a1 9b 00 00 	mov    0x9ba1(%rip),%rax        # 17d90 <l_657.4551+0x30>
    e1ef:	48 39 c2             	cmp    %rax,%rdx
    e1f2:	0f 95 c0             	setne  %al
    e1f5:	0f b6 c0             	movzbl %al,%eax
    e1f8:	be 8a ff ff ff       	mov    $0xffffff8a,%esi
    e1fd:	89 c7                	mov    %eax,%edi
    e1ff:	e8 2d 80 ff ff       	callq  6231 <safe_mod_func_int8_t_s_s>
    e204:	48 8b 15 55 b9 00 00 	mov    0xb955(%rip),%rdx        # 19b60 <g_68>
    e20b:	0f b6 12             	movzbl (%rdx),%edx
    e20e:	38 d0                	cmp    %dl,%al
    e210:	0f 94 c0             	sete   %al
    e213:	0f b6 c0             	movzbl %al,%eax
    e216:	41 39 c6             	cmp    %eax,%r14d
    e219:	0f 9d c0             	setge  %al
    e21c:	0f b6 c0             	movzbl %al,%eax
    e21f:	41 39 c5             	cmp    %eax,%r13d
    e222:	0f 9c c0             	setl   %al
    e225:	0f b6 c0             	movzbl %al,%eax
    e228:	be 80 a5 00 00       	mov    $0xa580,%esi
    e22d:	89 c7                	mov    %eax,%edi
    e22f:	e8 cb 8a ff ff       	callq  6cff <safe_add_func_uint16_t_u_u>
    e234:	0f b6 95 e3 ed ff ff 	movzbl -0x121d(%rbp),%edx
    e23b:	66 39 d0             	cmp    %dx,%ax
    e23e:	0f 97 c0             	seta   %al
    e241:	0f b6 c0             	movzbl %al,%eax
    e244:	44 89 e6             	mov    %r12d,%esi
    e247:	89 c7                	mov    %eax,%edi
    e249:	e8 86 7f ff ff       	callq  61d4 <safe_add_func_int8_t_s_s>
    e24e:	0f be c0             	movsbl %al,%eax
    e251:	89 85 fc f4 ff ff    	mov    %eax,-0xb04(%rbp)
    e257:	8b 85 fc f4 ff ff    	mov    -0xb04(%rbp),%eax
    e25d:	0f b6 c0             	movzbl %al,%eax
    e260:	be 00 00 00 00       	mov    $0x0,%esi
    e265:	89 c7                	mov    %eax,%edi
    e267:	e8 99 89 ff ff       	callq  6c05 <safe_lshift_func_uint8_t_u_s>
    e26c:	84 c0                	test   %al,%al
    e26e:	74 11                	je     e281 <func_52+0x31ab>
    e270:	8b 85 e8 ed ff ff    	mov    -0x1218(%rbp),%eax
    e276:	85 c0                	test   %eax,%eax
    e278:	74 07                	je     e281 <func_52+0x31ab>
    e27a:	b8 01 00 00 00       	mov    $0x1,%eax
    e27f:	eb 05                	jmp    e286 <func_52+0x31b0>
    e281:	b8 00 00 00 00       	mov    $0x0,%eax
    e286:	48 63 d0             	movslq %eax,%rdx
    e289:	48 8b 05 80 9e 00 00 	mov    0x9e80(%rip),%rax        # 18110 <g_591+0x30>
    e290:	48 09 c2             	or     %rax,%rdx
    e293:	0f b6 85 e3 ed ff ff 	movzbl -0x121d(%rbp),%eax
    e29a:	48 31 c2             	xor    %rax,%rdx
    e29d:	48 8b 85 e8 ef ff ff 	mov    -0x1018(%rbp),%rax
    e2a4:	48 89 10             	mov    %rdx,(%rax)
    e2a7:	80 bd e2 ed ff ff 01 	cmpb   $0x1,-0x121e(%rbp)
    e2ae:	48 8d 05 8b ba 00 00 	lea    0xba8b(%rip),%rax        # 19d40 <g_444>
    e2b5:	48 39 85 98 ef ff ff 	cmp    %rax,-0x1068(%rbp)
    e2bc:	0f 95 c0             	setne  %al
    e2bf:	0f b6 c0             	movzbl %al,%eax
    e2c2:	89 de                	mov    %ebx,%esi
    e2c4:	89 c7                	mov    %eax,%edi
    e2c6:	e8 2a 81 ff ff       	callq  63f5 <safe_mul_func_int16_t_s_s>
    e2cb:	c7 85 18 ee ff ff 00 	movl   $0x0,-0x11e8(%rbp)
    e2d2:	00 00 00 
    e2d5:	e9 0c 02 00 00       	jmpq   e4e6 <func_52+0x3410>
    e2da:	c7 85 98 ee ff ff 5f 	movl   $0xb886e45f,-0x1168(%rbp)
    e2e1:	e4 86 b8 
    e2e4:	48 8d 85 f4 ed ff ff 	lea    -0x120c(%rbp),%rax
    e2eb:	48 89 85 50 f1 ff ff 	mov    %rax,-0xeb0(%rbp)
    e2f2:	48 8d 85 f4 ed ff ff 	lea    -0x120c(%rbp),%rax
    e2f9:	48 89 85 58 f1 ff ff 	mov    %rax,-0xea8(%rbp)
    e300:	48 8d 85 f4 ed ff ff 	lea    -0x120c(%rbp),%rax
    e307:	48 89 85 60 f1 ff ff 	mov    %rax,-0xea0(%rbp)
    e30e:	48 8d 85 f4 ed ff ff 	lea    -0x120c(%rbp),%rax
    e315:	48 89 85 68 f1 ff ff 	mov    %rax,-0xe98(%rbp)
    e31c:	48 8d 85 f4 ed ff ff 	lea    -0x120c(%rbp),%rax
    e323:	48 89 85 70 f1 ff ff 	mov    %rax,-0xe90(%rbp)
    e32a:	48 8d 85 f4 ed ff ff 	lea    -0x120c(%rbp),%rax
    e331:	48 89 85 78 f1 ff ff 	mov    %rax,-0xe88(%rbp)
    e338:	48 8d 85 b0 ee ff ff 	lea    -0x1150(%rbp),%rax
    e33f:	48 89 85 e0 ef ff ff 	mov    %rax,-0x1020(%rbp)
    e346:	c7 85 9c ee ff ff ff 	movl   $0xffffffff,-0x1164(%rbp)
    e34d:	ff ff ff 
    e350:	48 83 85 d8 ef ff ff 	addq   $0x1,-0x1028(%rbp)
    e357:	01 
    e358:	48 8b 05 11 b8 00 00 	mov    0xb811(%rip),%rax        # 19b70 <g_182>
    e35f:	0f b7 00             	movzwl (%rax),%eax
    e362:	0f b7 d8             	movzwl %ax,%ebx
    e365:	48 8b 05 04 b8 00 00 	mov    0xb804(%rip),%rax        # 19b70 <g_182>
    e36c:	0f b7 00             	movzwl (%rax),%eax
    e36f:	44 0f b7 e0          	movzwl %ax,%r12d
    e373:	0f b7 05 ca 9c 00 00 	movzwl 0x9cca(%rip),%eax        # 18044 <g_54+0x4>
    e37a:	0f b7 c0             	movzwl %ax,%eax
    e37d:	89 c6                	mov    %eax,%esi
    e37f:	bf ff ff 00 00       	mov    $0xffff,%edi
    e384:	e8 b4 89 ff ff       	callq  6d3d <safe_mul_func_uint16_t_u_u>
    e389:	8b 85 98 ee ff ff    	mov    -0x1168(%rbp),%eax
    e38f:	0f b6 c0             	movzbl %al,%eax
    e392:	be 04 00 00 00       	mov    $0x4,%esi
    e397:	89 c7                	mov    %eax,%edi
    e399:	e8 ef 88 ff ff       	callq  6c8d <safe_rshift_func_uint8_t_u_s>
    e39e:	0f b6 c0             	movzbl %al,%eax
    e3a1:	89 85 c4 ed ff ff    	mov    %eax,-0x123c(%rbp)
    e3a7:	48 8b 05 ca b7 00 00 	mov    0xb7ca(%rip),%rax        # 19b78 <g_317>
    e3ae:	0f b6 00             	movzbl (%rax),%eax
    e3b1:	84 c0                	test   %al,%al
    e3b3:	75 66                	jne    e41b <func_52+0x3345>
    e3b5:	0f b7 05 1c 9d 00 00 	movzwl 0x9d1c(%rip),%eax        # 180d8 <g_568>
    e3bc:	44 0f b7 e8          	movzwl %ax,%r13d
    e3c0:	48 8b 05 a9 b7 00 00 	mov    0xb7a9(%rip),%rax        # 19b70 <g_182>
    e3c7:	0f b7 00             	movzwl (%rax),%eax
    e3ca:	44 0f b7 f0          	movzwl %ax,%r14d
    e3ce:	8b 85 70 ee ff ff    	mov    -0x1190(%rbp),%eax
    e3d4:	44 0f bf f8          	movswl %ax,%r15d
    e3d8:	8b 85 70 ee ff ff    	mov    -0x1190(%rbp),%eax
    e3de:	0f bf d0             	movswl %ax,%edx
    e3e1:	8b 85 f0 f4 ff ff    	mov    -0xb10(%rbp),%eax
    e3e7:	98                   	cwtl   
    e3e8:	89 d6                	mov    %edx,%esi
    e3ea:	89 c7                	mov    %eax,%edi
    e3ec:	e8 04 80 ff ff       	callq  63f5 <safe_mul_func_int16_t_s_s>
    e3f1:	98                   	cwtl   
    e3f2:	44 89 fe             	mov    %r15d,%esi
    e3f5:	89 c7                	mov    %eax,%edi
    e3f7:	e8 59 80 ff ff       	callq  6455 <safe_div_func_int16_t_s_s>
    e3fc:	0f b7 c0             	movzwl %ax,%eax
    e3ff:	44 89 f6             	mov    %r14d,%esi
    e402:	89 c7                	mov    %eax,%edi
    e404:	e8 fd 89 ff ff       	callq  6e06 <safe_lshift_func_uint16_t_u_u>
    e409:	4c 89 ee             	mov    %r13,%rsi
    e40c:	bf 01 00 00 00       	mov    $0x1,%edi
    e411:	e8 9e 85 ff ff       	callq  69b4 <safe_mod_func_int64_t_s_s>
    e416:	48 85 c0             	test   %rax,%rax
    e419:	74 07                	je     e422 <func_52+0x334c>
    e41b:	b8 01 00 00 00       	mov    $0x1,%eax
    e420:	eb 05                	jmp    e427 <func_52+0x3351>
    e422:	b8 00 00 00 00       	mov    $0x0,%eax
    e427:	3b 85 c4 ed ff ff    	cmp    -0x123c(%rbp),%eax
    e42d:	0f 95 c0             	setne  %al
    e430:	0f b6 c0             	movzbl %al,%eax
    e433:	8b 95 98 ee ff ff    	mov    -0x1168(%rbp),%edx
    e439:	89 d6                	mov    %edx,%esi
    e43b:	89 c7                	mov    %eax,%edi
    e43d:	e8 50 80 ff ff       	callq  6492 <safe_lshift_func_int16_t_s_s>
    e442:	8b 05 1c 9c 00 00    	mov    0x9c1c(%rip),%eax        # 18064 <g_55>
    e448:	98                   	cwtl   
    e449:	44 89 e6             	mov    %r12d,%esi
    e44c:	89 c7                	mov    %eax,%edi
    e44e:	e8 10 81 ff ff       	callq  6563 <safe_rshift_func_int16_t_s_u>
    e453:	48 8d 05 72 9c 00 00 	lea    0x9c72(%rip),%rax        # 180cc <g_481>
    e45a:	48 39 85 c8 ed ff ff 	cmp    %rax,-0x1238(%rbp)
    e461:	0f 94 c0             	sete   %al
    e464:	0f b6 d0             	movzbl %al,%edx
    e467:	0f b7 05 d2 9b 00 00 	movzwl 0x9bd2(%rip),%eax        # 18040 <g_54>
    e46e:	98                   	cwtl   
    e46f:	39 c2                	cmp    %eax,%edx
    e471:	0f 9c c0             	setl   %al
    e474:	0f b6 c0             	movzbl %al,%eax
    e477:	89 85 98 ee ff ff    	mov    %eax,-0x1168(%rbp)
    e47d:	48 8b 95 b0 ee ff ff 	mov    -0x1150(%rbp),%rdx
    e484:	48 8b 85 e0 ef ff ff 	mov    -0x1020(%rbp),%rax
    e48b:	48 89 10             	mov    %rdx,(%rax)
    e48e:	89 de                	mov    %ebx,%esi
    e490:	bf 00 00 00 00       	mov    $0x0,%edi
    e495:	e8 47 80 ff ff       	callq  64e1 <safe_lshift_func_int16_t_s_u>
    e49a:	0f bf d0             	movswl %ax,%edx
    e49d:	48 8b 05 cc b6 00 00 	mov    0xb6cc(%rip),%rax        # 19b70 <g_182>
    e4a4:	0f b7 00             	movzwl (%rax),%eax
    e4a7:	0f b7 c0             	movzwl %ax,%eax
    e4aa:	21 d0                	and    %edx,%eax
    e4ac:	39 85 9c ee ff ff    	cmp    %eax,-0x1164(%rbp)
    e4b2:	0f 9c c0             	setl   %al
    e4b5:	0f b6 c0             	movzbl %al,%eax
    e4b8:	66 89 05 89 9b 00 00 	mov    %ax,0x9b89(%rip)        # 18048 <g_54+0x8>
    e4bf:	0f b7 05 82 9b 00 00 	movzwl 0x9b82(%rip),%eax        # 18048 <g_54+0x8>
    e4c6:	98                   	cwtl   
    e4c7:	be ff ff ff ff       	mov    $0xffffffff,%esi
    e4cc:	89 c7                	mov    %eax,%edi
    e4ce:	e8 43 7f ff ff       	callq  6416 <safe_mod_func_int16_t_s_s>
    e4d3:	ba 00 00 00 00       	mov    $0x0,%edx
    e4d8:	8b 05 92 9b 00 00    	mov    0x9b92(%rip),%eax        # 18070 <g_111>
    e4de:	31 d0                	xor    %edx,%eax
    e4e0:	89 05 8a 9b 00 00    	mov    %eax,0x9b8a(%rip)        # 18070 <g_111>
    e4e6:	be 02 00 00 00       	mov    $0x2,%esi
    e4eb:	bf af ff ff ff       	mov    $0xffffffaf,%edi
    e4f0:	e8 ac 7d ff ff       	callq  62a1 <safe_lshift_func_int8_t_s_s>
    e4f5:	44 0f be e0          	movsbl %al,%r12d
    e4f9:	48 8b 05 60 b6 00 00 	mov    0xb660(%rip),%rax        # 19b60 <g_68>
    e500:	0f b6 00             	movzbl (%rax),%eax
    e503:	0f be d8             	movsbl %al,%ebx
    e506:	48 8b 85 e0 ee ff ff 	mov    -0x1120(%rbp),%rax
    e50d:	48 8d 15 54 b6 00 00 	lea    0xb654(%rip),%rdx        # 19b68 <g_87>
    e514:	48 89 10             	mov    %rdx,(%rax)
    e517:	48 8b 05 5a b8 00 00 	mov    0xb85a(%rip),%rax        # 19d78 <g_692>
    e51e:	48 8b 00             	mov    (%rax),%rax
    e521:	48 8b 00             	mov    (%rax),%rax
    e524:	48 8d 15 3d b6 00 00 	lea    0xb63d(%rip),%rdx        # 19b68 <g_87>
    e52b:	48 39 d0             	cmp    %rdx,%rax
    e52e:	0f 94 c0             	sete   %al
    e531:	0f b6 c0             	movzbl %al,%eax
    e534:	89 c6                	mov    %eax,%esi
    e536:	bf 01 00 00 00       	mov    $0x1,%edi
    e53b:	e8 94 7c ff ff       	callq  61d4 <safe_add_func_int8_t_s_s>
    e540:	84 c0                	test   %al,%al
    e542:	75 0c                	jne    e550 <func_52+0x347a>
    e544:	48 8b 05 25 c4 00 00 	mov    0xc425(%rip),%rax        # 1a970 <g_171>
    e54b:	48 85 c0             	test   %rax,%rax
    e54e:	74 07                	je     e557 <func_52+0x3481>
    e550:	b8 01 00 00 00       	mov    $0x1,%eax
    e555:	eb 05                	jmp    e55c <func_52+0x3486>
    e557:	b8 00 00 00 00       	mov    $0x0,%eax
    e55c:	0f be c0             	movsbl %al,%eax
    e55f:	be 9e ff ff ff       	mov    $0xffffff9e,%esi
    e564:	89 c7                	mov    %eax,%edi
    e566:	e8 a7 7c ff ff       	callq  6212 <safe_mul_func_int8_t_s_s>
    e56b:	0f be c0             	movsbl %al,%eax
    e56e:	89 de                	mov    %ebx,%esi
    e570:	89 c7                	mov    %eax,%edi
    e572:	e8 5d 7c ff ff       	callq  61d4 <safe_add_func_int8_t_s_s>
    e577:	0f be d0             	movsbl %al,%edx
    e57a:	48 8b 85 40 ef ff ff 	mov    -0x10c0(%rbp),%rax
    e581:	8b 00                	mov    (%rax),%eax
    e583:	8d 70 01             	lea    0x1(%rax),%esi
    e586:	48 8b 8d 40 ef ff ff 	mov    -0x10c0(%rbp),%rcx
    e58d:	89 31                	mov    %esi,(%rcx)
    e58f:	89 d6                	mov    %edx,%esi
    e591:	89 c7                	mov    %eax,%edi
    e593:	e8 38 89 ff ff       	callq  6ed0 <safe_sub_func_uint32_t_u_u>
    e598:	89 c1                	mov    %eax,%ecx
    e59a:	0f b7 05 93 9b 00 00 	movzwl 0x9b93(%rip),%eax        # 18134 <g_655>
    e5a1:	0f b7 d0             	movzwl %ax,%edx
    e5a4:	48 8b 05 b5 b7 00 00 	mov    0xb7b5(%rip),%rax        # 19d60 <g_636>
    e5ab:	48 8b 00             	mov    (%rax),%rax
    e5ae:	48 8b 00             	mov    (%rax),%rax
    e5b1:	48 39 c2             	cmp    %rax,%rdx
    e5b4:	0f 95 c0             	setne  %al
    e5b7:	0f b6 c0             	movzbl %al,%eax
    e5ba:	89 ce                	mov    %ecx,%esi
    e5bc:	89 c7                	mov    %eax,%edi
    e5be:	e8 09 81 ff ff       	callq  66cc <safe_mod_func_int32_t_s_s>
    e5c3:	44 89 e2             	mov    %r12d,%edx
    e5c6:	09 c2                	or     %eax,%edx
    e5c8:	8b 85 04 f0 ff ff    	mov    -0xffc(%rbp),%eax
    e5ce:	39 c2                	cmp    %eax,%edx
    e5d0:	7f 07                	jg     e5d9 <func_52+0x3503>
    e5d2:	ba 01 00 00 00       	mov    $0x1,%edx
    e5d7:	eb 05                	jmp    e5de <func_52+0x3508>
    e5d9:	ba 00 00 00 00       	mov    $0x0,%edx
    e5de:	8b 85 fc f4 ff ff    	mov    -0xb04(%rbp),%eax
    e5e4:	39 c2                	cmp    %eax,%edx
    e5e6:	0f 94 c0             	sete   %al
    e5e9:	0f b6 d0             	movzbl %al,%edx
    e5ec:	48 8b 05 85 b5 00 00 	mov    0xb585(%rip),%rax        # 19b78 <g_317>
    e5f3:	0f b6 00             	movzbl (%rax),%eax
    e5f6:	0f b6 c0             	movzbl %al,%eax
    e5f9:	09 d0                	or     %edx,%eax
    e5fb:	98                   	cwtl   
    e5fc:	89 c7                	mov    %eax,%edi
    e5fe:	e8 9a 7d ff ff       	callq  639d <safe_unary_minus_func_int16_t_s>
    e603:	98                   	cwtl   
    e604:	89 85 04 f0 ff ff    	mov    %eax,-0xffc(%rbp)
    e60a:	8b 85 04 f0 ff ff    	mov    -0xffc(%rbp),%eax
    e610:	83 f0 fb             	xor    $0xfffffffb,%eax
    e613:	0f b7 c0             	movzwl %ax,%eax
    e616:	89 c7                	mov    %eax,%edi
    e618:	e8 cc 86 ff ff       	callq  6ce9 <safe_unary_minus_func_uint16_t_u>
    e61d:	0f b7 d0             	movzwl %ax,%edx
    e620:	8b 85 f4 ed ff ff    	mov    -0x120c(%rbp),%eax
    e626:	0f b7 c0             	movzwl %ax,%eax
    e629:	89 d6                	mov    %edx,%esi
    e62b:	89 c7                	mov    %eax,%edi
    e62d:	e8 0b 87 ff ff       	callq  6d3d <safe_mul_func_uint16_t_u_u>
    e632:	0f b7 c0             	movzwl %ax,%eax
    e635:	89 85 d0 f0 ff ff    	mov    %eax,-0xf30(%rbp)
    e63b:	e9 65 01 00 00       	jmpq   e7a5 <func_52+0x36cf>
    e640:	c7 85 90 ee ff ff 33 	movl   $0xeb77d433,-0x1170(%rbp)
    e647:	d4 77 eb 
    e64a:	48 8d 05 77 9a 00 00 	lea    0x9a77(%rip),%rax        # 180c8 <g_479>
    e651:	48 89 85 c0 ef ff ff 	mov    %rax,-0x1040(%rbp)
    e658:	48 8b 05 19 b5 00 00 	mov    0xb519(%rip),%rax        # 19b78 <g_317>
    e65f:	0f b6 00             	movzbl (%rax),%eax
    e662:	84 c0                	test   %al,%al
    e664:	0f 85 12 01 00 00    	jne    e77c <func_52+0x36a6>
    e66a:	48 8b 85 c8 ed ff ff 	mov    -0x1238(%rbp),%rax
    e671:	8b 18                	mov    (%rax),%ebx
    e673:	8b 05 bb 9a 00 00    	mov    0x9abb(%rip),%eax        # 18134 <g_655>
    e679:	44 0f bf e0          	movswl %ax,%r12d
    e67d:	8b 85 18 ee ff ff    	mov    -0x11e8(%rbp),%eax
    e683:	0f b7 c0             	movzwl %ax,%eax
    e686:	be 32 3f 00 00       	mov    $0x3f32,%esi
    e68b:	89 c7                	mov    %eax,%edi
    e68d:	e8 ab 86 ff ff       	callq  6d3d <safe_mul_func_uint16_t_u_u>
    e692:	89 c1                	mov    %eax,%ecx
    e694:	48 8b 05 dd b4 00 00 	mov    0xb4dd(%rip),%rax        # 19b78 <g_317>
    e69b:	0f b6 10             	movzbl (%rax),%edx
    e69e:	48 8b 05 d3 b4 00 00 	mov    0xb4d3(%rip),%rax        # 19b78 <g_317>
    e6a5:	21 ca                	and    %ecx,%edx
    e6a7:	88 10                	mov    %dl,(%rax)
    e6a9:	0f b6 00             	movzbl (%rax),%eax
    e6ac:	44 0f be e8          	movsbl %al,%r13d
    e6b0:	48 8b 05 b9 b4 00 00 	mov    0xb4b9(%rip),%rax        # 19b70 <g_182>
    e6b7:	0f b7 00             	movzwl (%rax),%eax
    e6ba:	98                   	cwtl   
    e6bb:	89 c6                	mov    %eax,%esi
    e6bd:	bf 01 00 00 00       	mov    $0x1,%edi
    e6c2:	e8 8e 7d ff ff       	callq  6455 <safe_div_func_int16_t_s_s>
    e6c7:	0f be c0             	movsbl %al,%eax
    e6ca:	44 89 ee             	mov    %r13d,%esi
    e6cd:	89 c7                	mov    %eax,%edi
    e6cf:	e8 00 7b ff ff       	callq  61d4 <safe_add_func_int8_t_s_s>
    e6d4:	84 c0                	test   %al,%al
    e6d6:	74 1e                	je     e6f6 <func_52+0x3620>
    e6d8:	48 8b 05 91 b4 00 00 	mov    0xb491(%rip),%rax        # 19b70 <g_182>
    e6df:	0f b7 00             	movzwl (%rax),%eax
    e6e2:	66 85 c0             	test   %ax,%ax
    e6e5:	74 0f                	je     e6f6 <func_52+0x3620>
    e6e7:	48 8b 05 82 b4 00 00 	mov    0xb482(%rip),%rax        # 19b70 <g_182>
    e6ee:	0f b7 00             	movzwl (%rax),%eax
    e6f1:	66 85 c0             	test   %ax,%ax
    e6f4:	74 07                	je     e6fd <func_52+0x3627>
    e6f6:	b8 01 00 00 00       	mov    $0x1,%eax
    e6fb:	eb 05                	jmp    e702 <func_52+0x362c>
    e6fd:	b8 00 00 00 00       	mov    $0x0,%eax
    e702:	89 c2                	mov    %eax,%edx
    e704:	48 8b 85 c0 ef ff ff 	mov    -0x1040(%rbp),%rax
    e70b:	66 89 10             	mov    %dx,(%rax)
    e70e:	48 8b 85 c0 ef ff ff 	mov    -0x1040(%rbp),%rax
    e715:	0f b7 00             	movzwl (%rax),%eax
    e718:	98                   	cwtl   
    e719:	44 89 e6             	mov    %r12d,%esi
    e71c:	89 c7                	mov    %eax,%edi
    e71e:	e8 f3 7c ff ff       	callq  6416 <safe_mod_func_int16_t_s_s>
    e723:	98                   	cwtl   
    e724:	89 de                	mov    %ebx,%esi
    e726:	89 c7                	mov    %eax,%edi
    e728:	e8 89 7e ff ff       	callq  65b6 <safe_add_func_int32_t_s_s>
    e72d:	89 c3                	mov    %eax,%ebx
    e72f:	be 07 00 00 00       	mov    $0x7,%esi
    e734:	bf ff 00 00 00       	mov    $0xff,%edi
    e739:	e8 c7 84 ff ff       	callq  6c05 <safe_lshift_func_uint8_t_u_s>
    e73e:	0f b6 c0             	movzbl %al,%eax
    e741:	89 de                	mov    %ebx,%esi
    e743:	89 c7                	mov    %eax,%edi
    e745:	e8 6c 7e ff ff       	callq  65b6 <safe_add_func_int32_t_s_s>
    e74a:	39 85 90 ee ff ff    	cmp    %eax,-0x1170(%rbp)
    e750:	0f 94 c0             	sete   %al
    e753:	0f b6 c0             	movzbl %al,%eax
    e756:	39 85 90 ee ff ff    	cmp    %eax,-0x1170(%rbp)
    e75c:	0f 94 c0             	sete   %al
    e75f:	0f b6 c0             	movzbl %al,%eax
    e762:	be 05 43 00 00       	mov    $0x4305,%esi
    e767:	89 c7                	mov    %eax,%edi
    e769:	e8 b1 85 ff ff       	callq  6d1f <safe_sub_func_uint16_t_u_u>
    e76e:	48 8b 05 eb b3 00 00 	mov    0xb3eb(%rip),%rax        # 19b60 <g_68>
    e775:	0f b6 00             	movzbl (%rax),%eax
    e778:	84 c0                	test   %al,%al
    e77a:	74 07                	je     e783 <func_52+0x36ad>
    e77c:	b8 01 00 00 00       	mov    $0x1,%eax
    e781:	eb 05                	jmp    e788 <func_52+0x36b2>
    e783:	b8 00 00 00 00       	mov    $0x0,%eax
    e788:	89 85 f8 ed ff ff    	mov    %eax,-0x1208(%rbp)
    e78e:	8b 95 d0 f4 ff ff    	mov    -0xb30(%rbp),%edx
    e794:	48 8b 85 c8 ed ff ff 	mov    -0x1238(%rbp),%rax
    e79b:	8b 00                	mov    (%rax),%eax
    e79d:	21 d0                	and    %edx,%eax
    e79f:	89 85 d0 f4 ff ff    	mov    %eax,-0xb30(%rbp)
    e7a5:	44 8b ad fc f4 ff ff 	mov    -0xb04(%rbp),%r13d
    e7ac:	48 8b 05 ad b3 00 00 	mov    0xb3ad(%rip),%rax        # 19b60 <g_68>
    e7b3:	0f b6 00             	movzbl (%rax),%eax
    e7b6:	0f b6 d8             	movzbl %al,%ebx
    e7b9:	48 8d 05 90 98 00 00 	lea    0x9890(%rip),%rax        # 18050 <g_54+0x10>
    e7c0:	48 89 85 e8 ee ff ff 	mov    %rax,-0x1118(%rbp)
    e7c7:	48 8b 95 b8 ee ff ff 	mov    -0x1148(%rbp),%rdx
    e7ce:	48 8b 85 a0 ef ff ff 	mov    -0x1060(%rbp),%rax
    e7d5:	48 89 10             	mov    %rdx,(%rax)
    e7d8:	48 8b 85 b8 f2 ff ff 	mov    -0xd48(%rbp),%rax
    e7df:	48 85 c0             	test   %rax,%rax
    e7e2:	0f 94 c0             	sete   %al
    e7e5:	0f b6 d0             	movzbl %al,%edx
    e7e8:	83 bd 70 ee ff ff 01 	cmpl   $0x1,-0x1190(%rbp)
    e7ef:	0f 96 c0             	setbe  %al
    e7f2:	0f b6 c0             	movzbl %al,%eax
    e7f5:	31 d0                	xor    %edx,%eax
    e7f7:	44 0f b7 e0          	movzwl %ax,%r12d
    e7fb:	83 bd 70 ee ff ff 00 	cmpl   $0x0,-0x1190(%rbp)
    e802:	0f 94 c0             	sete   %al
    e805:	0f b6 c0             	movzbl %al,%eax
    e808:	89 05 76 98 00 00    	mov    %eax,0x9876(%rip)        # 18084 <g_194>
    e80e:	be 01 00 00 00       	mov    $0x1,%esi
    e813:	bf 08 00 00 00       	mov    $0x8,%edi
    e818:	e8 3f 85 ff ff       	callq  6d5c <safe_mod_func_uint16_t_u_u>
    e81d:	0f b7 c0             	movzwl %ax,%eax
    e820:	44 89 e6             	mov    %r12d,%esi
    e823:	89 c7                	mov    %eax,%edi
    e825:	e8 d5 84 ff ff       	callq  6cff <safe_add_func_uint16_t_u_u>
    e82a:	0f b6 c0             	movzbl %al,%eax
    e82d:	89 de                	mov    %ebx,%esi
    e82f:	89 c7                	mov    %eax,%edi
    e831:	e8 42 83 ff ff       	callq  6b78 <safe_sub_func_uint8_t_u_u>
    e836:	0f b6 c0             	movzbl %al,%eax
    e839:	41 39 c5             	cmp    %eax,%r13d
    e83c:	0f 9c c0             	setl   %al
    e83f:	0f b6 c0             	movzbl %al,%eax
    e842:	be 01 00 00 00       	mov    $0x1,%esi
    e847:	89 c7                	mov    %eax,%edi
    e849:	e8 1c 7a ff ff       	callq  626a <safe_div_func_int8_t_s_s>
    e84e:	0f be c0             	movsbl %al,%eax
    e851:	89 85 0c f0 ff ff    	mov    %eax,-0xff4(%rbp)
    e857:	8b 85 0c f0 ff ff    	mov    -0xff4(%rbp),%eax
    e85d:	21 85 18 ee ff ff    	and    %eax,-0x11e8(%rbp)
    e863:	8b 05 23 98 00 00    	mov    0x9823(%rip),%eax        # 1808c <g_355>
    e869:	98                   	cwtl   
    e86a:	be 08 00 00 00       	mov    $0x8,%esi
    e86f:	89 c7                	mov    %eax,%edi
    e871:	e8 3d 7b ff ff       	callq  63b3 <safe_add_func_int16_t_s_s>
    e876:	98                   	cwtl   
    e877:	89 05 0f 98 00 00    	mov    %eax,0x980f(%rip)        # 1808c <g_355>
    e87d:	8b 05 09 98 00 00    	mov    0x9809(%rip),%eax        # 1808c <g_355>
    e883:	83 f8 07             	cmp    $0x7,%eax
    e886:	0f 87 9c f0 ff ff    	ja     d928 <func_52+0x2852>
    e88c:	0f b7 05 ed 97 00 00 	movzwl 0x97ed(%rip),%eax        # 18080 <g_183>
    e893:	83 c0 01             	add    $0x1,%eax
    e896:	66 89 05 e3 97 00 00 	mov    %ax,0x97e3(%rip)        # 18080 <g_183>
    e89d:	0f b7 05 dc 97 00 00 	movzwl 0x97dc(%rip),%eax        # 18080 <g_183>
    e8a4:	66 83 f8 02          	cmp    $0x2,%ax
    e8a8:	0f 86 aa db ff ff    	jbe    c458 <func_52+0x1382>
    e8ae:	8b 05 b0 97 00 00    	mov    0x97b0(%rip),%eax        # 18064 <g_55>
    e8b4:	83 e8 01             	sub    $0x1,%eax
    e8b7:	89 05 a7 97 00 00    	mov    %eax,0x97a7(%rip)        # 18064 <g_55>
    e8bd:	8b 05 a1 97 00 00    	mov    0x97a1(%rip),%eax        # 18064 <g_55>
    e8c3:	85 c0                	test   %eax,%eax
    e8c5:	0f 89 78 ca ff ff    	jns    b343 <func_52+0x26d>
    e8cb:	48 8b 85 c8 ed ff ff 	mov    -0x1238(%rbp),%rax
    e8d2:	48 89 85 c0 ee ff ff 	mov    %rax,-0x1140(%rbp)
    e8d9:	48 8b 85 f0 ee ff ff 	mov    -0x1110(%rbp),%rax
    e8e0:	48 8b 95 c8 ed ff ff 	mov    -0x1238(%rbp),%rdx
    e8e7:	48 89 10             	mov    %rdx,(%rax)
    e8ea:	48 8d 05 3f 98 00 00 	lea    0x983f(%rip),%rax        # 18130 <g_651>
    e8f1:	48 8b 5d c8          	mov    -0x38(%rbp),%rbx
    e8f5:	64 48 33 1c 25 28 00 	xor    %fs:0x28,%rbx
    e8fc:	00 00 
    e8fe:	74 05                	je     e905 <func_52+0x382f>
    e900:	e8 6b 77 ff ff       	callq  6070 <__stack_chk_fail@plt>
    e905:	48 81 c4 18 12 00 00 	add    $0x1218,%rsp
    e90c:	5b                   	pop    %rbx
    e90d:	41 5c                	pop    %r12
    e90f:	41 5d                	pop    %r13
    e911:	41 5e                	pop    %r14
    e913:	41 5f                	pop    %r15
    e915:	5d                   	pop    %rbp
    e916:	c3                   	retq   

000000000000e917 <func_56>:
    e917:	f3 0f 1e fa          	endbr64 
    e91b:	55                   	push   %rbp
    e91c:	48 89 e5             	mov    %rsp,%rbp
    e91f:	41 57                	push   %r15
    e921:	41 56                	push   %r14
    e923:	41 55                	push   %r13
    e925:	41 54                	push   %r12
    e927:	53                   	push   %rbx
    e928:	48 81 ec 00 10 00 00 	sub    $0x1000,%rsp
    e92f:	48 83 0c 24 00       	orq    $0x0,(%rsp)
    e934:	48 81 ec 08 0f 00 00 	sub    $0xf08,%rsp
    e93b:	89 f8                	mov    %edi,%eax
    e93d:	48 89 b5 e0 e0 ff ff 	mov    %rsi,-0x1f20(%rbp)
    e944:	89 95 e8 e0 ff ff    	mov    %edx,-0x1f18(%rbp)
    e94a:	66 89 85 ec e0 ff ff 	mov    %ax,-0x1f14(%rbp)
    e951:	64 48 8b 04 25 28 00 	mov    %fs:0x28,%rax
    e958:	00 00 
    e95a:	48 89 45 c8          	mov    %rax,-0x38(%rbp)
    e95e:	31 c0                	xor    %eax,%eax
    e960:	48 c7 85 a8 e1 ff ff 	movq   $0x0,-0x1e58(%rbp)
    e967:	00 00 00 00 
    e96b:	48 8d 85 20 f8 ff ff 	lea    -0x7e0(%rbp),%rax
    e972:	48 8d 15 07 9c 00 00 	lea    0x9c07(%rip),%rdx        # 18580 <g_1479+0x2c0>
    e979:	b9 f5 00 00 00       	mov    $0xf5,%ecx
    e97e:	48 89 c7             	mov    %rax,%rdi
    e981:	48 89 d6             	mov    %rdx,%rsi
    e984:	f3 48 a5             	rep movsq %ds:(%rsi),%es:(%rdi)
    e987:	66 c7 85 00 e1 ff ff 	movw   $0x5b11,-0x1f00(%rbp)
    e98e:	11 5b 
    e990:	48 8d 05 b9 96 00 00 	lea    0x96b9(%rip),%rax        # 18050 <g_54+0x10>
    e997:	48 89 85 b0 e1 ff ff 	mov    %rax,-0x1e50(%rbp)
    e99e:	66 c7 85 04 e1 ff ff 	movw   $0x6585,-0x1efc(%rbp)
    e9a5:	85 65 
    e9a7:	48 c7 85 80 e1 ff ff 	movq   $0x0,-0x1e80(%rbp)
    e9ae:	00 00 00 00 
    e9b2:	48 8d 85 80 e1 ff ff 	lea    -0x1e80(%rbp),%rax
    e9b9:	48 89 85 b8 e1 ff ff 	mov    %rax,-0x1e48(%rbp)
    e9c0:	c7 85 28 e1 ff ff fc 	movl   $0xfffffffc,-0x1ed8(%rbp)
    e9c7:	ff ff ff 
    e9ca:	c6 85 fd e0 ff ff 22 	movb   $0x22,-0x1f03(%rbp)
    e9d1:	48 8d 05 a0 b1 00 00 	lea    0xb1a0(%rip),%rax        # 19b78 <g_317>
    e9d8:	48 89 85 c0 e1 ff ff 	mov    %rax,-0x1e40(%rbp)
    e9df:	c7 85 14 e1 ff ff 00 	movl   $0x0,-0x1eec(%rbp)
    e9e6:	00 00 00 
    e9e9:	eb 45                	jmp    ea30 <func_56+0x119>
    e9eb:	c7 85 18 e1 ff ff 00 	movl   $0x0,-0x1ee8(%rbp)
    e9f2:	00 00 00 
    e9f5:	eb 29                	jmp    ea20 <func_56+0x109>
    e9f7:	8b 85 18 e1 ff ff    	mov    -0x1ee8(%rbp),%eax
    e9fd:	48 98                	cltq   
    e9ff:	8b 95 14 e1 ff ff    	mov    -0x1eec(%rbp),%edx
    ea05:	48 63 d2             	movslq %edx,%rdx
    ea08:	48 01 d2             	add    %rdx,%rdx
    ea0b:	48 01 d0             	add    %rdx,%rax
    ea0e:	c7 84 85 58 e2 ff ff 	movl   $0x2,-0x1da8(%rbp,%rax,4)
    ea15:	02 00 00 00 
    ea19:	83 85 18 e1 ff ff 01 	addl   $0x1,-0x1ee8(%rbp)
    ea20:	83 bd 18 e1 ff ff 01 	cmpl   $0x1,-0x1ee8(%rbp)
    ea27:	7e ce                	jle    e9f7 <func_56+0xe0>
    ea29:	83 85 14 e1 ff ff 01 	addl   $0x1,-0x1eec(%rbp)
    ea30:	83 bd 14 e1 ff ff 00 	cmpl   $0x0,-0x1eec(%rbp)
    ea37:	7e b2                	jle    e9eb <func_56+0xd4>
    ea39:	48 8d 05 28 96 00 00 	lea    0x9628(%rip),%rax        # 18068 <g_69>
    ea40:	48 39 85 a8 e1 ff ff 	cmp    %rax,-0x1e58(%rbp)
    ea47:	0f 95 c0             	setne  %al
    ea4a:	0f b6 c0             	movzbl %al,%eax
    ea4d:	89 05 1d 96 00 00    	mov    %eax,0x961d(%rip)        # 18070 <g_111>
    ea53:	0f b7 85 00 e1 ff ff 	movzwl -0x1f00(%rbp),%eax
    ea5a:	83 c0 01             	add    $0x1,%eax
    ea5d:	66 89 85 00 e1 ff ff 	mov    %ax,-0x1f00(%rbp)
    ea64:	48 c7 85 e0 e0 ff ff 	movq   $0x5,-0x1f20(%rbp)
    ea6b:	05 00 00 00 
    ea6f:	e9 cc 1b 00 00       	jmpq   10640 <func_56+0x1d29>
    ea74:	66 c7 85 02 e1 ff ff 	movw   $0xc672,-0x1efe(%rbp)
    ea7b:	72 c6 
    ea7d:	c6 85 fc e0 ff ff fd 	movb   $0xfd,-0x1f04(%rbp)
    ea84:	c7 85 2c e1 ff ff ff 	movl   $0xffffffff,-0x1ed4(%rbp)
    ea8b:	ff ff ff 
    ea8e:	c7 85 30 e1 ff ff 92 	movl   $0x37e0f492,-0x1ed0(%rbp)
    ea95:	f4 e0 37 
    ea98:	c7 85 34 e1 ff ff 27 	movl   $0x61c5b927,-0x1ecc(%rbp)
    ea9f:	b9 c5 61 
    eaa2:	c7 85 38 e1 ff ff 7f 	movl   $0xa2bad97f,-0x1ec8(%rbp)
    eaa9:	d9 ba a2 
    eaac:	c7 85 3c e1 ff ff f9 	movl   $0xfffffff9,-0x1ec4(%rbp)
    eab3:	ff ff ff 
    eab6:	48 8d 05 cc 95 00 00 	lea    0x95cc(%rip),%rax        # 18089 <g_308>
    eabd:	48 89 85 88 e1 ff ff 	mov    %rax,-0x1e78(%rbp)
    eac4:	48 c7 85 d0 e3 ff ff 	movq   $0x0,-0x1c30(%rbp)
    eacb:	00 00 00 00 
    eacf:	48 8d 85 88 e1 ff ff 	lea    -0x1e78(%rbp),%rax
    ead6:	48 89 85 d8 e3 ff ff 	mov    %rax,-0x1c28(%rbp)
    eadd:	48 c7 85 e0 e3 ff ff 	movq   $0x0,-0x1c20(%rbp)
    eae4:	00 00 00 00 
    eae8:	48 8d 85 88 e1 ff ff 	lea    -0x1e78(%rbp),%rax
    eaef:	48 89 85 e8 e3 ff ff 	mov    %rax,-0x1c18(%rbp)
    eaf6:	48 8d 85 88 e1 ff ff 	lea    -0x1e78(%rbp),%rax
    eafd:	48 89 85 f0 e3 ff ff 	mov    %rax,-0x1c10(%rbp)
    eb04:	48 8d 85 88 e1 ff ff 	lea    -0x1e78(%rbp),%rax
    eb0b:	48 89 85 f8 e3 ff ff 	mov    %rax,-0x1c08(%rbp)
    eb12:	48 c7 85 00 e4 ff ff 	movq   $0x0,-0x1c00(%rbp)
    eb19:	00 00 00 00 
    eb1d:	48 c7 85 08 e4 ff ff 	movq   $0x0,-0x1bf8(%rbp)
    eb24:	00 00 00 00 
    eb28:	48 c7 85 10 e4 ff ff 	movq   $0x0,-0x1bf0(%rbp)
    eb2f:	00 00 00 00 
    eb33:	48 8d 85 88 e1 ff ff 	lea    -0x1e78(%rbp),%rax
    eb3a:	48 89 85 18 e4 ff ff 	mov    %rax,-0x1be8(%rbp)
    eb41:	48 8d 85 88 e1 ff ff 	lea    -0x1e78(%rbp),%rax
    eb48:	48 89 85 20 e4 ff ff 	mov    %rax,-0x1be0(%rbp)
    eb4f:	48 8d 85 88 e1 ff ff 	lea    -0x1e78(%rbp),%rax
    eb56:	48 89 85 28 e4 ff ff 	mov    %rax,-0x1bd8(%rbp)
    eb5d:	48 8d 85 88 e1 ff ff 	lea    -0x1e78(%rbp),%rax
    eb64:	48 89 85 30 e4 ff ff 	mov    %rax,-0x1bd0(%rbp)
    eb6b:	48 8d 85 88 e1 ff ff 	lea    -0x1e78(%rbp),%rax
    eb72:	48 89 85 38 e4 ff ff 	mov    %rax,-0x1bc8(%rbp)
    eb79:	48 8d 85 88 e1 ff ff 	lea    -0x1e78(%rbp),%rax
    eb80:	48 89 85 40 e4 ff ff 	mov    %rax,-0x1bc0(%rbp)
    eb87:	48 8d 85 88 e1 ff ff 	lea    -0x1e78(%rbp),%rax
    eb8e:	48 89 85 48 e4 ff ff 	mov    %rax,-0x1bb8(%rbp)
    eb95:	48 8d 85 88 e1 ff ff 	lea    -0x1e78(%rbp),%rax
    eb9c:	48 89 85 50 e4 ff ff 	mov    %rax,-0x1bb0(%rbp)
    eba3:	48 8d 85 88 e1 ff ff 	lea    -0x1e78(%rbp),%rax
    ebaa:	48 89 85 58 e4 ff ff 	mov    %rax,-0x1ba8(%rbp)
    ebb1:	48 8d 85 88 e1 ff ff 	lea    -0x1e78(%rbp),%rax
    ebb8:	48 89 85 60 e4 ff ff 	mov    %rax,-0x1ba0(%rbp)
    ebbf:	48 8d 85 88 e1 ff ff 	lea    -0x1e78(%rbp),%rax
    ebc6:	48 89 85 68 e4 ff ff 	mov    %rax,-0x1b98(%rbp)
    ebcd:	48 c7 85 70 e4 ff ff 	movq   $0x0,-0x1b90(%rbp)
    ebd4:	00 00 00 00 
    ebd8:	48 c7 85 78 e4 ff ff 	movq   $0x0,-0x1b88(%rbp)
    ebdf:	00 00 00 00 
    ebe3:	48 c7 85 80 e4 ff ff 	movq   $0x0,-0x1b80(%rbp)
    ebea:	00 00 00 00 
    ebee:	48 8d 85 88 e1 ff ff 	lea    -0x1e78(%rbp),%rax
    ebf5:	48 89 85 88 e4 ff ff 	mov    %rax,-0x1b78(%rbp)
    ebfc:	48 8d 85 88 e1 ff ff 	lea    -0x1e78(%rbp),%rax
    ec03:	48 89 85 90 e4 ff ff 	mov    %rax,-0x1b70(%rbp)
    ec0a:	48 8d 85 88 e1 ff ff 	lea    -0x1e78(%rbp),%rax
    ec11:	48 89 85 98 e4 ff ff 	mov    %rax,-0x1b68(%rbp)
    ec18:	48 c7 85 a0 e4 ff ff 	movq   $0x0,-0x1b60(%rbp)
    ec1f:	00 00 00 00 
    ec23:	48 8d 85 88 e1 ff ff 	lea    -0x1e78(%rbp),%rax
    ec2a:	48 89 85 a8 e4 ff ff 	mov    %rax,-0x1b58(%rbp)
    ec31:	48 c7 85 b0 e4 ff ff 	movq   $0x0,-0x1b50(%rbp)
    ec38:	00 00 00 00 
    ec3c:	48 8d 85 88 e1 ff ff 	lea    -0x1e78(%rbp),%rax
    ec43:	48 89 85 b8 e4 ff ff 	mov    %rax,-0x1b48(%rbp)
    ec4a:	48 8d 85 88 e1 ff ff 	lea    -0x1e78(%rbp),%rax
    ec51:	48 89 85 c0 e4 ff ff 	mov    %rax,-0x1b40(%rbp)
    ec58:	48 8d 85 88 e1 ff ff 	lea    -0x1e78(%rbp),%rax
    ec5f:	48 89 85 c8 e4 ff ff 	mov    %rax,-0x1b38(%rbp)
    ec66:	48 8d 85 88 e1 ff ff 	lea    -0x1e78(%rbp),%rax
    ec6d:	48 89 85 d0 e4 ff ff 	mov    %rax,-0x1b30(%rbp)
    ec74:	48 8d 85 88 e1 ff ff 	lea    -0x1e78(%rbp),%rax
    ec7b:	48 89 85 d8 e4 ff ff 	mov    %rax,-0x1b28(%rbp)
    ec82:	48 8d 85 88 e1 ff ff 	lea    -0x1e78(%rbp),%rax
    ec89:	48 89 85 e0 e4 ff ff 	mov    %rax,-0x1b20(%rbp)
    ec90:	48 8d 85 88 e1 ff ff 	lea    -0x1e78(%rbp),%rax
    ec97:	48 89 85 e8 e4 ff ff 	mov    %rax,-0x1b18(%rbp)
    ec9e:	48 8d 85 88 e1 ff ff 	lea    -0x1e78(%rbp),%rax
    eca5:	48 89 85 f0 e4 ff ff 	mov    %rax,-0x1b10(%rbp)
    ecac:	48 8d 85 88 e1 ff ff 	lea    -0x1e78(%rbp),%rax
    ecb3:	48 89 85 f8 e4 ff ff 	mov    %rax,-0x1b08(%rbp)
    ecba:	48 8d 85 88 e1 ff ff 	lea    -0x1e78(%rbp),%rax
    ecc1:	48 89 85 00 e5 ff ff 	mov    %rax,-0x1b00(%rbp)
    ecc8:	48 8d 85 88 e1 ff ff 	lea    -0x1e78(%rbp),%rax
    eccf:	48 89 85 08 e5 ff ff 	mov    %rax,-0x1af8(%rbp)
    ecd6:	48 c7 85 10 e5 ff ff 	movq   $0x0,-0x1af0(%rbp)
    ecdd:	00 00 00 00 
    ece1:	48 8d 85 88 e1 ff ff 	lea    -0x1e78(%rbp),%rax
    ece8:	48 89 85 18 e5 ff ff 	mov    %rax,-0x1ae8(%rbp)
    ecef:	48 8d 85 88 e1 ff ff 	lea    -0x1e78(%rbp),%rax
    ecf6:	48 89 85 20 e5 ff ff 	mov    %rax,-0x1ae0(%rbp)
    ecfd:	48 8d 85 88 e1 ff ff 	lea    -0x1e78(%rbp),%rax
    ed04:	48 89 85 28 e5 ff ff 	mov    %rax,-0x1ad8(%rbp)
    ed0b:	48 c7 85 30 e5 ff ff 	movq   $0x0,-0x1ad0(%rbp)
    ed12:	00 00 00 00 
    ed16:	48 8d 85 88 e1 ff ff 	lea    -0x1e78(%rbp),%rax
    ed1d:	48 89 85 38 e5 ff ff 	mov    %rax,-0x1ac8(%rbp)
    ed24:	48 c7 85 40 e5 ff ff 	movq   $0x0,-0x1ac0(%rbp)
    ed2b:	00 00 00 00 
    ed2f:	48 8d 85 88 e1 ff ff 	lea    -0x1e78(%rbp),%rax
    ed36:	48 89 85 48 e5 ff ff 	mov    %rax,-0x1ab8(%rbp)
    ed3d:	48 8d 85 88 e1 ff ff 	lea    -0x1e78(%rbp),%rax
    ed44:	48 89 85 50 e5 ff ff 	mov    %rax,-0x1ab0(%rbp)
    ed4b:	48 8d 85 88 e1 ff ff 	lea    -0x1e78(%rbp),%rax
    ed52:	48 89 85 58 e5 ff ff 	mov    %rax,-0x1aa8(%rbp)
    ed59:	48 c7 85 60 e5 ff ff 	movq   $0x0,-0x1aa0(%rbp)
    ed60:	00 00 00 00 
    ed64:	48 8d 85 88 e1 ff ff 	lea    -0x1e78(%rbp),%rax
    ed6b:	48 89 85 68 e5 ff ff 	mov    %rax,-0x1a98(%rbp)
    ed72:	48 c7 85 70 e5 ff ff 	movq   $0x0,-0x1a90(%rbp)
    ed79:	00 00 00 00 
    ed7d:	48 c7 85 78 e5 ff ff 	movq   $0x0,-0x1a88(%rbp)
    ed84:	00 00 00 00 
    ed88:	48 8d 85 88 e1 ff ff 	lea    -0x1e78(%rbp),%rax
    ed8f:	48 89 85 80 e5 ff ff 	mov    %rax,-0x1a80(%rbp)
    ed96:	48 8d 85 88 e1 ff ff 	lea    -0x1e78(%rbp),%rax
    ed9d:	48 89 85 88 e5 ff ff 	mov    %rax,-0x1a78(%rbp)
    eda4:	48 8d 85 88 e1 ff ff 	lea    -0x1e78(%rbp),%rax
    edab:	48 89 85 90 e5 ff ff 	mov    %rax,-0x1a70(%rbp)
    edb2:	48 c7 85 98 e5 ff ff 	movq   $0x0,-0x1a68(%rbp)
    edb9:	00 00 00 00 
    edbd:	48 8d 85 88 e1 ff ff 	lea    -0x1e78(%rbp),%rax
    edc4:	48 89 85 a0 e5 ff ff 	mov    %rax,-0x1a60(%rbp)
    edcb:	48 8d 85 88 e1 ff ff 	lea    -0x1e78(%rbp),%rax
    edd2:	48 89 85 a8 e5 ff ff 	mov    %rax,-0x1a58(%rbp)
    edd9:	48 c7 85 b0 e5 ff ff 	movq   $0x0,-0x1a50(%rbp)
    ede0:	00 00 00 00 
    ede4:	48 8d 85 88 e1 ff ff 	lea    -0x1e78(%rbp),%rax
    edeb:	48 89 85 b8 e5 ff ff 	mov    %rax,-0x1a48(%rbp)
    edf2:	48 8d 85 88 e1 ff ff 	lea    -0x1e78(%rbp),%rax
    edf9:	48 89 85 c0 e5 ff ff 	mov    %rax,-0x1a40(%rbp)
    ee00:	48 8d 85 88 e1 ff ff 	lea    -0x1e78(%rbp),%rax
    ee07:	48 89 85 c8 e5 ff ff 	mov    %rax,-0x1a38(%rbp)
    ee0e:	48 8d 85 88 e1 ff ff 	lea    -0x1e78(%rbp),%rax
    ee15:	48 89 85 d0 e5 ff ff 	mov    %rax,-0x1a30(%rbp)
    ee1c:	48 c7 85 d8 e5 ff ff 	movq   $0x0,-0x1a28(%rbp)
    ee23:	00 00 00 00 
    ee27:	48 8d 85 88 e1 ff ff 	lea    -0x1e78(%rbp),%rax
    ee2e:	48 89 85 e0 e5 ff ff 	mov    %rax,-0x1a20(%rbp)
    ee35:	48 8d 85 88 e1 ff ff 	lea    -0x1e78(%rbp),%rax
    ee3c:	48 89 85 e8 e5 ff ff 	mov    %rax,-0x1a18(%rbp)
    ee43:	48 8d 85 88 e1 ff ff 	lea    -0x1e78(%rbp),%rax
    ee4a:	48 89 85 f0 e5 ff ff 	mov    %rax,-0x1a10(%rbp)
    ee51:	48 8d 85 88 e1 ff ff 	lea    -0x1e78(%rbp),%rax
    ee58:	48 89 85 f8 e5 ff ff 	mov    %rax,-0x1a08(%rbp)
    ee5f:	48 8d 85 88 e1 ff ff 	lea    -0x1e78(%rbp),%rax
    ee66:	48 89 85 00 e6 ff ff 	mov    %rax,-0x1a00(%rbp)
    ee6d:	48 c7 85 08 e6 ff ff 	movq   $0x0,-0x19f8(%rbp)
    ee74:	00 00 00 00 
    ee78:	48 8d 85 88 e1 ff ff 	lea    -0x1e78(%rbp),%rax
    ee7f:	48 89 85 10 e6 ff ff 	mov    %rax,-0x19f0(%rbp)
    ee86:	48 8d 85 88 e1 ff ff 	lea    -0x1e78(%rbp),%rax
    ee8d:	48 89 85 18 e6 ff ff 	mov    %rax,-0x19e8(%rbp)
    ee94:	48 8d 85 88 e1 ff ff 	lea    -0x1e78(%rbp),%rax
    ee9b:	48 89 85 20 e6 ff ff 	mov    %rax,-0x19e0(%rbp)
    eea2:	48 8d 85 88 e1 ff ff 	lea    -0x1e78(%rbp),%rax
    eea9:	48 89 85 28 e6 ff ff 	mov    %rax,-0x19d8(%rbp)
    eeb0:	48 8d 85 88 e1 ff ff 	lea    -0x1e78(%rbp),%rax
    eeb7:	48 89 85 30 e6 ff ff 	mov    %rax,-0x19d0(%rbp)
    eebe:	48 8d 85 88 e1 ff ff 	lea    -0x1e78(%rbp),%rax
    eec5:	48 89 85 38 e6 ff ff 	mov    %rax,-0x19c8(%rbp)
    eecc:	48 8d 85 88 e1 ff ff 	lea    -0x1e78(%rbp),%rax
    eed3:	48 89 85 40 e6 ff ff 	mov    %rax,-0x19c0(%rbp)
    eeda:	48 8d 85 88 e1 ff ff 	lea    -0x1e78(%rbp),%rax
    eee1:	48 89 85 48 e6 ff ff 	mov    %rax,-0x19b8(%rbp)
    eee8:	48 8d 85 88 e1 ff ff 	lea    -0x1e78(%rbp),%rax
    eeef:	48 89 85 50 e6 ff ff 	mov    %rax,-0x19b0(%rbp)
    eef6:	48 c7 85 58 e6 ff ff 	movq   $0x0,-0x19a8(%rbp)
    eefd:	00 00 00 00 
    ef01:	48 c7 85 60 e6 ff ff 	movq   $0x0,-0x19a0(%rbp)
    ef08:	00 00 00 00 
    ef0c:	48 c7 85 68 e6 ff ff 	movq   $0x0,-0x1998(%rbp)
    ef13:	00 00 00 00 
    ef17:	48 8d 85 88 e1 ff ff 	lea    -0x1e78(%rbp),%rax
    ef1e:	48 89 85 70 e6 ff ff 	mov    %rax,-0x1990(%rbp)
    ef25:	48 8d 85 88 e1 ff ff 	lea    -0x1e78(%rbp),%rax
    ef2c:	48 89 85 78 e6 ff ff 	mov    %rax,-0x1988(%rbp)
    ef33:	48 8d 85 88 e1 ff ff 	lea    -0x1e78(%rbp),%rax
    ef3a:	48 89 85 80 e6 ff ff 	mov    %rax,-0x1980(%rbp)
    ef41:	48 8d 85 88 e1 ff ff 	lea    -0x1e78(%rbp),%rax
    ef48:	48 89 85 88 e6 ff ff 	mov    %rax,-0x1978(%rbp)
    ef4f:	48 8d 85 88 e1 ff ff 	lea    -0x1e78(%rbp),%rax
    ef56:	48 89 85 90 e6 ff ff 	mov    %rax,-0x1970(%rbp)
    ef5d:	48 8d 85 88 e1 ff ff 	lea    -0x1e78(%rbp),%rax
    ef64:	48 89 85 98 e6 ff ff 	mov    %rax,-0x1968(%rbp)
    ef6b:	48 c7 85 a0 e6 ff ff 	movq   $0x0,-0x1960(%rbp)
    ef72:	00 00 00 00 
    ef76:	48 8d 85 88 e1 ff ff 	lea    -0x1e78(%rbp),%rax
    ef7d:	48 89 85 a8 e6 ff ff 	mov    %rax,-0x1958(%rbp)
    ef84:	48 8d 85 88 e1 ff ff 	lea    -0x1e78(%rbp),%rax
    ef8b:	48 89 85 b0 e6 ff ff 	mov    %rax,-0x1950(%rbp)
    ef92:	48 c7 85 b8 e6 ff ff 	movq   $0x0,-0x1948(%rbp)
    ef99:	00 00 00 00 
    ef9d:	48 8d 85 88 e1 ff ff 	lea    -0x1e78(%rbp),%rax
    efa4:	48 89 85 c0 e6 ff ff 	mov    %rax,-0x1940(%rbp)
    efab:	48 8d 85 88 e1 ff ff 	lea    -0x1e78(%rbp),%rax
    efb2:	48 89 85 c8 e6 ff ff 	mov    %rax,-0x1938(%rbp)
    efb9:	48 c7 85 d0 e6 ff ff 	movq   $0x0,-0x1930(%rbp)
    efc0:	00 00 00 00 
    efc4:	48 8d 85 88 e1 ff ff 	lea    -0x1e78(%rbp),%rax
    efcb:	48 89 85 d8 e6 ff ff 	mov    %rax,-0x1928(%rbp)
    efd2:	48 8d 85 88 e1 ff ff 	lea    -0x1e78(%rbp),%rax
    efd9:	48 89 85 e0 e6 ff ff 	mov    %rax,-0x1920(%rbp)
    efe0:	48 8d 85 88 e1 ff ff 	lea    -0x1e78(%rbp),%rax
    efe7:	48 89 85 e8 e6 ff ff 	mov    %rax,-0x1918(%rbp)
    efee:	48 8d 85 88 e1 ff ff 	lea    -0x1e78(%rbp),%rax
    eff5:	48 89 85 f0 e6 ff ff 	mov    %rax,-0x1910(%rbp)
    effc:	48 8d 85 88 e1 ff ff 	lea    -0x1e78(%rbp),%rax
    f003:	48 89 85 f8 e6 ff ff 	mov    %rax,-0x1908(%rbp)
    f00a:	48 8d 85 88 e1 ff ff 	lea    -0x1e78(%rbp),%rax
    f011:	48 89 85 00 e7 ff ff 	mov    %rax,-0x1900(%rbp)
    f018:	48 c7 85 08 e7 ff ff 	movq   $0x0,-0x18f8(%rbp)
    f01f:	00 00 00 00 
    f023:	48 c7 85 10 e7 ff ff 	movq   $0x0,-0x18f0(%rbp)
    f02a:	00 00 00 00 
    f02e:	48 c7 85 18 e7 ff ff 	movq   $0x0,-0x18e8(%rbp)
    f035:	00 00 00 00 
    f039:	48 8d 85 88 e1 ff ff 	lea    -0x1e78(%rbp),%rax
    f040:	48 89 85 20 e7 ff ff 	mov    %rax,-0x18e0(%rbp)
    f047:	48 8d 85 88 e1 ff ff 	lea    -0x1e78(%rbp),%rax
    f04e:	48 89 85 28 e7 ff ff 	mov    %rax,-0x18d8(%rbp)
    f055:	48 8d 85 88 e1 ff ff 	lea    -0x1e78(%rbp),%rax
    f05c:	48 89 85 30 e7 ff ff 	mov    %rax,-0x18d0(%rbp)
    f063:	48 8d 85 88 e1 ff ff 	lea    -0x1e78(%rbp),%rax
    f06a:	48 89 85 38 e7 ff ff 	mov    %rax,-0x18c8(%rbp)
    f071:	48 8d 85 88 e1 ff ff 	lea    -0x1e78(%rbp),%rax
    f078:	48 89 85 40 e7 ff ff 	mov    %rax,-0x18c0(%rbp)
    f07f:	48 8d 85 88 e1 ff ff 	lea    -0x1e78(%rbp),%rax
    f086:	48 89 85 48 e7 ff ff 	mov    %rax,-0x18b8(%rbp)
    f08d:	48 8d 85 88 e1 ff ff 	lea    -0x1e78(%rbp),%rax
    f094:	48 89 85 50 e7 ff ff 	mov    %rax,-0x18b0(%rbp)
    f09b:	48 8d 85 88 e1 ff ff 	lea    -0x1e78(%rbp),%rax
    f0a2:	48 89 85 58 e7 ff ff 	mov    %rax,-0x18a8(%rbp)
    f0a9:	48 8d 85 88 e1 ff ff 	lea    -0x1e78(%rbp),%rax
    f0b0:	48 89 85 60 e7 ff ff 	mov    %rax,-0x18a0(%rbp)
    f0b7:	48 c7 85 68 e7 ff ff 	movq   $0x0,-0x1898(%rbp)
    f0be:	00 00 00 00 
    f0c2:	48 8d 85 88 e1 ff ff 	lea    -0x1e78(%rbp),%rax
    f0c9:	48 89 85 70 e7 ff ff 	mov    %rax,-0x1890(%rbp)
    f0d0:	48 8d 85 88 e1 ff ff 	lea    -0x1e78(%rbp),%rax
    f0d7:	48 89 85 78 e7 ff ff 	mov    %rax,-0x1888(%rbp)
    f0de:	48 8d 85 88 e1 ff ff 	lea    -0x1e78(%rbp),%rax
    f0e5:	48 89 85 80 e7 ff ff 	mov    %rax,-0x1880(%rbp)
    f0ec:	48 8d 85 88 e1 ff ff 	lea    -0x1e78(%rbp),%rax
    f0f3:	48 89 85 88 e7 ff ff 	mov    %rax,-0x1878(%rbp)
    f0fa:	48 8d 85 88 e1 ff ff 	lea    -0x1e78(%rbp),%rax
    f101:	48 89 85 90 e7 ff ff 	mov    %rax,-0x1870(%rbp)
    f108:	48 c7 85 98 e7 ff ff 	movq   $0x0,-0x1868(%rbp)
    f10f:	00 00 00 00 
    f113:	48 8d 85 88 e1 ff ff 	lea    -0x1e78(%rbp),%rax
    f11a:	48 89 85 a0 e7 ff ff 	mov    %rax,-0x1860(%rbp)
    f121:	48 8d 85 88 e1 ff ff 	lea    -0x1e78(%rbp),%rax
    f128:	48 89 85 a8 e7 ff ff 	mov    %rax,-0x1858(%rbp)
    f12f:	48 8d 85 88 e1 ff ff 	lea    -0x1e78(%rbp),%rax
    f136:	48 89 85 b0 e7 ff ff 	mov    %rax,-0x1850(%rbp)
    f13d:	48 8d 85 88 e1 ff ff 	lea    -0x1e78(%rbp),%rax
    f144:	48 89 85 b8 e7 ff ff 	mov    %rax,-0x1848(%rbp)
    f14b:	48 c7 85 c0 e7 ff ff 	movq   $0x0,-0x1840(%rbp)
    f152:	00 00 00 00 
    f156:	48 8d 85 88 e1 ff ff 	lea    -0x1e78(%rbp),%rax
    f15d:	48 89 85 c8 e7 ff ff 	mov    %rax,-0x1838(%rbp)
    f164:	48 8d 85 88 e1 ff ff 	lea    -0x1e78(%rbp),%rax
    f16b:	48 89 85 d0 e7 ff ff 	mov    %rax,-0x1830(%rbp)
    f172:	48 c7 85 d8 e7 ff ff 	movq   $0x0,-0x1828(%rbp)
    f179:	00 00 00 00 
    f17d:	48 8d 85 88 e1 ff ff 	lea    -0x1e78(%rbp),%rax
    f184:	48 89 85 e0 e7 ff ff 	mov    %rax,-0x1820(%rbp)
    f18b:	48 8d 85 88 e1 ff ff 	lea    -0x1e78(%rbp),%rax
    f192:	48 89 85 e8 e7 ff ff 	mov    %rax,-0x1818(%rbp)
    f199:	48 8d 85 88 e1 ff ff 	lea    -0x1e78(%rbp),%rax
    f1a0:	48 89 85 f0 e7 ff ff 	mov    %rax,-0x1810(%rbp)
    f1a7:	48 c7 85 f8 e7 ff ff 	movq   $0x0,-0x1808(%rbp)
    f1ae:	00 00 00 00 
    f1b2:	48 c7 85 00 e8 ff ff 	movq   $0x0,-0x1800(%rbp)
    f1b9:	00 00 00 00 
    f1bd:	48 8d 85 88 e1 ff ff 	lea    -0x1e78(%rbp),%rax
    f1c4:	48 89 85 08 e8 ff ff 	mov    %rax,-0x17f8(%rbp)
    f1cb:	48 c7 85 10 e8 ff ff 	movq   $0x0,-0x17f0(%rbp)
    f1d2:	00 00 00 00 
    f1d6:	48 8d 85 88 e1 ff ff 	lea    -0x1e78(%rbp),%rax
    f1dd:	48 89 85 18 e8 ff ff 	mov    %rax,-0x17e8(%rbp)
    f1e4:	48 8d 85 88 e1 ff ff 	lea    -0x1e78(%rbp),%rax
    f1eb:	48 89 85 20 e8 ff ff 	mov    %rax,-0x17e0(%rbp)
    f1f2:	48 8d 85 88 e1 ff ff 	lea    -0x1e78(%rbp),%rax
    f1f9:	48 89 85 28 e8 ff ff 	mov    %rax,-0x17d8(%rbp)
    f200:	48 c7 85 30 e8 ff ff 	movq   $0x0,-0x17d0(%rbp)
    f207:	00 00 00 00 
    f20b:	48 8d 85 88 e1 ff ff 	lea    -0x1e78(%rbp),%rax
    f212:	48 89 85 38 e8 ff ff 	mov    %rax,-0x17c8(%rbp)
    f219:	48 c7 85 40 e8 ff ff 	movq   $0x0,-0x17c0(%rbp)
    f220:	00 00 00 00 
    f224:	48 8d 85 88 e1 ff ff 	lea    -0x1e78(%rbp),%rax
    f22b:	48 89 85 48 e8 ff ff 	mov    %rax,-0x17b8(%rbp)
    f232:	48 8d 85 88 e1 ff ff 	lea    -0x1e78(%rbp),%rax
    f239:	48 89 85 50 e8 ff ff 	mov    %rax,-0x17b0(%rbp)
    f240:	48 8d 85 88 e1 ff ff 	lea    -0x1e78(%rbp),%rax
    f247:	48 89 85 58 e8 ff ff 	mov    %rax,-0x17a8(%rbp)
    f24e:	48 8d 85 88 e1 ff ff 	lea    -0x1e78(%rbp),%rax
    f255:	48 89 85 60 e8 ff ff 	mov    %rax,-0x17a0(%rbp)
    f25c:	48 c7 85 68 e8 ff ff 	movq   $0x0,-0x1798(%rbp)
    f263:	00 00 00 00 
    f267:	48 8d 85 88 e1 ff ff 	lea    -0x1e78(%rbp),%rax
    f26e:	48 89 85 70 e8 ff ff 	mov    %rax,-0x1790(%rbp)
    f275:	48 c7 85 78 e8 ff ff 	movq   $0x0,-0x1788(%rbp)
    f27c:	00 00 00 00 
    f280:	48 8d 85 88 e1 ff ff 	lea    -0x1e78(%rbp),%rax
    f287:	48 89 85 80 e8 ff ff 	mov    %rax,-0x1780(%rbp)
    f28e:	48 8d 85 88 e1 ff ff 	lea    -0x1e78(%rbp),%rax
    f295:	48 89 85 88 e8 ff ff 	mov    %rax,-0x1778(%rbp)
    f29c:	48 8d 85 88 e1 ff ff 	lea    -0x1e78(%rbp),%rax
    f2a3:	48 89 85 90 e8 ff ff 	mov    %rax,-0x1770(%rbp)
    f2aa:	48 8d 85 88 e1 ff ff 	lea    -0x1e78(%rbp),%rax
    f2b1:	48 89 85 98 e8 ff ff 	mov    %rax,-0x1768(%rbp)
    f2b8:	48 8d 85 88 e1 ff ff 	lea    -0x1e78(%rbp),%rax
    f2bf:	48 89 85 a0 e8 ff ff 	mov    %rax,-0x1760(%rbp)
    f2c6:	48 8d 85 88 e1 ff ff 	lea    -0x1e78(%rbp),%rax
    f2cd:	48 89 85 a8 e8 ff ff 	mov    %rax,-0x1758(%rbp)
    f2d4:	48 c7 85 b0 e8 ff ff 	movq   $0x0,-0x1750(%rbp)
    f2db:	00 00 00 00 
    f2df:	48 c7 85 b8 e8 ff ff 	movq   $0x0,-0x1748(%rbp)
    f2e6:	00 00 00 00 
    f2ea:	48 8d 85 88 e1 ff ff 	lea    -0x1e78(%rbp),%rax
    f2f1:	48 89 85 c0 e8 ff ff 	mov    %rax,-0x1740(%rbp)
    f2f8:	48 c7 85 c8 e8 ff ff 	movq   $0x0,-0x1738(%rbp)
    f2ff:	00 00 00 00 
    f303:	48 8d 85 88 e1 ff ff 	lea    -0x1e78(%rbp),%rax
    f30a:	48 89 85 d0 e8 ff ff 	mov    %rax,-0x1730(%rbp)
    f311:	48 c7 85 d8 e8 ff ff 	movq   $0x0,-0x1728(%rbp)
    f318:	00 00 00 00 
    f31c:	48 c7 85 e0 e8 ff ff 	movq   $0x0,-0x1720(%rbp)
    f323:	00 00 00 00 
    f327:	48 8d 85 88 e1 ff ff 	lea    -0x1e78(%rbp),%rax
    f32e:	48 89 85 e8 e8 ff ff 	mov    %rax,-0x1718(%rbp)
    f335:	48 8d 85 88 e1 ff ff 	lea    -0x1e78(%rbp),%rax
    f33c:	48 89 85 f0 e8 ff ff 	mov    %rax,-0x1710(%rbp)
    f343:	48 8d 85 88 e1 ff ff 	lea    -0x1e78(%rbp),%rax
    f34a:	48 89 85 f8 e8 ff ff 	mov    %rax,-0x1708(%rbp)
    f351:	48 c7 85 00 e9 ff ff 	movq   $0x0,-0x1700(%rbp)
    f358:	00 00 00 00 
    f35c:	48 8d 85 88 e1 ff ff 	lea    -0x1e78(%rbp),%rax
    f363:	48 89 85 08 e9 ff ff 	mov    %rax,-0x16f8(%rbp)
    f36a:	48 8d 85 88 e1 ff ff 	lea    -0x1e78(%rbp),%rax
    f371:	48 89 85 10 e9 ff ff 	mov    %rax,-0x16f0(%rbp)
    f378:	48 8d 85 88 e1 ff ff 	lea    -0x1e78(%rbp),%rax
    f37f:	48 89 85 18 e9 ff ff 	mov    %rax,-0x16e8(%rbp)
    f386:	48 8d 85 88 e1 ff ff 	lea    -0x1e78(%rbp),%rax
    f38d:	48 89 85 20 e9 ff ff 	mov    %rax,-0x16e0(%rbp)
    f394:	48 c7 85 28 e9 ff ff 	movq   $0x0,-0x16d8(%rbp)
    f39b:	00 00 00 00 
    f39f:	48 8d 85 88 e1 ff ff 	lea    -0x1e78(%rbp),%rax
    f3a6:	48 89 85 30 e9 ff ff 	mov    %rax,-0x16d0(%rbp)
    f3ad:	48 c7 85 38 e9 ff ff 	movq   $0x0,-0x16c8(%rbp)
    f3b4:	00 00 00 00 
    f3b8:	48 8d 85 88 e1 ff ff 	lea    -0x1e78(%rbp),%rax
    f3bf:	48 89 85 40 e9 ff ff 	mov    %rax,-0x16c0(%rbp)
    f3c6:	48 8d 85 88 e1 ff ff 	lea    -0x1e78(%rbp),%rax
    f3cd:	48 89 85 48 e9 ff ff 	mov    %rax,-0x16b8(%rbp)
    f3d4:	48 8d 85 88 e1 ff ff 	lea    -0x1e78(%rbp),%rax
    f3db:	48 89 85 50 e9 ff ff 	mov    %rax,-0x16b0(%rbp)
    f3e2:	48 8d 85 88 e1 ff ff 	lea    -0x1e78(%rbp),%rax
    f3e9:	48 89 85 58 e9 ff ff 	mov    %rax,-0x16a8(%rbp)
    f3f0:	48 c7 85 60 e9 ff ff 	movq   $0x0,-0x16a0(%rbp)
    f3f7:	00 00 00 00 
    f3fb:	48 8d 85 88 e1 ff ff 	lea    -0x1e78(%rbp),%rax
    f402:	48 89 85 68 e9 ff ff 	mov    %rax,-0x1698(%rbp)
    f409:	48 8d 85 88 e1 ff ff 	lea    -0x1e78(%rbp),%rax
    f410:	48 89 85 70 e9 ff ff 	mov    %rax,-0x1690(%rbp)
    f417:	48 8d 85 88 e1 ff ff 	lea    -0x1e78(%rbp),%rax
    f41e:	48 89 85 78 e9 ff ff 	mov    %rax,-0x1688(%rbp)
    f425:	48 c7 85 80 e9 ff ff 	movq   $0x0,-0x1680(%rbp)
    f42c:	00 00 00 00 
    f430:	48 c7 85 88 e9 ff ff 	movq   $0x0,-0x1678(%rbp)
    f437:	00 00 00 00 
    f43b:	48 8d 85 88 e1 ff ff 	lea    -0x1e78(%rbp),%rax
    f442:	48 89 85 90 e9 ff ff 	mov    %rax,-0x1670(%rbp)
    f449:	48 c7 85 98 e9 ff ff 	movq   $0x0,-0x1668(%rbp)
    f450:	00 00 00 00 
    f454:	48 8d 85 88 e1 ff ff 	lea    -0x1e78(%rbp),%rax
    f45b:	48 89 85 a0 e9 ff ff 	mov    %rax,-0x1660(%rbp)
    f462:	48 c7 85 a8 e9 ff ff 	movq   $0x0,-0x1658(%rbp)
    f469:	00 00 00 00 
    f46d:	48 c7 85 b0 e9 ff ff 	movq   $0x0,-0x1650(%rbp)
    f474:	00 00 00 00 
    f478:	48 8d 85 88 e1 ff ff 	lea    -0x1e78(%rbp),%rax
    f47f:	48 89 85 b8 e9 ff ff 	mov    %rax,-0x1648(%rbp)
    f486:	48 8d 85 88 e1 ff ff 	lea    -0x1e78(%rbp),%rax
    f48d:	48 89 85 c0 e9 ff ff 	mov    %rax,-0x1640(%rbp)
    f494:	48 8d 85 88 e1 ff ff 	lea    -0x1e78(%rbp),%rax
    f49b:	48 89 85 c8 e9 ff ff 	mov    %rax,-0x1638(%rbp)
    f4a2:	48 8d 85 88 e1 ff ff 	lea    -0x1e78(%rbp),%rax
    f4a9:	48 89 85 d0 e9 ff ff 	mov    %rax,-0x1630(%rbp)
    f4b0:	48 8d 85 88 e1 ff ff 	lea    -0x1e78(%rbp),%rax
    f4b7:	48 89 85 d8 e9 ff ff 	mov    %rax,-0x1628(%rbp)
    f4be:	48 8d 85 88 e1 ff ff 	lea    -0x1e78(%rbp),%rax
    f4c5:	48 89 85 e0 e9 ff ff 	mov    %rax,-0x1620(%rbp)
    f4cc:	48 c7 85 e8 e9 ff ff 	movq   $0x0,-0x1618(%rbp)
    f4d3:	00 00 00 00 
    f4d7:	48 8d 85 88 e1 ff ff 	lea    -0x1e78(%rbp),%rax
    f4de:	48 89 85 f0 e9 ff ff 	mov    %rax,-0x1610(%rbp)
    f4e5:	48 c7 85 f8 e9 ff ff 	movq   $0x0,-0x1608(%rbp)
    f4ec:	00 00 00 00 
    f4f0:	48 8d 85 88 e1 ff ff 	lea    -0x1e78(%rbp),%rax
    f4f7:	48 89 85 00 ea ff ff 	mov    %rax,-0x1600(%rbp)
    f4fe:	48 8d 85 88 e1 ff ff 	lea    -0x1e78(%rbp),%rax
    f505:	48 89 85 08 ea ff ff 	mov    %rax,-0x15f8(%rbp)
    f50c:	66 c7 85 06 e1 ff ff 	movw   $0xffff,-0x1efa(%rbp)
    f513:	ff ff 
    f515:	48 8d 05 50 8b 00 00 	lea    0x8b50(%rip),%rax        # 1806c <g_84>
    f51c:	48 89 85 90 e1 ff ff 	mov    %rax,-0x1e70(%rbp)
    f523:	48 8d 85 90 e1 ff ff 	lea    -0x1e70(%rbp),%rax
    f52a:	48 89 85 98 e1 ff ff 	mov    %rax,-0x1e68(%rbp)
    f531:	48 8d 85 98 e1 ff ff 	lea    -0x1e68(%rbp),%rax
    f538:	48 89 85 c8 e1 ff ff 	mov    %rax,-0x1e38(%rbp)
    f53f:	c7 85 40 e1 ff ff 47 	movl   $0x79fc5747,-0x1ec0(%rbp)
    f546:	57 fc 79 
    f549:	48 8d 05 20 b4 00 00 	lea    0xb420(%rip),%rax        # 1a970 <g_171>
    f550:	48 89 85 d0 e1 ff ff 	mov    %rax,-0x1e30(%rbp)
    f557:	48 8d 85 02 e1 ff ff 	lea    -0x1efe(%rbp),%rax
    f55e:	48 89 85 d8 e1 ff ff 	mov    %rax,-0x1e28(%rbp)
    f565:	c6 05 fc 8a 00 00 f9 	movb   $0xf9,0x8afc(%rip)        # 18068 <g_69>
    f56c:	e9 b8 10 00 00       	jmpq   10629 <func_56+0x1d12>
    f571:	48 8d 85 20 f8 ff ff 	lea    -0x7e0(%rbp),%rax
    f578:	48 05 88 05 00 00    	add    $0x588,%rax
    f57e:	48 89 85 a0 e1 ff ff 	mov    %rax,-0x1e60(%rbp)
    f585:	c7 85 44 e1 ff ff f6 	movl   $0xfffffff6,-0x1ebc(%rbp)
    f58c:	ff ff ff 
    f58f:	48 c7 85 e0 e1 ff ff 	movq   $0x0,-0x1e20(%rbp)
    f596:	00 00 00 00 
    f59a:	48 8d 05 d3 8a 00 00 	lea    0x8ad3(%rip),%rax        # 18074 <g_149>
    f5a1:	48 89 85 e8 e1 ff ff 	mov    %rax,-0x1e18(%rbp)
    f5a8:	c6 85 fb e0 ff ff cb 	movb   $0xcb,-0x1f05(%rbp)
    f5af:	c7 85 48 e1 ff ff 00 	movl   $0x0,-0x1eb8(%rbp)
    f5b6:	00 00 00 
    f5b9:	c7 85 4c e1 ff ff fc 	movl   $0xfffffffc,-0x1eb4(%rbp)
    f5c0:	ff ff ff 
    f5c3:	c7 85 50 e1 ff ff bd 	movl   $0xdc54fbd,-0x1eb0(%rbp)
    f5ca:	4f c5 0d 
    f5cd:	c7 85 54 e1 ff ff 00 	movl   $0x0,-0x1eac(%rbp)
    f5d4:	00 00 00 
    f5d7:	c7 85 58 e1 ff ff 59 	movl   $0x4f56a359,-0x1ea8(%rbp)
    f5de:	a3 56 4f 
    f5e1:	c7 85 5c e1 ff ff 06 	movl   $0x6,-0x1ea4(%rbp)
    f5e8:	00 00 00 
    f5eb:	c7 85 60 e1 ff ff 00 	movl   $0x0,-0x1ea0(%rbp)
    f5f2:	00 00 00 
    f5f5:	c6 85 fe e0 ff ff ae 	movb   $0xae,-0x1f02(%rbp)
    f5fc:	c7 85 1c e1 ff ff 00 	movl   $0x0,-0x1ee4(%rbp)
    f603:	00 00 00 
    f606:	eb 46                	jmp    f64e <func_56+0xd37>
    f608:	c7 85 20 e1 ff ff 00 	movl   $0x0,-0x1ee0(%rbp)
    f60f:	00 00 00 
    f612:	eb 2a                	jmp    f63e <func_56+0xd27>
    f614:	8b 85 20 e1 ff ff    	mov    -0x1ee0(%rbp),%eax
    f61a:	48 98                	cltq   
    f61c:	8b 95 1c e1 ff ff    	mov    -0x1ee4(%rbp),%edx
    f622:	48 63 d2             	movslq %edx,%rdx
    f625:	48 01 d2             	add    %rdx,%rdx
    f628:	48 01 d0             	add    %rdx,%rax
    f62b:	48 c7 84 c5 a0 e2 ff 	movq   $0x0,-0x1d60(%rbp,%rax,8)
    f632:	ff 00 00 00 00 
    f637:	83 85 20 e1 ff ff 01 	addl   $0x1,-0x1ee0(%rbp)
    f63e:	83 bd 20 e1 ff ff 01 	cmpl   $0x1,-0x1ee0(%rbp)
    f645:	7e cd                	jle    f614 <func_56+0xcfd>
    f647:	83 85 1c e1 ff ff 01 	addl   $0x1,-0x1ee4(%rbp)
    f64e:	83 bd 1c e1 ff ff 06 	cmpl   $0x6,-0x1ee4(%rbp)
    f655:	7e b1                	jle    f608 <func_56+0xcf1>
    f657:	48 8b 05 02 a5 00 00 	mov    0xa502(%rip),%rax        # 19b60 <g_68>
    f65e:	0f b6 00             	movzbl (%rax),%eax
    f661:	4c 0f be f8          	movsbq %al,%r15
    f665:	48 8b 85 a0 e1 ff ff 	mov    -0x1e60(%rbp),%rax
    f66c:	48 85 c0             	test   %rax,%rax
    f66f:	0f 94 c0             	sete   %al
    f672:	0f b6 c0             	movzbl %al,%eax
    f675:	66 89 05 e2 89 00 00 	mov    %ax,0x89e2(%rip)        # 1805e <g_54+0x1e>
    f67c:	0f b7 05 db 89 00 00 	movzwl 0x89db(%rip),%eax        # 1805e <g_54+0x1e>
    f683:	98                   	cwtl   
    f684:	89 85 dc e0 ff ff    	mov    %eax,-0x1f24(%rbp)
    f68a:	8b 9d e8 e0 ff ff    	mov    -0x1f18(%rbp),%ebx
    f690:	8b 85 44 e1 ff ff    	mov    -0x1ebc(%rbp),%eax
    f696:	44 0f be e0          	movsbl %al,%r12d
    f69a:	0f b7 85 ec e0 ff ff 	movzwl -0x1f14(%rbp),%eax
    f6a1:	44 0f bf e8          	movswl %ax,%r13d
    f6a5:	8b 85 44 e1 ff ff    	mov    -0x1ebc(%rbp),%eax
    f6ab:	44 0f bf f0          	movswl %ax,%r14d
    f6af:	48 8b 05 aa a4 00 00 	mov    0xa4aa(%rip),%rax        # 19b60 <g_68>
    f6b6:	0f b6 00             	movzbl (%rax),%eax
    f6b9:	0f b6 d0             	movzbl %al,%edx
    f6bc:	48 8b 85 e0 e0 ff ff 	mov    -0x1f20(%rbp),%rax
    f6c3:	48 b9 71 04 56 6f e3 	movabs $0xdb51a9e36f560471,%rcx
    f6ca:	a9 51 db 
    f6cd:	48 39 c8             	cmp    %rcx,%rax
    f6d0:	0f 96 c0             	setbe  %al
    f6d3:	0f b6 c0             	movzbl %al,%eax
    f6d6:	89 d6                	mov    %edx,%esi
    f6d8:	89 c7                	mov    %eax,%edi
    f6da:	e8 7b 74 ff ff       	callq  6b5a <safe_add_func_uint8_t_u_u>
    f6df:	0f b7 85 02 e1 ff ff 	movzwl -0x1efe(%rbp),%eax
    f6e6:	66 39 85 ec e0 ff ff 	cmp    %ax,-0x1f14(%rbp)
    f6ed:	0f 92 c0             	setb   %al
    f6f0:	0f b6 c0             	movzbl %al,%eax
    f6f3:	44 89 f6             	mov    %r14d,%esi
    f6f6:	89 c7                	mov    %eax,%edi
    f6f8:	e8 f8 6c ff ff       	callq  63f5 <safe_mul_func_int16_t_s_s>
    f6fd:	89 c2                	mov    %eax,%edx
    f6ff:	48 8b 85 e8 e1 ff ff 	mov    -0x1e18(%rbp),%rax
    f706:	88 10                	mov    %dl,(%rax)
    f708:	8b 05 16 89 00 00    	mov    0x8916(%rip),%eax        # 18024 <g_3>
    f70e:	48 98                	cltq   
    f710:	48 39 85 e0 e0 ff ff 	cmp    %rax,-0x1f20(%rbp)
    f717:	0f 94 c0             	sete   %al
    f71a:	0f b6 c0             	movzbl %al,%eax
    f71d:	44 89 ee             	mov    %r13d,%esi
    f720:	89 c7                	mov    %eax,%edi
    f722:	e8 ce 6c ff ff       	callq  63f5 <safe_mul_func_int16_t_s_s>
    f727:	0f be c0             	movsbl %al,%eax
    f72a:	44 89 e6             	mov    %r12d,%esi
    f72d:	89 c7                	mov    %eax,%edi
    f72f:	e8 de 6a ff ff       	callq  6212 <safe_mul_func_int8_t_s_s>
    f734:	48 0f be c0          	movsbq %al,%rax
    f738:	48 c7 c6 ff ff ff ff 	mov    $0xffffffffffffffff,%rsi
    f73f:	48 89 c7             	mov    %rax,%rdi
    f742:	e8 6d 72 ff ff       	callq  69b4 <safe_mod_func_int64_t_s_s>
    f747:	48 8b 15 12 a4 00 00 	mov    0xa412(%rip),%rdx        # 19b60 <g_68>
    f74e:	0f b6 12             	movzbl (%rdx),%edx
    f751:	48 0f be d2          	movsbq %dl,%rdx
    f755:	48 39 d0             	cmp    %rdx,%rax
    f758:	0f 95 c0             	setne  %al
    f75b:	0f b6 c0             	movzbl %al,%eax
    f75e:	48 be 24 d9 ab 78 5f 	movabs $0x3621335f78abd924,%rsi
    f765:	33 21 36 
    f768:	48 89 c7             	mov    %rax,%rdi
    f76b:	e8 3f 79 ff ff       	callq  70af <safe_div_func_uint64_t_u_u>
    f770:	83 bd e8 e0 ff ff 00 	cmpl   $0x0,-0x1f18(%rbp)
    f777:	48 8d 05 ea 88 00 00 	lea    0x88ea(%rip),%rax        # 18068 <g_69>
    f77e:	48 39 85 a8 e1 ff ff 	cmp    %rax,-0x1e58(%rbp)
    f785:	0f 95 c0             	setne  %al
    f788:	0f b6 c0             	movzbl %al,%eax
    f78b:	89 05 df 88 00 00    	mov    %eax,0x88df(%rip)        # 18070 <g_111>
    f791:	8b 05 d9 88 00 00    	mov    0x88d9(%rip),%eax        # 18070 <g_111>
    f797:	89 de                	mov    %ebx,%esi
    f799:	89 c7                	mov    %eax,%edi
    f79b:	e8 65 6e ff ff       	callq  6605 <safe_sub_func_int32_t_s_s>
    f7a0:	0f b6 c0             	movzbl %al,%eax
    f7a3:	be 00 00 00 00       	mov    $0x0,%esi
    f7a8:	89 c7                	mov    %eax,%edi
    f7aa:	e8 ab 73 ff ff       	callq  6b5a <safe_add_func_uint8_t_u_u>
    f7af:	0f b6 c0             	movzbl %al,%eax
    f7b2:	39 85 dc e0 ff ff    	cmp    %eax,-0x1f24(%rbp)
    f7b8:	7f 13                	jg     f7cd <func_56+0xeb6>
    f7ba:	0f b7 85 02 e1 ff ff 	movzwl -0x1efe(%rbp),%eax
    f7c1:	66 85 c0             	test   %ax,%ax
    f7c4:	74 07                	je     f7cd <func_56+0xeb6>
    f7c6:	b8 01 00 00 00       	mov    $0x1,%eax
    f7cb:	eb 05                	jmp    f7d2 <func_56+0xebb>
    f7cd:	b8 00 00 00 00       	mov    $0x0,%eax
    f7d2:	48 98                	cltq   
    f7d4:	ba c3 77 76 ba       	mov    $0xba7677c3,%edx
    f7d9:	48 31 c2             	xor    %rax,%rdx
    f7dc:	0f b7 85 ec e0 ff ff 	movzwl -0x1f14(%rbp),%eax
    f7e3:	48 39 c2             	cmp    %rax,%rdx
    f7e6:	0f 9d c0             	setge  %al
    f7e9:	0f b6 d0             	movzbl %al,%edx
    f7ec:	0f b7 85 02 e1 ff ff 	movzwl -0x1efe(%rbp),%eax
    f7f3:	0f b7 c0             	movzwl %ax,%eax
    f7f6:	39 c2                	cmp    %eax,%edx
    f7f8:	0f 9c c0             	setl   %al
    f7fb:	0f b6 d0             	movzbl %al,%edx
    f7fe:	0f b7 85 ec e0 ff ff 	movzwl -0x1f14(%rbp),%eax
    f805:	39 c2                	cmp    %eax,%edx
    f807:	0f 9f c0             	setg   %al
    f80a:	0f b6 c0             	movzbl %al,%eax
    f80d:	4c 21 f8             	and    %r15,%rax
    f810:	48 85 c0             	test   %rax,%rax
    f813:	74 12                	je     f827 <func_56+0xf10>
    f815:	0f b6 05 58 88 00 00 	movzbl 0x8858(%rip),%eax        # 18074 <g_149>
    f81c:	88 85 fc e0 ff ff    	mov    %al,-0x1f04(%rbp)
    f822:	e9 f2 0d 00 00       	jmpq   10619 <func_56+0x1d02>
    f827:	c6 85 ff e0 ff ff c5 	movb   $0xc5,-0x1f01(%rbp)
    f82e:	48 8d 85 02 e1 ff ff 	lea    -0x1efe(%rbp),%rax
    f835:	48 89 85 f0 e1 ff ff 	mov    %rax,-0x1e10(%rbp)
    f83c:	48 8d 85 a0 f0 ff ff 	lea    -0xf60(%rbp),%rax
    f843:	48 8d 15 f6 94 00 00 	lea    0x94f6(%rip),%rdx        # 18d40 <g_1479+0xa80>
    f84a:	b9 f0 00 00 00       	mov    $0xf0,%ecx
    f84f:	48 89 c7             	mov    %rax,%rdi
    f852:	48 89 d6             	mov    %rdx,%rsi
    f855:	f3 48 a5             	rep movsq %ds:(%rsi),%es:(%rdi)
    f858:	c7 85 64 e1 ff ff 34 	movl   $0x9ad04334,-0x1e9c(%rbp)
    f85f:	43 d0 9a 
    f862:	48 c7 85 f8 e1 ff ff 	movq   $0xfffffffffffffff6,-0x1e08(%rbp)
    f869:	f6 ff ff ff 
    f86d:	48 c7 85 00 e2 ff ff 	movq   $0x0,-0x1e00(%rbp)
    f874:	00 00 00 00 
    f878:	c7 85 68 e1 ff ff fe 	movl   $0xfffffffe,-0x1e98(%rbp)
    f87f:	ff ff ff 
    f882:	c7 85 10 e1 ff ff ee 	movl   $0xd29b11ee,-0x1ef0(%rbp)
    f889:	11 9b d2 
    f88c:	c7 85 6c e1 ff ff 09 	movl   $0x3043b709,-0x1e94(%rbp)
    f893:	b7 43 30 
    f896:	c7 85 10 e3 ff ff fe 	movl   $0xfffffffe,-0x1cf0(%rbp)
    f89d:	ff ff ff 
    f8a0:	c7 85 14 e3 ff ff 00 	movl   $0x0,-0x1cec(%rbp)
    f8a7:	00 00 00 
    f8aa:	c7 85 18 e3 ff ff 01 	movl   $0x1,-0x1ce8(%rbp)
    f8b1:	00 00 00 
    f8b4:	c7 85 1c e3 ff ff 4e 	movl   $0x3669614e,-0x1ce4(%rbp)
    f8bb:	61 69 36 
    f8be:	c7 85 20 e3 ff ff 01 	movl   $0x1,-0x1ce0(%rbp)
    f8c5:	00 00 00 
    f8c8:	c7 85 24 e3 ff ff 00 	movl   $0x0,-0x1cdc(%rbp)
    f8cf:	00 00 00 
    f8d2:	c7 85 28 e3 ff ff fe 	movl   $0xfffffffe,-0x1cd8(%rbp)
    f8d9:	ff ff ff 
    f8dc:	c7 85 2c e3 ff ff fe 	movl   $0xfffffffe,-0x1cd4(%rbp)
    f8e3:	ff ff ff 
    f8e6:	c7 85 30 e3 ff ff 00 	movl   $0x0,-0x1cd0(%rbp)
    f8ed:	00 00 00 
    f8f0:	c7 85 34 e3 ff ff 4e 	movl   $0x3669614e,-0x1ccc(%rbp)
    f8f7:	61 69 36 
    f8fa:	c7 85 38 e3 ff ff 00 	movl   $0xddcf8c00,-0x1cc8(%rbp)
    f901:	8c cf dd 
    f904:	c7 85 3c e3 ff ff 00 	movl   $0xddcf8c00,-0x1cc4(%rbp)
    f90b:	8c cf dd 
    f90e:	c7 85 40 e3 ff ff 4e 	movl   $0x3669614e,-0x1cc0(%rbp)
    f915:	61 69 36 
    f918:	c7 85 44 e3 ff ff 00 	movl   $0x0,-0x1cbc(%rbp)
    f91f:	00 00 00 
    f922:	c7 85 48 e3 ff ff f6 	movl   $0xfffffff6,-0x1cb8(%rbp)
    f929:	ff ff ff 
    f92c:	c7 85 4c e3 ff ff 00 	movl   $0x0,-0x1cb4(%rbp)
    f933:	00 00 00 
    f936:	c7 85 50 e3 ff ff 4e 	movl   $0x3669614e,-0x1cb0(%rbp)
    f93d:	61 69 36 
    f940:	c7 85 54 e3 ff ff 00 	movl   $0x0,-0x1cac(%rbp)
    f947:	00 00 00 
    f94a:	c7 85 58 e3 ff ff f6 	movl   $0xfffffff6,-0x1ca8(%rbp)
    f951:	ff ff ff 
    f954:	c7 85 5c e3 ff ff 00 	movl   $0x0,-0x1ca4(%rbp)
    f95b:	00 00 00 
    f95e:	c7 85 60 e3 ff ff 4e 	movl   $0x3669614e,-0x1ca0(%rbp)
    f965:	61 69 36 
    f968:	c7 85 64 e3 ff ff 00 	movl   $0xddcf8c00,-0x1c9c(%rbp)
    f96f:	8c cf dd 
    f972:	c7 85 68 e3 ff ff 00 	movl   $0xddcf8c00,-0x1c98(%rbp)
    f979:	8c cf dd 
    f97c:	c7 85 6c e3 ff ff 4e 	movl   $0x3669614e,-0x1c94(%rbp)
    f983:	61 69 36 
    f986:	c7 85 70 e3 ff ff 00 	movl   $0x0,-0x1c90(%rbp)
    f98d:	00 00 00 
    f990:	c7 85 74 e3 ff ff fe 	movl   $0xfffffffe,-0x1c8c(%rbp)
    f997:	ff ff ff 
    f99a:	c7 85 78 e3 ff ff fe 	movl   $0xfffffffe,-0x1c88(%rbp)
    f9a1:	ff ff ff 
    f9a4:	c7 85 7c e3 ff ff 00 	movl   $0x0,-0x1c84(%rbp)
    f9ab:	00 00 00 
    f9ae:	c7 85 80 e3 ff ff 01 	movl   $0x1,-0x1c80(%rbp)
    f9b5:	00 00 00 
    f9b8:	c7 85 84 e3 ff ff 4e 	movl   $0x3669614e,-0x1c7c(%rbp)
    f9bf:	61 69 36 
    f9c2:	c7 85 88 e3 ff ff 01 	movl   $0x1,-0x1c78(%rbp)
    f9c9:	00 00 00 
    f9cc:	c7 85 8c e3 ff ff 00 	movl   $0x0,-0x1c74(%rbp)
    f9d3:	00 00 00 
    f9d6:	c7 85 90 e3 ff ff fe 	movl   $0xfffffffe,-0x1c70(%rbp)
    f9dd:	ff ff ff 
    f9e0:	c7 85 94 e3 ff ff 01 	movl   $0x1,-0x1c6c(%rbp)
    f9e7:	00 00 00 
    f9ea:	c7 85 98 e3 ff ff fe 	movl   $0xfffffffe,-0x1c68(%rbp)
    f9f1:	ff ff ff 
    f9f4:	c7 85 9c e3 ff ff 00 	movl   $0xddcf8c00,-0x1c64(%rbp)
    f9fb:	8c cf dd 
    f9fe:	c7 85 a0 e3 ff ff f6 	movl   $0xfffffff6,-0x1c60(%rbp)
    fa05:	ff ff ff 
    fa08:	c7 85 a4 e3 ff ff f6 	movl   $0xfffffff6,-0x1c5c(%rbp)
    fa0f:	ff ff ff 
    fa12:	c7 85 a8 e3 ff ff 00 	movl   $0xddcf8c00,-0x1c58(%rbp)
    fa19:	8c cf dd 
    fa1c:	c7 85 ac e3 ff ff fe 	movl   $0xfffffffe,-0x1c54(%rbp)
    fa23:	ff ff ff 
    fa26:	c7 85 b0 e3 ff ff 01 	movl   $0x1,-0x1c50(%rbp)
    fa2d:	00 00 00 
    fa30:	c7 85 b4 e3 ff ff 01 	movl   $0x1,-0x1c4c(%rbp)
    fa37:	00 00 00 
    fa3a:	c7 85 b8 e3 ff ff f6 	movl   $0xfffffff6,-0x1c48(%rbp)
    fa41:	ff ff ff 
    fa44:	c7 85 bc e3 ff ff 4e 	movl   $0x3669614e,-0x1c44(%rbp)
    fa4b:	61 69 36 
    fa4e:	c7 85 c0 e3 ff ff 3d 	movl   $0xb902bf3d,-0x1c40(%rbp)
    fa55:	bf 02 b9 
    fa58:	c7 85 c4 e3 ff ff 4e 	movl   $0x3669614e,-0x1c3c(%rbp)
    fa5f:	61 69 36 
    fa62:	c7 85 c8 e3 ff ff f6 	movl   $0xfffffff6,-0x1c38(%rbp)
    fa69:	ff ff ff 
    fa6c:	c7 85 cc e3 ff ff 01 	movl   $0x1,-0x1c34(%rbp)
    fa73:	00 00 00 
    fa76:	48 c7 85 08 e2 ff ff 	movq   $0x0,-0x1df8(%rbp)
    fa7d:	00 00 00 00 
    fa81:	66 c7 85 08 e1 ff ff 	movw   $0xfffa,-0x1ef8(%rbp)
    fa88:	fa ff 
    fa8a:	48 8d 85 20 f8 ff ff 	lea    -0x7e0(%rbp),%rax
    fa91:	48 05 e8 01 00 00    	add    $0x1e8,%rax
    fa97:	48 89 85 10 e2 ff ff 	mov    %rax,-0x1df0(%rbp)
    fa9e:	0f b6 05 c3 85 00 00 	movzbl 0x85c3(%rip),%eax        # 18068 <g_69>
    faa5:	4c 0f be e0          	movsbq %al,%r12
    faa9:	0f be 9d fc e0 ff ff 	movsbl -0x1f04(%rbp),%ebx
    fab0:	0f b7 05 8d 85 00 00 	movzwl 0x858d(%rip),%eax        # 18044 <g_54+0x4>
    fab7:	0f b7 c0             	movzwl %ax,%eax
    faba:	89 c6                	mov    %eax,%esi
    fabc:	bf 01 00 00 00       	mov    $0x1,%edi
    fac1:	e8 c8 72 ff ff       	callq  6d8e <safe_div_func_uint16_t_u_u>
    fac6:	89 de                	mov    %ebx,%esi
    fac8:	bf 01 00 00 00       	mov    $0x1,%edi
    facd:	e8 9a 68 ff ff       	callq  636c <safe_rshift_func_int8_t_s_u>
    fad2:	48 c7 05 93 ae 00 00 	movq   $0x1,0xae93(%rip)        # 1a970 <g_171>
    fad9:	01 00 00 00 
    fadd:	0f b7 05 5c 85 00 00 	movzwl 0x855c(%rip),%eax        # 18040 <g_54>
    fae4:	98                   	cwtl   
    fae5:	23 85 e8 e0 ff ff    	and    -0x1f18(%rbp),%eax
    faeb:	89 c0                	mov    %eax,%eax
    faed:	be 01 00 00 00       	mov    $0x1,%esi
    faf2:	48 89 c7             	mov    %rax,%rdi
    faf5:	e8 34 75 ff ff       	callq  702e <safe_add_func_uint64_t_u_u>
    fafa:	be 09 00 00 00       	mov    $0x9,%esi
    faff:	48 89 c7             	mov    %rax,%rdi
    fb02:	e8 f0 6e ff ff       	callq  69f7 <safe_div_func_int64_t_s_s>
    fb07:	0f b6 15 5a 85 00 00 	movzbl 0x855a(%rip),%edx        # 18068 <g_69>
    fb0e:	48 0f be d2          	movsbq %dl,%rdx
    fb12:	48 09 d0             	or     %rdx,%rax
    fb15:	49 39 c4             	cmp    %rax,%r12
    fb18:	0f 9e c0             	setle  %al
    fb1b:	0f b6 c0             	movzbl %al,%eax
    fb1e:	48 89 05 53 85 00 00 	mov    %rax,0x8553(%rip)        # 18078 <g_172>
    fb25:	48 8b 05 4c 85 00 00 	mov    0x854c(%rip),%rax        # 18078 <g_172>
    fb2c:	48 83 f0 01          	xor    $0x1,%rax
    fb30:	21 85 64 e1 ff ff    	and    %eax,-0x1e9c(%rbp)
    fb36:	8b 85 64 e1 ff ff    	mov    -0x1e9c(%rbp),%eax
    fb3c:	89 85 2c e1 ff ff    	mov    %eax,-0x1ed4(%rbp)
    fb42:	8b 95 2c e1 ff ff    	mov    -0x1ed4(%rbp),%edx
    fb48:	8b 85 e8 e0 ff ff    	mov    -0x1f18(%rbp),%eax
    fb4e:	89 d6                	mov    %edx,%esi
    fb50:	89 c7                	mov    %eax,%edi
    fb52:	e8 79 73 ff ff       	callq  6ed0 <safe_sub_func_uint32_t_u_u>
    fb57:	48 8b 85 f0 e1 ff ff 	mov    -0x1e10(%rbp),%rax
    fb5e:	0f b7 00             	movzwl (%rax),%eax
    fb61:	89 c2                	mov    %eax,%edx
    fb63:	66 0f be 85 ff e0 ff 	movsbw -0x1f01(%rbp),%ax
    fb6a:	ff 
    fb6b:	31 d0                	xor    %edx,%eax
    fb6d:	89 c2                	mov    %eax,%edx
    fb6f:	48 8b 85 f0 e1 ff ff 	mov    -0x1e10(%rbp),%rax
    fb76:	66 89 10             	mov    %dx,(%rax)
    fb79:	48 8b 85 f0 e1 ff ff 	mov    -0x1e10(%rbp),%rax
    fb80:	0f b7 00             	movzwl (%rax),%eax
    fb83:	66 83 f8 01          	cmp    $0x1,%ax
    fb87:	0f 95 c2             	setne  %dl
    fb8a:	8b 05 dc 84 00 00    	mov    0x84dc(%rip),%eax        # 1806c <g_84>
    fb90:	83 e0 01             	and    $0x1,%eax
    fb93:	31 d0                	xor    %edx,%eax
    fb95:	0f b6 c0             	movzbl %al,%eax
    fb98:	66 39 85 ec e0 ff ff 	cmp    %ax,-0x1f14(%rbp)
    fb9f:	0f 93 c0             	setae  %al
    fba2:	0f b6 c0             	movzbl %al,%eax
    fba5:	8b 95 e8 e0 ff ff    	mov    -0x1f18(%rbp),%edx
    fbab:	89 d6                	mov    %edx,%esi
    fbad:	89 c7                	mov    %eax,%edi
    fbaf:	e8 04 73 ff ff       	callq  6eb8 <safe_add_func_uint32_t_u_u>
    fbb4:	83 f8 01             	cmp    $0x1,%eax
    fbb7:	0f 87 24 08 00 00    	ja     103e1 <func_56+0x1aca>
    fbbd:	48 b8 b0 87 0d 7b 84 	movabs $0xe6f2a2847b0d87b0,%rax
    fbc4:	a2 f2 e6 
    fbc7:	48 89 85 18 e2 ff ff 	mov    %rax,-0x1de8(%rbp)
    fbce:	48 c7 85 20 e2 ff ff 	movq   $0x0,-0x1de0(%rbp)
    fbd5:	00 00 00 00 
    fbd9:	48 8d 05 64 84 00 00 	lea    0x8464(%rip),%rax        # 18044 <g_54+0x4>
    fbe0:	48 89 85 28 e2 ff ff 	mov    %rax,-0x1dd8(%rbp)
    fbe7:	c7 85 60 e2 ff ff 8f 	movl   $0xd24f5e8f,-0x1da0(%rbp)
    fbee:	5e 4f d2 
    fbf1:	c7 85 64 e2 ff ff 8f 	movl   $0xd24f5e8f,-0x1d9c(%rbp)
    fbf8:	5e 4f d2 
    fbfb:	c7 85 68 e2 ff ff 8f 	movl   $0xd24f5e8f,-0x1d98(%rbp)
    fc02:	5e 4f d2 
    fc05:	c7 85 6c e2 ff ff 8f 	movl   $0xd24f5e8f,-0x1d94(%rbp)
    fc0c:	5e 4f d2 
    fc0f:	c7 85 70 e2 ff ff 8f 	movl   $0xd24f5e8f,-0x1d90(%rbp)
    fc16:	5e 4f d2 
    fc19:	c7 85 74 e2 ff ff 8f 	movl   $0xd24f5e8f,-0x1d8c(%rbp)
    fc20:	5e 4f d2 
    fc23:	48 8d 85 fb e0 ff ff 	lea    -0x1f05(%rbp),%rax
    fc2a:	48 89 85 30 e2 ff ff 	mov    %rax,-0x1dd0(%rbp)
    fc31:	66 c7 85 0c e1 ff ff 	movw   $0x1,-0x1ef4(%rbp)
    fc38:	01 00 
    fc3a:	c7 85 7c e1 ff ff 02 	movl   $0x2,-0x1e84(%rbp)
    fc41:	00 00 00 
    fc44:	48 83 ad 18 e2 ff ff 	subq   $0x1,-0x1de8(%rbp)
    fc4b:	01 
    fc4c:	8b 85 e8 e0 ff ff    	mov    -0x1f18(%rbp),%eax
    fc52:	0f b7 d8             	movzwl %ax,%ebx
    fc55:	48 8b 05 14 9f 00 00 	mov    0x9f14(%rip),%rax        # 19b70 <g_182>
    fc5c:	48 85 c0             	test   %rax,%rax
    fc5f:	0f 94 c0             	sete   %al
    fc62:	0f b6 d0             	movzbl %al,%edx
    fc65:	8b 05 05 84 00 00    	mov    0x8405(%rip),%eax        # 18070 <g_111>
    fc6b:	39 85 e8 e0 ff ff    	cmp    %eax,-0x1f18(%rbp)
    fc71:	0f 96 c0             	setbe  %al
    fc74:	0f b6 c0             	movzbl %al,%eax
    fc77:	48 0b 85 e0 e0 ff ff 	or     -0x1f20(%rbp),%rax
    fc7e:	48 39 c2             	cmp    %rax,%rdx
    fc81:	0f 9d c0             	setge  %al
    fc84:	0f b6 d0             	movzbl %al,%edx
    fc87:	0f b6 05 e6 83 00 00 	movzbl 0x83e6(%rip),%eax        # 18074 <g_149>
    fc8e:	0f b6 c0             	movzbl %al,%eax
    fc91:	89 d6                	mov    %edx,%esi
    fc93:	89 c7                	mov    %eax,%edi
    fc95:	e8 65 70 ff ff       	callq  6cff <safe_add_func_uint16_t_u_u>
    fc9a:	0f b7 c0             	movzwl %ax,%eax
    fc9d:	ba 10 74 39 b6       	mov    $0xb6397410,%edx
    fca2:	48 31 d0             	xor    %rdx,%rax
    fca5:	48 3d f7 00 00 00    	cmp    $0xf7,%rax
    fcab:	0f 96 c0             	setbe  %al
    fcae:	0f b6 c0             	movzbl %al,%eax
    fcb1:	89 de                	mov    %ebx,%esi
    fcb3:	89 c7                	mov    %eax,%edi
    fcb5:	e8 d4 70 ff ff       	callq  6d8e <safe_div_func_uint16_t_u_u>
    fcba:	48 81 bd e0 e0 ff ff 	cmpq   $0xe73,-0x1f20(%rbp)
    fcc1:	73 0e 00 00 
    fcc5:	48 8d 85 10 ea ff ff 	lea    -0x15f0(%rbp),%rax
    fccc:	48 8d 15 ed 97 00 00 	lea    0x97ed(%rip),%rdx        # 194c0 <g_1479+0x1200>
    fcd3:	b9 d2 00 00 00       	mov    $0xd2,%ecx
    fcd8:	48 89 c7             	mov    %rax,%rdi
    fcdb:	48 89 d6             	mov    %rdx,%rsi
    fcde:	f3 48 a5             	rep movsq %ds:(%rsi),%es:(%rdi)
    fce1:	48 8d 85 a0 e1 ff ff 	lea    -0x1e60(%rbp),%rax
    fce8:	48 89 85 38 e2 ff ff 	mov    %rax,-0x1dc8(%rbp)
    fcef:	c7 85 24 e1 ff ff 00 	movl   $0x0,-0x1edc(%rbp)
    fcf6:	00 00 00 
    fcf9:	eb 1a                	jmp    fd15 <func_56+0x13fe>
    fcfb:	8b 85 24 e1 ff ff    	mov    -0x1edc(%rbp),%eax
    fd01:	48 98                	cltq   
    fd03:	c7 84 85 80 e2 ff ff 	movl   $0xbe4f7c98,-0x1d80(%rbp,%rax,4)
    fd0a:	98 7c 4f be 
    fd0e:	83 85 24 e1 ff ff 01 	addl   $0x1,-0x1edc(%rbp)
    fd15:	83 bd 24 e1 ff ff 07 	cmpl   $0x7,-0x1edc(%rbp)
    fd1c:	7e dd                	jle    fcfb <func_56+0x13e4>
    fd1e:	48 8b 85 f8 e1 ff ff 	mov    -0x1e08(%rbp),%rax
    fd25:	98                   	cwtl   
    fd26:	be 0f 00 00 00       	mov    $0xf,%esi
    fd2b:	89 c7                	mov    %eax,%edi
    fd2d:	e8 af 67 ff ff       	callq  64e1 <safe_lshift_func_int16_t_s_u>
    fd32:	0f b7 d0             	movzwl %ax,%edx
    fd35:	48 8d 05 24 83 00 00 	lea    0x8324(%rip),%rax        # 18060 <g_54+0x20>
    fd3c:	48 39 85 b0 e1 ff ff 	cmp    %rax,-0x1e50(%rbp)
    fd43:	0f 94 c0             	sete   %al
    fd46:	0f b6 c0             	movzbl %al,%eax
    fd49:	89 d6                	mov    %edx,%esi
    fd4b:	89 c7                	mov    %eax,%edi
    fd4d:	e8 ad 6f ff ff       	callq  6cff <safe_add_func_uint16_t_u_u>
    fd52:	0f b7 d0             	movzwl %ax,%edx
    fd55:	48 8b 85 00 e2 ff ff 	mov    -0x1e00(%rbp),%rax
    fd5c:	48 3b 85 20 e2 ff ff 	cmp    -0x1de0(%rbp),%rax
    fd63:	0f 95 c0             	setne  %al
    fd66:	0f b6 c0             	movzbl %al,%eax
    fd69:	89 05 15 83 00 00    	mov    %eax,0x8315(%rip)        # 18084 <g_194>
    fd6f:	8b 05 0f 83 00 00    	mov    0x830f(%rip),%eax        # 18084 <g_194>
    fd75:	39 c2                	cmp    %eax,%edx
    fd77:	0f 97 c0             	seta   %al
    fd7a:	0f b6 c0             	movzbl %al,%eax
    fd7d:	89 85 2c e1 ff ff    	mov    %eax,-0x1ed4(%rbp)
    fd83:	8b 15 e7 82 00 00    	mov    0x82e7(%rip),%edx        # 18070 <g_111>
    fd89:	8b 85 80 e2 ff ff    	mov    -0x1d80(%rbp),%eax
    fd8f:	39 c2                	cmp    %eax,%edx
    fd91:	0f 95 c0             	setne  %al
    fd94:	0f b6 d8             	movzbl %al,%ebx
    fd97:	c7 85 30 e1 ff ff 00 	movl   $0x0,-0x1ed0(%rbp)
    fd9e:	00 00 00 
    fda1:	8b 85 48 e1 ff ff    	mov    -0x1eb8(%rbp),%eax
    fda7:	0f b6 d0             	movzbl %al,%edx
    fdaa:	0f b7 05 cf 82 00 00 	movzwl 0x82cf(%rip),%eax        # 18080 <g_183>
    fdb1:	0f b6 c0             	movzbl %al,%eax
    fdb4:	89 d6                	mov    %edx,%esi
    fdb6:	89 c7                	mov    %eax,%edi
    fdb8:	e8 d6 6d ff ff       	callq  6b93 <safe_mul_func_uint8_t_u_u>
    fdbd:	48 8d 05 82 82 00 00 	lea    0x8282(%rip),%rax        # 18046 <g_54+0x6>
    fdc4:	48 39 85 28 e2 ff ff 	cmp    %rax,-0x1dd8(%rbp)
    fdcb:	0f 95 c0             	setne  %al
    fdce:	0f b6 c0             	movzbl %al,%eax
    fdd1:	be 00 00 00 00       	mov    $0x0,%esi
    fdd6:	89 c7                	mov    %eax,%edi
    fdd8:	e8 29 70 ff ff       	callq  6e06 <safe_lshift_func_uint16_t_u_u>
    fddd:	0f b7 c0             	movzwl %ax,%eax
    fde0:	31 d8                	xor    %ebx,%eax
    fde2:	39 85 2c e1 ff ff    	cmp    %eax,-0x1ed4(%rbp)
    fde8:	48 8b 85 38 e2 ff ff 	mov    -0x1dc8(%rbp),%rax
    fdef:	48 c7 00 00 00 00 00 	movq   $0x0,(%rax)
    fdf6:	0f b7 85 ec e0 ff ff 	movzwl -0x1f14(%rbp),%eax
    fdfd:	89 85 64 e1 ff ff    	mov    %eax,-0x1e9c(%rbp)
    fe03:	8b 05 67 82 00 00    	mov    0x8267(%rip),%eax        # 18070 <g_111>
    fe09:	85 c0                	test   %eax,%eax
    fe0b:	0f 85 08 08 00 00    	jne    10619 <func_56+0x1d02>
    fe11:	c7 85 e8 e0 ff ff 00 	movl   $0x0,-0x1f18(%rbp)
    fe18:	00 00 00 
    fe1b:	e9 a2 02 00 00       	jmpq   100c2 <func_56+0x17ab>
    fe20:	66 c7 85 0e e1 ff ff 	movw   $0x3,-0x1ef2(%rbp)
    fe27:	03 00 
    fe29:	c7 85 10 ea ff ff 79 	movl   $0x8f546179,-0x15f0(%rbp)
    fe30:	61 54 8f 
    fe33:	c7 85 14 ea ff ff b5 	movl   $0xe73d2fb5,-0x15ec(%rbp)
    fe3a:	2f 3d e7 
    fe3d:	c7 85 18 ea ff ff f7 	movl   $0xfffffff7,-0x15e8(%rbp)
    fe44:	ff ff ff 
    fe47:	c7 85 1c ea ff ff f7 	movl   $0xfffffff7,-0x15e4(%rbp)
    fe4e:	ff ff ff 
    fe51:	c7 85 20 ea ff ff c0 	movl   $0x70ad31c0,-0x15e0(%rbp)
    fe58:	31 ad 70 
    fe5b:	c7 85 24 ea ff ff c0 	movl   $0x70ad31c0,-0x15dc(%rbp)
    fe62:	31 ad 70 
    fe65:	c7 85 28 ea ff ff 79 	movl   $0x8f546179,-0x15d8(%rbp)
    fe6c:	61 54 8f 
    fe6f:	c7 85 2c ea ff ff f7 	movl   $0xfffffff7,-0x15d4(%rbp)
    fe76:	ff ff ff 
    fe79:	c7 85 30 ea ff ff fc 	movl   $0xfffffffc,-0x15d0(%rbp)
    fe80:	ff ff ff 
    fe83:	c7 85 34 ea ff ff b5 	movl   $0xe73d2fb5,-0x15cc(%rbp)
    fe8a:	2f 3d e7 
    fe8d:	c7 85 38 ea ff ff fc 	movl   $0xfffffffc,-0x15c8(%rbp)
    fe94:	ff ff ff 
    fe97:	c7 85 3c ea ff ff 79 	movl   $0x8f546179,-0x15c4(%rbp)
    fe9e:	61 54 8f 
    fea1:	c7 85 40 ea ff ff fc 	movl   $0xfffffffc,-0x15c0(%rbp)
    fea8:	ff ff ff 
    feab:	c7 85 44 ea ff ff 79 	movl   $0x8f546179,-0x15bc(%rbp)
    feb2:	61 54 8f 
    feb5:	c7 85 48 ea ff ff 79 	movl   $0x8f546179,-0x15b8(%rbp)
    febc:	61 54 8f 
    febf:	c7 85 4c ea ff ff fc 	movl   $0xfffffffc,-0x15b4(%rbp)
    fec6:	ff ff ff 
    fec9:	c7 85 50 ea ff ff c0 	movl   $0x70ad31c0,-0x15b0(%rbp)
    fed0:	31 ad 70 
    fed3:	c7 85 54 ea ff ff 79 	movl   $0x8f546179,-0x15ac(%rbp)
    feda:	61 54 8f 
    fedd:	c7 85 58 ea ff ff f7 	movl   $0xfffffff7,-0x15a8(%rbp)
    fee4:	ff ff ff 
    fee7:	c7 85 5c ea ff ff 79 	movl   $0x8f546179,-0x15a4(%rbp)
    feee:	61 54 8f 
    fef1:	c7 85 60 ea ff ff 79 	movl   $0x8f546179,-0x15a0(%rbp)
    fef8:	61 54 8f 
    fefb:	c7 85 64 ea ff ff b5 	movl   $0xe73d2fb5,-0x159c(%rbp)
    ff02:	2f 3d e7 
    ff05:	c7 85 68 ea ff ff f7 	movl   $0xfffffff7,-0x1598(%rbp)
    ff0c:	ff ff ff 
    ff0f:	c7 85 6c ea ff ff f7 	movl   $0xfffffff7,-0x1594(%rbp)
    ff16:	ff ff ff 
    ff19:	c7 85 70 ea ff ff c0 	movl   $0x70ad31c0,-0x1590(%rbp)
    ff20:	31 ad 70 
    ff23:	c7 85 74 ea ff ff c0 	movl   $0x70ad31c0,-0x158c(%rbp)
    ff2a:	31 ad 70 
    ff2d:	c7 85 78 ea ff ff 79 	movl   $0x8f546179,-0x1588(%rbp)
    ff34:	61 54 8f 
    ff37:	c7 85 7c ea ff ff f7 	movl   $0xfffffff7,-0x1584(%rbp)
    ff3e:	ff ff ff 
    ff41:	c7 85 80 ea ff ff fc 	movl   $0xfffffffc,-0x1580(%rbp)
    ff48:	ff ff ff 
    ff4b:	c7 85 84 ea ff ff b5 	movl   $0xe73d2fb5,-0x157c(%rbp)
    ff52:	2f 3d e7 
    ff55:	c7 85 88 ea ff ff fc 	movl   $0xfffffffc,-0x1578(%rbp)
    ff5c:	ff ff ff 
    ff5f:	c7 85 8c ea ff ff 79 	movl   $0x8f546179,-0x1574(%rbp)
    ff66:	61 54 8f 
    ff69:	c7 85 90 ea ff ff fc 	movl   $0xfffffffc,-0x1570(%rbp)
    ff70:	ff ff ff 
    ff73:	c7 85 94 ea ff ff 79 	movl   $0x8f546179,-0x156c(%rbp)
    ff7a:	61 54 8f 
    ff7d:	c7 85 98 ea ff ff 79 	movl   $0x8f546179,-0x1568(%rbp)
    ff84:	61 54 8f 
    ff87:	c7 85 9c ea ff ff fc 	movl   $0xfffffffc,-0x1564(%rbp)
    ff8e:	ff ff ff 
    ff91:	c7 85 a0 ea ff ff c0 	movl   $0x70ad31c0,-0x1560(%rbp)
    ff98:	31 ad 70 
    ff9b:	c7 85 a4 ea ff ff 79 	movl   $0x8f546179,-0x155c(%rbp)
    ffa2:	61 54 8f 
    ffa5:	c7 85 a8 ea ff ff f7 	movl   $0xfffffff7,-0x1558(%rbp)
    ffac:	ff ff ff 
    ffaf:	c7 85 ac ea ff ff 79 	movl   $0x8f546179,-0x1554(%rbp)
    ffb6:	61 54 8f 
    ffb9:	c7 85 b0 ea ff ff 79 	movl   $0x8f546179,-0x1550(%rbp)
    ffc0:	61 54 8f 
    ffc3:	c7 85 b4 ea ff ff b5 	movl   $0xe73d2fb5,-0x154c(%rbp)
    ffca:	2f 3d e7 
    ffcd:	c7 85 b8 ea ff ff f7 	movl   $0xfffffff7,-0x1548(%rbp)
    ffd4:	ff ff ff 
    ffd7:	c7 85 bc ea ff ff f7 	movl   $0xfffffff7,-0x1544(%rbp)
    ffde:	ff ff ff 
    ffe1:	c7 85 c0 ea ff ff c0 	movl   $0x70ad31c0,-0x1540(%rbp)
    ffe8:	31 ad 70 
    ffeb:	c7 85 c4 ea ff ff c0 	movl   $0x70ad31c0,-0x153c(%rbp)
    fff2:	31 ad 70 
    fff5:	c7 85 c8 ea ff ff 79 	movl   $0x8f546179,-0x1538(%rbp)
    fffc:	61 54 8f 
    ffff:	c7 85 cc ea ff ff f7 	movl   $0xfffffff7,-0x1534(%rbp)
   10006:	ff ff ff 
   10009:	c7 85 d0 ea ff ff fc 	movl   $0xfffffffc,-0x1530(%rbp)
   10010:	ff ff ff 
   10013:	c7 85 d4 ea ff ff b5 	movl   $0xe73d2fb5,-0x152c(%rbp)
   1001a:	2f 3d e7 
   1001d:	c7 85 d8 ea ff ff fc 	movl   $0xfffffffc,-0x1528(%rbp)
   10024:	ff ff ff 
   10027:	c7 85 dc ea ff ff 79 	movl   $0x8f546179,-0x1524(%rbp)
   1002e:	61 54 8f 
   10031:	c7 85 e0 ea ff ff fc 	movl   $0xfffffffc,-0x1520(%rbp)
   10038:	ff ff ff 
   1003b:	c7 85 e4 ea ff ff 79 	movl   $0x8f546179,-0x151c(%rbp)
   10042:	61 54 8f 
   10045:	c7 85 e8 ea ff ff 79 	movl   $0x8f546179,-0x1518(%rbp)
   1004c:	61 54 8f 
   1004f:	c7 85 ec ea ff ff fc 	movl   $0xfffffffc,-0x1514(%rbp)
   10056:	ff ff ff 
   10059:	c7 85 f0 ea ff ff c0 	movl   $0x70ad31c0,-0x1510(%rbp)
   10060:	31 ad 70 
   10063:	c7 85 f4 ea ff ff 79 	movl   $0x8f546179,-0x150c(%rbp)
   1006a:	61 54 8f 
   1006d:	c7 85 f8 ea ff ff f7 	movl   $0xfffffff7,-0x1508(%rbp)
   10074:	ff ff ff 
   10077:	c7 85 fc ea ff ff 79 	movl   $0x8f546179,-0x1504(%rbp)
   1007e:	61 54 8f 
   10081:	c7 85 00 eb ff ff 79 	movl   $0x8f546179,-0x1500(%rbp)
   10088:	61 54 8f 
   1008b:	c7 85 04 eb ff ff b5 	movl   $0xe73d2fb5,-0x14fc(%rbp)
   10092:	2f 3d e7 
   10095:	c7 85 08 eb ff ff f7 	movl   $0xfffffff7,-0x14f8(%rbp)
   1009c:	ff ff ff 
   1009f:	c7 85 0c eb ff ff f7 	movl   $0xfffffff7,-0x14f4(%rbp)
   100a6:	ff ff ff 
   100a9:	66 83 85 04 e1 ff ff 	addw   $0x1,-0x1efc(%rbp)
   100b0:	01 
   100b1:	0f b7 05 a0 7f 00 00 	movzwl 0x7fa0(%rip),%eax        # 18058 <g_54+0x18>
   100b8:	66 85 c0             	test   %ax,%ax
   100bb:	83 85 e8 e0 ff ff 01 	addl   $0x1,-0x1f18(%rbp)
   100c2:	83 bd e8 e0 ff ff 1c 	cmpl   $0x1c,-0x1f18(%rbp)
   100c9:	0f 86 51 fd ff ff    	jbe    fe20 <func_56+0x1509>
   100cf:	be 07 00 00 00       	mov    $0x7,%esi
   100d4:	bf 00 00 00 00       	mov    $0x0,%edi
   100d9:	e8 b4 63 ff ff       	callq  6492 <safe_lshift_func_int16_t_s_s>
   100de:	66 83 f8 01          	cmp    $0x1,%ax
   100e2:	0f 85 88 00 00 00    	jne    10170 <func_56+0x1859>
   100e8:	0f b6 05 99 7f 00 00 	movzbl 0x7f99(%rip),%eax        # 18088 <g_217>
   100ef:	48 0f be d8          	movsbq %al,%rbx
   100f3:	48 8b 85 30 e2 ff ff 	mov    -0x1dd0(%rbp),%rax
   100fa:	c6 00 01             	movb   $0x1,(%rax)
   100fd:	bf 0a 96 00 00       	mov    $0x960a,%edi
   10102:	e8 e2 6b ff ff       	callq  6ce9 <safe_unary_minus_func_uint16_t_u>
   10107:	48 8b 05 62 9a 00 00 	mov    0x9a62(%rip),%rax        # 19b70 <g_182>
   1010e:	0f b7 00             	movzwl (%rax),%eax
   10111:	0f b7 c0             	movzwl %ax,%eax
   10114:	be 01 00 00 00       	mov    $0x1,%esi
   10119:	89 c7                	mov    %eax,%edi
   1011b:	e8 e6 6c ff ff       	callq  6e06 <safe_lshift_func_uint16_t_u_u>
   10120:	0f bf 85 0c e1 ff ff 	movswl -0x1ef4(%rbp),%eax
   10127:	25 fb 00 00 00       	and    $0xfb,%eax
   1012c:	48 8b 95 28 e2 ff ff 	mov    -0x1dd8(%rbp),%rdx
   10133:	66 c7 02 6f a3       	movw   $0xa36f,(%rdx)
   10138:	89 c6                	mov    %eax,%esi
   1013a:	bf 6f a3 ff ff       	mov    $0xffffa36f,%edi
   1013f:	e8 4e 63 ff ff       	callq  6492 <safe_lshift_func_int16_t_s_s>
   10144:	48 89 de             	mov    %rbx,%rsi
   10147:	48 bf d1 70 2d 43 16 	movabs $0x10408616432d70d1,%rdi
   1014e:	86 40 10 
   10151:	e8 a1 68 ff ff       	callq  69f7 <safe_div_func_int64_t_s_s>
   10156:	8b 95 2c e1 ff ff    	mov    -0x1ed4(%rbp),%edx
   1015c:	48 63 d2             	movslq %edx,%rdx
   1015f:	48 39 d0             	cmp    %rdx,%rax
   10162:	75 0c                	jne    10170 <func_56+0x1859>
   10164:	80 85 fe e0 ff ff 01 	addb   $0x1,-0x1f02(%rbp)
   1016b:	e9 7a 04 00 00       	jmpq   105ea <func_56+0x1cd3>
   10170:	48 8d 85 a0 f0 ff ff 	lea    -0xf60(%rbp),%rax
   10177:	48 05 a0 05 00 00    	add    $0x5a0,%rax
   1017d:	48 89 85 40 e2 ff ff 	mov    %rax,-0x1dc0(%rbp)
   10184:	48 c7 85 48 e2 ff ff 	movq   $0x0,-0x1db8(%rbp)
   1018b:	00 00 00 00 
   1018f:	48 8d 05 d2 99 00 00 	lea    0x99d2(%rip),%rax        # 19b68 <g_87>
   10196:	48 89 85 50 e2 ff ff 	mov    %rax,-0x1db0(%rbp)
   1019d:	8b 05 c9 7e 00 00    	mov    0x7ec9(%rip),%eax        # 1806c <g_84>
   101a3:	0d 54 da 5d 31       	or     $0x315dda54,%eax
   101a8:	89 05 be 7e 00 00    	mov    %eax,0x7ebe(%rip)        # 1806c <g_84>
   101ae:	48 8b 85 40 e2 ff ff 	mov    -0x1dc0(%rbp),%rax
   101b5:	48 8d 15 b4 a7 00 00 	lea    0xa7b4(%rip),%rdx        # 1a970 <g_171>
   101bc:	48 89 10             	mov    %rdx,(%rax)
   101bf:	48 8b 85 50 e2 ff ff 	mov    -0x1db0(%rbp),%rax
   101c6:	48 8b 95 08 e2 ff ff 	mov    -0x1df8(%rbp),%rdx
   101cd:	48 89 10             	mov    %rdx,(%rax)
   101d0:	48 8b 05 a1 7e 00 00 	mov    0x7ea1(%rip),%rax        # 18078 <g_172>
   101d7:	48 85 c0             	test   %rax,%rax
   101da:	0f 95 c0             	setne  %al
   101dd:	0f b6 d8             	movzbl %al,%ebx
   101e0:	48 8b 85 f0 e1 ff ff 	mov    -0x1e10(%rbp),%rax
   101e7:	0f b7 00             	movzwl (%rax),%eax
   101ea:	8d 50 ff             	lea    -0x1(%rax),%edx
   101ed:	48 8b 85 f0 e1 ff ff 	mov    -0x1e10(%rbp),%rax
   101f4:	66 89 10             	mov    %dx,(%rax)
   101f7:	48 8b 05 72 99 00 00 	mov    0x9972(%rip),%rax        # 19b70 <g_182>
   101fe:	0f b7 00             	movzwl (%rax),%eax
   10201:	0f b7 c0             	movzwl %ax,%eax
   10204:	89 c6                	mov    %eax,%esi
   10206:	bf da d6 00 00       	mov    $0xd6da,%edi
   1020b:	e8 f6 6b ff ff       	callq  6e06 <safe_lshift_func_uint16_t_u_u>
   10210:	0f b7 c0             	movzwl %ax,%eax
   10213:	39 85 38 e1 ff ff    	cmp    %eax,-0x1ec8(%rbp)
   10219:	48 8b 05 50 a7 00 00 	mov    0xa750(%rip),%rax        # 1a970 <g_171>
   10220:	48 85 c0             	test   %rax,%rax
   10223:	74 09                	je     1022e <func_56+0x1917>
   10225:	83 bd e8 e0 ff ff 00 	cmpl   $0x0,-0x1f18(%rbp)
   1022c:	74 07                	je     10235 <func_56+0x191e>
   1022e:	b8 01 00 00 00       	mov    $0x1,%eax
   10233:	eb 05                	jmp    1023a <func_56+0x1923>
   10235:	b8 00 00 00 00       	mov    $0x0,%eax
   1023a:	39 d8                	cmp    %ebx,%eax
   1023c:	0f 9f c0             	setg   %al
   1023f:	0f b6 c0             	movzbl %al,%eax
   10242:	39 85 34 e1 ff ff    	cmp    %eax,-0x1ecc(%rbp)
   10248:	0f 9e c0             	setle  %al
   1024b:	0f b6 c0             	movzbl %al,%eax
   1024e:	09 85 68 e1 ff ff    	or     %eax,-0x1e98(%rbp)
   10254:	8b 85 e8 e0 ff ff    	mov    -0x1f18(%rbp),%eax
   1025a:	0f bf d8             	movswl %ax,%ebx
   1025d:	8b 85 30 e1 ff ff    	mov    -0x1ed0(%rbp),%eax
   10263:	44 0f be e0          	movsbl %al,%r12d
   10267:	0f b6 05 06 7e 00 00 	movzbl 0x7e06(%rip),%eax        # 18074 <g_149>
   1026e:	44 0f b6 f0          	movzbl %al,%r14d
   10272:	8b 05 f4 7d 00 00    	mov    0x7df4(%rip),%eax        # 1806c <g_84>
   10278:	44 0f bf e8          	movswl %ax,%r13d
   1027c:	8b 95 e8 e0 ff ff    	mov    -0x1f18(%rbp),%edx
   10282:	0f be 85 fc e0 ff ff 	movsbl -0x1f04(%rbp),%eax
   10289:	89 d6                	mov    %edx,%esi
   1028b:	89 c7                	mov    %eax,%edi
   1028d:	e8 98 62 ff ff       	callq  652a <safe_rshift_func_int16_t_s_s>
   10292:	44 89 ee             	mov    %r13d,%esi
   10295:	bf 01 00 00 00       	mov    $0x1,%edi
   1029a:	e8 14 61 ff ff       	callq  63b3 <safe_add_func_int16_t_s_s>
   1029f:	0f b7 c0             	movzwl %ax,%eax
   102a2:	be 4f 3b 00 00       	mov    $0x3b4f,%esi
   102a7:	89 c7                	mov    %eax,%edi
   102a9:	e8 e0 6a ff ff       	callq  6d8e <safe_div_func_uint16_t_u_u>
   102ae:	0f b7 c0             	movzwl %ax,%eax
   102b1:	48 89 c6             	mov    %rax,%rsi
   102b4:	48 bf 4a 6b 14 e5 22 	movabs $0xbd996822e5146b4a,%rdi
   102bb:	68 99 bd 
   102be:	e8 ec 6d ff ff       	callq  70af <safe_div_func_uint64_t_u_u>
   102c3:	0f b7 c0             	movzwl %ax,%eax
   102c6:	be 0d 00 00 00       	mov    $0xd,%esi
   102cb:	89 c7                	mov    %eax,%edi
   102cd:	e8 76 6b ff ff       	callq  6e48 <safe_rshift_func_uint16_t_u_s>
   102d2:	0f be c0             	movsbl %al,%eax
   102d5:	be 3e 00 00 00       	mov    $0x3e,%esi
   102da:	89 c7                	mov    %eax,%edi
   102dc:	e8 89 5f ff ff       	callq  626a <safe_div_func_int8_t_s_s>
   102e1:	0f be d0             	movsbl %al,%edx
   102e4:	8b 05 86 7d 00 00    	mov    0x7d86(%rip),%eax        # 18070 <g_111>
   102ea:	39 c2                	cmp    %eax,%edx
   102ec:	0f 9d c0             	setge  %al
   102ef:	0f b6 c0             	movzbl %al,%eax
   102f2:	41 39 c6             	cmp    %eax,%r14d
   102f5:	0f 9d c2             	setge  %dl
   102f8:	48 8b 05 71 98 00 00 	mov    0x9871(%rip),%rax        # 19b70 <g_182>
   102ff:	0f b6 d2             	movzbl %dl,%edx
   10302:	66 89 10             	mov    %dx,(%rax)
   10305:	0f b7 00             	movzwl (%rax),%eax
   10308:	f7 d0                	not    %eax
   1030a:	83 c8 fe             	or     $0xfffffffe,%eax
   1030d:	89 c2                	mov    %eax,%edx
   1030f:	48 8b 85 f0 e1 ff ff 	mov    -0x1e10(%rbp),%rax
   10316:	66 89 10             	mov    %dx,(%rax)
   10319:	48 8b 85 f0 e1 ff ff 	mov    -0x1e10(%rbp),%rax
   10320:	0f b7 00             	movzwl (%rax),%eax
   10323:	83 e0 fa             	and    $0xfffffffa,%eax
   10326:	0f be c0             	movsbl %al,%eax
   10329:	44 89 e6             	mov    %r12d,%esi
   1032c:	89 c7                	mov    %eax,%edi
   1032e:	e8 a1 5e ff ff       	callq  61d4 <safe_add_func_int8_t_s_s>
   10333:	44 0f b6 e0          	movzbl %al,%r12d
   10337:	8b 85 64 e2 ff ff    	mov    -0x1d9c(%rbp),%eax
   1033d:	89 c7                	mov    %eax,%edi
   1033f:	e8 52 62 ff ff       	callq  6596 <safe_unary_minus_func_int32_t_s>
   10344:	0f b6 c0             	movzbl %al,%eax
   10347:	44 89 e6             	mov    %r12d,%esi
   1034a:	89 c7                	mov    %eax,%edi
   1034c:	e8 09 68 ff ff       	callq  6b5a <safe_add_func_uint8_t_u_u>
   10351:	0f b6 c0             	movzbl %al,%eax
   10354:	89 de                	mov    %ebx,%esi
   10356:	89 c7                	mov    %eax,%edi
   10358:	e8 56 60 ff ff       	callq  63b3 <safe_add_func_int16_t_s_s>
   1035d:	98                   	cwtl   
   1035e:	89 c7                	mov    %eax,%edi
   10360:	e8 31 62 ff ff       	callq  6596 <safe_unary_minus_func_int32_t_s>
   10365:	0f bf d0             	movswl %ax,%edx
   10368:	48 8b 85 28 e2 ff ff 	mov    -0x1dd8(%rbp),%rax
   1036f:	0f b7 00             	movzwl (%rax),%eax
   10372:	48 8b 0d ff 7c 00 00 	mov    0x7cff(%rip),%rcx        # 18078 <g_172>
   10379:	31 c1                	xor    %eax,%ecx
   1037b:	48 8b 85 28 e2 ff ff 	mov    -0x1dd8(%rbp),%rax
   10382:	66 89 08             	mov    %cx,(%rax)
   10385:	48 8b 85 28 e2 ff ff 	mov    -0x1dd8(%rbp),%rax
   1038c:	0f b7 00             	movzwl (%rax),%eax
   1038f:	98                   	cwtl   
   10390:	89 d6                	mov    %edx,%esi
   10392:	89 c7                	mov    %eax,%edi
   10394:	e8 3a 60 ff ff       	callq  63d3 <safe_sub_func_int16_t_s_s>
   10399:	0f b6 15 e8 7c 00 00 	movzbl 0x7ce8(%rip),%edx        # 18088 <g_217>
   103a0:	66 0f be d2          	movsbw %dl,%dx
   103a4:	66 39 d0             	cmp    %dx,%ax
   103a7:	0f 9c c0             	setl   %al
   103aa:	0f b6 d0             	movzbl %al,%edx
   103ad:	8b 05 b1 7c 00 00    	mov    0x7cb1(%rip),%eax        # 18064 <g_55>
   103b3:	39 c2                	cmp    %eax,%edx
   103b5:	0f 9e c0             	setle  %al
   103b8:	0f b6 d0             	movzbl %al,%edx
   103bb:	8b 85 64 e2 ff ff    	mov    -0x1d9c(%rbp),%eax
   103c1:	39 c2                	cmp    %eax,%edx
   103c3:	0f 9f c0             	setg   %al
   103c6:	0f b6 c0             	movzbl %al,%eax
   103c9:	be ff ff ff ff       	mov    $0xffffffff,%esi
   103ce:	89 c7                	mov    %eax,%edi
   103d0:	e8 20 60 ff ff       	callq  63f5 <safe_mul_func_int16_t_s_s>
   103d5:	98                   	cwtl   
   103d6:	31 85 7c e1 ff ff    	xor    %eax,-0x1e84(%rbp)
   103dc:	e9 09 02 00 00       	jmpq   105ea <func_56+0x1cd3>
   103e1:	66 c7 85 0a e1 ff ff 	movw   $0x659d,-0x1ef6(%rbp)
   103e8:	9d 65 
   103ea:	c7 85 70 e1 ff ff 39 	movl   $0x192ef739,-0x1e90(%rbp)
   103f1:	f7 2e 19 
   103f4:	c7 85 74 e1 ff ff b5 	movl   $0xeff896b5,-0x1e8c(%rbp)
   103fb:	96 f8 ef 
   103fe:	c7 85 78 e1 ff ff ba 	movl   $0x59b3c1ba,-0x1e88(%rbp)
   10405:	c1 b3 59 
   10408:	66 c7 85 0a e1 ff ff 	movw   $0x1,-0x1ef6(%rbp)
   1040f:	01 00 
   10411:	0f b7 85 0a e1 ff ff 	movzwl -0x1ef6(%rbp),%eax
   10418:	98                   	cwtl   
   10419:	31 85 70 e1 ff ff    	xor    %eax,-0x1e90(%rbp)
   1041f:	83 bd 70 e1 ff ff 00 	cmpl   $0x0,-0x1e90(%rbp)
   10426:	0f 84 b6 01 00 00    	je     105e2 <func_56+0x1ccb>
   1042c:	8b 9d 54 e1 ff ff    	mov    -0x1eac(%rbp),%ebx
   10432:	8b 85 38 e1 ff ff    	mov    -0x1ec8(%rbp),%eax
   10438:	25 c1 f8 6a d6       	and    $0xd66af8c1,%eax
   1043d:	41 89 c4             	mov    %eax,%r12d
   10440:	be 04 00 00 00       	mov    $0x4,%esi
   10445:	bf fe ff ff ff       	mov    $0xfffffffe,%edi
   1044a:	e8 e6 5e ff ff       	callq  6335 <safe_rshift_func_int8_t_s_s>
   1044f:	0f b6 15 12 7c 00 00 	movzbl 0x7c12(%rip),%edx        # 18068 <g_69>
   10456:	38 d0                	cmp    %dl,%al
   10458:	0f 9d c0             	setge  %al
   1045b:	0f b6 c0             	movzbl %al,%eax
   1045e:	44 89 e6             	mov    %r12d,%esi
   10461:	89 c7                	mov    %eax,%edi
   10463:	e8 25 68 ff ff       	callq  6c8d <safe_rshift_func_uint8_t_u_s>
   10468:	0f b7 85 ec e0 ff ff 	movzwl -0x1f14(%rbp),%eax
   1046f:	0f b7 c0             	movzwl %ax,%eax
   10472:	21 85 74 e1 ff ff    	and    %eax,-0x1e8c(%rbp)
   10478:	8b 85 74 e1 ff ff    	mov    -0x1e8c(%rbp),%eax
   1047e:	89 de                	mov    %ebx,%esi
   10480:	89 c7                	mov    %eax,%edi
   10482:	e8 49 6a ff ff       	callq  6ed0 <safe_sub_func_uint32_t_u_u>
   10487:	89 c2                	mov    %eax,%edx
   10489:	0f b7 05 d0 7b 00 00 	movzwl 0x7bd0(%rip),%eax        # 18060 <g_54+0x20>
   10490:	31 d0                	xor    %edx,%eax
   10492:	0f b6 d0             	movzbl %al,%edx
   10495:	0f b7 85 ec e0 ff ff 	movzwl -0x1f14(%rbp),%eax
   1049c:	0f b6 c0             	movzbl %al,%eax
   1049f:	89 d6                	mov    %edx,%esi
   104a1:	89 c7                	mov    %eax,%edi
   104a3:	e8 06 67 ff ff       	callq  6bae <safe_mod_func_uint8_t_u_u>
   104a8:	0f b6 c0             	movzbl %al,%eax
   104ab:	21 85 78 e1 ff ff    	and    %eax,-0x1e88(%rbp)
   104b1:	83 bd 78 e1 ff ff 00 	cmpl   $0x0,-0x1e88(%rbp)
   104b8:	0f 84 24 01 00 00    	je     105e2 <func_56+0x1ccb>
   104be:	48 8b 05 ab a4 00 00 	mov    0xa4ab(%rip),%rax        # 1a970 <g_171>
   104c5:	48 85 c0             	test   %rax,%rax
   104c8:	74 05                	je     104cf <func_56+0x1bb8>
   104ca:	e9 84 e5 ff ff       	jmpq   ea53 <func_56+0x13c>
   104cf:	48 8b 95 a0 e1 ff ff 	mov    -0x1e60(%rbp),%rdx
   104d6:	48 8b 85 a0 e1 ff ff 	mov    -0x1e60(%rbp),%rax
   104dd:	48 8b 12             	mov    (%rdx),%rdx
   104e0:	48 89 10             	mov    %rdx,(%rax)
   104e3:	66 83 bd ec e0 ff ff 	cmpw   $0x0,-0x1f14(%rbp)
   104ea:	00 
   104eb:	0f 85 27 01 00 00    	jne    10618 <func_56+0x1d01>
   104f1:	0f b7 85 ec e0 ff ff 	movzwl -0x1f14(%rbp),%eax
   104f8:	98                   	cwtl   
   104f9:	be 0f 00 00 00       	mov    $0xf,%esi
   104fe:	89 c7                	mov    %eax,%edi
   10500:	e8 dc 5f ff ff       	callq  64e1 <safe_lshift_func_int16_t_s_u>
   10505:	41 89 c4             	mov    %eax,%r12d
   10508:	48 8b 85 e0 e0 ff ff 	mov    -0x1f20(%rbp),%rax
   1050f:	0f bf d8             	movswl %ax,%ebx
   10512:	48 83 bd b8 e1 ff ff 	cmpq   $0x0,-0x1e48(%rbp)
   10519:	00 
   1051a:	66 83 bd 0a e1 ff ff 	cmpw   $0x0,-0x1ef6(%rbp)
   10521:	00 
   10522:	74 4c                	je     10570 <func_56+0x1c59>
   10524:	48 8b 85 e0 e0 ff ff 	mov    -0x1f20(%rbp),%rax
   1052b:	89 c2                	mov    %eax,%edx
   1052d:	48 8b 85 e8 e1 ff ff 	mov    -0x1e18(%rbp),%rax
   10534:	88 10                	mov    %dl,(%rax)
   10536:	48 8b 85 e8 e1 ff ff 	mov    -0x1e18(%rbp),%rax
   1053d:	0f b6 00             	movzbl (%rax),%eax
   10540:	0f b6 c0             	movzbl %al,%eax
   10543:	89 c6                	mov    %eax,%esi
   10545:	bf 01 00 00 00       	mov    $0x1,%edi
   1054a:	e8 fd 66 ff ff       	callq  6c4c <safe_lshift_func_uint8_t_u_u>
   1054f:	0f b6 d0             	movzbl %al,%edx
   10552:	0f b7 85 ec e0 ff ff 	movzwl -0x1f14(%rbp),%eax
   10559:	89 d6                	mov    %edx,%esi
   1055b:	89 c7                	mov    %eax,%edi
   1055d:	e8 6a 61 ff ff       	callq  66cc <safe_mod_func_int32_t_s_s>
   10562:	be ff ff ff ff       	mov    $0xffffffff,%esi
   10567:	89 c7                	mov    %eax,%edi
   10569:	e8 b7 69 ff ff       	callq  6f25 <safe_div_func_uint32_t_u_u>
   1056e:	85 c0                	test   %eax,%eax
   10570:	b8 01 00 00 00       	mov    $0x1,%eax
   10575:	89 c2                	mov    %eax,%edx
   10577:	8b 05 07 7b 00 00    	mov    0x7b07(%rip),%eax        # 18084 <g_194>
   1057d:	39 c2                	cmp    %eax,%edx
   1057f:	0f b7 85 ec e0 ff ff 	movzwl -0x1f14(%rbp),%eax
   10586:	0f be c0             	movsbl %al,%eax
   10589:	be 02 00 00 00       	mov    $0x2,%esi
   1058e:	89 c7                	mov    %eax,%edi
   10590:	e8 a0 5d ff ff       	callq  6335 <safe_rshift_func_int8_t_s_s>
   10595:	84 c0                	test   %al,%al
   10597:	0f 94 c0             	sete   %al
   1059a:	0f b6 c0             	movzbl %al,%eax
   1059d:	89 de                	mov    %ebx,%esi
   1059f:	89 c7                	mov    %eax,%edi
   105a1:	e8 70 5e ff ff       	callq  6416 <safe_mod_func_int16_t_s_s>
   105a6:	48 be db 49 e6 af c5 	movabs $0xb9917c5afe649db,%rsi
   105ad:	17 99 0b 
   105b0:	48 bf df af ef 4c 60 	movabs $0x2fbc19604cefafdf,%rdi
   105b7:	19 bc 2f 
   105ba:	e8 38 64 ff ff       	callq  69f7 <safe_div_func_int64_t_s_s>
   105bf:	44 21 e0             	and    %r12d,%eax
   105c2:	88 05 c1 7a 00 00    	mov    %al,0x7ac1(%rip)        # 18089 <g_308>
   105c8:	0f b6 05 ba 7a 00 00 	movzbl 0x7aba(%rip),%eax        # 18089 <g_308>
   105cf:	8b 95 38 e3 ff ff    	mov    -0x1cc8(%rbp),%edx
   105d5:	0f b6 c0             	movzbl %al,%eax
   105d8:	21 d0                	and    %edx,%eax
   105da:	89 85 38 e3 ff ff    	mov    %eax,-0x1cc8(%rbp)
   105e0:	eb 08                	jmp    105ea <func_56+0x1cd3>
   105e2:	66 83 85 08 e1 ff ff 	addw   $0x1,-0x1ef8(%rbp)
   105e9:	01 
   105ea:	66 83 bd ec e0 ff ff 	cmpw   $0x0,-0x1f14(%rbp)
   105f1:	00 
   105f2:	75 44                	jne    10638 <func_56+0x1d21>
   105f4:	48 8b 85 10 e2 ff ff 	mov    -0x1df0(%rbp),%rax
   105fb:	48 8d 15 6e 7a 00 00 	lea    0x7a6e(%rip),%rdx        # 18070 <g_111>
   10602:	48 89 10             	mov    %rdx,(%rax)
   10605:	48 8b 85 10 e2 ff ff 	mov    -0x1df0(%rbp),%rax
   1060c:	48 8b 00             	mov    (%rax),%rax
   1060f:	48 89 85 08 e2 ff ff 	mov    %rax,-0x1df8(%rbp)
   10616:	eb 01                	jmp    10619 <func_56+0x1d02>
   10618:	90                   	nop
   10619:	0f b6 05 48 7a 00 00 	movzbl 0x7a48(%rip),%eax        # 18068 <g_69>
   10620:	83 c0 01             	add    $0x1,%eax
   10623:	88 05 3f 7a 00 00    	mov    %al,0x7a3f(%rip)        # 18068 <g_69>
   10629:	0f b6 05 38 7a 00 00 	movzbl 0x7a38(%rip),%eax        # 18068 <g_69>
   10630:	3c 16                	cmp    $0x16,%al
   10632:	0f 8f 39 ef ff ff    	jg     f571 <func_56+0xc5a>
   10638:	48 83 ad e0 e0 ff ff 	subq   $0x1,-0x1f20(%rbp)
   1063f:	01 
   10640:	48 83 bd e0 e0 ff ff 	cmpq   $0xfffffffffffffffa,-0x1f20(%rbp)
   10647:	fa 
   10648:	0f 8c 26 e4 ff ff    	jl     ea74 <func_56+0x15d>
   1064e:	0f b6 05 1f 7a 00 00 	movzbl 0x7a1f(%rip),%eax        # 18074 <g_149>
   10655:	0f b6 c0             	movzbl %al,%eax
   10658:	48 8b 4d c8          	mov    -0x38(%rbp),%rcx
   1065c:	64 48 33 0c 25 28 00 	xor    %fs:0x28,%rcx
   10663:	00 00 
   10665:	74 05                	je     1066c <func_56+0x1d55>
   10667:	e8 04 5a ff ff       	callq  6070 <__stack_chk_fail@plt>
   1066c:	48 81 c4 08 1f 00 00 	add    $0x1f08,%rsp
   10673:	5b                   	pop    %rbx
   10674:	41 5c                	pop    %r12
   10676:	41 5d                	pop    %r13
   10678:	41 5e                	pop    %r14
   1067a:	41 5f                	pop    %r15
   1067c:	5d                   	pop    %rbp
   1067d:	c3                   	retq   

000000000001067e <func_66>:
   1067e:	f3 0f 1e fa          	endbr64 
   10682:	55                   	push   %rbp
   10683:	48 89 e5             	mov    %rsp,%rbp
   10686:	41 55                	push   %r13
   10688:	41 54                	push   %r12
   1068a:	53                   	push   %rbx
   1068b:	48 81 ec 48 01 00 00 	sub    $0x148,%rsp
   10692:	48 89 bd a8 fe ff ff 	mov    %rdi,-0x158(%rbp)
   10699:	64 48 8b 04 25 28 00 	mov    %fs:0x28,%rax
   106a0:	00 00 
   106a2:	48 89 45 d8          	mov    %rax,-0x28(%rbp)
   106a6:	31 c0                	xor    %eax,%eax
   106a8:	48 c7 85 c8 fe ff ff 	movq   $0x7,-0x138(%rbp)
   106af:	07 00 00 00 
   106b3:	48 8d 05 ae 79 00 00 	lea    0x79ae(%rip),%rax        # 18068 <g_69>
   106ba:	48 89 85 d0 fe ff ff 	mov    %rax,-0x130(%rbp)
   106c1:	48 c7 85 b8 fe ff ff 	movq   $0x0,-0x148(%rbp)
   106c8:	00 00 00 00 
   106cc:	48 8d 05 99 79 00 00 	lea    0x7999(%rip),%rax        # 1806c <g_84>
   106d3:	48 89 85 c0 fe ff ff 	mov    %rax,-0x140(%rbp)
   106da:	48 c7 85 d8 fe ff ff 	movq   $0x0,-0x128(%rbp)
   106e1:	00 00 00 00 
   106e5:	48 8d 85 b8 fe ff ff 	lea    -0x148(%rbp),%rax
   106ec:	48 89 85 e0 fe ff ff 	mov    %rax,-0x120(%rbp)
   106f3:	48 8d 85 b8 fe ff ff 	lea    -0x148(%rbp),%rax
   106fa:	48 89 85 e8 fe ff ff 	mov    %rax,-0x118(%rbp)
   10701:	48 8d 85 b8 fe ff ff 	lea    -0x148(%rbp),%rax
   10708:	48 89 85 f0 fe ff ff 	mov    %rax,-0x110(%rbp)
   1070f:	48 8d 85 c0 fe ff ff 	lea    -0x140(%rbp),%rax
   10716:	48 89 85 f8 fe ff ff 	mov    %rax,-0x108(%rbp)
   1071d:	48 8d 85 c0 fe ff ff 	lea    -0x140(%rbp),%rax
   10724:	48 89 85 00 ff ff ff 	mov    %rax,-0x100(%rbp)
   1072b:	48 8d 85 b8 fe ff ff 	lea    -0x148(%rbp),%rax
   10732:	48 89 85 08 ff ff ff 	mov    %rax,-0xf8(%rbp)
   10739:	48 8d 85 b8 fe ff ff 	lea    -0x148(%rbp),%rax
   10740:	48 89 85 10 ff ff ff 	mov    %rax,-0xf0(%rbp)
   10747:	48 8d 85 c0 fe ff ff 	lea    -0x140(%rbp),%rax
   1074e:	48 89 85 18 ff ff ff 	mov    %rax,-0xe8(%rbp)
   10755:	48 8d 85 c0 fe ff ff 	lea    -0x140(%rbp),%rax
   1075c:	48 89 85 20 ff ff ff 	mov    %rax,-0xe0(%rbp)
   10763:	48 8d 85 b8 fe ff ff 	lea    -0x148(%rbp),%rax
   1076a:	48 89 85 28 ff ff ff 	mov    %rax,-0xd8(%rbp)
   10771:	48 8d 85 b8 fe ff ff 	lea    -0x148(%rbp),%rax
   10778:	48 89 85 30 ff ff ff 	mov    %rax,-0xd0(%rbp)
   1077f:	48 8d 85 b8 fe ff ff 	lea    -0x148(%rbp),%rax
   10786:	48 89 85 38 ff ff ff 	mov    %rax,-0xc8(%rbp)
   1078d:	48 8d 85 b8 fe ff ff 	lea    -0x148(%rbp),%rax
   10794:	48 89 85 40 ff ff ff 	mov    %rax,-0xc0(%rbp)
   1079b:	48 8d 85 c0 fe ff ff 	lea    -0x140(%rbp),%rax
   107a2:	48 89 85 48 ff ff ff 	mov    %rax,-0xb8(%rbp)
   107a9:	48 8d 85 c0 fe ff ff 	lea    -0x140(%rbp),%rax
   107b0:	48 89 85 50 ff ff ff 	mov    %rax,-0xb0(%rbp)
   107b7:	48 8d 85 b8 fe ff ff 	lea    -0x148(%rbp),%rax
   107be:	48 89 85 58 ff ff ff 	mov    %rax,-0xa8(%rbp)
   107c5:	48 8d 85 b8 fe ff ff 	lea    -0x148(%rbp),%rax
   107cc:	48 89 85 60 ff ff ff 	mov    %rax,-0xa0(%rbp)
   107d3:	48 8d 85 c0 fe ff ff 	lea    -0x140(%rbp),%rax
   107da:	48 89 85 68 ff ff ff 	mov    %rax,-0x98(%rbp)
   107e1:	48 8d 85 c0 fe ff ff 	lea    -0x140(%rbp),%rax
   107e8:	48 89 85 70 ff ff ff 	mov    %rax,-0x90(%rbp)
   107ef:	48 8d 85 c0 fe ff ff 	lea    -0x140(%rbp),%rax
   107f6:	48 89 85 78 ff ff ff 	mov    %rax,-0x88(%rbp)
   107fd:	48 8d 85 b8 fe ff ff 	lea    -0x148(%rbp),%rax
   10804:	48 89 45 80          	mov    %rax,-0x80(%rbp)
   10808:	48 8d 85 b8 fe ff ff 	lea    -0x148(%rbp),%rax
   1080f:	48 89 45 88          	mov    %rax,-0x78(%rbp)
   10813:	48 8d 85 b8 fe ff ff 	lea    -0x148(%rbp),%rax
   1081a:	48 89 45 90          	mov    %rax,-0x70(%rbp)
   1081e:	48 8d 85 c0 fe ff ff 	lea    -0x140(%rbp),%rax
   10825:	48 89 45 98          	mov    %rax,-0x68(%rbp)
   10829:	48 8d 85 b8 fe ff ff 	lea    -0x148(%rbp),%rax
   10830:	48 89 45 a0          	mov    %rax,-0x60(%rbp)
   10834:	48 8d 85 b8 fe ff ff 	lea    -0x148(%rbp),%rax
   1083b:	48 89 45 a8          	mov    %rax,-0x58(%rbp)
   1083f:	48 8d 85 b8 fe ff ff 	lea    -0x148(%rbp),%rax
   10846:	48 89 45 b0          	mov    %rax,-0x50(%rbp)
   1084a:	48 8d 85 b8 fe ff ff 	lea    -0x148(%rbp),%rax
   10851:	48 89 45 b8          	mov    %rax,-0x48(%rbp)
   10855:	48 8d 85 c0 fe ff ff 	lea    -0x140(%rbp),%rax
   1085c:	48 89 45 c0          	mov    %rax,-0x40(%rbp)
   10860:	48 8d 85 c0 fe ff ff 	lea    -0x140(%rbp),%rax
   10867:	48 89 45 c8          	mov    %rax,-0x38(%rbp)
   1086b:	c7 85 b0 fe ff ff 08 	movl   $0x8,-0x150(%rbp)
   10872:	00 00 00 
   10875:	c7 85 b4 fe ff ff e9 	movl   $0x5bcbd5e9,-0x14c(%rbp)
   1087c:	d5 cb 5b 
   1087f:	8b 1d e3 a0 00 00    	mov    0xa0e3(%rip),%ebx        # 1a968 <g_5>
   10885:	8b 05 99 77 00 00    	mov    0x7799(%rip),%eax        # 18024 <g_3>
   1088b:	85 c0                	test   %eax,%eax
   1088d:	0f 95 c0             	setne  %al
   10890:	0f b6 c0             	movzbl %al,%eax
   10893:	48 33 85 c8 fe ff ff 	xor    -0x138(%rbp),%rax
   1089a:	48 39 85 c8 fe ff ff 	cmp    %rax,-0x138(%rbp)
   108a1:	0f 9e c0             	setle  %al
   108a4:	0f b6 d0             	movzbl %al,%edx
   108a7:	8b 05 bb a0 00 00    	mov    0xa0bb(%rip),%eax        # 1a968 <g_5>
   108ad:	39 c2                	cmp    %eax,%edx
   108af:	0f 93 c0             	setae  %al
   108b2:	0f b6 c0             	movzbl %al,%eax
   108b5:	66 89 05 a6 77 00 00 	mov    %ax,0x77a6(%rip)        # 18062 <g_54+0x22>
   108bc:	0f b7 05 9f 77 00 00 	movzwl 0x779f(%rip),%eax        # 18062 <g_54+0x22>
   108c3:	0f b7 d0             	movzwl %ax,%edx
   108c6:	48 8b 85 c8 fe ff ff 	mov    -0x138(%rbp),%rax
   108cd:	0f b7 c0             	movzwl %ax,%eax
   108d0:	89 d6                	mov    %edx,%esi
   108d2:	89 c7                	mov    %eax,%edi
   108d4:	e8 26 64 ff ff       	callq  6cff <safe_add_func_uint16_t_u_u>
   108d9:	0f b7 c0             	movzwl %ax,%eax
   108dc:	48 39 85 c8 fe ff ff 	cmp    %rax,-0x138(%rbp)
   108e3:	0f 9d c0             	setge  %al
   108e6:	0f b6 c0             	movzbl %al,%eax
   108e9:	89 de                	mov    %ebx,%esi
   108eb:	89 c7                	mov    %eax,%edi
   108ed:	e8 0b 66 ff ff       	callq  6efd <safe_mod_func_uint32_t_u_u>
   108f2:	89 c2                	mov    %eax,%edx
   108f4:	48 8b 85 c0 fe ff ff 	mov    -0x140(%rbp),%rax
   108fb:	89 10                	mov    %edx,(%rax)
   108fd:	48 8b 85 b8 fe ff ff 	mov    -0x148(%rbp),%rax
   10904:	48 89 05 5d 92 00 00 	mov    %rax,0x925d(%rip)        # 19b68 <g_87>
   1090b:	0f b7 05 3e 77 00 00 	movzwl 0x773e(%rip),%eax        # 18050 <g_54+0x10>
   10912:	0f bf d8             	movswl %ax,%ebx
   10915:	8b 05 49 77 00 00    	mov    0x7749(%rip),%eax        # 18064 <g_55>
   1091b:	41 89 c5             	mov    %eax,%r13d
   1091e:	8b 05 48 77 00 00    	mov    0x7748(%rip),%eax        # 1806c <g_84>
   10924:	98                   	cwtl   
   10925:	be 0f 00 00 00       	mov    $0xf,%esi
   1092a:	89 c7                	mov    %eax,%edi
   1092c:	e8 f9 5b ff ff       	callq  652a <safe_rshift_func_int16_t_s_s>
   10931:	66 83 f8 05          	cmp    $0x5,%ax
   10935:	0f 95 c0             	setne  %al
   10938:	44 0f b6 e0          	movzbl %al,%r12d
   1093c:	8b 05 e2 76 00 00    	mov    0x76e2(%rip),%eax        # 18024 <g_3>
   10942:	0f be d0             	movsbl %al,%edx
   10945:	0f b6 05 1c 77 00 00 	movzbl 0x771c(%rip),%eax        # 18068 <g_69>
   1094c:	84 c0                	test   %al,%al
   1094e:	74 14                	je     10964 <func_66+0x2e6>
   10950:	48 8b 85 c0 fe ff ff 	mov    -0x140(%rbp),%rax
   10957:	8b 00                	mov    (%rax),%eax
   10959:	85 c0                	test   %eax,%eax
   1095b:	74 07                	je     10964 <func_66+0x2e6>
   1095d:	b9 01 00 00 00       	mov    $0x1,%ecx
   10962:	eb 05                	jmp    10969 <func_66+0x2eb>
   10964:	b9 00 00 00 00       	mov    $0x0,%ecx
   10969:	0f b6 05 f8 76 00 00 	movzbl 0x76f8(%rip),%eax        # 18068 <g_69>
   10970:	0f be c0             	movsbl %al,%eax
   10973:	39 c1                	cmp    %eax,%ecx
   10975:	0f 9e c0             	setle  %al
   10978:	0f b6 c0             	movzbl %al,%eax
   1097b:	89 d6                	mov    %edx,%esi
   1097d:	89 c7                	mov    %eax,%edi
   1097f:	e8 50 58 ff ff       	callq  61d4 <safe_add_func_int8_t_s_s>
   10984:	0f b6 15 dd 76 00 00 	movzbl 0x76dd(%rip),%edx        # 18068 <g_69>
   1098b:	09 d0                	or     %edx,%eax
   1098d:	83 c8 15             	or     $0x15,%eax
   10990:	0f be c0             	movsbl %al,%eax
   10993:	89 c6                	mov    %eax,%esi
   10995:	bf 01 00 00 00       	mov    $0x1,%edi
   1099a:	e8 73 58 ff ff       	callq  6212 <safe_mul_func_int8_t_s_s>
   1099f:	48 8b 95 a8 fe ff ff 	mov    -0x158(%rbp),%rdx
   109a6:	88 02                	mov    %al,(%rdx)
   109a8:	48 8b 85 a8 fe ff ff 	mov    -0x158(%rbp),%rax
   109af:	0f b6 00             	movzbl (%rax),%eax
   109b2:	0f be d0             	movsbl %al,%edx
   109b5:	48 8b 85 c0 fe ff ff 	mov    -0x140(%rbp),%rax
   109bc:	8b 00                	mov    (%rax),%eax
   109be:	09 d0                	or     %edx,%eax
   109c0:	41 39 c4             	cmp    %eax,%r12d
   109c3:	0f 94 c0             	sete   %al
   109c6:	0f b6 c0             	movzbl %al,%eax
   109c9:	be db 00 00 00       	mov    $0xdb,%esi
   109ce:	89 c7                	mov    %eax,%edi
   109d0:	e8 06 62 ff ff       	callq  6bdb <safe_div_func_uint8_t_u_u>
   109d5:	0f b6 c0             	movzbl %al,%eax
   109d8:	8b 95 b0 fe ff ff    	mov    -0x150(%rbp),%edx
   109de:	89 d6                	mov    %edx,%esi
   109e0:	89 c7                	mov    %eax,%edi
   109e2:	e8 fa 5a ff ff       	callq  64e1 <safe_lshift_func_int16_t_s_u>
   109e7:	98                   	cwtl   
   109e8:	be 52 c1 33 c0       	mov    $0xc033c152,%esi
   109ed:	89 c7                	mov    %eax,%edi
   109ef:	e8 c4 64 ff ff       	callq  6eb8 <safe_add_func_uint32_t_u_u>
   109f4:	44 89 ee             	mov    %r13d,%esi
   109f7:	89 c7                	mov    %eax,%edi
   109f9:	e8 27 65 ff ff       	callq  6f25 <safe_div_func_uint32_t_u_u>
   109fe:	85 c0                	test   %eax,%eax
   10a00:	b8 01 00 00 00       	mov    $0x1,%eax
   10a05:	0f b6 c0             	movzbl %al,%eax
   10a08:	89 de                	mov    %ebx,%esi
   10a0a:	89 c7                	mov    %eax,%edi
   10a0c:	e8 ad 62 ff ff       	callq  6cbe <safe_rshift_func_uint8_t_u_u>
   10a11:	48 8b 85 c0 fe ff ff 	mov    -0x140(%rbp),%rax
   10a18:	8b 00                	mov    (%rax),%eax
   10a1a:	83 c8 01             	or     $0x1,%eax
   10a1d:	48 98                	cltq   
   10a1f:	89 c2                	mov    %eax,%edx
   10a21:	8b 85 b4 fe ff ff    	mov    -0x14c(%rbp),%eax
   10a27:	31 d0                	xor    %edx,%eax
   10a29:	89 85 b4 fe ff ff    	mov    %eax,-0x14c(%rbp)
   10a2f:	48 8b 05 2a 91 00 00 	mov    0x912a(%rip),%rax        # 19b60 <g_68>
   10a36:	0f b6 00             	movzbl (%rax),%eax
   10a39:	48 8b 4d d8          	mov    -0x28(%rbp),%rcx
   10a3d:	64 48 33 0c 25 28 00 	xor    %fs:0x28,%rcx
   10a44:	00 00 
   10a46:	74 05                	je     10a4d <func_66+0x3cf>
   10a48:	e8 23 56 ff ff       	callq  6070 <__stack_chk_fail@plt>
   10a4d:	48 81 c4 48 01 00 00 	add    $0x148,%rsp
   10a54:	5b                   	pop    %rbx
   10a55:	41 5c                	pop    %r12
   10a57:	41 5d                	pop    %r13
   10a59:	5d                   	pop    %rbp
   10a5a:	c3                   	retq   

0000000000010a5b <main>:
   10a5b:	f3 0f 1e fa          	endbr64 
   10a5f:	55                   	push   %rbp
   10a60:	48 89 e5             	mov    %rsp,%rbp
   10a63:	48 83 ec 20          	sub    $0x20,%rsp
   10a67:	89 7d ec             	mov    %edi,-0x14(%rbp)
   10a6a:	48 89 75 e0          	mov    %rsi,-0x20(%rbp)
   10a6e:	c7 45 fc 00 00 00 00 	movl   $0x0,-0x4(%rbp)
   10a75:	83 7d ec 02          	cmpl   $0x2,-0x14(%rbp)
   10a79:	75 25                	jne    10aa0 <main+0x45>
   10a7b:	48 8b 45 e0          	mov    -0x20(%rbp),%rax
   10a7f:	48 83 c0 08          	add    $0x8,%rax
   10a83:	48 8b 00             	mov    (%rax),%rax
   10a86:	48 8d 35 73 34 00 00 	lea    0x3473(%rip),%rsi        # 13f00 <g_1114+0x1ea0>
   10a8d:	48 89 c7             	mov    %rax,%rdi
   10a90:	e8 fb 55 ff ff       	callq  6090 <strcmp@plt>
   10a95:	85 c0                	test   %eax,%eax
   10a97:	75 07                	jne    10aa0 <main+0x45>
   10a99:	c7 45 fc 01 00 00 00 	movl   $0x1,-0x4(%rbp)
   10aa0:	e8 e4 56 ff ff       	callq  6189 <platform_main_begin>
   10aa5:	e8 ee 6a ff ff       	callq  7598 <crc32_gentab>
   10aaa:	e8 06 6d ff ff       	callq  77b5 <func_1>
   10aaf:	8b 05 6f 75 00 00    	mov    0x756f(%rip),%eax        # 18024 <g_3>
   10ab5:	48 98                	cltq   
   10ab7:	8b 55 fc             	mov    -0x4(%rbp),%edx
   10aba:	48 8d 35 41 34 00 00 	lea    0x3441(%rip),%rsi        # 13f02 <g_1114+0x1ea2>
   10ac1:	48 89 c7             	mov    %rax,%rdi
   10ac4:	e8 2a 6c ff ff       	callq  76f3 <transparent_crc>
   10ac9:	8b 05 59 75 00 00    	mov    0x7559(%rip),%eax        # 18028 <g_4>
   10acf:	48 98                	cltq   
   10ad1:	8b 55 fc             	mov    -0x4(%rbp),%edx
   10ad4:	48 8d 35 2b 34 00 00 	lea    0x342b(%rip),%rsi        # 13f06 <g_1114+0x1ea6>
   10adb:	48 89 c7             	mov    %rax,%rdi
   10ade:	e8 10 6c ff ff       	callq  76f3 <transparent_crc>
   10ae3:	8b 05 7f 9e 00 00    	mov    0x9e7f(%rip),%eax        # 1a968 <g_5>
   10ae9:	89 c1                	mov    %eax,%ecx
   10aeb:	8b 45 fc             	mov    -0x4(%rbp),%eax
   10aee:	89 c2                	mov    %eax,%edx
   10af0:	48 8d 35 13 34 00 00 	lea    0x3413(%rip),%rsi        # 13f0a <g_1114+0x1eaa>
   10af7:	48 89 cf             	mov    %rcx,%rdi
   10afa:	e8 f4 6b ff ff       	callq  76f3 <transparent_crc>
   10aff:	c7 45 f0 00 00 00 00 	movl   $0x0,-0x10(%rbp)
   10b06:	eb 73                	jmp    10b7b <main+0x120>
   10b08:	c7 45 f4 00 00 00 00 	movl   $0x0,-0xc(%rbp)
   10b0f:	eb 60                	jmp    10b71 <main+0x116>
   10b11:	8b 45 f4             	mov    -0xc(%rbp),%eax
   10b14:	48 63 c8             	movslq %eax,%rcx
   10b17:	8b 45 f0             	mov    -0x10(%rbp),%eax
   10b1a:	48 63 d0             	movslq %eax,%rdx
   10b1d:	48 89 d0             	mov    %rdx,%rax
   10b20:	48 01 c0             	add    %rax,%rax
   10b23:	48 01 d0             	add    %rdx,%rax
   10b26:	48 01 c8             	add    %rcx,%rax
   10b29:	48 8d 14 00          	lea    (%rax,%rax,1),%rdx
   10b2d:	48 8d 05 0c 75 00 00 	lea    0x750c(%rip),%rax        # 18040 <g_54>
   10b34:	0f b7 04 02          	movzwl (%rdx,%rax,1),%eax
   10b38:	48 0f bf c0          	movswq %ax,%rax
   10b3c:	8b 55 fc             	mov    -0x4(%rbp),%edx
   10b3f:	48 8d 35 c8 33 00 00 	lea    0x33c8(%rip),%rsi        # 13f0e <g_1114+0x1eae>
   10b46:	48 89 c7             	mov    %rax,%rdi
   10b49:	e8 a5 6b ff ff       	callq  76f3 <transparent_crc>
   10b4e:	83 7d fc 00          	cmpl   $0x0,-0x4(%rbp)
   10b52:	74 19                	je     10b6d <main+0x112>
   10b54:	8b 55 f4             	mov    -0xc(%rbp),%edx
   10b57:	8b 45 f0             	mov    -0x10(%rbp),%eax
   10b5a:	89 c6                	mov    %eax,%esi
   10b5c:	48 8d 3d b6 33 00 00 	lea    0x33b6(%rip),%rdi        # 13f19 <g_1114+0x1eb9>
   10b63:	b8 00 00 00 00       	mov    $0x0,%eax
   10b68:	e8 13 55 ff ff       	callq  6080 <printf@plt>
   10b6d:	83 45 f4 01          	addl   $0x1,-0xc(%rbp)
   10b71:	83 7d f4 02          	cmpl   $0x2,-0xc(%rbp)
   10b75:	7e 9a                	jle    10b11 <main+0xb6>
   10b77:	83 45 f0 01          	addl   $0x1,-0x10(%rbp)
   10b7b:	83 7d f0 05          	cmpl   $0x5,-0x10(%rbp)
   10b7f:	7e 87                	jle    10b08 <main+0xad>
   10b81:	8b 05 dd 74 00 00    	mov    0x74dd(%rip),%eax        # 18064 <g_55>
   10b87:	48 98                	cltq   
   10b89:	8b 55 fc             	mov    -0x4(%rbp),%edx
   10b8c:	48 8d 35 98 33 00 00 	lea    0x3398(%rip),%rsi        # 13f2b <g_1114+0x1ecb>
   10b93:	48 89 c7             	mov    %rax,%rdi
   10b96:	e8 58 6b ff ff       	callq  76f3 <transparent_crc>
   10b9b:	0f b6 05 c6 74 00 00 	movzbl 0x74c6(%rip),%eax        # 18068 <g_69>
   10ba2:	48 0f be c0          	movsbq %al,%rax
   10ba6:	8b 55 fc             	mov    -0x4(%rbp),%edx
   10ba9:	48 8d 35 80 33 00 00 	lea    0x3380(%rip),%rsi        # 13f30 <g_1114+0x1ed0>
   10bb0:	48 89 c7             	mov    %rax,%rdi
   10bb3:	e8 3b 6b ff ff       	callq  76f3 <transparent_crc>
   10bb8:	8b 05 ae 74 00 00    	mov    0x74ae(%rip),%eax        # 1806c <g_84>
   10bbe:	48 98                	cltq   
   10bc0:	8b 55 fc             	mov    -0x4(%rbp),%edx
   10bc3:	48 8d 35 6b 33 00 00 	lea    0x336b(%rip),%rsi        # 13f35 <g_1114+0x1ed5>
   10bca:	48 89 c7             	mov    %rax,%rdi
   10bcd:	e8 21 6b ff ff       	callq  76f3 <transparent_crc>
   10bd2:	c7 45 f0 00 00 00 00 	movl   $0x0,-0x10(%rbp)
   10bd9:	eb 4b                	jmp    10c26 <main+0x1cb>
   10bdb:	8b 45 f0             	mov    -0x10(%rbp),%eax
   10bde:	48 98                	cltq   
   10be0:	48 8d 14 85 00 00 00 	lea    0x0(,%rax,4),%rdx
   10be7:	00 
   10be8:	48 8d 05 81 74 00 00 	lea    0x7481(%rip),%rax        # 18070 <g_111>
   10bef:	8b 04 02             	mov    (%rdx,%rax,1),%eax
   10bf2:	48 98                	cltq   
   10bf4:	8b 55 fc             	mov    -0x4(%rbp),%edx
   10bf7:	48 8d 35 3c 33 00 00 	lea    0x333c(%rip),%rsi        # 13f3a <g_1114+0x1eda>
   10bfe:	48 89 c7             	mov    %rax,%rdi
   10c01:	e8 ed 6a ff ff       	callq  76f3 <transparent_crc>
   10c06:	83 7d fc 00          	cmpl   $0x0,-0x4(%rbp)
   10c0a:	74 16                	je     10c22 <main+0x1c7>
   10c0c:	8b 45 f0             	mov    -0x10(%rbp),%eax
   10c0f:	89 c6                	mov    %eax,%esi
   10c11:	48 8d 3d 2b 33 00 00 	lea    0x332b(%rip),%rdi        # 13f43 <g_1114+0x1ee3>
   10c18:	b8 00 00 00 00       	mov    $0x0,%eax
   10c1d:	e8 5e 54 ff ff       	callq  6080 <printf@plt>
   10c22:	83 45 f0 01          	addl   $0x1,-0x10(%rbp)
   10c26:	83 7d f0 00          	cmpl   $0x0,-0x10(%rbp)
   10c2a:	7e af                	jle    10bdb <main+0x180>
   10c2c:	0f b6 05 41 74 00 00 	movzbl 0x7441(%rip),%eax        # 18074 <g_149>
   10c33:	0f b6 c0             	movzbl %al,%eax
   10c36:	8b 55 fc             	mov    -0x4(%rbp),%edx
   10c39:	48 8d 35 11 33 00 00 	lea    0x3311(%rip),%rsi        # 13f51 <g_1114+0x1ef1>
   10c40:	48 89 c7             	mov    %rax,%rdi
   10c43:	e8 ab 6a ff ff       	callq  76f3 <transparent_crc>
   10c48:	48 8b 05 21 9d 00 00 	mov    0x9d21(%rip),%rax        # 1a970 <g_171>
   10c4f:	8b 55 fc             	mov    -0x4(%rbp),%edx
   10c52:	48 8d 35 fe 32 00 00 	lea    0x32fe(%rip),%rsi        # 13f57 <g_1114+0x1ef7>
   10c59:	48 89 c7             	mov    %rax,%rdi
   10c5c:	e8 92 6a ff ff       	callq  76f3 <transparent_crc>
   10c61:	48 8b 05 10 74 00 00 	mov    0x7410(%rip),%rax        # 18078 <g_172>
   10c68:	48 89 c1             	mov    %rax,%rcx
   10c6b:	8b 45 fc             	mov    -0x4(%rbp),%eax
   10c6e:	89 c2                	mov    %eax,%edx
   10c70:	48 8d 35 e6 32 00 00 	lea    0x32e6(%rip),%rsi        # 13f5d <g_1114+0x1efd>
   10c77:	48 89 cf             	mov    %rcx,%rdi
   10c7a:	e8 74 6a ff ff       	callq  76f3 <transparent_crc>
   10c7f:	0f b7 05 fa 73 00 00 	movzwl 0x73fa(%rip),%eax        # 18080 <g_183>
   10c86:	0f b7 c0             	movzwl %ax,%eax
   10c89:	8b 55 fc             	mov    -0x4(%rbp),%edx
   10c8c:	48 8d 35 d0 32 00 00 	lea    0x32d0(%rip),%rsi        # 13f63 <g_1114+0x1f03>
   10c93:	48 89 c7             	mov    %rax,%rdi
   10c96:	e8 58 6a ff ff       	callq  76f3 <transparent_crc>
   10c9b:	8b 05 e3 73 00 00    	mov    0x73e3(%rip),%eax        # 18084 <g_194>
   10ca1:	89 c1                	mov    %eax,%ecx
   10ca3:	8b 45 fc             	mov    -0x4(%rbp),%eax
   10ca6:	89 c2                	mov    %eax,%edx
   10ca8:	48 8d 35 ba 32 00 00 	lea    0x32ba(%rip),%rsi        # 13f69 <g_1114+0x1f09>
   10caf:	48 89 cf             	mov    %rcx,%rdi
   10cb2:	e8 3c 6a ff ff       	callq  76f3 <transparent_crc>
   10cb7:	0f b6 05 ca 73 00 00 	movzbl 0x73ca(%rip),%eax        # 18088 <g_217>
   10cbe:	48 0f be c0          	movsbq %al,%rax
   10cc2:	8b 55 fc             	mov    -0x4(%rbp),%edx
   10cc5:	48 8d 35 a3 32 00 00 	lea    0x32a3(%rip),%rsi        # 13f6f <g_1114+0x1f0f>
   10ccc:	48 89 c7             	mov    %rax,%rdi
   10ccf:	e8 1f 6a ff ff       	callq  76f3 <transparent_crc>
   10cd4:	0f b6 05 ae 73 00 00 	movzbl 0x73ae(%rip),%eax        # 18089 <g_308>
   10cdb:	0f b6 c0             	movzbl %al,%eax
   10cde:	8b 55 fc             	mov    -0x4(%rbp),%edx
   10ce1:	48 8d 35 8d 32 00 00 	lea    0x328d(%rip),%rsi        # 13f75 <g_1114+0x1f15>
   10ce8:	48 89 c7             	mov    %rax,%rdi
   10ceb:	e8 03 6a ff ff       	callq  76f3 <transparent_crc>
   10cf0:	8b 05 96 73 00 00    	mov    0x7396(%rip),%eax        # 1808c <g_355>
   10cf6:	89 c1                	mov    %eax,%ecx
   10cf8:	8b 45 fc             	mov    -0x4(%rbp),%eax
   10cfb:	89 c2                	mov    %eax,%edx
   10cfd:	48 8d 35 77 32 00 00 	lea    0x3277(%rip),%rsi        # 13f7b <g_1114+0x1f1b>
   10d04:	48 89 cf             	mov    %rcx,%rdi
   10d07:	e8 e7 69 ff ff       	callq  76f3 <transparent_crc>
   10d0c:	8b 05 7e 73 00 00    	mov    0x737e(%rip),%eax        # 18090 <g_426>
   10d12:	48 98                	cltq   
   10d14:	8b 55 fc             	mov    -0x4(%rbp),%edx
   10d17:	48 8d 35 63 32 00 00 	lea    0x3263(%rip),%rsi        # 13f81 <g_1114+0x1f21>
   10d1e:	48 89 c7             	mov    %rax,%rdi
   10d21:	e8 cd 69 ff ff       	callq  76f3 <transparent_crc>
   10d26:	0f b6 05 67 73 00 00 	movzbl 0x7367(%rip),%eax        # 18094 <g_446>
   10d2d:	0f b6 c0             	movzbl %al,%eax
   10d30:	8b 55 fc             	mov    -0x4(%rbp),%edx
   10d33:	48 8d 35 4d 32 00 00 	lea    0x324d(%rip),%rsi        # 13f87 <g_1114+0x1f27>
   10d3a:	48 89 c7             	mov    %rax,%rdi
   10d3d:	e8 b1 69 ff ff       	callq  76f3 <transparent_crc>
   10d42:	0f b6 05 4c 73 00 00 	movzbl 0x734c(%rip),%eax        # 18095 <g_447>
   10d49:	0f b6 c0             	movzbl %al,%eax
   10d4c:	8b 55 fc             	mov    -0x4(%rbp),%edx
   10d4f:	48 8d 35 37 32 00 00 	lea    0x3237(%rip),%rsi        # 13f8d <g_1114+0x1f2d>
   10d56:	48 89 c7             	mov    %rax,%rdi
   10d59:	e8 95 69 ff ff       	callq  76f3 <transparent_crc>
   10d5e:	0f b6 05 31 73 00 00 	movzbl 0x7331(%rip),%eax        # 18096 <g_448>
   10d65:	0f b6 c0             	movzbl %al,%eax
   10d68:	8b 55 fc             	mov    -0x4(%rbp),%edx
   10d6b:	48 8d 35 21 32 00 00 	lea    0x3221(%rip),%rsi        # 13f93 <g_1114+0x1f33>
   10d72:	48 89 c7             	mov    %rax,%rdi
   10d75:	e8 79 69 ff ff       	callq  76f3 <transparent_crc>
   10d7a:	0f b6 05 16 73 00 00 	movzbl 0x7316(%rip),%eax        # 18097 <g_449>
   10d81:	0f b6 c0             	movzbl %al,%eax
   10d84:	8b 55 fc             	mov    -0x4(%rbp),%edx
   10d87:	48 8d 35 0b 32 00 00 	lea    0x320b(%rip),%rsi        # 13f99 <g_1114+0x1f39>
   10d8e:	48 89 c7             	mov    %rax,%rdi
   10d91:	e8 5d 69 ff ff       	callq  76f3 <transparent_crc>
   10d96:	0f b6 05 fb 72 00 00 	movzbl 0x72fb(%rip),%eax        # 18098 <g_450>
   10d9d:	0f b6 c0             	movzbl %al,%eax
   10da0:	8b 55 fc             	mov    -0x4(%rbp),%edx
   10da3:	48 8d 35 f5 31 00 00 	lea    0x31f5(%rip),%rsi        # 13f9f <g_1114+0x1f3f>
   10daa:	48 89 c7             	mov    %rax,%rdi
   10dad:	e8 41 69 ff ff       	callq  76f3 <transparent_crc>
   10db2:	0f b6 05 e0 72 00 00 	movzbl 0x72e0(%rip),%eax        # 18099 <g_451>
   10db9:	0f b6 c0             	movzbl %al,%eax
   10dbc:	8b 55 fc             	mov    -0x4(%rbp),%edx
   10dbf:	48 8d 35 df 31 00 00 	lea    0x31df(%rip),%rsi        # 13fa5 <g_1114+0x1f45>
   10dc6:	48 89 c7             	mov    %rax,%rdi
   10dc9:	e8 25 69 ff ff       	callq  76f3 <transparent_crc>
   10dce:	0f b6 05 c5 72 00 00 	movzbl 0x72c5(%rip),%eax        # 1809a <g_452>
   10dd5:	0f b6 c0             	movzbl %al,%eax
   10dd8:	8b 55 fc             	mov    -0x4(%rbp),%edx
   10ddb:	48 8d 35 c9 31 00 00 	lea    0x31c9(%rip),%rsi        # 13fab <g_1114+0x1f4b>
   10de2:	48 89 c7             	mov    %rax,%rdi
   10de5:	e8 09 69 ff ff       	callq  76f3 <transparent_crc>
   10dea:	0f b6 05 87 9b 00 00 	movzbl 0x9b87(%rip),%eax        # 1a978 <g_453>
   10df1:	0f b6 c0             	movzbl %al,%eax
   10df4:	8b 55 fc             	mov    -0x4(%rbp),%edx
   10df7:	48 8d 35 b3 31 00 00 	lea    0x31b3(%rip),%rsi        # 13fb1 <g_1114+0x1f51>
   10dfe:	48 89 c7             	mov    %rax,%rdi
   10e01:	e8 ed 68 ff ff       	callq  76f3 <transparent_crc>
   10e06:	c7 45 f0 00 00 00 00 	movl   $0x0,-0x10(%rbp)
   10e0d:	e9 94 00 00 00       	jmpq   10ea6 <main+0x44b>
   10e12:	c7 45 f4 00 00 00 00 	movl   $0x0,-0xc(%rbp)
   10e19:	eb 7d                	jmp    10e98 <main+0x43d>
   10e1b:	c7 45 f8 00 00 00 00 	movl   $0x0,-0x8(%rbp)
   10e22:	eb 6a                	jmp    10e8e <main+0x433>
   10e24:	8b 45 f8             	mov    -0x8(%rbp),%eax
   10e27:	48 63 c8             	movslq %eax,%rcx
   10e2a:	8b 45 f0             	mov    -0x10(%rbp),%eax
   10e2d:	48 63 d0             	movslq %eax,%rdx
   10e30:	8b 45 f4             	mov    -0xc(%rbp),%eax
   10e33:	48 98                	cltq   
   10e35:	48 01 c2             	add    %rax,%rdx
   10e38:	48 89 d0             	mov    %rdx,%rax
   10e3b:	48 c1 e0 03          	shl    $0x3,%rax
   10e3f:	48 29 d0             	sub    %rdx,%rax
   10e42:	48 8d 14 08          	lea    (%rax,%rcx,1),%rdx
   10e46:	48 8d 05 53 72 00 00 	lea    0x7253(%rip),%rax        # 180a0 <g_454>
   10e4d:	48 01 d0             	add    %rdx,%rax
   10e50:	0f b6 00             	movzbl (%rax),%eax
   10e53:	0f b6 c0             	movzbl %al,%eax
   10e56:	8b 55 fc             	mov    -0x4(%rbp),%edx
   10e59:	48 8d 35 57 31 00 00 	lea    0x3157(%rip),%rsi        # 13fb7 <g_1114+0x1f57>
   10e60:	48 89 c7             	mov    %rax,%rdi
   10e63:	e8 8b 68 ff ff       	callq  76f3 <transparent_crc>
   10e68:	83 7d fc 00          	cmpl   $0x0,-0x4(%rbp)
   10e6c:	74 1c                	je     10e8a <main+0x42f>
   10e6e:	8b 4d f8             	mov    -0x8(%rbp),%ecx
   10e71:	8b 55 f4             	mov    -0xc(%rbp),%edx
   10e74:	8b 45 f0             	mov    -0x10(%rbp),%eax
   10e77:	89 c6                	mov    %eax,%esi
   10e79:	48 8d 3d 46 31 00 00 	lea    0x3146(%rip),%rdi        # 13fc6 <g_1114+0x1f66>
   10e80:	b8 00 00 00 00       	mov    $0x0,%eax
   10e85:	e8 f6 51 ff ff       	callq  6080 <printf@plt>
   10e8a:	83 45 f8 01          	addl   $0x1,-0x8(%rbp)
   10e8e:	83 7d f8 06          	cmpl   $0x6,-0x8(%rbp)
   10e92:	7e 90                	jle    10e24 <main+0x3c9>
   10e94:	83 45 f4 01          	addl   $0x1,-0xc(%rbp)
   10e98:	83 7d f4 00          	cmpl   $0x0,-0xc(%rbp)
   10e9c:	0f 8e 79 ff ff ff    	jle    10e1b <main+0x3c0>
   10ea2:	83 45 f0 01          	addl   $0x1,-0x10(%rbp)
   10ea6:	83 7d f0 04          	cmpl   $0x4,-0x10(%rbp)
   10eaa:	0f 8e 62 ff ff ff    	jle    10e12 <main+0x3b7>
   10eb0:	0f b6 05 0c 72 00 00 	movzbl 0x720c(%rip),%eax        # 180c3 <g_455>
   10eb7:	0f b6 c0             	movzbl %al,%eax
   10eba:	8b 55 fc             	mov    -0x4(%rbp),%edx
   10ebd:	48 8d 35 18 31 00 00 	lea    0x3118(%rip),%rsi        # 13fdc <g_1114+0x1f7c>
   10ec4:	48 89 c7             	mov    %rax,%rdi
   10ec7:	e8 27 68 ff ff       	callq  76f3 <transparent_crc>
   10ecc:	0f b6 05 f1 71 00 00 	movzbl 0x71f1(%rip),%eax        # 180c4 <g_456>
   10ed3:	0f b6 c0             	movzbl %al,%eax
   10ed6:	8b 55 fc             	mov    -0x4(%rbp),%edx
   10ed9:	48 8d 35 02 31 00 00 	lea    0x3102(%rip),%rsi        # 13fe2 <g_1114+0x1f82>
   10ee0:	48 89 c7             	mov    %rax,%rdi
   10ee3:	e8 0b 68 ff ff       	callq  76f3 <transparent_crc>
   10ee8:	0f b6 05 d6 71 00 00 	movzbl 0x71d6(%rip),%eax        # 180c5 <g_457>
   10eef:	0f b6 c0             	movzbl %al,%eax
   10ef2:	8b 55 fc             	mov    -0x4(%rbp),%edx
   10ef5:	48 8d 35 ec 30 00 00 	lea    0x30ec(%rip),%rsi        # 13fe8 <g_1114+0x1f88>
   10efc:	48 89 c7             	mov    %rax,%rdi
   10eff:	e8 ef 67 ff ff       	callq  76f3 <transparent_crc>
   10f04:	0f b6 05 bb 71 00 00 	movzbl 0x71bb(%rip),%eax        # 180c6 <g_458>
   10f0b:	0f b6 c0             	movzbl %al,%eax
   10f0e:	8b 55 fc             	mov    -0x4(%rbp),%edx
   10f11:	48 8d 35 d6 30 00 00 	lea    0x30d6(%rip),%rsi        # 13fee <g_1114+0x1f8e>
   10f18:	48 89 c7             	mov    %rax,%rdi
   10f1b:	e8 d3 67 ff ff       	callq  76f3 <transparent_crc>
   10f20:	0f b7 05 a1 71 00 00 	movzwl 0x71a1(%rip),%eax        # 180c8 <g_479>
   10f27:	48 0f bf c0          	movswq %ax,%rax
   10f2b:	8b 55 fc             	mov    -0x4(%rbp),%edx
   10f2e:	48 8d 35 bf 30 00 00 	lea    0x30bf(%rip),%rsi        # 13ff4 <g_1114+0x1f94>
   10f35:	48 89 c7             	mov    %rax,%rdi
   10f38:	e8 b6 67 ff ff       	callq  76f3 <transparent_crc>
   10f3d:	8b 05 89 71 00 00    	mov    0x7189(%rip),%eax        # 180cc <g_481>
   10f43:	48 98                	cltq   
   10f45:	8b 55 fc             	mov    -0x4(%rbp),%edx
   10f48:	48 8d 35 ab 30 00 00 	lea    0x30ab(%rip),%rsi        # 13ffa <g_1114+0x1f9a>
   10f4f:	48 89 c7             	mov    %rax,%rdi
   10f52:	e8 9c 67 ff ff       	callq  76f3 <transparent_crc>
   10f57:	48 8b 05 72 71 00 00 	mov    0x7172(%rip),%rax        # 180d0 <g_508>
   10f5e:	8b 55 fc             	mov    -0x4(%rbp),%edx
   10f61:	48 8d 35 98 30 00 00 	lea    0x3098(%rip),%rsi        # 14000 <g_1114+0x1fa0>
   10f68:	48 89 c7             	mov    %rax,%rdi
   10f6b:	e8 83 67 ff ff       	callq  76f3 <transparent_crc>
   10f70:	0f b7 05 61 71 00 00 	movzwl 0x7161(%rip),%eax        # 180d8 <g_568>
   10f77:	0f b7 c0             	movzwl %ax,%eax
   10f7a:	8b 55 fc             	mov    -0x4(%rbp),%edx
   10f7d:	48 8d 35 82 30 00 00 	lea    0x3082(%rip),%rsi        # 14006 <g_1114+0x1fa6>
   10f84:	48 89 c7             	mov    %rax,%rdi
   10f87:	e8 67 67 ff ff       	callq  76f3 <transparent_crc>
   10f8c:	c7 45 f0 00 00 00 00 	movl   $0x0,-0x10(%rbp)
   10f93:	eb 4a                	jmp    10fdf <main+0x584>
   10f95:	8b 45 f0             	mov    -0x10(%rbp),%eax
   10f98:	48 98                	cltq   
   10f9a:	48 8d 14 c5 00 00 00 	lea    0x0(,%rax,8),%rdx
   10fa1:	00 
   10fa2:	48 8d 05 37 71 00 00 	lea    0x7137(%rip),%rax        # 180e0 <g_591>
   10fa9:	48 8b 04 02          	mov    (%rdx,%rax,1),%rax
   10fad:	8b 55 fc             	mov    -0x4(%rbp),%edx
   10fb0:	48 8d 35 55 30 00 00 	lea    0x3055(%rip),%rsi        # 1400c <g_1114+0x1fac>
   10fb7:	48 89 c7             	mov    %rax,%rdi
   10fba:	e8 34 67 ff ff       	callq  76f3 <transparent_crc>
   10fbf:	83 7d fc 00          	cmpl   $0x0,-0x4(%rbp)
   10fc3:	74 16                	je     10fdb <main+0x580>
   10fc5:	8b 45 f0             	mov    -0x10(%rbp),%eax
   10fc8:	89 c6                	mov    %eax,%esi
   10fca:	48 8d 3d 72 2f 00 00 	lea    0x2f72(%rip),%rdi        # 13f43 <g_1114+0x1ee3>
   10fd1:	b8 00 00 00 00       	mov    $0x0,%eax
   10fd6:	e8 a5 50 ff ff       	callq  6080 <printf@plt>
   10fdb:	83 45 f0 01          	addl   $0x1,-0x10(%rbp)
   10fdf:	83 7d f0 08          	cmpl   $0x8,-0x10(%rbp)
   10fe3:	7e b0                	jle    10f95 <main+0x53a>
   10fe5:	0f b7 05 3c 71 00 00 	movzwl 0x713c(%rip),%eax        # 18128 <g_622>
   10fec:	48 0f bf c0          	movswq %ax,%rax
   10ff0:	8b 55 fc             	mov    -0x4(%rbp),%edx
   10ff3:	48 8d 35 1b 30 00 00 	lea    0x301b(%rip),%rsi        # 14015 <g_1114+0x1fb5>
   10ffa:	48 89 c7             	mov    %rax,%rdi
   10ffd:	e8 f1 66 ff ff       	callq  76f3 <transparent_crc>
   11002:	0f b7 05 23 71 00 00 	movzwl 0x7123(%rip),%eax        # 1812c <g_639>
   11009:	0f b7 c0             	movzwl %ax,%eax
   1100c:	8b 55 fc             	mov    -0x4(%rbp),%edx
   1100f:	48 8d 35 05 30 00 00 	lea    0x3005(%rip),%rsi        # 1401b <g_1114+0x1fbb>
   11016:	48 89 c7             	mov    %rax,%rdi
   11019:	e8 d5 66 ff ff       	callq  76f3 <transparent_crc>
   1101e:	0f b6 05 07 71 00 00 	movzbl 0x7107(%rip),%eax        # 1812c <g_639>
   11025:	0f b6 c0             	movzbl %al,%eax
   11028:	8b 55 fc             	mov    -0x4(%rbp),%edx
   1102b:	48 8d 35 f2 2f 00 00 	lea    0x2ff2(%rip),%rsi        # 14024 <g_1114+0x1fc4>
   11032:	48 89 c7             	mov    %rax,%rdi
   11035:	e8 b9 66 ff ff       	callq  76f3 <transparent_crc>
   1103a:	8b 05 f0 70 00 00    	mov    0x70f0(%rip),%eax        # 18130 <g_651>
   11040:	48 98                	cltq   
   11042:	8b 55 fc             	mov    -0x4(%rbp),%edx
   11045:	48 8d 35 e1 2f 00 00 	lea    0x2fe1(%rip),%rsi        # 1402d <g_1114+0x1fcd>
   1104c:	48 89 c7             	mov    %rax,%rdi
   1104f:	e8 9f 66 ff ff       	callq  76f3 <transparent_crc>
   11054:	8b 05 da 70 00 00    	mov    0x70da(%rip),%eax        # 18134 <g_655>
   1105a:	89 c1                	mov    %eax,%ecx
   1105c:	8b 45 fc             	mov    -0x4(%rbp),%eax
   1105f:	89 c2                	mov    %eax,%edx
   11061:	48 8d 35 cb 2f 00 00 	lea    0x2fcb(%rip),%rsi        # 14033 <g_1114+0x1fd3>
   11068:	48 89 cf             	mov    %rcx,%rdi
   1106b:	e8 83 66 ff ff       	callq  76f3 <transparent_crc>
   11070:	0f b7 05 bd 70 00 00 	movzwl 0x70bd(%rip),%eax        # 18134 <g_655>
   11077:	0f b7 c0             	movzwl %ax,%eax
   1107a:	8b 55 fc             	mov    -0x4(%rbp),%edx
   1107d:	48 8d 35 b8 2f 00 00 	lea    0x2fb8(%rip),%rsi        # 1403c <g_1114+0x1fdc>
   11084:	48 89 c7             	mov    %rax,%rdi
   11087:	e8 67 66 ff ff       	callq  76f3 <transparent_crc>
   1108c:	0f b6 05 a1 70 00 00 	movzbl 0x70a1(%rip),%eax        # 18134 <g_655>
   11093:	0f b6 c0             	movzbl %al,%eax
   11096:	8b 55 fc             	mov    -0x4(%rbp),%edx
   11099:	48 8d 35 a5 2f 00 00 	lea    0x2fa5(%rip),%rsi        # 14045 <g_1114+0x1fe5>
   110a0:	48 89 c7             	mov    %rax,%rdi
   110a3:	e8 4b 66 ff ff       	callq  76f3 <transparent_crc>
   110a8:	8b 05 86 70 00 00    	mov    0x7086(%rip),%eax        # 18134 <g_655>
   110ae:	48 98                	cltq   
   110b0:	8b 55 fc             	mov    -0x4(%rbp),%edx
   110b3:	48 8d 35 94 2f 00 00 	lea    0x2f94(%rip),%rsi        # 1404e <g_1114+0x1fee>
   110ba:	48 89 c7             	mov    %rax,%rdi
   110bd:	e8 31 66 ff ff       	callq  76f3 <transparent_crc>
   110c2:	c7 45 f0 00 00 00 00 	movl   $0x0,-0x10(%rbp)
   110c9:	e9 d2 00 00 00       	jmpq   111a0 <main+0x745>
   110ce:	8b 45 f0             	mov    -0x10(%rbp),%eax
   110d1:	48 98                	cltq   
   110d3:	48 8d 14 85 00 00 00 	lea    0x0(,%rax,4),%rdx
   110da:	00 
   110db:	48 8d 05 5e 70 00 00 	lea    0x705e(%rip),%rax        # 18140 <g_658>
   110e2:	8b 04 02             	mov    (%rdx,%rax,1),%eax
   110e5:	89 c1                	mov    %eax,%ecx
   110e7:	8b 45 fc             	mov    -0x4(%rbp),%eax
   110ea:	89 c2                	mov    %eax,%edx
   110ec:	48 8d 35 64 2f 00 00 	lea    0x2f64(%rip),%rsi        # 14057 <g_1114+0x1ff7>
   110f3:	48 89 cf             	mov    %rcx,%rdi
   110f6:	e8 f8 65 ff ff       	callq  76f3 <transparent_crc>
   110fb:	8b 45 f0             	mov    -0x10(%rbp),%eax
   110fe:	48 98                	cltq   
   11100:	48 8d 14 85 00 00 00 	lea    0x0(,%rax,4),%rdx
   11107:	00 
   11108:	48 8d 05 31 70 00 00 	lea    0x7031(%rip),%rax        # 18140 <g_658>
   1110f:	0f b7 04 02          	movzwl (%rdx,%rax,1),%eax
   11113:	0f b7 c0             	movzwl %ax,%eax
   11116:	8b 55 fc             	mov    -0x4(%rbp),%edx
   11119:	48 8d 35 43 2f 00 00 	lea    0x2f43(%rip),%rsi        # 14063 <g_1114+0x2003>
   11120:	48 89 c7             	mov    %rax,%rdi
   11123:	e8 cb 65 ff ff       	callq  76f3 <transparent_crc>
   11128:	8b 45 f0             	mov    -0x10(%rbp),%eax
   1112b:	48 98                	cltq   
   1112d:	48 8d 14 85 00 00 00 	lea    0x0(,%rax,4),%rdx
   11134:	00 
   11135:	48 8d 05 04 70 00 00 	lea    0x7004(%rip),%rax        # 18140 <g_658>
   1113c:	0f b6 04 02          	movzbl (%rdx,%rax,1),%eax
   11140:	0f b6 c0             	movzbl %al,%eax
   11143:	8b 55 fc             	mov    -0x4(%rbp),%edx
   11146:	48 8d 35 22 2f 00 00 	lea    0x2f22(%rip),%rsi        # 1406f <g_1114+0x200f>
   1114d:	48 89 c7             	mov    %rax,%rdi
   11150:	e8 9e 65 ff ff       	callq  76f3 <transparent_crc>
   11155:	8b 45 f0             	mov    -0x10(%rbp),%eax
   11158:	48 98                	cltq   
   1115a:	48 8d 14 85 00 00 00 	lea    0x0(,%rax,4),%rdx
   11161:	00 
   11162:	48 8d 05 d7 6f 00 00 	lea    0x6fd7(%rip),%rax        # 18140 <g_658>
   11169:	8b 04 02             	mov    (%rdx,%rax,1),%eax
   1116c:	48 98                	cltq   
   1116e:	8b 55 fc             	mov    -0x4(%rbp),%edx
   11171:	48 8d 35 03 2f 00 00 	lea    0x2f03(%rip),%rsi        # 1407b <g_1114+0x201b>
   11178:	48 89 c7             	mov    %rax,%rdi
   1117b:	e8 73 65 ff ff       	callq  76f3 <transparent_crc>
   11180:	83 7d fc 00          	cmpl   $0x0,-0x4(%rbp)
   11184:	74 16                	je     1119c <main+0x741>
   11186:	8b 45 f0             	mov    -0x10(%rbp),%eax
   11189:	89 c6                	mov    %eax,%esi
   1118b:	48 8d 3d b1 2d 00 00 	lea    0x2db1(%rip),%rdi        # 13f43 <g_1114+0x1ee3>
   11192:	b8 00 00 00 00       	mov    $0x0,%eax
   11197:	e8 e4 4e ff ff       	callq  6080 <printf@plt>
   1119c:	83 45 f0 01          	addl   $0x1,-0x10(%rbp)
   111a0:	83 7d f0 07          	cmpl   $0x7,-0x10(%rbp)
   111a4:	0f 8e 24 ff ff ff    	jle    110ce <main+0x673>
   111aa:	8b 05 b0 6f 00 00    	mov    0x6fb0(%rip),%eax        # 18160 <g_766>
   111b0:	48 98                	cltq   
   111b2:	8b 55 fc             	mov    -0x4(%rbp),%edx
   111b5:	48 8d 35 cb 2e 00 00 	lea    0x2ecb(%rip),%rsi        # 14087 <g_1114+0x2027>
   111bc:	48 89 c7             	mov    %rax,%rdi
   111bf:	e8 2f 65 ff ff       	callq  76f3 <transparent_crc>
   111c4:	b8 55 e8 ff ff       	mov    $0xffffe855,%eax
   111c9:	48 0f bf c0          	movswq %ax,%rax
   111cd:	8b 55 fc             	mov    -0x4(%rbp),%edx
   111d0:	48 8d 35 b6 2e 00 00 	lea    0x2eb6(%rip),%rsi        # 1408d <g_1114+0x202d>
   111d7:	48 89 c7             	mov    %rax,%rdi
   111da:	e8 14 65 ff ff       	callq  76f3 <transparent_crc>
   111df:	c7 45 f0 00 00 00 00 	movl   $0x0,-0x10(%rbp)
   111e6:	eb 4f                	jmp    11237 <main+0x7dc>
   111e8:	8b 45 f0             	mov    -0x10(%rbp),%eax
   111eb:	48 98                	cltq   
   111ed:	48 8d 14 c5 00 00 00 	lea    0x0(,%rax,8),%rdx
   111f4:	00 
   111f5:	48 8d 05 6c 6f 00 00 	lea    0x6f6c(%rip),%rax        # 18168 <g_815>
   111fc:	48 8b 04 02          	mov    (%rdx,%rax,1),%rax
   11200:	48 89 c1             	mov    %rax,%rcx
   11203:	8b 45 fc             	mov    -0x4(%rbp),%eax
   11206:	89 c2                	mov    %eax,%edx
   11208:	48 8d 35 84 2e 00 00 	lea    0x2e84(%rip),%rsi        # 14093 <g_1114+0x2033>
   1120f:	48 89 cf             	mov    %rcx,%rdi
   11212:	e8 dc 64 ff ff       	callq  76f3 <transparent_crc>
   11217:	83 7d fc 00          	cmpl   $0x0,-0x4(%rbp)
   1121b:	74 16                	je     11233 <main+0x7d8>
   1121d:	8b 45 f0             	mov    -0x10(%rbp),%eax
   11220:	89 c6                	mov    %eax,%esi
   11222:	48 8d 3d 1a 2d 00 00 	lea    0x2d1a(%rip),%rdi        # 13f43 <g_1114+0x1ee3>
   11229:	b8 00 00 00 00       	mov    $0x0,%eax
   1122e:	e8 4d 4e ff ff       	callq  6080 <printf@plt>
   11233:	83 45 f0 01          	addl   $0x1,-0x10(%rbp)
   11237:	83 7d f0 00          	cmpl   $0x0,-0x10(%rbp)
   1123b:	7e ab                	jle    111e8 <main+0x78d>
   1123d:	48 8b 05 2c 6f 00 00 	mov    0x6f2c(%rip),%rax        # 18170 <g_817>
   11244:	48 89 c1             	mov    %rax,%rcx
   11247:	8b 45 fc             	mov    -0x4(%rbp),%eax
   1124a:	89 c2                	mov    %eax,%edx
   1124c:	48 8d 35 49 2e 00 00 	lea    0x2e49(%rip),%rsi        # 1409c <g_1114+0x203c>
   11253:	48 89 cf             	mov    %rcx,%rdi
   11256:	e8 98 64 ff ff       	callq  76f3 <transparent_crc>
   1125b:	c7 45 f0 00 00 00 00 	movl   $0x0,-0x10(%rbp)
   11262:	eb 77                	jmp    112db <main+0x880>
   11264:	c7 45 f4 00 00 00 00 	movl   $0x0,-0xc(%rbp)
   1126b:	eb 64                	jmp    112d1 <main+0x876>
   1126d:	8b 45 f4             	mov    -0xc(%rbp),%eax
   11270:	48 63 c8             	movslq %eax,%rcx
   11273:	8b 45 f0             	mov    -0x10(%rbp),%eax
   11276:	48 63 d0             	movslq %eax,%rdx
   11279:	48 89 d0             	mov    %rdx,%rax
   1127c:	48 01 c0             	add    %rax,%rax
   1127f:	48 01 d0             	add    %rdx,%rax
   11282:	48 01 c8             	add    %rcx,%rax
   11285:	48 8d 14 85 00 00 00 	lea    0x0(,%rax,4),%rdx
   1128c:	00 
   1128d:	48 8d 05 e4 6e 00 00 	lea    0x6ee4(%rip),%rax        # 18178 <g_872>
   11294:	0f b7 04 02          	movzwl (%rdx,%rax,1),%eax
   11298:	48 0f bf c0          	movswq %ax,%rax
   1129c:	8b 55 fc             	mov    -0x4(%rbp),%edx
   1129f:	48 8d 35 fc 2d 00 00 	lea    0x2dfc(%rip),%rsi        # 140a2 <g_1114+0x2042>
   112a6:	48 89 c7             	mov    %rax,%rdi
   112a9:	e8 45 64 ff ff       	callq  76f3 <transparent_crc>
   112ae:	83 7d fc 00          	cmpl   $0x0,-0x4(%rbp)
   112b2:	74 19                	je     112cd <main+0x872>
   112b4:	8b 55 f4             	mov    -0xc(%rbp),%edx
   112b7:	8b 45 f0             	mov    -0x10(%rbp),%eax
   112ba:	89 c6                	mov    %eax,%esi
   112bc:	48 8d 3d 56 2c 00 00 	lea    0x2c56(%rip),%rdi        # 13f19 <g_1114+0x1eb9>
   112c3:	b8 00 00 00 00       	mov    $0x0,%eax
   112c8:	e8 b3 4d ff ff       	callq  6080 <printf@plt>
   112cd:	83 45 f4 01          	addl   $0x1,-0xc(%rbp)
   112d1:	83 7d f4 02          	cmpl   $0x2,-0xc(%rbp)
   112d5:	7e 96                	jle    1126d <main+0x812>
   112d7:	83 45 f0 01          	addl   $0x1,-0x10(%rbp)
   112db:	83 7d f0 00          	cmpl   $0x0,-0x10(%rbp)
   112df:	7e 83                	jle    11264 <main+0x809>
   112e1:	8b 05 9d 6e 00 00    	mov    0x6e9d(%rip),%eax        # 18184 <g_889>
   112e7:	89 c1                	mov    %eax,%ecx
   112e9:	8b 45 fc             	mov    -0x4(%rbp),%eax
   112ec:	89 c2                	mov    %eax,%edx
   112ee:	48 8d 35 bc 2d 00 00 	lea    0x2dbc(%rip),%rsi        # 140b1 <g_1114+0x2051>
   112f5:	48 89 cf             	mov    %rcx,%rdi
   112f8:	e8 f6 63 ff ff       	callq  76f3 <transparent_crc>
   112fd:	0f b7 05 80 6e 00 00 	movzwl 0x6e80(%rip),%eax        # 18184 <g_889>
   11304:	0f b7 c0             	movzwl %ax,%eax
   11307:	8b 55 fc             	mov    -0x4(%rbp),%edx
   1130a:	48 8d 35 a9 2d 00 00 	lea    0x2da9(%rip),%rsi        # 140ba <g_1114+0x205a>
   11311:	48 89 c7             	mov    %rax,%rdi
   11314:	e8 da 63 ff ff       	callq  76f3 <transparent_crc>
   11319:	0f b6 05 64 6e 00 00 	movzbl 0x6e64(%rip),%eax        # 18184 <g_889>
   11320:	0f b6 c0             	movzbl %al,%eax
   11323:	8b 55 fc             	mov    -0x4(%rbp),%edx
   11326:	48 8d 35 96 2d 00 00 	lea    0x2d96(%rip),%rsi        # 140c3 <g_1114+0x2063>
   1132d:	48 89 c7             	mov    %rax,%rdi
   11330:	e8 be 63 ff ff       	callq  76f3 <transparent_crc>
   11335:	8b 05 49 6e 00 00    	mov    0x6e49(%rip),%eax        # 18184 <g_889>
   1133b:	48 98                	cltq   
   1133d:	8b 55 fc             	mov    -0x4(%rbp),%edx
   11340:	48 8d 35 85 2d 00 00 	lea    0x2d85(%rip),%rsi        # 140cc <g_1114+0x206c>
   11347:	48 89 c7             	mov    %rax,%rdi
   1134a:	e8 a4 63 ff ff       	callq  76f3 <transparent_crc>
   1134f:	0f b7 05 26 96 00 00 	movzwl 0x9626(%rip),%eax        # 1a97c <g_932>
   11356:	48 0f bf c0          	movswq %ax,%rax
   1135a:	8b 55 fc             	mov    -0x4(%rbp),%edx
   1135d:	48 8d 35 71 2d 00 00 	lea    0x2d71(%rip),%rsi        # 140d5 <g_1114+0x2075>
   11364:	48 89 c7             	mov    %rax,%rdi
   11367:	e8 87 63 ff ff       	callq  76f3 <transparent_crc>
   1136c:	0f b7 05 15 6e 00 00 	movzwl 0x6e15(%rip),%eax        # 18188 <g_941>
   11373:	48 0f bf c0          	movswq %ax,%rax
   11377:	8b 55 fc             	mov    -0x4(%rbp),%edx
   1137a:	48 8d 35 5d 2d 00 00 	lea    0x2d5d(%rip),%rsi        # 140de <g_1114+0x207e>
   11381:	48 89 c7             	mov    %rax,%rdi
   11384:	e8 6a 63 ff ff       	callq  76f3 <transparent_crc>
   11389:	8b 05 fd 6d 00 00    	mov    0x6dfd(%rip),%eax        # 1818c <g_945>
   1138f:	89 c1                	mov    %eax,%ecx
   11391:	8b 45 fc             	mov    -0x4(%rbp),%eax
   11394:	89 c2                	mov    %eax,%edx
   11396:	48 8d 35 4a 2d 00 00 	lea    0x2d4a(%rip),%rsi        # 140e7 <g_1114+0x2087>
   1139d:	48 89 cf             	mov    %rcx,%rdi
   113a0:	e8 4e 63 ff ff       	callq  76f3 <transparent_crc>
   113a5:	0f b7 05 e0 6d 00 00 	movzwl 0x6de0(%rip),%eax        # 1818c <g_945>
   113ac:	0f b7 c0             	movzwl %ax,%eax
   113af:	8b 55 fc             	mov    -0x4(%rbp),%edx
   113b2:	48 8d 35 37 2d 00 00 	lea    0x2d37(%rip),%rsi        # 140f0 <g_1114+0x2090>
   113b9:	48 89 c7             	mov    %rax,%rdi
   113bc:	e8 32 63 ff ff       	callq  76f3 <transparent_crc>
   113c1:	0f b6 05 c4 6d 00 00 	movzbl 0x6dc4(%rip),%eax        # 1818c <g_945>
   113c8:	0f b6 c0             	movzbl %al,%eax
   113cb:	8b 55 fc             	mov    -0x4(%rbp),%edx
   113ce:	48 8d 35 24 2d 00 00 	lea    0x2d24(%rip),%rsi        # 140f9 <g_1114+0x2099>
   113d5:	48 89 c7             	mov    %rax,%rdi
   113d8:	e8 16 63 ff ff       	callq  76f3 <transparent_crc>
   113dd:	8b 05 a9 6d 00 00    	mov    0x6da9(%rip),%eax        # 1818c <g_945>
   113e3:	48 98                	cltq   
   113e5:	8b 55 fc             	mov    -0x4(%rbp),%edx
   113e8:	48 8d 35 13 2d 00 00 	lea    0x2d13(%rip),%rsi        # 14102 <g_1114+0x20a2>
   113ef:	48 89 c7             	mov    %rax,%rdi
   113f2:	e8 fc 62 ff ff       	callq  76f3 <transparent_crc>
   113f7:	c7 45 f0 00 00 00 00 	movl   $0x0,-0x10(%rbp)
   113fe:	e9 d2 00 00 00       	jmpq   114d5 <main+0xa7a>
   11403:	8b 45 f0             	mov    -0x10(%rbp),%eax
   11406:	48 98                	cltq   
   11408:	48 8d 14 85 00 00 00 	lea    0x0(,%rax,4),%rdx
   1140f:	00 
   11410:	48 8d 05 79 6d 00 00 	lea    0x6d79(%rip),%rax        # 18190 <g_947>
   11417:	8b 04 02             	mov    (%rdx,%rax,1),%eax
   1141a:	89 c1                	mov    %eax,%ecx
   1141c:	8b 45 fc             	mov    -0x4(%rbp),%eax
   1141f:	89 c2                	mov    %eax,%edx
   11421:	48 8d 35 e3 2c 00 00 	lea    0x2ce3(%rip),%rsi        # 1410b <g_1114+0x20ab>
   11428:	48 89 cf             	mov    %rcx,%rdi
   1142b:	e8 c3 62 ff ff       	callq  76f3 <transparent_crc>
   11430:	8b 45 f0             	mov    -0x10(%rbp),%eax
   11433:	48 98                	cltq   
   11435:	48 8d 14 85 00 00 00 	lea    0x0(,%rax,4),%rdx
   1143c:	00 
   1143d:	48 8d 05 4c 6d 00 00 	lea    0x6d4c(%rip),%rax        # 18190 <g_947>
   11444:	0f b7 04 02          	movzwl (%rdx,%rax,1),%eax
   11448:	0f b7 c0             	movzwl %ax,%eax
   1144b:	8b 55 fc             	mov    -0x4(%rbp),%edx
   1144e:	48 8d 35 c2 2c 00 00 	lea    0x2cc2(%rip),%rsi        # 14117 <g_1114+0x20b7>
   11455:	48 89 c7             	mov    %rax,%rdi
   11458:	e8 96 62 ff ff       	callq  76f3 <transparent_crc>
   1145d:	8b 45 f0             	mov    -0x10(%rbp),%eax
   11460:	48 98                	cltq   
   11462:	48 8d 14 85 00 00 00 	lea    0x0(,%rax,4),%rdx
   11469:	00 
   1146a:	48 8d 05 1f 6d 00 00 	lea    0x6d1f(%rip),%rax        # 18190 <g_947>
   11471:	0f b6 04 02          	movzbl (%rdx,%rax,1),%eax
   11475:	0f b6 c0             	movzbl %al,%eax
   11478:	8b 55 fc             	mov    -0x4(%rbp),%edx
   1147b:	48 8d 35 a1 2c 00 00 	lea    0x2ca1(%rip),%rsi        # 14123 <g_1114+0x20c3>
   11482:	48 89 c7             	mov    %rax,%rdi
   11485:	e8 69 62 ff ff       	callq  76f3 <transparent_crc>
   1148a:	8b 45 f0             	mov    -0x10(%rbp),%eax
   1148d:	48 98                	cltq   
   1148f:	48 8d 14 85 00 00 00 	lea    0x0(,%rax,4),%rdx
   11496:	00 
   11497:	48 8d 05 f2 6c 00 00 	lea    0x6cf2(%rip),%rax        # 18190 <g_947>
   1149e:	8b 04 02             	mov    (%rdx,%rax,1),%eax
   114a1:	48 98                	cltq   
   114a3:	8b 55 fc             	mov    -0x4(%rbp),%edx
   114a6:	48 8d 35 82 2c 00 00 	lea    0x2c82(%rip),%rsi        # 1412f <g_1114+0x20cf>
   114ad:	48 89 c7             	mov    %rax,%rdi
   114b0:	e8 3e 62 ff ff       	callq  76f3 <transparent_crc>
   114b5:	83 7d fc 00          	cmpl   $0x0,-0x4(%rbp)
   114b9:	74 16                	je     114d1 <main+0xa76>
   114bb:	8b 45 f0             	mov    -0x10(%rbp),%eax
   114be:	89 c6                	mov    %eax,%esi
   114c0:	48 8d 3d 7c 2a 00 00 	lea    0x2a7c(%rip),%rdi        # 13f43 <g_1114+0x1ee3>
   114c7:	b8 00 00 00 00       	mov    $0x0,%eax
   114cc:	e8 af 4b ff ff       	callq  6080 <printf@plt>
   114d1:	83 45 f0 01          	addl   $0x1,-0x10(%rbp)
   114d5:	83 7d f0 00          	cmpl   $0x0,-0x10(%rbp)
   114d9:	0f 8e 24 ff ff ff    	jle    11403 <main+0x9a8>
   114df:	8b 05 af 6c 00 00    	mov    0x6caf(%rip),%eax        # 18194 <g_948>
   114e5:	89 c1                	mov    %eax,%ecx
   114e7:	8b 45 fc             	mov    -0x4(%rbp),%eax
   114ea:	89 c2                	mov    %eax,%edx
   114ec:	48 8d 35 48 2c 00 00 	lea    0x2c48(%rip),%rsi        # 1413b <g_1114+0x20db>
   114f3:	48 89 cf             	mov    %rcx,%rdi
   114f6:	e8 f8 61 ff ff       	callq  76f3 <transparent_crc>
   114fb:	0f b7 05 92 6c 00 00 	movzwl 0x6c92(%rip),%eax        # 18194 <g_948>
   11502:	0f b7 c0             	movzwl %ax,%eax
   11505:	8b 55 fc             	mov    -0x4(%rbp),%edx
   11508:	48 8d 35 35 2c 00 00 	lea    0x2c35(%rip),%rsi        # 14144 <g_1114+0x20e4>
   1150f:	48 89 c7             	mov    %rax,%rdi
   11512:	e8 dc 61 ff ff       	callq  76f3 <transparent_crc>
   11517:	0f b6 05 76 6c 00 00 	movzbl 0x6c76(%rip),%eax        # 18194 <g_948>
   1151e:	0f b6 c0             	movzbl %al,%eax
   11521:	8b 55 fc             	mov    -0x4(%rbp),%edx
   11524:	48 8d 35 22 2c 00 00 	lea    0x2c22(%rip),%rsi        # 1414d <g_1114+0x20ed>
   1152b:	48 89 c7             	mov    %rax,%rdi
   1152e:	e8 c0 61 ff ff       	callq  76f3 <transparent_crc>
   11533:	8b 05 5b 6c 00 00    	mov    0x6c5b(%rip),%eax        # 18194 <g_948>
   11539:	48 98                	cltq   
   1153b:	8b 55 fc             	mov    -0x4(%rbp),%edx
   1153e:	48 8d 35 11 2c 00 00 	lea    0x2c11(%rip),%rsi        # 14156 <g_1114+0x20f6>
   11545:	48 89 c7             	mov    %rax,%rdi
   11548:	e8 a6 61 ff ff       	callq  76f3 <transparent_crc>
   1154d:	8b 05 45 6c 00 00    	mov    0x6c45(%rip),%eax        # 18198 <g_949>
   11553:	89 c1                	mov    %eax,%ecx
   11555:	8b 45 fc             	mov    -0x4(%rbp),%eax
   11558:	89 c2                	mov    %eax,%edx
   1155a:	48 8d 35 fe 2b 00 00 	lea    0x2bfe(%rip),%rsi        # 1415f <g_1114+0x20ff>
   11561:	48 89 cf             	mov    %rcx,%rdi
   11564:	e8 8a 61 ff ff       	callq  76f3 <transparent_crc>
   11569:	0f b7 05 28 6c 00 00 	movzwl 0x6c28(%rip),%eax        # 18198 <g_949>
   11570:	0f b7 c0             	movzwl %ax,%eax
   11573:	8b 55 fc             	mov    -0x4(%rbp),%edx
   11576:	48 8d 35 eb 2b 00 00 	lea    0x2beb(%rip),%rsi        # 14168 <g_1114+0x2108>
   1157d:	48 89 c7             	mov    %rax,%rdi
   11580:	e8 6e 61 ff ff       	callq  76f3 <transparent_crc>
   11585:	0f b6 05 0c 6c 00 00 	movzbl 0x6c0c(%rip),%eax        # 18198 <g_949>
   1158c:	0f b6 c0             	movzbl %al,%eax
   1158f:	8b 55 fc             	mov    -0x4(%rbp),%edx
   11592:	48 8d 35 d8 2b 00 00 	lea    0x2bd8(%rip),%rsi        # 14171 <g_1114+0x2111>
   11599:	48 89 c7             	mov    %rax,%rdi
   1159c:	e8 52 61 ff ff       	callq  76f3 <transparent_crc>
   115a1:	8b 05 f1 6b 00 00    	mov    0x6bf1(%rip),%eax        # 18198 <g_949>
   115a7:	48 98                	cltq   
   115a9:	8b 55 fc             	mov    -0x4(%rbp),%edx
   115ac:	48 8d 35 c7 2b 00 00 	lea    0x2bc7(%rip),%rsi        # 1417a <g_1114+0x211a>
   115b3:	48 89 c7             	mov    %rax,%rdi
   115b6:	e8 38 61 ff ff       	callq  76f3 <transparent_crc>
   115bb:	8b 05 db 6b 00 00    	mov    0x6bdb(%rip),%eax        # 1819c <g_950>
   115c1:	89 c1                	mov    %eax,%ecx
   115c3:	8b 45 fc             	mov    -0x4(%rbp),%eax
   115c6:	89 c2                	mov    %eax,%edx
   115c8:	48 8d 35 b4 2b 00 00 	lea    0x2bb4(%rip),%rsi        # 14183 <g_1114+0x2123>
   115cf:	48 89 cf             	mov    %rcx,%rdi
   115d2:	e8 1c 61 ff ff       	callq  76f3 <transparent_crc>
   115d7:	0f b7 05 be 6b 00 00 	movzwl 0x6bbe(%rip),%eax        # 1819c <g_950>
   115de:	0f b7 c0             	movzwl %ax,%eax
   115e1:	8b 55 fc             	mov    -0x4(%rbp),%edx
   115e4:	48 8d 35 a1 2b 00 00 	lea    0x2ba1(%rip),%rsi        # 1418c <g_1114+0x212c>
   115eb:	48 89 c7             	mov    %rax,%rdi
   115ee:	e8 00 61 ff ff       	callq  76f3 <transparent_crc>
   115f3:	0f b6 05 a2 6b 00 00 	movzbl 0x6ba2(%rip),%eax        # 1819c <g_950>
   115fa:	0f b6 c0             	movzbl %al,%eax
   115fd:	8b 55 fc             	mov    -0x4(%rbp),%edx
   11600:	48 8d 35 8e 2b 00 00 	lea    0x2b8e(%rip),%rsi        # 14195 <g_1114+0x2135>
   11607:	48 89 c7             	mov    %rax,%rdi
   1160a:	e8 e4 60 ff ff       	callq  76f3 <transparent_crc>
   1160f:	8b 05 87 6b 00 00    	mov    0x6b87(%rip),%eax        # 1819c <g_950>
   11615:	48 98                	cltq   
   11617:	8b 55 fc             	mov    -0x4(%rbp),%edx
   1161a:	48 8d 35 7d 2b 00 00 	lea    0x2b7d(%rip),%rsi        # 1419e <g_1114+0x213e>
   11621:	48 89 c7             	mov    %rax,%rdi
   11624:	e8 ca 60 ff ff       	callq  76f3 <transparent_crc>
   11629:	c7 45 f0 00 00 00 00 	movl   $0x0,-0x10(%rbp)
   11630:	e9 d2 00 00 00       	jmpq   11707 <main+0xcac>
   11635:	8b 45 f0             	mov    -0x10(%rbp),%eax
   11638:	48 98                	cltq   
   1163a:	48 8d 14 85 00 00 00 	lea    0x0(,%rax,4),%rdx
   11641:	00 
   11642:	48 8d 05 57 6b 00 00 	lea    0x6b57(%rip),%rax        # 181a0 <g_951>
   11649:	8b 04 02             	mov    (%rdx,%rax,1),%eax
   1164c:	89 c1                	mov    %eax,%ecx
   1164e:	8b 45 fc             	mov    -0x4(%rbp),%eax
   11651:	89 c2                	mov    %eax,%edx
   11653:	48 8d 35 4d 2b 00 00 	lea    0x2b4d(%rip),%rsi        # 141a7 <g_1114+0x2147>
   1165a:	48 89 cf             	mov    %rcx,%rdi
   1165d:	e8 91 60 ff ff       	callq  76f3 <transparent_crc>
   11662:	8b 45 f0             	mov    -0x10(%rbp),%eax
   11665:	48 98                	cltq   
   11667:	48 8d 14 85 00 00 00 	lea    0x0(,%rax,4),%rdx
   1166e:	00 
   1166f:	48 8d 05 2a 6b 00 00 	lea    0x6b2a(%rip),%rax        # 181a0 <g_951>
   11676:	0f b7 04 02          	movzwl (%rdx,%rax,1),%eax
   1167a:	0f b7 c0             	movzwl %ax,%eax
   1167d:	8b 55 fc             	mov    -0x4(%rbp),%edx
   11680:	48 8d 35 2c 2b 00 00 	lea    0x2b2c(%rip),%rsi        # 141b3 <g_1114+0x2153>
   11687:	48 89 c7             	mov    %rax,%rdi
   1168a:	e8 64 60 ff ff       	callq  76f3 <transparent_crc>
   1168f:	8b 45 f0             	mov    -0x10(%rbp),%eax
   11692:	48 98                	cltq   
   11694:	48 8d 14 85 00 00 00 	lea    0x0(,%rax,4),%rdx
   1169b:	00 
   1169c:	48 8d 05 fd 6a 00 00 	lea    0x6afd(%rip),%rax        # 181a0 <g_951>
   116a3:	0f b6 04 02          	movzbl (%rdx,%rax,1),%eax
   116a7:	0f b6 c0             	movzbl %al,%eax
   116aa:	8b 55 fc             	mov    -0x4(%rbp),%edx
   116ad:	48 8d 35 0b 2b 00 00 	lea    0x2b0b(%rip),%rsi        # 141bf <g_1114+0x215f>
   116b4:	48 89 c7             	mov    %rax,%rdi
   116b7:	e8 37 60 ff ff       	callq  76f3 <transparent_crc>
   116bc:	8b 45 f0             	mov    -0x10(%rbp),%eax
   116bf:	48 98                	cltq   
   116c1:	48 8d 14 85 00 00 00 	lea    0x0(,%rax,4),%rdx
   116c8:	00 
   116c9:	48 8d 05 d0 6a 00 00 	lea    0x6ad0(%rip),%rax        # 181a0 <g_951>
   116d0:	8b 04 02             	mov    (%rdx,%rax,1),%eax
   116d3:	48 98                	cltq   
   116d5:	8b 55 fc             	mov    -0x4(%rbp),%edx
   116d8:	48 8d 35 ec 2a 00 00 	lea    0x2aec(%rip),%rsi        # 141cb <g_1114+0x216b>
   116df:	48 89 c7             	mov    %rax,%rdi
   116e2:	e8 0c 60 ff ff       	callq  76f3 <transparent_crc>
   116e7:	83 7d fc 00          	cmpl   $0x0,-0x4(%rbp)
   116eb:	74 16                	je     11703 <main+0xca8>
   116ed:	8b 45 f0             	mov    -0x10(%rbp),%eax
   116f0:	89 c6                	mov    %eax,%esi
   116f2:	48 8d 3d 4a 28 00 00 	lea    0x284a(%rip),%rdi        # 13f43 <g_1114+0x1ee3>
   116f9:	b8 00 00 00 00       	mov    $0x0,%eax
   116fe:	e8 7d 49 ff ff       	callq  6080 <printf@plt>
   11703:	83 45 f0 01          	addl   $0x1,-0x10(%rbp)
   11707:	83 7d f0 07          	cmpl   $0x7,-0x10(%rbp)
   1170b:	0f 8e 24 ff ff ff    	jle    11635 <main+0xbda>
   11711:	0f b7 05 a8 6a 00 00 	movzwl 0x6aa8(%rip),%eax        # 181c0 <g_952>
   11718:	0f b7 c0             	movzwl %ax,%eax
   1171b:	8b 55 fc             	mov    -0x4(%rbp),%edx
   1171e:	48 8d 35 b2 2a 00 00 	lea    0x2ab2(%rip),%rsi        # 141d7 <g_1114+0x2177>
   11725:	48 89 c7             	mov    %rax,%rdi
   11728:	e8 c6 5f ff ff       	callq  76f3 <transparent_crc>
   1172d:	0f b6 05 8c 6a 00 00 	movzbl 0x6a8c(%rip),%eax        # 181c0 <g_952>
   11734:	0f b6 c0             	movzbl %al,%eax
   11737:	8b 55 fc             	mov    -0x4(%rbp),%edx
   1173a:	48 8d 35 9f 2a 00 00 	lea    0x2a9f(%rip),%rsi        # 141e0 <g_1114+0x2180>
   11741:	48 89 c7             	mov    %rax,%rdi
   11744:	e8 aa 5f ff ff       	callq  76f3 <transparent_crc>
   11749:	0f b6 05 74 6a 00 00 	movzbl 0x6a74(%rip),%eax        # 181c4 <g_953>
   11750:	0f b6 c0             	movzbl %al,%eax
   11753:	8b 55 fc             	mov    -0x4(%rbp),%edx
   11756:	48 8d 35 8c 2a 00 00 	lea    0x2a8c(%rip),%rsi        # 141e9 <g_1114+0x2189>
   1175d:	48 89 c7             	mov    %rax,%rdi
   11760:	e8 8e 5f ff ff       	callq  76f3 <transparent_crc>
   11765:	8b 05 5d 6a 00 00    	mov    0x6a5d(%rip),%eax        # 181c8 <g_954>
   1176b:	89 c1                	mov    %eax,%ecx
   1176d:	8b 45 fc             	mov    -0x4(%rbp),%eax
   11770:	89 c2                	mov    %eax,%edx
   11772:	48 8d 35 79 2a 00 00 	lea    0x2a79(%rip),%rsi        # 141f2 <g_1114+0x2192>
   11779:	48 89 cf             	mov    %rcx,%rdi
   1177c:	e8 72 5f ff ff       	callq  76f3 <transparent_crc>
   11781:	0f b7 05 40 6a 00 00 	movzwl 0x6a40(%rip),%eax        # 181c8 <g_954>
   11788:	0f b7 c0             	movzwl %ax,%eax
   1178b:	8b 55 fc             	mov    -0x4(%rbp),%edx
   1178e:	48 8d 35 66 2a 00 00 	lea    0x2a66(%rip),%rsi        # 141fb <g_1114+0x219b>
   11795:	48 89 c7             	mov    %rax,%rdi
   11798:	e8 56 5f ff ff       	callq  76f3 <transparent_crc>
   1179d:	0f b6 05 24 6a 00 00 	movzbl 0x6a24(%rip),%eax        # 181c8 <g_954>
   117a4:	0f b6 c0             	movzbl %al,%eax
   117a7:	8b 55 fc             	mov    -0x4(%rbp),%edx
   117aa:	48 8d 35 53 2a 00 00 	lea    0x2a53(%rip),%rsi        # 14204 <g_1114+0x21a4>
   117b1:	48 89 c7             	mov    %rax,%rdi
   117b4:	e8 3a 5f ff ff       	callq  76f3 <transparent_crc>
   117b9:	8b 05 09 6a 00 00    	mov    0x6a09(%rip),%eax        # 181c8 <g_954>
   117bf:	48 98                	cltq   
   117c1:	8b 55 fc             	mov    -0x4(%rbp),%edx
   117c4:	48 8d 35 42 2a 00 00 	lea    0x2a42(%rip),%rsi        # 1420d <g_1114+0x21ad>
   117cb:	48 89 c7             	mov    %rax,%rdi
   117ce:	e8 20 5f ff ff       	callq  76f3 <transparent_crc>
   117d3:	8b 05 f3 69 00 00    	mov    0x69f3(%rip),%eax        # 181cc <g_955>
   117d9:	89 c1                	mov    %eax,%ecx
   117db:	8b 45 fc             	mov    -0x4(%rbp),%eax
   117de:	89 c2                	mov    %eax,%edx
   117e0:	48 8d 35 2f 2a 00 00 	lea    0x2a2f(%rip),%rsi        # 14216 <g_1114+0x21b6>
   117e7:	48 89 cf             	mov    %rcx,%rdi
   117ea:	e8 04 5f ff ff       	callq  76f3 <transparent_crc>
   117ef:	0f b7 05 d6 69 00 00 	movzwl 0x69d6(%rip),%eax        # 181cc <g_955>
   117f6:	0f b7 c0             	movzwl %ax,%eax
   117f9:	8b 55 fc             	mov    -0x4(%rbp),%edx
   117fc:	48 8d 35 1c 2a 00 00 	lea    0x2a1c(%rip),%rsi        # 1421f <g_1114+0x21bf>
   11803:	48 89 c7             	mov    %rax,%rdi
   11806:	e8 e8 5e ff ff       	callq  76f3 <transparent_crc>
   1180b:	0f b6 05 ba 69 00 00 	movzbl 0x69ba(%rip),%eax        # 181cc <g_955>
   11812:	0f b6 c0             	movzbl %al,%eax
   11815:	8b 55 fc             	mov    -0x4(%rbp),%edx
   11818:	48 8d 35 09 2a 00 00 	lea    0x2a09(%rip),%rsi        # 14228 <g_1114+0x21c8>
   1181f:	48 89 c7             	mov    %rax,%rdi
   11822:	e8 cc 5e ff ff       	callq  76f3 <transparent_crc>
   11827:	8b 05 9f 69 00 00    	mov    0x699f(%rip),%eax        # 181cc <g_955>
   1182d:	48 98                	cltq   
   1182f:	8b 55 fc             	mov    -0x4(%rbp),%edx
   11832:	48 8d 35 f8 29 00 00 	lea    0x29f8(%rip),%rsi        # 14231 <g_1114+0x21d1>
   11839:	48 89 c7             	mov    %rax,%rdi
   1183c:	e8 b2 5e ff ff       	callq  76f3 <transparent_crc>
   11841:	c7 45 f0 00 00 00 00 	movl   $0x0,-0x10(%rbp)
   11848:	e9 23 01 00 00       	jmpq   11970 <main+0xf15>
   1184d:	c7 45 f4 00 00 00 00 	movl   $0x0,-0xc(%rbp)
   11854:	e9 09 01 00 00       	jmpq   11962 <main+0xf07>
   11859:	8b 45 f4             	mov    -0xc(%rbp),%eax
   1185c:	48 98                	cltq   
   1185e:	8b 55 f0             	mov    -0x10(%rbp),%edx
   11861:	48 63 d2             	movslq %edx,%rdx
   11864:	48 c1 e2 02          	shl    $0x2,%rdx
   11868:	48 01 d0             	add    %rdx,%rax
   1186b:	48 8d 14 85 00 00 00 	lea    0x0(,%rax,4),%rdx
   11872:	00 
   11873:	48 8d 05 66 69 00 00 	lea    0x6966(%rip),%rax        # 181e0 <g_956>
   1187a:	8b 04 02             	mov    (%rdx,%rax,1),%eax
   1187d:	89 c1                	mov    %eax,%ecx
   1187f:	8b 45 fc             	mov    -0x4(%rbp),%eax
   11882:	89 c2                	mov    %eax,%edx
   11884:	48 8d 35 af 29 00 00 	lea    0x29af(%rip),%rsi        # 1423a <g_1114+0x21da>
   1188b:	48 89 cf             	mov    %rcx,%rdi
   1188e:	e8 60 5e ff ff       	callq  76f3 <transparent_crc>
   11893:	8b 45 f4             	mov    -0xc(%rbp),%eax
   11896:	48 98                	cltq   
   11898:	8b 55 f0             	mov    -0x10(%rbp),%edx
   1189b:	48 63 d2             	movslq %edx,%rdx
   1189e:	48 c1 e2 02          	shl    $0x2,%rdx
   118a2:	48 01 d0             	add    %rdx,%rax
   118a5:	48 8d 14 85 00 00 00 	lea    0x0(,%rax,4),%rdx
   118ac:	00 
   118ad:	48 8d 05 2c 69 00 00 	lea    0x692c(%rip),%rax        # 181e0 <g_956>
   118b4:	0f b7 04 02          	movzwl (%rdx,%rax,1),%eax
   118b8:	0f b7 c0             	movzwl %ax,%eax
   118bb:	8b 55 fc             	mov    -0x4(%rbp),%edx
   118be:	48 8d 35 84 29 00 00 	lea    0x2984(%rip),%rsi        # 14249 <g_1114+0x21e9>
   118c5:	48 89 c7             	mov    %rax,%rdi
   118c8:	e8 26 5e ff ff       	callq  76f3 <transparent_crc>
   118cd:	8b 45 f4             	mov    -0xc(%rbp),%eax
   118d0:	48 98                	cltq   
   118d2:	8b 55 f0             	mov    -0x10(%rbp),%edx
   118d5:	48 63 d2             	movslq %edx,%rdx
   118d8:	48 c1 e2 02          	shl    $0x2,%rdx
   118dc:	48 01 d0             	add    %rdx,%rax
   118df:	48 8d 14 85 00 00 00 	lea    0x0(,%rax,4),%rdx
   118e6:	00 
   118e7:	48 8d 05 f2 68 00 00 	lea    0x68f2(%rip),%rax        # 181e0 <g_956>
   118ee:	0f b6 04 02          	movzbl (%rdx,%rax,1),%eax
   118f2:	0f b6 c0             	movzbl %al,%eax
   118f5:	8b 55 fc             	mov    -0x4(%rbp),%edx
   118f8:	48 8d 35 59 29 00 00 	lea    0x2959(%rip),%rsi        # 14258 <g_1114+0x21f8>
   118ff:	48 89 c7             	mov    %rax,%rdi
   11902:	e8 ec 5d ff ff       	callq  76f3 <transparent_crc>
   11907:	8b 45 f4             	mov    -0xc(%rbp),%eax
   1190a:	48 98                	cltq   
   1190c:	8b 55 f0             	mov    -0x10(%rbp),%edx
   1190f:	48 63 d2             	movslq %edx,%rdx
   11912:	48 c1 e2 02          	shl    $0x2,%rdx
   11916:	48 01 d0             	add    %rdx,%rax
   11919:	48 8d 14 85 00 00 00 	lea    0x0(,%rax,4),%rdx
   11920:	00 
   11921:	48 8d 05 b8 68 00 00 	lea    0x68b8(%rip),%rax        # 181e0 <g_956>
   11928:	8b 04 02             	mov    (%rdx,%rax,1),%eax
   1192b:	48 98                	cltq   
   1192d:	8b 55 fc             	mov    -0x4(%rbp),%edx
   11930:	48 8d 35 30 29 00 00 	lea    0x2930(%rip),%rsi        # 14267 <g_1114+0x2207>
   11937:	48 89 c7             	mov    %rax,%rdi
   1193a:	e8 b4 5d ff ff       	callq  76f3 <transparent_crc>
   1193f:	83 7d fc 00          	cmpl   $0x0,-0x4(%rbp)
   11943:	74 19                	je     1195e <main+0xf03>
   11945:	8b 55 f4             	mov    -0xc(%rbp),%edx
   11948:	8b 45 f0             	mov    -0x10(%rbp),%eax
   1194b:	89 c6                	mov    %eax,%esi
   1194d:	48 8d 3d c5 25 00 00 	lea    0x25c5(%rip),%rdi        # 13f19 <g_1114+0x1eb9>
   11954:	b8 00 00 00 00       	mov    $0x0,%eax
   11959:	e8 22 47 ff ff       	callq  6080 <printf@plt>
   1195e:	83 45 f4 01          	addl   $0x1,-0xc(%rbp)
   11962:	83 7d f4 03          	cmpl   $0x3,-0xc(%rbp)
   11966:	0f 8e ed fe ff ff    	jle    11859 <main+0xdfe>
   1196c:	83 45 f0 01          	addl   $0x1,-0x10(%rbp)
   11970:	83 7d f0 06          	cmpl   $0x6,-0x10(%rbp)
   11974:	0f 8e d3 fe ff ff    	jle    1184d <main+0xdf2>
   1197a:	c7 45 f0 00 00 00 00 	movl   $0x0,-0x10(%rbp)
   11981:	e9 1f 01 00 00       	jmpq   11aa5 <main+0x104a>
   11986:	c7 45 f4 00 00 00 00 	movl   $0x0,-0xc(%rbp)
   1198d:	e9 05 01 00 00       	jmpq   11a97 <main+0x103c>
   11992:	8b 45 f4             	mov    -0xc(%rbp),%eax
   11995:	48 98                	cltq   
   11997:	8b 55 f0             	mov    -0x10(%rbp),%edx
   1199a:	48 63 d2             	movslq %edx,%rdx
   1199d:	48 01 d2             	add    %rdx,%rdx
   119a0:	48 01 d0             	add    %rdx,%rax
   119a3:	48 8d 14 85 00 00 00 	lea    0x0(,%rax,4),%rdx
   119aa:	00 
   119ab:	48 8d 05 ae 68 00 00 	lea    0x68ae(%rip),%rax        # 18260 <g_957>
   119b2:	8b 04 02             	mov    (%rdx,%rax,1),%eax
   119b5:	89 c1                	mov    %eax,%ecx
   119b7:	8b 45 fc             	mov    -0x4(%rbp),%eax
   119ba:	89 c2                	mov    %eax,%edx
   119bc:	48 8d 35 b3 28 00 00 	lea    0x28b3(%rip),%rsi        # 14276 <g_1114+0x2216>
   119c3:	48 89 cf             	mov    %rcx,%rdi
   119c6:	e8 28 5d ff ff       	callq  76f3 <transparent_crc>
   119cb:	8b 45 f4             	mov    -0xc(%rbp),%eax
   119ce:	48 98                	cltq   
   119d0:	8b 55 f0             	mov    -0x10(%rbp),%edx
   119d3:	48 63 d2             	movslq %edx,%rdx
   119d6:	48 01 d2             	add    %rdx,%rdx
   119d9:	48 01 d0             	add    %rdx,%rax
   119dc:	48 8d 14 85 00 00 00 	lea    0x0(,%rax,4),%rdx
   119e3:	00 
   119e4:	48 8d 05 75 68 00 00 	lea    0x6875(%rip),%rax        # 18260 <g_957>
   119eb:	0f b7 04 02          	movzwl (%rdx,%rax,1),%eax
   119ef:	0f b7 c0             	movzwl %ax,%eax
   119f2:	8b 55 fc             	mov    -0x4(%rbp),%edx
   119f5:	48 8d 35 89 28 00 00 	lea    0x2889(%rip),%rsi        # 14285 <g_1114+0x2225>
   119fc:	48 89 c7             	mov    %rax,%rdi
   119ff:	e8 ef 5c ff ff       	callq  76f3 <transparent_crc>
   11a04:	8b 45 f4             	mov    -0xc(%rbp),%eax
   11a07:	48 98                	cltq   
   11a09:	8b 55 f0             	mov    -0x10(%rbp),%edx
   11a0c:	48 63 d2             	movslq %edx,%rdx
   11a0f:	48 01 d2             	add    %rdx,%rdx
   11a12:	48 01 d0             	add    %rdx,%rax
   11a15:	48 8d 14 85 00 00 00 	lea    0x0(,%rax,4),%rdx
   11a1c:	00 
   11a1d:	48 8d 05 3c 68 00 00 	lea    0x683c(%rip),%rax        # 18260 <g_957>
   11a24:	0f b6 04 02          	movzbl (%rdx,%rax,1),%eax
   11a28:	0f b6 c0             	movzbl %al,%eax
   11a2b:	8b 55 fc             	mov    -0x4(%rbp),%edx
   11a2e:	48 8d 35 5f 28 00 00 	lea    0x285f(%rip),%rsi        # 14294 <g_1114+0x2234>
   11a35:	48 89 c7             	mov    %rax,%rdi
   11a38:	e8 b6 5c ff ff       	callq  76f3 <transparent_crc>
   11a3d:	8b 45 f4             	mov    -0xc(%rbp),%eax
   11a40:	48 98                	cltq   
   11a42:	8b 55 f0             	mov    -0x10(%rbp),%edx
   11a45:	48 63 d2             	movslq %edx,%rdx
   11a48:	48 01 d2             	add    %rdx,%rdx
   11a4b:	48 01 d0             	add    %rdx,%rax
   11a4e:	48 8d 14 85 00 00 00 	lea    0x0(,%rax,4),%rdx
   11a55:	00 
   11a56:	48 8d 05 03 68 00 00 	lea    0x6803(%rip),%rax        # 18260 <g_957>
   11a5d:	8b 04 02             	mov    (%rdx,%rax,1),%eax
   11a60:	48 98                	cltq   
   11a62:	8b 55 fc             	mov    -0x4(%rbp),%edx
   11a65:	48 8d 35 37 28 00 00 	lea    0x2837(%rip),%rsi        # 142a3 <g_1114+0x2243>
   11a6c:	48 89 c7             	mov    %rax,%rdi
   11a6f:	e8 7f 5c ff ff       	callq  76f3 <transparent_crc>
   11a74:	83 7d fc 00          	cmpl   $0x0,-0x4(%rbp)
   11a78:	74 19                	je     11a93 <main+0x1038>
   11a7a:	8b 55 f4             	mov    -0xc(%rbp),%edx
   11a7d:	8b 45 f0             	mov    -0x10(%rbp),%eax
   11a80:	89 c6                	mov    %eax,%esi
   11a82:	48 8d 3d 90 24 00 00 	lea    0x2490(%rip),%rdi        # 13f19 <g_1114+0x1eb9>
   11a89:	b8 00 00 00 00       	mov    $0x0,%eax
   11a8e:	e8 ed 45 ff ff       	callq  6080 <printf@plt>
   11a93:	83 45 f4 01          	addl   $0x1,-0xc(%rbp)
   11a97:	83 7d f4 01          	cmpl   $0x1,-0xc(%rbp)
   11a9b:	0f 8e f1 fe ff ff    	jle    11992 <main+0xf37>
   11aa1:	83 45 f0 01          	addl   $0x1,-0x10(%rbp)
   11aa5:	83 7d f0 07          	cmpl   $0x7,-0x10(%rbp)
   11aa9:	0f 8e d7 fe ff ff    	jle    11986 <main+0xf2b>
   11aaf:	8b 05 cb 8e 00 00    	mov    0x8ecb(%rip),%eax        # 1a980 <g_958>
   11ab5:	89 c1                	mov    %eax,%ecx
   11ab7:	8b 45 fc             	mov    -0x4(%rbp),%eax
   11aba:	89 c2                	mov    %eax,%edx
   11abc:	48 8d 35 ef 27 00 00 	lea    0x27ef(%rip),%rsi        # 142b2 <g_1114+0x2252>
   11ac3:	48 89 cf             	mov    %rcx,%rdi
   11ac6:	e8 28 5c ff ff       	callq  76f3 <transparent_crc>
   11acb:	0f b7 05 ae 8e 00 00 	movzwl 0x8eae(%rip),%eax        # 1a980 <g_958>
   11ad2:	0f b7 c0             	movzwl %ax,%eax
   11ad5:	8b 55 fc             	mov    -0x4(%rbp),%edx
   11ad8:	48 8d 35 dc 27 00 00 	lea    0x27dc(%rip),%rsi        # 142bb <g_1114+0x225b>
   11adf:	48 89 c7             	mov    %rax,%rdi
   11ae2:	e8 0c 5c ff ff       	callq  76f3 <transparent_crc>
   11ae7:	0f b6 05 92 8e 00 00 	movzbl 0x8e92(%rip),%eax        # 1a980 <g_958>
   11aee:	0f b6 c0             	movzbl %al,%eax
   11af1:	8b 55 fc             	mov    -0x4(%rbp),%edx
   11af4:	48 8d 35 c9 27 00 00 	lea    0x27c9(%rip),%rsi        # 142c4 <g_1114+0x2264>
   11afb:	48 89 c7             	mov    %rax,%rdi
   11afe:	e8 f0 5b ff ff       	callq  76f3 <transparent_crc>
   11b03:	8b 05 77 8e 00 00    	mov    0x8e77(%rip),%eax        # 1a980 <g_958>
   11b09:	48 98                	cltq   
   11b0b:	8b 55 fc             	mov    -0x4(%rbp),%edx
   11b0e:	48 8d 35 b8 27 00 00 	lea    0x27b8(%rip),%rsi        # 142cd <g_1114+0x226d>
   11b15:	48 89 c7             	mov    %rax,%rdi
   11b18:	e8 d6 5b ff ff       	callq  76f3 <transparent_crc>
   11b1d:	b8 98 e0 a1 97       	mov    $0x97a1e098,%eax
   11b22:	48 98                	cltq   
   11b24:	8b 55 fc             	mov    -0x4(%rbp),%edx
   11b27:	48 8d 35 a8 27 00 00 	lea    0x27a8(%rip),%rsi        # 142d6 <g_1114+0x2276>
   11b2e:	48 89 c7             	mov    %rax,%rdi
   11b31:	e8 bd 5b ff ff       	callq  76f3 <transparent_crc>
   11b36:	48 8b 05 5b 8e 00 00 	mov    0x8e5b(%rip),%rax        # 1a998 <g_1058>
   11b3d:	48 89 c1             	mov    %rax,%rcx
   11b40:	8b 45 fc             	mov    -0x4(%rbp),%eax
   11b43:	89 c2                	mov    %eax,%edx
   11b45:	48 8d 35 90 27 00 00 	lea    0x2790(%rip),%rsi        # 142dc <g_1114+0x227c>
   11b4c:	48 89 cf             	mov    %rcx,%rdi
   11b4f:	e8 9f 5b ff ff       	callq  76f3 <transparent_crc>
   11b54:	0f b7 05 45 67 00 00 	movzwl 0x6745(%rip),%eax        # 182a0 <g_1205>
   11b5b:	48 0f bf c0          	movswq %ax,%rax
   11b5f:	8b 55 fc             	mov    -0x4(%rbp),%edx
   11b62:	48 8d 35 7a 27 00 00 	lea    0x277a(%rip),%rsi        # 142e3 <g_1114+0x2283>
   11b69:	48 89 c7             	mov    %rax,%rdi
   11b6c:	e8 82 5b ff ff       	callq  76f3 <transparent_crc>
   11b71:	0f b7 05 2c 67 00 00 	movzwl 0x672c(%rip),%eax        # 182a4 <g_1240>
   11b78:	48 0f bf c0          	movswq %ax,%rax
   11b7c:	8b 55 fc             	mov    -0x4(%rbp),%edx
   11b7f:	48 8d 35 67 27 00 00 	lea    0x2767(%rip),%rsi        # 142ed <g_1114+0x228d>
   11b86:	48 89 c7             	mov    %rax,%rdi
   11b89:	e8 65 5b ff ff       	callq  76f3 <transparent_crc>
   11b8e:	0f b6 05 13 67 00 00 	movzbl 0x6713(%rip),%eax        # 182a8 <g_1358>
   11b95:	0f b6 c0             	movzbl %al,%eax
   11b98:	8b 55 fc             	mov    -0x4(%rbp),%edx
   11b9b:	48 8d 35 55 27 00 00 	lea    0x2755(%rip),%rsi        # 142f7 <g_1114+0x2297>
   11ba2:	48 89 c7             	mov    %rax,%rdi
   11ba5:	e8 49 5b ff ff       	callq  76f3 <transparent_crc>
   11baa:	0f b7 05 fb 66 00 00 	movzwl 0x66fb(%rip),%eax        # 182ac <g_1362>
   11bb1:	48 0f bf c0          	movswq %ax,%rax
   11bb5:	8b 55 fc             	mov    -0x4(%rbp),%edx
   11bb8:	48 8d 35 3f 27 00 00 	lea    0x273f(%rip),%rsi        # 142fe <g_1114+0x229e>
   11bbf:	48 89 c7             	mov    %rax,%rdi
   11bc2:	e8 2c 5b ff ff       	callq  76f3 <transparent_crc>
   11bc7:	8b 05 e3 66 00 00    	mov    0x66e3(%rip),%eax        # 182b0 <g_1397>
   11bcd:	89 c1                	mov    %eax,%ecx
   11bcf:	8b 45 fc             	mov    -0x4(%rbp),%eax
   11bd2:	89 c2                	mov    %eax,%edx
   11bd4:	48 8d 35 2d 27 00 00 	lea    0x272d(%rip),%rsi        # 14308 <g_1114+0x22a8>
   11bdb:	48 89 cf             	mov    %rcx,%rdi
   11bde:	e8 10 5b ff ff       	callq  76f3 <transparent_crc>
   11be3:	8b 05 cb 66 00 00    	mov    0x66cb(%rip),%eax        # 182b4 <g_1473>
   11be9:	48 98                	cltq   
   11beb:	8b 55 fc             	mov    -0x4(%rbp),%edx
   11bee:	48 8d 35 1a 27 00 00 	lea    0x271a(%rip),%rsi        # 1430f <g_1114+0x22af>
   11bf5:	48 89 c7             	mov    %rax,%rdi
   11bf8:	e8 f6 5a ff ff       	callq  76f3 <transparent_crc>
   11bfd:	8b 05 b5 66 00 00    	mov    0x66b5(%rip),%eax        # 182b8 <g_1476>
   11c03:	89 c1                	mov    %eax,%ecx
   11c05:	8b 45 fc             	mov    -0x4(%rbp),%eax
   11c08:	89 c2                	mov    %eax,%edx
   11c0a:	48 8d 35 05 27 00 00 	lea    0x2705(%rip),%rsi        # 14316 <g_1114+0x22b6>
   11c11:	48 89 cf             	mov    %rcx,%rdi
   11c14:	e8 da 5a ff ff       	callq  76f3 <transparent_crc>
   11c19:	c7 45 f0 00 00 00 00 	movl   $0x0,-0x10(%rbp)
   11c20:	e9 92 00 00 00       	jmpq   11cb7 <main+0x125c>
   11c25:	c7 45 f4 00 00 00 00 	movl   $0x0,-0xc(%rbp)
   11c2c:	eb 7b                	jmp    11ca9 <main+0x124e>
   11c2e:	c7 45 f8 00 00 00 00 	movl   $0x0,-0x8(%rbp)
   11c35:	eb 68                	jmp    11c9f <main+0x1244>
   11c37:	8b 45 f8             	mov    -0x8(%rbp),%eax
   11c3a:	48 98                	cltq   
   11c3c:	8b 55 f0             	mov    -0x10(%rbp),%edx
   11c3f:	48 63 ca             	movslq %edx,%rcx
   11c42:	8b 55 f4             	mov    -0xc(%rbp),%edx
   11c45:	48 63 d2             	movslq %edx,%rdx
   11c48:	48 01 c9             	add    %rcx,%rcx
   11c4b:	48 01 ca             	add    %rcx,%rdx
   11c4e:	48 01 d2             	add    %rdx,%rdx
   11c51:	48 01 d0             	add    %rdx,%rax
   11c54:	48 8d 14 00          	lea    (%rax,%rax,1),%rdx
   11c58:	48 8d 05 61 66 00 00 	lea    0x6661(%rip),%rax        # 182c0 <g_1479>
   11c5f:	0f b7 04 02          	movzwl (%rdx,%rax,1),%eax
   11c63:	48 0f bf c0          	movswq %ax,%rax
   11c67:	8b 55 fc             	mov    -0x4(%rbp),%edx
   11c6a:	48 8d 35 ac 26 00 00 	lea    0x26ac(%rip),%rsi        # 1431d <g_1114+0x22bd>
   11c71:	48 89 c7             	mov    %rax,%rdi
   11c74:	e8 7a 5a ff ff       	callq  76f3 <transparent_crc>
   11c79:	83 7d fc 00          	cmpl   $0x0,-0x4(%rbp)
   11c7d:	74 1c                	je     11c9b <main+0x1240>
   11c7f:	8b 4d f8             	mov    -0x8(%rbp),%ecx
   11c82:	8b 55 f4             	mov    -0xc(%rbp),%edx
   11c85:	8b 45 f0             	mov    -0x10(%rbp),%eax
   11c88:	89 c6                	mov    %eax,%esi
   11c8a:	48 8d 3d 35 23 00 00 	lea    0x2335(%rip),%rdi        # 13fc6 <g_1114+0x1f66>
   11c91:	b8 00 00 00 00       	mov    $0x0,%eax
   11c96:	e8 e5 43 ff ff       	callq  6080 <printf@plt>
   11c9b:	83 45 f8 01          	addl   $0x1,-0x8(%rbp)
   11c9f:	83 7d f8 01          	cmpl   $0x1,-0x8(%rbp)
   11ca3:	7e 92                	jle    11c37 <main+0x11dc>
   11ca5:	83 45 f4 01          	addl   $0x1,-0xc(%rbp)
   11ca9:	83 7d f4 01          	cmpl   $0x1,-0xc(%rbp)
   11cad:	0f 8e 7b ff ff ff    	jle    11c2e <main+0x11d3>
   11cb3:	83 45 f0 01          	addl   $0x1,-0x10(%rbp)
   11cb7:	83 7d f0 00          	cmpl   $0x0,-0x10(%rbp)
   11cbb:	0f 8e 64 ff ff ff    	jle    11c25 <main+0x11ca>
   11cc1:	8b 05 39 8d 00 00    	mov    0x8d39(%rip),%eax        # 1aa00 <g_1516>
   11cc7:	89 c1                	mov    %eax,%ecx
   11cc9:	8b 45 fc             	mov    -0x4(%rbp),%eax
   11ccc:	89 c2                	mov    %eax,%edx
   11cce:	48 8d 35 58 26 00 00 	lea    0x2658(%rip),%rsi        # 1432d <g_1114+0x22cd>
   11cd5:	48 89 cf             	mov    %rcx,%rdi
   11cd8:	e8 16 5a ff ff       	callq  76f3 <transparent_crc>
   11cdd:	8b 05 3d 63 00 00    	mov    0x633d(%rip),%eax        # 18020 <crc32_context>
   11ce3:	f7 d0                	not    %eax
   11ce5:	89 c2                	mov    %eax,%edx
   11ce7:	8b 45 fc             	mov    -0x4(%rbp),%eax
   11cea:	89 c6                	mov    %eax,%esi
   11cec:	89 d7                	mov    %edx,%edi
   11cee:	e8 a1 44 ff ff       	callq  6194 <platform_main_end>
   11cf3:	b8 00 00 00 00       	mov    $0x0,%eax
   11cf8:	c9                   	leaveq 
   11cf9:	c3                   	retq   
   11cfa:	66 0f 1f 44 00 00    	nopw   0x0(%rax,%rax,1)

0000000000011d00 <__libc_csu_init>:
   11d00:	f3 0f 1e fa          	endbr64 
   11d04:	41 57                	push   %r15
   11d06:	4c 8d 3d 43 58 00 00 	lea    0x5843(%rip),%r15        # 17550 <__frame_dummy_init_array_entry>
   11d0d:	41 56                	push   %r14
   11d0f:	49 89 d6             	mov    %rdx,%r14
   11d12:	41 55                	push   %r13
   11d14:	49 89 f5             	mov    %rsi,%r13
   11d17:	41 54                	push   %r12
   11d19:	41 89 fc             	mov    %edi,%r12d
   11d1c:	55                   	push   %rbp
   11d1d:	48 8d 2d 34 58 00 00 	lea    0x5834(%rip),%rbp        # 17558 <__do_global_dtors_aux_fini_array_entry>
   11d24:	53                   	push   %rbx
   11d25:	4c 29 fd             	sub    %r15,%rbp
   11d28:	48 83 ec 08          	sub    $0x8,%rsp
   11d2c:	e8 cf 42 ff ff       	callq  6000 <_init>
   11d31:	48 c1 fd 03          	sar    $0x3,%rbp
   11d35:	74 1f                	je     11d56 <__libc_csu_init+0x56>
   11d37:	31 db                	xor    %ebx,%ebx
   11d39:	0f 1f 80 00 00 00 00 	nopl   0x0(%rax)
   11d40:	4c 89 f2             	mov    %r14,%rdx
   11d43:	4c 89 ee             	mov    %r13,%rsi
   11d46:	44 89 e7             	mov    %r12d,%edi
   11d49:	41 ff 14 df          	callq  *(%r15,%rbx,8)
   11d4d:	48 83 c3 01          	add    $0x1,%rbx
   11d51:	48 39 dd             	cmp    %rbx,%rbp
   11d54:	75 ea                	jne    11d40 <__libc_csu_init+0x40>
   11d56:	48 83 c4 08          	add    $0x8,%rsp
   11d5a:	5b                   	pop    %rbx
   11d5b:	5d                   	pop    %rbp
   11d5c:	41 5c                	pop    %r12
   11d5e:	41 5d                	pop    %r13
   11d60:	41 5e                	pop    %r14
   11d62:	41 5f                	pop    %r15
   11d64:	c3                   	retq   
   11d65:	66 66 2e 0f 1f 84 00 	data16 nopw %cs:0x0(%rax,%rax,1)
   11d6c:	00 00 00 00 

0000000000011d70 <__libc_csu_fini>:
   11d70:	f3 0f 1e fa          	endbr64 
   11d74:	c3                   	retq   
