


Disassembly of section .text:

00000000000090a0 <_start>:
    90a0:	f3 0f 1e fa          	endbr64 
    90a4:	31 ed                	xor    %ebp,%ebp
    90a6:	49 89 d1             	mov    %rdx,%r9
    90a9:	5e                   	pop    %rsi
    90aa:	48 89 e2             	mov    %rsp,%rdx
    90ad:	48 83 e4 f0          	and    $0xfffffffffffffff0,%rsp
    90b1:	50                   	push   %rax
    90b2:	54                   	push   %rsp
    90b3:	4c 8d 05 56 85 00 00 	lea    0x8556(%rip),%r8        # 11610 <__libc_csu_fini>
    90ba:	48 8d 0d df 84 00 00 	lea    0x84df(%rip),%rcx        # 115a0 <__libc_csu_init>
    90c1:	48 8d 3d 99 73 00 00 	lea    0x7399(%rip),%rdi        # 10461 <main>
    90c8:	ff 15 12 cf 00 00    	callq  *0xcf12(%rip)        # 15fe0 <__libc_start_main@GLIBC_2.2.5>
    90ce:	f4                   	hlt    
    90cf:	90                   	nop

00000000000090d0 <deregister_tm_clones>:
    90d0:	48 8d 3d 01 21 01 00 	lea    0x12101(%rip),%rdi        # 1b1d8 <__TMC_END__>
    90d7:	48 8d 05 fa 20 01 00 	lea    0x120fa(%rip),%rax        # 1b1d8 <__TMC_END__>
    90de:	48 39 f8             	cmp    %rdi,%rax
    90e1:	74 15                	je     90f8 <deregister_tm_clones+0x28>
    90e3:	48 8b 05 ee ce 00 00 	mov    0xceee(%rip),%rax        # 15fd8 <_ITM_deregisterTMCloneTable>
    90ea:	48 85 c0             	test   %rax,%rax
    90ed:	74 09                	je     90f8 <deregister_tm_clones+0x28>
    90ef:	ff e0                	jmpq   *%rax
    90f1:	0f 1f 80 00 00 00 00 	nopl   0x0(%rax)
    90f8:	c3                   	retq   
    90f9:	0f 1f 80 00 00 00 00 	nopl   0x0(%rax)

0000000000009100 <register_tm_clones>:
    9100:	48 8d 3d d1 20 01 00 	lea    0x120d1(%rip),%rdi        # 1b1d8 <__TMC_END__>
    9107:	48 8d 35 ca 20 01 00 	lea    0x120ca(%rip),%rsi        # 1b1d8 <__TMC_END__>
    910e:	48 29 fe             	sub    %rdi,%rsi
    9111:	48 89 f0             	mov    %rsi,%rax
    9114:	48 c1 ee 3f          	shr    $0x3f,%rsi
    9118:	48 c1 f8 03          	sar    $0x3,%rax
    911c:	48 01 c6             	add    %rax,%rsi
    911f:	48 d1 fe             	sar    %rsi
    9122:	74 14                	je     9138 <register_tm_clones+0x38>
    9124:	48 8b 05 c5 ce 00 00 	mov    0xcec5(%rip),%rax        # 15ff0 <_ITM_registerTMCloneTable>
    912b:	48 85 c0             	test   %rax,%rax
    912e:	74 08                	je     9138 <register_tm_clones+0x38>
    9130:	ff e0                	jmpq   *%rax
    9132:	66 0f 1f 44 00 00    	nopw   0x0(%rax,%rax,1)
    9138:	c3                   	retq   
    9139:	0f 1f 80 00 00 00 00 	nopl   0x0(%rax)

0000000000009140 <__do_global_dtors_aux>:
    9140:	f3 0f 1e fa          	endbr64 
    9144:	80 3d 95 20 01 00 00 	cmpb   $0x0,0x12095(%rip)        # 1b1e0 <completed.8061>
    914b:	75 2b                	jne    9178 <__do_global_dtors_aux+0x38>
    914d:	55                   	push   %rbp
    914e:	48 83 3d a2 ce 00 00 	cmpq   $0x0,0xcea2(%rip)        # 15ff8 <__cxa_finalize@GLIBC_2.2.5>
    9155:	00 
    9156:	48 89 e5             	mov    %rsp,%rbp
    9159:	74 0c                	je     9167 <__do_global_dtors_aux+0x27>
    915b:	48 8b 3d a6 ce 00 00 	mov    0xcea6(%rip),%rdi        # 16008 <__dso_handle>
    9162:	e8 f9 fe ff ff       	callq  9060 <__cxa_finalize@plt>
    9167:	e8 64 ff ff ff       	callq  90d0 <deregister_tm_clones>
    916c:	c6 05 6d 20 01 00 01 	movb   $0x1,0x1206d(%rip)        # 1b1e0 <completed.8061>
    9173:	5d                   	pop    %rbp
    9174:	c3                   	retq   
    9175:	0f 1f 00             	nopl   (%rax)
    9178:	c3                   	retq   
    9179:	0f 1f 80 00 00 00 00 	nopl   0x0(%rax)

0000000000009180 <frame_dummy>:
    9180:	f3 0f 1e fa          	endbr64 
    9184:	e9 77 ff ff ff       	jmpq   9100 <register_tm_clones>

0000000000009189 <platform_main_begin>:
    9189:	f3 0f 1e fa          	endbr64 
    918d:	55                   	push   %rbp
    918e:	48 89 e5             	mov    %rsp,%rbp
    9191:	90                   	nop
    9192:	5d                   	pop    %rbp
    9193:	c3                   	retq   

0000000000009194 <platform_main_end>:
    9194:	f3 0f 1e fa          	endbr64 
    9198:	55                   	push   %rbp
    9199:	48 89 e5             	mov    %rsp,%rbp
    919c:	48 83 ec 10          	sub    $0x10,%rsp
    91a0:	89 7d fc             	mov    %edi,-0x4(%rbp)
    91a3:	89 75 f8             	mov    %esi,-0x8(%rbp)
    91a6:	8b 45 fc             	mov    -0x4(%rbp),%eax
    91a9:	89 c6                	mov    %eax,%esi
    91ab:	48 8d 3d 6e 8e 00 00 	lea    0x8e6e(%rip),%rdi        # 12020 <_IO_stdin_used+0x20>
    91b2:	b8 00 00 00 00       	mov    $0x0,%eax
    91b7:	e8 c4 fe ff ff       	callq  9080 <printf@plt>
    91bc:	90                   	nop
    91bd:	c9                   	leaveq 
    91be:	c3                   	retq   

00000000000091bf <safe_unary_minus_func_int8_t_s>:
    91bf:	f3 0f 1e fa          	endbr64 
    91c3:	55                   	push   %rbp
    91c4:	48 89 e5             	mov    %rsp,%rbp
    91c7:	89 f8                	mov    %edi,%eax
    91c9:	88 45 fc             	mov    %al,-0x4(%rbp)
    91cc:	0f b6 45 fc          	movzbl -0x4(%rbp),%eax
    91d0:	f7 d8                	neg    %eax
    91d2:	5d                   	pop    %rbp
    91d3:	c3                   	retq   

00000000000091d4 <safe_add_func_int8_t_s_s>:
    91d4:	f3 0f 1e fa          	endbr64 
    91d8:	55                   	push   %rbp
    91d9:	48 89 e5             	mov    %rsp,%rbp
    91dc:	89 fa                	mov    %edi,%edx
    91de:	89 f0                	mov    %esi,%eax
    91e0:	88 55 fc             	mov    %dl,-0x4(%rbp)
    91e3:	88 45 f8             	mov    %al,-0x8(%rbp)
    91e6:	0f b6 55 fc          	movzbl -0x4(%rbp),%edx
    91ea:	0f b6 45 f8          	movzbl -0x8(%rbp),%eax
    91ee:	01 d0                	add    %edx,%eax
    91f0:	5d                   	pop    %rbp
    91f1:	c3                   	retq   

00000000000091f2 <safe_sub_func_int8_t_s_s>:
    91f2:	f3 0f 1e fa          	endbr64 
    91f6:	55                   	push   %rbp
    91f7:	48 89 e5             	mov    %rsp,%rbp
    91fa:	89 fa                	mov    %edi,%edx
    91fc:	89 f0                	mov    %esi,%eax
    91fe:	88 55 fc             	mov    %dl,-0x4(%rbp)
    9201:	88 45 f8             	mov    %al,-0x8(%rbp)
    9204:	0f b6 55 fc          	movzbl -0x4(%rbp),%edx
    9208:	0f b6 45 f8          	movzbl -0x8(%rbp),%eax
    920c:	29 c2                	sub    %eax,%edx
    920e:	89 d0                	mov    %edx,%eax
    9210:	5d                   	pop    %rbp
    9211:	c3                   	retq   

0000000000009212 <safe_mul_func_int8_t_s_s>:
    9212:	f3 0f 1e fa          	endbr64 
    9216:	55                   	push   %rbp
    9217:	48 89 e5             	mov    %rsp,%rbp
    921a:	89 fa                	mov    %edi,%edx
    921c:	89 f0                	mov    %esi,%eax
    921e:	88 55 fc             	mov    %dl,-0x4(%rbp)
    9221:	88 45 f8             	mov    %al,-0x8(%rbp)
    9224:	0f b6 45 fc          	movzbl -0x4(%rbp),%eax
    9228:	0f b6 55 f8          	movzbl -0x8(%rbp),%edx
    922c:	0f af c2             	imul   %edx,%eax
    922f:	5d                   	pop    %rbp
    9230:	c3                   	retq   

0000000000009231 <safe_mod_func_int8_t_s_s>:
    9231:	f3 0f 1e fa          	endbr64 
    9235:	55                   	push   %rbp
    9236:	48 89 e5             	mov    %rsp,%rbp
    9239:	89 fa                	mov    %edi,%edx
    923b:	89 f0                	mov    %esi,%eax
    923d:	88 55 fc             	mov    %dl,-0x4(%rbp)
    9240:	88 45 f8             	mov    %al,-0x8(%rbp)
    9243:	80 7d f8 00          	cmpb   $0x0,-0x8(%rbp)
    9247:	74 1b                	je     9264 <safe_mod_func_int8_t_s_s+0x33>
    9249:	80 7d fc 80          	cmpb   $0x80,-0x4(%rbp)
    924d:	75 06                	jne    9255 <safe_mod_func_int8_t_s_s+0x24>
    924f:	80 7d f8 ff          	cmpb   $0xff,-0x8(%rbp)
    9253:	74 0f                	je     9264 <safe_mod_func_int8_t_s_s+0x33>
    9255:	0f be 45 fc          	movsbl -0x4(%rbp),%eax
    9259:	0f be 4d f8          	movsbl -0x8(%rbp),%ecx
    925d:	99                   	cltd   
    925e:	f7 f9                	idiv   %ecx
    9260:	89 d0                	mov    %edx,%eax
    9262:	eb 04                	jmp    9268 <safe_mod_func_int8_t_s_s+0x37>
    9264:	0f b6 45 fc          	movzbl -0x4(%rbp),%eax
    9268:	5d                   	pop    %rbp
    9269:	c3                   	retq   

000000000000926a <safe_div_func_int8_t_s_s>:
    926a:	f3 0f 1e fa          	endbr64 
    926e:	55                   	push   %rbp
    926f:	48 89 e5             	mov    %rsp,%rbp
    9272:	89 fa                	mov    %edi,%edx
    9274:	89 f0                	mov    %esi,%eax
    9276:	88 55 fc             	mov    %dl,-0x4(%rbp)
    9279:	88 45 f8             	mov    %al,-0x8(%rbp)
    927c:	80 7d f8 00          	cmpb   $0x0,-0x8(%rbp)
    9280:	74 19                	je     929b <safe_div_func_int8_t_s_s+0x31>
    9282:	80 7d fc 80          	cmpb   $0x80,-0x4(%rbp)
    9286:	75 06                	jne    928e <safe_div_func_int8_t_s_s+0x24>
    9288:	80 7d f8 ff          	cmpb   $0xff,-0x8(%rbp)
    928c:	74 0d                	je     929b <safe_div_func_int8_t_s_s+0x31>
    928e:	0f be 45 fc          	movsbl -0x4(%rbp),%eax
    9292:	0f be 4d f8          	movsbl -0x8(%rbp),%ecx
    9296:	99                   	cltd   
    9297:	f7 f9                	idiv   %ecx
    9299:	eb 04                	jmp    929f <safe_div_func_int8_t_s_s+0x35>
    929b:	0f b6 45 fc          	movzbl -0x4(%rbp),%eax
    929f:	5d                   	pop    %rbp
    92a0:	c3                   	retq   

00000000000092a1 <safe_lshift_func_int8_t_s_s>:
    92a1:	f3 0f 1e fa          	endbr64 
    92a5:	55                   	push   %rbp
    92a6:	48 89 e5             	mov    %rsp,%rbp
    92a9:	89 f8                	mov    %edi,%eax
    92ab:	89 75 f8             	mov    %esi,-0x8(%rbp)
    92ae:	88 45 fc             	mov    %al,-0x4(%rbp)
    92b1:	80 7d fc 00          	cmpb   $0x0,-0x4(%rbp)
    92b5:	78 31                	js     92e8 <safe_lshift_func_int8_t_s_s+0x47>
    92b7:	83 7d f8 00          	cmpl   $0x0,-0x8(%rbp)
    92bb:	78 2b                	js     92e8 <safe_lshift_func_int8_t_s_s+0x47>
    92bd:	83 7d f8 1f          	cmpl   $0x1f,-0x8(%rbp)
    92c1:	7f 25                	jg     92e8 <safe_lshift_func_int8_t_s_s+0x47>
    92c3:	0f be 55 fc          	movsbl -0x4(%rbp),%edx
    92c7:	8b 45 f8             	mov    -0x8(%rbp),%eax
    92ca:	be 7f 00 00 00       	mov    $0x7f,%esi
    92cf:	89 c1                	mov    %eax,%ecx
    92d1:	d3 fe                	sar    %cl,%esi
    92d3:	89 f0                	mov    %esi,%eax
    92d5:	39 c2                	cmp    %eax,%edx
    92d7:	7f 0f                	jg     92e8 <safe_lshift_func_int8_t_s_s+0x47>
    92d9:	0f be 55 fc          	movsbl -0x4(%rbp),%edx
    92dd:	8b 45 f8             	mov    -0x8(%rbp),%eax
    92e0:	89 c1                	mov    %eax,%ecx
    92e2:	d3 e2                	shl    %cl,%edx
    92e4:	89 d0                	mov    %edx,%eax
    92e6:	eb 04                	jmp    92ec <safe_lshift_func_int8_t_s_s+0x4b>
    92e8:	0f b6 45 fc          	movzbl -0x4(%rbp),%eax
    92ec:	5d                   	pop    %rbp
    92ed:	c3                   	retq   

00000000000092ee <safe_lshift_func_int8_t_s_u>:
    92ee:	f3 0f 1e fa          	endbr64 
    92f2:	55                   	push   %rbp
    92f3:	48 89 e5             	mov    %rsp,%rbp
    92f6:	89 f8                	mov    %edi,%eax
    92f8:	89 75 f8             	mov    %esi,-0x8(%rbp)
    92fb:	88 45 fc             	mov    %al,-0x4(%rbp)
    92fe:	80 7d fc 00          	cmpb   $0x0,-0x4(%rbp)
    9302:	78 2b                	js     932f <safe_lshift_func_int8_t_s_u+0x41>
    9304:	83 7d f8 1f          	cmpl   $0x1f,-0x8(%rbp)
    9308:	77 25                	ja     932f <safe_lshift_func_int8_t_s_u+0x41>
    930a:	0f be 55 fc          	movsbl -0x4(%rbp),%edx
    930e:	8b 45 f8             	mov    -0x8(%rbp),%eax
    9311:	be 7f 00 00 00       	mov    $0x7f,%esi
    9316:	89 c1                	mov    %eax,%ecx
    9318:	d3 fe                	sar    %cl,%esi
    931a:	89 f0                	mov    %esi,%eax
    931c:	39 c2                	cmp    %eax,%edx
    931e:	7f 0f                	jg     932f <safe_lshift_func_int8_t_s_u+0x41>
    9320:	0f be 55 fc          	movsbl -0x4(%rbp),%edx
    9324:	8b 45 f8             	mov    -0x8(%rbp),%eax
    9327:	89 c1                	mov    %eax,%ecx
    9329:	d3 e2                	shl    %cl,%edx
    932b:	89 d0                	mov    %edx,%eax
    932d:	eb 04                	jmp    9333 <safe_lshift_func_int8_t_s_u+0x45>
    932f:	0f b6 45 fc          	movzbl -0x4(%rbp),%eax
    9333:	5d                   	pop    %rbp
    9334:	c3                   	retq   

0000000000009335 <safe_rshift_func_int8_t_s_s>:
    9335:	f3 0f 1e fa          	endbr64 
    9339:	55                   	push   %rbp
    933a:	48 89 e5             	mov    %rsp,%rbp
    933d:	89 f8                	mov    %edi,%eax
    933f:	89 75 f8             	mov    %esi,-0x8(%rbp)
    9342:	88 45 fc             	mov    %al,-0x4(%rbp)
    9345:	80 7d fc 00          	cmpb   $0x0,-0x4(%rbp)
    9349:	78 1b                	js     9366 <safe_rshift_func_int8_t_s_s+0x31>
    934b:	83 7d f8 00          	cmpl   $0x0,-0x8(%rbp)
    934f:	78 15                	js     9366 <safe_rshift_func_int8_t_s_s+0x31>
    9351:	83 7d f8 1f          	cmpl   $0x1f,-0x8(%rbp)
    9355:	7f 0f                	jg     9366 <safe_rshift_func_int8_t_s_s+0x31>
    9357:	0f be 55 fc          	movsbl -0x4(%rbp),%edx
    935b:	8b 45 f8             	mov    -0x8(%rbp),%eax
    935e:	89 c1                	mov    %eax,%ecx
    9360:	d3 fa                	sar    %cl,%edx
    9362:	89 d0                	mov    %edx,%eax
    9364:	eb 04                	jmp    936a <safe_rshift_func_int8_t_s_s+0x35>
    9366:	0f b6 45 fc          	movzbl -0x4(%rbp),%eax
    936a:	5d                   	pop    %rbp
    936b:	c3                   	retq   

000000000000936c <safe_rshift_func_int8_t_s_u>:
    936c:	f3 0f 1e fa          	endbr64 
    9370:	55                   	push   %rbp
    9371:	48 89 e5             	mov    %rsp,%rbp
    9374:	89 f8                	mov    %edi,%eax
    9376:	89 75 f8             	mov    %esi,-0x8(%rbp)
    9379:	88 45 fc             	mov    %al,-0x4(%rbp)
    937c:	80 7d fc 00          	cmpb   $0x0,-0x4(%rbp)
    9380:	78 15                	js     9397 <safe_rshift_func_int8_t_s_u+0x2b>
    9382:	83 7d f8 1f          	cmpl   $0x1f,-0x8(%rbp)
    9386:	77 0f                	ja     9397 <safe_rshift_func_int8_t_s_u+0x2b>
    9388:	0f be 55 fc          	movsbl -0x4(%rbp),%edx
    938c:	8b 45 f8             	mov    -0x8(%rbp),%eax
    938f:	89 c1                	mov    %eax,%ecx
    9391:	d3 fa                	sar    %cl,%edx
    9393:	89 d0                	mov    %edx,%eax
    9395:	eb 04                	jmp    939b <safe_rshift_func_int8_t_s_u+0x2f>
    9397:	0f b6 45 fc          	movzbl -0x4(%rbp),%eax
    939b:	5d                   	pop    %rbp
    939c:	c3                   	retq   

000000000000939d <safe_unary_minus_func_int16_t_s>:
    939d:	f3 0f 1e fa          	endbr64 
    93a1:	55                   	push   %rbp
    93a2:	48 89 e5             	mov    %rsp,%rbp
    93a5:	89 f8                	mov    %edi,%eax
    93a7:	66 89 45 fc          	mov    %ax,-0x4(%rbp)
    93ab:	0f b7 45 fc          	movzwl -0x4(%rbp),%eax
    93af:	f7 d8                	neg    %eax
    93b1:	5d                   	pop    %rbp
    93b2:	c3                   	retq   

00000000000093b3 <safe_add_func_int16_t_s_s>:
    93b3:	f3 0f 1e fa          	endbr64 
    93b7:	55                   	push   %rbp
    93b8:	48 89 e5             	mov    %rsp,%rbp
    93bb:	89 fa                	mov    %edi,%edx
    93bd:	89 f0                	mov    %esi,%eax
    93bf:	66 89 55 fc          	mov    %dx,-0x4(%rbp)
    93c3:	66 89 45 f8          	mov    %ax,-0x8(%rbp)
    93c7:	0f b7 55 fc          	movzwl -0x4(%rbp),%edx
    93cb:	0f b7 45 f8          	movzwl -0x8(%rbp),%eax
    93cf:	01 d0                	add    %edx,%eax
    93d1:	5d                   	pop    %rbp
    93d2:	c3                   	retq   

00000000000093d3 <safe_sub_func_int16_t_s_s>:
    93d3:	f3 0f 1e fa          	endbr64 
    93d7:	55                   	push   %rbp
    93d8:	48 89 e5             	mov    %rsp,%rbp
    93db:	89 fa                	mov    %edi,%edx
    93dd:	89 f0                	mov    %esi,%eax
    93df:	66 89 55 fc          	mov    %dx,-0x4(%rbp)
    93e3:	66 89 45 f8          	mov    %ax,-0x8(%rbp)
    93e7:	0f b7 55 fc          	movzwl -0x4(%rbp),%edx
    93eb:	0f b7 45 f8          	movzwl -0x8(%rbp),%eax
    93ef:	29 c2                	sub    %eax,%edx
    93f1:	89 d0                	mov    %edx,%eax
    93f3:	5d                   	pop    %rbp
    93f4:	c3                   	retq   

00000000000093f5 <safe_mul_func_int16_t_s_s>:
    93f5:	f3 0f 1e fa          	endbr64 
    93f9:	55                   	push   %rbp
    93fa:	48 89 e5             	mov    %rsp,%rbp
    93fd:	89 fa                	mov    %edi,%edx
    93ff:	89 f0                	mov    %esi,%eax
    9401:	66 89 55 fc          	mov    %dx,-0x4(%rbp)
    9405:	66 89 45 f8          	mov    %ax,-0x8(%rbp)
    9409:	0f b7 55 fc          	movzwl -0x4(%rbp),%edx
    940d:	0f b7 45 f8          	movzwl -0x8(%rbp),%eax
    9411:	0f af c2             	imul   %edx,%eax
    9414:	5d                   	pop    %rbp
    9415:	c3                   	retq   

0000000000009416 <safe_mod_func_int16_t_s_s>:
    9416:	f3 0f 1e fa          	endbr64 
    941a:	55                   	push   %rbp
    941b:	48 89 e5             	mov    %rsp,%rbp
    941e:	89 fa                	mov    %edi,%edx
    9420:	89 f0                	mov    %esi,%eax
    9422:	66 89 55 fc          	mov    %dx,-0x4(%rbp)
    9426:	66 89 45 f8          	mov    %ax,-0x8(%rbp)
    942a:	66 83 7d f8 00       	cmpw   $0x0,-0x8(%rbp)
    942f:	74 1e                	je     944f <safe_mod_func_int16_t_s_s+0x39>
    9431:	66 81 7d fc 00 80    	cmpw   $0x8000,-0x4(%rbp)
    9437:	75 07                	jne    9440 <safe_mod_func_int16_t_s_s+0x2a>
    9439:	66 83 7d f8 ff       	cmpw   $0xffff,-0x8(%rbp)
    943e:	74 0f                	je     944f <safe_mod_func_int16_t_s_s+0x39>
    9440:	0f bf 45 fc          	movswl -0x4(%rbp),%eax
    9444:	0f bf 4d f8          	movswl -0x8(%rbp),%ecx
    9448:	99                   	cltd   
    9449:	f7 f9                	idiv   %ecx
    944b:	89 d0                	mov    %edx,%eax
    944d:	eb 04                	jmp    9453 <safe_mod_func_int16_t_s_s+0x3d>
    944f:	0f b7 45 fc          	movzwl -0x4(%rbp),%eax
    9453:	5d                   	pop    %rbp
    9454:	c3                   	retq   

0000000000009455 <safe_div_func_int16_t_s_s>:
    9455:	f3 0f 1e fa          	endbr64 
    9459:	55                   	push   %rbp
    945a:	48 89 e5             	mov    %rsp,%rbp
    945d:	89 fa                	mov    %edi,%edx
    945f:	89 f0                	mov    %esi,%eax
    9461:	66 89 55 fc          	mov    %dx,-0x4(%rbp)
    9465:	66 89 45 f8          	mov    %ax,-0x8(%rbp)
    9469:	66 83 7d f8 00       	cmpw   $0x0,-0x8(%rbp)
    946e:	74 1c                	je     948c <safe_div_func_int16_t_s_s+0x37>
    9470:	66 81 7d fc 00 80    	cmpw   $0x8000,-0x4(%rbp)
    9476:	75 07                	jne    947f <safe_div_func_int16_t_s_s+0x2a>
    9478:	66 83 7d f8 ff       	cmpw   $0xffff,-0x8(%rbp)
    947d:	74 0d                	je     948c <safe_div_func_int16_t_s_s+0x37>
    947f:	0f bf 45 fc          	movswl -0x4(%rbp),%eax
    9483:	0f bf 4d f8          	movswl -0x8(%rbp),%ecx
    9487:	99                   	cltd   
    9488:	f7 f9                	idiv   %ecx
    948a:	eb 04                	jmp    9490 <safe_div_func_int16_t_s_s+0x3b>
    948c:	0f b7 45 fc          	movzwl -0x4(%rbp),%eax
    9490:	5d                   	pop    %rbp
    9491:	c3                   	retq   

0000000000009492 <safe_lshift_func_int16_t_s_s>:
    9492:	f3 0f 1e fa          	endbr64 
    9496:	55                   	push   %rbp
    9497:	48 89 e5             	mov    %rsp,%rbp
    949a:	89 f8                	mov    %edi,%eax
    949c:	89 75 f8             	mov    %esi,-0x8(%rbp)
    949f:	66 89 45 fc          	mov    %ax,-0x4(%rbp)
    94a3:	66 83 7d fc 00       	cmpw   $0x0,-0x4(%rbp)
    94a8:	78 31                	js     94db <safe_lshift_func_int16_t_s_s+0x49>
    94aa:	83 7d f8 00          	cmpl   $0x0,-0x8(%rbp)
    94ae:	78 2b                	js     94db <safe_lshift_func_int16_t_s_s+0x49>
    94b0:	83 7d f8 1f          	cmpl   $0x1f,-0x8(%rbp)
    94b4:	7f 25                	jg     94db <safe_lshift_func_int16_t_s_s+0x49>
    94b6:	0f bf 55 fc          	movswl -0x4(%rbp),%edx
    94ba:	8b 45 f8             	mov    -0x8(%rbp),%eax
    94bd:	be ff 7f 00 00       	mov    $0x7fff,%esi
    94c2:	89 c1                	mov    %eax,%ecx
    94c4:	d3 fe                	sar    %cl,%esi
    94c6:	89 f0                	mov    %esi,%eax
    94c8:	39 c2                	cmp    %eax,%edx
    94ca:	7f 0f                	jg     94db <safe_lshift_func_int16_t_s_s+0x49>
    94cc:	0f bf 55 fc          	movswl -0x4(%rbp),%edx
    94d0:	8b 45 f8             	mov    -0x8(%rbp),%eax
    94d3:	89 c1                	mov    %eax,%ecx
    94d5:	d3 e2                	shl    %cl,%edx
    94d7:	89 d0                	mov    %edx,%eax
    94d9:	eb 04                	jmp    94df <safe_lshift_func_int16_t_s_s+0x4d>
    94db:	0f b7 45 fc          	movzwl -0x4(%rbp),%eax
    94df:	5d                   	pop    %rbp
    94e0:	c3                   	retq   

00000000000094e1 <safe_lshift_func_int16_t_s_u>:
    94e1:	f3 0f 1e fa          	endbr64 
    94e5:	55                   	push   %rbp
    94e6:	48 89 e5             	mov    %rsp,%rbp
    94e9:	89 f8                	mov    %edi,%eax
    94eb:	89 75 f8             	mov    %esi,-0x8(%rbp)
    94ee:	66 89 45 fc          	mov    %ax,-0x4(%rbp)
    94f2:	66 83 7d fc 00       	cmpw   $0x0,-0x4(%rbp)
    94f7:	78 2b                	js     9524 <safe_lshift_func_int16_t_s_u+0x43>
    94f9:	83 7d f8 1f          	cmpl   $0x1f,-0x8(%rbp)
    94fd:	77 25                	ja     9524 <safe_lshift_func_int16_t_s_u+0x43>
    94ff:	0f bf 55 fc          	movswl -0x4(%rbp),%edx
    9503:	8b 45 f8             	mov    -0x8(%rbp),%eax
    9506:	be ff 7f 00 00       	mov    $0x7fff,%esi
    950b:	89 c1                	mov    %eax,%ecx
    950d:	d3 fe                	sar    %cl,%esi
    950f:	89 f0                	mov    %esi,%eax
    9511:	39 c2                	cmp    %eax,%edx
    9513:	7f 0f                	jg     9524 <safe_lshift_func_int16_t_s_u+0x43>
    9515:	0f bf 55 fc          	movswl -0x4(%rbp),%edx
    9519:	8b 45 f8             	mov    -0x8(%rbp),%eax
    951c:	89 c1                	mov    %eax,%ecx
    951e:	d3 e2                	shl    %cl,%edx
    9520:	89 d0                	mov    %edx,%eax
    9522:	eb 04                	jmp    9528 <safe_lshift_func_int16_t_s_u+0x47>
    9524:	0f b7 45 fc          	movzwl -0x4(%rbp),%eax
    9528:	5d                   	pop    %rbp
    9529:	c3                   	retq   

000000000000952a <safe_rshift_func_int16_t_s_s>:
    952a:	f3 0f 1e fa          	endbr64 
    952e:	55                   	push   %rbp
    952f:	48 89 e5             	mov    %rsp,%rbp
    9532:	89 f8                	mov    %edi,%eax
    9534:	89 75 f8             	mov    %esi,-0x8(%rbp)
    9537:	66 89 45 fc          	mov    %ax,-0x4(%rbp)
    953b:	66 83 7d fc 00       	cmpw   $0x0,-0x4(%rbp)
    9540:	78 1b                	js     955d <safe_rshift_func_int16_t_s_s+0x33>
    9542:	83 7d f8 00          	cmpl   $0x0,-0x8(%rbp)
    9546:	78 15                	js     955d <safe_rshift_func_int16_t_s_s+0x33>
    9548:	83 7d f8 1f          	cmpl   $0x1f,-0x8(%rbp)
    954c:	7f 0f                	jg     955d <safe_rshift_func_int16_t_s_s+0x33>
    954e:	0f bf 55 fc          	movswl -0x4(%rbp),%edx
    9552:	8b 45 f8             	mov    -0x8(%rbp),%eax
    9555:	89 c1                	mov    %eax,%ecx
    9557:	d3 fa                	sar    %cl,%edx
    9559:	89 d0                	mov    %edx,%eax
    955b:	eb 04                	jmp    9561 <safe_rshift_func_int16_t_s_s+0x37>
    955d:	0f b7 45 fc          	movzwl -0x4(%rbp),%eax
    9561:	5d                   	pop    %rbp
    9562:	c3                   	retq   

0000000000009563 <safe_rshift_func_int16_t_s_u>:
    9563:	f3 0f 1e fa          	endbr64 
    9567:	55                   	push   %rbp
    9568:	48 89 e5             	mov    %rsp,%rbp
    956b:	89 f8                	mov    %edi,%eax
    956d:	89 75 f8             	mov    %esi,-0x8(%rbp)
    9570:	66 89 45 fc          	mov    %ax,-0x4(%rbp)
    9574:	66 83 7d fc 00       	cmpw   $0x0,-0x4(%rbp)
    9579:	78 15                	js     9590 <safe_rshift_func_int16_t_s_u+0x2d>
    957b:	83 7d f8 1f          	cmpl   $0x1f,-0x8(%rbp)
    957f:	77 0f                	ja     9590 <safe_rshift_func_int16_t_s_u+0x2d>
    9581:	0f bf 55 fc          	movswl -0x4(%rbp),%edx
    9585:	8b 45 f8             	mov    -0x8(%rbp),%eax
    9588:	89 c1                	mov    %eax,%ecx
    958a:	d3 fa                	sar    %cl,%edx
    958c:	89 d0                	mov    %edx,%eax
    958e:	eb 04                	jmp    9594 <safe_rshift_func_int16_t_s_u+0x31>
    9590:	0f b7 45 fc          	movzwl -0x4(%rbp),%eax
    9594:	5d                   	pop    %rbp
    9595:	c3                   	retq   

0000000000009596 <safe_unary_minus_func_int32_t_s>:
    9596:	f3 0f 1e fa          	endbr64 
    959a:	55                   	push   %rbp
    959b:	48 89 e5             	mov    %rsp,%rbp
    959e:	89 7d fc             	mov    %edi,-0x4(%rbp)
    95a1:	81 7d fc 00 00 00 80 	cmpl   $0x80000000,-0x4(%rbp)
    95a8:	74 07                	je     95b1 <safe_unary_minus_func_int32_t_s+0x1b>
    95aa:	8b 45 fc             	mov    -0x4(%rbp),%eax
    95ad:	f7 d8                	neg    %eax
    95af:	eb 03                	jmp    95b4 <safe_unary_minus_func_int32_t_s+0x1e>
    95b1:	8b 45 fc             	mov    -0x4(%rbp),%eax
    95b4:	5d                   	pop    %rbp
    95b5:	c3                   	retq   

00000000000095b6 <safe_add_func_int32_t_s_s>:
    95b6:	f3 0f 1e fa          	endbr64 
    95ba:	55                   	push   %rbp
    95bb:	48 89 e5             	mov    %rsp,%rbp
    95be:	89 7d fc             	mov    %edi,-0x4(%rbp)
    95c1:	89 75 f8             	mov    %esi,-0x8(%rbp)
    95c4:	83 7d fc 00          	cmpl   $0x0,-0x4(%rbp)
    95c8:	7e 13                	jle    95dd <safe_add_func_int32_t_s_s+0x27>
    95ca:	83 7d f8 00          	cmpl   $0x0,-0x8(%rbp)
    95ce:	7e 0d                	jle    95dd <safe_add_func_int32_t_s_s+0x27>
    95d0:	b8 ff ff ff 7f       	mov    $0x7fffffff,%eax
    95d5:	2b 45 f8             	sub    -0x8(%rbp),%eax
    95d8:	39 45 fc             	cmp    %eax,-0x4(%rbp)
    95db:	7f 23                	jg     9600 <safe_add_func_int32_t_s_s+0x4a>
    95dd:	83 7d fc 00          	cmpl   $0x0,-0x4(%rbp)
    95e1:	79 13                	jns    95f6 <safe_add_func_int32_t_s_s+0x40>
    95e3:	83 7d f8 00          	cmpl   $0x0,-0x8(%rbp)
    95e7:	79 0d                	jns    95f6 <safe_add_func_int32_t_s_s+0x40>
    95e9:	b8 00 00 00 80       	mov    $0x80000000,%eax
    95ee:	2b 45 f8             	sub    -0x8(%rbp),%eax
    95f1:	39 45 fc             	cmp    %eax,-0x4(%rbp)
    95f4:	7c 0a                	jl     9600 <safe_add_func_int32_t_s_s+0x4a>
    95f6:	8b 55 fc             	mov    -0x4(%rbp),%edx
    95f9:	8b 45 f8             	mov    -0x8(%rbp),%eax
    95fc:	01 d0                	add    %edx,%eax
    95fe:	eb 03                	jmp    9603 <safe_add_func_int32_t_s_s+0x4d>
    9600:	8b 45 fc             	mov    -0x4(%rbp),%eax
    9603:	5d                   	pop    %rbp
    9604:	c3                   	retq   

0000000000009605 <safe_sub_func_int32_t_s_s>:
    9605:	f3 0f 1e fa          	endbr64 
    9609:	55                   	push   %rbp
    960a:	48 89 e5             	mov    %rsp,%rbp
    960d:	89 7d fc             	mov    %edi,-0x4(%rbp)
    9610:	89 75 f8             	mov    %esi,-0x8(%rbp)
    9613:	8b 45 fc             	mov    -0x4(%rbp),%eax
    9616:	33 45 f8             	xor    -0x8(%rbp),%eax
    9619:	89 c2                	mov    %eax,%edx
    961b:	8b 45 fc             	mov    -0x4(%rbp),%eax
    961e:	33 45 f8             	xor    -0x8(%rbp),%eax
    9621:	25 00 00 00 80       	and    $0x80000000,%eax
    9626:	33 45 fc             	xor    -0x4(%rbp),%eax
    9629:	2b 45 f8             	sub    -0x8(%rbp),%eax
    962c:	33 45 f8             	xor    -0x8(%rbp),%eax
    962f:	21 d0                	and    %edx,%eax
    9631:	85 c0                	test   %eax,%eax
    9633:	78 08                	js     963d <safe_sub_func_int32_t_s_s+0x38>
    9635:	8b 45 fc             	mov    -0x4(%rbp),%eax
    9638:	2b 45 f8             	sub    -0x8(%rbp),%eax
    963b:	eb 03                	jmp    9640 <safe_sub_func_int32_t_s_s+0x3b>
    963d:	8b 45 fc             	mov    -0x4(%rbp),%eax
    9640:	5d                   	pop    %rbp
    9641:	c3                   	retq   

0000000000009642 <safe_mul_func_int32_t_s_s>:
    9642:	f3 0f 1e fa          	endbr64 
    9646:	55                   	push   %rbp
    9647:	48 89 e5             	mov    %rsp,%rbp
    964a:	89 7d fc             	mov    %edi,-0x4(%rbp)
    964d:	89 75 f8             	mov    %esi,-0x8(%rbp)
    9650:	83 7d fc 00          	cmpl   $0x0,-0x4(%rbp)
    9654:	7e 14                	jle    966a <safe_mul_func_int32_t_s_s+0x28>
    9656:	83 7d f8 00          	cmpl   $0x0,-0x8(%rbp)
    965a:	7e 0e                	jle    966a <safe_mul_func_int32_t_s_s+0x28>
    965c:	b8 ff ff ff 7f       	mov    $0x7fffffff,%eax
    9661:	99                   	cltd   
    9662:	f7 7d f8             	idivl  -0x8(%rbp)
    9665:	39 45 fc             	cmp    %eax,-0x4(%rbp)
    9668:	7f 5d                	jg     96c7 <safe_mul_func_int32_t_s_s+0x85>
    966a:	83 7d fc 00          	cmpl   $0x0,-0x4(%rbp)
    966e:	7e 14                	jle    9684 <safe_mul_func_int32_t_s_s+0x42>
    9670:	83 7d f8 00          	cmpl   $0x0,-0x8(%rbp)
    9674:	7f 0e                	jg     9684 <safe_mul_func_int32_t_s_s+0x42>
    9676:	b8 00 00 00 80       	mov    $0x80000000,%eax
    967b:	99                   	cltd   
    967c:	f7 7d fc             	idivl  -0x4(%rbp)
    967f:	39 45 f8             	cmp    %eax,-0x8(%rbp)
    9682:	7c 43                	jl     96c7 <safe_mul_func_int32_t_s_s+0x85>
    9684:	83 7d fc 00          	cmpl   $0x0,-0x4(%rbp)
    9688:	7f 14                	jg     969e <safe_mul_func_int32_t_s_s+0x5c>
    968a:	83 7d f8 00          	cmpl   $0x0,-0x8(%rbp)
    968e:	7e 0e                	jle    969e <safe_mul_func_int32_t_s_s+0x5c>
    9690:	b8 00 00 00 80       	mov    $0x80000000,%eax
    9695:	99                   	cltd   
    9696:	f7 7d f8             	idivl  -0x8(%rbp)
    9699:	39 45 fc             	cmp    %eax,-0x4(%rbp)
    969c:	7c 29                	jl     96c7 <safe_mul_func_int32_t_s_s+0x85>
    969e:	83 7d fc 00          	cmpl   $0x0,-0x4(%rbp)
    96a2:	7f 1a                	jg     96be <safe_mul_func_int32_t_s_s+0x7c>
    96a4:	83 7d f8 00          	cmpl   $0x0,-0x8(%rbp)
    96a8:	7f 14                	jg     96be <safe_mul_func_int32_t_s_s+0x7c>
    96aa:	83 7d fc 00          	cmpl   $0x0,-0x4(%rbp)
    96ae:	74 0e                	je     96be <safe_mul_func_int32_t_s_s+0x7c>
    96b0:	b8 ff ff ff 7f       	mov    $0x7fffffff,%eax
    96b5:	99                   	cltd   
    96b6:	f7 7d fc             	idivl  -0x4(%rbp)
    96b9:	39 45 f8             	cmp    %eax,-0x8(%rbp)
    96bc:	7c 09                	jl     96c7 <safe_mul_func_int32_t_s_s+0x85>
    96be:	8b 45 fc             	mov    -0x4(%rbp),%eax
    96c1:	0f af 45 f8          	imul   -0x8(%rbp),%eax
    96c5:	eb 03                	jmp    96ca <safe_mul_func_int32_t_s_s+0x88>
    96c7:	8b 45 fc             	mov    -0x4(%rbp),%eax
    96ca:	5d                   	pop    %rbp
    96cb:	c3                   	retq   

00000000000096cc <safe_mod_func_int32_t_s_s>:
    96cc:	f3 0f 1e fa          	endbr64 
    96d0:	55                   	push   %rbp
    96d1:	48 89 e5             	mov    %rsp,%rbp
    96d4:	89 7d fc             	mov    %edi,-0x4(%rbp)
    96d7:	89 75 f8             	mov    %esi,-0x8(%rbp)
    96da:	83 7d f8 00          	cmpl   $0x0,-0x8(%rbp)
    96de:	74 1a                	je     96fa <safe_mod_func_int32_t_s_s+0x2e>
    96e0:	81 7d fc 00 00 00 80 	cmpl   $0x80000000,-0x4(%rbp)
    96e7:	75 06                	jne    96ef <safe_mod_func_int32_t_s_s+0x23>
    96e9:	83 7d f8 ff          	cmpl   $0xffffffff,-0x8(%rbp)
    96ed:	74 0b                	je     96fa <safe_mod_func_int32_t_s_s+0x2e>
    96ef:	8b 45 fc             	mov    -0x4(%rbp),%eax
    96f2:	99                   	cltd   
    96f3:	f7 7d f8             	idivl  -0x8(%rbp)
    96f6:	89 d0                	mov    %edx,%eax
    96f8:	eb 03                	jmp    96fd <safe_mod_func_int32_t_s_s+0x31>
    96fa:	8b 45 fc             	mov    -0x4(%rbp),%eax
    96fd:	5d                   	pop    %rbp
    96fe:	c3                   	retq   

00000000000096ff <safe_div_func_int32_t_s_s>:
    96ff:	f3 0f 1e fa          	endbr64 
    9703:	55                   	push   %rbp
    9704:	48 89 e5             	mov    %rsp,%rbp
    9707:	89 7d fc             	mov    %edi,-0x4(%rbp)
    970a:	89 75 f8             	mov    %esi,-0x8(%rbp)
    970d:	83 7d f8 00          	cmpl   $0x0,-0x8(%rbp)
    9711:	74 18                	je     972b <safe_div_func_int32_t_s_s+0x2c>
    9713:	81 7d fc 00 00 00 80 	cmpl   $0x80000000,-0x4(%rbp)
    971a:	75 06                	jne    9722 <safe_div_func_int32_t_s_s+0x23>
    971c:	83 7d f8 ff          	cmpl   $0xffffffff,-0x8(%rbp)
    9720:	74 09                	je     972b <safe_div_func_int32_t_s_s+0x2c>
    9722:	8b 45 fc             	mov    -0x4(%rbp),%eax
    9725:	99                   	cltd   
    9726:	f7 7d f8             	idivl  -0x8(%rbp)
    9729:	eb 03                	jmp    972e <safe_div_func_int32_t_s_s+0x2f>
    972b:	8b 45 fc             	mov    -0x4(%rbp),%eax
    972e:	5d                   	pop    %rbp
    972f:	c3                   	retq   

0000000000009730 <safe_lshift_func_int32_t_s_s>:
    9730:	f3 0f 1e fa          	endbr64 
    9734:	55                   	push   %rbp
    9735:	48 89 e5             	mov    %rsp,%rbp
    9738:	89 7d fc             	mov    %edi,-0x4(%rbp)
    973b:	89 75 f8             	mov    %esi,-0x8(%rbp)
    973e:	83 7d fc 00          	cmpl   $0x0,-0x4(%rbp)
    9742:	78 2d                	js     9771 <safe_lshift_func_int32_t_s_s+0x41>
    9744:	83 7d f8 00          	cmpl   $0x0,-0x8(%rbp)
    9748:	78 27                	js     9771 <safe_lshift_func_int32_t_s_s+0x41>
    974a:	83 7d f8 1f          	cmpl   $0x1f,-0x8(%rbp)
    974e:	7f 21                	jg     9771 <safe_lshift_func_int32_t_s_s+0x41>
    9750:	8b 45 f8             	mov    -0x8(%rbp),%eax
    9753:	ba ff ff ff 7f       	mov    $0x7fffffff,%edx
    9758:	89 c1                	mov    %eax,%ecx
    975a:	d3 fa                	sar    %cl,%edx
    975c:	89 d0                	mov    %edx,%eax
    975e:	39 45 fc             	cmp    %eax,-0x4(%rbp)
    9761:	7f 0e                	jg     9771 <safe_lshift_func_int32_t_s_s+0x41>
    9763:	8b 45 f8             	mov    -0x8(%rbp),%eax
    9766:	8b 55 fc             	mov    -0x4(%rbp),%edx
    9769:	89 c1                	mov    %eax,%ecx
    976b:	d3 e2                	shl    %cl,%edx
    976d:	89 d0                	mov    %edx,%eax
    976f:	eb 03                	jmp    9774 <safe_lshift_func_int32_t_s_s+0x44>
    9771:	8b 45 fc             	mov    -0x4(%rbp),%eax
    9774:	5d                   	pop    %rbp
    9775:	c3                   	retq   

0000000000009776 <safe_lshift_func_int32_t_s_u>:
    9776:	f3 0f 1e fa          	endbr64 
    977a:	55                   	push   %rbp
    977b:	48 89 e5             	mov    %rsp,%rbp
    977e:	89 7d fc             	mov    %edi,-0x4(%rbp)
    9781:	89 75 f8             	mov    %esi,-0x8(%rbp)
    9784:	83 7d fc 00          	cmpl   $0x0,-0x4(%rbp)
    9788:	78 27                	js     97b1 <safe_lshift_func_int32_t_s_u+0x3b>
    978a:	83 7d f8 1f          	cmpl   $0x1f,-0x8(%rbp)
    978e:	77 21                	ja     97b1 <safe_lshift_func_int32_t_s_u+0x3b>
    9790:	8b 45 f8             	mov    -0x8(%rbp),%eax
    9793:	ba ff ff ff 7f       	mov    $0x7fffffff,%edx
    9798:	89 c1                	mov    %eax,%ecx
    979a:	d3 fa                	sar    %cl,%edx
    979c:	89 d0                	mov    %edx,%eax
    979e:	39 45 fc             	cmp    %eax,-0x4(%rbp)
    97a1:	7f 0e                	jg     97b1 <safe_lshift_func_int32_t_s_u+0x3b>
    97a3:	8b 45 f8             	mov    -0x8(%rbp),%eax
    97a6:	8b 55 fc             	mov    -0x4(%rbp),%edx
    97a9:	89 c1                	mov    %eax,%ecx
    97ab:	d3 e2                	shl    %cl,%edx
    97ad:	89 d0                	mov    %edx,%eax
    97af:	eb 03                	jmp    97b4 <safe_lshift_func_int32_t_s_u+0x3e>
    97b1:	8b 45 fc             	mov    -0x4(%rbp),%eax
    97b4:	5d                   	pop    %rbp
    97b5:	c3                   	retq   

00000000000097b6 <safe_rshift_func_int32_t_s_s>:
    97b6:	f3 0f 1e fa          	endbr64 
    97ba:	55                   	push   %rbp
    97bb:	48 89 e5             	mov    %rsp,%rbp
    97be:	89 7d fc             	mov    %edi,-0x4(%rbp)
    97c1:	89 75 f8             	mov    %esi,-0x8(%rbp)
    97c4:	83 7d fc 00          	cmpl   $0x0,-0x4(%rbp)
    97c8:	78 1a                	js     97e4 <safe_rshift_func_int32_t_s_s+0x2e>
    97ca:	83 7d f8 00          	cmpl   $0x0,-0x8(%rbp)
    97ce:	78 14                	js     97e4 <safe_rshift_func_int32_t_s_s+0x2e>
    97d0:	83 7d f8 1f          	cmpl   $0x1f,-0x8(%rbp)
    97d4:	7f 0e                	jg     97e4 <safe_rshift_func_int32_t_s_s+0x2e>
    97d6:	8b 45 f8             	mov    -0x8(%rbp),%eax
    97d9:	8b 55 fc             	mov    -0x4(%rbp),%edx
    97dc:	89 c1                	mov    %eax,%ecx
    97de:	d3 fa                	sar    %cl,%edx
    97e0:	89 d0                	mov    %edx,%eax
    97e2:	eb 03                	jmp    97e7 <safe_rshift_func_int32_t_s_s+0x31>
    97e4:	8b 45 fc             	mov    -0x4(%rbp),%eax
    97e7:	5d                   	pop    %rbp
    97e8:	c3                   	retq   

00000000000097e9 <safe_rshift_func_int32_t_s_u>:
    97e9:	f3 0f 1e fa          	endbr64 
    97ed:	55                   	push   %rbp
    97ee:	48 89 e5             	mov    %rsp,%rbp
    97f1:	89 7d fc             	mov    %edi,-0x4(%rbp)
    97f4:	89 75 f8             	mov    %esi,-0x8(%rbp)
    97f7:	83 7d fc 00          	cmpl   $0x0,-0x4(%rbp)
    97fb:	78 14                	js     9811 <safe_rshift_func_int32_t_s_u+0x28>
    97fd:	83 7d f8 1f          	cmpl   $0x1f,-0x8(%rbp)
    9801:	77 0e                	ja     9811 <safe_rshift_func_int32_t_s_u+0x28>
    9803:	8b 45 f8             	mov    -0x8(%rbp),%eax
    9806:	8b 55 fc             	mov    -0x4(%rbp),%edx
    9809:	89 c1                	mov    %eax,%ecx
    980b:	d3 fa                	sar    %cl,%edx
    980d:	89 d0                	mov    %edx,%eax
    980f:	eb 03                	jmp    9814 <safe_rshift_func_int32_t_s_u+0x2b>
    9811:	8b 45 fc             	mov    -0x4(%rbp),%eax
    9814:	5d                   	pop    %rbp
    9815:	c3                   	retq   

0000000000009816 <safe_unary_minus_func_int64_t_s>:
    9816:	f3 0f 1e fa          	endbr64 
    981a:	55                   	push   %rbp
    981b:	48 89 e5             	mov    %rsp,%rbp
    981e:	48 89 7d f8          	mov    %rdi,-0x8(%rbp)
    9822:	48 b8 00 00 00 00 00 	movabs $0x8000000000000000,%rax
    9829:	00 00 80 
    982c:	48 39 45 f8          	cmp    %rax,-0x8(%rbp)
    9830:	74 09                	je     983b <safe_unary_minus_func_int64_t_s+0x25>
    9832:	48 8b 45 f8          	mov    -0x8(%rbp),%rax
    9836:	48 f7 d8             	neg    %rax
    9839:	eb 04                	jmp    983f <safe_unary_minus_func_int64_t_s+0x29>
    983b:	48 8b 45 f8          	mov    -0x8(%rbp),%rax
    983f:	5d                   	pop    %rbp
    9840:	c3                   	retq   

0000000000009841 <safe_add_func_int64_t_s_s>:
    9841:	f3 0f 1e fa          	endbr64 
    9845:	55                   	push   %rbp
    9846:	48 89 e5             	mov    %rsp,%rbp
    9849:	48 89 7d f8          	mov    %rdi,-0x8(%rbp)
    984d:	48 89 75 f0          	mov    %rsi,-0x10(%rbp)
    9851:	48 83 7d f8 00       	cmpq   $0x0,-0x8(%rbp)
    9856:	7e 1b                	jle    9873 <safe_add_func_int64_t_s_s+0x32>
    9858:	48 83 7d f0 00       	cmpq   $0x0,-0x10(%rbp)
    985d:	7e 14                	jle    9873 <safe_add_func_int64_t_s_s+0x32>
    985f:	48 b8 ff ff ff ff ff 	movabs $0x7fffffffffffffff,%rax
    9866:	ff ff 7f 
    9869:	48 2b 45 f0          	sub    -0x10(%rbp),%rax
    986d:	48 39 45 f8          	cmp    %rax,-0x8(%rbp)
    9871:	7f 2f                	jg     98a2 <safe_add_func_int64_t_s_s+0x61>
    9873:	48 83 7d f8 00       	cmpq   $0x0,-0x8(%rbp)
    9878:	79 1b                	jns    9895 <safe_add_func_int64_t_s_s+0x54>
    987a:	48 83 7d f0 00       	cmpq   $0x0,-0x10(%rbp)
    987f:	79 14                	jns    9895 <safe_add_func_int64_t_s_s+0x54>
    9881:	48 b8 00 00 00 00 00 	movabs $0x8000000000000000,%rax
    9888:	00 00 80 
    988b:	48 2b 45 f0          	sub    -0x10(%rbp),%rax
    988f:	48 39 45 f8          	cmp    %rax,-0x8(%rbp)
    9893:	7c 0d                	jl     98a2 <safe_add_func_int64_t_s_s+0x61>
    9895:	48 8b 55 f8          	mov    -0x8(%rbp),%rdx
    9899:	48 8b 45 f0          	mov    -0x10(%rbp),%rax
    989d:	48 01 d0             	add    %rdx,%rax
    98a0:	eb 04                	jmp    98a6 <safe_add_func_int64_t_s_s+0x65>
    98a2:	48 8b 45 f8          	mov    -0x8(%rbp),%rax
    98a6:	5d                   	pop    %rbp
    98a7:	c3                   	retq   

00000000000098a8 <safe_sub_func_int64_t_s_s>:
    98a8:	f3 0f 1e fa          	endbr64 
    98ac:	55                   	push   %rbp
    98ad:	48 89 e5             	mov    %rsp,%rbp
    98b0:	48 89 7d f8          	mov    %rdi,-0x8(%rbp)
    98b4:	48 89 75 f0          	mov    %rsi,-0x10(%rbp)
    98b8:	48 8b 45 f8          	mov    -0x8(%rbp),%rax
    98bc:	48 33 45 f0          	xor    -0x10(%rbp),%rax
    98c0:	48 89 c2             	mov    %rax,%rdx
    98c3:	48 8b 45 f8          	mov    -0x8(%rbp),%rax
    98c7:	48 33 45 f0          	xor    -0x10(%rbp),%rax
    98cb:	48 b9 00 00 00 00 00 	movabs $0x8000000000000000,%rcx
    98d2:	00 00 80 
    98d5:	48 21 c8             	and    %rcx,%rax
    98d8:	48 33 45 f8          	xor    -0x8(%rbp),%rax
    98dc:	48 2b 45 f0          	sub    -0x10(%rbp),%rax
    98e0:	48 33 45 f0          	xor    -0x10(%rbp),%rax
    98e4:	48 21 d0             	and    %rdx,%rax
    98e7:	48 85 c0             	test   %rax,%rax
    98ea:	78 0a                	js     98f6 <safe_sub_func_int64_t_s_s+0x4e>
    98ec:	48 8b 45 f8          	mov    -0x8(%rbp),%rax
    98f0:	48 2b 45 f0          	sub    -0x10(%rbp),%rax
    98f4:	eb 04                	jmp    98fa <safe_sub_func_int64_t_s_s+0x52>
    98f6:	48 8b 45 f8          	mov    -0x8(%rbp),%rax
    98fa:	5d                   	pop    %rbp
    98fb:	c3                   	retq   

00000000000098fc <safe_mul_func_int64_t_s_s>:
    98fc:	f3 0f 1e fa          	endbr64 
    9900:	55                   	push   %rbp
    9901:	48 89 e5             	mov    %rsp,%rbp
    9904:	48 89 7d f8          	mov    %rdi,-0x8(%rbp)
    9908:	48 89 75 f0          	mov    %rsi,-0x10(%rbp)
    990c:	48 83 7d f8 00       	cmpq   $0x0,-0x8(%rbp)
    9911:	7e 1d                	jle    9930 <safe_mul_func_int64_t_s_s+0x34>
    9913:	48 83 7d f0 00       	cmpq   $0x0,-0x10(%rbp)
    9918:	7e 16                	jle    9930 <safe_mul_func_int64_t_s_s+0x34>
    991a:	48 b8 ff ff ff ff ff 	movabs $0x7fffffffffffffff,%rax
    9921:	ff ff 7f 
    9924:	48 99                	cqto   
    9926:	48 f7 7d f0          	idivq  -0x10(%rbp)
    992a:	48 39 45 f8          	cmp    %rax,-0x8(%rbp)
    992e:	7f 7e                	jg     99ae <safe_mul_func_int64_t_s_s+0xb2>
    9930:	48 83 7d f8 00       	cmpq   $0x0,-0x8(%rbp)
    9935:	7e 1d                	jle    9954 <safe_mul_func_int64_t_s_s+0x58>
    9937:	48 83 7d f0 00       	cmpq   $0x0,-0x10(%rbp)
    993c:	7f 16                	jg     9954 <safe_mul_func_int64_t_s_s+0x58>
    993e:	48 b8 00 00 00 00 00 	movabs $0x8000000000000000,%rax
    9945:	00 00 80 
    9948:	48 99                	cqto   
    994a:	48 f7 7d f8          	idivq  -0x8(%rbp)
    994e:	48 39 45 f0          	cmp    %rax,-0x10(%rbp)
    9952:	7c 5a                	jl     99ae <safe_mul_func_int64_t_s_s+0xb2>
    9954:	48 83 7d f8 00       	cmpq   $0x0,-0x8(%rbp)
    9959:	7f 1d                	jg     9978 <safe_mul_func_int64_t_s_s+0x7c>
    995b:	48 83 7d f0 00       	cmpq   $0x0,-0x10(%rbp)
    9960:	7e 16                	jle    9978 <safe_mul_func_int64_t_s_s+0x7c>
    9962:	48 b8 00 00 00 00 00 	movabs $0x8000000000000000,%rax
    9969:	00 00 80 
    996c:	48 99                	cqto   
    996e:	48 f7 7d f0          	idivq  -0x10(%rbp)
    9972:	48 39 45 f8          	cmp    %rax,-0x8(%rbp)
    9976:	7c 36                	jl     99ae <safe_mul_func_int64_t_s_s+0xb2>
    9978:	48 83 7d f8 00       	cmpq   $0x0,-0x8(%rbp)
    997d:	7f 24                	jg     99a3 <safe_mul_func_int64_t_s_s+0xa7>
    997f:	48 83 7d f0 00       	cmpq   $0x0,-0x10(%rbp)
    9984:	7f 1d                	jg     99a3 <safe_mul_func_int64_t_s_s+0xa7>
    9986:	48 83 7d f8 00       	cmpq   $0x0,-0x8(%rbp)
    998b:	74 16                	je     99a3 <safe_mul_func_int64_t_s_s+0xa7>
    998d:	48 b8 ff ff ff ff ff 	movabs $0x7fffffffffffffff,%rax
    9994:	ff ff 7f 
    9997:	48 99                	cqto   
    9999:	48 f7 7d f8          	idivq  -0x8(%rbp)
    999d:	48 39 45 f0          	cmp    %rax,-0x10(%rbp)
    99a1:	7c 0b                	jl     99ae <safe_mul_func_int64_t_s_s+0xb2>
    99a3:	48 8b 45 f8          	mov    -0x8(%rbp),%rax
    99a7:	48 0f af 45 f0       	imul   -0x10(%rbp),%rax
    99ac:	eb 04                	jmp    99b2 <safe_mul_func_int64_t_s_s+0xb6>
    99ae:	48 8b 45 f8          	mov    -0x8(%rbp),%rax
    99b2:	5d                   	pop    %rbp
    99b3:	c3                   	retq   

00000000000099b4 <safe_mod_func_int64_t_s_s>:
    99b4:	f3 0f 1e fa          	endbr64 
    99b8:	55                   	push   %rbp
    99b9:	48 89 e5             	mov    %rsp,%rbp
    99bc:	48 89 7d f8          	mov    %rdi,-0x8(%rbp)
    99c0:	48 89 75 f0          	mov    %rsi,-0x10(%rbp)
    99c4:	48 83 7d f0 00       	cmpq   $0x0,-0x10(%rbp)
    99c9:	74 26                	je     99f1 <safe_mod_func_int64_t_s_s+0x3d>
    99cb:	48 b8 00 00 00 00 00 	movabs $0x8000000000000000,%rax
    99d2:	00 00 80 
    99d5:	48 39 45 f8          	cmp    %rax,-0x8(%rbp)
    99d9:	75 07                	jne    99e2 <safe_mod_func_int64_t_s_s+0x2e>
    99db:	48 83 7d f0 ff       	cmpq   $0xffffffffffffffff,-0x10(%rbp)
    99e0:	74 0f                	je     99f1 <safe_mod_func_int64_t_s_s+0x3d>
    99e2:	48 8b 45 f8          	mov    -0x8(%rbp),%rax
    99e6:	48 99                	cqto   
    99e8:	48 f7 7d f0          	idivq  -0x10(%rbp)
    99ec:	48 89 d0             	mov    %rdx,%rax
    99ef:	eb 04                	jmp    99f5 <safe_mod_func_int64_t_s_s+0x41>
    99f1:	48 8b 45 f8          	mov    -0x8(%rbp),%rax
    99f5:	5d                   	pop    %rbp
    99f6:	c3                   	retq   

00000000000099f7 <safe_div_func_int64_t_s_s>:
    99f7:	f3 0f 1e fa          	endbr64 
    99fb:	55                   	push   %rbp
    99fc:	48 89 e5             	mov    %rsp,%rbp
    99ff:	48 89 7d f8          	mov    %rdi,-0x8(%rbp)
    9a03:	48 89 75 f0          	mov    %rsi,-0x10(%rbp)
    9a07:	48 83 7d f0 00       	cmpq   $0x0,-0x10(%rbp)
    9a0c:	74 23                	je     9a31 <safe_div_func_int64_t_s_s+0x3a>
    9a0e:	48 b8 00 00 00 00 00 	movabs $0x8000000000000000,%rax
    9a15:	00 00 80 
    9a18:	48 39 45 f8          	cmp    %rax,-0x8(%rbp)
    9a1c:	75 07                	jne    9a25 <safe_div_func_int64_t_s_s+0x2e>
    9a1e:	48 83 7d f0 ff       	cmpq   $0xffffffffffffffff,-0x10(%rbp)
    9a23:	74 0c                	je     9a31 <safe_div_func_int64_t_s_s+0x3a>
    9a25:	48 8b 45 f8          	mov    -0x8(%rbp),%rax
    9a29:	48 99                	cqto   
    9a2b:	48 f7 7d f0          	idivq  -0x10(%rbp)
    9a2f:	eb 04                	jmp    9a35 <safe_div_func_int64_t_s_s+0x3e>
    9a31:	48 8b 45 f8          	mov    -0x8(%rbp),%rax
    9a35:	5d                   	pop    %rbp
    9a36:	c3                   	retq   

0000000000009a37 <safe_lshift_func_int64_t_s_s>:
    9a37:	f3 0f 1e fa          	endbr64 
    9a3b:	55                   	push   %rbp
    9a3c:	48 89 e5             	mov    %rsp,%rbp
    9a3f:	48 89 7d f8          	mov    %rdi,-0x8(%rbp)
    9a43:	89 75 f4             	mov    %esi,-0xc(%rbp)
    9a46:	48 83 7d f8 00       	cmpq   $0x0,-0x8(%rbp)
    9a4b:	78 38                	js     9a85 <safe_lshift_func_int64_t_s_s+0x4e>
    9a4d:	83 7d f4 00          	cmpl   $0x0,-0xc(%rbp)
    9a51:	78 32                	js     9a85 <safe_lshift_func_int64_t_s_s+0x4e>
    9a53:	83 7d f4 1f          	cmpl   $0x1f,-0xc(%rbp)
    9a57:	7f 2c                	jg     9a85 <safe_lshift_func_int64_t_s_s+0x4e>
    9a59:	8b 45 f4             	mov    -0xc(%rbp),%eax
    9a5c:	48 ba ff ff ff ff ff 	movabs $0x7fffffffffffffff,%rdx
    9a63:	ff ff 7f 
    9a66:	89 c1                	mov    %eax,%ecx
    9a68:	48 d3 fa             	sar    %cl,%rdx
    9a6b:	48 89 d0             	mov    %rdx,%rax
    9a6e:	48 39 45 f8          	cmp    %rax,-0x8(%rbp)
    9a72:	7f 11                	jg     9a85 <safe_lshift_func_int64_t_s_s+0x4e>
    9a74:	8b 45 f4             	mov    -0xc(%rbp),%eax
    9a77:	48 8b 55 f8          	mov    -0x8(%rbp),%rdx
    9a7b:	89 c1                	mov    %eax,%ecx
    9a7d:	48 d3 e2             	shl    %cl,%rdx
    9a80:	48 89 d0             	mov    %rdx,%rax
    9a83:	eb 04                	jmp    9a89 <safe_lshift_func_int64_t_s_s+0x52>
    9a85:	48 8b 45 f8          	mov    -0x8(%rbp),%rax
    9a89:	5d                   	pop    %rbp
    9a8a:	c3                   	retq   

0000000000009a8b <safe_lshift_func_int64_t_s_u>:
    9a8b:	f3 0f 1e fa          	endbr64 
    9a8f:	55                   	push   %rbp
    9a90:	48 89 e5             	mov    %rsp,%rbp
    9a93:	48 89 7d f8          	mov    %rdi,-0x8(%rbp)
    9a97:	89 75 f4             	mov    %esi,-0xc(%rbp)
    9a9a:	48 83 7d f8 00       	cmpq   $0x0,-0x8(%rbp)
    9a9f:	78 32                	js     9ad3 <safe_lshift_func_int64_t_s_u+0x48>
    9aa1:	83 7d f4 1f          	cmpl   $0x1f,-0xc(%rbp)
    9aa5:	77 2c                	ja     9ad3 <safe_lshift_func_int64_t_s_u+0x48>
    9aa7:	8b 45 f4             	mov    -0xc(%rbp),%eax
    9aaa:	48 ba ff ff ff ff ff 	movabs $0x7fffffffffffffff,%rdx
    9ab1:	ff ff 7f 
    9ab4:	89 c1                	mov    %eax,%ecx
    9ab6:	48 d3 fa             	sar    %cl,%rdx
    9ab9:	48 89 d0             	mov    %rdx,%rax
    9abc:	48 39 45 f8          	cmp    %rax,-0x8(%rbp)
    9ac0:	7f 11                	jg     9ad3 <safe_lshift_func_int64_t_s_u+0x48>
    9ac2:	8b 45 f4             	mov    -0xc(%rbp),%eax
    9ac5:	48 8b 55 f8          	mov    -0x8(%rbp),%rdx
    9ac9:	89 c1                	mov    %eax,%ecx
    9acb:	48 d3 e2             	shl    %cl,%rdx
    9ace:	48 89 d0             	mov    %rdx,%rax
    9ad1:	eb 04                	jmp    9ad7 <safe_lshift_func_int64_t_s_u+0x4c>
    9ad3:	48 8b 45 f8          	mov    -0x8(%rbp),%rax
    9ad7:	5d                   	pop    %rbp
    9ad8:	c3                   	retq   

0000000000009ad9 <safe_rshift_func_int64_t_s_s>:
    9ad9:	f3 0f 1e fa          	endbr64 
    9add:	55                   	push   %rbp
    9ade:	48 89 e5             	mov    %rsp,%rbp
    9ae1:	48 89 7d f8          	mov    %rdi,-0x8(%rbp)
    9ae5:	89 75 f4             	mov    %esi,-0xc(%rbp)
    9ae8:	48 83 7d f8 00       	cmpq   $0x0,-0x8(%rbp)
    9aed:	78 1d                	js     9b0c <safe_rshift_func_int64_t_s_s+0x33>
    9aef:	83 7d f4 00          	cmpl   $0x0,-0xc(%rbp)
    9af3:	78 17                	js     9b0c <safe_rshift_func_int64_t_s_s+0x33>
    9af5:	83 7d f4 1f          	cmpl   $0x1f,-0xc(%rbp)
    9af9:	7f 11                	jg     9b0c <safe_rshift_func_int64_t_s_s+0x33>
    9afb:	8b 45 f4             	mov    -0xc(%rbp),%eax
    9afe:	48 8b 55 f8          	mov    -0x8(%rbp),%rdx
    9b02:	89 c1                	mov    %eax,%ecx
    9b04:	48 d3 fa             	sar    %cl,%rdx
    9b07:	48 89 d0             	mov    %rdx,%rax
    9b0a:	eb 04                	jmp    9b10 <safe_rshift_func_int64_t_s_s+0x37>
    9b0c:	48 8b 45 f8          	mov    -0x8(%rbp),%rax
    9b10:	5d                   	pop    %rbp
    9b11:	c3                   	retq   

0000000000009b12 <safe_rshift_func_int64_t_s_u>:
    9b12:	f3 0f 1e fa          	endbr64 
    9b16:	55                   	push   %rbp
    9b17:	48 89 e5             	mov    %rsp,%rbp
    9b1a:	48 89 7d f8          	mov    %rdi,-0x8(%rbp)
    9b1e:	89 75 f4             	mov    %esi,-0xc(%rbp)
    9b21:	48 83 7d f8 00       	cmpq   $0x0,-0x8(%rbp)
    9b26:	78 17                	js     9b3f <safe_rshift_func_int64_t_s_u+0x2d>
    9b28:	83 7d f4 1f          	cmpl   $0x1f,-0xc(%rbp)
    9b2c:	77 11                	ja     9b3f <safe_rshift_func_int64_t_s_u+0x2d>
    9b2e:	8b 45 f4             	mov    -0xc(%rbp),%eax
    9b31:	48 8b 55 f8          	mov    -0x8(%rbp),%rdx
    9b35:	89 c1                	mov    %eax,%ecx
    9b37:	48 d3 fa             	sar    %cl,%rdx
    9b3a:	48 89 d0             	mov    %rdx,%rax
    9b3d:	eb 04                	jmp    9b43 <safe_rshift_func_int64_t_s_u+0x31>
    9b3f:	48 8b 45 f8          	mov    -0x8(%rbp),%rax
    9b43:	5d                   	pop    %rbp
    9b44:	c3                   	retq   

0000000000009b45 <safe_unary_minus_func_uint8_t_u>:
    9b45:	f3 0f 1e fa          	endbr64 
    9b49:	55                   	push   %rbp
    9b4a:	48 89 e5             	mov    %rsp,%rbp
    9b4d:	89 f8                	mov    %edi,%eax
    9b4f:	88 45 fc             	mov    %al,-0x4(%rbp)
    9b52:	0f b6 45 fc          	movzbl -0x4(%rbp),%eax
    9b56:	f7 d8                	neg    %eax
    9b58:	5d                   	pop    %rbp
    9b59:	c3                   	retq   

0000000000009b5a <safe_add_func_uint8_t_u_u>:
    9b5a:	f3 0f 1e fa          	endbr64 
    9b5e:	55                   	push   %rbp
    9b5f:	48 89 e5             	mov    %rsp,%rbp
    9b62:	89 fa                	mov    %edi,%edx
    9b64:	89 f0                	mov    %esi,%eax
    9b66:	88 55 fc             	mov    %dl,-0x4(%rbp)
    9b69:	88 45 f8             	mov    %al,-0x8(%rbp)
    9b6c:	0f b6 55 fc          	movzbl -0x4(%rbp),%edx
    9b70:	0f b6 45 f8          	movzbl -0x8(%rbp),%eax
    9b74:	01 d0                	add    %edx,%eax
    9b76:	5d                   	pop    %rbp
    9b77:	c3                   	retq   

0000000000009b78 <safe_sub_func_uint8_t_u_u>:
    9b78:	f3 0f 1e fa          	endbr64 
    9b7c:	55                   	push   %rbp
    9b7d:	48 89 e5             	mov    %rsp,%rbp
    9b80:	89 fa                	mov    %edi,%edx
    9b82:	89 f0                	mov    %esi,%eax
    9b84:	88 55 fc             	mov    %dl,-0x4(%rbp)
    9b87:	88 45 f8             	mov    %al,-0x8(%rbp)
    9b8a:	0f b6 45 fc          	movzbl -0x4(%rbp),%eax
    9b8e:	2a 45 f8             	sub    -0x8(%rbp),%al
    9b91:	5d                   	pop    %rbp
    9b92:	c3                   	retq   

0000000000009b93 <safe_mul_func_uint8_t_u_u>:
    9b93:	f3 0f 1e fa          	endbr64 
    9b97:	55                   	push   %rbp
    9b98:	48 89 e5             	mov    %rsp,%rbp
    9b9b:	89 fa                	mov    %edi,%edx
    9b9d:	89 f0                	mov    %esi,%eax
    9b9f:	88 55 fc             	mov    %dl,-0x4(%rbp)
    9ba2:	88 45 f8             	mov    %al,-0x8(%rbp)
    9ba5:	0f b6 45 fc          	movzbl -0x4(%rbp),%eax
    9ba9:	f6 65 f8             	mulb   -0x8(%rbp)
    9bac:	5d                   	pop    %rbp
    9bad:	c3                   	retq   

0000000000009bae <safe_mod_func_uint8_t_u_u>:
    9bae:	f3 0f 1e fa          	endbr64 
    9bb2:	55                   	push   %rbp
    9bb3:	48 89 e5             	mov    %rsp,%rbp
    9bb6:	89 fa                	mov    %edi,%edx
    9bb8:	89 f0                	mov    %esi,%eax
    9bba:	88 55 fc             	mov    %dl,-0x4(%rbp)
    9bbd:	88 45 f8             	mov    %al,-0x8(%rbp)
    9bc0:	80 7d f8 00          	cmpb   $0x0,-0x8(%rbp)
    9bc4:	74 0f                	je     9bd5 <safe_mod_func_uint8_t_u_u+0x27>
    9bc6:	0f b6 45 fc          	movzbl -0x4(%rbp),%eax
    9bca:	0f b6 c0             	movzbl %al,%eax
    9bcd:	f6 75 f8             	divb   -0x8(%rbp)
    9bd0:	0f b6 c4             	movzbl %ah,%eax
    9bd3:	eb 04                	jmp    9bd9 <safe_mod_func_uint8_t_u_u+0x2b>
    9bd5:	0f b6 45 fc          	movzbl -0x4(%rbp),%eax
    9bd9:	5d                   	pop    %rbp
    9bda:	c3                   	retq   

0000000000009bdb <safe_div_func_uint8_t_u_u>:
    9bdb:	f3 0f 1e fa          	endbr64 
    9bdf:	55                   	push   %rbp
    9be0:	48 89 e5             	mov    %rsp,%rbp
    9be3:	89 fa                	mov    %edi,%edx
    9be5:	89 f0                	mov    %esi,%eax
    9be7:	88 55 fc             	mov    %dl,-0x4(%rbp)
    9bea:	88 45 f8             	mov    %al,-0x8(%rbp)
    9bed:	80 7d f8 00          	cmpb   $0x0,-0x8(%rbp)
    9bf1:	74 0c                	je     9bff <safe_div_func_uint8_t_u_u+0x24>
    9bf3:	0f b6 45 fc          	movzbl -0x4(%rbp),%eax
    9bf7:	0f b6 c0             	movzbl %al,%eax
    9bfa:	f6 75 f8             	divb   -0x8(%rbp)
    9bfd:	eb 04                	jmp    9c03 <safe_div_func_uint8_t_u_u+0x28>
    9bff:	0f b6 45 fc          	movzbl -0x4(%rbp),%eax
    9c03:	5d                   	pop    %rbp
    9c04:	c3                   	retq   

0000000000009c05 <safe_lshift_func_uint8_t_u_s>:
    9c05:	f3 0f 1e fa          	endbr64 
    9c09:	55                   	push   %rbp
    9c0a:	48 89 e5             	mov    %rsp,%rbp
    9c0d:	89 f8                	mov    %edi,%eax
    9c0f:	89 75 f8             	mov    %esi,-0x8(%rbp)
    9c12:	88 45 fc             	mov    %al,-0x4(%rbp)
    9c15:	83 7d f8 00          	cmpl   $0x0,-0x8(%rbp)
    9c19:	78 2b                	js     9c46 <safe_lshift_func_uint8_t_u_s+0x41>
    9c1b:	83 7d f8 1f          	cmpl   $0x1f,-0x8(%rbp)
    9c1f:	7f 25                	jg     9c46 <safe_lshift_func_uint8_t_u_s+0x41>
    9c21:	0f b6 55 fc          	movzbl -0x4(%rbp),%edx
    9c25:	8b 45 f8             	mov    -0x8(%rbp),%eax
    9c28:	be ff 00 00 00       	mov    $0xff,%esi
    9c2d:	89 c1                	mov    %eax,%ecx
    9c2f:	d3 fe                	sar    %cl,%esi
    9c31:	89 f0                	mov    %esi,%eax
    9c33:	39 c2                	cmp    %eax,%edx
    9c35:	7f 0f                	jg     9c46 <safe_lshift_func_uint8_t_u_s+0x41>
    9c37:	0f b6 55 fc          	movzbl -0x4(%rbp),%edx
    9c3b:	8b 45 f8             	mov    -0x8(%rbp),%eax
    9c3e:	89 c1                	mov    %eax,%ecx
    9c40:	d3 e2                	shl    %cl,%edx
    9c42:	89 d0                	mov    %edx,%eax
    9c44:	eb 04                	jmp    9c4a <safe_lshift_func_uint8_t_u_s+0x45>
    9c46:	0f b6 45 fc          	movzbl -0x4(%rbp),%eax
    9c4a:	5d                   	pop    %rbp
    9c4b:	c3                   	retq   

0000000000009c4c <safe_lshift_func_uint8_t_u_u>:
    9c4c:	f3 0f 1e fa          	endbr64 
    9c50:	55                   	push   %rbp
    9c51:	48 89 e5             	mov    %rsp,%rbp
    9c54:	89 f8                	mov    %edi,%eax
    9c56:	89 75 f8             	mov    %esi,-0x8(%rbp)
    9c59:	88 45 fc             	mov    %al,-0x4(%rbp)
    9c5c:	83 7d f8 1f          	cmpl   $0x1f,-0x8(%rbp)
    9c60:	77 25                	ja     9c87 <safe_lshift_func_uint8_t_u_u+0x3b>
    9c62:	0f b6 55 fc          	movzbl -0x4(%rbp),%edx
    9c66:	8b 45 f8             	mov    -0x8(%rbp),%eax
    9c69:	be ff 00 00 00       	mov    $0xff,%esi
    9c6e:	89 c1                	mov    %eax,%ecx
    9c70:	d3 fe                	sar    %cl,%esi
    9c72:	89 f0                	mov    %esi,%eax
    9c74:	39 c2                	cmp    %eax,%edx
    9c76:	7f 0f                	jg     9c87 <safe_lshift_func_uint8_t_u_u+0x3b>
    9c78:	0f b6 55 fc          	movzbl -0x4(%rbp),%edx
    9c7c:	8b 45 f8             	mov    -0x8(%rbp),%eax
    9c7f:	89 c1                	mov    %eax,%ecx
    9c81:	d3 e2                	shl    %cl,%edx
    9c83:	89 d0                	mov    %edx,%eax
    9c85:	eb 04                	jmp    9c8b <safe_lshift_func_uint8_t_u_u+0x3f>
    9c87:	0f b6 45 fc          	movzbl -0x4(%rbp),%eax
    9c8b:	5d                   	pop    %rbp
    9c8c:	c3                   	retq   

0000000000009c8d <safe_rshift_func_uint8_t_u_s>:
    9c8d:	f3 0f 1e fa          	endbr64 
    9c91:	55                   	push   %rbp
    9c92:	48 89 e5             	mov    %rsp,%rbp
    9c95:	89 f8                	mov    %edi,%eax
    9c97:	89 75 f8             	mov    %esi,-0x8(%rbp)
    9c9a:	88 45 fc             	mov    %al,-0x4(%rbp)
    9c9d:	83 7d f8 00          	cmpl   $0x0,-0x8(%rbp)
    9ca1:	78 15                	js     9cb8 <safe_rshift_func_uint8_t_u_s+0x2b>
    9ca3:	83 7d f8 1f          	cmpl   $0x1f,-0x8(%rbp)
    9ca7:	7f 0f                	jg     9cb8 <safe_rshift_func_uint8_t_u_s+0x2b>
    9ca9:	0f b6 55 fc          	movzbl -0x4(%rbp),%edx
    9cad:	8b 45 f8             	mov    -0x8(%rbp),%eax
    9cb0:	89 c1                	mov    %eax,%ecx
    9cb2:	d3 fa                	sar    %cl,%edx
    9cb4:	89 d0                	mov    %edx,%eax
    9cb6:	eb 04                	jmp    9cbc <safe_rshift_func_uint8_t_u_s+0x2f>
    9cb8:	0f b6 45 fc          	movzbl -0x4(%rbp),%eax
    9cbc:	5d                   	pop    %rbp
    9cbd:	c3                   	retq   

0000000000009cbe <safe_rshift_func_uint8_t_u_u>:
    9cbe:	f3 0f 1e fa          	endbr64 
    9cc2:	55                   	push   %rbp
    9cc3:	48 89 e5             	mov    %rsp,%rbp
    9cc6:	89 f8                	mov    %edi,%eax
    9cc8:	89 75 f8             	mov    %esi,-0x8(%rbp)
    9ccb:	88 45 fc             	mov    %al,-0x4(%rbp)
    9cce:	83 7d f8 1f          	cmpl   $0x1f,-0x8(%rbp)
    9cd2:	77 0f                	ja     9ce3 <safe_rshift_func_uint8_t_u_u+0x25>
    9cd4:	0f b6 55 fc          	movzbl -0x4(%rbp),%edx
    9cd8:	8b 45 f8             	mov    -0x8(%rbp),%eax
    9cdb:	89 c1                	mov    %eax,%ecx
    9cdd:	d3 fa                	sar    %cl,%edx
    9cdf:	89 d0                	mov    %edx,%eax
    9ce1:	eb 04                	jmp    9ce7 <safe_rshift_func_uint8_t_u_u+0x29>
    9ce3:	0f b6 45 fc          	movzbl -0x4(%rbp),%eax
    9ce7:	5d                   	pop    %rbp
    9ce8:	c3                   	retq   

0000000000009ce9 <safe_unary_minus_func_uint16_t_u>:
    9ce9:	f3 0f 1e fa          	endbr64 
    9ced:	55                   	push   %rbp
    9cee:	48 89 e5             	mov    %rsp,%rbp
    9cf1:	89 f8                	mov    %edi,%eax
    9cf3:	66 89 45 fc          	mov    %ax,-0x4(%rbp)
    9cf7:	0f b7 45 fc          	movzwl -0x4(%rbp),%eax
    9cfb:	f7 d8                	neg    %eax
    9cfd:	5d                   	pop    %rbp
    9cfe:	c3                   	retq   

0000000000009cff <safe_add_func_uint16_t_u_u>:
    9cff:	f3 0f 1e fa          	endbr64 
    9d03:	55                   	push   %rbp
    9d04:	48 89 e5             	mov    %rsp,%rbp
    9d07:	89 fa                	mov    %edi,%edx
    9d09:	89 f0                	mov    %esi,%eax
    9d0b:	66 89 55 fc          	mov    %dx,-0x4(%rbp)
    9d0f:	66 89 45 f8          	mov    %ax,-0x8(%rbp)
    9d13:	0f b7 55 fc          	movzwl -0x4(%rbp),%edx
    9d17:	0f b7 45 f8          	movzwl -0x8(%rbp),%eax
    9d1b:	01 d0                	add    %edx,%eax
    9d1d:	5d                   	pop    %rbp
    9d1e:	c3                   	retq   

0000000000009d1f <safe_sub_func_uint16_t_u_u>:
    9d1f:	f3 0f 1e fa          	endbr64 
    9d23:	55                   	push   %rbp
    9d24:	48 89 e5             	mov    %rsp,%rbp
    9d27:	89 fa                	mov    %edi,%edx
    9d29:	89 f0                	mov    %esi,%eax
    9d2b:	66 89 55 fc          	mov    %dx,-0x4(%rbp)
    9d2f:	66 89 45 f8          	mov    %ax,-0x8(%rbp)
    9d33:	0f b7 45 fc          	movzwl -0x4(%rbp),%eax
    9d37:	66 2b 45 f8          	sub    -0x8(%rbp),%ax
    9d3b:	5d                   	pop    %rbp
    9d3c:	c3                   	retq   

0000000000009d3d <safe_mul_func_uint16_t_u_u>:
    9d3d:	f3 0f 1e fa          	endbr64 
    9d41:	55                   	push   %rbp
    9d42:	48 89 e5             	mov    %rsp,%rbp
    9d45:	89 fa                	mov    %edi,%edx
    9d47:	89 f0                	mov    %esi,%eax
    9d49:	66 89 55 fc          	mov    %dx,-0x4(%rbp)
    9d4d:	66 89 45 f8          	mov    %ax,-0x8(%rbp)
    9d51:	0f b7 45 fc          	movzwl -0x4(%rbp),%eax
    9d55:	66 0f af 45 f8       	imul   -0x8(%rbp),%ax
    9d5a:	5d                   	pop    %rbp
    9d5b:	c3                   	retq   

0000000000009d5c <safe_mod_func_uint16_t_u_u>:
    9d5c:	f3 0f 1e fa          	endbr64 
    9d60:	55                   	push   %rbp
    9d61:	48 89 e5             	mov    %rsp,%rbp
    9d64:	89 fa                	mov    %edi,%edx
    9d66:	89 f0                	mov    %esi,%eax
    9d68:	66 89 55 fc          	mov    %dx,-0x4(%rbp)
    9d6c:	66 89 45 f8          	mov    %ax,-0x8(%rbp)
    9d70:	66 83 7d f8 00       	cmpw   $0x0,-0x8(%rbp)
    9d75:	74 11                	je     9d88 <safe_mod_func_uint16_t_u_u+0x2c>
    9d77:	0f b7 45 fc          	movzwl -0x4(%rbp),%eax
    9d7b:	ba 00 00 00 00       	mov    $0x0,%edx
    9d80:	66 f7 75 f8          	divw   -0x8(%rbp)
    9d84:	89 d0                	mov    %edx,%eax
    9d86:	eb 04                	jmp    9d8c <safe_mod_func_uint16_t_u_u+0x30>
    9d88:	0f b7 45 fc          	movzwl -0x4(%rbp),%eax
    9d8c:	5d                   	pop    %rbp
    9d8d:	c3                   	retq   

0000000000009d8e <safe_div_func_uint16_t_u_u>:
    9d8e:	f3 0f 1e fa          	endbr64 
    9d92:	55                   	push   %rbp
    9d93:	48 89 e5             	mov    %rsp,%rbp
    9d96:	89 fa                	mov    %edi,%edx
    9d98:	89 f0                	mov    %esi,%eax
    9d9a:	66 89 55 fc          	mov    %dx,-0x4(%rbp)
    9d9e:	66 89 45 f8          	mov    %ax,-0x8(%rbp)
    9da2:	66 83 7d f8 00       	cmpw   $0x0,-0x8(%rbp)
    9da7:	74 0f                	je     9db8 <safe_div_func_uint16_t_u_u+0x2a>
    9da9:	0f b7 45 fc          	movzwl -0x4(%rbp),%eax
    9dad:	ba 00 00 00 00       	mov    $0x0,%edx
    9db2:	66 f7 75 f8          	divw   -0x8(%rbp)
    9db6:	eb 04                	jmp    9dbc <safe_div_func_uint16_t_u_u+0x2e>
    9db8:	0f b7 45 fc          	movzwl -0x4(%rbp),%eax
    9dbc:	5d                   	pop    %rbp
    9dbd:	c3                   	retq   

0000000000009dbe <safe_lshift_func_uint16_t_u_s>:
    9dbe:	f3 0f 1e fa          	endbr64 
    9dc2:	55                   	push   %rbp
    9dc3:	48 89 e5             	mov    %rsp,%rbp
    9dc6:	89 f8                	mov    %edi,%eax
    9dc8:	89 75 f8             	mov    %esi,-0x8(%rbp)
    9dcb:	66 89 45 fc          	mov    %ax,-0x4(%rbp)
    9dcf:	83 7d f8 00          	cmpl   $0x0,-0x8(%rbp)
    9dd3:	78 2b                	js     9e00 <safe_lshift_func_uint16_t_u_s+0x42>
    9dd5:	83 7d f8 1f          	cmpl   $0x1f,-0x8(%rbp)
    9dd9:	7f 25                	jg     9e00 <safe_lshift_func_uint16_t_u_s+0x42>
    9ddb:	0f b7 55 fc          	movzwl -0x4(%rbp),%edx
    9ddf:	8b 45 f8             	mov    -0x8(%rbp),%eax
    9de2:	be ff ff 00 00       	mov    $0xffff,%esi
    9de7:	89 c1                	mov    %eax,%ecx
    9de9:	d3 fe                	sar    %cl,%esi
    9deb:	89 f0                	mov    %esi,%eax
    9ded:	39 c2                	cmp    %eax,%edx
    9def:	7f 0f                	jg     9e00 <safe_lshift_func_uint16_t_u_s+0x42>
    9df1:	0f b7 55 fc          	movzwl -0x4(%rbp),%edx
    9df5:	8b 45 f8             	mov    -0x8(%rbp),%eax
    9df8:	89 c1                	mov    %eax,%ecx
    9dfa:	d3 e2                	shl    %cl,%edx
    9dfc:	89 d0                	mov    %edx,%eax
    9dfe:	eb 04                	jmp    9e04 <safe_lshift_func_uint16_t_u_s+0x46>
    9e00:	0f b7 45 fc          	movzwl -0x4(%rbp),%eax
    9e04:	5d                   	pop    %rbp
    9e05:	c3                   	retq   

0000000000009e06 <safe_lshift_func_uint16_t_u_u>:
    9e06:	f3 0f 1e fa          	endbr64 
    9e0a:	55                   	push   %rbp
    9e0b:	48 89 e5             	mov    %rsp,%rbp
    9e0e:	89 f8                	mov    %edi,%eax
    9e10:	89 75 f8             	mov    %esi,-0x8(%rbp)
    9e13:	66 89 45 fc          	mov    %ax,-0x4(%rbp)
    9e17:	83 7d f8 1f          	cmpl   $0x1f,-0x8(%rbp)
    9e1b:	77 25                	ja     9e42 <safe_lshift_func_uint16_t_u_u+0x3c>
    9e1d:	0f b7 55 fc          	movzwl -0x4(%rbp),%edx
    9e21:	8b 45 f8             	mov    -0x8(%rbp),%eax
    9e24:	be ff ff 00 00       	mov    $0xffff,%esi
    9e29:	89 c1                	mov    %eax,%ecx
    9e2b:	d3 fe                	sar    %cl,%esi
    9e2d:	89 f0                	mov    %esi,%eax
    9e2f:	39 c2                	cmp    %eax,%edx
    9e31:	7f 0f                	jg     9e42 <safe_lshift_func_uint16_t_u_u+0x3c>
    9e33:	0f b7 55 fc          	movzwl -0x4(%rbp),%edx
    9e37:	8b 45 f8             	mov    -0x8(%rbp),%eax
    9e3a:	89 c1                	mov    %eax,%ecx
    9e3c:	d3 e2                	shl    %cl,%edx
    9e3e:	89 d0                	mov    %edx,%eax
    9e40:	eb 04                	jmp    9e46 <safe_lshift_func_uint16_t_u_u+0x40>
    9e42:	0f b7 45 fc          	movzwl -0x4(%rbp),%eax
    9e46:	5d                   	pop    %rbp
    9e47:	c3                   	retq   

0000000000009e48 <safe_rshift_func_uint16_t_u_s>:
    9e48:	f3 0f 1e fa          	endbr64 
    9e4c:	55                   	push   %rbp
    9e4d:	48 89 e5             	mov    %rsp,%rbp
    9e50:	89 f8                	mov    %edi,%eax
    9e52:	89 75 f8             	mov    %esi,-0x8(%rbp)
    9e55:	66 89 45 fc          	mov    %ax,-0x4(%rbp)
    9e59:	83 7d f8 00          	cmpl   $0x0,-0x8(%rbp)
    9e5d:	78 15                	js     9e74 <safe_rshift_func_uint16_t_u_s+0x2c>
    9e5f:	83 7d f8 1f          	cmpl   $0x1f,-0x8(%rbp)
    9e63:	7f 0f                	jg     9e74 <safe_rshift_func_uint16_t_u_s+0x2c>
    9e65:	0f b7 55 fc          	movzwl -0x4(%rbp),%edx
    9e69:	8b 45 f8             	mov    -0x8(%rbp),%eax
    9e6c:	89 c1                	mov    %eax,%ecx
    9e6e:	d3 fa                	sar    %cl,%edx
    9e70:	89 d0                	mov    %edx,%eax
    9e72:	eb 04                	jmp    9e78 <safe_rshift_func_uint16_t_u_s+0x30>
    9e74:	0f b7 45 fc          	movzwl -0x4(%rbp),%eax
    9e78:	5d                   	pop    %rbp
    9e79:	c3                   	retq   

0000000000009e7a <safe_rshift_func_uint16_t_u_u>:
    9e7a:	f3 0f 1e fa          	endbr64 
    9e7e:	55                   	push   %rbp
    9e7f:	48 89 e5             	mov    %rsp,%rbp
    9e82:	89 f8                	mov    %edi,%eax
    9e84:	89 75 f8             	mov    %esi,-0x8(%rbp)
    9e87:	66 89 45 fc          	mov    %ax,-0x4(%rbp)
    9e8b:	83 7d f8 1f          	cmpl   $0x1f,-0x8(%rbp)
    9e8f:	77 0f                	ja     9ea0 <safe_rshift_func_uint16_t_u_u+0x26>
    9e91:	0f b7 55 fc          	movzwl -0x4(%rbp),%edx
    9e95:	8b 45 f8             	mov    -0x8(%rbp),%eax
    9e98:	89 c1                	mov    %eax,%ecx
    9e9a:	d3 fa                	sar    %cl,%edx
    9e9c:	89 d0                	mov    %edx,%eax
    9e9e:	eb 04                	jmp    9ea4 <safe_rshift_func_uint16_t_u_u+0x2a>
    9ea0:	0f b7 45 fc          	movzwl -0x4(%rbp),%eax
    9ea4:	5d                   	pop    %rbp
    9ea5:	c3                   	retq   

0000000000009ea6 <safe_unary_minus_func_uint32_t_u>:
    9ea6:	f3 0f 1e fa          	endbr64 
    9eaa:	55                   	push   %rbp
    9eab:	48 89 e5             	mov    %rsp,%rbp
    9eae:	89 7d fc             	mov    %edi,-0x4(%rbp)
    9eb1:	8b 45 fc             	mov    -0x4(%rbp),%eax
    9eb4:	f7 d8                	neg    %eax
    9eb6:	5d                   	pop    %rbp
    9eb7:	c3                   	retq   

0000000000009eb8 <safe_add_func_uint32_t_u_u>:
    9eb8:	f3 0f 1e fa          	endbr64 
    9ebc:	55                   	push   %rbp
    9ebd:	48 89 e5             	mov    %rsp,%rbp
    9ec0:	89 7d fc             	mov    %edi,-0x4(%rbp)
    9ec3:	89 75 f8             	mov    %esi,-0x8(%rbp)
    9ec6:	8b 55 fc             	mov    -0x4(%rbp),%edx
    9ec9:	8b 45 f8             	mov    -0x8(%rbp),%eax
    9ecc:	01 d0                	add    %edx,%eax
    9ece:	5d                   	pop    %rbp
    9ecf:	c3                   	retq   

0000000000009ed0 <safe_sub_func_uint32_t_u_u>:
    9ed0:	f3 0f 1e fa          	endbr64 
    9ed4:	55                   	push   %rbp
    9ed5:	48 89 e5             	mov    %rsp,%rbp
    9ed8:	89 7d fc             	mov    %edi,-0x4(%rbp)
    9edb:	89 75 f8             	mov    %esi,-0x8(%rbp)
    9ede:	8b 45 fc             	mov    -0x4(%rbp),%eax
    9ee1:	2b 45 f8             	sub    -0x8(%rbp),%eax
    9ee4:	5d                   	pop    %rbp
    9ee5:	c3                   	retq   

0000000000009ee6 <safe_mul_func_uint32_t_u_u>:
    9ee6:	f3 0f 1e fa          	endbr64 
    9eea:	55                   	push   %rbp
    9eeb:	48 89 e5             	mov    %rsp,%rbp
    9eee:	89 7d fc             	mov    %edi,-0x4(%rbp)
    9ef1:	89 75 f8             	mov    %esi,-0x8(%rbp)
    9ef4:	8b 45 fc             	mov    -0x4(%rbp),%eax
    9ef7:	0f af 45 f8          	imul   -0x8(%rbp),%eax
    9efb:	5d                   	pop    %rbp
    9efc:	c3                   	retq   

0000000000009efd <safe_mod_func_uint32_t_u_u>:
    9efd:	f3 0f 1e fa          	endbr64 
    9f01:	55                   	push   %rbp
    9f02:	48 89 e5             	mov    %rsp,%rbp
    9f05:	89 7d fc             	mov    %edi,-0x4(%rbp)
    9f08:	89 75 f8             	mov    %esi,-0x8(%rbp)
    9f0b:	83 7d f8 00          	cmpl   $0x0,-0x8(%rbp)
    9f0f:	74 0f                	je     9f20 <safe_mod_func_uint32_t_u_u+0x23>
    9f11:	8b 45 fc             	mov    -0x4(%rbp),%eax
    9f14:	ba 00 00 00 00       	mov    $0x0,%edx
    9f19:	f7 75 f8             	divl   -0x8(%rbp)
    9f1c:	89 d0                	mov    %edx,%eax
    9f1e:	eb 03                	jmp    9f23 <safe_mod_func_uint32_t_u_u+0x26>
    9f20:	8b 45 fc             	mov    -0x4(%rbp),%eax
    9f23:	5d                   	pop    %rbp
    9f24:	c3                   	retq   

0000000000009f25 <safe_div_func_uint32_t_u_u>:
    9f25:	f3 0f 1e fa          	endbr64 
    9f29:	55                   	push   %rbp
    9f2a:	48 89 e5             	mov    %rsp,%rbp
    9f2d:	89 7d fc             	mov    %edi,-0x4(%rbp)
    9f30:	89 75 f8             	mov    %esi,-0x8(%rbp)
    9f33:	83 7d f8 00          	cmpl   $0x0,-0x8(%rbp)
    9f37:	74 0d                	je     9f46 <safe_div_func_uint32_t_u_u+0x21>
    9f39:	8b 45 fc             	mov    -0x4(%rbp),%eax
    9f3c:	ba 00 00 00 00       	mov    $0x0,%edx
    9f41:	f7 75 f8             	divl   -0x8(%rbp)
    9f44:	eb 03                	jmp    9f49 <safe_div_func_uint32_t_u_u+0x24>
    9f46:	8b 45 fc             	mov    -0x4(%rbp),%eax
    9f49:	5d                   	pop    %rbp
    9f4a:	c3                   	retq   

0000000000009f4b <safe_lshift_func_uint32_t_u_s>:
    9f4b:	f3 0f 1e fa          	endbr64 
    9f4f:	55                   	push   %rbp
    9f50:	48 89 e5             	mov    %rsp,%rbp
    9f53:	89 7d fc             	mov    %edi,-0x4(%rbp)
    9f56:	89 75 f8             	mov    %esi,-0x8(%rbp)
    9f59:	83 7d f8 00          	cmpl   $0x0,-0x8(%rbp)
    9f5d:	78 27                	js     9f86 <safe_lshift_func_uint32_t_u_s+0x3b>
    9f5f:	83 7d f8 1f          	cmpl   $0x1f,-0x8(%rbp)
    9f63:	7f 21                	jg     9f86 <safe_lshift_func_uint32_t_u_s+0x3b>
    9f65:	8b 45 f8             	mov    -0x8(%rbp),%eax
    9f68:	ba ff ff ff ff       	mov    $0xffffffff,%edx
    9f6d:	89 c1                	mov    %eax,%ecx
    9f6f:	d3 ea                	shr    %cl,%edx
    9f71:	89 d0                	mov    %edx,%eax
    9f73:	39 45 fc             	cmp    %eax,-0x4(%rbp)
    9f76:	77 0e                	ja     9f86 <safe_lshift_func_uint32_t_u_s+0x3b>
    9f78:	8b 45 f8             	mov    -0x8(%rbp),%eax
    9f7b:	8b 55 fc             	mov    -0x4(%rbp),%edx
    9f7e:	89 c1                	mov    %eax,%ecx
    9f80:	d3 e2                	shl    %cl,%edx
    9f82:	89 d0                	mov    %edx,%eax
    9f84:	eb 03                	jmp    9f89 <safe_lshift_func_uint32_t_u_s+0x3e>
    9f86:	8b 45 fc             	mov    -0x4(%rbp),%eax
    9f89:	5d                   	pop    %rbp
    9f8a:	c3                   	retq   

0000000000009f8b <safe_lshift_func_uint32_t_u_u>:
    9f8b:	f3 0f 1e fa          	endbr64 
    9f8f:	55                   	push   %rbp
    9f90:	48 89 e5             	mov    %rsp,%rbp
    9f93:	89 7d fc             	mov    %edi,-0x4(%rbp)
    9f96:	89 75 f8             	mov    %esi,-0x8(%rbp)
    9f99:	83 7d f8 1f          	cmpl   $0x1f,-0x8(%rbp)
    9f9d:	77 21                	ja     9fc0 <safe_lshift_func_uint32_t_u_u+0x35>
    9f9f:	8b 45 f8             	mov    -0x8(%rbp),%eax
    9fa2:	ba ff ff ff ff       	mov    $0xffffffff,%edx
    9fa7:	89 c1                	mov    %eax,%ecx
    9fa9:	d3 ea                	shr    %cl,%edx
    9fab:	89 d0                	mov    %edx,%eax
    9fad:	39 45 fc             	cmp    %eax,-0x4(%rbp)
    9fb0:	77 0e                	ja     9fc0 <safe_lshift_func_uint32_t_u_u+0x35>
    9fb2:	8b 45 f8             	mov    -0x8(%rbp),%eax
    9fb5:	8b 55 fc             	mov    -0x4(%rbp),%edx
    9fb8:	89 c1                	mov    %eax,%ecx
    9fba:	d3 e2                	shl    %cl,%edx
    9fbc:	89 d0                	mov    %edx,%eax
    9fbe:	eb 03                	jmp    9fc3 <safe_lshift_func_uint32_t_u_u+0x38>
    9fc0:	8b 45 fc             	mov    -0x4(%rbp),%eax
    9fc3:	5d                   	pop    %rbp
    9fc4:	c3                   	retq   

0000000000009fc5 <safe_rshift_func_uint32_t_u_s>:
    9fc5:	f3 0f 1e fa          	endbr64 
    9fc9:	55                   	push   %rbp
    9fca:	48 89 e5             	mov    %rsp,%rbp
    9fcd:	89 7d fc             	mov    %edi,-0x4(%rbp)
    9fd0:	89 75 f8             	mov    %esi,-0x8(%rbp)
    9fd3:	83 7d f8 00          	cmpl   $0x0,-0x8(%rbp)
    9fd7:	78 14                	js     9fed <safe_rshift_func_uint32_t_u_s+0x28>
    9fd9:	83 7d f8 1f          	cmpl   $0x1f,-0x8(%rbp)
    9fdd:	7f 0e                	jg     9fed <safe_rshift_func_uint32_t_u_s+0x28>
    9fdf:	8b 45 f8             	mov    -0x8(%rbp),%eax
    9fe2:	8b 55 fc             	mov    -0x4(%rbp),%edx
    9fe5:	89 c1                	mov    %eax,%ecx
    9fe7:	d3 ea                	shr    %cl,%edx
    9fe9:	89 d0                	mov    %edx,%eax
    9feb:	eb 03                	jmp    9ff0 <safe_rshift_func_uint32_t_u_s+0x2b>
    9fed:	8b 45 fc             	mov    -0x4(%rbp),%eax
    9ff0:	5d                   	pop    %rbp
    9ff1:	c3                   	retq   

0000000000009ff2 <safe_rshift_func_uint32_t_u_u>:
    9ff2:	f3 0f 1e fa          	endbr64 
    9ff6:	55                   	push   %rbp
    9ff7:	48 89 e5             	mov    %rsp,%rbp
    9ffa:	89 7d fc             	mov    %edi,-0x4(%rbp)
    9ffd:	89 75 f8             	mov    %esi,-0x8(%rbp)
    a000:	83 7d f8 1f          	cmpl   $0x1f,-0x8(%rbp)
    a004:	77 0e                	ja     a014 <safe_rshift_func_uint32_t_u_u+0x22>
    a006:	8b 45 f8             	mov    -0x8(%rbp),%eax
    a009:	8b 55 fc             	mov    -0x4(%rbp),%edx
    a00c:	89 c1                	mov    %eax,%ecx
    a00e:	d3 ea                	shr    %cl,%edx
    a010:	89 d0                	mov    %edx,%eax
    a012:	eb 03                	jmp    a017 <safe_rshift_func_uint32_t_u_u+0x25>
    a014:	8b 45 fc             	mov    -0x4(%rbp),%eax
    a017:	5d                   	pop    %rbp
    a018:	c3                   	retq   

000000000000a019 <safe_unary_minus_func_uint64_t_u>:
    a019:	f3 0f 1e fa          	endbr64 
    a01d:	55                   	push   %rbp
    a01e:	48 89 e5             	mov    %rsp,%rbp
    a021:	48 89 7d f8          	mov    %rdi,-0x8(%rbp)
    a025:	48 8b 45 f8          	mov    -0x8(%rbp),%rax
    a029:	48 f7 d8             	neg    %rax
    a02c:	5d                   	pop    %rbp
    a02d:	c3                   	retq   

000000000000a02e <safe_add_func_uint64_t_u_u>:
    a02e:	f3 0f 1e fa          	endbr64 
    a032:	55                   	push   %rbp
    a033:	48 89 e5             	mov    %rsp,%rbp
    a036:	48 89 7d f8          	mov    %rdi,-0x8(%rbp)
    a03a:	48 89 75 f0          	mov    %rsi,-0x10(%rbp)
    a03e:	48 8b 55 f8          	mov    -0x8(%rbp),%rdx
    a042:	48 8b 45 f0          	mov    -0x10(%rbp),%rax
    a046:	48 01 d0             	add    %rdx,%rax
    a049:	5d                   	pop    %rbp
    a04a:	c3                   	retq   

000000000000a04b <safe_sub_func_uint64_t_u_u>:
    a04b:	f3 0f 1e fa          	endbr64 
    a04f:	55                   	push   %rbp
    a050:	48 89 e5             	mov    %rsp,%rbp
    a053:	48 89 7d f8          	mov    %rdi,-0x8(%rbp)
    a057:	48 89 75 f0          	mov    %rsi,-0x10(%rbp)
    a05b:	48 8b 45 f8          	mov    -0x8(%rbp),%rax
    a05f:	48 2b 45 f0          	sub    -0x10(%rbp),%rax
    a063:	5d                   	pop    %rbp
    a064:	c3                   	retq   

000000000000a065 <safe_mul_func_uint64_t_u_u>:
    a065:	f3 0f 1e fa          	endbr64 
    a069:	55                   	push   %rbp
    a06a:	48 89 e5             	mov    %rsp,%rbp
    a06d:	48 89 7d f8          	mov    %rdi,-0x8(%rbp)
    a071:	48 89 75 f0          	mov    %rsi,-0x10(%rbp)
    a075:	48 8b 45 f8          	mov    -0x8(%rbp),%rax
    a079:	48 0f af 45 f0       	imul   -0x10(%rbp),%rax
    a07e:	5d                   	pop    %rbp
    a07f:	c3                   	retq   

000000000000a080 <safe_mod_func_uint64_t_u_u>:
    a080:	f3 0f 1e fa          	endbr64 
    a084:	55                   	push   %rbp
    a085:	48 89 e5             	mov    %rsp,%rbp
    a088:	48 89 7d f8          	mov    %rdi,-0x8(%rbp)
    a08c:	48 89 75 f0          	mov    %rsi,-0x10(%rbp)
    a090:	48 83 7d f0 00       	cmpq   $0x0,-0x10(%rbp)
    a095:	74 12                	je     a0a9 <safe_mod_func_uint64_t_u_u+0x29>
    a097:	48 8b 45 f8          	mov    -0x8(%rbp),%rax
    a09b:	ba 00 00 00 00       	mov    $0x0,%edx
    a0a0:	48 f7 75 f0          	divq   -0x10(%rbp)
    a0a4:	48 89 d0             	mov    %rdx,%rax
    a0a7:	eb 04                	jmp    a0ad <safe_mod_func_uint64_t_u_u+0x2d>
    a0a9:	48 8b 45 f8          	mov    -0x8(%rbp),%rax
    a0ad:	5d                   	pop    %rbp
    a0ae:	c3                   	retq   

000000000000a0af <safe_div_func_uint64_t_u_u>:
    a0af:	f3 0f 1e fa          	endbr64 
    a0b3:	55                   	push   %rbp
    a0b4:	48 89 e5             	mov    %rsp,%rbp
    a0b7:	48 89 7d f8          	mov    %rdi,-0x8(%rbp)
    a0bb:	48 89 75 f0          	mov    %rsi,-0x10(%rbp)
    a0bf:	48 83 7d f0 00       	cmpq   $0x0,-0x10(%rbp)
    a0c4:	74 0f                	je     a0d5 <safe_div_func_uint64_t_u_u+0x26>
    a0c6:	48 8b 45 f8          	mov    -0x8(%rbp),%rax
    a0ca:	ba 00 00 00 00       	mov    $0x0,%edx
    a0cf:	48 f7 75 f0          	divq   -0x10(%rbp)
    a0d3:	eb 04                	jmp    a0d9 <safe_div_func_uint64_t_u_u+0x2a>
    a0d5:	48 8b 45 f8          	mov    -0x8(%rbp),%rax
    a0d9:	5d                   	pop    %rbp
    a0da:	c3                   	retq   

000000000000a0db <safe_lshift_func_uint64_t_u_s>:
    a0db:	f3 0f 1e fa          	endbr64 
    a0df:	55                   	push   %rbp
    a0e0:	48 89 e5             	mov    %rsp,%rbp
    a0e3:	48 89 7d f8          	mov    %rdi,-0x8(%rbp)
    a0e7:	89 75 f4             	mov    %esi,-0xc(%rbp)
    a0ea:	83 7d f4 00          	cmpl   $0x0,-0xc(%rbp)
    a0ee:	78 2f                	js     a11f <safe_lshift_func_uint64_t_u_s+0x44>
    a0f0:	83 7d f4 1f          	cmpl   $0x1f,-0xc(%rbp)
    a0f4:	7f 29                	jg     a11f <safe_lshift_func_uint64_t_u_s+0x44>
    a0f6:	8b 45 f4             	mov    -0xc(%rbp),%eax
    a0f9:	48 c7 c2 ff ff ff ff 	mov    $0xffffffffffffffff,%rdx
    a100:	89 c1                	mov    %eax,%ecx
    a102:	48 d3 ea             	shr    %cl,%rdx
    a105:	48 89 d0             	mov    %rdx,%rax
    a108:	48 39 45 f8          	cmp    %rax,-0x8(%rbp)
    a10c:	77 11                	ja     a11f <safe_lshift_func_uint64_t_u_s+0x44>
    a10e:	8b 45 f4             	mov    -0xc(%rbp),%eax
    a111:	48 8b 55 f8          	mov    -0x8(%rbp),%rdx
    a115:	89 c1                	mov    %eax,%ecx
    a117:	48 d3 e2             	shl    %cl,%rdx
    a11a:	48 89 d0             	mov    %rdx,%rax
    a11d:	eb 04                	jmp    a123 <safe_lshift_func_uint64_t_u_s+0x48>
    a11f:	48 8b 45 f8          	mov    -0x8(%rbp),%rax
    a123:	5d                   	pop    %rbp
    a124:	c3                   	retq   

000000000000a125 <safe_lshift_func_uint64_t_u_u>:
    a125:	f3 0f 1e fa          	endbr64 
    a129:	55                   	push   %rbp
    a12a:	48 89 e5             	mov    %rsp,%rbp
    a12d:	48 89 7d f8          	mov    %rdi,-0x8(%rbp)
    a131:	89 75 f4             	mov    %esi,-0xc(%rbp)
    a134:	83 7d f4 1f          	cmpl   $0x1f,-0xc(%rbp)
    a138:	77 29                	ja     a163 <safe_lshift_func_uint64_t_u_u+0x3e>
    a13a:	8b 45 f4             	mov    -0xc(%rbp),%eax
    a13d:	48 c7 c2 ff ff ff ff 	mov    $0xffffffffffffffff,%rdx
    a144:	89 c1                	mov    %eax,%ecx
    a146:	48 d3 ea             	shr    %cl,%rdx
    a149:	48 89 d0             	mov    %rdx,%rax
    a14c:	48 39 45 f8          	cmp    %rax,-0x8(%rbp)
    a150:	77 11                	ja     a163 <safe_lshift_func_uint64_t_u_u+0x3e>
    a152:	8b 45 f4             	mov    -0xc(%rbp),%eax
    a155:	48 8b 55 f8          	mov    -0x8(%rbp),%rdx
    a159:	89 c1                	mov    %eax,%ecx
    a15b:	48 d3 e2             	shl    %cl,%rdx
    a15e:	48 89 d0             	mov    %rdx,%rax
    a161:	eb 04                	jmp    a167 <safe_lshift_func_uint64_t_u_u+0x42>
    a163:	48 8b 45 f8          	mov    -0x8(%rbp),%rax
    a167:	5d                   	pop    %rbp
    a168:	c3                   	retq   

000000000000a169 <safe_rshift_func_uint64_t_u_s>:
    a169:	f3 0f 1e fa          	endbr64 
    a16d:	55                   	push   %rbp
    a16e:	48 89 e5             	mov    %rsp,%rbp
    a171:	48 89 7d f8          	mov    %rdi,-0x8(%rbp)
    a175:	89 75 f4             	mov    %esi,-0xc(%rbp)
    a178:	83 7d f4 00          	cmpl   $0x0,-0xc(%rbp)
    a17c:	78 17                	js     a195 <safe_rshift_func_uint64_t_u_s+0x2c>
    a17e:	83 7d f4 1f          	cmpl   $0x1f,-0xc(%rbp)
    a182:	7f 11                	jg     a195 <safe_rshift_func_uint64_t_u_s+0x2c>
    a184:	8b 45 f4             	mov    -0xc(%rbp),%eax
    a187:	48 8b 55 f8          	mov    -0x8(%rbp),%rdx
    a18b:	89 c1                	mov    %eax,%ecx
    a18d:	48 d3 ea             	shr    %cl,%rdx
    a190:	48 89 d0             	mov    %rdx,%rax
    a193:	eb 04                	jmp    a199 <safe_rshift_func_uint64_t_u_s+0x30>
    a195:	48 8b 45 f8          	mov    -0x8(%rbp),%rax
    a199:	5d                   	pop    %rbp
    a19a:	c3                   	retq   

000000000000a19b <safe_rshift_func_uint64_t_u_u>:
    a19b:	f3 0f 1e fa          	endbr64 
    a19f:	55                   	push   %rbp
    a1a0:	48 89 e5             	mov    %rsp,%rbp
    a1a3:	48 89 7d f8          	mov    %rdi,-0x8(%rbp)
    a1a7:	89 75 f4             	mov    %esi,-0xc(%rbp)
    a1aa:	83 7d f4 1f          	cmpl   $0x1f,-0xc(%rbp)
    a1ae:	77 11                	ja     a1c1 <safe_rshift_func_uint64_t_u_u+0x26>
    a1b0:	8b 45 f4             	mov    -0xc(%rbp),%eax
    a1b3:	48 8b 55 f8          	mov    -0x8(%rbp),%rdx
    a1b7:	89 c1                	mov    %eax,%ecx
    a1b9:	48 d3 ea             	shr    %cl,%rdx
    a1bc:	48 89 d0             	mov    %rdx,%rax
    a1bf:	eb 04                	jmp    a1c5 <safe_rshift_func_uint64_t_u_u+0x2a>
    a1c1:	48 8b 45 f8          	mov    -0x8(%rbp),%rax
    a1c5:	5d                   	pop    %rbp
    a1c6:	c3                   	retq   

000000000000a1c7 <safe_add_func_float_f_f>:
    a1c7:	f3 0f 1e fa          	endbr64 
    a1cb:	55                   	push   %rbp
    a1cc:	48 89 e5             	mov    %rsp,%rbp
    a1cf:	f3 0f 11 45 fc       	movss  %xmm0,-0x4(%rbp)
    a1d4:	f3 0f 11 4d f8       	movss  %xmm1,-0x8(%rbp)
    a1d9:	f3 0f 10 4d fc       	movss  -0x4(%rbp),%xmm1
    a1de:	f3 0f 10 05 12 92 00 	movss  0x9212(%rip),%xmm0        # 133f8 <l_514.4574+0x258>
    a1e5:	00 
    a1e6:	f3 0f 59 c8          	mulss  %xmm0,%xmm1
    a1ea:	f3 0f 10 55 f8       	movss  -0x8(%rbp),%xmm2
    a1ef:	f3 0f 10 05 01 92 00 	movss  0x9201(%rip),%xmm0        # 133f8 <l_514.4574+0x258>
    a1f6:	00 
    a1f7:	f3 0f 59 c2          	mulss  %xmm2,%xmm0
    a1fb:	f3 0f 58 c1          	addss  %xmm1,%xmm0
    a1ff:	f3 0f 10 0d f9 91 00 	movss  0x91f9(%rip),%xmm1        # 13400 <l_514.4574+0x260>
    a206:	00 
    a207:	0f 54 c1             	andps  %xmm1,%xmm0
    a20a:	0f 2f 05 ff 91 00 00 	comiss 0x91ff(%rip),%xmm0        # 13410 <l_514.4574+0x270>
    a211:	76 07                	jbe    a21a <safe_add_func_float_f_f+0x53>
    a213:	f3 0f 10 45 fc       	movss  -0x4(%rbp),%xmm0
    a218:	eb 0a                	jmp    a224 <safe_add_func_float_f_f+0x5d>
    a21a:	f3 0f 10 45 fc       	movss  -0x4(%rbp),%xmm0
    a21f:	f3 0f 58 45 f8       	addss  -0x8(%rbp),%xmm0
    a224:	5d                   	pop    %rbp
    a225:	c3                   	retq   

000000000000a226 <safe_sub_func_float_f_f>:
    a226:	f3 0f 1e fa          	endbr64 
    a22a:	55                   	push   %rbp
    a22b:	48 89 e5             	mov    %rsp,%rbp
    a22e:	f3 0f 11 45 fc       	movss  %xmm0,-0x4(%rbp)
    a233:	f3 0f 11 4d f8       	movss  %xmm1,-0x8(%rbp)
    a238:	f3 0f 10 4d fc       	movss  -0x4(%rbp),%xmm1
    a23d:	f3 0f 10 05 b3 91 00 	movss  0x91b3(%rip),%xmm0        # 133f8 <l_514.4574+0x258>
    a244:	00 
    a245:	f3 0f 59 c1          	mulss  %xmm1,%xmm0
    a249:	f3 0f 10 55 f8       	movss  -0x8(%rbp),%xmm2
    a24e:	f3 0f 10 0d a2 91 00 	movss  0x91a2(%rip),%xmm1        # 133f8 <l_514.4574+0x258>
    a255:	00 
    a256:	f3 0f 59 ca          	mulss  %xmm2,%xmm1
    a25a:	f3 0f 5c c1          	subss  %xmm1,%xmm0
    a25e:	f3 0f 10 0d 9a 91 00 	movss  0x919a(%rip),%xmm1        # 13400 <l_514.4574+0x260>
    a265:	00 
    a266:	0f 54 c1             	andps  %xmm1,%xmm0
    a269:	0f 2f 05 a0 91 00 00 	comiss 0x91a0(%rip),%xmm0        # 13410 <l_514.4574+0x270>
    a270:	76 07                	jbe    a279 <safe_sub_func_float_f_f+0x53>
    a272:	f3 0f 10 45 fc       	movss  -0x4(%rbp),%xmm0
    a277:	eb 0a                	jmp    a283 <safe_sub_func_float_f_f+0x5d>
    a279:	f3 0f 10 45 fc       	movss  -0x4(%rbp),%xmm0
    a27e:	f3 0f 5c 45 f8       	subss  -0x8(%rbp),%xmm0
    a283:	5d                   	pop    %rbp
    a284:	c3                   	retq   

000000000000a285 <safe_mul_func_float_f_f>:
    a285:	f3 0f 1e fa          	endbr64 
    a289:	55                   	push   %rbp
    a28a:	48 89 e5             	mov    %rsp,%rbp
    a28d:	f3 0f 11 45 fc       	movss  %xmm0,-0x4(%rbp)
    a292:	f3 0f 11 4d f8       	movss  %xmm1,-0x8(%rbp)
    a297:	f3 0f 10 4d fc       	movss  -0x4(%rbp),%xmm1
    a29c:	f3 0f 10 05 70 91 00 	movss  0x9170(%rip),%xmm0        # 13414 <l_514.4574+0x274>
    a2a3:	00 
    a2a4:	f3 0f 59 c8          	mulss  %xmm0,%xmm1
    a2a8:	f3 0f 10 55 f8       	movss  -0x8(%rbp),%xmm2
    a2ad:	f3 0f 10 05 63 91 00 	movss  0x9163(%rip),%xmm0        # 13418 <l_514.4574+0x278>
    a2b4:	00 
    a2b5:	f3 0f 59 c2          	mulss  %xmm2,%xmm0
    a2b9:	f3 0f 59 c1          	mulss  %xmm1,%xmm0
    a2bd:	f3 0f 10 0d 3b 91 00 	movss  0x913b(%rip),%xmm1        # 13400 <l_514.4574+0x260>
    a2c4:	00 
    a2c5:	0f 54 c1             	andps  %xmm1,%xmm0
    a2c8:	0f 2f 05 4d 91 00 00 	comiss 0x914d(%rip),%xmm0        # 1341c <l_514.4574+0x27c>
    a2cf:	76 07                	jbe    a2d8 <safe_mul_func_float_f_f+0x53>
    a2d1:	f3 0f 10 45 fc       	movss  -0x4(%rbp),%xmm0
    a2d6:	eb 0a                	jmp    a2e2 <safe_mul_func_float_f_f+0x5d>
    a2d8:	f3 0f 10 45 fc       	movss  -0x4(%rbp),%xmm0
    a2dd:	f3 0f 59 45 f8       	mulss  -0x8(%rbp),%xmm0
    a2e2:	5d                   	pop    %rbp
    a2e3:	c3                   	retq   

000000000000a2e4 <safe_div_func_float_f_f>:
    a2e4:	f3 0f 1e fa          	endbr64 
    a2e8:	55                   	push   %rbp
    a2e9:	48 89 e5             	mov    %rsp,%rbp
    a2ec:	f3 0f 11 45 fc       	movss  %xmm0,-0x4(%rbp)
    a2f1:	f3 0f 11 4d f8       	movss  %xmm1,-0x8(%rbp)
    a2f6:	f3 0f 10 45 f8       	movss  -0x8(%rbp),%xmm0
    a2fb:	f3 0f 10 0d fd 90 00 	movss  0x90fd(%rip),%xmm1        # 13400 <l_514.4574+0x260>
    a302:	00 
    a303:	0f 54 c8             	andps  %xmm0,%xmm1
    a306:	f3 0f 10 05 12 91 00 	movss  0x9112(%rip),%xmm0        # 13420 <l_514.4574+0x280>
    a30d:	00 
    a30e:	0f 2f c1             	comiss %xmm1,%xmm0
    a311:	0f 97 c0             	seta   %al
    a314:	83 f0 01             	xor    $0x1,%eax
    a317:	84 c0                	test   %al,%al
    a319:	75 56                	jne    a371 <safe_div_func_float_f_f+0x8d>
    a31b:	66 0f ef c0          	pxor   %xmm0,%xmm0
    a31f:	0f 2e 45 f8          	ucomiss -0x8(%rbp),%xmm0
    a323:	7a 0a                	jp     a32f <safe_div_func_float_f_f+0x4b>
    a325:	66 0f ef c0          	pxor   %xmm0,%xmm0
    a329:	0f 2e 45 f8          	ucomiss -0x8(%rbp),%xmm0
    a32d:	74 4e                	je     a37d <safe_div_func_float_f_f+0x99>
    a32f:	f3 0f 10 4d fc       	movss  -0x4(%rbp),%xmm1
    a334:	f3 0f 10 05 e8 90 00 	movss  0x90e8(%rip),%xmm0        # 13424 <l_514.4574+0x284>
    a33b:	00 
    a33c:	f3 0f 59 c1          	mulss  %xmm1,%xmm0
    a340:	f3 0f 10 55 f8       	movss  -0x8(%rbp),%xmm2
    a345:	f3 0f 10 0d db 90 00 	movss  0x90db(%rip),%xmm1        # 13428 <l_514.4574+0x288>
    a34c:	00 
    a34d:	f3 0f 59 ca          	mulss  %xmm2,%xmm1
    a351:	f3 0f 5e c1          	divss  %xmm1,%xmm0
    a355:	f3 0f 10 0d a3 90 00 	movss  0x90a3(%rip),%xmm1        # 13400 <l_514.4574+0x260>
    a35c:	00 
    a35d:	0f 54 c1             	andps  %xmm1,%xmm0
    a360:	0f 2f 05 c5 90 00 00 	comiss 0x90c5(%rip),%xmm0        # 1342c <l_514.4574+0x28c>
    a367:	0f 97 c0             	seta   %al
    a36a:	83 f0 01             	xor    $0x1,%eax
    a36d:	84 c0                	test   %al,%al
    a36f:	74 0c                	je     a37d <safe_div_func_float_f_f+0x99>
    a371:	f3 0f 10 45 fc       	movss  -0x4(%rbp),%xmm0
    a376:	f3 0f 5e 45 f8       	divss  -0x8(%rbp),%xmm0
    a37b:	eb 05                	jmp    a382 <safe_div_func_float_f_f+0x9e>
    a37d:	f3 0f 10 45 fc       	movss  -0x4(%rbp),%xmm0
    a382:	5d                   	pop    %rbp
    a383:	c3                   	retq   

000000000000a384 <safe_add_func_double_f_f>:
    a384:	f3 0f 1e fa          	endbr64 
    a388:	55                   	push   %rbp
    a389:	48 89 e5             	mov    %rsp,%rbp
    a38c:	f2 0f 11 45 f8       	movsd  %xmm0,-0x8(%rbp)
    a391:	f2 0f 11 4d f0       	movsd  %xmm1,-0x10(%rbp)
    a396:	f2 0f 10 4d f8       	movsd  -0x8(%rbp),%xmm1
    a39b:	f2 0f 10 05 8d 90 00 	movsd  0x908d(%rip),%xmm0        # 13430 <l_514.4574+0x290>
    a3a2:	00 
    a3a3:	f2 0f 59 c8          	mulsd  %xmm0,%xmm1
    a3a7:	f2 0f 10 55 f0       	movsd  -0x10(%rbp),%xmm2
    a3ac:	f2 0f 10 05 7c 90 00 	movsd  0x907c(%rip),%xmm0        # 13430 <l_514.4574+0x290>
    a3b3:	00 
    a3b4:	f2 0f 59 c2          	mulsd  %xmm2,%xmm0
    a3b8:	f2 0f 58 c1          	addsd  %xmm1,%xmm0
    a3bc:	f3 0f 7e 0d 7c 90 00 	movq   0x907c(%rip),%xmm1        # 13440 <l_514.4574+0x2a0>
    a3c3:	00 
    a3c4:	66 0f 54 c1          	andpd  %xmm1,%xmm0
    a3c8:	66 0f 2f 05 80 90 00 	comisd 0x9080(%rip),%xmm0        # 13450 <l_514.4574+0x2b0>
    a3cf:	00 
    a3d0:	76 07                	jbe    a3d9 <safe_add_func_double_f_f+0x55>
    a3d2:	f2 0f 10 45 f8       	movsd  -0x8(%rbp),%xmm0
    a3d7:	eb 0a                	jmp    a3e3 <safe_add_func_double_f_f+0x5f>
    a3d9:	f2 0f 10 45 f8       	movsd  -0x8(%rbp),%xmm0
    a3de:	f2 0f 58 45 f0       	addsd  -0x10(%rbp),%xmm0
    a3e3:	5d                   	pop    %rbp
    a3e4:	c3                   	retq   

000000000000a3e5 <safe_sub_func_double_f_f>:
    a3e5:	f3 0f 1e fa          	endbr64 
    a3e9:	55                   	push   %rbp
    a3ea:	48 89 e5             	mov    %rsp,%rbp
    a3ed:	f2 0f 11 45 f8       	movsd  %xmm0,-0x8(%rbp)
    a3f2:	f2 0f 11 4d f0       	movsd  %xmm1,-0x10(%rbp)
    a3f7:	f2 0f 10 4d f8       	movsd  -0x8(%rbp),%xmm1
    a3fc:	f2 0f 10 05 2c 90 00 	movsd  0x902c(%rip),%xmm0        # 13430 <l_514.4574+0x290>
    a403:	00 
    a404:	f2 0f 59 c1          	mulsd  %xmm1,%xmm0
    a408:	f2 0f 10 55 f0       	movsd  -0x10(%rbp),%xmm2
    a40d:	f2 0f 10 0d 1b 90 00 	movsd  0x901b(%rip),%xmm1        # 13430 <l_514.4574+0x290>
    a414:	00 
    a415:	f2 0f 59 ca          	mulsd  %xmm2,%xmm1
    a419:	f2 0f 5c c1          	subsd  %xmm1,%xmm0
    a41d:	f3 0f 7e 0d 1b 90 00 	movq   0x901b(%rip),%xmm1        # 13440 <l_514.4574+0x2a0>
    a424:	00 
    a425:	66 0f 54 c1          	andpd  %xmm1,%xmm0
    a429:	66 0f 2f 05 1f 90 00 	comisd 0x901f(%rip),%xmm0        # 13450 <l_514.4574+0x2b0>
    a430:	00 
    a431:	76 07                	jbe    a43a <safe_sub_func_double_f_f+0x55>
    a433:	f2 0f 10 45 f8       	movsd  -0x8(%rbp),%xmm0
    a438:	eb 0a                	jmp    a444 <safe_sub_func_double_f_f+0x5f>
    a43a:	f2 0f 10 45 f8       	movsd  -0x8(%rbp),%xmm0
    a43f:	f2 0f 5c 45 f0       	subsd  -0x10(%rbp),%xmm0
    a444:	5d                   	pop    %rbp
    a445:	c3                   	retq   

000000000000a446 <safe_mul_func_double_f_f>:
    a446:	f3 0f 1e fa          	endbr64 
    a44a:	55                   	push   %rbp
    a44b:	48 89 e5             	mov    %rsp,%rbp
    a44e:	f2 0f 11 45 f8       	movsd  %xmm0,-0x8(%rbp)
    a453:	f2 0f 11 4d f0       	movsd  %xmm1,-0x10(%rbp)
    a458:	f2 0f 10 4d f8       	movsd  -0x8(%rbp),%xmm1
    a45d:	f2 0f 10 05 f3 8f 00 	movsd  0x8ff3(%rip),%xmm0        # 13458 <l_514.4574+0x2b8>
    a464:	00 
    a465:	f2 0f 59 c8          	mulsd  %xmm0,%xmm1
    a469:	f2 0f 10 55 f0       	movsd  -0x10(%rbp),%xmm2
    a46e:	f2 0f 10 05 ea 8f 00 	movsd  0x8fea(%rip),%xmm0        # 13460 <l_514.4574+0x2c0>
    a475:	00 
    a476:	f2 0f 59 c2          	mulsd  %xmm2,%xmm0
    a47a:	f2 0f 59 c1          	mulsd  %xmm1,%xmm0
    a47e:	f3 0f 7e 0d ba 8f 00 	movq   0x8fba(%rip),%xmm1        # 13440 <l_514.4574+0x2a0>
    a485:	00 
    a486:	66 0f 54 c1          	andpd  %xmm1,%xmm0
    a48a:	66 0f 2f 05 d6 8f 00 	comisd 0x8fd6(%rip),%xmm0        # 13468 <l_514.4574+0x2c8>
    a491:	00 
    a492:	76 07                	jbe    a49b <safe_mul_func_double_f_f+0x55>
    a494:	f2 0f 10 45 f8       	movsd  -0x8(%rbp),%xmm0
    a499:	eb 0a                	jmp    a4a5 <safe_mul_func_double_f_f+0x5f>
    a49b:	f2 0f 10 45 f8       	movsd  -0x8(%rbp),%xmm0
    a4a0:	f2 0f 59 45 f0       	mulsd  -0x10(%rbp),%xmm0
    a4a5:	5d                   	pop    %rbp
    a4a6:	c3                   	retq   

000000000000a4a7 <safe_div_func_double_f_f>:
    a4a7:	f3 0f 1e fa          	endbr64 
    a4ab:	55                   	push   %rbp
    a4ac:	48 89 e5             	mov    %rsp,%rbp
    a4af:	f2 0f 11 45 f8       	movsd  %xmm0,-0x8(%rbp)
    a4b4:	f2 0f 11 4d f0       	movsd  %xmm1,-0x10(%rbp)
    a4b9:	f2 0f 10 45 f0       	movsd  -0x10(%rbp),%xmm0
    a4be:	f3 0f 7e 0d 7a 8f 00 	movq   0x8f7a(%rip),%xmm1        # 13440 <l_514.4574+0x2a0>
    a4c5:	00 
    a4c6:	66 0f 54 c8          	andpd  %xmm0,%xmm1
    a4ca:	f2 0f 10 05 9e 8f 00 	movsd  0x8f9e(%rip),%xmm0        # 13470 <l_514.4574+0x2d0>
    a4d1:	00 
    a4d2:	66 0f 2f c1          	comisd %xmm1,%xmm0
    a4d6:	0f 97 c0             	seta   %al
    a4d9:	83 f0 01             	xor    $0x1,%eax
    a4dc:	84 c0                	test   %al,%al
    a4de:	75 5a                	jne    a53a <safe_div_func_double_f_f+0x93>
    a4e0:	66 0f ef c0          	pxor   %xmm0,%xmm0
    a4e4:	66 0f 2e 45 f0       	ucomisd -0x10(%rbp),%xmm0
    a4e9:	7a 0b                	jp     a4f6 <safe_div_func_double_f_f+0x4f>
    a4eb:	66 0f ef c0          	pxor   %xmm0,%xmm0
    a4ef:	66 0f 2e 45 f0       	ucomisd -0x10(%rbp),%xmm0
    a4f4:	74 50                	je     a546 <safe_div_func_double_f_f+0x9f>
    a4f6:	f2 0f 10 4d f8       	movsd  -0x8(%rbp),%xmm1
    a4fb:	f2 0f 10 05 75 8f 00 	movsd  0x8f75(%rip),%xmm0        # 13478 <l_514.4574+0x2d8>
    a502:	00 
    a503:	f2 0f 59 c1          	mulsd  %xmm1,%xmm0
    a507:	f2 0f 10 55 f0       	movsd  -0x10(%rbp),%xmm2
    a50c:	f2 0f 10 0d 6c 8f 00 	movsd  0x8f6c(%rip),%xmm1        # 13480 <l_514.4574+0x2e0>
    a513:	00 
    a514:	f2 0f 59 ca          	mulsd  %xmm2,%xmm1
    a518:	f2 0f 5e c1          	divsd  %xmm1,%xmm0
    a51c:	f3 0f 7e 0d 1c 8f 00 	movq   0x8f1c(%rip),%xmm1        # 13440 <l_514.4574+0x2a0>
    a523:	00 
    a524:	66 0f 54 c1          	andpd  %xmm1,%xmm0
    a528:	66 0f 2f 05 58 8f 00 	comisd 0x8f58(%rip),%xmm0        # 13488 <l_514.4574+0x2e8>
    a52f:	00 
    a530:	0f 97 c0             	seta   %al
    a533:	83 f0 01             	xor    $0x1,%eax
    a536:	84 c0                	test   %al,%al
    a538:	74 0c                	je     a546 <safe_div_func_double_f_f+0x9f>
    a53a:	f2 0f 10 45 f8       	movsd  -0x8(%rbp),%xmm0
    a53f:	f2 0f 5e 45 f0       	divsd  -0x10(%rbp),%xmm0
    a544:	eb 05                	jmp    a54b <safe_div_func_double_f_f+0xa4>
    a546:	f2 0f 10 45 f8       	movsd  -0x8(%rbp),%xmm0
    a54b:	5d                   	pop    %rbp
    a54c:	c3                   	retq   

000000000000a54d <safe_convert_func_float_to_int32_t>:
    a54d:	f3 0f 1e fa          	endbr64 
    a551:	55                   	push   %rbp
    a552:	48 89 e5             	mov    %rsp,%rbp
    a555:	f3 0f 11 45 fc       	movss  %xmm0,-0x4(%rbp)
    a55a:	f3 0f 10 05 2e 8f 00 	movss  0x8f2e(%rip),%xmm0        # 13490 <l_514.4574+0x2f0>
    a561:	00 
    a562:	0f 2f 45 fc          	comiss -0x4(%rbp),%xmm0
    a566:	0f 93 c0             	setae  %al
    a569:	83 f0 01             	xor    $0x1,%eax
    a56c:	84 c0                	test   %al,%al
    a56e:	74 21                	je     a591 <safe_convert_func_float_to_int32_t+0x44>
    a570:	f3 0f 10 45 fc       	movss  -0x4(%rbp),%xmm0
    a575:	0f 2f 05 18 8f 00 00 	comiss 0x8f18(%rip),%xmm0        # 13494 <l_514.4574+0x2f4>
    a57c:	0f 93 c0             	setae  %al
    a57f:	83 f0 01             	xor    $0x1,%eax
    a582:	84 c0                	test   %al,%al
    a584:	74 0b                	je     a591 <safe_convert_func_float_to_int32_t+0x44>
    a586:	f3 0f 10 45 fc       	movss  -0x4(%rbp),%xmm0
    a58b:	f3 0f 2c c0          	cvttss2si %xmm0,%eax
    a58f:	eb 05                	jmp    a596 <safe_convert_func_float_to_int32_t+0x49>
    a591:	b8 ff ff ff 7f       	mov    $0x7fffffff,%eax
    a596:	5d                   	pop    %rbp
    a597:	c3                   	retq   

000000000000a598 <crc32_gentab>:
    a598:	f3 0f 1e fa          	endbr64 
    a59c:	55                   	push   %rbp
    a59d:	48 89 e5             	mov    %rsp,%rbp
    a5a0:	c7 45 fc 20 83 b8 ed 	movl   $0xedb88320,-0x4(%rbp)
    a5a7:	c7 45 f4 00 00 00 00 	movl   $0x0,-0xc(%rbp)
    a5ae:	eb 51                	jmp    a601 <crc32_gentab+0x69>
    a5b0:	8b 45 f4             	mov    -0xc(%rbp),%eax
    a5b3:	89 45 f0             	mov    %eax,-0x10(%rbp)
    a5b6:	c7 45 f8 08 00 00 00 	movl   $0x8,-0x8(%rbp)
    a5bd:	eb 1e                	jmp    a5dd <crc32_gentab+0x45>
    a5bf:	8b 45 f0             	mov    -0x10(%rbp),%eax
    a5c2:	83 e0 01             	and    $0x1,%eax
    a5c5:	85 c0                	test   %eax,%eax
    a5c7:	74 0d                	je     a5d6 <crc32_gentab+0x3e>
    a5c9:	8b 45 f0             	mov    -0x10(%rbp),%eax
    a5cc:	d1 e8                	shr    %eax
    a5ce:	33 45 fc             	xor    -0x4(%rbp),%eax
    a5d1:	89 45 f0             	mov    %eax,-0x10(%rbp)
    a5d4:	eb 03                	jmp    a5d9 <crc32_gentab+0x41>
    a5d6:	d1 6d f0             	shrl   -0x10(%rbp)
    a5d9:	83 6d f8 01          	subl   $0x1,-0x8(%rbp)
    a5dd:	83 7d f8 00          	cmpl   $0x0,-0x8(%rbp)
    a5e1:	7f dc                	jg     a5bf <crc32_gentab+0x27>
    a5e3:	8b 45 f4             	mov    -0xc(%rbp),%eax
    a5e6:	48 98                	cltq   
    a5e8:	48 8d 0c 85 00 00 00 	lea    0x0(,%rax,4),%rcx
    a5ef:	00 
    a5f0:	48 8d 15 09 0c 01 00 	lea    0x10c09(%rip),%rdx        # 1b200 <crc32_tab>
    a5f7:	8b 45 f0             	mov    -0x10(%rbp),%eax
    a5fa:	89 04 11             	mov    %eax,(%rcx,%rdx,1)
    a5fd:	83 45 f4 01          	addl   $0x1,-0xc(%rbp)
    a601:	81 7d f4 ff 00 00 00 	cmpl   $0xff,-0xc(%rbp)
    a608:	7e a6                	jle    a5b0 <crc32_gentab+0x18>
    a60a:	90                   	nop
    a60b:	90                   	nop
    a60c:	5d                   	pop    %rbp
    a60d:	c3                   	retq   

000000000000a60e <crc32_byte>:
    a60e:	f3 0f 1e fa          	endbr64 
    a612:	55                   	push   %rbp
    a613:	48 89 e5             	mov    %rsp,%rbp
    a616:	89 f8                	mov    %edi,%eax
    a618:	88 45 fc             	mov    %al,-0x4(%rbp)
    a61b:	8b 05 ff b9 00 00    	mov    0xb9ff(%rip),%eax        # 16020 <crc32_context>
    a621:	c1 e8 08             	shr    $0x8,%eax
    a624:	89 c1                	mov    %eax,%ecx
    a626:	0f b6 55 fc          	movzbl -0x4(%rbp),%edx
    a62a:	8b 05 f0 b9 00 00    	mov    0xb9f0(%rip),%eax        # 16020 <crc32_context>
    a630:	31 d0                	xor    %edx,%eax
    a632:	0f b6 c0             	movzbl %al,%eax
    a635:	89 c0                	mov    %eax,%eax
    a637:	48 8d 14 85 00 00 00 	lea    0x0(,%rax,4),%rdx
    a63e:	00 
    a63f:	48 8d 05 ba 0b 01 00 	lea    0x10bba(%rip),%rax        # 1b200 <crc32_tab>
    a646:	8b 04 02             	mov    (%rdx,%rax,1),%eax
    a649:	31 c8                	xor    %ecx,%eax
    a64b:	89 05 cf b9 00 00    	mov    %eax,0xb9cf(%rip)        # 16020 <crc32_context>
    a651:	90                   	nop
    a652:	5d                   	pop    %rbp
    a653:	c3                   	retq   

000000000000a654 <crc32_8bytes>:
    a654:	f3 0f 1e fa          	endbr64 
    a658:	55                   	push   %rbp
    a659:	48 89 e5             	mov    %rsp,%rbp
    a65c:	48 83 ec 08          	sub    $0x8,%rsp
    a660:	48 89 7d f8          	mov    %rdi,-0x8(%rbp)
    a664:	48 8b 45 f8          	mov    -0x8(%rbp),%rax
    a668:	0f b6 c0             	movzbl %al,%eax
    a66b:	89 c7                	mov    %eax,%edi
    a66d:	e8 9c ff ff ff       	callq  a60e <crc32_byte>
    a672:	48 8b 45 f8          	mov    -0x8(%rbp),%rax
    a676:	48 c1 e8 08          	shr    $0x8,%rax
    a67a:	0f b6 c0             	movzbl %al,%eax
    a67d:	89 c7                	mov    %eax,%edi
    a67f:	e8 8a ff ff ff       	callq  a60e <crc32_byte>
    a684:	48 8b 45 f8          	mov    -0x8(%rbp),%rax
    a688:	48 c1 e8 10          	shr    $0x10,%rax
    a68c:	0f b6 c0             	movzbl %al,%eax
    a68f:	89 c7                	mov    %eax,%edi
    a691:	e8 78 ff ff ff       	callq  a60e <crc32_byte>
    a696:	48 8b 45 f8          	mov    -0x8(%rbp),%rax
    a69a:	48 c1 e8 18          	shr    $0x18,%rax
    a69e:	0f b6 c0             	movzbl %al,%eax
    a6a1:	89 c7                	mov    %eax,%edi
    a6a3:	e8 66 ff ff ff       	callq  a60e <crc32_byte>
    a6a8:	48 8b 45 f8          	mov    -0x8(%rbp),%rax
    a6ac:	48 c1 e8 20          	shr    $0x20,%rax
    a6b0:	0f b6 c0             	movzbl %al,%eax
    a6b3:	89 c7                	mov    %eax,%edi
    a6b5:	e8 54 ff ff ff       	callq  a60e <crc32_byte>
    a6ba:	48 8b 45 f8          	mov    -0x8(%rbp),%rax
    a6be:	48 c1 e8 28          	shr    $0x28,%rax
    a6c2:	0f b6 c0             	movzbl %al,%eax
    a6c5:	89 c7                	mov    %eax,%edi
    a6c7:	e8 42 ff ff ff       	callq  a60e <crc32_byte>
    a6cc:	48 8b 45 f8          	mov    -0x8(%rbp),%rax
    a6d0:	48 c1 e8 30          	shr    $0x30,%rax
    a6d4:	0f b6 c0             	movzbl %al,%eax
    a6d7:	89 c7                	mov    %eax,%edi
    a6d9:	e8 30 ff ff ff       	callq  a60e <crc32_byte>
    a6de:	48 8b 45 f8          	mov    -0x8(%rbp),%rax
    a6e2:	48 c1 e8 38          	shr    $0x38,%rax
    a6e6:	0f b6 c0             	movzbl %al,%eax
    a6e9:	89 c7                	mov    %eax,%edi
    a6eb:	e8 1e ff ff ff       	callq  a60e <crc32_byte>
    a6f0:	90                   	nop
    a6f1:	c9                   	leaveq 
    a6f2:	c3                   	retq   

000000000000a6f3 <transparent_crc>:
    a6f3:	f3 0f 1e fa          	endbr64 
    a6f7:	55                   	push   %rbp
    a6f8:	48 89 e5             	mov    %rsp,%rbp
    a6fb:	48 83 ec 20          	sub    $0x20,%rsp
    a6ff:	48 89 7d f8          	mov    %rdi,-0x8(%rbp)
    a703:	48 89 75 f0          	mov    %rsi,-0x10(%rbp)
    a707:	89 55 ec             	mov    %edx,-0x14(%rbp)
    a70a:	48 8b 45 f8          	mov    -0x8(%rbp),%rax
    a70e:	48 89 c7             	mov    %rax,%rdi
    a711:	e8 3e ff ff ff       	callq  a654 <crc32_8bytes>
    a716:	83 7d ec 00          	cmpl   $0x0,-0x14(%rbp)
    a71a:	74 22                	je     a73e <transparent_crc+0x4b>
    a71c:	8b 05 fe b8 00 00    	mov    0xb8fe(%rip),%eax        # 16020 <crc32_context>
    a722:	f7 d0                	not    %eax
    a724:	89 c2                	mov    %eax,%edx
    a726:	48 8b 45 f0          	mov    -0x10(%rbp),%rax
    a72a:	48 89 c6             	mov    %rax,%rsi
    a72d:	48 8d 3d fc 78 00 00 	lea    0x78fc(%rip),%rdi        # 12030 <_IO_stdin_used+0x30>
    a734:	b8 00 00 00 00       	mov    $0x0,%eax
    a739:	e8 42 e9 ff ff       	callq  9080 <printf@plt>
    a73e:	90                   	nop
    a73f:	c9                   	leaveq 
    a740:	c3                   	retq   

000000000000a741 <transparent_crc_bytes>:
    a741:	f3 0f 1e fa          	endbr64 
    a745:	55                   	push   %rbp
    a746:	48 89 e5             	mov    %rsp,%rbp
    a749:	48 83 ec 30          	sub    $0x30,%rsp
    a74d:	48 89 7d e8          	mov    %rdi,-0x18(%rbp)
    a751:	89 75 e4             	mov    %esi,-0x1c(%rbp)
    a754:	48 89 55 d8          	mov    %rdx,-0x28(%rbp)
    a758:	89 4d e0             	mov    %ecx,-0x20(%rbp)
    a75b:	c7 45 fc 00 00 00 00 	movl   $0x0,-0x4(%rbp)
    a762:	eb 1e                	jmp    a782 <transparent_crc_bytes+0x41>
    a764:	8b 45 fc             	mov    -0x4(%rbp),%eax
    a767:	48 63 d0             	movslq %eax,%rdx
    a76a:	48 8b 45 e8          	mov    -0x18(%rbp),%rax
    a76e:	48 01 d0             	add    %rdx,%rax
    a771:	0f b6 00             	movzbl (%rax),%eax
    a774:	0f b6 c0             	movzbl %al,%eax
    a777:	89 c7                	mov    %eax,%edi
    a779:	e8 90 fe ff ff       	callq  a60e <crc32_byte>
    a77e:	83 45 fc 01          	addl   $0x1,-0x4(%rbp)
    a782:	8b 45 fc             	mov    -0x4(%rbp),%eax
    a785:	3b 45 e4             	cmp    -0x1c(%rbp),%eax
    a788:	7c da                	jl     a764 <transparent_crc_bytes+0x23>
    a78a:	83 7d e0 00          	cmpl   $0x0,-0x20(%rbp)
    a78e:	74 22                	je     a7b2 <transparent_crc_bytes+0x71>
    a790:	8b 05 8a b8 00 00    	mov    0xb88a(%rip),%eax        # 16020 <crc32_context>
    a796:	f7 d0                	not    %eax
    a798:	89 c2                	mov    %eax,%edx
    a79a:	48 8b 45 d8          	mov    -0x28(%rbp),%rax
    a79e:	48 89 c6             	mov    %rax,%rsi
    a7a1:	48 8d 3d 88 78 00 00 	lea    0x7888(%rip),%rdi        # 12030 <_IO_stdin_used+0x30>
    a7a8:	b8 00 00 00 00       	mov    $0x0,%eax
    a7ad:	e8 ce e8 ff ff       	callq  9080 <printf@plt>
    a7b2:	90                   	nop
    a7b3:	c9                   	leaveq 
    a7b4:	c3                   	retq   

000000000000a7b5 <func_1>:
    a7b5:	f3 0f 1e fa          	endbr64 
    a7b9:	55                   	push   %rbp
    a7ba:	48 89 e5             	mov    %rsp,%rbp
    a7bd:	41 57                	push   %r15
    a7bf:	41 56                	push   %r14
    a7c1:	41 55                	push   %r13
    a7c3:	41 54                	push   %r12
    a7c5:	53                   	push   %rbx
    a7c6:	48 81 ec b8 0f 00 00 	sub    $0xfb8,%rsp
    a7cd:	64 48 8b 04 25 28 00 	mov    %fs:0x28,%rax
    a7d4:	00 00 
    a7d6:	48 89 45 c8          	mov    %rax,-0x38(%rbp)
    a7da:	31 c0                	xor    %eax,%eax
    a7dc:	48 8d 05 c1 b8 00 00 	lea    0xb8c1(%rip),%rax        # 160a4 <g_3+0x64>
    a7e3:	48 89 85 00 f1 ff ff 	mov    %rax,-0xf00(%rbp)
    a7ea:	c7 85 80 f0 ff ff db 	movl   $0x40194ddb,-0xf80(%rbp)
    a7f1:	4d 19 40 
    a7f4:	48 c7 85 08 f1 ff ff 	movq   $0x0,-0xef8(%rbp)
    a7fb:	00 00 00 00 
    a7ff:	48 8d 05 5e b8 00 00 	lea    0xb85e(%rip),%rax        # 16064 <g_3+0x24>
    a806:	48 89 85 10 f1 ff ff 	mov    %rax,-0xef0(%rbp)
    a80d:	48 8d 05 90 b8 00 00 	lea    0xb890(%rip),%rax        # 160a4 <g_3+0x64>
    a814:	48 89 85 18 f1 ff ff 	mov    %rax,-0xee8(%rbp)
    a81b:	48 c7 85 20 f1 ff ff 	movq   $0x0,-0xee0(%rbp)
    a822:	00 00 00 00 
    a826:	48 8d 05 77 b8 00 00 	lea    0xb877(%rip),%rax        # 160a4 <g_3+0x64>
    a82d:	48 89 85 28 f1 ff ff 	mov    %rax,-0xed8(%rbp)
    a834:	48 c7 85 30 f1 ff ff 	movq   $0x0,-0xed0(%rbp)
    a83b:	00 00 00 00 
    a83f:	48 c7 85 38 f1 ff ff 	movq   $0x0,-0xec8(%rbp)
    a846:	00 00 00 00 
    a84a:	48 8d 85 f0 f1 ff ff 	lea    -0xe10(%rbp),%rax
    a851:	48 83 c0 18          	add    $0x18,%rax
    a855:	48 89 85 30 f2 ff ff 	mov    %rax,-0xdd0(%rbp)
    a85c:	48 8d 85 f0 f1 ff ff 	lea    -0xe10(%rbp),%rax
    a863:	48 83 c0 18          	add    $0x18,%rax
    a867:	48 89 85 38 f2 ff ff 	mov    %rax,-0xdc8(%rbp)
    a86e:	48 8d 85 f0 f1 ff ff 	lea    -0xe10(%rbp),%rax
    a875:	48 83 c0 18          	add    $0x18,%rax
    a879:	48 89 85 40 f2 ff ff 	mov    %rax,-0xdc0(%rbp)
    a880:	48 8d 85 f0 f1 ff ff 	lea    -0xe10(%rbp),%rax
    a887:	48 83 c0 18          	add    $0x18,%rax
    a88b:	48 89 85 48 f2 ff ff 	mov    %rax,-0xdb8(%rbp)
    a892:	48 8d 85 f0 f1 ff ff 	lea    -0xe10(%rbp),%rax
    a899:	48 83 c0 18          	add    $0x18,%rax
    a89d:	48 89 85 50 f2 ff ff 	mov    %rax,-0xdb0(%rbp)
    a8a4:	48 8d 85 f0 f1 ff ff 	lea    -0xe10(%rbp),%rax
    a8ab:	48 83 c0 0c          	add    $0xc,%rax
    a8af:	48 89 85 58 f2 ff ff 	mov    %rax,-0xda8(%rbp)
    a8b6:	48 8d 85 f0 f1 ff ff 	lea    -0xe10(%rbp),%rax
    a8bd:	48 83 c0 0c          	add    $0xc,%rax
    a8c1:	48 89 85 60 f2 ff ff 	mov    %rax,-0xda0(%rbp)
    a8c8:	48 8d 85 f0 f1 ff ff 	lea    -0xe10(%rbp),%rax
    a8cf:	48 83 c0 0c          	add    $0xc,%rax
    a8d3:	48 89 85 68 f2 ff ff 	mov    %rax,-0xd98(%rbp)
    a8da:	48 8d 85 f0 f1 ff ff 	lea    -0xe10(%rbp),%rax
    a8e1:	48 83 c0 0c          	add    $0xc,%rax
    a8e5:	48 89 85 70 f2 ff ff 	mov    %rax,-0xd90(%rbp)
    a8ec:	48 8d 85 f0 f1 ff ff 	lea    -0xe10(%rbp),%rax
    a8f3:	48 83 c0 0c          	add    $0xc,%rax
    a8f7:	48 89 85 78 f2 ff ff 	mov    %rax,-0xd88(%rbp)
    a8fe:	66 c7 85 54 f0 ff ff 	movw   $0xffff,-0xfac(%rbp)
    a905:	ff ff 
    a907:	c7 85 64 f0 ff ff 3c 	movl   $0xc1932e3c,-0xf9c(%rbp)
    a90e:	2e 93 c1 
    a911:	c7 85 84 f0 ff ff 07 	movl   $0x7,-0xf7c(%rbp)
    a918:	00 00 00 
    a91b:	c7 85 88 f0 ff ff 26 	movl   $0xfb011726,-0xf78(%rbp)
    a922:	17 01 fb 
    a925:	c7 85 8c f0 ff ff 63 	movl   $0xd6bcce63,-0xf74(%rbp)
    a92c:	ce bc d6 
    a92f:	48 8d 05 72 77 00 00 	lea    0x7772(%rip),%rax        # 120a8 <g_3093>
    a936:	48 89 85 40 f1 ff ff 	mov    %rax,-0xec0(%rbp)
    a93d:	c6 85 4e f0 ff ff 01 	movb   $0x1,-0xfb2(%rbp)
    a944:	c6 85 4f f0 ff ff 3b 	movb   $0x3b,-0xfb1(%rbp)
    a94b:	48 c7 85 c8 f0 ff ff 	movq   $0x0,-0xf38(%rbp)
    a952:	00 00 00 00 
    a956:	48 8d 85 c8 f0 ff ff 	lea    -0xf38(%rbp),%rax
    a95d:	48 89 85 d0 f0 ff ff 	mov    %rax,-0xf30(%rbp)
    a964:	48 8d 85 d0 f0 ff ff 	lea    -0xf30(%rbp),%rax
    a96b:	48 89 85 d8 f0 ff ff 	mov    %rax,-0xf28(%rbp)
    a972:	48 8d 85 d8 f0 ff ff 	lea    -0xf28(%rbp),%rax
    a979:	48 89 85 48 f1 ff ff 	mov    %rax,-0xeb8(%rbp)
    a980:	48 c7 85 50 f1 ff ff 	movq   $0xffffffffffffffff,-0xeb0(%rbp)
    a987:	ff ff ff ff 
    a98b:	66 c7 85 56 f0 ff ff 	movw   $0xfff6,-0xfaa(%rbp)
    a992:	f6 ff 
    a994:	c7 85 68 f0 ff ff 00 	movl   $0x0,-0xf98(%rbp)
    a99b:	00 00 00 
    a99e:	eb 42                	jmp    a9e2 <func_1+0x22d>
    a9a0:	c7 85 6c f0 ff ff 00 	movl   $0x0,-0xf94(%rbp)
    a9a7:	00 00 00 
    a9aa:	eb 26                	jmp    a9d2 <func_1+0x21d>
    a9ac:	8b 85 6c f0 ff ff    	mov    -0xf94(%rbp),%eax
    a9b2:	48 63 d0             	movslq %eax,%rdx
    a9b5:	8b 85 68 f0 ff ff    	mov    -0xf98(%rbp),%eax
    a9bb:	48 98                	cltq   
    a9bd:	48 01 d0             	add    %rdx,%rax
    a9c0:	c7 84 85 f0 f1 ff ff 	movl   $0x1,-0xe10(%rbp,%rax,4)
    a9c7:	01 00 00 00 
    a9cb:	83 85 6c f0 ff ff 01 	addl   $0x1,-0xf94(%rbp)
    a9d2:	83 bd 6c f0 ff ff 00 	cmpl   $0x0,-0xf94(%rbp)
    a9d9:	7e d1                	jle    a9ac <func_1+0x1f7>
    a9db:	83 85 68 f0 ff ff 01 	addl   $0x1,-0xf98(%rbp)
    a9e2:	83 bd 68 f0 ff ff 07 	cmpl   $0x7,-0xf98(%rbp)
    a9e9:	7e b5                	jle    a9a0 <func_1+0x1eb>
    a9eb:	c7 85 68 f0 ff ff 00 	movl   $0x0,-0xf98(%rbp)
    a9f2:	00 00 00 
    a9f5:	eb 14                	jmp    aa0b <func_1+0x256>
    a9f7:	8b 85 68 f0 ff ff    	mov    -0xf98(%rbp),%eax
    a9fd:	48 98                	cltq   
    a9ff:	c6 44 05 c7 78       	movb   $0x78,-0x39(%rbp,%rax,1)
    aa04:	83 85 68 f0 ff ff 01 	addl   $0x1,-0xf98(%rbp)
    aa0b:	83 bd 68 f0 ff ff 00 	cmpl   $0x0,-0xf98(%rbp)
    aa12:	7e e3                	jle    a9f7 <func_1+0x242>
    aa14:	90                   	nop
    aa15:	0f b7 85 54 f0 ff ff 	movzwl -0xfac(%rbp),%eax
    aa1c:	83 c0 01             	add    $0x1,%eax
    aa1f:	66 89 85 54 f0 ff ff 	mov    %ax,-0xfac(%rbp)
    aa26:	66 c7 85 54 f0 ff ff 	movw   $0xb,-0xfac(%rbp)
    aa2d:	0b 00 
    aa2f:	e9 b0 11 00 00       	jmpq   bbe4 <func_1+0x142f>
    aa34:	48 c7 85 58 f1 ff ff 	movq   $0x0,-0xea8(%rbp)
    aa3b:	00 00 00 00 
    aa3f:	66 c7 85 58 f0 ff ff 	movw   $0x7f68,-0xfa8(%rbp)
    aa46:	68 7f 
    aa48:	c7 85 60 f0 ff ff ff 	movl   $0xffffffff,-0xfa0(%rbp)
    aa4f:	ff ff ff 
    aa52:	c7 85 90 f0 ff ff 36 	movl   $0x4164d736,-0xf70(%rbp)
    aa59:	d7 64 41 
    aa5c:	48 8d 85 a0 f4 ff ff 	lea    -0xb60(%rbp),%rax
    aa63:	48 8d 15 56 76 00 00 	lea    0x7656(%rip),%rdx        # 120c0 <g_3093+0x18>
    aa6a:	b9 32 00 00 00       	mov    $0x32,%ecx
    aa6f:	48 89 c7             	mov    %rax,%rdi
    aa72:	48 89 d6             	mov    %rdx,%rsi
    aa75:	f3 48 a5             	rep movsq %ds:(%rsi),%es:(%rdi)
    aa78:	48 8d 85 60 f0 ff ff 	lea    -0xfa0(%rbp),%rax
    aa7f:	48 89 85 60 f1 ff ff 	mov    %rax,-0xea0(%rbp)
    aa86:	c7 85 94 f0 ff ff bb 	movl   $0xfdd49bb,-0xf6c(%rbp)
    aa8d:	49 dd 0f 
    aa90:	48 c7 85 e0 f0 ff ff 	movq   $0x0,-0xf20(%rbp)
    aa97:	00 00 00 00 
    aa9b:	48 8d 85 e0 f0 ff ff 	lea    -0xf20(%rbp),%rax
    aaa2:	48 89 85 e8 f0 ff ff 	mov    %rax,-0xf18(%rbp)
    aaa9:	48 c7 85 80 f2 ff ff 	movq   $0x0,-0xd80(%rbp)
    aab0:	00 00 00 00 
    aab4:	48 8d 85 e8 f0 ff ff 	lea    -0xf18(%rbp),%rax
    aabb:	48 89 85 88 f2 ff ff 	mov    %rax,-0xd78(%rbp)
    aac2:	48 c7 85 90 f2 ff ff 	movq   $0x0,-0xd70(%rbp)
    aac9:	00 00 00 00 
    aacd:	48 8d 85 e8 f0 ff ff 	lea    -0xf18(%rbp),%rax
    aad4:	48 89 85 98 f2 ff ff 	mov    %rax,-0xd68(%rbp)
    aadb:	48 c7 85 a0 f2 ff ff 	movq   $0x0,-0xd60(%rbp)
    aae2:	00 00 00 00 
    aae6:	48 8d 85 e8 f0 ff ff 	lea    -0xf18(%rbp),%rax
    aaed:	48 89 85 a8 f2 ff ff 	mov    %rax,-0xd58(%rbp)
    aaf4:	48 c7 85 b0 f2 ff ff 	movq   $0x0,-0xd50(%rbp)
    aafb:	00 00 00 00 
    aaff:	48 8d 85 e8 f0 ff ff 	lea    -0xf18(%rbp),%rax
    ab06:	48 89 85 b8 f2 ff ff 	mov    %rax,-0xd48(%rbp)
    ab0d:	48 c7 85 c0 f2 ff ff 	movq   $0x0,-0xd40(%rbp)
    ab14:	00 00 00 00 
    ab18:	48 8d 85 e8 f0 ff ff 	lea    -0xf18(%rbp),%rax
    ab1f:	48 89 85 c8 f2 ff ff 	mov    %rax,-0xd38(%rbp)
    ab26:	48 8d 85 30 f6 ff ff 	lea    -0x9d0(%rbp),%rax
    ab2d:	48 8d 15 2c 77 00 00 	lea    0x772c(%rip),%rdx        # 12260 <g_3093+0x1b8>
    ab34:	b9 50 00 00 00       	mov    $0x50,%ecx
    ab39:	48 89 c7             	mov    %rax,%rdi
    ab3c:	48 89 d6             	mov    %rdx,%rsi
    ab3f:	f3 48 a5             	rep movsq %ds:(%rsi),%es:(%rdi)
    ab42:	48 c7 85 68 f1 ff ff 	movq   $0xffffffffffffffff,-0xe98(%rbp)
    ab49:	ff ff ff ff 
    ab4d:	66 c7 85 5a f0 ff ff 	movw   $0x7fb1,-0xfa6(%rbp)
    ab54:	b1 7f 
    ab56:	c7 85 70 f0 ff ff 00 	movl   $0x0,-0xf90(%rbp)
    ab5d:	00 00 00 
    ab60:	eb 1e                	jmp    ab80 <func_1+0x3cb>
    ab62:	8b 85 70 f0 ff ff    	mov    -0xf90(%rbp),%eax
    ab68:	48 98                	cltq   
    ab6a:	48 8d 15 57 b5 00 00 	lea    0xb557(%rip),%rdx        # 160c8 <g_132>
    ab71:	48 89 94 c5 e8 f1 ff 	mov    %rdx,-0xe18(%rbp,%rax,8)
    ab78:	ff 
    ab79:	83 85 70 f0 ff ff 01 	addl   $0x1,-0xf90(%rbp)
    ab80:	83 bd 70 f0 ff ff 00 	cmpl   $0x0,-0xf90(%rbp)
    ab87:	7e d9                	jle    ab62 <func_1+0x3ad>
    ab89:	c7 85 70 f0 ff ff 00 	movl   $0x0,-0xf90(%rbp)
    ab90:	00 00 00 
    ab93:	eb 21                	jmp    abb6 <func_1+0x401>
    ab95:	8b 85 70 f0 ff ff    	mov    -0xf90(%rbp),%eax
    ab9b:	48 98                	cltq   
    ab9d:	48 bb b5 ae d6 36 aa 	movabs $0xfdc485aa36d6aeb5,%rbx
    aba4:	85 c4 fd 
    aba7:	48 89 9c c5 10 f2 ff 	mov    %rbx,-0xdf0(%rbp,%rax,8)
    abae:	ff 
    abaf:	83 85 70 f0 ff ff 01 	addl   $0x1,-0xf90(%rbp)
    abb6:	83 bd 70 f0 ff ff 03 	cmpl   $0x3,-0xf90(%rbp)
    abbd:	7e d6                	jle    ab95 <func_1+0x3e0>
    abbf:	83 ad 64 f0 ff ff 01 	subl   $0x1,-0xf9c(%rbp)
    abc6:	48 8b 85 28 f2 ff ff 	mov    -0xdd8(%rbp),%rax
    abcd:	0f b6 d8             	movzbl %al,%ebx
    abd0:	48 8b 05 29 03 01 00 	mov    0x10329(%rip),%rax        # 1af00 <g_2060>
    abd7:	48 8b 00             	mov    (%rax),%rax
    abda:	0f b6 00             	movzbl (%rax),%eax
    abdd:	44 0f b6 e0          	movzbl %al,%r12d
    abe1:	48 83 bd 58 f1 ff ff 	cmpq   $0x0,-0xea8(%rbp)
    abe8:	00 
    abe9:	0f 94 c0             	sete   %al
    abec:	0f b6 c0             	movzbl %al,%eax
    abef:	48 89 c6             	mov    %rax,%rsi
    abf2:	48 bf 91 ee 80 33 ad 	movabs $0xe26595ad3380ee91,%rdi
    abf9:	95 65 e2 
    abfc:	e8 4a f4 ff ff       	callq  a04b <safe_sub_func_uint64_t_u_u>
    ac01:	48 89 85 38 f0 ff ff 	mov    %rax,-0xfc8(%rbp)
    ac08:	44 0f b7 ad 58 f0 ff 	movzwl -0xfa8(%rbp),%r13d
    ac0f:	ff 
    ac10:	48 8b 05 11 03 01 00 	mov    0x10311(%rip),%rax        # 1af28 <g_2211>
    ac17:	48 8b 00             	mov    (%rax),%rax
    ac1a:	44 8b 38             	mov    (%rax),%r15d
    ac1d:	0f b7 05 c4 ba 00 00 	movzwl 0xbac4(%rip),%eax        # 166e8 <g_1055+0xe8>
    ac24:	44 0f bf f0          	movswl %ax,%r14d
    ac28:	48 8b 05 a1 fc 00 00 	mov    0xfca1(%rip),%rax        # 1a8d0 <g_1514>
    ac2f:	48 8b 00             	mov    (%rax),%rax
    ac32:	48 8b 00             	mov    (%rax),%rax
    ac35:	48 8b 00             	mov    (%rax),%rax
    ac38:	0f b6 00             	movzbl (%rax),%eax
    ac3b:	0f b6 c8             	movzbl %al,%ecx
    ac3e:	89 8d 34 f0 ff ff    	mov    %ecx,-0xfcc(%rbp)
    ac44:	8b bd 84 f0 ff ff    	mov    -0xf7c(%rbp),%edi
    ac4a:	89 bd 30 f0 ff ff    	mov    %edi,-0xfd0(%rbp)
    ac50:	48 8b 85 28 f1 ff ff 	mov    -0xed8(%rbp),%rax
    ac57:	8b 10                	mov    (%rax),%edx
    ac59:	89 95 2c f0 ff ff    	mov    %edx,-0xfd4(%rbp)
    ac5f:	48 8b 05 c2 f8 00 00 	mov    0xf8c2(%rip),%rax        # 1a528 <g_806>
    ac66:	0f b7 00             	movzwl (%rax),%eax
    ac69:	98                   	cwtl   
    ac6a:	89 c6                	mov    %eax,%esi
    ac6c:	bf 01 00 00 00       	mov    $0x1,%edi
    ac71:	e8 5d e7 ff ff       	callq  93d3 <safe_sub_func_int16_t_s_s>
    ac76:	4c 8b 8d e8 f1 ff ff 	mov    -0xe18(%rbp),%r9
    ac7d:	4c 89 8d 20 f0 ff ff 	mov    %r9,-0xfe0(%rbp)
    ac84:	8b 05 de b3 00 00    	mov    0xb3de(%rip),%eax        # 16068 <g_3+0x28>
    ac8a:	89 c7                	mov    %eax,%edi
    ac8c:	e8 5e 1f 00 00       	callq  cbef <func_50>
    ac91:	48 89 c7             	mov    %rax,%rdi
    ac94:	48 8d 85 f0 f1 ff ff 	lea    -0xe10(%rbp),%rax
    ac9b:	48 83 c0 1c          	add    $0x1c,%rax
    ac9f:	44 8b 85 30 f0 ff ff 	mov    -0xfd0(%rbp),%r8d
    aca6:	8b 8d 2c f0 ff ff    	mov    -0xfd4(%rbp),%ecx
    acac:	48 89 c2             	mov    %rax,%rdx
    acaf:	48 8b b5 20 f0 ff ff 	mov    -0xfe0(%rbp),%rsi
    acb6:	e8 05 1f 00 00       	callq  cbc0 <func_44>
    acbb:	48 8b 05 3e 02 01 00 	mov    0x1023e(%rip),%rax        # 1af00 <g_2060>
    acc2:	48 8b 00             	mov    (%rax),%rax
    acc5:	0f b6 00             	movzbl (%rax),%eax
    acc8:	0f b6 c0             	movzbl %al,%eax
    accb:	8b b5 34 f0 ff ff    	mov    -0xfcc(%rbp),%esi
    acd1:	89 c7                	mov    %eax,%edi
    acd3:	e8 03 ef ff ff       	callq  9bdb <safe_div_func_uint8_t_u_u>
    acd8:	0f b6 c0             	movzbl %al,%eax
    acdb:	be 07 00 00 00       	mov    $0x7,%esi
    ace0:	89 c7                	mov    %eax,%edi
    ace2:	e8 d7 f0 ff ff       	callq  9dbe <safe_lshift_func_uint16_t_u_s>
    ace7:	0f b7 95 58 f0 ff ff 	movzwl -0xfa8(%rbp),%edx
    acee:	48 8b 85 18 f2 ff ff 	mov    -0xde8(%rbp),%rax
    acf5:	48 39 c2             	cmp    %rax,%rdx
    acf8:	0f 95 c0             	setne  %al
    acfb:	0f b6 c0             	movzbl %al,%eax
    acfe:	44 89 fa             	mov    %r15d,%edx
    ad01:	44 89 f6             	mov    %r14d,%esi
    ad04:	89 c7                	mov    %eax,%edi
    ad06:	e8 8b 18 00 00       	callq  c596 <func_34>
    ad0b:	44 89 ee             	mov    %r13d,%esi
    ad0e:	48 89 c7             	mov    %rax,%rdi
    ad11:	e8 0e 0f 00 00       	callq  bc24 <func_31>
    ad16:	be 95 17 19 9e       	mov    $0x9e191795,%esi
    ad1b:	89 c7                	mov    %eax,%edi
    ad1d:	e8 aa e9 ff ff       	callq  96cc <safe_mod_func_int32_t_s_s>
    ad22:	48 8b 85 20 f2 ff ff 	mov    -0xde0(%rbp),%rax
    ad29:	66 89 05 5e b8 00 00 	mov    %ax,0xb85e(%rip)        # 1658e <g_920+0x4>
    ad30:	0f b7 05 57 b8 00 00 	movzwl 0xb857(%rip),%eax        # 1658e <g_920+0x4>
    ad37:	0f bf d0             	movswl %ax,%edx
    ad3a:	b8 01 00 00 00       	mov    $0x1,%eax
    ad3f:	0f b6 c0             	movzbl %al,%eax
    ad42:	39 c2                	cmp    %eax,%edx
    ad44:	0f 9c c0             	setl   %al
    ad47:	0f b6 c0             	movzbl %al,%eax
    ad4a:	48 39 85 38 f0 ff ff 	cmp    %rax,-0xfc8(%rbp)
    ad51:	0f 95 c0             	setne  %al
    ad54:	0f b6 c0             	movzbl %al,%eax
    ad57:	44 89 e6             	mov    %r12d,%esi
    ad5a:	89 c7                	mov    %eax,%edi
    ad5c:	e8 7a ee ff ff       	callq  9bdb <safe_div_func_uint8_t_u_u>
    ad61:	0f b6 d0             	movzbl %al,%edx
    ad64:	48 8b 85 18 f2 ff ff 	mov    -0xde8(%rbp),%rax
    ad6b:	48 39 c2             	cmp    %rax,%rdx
    ad6e:	0f 97 c0             	seta   %al
    ad71:	0f b6 c0             	movzbl %al,%eax
    ad74:	89 de                	mov    %ebx,%esi
    ad76:	89 c7                	mov    %eax,%edi
    ad78:	e8 5e ee ff ff       	callq  9bdb <safe_div_func_uint8_t_u_u>
    ad7d:	84 c0                	test   %al,%al
    ad7f:	0f 84 ec 09 00 00    	je     b771 <func_1+0xfbc>
    ad85:	66 c7 85 5c f0 ff ff 	movw   $0x486a,-0xfa4(%rbp)
    ad8c:	6a 48 
    ad8e:	c7 85 30 f3 ff ff bc 	movl   $0xa81b63bc,-0xcd0(%rbp)
    ad95:	63 1b a8 
    ad98:	c7 85 34 f3 ff ff bc 	movl   $0xa81b63bc,-0xccc(%rbp)
    ad9f:	63 1b a8 
    ada2:	c7 85 38 f3 ff ff fe 	movl   $0xfffffffe,-0xcc8(%rbp)
    ada9:	ff ff ff 
    adac:	c7 85 3c f3 ff ff 05 	movl   $0x651cfc05,-0xcc4(%rbp)
    adb3:	fc 1c 65 
    adb6:	c7 85 40 f3 ff ff 63 	movl   $0x57d12d63,-0xcc0(%rbp)
    adbd:	2d d1 57 
    adc0:	c7 85 44 f3 ff ff 05 	movl   $0x651cfc05,-0xcbc(%rbp)
    adc7:	fc 1c 65 
    adca:	c7 85 48 f3 ff ff fe 	movl   $0xfffffffe,-0xcb8(%rbp)
    add1:	ff ff ff 
    add4:	c7 85 4c f3 ff ff bc 	movl   $0xa81b63bc,-0xcb4(%rbp)
    addb:	63 1b a8 
    adde:	c7 85 50 f3 ff ff bc 	movl   $0xa81b63bc,-0xcb0(%rbp)
    ade5:	63 1b a8 
    ade8:	c7 85 54 f3 ff ff fe 	movl   $0xfffffffe,-0xcac(%rbp)
    adef:	ff ff ff 
    adf2:	c7 85 58 f3 ff ff 05 	movl   $0x651cfc05,-0xca8(%rbp)
    adf9:	fc 1c 65 
    adfc:	c7 85 5c f3 ff ff 63 	movl   $0x57d12d63,-0xca4(%rbp)
    ae03:	2d d1 57 
    ae06:	c7 85 60 f3 ff ff 40 	movl   $0x46e16840,-0xca0(%rbp)
    ae0d:	68 e1 46 
    ae10:	c7 85 64 f3 ff ff bc 	movl   $0xa81b63bc,-0xc9c(%rbp)
    ae17:	63 1b a8 
    ae1a:	c7 85 68 f3 ff ff 63 	movl   $0x57d12d63,-0xc98(%rbp)
    ae21:	2d d1 57 
    ae24:	c7 85 6c f3 ff ff 63 	movl   $0x57d12d63,-0xc94(%rbp)
    ae2b:	2d d1 57 
    ae2e:	c7 85 70 f3 ff ff bc 	movl   $0xa81b63bc,-0xc90(%rbp)
    ae35:	63 1b a8 
    ae38:	c7 85 74 f3 ff ff 40 	movl   $0x46e16840,-0xc8c(%rbp)
    ae3f:	68 e1 46 
    ae42:	c7 85 78 f3 ff ff 00 	movl   $0x0,-0xc88(%rbp)
    ae49:	00 00 00 
    ae4c:	c7 85 7c f3 ff ff 40 	movl   $0x46e16840,-0xc84(%rbp)
    ae53:	68 e1 46 
    ae56:	c7 85 80 f3 ff ff bc 	movl   $0xa81b63bc,-0xc80(%rbp)
    ae5d:	63 1b a8 
    ae60:	c7 85 84 f3 ff ff 63 	movl   $0x57d12d63,-0xc7c(%rbp)
    ae67:	2d d1 57 
    ae6a:	c7 85 88 f3 ff ff 63 	movl   $0x57d12d63,-0xc78(%rbp)
    ae71:	2d d1 57 
    ae74:	c7 85 8c f3 ff ff bc 	movl   $0xa81b63bc,-0xc74(%rbp)
    ae7b:	63 1b a8 
    ae7e:	c7 85 90 f3 ff ff 40 	movl   $0x46e16840,-0xc70(%rbp)
    ae85:	68 e1 46 
    ae88:	c7 85 94 f3 ff ff 00 	movl   $0x0,-0xc6c(%rbp)
    ae8f:	00 00 00 
    ae92:	c7 85 98 f3 ff ff 40 	movl   $0x46e16840,-0xc68(%rbp)
    ae99:	68 e1 46 
    ae9c:	c7 85 9c f3 ff ff bc 	movl   $0xa81b63bc,-0xc64(%rbp)
    aea3:	63 1b a8 
    aea6:	c7 85 a0 f3 ff ff 63 	movl   $0x57d12d63,-0xc60(%rbp)
    aead:	2d d1 57 
    aeb0:	c7 85 a4 f3 ff ff 63 	movl   $0x57d12d63,-0xc5c(%rbp)
    aeb7:	2d d1 57 
    aeba:	c7 85 a8 f3 ff ff bc 	movl   $0xa81b63bc,-0xc58(%rbp)
    aec1:	63 1b a8 
    aec4:	c7 85 ac f3 ff ff 40 	movl   $0x46e16840,-0xc54(%rbp)
    aecb:	68 e1 46 
    aece:	c7 85 b0 f3 ff ff 00 	movl   $0x0,-0xc50(%rbp)
    aed5:	00 00 00 
    aed8:	c7 85 b4 f3 ff ff 40 	movl   $0x46e16840,-0xc4c(%rbp)
    aedf:	68 e1 46 
    aee2:	c7 85 b8 f3 ff ff bc 	movl   $0xa81b63bc,-0xc48(%rbp)
    aee9:	63 1b a8 
    aeec:	c7 85 9c f0 ff ff 6e 	movl   $0xfc87b56e,-0xf64(%rbp)
    aef3:	b5 87 fc 
    aef6:	c7 85 a0 f0 ff ff 00 	movl   $0x0,-0xf60(%rbp)
    aefd:	00 00 00 
    af00:	66 c7 85 d0 f2 ff ff 	movw   $0xbd27,-0xd30(%rbp)
    af07:	27 bd 
    af09:	66 c7 85 d2 f2 ff ff 	movw   $0xacca,-0xd2e(%rbp)
    af10:	ca ac 
    af12:	66 c7 85 d4 f2 ff ff 	movw   $0x9fcb,-0xd2c(%rbp)
    af19:	cb 9f 
    af1b:	66 c7 85 d6 f2 ff ff 	movw   $0xbd27,-0xd2a(%rbp)
    af22:	27 bd 
    af24:	66 c7 85 d8 f2 ff ff 	movw   $0x9fcb,-0xd28(%rbp)
    af2b:	cb 9f 
    af2d:	66 c7 85 da f2 ff ff 	movw   $0x1,-0xd26(%rbp)
    af34:	01 00 
    af36:	66 c7 85 dc f2 ff ff 	movw   $0x0,-0xd24(%rbp)
    af3d:	00 00 
    af3f:	66 c7 85 de f2 ff ff 	movw   $0x1,-0xd22(%rbp)
    af46:	01 00 
    af48:	66 c7 85 e0 f2 ff ff 	movw   $0xffff,-0xd20(%rbp)
    af4f:	ff ff 
    af51:	66 c7 85 e2 f2 ff ff 	movw   $0x1,-0xd1e(%rbp)
    af58:	01 00 
    af5a:	66 c7 85 e4 f2 ff ff 	movw   $0x0,-0xd1c(%rbp)
    af61:	00 00 
    af63:	66 c7 85 e6 f2 ff ff 	movw   $0xfff8,-0xd1a(%rbp)
    af6a:	f8 ff 
    af6c:	66 c7 85 e8 f2 ff ff 	movw   $0x0,-0xd18(%rbp)
    af73:	00 00 
    af75:	66 c7 85 ea f2 ff ff 	movw   $0x1,-0xd16(%rbp)
    af7c:	01 00 
    af7e:	66 c7 85 ec f2 ff ff 	movw   $0xb5d9,-0xd14(%rbp)
    af85:	d9 b5 
    af87:	66 c7 85 ee f2 ff ff 	movw   $0x0,-0xd12(%rbp)
    af8e:	00 00 
    af90:	66 c7 85 f0 f2 ff ff 	movw   $0x9fcb,-0xd10(%rbp)
    af97:	cb 9f 
    af99:	66 c7 85 f2 f2 ff ff 	movw   $0x0,-0xd0e(%rbp)
    afa0:	00 00 
    afa2:	66 c7 85 f4 f2 ff ff 	movw   $0x1,-0xd0c(%rbp)
    afa9:	01 00 
    afab:	66 c7 85 f6 f2 ff ff 	movw   $0xacca,-0xd0a(%rbp)
    afb2:	ca ac 
    afb4:	66 c7 85 f8 f2 ff ff 	movw   $0x0,-0xd08(%rbp)
    afbb:	00 00 
    afbd:	66 c7 85 fa f2 ff ff 	movw   $0x4,-0xd06(%rbp)
    afc4:	04 00 
    afc6:	66 c7 85 fc f2 ff ff 	movw   $0x4,-0xd04(%rbp)
    afcd:	04 00 
    afcf:	66 c7 85 fe f2 ff ff 	movw   $0xb5d9,-0xd02(%rbp)
    afd6:	d9 b5 
    afd8:	66 c7 85 00 f3 ff ff 	movw   $0xb5d9,-0xd00(%rbp)
    afdf:	d9 b5 
    afe1:	66 c7 85 02 f3 ff ff 	movw   $0x0,-0xcfe(%rbp)
    afe8:	00 00 
    afea:	66 c7 85 04 f3 ff ff 	movw   $0xfff8,-0xcfc(%rbp)
    aff1:	f8 ff 
    aff3:	66 c7 85 06 f3 ff ff 	movw   $0xacca,-0xcfa(%rbp)
    affa:	ca ac 
    affc:	66 c7 85 08 f3 ff ff 	movw   $0x3,-0xcf8(%rbp)
    b003:	03 00 
    b005:	66 c7 85 0a f3 ff ff 	movw   $0xffff,-0xcf6(%rbp)
    b00c:	ff ff 
    b00e:	66 c7 85 0c f3 ff ff 	movw   $0xb5d9,-0xcf4(%rbp)
    b015:	d9 b5 
    b017:	66 c7 85 0e f3 ff ff 	movw   $0x3,-0xcf2(%rbp)
    b01e:	03 00 
    b020:	66 c7 85 10 f3 ff ff 	movw   $0x1,-0xcf0(%rbp)
    b027:	01 00 
    b029:	66 c7 85 12 f3 ff ff 	movw   $0x4,-0xcee(%rbp)
    b030:	04 00 
    b032:	66 c7 85 14 f3 ff ff 	movw   $0x4,-0xcec(%rbp)
    b039:	04 00 
    b03b:	66 c7 85 16 f3 ff ff 	movw   $0x9fcb,-0xcea(%rbp)
    b042:	cb 9f 
    b044:	66 c7 85 18 f3 ff ff 	movw   $0x1,-0xce8(%rbp)
    b04b:	01 00 
    b04d:	66 c7 85 1a f3 ff ff 	movw   $0x4,-0xce6(%rbp)
    b054:	04 00 
    b056:	66 c7 85 1c f3 ff ff 	movw   $0x4,-0xce4(%rbp)
    b05d:	04 00 
    b05f:	66 c7 85 1e f3 ff ff 	movw   $0x0,-0xce2(%rbp)
    b066:	00 00 
    b068:	66 c7 85 20 f3 ff ff 	movw   $0x3,-0xce0(%rbp)
    b06f:	03 00 
    b071:	66 c7 85 22 f3 ff ff 	movw   $0x4,-0xcde(%rbp)
    b078:	04 00 
    b07a:	66 c7 85 24 f3 ff ff 	movw   $0x0,-0xcdc(%rbp)
    b081:	00 00 
    b083:	66 c7 85 26 f3 ff ff 	movw   $0x3,-0xcda(%rbp)
    b08a:	03 00 
    b08c:	66 c7 85 28 f3 ff ff 	movw   $0x45f9,-0xcd8(%rbp)
    b093:	f9 45 
    b095:	66 c7 85 2a f3 ff ff 	movw   $0x1,-0xcd6(%rbp)
    b09c:	01 00 
    b09e:	66 c7 85 2c f3 ff ff 	movw   $0x0,-0xcd4(%rbp)
    b0a5:	00 00 
    b0a7:	66 c7 85 2e f3 ff ff 	movw   $0x4,-0xcd2(%rbp)
    b0ae:	04 00 
    b0b0:	c7 85 a4 f0 ff ff a5 	movl   $0xe0b51ba5,-0xf5c(%rbp)
    b0b7:	1b b5 e0 
    b0ba:	c7 85 a8 f0 ff ff f6 	movl   $0xbf67aff6,-0xf58(%rbp)
    b0c1:	af 67 bf 
    b0c4:	c7 85 ac f0 ff ff 27 	movl   $0x4f7a0227,-0xf54(%rbp)
    b0cb:	02 7a 4f 
    b0ce:	48 c7 85 c0 f3 ff ff 	movq   $0x0,-0xc40(%rbp)
    b0d5:	00 00 00 00 
    b0d9:	48 b8 7c b7 f9 1d a0 	movabs $0xcd7b39a01df9b77c,%rax
    b0e0:	39 7b cd 
    b0e3:	48 89 85 c8 f3 ff ff 	mov    %rax,-0xc38(%rbp)
    b0ea:	48 c7 85 d0 f3 ff ff 	movq   $0x0,-0xc30(%rbp)
    b0f1:	00 00 00 00 
    b0f5:	48 c7 85 d8 f3 ff ff 	movq   $0x1,-0xc28(%rbp)
    b0fc:	01 00 00 00 
    b100:	48 c7 85 e0 f3 ff ff 	movq   $0x7,-0xc20(%rbp)
    b107:	07 00 00 00 
    b10b:	48 c7 85 e8 f3 ff ff 	movq   $0x0,-0xc18(%rbp)
    b112:	00 00 00 00 
    b116:	48 c7 85 f0 f3 ff ff 	movq   $0x1,-0xc10(%rbp)
    b11d:	01 00 00 00 
    b121:	48 c7 85 f8 f3 ff ff 	movq   $0x1,-0xc08(%rbp)
    b128:	01 00 00 00 
    b12c:	48 89 85 00 f4 ff ff 	mov    %rax,-0xc00(%rbp)
    b133:	48 89 85 08 f4 ff ff 	mov    %rax,-0xbf8(%rbp)
    b13a:	48 c7 85 10 f4 ff ff 	movq   $0x7,-0xbf0(%rbp)
    b141:	07 00 00 00 
    b145:	48 c7 85 18 f4 ff ff 	movq   $0x0,-0xbe8(%rbp)
    b14c:	00 00 00 00 
    b150:	48 c7 85 20 f4 ff ff 	movq   $0x0,-0xbe0(%rbp)
    b157:	00 00 00 00 
    b15b:	48 c7 85 28 f4 ff ff 	movq   $0x7,-0xbd8(%rbp)
    b162:	07 00 00 00 
    b166:	48 c7 85 30 f4 ff ff 	movq   $0x7,-0xbd0(%rbp)
    b16d:	07 00 00 00 
    b171:	48 c7 85 38 f4 ff ff 	movq   $0x7,-0xbc8(%rbp)
    b178:	07 00 00 00 
    b17c:	48 89 85 40 f4 ff ff 	mov    %rax,-0xbc0(%rbp)
    b183:	48 c7 85 48 f4 ff ff 	movq   $0x0,-0xbb8(%rbp)
    b18a:	00 00 00 00 
    b18e:	48 c7 85 50 f4 ff ff 	movq   $0x1,-0xbb0(%rbp)
    b195:	01 00 00 00 
    b199:	48 c7 85 58 f4 ff ff 	movq   $0x7,-0xba8(%rbp)
    b1a0:	07 00 00 00 
    b1a4:	48 c7 85 60 f4 ff ff 	movq   $0x7,-0xba0(%rbp)
    b1ab:	07 00 00 00 
    b1af:	48 c7 85 68 f4 ff ff 	movq   $0x0,-0xb98(%rbp)
    b1b6:	00 00 00 00 
    b1ba:	48 c7 85 70 f4 ff ff 	movq   $0x0,-0xb90(%rbp)
    b1c1:	00 00 00 00 
    b1c5:	48 c7 85 78 f4 ff ff 	movq   $0x7,-0xb88(%rbp)
    b1cc:	07 00 00 00 
    b1d0:	48 c7 85 80 f4 ff ff 	movq   $0x0,-0xb80(%rbp)
    b1d7:	00 00 00 00 
    b1db:	48 c7 85 88 f4 ff ff 	movq   $0x7,-0xb78(%rbp)
    b1e2:	07 00 00 00 
    b1e6:	48 89 85 90 f4 ff ff 	mov    %rax,-0xb70(%rbp)
    b1ed:	48 c7 85 98 f4 ff ff 	movq   $0x0,-0xb68(%rbp)
    b1f4:	00 00 00 00 
    b1f8:	c7 85 b0 f0 ff ff 01 	movl   $0x80825601,-0xf50(%rbp)
    b1ff:	56 82 80 
    b202:	48 b8 1f 01 91 72 66 	movabs $0x8170e667291011f,%rax
    b209:	0e 17 08 
    b20c:	48 89 85 90 f1 ff ff 	mov    %rax,-0xe70(%rbp)
    b213:	48 8d 05 76 04 01 00 	lea    0x10476(%rip),%rax        # 1b690 <g_2140>
    b21a:	48 89 85 f0 f0 ff ff 	mov    %rax,-0xf10(%rbp)
    b221:	48 8d 85 f0 f0 ff ff 	lea    -0xf10(%rbp),%rax
    b228:	48 89 85 98 f1 ff ff 	mov    %rax,-0xe68(%rbp)
    b22f:	66 c7 05 82 ae 00 00 	movw   $0x0,0xae82(%rip)        # 160ba <g_98>
    b236:	00 00 
    b238:	e9 c3 01 00 00       	jmpq   b400 <func_1+0xc4b>
    b23d:	66 c7 85 52 f0 ff ff 	movw   $0xffff,-0xfae(%rbp)
    b244:	ff ff 
    b246:	c7 85 b0 f8 ff ff 08 	movl   $0x8,-0x750(%rbp)
    b24d:	00 00 00 
    b250:	c7 85 b4 f8 ff ff 04 	movl   $0x4,-0x74c(%rbp)
    b257:	00 00 00 
    b25a:	c7 85 b8 f8 ff ff 08 	movl   $0x8,-0x748(%rbp)
    b261:	00 00 00 
    b264:	c7 85 bc f8 ff ff fb 	movl   $0xfffffffb,-0x744(%rbp)
    b26b:	ff ff ff 
    b26e:	c7 85 c0 f8 ff ff 1c 	movl   $0x469b801c,-0x740(%rbp)
    b275:	80 9b 46 
    b278:	c7 85 c4 f8 ff ff 1c 	movl   $0x469b801c,-0x73c(%rbp)
    b27f:	80 9b 46 
    b282:	c7 85 c8 f8 ff ff fb 	movl   $0xfffffffb,-0x738(%rbp)
    b289:	ff ff ff 
    b28c:	c7 85 cc f8 ff ff 08 	movl   $0x8,-0x734(%rbp)
    b293:	00 00 00 
    b296:	c7 85 d0 f8 ff ff 04 	movl   $0x4,-0x730(%rbp)
    b29d:	00 00 00 
    b2a0:	c7 85 d4 f8 ff ff 04 	movl   $0x4,-0x72c(%rbp)
    b2a7:	00 00 00 
    b2aa:	c7 85 d8 f8 ff ff 1c 	movl   $0x469b801c,-0x728(%rbp)
    b2b1:	80 9b 46 
    b2b4:	c7 85 dc f8 ff ff 5f 	movl   $0xa69d025f,-0x724(%rbp)
    b2bb:	02 9d a6 
    b2be:	c7 85 e0 f8 ff ff 65 	movl   $0xbca0465,-0x720(%rbp)
    b2c5:	04 ca 0b 
    b2c8:	c7 85 e4 f8 ff ff 5f 	movl   $0xa69d025f,-0x71c(%rbp)
    b2cf:	02 9d a6 
    b2d2:	c7 85 e8 f8 ff ff 1c 	movl   $0x469b801c,-0x718(%rbp)
    b2d9:	80 9b 46 
    b2dc:	c7 85 ec f8 ff ff 04 	movl   $0x4,-0x714(%rbp)
    b2e3:	00 00 00 
    b2e6:	c7 85 f0 f8 ff ff 04 	movl   $0x4,-0x710(%rbp)
    b2ed:	00 00 00 
    b2f0:	c7 85 f4 f8 ff ff 08 	movl   $0x8,-0x70c(%rbp)
    b2f7:	00 00 00 
    b2fa:	c7 85 f8 f8 ff ff fb 	movl   $0xfffffffb,-0x708(%rbp)
    b301:	ff ff ff 
    b304:	c7 85 fc f8 ff ff 1c 	movl   $0x469b801c,-0x704(%rbp)
    b30b:	80 9b 46 
    b30e:	c7 85 00 f9 ff ff 1c 	movl   $0x469b801c,-0x700(%rbp)
    b315:	80 9b 46 
    b318:	c7 85 04 f9 ff ff fb 	movl   $0xfffffffb,-0x6fc(%rbp)
    b31f:	ff ff ff 
    b322:	c7 85 08 f9 ff ff 08 	movl   $0x8,-0x6f8(%rbp)
    b329:	00 00 00 
    b32c:	c7 85 0c f9 ff ff 04 	movl   $0x4,-0x6f4(%rbp)
    b333:	00 00 00 
    b336:	c7 05 b4 c0 00 00 00 	movl   $0x0,0xc0b4(%rip)        # 173f4 <g_2863>
    b33d:	00 00 00 
    b340:	eb 4b                	jmp    b38d <func_1+0xbd8>
    b342:	48 b8 d1 21 13 c3 07 	movabs $0x7a24c907c31321d1,%rax
    b349:	c9 24 7a 
    b34c:	48 89 85 d8 f1 ff ff 	mov    %rax,-0xe28(%rbp)
    b353:	0f b7 85 52 f0 ff ff 	movzwl -0xfae(%rbp),%eax
    b35a:	83 e8 01             	sub    $0x1,%eax
    b35d:	66 89 85 52 f0 ff ff 	mov    %ax,-0xfae(%rbp)
    b364:	48 8b 85 d8 f1 ff ff 	mov    -0xe28(%rbp),%rax
    b36b:	48 f7 d0             	not    %rax
    b36e:	48 c1 e8 3f          	shr    $0x3f,%rax
    b372:	0f b6 d0             	movzbl %al,%edx
    b375:	48 8b 85 28 f1 ff ff 	mov    -0xed8(%rbp),%rax
    b37c:	89 10                	mov    %edx,(%rax)
    b37e:	8b 05 70 c0 00 00    	mov    0xc070(%rip),%eax        # 173f4 <g_2863>
    b384:	83 c0 01             	add    $0x1,%eax
    b387:	89 05 67 c0 00 00    	mov    %eax,0xc067(%rip)        # 173f4 <g_2863>
    b38d:	8b 05 61 c0 00 00    	mov    0xc061(%rip),%eax        # 173f4 <g_2863>
    b393:	83 f8 01             	cmp    $0x1,%eax
    b396:	76 aa                	jbe    b342 <func_1+0xb8d>
    b398:	0f b6 45 c7          	movzbl -0x39(%rbp),%eax
    b39c:	83 c0 01             	add    $0x1,%eax
    b39f:	88 45 c7             	mov    %al,-0x39(%rbp)
    b3a2:	66 83 bd 52 f0 ff ff 	cmpw   $0x0,-0xfae(%rbp)
    b3a9:	00 
    b3aa:	0f 85 65 f6 ff ff    	jne    aa15 <func_1+0x260>
    b3b0:	c7 05 12 ad 00 00 00 	movl   $0x0,0xad12(%rip)        # 160cc <g_175>
    b3b7:	00 00 00 
    b3ba:	eb 28                	jmp    b3e4 <func_1+0xc2f>
    b3bc:	48 b8 d1 f8 c7 12 a2 	movabs $0xca36da212c7f8d1,%rax
    b3c3:	6d a3 0c 
    b3c6:	48 89 85 d0 f1 ff ff 	mov    %rax,-0xe30(%rbp)
    b3cd:	48 83 ad d0 f1 ff ff 	subq   $0x1,-0xe30(%rbp)
    b3d4:	01 
    b3d5:	8b 05 f1 ac 00 00    	mov    0xacf1(%rip),%eax        # 160cc <g_175>
    b3db:	83 c0 01             	add    $0x1,%eax
    b3de:	89 05 e8 ac 00 00    	mov    %eax,0xace8(%rip)        # 160cc <g_175>
    b3e4:	8b 05 e2 ac 00 00    	mov    0xace2(%rip),%eax        # 160cc <g_175>
    b3ea:	83 f8 01             	cmp    $0x1,%eax
    b3ed:	76 cd                	jbe    b3bc <func_1+0xc07>
    b3ef:	0f b7 05 c4 ac 00 00 	movzwl 0xacc4(%rip),%eax        # 160ba <g_98>
    b3f6:	83 c0 01             	add    $0x1,%eax
    b3f9:	66 89 05 ba ac 00 00 	mov    %ax,0xacba(%rip)        # 160ba <g_98>
    b400:	0f b7 05 b3 ac 00 00 	movzwl 0xacb3(%rip),%eax        # 160ba <g_98>
    b407:	66 83 f8 04          	cmp    $0x4,%ax
    b40b:	0f 86 2c fe ff ff    	jbe    b23d <func_1+0xa88>
    b411:	48 8b 05 80 ef 00 00 	mov    0xef80(%rip),%rax        # 1a398 <g_428>
    b418:	8b 00                	mov    (%rax),%eax
    b41a:	85 c0                	test   %eax,%eax
    b41c:	0f 85 a3 07 00 00    	jne    bbc5 <func_1+0x1410>
    b422:	48 83 bd 90 f1 ff ff 	cmpq   $0x0,-0xe70(%rbp)
    b429:	00 
    b42a:	0f 84 e2 00 00 00    	je     b512 <func_1+0xd5d>
    b430:	48 8b 05 91 f4 00 00 	mov    0xf491(%rip),%rax        # 1a8c8 <g_1515>
    b437:	48 8b 00             	mov    (%rax),%rax
    b43a:	48 8b 00             	mov    (%rax),%rax
    b43d:	0f b6 00             	movzbl (%rax),%eax
    b440:	84 c0                	test   %al,%al
    b442:	0f 84 ca 00 00 00    	je     b512 <func_1+0xd5d>
    b448:	48 8d 85 b0 f8 ff ff 	lea    -0x750(%rbp),%rax
    b44f:	48 8d 15 8a 70 00 00 	lea    0x708a(%rip),%rdx        # 124e0 <g_3093+0x438>
    b456:	b9 2a 00 00 00       	mov    $0x2a,%ecx
    b45b:	48 89 c7             	mov    %rax,%rdi
    b45e:	48 89 d6             	mov    %rdx,%rsi
    b461:	f3 48 a5             	rep movsq %ds:(%rsi),%es:(%rdi)
    b464:	c7 85 b4 f0 ff ff 79 	movl   $0x16d6e779,-0xf4c(%rbp)
    b46b:	e7 d6 16 
    b46e:	48 8b 85 b8 f9 ff ff 	mov    -0x648(%rbp),%rax
    b475:	48 83 c0 01          	add    $0x1,%rax
    b479:	48 89 85 b8 f9 ff ff 	mov    %rax,-0x648(%rbp)
    b480:	48 8b 05 29 f4 00 00 	mov    0xf429(%rip),%rax        # 1a8b0 <g_1422>
    b487:	48 8b 00             	mov    (%rax),%rax
    b48a:	48 8b 00             	mov    (%rax),%rax
    b48d:	8b 00                	mov    (%rax),%eax
    b48f:	85 c0                	test   %eax,%eax
    b491:	0f 85 5e 07 00 00    	jne    bbf5 <func_1+0x1440>
    b497:	83 bd b4 f0 ff ff 00 	cmpl   $0x0,-0xf4c(%rbp)
    b49e:	75 13                	jne    b4b3 <func_1+0xcfe>
    b4a0:	be 05 00 00 00       	mov    $0x5,%esi
    b4a5:	bf f6 00 00 00       	mov    $0xf6,%edi
    b4aa:	e8 9d e7 ff ff       	callq  9c4c <safe_lshift_func_uint8_t_u_u>
    b4af:	84 c0                	test   %al,%al
    b4b1:	74 07                	je     b4ba <func_1+0xd05>
    b4b3:	b9 01 00 00 00       	mov    $0x1,%ecx
    b4b8:	eb 05                	jmp    b4bf <func_1+0xd0a>
    b4ba:	b9 00 00 00 00       	mov    $0x0,%ecx
    b4bf:	48 8b 05 62 fa 00 00 	mov    0xfa62(%rip),%rax        # 1af28 <g_2211>
    b4c6:	48 8b 00             	mov    (%rax),%rax
    b4c9:	8b 10                	mov    (%rax),%edx
    b4cb:	48 8b 05 56 fa 00 00 	mov    0xfa56(%rip),%rax        # 1af28 <g_2211>
    b4d2:	48 8b 00             	mov    (%rax),%rax
    b4d5:	31 ca                	xor    %ecx,%edx
    b4d7:	89 10                	mov    %edx,(%rax)
    b4d9:	90                   	nop
    b4da:	48 8b 05 3f ec 00 00 	mov    0xec3f(%rip),%rax        # 1a120 <g_313>
    b4e1:	48 8b 00             	mov    (%rax),%rax
    b4e4:	0f b6 00             	movzbl (%rax),%eax
    b4e7:	0f b6 c0             	movzbl %al,%eax
    b4ea:	89 c6                	mov    %eax,%esi
    b4ec:	bf 00 00 00 00       	mov    $0x0,%edi
    b4f1:	e8 64 e6 ff ff       	callq  9b5a <safe_add_func_uint8_t_u_u>
    b4f6:	89 c2                	mov    %eax,%edx
    b4f8:	48 8b 05 b9 f3 00 00 	mov    0xf3b9(%rip),%rax        # 1a8b8 <g_1421>
    b4ff:	48 8b 00             	mov    (%rax),%rax
    b502:	48 8b 00             	mov    (%rax),%rax
    b505:	48 8b 00             	mov    (%rax),%rax
    b508:	0f b6 d2             	movzbl %dl,%edx
    b50b:	89 10                	mov    %edx,(%rax)
    b50d:	e9 ec 03 00 00       	jmpq   b8fe <func_1+0x1149>
    b512:	66 c7 85 5e f0 ff ff 	movw   $0xffff,-0xfa2(%rbp)
    b519:	ff ff 
    b51b:	c7 85 b8 f0 ff ff fd 	movl   $0xfffffffd,-0xf48(%rbp)
    b522:	ff ff ff 
    b525:	c7 85 bc f0 ff ff f6 	movl   $0xfffffff6,-0xf44(%rbp)
    b52c:	ff ff ff 
    b52f:	c7 85 c0 f0 ff ff ab 	movl   $0xf56c27ab,-0xf40(%rbp)
    b536:	27 6c f5 
    b539:	48 c7 85 a0 f1 ff ff 	movq   $0x0,-0xe60(%rbp)
    b540:	00 00 00 00 
    b544:	48 c7 85 a8 f1 ff ff 	movq   $0x0,-0xe58(%rbp)
    b54b:	00 00 00 00 
    b54f:	48 8d 05 0a af 00 00 	lea    0xaf0a(%rip),%rax        # 16460 <g_359>
    b556:	48 89 85 b0 f1 ff ff 	mov    %rax,-0xe50(%rbp)
    b55d:	c7 05 01 bc 00 00 03 	movl   $0x3,0xbc01(%rip)        # 17168 <g_1853>
    b564:	00 00 00 
    b567:	e9 be 00 00 00       	jmpq   b62a <func_1+0xe75>
    b56c:	48 b8 0d c5 5e a1 a9 	movabs $0x8b6f24a9a15ec50d,%rax
    b573:	24 6f 8b 
    b576:	48 89 85 f8 f0 ff ff 	mov    %rax,-0xf08(%rbp)
    b57d:	48 8d 85 f8 f0 ff ff 	lea    -0xf08(%rbp),%rax
    b584:	48 89 85 b8 f1 ff ff 	mov    %rax,-0xe48(%rbp)
    b58b:	48 8d 05 0e 01 01 00 	lea    0x1010e(%rip),%rax        # 1b6a0 <g_2231>
    b592:	48 89 85 c0 f1 ff ff 	mov    %rax,-0xe40(%rbp)
    b599:	48 b8 59 35 e8 57 27 	movabs $0x7337f72757e83559,%rax
    b5a0:	f7 37 73 
    b5a3:	48 89 85 c8 f1 ff ff 	mov    %rax,-0xe38(%rbp)
    b5aa:	c7 85 60 f0 ff ff 00 	movl   $0x0,-0xfa0(%rbp)
    b5b1:	00 00 00 
    b5b4:	90                   	nop
    b5b5:	8b 85 60 f0 ff ff    	mov    -0xfa0(%rbp),%eax
    b5bb:	83 f8 01             	cmp    $0x1,%eax
    b5be:	7f 5b                	jg     b61b <func_1+0xe66>
    b5c0:	48 8b 85 f8 f0 ff ff 	mov    -0xf08(%rbp),%rax
    b5c7:	48 83 e8 01          	sub    $0x1,%rax
    b5cb:	48 89 85 f8 f0 ff ff 	mov    %rax,-0xf08(%rbp)
    b5d2:	8b 85 60 f0 ff ff    	mov    -0xfa0(%rbp),%eax
    b5d8:	8b 15 8a bb 00 00    	mov    0xbb8a(%rip),%edx        # 17168 <g_1853>
    b5de:	8d 72 02             	lea    0x2(%rdx),%esi
    b5e1:	8b 95 60 f0 ff ff    	mov    -0xfa0(%rbp),%edx
    b5e7:	48 63 ca             	movslq %edx,%rcx
    b5ea:	48 63 d0             	movslq %eax,%rdx
    b5ed:	48 63 f6             	movslq %esi,%rsi
    b5f0:	48 89 d0             	mov    %rdx,%rax
    b5f3:	48 c1 e0 03          	shl    $0x3,%rax
    b5f7:	48 29 d0             	sub    %rdx,%rax
    b5fa:	48 01 f0             	add    %rsi,%rax
    b5fd:	48 01 c0             	add    %rax,%rax
    b600:	48 01 c8             	add    %rcx,%rax
    b603:	48 8d 14 c5 00 00 00 	lea    0x0(,%rax,8),%rdx
    b60a:	00 
    b60b:	48 8d 05 6e ae 00 00 	lea    0xae6e(%rip),%rax        # 16480 <g_539>
    b612:	48 8b 04 02          	mov    (%rdx,%rax,1),%rax
    b616:	e9 e3 05 00 00       	jmpq   bbfe <func_1+0x1449>
    b61b:	8b 05 47 bb 00 00    	mov    0xbb47(%rip),%eax        # 17168 <g_1853>
    b621:	83 e8 01             	sub    $0x1,%eax
    b624:	89 05 3e bb 00 00    	mov    %eax,0xbb3e(%rip)        # 17168 <g_1853>
    b62a:	8b 05 38 bb 00 00    	mov    0xbb38(%rip),%eax        # 17168 <g_1853>
    b630:	85 c0                	test   %eax,%eax
    b632:	0f 89 34 ff ff ff    	jns    b56c <func_1+0xdb7>
    b638:	0f b6 05 09 be 00 00 	movzbl 0xbe09(%rip),%eax        # 17448 <g_3025>
    b63f:	83 c0 01             	add    $0x1,%eax
    b642:	88 05 00 be 00 00    	mov    %al,0xbe00(%rip)        # 17448 <g_3025>
    b648:	48 c7 05 75 fb 00 00 	movq   $0x0,0xfb75(%rip)        # 1b1c8 <g_3028>
    b64f:	00 00 00 00 
    b653:	48 8b 05 ae fa 00 00 	mov    0xfaae(%rip),%rax        # 1b108 <g_2721>
    b65a:	48 bb a3 3f 04 05 f1 	movabs $0x55463df105043fa3,%rbx
    b661:	3d 46 55 
    b664:	48 89 18             	mov    %rbx,(%rax)
    b667:	48 8b 05 ba f8 00 00 	mov    0xf8ba(%rip),%rax        # 1af28 <g_2211>
    b66e:	48 8b 00             	mov    (%rax),%rax
    b671:	8b 00                	mov    (%rax),%eax
    b673:	41 89 c5             	mov    %eax,%r13d
    b676:	48 8b 05 fb ec 00 00 	mov    0xecfb(%rip),%rax        # 1a378 <g_378>
    b67d:	0f b6 00             	movzbl (%rax),%eax
    b680:	0f b6 d8             	movzbl %al,%ebx
    b683:	44 8b a5 94 f0 ff ff 	mov    -0xf6c(%rbp),%r12d
    b68a:	48 8b 05 77 f2 00 00 	mov    0xf277(%rip),%rax        # 1a908 <g_1625>
    b691:	48 8b 00             	mov    (%rax),%rax
    b694:	8b 00                	mov    (%rax),%eax
    b696:	41 89 c6             	mov    %eax,%r14d
    b699:	8b 95 b8 f0 ff ff    	mov    -0xf48(%rbp),%edx
    b69f:	48 8b 85 b0 f1 ff ff 	mov    -0xe50(%rbp),%rax
    b6a6:	89 10                	mov    %edx,(%rax)
    b6a8:	48 8b 85 b0 f1 ff ff 	mov    -0xe50(%rbp),%rax
    b6af:	8b 00                	mov    (%rax),%eax
    b6b1:	be 01 28 3e a4       	mov    $0xa43e2801,%esi
    b6b6:	89 c7                	mov    %eax,%edi
    b6b8:	e8 13 e8 ff ff       	callq  9ed0 <safe_sub_func_uint32_t_u_u>
    b6bd:	44 89 f6             	mov    %r14d,%esi
    b6c0:	89 c7                	mov    %eax,%edi
    b6c2:	e8 05 e0 ff ff       	callq  96cc <safe_mod_func_int32_t_s_s>
    b6c7:	48 98                	cltq   
    b6c9:	4c 89 e6             	mov    %r12,%rsi
    b6cc:	48 89 c7             	mov    %rax,%rdi
    b6cf:	e8 77 e9 ff ff       	callq  a04b <safe_sub_func_uint64_t_u_u>
    b6d4:	48 8d 05 2d f8 00 00 	lea    0xf82d(%rip),%rax        # 1af08 <g_2139>
    b6db:	48 39 85 98 f1 ff ff 	cmp    %rax,-0xe68(%rbp)
    b6e2:	0f 94 c2             	sete   %dl
    b6e5:	48 8b 85 28 f1 ff ff 	mov    -0xed8(%rbp),%rax
    b6ec:	8b 00                	mov    (%rax),%eax
    b6ee:	85 c0                	test   %eax,%eax
    b6f0:	0f 9e c0             	setle  %al
    b6f3:	31 d0                	xor    %edx,%eax
    b6f5:	0f b6 c0             	movzbl %al,%eax
    b6f8:	be e3 d1 42 0f       	mov    $0xf42d1e3,%esi
    b6fd:	89 c7                	mov    %eax,%edi
    b6ff:	e8 f9 e7 ff ff       	callq  9efd <safe_mod_func_uint32_t_u_u>
    b704:	0f b6 c0             	movzbl %al,%eax
    b707:	89 de                	mov    %ebx,%esi
    b709:	89 c7                	mov    %eax,%edi
    b70b:	e8 83 e4 ff ff       	callq  9b93 <safe_mul_func_uint8_t_u_u>
    b710:	48 8b 05 f1 f9 00 00 	mov    0xf9f1(%rip),%rax        # 1b108 <g_2721>
    b717:	48 8b 00             	mov    (%rax),%rax
    b71a:	33 85 c0 f0 ff ff    	xor    -0xf40(%rbp),%eax
    b720:	48 8b 95 10 f4 ff ff 	mov    -0xbf0(%rbp),%rdx
    b727:	21 d0                	and    %edx,%eax
    b729:	44 89 ee             	mov    %r13d,%esi
    b72c:	89 c7                	mov    %eax,%edi
    b72e:	e8 f2 e7 ff ff       	callq  9f25 <safe_div_func_uint32_t_u_u>
    b733:	48 8b 95 60 f1 ff ff 	mov    -0xea0(%rbp),%rdx
    b73a:	8b 12                	mov    (%rdx),%edx
    b73c:	21 d0                	and    %edx,%eax
    b73e:	89 c2                	mov    %eax,%edx
    b740:	48 8b 85 60 f1 ff ff 	mov    -0xea0(%rbp),%rax
    b747:	89 10                	mov    %edx,(%rax)
    b749:	48 8b 85 60 f1 ff ff 	mov    -0xea0(%rbp),%rax
    b750:	8b 08                	mov    (%rax),%ecx
    b752:	48 8d 05 fb bc 00 00 	lea    0xbcfb(%rip),%rax        # 17454 <g_3032+0x4>
    b759:	8b 10                	mov    (%rax),%edx
    b75b:	48 8d 05 f2 bc 00 00 	lea    0xbcf2(%rip),%rax        # 17454 <g_3032+0x4>
    b762:	09 ca                	or     %ecx,%edx
    b764:	89 10                	mov    %edx,(%rax)
    b766:	8b 85 b8 f0 ff ff    	mov    -0xf48(%rbp),%eax
    b76c:	e9 8d 04 00 00       	jmpq   bbfe <func_1+0x1449>
    b771:	c7 85 98 f0 ff ff 26 	movl   $0xbd10d926,-0xf68(%rbp)
    b778:	d9 10 bd 
    b77b:	c6 85 50 f0 ff ff fa 	movb   $0xfa,-0xfb0(%rbp)
    b782:	48 8d 85 b0 f8 ff ff 	lea    -0x750(%rbp),%rax
    b789:	48 8d 15 70 c4 00 00 	lea    0xc470(%rip),%rdx        # 17c00 <g_3238+0x10>
    b790:	b9 e1 00 00 00       	mov    $0xe1,%ecx
    b795:	48 89 c7             	mov    %rax,%rdi
    b798:	48 89 d6             	mov    %rdx,%rsi
    b79b:	f3 48 a5             	rep movsq %ds:(%rsi),%es:(%rdi)
    b79e:	48 8d 05 23 a9 00 00 	lea    0xa923(%rip),%rax        # 160c8 <g_132>
    b7a5:	48 89 85 70 f1 ff ff 	mov    %rax,-0xe90(%rbp)
    b7ac:	48 8b 85 00 f1 ff ff 	mov    -0xf00(%rbp),%rax
    b7b3:	c7 00 00 00 00 00    	movl   $0x0,(%rax)
    b7b9:	48 8b 85 60 f1 ff ff 	mov    -0xea0(%rbp),%rax
    b7c0:	8b 00                	mov    (%rax),%eax
    b7c2:	85 c0                	test   %eax,%eax
    b7c4:	0f 85 2a 04 00 00    	jne    bbf4 <func_1+0x143f>
    b7ca:	66 c7 05 e7 a8 00 00 	movw   $0x0,0xa8e7(%rip)        # 160ba <g_98>
    b7d1:	00 00 
    b7d3:	90                   	nop
    b7d4:	0f b7 05 df a8 00 00 	movzwl 0xa8df(%rip),%eax        # 160ba <g_98>
    b7db:	66 83 f8 01          	cmp    $0x1,%ax
    b7df:	77 11                	ja     b7f2 <func_1+0x103d>
    b7e1:	48 8b 05 20 f1 00 00 	mov    0xf120(%rip),%rax        # 1a908 <g_1625>
    b7e8:	48 8b 00             	mov    (%rax),%rax
    b7eb:	8b 00                	mov    (%rax),%eax
    b7ed:	e9 0c 04 00 00       	jmpq   bbfe <func_1+0x1449>
    b7f2:	83 bd 8c f0 ff ff 00 	cmpl   $0x0,-0xf74(%rbp)
    b7f9:	0f 85 c0 03 00 00    	jne    bbbf <func_1+0x140a>
    b7ff:	c7 05 5f b9 00 00 00 	movl   $0x0,0xb95f(%rip)        # 17168 <g_1853>
    b806:	00 00 00 
    b809:	e9 e1 00 00 00       	jmpq   b8ef <func_1+0x113a>
    b80e:	c7 85 30 f3 ff ff 9a 	movl   $0xe99a889a,-0xcd0(%rbp)
    b815:	88 9a e9 
    b818:	c7 85 34 f3 ff ff e5 	movl   $0xa34d8ee5,-0xccc(%rbp)
    b81f:	8e 4d a3 
    b822:	c7 85 38 f3 ff ff 9a 	movl   $0xe99a889a,-0xcc8(%rbp)
    b829:	88 9a e9 
    b82c:	c7 85 3c f3 ff ff e5 	movl   $0xa34d8ee5,-0xcc4(%rbp)
    b833:	8e 4d a3 
    b836:	48 8d 05 9f bb 00 00 	lea    0xbb9f(%rip),%rax        # 173dc <g_2686>
    b83d:	48 89 85 c0 f3 ff ff 	mov    %rax,-0xc40(%rbp)
    b844:	48 8d 05 75 a8 00 00 	lea    0xa875(%rip),%rax        # 160c0 <g_121>
    b84b:	48 89 85 c8 f3 ff ff 	mov    %rax,-0xc38(%rbp)
    b852:	48 8d 05 83 bb 00 00 	lea    0xbb83(%rip),%rax        # 173dc <g_2686>
    b859:	48 89 85 d0 f3 ff ff 	mov    %rax,-0xc30(%rbp)
    b860:	48 8d 05 59 a8 00 00 	lea    0xa859(%rip),%rax        # 160c0 <g_121>
    b867:	48 89 85 d8 f3 ff ff 	mov    %rax,-0xc28(%rbp)
    b86e:	48 8d 05 67 bb 00 00 	lea    0xbb67(%rip),%rax        # 173dc <g_2686>
    b875:	48 89 85 e0 f3 ff ff 	mov    %rax,-0xc20(%rbp)
    b87c:	48 8d 05 3d a8 00 00 	lea    0xa83d(%rip),%rax        # 160c0 <g_121>
    b883:	48 89 85 e8 f3 ff ff 	mov    %rax,-0xc18(%rbp)
    b88a:	48 8d 05 4b bb 00 00 	lea    0xbb4b(%rip),%rax        # 173dc <g_2686>
    b891:	48 89 85 f0 f3 ff ff 	mov    %rax,-0xc10(%rbp)
    b898:	48 8d 05 21 a8 00 00 	lea    0xa821(%rip),%rax        # 160c0 <g_121>
    b89f:	48 89 85 f8 f3 ff ff 	mov    %rax,-0xc08(%rbp)
    b8a6:	48 c7 85 78 f1 ff ff 	movq   $0x0,-0xe88(%rbp)
    b8ad:	00 00 00 00 
    b8b1:	48 8d 85 e8 f1 ff ff 	lea    -0xe18(%rbp),%rax
    b8b8:	48 89 85 80 f1 ff ff 	mov    %rax,-0xe80(%rbp)
    b8bf:	c6 85 51 f0 ff ff ff 	movb   $0xff,-0xfaf(%rbp)
    b8c6:	48 8d 05 27 bb 00 00 	lea    0xbb27(%rip),%rax        # 173f4 <g_2863>
    b8cd:	48 89 85 88 f1 ff ff 	mov    %rax,-0xe78(%rbp)
    b8d4:	8b 05 8e b8 00 00    	mov    0xb88e(%rip),%eax        # 17168 <g_1853>
    b8da:	48 98                	cltq   
    b8dc:	be 08 00 00 00       	mov    $0x8,%esi
    b8e1:	48 89 c7             	mov    %rax,%rdi
    b8e4:	e8 bf df ff ff       	callq  98a8 <safe_sub_func_int64_t_s_s>
    b8e9:	89 05 79 b8 00 00    	mov    %eax,0xb879(%rip)        # 17168 <g_1853>
    b8ef:	8b 05 73 b8 00 00    	mov    0xb873(%rip),%eax        # 17168 <g_1853>
    b8f5:	83 f8 f6             	cmp    $0xfffffff6,%eax
    b8f8:	0f 8d 10 ff ff ff    	jge    b80e <func_1+0x1059>
    b8fe:	66 c7 05 b1 a7 00 00 	movw   $0x6,0xa7b1(%rip)        # 160b8 <g_95>
    b905:	06 00 
    b907:	e9 94 02 00 00       	jmpq   bba0 <func_1+0x13eb>
    b90c:	c7 85 c4 f0 ff ff fd 	movl   $0xfffffffd,-0xf3c(%rbp)
    b913:	ff ff ff 
    b916:	48 8d 05 a3 f8 00 00 	lea    0xf8a3(%rip),%rax        # 1b1c0 <g_3029>
    b91d:	48 89 85 e0 f1 ff ff 	mov    %rax,-0xe20(%rbp)
    b924:	c7 85 74 f0 ff ff 00 	movl   $0x0,-0xf8c(%rbp)
    b92b:	00 00 00 
    b92e:	eb 4e                	jmp    b97e <func_1+0x11c9>
    b930:	c7 85 78 f0 ff ff 00 	movl   $0x0,-0xf88(%rbp)
    b937:	00 00 00 
    b93a:	eb 32                	jmp    b96e <func_1+0x11b9>
    b93c:	8b 85 78 f0 ff ff    	mov    -0xf88(%rbp),%eax
    b942:	48 63 c8             	movslq %eax,%rcx
    b945:	8b 85 74 f0 ff ff    	mov    -0xf8c(%rbp),%eax
    b94b:	48 63 d0             	movslq %eax,%rdx
    b94e:	48 89 d0             	mov    %rdx,%rax
    b951:	48 c1 e0 02          	shl    $0x2,%rax
    b955:	48 01 d0             	add    %rdx,%rax
    b958:	48 01 c8             	add    %rcx,%rax
    b95b:	48 c7 84 c5 b0 f8 ff 	movq   $0x0,-0x750(%rbp,%rax,8)
    b962:	ff 00 00 00 00 
    b967:	83 85 78 f0 ff ff 01 	addl   $0x1,-0xf88(%rbp)
    b96e:	83 bd 78 f0 ff ff 04 	cmpl   $0x4,-0xf88(%rbp)
    b975:	7e c5                	jle    b93c <func_1+0x1187>
    b977:	83 85 74 f0 ff ff 01 	addl   $0x1,-0xf8c(%rbp)
    b97e:	83 bd 74 f0 ff ff 04 	cmpl   $0x4,-0xf8c(%rbp)
    b985:	7e a9                	jle    b930 <func_1+0x117b>
    b987:	c7 85 74 f0 ff ff 00 	movl   $0x0,-0xf8c(%rbp)
    b98e:	00 00 00 
    b991:	eb 6b                	jmp    b9fe <func_1+0x1249>
    b993:	c7 85 78 f0 ff ff 00 	movl   $0x0,-0xf88(%rbp)
    b99a:	00 00 00 
    b99d:	eb 4f                	jmp    b9ee <func_1+0x1239>
    b99f:	c7 85 7c f0 ff ff 00 	movl   $0x0,-0xf84(%rbp)
    b9a6:	00 00 00 
    b9a9:	eb 33                	jmp    b9de <func_1+0x1229>
    b9ab:	8b 85 7c f0 ff ff    	mov    -0xf84(%rbp),%eax
    b9b1:	48 63 c8             	movslq %eax,%rcx
    b9b4:	8b 85 78 f0 ff ff    	mov    -0xf88(%rbp),%eax
    b9ba:	48 63 d0             	movslq %eax,%rdx
    b9bd:	8b 85 74 f0 ff ff    	mov    -0xf8c(%rbp),%eax
    b9c3:	48 98                	cltq   
    b9c5:	48 01 ca             	add    %rcx,%rdx
    b9c8:	48 01 d0             	add    %rdx,%rax
    b9cb:	48 c7 84 c5 c0 f3 ff 	movq   $0x0,-0xc40(%rbp,%rax,8)
    b9d2:	ff 00 00 00 00 
    b9d7:	83 85 7c f0 ff ff 01 	addl   $0x1,-0xf84(%rbp)
    b9de:	83 bd 7c f0 ff ff 00 	cmpl   $0x0,-0xf84(%rbp)
    b9e5:	7e c4                	jle    b9ab <func_1+0x11f6>
    b9e7:	83 85 78 f0 ff ff 01 	addl   $0x1,-0xf88(%rbp)
    b9ee:	83 bd 78 f0 ff ff 00 	cmpl   $0x0,-0xf88(%rbp)
    b9f5:	7e a8                	jle    b99f <func_1+0x11ea>
    b9f7:	83 85 74 f0 ff ff 01 	addl   $0x1,-0xf8c(%rbp)
    b9fe:	83 bd 74 f0 ff ff 02 	cmpl   $0x2,-0xf8c(%rbp)
    ba05:	7e 8c                	jle    b993 <func_1+0x11de>
    ba07:	8b 1d 53 aa 00 00    	mov    0xaa53(%rip),%ebx        # 16460 <g_359>
    ba0d:	8d 43 01             	lea    0x1(%rbx),%eax
    ba10:	89 05 4a aa 00 00    	mov    %eax,0xaa4a(%rip)        # 16460 <g_359>
    ba16:	48 8b 05 63 e9 00 00 	mov    0xe963(%rip),%rax        # 1a380 <g_377>
    ba1d:	48 8b 00             	mov    (%rax),%rax
    ba20:	0f b6 00             	movzbl (%rax),%eax
    ba23:	0f b6 c0             	movzbl %al,%eax
    ba26:	be ff 00 00 00       	mov    $0xff,%esi
    ba2b:	89 c7                	mov    %eax,%edi
    ba2d:	e8 46 e1 ff ff       	callq  9b78 <safe_sub_func_uint8_t_u_u>
    ba32:	0f b6 c0             	movzbl %al,%eax
    ba35:	39 c3                	cmp    %eax,%ebx
    ba37:	0f 94 c0             	sete   %al
    ba3a:	0f b6 c0             	movzbl %al,%eax
    ba3d:	be 05 00 00 00       	mov    $0x5,%esi
    ba42:	89 c7                	mov    %eax,%edi
    ba44:	e8 bc db ff ff       	callq  9605 <safe_sub_func_int32_t_s_s>
    ba49:	41 89 c5             	mov    %eax,%r13d
    ba4c:	48 8b 05 05 e4 00 00 	mov    0xe405(%rip),%rax        # 19e58 <g_179>
    ba53:	48 8b 00             	mov    (%rax),%rax
    ba56:	0f b6 00             	movzbl (%rax),%eax
    ba59:	44 0f b6 e0          	movzbl %al,%r12d
    ba5d:	48 8b 05 64 ee 00 00 	mov    0xee64(%rip),%rax        # 1a8c8 <g_1515>
    ba64:	48 8b 00             	mov    (%rax),%rax
    ba67:	48 8b 00             	mov    (%rax),%rax
    ba6a:	0f b6 00             	movzbl (%rax),%eax
    ba6d:	0f be d8             	movsbl %al,%ebx
    ba70:	48 8b 85 48 f1 ff ff 	mov    -0xeb8(%rbp),%rax
    ba77:	48 8b 00             	mov    (%rax),%rax
    ba7a:	48 39 85 e0 f1 ff ff 	cmp    %rax,-0xe20(%rbp)
    ba81:	0f 94 c0             	sete   %al
    ba84:	0f b6 c0             	movzbl %al,%eax
    ba87:	be af 00 00 00       	mov    $0xaf,%esi
    ba8c:	89 c7                	mov    %eax,%edi
    ba8e:	e8 1b e1 ff ff       	callq  9bae <safe_mod_func_uint8_t_u_u>
    ba93:	be 0e 00 00 00       	mov    $0xe,%esi
    ba98:	bf 01 00 00 00       	mov    $0x1,%edi
    ba9d:	e8 c1 da ff ff       	callq  9563 <safe_rshift_func_int16_t_s_u>
    baa2:	f7 d0                	not    %eax
    baa4:	0f be c0             	movsbl %al,%eax
    baa7:	89 de                	mov    %ebx,%esi
    baa9:	89 c7                	mov    %eax,%edi
    baab:	e8 81 d7 ff ff       	callq  9231 <safe_mod_func_int8_t_s_s>
    bab0:	0f b7 85 5a f0 ff ff 	movzwl -0xfa6(%rbp),%eax
    bab7:	66 89 85 56 f0 ff ff 	mov    %ax,-0xfaa(%rbp)
    babe:	48 8b 05 6b ea 00 00 	mov    0xea6b(%rip),%rax        # 1a530 <g_805>
    bac5:	48 8b 00             	mov    (%rax),%rax
    bac8:	0f b7 00             	movzwl (%rax),%eax
    bacb:	66 83 f8 01          	cmp    $0x1,%ax
    bacf:	0f 94 c0             	sete   %al
    bad2:	0f b6 c0             	movzbl %al,%eax
    bad5:	48 89 05 04 a6 00 00 	mov    %rax,0xa604(%rip)        # 160e0 <g_233>
    badc:	48 8b 15 fd a5 00 00 	mov    0xa5fd(%rip),%rdx        # 160e0 <g_233>
    bae3:	0f b7 05 a4 ab 00 00 	movzwl 0xaba4(%rip),%eax        # 1668e <g_1055+0x8e>
    baea:	0f b7 c0             	movzwl %ax,%eax
    baed:	48 39 c2             	cmp    %rax,%rdx
    baf0:	0f 94 c0             	sete   %al
    baf3:	0f b6 c0             	movzbl %al,%eax
    baf6:	be fa ff 00 00       	mov    $0xfffa,%esi
    bafb:	89 c7                	mov    %eax,%edi
    bafd:	e8 1d e2 ff ff       	callq  9d1f <safe_sub_func_uint16_t_u_u>
    bb02:	0f b7 d0             	movzwl %ax,%edx
    bb05:	48 8b 05 fc e2 00 00 	mov    0xe2fc(%rip),%rax        # 19e08 <g_131>
    bb0c:	0f b6 00             	movzbl (%rax),%eax
    bb0f:	c0 e8 07             	shr    $0x7,%al
    bb12:	0f b6 c0             	movzbl %al,%eax
    bb15:	89 d6                	mov    %edx,%esi
    bb17:	89 c7                	mov    %eax,%edi
    bb19:	e8 2e e1 ff ff       	callq  9c4c <safe_lshift_func_uint8_t_u_u>
    bb1e:	0f b6 d0             	movzbl %al,%edx
    bb21:	0f b6 05 c8 c0 00 00 	movzbl 0xc0c8(%rip),%eax        # 17bf0 <g_3238>
    bb28:	0f be c0             	movsbl %al,%eax
    bb2b:	39 c2                	cmp    %eax,%edx
    bb2d:	0f 9f c0             	setg   %al
    bb30:	0f b6 c0             	movzbl %al,%eax
    bb33:	41 39 c4             	cmp    %eax,%r12d
    bb36:	0f 95 c0             	setne  %al
    bb39:	0f b6 c0             	movzbl %al,%eax
    bb3c:	be 1f c8 f6 1f       	mov    $0x1ff6c81f,%esi
    bb41:	89 c7                	mov    %eax,%edi
    bb43:	e8 70 e3 ff ff       	callq  9eb8 <safe_add_func_uint32_t_u_u>
    bb48:	41 39 c5             	cmp    %eax,%r13d
    bb4b:	0f 95 c0             	setne  %al
    bb4e:	0f b6 d0             	movzbl %al,%edx
    bb51:	48 8b 85 28 f1 ff ff 	mov    -0xed8(%rbp),%rax
    bb58:	8b 00                	mov    (%rax),%eax
    bb5a:	39 c2                	cmp    %eax,%edx
    bb5c:	0f 9c c0             	setl   %al
    bb5f:	0f b6 d0             	movzbl %al,%edx
    bb62:	48 8b 05 c7 e9 00 00 	mov    0xe9c7(%rip),%rax        # 1a530 <g_805>
    bb69:	48 8b 00             	mov    (%rax),%rax
    bb6c:	0f b7 00             	movzwl (%rax),%eax
    bb6f:	0f b7 c0             	movzwl %ax,%eax
    bb72:	39 c2                	cmp    %eax,%edx
    bb74:	0f 9c c0             	setl   %al
    bb77:	0f b6 d0             	movzbl %al,%edx
    bb7a:	48 8b 85 28 f1 ff ff 	mov    -0xed8(%rbp),%rax
    bb81:	89 10                	mov    %edx,(%rax)
    bb83:	0f b7 05 2e a5 00 00 	movzwl 0xa52e(%rip),%eax        # 160b8 <g_95>
    bb8a:	0f b7 c0             	movzwl %ax,%eax
    bb8d:	be 01 00 00 00       	mov    $0x1,%esi
    bb92:	89 c7                	mov    %eax,%edi
    bb94:	e8 1f e3 ff ff       	callq  9eb8 <safe_add_func_uint32_t_u_u>
    bb99:	66 89 05 18 a5 00 00 	mov    %ax,0xa518(%rip)        # 160b8 <g_95>
    bba0:	0f b7 05 11 a5 00 00 	movzwl 0xa511(%rip),%eax        # 160b8 <g_95>
    bba7:	66 83 f8 39          	cmp    $0x39,%ax
    bbab:	0f 86 5b fd ff ff    	jbe    b90c <func_1+0x1157>
    bbb1:	83 bd 94 f0 ff ff 00 	cmpl   $0x0,-0xf6c(%rbp)
    bbb8:	74 0b                	je     bbc5 <func_1+0x1410>
    bbba:	e9 56 ee ff ff       	jmpq   aa15 <func_1+0x260>
    bbbf:	90                   	nop
    bbc0:	e9 50 ee ff ff       	jmpq   aa15 <func_1+0x260>
    bbc5:	0f b7 85 54 f0 ff ff 	movzwl -0xfac(%rbp),%eax
    bbcc:	0f be c0             	movsbl %al,%eax
    bbcf:	be 03 00 00 00       	mov    $0x3,%esi
    bbd4:	89 c7                	mov    %eax,%edi
    bbd6:	e8 f9 d5 ff ff       	callq  91d4 <safe_add_func_int8_t_s_s>
    bbdb:	66 98                	cbtw   
    bbdd:	66 89 85 54 f0 ff ff 	mov    %ax,-0xfac(%rbp)
    bbe4:	66 83 bd 54 f0 ff ff 	cmpw   $0x10,-0xfac(%rbp)
    bbeb:	10 
    bbec:	0f 87 42 ee ff ff    	ja     aa34 <func_1+0x27f>
    bbf2:	eb 01                	jmp    bbf5 <func_1+0x1440>
    bbf4:	90                   	nop
    bbf5:	48 8b 85 28 f1 ff ff 	mov    -0xed8(%rbp),%rax
    bbfc:	8b 00                	mov    (%rax),%eax
    bbfe:	48 8b 5d c8          	mov    -0x38(%rbp),%rbx
    bc02:	64 48 33 1c 25 28 00 	xor    %fs:0x28,%rbx
    bc09:	00 00 
    bc0b:	74 05                	je     bc12 <func_1+0x145d>
    bc0d:	e8 5e d4 ff ff       	callq  9070 <__stack_chk_fail@plt>
    bc12:	48 81 c4 b8 0f 00 00 	add    $0xfb8,%rsp
    bc19:	5b                   	pop    %rbx
    bc1a:	41 5c                	pop    %r12
    bc1c:	41 5d                	pop    %r13
    bc1e:	41 5e                	pop    %r14
    bc20:	41 5f                	pop    %r15
    bc22:	5d                   	pop    %rbp
    bc23:	c3                   	retq   

000000000000bc24 <func_31>:
    bc24:	f3 0f 1e fa          	endbr64 
    bc28:	55                   	push   %rbp
    bc29:	48 89 e5             	mov    %rsp,%rbp
    bc2c:	41 54                	push   %r12
    bc2e:	53                   	push   %rbx
    bc2f:	48 81 ec 10 06 00 00 	sub    $0x610,%rsp
    bc36:	48 89 bd e8 f9 ff ff 	mov    %rdi,-0x618(%rbp)
    bc3d:	89 b5 e4 f9 ff ff    	mov    %esi,-0x61c(%rbp)
    bc43:	64 48 8b 04 25 28 00 	mov    %fs:0x28,%rax
    bc4a:	00 00 
    bc4c:	48 89 45 e8          	mov    %rax,-0x18(%rbp)
    bc50:	31 c0                	xor    %eax,%eax
    bc52:	48 b9 f9 45 95 7c d8 	movabs $0x9519c9d87c9545f9,%rcx
    bc59:	c9 19 95 
    bc5c:	48 89 8d f0 fa ff ff 	mov    %rcx,-0x510(%rbp)
    bc63:	48 b8 d7 44 e4 5c ec 	movabs $0xa30b1cec5ce444d7,%rax
    bc6a:	1c 0b a3 
    bc6d:	48 89 85 f8 fa ff ff 	mov    %rax,-0x508(%rbp)
    bc74:	48 89 8d 00 fb ff ff 	mov    %rcx,-0x500(%rbp)
    bc7b:	48 c7 85 08 fb ff ff 	movq   $0xffffffffffffffff,-0x4f8(%rbp)
    bc82:	ff ff ff ff 
    bc86:	48 bb e0 e4 06 cf e8 	movabs $0xcb76dce8cf06e4e0,%rbx
    bc8d:	dc 76 cb 
    bc90:	48 89 9d 10 fb ff ff 	mov    %rbx,-0x4f0(%rbp)
    bc97:	48 89 85 18 fb ff ff 	mov    %rax,-0x4e8(%rbp)
    bc9e:	48 be ad e0 0d 1e 09 	movabs $0x4a491091e0de0ad,%rsi
    bca5:	91 a4 04 
    bca8:	48 89 b5 20 fb ff ff 	mov    %rsi,-0x4e0(%rbp)
    bcaf:	48 89 85 28 fb ff ff 	mov    %rax,-0x4d8(%rbp)
    bcb6:	48 89 9d 30 fb ff ff 	mov    %rbx,-0x4d0(%rbp)
    bcbd:	48 c7 85 38 fb ff ff 	movq   $0xffffffffffffffff,-0x4c8(%rbp)
    bcc4:	ff ff ff ff 
    bcc8:	48 89 8d 40 fb ff ff 	mov    %rcx,-0x4c0(%rbp)
    bccf:	48 89 85 48 fb ff ff 	mov    %rax,-0x4b8(%rbp)
    bcd6:	48 89 8d 50 fb ff ff 	mov    %rcx,-0x4b0(%rbp)
    bcdd:	48 89 85 58 fb ff ff 	mov    %rax,-0x4a8(%rbp)
    bce4:	48 89 8d 60 fb ff ff 	mov    %rcx,-0x4a0(%rbp)
    bceb:	48 c7 85 68 fb ff ff 	movq   $0xffffffffffffffff,-0x498(%rbp)
    bcf2:	ff ff ff ff 
    bcf6:	48 89 9d 70 fb ff ff 	mov    %rbx,-0x490(%rbp)
    bcfd:	48 89 85 78 fb ff ff 	mov    %rax,-0x488(%rbp)
    bd04:	48 89 b5 80 fb ff ff 	mov    %rsi,-0x480(%rbp)
    bd0b:	48 89 85 88 fb ff ff 	mov    %rax,-0x478(%rbp)
    bd12:	48 89 9d 90 fb ff ff 	mov    %rbx,-0x470(%rbp)
    bd19:	48 c7 85 98 fb ff ff 	movq   $0xffffffffffffffff,-0x468(%rbp)
    bd20:	ff ff ff ff 
    bd24:	48 89 8d a0 fb ff ff 	mov    %rcx,-0x460(%rbp)
    bd2b:	48 89 85 a8 fb ff ff 	mov    %rax,-0x458(%rbp)
    bd32:	c7 85 f0 f9 ff ff db 	movl   $0xd082e9db,-0x610(%rbp)
    bd39:	e9 82 d0 
    bd3c:	c7 85 50 fa ff ff e9 	movl   $0x28479be9,-0x5b0(%rbp)
    bd43:	9b 47 28 
    bd46:	c7 85 54 fa ff ff 00 	movl   $0x0,-0x5ac(%rbp)
    bd4d:	00 00 00 
    bd50:	c7 85 58 fa ff ff 00 	movl   $0x0,-0x5a8(%rbp)
    bd57:	00 00 00 
    bd5a:	c7 85 5c fa ff ff 00 	movl   $0x0,-0x5a4(%rbp)
    bd61:	00 00 00 
    bd64:	c7 85 60 fa ff ff 00 	movl   $0x0,-0x5a0(%rbp)
    bd6b:	00 00 00 
    bd6e:	c7 85 64 fa ff ff e9 	movl   $0x28479be9,-0x59c(%rbp)
    bd75:	9b 47 28 
    bd78:	c7 85 68 fa ff ff fb 	movl   $0xfffffffb,-0x598(%rbp)
    bd7f:	ff ff ff 
    bd82:	c7 85 6c fa ff ff 18 	movl   $0x3f50cd18,-0x594(%rbp)
    bd89:	cd 50 3f 
    bd8c:	c7 85 70 fa ff ff 01 	movl   $0xea856501,-0x590(%rbp)
    bd93:	65 85 ea 
    bd96:	c7 85 74 fa ff ff 70 	movl   $0x2705f570,-0x58c(%rbp)
    bd9d:	f5 05 27 
    bda0:	c7 85 78 fa ff ff 70 	movl   $0x2705f570,-0x588(%rbp)
    bda7:	f5 05 27 
    bdaa:	c7 85 7c fa ff ff 01 	movl   $0x1,-0x584(%rbp)
    bdb1:	00 00 00 
    bdb4:	c7 85 80 fa ff ff 06 	movl   $0x6,-0x580(%rbp)
    bdbb:	00 00 00 
    bdbe:	c7 85 84 fa ff ff 03 	movl   $0x3,-0x57c(%rbp)
    bdc5:	00 00 00 
    bdc8:	c7 85 88 fa ff ff c1 	movl   $0xd3982dc1,-0x578(%rbp)
    bdcf:	2d 98 d3 
    bdd2:	c7 85 8c fa ff ff e7 	movl   $0xcd0af7e7,-0x574(%rbp)
    bdd9:	f7 0a cd 
    bddc:	c7 85 90 fa ff ff e9 	movl   $0x28479be9,-0x570(%rbp)
    bde3:	9b 47 28 
    bde6:	c7 85 94 fa ff ff e7 	movl   $0xcd0af7e7,-0x56c(%rbp)
    bded:	f7 0a cd 
    bdf0:	c7 85 98 fa ff ff c1 	movl   $0xd3982dc1,-0x568(%rbp)
    bdf7:	2d 98 d3 
    bdfa:	c7 85 9c fa ff ff 03 	movl   $0x3,-0x564(%rbp)
    be01:	00 00 00 
    be04:	c7 85 a0 fa ff ff 70 	movl   $0x2705f570,-0x560(%rbp)
    be0b:	f5 05 27 
    be0e:	c7 85 a4 fa ff ff e7 	movl   $0xcd0af7e7,-0x55c(%rbp)
    be15:	f7 0a cd 
    be18:	c7 85 a8 fa ff ff 70 	movl   $0x2705f570,-0x558(%rbp)
    be1f:	f5 05 27 
    be22:	c7 85 ac fa ff ff 00 	movl   $0x0,-0x554(%rbp)
    be29:	00 00 00 
    be2c:	c7 85 b0 fa ff ff c7 	movl   $0xe28c66c7,-0x550(%rbp)
    be33:	66 8c e2 
    be36:	c7 85 b4 fa ff ff e9 	movl   $0x28479be9,-0x54c(%rbp)
    be3d:	9b 47 28 
    be40:	c7 85 b8 fa ff ff 03 	movl   $0x3,-0x548(%rbp)
    be47:	00 00 00 
    be4a:	c7 85 bc fa ff ff 01 	movl   $0x1,-0x544(%rbp)
    be51:	00 00 00 
    be54:	c7 85 c0 fa ff ff 06 	movl   $0x6,-0x540(%rbp)
    be5b:	00 00 00 
    be5e:	c7 85 c4 fa ff ff 18 	movl   $0x3f50cd18,-0x53c(%rbp)
    be65:	cd 50 3f 
    be68:	c7 85 c8 fa ff ff e9 	movl   $0x28479be9,-0x538(%rbp)
    be6f:	9b 47 28 
    be72:	c7 85 cc fa ff ff 03 	movl   $0x3,-0x534(%rbp)
    be79:	00 00 00 
    be7c:	c7 85 d0 fa ff ff 01 	movl   $0x1,-0x530(%rbp)
    be83:	00 00 00 
    be86:	c7 85 d4 fa ff ff 06 	movl   $0x6,-0x52c(%rbp)
    be8d:	00 00 00 
    be90:	c7 85 d8 fa ff ff 18 	movl   $0x3f50cd18,-0x528(%rbp)
    be97:	cd 50 3f 
    be9a:	c7 85 dc fa ff ff 18 	movl   $0x3f50cd18,-0x524(%rbp)
    bea1:	cd 50 3f 
    bea4:	c7 85 e0 fa ff ff 06 	movl   $0x6,-0x520(%rbp)
    beab:	00 00 00 
    beae:	c7 85 e4 fa ff ff 01 	movl   $0x1,-0x51c(%rbp)
    beb5:	00 00 00 
    beb8:	c7 85 e8 fa ff ff 03 	movl   $0x3,-0x518(%rbp)
    bebf:	00 00 00 
    bec2:	c7 85 ec fa ff ff e9 	movl   $0x28479be9,-0x514(%rbp)
    bec9:	9b 47 28 
    becc:	48 c7 85 00 fa ff ff 	movq   $0xfffffffffffffffe,-0x600(%rbp)
    bed3:	fe ff ff ff 
    bed7:	c7 85 f4 f9 ff ff 01 	movl   $0x1,-0x60c(%rbp)
    bede:	00 00 00 
    bee1:	c7 85 70 fc ff ff 04 	movl   $0x4,-0x390(%rbp)
    bee8:	00 00 00 
    beeb:	c7 85 74 fc ff ff d6 	movl   $0xaf451cd6,-0x38c(%rbp)
    bef2:	1c 45 af 
    bef5:	c7 85 78 fc ff ff 04 	movl   $0x4,-0x388(%rbp)
    befc:	00 00 00 
    beff:	c7 85 7c fc ff ff 04 	movl   $0x4,-0x384(%rbp)
    bf06:	00 00 00 
    bf09:	c7 85 80 fc ff ff 04 	movl   $0x4,-0x380(%rbp)
    bf10:	00 00 00 
    bf13:	c7 85 84 fc ff ff 45 	movl   $0x7a266545,-0x37c(%rbp)
    bf1a:	65 26 7a 
    bf1d:	c7 85 88 fc ff ff fc 	movl   $0xfffffffc,-0x378(%rbp)
    bf24:	ff ff ff 
    bf27:	c7 85 8c fc ff ff d6 	movl   $0xaf451cd6,-0x374(%rbp)
    bf2e:	1c 45 af 
    bf31:	c7 85 90 fc ff ff fc 	movl   $0xfffffffc,-0x370(%rbp)
    bf38:	ff ff ff 
    bf3b:	c7 85 94 fc ff ff 04 	movl   $0x4,-0x36c(%rbp)
    bf42:	00 00 00 
    bf45:	c7 85 98 fc ff ff 45 	movl   $0x7a266545,-0x368(%rbp)
    bf4c:	65 26 7a 
    bf4f:	c7 85 9c fc ff ff 45 	movl   $0x7a266545,-0x364(%rbp)
    bf56:	65 26 7a 
    bf59:	c7 85 a0 fc ff ff 04 	movl   $0x4,-0x360(%rbp)
    bf60:	00 00 00 
    bf63:	c7 85 a4 fc ff ff d6 	movl   $0xaf451cd6,-0x35c(%rbp)
    bf6a:	1c 45 af 
    bf6d:	c7 85 a8 fc ff ff 04 	movl   $0x4,-0x358(%rbp)
    bf74:	00 00 00 
    bf77:	c7 85 ac fc ff ff 04 	movl   $0x4,-0x354(%rbp)
    bf7e:	00 00 00 
    bf81:	c7 85 b0 fc ff ff 04 	movl   $0x4,-0x350(%rbp)
    bf88:	00 00 00 
    bf8b:	c7 85 b4 fc ff ff 45 	movl   $0x7a266545,-0x34c(%rbp)
    bf92:	65 26 7a 
    bf95:	c7 85 b8 fc ff ff fc 	movl   $0xfffffffc,-0x348(%rbp)
    bf9c:	ff ff ff 
    bf9f:	c7 85 bc fc ff ff d6 	movl   $0xaf451cd6,-0x344(%rbp)
    bfa6:	1c 45 af 
    bfa9:	c7 85 c0 fc ff ff fc 	movl   $0xfffffffc,-0x340(%rbp)
    bfb0:	ff ff ff 
    bfb3:	c7 85 c4 fc ff ff 04 	movl   $0x4,-0x33c(%rbp)
    bfba:	00 00 00 
    bfbd:	c7 85 c8 fc ff ff 45 	movl   $0x7a266545,-0x338(%rbp)
    bfc4:	65 26 7a 
    bfc7:	c7 85 cc fc ff ff 45 	movl   $0x7a266545,-0x334(%rbp)
    bfce:	65 26 7a 
    bfd1:	c7 85 d0 fc ff ff 04 	movl   $0x4,-0x330(%rbp)
    bfd8:	00 00 00 
    bfdb:	c7 85 d4 fc ff ff d6 	movl   $0xaf451cd6,-0x32c(%rbp)
    bfe2:	1c 45 af 
    bfe5:	c7 85 d8 fc ff ff 04 	movl   $0x4,-0x328(%rbp)
    bfec:	00 00 00 
    bfef:	c7 85 dc fc ff ff 04 	movl   $0x4,-0x324(%rbp)
    bff6:	00 00 00 
    bff9:	c7 85 e0 fc ff ff 04 	movl   $0x4,-0x320(%rbp)
    c000:	00 00 00 
    c003:	c7 85 e4 fc ff ff 45 	movl   $0x7a266545,-0x31c(%rbp)
    c00a:	65 26 7a 
    c00d:	c7 85 e8 fc ff ff fc 	movl   $0xfffffffc,-0x318(%rbp)
    c014:	ff ff ff 
    c017:	c7 85 ec fc ff ff d6 	movl   $0xaf451cd6,-0x314(%rbp)
    c01e:	1c 45 af 
    c021:	c7 85 f0 fc ff ff fc 	movl   $0xfffffffc,-0x310(%rbp)
    c028:	ff ff ff 
    c02b:	c7 85 f4 fc ff ff 04 	movl   $0x4,-0x30c(%rbp)
    c032:	00 00 00 
    c035:	c7 85 f8 fc ff ff 45 	movl   $0x7a266545,-0x308(%rbp)
    c03c:	65 26 7a 
    c03f:	c7 85 fc fc ff ff 45 	movl   $0x7a266545,-0x304(%rbp)
    c046:	65 26 7a 
    c049:	c7 85 00 fd ff ff 04 	movl   $0x4,-0x300(%rbp)
    c050:	00 00 00 
    c053:	c7 85 04 fd ff ff d6 	movl   $0xaf451cd6,-0x2fc(%rbp)
    c05a:	1c 45 af 
    c05d:	c7 85 08 fd ff ff 04 	movl   $0x4,-0x2f8(%rbp)
    c064:	00 00 00 
    c067:	c7 85 0c fd ff ff 04 	movl   $0x4,-0x2f4(%rbp)
    c06e:	00 00 00 
    c071:	c7 85 10 fd ff ff 04 	movl   $0x4,-0x2f0(%rbp)
    c078:	00 00 00 
    c07b:	c7 85 14 fd ff ff 45 	movl   $0x7a266545,-0x2ec(%rbp)
    c082:	65 26 7a 
    c085:	c7 85 18 fd ff ff fc 	movl   $0xfffffffc,-0x2e8(%rbp)
    c08c:	ff ff ff 
    c08f:	c7 85 1c fd ff ff d6 	movl   $0xaf451cd6,-0x2e4(%rbp)
    c096:	1c 45 af 
    c099:	c7 85 20 fd ff ff fc 	movl   $0xfffffffc,-0x2e0(%rbp)
    c0a0:	ff ff ff 
    c0a3:	c7 85 24 fd ff ff 04 	movl   $0x4,-0x2dc(%rbp)
    c0aa:	00 00 00 
    c0ad:	c7 85 28 fd ff ff 45 	movl   $0x7a266545,-0x2d8(%rbp)
    c0b4:	65 26 7a 
    c0b7:	c7 85 2c fd ff ff 45 	movl   $0x7a266545,-0x2d4(%rbp)
    c0be:	65 26 7a 
    c0c1:	c7 85 30 fd ff ff 04 	movl   $0x4,-0x2d0(%rbp)
    c0c8:	00 00 00 
    c0cb:	c7 85 34 fd ff ff d6 	movl   $0xaf451cd6,-0x2cc(%rbp)
    c0d2:	1c 45 af 
    c0d5:	c7 85 38 fd ff ff 04 	movl   $0x4,-0x2c8(%rbp)
    c0dc:	00 00 00 
    c0df:	c7 85 3c fd ff ff 04 	movl   $0x4,-0x2c4(%rbp)
    c0e6:	00 00 00 
    c0e9:	c7 85 40 fd ff ff 04 	movl   $0x4,-0x2c0(%rbp)
    c0f0:	00 00 00 
    c0f3:	c7 85 44 fd ff ff 45 	movl   $0x7a266545,-0x2bc(%rbp)
    c0fa:	65 26 7a 
    c0fd:	c6 05 c5 b2 00 00 00 	movb   $0x0,0xb2c5(%rip)        # 173c9 <g_2574>
    c104:	90                   	nop
    c105:	0f b6 05 bd b2 00 00 	movzbl 0xb2bd(%rip),%eax        # 173c9 <g_2574>
    c10c:	3c 1d                	cmp    $0x1d,%al
    c10e:	0f 85 59 04 00 00    	jne    c56d <func_31+0x949>
    c114:	48 8d 05 89 9f 00 00 	lea    0x9f89(%rip),%rax        # 160a4 <g_3+0x64>
    c11b:	48 89 85 b0 fb ff ff 	mov    %rax,-0x450(%rbp)
    c122:	48 8d 05 af b2 00 00 	lea    0xb2af(%rip),%rax        # 173d8 <g_2658>
    c129:	48 89 85 b8 fb ff ff 	mov    %rax,-0x448(%rbp)
    c130:	48 8d 05 5d 9f 00 00 	lea    0x9f5d(%rip),%rax        # 16094 <g_3+0x54>
    c137:	48 89 85 c0 fb ff ff 	mov    %rax,-0x440(%rbp)
    c13e:	48 c7 85 c8 fb ff ff 	movq   $0x0,-0x438(%rbp)
    c145:	00 00 00 00 
    c149:	48 8d 05 70 9f 00 00 	lea    0x9f70(%rip),%rax        # 160c0 <g_121>
    c150:	48 89 85 d0 fb ff ff 	mov    %rax,-0x430(%rbp)
    c157:	48 8d 05 36 9f 00 00 	lea    0x9f36(%rip),%rax        # 16094 <g_3+0x54>
    c15e:	48 89 85 d8 fb ff ff 	mov    %rax,-0x428(%rbp)
    c165:	48 8d 05 54 9f 00 00 	lea    0x9f54(%rip),%rax        # 160c0 <g_121>
    c16c:	48 89 85 e0 fb ff ff 	mov    %rax,-0x420(%rbp)
    c173:	48 8d 05 1a 9f 00 00 	lea    0x9f1a(%rip),%rax        # 16094 <g_3+0x54>
    c17a:	48 89 85 e8 fb ff ff 	mov    %rax,-0x418(%rbp)
    c181:	48 8d 05 38 9f 00 00 	lea    0x9f38(%rip),%rax        # 160c0 <g_121>
    c188:	48 89 85 f0 fb ff ff 	mov    %rax,-0x410(%rbp)
    c18f:	48 8d 05 fe 9e 00 00 	lea    0x9efe(%rip),%rax        # 16094 <g_3+0x54>
    c196:	48 89 85 f8 fb ff ff 	mov    %rax,-0x408(%rbp)
    c19d:	48 8d 05 1c 9f 00 00 	lea    0x9f1c(%rip),%rax        # 160c0 <g_121>
    c1a4:	48 89 85 00 fc ff ff 	mov    %rax,-0x400(%rbp)
    c1ab:	48 c7 85 08 fc ff ff 	movq   $0x0,-0x3f8(%rbp)
    c1b2:	00 00 00 00 
    c1b6:	48 8d 05 d7 9e 00 00 	lea    0x9ed7(%rip),%rax        # 16094 <g_3+0x54>
    c1bd:	48 89 85 10 fc ff ff 	mov    %rax,-0x3f0(%rbp)
    c1c4:	48 8d 05 0d b2 00 00 	lea    0xb20d(%rip),%rax        # 173d8 <g_2658>
    c1cb:	48 89 85 18 fc ff ff 	mov    %rax,-0x3e8(%rbp)
    c1d2:	48 8d 05 cb 9e 00 00 	lea    0x9ecb(%rip),%rax        # 160a4 <g_3+0x64>
    c1d9:	48 89 85 20 fc ff ff 	mov    %rax,-0x3e0(%rbp)
    c1e0:	48 8d 05 d9 9e 00 00 	lea    0x9ed9(%rip),%rax        # 160c0 <g_121>
    c1e7:	48 89 85 28 fc ff ff 	mov    %rax,-0x3d8(%rbp)
    c1ee:	48 8d 05 e3 b1 00 00 	lea    0xb1e3(%rip),%rax        # 173d8 <g_2658>
    c1f5:	48 89 85 30 fc ff ff 	mov    %rax,-0x3d0(%rbp)
    c1fc:	48 8d 05 bd 9e 00 00 	lea    0x9ebd(%rip),%rax        # 160c0 <g_121>
    c203:	48 89 85 38 fc ff ff 	mov    %rax,-0x3c8(%rbp)
    c20a:	48 8d 05 af 9e 00 00 	lea    0x9eaf(%rip),%rax        # 160c0 <g_121>
    c211:	48 89 85 40 fc ff ff 	mov    %rax,-0x3c0(%rbp)
    c218:	48 8d 05 b9 b1 00 00 	lea    0xb1b9(%rip),%rax        # 173d8 <g_2658>
    c21f:	48 89 85 48 fc ff ff 	mov    %rax,-0x3b8(%rbp)
    c226:	48 8d 05 ab b1 00 00 	lea    0xb1ab(%rip),%rax        # 173d8 <g_2658>
    c22d:	48 89 85 50 fc ff ff 	mov    %rax,-0x3b0(%rbp)
    c234:	48 c7 85 58 fc ff ff 	movq   $0x0,-0x3a8(%rbp)
    c23b:	00 00 00 00 
    c23f:	48 8d 05 5e 9e 00 00 	lea    0x9e5e(%rip),%rax        # 160a4 <g_3+0x64>
    c246:	48 89 85 60 fc ff ff 	mov    %rax,-0x3a0(%rbp)
    c24d:	48 8d 05 84 b1 00 00 	lea    0xb184(%rip),%rax        # 173d8 <g_2658>
    c254:	48 89 85 68 fc ff ff 	mov    %rax,-0x398(%rbp)
    c25b:	c7 85 f8 f9 ff ff 31 	movl   $0x9c593a31,-0x608(%rbp)
    c262:	3a 59 9c 
    c265:	48 8d 05 a4 f3 00 00 	lea    0xf3a4(%rip),%rax        # 1b610 <g_332>
    c26c:	48 89 85 08 fa ff ff 	mov    %rax,-0x5f8(%rbp)
    c273:	48 c7 85 10 fa ff ff 	movq   $0x0,-0x5f0(%rbp)
    c27a:	00 00 00 00 
    c27e:	48 8d 05 ab f3 00 00 	lea    0xf3ab(%rip),%rax        # 1b630 <g_692>
    c285:	48 89 85 18 fa ff ff 	mov    %rax,-0x5e8(%rbp)
    c28c:	83 85 f8 f9 ff ff 01 	addl   $0x1,-0x608(%rbp)
    c293:	48 8b 85 10 fb ff ff 	mov    -0x4f0(%rbp),%rax
    c29a:	48 85 c0             	test   %rax,%rax
    c29d:	0f 85 ce 00 00 00    	jne    c371 <func_31+0x74d>
    c2a3:	48 8b 85 18 fa ff ff 	mov    -0x5e8(%rbp),%rax
    c2aa:	48 8b 95 08 fa ff ff 	mov    -0x5f8(%rbp),%rdx
    c2b1:	48 89 10             	mov    %rdx,(%rax)
    c2b4:	48 8b 85 18 fa ff ff 	mov    -0x5e8(%rbp),%rax
    c2bb:	48 8b 00             	mov    (%rax),%rax
    c2be:	48 8d 15 53 df 00 00 	lea    0xdf53(%rip),%rdx        # 1a218 <g_312+0xd8>
    c2c5:	48 39 d0             	cmp    %rdx,%rax
    c2c8:	0f 95 c0             	setne  %al
    c2cb:	44 0f b6 e0          	movzbl %al,%r12d
    c2cf:	8b 85 84 fa ff ff    	mov    -0x57c(%rbp),%eax
    c2d5:	89 85 f0 f9 ff ff    	mov    %eax,-0x610(%rbp)
    c2db:	48 8b 85 e8 f9 ff ff 	mov    -0x618(%rbp),%rax
    c2e2:	8b 00                	mov    (%rax),%eax
    c2e4:	8b 95 f0 f9 ff ff    	mov    -0x610(%rbp),%edx
    c2ea:	89 d6                	mov    %edx,%esi
    c2ec:	89 c7                	mov    %eax,%edi
    c2ee:	e8 12 d3 ff ff       	callq  9605 <safe_sub_func_int32_t_s_s>
    c2f3:	48 8b 15 a6 e5 00 00 	mov    0xe5a6(%rip),%rdx        # 1a8a0 <g_1424>
    c2fa:	8b 12                	mov    (%rdx),%edx
    c2fc:	39 d0                	cmp    %edx,%eax
    c2fe:	7d 0b                	jge    c30b <func_31+0x6e7>
    c300:	48 8b 85 e8 f9 ff ff 	mov    -0x618(%rbp),%rax
    c307:	8b 00                	mov    (%rax),%eax
    c309:	85 c0                	test   %eax,%eax
    c30b:	48 8b 95 f0 fa ff ff 	mov    -0x510(%rbp),%rdx
    c312:	8b 85 e4 f9 ff ff    	mov    -0x61c(%rbp),%eax
    c318:	48 39 c2             	cmp    %rax,%rdx
    c31b:	0f 9c c0             	setl   %al
    c31e:	0f b6 d8             	movzbl %al,%ebx
    c321:	8b 85 e4 f9 ff ff    	mov    -0x61c(%rbp),%eax
    c327:	0f b6 c0             	movzbl %al,%eax
    c32a:	89 c6                	mov    %eax,%esi
    c32c:	bf ea 00 00 00       	mov    $0xea,%edi
    c331:	e8 42 d8 ff ff       	callq  9b78 <safe_sub_func_uint8_t_u_u>
    c336:	0f b6 c0             	movzbl %al,%eax
    c339:	48 89 de             	mov    %rbx,%rsi
    c33c:	48 89 c7             	mov    %rax,%rdi
    c33f:	e8 fd d4 ff ff       	callq  9841 <safe_add_func_int64_t_s_s>
    c344:	8b 95 e4 f9 ff ff    	mov    -0x61c(%rbp),%edx
    c34a:	48 39 d0             	cmp    %rdx,%rax
    c34d:	0f 95 c0             	setne  %al
    c350:	0f b6 c0             	movzbl %al,%eax
    c353:	41 39 c4             	cmp    %eax,%r12d
    c356:	0f 9f c0             	setg   %al
    c359:	0f b6 d0             	movzbl %al,%edx
    c35c:	8b 85 84 fa ff ff    	mov    -0x57c(%rbp),%eax
    c362:	98                   	cwtl   
    c363:	89 d6                	mov    %edx,%esi
    c365:	89 c7                	mov    %eax,%edi
    c367:	e8 67 d0 ff ff       	callq  93d3 <safe_sub_func_int16_t_s_s>
    c36c:	66 85 c0             	test   %ax,%ax
    c36f:	74 07                	je     c378 <func_31+0x754>
    c371:	b8 01 00 00 00       	mov    $0x1,%eax
    c376:	eb 05                	jmp    c37d <func_31+0x759>
    c378:	b8 00 00 00 00       	mov    $0x0,%eax
    c37d:	48 63 d0             	movslq %eax,%rdx
    c380:	48 8b 05 49 b0 00 00 	mov    0xb049(%rip),%rax        # 173d0 <g_2620>
    c387:	48 39 c2             	cmp    %rax,%rdx
    c38a:	0f 93 c0             	setae  %al
    c38d:	0f b6 d0             	movzbl %al,%edx
    c390:	48 8b 85 f0 fa ff ff 	mov    -0x510(%rbp),%rax
    c397:	48 39 c2             	cmp    %rax,%rdx
    c39a:	0f 9f c2             	setg   %dl
    c39d:	48 8b 05 04 e5 00 00 	mov    0xe504(%rip),%rax        # 1a8a8 <g_1423>
    c3a4:	48 8b 00             	mov    (%rax),%rax
    c3a7:	0f b6 d2             	movzbl %dl,%edx
    c3aa:	89 10                	mov    %edx,(%rax)
    c3ac:	c6 05 09 9d 00 00 00 	movb   $0x0,0x9d09(%rip)        # 160bc <g_118>
    c3b3:	e9 9a 01 00 00       	jmpq   c552 <func_31+0x92e>
    c3b8:	48 b8 fc d7 fc d7 fc 	movabs $0xd7fcd7fcd7fcd7fc,%rax
    c3bf:	d7 fc d7 
    c3c2:	48 89 45 de          	mov    %rax,-0x22(%rbp)
    c3c6:	66 c7 45 e6 fc d7    	movw   $0xd7fc,-0x1a(%rbp)
    c3cc:	48 8d 05 0d 9d 00 00 	lea    0x9d0d(%rip),%rax        # 160e0 <g_233>
    c3d3:	48 89 85 20 fa ff ff 	mov    %rax,-0x5e0(%rbp)
    c3da:	48 8d 85 50 fd ff ff 	lea    -0x2b0(%rbp),%rax
    c3e1:	48 8d 15 38 bf 00 00 	lea    0xbf38(%rip),%rdx        # 18320 <g_3238+0x730>
    c3e8:	b9 51 00 00 00       	mov    $0x51,%ecx
    c3ed:	48 89 c7             	mov    %rax,%rdi
    c3f0:	48 89 d6             	mov    %rdx,%rsi
    c3f3:	f3 48 a5             	rep movsq %ds:(%rsi),%es:(%rdi)
    c3f6:	48 8d 85 50 fd ff ff 	lea    -0x2b0(%rbp),%rax
    c3fd:	48 05 68 02 00 00    	add    $0x268,%rax
    c403:	48 89 85 30 fa ff ff 	mov    %rax,-0x5d0(%rbp)
    c40a:	48 8d 85 50 fd ff ff 	lea    -0x2b0(%rbp),%rax
    c411:	48 05 68 02 00 00    	add    $0x268,%rax
    c417:	48 89 85 38 fa ff ff 	mov    %rax,-0x5c8(%rbp)
    c41e:	48 8d 85 50 fd ff ff 	lea    -0x2b0(%rbp),%rax
    c425:	48 05 68 02 00 00    	add    $0x268,%rax
    c42b:	48 89 85 40 fa ff ff 	mov    %rax,-0x5c0(%rbp)
    c432:	48 8d 85 50 fd ff ff 	lea    -0x2b0(%rbp),%rax
    c439:	48 05 68 02 00 00    	add    $0x268,%rax
    c43f:	48 89 85 48 fa ff ff 	mov    %rax,-0x5b8(%rbp)
    c446:	48 8d 85 30 fa ff ff 	lea    -0x5d0(%rbp),%rax
    c44d:	48 83 c0 08          	add    $0x8,%rax
    c451:	48 89 85 28 fa ff ff 	mov    %rax,-0x5d8(%rbp)
    c458:	c7 85 fc f9 ff ff 8f 	movl   $0x11b7aa8f,-0x604(%rbp)
    c45f:	aa b7 11 
    c462:	0f b6 45 e5          	movzbl -0x1b(%rbp),%eax
    c466:	66 98                	cbtw   
    c468:	0f b7 d8             	movzwl %ax,%ebx
    c46b:	0f b6 55 e5          	movzbl -0x1b(%rbp),%edx
    c46f:	48 8b 05 ba e0 00 00 	mov    0xe0ba(%rip),%rax        # 1a530 <g_805>
    c476:	48 8b 00             	mov    (%rax),%rax
    c479:	66 0f be d2          	movsbw %dl,%dx
    c47d:	66 89 10             	mov    %dx,(%rax)
    c480:	0f b7 00             	movzwl (%rax),%eax
    c483:	0f b7 c0             	movzwl %ax,%eax
    c486:	8b 95 f0 f9 ff ff    	mov    -0x610(%rbp),%edx
    c48c:	33 95 e4 f9 ff ff    	xor    -0x61c(%rbp),%edx
    c492:	89 95 f0 f9 ff ff    	mov    %edx,-0x610(%rbp)
    c498:	39 85 f0 f9 ff ff    	cmp    %eax,-0x610(%rbp)
    c49e:	0f 9d c0             	setge  %al
    c4a1:	44 0f b6 e0          	movzbl %al,%r12d
    c4a5:	48 8b 15 34 9c 00 00 	mov    0x9c34(%rip),%rdx        # 160e0 <g_233>
    c4ac:	48 8b 85 20 fa ff ff 	mov    -0x5e0(%rbp),%rax
    c4b3:	48 89 10             	mov    %rdx,(%rax)
    c4b6:	48 8b 85 20 fa ff ff 	mov    -0x5e0(%rbp),%rax
    c4bd:	48 8b 00             	mov    (%rax),%rax
    c4c0:	48 85 c0             	test   %rax,%rax
    c4c3:	0f 94 c0             	sete   %al
    c4c6:	0f b6 c0             	movzbl %al,%eax
    c4c9:	be 08 00 00 00       	mov    $0x8,%esi
    c4ce:	89 c7                	mov    %eax,%edi
    c4d0:	e8 8e d0 ff ff       	callq  9563 <safe_rshift_func_int16_t_s_u>
    c4d5:	0f bf d0             	movswl %ax,%edx
    c4d8:	0f b6 45 e5          	movzbl -0x1b(%rbp),%eax
    c4dc:	0f be c0             	movsbl %al,%eax
    c4df:	21 d0                	and    %edx,%eax
    c4e1:	48 98                	cltq   
    c4e3:	4c 89 e6             	mov    %r12,%rsi
    c4e6:	48 89 c7             	mov    %rax,%rdi
    c4e9:	e8 53 d3 ff ff       	callq  9841 <safe_add_func_int64_t_s_s>
    c4ee:	48 8b 05 9b de 00 00 	mov    0xde9b(%rip),%rax        # 1a390 <g_381>
    c4f5:	48 8b 05 04 ec 00 00 	mov    0xec04(%rip),%rax        # 1b100 <g_2306>
    c4fc:	48 8b 00             	mov    (%rax),%rax
    c4ff:	48 39 85 28 fa ff ff 	cmp    %rax,-0x5d8(%rbp)
    c506:	0f 95 c0             	setne  %al
    c509:	0f b6 c0             	movzbl %al,%eax
    c50c:	c1 e8 1f             	shr    $0x1f,%eax
    c50f:	0f b6 c0             	movzbl %al,%eax
    c512:	89 de                	mov    %ebx,%esi
    c514:	89 c7                	mov    %eax,%edi
    c516:	e8 41 d8 ff ff       	callq  9d5c <safe_mod_func_uint16_t_u_u>
    c51b:	66 83 f8 01          	cmp    $0x1,%ax
    c51f:	0f 97 c0             	seta   %al
    c522:	0f b6 c0             	movzbl %al,%eax
    c525:	33 85 e4 f9 ff ff    	xor    -0x61c(%rbp),%eax
    c52b:	8b 95 80 fc ff ff    	mov    -0x380(%rbp),%edx
    c531:	21 d0                	and    %edx,%eax
    c533:	89 85 80 fc ff ff    	mov    %eax,-0x380(%rbp)
    c539:	83 bd fc f9 ff ff 00 	cmpl   $0x0,-0x604(%rbp)
    c540:	75 21                	jne    c563 <func_31+0x93f>
    c542:	0f b6 05 73 9b 00 00 	movzbl 0x9b73(%rip),%eax        # 160bc <g_118>
    c549:	83 c0 01             	add    $0x1,%eax
    c54c:	88 05 6a 9b 00 00    	mov    %al,0x9b6a(%rip)        # 160bc <g_118>
    c552:	0f b6 05 63 9b 00 00 	movzbl 0x9b63(%rip),%eax        # 160bc <g_118>
    c559:	3c 12                	cmp    $0x12,%al
    c55b:	0f 85 57 fe ff ff    	jne    c3b8 <func_31+0x794>
    c561:	eb 01                	jmp    c564 <func_31+0x940>
    c563:	90                   	nop
    c564:	48 8b 85 f0 fa ff ff 	mov    -0x510(%rbp),%rax
    c56b:	eb 09                	jmp    c576 <func_31+0x952>
    c56d:	48 8b 85 e8 f9 ff ff 	mov    -0x618(%rbp),%rax
    c574:	8b 00                	mov    (%rax),%eax
    c576:	48 8b 7d e8          	mov    -0x18(%rbp),%rdi
    c57a:	64 48 33 3c 25 28 00 	xor    %fs:0x28,%rdi
    c581:	00 00 
    c583:	74 05                	je     c58a <func_31+0x966>
    c585:	e8 e6 ca ff ff       	callq  9070 <__stack_chk_fail@plt>
    c58a:	48 81 c4 10 06 00 00 	add    $0x610,%rsp
    c591:	5b                   	pop    %rbx
    c592:	41 5c                	pop    %r12
    c594:	5d                   	pop    %rbp
    c595:	c3                   	retq   

000000000000c596 <func_34>:
    c596:	f3 0f 1e fa          	endbr64 
    c59a:	55                   	push   %rbp
    c59b:	48 89 e5             	mov    %rsp,%rbp
    c59e:	53                   	push   %rbx
    c59f:	48 81 ec 88 0e 00 00 	sub    $0xe88,%rsp
    c5a6:	89 bd 7c f1 ff ff    	mov    %edi,-0xe84(%rbp)
    c5ac:	89 f0                	mov    %esi,%eax
    c5ae:	89 95 74 f1 ff ff    	mov    %edx,-0xe8c(%rbp)
    c5b4:	66 89 85 78 f1 ff ff 	mov    %ax,-0xe88(%rbp)
    c5bb:	64 48 8b 04 25 28 00 	mov    %fs:0x28,%rax
    c5c2:	00 00 
    c5c4:	48 89 45 e8          	mov    %rax,-0x18(%rbp)
    c5c8:	31 c0                	xor    %eax,%eax
    c5ca:	c7 85 30 f2 ff ff b5 	movl   $0x5b545b5,-0xdd0(%rbp)
    c5d1:	45 b5 05 
    c5d4:	c7 85 34 f2 ff ff ff 	movl   $0xffffffff,-0xdcc(%rbp)
    c5db:	ff ff ff 
    c5de:	c7 85 38 f2 ff ff ff 	movl   $0xffffffff,-0xdc8(%rbp)
    c5e5:	ff ff ff 
    c5e8:	c7 85 3c f2 ff ff b5 	movl   $0x5b545b5,-0xdc4(%rbp)
    c5ef:	45 b5 05 
    c5f2:	c7 85 40 f2 ff ff ff 	movl   $0xffffffff,-0xdc0(%rbp)
    c5f9:	ff ff ff 
    c5fc:	c7 85 44 f2 ff ff ff 	movl   $0xffffffff,-0xdbc(%rbp)
    c603:	ff ff ff 
    c606:	c7 85 a0 f1 ff ff 1b 	movl   $0x671f2c1b,-0xe60(%rbp)
    c60d:	2c 1f 67 
    c610:	48 8d 05 61 dd 00 00 	lea    0xdd61(%rip),%rax        # 1a378 <g_378>
    c617:	48 89 85 d8 f1 ff ff 	mov    %rax,-0xe28(%rbp)
    c61e:	c7 85 a4 f1 ff ff a2 	movl   $0xde8390a2,-0xe5c(%rbp)
    c625:	90 83 de 
    c628:	c7 85 a8 f1 ff ff 9f 	movl   $0x9b81aa9f,-0xe58(%rbp)
    c62f:	aa 81 9b 
    c632:	c7 85 ac f1 ff ff 3f 	movl   $0xbe9473f,-0xe54(%rbp)
    c639:	47 e9 0b 
    c63c:	c7 85 90 f2 ff ff 67 	movl   $0x62bcf667,-0xd70(%rbp)
    c643:	f6 bc 62 
    c646:	c7 85 94 f2 ff ff 67 	movl   $0x62bcf667,-0xd6c(%rbp)
    c64d:	f6 bc 62 
    c650:	c7 85 98 f2 ff ff 67 	movl   $0x62bcf667,-0xd68(%rbp)
    c657:	f6 bc 62 
    c65a:	c7 85 9c f2 ff ff 67 	movl   $0x62bcf667,-0xd64(%rbp)
    c661:	f6 bc 62 
    c664:	c7 85 a0 f2 ff ff 67 	movl   $0x62bcf667,-0xd60(%rbp)
    c66b:	f6 bc 62 
    c66e:	c7 85 a4 f2 ff ff 67 	movl   $0x62bcf667,-0xd5c(%rbp)
    c675:	f6 bc 62 
    c678:	c7 85 a8 f2 ff ff 67 	movl   $0x62bcf667,-0xd58(%rbp)
    c67f:	f6 bc 62 
    c682:	c7 85 ac f2 ff ff 67 	movl   $0x62bcf667,-0xd54(%rbp)
    c689:	f6 bc 62 
    c68c:	c7 85 b0 f2 ff ff 67 	movl   $0x62bcf667,-0xd50(%rbp)
    c693:	f6 bc 62 
    c696:	c7 85 b4 f2 ff ff fa 	movl   $0xfffffffa,-0xd4c(%rbp)
    c69d:	ff ff ff 
    c6a0:	c7 85 b8 f2 ff ff fa 	movl   $0xfffffffa,-0xd48(%rbp)
    c6a7:	ff ff ff 
    c6aa:	c7 85 bc f2 ff ff fa 	movl   $0xfffffffa,-0xd44(%rbp)
    c6b1:	ff ff ff 
    c6b4:	c7 85 c0 f2 ff ff fa 	movl   $0xfffffffa,-0xd40(%rbp)
    c6bb:	ff ff ff 
    c6be:	c7 85 c4 f2 ff ff fa 	movl   $0xfffffffa,-0xd3c(%rbp)
    c6c5:	ff ff ff 
    c6c8:	c7 85 c8 f2 ff ff fa 	movl   $0xfffffffa,-0xd38(%rbp)
    c6cf:	ff ff ff 
    c6d2:	c7 85 cc f2 ff ff fa 	movl   $0xfffffffa,-0xd34(%rbp)
    c6d9:	ff ff ff 
    c6dc:	c7 85 d0 f2 ff ff fa 	movl   $0xfffffffa,-0xd30(%rbp)
    c6e3:	ff ff ff 
    c6e6:	c7 85 d4 f2 ff ff fa 	movl   $0xfffffffa,-0xd2c(%rbp)
    c6ed:	ff ff ff 
    c6f0:	c7 85 d8 f2 ff ff 67 	movl   $0x62bcf667,-0xd28(%rbp)
    c6f7:	f6 bc 62 
    c6fa:	c7 85 dc f2 ff ff 67 	movl   $0x62bcf667,-0xd24(%rbp)
    c701:	f6 bc 62 
    c704:	c7 85 e0 f2 ff ff 67 	movl   $0x62bcf667,-0xd20(%rbp)
    c70b:	f6 bc 62 
    c70e:	c7 85 e4 f2 ff ff 67 	movl   $0x62bcf667,-0xd1c(%rbp)
    c715:	f6 bc 62 
    c718:	c7 85 e8 f2 ff ff 67 	movl   $0x62bcf667,-0xd18(%rbp)
    c71f:	f6 bc 62 
    c722:	c7 85 ec f2 ff ff 67 	movl   $0x62bcf667,-0xd14(%rbp)
    c729:	f6 bc 62 
    c72c:	c7 85 f0 f2 ff ff 67 	movl   $0x62bcf667,-0xd10(%rbp)
    c733:	f6 bc 62 
    c736:	c7 85 f4 f2 ff ff 67 	movl   $0x62bcf667,-0xd0c(%rbp)
    c73d:	f6 bc 62 
    c740:	c7 85 f8 f2 ff ff 67 	movl   $0x62bcf667,-0xd08(%rbp)
    c747:	f6 bc 62 
    c74a:	48 8d 05 37 dc 00 00 	lea    0xdc37(%rip),%rax        # 1a388 <g_376>
    c751:	48 89 85 d0 f1 ff ff 	mov    %rax,-0xe30(%rbp)
    c758:	48 8d 85 20 f4 ff ff 	lea    -0xbe0(%rbp),%rax
    c75f:	48 8d 15 da 5e 00 00 	lea    0x5eda(%rip),%rdx        # 12640 <g_3093+0x598>
    c766:	b9 3c 00 00 00       	mov    $0x3c,%ecx
    c76b:	48 89 c7             	mov    %rax,%rdi
    c76e:	48 89 d6             	mov    %rdx,%rsi
    c771:	f3 48 a5             	rep movsq %ds:(%rsi),%es:(%rdi)
    c774:	48 b8 6b 7e 9e 6c 19 	movabs $0x472e1e196c9e7e6b,%rax
    c77b:	1e 2e 47 
    c77e:	48 89 85 e0 f1 ff ff 	mov    %rax,-0xe20(%rbp)
    c785:	48 8d 85 00 f8 ff ff 	lea    -0x800(%rbp),%rax
    c78c:	48 8d 15 2d be 00 00 	lea    0xbe2d(%rip),%rdx        # 185c0 <g_3238+0x9d0>
    c793:	b9 fc 00 00 00       	mov    $0xfc,%ecx
    c798:	48 89 c7             	mov    %rax,%rdi
    c79b:	48 89 d6             	mov    %rdx,%rsi
    c79e:	f3 48 a5             	rep movsq %ds:(%rsi),%es:(%rdi)
    c7a1:	c7 85 b0 f1 ff ff 43 	movl   $0x35a8c143,-0xe50(%rbp)
    c7a8:	c1 a8 35 
    c7ab:	48 c7 85 e8 f1 ff ff 	movq   $0x1,-0xe18(%rbp)
    c7b2:	01 00 00 00 
    c7b6:	66 c7 85 8a f1 ff ff 	movw   $0x1,-0xe76(%rbp)
    c7bd:	01 00 
    c7bf:	c6 85 86 f1 ff ff cf 	movb   $0xcf,-0xe7a(%rbp)
    c7c6:	c7 85 90 f1 ff ff 00 	movl   $0x0,-0xe70(%rbp)
    c7cd:	00 00 00 
    c7d0:	eb 52                	jmp    c824 <func_34+0x28e>
    c7d2:	c7 85 94 f1 ff ff 00 	movl   $0x0,-0xe6c(%rbp)
    c7d9:	00 00 00 
    c7dc:	eb 36                	jmp    c814 <func_34+0x27e>
    c7de:	8b 85 94 f1 ff ff    	mov    -0xe6c(%rbp),%eax
    c7e4:	48 63 c8             	movslq %eax,%rcx
    c7e7:	8b 85 90 f1 ff ff    	mov    -0xe70(%rbp),%eax
    c7ed:	48 63 d0             	movslq %eax,%rdx
    c7f0:	48 89 d0             	mov    %rdx,%rax
    c7f3:	48 c1 e0 03          	shl    $0x3,%rax
    c7f7:	48 01 d0             	add    %rdx,%rax
    c7fa:	48 8d 14 08          	lea    (%rax,%rcx,1),%rdx
    c7fe:	48 8d 85 d0 f1 ff ff 	lea    -0xe30(%rbp),%rax
    c805:	48 89 84 d5 00 f6 ff 	mov    %rax,-0xa00(%rbp,%rdx,8)
    c80c:	ff 
    c80d:	83 85 94 f1 ff ff 01 	addl   $0x1,-0xe6c(%rbp)
    c814:	83 bd 94 f1 ff ff 08 	cmpl   $0x8,-0xe6c(%rbp)
    c81b:	7e c1                	jle    c7de <func_34+0x248>
    c81d:	83 85 90 f1 ff ff 01 	addl   $0x1,-0xe70(%rbp)
    c824:	83 bd 90 f1 ff ff 06 	cmpl   $0x6,-0xe70(%rbp)
    c82b:	7e a5                	jle    c7d2 <func_34+0x23c>
    c82d:	66 c7 05 82 98 00 00 	movw   $0x0,0x9882(%rip)        # 160b8 <g_95>
    c834:	00 00 
    c836:	e9 40 01 00 00       	jmpq   c97b <func_34+0x3e5>
    c83b:	48 8d 05 96 98 00 00 	lea    0x9896(%rip),%rax        # 160d8 <g_184>
    c842:	48 89 85 10 f2 ff ff 	mov    %rax,-0xdf0(%rbp)
    c849:	48 8d 05 28 db 00 00 	lea    0xdb28(%rip),%rax        # 1a378 <g_378>
    c850:	48 89 85 18 f2 ff ff 	mov    %rax,-0xde8(%rbp)
    c857:	48 c7 85 20 f2 ff ff 	movq   $0x0,-0xde0(%rbp)
    c85e:	00 00 00 00 
    c862:	c7 85 98 f1 ff ff 00 	movl   $0x0,-0xe68(%rbp)
    c869:	00 00 00 
    c86c:	eb 1b                	jmp    c889 <func_34+0x2f3>
    c86e:	8b 85 98 f1 ff ff    	mov    -0xe68(%rbp),%eax
    c874:	48 98                	cltq   
    c876:	48 c7 84 c5 00 f3 ff 	movq   $0x0,-0xd00(%rbp,%rax,8)
    c87d:	ff 00 00 00 00 
    c882:	83 85 98 f1 ff ff 01 	addl   $0x1,-0xe68(%rbp)
    c889:	83 bd 98 f1 ff ff 02 	cmpl   $0x2,-0xe68(%rbp)
    c890:	7e dc                	jle    c86e <func_34+0x2d8>
    c892:	48 8b 05 67 e8 00 00 	mov    0xe867(%rip),%rax        # 1b100 <g_2306>
    c899:	48 8b 00             	mov    (%rax),%rax
    c89c:	48 8b 00             	mov    (%rax),%rax
    c89f:	48 8b 10             	mov    (%rax),%rdx
    c8a2:	48 8b 05 4f e8 00 00 	mov    0xe84f(%rip),%rax        # 1b0f8 <g_2307>
    c8a9:	48 8b 00             	mov    (%rax),%rax
    c8ac:	48 8b 00             	mov    (%rax),%rax
    c8af:	48 8b 12             	mov    (%rdx),%rdx
    c8b2:	48 89 10             	mov    %rdx,(%rax)
    c8b5:	83 bd 74 f1 ff ff 00 	cmpl   $0x0,-0xe8c(%rbp)
    c8bc:	0f 9f c0             	setg   %al
    c8bf:	0f b6 c0             	movzbl %al,%eax
    c8c2:	be 00 00 00 00       	mov    $0x0,%esi
    c8c7:	89 c7                	mov    %eax,%edi
    c8c9:	e8 27 cb ff ff       	callq  93f5 <safe_mul_func_int16_t_s_s>
    c8ce:	8b 9d 38 f2 ff ff    	mov    -0xdc8(%rbp),%ebx
    c8d4:	48 8b 05 2d e0 00 00 	mov    0xe02d(%rip),%rax        # 1a908 <g_1625>
    c8db:	48 8b 00             	mov    (%rax),%rax
    c8de:	8b 10                	mov    (%rax),%edx
    c8e0:	48 83 bd 10 f2 ff ff 	cmpq   $0x0,-0xdf0(%rbp)
    c8e7:	00 
    c8e8:	0f 95 c0             	setne  %al
    c8eb:	0f b6 c0             	movzbl %al,%eax
    c8ee:	89 d6                	mov    %edx,%esi
    c8f0:	89 c7                	mov    %eax,%edi
    c8f2:	e8 2e d6 ff ff       	callq  9f25 <safe_div_func_uint32_t_u_u>
    c8f7:	48 8b 15 0a d5 00 00 	mov    0xd50a(%rip),%rdx        # 19e08 <g_131>
    c8fe:	0f b6 12             	movzbl (%rdx),%edx
    c901:	0f be d2             	movsbl %dl,%edx
    c904:	09 d0                	or     %edx,%eax
    c906:	89 c2                	mov    %eax,%edx
    c908:	48 8b 85 10 f2 ff ff 	mov    -0xdf0(%rbp),%rax
    c90f:	48 89 10             	mov    %rdx,(%rax)
    c912:	48 8b 85 10 f2 ff ff 	mov    -0xdf0(%rbp),%rax
    c919:	48 8b 10             	mov    (%rax),%rdx
    c91c:	0f b6 05 fd 9d 00 00 	movzbl 0x9dfd(%rip),%eax        # 16720 <g_1204+0x20>
    c923:	83 e0 1f             	and    $0x1f,%eax
    c926:	0f b6 c0             	movzbl %al,%eax
    c929:	48 39 c2             	cmp    %rax,%rdx
    c92c:	0f 97 c0             	seta   %al
    c92f:	0f b6 c0             	movzbl %al,%eax
    c932:	39 c3                	cmp    %eax,%ebx
    c934:	72 08                	jb     c93e <func_34+0x3a8>
    c936:	66 83 bd 78 f1 ff ff 	cmpw   $0x0,-0xe88(%rbp)
    c93d:	00 
    c93e:	be 01 00 00 00       	mov    $0x1,%esi
    c943:	bf 12 00 00 00       	mov    $0x12,%edi
    c948:	e8 a1 c9 ff ff       	callq  92ee <safe_lshift_func_int8_t_s_u>
    c94d:	48 8b 05 0c d5 00 00 	mov    0xd50c(%rip),%rax        # 19e60 <g_239>
    c954:	8b 95 a0 f1 ff ff    	mov    -0xe60(%rbp),%edx
    c95a:	89 10                	mov    %edx,(%rax)
    c95c:	48 8b 85 18 f2 ff ff 	mov    -0xde8(%rbp),%rax
    c963:	48 89 85 d8 f1 ff ff 	mov    %rax,-0xe28(%rbp)
    c96a:	0f b7 05 47 97 00 00 	movzwl 0x9747(%rip),%eax        # 160b8 <g_95>
    c971:	83 c0 01             	add    $0x1,%eax
    c974:	66 89 05 3d 97 00 00 	mov    %ax,0x973d(%rip)        # 160b8 <g_95>
    c97b:	0f b7 05 36 97 00 00 	movzwl 0x9736(%rip),%eax        # 160b8 <g_95>
    c982:	66 83 f8 14          	cmp    $0x14,%ax
    c986:	0f 85 af fe ff ff    	jne    c83b <func_34+0x2a5>
    c98c:	48 c7 05 19 97 00 00 	movq   $0xfffffffffffffff1,0x9719(%rip)        # 160b0 <g_92>
    c993:	f1 ff ff ff 
    c997:	eb 79                	jmp    ca12 <func_34+0x47c>
    c999:	c7 85 00 f3 ff ff b8 	movl   $0x66f017b8,-0xd00(%rbp)
    c9a0:	17 f0 66 
    c9a3:	c7 85 04 f3 ff ff 00 	movl   $0x0,-0xcfc(%rbp)
    c9aa:	00 00 00 
    c9ad:	c7 85 08 f3 ff ff b8 	movl   $0x66f017b8,-0xcf8(%rbp)
    c9b4:	17 f0 66 
    c9b7:	c7 85 0c f3 ff ff b8 	movl   $0x66f017b8,-0xcf4(%rbp)
    c9be:	17 f0 66 
    c9c1:	c7 85 10 f3 ff ff 00 	movl   $0x0,-0xcf0(%rbp)
    c9c8:	00 00 00 
    c9cb:	c7 85 14 f3 ff ff b8 	movl   $0x66f017b8,-0xcec(%rbp)
    c9d2:	17 f0 66 
    c9d5:	c7 85 18 f3 ff ff b8 	movl   $0x66f017b8,-0xce8(%rbp)
    c9dc:	17 f0 66 
    c9df:	c7 85 1c f3 ff ff 00 	movl   $0x0,-0xce4(%rbp)
    c9e6:	00 00 00 
    c9e9:	c6 85 89 f1 ff ff 00 	movb   $0x0,-0xe77(%rbp)
    c9f0:	0f b6 85 89 f1 ff ff 	movzbl -0xe77(%rbp),%eax
    c9f7:	83 e8 01             	sub    $0x1,%eax
    c9fa:	88 85 89 f1 ff ff    	mov    %al,-0xe77(%rbp)
    ca00:	48 8b 05 a9 96 00 00 	mov    0x96a9(%rip),%rax        # 160b0 <g_92>
    ca07:	48 83 c0 01          	add    $0x1,%rax
    ca0b:	48 89 05 9e 96 00 00 	mov    %rax,0x969e(%rip)        # 160b0 <g_92>
    ca12:	48 8b 05 97 96 00 00 	mov    0x9697(%rip),%rax        # 160b0 <g_92>
    ca19:	48 85 c0             	test   %rax,%rax
    ca1c:	0f 89 77 ff ff ff    	jns    c999 <func_34+0x403>
    ca22:	66 c7 05 5d 9b 00 00 	movw   $0x18,0x9b5d(%rip)        # 16588 <g_915>
    ca29:	18 00 
    ca2b:	e9 57 01 00 00       	jmpq   cb87 <func_34+0x5f1>
    ca30:	48 8d 05 39 98 00 00 	lea    0x9839(%rip),%rax        # 16270 <g_352+0x170>
    ca37:	48 89 85 f0 f1 ff ff 	mov    %rax,-0xe10(%rbp)
    ca3e:	c7 85 b4 f1 ff ff 3f 	movl   $0x545fe63f,-0xe4c(%rbp)
    ca45:	e6 5f 54 
    ca48:	c7 85 b8 f1 ff ff 98 	movl   $0x5f604398,-0xe48(%rbp)
    ca4f:	43 60 5f 
    ca52:	c7 85 8c f1 ff ff 01 	movl   $0x1,-0xe74(%rbp)
    ca59:	00 00 00 
    ca5c:	c7 85 bc f1 ff ff fc 	movl   $0x8e34edfc,-0xe44(%rbp)
    ca63:	ed 34 8e 
    ca66:	c7 85 c0 f1 ff ff 4f 	movl   $0x445f3a4f,-0xe40(%rbp)
    ca6d:	3a 5f 44 
    ca70:	48 b8 97 63 d6 03 bb 	movabs $0x8db27bb03d66397,%rax
    ca77:	27 db 08 
    ca7a:	48 89 85 f8 f1 ff ff 	mov    %rax,-0xe08(%rbp)
    ca81:	48 c7 85 00 f2 ff ff 	movq   $0x3,-0xe00(%rbp)
    ca88:	03 00 00 00 
    ca8c:	48 8d 85 00 f3 ff ff 	lea    -0xd00(%rbp),%rax
    ca93:	48 8d 15 86 5d 00 00 	lea    0x5d86(%rip),%rdx        # 12820 <g_3093+0x778>
    ca9a:	b9 23 00 00 00       	mov    $0x23,%ecx
    ca9f:	48 89 c7             	mov    %rax,%rdi
    caa2:	48 89 d6             	mov    %rdx,%rsi
    caa5:	f3 48 a5             	rep movsq %ds:(%rsi),%es:(%rdi)
    caa8:	48 8d 85 8c f1 ff ff 	lea    -0xe74(%rbp),%rax
    caaf:	48 89 85 08 f2 ff ff 	mov    %rax,-0xdf8(%rbp)
    cab6:	c7 85 c4 f1 ff ff 4e 	movl   $0x9b64374e,-0xe3c(%rbp)
    cabd:	37 64 9b 
    cac0:	c7 85 c8 f1 ff ff 01 	movl   $0x1,-0xe38(%rbp)
    cac7:	00 00 00 
    caca:	c7 85 cc f1 ff ff e6 	movl   $0xe2a318e6,-0xe34(%rbp)
    cad1:	18 a3 e2 
    cad4:	c6 85 87 f1 ff ff 19 	movb   $0x19,-0xe79(%rbp)
    cadb:	c6 85 88 f1 ff ff ff 	movb   $0xff,-0xe78(%rbp)
    cae2:	c7 85 9c f1 ff ff 00 	movl   $0x0,-0xe64(%rbp)
    cae9:	00 00 00 
    caec:	eb 1a                	jmp    cb08 <func_34+0x572>
    caee:	8b 85 9c f1 ff ff    	mov    -0xe64(%rbp),%eax
    caf4:	48 98                	cltq   
    caf6:	c7 84 85 70 f2 ff ff 	movl   $0x6e79218d,-0xd90(%rbp,%rax,4)
    cafd:	8d 21 79 6e 
    cb01:	83 85 9c f1 ff ff 01 	addl   $0x1,-0xe64(%rbp)
    cb08:	83 bd 9c f1 ff ff 06 	cmpl   $0x6,-0xe64(%rbp)
    cb0f:	7e dd                	jle    caee <func_34+0x558>
    cb11:	c7 85 9c f1 ff ff 00 	movl   $0x0,-0xe64(%rbp)
    cb18:	00 00 00 
    cb1b:	eb 1a                	jmp    cb37 <func_34+0x5a1>
    cb1d:	8b 85 9c f1 ff ff    	mov    -0xe64(%rbp),%eax
    cb23:	48 98                	cltq   
    cb25:	c7 84 85 2c f2 ff ff 	movl   $0x56fde4d8,-0xdd4(%rbp,%rax,4)
    cb2c:	d8 e4 fd 56 
    cb30:	83 85 9c f1 ff ff 01 	addl   $0x1,-0xe64(%rbp)
    cb37:	83 bd 9c f1 ff ff 00 	cmpl   $0x0,-0xe64(%rbp)
    cb3e:	7e dd                	jle    cb1d <func_34+0x587>
    cb40:	c7 85 9c f1 ff ff 00 	movl   $0x0,-0xe64(%rbp)
    cb47:	00 00 00 
    cb4a:	eb 21                	jmp    cb6d <func_34+0x5d7>
    cb4c:	8b 85 9c f1 ff ff    	mov    -0xe64(%rbp),%eax
    cb52:	48 98                	cltq   
    cb54:	48 bb e4 3f 12 6f 97 	movabs $0x6e31f5976f123fe4,%rbx
    cb5b:	f5 31 6e 
    cb5e:	48 89 9c c5 50 f2 ff 	mov    %rbx,-0xdb0(%rbp,%rax,8)
    cb65:	ff 
    cb66:	83 85 9c f1 ff ff 01 	addl   $0x1,-0xe64(%rbp)
    cb6d:	83 bd 9c f1 ff ff 02 	cmpl   $0x2,-0xe64(%rbp)
    cb74:	7e d6                	jle    cb4c <func_34+0x5b6>
    cb76:	0f b7 05 0b 9a 00 00 	movzwl 0x9a0b(%rip),%eax        # 16588 <g_915>
    cb7d:	83 e8 01             	sub    $0x1,%eax
    cb80:	66 89 05 01 9a 00 00 	mov    %ax,0x9a01(%rip)        # 16588 <g_915>
    cb87:	0f b7 05 fa 99 00 00 	movzwl 0x99fa(%rip),%eax        # 16588 <g_915>
    cb8e:	66 83 f8 fe          	cmp    $0xfffe,%ax
    cb92:	0f 8d 98 fe ff ff    	jge    ca30 <func_34+0x49a>
    cb98:	48 8b 05 71 d9 00 00 	mov    0xd971(%rip),%rax        # 1a510 <g_788>
    cb9f:	48 8b 00             	mov    (%rax),%rax
    cba2:	48 8b 5d e8          	mov    -0x18(%rbp),%rbx
    cba6:	64 48 33 1c 25 28 00 	xor    %fs:0x28,%rbx
    cbad:	00 00 
    cbaf:	74 05                	je     cbb6 <func_34+0x620>
    cbb1:	e8 ba c4 ff ff       	callq  9070 <__stack_chk_fail@plt>
    cbb6:	48 81 c4 88 0e 00 00 	add    $0xe88,%rsp
    cbbd:	5b                   	pop    %rbx
    cbbe:	5d                   	pop    %rbp
    cbbf:	c3                   	retq   

000000000000cbc0 <func_44>:
    cbc0:	f3 0f 1e fa          	endbr64 
    cbc4:	55                   	push   %rbp
    cbc5:	48 89 e5             	mov    %rsp,%rbp
    cbc8:	48 89 7d e8          	mov    %rdi,-0x18(%rbp)
    cbcc:	48 89 75 e0          	mov    %rsi,-0x20(%rbp)
    cbd0:	48 89 55 d8          	mov    %rdx,-0x28(%rbp)
    cbd4:	89 4d d4             	mov    %ecx,-0x2c(%rbp)
    cbd7:	44 89 45 d0          	mov    %r8d,-0x30(%rbp)
    cbdb:	c7 45 fc 00 00 00 00 	movl   $0x0,-0x4(%rbp)
    cbe2:	83 6d fc 01          	subl   $0x1,-0x4(%rbp)
    cbe6:	48 8b 05 cb a7 00 00 	mov    0xa7cb(%rip),%rax        # 173b8 <g_2456+0x8>
    cbed:	5d                   	pop    %rbp
    cbee:	c3                   	retq   

000000000000cbef <func_50>:
    cbef:	f3 0f 1e fa          	endbr64 
    cbf3:	55                   	push   %rbp
    cbf4:	48 89 e5             	mov    %rsp,%rbp
    cbf7:	48 81 ec f0 02 00 00 	sub    $0x2f0,%rsp
    cbfe:	89 bd 1c fd ff ff    	mov    %edi,-0x2e4(%rbp)
    cc04:	64 48 8b 04 25 28 00 	mov    %fs:0x28,%rax
    cc0b:	00 00 
    cc0d:	48 89 45 f8          	mov    %rax,-0x8(%rbp)
    cc11:	31 c0                	xor    %eax,%eax
    cc13:	48 c7 85 60 fd ff ff 	movq   $0x0,-0x2a0(%rbp)
    cc1a:	00 00 00 00 
    cc1e:	c7 85 3c fd ff ff 09 	movl   $0x9,-0x2c4(%rbp)
    cc25:	00 00 00 
    cc28:	48 c7 85 80 fd ff ff 	movq   $0xfffffffffffffffc,-0x280(%rbp)
    cc2f:	fc ff ff ff 
    cc33:	48 8d 05 3e d7 00 00 	lea    0xd73e(%rip),%rax        # 1a378 <g_378>
    cc3a:	48 89 85 88 fd ff ff 	mov    %rax,-0x278(%rbp)
    cc41:	c7 85 40 fd ff ff ff 	movl   $0xffffffff,-0x2c0(%rbp)
    cc48:	ff ff ff 
    cc4b:	48 c7 85 90 fd ff ff 	movq   $0x0,-0x270(%rbp)
    cc52:	00 00 00 00 
    cc56:	c7 85 44 fd ff ff c8 	movl   $0xa77e8fc8,-0x2bc(%rbp)
    cc5d:	8f 7e a7 
    cc60:	66 c7 85 26 fd ff ff 	movw   $0xfff6,-0x2da(%rbp)
    cc67:	f6 ff 
    cc69:	48 c7 85 98 fd ff ff 	movq   $0x0,-0x268(%rbp)
    cc70:	00 00 00 00 
    cc74:	48 c7 85 a0 fd ff ff 	movq   $0x0,-0x260(%rbp)
    cc7b:	00 00 00 00 
    cc7f:	48 8d 85 60 fd ff ff 	lea    -0x2a0(%rbp),%rax
    cc86:	48 89 85 68 fd ff ff 	mov    %rax,-0x298(%rbp)
    cc8d:	48 8d 85 68 fd ff ff 	lea    -0x298(%rbp),%rax
    cc94:	48 89 85 a8 fd ff ff 	mov    %rax,-0x258(%rbp)
    cc9b:	48 8d 05 f6 d6 00 00 	lea    0xd6f6(%rip),%rax        # 1a398 <g_428>
    cca2:	48 89 85 70 fd ff ff 	mov    %rax,-0x290(%rbp)
    cca9:	48 8d 85 70 fd ff ff 	lea    -0x290(%rbp),%rax
    ccb0:	48 89 85 b0 fd ff ff 	mov    %rax,-0x250(%rbp)
    ccb7:	48 8d 05 ca d6 00 00 	lea    0xd6ca(%rip),%rax        # 1a388 <g_376>
    ccbe:	48 89 85 b8 fd ff ff 	mov    %rax,-0x248(%rbp)
    ccc5:	c7 85 48 fd ff ff 00 	movl   $0x0,-0x2b8(%rbp)
    cccc:	00 00 00 
    cccf:	c6 85 21 fd ff ff 30 	movb   $0x30,-0x2df(%rbp)
    ccd6:	48 c7 85 c0 fd ff ff 	movq   $0x0,-0x240(%rbp)
    ccdd:	00 00 00 00 
    cce1:	c6 85 22 fd ff ff 12 	movb   $0x12,-0x2de(%rbp)
    cce8:	48 8d 85 90 fe ff ff 	lea    -0x170(%rbp),%rax
    ccef:	48 8d 15 4a 5c 00 00 	lea    0x5c4a(%rip),%rdx        # 12940 <g_3093+0x898>
    ccf6:	b9 2d 00 00 00       	mov    $0x2d,%ecx
    ccfb:	48 89 c7             	mov    %rax,%rdi
    ccfe:	48 89 d6             	mov    %rdx,%rsi
    cd01:	f3 48 a5             	rep movsq %ds:(%rsi),%es:(%rdi)
    cd04:	c6 85 23 fd ff ff fb 	movb   $0xfb,-0x2dd(%rbp)
    cd0b:	48 c7 85 78 fd ff ff 	movq   $0x0,-0x288(%rbp)
    cd12:	00 00 00 00 
    cd16:	48 8d 05 ed e8 00 00 	lea    0xe8ed(%rip),%rax        # 1b60a <g_145>
    cd1d:	48 89 85 10 fe ff ff 	mov    %rax,-0x1f0(%rbp)
    cd24:	48 8d 05 df e8 00 00 	lea    0xe8df(%rip),%rax        # 1b60a <g_145>
    cd2b:	48 89 85 18 fe ff ff 	mov    %rax,-0x1e8(%rbp)
    cd32:	48 8d 05 d1 e8 00 00 	lea    0xe8d1(%rip),%rax        # 1b60a <g_145>
    cd39:	48 89 85 20 fe ff ff 	mov    %rax,-0x1e0(%rbp)
    cd40:	48 8d 05 c3 e8 00 00 	lea    0xe8c3(%rip),%rax        # 1b60a <g_145>
    cd47:	48 89 85 28 fe ff ff 	mov    %rax,-0x1d8(%rbp)
    cd4e:	48 8d 05 b5 e8 00 00 	lea    0xe8b5(%rip),%rax        # 1b60a <g_145>
    cd55:	48 89 85 30 fe ff ff 	mov    %rax,-0x1d0(%rbp)
    cd5c:	66 c7 85 28 fd ff ff 	movw   $0xed5a,-0x2d8(%rbp)
    cd63:	5a ed 
    cd65:	c7 85 4c fd ff ff 07 	movl   $0x7,-0x2b4(%rbp)
    cd6c:	00 00 00 
    cd6f:	48 8d 05 46 93 00 00 	lea    0x9346(%rip),%rax        # 160bc <g_118>
    cd76:	48 89 85 c8 fd ff ff 	mov    %rax,-0x238(%rbp)
    cd7d:	48 8d 05 04 97 00 00 	lea    0x9704(%rip),%rax        # 16488 <g_539+0x8>
    cd84:	48 89 85 d0 fd ff ff 	mov    %rax,-0x230(%rbp)
    cd8b:	48 8d 85 78 fd ff ff 	lea    -0x288(%rbp),%rax
    cd92:	48 89 85 d8 fd ff ff 	mov    %rax,-0x228(%rbp)
    cd99:	66 c7 85 2a fd ff ff 	movw   $0x8dbe,-0x2d6(%rbp)
    cda0:	be 8d 
    cda2:	66 c7 85 2c fd ff ff 	movw   $0x8842,-0x2d4(%rbp)
    cda9:	42 88 
    cdab:	66 c7 85 2e fd ff ff 	movw   $0xffff,-0x2d2(%rbp)
    cdb2:	ff ff 
    cdb4:	c6 85 24 fd ff ff 30 	movb   $0x30,-0x2dc(%rbp)
    cdbb:	48 c7 85 e0 fd ff ff 	movq   $0xfffffffffffffff8,-0x220(%rbp)
    cdc2:	f8 ff ff ff 
    cdc6:	c7 85 50 fd ff ff ff 	movl   $0xffffffff,-0x2b0(%rbp)
    cdcd:	ff ff ff 
    cdd0:	c7 85 54 fd ff ff fe 	movl   $0x171c48fe,-0x2ac(%rbp)
    cdd7:	48 1c 17 
    cdda:	c7 85 58 fd ff ff ff 	movl   $0xffffffff,-0x2a8(%rbp)
    cde1:	ff ff ff 
    cde4:	66 c7 85 30 fd ff ff 	movw   $0x8,-0x2d0(%rbp)
    cdeb:	08 00 
    cded:	66 c7 85 32 fd ff ff 	movw   $0x75d5,-0x2ce(%rbp)
    cdf4:	d5 75 
    cdf6:	c6 85 25 fd ff ff 01 	movb   $0x1,-0x2db(%rbp)
    cdfd:	c7 85 5c fd ff ff 91 	movl   $0xbb0491,-0x2a4(%rbp)
    ce04:	04 bb 00 
    ce07:	c7 85 34 fd ff ff 00 	movl   $0x0,-0x2cc(%rbp)
    ce0e:	00 00 00 
    ce11:	eb 4c                	jmp    ce5f <func_50+0x270>
    ce13:	c7 85 38 fd ff ff 00 	movl   $0x0,-0x2c8(%rbp)
    ce1a:	00 00 00 
    ce1d:	eb 30                	jmp    ce4f <func_50+0x260>
    ce1f:	8b 85 38 fd ff ff    	mov    -0x2c8(%rbp),%eax
    ce25:	48 63 c8             	movslq %eax,%rcx
    ce28:	8b 85 34 fd ff ff    	mov    -0x2cc(%rbp),%eax
    ce2e:	48 63 d0             	movslq %eax,%rdx
    ce31:	48 89 d0             	mov    %rdx,%rax
    ce34:	48 01 c0             	add    %rax,%rax
    ce37:	48 01 d0             	add    %rdx,%rax
    ce3a:	48 01 c8             	add    %rcx,%rax
    ce3d:	c7 84 85 40 fe ff ff 	movl   $0xffffffff,-0x1c0(%rbp,%rax,4)
    ce44:	ff ff ff ff 
    ce48:	83 85 38 fd ff ff 01 	addl   $0x1,-0x2c8(%rbp)
    ce4f:	83 bd 38 fd ff ff 02 	cmpl   $0x2,-0x2c8(%rbp)
    ce56:	7e c7                	jle    ce1f <func_50+0x230>
    ce58:	83 85 34 fd ff ff 01 	addl   $0x1,-0x2cc(%rbp)
    ce5f:	83 bd 34 fd ff ff 05 	cmpl   $0x5,-0x2cc(%rbp)
    ce66:	7e ab                	jle    ce13 <func_50+0x224>
    ce68:	c7 85 34 fd ff ff 00 	movl   $0x0,-0x2cc(%rbp)
    ce6f:	00 00 00 
    ce72:	eb 1e                	jmp    ce92 <func_50+0x2a3>
    ce74:	8b 85 34 fd ff ff    	mov    -0x2cc(%rbp),%eax
    ce7a:	48 98                	cltq   
    ce7c:	48 8d 15 8d e7 00 00 	lea    0xe78d(%rip),%rdx        # 1b610 <g_332>
    ce83:	48 89 94 c5 f0 fd ff 	mov    %rdx,-0x210(%rbp,%rax,8)
    ce8a:	ff 
    ce8b:	83 85 34 fd ff ff 01 	addl   $0x1,-0x2cc(%rbp)
    ce92:	83 bd 34 fd ff ff 02 	cmpl   $0x2,-0x2cc(%rbp)
    ce99:	7e d9                	jle    ce74 <func_50+0x285>
    ce9b:	c7 85 34 fd ff ff 00 	movl   $0x0,-0x2cc(%rbp)
    cea2:	00 00 00 
    cea5:	eb 1e                	jmp    cec5 <func_50+0x2d6>
    cea7:	8b 85 34 fd ff ff    	mov    -0x2cc(%rbp),%eax
    cead:	48 98                	cltq   
    ceaf:	48 8d 15 72 d6 00 00 	lea    0xd672(%rip),%rdx        # 1a528 <g_806>
    ceb6:	48 89 94 c5 e8 fd ff 	mov    %rdx,-0x218(%rbp,%rax,8)
    cebd:	ff 
    cebe:	83 85 34 fd ff ff 01 	addl   $0x1,-0x2cc(%rbp)
    cec5:	83 bd 34 fd ff ff 00 	cmpl   $0x0,-0x2cc(%rbp)
    cecc:	7e d9                	jle    cea7 <func_50+0x2b8>
    cece:	48 8b 05 1b e2 00 00 	mov    0xe21b(%rip),%rax        # 1b0f0 <g_2213>
    ced5:	48 8b 00             	mov    (%rax),%rax
    ced8:	48 8b 00             	mov    (%rax),%rax
    cedb:	48 8b 75 f8          	mov    -0x8(%rbp),%rsi
    cedf:	64 48 33 34 25 28 00 	xor    %fs:0x28,%rsi
    cee6:	00 00 
    cee8:	74 05                	je     ceef <func_50+0x300>
    ceea:	e8 81 c1 ff ff       	callq  9070 <__stack_chk_fail@plt>
    ceef:	c9                   	leaveq 
    cef0:	c3                   	retq   

000000000000cef1 <func_52>:
    cef1:	f3 0f 1e fa          	endbr64 
    cef5:	55                   	push   %rbp
    cef6:	48 89 e5             	mov    %rsp,%rbp
    cef9:	41 57                	push   %r15
    cefb:	41 56                	push   %r14
    cefd:	41 55                	push   %r13
    ceff:	41 54                	push   %r12
    cf01:	53                   	push   %rbx
    cf02:	48 81 ec 00 10 00 00 	sub    $0x1000,%rsp
    cf09:	48 83 0c 24 00       	orq    $0x0,(%rsp)
    cf0e:	48 81 ec 38 0d 00 00 	sub    $0xd38,%rsp
    cf15:	89 bd bc e2 ff ff    	mov    %edi,-0x1d44(%rbp)
    cf1b:	48 89 b5 b0 e2 ff ff 	mov    %rsi,-0x1d50(%rbp)
    cf22:	48 89 95 a8 e2 ff ff 	mov    %rdx,-0x1d58(%rbp)
    cf29:	48 89 8d a0 e2 ff ff 	mov    %rcx,-0x1d60(%rbp)
    cf30:	64 48 8b 04 25 28 00 	mov    %fs:0x28,%rax
    cf37:	00 00 
    cf39:	48 89 45 c8          	mov    %rax,-0x38(%rbp)
    cf3d:	31 c0                	xor    %eax,%eax
    cf3f:	c7 85 d4 e2 ff ff fc 	movl   $0xfffffffc,-0x1d2c(%rbp)
    cf46:	ff ff ff 
    cf49:	48 8d 05 b8 e6 00 00 	lea    0xe6b8(%rip),%rax        # 1b608 <g_83>
    cf50:	48 89 85 f0 e5 ff ff 	mov    %rax,-0x1a10(%rbp)
    cf57:	48 8d 05 aa e6 00 00 	lea    0xe6aa(%rip),%rax        # 1b608 <g_83>
    cf5e:	48 89 85 f8 e5 ff ff 	mov    %rax,-0x1a08(%rbp)
    cf65:	48 c7 85 00 e6 ff ff 	movq   $0x0,-0x1a00(%rbp)
    cf6c:	00 00 00 00 
    cf70:	48 8d 05 91 e6 00 00 	lea    0xe691(%rip),%rax        # 1b608 <g_83>
    cf77:	48 89 85 08 e6 ff ff 	mov    %rax,-0x19f8(%rbp)
    cf7e:	48 c7 85 10 e6 ff ff 	movq   $0x0,-0x19f0(%rbp)
    cf85:	00 00 00 00 
    cf89:	48 c7 85 18 e6 ff ff 	movq   $0x0,-0x19e8(%rbp)
    cf90:	00 00 00 00 
    cf94:	48 c7 85 20 e6 ff ff 	movq   $0x0,-0x19e0(%rbp)
    cf9b:	00 00 00 00 
    cf9f:	48 c7 85 28 e6 ff ff 	movq   $0x0,-0x19d8(%rbp)
    cfa6:	00 00 00 00 
    cfaa:	48 8d 05 57 e6 00 00 	lea    0xe657(%rip),%rax        # 1b608 <g_83>
    cfb1:	48 89 85 30 e6 ff ff 	mov    %rax,-0x19d0(%rbp)
    cfb8:	48 c7 85 38 e6 ff ff 	movq   $0x0,-0x19c8(%rbp)
    cfbf:	00 00 00 00 
    cfc3:	48 c7 85 40 e6 ff ff 	movq   $0x0,-0x19c0(%rbp)
    cfca:	00 00 00 00 
    cfce:	48 8d 05 33 e6 00 00 	lea    0xe633(%rip),%rax        # 1b608 <g_83>
    cfd5:	48 89 85 48 e6 ff ff 	mov    %rax,-0x19b8(%rbp)
    cfdc:	48 c7 85 50 e6 ff ff 	movq   $0x0,-0x19b0(%rbp)
    cfe3:	00 00 00 00 
    cfe7:	48 8d 05 1a e6 00 00 	lea    0xe61a(%rip),%rax        # 1b608 <g_83>
    cfee:	48 89 85 58 e6 ff ff 	mov    %rax,-0x19a8(%rbp)
    cff5:	48 c7 85 60 e6 ff ff 	movq   $0x0,-0x19a0(%rbp)
    cffc:	00 00 00 00 
    d000:	48 8d 05 01 e6 00 00 	lea    0xe601(%rip),%rax        # 1b608 <g_83>
    d007:	48 89 85 68 e6 ff ff 	mov    %rax,-0x1998(%rbp)
    d00e:	48 c7 85 70 e6 ff ff 	movq   $0x0,-0x1990(%rbp)
    d015:	00 00 00 00 
    d019:	48 c7 85 78 e6 ff ff 	movq   $0x0,-0x1988(%rbp)
    d020:	00 00 00 00 
    d024:	48 c7 85 80 e6 ff ff 	movq   $0x0,-0x1980(%rbp)
    d02b:	00 00 00 00 
    d02f:	48 c7 85 88 e6 ff ff 	movq   $0x0,-0x1978(%rbp)
    d036:	00 00 00 00 
    d03a:	48 c7 85 10 e4 ff ff 	movq   $0x0,-0x1bf0(%rbp)
    d041:	00 00 00 00 
    d045:	48 c7 85 18 e4 ff ff 	movq   $0x0,-0x1be8(%rbp)
    d04c:	00 00 00 00 
    d050:	c7 85 20 e4 ff ff 00 	movl   $0x0,-0x1be0(%rbp)
    d057:	00 00 00 
    d05a:	48 8d 05 a7 e5 00 00 	lea    0xe5a7(%rip),%rax        # 1b608 <g_83>
    d061:	48 89 85 60 e3 ff ff 	mov    %rax,-0x1ca0(%rbp)
    d068:	48 8d 05 35 90 00 00 	lea    0x9035(%rip),%rax        # 160a4 <g_3+0x64>
    d06f:	48 89 85 68 e3 ff ff 	mov    %rax,-0x1c98(%rbp)
    d076:	48 8d 05 4c 90 00 00 	lea    0x904c(%rip),%rax        # 160c9 <g_157>
    d07d:	48 89 85 28 e3 ff ff 	mov    %rax,-0x1cd8(%rbp)
    d084:	48 8d 85 28 e3 ff ff 	lea    -0x1cd8(%rbp),%rax
    d08b:	48 89 85 30 e3 ff ff 	mov    %rax,-0x1cd0(%rbp)
    d092:	48 c7 85 60 e4 ff ff 	movq   $0x0,-0x1ba0(%rbp)
    d099:	00 00 00 00 
    d09d:	48 8d 85 30 e3 ff ff 	lea    -0x1cd0(%rbp),%rax
    d0a4:	48 89 85 68 e4 ff ff 	mov    %rax,-0x1b98(%rbp)
    d0ab:	48 8d 85 30 e3 ff ff 	lea    -0x1cd0(%rbp),%rax
    d0b2:	48 89 85 70 e4 ff ff 	mov    %rax,-0x1b90(%rbp)
    d0b9:	48 c7 85 78 e4 ff ff 	movq   $0x0,-0x1b88(%rbp)
    d0c0:	00 00 00 00 
    d0c4:	48 8d 85 30 e3 ff ff 	lea    -0x1cd0(%rbp),%rax
    d0cb:	48 89 85 80 e4 ff ff 	mov    %rax,-0x1b80(%rbp)
    d0d2:	48 8d 85 30 e3 ff ff 	lea    -0x1cd0(%rbp),%rax
    d0d9:	48 89 85 88 e4 ff ff 	mov    %rax,-0x1b78(%rbp)
    d0e0:	48 8d 85 60 e4 ff ff 	lea    -0x1ba0(%rbp),%rax
    d0e7:	48 89 85 70 e3 ff ff 	mov    %rax,-0x1c90(%rbp)
    d0ee:	c7 85 f8 e2 ff ff fc 	movl   $0xfffffffc,-0x1d08(%rbp)
    d0f5:	ff ff ff 
    d0f8:	c7 85 90 e6 ff ff 01 	movl   $0x1,-0x1970(%rbp)
    d0ff:	00 00 00 
    d102:	c7 85 94 e6 ff ff 01 	movl   $0x1,-0x196c(%rbp)
    d109:	00 00 00 
    d10c:	c7 85 98 e6 ff ff 08 	movl   $0x8,-0x1968(%rbp)
    d113:	00 00 00 
    d116:	c7 85 9c e6 ff ff ff 	movl   $0xffffffff,-0x1964(%rbp)
    d11d:	ff ff ff 
    d120:	c7 85 a0 e6 ff ff 08 	movl   $0x8,-0x1960(%rbp)
    d127:	00 00 00 
    d12a:	c7 85 a4 e6 ff ff ff 	movl   $0xffffffff,-0x195c(%rbp)
    d131:	ff ff ff 
    d134:	c7 85 a8 e6 ff ff 9d 	movl   $0x2c72399d,-0x1958(%rbp)
    d13b:	39 72 2c 
    d13e:	c7 85 ac e6 ff ff 01 	movl   $0x1,-0x1954(%rbp)
    d145:	00 00 00 
    d148:	c7 85 b0 e6 ff ff 01 	movl   $0x1,-0x1950(%rbp)
    d14f:	00 00 00 
    d152:	c7 85 b4 e6 ff ff 5a 	movl   $0xb7c0f15a,-0x194c(%rbp)
    d159:	f1 c0 b7 
    d15c:	c7 85 b8 e6 ff ff 01 	movl   $0x1,-0x1948(%rbp)
    d163:	00 00 00 
    d166:	c7 85 bc e6 ff ff 9d 	movl   $0x2c72399d,-0x1944(%rbp)
    d16d:	39 72 2c 
    d170:	c7 85 c0 e6 ff ff 73 	movl   $0xa2715473,-0x1940(%rbp)
    d177:	54 71 a2 
    d17a:	c7 85 c4 e6 ff ff 5a 	movl   $0xb7c0f15a,-0x193c(%rbp)
    d181:	f1 c0 b7 
    d184:	c7 85 c8 e6 ff ff 00 	movl   $0x0,-0x1938(%rbp)
    d18b:	00 00 00 
    d18e:	c7 85 cc e6 ff ff 01 	movl   $0x1,-0x1934(%rbp)
    d195:	00 00 00 
    d198:	c7 85 d0 e6 ff ff 5a 	movl   $0xb7c0f15a,-0x1930(%rbp)
    d19f:	f1 c0 b7 
    d1a2:	c7 85 d4 e6 ff ff ff 	movl   $0xffffffff,-0x192c(%rbp)
    d1a9:	ff ff ff 
    d1ac:	c7 85 d8 e6 ff ff 01 	movl   $0x1,-0x1928(%rbp)
    d1b3:	00 00 00 
    d1b6:	c7 85 dc e6 ff ff ff 	movl   $0xffffffff,-0x1924(%rbp)
    d1bd:	ff ff ff 
    d1c0:	c7 85 e0 e6 ff ff 88 	movl   $0xb12da388,-0x1920(%rbp)
    d1c7:	a3 2d b1 
    d1ca:	c7 85 e4 e6 ff ff 01 	movl   $0x1,-0x191c(%rbp)
    d1d1:	00 00 00 
    d1d4:	c7 85 e8 e6 ff ff 9c 	movl   $0x2e9baa9c,-0x1918(%rbp)
    d1db:	aa 9b 2e 
    d1de:	c7 85 ec e6 ff ff 81 	movl   $0x7ba93e81,-0x1914(%rbp)
    d1e5:	3e a9 7b 
    d1e8:	c7 85 f0 e6 ff ff 01 	movl   $0x1,-0x1910(%rbp)
    d1ef:	00 00 00 
    d1f2:	c7 85 f4 e6 ff ff 05 	movl   $0xb15b6905,-0x190c(%rbp)
    d1f9:	69 5b b1 
    d1fc:	c7 85 f8 e6 ff ff f9 	movl   $0xfffffff9,-0x1908(%rbp)
    d203:	ff ff ff 
    d206:	c7 85 fc e6 ff ff 25 	movl   $0x5b0d0c25,-0x1904(%rbp)
    d20d:	0c 0d 5b 
    d210:	c7 85 00 e7 ff ff 81 	movl   $0x7ba93e81,-0x1900(%rbp)
    d217:	3e a9 7b 
    d21a:	c7 85 04 e7 ff ff f9 	movl   $0xfffffff9,-0x18fc(%rbp)
    d221:	ff ff ff 
    d224:	c7 85 08 e7 ff ff 5a 	movl   $0xb7c0f15a,-0x18f8(%rbp)
    d22b:	f1 c0 b7 
    d22e:	c7 85 0c e7 ff ff 9c 	movl   $0x2e9baa9c,-0x18f4(%rbp)
    d235:	aa 9b 2e 
    d238:	c7 85 10 e7 ff ff 81 	movl   $0x7ba93e81,-0x18f0(%rbp)
    d23f:	3e a9 7b 
    d242:	c7 85 14 e7 ff ff 08 	movl   $0x8,-0x18ec(%rbp)
    d249:	00 00 00 
    d24c:	c7 85 18 e7 ff ff f9 	movl   $0xfffffff9,-0x18e8(%rbp)
    d253:	ff ff ff 
    d256:	c7 85 1c e7 ff ff b7 	movl   $0xc91920b7,-0x18e4(%rbp)
    d25d:	20 19 c9 
    d260:	c7 85 20 e7 ff ff 01 	movl   $0x1,-0x18e0(%rbp)
    d267:	00 00 00 
    d26a:	c7 85 24 e7 ff ff 9c 	movl   $0x2e9baa9c,-0x18dc(%rbp)
    d271:	aa 9b 2e 
    d274:	c7 85 28 e7 ff ff 9c 	movl   $0x2e9baa9c,-0x18d8(%rbp)
    d27b:	aa 9b 2e 
    d27e:	c7 85 2c e7 ff ff 01 	movl   $0x1,-0x18d4(%rbp)
    d285:	00 00 00 
    d288:	48 c7 85 78 e3 ff ff 	movq   $0xfffffffffffffff6,-0x1c88(%rbp)
    d28f:	f6 ff ff ff 
    d293:	48 8d 85 28 e3 ff ff 	lea    -0x1cd8(%rbp),%rax
    d29a:	48 89 85 80 e3 ff ff 	mov    %rax,-0x1c80(%rbp)
    d2a1:	48 c7 85 38 e3 ff ff 	movq   $0x0,-0x1cc8(%rbp)
    d2a8:	00 00 00 00 
    d2ac:	c7 85 f0 e2 ff ff 00 	movl   $0x0,-0x1d10(%rbp)
    d2b3:	00 00 00 
    d2b6:	eb 1e                	jmp    d2d6 <func_52+0x3e5>
    d2b8:	8b 85 f0 e2 ff ff    	mov    -0x1d10(%rbp),%eax
    d2be:	48 98                	cltq   
    d2c0:	48 8d 95 38 e3 ff ff 	lea    -0x1cc8(%rbp),%rdx
    d2c7:	48 89 94 c5 f0 e4 ff 	mov    %rdx,-0x1b10(%rbp,%rax,8)
    d2ce:	ff 
    d2cf:	83 85 f0 e2 ff ff 01 	addl   $0x1,-0x1d10(%rbp)
    d2d6:	83 bd f0 e2 ff ff 07 	cmpl   $0x7,-0x1d10(%rbp)
    d2dd:	7e d9                	jle    d2b8 <func_52+0x3c7>
    d2df:	c7 85 bc e2 ff ff 00 	movl   $0x0,-0x1d44(%rbp)
    d2e6:	00 00 00 
    d2e9:	90                   	nop
    d2ea:	8b 85 bc e2 ff ff    	mov    -0x1d44(%rbp),%eax
    d2f0:	83 f8 02             	cmp    $0x2,%eax
    d2f3:	0f 87 02 1a 00 00    	ja     ecfb <func_52+0x1e0a>
    d2f9:	48 c7 85 40 e3 ff ff 	movq   $0x0,-0x1cc0(%rbp)
    d300:	00 00 00 00 
    d304:	48 c7 85 30 e7 ff ff 	movq   $0x0,-0x18d0(%rbp)
    d30b:	00 00 00 00 
    d30f:	48 8d 85 40 e3 ff ff 	lea    -0x1cc0(%rbp),%rax
    d316:	48 89 85 38 e7 ff ff 	mov    %rax,-0x18c8(%rbp)
    d31d:	48 c7 85 40 e7 ff ff 	movq   $0x0,-0x18c0(%rbp)
    d324:	00 00 00 00 
    d328:	48 8d 85 40 e3 ff ff 	lea    -0x1cc0(%rbp),%rax
    d32f:	48 89 85 48 e7 ff ff 	mov    %rax,-0x18b8(%rbp)
    d336:	48 8d 85 40 e3 ff ff 	lea    -0x1cc0(%rbp),%rax
    d33d:	48 89 85 50 e7 ff ff 	mov    %rax,-0x18b0(%rbp)
    d344:	48 8d 85 40 e3 ff ff 	lea    -0x1cc0(%rbp),%rax
    d34b:	48 89 85 58 e7 ff ff 	mov    %rax,-0x18a8(%rbp)
    d352:	48 8d 85 40 e3 ff ff 	lea    -0x1cc0(%rbp),%rax
    d359:	48 89 85 60 e7 ff ff 	mov    %rax,-0x18a0(%rbp)
    d360:	48 8d 85 40 e3 ff ff 	lea    -0x1cc0(%rbp),%rax
    d367:	48 89 85 68 e7 ff ff 	mov    %rax,-0x1898(%rbp)
    d36e:	48 8d 85 40 e3 ff ff 	lea    -0x1cc0(%rbp),%rax
    d375:	48 89 85 70 e7 ff ff 	mov    %rax,-0x1890(%rbp)
    d37c:	48 8d 85 40 e3 ff ff 	lea    -0x1cc0(%rbp),%rax
    d383:	48 89 85 78 e7 ff ff 	mov    %rax,-0x1888(%rbp)
    d38a:	48 8d 85 40 e3 ff ff 	lea    -0x1cc0(%rbp),%rax
    d391:	48 89 85 80 e7 ff ff 	mov    %rax,-0x1880(%rbp)
    d398:	48 8d 85 40 e3 ff ff 	lea    -0x1cc0(%rbp),%rax
    d39f:	48 89 85 88 e7 ff ff 	mov    %rax,-0x1878(%rbp)
    d3a6:	48 8d 85 40 e3 ff ff 	lea    -0x1cc0(%rbp),%rax
    d3ad:	48 89 85 90 e7 ff ff 	mov    %rax,-0x1870(%rbp)
    d3b4:	48 8d 85 40 e3 ff ff 	lea    -0x1cc0(%rbp),%rax
    d3bb:	48 89 85 98 e7 ff ff 	mov    %rax,-0x1868(%rbp)
    d3c2:	48 8d 85 40 e3 ff ff 	lea    -0x1cc0(%rbp),%rax
    d3c9:	48 89 85 a0 e7 ff ff 	mov    %rax,-0x1860(%rbp)
    d3d0:	48 8d 85 40 e3 ff ff 	lea    -0x1cc0(%rbp),%rax
    d3d7:	48 89 85 a8 e7 ff ff 	mov    %rax,-0x1858(%rbp)
    d3de:	48 8d 85 40 e3 ff ff 	lea    -0x1cc0(%rbp),%rax
    d3e5:	48 89 85 b0 e7 ff ff 	mov    %rax,-0x1850(%rbp)
    d3ec:	48 c7 85 b8 e7 ff ff 	movq   $0x0,-0x1848(%rbp)
    d3f3:	00 00 00 00 
    d3f7:	48 8d 85 40 e3 ff ff 	lea    -0x1cc0(%rbp),%rax
    d3fe:	48 89 85 c0 e7 ff ff 	mov    %rax,-0x1840(%rbp)
    d405:	48 8d 85 40 e3 ff ff 	lea    -0x1cc0(%rbp),%rax
    d40c:	48 89 85 c8 e7 ff ff 	mov    %rax,-0x1838(%rbp)
    d413:	48 8d 85 40 e3 ff ff 	lea    -0x1cc0(%rbp),%rax
    d41a:	48 89 85 d0 e7 ff ff 	mov    %rax,-0x1830(%rbp)
    d421:	48 c7 85 d8 e7 ff ff 	movq   $0x0,-0x1828(%rbp)
    d428:	00 00 00 00 
    d42c:	48 c7 85 e0 e7 ff ff 	movq   $0x0,-0x1820(%rbp)
    d433:	00 00 00 00 
    d437:	48 8d 85 40 e3 ff ff 	lea    -0x1cc0(%rbp),%rax
    d43e:	48 89 85 e8 e7 ff ff 	mov    %rax,-0x1818(%rbp)
    d445:	48 c7 85 f0 e7 ff ff 	movq   $0x0,-0x1810(%rbp)
    d44c:	00 00 00 00 
    d450:	48 8d 85 40 e3 ff ff 	lea    -0x1cc0(%rbp),%rax
    d457:	48 89 85 f8 e7 ff ff 	mov    %rax,-0x1808(%rbp)
    d45e:	48 8d 85 40 e3 ff ff 	lea    -0x1cc0(%rbp),%rax
    d465:	48 89 85 00 e8 ff ff 	mov    %rax,-0x1800(%rbp)
    d46c:	48 8d 85 40 e3 ff ff 	lea    -0x1cc0(%rbp),%rax
    d473:	48 89 85 08 e8 ff ff 	mov    %rax,-0x17f8(%rbp)
    d47a:	48 c7 85 10 e8 ff ff 	movq   $0x0,-0x17f0(%rbp)
    d481:	00 00 00 00 
    d485:	48 8d 85 40 e3 ff ff 	lea    -0x1cc0(%rbp),%rax
    d48c:	48 89 85 18 e8 ff ff 	mov    %rax,-0x17e8(%rbp)
    d493:	48 c7 85 20 e8 ff ff 	movq   $0x0,-0x17e0(%rbp)
    d49a:	00 00 00 00 
    d49e:	48 8d 85 40 e3 ff ff 	lea    -0x1cc0(%rbp),%rax
    d4a5:	48 89 85 28 e8 ff ff 	mov    %rax,-0x17d8(%rbp)
    d4ac:	c7 85 10 e3 ff ff 0a 	movl   $0x6d72d30a,-0x1cf0(%rbp)
    d4b3:	d3 72 6d 
    d4b6:	48 8d 05 fb 8b 00 00 	lea    0x8bfb(%rip),%rax        # 160b8 <g_95>
    d4bd:	48 89 85 b8 e3 ff ff 	mov    %rax,-0x1c48(%rbp)
    d4c4:	48 c7 85 c0 e3 ff ff 	movq   $0x0,-0x1c40(%rbp)
    d4cb:	00 00 00 00 
    d4cf:	48 8d 05 e4 8b 00 00 	lea    0x8be4(%rip),%rax        # 160ba <g_98>
    d4d6:	48 89 85 c8 e3 ff ff 	mov    %rax,-0x1c38(%rbp)
    d4dd:	48 8d 05 e4 8b 00 00 	lea    0x8be4(%rip),%rax        # 160c8 <g_132>
    d4e4:	48 89 85 48 e3 ff ff 	mov    %rax,-0x1cb8(%rbp)
    d4eb:	48 8d 05 e6 8b 00 00 	lea    0x8be6(%rip),%rax        # 160d8 <g_184>
    d4f2:	48 89 85 d0 e3 ff ff 	mov    %rax,-0x1c30(%rbp)
    d4f9:	c7 85 dc e2 ff ff bf 	movl   $0x265171bf,-0x1d24(%rbp)
    d500:	71 51 26 
    d503:	c7 85 30 e5 ff ff da 	movl   $0xd6e431da,-0x1ad0(%rbp)
    d50a:	31 e4 d6 
    d50d:	c7 85 34 e5 ff ff 00 	movl   $0x0,-0x1acc(%rbp)
    d514:	00 00 00 
    d517:	c7 85 38 e5 ff ff 00 	movl   $0x0,-0x1ac8(%rbp)
    d51e:	00 00 00 
    d521:	c7 85 3c e5 ff ff da 	movl   $0xd6e431da,-0x1ac4(%rbp)
    d528:	31 e4 d6 
    d52b:	c7 85 40 e5 ff ff da 	movl   $0xd6e431da,-0x1ac0(%rbp)
    d532:	31 e4 d6 
    d535:	c7 85 44 e5 ff ff 00 	movl   $0x0,-0x1abc(%rbp)
    d53c:	00 00 00 
    d53f:	c7 85 48 e5 ff ff da 	movl   $0xd6e431da,-0x1ab8(%rbp)
    d546:	31 e4 d6 
    d549:	c7 85 4c e5 ff ff da 	movl   $0xd6e431da,-0x1ab4(%rbp)
    d550:	31 e4 d6 
    d553:	c7 85 50 e5 ff ff 00 	movl   $0x0,-0x1ab0(%rbp)
    d55a:	00 00 00 
    d55d:	c7 85 54 e5 ff ff 00 	movl   $0x0,-0x1aac(%rbp)
    d564:	00 00 00 
    d567:	c7 85 58 e5 ff ff da 	movl   $0xd6e431da,-0x1aa8(%rbp)
    d56e:	31 e4 d6 
    d571:	c7 85 5c e5 ff ff da 	movl   $0xd6e431da,-0x1aa4(%rbp)
    d578:	31 e4 d6 
    d57b:	c7 85 60 e5 ff ff da 	movl   $0xd6e431da,-0x1aa0(%rbp)
    d582:	31 e4 d6 
    d585:	c7 85 64 e5 ff ff 00 	movl   $0x0,-0x1a9c(%rbp)
    d58c:	00 00 00 
    d58f:	c7 85 68 e5 ff ff 00 	movl   $0x0,-0x1a98(%rbp)
    d596:	00 00 00 
    d599:	c7 85 6c e5 ff ff da 	movl   $0xd6e431da,-0x1a94(%rbp)
    d5a0:	31 e4 d6 
    d5a3:	c7 85 70 e5 ff ff da 	movl   $0xd6e431da,-0x1a90(%rbp)
    d5aa:	31 e4 d6 
    d5ad:	c7 85 74 e5 ff ff 00 	movl   $0x0,-0x1a8c(%rbp)
    d5b4:	00 00 00 
    d5b7:	c6 85 cf e2 ff ff f4 	movb   $0xf4,-0x1d31(%rbp)
    d5be:	c7 85 14 e3 ff ff 06 	movl   $0x6,-0x1cec(%rbp)
    d5c5:	00 00 00 
    d5c8:	c7 85 f4 e2 ff ff 00 	movl   $0x0,-0x1d0c(%rbp)
    d5cf:	00 00 00 
    d5d2:	eb 19                	jmp    d5ed <func_52+0x6fc>
    d5d4:	8b 85 f4 e2 ff ff    	mov    -0x1d0c(%rbp),%eax
    d5da:	48 98                	cltq   
    d5dc:	66 c7 84 45 0e e4 ff 	movw   $0xfff6,-0x1bf2(%rbp,%rax,2)
    d5e3:	ff f6 ff 
    d5e6:	83 85 f4 e2 ff ff 01 	addl   $0x1,-0x1d0c(%rbp)
    d5ed:	83 bd f4 e2 ff ff 00 	cmpl   $0x0,-0x1d0c(%rbp)
    d5f4:	7e de                	jle    d5d4 <func_52+0x6e3>
    d5f6:	8b 85 bc e2 ff ff    	mov    -0x1d44(%rbp),%eax
    d5fc:	0f bf d8             	movswl %ax,%ebx
    d5ff:	4c 8b ad 48 e3 ff ff 	mov    -0x1cb8(%rbp),%r13
    d606:	4c 8b 25 fb c7 00 00 	mov    0xc7fb(%rip),%r12        # 19e08 <g_131>
    d60d:	b8 01 00 00 00       	mov    $0x1,%eax
    d612:	44 0f be f0          	movsbl %al,%r14d
    d616:	48 8b 85 40 e3 ff ff 	mov    -0x1cc0(%rbp),%rax
    d61d:	48 89 05 dc c7 00 00 	mov    %rax,0xc7dc(%rip)        # 19e00 <g_87>
    d624:	48 8b 05 d5 c7 00 00 	mov    0xc7d5(%rip),%rax        # 19e00 <g_87>
    d62b:	48 39 85 60 e3 ff ff 	cmp    %rax,-0x1ca0(%rbp)
    d632:	8b 85 10 e3 ff ff    	mov    -0x1cf0(%rbp),%eax
    d638:	0f bf d0             	movswl %ax,%edx
    d63b:	b8 01 00 00 00       	mov    $0x1,%eax
    d640:	48 0f be c0          	movsbq %al,%rax
    d644:	48 89 05 65 8a 00 00 	mov    %rax,0x8a65(%rip)        # 160b0 <g_92>
    d64b:	48 8b 05 5e 8a 00 00 	mov    0x8a5e(%rip),%rax        # 160b0 <g_92>
    d652:	98                   	cwtl   
    d653:	89 d6                	mov    %edx,%esi
    d655:	89 c7                	mov    %eax,%edi
    d657:	e8 f9 bd ff ff       	callq  9455 <safe_div_func_int16_t_s_s>
    d65c:	8b 85 bc e2 ff ff    	mov    -0x1d44(%rbp),%eax
    d662:	85 c0                	test   %eax,%eax
    d664:	48 8b 05 45 8a 00 00 	mov    0x8a45(%rip),%rax        # 160b0 <g_92>
    d66b:	89 c2                	mov    %eax,%edx
    d66d:	48 8b 85 b8 e3 ff ff 	mov    -0x1c48(%rbp),%rax
    d674:	66 89 10             	mov    %dx,(%rax)
    d677:	48 8b 85 b8 e3 ff ff 	mov    -0x1c48(%rbp),%rax
    d67e:	44 0f b7 38          	movzwl (%rax),%r15d
    d682:	48 8b 85 78 e6 ff ff 	mov    -0x1988(%rbp),%rax
    d689:	48 89 85 30 e6 ff ff 	mov    %rax,-0x19d0(%rbp)
    d690:	48 8b 85 30 e6 ff ff 	mov    -0x19d0(%rbp),%rax
    d697:	48 85 c0             	test   %rax,%rax
    d69a:	0f 94 c0             	sete   %al
    d69d:	0f b6 d0             	movzbl %al,%edx
    d6a0:	8b 85 d4 e2 ff ff    	mov    -0x1d2c(%rbp),%eax
    d6a6:	39 c2                	cmp    %eax,%edx
    d6a8:	76 13                	jbe    d6bd <func_52+0x7cc>
    d6aa:	0f b7 85 1e e4 ff ff 	movzwl -0x1be2(%rbp),%eax
    d6b1:	66 85 c0             	test   %ax,%ax
    d6b4:	74 07                	je     d6bd <func_52+0x7cc>
    d6b6:	b8 01 00 00 00       	mov    $0x1,%eax
    d6bb:	eb 05                	jmp    d6c2 <func_52+0x7d1>
    d6bd:	b8 00 00 00 00       	mov    $0x0,%eax
    d6c2:	89 c6                	mov    %eax,%esi
    d6c4:	bf 08 00 00 00       	mov    $0x8,%edi
    d6c9:	e8 02 c8 ff ff       	callq  9ed0 <safe_sub_func_uint32_t_u_u>
    d6ce:	48 8b 85 c8 e3 ff ff 	mov    -0x1c38(%rbp),%rax
    d6d5:	0f b7 00             	movzwl (%rax),%eax
    d6d8:	44 89 fa             	mov    %r15d,%edx
    d6db:	31 c2                	xor    %eax,%edx
    d6dd:	48 8b 85 c8 e3 ff ff 	mov    -0x1c38(%rbp),%rax
    d6e4:	66 89 10             	mov    %dx,(%rax)
    d6e7:	8b 85 10 e3 ff ff    	mov    -0x1cf0(%rbp),%eax
    d6ed:	0f be c0             	movsbl %al,%eax
    d6f0:	48 8b 95 68 e3 ff ff 	mov    -0x1c98(%rbp),%rdx
    d6f7:	48 89 d1             	mov    %rdx,%rcx
    d6fa:	44 89 f2             	mov    %r14d,%edx
    d6fd:	48 8d 35 64 89 00 00 	lea    0x8964(%rip),%rsi        # 16068 <g_3+0x28>
    d704:	89 c7                	mov    %eax,%edi
    d706:	e8 02 21 00 00       	callq  f80d <func_74>
    d70b:	0f be c0             	movsbl %al,%eax
    d70e:	be 06 00 00 00       	mov    $0x6,%esi
    d713:	89 c7                	mov    %eax,%edi
    d715:	e8 d4 bb ff ff       	callq  92ee <safe_lshift_func_int8_t_s_u>
    d71a:	66 98                	cbtw   
    d71c:	0f b7 c0             	movzwl %ax,%eax
    d71f:	be 00 00 00 00       	mov    $0x0,%esi
    d724:	89 c7                	mov    %eax,%edi
    d726:	e8 12 c6 ff ff       	callq  9d3d <safe_mul_func_uint16_t_u_u>
    d72b:	0f b7 c0             	movzwl %ax,%eax
    d72e:	48 8b 95 b0 e2 ff ff 	mov    -0x1d50(%rbp),%rdx
    d735:	4c 89 e9             	mov    %r13,%rcx
    d738:	4c 89 e6             	mov    %r12,%rsi
    d73b:	89 c7                	mov    %eax,%edi
    d73d:	e8 fe 18 00 00       	callq  f040 <func_65>
    d742:	48 83 f8 f5          	cmp    $0xfffffffffffffff5,%rax
    d746:	0f 96 c0             	setbe  %al
    d749:	0f b6 d0             	movzbl %al,%edx
    d74c:	48 8b 85 d0 e3 ff ff 	mov    -0x1c30(%rbp),%rax
    d753:	48 89 10             	mov    %rdx,(%rax)
    d756:	48 8b 85 d0 e3 ff ff 	mov    -0x1c30(%rbp),%rax
    d75d:	48 8b 08             	mov    (%rax),%rcx
    d760:	48 8b 85 a0 e2 ff ff 	mov    -0x1d60(%rbp),%rax
    d767:	0f be c0             	movsbl %al,%eax
    d76a:	89 da                	mov    %ebx,%edx
    d76c:	48 89 ce             	mov    %rcx,%rsi
    d76f:	89 c7                	mov    %eax,%edi
    d771:	e8 a5 18 00 00       	callq  f01b <func_61>
    d776:	48 8d 85 40 ed ff ff 	lea    -0x12c0(%rbp),%rax
    d77d:	48 8d 15 1c b6 00 00 	lea    0xb61c(%rip),%rdx        # 18da0 <g_3238+0x11b0>
    d784:	b9 60 00 00 00       	mov    $0x60,%ecx
    d789:	48 89 c7             	mov    %rax,%rdi
    d78c:	48 89 d6             	mov    %rdx,%rsi
    d78f:	f3 48 a5             	rep movsq %ds:(%rsi),%es:(%rdi)
    d792:	48 c7 85 d8 e3 ff ff 	movq   $0x0,-0x1c28(%rbp)
    d799:	00 00 00 00 
    d79d:	48 8d 85 48 e3 ff ff 	lea    -0x1cb8(%rbp),%rax
    d7a4:	48 89 85 80 e5 ff ff 	mov    %rax,-0x1a80(%rbp)
    d7ab:	48 8d 85 48 e3 ff ff 	lea    -0x1cb8(%rbp),%rax
    d7b2:	48 89 85 88 e5 ff ff 	mov    %rax,-0x1a78(%rbp)
    d7b9:	48 8d 85 48 e3 ff ff 	lea    -0x1cb8(%rbp),%rax
    d7c0:	48 89 85 90 e5 ff ff 	mov    %rax,-0x1a70(%rbp)
    d7c7:	48 8d 85 48 e3 ff ff 	lea    -0x1cb8(%rbp),%rax
    d7ce:	48 89 85 98 e5 ff ff 	mov    %rax,-0x1a68(%rbp)
    d7d5:	48 8d 85 48 e3 ff ff 	lea    -0x1cb8(%rbp),%rax
    d7dc:	48 89 85 a0 e5 ff ff 	mov    %rax,-0x1a60(%rbp)
    d7e3:	48 8d 85 48 e3 ff ff 	lea    -0x1cb8(%rbp),%rax
    d7ea:	48 89 85 a8 e5 ff ff 	mov    %rax,-0x1a58(%rbp)
    d7f1:	48 8d 85 48 e3 ff ff 	lea    -0x1cb8(%rbp),%rax
    d7f8:	48 89 85 b0 e5 ff ff 	mov    %rax,-0x1a50(%rbp)
    d7ff:	48 8d 85 48 e3 ff ff 	lea    -0x1cb8(%rbp),%rax
    d806:	48 89 85 b8 e5 ff ff 	mov    %rax,-0x1a48(%rbp)
    d80d:	48 8d 85 48 e3 ff ff 	lea    -0x1cb8(%rbp),%rax
    d814:	48 89 85 c0 e5 ff ff 	mov    %rax,-0x1a40(%rbp)
    d81b:	48 8d 85 48 e3 ff ff 	lea    -0x1cb8(%rbp),%rax
    d822:	48 89 85 c8 e5 ff ff 	mov    %rax,-0x1a38(%rbp)
    d829:	48 8d 85 48 e3 ff ff 	lea    -0x1cb8(%rbp),%rax
    d830:	48 89 85 d0 e5 ff ff 	mov    %rax,-0x1a30(%rbp)
    d837:	48 8d 85 48 e3 ff ff 	lea    -0x1cb8(%rbp),%rax
    d83e:	48 89 85 d8 e5 ff ff 	mov    %rax,-0x1a28(%rbp)
    d845:	48 8d 85 48 e3 ff ff 	lea    -0x1cb8(%rbp),%rax
    d84c:	48 89 85 e0 e5 ff ff 	mov    %rax,-0x1a20(%rbp)
    d853:	48 8d 85 48 e3 ff ff 	lea    -0x1cb8(%rbp),%rax
    d85a:	48 89 85 e8 e5 ff ff 	mov    %rax,-0x1a18(%rbp)
    d861:	48 8d 85 40 ed ff ff 	lea    -0x12c0(%rbp),%rax
    d868:	48 05 08 01 00 00    	add    $0x108,%rax
    d86e:	48 89 85 50 e3 ff ff 	mov    %rax,-0x1cb0(%rbp)
    d875:	48 8d 85 50 e3 ff ff 	lea    -0x1cb0(%rbp),%rax
    d87c:	48 89 85 90 e4 ff ff 	mov    %rax,-0x1b70(%rbp)
    d883:	48 8d 85 50 e3 ff ff 	lea    -0x1cb0(%rbp),%rax
    d88a:	48 89 85 98 e4 ff ff 	mov    %rax,-0x1b68(%rbp)
    d891:	48 c7 85 a0 e4 ff ff 	movq   $0x0,-0x1b60(%rbp)
    d898:	00 00 00 00 
    d89c:	48 8d 85 50 e3 ff ff 	lea    -0x1cb0(%rbp),%rax
    d8a3:	48 89 85 a8 e4 ff ff 	mov    %rax,-0x1b58(%rbp)
    d8aa:	48 8d 85 50 e3 ff ff 	lea    -0x1cb0(%rbp),%rax
    d8b1:	48 89 85 b0 e4 ff ff 	mov    %rax,-0x1b50(%rbp)
    d8b8:	48 c7 85 b8 e4 ff ff 	movq   $0x0,-0x1b48(%rbp)
    d8bf:	00 00 00 00 
    d8c3:	c7 85 18 e3 ff ff 01 	movl   $0x1,-0x1ce8(%rbp)
    d8ca:	00 00 00 
    d8cd:	66 c7 85 d2 e2 ff ff 	movw   $0xfff9,-0x1d2e(%rbp)
    d8d4:	f9 ff 
    d8d6:	48 8d 85 30 e8 ff ff 	lea    -0x17d0(%rbp),%rax
    d8dd:	48 8d 15 dc 51 00 00 	lea    0x51dc(%rip),%rdx        # 12ac0 <g_3093+0xa18>
    d8e4:	b9 28 00 00 00       	mov    $0x28,%ecx
    d8e9:	48 89 c7             	mov    %rax,%rdi
    d8ec:	48 89 d6             	mov    %rdx,%rsi
    d8ef:	f3 48 a5             	rep movsq %ds:(%rsi),%es:(%rdi)
    d8f2:	48 8d 05 9f 87 00 00 	lea    0x879f(%rip),%rax        # 16098 <g_3+0x58>
    d8f9:	48 89 85 c0 e4 ff ff 	mov    %rax,-0x1b40(%rbp)
    d900:	48 8d 85 dc e2 ff ff 	lea    -0x1d24(%rbp),%rax
    d907:	48 89 85 c8 e4 ff ff 	mov    %rax,-0x1b38(%rbp)
    d90e:	48 8d 05 83 87 00 00 	lea    0x8783(%rip),%rax        # 16098 <g_3+0x58>
    d915:	48 89 85 d0 e4 ff ff 	mov    %rax,-0x1b30(%rbp)
    d91c:	48 8d 05 75 87 00 00 	lea    0x8775(%rip),%rax        # 16098 <g_3+0x58>
    d923:	48 89 85 d8 e4 ff ff 	mov    %rax,-0x1b28(%rbp)
    d92a:	48 8d 85 dc e2 ff ff 	lea    -0x1d24(%rbp),%rax
    d931:	48 89 85 e0 e4 ff ff 	mov    %rax,-0x1b20(%rbp)
    d938:	48 8d 05 59 87 00 00 	lea    0x8759(%rip),%rax        # 16098 <g_3+0x58>
    d93f:	48 89 85 e8 e4 ff ff 	mov    %rax,-0x1b18(%rbp)
    d946:	48 8b 85 48 ee ff ff 	mov    -0x11b8(%rbp),%rax
    d94d:	48 85 c0             	test   %rax,%rax
    d950:	0f 95 c0             	setne  %al
    d953:	0f b6 d0             	movzbl %al,%edx
    d956:	48 8b 85 68 e3 ff ff 	mov    -0x1c98(%rbp),%rax
    d95d:	89 10                	mov    %edx,(%rax)
    d95f:	48 8b 85 68 e3 ff ff 	mov    -0x1c98(%rbp),%rax
    d966:	8b 00                	mov    (%rax),%eax
    d968:	0f b6 d8             	movzbl %al,%ebx
    d96b:	0f b6 05 4a 87 00 00 	movzbl 0x874a(%rip),%eax        # 160bc <g_118>
    d972:	0f b6 d0             	movzbl %al,%edx
    d975:	48 8b 85 48 e3 ff ff 	mov    -0x1cb8(%rbp),%rax
    d97c:	48 89 85 48 e3 ff ff 	mov    %rax,-0x1cb8(%rbp)
    d983:	0f b7 05 46 87 00 00 	movzwl 0x8746(%rip),%eax        # 160d0 <g_176>
    d98a:	0f b7 c0             	movzwl %ax,%eax
    d98d:	89 d6                	mov    %edx,%esi
    d98f:	89 c7                	mov    %eax,%edi
    d991:	e8 8f c5 ff ff       	callq  9f25 <safe_div_func_uint32_t_u_u>
    d996:	8b 05 b8 86 00 00    	mov    0x86b8(%rip),%eax        # 16054 <g_3+0x14>
    d99c:	4c 63 e0             	movslq %eax,%r12
    d99f:	48 8b 85 68 e3 ff ff 	mov    -0x1c98(%rbp),%rax
    d9a6:	8b 00                	mov    (%rax),%eax
    d9a8:	0f b6 d0             	movzbl %al,%edx
    d9ab:	0f b7 05 06 87 00 00 	movzwl 0x8706(%rip),%eax        # 160b8 <g_95>
    d9b2:	66 85 c0             	test   %ax,%ax
    d9b5:	0f 94 c0             	sete   %al
    d9b8:	0f b6 c8             	movzbl %al,%ecx
    d9bb:	8b 85 bc e2 ff ff    	mov    -0x1d44(%rbp),%eax
    d9c1:	39 c1                	cmp    %eax,%ecx
    d9c3:	0f 92 c0             	setb   %al
    d9c6:	0f b6 c0             	movzbl %al,%eax
    d9c9:	39 85 10 e3 ff ff    	cmp    %eax,-0x1cf0(%rbp)
    d9cf:	0f 9c c0             	setl   %al
    d9d2:	0f b6 c0             	movzbl %al,%eax
    d9d5:	89 d6                	mov    %edx,%esi
    d9d7:	89 c7                	mov    %eax,%edi
    d9d9:	e8 7c c1 ff ff       	callq  9b5a <safe_add_func_uint8_t_u_u>
    d9de:	0f b6 15 d7 86 00 00 	movzbl 0x86d7(%rip),%edx        # 160bc <g_118>
    d9e5:	31 d0                	xor    %edx,%eax
    d9e7:	3c da                	cmp    $0xda,%al
    d9e9:	0f 97 c0             	seta   %al
    d9ec:	0f b6 c0             	movzbl %al,%eax
    d9ef:	4c 89 e6             	mov    %r12,%rsi
    d9f2:	48 89 c7             	mov    %rax,%rdi
    d9f5:	e8 51 c6 ff ff       	callq  a04b <safe_sub_func_uint64_t_u_u>
    d9fa:	0f b7 05 cf 86 00 00 	movzwl 0x86cf(%rip),%eax        # 160d0 <g_176>
    da01:	66 83 f8 01          	cmp    $0x1,%ax
    da05:	0f 97 c0             	seta   %al
    da08:	0f b6 d0             	movzbl %al,%edx
    da0b:	8b 85 dc e2 ff ff    	mov    -0x1d24(%rbp),%eax
    da11:	31 d0                	xor    %edx,%eax
    da13:	89 85 dc e2 ff ff    	mov    %eax,-0x1d24(%rbp)
    da19:	8b 85 dc e2 ff ff    	mov    -0x1d24(%rbp),%eax
    da1f:	0f b6 c0             	movzbl %al,%eax
    da22:	89 de                	mov    %ebx,%esi
    da24:	89 c7                	mov    %eax,%edi
    da26:	e8 68 c1 ff ff       	callq  9b93 <safe_mul_func_uint8_t_u_u>
    da2b:	84 c0                	test   %al,%al
    da2d:	74 0c                	je     da3b <func_52+0xb4a>
    da2f:	48 8b 85 a0 e2 ff ff 	mov    -0x1d60(%rbp),%rax
    da36:	e9 a1 15 00 00       	jmpq   efdc <func_52+0x20eb>
    da3b:	48 8d 85 dc e2 ff ff 	lea    -0x1d24(%rbp),%rax
    da42:	48 89 85 e0 e3 ff ff 	mov    %rax,-0x1c20(%rbp)
    da49:	c7 85 1c e3 ff ff ff 	movl   $0xffffffff,-0x1ce4(%rbp)
    da50:	ff ff ff 
    da53:	c7 85 20 e3 ff ff 00 	movl   $0x0,-0x1ce0(%rbp)
    da5a:	00 00 00 
    da5d:	48 8d 85 b0 ea ff ff 	lea    -0x1550(%rbp),%rax
    da64:	48 8d 15 95 51 00 00 	lea    0x5195(%rip),%rdx        # 12c00 <g_3093+0xb58>
    da6b:	b9 51 00 00 00       	mov    $0x51,%ecx
    da70:	48 89 c7             	mov    %rax,%rdi
    da73:	48 89 d6             	mov    %rdx,%rsi
    da76:	f3 48 a5             	rep movsq %ds:(%rsi),%es:(%rdi)
    da79:	48 c7 85 58 e3 ff ff 	movq   $0xffffffffffffffff,-0x1ca8(%rbp)
    da80:	ff ff ff ff 
    da84:	48 8b 85 a0 e2 ff ff 	mov    -0x1d60(%rbp),%rax
    da8b:	41 89 c4             	mov    %eax,%r12d
    da8e:	48 8b 95 50 e6 ff ff 	mov    -0x19b0(%rbp),%rdx
    da95:	48 8b 85 28 e3 ff ff 	mov    -0x1cd8(%rbp),%rax
    da9c:	48 39 c2             	cmp    %rax,%rdx
    da9f:	0f 95 c0             	setne  %al
    daa2:	0f b6 c0             	movzbl %al,%eax
    daa5:	be 06 00 00 00       	mov    $0x6,%esi
    daaa:	89 c7                	mov    %eax,%edi
    daac:	e8 54 c1 ff ff       	callq  9c05 <safe_lshift_func_uint8_t_u_s>
    dab1:	0f be d8             	movsbl %al,%ebx
    dab4:	48 8b 85 a0 e2 ff ff 	mov    -0x1d60(%rbp),%rax
    dabb:	be ff ff ff ff       	mov    $0xffffffff,%esi
    dac0:	89 c7                	mov    %eax,%edi
    dac2:	e8 5e c4 ff ff       	callq  9f25 <safe_div_func_uint32_t_u_u>
    dac7:	0f be c0             	movsbl %al,%eax
    daca:	89 de                	mov    %ebx,%esi
    dacc:	89 c7                	mov    %eax,%edi
    dace:	e8 1f b7 ff ff       	callq  91f2 <safe_sub_func_int8_t_s_s>
    dad3:	44 89 e6             	mov    %r12d,%esi
    dad6:	bf 00 00 00 00       	mov    $0x0,%edi
    dadb:	e8 26 c3 ff ff       	callq  9e06 <safe_lshift_func_uint16_t_u_u>
    dae0:	0f b7 c0             	movzwl %ax,%eax
    dae3:	39 85 10 e3 ff ff    	cmp    %eax,-0x1cf0(%rbp)
    dae9:	0f 9c c0             	setl   %al
    daec:	0f b6 d0             	movzbl %al,%edx
    daef:	8b 05 cf 85 00 00    	mov    0x85cf(%rip),%eax        # 160c4 <g_128>
    daf5:	31 c2                	xor    %eax,%edx
    daf7:	48 8b 85 e0 e3 ff ff 	mov    -0x1c20(%rbp),%rax
    dafe:	8b 00                	mov    (%rax),%eax
    db00:	21 d0                	and    %edx,%eax
    db02:	89 c2                	mov    %eax,%edx
    db04:	48 8b 85 e0 e3 ff ff 	mov    -0x1c20(%rbp),%rax
    db0b:	89 10                	mov    %edx,(%rax)
    db0d:	66 c7 05 ba 85 00 00 	movw   $0x0,0x85ba(%rip)        # 160d0 <g_176>
    db14:	00 00 
    db16:	e9 c3 11 00 00       	jmpq   ecde <func_52+0x1ded>
    db1b:	48 8d 85 90 e4 ff ff 	lea    -0x1b70(%rbp),%rax
    db22:	48 83 c0 28          	add    $0x28,%rax
    db26:	48 89 85 e8 e3 ff ff 	mov    %rax,-0x1c18(%rbp)
    db2d:	48 8d 05 d6 da 00 00 	lea    0xdad6(%rip),%rax        # 1b60a <g_145>
    db34:	48 89 85 f0 e3 ff ff 	mov    %rax,-0x1c10(%rbp)
    db3b:	48 c7 85 f8 e3 ff ff 	movq   $0x0,-0x1c08(%rbp)
    db42:	00 00 00 00 
    db46:	48 8d 85 40 f0 ff ff 	lea    -0xfc0(%rbp),%rax
    db4d:	48 8d 15 4c b5 00 00 	lea    0xb54c(%rip),%rdx        # 190a0 <g_3238+0x14b0>
    db54:	b9 f0 00 00 00       	mov    $0xf0,%ecx
    db59:	48 89 c7             	mov    %rax,%rdi
    db5c:	48 89 d6             	mov    %rdx,%rsi
    db5f:	f3 48 a5             	rep movsq %ds:(%rsi),%es:(%rdi)
    db62:	48 8d 05 f7 c2 00 00 	lea    0xc2f7(%rip),%rax        # 19e60 <g_239>
    db69:	48 89 85 00 e4 ff ff 	mov    %rax,-0x1c00(%rbp)
    db70:	c7 85 e0 e2 ff ff 00 	movl   $0x0,-0x1d20(%rbp)
    db77:	00 00 00 
    db7a:	eb 50                	jmp    dbcc <func_52+0xcdb>
    db7c:	c7 85 e4 e2 ff ff 00 	movl   $0x0,-0x1d1c(%rbp)
    db83:	00 00 00 
    db86:	eb 34                	jmp    dbbc <func_52+0xccb>
    db88:	8b 85 e4 e2 ff ff    	mov    -0x1d1c(%rbp),%eax
    db8e:	48 63 c8             	movslq %eax,%rcx
    db91:	8b 85 e0 e2 ff ff    	mov    -0x1d20(%rbp),%eax
    db97:	48 63 d0             	movslq %eax,%rdx
    db9a:	48 89 d0             	mov    %rdx,%rax
    db9d:	48 c1 e0 02          	shl    $0x2,%rax
    dba1:	48 01 d0             	add    %rdx,%rax
    dba4:	48 01 c0             	add    %rax,%rax
    dba7:	48 01 c8             	add    %rcx,%rax
    dbaa:	c7 84 85 70 e9 ff ff 	movl   $0x2661e026,-0x1690(%rbp,%rax,4)
    dbb1:	26 e0 61 26 
    dbb5:	83 85 e4 e2 ff ff 01 	addl   $0x1,-0x1d1c(%rbp)
    dbbc:	83 bd e4 e2 ff ff 09 	cmpl   $0x9,-0x1d1c(%rbp)
    dbc3:	7e c3                	jle    db88 <func_52+0xc97>
    dbc5:	83 85 e0 e2 ff ff 01 	addl   $0x1,-0x1d20(%rbp)
    dbcc:	83 bd e0 e2 ff ff 07 	cmpl   $0x7,-0x1d20(%rbp)
    dbd3:	7e a7                	jle    db7c <func_52+0xc8b>
    dbd5:	48 8b 85 a0 e2 ff ff 	mov    -0x1d60(%rbp),%rax
    dbdc:	41 89 c5             	mov    %eax,%r13d
    dbdf:	8b 9d bc e2 ff ff    	mov    -0x1d44(%rbp),%ebx
    dbe5:	0f b7 05 1e da 00 00 	movzwl 0xda1e(%rip),%eax        # 1b60a <g_145>
    dbec:	98                   	cwtl   
    dbed:	89 c7                	mov    %eax,%edi
    dbef:	e8 a2 b9 ff ff       	callq  9596 <safe_unary_minus_func_int32_t_s>
    dbf4:	89 c2                	mov    %eax,%edx
    dbf6:	48 8b 85 f0 e3 ff ff 	mov    -0x1c10(%rbp),%rax
    dbfd:	66 89 10             	mov    %dx,(%rax)
    dc00:	48 8b 85 f0 e3 ff ff 	mov    -0x1c10(%rbp),%rax
    dc07:	0f b7 00             	movzwl (%rax),%eax
    dc0a:	44 0f bf e0          	movswl %ax,%r12d
    dc0e:	8b 85 dc e2 ff ff    	mov    -0x1d24(%rbp),%eax
    dc14:	89 c1                	mov    %eax,%ecx
    dc16:	0f b6 05 ab 84 00 00 	movzbl 0x84ab(%rip),%eax        # 160c8 <g_132>
    dc1d:	0f be d0             	movsbl %al,%edx
    dc20:	8b 05 a6 84 00 00    	mov    0x84a6(%rip),%eax        # 160cc <g_175>
    dc26:	09 d0                	or     %edx,%eax
    dc28:	85 c0                	test   %eax,%eax
    dc2a:	75 0a                	jne    dc36 <func_52+0xd45>
    dc2c:	8b 85 bc e2 ff ff    	mov    -0x1d44(%rbp),%eax
    dc32:	85 c0                	test   %eax,%eax
    dc34:	74 07                	je     dc3d <func_52+0xd4c>
    dc36:	b8 01 00 00 00       	mov    $0x1,%eax
    dc3b:	eb 05                	jmp    dc42 <func_52+0xd51>
    dc3d:	b8 00 00 00 00       	mov    $0x0,%eax
    dc42:	89 ce                	mov    %ecx,%esi
    dc44:	89 c7                	mov    %eax,%edi
    dc46:	e8 b2 c2 ff ff       	callq  9efd <safe_mod_func_uint32_t_u_u>
    dc4b:	89 c2                	mov    %eax,%edx
    dc4d:	48 8b 85 d0 e3 ff ff 	mov    -0x1c30(%rbp),%rax
    dc54:	48 8b 00             	mov    (%rax),%rax
    dc57:	89 d2                	mov    %edx,%edx
    dc59:	48 21 c2             	and    %rax,%rdx
    dc5c:	48 8b 85 d0 e3 ff ff 	mov    -0x1c30(%rbp),%rax
    dc63:	48 89 10             	mov    %rdx,(%rax)
    dc66:	48 8b 85 d0 e3 ff ff 	mov    -0x1c30(%rbp),%rax
    dc6d:	48 8b 00             	mov    (%rax),%rax
    dc70:	48 89 05 69 84 00 00 	mov    %rax,0x8469(%rip)        # 160e0 <g_233>
    dc77:	48 8b 15 62 84 00 00 	mov    0x8462(%rip),%rdx        # 160e0 <g_233>
    dc7e:	48 8b 85 68 e3 ff ff 	mov    -0x1c98(%rbp),%rax
    dc85:	8b 00                	mov    (%rax),%eax
    dc87:	48 98                	cltq   
    dc89:	48 39 c2             	cmp    %rax,%rdx
    dc8c:	0f 92 c0             	setb   %al
    dc8f:	0f b6 c8             	movzbl %al,%ecx
    dc92:	0f b7 05 37 84 00 00 	movzwl 0x8437(%rip),%eax        # 160d0 <g_176>
    dc99:	0f b7 c0             	movzwl %ax,%eax
    dc9c:	83 c0 01             	add    $0x1,%eax
    dc9f:	8b 95 bc e2 ff ff    	mov    -0x1d44(%rbp),%edx
    dca5:	89 d6                	mov    %edx,%esi
    dca7:	48 63 d0             	movslq %eax,%rdx
    dcaa:	48 89 d0             	mov    %rdx,%rax
    dcad:	48 01 c0             	add    %rax,%rax
    dcb0:	48 01 d0             	add    %rdx,%rax
    dcb3:	48 01 f0             	add    %rsi,%rax
    dcb6:	48 8d 14 85 00 00 00 	lea    0x0(,%rax,4),%rdx
    dcbd:	00 
    dcbe:	48 8d 05 7b 83 00 00 	lea    0x837b(%rip),%rax        # 16040 <g_3>
    dcc5:	8b 04 02             	mov    (%rdx,%rax,1),%eax
    dcc8:	39 c1                	cmp    %eax,%ecx
    dcca:	0f 95 c0             	setne  %al
    dccd:	0f b6 c0             	movzbl %al,%eax
    dcd0:	41 39 c4             	cmp    %eax,%r12d
    dcd3:	0f 95 c0             	setne  %al
    dcd6:	0f b6 d0             	movzbl %al,%edx
    dcd9:	48 8b 05 28 c1 00 00 	mov    0xc128(%rip),%rax        # 19e08 <g_131>
    dce0:	0f b6 00             	movzbl (%rax),%eax
    dce3:	0f be c0             	movsbl %al,%eax
    dce6:	39 c2                	cmp    %eax,%edx
    dce8:	89 de                	mov    %ebx,%esi
    dcea:	bf c9 35 98 9d       	mov    $0x9d9835c9,%edi
    dcef:	e8 dc c1 ff ff       	callq  9ed0 <safe_sub_func_uint32_t_u_u>
    dcf4:	98                   	cwtl   
    dcf5:	44 89 ee             	mov    %r13d,%esi
    dcf8:	89 c7                	mov    %eax,%edi
    dcfa:	e8 2b b8 ff ff       	callq  952a <safe_rshift_func_int16_t_s_s>
    dcff:	48 8b 95 b8 e4 ff ff 	mov    -0x1b48(%rbp),%rdx
    dd06:	48 8b 85 e8 e3 ff ff 	mov    -0x1c18(%rbp),%rax
    dd0d:	48 89 10             	mov    %rdx,(%rax)
    dd10:	0f bf 85 d2 e2 ff ff 	movswl -0x1d2e(%rbp),%eax
    dd17:	48 8b 95 a0 e2 ff ff 	mov    -0x1d60(%rbp),%rdx
    dd1e:	8b b5 bc e2 ff ff    	mov    -0x1d44(%rbp),%esi
    dd24:	8b bd bc e2 ff ff    	mov    -0x1d44(%rbp),%edi
    dd2a:	31 d0                	xor    %edx,%eax
    dd2c:	89 c1                	mov    %eax,%ecx
    dd2e:	41 89 f8             	mov    %edi,%r8d
    dd31:	89 f2                	mov    %esi,%edx
    dd33:	48 89 d0             	mov    %rdx,%rax
    dd36:	48 01 c0             	add    %rax,%rax
    dd39:	48 01 d0             	add    %rdx,%rax
    dd3c:	4c 01 c0             	add    %r8,%rax
    dd3f:	48 8d 14 85 00 00 00 	lea    0x0(,%rax,4),%rdx
    dd46:	00 
    dd47:	48 8d 05 f2 82 00 00 	lea    0x82f2(%rip),%rax        # 16040 <g_3>
    dd4e:	89 0c 02             	mov    %ecx,(%rdx,%rax,1)
    dd51:	89 f9                	mov    %edi,%ecx
    dd53:	89 f2                	mov    %esi,%edx
    dd55:	48 89 d0             	mov    %rdx,%rax
    dd58:	48 01 c0             	add    %rax,%rax
    dd5b:	48 01 d0             	add    %rdx,%rax
    dd5e:	48 01 c8             	add    %rcx,%rax
    dd61:	48 8d 14 85 00 00 00 	lea    0x0(,%rax,4),%rdx
    dd68:	00 
    dd69:	48 8d 05 d0 82 00 00 	lea    0x82d0(%rip),%rax        # 16040 <g_3>
    dd70:	8b 14 02             	mov    (%rdx,%rax,1),%edx
    dd73:	8b 85 a4 e8 ff ff    	mov    -0x175c(%rbp),%eax
    dd79:	21 d0                	and    %edx,%eax
    dd7b:	89 85 a4 e8 ff ff    	mov    %eax,-0x175c(%rbp)
    dd81:	48 8b 85 d8 e4 ff ff 	mov    -0x1b28(%rbp),%rax
    dd88:	48 8b 95 b0 e2 ff ff 	mov    -0x1d50(%rbp),%rdx
    dd8f:	48 89 d6             	mov    %rdx,%rsi
    dd92:	48 89 c7             	mov    %rax,%rdi
    dd95:	e8 68 12 00 00       	callq  f002 <func_58>
    dd9a:	48 8b 95 00 e4 ff ff 	mov    -0x1c00(%rbp),%rdx
    dda1:	48 89 02             	mov    %rax,(%rdx)
    dda4:	48 8b 85 b8 e3 ff ff 	mov    -0x1c48(%rbp),%rax
    ddab:	0f b7 00             	movzwl (%rax),%eax
    ddae:	8d 48 ff             	lea    -0x1(%rax),%ecx
    ddb1:	48 8b 95 b8 e3 ff ff 	mov    -0x1c48(%rbp),%rdx
    ddb8:	66 89 0a             	mov    %cx,(%rdx)
    ddbb:	0f b7 d0             	movzwl %ax,%edx
    ddbe:	48 8b 85 68 e3 ff ff 	mov    -0x1c98(%rbp),%rax
    ddc5:	8b 00                	mov    (%rax),%eax
    ddc7:	39 c2                	cmp    %eax,%edx
    ddc9:	0f 9f c0             	setg   %al
    ddcc:	0f b6 d0             	movzbl %al,%edx
    ddcf:	48 8b 85 a0 e2 ff ff 	mov    -0x1d60(%rbp),%rax
    ddd6:	0f b7 c0             	movzwl %ax,%eax
    ddd9:	89 d6                	mov    %edx,%esi
    dddb:	89 c7                	mov    %eax,%edi
    dddd:	e8 3d bf ff ff       	callq  9d1f <safe_sub_func_uint16_t_u_u>
    dde2:	89 c2                	mov    %eax,%edx
    dde4:	48 8b 85 00 e4 ff ff 	mov    -0x1c00(%rbp),%rax
    ddeb:	48 8b 00             	mov    (%rax),%rax
    ddee:	0f b7 d2             	movzwl %dx,%edx
    ddf1:	89 10                	mov    %edx,(%rax)
    ddf3:	8b 00                	mov    (%rax),%eax
    ddf5:	89 85 1c e3 ff ff    	mov    %eax,-0x1ce4(%rbp)
    ddfb:	8b 85 bc e2 ff ff    	mov    -0x1d44(%rbp),%eax
    de01:	f7 d0                	not    %eax
    de03:	41 89 c4             	mov    %eax,%r12d
    de06:	48 8b 85 e0 e3 ff ff 	mov    -0x1c20(%rbp),%rax
    de0d:	8b 00                	mov    (%rax),%eax
    de0f:	85 c0                	test   %eax,%eax
    de11:	0f 95 c0             	setne  %al
    de14:	0f b6 d8             	movzbl %al,%ebx
    de17:	8b 85 bc e2 ff ff    	mov    -0x1d44(%rbp),%eax
    de1d:	41 89 c5             	mov    %eax,%r13d
    de20:	48 8b 85 68 e3 ff ff 	mov    -0x1c98(%rbp),%rax
    de27:	8b 00                	mov    (%rax),%eax
    de29:	0f be c0             	movsbl %al,%eax
    de2c:	be 16 00 00 00       	mov    $0x16,%esi
    de31:	89 c7                	mov    %eax,%edi
    de33:	e8 ba b3 ff ff       	callq  91f2 <safe_sub_func_int8_t_s_s>
    de38:	48 8b 15 c9 bf 00 00 	mov    0xbfc9(%rip),%rdx        # 19e08 <g_131>
    de3f:	0f b6 12             	movzbl (%rdx),%edx
    de42:	38 d0                	cmp    %dl,%al
    de44:	0f 9e c0             	setle  %al
    de47:	89 c2                	mov    %eax,%edx
    de49:	48 8b 85 e0 e3 ff ff 	mov    -0x1c20(%rbp),%rax
    de50:	8b 00                	mov    (%rax),%eax
    de52:	09 d0                	or     %edx,%eax
    de54:	83 f0 ae             	xor    $0xffffffae,%eax
    de57:	0f b6 c0             	movzbl %al,%eax
    de5a:	44 89 ee             	mov    %r13d,%esi
    de5d:	89 c7                	mov    %eax,%edi
    de5f:	e8 a1 bd ff ff       	callq  9c05 <safe_lshift_func_uint8_t_u_s>
    de64:	0f b6 c0             	movzbl %al,%eax
    de67:	48 89 c6             	mov    %rax,%rsi
    de6a:	48 c7 c7 ff ff ff ff 	mov    $0xffffffffffffffff,%rdi
    de71:	e8 d5 c1 ff ff       	callq  a04b <safe_sub_func_uint64_t_u_u>
    de76:	48 85 c0             	test   %rax,%rax
    de79:	74 11                	je     de8c <func_52+0xf9b>
    de7b:	8b 85 bc e2 ff ff    	mov    -0x1d44(%rbp),%eax
    de81:	85 c0                	test   %eax,%eax
    de83:	74 07                	je     de8c <func_52+0xf9b>
    de85:	b8 01 00 00 00       	mov    $0x1,%eax
    de8a:	eb 05                	jmp    de91 <func_52+0xfa0>
    de8c:	b8 00 00 00 00       	mov    $0x0,%eax
    de91:	39 d8                	cmp    %ebx,%eax
    de93:	0f 9d c0             	setge  %al
    de96:	0f b6 c0             	movzbl %al,%eax
    de99:	41 39 c4             	cmp    %eax,%r12d
    de9c:	0f 92 c0             	setb   %al
    de9f:	0f b6 c0             	movzbl %al,%eax
    dea2:	be 2a 00 00 00       	mov    $0x2a,%esi
    dea7:	89 c7                	mov    %eax,%edi
    dea9:	e8 44 b3 ff ff       	callq  91f2 <safe_sub_func_int8_t_s_s>
    deae:	0f be d0             	movsbl %al,%edx
    deb1:	48 8b 85 68 e3 ff ff 	mov    -0x1c98(%rbp),%rax
    deb8:	8b 00                	mov    (%rax),%eax
    deba:	39 c2                	cmp    %eax,%edx
    debc:	0f 85 10 0e 00 00    	jne    ecd2 <func_52+0x1de1>
    dec2:	48 8d 85 d4 e2 ff ff 	lea    -0x1d2c(%rbp),%rax
    dec9:	48 89 85 c0 f7 ff ff 	mov    %rax,-0x840(%rbp)
    ded0:	48 8d 05 f5 81 00 00 	lea    0x81f5(%rip),%rax        # 160cc <g_175>
    ded7:	48 89 85 c8 f7 ff ff 	mov    %rax,-0x838(%rbp)
    dede:	48 8d 05 e7 81 00 00 	lea    0x81e7(%rip),%rax        # 160cc <g_175>
    dee5:	48 89 85 d0 f7 ff ff 	mov    %rax,-0x830(%rbp)
    deec:	48 8d 05 d9 81 00 00 	lea    0x81d9(%rip),%rax        # 160cc <g_175>
    def3:	48 89 85 d8 f7 ff ff 	mov    %rax,-0x828(%rbp)
    defa:	48 8d 85 d4 e2 ff ff 	lea    -0x1d2c(%rbp),%rax
    df01:	48 89 85 e0 f7 ff ff 	mov    %rax,-0x820(%rbp)
    df08:	48 8d 85 d4 e2 ff ff 	lea    -0x1d2c(%rbp),%rax
    df0f:	48 89 85 e8 f7 ff ff 	mov    %rax,-0x818(%rbp)
    df16:	48 c7 85 f0 f7 ff ff 	movq   $0x0,-0x810(%rbp)
    df1d:	00 00 00 00 
    df21:	48 8d 05 a4 81 00 00 	lea    0x81a4(%rip),%rax        # 160cc <g_175>
    df28:	48 89 85 f8 f7 ff ff 	mov    %rax,-0x808(%rbp)
    df2f:	48 8d 85 d4 e2 ff ff 	lea    -0x1d2c(%rbp),%rax
    df36:	48 89 85 00 f8 ff ff 	mov    %rax,-0x800(%rbp)
    df3d:	48 8d 05 88 81 00 00 	lea    0x8188(%rip),%rax        # 160cc <g_175>
    df44:	48 89 85 08 f8 ff ff 	mov    %rax,-0x7f8(%rbp)
    df4b:	48 8d 05 7a 81 00 00 	lea    0x817a(%rip),%rax        # 160cc <g_175>
    df52:	48 89 85 10 f8 ff ff 	mov    %rax,-0x7f0(%rbp)
    df59:	48 c7 85 18 f8 ff ff 	movq   $0x0,-0x7e8(%rbp)
    df60:	00 00 00 00 
    df64:	48 8d 85 d4 e2 ff ff 	lea    -0x1d2c(%rbp),%rax
    df6b:	48 89 85 20 f8 ff ff 	mov    %rax,-0x7e0(%rbp)
    df72:	48 8d 85 d4 e2 ff ff 	lea    -0x1d2c(%rbp),%rax
    df79:	48 89 85 28 f8 ff ff 	mov    %rax,-0x7d8(%rbp)
    df80:	48 c7 85 30 f8 ff ff 	movq   $0x0,-0x7d0(%rbp)
    df87:	00 00 00 00 
    df8b:	48 8d 05 3a 81 00 00 	lea    0x813a(%rip),%rax        # 160cc <g_175>
    df92:	48 89 85 38 f8 ff ff 	mov    %rax,-0x7c8(%rbp)
    df99:	48 8d 85 d4 e2 ff ff 	lea    -0x1d2c(%rbp),%rax
    dfa0:	48 89 85 40 f8 ff ff 	mov    %rax,-0x7c0(%rbp)
    dfa7:	48 8d 85 d4 e2 ff ff 	lea    -0x1d2c(%rbp),%rax
    dfae:	48 89 85 48 f8 ff ff 	mov    %rax,-0x7b8(%rbp)
    dfb5:	48 8d 05 10 81 00 00 	lea    0x8110(%rip),%rax        # 160cc <g_175>
    dfbc:	48 89 85 50 f8 ff ff 	mov    %rax,-0x7b0(%rbp)
    dfc3:	48 c7 85 58 f8 ff ff 	movq   $0x0,-0x7a8(%rbp)
    dfca:	00 00 00 00 
    dfce:	48 8d 85 d4 e2 ff ff 	lea    -0x1d2c(%rbp),%rax
    dfd5:	48 89 85 60 f8 ff ff 	mov    %rax,-0x7a0(%rbp)
    dfdc:	48 8d 05 e9 80 00 00 	lea    0x80e9(%rip),%rax        # 160cc <g_175>
    dfe3:	48 89 85 68 f8 ff ff 	mov    %rax,-0x798(%rbp)
    dfea:	48 8d 05 db 80 00 00 	lea    0x80db(%rip),%rax        # 160cc <g_175>
    dff1:	48 89 85 70 f8 ff ff 	mov    %rax,-0x790(%rbp)
    dff8:	48 8d 05 cd 80 00 00 	lea    0x80cd(%rip),%rax        # 160cc <g_175>
    dfff:	48 89 85 78 f8 ff ff 	mov    %rax,-0x788(%rbp)
    e006:	48 8d 85 d4 e2 ff ff 	lea    -0x1d2c(%rbp),%rax
    e00d:	48 89 85 80 f8 ff ff 	mov    %rax,-0x780(%rbp)
    e014:	48 8d 85 d4 e2 ff ff 	lea    -0x1d2c(%rbp),%rax
    e01b:	48 89 85 88 f8 ff ff 	mov    %rax,-0x778(%rbp)
    e022:	48 c7 85 90 f8 ff ff 	movq   $0x0,-0x770(%rbp)
    e029:	00 00 00 00 
    e02d:	48 8d 05 98 80 00 00 	lea    0x8098(%rip),%rax        # 160cc <g_175>
    e034:	48 89 85 98 f8 ff ff 	mov    %rax,-0x768(%rbp)
    e03b:	48 8d 85 d4 e2 ff ff 	lea    -0x1d2c(%rbp),%rax
    e042:	48 89 85 a0 f8 ff ff 	mov    %rax,-0x760(%rbp)
    e049:	48 8d 05 7c 80 00 00 	lea    0x807c(%rip),%rax        # 160cc <g_175>
    e050:	48 89 85 a8 f8 ff ff 	mov    %rax,-0x758(%rbp)
    e057:	48 8d 05 6e 80 00 00 	lea    0x806e(%rip),%rax        # 160cc <g_175>
    e05e:	48 89 85 b0 f8 ff ff 	mov    %rax,-0x750(%rbp)
    e065:	48 c7 85 b8 f8 ff ff 	movq   $0x0,-0x748(%rbp)
    e06c:	00 00 00 00 
    e070:	48 8d 85 d4 e2 ff ff 	lea    -0x1d2c(%rbp),%rax
    e077:	48 89 85 c0 f8 ff ff 	mov    %rax,-0x740(%rbp)
    e07e:	48 8d 85 d4 e2 ff ff 	lea    -0x1d2c(%rbp),%rax
    e085:	48 89 85 c8 f8 ff ff 	mov    %rax,-0x738(%rbp)
    e08c:	48 c7 85 d0 f8 ff ff 	movq   $0x0,-0x730(%rbp)
    e093:	00 00 00 00 
    e097:	48 8d 05 2e 80 00 00 	lea    0x802e(%rip),%rax        # 160cc <g_175>
    e09e:	48 89 85 d8 f8 ff ff 	mov    %rax,-0x728(%rbp)
    e0a5:	48 8d 85 d4 e2 ff ff 	lea    -0x1d2c(%rbp),%rax
    e0ac:	48 89 85 e0 f8 ff ff 	mov    %rax,-0x720(%rbp)
    e0b3:	48 8d 85 d4 e2 ff ff 	lea    -0x1d2c(%rbp),%rax
    e0ba:	48 89 85 e8 f8 ff ff 	mov    %rax,-0x718(%rbp)
    e0c1:	48 8d 05 04 80 00 00 	lea    0x8004(%rip),%rax        # 160cc <g_175>
    e0c8:	48 89 85 f0 f8 ff ff 	mov    %rax,-0x710(%rbp)
    e0cf:	48 c7 85 f8 f8 ff ff 	movq   $0x0,-0x708(%rbp)
    e0d6:	00 00 00 00 
    e0da:	48 8d 85 d4 e2 ff ff 	lea    -0x1d2c(%rbp),%rax
    e0e1:	48 89 85 00 f9 ff ff 	mov    %rax,-0x700(%rbp)
    e0e8:	48 8d 05 dd 7f 00 00 	lea    0x7fdd(%rip),%rax        # 160cc <g_175>
    e0ef:	48 89 85 08 f9 ff ff 	mov    %rax,-0x6f8(%rbp)
    e0f6:	48 8d 05 cf 7f 00 00 	lea    0x7fcf(%rip),%rax        # 160cc <g_175>
    e0fd:	48 89 85 10 f9 ff ff 	mov    %rax,-0x6f0(%rbp)
    e104:	48 8d 05 c1 7f 00 00 	lea    0x7fc1(%rip),%rax        # 160cc <g_175>
    e10b:	48 89 85 18 f9 ff ff 	mov    %rax,-0x6e8(%rbp)
    e112:	48 8d 85 d4 e2 ff ff 	lea    -0x1d2c(%rbp),%rax
    e119:	48 89 85 20 f9 ff ff 	mov    %rax,-0x6e0(%rbp)
    e120:	48 8d 85 d4 e2 ff ff 	lea    -0x1d2c(%rbp),%rax
    e127:	48 89 85 28 f9 ff ff 	mov    %rax,-0x6d8(%rbp)
    e12e:	48 c7 85 30 f9 ff ff 	movq   $0x0,-0x6d0(%rbp)
    e135:	00 00 00 00 
    e139:	48 8d 05 8c 7f 00 00 	lea    0x7f8c(%rip),%rax        # 160cc <g_175>
    e140:	48 89 85 38 f9 ff ff 	mov    %rax,-0x6c8(%rbp)
    e147:	48 8d 85 d4 e2 ff ff 	lea    -0x1d2c(%rbp),%rax
    e14e:	48 89 85 40 f9 ff ff 	mov    %rax,-0x6c0(%rbp)
    e155:	48 8d 05 70 7f 00 00 	lea    0x7f70(%rip),%rax        # 160cc <g_175>
    e15c:	48 89 85 48 f9 ff ff 	mov    %rax,-0x6b8(%rbp)
    e163:	48 8d 05 62 7f 00 00 	lea    0x7f62(%rip),%rax        # 160cc <g_175>
    e16a:	48 89 85 50 f9 ff ff 	mov    %rax,-0x6b0(%rbp)
    e171:	48 c7 85 58 f9 ff ff 	movq   $0x0,-0x6a8(%rbp)
    e178:	00 00 00 00 
    e17c:	48 8d 85 d4 e2 ff ff 	lea    -0x1d2c(%rbp),%rax
    e183:	48 89 85 60 f9 ff ff 	mov    %rax,-0x6a0(%rbp)
    e18a:	48 8d 85 d4 e2 ff ff 	lea    -0x1d2c(%rbp),%rax
    e191:	48 89 85 68 f9 ff ff 	mov    %rax,-0x698(%rbp)
    e198:	48 c7 85 70 f9 ff ff 	movq   $0x0,-0x690(%rbp)
    e19f:	00 00 00 00 
    e1a3:	48 8d 05 22 7f 00 00 	lea    0x7f22(%rip),%rax        # 160cc <g_175>
    e1aa:	48 89 85 78 f9 ff ff 	mov    %rax,-0x688(%rbp)
    e1b1:	48 8d 85 d4 e2 ff ff 	lea    -0x1d2c(%rbp),%rax
    e1b8:	48 89 85 80 f9 ff ff 	mov    %rax,-0x680(%rbp)
    e1bf:	48 8d 85 d4 e2 ff ff 	lea    -0x1d2c(%rbp),%rax
    e1c6:	48 89 85 88 f9 ff ff 	mov    %rax,-0x678(%rbp)
    e1cd:	48 8d 05 f8 7e 00 00 	lea    0x7ef8(%rip),%rax        # 160cc <g_175>
    e1d4:	48 89 85 90 f9 ff ff 	mov    %rax,-0x670(%rbp)
    e1db:	48 c7 85 98 f9 ff ff 	movq   $0x0,-0x668(%rbp)
    e1e2:	00 00 00 00 
    e1e6:	48 8d 85 d4 e2 ff ff 	lea    -0x1d2c(%rbp),%rax
    e1ed:	48 89 85 a0 f9 ff ff 	mov    %rax,-0x660(%rbp)
    e1f4:	48 8d 05 d1 7e 00 00 	lea    0x7ed1(%rip),%rax        # 160cc <g_175>
    e1fb:	48 89 85 a8 f9 ff ff 	mov    %rax,-0x658(%rbp)
    e202:	48 8d 05 c3 7e 00 00 	lea    0x7ec3(%rip),%rax        # 160cc <g_175>
    e209:	48 89 85 b0 f9 ff ff 	mov    %rax,-0x650(%rbp)
    e210:	48 8d 05 b5 7e 00 00 	lea    0x7eb5(%rip),%rax        # 160cc <g_175>
    e217:	48 89 85 b8 f9 ff ff 	mov    %rax,-0x648(%rbp)
    e21e:	48 8d 85 d4 e2 ff ff 	lea    -0x1d2c(%rbp),%rax
    e225:	48 89 85 c0 f9 ff ff 	mov    %rax,-0x640(%rbp)
    e22c:	48 8d 85 d4 e2 ff ff 	lea    -0x1d2c(%rbp),%rax
    e233:	48 89 85 c8 f9 ff ff 	mov    %rax,-0x638(%rbp)
    e23a:	48 c7 85 d0 f9 ff ff 	movq   $0x0,-0x630(%rbp)
    e241:	00 00 00 00 
    e245:	48 8d 05 80 7e 00 00 	lea    0x7e80(%rip),%rax        # 160cc <g_175>
    e24c:	48 89 85 d8 f9 ff ff 	mov    %rax,-0x628(%rbp)
    e253:	48 8d 85 d4 e2 ff ff 	lea    -0x1d2c(%rbp),%rax
    e25a:	48 89 85 e0 f9 ff ff 	mov    %rax,-0x620(%rbp)
    e261:	48 8d 05 64 7e 00 00 	lea    0x7e64(%rip),%rax        # 160cc <g_175>
    e268:	48 89 85 e8 f9 ff ff 	mov    %rax,-0x618(%rbp)
    e26f:	48 8d 05 56 7e 00 00 	lea    0x7e56(%rip),%rax        # 160cc <g_175>
    e276:	48 89 85 f0 f9 ff ff 	mov    %rax,-0x610(%rbp)
    e27d:	48 c7 85 f8 f9 ff ff 	movq   $0x0,-0x608(%rbp)
    e284:	00 00 00 00 
    e288:	48 8d 85 d4 e2 ff ff 	lea    -0x1d2c(%rbp),%rax
    e28f:	48 89 85 00 fa ff ff 	mov    %rax,-0x600(%rbp)
    e296:	48 8d 85 d4 e2 ff ff 	lea    -0x1d2c(%rbp),%rax
    e29d:	48 89 85 08 fa ff ff 	mov    %rax,-0x5f8(%rbp)
    e2a4:	48 c7 85 10 fa ff ff 	movq   $0x0,-0x5f0(%rbp)
    e2ab:	00 00 00 00 
    e2af:	48 8d 05 16 7e 00 00 	lea    0x7e16(%rip),%rax        # 160cc <g_175>
    e2b6:	48 89 85 18 fa ff ff 	mov    %rax,-0x5e8(%rbp)
    e2bd:	48 8d 85 d4 e2 ff ff 	lea    -0x1d2c(%rbp),%rax
    e2c4:	48 89 85 20 fa ff ff 	mov    %rax,-0x5e0(%rbp)
    e2cb:	48 8d 85 d4 e2 ff ff 	lea    -0x1d2c(%rbp),%rax
    e2d2:	48 89 85 28 fa ff ff 	mov    %rax,-0x5d8(%rbp)
    e2d9:	48 8d 05 ec 7d 00 00 	lea    0x7dec(%rip),%rax        # 160cc <g_175>
    e2e0:	48 89 85 30 fa ff ff 	mov    %rax,-0x5d0(%rbp)
    e2e7:	48 c7 85 38 fa ff ff 	movq   $0x0,-0x5c8(%rbp)
    e2ee:	00 00 00 00 
    e2f2:	48 8d 85 d4 e2 ff ff 	lea    -0x1d2c(%rbp),%rax
    e2f9:	48 89 85 40 fa ff ff 	mov    %rax,-0x5c0(%rbp)
    e300:	48 8d 05 c5 7d 00 00 	lea    0x7dc5(%rip),%rax        # 160cc <g_175>
    e307:	48 89 85 48 fa ff ff 	mov    %rax,-0x5b8(%rbp)
    e30e:	48 8d 05 b7 7d 00 00 	lea    0x7db7(%rip),%rax        # 160cc <g_175>
    e315:	48 89 85 50 fa ff ff 	mov    %rax,-0x5b0(%rbp)
    e31c:	48 8d 05 a9 7d 00 00 	lea    0x7da9(%rip),%rax        # 160cc <g_175>
    e323:	48 89 85 58 fa ff ff 	mov    %rax,-0x5a8(%rbp)
    e32a:	48 8d 85 d4 e2 ff ff 	lea    -0x1d2c(%rbp),%rax
    e331:	48 89 85 60 fa ff ff 	mov    %rax,-0x5a0(%rbp)
    e338:	48 8d 85 d4 e2 ff ff 	lea    -0x1d2c(%rbp),%rax
    e33f:	48 89 85 68 fa ff ff 	mov    %rax,-0x598(%rbp)
    e346:	48 c7 85 70 fa ff ff 	movq   $0x0,-0x590(%rbp)
    e34d:	00 00 00 00 
    e351:	48 8d 05 74 7d 00 00 	lea    0x7d74(%rip),%rax        # 160cc <g_175>
    e358:	48 89 85 78 fa ff ff 	mov    %rax,-0x588(%rbp)
    e35f:	48 8d 85 d4 e2 ff ff 	lea    -0x1d2c(%rbp),%rax
    e366:	48 89 85 80 fa ff ff 	mov    %rax,-0x580(%rbp)
    e36d:	48 8d 05 58 7d 00 00 	lea    0x7d58(%rip),%rax        # 160cc <g_175>
    e374:	48 89 85 88 fa ff ff 	mov    %rax,-0x578(%rbp)
    e37b:	48 8d 05 4a 7d 00 00 	lea    0x7d4a(%rip),%rax        # 160cc <g_175>
    e382:	48 89 85 90 fa ff ff 	mov    %rax,-0x570(%rbp)
    e389:	48 c7 85 98 fa ff ff 	movq   $0x0,-0x568(%rbp)
    e390:	00 00 00 00 
    e394:	48 8d 85 d4 e2 ff ff 	lea    -0x1d2c(%rbp),%rax
    e39b:	48 89 85 a0 fa ff ff 	mov    %rax,-0x560(%rbp)
    e3a2:	48 8d 85 d4 e2 ff ff 	lea    -0x1d2c(%rbp),%rax
    e3a9:	48 89 85 a8 fa ff ff 	mov    %rax,-0x558(%rbp)
    e3b0:	48 c7 85 b0 fa ff ff 	movq   $0x0,-0x550(%rbp)
    e3b7:	00 00 00 00 
    e3bb:	48 8d 05 0a 7d 00 00 	lea    0x7d0a(%rip),%rax        # 160cc <g_175>
    e3c2:	48 89 85 b8 fa ff ff 	mov    %rax,-0x548(%rbp)
    e3c9:	48 8d 85 d4 e2 ff ff 	lea    -0x1d2c(%rbp),%rax
    e3d0:	48 89 85 c0 fa ff ff 	mov    %rax,-0x540(%rbp)
    e3d7:	48 8d 85 d4 e2 ff ff 	lea    -0x1d2c(%rbp),%rax
    e3de:	48 89 85 c8 fa ff ff 	mov    %rax,-0x538(%rbp)
    e3e5:	48 8d 05 e0 7c 00 00 	lea    0x7ce0(%rip),%rax        # 160cc <g_175>
    e3ec:	48 89 85 d0 fa ff ff 	mov    %rax,-0x530(%rbp)
    e3f3:	48 c7 85 d8 fa ff ff 	movq   $0x0,-0x528(%rbp)
    e3fa:	00 00 00 00 
    e3fe:	48 8d 85 d4 e2 ff ff 	lea    -0x1d2c(%rbp),%rax
    e405:	48 89 85 e0 fa ff ff 	mov    %rax,-0x520(%rbp)
    e40c:	48 8d 05 b9 7c 00 00 	lea    0x7cb9(%rip),%rax        # 160cc <g_175>
    e413:	48 89 85 e8 fa ff ff 	mov    %rax,-0x518(%rbp)
    e41a:	48 8d 05 ab 7c 00 00 	lea    0x7cab(%rip),%rax        # 160cc <g_175>
    e421:	48 89 85 f0 fa ff ff 	mov    %rax,-0x510(%rbp)
    e428:	48 8d 05 9d 7c 00 00 	lea    0x7c9d(%rip),%rax        # 160cc <g_175>
    e42f:	48 89 85 f8 fa ff ff 	mov    %rax,-0x508(%rbp)
    e436:	48 8d 85 d4 e2 ff ff 	lea    -0x1d2c(%rbp),%rax
    e43d:	48 89 85 00 fb ff ff 	mov    %rax,-0x500(%rbp)
    e444:	48 8d 85 d4 e2 ff ff 	lea    -0x1d2c(%rbp),%rax
    e44b:	48 89 85 08 fb ff ff 	mov    %rax,-0x4f8(%rbp)
    e452:	48 c7 85 10 fb ff ff 	movq   $0x0,-0x4f0(%rbp)
    e459:	00 00 00 00 
    e45d:	48 8d 05 68 7c 00 00 	lea    0x7c68(%rip),%rax        # 160cc <g_175>
    e464:	48 89 85 18 fb ff ff 	mov    %rax,-0x4e8(%rbp)
    e46b:	48 8d 85 d4 e2 ff ff 	lea    -0x1d2c(%rbp),%rax
    e472:	48 89 85 20 fb ff ff 	mov    %rax,-0x4e0(%rbp)
    e479:	48 8d 05 4c 7c 00 00 	lea    0x7c4c(%rip),%rax        # 160cc <g_175>
    e480:	48 89 85 28 fb ff ff 	mov    %rax,-0x4d8(%rbp)
    e487:	48 8d 05 3e 7c 00 00 	lea    0x7c3e(%rip),%rax        # 160cc <g_175>
    e48e:	48 89 85 30 fb ff ff 	mov    %rax,-0x4d0(%rbp)
    e495:	48 c7 85 38 fb ff ff 	movq   $0x0,-0x4c8(%rbp)
    e49c:	00 00 00 00 
    e4a0:	48 8d 85 d4 e2 ff ff 	lea    -0x1d2c(%rbp),%rax
    e4a7:	48 89 85 40 fb ff ff 	mov    %rax,-0x4c0(%rbp)
    e4ae:	48 8d 85 d4 e2 ff ff 	lea    -0x1d2c(%rbp),%rax
    e4b5:	48 89 85 48 fb ff ff 	mov    %rax,-0x4b8(%rbp)
    e4bc:	48 c7 85 50 fb ff ff 	movq   $0x0,-0x4b0(%rbp)
    e4c3:	00 00 00 00 
    e4c7:	48 8d 05 fe 7b 00 00 	lea    0x7bfe(%rip),%rax        # 160cc <g_175>
    e4ce:	48 89 85 58 fb ff ff 	mov    %rax,-0x4a8(%rbp)
    e4d5:	48 8d 85 d4 e2 ff ff 	lea    -0x1d2c(%rbp),%rax
    e4dc:	48 89 85 60 fb ff ff 	mov    %rax,-0x4a0(%rbp)
    e4e3:	48 8d 85 d4 e2 ff ff 	lea    -0x1d2c(%rbp),%rax
    e4ea:	48 89 85 68 fb ff ff 	mov    %rax,-0x498(%rbp)
    e4f1:	48 8d 05 d4 7b 00 00 	lea    0x7bd4(%rip),%rax        # 160cc <g_175>
    e4f8:	48 89 85 70 fb ff ff 	mov    %rax,-0x490(%rbp)
    e4ff:	48 c7 85 78 fb ff ff 	movq   $0x0,-0x488(%rbp)
    e506:	00 00 00 00 
    e50a:	48 8d 85 d4 e2 ff ff 	lea    -0x1d2c(%rbp),%rax
    e511:	48 89 85 80 fb ff ff 	mov    %rax,-0x480(%rbp)
    e518:	48 8d 05 ad 7b 00 00 	lea    0x7bad(%rip),%rax        # 160cc <g_175>
    e51f:	48 89 85 88 fb ff ff 	mov    %rax,-0x478(%rbp)
    e526:	48 8d 05 9f 7b 00 00 	lea    0x7b9f(%rip),%rax        # 160cc <g_175>
    e52d:	48 89 85 90 fb ff ff 	mov    %rax,-0x470(%rbp)
    e534:	48 8d 05 91 7b 00 00 	lea    0x7b91(%rip),%rax        # 160cc <g_175>
    e53b:	48 89 85 98 fb ff ff 	mov    %rax,-0x468(%rbp)
    e542:	48 8d 85 d4 e2 ff ff 	lea    -0x1d2c(%rbp),%rax
    e549:	48 89 85 a0 fb ff ff 	mov    %rax,-0x460(%rbp)
    e550:	48 8d 85 d4 e2 ff ff 	lea    -0x1d2c(%rbp),%rax
    e557:	48 89 85 a8 fb ff ff 	mov    %rax,-0x458(%rbp)
    e55e:	48 c7 85 b0 fb ff ff 	movq   $0x0,-0x450(%rbp)
    e565:	00 00 00 00 
    e569:	48 8d 05 5c 7b 00 00 	lea    0x7b5c(%rip),%rax        # 160cc <g_175>
    e570:	48 89 85 b8 fb ff ff 	mov    %rax,-0x448(%rbp)
    e577:	48 8d 85 d4 e2 ff ff 	lea    -0x1d2c(%rbp),%rax
    e57e:	48 89 85 c0 fb ff ff 	mov    %rax,-0x440(%rbp)
    e585:	48 8d 05 40 7b 00 00 	lea    0x7b40(%rip),%rax        # 160cc <g_175>
    e58c:	48 89 85 c8 fb ff ff 	mov    %rax,-0x438(%rbp)
    e593:	48 8d 05 32 7b 00 00 	lea    0x7b32(%rip),%rax        # 160cc <g_175>
    e59a:	48 89 85 d0 fb ff ff 	mov    %rax,-0x430(%rbp)
    e5a1:	48 c7 85 d8 fb ff ff 	movq   $0x0,-0x428(%rbp)
    e5a8:	00 00 00 00 
    e5ac:	48 8d 85 d4 e2 ff ff 	lea    -0x1d2c(%rbp),%rax
    e5b3:	48 89 85 e0 fb ff ff 	mov    %rax,-0x420(%rbp)
    e5ba:	48 8d 85 d4 e2 ff ff 	lea    -0x1d2c(%rbp),%rax
    e5c1:	48 89 85 e8 fb ff ff 	mov    %rax,-0x418(%rbp)
    e5c8:	48 c7 85 f0 fb ff ff 	movq   $0x0,-0x410(%rbp)
    e5cf:	00 00 00 00 
    e5d3:	48 8d 05 f2 7a 00 00 	lea    0x7af2(%rip),%rax        # 160cc <g_175>
    e5da:	48 89 85 f8 fb ff ff 	mov    %rax,-0x408(%rbp)
    e5e1:	48 8d 85 d4 e2 ff ff 	lea    -0x1d2c(%rbp),%rax
    e5e8:	48 89 85 00 fc ff ff 	mov    %rax,-0x400(%rbp)
    e5ef:	48 8d 85 d4 e2 ff ff 	lea    -0x1d2c(%rbp),%rax
    e5f6:	48 89 85 08 fc ff ff 	mov    %rax,-0x3f8(%rbp)
    e5fd:	48 8d 05 c8 7a 00 00 	lea    0x7ac8(%rip),%rax        # 160cc <g_175>
    e604:	48 89 85 10 fc ff ff 	mov    %rax,-0x3f0(%rbp)
    e60b:	48 c7 85 18 fc ff ff 	movq   $0x0,-0x3e8(%rbp)
    e612:	00 00 00 00 
    e616:	48 8d 85 d4 e2 ff ff 	lea    -0x1d2c(%rbp),%rax
    e61d:	48 89 85 20 fc ff ff 	mov    %rax,-0x3e0(%rbp)
    e624:	48 8d 05 a1 7a 00 00 	lea    0x7aa1(%rip),%rax        # 160cc <g_175>
    e62b:	48 89 85 28 fc ff ff 	mov    %rax,-0x3d8(%rbp)
    e632:	48 8d 05 93 7a 00 00 	lea    0x7a93(%rip),%rax        # 160cc <g_175>
    e639:	48 89 85 30 fc ff ff 	mov    %rax,-0x3d0(%rbp)
    e640:	48 8d 05 85 7a 00 00 	lea    0x7a85(%rip),%rax        # 160cc <g_175>
    e647:	48 89 85 38 fc ff ff 	mov    %rax,-0x3c8(%rbp)
    e64e:	48 8d 85 d4 e2 ff ff 	lea    -0x1d2c(%rbp),%rax
    e655:	48 89 85 40 fc ff ff 	mov    %rax,-0x3c0(%rbp)
    e65c:	48 8d 85 d4 e2 ff ff 	lea    -0x1d2c(%rbp),%rax
    e663:	48 89 85 48 fc ff ff 	mov    %rax,-0x3b8(%rbp)
    e66a:	48 c7 85 50 fc ff ff 	movq   $0x0,-0x3b0(%rbp)
    e671:	00 00 00 00 
    e675:	48 8d 05 50 7a 00 00 	lea    0x7a50(%rip),%rax        # 160cc <g_175>
    e67c:	48 89 85 58 fc ff ff 	mov    %rax,-0x3a8(%rbp)
    e683:	48 8d 85 d4 e2 ff ff 	lea    -0x1d2c(%rbp),%rax
    e68a:	48 89 85 60 fc ff ff 	mov    %rax,-0x3a0(%rbp)
    e691:	48 8d 05 34 7a 00 00 	lea    0x7a34(%rip),%rax        # 160cc <g_175>
    e698:	48 89 85 68 fc ff ff 	mov    %rax,-0x398(%rbp)
    e69f:	48 8d 05 26 7a 00 00 	lea    0x7a26(%rip),%rax        # 160cc <g_175>
    e6a6:	48 89 85 70 fc ff ff 	mov    %rax,-0x390(%rbp)
    e6ad:	48 c7 85 78 fc ff ff 	movq   $0x0,-0x388(%rbp)
    e6b4:	00 00 00 00 
    e6b8:	48 8d 85 d4 e2 ff ff 	lea    -0x1d2c(%rbp),%rax
    e6bf:	48 89 85 80 fc ff ff 	mov    %rax,-0x380(%rbp)
    e6c6:	48 8d 85 d4 e2 ff ff 	lea    -0x1d2c(%rbp),%rax
    e6cd:	48 89 85 88 fc ff ff 	mov    %rax,-0x378(%rbp)
    e6d4:	48 c7 85 90 fc ff ff 	movq   $0x0,-0x370(%rbp)
    e6db:	00 00 00 00 
    e6df:	48 8d 05 e6 79 00 00 	lea    0x79e6(%rip),%rax        # 160cc <g_175>
    e6e6:	48 89 85 98 fc ff ff 	mov    %rax,-0x368(%rbp)
    e6ed:	48 8d 85 d4 e2 ff ff 	lea    -0x1d2c(%rbp),%rax
    e6f4:	48 89 85 a0 fc ff ff 	mov    %rax,-0x360(%rbp)
    e6fb:	48 8d 85 d4 e2 ff ff 	lea    -0x1d2c(%rbp),%rax
    e702:	48 89 85 a8 fc ff ff 	mov    %rax,-0x358(%rbp)
    e709:	48 8d 05 bc 79 00 00 	lea    0x79bc(%rip),%rax        # 160cc <g_175>
    e710:	48 89 85 b0 fc ff ff 	mov    %rax,-0x350(%rbp)
    e717:	48 c7 85 b8 fc ff ff 	movq   $0x0,-0x348(%rbp)
    e71e:	00 00 00 00 
    e722:	48 8d 85 d4 e2 ff ff 	lea    -0x1d2c(%rbp),%rax
    e729:	48 89 85 c0 fc ff ff 	mov    %rax,-0x340(%rbp)
    e730:	48 8d 05 95 79 00 00 	lea    0x7995(%rip),%rax        # 160cc <g_175>
    e737:	48 89 85 c8 fc ff ff 	mov    %rax,-0x338(%rbp)
    e73e:	48 8d 05 87 79 00 00 	lea    0x7987(%rip),%rax        # 160cc <g_175>
    e745:	48 89 85 d0 fc ff ff 	mov    %rax,-0x330(%rbp)
    e74c:	48 8d 05 79 79 00 00 	lea    0x7979(%rip),%rax        # 160cc <g_175>
    e753:	48 89 85 d8 fc ff ff 	mov    %rax,-0x328(%rbp)
    e75a:	48 8d 85 d4 e2 ff ff 	lea    -0x1d2c(%rbp),%rax
    e761:	48 89 85 e0 fc ff ff 	mov    %rax,-0x320(%rbp)
    e768:	48 8d 85 d4 e2 ff ff 	lea    -0x1d2c(%rbp),%rax
    e76f:	48 89 85 e8 fc ff ff 	mov    %rax,-0x318(%rbp)
    e776:	48 c7 85 f0 fc ff ff 	movq   $0x0,-0x310(%rbp)
    e77d:	00 00 00 00 
    e781:	48 8d 05 44 79 00 00 	lea    0x7944(%rip),%rax        # 160cc <g_175>
    e788:	48 89 85 f8 fc ff ff 	mov    %rax,-0x308(%rbp)
    e78f:	48 8d 85 d4 e2 ff ff 	lea    -0x1d2c(%rbp),%rax
    e796:	48 89 85 00 fd ff ff 	mov    %rax,-0x300(%rbp)
    e79d:	48 8d 05 28 79 00 00 	lea    0x7928(%rip),%rax        # 160cc <g_175>
    e7a4:	48 89 85 08 fd ff ff 	mov    %rax,-0x2f8(%rbp)
    e7ab:	48 8d 05 1a 79 00 00 	lea    0x791a(%rip),%rax        # 160cc <g_175>
    e7b2:	48 89 85 10 fd ff ff 	mov    %rax,-0x2f0(%rbp)
    e7b9:	48 c7 85 18 fd ff ff 	movq   $0x0,-0x2e8(%rbp)
    e7c0:	00 00 00 00 
    e7c4:	48 8d 85 d4 e2 ff ff 	lea    -0x1d2c(%rbp),%rax
    e7cb:	48 89 85 20 fd ff ff 	mov    %rax,-0x2e0(%rbp)
    e7d2:	48 8d 85 d4 e2 ff ff 	lea    -0x1d2c(%rbp),%rax
    e7d9:	48 89 85 28 fd ff ff 	mov    %rax,-0x2d8(%rbp)
    e7e0:	48 c7 85 30 fd ff ff 	movq   $0x0,-0x2d0(%rbp)
    e7e7:	00 00 00 00 
    e7eb:	48 8d 05 da 78 00 00 	lea    0x78da(%rip),%rax        # 160cc <g_175>
    e7f2:	48 89 85 38 fd ff ff 	mov    %rax,-0x2c8(%rbp)
    e7f9:	48 8d 85 d4 e2 ff ff 	lea    -0x1d2c(%rbp),%rax
    e800:	48 89 85 40 fd ff ff 	mov    %rax,-0x2c0(%rbp)
    e807:	48 8d 85 d4 e2 ff ff 	lea    -0x1d2c(%rbp),%rax
    e80e:	48 89 85 48 fd ff ff 	mov    %rax,-0x2b8(%rbp)
    e815:	48 8d 05 b0 78 00 00 	lea    0x78b0(%rip),%rax        # 160cc <g_175>
    e81c:	48 89 85 50 fd ff ff 	mov    %rax,-0x2b0(%rbp)
    e823:	48 c7 85 58 fd ff ff 	movq   $0x0,-0x2a8(%rbp)
    e82a:	00 00 00 00 
    e82e:	48 8d 85 d4 e2 ff ff 	lea    -0x1d2c(%rbp),%rax
    e835:	48 89 85 60 fd ff ff 	mov    %rax,-0x2a0(%rbp)
    e83c:	48 8d 05 89 78 00 00 	lea    0x7889(%rip),%rax        # 160cc <g_175>
    e843:	48 89 85 68 fd ff ff 	mov    %rax,-0x298(%rbp)
    e84a:	48 8d 05 7b 78 00 00 	lea    0x787b(%rip),%rax        # 160cc <g_175>
    e851:	48 89 85 70 fd ff ff 	mov    %rax,-0x290(%rbp)
    e858:	48 8d 05 6d 78 00 00 	lea    0x786d(%rip),%rax        # 160cc <g_175>
    e85f:	48 89 85 78 fd ff ff 	mov    %rax,-0x288(%rbp)
    e866:	48 8d 85 d4 e2 ff ff 	lea    -0x1d2c(%rbp),%rax
    e86d:	48 89 85 80 fd ff ff 	mov    %rax,-0x280(%rbp)
    e874:	48 8d 85 d4 e2 ff ff 	lea    -0x1d2c(%rbp),%rax
    e87b:	48 89 85 88 fd ff ff 	mov    %rax,-0x278(%rbp)
    e882:	48 c7 85 90 fd ff ff 	movq   $0x0,-0x270(%rbp)
    e889:	00 00 00 00 
    e88d:	48 8d 05 38 78 00 00 	lea    0x7838(%rip),%rax        # 160cc <g_175>
    e894:	48 89 85 98 fd ff ff 	mov    %rax,-0x268(%rbp)
    e89b:	48 8d 85 d4 e2 ff ff 	lea    -0x1d2c(%rbp),%rax
    e8a2:	48 89 85 a0 fd ff ff 	mov    %rax,-0x260(%rbp)
    e8a9:	48 8d 05 1c 78 00 00 	lea    0x781c(%rip),%rax        # 160cc <g_175>
    e8b0:	48 89 85 a8 fd ff ff 	mov    %rax,-0x258(%rbp)
    e8b7:	48 8d 05 0e 78 00 00 	lea    0x780e(%rip),%rax        # 160cc <g_175>
    e8be:	48 89 85 b0 fd ff ff 	mov    %rax,-0x250(%rbp)
    e8c5:	48 8d 05 00 78 00 00 	lea    0x7800(%rip),%rax        # 160cc <g_175>
    e8cc:	48 89 85 b8 fd ff ff 	mov    %rax,-0x248(%rbp)
    e8d3:	48 8d 85 d4 e2 ff ff 	lea    -0x1d2c(%rbp),%rax
    e8da:	48 89 85 c0 fd ff ff 	mov    %rax,-0x240(%rbp)
    e8e1:	48 8d 85 d4 e2 ff ff 	lea    -0x1d2c(%rbp),%rax
    e8e8:	48 89 85 c8 fd ff ff 	mov    %rax,-0x238(%rbp)
    e8ef:	48 8d 05 d6 77 00 00 	lea    0x77d6(%rip),%rax        # 160cc <g_175>
    e8f6:	48 89 85 d0 fd ff ff 	mov    %rax,-0x230(%rbp)
    e8fd:	48 8d 05 c8 77 00 00 	lea    0x77c8(%rip),%rax        # 160cc <g_175>
    e904:	48 89 85 d8 fd ff ff 	mov    %rax,-0x228(%rbp)
    e90b:	48 8d 85 d4 e2 ff ff 	lea    -0x1d2c(%rbp),%rax
    e912:	48 89 85 e0 fd ff ff 	mov    %rax,-0x220(%rbp)
    e919:	48 8d 85 d4 e2 ff ff 	lea    -0x1d2c(%rbp),%rax
    e920:	48 89 85 e8 fd ff ff 	mov    %rax,-0x218(%rbp)
    e927:	48 8d 85 d4 e2 ff ff 	lea    -0x1d2c(%rbp),%rax
    e92e:	48 89 85 f0 fd ff ff 	mov    %rax,-0x210(%rbp)
    e935:	48 8d 05 90 77 00 00 	lea    0x7790(%rip),%rax        # 160cc <g_175>
    e93c:	48 89 85 f8 fd ff ff 	mov    %rax,-0x208(%rbp)
    e943:	48 8d 85 d4 e2 ff ff 	lea    -0x1d2c(%rbp),%rax
    e94a:	48 89 85 00 fe ff ff 	mov    %rax,-0x200(%rbp)
    e951:	48 8d 85 d4 e2 ff ff 	lea    -0x1d2c(%rbp),%rax
    e958:	48 89 85 08 fe ff ff 	mov    %rax,-0x1f8(%rbp)
    e95f:	48 8d 85 d4 e2 ff ff 	lea    -0x1d2c(%rbp),%rax
    e966:	48 89 85 10 fe ff ff 	mov    %rax,-0x1f0(%rbp)
    e96d:	48 8d 85 d4 e2 ff ff 	lea    -0x1d2c(%rbp),%rax
    e974:	48 89 85 18 fe ff ff 	mov    %rax,-0x1e8(%rbp)
    e97b:	48 8d 85 d4 e2 ff ff 	lea    -0x1d2c(%rbp),%rax
    e982:	48 89 85 20 fe ff ff 	mov    %rax,-0x1e0(%rbp)
    e989:	48 8d 85 d4 e2 ff ff 	lea    -0x1d2c(%rbp),%rax
    e990:	48 89 85 28 fe ff ff 	mov    %rax,-0x1d8(%rbp)
    e997:	48 8d 05 2e 77 00 00 	lea    0x772e(%rip),%rax        # 160cc <g_175>
    e99e:	48 89 85 30 fe ff ff 	mov    %rax,-0x1d0(%rbp)
    e9a5:	48 8d 85 d4 e2 ff ff 	lea    -0x1d2c(%rbp),%rax
    e9ac:	48 89 85 38 fe ff ff 	mov    %rax,-0x1c8(%rbp)
    e9b3:	48 8d 85 d4 e2 ff ff 	lea    -0x1d2c(%rbp),%rax
    e9ba:	48 89 85 40 fe ff ff 	mov    %rax,-0x1c0(%rbp)
    e9c1:	48 8d 85 d4 e2 ff ff 	lea    -0x1d2c(%rbp),%rax
    e9c8:	48 89 85 48 fe ff ff 	mov    %rax,-0x1b8(%rbp)
    e9cf:	48 8d 05 f6 76 00 00 	lea    0x76f6(%rip),%rax        # 160cc <g_175>
    e9d6:	48 89 85 50 fe ff ff 	mov    %rax,-0x1b0(%rbp)
    e9dd:	48 8d 05 e8 76 00 00 	lea    0x76e8(%rip),%rax        # 160cc <g_175>
    e9e4:	48 89 85 58 fe ff ff 	mov    %rax,-0x1a8(%rbp)
    e9eb:	48 8d 85 d4 e2 ff ff 	lea    -0x1d2c(%rbp),%rax
    e9f2:	48 89 85 60 fe ff ff 	mov    %rax,-0x1a0(%rbp)
    e9f9:	48 8d 85 d4 e2 ff ff 	lea    -0x1d2c(%rbp),%rax
    ea00:	48 89 85 68 fe ff ff 	mov    %rax,-0x198(%rbp)
    ea07:	48 8d 05 be 76 00 00 	lea    0x76be(%rip),%rax        # 160cc <g_175>
    ea0e:	48 89 85 70 fe ff ff 	mov    %rax,-0x190(%rbp)
    ea15:	48 8d 05 b0 76 00 00 	lea    0x76b0(%rip),%rax        # 160cc <g_175>
    ea1c:	48 89 85 78 fe ff ff 	mov    %rax,-0x188(%rbp)
    ea23:	48 8d 85 d4 e2 ff ff 	lea    -0x1d2c(%rbp),%rax
    ea2a:	48 89 85 80 fe ff ff 	mov    %rax,-0x180(%rbp)
    ea31:	48 8d 85 d4 e2 ff ff 	lea    -0x1d2c(%rbp),%rax
    ea38:	48 89 85 88 fe ff ff 	mov    %rax,-0x178(%rbp)
    ea3f:	48 8d 85 d4 e2 ff ff 	lea    -0x1d2c(%rbp),%rax
    ea46:	48 89 85 90 fe ff ff 	mov    %rax,-0x170(%rbp)
    ea4d:	48 8d 05 78 76 00 00 	lea    0x7678(%rip),%rax        # 160cc <g_175>
    ea54:	48 89 85 98 fe ff ff 	mov    %rax,-0x168(%rbp)
    ea5b:	48 8d 85 d4 e2 ff ff 	lea    -0x1d2c(%rbp),%rax
    ea62:	48 89 85 a0 fe ff ff 	mov    %rax,-0x160(%rbp)
    ea69:	48 8d 85 d4 e2 ff ff 	lea    -0x1d2c(%rbp),%rax
    ea70:	48 89 85 a8 fe ff ff 	mov    %rax,-0x158(%rbp)
    ea77:	48 8d 85 d4 e2 ff ff 	lea    -0x1d2c(%rbp),%rax
    ea7e:	48 89 85 b0 fe ff ff 	mov    %rax,-0x150(%rbp)
    ea85:	48 8d 85 d4 e2 ff ff 	lea    -0x1d2c(%rbp),%rax
    ea8c:	48 89 85 b8 fe ff ff 	mov    %rax,-0x148(%rbp)
    ea93:	48 8d 85 d4 e2 ff ff 	lea    -0x1d2c(%rbp),%rax
    ea9a:	48 89 85 c0 fe ff ff 	mov    %rax,-0x140(%rbp)
    eaa1:	48 8d 85 d4 e2 ff ff 	lea    -0x1d2c(%rbp),%rax
    eaa8:	48 89 85 c8 fe ff ff 	mov    %rax,-0x138(%rbp)
    eaaf:	48 8d 05 16 76 00 00 	lea    0x7616(%rip),%rax        # 160cc <g_175>
    eab6:	48 89 85 d0 fe ff ff 	mov    %rax,-0x130(%rbp)
    eabd:	48 8d 85 d4 e2 ff ff 	lea    -0x1d2c(%rbp),%rax
    eac4:	48 89 85 d8 fe ff ff 	mov    %rax,-0x128(%rbp)
    eacb:	48 8d 85 d4 e2 ff ff 	lea    -0x1d2c(%rbp),%rax
    ead2:	48 89 85 e0 fe ff ff 	mov    %rax,-0x120(%rbp)
    ead9:	48 8d 85 d4 e2 ff ff 	lea    -0x1d2c(%rbp),%rax
    eae0:	48 89 85 e8 fe ff ff 	mov    %rax,-0x118(%rbp)
    eae7:	48 8d 05 de 75 00 00 	lea    0x75de(%rip),%rax        # 160cc <g_175>
    eaee:	48 89 85 f0 fe ff ff 	mov    %rax,-0x110(%rbp)
    eaf5:	48 8d 05 d0 75 00 00 	lea    0x75d0(%rip),%rax        # 160cc <g_175>
    eafc:	48 89 85 f8 fe ff ff 	mov    %rax,-0x108(%rbp)
    eb03:	48 8d 85 d4 e2 ff ff 	lea    -0x1d2c(%rbp),%rax
    eb0a:	48 89 85 00 ff ff ff 	mov    %rax,-0x100(%rbp)
    eb11:	48 8d 85 d4 e2 ff ff 	lea    -0x1d2c(%rbp),%rax
    eb18:	48 89 85 08 ff ff ff 	mov    %rax,-0xf8(%rbp)
    eb1f:	48 8d 05 a6 75 00 00 	lea    0x75a6(%rip),%rax        # 160cc <g_175>
    eb26:	48 89 85 10 ff ff ff 	mov    %rax,-0xf0(%rbp)
    eb2d:	48 8d 05 98 75 00 00 	lea    0x7598(%rip),%rax        # 160cc <g_175>
    eb34:	48 89 85 18 ff ff ff 	mov    %rax,-0xe8(%rbp)
    eb3b:	48 8d 85 d4 e2 ff ff 	lea    -0x1d2c(%rbp),%rax
    eb42:	48 89 85 20 ff ff ff 	mov    %rax,-0xe0(%rbp)
    eb49:	48 8d 85 d4 e2 ff ff 	lea    -0x1d2c(%rbp),%rax
    eb50:	48 89 85 28 ff ff ff 	mov    %rax,-0xd8(%rbp)
    eb57:	48 8d 85 d4 e2 ff ff 	lea    -0x1d2c(%rbp),%rax
    eb5e:	48 89 85 30 ff ff ff 	mov    %rax,-0xd0(%rbp)
    eb65:	48 8d 05 60 75 00 00 	lea    0x7560(%rip),%rax        # 160cc <g_175>
    eb6c:	48 89 85 38 ff ff ff 	mov    %rax,-0xc8(%rbp)
    eb73:	48 8d 85 d4 e2 ff ff 	lea    -0x1d2c(%rbp),%rax
    eb7a:	48 89 85 40 ff ff ff 	mov    %rax,-0xc0(%rbp)
    eb81:	48 8d 85 d4 e2 ff ff 	lea    -0x1d2c(%rbp),%rax
    eb88:	48 89 85 48 ff ff ff 	mov    %rax,-0xb8(%rbp)
    eb8f:	48 8d 85 d4 e2 ff ff 	lea    -0x1d2c(%rbp),%rax
    eb96:	48 89 85 50 ff ff ff 	mov    %rax,-0xb0(%rbp)
    eb9d:	48 8d 85 d4 e2 ff ff 	lea    -0x1d2c(%rbp),%rax
    eba4:	48 89 85 58 ff ff ff 	mov    %rax,-0xa8(%rbp)
    ebab:	48 8d 85 d4 e2 ff ff 	lea    -0x1d2c(%rbp),%rax
    ebb2:	48 89 85 60 ff ff ff 	mov    %rax,-0xa0(%rbp)
    ebb9:	48 8d 85 d4 e2 ff ff 	lea    -0x1d2c(%rbp),%rax
    ebc0:	48 89 85 68 ff ff ff 	mov    %rax,-0x98(%rbp)
    ebc7:	48 8d 05 fe 74 00 00 	lea    0x74fe(%rip),%rax        # 160cc <g_175>
    ebce:	48 89 85 70 ff ff ff 	mov    %rax,-0x90(%rbp)
    ebd5:	48 8d 85 d4 e2 ff ff 	lea    -0x1d2c(%rbp),%rax
    ebdc:	48 89 85 78 ff ff ff 	mov    %rax,-0x88(%rbp)
    ebe3:	48 8d 85 d4 e2 ff ff 	lea    -0x1d2c(%rbp),%rax
    ebea:	48 89 45 80          	mov    %rax,-0x80(%rbp)
    ebee:	48 8d 85 d4 e2 ff ff 	lea    -0x1d2c(%rbp),%rax
    ebf5:	48 89 45 88          	mov    %rax,-0x78(%rbp)
    ebf9:	48 8d 05 cc 74 00 00 	lea    0x74cc(%rip),%rax        # 160cc <g_175>
    ec00:	48 89 45 90          	mov    %rax,-0x70(%rbp)
    ec04:	48 8d 05 c1 74 00 00 	lea    0x74c1(%rip),%rax        # 160cc <g_175>
    ec0b:	48 89 45 98          	mov    %rax,-0x68(%rbp)
    ec0f:	48 8d 85 d4 e2 ff ff 	lea    -0x1d2c(%rbp),%rax
    ec16:	48 89 45 a0          	mov    %rax,-0x60(%rbp)
    ec1a:	48 8d 85 d4 e2 ff ff 	lea    -0x1d2c(%rbp),%rax
    ec21:	48 89 45 a8          	mov    %rax,-0x58(%rbp)
    ec25:	48 8d 05 a0 74 00 00 	lea    0x74a0(%rip),%rax        # 160cc <g_175>
    ec2c:	48 89 45 b0          	mov    %rax,-0x50(%rbp)
    ec30:	48 8d 05 95 74 00 00 	lea    0x7495(%rip),%rax        # 160cc <g_175>
    ec37:	48 89 45 b8          	mov    %rax,-0x48(%rbp)
    ec3b:	c7 85 24 e3 ff ff 74 	movl   $0xb5513274,-0x1cdc(%rbp)
    ec42:	32 51 b5 
    ec45:	c7 85 e8 e2 ff ff 00 	movl   $0x0,-0x1d18(%rbp)
    ec4c:	00 00 00 
    ec4f:	eb 1a                	jmp    ec6b <func_52+0x1d7a>
    ec51:	8b 85 e8 e2 ff ff    	mov    -0x1d18(%rbp),%eax
    ec57:	48 98                	cltq   
    ec59:	c7 84 85 30 e4 ff ff 	movl   $0x83ca587e,-0x1bd0(%rbp,%rax,4)
    ec60:	7e 58 ca 83 
    ec64:	83 85 e8 e2 ff ff 01 	addl   $0x1,-0x1d18(%rbp)
    ec6b:	83 bd e8 e2 ff ff 08 	cmpl   $0x8,-0x1d18(%rbp)
    ec72:	7e dd                	jle    ec51 <func_52+0x1d60>
    ec74:	8b 05 52 74 00 00    	mov    0x7452(%rip),%eax        # 160cc <g_175>
    ec7a:	83 c0 01             	add    $0x1,%eax
    ec7d:	89 05 49 74 00 00    	mov    %eax,0x7449(%rip)        # 160cc <g_175>
    ec83:	8b 05 43 74 00 00    	mov    0x7443(%rip),%eax        # 160cc <g_175>
    ec89:	89 c2                	mov    %eax,%edx
    ec8b:	48 8b 85 a8 e2 ff ff 	mov    -0x1d58(%rbp),%rax
    ec92:	8b 00                	mov    (%rax),%eax
    ec94:	89 d6                	mov    %edx,%esi
    ec96:	89 c7                	mov    %eax,%edi
    ec98:	e8 62 aa ff ff       	callq  96ff <safe_div_func_int32_t_s_s>
    ec9d:	48 8b 95 a8 e2 ff ff 	mov    -0x1d58(%rbp),%rdx
    eca4:	89 02                	mov    %eax,(%rdx)
    eca6:	0f b7 85 0e e4 ff ff 	movzwl -0x1bf2(%rbp),%eax
    ecad:	83 e8 01             	sub    $0x1,%eax
    ecb0:	66 89 85 0e e4 ff ff 	mov    %ax,-0x1bf2(%rbp)
    ecb7:	48 83 85 58 e3 ff ff 	addq   $0x1,-0x1ca8(%rbp)
    ecbe:	01 
    ecbf:	0f b7 05 0a 74 00 00 	movzwl 0x740a(%rip),%eax        # 160d0 <g_176>
    ecc6:	83 c0 01             	add    $0x1,%eax
    ecc9:	66 89 05 00 74 00 00 	mov    %ax,0x7400(%rip)        # 160d0 <g_176>
    ecd0:	eb 0c                	jmp    ecde <func_52+0x1ded>
    ecd2:	0f b7 05 f7 73 00 00 	movzwl 0x73f7(%rip),%eax        # 160d0 <g_176>
    ecd9:	e9 fe 02 00 00       	jmpq   efdc <func_52+0x20eb>
    ecde:	0f b7 05 eb 73 00 00 	movzwl 0x73eb(%rip),%eax        # 160d0 <g_176>
    ece5:	66 83 f8 02          	cmp    $0x2,%ax
    ece9:	0f 86 2c ee ff ff    	jbe    db1b <func_52+0xc2a>
    ecef:	48 8b 05 ea 73 00 00 	mov    0x73ea(%rip),%rax        # 160e0 <g_233>
    ecf6:	e9 e1 02 00 00       	jmpq   efdc <func_52+0x20eb>
    ecfb:	c6 05 06 c9 00 00 05 	movb   $0x5,0xc906(%rip)        # 1b608 <g_83>
    ed02:	e9 c0 02 00 00       	jmpq   efc7 <func_52+0x20d6>
    ed07:	c7 85 fc e2 ff ff a8 	movl   $0x7b2179a8,-0x1d04(%rbp)
    ed0e:	79 21 7b 
    ed11:	48 8d 05 a2 73 00 00 	lea    0x73a2(%rip),%rax        # 160ba <g_98>
    ed18:	48 89 85 c0 f7 ff ff 	mov    %rax,-0x840(%rbp)
    ed1f:	48 8d 05 94 73 00 00 	lea    0x7394(%rip),%rax        # 160ba <g_98>
    ed26:	48 89 85 c8 f7 ff ff 	mov    %rax,-0x838(%rbp)
    ed2d:	48 8d 05 86 73 00 00 	lea    0x7386(%rip),%rax        # 160ba <g_98>
    ed34:	48 89 85 d0 f7 ff ff 	mov    %rax,-0x830(%rbp)
    ed3b:	48 8d 05 78 73 00 00 	lea    0x7378(%rip),%rax        # 160ba <g_98>
    ed42:	48 89 85 d8 f7 ff ff 	mov    %rax,-0x828(%rbp)
    ed49:	48 8d 05 6a 73 00 00 	lea    0x736a(%rip),%rax        # 160ba <g_98>
    ed50:	48 89 85 e0 f7 ff ff 	mov    %rax,-0x820(%rbp)
    ed57:	48 8d 05 5c 73 00 00 	lea    0x735c(%rip),%rax        # 160ba <g_98>
    ed5e:	48 89 85 e8 f7 ff ff 	mov    %rax,-0x818(%rbp)
    ed65:	48 8d 05 4e 73 00 00 	lea    0x734e(%rip),%rax        # 160ba <g_98>
    ed6c:	48 89 85 f0 f7 ff ff 	mov    %rax,-0x810(%rbp)
    ed73:	48 8d 05 40 73 00 00 	lea    0x7340(%rip),%rax        # 160ba <g_98>
    ed7a:	48 89 85 f8 f7 ff ff 	mov    %rax,-0x808(%rbp)
    ed81:	48 8d 05 32 73 00 00 	lea    0x7332(%rip),%rax        # 160ba <g_98>
    ed88:	48 89 85 00 f8 ff ff 	mov    %rax,-0x800(%rbp)
    ed8f:	48 8d 05 24 73 00 00 	lea    0x7324(%rip),%rax        # 160ba <g_98>
    ed96:	48 89 85 08 f8 ff ff 	mov    %rax,-0x7f8(%rbp)
    ed9d:	48 8d 05 16 73 00 00 	lea    0x7316(%rip),%rax        # 160ba <g_98>
    eda4:	48 89 85 10 f8 ff ff 	mov    %rax,-0x7f0(%rbp)
    edab:	48 8d 05 08 73 00 00 	lea    0x7308(%rip),%rax        # 160ba <g_98>
    edb2:	48 89 85 18 f8 ff ff 	mov    %rax,-0x7e8(%rbp)
    edb9:	48 8d 05 fa 72 00 00 	lea    0x72fa(%rip),%rax        # 160ba <g_98>
    edc0:	48 89 85 20 f8 ff ff 	mov    %rax,-0x7e0(%rbp)
    edc7:	48 8d 05 ec 72 00 00 	lea    0x72ec(%rip),%rax        # 160ba <g_98>
    edce:	48 89 85 28 f8 ff ff 	mov    %rax,-0x7d8(%rbp)
    edd5:	48 8d 05 de 72 00 00 	lea    0x72de(%rip),%rax        # 160ba <g_98>
    eddc:	48 89 85 30 f8 ff ff 	mov    %rax,-0x7d0(%rbp)
    ede3:	48 8d 05 d0 72 00 00 	lea    0x72d0(%rip),%rax        # 160ba <g_98>
    edea:	48 89 85 38 f8 ff ff 	mov    %rax,-0x7c8(%rbp)
    edf1:	66 c7 85 d0 e2 ff ff 	movw   $0x9,-0x1d30(%rbp)
    edf8:	09 00 
    edfa:	48 c7 85 40 ed ff ff 	movq   $0x0,-0x12c0(%rbp)
    ee01:	00 00 00 00 
    ee05:	48 8d 85 28 e3 ff ff 	lea    -0x1cd8(%rbp),%rax
    ee0c:	48 89 85 48 ed ff ff 	mov    %rax,-0x12b8(%rbp)
    ee13:	48 8d 85 28 e3 ff ff 	lea    -0x1cd8(%rbp),%rax
    ee1a:	48 89 85 50 ed ff ff 	mov    %rax,-0x12b0(%rbp)
    ee21:	48 c7 85 58 ed ff ff 	movq   $0x0,-0x12a8(%rbp)
    ee28:	00 00 00 00 
    ee2c:	48 8d 85 28 e3 ff ff 	lea    -0x1cd8(%rbp),%rax
    ee33:	48 89 85 60 ed ff ff 	mov    %rax,-0x12a0(%rbp)
    ee3a:	48 8d 85 28 e3 ff ff 	lea    -0x1cd8(%rbp),%rax
    ee41:	48 89 85 68 ed ff ff 	mov    %rax,-0x1298(%rbp)
    ee48:	c7 85 00 e3 ff ff 03 	movl   $0xf83d03,-0x1d00(%rbp)
    ee4f:	3d f8 00 
    ee52:	48 c7 85 40 e3 ff ff 	movq   $0x0,-0x1cc0(%rbp)
    ee59:	00 00 00 00 
    ee5d:	48 8d 85 40 e3 ff ff 	lea    -0x1cc0(%rbp),%rax
    ee64:	48 89 85 48 e3 ff ff 	mov    %rax,-0x1cb8(%rbp)
    ee6b:	c7 85 d8 e2 ff ff 01 	movl   $0x1,-0x1d28(%rbp)
    ee72:	00 00 00 
    ee75:	48 8d 85 d8 e2 ff ff 	lea    -0x1d28(%rbp),%rax
    ee7c:	48 89 85 88 e3 ff ff 	mov    %rax,-0x1c78(%rbp)
    ee83:	c7 85 04 e3 ff ff 00 	movl   $0x0,-0x1cfc(%rbp)
    ee8a:	00 00 00 
    ee8d:	c7 85 08 e3 ff ff fe 	movl   $0x18fb4afe,-0x1cf8(%rbp)
    ee94:	4a fb 18 
    ee97:	c7 85 dc e2 ff ff fc 	movl   $0xfffffffc,-0x1d24(%rbp)
    ee9e:	ff ff ff 
    eea1:	c7 85 0c e3 ff ff bd 	movl   $0x7dd93abd,-0x1cf4(%rbp)
    eea8:	3a d9 7d 
    eeab:	48 8d 85 48 e3 ff ff 	lea    -0x1cb8(%rbp),%rax
    eeb2:	48 89 85 90 e3 ff ff 	mov    %rax,-0x1c70(%rbp)
    eeb9:	48 8d 85 dc e2 ff ff 	lea    -0x1d24(%rbp),%rax
    eec0:	48 89 85 98 e3 ff ff 	mov    %rax,-0x1c68(%rbp)
    eec7:	48 c7 85 a0 e3 ff ff 	movq   $0x0,-0x1c60(%rbp)
    eece:	00 00 00 00 
    eed2:	48 c7 85 40 f0 ff ff 	movq   $0x0,-0xfc0(%rbp)
    eed9:	00 00 00 00 
    eedd:	48 c7 85 48 f0 ff ff 	movq   $0x0,-0xfb8(%rbp)
    eee4:	00 00 00 00 
    eee8:	48 c7 85 50 f0 ff ff 	movq   $0x0,-0xfb0(%rbp)
    eeef:	00 00 00 00 
    eef3:	48 c7 85 58 f0 ff ff 	movq   $0x0,-0xfa8(%rbp)
    eefa:	00 00 00 00 
    eefe:	48 c7 85 60 f0 ff ff 	movq   $0x0,-0xfa0(%rbp)
    ef05:	00 00 00 00 
    ef09:	48 c7 85 68 f0 ff ff 	movq   $0x0,-0xf98(%rbp)
    ef10:	00 00 00 00 
    ef14:	48 c7 85 70 f0 ff ff 	movq   $0x0,-0xf90(%rbp)
    ef1b:	00 00 00 00 
    ef1f:	48 c7 85 78 f0 ff ff 	movq   $0x0,-0xf88(%rbp)
    ef26:	00 00 00 00 
    ef2a:	48 8d 85 40 f0 ff ff 	lea    -0xfc0(%rbp),%rax
    ef31:	48 83 c0 30          	add    $0x30,%rax
    ef35:	48 89 85 a8 e3 ff ff 	mov    %rax,-0x1c58(%rbp)
    ef3c:	48 8d 05 55 b4 00 00 	lea    0xb455(%rip),%rax        # 1a398 <g_428>
    ef43:	48 89 85 50 e3 ff ff 	mov    %rax,-0x1cb0(%rbp)
    ef4a:	48 8d 85 50 e3 ff ff 	lea    -0x1cb0(%rbp),%rax
    ef51:	48 89 85 b0 e3 ff ff 	mov    %rax,-0x1c50(%rbp)
    ef58:	c7 85 ec e2 ff ff 00 	movl   $0x0,-0x1d14(%rbp)
    ef5f:	00 00 00 
    ef62:	eb 1a                	jmp    ef7e <func_52+0x208d>
    ef64:	8b 85 ec e2 ff ff    	mov    -0x1d14(%rbp),%eax
    ef6a:	48 98                	cltq   
    ef6c:	c7 84 85 b0 ea ff ff 	movl   $0x4b4b19af,-0x1550(%rbp,%rax,4)
    ef73:	af 19 4b 4b 
    ef77:	83 85 ec e2 ff ff 01 	addl   $0x1,-0x1d14(%rbp)
    ef7e:	83 bd ec e2 ff ff 06 	cmpl   $0x6,-0x1d14(%rbp)
    ef85:	7e dd                	jle    ef64 <func_52+0x2073>
    ef87:	c7 85 ec e2 ff ff 00 	movl   $0x0,-0x1d14(%rbp)
    ef8e:	00 00 00 
    ef91:	eb 1b                	jmp    efae <func_52+0x20bd>
    ef93:	8b 85 ec e2 ff ff    	mov    -0x1d14(%rbp),%eax
    ef99:	48 98                	cltq   
    ef9b:	48 c7 84 c5 70 e9 ff 	movq   $0x0,-0x1690(%rbp,%rax,8)
    efa2:	ff 00 00 00 00 
    efa7:	83 85 ec e2 ff ff 01 	addl   $0x1,-0x1d14(%rbp)
    efae:	83 bd ec e2 ff ff 00 	cmpl   $0x0,-0x1d14(%rbp)
    efb5:	7e dc                	jle    ef93 <func_52+0x20a2>
    efb7:	0f b6 05 4a c6 00 00 	movzbl 0xc64a(%rip),%eax        # 1b608 <g_83>
    efbe:	83 e8 01             	sub    $0x1,%eax
    efc1:	88 05 41 c6 00 00    	mov    %al,0xc641(%rip)        # 1b608 <g_83>
    efc7:	0f b6 05 3a c6 00 00 	movzbl 0xc63a(%rip),%eax        # 1b608 <g_83>
    efce:	84 c0                	test   %al,%al
    efd0:	0f 8f 31 fd ff ff    	jg     ed07 <func_52+0x1e16>
    efd6:	8b 05 98 43 00 00    	mov    0x4398(%rip),%eax        # 13374 <l_514.4574+0x1d4>
    efdc:	48 8b 5d c8          	mov    -0x38(%rbp),%rbx
    efe0:	64 48 33 1c 25 28 00 	xor    %fs:0x28,%rbx
    efe7:	00 00 
    efe9:	74 05                	je     eff0 <func_52+0x20ff>
    efeb:	e8 80 a0 ff ff       	callq  9070 <__stack_chk_fail@plt>
    eff0:	48 81 c4 38 1d 00 00 	add    $0x1d38,%rsp
    eff7:	5b                   	pop    %rbx
    eff8:	41 5c                	pop    %r12
    effa:	41 5d                	pop    %r13
    effc:	41 5e                	pop    %r14
    effe:	41 5f                	pop    %r15
    f000:	5d                   	pop    %rbp
    f001:	c3                   	retq   

000000000000f002 <func_58>:
    f002:	f3 0f 1e fa          	endbr64 
    f006:	55                   	push   %rbp
    f007:	48 89 e5             	mov    %rsp,%rbp
    f00a:	48 89 7d f8          	mov    %rdi,-0x8(%rbp)
    f00e:	48 89 75 f0          	mov    %rsi,-0x10(%rbp)
    f012:	48 8d 05 8b 70 00 00 	lea    0x708b(%rip),%rax        # 160a4 <g_3+0x64>
    f019:	5d                   	pop    %rbp
    f01a:	c3                   	retq   

000000000000f01b <func_61>:
    f01b:	f3 0f 1e fa          	endbr64 
    f01f:	55                   	push   %rbp
    f020:	48 89 e5             	mov    %rsp,%rbp
    f023:	89 f9                	mov    %edi,%ecx
    f025:	48 89 75 f0          	mov    %rsi,-0x10(%rbp)
    f029:	89 d0                	mov    %edx,%eax
    f02b:	89 ca                	mov    %ecx,%edx
    f02d:	88 55 fc             	mov    %dl,-0x4(%rbp)
    f030:	66 89 45 f8          	mov    %ax,-0x8(%rbp)
    f034:	48 8b 05 cd ad 00 00 	mov    0xadcd(%rip),%rax        # 19e08 <g_131>
    f03b:	0f b6 00             	movzbl (%rax),%eax
    f03e:	5d                   	pop    %rbp
    f03f:	c3                   	retq   

000000000000f040 <func_65>:
    f040:	f3 0f 1e fa          	endbr64 
    f044:	55                   	push   %rbp
    f045:	48 89 e5             	mov    %rsp,%rbp
    f048:	41 56                	push   %r14
    f04a:	41 55                	push   %r13
    f04c:	41 54                	push   %r12
    f04e:	53                   	push   %rbx
    f04f:	48 81 ec 30 07 00 00 	sub    $0x730,%rsp
    f056:	89 bd cc f8 ff ff    	mov    %edi,-0x734(%rbp)
    f05c:	48 89 b5 c0 f8 ff ff 	mov    %rsi,-0x740(%rbp)
    f063:	48 89 95 b8 f8 ff ff 	mov    %rdx,-0x748(%rbp)
    f06a:	48 89 8d b0 f8 ff ff 	mov    %rcx,-0x750(%rbp)
    f071:	64 48 8b 04 25 28 00 	mov    %fs:0x28,%rax
    f078:	00 00 
    f07a:	48 89 45 d8          	mov    %rax,-0x28(%rbp)
    f07e:	31 c0                	xor    %eax,%eax
    f080:	c6 85 d6 f8 ff ff 01 	movb   $0x1,-0x72a(%rbp)
    f087:	48 8d 85 00 fa ff ff 	lea    -0x600(%rbp),%rax
    f08e:	48 8d 15 8b a7 00 00 	lea    0xa78b(%rip),%rdx        # 19820 <g_3238+0x1c30>
    f095:	b9 24 00 00 00       	mov    $0x24,%ecx
    f09a:	48 89 c7             	mov    %rax,%rdi
    f09d:	48 89 d6             	mov    %rdx,%rsi
    f0a0:	f3 48 a5             	rep movsq %ds:(%rsi),%es:(%rdi)
    f0a3:	48 b8 42 bd 69 93 42 	movabs $0x413a7e429369bd42,%rax
    f0aa:	7e 3a 41 
    f0ad:	48 89 85 d8 f8 ff ff 	mov    %rax,-0x728(%rbp)
    f0b4:	48 8d 05 01 70 00 00 	lea    0x7001(%rip),%rax        # 160bc <g_118>
    f0bb:	48 89 85 e8 f8 ff ff 	mov    %rax,-0x718(%rbp)
    f0c2:	48 8d 05 41 c5 00 00 	lea    0xc541(%rip),%rax        # 1b60a <g_145>
    f0c9:	48 89 85 f0 f8 ff ff 	mov    %rax,-0x710(%rbp)
    f0d0:	48 8d 05 31 ad 00 00 	lea    0xad31(%rip),%rax        # 19e08 <g_131>
    f0d7:	48 89 85 e0 f8 ff ff 	mov    %rax,-0x720(%rbp)
    f0de:	48 8d 85 e0 f8 ff ff 	lea    -0x720(%rbp),%rax
    f0e5:	48 89 85 f8 f8 ff ff 	mov    %rax,-0x708(%rbp)
    f0ec:	48 8d 05 d6 6f 00 00 	lea    0x6fd6(%rip),%rax        # 160c9 <g_157>
    f0f3:	48 89 85 00 f9 ff ff 	mov    %rax,-0x700(%rbp)
    f0fa:	48 8d 85 d8 f8 ff ff 	lea    -0x728(%rbp),%rax
    f101:	48 89 85 08 f9 ff ff 	mov    %rax,-0x6f8(%rbp)
    f108:	c6 85 d7 f8 ff ff 00 	movb   $0x0,-0x729(%rbp)
    f10f:	48 8d 85 20 fb ff ff 	lea    -0x4e0(%rbp),%rax
    f116:	48 8d 15 23 a8 00 00 	lea    0xa823(%rip),%rdx        # 19940 <g_3238+0x1d50>
    f11d:	b9 96 00 00 00       	mov    $0x96,%ecx
    f122:	48 89 c7             	mov    %rax,%rdi
    f125:	48 89 d6             	mov    %rdx,%rsi
    f128:	f3 48 a5             	rep movsq %ds:(%rsi),%es:(%rdi)
    f12b:	66 c7 85 20 f9 ff ff 	movw   $0x3e,-0x6e0(%rbp)
    f132:	3e 00 
    f134:	c6 85 22 f9 ff ff 0a 	movb   $0xa,-0x6de(%rbp)
    f13b:	66 c7 85 23 f9 ff ff 	movw   $0xaec0,-0x6dd(%rbp)
    f142:	c0 ae 
    f144:	c6 85 25 f9 ff ff a0 	movb   $0xa0,-0x6db(%rbp)
    f14b:	66 c7 85 26 f9 ff ff 	movw   $0x6fde,-0x6da(%rbp)
    f152:	de 6f 
    f154:	c6 85 28 f9 ff ff 85 	movb   $0x85,-0x6d8(%rbp)
    f15b:	66 c7 85 29 f9 ff ff 	movw   $0x6fa7,-0x6d7(%rbp)
    f162:	a7 6f 
    f164:	c6 85 2b f9 ff ff 01 	movb   $0x1,-0x6d5(%rbp)
    f16b:	66 c7 85 2c f9 ff ff 	movw   $0xae91,-0x6d4(%rbp)
    f172:	91 ae 
    f174:	c6 85 2e f9 ff ff 00 	movb   $0x0,-0x6d2(%rbp)
    f17b:	66 c7 85 2f f9 ff ff 	movw   $0x0,-0x6d1(%rbp)
    f182:	00 00 
    f184:	c6 85 31 f9 ff ff de 	movb   $0xde,-0x6cf(%rbp)
    f18b:	66 c7 85 32 f9 ff ff 	movw   $0xff0c,-0x6ce(%rbp)
    f192:	0c ff 
    f194:	c6 85 34 f9 ff ff 01 	movb   $0x1,-0x6cc(%rbp)
    f19b:	66 c7 85 35 f9 ff ff 	movw   $0xffff,-0x6cb(%rbp)
    f1a2:	ff ff 
    f1a4:	c6 85 37 f9 ff ff 00 	movb   $0x0,-0x6c9(%rbp)
    f1ab:	66 c7 85 38 f9 ff ff 	movw   $0x600,-0x6c8(%rbp)
    f1b2:	00 06 
    f1b4:	c6 85 3a f9 ff ff 00 	movb   $0x0,-0x6c6(%rbp)
    f1bb:	66 c7 85 3b f9 ff ff 	movw   $0xfe91,-0x6c5(%rbp)
    f1c2:	91 fe 
    f1c4:	c6 85 3d f9 ff ff c1 	movb   $0xc1,-0x6c3(%rbp)
    f1cb:	66 c7 85 3e f9 ff ff 	movw   $0x400,-0x6c2(%rbp)
    f1d2:	00 04 
    f1d4:	c6 85 40 f9 ff ff ff 	movb   $0xff,-0x6c0(%rbp)
    f1db:	66 c7 85 41 f9 ff ff 	movw   $0x101,-0x6bf(%rbp)
    f1e2:	01 01 
    f1e4:	c6 85 43 f9 ff ff 0a 	movb   $0xa,-0x6bd(%rbp)
    f1eb:	66 c7 85 44 f9 ff ff 	movw   $0xdbae,-0x6bc(%rbp)
    f1f2:	ae db 
    f1f4:	c6 85 46 f9 ff ff 00 	movb   $0x0,-0x6ba(%rbp)
    f1fb:	66 c7 85 47 f9 ff ff 	movw   $0x6f01,-0x6b9(%rbp)
    f202:	01 6f 
    f204:	c6 85 49 f9 ff ff a7 	movb   $0xa7,-0x6b7(%rbp)
    f20b:	66 c7 85 4a f9 ff ff 	movw   $0xa000,-0x6b6(%rbp)
    f212:	00 a0 
    f214:	c6 85 4c f9 ff ff f7 	movb   $0xf7,-0x6b4(%rbp)
    f21b:	66 c7 85 4d f9 ff ff 	movw   $0xff91,-0x6b3(%rbp)
    f222:	91 ff 
    f224:	c6 85 4f f9 ff ff ae 	movb   $0xae,-0x6b1(%rbp)
    f22b:	66 c7 85 50 f9 ff ff 	movw   $0x100,-0x6b0(%rbp)
    f232:	00 01 
    f234:	c6 85 52 f9 ff ff de 	movb   $0xde,-0x6ae(%rbp)
    f23b:	66 c7 85 53 f9 ff ff 	movw   $0xffff,-0x6ad(%rbp)
    f242:	ff ff 
    f244:	c6 85 55 f9 ff ff 85 	movb   $0x85,-0x6ab(%rbp)
    f24b:	66 c7 85 56 f9 ff ff 	movw   $0xff0c,-0x6aa(%rbp)
    f252:	0c ff 
    f254:	c6 85 58 f9 ff ff 66 	movb   $0x66,-0x6a8(%rbp)
    f25b:	66 c7 85 59 f9 ff ff 	movw   $0x100,-0x6a7(%rbp)
    f262:	00 01 
    f264:	c6 85 5b f9 ff ff 08 	movb   $0x8,-0x6a5(%rbp)
    f26b:	66 c7 85 5c f9 ff ff 	movw   $0x691,-0x6a4(%rbp)
    f272:	91 06 
    f274:	c6 85 5e f9 ff ff ff 	movb   $0xff,-0x6a2(%rbp)
    f27b:	66 c7 85 5f f9 ff ff 	movw   $0xffa7,-0x6a1(%rbp)
    f282:	a7 ff 
    f284:	c6 85 61 f9 ff ff ff 	movb   $0xff,-0x69f(%rbp)
    f28b:	66 c7 85 62 f9 ff ff 	movw   $0xffde,-0x69e(%rbp)
    f292:	de ff 
    f294:	c6 85 64 f9 ff ff 08 	movb   $0x8,-0x69c(%rbp)
    f29b:	66 c7 85 65 f9 ff ff 	movw   $0xdbc0,-0x69b(%rbp)
    f2a2:	c0 db 
    f2a4:	c6 85 67 f9 ff ff 66 	movb   $0x66,-0x699(%rbp)
    f2ab:	66 c7 85 68 f9 ff ff 	movw   $0xa03e,-0x698(%rbp)
    f2b2:	3e a0 
    f2b4:	c6 85 6a f9 ff ff 85 	movb   $0x85,-0x696(%rbp)
    f2bb:	66 c7 85 6b f9 ff ff 	movw   $0x9100,-0x695(%rbp)
    f2c2:	00 91 
    f2c4:	c6 85 6d f9 ff ff de 	movb   $0xde,-0x693(%rbp)
    f2cb:	66 c7 85 6e f9 ff ff 	movw   $0xae66,-0x692(%rbp)
    f2d2:	66 ae 
    f2d4:	c6 85 70 f9 ff ff ae 	movb   $0xae,-0x690(%rbp)
    f2db:	66 c7 85 71 f9 ff ff 	movw   $0xff0a,-0x68f(%rbp)
    f2e2:	0a ff 
    f2e4:	c6 85 73 f9 ff ff f7 	movb   $0xf7,-0x68d(%rbp)
    f2eb:	66 c7 85 74 f9 ff ff 	movw   $0xff0c,-0x68c(%rbp)
    f2f2:	0c ff 
    f2f4:	c6 85 76 f9 ff ff a7 	movb   $0xa7,-0x68a(%rbp)
    f2fb:	66 c7 85 77 f9 ff ff 	movw   $0xfe33,-0x689(%rbp)
    f302:	33 fe 
    f304:	c6 85 79 f9 ff ff db 	movb   $0xdb,-0x687(%rbp)
    f30b:	66 c7 85 7a f9 ff ff 	movw   $0x39fe,-0x686(%rbp)
    f312:	fe 39 
    f314:	c6 85 7c f9 ff ff 3c 	movb   $0x3c,-0x684(%rbp)
    f31b:	66 c7 85 7d f9 ff ff 	movw   $0x6600,-0x683(%rbp)
    f322:	00 66 
    f324:	c6 85 7f f9 ff ff 00 	movb   $0x0,-0x681(%rbp)
    f32b:	66 c7 85 80 f9 ff ff 	movw   $0x3e91,-0x680(%rbp)
    f332:	91 3e 
    f334:	c6 85 82 f9 ff ff f8 	movb   $0xf8,-0x67e(%rbp)
    f33b:	66 c7 85 83 f9 ff ff 	movw   $0x34c1,-0x67d(%rbp)
    f342:	c1 34 
    f344:	c6 85 85 f9 ff ff 00 	movb   $0x0,-0x67b(%rbp)
    f34b:	66 c7 85 86 f9 ff ff 	movw   $0x2203,-0x67a(%rbp)
    f352:	03 22 
    f354:	c6 85 88 f9 ff ff db 	movb   $0xdb,-0x678(%rbp)
    f35b:	66 c7 85 89 f9 ff ff 	movw   $0xaeff,-0x677(%rbp)
    f362:	ff ae 
    f364:	c6 85 8b f9 ff ff 91 	movb   $0x91,-0x675(%rbp)
    f36b:	66 c7 85 8c f9 ff ff 	movw   $0xc0f6,-0x674(%rbp)
    f372:	f6 c0 
    f374:	c6 85 8e f9 ff ff 0c 	movb   $0xc,-0x672(%rbp)
    f37b:	66 c7 85 8f f9 ff ff 	movw   $0x75c0,-0x671(%rbp)
    f382:	c0 75 
    f384:	c6 85 91 f9 ff ff 16 	movb   $0x16,-0x66f(%rbp)
    f38b:	66 c7 85 92 f9 ff ff 	movw   $0x3400,-0x66e(%rbp)
    f392:	00 34 
    f394:	c6 85 94 f9 ff ff c1 	movb   $0xc1,-0x66c(%rbp)
    f39b:	66 c7 85 95 f9 ff ff 	movw   $0x10a,-0x66b(%rbp)
    f3a2:	0a 01 
    f3a4:	c6 85 97 f9 ff ff 06 	movb   $0x6,-0x669(%rbp)
    f3ab:	66 c7 85 98 f9 ff ff 	movw   $0xa00a,-0x668(%rbp)
    f3b2:	0a a0 
    f3b4:	c6 85 9a f9 ff ff c0 	movb   $0xc0,-0x666(%rbp)
    f3bb:	66 c7 85 9b f9 ff ff 	movw   $0x200,-0x665(%rbp)
    f3c2:	00 02 
    f3c4:	c6 85 9d f9 ff ff 3c 	movb   $0x3c,-0x663(%rbp)
    f3cb:	66 c7 85 9e f9 ff ff 	movw   $0x91c0,-0x662(%rbp)
    f3d2:	c0 91 
    f3d4:	c6 85 a0 f9 ff ff f8 	movb   $0xf8,-0x660(%rbp)
    f3db:	66 c7 85 a1 f9 ff ff 	movw   $0x3ef6,-0x65f(%rbp)
    f3e2:	f6 3e 
    f3e4:	c6 85 a3 f9 ff ff 08 	movb   $0x8,-0x65d(%rbp)
    f3eb:	66 c7 85 a4 f9 ff ff 	movw   $0x91ff,-0x65c(%rbp)
    f3f2:	ff 91 
    f3f4:	c6 85 a6 f9 ff ff ff 	movb   $0xff,-0x65a(%rbp)
    f3fb:	66 c7 85 a7 f9 ff ff 	movw   $0x303,-0x659(%rbp)
    f402:	03 03 
    f404:	c6 85 a9 f9 ff ff c0 	movb   $0xc0,-0x657(%rbp)
    f40b:	66 c7 85 aa f9 ff ff 	movw   $0xc0c1,-0x656(%rbp)
    f412:	c1 c0 
    f414:	c6 85 ac f9 ff ff 91 	movb   $0x91,-0x654(%rbp)
    f41b:	66 c7 85 ad f9 ff ff 	movw   $0xff91,-0x653(%rbp)
    f422:	91 ff 
    f424:	c6 85 af f9 ff ff 00 	movb   $0x0,-0x651(%rbp)
    f42b:	66 c7 85 b0 f9 ff ff 	movw   $0x7500,-0x650(%rbp)
    f432:	00 75 
    f434:	c6 85 b2 f9 ff ff 01 	movb   $0x1,-0x64e(%rbp)
    f43b:	66 c7 85 b3 f9 ff ff 	movw   $0x91fe,-0x64d(%rbp)
    f442:	fe 91 
    f444:	c6 85 b5 f9 ff ff 00 	movb   $0x0,-0x64b(%rbp)
    f44b:	66 c7 85 b6 f9 ff ff 	movw   $0xde0a,-0x64a(%rbp)
    f452:	0a de 
    f454:	c6 85 b8 f9 ff ff 91 	movb   $0x91,-0x648(%rbp)
    f45b:	66 c7 85 b9 f9 ff ff 	movw   $0x6608,-0x647(%rbp)
    f462:	08 66 
    f464:	c6 85 bb f9 ff ff c0 	movb   $0xc0,-0x645(%rbp)
    f46b:	66 c7 85 bc f9 ff ff 	movw   $0xf93c,-0x644(%rbp)
    f472:	3c f9 
    f474:	c6 85 be f9 ff ff ff 	movb   $0xff,-0x642(%rbp)
    f47b:	66 c7 85 bf f9 ff ff 	movw   $0x9100,-0x641(%rbp)
    f482:	00 91 
    f484:	c6 85 c1 f9 ff ff 08 	movb   $0x8,-0x63f(%rbp)
    f48b:	66 c7 85 c2 f9 ff ff 	movw   $0x101,-0x63e(%rbp)
    f492:	01 01 
    f494:	c6 85 c4 f9 ff ff f8 	movb   $0xf8,-0x63c(%rbp)
    f49b:	66 c7 85 c5 f9 ff ff 	movw   $0x1ff,-0x63b(%rbp)
    f4a2:	ff 01 
    f4a4:	c6 85 c7 f9 ff ff 3c 	movb   $0x3c,-0x639(%rbp)
    f4ab:	66 c7 85 c8 f9 ff ff 	movw   $0x2201,-0x638(%rbp)
    f4b2:	01 22 
    f4b4:	c6 85 ca f9 ff ff c0 	movb   $0xc0,-0x636(%rbp)
    f4bb:	66 c7 85 cb f9 ff ff 	movw   $0xff0c,-0x635(%rbp)
    f4c2:	0c ff 
    f4c4:	c6 85 cd f9 ff ff 06 	movb   $0x6,-0x633(%rbp)
    f4cb:	66 c7 85 ce f9 ff ff 	movw   $0xfff6,-0x632(%rbp)
    f4d2:	f6 ff 
    f4d4:	c6 85 d0 f9 ff ff c1 	movb   $0xc1,-0x630(%rbp)
    f4db:	66 c7 85 d1 f9 ff ff 	movw   $0x22ae,-0x62f(%rbp)
    f4e2:	ae 22 
    f4e4:	c6 85 d3 f9 ff ff 16 	movb   $0x16,-0x62d(%rbp)
    f4eb:	66 c7 85 d4 f9 ff ff 	movw   $0x1fe,-0x62c(%rbp)
    f4f2:	fe 01 
    f4f4:	c6 85 d6 f9 ff ff 0c 	movb   $0xc,-0x62a(%rbp)
    f4fb:	66 c7 85 d7 f9 ff ff 	movw   $0x108,-0x629(%rbp)
    f502:	08 01 
    f504:	c6 85 d9 f9 ff ff 91 	movb   $0x91,-0x627(%rbp)
    f50b:	66 c7 85 da f9 ff ff 	movw   $0x9100,-0x626(%rbp)
    f512:	00 91 
    f514:	c6 85 dc f9 ff ff db 	movb   $0xdb,-0x624(%rbp)
    f51b:	66 c7 85 dd f9 ff ff 	movw   $0xf900,-0x623(%rbp)
    f522:	00 f9 
    f524:	c6 85 df f9 ff ff 00 	movb   $0x0,-0x621(%rbp)
    f52b:	66 c7 85 e0 f9 ff ff 	movw   $0x66ae,-0x620(%rbp)
    f532:	ae 66 
    f534:	c6 85 e2 f9 ff ff f8 	movb   $0xf8,-0x61e(%rbp)
    f53b:	66 c7 85 e3 f9 ff ff 	movw   $0xde01,-0x61d(%rbp)
    f542:	01 de 
    f544:	c6 85 e5 f9 ff ff 00 	movb   $0x0,-0x61b(%rbp)
    f54b:	66 c7 85 e6 f9 ff ff 	movw   $0x91c1,-0x61a(%rbp)
    f552:	c1 91 
    f554:	c6 85 e8 f9 ff ff 3c 	movb   $0x3c,-0x618(%rbp)
    f55b:	66 c7 85 e9 f9 ff ff 	movw   $0x7522,-0x617(%rbp)
    f562:	22 75 
    f564:	c6 85 eb f9 ff ff db 	movb   $0xdb,-0x615(%rbp)
    f56b:	66 c7 85 ec f9 ff ff 	movw   $0xffc1,-0x614(%rbp)
    f572:	c1 ff 
    f574:	c6 85 ee f9 ff ff f6 	movb   $0xf6,-0x612(%rbp)
    f57b:	66 c7 85 ef f9 ff ff 	movw   $0xc001,-0x611(%rbp)
    f582:	01 c0 
    f584:	c6 85 f1 f9 ff ff 00 	movb   $0x0,-0x60f(%rbp)
    f58b:	66 c7 85 f2 f9 ff ff 	movw   $0x3ae,-0x60e(%rbp)
    f592:	ae 03 
    f594:	c6 85 f4 f9 ff ff 22 	movb   $0x22,-0x60c(%rbp)
    f59b:	66 c7 85 f5 f9 ff ff 	movw   $0x9100,-0x60b(%rbp)
    f5a2:	00 91 
    f5a4:	c6 85 f7 f9 ff ff 0c 	movb   $0xc,-0x609(%rbp)
    f5ab:	48 8d 05 08 6b 00 00 	lea    0x6b08(%rip),%rax        # 160ba <g_98>
    f5b2:	48 89 85 10 f9 ff ff 	mov    %rax,-0x6f0(%rbp)
    f5b9:	48 8d 05 98 a8 00 00 	lea    0xa898(%rip),%rax        # 19e58 <g_179>
    f5c0:	48 89 85 18 f9 ff ff 	mov    %rax,-0x6e8(%rbp)
    f5c7:	48 8b 85 d8 f8 ff ff 	mov    -0x728(%rbp),%rax
    f5ce:	48 83 e8 01          	sub    $0x1,%rax
    f5d2:	48 89 85 d8 f8 ff ff 	mov    %rax,-0x728(%rbp)
    f5d9:	8b 85 cc f8 ff ff    	mov    -0x734(%rbp),%eax
    f5df:	0f b6 d8             	movzbl %al,%ebx
    f5e2:	48 8b 85 e8 f8 ff ff 	mov    -0x718(%rbp),%rax
    f5e9:	c6 00 00             	movb   $0x0,(%rax)
    f5ec:	48 8b 85 f0 f8 ff ff 	mov    -0x710(%rbp),%rax
    f5f3:	66 c7 00 00 00       	movw   $0x0,(%rax)
    f5f8:	48 8b 85 f0 f8 ff ff 	mov    -0x710(%rbp),%rax
    f5ff:	0f b7 00             	movzwl (%rax),%eax
    f602:	4c 0f bf e0          	movswq %ax,%r12
    f606:	48 8b 85 f8 f8 ff ff 	mov    -0x708(%rbp),%rax
    f60d:	48 8d 95 c0 f8 ff ff 	lea    -0x740(%rbp),%rdx
    f614:	48 89 10             	mov    %rdx,(%rax)
    f617:	48 8b 85 f8 f8 ff ff 	mov    -0x708(%rbp),%rax
    f61e:	48 8b 00             	mov    (%rax),%rax
    f621:	48 8d 15 e0 a7 00 00 	lea    0xa7e0(%rip),%rdx        # 19e08 <g_131>
    f628:	48 39 d0             	cmp    %rdx,%rax
    f62b:	0f 95 c0             	setne  %al
    f62e:	0f b6 c0             	movzbl %al,%eax
    f631:	be 05 00 00 00       	mov    $0x5,%esi
    f636:	89 c7                	mov    %eax,%edi
    f638:	e8 55 9e ff ff       	callq  9492 <safe_lshift_func_int16_t_s_s>
    f63d:	48 0f bf c0          	movswq %ax,%rax
    f641:	0f b7 c0             	movzwl %ax,%eax
    f644:	49 39 c4             	cmp    %rax,%r12
    f647:	0f 92 c0             	setb   %al
    f64a:	41 89 c6             	mov    %eax,%r14d
    f64d:	0f b6 05 b4 bf 00 00 	movzbl 0xbfb4(%rip),%eax        # 1b608 <g_83>
    f654:	44 0f be e0          	movsbl %al,%r12d
    f658:	48 8b 05 a9 a7 00 00 	mov    0xa7a9(%rip),%rax        # 19e08 <g_131>
    f65f:	0f b6 00             	movzbl (%rax),%eax
    f662:	44 0f b6 e8          	movzbl %al,%r13d
    f666:	8b 05 38 6a 00 00    	mov    0x6a38(%rip),%eax        # 160a4 <g_3+0x64>
    f66c:	48 63 d0             	movslq %eax,%rdx
    f66f:	48 8b 85 e8 f8 ff ff 	mov    -0x718(%rbp),%rax
    f676:	48 89 85 00 f9 ff ff 	mov    %rax,-0x700(%rbp)
    f67d:	48 8b 85 b0 f8 ff ff 	mov    -0x750(%rbp),%rax
    f684:	0f b6 00             	movzbl (%rax),%eax
    f687:	83 f0 07             	xor    $0x7,%eax
    f68a:	48 0f be c8          	movsbq %al,%rcx
    f68e:	48 8b 85 08 f9 ff ff 	mov    -0x6f8(%rbp),%rax
    f695:	48 89 08             	mov    %rcx,(%rax)
    f698:	48 8b 85 08 f9 ff ff 	mov    -0x6f8(%rbp),%rax
    f69f:	48 8b 00             	mov    (%rax),%rax
    f6a2:	48 89 d6             	mov    %rdx,%rsi
    f6a5:	48 89 c7             	mov    %rax,%rdi
    f6a8:	e8 9e a9 ff ff       	callq  a04b <safe_sub_func_uint64_t_u_u>
    f6ad:	0f b6 c0             	movzbl %al,%eax
    f6b0:	83 e0 01             	and    $0x1,%eax
    f6b3:	44 89 ee             	mov    %r13d,%esi
    f6b6:	89 c7                	mov    %eax,%edi
    f6b8:	e8 f1 a4 ff ff       	callq  9bae <safe_mod_func_uint8_t_u_u>
    f6bd:	0f b6 c0             	movzbl %al,%eax
    f6c0:	33 85 cc f8 ff ff    	xor    -0x734(%rbp),%eax
    f6c6:	44 89 e6             	mov    %r12d,%esi
    f6c9:	89 c7                	mov    %eax,%edi
    f6cb:	e8 e6 9e ff ff       	callq  95b6 <safe_add_func_int32_t_s_s>
    f6d0:	44 21 f0             	and    %r14d,%eax
    f6d3:	0f b6 c0             	movzbl %al,%eax
    f6d6:	89 de                	mov    %ebx,%esi
    f6d8:	89 c7                	mov    %eax,%edi
    f6da:	e8 99 a4 ff ff       	callq  9b78 <safe_sub_func_uint8_t_u_u>
    f6df:	30 85 d7 f8 ff ff    	xor    %al,-0x729(%rbp)
    f6e5:	8b 05 b9 69 00 00    	mov    0x69b9(%rip),%eax        # 160a4 <g_3+0x64>
    f6eb:	0f bf d0             	movswl %ax,%edx
    f6ee:	8b 85 cc f8 ff ff    	mov    -0x734(%rbp),%eax
    f6f4:	98                   	cwtl   
    f6f5:	89 d6                	mov    %edx,%esi
    f6f7:	89 c7                	mov    %eax,%edi
    f6f9:	e8 f7 9c ff ff       	callq  93f5 <safe_mul_func_int16_t_s_s>
    f6fe:	8b 85 cc f8 ff ff    	mov    -0x734(%rbp),%eax
    f704:	98                   	cwtl   
    f705:	be 01 00 00 00       	mov    $0x1,%esi
    f70a:	89 c7                	mov    %eax,%edi
    f70c:	e8 81 9d ff ff       	callq  9492 <safe_lshift_func_int16_t_s_s>
    f711:	0f b7 d0             	movzwl %ax,%edx
    f714:	0f b6 05 a1 69 00 00 	movzbl 0x69a1(%rip),%eax        # 160bc <g_118>
    f71b:	0f b6 c0             	movzbl %al,%eax
    f71e:	89 d6                	mov    %edx,%esi
    f720:	89 c7                	mov    %eax,%edi
    f722:	e8 d8 a5 ff ff       	callq  9cff <safe_add_func_uint16_t_u_u>
    f727:	be 00 00 00 00       	mov    $0x0,%esi
    f72c:	bf 01 00 00 00       	mov    $0x1,%edi
    f731:	e8 bc 9a ff ff       	callq  91f2 <safe_sub_func_int8_t_s_s>
    f736:	48 8b 95 b0 f8 ff ff 	mov    -0x750(%rbp),%rdx
    f73d:	0f b6 12             	movzbl (%rdx),%edx
    f740:	21 d0                	and    %edx,%eax
    f742:	0f be c0             	movsbl %al,%eax
    f745:	89 05 81 69 00 00    	mov    %eax,0x6981(%rip)        # 160cc <g_175>
    f74b:	8b 05 7b 69 00 00    	mov    0x697b(%rip),%eax        # 160cc <g_175>
    f751:	89 c2                	mov    %eax,%edx
    f753:	0f b7 05 76 69 00 00 	movzwl 0x6976(%rip),%eax        # 160d0 <g_176>
    f75a:	31 d0                	xor    %edx,%eax
    f75c:	66 89 05 6d 69 00 00 	mov    %ax,0x696d(%rip)        # 160d0 <g_176>
    f763:	0f b7 05 66 69 00 00 	movzwl 0x6966(%rip),%eax        # 160d0 <g_176>
    f76a:	66 85 c0             	test   %ax,%ax
    f76d:	0f 95 c0             	setne  %al
    f770:	0f b6 c0             	movzbl %al,%eax
    f773:	89 c6                	mov    %eax,%esi
    f775:	bf be 00 00 00       	mov    $0xbe,%edi
    f77a:	e8 cd a4 ff ff       	callq  9c4c <safe_lshift_func_uint8_t_u_u>
    f77f:	0f b6 85 d1 f9 ff ff 	movzbl -0x62f(%rbp),%eax
    f786:	0f be d0             	movsbl %al,%edx
    f789:	48 8b 85 10 f9 ff ff 	mov    -0x6f0(%rbp),%rax
    f790:	0f b7 00             	movzwl (%rax),%eax
    f793:	89 c1                	mov    %eax,%ecx
    f795:	89 d0                	mov    %edx,%eax
    f797:	31 c8                	xor    %ecx,%eax
    f799:	89 c2                	mov    %eax,%edx
    f79b:	48 8b 85 10 f9 ff ff 	mov    -0x6f0(%rbp),%rax
    f7a2:	66 89 10             	mov    %dx,(%rax)
    f7a5:	8b 05 21 69 00 00    	mov    0x6921(%rip),%eax        # 160cc <g_175>
    f7ab:	89 c2                	mov    %eax,%edx
    f7ad:	48 8b 85 00 f9 ff ff 	mov    -0x700(%rbp),%rax
    f7b4:	88 10                	mov    %dl,(%rax)
    f7b6:	48 8b 85 00 f9 ff ff 	mov    -0x700(%rbp),%rax
    f7bd:	0f b6 00             	movzbl (%rax),%eax
    f7c0:	0f b6 c0             	movzbl %al,%eax
    f7c3:	be 00 00 00 00       	mov    $0x0,%esi
    f7c8:	89 c7                	mov    %eax,%edi
    f7ca:	e8 36 a4 ff ff       	callq  9c05 <safe_lshift_func_uint8_t_u_s>
    f7cf:	48 8b 15 82 a6 00 00 	mov    0xa682(%rip),%rdx        # 19e58 <g_179>
    f7d6:	48 8b 85 18 f9 ff ff 	mov    -0x6e8(%rbp),%rax
    f7dd:	48 89 10             	mov    %rdx,(%rax)
    f7e0:	b8 01 00 00 00       	mov    $0x1,%eax
    f7e5:	48 0f be c0          	movsbq %al,%rax
    f7e9:	48 8b 5d d8          	mov    -0x28(%rbp),%rbx
    f7ed:	64 48 33 1c 25 28 00 	xor    %fs:0x28,%rbx
    f7f4:	00 00 
    f7f6:	74 05                	je     f7fd <func_65+0x7bd>
    f7f8:	e8 73 98 ff ff       	callq  9070 <__stack_chk_fail@plt>
    f7fd:	48 81 c4 30 07 00 00 	add    $0x730,%rsp
    f804:	5b                   	pop    %rbx
    f805:	41 5c                	pop    %r12
    f807:	41 5d                	pop    %r13
    f809:	41 5e                	pop    %r14
    f80b:	5d                   	pop    %rbp
    f80c:	c3                   	retq   

000000000000f80d <func_74>:
    f80d:	f3 0f 1e fa          	endbr64 
    f811:	55                   	push   %rbp
    f812:	48 89 e5             	mov    %rsp,%rbp
    f815:	41 57                	push   %r15
    f817:	41 56                	push   %r14
    f819:	41 55                	push   %r13
    f81b:	41 54                	push   %r12
    f81d:	53                   	push   %rbx
    f81e:	48 81 ec e8 07 00 00 	sub    $0x7e8,%rsp
    f825:	89 f8                	mov    %edi,%eax
    f827:	48 89 b5 00 f8 ff ff 	mov    %rsi,-0x800(%rbp)
    f82e:	89 95 08 f8 ff ff    	mov    %edx,-0x7f8(%rbp)
    f834:	48 89 8d f8 f7 ff ff 	mov    %rcx,-0x808(%rbp)
    f83b:	88 85 0c f8 ff ff    	mov    %al,-0x7f4(%rbp)
    f841:	64 48 8b 04 25 28 00 	mov    %fs:0x28,%rax
    f848:	00 00 
    f84a:	48 89 45 c8          	mov    %rax,-0x38(%rbp)
    f84e:	31 c0                	xor    %eax,%eax
    f850:	48 c7 85 20 f8 ff ff 	movq   $0x0,-0x7e0(%rbp)
    f857:	00 00 00 00 
    f85b:	48 c7 85 28 f8 ff ff 	movq   $0x0,-0x7d8(%rbp)
    f862:	00 00 00 00 
    f866:	48 c7 85 18 f8 ff ff 	movq   $0x0,-0x7e8(%rbp)
    f86d:	00 00 00 00 
    f871:	48 8d 85 18 f8 ff ff 	lea    -0x7e8(%rbp),%rax
    f878:	48 89 85 30 f8 ff ff 	mov    %rax,-0x7d0(%rbp)
    f87f:	48 8d 95 70 f8 ff ff 	lea    -0x790(%rbp),%rdx
    f886:	b8 00 00 00 00       	mov    $0x0,%eax
    f88b:	b9 2a 00 00 00       	mov    $0x2a,%ecx
    f890:	48 89 d7             	mov    %rdx,%rdi
    f893:	f3 48 ab             	rep stos %rax,%es:(%rdi)
    f896:	48 c7 85 38 f8 ff ff 	movq   $0x0,-0x7c8(%rbp)
    f89d:	00 00 00 00 
    f8a1:	48 8d 05 14 68 00 00 	lea    0x6814(%rip),%rax        # 160bc <g_118>
    f8a8:	48 89 85 40 f8 ff ff 	mov    %rax,-0x7c0(%rbp)
    f8af:	48 8d 05 52 bd 00 00 	lea    0xbd52(%rip),%rax        # 1b608 <g_83>
    f8b6:	48 89 85 48 f8 ff ff 	mov    %rax,-0x7b8(%rbp)
    f8bd:	48 8d 05 fc 67 00 00 	lea    0x67fc(%rip),%rax        # 160c0 <g_121>
    f8c4:	48 89 85 50 f8 ff ff 	mov    %rax,-0x7b0(%rbp)
    f8cb:	66 c7 85 12 f8 ff ff 	movw   $0xd575,-0x7ee(%rbp)
    f8d2:	75 d5 
    f8d4:	c7 85 14 f8 ff ff 1f 	movl   $0xccd07d1f,-0x7ec(%rbp)
    f8db:	7d d0 cc 
    f8de:	48 c7 85 58 f8 ff ff 	movq   $0x0,-0x7a8(%rbp)
    f8e5:	00 00 00 00 
    f8e9:	48 c7 85 60 f8 ff ff 	movq   $0x0,-0x7a0(%rbp)
    f8f0:	00 00 00 00 
    f8f4:	48 b8 b9 b6 0b ce 60 	movabs $0xe83d4860ce0bb6b9,%rax
    f8fb:	48 3d e8 
    f8fe:	48 89 85 68 f8 ff ff 	mov    %rax,-0x798(%rbp)
    f905:	48 8d 05 9c 67 00 00 	lea    0x679c(%rip),%rax        # 160a8 <g_3+0x68>
    f90c:	48 89 85 c0 f9 ff ff 	mov    %rax,-0x640(%rbp)
    f913:	48 c7 85 c8 f9 ff ff 	movq   $0x0,-0x638(%rbp)
    f91a:	00 00 00 00 
    f91e:	48 8d 85 14 f8 ff ff 	lea    -0x7ec(%rbp),%rax
    f925:	48 89 85 d0 f9 ff ff 	mov    %rax,-0x630(%rbp)
    f92c:	48 c7 85 d8 f9 ff ff 	movq   $0x0,-0x628(%rbp)
    f933:	00 00 00 00 
    f937:	48 c7 85 e0 f9 ff ff 	movq   $0x0,-0x620(%rbp)
    f93e:	00 00 00 00 
    f942:	48 8d 85 14 f8 ff ff 	lea    -0x7ec(%rbp),%rax
    f949:	48 89 85 e8 f9 ff ff 	mov    %rax,-0x618(%rbp)
    f950:	48 c7 85 f0 f9 ff ff 	movq   $0x0,-0x610(%rbp)
    f957:	00 00 00 00 
    f95b:	48 8d 05 46 67 00 00 	lea    0x6746(%rip),%rax        # 160a8 <g_3+0x68>
    f962:	48 89 85 f8 f9 ff ff 	mov    %rax,-0x608(%rbp)
    f969:	48 c7 85 00 fa ff ff 	movq   $0x0,-0x600(%rbp)
    f970:	00 00 00 00 
    f974:	48 c7 85 08 fa ff ff 	movq   $0x0,-0x5f8(%rbp)
    f97b:	00 00 00 00 
    f97f:	48 8d 05 1e 67 00 00 	lea    0x671e(%rip),%rax        # 160a4 <g_3+0x64>
    f986:	48 89 85 10 fa ff ff 	mov    %rax,-0x5f0(%rbp)
    f98d:	48 c7 85 18 fa ff ff 	movq   $0x0,-0x5e8(%rbp)
    f994:	00 00 00 00 
    f998:	48 c7 85 20 fa ff ff 	movq   $0x0,-0x5e0(%rbp)
    f99f:	00 00 00 00 
    f9a3:	48 8d 05 fa 66 00 00 	lea    0x66fa(%rip),%rax        # 160a4 <g_3+0x64>
    f9aa:	48 89 85 28 fa ff ff 	mov    %rax,-0x5d8(%rbp)
    f9b1:	48 c7 85 30 fa ff ff 	movq   $0x0,-0x5d0(%rbp)
    f9b8:	00 00 00 00 
    f9bc:	48 8d 05 e5 66 00 00 	lea    0x66e5(%rip),%rax        # 160a8 <g_3+0x68>
    f9c3:	48 89 85 38 fa ff ff 	mov    %rax,-0x5c8(%rbp)
    f9ca:	48 8d 05 d7 66 00 00 	lea    0x66d7(%rip),%rax        # 160a8 <g_3+0x68>
    f9d1:	48 89 85 40 fa ff ff 	mov    %rax,-0x5c0(%rbp)
    f9d8:	48 c7 85 48 fa ff ff 	movq   $0x0,-0x5b8(%rbp)
    f9df:	00 00 00 00 
    f9e3:	48 8d 05 ba 66 00 00 	lea    0x66ba(%rip),%rax        # 160a4 <g_3+0x64>
    f9ea:	48 89 85 50 fa ff ff 	mov    %rax,-0x5b0(%rbp)
    f9f1:	48 c7 85 58 fa ff ff 	movq   $0x0,-0x5a8(%rbp)
    f9f8:	00 00 00 00 
    f9fc:	48 c7 85 60 fa ff ff 	movq   $0x0,-0x5a0(%rbp)
    fa03:	00 00 00 00 
    fa07:	48 8d 85 14 f8 ff ff 	lea    -0x7ec(%rbp),%rax
    fa0e:	48 89 85 68 fa ff ff 	mov    %rax,-0x598(%rbp)
    fa15:	48 c7 85 70 fa ff ff 	movq   $0x0,-0x590(%rbp)
    fa1c:	00 00 00 00 
    fa20:	48 8d 85 14 f8 ff ff 	lea    -0x7ec(%rbp),%rax
    fa27:	48 89 85 78 fa ff ff 	mov    %rax,-0x588(%rbp)
    fa2e:	48 c7 85 80 fa ff ff 	movq   $0x0,-0x580(%rbp)
    fa35:	00 00 00 00 
    fa39:	48 c7 85 88 fa ff ff 	movq   $0x0,-0x578(%rbp)
    fa40:	00 00 00 00 
    fa44:	48 8d 05 75 66 00 00 	lea    0x6675(%rip),%rax        # 160c0 <g_121>
    fa4b:	48 89 85 90 fa ff ff 	mov    %rax,-0x570(%rbp)
    fa52:	48 c7 85 98 fa ff ff 	movq   $0x0,-0x568(%rbp)
    fa59:	00 00 00 00 
    fa5d:	48 c7 85 a0 fa ff ff 	movq   $0x0,-0x560(%rbp)
    fa64:	00 00 00 00 
    fa68:	48 8d 05 51 66 00 00 	lea    0x6651(%rip),%rax        # 160c0 <g_121>
    fa6f:	48 89 85 a8 fa ff ff 	mov    %rax,-0x558(%rbp)
    fa76:	48 c7 85 b0 fa ff ff 	movq   $0x0,-0x550(%rbp)
    fa7d:	00 00 00 00 
    fa81:	48 c7 85 b8 fa ff ff 	movq   $0x0,-0x548(%rbp)
    fa88:	00 00 00 00 
    fa8c:	48 8d 85 14 f8 ff ff 	lea    -0x7ec(%rbp),%rax
    fa93:	48 89 85 c0 fa ff ff 	mov    %rax,-0x540(%rbp)
    fa9a:	48 c7 85 c8 fa ff ff 	movq   $0x0,-0x538(%rbp)
    faa1:	00 00 00 00 
    faa5:	48 8d 85 14 f8 ff ff 	lea    -0x7ec(%rbp),%rax
    faac:	48 89 85 d0 fa ff ff 	mov    %rax,-0x530(%rbp)
    fab3:	48 8d 85 14 f8 ff ff 	lea    -0x7ec(%rbp),%rax
    faba:	48 89 85 d8 fa ff ff 	mov    %rax,-0x528(%rbp)
    fac1:	48 c7 85 e0 fa ff ff 	movq   $0x0,-0x520(%rbp)
    fac8:	00 00 00 00 
    facc:	48 8d 85 14 f8 ff ff 	lea    -0x7ec(%rbp),%rax
    fad3:	48 89 85 e8 fa ff ff 	mov    %rax,-0x518(%rbp)
    fada:	48 8d 85 14 f8 ff ff 	lea    -0x7ec(%rbp),%rax
    fae1:	48 89 85 f0 fa ff ff 	mov    %rax,-0x510(%rbp)
    fae8:	48 c7 85 f8 fa ff ff 	movq   $0x0,-0x508(%rbp)
    faef:	00 00 00 00 
    faf3:	48 c7 85 00 fb ff ff 	movq   $0x0,-0x500(%rbp)
    fafa:	00 00 00 00 
    fafe:	48 8d 85 14 f8 ff ff 	lea    -0x7ec(%rbp),%rax
    fb05:	48 89 85 08 fb ff ff 	mov    %rax,-0x4f8(%rbp)
    fb0c:	48 8d 85 14 f8 ff ff 	lea    -0x7ec(%rbp),%rax
    fb13:	48 89 85 10 fb ff ff 	mov    %rax,-0x4f0(%rbp)
    fb1a:	48 c7 85 18 fb ff ff 	movq   $0x0,-0x4e8(%rbp)
    fb21:	00 00 00 00 
    fb25:	48 8d 85 14 f8 ff ff 	lea    -0x7ec(%rbp),%rax
    fb2c:	48 89 85 20 fb ff ff 	mov    %rax,-0x4e0(%rbp)
    fb33:	48 8d 85 14 f8 ff ff 	lea    -0x7ec(%rbp),%rax
    fb3a:	48 89 85 28 fb ff ff 	mov    %rax,-0x4d8(%rbp)
    fb41:	48 c7 85 30 fb ff ff 	movq   $0x0,-0x4d0(%rbp)
    fb48:	00 00 00 00 
    fb4c:	48 8d 85 14 f8 ff ff 	lea    -0x7ec(%rbp),%rax
    fb53:	48 89 85 38 fb ff ff 	mov    %rax,-0x4c8(%rbp)
    fb5a:	48 c7 85 40 fb ff ff 	movq   $0x0,-0x4c0(%rbp)
    fb61:	00 00 00 00 
    fb65:	48 c7 85 48 fb ff ff 	movq   $0x0,-0x4b8(%rbp)
    fb6c:	00 00 00 00 
    fb70:	48 8d 05 49 65 00 00 	lea    0x6549(%rip),%rax        # 160c0 <g_121>
    fb77:	48 89 85 50 fb ff ff 	mov    %rax,-0x4b0(%rbp)
    fb7e:	48 c7 85 58 fb ff ff 	movq   $0x0,-0x4a8(%rbp)
    fb85:	00 00 00 00 
    fb89:	48 c7 85 60 fb ff ff 	movq   $0x0,-0x4a0(%rbp)
    fb90:	00 00 00 00 
    fb94:	48 8d 05 25 65 00 00 	lea    0x6525(%rip),%rax        # 160c0 <g_121>
    fb9b:	48 89 85 68 fb ff ff 	mov    %rax,-0x498(%rbp)
    fba2:	48 c7 85 70 fb ff ff 	movq   $0x0,-0x490(%rbp)
    fba9:	00 00 00 00 
    fbad:	48 c7 85 78 fb ff ff 	movq   $0x0,-0x488(%rbp)
    fbb4:	00 00 00 00 
    fbb8:	48 8d 85 14 f8 ff ff 	lea    -0x7ec(%rbp),%rax
    fbbf:	48 89 85 80 fb ff ff 	mov    %rax,-0x480(%rbp)
    fbc6:	48 c7 85 88 fb ff ff 	movq   $0x0,-0x478(%rbp)
    fbcd:	00 00 00 00 
    fbd1:	48 8d 85 14 f8 ff ff 	lea    -0x7ec(%rbp),%rax
    fbd8:	48 89 85 90 fb ff ff 	mov    %rax,-0x470(%rbp)
    fbdf:	48 8d 85 14 f8 ff ff 	lea    -0x7ec(%rbp),%rax
    fbe6:	48 89 85 98 fb ff ff 	mov    %rax,-0x468(%rbp)
    fbed:	48 c7 85 a0 fb ff ff 	movq   $0x0,-0x460(%rbp)
    fbf4:	00 00 00 00 
    fbf8:	48 8d 85 14 f8 ff ff 	lea    -0x7ec(%rbp),%rax
    fbff:	48 89 85 a8 fb ff ff 	mov    %rax,-0x458(%rbp)
    fc06:	48 8d 85 14 f8 ff ff 	lea    -0x7ec(%rbp),%rax
    fc0d:	48 89 85 b0 fb ff ff 	mov    %rax,-0x450(%rbp)
    fc14:	48 c7 85 b8 fb ff ff 	movq   $0x0,-0x448(%rbp)
    fc1b:	00 00 00 00 
    fc1f:	48 c7 85 c0 fb ff ff 	movq   $0x0,-0x440(%rbp)
    fc26:	00 00 00 00 
    fc2a:	48 8d 85 14 f8 ff ff 	lea    -0x7ec(%rbp),%rax
    fc31:	48 89 85 c8 fb ff ff 	mov    %rax,-0x438(%rbp)
    fc38:	48 8d 85 14 f8 ff ff 	lea    -0x7ec(%rbp),%rax
    fc3f:	48 89 85 d0 fb ff ff 	mov    %rax,-0x430(%rbp)
    fc46:	48 c7 85 d8 fb ff ff 	movq   $0x0,-0x428(%rbp)
    fc4d:	00 00 00 00 
    fc51:	48 8d 85 14 f8 ff ff 	lea    -0x7ec(%rbp),%rax
    fc58:	48 89 85 e0 fb ff ff 	mov    %rax,-0x420(%rbp)
    fc5f:	48 8d 85 14 f8 ff ff 	lea    -0x7ec(%rbp),%rax
    fc66:	48 89 85 e8 fb ff ff 	mov    %rax,-0x418(%rbp)
    fc6d:	48 c7 85 f0 fb ff ff 	movq   $0x0,-0x410(%rbp)
    fc74:	00 00 00 00 
    fc78:	48 8d 85 14 f8 ff ff 	lea    -0x7ec(%rbp),%rax
    fc7f:	48 89 85 f8 fb ff ff 	mov    %rax,-0x408(%rbp)
    fc86:	48 c7 85 00 fc ff ff 	movq   $0x0,-0x400(%rbp)
    fc8d:	00 00 00 00 
    fc91:	48 c7 85 08 fc ff ff 	movq   $0x0,-0x3f8(%rbp)
    fc98:	00 00 00 00 
    fc9c:	48 8d 05 1d 64 00 00 	lea    0x641d(%rip),%rax        # 160c0 <g_121>
    fca3:	48 89 85 10 fc ff ff 	mov    %rax,-0x3f0(%rbp)
    fcaa:	48 c7 85 18 fc ff ff 	movq   $0x0,-0x3e8(%rbp)
    fcb1:	00 00 00 00 
    fcb5:	48 c7 85 20 fc ff ff 	movq   $0x0,-0x3e0(%rbp)
    fcbc:	00 00 00 00 
    fcc0:	48 8d 05 f9 63 00 00 	lea    0x63f9(%rip),%rax        # 160c0 <g_121>
    fcc7:	48 89 85 28 fc ff ff 	mov    %rax,-0x3d8(%rbp)
    fcce:	48 c7 85 30 fc ff ff 	movq   $0x0,-0x3d0(%rbp)
    fcd5:	00 00 00 00 
    fcd9:	48 c7 85 38 fc ff ff 	movq   $0x0,-0x3c8(%rbp)
    fce0:	00 00 00 00 
    fce4:	48 8d 85 14 f8 ff ff 	lea    -0x7ec(%rbp),%rax
    fceb:	48 89 85 40 fc ff ff 	mov    %rax,-0x3c0(%rbp)
    fcf2:	48 c7 85 48 fc ff ff 	movq   $0x0,-0x3b8(%rbp)
    fcf9:	00 00 00 00 
    fcfd:	48 8d 85 14 f8 ff ff 	lea    -0x7ec(%rbp),%rax
    fd04:	48 89 85 50 fc ff ff 	mov    %rax,-0x3b0(%rbp)
    fd0b:	48 8d 85 14 f8 ff ff 	lea    -0x7ec(%rbp),%rax
    fd12:	48 89 85 58 fc ff ff 	mov    %rax,-0x3a8(%rbp)
    fd19:	48 c7 85 60 fc ff ff 	movq   $0x0,-0x3a0(%rbp)
    fd20:	00 00 00 00 
    fd24:	48 8d 85 14 f8 ff ff 	lea    -0x7ec(%rbp),%rax
    fd2b:	48 89 85 68 fc ff ff 	mov    %rax,-0x398(%rbp)
    fd32:	48 8d 85 14 f8 ff ff 	lea    -0x7ec(%rbp),%rax
    fd39:	48 89 85 70 fc ff ff 	mov    %rax,-0x390(%rbp)
    fd40:	48 c7 85 78 fc ff ff 	movq   $0x0,-0x388(%rbp)
    fd47:	00 00 00 00 
    fd4b:	48 c7 85 80 fc ff ff 	movq   $0x0,-0x380(%rbp)
    fd52:	00 00 00 00 
    fd56:	48 8d 85 14 f8 ff ff 	lea    -0x7ec(%rbp),%rax
    fd5d:	48 89 85 88 fc ff ff 	mov    %rax,-0x378(%rbp)
    fd64:	48 8d 85 14 f8 ff ff 	lea    -0x7ec(%rbp),%rax
    fd6b:	48 89 85 90 fc ff ff 	mov    %rax,-0x370(%rbp)
    fd72:	48 c7 85 98 fc ff ff 	movq   $0x0,-0x368(%rbp)
    fd79:	00 00 00 00 
    fd7d:	48 8d 85 14 f8 ff ff 	lea    -0x7ec(%rbp),%rax
    fd84:	48 89 85 a0 fc ff ff 	mov    %rax,-0x360(%rbp)
    fd8b:	48 8d 85 14 f8 ff ff 	lea    -0x7ec(%rbp),%rax
    fd92:	48 89 85 a8 fc ff ff 	mov    %rax,-0x358(%rbp)
    fd99:	48 c7 85 b0 fc ff ff 	movq   $0x0,-0x350(%rbp)
    fda0:	00 00 00 00 
    fda4:	48 8d 85 14 f8 ff ff 	lea    -0x7ec(%rbp),%rax
    fdab:	48 89 85 b8 fc ff ff 	mov    %rax,-0x348(%rbp)
    fdb2:	48 c7 85 c0 fc ff ff 	movq   $0x0,-0x340(%rbp)
    fdb9:	00 00 00 00 
    fdbd:	48 c7 85 c8 fc ff ff 	movq   $0x0,-0x338(%rbp)
    fdc4:	00 00 00 00 
    fdc8:	48 8d 05 f1 62 00 00 	lea    0x62f1(%rip),%rax        # 160c0 <g_121>
    fdcf:	48 89 85 d0 fc ff ff 	mov    %rax,-0x330(%rbp)
    fdd6:	48 c7 85 d8 fc ff ff 	movq   $0x0,-0x328(%rbp)
    fddd:	00 00 00 00 
    fde1:	48 c7 85 e0 fc ff ff 	movq   $0x0,-0x320(%rbp)
    fde8:	00 00 00 00 
    fdec:	48 8d 05 cd 62 00 00 	lea    0x62cd(%rip),%rax        # 160c0 <g_121>
    fdf3:	48 89 85 e8 fc ff ff 	mov    %rax,-0x318(%rbp)
    fdfa:	48 c7 85 f0 fc ff ff 	movq   $0x0,-0x310(%rbp)
    fe01:	00 00 00 00 
    fe05:	48 c7 85 f8 fc ff ff 	movq   $0x0,-0x308(%rbp)
    fe0c:	00 00 00 00 
    fe10:	48 8d 85 14 f8 ff ff 	lea    -0x7ec(%rbp),%rax
    fe17:	48 89 85 00 fd ff ff 	mov    %rax,-0x300(%rbp)
    fe1e:	48 c7 85 08 fd ff ff 	movq   $0x0,-0x2f8(%rbp)
    fe25:	00 00 00 00 
    fe29:	48 8d 85 14 f8 ff ff 	lea    -0x7ec(%rbp),%rax
    fe30:	48 89 85 10 fd ff ff 	mov    %rax,-0x2f0(%rbp)
    fe37:	48 8d 85 14 f8 ff ff 	lea    -0x7ec(%rbp),%rax
    fe3e:	48 89 85 18 fd ff ff 	mov    %rax,-0x2e8(%rbp)
    fe45:	48 c7 85 20 fd ff ff 	movq   $0x0,-0x2e0(%rbp)
    fe4c:	00 00 00 00 
    fe50:	48 8d 85 14 f8 ff ff 	lea    -0x7ec(%rbp),%rax
    fe57:	48 89 85 28 fd ff ff 	mov    %rax,-0x2d8(%rbp)
    fe5e:	48 8d 85 14 f8 ff ff 	lea    -0x7ec(%rbp),%rax
    fe65:	48 89 85 30 fd ff ff 	mov    %rax,-0x2d0(%rbp)
    fe6c:	48 c7 85 38 fd ff ff 	movq   $0x0,-0x2c8(%rbp)
    fe73:	00 00 00 00 
    fe77:	48 c7 85 40 fd ff ff 	movq   $0x0,-0x2c0(%rbp)
    fe7e:	00 00 00 00 
    fe82:	48 8d 85 14 f8 ff ff 	lea    -0x7ec(%rbp),%rax
    fe89:	48 89 85 48 fd ff ff 	mov    %rax,-0x2b8(%rbp)
    fe90:	48 8d 85 14 f8 ff ff 	lea    -0x7ec(%rbp),%rax
    fe97:	48 89 85 50 fd ff ff 	mov    %rax,-0x2b0(%rbp)
    fe9e:	48 c7 85 58 fd ff ff 	movq   $0x0,-0x2a8(%rbp)
    fea5:	00 00 00 00 
    fea9:	48 8d 85 14 f8 ff ff 	lea    -0x7ec(%rbp),%rax
    feb0:	48 89 85 60 fd ff ff 	mov    %rax,-0x2a0(%rbp)
    feb7:	48 8d 85 14 f8 ff ff 	lea    -0x7ec(%rbp),%rax
    febe:	48 89 85 68 fd ff ff 	mov    %rax,-0x298(%rbp)
    fec5:	48 c7 85 70 fd ff ff 	movq   $0x0,-0x290(%rbp)
    fecc:	00 00 00 00 
    fed0:	48 8d 85 14 f8 ff ff 	lea    -0x7ec(%rbp),%rax
    fed7:	48 89 85 78 fd ff ff 	mov    %rax,-0x288(%rbp)
    fede:	48 c7 85 80 fd ff ff 	movq   $0x0,-0x280(%rbp)
    fee5:	00 00 00 00 
    fee9:	48 c7 85 88 fd ff ff 	movq   $0x0,-0x278(%rbp)
    fef0:	00 00 00 00 
    fef4:	48 8d 05 c5 61 00 00 	lea    0x61c5(%rip),%rax        # 160c0 <g_121>
    fefb:	48 89 85 90 fd ff ff 	mov    %rax,-0x270(%rbp)
    ff02:	48 c7 85 98 fd ff ff 	movq   $0x0,-0x268(%rbp)
    ff09:	00 00 00 00 
    ff0d:	48 c7 85 a0 fd ff ff 	movq   $0x0,-0x260(%rbp)
    ff14:	00 00 00 00 
    ff18:	48 8d 05 a1 61 00 00 	lea    0x61a1(%rip),%rax        # 160c0 <g_121>
    ff1f:	48 89 85 a8 fd ff ff 	mov    %rax,-0x258(%rbp)
    ff26:	48 c7 85 b0 fd ff ff 	movq   $0x0,-0x250(%rbp)
    ff2d:	00 00 00 00 
    ff31:	48 c7 85 b8 fd ff ff 	movq   $0x0,-0x248(%rbp)
    ff38:	00 00 00 00 
    ff3c:	48 8d 85 14 f8 ff ff 	lea    -0x7ec(%rbp),%rax
    ff43:	48 89 85 c0 fd ff ff 	mov    %rax,-0x240(%rbp)
    ff4a:	48 c7 85 c8 fd ff ff 	movq   $0x0,-0x238(%rbp)
    ff51:	00 00 00 00 
    ff55:	48 8d 85 14 f8 ff ff 	lea    -0x7ec(%rbp),%rax
    ff5c:	48 89 85 d0 fd ff ff 	mov    %rax,-0x230(%rbp)
    ff63:	48 8d 85 14 f8 ff ff 	lea    -0x7ec(%rbp),%rax
    ff6a:	48 89 85 d8 fd ff ff 	mov    %rax,-0x228(%rbp)
    ff71:	48 c7 85 e0 fd ff ff 	movq   $0x0,-0x220(%rbp)
    ff78:	00 00 00 00 
    ff7c:	48 8d 85 14 f8 ff ff 	lea    -0x7ec(%rbp),%rax
    ff83:	48 89 85 e8 fd ff ff 	mov    %rax,-0x218(%rbp)
    ff8a:	48 8d 85 14 f8 ff ff 	lea    -0x7ec(%rbp),%rax
    ff91:	48 89 85 f0 fd ff ff 	mov    %rax,-0x210(%rbp)
    ff98:	48 c7 85 f8 fd ff ff 	movq   $0x0,-0x208(%rbp)
    ff9f:	00 00 00 00 
    ffa3:	48 c7 85 00 fe ff ff 	movq   $0x0,-0x200(%rbp)
    ffaa:	00 00 00 00 
    ffae:	48 8d 85 14 f8 ff ff 	lea    -0x7ec(%rbp),%rax
    ffb5:	48 89 85 08 fe ff ff 	mov    %rax,-0x1f8(%rbp)
    ffbc:	48 8d 85 14 f8 ff ff 	lea    -0x7ec(%rbp),%rax
    ffc3:	48 89 85 10 fe ff ff 	mov    %rax,-0x1f0(%rbp)
    ffca:	48 c7 85 18 fe ff ff 	movq   $0x0,-0x1e8(%rbp)
    ffd1:	00 00 00 00 
    ffd5:	48 8d 85 14 f8 ff ff 	lea    -0x7ec(%rbp),%rax
    ffdc:	48 89 85 20 fe ff ff 	mov    %rax,-0x1e0(%rbp)
    ffe3:	48 8d 85 14 f8 ff ff 	lea    -0x7ec(%rbp),%rax
    ffea:	48 89 85 28 fe ff ff 	mov    %rax,-0x1d8(%rbp)
    fff1:	48 c7 85 30 fe ff ff 	movq   $0x0,-0x1d0(%rbp)
    fff8:	00 00 00 00 
    fffc:	48 8d 85 14 f8 ff ff 	lea    -0x7ec(%rbp),%rax
   10003:	48 89 85 38 fe ff ff 	mov    %rax,-0x1c8(%rbp)
   1000a:	48 c7 85 40 fe ff ff 	movq   $0x0,-0x1c0(%rbp)
   10011:	00 00 00 00 
   10015:	48 c7 85 48 fe ff ff 	movq   $0x0,-0x1b8(%rbp)
   1001c:	00 00 00 00 
   10020:	48 8d 05 99 60 00 00 	lea    0x6099(%rip),%rax        # 160c0 <g_121>
   10027:	48 89 85 50 fe ff ff 	mov    %rax,-0x1b0(%rbp)
   1002e:	48 c7 85 58 fe ff ff 	movq   $0x0,-0x1a8(%rbp)
   10035:	00 00 00 00 
   10039:	48 c7 85 60 fe ff ff 	movq   $0x0,-0x1a0(%rbp)
   10040:	00 00 00 00 
   10044:	48 8d 05 75 60 00 00 	lea    0x6075(%rip),%rax        # 160c0 <g_121>
   1004b:	48 89 85 68 fe ff ff 	mov    %rax,-0x198(%rbp)
   10052:	48 c7 85 70 fe ff ff 	movq   $0x0,-0x190(%rbp)
   10059:	00 00 00 00 
   1005d:	48 c7 85 78 fe ff ff 	movq   $0x0,-0x188(%rbp)
   10064:	00 00 00 00 
   10068:	48 8d 85 14 f8 ff ff 	lea    -0x7ec(%rbp),%rax
   1006f:	48 89 85 80 fe ff ff 	mov    %rax,-0x180(%rbp)
   10076:	48 c7 85 88 fe ff ff 	movq   $0x0,-0x178(%rbp)
   1007d:	00 00 00 00 
   10081:	48 8d 85 14 f8 ff ff 	lea    -0x7ec(%rbp),%rax
   10088:	48 89 85 90 fe ff ff 	mov    %rax,-0x170(%rbp)
   1008f:	48 8d 85 14 f8 ff ff 	lea    -0x7ec(%rbp),%rax
   10096:	48 89 85 98 fe ff ff 	mov    %rax,-0x168(%rbp)
   1009d:	48 c7 85 a0 fe ff ff 	movq   $0x0,-0x160(%rbp)
   100a4:	00 00 00 00 
   100a8:	48 8d 85 14 f8 ff ff 	lea    -0x7ec(%rbp),%rax
   100af:	48 89 85 a8 fe ff ff 	mov    %rax,-0x158(%rbp)
   100b6:	48 8d 85 14 f8 ff ff 	lea    -0x7ec(%rbp),%rax
   100bd:	48 89 85 b0 fe ff ff 	mov    %rax,-0x150(%rbp)
   100c4:	48 c7 85 b8 fe ff ff 	movq   $0x0,-0x148(%rbp)
   100cb:	00 00 00 00 
   100cf:	48 c7 85 c0 fe ff ff 	movq   $0x0,-0x140(%rbp)
   100d6:	00 00 00 00 
   100da:	48 8d 85 14 f8 ff ff 	lea    -0x7ec(%rbp),%rax
   100e1:	48 89 85 c8 fe ff ff 	mov    %rax,-0x138(%rbp)
   100e8:	48 8d 85 14 f8 ff ff 	lea    -0x7ec(%rbp),%rax
   100ef:	48 89 85 d0 fe ff ff 	mov    %rax,-0x130(%rbp)
   100f6:	48 c7 85 d8 fe ff ff 	movq   $0x0,-0x128(%rbp)
   100fd:	00 00 00 00 
   10101:	48 8d 85 14 f8 ff ff 	lea    -0x7ec(%rbp),%rax
   10108:	48 89 85 e0 fe ff ff 	mov    %rax,-0x120(%rbp)
   1010f:	48 8d 85 14 f8 ff ff 	lea    -0x7ec(%rbp),%rax
   10116:	48 89 85 e8 fe ff ff 	mov    %rax,-0x118(%rbp)
   1011d:	48 c7 85 f0 fe ff ff 	movq   $0x0,-0x110(%rbp)
   10124:	00 00 00 00 
   10128:	48 8d 85 14 f8 ff ff 	lea    -0x7ec(%rbp),%rax
   1012f:	48 89 85 f8 fe ff ff 	mov    %rax,-0x108(%rbp)
   10136:	48 c7 85 00 ff ff ff 	movq   $0x0,-0x100(%rbp)
   1013d:	00 00 00 00 
   10141:	48 c7 85 08 ff ff ff 	movq   $0x0,-0xf8(%rbp)
   10148:	00 00 00 00 
   1014c:	48 8d 05 6d 5f 00 00 	lea    0x5f6d(%rip),%rax        # 160c0 <g_121>
   10153:	48 89 85 10 ff ff ff 	mov    %rax,-0xf0(%rbp)
   1015a:	48 c7 85 18 ff ff ff 	movq   $0x0,-0xe8(%rbp)
   10161:	00 00 00 00 
   10165:	48 c7 85 20 ff ff ff 	movq   $0x0,-0xe0(%rbp)
   1016c:	00 00 00 00 
   10170:	48 8d 05 49 5f 00 00 	lea    0x5f49(%rip),%rax        # 160c0 <g_121>
   10177:	48 89 85 28 ff ff ff 	mov    %rax,-0xd8(%rbp)
   1017e:	48 c7 85 30 ff ff ff 	movq   $0x0,-0xd0(%rbp)
   10185:	00 00 00 00 
   10189:	48 c7 85 38 ff ff ff 	movq   $0x0,-0xc8(%rbp)
   10190:	00 00 00 00 
   10194:	48 8d 85 14 f8 ff ff 	lea    -0x7ec(%rbp),%rax
   1019b:	48 89 85 40 ff ff ff 	mov    %rax,-0xc0(%rbp)
   101a2:	48 c7 85 48 ff ff ff 	movq   $0x0,-0xb8(%rbp)
   101a9:	00 00 00 00 
   101ad:	48 8d 85 14 f8 ff ff 	lea    -0x7ec(%rbp),%rax
   101b4:	48 89 85 50 ff ff ff 	mov    %rax,-0xb0(%rbp)
   101bb:	48 8d 85 14 f8 ff ff 	lea    -0x7ec(%rbp),%rax
   101c2:	48 89 85 58 ff ff ff 	mov    %rax,-0xa8(%rbp)
   101c9:	48 c7 85 60 ff ff ff 	movq   $0x0,-0xa0(%rbp)
   101d0:	00 00 00 00 
   101d4:	48 8d 85 14 f8 ff ff 	lea    -0x7ec(%rbp),%rax
   101db:	48 89 85 68 ff ff ff 	mov    %rax,-0x98(%rbp)
   101e2:	48 8d 85 14 f8 ff ff 	lea    -0x7ec(%rbp),%rax
   101e9:	48 89 85 70 ff ff ff 	mov    %rax,-0x90(%rbp)
   101f0:	48 c7 85 78 ff ff ff 	movq   $0x0,-0x88(%rbp)
   101f7:	00 00 00 00 
   101fb:	48 c7 45 80 00 00 00 	movq   $0x0,-0x80(%rbp)
   10202:	00 
   10203:	48 8d 85 14 f8 ff ff 	lea    -0x7ec(%rbp),%rax
   1020a:	48 89 45 88          	mov    %rax,-0x78(%rbp)
   1020e:	48 8d 85 14 f8 ff ff 	lea    -0x7ec(%rbp),%rax
   10215:	48 89 45 90          	mov    %rax,-0x70(%rbp)
   10219:	48 c7 45 98 00 00 00 	movq   $0x0,-0x68(%rbp)
   10220:	00 
   10221:	48 8d 85 14 f8 ff ff 	lea    -0x7ec(%rbp),%rax
   10228:	48 89 45 a0          	mov    %rax,-0x60(%rbp)
   1022c:	48 8d 85 14 f8 ff ff 	lea    -0x7ec(%rbp),%rax
   10233:	48 89 45 a8          	mov    %rax,-0x58(%rbp)
   10237:	48 c7 45 b0 00 00 00 	movq   $0x0,-0x50(%rbp)
   1023e:	00 
   1023f:	48 8d 85 14 f8 ff ff 	lea    -0x7ec(%rbp),%rax
   10246:	48 89 45 b8          	mov    %rax,-0x48(%rbp)
   1024a:	48 8b 85 30 f8 ff ff 	mov    -0x7d0(%rbp),%rax
   10251:	48 8b 95 00 f8 ff ff 	mov    -0x800(%rbp),%rdx
   10258:	48 89 10             	mov    %rdx,(%rax)
   1025b:	48 8b 85 30 f8 ff ff 	mov    -0x7d0(%rbp),%rax
   10262:	48 8b 18             	mov    (%rax),%rbx
   10265:	48 8b 85 00 f8 ff ff 	mov    -0x800(%rbp),%rax
   1026c:	48 89 c6             	mov    %rax,%rsi
   1026f:	48 8d 3d 2e 5e 00 00 	lea    0x5e2e(%rip),%rdi        # 160a4 <g_3+0x64>
   10276:	e8 87 ed ff ff       	callq  f002 <func_58>
   1027b:	48 89 de             	mov    %rbx,%rsi
   1027e:	48 89 c7             	mov    %rax,%rdi
   10281:	e8 7c ed ff ff       	callq  f002 <func_58>
   10286:	48 89 c3             	mov    %rax,%rbx
   10289:	48 c7 85 f8 f7 ff ff 	movq   $0x0,-0x808(%rbp)
   10290:	00 00 00 00 
   10294:	48 8b 95 00 f8 ff ff 	mov    -0x800(%rbp),%rdx
   1029b:	48 8b 85 f8 f7 ff ff 	mov    -0x808(%rbp),%rax
   102a2:	48 89 d6             	mov    %rdx,%rsi
   102a5:	48 89 c7             	mov    %rax,%rdi
   102a8:	e8 55 ed ff ff       	callq  f002 <func_58>
   102ad:	48 89 de             	mov    %rbx,%rsi
   102b0:	48 89 c7             	mov    %rax,%rdi
   102b3:	e8 4a ed ff ff       	callq  f002 <func_58>
   102b8:	48 8b 95 30 f8 ff ff 	mov    -0x7d0(%rbp),%rdx
   102bf:	48 89 02             	mov    %rax,(%rdx)
   102c2:	0f b7 9d 12 f8 ff ff 	movzwl -0x7ee(%rbp),%ebx
   102c9:	48 8b 85 30 f8 ff ff 	mov    -0x7d0(%rbp),%rax
   102d0:	48 8b 00             	mov    (%rax),%rax
   102d3:	8b 00                	mov    (%rax),%eax
   102d5:	89 85 f4 f7 ff ff    	mov    %eax,-0x80c(%rbp)
   102db:	44 0f be a5 0c f8 ff 	movsbl -0x7f4(%rbp),%r12d
   102e2:	ff 
   102e3:	0f b7 05 d0 5d 00 00 	movzwl 0x5dd0(%rip),%eax        # 160ba <g_98>
   102ea:	44 0f b7 f0          	movzwl %ax,%r14d
   102ee:	80 bd 0c f8 ff ff 01 	cmpb   $0x1,-0x7f4(%rbp)
   102f5:	0f 9f c0             	setg   %al
   102f8:	44 0f b6 f8          	movzbl %al,%r15d
   102fc:	83 bd 08 f8 ff ff 00 	cmpl   $0x0,-0x7f8(%rbp)
   10303:	75 72                	jne    10377 <func_74+0xb6a>
   10305:	44 8b ad 08 f8 ff ff 	mov    -0x7f8(%rbp),%r13d
   1030c:	48 8b 85 30 f8 ff ff 	mov    -0x7d0(%rbp),%rax
   10313:	48 8b 00             	mov    (%rax),%rax
   10316:	8b 00                	mov    (%rax),%eax
   10318:	48 63 d0             	movslq %eax,%rdx
   1031b:	0f b7 05 96 5d 00 00 	movzwl 0x5d96(%rip),%eax        # 160b8 <g_95>
   10322:	66 85 c0             	test   %ax,%ax
   10325:	0f 94 c0             	sete   %al
   10328:	0f b6 c8             	movzbl %al,%ecx
   1032b:	b8 01 00 00 00       	mov    $0x1,%eax
   10330:	0f be c0             	movsbl %al,%eax
   10333:	39 c1                	cmp    %eax,%ecx
   10335:	7c 10                	jl     10347 <func_74+0xb3a>
   10337:	80 bd 0c f8 ff ff 00 	cmpb   $0x0,-0x7f4(%rbp)
   1033e:	74 07                	je     10347 <func_74+0xb3a>
   10340:	b8 01 00 00 00       	mov    $0x1,%eax
   10345:	eb 05                	jmp    1034c <func_74+0xb3f>
   10347:	b8 00 00 00 00       	mov    $0x0,%eax
   1034c:	48 98                	cltq   
   1034e:	48 89 d6             	mov    %rdx,%rsi
   10351:	48 89 c7             	mov    %rax,%rdi
   10354:	e8 4f 95 ff ff       	callq  98a8 <safe_sub_func_int64_t_s_s>
   10359:	0f b6 c0             	movzbl %al,%eax
   1035c:	44 89 ee             	mov    %r13d,%esi
   1035f:	89 c7                	mov    %eax,%edi
   10361:	e8 27 99 ff ff       	callq  9c8d <safe_rshift_func_uint8_t_u_s>
   10366:	48 8b 85 48 f9 ff ff 	mov    -0x6b8(%rbp),%rax
   1036d:	48 8d 15 44 5d 00 00 	lea    0x5d44(%rip),%rdx        # 160b8 <g_95>
   10374:	48 39 d0             	cmp    %rdx,%rax
   10377:	48 8b 85 40 f8 ff ff 	mov    -0x7c0(%rbp),%rax
   1037e:	c6 00 00             	movb   $0x0,(%rax)
   10381:	48 8b 85 40 f8 ff ff 	mov    -0x7c0(%rbp),%rax
   10388:	0f b6 00             	movzbl (%rax),%eax
   1038b:	0f b6 c0             	movzbl %al,%eax
   1038e:	44 31 f8             	xor    %r15d,%eax
   10391:	3d e4 c3 5e 32       	cmp    $0x325ec3e4,%eax
   10396:	0f 9e c0             	setle  %al
   10399:	0f b6 c0             	movzbl %al,%eax
   1039c:	41 39 c6             	cmp    %eax,%r14d
   1039f:	0f 9f c0             	setg   %al
   103a2:	89 c2                	mov    %eax,%edx
   103a4:	48 8b 85 48 f8 ff ff 	mov    -0x7b8(%rbp),%rax
   103ab:	88 10                	mov    %dl,(%rax)
   103ad:	48 8b 85 48 f8 ff ff 	mov    -0x7b8(%rbp),%rax
   103b4:	0f b6 00             	movzbl (%rax),%eax
   103b7:	0f be c0             	movsbl %al,%eax
   103ba:	39 85 08 f8 ff ff    	cmp    %eax,-0x7f8(%rbp)
   103c0:	0f 92 c0             	setb   %al
   103c3:	0f b6 c0             	movzbl %al,%eax
   103c6:	44 89 e6             	mov    %r12d,%esi
   103c9:	89 c7                	mov    %eax,%edi
   103cb:	e8 03 90 ff ff       	callq  93d3 <safe_sub_func_int16_t_s_s>
   103d0:	66 85 c0             	test   %ax,%ax
   103d3:	0f 95 c0             	setne  %al
   103d6:	0f b6 c0             	movzbl %al,%eax
   103d9:	8b b5 f4 f7 ff ff    	mov    -0x80c(%rbp),%esi
   103df:	89 c7                	mov    %eax,%edi
   103e1:	e8 20 9a ff ff       	callq  9e06 <safe_lshift_func_uint16_t_u_u>
   103e6:	48 8b 95 50 f8 ff ff 	mov    -0x7b0(%rbp),%rdx
   103ed:	8b 12                	mov    (%rdx),%edx
   103ef:	0f b7 c0             	movzwl %ax,%eax
   103f2:	21 c2                	and    %eax,%edx
   103f4:	48 8b 85 50 f8 ff ff 	mov    -0x7b0(%rbp),%rax
   103fb:	89 10                	mov    %edx,(%rax)
   103fd:	48 8b 85 50 f8 ff ff 	mov    -0x7b0(%rbp),%rax
   10404:	8b 00                	mov    (%rax),%eax
   10406:	89 de                	mov    %ebx,%esi
   10408:	89 c7                	mov    %eax,%edi
   1040a:	e8 f0 92 ff ff       	callq  96ff <safe_div_func_int32_t_s_s>
   1040f:	c7 05 8b 5c 00 00 00 	movl   $0x0,0x5c8b(%rip)        # 160a4 <g_3+0x64>
   10416:	00 00 00 
   10419:	8b 05 85 5c 00 00    	mov    0x5c85(%rip),%eax        # 160a4 <g_3+0x64>
   1041f:	89 85 14 f8 ff ff    	mov    %eax,-0x7ec(%rbp)
   10425:	8b 05 99 5c 00 00    	mov    0x5c99(%rip),%eax        # 160c4 <g_128>
   1042b:	83 e8 01             	sub    $0x1,%eax
   1042e:	89 05 90 5c 00 00    	mov    %eax,0x5c90(%rip)        # 160c4 <g_128>
   10434:	0f b6 85 0c f8 ff ff 	movzbl -0x7f4(%rbp),%eax
   1043b:	48 8b 4d c8          	mov    -0x38(%rbp),%rcx
   1043f:	64 48 33 0c 25 28 00 	xor    %fs:0x28,%rcx
   10446:	00 00 
   10448:	74 05                	je     1044f <func_74+0xc42>
   1044a:	e8 21 8c ff ff       	callq  9070 <__stack_chk_fail@plt>
   1044f:	48 81 c4 e8 07 00 00 	add    $0x7e8,%rsp
   10456:	5b                   	pop    %rbx
   10457:	41 5c                	pop    %r12
   10459:	41 5d                	pop    %r13
   1045b:	41 5e                	pop    %r14
   1045d:	41 5f                	pop    %r15
   1045f:	5d                   	pop    %rbp
   10460:	c3                   	retq   

0000000000010461 <main>:
   10461:	f3 0f 1e fa          	endbr64 
   10465:	55                   	push   %rbp
   10466:	48 89 e5             	mov    %rsp,%rbp
   10469:	48 83 ec 20          	sub    $0x20,%rsp
   1046d:	89 7d ec             	mov    %edi,-0x14(%rbp)
   10470:	48 89 75 e0          	mov    %rsi,-0x20(%rbp)
   10474:	c7 45 fc 00 00 00 00 	movl   $0x0,-0x4(%rbp)
   1047b:	83 7d ec 02          	cmpl   $0x2,-0x14(%rbp)
   1047f:	75 25                	jne    104a6 <main+0x45>
   10481:	48 8b 45 e0          	mov    -0x20(%rbp),%rax
   10485:	48 83 c0 08          	add    $0x8,%rax
   10489:	48 8b 00             	mov    (%rax),%rax
   1048c:	48 8d 35 f5 29 00 00 	lea    0x29f5(%rip),%rsi        # 12e88 <g_3093+0xde0>
   10493:	48 89 c7             	mov    %rax,%rdi
   10496:	e8 f5 8b ff ff       	callq  9090 <strcmp@plt>
   1049b:	85 c0                	test   %eax,%eax
   1049d:	75 07                	jne    104a6 <main+0x45>
   1049f:	c7 45 fc 01 00 00 00 	movl   $0x1,-0x4(%rbp)
   104a6:	e8 de 8c ff ff       	callq  9189 <platform_main_begin>
   104ab:	e8 e8 a0 ff ff       	callq  a598 <crc32_gentab>
   104b0:	e8 00 a3 ff ff       	callq  a7b5 <func_1>
   104b5:	c7 45 f0 00 00 00 00 	movl   $0x0,-0x10(%rbp)
   104bc:	eb 74                	jmp    10532 <main+0xd1>
   104be:	c7 45 f4 00 00 00 00 	movl   $0x0,-0xc(%rbp)
   104c5:	eb 61                	jmp    10528 <main+0xc7>
   104c7:	8b 45 f4             	mov    -0xc(%rbp),%eax
   104ca:	48 63 c8             	movslq %eax,%rcx
   104cd:	8b 45 f0             	mov    -0x10(%rbp),%eax
   104d0:	48 63 d0             	movslq %eax,%rdx
   104d3:	48 89 d0             	mov    %rdx,%rax
   104d6:	48 01 c0             	add    %rax,%rax
   104d9:	48 01 d0             	add    %rdx,%rax
   104dc:	48 01 c8             	add    %rcx,%rax
   104df:	48 8d 14 85 00 00 00 	lea    0x0(,%rax,4),%rdx
   104e6:	00 
   104e7:	48 8d 05 52 5b 00 00 	lea    0x5b52(%rip),%rax        # 16040 <g_3>
   104ee:	8b 04 02             	mov    (%rdx,%rax,1),%eax
   104f1:	48 98                	cltq   
   104f3:	8b 55 fc             	mov    -0x4(%rbp),%edx
   104f6:	48 8d 35 8d 29 00 00 	lea    0x298d(%rip),%rsi        # 12e8a <g_3093+0xde2>
   104fd:	48 89 c7             	mov    %rax,%rdi
   10500:	e8 ee a1 ff ff       	callq  a6f3 <transparent_crc>
   10505:	83 7d fc 00          	cmpl   $0x0,-0x4(%rbp)
   10509:	74 19                	je     10524 <main+0xc3>
   1050b:	8b 55 f4             	mov    -0xc(%rbp),%edx
   1050e:	8b 45 f0             	mov    -0x10(%rbp),%eax
   10511:	89 c6                	mov    %eax,%esi
   10513:	48 8d 3d 7a 29 00 00 	lea    0x297a(%rip),%rdi        # 12e94 <g_3093+0xdec>
   1051a:	b8 00 00 00 00       	mov    $0x0,%eax
   1051f:	e8 5c 8b ff ff       	callq  9080 <printf@plt>
   10524:	83 45 f4 01          	addl   $0x1,-0xc(%rbp)
   10528:	83 7d f4 02          	cmpl   $0x2,-0xc(%rbp)
   1052c:	7e 99                	jle    104c7 <main+0x66>
   1052e:	83 45 f0 01          	addl   $0x1,-0x10(%rbp)
   10532:	83 7d f0 08          	cmpl   $0x8,-0x10(%rbp)
   10536:	7e 86                	jle    104be <main+0x5d>
   10538:	0f b6 05 c9 b0 00 00 	movzbl 0xb0c9(%rip),%eax        # 1b608 <g_83>
   1053f:	48 0f be c0          	movsbq %al,%rax
   10543:	8b 55 fc             	mov    -0x4(%rbp),%edx
   10546:	48 8d 35 59 29 00 00 	lea    0x2959(%rip),%rsi        # 12ea6 <g_3093+0xdfe>
   1054d:	48 89 c7             	mov    %rax,%rdi
   10550:	e8 9e a1 ff ff       	callq  a6f3 <transparent_crc>
   10555:	b8 01 00 00 00       	mov    $0x1,%eax
   1055a:	48 0f be c0          	movsbq %al,%rax
   1055e:	8b 55 fc             	mov    -0x4(%rbp),%edx
   10561:	48 8d 35 43 29 00 00 	lea    0x2943(%rip),%rsi        # 12eab <g_3093+0xe03>
   10568:	48 89 c7             	mov    %rax,%rdi
   1056b:	e8 83 a1 ff ff       	callq  a6f3 <transparent_crc>
   10570:	48 8b 05 39 5b 00 00 	mov    0x5b39(%rip),%rax        # 160b0 <g_92>
   10577:	48 89 c1             	mov    %rax,%rcx
   1057a:	8b 45 fc             	mov    -0x4(%rbp),%eax
   1057d:	89 c2                	mov    %eax,%edx
   1057f:	48 8d 35 2a 29 00 00 	lea    0x292a(%rip),%rsi        # 12eb0 <g_3093+0xe08>
   10586:	48 89 cf             	mov    %rcx,%rdi
   10589:	e8 65 a1 ff ff       	callq  a6f3 <transparent_crc>
   1058e:	0f b7 05 23 5b 00 00 	movzwl 0x5b23(%rip),%eax        # 160b8 <g_95>
   10595:	0f b7 c0             	movzwl %ax,%eax
   10598:	8b 55 fc             	mov    -0x4(%rbp),%edx
   1059b:	48 8d 35 13 29 00 00 	lea    0x2913(%rip),%rsi        # 12eb5 <g_3093+0xe0d>
   105a2:	48 89 c7             	mov    %rax,%rdi
   105a5:	e8 49 a1 ff ff       	callq  a6f3 <transparent_crc>
   105aa:	0f b7 05 09 5b 00 00 	movzwl 0x5b09(%rip),%eax        # 160ba <g_98>
   105b1:	0f b7 c0             	movzwl %ax,%eax
   105b4:	8b 55 fc             	mov    -0x4(%rbp),%edx
   105b7:	48 8d 35 fc 28 00 00 	lea    0x28fc(%rip),%rsi        # 12eba <g_3093+0xe12>
   105be:	48 89 c7             	mov    %rax,%rdi
   105c1:	e8 2d a1 ff ff       	callq  a6f3 <transparent_crc>
   105c6:	0f b6 05 ef 5a 00 00 	movzbl 0x5aef(%rip),%eax        # 160bc <g_118>
   105cd:	0f b6 c0             	movzbl %al,%eax
   105d0:	8b 55 fc             	mov    -0x4(%rbp),%edx
   105d3:	48 8d 35 e5 28 00 00 	lea    0x28e5(%rip),%rsi        # 12ebf <g_3093+0xe17>
   105da:	48 89 c7             	mov    %rax,%rdi
   105dd:	e8 11 a1 ff ff       	callq  a6f3 <transparent_crc>
   105e2:	8b 05 d8 5a 00 00    	mov    0x5ad8(%rip),%eax        # 160c0 <g_121>
   105e8:	48 98                	cltq   
   105ea:	8b 55 fc             	mov    -0x4(%rbp),%edx
   105ed:	48 8d 35 d1 28 00 00 	lea    0x28d1(%rip),%rsi        # 12ec5 <g_3093+0xe1d>
   105f4:	48 89 c7             	mov    %rax,%rdi
   105f7:	e8 f7 a0 ff ff       	callq  a6f3 <transparent_crc>
   105fc:	8b 05 c2 5a 00 00    	mov    0x5ac2(%rip),%eax        # 160c4 <g_128>
   10602:	89 c1                	mov    %eax,%ecx
   10604:	8b 45 fc             	mov    -0x4(%rbp),%eax
   10607:	89 c2                	mov    %eax,%edx
   10609:	48 8d 35 bb 28 00 00 	lea    0x28bb(%rip),%rsi        # 12ecb <g_3093+0xe23>
   10610:	48 89 cf             	mov    %rcx,%rdi
   10613:	e8 db a0 ff ff       	callq  a6f3 <transparent_crc>
   10618:	0f b6 05 a9 5a 00 00 	movzbl 0x5aa9(%rip),%eax        # 160c8 <g_132>
   1061f:	48 0f be c0          	movsbq %al,%rax
   10623:	8b 55 fc             	mov    -0x4(%rbp),%edx
   10626:	48 8d 35 a4 28 00 00 	lea    0x28a4(%rip),%rsi        # 12ed1 <g_3093+0xe29>
   1062d:	48 89 c7             	mov    %rax,%rdi
   10630:	e8 be a0 ff ff       	callq  a6f3 <transparent_crc>
   10635:	0f b7 05 ce af 00 00 	movzwl 0xafce(%rip),%eax        # 1b60a <g_145>
   1063c:	48 0f bf c0          	movswq %ax,%rax
   10640:	8b 55 fc             	mov    -0x4(%rbp),%edx
   10643:	48 8d 35 8d 28 00 00 	lea    0x288d(%rip),%rsi        # 12ed7 <g_3093+0xe2f>
   1064a:	48 89 c7             	mov    %rax,%rdi
   1064d:	e8 a1 a0 ff ff       	callq  a6f3 <transparent_crc>
   10652:	0f b6 05 70 5a 00 00 	movzbl 0x5a70(%rip),%eax        # 160c9 <g_157>
   10659:	0f b6 c0             	movzbl %al,%eax
   1065c:	8b 55 fc             	mov    -0x4(%rbp),%edx
   1065f:	48 8d 35 77 28 00 00 	lea    0x2877(%rip),%rsi        # 12edd <g_3093+0xe35>
   10666:	48 89 c7             	mov    %rax,%rdi
   10669:	e8 85 a0 ff ff       	callq  a6f3 <transparent_crc>
   1066e:	8b 05 58 5a 00 00    	mov    0x5a58(%rip),%eax        # 160cc <g_175>
   10674:	89 c1                	mov    %eax,%ecx
   10676:	8b 45 fc             	mov    -0x4(%rbp),%eax
   10679:	89 c2                	mov    %eax,%edx
   1067b:	48 8d 35 61 28 00 00 	lea    0x2861(%rip),%rsi        # 12ee3 <g_3093+0xe3b>
   10682:	48 89 cf             	mov    %rcx,%rdi
   10685:	e8 69 a0 ff ff       	callq  a6f3 <transparent_crc>
   1068a:	0f b7 05 3f 5a 00 00 	movzwl 0x5a3f(%rip),%eax        # 160d0 <g_176>
   10691:	0f b7 c0             	movzwl %ax,%eax
   10694:	8b 55 fc             	mov    -0x4(%rbp),%edx
   10697:	48 8d 35 4b 28 00 00 	lea    0x284b(%rip),%rsi        # 12ee9 <g_3093+0xe41>
   1069e:	48 89 c7             	mov    %rax,%rdi
   106a1:	e8 4d a0 ff ff       	callq  a6f3 <transparent_crc>
   106a6:	0f b6 05 25 5a 00 00 	movzbl 0x5a25(%rip),%eax        # 160d2 <g_181>
   106ad:	0f b6 c0             	movzbl %al,%eax
   106b0:	8b 55 fc             	mov    -0x4(%rbp),%edx
   106b3:	48 8d 35 35 28 00 00 	lea    0x2835(%rip),%rsi        # 12eef <g_3093+0xe47>
   106ba:	48 89 c7             	mov    %rax,%rdi
   106bd:	e8 31 a0 ff ff       	callq  a6f3 <transparent_crc>
   106c2:	48 8b 05 0f 5a 00 00 	mov    0x5a0f(%rip),%rax        # 160d8 <g_184>
   106c9:	8b 55 fc             	mov    -0x4(%rbp),%edx
   106cc:	48 8d 35 22 28 00 00 	lea    0x2822(%rip),%rsi        # 12ef5 <g_3093+0xe4d>
   106d3:	48 89 c7             	mov    %rax,%rdi
   106d6:	e8 18 a0 ff ff       	callq  a6f3 <transparent_crc>
   106db:	48 8b 05 fe 59 00 00 	mov    0x59fe(%rip),%rax        # 160e0 <g_233>
   106e2:	8b 55 fc             	mov    -0x4(%rbp),%edx
   106e5:	48 8d 35 0f 28 00 00 	lea    0x280f(%rip),%rsi        # 12efb <g_3093+0xe53>
   106ec:	48 89 c7             	mov    %rax,%rdi
   106ef:	e8 ff 9f ff ff       	callq  a6f3 <transparent_crc>
   106f4:	0f b6 05 ed 59 00 00 	movzbl 0x59ed(%rip),%eax        # 160e8 <g_252>
   106fb:	83 e0 1f             	and    $0x1f,%eax
   106fe:	0f b6 c0             	movzbl %al,%eax
   10701:	8b 55 fc             	mov    -0x4(%rbp),%edx
   10704:	48 8d 35 f6 27 00 00 	lea    0x27f6(%rip),%rsi        # 12f01 <g_3093+0xe59>
   1070b:	48 89 c7             	mov    %rax,%rdi
   1070e:	e8 e0 9f ff ff       	callq  a6f3 <transparent_crc>
   10713:	0f b6 05 d6 59 00 00 	movzbl 0x59d6(%rip),%eax        # 160f0 <g_315>
   1071a:	48 0f be c0          	movsbq %al,%rax
   1071e:	8b 55 fc             	mov    -0x4(%rbp),%edx
   10721:	48 8d 35 e2 27 00 00 	lea    0x27e2(%rip),%rsi        # 12f0a <g_3093+0xe62>
   10728:	48 89 c7             	mov    %rax,%rdi
   1072b:	e8 c3 9f ff ff       	callq  a6f3 <transparent_crc>
   10730:	c7 45 f0 00 00 00 00 	movl   $0x0,-0x10(%rbp)
   10737:	e9 b8 00 00 00       	jmpq   107f4 <main+0x393>
   1073c:	c7 45 f4 00 00 00 00 	movl   $0x0,-0xc(%rbp)
   10743:	e9 9e 00 00 00       	jmpq   107e6 <main+0x385>
   10748:	c7 45 f8 00 00 00 00 	movl   $0x0,-0x8(%rbp)
   1074f:	e9 84 00 00 00       	jmpq   107d8 <main+0x377>
   10754:	8b 45 f8             	mov    -0x8(%rbp),%eax
   10757:	48 63 f0             	movslq %eax,%rsi
   1075a:	8b 45 f0             	mov    -0x10(%rbp),%eax
   1075d:	48 98                	cltq   
   1075f:	8b 55 f4             	mov    -0xc(%rbp),%edx
   10762:	48 63 ca             	movslq %edx,%rcx
   10765:	48 89 c2             	mov    %rax,%rdx
   10768:	48 c1 e2 03          	shl    $0x3,%rdx
   1076c:	48 01 c2             	add    %rax,%rdx
   1076f:	48 8d 04 95 00 00 00 	lea    0x0(,%rdx,4),%rax
   10776:	00 
   10777:	48 89 c2             	mov    %rax,%rdx
   1077a:	48 89 c8             	mov    %rcx,%rax
   1077d:	48 01 c0             	add    %rax,%rax
   10780:	48 01 c8             	add    %rcx,%rax
   10783:	48 01 c0             	add    %rax,%rax
   10786:	48 01 d0             	add    %rdx,%rax
   10789:	48 01 f0             	add    %rsi,%rax
   1078c:	48 8d 14 85 00 00 00 	lea    0x0(,%rax,4),%rdx
   10793:	00 
   10794:	48 8d 05 65 59 00 00 	lea    0x5965(%rip),%rax        # 16100 <g_352>
   1079b:	8b 04 02             	mov    (%rdx,%rax,1),%eax
   1079e:	48 98                	cltq   
   107a0:	8b 55 fc             	mov    -0x4(%rbp),%edx
   107a3:	48 8d 35 66 27 00 00 	lea    0x2766(%rip),%rsi        # 12f10 <g_3093+0xe68>
   107aa:	48 89 c7             	mov    %rax,%rdi
   107ad:	e8 41 9f ff ff       	callq  a6f3 <transparent_crc>
   107b2:	83 7d fc 00          	cmpl   $0x0,-0x4(%rbp)
   107b6:	74 1c                	je     107d4 <main+0x373>
   107b8:	8b 4d f8             	mov    -0x8(%rbp),%ecx
   107bb:	8b 55 f4             	mov    -0xc(%rbp),%edx
   107be:	8b 45 f0             	mov    -0x10(%rbp),%eax
   107c1:	89 c6                	mov    %eax,%esi
   107c3:	48 8d 3d 55 27 00 00 	lea    0x2755(%rip),%rdi        # 12f1f <g_3093+0xe77>
   107ca:	b8 00 00 00 00       	mov    $0x0,%eax
   107cf:	e8 ac 88 ff ff       	callq  9080 <printf@plt>
   107d4:	83 45 f8 01          	addl   $0x1,-0x8(%rbp)
   107d8:	83 7d f8 05          	cmpl   $0x5,-0x8(%rbp)
   107dc:	0f 8e 72 ff ff ff    	jle    10754 <main+0x2f3>
   107e2:	83 45 f4 01          	addl   $0x1,-0xc(%rbp)
   107e6:	83 7d f4 05          	cmpl   $0x5,-0xc(%rbp)
   107ea:	0f 8e 58 ff ff ff    	jle    10748 <main+0x2e7>
   107f0:	83 45 f0 01          	addl   $0x1,-0x10(%rbp)
   107f4:	83 7d f0 05          	cmpl   $0x5,-0x10(%rbp)
   107f8:	0f 8e 3e ff ff ff    	jle    1073c <main+0x2db>
   107fe:	8b 05 5c 5c 00 00    	mov    0x5c5c(%rip),%eax        # 16460 <g_359>
   10804:	89 c1                	mov    %eax,%ecx
   10806:	8b 45 fc             	mov    -0x4(%rbp),%eax
   10809:	89 c2                	mov    %eax,%edx
   1080b:	48 8d 35 23 27 00 00 	lea    0x2723(%rip),%rsi        # 12f35 <g_3093+0xe8d>
   10812:	48 89 cf             	mov    %rcx,%rdi
   10815:	e8 d9 9e ff ff       	callq  a6f3 <transparent_crc>
   1081a:	b8 05 00 00 00       	mov    $0x5,%eax
   1081f:	0f b6 c0             	movzbl %al,%eax
   10822:	8b 55 fc             	mov    -0x4(%rbp),%edx
   10825:	48 8d 35 0f 27 00 00 	lea    0x270f(%rip),%rsi        # 12f3b <g_3093+0xe93>
   1082c:	48 89 c7             	mov    %rax,%rdi
   1082f:	e8 bf 9e ff ff       	callq  a6f3 <transparent_crc>
   10834:	b8 80 1c 2a ce       	mov    $0xce2a1c80,%eax
   10839:	48 98                	cltq   
   1083b:	8b 55 fc             	mov    -0x4(%rbp),%edx
   1083e:	48 8d 35 ff 26 00 00 	lea    0x26ff(%rip),%rsi        # 12f44 <g_3093+0xe9c>
   10845:	48 89 c7             	mov    %rax,%rdi
   10848:	e8 a6 9e ff ff       	callq  a6f3 <transparent_crc>
   1084d:	48 8b 05 14 5c 00 00 	mov    0x5c14(%rip),%rax        # 16468 <g_521>
   10854:	8b 55 fc             	mov    -0x4(%rbp),%edx
   10857:	48 8d 35 ec 26 00 00 	lea    0x26ec(%rip),%rsi        # 12f4a <g_3093+0xea2>
   1085e:	48 89 c7             	mov    %rax,%rdi
   10861:	e8 8d 9e ff ff       	callq  a6f3 <transparent_crc>
   10866:	c7 45 f0 00 00 00 00 	movl   $0x0,-0x10(%rbp)
   1086d:	e9 9d 00 00 00       	jmpq   1090f <main+0x4ae>
   10872:	c7 45 f4 00 00 00 00 	movl   $0x0,-0xc(%rbp)
   10879:	e9 83 00 00 00       	jmpq   10901 <main+0x4a0>
   1087e:	c7 45 f8 00 00 00 00 	movl   $0x0,-0x8(%rbp)
   10885:	eb 70                	jmp    108f7 <main+0x496>
   10887:	8b 45 f8             	mov    -0x8(%rbp),%eax
   1088a:	48 63 c8             	movslq %eax,%rcx
   1088d:	8b 45 f0             	mov    -0x10(%rbp),%eax
   10890:	48 63 d0             	movslq %eax,%rdx
   10893:	8b 45 f4             	mov    -0xc(%rbp),%eax
   10896:	48 63 f0             	movslq %eax,%rsi
   10899:	48 89 d0             	mov    %rdx,%rax
   1089c:	48 c1 e0 03          	shl    $0x3,%rax
   108a0:	48 29 d0             	sub    %rdx,%rax
   108a3:	48 01 f0             	add    %rsi,%rax
   108a6:	48 01 c0             	add    %rax,%rax
   108a9:	48 01 c8             	add    %rcx,%rax
   108ac:	48 8d 14 c5 00 00 00 	lea    0x0(,%rax,8),%rdx
   108b3:	00 
   108b4:	48 8d 05 c5 5b 00 00 	lea    0x5bc5(%rip),%rax        # 16480 <g_539>
   108bb:	48 8b 04 02          	mov    (%rdx,%rax,1),%rax
   108bf:	8b 55 fc             	mov    -0x4(%rbp),%edx
   108c2:	48 8d 35 87 26 00 00 	lea    0x2687(%rip),%rsi        # 12f50 <g_3093+0xea8>
   108c9:	48 89 c7             	mov    %rax,%rdi
   108cc:	e8 22 9e ff ff       	callq  a6f3 <transparent_crc>
   108d1:	83 7d fc 00          	cmpl   $0x0,-0x4(%rbp)
   108d5:	74 1c                	je     108f3 <main+0x492>
   108d7:	8b 4d f8             	mov    -0x8(%rbp),%ecx
   108da:	8b 55 f4             	mov    -0xc(%rbp),%edx
   108dd:	8b 45 f0             	mov    -0x10(%rbp),%eax
   108e0:	89 c6                	mov    %eax,%esi
   108e2:	48 8d 3d 36 26 00 00 	lea    0x2636(%rip),%rdi        # 12f1f <g_3093+0xe77>
   108e9:	b8 00 00 00 00       	mov    $0x0,%eax
   108ee:	e8 8d 87 ff ff       	callq  9080 <printf@plt>
   108f3:	83 45 f8 01          	addl   $0x1,-0x8(%rbp)
   108f7:	83 7d f8 01          	cmpl   $0x1,-0x8(%rbp)
   108fb:	7e 8a                	jle    10887 <main+0x426>
   108fd:	83 45 f4 01          	addl   $0x1,-0xc(%rbp)
   10901:	83 7d f4 06          	cmpl   $0x6,-0xc(%rbp)
   10905:	0f 8e 73 ff ff ff    	jle    1087e <main+0x41d>
   1090b:	83 45 f0 01          	addl   $0x1,-0x10(%rbp)
   1090f:	83 7d f0 01          	cmpl   $0x1,-0x10(%rbp)
   10913:	0f 8e 59 ff ff ff    	jle    10872 <main+0x411>
   10919:	48 8b 05 00 ad 00 00 	mov    0xad00(%rip),%rax        # 1b620 <g_541>
   10920:	8b 55 fc             	mov    -0x4(%rbp),%edx
   10923:	48 8d 35 35 26 00 00 	lea    0x2635(%rip),%rsi        # 12f5f <g_3093+0xeb7>
   1092a:	48 89 c7             	mov    %rax,%rdi
   1092d:	e8 c1 9d ff ff       	callq  a6f3 <transparent_crc>
   10932:	48 8b 05 27 5c 00 00 	mov    0x5c27(%rip),%rax        # 16560 <g_544>
   10939:	8b 55 fc             	mov    -0x4(%rbp),%edx
   1093c:	48 8d 35 22 26 00 00 	lea    0x2622(%rip),%rsi        # 12f65 <g_3093+0xebd>
   10943:	48 89 c7             	mov    %rax,%rdi
   10946:	e8 a8 9d ff ff       	callq  a6f3 <transparent_crc>
   1094b:	0f b6 05 16 5c 00 00 	movzbl 0x5c16(%rip),%eax        # 16568 <g_559>
   10952:	83 e0 1f             	and    $0x1f,%eax
   10955:	0f b6 c0             	movzbl %al,%eax
   10958:	8b 55 fc             	mov    -0x4(%rbp),%edx
   1095b:	48 8d 35 09 26 00 00 	lea    0x2609(%rip),%rsi        # 12f6b <g_3093+0xec3>
   10962:	48 89 c7             	mov    %rax,%rdi
   10965:	e8 89 9d ff ff       	callq  a6f3 <transparent_crc>
   1096a:	b8 01 00 00 00       	mov    $0x1,%eax
   1096f:	0f b6 c0             	movzbl %al,%eax
   10972:	8b 55 fc             	mov    -0x4(%rbp),%edx
   10975:	48 8d 35 f8 25 00 00 	lea    0x25f8(%rip),%rsi        # 12f74 <g_3093+0xecc>
   1097c:	48 89 c7             	mov    %rax,%rdi
   1097f:	e8 6f 9d ff ff       	callq  a6f3 <transparent_crc>
   10984:	48 8b 05 e5 5b 00 00 	mov    0x5be5(%rip),%rax        # 16570 <g_679>
   1098b:	83 e0 1f             	and    $0x1f,%eax
   1098e:	0f b6 c0             	movzbl %al,%eax
   10991:	8b 55 fc             	mov    -0x4(%rbp),%edx
   10994:	48 8d 35 e2 25 00 00 	lea    0x25e2(%rip),%rsi        # 12f7d <g_3093+0xed5>
   1099b:	48 89 c7             	mov    %rax,%rdi
   1099e:	e8 50 9d ff ff       	callq  a6f3 <transparent_crc>
   109a3:	48 8b 05 ce 5b 00 00 	mov    0x5bce(%rip),%rax        # 16578 <g_826>
   109aa:	83 e0 1f             	and    $0x1f,%eax
   109ad:	0f b6 c0             	movzbl %al,%eax
   109b0:	8b 55 fc             	mov    -0x4(%rbp),%edx
   109b3:	48 8d 35 cc 25 00 00 	lea    0x25cc(%rip),%rsi        # 12f86 <g_3093+0xede>
   109ba:	48 89 c7             	mov    %rax,%rdi
   109bd:	e8 31 9d ff ff       	callq  a6f3 <transparent_crc>
   109c2:	0f b6 05 b7 5b 00 00 	movzbl 0x5bb7(%rip),%eax        # 16580 <g_849>
   109c9:	83 e0 1f             	and    $0x1f,%eax
   109cc:	0f b6 c0             	movzbl %al,%eax
   109cf:	8b 55 fc             	mov    -0x4(%rbp),%edx
   109d2:	48 8d 35 b6 25 00 00 	lea    0x25b6(%rip),%rsi        # 12f8f <g_3093+0xee7>
   109d9:	48 89 c7             	mov    %rax,%rdi
   109dc:	e8 12 9d ff ff       	callq  a6f3 <transparent_crc>
   109e1:	0f b7 05 a0 5b 00 00 	movzwl 0x5ba0(%rip),%eax        # 16588 <g_915>
   109e8:	48 0f bf c0          	movswq %ax,%rax
   109ec:	8b 55 fc             	mov    -0x4(%rbp),%edx
   109ef:	48 8d 35 a2 25 00 00 	lea    0x25a2(%rip),%rsi        # 12f98 <g_3093+0xef0>
   109f6:	48 89 c7             	mov    %rax,%rdi
   109f9:	e8 f5 9c ff ff       	callq  a6f3 <transparent_crc>
   109fe:	c7 45 f0 00 00 00 00 	movl   $0x0,-0x10(%rbp)
   10a05:	eb 4a                	jmp    10a51 <main+0x5f0>
   10a07:	8b 45 f0             	mov    -0x10(%rbp),%eax
   10a0a:	48 98                	cltq   
   10a0c:	48 8d 14 00          	lea    (%rax,%rax,1),%rdx
   10a10:	48 8d 05 73 5b 00 00 	lea    0x5b73(%rip),%rax        # 1658a <g_920>
   10a17:	0f b7 04 02          	movzwl (%rdx,%rax,1),%eax
   10a1b:	48 0f bf c0          	movswq %ax,%rax
   10a1f:	8b 55 fc             	mov    -0x4(%rbp),%edx
   10a22:	48 8d 35 75 25 00 00 	lea    0x2575(%rip),%rsi        # 12f9e <g_3093+0xef6>
   10a29:	48 89 c7             	mov    %rax,%rdi
   10a2c:	e8 c2 9c ff ff       	callq  a6f3 <transparent_crc>
   10a31:	83 7d fc 00          	cmpl   $0x0,-0x4(%rbp)
   10a35:	74 16                	je     10a4d <main+0x5ec>
   10a37:	8b 45 f0             	mov    -0x10(%rbp),%eax
   10a3a:	89 c6                	mov    %eax,%esi
   10a3c:	48 8d 3d 64 25 00 00 	lea    0x2564(%rip),%rdi        # 12fa7 <g_3093+0xeff>
   10a43:	b8 00 00 00 00       	mov    $0x0,%eax
   10a48:	e8 33 86 ff ff       	callq  9080 <printf@plt>
   10a4d:	83 45 f0 01          	addl   $0x1,-0x10(%rbp)
   10a51:	83 7d f0 02          	cmpl   $0x2,-0x10(%rbp)
   10a55:	7e b0                	jle    10a07 <main+0x5a6>
   10a57:	c7 45 f0 00 00 00 00 	movl   $0x0,-0x10(%rbp)
   10a5e:	eb 73                	jmp    10ad3 <main+0x672>
   10a60:	c7 45 f4 00 00 00 00 	movl   $0x0,-0xc(%rbp)
   10a67:	eb 60                	jmp    10ac9 <main+0x668>
   10a69:	8b 45 f4             	mov    -0xc(%rbp),%eax
   10a6c:	48 98                	cltq   
   10a6e:	8b 55 f0             	mov    -0x10(%rbp),%edx
   10a71:	48 63 d2             	movslq %edx,%rdx
   10a74:	48 c1 e2 03          	shl    $0x3,%rdx
   10a78:	48 01 d0             	add    %rdx,%rax
   10a7b:	48 8d 14 c5 00 00 00 	lea    0x0(,%rax,8),%rdx
   10a82:	00 
   10a83:	48 8d 05 16 5b 00 00 	lea    0x5b16(%rip),%rax        # 165a0 <g_960>
   10a8a:	48 8b 04 02          	mov    (%rdx,%rax,1),%rax
   10a8e:	83 e0 1f             	and    $0x1f,%eax
   10a91:	0f b6 c0             	movzbl %al,%eax
   10a94:	8b 55 fc             	mov    -0x4(%rbp),%edx
   10a97:	48 8d 35 17 25 00 00 	lea    0x2517(%rip),%rsi        # 12fb5 <g_3093+0xf0d>
   10a9e:	48 89 c7             	mov    %rax,%rdi
   10aa1:	e8 4d 9c ff ff       	callq  a6f3 <transparent_crc>
   10aa6:	83 7d fc 00          	cmpl   $0x0,-0x4(%rbp)
   10aaa:	74 19                	je     10ac5 <main+0x664>
   10aac:	8b 55 f4             	mov    -0xc(%rbp),%edx
   10aaf:	8b 45 f0             	mov    -0x10(%rbp),%eax
   10ab2:	89 c6                	mov    %eax,%esi
   10ab4:	48 8d 3d d9 23 00 00 	lea    0x23d9(%rip),%rdi        # 12e94 <g_3093+0xdec>
   10abb:	b8 00 00 00 00       	mov    $0x0,%eax
   10ac0:	e8 bb 85 ff ff       	callq  9080 <printf@plt>
   10ac5:	83 45 f4 01          	addl   $0x1,-0xc(%rbp)
   10ac9:	83 7d f4 07          	cmpl   $0x7,-0xc(%rbp)
   10acd:	7e 9a                	jle    10a69 <main+0x608>
   10acf:	83 45 f0 01          	addl   $0x1,-0x10(%rbp)
   10ad3:	83 7d f0 00          	cmpl   $0x0,-0x10(%rbp)
   10ad7:	7e 87                	jle    10a60 <main+0x5ff>
   10ad9:	0f b6 05 00 5b 00 00 	movzbl 0x5b00(%rip),%eax        # 165e0 <g_963>
   10ae0:	83 e0 1f             	and    $0x1f,%eax
   10ae3:	0f b6 c0             	movzbl %al,%eax
   10ae6:	8b 55 fc             	mov    -0x4(%rbp),%edx
   10ae9:	48 8d 35 d4 24 00 00 	lea    0x24d4(%rip),%rsi        # 12fc4 <g_3093+0xf1c>
   10af0:	48 89 c7             	mov    %rax,%rdi
   10af3:	e8 fb 9b ff ff       	callq  a6f3 <transparent_crc>
   10af8:	48 8b 05 e9 5a 00 00 	mov    0x5ae9(%rip),%rax        # 165e8 <g_1034>
   10aff:	83 e0 1f             	and    $0x1f,%eax
   10b02:	0f b6 c0             	movzbl %al,%eax
   10b05:	8b 55 fc             	mov    -0x4(%rbp),%edx
   10b08:	48 8d 35 be 24 00 00 	lea    0x24be(%rip),%rsi        # 12fcd <g_3093+0xf25>
   10b0f:	48 89 c7             	mov    %rax,%rdi
   10b12:	e8 dc 9b ff ff       	callq  a6f3 <transparent_crc>
   10b17:	c7 45 f0 00 00 00 00 	movl   $0x0,-0x10(%rbp)
   10b1e:	e9 9f 00 00 00       	jmpq   10bc2 <main+0x761>
   10b23:	c7 45 f4 00 00 00 00 	movl   $0x0,-0xc(%rbp)
   10b2a:	e9 85 00 00 00       	jmpq   10bb4 <main+0x753>
   10b2f:	c7 45 f8 00 00 00 00 	movl   $0x0,-0x8(%rbp)
   10b36:	eb 72                	jmp    10baa <main+0x749>
   10b38:	8b 45 f8             	mov    -0x8(%rbp),%eax
   10b3b:	48 63 c8             	movslq %eax,%rcx
   10b3e:	8b 45 f0             	mov    -0x10(%rbp),%eax
   10b41:	48 63 d0             	movslq %eax,%rdx
   10b44:	8b 45 f4             	mov    -0xc(%rbp),%eax
   10b47:	48 63 f0             	movslq %eax,%rsi
   10b4a:	48 89 d0             	mov    %rdx,%rax
   10b4d:	48 01 c0             	add    %rax,%rax
   10b50:	48 01 d0             	add    %rdx,%rax
   10b53:	48 01 c0             	add    %rax,%rax
   10b56:	48 01 f0             	add    %rsi,%rax
   10b59:	48 c1 e0 02          	shl    $0x2,%rax
   10b5d:	48 01 c8             	add    %rcx,%rax
   10b60:	48 8d 14 00          	lea    (%rax,%rax,1),%rdx
   10b64:	48 8d 05 95 5a 00 00 	lea    0x5a95(%rip),%rax        # 16600 <g_1055>
   10b6b:	0f b7 04 02          	movzwl (%rdx,%rax,1),%eax
   10b6f:	0f b7 c0             	movzwl %ax,%eax
   10b72:	8b 55 fc             	mov    -0x4(%rbp),%edx
   10b75:	48 8d 35 5b 24 00 00 	lea    0x245b(%rip),%rsi        # 12fd7 <g_3093+0xf2f>
   10b7c:	48 89 c7             	mov    %rax,%rdi
   10b7f:	e8 6f 9b ff ff       	callq  a6f3 <transparent_crc>
   10b84:	83 7d fc 00          	cmpl   $0x0,-0x4(%rbp)
   10b88:	74 1c                	je     10ba6 <main+0x745>
   10b8a:	8b 4d f8             	mov    -0x8(%rbp),%ecx
   10b8d:	8b 55 f4             	mov    -0xc(%rbp),%edx
   10b90:	8b 45 f0             	mov    -0x10(%rbp),%eax
   10b93:	89 c6                	mov    %eax,%esi
   10b95:	48 8d 3d 83 23 00 00 	lea    0x2383(%rip),%rdi        # 12f1f <g_3093+0xe77>
   10b9c:	b8 00 00 00 00       	mov    $0x0,%eax
   10ba1:	e8 da 84 ff ff       	callq  9080 <printf@plt>
   10ba6:	83 45 f8 01          	addl   $0x1,-0x8(%rbp)
   10baa:	83 7d f8 03          	cmpl   $0x3,-0x8(%rbp)
   10bae:	7e 88                	jle    10b38 <main+0x6d7>
   10bb0:	83 45 f4 01          	addl   $0x1,-0xc(%rbp)
   10bb4:	83 7d f4 05          	cmpl   $0x5,-0xc(%rbp)
   10bb8:	0f 8e 71 ff ff ff    	jle    10b2f <main+0x6ce>
   10bbe:	83 45 f0 01          	addl   $0x1,-0x10(%rbp)
   10bc2:	83 7d f0 04          	cmpl   $0x4,-0x10(%rbp)
   10bc6:	0f 8e 57 ff ff ff    	jle    10b23 <main+0x6c2>
   10bcc:	c7 45 f0 00 00 00 00 	movl   $0x0,-0x10(%rbp)
   10bd3:	eb 7a                	jmp    10c4f <main+0x7ee>
   10bd5:	c7 45 f4 00 00 00 00 	movl   $0x0,-0xc(%rbp)
   10bdc:	eb 67                	jmp    10c45 <main+0x7e4>
   10bde:	8b 45 f4             	mov    -0xc(%rbp),%eax
   10be1:	48 63 c8             	movslq %eax,%rcx
   10be4:	8b 45 f0             	mov    -0x10(%rbp),%eax
   10be7:	48 63 d0             	movslq %eax,%rdx
   10bea:	48 89 d0             	mov    %rdx,%rax
   10bed:	48 c1 e0 02          	shl    $0x2,%rax
   10bf1:	48 01 d0             	add    %rdx,%rax
   10bf4:	48 01 c8             	add    %rcx,%rax
   10bf7:	48 8d 14 c5 00 00 00 	lea    0x0(,%rax,8),%rdx
   10bfe:	00 
   10bff:	48 8d 05 fa 5a 00 00 	lea    0x5afa(%rip),%rax        # 16700 <g_1204>
   10c06:	0f b6 04 02          	movzbl (%rdx,%rax,1),%eax
   10c0a:	83 e0 1f             	and    $0x1f,%eax
   10c0d:	0f b6 c0             	movzbl %al,%eax
   10c10:	8b 55 fc             	mov    -0x4(%rbp),%edx
   10c13:	48 8d 35 cd 23 00 00 	lea    0x23cd(%rip),%rsi        # 12fe7 <g_3093+0xf3f>
   10c1a:	48 89 c7             	mov    %rax,%rdi
   10c1d:	e8 d1 9a ff ff       	callq  a6f3 <transparent_crc>
   10c22:	83 7d fc 00          	cmpl   $0x0,-0x4(%rbp)
   10c26:	74 19                	je     10c41 <main+0x7e0>
   10c28:	8b 55 f4             	mov    -0xc(%rbp),%edx
   10c2b:	8b 45 f0             	mov    -0x10(%rbp),%eax
   10c2e:	89 c6                	mov    %eax,%esi
   10c30:	48 8d 3d 5d 22 00 00 	lea    0x225d(%rip),%rdi        # 12e94 <g_3093+0xdec>
   10c37:	b8 00 00 00 00       	mov    $0x0,%eax
   10c3c:	e8 3f 84 ff ff       	callq  9080 <printf@plt>
   10c41:	83 45 f4 01          	addl   $0x1,-0xc(%rbp)
   10c45:	83 7d f4 04          	cmpl   $0x4,-0xc(%rbp)
   10c49:	7e 93                	jle    10bde <main+0x77d>
   10c4b:	83 45 f0 01          	addl   $0x1,-0x10(%rbp)
   10c4f:	83 7d f0 03          	cmpl   $0x3,-0x10(%rbp)
   10c53:	7e 80                	jle    10bd5 <main+0x774>
   10c55:	0f b7 05 44 5b 00 00 	movzwl 0x5b44(%rip),%eax        # 167a0 <g_1317>
   10c5c:	48 0f bf c0          	movswq %ax,%rax
   10c60:	8b 55 fc             	mov    -0x4(%rbp),%edx
   10c63:	48 8d 35 8d 23 00 00 	lea    0x238d(%rip),%rsi        # 12ff7 <g_3093+0xf4f>
   10c6a:	48 89 c7             	mov    %rax,%rdi
   10c6d:	e8 81 9a ff ff       	callq  a6f3 <transparent_crc>
   10c72:	48 8b 05 2f 5b 00 00 	mov    0x5b2f(%rip),%rax        # 167a8 <g_1400>
   10c79:	83 e0 1f             	and    $0x1f,%eax
   10c7c:	0f b6 c0             	movzbl %al,%eax
   10c7f:	8b 55 fc             	mov    -0x4(%rbp),%edx
   10c82:	48 8d 35 75 23 00 00 	lea    0x2375(%rip),%rsi        # 12ffe <g_3093+0xf56>
   10c89:	48 89 c7             	mov    %rax,%rdi
   10c8c:	e8 62 9a ff ff       	callq  a6f3 <transparent_crc>
   10c91:	c7 45 f0 00 00 00 00 	movl   $0x0,-0x10(%rbp)
   10c98:	e9 b6 00 00 00       	jmpq   10d53 <main+0x8f2>
   10c9d:	c7 45 f4 00 00 00 00 	movl   $0x0,-0xc(%rbp)
   10ca4:	e9 9c 00 00 00       	jmpq   10d45 <main+0x8e4>
   10ca9:	c7 45 f8 00 00 00 00 	movl   $0x0,-0x8(%rbp)
   10cb0:	e9 82 00 00 00       	jmpq   10d37 <main+0x8d6>
   10cb5:	8b 45 f8             	mov    -0x8(%rbp),%eax
   10cb8:	48 63 f0             	movslq %eax,%rsi
   10cbb:	8b 45 f0             	mov    -0x10(%rbp),%eax
   10cbe:	48 63 d0             	movslq %eax,%rdx
   10cc1:	8b 45 f4             	mov    -0xc(%rbp),%eax
   10cc4:	48 63 c8             	movslq %eax,%rcx
   10cc7:	48 89 d0             	mov    %rdx,%rax
   10cca:	48 c1 e0 02          	shl    $0x2,%rax
   10cce:	48 01 d0             	add    %rdx,%rax
   10cd1:	48 c1 e0 02          	shl    $0x2,%rax
   10cd5:	48 01 d0             	add    %rdx,%rax
   10cd8:	48 01 c0             	add    %rax,%rax
   10cdb:	48 89 ca             	mov    %rcx,%rdx
   10cde:	48 c1 e2 03          	shl    $0x3,%rdx
   10ce2:	48 29 ca             	sub    %rcx,%rdx
   10ce5:	48 01 d0             	add    %rdx,%rax
   10ce8:	48 01 f0             	add    %rsi,%rax
   10ceb:	48 8d 14 85 00 00 00 	lea    0x0(,%rax,4),%rdx
   10cf2:	00 
   10cf3:	48 8d 05 c6 5a 00 00 	lea    0x5ac6(%rip),%rax        # 167c0 <g_1425>
   10cfa:	8b 04 02             	mov    (%rdx,%rax,1),%eax
   10cfd:	48 98                	cltq   
   10cff:	8b 55 fc             	mov    -0x4(%rbp),%edx
   10d02:	48 8d 35 ff 22 00 00 	lea    0x22ff(%rip),%rsi        # 13008 <g_3093+0xf60>
   10d09:	48 89 c7             	mov    %rax,%rdi
   10d0c:	e8 e2 99 ff ff       	callq  a6f3 <transparent_crc>
   10d11:	83 7d fc 00          	cmpl   $0x0,-0x4(%rbp)
   10d15:	74 1c                	je     10d33 <main+0x8d2>
   10d17:	8b 4d f8             	mov    -0x8(%rbp),%ecx
   10d1a:	8b 55 f4             	mov    -0xc(%rbp),%edx
   10d1d:	8b 45 f0             	mov    -0x10(%rbp),%eax
   10d20:	89 c6                	mov    %eax,%esi
   10d22:	48 8d 3d f6 21 00 00 	lea    0x21f6(%rip),%rdi        # 12f1f <g_3093+0xe77>
   10d29:	b8 00 00 00 00       	mov    $0x0,%eax
   10d2e:	e8 4d 83 ff ff       	callq  9080 <printf@plt>
   10d33:	83 45 f8 01          	addl   $0x1,-0x8(%rbp)
   10d37:	83 7d f8 06          	cmpl   $0x6,-0x8(%rbp)
   10d3b:	0f 8e 74 ff ff ff    	jle    10cb5 <main+0x854>
   10d41:	83 45 f4 01          	addl   $0x1,-0xc(%rbp)
   10d45:	83 7d f4 05          	cmpl   $0x5,-0xc(%rbp)
   10d49:	0f 8e 5a ff ff ff    	jle    10ca9 <main+0x848>
   10d4f:	83 45 f0 01          	addl   $0x1,-0x10(%rbp)
   10d53:	83 7d f0 02          	cmpl   $0x2,-0x10(%rbp)
   10d57:	0f 8e 40 ff ff ff    	jle    10c9d <main+0x83c>
   10d5d:	48 8b 05 54 5c 00 00 	mov    0x5c54(%rip),%rax        # 169b8 <g_1508>
   10d64:	83 e0 1f             	and    $0x1f,%eax
   10d67:	0f b6 c0             	movzbl %al,%eax
   10d6a:	8b 55 fc             	mov    -0x4(%rbp),%edx
   10d6d:	48 8d 35 a4 22 00 00 	lea    0x22a4(%rip),%rsi        # 13018 <g_3093+0xf70>
   10d74:	48 89 c7             	mov    %rax,%rdi
   10d77:	e8 77 99 ff ff       	callq  a6f3 <transparent_crc>
   10d7c:	48 8b 05 3d 5c 00 00 	mov    0x5c3d(%rip),%rax        # 169c0 <g_1682>
   10d83:	83 e0 1f             	and    $0x1f,%eax
   10d86:	0f b6 c0             	movzbl %al,%eax
   10d89:	8b 55 fc             	mov    -0x4(%rbp),%edx
   10d8c:	48 8d 35 8f 22 00 00 	lea    0x228f(%rip),%rsi        # 13022 <g_3093+0xf7a>
   10d93:	48 89 c7             	mov    %rax,%rdi
   10d96:	e8 58 99 ff ff       	callq  a6f3 <transparent_crc>
   10d9b:	0f b6 05 9e a8 00 00 	movzbl 0xa89e(%rip),%eax        # 1b640 <g_1759>
   10da2:	83 e0 1f             	and    $0x1f,%eax
   10da5:	0f b6 c0             	movzbl %al,%eax
   10da8:	8b 55 fc             	mov    -0x4(%rbp),%edx
   10dab:	48 8d 35 7a 22 00 00 	lea    0x227a(%rip),%rsi        # 1302c <g_3093+0xf84>
   10db2:	48 89 c7             	mov    %rax,%rdi
   10db5:	e8 39 99 ff ff       	callq  a6f3 <transparent_crc>
   10dba:	c7 45 f0 00 00 00 00 	movl   $0x0,-0x10(%rbp)
   10dc1:	e9 b0 00 00 00       	jmpq   10e76 <main+0xa15>
   10dc6:	c7 45 f4 00 00 00 00 	movl   $0x0,-0xc(%rbp)
   10dcd:	e9 96 00 00 00       	jmpq   10e68 <main+0xa07>
   10dd2:	c7 45 f8 00 00 00 00 	movl   $0x0,-0x8(%rbp)
   10dd9:	eb 7f                	jmp    10e5a <main+0x9f9>
   10ddb:	8b 45 f8             	mov    -0x8(%rbp),%eax
   10dde:	48 63 f0             	movslq %eax,%rsi
   10de1:	8b 45 f0             	mov    -0x10(%rbp),%eax
   10de4:	48 63 d0             	movslq %eax,%rdx
   10de7:	8b 45 f4             	mov    -0xc(%rbp),%eax
   10dea:	48 63 c8             	movslq %eax,%rcx
   10ded:	48 89 d0             	mov    %rdx,%rax
   10df0:	48 c1 e0 04          	shl    $0x4,%rax
   10df4:	48 29 d0             	sub    %rdx,%rax
   10df7:	48 01 c0             	add    %rax,%rax
   10dfa:	48 89 ca             	mov    %rcx,%rdx
   10dfd:	48 01 d2             	add    %rdx,%rdx
   10e00:	48 01 ca             	add    %rcx,%rdx
   10e03:	48 01 d0             	add    %rdx,%rax
   10e06:	48 01 f0             	add    %rsi,%rax
   10e09:	48 8d 14 c5 00 00 00 	lea    0x0(,%rax,8),%rdx
   10e10:	00 
   10e11:	48 8d 05 c8 5b 00 00 	lea    0x5bc8(%rip),%rax        # 169e0 <g_1761>
   10e18:	48 8b 04 02          	mov    (%rdx,%rax,1),%rax
   10e1c:	83 e0 1f             	and    $0x1f,%eax
   10e1f:	0f b6 c0             	movzbl %al,%eax
   10e22:	8b 55 fc             	mov    -0x4(%rbp),%edx
   10e25:	48 8d 35 0a 22 00 00 	lea    0x220a(%rip),%rsi        # 13036 <g_3093+0xf8e>
   10e2c:	48 89 c7             	mov    %rax,%rdi
   10e2f:	e8 bf 98 ff ff       	callq  a6f3 <transparent_crc>
   10e34:	83 7d fc 00          	cmpl   $0x0,-0x4(%rbp)
   10e38:	74 1c                	je     10e56 <main+0x9f5>
   10e3a:	8b 4d f8             	mov    -0x8(%rbp),%ecx
   10e3d:	8b 55 f4             	mov    -0xc(%rbp),%edx
   10e40:	8b 45 f0             	mov    -0x10(%rbp),%eax
   10e43:	89 c6                	mov    %eax,%esi
   10e45:	48 8d 3d d3 20 00 00 	lea    0x20d3(%rip),%rdi        # 12f1f <g_3093+0xe77>
   10e4c:	b8 00 00 00 00       	mov    $0x0,%eax
   10e51:	e8 2a 82 ff ff       	callq  9080 <printf@plt>
   10e56:	83 45 f8 01          	addl   $0x1,-0x8(%rbp)
   10e5a:	83 7d f8 02          	cmpl   $0x2,-0x8(%rbp)
   10e5e:	0f 8e 77 ff ff ff    	jle    10ddb <main+0x97a>
   10e64:	83 45 f4 01          	addl   $0x1,-0xc(%rbp)
   10e68:	83 7d f4 09          	cmpl   $0x9,-0xc(%rbp)
   10e6c:	0f 8e 60 ff ff ff    	jle    10dd2 <main+0x971>
   10e72:	83 45 f0 01          	addl   $0x1,-0x10(%rbp)
   10e76:	83 7d f0 07          	cmpl   $0x7,-0x10(%rbp)
   10e7a:	0f 8e 46 ff ff ff    	jle    10dc6 <main+0x965>
   10e80:	0f b6 05 d9 62 00 00 	movzbl 0x62d9(%rip),%eax        # 17160 <g_1796>
   10e87:	0f b6 c0             	movzbl %al,%eax
   10e8a:	8b 55 fc             	mov    -0x4(%rbp),%edx
   10e8d:	48 8d 35 b5 21 00 00 	lea    0x21b5(%rip),%rsi        # 13049 <g_3093+0xfa1>
   10e94:	48 89 c7             	mov    %rax,%rdi
   10e97:	e8 57 98 ff ff       	callq  a6f3 <transparent_crc>
   10e9c:	8b 05 c2 62 00 00    	mov    0x62c2(%rip),%eax        # 17164 <g_1815>
   10ea2:	89 c1                	mov    %eax,%ecx
   10ea4:	8b 45 fc             	mov    -0x4(%rbp),%eax
   10ea7:	89 c2                	mov    %eax,%edx
   10ea9:	48 8d 35 a0 21 00 00 	lea    0x21a0(%rip),%rsi        # 13050 <g_3093+0xfa8>
   10eb0:	48 89 cf             	mov    %rcx,%rdi
   10eb3:	e8 3b 98 ff ff       	callq  a6f3 <transparent_crc>
   10eb8:	8b 05 aa 62 00 00    	mov    0x62aa(%rip),%eax        # 17168 <g_1853>
   10ebe:	48 98                	cltq   
   10ec0:	8b 55 fc             	mov    -0x4(%rbp),%edx
   10ec3:	48 8d 35 8d 21 00 00 	lea    0x218d(%rip),%rsi        # 13057 <g_3093+0xfaf>
   10eca:	48 89 c7             	mov    %rax,%rdi
   10ecd:	e8 21 98 ff ff       	callq  a6f3 <transparent_crc>
   10ed2:	c7 45 f0 00 00 00 00 	movl   $0x0,-0x10(%rbp)
   10ed9:	eb 50                	jmp    10f2b <main+0xaca>
   10edb:	8b 45 f0             	mov    -0x10(%rbp),%eax
   10ede:	48 98                	cltq   
   10ee0:	48 8d 14 c5 00 00 00 	lea    0x0(,%rax,8),%rdx
   10ee7:	00 
   10ee8:	48 8d 05 71 a7 00 00 	lea    0xa771(%rip),%rax        # 1b660 <g_1948>
   10eef:	48 8b 04 02          	mov    (%rdx,%rax,1),%rax
   10ef3:	83 e0 1f             	and    $0x1f,%eax
   10ef6:	0f b6 c0             	movzbl %al,%eax
   10ef9:	8b 55 fc             	mov    -0x4(%rbp),%edx
   10efc:	48 8d 35 5b 21 00 00 	lea    0x215b(%rip),%rsi        # 1305e <g_3093+0xfb6>
   10f03:	48 89 c7             	mov    %rax,%rdi
   10f06:	e8 e8 97 ff ff       	callq  a6f3 <transparent_crc>
   10f0b:	83 7d fc 00          	cmpl   $0x0,-0x4(%rbp)
   10f0f:	74 16                	je     10f27 <main+0xac6>
   10f11:	8b 45 f0             	mov    -0x10(%rbp),%eax
   10f14:	89 c6                	mov    %eax,%esi
   10f16:	48 8d 3d 8a 20 00 00 	lea    0x208a(%rip),%rdi        # 12fa7 <g_3093+0xeff>
   10f1d:	b8 00 00 00 00       	mov    $0x0,%eax
   10f22:	e8 59 81 ff ff       	callq  9080 <printf@plt>
   10f27:	83 45 f0 01          	addl   $0x1,-0x10(%rbp)
   10f2b:	83 7d f0 05          	cmpl   $0x5,-0x10(%rbp)
   10f2f:	7e aa                	jle    10edb <main+0xa7a>
   10f31:	0f b7 05 34 62 00 00 	movzwl 0x6234(%rip),%eax        # 1716c <g_1962>
   10f38:	48 0f bf c0          	movswq %ax,%rax
   10f3c:	8b 55 fc             	mov    -0x4(%rbp),%edx
   10f3f:	48 8d 35 25 21 00 00 	lea    0x2125(%rip),%rsi        # 1306b <g_3093+0xfc3>
   10f46:	48 89 c7             	mov    %rax,%rdi
   10f49:	e8 a5 97 ff ff       	callq  a6f3 <transparent_crc>
   10f4e:	48 8b 05 1b 62 00 00 	mov    0x621b(%rip),%rax        # 17170 <g_2040>
   10f55:	83 e0 1f             	and    $0x1f,%eax
   10f58:	0f b6 c0             	movzbl %al,%eax
   10f5b:	8b 55 fc             	mov    -0x4(%rbp),%edx
   10f5e:	48 8d 35 0d 21 00 00 	lea    0x210d(%rip),%rsi        # 13072 <g_3093+0xfca>
   10f65:	48 89 c7             	mov    %rax,%rdi
   10f68:	e8 86 97 ff ff       	callq  a6f3 <transparent_crc>
   10f6d:	c7 45 f0 00 00 00 00 	movl   $0x0,-0x10(%rbp)
   10f74:	e9 89 00 00 00       	jmpq   11002 <main+0xba1>
   10f79:	c7 45 f4 00 00 00 00 	movl   $0x0,-0xc(%rbp)
   10f80:	eb 76                	jmp    10ff8 <main+0xb97>
   10f82:	c7 45 f8 00 00 00 00 	movl   $0x0,-0x8(%rbp)
   10f89:	eb 63                	jmp    10fee <main+0xb8d>
   10f8b:	8b 45 f8             	mov    -0x8(%rbp),%eax
   10f8e:	48 98                	cltq   
   10f90:	8b 55 f0             	mov    -0x10(%rbp),%edx
   10f93:	48 63 ca             	movslq %edx,%rcx
   10f96:	8b 55 f4             	mov    -0xc(%rbp),%edx
   10f99:	48 63 d2             	movslq %edx,%rdx
   10f9c:	48 01 ca             	add    %rcx,%rdx
   10f9f:	48 c1 e2 02          	shl    $0x2,%rdx
   10fa3:	48 01 c2             	add    %rax,%rdx
   10fa6:	48 8d 05 d3 10 00 00 	lea    0x10d3(%rip),%rax        # 12080 <g_2062>
   10fad:	48 01 d0             	add    %rdx,%rax
   10fb0:	0f b6 00             	movzbl (%rax),%eax
   10fb3:	0f b6 c0             	movzbl %al,%eax
   10fb6:	8b 55 fc             	mov    -0x4(%rbp),%edx
   10fb9:	48 8d 35 bc 20 00 00 	lea    0x20bc(%rip),%rsi        # 1307c <g_3093+0xfd4>
   10fc0:	48 89 c7             	mov    %rax,%rdi
   10fc3:	e8 2b 97 ff ff       	callq  a6f3 <transparent_crc>
   10fc8:	83 7d fc 00          	cmpl   $0x0,-0x4(%rbp)
   10fcc:	74 1c                	je     10fea <main+0xb89>
   10fce:	8b 4d f8             	mov    -0x8(%rbp),%ecx
   10fd1:	8b 55 f4             	mov    -0xc(%rbp),%edx
   10fd4:	8b 45 f0             	mov    -0x10(%rbp),%eax
   10fd7:	89 c6                	mov    %eax,%esi
   10fd9:	48 8d 3d 3f 1f 00 00 	lea    0x1f3f(%rip),%rdi        # 12f1f <g_3093+0xe77>
   10fe0:	b8 00 00 00 00       	mov    $0x0,%eax
   10fe5:	e8 96 80 ff ff       	callq  9080 <printf@plt>
   10fea:	83 45 f8 01          	addl   $0x1,-0x8(%rbp)
   10fee:	83 7d f8 03          	cmpl   $0x3,-0x8(%rbp)
   10ff2:	7e 97                	jle    10f8b <main+0xb2a>
   10ff4:	83 45 f4 01          	addl   $0x1,-0xc(%rbp)
   10ff8:	83 7d f4 00          	cmpl   $0x0,-0xc(%rbp)
   10ffc:	7e 84                	jle    10f82 <main+0xb21>
   10ffe:	83 45 f0 01          	addl   $0x1,-0x10(%rbp)
   11002:	83 7d f0 05          	cmpl   $0x5,-0x10(%rbp)
   11006:	0f 8e 6d ff ff ff    	jle    10f79 <main+0xb18>
   1100c:	8b 05 66 61 00 00    	mov    0x6166(%rip),%eax        # 17178 <g_2071>
   11012:	48 98                	cltq   
   11014:	8b 55 fc             	mov    -0x4(%rbp),%edx
   11017:	48 8d 35 6e 20 00 00 	lea    0x206e(%rip),%rsi        # 1308c <g_3093+0xfe4>
   1101e:	48 89 c7             	mov    %rax,%rdi
   11021:	e8 cd 96 ff ff       	callq  a6f3 <transparent_crc>
   11026:	b8 00 00 00 00       	mov    $0x0,%eax
   1102b:	48 98                	cltq   
   1102d:	8b 55 fc             	mov    -0x4(%rbp),%edx
   11030:	48 8d 35 5c 20 00 00 	lea    0x205c(%rip),%rsi        # 13093 <g_3093+0xfeb>
   11037:	48 89 c7             	mov    %rax,%rdi
   1103a:	e8 b4 96 ff ff       	callq  a6f3 <transparent_crc>
   1103f:	0f b6 05 3a 61 00 00 	movzbl 0x613a(%rip),%eax        # 17180 <g_2104>
   11046:	83 e0 1f             	and    $0x1f,%eax
   11049:	0f b6 c0             	movzbl %al,%eax
   1104c:	8b 55 fc             	mov    -0x4(%rbp),%edx
   1104f:	48 8d 35 44 20 00 00 	lea    0x2044(%rip),%rsi        # 1309a <g_3093+0xff2>
   11056:	48 89 c7             	mov    %rax,%rdi
   11059:	e8 95 96 ff ff       	callq  a6f3 <transparent_crc>
   1105e:	0f b6 05 23 61 00 00 	movzbl 0x6123(%rip),%eax        # 17188 <g_2132>
   11065:	83 e0 1f             	and    $0x1f,%eax
   11068:	0f b6 c0             	movzbl %al,%eax
   1106b:	8b 55 fc             	mov    -0x4(%rbp),%edx
   1106e:	48 8d 35 2f 20 00 00 	lea    0x202f(%rip),%rsi        # 130a4 <g_3093+0xffc>
   11075:	48 89 c7             	mov    %rax,%rdi
   11078:	e8 76 96 ff ff       	callq  a6f3 <transparent_crc>
   1107d:	c7 45 f0 00 00 00 00 	movl   $0x0,-0x10(%rbp)
   11084:	eb 7a                	jmp    11100 <main+0xc9f>
   11086:	c7 45 f4 00 00 00 00 	movl   $0x0,-0xc(%rbp)
   1108d:	eb 67                	jmp    110f6 <main+0xc95>
   1108f:	8b 45 f4             	mov    -0xc(%rbp),%eax
   11092:	48 63 c8             	movslq %eax,%rcx
   11095:	8b 45 f0             	mov    -0x10(%rbp),%eax
   11098:	48 63 d0             	movslq %eax,%rdx
   1109b:	48 89 d0             	mov    %rdx,%rax
   1109e:	48 c1 e0 03          	shl    $0x3,%rax
   110a2:	48 29 d0             	sub    %rdx,%rax
   110a5:	48 01 c8             	add    %rcx,%rax
   110a8:	48 8d 14 c5 00 00 00 	lea    0x0(,%rax,8),%rdx
   110af:	00 
   110b0:	48 8d 05 e9 60 00 00 	lea    0x60e9(%rip),%rax        # 171a0 <g_2236>
   110b7:	48 8b 04 02          	mov    (%rdx,%rax,1),%rax
   110bb:	83 e0 1f             	and    $0x1f,%eax
   110be:	0f b6 c0             	movzbl %al,%eax
   110c1:	8b 55 fc             	mov    -0x4(%rbp),%edx
   110c4:	48 8d 35 e3 1f 00 00 	lea    0x1fe3(%rip),%rsi        # 130ae <g_3093+0x1006>
   110cb:	48 89 c7             	mov    %rax,%rdi
   110ce:	e8 20 96 ff ff       	callq  a6f3 <transparent_crc>
   110d3:	83 7d fc 00          	cmpl   $0x0,-0x4(%rbp)
   110d7:	74 19                	je     110f2 <main+0xc91>
   110d9:	8b 55 f4             	mov    -0xc(%rbp),%edx
   110dc:	8b 45 f0             	mov    -0x10(%rbp),%eax
   110df:	89 c6                	mov    %eax,%esi
   110e1:	48 8d 3d ac 1d 00 00 	lea    0x1dac(%rip),%rdi        # 12e94 <g_3093+0xdec>
   110e8:	b8 00 00 00 00       	mov    $0x0,%eax
   110ed:	e8 8e 7f ff ff       	callq  9080 <printf@plt>
   110f2:	83 45 f4 01          	addl   $0x1,-0xc(%rbp)
   110f6:	83 7d f4 06          	cmpl   $0x6,-0xc(%rbp)
   110fa:	7e 93                	jle    1108f <main+0xc2e>
   110fc:	83 45 f0 01          	addl   $0x1,-0x10(%rbp)
   11100:	83 7d f0 08          	cmpl   $0x8,-0x10(%rbp)
   11104:	7e 80                	jle    11086 <main+0xc25>
   11106:	8b 05 8c 62 00 00    	mov    0x628c(%rip),%eax        # 17398 <g_2325>
   1110c:	89 c1                	mov    %eax,%ecx
   1110e:	8b 45 fc             	mov    -0x4(%rbp),%eax
   11111:	89 c2                	mov    %eax,%edx
   11113:	48 8d 35 a4 1f 00 00 	lea    0x1fa4(%rip),%rsi        # 130be <g_3093+0x1016>
   1111a:	48 89 cf             	mov    %rcx,%rdi
   1111d:	e8 d1 95 ff ff       	callq  a6f3 <transparent_crc>
   11122:	0f b6 05 77 62 00 00 	movzbl 0x6277(%rip),%eax        # 173a0 <g_2337>
   11129:	83 e0 1f             	and    $0x1f,%eax
   1112c:	0f b6 c0             	movzbl %al,%eax
   1112f:	8b 55 fc             	mov    -0x4(%rbp),%edx
   11132:	48 8d 35 8c 1f 00 00 	lea    0x1f8c(%rip),%rsi        # 130c5 <g_3093+0x101d>
   11139:	48 89 c7             	mov    %rax,%rdi
   1113c:	e8 b2 95 ff ff       	callq  a6f3 <transparent_crc>
   11141:	0f b6 05 60 62 00 00 	movzbl 0x6260(%rip),%eax        # 173a8 <g_2385>
   11148:	83 e0 1f             	and    $0x1f,%eax
   1114b:	0f b6 c0             	movzbl %al,%eax
   1114e:	8b 55 fc             	mov    -0x4(%rbp),%edx
   11151:	48 8d 35 77 1f 00 00 	lea    0x1f77(%rip),%rsi        # 130cf <g_3093+0x1027>
   11158:	48 89 c7             	mov    %rax,%rdi
   1115b:	e8 93 95 ff ff       	callq  a6f3 <transparent_crc>
   11160:	c7 45 f0 00 00 00 00 	movl   $0x0,-0x10(%rbp)
   11167:	eb 50                	jmp    111b9 <main+0xd58>
   11169:	8b 45 f0             	mov    -0x10(%rbp),%eax
   1116c:	48 98                	cltq   
   1116e:	48 8d 14 c5 00 00 00 	lea    0x0(,%rax,8),%rdx
   11175:	00 
   11176:	48 8d 05 33 62 00 00 	lea    0x6233(%rip),%rax        # 173b0 <g_2456>
   1117d:	0f b6 04 02          	movzbl (%rdx,%rax,1),%eax
   11181:	83 e0 1f             	and    $0x1f,%eax
   11184:	0f b6 c0             	movzbl %al,%eax
   11187:	8b 55 fc             	mov    -0x4(%rbp),%edx
   1118a:	48 8d 35 48 1f 00 00 	lea    0x1f48(%rip),%rsi        # 130d9 <g_3093+0x1031>
   11191:	48 89 c7             	mov    %rax,%rdi
   11194:	e8 5a 95 ff ff       	callq  a6f3 <transparent_crc>
   11199:	83 7d fc 00          	cmpl   $0x0,-0x4(%rbp)
   1119d:	74 16                	je     111b5 <main+0xd54>
   1119f:	8b 45 f0             	mov    -0x10(%rbp),%eax
   111a2:	89 c6                	mov    %eax,%esi
   111a4:	48 8d 3d fc 1d 00 00 	lea    0x1dfc(%rip),%rdi        # 12fa7 <g_3093+0xeff>
   111ab:	b8 00 00 00 00       	mov    $0x0,%eax
   111b0:	e8 cb 7e ff ff       	callq  9080 <printf@plt>
   111b5:	83 45 f0 01          	addl   $0x1,-0x10(%rbp)
   111b9:	83 7d f0 01          	cmpl   $0x1,-0x10(%rbp)
   111bd:	7e aa                	jle    11169 <main+0xd08>
   111bf:	48 8b 05 fa 61 00 00 	mov    0x61fa(%rip),%rax        # 173c0 <g_2553>
   111c6:	48 89 c1             	mov    %rax,%rcx
   111c9:	8b 45 fc             	mov    -0x4(%rbp),%eax
   111cc:	89 c2                	mov    %eax,%edx
   111ce:	48 8d 35 11 1f 00 00 	lea    0x1f11(%rip),%rsi        # 130e6 <g_3093+0x103e>
   111d5:	48 89 cf             	mov    %rcx,%rdi
   111d8:	e8 16 95 ff ff       	callq  a6f3 <transparent_crc>
   111dd:	0f b6 05 e4 61 00 00 	movzbl 0x61e4(%rip),%eax        # 173c8 <g_2557>
   111e4:	0f b6 c0             	movzbl %al,%eax
   111e7:	8b 55 fc             	mov    -0x4(%rbp),%edx
   111ea:	48 8d 35 fc 1e 00 00 	lea    0x1efc(%rip),%rsi        # 130ed <g_3093+0x1045>
   111f1:	48 89 c7             	mov    %rax,%rdi
   111f4:	e8 fa 94 ff ff       	callq  a6f3 <transparent_crc>
   111f9:	0f b6 05 c9 61 00 00 	movzbl 0x61c9(%rip),%eax        # 173c9 <g_2574>
   11200:	0f b6 c0             	movzbl %al,%eax
   11203:	8b 55 fc             	mov    -0x4(%rbp),%edx
   11206:	48 8d 35 e7 1e 00 00 	lea    0x1ee7(%rip),%rsi        # 130f4 <g_3093+0x104c>
   1120d:	48 89 c7             	mov    %rax,%rdi
   11210:	e8 de 94 ff ff       	callq  a6f3 <transparent_crc>
   11215:	48 8b 05 b4 61 00 00 	mov    0x61b4(%rip),%rax        # 173d0 <g_2620>
   1121c:	8b 55 fc             	mov    -0x4(%rbp),%edx
   1121f:	48 8d 35 d5 1e 00 00 	lea    0x1ed5(%rip),%rsi        # 130fb <g_3093+0x1053>
   11226:	48 89 c7             	mov    %rax,%rdi
   11229:	e8 c5 94 ff ff       	callq  a6f3 <transparent_crc>
   1122e:	8b 05 a4 61 00 00    	mov    0x61a4(%rip),%eax        # 173d8 <g_2658>
   11234:	48 98                	cltq   
   11236:	8b 55 fc             	mov    -0x4(%rbp),%edx
   11239:	48 8d 35 c2 1e 00 00 	lea    0x1ec2(%rip),%rsi        # 13102 <g_3093+0x105a>
   11240:	48 89 c7             	mov    %rax,%rdi
   11243:	e8 ab 94 ff ff       	callq  a6f3 <transparent_crc>
   11248:	8b 05 8e 61 00 00    	mov    0x618e(%rip),%eax        # 173dc <g_2686>
   1124e:	48 98                	cltq   
   11250:	8b 55 fc             	mov    -0x4(%rbp),%edx
   11253:	48 8d 35 af 1e 00 00 	lea    0x1eaf(%rip),%rsi        # 13109 <g_3093+0x1061>
   1125a:	48 89 c7             	mov    %rax,%rdi
   1125d:	e8 91 94 ff ff       	callq  a6f3 <transparent_crc>
   11262:	0f b7 05 77 61 00 00 	movzwl 0x6177(%rip),%eax        # 173e0 <g_2757>
   11269:	48 0f bf c0          	movswq %ax,%rax
   1126d:	8b 55 fc             	mov    -0x4(%rbp),%edx
   11270:	48 8d 35 99 1e 00 00 	lea    0x1e99(%rip),%rsi        # 13110 <g_3093+0x1068>
   11277:	48 89 c7             	mov    %rax,%rdi
   1127a:	e8 74 94 ff ff       	callq  a6f3 <transparent_crc>
   1127f:	8b 05 5f 61 00 00    	mov    0x615f(%rip),%eax        # 173e4 <g_2759>
   11285:	48 98                	cltq   
   11287:	8b 55 fc             	mov    -0x4(%rbp),%edx
   1128a:	48 8d 35 86 1e 00 00 	lea    0x1e86(%rip),%rsi        # 13117 <g_3093+0x106f>
   11291:	48 89 c7             	mov    %rax,%rdi
   11294:	e8 5a 94 ff ff       	callq  a6f3 <transparent_crc>
   11299:	48 b9 95 95 65 bb 4c 	movabs $0x4b664e4cbb659595,%rcx
   112a0:	4e 66 4b 
   112a3:	8b 45 fc             	mov    -0x4(%rbp),%eax
   112a6:	89 c2                	mov    %eax,%edx
   112a8:	48 8d 35 6f 1e 00 00 	lea    0x1e6f(%rip),%rsi        # 1311e <g_3093+0x1076>
   112af:	48 89 cf             	mov    %rcx,%rdi
   112b2:	e8 3c 94 ff ff       	callq  a6f3 <transparent_crc>
   112b7:	0f b6 05 2a 61 00 00 	movzbl 0x612a(%rip),%eax        # 173e8 <g_2783>
   112be:	83 e0 1f             	and    $0x1f,%eax
   112c1:	0f b6 c0             	movzbl %al,%eax
   112c4:	8b 55 fc             	mov    -0x4(%rbp),%edx
   112c7:	48 8d 35 57 1e 00 00 	lea    0x1e57(%rip),%rsi        # 13125 <g_3093+0x107d>
   112ce:	48 89 c7             	mov    %rax,%rdi
   112d1:	e8 1d 94 ff ff       	callq  a6f3 <transparent_crc>
   112d6:	0f b6 05 13 61 00 00 	movzbl 0x6113(%rip),%eax        # 173f0 <g_2861>
   112dd:	48 0f be c0          	movsbq %al,%rax
   112e1:	8b 55 fc             	mov    -0x4(%rbp),%edx
   112e4:	48 8d 35 44 1e 00 00 	lea    0x1e44(%rip),%rsi        # 1312f <g_3093+0x1087>
   112eb:	48 89 c7             	mov    %rax,%rdi
   112ee:	e8 00 94 ff ff       	callq  a6f3 <transparent_crc>
   112f3:	8b 05 fb 60 00 00    	mov    0x60fb(%rip),%eax        # 173f4 <g_2863>
   112f9:	89 c1                	mov    %eax,%ecx
   112fb:	8b 45 fc             	mov    -0x4(%rbp),%eax
   112fe:	89 c2                	mov    %eax,%edx
   11300:	48 8d 35 2f 1e 00 00 	lea    0x1e2f(%rip),%rsi        # 13136 <g_3093+0x108e>
   11307:	48 89 cf             	mov    %rcx,%rdi
   1130a:	e8 e4 93 ff ff       	callq  a6f3 <transparent_crc>
   1130f:	c7 45 f0 00 00 00 00 	movl   $0x0,-0x10(%rbp)
   11316:	eb 6a                	jmp    11382 <main+0xf21>
   11318:	c7 45 f4 00 00 00 00 	movl   $0x0,-0xc(%rbp)
   1131f:	eb 57                	jmp    11378 <main+0xf17>
   11321:	8b 45 f4             	mov    -0xc(%rbp),%eax
   11324:	48 98                	cltq   
   11326:	8b 55 f0             	mov    -0x10(%rbp),%edx
   11329:	48 63 d2             	movslq %edx,%rdx
   1132c:	48 c1 e2 03          	shl    $0x3,%rdx
   11330:	48 01 c2             	add    %rax,%rdx
   11333:	48 8d 05 c6 60 00 00 	lea    0x60c6(%rip),%rax        # 17400 <g_2874>
   1133a:	48 01 d0             	add    %rdx,%rax
   1133d:	0f b6 00             	movzbl (%rax),%eax
   11340:	0f b6 c0             	movzbl %al,%eax
   11343:	8b 55 fc             	mov    -0x4(%rbp),%edx
   11346:	48 8d 35 f0 1d 00 00 	lea    0x1df0(%rip),%rsi        # 1313d <g_3093+0x1095>
   1134d:	48 89 c7             	mov    %rax,%rdi
   11350:	e8 9e 93 ff ff       	callq  a6f3 <transparent_crc>
   11355:	83 7d fc 00          	cmpl   $0x0,-0x4(%rbp)
   11359:	74 19                	je     11374 <main+0xf13>
   1135b:	8b 55 f4             	mov    -0xc(%rbp),%edx
   1135e:	8b 45 f0             	mov    -0x10(%rbp),%eax
   11361:	89 c6                	mov    %eax,%esi
   11363:	48 8d 3d 2a 1b 00 00 	lea    0x1b2a(%rip),%rdi        # 12e94 <g_3093+0xdec>
   1136a:	b8 00 00 00 00       	mov    $0x0,%eax
   1136f:	e8 0c 7d ff ff       	callq  9080 <printf@plt>
   11374:	83 45 f4 01          	addl   $0x1,-0xc(%rbp)
   11378:	83 7d f4 07          	cmpl   $0x7,-0xc(%rbp)
   1137c:	7e a3                	jle    11321 <main+0xec0>
   1137e:	83 45 f0 01          	addl   $0x1,-0x10(%rbp)
   11382:	83 7d f0 06          	cmpl   $0x6,-0x10(%rbp)
   11386:	7e 90                	jle    11318 <main+0xeb7>
   11388:	0f b6 05 a9 60 00 00 	movzbl 0x60a9(%rip),%eax        # 17438 <g_2919>
   1138f:	0f b6 c0             	movzbl %al,%eax
   11392:	8b 55 fc             	mov    -0x4(%rbp),%edx
   11395:	48 8d 35 ae 1d 00 00 	lea    0x1dae(%rip),%rsi        # 1314a <g_3093+0x10a2>
   1139c:	48 89 c7             	mov    %rax,%rdi
   1139f:	e8 4f 93 ff ff       	callq  a6f3 <transparent_crc>
   113a4:	0f b6 05 95 60 00 00 	movzbl 0x6095(%rip),%eax        # 17440 <g_3000>
   113ab:	83 e0 1f             	and    $0x1f,%eax
   113ae:	0f b6 c0             	movzbl %al,%eax
   113b1:	8b 55 fc             	mov    -0x4(%rbp),%edx
   113b4:	48 8d 35 96 1d 00 00 	lea    0x1d96(%rip),%rsi        # 13151 <g_3093+0x10a9>
   113bb:	48 89 c7             	mov    %rax,%rdi
   113be:	e8 30 93 ff ff       	callq  a6f3 <transparent_crc>
   113c3:	0f b6 05 7e 60 00 00 	movzbl 0x607e(%rip),%eax        # 17448 <g_3025>
   113ca:	0f b6 c0             	movzbl %al,%eax
   113cd:	8b 55 fc             	mov    -0x4(%rbp),%edx
   113d0:	48 8d 35 84 1d 00 00 	lea    0x1d84(%rip),%rsi        # 1315b <g_3093+0x10b3>
   113d7:	48 89 c7             	mov    %rax,%rdi
   113da:	e8 14 93 ff ff       	callq  a6f3 <transparent_crc>
   113df:	c7 45 f0 00 00 00 00 	movl   $0x0,-0x10(%rbp)
   113e6:	eb 4b                	jmp    11433 <main+0xfd2>
   113e8:	8b 45 f0             	mov    -0x10(%rbp),%eax
   113eb:	48 98                	cltq   
   113ed:	48 8d 14 85 00 00 00 	lea    0x0(,%rax,4),%rdx
   113f4:	00 
   113f5:	48 8d 05 54 60 00 00 	lea    0x6054(%rip),%rax        # 17450 <g_3032>
   113fc:	8b 04 02             	mov    (%rdx,%rax,1),%eax
   113ff:	48 98                	cltq   
   11401:	8b 55 fc             	mov    -0x4(%rbp),%edx
   11404:	48 8d 35 57 1d 00 00 	lea    0x1d57(%rip),%rsi        # 13162 <g_3093+0x10ba>
   1140b:	48 89 c7             	mov    %rax,%rdi
   1140e:	e8 e0 92 ff ff       	callq  a6f3 <transparent_crc>
   11413:	83 7d fc 00          	cmpl   $0x0,-0x4(%rbp)
   11417:	74 16                	je     1142f <main+0xfce>
   11419:	8b 45 f0             	mov    -0x10(%rbp),%eax
   1141c:	89 c6                	mov    %eax,%esi
   1141e:	48 8d 3d 82 1b 00 00 	lea    0x1b82(%rip),%rdi        # 12fa7 <g_3093+0xeff>
   11425:	b8 00 00 00 00       	mov    $0x0,%eax
   1142a:	e8 51 7c ff ff       	callq  9080 <printf@plt>
   1142f:	83 45 f0 01          	addl   $0x1,-0x10(%rbp)
   11433:	83 7d f0 02          	cmpl   $0x2,-0x10(%rbp)
   11437:	7e af                	jle    113e8 <main+0xf87>
   11439:	c7 45 f0 00 00 00 00 	movl   $0x0,-0x10(%rbp)
   11440:	e9 bd 00 00 00       	jmpq   11502 <main+0x10a1>
   11445:	c7 45 f4 00 00 00 00 	movl   $0x0,-0xc(%rbp)
   1144c:	e9 a3 00 00 00       	jmpq   114f4 <main+0x1093>
   11451:	c7 45 f8 00 00 00 00 	movl   $0x0,-0x8(%rbp)
   11458:	e9 89 00 00 00       	jmpq   114e6 <main+0x1085>
   1145d:	8b 45 f8             	mov    -0x8(%rbp),%eax
   11460:	48 63 f0             	movslq %eax,%rsi
   11463:	8b 45 f0             	mov    -0x10(%rbp),%eax
   11466:	48 98                	cltq   
   11468:	8b 55 f4             	mov    -0xc(%rbp),%edx
   1146b:	48 63 ca             	movslq %edx,%rcx
   1146e:	48 89 c2             	mov    %rax,%rdx
   11471:	48 c1 e2 04          	shl    $0x4,%rdx
   11475:	48 29 c2             	sub    %rax,%rdx
   11478:	48 8d 04 95 00 00 00 	lea    0x0(,%rdx,4),%rax
   1147f:	00 
   11480:	48 89 c2             	mov    %rax,%rdx
   11483:	48 89 c8             	mov    %rcx,%rax
   11486:	48 01 c0             	add    %rax,%rax
   11489:	48 01 c8             	add    %rcx,%rax
   1148c:	48 01 c0             	add    %rax,%rax
   1148f:	48 01 d0             	add    %rdx,%rax
   11492:	48 01 f0             	add    %rsi,%rax
   11495:	48 8d 14 c5 00 00 00 	lea    0x0(,%rax,8),%rdx
   1149c:	00 
   1149d:	48 8d 05 bc 5f 00 00 	lea    0x5fbc(%rip),%rax        # 17460 <g_3078>
   114a4:	48 8b 04 02          	mov    (%rdx,%rax,1),%rax
   114a8:	83 e0 1f             	and    $0x1f,%eax
   114ab:	0f b6 c0             	movzbl %al,%eax
   114ae:	8b 55 fc             	mov    -0x4(%rbp),%edx
   114b1:	48 8d 35 b4 1c 00 00 	lea    0x1cb4(%rip),%rsi        # 1316c <g_3093+0x10c4>
   114b8:	48 89 c7             	mov    %rax,%rdi
   114bb:	e8 33 92 ff ff       	callq  a6f3 <transparent_crc>
   114c0:	83 7d fc 00          	cmpl   $0x0,-0x4(%rbp)
   114c4:	74 1c                	je     114e2 <main+0x1081>
   114c6:	8b 4d f8             	mov    -0x8(%rbp),%ecx
   114c9:	8b 55 f4             	mov    -0xc(%rbp),%edx
   114cc:	8b 45 f0             	mov    -0x10(%rbp),%eax
   114cf:	89 c6                	mov    %eax,%esi
   114d1:	48 8d 3d 47 1a 00 00 	lea    0x1a47(%rip),%rdi        # 12f1f <g_3093+0xe77>
   114d8:	b8 00 00 00 00       	mov    $0x0,%eax
   114dd:	e8 9e 7b ff ff       	callq  9080 <printf@plt>
   114e2:	83 45 f8 01          	addl   $0x1,-0x8(%rbp)
   114e6:	83 7d f8 05          	cmpl   $0x5,-0x8(%rbp)
   114ea:	0f 8e 6d ff ff ff    	jle    1145d <main+0xffc>
   114f0:	83 45 f4 01          	addl   $0x1,-0xc(%rbp)
   114f4:	83 7d f4 09          	cmpl   $0x9,-0xc(%rbp)
   114f8:	0f 8e 53 ff ff ff    	jle    11451 <main+0xff0>
   114fe:	83 45 f0 01          	addl   $0x1,-0x10(%rbp)
   11502:	83 7d f0 03          	cmpl   $0x3,-0x10(%rbp)
   11506:	0f 8e 39 ff ff ff    	jle    11445 <main+0xfe4>
   1150c:	b8 fb ff ff ff       	mov    $0xfffffffb,%eax
   11511:	48 98                	cltq   
   11513:	8b 55 fc             	mov    -0x4(%rbp),%edx
   11516:	48 8d 35 62 1c 00 00 	lea    0x1c62(%rip),%rsi        # 1317f <g_3093+0x10d7>
   1151d:	48 89 c7             	mov    %rax,%rdi
   11520:	e8 ce 91 ff ff       	callq  a6f3 <transparent_crc>
   11525:	48 8b 05 b4 66 00 00 	mov    0x66b4(%rip),%rax        # 17be0 <g_3094>
   1152c:	48 89 c1             	mov    %rax,%rcx
   1152f:	8b 45 fc             	mov    -0x4(%rbp),%eax
   11532:	89 c2                	mov    %eax,%edx
   11534:	48 8d 35 4b 1c 00 00 	lea    0x1c4b(%rip),%rsi        # 13186 <g_3093+0x10de>
   1153b:	48 89 cf             	mov    %rcx,%rdi
   1153e:	e8 b0 91 ff ff       	callq  a6f3 <transparent_crc>
   11543:	48 8b 05 9e 66 00 00 	mov    0x669e(%rip),%rax        # 17be8 <g_3099>
   1154a:	83 e0 1f             	and    $0x1f,%eax
   1154d:	0f b6 c0             	movzbl %al,%eax
   11550:	8b 55 fc             	mov    -0x4(%rbp),%edx
   11553:	48 8d 35 33 1c 00 00 	lea    0x1c33(%rip),%rsi        # 1318d <g_3093+0x10e5>
   1155a:	48 89 c7             	mov    %rax,%rdi
   1155d:	e8 91 91 ff ff       	callq  a6f3 <transparent_crc>
   11562:	0f b6 05 87 66 00 00 	movzbl 0x6687(%rip),%eax        # 17bf0 <g_3238>
   11569:	48 0f be c0          	movsbq %al,%rax
   1156d:	8b 55 fc             	mov    -0x4(%rbp),%edx
   11570:	48 8d 35 20 1c 00 00 	lea    0x1c20(%rip),%rsi        # 13197 <g_3093+0x10ef>
   11577:	48 89 c7             	mov    %rax,%rdi
   1157a:	e8 74 91 ff ff       	callq  a6f3 <transparent_crc>
   1157f:	8b 05 9b 4a 00 00    	mov    0x4a9b(%rip),%eax        # 16020 <crc32_context>
   11585:	f7 d0                	not    %eax
   11587:	89 c2                	mov    %eax,%edx
   11589:	8b 45 fc             	mov    -0x4(%rbp),%eax
   1158c:	89 c6                	mov    %eax,%esi
   1158e:	89 d7                	mov    %edx,%edi
   11590:	e8 ff 7b ff ff       	callq  9194 <platform_main_end>
   11595:	b8 00 00 00 00       	mov    $0x0,%eax
   1159a:	c9                   	leaveq 
   1159b:	c3                   	retq   
   1159c:	0f 1f 40 00          	nopl   0x0(%rax)

00000000000115a0 <__libc_csu_init>:
   115a0:	f3 0f 1e fa          	endbr64 
   115a4:	41 57                	push   %r15
   115a6:	4c 8d 3d e3 47 00 00 	lea    0x47e3(%rip),%r15        # 15d90 <__frame_dummy_init_array_entry>
   115ad:	41 56                	push   %r14
   115af:	49 89 d6             	mov    %rdx,%r14
   115b2:	41 55                	push   %r13
   115b4:	49 89 f5             	mov    %rsi,%r13
   115b7:	41 54                	push   %r12
   115b9:	41 89 fc             	mov    %edi,%r12d
   115bc:	55                   	push   %rbp
   115bd:	48 8d 2d d4 47 00 00 	lea    0x47d4(%rip),%rbp        # 15d98 <__do_global_dtors_aux_fini_array_entry>
   115c4:	53                   	push   %rbx
   115c5:	4c 29 fd             	sub    %r15,%rbp
   115c8:	48 83 ec 08          	sub    $0x8,%rsp
   115cc:	e8 2f 7a ff ff       	callq  9000 <_init>
   115d1:	48 c1 fd 03          	sar    $0x3,%rbp
   115d5:	74 1f                	je     115f6 <__libc_csu_init+0x56>
   115d7:	31 db                	xor    %ebx,%ebx
   115d9:	0f 1f 80 00 00 00 00 	nopl   0x0(%rax)
   115e0:	4c 89 f2             	mov    %r14,%rdx
   115e3:	4c 89 ee             	mov    %r13,%rsi
   115e6:	44 89 e7             	mov    %r12d,%edi
   115e9:	41 ff 14 df          	callq  *(%r15,%rbx,8)
   115ed:	48 83 c3 01          	add    $0x1,%rbx
   115f1:	48 39 dd             	cmp    %rbx,%rbp
   115f4:	75 ea                	jne    115e0 <__libc_csu_init+0x40>
   115f6:	48 83 c4 08          	add    $0x8,%rsp
   115fa:	5b                   	pop    %rbx
   115fb:	5d                   	pop    %rbp
   115fc:	41 5c                	pop    %r12
   115fe:	41 5d                	pop    %r13
   11600:	41 5e                	pop    %r14
   11602:	41 5f                	pop    %r15
   11604:	c3                   	retq   
   11605:	66 66 2e 0f 1f 84 00 	data16 nopw %cs:0x0(%rax,%rax,1)
   1160c:	00 00 00 00 

0000000000011610 <__libc_csu_fini>:
   11610:	f3 0f 1e fa          	endbr64 
   11614:	c3                   	retq   
