


Disassembly of section .text:

000000000000b0a0 <_start>:
    b0a0:	f3 0f 1e fa          	endbr64 
    b0a4:	31 ed                	xor    %ebp,%ebp
    b0a6:	49 89 d1             	mov    %rdx,%r9
    b0a9:	5e                   	pop    %rsi
    b0aa:	48 89 e2             	mov    %rsp,%rdx
    b0ad:	48 83 e4 f0          	and    $0xfffffffffffffff0,%rsp
    b0b1:	50                   	push   %rax
    b0b2:	54                   	push   %rsp
    b0b3:	4c 8d 05 a6 37 01 00 	lea    0x137a6(%rip),%r8        # 1e860 <__libc_csu_fini>
    b0ba:	48 8d 0d 2f 37 01 00 	lea    0x1372f(%rip),%rcx        # 1e7f0 <__libc_csu_init>
    b0c1:	48 8d 3d 57 2c 01 00 	lea    0x12c57(%rip),%rdi        # 1dd1f <main>
    b0c8:	ff 15 12 8f 01 00    	callq  *0x18f12(%rip)        # 23fe0 <__libc_start_main@GLIBC_2.2.5>
    b0ce:	f4                   	hlt    
    b0cf:	90                   	nop

000000000000b0d0 <deregister_tm_clones>:
    b0d0:	48 8d 3d 79 d4 01 00 	lea    0x1d479(%rip),%rdi        # 28550 <__TMC_END__>
    b0d7:	48 8d 05 72 d4 01 00 	lea    0x1d472(%rip),%rax        # 28550 <__TMC_END__>
    b0de:	48 39 f8             	cmp    %rdi,%rax
    b0e1:	74 15                	je     b0f8 <deregister_tm_clones+0x28>
    b0e3:	48 8b 05 ee 8e 01 00 	mov    0x18eee(%rip),%rax        # 23fd8 <_ITM_deregisterTMCloneTable>
    b0ea:	48 85 c0             	test   %rax,%rax
    b0ed:	74 09                	je     b0f8 <deregister_tm_clones+0x28>
    b0ef:	ff e0                	jmpq   *%rax
    b0f1:	0f 1f 80 00 00 00 00 	nopl   0x0(%rax)
    b0f8:	c3                   	retq   
    b0f9:	0f 1f 80 00 00 00 00 	nopl   0x0(%rax)

000000000000b100 <register_tm_clones>:
    b100:	48 8d 3d 49 d4 01 00 	lea    0x1d449(%rip),%rdi        # 28550 <__TMC_END__>
    b107:	48 8d 35 42 d4 01 00 	lea    0x1d442(%rip),%rsi        # 28550 <__TMC_END__>
    b10e:	48 29 fe             	sub    %rdi,%rsi
    b111:	48 89 f0             	mov    %rsi,%rax
    b114:	48 c1 ee 3f          	shr    $0x3f,%rsi
    b118:	48 c1 f8 03          	sar    $0x3,%rax
    b11c:	48 01 c6             	add    %rax,%rsi
    b11f:	48 d1 fe             	sar    %rsi
    b122:	74 14                	je     b138 <register_tm_clones+0x38>
    b124:	48 8b 05 c5 8e 01 00 	mov    0x18ec5(%rip),%rax        # 23ff0 <_ITM_registerTMCloneTable>
    b12b:	48 85 c0             	test   %rax,%rax
    b12e:	74 08                	je     b138 <register_tm_clones+0x38>
    b130:	ff e0                	jmpq   *%rax
    b132:	66 0f 1f 44 00 00    	nopw   0x0(%rax,%rax,1)
    b138:	c3                   	retq   
    b139:	0f 1f 80 00 00 00 00 	nopl   0x0(%rax)

000000000000b140 <__do_global_dtors_aux>:
    b140:	f3 0f 1e fa          	endbr64 
    b144:	80 3d 15 d4 01 00 00 	cmpb   $0x0,0x1d415(%rip)        # 28560 <completed.8061>
    b14b:	75 2b                	jne    b178 <__do_global_dtors_aux+0x38>
    b14d:	55                   	push   %rbp
    b14e:	48 83 3d a2 8e 01 00 	cmpq   $0x0,0x18ea2(%rip)        # 23ff8 <__cxa_finalize@GLIBC_2.2.5>
    b155:	00 
    b156:	48 89 e5             	mov    %rsp,%rbp
    b159:	74 0c                	je     b167 <__do_global_dtors_aux+0x27>
    b15b:	48 8b 3d a6 8e 01 00 	mov    0x18ea6(%rip),%rdi        # 24008 <__dso_handle>
    b162:	e8 f9 fe ff ff       	callq  b060 <__cxa_finalize@plt>
    b167:	e8 64 ff ff ff       	callq  b0d0 <deregister_tm_clones>
    b16c:	c6 05 ed d3 01 00 01 	movb   $0x1,0x1d3ed(%rip)        # 28560 <completed.8061>
    b173:	5d                   	pop    %rbp
    b174:	c3                   	retq   
    b175:	0f 1f 00             	nopl   (%rax)
    b178:	c3                   	retq   
    b179:	0f 1f 80 00 00 00 00 	nopl   0x0(%rax)

000000000000b180 <frame_dummy>:
    b180:	f3 0f 1e fa          	endbr64 
    b184:	e9 77 ff ff ff       	jmpq   b100 <register_tm_clones>

000000000000b189 <platform_main_begin>:
    b189:	f3 0f 1e fa          	endbr64 
    b18d:	55                   	push   %rbp
    b18e:	48 89 e5             	mov    %rsp,%rbp
    b191:	90                   	nop
    b192:	5d                   	pop    %rbp
    b193:	c3                   	retq   

000000000000b194 <platform_main_end>:
    b194:	f3 0f 1e fa          	endbr64 
    b198:	55                   	push   %rbp
    b199:	48 89 e5             	mov    %rsp,%rbp
    b19c:	48 83 ec 10          	sub    $0x10,%rsp
    b1a0:	89 7d fc             	mov    %edi,-0x4(%rbp)
    b1a3:	89 75 f8             	mov    %esi,-0x8(%rbp)
    b1a6:	8b 45 fc             	mov    -0x4(%rbp),%eax
    b1a9:	89 c6                	mov    %eax,%esi
    b1ab:	48 8d 3d 6e 3e 01 00 	lea    0x13e6e(%rip),%rdi        # 1f020 <_IO_stdin_used+0x20>
    b1b2:	b8 00 00 00 00       	mov    $0x0,%eax
    b1b7:	e8 c4 fe ff ff       	callq  b080 <printf@plt>
    b1bc:	90                   	nop
    b1bd:	c9                   	leaveq 
    b1be:	c3                   	retq   

000000000000b1bf <safe_unary_minus_func_int8_t_s>:
    b1bf:	f3 0f 1e fa          	endbr64 
    b1c3:	55                   	push   %rbp
    b1c4:	48 89 e5             	mov    %rsp,%rbp
    b1c7:	89 f8                	mov    %edi,%eax
    b1c9:	88 45 fc             	mov    %al,-0x4(%rbp)
    b1cc:	0f b6 45 fc          	movzbl -0x4(%rbp),%eax
    b1d0:	f7 d8                	neg    %eax
    b1d2:	5d                   	pop    %rbp
    b1d3:	c3                   	retq   

000000000000b1d4 <safe_add_func_int8_t_s_s>:
    b1d4:	f3 0f 1e fa          	endbr64 
    b1d8:	55                   	push   %rbp
    b1d9:	48 89 e5             	mov    %rsp,%rbp
    b1dc:	89 fa                	mov    %edi,%edx
    b1de:	89 f0                	mov    %esi,%eax
    b1e0:	88 55 fc             	mov    %dl,-0x4(%rbp)
    b1e3:	88 45 f8             	mov    %al,-0x8(%rbp)
    b1e6:	0f b6 55 fc          	movzbl -0x4(%rbp),%edx
    b1ea:	0f b6 45 f8          	movzbl -0x8(%rbp),%eax
    b1ee:	01 d0                	add    %edx,%eax
    b1f0:	5d                   	pop    %rbp
    b1f1:	c3                   	retq   

000000000000b1f2 <safe_sub_func_int8_t_s_s>:
    b1f2:	f3 0f 1e fa          	endbr64 
    b1f6:	55                   	push   %rbp
    b1f7:	48 89 e5             	mov    %rsp,%rbp
    b1fa:	89 fa                	mov    %edi,%edx
    b1fc:	89 f0                	mov    %esi,%eax
    b1fe:	88 55 fc             	mov    %dl,-0x4(%rbp)
    b201:	88 45 f8             	mov    %al,-0x8(%rbp)
    b204:	0f b6 55 fc          	movzbl -0x4(%rbp),%edx
    b208:	0f b6 45 f8          	movzbl -0x8(%rbp),%eax
    b20c:	29 c2                	sub    %eax,%edx
    b20e:	89 d0                	mov    %edx,%eax
    b210:	5d                   	pop    %rbp
    b211:	c3                   	retq   

000000000000b212 <safe_mul_func_int8_t_s_s>:
    b212:	f3 0f 1e fa          	endbr64 
    b216:	55                   	push   %rbp
    b217:	48 89 e5             	mov    %rsp,%rbp
    b21a:	89 fa                	mov    %edi,%edx
    b21c:	89 f0                	mov    %esi,%eax
    b21e:	88 55 fc             	mov    %dl,-0x4(%rbp)
    b221:	88 45 f8             	mov    %al,-0x8(%rbp)
    b224:	0f b6 45 fc          	movzbl -0x4(%rbp),%eax
    b228:	0f b6 55 f8          	movzbl -0x8(%rbp),%edx
    b22c:	0f af c2             	imul   %edx,%eax
    b22f:	5d                   	pop    %rbp
    b230:	c3                   	retq   

000000000000b231 <safe_mod_func_int8_t_s_s>:
    b231:	f3 0f 1e fa          	endbr64 
    b235:	55                   	push   %rbp
    b236:	48 89 e5             	mov    %rsp,%rbp
    b239:	89 fa                	mov    %edi,%edx
    b23b:	89 f0                	mov    %esi,%eax
    b23d:	88 55 fc             	mov    %dl,-0x4(%rbp)
    b240:	88 45 f8             	mov    %al,-0x8(%rbp)
    b243:	80 7d f8 00          	cmpb   $0x0,-0x8(%rbp)
    b247:	74 1b                	je     b264 <safe_mod_func_int8_t_s_s+0x33>
    b249:	80 7d fc 80          	cmpb   $0x80,-0x4(%rbp)
    b24d:	75 06                	jne    b255 <safe_mod_func_int8_t_s_s+0x24>
    b24f:	80 7d f8 ff          	cmpb   $0xff,-0x8(%rbp)
    b253:	74 0f                	je     b264 <safe_mod_func_int8_t_s_s+0x33>
    b255:	0f be 45 fc          	movsbl -0x4(%rbp),%eax
    b259:	0f be 4d f8          	movsbl -0x8(%rbp),%ecx
    b25d:	99                   	cltd   
    b25e:	f7 f9                	idiv   %ecx
    b260:	89 d0                	mov    %edx,%eax
    b262:	eb 04                	jmp    b268 <safe_mod_func_int8_t_s_s+0x37>
    b264:	0f b6 45 fc          	movzbl -0x4(%rbp),%eax
    b268:	5d                   	pop    %rbp
    b269:	c3                   	retq   

000000000000b26a <safe_div_func_int8_t_s_s>:
    b26a:	f3 0f 1e fa          	endbr64 
    b26e:	55                   	push   %rbp
    b26f:	48 89 e5             	mov    %rsp,%rbp
    b272:	89 fa                	mov    %edi,%edx
    b274:	89 f0                	mov    %esi,%eax
    b276:	88 55 fc             	mov    %dl,-0x4(%rbp)
    b279:	88 45 f8             	mov    %al,-0x8(%rbp)
    b27c:	80 7d f8 00          	cmpb   $0x0,-0x8(%rbp)
    b280:	74 19                	je     b29b <safe_div_func_int8_t_s_s+0x31>
    b282:	80 7d fc 80          	cmpb   $0x80,-0x4(%rbp)
    b286:	75 06                	jne    b28e <safe_div_func_int8_t_s_s+0x24>
    b288:	80 7d f8 ff          	cmpb   $0xff,-0x8(%rbp)
    b28c:	74 0d                	je     b29b <safe_div_func_int8_t_s_s+0x31>
    b28e:	0f be 45 fc          	movsbl -0x4(%rbp),%eax
    b292:	0f be 4d f8          	movsbl -0x8(%rbp),%ecx
    b296:	99                   	cltd   
    b297:	f7 f9                	idiv   %ecx
    b299:	eb 04                	jmp    b29f <safe_div_func_int8_t_s_s+0x35>
    b29b:	0f b6 45 fc          	movzbl -0x4(%rbp),%eax
    b29f:	5d                   	pop    %rbp
    b2a0:	c3                   	retq   

000000000000b2a1 <safe_lshift_func_int8_t_s_s>:
    b2a1:	f3 0f 1e fa          	endbr64 
    b2a5:	55                   	push   %rbp
    b2a6:	48 89 e5             	mov    %rsp,%rbp
    b2a9:	89 f8                	mov    %edi,%eax
    b2ab:	89 75 f8             	mov    %esi,-0x8(%rbp)
    b2ae:	88 45 fc             	mov    %al,-0x4(%rbp)
    b2b1:	80 7d fc 00          	cmpb   $0x0,-0x4(%rbp)
    b2b5:	78 31                	js     b2e8 <safe_lshift_func_int8_t_s_s+0x47>
    b2b7:	83 7d f8 00          	cmpl   $0x0,-0x8(%rbp)
    b2bb:	78 2b                	js     b2e8 <safe_lshift_func_int8_t_s_s+0x47>
    b2bd:	83 7d f8 1f          	cmpl   $0x1f,-0x8(%rbp)
    b2c1:	7f 25                	jg     b2e8 <safe_lshift_func_int8_t_s_s+0x47>
    b2c3:	0f be 55 fc          	movsbl -0x4(%rbp),%edx
    b2c7:	8b 45 f8             	mov    -0x8(%rbp),%eax
    b2ca:	be 7f 00 00 00       	mov    $0x7f,%esi
    b2cf:	89 c1                	mov    %eax,%ecx
    b2d1:	d3 fe                	sar    %cl,%esi
    b2d3:	89 f0                	mov    %esi,%eax
    b2d5:	39 c2                	cmp    %eax,%edx
    b2d7:	7f 0f                	jg     b2e8 <safe_lshift_func_int8_t_s_s+0x47>
    b2d9:	0f be 55 fc          	movsbl -0x4(%rbp),%edx
    b2dd:	8b 45 f8             	mov    -0x8(%rbp),%eax
    b2e0:	89 c1                	mov    %eax,%ecx
    b2e2:	d3 e2                	shl    %cl,%edx
    b2e4:	89 d0                	mov    %edx,%eax
    b2e6:	eb 04                	jmp    b2ec <safe_lshift_func_int8_t_s_s+0x4b>
    b2e8:	0f b6 45 fc          	movzbl -0x4(%rbp),%eax
    b2ec:	5d                   	pop    %rbp
    b2ed:	c3                   	retq   

000000000000b2ee <safe_lshift_func_int8_t_s_u>:
    b2ee:	f3 0f 1e fa          	endbr64 
    b2f2:	55                   	push   %rbp
    b2f3:	48 89 e5             	mov    %rsp,%rbp
    b2f6:	89 f8                	mov    %edi,%eax
    b2f8:	89 75 f8             	mov    %esi,-0x8(%rbp)
    b2fb:	88 45 fc             	mov    %al,-0x4(%rbp)
    b2fe:	80 7d fc 00          	cmpb   $0x0,-0x4(%rbp)
    b302:	78 2b                	js     b32f <safe_lshift_func_int8_t_s_u+0x41>
    b304:	83 7d f8 1f          	cmpl   $0x1f,-0x8(%rbp)
    b308:	77 25                	ja     b32f <safe_lshift_func_int8_t_s_u+0x41>
    b30a:	0f be 55 fc          	movsbl -0x4(%rbp),%edx
    b30e:	8b 45 f8             	mov    -0x8(%rbp),%eax
    b311:	be 7f 00 00 00       	mov    $0x7f,%esi
    b316:	89 c1                	mov    %eax,%ecx
    b318:	d3 fe                	sar    %cl,%esi
    b31a:	89 f0                	mov    %esi,%eax
    b31c:	39 c2                	cmp    %eax,%edx
    b31e:	7f 0f                	jg     b32f <safe_lshift_func_int8_t_s_u+0x41>
    b320:	0f be 55 fc          	movsbl -0x4(%rbp),%edx
    b324:	8b 45 f8             	mov    -0x8(%rbp),%eax
    b327:	89 c1                	mov    %eax,%ecx
    b329:	d3 e2                	shl    %cl,%edx
    b32b:	89 d0                	mov    %edx,%eax
    b32d:	eb 04                	jmp    b333 <safe_lshift_func_int8_t_s_u+0x45>
    b32f:	0f b6 45 fc          	movzbl -0x4(%rbp),%eax
    b333:	5d                   	pop    %rbp
    b334:	c3                   	retq   

000000000000b335 <safe_rshift_func_int8_t_s_s>:
    b335:	f3 0f 1e fa          	endbr64 
    b339:	55                   	push   %rbp
    b33a:	48 89 e5             	mov    %rsp,%rbp
    b33d:	89 f8                	mov    %edi,%eax
    b33f:	89 75 f8             	mov    %esi,-0x8(%rbp)
    b342:	88 45 fc             	mov    %al,-0x4(%rbp)
    b345:	80 7d fc 00          	cmpb   $0x0,-0x4(%rbp)
    b349:	78 1b                	js     b366 <safe_rshift_func_int8_t_s_s+0x31>
    b34b:	83 7d f8 00          	cmpl   $0x0,-0x8(%rbp)
    b34f:	78 15                	js     b366 <safe_rshift_func_int8_t_s_s+0x31>
    b351:	83 7d f8 1f          	cmpl   $0x1f,-0x8(%rbp)
    b355:	7f 0f                	jg     b366 <safe_rshift_func_int8_t_s_s+0x31>
    b357:	0f be 55 fc          	movsbl -0x4(%rbp),%edx
    b35b:	8b 45 f8             	mov    -0x8(%rbp),%eax
    b35e:	89 c1                	mov    %eax,%ecx
    b360:	d3 fa                	sar    %cl,%edx
    b362:	89 d0                	mov    %edx,%eax
    b364:	eb 04                	jmp    b36a <safe_rshift_func_int8_t_s_s+0x35>
    b366:	0f b6 45 fc          	movzbl -0x4(%rbp),%eax
    b36a:	5d                   	pop    %rbp
    b36b:	c3                   	retq   

000000000000b36c <safe_rshift_func_int8_t_s_u>:
    b36c:	f3 0f 1e fa          	endbr64 
    b370:	55                   	push   %rbp
    b371:	48 89 e5             	mov    %rsp,%rbp
    b374:	89 f8                	mov    %edi,%eax
    b376:	89 75 f8             	mov    %esi,-0x8(%rbp)
    b379:	88 45 fc             	mov    %al,-0x4(%rbp)
    b37c:	80 7d fc 00          	cmpb   $0x0,-0x4(%rbp)
    b380:	78 15                	js     b397 <safe_rshift_func_int8_t_s_u+0x2b>
    b382:	83 7d f8 1f          	cmpl   $0x1f,-0x8(%rbp)
    b386:	77 0f                	ja     b397 <safe_rshift_func_int8_t_s_u+0x2b>
    b388:	0f be 55 fc          	movsbl -0x4(%rbp),%edx
    b38c:	8b 45 f8             	mov    -0x8(%rbp),%eax
    b38f:	89 c1                	mov    %eax,%ecx
    b391:	d3 fa                	sar    %cl,%edx
    b393:	89 d0                	mov    %edx,%eax
    b395:	eb 04                	jmp    b39b <safe_rshift_func_int8_t_s_u+0x2f>
    b397:	0f b6 45 fc          	movzbl -0x4(%rbp),%eax
    b39b:	5d                   	pop    %rbp
    b39c:	c3                   	retq   

000000000000b39d <safe_unary_minus_func_int16_t_s>:
    b39d:	f3 0f 1e fa          	endbr64 
    b3a1:	55                   	push   %rbp
    b3a2:	48 89 e5             	mov    %rsp,%rbp
    b3a5:	89 f8                	mov    %edi,%eax
    b3a7:	66 89 45 fc          	mov    %ax,-0x4(%rbp)
    b3ab:	0f b7 45 fc          	movzwl -0x4(%rbp),%eax
    b3af:	f7 d8                	neg    %eax
    b3b1:	5d                   	pop    %rbp
    b3b2:	c3                   	retq   

000000000000b3b3 <safe_add_func_int16_t_s_s>:
    b3b3:	f3 0f 1e fa          	endbr64 
    b3b7:	55                   	push   %rbp
    b3b8:	48 89 e5             	mov    %rsp,%rbp
    b3bb:	89 fa                	mov    %edi,%edx
    b3bd:	89 f0                	mov    %esi,%eax
    b3bf:	66 89 55 fc          	mov    %dx,-0x4(%rbp)
    b3c3:	66 89 45 f8          	mov    %ax,-0x8(%rbp)
    b3c7:	0f b7 55 fc          	movzwl -0x4(%rbp),%edx
    b3cb:	0f b7 45 f8          	movzwl -0x8(%rbp),%eax
    b3cf:	01 d0                	add    %edx,%eax
    b3d1:	5d                   	pop    %rbp
    b3d2:	c3                   	retq   

000000000000b3d3 <safe_sub_func_int16_t_s_s>:
    b3d3:	f3 0f 1e fa          	endbr64 
    b3d7:	55                   	push   %rbp
    b3d8:	48 89 e5             	mov    %rsp,%rbp
    b3db:	89 fa                	mov    %edi,%edx
    b3dd:	89 f0                	mov    %esi,%eax
    b3df:	66 89 55 fc          	mov    %dx,-0x4(%rbp)
    b3e3:	66 89 45 f8          	mov    %ax,-0x8(%rbp)
    b3e7:	0f b7 55 fc          	movzwl -0x4(%rbp),%edx
    b3eb:	0f b7 45 f8          	movzwl -0x8(%rbp),%eax
    b3ef:	29 c2                	sub    %eax,%edx
    b3f1:	89 d0                	mov    %edx,%eax
    b3f3:	5d                   	pop    %rbp
    b3f4:	c3                   	retq   

000000000000b3f5 <safe_mul_func_int16_t_s_s>:
    b3f5:	f3 0f 1e fa          	endbr64 
    b3f9:	55                   	push   %rbp
    b3fa:	48 89 e5             	mov    %rsp,%rbp
    b3fd:	89 fa                	mov    %edi,%edx
    b3ff:	89 f0                	mov    %esi,%eax
    b401:	66 89 55 fc          	mov    %dx,-0x4(%rbp)
    b405:	66 89 45 f8          	mov    %ax,-0x8(%rbp)
    b409:	0f b7 55 fc          	movzwl -0x4(%rbp),%edx
    b40d:	0f b7 45 f8          	movzwl -0x8(%rbp),%eax
    b411:	0f af c2             	imul   %edx,%eax
    b414:	5d                   	pop    %rbp
    b415:	c3                   	retq   

000000000000b416 <safe_mod_func_int16_t_s_s>:
    b416:	f3 0f 1e fa          	endbr64 
    b41a:	55                   	push   %rbp
    b41b:	48 89 e5             	mov    %rsp,%rbp
    b41e:	89 fa                	mov    %edi,%edx
    b420:	89 f0                	mov    %esi,%eax
    b422:	66 89 55 fc          	mov    %dx,-0x4(%rbp)
    b426:	66 89 45 f8          	mov    %ax,-0x8(%rbp)
    b42a:	66 83 7d f8 00       	cmpw   $0x0,-0x8(%rbp)
    b42f:	74 1e                	je     b44f <safe_mod_func_int16_t_s_s+0x39>
    b431:	66 81 7d fc 00 80    	cmpw   $0x8000,-0x4(%rbp)
    b437:	75 07                	jne    b440 <safe_mod_func_int16_t_s_s+0x2a>
    b439:	66 83 7d f8 ff       	cmpw   $0xffff,-0x8(%rbp)
    b43e:	74 0f                	je     b44f <safe_mod_func_int16_t_s_s+0x39>
    b440:	0f bf 45 fc          	movswl -0x4(%rbp),%eax
    b444:	0f bf 4d f8          	movswl -0x8(%rbp),%ecx
    b448:	99                   	cltd   
    b449:	f7 f9                	idiv   %ecx
    b44b:	89 d0                	mov    %edx,%eax
    b44d:	eb 04                	jmp    b453 <safe_mod_func_int16_t_s_s+0x3d>
    b44f:	0f b7 45 fc          	movzwl -0x4(%rbp),%eax
    b453:	5d                   	pop    %rbp
    b454:	c3                   	retq   

000000000000b455 <safe_div_func_int16_t_s_s>:
    b455:	f3 0f 1e fa          	endbr64 
    b459:	55                   	push   %rbp
    b45a:	48 89 e5             	mov    %rsp,%rbp
    b45d:	89 fa                	mov    %edi,%edx
    b45f:	89 f0                	mov    %esi,%eax
    b461:	66 89 55 fc          	mov    %dx,-0x4(%rbp)
    b465:	66 89 45 f8          	mov    %ax,-0x8(%rbp)
    b469:	66 83 7d f8 00       	cmpw   $0x0,-0x8(%rbp)
    b46e:	74 1c                	je     b48c <safe_div_func_int16_t_s_s+0x37>
    b470:	66 81 7d fc 00 80    	cmpw   $0x8000,-0x4(%rbp)
    b476:	75 07                	jne    b47f <safe_div_func_int16_t_s_s+0x2a>
    b478:	66 83 7d f8 ff       	cmpw   $0xffff,-0x8(%rbp)
    b47d:	74 0d                	je     b48c <safe_div_func_int16_t_s_s+0x37>
    b47f:	0f bf 45 fc          	movswl -0x4(%rbp),%eax
    b483:	0f bf 4d f8          	movswl -0x8(%rbp),%ecx
    b487:	99                   	cltd   
    b488:	f7 f9                	idiv   %ecx
    b48a:	eb 04                	jmp    b490 <safe_div_func_int16_t_s_s+0x3b>
    b48c:	0f b7 45 fc          	movzwl -0x4(%rbp),%eax
    b490:	5d                   	pop    %rbp
    b491:	c3                   	retq   

000000000000b492 <safe_lshift_func_int16_t_s_s>:
    b492:	f3 0f 1e fa          	endbr64 
    b496:	55                   	push   %rbp
    b497:	48 89 e5             	mov    %rsp,%rbp
    b49a:	89 f8                	mov    %edi,%eax
    b49c:	89 75 f8             	mov    %esi,-0x8(%rbp)
    b49f:	66 89 45 fc          	mov    %ax,-0x4(%rbp)
    b4a3:	66 83 7d fc 00       	cmpw   $0x0,-0x4(%rbp)
    b4a8:	78 31                	js     b4db <safe_lshift_func_int16_t_s_s+0x49>
    b4aa:	83 7d f8 00          	cmpl   $0x0,-0x8(%rbp)
    b4ae:	78 2b                	js     b4db <safe_lshift_func_int16_t_s_s+0x49>
    b4b0:	83 7d f8 1f          	cmpl   $0x1f,-0x8(%rbp)
    b4b4:	7f 25                	jg     b4db <safe_lshift_func_int16_t_s_s+0x49>
    b4b6:	0f bf 55 fc          	movswl -0x4(%rbp),%edx
    b4ba:	8b 45 f8             	mov    -0x8(%rbp),%eax
    b4bd:	be ff 7f 00 00       	mov    $0x7fff,%esi
    b4c2:	89 c1                	mov    %eax,%ecx
    b4c4:	d3 fe                	sar    %cl,%esi
    b4c6:	89 f0                	mov    %esi,%eax
    b4c8:	39 c2                	cmp    %eax,%edx
    b4ca:	7f 0f                	jg     b4db <safe_lshift_func_int16_t_s_s+0x49>
    b4cc:	0f bf 55 fc          	movswl -0x4(%rbp),%edx
    b4d0:	8b 45 f8             	mov    -0x8(%rbp),%eax
    b4d3:	89 c1                	mov    %eax,%ecx
    b4d5:	d3 e2                	shl    %cl,%edx
    b4d7:	89 d0                	mov    %edx,%eax
    b4d9:	eb 04                	jmp    b4df <safe_lshift_func_int16_t_s_s+0x4d>
    b4db:	0f b7 45 fc          	movzwl -0x4(%rbp),%eax
    b4df:	5d                   	pop    %rbp
    b4e0:	c3                   	retq   

000000000000b4e1 <safe_lshift_func_int16_t_s_u>:
    b4e1:	f3 0f 1e fa          	endbr64 
    b4e5:	55                   	push   %rbp
    b4e6:	48 89 e5             	mov    %rsp,%rbp
    b4e9:	89 f8                	mov    %edi,%eax
    b4eb:	89 75 f8             	mov    %esi,-0x8(%rbp)
    b4ee:	66 89 45 fc          	mov    %ax,-0x4(%rbp)
    b4f2:	66 83 7d fc 00       	cmpw   $0x0,-0x4(%rbp)
    b4f7:	78 2b                	js     b524 <safe_lshift_func_int16_t_s_u+0x43>
    b4f9:	83 7d f8 1f          	cmpl   $0x1f,-0x8(%rbp)
    b4fd:	77 25                	ja     b524 <safe_lshift_func_int16_t_s_u+0x43>
    b4ff:	0f bf 55 fc          	movswl -0x4(%rbp),%edx
    b503:	8b 45 f8             	mov    -0x8(%rbp),%eax
    b506:	be ff 7f 00 00       	mov    $0x7fff,%esi
    b50b:	89 c1                	mov    %eax,%ecx
    b50d:	d3 fe                	sar    %cl,%esi
    b50f:	89 f0                	mov    %esi,%eax
    b511:	39 c2                	cmp    %eax,%edx
    b513:	7f 0f                	jg     b524 <safe_lshift_func_int16_t_s_u+0x43>
    b515:	0f bf 55 fc          	movswl -0x4(%rbp),%edx
    b519:	8b 45 f8             	mov    -0x8(%rbp),%eax
    b51c:	89 c1                	mov    %eax,%ecx
    b51e:	d3 e2                	shl    %cl,%edx
    b520:	89 d0                	mov    %edx,%eax
    b522:	eb 04                	jmp    b528 <safe_lshift_func_int16_t_s_u+0x47>
    b524:	0f b7 45 fc          	movzwl -0x4(%rbp),%eax
    b528:	5d                   	pop    %rbp
    b529:	c3                   	retq   

000000000000b52a <safe_rshift_func_int16_t_s_s>:
    b52a:	f3 0f 1e fa          	endbr64 
    b52e:	55                   	push   %rbp
    b52f:	48 89 e5             	mov    %rsp,%rbp
    b532:	89 f8                	mov    %edi,%eax
    b534:	89 75 f8             	mov    %esi,-0x8(%rbp)
    b537:	66 89 45 fc          	mov    %ax,-0x4(%rbp)
    b53b:	66 83 7d fc 00       	cmpw   $0x0,-0x4(%rbp)
    b540:	78 1b                	js     b55d <safe_rshift_func_int16_t_s_s+0x33>
    b542:	83 7d f8 00          	cmpl   $0x0,-0x8(%rbp)
    b546:	78 15                	js     b55d <safe_rshift_func_int16_t_s_s+0x33>
    b548:	83 7d f8 1f          	cmpl   $0x1f,-0x8(%rbp)
    b54c:	7f 0f                	jg     b55d <safe_rshift_func_int16_t_s_s+0x33>
    b54e:	0f bf 55 fc          	movswl -0x4(%rbp),%edx
    b552:	8b 45 f8             	mov    -0x8(%rbp),%eax
    b555:	89 c1                	mov    %eax,%ecx
    b557:	d3 fa                	sar    %cl,%edx
    b559:	89 d0                	mov    %edx,%eax
    b55b:	eb 04                	jmp    b561 <safe_rshift_func_int16_t_s_s+0x37>
    b55d:	0f b7 45 fc          	movzwl -0x4(%rbp),%eax
    b561:	5d                   	pop    %rbp
    b562:	c3                   	retq   

000000000000b563 <safe_rshift_func_int16_t_s_u>:
    b563:	f3 0f 1e fa          	endbr64 
    b567:	55                   	push   %rbp
    b568:	48 89 e5             	mov    %rsp,%rbp
    b56b:	89 f8                	mov    %edi,%eax
    b56d:	89 75 f8             	mov    %esi,-0x8(%rbp)
    b570:	66 89 45 fc          	mov    %ax,-0x4(%rbp)
    b574:	66 83 7d fc 00       	cmpw   $0x0,-0x4(%rbp)
    b579:	78 15                	js     b590 <safe_rshift_func_int16_t_s_u+0x2d>
    b57b:	83 7d f8 1f          	cmpl   $0x1f,-0x8(%rbp)
    b57f:	77 0f                	ja     b590 <safe_rshift_func_int16_t_s_u+0x2d>
    b581:	0f bf 55 fc          	movswl -0x4(%rbp),%edx
    b585:	8b 45 f8             	mov    -0x8(%rbp),%eax
    b588:	89 c1                	mov    %eax,%ecx
    b58a:	d3 fa                	sar    %cl,%edx
    b58c:	89 d0                	mov    %edx,%eax
    b58e:	eb 04                	jmp    b594 <safe_rshift_func_int16_t_s_u+0x31>
    b590:	0f b7 45 fc          	movzwl -0x4(%rbp),%eax
    b594:	5d                   	pop    %rbp
    b595:	c3                   	retq   

000000000000b596 <safe_unary_minus_func_int32_t_s>:
    b596:	f3 0f 1e fa          	endbr64 
    b59a:	55                   	push   %rbp
    b59b:	48 89 e5             	mov    %rsp,%rbp
    b59e:	89 7d fc             	mov    %edi,-0x4(%rbp)
    b5a1:	81 7d fc 00 00 00 80 	cmpl   $0x80000000,-0x4(%rbp)
    b5a8:	74 07                	je     b5b1 <safe_unary_minus_func_int32_t_s+0x1b>
    b5aa:	8b 45 fc             	mov    -0x4(%rbp),%eax
    b5ad:	f7 d8                	neg    %eax
    b5af:	eb 03                	jmp    b5b4 <safe_unary_minus_func_int32_t_s+0x1e>
    b5b1:	8b 45 fc             	mov    -0x4(%rbp),%eax
    b5b4:	5d                   	pop    %rbp
    b5b5:	c3                   	retq   

000000000000b5b6 <safe_add_func_int32_t_s_s>:
    b5b6:	f3 0f 1e fa          	endbr64 
    b5ba:	55                   	push   %rbp
    b5bb:	48 89 e5             	mov    %rsp,%rbp
    b5be:	89 7d fc             	mov    %edi,-0x4(%rbp)
    b5c1:	89 75 f8             	mov    %esi,-0x8(%rbp)
    b5c4:	83 7d fc 00          	cmpl   $0x0,-0x4(%rbp)
    b5c8:	7e 13                	jle    b5dd <safe_add_func_int32_t_s_s+0x27>
    b5ca:	83 7d f8 00          	cmpl   $0x0,-0x8(%rbp)
    b5ce:	7e 0d                	jle    b5dd <safe_add_func_int32_t_s_s+0x27>
    b5d0:	b8 ff ff ff 7f       	mov    $0x7fffffff,%eax
    b5d5:	2b 45 f8             	sub    -0x8(%rbp),%eax
    b5d8:	39 45 fc             	cmp    %eax,-0x4(%rbp)
    b5db:	7f 23                	jg     b600 <safe_add_func_int32_t_s_s+0x4a>
    b5dd:	83 7d fc 00          	cmpl   $0x0,-0x4(%rbp)
    b5e1:	79 13                	jns    b5f6 <safe_add_func_int32_t_s_s+0x40>
    b5e3:	83 7d f8 00          	cmpl   $0x0,-0x8(%rbp)
    b5e7:	79 0d                	jns    b5f6 <safe_add_func_int32_t_s_s+0x40>
    b5e9:	b8 00 00 00 80       	mov    $0x80000000,%eax
    b5ee:	2b 45 f8             	sub    -0x8(%rbp),%eax
    b5f1:	39 45 fc             	cmp    %eax,-0x4(%rbp)
    b5f4:	7c 0a                	jl     b600 <safe_add_func_int32_t_s_s+0x4a>
    b5f6:	8b 55 fc             	mov    -0x4(%rbp),%edx
    b5f9:	8b 45 f8             	mov    -0x8(%rbp),%eax
    b5fc:	01 d0                	add    %edx,%eax
    b5fe:	eb 03                	jmp    b603 <safe_add_func_int32_t_s_s+0x4d>
    b600:	8b 45 fc             	mov    -0x4(%rbp),%eax
    b603:	5d                   	pop    %rbp
    b604:	c3                   	retq   

000000000000b605 <safe_sub_func_int32_t_s_s>:
    b605:	f3 0f 1e fa          	endbr64 
    b609:	55                   	push   %rbp
    b60a:	48 89 e5             	mov    %rsp,%rbp
    b60d:	89 7d fc             	mov    %edi,-0x4(%rbp)
    b610:	89 75 f8             	mov    %esi,-0x8(%rbp)
    b613:	8b 45 fc             	mov    -0x4(%rbp),%eax
    b616:	33 45 f8             	xor    -0x8(%rbp),%eax
    b619:	89 c2                	mov    %eax,%edx
    b61b:	8b 45 fc             	mov    -0x4(%rbp),%eax
    b61e:	33 45 f8             	xor    -0x8(%rbp),%eax
    b621:	25 00 00 00 80       	and    $0x80000000,%eax
    b626:	33 45 fc             	xor    -0x4(%rbp),%eax
    b629:	2b 45 f8             	sub    -0x8(%rbp),%eax
    b62c:	33 45 f8             	xor    -0x8(%rbp),%eax
    b62f:	21 d0                	and    %edx,%eax
    b631:	85 c0                	test   %eax,%eax
    b633:	78 08                	js     b63d <safe_sub_func_int32_t_s_s+0x38>
    b635:	8b 45 fc             	mov    -0x4(%rbp),%eax
    b638:	2b 45 f8             	sub    -0x8(%rbp),%eax
    b63b:	eb 03                	jmp    b640 <safe_sub_func_int32_t_s_s+0x3b>
    b63d:	8b 45 fc             	mov    -0x4(%rbp),%eax
    b640:	5d                   	pop    %rbp
    b641:	c3                   	retq   

000000000000b642 <safe_mul_func_int32_t_s_s>:
    b642:	f3 0f 1e fa          	endbr64 
    b646:	55                   	push   %rbp
    b647:	48 89 e5             	mov    %rsp,%rbp
    b64a:	89 7d fc             	mov    %edi,-0x4(%rbp)
    b64d:	89 75 f8             	mov    %esi,-0x8(%rbp)
    b650:	83 7d fc 00          	cmpl   $0x0,-0x4(%rbp)
    b654:	7e 14                	jle    b66a <safe_mul_func_int32_t_s_s+0x28>
    b656:	83 7d f8 00          	cmpl   $0x0,-0x8(%rbp)
    b65a:	7e 0e                	jle    b66a <safe_mul_func_int32_t_s_s+0x28>
    b65c:	b8 ff ff ff 7f       	mov    $0x7fffffff,%eax
    b661:	99                   	cltd   
    b662:	f7 7d f8             	idivl  -0x8(%rbp)
    b665:	39 45 fc             	cmp    %eax,-0x4(%rbp)
    b668:	7f 5d                	jg     b6c7 <safe_mul_func_int32_t_s_s+0x85>
    b66a:	83 7d fc 00          	cmpl   $0x0,-0x4(%rbp)
    b66e:	7e 14                	jle    b684 <safe_mul_func_int32_t_s_s+0x42>
    b670:	83 7d f8 00          	cmpl   $0x0,-0x8(%rbp)
    b674:	7f 0e                	jg     b684 <safe_mul_func_int32_t_s_s+0x42>
    b676:	b8 00 00 00 80       	mov    $0x80000000,%eax
    b67b:	99                   	cltd   
    b67c:	f7 7d fc             	idivl  -0x4(%rbp)
    b67f:	39 45 f8             	cmp    %eax,-0x8(%rbp)
    b682:	7c 43                	jl     b6c7 <safe_mul_func_int32_t_s_s+0x85>
    b684:	83 7d fc 00          	cmpl   $0x0,-0x4(%rbp)
    b688:	7f 14                	jg     b69e <safe_mul_func_int32_t_s_s+0x5c>
    b68a:	83 7d f8 00          	cmpl   $0x0,-0x8(%rbp)
    b68e:	7e 0e                	jle    b69e <safe_mul_func_int32_t_s_s+0x5c>
    b690:	b8 00 00 00 80       	mov    $0x80000000,%eax
    b695:	99                   	cltd   
    b696:	f7 7d f8             	idivl  -0x8(%rbp)
    b699:	39 45 fc             	cmp    %eax,-0x4(%rbp)
    b69c:	7c 29                	jl     b6c7 <safe_mul_func_int32_t_s_s+0x85>
    b69e:	83 7d fc 00          	cmpl   $0x0,-0x4(%rbp)
    b6a2:	7f 1a                	jg     b6be <safe_mul_func_int32_t_s_s+0x7c>
    b6a4:	83 7d f8 00          	cmpl   $0x0,-0x8(%rbp)
    b6a8:	7f 14                	jg     b6be <safe_mul_func_int32_t_s_s+0x7c>
    b6aa:	83 7d fc 00          	cmpl   $0x0,-0x4(%rbp)
    b6ae:	74 0e                	je     b6be <safe_mul_func_int32_t_s_s+0x7c>
    b6b0:	b8 ff ff ff 7f       	mov    $0x7fffffff,%eax
    b6b5:	99                   	cltd   
    b6b6:	f7 7d fc             	idivl  -0x4(%rbp)
    b6b9:	39 45 f8             	cmp    %eax,-0x8(%rbp)
    b6bc:	7c 09                	jl     b6c7 <safe_mul_func_int32_t_s_s+0x85>
    b6be:	8b 45 fc             	mov    -0x4(%rbp),%eax
    b6c1:	0f af 45 f8          	imul   -0x8(%rbp),%eax
    b6c5:	eb 03                	jmp    b6ca <safe_mul_func_int32_t_s_s+0x88>
    b6c7:	8b 45 fc             	mov    -0x4(%rbp),%eax
    b6ca:	5d                   	pop    %rbp
    b6cb:	c3                   	retq   

000000000000b6cc <safe_mod_func_int32_t_s_s>:
    b6cc:	f3 0f 1e fa          	endbr64 
    b6d0:	55                   	push   %rbp
    b6d1:	48 89 e5             	mov    %rsp,%rbp
    b6d4:	89 7d fc             	mov    %edi,-0x4(%rbp)
    b6d7:	89 75 f8             	mov    %esi,-0x8(%rbp)
    b6da:	83 7d f8 00          	cmpl   $0x0,-0x8(%rbp)
    b6de:	74 1a                	je     b6fa <safe_mod_func_int32_t_s_s+0x2e>
    b6e0:	81 7d fc 00 00 00 80 	cmpl   $0x80000000,-0x4(%rbp)
    b6e7:	75 06                	jne    b6ef <safe_mod_func_int32_t_s_s+0x23>
    b6e9:	83 7d f8 ff          	cmpl   $0xffffffff,-0x8(%rbp)
    b6ed:	74 0b                	je     b6fa <safe_mod_func_int32_t_s_s+0x2e>
    b6ef:	8b 45 fc             	mov    -0x4(%rbp),%eax
    b6f2:	99                   	cltd   
    b6f3:	f7 7d f8             	idivl  -0x8(%rbp)
    b6f6:	89 d0                	mov    %edx,%eax
    b6f8:	eb 03                	jmp    b6fd <safe_mod_func_int32_t_s_s+0x31>
    b6fa:	8b 45 fc             	mov    -0x4(%rbp),%eax
    b6fd:	5d                   	pop    %rbp
    b6fe:	c3                   	retq   

000000000000b6ff <safe_div_func_int32_t_s_s>:
    b6ff:	f3 0f 1e fa          	endbr64 
    b703:	55                   	push   %rbp
    b704:	48 89 e5             	mov    %rsp,%rbp
    b707:	89 7d fc             	mov    %edi,-0x4(%rbp)
    b70a:	89 75 f8             	mov    %esi,-0x8(%rbp)
    b70d:	83 7d f8 00          	cmpl   $0x0,-0x8(%rbp)
    b711:	74 18                	je     b72b <safe_div_func_int32_t_s_s+0x2c>
    b713:	81 7d fc 00 00 00 80 	cmpl   $0x80000000,-0x4(%rbp)
    b71a:	75 06                	jne    b722 <safe_div_func_int32_t_s_s+0x23>
    b71c:	83 7d f8 ff          	cmpl   $0xffffffff,-0x8(%rbp)
    b720:	74 09                	je     b72b <safe_div_func_int32_t_s_s+0x2c>
    b722:	8b 45 fc             	mov    -0x4(%rbp),%eax
    b725:	99                   	cltd   
    b726:	f7 7d f8             	idivl  -0x8(%rbp)
    b729:	eb 03                	jmp    b72e <safe_div_func_int32_t_s_s+0x2f>
    b72b:	8b 45 fc             	mov    -0x4(%rbp),%eax
    b72e:	5d                   	pop    %rbp
    b72f:	c3                   	retq   

000000000000b730 <safe_lshift_func_int32_t_s_s>:
    b730:	f3 0f 1e fa          	endbr64 
    b734:	55                   	push   %rbp
    b735:	48 89 e5             	mov    %rsp,%rbp
    b738:	89 7d fc             	mov    %edi,-0x4(%rbp)
    b73b:	89 75 f8             	mov    %esi,-0x8(%rbp)
    b73e:	83 7d fc 00          	cmpl   $0x0,-0x4(%rbp)
    b742:	78 2d                	js     b771 <safe_lshift_func_int32_t_s_s+0x41>
    b744:	83 7d f8 00          	cmpl   $0x0,-0x8(%rbp)
    b748:	78 27                	js     b771 <safe_lshift_func_int32_t_s_s+0x41>
    b74a:	83 7d f8 1f          	cmpl   $0x1f,-0x8(%rbp)
    b74e:	7f 21                	jg     b771 <safe_lshift_func_int32_t_s_s+0x41>
    b750:	8b 45 f8             	mov    -0x8(%rbp),%eax
    b753:	ba ff ff ff 7f       	mov    $0x7fffffff,%edx
    b758:	89 c1                	mov    %eax,%ecx
    b75a:	d3 fa                	sar    %cl,%edx
    b75c:	89 d0                	mov    %edx,%eax
    b75e:	39 45 fc             	cmp    %eax,-0x4(%rbp)
    b761:	7f 0e                	jg     b771 <safe_lshift_func_int32_t_s_s+0x41>
    b763:	8b 45 f8             	mov    -0x8(%rbp),%eax
    b766:	8b 55 fc             	mov    -0x4(%rbp),%edx
    b769:	89 c1                	mov    %eax,%ecx
    b76b:	d3 e2                	shl    %cl,%edx
    b76d:	89 d0                	mov    %edx,%eax
    b76f:	eb 03                	jmp    b774 <safe_lshift_func_int32_t_s_s+0x44>
    b771:	8b 45 fc             	mov    -0x4(%rbp),%eax
    b774:	5d                   	pop    %rbp
    b775:	c3                   	retq   

000000000000b776 <safe_lshift_func_int32_t_s_u>:
    b776:	f3 0f 1e fa          	endbr64 
    b77a:	55                   	push   %rbp
    b77b:	48 89 e5             	mov    %rsp,%rbp
    b77e:	89 7d fc             	mov    %edi,-0x4(%rbp)
    b781:	89 75 f8             	mov    %esi,-0x8(%rbp)
    b784:	83 7d fc 00          	cmpl   $0x0,-0x4(%rbp)
    b788:	78 27                	js     b7b1 <safe_lshift_func_int32_t_s_u+0x3b>
    b78a:	83 7d f8 1f          	cmpl   $0x1f,-0x8(%rbp)
    b78e:	77 21                	ja     b7b1 <safe_lshift_func_int32_t_s_u+0x3b>
    b790:	8b 45 f8             	mov    -0x8(%rbp),%eax
    b793:	ba ff ff ff 7f       	mov    $0x7fffffff,%edx
    b798:	89 c1                	mov    %eax,%ecx
    b79a:	d3 fa                	sar    %cl,%edx
    b79c:	89 d0                	mov    %edx,%eax
    b79e:	39 45 fc             	cmp    %eax,-0x4(%rbp)
    b7a1:	7f 0e                	jg     b7b1 <safe_lshift_func_int32_t_s_u+0x3b>
    b7a3:	8b 45 f8             	mov    -0x8(%rbp),%eax
    b7a6:	8b 55 fc             	mov    -0x4(%rbp),%edx
    b7a9:	89 c1                	mov    %eax,%ecx
    b7ab:	d3 e2                	shl    %cl,%edx
    b7ad:	89 d0                	mov    %edx,%eax
    b7af:	eb 03                	jmp    b7b4 <safe_lshift_func_int32_t_s_u+0x3e>
    b7b1:	8b 45 fc             	mov    -0x4(%rbp),%eax
    b7b4:	5d                   	pop    %rbp
    b7b5:	c3                   	retq   

000000000000b7b6 <safe_rshift_func_int32_t_s_s>:
    b7b6:	f3 0f 1e fa          	endbr64 
    b7ba:	55                   	push   %rbp
    b7bb:	48 89 e5             	mov    %rsp,%rbp
    b7be:	89 7d fc             	mov    %edi,-0x4(%rbp)
    b7c1:	89 75 f8             	mov    %esi,-0x8(%rbp)
    b7c4:	83 7d fc 00          	cmpl   $0x0,-0x4(%rbp)
    b7c8:	78 1a                	js     b7e4 <safe_rshift_func_int32_t_s_s+0x2e>
    b7ca:	83 7d f8 00          	cmpl   $0x0,-0x8(%rbp)
    b7ce:	78 14                	js     b7e4 <safe_rshift_func_int32_t_s_s+0x2e>
    b7d0:	83 7d f8 1f          	cmpl   $0x1f,-0x8(%rbp)
    b7d4:	7f 0e                	jg     b7e4 <safe_rshift_func_int32_t_s_s+0x2e>
    b7d6:	8b 45 f8             	mov    -0x8(%rbp),%eax
    b7d9:	8b 55 fc             	mov    -0x4(%rbp),%edx
    b7dc:	89 c1                	mov    %eax,%ecx
    b7de:	d3 fa                	sar    %cl,%edx
    b7e0:	89 d0                	mov    %edx,%eax
    b7e2:	eb 03                	jmp    b7e7 <safe_rshift_func_int32_t_s_s+0x31>
    b7e4:	8b 45 fc             	mov    -0x4(%rbp),%eax
    b7e7:	5d                   	pop    %rbp
    b7e8:	c3                   	retq   

000000000000b7e9 <safe_rshift_func_int32_t_s_u>:
    b7e9:	f3 0f 1e fa          	endbr64 
    b7ed:	55                   	push   %rbp
    b7ee:	48 89 e5             	mov    %rsp,%rbp
    b7f1:	89 7d fc             	mov    %edi,-0x4(%rbp)
    b7f4:	89 75 f8             	mov    %esi,-0x8(%rbp)
    b7f7:	83 7d fc 00          	cmpl   $0x0,-0x4(%rbp)
    b7fb:	78 14                	js     b811 <safe_rshift_func_int32_t_s_u+0x28>
    b7fd:	83 7d f8 1f          	cmpl   $0x1f,-0x8(%rbp)
    b801:	77 0e                	ja     b811 <safe_rshift_func_int32_t_s_u+0x28>
    b803:	8b 45 f8             	mov    -0x8(%rbp),%eax
    b806:	8b 55 fc             	mov    -0x4(%rbp),%edx
    b809:	89 c1                	mov    %eax,%ecx
    b80b:	d3 fa                	sar    %cl,%edx
    b80d:	89 d0                	mov    %edx,%eax
    b80f:	eb 03                	jmp    b814 <safe_rshift_func_int32_t_s_u+0x2b>
    b811:	8b 45 fc             	mov    -0x4(%rbp),%eax
    b814:	5d                   	pop    %rbp
    b815:	c3                   	retq   

000000000000b816 <safe_unary_minus_func_int64_t_s>:
    b816:	f3 0f 1e fa          	endbr64 
    b81a:	55                   	push   %rbp
    b81b:	48 89 e5             	mov    %rsp,%rbp
    b81e:	48 89 7d f8          	mov    %rdi,-0x8(%rbp)
    b822:	48 b8 00 00 00 00 00 	movabs $0x8000000000000000,%rax
    b829:	00 00 80 
    b82c:	48 39 45 f8          	cmp    %rax,-0x8(%rbp)
    b830:	74 09                	je     b83b <safe_unary_minus_func_int64_t_s+0x25>
    b832:	48 8b 45 f8          	mov    -0x8(%rbp),%rax
    b836:	48 f7 d8             	neg    %rax
    b839:	eb 04                	jmp    b83f <safe_unary_minus_func_int64_t_s+0x29>
    b83b:	48 8b 45 f8          	mov    -0x8(%rbp),%rax
    b83f:	5d                   	pop    %rbp
    b840:	c3                   	retq   

000000000000b841 <safe_add_func_int64_t_s_s>:
    b841:	f3 0f 1e fa          	endbr64 
    b845:	55                   	push   %rbp
    b846:	48 89 e5             	mov    %rsp,%rbp
    b849:	48 89 7d f8          	mov    %rdi,-0x8(%rbp)
    b84d:	48 89 75 f0          	mov    %rsi,-0x10(%rbp)
    b851:	48 83 7d f8 00       	cmpq   $0x0,-0x8(%rbp)
    b856:	7e 1b                	jle    b873 <safe_add_func_int64_t_s_s+0x32>
    b858:	48 83 7d f0 00       	cmpq   $0x0,-0x10(%rbp)
    b85d:	7e 14                	jle    b873 <safe_add_func_int64_t_s_s+0x32>
    b85f:	48 b8 ff ff ff ff ff 	movabs $0x7fffffffffffffff,%rax
    b866:	ff ff 7f 
    b869:	48 2b 45 f0          	sub    -0x10(%rbp),%rax
    b86d:	48 39 45 f8          	cmp    %rax,-0x8(%rbp)
    b871:	7f 2f                	jg     b8a2 <safe_add_func_int64_t_s_s+0x61>
    b873:	48 83 7d f8 00       	cmpq   $0x0,-0x8(%rbp)
    b878:	79 1b                	jns    b895 <safe_add_func_int64_t_s_s+0x54>
    b87a:	48 83 7d f0 00       	cmpq   $0x0,-0x10(%rbp)
    b87f:	79 14                	jns    b895 <safe_add_func_int64_t_s_s+0x54>
    b881:	48 b8 00 00 00 00 00 	movabs $0x8000000000000000,%rax
    b888:	00 00 80 
    b88b:	48 2b 45 f0          	sub    -0x10(%rbp),%rax
    b88f:	48 39 45 f8          	cmp    %rax,-0x8(%rbp)
    b893:	7c 0d                	jl     b8a2 <safe_add_func_int64_t_s_s+0x61>
    b895:	48 8b 55 f8          	mov    -0x8(%rbp),%rdx
    b899:	48 8b 45 f0          	mov    -0x10(%rbp),%rax
    b89d:	48 01 d0             	add    %rdx,%rax
    b8a0:	eb 04                	jmp    b8a6 <safe_add_func_int64_t_s_s+0x65>
    b8a2:	48 8b 45 f8          	mov    -0x8(%rbp),%rax
    b8a6:	5d                   	pop    %rbp
    b8a7:	c3                   	retq   

000000000000b8a8 <safe_sub_func_int64_t_s_s>:
    b8a8:	f3 0f 1e fa          	endbr64 
    b8ac:	55                   	push   %rbp
    b8ad:	48 89 e5             	mov    %rsp,%rbp
    b8b0:	48 89 7d f8          	mov    %rdi,-0x8(%rbp)
    b8b4:	48 89 75 f0          	mov    %rsi,-0x10(%rbp)
    b8b8:	48 8b 45 f8          	mov    -0x8(%rbp),%rax
    b8bc:	48 33 45 f0          	xor    -0x10(%rbp),%rax
    b8c0:	48 89 c2             	mov    %rax,%rdx
    b8c3:	48 8b 45 f8          	mov    -0x8(%rbp),%rax
    b8c7:	48 33 45 f0          	xor    -0x10(%rbp),%rax
    b8cb:	48 b9 00 00 00 00 00 	movabs $0x8000000000000000,%rcx
    b8d2:	00 00 80 
    b8d5:	48 21 c8             	and    %rcx,%rax
    b8d8:	48 33 45 f8          	xor    -0x8(%rbp),%rax
    b8dc:	48 2b 45 f0          	sub    -0x10(%rbp),%rax
    b8e0:	48 33 45 f0          	xor    -0x10(%rbp),%rax
    b8e4:	48 21 d0             	and    %rdx,%rax
    b8e7:	48 85 c0             	test   %rax,%rax
    b8ea:	78 0a                	js     b8f6 <safe_sub_func_int64_t_s_s+0x4e>
    b8ec:	48 8b 45 f8          	mov    -0x8(%rbp),%rax
    b8f0:	48 2b 45 f0          	sub    -0x10(%rbp),%rax
    b8f4:	eb 04                	jmp    b8fa <safe_sub_func_int64_t_s_s+0x52>
    b8f6:	48 8b 45 f8          	mov    -0x8(%rbp),%rax
    b8fa:	5d                   	pop    %rbp
    b8fb:	c3                   	retq   

000000000000b8fc <safe_mul_func_int64_t_s_s>:
    b8fc:	f3 0f 1e fa          	endbr64 
    b900:	55                   	push   %rbp
    b901:	48 89 e5             	mov    %rsp,%rbp
    b904:	48 89 7d f8          	mov    %rdi,-0x8(%rbp)
    b908:	48 89 75 f0          	mov    %rsi,-0x10(%rbp)
    b90c:	48 83 7d f8 00       	cmpq   $0x0,-0x8(%rbp)
    b911:	7e 1d                	jle    b930 <safe_mul_func_int64_t_s_s+0x34>
    b913:	48 83 7d f0 00       	cmpq   $0x0,-0x10(%rbp)
    b918:	7e 16                	jle    b930 <safe_mul_func_int64_t_s_s+0x34>
    b91a:	48 b8 ff ff ff ff ff 	movabs $0x7fffffffffffffff,%rax
    b921:	ff ff 7f 
    b924:	48 99                	cqto   
    b926:	48 f7 7d f0          	idivq  -0x10(%rbp)
    b92a:	48 39 45 f8          	cmp    %rax,-0x8(%rbp)
    b92e:	7f 7e                	jg     b9ae <safe_mul_func_int64_t_s_s+0xb2>
    b930:	48 83 7d f8 00       	cmpq   $0x0,-0x8(%rbp)
    b935:	7e 1d                	jle    b954 <safe_mul_func_int64_t_s_s+0x58>
    b937:	48 83 7d f0 00       	cmpq   $0x0,-0x10(%rbp)
    b93c:	7f 16                	jg     b954 <safe_mul_func_int64_t_s_s+0x58>
    b93e:	48 b8 00 00 00 00 00 	movabs $0x8000000000000000,%rax
    b945:	00 00 80 
    b948:	48 99                	cqto   
    b94a:	48 f7 7d f8          	idivq  -0x8(%rbp)
    b94e:	48 39 45 f0          	cmp    %rax,-0x10(%rbp)
    b952:	7c 5a                	jl     b9ae <safe_mul_func_int64_t_s_s+0xb2>
    b954:	48 83 7d f8 00       	cmpq   $0x0,-0x8(%rbp)
    b959:	7f 1d                	jg     b978 <safe_mul_func_int64_t_s_s+0x7c>
    b95b:	48 83 7d f0 00       	cmpq   $0x0,-0x10(%rbp)
    b960:	7e 16                	jle    b978 <safe_mul_func_int64_t_s_s+0x7c>
    b962:	48 b8 00 00 00 00 00 	movabs $0x8000000000000000,%rax
    b969:	00 00 80 
    b96c:	48 99                	cqto   
    b96e:	48 f7 7d f0          	idivq  -0x10(%rbp)
    b972:	48 39 45 f8          	cmp    %rax,-0x8(%rbp)
    b976:	7c 36                	jl     b9ae <safe_mul_func_int64_t_s_s+0xb2>
    b978:	48 83 7d f8 00       	cmpq   $0x0,-0x8(%rbp)
    b97d:	7f 24                	jg     b9a3 <safe_mul_func_int64_t_s_s+0xa7>
    b97f:	48 83 7d f0 00       	cmpq   $0x0,-0x10(%rbp)
    b984:	7f 1d                	jg     b9a3 <safe_mul_func_int64_t_s_s+0xa7>
    b986:	48 83 7d f8 00       	cmpq   $0x0,-0x8(%rbp)
    b98b:	74 16                	je     b9a3 <safe_mul_func_int64_t_s_s+0xa7>
    b98d:	48 b8 ff ff ff ff ff 	movabs $0x7fffffffffffffff,%rax
    b994:	ff ff 7f 
    b997:	48 99                	cqto   
    b999:	48 f7 7d f8          	idivq  -0x8(%rbp)
    b99d:	48 39 45 f0          	cmp    %rax,-0x10(%rbp)
    b9a1:	7c 0b                	jl     b9ae <safe_mul_func_int64_t_s_s+0xb2>
    b9a3:	48 8b 45 f8          	mov    -0x8(%rbp),%rax
    b9a7:	48 0f af 45 f0       	imul   -0x10(%rbp),%rax
    b9ac:	eb 04                	jmp    b9b2 <safe_mul_func_int64_t_s_s+0xb6>
    b9ae:	48 8b 45 f8          	mov    -0x8(%rbp),%rax
    b9b2:	5d                   	pop    %rbp
    b9b3:	c3                   	retq   

000000000000b9b4 <safe_mod_func_int64_t_s_s>:
    b9b4:	f3 0f 1e fa          	endbr64 
    b9b8:	55                   	push   %rbp
    b9b9:	48 89 e5             	mov    %rsp,%rbp
    b9bc:	48 89 7d f8          	mov    %rdi,-0x8(%rbp)
    b9c0:	48 89 75 f0          	mov    %rsi,-0x10(%rbp)
    b9c4:	48 83 7d f0 00       	cmpq   $0x0,-0x10(%rbp)
    b9c9:	74 26                	je     b9f1 <safe_mod_func_int64_t_s_s+0x3d>
    b9cb:	48 b8 00 00 00 00 00 	movabs $0x8000000000000000,%rax
    b9d2:	00 00 80 
    b9d5:	48 39 45 f8          	cmp    %rax,-0x8(%rbp)
    b9d9:	75 07                	jne    b9e2 <safe_mod_func_int64_t_s_s+0x2e>
    b9db:	48 83 7d f0 ff       	cmpq   $0xffffffffffffffff,-0x10(%rbp)
    b9e0:	74 0f                	je     b9f1 <safe_mod_func_int64_t_s_s+0x3d>
    b9e2:	48 8b 45 f8          	mov    -0x8(%rbp),%rax
    b9e6:	48 99                	cqto   
    b9e8:	48 f7 7d f0          	idivq  -0x10(%rbp)
    b9ec:	48 89 d0             	mov    %rdx,%rax
    b9ef:	eb 04                	jmp    b9f5 <safe_mod_func_int64_t_s_s+0x41>
    b9f1:	48 8b 45 f8          	mov    -0x8(%rbp),%rax
    b9f5:	5d                   	pop    %rbp
    b9f6:	c3                   	retq   

000000000000b9f7 <safe_div_func_int64_t_s_s>:
    b9f7:	f3 0f 1e fa          	endbr64 
    b9fb:	55                   	push   %rbp
    b9fc:	48 89 e5             	mov    %rsp,%rbp
    b9ff:	48 89 7d f8          	mov    %rdi,-0x8(%rbp)
    ba03:	48 89 75 f0          	mov    %rsi,-0x10(%rbp)
    ba07:	48 83 7d f0 00       	cmpq   $0x0,-0x10(%rbp)
    ba0c:	74 23                	je     ba31 <safe_div_func_int64_t_s_s+0x3a>
    ba0e:	48 b8 00 00 00 00 00 	movabs $0x8000000000000000,%rax
    ba15:	00 00 80 
    ba18:	48 39 45 f8          	cmp    %rax,-0x8(%rbp)
    ba1c:	75 07                	jne    ba25 <safe_div_func_int64_t_s_s+0x2e>
    ba1e:	48 83 7d f0 ff       	cmpq   $0xffffffffffffffff,-0x10(%rbp)
    ba23:	74 0c                	je     ba31 <safe_div_func_int64_t_s_s+0x3a>
    ba25:	48 8b 45 f8          	mov    -0x8(%rbp),%rax
    ba29:	48 99                	cqto   
    ba2b:	48 f7 7d f0          	idivq  -0x10(%rbp)
    ba2f:	eb 04                	jmp    ba35 <safe_div_func_int64_t_s_s+0x3e>
    ba31:	48 8b 45 f8          	mov    -0x8(%rbp),%rax
    ba35:	5d                   	pop    %rbp
    ba36:	c3                   	retq   

000000000000ba37 <safe_lshift_func_int64_t_s_s>:
    ba37:	f3 0f 1e fa          	endbr64 
    ba3b:	55                   	push   %rbp
    ba3c:	48 89 e5             	mov    %rsp,%rbp
    ba3f:	48 89 7d f8          	mov    %rdi,-0x8(%rbp)
    ba43:	89 75 f4             	mov    %esi,-0xc(%rbp)
    ba46:	48 83 7d f8 00       	cmpq   $0x0,-0x8(%rbp)
    ba4b:	78 38                	js     ba85 <safe_lshift_func_int64_t_s_s+0x4e>
    ba4d:	83 7d f4 00          	cmpl   $0x0,-0xc(%rbp)
    ba51:	78 32                	js     ba85 <safe_lshift_func_int64_t_s_s+0x4e>
    ba53:	83 7d f4 1f          	cmpl   $0x1f,-0xc(%rbp)
    ba57:	7f 2c                	jg     ba85 <safe_lshift_func_int64_t_s_s+0x4e>
    ba59:	8b 45 f4             	mov    -0xc(%rbp),%eax
    ba5c:	48 ba ff ff ff ff ff 	movabs $0x7fffffffffffffff,%rdx
    ba63:	ff ff 7f 
    ba66:	89 c1                	mov    %eax,%ecx
    ba68:	48 d3 fa             	sar    %cl,%rdx
    ba6b:	48 89 d0             	mov    %rdx,%rax
    ba6e:	48 39 45 f8          	cmp    %rax,-0x8(%rbp)
    ba72:	7f 11                	jg     ba85 <safe_lshift_func_int64_t_s_s+0x4e>
    ba74:	8b 45 f4             	mov    -0xc(%rbp),%eax
    ba77:	48 8b 55 f8          	mov    -0x8(%rbp),%rdx
    ba7b:	89 c1                	mov    %eax,%ecx
    ba7d:	48 d3 e2             	shl    %cl,%rdx
    ba80:	48 89 d0             	mov    %rdx,%rax
    ba83:	eb 04                	jmp    ba89 <safe_lshift_func_int64_t_s_s+0x52>
    ba85:	48 8b 45 f8          	mov    -0x8(%rbp),%rax
    ba89:	5d                   	pop    %rbp
    ba8a:	c3                   	retq   

000000000000ba8b <safe_lshift_func_int64_t_s_u>:
    ba8b:	f3 0f 1e fa          	endbr64 
    ba8f:	55                   	push   %rbp
    ba90:	48 89 e5             	mov    %rsp,%rbp
    ba93:	48 89 7d f8          	mov    %rdi,-0x8(%rbp)
    ba97:	89 75 f4             	mov    %esi,-0xc(%rbp)
    ba9a:	48 83 7d f8 00       	cmpq   $0x0,-0x8(%rbp)
    ba9f:	78 32                	js     bad3 <safe_lshift_func_int64_t_s_u+0x48>
    baa1:	83 7d f4 1f          	cmpl   $0x1f,-0xc(%rbp)
    baa5:	77 2c                	ja     bad3 <safe_lshift_func_int64_t_s_u+0x48>
    baa7:	8b 45 f4             	mov    -0xc(%rbp),%eax
    baaa:	48 ba ff ff ff ff ff 	movabs $0x7fffffffffffffff,%rdx
    bab1:	ff ff 7f 
    bab4:	89 c1                	mov    %eax,%ecx
    bab6:	48 d3 fa             	sar    %cl,%rdx
    bab9:	48 89 d0             	mov    %rdx,%rax
    babc:	48 39 45 f8          	cmp    %rax,-0x8(%rbp)
    bac0:	7f 11                	jg     bad3 <safe_lshift_func_int64_t_s_u+0x48>
    bac2:	8b 45 f4             	mov    -0xc(%rbp),%eax
    bac5:	48 8b 55 f8          	mov    -0x8(%rbp),%rdx
    bac9:	89 c1                	mov    %eax,%ecx
    bacb:	48 d3 e2             	shl    %cl,%rdx
    bace:	48 89 d0             	mov    %rdx,%rax
    bad1:	eb 04                	jmp    bad7 <safe_lshift_func_int64_t_s_u+0x4c>
    bad3:	48 8b 45 f8          	mov    -0x8(%rbp),%rax
    bad7:	5d                   	pop    %rbp
    bad8:	c3                   	retq   

000000000000bad9 <safe_rshift_func_int64_t_s_s>:
    bad9:	f3 0f 1e fa          	endbr64 
    badd:	55                   	push   %rbp
    bade:	48 89 e5             	mov    %rsp,%rbp
    bae1:	48 89 7d f8          	mov    %rdi,-0x8(%rbp)
    bae5:	89 75 f4             	mov    %esi,-0xc(%rbp)
    bae8:	48 83 7d f8 00       	cmpq   $0x0,-0x8(%rbp)
    baed:	78 1d                	js     bb0c <safe_rshift_func_int64_t_s_s+0x33>
    baef:	83 7d f4 00          	cmpl   $0x0,-0xc(%rbp)
    baf3:	78 17                	js     bb0c <safe_rshift_func_int64_t_s_s+0x33>
    baf5:	83 7d f4 1f          	cmpl   $0x1f,-0xc(%rbp)
    baf9:	7f 11                	jg     bb0c <safe_rshift_func_int64_t_s_s+0x33>
    bafb:	8b 45 f4             	mov    -0xc(%rbp),%eax
    bafe:	48 8b 55 f8          	mov    -0x8(%rbp),%rdx
    bb02:	89 c1                	mov    %eax,%ecx
    bb04:	48 d3 fa             	sar    %cl,%rdx
    bb07:	48 89 d0             	mov    %rdx,%rax
    bb0a:	eb 04                	jmp    bb10 <safe_rshift_func_int64_t_s_s+0x37>
    bb0c:	48 8b 45 f8          	mov    -0x8(%rbp),%rax
    bb10:	5d                   	pop    %rbp
    bb11:	c3                   	retq   

000000000000bb12 <safe_rshift_func_int64_t_s_u>:
    bb12:	f3 0f 1e fa          	endbr64 
    bb16:	55                   	push   %rbp
    bb17:	48 89 e5             	mov    %rsp,%rbp
    bb1a:	48 89 7d f8          	mov    %rdi,-0x8(%rbp)
    bb1e:	89 75 f4             	mov    %esi,-0xc(%rbp)
    bb21:	48 83 7d f8 00       	cmpq   $0x0,-0x8(%rbp)
    bb26:	78 17                	js     bb3f <safe_rshift_func_int64_t_s_u+0x2d>
    bb28:	83 7d f4 1f          	cmpl   $0x1f,-0xc(%rbp)
    bb2c:	77 11                	ja     bb3f <safe_rshift_func_int64_t_s_u+0x2d>
    bb2e:	8b 45 f4             	mov    -0xc(%rbp),%eax
    bb31:	48 8b 55 f8          	mov    -0x8(%rbp),%rdx
    bb35:	89 c1                	mov    %eax,%ecx
    bb37:	48 d3 fa             	sar    %cl,%rdx
    bb3a:	48 89 d0             	mov    %rdx,%rax
    bb3d:	eb 04                	jmp    bb43 <safe_rshift_func_int64_t_s_u+0x31>
    bb3f:	48 8b 45 f8          	mov    -0x8(%rbp),%rax
    bb43:	5d                   	pop    %rbp
    bb44:	c3                   	retq   

000000000000bb45 <safe_unary_minus_func_uint8_t_u>:
    bb45:	f3 0f 1e fa          	endbr64 
    bb49:	55                   	push   %rbp
    bb4a:	48 89 e5             	mov    %rsp,%rbp
    bb4d:	89 f8                	mov    %edi,%eax
    bb4f:	88 45 fc             	mov    %al,-0x4(%rbp)
    bb52:	0f b6 45 fc          	movzbl -0x4(%rbp),%eax
    bb56:	f7 d8                	neg    %eax
    bb58:	5d                   	pop    %rbp
    bb59:	c3                   	retq   

000000000000bb5a <safe_add_func_uint8_t_u_u>:
    bb5a:	f3 0f 1e fa          	endbr64 
    bb5e:	55                   	push   %rbp
    bb5f:	48 89 e5             	mov    %rsp,%rbp
    bb62:	89 fa                	mov    %edi,%edx
    bb64:	89 f0                	mov    %esi,%eax
    bb66:	88 55 fc             	mov    %dl,-0x4(%rbp)
    bb69:	88 45 f8             	mov    %al,-0x8(%rbp)
    bb6c:	0f b6 55 fc          	movzbl -0x4(%rbp),%edx
    bb70:	0f b6 45 f8          	movzbl -0x8(%rbp),%eax
    bb74:	01 d0                	add    %edx,%eax
    bb76:	5d                   	pop    %rbp
    bb77:	c3                   	retq   

000000000000bb78 <safe_sub_func_uint8_t_u_u>:
    bb78:	f3 0f 1e fa          	endbr64 
    bb7c:	55                   	push   %rbp
    bb7d:	48 89 e5             	mov    %rsp,%rbp
    bb80:	89 fa                	mov    %edi,%edx
    bb82:	89 f0                	mov    %esi,%eax
    bb84:	88 55 fc             	mov    %dl,-0x4(%rbp)
    bb87:	88 45 f8             	mov    %al,-0x8(%rbp)
    bb8a:	0f b6 45 fc          	movzbl -0x4(%rbp),%eax
    bb8e:	2a 45 f8             	sub    -0x8(%rbp),%al
    bb91:	5d                   	pop    %rbp
    bb92:	c3                   	retq   

000000000000bb93 <safe_mul_func_uint8_t_u_u>:
    bb93:	f3 0f 1e fa          	endbr64 
    bb97:	55                   	push   %rbp
    bb98:	48 89 e5             	mov    %rsp,%rbp
    bb9b:	89 fa                	mov    %edi,%edx
    bb9d:	89 f0                	mov    %esi,%eax
    bb9f:	88 55 fc             	mov    %dl,-0x4(%rbp)
    bba2:	88 45 f8             	mov    %al,-0x8(%rbp)
    bba5:	0f b6 45 fc          	movzbl -0x4(%rbp),%eax
    bba9:	f6 65 f8             	mulb   -0x8(%rbp)
    bbac:	5d                   	pop    %rbp
    bbad:	c3                   	retq   

000000000000bbae <safe_mod_func_uint8_t_u_u>:
    bbae:	f3 0f 1e fa          	endbr64 
    bbb2:	55                   	push   %rbp
    bbb3:	48 89 e5             	mov    %rsp,%rbp
    bbb6:	89 fa                	mov    %edi,%edx
    bbb8:	89 f0                	mov    %esi,%eax
    bbba:	88 55 fc             	mov    %dl,-0x4(%rbp)
    bbbd:	88 45 f8             	mov    %al,-0x8(%rbp)
    bbc0:	80 7d f8 00          	cmpb   $0x0,-0x8(%rbp)
    bbc4:	74 0f                	je     bbd5 <safe_mod_func_uint8_t_u_u+0x27>
    bbc6:	0f b6 45 fc          	movzbl -0x4(%rbp),%eax
    bbca:	0f b6 c0             	movzbl %al,%eax
    bbcd:	f6 75 f8             	divb   -0x8(%rbp)
    bbd0:	0f b6 c4             	movzbl %ah,%eax
    bbd3:	eb 04                	jmp    bbd9 <safe_mod_func_uint8_t_u_u+0x2b>
    bbd5:	0f b6 45 fc          	movzbl -0x4(%rbp),%eax
    bbd9:	5d                   	pop    %rbp
    bbda:	c3                   	retq   

000000000000bbdb <safe_div_func_uint8_t_u_u>:
    bbdb:	f3 0f 1e fa          	endbr64 
    bbdf:	55                   	push   %rbp
    bbe0:	48 89 e5             	mov    %rsp,%rbp
    bbe3:	89 fa                	mov    %edi,%edx
    bbe5:	89 f0                	mov    %esi,%eax
    bbe7:	88 55 fc             	mov    %dl,-0x4(%rbp)
    bbea:	88 45 f8             	mov    %al,-0x8(%rbp)
    bbed:	80 7d f8 00          	cmpb   $0x0,-0x8(%rbp)
    bbf1:	74 0c                	je     bbff <safe_div_func_uint8_t_u_u+0x24>
    bbf3:	0f b6 45 fc          	movzbl -0x4(%rbp),%eax
    bbf7:	0f b6 c0             	movzbl %al,%eax
    bbfa:	f6 75 f8             	divb   -0x8(%rbp)
    bbfd:	eb 04                	jmp    bc03 <safe_div_func_uint8_t_u_u+0x28>
    bbff:	0f b6 45 fc          	movzbl -0x4(%rbp),%eax
    bc03:	5d                   	pop    %rbp
    bc04:	c3                   	retq   

000000000000bc05 <safe_lshift_func_uint8_t_u_s>:
    bc05:	f3 0f 1e fa          	endbr64 
    bc09:	55                   	push   %rbp
    bc0a:	48 89 e5             	mov    %rsp,%rbp
    bc0d:	89 f8                	mov    %edi,%eax
    bc0f:	89 75 f8             	mov    %esi,-0x8(%rbp)
    bc12:	88 45 fc             	mov    %al,-0x4(%rbp)
    bc15:	83 7d f8 00          	cmpl   $0x0,-0x8(%rbp)
    bc19:	78 2b                	js     bc46 <safe_lshift_func_uint8_t_u_s+0x41>
    bc1b:	83 7d f8 1f          	cmpl   $0x1f,-0x8(%rbp)
    bc1f:	7f 25                	jg     bc46 <safe_lshift_func_uint8_t_u_s+0x41>
    bc21:	0f b6 55 fc          	movzbl -0x4(%rbp),%edx
    bc25:	8b 45 f8             	mov    -0x8(%rbp),%eax
    bc28:	be ff 00 00 00       	mov    $0xff,%esi
    bc2d:	89 c1                	mov    %eax,%ecx
    bc2f:	d3 fe                	sar    %cl,%esi
    bc31:	89 f0                	mov    %esi,%eax
    bc33:	39 c2                	cmp    %eax,%edx
    bc35:	7f 0f                	jg     bc46 <safe_lshift_func_uint8_t_u_s+0x41>
    bc37:	0f b6 55 fc          	movzbl -0x4(%rbp),%edx
    bc3b:	8b 45 f8             	mov    -0x8(%rbp),%eax
    bc3e:	89 c1                	mov    %eax,%ecx
    bc40:	d3 e2                	shl    %cl,%edx
    bc42:	89 d0                	mov    %edx,%eax
    bc44:	eb 04                	jmp    bc4a <safe_lshift_func_uint8_t_u_s+0x45>
    bc46:	0f b6 45 fc          	movzbl -0x4(%rbp),%eax
    bc4a:	5d                   	pop    %rbp
    bc4b:	c3                   	retq   

000000000000bc4c <safe_lshift_func_uint8_t_u_u>:
    bc4c:	f3 0f 1e fa          	endbr64 
    bc50:	55                   	push   %rbp
    bc51:	48 89 e5             	mov    %rsp,%rbp
    bc54:	89 f8                	mov    %edi,%eax
    bc56:	89 75 f8             	mov    %esi,-0x8(%rbp)
    bc59:	88 45 fc             	mov    %al,-0x4(%rbp)
    bc5c:	83 7d f8 1f          	cmpl   $0x1f,-0x8(%rbp)
    bc60:	77 25                	ja     bc87 <safe_lshift_func_uint8_t_u_u+0x3b>
    bc62:	0f b6 55 fc          	movzbl -0x4(%rbp),%edx
    bc66:	8b 45 f8             	mov    -0x8(%rbp),%eax
    bc69:	be ff 00 00 00       	mov    $0xff,%esi
    bc6e:	89 c1                	mov    %eax,%ecx
    bc70:	d3 fe                	sar    %cl,%esi
    bc72:	89 f0                	mov    %esi,%eax
    bc74:	39 c2                	cmp    %eax,%edx
    bc76:	7f 0f                	jg     bc87 <safe_lshift_func_uint8_t_u_u+0x3b>
    bc78:	0f b6 55 fc          	movzbl -0x4(%rbp),%edx
    bc7c:	8b 45 f8             	mov    -0x8(%rbp),%eax
    bc7f:	89 c1                	mov    %eax,%ecx
    bc81:	d3 e2                	shl    %cl,%edx
    bc83:	89 d0                	mov    %edx,%eax
    bc85:	eb 04                	jmp    bc8b <safe_lshift_func_uint8_t_u_u+0x3f>
    bc87:	0f b6 45 fc          	movzbl -0x4(%rbp),%eax
    bc8b:	5d                   	pop    %rbp
    bc8c:	c3                   	retq   

000000000000bc8d <safe_rshift_func_uint8_t_u_s>:
    bc8d:	f3 0f 1e fa          	endbr64 
    bc91:	55                   	push   %rbp
    bc92:	48 89 e5             	mov    %rsp,%rbp
    bc95:	89 f8                	mov    %edi,%eax
    bc97:	89 75 f8             	mov    %esi,-0x8(%rbp)
    bc9a:	88 45 fc             	mov    %al,-0x4(%rbp)
    bc9d:	83 7d f8 00          	cmpl   $0x0,-0x8(%rbp)
    bca1:	78 15                	js     bcb8 <safe_rshift_func_uint8_t_u_s+0x2b>
    bca3:	83 7d f8 1f          	cmpl   $0x1f,-0x8(%rbp)
    bca7:	7f 0f                	jg     bcb8 <safe_rshift_func_uint8_t_u_s+0x2b>
    bca9:	0f b6 55 fc          	movzbl -0x4(%rbp),%edx
    bcad:	8b 45 f8             	mov    -0x8(%rbp),%eax
    bcb0:	89 c1                	mov    %eax,%ecx
    bcb2:	d3 fa                	sar    %cl,%edx
    bcb4:	89 d0                	mov    %edx,%eax
    bcb6:	eb 04                	jmp    bcbc <safe_rshift_func_uint8_t_u_s+0x2f>
    bcb8:	0f b6 45 fc          	movzbl -0x4(%rbp),%eax
    bcbc:	5d                   	pop    %rbp
    bcbd:	c3                   	retq   

000000000000bcbe <safe_rshift_func_uint8_t_u_u>:
    bcbe:	f3 0f 1e fa          	endbr64 
    bcc2:	55                   	push   %rbp
    bcc3:	48 89 e5             	mov    %rsp,%rbp
    bcc6:	89 f8                	mov    %edi,%eax
    bcc8:	89 75 f8             	mov    %esi,-0x8(%rbp)
    bccb:	88 45 fc             	mov    %al,-0x4(%rbp)
    bcce:	83 7d f8 1f          	cmpl   $0x1f,-0x8(%rbp)
    bcd2:	77 0f                	ja     bce3 <safe_rshift_func_uint8_t_u_u+0x25>
    bcd4:	0f b6 55 fc          	movzbl -0x4(%rbp),%edx
    bcd8:	8b 45 f8             	mov    -0x8(%rbp),%eax
    bcdb:	89 c1                	mov    %eax,%ecx
    bcdd:	d3 fa                	sar    %cl,%edx
    bcdf:	89 d0                	mov    %edx,%eax
    bce1:	eb 04                	jmp    bce7 <safe_rshift_func_uint8_t_u_u+0x29>
    bce3:	0f b6 45 fc          	movzbl -0x4(%rbp),%eax
    bce7:	5d                   	pop    %rbp
    bce8:	c3                   	retq   

000000000000bce9 <safe_unary_minus_func_uint16_t_u>:
    bce9:	f3 0f 1e fa          	endbr64 
    bced:	55                   	push   %rbp
    bcee:	48 89 e5             	mov    %rsp,%rbp
    bcf1:	89 f8                	mov    %edi,%eax
    bcf3:	66 89 45 fc          	mov    %ax,-0x4(%rbp)
    bcf7:	0f b7 45 fc          	movzwl -0x4(%rbp),%eax
    bcfb:	f7 d8                	neg    %eax
    bcfd:	5d                   	pop    %rbp
    bcfe:	c3                   	retq   

000000000000bcff <safe_add_func_uint16_t_u_u>:
    bcff:	f3 0f 1e fa          	endbr64 
    bd03:	55                   	push   %rbp
    bd04:	48 89 e5             	mov    %rsp,%rbp
    bd07:	89 fa                	mov    %edi,%edx
    bd09:	89 f0                	mov    %esi,%eax
    bd0b:	66 89 55 fc          	mov    %dx,-0x4(%rbp)
    bd0f:	66 89 45 f8          	mov    %ax,-0x8(%rbp)
    bd13:	0f b7 55 fc          	movzwl -0x4(%rbp),%edx
    bd17:	0f b7 45 f8          	movzwl -0x8(%rbp),%eax
    bd1b:	01 d0                	add    %edx,%eax
    bd1d:	5d                   	pop    %rbp
    bd1e:	c3                   	retq   

000000000000bd1f <safe_sub_func_uint16_t_u_u>:
    bd1f:	f3 0f 1e fa          	endbr64 
    bd23:	55                   	push   %rbp
    bd24:	48 89 e5             	mov    %rsp,%rbp
    bd27:	89 fa                	mov    %edi,%edx
    bd29:	89 f0                	mov    %esi,%eax
    bd2b:	66 89 55 fc          	mov    %dx,-0x4(%rbp)
    bd2f:	66 89 45 f8          	mov    %ax,-0x8(%rbp)
    bd33:	0f b7 45 fc          	movzwl -0x4(%rbp),%eax
    bd37:	66 2b 45 f8          	sub    -0x8(%rbp),%ax
    bd3b:	5d                   	pop    %rbp
    bd3c:	c3                   	retq   

000000000000bd3d <safe_mul_func_uint16_t_u_u>:
    bd3d:	f3 0f 1e fa          	endbr64 
    bd41:	55                   	push   %rbp
    bd42:	48 89 e5             	mov    %rsp,%rbp
    bd45:	89 fa                	mov    %edi,%edx
    bd47:	89 f0                	mov    %esi,%eax
    bd49:	66 89 55 fc          	mov    %dx,-0x4(%rbp)
    bd4d:	66 89 45 f8          	mov    %ax,-0x8(%rbp)
    bd51:	0f b7 45 fc          	movzwl -0x4(%rbp),%eax
    bd55:	66 0f af 45 f8       	imul   -0x8(%rbp),%ax
    bd5a:	5d                   	pop    %rbp
    bd5b:	c3                   	retq   

000000000000bd5c <safe_mod_func_uint16_t_u_u>:
    bd5c:	f3 0f 1e fa          	endbr64 
    bd60:	55                   	push   %rbp
    bd61:	48 89 e5             	mov    %rsp,%rbp
    bd64:	89 fa                	mov    %edi,%edx
    bd66:	89 f0                	mov    %esi,%eax
    bd68:	66 89 55 fc          	mov    %dx,-0x4(%rbp)
    bd6c:	66 89 45 f8          	mov    %ax,-0x8(%rbp)
    bd70:	66 83 7d f8 00       	cmpw   $0x0,-0x8(%rbp)
    bd75:	74 11                	je     bd88 <safe_mod_func_uint16_t_u_u+0x2c>
    bd77:	0f b7 45 fc          	movzwl -0x4(%rbp),%eax
    bd7b:	ba 00 00 00 00       	mov    $0x0,%edx
    bd80:	66 f7 75 f8          	divw   -0x8(%rbp)
    bd84:	89 d0                	mov    %edx,%eax
    bd86:	eb 04                	jmp    bd8c <safe_mod_func_uint16_t_u_u+0x30>
    bd88:	0f b7 45 fc          	movzwl -0x4(%rbp),%eax
    bd8c:	5d                   	pop    %rbp
    bd8d:	c3                   	retq   

000000000000bd8e <safe_div_func_uint16_t_u_u>:
    bd8e:	f3 0f 1e fa          	endbr64 
    bd92:	55                   	push   %rbp
    bd93:	48 89 e5             	mov    %rsp,%rbp
    bd96:	89 fa                	mov    %edi,%edx
    bd98:	89 f0                	mov    %esi,%eax
    bd9a:	66 89 55 fc          	mov    %dx,-0x4(%rbp)
    bd9e:	66 89 45 f8          	mov    %ax,-0x8(%rbp)
    bda2:	66 83 7d f8 00       	cmpw   $0x0,-0x8(%rbp)
    bda7:	74 0f                	je     bdb8 <safe_div_func_uint16_t_u_u+0x2a>
    bda9:	0f b7 45 fc          	movzwl -0x4(%rbp),%eax
    bdad:	ba 00 00 00 00       	mov    $0x0,%edx
    bdb2:	66 f7 75 f8          	divw   -0x8(%rbp)
    bdb6:	eb 04                	jmp    bdbc <safe_div_func_uint16_t_u_u+0x2e>
    bdb8:	0f b7 45 fc          	movzwl -0x4(%rbp),%eax
    bdbc:	5d                   	pop    %rbp
    bdbd:	c3                   	retq   

000000000000bdbe <safe_lshift_func_uint16_t_u_s>:
    bdbe:	f3 0f 1e fa          	endbr64 
    bdc2:	55                   	push   %rbp
    bdc3:	48 89 e5             	mov    %rsp,%rbp
    bdc6:	89 f8                	mov    %edi,%eax
    bdc8:	89 75 f8             	mov    %esi,-0x8(%rbp)
    bdcb:	66 89 45 fc          	mov    %ax,-0x4(%rbp)
    bdcf:	83 7d f8 00          	cmpl   $0x0,-0x8(%rbp)
    bdd3:	78 2b                	js     be00 <safe_lshift_func_uint16_t_u_s+0x42>
    bdd5:	83 7d f8 1f          	cmpl   $0x1f,-0x8(%rbp)
    bdd9:	7f 25                	jg     be00 <safe_lshift_func_uint16_t_u_s+0x42>
    bddb:	0f b7 55 fc          	movzwl -0x4(%rbp),%edx
    bddf:	8b 45 f8             	mov    -0x8(%rbp),%eax
    bde2:	be ff ff 00 00       	mov    $0xffff,%esi
    bde7:	89 c1                	mov    %eax,%ecx
    bde9:	d3 fe                	sar    %cl,%esi
    bdeb:	89 f0                	mov    %esi,%eax
    bded:	39 c2                	cmp    %eax,%edx
    bdef:	7f 0f                	jg     be00 <safe_lshift_func_uint16_t_u_s+0x42>
    bdf1:	0f b7 55 fc          	movzwl -0x4(%rbp),%edx
    bdf5:	8b 45 f8             	mov    -0x8(%rbp),%eax
    bdf8:	89 c1                	mov    %eax,%ecx
    bdfa:	d3 e2                	shl    %cl,%edx
    bdfc:	89 d0                	mov    %edx,%eax
    bdfe:	eb 04                	jmp    be04 <safe_lshift_func_uint16_t_u_s+0x46>
    be00:	0f b7 45 fc          	movzwl -0x4(%rbp),%eax
    be04:	5d                   	pop    %rbp
    be05:	c3                   	retq   

000000000000be06 <safe_lshift_func_uint16_t_u_u>:
    be06:	f3 0f 1e fa          	endbr64 
    be0a:	55                   	push   %rbp
    be0b:	48 89 e5             	mov    %rsp,%rbp
    be0e:	89 f8                	mov    %edi,%eax
    be10:	89 75 f8             	mov    %esi,-0x8(%rbp)
    be13:	66 89 45 fc          	mov    %ax,-0x4(%rbp)
    be17:	83 7d f8 1f          	cmpl   $0x1f,-0x8(%rbp)
    be1b:	77 25                	ja     be42 <safe_lshift_func_uint16_t_u_u+0x3c>
    be1d:	0f b7 55 fc          	movzwl -0x4(%rbp),%edx
    be21:	8b 45 f8             	mov    -0x8(%rbp),%eax
    be24:	be ff ff 00 00       	mov    $0xffff,%esi
    be29:	89 c1                	mov    %eax,%ecx
    be2b:	d3 fe                	sar    %cl,%esi
    be2d:	89 f0                	mov    %esi,%eax
    be2f:	39 c2                	cmp    %eax,%edx
    be31:	7f 0f                	jg     be42 <safe_lshift_func_uint16_t_u_u+0x3c>
    be33:	0f b7 55 fc          	movzwl -0x4(%rbp),%edx
    be37:	8b 45 f8             	mov    -0x8(%rbp),%eax
    be3a:	89 c1                	mov    %eax,%ecx
    be3c:	d3 e2                	shl    %cl,%edx
    be3e:	89 d0                	mov    %edx,%eax
    be40:	eb 04                	jmp    be46 <safe_lshift_func_uint16_t_u_u+0x40>
    be42:	0f b7 45 fc          	movzwl -0x4(%rbp),%eax
    be46:	5d                   	pop    %rbp
    be47:	c3                   	retq   

000000000000be48 <safe_rshift_func_uint16_t_u_s>:
    be48:	f3 0f 1e fa          	endbr64 
    be4c:	55                   	push   %rbp
    be4d:	48 89 e5             	mov    %rsp,%rbp
    be50:	89 f8                	mov    %edi,%eax
    be52:	89 75 f8             	mov    %esi,-0x8(%rbp)
    be55:	66 89 45 fc          	mov    %ax,-0x4(%rbp)
    be59:	83 7d f8 00          	cmpl   $0x0,-0x8(%rbp)
    be5d:	78 15                	js     be74 <safe_rshift_func_uint16_t_u_s+0x2c>
    be5f:	83 7d f8 1f          	cmpl   $0x1f,-0x8(%rbp)
    be63:	7f 0f                	jg     be74 <safe_rshift_func_uint16_t_u_s+0x2c>
    be65:	0f b7 55 fc          	movzwl -0x4(%rbp),%edx
    be69:	8b 45 f8             	mov    -0x8(%rbp),%eax
    be6c:	89 c1                	mov    %eax,%ecx
    be6e:	d3 fa                	sar    %cl,%edx
    be70:	89 d0                	mov    %edx,%eax
    be72:	eb 04                	jmp    be78 <safe_rshift_func_uint16_t_u_s+0x30>
    be74:	0f b7 45 fc          	movzwl -0x4(%rbp),%eax
    be78:	5d                   	pop    %rbp
    be79:	c3                   	retq   

000000000000be7a <safe_rshift_func_uint16_t_u_u>:
    be7a:	f3 0f 1e fa          	endbr64 
    be7e:	55                   	push   %rbp
    be7f:	48 89 e5             	mov    %rsp,%rbp
    be82:	89 f8                	mov    %edi,%eax
    be84:	89 75 f8             	mov    %esi,-0x8(%rbp)
    be87:	66 89 45 fc          	mov    %ax,-0x4(%rbp)
    be8b:	83 7d f8 1f          	cmpl   $0x1f,-0x8(%rbp)
    be8f:	77 0f                	ja     bea0 <safe_rshift_func_uint16_t_u_u+0x26>
    be91:	0f b7 55 fc          	movzwl -0x4(%rbp),%edx
    be95:	8b 45 f8             	mov    -0x8(%rbp),%eax
    be98:	89 c1                	mov    %eax,%ecx
    be9a:	d3 fa                	sar    %cl,%edx
    be9c:	89 d0                	mov    %edx,%eax
    be9e:	eb 04                	jmp    bea4 <safe_rshift_func_uint16_t_u_u+0x2a>
    bea0:	0f b7 45 fc          	movzwl -0x4(%rbp),%eax
    bea4:	5d                   	pop    %rbp
    bea5:	c3                   	retq   

000000000000bea6 <safe_unary_minus_func_uint32_t_u>:
    bea6:	f3 0f 1e fa          	endbr64 
    beaa:	55                   	push   %rbp
    beab:	48 89 e5             	mov    %rsp,%rbp
    beae:	89 7d fc             	mov    %edi,-0x4(%rbp)
    beb1:	8b 45 fc             	mov    -0x4(%rbp),%eax
    beb4:	f7 d8                	neg    %eax
    beb6:	5d                   	pop    %rbp
    beb7:	c3                   	retq   

000000000000beb8 <safe_add_func_uint32_t_u_u>:
    beb8:	f3 0f 1e fa          	endbr64 
    bebc:	55                   	push   %rbp
    bebd:	48 89 e5             	mov    %rsp,%rbp
    bec0:	89 7d fc             	mov    %edi,-0x4(%rbp)
    bec3:	89 75 f8             	mov    %esi,-0x8(%rbp)
    bec6:	8b 55 fc             	mov    -0x4(%rbp),%edx
    bec9:	8b 45 f8             	mov    -0x8(%rbp),%eax
    becc:	01 d0                	add    %edx,%eax
    bece:	5d                   	pop    %rbp
    becf:	c3                   	retq   

000000000000bed0 <safe_sub_func_uint32_t_u_u>:
    bed0:	f3 0f 1e fa          	endbr64 
    bed4:	55                   	push   %rbp
    bed5:	48 89 e5             	mov    %rsp,%rbp
    bed8:	89 7d fc             	mov    %edi,-0x4(%rbp)
    bedb:	89 75 f8             	mov    %esi,-0x8(%rbp)
    bede:	8b 45 fc             	mov    -0x4(%rbp),%eax
    bee1:	2b 45 f8             	sub    -0x8(%rbp),%eax
    bee4:	5d                   	pop    %rbp
    bee5:	c3                   	retq   

000000000000bee6 <safe_mul_func_uint32_t_u_u>:
    bee6:	f3 0f 1e fa          	endbr64 
    beea:	55                   	push   %rbp
    beeb:	48 89 e5             	mov    %rsp,%rbp
    beee:	89 7d fc             	mov    %edi,-0x4(%rbp)
    bef1:	89 75 f8             	mov    %esi,-0x8(%rbp)
    bef4:	8b 45 fc             	mov    -0x4(%rbp),%eax
    bef7:	0f af 45 f8          	imul   -0x8(%rbp),%eax
    befb:	5d                   	pop    %rbp
    befc:	c3                   	retq   

000000000000befd <safe_mod_func_uint32_t_u_u>:
    befd:	f3 0f 1e fa          	endbr64 
    bf01:	55                   	push   %rbp
    bf02:	48 89 e5             	mov    %rsp,%rbp
    bf05:	89 7d fc             	mov    %edi,-0x4(%rbp)
    bf08:	89 75 f8             	mov    %esi,-0x8(%rbp)
    bf0b:	83 7d f8 00          	cmpl   $0x0,-0x8(%rbp)
    bf0f:	74 0f                	je     bf20 <safe_mod_func_uint32_t_u_u+0x23>
    bf11:	8b 45 fc             	mov    -0x4(%rbp),%eax
    bf14:	ba 00 00 00 00       	mov    $0x0,%edx
    bf19:	f7 75 f8             	divl   -0x8(%rbp)
    bf1c:	89 d0                	mov    %edx,%eax
    bf1e:	eb 03                	jmp    bf23 <safe_mod_func_uint32_t_u_u+0x26>
    bf20:	8b 45 fc             	mov    -0x4(%rbp),%eax
    bf23:	5d                   	pop    %rbp
    bf24:	c3                   	retq   

000000000000bf25 <safe_div_func_uint32_t_u_u>:
    bf25:	f3 0f 1e fa          	endbr64 
    bf29:	55                   	push   %rbp
    bf2a:	48 89 e5             	mov    %rsp,%rbp
    bf2d:	89 7d fc             	mov    %edi,-0x4(%rbp)
    bf30:	89 75 f8             	mov    %esi,-0x8(%rbp)
    bf33:	83 7d f8 00          	cmpl   $0x0,-0x8(%rbp)
    bf37:	74 0d                	je     bf46 <safe_div_func_uint32_t_u_u+0x21>
    bf39:	8b 45 fc             	mov    -0x4(%rbp),%eax
    bf3c:	ba 00 00 00 00       	mov    $0x0,%edx
    bf41:	f7 75 f8             	divl   -0x8(%rbp)
    bf44:	eb 03                	jmp    bf49 <safe_div_func_uint32_t_u_u+0x24>
    bf46:	8b 45 fc             	mov    -0x4(%rbp),%eax
    bf49:	5d                   	pop    %rbp
    bf4a:	c3                   	retq   

000000000000bf4b <safe_lshift_func_uint32_t_u_s>:
    bf4b:	f3 0f 1e fa          	endbr64 
    bf4f:	55                   	push   %rbp
    bf50:	48 89 e5             	mov    %rsp,%rbp
    bf53:	89 7d fc             	mov    %edi,-0x4(%rbp)
    bf56:	89 75 f8             	mov    %esi,-0x8(%rbp)
    bf59:	83 7d f8 00          	cmpl   $0x0,-0x8(%rbp)
    bf5d:	78 27                	js     bf86 <safe_lshift_func_uint32_t_u_s+0x3b>
    bf5f:	83 7d f8 1f          	cmpl   $0x1f,-0x8(%rbp)
    bf63:	7f 21                	jg     bf86 <safe_lshift_func_uint32_t_u_s+0x3b>
    bf65:	8b 45 f8             	mov    -0x8(%rbp),%eax
    bf68:	ba ff ff ff ff       	mov    $0xffffffff,%edx
    bf6d:	89 c1                	mov    %eax,%ecx
    bf6f:	d3 ea                	shr    %cl,%edx
    bf71:	89 d0                	mov    %edx,%eax
    bf73:	39 45 fc             	cmp    %eax,-0x4(%rbp)
    bf76:	77 0e                	ja     bf86 <safe_lshift_func_uint32_t_u_s+0x3b>
    bf78:	8b 45 f8             	mov    -0x8(%rbp),%eax
    bf7b:	8b 55 fc             	mov    -0x4(%rbp),%edx
    bf7e:	89 c1                	mov    %eax,%ecx
    bf80:	d3 e2                	shl    %cl,%edx
    bf82:	89 d0                	mov    %edx,%eax
    bf84:	eb 03                	jmp    bf89 <safe_lshift_func_uint32_t_u_s+0x3e>
    bf86:	8b 45 fc             	mov    -0x4(%rbp),%eax
    bf89:	5d                   	pop    %rbp
    bf8a:	c3                   	retq   

000000000000bf8b <safe_lshift_func_uint32_t_u_u>:
    bf8b:	f3 0f 1e fa          	endbr64 
    bf8f:	55                   	push   %rbp
    bf90:	48 89 e5             	mov    %rsp,%rbp
    bf93:	89 7d fc             	mov    %edi,-0x4(%rbp)
    bf96:	89 75 f8             	mov    %esi,-0x8(%rbp)
    bf99:	83 7d f8 1f          	cmpl   $0x1f,-0x8(%rbp)
    bf9d:	77 21                	ja     bfc0 <safe_lshift_func_uint32_t_u_u+0x35>
    bf9f:	8b 45 f8             	mov    -0x8(%rbp),%eax
    bfa2:	ba ff ff ff ff       	mov    $0xffffffff,%edx
    bfa7:	89 c1                	mov    %eax,%ecx
    bfa9:	d3 ea                	shr    %cl,%edx
    bfab:	89 d0                	mov    %edx,%eax
    bfad:	39 45 fc             	cmp    %eax,-0x4(%rbp)
    bfb0:	77 0e                	ja     bfc0 <safe_lshift_func_uint32_t_u_u+0x35>
    bfb2:	8b 45 f8             	mov    -0x8(%rbp),%eax
    bfb5:	8b 55 fc             	mov    -0x4(%rbp),%edx
    bfb8:	89 c1                	mov    %eax,%ecx
    bfba:	d3 e2                	shl    %cl,%edx
    bfbc:	89 d0                	mov    %edx,%eax
    bfbe:	eb 03                	jmp    bfc3 <safe_lshift_func_uint32_t_u_u+0x38>
    bfc0:	8b 45 fc             	mov    -0x4(%rbp),%eax
    bfc3:	5d                   	pop    %rbp
    bfc4:	c3                   	retq   

000000000000bfc5 <safe_rshift_func_uint32_t_u_s>:
    bfc5:	f3 0f 1e fa          	endbr64 
    bfc9:	55                   	push   %rbp
    bfca:	48 89 e5             	mov    %rsp,%rbp
    bfcd:	89 7d fc             	mov    %edi,-0x4(%rbp)
    bfd0:	89 75 f8             	mov    %esi,-0x8(%rbp)
    bfd3:	83 7d f8 00          	cmpl   $0x0,-0x8(%rbp)
    bfd7:	78 14                	js     bfed <safe_rshift_func_uint32_t_u_s+0x28>
    bfd9:	83 7d f8 1f          	cmpl   $0x1f,-0x8(%rbp)
    bfdd:	7f 0e                	jg     bfed <safe_rshift_func_uint32_t_u_s+0x28>
    bfdf:	8b 45 f8             	mov    -0x8(%rbp),%eax
    bfe2:	8b 55 fc             	mov    -0x4(%rbp),%edx
    bfe5:	89 c1                	mov    %eax,%ecx
    bfe7:	d3 ea                	shr    %cl,%edx
    bfe9:	89 d0                	mov    %edx,%eax
    bfeb:	eb 03                	jmp    bff0 <safe_rshift_func_uint32_t_u_s+0x2b>
    bfed:	8b 45 fc             	mov    -0x4(%rbp),%eax
    bff0:	5d                   	pop    %rbp
    bff1:	c3                   	retq   

000000000000bff2 <safe_rshift_func_uint32_t_u_u>:
    bff2:	f3 0f 1e fa          	endbr64 
    bff6:	55                   	push   %rbp
    bff7:	48 89 e5             	mov    %rsp,%rbp
    bffa:	89 7d fc             	mov    %edi,-0x4(%rbp)
    bffd:	89 75 f8             	mov    %esi,-0x8(%rbp)
    c000:	83 7d f8 1f          	cmpl   $0x1f,-0x8(%rbp)
    c004:	77 0e                	ja     c014 <safe_rshift_func_uint32_t_u_u+0x22>
    c006:	8b 45 f8             	mov    -0x8(%rbp),%eax
    c009:	8b 55 fc             	mov    -0x4(%rbp),%edx
    c00c:	89 c1                	mov    %eax,%ecx
    c00e:	d3 ea                	shr    %cl,%edx
    c010:	89 d0                	mov    %edx,%eax
    c012:	eb 03                	jmp    c017 <safe_rshift_func_uint32_t_u_u+0x25>
    c014:	8b 45 fc             	mov    -0x4(%rbp),%eax
    c017:	5d                   	pop    %rbp
    c018:	c3                   	retq   

000000000000c019 <safe_unary_minus_func_uint64_t_u>:
    c019:	f3 0f 1e fa          	endbr64 
    c01d:	55                   	push   %rbp
    c01e:	48 89 e5             	mov    %rsp,%rbp
    c021:	48 89 7d f8          	mov    %rdi,-0x8(%rbp)
    c025:	48 8b 45 f8          	mov    -0x8(%rbp),%rax
    c029:	48 f7 d8             	neg    %rax
    c02c:	5d                   	pop    %rbp
    c02d:	c3                   	retq   

000000000000c02e <safe_add_func_uint64_t_u_u>:
    c02e:	f3 0f 1e fa          	endbr64 
    c032:	55                   	push   %rbp
    c033:	48 89 e5             	mov    %rsp,%rbp
    c036:	48 89 7d f8          	mov    %rdi,-0x8(%rbp)
    c03a:	48 89 75 f0          	mov    %rsi,-0x10(%rbp)
    c03e:	48 8b 55 f8          	mov    -0x8(%rbp),%rdx
    c042:	48 8b 45 f0          	mov    -0x10(%rbp),%rax
    c046:	48 01 d0             	add    %rdx,%rax
    c049:	5d                   	pop    %rbp
    c04a:	c3                   	retq   

000000000000c04b <safe_sub_func_uint64_t_u_u>:
    c04b:	f3 0f 1e fa          	endbr64 
    c04f:	55                   	push   %rbp
    c050:	48 89 e5             	mov    %rsp,%rbp
    c053:	48 89 7d f8          	mov    %rdi,-0x8(%rbp)
    c057:	48 89 75 f0          	mov    %rsi,-0x10(%rbp)
    c05b:	48 8b 45 f8          	mov    -0x8(%rbp),%rax
    c05f:	48 2b 45 f0          	sub    -0x10(%rbp),%rax
    c063:	5d                   	pop    %rbp
    c064:	c3                   	retq   

000000000000c065 <safe_mul_func_uint64_t_u_u>:
    c065:	f3 0f 1e fa          	endbr64 
    c069:	55                   	push   %rbp
    c06a:	48 89 e5             	mov    %rsp,%rbp
    c06d:	48 89 7d f8          	mov    %rdi,-0x8(%rbp)
    c071:	48 89 75 f0          	mov    %rsi,-0x10(%rbp)
    c075:	48 8b 45 f8          	mov    -0x8(%rbp),%rax
    c079:	48 0f af 45 f0       	imul   -0x10(%rbp),%rax
    c07e:	5d                   	pop    %rbp
    c07f:	c3                   	retq   

000000000000c080 <safe_mod_func_uint64_t_u_u>:
    c080:	f3 0f 1e fa          	endbr64 
    c084:	55                   	push   %rbp
    c085:	48 89 e5             	mov    %rsp,%rbp
    c088:	48 89 7d f8          	mov    %rdi,-0x8(%rbp)
    c08c:	48 89 75 f0          	mov    %rsi,-0x10(%rbp)
    c090:	48 83 7d f0 00       	cmpq   $0x0,-0x10(%rbp)
    c095:	74 12                	je     c0a9 <safe_mod_func_uint64_t_u_u+0x29>
    c097:	48 8b 45 f8          	mov    -0x8(%rbp),%rax
    c09b:	ba 00 00 00 00       	mov    $0x0,%edx
    c0a0:	48 f7 75 f0          	divq   -0x10(%rbp)
    c0a4:	48 89 d0             	mov    %rdx,%rax
    c0a7:	eb 04                	jmp    c0ad <safe_mod_func_uint64_t_u_u+0x2d>
    c0a9:	48 8b 45 f8          	mov    -0x8(%rbp),%rax
    c0ad:	5d                   	pop    %rbp
    c0ae:	c3                   	retq   

000000000000c0af <safe_div_func_uint64_t_u_u>:
    c0af:	f3 0f 1e fa          	endbr64 
    c0b3:	55                   	push   %rbp
    c0b4:	48 89 e5             	mov    %rsp,%rbp
    c0b7:	48 89 7d f8          	mov    %rdi,-0x8(%rbp)
    c0bb:	48 89 75 f0          	mov    %rsi,-0x10(%rbp)
    c0bf:	48 83 7d f0 00       	cmpq   $0x0,-0x10(%rbp)
    c0c4:	74 0f                	je     c0d5 <safe_div_func_uint64_t_u_u+0x26>
    c0c6:	48 8b 45 f8          	mov    -0x8(%rbp),%rax
    c0ca:	ba 00 00 00 00       	mov    $0x0,%edx
    c0cf:	48 f7 75 f0          	divq   -0x10(%rbp)
    c0d3:	eb 04                	jmp    c0d9 <safe_div_func_uint64_t_u_u+0x2a>
    c0d5:	48 8b 45 f8          	mov    -0x8(%rbp),%rax
    c0d9:	5d                   	pop    %rbp
    c0da:	c3                   	retq   

000000000000c0db <safe_lshift_func_uint64_t_u_s>:
    c0db:	f3 0f 1e fa          	endbr64 
    c0df:	55                   	push   %rbp
    c0e0:	48 89 e5             	mov    %rsp,%rbp
    c0e3:	48 89 7d f8          	mov    %rdi,-0x8(%rbp)
    c0e7:	89 75 f4             	mov    %esi,-0xc(%rbp)
    c0ea:	83 7d f4 00          	cmpl   $0x0,-0xc(%rbp)
    c0ee:	78 2f                	js     c11f <safe_lshift_func_uint64_t_u_s+0x44>
    c0f0:	83 7d f4 1f          	cmpl   $0x1f,-0xc(%rbp)
    c0f4:	7f 29                	jg     c11f <safe_lshift_func_uint64_t_u_s+0x44>
    c0f6:	8b 45 f4             	mov    -0xc(%rbp),%eax
    c0f9:	48 c7 c2 ff ff ff ff 	mov    $0xffffffffffffffff,%rdx
    c100:	89 c1                	mov    %eax,%ecx
    c102:	48 d3 ea             	shr    %cl,%rdx
    c105:	48 89 d0             	mov    %rdx,%rax
    c108:	48 39 45 f8          	cmp    %rax,-0x8(%rbp)
    c10c:	77 11                	ja     c11f <safe_lshift_func_uint64_t_u_s+0x44>
    c10e:	8b 45 f4             	mov    -0xc(%rbp),%eax
    c111:	48 8b 55 f8          	mov    -0x8(%rbp),%rdx
    c115:	89 c1                	mov    %eax,%ecx
    c117:	48 d3 e2             	shl    %cl,%rdx
    c11a:	48 89 d0             	mov    %rdx,%rax
    c11d:	eb 04                	jmp    c123 <safe_lshift_func_uint64_t_u_s+0x48>
    c11f:	48 8b 45 f8          	mov    -0x8(%rbp),%rax
    c123:	5d                   	pop    %rbp
    c124:	c3                   	retq   

000000000000c125 <safe_lshift_func_uint64_t_u_u>:
    c125:	f3 0f 1e fa          	endbr64 
    c129:	55                   	push   %rbp
    c12a:	48 89 e5             	mov    %rsp,%rbp
    c12d:	48 89 7d f8          	mov    %rdi,-0x8(%rbp)
    c131:	89 75 f4             	mov    %esi,-0xc(%rbp)
    c134:	83 7d f4 1f          	cmpl   $0x1f,-0xc(%rbp)
    c138:	77 29                	ja     c163 <safe_lshift_func_uint64_t_u_u+0x3e>
    c13a:	8b 45 f4             	mov    -0xc(%rbp),%eax
    c13d:	48 c7 c2 ff ff ff ff 	mov    $0xffffffffffffffff,%rdx
    c144:	89 c1                	mov    %eax,%ecx
    c146:	48 d3 ea             	shr    %cl,%rdx
    c149:	48 89 d0             	mov    %rdx,%rax
    c14c:	48 39 45 f8          	cmp    %rax,-0x8(%rbp)
    c150:	77 11                	ja     c163 <safe_lshift_func_uint64_t_u_u+0x3e>
    c152:	8b 45 f4             	mov    -0xc(%rbp),%eax
    c155:	48 8b 55 f8          	mov    -0x8(%rbp),%rdx
    c159:	89 c1                	mov    %eax,%ecx
    c15b:	48 d3 e2             	shl    %cl,%rdx
    c15e:	48 89 d0             	mov    %rdx,%rax
    c161:	eb 04                	jmp    c167 <safe_lshift_func_uint64_t_u_u+0x42>
    c163:	48 8b 45 f8          	mov    -0x8(%rbp),%rax
    c167:	5d                   	pop    %rbp
    c168:	c3                   	retq   

000000000000c169 <safe_rshift_func_uint64_t_u_s>:
    c169:	f3 0f 1e fa          	endbr64 
    c16d:	55                   	push   %rbp
    c16e:	48 89 e5             	mov    %rsp,%rbp
    c171:	48 89 7d f8          	mov    %rdi,-0x8(%rbp)
    c175:	89 75 f4             	mov    %esi,-0xc(%rbp)
    c178:	83 7d f4 00          	cmpl   $0x0,-0xc(%rbp)
    c17c:	78 17                	js     c195 <safe_rshift_func_uint64_t_u_s+0x2c>
    c17e:	83 7d f4 1f          	cmpl   $0x1f,-0xc(%rbp)
    c182:	7f 11                	jg     c195 <safe_rshift_func_uint64_t_u_s+0x2c>
    c184:	8b 45 f4             	mov    -0xc(%rbp),%eax
    c187:	48 8b 55 f8          	mov    -0x8(%rbp),%rdx
    c18b:	89 c1                	mov    %eax,%ecx
    c18d:	48 d3 ea             	shr    %cl,%rdx
    c190:	48 89 d0             	mov    %rdx,%rax
    c193:	eb 04                	jmp    c199 <safe_rshift_func_uint64_t_u_s+0x30>
    c195:	48 8b 45 f8          	mov    -0x8(%rbp),%rax
    c199:	5d                   	pop    %rbp
    c19a:	c3                   	retq   

000000000000c19b <safe_rshift_func_uint64_t_u_u>:
    c19b:	f3 0f 1e fa          	endbr64 
    c19f:	55                   	push   %rbp
    c1a0:	48 89 e5             	mov    %rsp,%rbp
    c1a3:	48 89 7d f8          	mov    %rdi,-0x8(%rbp)
    c1a7:	89 75 f4             	mov    %esi,-0xc(%rbp)
    c1aa:	83 7d f4 1f          	cmpl   $0x1f,-0xc(%rbp)
    c1ae:	77 11                	ja     c1c1 <safe_rshift_func_uint64_t_u_u+0x26>
    c1b0:	8b 45 f4             	mov    -0xc(%rbp),%eax
    c1b3:	48 8b 55 f8          	mov    -0x8(%rbp),%rdx
    c1b7:	89 c1                	mov    %eax,%ecx
    c1b9:	48 d3 ea             	shr    %cl,%rdx
    c1bc:	48 89 d0             	mov    %rdx,%rax
    c1bf:	eb 04                	jmp    c1c5 <safe_rshift_func_uint64_t_u_u+0x2a>
    c1c1:	48 8b 45 f8          	mov    -0x8(%rbp),%rax
    c1c5:	5d                   	pop    %rbp
    c1c6:	c3                   	retq   

000000000000c1c7 <safe_add_func_float_f_f>:
    c1c7:	f3 0f 1e fa          	endbr64 
    c1cb:	55                   	push   %rbp
    c1cc:	48 89 e5             	mov    %rsp,%rbp
    c1cf:	f3 0f 11 45 fc       	movss  %xmm0,-0x4(%rbp)
    c1d4:	f3 0f 11 4d f8       	movss  %xmm1,-0x8(%rbp)
    c1d9:	f3 0f 10 4d fc       	movss  -0x4(%rbp),%xmm1
    c1de:	f3 0f 10 05 1a 53 01 	movss  0x1531a(%rip),%xmm0        # 21500 <g_2990+0x2488>
    c1e5:	00 
    c1e6:	f3 0f 59 c8          	mulss  %xmm0,%xmm1
    c1ea:	f3 0f 10 55 f8       	movss  -0x8(%rbp),%xmm2
    c1ef:	f3 0f 10 05 09 53 01 	movss  0x15309(%rip),%xmm0        # 21500 <g_2990+0x2488>
    c1f6:	00 
    c1f7:	f3 0f 59 c2          	mulss  %xmm2,%xmm0
    c1fb:	f3 0f 58 c1          	addss  %xmm1,%xmm0
    c1ff:	f3 0f 10 0d 09 53 01 	movss  0x15309(%rip),%xmm1        # 21510 <g_2990+0x2498>
    c206:	00 
    c207:	0f 54 c1             	andps  %xmm1,%xmm0
    c20a:	0f 2f 05 0f 53 01 00 	comiss 0x1530f(%rip),%xmm0        # 21520 <g_2990+0x24a8>
    c211:	76 07                	jbe    c21a <safe_add_func_float_f_f+0x53>
    c213:	f3 0f 10 45 fc       	movss  -0x4(%rbp),%xmm0
    c218:	eb 0a                	jmp    c224 <safe_add_func_float_f_f+0x5d>
    c21a:	f3 0f 10 45 fc       	movss  -0x4(%rbp),%xmm0
    c21f:	f3 0f 58 45 f8       	addss  -0x8(%rbp),%xmm0
    c224:	5d                   	pop    %rbp
    c225:	c3                   	retq   

000000000000c226 <safe_sub_func_float_f_f>:
    c226:	f3 0f 1e fa          	endbr64 
    c22a:	55                   	push   %rbp
    c22b:	48 89 e5             	mov    %rsp,%rbp
    c22e:	f3 0f 11 45 fc       	movss  %xmm0,-0x4(%rbp)
    c233:	f3 0f 11 4d f8       	movss  %xmm1,-0x8(%rbp)
    c238:	f3 0f 10 4d fc       	movss  -0x4(%rbp),%xmm1
    c23d:	f3 0f 10 05 bb 52 01 	movss  0x152bb(%rip),%xmm0        # 21500 <g_2990+0x2488>
    c244:	00 
    c245:	f3 0f 59 c1          	mulss  %xmm1,%xmm0
    c249:	f3 0f 10 55 f8       	movss  -0x8(%rbp),%xmm2
    c24e:	f3 0f 10 0d aa 52 01 	movss  0x152aa(%rip),%xmm1        # 21500 <g_2990+0x2488>
    c255:	00 
    c256:	f3 0f 59 ca          	mulss  %xmm2,%xmm1
    c25a:	f3 0f 5c c1          	subss  %xmm1,%xmm0
    c25e:	f3 0f 10 0d aa 52 01 	movss  0x152aa(%rip),%xmm1        # 21510 <g_2990+0x2498>
    c265:	00 
    c266:	0f 54 c1             	andps  %xmm1,%xmm0
    c269:	0f 2f 05 b0 52 01 00 	comiss 0x152b0(%rip),%xmm0        # 21520 <g_2990+0x24a8>
    c270:	76 07                	jbe    c279 <safe_sub_func_float_f_f+0x53>
    c272:	f3 0f 10 45 fc       	movss  -0x4(%rbp),%xmm0
    c277:	eb 0a                	jmp    c283 <safe_sub_func_float_f_f+0x5d>
    c279:	f3 0f 10 45 fc       	movss  -0x4(%rbp),%xmm0
    c27e:	f3 0f 5c 45 f8       	subss  -0x8(%rbp),%xmm0
    c283:	5d                   	pop    %rbp
    c284:	c3                   	retq   

000000000000c285 <safe_mul_func_float_f_f>:
    c285:	f3 0f 1e fa          	endbr64 
    c289:	55                   	push   %rbp
    c28a:	48 89 e5             	mov    %rsp,%rbp
    c28d:	f3 0f 11 45 fc       	movss  %xmm0,-0x4(%rbp)
    c292:	f3 0f 11 4d f8       	movss  %xmm1,-0x8(%rbp)
    c297:	f3 0f 10 4d fc       	movss  -0x4(%rbp),%xmm1
    c29c:	f3 0f 10 05 80 52 01 	movss  0x15280(%rip),%xmm0        # 21524 <g_2990+0x24ac>
    c2a3:	00 
    c2a4:	f3 0f 59 c8          	mulss  %xmm0,%xmm1
    c2a8:	f3 0f 10 55 f8       	movss  -0x8(%rbp),%xmm2
    c2ad:	f3 0f 10 05 73 52 01 	movss  0x15273(%rip),%xmm0        # 21528 <g_2990+0x24b0>
    c2b4:	00 
    c2b5:	f3 0f 59 c2          	mulss  %xmm2,%xmm0
    c2b9:	f3 0f 59 c1          	mulss  %xmm1,%xmm0
    c2bd:	f3 0f 10 0d 4b 52 01 	movss  0x1524b(%rip),%xmm1        # 21510 <g_2990+0x2498>
    c2c4:	00 
    c2c5:	0f 54 c1             	andps  %xmm1,%xmm0
    c2c8:	0f 2f 05 5d 52 01 00 	comiss 0x1525d(%rip),%xmm0        # 2152c <g_2990+0x24b4>
    c2cf:	76 07                	jbe    c2d8 <safe_mul_func_float_f_f+0x53>
    c2d1:	f3 0f 10 45 fc       	movss  -0x4(%rbp),%xmm0
    c2d6:	eb 0a                	jmp    c2e2 <safe_mul_func_float_f_f+0x5d>
    c2d8:	f3 0f 10 45 fc       	movss  -0x4(%rbp),%xmm0
    c2dd:	f3 0f 59 45 f8       	mulss  -0x8(%rbp),%xmm0
    c2e2:	5d                   	pop    %rbp
    c2e3:	c3                   	retq   

000000000000c2e4 <safe_div_func_float_f_f>:
    c2e4:	f3 0f 1e fa          	endbr64 
    c2e8:	55                   	push   %rbp
    c2e9:	48 89 e5             	mov    %rsp,%rbp
    c2ec:	f3 0f 11 45 fc       	movss  %xmm0,-0x4(%rbp)
    c2f1:	f3 0f 11 4d f8       	movss  %xmm1,-0x8(%rbp)
    c2f6:	f3 0f 10 45 f8       	movss  -0x8(%rbp),%xmm0
    c2fb:	f3 0f 10 0d 0d 52 01 	movss  0x1520d(%rip),%xmm1        # 21510 <g_2990+0x2498>
    c302:	00 
    c303:	0f 54 c8             	andps  %xmm0,%xmm1
    c306:	f3 0f 10 05 22 52 01 	movss  0x15222(%rip),%xmm0        # 21530 <g_2990+0x24b8>
    c30d:	00 
    c30e:	0f 2f c1             	comiss %xmm1,%xmm0
    c311:	0f 97 c0             	seta   %al
    c314:	83 f0 01             	xor    $0x1,%eax
    c317:	84 c0                	test   %al,%al
    c319:	75 56                	jne    c371 <safe_div_func_float_f_f+0x8d>
    c31b:	66 0f ef c0          	pxor   %xmm0,%xmm0
    c31f:	0f 2e 45 f8          	ucomiss -0x8(%rbp),%xmm0
    c323:	7a 0a                	jp     c32f <safe_div_func_float_f_f+0x4b>
    c325:	66 0f ef c0          	pxor   %xmm0,%xmm0
    c329:	0f 2e 45 f8          	ucomiss -0x8(%rbp),%xmm0
    c32d:	74 4e                	je     c37d <safe_div_func_float_f_f+0x99>
    c32f:	f3 0f 10 4d fc       	movss  -0x4(%rbp),%xmm1
    c334:	f3 0f 10 05 f8 51 01 	movss  0x151f8(%rip),%xmm0        # 21534 <g_2990+0x24bc>
    c33b:	00 
    c33c:	f3 0f 59 c1          	mulss  %xmm1,%xmm0
    c340:	f3 0f 10 55 f8       	movss  -0x8(%rbp),%xmm2
    c345:	f3 0f 10 0d eb 51 01 	movss  0x151eb(%rip),%xmm1        # 21538 <g_2990+0x24c0>
    c34c:	00 
    c34d:	f3 0f 59 ca          	mulss  %xmm2,%xmm1
    c351:	f3 0f 5e c1          	divss  %xmm1,%xmm0
    c355:	f3 0f 10 0d b3 51 01 	movss  0x151b3(%rip),%xmm1        # 21510 <g_2990+0x2498>
    c35c:	00 
    c35d:	0f 54 c1             	andps  %xmm1,%xmm0
    c360:	0f 2f 05 d5 51 01 00 	comiss 0x151d5(%rip),%xmm0        # 2153c <g_2990+0x24c4>
    c367:	0f 97 c0             	seta   %al
    c36a:	83 f0 01             	xor    $0x1,%eax
    c36d:	84 c0                	test   %al,%al
    c36f:	74 0c                	je     c37d <safe_div_func_float_f_f+0x99>
    c371:	f3 0f 10 45 fc       	movss  -0x4(%rbp),%xmm0
    c376:	f3 0f 5e 45 f8       	divss  -0x8(%rbp),%xmm0
    c37b:	eb 05                	jmp    c382 <safe_div_func_float_f_f+0x9e>
    c37d:	f3 0f 10 45 fc       	movss  -0x4(%rbp),%xmm0
    c382:	5d                   	pop    %rbp
    c383:	c3                   	retq   

000000000000c384 <safe_add_func_double_f_f>:
    c384:	f3 0f 1e fa          	endbr64 
    c388:	55                   	push   %rbp
    c389:	48 89 e5             	mov    %rsp,%rbp
    c38c:	f2 0f 11 45 f8       	movsd  %xmm0,-0x8(%rbp)
    c391:	f2 0f 11 4d f0       	movsd  %xmm1,-0x10(%rbp)
    c396:	f2 0f 10 4d f8       	movsd  -0x8(%rbp),%xmm1
    c39b:	f2 0f 10 05 9d 51 01 	movsd  0x1519d(%rip),%xmm0        # 21540 <g_2990+0x24c8>
    c3a2:	00 
    c3a3:	f2 0f 59 c8          	mulsd  %xmm0,%xmm1
    c3a7:	f2 0f 10 55 f0       	movsd  -0x10(%rbp),%xmm2
    c3ac:	f2 0f 10 05 8c 51 01 	movsd  0x1518c(%rip),%xmm0        # 21540 <g_2990+0x24c8>
    c3b3:	00 
    c3b4:	f2 0f 59 c2          	mulsd  %xmm2,%xmm0
    c3b8:	f2 0f 58 c1          	addsd  %xmm1,%xmm0
    c3bc:	f3 0f 7e 0d 8c 51 01 	movq   0x1518c(%rip),%xmm1        # 21550 <g_2990+0x24d8>
    c3c3:	00 
    c3c4:	66 0f 54 c1          	andpd  %xmm1,%xmm0
    c3c8:	66 0f 2f 05 90 51 01 	comisd 0x15190(%rip),%xmm0        # 21560 <g_2990+0x24e8>
    c3cf:	00 
    c3d0:	76 07                	jbe    c3d9 <safe_add_func_double_f_f+0x55>
    c3d2:	f2 0f 10 45 f8       	movsd  -0x8(%rbp),%xmm0
    c3d7:	eb 0a                	jmp    c3e3 <safe_add_func_double_f_f+0x5f>
    c3d9:	f2 0f 10 45 f8       	movsd  -0x8(%rbp),%xmm0
    c3de:	f2 0f 58 45 f0       	addsd  -0x10(%rbp),%xmm0
    c3e3:	5d                   	pop    %rbp
    c3e4:	c3                   	retq   

000000000000c3e5 <safe_sub_func_double_f_f>:
    c3e5:	f3 0f 1e fa          	endbr64 
    c3e9:	55                   	push   %rbp
    c3ea:	48 89 e5             	mov    %rsp,%rbp
    c3ed:	f2 0f 11 45 f8       	movsd  %xmm0,-0x8(%rbp)
    c3f2:	f2 0f 11 4d f0       	movsd  %xmm1,-0x10(%rbp)
    c3f7:	f2 0f 10 4d f8       	movsd  -0x8(%rbp),%xmm1
    c3fc:	f2 0f 10 05 3c 51 01 	movsd  0x1513c(%rip),%xmm0        # 21540 <g_2990+0x24c8>
    c403:	00 
    c404:	f2 0f 59 c1          	mulsd  %xmm1,%xmm0
    c408:	f2 0f 10 55 f0       	movsd  -0x10(%rbp),%xmm2
    c40d:	f2 0f 10 0d 2b 51 01 	movsd  0x1512b(%rip),%xmm1        # 21540 <g_2990+0x24c8>
    c414:	00 
    c415:	f2 0f 59 ca          	mulsd  %xmm2,%xmm1
    c419:	f2 0f 5c c1          	subsd  %xmm1,%xmm0
    c41d:	f3 0f 7e 0d 2b 51 01 	movq   0x1512b(%rip),%xmm1        # 21550 <g_2990+0x24d8>
    c424:	00 
    c425:	66 0f 54 c1          	andpd  %xmm1,%xmm0
    c429:	66 0f 2f 05 2f 51 01 	comisd 0x1512f(%rip),%xmm0        # 21560 <g_2990+0x24e8>
    c430:	00 
    c431:	76 07                	jbe    c43a <safe_sub_func_double_f_f+0x55>
    c433:	f2 0f 10 45 f8       	movsd  -0x8(%rbp),%xmm0
    c438:	eb 0a                	jmp    c444 <safe_sub_func_double_f_f+0x5f>
    c43a:	f2 0f 10 45 f8       	movsd  -0x8(%rbp),%xmm0
    c43f:	f2 0f 5c 45 f0       	subsd  -0x10(%rbp),%xmm0
    c444:	5d                   	pop    %rbp
    c445:	c3                   	retq   

000000000000c446 <safe_mul_func_double_f_f>:
    c446:	f3 0f 1e fa          	endbr64 
    c44a:	55                   	push   %rbp
    c44b:	48 89 e5             	mov    %rsp,%rbp
    c44e:	f2 0f 11 45 f8       	movsd  %xmm0,-0x8(%rbp)
    c453:	f2 0f 11 4d f0       	movsd  %xmm1,-0x10(%rbp)
    c458:	f2 0f 10 4d f8       	movsd  -0x8(%rbp),%xmm1
    c45d:	f2 0f 10 05 03 51 01 	movsd  0x15103(%rip),%xmm0        # 21568 <g_2990+0x24f0>
    c464:	00 
    c465:	f2 0f 59 c8          	mulsd  %xmm0,%xmm1
    c469:	f2 0f 10 55 f0       	movsd  -0x10(%rbp),%xmm2
    c46e:	f2 0f 10 05 fa 50 01 	movsd  0x150fa(%rip),%xmm0        # 21570 <g_2990+0x24f8>
    c475:	00 
    c476:	f2 0f 59 c2          	mulsd  %xmm2,%xmm0
    c47a:	f2 0f 59 c1          	mulsd  %xmm1,%xmm0
    c47e:	f3 0f 7e 0d ca 50 01 	movq   0x150ca(%rip),%xmm1        # 21550 <g_2990+0x24d8>
    c485:	00 
    c486:	66 0f 54 c1          	andpd  %xmm1,%xmm0
    c48a:	66 0f 2f 05 e6 50 01 	comisd 0x150e6(%rip),%xmm0        # 21578 <g_2990+0x2500>
    c491:	00 
    c492:	76 07                	jbe    c49b <safe_mul_func_double_f_f+0x55>
    c494:	f2 0f 10 45 f8       	movsd  -0x8(%rbp),%xmm0
    c499:	eb 0a                	jmp    c4a5 <safe_mul_func_double_f_f+0x5f>
    c49b:	f2 0f 10 45 f8       	movsd  -0x8(%rbp),%xmm0
    c4a0:	f2 0f 59 45 f0       	mulsd  -0x10(%rbp),%xmm0
    c4a5:	5d                   	pop    %rbp
    c4a6:	c3                   	retq   

000000000000c4a7 <safe_div_func_double_f_f>:
    c4a7:	f3 0f 1e fa          	endbr64 
    c4ab:	55                   	push   %rbp
    c4ac:	48 89 e5             	mov    %rsp,%rbp
    c4af:	f2 0f 11 45 f8       	movsd  %xmm0,-0x8(%rbp)
    c4b4:	f2 0f 11 4d f0       	movsd  %xmm1,-0x10(%rbp)
    c4b9:	f2 0f 10 45 f0       	movsd  -0x10(%rbp),%xmm0
    c4be:	f3 0f 7e 0d 8a 50 01 	movq   0x1508a(%rip),%xmm1        # 21550 <g_2990+0x24d8>
    c4c5:	00 
    c4c6:	66 0f 54 c8          	andpd  %xmm0,%xmm1
    c4ca:	f2 0f 10 05 ae 50 01 	movsd  0x150ae(%rip),%xmm0        # 21580 <g_2990+0x2508>
    c4d1:	00 
    c4d2:	66 0f 2f c1          	comisd %xmm1,%xmm0
    c4d6:	0f 97 c0             	seta   %al
    c4d9:	83 f0 01             	xor    $0x1,%eax
    c4dc:	84 c0                	test   %al,%al
    c4de:	75 5a                	jne    c53a <safe_div_func_double_f_f+0x93>
    c4e0:	66 0f ef c0          	pxor   %xmm0,%xmm0
    c4e4:	66 0f 2e 45 f0       	ucomisd -0x10(%rbp),%xmm0
    c4e9:	7a 0b                	jp     c4f6 <safe_div_func_double_f_f+0x4f>
    c4eb:	66 0f ef c0          	pxor   %xmm0,%xmm0
    c4ef:	66 0f 2e 45 f0       	ucomisd -0x10(%rbp),%xmm0
    c4f4:	74 50                	je     c546 <safe_div_func_double_f_f+0x9f>
    c4f6:	f2 0f 10 4d f8       	movsd  -0x8(%rbp),%xmm1
    c4fb:	f2 0f 10 05 85 50 01 	movsd  0x15085(%rip),%xmm0        # 21588 <g_2990+0x2510>
    c502:	00 
    c503:	f2 0f 59 c1          	mulsd  %xmm1,%xmm0
    c507:	f2 0f 10 55 f0       	movsd  -0x10(%rbp),%xmm2
    c50c:	f2 0f 10 0d 7c 50 01 	movsd  0x1507c(%rip),%xmm1        # 21590 <g_2990+0x2518>
    c513:	00 
    c514:	f2 0f 59 ca          	mulsd  %xmm2,%xmm1
    c518:	f2 0f 5e c1          	divsd  %xmm1,%xmm0
    c51c:	f3 0f 7e 0d 2c 50 01 	movq   0x1502c(%rip),%xmm1        # 21550 <g_2990+0x24d8>
    c523:	00 
    c524:	66 0f 54 c1          	andpd  %xmm1,%xmm0
    c528:	66 0f 2f 05 68 50 01 	comisd 0x15068(%rip),%xmm0        # 21598 <g_2990+0x2520>
    c52f:	00 
    c530:	0f 97 c0             	seta   %al
    c533:	83 f0 01             	xor    $0x1,%eax
    c536:	84 c0                	test   %al,%al
    c538:	74 0c                	je     c546 <safe_div_func_double_f_f+0x9f>
    c53a:	f2 0f 10 45 f8       	movsd  -0x8(%rbp),%xmm0
    c53f:	f2 0f 5e 45 f0       	divsd  -0x10(%rbp),%xmm0
    c544:	eb 05                	jmp    c54b <safe_div_func_double_f_f+0xa4>
    c546:	f2 0f 10 45 f8       	movsd  -0x8(%rbp),%xmm0
    c54b:	5d                   	pop    %rbp
    c54c:	c3                   	retq   

000000000000c54d <safe_convert_func_float_to_int32_t>:
    c54d:	f3 0f 1e fa          	endbr64 
    c551:	55                   	push   %rbp
    c552:	48 89 e5             	mov    %rsp,%rbp
    c555:	f3 0f 11 45 fc       	movss  %xmm0,-0x4(%rbp)
    c55a:	f3 0f 10 05 3e 50 01 	movss  0x1503e(%rip),%xmm0        # 215a0 <g_2990+0x2528>
    c561:	00 
    c562:	0f 2f 45 fc          	comiss -0x4(%rbp),%xmm0
    c566:	0f 93 c0             	setae  %al
    c569:	83 f0 01             	xor    $0x1,%eax
    c56c:	84 c0                	test   %al,%al
    c56e:	74 21                	je     c591 <safe_convert_func_float_to_int32_t+0x44>
    c570:	f3 0f 10 45 fc       	movss  -0x4(%rbp),%xmm0
    c575:	0f 2f 05 28 50 01 00 	comiss 0x15028(%rip),%xmm0        # 215a4 <g_2990+0x252c>
    c57c:	0f 93 c0             	setae  %al
    c57f:	83 f0 01             	xor    $0x1,%eax
    c582:	84 c0                	test   %al,%al
    c584:	74 0b                	je     c591 <safe_convert_func_float_to_int32_t+0x44>
    c586:	f3 0f 10 45 fc       	movss  -0x4(%rbp),%xmm0
    c58b:	f3 0f 2c c0          	cvttss2si %xmm0,%eax
    c58f:	eb 05                	jmp    c596 <safe_convert_func_float_to_int32_t+0x49>
    c591:	b8 ff ff ff 7f       	mov    $0x7fffffff,%eax
    c596:	5d                   	pop    %rbp
    c597:	c3                   	retq   

000000000000c598 <crc32_gentab>:
    c598:	f3 0f 1e fa          	endbr64 
    c59c:	55                   	push   %rbp
    c59d:	48 89 e5             	mov    %rsp,%rbp
    c5a0:	c7 45 fc 20 83 b8 ed 	movl   $0xedb88320,-0x4(%rbp)
    c5a7:	c7 45 f4 00 00 00 00 	movl   $0x0,-0xc(%rbp)
    c5ae:	eb 51                	jmp    c601 <crc32_gentab+0x69>
    c5b0:	8b 45 f4             	mov    -0xc(%rbp),%eax
    c5b3:	89 45 f0             	mov    %eax,-0x10(%rbp)
    c5b6:	c7 45 f8 08 00 00 00 	movl   $0x8,-0x8(%rbp)
    c5bd:	eb 1e                	jmp    c5dd <crc32_gentab+0x45>
    c5bf:	8b 45 f0             	mov    -0x10(%rbp),%eax
    c5c2:	83 e0 01             	and    $0x1,%eax
    c5c5:	85 c0                	test   %eax,%eax
    c5c7:	74 0d                	je     c5d6 <crc32_gentab+0x3e>
    c5c9:	8b 45 f0             	mov    -0x10(%rbp),%eax
    c5cc:	d1 e8                	shr    %eax
    c5ce:	33 45 fc             	xor    -0x4(%rbp),%eax
    c5d1:	89 45 f0             	mov    %eax,-0x10(%rbp)
    c5d4:	eb 03                	jmp    c5d9 <crc32_gentab+0x41>
    c5d6:	d1 6d f0             	shrl   -0x10(%rbp)
    c5d9:	83 6d f8 01          	subl   $0x1,-0x8(%rbp)
    c5dd:	83 7d f8 00          	cmpl   $0x0,-0x8(%rbp)
    c5e1:	7f dc                	jg     c5bf <crc32_gentab+0x27>
    c5e3:	8b 45 f4             	mov    -0xc(%rbp),%eax
    c5e6:	48 98                	cltq   
    c5e8:	48 8d 0c 85 00 00 00 	lea    0x0(,%rax,4),%rcx
    c5ef:	00 
    c5f0:	48 8d 15 89 bf 01 00 	lea    0x1bf89(%rip),%rdx        # 28580 <crc32_tab>
    c5f7:	8b 45 f0             	mov    -0x10(%rbp),%eax
    c5fa:	89 04 11             	mov    %eax,(%rcx,%rdx,1)
    c5fd:	83 45 f4 01          	addl   $0x1,-0xc(%rbp)
    c601:	81 7d f4 ff 00 00 00 	cmpl   $0xff,-0xc(%rbp)
    c608:	7e a6                	jle    c5b0 <crc32_gentab+0x18>
    c60a:	90                   	nop
    c60b:	90                   	nop
    c60c:	5d                   	pop    %rbp
    c60d:	c3                   	retq   

000000000000c60e <crc32_byte>:
    c60e:	f3 0f 1e fa          	endbr64 
    c612:	55                   	push   %rbp
    c613:	48 89 e5             	mov    %rsp,%rbp
    c616:	89 f8                	mov    %edi,%eax
    c618:	88 45 fc             	mov    %al,-0x4(%rbp)
    c61b:	8b 05 ff 79 01 00    	mov    0x179ff(%rip),%eax        # 24020 <crc32_context>
    c621:	c1 e8 08             	shr    $0x8,%eax
    c624:	89 c1                	mov    %eax,%ecx
    c626:	0f b6 55 fc          	movzbl -0x4(%rbp),%edx
    c62a:	8b 05 f0 79 01 00    	mov    0x179f0(%rip),%eax        # 24020 <crc32_context>
    c630:	31 d0                	xor    %edx,%eax
    c632:	0f b6 c0             	movzbl %al,%eax
    c635:	89 c0                	mov    %eax,%eax
    c637:	48 8d 14 85 00 00 00 	lea    0x0(,%rax,4),%rdx
    c63e:	00 
    c63f:	48 8d 05 3a bf 01 00 	lea    0x1bf3a(%rip),%rax        # 28580 <crc32_tab>
    c646:	8b 04 02             	mov    (%rdx,%rax,1),%eax
    c649:	31 c8                	xor    %ecx,%eax
    c64b:	89 05 cf 79 01 00    	mov    %eax,0x179cf(%rip)        # 24020 <crc32_context>
    c651:	90                   	nop
    c652:	5d                   	pop    %rbp
    c653:	c3                   	retq   

000000000000c654 <crc32_8bytes>:
    c654:	f3 0f 1e fa          	endbr64 
    c658:	55                   	push   %rbp
    c659:	48 89 e5             	mov    %rsp,%rbp
    c65c:	48 83 ec 08          	sub    $0x8,%rsp
    c660:	48 89 7d f8          	mov    %rdi,-0x8(%rbp)
    c664:	48 8b 45 f8          	mov    -0x8(%rbp),%rax
    c668:	0f b6 c0             	movzbl %al,%eax
    c66b:	89 c7                	mov    %eax,%edi
    c66d:	e8 9c ff ff ff       	callq  c60e <crc32_byte>
    c672:	48 8b 45 f8          	mov    -0x8(%rbp),%rax
    c676:	48 c1 e8 08          	shr    $0x8,%rax
    c67a:	0f b6 c0             	movzbl %al,%eax
    c67d:	89 c7                	mov    %eax,%edi
    c67f:	e8 8a ff ff ff       	callq  c60e <crc32_byte>
    c684:	48 8b 45 f8          	mov    -0x8(%rbp),%rax
    c688:	48 c1 e8 10          	shr    $0x10,%rax
    c68c:	0f b6 c0             	movzbl %al,%eax
    c68f:	89 c7                	mov    %eax,%edi
    c691:	e8 78 ff ff ff       	callq  c60e <crc32_byte>
    c696:	48 8b 45 f8          	mov    -0x8(%rbp),%rax
    c69a:	48 c1 e8 18          	shr    $0x18,%rax
    c69e:	0f b6 c0             	movzbl %al,%eax
    c6a1:	89 c7                	mov    %eax,%edi
    c6a3:	e8 66 ff ff ff       	callq  c60e <crc32_byte>
    c6a8:	48 8b 45 f8          	mov    -0x8(%rbp),%rax
    c6ac:	48 c1 e8 20          	shr    $0x20,%rax
    c6b0:	0f b6 c0             	movzbl %al,%eax
    c6b3:	89 c7                	mov    %eax,%edi
    c6b5:	e8 54 ff ff ff       	callq  c60e <crc32_byte>
    c6ba:	48 8b 45 f8          	mov    -0x8(%rbp),%rax
    c6be:	48 c1 e8 28          	shr    $0x28,%rax
    c6c2:	0f b6 c0             	movzbl %al,%eax
    c6c5:	89 c7                	mov    %eax,%edi
    c6c7:	e8 42 ff ff ff       	callq  c60e <crc32_byte>
    c6cc:	48 8b 45 f8          	mov    -0x8(%rbp),%rax
    c6d0:	48 c1 e8 30          	shr    $0x30,%rax
    c6d4:	0f b6 c0             	movzbl %al,%eax
    c6d7:	89 c7                	mov    %eax,%edi
    c6d9:	e8 30 ff ff ff       	callq  c60e <crc32_byte>
    c6de:	48 8b 45 f8          	mov    -0x8(%rbp),%rax
    c6e2:	48 c1 e8 38          	shr    $0x38,%rax
    c6e6:	0f b6 c0             	movzbl %al,%eax
    c6e9:	89 c7                	mov    %eax,%edi
    c6eb:	e8 1e ff ff ff       	callq  c60e <crc32_byte>
    c6f0:	90                   	nop
    c6f1:	c9                   	leaveq 
    c6f2:	c3                   	retq   

000000000000c6f3 <transparent_crc>:
    c6f3:	f3 0f 1e fa          	endbr64 
    c6f7:	55                   	push   %rbp
    c6f8:	48 89 e5             	mov    %rsp,%rbp
    c6fb:	48 83 ec 20          	sub    $0x20,%rsp
    c6ff:	48 89 7d f8          	mov    %rdi,-0x8(%rbp)
    c703:	48 89 75 f0          	mov    %rsi,-0x10(%rbp)
    c707:	89 55 ec             	mov    %edx,-0x14(%rbp)
    c70a:	48 8b 45 f8          	mov    -0x8(%rbp),%rax
    c70e:	48 89 c7             	mov    %rax,%rdi
    c711:	e8 3e ff ff ff       	callq  c654 <crc32_8bytes>
    c716:	83 7d ec 00          	cmpl   $0x0,-0x14(%rbp)
    c71a:	74 22                	je     c73e <transparent_crc+0x4b>
    c71c:	8b 05 fe 78 01 00    	mov    0x178fe(%rip),%eax        # 24020 <crc32_context>
    c722:	f7 d0                	not    %eax
    c724:	89 c2                	mov    %eax,%edx
    c726:	48 8b 45 f0          	mov    -0x10(%rbp),%rax
    c72a:	48 89 c6             	mov    %rax,%rsi
    c72d:	48 8d 3d fc 28 01 00 	lea    0x128fc(%rip),%rdi        # 1f030 <_IO_stdin_used+0x30>
    c734:	b8 00 00 00 00       	mov    $0x0,%eax
    c739:	e8 42 e9 ff ff       	callq  b080 <printf@plt>
    c73e:	90                   	nop
    c73f:	c9                   	leaveq 
    c740:	c3                   	retq   

000000000000c741 <transparent_crc_bytes>:
    c741:	f3 0f 1e fa          	endbr64 
    c745:	55                   	push   %rbp
    c746:	48 89 e5             	mov    %rsp,%rbp
    c749:	48 83 ec 30          	sub    $0x30,%rsp
    c74d:	48 89 7d e8          	mov    %rdi,-0x18(%rbp)
    c751:	89 75 e4             	mov    %esi,-0x1c(%rbp)
    c754:	48 89 55 d8          	mov    %rdx,-0x28(%rbp)
    c758:	89 4d e0             	mov    %ecx,-0x20(%rbp)
    c75b:	c7 45 fc 00 00 00 00 	movl   $0x0,-0x4(%rbp)
    c762:	eb 1e                	jmp    c782 <transparent_crc_bytes+0x41>
    c764:	8b 45 fc             	mov    -0x4(%rbp),%eax
    c767:	48 63 d0             	movslq %eax,%rdx
    c76a:	48 8b 45 e8          	mov    -0x18(%rbp),%rax
    c76e:	48 01 d0             	add    %rdx,%rax
    c771:	0f b6 00             	movzbl (%rax),%eax
    c774:	0f b6 c0             	movzbl %al,%eax
    c777:	89 c7                	mov    %eax,%edi
    c779:	e8 90 fe ff ff       	callq  c60e <crc32_byte>
    c77e:	83 45 fc 01          	addl   $0x1,-0x4(%rbp)
    c782:	8b 45 fc             	mov    -0x4(%rbp),%eax
    c785:	3b 45 e4             	cmp    -0x1c(%rbp),%eax
    c788:	7c da                	jl     c764 <transparent_crc_bytes+0x23>
    c78a:	83 7d e0 00          	cmpl   $0x0,-0x20(%rbp)
    c78e:	74 22                	je     c7b2 <transparent_crc_bytes+0x71>
    c790:	8b 05 8a 78 01 00    	mov    0x1788a(%rip),%eax        # 24020 <crc32_context>
    c796:	f7 d0                	not    %eax
    c798:	89 c2                	mov    %eax,%edx
    c79a:	48 8b 45 d8          	mov    -0x28(%rbp),%rax
    c79e:	48 89 c6             	mov    %rax,%rsi
    c7a1:	48 8d 3d 88 28 01 00 	lea    0x12888(%rip),%rdi        # 1f030 <_IO_stdin_used+0x30>
    c7a8:	b8 00 00 00 00       	mov    $0x0,%eax
    c7ad:	e8 ce e8 ff ff       	callq  b080 <printf@plt>
    c7b2:	90                   	nop
    c7b3:	c9                   	leaveq 
    c7b4:	c3                   	retq   

000000000000c7b5 <func_1>:
    c7b5:	f3 0f 1e fa          	endbr64 
    c7b9:	55                   	push   %rbp
    c7ba:	48 89 e5             	mov    %rsp,%rbp
    c7bd:	48 83 c4 80          	add    $0xffffffffffffff80,%rsp
    c7c1:	64 48 8b 04 25 28 00 	mov    %fs:0x28,%rax
    c7c8:	00 00 
    c7ca:	48 89 45 f8          	mov    %rax,-0x8(%rbp)
    c7ce:	31 c0                	xor    %eax,%eax
    c7d0:	c6 45 8f 01          	movb   $0x1,-0x71(%rbp)
    c7d4:	48 8d 05 83 7a 01 00 	lea    0x17a83(%rip),%rax        # 2425e <g_2895>
    c7db:	48 89 45 a8          	mov    %rax,-0x58(%rbp)
    c7df:	c7 45 9c fb ff ff ff 	movl   $0xfffffffb,-0x64(%rbp)
    c7e6:	c6 45 90 f7          	movb   $0xf7,-0x70(%rbp)
    c7ea:	c6 45 91 ff          	movb   $0xff,-0x6f(%rbp)
    c7ee:	c7 45 e0 fd ff ff ff 	movl   $0xfffffffd,-0x20(%rbp)
    c7f5:	c7 45 e4 fd ff ff ff 	movl   $0xfffffffd,-0x1c(%rbp)
    c7fc:	c7 45 e8 fd ff ff ff 	movl   $0xfffffffd,-0x18(%rbp)
    c803:	c7 45 ec fd ff ff ff 	movl   $0xfffffffd,-0x14(%rbp)
    c80a:	c7 45 f0 fd ff ff ff 	movl   $0xfffffffd,-0x10(%rbp)
    c811:	c7 45 f4 fd ff ff ff 	movl   $0xfffffffd,-0xc(%rbp)
    c818:	66 c7 45 94 00 00    	movw   $0x0,-0x6c(%rbp)
    c81e:	c6 45 92 00          	movb   $0x0,-0x6e(%rbp)
    c822:	c6 45 93 e8          	movb   $0xe8,-0x6d(%rbp)
    c826:	48 8d 05 71 78 01 00 	lea    0x17871(%rip),%rax        # 2409e <g_116>
    c82d:	48 89 45 b0          	mov    %rax,-0x50(%rbp)
    c831:	c7 45 a0 f8 ff ff ff 	movl   $0xfffffff8,-0x60(%rbp)
    c838:	48 8d 05 d1 79 01 00 	lea    0x179d1(%rip),%rax        # 24210 <g_1297+0x10>
    c83f:	48 89 45 b8          	mov    %rax,-0x48(%rbp)
    c843:	66 c7 45 96 01 00    	movw   $0x1,-0x6a(%rbp)
    c849:	48 8d 05 88 79 01 00 	lea    0x17988(%rip),%rax        # 241d8 <g_400>
    c850:	48 89 45 c0          	mov    %rax,-0x40(%rbp)
    c854:	48 8d 05 dd bc 01 00 	lea    0x1bcdd(%rip),%rax        # 28538 <g_3826>
    c85b:	48 89 45 c8          	mov    %rax,-0x38(%rbp)
    c85f:	48 c7 45 d0 00 00 00 	movq   $0x0,-0x30(%rbp)
    c866:	00 
    c867:	48 c7 45 d8 00 00 00 	movq   $0x0,-0x28(%rbp)
    c86e:	00 
    c86f:	66 c7 45 98 00 00    	movw   $0x0,-0x68(%rbp)
    c875:	66 c7 45 9a a1 b1    	movw   $0xb1a1,-0x66(%rbp)
    c87b:	c7 45 a4 9b a3 e6 33 	movl   $0x33e6a39b,-0x5c(%rbp)
    c882:	48 8b 45 c0          	mov    -0x40(%rbp),%rax
    c886:	8b 00                	mov    (%rax),%eax
    c888:	48 8b 55 f8          	mov    -0x8(%rbp),%rdx
    c88c:	64 48 33 14 25 28 00 	xor    %fs:0x28,%rdx
    c893:	00 00 
    c895:	74 05                	je     c89c <func_1+0xe7>
    c897:	e8 d4 e7 ff ff       	callq  b070 <__stack_chk_fail@plt>
    c89c:	c9                   	leaveq 
    c89d:	c3                   	retq   

000000000000c89e <func_2>:
    c89e:	f3 0f 1e fa          	endbr64 
    c8a2:	55                   	push   %rbp
    c8a3:	48 89 e5             	mov    %rsp,%rbp
    c8a6:	41 57                	push   %r15
    c8a8:	41 56                	push   %r14
    c8aa:	41 55                	push   %r13
    c8ac:	41 54                	push   %r12
    c8ae:	53                   	push   %rbx
    c8af:	48 81 ec 00 10 00 00 	sub    $0x1000,%rsp
    c8b6:	48 83 0c 24 00       	orq    $0x0,(%rsp)
    c8bb:	48 81 ec 38 05 00 00 	sub    $0x538,%rsp
    c8c2:	48 89 bd b8 ea ff ff 	mov    %rdi,-0x1548(%rbp)
    c8c9:	64 48 8b 04 25 28 00 	mov    %fs:0x28,%rax
    c8d0:	00 00 
    c8d2:	48 89 45 c8          	mov    %rax,-0x38(%rbp)
    c8d6:	31 c0                	xor    %eax,%eax
    c8d8:	48 c7 85 20 ec ff ff 	movq   $0xffffffffffffffff,-0x13e0(%rbp)
    c8df:	ff ff ff ff 
    c8e3:	48 c7 85 c0 eb ff ff 	movq   $0x0,-0x1440(%rbp)
    c8ea:	00 00 00 00 
    c8ee:	c7 85 d8 ea ff ff f9 	movl   $0xfffffff9,-0x1528(%rbp)
    c8f5:	ff ff ff 
    c8f8:	c7 85 34 eb ff ff cd 	movl   $0x3a26d2cd,-0x14cc(%rbp)
    c8ff:	d2 26 3a 
    c902:	c7 85 38 eb ff ff 94 	movl   $0x12245994,-0x14c8(%rbp)
    c909:	59 24 12 
    c90c:	c7 85 3c eb ff ff 01 	movl   $0x1,-0x14c4(%rbp)
    c913:	00 00 00 
    c916:	c7 85 dc ea ff ff 00 	movl   $0x0,-0x1524(%rbp)
    c91d:	00 00 00 
    c920:	c7 85 e0 ea ff ff 00 	movl   $0x0,-0x1520(%rbp)
    c927:	00 00 00 
    c92a:	c7 85 e4 ea ff ff f2 	movl   $0x332230f2,-0x151c(%rbp)
    c931:	30 22 33 
    c934:	c6 85 cb ea ff ff ff 	movb   $0xff,-0x1535(%rbp)
    c93b:	48 b8 ad ce 00 26 df 	movabs $0x3b3e4fdf2600cead,%rax
    c942:	4f 3e 3b 
    c945:	48 89 85 28 ec ff ff 	mov    %rax,-0x13d8(%rbp)
    c94c:	48 c7 85 10 ec ff ff 	movq   $0x4,-0x13f0(%rbp)
    c953:	04 00 00 00 
    c957:	48 8d 05 0e 78 01 00 	lea    0x1780e(%rip),%rax        # 2416c <g_190+0xc>
    c95e:	48 89 85 c8 eb ff ff 	mov    %rax,-0x1438(%rbp)
    c965:	48 c7 85 80 f4 ff ff 	movq   $0x0,-0xb80(%rbp)
    c96c:	00 00 00 00 
    c970:	48 8d 85 c8 eb ff ff 	lea    -0x1438(%rbp),%rax
    c977:	48 89 85 88 f4 ff ff 	mov    %rax,-0xb78(%rbp)
    c97e:	48 8d 85 c8 eb ff ff 	lea    -0x1438(%rbp),%rax
    c985:	48 89 85 90 f4 ff ff 	mov    %rax,-0xb70(%rbp)
    c98c:	48 c7 85 98 f4 ff ff 	movq   $0x0,-0xb68(%rbp)
    c993:	00 00 00 00 
    c997:	48 8d 85 c8 eb ff ff 	lea    -0x1438(%rbp),%rax
    c99e:	48 89 85 a0 f4 ff ff 	mov    %rax,-0xb60(%rbp)
    c9a5:	48 8d 85 c8 eb ff ff 	lea    -0x1438(%rbp),%rax
    c9ac:	48 89 85 a8 f4 ff ff 	mov    %rax,-0xb58(%rbp)
    c9b3:	48 c7 85 b0 f4 ff ff 	movq   $0x0,-0xb50(%rbp)
    c9ba:	00 00 00 00 
    c9be:	48 8d 85 c8 eb ff ff 	lea    -0x1438(%rbp),%rax
    c9c5:	48 89 85 b8 f4 ff ff 	mov    %rax,-0xb48(%rbp)
    c9cc:	48 8d 85 c8 eb ff ff 	lea    -0x1438(%rbp),%rax
    c9d3:	48 89 85 c0 f4 ff ff 	mov    %rax,-0xb40(%rbp)
    c9da:	48 8d 85 c8 eb ff ff 	lea    -0x1438(%rbp),%rax
    c9e1:	48 89 85 c8 f4 ff ff 	mov    %rax,-0xb38(%rbp)
    c9e8:	48 8d 85 c8 eb ff ff 	lea    -0x1438(%rbp),%rax
    c9ef:	48 89 85 d0 f4 ff ff 	mov    %rax,-0xb30(%rbp)
    c9f6:	48 8d 85 c8 eb ff ff 	lea    -0x1438(%rbp),%rax
    c9fd:	48 89 85 d8 f4 ff ff 	mov    %rax,-0xb28(%rbp)
    ca04:	48 8d 85 c8 eb ff ff 	lea    -0x1438(%rbp),%rax
    ca0b:	48 89 85 e0 f4 ff ff 	mov    %rax,-0xb20(%rbp)
    ca12:	48 8d 85 c8 eb ff ff 	lea    -0x1438(%rbp),%rax
    ca19:	48 89 85 e8 f4 ff ff 	mov    %rax,-0xb18(%rbp)
    ca20:	48 8d 85 c8 eb ff ff 	lea    -0x1438(%rbp),%rax
    ca27:	48 89 85 f0 f4 ff ff 	mov    %rax,-0xb10(%rbp)
    ca2e:	48 8d 85 c8 eb ff ff 	lea    -0x1438(%rbp),%rax
    ca35:	48 89 85 f8 f4 ff ff 	mov    %rax,-0xb08(%rbp)
    ca3c:	48 8d 85 c8 eb ff ff 	lea    -0x1438(%rbp),%rax
    ca43:	48 89 85 00 f5 ff ff 	mov    %rax,-0xb00(%rbp)
    ca4a:	48 8d 85 c8 eb ff ff 	lea    -0x1438(%rbp),%rax
    ca51:	48 89 85 08 f5 ff ff 	mov    %rax,-0xaf8(%rbp)
    ca58:	48 8d 85 c8 eb ff ff 	lea    -0x1438(%rbp),%rax
    ca5f:	48 89 85 10 f5 ff ff 	mov    %rax,-0xaf0(%rbp)
    ca66:	48 8d 85 c8 eb ff ff 	lea    -0x1438(%rbp),%rax
    ca6d:	48 89 85 18 f5 ff ff 	mov    %rax,-0xae8(%rbp)
    ca74:	48 8d 85 c8 eb ff ff 	lea    -0x1438(%rbp),%rax
    ca7b:	48 89 85 20 f5 ff ff 	mov    %rax,-0xae0(%rbp)
    ca82:	48 8d 85 c8 eb ff ff 	lea    -0x1438(%rbp),%rax
    ca89:	48 89 85 28 f5 ff ff 	mov    %rax,-0xad8(%rbp)
    ca90:	48 8d 85 c8 eb ff ff 	lea    -0x1438(%rbp),%rax
    ca97:	48 89 85 30 f5 ff ff 	mov    %rax,-0xad0(%rbp)
    ca9e:	48 8d 85 c8 eb ff ff 	lea    -0x1438(%rbp),%rax
    caa5:	48 89 85 38 f5 ff ff 	mov    %rax,-0xac8(%rbp)
    caac:	48 8d 85 c8 eb ff ff 	lea    -0x1438(%rbp),%rax
    cab3:	48 89 85 40 f5 ff ff 	mov    %rax,-0xac0(%rbp)
    caba:	48 8d 85 c8 eb ff ff 	lea    -0x1438(%rbp),%rax
    cac1:	48 89 85 48 f5 ff ff 	mov    %rax,-0xab8(%rbp)
    cac8:	48 8d 85 c8 eb ff ff 	lea    -0x1438(%rbp),%rax
    cacf:	48 89 85 50 f5 ff ff 	mov    %rax,-0xab0(%rbp)
    cad6:	48 8d 85 c8 eb ff ff 	lea    -0x1438(%rbp),%rax
    cadd:	48 89 85 58 f5 ff ff 	mov    %rax,-0xaa8(%rbp)
    cae4:	48 8d 85 c8 eb ff ff 	lea    -0x1438(%rbp),%rax
    caeb:	48 89 85 60 f5 ff ff 	mov    %rax,-0xaa0(%rbp)
    caf2:	48 8d 85 c8 eb ff ff 	lea    -0x1438(%rbp),%rax
    caf9:	48 89 85 68 f5 ff ff 	mov    %rax,-0xa98(%rbp)
    cb00:	48 8d 85 c8 eb ff ff 	lea    -0x1438(%rbp),%rax
    cb07:	48 89 85 70 f5 ff ff 	mov    %rax,-0xa90(%rbp)
    cb0e:	48 8d 85 c8 eb ff ff 	lea    -0x1438(%rbp),%rax
    cb15:	48 89 85 78 f5 ff ff 	mov    %rax,-0xa88(%rbp)
    cb1c:	48 8d 85 c8 eb ff ff 	lea    -0x1438(%rbp),%rax
    cb23:	48 89 85 80 f5 ff ff 	mov    %rax,-0xa80(%rbp)
    cb2a:	48 8d 85 c8 eb ff ff 	lea    -0x1438(%rbp),%rax
    cb31:	48 89 85 88 f5 ff ff 	mov    %rax,-0xa78(%rbp)
    cb38:	48 8d 85 c8 eb ff ff 	lea    -0x1438(%rbp),%rax
    cb3f:	48 89 85 90 f5 ff ff 	mov    %rax,-0xa70(%rbp)
    cb46:	48 8d 85 c8 eb ff ff 	lea    -0x1438(%rbp),%rax
    cb4d:	48 89 85 98 f5 ff ff 	mov    %rax,-0xa68(%rbp)
    cb54:	48 8d 85 c8 eb ff ff 	lea    -0x1438(%rbp),%rax
    cb5b:	48 89 85 a0 f5 ff ff 	mov    %rax,-0xa60(%rbp)
    cb62:	48 8d 85 c8 eb ff ff 	lea    -0x1438(%rbp),%rax
    cb69:	48 89 85 a8 f5 ff ff 	mov    %rax,-0xa58(%rbp)
    cb70:	48 8d 85 c8 eb ff ff 	lea    -0x1438(%rbp),%rax
    cb77:	48 89 85 b0 f5 ff ff 	mov    %rax,-0xa50(%rbp)
    cb7e:	48 8d 85 c8 eb ff ff 	lea    -0x1438(%rbp),%rax
    cb85:	48 89 85 b8 f5 ff ff 	mov    %rax,-0xa48(%rbp)
    cb8c:	48 8d 85 c8 eb ff ff 	lea    -0x1438(%rbp),%rax
    cb93:	48 89 85 c0 f5 ff ff 	mov    %rax,-0xa40(%rbp)
    cb9a:	48 8d 85 c8 eb ff ff 	lea    -0x1438(%rbp),%rax
    cba1:	48 89 85 c8 f5 ff ff 	mov    %rax,-0xa38(%rbp)
    cba8:	48 8d 85 c8 eb ff ff 	lea    -0x1438(%rbp),%rax
    cbaf:	48 89 85 d0 f5 ff ff 	mov    %rax,-0xa30(%rbp)
    cbb6:	48 8d 85 c8 eb ff ff 	lea    -0x1438(%rbp),%rax
    cbbd:	48 89 85 d8 f5 ff ff 	mov    %rax,-0xa28(%rbp)
    cbc4:	48 8d 85 c8 eb ff ff 	lea    -0x1438(%rbp),%rax
    cbcb:	48 89 85 e0 f5 ff ff 	mov    %rax,-0xa20(%rbp)
    cbd2:	48 8d 85 c8 eb ff ff 	lea    -0x1438(%rbp),%rax
    cbd9:	48 89 85 e8 f5 ff ff 	mov    %rax,-0xa18(%rbp)
    cbe0:	48 8d 85 c8 eb ff ff 	lea    -0x1438(%rbp),%rax
    cbe7:	48 89 85 f0 f5 ff ff 	mov    %rax,-0xa10(%rbp)
    cbee:	48 8d 85 c8 eb ff ff 	lea    -0x1438(%rbp),%rax
    cbf5:	48 89 85 f8 f5 ff ff 	mov    %rax,-0xa08(%rbp)
    cbfc:	48 8d 85 c8 eb ff ff 	lea    -0x1438(%rbp),%rax
    cc03:	48 89 85 00 f6 ff ff 	mov    %rax,-0xa00(%rbp)
    cc0a:	48 8d 85 c8 eb ff ff 	lea    -0x1438(%rbp),%rax
    cc11:	48 89 85 08 f6 ff ff 	mov    %rax,-0x9f8(%rbp)
    cc18:	48 8d 85 c8 eb ff ff 	lea    -0x1438(%rbp),%rax
    cc1f:	48 89 85 10 f6 ff ff 	mov    %rax,-0x9f0(%rbp)
    cc26:	48 8d 85 c8 eb ff ff 	lea    -0x1438(%rbp),%rax
    cc2d:	48 89 85 18 f6 ff ff 	mov    %rax,-0x9e8(%rbp)
    cc34:	48 8d 85 c8 eb ff ff 	lea    -0x1438(%rbp),%rax
    cc3b:	48 89 85 20 f6 ff ff 	mov    %rax,-0x9e0(%rbp)
    cc42:	48 8d 85 c8 eb ff ff 	lea    -0x1438(%rbp),%rax
    cc49:	48 89 85 28 f6 ff ff 	mov    %rax,-0x9d8(%rbp)
    cc50:	48 8d 85 c8 eb ff ff 	lea    -0x1438(%rbp),%rax
    cc57:	48 89 85 30 f6 ff ff 	mov    %rax,-0x9d0(%rbp)
    cc5e:	48 8d 85 c8 eb ff ff 	lea    -0x1438(%rbp),%rax
    cc65:	48 89 85 38 f6 ff ff 	mov    %rax,-0x9c8(%rbp)
    cc6c:	48 8d 85 c8 eb ff ff 	lea    -0x1438(%rbp),%rax
    cc73:	48 89 85 40 f6 ff ff 	mov    %rax,-0x9c0(%rbp)
    cc7a:	48 8d 85 c8 eb ff ff 	lea    -0x1438(%rbp),%rax
    cc81:	48 89 85 48 f6 ff ff 	mov    %rax,-0x9b8(%rbp)
    cc88:	48 8d 85 c8 eb ff ff 	lea    -0x1438(%rbp),%rax
    cc8f:	48 89 85 50 f6 ff ff 	mov    %rax,-0x9b0(%rbp)
    cc96:	48 8d 85 c8 eb ff ff 	lea    -0x1438(%rbp),%rax
    cc9d:	48 89 85 58 f6 ff ff 	mov    %rax,-0x9a8(%rbp)
    cca4:	48 8d 85 c8 eb ff ff 	lea    -0x1438(%rbp),%rax
    ccab:	48 89 85 60 f6 ff ff 	mov    %rax,-0x9a0(%rbp)
    ccb2:	48 8d 85 c8 eb ff ff 	lea    -0x1438(%rbp),%rax
    ccb9:	48 89 85 68 f6 ff ff 	mov    %rax,-0x998(%rbp)
    ccc0:	48 8d 85 c8 eb ff ff 	lea    -0x1438(%rbp),%rax
    ccc7:	48 89 85 70 f6 ff ff 	mov    %rax,-0x990(%rbp)
    ccce:	48 8d 05 eb 96 01 00 	lea    0x196eb(%rip),%rax        # 263c0 <g_1058>
    ccd5:	48 89 85 d0 eb ff ff 	mov    %rax,-0x1430(%rbp)
    ccdc:	48 8d 85 d0 eb ff ff 	lea    -0x1430(%rbp),%rax
    cce3:	48 89 85 30 ec ff ff 	mov    %rax,-0x13d0(%rbp)
    ccea:	48 8d 85 a0 ef ff ff 	lea    -0x1060(%rbp),%rax
    ccf1:	48 83 c0 30          	add    $0x30,%rax
    ccf5:	48 89 85 d8 eb ff ff 	mov    %rax,-0x1428(%rbp)
    ccfc:	48 b8 ad ea 19 93 bc 	movabs $0x9d2cacbc9319eaad,%rax
    cd03:	ac 2c 9d 
    cd06:	48 89 85 18 ec ff ff 	mov    %rax,-0x13e8(%rbp)
    cd0d:	48 b8 77 87 f6 b8 cd 	movabs $0xded64bcdb8f68777,%rax
    cd14:	4b d6 de 
    cd17:	48 89 85 38 ec ff ff 	mov    %rax,-0x13c8(%rbp)
    cd1e:	c7 85 e8 ea ff ff c5 	movl   $0x1b0149c5,-0x1518(%rbp)
    cd25:	49 01 1b 
    cd28:	48 b8 fb fb fb fb fb 	movabs $0xfbfbfbfbfbfbfbfb,%rax
    cd2f:	fb fb fb 
    cd32:	48 89 85 10 ef ff ff 	mov    %rax,-0x10f0(%rbp)
    cd39:	66 c7 85 18 ef ff ff 	movw   $0xfbfb,-0x10e8(%rbp)
    cd40:	fb fb 
    cd42:	48 89 85 1a ef ff ff 	mov    %rax,-0x10e6(%rbp)
    cd49:	66 c7 85 22 ef ff ff 	movw   $0xfbfb,-0x10de(%rbp)
    cd50:	fb fb 
    cd52:	48 89 85 24 ef ff ff 	mov    %rax,-0x10dc(%rbp)
    cd59:	66 c7 85 2c ef ff ff 	movw   $0xfbfb,-0x10d4(%rbp)
    cd60:	fb fb 
    cd62:	48 89 85 2e ef ff ff 	mov    %rax,-0x10d2(%rbp)
    cd69:	66 c7 85 36 ef ff ff 	movw   $0xfbfb,-0x10ca(%rbp)
    cd70:	fb fb 
    cd72:	48 89 85 38 ef ff ff 	mov    %rax,-0x10c8(%rbp)
    cd79:	66 c7 85 40 ef ff ff 	movw   $0xfbfb,-0x10c0(%rbp)
    cd80:	fb fb 
    cd82:	48 89 85 42 ef ff ff 	mov    %rax,-0x10be(%rbp)
    cd89:	66 c7 85 4a ef ff ff 	movw   $0xfbfb,-0x10b6(%rbp)
    cd90:	fb fb 
    cd92:	c7 85 40 eb ff ff 00 	movl   $0x0,-0x14c0(%rbp)
    cd99:	00 00 00 
    cd9c:	c7 85 44 eb ff ff fb 	movl   $0xfffffffb,-0x14bc(%rbp)
    cda3:	ff ff ff 
    cda6:	c7 85 48 eb ff ff ff 	movl   $0xffffffff,-0x14b8(%rbp)
    cdad:	ff ff ff 
    cdb0:	c7 85 f8 ea ff ff 00 	movl   $0x0,-0x1508(%rbp)
    cdb7:	00 00 00 
    cdba:	eb 1a                	jmp    cdd6 <func_2+0x538>
    cdbc:	8b 85 f8 ea ff ff    	mov    -0x1508(%rbp),%eax
    cdc2:	48 98                	cltq   
    cdc4:	c7 84 85 08 ee ff ff 	movl   $0xffffffff,-0x11f8(%rbp,%rax,4)
    cdcb:	ff ff ff ff 
    cdcf:	83 85 f8 ea ff ff 01 	addl   $0x1,-0x1508(%rbp)
    cdd6:	83 bd f8 ea ff ff 02 	cmpl   $0x2,-0x1508(%rbp)
    cddd:	7e dd                	jle    cdbc <func_2+0x51e>
    cddf:	c7 85 f8 ea ff ff 00 	movl   $0x0,-0x1508(%rbp)
    cde6:	00 00 00 
    cde9:	eb 1b                	jmp    ce06 <func_2+0x568>
    cdeb:	8b 85 f8 ea ff ff    	mov    -0x1508(%rbp),%eax
    cdf1:	48 98                	cltq   
    cdf3:	48 c7 84 c5 50 ef ff 	movq   $0x0,-0x10b0(%rbp,%rax,8)
    cdfa:	ff 00 00 00 00 
    cdff:	83 85 f8 ea ff ff 01 	addl   $0x1,-0x1508(%rbp)
    ce06:	83 bd f8 ea ff ff 08 	cmpl   $0x8,-0x1508(%rbp)
    ce0d:	7e dc                	jle    cdeb <func_2+0x54d>
    ce0f:	c7 85 f8 ea ff ff 00 	movl   $0x0,-0x1508(%rbp)
    ce16:	00 00 00 
    ce19:	eb 19                	jmp    ce34 <func_2+0x596>
    ce1b:	8b 85 f8 ea ff ff    	mov    -0x1508(%rbp),%eax
    ce21:	48 98                	cltq   
    ce23:	66 c7 84 45 fe ed ff 	movw   $0xffff,-0x1202(%rbp,%rax,2)
    ce2a:	ff ff ff 
    ce2d:	83 85 f8 ea ff ff 01 	addl   $0x1,-0x1508(%rbp)
    ce34:	83 bd f8 ea ff ff 04 	cmpl   $0x4,-0x1508(%rbp)
    ce3b:	7e de                	jle    ce1b <func_2+0x57d>
    ce3d:	c7 85 f8 ea ff ff 00 	movl   $0x0,-0x1508(%rbp)
    ce44:	00 00 00 
    ce47:	eb 7b                	jmp    cec4 <func_2+0x626>
    ce49:	c7 85 fc ea ff ff 00 	movl   $0x0,-0x1504(%rbp)
    ce50:	00 00 00 
    ce53:	eb 5f                	jmp    ceb4 <func_2+0x616>
    ce55:	c7 85 00 eb ff ff 00 	movl   $0x0,-0x1500(%rbp)
    ce5c:	00 00 00 
    ce5f:	eb 43                	jmp    cea4 <func_2+0x606>
    ce61:	8b 85 00 eb ff ff    	mov    -0x1500(%rbp),%eax
    ce67:	48 63 c8             	movslq %eax,%rcx
    ce6a:	8b 85 f8 ea ff ff    	mov    -0x1508(%rbp),%eax
    ce70:	48 63 d0             	movslq %eax,%rdx
    ce73:	8b 85 fc ea ff ff    	mov    -0x1504(%rbp),%eax
    ce79:	48 98                	cltq   
    ce7b:	48 01 c2             	add    %rax,%rdx
    ce7e:	48 89 d0             	mov    %rdx,%rax
    ce81:	48 c1 e0 02          	shl    $0x2,%rax
    ce85:	48 01 d0             	add    %rdx,%rax
    ce88:	48 01 c0             	add    %rax,%rax
    ce8b:	48 01 c8             	add    %rcx,%rax
    ce8e:	48 8d 15 53 95 01 00 	lea    0x19553(%rip),%rdx        # 263e8 <g_1404>
    ce95:	48 89 94 c5 a0 ef ff 	mov    %rdx,-0x1060(%rbp,%rax,8)
    ce9c:	ff 
    ce9d:	83 85 00 eb ff ff 01 	addl   $0x1,-0x1500(%rbp)
    cea4:	83 bd 00 eb ff ff 09 	cmpl   $0x9,-0x1500(%rbp)
    ceab:	7e b4                	jle    ce61 <func_2+0x5c3>
    cead:	83 85 fc ea ff ff 01 	addl   $0x1,-0x1504(%rbp)
    ceb4:	83 bd fc ea ff ff 00 	cmpl   $0x0,-0x1504(%rbp)
    cebb:	7e 98                	jle    ce55 <func_2+0x5b7>
    cebd:	83 85 f8 ea ff ff 01 	addl   $0x1,-0x1508(%rbp)
    cec4:	83 bd f8 ea ff ff 00 	cmpl   $0x0,-0x1508(%rbp)
    cecb:	0f 8e 78 ff ff ff    	jle    ce49 <func_2+0x5ab>
    ced1:	48 8b 85 b8 ea ff ff 	mov    -0x1548(%rbp),%rax
    ced8:	48 85 c0             	test   %rax,%rax
    cedb:	0f 84 66 20 00 00    	je     ef47 <func_2+0x26a9>
    cee1:	48 8d 05 a8 ba 01 00 	lea    0x1baa8(%rip),%rax        # 28990 <g_261>
    cee8:	48 89 85 e0 eb ff ff 	mov    %rax,-0x1420(%rbp)
    ceef:	48 8d 85 e0 eb ff ff 	lea    -0x1420(%rbp),%rax
    cef6:	48 89 85 e8 eb ff ff 	mov    %rax,-0x1418(%rbp)
    cefd:	c7 85 ec ea ff ff d2 	movl   $0x58a916d2,-0x1514(%rbp)
    cf04:	16 a9 58 
    cf07:	48 c7 85 20 ed ff ff 	movq   $0xfffffffffffffffb,-0x12e0(%rbp)
    cf0e:	fb ff ff ff 
    cf12:	48 8d 05 87 71 01 00 	lea    0x17187(%rip),%rax        # 240a0 <g_124>
    cf19:	48 89 85 28 ed ff ff 	mov    %rax,-0x12d8(%rbp)
    cf20:	48 8d 05 39 95 01 00 	lea    0x19539(%rip),%rax        # 26460 <g_2151>
    cf27:	48 89 85 40 f0 ff ff 	mov    %rax,-0xfc0(%rbp)
    cf2e:	48 8d 05 2b 95 01 00 	lea    0x1952b(%rip),%rax        # 26460 <g_2151>
    cf35:	48 89 85 48 f0 ff ff 	mov    %rax,-0xfb8(%rbp)
    cf3c:	48 8d 05 1d 95 01 00 	lea    0x1951d(%rip),%rax        # 26460 <g_2151>
    cf43:	48 89 85 50 f0 ff ff 	mov    %rax,-0xfb0(%rbp)
    cf4a:	48 8d 05 0f 95 01 00 	lea    0x1950f(%rip),%rax        # 26460 <g_2151>
    cf51:	48 89 85 58 f0 ff ff 	mov    %rax,-0xfa8(%rbp)
    cf58:	48 8d 05 01 95 01 00 	lea    0x19501(%rip),%rax        # 26460 <g_2151>
    cf5f:	48 89 85 60 f0 ff ff 	mov    %rax,-0xfa0(%rbp)
    cf66:	48 8d 05 f3 94 01 00 	lea    0x194f3(%rip),%rax        # 26460 <g_2151>
    cf6d:	48 89 85 68 f0 ff ff 	mov    %rax,-0xf98(%rbp)
    cf74:	48 8d 05 e5 94 01 00 	lea    0x194e5(%rip),%rax        # 26460 <g_2151>
    cf7b:	48 89 85 70 f0 ff ff 	mov    %rax,-0xf90(%rbp)
    cf82:	48 8d 05 d7 94 01 00 	lea    0x194d7(%rip),%rax        # 26460 <g_2151>
    cf89:	48 89 85 78 f0 ff ff 	mov    %rax,-0xf88(%rbp)
    cf90:	c7 85 5c eb ff ff 5a 	movl   $0x6b70a5a,-0x14a4(%rbp)
    cf97:	0a b7 06 
    cf9a:	c7 85 a0 ee ff ff 05 	movl   $0x5,-0x1160(%rbp)
    cfa1:	00 00 00 
    cfa4:	c7 85 a4 ee ff ff 05 	movl   $0x5,-0x115c(%rbp)
    cfab:	00 00 00 
    cfae:	c7 85 a8 ee ff ff 05 	movl   $0x5,-0x1158(%rbp)
    cfb5:	00 00 00 
    cfb8:	c7 85 ac ee ff ff 05 	movl   $0x5,-0x1154(%rbp)
    cfbf:	00 00 00 
    cfc2:	c7 85 b0 ee ff ff 05 	movl   $0x5,-0x1150(%rbp)
    cfc9:	00 00 00 
    cfcc:	c6 85 cc ea ff ff 01 	movb   $0x1,-0x1534(%rbp)
    cfd3:	48 8d 05 f6 71 01 00 	lea    0x171f6(%rip),%rax        # 241d0 <g_377>
    cfda:	48 89 85 f0 eb ff ff 	mov    %rax,-0x1410(%rbp)
    cfe1:	c7 85 60 eb ff ff 3b 	movl   $0xa3689e3b,-0x14a0(%rbp)
    cfe8:	9e 68 a3 
    cfeb:	48 b8 80 e5 80 f9 67 	movabs $0x1ff9867f980e580,%rax
    cff2:	98 ff 01 
    cff5:	48 89 85 f0 ef ff ff 	mov    %rax,-0x1010(%rbp)
    cffc:	66 c7 85 f8 ef ff ff 	movw   $0xff01,-0x1008(%rbp)
    d003:	01 ff 
    d005:	48 b8 67 ff 98 98 ff 	movabs $0x1c667ff9898ff67,%rax
    d00c:	67 c6 01 
    d00f:	48 89 85 fa ef ff ff 	mov    %rax,-0x1006(%rbp)
    d016:	66 c7 85 02 f0 ff ff 	movw   $0xd77a,-0xffe(%rbp)
    d01d:	7a d7 
    d01f:	48 b8 e5 d7 80 ff 01 	movabs $0xd780ff01ff80d7e5,%rax
    d026:	ff 80 d7 
    d029:	48 89 85 04 f0 ff ff 	mov    %rax,-0xffc(%rbp)
    d030:	66 c7 85 0c f0 ff ff 	movw   $0x67e5,-0xff4(%rbp)
    d037:	e5 67 
    d039:	48 b8 e5 98 3a c6 ff 	movabs $0xff6767ffc63a98e5,%rax
    d040:	67 67 ff 
    d043:	48 89 85 0e f0 ff ff 	mov    %rax,-0xff2(%rbp)
    d04a:	66 c7 85 16 f0 ff ff 	movw   $0x3ac6,-0xfea(%rbp)
    d051:	c6 3a 
    d053:	48 8d 85 40 f0 ff ff 	lea    -0xfc0(%rbp),%rax
    d05a:	48 83 c0 08          	add    $0x8,%rax
    d05e:	48 89 85 60 f1 ff ff 	mov    %rax,-0xea0(%rbp)
    d065:	48 8d 85 40 f0 ff ff 	lea    -0xfc0(%rbp),%rax
    d06c:	48 83 c0 08          	add    $0x8,%rax
    d070:	48 89 85 68 f1 ff ff 	mov    %rax,-0xe98(%rbp)
    d077:	48 8d 85 40 f0 ff ff 	lea    -0xfc0(%rbp),%rax
    d07e:	48 83 c0 08          	add    $0x8,%rax
    d082:	48 89 85 70 f1 ff ff 	mov    %rax,-0xe90(%rbp)
    d089:	48 8d 85 40 f0 ff ff 	lea    -0xfc0(%rbp),%rax
    d090:	48 83 c0 08          	add    $0x8,%rax
    d094:	48 89 85 78 f1 ff ff 	mov    %rax,-0xe88(%rbp)
    d09b:	48 8d 85 40 f0 ff ff 	lea    -0xfc0(%rbp),%rax
    d0a2:	48 83 c0 08          	add    $0x8,%rax
    d0a6:	48 89 85 80 f1 ff ff 	mov    %rax,-0xe80(%rbp)
    d0ad:	48 8d 85 40 f0 ff ff 	lea    -0xfc0(%rbp),%rax
    d0b4:	48 83 c0 08          	add    $0x8,%rax
    d0b8:	48 89 85 88 f1 ff ff 	mov    %rax,-0xe78(%rbp)
    d0bf:	48 8d 85 40 f0 ff ff 	lea    -0xfc0(%rbp),%rax
    d0c6:	48 83 c0 08          	add    $0x8,%rax
    d0ca:	48 89 85 90 f1 ff ff 	mov    %rax,-0xe70(%rbp)
    d0d1:	48 8d 85 40 f0 ff ff 	lea    -0xfc0(%rbp),%rax
    d0d8:	48 83 c0 18          	add    $0x18,%rax
    d0dc:	48 89 85 98 f1 ff ff 	mov    %rax,-0xe68(%rbp)
    d0e3:	48 8d 85 40 f0 ff ff 	lea    -0xfc0(%rbp),%rax
    d0ea:	48 83 c0 18          	add    $0x18,%rax
    d0ee:	48 89 85 a0 f1 ff ff 	mov    %rax,-0xe60(%rbp)
    d0f5:	48 8d 85 40 f0 ff ff 	lea    -0xfc0(%rbp),%rax
    d0fc:	48 83 c0 18          	add    $0x18,%rax
    d100:	48 89 85 a8 f1 ff ff 	mov    %rax,-0xe58(%rbp)
    d107:	48 8d 85 40 f0 ff ff 	lea    -0xfc0(%rbp),%rax
    d10e:	48 83 c0 18          	add    $0x18,%rax
    d112:	48 89 85 b0 f1 ff ff 	mov    %rax,-0xe50(%rbp)
    d119:	48 8d 85 40 f0 ff ff 	lea    -0xfc0(%rbp),%rax
    d120:	48 83 c0 18          	add    $0x18,%rax
    d124:	48 89 85 b8 f1 ff ff 	mov    %rax,-0xe48(%rbp)
    d12b:	48 8d 85 40 f0 ff ff 	lea    -0xfc0(%rbp),%rax
    d132:	48 83 c0 18          	add    $0x18,%rax
    d136:	48 89 85 c0 f1 ff ff 	mov    %rax,-0xe40(%rbp)
    d13d:	48 8d 85 40 f0 ff ff 	lea    -0xfc0(%rbp),%rax
    d144:	48 83 c0 18          	add    $0x18,%rax
    d148:	48 89 85 c8 f1 ff ff 	mov    %rax,-0xe38(%rbp)
    d14f:	48 8d 85 40 f0 ff ff 	lea    -0xfc0(%rbp),%rax
    d156:	48 83 c0 08          	add    $0x8,%rax
    d15a:	48 89 85 d0 f1 ff ff 	mov    %rax,-0xe30(%rbp)
    d161:	48 8d 85 40 f0 ff ff 	lea    -0xfc0(%rbp),%rax
    d168:	48 83 c0 08          	add    $0x8,%rax
    d16c:	48 89 85 d8 f1 ff ff 	mov    %rax,-0xe28(%rbp)
    d173:	48 8d 85 40 f0 ff ff 	lea    -0xfc0(%rbp),%rax
    d17a:	48 83 c0 08          	add    $0x8,%rax
    d17e:	48 89 85 e0 f1 ff ff 	mov    %rax,-0xe20(%rbp)
    d185:	48 8d 85 40 f0 ff ff 	lea    -0xfc0(%rbp),%rax
    d18c:	48 83 c0 08          	add    $0x8,%rax
    d190:	48 89 85 e8 f1 ff ff 	mov    %rax,-0xe18(%rbp)
    d197:	48 8d 85 40 f0 ff ff 	lea    -0xfc0(%rbp),%rax
    d19e:	48 83 c0 08          	add    $0x8,%rax
    d1a2:	48 89 85 f0 f1 ff ff 	mov    %rax,-0xe10(%rbp)
    d1a9:	48 8d 85 40 f0 ff ff 	lea    -0xfc0(%rbp),%rax
    d1b0:	48 83 c0 08          	add    $0x8,%rax
    d1b4:	48 89 85 f8 f1 ff ff 	mov    %rax,-0xe08(%rbp)
    d1bb:	48 8d 85 40 f0 ff ff 	lea    -0xfc0(%rbp),%rax
    d1c2:	48 83 c0 08          	add    $0x8,%rax
    d1c6:	48 89 85 00 f2 ff ff 	mov    %rax,-0xe00(%rbp)
    d1cd:	48 8d 85 40 f0 ff ff 	lea    -0xfc0(%rbp),%rax
    d1d4:	48 83 c0 18          	add    $0x18,%rax
    d1d8:	48 89 85 08 f2 ff ff 	mov    %rax,-0xdf8(%rbp)
    d1df:	48 8d 85 40 f0 ff ff 	lea    -0xfc0(%rbp),%rax
    d1e6:	48 83 c0 18          	add    $0x18,%rax
    d1ea:	48 89 85 10 f2 ff ff 	mov    %rax,-0xdf0(%rbp)
    d1f1:	48 8d 85 40 f0 ff ff 	lea    -0xfc0(%rbp),%rax
    d1f8:	48 83 c0 18          	add    $0x18,%rax
    d1fc:	48 89 85 18 f2 ff ff 	mov    %rax,-0xde8(%rbp)
    d203:	48 8d 85 40 f0 ff ff 	lea    -0xfc0(%rbp),%rax
    d20a:	48 83 c0 18          	add    $0x18,%rax
    d20e:	48 89 85 20 f2 ff ff 	mov    %rax,-0xde0(%rbp)
    d215:	48 8d 85 40 f0 ff ff 	lea    -0xfc0(%rbp),%rax
    d21c:	48 83 c0 18          	add    $0x18,%rax
    d220:	48 89 85 28 f2 ff ff 	mov    %rax,-0xdd8(%rbp)
    d227:	48 8d 85 40 f0 ff ff 	lea    -0xfc0(%rbp),%rax
    d22e:	48 83 c0 18          	add    $0x18,%rax
    d232:	48 89 85 30 f2 ff ff 	mov    %rax,-0xdd0(%rbp)
    d239:	48 8d 85 40 f0 ff ff 	lea    -0xfc0(%rbp),%rax
    d240:	48 83 c0 18          	add    $0x18,%rax
    d244:	48 89 85 38 f2 ff ff 	mov    %rax,-0xdc8(%rbp)
    d24b:	48 c7 85 20 ec ff ff 	movq   $0x0,-0x13e0(%rbp)
    d252:	00 00 00 00 
    d256:	c6 05 8f 6f 01 00 07 	movb   $0x7,0x16f8f(%rip)        # 241ec <g_539>
    d25d:	e9 d1 1c 00 00       	jmpq   ef33 <func_2+0x2695>
    d262:	66 c7 85 d2 ea ff ff 	movw   $0xffff,-0x152e(%rbp)
    d269:	ff ff 
    d26b:	c7 85 f0 ea ff ff 88 	movl   $0xd23b0c88,-0x1510(%rbp)
    d272:	0c 3b d2 
    d275:	48 8d 05 94 9e 01 00 	lea    0x19e94(%rip),%rax        # 27110 <g_2988>
    d27c:	48 89 85 80 f6 ff ff 	mov    %rax,-0x980(%rbp)
    d283:	48 c7 85 88 f6 ff ff 	movq   $0x0,-0x978(%rbp)
    d28a:	00 00 00 00 
    d28e:	48 8d 85 c0 eb ff ff 	lea    -0x1440(%rbp),%rax
    d295:	48 89 85 90 f6 ff ff 	mov    %rax,-0x970(%rbp)
    d29c:	48 8d 85 c0 eb ff ff 	lea    -0x1440(%rbp),%rax
    d2a3:	48 89 85 98 f6 ff ff 	mov    %rax,-0x968(%rbp)
    d2aa:	48 8d 85 c0 eb ff ff 	lea    -0x1440(%rbp),%rax
    d2b1:	48 89 85 a0 f6 ff ff 	mov    %rax,-0x960(%rbp)
    d2b8:	48 c7 85 a8 f6 ff ff 	movq   $0x0,-0x958(%rbp)
    d2bf:	00 00 00 00 
    d2c3:	48 8d 05 46 9e 01 00 	lea    0x19e46(%rip),%rax        # 27110 <g_2988>
    d2ca:	48 89 85 b0 f6 ff ff 	mov    %rax,-0x950(%rbp)
    d2d1:	48 c7 85 b8 f6 ff ff 	movq   $0x0,-0x948(%rbp)
    d2d8:	00 00 00 00 
    d2dc:	48 8d 05 2d 9e 01 00 	lea    0x19e2d(%rip),%rax        # 27110 <g_2988>
    d2e3:	48 89 85 c0 f6 ff ff 	mov    %rax,-0x940(%rbp)
    d2ea:	48 8d 85 c0 eb ff ff 	lea    -0x1440(%rbp),%rax
    d2f1:	48 89 85 c8 f6 ff ff 	mov    %rax,-0x938(%rbp)
    d2f8:	48 8d 05 11 9e 01 00 	lea    0x19e11(%rip),%rax        # 27110 <g_2988>
    d2ff:	48 89 85 d0 f6 ff ff 	mov    %rax,-0x930(%rbp)
    d306:	48 8d 85 c0 eb ff ff 	lea    -0x1440(%rbp),%rax
    d30d:	48 89 85 d8 f6 ff ff 	mov    %rax,-0x928(%rbp)
    d314:	48 8d 05 f5 9d 01 00 	lea    0x19df5(%rip),%rax        # 27110 <g_2988>
    d31b:	48 89 85 e0 f6 ff ff 	mov    %rax,-0x920(%rbp)
    d322:	48 c7 85 e8 f6 ff ff 	movq   $0x0,-0x918(%rbp)
    d329:	00 00 00 00 
    d32d:	48 8d 05 dc 9d 01 00 	lea    0x19ddc(%rip),%rax        # 27110 <g_2988>
    d334:	48 89 85 f0 f6 ff ff 	mov    %rax,-0x910(%rbp)
    d33b:	48 8d 85 c0 eb ff ff 	lea    -0x1440(%rbp),%rax
    d342:	48 89 85 f8 f6 ff ff 	mov    %rax,-0x908(%rbp)
    d349:	48 8d 85 c0 eb ff ff 	lea    -0x1440(%rbp),%rax
    d350:	48 89 85 00 f7 ff ff 	mov    %rax,-0x900(%rbp)
    d357:	48 8d 85 c0 eb ff ff 	lea    -0x1440(%rbp),%rax
    d35e:	48 89 85 08 f7 ff ff 	mov    %rax,-0x8f8(%rbp)
    d365:	48 8d 85 c0 eb ff ff 	lea    -0x1440(%rbp),%rax
    d36c:	48 89 85 10 f7 ff ff 	mov    %rax,-0x8f0(%rbp)
    d373:	48 c7 85 18 f7 ff ff 	movq   $0x0,-0x8e8(%rbp)
    d37a:	00 00 00 00 
    d37e:	48 8d 05 8b 9d 01 00 	lea    0x19d8b(%rip),%rax        # 27110 <g_2988>
    d385:	48 89 85 20 f7 ff ff 	mov    %rax,-0x8e0(%rbp)
    d38c:	48 c7 85 28 f7 ff ff 	movq   $0x0,-0x8d8(%rbp)
    d393:	00 00 00 00 
    d397:	48 8d 85 c0 eb ff ff 	lea    -0x1440(%rbp),%rax
    d39e:	48 89 85 30 f7 ff ff 	mov    %rax,-0x8d0(%rbp)
    d3a5:	48 8d 85 c0 eb ff ff 	lea    -0x1440(%rbp),%rax
    d3ac:	48 89 85 38 f7 ff ff 	mov    %rax,-0x8c8(%rbp)
    d3b3:	48 8d 05 56 9d 01 00 	lea    0x19d56(%rip),%rax        # 27110 <g_2988>
    d3ba:	48 89 85 40 f7 ff ff 	mov    %rax,-0x8c0(%rbp)
    d3c1:	48 c7 85 48 f7 ff ff 	movq   $0x0,-0x8b8(%rbp)
    d3c8:	00 00 00 00 
    d3cc:	48 8d 85 c0 eb ff ff 	lea    -0x1440(%rbp),%rax
    d3d3:	48 89 85 50 f7 ff ff 	mov    %rax,-0x8b0(%rbp)
    d3da:	48 8d 85 c0 eb ff ff 	lea    -0x1440(%rbp),%rax
    d3e1:	48 89 85 58 f7 ff ff 	mov    %rax,-0x8a8(%rbp)
    d3e8:	48 8d 85 c0 eb ff ff 	lea    -0x1440(%rbp),%rax
    d3ef:	48 89 85 60 f7 ff ff 	mov    %rax,-0x8a0(%rbp)
    d3f6:	48 c7 85 68 f7 ff ff 	movq   $0x0,-0x898(%rbp)
    d3fd:	00 00 00 00 
    d401:	48 8d 05 08 9d 01 00 	lea    0x19d08(%rip),%rax        # 27110 <g_2988>
    d408:	48 89 85 70 f7 ff ff 	mov    %rax,-0x890(%rbp)
    d40f:	48 c7 85 78 f7 ff ff 	movq   $0x0,-0x888(%rbp)
    d416:	00 00 00 00 
    d41a:	48 8d 05 ef 9c 01 00 	lea    0x19cef(%rip),%rax        # 27110 <g_2988>
    d421:	48 89 85 80 f7 ff ff 	mov    %rax,-0x880(%rbp)
    d428:	48 8d 85 c0 eb ff ff 	lea    -0x1440(%rbp),%rax
    d42f:	48 89 85 88 f7 ff ff 	mov    %rax,-0x878(%rbp)
    d436:	48 8d 05 d3 9c 01 00 	lea    0x19cd3(%rip),%rax        # 27110 <g_2988>
    d43d:	48 89 85 90 f7 ff ff 	mov    %rax,-0x870(%rbp)
    d444:	48 8d 85 c0 eb ff ff 	lea    -0x1440(%rbp),%rax
    d44b:	48 89 85 98 f7 ff ff 	mov    %rax,-0x868(%rbp)
    d452:	48 8d 05 b7 9c 01 00 	lea    0x19cb7(%rip),%rax        # 27110 <g_2988>
    d459:	48 89 85 a0 f7 ff ff 	mov    %rax,-0x860(%rbp)
    d460:	48 c7 85 a8 f7 ff ff 	movq   $0x0,-0x858(%rbp)
    d467:	00 00 00 00 
    d46b:	48 8d 05 9e 9c 01 00 	lea    0x19c9e(%rip),%rax        # 27110 <g_2988>
    d472:	48 89 85 b0 f7 ff ff 	mov    %rax,-0x850(%rbp)
    d479:	48 8d 85 c0 eb ff ff 	lea    -0x1440(%rbp),%rax
    d480:	48 89 85 b8 f7 ff ff 	mov    %rax,-0x848(%rbp)
    d487:	48 8d 85 c0 eb ff ff 	lea    -0x1440(%rbp),%rax
    d48e:	48 89 85 c0 f7 ff ff 	mov    %rax,-0x840(%rbp)
    d495:	48 8d 85 c0 eb ff ff 	lea    -0x1440(%rbp),%rax
    d49c:	48 89 85 c8 f7 ff ff 	mov    %rax,-0x838(%rbp)
    d4a3:	48 8d 85 c0 eb ff ff 	lea    -0x1440(%rbp),%rax
    d4aa:	48 89 85 d0 f7 ff ff 	mov    %rax,-0x830(%rbp)
    d4b1:	48 c7 85 d8 f7 ff ff 	movq   $0x0,-0x828(%rbp)
    d4b8:	00 00 00 00 
    d4bc:	48 8d 05 4d 9c 01 00 	lea    0x19c4d(%rip),%rax        # 27110 <g_2988>
    d4c3:	48 89 85 e0 f7 ff ff 	mov    %rax,-0x820(%rbp)
    d4ca:	48 c7 85 e8 f7 ff ff 	movq   $0x0,-0x818(%rbp)
    d4d1:	00 00 00 00 
    d4d5:	48 8d 85 c0 eb ff ff 	lea    -0x1440(%rbp),%rax
    d4dc:	48 89 85 f0 f7 ff ff 	mov    %rax,-0x810(%rbp)
    d4e3:	48 8d 85 c0 eb ff ff 	lea    -0x1440(%rbp),%rax
    d4ea:	48 89 85 f8 f7 ff ff 	mov    %rax,-0x808(%rbp)
    d4f1:	48 8d 05 18 9c 01 00 	lea    0x19c18(%rip),%rax        # 27110 <g_2988>
    d4f8:	48 89 85 00 f8 ff ff 	mov    %rax,-0x800(%rbp)
    d4ff:	48 c7 85 08 f8 ff ff 	movq   $0x0,-0x7f8(%rbp)
    d506:	00 00 00 00 
    d50a:	48 8d 85 c0 eb ff ff 	lea    -0x1440(%rbp),%rax
    d511:	48 89 85 10 f8 ff ff 	mov    %rax,-0x7f0(%rbp)
    d518:	48 8d 85 c0 eb ff ff 	lea    -0x1440(%rbp),%rax
    d51f:	48 89 85 18 f8 ff ff 	mov    %rax,-0x7e8(%rbp)
    d526:	48 8d 85 c0 eb ff ff 	lea    -0x1440(%rbp),%rax
    d52d:	48 89 85 20 f8 ff ff 	mov    %rax,-0x7e0(%rbp)
    d534:	48 c7 85 28 f8 ff ff 	movq   $0x0,-0x7d8(%rbp)
    d53b:	00 00 00 00 
    d53f:	48 8d 05 ca 9b 01 00 	lea    0x19bca(%rip),%rax        # 27110 <g_2988>
    d546:	48 89 85 30 f8 ff ff 	mov    %rax,-0x7d0(%rbp)
    d54d:	48 c7 85 38 f8 ff ff 	movq   $0x0,-0x7c8(%rbp)
    d554:	00 00 00 00 
    d558:	48 8d 05 b1 9b 01 00 	lea    0x19bb1(%rip),%rax        # 27110 <g_2988>
    d55f:	48 89 85 40 f8 ff ff 	mov    %rax,-0x7c0(%rbp)
    d566:	48 8d 85 c0 eb ff ff 	lea    -0x1440(%rbp),%rax
    d56d:	48 89 85 48 f8 ff ff 	mov    %rax,-0x7b8(%rbp)
    d574:	48 8d 05 95 9b 01 00 	lea    0x19b95(%rip),%rax        # 27110 <g_2988>
    d57b:	48 89 85 50 f8 ff ff 	mov    %rax,-0x7b0(%rbp)
    d582:	48 8d 85 c0 eb ff ff 	lea    -0x1440(%rbp),%rax
    d589:	48 89 85 58 f8 ff ff 	mov    %rax,-0x7a8(%rbp)
    d590:	48 8d 05 79 9b 01 00 	lea    0x19b79(%rip),%rax        # 27110 <g_2988>
    d597:	48 89 85 60 f8 ff ff 	mov    %rax,-0x7a0(%rbp)
    d59e:	48 c7 85 68 f8 ff ff 	movq   $0x0,-0x798(%rbp)
    d5a5:	00 00 00 00 
    d5a9:	48 8d 05 60 9b 01 00 	lea    0x19b60(%rip),%rax        # 27110 <g_2988>
    d5b0:	48 89 85 70 f8 ff ff 	mov    %rax,-0x790(%rbp)
    d5b7:	48 8d 85 c0 eb ff ff 	lea    -0x1440(%rbp),%rax
    d5be:	48 89 85 78 f8 ff ff 	mov    %rax,-0x788(%rbp)
    d5c5:	48 8d 85 c0 eb ff ff 	lea    -0x1440(%rbp),%rax
    d5cc:	48 89 85 80 f8 ff ff 	mov    %rax,-0x780(%rbp)
    d5d3:	48 8d 85 c0 eb ff ff 	lea    -0x1440(%rbp),%rax
    d5da:	48 89 85 88 f8 ff ff 	mov    %rax,-0x778(%rbp)
    d5e1:	48 8d 85 c0 eb ff ff 	lea    -0x1440(%rbp),%rax
    d5e8:	48 89 85 90 f8 ff ff 	mov    %rax,-0x770(%rbp)
    d5ef:	48 c7 85 98 f8 ff ff 	movq   $0x0,-0x768(%rbp)
    d5f6:	00 00 00 00 
    d5fa:	48 8d 05 0f 9b 01 00 	lea    0x19b0f(%rip),%rax        # 27110 <g_2988>
    d601:	48 89 85 a0 f8 ff ff 	mov    %rax,-0x760(%rbp)
    d608:	48 c7 85 a8 f8 ff ff 	movq   $0x0,-0x758(%rbp)
    d60f:	00 00 00 00 
    d613:	48 8d 85 c0 eb ff ff 	lea    -0x1440(%rbp),%rax
    d61a:	48 89 85 b0 f8 ff ff 	mov    %rax,-0x750(%rbp)
    d621:	48 8d 85 c0 eb ff ff 	lea    -0x1440(%rbp),%rax
    d628:	48 89 85 b8 f8 ff ff 	mov    %rax,-0x748(%rbp)
    d62f:	48 8d 05 02 6c 01 00 	lea    0x16c02(%rip),%rax        # 24238 <g_2004>
    d636:	48 89 85 30 ed ff ff 	mov    %rax,-0x12d0(%rbp)
    d63d:	48 8d 05 94 6b 01 00 	lea    0x16b94(%rip),%rax        # 241d8 <g_400>
    d644:	48 89 85 38 ed ff ff 	mov    %rax,-0x12c8(%rbp)
    d64b:	c7 85 64 eb ff ff 09 	movl   $0x9,-0x149c(%rbp)
    d652:	00 00 00 
    d655:	c7 85 68 eb ff ff ca 	movl   $0xcc9033ca,-0x1498(%rbp)
    d65c:	33 90 cc 
    d65f:	c7 85 6c eb ff ff 01 	movl   $0x1,-0x1494(%rbp)
    d666:	00 00 00 
    d669:	c7 85 70 eb ff ff 02 	movl   $0x2,-0x1490(%rbp)
    d670:	00 00 00 
    d673:	c7 85 74 eb ff ff ff 	movl   $0xffffffff,-0x148c(%rbp)
    d67a:	ff ff ff 
    d67d:	c7 85 f4 ea ff ff 4a 	movl   $0xece1984a,-0x150c(%rbp)
    d684:	98 e1 ec 
    d687:	c7 85 78 eb ff ff 45 	movl   $0xf284ec45,-0x1488(%rbp)
    d68e:	ec 84 f2 
    d691:	c7 85 7c eb ff ff fa 	movl   $0xfffffffa,-0x1484(%rbp)
    d698:	ff ff ff 
    d69b:	c6 85 d0 ea ff ff 0d 	movb   $0xd,-0x1530(%rbp)
    d6a2:	48 c7 85 40 ed ff ff 	movq   $0x0,-0x12c0(%rbp)
    d6a9:	00 00 00 00 
    d6ad:	c7 85 04 eb ff ff 00 	movl   $0x0,-0x14fc(%rbp)
    d6b4:	00 00 00 
    d6b7:	eb 1a                	jmp    d6d3 <func_2+0xe35>
    d6b9:	8b 85 04 eb ff ff    	mov    -0x14fc(%rbp),%eax
    d6bf:	48 98                	cltq   
    d6c1:	c7 84 85 80 ee ff ff 	movl   $0x0,-0x1180(%rbp,%rax,4)
    d6c8:	00 00 00 00 
    d6cc:	83 85 04 eb ff ff 01 	addl   $0x1,-0x14fc(%rbp)
    d6d3:	83 bd 04 eb ff ff 01 	cmpl   $0x1,-0x14fc(%rbp)
    d6da:	7e dd                	jle    d6b9 <func_2+0xe1b>
    d6dc:	48 8b 85 b8 ea ff ff 	mov    -0x1548(%rbp),%rax
    d6e3:	48 85 c0             	test   %rax,%rax
    d6e6:	0f 85 ba 2c 00 00    	jne    103a6 <func_2+0x3b08>
    d6ec:	66 c7 05 5f 6b 01 00 	movw   $0x1,0x16b5f(%rip)        # 24254 <g_2333>
    d6f3:	01 00 
    d6f5:	e9 cd 08 00 00       	jmpq   dfc7 <func_2+0x1729>
    d6fa:	c7 85 b0 eb ff ff 01 	movl   $0x1,-0x1450(%rbp)
    d701:	00 00 00 
    d704:	48 8d 85 50 fa ff ff 	lea    -0x5b0(%rbp),%rax
    d70b:	48 8d 15 8e 6b 01 00 	lea    0x16b8e(%rip),%rdx        # 242a0 <g_3583+0x10>
    d712:	b9 40 00 00 00       	mov    $0x40,%ecx
    d717:	48 89 c7             	mov    %rax,%rdi
    d71a:	48 89 d6             	mov    %rdx,%rsi
    d71d:	f3 48 a5             	rep movsq %ds:(%rsi),%es:(%rdi)
    d720:	c7 85 b4 eb ff ff 00 	movl   $0x0,-0x144c(%rbp)
    d727:	00 00 00 
    d72a:	66 c7 85 d6 ea ff ff 	movw   $0x5,-0x152a(%rbp)
    d731:	05 00 
    d733:	48 c7 05 0a 6b 01 00 	movq   $0x0,0x16b0a(%rip)        # 24248 <g_2253>
    d73a:	00 00 00 00 
    d73e:	e9 75 01 00 00       	jmpq   d8b8 <func_2+0x101a>
    d743:	48 8d 85 e8 eb ff ff 	lea    -0x1418(%rbp),%rax
    d74a:	48 89 85 e8 ed ff ff 	mov    %rax,-0x1218(%rbp)
    d751:	48 8d 05 38 a0 01 00 	lea    0x1a038(%rip),%rax        # 27790 <g_3085+0x130>
    d758:	48 89 85 f0 ed ff ff 	mov    %rax,-0x1210(%rbp)
    d75f:	c7 85 b8 eb ff ff 8a 	movl   $0xf9d2a8a,-0x1448(%rbp)
    d766:	2a 9d 0f 
    d769:	c7 85 bc eb ff ff fd 	movl   $0xfffffffd,-0x1444(%rbp)
    d770:	ff ff ff 
    d773:	48 8b 85 20 ec ff ff 	mov    -0x13e0(%rbp),%rax
    d77a:	41 89 c5             	mov    %eax,%r13d
    d77d:	48 8b 95 e8 eb ff ff 	mov    -0x1418(%rbp),%rdx
    d784:	48 8b 85 e8 ed ff ff 	mov    -0x1218(%rbp),%rax
    d78b:	48 89 10             	mov    %rdx,(%rax)
    d78e:	48 8b 85 e8 ed ff ff 	mov    -0x1218(%rbp),%rax
    d795:	48 8b 08             	mov    (%rax),%rcx
    d798:	48 8b 15 f1 9f 01 00 	mov    0x19ff1(%rip),%rdx        # 27790 <g_3085+0x130>
    d79f:	48 8b 85 f0 ed ff ff 	mov    -0x1210(%rbp),%rax
    d7a6:	48 89 10             	mov    %rdx,(%rax)
    d7a9:	48 8b 85 f0 ed ff ff 	mov    -0x1210(%rbp),%rax
    d7b0:	48 8b 00             	mov    (%rax),%rax
    d7b3:	48 39 c1             	cmp    %rax,%rcx
    d7b6:	0f 85 c5 00 00 00    	jne    d881 <func_2+0xfe3>
    d7bc:	8b 85 b8 eb ff ff    	mov    -0x1448(%rbp),%eax
    d7c2:	0f be d8             	movsbl %al,%ebx
    d7c5:	48 8b 85 b8 ea ff ff 	mov    -0x1548(%rbp),%rax
    d7cc:	41 89 c6             	mov    %eax,%r14d
    d7cf:	8b 85 ec ea ff ff    	mov    -0x1514(%rbp),%eax
    d7d5:	4c 63 e0             	movslq %eax,%r12
    d7d8:	48 8b 85 b8 ea ff ff 	mov    -0x1548(%rbp),%rax
    d7df:	49 89 c7             	mov    %rax,%r15
    d7e2:	48 8b 85 b8 ea ff ff 	mov    -0x1548(%rbp),%rax
    d7e9:	0f b7 c0             	movzwl %ax,%eax
    d7ec:	48 8b 95 b8 ea ff ff 	mov    -0x1548(%rbp),%rdx
    d7f3:	0f b7 d2             	movzwl %dx,%edx
    d7f6:	83 e2 01             	and    $0x1,%edx
    d7f9:	89 c6                	mov    %eax,%esi
    d7fb:	89 d7                	mov    %edx,%edi
    d7fd:	e8 3b e5 ff ff       	callq  bd3d <safe_mul_func_uint16_t_u_u>
    d802:	0f b7 c0             	movzwl %ax,%eax
    d805:	48 35 8d ed 87 53    	xor    $0x5387ed8d,%rax
    d80b:	4c 89 fe             	mov    %r15,%rsi
    d80e:	48 89 c7             	mov    %rax,%rdi
    d811:	e8 99 e8 ff ff       	callq  c0af <safe_div_func_uint64_t_u_u>
    d816:	48 85 c0             	test   %rax,%rax
    d819:	75 0c                	jne    d827 <func_2+0xf89>
    d81b:	0f b7 85 d2 ea ff ff 	movzwl -0x152e(%rbp),%eax
    d822:	66 85 c0             	test   %ax,%ax
    d825:	74 07                	je     d82e <func_2+0xf90>
    d827:	ba 01 00 00 00       	mov    $0x1,%edx
    d82c:	eb 05                	jmp    d833 <func_2+0xf95>
    d82e:	ba 00 00 00 00       	mov    $0x0,%edx
    d833:	8b 85 ec ea ff ff    	mov    -0x1514(%rbp),%eax
    d839:	39 c2                	cmp    %eax,%edx
    d83b:	0f 9d c0             	setge  %al
    d83e:	0f b6 c0             	movzbl %al,%eax
    d841:	4c 89 e6             	mov    %r12,%rsi
    d844:	48 89 c7             	mov    %rax,%rdi
    d847:	e8 5c e0 ff ff       	callq  b8a8 <safe_sub_func_int64_t_s_s>
    d84c:	48 85 c0             	test   %rax,%rax
    d84f:	75 0c                	jne    d85d <func_2+0xfbf>
    d851:	48 8b 85 b8 ea ff ff 	mov    -0x1548(%rbp),%rax
    d858:	48 85 c0             	test   %rax,%rax
    d85b:	74 07                	je     d864 <func_2+0xfc6>
    d85d:	b8 01 00 00 00       	mov    $0x1,%eax
    d862:	eb 05                	jmp    d869 <func_2+0xfcb>
    d864:	b8 00 00 00 00       	mov    $0x0,%eax
    d869:	44 89 f6             	mov    %r14d,%esi
    d86c:	89 c7                	mov    %eax,%edi
    d86e:	e8 5d e6 ff ff       	callq  bed0 <safe_sub_func_uint32_t_u_u>
    d873:	0f be c0             	movsbl %al,%eax
    d876:	89 de                	mov    %ebx,%esi
    d878:	89 c7                	mov    %eax,%edi
    d87a:	e8 93 d9 ff ff       	callq  b212 <safe_mul_func_int8_t_s_s>
    d87f:	84 c0                	test   %al,%al
    d881:	be 03 00 00 00       	mov    $0x3,%esi
    d886:	bf 52 00 00 00       	mov    $0x52,%edi
    d88b:	e8 fd e3 ff ff       	callq  bc8d <safe_rshift_func_uint8_t_u_s>
    d890:	44 89 ee             	mov    %r13d,%esi
    d893:	bf 01 00 00 00       	mov    $0x1,%edi
    d898:	e8 dd e5 ff ff       	callq  be7a <safe_rshift_func_uint16_t_u_u>
    d89d:	0f b7 c0             	movzwl %ax,%eax
    d8a0:	09 85 bc eb ff ff    	or     %eax,-0x1444(%rbp)
    d8a6:	48 8b 05 9b 69 01 00 	mov    0x1699b(%rip),%rax        # 24248 <g_2253>
    d8ad:	48 83 c0 01          	add    $0x1,%rax
    d8b1:	48 89 05 90 69 01 00 	mov    %rax,0x16990(%rip)        # 24248 <g_2253>
    d8b8:	48 8b 05 89 69 01 00 	mov    0x16989(%rip),%rax        # 24248 <g_2253>
    d8bf:	48 83 f8 04          	cmp    $0x4,%rax
    d8c3:	0f 86 7a fe ff ff    	jbe    d743 <func_2+0xea5>
    d8c9:	48 8b 05 f0 8a 01 00 	mov    0x18af0(%rip),%rax        # 263c0 <g_1058>
    d8d0:	c7 00 e0 7b fb 77    	movl   $0x77fb7be0,(%rax)
    d8d6:	48 c7 05 57 69 01 00 	movq   $0x0,0x16957(%rip)        # 24238 <g_2004>
    d8dd:	00 00 00 00 
    d8e1:	eb 2e                	jmp    d911 <func_2+0x1073>
    d8e3:	48 8d 05 1e 98 01 00 	lea    0x1981e(%rip),%rax        # 27108 <g_2989>
    d8ea:	48 89 85 e0 ed ff ff 	mov    %rax,-0x1220(%rbp)
    d8f1:	48 8b 85 e0 ed ff ff 	mov    -0x1220(%rbp),%rax
    d8f8:	48 89 85 c0 eb ff ff 	mov    %rax,-0x1440(%rbp)
    d8ff:	48 8b 05 32 69 01 00 	mov    0x16932(%rip),%rax        # 24238 <g_2004>
    d906:	48 83 c0 01          	add    $0x1,%rax
    d90a:	48 89 05 27 69 01 00 	mov    %rax,0x16927(%rip)        # 24238 <g_2004>
    d911:	48 8b 05 20 69 01 00 	mov    0x16920(%rip),%rax        # 24238 <g_2004>
    d918:	48 83 f8 04          	cmp    $0x4,%rax
    d91c:	76 c5                	jbe    d8e3 <func_2+0x1045>
    d91e:	c7 85 d8 ea ff ff 01 	movl   $0x1,-0x1528(%rbp)
    d925:	00 00 00 
    d928:	b9 00 00 00 00       	mov    $0x0,%ecx
    d92d:	48 8b 05 b4 8a 01 00 	mov    0x18ab4(%rip),%rax        # 263e8 <g_1404>
    d934:	0f b7 00             	movzwl (%rax),%eax
    d937:	89 c2                	mov    %eax,%edx
    d939:	89 c8                	mov    %ecx,%eax
    d93b:	09 c2                	or     %eax,%edx
    d93d:	48 8b 05 a4 8a 01 00 	mov    0x18aa4(%rip),%rax        # 263e8 <g_1404>
    d944:	66 89 10             	mov    %dx,(%rax)
    d947:	0f b7 00             	movzwl (%rax),%eax
    d94a:	66 85 c0             	test   %ax,%ax
    d94d:	74 10                	je     d95f <func_2+0x10c1>
    d94f:	83 bd 34 eb ff ff 00 	cmpl   $0x0,-0x14cc(%rbp)
    d956:	74 07                	je     d95f <func_2+0x10c1>
    d958:	b8 01 00 00 00       	mov    $0x1,%eax
    d95d:	eb 05                	jmp    d964 <func_2+0x10c6>
    d95f:	b8 00 00 00 00       	mov    $0x0,%eax
    d964:	89 c3                	mov    %eax,%ebx
    d966:	83 e3 01             	and    $0x1,%ebx
    d969:	83 bd b0 eb ff ff 00 	cmpl   $0x0,-0x1450(%rbp)
    d970:	0f 84 01 01 00 00    	je     da77 <func_2+0x11d9>
    d976:	4c 8b a5 b8 ea ff ff 	mov    -0x1548(%rbp),%r12
    d97d:	0f b6 05 68 68 01 00 	movzbl 0x16868(%rip),%eax        # 241ec <g_539>
    d984:	0f be c0             	movsbl %al,%eax
    d987:	48 98                	cltq   
    d989:	48 8d 14 c5 00 00 00 	lea    0x0(,%rax,8),%rdx
    d990:	00 
    d991:	48 8d 05 a8 b1 01 00 	lea    0x1b1a8(%rip),%rax        # 28b40 <g_2930>
    d998:	48 c7 04 02 01 00 00 	movq   $0x1,(%rdx,%rax,1)
    d99f:	00 
    d9a0:	0f b6 05 45 68 01 00 	movzbl 0x16845(%rip),%eax        # 241ec <g_539>
    d9a7:	0f be c0             	movsbl %al,%eax
    d9aa:	48 98                	cltq   
    d9ac:	48 8d 14 c5 00 00 00 	lea    0x0(,%rax,8),%rdx
    d9b3:	00 
    d9b4:	48 8d 05 85 b1 01 00 	lea    0x1b185(%rip),%rax        # 28b40 <g_2930>
    d9bb:	48 8b 04 02          	mov    (%rdx,%rax,1),%rax
    d9bf:	41 89 c5             	mov    %eax,%r13d
    d9c2:	48 8b 15 8f 8a 01 00 	mov    0x18a8f(%rip),%rdx        # 26458 <g_2152>
    d9c9:	48 8b 05 88 8a 01 00 	mov    0x18a88(%rip),%rax        # 26458 <g_2152>
    d9d0:	8b 12                	mov    (%rdx),%edx
    d9d2:	89 10                	mov    %edx,(%rax)
    d9d4:	8b 00                	mov    (%rax),%eax
    d9d6:	be e9 cd 26 ba       	mov    $0xba26cde9,%esi
    d9db:	89 c7                	mov    %eax,%edi
    d9dd:	e8 1b e5 ff ff       	callq  befd <safe_mod_func_uint32_t_u_u>
    d9e2:	89 c2                	mov    %eax,%edx
    d9e4:	48 8b 85 b8 ea ff ff 	mov    -0x1548(%rbp),%rax
    d9eb:	48 39 c2             	cmp    %rax,%rdx
    d9ee:	0f 9c c0             	setl   %al
    d9f1:	89 c2                	mov    %eax,%edx
    d9f3:	48 8b 85 b8 ea ff ff 	mov    -0x1548(%rbp),%rax
    d9fa:	09 d0                	or     %edx,%eax
    d9fc:	88 05 9a 66 01 00    	mov    %al,0x1669a(%rip)        # 2409c <g_113>
    da02:	0f b6 05 93 66 01 00 	movzbl 0x16693(%rip),%eax        # 2409c <g_113>
    da09:	0f be c0             	movsbl %al,%eax
    da0c:	44 89 ee             	mov    %r13d,%esi
    da0f:	89 c7                	mov    %eax,%edi
    da11:	e8 56 d9 ff ff       	callq  b36c <safe_rshift_func_int8_t_s_u>
    da16:	0f be c0             	movsbl %al,%eax
    da19:	be 75 47 00 00       	mov    $0x4775,%esi
    da1e:	89 c7                	mov    %eax,%edi
    da20:	e8 f1 d9 ff ff       	callq  b416 <safe_mod_func_int16_t_s_s>
    da25:	66 3d 35 7c          	cmp    $0x7c35,%ax
    da29:	0f 9e c0             	setle  %al
    da2c:	0f b6 d0             	movzbl %al,%edx
    da2f:	48 8b 85 b8 ea ff ff 	mov    -0x1548(%rbp),%rax
    da36:	48 39 c2             	cmp    %rax,%rdx
    da39:	7e 0a                	jle    da45 <func_2+0x11a7>
    da3b:	48 8b 85 b8 ea ff ff 	mov    -0x1548(%rbp),%rax
    da42:	48 85 c0             	test   %rax,%rax
    da45:	48 8b 85 b8 ea ff ff 	mov    -0x1548(%rbp),%rax
    da4c:	4c 89 e6             	mov    %r12,%rsi
    da4f:	48 89 c7             	mov    %rax,%rdi
    da52:	e8 5d df ff ff       	callq  b9b4 <safe_mod_func_int64_t_s_s>
    da57:	8b 85 b0 eb ff ff    	mov    -0x1450(%rbp),%eax
    da5d:	0f be c0             	movsbl %al,%eax
    da60:	be ff ff ff ff       	mov    $0xffffffff,%esi
    da65:	89 c7                	mov    %eax,%edi
    da67:	e8 68 d7 ff ff       	callq  b1d4 <safe_add_func_int8_t_s_s>
    da6c:	84 c0                	test   %al,%al
    da6e:	74 07                	je     da77 <func_2+0x11d9>
    da70:	b8 01 00 00 00       	mov    $0x1,%eax
    da75:	eb 05                	jmp    da7c <func_2+0x11de>
    da77:	b8 00 00 00 00       	mov    $0x0,%eax
    da7c:	83 e0 01             	and    $0x1,%eax
    da7f:	09 c3                	or     %eax,%ebx
    da81:	89 da                	mov    %ebx,%edx
    da83:	48 8b 05 36 89 01 00 	mov    0x18936(%rip),%rax        # 263c0 <g_1058>
    da8a:	0f b6 d2             	movzbl %dl,%edx
    da8d:	89 10                	mov    %edx,(%rax)
    da8f:	c7 05 27 67 01 00 00 	movl   $0x0,0x16727(%rip)        # 241c0 <g_362>
    da96:	00 00 00 
    da99:	e9 09 05 00 00       	jmpq   dfa7 <func_2+0x1709>
    da9e:	48 8d 85 ec ea ff ff 	lea    -0x1514(%rbp),%rax
    daa5:	48 89 85 a0 ed ff ff 	mov    %rax,-0x1260(%rbp)
    daac:	48 c7 85 f8 eb ff ff 	movq   $0x0,-0x1408(%rbp)
    dab3:	00 00 00 00 
    dab7:	48 8d 05 6a 8b 01 00 	lea    0x18b6a(%rip),%rax        # 26628 <g_2652>
    dabe:	48 89 85 00 ec ff ff 	mov    %rax,-0x1400(%rbp)
    dac5:	48 8d 85 00 ec ff ff 	lea    -0x1400(%rbp),%rax
    dacc:	48 89 85 08 ec ff ff 	mov    %rax,-0x13f8(%rbp)
    dad3:	48 8d 85 08 ec ff ff 	lea    -0x13f8(%rbp),%rax
    dada:	48 89 85 a8 ed ff ff 	mov    %rax,-0x1258(%rbp)
    dae1:	48 c7 85 b0 ed ff ff 	movq   $0x0,-0x1250(%rbp)
    dae8:	00 00 00 00 
    daec:	c7 85 08 eb ff ff 00 	movl   $0x0,-0x14f8(%rbp)
    daf3:	00 00 00 
    daf6:	eb 46                	jmp    db3e <func_2+0x12a0>
    daf8:	c7 85 0c eb ff ff 00 	movl   $0x0,-0x14f4(%rbp)
    daff:	00 00 00 
    db02:	eb 2a                	jmp    db2e <func_2+0x1290>
    db04:	8b 85 0c eb ff ff    	mov    -0x14f4(%rbp),%eax
    db0a:	48 63 d0             	movslq %eax,%rdx
    db0d:	8b 85 08 eb ff ff    	mov    -0x14f8(%rbp),%eax
    db13:	48 98                	cltq   
    db15:	48 01 d0             	add    %rdx,%rax
    db18:	48 8d 15 75 65 01 00 	lea    0x16575(%rip),%rdx        # 24094 <g_44>
    db1f:	48 89 94 c5 d0 ee ff 	mov    %rdx,-0x1130(%rbp,%rax,8)
    db26:	ff 
    db27:	83 85 0c eb ff ff 01 	addl   $0x1,-0x14f4(%rbp)
    db2e:	83 bd 0c eb ff ff 00 	cmpl   $0x0,-0x14f4(%rbp)
    db35:	7e cd                	jle    db04 <func_2+0x1266>
    db37:	83 85 08 eb ff ff 01 	addl   $0x1,-0x14f8(%rbp)
    db3e:	83 bd 08 eb ff ff 02 	cmpl   $0x2,-0x14f8(%rbp)
    db45:	7e b1                	jle    daf8 <func_2+0x125a>
    db47:	c7 85 08 eb ff ff 00 	movl   $0x0,-0x14f8(%rbp)
    db4e:	00 00 00 
    db51:	eb 1e                	jmp    db71 <func_2+0x12d3>
    db53:	8b 85 08 eb ff ff    	mov    -0x14f8(%rbp),%eax
    db59:	48 98                	cltq   
    db5b:	48 8d 15 3a 65 01 00 	lea    0x1653a(%rip),%rdx        # 2409c <g_113>
    db62:	48 89 94 c5 c0 f0 ff 	mov    %rdx,-0xf40(%rbp,%rax,8)
    db69:	ff 
    db6a:	83 85 08 eb ff ff 01 	addl   $0x1,-0x14f8(%rbp)
    db71:	83 bd 08 eb ff ff 08 	cmpl   $0x8,-0x14f8(%rbp)
    db78:	7e d9                	jle    db53 <func_2+0x12b5>
    db7a:	c7 05 14 65 01 00 00 	movl   $0x0,0x16514(%rip)        # 24098 <g_89>
    db81:	00 00 00 
    db84:	eb 32                	jmp    dbb8 <func_2+0x131a>
    db86:	48 8d 85 40 f0 ff ff 	lea    -0xfc0(%rbp),%rax
    db8d:	48 83 c0 18          	add    $0x18,%rax
    db91:	48 89 85 d8 ed ff ff 	mov    %rax,-0x1228(%rbp)
    db98:	48 8b 95 58 f0 ff ff 	mov    -0xfa8(%rbp),%rdx
    db9f:	48 8b 85 d8 ed ff ff 	mov    -0x1228(%rbp),%rax
    dba6:	48 89 10             	mov    %rdx,(%rax)
    dba9:	8b 05 e9 64 01 00    	mov    0x164e9(%rip),%eax        # 24098 <g_89>
    dbaf:	83 c0 01             	add    $0x1,%eax
    dbb2:	89 05 e0 64 01 00    	mov    %eax,0x164e0(%rip)        # 24098 <g_89>
    dbb8:	8b 05 da 64 01 00    	mov    0x164da(%rip),%eax        # 24098 <g_89>
    dbbe:	83 f8 04             	cmp    $0x4,%eax
    dbc1:	76 c3                	jbe    db86 <func_2+0x12e8>
    dbc3:	c6 05 94 66 01 00 05 	movb   $0x5,0x16694(%rip)        # 2425e <g_2895>
    dbca:	eb 2f                	jmp    dbfb <func_2+0x135d>
    dbcc:	48 8b 05 55 88 01 00 	mov    0x18855(%rip),%rax        # 26428 <g_1885>
    dbd3:	48 8b 00             	mov    (%rax),%rax
    dbd6:	48 8b 95 a0 ed ff ff 	mov    -0x1260(%rbp),%rdx
    dbdd:	48 89 10             	mov    %rdx,(%rax)
    dbe0:	48 8b 05 d9 87 01 00 	mov    0x187d9(%rip),%rax        # 263c0 <g_1058>
    dbe7:	8b 00                	mov    (%rax),%eax
    dbe9:	85 c0                	test   %eax,%eax
    dbeb:	0f b6 05 6c 66 01 00 	movzbl 0x1666c(%rip),%eax        # 2425e <g_2895>
    dbf2:	83 e8 01             	sub    $0x1,%eax
    dbf5:	88 05 63 66 01 00    	mov    %al,0x16663(%rip)        # 2425e <g_2895>
    dbfb:	0f b6 05 5c 66 01 00 	movzbl 0x1665c(%rip),%eax        # 2425e <g_2895>
    dc02:	84 c0                	test   %al,%al
    dc04:	7f c6                	jg     dbcc <func_2+0x132e>
    dc06:	c6 05 43 65 01 00 00 	movb   $0x0,0x16543(%rip)        # 24150 <g_184>
    dc0d:	eb 35                	jmp    dc44 <func_2+0x13a6>
    dc0f:	48 8b 05 aa 87 01 00 	mov    0x187aa(%rip),%rax        # 263c0 <g_1058>
    dc16:	8b 95 ec ea ff ff    	mov    -0x1514(%rbp),%edx
    dc1c:	89 10                	mov    %edx,(%rax)
    dc1e:	8b 85 ec ea ff ff    	mov    -0x1514(%rbp),%eax
    dc24:	85 c0                	test   %eax,%eax
    dc26:	75 29                	jne    dc51 <func_2+0x13b3>
    dc28:	48 8b 85 b8 ea ff ff 	mov    -0x1548(%rbp),%rax
    dc2f:	48 85 c0             	test   %rax,%rax
    dc32:	75 20                	jne    dc54 <func_2+0x13b6>
    dc34:	0f b6 05 15 65 01 00 	movzbl 0x16515(%rip),%eax        # 24150 <g_184>
    dc3b:	83 c0 01             	add    $0x1,%eax
    dc3e:	88 05 0c 65 01 00    	mov    %al,0x1650c(%rip)        # 24150 <g_184>
    dc44:	0f b6 05 05 65 01 00 	movzbl 0x16505(%rip),%eax        # 24150 <g_184>
    dc4b:	3c 07                	cmp    $0x7,%al
    dc4d:	76 c0                	jbe    dc0f <func_2+0x1371>
    dc4f:	eb 04                	jmp    dc55 <func_2+0x13b7>
    dc51:	90                   	nop
    dc52:	eb 01                	jmp    dc55 <func_2+0x13b7>
    dc54:	90                   	nop
    dc55:	c7 05 f1 65 01 00 00 	movl   $0x0,0x165f1(%rip)        # 24250 <g_2286>
    dc5c:	00 00 00 
    dc5f:	e9 25 03 00 00       	jmpq   df89 <func_2+0x16eb>
    dc64:	48 c7 85 b8 ed ff ff 	movq   $0x0,-0x1248(%rbp)
    dc6b:	00 00 00 00 
    dc6f:	48 8d 85 d0 f2 ff ff 	lea    -0xd30(%rbp),%rax
    dc76:	48 8d 15 23 68 01 00 	lea    0x16823(%rip),%rdx        # 244a0 <g_3583+0x210>
    dc7d:	b9 30 00 00 00       	mov    $0x30,%ecx
    dc82:	48 89 c7             	mov    %rax,%rdi
    dc85:	48 89 d6             	mov    %rdx,%rsi
    dc88:	f3 48 a5             	rep movsq %ds:(%rsi),%es:(%rdi)
    dc8b:	48 8d 85 f8 eb ff ff 	lea    -0x1408(%rbp),%rax
    dc92:	48 89 85 c0 ed ff ff 	mov    %rax,-0x1240(%rbp)
    dc99:	48 c7 85 c8 ed ff ff 	movq   $0x0,-0x1238(%rbp)
    dca0:	00 00 00 00 
    dca4:	48 8d 05 dd ae 01 00 	lea    0x1aedd(%rip),%rax        # 28b88 <g_3074>
    dcab:	48 89 85 d0 ed ff ff 	mov    %rax,-0x1230(%rbp)
    dcb2:	48 8b 05 6f 87 01 00 	mov    0x1876f(%rip),%rax        # 26428 <g_1885>
    dcb9:	48 8b 00             	mov    (%rax),%rax
    dcbc:	48 c7 00 00 00 00 00 	movq   $0x0,(%rax)
    dcc3:	8b 85 b0 eb ff ff    	mov    -0x1450(%rbp),%eax
    dcc9:	0f b6 f8             	movzbl %al,%edi
    dccc:	48 8b 05 7d 87 01 00 	mov    0x1877d(%rip),%rax        # 26450 <g_2065>
    dcd3:	48 8b 95 d0 f0 ff ff 	mov    -0xf30(%rbp),%rdx
    dcda:	48 89 10             	mov    %rdx,(%rax)
    dcdd:	48 8b 08             	mov    (%rax),%rcx
    dce0:	8b 85 34 eb ff ff    	mov    -0x14cc(%rbp),%eax
    dce6:	48 63 d0             	movslq %eax,%rdx
    dce9:	48 8b 85 a0 ed ff ff 	mov    -0x1260(%rbp),%rax
    dcf0:	8b 00                	mov    (%rax),%eax
    dcf2:	41 89 c1             	mov    %eax,%r9d
    dcf5:	48 8b 85 a0 ed ff ff 	mov    -0x1260(%rbp),%rax
    dcfc:	48 89 85 d8 ee ff ff 	mov    %rax,-0x1128(%rbp)
    dd03:	48 8b 85 d8 ee ff ff 	mov    -0x1128(%rbp),%rax
    dd0a:	48 8b 35 17 87 01 00 	mov    0x18717(%rip),%rsi        # 26428 <g_1885>
    dd11:	48 8b 1e             	mov    (%rsi),%rbx
    dd14:	41 89 f8             	mov    %edi,%r8d
    dd17:	44 89 ce             	mov    %r9d,%esi
    dd1a:	48 89 c7             	mov    %rax,%rdi
    dd1d:	e8 70 e6 00 00       	callq  1c392 <func_63>
    dd22:	48 89 03             	mov    %rax,(%rbx)
    dd25:	48 8b 9d b8 ea ff ff 	mov    -0x1548(%rbp),%rbx
    dd2c:	8b 85 ec ea ff ff    	mov    -0x1514(%rbp),%eax
    dd32:	44 0f be e0          	movsbl %al,%r12d
    dd36:	48 8b 85 b8 ea ff ff 	mov    -0x1548(%rbp),%rax
    dd3d:	44 0f b7 e8          	movzwl %ax,%r13d
    dd41:	48 8b 05 c0 93 01 00 	mov    0x193c0(%rip),%rax        # 27108 <g_2989>
    dd48:	44 8b 30             	mov    (%rax),%r14d
    dd4b:	0f b7 85 d2 ea ff ff 	movzwl -0x152e(%rbp),%eax
    dd52:	66 85 c0             	test   %ax,%ax
    dd55:	0f 84 77 01 00 00    	je     ded2 <func_2+0x1634>
    dd5b:	48 8b 85 00 ec ff ff 	mov    -0x1400(%rbp),%rax
    dd62:	48 8b 00             	mov    (%rax),%rax
    dd65:	8b 00                	mov    (%rax),%eax
    dd67:	89 85 b4 ea ff ff    	mov    %eax,-0x154c(%rbp)
    dd6d:	48 8b 85 b8 ea ff ff 	mov    -0x1548(%rbp),%rax
    dd74:	44 0f bf f8          	movswl %ax,%r15d
    dd78:	0f b7 85 d2 ea ff ff 	movzwl -0x152e(%rbp),%eax
    dd7f:	0f b7 c0             	movzwl %ax,%eax
    dd82:	89 85 a8 ea ff ff    	mov    %eax,-0x1558(%rbp)
    dd88:	48 8b 05 b1 98 01 00 	mov    0x198b1(%rip),%rax        # 27640 <g_3086>
    dd8f:	48 8b 00             	mov    (%rax),%rax
    dd92:	48 8b 08             	mov    (%rax),%rcx
    dd95:	48 8b 95 b8 ea ff ff 	mov    -0x1548(%rbp),%rdx
    dd9c:	48 8b 05 9d 98 01 00 	mov    0x1989d(%rip),%rax        # 27640 <g_3086>
    dda3:	48 8b 00             	mov    (%rax),%rax
    dda6:	48 21 ca             	and    %rcx,%rdx
    dda9:	48 89 10             	mov    %rdx,(%rax)
    ddac:	48 8b 00             	mov    (%rax),%rax
    ddaf:	48 85 c0             	test   %rax,%rax
    ddb2:	74 55                	je     de09 <func_2+0x156b>
    ddb4:	0f b7 85 d2 ea ff ff 	movzwl -0x152e(%rbp),%eax
    ddbb:	0f b7 c0             	movzwl %ax,%eax
    ddbe:	89 85 b0 ea ff ff    	mov    %eax,-0x1550(%rbp)
    ddc4:	b8 00 00 00 00       	mov    $0x0,%eax
    ddc9:	85 c0                	test   %eax,%eax
    ddcb:	74 10                	je     dddd <func_2+0x153f>
    ddcd:	83 bd b4 eb ff ff 00 	cmpl   $0x0,-0x144c(%rbp)
    ddd4:	74 07                	je     dddd <func_2+0x153f>
    ddd6:	b8 01 00 00 00       	mov    $0x1,%eax
    dddb:	eb 05                	jmp    dde2 <func_2+0x1544>
    dddd:	b8 00 00 00 00       	mov    $0x0,%eax
    dde2:	0f b6 c0             	movzbl %al,%eax
    dde5:	be 1b 00 00 00       	mov    $0x1b,%esi
    ddea:	89 c7                	mov    %eax,%edi
    ddec:	e8 a2 dd ff ff       	callq  bb93 <safe_mul_func_uint8_t_u_u>
    ddf1:	0f b6 c0             	movzbl %al,%eax
    ddf4:	8b b5 b0 ea ff ff    	mov    -0x1550(%rbp),%esi
    ddfa:	89 c7                	mov    %eax,%edi
    ddfc:	e8 24 e1 ff ff       	callq  bf25 <safe_div_func_uint32_t_u_u>
    de01:	b8 00 00 00 00       	mov    $0x0,%eax
    de06:	83 f8 09             	cmp    $0x9,%eax
    de09:	48 8b 85 b8 ea ff ff 	mov    -0x1548(%rbp),%rax
    de10:	98                   	cwtl   
    de11:	25 43 55 00 00       	and    $0x5543,%eax
    de16:	8b b5 a8 ea ff ff    	mov    -0x1558(%rbp),%esi
    de1c:	89 c7                	mov    %eax,%edi
    de1e:	e8 be d6 ff ff       	callq  b4e1 <safe_lshift_func_int16_t_s_u>
    de23:	98                   	cwtl   
    de24:	89 85 f0 ea ff ff    	mov    %eax,-0x1510(%rbp)
    de2a:	48 8d 05 cf 85 01 00 	lea    0x185cf(%rip),%rax        # 26400 <g_1843>
    de31:	48 39 85 b0 ed ff ff 	cmp    %rax,-0x1250(%rbp)
    de38:	0f 94 c0             	sete   %al
    de3b:	0f b6 c0             	movzbl %al,%eax
    de3e:	44 89 fe             	mov    %r15d,%esi
    de41:	89 c7                	mov    %eax,%edi
    de43:	e8 ce d5 ff ff       	callq  b416 <safe_mod_func_int16_t_s_s>
    de48:	48 0f bf d0          	movswq %ax,%rdx
    de4c:	48 8b 85 b8 ea ff ff 	mov    -0x1548(%rbp),%rax
    de53:	48 39 c2             	cmp    %rax,%rdx
    de56:	0f 9d c0             	setge  %al
    de59:	0f b6 d0             	movzbl %al,%edx
    de5c:	48 8b 85 b8 ea ff ff 	mov    -0x1548(%rbp),%rax
    de63:	48 39 c2             	cmp    %rax,%rdx
    de66:	0f 9f c0             	setg   %al
    de69:	0f b6 d0             	movzbl %al,%edx
    de6c:	8b 05 96 63 01 00    	mov    0x16396(%rip),%eax        # 24208 <g_1297+0x8>
    de72:	39 c2                	cmp    %eax,%edx
    de74:	75 11                	jne    de87 <func_2+0x15e9>
    de76:	8b 85 f0 ea ff ff    	mov    -0x1510(%rbp),%eax
    de7c:	85 c0                	test   %eax,%eax
    de7e:	74 07                	je     de87 <func_2+0x15e9>
    de80:	b9 01 00 00 00       	mov    $0x1,%ecx
    de85:	eb 05                	jmp    de8c <func_2+0x15ee>
    de87:	b9 00 00 00 00       	mov    $0x0,%ecx
    de8c:	48 8b 85 d0 ed ff ff 	mov    -0x1230(%rbp),%rax
    de93:	48 8b 10             	mov    (%rax),%rdx
    de96:	48 63 c1             	movslq %ecx,%rax
    de99:	48 21 c2             	and    %rax,%rdx
    de9c:	48 8b 85 d0 ed ff ff 	mov    -0x1230(%rbp),%rax
    dea3:	48 89 10             	mov    %rdx,(%rax)
    dea6:	48 8b 85 d0 ed ff ff 	mov    -0x1230(%rbp),%rax
    dead:	48 8b 00             	mov    (%rax),%rax
    deb0:	89 c2                	mov    %eax,%edx
    deb2:	8b 85 ec ea ff ff    	mov    -0x1514(%rbp),%eax
    deb8:	31 d0                	xor    %edx,%eax
    deba:	8b b5 b4 ea ff ff    	mov    -0x154c(%rbp),%esi
    dec0:	89 c7                	mov    %eax,%edi
    dec2:	e8 09 e0 ff ff       	callq  bed0 <safe_sub_func_uint32_t_u_u>
    dec7:	85 c0                	test   %eax,%eax
    dec9:	74 07                	je     ded2 <func_2+0x1634>
    decb:	b8 01 00 00 00       	mov    $0x1,%eax
    ded0:	eb 05                	jmp    ded7 <func_2+0x1639>
    ded2:	b8 00 00 00 00       	mov    $0x0,%eax
    ded7:	44 89 f6             	mov    %r14d,%esi
    deda:	89 c7                	mov    %eax,%edi
    dedc:	e8 d7 df ff ff       	callq  beb8 <safe_add_func_uint32_t_u_u>
    dee1:	0f bf 85 d6 ea ff ff 	movswl -0x152a(%rbp),%eax
    dee8:	be fd e8 ff ff       	mov    $0xffffe8fd,%esi
    deed:	89 c7                	mov    %eax,%edi
    deef:	e8 61 d5 ff ff       	callq  b455 <safe_div_func_int16_t_s_s>
    def4:	44 0f be f0          	movsbl %al,%r14d
    def8:	48 8b 95 f8 eb ff ff 	mov    -0x1408(%rbp),%rdx
    deff:	48 8b 85 c0 ed ff ff 	mov    -0x1240(%rbp),%rax
    df06:	48 89 10             	mov    %rdx,(%rax)
    df09:	48 8b 85 c0 ed ff ff 	mov    -0x1240(%rbp),%rax
    df10:	48 8b 00             	mov    (%rax),%rax
    df13:	48 39 85 a8 ed ff ff 	cmp    %rax,-0x1258(%rbp)
    df1a:	0f 95 c0             	setne  %al
    df1d:	0f b6 c0             	movzbl %al,%eax
    df20:	be 09 00 00 00       	mov    $0x9,%esi
    df25:	89 c7                	mov    %eax,%edi
    df27:	e8 fe d5 ff ff       	callq  b52a <safe_rshift_func_int16_t_s_s>
    df2c:	0f be c0             	movsbl %al,%eax
    df2f:	44 89 f6             	mov    %r14d,%esi
    df32:	89 c7                	mov    %eax,%edi
    df34:	e8 9b d2 ff ff       	callq  b1d4 <safe_add_func_int8_t_s_s>
    df39:	44 89 ee             	mov    %r13d,%esi
    df3c:	bf 00 00 00 00       	mov    $0x0,%edi
    df41:	e8 f7 dd ff ff       	callq  bd3d <safe_mul_func_uint16_t_u_u>
    df46:	44 89 e6             	mov    %r12d,%esi
    df49:	bf 00 00 00 00       	mov    $0x0,%edi
    df4e:	e8 17 d3 ff ff       	callq  b26a <safe_div_func_int8_t_s_s>
    df53:	48 0f be c0          	movsbq %al,%rax
    df57:	48 89 de             	mov    %rbx,%rsi
    df5a:	48 89 c7             	mov    %rax,%rdi
    df5d:	e8 df d8 ff ff       	callq  b841 <safe_add_func_int64_t_s_s>
    df62:	89 c2                	mov    %eax,%edx
    df64:	48 8b 85 a0 ed ff ff 	mov    -0x1260(%rbp),%rax
    df6b:	89 10                	mov    %edx,(%rax)
    df6d:	48 8b 05 4c 84 01 00 	mov    0x1844c(%rip),%rax        # 263c0 <g_1058>
    df74:	c7 00 01 00 00 00    	movl   $0x1,(%rax)
    df7a:	8b 05 d0 62 01 00    	mov    0x162d0(%rip),%eax        # 24250 <g_2286>
    df80:	83 c0 01             	add    $0x1,%eax
    df83:	89 05 c7 62 01 00    	mov    %eax,0x162c7(%rip)        # 24250 <g_2286>
    df89:	8b 05 c1 62 01 00    	mov    0x162c1(%rip),%eax        # 24250 <g_2286>
    df8f:	83 f8 04             	cmp    $0x4,%eax
    df92:	0f 86 cc fc ff ff    	jbe    dc64 <func_2+0x13c6>
    df98:	8b 05 22 62 01 00    	mov    0x16222(%rip),%eax        # 241c0 <g_362>
    df9e:	83 c0 01             	add    $0x1,%eax
    dfa1:	89 05 19 62 01 00    	mov    %eax,0x16219(%rip)        # 241c0 <g_362>
    dfa7:	8b 05 13 62 01 00    	mov    0x16213(%rip),%eax        # 241c0 <g_362>
    dfad:	83 f8 04             	cmp    $0x4,%eax
    dfb0:	0f 86 e8 fa ff ff    	jbe    da9e <func_2+0x1200>
    dfb6:	0f b7 05 97 62 01 00 	movzwl 0x16297(%rip),%eax        # 24254 <g_2333>
    dfbd:	83 c0 01             	add    $0x1,%eax
    dfc0:	66 89 05 8d 62 01 00 	mov    %ax,0x1628d(%rip)        # 24254 <g_2333>
    dfc7:	0f b7 05 86 62 01 00 	movzwl 0x16286(%rip),%eax        # 24254 <g_2333>
    dfce:	66 83 f8 07          	cmp    $0x7,%ax
    dfd2:	0f 86 22 f7 ff ff    	jbe    d6fa <func_2+0xe5c>
    dfd8:	48 8b 85 b8 ea ff ff 	mov    -0x1548(%rbp),%rax
    dfdf:	0f be d8             	movsbl %al,%ebx
    dfe2:	44 8b a5 ec ea ff ff 	mov    -0x1514(%rbp),%r12d
    dfe9:	0f b7 85 d2 ea ff ff 	movzwl -0x152e(%rbp),%eax
    dff0:	44 0f be e8          	movsbl %al,%r13d
    dff4:	48 8b 85 b8 ea ff ff 	mov    -0x1548(%rbp),%rax
    dffb:	44 0f be f0          	movsbl %al,%r14d
    dfff:	48 8b 05 62 87 01 00 	mov    0x18762(%rip),%rax        # 26768 <g_2820>
    e006:	48 8b 00             	mov    (%rax),%rax
    e009:	4c 8b 38             	mov    (%rax),%r15
    e00c:	48 8b 85 30 ed ff ff 	mov    -0x12d0(%rbp),%rax
    e013:	48 8b 00             	mov    (%rax),%rax
    e016:	48 8d 50 01          	lea    0x1(%rax),%rdx
    e01a:	48 8b 85 30 ed ff ff 	mov    -0x12d0(%rbp),%rax
    e021:	48 89 10             	mov    %rdx,(%rax)
    e024:	48 8b 85 30 ed ff ff 	mov    -0x12d0(%rbp),%rax
    e02b:	48 8b 00             	mov    (%rax),%rax
    e02e:	48 83 f8 f7          	cmp    $0xfffffffffffffff7,%rax
    e032:	74 4a                	je     e07e <func_2+0x17e0>
    e034:	48 8b 85 b8 ea ff ff 	mov    -0x1548(%rbp),%rax
    e03b:	0f be c0             	movsbl %al,%eax
    e03e:	89 85 b4 ea ff ff    	mov    %eax,-0x154c(%rbp)
    e044:	48 8b 85 b8 ea ff ff 	mov    -0x1548(%rbp),%rax
    e04b:	89 c2                	mov    %eax,%edx
    e04d:	48 8b 85 b8 ea ff ff 	mov    -0x1548(%rbp),%rax
    e054:	89 d6                	mov    %edx,%esi
    e056:	89 c7                	mov    %eax,%edi
    e058:	e8 c8 de ff ff       	callq  bf25 <safe_div_func_uint32_t_u_u>
    e05d:	83 f8 ff             	cmp    $0xffffffff,%eax
    e060:	0f 95 c0             	setne  %al
    e063:	0f b6 c0             	movzbl %al,%eax
    e066:	8b b5 b4 ea ff ff    	mov    -0x154c(%rbp),%esi
    e06c:	89 c7                	mov    %eax,%edi
    e06e:	e8 be d1 ff ff       	callq  b231 <safe_mod_func_int8_t_s_s>
    e073:	84 c0                	test   %al,%al
    e075:	74 07                	je     e07e <func_2+0x17e0>
    e077:	b8 01 00 00 00       	mov    $0x1,%eax
    e07c:	eb 05                	jmp    e083 <func_2+0x17e5>
    e07e:	b8 00 00 00 00       	mov    $0x0,%eax
    e083:	83 f8 10             	cmp    $0x10,%eax
    e086:	0f 9f c0             	setg   %al
    e089:	0f b6 c0             	movzbl %al,%eax
    e08c:	4c 89 fe             	mov    %r15,%rsi
    e08f:	48 89 c7             	mov    %rax,%rdi
    e092:	e8 1d d9 ff ff       	callq  b9b4 <safe_mod_func_int64_t_s_s>
    e097:	48 8b 85 b8 ea ff ff 	mov    -0x1548(%rbp),%rax
    e09e:	48 85 c0             	test   %rax,%rax
    e0a1:	0f 94 c0             	sete   %al
    e0a4:	0f b6 c0             	movzbl %al,%eax
    e0a7:	44 89 f6             	mov    %r14d,%esi
    e0aa:	89 c7                	mov    %eax,%edi
    e0ac:	e8 61 d1 ff ff       	callq  b212 <safe_mul_func_int8_t_s_s>
    e0b1:	48 0f be d0          	movsbq %al,%rdx
    e0b5:	48 8b 85 b8 ea ff ff 	mov    -0x1548(%rbp),%rax
    e0bc:	48 39 c2             	cmp    %rax,%rdx
    e0bf:	0f 95 c0             	setne  %al
    e0c2:	0f b6 d0             	movzbl %al,%edx
    e0c5:	48 8b 8d b8 ea ff ff 	mov    -0x1548(%rbp),%rcx
    e0cc:	48 8b 05 15 83 01 00 	mov    0x18315(%rip),%rax        # 263e8 <g_1404>
    e0d3:	66 89 08             	mov    %cx,(%rax)
    e0d6:	0f b7 00             	movzwl (%rax),%eax
    e0d9:	0f b7 c0             	movzwl %ax,%eax
    e0dc:	89 d6                	mov    %edx,%esi
    e0de:	89 c7                	mov    %eax,%edi
    e0e0:	e8 95 dd ff ff       	callq  be7a <safe_rshift_func_uint16_t_u_u>
    e0e5:	66 85 c0             	test   %ax,%ax
    e0e8:	74 11                	je     e0fb <func_2+0x185d>
    e0ea:	8b 85 ec ea ff ff    	mov    -0x1514(%rbp),%eax
    e0f0:	85 c0                	test   %eax,%eax
    e0f2:	74 07                	je     e0fb <func_2+0x185d>
    e0f4:	b8 01 00 00 00       	mov    $0x1,%eax
    e0f9:	eb 05                	jmp    e100 <func_2+0x1862>
    e0fb:	b8 00 00 00 00       	mov    $0x0,%eax
    e100:	0f b6 c0             	movzbl %al,%eax
    e103:	89 c6                	mov    %eax,%esi
    e105:	bf 0b 00 00 00       	mov    $0xb,%edi
    e10a:	e8 69 da ff ff       	callq  bb78 <safe_sub_func_uint8_t_u_u>
    e10f:	48 8b 05 12 85 01 00 	mov    0x18512(%rip),%rax        # 26628 <g_2652>
    e116:	8b 00                	mov    (%rax),%eax
    e118:	48 63 d0             	movslq %eax,%rdx
    e11b:	48 8b 8d 80 f6 ff ff 	mov    -0x980(%rbp),%rcx
    e122:	48 8b 85 58 f0 ff ff 	mov    -0xfa8(%rbp),%rax
    e129:	48 39 c1             	cmp    %rax,%rcx
    e12c:	0f 95 c0             	setne  %al
    e12f:	0f b6 c0             	movzbl %al,%eax
    e132:	48 89 d6             	mov    %rdx,%rsi
    e135:	48 89 c7             	mov    %rax,%rdi
    e138:	e8 43 df ff ff       	callq  c080 <safe_mod_func_uint64_t_u_u>
    e13d:	0f be c0             	movsbl %al,%eax
    e140:	44 89 ee             	mov    %r13d,%esi
    e143:	89 c7                	mov    %eax,%edi
    e145:	e8 a8 d0 ff ff       	callq  b1f2 <safe_sub_func_int8_t_s_s>
    e14a:	be 05 00 00 00       	mov    $0x5,%esi
    e14f:	bf ff ff 00 00       	mov    $0xffff,%edi
    e154:	e8 ad dc ff ff       	callq  be06 <safe_lshift_func_uint16_t_u_u>
    e159:	0f b7 c0             	movzwl %ax,%eax
    e15c:	f7 d0                	not    %eax
    e15e:	44 89 e6             	mov    %r12d,%esi
    e161:	89 c7                	mov    %eax,%edi
    e163:	e8 64 d5 ff ff       	callq  b6cc <safe_mod_func_int32_t_s_s>
    e168:	85 c0                	test   %eax,%eax
    e16a:	75 0c                	jne    e178 <func_2+0x18da>
    e16c:	48 8b 85 b8 ea ff ff 	mov    -0x1548(%rbp),%rax
    e173:	48 85 c0             	test   %rax,%rax
    e176:	74 07                	je     e17f <func_2+0x18e1>
    e178:	b8 01 00 00 00       	mov    $0x1,%eax
    e17d:	eb 05                	jmp    e184 <func_2+0x18e6>
    e17f:	b8 00 00 00 00       	mov    $0x0,%eax
    e184:	be fb 3a db 84       	mov    $0x84db3afb,%esi
    e189:	89 c7                	mov    %eax,%edi
    e18b:	e8 75 d4 ff ff       	callq  b605 <safe_sub_func_int32_t_s_s>
    e190:	8b 95 d8 ea ff ff    	mov    -0x1528(%rbp),%edx
    e196:	21 d0                	and    %edx,%eax
    e198:	85 c0                	test   %eax,%eax
    e19a:	74 08                	je     e1a4 <func_2+0x1906>
    e19c:	8b 85 d8 ea ff ff    	mov    -0x1528(%rbp),%eax
    e1a2:	85 c0                	test   %eax,%eax
    e1a4:	8b 85 f0 ea ff ff    	mov    -0x1510(%rbp),%eax
    e1aa:	98                   	cwtl   
    e1ab:	89 c7                	mov    %eax,%edi
    e1ad:	e8 eb d1 ff ff       	callq  b39d <safe_unary_minus_func_int16_t_s>
    e1b2:	98                   	cwtl   
    e1b3:	be 01 00 00 00       	mov    $0x1,%esi
    e1b8:	89 c7                	mov    %eax,%edi
    e1ba:	e8 22 d3 ff ff       	callq  b4e1 <safe_lshift_func_int16_t_s_u>
    e1bf:	0f be c0             	movsbl %al,%eax
    e1c2:	89 de                	mov    %ebx,%esi
    e1c4:	89 c7                	mov    %eax,%edi
    e1c6:	e8 47 d0 ff ff       	callq  b212 <safe_mul_func_int8_t_s_s>
    e1cb:	48 8b 15 ee 81 01 00 	mov    0x181ee(%rip),%rdx        # 263c0 <g_1058>
    e1d2:	8b 0a                	mov    (%rdx),%ecx
    e1d4:	0f be d0             	movsbl %al,%edx
    e1d7:	48 8b 05 e2 81 01 00 	mov    0x181e2(%rip),%rax        # 263c0 <g_1058>
    e1de:	21 ca                	and    %ecx,%edx
    e1e0:	89 10                	mov    %edx,(%rax)
    e1e2:	8b 10                	mov    (%rax),%edx
    e1e4:	48 8b 85 38 ed ff ff 	mov    -0x12c8(%rbp),%rax
    e1eb:	8b 00                	mov    (%rax),%eax
    e1ed:	31 c2                	xor    %eax,%edx
    e1ef:	48 8b 85 38 ed ff ff 	mov    -0x12c8(%rbp),%rax
    e1f6:	89 10                	mov    %edx,(%rax)
    e1f8:	48 83 bd 20 ed ff ff 	cmpq   $0x0,-0x12e0(%rbp)
    e1ff:	00 
    e200:	0f 85 1c 0d 00 00    	jne    ef22 <func_2+0x2684>
    e206:	c7 05 40 60 01 00 02 	movl   $0x2,0x16040(%rip)        # 24250 <g_2286>
    e20d:	00 00 00 
    e210:	e9 fc 0c 00 00       	jmpq   ef11 <func_2+0x2673>
    e215:	48 8d 85 f0 ea ff ff 	lea    -0x1510(%rbp),%rax
    e21c:	48 89 85 50 fa ff ff 	mov    %rax,-0x5b0(%rbp)
    e223:	48 8d 05 ca 5f 01 00 	lea    0x15fca(%rip),%rax        # 241f4 <g_892>
    e22a:	48 89 85 58 fa ff ff 	mov    %rax,-0x5a8(%rbp)
    e231:	48 8d 85 f0 ea ff ff 	lea    -0x1510(%rbp),%rax
    e238:	48 89 85 60 fa ff ff 	mov    %rax,-0x5a0(%rbp)
    e23f:	48 8d 05 ae 5f 01 00 	lea    0x15fae(%rip),%rax        # 241f4 <g_892>
    e246:	48 89 85 68 fa ff ff 	mov    %rax,-0x598(%rbp)
    e24d:	48 8d 85 f0 ea ff ff 	lea    -0x1510(%rbp),%rax
    e254:	48 89 85 70 fa ff ff 	mov    %rax,-0x590(%rbp)
    e25b:	48 8d 05 92 5f 01 00 	lea    0x15f92(%rip),%rax        # 241f4 <g_892>
    e262:	48 89 85 78 fa ff ff 	mov    %rax,-0x588(%rbp)
    e269:	48 8d 85 f0 ea ff ff 	lea    -0x1510(%rbp),%rax
    e270:	48 89 85 80 fa ff ff 	mov    %rax,-0x580(%rbp)
    e277:	48 8d 05 76 5f 01 00 	lea    0x15f76(%rip),%rax        # 241f4 <g_892>
    e27e:	48 89 85 88 fa ff ff 	mov    %rax,-0x578(%rbp)
    e285:	48 8d 85 f0 ea ff ff 	lea    -0x1510(%rbp),%rax
    e28c:	48 89 85 90 fa ff ff 	mov    %rax,-0x570(%rbp)
    e293:	48 8d 05 5a 5f 01 00 	lea    0x15f5a(%rip),%rax        # 241f4 <g_892>
    e29a:	48 89 85 98 fa ff ff 	mov    %rax,-0x568(%rbp)
    e2a1:	48 8d 85 f0 ea ff ff 	lea    -0x1510(%rbp),%rax
    e2a8:	48 89 85 a0 fa ff ff 	mov    %rax,-0x560(%rbp)
    e2af:	48 8d 05 3e 5f 01 00 	lea    0x15f3e(%rip),%rax        # 241f4 <g_892>
    e2b6:	48 89 85 a8 fa ff ff 	mov    %rax,-0x558(%rbp)
    e2bd:	48 8d 85 f0 ea ff ff 	lea    -0x1510(%rbp),%rax
    e2c4:	48 89 85 b0 fa ff ff 	mov    %rax,-0x550(%rbp)
    e2cb:	48 8d 05 22 5f 01 00 	lea    0x15f22(%rip),%rax        # 241f4 <g_892>
    e2d2:	48 89 85 b8 fa ff ff 	mov    %rax,-0x548(%rbp)
    e2d9:	48 8d 85 f0 ea ff ff 	lea    -0x1510(%rbp),%rax
    e2e0:	48 89 85 c0 fa ff ff 	mov    %rax,-0x540(%rbp)
    e2e7:	48 8d 05 06 5f 01 00 	lea    0x15f06(%rip),%rax        # 241f4 <g_892>
    e2ee:	48 89 85 c8 fa ff ff 	mov    %rax,-0x538(%rbp)
    e2f5:	48 8d 85 f0 ea ff ff 	lea    -0x1510(%rbp),%rax
    e2fc:	48 89 85 d0 fa ff ff 	mov    %rax,-0x530(%rbp)
    e303:	48 8d 05 ea 5e 01 00 	lea    0x15eea(%rip),%rax        # 241f4 <g_892>
    e30a:	48 89 85 d8 fa ff ff 	mov    %rax,-0x528(%rbp)
    e311:	48 8d 85 f0 ea ff ff 	lea    -0x1510(%rbp),%rax
    e318:	48 89 85 e0 fa ff ff 	mov    %rax,-0x520(%rbp)
    e31f:	48 8d 05 ce 5e 01 00 	lea    0x15ece(%rip),%rax        # 241f4 <g_892>
    e326:	48 89 85 e8 fa ff ff 	mov    %rax,-0x518(%rbp)
    e32d:	48 8d 85 f0 ea ff ff 	lea    -0x1510(%rbp),%rax
    e334:	48 89 85 f0 fa ff ff 	mov    %rax,-0x510(%rbp)
    e33b:	48 8d 05 b2 5e 01 00 	lea    0x15eb2(%rip),%rax        # 241f4 <g_892>
    e342:	48 89 85 f8 fa ff ff 	mov    %rax,-0x508(%rbp)
    e349:	48 8d 85 f0 ea ff ff 	lea    -0x1510(%rbp),%rax
    e350:	48 89 85 00 fb ff ff 	mov    %rax,-0x500(%rbp)
    e357:	48 8d 05 96 5e 01 00 	lea    0x15e96(%rip),%rax        # 241f4 <g_892>
    e35e:	48 89 85 08 fb ff ff 	mov    %rax,-0x4f8(%rbp)
    e365:	48 8d 85 f0 ea ff ff 	lea    -0x1510(%rbp),%rax
    e36c:	48 89 85 10 fb ff ff 	mov    %rax,-0x4f0(%rbp)
    e373:	48 8d 05 7a 5e 01 00 	lea    0x15e7a(%rip),%rax        # 241f4 <g_892>
    e37a:	48 89 85 18 fb ff ff 	mov    %rax,-0x4e8(%rbp)
    e381:	48 8d 85 f0 ea ff ff 	lea    -0x1510(%rbp),%rax
    e388:	48 89 85 20 fb ff ff 	mov    %rax,-0x4e0(%rbp)
    e38f:	48 8d 05 5e 5e 01 00 	lea    0x15e5e(%rip),%rax        # 241f4 <g_892>
    e396:	48 89 85 28 fb ff ff 	mov    %rax,-0x4d8(%rbp)
    e39d:	48 8d 85 f0 ea ff ff 	lea    -0x1510(%rbp),%rax
    e3a4:	48 89 85 30 fb ff ff 	mov    %rax,-0x4d0(%rbp)
    e3ab:	48 8d 05 42 5e 01 00 	lea    0x15e42(%rip),%rax        # 241f4 <g_892>
    e3b2:	48 89 85 38 fb ff ff 	mov    %rax,-0x4c8(%rbp)
    e3b9:	48 8d 85 f0 ea ff ff 	lea    -0x1510(%rbp),%rax
    e3c0:	48 89 85 40 fb ff ff 	mov    %rax,-0x4c0(%rbp)
    e3c7:	48 8d 05 26 5e 01 00 	lea    0x15e26(%rip),%rax        # 241f4 <g_892>
    e3ce:	48 89 85 48 fb ff ff 	mov    %rax,-0x4b8(%rbp)
    e3d5:	48 8d 85 f0 ea ff ff 	lea    -0x1510(%rbp),%rax
    e3dc:	48 89 85 50 fb ff ff 	mov    %rax,-0x4b0(%rbp)
    e3e3:	48 8d 05 0a 5e 01 00 	lea    0x15e0a(%rip),%rax        # 241f4 <g_892>
    e3ea:	48 89 85 58 fb ff ff 	mov    %rax,-0x4a8(%rbp)
    e3f1:	48 8d 85 f0 ea ff ff 	lea    -0x1510(%rbp),%rax
    e3f8:	48 89 85 60 fb ff ff 	mov    %rax,-0x4a0(%rbp)
    e3ff:	48 8d 05 ee 5d 01 00 	lea    0x15dee(%rip),%rax        # 241f4 <g_892>
    e406:	48 89 85 68 fb ff ff 	mov    %rax,-0x498(%rbp)
    e40d:	48 8d 85 f0 ea ff ff 	lea    -0x1510(%rbp),%rax
    e414:	48 89 85 70 fb ff ff 	mov    %rax,-0x490(%rbp)
    e41b:	48 8d 05 d2 5d 01 00 	lea    0x15dd2(%rip),%rax        # 241f4 <g_892>
    e422:	48 89 85 78 fb ff ff 	mov    %rax,-0x488(%rbp)
    e429:	48 8d 85 f0 ea ff ff 	lea    -0x1510(%rbp),%rax
    e430:	48 89 85 80 fb ff ff 	mov    %rax,-0x480(%rbp)
    e437:	48 8d 05 b6 5d 01 00 	lea    0x15db6(%rip),%rax        # 241f4 <g_892>
    e43e:	48 89 85 88 fb ff ff 	mov    %rax,-0x478(%rbp)
    e445:	48 8d 85 f0 ea ff ff 	lea    -0x1510(%rbp),%rax
    e44c:	48 89 85 90 fb ff ff 	mov    %rax,-0x470(%rbp)
    e453:	48 8d 05 9a 5d 01 00 	lea    0x15d9a(%rip),%rax        # 241f4 <g_892>
    e45a:	48 89 85 98 fb ff ff 	mov    %rax,-0x468(%rbp)
    e461:	48 8d 85 f0 ea ff ff 	lea    -0x1510(%rbp),%rax
    e468:	48 89 85 a0 fb ff ff 	mov    %rax,-0x460(%rbp)
    e46f:	48 8d 05 7e 5d 01 00 	lea    0x15d7e(%rip),%rax        # 241f4 <g_892>
    e476:	48 89 85 a8 fb ff ff 	mov    %rax,-0x458(%rbp)
    e47d:	48 8d 85 f0 ea ff ff 	lea    -0x1510(%rbp),%rax
    e484:	48 89 85 b0 fb ff ff 	mov    %rax,-0x450(%rbp)
    e48b:	48 8d 05 62 5d 01 00 	lea    0x15d62(%rip),%rax        # 241f4 <g_892>
    e492:	48 89 85 b8 fb ff ff 	mov    %rax,-0x448(%rbp)
    e499:	48 8d 85 f0 ea ff ff 	lea    -0x1510(%rbp),%rax
    e4a0:	48 89 85 c0 fb ff ff 	mov    %rax,-0x440(%rbp)
    e4a7:	48 8d 05 46 5d 01 00 	lea    0x15d46(%rip),%rax        # 241f4 <g_892>
    e4ae:	48 89 85 c8 fb ff ff 	mov    %rax,-0x438(%rbp)
    e4b5:	48 8d 85 f0 ea ff ff 	lea    -0x1510(%rbp),%rax
    e4bc:	48 89 85 d0 fb ff ff 	mov    %rax,-0x430(%rbp)
    e4c3:	48 8d 05 2a 5d 01 00 	lea    0x15d2a(%rip),%rax        # 241f4 <g_892>
    e4ca:	48 89 85 d8 fb ff ff 	mov    %rax,-0x428(%rbp)
    e4d1:	48 8d 85 f0 ea ff ff 	lea    -0x1510(%rbp),%rax
    e4d8:	48 89 85 e0 fb ff ff 	mov    %rax,-0x420(%rbp)
    e4df:	48 8d 05 0e 5d 01 00 	lea    0x15d0e(%rip),%rax        # 241f4 <g_892>
    e4e6:	48 89 85 e8 fb ff ff 	mov    %rax,-0x418(%rbp)
    e4ed:	48 8d 85 f0 ea ff ff 	lea    -0x1510(%rbp),%rax
    e4f4:	48 89 85 f0 fb ff ff 	mov    %rax,-0x410(%rbp)
    e4fb:	48 8d 05 f2 5c 01 00 	lea    0x15cf2(%rip),%rax        # 241f4 <g_892>
    e502:	48 89 85 f8 fb ff ff 	mov    %rax,-0x408(%rbp)
    e509:	48 8d 85 f0 ea ff ff 	lea    -0x1510(%rbp),%rax
    e510:	48 89 85 00 fc ff ff 	mov    %rax,-0x400(%rbp)
    e517:	48 8d 05 d6 5c 01 00 	lea    0x15cd6(%rip),%rax        # 241f4 <g_892>
    e51e:	48 89 85 08 fc ff ff 	mov    %rax,-0x3f8(%rbp)
    e525:	48 8d 85 f0 ea ff ff 	lea    -0x1510(%rbp),%rax
    e52c:	48 89 85 10 fc ff ff 	mov    %rax,-0x3f0(%rbp)
    e533:	48 8d 05 ba 5c 01 00 	lea    0x15cba(%rip),%rax        # 241f4 <g_892>
    e53a:	48 89 85 18 fc ff ff 	mov    %rax,-0x3e8(%rbp)
    e541:	48 8d 85 f0 ea ff ff 	lea    -0x1510(%rbp),%rax
    e548:	48 89 85 20 fc ff ff 	mov    %rax,-0x3e0(%rbp)
    e54f:	48 8d 05 9e 5c 01 00 	lea    0x15c9e(%rip),%rax        # 241f4 <g_892>
    e556:	48 89 85 28 fc ff ff 	mov    %rax,-0x3d8(%rbp)
    e55d:	48 8d 85 f0 ea ff ff 	lea    -0x1510(%rbp),%rax
    e564:	48 89 85 30 fc ff ff 	mov    %rax,-0x3d0(%rbp)
    e56b:	48 8d 05 82 5c 01 00 	lea    0x15c82(%rip),%rax        # 241f4 <g_892>
    e572:	48 89 85 38 fc ff ff 	mov    %rax,-0x3c8(%rbp)
    e579:	48 8d 85 f0 ea ff ff 	lea    -0x1510(%rbp),%rax
    e580:	48 89 85 40 fc ff ff 	mov    %rax,-0x3c0(%rbp)
    e587:	48 8d 05 66 5c 01 00 	lea    0x15c66(%rip),%rax        # 241f4 <g_892>
    e58e:	48 89 85 48 fc ff ff 	mov    %rax,-0x3b8(%rbp)
    e595:	48 8d 85 f0 ea ff ff 	lea    -0x1510(%rbp),%rax
    e59c:	48 89 85 50 fc ff ff 	mov    %rax,-0x3b0(%rbp)
    e5a3:	48 8d 05 4a 5c 01 00 	lea    0x15c4a(%rip),%rax        # 241f4 <g_892>
    e5aa:	48 89 85 58 fc ff ff 	mov    %rax,-0x3a8(%rbp)
    e5b1:	48 8d 85 f0 ea ff ff 	lea    -0x1510(%rbp),%rax
    e5b8:	48 89 85 60 fc ff ff 	mov    %rax,-0x3a0(%rbp)
    e5bf:	48 8d 05 2e 5c 01 00 	lea    0x15c2e(%rip),%rax        # 241f4 <g_892>
    e5c6:	48 89 85 68 fc ff ff 	mov    %rax,-0x398(%rbp)
    e5cd:	48 8d 85 f0 ea ff ff 	lea    -0x1510(%rbp),%rax
    e5d4:	48 89 85 70 fc ff ff 	mov    %rax,-0x390(%rbp)
    e5db:	48 8d 05 12 5c 01 00 	lea    0x15c12(%rip),%rax        # 241f4 <g_892>
    e5e2:	48 89 85 78 fc ff ff 	mov    %rax,-0x388(%rbp)
    e5e9:	48 8d 85 f0 ea ff ff 	lea    -0x1510(%rbp),%rax
    e5f0:	48 89 85 80 fc ff ff 	mov    %rax,-0x380(%rbp)
    e5f7:	48 8d 05 f6 5b 01 00 	lea    0x15bf6(%rip),%rax        # 241f4 <g_892>
    e5fe:	48 89 85 88 fc ff ff 	mov    %rax,-0x378(%rbp)
    e605:	48 8d 85 d0 f2 ff ff 	lea    -0xd30(%rbp),%rax
    e60c:	48 83 c0 20          	add    $0x20,%rax
    e610:	48 89 85 00 ec ff ff 	mov    %rax,-0x1400(%rbp)
    e617:	48 8d 85 f0 eb ff ff 	lea    -0x1410(%rbp),%rax
    e61e:	48 89 85 48 ed ff ff 	mov    %rax,-0x12b8(%rbp)
    e625:	c7 85 80 eb ff ff bd 	movl   $0x7630fdbd,-0x1480(%rbp)
    e62c:	fd 30 76 
    e62f:	c7 85 10 eb ff ff 00 	movl   $0x0,-0x14f0(%rbp)
    e636:	00 00 00 
    e639:	eb 1e                	jmp    e659 <func_2+0x1dbb>
    e63b:	8b 85 10 eb ff ff    	mov    -0x14f0(%rbp),%eax
    e641:	48 98                	cltq   
    e643:	48 8d 15 1e 7e 01 00 	lea    0x17e1e(%rip),%rdx        # 26468 <g_2163>
    e64a:	48 89 94 c5 d0 f2 ff 	mov    %rdx,-0xd30(%rbp,%rax,8)
    e651:	ff 
    e652:	83 85 10 eb ff ff 01 	addl   $0x1,-0x14f0(%rbp)
    e659:	83 bd 10 eb ff ff 04 	cmpl   $0x4,-0x14f0(%rbp)
    e660:	7e d9                	jle    e63b <func_2+0x1d9d>
    e662:	8b 85 d8 ea ff ff    	mov    -0x1528(%rbp),%eax
    e668:	83 e0 01             	and    $0x1,%eax
    e66b:	89 85 d8 ea ff ff    	mov    %eax,-0x1528(%rbp)
    e671:	0f b6 85 cc ea ff ff 	movzbl -0x1534(%rbp),%eax
    e678:	83 e8 01             	sub    $0x1,%eax
    e67b:	88 85 cc ea ff ff    	mov    %al,-0x1534(%rbp)
    e681:	c7 85 e4 ea ff ff 02 	movl   $0x2,-0x151c(%rbp)
    e688:	00 00 00 
    e68b:	e9 17 05 00 00       	jmpq   eba7 <func_2+0x2309>
    e690:	48 c7 85 50 ed ff ff 	movq   $0x0,-0x12b0(%rbp)
    e697:	00 00 00 00 
    e69b:	48 8d 05 2e 5b 01 00 	lea    0x15b2e(%rip),%rax        # 241d0 <g_377>
    e6a2:	48 89 85 58 ed ff ff 	mov    %rax,-0x12a8(%rbp)
    e6a9:	48 8d 05 68 7d 01 00 	lea    0x17d68(%rip),%rax        # 26418 <g_1842+0x8>
    e6b0:	48 89 85 08 ec ff ff 	mov    %rax,-0x13f8(%rbp)
    e6b7:	48 8d 85 08 ec ff ff 	lea    -0x13f8(%rbp),%rax
    e6be:	48 89 85 60 ed ff ff 	mov    %rax,-0x12a0(%rbp)
    e6c5:	c7 85 84 eb ff ff 01 	movl   $0x1,-0x147c(%rbp)
    e6cc:	00 00 00 
    e6cf:	48 8d 05 72 80 01 00 	lea    0x18072(%rip),%rax        # 26748 <g_2724>
    e6d6:	48 89 85 68 ed ff ff 	mov    %rax,-0x1298(%rbp)
    e6dd:	c7 85 88 eb ff ff 56 	movl   $0x4c7e8356,-0x1478(%rbp)
    e6e4:	83 7e 4c 
    e6e7:	48 8d 05 62 5a 01 00 	lea    0x15a62(%rip),%rax        # 24150 <g_184>
    e6ee:	48 89 85 70 ed ff ff 	mov    %rax,-0x1290(%rbp)
    e6f5:	8b 85 b0 ee ff ff    	mov    -0x1150(%rbp),%eax
    e6fb:	85 c0                	test   %eax,%eax
    e6fd:	0f 85 b5 04 00 00    	jne    ebb8 <func_2+0x231a>
    e703:	48 8b 85 38 ed ff ff 	mov    -0x12c8(%rbp),%rax
    e70a:	8b 00                	mov    (%rax),%eax
    e70c:	0f bf d8             	movswl %ax,%ebx
    e70f:	48 8b 85 58 ed ff ff 	mov    -0x12a8(%rbp),%rax
    e716:	0f b6 00             	movzbl (%rax),%eax
    e719:	48 8b 95 b8 ea ff ff 	mov    -0x1548(%rbp),%rdx
    e720:	09 c2                	or     %eax,%edx
    e722:	48 8b 85 58 ed ff ff 	mov    -0x12a8(%rbp),%rax
    e729:	88 10                	mov    %dl,(%rax)
    e72b:	48 8b 85 b8 ea ff ff 	mov    -0x1548(%rbp),%rax
    e732:	89 85 b4 ea ff ff    	mov    %eax,-0x154c(%rbp)
    e738:	48 8b 85 20 ed ff ff 	mov    -0x12e0(%rbp),%rax
    e73f:	48 3b 85 20 ec ff ff 	cmp    -0x13e0(%rbp),%rax
    e746:	0f 9f c0             	setg   %al
    e749:	44 0f b6 f8          	movzbl %al,%r15d
    e74d:	0f b6 95 cc ea ff ff 	movzbl -0x1534(%rbp),%edx
    e754:	48 8b 85 38 ed ff ff 	mov    -0x12c8(%rbp),%rax
    e75b:	8b 08                	mov    (%rax),%ecx
    e75d:	48 8b 05 f4 7c 01 00 	mov    0x17cf4(%rip),%rax        # 26458 <g_2152>
    e764:	89 08                	mov    %ecx,(%rax)
    e766:	8b 00                	mov    (%rax),%eax
    e768:	89 85 ac ee ff ff    	mov    %eax,-0x1154(%rbp)
    e76e:	8b 85 ac ee ff ff    	mov    -0x1154(%rbp),%eax
    e774:	39 c2                	cmp    %eax,%edx
    e776:	0f 95 c0             	setne  %al
    e779:	0f b6 d0             	movzbl %al,%edx
    e77c:	48 8b 05 95 89 01 00 	mov    0x18995(%rip),%rax        # 27118 <g_2987>
    e783:	48 8b 00             	mov    (%rax),%rax
    e786:	48 8b 00             	mov    (%rax),%rax
    e789:	8b 00                	mov    (%rax),%eax
    e78b:	89 d6                	mov    %edx,%esi
    e78d:	89 c7                	mov    %eax,%edi
    e78f:	e8 3c d7 ff ff       	callq  bed0 <safe_sub_func_uint32_t_u_u>
    e794:	89 c0                	mov    %eax,%eax
    e796:	48 89 85 a8 ea ff ff 	mov    %rax,-0x1558(%rbp)
    e79d:	4c 0f be a5 d0 ea ff 	movsbq -0x1530(%rbp),%r12
    e7a4:	ff 
    e7a5:	8b 85 08 ee ff ff    	mov    -0x11f8(%rbp),%eax
    e7ab:	4c 63 e8             	movslq %eax,%r13
    e7ae:	48 8b 85 b8 ea ff ff 	mov    -0x1548(%rbp),%rax
    e7b5:	44 0f b7 f0          	movzwl %ax,%r14d
    e7b9:	81 bd 3c eb ff ff d6 	cmpl   $0x3bd6,-0x14c4(%rbp)
    e7c0:	3b 00 00 
    e7c3:	0f 9e c0             	setle  %al
    e7c6:	0f b6 c0             	movzbl %al,%eax
    e7c9:	8b 95 34 eb ff ff    	mov    -0x14cc(%rbp),%edx
    e7cf:	89 d6                	mov    %edx,%esi
    e7d1:	89 c7                	mov    %eax,%edi
    e7d3:	e8 f4 ce ff ff       	callq  b6cc <safe_mod_func_int32_t_s_s>
    e7d8:	0b 85 84 eb ff ff    	or     -0x147c(%rbp),%eax
    e7de:	89 c2                	mov    %eax,%edx
    e7e0:	8b 85 e4 ea ff ff    	mov    -0x151c(%rbp),%eax
    e7e6:	39 c2                	cmp    %eax,%edx
    e7e8:	0f 9f c0             	setg   %al
    e7eb:	0f b6 c0             	movzbl %al,%eax
    e7ee:	44 89 f6             	mov    %r14d,%esi
    e7f1:	89 c7                	mov    %eax,%edi
    e7f3:	e8 96 d5 ff ff       	callq  bd8e <safe_div_func_uint16_t_u_u>
    e7f8:	89 c2                	mov    %eax,%edx
    e7fa:	48 8b 05 bf 7b 01 00 	mov    0x17bbf(%rip),%rax        # 263c0 <g_1058>
    e801:	0f b7 d2             	movzwl %dx,%edx
    e804:	89 10                	mov    %edx,(%rax)
    e806:	48 8b 85 b8 ea ff ff 	mov    -0x1548(%rbp),%rax
    e80d:	48 85 c0             	test   %rax,%rax
    e810:	75 0a                	jne    e81c <func_2+0x1f7e>
    e812:	8b 85 08 ee ff ff    	mov    -0x11f8(%rbp),%eax
    e818:	85 c0                	test   %eax,%eax
    e81a:	74 07                	je     e823 <func_2+0x1f85>
    e81c:	b8 01 00 00 00       	mov    $0x1,%eax
    e821:	eb 05                	jmp    e828 <func_2+0x1f8a>
    e823:	b8 00 00 00 00       	mov    $0x0,%eax
    e828:	48 98                	cltq   
    e82a:	4c 89 ee             	mov    %r13,%rsi
    e82d:	48 89 c7             	mov    %rax,%rdi
    e830:	e8 c2 d1 ff ff       	callq  b9f7 <safe_div_func_int64_t_s_s>
    e835:	4c 89 e6             	mov    %r12,%rsi
    e838:	48 89 c7             	mov    %rax,%rdi
    e83b:	e8 0b d8 ff ff       	callq  c04b <safe_sub_func_uint64_t_u_u>
    e840:	48 39 85 a8 ea ff ff 	cmp    %rax,-0x1558(%rbp)
    e847:	0f 93 c0             	setae  %al
    e84a:	0f b6 d0             	movzbl %al,%edx
    e84d:	48 8b 85 60 ed ff ff 	mov    -0x12a0(%rbp),%rax
    e854:	48 c7 00 00 00 00 00 	movq   $0x0,(%rax)
    e85b:	48 8b 85 60 ed ff ff 	mov    -0x12a0(%rbp),%rax
    e862:	48 8b 00             	mov    (%rax),%rax
    e865:	48 8d 0d ac 7b 01 00 	lea    0x17bac(%rip),%rcx        # 26418 <g_1842+0x8>
    e86c:	48 39 c8             	cmp    %rcx,%rax
    e86f:	0f 94 c0             	sete   %al
    e872:	0f b6 c0             	movzbl %al,%eax
    e875:	89 d6                	mov    %edx,%esi
    e877:	89 c7                	mov    %eax,%edi
    e879:	e8 15 d3 ff ff       	callq  bb93 <safe_mul_func_uint8_t_u_u>
    e87e:	0f b6 c0             	movzbl %al,%eax
    e881:	41 39 c7             	cmp    %eax,%r15d
    e884:	0f 95 c0             	setne  %al
    e887:	0f b6 c0             	movzbl %al,%eax
    e88a:	8b b5 b4 ea ff ff    	mov    -0x154c(%rbp),%esi
    e890:	89 c7                	mov    %eax,%edi
    e892:	e8 4a cc ff ff       	callq  b4e1 <safe_lshift_func_int16_t_s_u>
    e897:	48 0f bf d0          	movswq %ax,%rdx
    e89b:	48 8b 85 b8 ea ff ff 	mov    -0x1548(%rbp),%rax
    e8a2:	48 39 c2             	cmp    %rax,%rdx
    e8a5:	89 de                	mov    %ebx,%esi
    e8a7:	bf 00 00 00 00       	mov    $0x0,%edi
    e8ac:	e8 a4 cb ff ff       	callq  b455 <safe_div_func_int16_t_s_s>
    e8b1:	98                   	cwtl   
    e8b2:	89 85 84 eb ff ff    	mov    %eax,-0x147c(%rbp)
    e8b8:	48 81 bd 28 ec ff ff 	cmpq   $0x6991,-0x13d8(%rbp)
    e8bf:	91 69 00 00 
    e8c3:	0f 96 c0             	setbe  %al
    e8c6:	0f b6 d0             	movzbl %al,%edx
    e8c9:	48 8b 05 a0 57 01 00 	mov    0x157a0(%rip),%rax        # 24070 <g_21+0x30>
    e8d0:	48 21 d0             	and    %rdx,%rax
    e8d3:	48 85 c0             	test   %rax,%rax
    e8d6:	74 1e                	je     e8f6 <func_2+0x2058>
    e8d8:	48 b8 34 e9 ac ce 1d 	movabs $0x64efa01dceace934,%rax
    e8df:	a0 ef 64 
    e8e2:	48 89 85 78 ed ff ff 	mov    %rax,-0x1288(%rbp)
    e8e9:	48 83 ad 78 ed ff ff 	subq   $0x1,-0x1288(%rbp)
    e8f0:	01 
    e8f1:	e9 e3 01 00 00       	jmpq   ead9 <func_2+0x223b>
    e8f6:	c6 85 d1 ea ff ff f2 	movb   $0xf2,-0x152f(%rbp)
    e8fd:	c7 85 8c eb ff ff bd 	movl   $0xa1f9aabd,-0x1474(%rbp)
    e904:	aa f9 a1 
    e907:	c7 85 90 eb ff ff cd 	movl   $0xd3ad6bcd,-0x1470(%rbp)
    e90e:	6b ad d3 
    e911:	c7 85 94 eb ff ff 00 	movl   $0x0,-0x146c(%rbp)
    e918:	00 00 00 
    e91b:	c7 85 98 eb ff ff ff 	movl   $0xffffffff,-0x1468(%rbp)
    e922:	ff ff ff 
    e925:	c7 85 9c eb ff ff 31 	movl   $0xfe14d531,-0x1464(%rbp)
    e92c:	d5 14 fe 
    e92f:	c7 85 a0 eb ff ff 83 	movl   $0xf1bf8083,-0x1460(%rbp)
    e936:	80 bf f1 
    e939:	c7 85 a4 eb ff ff 01 	movl   $0x1,-0x145c(%rbp)
    e940:	00 00 00 
    e943:	c7 85 a8 eb ff ff f7 	movl   $0xfffffff7,-0x1458(%rbp)
    e94a:	ff ff ff 
    e94d:	48 83 bd 58 ed ff ff 	cmpq   $0x0,-0x12a8(%rbp)
    e954:	00 
    e955:	41 0f 95 c5          	setne  %r13b
    e959:	48 83 bd 68 ed ff ff 	cmpq   $0x0,-0x1298(%rbp)
    e960:	00 
    e961:	0f 94 c0             	sete   %al
    e964:	0f b6 d8             	movzbl %al,%ebx
    e967:	48 8b 05 4a 7a 01 00 	mov    0x17a4a(%rip),%rax        # 263b8 <g_965>
    e96e:	48 8b 00             	mov    (%rax),%rax
    e971:	49 89 c4             	mov    %rax,%r12
    e974:	8b 85 84 eb ff ff    	mov    -0x147c(%rbp),%eax
    e97a:	48 98                	cltq   
    e97c:	48 89 c6             	mov    %rax,%rsi
    e97f:	48 bf 0f 24 82 ab 5b 	movabs $0xf805495bab82240f,%rdi
    e986:	49 05 f8 
    e989:	e8 a0 d6 ff ff       	callq  c02e <safe_add_func_uint64_t_u_u>
    e98e:	0f b7 d0             	movzwl %ax,%edx
    e991:	48 8b 05 60 7a 01 00 	mov    0x17a60(%rip),%rax        # 263f8 <g_1402>
    e998:	48 8b 00             	mov    (%rax),%rax
    e99b:	48 8b 00             	mov    (%rax),%rax
    e99e:	0f b7 00             	movzwl (%rax),%eax
    e9a1:	0f b7 c0             	movzwl %ax,%eax
    e9a4:	89 d6                	mov    %edx,%esi
    e9a6:	89 c7                	mov    %eax,%edi
    e9a8:	e8 af d3 ff ff       	callq  bd5c <safe_mod_func_uint16_t_u_u>
    e9ad:	0f b7 c0             	movzwl %ax,%eax
    e9b0:	be 07 00 00 00       	mov    $0x7,%esi
    e9b5:	89 c7                	mov    %eax,%edi
    e9b7:	e8 d2 d3 ff ff       	callq  bd8e <safe_div_func_uint16_t_u_u>
    e9bc:	0f b7 c0             	movzwl %ax,%eax
    e9bf:	4c 89 e6             	mov    %r12,%rsi
    e9c2:	48 89 c7             	mov    %rax,%rdi
    e9c5:	e8 81 d6 ff ff       	callq  c04b <safe_sub_func_uint64_t_u_u>
    e9ca:	0f b7 d0             	movzwl %ax,%edx
    e9cd:	0f b6 85 d1 ea ff ff 	movzbl -0x152f(%rbp),%eax
    e9d4:	89 d6                	mov    %edx,%esi
    e9d6:	89 c7                	mov    %eax,%edi
    e9d8:	e8 b1 d3 ff ff       	callq  bd8e <safe_div_func_uint16_t_u_u>
    e9dd:	0f b6 d0             	movzbl %al,%edx
    e9e0:	8b 85 84 eb ff ff    	mov    -0x147c(%rbp),%eax
    e9e6:	0f b6 c0             	movzbl %al,%eax
    e9e9:	89 d6                	mov    %edx,%esi
    e9eb:	89 c7                	mov    %eax,%edi
    e9ed:	e8 68 d1 ff ff       	callq  bb5a <safe_add_func_uint8_t_u_u>
    e9f2:	0f be c0             	movsbl %al,%eax
    e9f5:	be 01 00 00 00       	mov    $0x1,%esi
    e9fa:	89 c7                	mov    %eax,%edi
    e9fc:	e8 ed c8 ff ff       	callq  b2ee <safe_lshift_func_int8_t_s_u>
    ea01:	0f be c0             	movsbl %al,%eax
    ea04:	39 c3                	cmp    %eax,%ebx
    ea06:	0f 95 c0             	setne  %al
    ea09:	44 31 e8             	xor    %r13d,%eax
    ea0c:	0f b6 d0             	movzbl %al,%edx
    ea0f:	48 8b 85 b8 ea ff ff 	mov    -0x1548(%rbp),%rax
    ea16:	48 39 c2             	cmp    %rax,%rdx
    ea19:	0f 9f c0             	setg   %al
    ea1c:	0f b6 c8             	movzbl %al,%ecx
    ea1f:	48 8b 05 9a 79 01 00 	mov    0x1799a(%rip),%rax        # 263c0 <g_1058>
    ea26:	8b 10                	mov    (%rax),%edx
    ea28:	48 8b 05 91 79 01 00 	mov    0x17991(%rip),%rax        # 263c0 <g_1058>
    ea2f:	31 ca                	xor    %ecx,%edx
    ea31:	89 10                	mov    %edx,(%rax)
    ea33:	48 83 ad 10 ec ff ff 	subq   $0x1,-0x13f0(%rbp)
    ea3a:	01 
    ea3b:	8b 85 90 eb ff ff    	mov    -0x1470(%rbp),%eax
    ea41:	0f b6 d8             	movzbl %al,%ebx
    ea44:	48 8b 05 b5 9a 01 00 	mov    0x19ab5(%rip),%rax        # 28500 <g_3285>
    ea4b:	48 8d 15 7e 93 01 00 	lea    0x1937e(%rip),%rdx        # 27dd0 <g_3286+0x50>
    ea52:	48 39 d0             	cmp    %rdx,%rax
    ea55:	0f 95 c0             	setne  %al
    ea58:	44 0f b6 e0          	movzbl %al,%r12d
    ea5c:	be 7a bd 00 00       	mov    $0xbd7a,%esi
    ea61:	bf fe ff 00 00       	mov    $0xfffe,%edi
    ea66:	e8 23 d3 ff ff       	callq  bd8e <safe_div_func_uint16_t_u_u>
    ea6b:	0f b7 c0             	movzwl %ax,%eax
    ea6e:	41 39 c4             	cmp    %eax,%r12d
    ea71:	0f 9c c0             	setl   %al
    ea74:	0f b6 c0             	movzbl %al,%eax
    ea77:	89 de                	mov    %ebx,%esi
    ea79:	89 c7                	mov    %eax,%edi
    ea7b:	e8 5b d1 ff ff       	callq  bbdb <safe_div_func_uint8_t_u_u>
    ea80:	84 c0                	test   %al,%al
    ea82:	75 43                	jne    eac7 <func_2+0x2229>
    ea84:	48 8b 85 b8 ea ff ff 	mov    -0x1548(%rbp),%rax
    ea8b:	0f bf d8             	movswl %ax,%ebx
    ea8e:	be 01 00 00 00       	mov    $0x1,%esi
    ea93:	bf 96 00 00 00       	mov    $0x96,%edi
    ea98:	e8 21 d2 ff ff       	callq  bcbe <safe_rshift_func_uint8_t_u_u>
    ea9d:	89 de                	mov    %ebx,%esi
    ea9f:	bf 00 00 00 00       	mov    $0x0,%edi
    eaa4:	e8 0a c9 ff ff       	callq  b3b3 <safe_add_func_int16_t_s_s>
    eaa9:	34 c6                	xor    $0xc6,%al
    eaab:	48 0f bf d0          	movswq %ax,%rdx
    eaaf:	48 8b 85 b8 ea ff ff 	mov    -0x1548(%rbp),%rax
    eab6:	48 39 c2             	cmp    %rax,%rdx
    eab9:	75 0c                	jne    eac7 <func_2+0x2229>
    eabb:	48 8b 85 b8 ea ff ff 	mov    -0x1548(%rbp),%rax
    eac2:	48 85 c0             	test   %rax,%rax
    eac5:	74 07                	je     eace <func_2+0x2230>
    eac7:	b8 01 00 00 00       	mov    $0x1,%eax
    eacc:	eb 05                	jmp    ead3 <func_2+0x2235>
    eace:	b8 00 00 00 00       	mov    $0x0,%eax
    ead3:	89 85 ec ea ff ff    	mov    %eax,-0x1514(%rbp)
    ead9:	c6 85 cb ea ff ff 00 	movb   $0x0,-0x1535(%rbp)
    eae0:	eb 4e                	jmp    eb30 <func_2+0x2292>
    eae2:	48 8b 05 3f 79 01 00 	mov    0x1793f(%rip),%rax        # 26428 <g_1885>
    eae9:	48 8b 00             	mov    (%rax),%rax
    eaec:	48 8d 95 ec ea ff ff 	lea    -0x1514(%rbp),%rdx
    eaf3:	48 89 10             	mov    %rdx,(%rax)
    eaf6:	0f b6 05 ef 56 01 00 	movzbl 0x156ef(%rip),%eax        # 241ec <g_539>
    eafd:	0f be c0             	movsbl %al,%eax
    eb00:	48 98                	cltq   
    eb02:	48 8d 14 c5 00 00 00 	lea    0x0(,%rax,8),%rdx
    eb09:	00 
    eb0a:	48 8d 05 2f a0 01 00 	lea    0x1a02f(%rip),%rax        # 28b40 <g_2930>
    eb11:	48 8b 04 02          	mov    (%rdx,%rax,1),%rax
    eb15:	89 c2                	mov    %eax,%edx
    eb17:	48 8b 85 38 ed ff ff 	mov    -0x12c8(%rbp),%rax
    eb1e:	89 10                	mov    %edx,(%rax)
    eb20:	0f b6 85 cb ea ff ff 	movzbl -0x1535(%rbp),%eax
    eb27:	83 c0 01             	add    $0x1,%eax
    eb2a:	88 85 cb ea ff ff    	mov    %al,-0x1535(%rbp)
    eb30:	80 bd cb ea ff ff 06 	cmpb   $0x6,-0x1535(%rbp)
    eb37:	7e a9                	jle    eae2 <func_2+0x2244>
    eb39:	8b 85 dc ea ff ff    	mov    -0x1524(%rbp),%eax
    eb3f:	83 f8 01             	cmp    $0x1,%eax
    eb42:	0f 9f c0             	setg   %al
    eb45:	0f b6 d0             	movzbl %al,%edx
    eb48:	8b 85 0c ee ff ff    	mov    -0x11f4(%rbp),%eax
    eb4e:	39 c2                	cmp    %eax,%edx
    eb50:	0f 9c c0             	setl   %al
    eb53:	89 c2                	mov    %eax,%edx
    eb55:	48 8b 85 70 ed ff ff 	mov    -0x1290(%rbp),%rax
    eb5c:	88 10                	mov    %dl,(%rax)
    eb5e:	48 8b 85 70 ed ff ff 	mov    -0x1290(%rbp),%rax
    eb65:	0f b6 00             	movzbl (%rax),%eax
    eb68:	0f b6 c0             	movzbl %al,%eax
    eb6b:	89 c6                	mov    %eax,%esi
    eb6d:	bf 71 00 00 00       	mov    $0x71,%edi
    eb72:	e8 1c d0 ff ff       	callq  bb93 <safe_mul_func_uint8_t_u_u>
    eb77:	48 8b 05 b2 7a 01 00 	mov    0x17ab2(%rip),%rax        # 26630 <g_2651>
    eb7e:	48 8b 00             	mov    (%rax),%rax
    eb81:	8b 00                	mov    (%rax),%eax
    eb83:	85 c0                	test   %eax,%eax
    eb85:	0f 9f c0             	setg   %al
    eb88:	0f b6 c0             	movzbl %al,%eax
    eb8b:	f7 d0                	not    %eax
    eb8d:	89 c2                	mov    %eax,%edx
    eb8f:	48 8b 85 38 ed ff ff 	mov    -0x12c8(%rbp),%rax
    eb96:	89 10                	mov    %edx,(%rax)
    eb98:	8b 85 e4 ea ff ff    	mov    -0x151c(%rbp),%eax
    eb9e:	83 c0 01             	add    $0x1,%eax
    eba1:	89 85 e4 ea ff ff    	mov    %eax,-0x151c(%rbp)
    eba7:	8b 85 e4 ea ff ff    	mov    -0x151c(%rbp),%eax
    ebad:	83 f8 07             	cmp    $0x7,%eax
    ebb0:	0f 8e da fa ff ff    	jle    e690 <func_2+0x1df2>
    ebb6:	eb 01                	jmp    ebb9 <func_2+0x231b>
    ebb8:	90                   	nop
    ebb9:	c6 05 91 55 01 00 00 	movb   $0x0,0x15591(%rip)        # 24151 <g_188>
    ebc0:	e9 2e 03 00 00       	jmpq   eef3 <func_2+0x2655>
    ebc5:	c7 85 ac eb ff ff 01 	movl   $0x1,-0x1454(%rbp)
    ebcc:	00 00 00 
    ebcf:	48 8d 05 c6 54 01 00 	lea    0x154c6(%rip),%rax        # 2409c <g_113>
    ebd6:	48 89 85 08 ec ff ff 	mov    %rax,-0x13f8(%rbp)
    ebdd:	48 c7 85 80 ed ff ff 	movq   $0x0,-0x1280(%rbp)
    ebe4:	00 00 00 00 
    ebe8:	48 8d 85 08 ec ff ff 	lea    -0x13f8(%rbp),%rax
    ebef:	48 89 85 88 ed ff ff 	mov    %rax,-0x1278(%rbp)
    ebf6:	48 8d 85 08 ec ff ff 	lea    -0x13f8(%rbp),%rax
    ebfd:	48 89 85 90 ed ff ff 	mov    %rax,-0x1270(%rbp)
    ec04:	8b 85 ac eb ff ff    	mov    -0x1454(%rbp),%eax
    ec0a:	98                   	cwtl   
    ec0b:	be 0e 00 00 00       	mov    $0xe,%esi
    ec10:	89 c7                	mov    %eax,%edi
    ec12:	e8 7b c8 ff ff       	callq  b492 <safe_lshift_func_int16_t_s_s>
    ec17:	48 8b 85 38 ed ff ff 	mov    -0x12c8(%rbp),%rax
    ec1e:	8b 00                	mov    (%rax),%eax
    ec20:	0f be d8             	movsbl %al,%ebx
    ec23:	48 8b 85 b8 ea ff ff 	mov    -0x1548(%rbp),%rax
    ec2a:	48 85 c0             	test   %rax,%rax
    ec2d:	0f 85 9f 00 00 00    	jne    ecd2 <func_2+0x2434>
    ec33:	8b 85 ac eb ff ff    	mov    -0x1454(%rbp),%eax
    ec39:	44 0f be e0          	movsbl %al,%r12d
    ec3d:	48 83 bd 40 ed ff ff 	cmpq   $0x0,-0x12c0(%rbp)
    ec44:	00 
    ec45:	0f 94 c0             	sete   %al
    ec48:	0f b6 c0             	movzbl %al,%eax
    ec4b:	be 8e 00 00 00       	mov    $0x8e,%esi
    ec50:	89 c7                	mov    %eax,%edi
    ec52:	e8 03 cf ff ff       	callq  bb5a <safe_add_func_uint8_t_u_u>
    ec57:	44 89 e6             	mov    %r12d,%esi
    ec5a:	bf 9b ff ff ff       	mov    $0xffffff9b,%edi
    ec5f:	e8 ae c5 ff ff       	callq  b212 <safe_mul_func_int8_t_s_s>
    ec64:	84 c0                	test   %al,%al
    ec66:	74 10                	je     ec78 <func_2+0x23da>
    ec68:	83 bd 60 eb ff ff 00 	cmpl   $0x0,-0x14a0(%rbp)
    ec6f:	74 07                	je     ec78 <func_2+0x23da>
    ec71:	b8 01 00 00 00       	mov    $0x1,%eax
    ec76:	eb 05                	jmp    ec7d <func_2+0x23df>
    ec78:	b8 00 00 00 00       	mov    $0x0,%eax
    ec7d:	0b 85 3c eb ff ff    	or     -0x14c4(%rbp),%eax
    ec83:	89 c2                	mov    %eax,%edx
    ec85:	48 8b 8d 08 ec ff ff 	mov    -0x13f8(%rbp),%rcx
    ec8c:	48 8b 85 88 ed ff ff 	mov    -0x1278(%rbp),%rax
    ec93:	48 89 08             	mov    %rcx,(%rax)
    ec96:	48 8b 85 88 ed ff ff 	mov    -0x1278(%rbp),%rax
    ec9d:	48 8b 08             	mov    (%rax),%rcx
    eca0:	48 8b 85 f0 eb ff ff 	mov    -0x1410(%rbp),%rax
    eca7:	48 39 c1             	cmp    %rax,%rcx
    ecaa:	0f 95 c0             	setne  %al
    ecad:	0f b6 c0             	movzbl %al,%eax
    ecb0:	89 d6                	mov    %edx,%esi
    ecb2:	89 c7                	mov    %eax,%edi
    ecb4:	e8 13 ca ff ff       	callq  b6cc <safe_mod_func_int32_t_s_s>
    ecb9:	48 63 d0             	movslq %eax,%rdx
    ecbc:	48 8b 85 b8 ea ff ff 	mov    -0x1548(%rbp),%rax
    ecc3:	48 39 c2             	cmp    %rax,%rdx
    ecc6:	48 8b 85 b8 ea ff ff 	mov    -0x1548(%rbp),%rax
    eccd:	48 85 c0             	test   %rax,%rax
    ecd0:	74 07                	je     ecd9 <func_2+0x243b>
    ecd2:	b8 01 00 00 00       	mov    $0x1,%eax
    ecd7:	eb 05                	jmp    ecde <func_2+0x2440>
    ecd9:	b8 00 00 00 00       	mov    $0x0,%eax
    ecde:	3d e5 90 00 00       	cmp    $0x90e5,%eax
    ece3:	0f 94 c0             	sete   %al
    ece6:	0f b6 d0             	movzbl %al,%edx
    ece9:	48 8b 85 b8 ea ff ff 	mov    -0x1548(%rbp),%rax
    ecf0:	48 39 c2             	cmp    %rax,%rdx
    ecf3:	0f 9e c0             	setle  %al
    ecf6:	0f b6 c0             	movzbl %al,%eax
    ecf9:	be 00 00 00 00       	mov    $0x0,%esi
    ecfe:	89 c7                	mov    %eax,%edi
    ed00:	e8 cf c4 ff ff       	callq  b1d4 <safe_add_func_int8_t_s_s>
    ed05:	48 8b 15 54 77 01 00 	mov    0x17754(%rip),%rdx        # 26460 <g_2151>
    ed0c:	48 8b 12             	mov    (%rdx),%rdx
    ed0f:	8b 0a                	mov    (%rdx),%ecx
    ed11:	0f be d0             	movsbl %al,%edx
    ed14:	48 8b 05 45 77 01 00 	mov    0x17745(%rip),%rax        # 26460 <g_2151>
    ed1b:	48 8b 00             	mov    (%rax),%rax
    ed1e:	21 ca                	and    %ecx,%edx
    ed20:	89 10                	mov    %edx,(%rax)
    ed22:	48 8b 05 3f 77 01 00 	mov    0x1773f(%rip),%rax        # 26468 <g_2163>
    ed29:	0f b6 00             	movzbl (%rax),%eax
    ed2c:	48 8b 95 b8 ea ff ff 	mov    -0x1548(%rbp),%rdx
    ed33:	31 d0                	xor    %edx,%eax
    ed35:	0f be c0             	movsbl %al,%eax
    ed38:	89 de                	mov    %ebx,%esi
    ed3a:	89 c7                	mov    %eax,%edi
    ed3c:	e8 d1 c4 ff ff       	callq  b212 <safe_mul_func_int8_t_s_s>
    ed41:	48 8b 85 38 ed ff ff 	mov    -0x12c8(%rbp),%rax
    ed48:	8b 00                	mov    (%rax),%eax
    ed4a:	48 63 d0             	movslq %eax,%rdx
    ed4d:	48 8b 85 b8 ea ff ff 	mov    -0x1548(%rbp),%rax
    ed54:	48 39 c2             	cmp    %rax,%rdx
    ed57:	0f 9e c0             	setle  %al
    ed5a:	0f b6 d8             	movzbl %al,%ebx
    ed5d:	48 8b 85 00 ec ff ff 	mov    -0x1400(%rbp),%rax
    ed64:	48 85 c0             	test   %rax,%rax
    ed67:	0f 95 c0             	setne  %al
    ed6a:	0f b6 c0             	movzbl %al,%eax
    ed6d:	be 03 00 00 00       	mov    $0x3,%esi
    ed72:	89 c7                	mov    %eax,%edi
    ed74:	e8 d3 ce ff ff       	callq  bc4c <safe_lshift_func_uint8_t_u_u>
    ed79:	0f b6 c0             	movzbl %al,%eax
    ed7c:	89 de                	mov    %ebx,%esi
    ed7e:	89 c7                	mov    %eax,%edi
    ed80:	e8 0e ce ff ff       	callq  bb93 <safe_mul_func_uint8_t_u_u>
    ed85:	48 8b 85 38 ed ff ff 	mov    -0x12c8(%rbp),%rax
    ed8c:	8b 00                	mov    (%rax),%eax
    ed8e:	48 63 d0             	movslq %eax,%rdx
    ed91:	48 8b 85 b8 ea ff ff 	mov    -0x1548(%rbp),%rax
    ed98:	48 39 c2             	cmp    %rax,%rdx
    ed9b:	0f 94 c0             	sete   %al
    ed9e:	0f b6 d0             	movzbl %al,%edx
    eda1:	8b 85 0c ee ff ff    	mov    -0x11f4(%rbp),%eax
    eda7:	21 d0                	and    %edx,%eax
    eda9:	89 85 0c ee ff ff    	mov    %eax,-0x11f4(%rbp)
    edaf:	c6 05 37 54 01 00 02 	movb   $0x2,0x15437(%rip)        # 241ed <g_867>
    edb6:	e9 16 01 00 00       	jmpq   eed1 <func_2+0x2633>
    edbb:	48 8d 85 f4 ea ff ff 	lea    -0x150c(%rbp),%rax
    edc2:	48 89 85 98 ed ff ff 	mov    %rax,-0x1268(%rbp)
    edc9:	0f b6 85 05 f0 ff ff 	movzbl -0xffb(%rbp),%eax
    edd0:	84 c0                	test   %al,%al
    edd2:	0f 85 0a 01 00 00    	jne    eee2 <func_2+0x2644>
    edd8:	48 8b 85 58 fb ff ff 	mov    -0x4a8(%rbp),%rax
    eddf:	48 85 c0             	test   %rax,%rax
    ede2:	0f 84 90 00 00 00    	je     ee78 <func_2+0x25da>
    ede8:	48 8b 85 90 ed ff ff 	mov    -0x1270(%rbp),%rax
    edef:	48 89 85 48 ed ff ff 	mov    %rax,-0x12b8(%rbp)
    edf6:	48 8b 85 28 f5 ff ff 	mov    -0xad8(%rbp),%rax
    edfd:	48 39 85 48 ed ff ff 	cmp    %rax,-0x12b8(%rbp)
    ee04:	0f 94 c0             	sete   %al
    ee07:	0f b6 c0             	movzbl %al,%eax
    ee0a:	be 06 00 00 00       	mov    $0x6,%esi
    ee0f:	89 c7                	mov    %eax,%edi
    ee11:	e8 4d c7 ff ff       	callq  b563 <safe_rshift_func_int16_t_s_u>
    ee16:	98                   	cwtl   
    ee17:	c7 85 b0 ee ff ff 05 	movl   $0x5,-0x1150(%rbp)
    ee1e:	00 00 00 
    ee21:	89 c6                	mov    %eax,%esi
    ee23:	bf 05 00 00 00       	mov    $0x5,%edi
    ee28:	e8 e9 c5 ff ff       	callq  b416 <safe_mod_func_int16_t_s_s>
    ee2d:	48 8b 85 10 f2 ff ff 	mov    -0xdf0(%rbp),%rax
    ee34:	48 85 c0             	test   %rax,%rax
    ee37:	8b 85 ac eb ff ff    	mov    -0x1454(%rbp),%eax
    ee3d:	3b 85 80 eb ff ff    	cmp    -0x1480(%rbp),%eax
    ee43:	48 8b 05 f6 77 01 00 	mov    0x177f6(%rip),%rax        # 26640 <g_2690>
    ee4a:	48 8b 10             	mov    (%rax),%rdx
    ee4d:	48 8d 85 00 ec ff ff 	lea    -0x1400(%rbp),%rax
    ee54:	48 39 c2             	cmp    %rax,%rdx
    ee57:	0f 95 c0             	setne  %al
    ee5a:	0f b6 c0             	movzbl %al,%eax
    ee5d:	89 c6                	mov    %eax,%esi
    ee5f:	bf 00 00 00 00       	mov    $0x0,%edi
    ee64:	e8 96 ce ff ff       	callq  bcff <safe_add_func_uint16_t_u_u>
    ee69:	0f b7 d0             	movzwl %ax,%edx
    ee6c:	48 8b 85 b8 ea ff ff 	mov    -0x1548(%rbp),%rax
    ee73:	48 39 c2             	cmp    %rax,%rdx
    ee76:	74 07                	je     ee7f <func_2+0x25e1>
    ee78:	ba 01 00 00 00       	mov    $0x1,%edx
    ee7d:	eb 05                	jmp    ee84 <func_2+0x25e6>
    ee7f:	ba 00 00 00 00       	mov    $0x0,%edx
    ee84:	48 8b 05 75 82 01 00 	mov    0x18275(%rip),%rax        # 27100 <g_2877>
    ee8b:	0f b7 00             	movzwl (%rax),%eax
    ee8e:	0f b7 c0             	movzwl %ax,%eax
    ee91:	39 c2                	cmp    %eax,%edx
    ee93:	0f 9f c0             	setg   %al
    ee96:	0f b6 d0             	movzbl %al,%edx
    ee99:	48 8b 85 38 ed ff ff 	mov    -0x12c8(%rbp),%rax
    eea0:	8b 00                	mov    (%rax),%eax
    eea2:	09 c2                	or     %eax,%edx
    eea4:	48 8b 85 38 ed ff ff 	mov    -0x12c8(%rbp),%rax
    eeab:	89 10                	mov    %edx,(%rax)
    eead:	48 8b 05 74 75 01 00 	mov    0x17574(%rip),%rax        # 26428 <g_1885>
    eeb4:	48 8b 00             	mov    (%rax),%rax
    eeb7:	48 8b 95 98 ed ff ff 	mov    -0x1268(%rbp),%rdx
    eebe:	48 89 10             	mov    %rdx,(%rax)
    eec1:	0f b6 05 25 53 01 00 	movzbl 0x15325(%rip),%eax        # 241ed <g_867>
    eec8:	83 c0 01             	add    $0x1,%eax
    eecb:	88 05 1c 53 01 00    	mov    %al,0x1531c(%rip)        # 241ed <g_867>
    eed1:	0f b6 05 15 53 01 00 	movzbl 0x15315(%rip),%eax        # 241ed <g_867>
    eed8:	3c 07                	cmp    $0x7,%al
    eeda:	0f 86 db fe ff ff    	jbe    edbb <func_2+0x251d>
    eee0:	eb 01                	jmp    eee3 <func_2+0x2645>
    eee2:	90                   	nop
    eee3:	0f b6 05 67 52 01 00 	movzbl 0x15267(%rip),%eax        # 24151 <g_188>
    eeea:	83 c0 01             	add    $0x1,%eax
    eeed:	88 05 5e 52 01 00    	mov    %al,0x1525e(%rip)        # 24151 <g_188>
    eef3:	0f b6 05 57 52 01 00 	movzbl 0x15257(%rip),%eax        # 24151 <g_188>
    eefa:	3c 07                	cmp    $0x7,%al
    eefc:	0f 86 c3 fc ff ff    	jbe    ebc5 <func_2+0x2327>
    ef02:	8b 05 48 53 01 00    	mov    0x15348(%rip),%eax        # 24250 <g_2286>
    ef08:	83 c0 01             	add    $0x1,%eax
    ef0b:	89 05 3f 53 01 00    	mov    %eax,0x1533f(%rip)        # 24250 <g_2286>
    ef11:	8b 05 39 53 01 00    	mov    0x15339(%rip),%eax        # 24250 <g_2286>
    ef17:	83 f8 07             	cmp    $0x7,%eax
    ef1a:	0f 86 f5 f2 ff ff    	jbe    e215 <func_2+0x1977>
    ef20:	eb 01                	jmp    ef23 <func_2+0x2685>
    ef22:	90                   	nop
    ef23:	0f b6 05 c2 52 01 00 	movzbl 0x152c2(%rip),%eax        # 241ec <g_539>
    ef2a:	83 e8 01             	sub    $0x1,%eax
    ef2d:	88 05 b9 52 01 00    	mov    %al,0x152b9(%rip)        # 241ec <g_539>
    ef33:	0f b6 05 b2 52 01 00 	movzbl 0x152b2(%rip),%eax        # 241ec <g_539>
    ef3a:	84 c0                	test   %al,%al
    ef3c:	0f 89 20 e3 ff ff    	jns    d262 <func_2+0x9c4>
    ef42:	e9 60 14 00 00       	jmpq   103a7 <func_2+0x3b09>
    ef47:	48 8d 05 76 52 01 00 	lea    0x15276(%rip),%rax        # 241c4 <g_373>
    ef4e:	48 89 85 d0 ee ff ff 	mov    %rax,-0x1130(%rbp)
    ef55:	48 8d 05 68 52 01 00 	lea    0x15268(%rip),%rax        # 241c4 <g_373>
    ef5c:	48 89 85 d8 ee ff ff 	mov    %rax,-0x1128(%rbp)
    ef63:	48 8d 05 5a 52 01 00 	lea    0x1525a(%rip),%rax        # 241c4 <g_373>
    ef6a:	48 89 85 e0 ee ff ff 	mov    %rax,-0x1120(%rbp)
    ef71:	48 8d 05 4c 52 01 00 	lea    0x1524c(%rip),%rax        # 241c4 <g_373>
    ef78:	48 89 85 e8 ee ff ff 	mov    %rax,-0x1118(%rbp)
    ef7f:	48 8d 05 3e 52 01 00 	lea    0x1523e(%rip),%rax        # 241c4 <g_373>
    ef86:	48 89 85 f0 ee ff ff 	mov    %rax,-0x1110(%rbp)
    ef8d:	48 8d 05 30 52 01 00 	lea    0x15230(%rip),%rax        # 241c4 <g_373>
    ef94:	48 89 85 f8 ee ff ff 	mov    %rax,-0x1108(%rbp)
    ef9b:	48 8d 05 22 52 01 00 	lea    0x15222(%rip),%rax        # 241c4 <g_373>
    efa2:	48 89 85 00 ef ff ff 	mov    %rax,-0x1100(%rbp)
    efa9:	c7 85 e0 eb ff ff fa 	movl   $0xfffffffa,-0x1420(%rbp)
    efb0:	ff ff ff 
    efb3:	48 8d 05 86 74 01 00 	lea    0x17486(%rip),%rax        # 26440 <g_2028>
    efba:	48 89 85 f8 eb ff ff 	mov    %rax,-0x1408(%rbp)
    efc1:	48 8d 85 f8 eb ff ff 	lea    -0x1408(%rbp),%rax
    efc8:	48 89 85 40 ec ff ff 	mov    %rax,-0x13c0(%rbp)
    efcf:	48 8d 85 d0 f2 ff ff 	lea    -0xd30(%rbp),%rax
    efd6:	48 8d 15 a3 00 01 00 	lea    0x100a3(%rip),%rdx        # 1f080 <g_2990+0x8>
    efdd:	b9 36 00 00 00       	mov    $0x36,%ecx
    efe2:	48 89 c7             	mov    %rax,%rdi
    efe5:	48 89 d6             	mov    %rdx,%rsi
    efe8:	f3 48 a5             	rep movsq %ds:(%rsi),%es:(%rdi)
    efeb:	48 8d 05 fb 51 01 00 	lea    0x151fb(%rip),%rax        # 241ed <g_867>
    eff2:	48 89 85 48 ec ff ff 	mov    %rax,-0x13b8(%rbp)
    eff9:	c6 85 ce ea ff ff 3f 	movb   $0x3f,-0x1532(%rbp)
    f000:	48 8d 05 49 74 01 00 	lea    0x17449(%rip),%rax        # 26450 <g_2065>
    f007:	48 89 85 00 ec ff ff 	mov    %rax,-0x1400(%rbp)
    f00e:	48 8d 85 00 ec ff ff 	lea    -0x1400(%rbp),%rax
    f015:	48 89 85 08 ec ff ff 	mov    %rax,-0x13f8(%rbp)
    f01c:	48 8d 85 08 ec ff ff 	lea    -0x13f8(%rbp),%rax
    f023:	48 89 85 50 ec ff ff 	mov    %rax,-0x13b0(%rbp)
    f02a:	48 c7 85 58 ec ff ff 	movq   $0x0,-0x13a8(%rbp)
    f031:	00 00 00 00 
    f035:	48 8d 85 e4 ea ff ff 	lea    -0x151c(%rbp),%rax
    f03c:	48 89 85 60 ec ff ff 	mov    %rax,-0x13a0(%rbp)
    f043:	48 8d 85 08 ee ff ff 	lea    -0x11f8(%rbp),%rax
    f04a:	48 89 85 68 ec ff ff 	mov    %rax,-0x1398(%rbp)
    f051:	48 c7 85 70 ec ff ff 	movq   $0x0,-0x1390(%rbp)
    f058:	00 00 00 00 
    f05c:	48 8d 85 e0 ea ff ff 	lea    -0x1520(%rbp),%rax
    f063:	48 89 85 78 ec ff ff 	mov    %rax,-0x1388(%rbp)
    f06a:	c7 85 14 eb ff ff 00 	movl   $0x0,-0x14ec(%rbp)
    f071:	00 00 00 
    f074:	eb 25                	jmp    f09b <func_2+0x27fd>
    f076:	8b 85 14 eb ff ff    	mov    -0x14ec(%rbp),%eax
    f07c:	48 98                	cltq   
    f07e:	48 8d 95 d0 f2 ff ff 	lea    -0xd30(%rbp),%rdx
    f085:	48 81 c2 d8 00 00 00 	add    $0xd8,%rdx
    f08c:	48 89 94 c5 20 ee ff 	mov    %rdx,-0x11e0(%rbp,%rax,8)
    f093:	ff 
    f094:	83 85 14 eb ff ff 01 	addl   $0x1,-0x14ec(%rbp)
    f09b:	83 bd 14 eb ff ff 02 	cmpl   $0x2,-0x14ec(%rbp)
    f0a2:	7e d2                	jle    f076 <func_2+0x27d8>
    f0a4:	c7 85 14 eb ff ff 00 	movl   $0x0,-0x14ec(%rbp)
    f0ab:	00 00 00 
    f0ae:	eb 49                	jmp    f0f9 <func_2+0x285b>
    f0b0:	c7 85 18 eb ff ff 00 	movl   $0x0,-0x14e8(%rbp)
    f0b7:	00 00 00 
    f0ba:	eb 2d                	jmp    f0e9 <func_2+0x284b>
    f0bc:	8b 85 18 eb ff ff    	mov    -0x14e8(%rbp),%eax
    f0c2:	48 98                	cltq   
    f0c4:	8b 95 14 eb ff ff    	mov    -0x14ec(%rbp),%edx
    f0ca:	48 63 d2             	movslq %edx,%rdx
    f0cd:	48 01 d2             	add    %rdx,%rdx
    f0d0:	48 01 c2             	add    %rax,%rdx
    f0d3:	48 8d 85 e0 ea ff ff 	lea    -0x1520(%rbp),%rax
    f0da:	48 89 84 d5 c0 f0 ff 	mov    %rax,-0xf40(%rbp,%rdx,8)
    f0e1:	ff 
    f0e2:	83 85 18 eb ff ff 01 	addl   $0x1,-0x14e8(%rbp)
    f0e9:	83 bd 18 eb ff ff 01 	cmpl   $0x1,-0x14e8(%rbp)
    f0f0:	7e ca                	jle    f0bc <func_2+0x281e>
    f0f2:	83 85 14 eb ff ff 01 	addl   $0x1,-0x14ec(%rbp)
    f0f9:	83 bd 14 eb ff ff 09 	cmpl   $0x9,-0x14ec(%rbp)
    f100:	7e ae                	jle    f0b0 <func_2+0x2812>
    f102:	48 8b 85 d0 ee ff ff 	mov    -0x1130(%rbp),%rax
    f109:	48 85 c0             	test   %rax,%rax
    f10c:	0f 84 ff 00 00 00    	je     f211 <func_2+0x2973>
    f112:	8b 9d e0 eb ff ff    	mov    -0x1420(%rbp),%ebx
    f118:	0f b6 05 e3 98 01 00 	movzbl 0x198e3(%rip),%eax        # 28a02 <g_1903>
    f11f:	44 0f b6 e0          	movzbl %al,%r12d
    f123:	48 8d 05 9e 93 01 00 	lea    0x1939e(%rip),%rax        # 284c8 <g_3286+0x748>
    f12a:	48 39 85 40 ec ff ff 	cmp    %rax,-0x13c0(%rbp)
    f131:	0f 94 c0             	sete   %al
    f134:	0f b6 c0             	movzbl %al,%eax
    f137:	be 0c 00 00 00       	mov    $0xc,%esi
    f13c:	89 c7                	mov    %eax,%edi
    f13e:	e8 e7 c3 ff ff       	callq  b52a <safe_rshift_func_int16_t_s_s>
    f143:	0f b7 c0             	movzwl %ax,%eax
    f146:	be 07 00 00 00       	mov    $0x7,%esi
    f14b:	89 c7                	mov    %eax,%edi
    f14d:	e8 f6 cc ff ff       	callq  be48 <safe_rshift_func_uint16_t_u_s>
    f152:	0f b7 c0             	movzwl %ax,%eax
    f155:	48 ba 09 8b bc 2e 33 	movabs $0x544b08332ebc8b09,%rdx
    f15c:	08 4b 54 
    f15f:	48 31 d0             	xor    %rdx,%rax
    f162:	49 39 c4             	cmp    %rax,%r12
    f165:	0f 9c c0             	setl   %al
    f168:	0f b6 c0             	movzbl %al,%eax
    f16b:	be 43 32 95 1d       	mov    $0x1d953243,%esi
    f170:	89 c7                	mov    %eax,%edi
    f172:	e8 41 cd ff ff       	callq  beb8 <safe_add_func_uint32_t_u_u>
    f177:	85 c0                	test   %eax,%eax
    f179:	74 07                	je     f182 <func_2+0x28e4>
    f17b:	b8 01 00 00 00       	mov    $0x1,%eax
    f180:	eb 05                	jmp    f187 <func_2+0x28e9>
    f182:	b8 00 00 00 00       	mov    $0x0,%eax
    f187:	0f b7 c0             	movzwl %ax,%eax
    f18a:	be 02 00 00 00       	mov    $0x2,%esi
    f18f:	89 c7                	mov    %eax,%edi
    f191:	e8 28 cc ff ff       	callq  bdbe <safe_lshift_func_uint16_t_u_s>
    f196:	0f be c0             	movsbl %al,%eax
    f199:	89 de                	mov    %ebx,%esi
    f19b:	89 c7                	mov    %eax,%edi
    f19d:	e8 93 c1 ff ff       	callq  b335 <safe_rshift_func_int8_t_s_s>
    f1a2:	84 c0                	test   %al,%al
    f1a4:	75 10                	jne    f1b6 <func_2+0x2918>
    f1a6:	48 8b 05 63 7f 01 00 	mov    0x17f63(%rip),%rax        # 27110 <g_2988>
    f1ad:	48 8b 00             	mov    (%rax),%rax
    f1b0:	8b 00                	mov    (%rax),%eax
    f1b2:	85 c0                	test   %eax,%eax
    f1b4:	74 07                	je     f1bd <func_2+0x291f>
    f1b6:	b8 01 00 00 00       	mov    $0x1,%eax
    f1bb:	eb 05                	jmp    f1c2 <func_2+0x2924>
    f1bd:	b8 00 00 00 00       	mov    $0x0,%eax
    f1c2:	48 63 d0             	movslq %eax,%rdx
    f1c5:	8b 85 e0 eb ff ff    	mov    -0x1420(%rbp),%eax
    f1cb:	48 98                	cltq   
    f1cd:	48 89 d6             	mov    %rdx,%rsi
    f1d0:	48 89 c7             	mov    %rax,%rdi
    f1d3:	e8 69 c6 ff ff       	callq  b841 <safe_add_func_int64_t_s_s>
    f1d8:	48 f7 d0             	not    %rax
    f1db:	48 89 c2             	mov    %rax,%rdx
    f1de:	48 8b 85 b8 ea ff ff 	mov    -0x1548(%rbp),%rax
    f1e5:	48 21 d0             	and    %rdx,%rax
    f1e8:	48 85 c0             	test   %rax,%rax
    f1eb:	74 13                	je     f200 <func_2+0x2962>
    f1ed:	48 8b 05 84 50 01 00 	mov    0x15084(%rip),%rax        # 24278 <g_3364>
    f1f4:	48 85 c0             	test   %rax,%rax
    f1f7:	74 07                	je     f200 <func_2+0x2962>
    f1f9:	b8 01 00 00 00       	mov    $0x1,%eax
    f1fe:	eb 05                	jmp    f205 <func_2+0x2967>
    f200:	b8 00 00 00 00       	mov    $0x0,%eax
    f205:	83 f8 38             	cmp    $0x38,%eax
    f208:	74 07                	je     f211 <func_2+0x2973>
    f20a:	b8 01 00 00 00       	mov    $0x1,%eax
    f20f:	eb 05                	jmp    f216 <func_2+0x2978>
    f211:	b8 00 00 00 00       	mov    $0x0,%eax
    f216:	0f b6 c0             	movzbl %al,%eax
    f219:	89 c6                	mov    %eax,%esi
    f21b:	bf 00 00 00 00       	mov    $0x0,%edi
    f220:	e8 6e c9 ff ff       	callq  bb93 <safe_mul_func_uint8_t_u_u>
    f225:	0f b6 c0             	movzbl %al,%eax
    f228:	48 8b 95 b8 ea ff ff 	mov    -0x1548(%rbp),%rdx
    f22f:	21 d0                	and    %edx,%eax
    f231:	89 85 3c eb ff ff    	mov    %eax,-0x14c4(%rbp)
    f237:	83 bd 3c eb ff ff 00 	cmpl   $0x0,-0x14c4(%rbp)
    f23e:	0f 84 47 04 00 00    	je     f68b <func_2+0x2ded>
    f244:	48 c7 85 10 ed ff ff 	movq   $0x0,-0x12f0(%rbp)
    f24b:	00 00 00 00 
    f24f:	48 8d 85 50 fa ff ff 	lea    -0x5b0(%rbp),%rax
    f256:	48 8d 15 c3 53 01 00 	lea    0x153c3(%rip),%rdx        # 24620 <g_3583+0x390>
    f25d:	b9 46 00 00 00       	mov    $0x46,%ecx
    f262:	48 89 c7             	mov    %rax,%rdi
    f265:	48 89 d6             	mov    %rdx,%rsi
    f268:	f3 48 a5             	rep movsq %ds:(%rsi),%es:(%rdi)
    f26b:	c7 85 54 eb ff ff 01 	movl   $0x1,-0x14ac(%rbp)
    f272:	00 00 00 
    f275:	48 8d 05 38 4f 01 00 	lea    0x14f38(%rip),%rax        # 241b4 <g_248>
    f27c:	48 89 85 18 ed ff ff 	mov    %rax,-0x12e8(%rbp)
    f283:	66 c7 85 d4 ea ff ff 	movw   $0xfff8,-0x152c(%rbp)
    f28a:	f8 ff 
    f28c:	c7 85 58 eb ff ff 8c 	movl   $0x276d168c,-0x14a8(%rbp)
    f293:	16 6d 27 
    f296:	48 8b 05 23 71 01 00 	mov    0x17123(%rip),%rax        # 263c0 <g_1058>
    f29d:	8b 08                	mov    (%rax),%ecx
    f29f:	8b 95 e0 eb ff ff    	mov    -0x1420(%rbp),%edx
    f2a5:	48 8b 05 14 71 01 00 	mov    0x17114(%rip),%rax        # 263c0 <g_1058>
    f2ac:	31 ca                	xor    %ecx,%edx
    f2ae:	89 10                	mov    %edx,(%rax)
    f2b0:	48 8b 85 d0 eb ff ff 	mov    -0x1430(%rbp),%rax
    f2b7:	48 8b 00             	mov    (%rax),%rax
    f2ba:	8b 00                	mov    (%rax),%eax
    f2bc:	41 89 c4             	mov    %eax,%r12d
    f2bf:	48 8b 85 30 ec ff ff 	mov    -0x13d0(%rbp),%rax
    f2c6:	48 8b 00             	mov    (%rax),%rax
    f2c9:	48 8b 00             	mov    (%rax),%rax
    f2cc:	8b 00                	mov    (%rax),%eax
    f2ce:	0f b6 d8             	movzbl %al,%ebx
    f2d1:	48 8b 85 b8 ea ff ff 	mov    -0x1548(%rbp),%rax
    f2d8:	0f be d0             	movsbl %al,%edx
    f2db:	48 8b 85 c8 eb ff ff 	mov    -0x1438(%rbp),%rax
    f2e2:	0f b6 08             	movzbl (%rax),%ecx
    f2e5:	48 8b 85 c8 eb ff ff 	mov    -0x1438(%rbp),%rax
    f2ec:	83 e1 21             	and    $0x21,%ecx
    f2ef:	88 08                	mov    %cl,(%rax)
    f2f1:	0f b6 00             	movzbl (%rax),%eax
    f2f4:	0f be c0             	movsbl %al,%eax
    f2f7:	89 d6                	mov    %edx,%esi
    f2f9:	89 c7                	mov    %eax,%edi
    f2fb:	e8 6a bf ff ff       	callq  b26a <safe_div_func_int8_t_s_s>
    f300:	0f be d0             	movsbl %al,%edx
    f303:	48 8b 85 d0 eb ff ff 	mov    -0x1430(%rbp),%rax
    f30a:	48 8b 00             	mov    (%rax),%rax
    f30d:	8b 00                	mov    (%rax),%eax
    f30f:	39 c2                	cmp    %eax,%edx
    f311:	7e 0d                	jle    f320 <func_2+0x2a82>
    f313:	48 8b 85 b8 ea ff ff 	mov    -0x1548(%rbp),%rax
    f31a:	48 83 f8 01          	cmp    $0x1,%rax
    f31e:	7e 07                	jle    f327 <func_2+0x2a89>
    f320:	b8 01 00 00 00       	mov    $0x1,%eax
    f325:	eb 05                	jmp    f32c <func_2+0x2a8e>
    f327:	b8 00 00 00 00       	mov    $0x0,%eax
    f32c:	0f b6 c0             	movzbl %al,%eax
    f32f:	89 de                	mov    %ebx,%esi
    f331:	89 c7                	mov    %eax,%edi
    f333:	e8 5b c8 ff ff       	callq  bb93 <safe_mul_func_uint8_t_u_u>
    f338:	3c 01                	cmp    $0x1,%al
    f33a:	0f 96 c0             	setbe  %al
    f33d:	0f b6 c0             	movzbl %al,%eax
    f340:	be 0b 00 00 00       	mov    $0xb,%esi
    f345:	89 c7                	mov    %eax,%edi
    f347:	e8 de c1 ff ff       	callq  b52a <safe_rshift_func_int16_t_s_s>
    f34c:	48 0f bf d0          	movswq %ax,%rdx
    f350:	0f b7 85 00 ee ff ff 	movzwl -0x1200(%rbp),%eax
    f357:	48 0f bf c0          	movswq %ax,%rax
    f35b:	48 89 d6             	mov    %rdx,%rsi
    f35e:	48 89 c7             	mov    %rax,%rdi
    f361:	e8 4e c6 ff ff       	callq  b9b4 <safe_mod_func_int64_t_s_s>
    f366:	48 8b 05 a3 91 01 00 	mov    0x191a3(%rip),%rax        # 28510 <g_3385>
    f36d:	48 89 05 9c 91 01 00 	mov    %rax,0x1919c(%rip)        # 28510 <g_3385>
    f374:	48 8b 05 95 91 01 00 	mov    0x19195(%rip),%rax        # 28510 <g_3385>
    f37b:	48 39 85 30 ec ff ff 	cmp    %rax,-0x13d0(%rbp)
    f382:	0f 94 c0             	sete   %al
    f385:	0f b6 d0             	movzbl %al,%edx
    f388:	48 8b 85 b8 ea ff ff 	mov    -0x1548(%rbp),%rax
    f38f:	48 39 c2             	cmp    %rax,%rdx
    f392:	0f 94 c0             	sete   %al
    f395:	0f b6 c0             	movzbl %al,%eax
    f398:	be 07 00 00 00       	mov    $0x7,%esi
    f39d:	48 89 c7             	mov    %rax,%rdi
    f3a0:	e8 a6 cc ff ff       	callq  c04b <safe_sub_func_uint64_t_u_u>
    f3a5:	89 85 a8 f3 ff ff    	mov    %eax,-0xc58(%rbp)
    f3ab:	8b 85 a8 f3 ff ff    	mov    -0xc58(%rbp),%eax
    f3b1:	39 85 54 eb ff ff    	cmp    %eax,-0x14ac(%rbp)
    f3b7:	0f 94 c0             	sete   %al
    f3ba:	0f b6 c0             	movzbl %al,%eax
    f3bd:	89 85 54 eb ff ff    	mov    %eax,-0x14ac(%rbp)
    f3c3:	48 8b 85 b8 ea ff ff 	mov    -0x1548(%rbp),%rax
    f3ca:	98                   	cwtl   
    f3cb:	44 89 e6             	mov    %r12d,%esi
    f3ce:	89 c7                	mov    %eax,%edi
    f3d0:	e8 8e c1 ff ff       	callq  b563 <safe_rshift_func_int16_t_s_u>
    f3d5:	48 83 bd 48 ec ff ff 	cmpq   $0x0,-0x13b8(%rbp)
    f3dc:	00 
    f3dd:	0f 94 c0             	sete   %al
    f3e0:	0f b6 c0             	movzbl %al,%eax
    f3e3:	be 01 00 00 00       	mov    $0x1,%esi
    f3e8:	89 c7                	mov    %eax,%edi
    f3ea:	e8 c9 ca ff ff       	callq  beb8 <safe_add_func_uint32_t_u_u>
    f3ef:	89 c2                	mov    %eax,%edx
    f3f1:	48 8b 85 b8 ea ff ff 	mov    -0x1548(%rbp),%rax
    f3f8:	48 85 c0             	test   %rax,%rax
    f3fb:	0f 94 c0             	sete   %al
    f3fe:	0f b6 c8             	movzbl %al,%ecx
    f401:	48 8b 05 58 70 01 00 	mov    0x17058(%rip),%rax        # 26460 <g_2151>
    f408:	48 8b 00             	mov    (%rax),%rax
    f40b:	8b 30                	mov    (%rax),%esi
    f40d:	48 8b 05 4c 70 01 00 	mov    0x1704c(%rip),%rax        # 26460 <g_2151>
    f414:	48 8b 00             	mov    (%rax),%rax
    f417:	09 f2                	or     %esi,%edx
    f419:	89 10                	mov    %edx,(%rax)
    f41b:	8b 00                	mov    (%rax),%eax
    f41d:	21 c1                	and    %eax,%ecx
    f41f:	89 ca                	mov    %ecx,%edx
    f421:	8b 85 e0 eb ff ff    	mov    -0x1420(%rbp),%eax
    f427:	39 c2                	cmp    %eax,%edx
    f429:	77 0c                	ja     f437 <func_2+0x2b99>
    f42b:	48 8b 85 b8 ea ff ff 	mov    -0x1548(%rbp),%rax
    f432:	48 85 c0             	test   %rax,%rax
    f435:	74 0e                	je     f445 <func_2+0x2ba7>
    f437:	48 8b 85 d0 eb ff ff 	mov    -0x1430(%rbp),%rax
    f43e:	48 8b 00             	mov    (%rax),%rax
    f441:	8b 00                	mov    (%rax),%eax
    f443:	85 c0                	test   %eax,%eax
    f445:	b9 01 00 00 00       	mov    $0x1,%ecx
    f44a:	48 8b 05 c7 90 01 00 	mov    0x190c7(%rip),%rax        # 28518 <g_3392>
    f451:	8b 10                	mov    (%rax),%edx
    f453:	31 ca                	xor    %ecx,%edx
    f455:	89 10                	mov    %edx,(%rax)
    f457:	48 8b 9d b8 ea ff ff 	mov    -0x1548(%rbp),%rbx
    f45e:	0f b6 85 ce ea ff ff 	movzbl -0x1532(%rbp),%eax
    f465:	89 85 b4 ea ff ff    	mov    %eax,-0x154c(%rbp)
    f46b:	48 8b 85 b8 ea ff ff 	mov    -0x1548(%rbp),%rax
    f472:	89 85 a8 ea ff ff    	mov    %eax,-0x1558(%rbp)
    f478:	8b 85 a8 f3 ff ff    	mov    -0xc58(%rbp),%eax
    f47e:	44 0f b7 e0          	movzwl %ax,%r12d
    f482:	8b 85 54 eb ff ff    	mov    -0x14ac(%rbp),%eax
    f488:	44 0f bf e8          	movswl %ax,%r13d
    f48c:	0f b7 85 d4 ea ff ff 	movzwl -0x152c(%rbp),%eax
    f493:	44 0f b6 f0          	movzbl %al,%r14d
    f497:	48 8b 05 62 7c 01 00 	mov    0x17c62(%rip),%rax        # 27100 <g_2877>
    f49e:	0f b7 00             	movzwl (%rax),%eax
    f4a1:	44 0f bf f8          	movswl %ax,%r15d
    f4a5:	c7 85 e0 eb ff ff 08 	movl   $0x8,-0x1420(%rbp)
    f4ac:	00 00 00 
    f4af:	be 0a 00 00 00       	mov    $0xa,%esi
    f4b4:	bf 18 3e 00 00       	mov    $0x3e18,%edi
    f4b9:	e8 8a c9 ff ff       	callq  be48 <safe_rshift_func_uint16_t_u_s>
    f4be:	0f b7 c0             	movzwl %ax,%eax
    f4c1:	89 85 b0 ea ff ff    	mov    %eax,-0x1550(%rbp)
    f4c7:	48 8b 85 d0 eb ff ff 	mov    -0x1430(%rbp),%rax
    f4ce:	48 8b 00             	mov    (%rax),%rax
    f4d1:	8b 10                	mov    (%rax),%edx
    f4d3:	8b 85 d4 f3 ff ff    	mov    -0xc2c(%rbp),%eax
    f4d9:	83 f8 2d             	cmp    $0x2d,%eax
    f4dc:	0f 95 c0             	setne  %al
    f4df:	0f b6 c8             	movzbl %al,%ecx
    f4e2:	48 8b 85 b8 ea ff ff 	mov    -0x1548(%rbp),%rax
    f4e9:	48 39 c1             	cmp    %rax,%rcx
    f4ec:	0f 9c c1             	setl   %cl
    f4ef:	48 8b 05 62 6f 01 00 	mov    0x16f62(%rip),%rax        # 26458 <g_2152>
    f4f6:	0f b6 c9             	movzbl %cl,%ecx
    f4f9:	89 08                	mov    %ecx,(%rax)
    f4fb:	8b 08                	mov    (%rax),%ecx
    f4fd:	48 8b 85 18 ed ff ff 	mov    -0x12e8(%rbp),%rax
    f504:	89 08                	mov    %ecx,(%rax)
    f506:	48 8b 85 18 ed ff ff 	mov    -0x12e8(%rbp),%rax
    f50d:	8b 00                	mov    (%rax),%eax
    f50f:	3d f4 00 4c 30       	cmp    $0x304c00f4,%eax
    f514:	0f 97 c0             	seta   %al
    f517:	0f b6 c0             	movzbl %al,%eax
    f51a:	48 39 85 18 ec ff ff 	cmp    %rax,-0x13e8(%rbp)
    f521:	0f 96 c0             	setbe  %al
    f524:	0f b6 c0             	movzbl %al,%eax
    f527:	89 d6                	mov    %edx,%esi
    f529:	89 c7                	mov    %eax,%edi
    f52b:	e8 18 c9 ff ff       	callq  be48 <safe_rshift_func_uint16_t_u_s>
    f530:	89 c2                	mov    %eax,%edx
    f532:	48 8b 85 d0 eb ff ff 	mov    -0x1430(%rbp),%rax
    f539:	48 8b 00             	mov    (%rax),%rax
    f53c:	0f b7 d2             	movzwl %dx,%edx
    f53f:	89 10                	mov    %edx,(%rax)
    f541:	8b 00                	mov    (%rax),%eax
    f543:	be dc 54 c5 31       	mov    $0x31c554dc,%esi
    f548:	89 c7                	mov    %eax,%edi
    f54a:	e8 67 c0 ff ff       	callq  b5b6 <safe_add_func_int32_t_s_s>
    f54f:	23 85 b0 ea ff ff    	and    -0x1550(%rbp),%eax
    f555:	48 63 d0             	movslq %eax,%rdx
    f558:	48 8b 85 b8 ea ff ff 	mov    -0x1548(%rbp),%rax
    f55f:	48 39 c2             	cmp    %rax,%rdx
    f562:	0f 94 c0             	sete   %al
    f565:	0f b6 d0             	movzbl %al,%edx
    f568:	0f b6 05 11 4d 01 00 	movzbl 0x14d11(%rip),%eax        # 24280 <g_3421>
    f56f:	0f be c0             	movsbl %al,%eax
    f572:	39 c2                	cmp    %eax,%edx
    f574:	7f 0a                	jg     f580 <func_2+0x2ce2>
    f576:	66 83 bd d4 ea ff ff 	cmpw   $0x0,-0x152c(%rbp)
    f57d:	00 
    f57e:	74 07                	je     f587 <func_2+0x2ce9>
    f580:	b8 01 00 00 00       	mov    $0x1,%eax
    f585:	eb 05                	jmp    f58c <func_2+0x2cee>
    f587:	b8 00 00 00 00       	mov    $0x0,%eax
    f58c:	98                   	cwtl   
    f58d:	44 89 fe             	mov    %r15d,%esi
    f590:	89 c7                	mov    %eax,%edi
    f592:	e8 5e be ff ff       	callq  b3f5 <safe_mul_func_int16_t_s_s>
    f597:	44 89 f6             	mov    %r14d,%esi
    f59a:	bf 01 00 00 00       	mov    $0x1,%edi
    f59f:	e8 0a c6 ff ff       	callq  bbae <safe_mod_func_uint8_t_u_u>
    f5a4:	44 89 ee             	mov    %r13d,%esi
    f5a7:	bf 01 00 00 00       	mov    $0x1,%edi
    f5ac:	e8 22 be ff ff       	callq  b3d3 <safe_sub_func_int16_t_s_s>
    f5b1:	48 0f bf d0          	movswq %ax,%rdx
    f5b5:	48 8b 85 b8 ea ff ff 	mov    -0x1548(%rbp),%rax
    f5bc:	48 39 c2             	cmp    %rax,%rdx
    f5bf:	0f 94 c0             	sete   %al
    f5c2:	0f b6 c0             	movzbl %al,%eax
    f5c5:	44 89 e6             	mov    %r12d,%esi
    f5c8:	89 c7                	mov    %eax,%edi
    f5ca:	e8 30 c7 ff ff       	callq  bcff <safe_add_func_uint16_t_u_u>
    f5cf:	0f bf d0             	movswl %ax,%edx
    f5d2:	8b 85 04 f3 ff ff    	mov    -0xcfc(%rbp),%eax
    f5d8:	98                   	cwtl   
    f5d9:	89 d6                	mov    %edx,%esi
    f5db:	89 c7                	mov    %eax,%edi
    f5dd:	e8 73 be ff ff       	callq  b455 <safe_div_func_int16_t_s_s>
    f5e2:	98                   	cwtl   
    f5e3:	8b b5 a8 ea ff ff    	mov    -0x1558(%rbp),%esi
    f5e9:	89 c7                	mov    %eax,%edi
    f5eb:	e8 c6 bf ff ff       	callq  b5b6 <safe_add_func_int32_t_s_s>
    f5f0:	89 85 08 f3 ff ff    	mov    %eax,-0xcf8(%rbp)
    f5f6:	8b 85 08 f3 ff ff    	mov    -0xcf8(%rbp),%eax
    f5fc:	89 c1                	mov    %eax,%ecx
    f5fe:	48 8b 05 13 7b 01 00 	mov    0x17b13(%rip),%rax        # 27118 <g_2987>
    f605:	48 8b 00             	mov    (%rax),%rax
    f608:	48 8b 00             	mov    (%rax),%rax
    f60b:	8b 00                	mov    (%rax),%eax
    f60d:	89 c2                	mov    %eax,%edx
    f60f:	48 8b 85 d8 eb ff ff 	mov    -0x1428(%rbp),%rax
    f616:	48 8b 00             	mov    (%rax),%rax
    f619:	48 8b 00             	mov    (%rax),%rax
    f61c:	21 ca                	and    %ecx,%edx
    f61e:	66 89 10             	mov    %dx,(%rax)
    f621:	0f b7 00             	movzwl (%rax),%eax
    f624:	0f b7 d0             	movzwl %ax,%edx
    f627:	48 8b 85 b8 ea ff ff 	mov    -0x1548(%rbp),%rax
    f62e:	48 39 c2             	cmp    %rax,%rdx
    f631:	0f 9f c0             	setg   %al
    f634:	0f b6 c0             	movzbl %al,%eax
    f637:	23 85 b4 ea ff ff    	and    -0x154c(%rbp),%eax
    f63d:	48 63 d0             	movslq %eax,%rdx
    f640:	48 8b 85 b8 ea ff ff 	mov    -0x1548(%rbp),%rax
    f647:	48 39 c2             	cmp    %rax,%rdx
    f64a:	0f 94 c0             	sete   %al
    f64d:	0f b6 c0             	movzbl %al,%eax
    f650:	48 89 de             	mov    %rbx,%rsi
    f653:	48 89 c7             	mov    %rax,%rdi
    f656:	e8 4d c2 ff ff       	callq  b8a8 <safe_sub_func_int64_t_s_s>
    f65b:	c7 85 58 eb ff ff 82 	movl   $0x45ee3682,-0x14a8(%rbp)
    f662:	36 ee 45 
    f665:	c7 05 79 4b 01 00 00 	movl   $0x0,0x14b79(%rip)        # 241e8 <g_446>
    f66c:	00 00 00 
    f66f:	90                   	nop
    f670:	8b 05 72 4b 01 00    	mov    0x14b72(%rip),%eax        # 241e8 <g_446>
    f676:	83 f8 14             	cmp    $0x14,%eax
    f679:	0f 8f 89 0b 00 00    	jg     10208 <func_2+0x396a>
    f67f:	48 8b 85 b8 ea ff ff 	mov    -0x1548(%rbp),%rax
    f686:	e9 2b 0d 00 00       	jmpq   103b6 <func_2+0x3b18>
    f68b:	48 8d 05 ae 6d 01 00 	lea    0x16dae(%rip),%rax        # 26440 <g_2028>
    f692:	48 89 85 80 ec ff ff 	mov    %rax,-0x1380(%rbp)
    f699:	c7 85 e8 eb ff ff b4 	movl   $0xe25c01b4,-0x1418(%rbp)
    f6a0:	01 5c e2 
    f6a3:	48 8d 85 50 fa ff ff 	lea    -0x5b0(%rbp),%rax
    f6aa:	48 8d 15 af 51 01 00 	lea    0x151af(%rip),%rdx        # 24860 <g_3583+0x5d0>
    f6b1:	b9 af 00 00 00       	mov    $0xaf,%ecx
    f6b6:	48 89 c7             	mov    %rax,%rdi
    f6b9:	48 89 d6             	mov    %rdx,%rsi
    f6bc:	f3 48 a5             	rep movsq %ds:(%rsi),%es:(%rdi)
    f6bf:	48 8d 85 80 f6 ff ff 	lea    -0x980(%rbp),%rax
    f6c6:	48 8d 15 73 fb 00 00 	lea    0xfb73(%rip),%rdx        # 1f240 <g_2990+0x1c8>
    f6cd:	b9 79 00 00 00       	mov    $0x79,%ecx
    f6d2:	48 89 c7             	mov    %rax,%rdi
    f6d5:	48 89 d6             	mov    %rdx,%rsi
    f6d8:	f3 48 a5             	rep movsq %ds:(%rsi),%es:(%rdi)
    f6db:	48 89 f2             	mov    %rsi,%rdx
    f6de:	48 89 f8             	mov    %rdi,%rax
    f6e1:	8b 0a                	mov    (%rdx),%ecx
    f6e3:	89 08                	mov    %ecx,(%rax)
    f6e5:	c6 85 cd ea ff ff 4e 	movb   $0x4e,-0x1533(%rbp)
    f6ec:	c7 85 4c eb ff ff 06 	movl   $0x6,-0x14b4(%rbp)
    f6f3:	00 00 00 
    f6f6:	48 8d 05 03 6d 01 00 	lea    0x16d03(%rip),%rax        # 26400 <g_1843>
    f6fd:	48 89 85 88 ec ff ff 	mov    %rax,-0x1378(%rbp)
    f704:	c7 85 1c eb ff ff 00 	movl   $0x0,-0x14e4(%rbp)
    f70b:	00 00 00 
    f70e:	eb 77                	jmp    f787 <func_2+0x2ee9>
    f710:	c7 85 20 eb ff ff 00 	movl   $0x0,-0x14e0(%rbp)
    f717:	00 00 00 
    f71a:	eb 5b                	jmp    f777 <func_2+0x2ed9>
    f71c:	c7 85 24 eb ff ff 00 	movl   $0x0,-0x14dc(%rbp)
    f723:	00 00 00 
    f726:	eb 3f                	jmp    f767 <func_2+0x2ec9>
    f728:	8b 85 24 eb ff ff    	mov    -0x14dc(%rbp),%eax
    f72e:	48 63 c8             	movslq %eax,%rcx
    f731:	8b 85 1c eb ff ff    	mov    -0x14e4(%rbp),%eax
    f737:	48 63 d0             	movslq %eax,%rdx
    f73a:	8b 85 20 eb ff ff    	mov    -0x14e0(%rbp),%eax
    f740:	48 63 f0             	movslq %eax,%rsi
    f743:	48 89 d0             	mov    %rdx,%rax
    f746:	48 c1 e0 02          	shl    $0x2,%rax
    f74a:	48 01 d0             	add    %rdx,%rax
    f74d:	48 01 f0             	add    %rsi,%rax
    f750:	48 01 c0             	add    %rax,%rax
    f753:	48 01 c8             	add    %rcx,%rax
    f756:	66 c7 84 45 a0 ee ff 	movw   $0x1,-0x1160(%rbp,%rax,2)
    f75d:	ff 01 00 
    f760:	83 85 24 eb ff ff 01 	addl   $0x1,-0x14dc(%rbp)
    f767:	83 bd 24 eb ff ff 01 	cmpl   $0x1,-0x14dc(%rbp)
    f76e:	7e b8                	jle    f728 <func_2+0x2e8a>
    f770:	83 85 20 eb ff ff 01 	addl   $0x1,-0x14e0(%rbp)
    f777:	83 bd 20 eb ff ff 04 	cmpl   $0x4,-0x14e0(%rbp)
    f77e:	7e 9c                	jle    f71c <func_2+0x2e7e>
    f780:	83 85 1c eb ff ff 01 	addl   $0x1,-0x14e4(%rbp)
    f787:	83 bd 1c eb ff ff 01 	cmpl   $0x1,-0x14e4(%rbp)
    f78e:	7e 80                	jle    f710 <func_2+0x2e72>
    f790:	48 c7 05 8d 4a 01 00 	movq   $0x0,0x14a8d(%rip)        # 24228 <g_1622>
    f797:	00 00 00 00 
    f79b:	e9 43 0a 00 00       	jmpq   101e3 <func_2+0x3945>
    f7a0:	c7 85 50 eb ff ff 08 	movl   $0x8,-0x14b0(%rbp)
    f7a7:	00 00 00 
    f7aa:	48 c7 85 90 ec ff ff 	movq   $0x0,-0x1370(%rbp)
    f7b1:	00 00 00 00 
    f7b5:	48 8d 85 a0 ee ff ff 	lea    -0x1160(%rbp),%rax
    f7bc:	48 83 c0 0a          	add    $0xa,%rax
    f7c0:	48 89 85 40 f0 ff ff 	mov    %rax,-0xfc0(%rbp)
    f7c7:	48 8d 85 a0 ee ff ff 	lea    -0x1160(%rbp),%rax
    f7ce:	48 83 c0 0a          	add    $0xa,%rax
    f7d2:	48 89 85 48 f0 ff ff 	mov    %rax,-0xfb8(%rbp)
    f7d9:	48 8d 05 a8 91 01 00 	lea    0x191a8(%rip),%rax        # 28988 <g_239>
    f7e0:	48 89 85 50 f0 ff ff 	mov    %rax,-0xfb0(%rbp)
    f7e7:	48 8d 85 fe ed ff ff 	lea    -0x1202(%rbp),%rax
    f7ee:	48 89 85 58 f0 ff ff 	mov    %rax,-0xfa8(%rbp)
    f7f5:	48 8d 05 8c 91 01 00 	lea    0x1918c(%rip),%rax        # 28988 <g_239>
    f7fc:	48 89 85 60 f0 ff ff 	mov    %rax,-0xfa0(%rbp)
    f803:	48 8d 05 7e 91 01 00 	lea    0x1917e(%rip),%rax        # 28988 <g_239>
    f80a:	48 89 85 68 f0 ff ff 	mov    %rax,-0xf98(%rbp)
    f811:	48 8d 05 70 91 01 00 	lea    0x19170(%rip),%rax        # 28988 <g_239>
    f818:	48 89 85 70 f0 ff ff 	mov    %rax,-0xf90(%rbp)
    f81f:	48 c7 85 78 f0 ff ff 	movq   $0x0,-0xf88(%rbp)
    f826:	00 00 00 00 
    f82a:	48 8d 05 73 49 01 00 	lea    0x14973(%rip),%rax        # 241a4 <g_241+0x4>
    f831:	48 89 85 80 f0 ff ff 	mov    %rax,-0xf80(%rbp)
    f838:	48 8d 85 fe ed ff ff 	lea    -0x1202(%rbp),%rax
    f83f:	48 89 85 88 f0 ff ff 	mov    %rax,-0xf78(%rbp)
    f846:	48 c7 85 90 f0 ff ff 	movq   $0x0,-0xf70(%rbp)
    f84d:	00 00 00 00 
    f851:	48 8d 85 fe ed ff ff 	lea    -0x1202(%rbp),%rax
    f858:	48 89 85 98 f0 ff ff 	mov    %rax,-0xf68(%rbp)
    f85f:	48 8d 85 a0 ee ff ff 	lea    -0x1160(%rbp),%rax
    f866:	48 83 c0 0a          	add    $0xa,%rax
    f86a:	48 89 85 a0 f0 ff ff 	mov    %rax,-0xf60(%rbp)
    f871:	48 8d 05 10 91 01 00 	lea    0x19110(%rip),%rax        # 28988 <g_239>
    f878:	48 89 85 a8 f0 ff ff 	mov    %rax,-0xf58(%rbp)
    f87f:	48 8d 05 1e 49 01 00 	lea    0x1491e(%rip),%rax        # 241a4 <g_241+0x4>
    f886:	48 89 85 b0 f0 ff ff 	mov    %rax,-0xf50(%rbp)
    f88d:	48 8d 85 d0 f2 ff ff 	lea    -0xd30(%rbp),%rax
    f894:	48 05 94 00 00 00    	add    $0x94,%rax
    f89a:	48 89 85 98 ec ff ff 	mov    %rax,-0x1368(%rbp)
    f8a1:	48 c7 85 a0 ec ff ff 	movq   $0x0,-0x1360(%rbp)
    f8a8:	00 00 00 00 
    f8ac:	48 8d 85 e0 eb ff ff 	lea    -0x1420(%rbp),%rax
    f8b3:	48 89 85 a8 ec ff ff 	mov    %rax,-0x1358(%rbp)
    f8ba:	48 8d 85 e0 ea ff ff 	lea    -0x1520(%rbp),%rax
    f8c1:	48 89 85 b0 ec ff ff 	mov    %rax,-0x1350(%rbp)
    f8c8:	48 8d 85 d0 f2 ff ff 	lea    -0xd30(%rbp),%rax
    f8cf:	48 05 a0 01 00 00    	add    $0x1a0,%rax
    f8d5:	48 89 85 b8 ec ff ff 	mov    %rax,-0x1348(%rbp)
    f8dc:	c7 85 60 ee ff ff 00 	movl   $0x0,-0x11a0(%rbp)
    f8e3:	00 00 00 
    f8e6:	c7 85 64 ee ff ff 00 	movl   $0x0,-0x119c(%rbp)
    f8ed:	00 00 00 
    f8f0:	c7 85 68 ee ff ff 00 	movl   $0x0,-0x1198(%rbp)
    f8f7:	00 00 00 
    f8fa:	c7 85 6c ee ff ff 00 	movl   $0x0,-0x1194(%rbp)
    f901:	00 00 00 
    f904:	c7 85 70 ee ff ff 00 	movl   $0x0,-0x1190(%rbp)
    f90b:	00 00 00 
    f90e:	c7 85 74 ee ff ff 00 	movl   $0x0,-0x118c(%rbp)
    f915:	00 00 00 
    f918:	c7 85 28 eb ff ff 00 	movl   $0x0,-0x14d8(%rbp)
    f91f:	00 00 00 
    f922:	eb 42                	jmp    f966 <func_2+0x30c8>
    f924:	c7 85 2c eb ff ff 00 	movl   $0x0,-0x14d4(%rbp)
    f92b:	00 00 00 
    f92e:	eb 26                	jmp    f956 <func_2+0x30b8>
    f930:	8b 85 2c eb ff ff    	mov    -0x14d4(%rbp),%eax
    f936:	48 63 d0             	movslq %eax,%rdx
    f939:	8b 85 28 eb ff ff    	mov    -0x14d8(%rbp),%eax
    f93f:	48 98                	cltq   
    f941:	48 01 d0             	add    %rdx,%rax
    f944:	c7 84 85 14 ee ff ff 	movl   $0x76aea48f,-0x11ec(%rbp,%rax,4)
    f94b:	8f a4 ae 76 
    f94f:	83 85 2c eb ff ff 01 	addl   $0x1,-0x14d4(%rbp)
    f956:	83 bd 2c eb ff ff 00 	cmpl   $0x0,-0x14d4(%rbp)
    f95d:	7e d1                	jle    f930 <func_2+0x3092>
    f95f:	83 85 28 eb ff ff 01 	addl   $0x1,-0x14d8(%rbp)
    f966:	83 bd 28 eb ff ff 02 	cmpl   $0x2,-0x14d8(%rbp)
    f96d:	7e b5                	jle    f924 <func_2+0x3086>
    f96f:	c7 85 28 eb ff ff 00 	movl   $0x0,-0x14d8(%rbp)
    f976:	00 00 00 
    f979:	eb 50                	jmp    f9cb <func_2+0x312d>
    f97b:	c7 85 2c eb ff ff 00 	movl   $0x0,-0x14d4(%rbp)
    f982:	00 00 00 
    f985:	eb 34                	jmp    f9bb <func_2+0x311d>
    f987:	8b 85 2c eb ff ff    	mov    -0x14d4(%rbp),%eax
    f98d:	48 63 c8             	movslq %eax,%rcx
    f990:	8b 85 28 eb ff ff    	mov    -0x14d8(%rbp),%eax
    f996:	48 63 d0             	movslq %eax,%rdx
    f999:	48 89 d0             	mov    %rdx,%rax
    f99c:	48 01 c0             	add    %rax,%rax
    f99f:	48 01 d0             	add    %rdx,%rax
    f9a2:	48 01 c8             	add    %rcx,%rax
    f9a5:	48 8d 15 2c 48 01 00 	lea    0x1482c(%rip),%rdx        # 241d8 <g_400>
    f9ac:	48 89 94 c5 40 ee ff 	mov    %rdx,-0x11c0(%rbp,%rax,8)
    f9b3:	ff 
    f9b4:	83 85 2c eb ff ff 01 	addl   $0x1,-0x14d4(%rbp)
    f9bb:	83 bd 2c eb ff ff 02 	cmpl   $0x2,-0x14d4(%rbp)
    f9c2:	7e c3                	jle    f987 <func_2+0x30e9>
    f9c4:	83 85 28 eb ff ff 01 	addl   $0x1,-0x14d8(%rbp)
    f9cb:	83 bd 28 eb ff ff 00 	cmpl   $0x0,-0x14d8(%rbp)
    f9d2:	7e a7                	jle    f97b <func_2+0x30dd>
    f9d4:	c6 05 27 90 01 00 06 	movb   $0x6,0x19027(%rip)        # 28a02 <g_1903>
    f9db:	e9 41 04 00 00       	jmpq   fe21 <func_2+0x3583>
    f9e0:	c7 85 80 ee ff ff f7 	movl   $0xfffffff7,-0x1180(%rbp)
    f9e7:	ff ff ff 
    f9ea:	c7 85 84 ee ff ff f7 	movl   $0xfffffff7,-0x117c(%rbp)
    f9f1:	ff ff ff 
    f9f4:	c7 85 88 ee ff ff f7 	movl   $0xfffffff7,-0x1178(%rbp)
    f9fb:	ff ff ff 
    f9fe:	c7 85 8c ee ff ff f7 	movl   $0xfffffff7,-0x1174(%rbp)
    fa05:	ff ff ff 
    fa08:	c7 85 90 ee ff ff f7 	movl   $0xfffffff7,-0x1170(%rbp)
    fa0f:	ff ff ff 
    fa12:	c7 85 94 ee ff ff f7 	movl   $0xfffffff7,-0x116c(%rbp)
    fa19:	ff ff ff 
    fa1c:	c7 85 98 ee ff ff f7 	movl   $0xfffffff7,-0x1168(%rbp)
    fa23:	ff ff ff 
    fa26:	c7 85 f0 eb ff ff 3d 	movl   $0x4f9bc63d,-0x1410(%rbp)
    fa2d:	c6 9b 4f 
    fa30:	48 c7 85 f0 ef ff ff 	movq   $0x0,-0x1010(%rbp)
    fa37:	00 00 00 00 
    fa3b:	48 c7 85 f8 ef ff ff 	movq   $0x0,-0x1008(%rbp)
    fa42:	00 00 00 00 
    fa46:	48 c7 85 00 f0 ff ff 	movq   $0x0,-0x1000(%rbp)
    fa4d:	00 00 00 00 
    fa51:	48 c7 85 08 f0 ff ff 	movq   $0x0,-0xff8(%rbp)
    fa58:	00 00 00 00 
    fa5c:	48 c7 85 10 f0 ff ff 	movq   $0x0,-0xff0(%rbp)
    fa63:	00 00 00 00 
    fa67:	48 8d 05 0a 46 01 00 	lea    0x1460a(%rip),%rax        # 24078 <g_21+0x38>
    fa6e:	48 89 85 18 f0 ff ff 	mov    %rax,-0xfe8(%rbp)
    fa75:	48 8d 05 bc 47 01 00 	lea    0x147bc(%rip),%rax        # 24238 <g_2004>
    fa7c:	48 89 85 20 f0 ff ff 	mov    %rax,-0xfe0(%rbp)
    fa83:	48 8d 05 ee 45 01 00 	lea    0x145ee(%rip),%rax        # 24078 <g_21+0x38>
    fa8a:	48 89 85 28 f0 ff ff 	mov    %rax,-0xfd8(%rbp)
    fa91:	48 8d 05 a0 47 01 00 	lea    0x147a0(%rip),%rax        # 24238 <g_2004>
    fa98:	48 89 85 30 f0 ff ff 	mov    %rax,-0xfd0(%rbp)
    fa9f:	48 8d 05 d2 45 01 00 	lea    0x145d2(%rip),%rax        # 24078 <g_21+0x38>
    faa6:	48 89 85 38 f0 ff ff 	mov    %rax,-0xfc8(%rbp)
    faad:	c6 05 9d 46 01 00 00 	movb   $0x0,0x1469d(%rip)        # 24151 <g_188>
    fab4:	e9 d8 00 00 00       	jmpq   fb91 <func_2+0x32f3>
    fab9:	0f b6 05 91 46 01 00 	movzbl 0x14691(%rip),%eax        # 24151 <g_188>
    fac0:	0f b6 c0             	movzbl %al,%eax
    fac3:	8d 50 03             	lea    0x3(%rax),%edx
    fac6:	0f b6 05 84 46 01 00 	movzbl 0x14684(%rip),%eax        # 24151 <g_188>
    facd:	0f b6 c0             	movzbl %al,%eax
    fad0:	83 c0 03             	add    $0x3,%eax
    fad3:	48 63 c8             	movslq %eax,%rcx
    fad6:	48 63 d2             	movslq %edx,%rdx
    fad9:	48 89 d0             	mov    %rdx,%rax
    fadc:	48 c1 e0 03          	shl    $0x3,%rax
    fae0:	48 01 d0             	add    %rdx,%rax
    fae3:	48 01 c8             	add    %rcx,%rax
    fae6:	48 8d 14 c5 00 00 00 	lea    0x0(,%rax,8),%rdx
    faed:	00 
    faee:	48 8d 05 8b 6c 01 00 	lea    0x16c8b(%rip),%rax        # 26780 <g_2818>
    faf5:	48 8b 04 02          	mov    (%rdx,%rax,1),%rax
    faf9:	48 85 c0             	test   %rax,%rax
    fafc:	0f 94 c0             	sete   %al
    faff:	0f b6 c0             	movzbl %al,%eax
    fb02:	be 41 de 00 00       	mov    $0xde41,%esi
    fb07:	89 c7                	mov    %eax,%edi
    fb09:	e8 f1 c1 ff ff       	callq  bcff <safe_add_func_uint16_t_u_u>
    fb0e:	8b 85 98 ee ff ff    	mov    -0x1168(%rbp),%eax
    fb14:	0f be c0             	movsbl %al,%eax
    fb17:	be 01 00 00 00       	mov    $0x1,%esi
    fb1c:	89 c7                	mov    %eax,%edi
    fb1e:	e8 12 b8 ff ff       	callq  b335 <safe_rshift_func_int8_t_s_s>
    fb23:	0f be d0             	movsbl %al,%edx
    fb26:	48 8b 85 d0 eb ff ff 	mov    -0x1430(%rbp),%rax
    fb2d:	48 8b 00             	mov    (%rax),%rax
    fb30:	8b 00                	mov    (%rax),%eax
    fb32:	39 c2                	cmp    %eax,%edx
    fb34:	48 8b 85 b8 ea ff ff 	mov    -0x1548(%rbp),%rax
    fb3b:	be 90 99 28 bd       	mov    $0xbd289990,%esi
    fb40:	89 c7                	mov    %eax,%edi
    fb42:	e8 b8 bb ff ff       	callq  b6ff <safe_div_func_int32_t_s_s>
    fb47:	8b 85 44 f3 ff ff    	mov    -0xcbc(%rbp),%eax
    fb4d:	0f b6 d0             	movzbl %al,%edx
    fb50:	8b 85 50 eb ff ff    	mov    -0x14b0(%rbp),%eax
    fb56:	0f b6 c0             	movzbl %al,%eax
    fb59:	89 d6                	mov    %edx,%esi
    fb5b:	89 c7                	mov    %eax,%edi
    fb5d:	e8 31 c0 ff ff       	callq  bb93 <safe_mul_func_uint8_t_u_u>
    fb62:	0f b6 d0             	movzbl %al,%edx
    fb65:	8b 85 8c ee ff ff    	mov    -0x1174(%rbp),%eax
    fb6b:	39 c2                	cmp    %eax,%edx
    fb6d:	0f 9c c0             	setl   %al
    fb70:	0f b6 d0             	movzbl %al,%edx
    fb73:	8b 85 f0 eb ff ff    	mov    -0x1410(%rbp),%eax
    fb79:	09 d0                	or     %edx,%eax
    fb7b:	89 85 f0 eb ff ff    	mov    %eax,-0x1410(%rbp)
    fb81:	0f b6 05 c9 45 01 00 	movzbl 0x145c9(%rip),%eax        # 24151 <g_188>
    fb88:	83 c0 01             	add    $0x1,%eax
    fb8b:	88 05 c0 45 01 00    	mov    %al,0x145c0(%rip)        # 24151 <g_188>
    fb91:	0f b6 05 b9 45 01 00 	movzbl 0x145b9(%rip),%eax        # 24151 <g_188>
    fb98:	3c 03                	cmp    $0x3,%al
    fb9a:	0f 86 19 ff ff ff    	jbe    fab9 <func_2+0x321b>
    fba0:	48 8b 85 b8 ea ff ff 	mov    -0x1548(%rbp),%rax
    fba7:	89 c3                	mov    %eax,%ebx
    fba9:	48 8b 85 90 ec ff ff 	mov    -0x1370(%rbp),%rax
    fbb0:	48 3b 85 80 ec ff ff 	cmp    -0x1380(%rbp),%rax
    fbb7:	0f 94 c0             	sete   %al
    fbba:	0f b6 c0             	movzbl %al,%eax
    fbbd:	48 89 c6             	mov    %rax,%rsi
    fbc0:	bf 01 00 00 00       	mov    $0x1,%edi
    fbc5:	e8 77 bc ff ff       	callq  b841 <safe_add_func_int64_t_s_s>
    fbca:	48 89 c2             	mov    %rax,%rdx
    fbcd:	48 8b 05 8c 68 01 00 	mov    0x1688c(%rip),%rax        # 26460 <g_2151>
    fbd4:	48 8b 00             	mov    (%rax),%rax
    fbd7:	89 10                	mov    %edx,(%rax)
    fbd9:	48 8b 45 b8          	mov    -0x48(%rbp),%rax
    fbdd:	48 85 c0             	test   %rax,%rax
    fbe0:	0f 94 c0             	sete   %al
    fbe3:	0f b6 c0             	movzbl %al,%eax
    fbe6:	89 85 18 ee ff ff    	mov    %eax,-0x11e8(%rbp)
    fbec:	48 8b 05 35 68 01 00 	mov    0x16835(%rip),%rax        # 26428 <g_1885>
    fbf3:	48 8b 00             	mov    (%rax),%rax
    fbf6:	48 85 c0             	test   %rax,%rax
    fbf9:	0f 95 c0             	setne  %al
    fbfc:	0f b6 d0             	movzbl %al,%edx
    fbff:	8b 85 80 ee ff ff    	mov    -0x1180(%rbp),%eax
    fc05:	31 d0                	xor    %edx,%eax
    fc07:	89 85 80 ee ff ff    	mov    %eax,-0x1180(%rbp)
    fc0d:	48 8b 85 30 ec ff ff 	mov    -0x13d0(%rbp),%rax
    fc14:	48 8b 00             	mov    (%rax),%rax
    fc17:	48 8b 00             	mov    (%rax),%rax
    fc1a:	8b 00                	mov    (%rax),%eax
    fc1c:	66 89 85 aa ee ff ff 	mov    %ax,-0x1156(%rbp)
    fc23:	0f b7 85 aa ee ff ff 	movzwl -0x1156(%rbp),%eax
    fc2a:	0f bf d0             	movswl %ax,%edx
    fc2d:	48 8b 05 ec 69 01 00 	mov    0x169ec(%rip),%rax        # 26620 <g_2475>
    fc34:	48 8b 00             	mov    (%rax),%rax
    fc37:	48 85 c0             	test   %rax,%rax
    fc3a:	0f 94 c0             	sete   %al
    fc3d:	0f b6 c8             	movzbl %al,%ecx
    fc40:	8b 85 f0 eb ff ff    	mov    -0x1410(%rbp),%eax
    fc46:	39 c1                	cmp    %eax,%ecx
    fc48:	0f 9c c0             	setl   %al
    fc4b:	0f b6 c8             	movzbl %al,%ecx
    fc4e:	8b 85 e8 eb ff ff    	mov    -0x1418(%rbp),%eax
    fc54:	39 c1                	cmp    %eax,%ecx
    fc56:	0f 9e c0             	setle  %al
    fc59:	0f b6 c0             	movzbl %al,%eax
    fc5c:	33 85 50 eb ff ff    	xor    -0x14b0(%rbp),%eax
    fc62:	39 c2                	cmp    %eax,%edx
    fc64:	0f 95 c0             	setne  %al
    fc67:	0f b6 c0             	movzbl %al,%eax
    fc6a:	89 de                	mov    %ebx,%esi
    fc6c:	89 c7                	mov    %eax,%edi
    fc6e:	e8 43 b9 ff ff       	callq  b5b6 <safe_add_func_int32_t_s_s>
    fc73:	48 8b 05 e6 80 01 00 	mov    0x180e6(%rip),%rax        # 27d60 <g_3287>
    fc7a:	8b 00                	mov    (%rax),%eax
    fc7c:	8b 85 e8 eb ff ff    	mov    -0x1418(%rbp),%eax
    fc82:	85 c0                	test   %eax,%eax
    fc84:	0f 94 c0             	sete   %al
    fc87:	0f b6 d0             	movzbl %al,%edx
    fc8a:	8b 85 f0 eb ff ff    	mov    -0x1410(%rbp),%eax
    fc90:	39 c2                	cmp    %eax,%edx
    fc92:	75 32                	jne    fcc6 <func_2+0x3428>
    fc94:	48 8b 15 25 67 01 00 	mov    0x16725(%rip),%rdx        # 263c0 <g_1058>
    fc9b:	48 8b 85 d0 eb ff ff 	mov    -0x1430(%rbp),%rax
    fca2:	48 8b 00             	mov    (%rax),%rax
    fca5:	8b 12                	mov    (%rdx),%edx
    fca7:	89 10                	mov    %edx,(%rax)
    fca9:	0f b7 85 aa ee ff ff 	movzwl -0x1156(%rbp),%eax
    fcb0:	0f bf d0             	movswl %ax,%edx
    fcb3:	8b 85 e8 eb ff ff    	mov    -0x1418(%rbp),%eax
    fcb9:	31 d0                	xor    %edx,%eax
    fcbb:	89 85 e8 eb ff ff    	mov    %eax,-0x1418(%rbp)
    fcc1:	e9 4b 01 00 00       	jmpq   fe11 <func_2+0x3573>
    fcc6:	48 b8 c0 78 60 d8 3b 	movabs $0x31a9f43bd86078c0,%rax
    fccd:	f4 a9 31 
    fcd0:	48 89 85 d0 ec ff ff 	mov    %rax,-0x1330(%rbp)
    fcd7:	48 8d 05 16 45 01 00 	lea    0x14516(%rip),%rax        # 241f4 <g_892>
    fcde:	48 89 85 d8 ec ff ff 	mov    %rax,-0x1328(%rbp)
    fce5:	48 8d 85 e8 eb ff ff 	lea    -0x1418(%rbp),%rax
    fcec:	48 89 85 e0 ec ff ff 	mov    %rax,-0x1320(%rbp)
    fcf3:	48 8d 85 dc ea ff ff 	lea    -0x1524(%rbp),%rax
    fcfa:	48 89 85 e8 ec ff ff 	mov    %rax,-0x1318(%rbp)
    fd01:	48 8d 85 80 ee ff ff 	lea    -0x1180(%rbp),%rax
    fd08:	48 83 c0 04          	add    $0x4,%rax
    fd0c:	48 89 85 f0 ec ff ff 	mov    %rax,-0x1310(%rbp)
    fd13:	48 8d 85 f0 eb ff ff 	lea    -0x1410(%rbp),%rax
    fd1a:	48 89 85 f8 ec ff ff 	mov    %rax,-0x1308(%rbp)
    fd21:	48 8d 85 d0 f2 ff ff 	lea    -0xd30(%rbp),%rax
    fd28:	48 05 d8 00 00 00    	add    $0xd8,%rax
    fd2e:	48 89 85 00 ed ff ff 	mov    %rax,-0x1300(%rbp)
    fd35:	48 8d 85 08 ee ff ff 	lea    -0x11f8(%rbp),%rax
    fd3c:	48 83 c0 08          	add    $0x8,%rax
    fd40:	48 89 85 08 ed ff ff 	mov    %rax,-0x12f8(%rbp)
    fd47:	48 8d 85 14 ee ff ff 	lea    -0x11ec(%rbp),%rax
    fd4e:	48 83 c0 08          	add    $0x8,%rax
    fd52:	48 89 85 60 f1 ff ff 	mov    %rax,-0xea0(%rbp)
    fd59:	48 c7 85 68 f1 ff ff 	movq   $0x0,-0xe98(%rbp)
    fd60:	00 00 00 00 
    fd64:	48 c7 85 70 f1 ff ff 	movq   $0x0,-0xe90(%rbp)
    fd6b:	00 00 00 00 
    fd6f:	48 8d 85 14 ee ff ff 	lea    -0x11ec(%rbp),%rax
    fd76:	48 83 c0 08          	add    $0x8,%rax
    fd7a:	48 89 85 78 f1 ff ff 	mov    %rax,-0xe88(%rbp)
    fd81:	48 8d 85 14 ee ff ff 	lea    -0x11ec(%rbp),%rax
    fd88:	48 89 85 80 f1 ff ff 	mov    %rax,-0xe80(%rbp)
    fd8f:	48 8d 85 14 ee ff ff 	lea    -0x11ec(%rbp),%rax
    fd96:	48 83 c0 08          	add    $0x8,%rax
    fd9a:	48 89 85 88 f1 ff ff 	mov    %rax,-0xe78(%rbp)
    fda1:	48 c7 85 90 f1 ff ff 	movq   $0x0,-0xe70(%rbp)
    fda8:	00 00 00 00 
    fdac:	48 c7 85 98 f1 ff ff 	movq   $0x0,-0xe68(%rbp)
    fdb3:	00 00 00 00 
    fdb7:	48 8d 85 14 ee ff ff 	lea    -0x11ec(%rbp),%rax
    fdbe:	48 83 c0 08          	add    $0x8,%rax
    fdc2:	48 89 85 a0 f1 ff ff 	mov    %rax,-0xe60(%rbp)
    fdc9:	48 8d 85 14 ee ff ff 	lea    -0x11ec(%rbp),%rax
    fdd0:	48 89 85 a8 f1 ff ff 	mov    %rax,-0xe58(%rbp)
    fdd7:	80 ad cd ea ff ff 01 	subb   $0x1,-0x1533(%rbp)
    fdde:	8b 85 18 ee ff ff    	mov    -0x11e8(%rbp),%eax
    fde4:	85 c0                	test   %eax,%eax
    fde6:	75 29                	jne    fe11 <func_2+0x3573>
    fde8:	48 8b 05 41 68 01 00 	mov    0x16841(%rip),%rax        # 26630 <g_2651>
    fdef:	48 8b 00             	mov    (%rax),%rax
    fdf2:	48 89 85 30 ee ff ff 	mov    %rax,-0x11d0(%rbp)
    fdf9:	48 8b 05 10 87 01 00 	mov    0x18710(%rip),%rax        # 28510 <g_3385>
    fe00:	48 8b 00             	mov    (%rax),%rax
    fe03:	48 8d 95 80 ee ff ff 	lea    -0x1180(%rbp),%rdx
    fe0a:	48 83 c2 18          	add    $0x18,%rdx
    fe0e:	48 89 10             	mov    %rdx,(%rax)
    fe11:	0f b6 05 ea 8b 01 00 	movzbl 0x18bea(%rip),%eax        # 28a02 <g_1903>
    fe18:	83 c0 01             	add    $0x1,%eax
    fe1b:	88 05 e1 8b 01 00    	mov    %al,0x18be1(%rip)        # 28a02 <g_1903>
    fe21:	0f b6 05 da 8b 01 00 	movzbl 0x18bda(%rip),%eax        # 28a02 <g_1903>
    fe28:	3c 0b                	cmp    $0xb,%al
    fe2a:	0f 86 b0 fb ff ff    	jbe    f9e0 <func_2+0x3142>
    fe30:	48 c7 85 18 ec ff ff 	movq   $0x0,-0x13e8(%rbp)
    fe37:	00 00 00 00 
    fe3b:	e9 15 03 00 00       	jmpq   10155 <func_2+0x38b7>
    fe40:	c6 85 cf ea ff ff 02 	movb   $0x2,-0x1531(%rbp)
    fe47:	48 8d 85 d8 eb ff ff 	lea    -0x1428(%rbp),%rax
    fe4e:	48 89 85 60 f1 ff ff 	mov    %rax,-0xea0(%rbp)
    fe55:	48 c7 85 68 f1 ff ff 	movq   $0x0,-0xe98(%rbp)
    fe5c:	00 00 00 00 
    fe60:	48 8d 85 d8 eb ff ff 	lea    -0x1428(%rbp),%rax
    fe67:	48 89 85 70 f1 ff ff 	mov    %rax,-0xe90(%rbp)
    fe6e:	48 c7 85 78 f1 ff ff 	movq   $0x0,-0xe88(%rbp)
    fe75:	00 00 00 00 
    fe79:	48 8d 85 d8 eb ff ff 	lea    -0x1428(%rbp),%rax
    fe80:	48 89 85 80 f1 ff ff 	mov    %rax,-0xe80(%rbp)
    fe87:	48 8d 85 d8 eb ff ff 	lea    -0x1428(%rbp),%rax
    fe8e:	48 89 85 88 f1 ff ff 	mov    %rax,-0xe78(%rbp)
    fe95:	48 8d 85 d8 eb ff ff 	lea    -0x1428(%rbp),%rax
    fe9c:	48 89 85 90 f1 ff ff 	mov    %rax,-0xe70(%rbp)
    fea3:	48 8d 85 d8 eb ff ff 	lea    -0x1428(%rbp),%rax
    feaa:	48 89 85 98 f1 ff ff 	mov    %rax,-0xe68(%rbp)
    feb1:	48 8d 85 d8 eb ff ff 	lea    -0x1428(%rbp),%rax
    feb8:	48 89 85 a0 f1 ff ff 	mov    %rax,-0xe60(%rbp)
    febf:	48 8d 85 d8 eb ff ff 	lea    -0x1428(%rbp),%rax
    fec6:	48 89 85 a8 f1 ff ff 	mov    %rax,-0xe58(%rbp)
    fecd:	48 8d 85 d8 eb ff ff 	lea    -0x1428(%rbp),%rax
    fed4:	48 89 85 b0 f1 ff ff 	mov    %rax,-0xe50(%rbp)
    fedb:	48 8d 85 d8 eb ff ff 	lea    -0x1428(%rbp),%rax
    fee2:	48 89 85 b8 f1 ff ff 	mov    %rax,-0xe48(%rbp)
    fee9:	48 8d 85 d8 eb ff ff 	lea    -0x1428(%rbp),%rax
    fef0:	48 89 85 c0 f1 ff ff 	mov    %rax,-0xe40(%rbp)
    fef7:	48 8d 85 d8 eb ff ff 	lea    -0x1428(%rbp),%rax
    fefe:	48 89 85 c8 f1 ff ff 	mov    %rax,-0xe38(%rbp)
    ff05:	48 8d 85 d8 eb ff ff 	lea    -0x1428(%rbp),%rax
    ff0c:	48 89 85 d0 f1 ff ff 	mov    %rax,-0xe30(%rbp)
    ff13:	48 c7 85 d8 f1 ff ff 	movq   $0x0,-0xe28(%rbp)
    ff1a:	00 00 00 00 
    ff1e:	48 8d 85 d8 eb ff ff 	lea    -0x1428(%rbp),%rax
    ff25:	48 89 85 e0 f1 ff ff 	mov    %rax,-0xe20(%rbp)
    ff2c:	48 8d 85 d8 eb ff ff 	lea    -0x1428(%rbp),%rax
    ff33:	48 89 85 e8 f1 ff ff 	mov    %rax,-0xe18(%rbp)
    ff3a:	48 8d 85 d8 eb ff ff 	lea    -0x1428(%rbp),%rax
    ff41:	48 89 85 f0 f1 ff ff 	mov    %rax,-0xe10(%rbp)
    ff48:	48 c7 85 f8 f1 ff ff 	movq   $0x0,-0xe08(%rbp)
    ff4f:	00 00 00 00 
    ff53:	48 8d 85 d8 eb ff ff 	lea    -0x1428(%rbp),%rax
    ff5a:	48 89 85 00 f2 ff ff 	mov    %rax,-0xe00(%rbp)
    ff61:	48 8d 85 d8 eb ff ff 	lea    -0x1428(%rbp),%rax
    ff68:	48 89 85 08 f2 ff ff 	mov    %rax,-0xdf8(%rbp)
    ff6f:	48 8d 85 d8 eb ff ff 	lea    -0x1428(%rbp),%rax
    ff76:	48 89 85 10 f2 ff ff 	mov    %rax,-0xdf0(%rbp)
    ff7d:	48 8d 85 d8 eb ff ff 	lea    -0x1428(%rbp),%rax
    ff84:	48 89 85 18 f2 ff ff 	mov    %rax,-0xde8(%rbp)
    ff8b:	48 8d 85 d8 eb ff ff 	lea    -0x1428(%rbp),%rax
    ff92:	48 89 85 20 f2 ff ff 	mov    %rax,-0xde0(%rbp)
    ff99:	48 8d 85 d8 eb ff ff 	lea    -0x1428(%rbp),%rax
    ffa0:	48 89 85 28 f2 ff ff 	mov    %rax,-0xdd8(%rbp)
    ffa7:	48 8d 85 d8 eb ff ff 	lea    -0x1428(%rbp),%rax
    ffae:	48 89 85 30 f2 ff ff 	mov    %rax,-0xdd0(%rbp)
    ffb5:	48 8d 85 d8 eb ff ff 	lea    -0x1428(%rbp),%rax
    ffbc:	48 89 85 38 f2 ff ff 	mov    %rax,-0xdc8(%rbp)
    ffc3:	48 8d 85 d8 eb ff ff 	lea    -0x1428(%rbp),%rax
    ffca:	48 89 85 40 f2 ff ff 	mov    %rax,-0xdc0(%rbp)
    ffd1:	48 c7 85 48 f2 ff ff 	movq   $0x0,-0xdb8(%rbp)
    ffd8:	00 00 00 00 
    ffdc:	48 8d 85 d8 eb ff ff 	lea    -0x1428(%rbp),%rax
    ffe3:	48 89 85 50 f2 ff ff 	mov    %rax,-0xdb0(%rbp)
    ffea:	48 c7 85 58 f2 ff ff 	movq   $0x0,-0xda8(%rbp)
    fff1:	00 00 00 00 
    fff5:	48 8d 85 d8 eb ff ff 	lea    -0x1428(%rbp),%rax
    fffc:	48 89 85 60 f2 ff ff 	mov    %rax,-0xda0(%rbp)
   10003:	48 c7 85 68 f2 ff ff 	movq   $0x0,-0xd98(%rbp)
   1000a:	00 00 00 00 
   1000e:	48 8d 85 d8 eb ff ff 	lea    -0x1428(%rbp),%rax
   10015:	48 89 85 70 f2 ff ff 	mov    %rax,-0xd90(%rbp)
   1001c:	48 8d 85 d8 eb ff ff 	lea    -0x1428(%rbp),%rax
   10023:	48 89 85 78 f2 ff ff 	mov    %rax,-0xd88(%rbp)
   1002a:	48 8d 85 d8 eb ff ff 	lea    -0x1428(%rbp),%rax
   10031:	48 89 85 80 f2 ff ff 	mov    %rax,-0xd80(%rbp)
   10038:	48 8d 85 d8 eb ff ff 	lea    -0x1428(%rbp),%rax
   1003f:	48 89 85 88 f2 ff ff 	mov    %rax,-0xd78(%rbp)
   10046:	48 8d 85 d8 eb ff ff 	lea    -0x1428(%rbp),%rax
   1004d:	48 89 85 90 f2 ff ff 	mov    %rax,-0xd70(%rbp)
   10054:	48 8d 85 d8 eb ff ff 	lea    -0x1428(%rbp),%rax
   1005b:	48 89 85 98 f2 ff ff 	mov    %rax,-0xd68(%rbp)
   10062:	48 8d 85 d8 eb ff ff 	lea    -0x1428(%rbp),%rax
   10069:	48 89 85 a0 f2 ff ff 	mov    %rax,-0xd60(%rbp)
   10070:	48 8d 85 d8 eb ff ff 	lea    -0x1428(%rbp),%rax
   10077:	48 89 85 a8 f2 ff ff 	mov    %rax,-0xd58(%rbp)
   1007e:	48 8d 85 d8 eb ff ff 	lea    -0x1428(%rbp),%rax
   10085:	48 89 85 b0 f2 ff ff 	mov    %rax,-0xd50(%rbp)
   1008c:	48 8d 85 d8 eb ff ff 	lea    -0x1428(%rbp),%rax
   10093:	48 89 85 b8 f2 ff ff 	mov    %rax,-0xd48(%rbp)
   1009a:	48 8d 85 d8 eb ff ff 	lea    -0x1428(%rbp),%rax
   100a1:	48 89 85 c0 f2 ff ff 	mov    %rax,-0xd40(%rbp)
   100a8:	48 8d 05 89 65 01 00 	lea    0x16589(%rip),%rax        # 26638 <g_2691>
   100af:	48 89 85 c0 ec ff ff 	mov    %rax,-0x1340(%rbp)
   100b6:	66 c7 85 80 ee ff ff 	movw   $0xfff8,-0x1180(%rbp)
   100bd:	f8 ff 
   100bf:	66 c7 85 82 ee ff ff 	movw   $0xf800,-0x117e(%rbp)
   100c6:	00 f8 
   100c8:	66 c7 85 84 ee ff ff 	movw   $0xfff8,-0x117c(%rbp)
   100cf:	f8 ff 
   100d1:	66 c7 85 86 ee ff ff 	movw   $0xf800,-0x117a(%rbp)
   100d8:	00 f8 
   100da:	66 c7 85 88 ee ff ff 	movw   $0xfff8,-0x1178(%rbp)
   100e1:	f8 ff 
   100e3:	66 c7 85 8a ee ff ff 	movw   $0xf800,-0x1176(%rbp)
   100ea:	00 f8 
   100ec:	66 c7 85 8c ee ff ff 	movw   $0xfff8,-0x1174(%rbp)
   100f3:	f8 ff 
   100f5:	66 c7 85 8e ee ff ff 	movw   $0xf800,-0x1172(%rbp)
   100fc:	00 f8 
   100fe:	66 c7 85 90 ee ff ff 	movw   $0xfff8,-0x1170(%rbp)
   10105:	f8 ff 
   10107:	66 c7 85 92 ee ff ff 	movw   $0xf800,-0x116e(%rbp)
   1010e:	00 f8 
   10110:	48 8d 85 d8 ea ff ff 	lea    -0x1528(%rbp),%rax
   10117:	48 89 85 c8 ec ff ff 	mov    %rax,-0x1338(%rbp)
   1011e:	c7 85 30 eb ff ff 00 	movl   $0x0,-0x14d0(%rbp)
   10125:	00 00 00 
   10128:	eb 1a                	jmp    10144 <func_2+0x38a6>
   1012a:	8b 85 30 eb ff ff    	mov    -0x14d0(%rbp),%eax
   10130:	48 98                	cltq   
   10132:	c7 84 85 f0 ef ff ff 	movl   $0x3,-0x1010(%rbp,%rax,4)
   10139:	03 00 00 00 
   1013d:	83 85 30 eb ff ff 01 	addl   $0x1,-0x14d0(%rbp)
   10144:	83 bd 30 eb ff ff 06 	cmpl   $0x6,-0x14d0(%rbp)
   1014b:	7e dd                	jle    1012a <func_2+0x388c>
   1014d:	48 83 85 18 ec ff ff 	addq   $0x1,-0x13e8(%rbp)
   10154:	01 
   10155:	48 83 bd 18 ec ff ff 	cmpq   $0x12,-0x13e8(%rbp)
   1015c:	12 
   1015d:	0f 87 dd fc ff ff    	ja     fe40 <func_2+0x35a2>
   10163:	be 05 00 00 00       	mov    $0x5,%esi
   10168:	bf 04 00 00 00       	mov    $0x4,%edi
   1016d:	e8 c3 b1 ff ff       	callq  b335 <safe_rshift_func_int8_t_s_s>
   10172:	84 c0                	test   %al,%al
   10174:	75 0a                	jne    10180 <func_2+0x38e2>
   10176:	48 8b 85 b8 ea ff ff 	mov    -0x1548(%rbp),%rax
   1017d:	48 85 c0             	test   %rax,%rax
   10180:	48 8b 85 d0 eb ff ff 	mov    -0x1430(%rbp),%rax
   10187:	48 8b 00             	mov    (%rax),%rax
   1018a:	8b 00                	mov    (%rax),%eax
   1018c:	83 c8 6b             	or     $0x6b,%eax
   1018f:	48 98                	cltq   
   10191:	48 8d 15 c0 3e 01 00 	lea    0x13ec0(%rip),%rdx        # 24058 <g_21+0x18>
   10198:	48 39 95 58 ec ff ff 	cmp    %rdx,-0x13a8(%rbp)
   1019f:	0f 95 c2             	setne  %dl
   101a2:	0f b6 ca             	movzbl %dl,%ecx
   101a5:	48 8b 95 b8 ea ff ff 	mov    -0x1548(%rbp),%rdx
   101ac:	48 09 ca             	or     %rcx,%rdx
   101af:	48 39 d0             	cmp    %rdx,%rax
   101b2:	0f 95 c2             	setne  %dl
   101b5:	48 8b 05 5c 83 01 00 	mov    0x1835c(%rip),%rax        # 28518 <g_3392>
   101bc:	0f b6 d2             	movzbl %dl,%edx
   101bf:	89 10                	mov    %edx,(%rax)
   101c1:	0f b6 85 28 ef ff ff 	movzbl -0x10d8(%rbp),%eax
   101c8:	83 e8 01             	sub    $0x1,%eax
   101cb:	88 85 28 ef ff ff    	mov    %al,-0x10d8(%rbp)
   101d1:	48 8b 05 50 40 01 00 	mov    0x14050(%rip),%rax        # 24228 <g_1622>
   101d8:	48 83 e8 01          	sub    $0x1,%rax
   101dc:	48 89 05 45 40 01 00 	mov    %rax,0x14045(%rip)        # 24228 <g_1622>
   101e3:	48 8b 05 3e 40 01 00 	mov    0x1403e(%rip),%rax        # 24228 <g_1622>
   101ea:	48 83 f8 f2          	cmp    $0xfffffffffffffff2,%rax
   101ee:	0f 8d ac f5 ff ff    	jge    f7a0 <func_2+0x2f02>
   101f4:	48 8d 85 80 f6 ff ff 	lea    -0x980(%rbp),%rax
   101fb:	48 05 24 02 00 00    	add    $0x224,%rax
   10201:	48 89 85 20 ee ff ff 	mov    %rax,-0x11e0(%rbp)
   10208:	83 ad 40 eb ff ff 01 	subl   $0x1,-0x14c0(%rbp)
   1020f:	48 8b 85 68 ec ff ff 	mov    -0x1398(%rbp),%rax
   10216:	8b 00                	mov    (%rax),%eax
   10218:	4c 63 e8             	movslq %eax,%r13
   1021b:	48 8b 85 30 ec ff ff 	mov    -0x13d0(%rbp),%rax
   10222:	48 8b 00             	mov    (%rax),%rax
   10225:	4c 8b 20             	mov    (%rax),%r12
   10228:	48 8b 85 b8 ea ff ff 	mov    -0x1548(%rbp),%rax
   1022f:	44 0f b6 f0          	movzbl %al,%r14d
   10233:	48 8b 05 1e 62 01 00 	mov    0x1621e(%rip),%rax        # 26458 <g_2152>
   1023a:	8b 18                	mov    (%rax),%ebx
   1023c:	8d 53 01             	lea    0x1(%rbx),%edx
   1023f:	89 10                	mov    %edx,(%rax)
   10241:	48 8b 85 b8 ea ff ff 	mov    -0x1548(%rbp),%rax
   10248:	89 85 b4 ea ff ff    	mov    %eax,-0x154c(%rbp)
   1024e:	8b 05 44 3f 01 00    	mov    0x13f44(%rip),%eax        # 24198 <g_214>
   10254:	89 c2                	mov    %eax,%edx
   10256:	48 8b 85 68 ec ff ff 	mov    -0x1398(%rbp),%rax
   1025d:	8b 00                	mov    (%rax),%eax
   1025f:	48 98                	cltq   
   10261:	48 89 d6             	mov    %rdx,%rsi
   10264:	48 89 c7             	mov    %rax,%rdi
   10267:	e8 c2 bd ff ff       	callq  c02e <safe_add_func_uint64_t_u_u>
   1026c:	49 89 c7             	mov    %rax,%r15
   1026f:	48 8b 85 b8 ea ff ff 	mov    -0x1548(%rbp),%rax
   10276:	89 85 a8 ea ff ff    	mov    %eax,-0x1558(%rbp)
   1027c:	48 8b 05 cd 64 01 00 	mov    0x164cd(%rip),%rax        # 26750 <g_2723>
   10283:	48 8b 00             	mov    (%rax),%rax
   10286:	48 8b 10             	mov    (%rax),%rdx
   10289:	48 8b 85 d0 ee ff ff 	mov    -0x1130(%rbp),%rax
   10290:	48 39 c2             	cmp    %rax,%rdx
   10293:	0f 95 c0             	setne  %al
   10296:	0f b6 d0             	movzbl %al,%edx
   10299:	8b 85 44 eb ff ff    	mov    -0x14bc(%rbp),%eax
   1029f:	0f b7 c0             	movzwl %ax,%eax
   102a2:	89 d6                	mov    %edx,%esi
   102a4:	89 c7                	mov    %eax,%edi
   102a6:	e8 5b bb ff ff       	callq  be06 <safe_lshift_func_uint16_t_u_u>
   102ab:	0f be c0             	movsbl %al,%eax
   102ae:	8b b5 a8 ea ff ff    	mov    -0x1558(%rbp),%esi
   102b4:	89 c7                	mov    %eax,%edi
   102b6:	e8 33 b0 ff ff       	callq  b2ee <safe_lshift_func_int8_t_s_u>
   102bb:	48 0f be d0          	movsbq %al,%rdx
   102bf:	48 8b 85 b8 ea ff ff 	mov    -0x1548(%rbp),%rax
   102c6:	48 39 c2             	cmp    %rax,%rdx
   102c9:	0f 9d c0             	setge  %al
   102cc:	0f b6 c0             	movzbl %al,%eax
   102cf:	49 39 c7             	cmp    %rax,%r15
   102d2:	0f 96 c0             	setbe  %al
   102d5:	0f b6 d0             	movzbl %al,%edx
   102d8:	48 8b 85 d0 eb ff ff 	mov    -0x1430(%rbp),%rax
   102df:	48 8b 00             	mov    (%rax),%rax
   102e2:	8b 00                	mov    (%rax),%eax
   102e4:	39 c2                	cmp    %eax,%edx
   102e6:	0f 9f c0             	setg   %al
   102e9:	0f b6 d0             	movzbl %al,%edx
   102ec:	48 8b 85 30 ec ff ff 	mov    -0x13d0(%rbp),%rax
   102f3:	48 8b 00             	mov    (%rax),%rax
   102f6:	48 8b 00             	mov    (%rax),%rax
   102f9:	8b 00                	mov    (%rax),%eax
   102fb:	39 c2                	cmp    %eax,%edx
   102fd:	0f 9d c0             	setge  %al
   10300:	0f b6 c0             	movzbl %al,%eax
   10303:	be 04 00 00 00       	mov    $0x4,%esi
   10308:	89 c7                	mov    %eax,%edi
   1030a:	e8 f6 b8 ff ff       	callq  bc05 <safe_lshift_func_uint8_t_u_s>
   1030f:	0f b6 c0             	movzbl %al,%eax
   10312:	8b b5 b4 ea ff ff    	mov    -0x154c(%rbp),%esi
   10318:	89 c7                	mov    %eax,%edi
   1031a:	e8 97 b2 ff ff       	callq  b5b6 <safe_add_func_int32_t_s_s>
   1031f:	89 c6                	mov    %eax,%esi
   10321:	bf 00 00 00 00       	mov    $0x0,%edi
   10326:	e8 67 b1 ff ff       	callq  b492 <safe_lshift_func_int16_t_s_s>
   1032b:	98                   	cwtl   
   1032c:	21 c3                	and    %eax,%ebx
   1032e:	89 da                	mov    %ebx,%edx
   10330:	48 8b 05 81 60 01 00 	mov    0x16081(%rip),%rax        # 263b8 <g_965>
   10337:	89 d2                	mov    %edx,%edx
   10339:	48 89 10             	mov    %rdx,(%rax)
   1033c:	48 8b 00             	mov    (%rax),%rax
   1033f:	48 89 c2             	mov    %rax,%rdx
   10342:	48 b8 89 81 cb f8 71 	movabs $0xc6f3ba71f8cb8189,%rax
   10349:	ba f3 c6 
   1034c:	48 39 c2             	cmp    %rax,%rdx
   1034f:	0f 96 c0             	setbe  %al
   10352:	0f b6 c0             	movzbl %al,%eax
   10355:	39 85 48 eb ff ff    	cmp    %eax,-0x14b8(%rbp)
   1035b:	0f 95 c0             	setne  %al
   1035e:	0f b6 c0             	movzbl %al,%eax
   10361:	44 89 f6             	mov    %r14d,%esi
   10364:	89 c7                	mov    %eax,%edi
   10366:	e8 0d b8 ff ff       	callq  bb78 <safe_sub_func_uint8_t_u_u>
   1036b:	48 8b 85 50 ec ff ff 	mov    -0x13b0(%rbp),%rax
   10372:	48 8b 00             	mov    (%rax),%rax
   10375:	48 8b 00             	mov    (%rax),%rax
   10378:	48 8b 00             	mov    (%rax),%rax
   1037b:	48 8b 30             	mov    (%rax),%rsi
   1037e:	48 8b 85 b8 ea ff ff 	mov    -0x1548(%rbp),%rax
   10385:	48 8d 95 e8 ea ff ff 	lea    -0x1518(%rbp),%rdx
   1038c:	49 89 d0             	mov    %rdx,%r8
   1038f:	4c 89 e9             	mov    %r13,%rcx
   10392:	4c 89 e2             	mov    %r12,%rdx
   10395:	48 89 c7             	mov    %rax,%rdi
   10398:	e8 c7 c1 00 00       	callq  1c564 <func_69>
   1039d:	48 89 85 70 ec ff ff 	mov    %rax,-0x1390(%rbp)
   103a4:	eb 01                	jmp    103a7 <func_2+0x3b09>
   103a6:	90                   	nop
   103a7:	48 8b 85 30 ec ff ff 	mov    -0x13d0(%rbp),%rax
   103ae:	48 8b 00             	mov    (%rax),%rax
   103b1:	48 8b 00             	mov    (%rax),%rax
   103b4:	8b 00                	mov    (%rax),%eax
   103b6:	48 8b 5d c8          	mov    -0x38(%rbp),%rbx
   103ba:	64 48 33 1c 25 28 00 	xor    %fs:0x28,%rbx
   103c1:	00 00 
   103c3:	74 05                	je     103ca <func_2+0x3b2c>
   103c5:	e8 a6 ac ff ff       	callq  b070 <__stack_chk_fail@plt>
   103ca:	48 81 c4 38 15 00 00 	add    $0x1538,%rsp
   103d1:	5b                   	pop    %rbx
   103d2:	41 5c                	pop    %r12
   103d4:	41 5d                	pop    %r13
   103d6:	41 5e                	pop    %r14
   103d8:	41 5f                	pop    %r15
   103da:	5d                   	pop    %rbp
   103db:	c3                   	retq   

00000000000103dc <func_15>:
   103dc:	f3 0f 1e fa          	endbr64 
   103e0:	55                   	push   %rbp
   103e1:	48 89 e5             	mov    %rsp,%rbp
   103e4:	41 57                	push   %r15
   103e6:	41 56                	push   %r14
   103e8:	41 55                	push   %r13
   103ea:	41 54                	push   %r12
   103ec:	53                   	push   %rbx
   103ed:	48 81 ec 48 05 00 00 	sub    $0x548,%rsp
   103f4:	89 bd bc fa ff ff    	mov    %edi,-0x544(%rbp)
   103fa:	89 f0                	mov    %esi,%eax
   103fc:	89 95 b4 fa ff ff    	mov    %edx,-0x54c(%rbp)
   10402:	48 89 8d a8 fa ff ff 	mov    %rcx,-0x558(%rbp)
   10409:	44 89 85 b0 fa ff ff 	mov    %r8d,-0x550(%rbp)
   10410:	66 89 85 b8 fa ff ff 	mov    %ax,-0x548(%rbp)
   10417:	64 48 8b 04 25 28 00 	mov    %fs:0x28,%rax
   1041e:	00 00 
   10420:	48 89 45 c8          	mov    %rax,-0x38(%rbp)
   10424:	31 c0                	xor    %eax,%eax
   10426:	48 c7 85 30 fb ff ff 	movq   $0x0,-0x4d0(%rbp)
   1042d:	00 00 00 00 
   10431:	48 8d 85 c0 fb ff ff 	lea    -0x440(%rbp),%rax
   10438:	48 83 c0 0c          	add    $0xc,%rax
   1043c:	48 89 85 38 fb ff ff 	mov    %rax,-0x4c8(%rbp)
   10443:	48 b8 16 16 16 16 16 	movabs $0x1616161616161616,%rax
   1044a:	16 16 16 
   1044d:	48 89 45 be          	mov    %rax,-0x42(%rbp)
   10451:	66 c7 45 c6 16 16    	movw   $0x1616,-0x3a(%rbp)
   10457:	48 8d 85 20 fe ff ff 	lea    -0x1e0(%rbp),%rax
   1045e:	48 8d 15 7b 49 01 00 	lea    0x1497b(%rip),%rdx        # 24de0 <g_3583+0xb50>
   10465:	b9 32 00 00 00       	mov    $0x32,%ecx
   1046a:	48 89 c7             	mov    %rax,%rdi
   1046d:	48 89 d6             	mov    %rdx,%rsi
   10470:	f3 48 a5             	rep movsq %ds:(%rsi),%es:(%rdi)
   10473:	66 c7 85 ca fa ff ff 	movw   $0x748a,-0x536(%rbp)
   1047a:	8a 74 
   1047c:	48 b8 01 09 ff 09 01 	movabs $0x901a00109ff0901,%rax
   10483:	a0 01 09 
   10486:	48 89 85 00 fd ff ff 	mov    %rax,-0x300(%rbp)
   1048d:	48 bb 04 09 04 8f 01 	movabs $0x9048f018f040904,%rbx
   10494:	8f 04 09 
   10497:	48 89 9d 08 fd ff ff 	mov    %rbx,-0x2f8(%rbp)
   1049e:	48 b9 01 8f 04 09 04 	movabs $0x8f018f0409048f01,%rcx
   104a5:	8f 01 8f 
   104a8:	48 89 8d 10 fd ff ff 	mov    %rcx,-0x2f0(%rbp)
   104af:	48 89 85 18 fd ff ff 	mov    %rax,-0x2e8(%rbp)
   104b6:	48 89 9d 20 fd ff ff 	mov    %rbx,-0x2e0(%rbp)
   104bd:	48 89 8d 28 fd ff ff 	mov    %rcx,-0x2d8(%rbp)
   104c4:	48 89 85 30 fd ff ff 	mov    %rax,-0x2d0(%rbp)
   104cb:	48 89 9d 38 fd ff ff 	mov    %rbx,-0x2c8(%rbp)
   104d2:	48 89 8d 40 fd ff ff 	mov    %rcx,-0x2c0(%rbp)
   104d9:	48 8d 05 d4 3c 01 00 	lea    0x13cd4(%rip),%rax        # 241b4 <g_248>
   104e0:	48 89 85 40 fb ff ff 	mov    %rax,-0x4c0(%rbp)
   104e7:	48 8d 05 0a 85 01 00 	lea    0x1850a(%rip),%rax        # 289f8 <g_1367>
   104ee:	48 89 85 f8 fa ff ff 	mov    %rax,-0x508(%rbp)
   104f5:	48 8d 85 f8 fa ff ff 	lea    -0x508(%rbp),%rax
   104fc:	48 89 85 48 fb ff ff 	mov    %rax,-0x4b8(%rbp)
   10503:	c7 85 dc fa ff ff f8 	movl   $0xfffffff8,-0x524(%rbp)
   1050a:	ff ff ff 
   1050d:	66 c7 85 c8 fa ff ff 	movw   $0x4,-0x538(%rbp)
   10514:	04 00 
   10516:	66 c7 85 50 fd ff ff 	movw   $0x6,-0x2b0(%rbp)
   1051d:	06 00 
   1051f:	66 c7 85 52 fd ff ff 	movw   $0x6,-0x2ae(%rbp)
   10526:	06 00 
   10528:	66 c7 85 54 fd ff ff 	movw   $0x8,-0x2ac(%rbp)
   1052f:	08 00 
   10531:	66 c7 85 56 fd ff ff 	movw   $0xc462,-0x2aa(%rbp)
   10538:	62 c4 
   1053a:	66 c7 85 58 fd ff ff 	movw   $0x3687,-0x2a8(%rbp)
   10541:	87 36 
   10543:	66 c7 85 5a fd ff ff 	movw   $0x9,-0x2a6(%rbp)
   1054a:	09 00 
   1054c:	66 c7 85 5c fd ff ff 	movw   $0x6,-0x2a4(%rbp)
   10553:	06 00 
   10555:	66 c7 85 5e fd ff ff 	movw   $0x6,-0x2a2(%rbp)
   1055c:	06 00 
   1055e:	66 c7 85 60 fd ff ff 	movw   $0x8fd6,-0x2a0(%rbp)
   10565:	d6 8f 
   10567:	66 c7 85 62 fd ff ff 	movw   $0xe4b6,-0x29e(%rbp)
   1056e:	b6 e4 
   10570:	66 c7 85 64 fd ff ff 	movw   $0x3687,-0x29c(%rbp)
   10577:	87 36 
   10579:	66 c7 85 66 fd ff ff 	movw   $0xffff,-0x29a(%rbp)
   10580:	ff ff 
   10582:	66 c7 85 68 fd ff ff 	movw   $0xffff,-0x298(%rbp)
   10589:	ff ff 
   1058b:	66 c7 85 6a fd ff ff 	movw   $0x3687,-0x296(%rbp)
   10592:	87 36 
   10594:	66 c7 85 6c fd ff ff 	movw   $0xc920,-0x294(%rbp)
   1059b:	20 c9 
   1059d:	66 c7 85 6e fd ff ff 	movw   $0x74e3,-0x292(%rbp)
   105a4:	e3 74 
   105a6:	66 c7 85 70 fd ff ff 	movw   $0xc920,-0x290(%rbp)
   105ad:	20 c9 
   105af:	66 c7 85 72 fd ff ff 	movw   $0x8fd6,-0x28e(%rbp)
   105b6:	d6 8f 
   105b8:	66 c7 85 74 fd ff ff 	movw   $0x3687,-0x28c(%rbp)
   105bf:	87 36 
   105c1:	66 c7 85 76 fd ff ff 	movw   $0xc920,-0x28a(%rbp)
   105c8:	20 c9 
   105ca:	66 c7 85 78 fd ff ff 	movw   $0x4,-0x288(%rbp)
   105d1:	04 00 
   105d3:	66 c7 85 7a fd ff ff 	movw   $0x3687,-0x286(%rbp)
   105da:	87 36 
   105dc:	66 c7 85 7c fd ff ff 	movw   $0x74e3,-0x284(%rbp)
   105e3:	e3 74 
   105e5:	66 c7 85 7e fd ff ff 	movw   $0x0,-0x282(%rbp)
   105ec:	00 00 
   105ee:	66 c7 85 80 fd ff ff 	movw   $0xc462,-0x280(%rbp)
   105f5:	62 c4 
   105f7:	66 c7 85 82 fd ff ff 	movw   $0x74e3,-0x27e(%rbp)
   105fe:	e3 74 
   10600:	66 c7 85 84 fd ff ff 	movw   $0x8,-0x27c(%rbp)
   10607:	08 00 
   10609:	66 c7 85 86 fd ff ff 	movw   $0x74e3,-0x27a(%rbp)
   10610:	e3 74 
   10612:	66 c7 85 88 fd ff ff 	movw   $0xffff,-0x278(%rbp)
   10619:	ff ff 
   1061b:	66 c7 85 8a fd ff ff 	movw   $0x8fd6,-0x276(%rbp)
   10622:	d6 8f 
   10624:	66 c7 85 8c fd ff ff 	movw   $0x8fd6,-0x274(%rbp)
   1062b:	d6 8f 
   1062d:	66 c7 85 8e fd ff ff 	movw   $0xffff,-0x272(%rbp)
   10634:	ff ff 
   10636:	66 c7 85 90 fd ff ff 	movw   $0x4,-0x270(%rbp)
   1063d:	04 00 
   1063f:	66 c7 85 92 fd ff ff 	movw   $0xc920,-0x26e(%rbp)
   10646:	20 c9 
   10648:	66 c7 85 94 fd ff ff 	movw   $0x3687,-0x26c(%rbp)
   1064f:	87 36 
   10651:	66 c7 85 96 fd ff ff 	movw   $0xffff,-0x26a(%rbp)
   10658:	ff ff 
   1065a:	66 c7 85 98 fd ff ff 	movw   $0x6,-0x268(%rbp)
   10661:	06 00 
   10663:	66 c7 85 9a fd ff ff 	movw   $0x8fd6,-0x266(%rbp)
   1066a:	d6 8f 
   1066c:	66 c7 85 9c fd ff ff 	movw   $0xe4b6,-0x264(%rbp)
   10673:	b6 e4 
   10675:	66 c7 85 9e fd ff ff 	movw   $0x3687,-0x262(%rbp)
   1067c:	87 36 
   1067e:	66 c7 85 a0 fd ff ff 	movw   $0xffff,-0x260(%rbp)
   10685:	ff ff 
   10687:	66 c7 85 a2 fd ff ff 	movw   $0xffff,-0x25e(%rbp)
   1068e:	ff ff 
   10690:	66 c7 85 a4 fd ff ff 	movw   $0x6,-0x25c(%rbp)
   10697:	06 00 
   10699:	66 c7 85 a6 fd ff ff 	movw   $0x3687,-0x25a(%rbp)
   106a0:	87 36 
   106a2:	66 c7 85 a8 fd ff ff 	movw   $0x0,-0x258(%rbp)
   106a9:	00 00 
   106ab:	66 c7 85 aa fd ff ff 	movw   $0x3687,-0x256(%rbp)
   106b2:	87 36 
   106b4:	66 c7 85 ac fd ff ff 	movw   $0x8fd6,-0x254(%rbp)
   106bb:	d6 8f 
   106bd:	66 c7 85 ae fd ff ff 	movw   $0x3687,-0x252(%rbp)
   106c4:	87 36 
   106c6:	66 c7 85 b0 fd ff ff 	movw   $0xc920,-0x250(%rbp)
   106cd:	20 c9 
   106cf:	66 c7 85 b2 fd ff ff 	movw   $0xe4b6,-0x24e(%rbp)
   106d6:	b6 e4 
   106d8:	66 c7 85 b4 fd ff ff 	movw   $0x9,-0x24c(%rbp)
   106df:	09 00 
   106e1:	66 c7 85 b6 fd ff ff 	movw   $0x0,-0x24a(%rbp)
   106e8:	00 00 
   106ea:	66 c7 85 b8 fd ff ff 	movw   $0xc920,-0x248(%rbp)
   106f1:	20 c9 
   106f3:	66 c7 85 ba fd ff ff 	movw   $0x5e63,-0x246(%rbp)
   106fa:	63 5e 
   106fc:	66 c7 85 bc fd ff ff 	movw   $0x0,-0x244(%rbp)
   10703:	00 00 
   10705:	66 c7 85 be fd ff ff 	movw   $0xffff,-0x242(%rbp)
   1070c:	ff ff 
   1070e:	66 c7 85 c0 fd ff ff 	movw   $0x5e63,-0x240(%rbp)
   10715:	63 5e 
   10717:	66 c7 85 c2 fd ff ff 	movw   $0xffff,-0x23e(%rbp)
   1071e:	ff ff 
   10720:	66 c7 85 c4 fd ff ff 	movw   $0xf95f,-0x23c(%rbp)
   10727:	5f f9 
   10729:	66 c7 85 c6 fd ff ff 	movw   $0xf95f,-0x23a(%rbp)
   10730:	5f f9 
   10732:	66 c7 85 c8 fd ff ff 	movw   $0xffff,-0x238(%rbp)
   10739:	ff ff 
   1073b:	66 c7 85 ca fd ff ff 	movw   $0x5e63,-0x236(%rbp)
   10742:	63 5e 
   10744:	66 c7 85 cc fd ff ff 	movw   $0x9,-0x234(%rbp)
   1074b:	09 00 
   1074d:	66 c7 85 ce fd ff ff 	movw   $0xe4b6,-0x232(%rbp)
   10754:	b6 e4 
   10756:	66 c7 85 d0 fd ff ff 	movw   $0xc920,-0x230(%rbp)
   1075d:	20 c9 
   1075f:	66 c7 85 d2 fd ff ff 	movw   $0xffff,-0x22e(%rbp)
   10766:	ff ff 
   10768:	66 c7 85 d4 fd ff ff 	movw   $0xe4b6,-0x22c(%rbp)
   1076f:	b6 e4 
   10771:	66 c7 85 d6 fd ff ff 	movw   $0xffff,-0x22a(%rbp)
   10778:	ff ff 
   1077a:	66 c7 85 d8 fd ff ff 	movw   $0xc462,-0x228(%rbp)
   10781:	62 c4 
   10783:	66 c7 85 da fd ff ff 	movw   $0xc920,-0x226(%rbp)
   1078a:	20 c9 
   1078c:	66 c7 85 dc fd ff ff 	movw   $0x8fd6,-0x224(%rbp)
   10793:	d6 8f 
   10795:	66 c7 85 de fd ff ff 	movw   $0x8,-0x222(%rbp)
   1079c:	08 00 
   1079e:	66 c7 85 e0 fd ff ff 	movw   $0x5e63,-0x220(%rbp)
   107a5:	63 5e 
   107a7:	66 c7 85 e2 fd ff ff 	movw   $0x4,-0x21e(%rbp)
   107ae:	04 00 
   107b0:	66 c7 85 e4 fd ff ff 	movw   $0x5e63,-0x21c(%rbp)
   107b7:	63 5e 
   107b9:	66 c7 85 e6 fd ff ff 	movw   $0x8,-0x21a(%rbp)
   107c0:	08 00 
   107c2:	66 c7 85 e8 fd ff ff 	movw   $0x8fd6,-0x218(%rbp)
   107c9:	d6 8f 
   107cb:	66 c7 85 ea fd ff ff 	movw   $0x8,-0x216(%rbp)
   107d2:	08 00 
   107d4:	66 c7 85 ec fd ff ff 	movw   $0xc920,-0x214(%rbp)
   107db:	20 c9 
   107dd:	66 c7 85 ee fd ff ff 	movw   $0xf95f,-0x212(%rbp)
   107e4:	5f f9 
   107e6:	66 c7 85 f0 fd ff ff 	movw   $0x5e63,-0x210(%rbp)
   107ed:	63 5e 
   107ef:	66 c7 85 f2 fd ff ff 	movw   $0x8fd6,-0x20e(%rbp)
   107f6:	d6 8f 
   107f8:	66 c7 85 f4 fd ff ff 	movw   $0x8,-0x20c(%rbp)
   107ff:	08 00 
   10801:	66 c7 85 f6 fd ff ff 	movw   $0x5e63,-0x20a(%rbp)
   10808:	63 5e 
   1080a:	66 c7 85 f8 fd ff ff 	movw   $0xe4b6,-0x208(%rbp)
   10811:	b6 e4 
   10813:	66 c7 85 fa fd ff ff 	movw   $0xffff,-0x206(%rbp)
   1081a:	ff ff 
   1081c:	66 c7 85 fc fd ff ff 	movw   $0xc462,-0x204(%rbp)
   10823:	62 c4 
   10825:	66 c7 85 fe fd ff ff 	movw   $0xc920,-0x202(%rbp)
   1082c:	20 c9 
   1082e:	66 c7 85 00 fe ff ff 	movw   $0xc920,-0x200(%rbp)
   10835:	20 c9 
   10837:	66 c7 85 02 fe ff ff 	movw   $0xc462,-0x1fe(%rbp)
   1083e:	62 c4 
   10840:	66 c7 85 04 fe ff ff 	movw   $0xffff,-0x1fc(%rbp)
   10847:	ff ff 
   10849:	66 c7 85 06 fe ff ff 	movw   $0xc920,-0x1fa(%rbp)
   10850:	20 c9 
   10852:	66 c7 85 08 fe ff ff 	movw   $0x9,-0x1f8(%rbp)
   10859:	09 00 
   1085b:	66 c7 85 0a fe ff ff 	movw   $0xf95f,-0x1f6(%rbp)
   10862:	5f f9 
   10864:	66 c7 85 0c fe ff ff 	movw   $0x4,-0x1f4(%rbp)
   1086b:	04 00 
   1086d:	66 c7 85 0e fe ff ff 	movw   $0x9,-0x1f2(%rbp)
   10874:	09 00 
   10876:	66 c7 85 10 fe ff ff 	movw   $0x5e63,-0x1f0(%rbp)
   1087d:	63 5e 
   1087f:	66 c7 85 12 fe ff ff 	movw   $0xffff,-0x1ee(%rbp)
   10886:	ff ff 
   10888:	c7 85 e0 fa ff ff 4b 	movl   $0x563dfd4b,-0x520(%rbp)
   1088f:	fd 3d 56 
   10892:	48 c7 85 50 fb ff ff 	movq   $0x0,-0x4b0(%rbp)
   10899:	00 00 00 00 
   1089d:	48 c7 85 58 fb ff ff 	movq   $0x0,-0x4a8(%rbp)
   108a4:	00 00 00 00 
   108a8:	c7 85 e4 fa ff ff 01 	movl   $0x1,-0x51c(%rbp)
   108af:	00 00 00 
   108b2:	48 8d 05 ff 5a 01 00 	lea    0x15aff(%rip),%rax        # 263b8 <g_965>
   108b9:	48 89 85 00 fb ff ff 	mov    %rax,-0x500(%rbp)
   108c0:	48 8d 05 b1 82 01 00 	lea    0x182b1(%rip),%rax        # 28b78 <g_2930+0x38>
   108c7:	48 89 85 08 fb ff ff 	mov    %rax,-0x4f8(%rbp)
   108ce:	48 8d 85 08 fb ff ff 	lea    -0x4f8(%rbp),%rax
   108d5:	48 89 85 60 fb ff ff 	mov    %rax,-0x4a0(%rbp)
   108dc:	48 8d 05 e5 5a 01 00 	lea    0x15ae5(%rip),%rax        # 263c8 <g_1124>
   108e3:	48 89 85 30 fc ff ff 	mov    %rax,-0x3d0(%rbp)
   108ea:	48 8d 05 d7 5a 01 00 	lea    0x15ad7(%rip),%rax        # 263c8 <g_1124>
   108f1:	48 89 85 38 fc ff ff 	mov    %rax,-0x3c8(%rbp)
   108f8:	48 8d 05 c9 5a 01 00 	lea    0x15ac9(%rip),%rax        # 263c8 <g_1124>
   108ff:	48 89 85 40 fc ff ff 	mov    %rax,-0x3c0(%rbp)
   10906:	48 8d 05 bb 5a 01 00 	lea    0x15abb(%rip),%rax        # 263c8 <g_1124>
   1090d:	48 89 85 48 fc ff ff 	mov    %rax,-0x3b8(%rbp)
   10914:	48 8d 05 ad 5a 01 00 	lea    0x15aad(%rip),%rax        # 263c8 <g_1124>
   1091b:	48 89 85 50 fc ff ff 	mov    %rax,-0x3b0(%rbp)
   10922:	48 8d 05 9f 5a 01 00 	lea    0x15a9f(%rip),%rax        # 263c8 <g_1124>
   10929:	48 89 85 58 fc ff ff 	mov    %rax,-0x3a8(%rbp)
   10930:	48 8d 05 91 5a 01 00 	lea    0x15a91(%rip),%rax        # 263c8 <g_1124>
   10937:	48 89 85 60 fc ff ff 	mov    %rax,-0x3a0(%rbp)
   1093e:	48 8d 05 83 5a 01 00 	lea    0x15a83(%rip),%rax        # 263c8 <g_1124>
   10945:	48 89 85 68 fc ff ff 	mov    %rax,-0x398(%rbp)
   1094c:	48 8d 85 30 fc ff ff 	lea    -0x3d0(%rbp),%rax
   10953:	48 83 c0 30          	add    $0x30,%rax
   10957:	48 89 85 10 fb ff ff 	mov    %rax,-0x4f0(%rbp)
   1095e:	48 8d 85 10 fb ff ff 	lea    -0x4f0(%rbp),%rax
   10965:	48 89 85 68 fb ff ff 	mov    %rax,-0x498(%rbp)
   1096c:	48 c7 85 18 fb ff ff 	movq   $0x0,-0x4e8(%rbp)
   10973:	00 00 00 00 
   10977:	48 8d 85 18 fb ff ff 	lea    -0x4e8(%rbp),%rax
   1097e:	48 89 85 70 fb ff ff 	mov    %rax,-0x490(%rbp)
   10985:	c7 85 d0 fa ff ff 00 	movl   $0x0,-0x530(%rbp)
   1098c:	00 00 00 
   1098f:	eb 1e                	jmp    109af <func_15+0x5d3>
   10991:	8b 85 d0 fa ff ff    	mov    -0x530(%rbp),%eax
   10997:	48 98                	cltq   
   10999:	48 8d 15 f0 36 01 00 	lea    0x136f0(%rip),%rdx        # 24090 <g_27>
   109a0:	48 89 94 c5 b0 fc ff 	mov    %rdx,-0x350(%rbp,%rax,8)
   109a7:	ff 
   109a8:	83 85 d0 fa ff ff 01 	addl   $0x1,-0x530(%rbp)
   109af:	83 bd d0 fa ff ff 08 	cmpl   $0x8,-0x530(%rbp)
   109b6:	7e d9                	jle    10991 <func_15+0x5b5>
   109b8:	c7 85 d0 fa ff ff 00 	movl   $0x0,-0x530(%rbp)
   109bf:	00 00 00 
   109c2:	eb 1e                	jmp    109e2 <func_15+0x606>
   109c4:	8b 85 d0 fa ff ff    	mov    -0x530(%rbp),%eax
   109ca:	48 98                	cltq   
   109cc:	48 8d 15 c1 36 01 00 	lea    0x136c1(%rip),%rdx        # 24094 <g_44>
   109d3:	48 89 94 c5 d0 fb ff 	mov    %rdx,-0x430(%rbp,%rax,8)
   109da:	ff 
   109db:	83 85 d0 fa ff ff 01 	addl   $0x1,-0x530(%rbp)
   109e2:	83 bd d0 fa ff ff 02 	cmpl   $0x2,-0x530(%rbp)
   109e9:	7e d9                	jle    109c4 <func_15+0x5e8>
   109eb:	c7 85 d0 fa ff ff 00 	movl   $0x0,-0x530(%rbp)
   109f2:	00 00 00 
   109f5:	eb 1a                	jmp    10a11 <func_15+0x635>
   109f7:	8b 85 d0 fa ff ff    	mov    -0x530(%rbp),%eax
   109fd:	48 98                	cltq   
   109ff:	c7 84 85 c0 fb ff ff 	movl   $0xc609e820,-0x440(%rbp,%rax,4)
   10a06:	20 e8 09 c6 
   10a0a:	83 85 d0 fa ff ff 01 	addl   $0x1,-0x530(%rbp)
   10a11:	83 bd d0 fa ff ff 03 	cmpl   $0x3,-0x530(%rbp)
   10a18:	7e dd                	jle    109f7 <func_15+0x61b>
   10a1a:	8b 85 b0 fa ff ff    	mov    -0x550(%rbp),%eax
   10a20:	44 0f b7 e0          	movzwl %ax,%r12d
   10a24:	0f b6 45 c4          	movzbl -0x3c(%rbp),%eax
   10a28:	44 0f b6 f0          	movzbl %al,%r14d
   10a2c:	4c 8b ad d0 fc ff ff 	mov    -0x330(%rbp),%r13
   10a33:	8b 85 b0 fa ff ff    	mov    -0x550(%rbp),%eax
   10a39:	44 0f be f8          	movsbl %al,%r15d
   10a3d:	48 8b 05 dc 58 01 00 	mov    0x158dc(%rip),%rax        # 26320 <g_40+0x20>
   10a44:	48 89 85 a0 fa ff ff 	mov    %rax,-0x560(%rbp)
   10a4b:	83 85 bc fa ff ff 01 	addl   $0x1,-0x544(%rbp)
   10a52:	0f b6 45 c3          	movzbl -0x3d(%rbp),%eax
   10a56:	0f b6 f8             	movzbl %al,%edi
   10a59:	89 bd 9c fa ff ff    	mov    %edi,-0x564(%rbp)
   10a5f:	48 8b 1d 5a 59 01 00 	mov    0x1595a(%rip),%rbx        # 263c0 <g_1058>
   10a66:	48 89 9d 90 fa ff ff 	mov    %rbx,-0x570(%rbp)
   10a6d:	0f b6 05 5c 37 01 00 	movzbl 0x1375c(%rip),%eax        # 241d0 <g_377>
   10a74:	0f b6 d8             	movzbl %al,%ebx
   10a77:	8b 0d 17 36 01 00    	mov    0x13617(%rip),%ecx        # 24094 <g_44>
   10a7d:	48 8b 85 38 fb ff ff 	mov    -0x4c8(%rbp),%rax
   10a84:	8b 00                	mov    (%rax),%eax
   10a86:	25 45 7f 97 f7       	and    $0xf7977f45,%eax
   10a8b:	89 c2                	mov    %eax,%edx
   10a8d:	48 8b 85 38 fb ff ff 	mov    -0x4c8(%rbp),%rax
   10a94:	89 10                	mov    %edx,(%rax)
   10a96:	48 8b 85 38 fb ff ff 	mov    -0x4c8(%rbp),%rax
   10a9d:	8b 00                	mov    (%rax),%eax
   10a9f:	ba 0d 6f 5c 4f       	mov    $0x4f5c6f0d,%edx
   10aa4:	89 ce                	mov    %ecx,%esi
   10aa6:	89 c7                	mov    %eax,%edi
   10aa8:	e8 9e b4 00 00       	callq  1bf4b <func_56>
   10aad:	89 de                	mov    %ebx,%esi
   10aaf:	89 c7                	mov    %eax,%edi
   10ab1:	e8 10 82 00 00       	callq  18cc6 <func_52>
   10ab6:	48 8b 1d 93 59 01 00 	mov    0x15993(%rip),%rbx        # 26450 <g_2065>
   10abd:	8b 8d 9c fa ff ff    	mov    -0x564(%rbp),%ecx
   10ac3:	48 8d 15 22 37 01 00 	lea    0x13722(%rip),%rdx        # 241ec <g_539>
   10aca:	48 8b b5 90 fa ff ff 	mov    -0x570(%rbp),%rsi
   10ad1:	48 89 c7             	mov    %rax,%rdi
   10ad4:	e8 2b 1c 00 00       	callq  12704 <func_47>
   10ad9:	48 89 03             	mov    %rax,(%rbx)
   10adc:	48 8b 03             	mov    (%rbx),%rax
   10adf:	48 39 85 a0 fa ff ff 	cmp    %rax,-0x560(%rbp)
   10ae6:	74 07                	je     10aef <func_15+0x713>
   10ae8:	b8 09 00 00 00       	mov    $0x9,%eax
   10aed:	eb 05                	jmp    10af4 <func_15+0x718>
   10aef:	b8 08 00 00 00       	mov    $0x8,%eax
   10af4:	66 09 85 ca fa ff ff 	or     %ax,-0x536(%rbp)
   10afb:	0f b7 95 ca fa ff ff 	movzwl -0x536(%rbp),%edx
   10b02:	0f b7 85 b8 fa ff ff 	movzwl -0x548(%rbp),%eax
   10b09:	09 d0                	or     %edx,%eax
   10b0b:	66 89 85 b8 fa ff ff 	mov    %ax,-0x548(%rbp)
   10b12:	0f b7 85 b8 fa ff ff 	movzwl -0x548(%rbp),%eax
   10b19:	8b 95 b0 fa ff ff    	mov    -0x550(%rbp),%edx
   10b1f:	89 d6                	mov    %edx,%esi
   10b21:	89 c7                	mov    %eax,%edi
   10b23:	e8 de b2 ff ff       	callq  be06 <safe_lshift_func_uint16_t_u_u>
   10b28:	98                   	cwtl   
   10b29:	be fd ff ff ff       	mov    $0xfffffffd,%esi
   10b2e:	89 c7                	mov    %eax,%edi
   10b30:	e8 c0 a8 ff ff       	callq  b3f5 <safe_mul_func_int16_t_s_s>
   10b35:	44 89 fe             	mov    %r15d,%esi
   10b38:	bf 7d 00 00 00       	mov    $0x7d,%edi
   10b3d:	e8 d0 a6 ff ff       	callq  b212 <safe_mul_func_int8_t_s_s>
   10b42:	0f be c0             	movsbl %al,%eax
   10b45:	be 0e 00 00 00       	mov    $0xe,%esi
   10b4a:	89 c7                	mov    %eax,%edi
   10b4c:	e8 c1 a6 ff ff       	callq  b212 <safe_mul_func_int8_t_s_s>
   10b51:	83 f0 01             	xor    $0x1,%eax
   10b54:	0f be c0             	movsbl %al,%eax
   10b57:	44 89 f2             	mov    %r14d,%edx
   10b5a:	4c 89 ee             	mov    %r13,%rsi
   10b5d:	89 c7                	mov    %eax,%edi
   10b5f:	e8 bc 02 00 00       	callq  10e20 <func_28>
   10b64:	0f be d0             	movsbl %al,%edx
   10b67:	8b 85 b0 fa ff ff    	mov    -0x550(%rbp),%eax
   10b6d:	89 c1                	mov    %eax,%ecx
   10b6f:	0f b6 05 1a 35 01 00 	movzbl 0x1351a(%rip),%eax        # 24090 <g_27>
   10b76:	31 c8                	xor    %ecx,%eax
   10b78:	88 05 12 35 01 00    	mov    %al,0x13512(%rip)        # 24090 <g_27>
   10b7e:	0f b6 05 0b 35 01 00 	movzbl 0x1350b(%rip),%eax        # 24090 <g_27>
   10b85:	0f be c0             	movsbl %al,%eax
   10b88:	89 d6                	mov    %edx,%esi
   10b8a:	89 c7                	mov    %eax,%edi
   10b8c:	e8 81 a6 ff ff       	callq  b212 <safe_mul_func_int8_t_s_s>
   10b91:	66 98                	cbtw   
   10b93:	8b 95 b4 fa ff ff    	mov    -0x54c(%rbp),%edx
   10b99:	31 c2                	xor    %eax,%edx
   10b9b:	0f b6 45 c3          	movzbl -0x3d(%rbp),%eax
   10b9f:	0f b6 c0             	movzbl %al,%eax
   10ba2:	09 d0                	or     %edx,%eax
   10ba4:	0f b7 c0             	movzwl %ax,%eax
   10ba7:	44 89 e6             	mov    %r12d,%esi
   10baa:	89 c7                	mov    %eax,%edi
   10bac:	e8 8c b1 ff ff       	callq  bd3d <safe_mul_func_uint16_t_u_u>
   10bb1:	89 c2                	mov    %eax,%edx
   10bb3:	48 8b 05 06 58 01 00 	mov    0x15806(%rip),%rax        # 263c0 <g_1058>
   10bba:	0f b7 d2             	movzwl %dx,%edx
   10bbd:	89 10                	mov    %edx,(%rax)
   10bbf:	66 c7 05 68 36 01 00 	movw   $0x0,0x13668(%rip)        # 24230 <g_1670>
   10bc6:	00 00 
   10bc8:	e9 17 02 00 00       	jmpq   10de4 <func_15+0xa08>
   10bcd:	c7 85 e8 fa ff ff 00 	movl   $0x0,-0x518(%rbp)
   10bd4:	00 00 00 
   10bd7:	c7 85 ec fa ff ff 44 	movl   $0x1196c244,-0x514(%rbp)
   10bde:	c2 96 11 
   10be1:	c7 85 cc fa ff ff d2 	movl   $0x4e422fd2,-0x534(%rbp)
   10be8:	2f 42 4e 
   10beb:	c7 85 f0 fa ff ff 8a 	movl   $0x7d67c58a,-0x510(%rbp)
   10bf2:	c5 67 7d 
   10bf5:	c6 85 c5 fa ff ff c5 	movb   $0xc5,-0x53b(%rbp)
   10bfc:	48 8d 05 d5 35 01 00 	lea    0x135d5(%rip),%rax        # 241d8 <g_400>
   10c03:	48 89 85 78 fb ff ff 	mov    %rax,-0x488(%rbp)
   10c0a:	48 c7 85 80 fb ff ff 	movq   $0x0,-0x480(%rbp)
   10c11:	00 00 00 00 
   10c15:	c7 85 f4 fa ff ff 08 	movl   $0x8,-0x50c(%rbp)
   10c1c:	00 00 00 
   10c1f:	48 c7 85 88 fb ff ff 	movq   $0x0,-0x478(%rbp)
   10c26:	00 00 00 00 
   10c2a:	c6 85 c6 fa ff ff ff 	movb   $0xff,-0x53a(%rbp)
   10c31:	48 8d 05 28 58 01 00 	lea    0x15828(%rip),%rax        # 26460 <g_2151>
   10c38:	48 89 85 20 fb ff ff 	mov    %rax,-0x4e0(%rbp)
   10c3f:	48 8d 85 20 fb ff ff 	lea    -0x4e0(%rbp),%rax
   10c46:	48 89 85 90 fb ff ff 	mov    %rax,-0x470(%rbp)
   10c4d:	48 8d 85 c8 fa ff ff 	lea    -0x538(%rbp),%rax
   10c54:	48 89 85 10 fc ff ff 	mov    %rax,-0x3f0(%rbp)
   10c5b:	48 8d 85 c8 fa ff ff 	lea    -0x538(%rbp),%rax
   10c62:	48 89 85 18 fc ff ff 	mov    %rax,-0x3e8(%rbp)
   10c69:	48 8d 85 c8 fa ff ff 	lea    -0x538(%rbp),%rax
   10c70:	48 89 85 20 fc ff ff 	mov    %rax,-0x3e0(%rbp)
   10c77:	48 8d 85 c8 fa ff ff 	lea    -0x538(%rbp),%rax
   10c7e:	48 89 85 28 fc ff ff 	mov    %rax,-0x3d8(%rbp)
   10c85:	48 8d 05 04 7d 01 00 	lea    0x17d04(%rip),%rax        # 28990 <g_261>
   10c8c:	48 89 85 28 fb ff ff 	mov    %rax,-0x4d8(%rbp)
   10c93:	48 8d 85 28 fb ff ff 	lea    -0x4d8(%rbp),%rax
   10c9a:	48 89 85 98 fb ff ff 	mov    %rax,-0x468(%rbp)
   10ca1:	48 8d 85 00 fb ff ff 	lea    -0x500(%rbp),%rax
   10ca8:	48 89 85 70 fc ff ff 	mov    %rax,-0x390(%rbp)
   10caf:	48 8d 85 00 fb ff ff 	lea    -0x500(%rbp),%rax
   10cb6:	48 89 85 78 fc ff ff 	mov    %rax,-0x388(%rbp)
   10cbd:	48 8d 85 00 fb ff ff 	lea    -0x500(%rbp),%rax
   10cc4:	48 89 85 80 fc ff ff 	mov    %rax,-0x380(%rbp)
   10ccb:	48 8d 85 00 fb ff ff 	lea    -0x500(%rbp),%rax
   10cd2:	48 89 85 88 fc ff ff 	mov    %rax,-0x378(%rbp)
   10cd9:	48 8d 85 00 fb ff ff 	lea    -0x500(%rbp),%rax
   10ce0:	48 89 85 90 fc ff ff 	mov    %rax,-0x370(%rbp)
   10ce7:	48 8d 85 00 fb ff ff 	lea    -0x500(%rbp),%rax
   10cee:	48 89 85 98 fc ff ff 	mov    %rax,-0x368(%rbp)
   10cf5:	48 8d 85 00 fb ff ff 	lea    -0x500(%rbp),%rax
   10cfc:	48 89 85 a0 fc ff ff 	mov    %rax,-0x360(%rbp)
   10d03:	48 8d 85 00 fb ff ff 	lea    -0x500(%rbp),%rax
   10d0a:	48 89 85 a8 fc ff ff 	mov    %rax,-0x358(%rbp)
   10d11:	48 8d 05 38 5a 01 00 	lea    0x15a38(%rip),%rax        # 26750 <g_2723>
   10d18:	48 89 85 a0 fb ff ff 	mov    %rax,-0x460(%rbp)
   10d1f:	48 c7 85 a8 fb ff ff 	movq   $0x0,-0x458(%rbp)
   10d26:	00 00 00 00 
   10d2a:	48 8d 85 cc fa ff ff 	lea    -0x534(%rbp),%rax
   10d31:	48 89 85 b0 fb ff ff 	mov    %rax,-0x450(%rbp)
   10d38:	c6 85 c7 fa ff ff b5 	movb   $0xb5,-0x539(%rbp)
   10d3f:	c7 85 d4 fa ff ff 00 	movl   $0x0,-0x52c(%rbp)
   10d46:	00 00 00 
   10d49:	eb 50                	jmp    10d9b <func_15+0x9bf>
   10d4b:	c7 85 d8 fa ff ff 00 	movl   $0x0,-0x528(%rbp)
   10d52:	00 00 00 
   10d55:	eb 34                	jmp    10d8b <func_15+0x9af>
   10d57:	8b 85 d8 fa ff ff    	mov    -0x528(%rbp),%eax
   10d5d:	48 63 c8             	movslq %eax,%rcx
   10d60:	8b 85 d4 fa ff ff    	mov    -0x52c(%rbp),%eax
   10d66:	48 63 d0             	movslq %eax,%rdx
   10d69:	48 89 d0             	mov    %rdx,%rax
   10d6c:	48 01 c0             	add    %rax,%rax
   10d6f:	48 01 d0             	add    %rdx,%rax
   10d72:	48 01 c8             	add    %rcx,%rax
   10d75:	48 8d 15 4c 56 01 00 	lea    0x1564c(%rip),%rdx        # 263c8 <g_1124>
   10d7c:	48 89 94 c5 f0 fb ff 	mov    %rdx,-0x410(%rbp,%rax,8)
   10d83:	ff 
   10d84:	83 85 d8 fa ff ff 01 	addl   $0x1,-0x528(%rbp)
   10d8b:	83 bd d8 fa ff ff 02 	cmpl   $0x2,-0x528(%rbp)
   10d92:	7e c3                	jle    10d57 <func_15+0x97b>
   10d94:	83 85 d4 fa ff ff 01 	addl   $0x1,-0x52c(%rbp)
   10d9b:	83 bd d4 fa ff ff 00 	cmpl   $0x0,-0x52c(%rbp)
   10da2:	7e a7                	jle    10d4b <func_15+0x96f>
   10da4:	c7 85 d4 fa ff ff 00 	movl   $0x0,-0x52c(%rbp)
   10dab:	00 00 00 
   10dae:	eb 1a                	jmp    10dca <func_15+0x9ee>
   10db0:	8b 85 d4 fa ff ff    	mov    -0x52c(%rbp),%eax
   10db6:	48 98                	cltq   
   10db8:	c7 84 85 bc fb ff ff 	movl   $0x3932b10a,-0x444(%rbp,%rax,4)
   10dbf:	0a b1 32 39 
   10dc3:	83 85 d4 fa ff ff 01 	addl   $0x1,-0x52c(%rbp)
   10dca:	83 bd d4 fa ff ff 00 	cmpl   $0x0,-0x52c(%rbp)
   10dd1:	7e dd                	jle    10db0 <func_15+0x9d4>
   10dd3:	0f b7 05 56 34 01 00 	movzwl 0x13456(%rip),%eax        # 24230 <g_1670>
   10dda:	83 c0 01             	add    $0x1,%eax
   10ddd:	66 89 05 4c 34 01 00 	mov    %ax,0x1344c(%rip)        # 24230 <g_1670>
   10de4:	0f b7 05 45 34 01 00 	movzwl 0x13445(%rip),%eax        # 24230 <g_1670>
   10deb:	66 85 c0             	test   %ax,%ax
   10dee:	0f 84 d9 fd ff ff    	je     10bcd <func_15+0x7f1>
   10df4:	8b 85 bc fa ff ff    	mov    -0x544(%rbp),%eax
   10dfa:	48 8b 75 c8          	mov    -0x38(%rbp),%rsi
   10dfe:	64 48 33 34 25 28 00 	xor    %fs:0x28,%rsi
   10e05:	00 00 
   10e07:	74 05                	je     10e0e <func_15+0xa32>
   10e09:	e8 62 a2 ff ff       	callq  b070 <__stack_chk_fail@plt>
   10e0e:	48 81 c4 48 05 00 00 	add    $0x548,%rsp
   10e15:	5b                   	pop    %rbx
   10e16:	41 5c                	pop    %r12
   10e18:	41 5d                	pop    %r13
   10e1a:	41 5e                	pop    %r14
   10e1c:	41 5f                	pop    %r15
   10e1e:	5d                   	pop    %rbp
   10e1f:	c3                   	retq   

0000000000010e20 <func_28>:
   10e20:	f3 0f 1e fa          	endbr64 
   10e24:	55                   	push   %rbp
   10e25:	48 89 e5             	mov    %rsp,%rbp
   10e28:	41 57                	push   %r15
   10e2a:	41 56                	push   %r14
   10e2c:	41 55                	push   %r13
   10e2e:	41 54                	push   %r12
   10e30:	53                   	push   %rbx
   10e31:	48 81 ec d8 09 00 00 	sub    $0x9d8,%rsp
   10e38:	89 bd 2c f6 ff ff    	mov    %edi,-0x9d4(%rbp)
   10e3e:	48 89 b5 20 f6 ff ff 	mov    %rsi,-0x9e0(%rbp)
   10e45:	89 d0                	mov    %edx,%eax
   10e47:	66 89 85 28 f6 ff ff 	mov    %ax,-0x9d8(%rbp)
   10e4e:	64 48 8b 04 25 28 00 	mov    %fs:0x28,%rax
   10e55:	00 00 
   10e57:	48 89 45 c8          	mov    %rax,-0x38(%rbp)
   10e5b:	31 c0                	xor    %eax,%eax
   10e5d:	48 8d 05 34 33 01 00 	lea    0x13334(%rip),%rax        # 24198 <g_214>
   10e64:	48 89 85 d0 f6 ff ff 	mov    %rax,-0x930(%rbp)
   10e6b:	c7 85 6c f6 ff ff 8b 	movl   $0x47669f8b,-0x994(%rbp)
   10e72:	9f 66 47 
   10e75:	48 c7 85 d8 f6 ff ff 	movq   $0x0,-0x928(%rbp)
   10e7c:	00 00 00 00 
   10e80:	48 8d 85 d8 f6 ff ff 	lea    -0x928(%rbp),%rax
   10e87:	48 89 85 80 f8 ff ff 	mov    %rax,-0x780(%rbp)
   10e8e:	48 8d 85 d8 f6 ff ff 	lea    -0x928(%rbp),%rax
   10e95:	48 89 85 88 f8 ff ff 	mov    %rax,-0x778(%rbp)
   10e9c:	48 8d 85 d8 f6 ff ff 	lea    -0x928(%rbp),%rax
   10ea3:	48 89 85 90 f8 ff ff 	mov    %rax,-0x770(%rbp)
   10eaa:	48 8d 85 d8 f6 ff ff 	lea    -0x928(%rbp),%rax
   10eb1:	48 89 85 98 f8 ff ff 	mov    %rax,-0x768(%rbp)
   10eb8:	48 8d 85 d8 f6 ff ff 	lea    -0x928(%rbp),%rax
   10ebf:	48 89 85 a0 f8 ff ff 	mov    %rax,-0x760(%rbp)
   10ec6:	48 8d 85 d8 f6 ff ff 	lea    -0x928(%rbp),%rax
   10ecd:	48 89 85 a8 f8 ff ff 	mov    %rax,-0x758(%rbp)
   10ed4:	48 8d 85 d8 f6 ff ff 	lea    -0x928(%rbp),%rax
   10edb:	48 89 85 b0 f8 ff ff 	mov    %rax,-0x750(%rbp)
   10ee2:	48 8d 85 d8 f6 ff ff 	lea    -0x928(%rbp),%rax
   10ee9:	48 89 85 b8 f8 ff ff 	mov    %rax,-0x748(%rbp)
   10ef0:	48 8d 85 d8 f6 ff ff 	lea    -0x928(%rbp),%rax
   10ef7:	48 89 85 c0 f8 ff ff 	mov    %rax,-0x740(%rbp)
   10efe:	48 8d 85 80 f8 ff ff 	lea    -0x780(%rbp),%rax
   10f05:	48 83 c0 40          	add    $0x40,%rax
   10f09:	48 89 85 08 f7 ff ff 	mov    %rax,-0x8f8(%rbp)
   10f10:	48 8d 85 d8 f6 ff ff 	lea    -0x928(%rbp),%rax
   10f17:	48 89 85 e0 f6 ff ff 	mov    %rax,-0x920(%rbp)
   10f1e:	48 8d 85 e0 f6 ff ff 	lea    -0x920(%rbp),%rax
   10f25:	48 89 85 10 f7 ff ff 	mov    %rax,-0x8f0(%rbp)
   10f2c:	48 c7 85 e8 f6 ff ff 	movq   $0x0,-0x918(%rbp)
   10f33:	00 00 00 00 
   10f37:	c6 85 3f f6 ff ff e6 	movb   $0xe6,-0x9c1(%rbp)
   10f3e:	c7 85 60 f9 ff ff 4c 	movl   $0xded5e04c,-0x6a0(%rbp)
   10f45:	e0 d5 de 
   10f48:	c7 85 64 f9 ff ff 4c 	movl   $0xded5e04c,-0x69c(%rbp)
   10f4f:	e0 d5 de 
   10f52:	c7 85 68 f9 ff ff ed 	movl   $0x7c17caed,-0x698(%rbp)
   10f59:	ca 17 7c 
   10f5c:	c7 85 6c f9 ff ff ff 	movl   $0xffffffff,-0x694(%rbp)
   10f63:	ff ff ff 
   10f66:	c7 85 70 f9 ff ff d5 	movl   $0x7cfc94d5,-0x690(%rbp)
   10f6d:	94 fc 7c 
   10f70:	c7 85 74 f9 ff ff ff 	movl   $0xffffffff,-0x68c(%rbp)
   10f77:	ff ff ff 
   10f7a:	c7 85 78 f9 ff ff ed 	movl   $0x7c17caed,-0x688(%rbp)
   10f81:	ca 17 7c 
   10f84:	c7 85 7c f9 ff ff 4c 	movl   $0xded5e04c,-0x684(%rbp)
   10f8b:	e0 d5 de 
   10f8e:	c7 85 80 f9 ff ff 4c 	movl   $0xded5e04c,-0x680(%rbp)
   10f95:	e0 d5 de 
   10f98:	c7 85 84 f9 ff ff ed 	movl   $0x7c17caed,-0x67c(%rbp)
   10f9f:	ca 17 7c 
   10fa2:	c7 85 88 f9 ff ff f7 	movl   $0xfffffff7,-0x678(%rbp)
   10fa9:	ff ff ff 
   10fac:	c7 85 8c f9 ff ff ff 	movl   $0xffffffff,-0x674(%rbp)
   10fb3:	ff ff ff 
   10fb6:	c7 85 90 f9 ff ff 5f 	movl   $0x2c7fd85f,-0x670(%rbp)
   10fbd:	d8 7f 2c 
   10fc0:	c7 85 94 f9 ff ff 5f 	movl   $0x2c7fd85f,-0x66c(%rbp)
   10fc7:	d8 7f 2c 
   10fca:	c7 85 98 f9 ff ff ff 	movl   $0xffffffff,-0x668(%rbp)
   10fd1:	ff ff ff 
   10fd4:	c7 85 9c f9 ff ff f7 	movl   $0xfffffff7,-0x664(%rbp)
   10fdb:	ff ff ff 
   10fde:	c7 85 a0 f9 ff ff ed 	movl   $0x7c17caed,-0x660(%rbp)
   10fe5:	ca 17 7c 
   10fe8:	c7 85 a4 f9 ff ff f7 	movl   $0xfffffff7,-0x65c(%rbp)
   10fef:	ff ff ff 
   10ff2:	c7 85 a8 f9 ff ff ff 	movl   $0xffffffff,-0x658(%rbp)
   10ff9:	ff ff ff 
   10ffc:	c7 85 ac f9 ff ff 5f 	movl   $0x2c7fd85f,-0x654(%rbp)
   11003:	d8 7f 2c 
   11006:	c7 85 b0 f9 ff ff 25 	movl   $0xd72f2d25,-0x650(%rbp)
   1100d:	2d 2f d7 
   11010:	c7 85 b4 f9 ff ff 4c 	movl   $0xded5e04c,-0x64c(%rbp)
   11017:	e0 d5 de 
   1101a:	c7 85 b8 f9 ff ff 25 	movl   $0xd72f2d25,-0x648(%rbp)
   11021:	2d 2f d7 
   11024:	c7 85 bc f9 ff ff 5f 	movl   $0x2c7fd85f,-0x644(%rbp)
   1102b:	d8 7f 2c 
   1102e:	c7 85 c0 f9 ff ff ed 	movl   $0x7c17caed,-0x640(%rbp)
   11035:	ca 17 7c 
   11038:	c7 85 c4 f9 ff ff ed 	movl   $0x7c17caed,-0x63c(%rbp)
   1103f:	ca 17 7c 
   11042:	c7 85 c8 f9 ff ff 5f 	movl   $0x2c7fd85f,-0x638(%rbp)
   11049:	d8 7f 2c 
   1104c:	c7 85 cc f9 ff ff 25 	movl   $0xd72f2d25,-0x634(%rbp)
   11053:	2d 2f d7 
   11056:	c7 85 d0 f9 ff ff 4c 	movl   $0xded5e04c,-0x630(%rbp)
   1105d:	e0 d5 de 
   11060:	c7 85 d4 f9 ff ff 25 	movl   $0xd72f2d25,-0x62c(%rbp)
   11067:	2d 2f d7 
   1106a:	c7 85 d8 f9 ff ff 25 	movl   $0xd72f2d25,-0x628(%rbp)
   11071:	2d 2f d7 
   11074:	c7 85 dc f9 ff ff f7 	movl   $0xfffffff7,-0x624(%rbp)
   1107b:	ff ff ff 
   1107e:	c7 85 e0 f9 ff ff 4c 	movl   $0xded5e04c,-0x620(%rbp)
   11085:	e0 d5 de 
   11088:	c7 85 e4 f9 ff ff ff 	movl   $0xffffffff,-0x61c(%rbp)
   1108f:	ff ff ff 
   11092:	c7 85 e8 f9 ff ff 4c 	movl   $0xded5e04c,-0x618(%rbp)
   11099:	e0 d5 de 
   1109c:	c7 85 ec f9 ff ff f7 	movl   $0xfffffff7,-0x614(%rbp)
   110a3:	ff ff ff 
   110a6:	c7 85 f0 f9 ff ff 25 	movl   $0xd72f2d25,-0x610(%rbp)
   110ad:	2d 2f d7 
   110b0:	c7 85 f4 f9 ff ff 25 	movl   $0xd72f2d25,-0x60c(%rbp)
   110b7:	2d 2f d7 
   110ba:	c7 85 f8 f9 ff ff f7 	movl   $0xfffffff7,-0x608(%rbp)
   110c1:	ff ff ff 
   110c4:	c7 85 fc f9 ff ff 4c 	movl   $0xded5e04c,-0x604(%rbp)
   110cb:	e0 d5 de 
   110ce:	48 8d 05 db 52 01 00 	lea    0x152db(%rip),%rax        # 263b0 <g_737>
   110d5:	48 89 85 18 f7 ff ff 	mov    %rax,-0x8e8(%rbp)
   110dc:	48 c7 85 20 f7 ff ff 	movq   $0x0,-0x8e0(%rbp)
   110e3:	00 00 00 00 
   110e7:	48 8d 05 da 52 01 00 	lea    0x152da(%rip),%rax        # 263c8 <g_1124>
   110ee:	48 89 85 28 f7 ff ff 	mov    %rax,-0x8d8(%rbp)
   110f5:	48 8d 05 fc 78 01 00 	lea    0x178fc(%rip),%rax        # 289f8 <g_1367>
   110fc:	48 89 85 30 f7 ff ff 	mov    %rax,-0x8d0(%rbp)
   11103:	c7 85 4c f6 ff ff ff 	movl   $0xffffffff,-0x9b4(%rbp)
   1110a:	ff ff ff 
   1110d:	66 c7 85 0a f8 ff ff 	movw   $0x3926,-0x7f6(%rbp)
   11114:	26 39 
   11116:	66 c7 85 0c f8 ff ff 	movw   $0x3926,-0x7f4(%rbp)
   1111d:	26 39 
   1111f:	66 c7 85 0e f8 ff ff 	movw   $0x3926,-0x7f2(%rbp)
   11126:	26 39 
   11128:	66 c7 85 10 f8 ff ff 	movw   $0x3926,-0x7f0(%rbp)
   1112f:	26 39 
   11131:	66 c7 85 12 f8 ff ff 	movw   $0x3926,-0x7ee(%rbp)
   11138:	26 39 
   1113a:	c7 85 70 f6 ff ff 01 	movl   $0x1,-0x990(%rbp)
   11141:	00 00 00 
   11144:	c7 85 74 f6 ff ff 12 	movl   $0x9f45a912,-0x98c(%rbp)
   1114b:	a9 45 9f 
   1114e:	c7 85 50 f6 ff ff 00 	movl   $0x0,-0x9b0(%rbp)
   11155:	00 00 00 
   11158:	eb 1b                	jmp    11175 <func_28+0x355>
   1115a:	8b 85 50 f6 ff ff    	mov    -0x9b0(%rbp),%eax
   11160:	48 98                	cltq   
   11162:	48 c7 84 c5 40 f8 ff 	movq   $0x0,-0x7c0(%rbp,%rax,8)
   11169:	ff 00 00 00 00 
   1116e:	83 85 50 f6 ff ff 01 	addl   $0x1,-0x9b0(%rbp)
   11175:	83 bd 50 f6 ff ff 06 	cmpl   $0x6,-0x9b0(%rbp)
   1117c:	7e dc                	jle    1115a <func_28+0x33a>
   1117e:	48 c7 05 2f 30 01 00 	movq   $0xe,0x1302f(%rip)        # 241b8 <g_300>
   11185:	0e 00 00 00 
   11189:	eb 3a                	jmp    111c5 <func_28+0x3a5>
   1118b:	48 c7 85 f0 f7 ff ff 	movq   $0x0,-0x810(%rbp)
   11192:	00 00 00 00 
   11196:	48 8b 05 8b 52 01 00 	mov    0x1528b(%rip),%rax        # 26428 <g_1885>
   1119d:	48 8b 00             	mov    (%rax),%rax
   111a0:	48 8b 95 f0 f7 ff ff 	mov    -0x810(%rbp),%rdx
   111a7:	48 89 10             	mov    %rdx,(%rax)
   111aa:	48 8b 05 07 30 01 00 	mov    0x13007(%rip),%rax        # 241b8 <g_300>
   111b1:	be 09 00 00 00       	mov    $0x9,%esi
   111b6:	48 89 c7             	mov    %rax,%rdi
   111b9:	e8 70 ae ff ff       	callq  c02e <safe_add_func_uint64_t_u_u>
   111be:	48 89 05 f3 2f 01 00 	mov    %rax,0x12ff3(%rip)        # 241b8 <g_300>
   111c5:	48 8b 05 ec 2f 01 00 	mov    0x12fec(%rip),%rax        # 241b8 <g_300>
   111cc:	48 83 f8 2c          	cmp    $0x2c,%rax
   111d0:	74 b9                	je     1118b <func_28+0x36b>
   111d2:	48 8b 95 c0 f8 ff ff 	mov    -0x740(%rbp),%rdx
   111d9:	48 8b 85 08 f7 ff ff 	mov    -0x8f8(%rbp),%rax
   111e0:	48 89 10             	mov    %rdx,(%rax)
   111e3:	48 8b 85 08 f7 ff ff 	mov    -0x8f8(%rbp),%rax
   111ea:	48 8b 08             	mov    (%rax),%rcx
   111ed:	48 8b 85 10 f7 ff ff 	mov    -0x8f0(%rbp),%rax
   111f4:	48 8d 95 d8 f6 ff ff 	lea    -0x928(%rbp),%rdx
   111fb:	48 89 10             	mov    %rdx,(%rax)
   111fe:	48 8b 85 10 f7 ff ff 	mov    -0x8f0(%rbp),%rax
   11205:	48 8b 00             	mov    (%rax),%rax
   11208:	48 39 c1             	cmp    %rax,%rcx
   1120b:	0f b7 85 28 f6 ff ff 	movzwl -0x9d8(%rbp),%eax
   11212:	0f be d0             	movsbl %al,%edx
   11215:	8b 85 6c f6 ff ff    	mov    -0x994(%rbp),%eax
   1121b:	0f be c0             	movsbl %al,%eax
   1121e:	89 d6                	mov    %edx,%esi
   11220:	89 c7                	mov    %eax,%edi
   11222:	e8 eb 9f ff ff       	callq  b212 <safe_mul_func_int8_t_s_s>
   11227:	0f be c0             	movsbl %al,%eax
   1122a:	be ff ff ff ff       	mov    $0xffffffff,%esi
   1122f:	89 c7                	mov    %eax,%edi
   11231:	e8 dc 9f ff ff       	callq  b212 <safe_mul_func_int8_t_s_s>
   11236:	48 0f be c0          	movsbq %al,%rax
   1123a:	be 03 00 00 00       	mov    $0x3,%esi
   1123f:	48 89 c7             	mov    %rax,%rdi
   11242:	e8 6d a7 ff ff       	callq  b9b4 <safe_mod_func_int64_t_s_s>
   11247:	81 bd 6c f6 ff ff 90 	cmpl   $0x60b8c290,-0x994(%rbp)
   1124e:	c2 b8 60 
   11251:	0f 9e c0             	setle  %al
   11254:	0f b6 c0             	movzbl %al,%eax
   11257:	be d7 07 00 00       	mov    $0x7d7,%esi
   1125c:	89 c7                	mov    %eax,%edi
   1125e:	e8 f9 aa ff ff       	callq  bd5c <safe_mod_func_uint16_t_u_u>
   11263:	0f b6 95 3f f6 ff ff 	movzbl -0x9c1(%rbp),%edx
   1126a:	8b 85 6c f6 ff ff    	mov    -0x994(%rbp),%eax
   11270:	0f b6 c0             	movzbl %al,%eax
   11273:	89 d6                	mov    %edx,%esi
   11275:	89 c7                	mov    %eax,%edi
   11277:	e8 17 a9 ff ff       	callq  bb93 <safe_mul_func_uint8_t_u_u>
   1127c:	0f b6 c0             	movzbl %al,%eax
   1127f:	89 85 b4 f9 ff ff    	mov    %eax,-0x64c(%rbp)
   11285:	8b 85 b4 f9 ff ff    	mov    -0x64c(%rbp),%eax
   1128b:	85 c0                	test   %eax,%eax
   1128d:	0f 94 c0             	sete   %al
   11290:	0f b6 d0             	movzbl %al,%edx
   11293:	48 8b 05 5e 51 01 00 	mov    0x1515e(%rip),%rax        # 263f8 <g_1402>
   1129a:	48 8b 00             	mov    (%rax),%rax
   1129d:	48 8b 00             	mov    (%rax),%rax
   112a0:	0f b7 00             	movzwl (%rax),%eax
   112a3:	0f b7 c0             	movzwl %ax,%eax
   112a6:	39 c2                	cmp    %eax,%edx
   112a8:	0f 9d c0             	setge  %al
   112ab:	0f b6 d0             	movzbl %al,%edx
   112ae:	0f b6 85 3f f6 ff ff 	movzbl -0x9c1(%rbp),%eax
   112b5:	39 c2                	cmp    %eax,%edx
   112b7:	0f 8c 2b 10 00 00    	jl     122e8 <func_28+0x14c8>
   112bd:	48 8d 05 d8 2d 01 00 	lea    0x12dd8(%rip),%rax        # 2409c <g_113>
   112c4:	48 89 85 48 f7 ff ff 	mov    %rax,-0x8b8(%rbp)
   112cb:	48 8d 05 6e 2f 01 00 	lea    0x12f6e(%rip),%rax        # 24240 <g_2240>
   112d2:	48 89 85 f0 f6 ff ff 	mov    %rax,-0x910(%rbp)
   112d9:	c7 85 48 f6 ff ff cf 	movl   $0xbebb7dcf,-0x9b8(%rbp)
   112e0:	7d bb be 
   112e3:	48 c7 85 50 f7 ff ff 	movq   $0x0,-0x8b0(%rbp)
   112ea:	00 00 00 00 
   112ee:	48 8d 05 bf 2e 01 00 	lea    0x12ebf(%rip),%rax        # 241b4 <g_248>
   112f5:	48 89 85 58 f7 ff ff 	mov    %rax,-0x8a8(%rbp)
   112fc:	48 8d 85 f0 f6 ff ff 	lea    -0x910(%rbp),%rax
   11303:	48 89 85 f8 f6 ff ff 	mov    %rax,-0x908(%rbp)
   1130a:	48 8d 85 f8 f6 ff ff 	lea    -0x908(%rbp),%rax
   11311:	48 89 85 60 f7 ff ff 	mov    %rax,-0x8a0(%rbp)
   11318:	48 c7 85 d0 f8 ff ff 	movq   $0x0,-0x730(%rbp)
   1131f:	00 00 00 00 
   11323:	48 8d 05 9e 76 01 00 	lea    0x1769e(%rip),%rax        # 289c8 <g_399+0x28>
   1132a:	48 89 85 d8 f8 ff ff 	mov    %rax,-0x728(%rbp)
   11331:	48 8d 05 60 76 01 00 	lea    0x17660(%rip),%rax        # 28998 <g_375>
   11338:	48 89 85 e0 f8 ff ff 	mov    %rax,-0x720(%rbp)
   1133f:	48 c7 85 e8 f8 ff ff 	movq   $0x0,-0x718(%rbp)
   11346:	00 00 00 00 
   1134a:	48 8d 05 47 76 01 00 	lea    0x17647(%rip),%rax        # 28998 <g_375>
   11351:	48 89 85 f0 f8 ff ff 	mov    %rax,-0x710(%rbp)
   11358:	48 8d 05 69 76 01 00 	lea    0x17669(%rip),%rax        # 289c8 <g_399+0x28>
   1135f:	48 89 85 f8 f8 ff ff 	mov    %rax,-0x708(%rbp)
   11366:	48 c7 85 00 f9 ff ff 	movq   $0x0,-0x700(%rbp)
   1136d:	00 00 00 00 
   11371:	48 8d 05 30 76 01 00 	lea    0x17630(%rip),%rax        # 289a8 <g_399+0x8>
   11378:	48 89 85 08 f9 ff ff 	mov    %rax,-0x6f8(%rbp)
   1137f:	48 8d 05 22 76 01 00 	lea    0x17622(%rip),%rax        # 289a8 <g_399+0x8>
   11386:	48 89 85 10 f9 ff ff 	mov    %rax,-0x6f0(%rbp)
   1138d:	48 c7 85 18 f9 ff ff 	movq   $0x0,-0x6e8(%rbp)
   11394:	00 00 00 00 
   11398:	48 8d 05 29 76 01 00 	lea    0x17629(%rip),%rax        # 289c8 <g_399+0x28>
   1139f:	48 89 85 20 f9 ff ff 	mov    %rax,-0x6e0(%rbp)
   113a6:	48 8d 05 eb 75 01 00 	lea    0x175eb(%rip),%rax        # 28998 <g_375>
   113ad:	48 89 85 28 f9 ff ff 	mov    %rax,-0x6d8(%rbp)
   113b4:	48 c7 85 30 f9 ff ff 	movq   $0x0,-0x6d0(%rbp)
   113bb:	00 00 00 00 
   113bf:	48 8d 05 d2 75 01 00 	lea    0x175d2(%rip),%rax        # 28998 <g_375>
   113c6:	48 89 85 38 f9 ff ff 	mov    %rax,-0x6c8(%rbp)
   113cd:	48 8d 05 f4 75 01 00 	lea    0x175f4(%rip),%rax        # 289c8 <g_399+0x28>
   113d4:	48 89 85 40 f9 ff ff 	mov    %rax,-0x6c0(%rbp)
   113db:	48 c7 85 48 f9 ff ff 	movq   $0x0,-0x6b8(%rbp)
   113e2:	00 00 00 00 
   113e6:	48 8d 05 bb 75 01 00 	lea    0x175bb(%rip),%rax        # 289a8 <g_399+0x8>
   113ed:	48 89 85 50 f9 ff ff 	mov    %rax,-0x6b0(%rbp)
   113f4:	48 8d 05 ad 75 01 00 	lea    0x175ad(%rip),%rax        # 289a8 <g_399+0x8>
   113fb:	48 89 85 58 f9 ff ff 	mov    %rax,-0x6a8(%rbp)
   11402:	48 8d 05 37 76 01 00 	lea    0x17637(%rip),%rax        # 28a40 <g_2009>
   11409:	48 89 85 68 f7 ff ff 	mov    %rax,-0x898(%rbp)
   11410:	48 8d 85 c0 fa ff ff 	lea    -0x540(%rbp),%rax
   11417:	48 8d 15 02 e2 00 00 	lea    0xe202(%rip),%rdx        # 1f620 <g_2990+0x5a8>
   1141e:	b9 5a 00 00 00       	mov    $0x5a,%ecx
   11423:	48 89 c7             	mov    %rax,%rdi
   11426:	48 89 d6             	mov    %rdx,%rsi
   11429:	f3 48 a5             	rep movsq %ds:(%rsi),%es:(%rdi)
   1142c:	48 b8 77 94 b6 fe c3 	movabs $0x49aec3c3feb69477,%rax
   11433:	c3 ae 49 
   11436:	48 89 85 70 f7 ff ff 	mov    %rax,-0x890(%rbp)
   1143d:	48 8d 05 cc 51 01 00 	lea    0x151cc(%rip),%rax        # 26610 <g_2476+0x30>
   11444:	48 89 85 78 f7 ff ff 	mov    %rax,-0x888(%rbp)
   1144b:	48 8d 05 0e 50 01 00 	lea    0x1500e(%rip),%rax        # 26460 <g_2151>
   11452:	48 89 85 80 f7 ff ff 	mov    %rax,-0x880(%rbp)
   11459:	0f b7 95 28 f6 ff ff 	movzwl -0x9d8(%rbp),%edx
   11460:	80 bd 3f f6 ff ff 00 	cmpb   $0x0,-0x9c1(%rbp)
   11467:	75 65                	jne    114ce <func_28+0x6ae>
   11469:	48 8b 85 48 f7 ff ff 	mov    -0x8b8(%rbp),%rax
   11470:	48 3b 85 20 f6 ff ff 	cmp    -0x9e0(%rbp),%rax
   11477:	0f 94 c0             	sete   %al
   1147a:	0f b6 f0             	movzbl %al,%esi
   1147d:	48 8b 05 dc 4f 01 00 	mov    0x14fdc(%rip),%rax        # 26460 <g_2151>
   11484:	48 8b 00             	mov    (%rax),%rax
   11487:	8b 08                	mov    (%rax),%ecx
   11489:	83 e9 01             	sub    $0x1,%ecx
   1148c:	89 08                	mov    %ecx,(%rax)
   1148e:	48 8d 05 a3 4f 01 00 	lea    0x14fa3(%rip),%rax        # 26438 <g_2008>
   11495:	48 39 85 18 f7 ff ff 	cmp    %rax,-0x8e8(%rbp)
   1149c:	0f 94 c1             	sete   %cl
   1149f:	48 8b 85 f0 f6 ff ff 	mov    -0x910(%rbp),%rax
   114a6:	0f b6 c9             	movzbl %cl,%ecx
   114a9:	66 89 08             	mov    %cx,(%rax)
   114ac:	0f b7 00             	movzwl (%rax),%eax
   114af:	66 85 c0             	test   %ax,%ax
   114b2:	75 0a                	jne    114be <func_28+0x69e>
   114b4:	8b 85 48 f6 ff ff    	mov    -0x9b8(%rbp),%eax
   114ba:	85 c0                	test   %eax,%eax
   114bc:	74 07                	je     114c5 <func_28+0x6a5>
   114be:	b8 01 00 00 00       	mov    $0x1,%eax
   114c3:	eb 05                	jmp    114ca <func_28+0x6aa>
   114c5:	b8 00 00 00 00       	mov    $0x0,%eax
   114ca:	39 f0                	cmp    %esi,%eax
   114cc:	7e 07                	jle    114d5 <func_28+0x6b5>
   114ce:	bf 01 00 00 00       	mov    $0x1,%edi
   114d3:	eb 05                	jmp    114da <func_28+0x6ba>
   114d5:	bf 00 00 00 00       	mov    $0x0,%edi
   114da:	48 8b 85 58 f7 ff ff 	mov    -0x8a8(%rbp),%rax
   114e1:	c7 00 00 00 00 00    	movl   $0x0,(%rax)
   114e7:	48 8b 85 58 f7 ff ff 	mov    -0x8a8(%rbp),%rax
   114ee:	8b 08                	mov    (%rax),%ecx
   114f0:	0f b7 b5 28 f6 ff ff 	movzwl -0x9d8(%rbp),%esi
   114f7:	48 83 bd 58 f7 ff ff 	cmpq   $0x0,-0x8a8(%rbp)
   114fe:	00 
   114ff:	0f 94 c0             	sete   %al
   11502:	0f b6 c0             	movzbl %al,%eax
   11505:	39 c6                	cmp    %eax,%esi
   11507:	0f 9d c0             	setge  %al
   1150a:	0f b6 c0             	movzbl %al,%eax
   1150d:	39 c1                	cmp    %eax,%ecx
   1150f:	0f 97 c0             	seta   %al
   11512:	0f b6 c0             	movzbl %al,%eax
   11515:	31 f8                	xor    %edi,%eax
   11517:	89 d6                	mov    %edx,%esi
   11519:	89 c7                	mov    %eax,%edi
   1151b:	e8 05 aa ff ff       	callq  bf25 <safe_div_func_uint32_t_u_u>
   11520:	48 8b 15 01 50 01 00 	mov    0x15001(%rip),%rdx        # 26528 <g_2231>
   11527:	48 8b 12             	mov    (%rdx),%rdx
   1152a:	48 8b 12             	mov    (%rdx),%rdx
   1152d:	48 8b 12             	mov    (%rdx),%rdx
   11530:	48 8b 12             	mov    (%rdx),%rdx
   11533:	0f b7 12             	movzwl (%rdx),%edx
   11536:	0f b7 d2             	movzwl %dx,%edx
   11539:	39 d0                	cmp    %edx,%eax
   1153b:	0f 95 c0             	setne  %al
   1153e:	0f b6 c0             	movzbl %al,%eax
   11541:	89 85 48 f6 ff ff    	mov    %eax,-0x9b8(%rbp)
   11547:	48 8b 85 60 f7 ff ff 	mov    -0x8a0(%rbp),%rax
   1154e:	48 8b 95 28 f7 ff ff 	mov    -0x8d8(%rbp),%rdx
   11555:	48 89 10             	mov    %rdx,(%rax)
   11558:	48 8d 05 89 74 01 00 	lea    0x17489(%rip),%rax        # 289e8 <g_1101>
   1155f:	48 39 85 30 f7 ff ff 	cmp    %rax,-0x8d0(%rbp)
   11566:	0f 84 fb 04 00 00    	je     11a67 <func_28+0xc47>
   1156c:	48 c7 85 c0 f7 ff ff 	movq   $0x0,-0x840(%rbp)
   11573:	00 00 00 00 
   11577:	c7 85 00 fa ff ff 1a 	movl   $0x44410a1a,-0x600(%rbp)
   1157e:	0a 41 44 
   11581:	c7 85 04 fa ff ff 1a 	movl   $0x44410a1a,-0x5fc(%rbp)
   11588:	0a 41 44 
   1158b:	c7 85 08 fa ff ff 1a 	movl   $0x44410a1a,-0x5f8(%rbp)
   11592:	0a 41 44 
   11595:	c7 85 0c fa ff ff 1a 	movl   $0x44410a1a,-0x5f4(%rbp)
   1159c:	0a 41 44 
   1159f:	c7 85 10 fa ff ff 1a 	movl   $0x44410a1a,-0x5f0(%rbp)
   115a6:	0a 41 44 
   115a9:	c7 85 14 fa ff ff 1a 	movl   $0x44410a1a,-0x5ec(%rbp)
   115b0:	0a 41 44 
   115b3:	c7 85 18 fa ff ff 1a 	movl   $0x44410a1a,-0x5e8(%rbp)
   115ba:	0a 41 44 
   115bd:	c7 85 54 f6 ff ff ad 	movl   $0xdda089ad,-0x9ac(%rbp)
   115c4:	89 a0 dd 
   115c7:	c6 05 1e 2c 01 00 01 	movb   $0x1,0x12c1e(%rip)        # 241ec <g_539>
   115ce:	e9 4d 04 00 00       	jmpq   11a20 <func_28+0xc00>
   115d3:	48 c7 85 c8 f7 ff ff 	movq   $0x0,-0x838(%rbp)
   115da:	00 00 00 00 
   115de:	48 8b 05 db 4d 01 00 	mov    0x14ddb(%rip),%rax        # 263c0 <g_1058>
   115e5:	8b 00                	mov    (%rax),%eax
   115e7:	85 c0                	test   %eax,%eax
   115e9:	0f 84 4d 01 00 00    	je     1173c <func_28+0x91c>
   115ef:	48 8d 05 0a 4e 01 00 	lea    0x14e0a(%rip),%rax        # 26400 <g_1843>
   115f6:	48 89 85 d0 f7 ff ff 	mov    %rax,-0x830(%rbp)
   115fd:	c7 85 bc f6 ff ff 23 	movl   $0x33464f23,-0x944(%rbp)
   11604:	4f 46 33 
   11607:	c7 85 c0 f6 ff ff 00 	movl   $0x0,-0x940(%rbp)
   1160e:	00 00 00 
   11611:	48 8b 05 10 4e 01 00 	mov    0x14e10(%rip),%rax        # 26428 <g_1885>
   11618:	48 8b 00             	mov    (%rax),%rax
   1161b:	48 8b 95 c8 f7 ff ff 	mov    -0x838(%rbp),%rdx
   11622:	48 89 10             	mov    %rdx,(%rax)
   11625:	48 8b 85 c0 f7 ff ff 	mov    -0x840(%rbp),%rax
   1162c:	41 89 c4             	mov    %eax,%r12d
   1162f:	48 8b 85 00 f9 ff ff 	mov    -0x700(%rbp),%rax
   11636:	48 85 c0             	test   %rax,%rax
   11639:	0f 94 c0             	sete   %al
   1163c:	0f b6 d0             	movzbl %al,%edx
   1163f:	8b 85 2c f6 ff ff    	mov    -0x9d4(%rbp),%eax
   11645:	39 c2                	cmp    %eax,%edx
   11647:	0f 94 c0             	sete   %al
   1164a:	0f b6 d0             	movzbl %al,%edx
   1164d:	0f b7 85 28 f6 ff ff 	movzwl -0x9d8(%rbp),%eax
   11654:	39 c2                	cmp    %eax,%edx
   11656:	0f 9c c0             	setl   %al
   11659:	0f b6 c8             	movzbl %al,%ecx
   1165c:	0f b6 95 3f f6 ff ff 	movzbl -0x9c1(%rbp),%edx
   11663:	48 8b 85 f0 f6 ff ff 	mov    -0x910(%rbp),%rax
   1166a:	21 ca                	and    %ecx,%edx
   1166c:	66 89 10             	mov    %dx,(%rax)
   1166f:	0f b7 00             	movzwl (%rax),%eax
   11672:	98                   	cwtl   
   11673:	89 85 bc f6 ff ff    	mov    %eax,-0x944(%rbp)
   11679:	8b 85 bc f6 ff ff    	mov    -0x944(%rbp),%eax
   1167f:	0f bf d8             	movswl %ax,%ebx
   11682:	8b 85 2c f6 ff ff    	mov    -0x9d4(%rbp),%eax
   11688:	48 63 d0             	movslq %eax,%rdx
   1168b:	8b 85 2c f6 ff ff    	mov    -0x9d4(%rbp),%eax
   11691:	48 98                	cltq   
   11693:	48 89 d6             	mov    %rdx,%rsi
   11696:	48 89 c7             	mov    %rax,%rdi
   11699:	e8 e2 a9 ff ff       	callq  c080 <safe_mod_func_uint64_t_u_u>
   1169e:	66 83 bd 28 f6 ff ff 	cmpw   $0x0,-0x9d8(%rbp)
   116a5:	00 
   116a6:	0f 94 c0             	sete   %al
   116a9:	0f b6 c0             	movzbl %al,%eax
   116ac:	89 de                	mov    %ebx,%esi
   116ae:	89 c7                	mov    %eax,%edi
   116b0:	e8 a0 9d ff ff       	callq  b455 <safe_div_func_int16_t_s_s>
   116b5:	98                   	cwtl   
   116b6:	44 89 e6             	mov    %r12d,%esi
   116b9:	89 c7                	mov    %eax,%edi
   116bb:	e8 45 9f ff ff       	callq  b605 <safe_sub_func_int32_t_s_s>
   116c0:	0f b7 c0             	movzwl %ax,%eax
   116c3:	be 07 00 00 00       	mov    $0x7,%esi
   116c8:	89 c7                	mov    %eax,%edi
   116ca:	e8 ab a7 ff ff       	callq  be7a <safe_rshift_func_uint16_t_u_u>
   116cf:	0f b6 d0             	movzbl %al,%edx
   116d2:	48 8b 85 c0 f7 ff ff 	mov    -0x840(%rbp),%rax
   116d9:	0f b6 c0             	movzbl %al,%eax
   116dc:	89 d6                	mov    %edx,%esi
   116de:	89 c7                	mov    %eax,%edi
   116e0:	e8 ae a4 ff ff       	callq  bb93 <safe_mul_func_uint8_t_u_u>
   116e5:	0f b6 c0             	movzbl %al,%eax
   116e8:	89 85 80 f9 ff ff    	mov    %eax,-0x680(%rbp)
   116ee:	8b 85 2c f6 ff ff    	mov    -0x9d4(%rbp),%eax
   116f4:	89 c2                	mov    %eax,%edx
   116f6:	48 8b 85 48 f7 ff ff 	mov    -0x8b8(%rbp),%rax
   116fd:	88 10                	mov    %dl,(%rax)
   116ff:	b9 27 57 dd f3       	mov    $0xf3dd5727,%ecx
   11704:	48 8b 05 b5 4c 01 00 	mov    0x14cb5(%rip),%rax        # 263c0 <g_1058>
   1170b:	8b 10                	mov    (%rax),%edx
   1170d:	48 8b 05 ac 4c 01 00 	mov    0x14cac(%rip),%rax        # 263c0 <g_1058>
   11714:	21 ca                	and    %ecx,%edx
   11716:	89 10                	mov    %edx,(%rax)
   11718:	48 8b 05 a1 4c 01 00 	mov    0x14ca1(%rip),%rax        # 263c0 <g_1058>
   1171f:	8b 10                	mov    (%rax),%edx
   11721:	48 8b 05 98 4c 01 00 	mov    0x14c98(%rip),%rax        # 263c0 <g_1058>
   11728:	0b 95 bc f6 ff ff    	or     -0x944(%rbp),%edx
   1172e:	89 10                	mov    %edx,(%rax)
   11730:	c6 05 99 2a 01 00 05 	movb   $0x5,0x12a99(%rip)        # 241d0 <g_377>
   11737:	e9 c5 02 00 00       	jmpq   11a01 <func_28+0xbe1>
   1173c:	0f b7 85 28 f6 ff ff 	movzwl -0x9d8(%rbp),%eax
   11743:	e9 96 0f 00 00       	jmpq   126de <func_28+0x18be>
   11748:	c7 85 c4 f6 ff ff 71 	movl   $0x8bf0a571,-0x93c(%rbp)
   1174f:	a5 f0 8b 
   11752:	66 c7 05 43 29 01 00 	movw   $0x0,0x12943(%rip)        # 2409e <g_116>
   11759:	00 00 
   1175b:	e9 80 02 00 00       	jmpq   119e0 <func_28+0xbc0>
   11760:	c7 85 c8 f6 ff ff 00 	movl   $0x0,-0x938(%rbp)
   11767:	00 00 00 
   1176a:	48 8d 05 e7 d8 00 00 	lea    0xd8e7(%rip),%rax        # 1f058 <g_2026>
   11771:	48 89 85 00 f7 ff ff 	mov    %rax,-0x900(%rbp)
   11778:	48 8d 85 00 f7 ff ff 	lea    -0x900(%rbp),%rax
   1177f:	48 89 85 d8 f7 ff ff 	mov    %rax,-0x828(%rbp)
   11786:	48 8d 05 ab 2a 01 00 	lea    0x12aab(%rip),%rax        # 24238 <g_2004>
   1178d:	48 89 85 e0 f7 ff ff 	mov    %rax,-0x820(%rbp)
   11794:	0f b7 9d 28 f6 ff ff 	movzwl -0x9d8(%rbp),%ebx
   1179b:	48 8b 85 c0 fc ff ff 	mov    -0x340(%rbp),%rax
   117a2:	48 89 c1             	mov    %rax,%rcx
   117a5:	8b 85 6c f6 ff ff    	mov    -0x994(%rbp),%eax
   117ab:	48 98                	cltq   
   117ad:	48 23 85 c0 f7 ff ff 	and    -0x840(%rbp),%rax
   117b4:	48 83 f8 01          	cmp    $0x1,%rax
   117b8:	0f 94 c0             	sete   %al
   117bb:	0f b6 d0             	movzbl %al,%edx
   117be:	48 8d 85 00 f7 ff ff 	lea    -0x900(%rbp),%rax
   117c5:	48 39 85 d8 f7 ff ff 	cmp    %rax,-0x828(%rbp)
   117cc:	0f 95 c0             	setne  %al
   117cf:	0f b6 c0             	movzbl %al,%eax
   117d2:	39 c2                	cmp    %eax,%edx
   117d4:	0f 9c c0             	setl   %al
   117d7:	0f b6 d0             	movzbl %al,%edx
   117da:	48 8b 85 e0 f7 ff ff 	mov    -0x820(%rbp),%rax
   117e1:	48 89 10             	mov    %rdx,(%rax)
   117e4:	48 8b 85 e0 f7 ff ff 	mov    -0x820(%rbp),%rax
   117eb:	48 8b 00             	mov    (%rax),%rax
   117ee:	48 89 ce             	mov    %rcx,%rsi
   117f1:	48 89 c7             	mov    %rax,%rdi
   117f4:	e8 35 a8 ff ff       	callq  c02e <safe_add_func_uint64_t_u_u>
   117f9:	66 83 bd 28 f6 ff ff 	cmpw   $0x0,-0x9d8(%rbp)
   11800:	00 
   11801:	0f 95 c0             	setne  %al
   11804:	0f b6 d0             	movzbl %al,%edx
   11807:	0f b7 85 28 f6 ff ff 	movzwl -0x9d8(%rbp),%eax
   1180e:	39 c2                	cmp    %eax,%edx
   11810:	0f 95 c0             	setne  %al
   11813:	0f b6 c0             	movzbl %al,%eax
   11816:	89 de                	mov    %ebx,%esi
   11818:	89 c7                	mov    %eax,%edi
   1181a:	e8 3d a5 ff ff       	callq  bd5c <safe_mod_func_uint16_t_u_u>
   1181f:	66 33 85 28 f6 ff ff 	xor    -0x9d8(%rbp),%ax
   11826:	0f b7 d0             	movzwl %ax,%edx
   11829:	8b 85 cc f9 ff ff    	mov    -0x634(%rbp),%eax
   1182f:	39 c2                	cmp    %eax,%edx
   11831:	0f 95 c0             	setne  %al
   11834:	0f b6 d0             	movzbl %al,%edx
   11837:	8b 85 b4 f9 ff ff    	mov    -0x64c(%rbp),%eax
   1183d:	39 c2                	cmp    %eax,%edx
   1183f:	0f 95 c0             	setne  %al
   11842:	0f b6 c0             	movzbl %al,%eax
   11845:	89 85 00 fa ff ff    	mov    %eax,-0x600(%rbp)
   1184b:	8b 85 2c f6 ff ff    	mov    -0x9d4(%rbp),%eax
   11851:	0f b6 d8             	movzbl %al,%ebx
   11854:	8b 05 9a 29 01 00    	mov    0x1299a(%rip),%eax        # 241f4 <g_892>
   1185a:	4c 63 e0             	movslq %eax,%r12
   1185d:	8b 85 2c f6 ff ff    	mov    -0x9d4(%rbp),%eax
   11863:	41 89 c7             	mov    %eax,%r15d
   11866:	8b 85 6c f6 ff ff    	mov    -0x994(%rbp),%eax
   1186c:	3b 85 c4 f6 ff ff    	cmp    -0x93c(%rbp),%eax
   11872:	0f 9c 85 1c f6 ff ff 	setl   -0x9e4(%rbp)
   11879:	48 8b 85 c0 f7 ff ff 	mov    -0x840(%rbp),%rax
   11880:	44 0f b6 e8          	movzbl %al,%r13d
   11884:	8b 85 c4 f6 ff ff    	mov    -0x93c(%rbp),%eax
   1188a:	44 0f b6 f0          	movzbl %al,%r14d
   1188e:	48 8b 05 23 4b 01 00 	mov    0x14b23(%rip),%rax        # 263b8 <g_965>
   11895:	48 8b 00             	mov    (%rax),%rax
   11898:	48 89 85 10 f6 ff ff 	mov    %rax,-0x9f0(%rbp)
   1189f:	8b 85 08 fa ff ff    	mov    -0x5f8(%rbp),%eax
   118a5:	0f b6 d0             	movzbl %al,%edx
   118a8:	8b 85 2c f6 ff ff    	mov    -0x9d4(%rbp),%eax
   118ae:	89 c6                	mov    %eax,%esi
   118b0:	48 8b 85 48 f7 ff ff 	mov    -0x8b8(%rbp),%rax
   118b7:	0f b6 00             	movzbl (%rax),%eax
   118ba:	83 f0 01             	xor    $0x1,%eax
   118bd:	89 c1                	mov    %eax,%ecx
   118bf:	48 8b 85 48 f7 ff ff 	mov    -0x8b8(%rbp),%rax
   118c6:	88 08                	mov    %cl,(%rax)
   118c8:	48 8b 85 48 f7 ff ff 	mov    -0x8b8(%rbp),%rax
   118cf:	0f b6 00             	movzbl (%rax),%eax
   118d2:	3c 68                	cmp    $0x68,%al
   118d4:	0f 95 c0             	setne  %al
   118d7:	0f b6 c8             	movzbl %al,%ecx
   118da:	8b 05 d4 28 01 00    	mov    0x128d4(%rip),%eax        # 241b4 <g_248>
   118e0:	39 c1                	cmp    %eax,%ecx
   118e2:	72 07                	jb     118eb <func_28+0xacb>
   118e4:	b8 05 00 00 00       	mov    $0x5,%eax
   118e9:	eb 05                	jmp    118f0 <func_28+0xad0>
   118eb:	b8 04 00 00 00       	mov    $0x4,%eax
   118f0:	09 f0                	or     %esi,%eax
   118f2:	0f b6 c0             	movzbl %al,%eax
   118f5:	89 d6                	mov    %edx,%esi
   118f7:	89 c7                	mov    %eax,%edi
   118f9:	e8 95 a2 ff ff       	callq  bb93 <safe_mul_func_uint8_t_u_u>
   118fe:	3c 06                	cmp    $0x6,%al
   11900:	0f 95 c0             	setne  %al
   11903:	0f b6 d0             	movzbl %al,%edx
   11906:	0f b7 85 28 f6 ff ff 	movzwl -0x9d8(%rbp),%eax
   1190d:	39 c2                	cmp    %eax,%edx
   1190f:	0f 9c c0             	setl   %al
   11912:	0f b6 c0             	movzbl %al,%eax
   11915:	48 8b b5 10 f6 ff ff 	mov    -0x9f0(%rbp),%rsi
   1191c:	48 89 c7             	mov    %rax,%rdi
   1191f:	e8 5c a7 ff ff       	callq  c080 <safe_mod_func_uint64_t_u_u>
   11924:	be 01 00 00 00       	mov    $0x1,%esi
   11929:	89 c7                	mov    %eax,%edi
   1192b:	e8 a0 a5 ff ff       	callq  bed0 <safe_sub_func_uint32_t_u_u>
   11930:	3d c1 7e 05 62       	cmp    $0x62057ec1,%eax
   11935:	0f 96 c0             	setbe  %al
   11938:	0f b6 c0             	movzbl %al,%eax
   1193b:	44 89 f6             	mov    %r14d,%esi
   1193e:	89 c7                	mov    %eax,%edi
   11940:	e8 33 a2 ff ff       	callq  bb78 <safe_sub_func_uint8_t_u_u>
   11945:	0f b6 c0             	movzbl %al,%eax
   11948:	44 89 ee             	mov    %r13d,%esi
   1194b:	89 c7                	mov    %eax,%edi
   1194d:	e8 41 a2 ff ff       	callq  bb93 <safe_mul_func_uint8_t_u_u>
   11952:	89 c2                	mov    %eax,%edx
   11954:	48 8b 05 5d 4a 01 00 	mov    0x14a5d(%rip),%rax        # 263b8 <g_965>
   1195b:	0f b6 d2             	movzbl %dl,%edx
   1195e:	48 89 10             	mov    %rdx,(%rax)
   11961:	48 8b 00             	mov    (%rax),%rax
   11964:	48 83 f8 fe          	cmp    $0xfffffffffffffffe,%rax
   11968:	0f 94 c0             	sete   %al
   1196b:	0f b6 c0             	movzbl %al,%eax
   1196e:	39 85 c8 f6 ff ff    	cmp    %eax,-0x938(%rbp)
   11974:	0f 93 c0             	setae  %al
   11977:	0a 85 1c f6 ff ff    	or     -0x9e4(%rbp),%al
   1197d:	0f b6 c0             	movzbl %al,%eax
   11980:	44 89 fe             	mov    %r15d,%esi
   11983:	89 c7                	mov    %eax,%edi
   11985:	e8 9b a5 ff ff       	callq  bf25 <safe_div_func_uint32_t_u_u>
   1198a:	8b 95 c4 f6 ff ff    	mov    -0x93c(%rbp),%edx
   11990:	39 d0                	cmp    %edx,%eax
   11992:	77 07                	ja     1199b <func_28+0xb7b>
   11994:	b8 fe 00 00 00       	mov    $0xfe,%eax
   11999:	eb 05                	jmp    119a0 <func_28+0xb80>
   1199b:	b8 ff 00 00 00       	mov    $0xff,%eax
   119a0:	be 01 00 00 00       	mov    $0x1,%esi
   119a5:	89 c7                	mov    %eax,%edi
   119a7:	e8 cc a1 ff ff       	callq  bb78 <safe_sub_func_uint8_t_u_u>
   119ac:	0f b6 c0             	movzbl %al,%eax
   119af:	4c 89 e6             	mov    %r12,%rsi
   119b2:	48 89 c7             	mov    %rax,%rdi
   119b5:	e8 74 a6 ff ff       	callq  c02e <safe_add_func_uint64_t_u_u>
   119ba:	0f b6 c0             	movzbl %al,%eax
   119bd:	89 de                	mov    %ebx,%esi
   119bf:	89 c7                	mov    %eax,%edi
   119c1:	e8 94 a1 ff ff       	callq  bb5a <safe_add_func_uint8_t_u_u>
   119c6:	0f b6 c0             	movzbl %al,%eax
   119c9:	21 85 54 f6 ff ff    	and    %eax,-0x9ac(%rbp)
   119cf:	0f b7 05 c8 26 01 00 	movzwl 0x126c8(%rip),%eax        # 2409e <g_116>
   119d6:	83 c0 01             	add    $0x1,%eax
   119d9:	66 89 05 be 26 01 00 	mov    %ax,0x126be(%rip)        # 2409e <g_116>
   119e0:	0f b7 05 b7 26 01 00 	movzwl 0x126b7(%rip),%eax        # 2409e <g_116>
   119e7:	66 83 f8 08          	cmp    $0x8,%ax
   119eb:	0f 86 6f fd ff ff    	jbe    11760 <func_28+0x940>
   119f1:	0f b6 05 d8 27 01 00 	movzbl 0x127d8(%rip),%eax        # 241d0 <g_377>
   119f8:	83 e8 01             	sub    $0x1,%eax
   119fb:	88 05 cf 27 01 00    	mov    %al,0x127cf(%rip)        # 241d0 <g_377>
   11a01:	0f b6 05 c8 27 01 00 	movzbl 0x127c8(%rip),%eax        # 241d0 <g_377>
   11a08:	84 c0                	test   %al,%al
   11a0a:	0f 89 38 fd ff ff    	jns    11748 <func_28+0x928>
   11a10:	0f b6 05 d5 27 01 00 	movzbl 0x127d5(%rip),%eax        # 241ec <g_539>
   11a17:	83 e8 01             	sub    $0x1,%eax
   11a1a:	88 05 cc 27 01 00    	mov    %al,0x127cc(%rip)        # 241ec <g_539>
   11a20:	0f b6 05 c5 27 01 00 	movzbl 0x127c5(%rip),%eax        # 241ec <g_539>
   11a27:	3c f7                	cmp    $0xf7,%al
   11a29:	0f 8c a4 fb ff ff    	jl     115d3 <func_28+0x7b3>
   11a2f:	48 c7 85 70 f7 ff ff 	movq   $0x0,-0x890(%rbp)
   11a36:	00 00 00 00 
   11a3a:	48 83 bd 70 f7 ff ff 	cmpq   $0x1,-0x890(%rbp)
   11a41:	01 
   11a42:	0f 87 6e 0a 00 00    	ja     124b6 <func_28+0x1696>
   11a48:	48 8b 85 70 f7 ff ff 	mov    -0x890(%rbp),%rax
   11a4f:	48 83 c0 03          	add    $0x3,%rax
   11a53:	48 8d 14 00          	lea    (%rax,%rax,1),%rdx
   11a57:	48 8d 05 42 27 01 00 	lea    0x12742(%rip),%rax        # 241a0 <g_241>
   11a5e:	0f b7 04 02          	movzwl (%rdx,%rax,1),%eax
   11a62:	e9 77 0c 00 00       	jmpq   126de <func_28+0x18be>
   11a67:	c6 85 3e f6 ff ff a4 	movb   $0xa4,-0x9c2(%rbp)
   11a6e:	48 8d 05 53 49 01 00 	lea    0x14953(%rip),%rax        # 263c8 <g_1124>
   11a75:	48 89 85 00 fa ff ff 	mov    %rax,-0x600(%rbp)
   11a7c:	48 8d 85 f0 f6 ff ff 	lea    -0x910(%rbp),%rax
   11a83:	48 89 85 08 fa ff ff 	mov    %rax,-0x5f8(%rbp)
   11a8a:	48 8d 85 f0 f6 ff ff 	lea    -0x910(%rbp),%rax
   11a91:	48 89 85 10 fa ff ff 	mov    %rax,-0x5f0(%rbp)
   11a98:	48 8d 05 29 49 01 00 	lea    0x14929(%rip),%rax        # 263c8 <g_1124>
   11a9f:	48 89 85 18 fa ff ff 	mov    %rax,-0x5e8(%rbp)
   11aa6:	48 8d 05 1b 49 01 00 	lea    0x1491b(%rip),%rax        # 263c8 <g_1124>
   11aad:	48 89 85 20 fa ff ff 	mov    %rax,-0x5e0(%rbp)
   11ab4:	48 8d 85 f0 f6 ff ff 	lea    -0x910(%rbp),%rax
   11abb:	48 89 85 28 fa ff ff 	mov    %rax,-0x5d8(%rbp)
   11ac2:	48 c7 85 30 fa ff ff 	movq   $0x0,-0x5d0(%rbp)
   11ac9:	00 00 00 00 
   11acd:	48 8d 85 f0 f6 ff ff 	lea    -0x910(%rbp),%rax
   11ad4:	48 89 85 38 fa ff ff 	mov    %rax,-0x5c8(%rbp)
   11adb:	48 8d 85 f0 f6 ff ff 	lea    -0x910(%rbp),%rax
   11ae2:	48 89 85 40 fa ff ff 	mov    %rax,-0x5c0(%rbp)
   11ae9:	48 8d 85 f0 f6 ff ff 	lea    -0x910(%rbp),%rax
   11af0:	48 89 85 48 fa ff ff 	mov    %rax,-0x5b8(%rbp)
   11af7:	48 8d 05 ca 48 01 00 	lea    0x148ca(%rip),%rax        # 263c8 <g_1124>
   11afe:	48 89 85 50 fa ff ff 	mov    %rax,-0x5b0(%rbp)
   11b05:	48 8d 85 f0 f6 ff ff 	lea    -0x910(%rbp),%rax
   11b0c:	48 89 85 58 fa ff ff 	mov    %rax,-0x5a8(%rbp)
   11b13:	48 c7 85 60 fa ff ff 	movq   $0x0,-0x5a0(%rbp)
   11b1a:	00 00 00 00 
   11b1e:	48 8d 05 a3 48 01 00 	lea    0x148a3(%rip),%rax        # 263c8 <g_1124>
   11b25:	48 89 85 68 fa ff ff 	mov    %rax,-0x598(%rbp)
   11b2c:	48 c7 85 70 fa ff ff 	movq   $0x0,-0x590(%rbp)
   11b33:	00 00 00 00 
   11b37:	48 8d 05 8a 48 01 00 	lea    0x1488a(%rip),%rax        # 263c8 <g_1124>
   11b3e:	48 89 85 78 fa ff ff 	mov    %rax,-0x588(%rbp)
   11b45:	48 8d 85 f0 f6 ff ff 	lea    -0x910(%rbp),%rax
   11b4c:	48 89 85 80 fa ff ff 	mov    %rax,-0x580(%rbp)
   11b53:	48 8d 85 f0 f6 ff ff 	lea    -0x910(%rbp),%rax
   11b5a:	48 89 85 88 fa ff ff 	mov    %rax,-0x578(%rbp)
   11b61:	48 8d 05 60 48 01 00 	lea    0x14860(%rip),%rax        # 263c8 <g_1124>
   11b68:	48 89 85 90 fa ff ff 	mov    %rax,-0x570(%rbp)
   11b6f:	48 8d 05 52 48 01 00 	lea    0x14852(%rip),%rax        # 263c8 <g_1124>
   11b76:	48 89 85 98 fa ff ff 	mov    %rax,-0x568(%rbp)
   11b7d:	48 8d 85 f0 f6 ff ff 	lea    -0x910(%rbp),%rax
   11b84:	48 89 85 a0 fa ff ff 	mov    %rax,-0x560(%rbp)
   11b8b:	48 c7 85 a8 fa ff ff 	movq   $0x0,-0x558(%rbp)
   11b92:	00 00 00 00 
   11b96:	48 8d 85 f0 f6 ff ff 	lea    -0x910(%rbp),%rax
   11b9d:	48 89 85 b0 fa ff ff 	mov    %rax,-0x550(%rbp)
   11ba4:	48 8d 85 f0 f6 ff ff 	lea    -0x910(%rbp),%rax
   11bab:	48 89 85 b8 fa ff ff 	mov    %rax,-0x548(%rbp)
   11bb2:	c7 85 78 f6 ff ff 01 	movl   $0x1,-0x988(%rbp)
   11bb9:	00 00 00 
   11bbc:	c7 85 7c f6 ff ff f8 	movl   $0xfffffff8,-0x984(%rbp)
   11bc3:	ff ff ff 
   11bc6:	c7 85 20 f8 ff ff 01 	movl   $0x1,-0x7e0(%rbp)
   11bcd:	00 00 00 
   11bd0:	c7 85 24 f8 ff ff 01 	movl   $0x1,-0x7dc(%rbp)
   11bd7:	00 00 00 
   11bda:	c7 85 28 f8 ff ff 01 	movl   $0x1,-0x7d8(%rbp)
   11be1:	00 00 00 
   11be4:	c7 85 2c f8 ff ff 01 	movl   $0x1,-0x7d4(%rbp)
   11beb:	00 00 00 
   11bee:	c7 85 30 f8 ff ff 01 	movl   $0x1,-0x7d0(%rbp)
   11bf5:	00 00 00 
   11bf8:	c7 85 34 f8 ff ff 01 	movl   $0x1,-0x7cc(%rbp)
   11bff:	00 00 00 
   11c02:	c7 85 38 f8 ff ff 01 	movl   $0x1,-0x7c8(%rbp)
   11c09:	00 00 00 
   11c0c:	c7 85 3c f8 ff ff 01 	movl   $0x1,-0x7c4(%rbp)
   11c13:	00 00 00 
   11c16:	66 c7 85 42 f6 ff ff 	movw   $0xbe83,-0x9be(%rbp)
   11c1d:	83 be 
   11c1f:	c7 85 4c f6 ff ff 52 	movl   $0x582ee52,-0x9b4(%rbp)
   11c26:	ee 82 05 
   11c29:	48 c7 05 84 25 01 00 	movq   $0xffffffffffffffe5,0x12584(%rip)        # 241b8 <g_300>
   11c30:	e5 ff ff ff 
   11c34:	e9 99 06 00 00       	jmpq   122d2 <func_28+0x14b2>
   11c39:	c7 85 80 f6 ff ff 74 	movl   $0x4b219d74,-0x980(%rbp)
   11c40:	9d 21 4b 
   11c43:	c7 85 58 f6 ff ff 00 	movl   $0x0,-0x9a8(%rbp)
   11c4a:	00 00 00 
   11c4d:	c7 85 84 f6 ff ff 69 	movl   $0x5392d069,-0x97c(%rbp)
   11c54:	d0 92 53 
   11c57:	c7 85 88 f6 ff ff c6 	movl   $0x1930b8c6,-0x978(%rbp)
   11c5e:	b8 30 19 
   11c61:	c7 85 8c f6 ff ff ca 	movl   $0xe6e4edca,-0x974(%rbp)
   11c68:	ed e4 e6 
   11c6b:	c7 85 90 f6 ff ff 97 	movl   $0xf5639c97,-0x970(%rbp)
   11c72:	9c 63 f5 
   11c75:	c7 85 94 f6 ff ff b6 	movl   $0x492b7bb6,-0x96c(%rbp)
   11c7c:	7b 2b 49 
   11c7f:	c7 85 98 f6 ff ff e0 	movl   $0xc03eb1e0,-0x968(%rbp)
   11c86:	b1 3e c0 
   11c89:	c7 85 9c f6 ff ff 8b 	movl   $0x191f6f8b,-0x964(%rbp)
   11c90:	6f 1f 19 
   11c93:	c7 85 a0 f6 ff ff 00 	movl   $0x0,-0x960(%rbp)
   11c9a:	00 00 00 
   11c9d:	c7 85 a4 f6 ff ff 06 	movl   $0x24568b06,-0x95c(%rbp)
   11ca4:	8b 56 24 
   11ca7:	c7 85 a8 f6 ff ff ff 	movl   $0xffffffff,-0x958(%rbp)
   11cae:	ff ff ff 
   11cb1:	66 c7 85 44 f6 ff ff 	movw   $0xb785,-0x9bc(%rbp)
   11cb8:	85 b7 
   11cba:	48 8d 85 d0 f6 ff ff 	lea    -0x930(%rbp),%rax
   11cc1:	48 89 85 88 f7 ff ff 	mov    %rax,-0x878(%rbp)
   11cc8:	c7 85 5c f6 ff ff 00 	movl   $0x0,-0x9a4(%rbp)
   11ccf:	00 00 00 
   11cd2:	eb 1a                	jmp    11cee <func_28+0xece>
   11cd4:	8b 85 5c f6 ff ff    	mov    -0x9a4(%rbp),%eax
   11cda:	48 98                	cltq   
   11cdc:	c7 84 85 14 f8 ff ff 	movl   $0xfffffffb,-0x7ec(%rbp,%rax,4)
   11ce3:	fb ff ff ff 
   11ce7:	83 85 5c f6 ff ff 01 	addl   $0x1,-0x9a4(%rbp)
   11cee:	83 bd 5c f6 ff ff 02 	cmpl   $0x2,-0x9a4(%rbp)
   11cf5:	7e dd                	jle    11cd4 <func_28+0xeb4>
   11cf7:	48 c7 05 de 24 01 00 	movq   $0x0,0x124de(%rip)        # 241e0 <g_432>
   11cfe:	00 00 00 00 
   11d02:	eb 3f                	jmp    11d43 <func_28+0xf23>
   11d04:	48 8d 85 60 f9 ff ff 	lea    -0x6a0(%rbp),%rax
   11d0b:	48 83 c0 20          	add    $0x20,%rax
   11d0f:	48 89 85 b8 f7 ff ff 	mov    %rax,-0x848(%rbp)
   11d16:	48 8b 05 0b 47 01 00 	mov    0x1470b(%rip),%rax        # 26428 <g_1885>
   11d1d:	48 8b 00             	mov    (%rax),%rax
   11d20:	48 8b 95 b8 f7 ff ff 	mov    -0x848(%rbp),%rdx
   11d27:	48 89 10             	mov    %rdx,(%rax)
   11d2a:	83 bd 80 f6 ff ff 00 	cmpl   $0x0,-0x980(%rbp)
   11d31:	48 8b 05 a8 24 01 00 	mov    0x124a8(%rip),%rax        # 241e0 <g_432>
   11d38:	48 83 c0 01          	add    $0x1,%rax
   11d3c:	48 89 05 9d 24 01 00 	mov    %rax,0x1249d(%rip)        # 241e0 <g_432>
   11d43:	48 8b 05 96 24 01 00 	mov    0x12496(%rip),%rax        # 241e0 <g_432>
   11d4a:	48 83 f8 24          	cmp    $0x24,%rax
   11d4e:	77 b4                	ja     11d04 <func_28+0xee4>
   11d50:	8b 05 02 25 01 00    	mov    0x12502(%rip),%eax        # 24258 <g_2435>
   11d56:	85 c0                	test   %eax,%eax
   11d58:	0f 84 f2 03 00 00    	je     12150 <func_28+0x1330>
   11d5e:	48 8d 85 48 f6 ff ff 	lea    -0x9b8(%rbp),%rax
   11d65:	48 89 85 98 f7 ff ff 	mov    %rax,-0x868(%rbp)
   11d6c:	48 8d 05 8f 6c 01 00 	lea    0x16c8f(%rip),%rax        # 28a02 <g_1903>
   11d73:	48 89 85 a0 f7 ff ff 	mov    %rax,-0x860(%rbp)
   11d7a:	48 8d 05 8f 48 01 00 	lea    0x1488f(%rip),%rax        # 26610 <g_2476+0x30>
   11d81:	48 89 85 a8 f7 ff ff 	mov    %rax,-0x858(%rbp)
   11d88:	c7 85 60 f6 ff ff 00 	movl   $0x0,-0x9a0(%rbp)
   11d8f:	00 00 00 
   11d92:	eb 1a                	jmp    11dae <func_28+0xf8e>
   11d94:	8b 85 60 f6 ff ff    	mov    -0x9a0(%rbp),%eax
   11d9a:	48 98                	cltq   
   11d9c:	c7 84 85 fc f7 ff ff 	movl   $0x4b5a4ea8,-0x804(%rbp,%rax,4)
   11da3:	a8 4e 5a 4b 
   11da7:	83 85 60 f6 ff ff 01 	addl   $0x1,-0x9a0(%rbp)
   11dae:	83 bd 60 f6 ff ff 00 	cmpl   $0x0,-0x9a0(%rbp)
   11db5:	7e dd                	jle    11d94 <func_28+0xf74>
   11db7:	66 c7 05 04 24 01 00 	movw   $0x2,0x12404(%rip)        # 241c4 <g_373>
   11dbe:	02 00 
   11dc0:	eb 42                	jmp    11e04 <func_28+0xfe4>
   11dc2:	48 8b 05 5f 46 01 00 	mov    0x1465f(%rip),%rax        # 26428 <g_1885>
   11dc9:	48 8b 00             	mov    (%rax),%rax
   11dcc:	48 8b 00             	mov    (%rax),%rax
   11dcf:	48 89 85 98 f7 ff ff 	mov    %rax,-0x868(%rbp)
   11dd6:	48 8b 05 e3 45 01 00 	mov    0x145e3(%rip),%rax        # 263c0 <g_1058>
   11ddd:	8b 00                	mov    (%rax),%eax
   11ddf:	31 85 58 f6 ff ff    	xor    %eax,-0x9a8(%rbp)
   11de5:	0f b7 05 d8 23 01 00 	movzwl 0x123d8(%rip),%eax        # 241c4 <g_373>
   11dec:	48 0f bf c0          	movswq %ax,%rax
   11df0:	be 07 00 00 00       	mov    $0x7,%esi
   11df5:	48 89 c7             	mov    %rax,%rdi
   11df8:	e8 31 a2 ff ff       	callq  c02e <safe_add_func_uint64_t_u_u>
   11dfd:	66 89 05 c0 23 01 00 	mov    %ax,0x123c0(%rip)        # 241c4 <g_373>
   11e04:	0f b7 05 b9 23 01 00 	movzwl 0x123b9(%rip),%eax        # 241c4 <g_373>
   11e0b:	66 83 f8 06          	cmp    $0x6,%ax
   11e0f:	7f b1                	jg     11dc2 <func_28+0xfa2>
   11e11:	0f b7 85 0e f8 ff ff 	movzwl -0x7f2(%rbp),%eax
   11e18:	48 0f bf d0          	movswq %ax,%rdx
   11e1c:	48 8b 05 95 45 01 00 	mov    0x14595(%rip),%rax        # 263b8 <g_965>
   11e23:	48 8b 00             	mov    (%rax),%rax
   11e26:	48 89 d6             	mov    %rdx,%rsi
   11e29:	48 31 c6             	xor    %rax,%rsi
   11e2c:	48 8b 85 a0 f7 ff ff 	mov    -0x860(%rbp),%rax
   11e33:	0f b6 00             	movzbl (%rax),%eax
   11e36:	8d 48 ff             	lea    -0x1(%rax),%ecx
   11e39:	48 8b 95 a0 f7 ff ff 	mov    -0x860(%rbp),%rdx
   11e40:	88 0a                	mov    %cl,(%rdx)
   11e42:	0f b6 c0             	movzbl %al,%eax
   11e45:	48 39 c6             	cmp    %rax,%rsi
   11e48:	7d 45                	jge    11e8f <func_28+0x106f>
   11e4a:	48 b8 39 d1 dd e0 17 	movabs $0x70d08317e0ddd139,%rax
   11e51:	83 d0 70 
   11e54:	48 89 85 b0 f7 ff ff 	mov    %rax,-0x850(%rbp)
   11e5b:	48 83 85 b0 f7 ff ff 	addq   $0x1,-0x850(%rbp)
   11e62:	01 
   11e63:	0f b6 85 3e f6 ff ff 	movzbl -0x9c2(%rbp),%eax
   11e6a:	83 c0 01             	add    $0x1,%eax
   11e6d:	88 85 3e f6 ff ff    	mov    %al,-0x9c2(%rbp)
   11e73:	48 8b 15 a6 45 01 00 	mov    0x145a6(%rip),%rdx        # 26420 <g_1886>
   11e7a:	48 8b 05 a7 45 01 00 	mov    0x145a7(%rip),%rax        # 26428 <g_1885>
   11e81:	48 8b 00             	mov    (%rax),%rax
   11e84:	48 8b 12             	mov    (%rdx),%rdx
   11e87:	48 89 10             	mov    %rdx,(%rax)
   11e8a:	e9 ae 02 00 00       	jmpq   1213d <func_28+0x131d>
   11e8f:	c7 85 b0 f6 ff ff 4a 	movl   $0x57cc344a,-0x950(%rbp)
   11e96:	34 cc 57 
   11e99:	c7 85 b4 f6 ff ff 01 	movl   $0x1,-0x94c(%rbp)
   11ea0:	00 00 00 
   11ea3:	c7 85 b8 f6 ff ff ca 	movl   $0xcbd636ca,-0x948(%rbp)
   11eaa:	36 d6 cb 
   11ead:	c7 85 64 f6 ff ff 00 	movl   $0x0,-0x99c(%rbp)
   11eb4:	00 00 00 
   11eb7:	eb 1a                	jmp    11ed3 <func_28+0x10b3>
   11eb9:	8b 85 64 f6 ff ff    	mov    -0x99c(%rbp),%eax
   11ebf:	48 98                	cltq   
   11ec1:	c7 84 85 00 f8 ff ff 	movl   $0xffffffff,-0x800(%rbp,%rax,4)
   11ec8:	ff ff ff ff 
   11ecc:	83 85 64 f6 ff ff 01 	addl   $0x1,-0x99c(%rbp)
   11ed3:	83 bd 64 f6 ff ff 01 	cmpl   $0x1,-0x99c(%rbp)
   11eda:	7e dd                	jle    11eb9 <func_28+0x1099>
   11edc:	8b 85 2c f6 ff ff    	mov    -0x9d4(%rbp),%eax
   11ee2:	48 63 d8             	movslq %eax,%rbx
   11ee5:	8b 85 b0 f6 ff ff    	mov    -0x950(%rbp),%eax
   11eeb:	44 0f be e0          	movsbl %al,%r12d
   11eef:	44 8b ad b0 f6 ff ff 	mov    -0x950(%rbp),%r13d
   11ef6:	8b 85 2c f6 ff ff    	mov    -0x9d4(%rbp),%eax
   11efc:	89 85 1c f6 ff ff    	mov    %eax,-0x9e4(%rbp)
   11f02:	0f b7 85 28 f6 ff ff 	movzwl -0x9d8(%rbp),%eax
   11f09:	0f b6 c0             	movzbl %al,%eax
   11f0c:	be 58 00 00 00       	mov    $0x58,%esi
   11f11:	89 c7                	mov    %eax,%edi
   11f13:	e8 60 9c ff ff       	callq  bb78 <safe_sub_func_uint8_t_u_u>
   11f18:	0f b6 d0             	movzbl %al,%edx
   11f1b:	48 8b 05 b6 44 01 00 	mov    0x144b6(%rip),%rax        # 263d8 <g_1122>
   11f22:	48 8b 30             	mov    (%rax),%rsi
   11f25:	48 8b 8d 68 fa ff ff 	mov    -0x598(%rbp),%rcx
   11f2c:	48 8b 85 60 f7 ff ff 	mov    -0x8a0(%rbp),%rax
   11f33:	48 89 08             	mov    %rcx,(%rax)
   11f36:	48 8b 85 60 f7 ff ff 	mov    -0x8a0(%rbp),%rax
   11f3d:	48 8b 00             	mov    (%rax),%rax
   11f40:	48 39 c6             	cmp    %rax,%rsi
   11f43:	0f 94 c0             	sete   %al
   11f46:	0f b6 c0             	movzbl %al,%eax
   11f49:	89 d6                	mov    %edx,%esi
   11f4b:	89 c7                	mov    %eax,%edi
   11f4d:	e8 fa 9c ff ff       	callq  bc4c <safe_lshift_func_uint8_t_u_u>
   11f52:	0f b6 c0             	movzbl %al,%eax
   11f55:	be 03 00 00 00       	mov    $0x3,%esi
   11f5a:	89 c7                	mov    %eax,%edi
   11f5c:	e8 2c 9d ff ff       	callq  bc8d <safe_rshift_func_uint8_t_u_s>
   11f61:	84 c0                	test   %al,%al
   11f63:	0f 85 6e 01 00 00    	jne    120d7 <func_28+0x12b7>
   11f69:	44 8b b5 2c f6 ff ff 	mov    -0x9d4(%rbp),%r14d
   11f70:	44 0f b7 bd 28 f6 ff 	movzwl -0x9d8(%rbp),%r15d
   11f77:	ff 
   11f78:	8b 85 b4 f9 ff ff    	mov    -0x64c(%rbp),%eax
   11f7e:	0f b7 c0             	movzwl %ax,%eax
   11f81:	89 85 10 f6 ff ff    	mov    %eax,-0x9f0(%rbp)
   11f87:	0f b6 8d 3e f6 ff ff 	movzbl -0x9c2(%rbp),%ecx
   11f8e:	89 8d 18 f6 ff ff    	mov    %ecx,-0x9e8(%rbp)
   11f94:	8b 85 2c f6 ff ff    	mov    -0x9d4(%rbp),%eax
   11f9a:	89 85 0c f6 ff ff    	mov    %eax,-0x9f4(%rbp)
   11fa0:	0f b6 bd 3e f6 ff ff 	movzbl -0x9c2(%rbp),%edi
   11fa7:	89 bd 08 f6 ff ff    	mov    %edi,-0x9f8(%rbp)
   11fad:	48 8b 85 a0 f7 ff ff 	mov    -0x860(%rbp),%rax
   11fb4:	0f b6 00             	movzbl (%rax),%eax
   11fb7:	89 c2                	mov    %eax,%edx
   11fb9:	83 ca c8             	or     $0xffffffc8,%edx
   11fbc:	48 8b 85 a0 f7 ff ff 	mov    -0x860(%rbp),%rax
   11fc3:	88 10                	mov    %dl,(%rax)
   11fc5:	48 8b 85 a0 f7 ff ff 	mov    -0x860(%rbp),%rax
   11fcc:	0f b6 00             	movzbl (%rax),%eax
   11fcf:	0f b6 d0             	movzbl %al,%edx
   11fd2:	89 95 04 f6 ff ff    	mov    %edx,-0x9fc(%rbp)
   11fd8:	0f b7 95 28 f6 ff ff 	movzwl -0x9d8(%rbp),%edx
   11fdf:	8b 85 2c f6 ff ff    	mov    -0x9d4(%rbp),%eax
   11fe5:	89 d6                	mov    %edx,%esi
   11fe7:	89 c7                	mov    %eax,%edi
   11fe9:	e8 c8 95 ff ff       	callq  b5b6 <safe_add_func_int32_t_s_s>
   11fee:	39 85 04 f6 ff ff    	cmp    %eax,-0x9fc(%rbp)
   11ff4:	0f 9c c0             	setl   %al
   11ff7:	0f b6 d0             	movzbl %al,%edx
   11ffa:	48 8b 05 ef 43 01 00 	mov    0x143ef(%rip),%rax        # 263f0 <g_1403>
   12001:	48 8b 00             	mov    (%rax),%rax
   12004:	0f b7 00             	movzwl (%rax),%eax
   12007:	0f b7 c0             	movzwl %ax,%eax
   1200a:	39 c2                	cmp    %eax,%edx
   1200c:	0f 9c c0             	setl   %al
   1200f:	0f b6 c0             	movzbl %al,%eax
   12012:	8b b5 08 f6 ff ff    	mov    -0x9f8(%rbp),%esi
   12018:	89 c7                	mov    %eax,%edi
   1201a:	e8 73 94 ff ff       	callq  b492 <safe_lshift_func_int16_t_s_s>
   1201f:	0f b6 c0             	movzbl %al,%eax
   12022:	8b b5 0c f6 ff ff    	mov    -0x9f4(%rbp),%esi
   12028:	89 c7                	mov    %eax,%edi
   1202a:	e8 8f 9c ff ff       	callq  bcbe <safe_rshift_func_uint8_t_u_u>
   1202f:	0f b6 c0             	movzbl %al,%eax
   12032:	8b b5 18 f6 ff ff    	mov    -0x9e8(%rbp),%esi
   12038:	89 c7                	mov    %eax,%edi
   1203a:	e8 94 93 ff ff       	callq  b3d3 <safe_sub_func_int16_t_s_s>
   1203f:	0f b7 c0             	movzwl %ax,%eax
   12042:	8b b5 10 f6 ff ff    	mov    -0x9f0(%rbp),%esi
   12048:	89 c7                	mov    %eax,%edi
   1204a:	e8 ee 9c ff ff       	callq  bd3d <safe_mul_func_uint16_t_u_u>
   1204f:	0f b7 d0             	movzwl %ax,%edx
   12052:	8b 85 2c f6 ff ff    	mov    -0x9d4(%rbp),%eax
   12058:	39 c2                	cmp    %eax,%edx
   1205a:	0f 9f c0             	setg   %al
   1205d:	0f b6 c8             	movzbl %al,%ecx
   12060:	48 8b 05 59 43 01 00 	mov    0x14359(%rip),%rax        # 263c0 <g_1058>
   12067:	8b 10                	mov    (%rax),%edx
   12069:	48 8b 05 50 43 01 00 	mov    0x14350(%rip),%rax        # 263c0 <g_1058>
   12070:	31 ca                	xor    %ecx,%edx
   12072:	89 10                	mov    %edx,(%rax)
   12074:	8b 00                	mov    (%rax),%eax
   12076:	44 89 fe             	mov    %r15d,%esi
   12079:	89 c7                	mov    %eax,%edi
   1207b:	e8 4c 96 ff ff       	callq  b6cc <safe_mod_func_int32_t_s_s>
   12080:	0f b7 d0             	movzwl %ax,%edx
   12083:	48 8b 05 96 45 01 00 	mov    0x14596(%rip),%rax        # 26620 <g_2475>
   1208a:	48 89 85 78 f7 ff ff 	mov    %rax,-0x888(%rbp)
   12091:	48 8b 85 78 f7 ff ff 	mov    -0x888(%rbp),%rax
   12098:	48 3b 85 a8 f7 ff ff 	cmp    -0x858(%rbp),%rax
   1209f:	0f 95 c0             	setne  %al
   120a2:	0f b6 c0             	movzbl %al,%eax
   120a5:	89 d6                	mov    %edx,%esi
   120a7:	89 c7                	mov    %eax,%edi
   120a9:	e8 8f 9c ff ff       	callq  bd3d <safe_mul_func_uint16_t_u_u>
   120ae:	8b 85 b8 f9 ff ff    	mov    -0x648(%rbp),%eax
   120b4:	c1 e8 1f             	shr    $0x1f,%eax
   120b7:	0f b6 c0             	movzbl %al,%eax
   120ba:	be 09 00 00 00       	mov    $0x9,%esi
   120bf:	89 c7                	mov    %eax,%edi
   120c1:	e8 37 9e ff ff       	callq  befd <safe_mod_func_uint32_t_u_u>
   120c6:	44 89 f6             	mov    %r14d,%esi
   120c9:	bf fa ff ff ff       	mov    $0xfffffffa,%edi
   120ce:	e8 32 95 ff ff       	callq  b605 <safe_sub_func_int32_t_s_s>
   120d3:	85 c0                	test   %eax,%eax
   120d5:	74 07                	je     120de <func_28+0x12be>
   120d7:	b8 01 00 00 00       	mov    $0x1,%eax
   120dc:	eb 05                	jmp    120e3 <func_28+0x12c3>
   120de:	b8 00 00 00 00       	mov    $0x0,%eax
   120e3:	8b b5 1c f6 ff ff    	mov    -0x9e4(%rbp),%esi
   120e9:	89 c7                	mov    %eax,%edi
   120eb:	e8 e0 9d ff ff       	callq  bed0 <safe_sub_func_uint32_t_u_u>
   120f0:	44 89 ee             	mov    %r13d,%esi
   120f3:	89 c7                	mov    %eax,%edi
   120f5:	e8 d2 95 ff ff       	callq  b6cc <safe_mod_func_int32_t_s_s>
   120fa:	0f be c0             	movsbl %al,%eax
   120fd:	44 89 e6             	mov    %r12d,%esi
   12100:	89 c7                	mov    %eax,%edi
   12102:	e8 2a 91 ff ff       	callq  b231 <safe_mod_func_int8_t_s_s>
   12107:	48 0f be c0          	movsbq %al,%rax
   1210b:	48 89 de             	mov    %rbx,%rsi
   1210e:	48 89 c7             	mov    %rax,%rdi
   12111:	e8 2b 97 ff ff       	callq  b841 <safe_add_func_int64_t_s_s>
   12116:	be ff ff ff ff       	mov    $0xffffffff,%esi
   1211b:	89 c7                	mov    %eax,%edi
   1211d:	e8 dd 95 ff ff       	callq  b6ff <safe_div_func_int32_t_s_s>
   12122:	09 85 b4 f6 ff ff    	or     %eax,-0x94c(%rbp)
   12128:	80 bd 3e f6 ff ff 00 	cmpb   $0x0,-0x9c2(%rbp)
   1212f:	74 05                	je     12136 <func_28+0x1316>
   12131:	e9 e9 fa ff ff       	jmpq   11c1f <func_28+0xdff>
   12136:	83 85 b8 f6 ff ff 01 	addl   $0x1,-0x948(%rbp)
   1213d:	66 83 bd 28 f6 ff ff 	cmpw   $0x0,-0x9d8(%rbp)
   12144:	00 
   12145:	0f 84 26 01 00 00    	je     12271 <func_28+0x1451>
   1214b:	e9 66 03 00 00       	jmpq   124b6 <func_28+0x1696>
   12150:	66 c7 05 47 1f 01 00 	movw   $0xe,0x11f47(%rip)        # 240a0 <g_124>
   12157:	0e 00 
   12159:	e9 02 01 00 00       	jmpq   12260 <func_28+0x1440>
   1215e:	48 8d 05 ec 1f 01 00 	lea    0x11fec(%rip),%rax        # 24151 <g_188>
   12165:	48 89 85 90 f7 ff ff 	mov    %rax,-0x870(%rbp)
   1216c:	c7 85 ac f6 ff ff fa 	movl   $0xfffffffa,-0x954(%rbp)
   12173:	ff ff ff 
   12176:	48 8b 05 e3 42 01 00 	mov    0x142e3(%rip),%rax        # 26460 <g_2151>
   1217d:	48 8b 00             	mov    (%rax),%rax
   12180:	8b 18                	mov    (%rax),%ebx
   12182:	0f b6 85 3f f6 ff ff 	movzbl -0x9c1(%rbp),%eax
   12189:	83 e0 f9             	and    $0xfffffff9,%eax
   1218c:	89 c1                	mov    %eax,%ecx
   1218e:	66 83 bd 28 f6 ff ff 	cmpw   $0x0,-0x9d8(%rbp)
   12195:	00 
   12196:	74 11                	je     121a9 <func_28+0x1389>
   12198:	66 83 bd 44 f6 ff ff 	cmpw   $0x1,-0x9bc(%rbp)
   1219f:	01 
   121a0:	74 07                	je     121a9 <func_28+0x1389>
   121a2:	b8 01 00 00 00       	mov    $0x1,%eax
   121a7:	eb 05                	jmp    121ae <func_28+0x138e>
   121a9:	b8 00 00 00 00       	mov    $0x0,%eax
   121ae:	83 e0 6b             	and    $0x6b,%eax
   121b1:	89 c2                	mov    %eax,%edx
   121b3:	48 8b 85 90 f7 ff ff 	mov    -0x870(%rbp),%rax
   121ba:	88 10                	mov    %dl,(%rax)
   121bc:	48 8b 85 90 f7 ff ff 	mov    -0x870(%rbp),%rax
   121c3:	0f b6 00             	movzbl (%rax),%eax
   121c6:	0f b6 c0             	movzbl %al,%eax
   121c9:	09 c8                	or     %ecx,%eax
   121cb:	0f b7 c0             	movzwl %ax,%eax
   121ce:	89 c7                	mov    %eax,%edi
   121d0:	e8 14 9b ff ff       	callq  bce9 <safe_unary_minus_func_uint16_t_u>
   121d5:	66 3d a8 6f          	cmp    $0x6fa8,%ax
   121d9:	0f 97 c0             	seta   %al
   121dc:	0f b6 c0             	movzbl %al,%eax
   121df:	89 de                	mov    %ebx,%esi
   121e1:	89 c7                	mov    %eax,%edi
   121e3:	e8 e8 9c ff ff       	callq  bed0 <safe_sub_func_uint32_t_u_u>
   121e8:	66 83 bd 28 f6 ff ff 	cmpw   $0x1,-0x9d8(%rbp)
   121ef:	01 
   121f0:	0f 95 c0             	setne  %al
   121f3:	0f b6 c0             	movzbl %al,%eax
   121f6:	89 c6                	mov    %eax,%esi
   121f8:	bf 93 00 00 00       	mov    $0x93,%edi
   121fd:	e8 91 99 ff ff       	callq  bb93 <safe_mul_func_uint8_t_u_u>
   12202:	0f b6 d0             	movzbl %al,%edx
   12205:	8b 85 2c f6 ff ff    	mov    -0x9d4(%rbp),%eax
   1220b:	39 c2                	cmp    %eax,%edx
   1220d:	7e 07                	jle    12216 <func_28+0x13f6>
   1220f:	ba 01 00 00 00       	mov    $0x1,%edx
   12214:	eb 05                	jmp    1221b <func_28+0x13fb>
   12216:	ba 00 00 00 00       	mov    $0x0,%edx
   1221b:	48 8b 05 96 41 01 00 	mov    0x14196(%rip),%rax        # 263b8 <g_965>
   12222:	48 63 d2             	movslq %edx,%rdx
   12225:	48 89 10             	mov    %rdx,(%rax)
   12228:	48 8b 00             	mov    (%rax),%rax
   1222b:	48 85 c0             	test   %rax,%rax
   1222e:	74 07                	je     12237 <func_28+0x1417>
   12230:	b8 01 00 00 00       	mov    $0x1,%eax
   12235:	eb 05                	jmp    1223c <func_28+0x141c>
   12237:	b8 00 00 00 00       	mov    $0x0,%eax
   1223c:	89 85 ac f6 ff ff    	mov    %eax,-0x954(%rbp)
   12242:	0f b7 05 57 1e 01 00 	movzwl 0x11e57(%rip),%eax        # 240a0 <g_124>
   12249:	0f b7 c0             	movzwl %ax,%eax
   1224c:	be 08 00 00 00       	mov    $0x8,%esi
   12251:	48 89 c7             	mov    %rax,%rdi
   12254:	e8 f2 9d ff ff       	callq  c04b <safe_sub_func_uint64_t_u_u>
   12259:	66 89 05 40 1e 01 00 	mov    %ax,0x11e40(%rip)        # 240a0 <g_124>
   12260:	0f b7 05 39 1e 01 00 	movzwl 0x11e39(%rip),%eax        # 240a0 <g_124>
   12267:	66 83 f8 0b          	cmp    $0xb,%ax
   1226b:	0f 84 ed fe ff ff    	je     1215e <func_28+0x133e>
   12271:	48 8b 85 88 f7 ff ff 	mov    -0x878(%rbp),%rax
   12278:	4c 8b 00             	mov    (%rax),%r8
   1227b:	48 0f bf 8d 44 f6 ff 	movswq -0x9bc(%rbp),%rcx
   12282:	ff 
   12283:	48 8b 05 96 41 01 00 	mov    0x14196(%rip),%rax        # 26420 <g_1886>
   1228a:	48 8b 10             	mov    (%rax),%rdx
   1228d:	48 8b 05 bc 41 01 00 	mov    0x141bc(%rip),%rax        # 26450 <g_2065>
   12294:	48 8b 30             	mov    (%rax),%rsi
   12297:	48 8b 05 1a 41 01 00 	mov    0x1411a(%rip),%rax        # 263b8 <g_965>
   1229e:	48 8b 00             	mov    (%rax),%rax
   122a1:	48 8b 3d 80 41 01 00 	mov    0x14180(%rip),%rdi        # 26428 <g_1885>
   122a8:	48 8b 1f             	mov    (%rdi),%rbx
   122ab:	48 89 c7             	mov    %rax,%rdi
   122ae:	e8 b1 a2 00 00       	callq  1c564 <func_69>
   122b3:	48 89 03             	mov    %rax,(%rbx)
   122b6:	48 8b 05 fb 1e 01 00 	mov    0x11efb(%rip),%rax        # 241b8 <g_300>
   122bd:	be 01 00 00 00       	mov    $0x1,%esi
   122c2:	89 c7                	mov    %eax,%edi
   122c4:	e8 ed 92 ff ff       	callq  b5b6 <safe_add_func_int32_t_s_s>
   122c9:	48 98                	cltq   
   122cb:	48 89 05 e6 1e 01 00 	mov    %rax,0x11ee6(%rip)        # 241b8 <g_300>
   122d2:	48 8b 05 df 1e 01 00 	mov    0x11edf(%rip),%rax        # 241b8 <g_300>
   122d9:	48 83 f8 36          	cmp    $0x36,%rax
   122dd:	0f 87 56 f9 ff ff    	ja     11c39 <func_28+0xe19>
   122e3:	e9 ce 01 00 00       	jmpq   124b6 <func_28+0x1696>
   122e8:	48 8d 05 c9 40 01 00 	lea    0x140c9(%rip),%rax        # 263b8 <g_965>
   122ef:	48 89 85 38 f7 ff ff 	mov    %rax,-0x8c8(%rbp)
   122f6:	c7 85 68 f6 ff ff 71 	movl   $0x642fe071,-0x998(%rbp)
   122fd:	e0 2f 64 
   12300:	48 c7 05 2d 1f 01 00 	movq   $0x1a,0x11f2d(%rip)        # 24238 <g_2004>
   12307:	1a 00 00 00 
   1230b:	e9 89 01 00 00       	jmpq   12499 <func_28+0x1679>
   12310:	66 c7 85 40 f6 ff ff 	movw   $0xffff,-0x9c0(%rbp)
   12317:	ff ff 
   12319:	48 8d 85 e8 f6 ff ff 	lea    -0x918(%rbp),%rax
   12320:	48 89 85 40 f7 ff ff 	mov    %rax,-0x8c0(%rbp)
   12327:	0f b6 9d 3f f6 ff ff 	movzbl -0x9c1(%rbp),%ebx
   1232e:	44 0f b7 a5 28 f6 ff 	movzwl -0x9d8(%rbp),%r12d
   12335:	ff 
   12336:	8b 85 68 f6 ff ff    	mov    -0x998(%rbp),%eax
   1233c:	0f b7 c0             	movzwl %ax,%eax
   1233f:	be 72 5a 00 00       	mov    $0x5a72,%esi
   12344:	89 c7                	mov    %eax,%edi
   12346:	e8 11 9a ff ff       	callq  bd5c <safe_mod_func_uint16_t_u_u>
   1234b:	0f bf 95 40 f6 ff ff 	movswl -0x9c0(%rbp),%edx
   12352:	0f b7 85 28 f6 ff ff 	movzwl -0x9d8(%rbp),%eax
   12359:	39 c2                	cmp    %eax,%edx
   1235b:	0f 95 c0             	setne  %al
   1235e:	0f b6 c0             	movzbl %al,%eax
   12361:	44 89 e6             	mov    %r12d,%esi
   12364:	89 c7                	mov    %eax,%edi
   12366:	e8 e1 98 ff ff       	callq  bc4c <safe_lshift_func_uint8_t_u_u>
   1236b:	0f b6 c0             	movzbl %al,%eax
   1236e:	be a8 00 00 00       	mov    $0xa8,%esi
   12373:	89 c7                	mov    %eax,%edi
   12375:	e8 fe 97 ff ff       	callq  bb78 <safe_sub_func_uint8_t_u_u>
   1237a:	0f b6 d0             	movzbl %al,%edx
   1237d:	0f b7 85 0e f8 ff ff 	movzwl -0x7f2(%rbp),%eax
   12384:	98                   	cwtl   
   12385:	39 c2                	cmp    %eax,%edx
   12387:	0f 95 c0             	setne  %al
   1238a:	0f b6 c0             	movzbl %al,%eax
   1238d:	be 06 00 00 00       	mov    $0x6,%esi
   12392:	89 c7                	mov    %eax,%edi
   12394:	e8 fa 97 ff ff       	callq  bb93 <safe_mul_func_uint8_t_u_u>
   12399:	0f b6 c0             	movzbl %al,%eax
   1239c:	48 35 1e 96 00 00    	xor    $0x961e,%rax
   123a2:	48 89 de             	mov    %rbx,%rsi
   123a5:	48 89 c7             	mov    %rax,%rdi
   123a8:	e8 94 94 ff ff       	callq  b841 <safe_add_func_int64_t_s_s>
   123ad:	89 c7                	mov    %eax,%edi
   123af:	e8 e2 91 ff ff       	callq  b596 <safe_unary_minus_func_int32_t_s>
   123b4:	85 c0                	test   %eax,%eax
   123b6:	75 07                	jne    123bf <func_28+0x159f>
   123b8:	83 bd 68 f6 ff ff 00 	cmpl   $0x0,-0x998(%rbp)
   123bf:	8b 85 2c f6 ff ff    	mov    -0x9d4(%rbp),%eax
   123c5:	85 c0                	test   %eax,%eax
   123c7:	74 11                	je     123da <func_28+0x15ba>
   123c9:	66 83 bd 28 f6 ff ff 	cmpw   $0x0,-0x9d8(%rbp)
   123d0:	00 
   123d1:	74 07                	je     123da <func_28+0x15ba>
   123d3:	b8 01 00 00 00       	mov    $0x1,%eax
   123d8:	eb 05                	jmp    123df <func_28+0x15bf>
   123da:	b8 00 00 00 00       	mov    $0x0,%eax
   123df:	0f b6 c0             	movzbl %al,%eax
   123e2:	be ff 00 00 00       	mov    $0xff,%esi
   123e7:	89 c7                	mov    %eax,%edi
   123e9:	e8 8a 97 ff ff       	callq  bb78 <safe_sub_func_uint8_t_u_u>
   123ee:	0f b6 d0             	movzbl %al,%edx
   123f1:	8b 85 b4 f9 ff ff    	mov    -0x64c(%rbp),%eax
   123f7:	39 c2                	cmp    %eax,%edx
   123f9:	0f 9e c0             	setle  %al
   123fc:	0f b6 d0             	movzbl %al,%edx
   123ff:	0f b7 85 28 f6 ff ff 	movzwl -0x9d8(%rbp),%eax
   12406:	09 d0                	or     %edx,%eax
   12408:	0f bf d8             	movswl %ax,%ebx
   1240b:	8b 85 2c f6 ff ff    	mov    -0x9d4(%rbp),%eax
   12411:	0f b7 c0             	movzwl %ax,%eax
   12414:	be 4d f1 00 00       	mov    $0xf14d,%esi
   12419:	89 c7                	mov    %eax,%edi
   1241b:	e8 1d 99 ff ff       	callq  bd3d <safe_mul_func_uint16_t_u_u>
   12420:	98                   	cwtl   
   12421:	be 0e 00 00 00       	mov    $0xe,%esi
   12426:	89 c7                	mov    %eax,%edi
   12428:	e8 65 90 ff ff       	callq  b492 <safe_lshift_func_int16_t_s_s>
   1242d:	98                   	cwtl   
   1242e:	89 de                	mov    %ebx,%esi
   12430:	89 c7                	mov    %eax,%edi
   12432:	e8 be 8f ff ff       	callq  b3f5 <safe_mul_func_int16_t_s_s>
   12437:	66 83 bd 28 f6 ff ff 	cmpw   $0x0,-0x9d8(%rbp)
   1243e:	00 
   1243f:	0f 94 c0             	sete   %al
   12442:	0f b6 d8             	movzbl %al,%ebx
   12445:	be 02 00 00 00       	mov    $0x2,%esi
   1244a:	bf 66 00 00 00       	mov    $0x66,%edi
   1244f:	e8 18 8f ff ff       	callq  b36c <safe_rshift_func_int8_t_s_u>
   12454:	84 c0                	test   %al,%al
   12456:	0f 94 c0             	sete   %al
   12459:	0f b6 d0             	movzbl %al,%edx
   1245c:	0f bf 85 40 f6 ff ff 	movswl -0x9c0(%rbp),%eax
   12463:	89 d6                	mov    %edx,%esi
   12465:	89 c7                	mov    %eax,%edi
   12467:	e8 47 8f ff ff       	callq  b3b3 <safe_add_func_int16_t_s_s>
   1246c:	98                   	cwtl   
   1246d:	39 c3                	cmp    %eax,%ebx
   1246f:	0f 9d c0             	setge  %al
   12472:	0f b6 c0             	movzbl %al,%eax
   12475:	89 85 f4 f9 ff ff    	mov    %eax,-0x60c(%rbp)
   1247b:	8b 85 2c f6 ff ff    	mov    -0x9d4(%rbp),%eax
   12481:	89 85 68 f6 ff ff    	mov    %eax,-0x998(%rbp)
   12487:	48 8b 05 aa 1d 01 00 	mov    0x11daa(%rip),%rax        # 24238 <g_2004>
   1248e:	48 83 c0 01          	add    $0x1,%rax
   12492:	48 89 05 9f 1d 01 00 	mov    %rax,0x11d9f(%rip)        # 24238 <g_2004>
   12499:	48 8b 05 98 1d 01 00 	mov    0x11d98(%rip),%rax        # 24238 <g_2004>
   124a0:	48 83 f8 33          	cmp    $0x33,%rax
   124a4:	0f 87 66 fe ff ff    	ja     12310 <func_28+0x14f0>
   124aa:	0f b7 85 28 f6 ff ff 	movzwl -0x9d8(%rbp),%eax
   124b1:	e9 28 02 00 00       	jmpq   126de <func_28+0x18be>
   124b6:	c7 05 30 1d 01 00 00 	movl   $0x0,0x11d30(%rip)        # 241f0 <g_891>
   124bd:	00 00 00 
   124c0:	90                   	nop
   124c1:	8b 05 29 1d 01 00    	mov    0x11d29(%rip),%eax        # 241f0 <g_891>
   124c7:	83 f8 18             	cmp    $0x18,%eax
   124ca:	0f 8e 07 02 00 00    	jle    126d7 <func_28+0x18b7>
   124d0:	66 c7 85 46 f6 ff ff 	movw   $0x4b83,-0x9ba(%rbp)
   124d7:	83 4b 
   124d9:	c7 85 00 fa ff ff 97 	movl   $0x1694b197,-0x600(%rbp)
   124e0:	b1 94 16 
   124e3:	c7 85 04 fa ff ff 97 	movl   $0x1694b197,-0x5fc(%rbp)
   124ea:	b1 94 16 
   124ed:	c7 85 08 fa ff ff 97 	movl   $0x1694b197,-0x5f8(%rbp)
   124f4:	b1 94 16 
   124f7:	c7 85 0c fa ff ff 97 	movl   $0x1694b197,-0x5f4(%rbp)
   124fe:	b1 94 16 
   12501:	c7 85 cc f6 ff ff d7 	movl   $0x94d8f3d7,-0x934(%rbp)
   12508:	f3 d8 94 
   1250b:	48 8d 05 a6 1c 01 00 	lea    0x11ca6(%rip),%rax        # 241b8 <g_300>
   12512:	48 89 85 e8 f7 ff ff 	mov    %rax,-0x818(%rbp)
   12519:	48 8d 85 c0 fa ff ff 	lea    -0x540(%rbp),%rax
   12520:	48 8d 15 d9 d3 00 00 	lea    0xd3d9(%rip),%rdx        # 1f900 <g_2990+0x888>
   12527:	b9 a0 00 00 00       	mov    $0xa0,%ecx
   1252c:	48 89 c7             	mov    %rax,%rdi
   1252f:	48 89 d6             	mov    %rdx,%rsi
   12532:	f3 48 a5             	rep movsq %ds:(%rsi),%es:(%rdi)
   12535:	8b 85 74 f6 ff ff    	mov    -0x98c(%rbp),%eax
   1253b:	48 63 d8             	movslq %eax,%rbx
   1253e:	8b 85 cc f6 ff ff    	mov    -0x934(%rbp),%eax
   12544:	44 0f b6 e0          	movzbl %al,%r12d
   12548:	66 83 8d 46 f6 ff ff 	orw    $0x8,-0x9ba(%rbp)
   1254f:	08 
   12550:	0f b7 85 46 f6 ff ff 	movzwl -0x9ba(%rbp),%eax
   12557:	0f b6 c0             	movzbl %al,%eax
   1255a:	be 02 00 00 00       	mov    $0x2,%esi
   1255f:	89 c7                	mov    %eax,%edi
   12561:	e8 e6 96 ff ff       	callq  bc4c <safe_lshift_func_uint8_t_u_u>
   12566:	48 8b 05 8b 3e 01 00 	mov    0x13e8b(%rip),%rax        # 263f8 <g_1402>
   1256d:	48 8b 00             	mov    (%rax),%rax
   12570:	48 8b 00             	mov    (%rax),%rax
   12573:	0f b7 10             	movzwl (%rax),%edx
   12576:	66 81 e2 cf 49       	and    $0x49cf,%dx
   1257b:	66 89 10             	mov    %dx,(%rax)
   1257e:	0f b7 00             	movzwl (%rax),%eax
   12581:	0f b7 c0             	movzwl %ax,%eax
   12584:	89 85 0c fa ff ff    	mov    %eax,-0x5f4(%rbp)
   1258a:	8b 85 0c fa ff ff    	mov    -0x5f4(%rbp),%eax
   12590:	85 c0                	test   %eax,%eax
   12592:	74 11                	je     125a5 <func_28+0x1785>
   12594:	8b 85 2c f6 ff ff    	mov    -0x9d4(%rbp),%eax
   1259a:	85 c0                	test   %eax,%eax
   1259c:	74 07                	je     125a5 <func_28+0x1785>
   1259e:	b8 01 00 00 00       	mov    $0x1,%eax
   125a3:	eb 05                	jmp    125aa <func_28+0x178a>
   125a5:	b8 00 00 00 00       	mov    $0x0,%eax
   125aa:	0f b6 c0             	movzbl %al,%eax
   125ad:	be 5d 00 00 00       	mov    $0x5d,%esi
   125b2:	89 c7                	mov    %eax,%edi
   125b4:	e8 f5 95 ff ff       	callq  bbae <safe_mod_func_uint8_t_u_u>
   125b9:	0f b6 c0             	movzbl %al,%eax
   125bc:	48 be aa e5 3e 9b 52 	movabs $0x4635d1529b3ee5aa,%rsi
   125c3:	d1 35 46 
   125c6:	48 89 c7             	mov    %rax,%rdi
   125c9:	e8 29 94 ff ff       	callq  b9f7 <safe_div_func_int64_t_s_s>
   125ce:	89 c6                	mov    %eax,%esi
   125d0:	bf 01 00 00 00       	mov    $0x1,%edi
   125d5:	e8 2b 90 ff ff       	callq  b605 <safe_sub_func_int32_t_s_s>
   125da:	0f b7 85 28 f6 ff ff 	movzwl -0x9d8(%rbp),%eax
   125e1:	be 01 00 00 00       	mov    $0x1,%esi
   125e6:	48 89 c7             	mov    %rax,%rdi
   125e9:	e8 40 9a ff ff       	callq  c02e <safe_add_func_uint64_t_u_u>
   125ee:	8b 95 0c fa ff ff    	mov    -0x5f4(%rbp),%edx
   125f4:	85 d2                	test   %edx,%edx
   125f6:	0f 95 c2             	setne  %dl
   125f9:	0f b6 d2             	movzbl %dl,%edx
   125fc:	48 09 c2             	or     %rax,%rdx
   125ff:	8b 85 cc f6 ff ff    	mov    -0x934(%rbp),%eax
   12605:	48 98                	cltq   
   12607:	48 39 c2             	cmp    %rax,%rdx
   1260a:	0f 94 c0             	sete   %al
   1260d:	0f b6 c0             	movzbl %al,%eax
   12610:	44 89 e6             	mov    %r12d,%esi
   12613:	89 c7                	mov    %eax,%edi
   12615:	e8 c1 95 ff ff       	callq  bbdb <safe_div_func_uint8_t_u_u>
   1261a:	0f b6 c0             	movzbl %al,%eax
   1261d:	66 39 85 28 f6 ff ff 	cmp    %ax,-0x9d8(%rbp)
   12624:	8b 95 b4 f9 ff ff    	mov    -0x64c(%rbp),%edx
   1262a:	0f b6 85 3f f6 ff ff 	movzbl -0x9c1(%rbp),%eax
   12631:	21 c2                	and    %eax,%edx
   12633:	0f b7 85 28 f6 ff ff 	movzwl -0x9d8(%rbp),%eax
   1263a:	39 c2                	cmp    %eax,%edx
   1263c:	0f 9c c0             	setl   %al
   1263f:	0f b6 c8             	movzbl %al,%ecx
   12642:	48 8b 85 e8 f7 ff ff 	mov    -0x818(%rbp),%rax
   12649:	48 8b 10             	mov    (%rax),%rdx
   1264c:	48 63 c1             	movslq %ecx,%rax
   1264f:	48 09 c2             	or     %rax,%rdx
   12652:	48 8b 85 e8 f7 ff ff 	mov    -0x818(%rbp),%rax
   12659:	48 89 10             	mov    %rdx,(%rax)
   1265c:	48 8b 85 e8 f7 ff ff 	mov    -0x818(%rbp),%rax
   12663:	48 8b 00             	mov    (%rax),%rax
   12666:	48 be b6 0a 89 d9 de 	movabs $0x4d2722ded9890ab6,%rsi
   1266d:	22 27 4d 
   12670:	48 89 c7             	mov    %rax,%rdi
   12673:	e8 d3 99 ff ff       	callq  c04b <safe_sub_func_uint64_t_u_u>
   12678:	48 89 de             	mov    %rbx,%rsi
   1267b:	48 89 c7             	mov    %rax,%rdi
   1267e:	e8 74 93 ff ff       	callq  b9f7 <safe_div_func_int64_t_s_s>
   12683:	8b 85 70 f6 ff ff    	mov    -0x990(%rbp),%eax
   12689:	48 63 d0             	movslq %eax,%rdx
   1268c:	48 8b 85 00 fd ff ff 	mov    -0x300(%rbp),%rax
   12693:	48 39 c2             	cmp    %rax,%rdx
   12696:	0f 94 c0             	sete   %al
   12699:	0f b6 d0             	movzbl %al,%edx
   1269c:	8b 85 4c f6 ff ff    	mov    -0x9b4(%rbp),%eax
   126a2:	48 98                	cltq   
   126a4:	48 89 d6             	mov    %rdx,%rsi
   126a7:	48 89 c7             	mov    %rax,%rdi
   126aa:	e8 92 91 ff ff       	callq  b841 <safe_add_func_int64_t_s_s>
   126af:	89 85 64 f9 ff ff    	mov    %eax,-0x69c(%rbp)
   126b5:	8b 8d 64 f9 ff ff    	mov    -0x69c(%rbp),%ecx
   126bb:	48 8b 05 fe 3c 01 00 	mov    0x13cfe(%rip),%rax        # 263c0 <g_1058>
   126c2:	8b 10                	mov    (%rax),%edx
   126c4:	48 8b 05 f5 3c 01 00 	mov    0x13cf5(%rip),%rax        # 263c0 <g_1058>
   126cb:	21 ca                	and    %ecx,%edx
   126cd:	89 10                	mov    %edx,(%rax)
   126cf:	8b 85 2c f6 ff ff    	mov    -0x9d4(%rbp),%eax
   126d5:	eb 07                	jmp    126de <func_28+0x18be>
   126d7:	0f b7 85 28 f6 ff ff 	movzwl -0x9d8(%rbp),%eax
   126de:	48 8b 5d c8          	mov    -0x38(%rbp),%rbx
   126e2:	64 48 33 1c 25 28 00 	xor    %fs:0x28,%rbx
   126e9:	00 00 
   126eb:	74 05                	je     126f2 <func_28+0x18d2>
   126ed:	e8 7e 89 ff ff       	callq  b070 <__stack_chk_fail@plt>
   126f2:	48 81 c4 d8 09 00 00 	add    $0x9d8,%rsp
   126f9:	5b                   	pop    %rbx
   126fa:	41 5c                	pop    %r12
   126fc:	41 5d                	pop    %r13
   126fe:	41 5e                	pop    %r14
   12700:	41 5f                	pop    %r15
   12702:	5d                   	pop    %rbp
   12703:	c3                   	retq   

0000000000012704 <func_47>:
   12704:	f3 0f 1e fa          	endbr64 
   12708:	55                   	push   %rbp
   12709:	48 89 e5             	mov    %rsp,%rbp
   1270c:	41 57                	push   %r15
   1270e:	41 56                	push   %r14
   12710:	41 55                	push   %r13
   12712:	41 54                	push   %r12
   12714:	53                   	push   %rbx
   12715:	48 81 ec 00 10 00 00 	sub    $0x1000,%rsp
   1271c:	48 83 0c 24 00       	orq    $0x0,(%rsp)
   12721:	48 81 ec 00 10 00 00 	sub    $0x1000,%rsp
   12728:	48 83 0c 24 00       	orq    $0x0,(%rsp)
   1272d:	48 81 ec 98 00 00 00 	sub    $0x98,%rsp
   12734:	48 89 bd 68 df ff ff 	mov    %rdi,-0x2098(%rbp)
   1273b:	48 89 b5 60 df ff ff 	mov    %rsi,-0x20a0(%rbp)
   12742:	48 89 95 58 df ff ff 	mov    %rdx,-0x20a8(%rbp)
   12749:	89 8d 54 df ff ff    	mov    %ecx,-0x20ac(%rbp)
   1274f:	64 48 8b 04 25 28 00 	mov    %fs:0x28,%rax
   12756:	00 00 
   12758:	48 89 45 c8          	mov    %rax,-0x38(%rbp)
   1275c:	31 c0                	xor    %eax,%eax
   1275e:	48 8d 05 63 3c 01 00 	lea    0x13c63(%rip),%rax        # 263c8 <g_1124>
   12765:	48 89 85 90 e0 ff ff 	mov    %rax,-0x1f70(%rbp)
   1276c:	c7 85 14 e0 ff ff f8 	movl   $0xfffffff8,-0x1fec(%rbp)
   12773:	ff ff ff 
   12776:	48 c7 85 98 e0 ff ff 	movq   $0x0,-0x1f68(%rbp)
   1277d:	00 00 00 00 
   12781:	48 8d 85 98 e0 ff ff 	lea    -0x1f68(%rbp),%rax
   12788:	48 89 85 a0 e0 ff ff 	mov    %rax,-0x1f60(%rbp)
   1278f:	48 8d 85 a0 e0 ff ff 	lea    -0x1f60(%rbp),%rax
   12796:	48 89 85 a8 e0 ff ff 	mov    %rax,-0x1f58(%rbp)
   1279d:	48 8d 85 a8 e0 ff ff 	lea    -0x1f58(%rbp),%rax
   127a4:	48 89 85 18 e1 ff ff 	mov    %rax,-0x1ee8(%rbp)
   127ab:	48 8d 05 ea 18 01 00 	lea    0x118ea(%rip),%rax        # 2409c <g_113>
   127b2:	48 89 85 b0 e0 ff ff 	mov    %rax,-0x1f50(%rbp)
   127b9:	48 8d 85 b0 e0 ff ff 	lea    -0x1f50(%rbp),%rax
   127c0:	48 89 85 20 e1 ff ff 	mov    %rax,-0x1ee0(%rbp)
   127c7:	48 8d 05 06 1a 01 00 	lea    0x11a06(%rip),%rax        # 241d4 <g_394>
   127ce:	48 89 85 b8 e0 ff ff 	mov    %rax,-0x1f48(%rbp)
   127d5:	48 8d 85 b8 e0 ff ff 	lea    -0x1f48(%rbp),%rax
   127dc:	48 89 85 28 e1 ff ff 	mov    %rax,-0x1ed8(%rbp)
   127e3:	66 c7 85 10 e4 ff ff 	movw   $0xbe2c,-0x1bf0(%rbp)
   127ea:	2c be 
   127ec:	66 c7 85 12 e4 ff ff 	movw   $0x61a2,-0x1bee(%rbp)
   127f3:	a2 61 
   127f5:	66 c7 85 14 e4 ff ff 	movw   $0xbe2c,-0x1bec(%rbp)
   127fc:	2c be 
   127fe:	66 c7 85 16 e4 ff ff 	movw   $0x61a2,-0x1bea(%rbp)
   12805:	a2 61 
   12807:	66 c7 85 18 e4 ff ff 	movw   $0xbe2c,-0x1be8(%rbp)
   1280e:	2c be 
   12810:	66 c7 85 1a e4 ff ff 	movw   $0x61a2,-0x1be6(%rbp)
   12817:	a2 61 
   12819:	66 c7 85 1c e4 ff ff 	movw   $0xbe2c,-0x1be4(%rbp)
   12820:	2c be 
   12822:	66 c7 85 1e e4 ff ff 	movw   $0x61a2,-0x1be2(%rbp)
   12829:	a2 61 
   1282b:	66 c7 85 20 e4 ff ff 	movw   $0xbe2c,-0x1be0(%rbp)
   12832:	2c be 
   12834:	48 c7 85 30 e1 ff ff 	movq   $0x0,-0x1ed0(%rbp)
   1283b:	00 00 00 00 
   1283f:	48 8d 05 a2 3b 01 00 	lea    0x13ba2(%rip),%rax        # 263e8 <g_1404>
   12846:	48 89 85 d0 f2 ff ff 	mov    %rax,-0xd30(%rbp)
   1284d:	48 8d 05 94 3b 01 00 	lea    0x13b94(%rip),%rax        # 263e8 <g_1404>
   12854:	48 89 85 d8 f2 ff ff 	mov    %rax,-0xd28(%rbp)
   1285b:	48 8d 05 86 3b 01 00 	lea    0x13b86(%rip),%rax        # 263e8 <g_1404>
   12862:	48 89 85 e0 f2 ff ff 	mov    %rax,-0xd20(%rbp)
   12869:	48 8d 85 98 e0 ff ff 	lea    -0x1f68(%rbp),%rax
   12870:	48 89 85 e8 f2 ff ff 	mov    %rax,-0xd18(%rbp)
   12877:	48 8d 85 98 e0 ff ff 	lea    -0x1f68(%rbp),%rax
   1287e:	48 89 85 f0 f2 ff ff 	mov    %rax,-0xd10(%rbp)
   12885:	48 8d 05 5c 3b 01 00 	lea    0x13b5c(%rip),%rax        # 263e8 <g_1404>
   1288c:	48 89 85 f8 f2 ff ff 	mov    %rax,-0xd08(%rbp)
   12893:	48 8d 85 98 e0 ff ff 	lea    -0x1f68(%rbp),%rax
   1289a:	48 89 85 00 f3 ff ff 	mov    %rax,-0xd00(%rbp)
   128a1:	48 8d 85 98 e0 ff ff 	lea    -0x1f68(%rbp),%rax
   128a8:	48 89 85 08 f3 ff ff 	mov    %rax,-0xcf8(%rbp)
   128af:	48 8d 05 32 3b 01 00 	lea    0x13b32(%rip),%rax        # 263e8 <g_1404>
   128b6:	48 89 85 10 f3 ff ff 	mov    %rax,-0xcf0(%rbp)
   128bd:	48 8d 85 98 e0 ff ff 	lea    -0x1f68(%rbp),%rax
   128c4:	48 89 85 18 f3 ff ff 	mov    %rax,-0xce8(%rbp)
   128cb:	48 8d 85 98 e0 ff ff 	lea    -0x1f68(%rbp),%rax
   128d2:	48 89 85 20 f3 ff ff 	mov    %rax,-0xce0(%rbp)
   128d9:	48 8d 05 08 3b 01 00 	lea    0x13b08(%rip),%rax        # 263e8 <g_1404>
   128e0:	48 89 85 28 f3 ff ff 	mov    %rax,-0xcd8(%rbp)
   128e7:	48 8d 85 98 e0 ff ff 	lea    -0x1f68(%rbp),%rax
   128ee:	48 89 85 30 f3 ff ff 	mov    %rax,-0xcd0(%rbp)
   128f5:	48 8d 85 98 e0 ff ff 	lea    -0x1f68(%rbp),%rax
   128fc:	48 89 85 38 f3 ff ff 	mov    %rax,-0xcc8(%rbp)
   12903:	48 8d 05 de 3a 01 00 	lea    0x13ade(%rip),%rax        # 263e8 <g_1404>
   1290a:	48 89 85 40 f3 ff ff 	mov    %rax,-0xcc0(%rbp)
   12911:	48 8d 05 d0 3a 01 00 	lea    0x13ad0(%rip),%rax        # 263e8 <g_1404>
   12918:	48 89 85 48 f3 ff ff 	mov    %rax,-0xcb8(%rbp)
   1291f:	48 8d 05 c2 3a 01 00 	lea    0x13ac2(%rip),%rax        # 263e8 <g_1404>
   12926:	48 89 85 50 f3 ff ff 	mov    %rax,-0xcb0(%rbp)
   1292d:	48 8d 05 b4 3a 01 00 	lea    0x13ab4(%rip),%rax        # 263e8 <g_1404>
   12934:	48 89 85 58 f3 ff ff 	mov    %rax,-0xca8(%rbp)
   1293b:	48 8d 05 a6 3a 01 00 	lea    0x13aa6(%rip),%rax        # 263e8 <g_1404>
   12942:	48 89 85 60 f3 ff ff 	mov    %rax,-0xca0(%rbp)
   12949:	48 8d 05 98 3a 01 00 	lea    0x13a98(%rip),%rax        # 263e8 <g_1404>
   12950:	48 89 85 68 f3 ff ff 	mov    %rax,-0xc98(%rbp)
   12957:	48 8d 05 8a 3a 01 00 	lea    0x13a8a(%rip),%rax        # 263e8 <g_1404>
   1295e:	48 89 85 70 f3 ff ff 	mov    %rax,-0xc90(%rbp)
   12965:	48 8d 85 98 e0 ff ff 	lea    -0x1f68(%rbp),%rax
   1296c:	48 89 85 78 f3 ff ff 	mov    %rax,-0xc88(%rbp)
   12973:	48 8d 85 98 e0 ff ff 	lea    -0x1f68(%rbp),%rax
   1297a:	48 89 85 80 f3 ff ff 	mov    %rax,-0xc80(%rbp)
   12981:	48 8d 05 60 3a 01 00 	lea    0x13a60(%rip),%rax        # 263e8 <g_1404>
   12988:	48 89 85 88 f3 ff ff 	mov    %rax,-0xc78(%rbp)
   1298f:	48 8d 85 98 e0 ff ff 	lea    -0x1f68(%rbp),%rax
   12996:	48 89 85 90 f3 ff ff 	mov    %rax,-0xc70(%rbp)
   1299d:	48 8d 85 98 e0 ff ff 	lea    -0x1f68(%rbp),%rax
   129a4:	48 89 85 98 f3 ff ff 	mov    %rax,-0xc68(%rbp)
   129ab:	48 8d 05 36 3a 01 00 	lea    0x13a36(%rip),%rax        # 263e8 <g_1404>
   129b2:	48 89 85 a0 f3 ff ff 	mov    %rax,-0xc60(%rbp)
   129b9:	48 8d 85 98 e0 ff ff 	lea    -0x1f68(%rbp),%rax
   129c0:	48 89 85 a8 f3 ff ff 	mov    %rax,-0xc58(%rbp)
   129c7:	48 8d 85 98 e0 ff ff 	lea    -0x1f68(%rbp),%rax
   129ce:	48 89 85 b0 f3 ff ff 	mov    %rax,-0xc50(%rbp)
   129d5:	48 8d 05 0c 3a 01 00 	lea    0x13a0c(%rip),%rax        # 263e8 <g_1404>
   129dc:	48 89 85 b8 f3 ff ff 	mov    %rax,-0xc48(%rbp)
   129e3:	48 8d 85 98 e0 ff ff 	lea    -0x1f68(%rbp),%rax
   129ea:	48 89 85 c0 f3 ff ff 	mov    %rax,-0xc40(%rbp)
   129f1:	48 8d 85 98 e0 ff ff 	lea    -0x1f68(%rbp),%rax
   129f8:	48 89 85 c8 f3 ff ff 	mov    %rax,-0xc38(%rbp)
   129ff:	48 8d 05 e2 39 01 00 	lea    0x139e2(%rip),%rax        # 263e8 <g_1404>
   12a06:	48 89 85 d0 f3 ff ff 	mov    %rax,-0xc30(%rbp)
   12a0d:	48 8d 05 d4 39 01 00 	lea    0x139d4(%rip),%rax        # 263e8 <g_1404>
   12a14:	48 89 85 d8 f3 ff ff 	mov    %rax,-0xc28(%rbp)
   12a1b:	48 8d 05 c6 39 01 00 	lea    0x139c6(%rip),%rax        # 263e8 <g_1404>
   12a22:	48 89 85 e0 f3 ff ff 	mov    %rax,-0xc20(%rbp)
   12a29:	48 8d 05 b8 39 01 00 	lea    0x139b8(%rip),%rax        # 263e8 <g_1404>
   12a30:	48 89 85 e8 f3 ff ff 	mov    %rax,-0xc18(%rbp)
   12a37:	48 8d 05 aa 39 01 00 	lea    0x139aa(%rip),%rax        # 263e8 <g_1404>
   12a3e:	48 89 85 f0 f3 ff ff 	mov    %rax,-0xc10(%rbp)
   12a45:	48 8d 05 9c 39 01 00 	lea    0x1399c(%rip),%rax        # 263e8 <g_1404>
   12a4c:	48 89 85 f8 f3 ff ff 	mov    %rax,-0xc08(%rbp)
   12a53:	48 8d 05 8e 39 01 00 	lea    0x1398e(%rip),%rax        # 263e8 <g_1404>
   12a5a:	48 89 85 00 f4 ff ff 	mov    %rax,-0xc00(%rbp)
   12a61:	48 8d 85 98 e0 ff ff 	lea    -0x1f68(%rbp),%rax
   12a68:	48 89 85 08 f4 ff ff 	mov    %rax,-0xbf8(%rbp)
   12a6f:	48 8d 85 98 e0 ff ff 	lea    -0x1f68(%rbp),%rax
   12a76:	48 89 85 10 f4 ff ff 	mov    %rax,-0xbf0(%rbp)
   12a7d:	48 8d 05 64 39 01 00 	lea    0x13964(%rip),%rax        # 263e8 <g_1404>
   12a84:	48 89 85 18 f4 ff ff 	mov    %rax,-0xbe8(%rbp)
   12a8b:	48 8d 85 98 e0 ff ff 	lea    -0x1f68(%rbp),%rax
   12a92:	48 89 85 20 f4 ff ff 	mov    %rax,-0xbe0(%rbp)
   12a99:	48 8d 85 98 e0 ff ff 	lea    -0x1f68(%rbp),%rax
   12aa0:	48 89 85 28 f4 ff ff 	mov    %rax,-0xbd8(%rbp)
   12aa7:	48 8d 05 3a 39 01 00 	lea    0x1393a(%rip),%rax        # 263e8 <g_1404>
   12aae:	48 89 85 30 f4 ff ff 	mov    %rax,-0xbd0(%rbp)
   12ab5:	48 8d 85 98 e0 ff ff 	lea    -0x1f68(%rbp),%rax
   12abc:	48 89 85 38 f4 ff ff 	mov    %rax,-0xbc8(%rbp)
   12ac3:	48 8d 85 98 e0 ff ff 	lea    -0x1f68(%rbp),%rax
   12aca:	48 89 85 40 f4 ff ff 	mov    %rax,-0xbc0(%rbp)
   12ad1:	48 8d 05 10 39 01 00 	lea    0x13910(%rip),%rax        # 263e8 <g_1404>
   12ad8:	48 89 85 48 f4 ff ff 	mov    %rax,-0xbb8(%rbp)
   12adf:	48 8d 85 98 e0 ff ff 	lea    -0x1f68(%rbp),%rax
   12ae6:	48 89 85 50 f4 ff ff 	mov    %rax,-0xbb0(%rbp)
   12aed:	48 8d 85 98 e0 ff ff 	lea    -0x1f68(%rbp),%rax
   12af4:	48 89 85 58 f4 ff ff 	mov    %rax,-0xba8(%rbp)
   12afb:	48 8d 05 e6 38 01 00 	lea    0x138e6(%rip),%rax        # 263e8 <g_1404>
   12b02:	48 89 85 60 f4 ff ff 	mov    %rax,-0xba0(%rbp)
   12b09:	48 8d 05 d8 38 01 00 	lea    0x138d8(%rip),%rax        # 263e8 <g_1404>
   12b10:	48 89 85 68 f4 ff ff 	mov    %rax,-0xb98(%rbp)
   12b17:	48 8d 05 ca 38 01 00 	lea    0x138ca(%rip),%rax        # 263e8 <g_1404>
   12b1e:	48 89 85 70 f4 ff ff 	mov    %rax,-0xb90(%rbp)
   12b25:	48 8d 05 bc 38 01 00 	lea    0x138bc(%rip),%rax        # 263e8 <g_1404>
   12b2c:	48 89 85 78 f4 ff ff 	mov    %rax,-0xb88(%rbp)
   12b33:	48 8d 05 ae 38 01 00 	lea    0x138ae(%rip),%rax        # 263e8 <g_1404>
   12b3a:	48 89 85 80 f4 ff ff 	mov    %rax,-0xb80(%rbp)
   12b41:	48 8d 05 a0 38 01 00 	lea    0x138a0(%rip),%rax        # 263e8 <g_1404>
   12b48:	48 89 85 88 f4 ff ff 	mov    %rax,-0xb78(%rbp)
   12b4f:	48 8d 05 92 38 01 00 	lea    0x13892(%rip),%rax        # 263e8 <g_1404>
   12b56:	48 89 85 90 f4 ff ff 	mov    %rax,-0xb70(%rbp)
   12b5d:	48 8d 85 98 e0 ff ff 	lea    -0x1f68(%rbp),%rax
   12b64:	48 89 85 98 f4 ff ff 	mov    %rax,-0xb68(%rbp)
   12b6b:	48 8d 85 98 e0 ff ff 	lea    -0x1f68(%rbp),%rax
   12b72:	48 89 85 a0 f4 ff ff 	mov    %rax,-0xb60(%rbp)
   12b79:	48 8d 05 68 38 01 00 	lea    0x13868(%rip),%rax        # 263e8 <g_1404>
   12b80:	48 89 85 a8 f4 ff ff 	mov    %rax,-0xb58(%rbp)
   12b87:	48 8d 85 98 e0 ff ff 	lea    -0x1f68(%rbp),%rax
   12b8e:	48 89 85 b0 f4 ff ff 	mov    %rax,-0xb50(%rbp)
   12b95:	48 8d 85 98 e0 ff ff 	lea    -0x1f68(%rbp),%rax
   12b9c:	48 89 85 b8 f4 ff ff 	mov    %rax,-0xb48(%rbp)
   12ba3:	48 8d 05 3e 38 01 00 	lea    0x1383e(%rip),%rax        # 263e8 <g_1404>
   12baa:	48 89 85 c0 f4 ff ff 	mov    %rax,-0xb40(%rbp)
   12bb1:	48 8d 85 98 e0 ff ff 	lea    -0x1f68(%rbp),%rax
   12bb8:	48 89 85 c8 f4 ff ff 	mov    %rax,-0xb38(%rbp)
   12bbf:	48 8d 85 98 e0 ff ff 	lea    -0x1f68(%rbp),%rax
   12bc6:	48 89 85 d0 f4 ff ff 	mov    %rax,-0xb30(%rbp)
   12bcd:	48 8d 05 14 38 01 00 	lea    0x13814(%rip),%rax        # 263e8 <g_1404>
   12bd4:	48 89 85 d8 f4 ff ff 	mov    %rax,-0xb28(%rbp)
   12bdb:	48 8d 85 98 e0 ff ff 	lea    -0x1f68(%rbp),%rax
   12be2:	48 89 85 e0 f4 ff ff 	mov    %rax,-0xb20(%rbp)
   12be9:	48 8d 85 98 e0 ff ff 	lea    -0x1f68(%rbp),%rax
   12bf0:	48 89 85 e8 f4 ff ff 	mov    %rax,-0xb18(%rbp)
   12bf7:	48 8d 05 ea 37 01 00 	lea    0x137ea(%rip),%rax        # 263e8 <g_1404>
   12bfe:	48 89 85 f0 f4 ff ff 	mov    %rax,-0xb10(%rbp)
   12c05:	48 8d 05 dc 37 01 00 	lea    0x137dc(%rip),%rax        # 263e8 <g_1404>
   12c0c:	48 89 85 f8 f4 ff ff 	mov    %rax,-0xb08(%rbp)
   12c13:	48 8d 05 ce 37 01 00 	lea    0x137ce(%rip),%rax        # 263e8 <g_1404>
   12c1a:	48 89 85 00 f5 ff ff 	mov    %rax,-0xb00(%rbp)
   12c21:	48 8d 05 c0 37 01 00 	lea    0x137c0(%rip),%rax        # 263e8 <g_1404>
   12c28:	48 89 85 08 f5 ff ff 	mov    %rax,-0xaf8(%rbp)
   12c2f:	48 8d 05 b2 37 01 00 	lea    0x137b2(%rip),%rax        # 263e8 <g_1404>
   12c36:	48 89 85 10 f5 ff ff 	mov    %rax,-0xaf0(%rbp)
   12c3d:	48 8d 05 a4 37 01 00 	lea    0x137a4(%rip),%rax        # 263e8 <g_1404>
   12c44:	48 89 85 18 f5 ff ff 	mov    %rax,-0xae8(%rbp)
   12c4b:	48 8d 05 96 37 01 00 	lea    0x13796(%rip),%rax        # 263e8 <g_1404>
   12c52:	48 89 85 20 f5 ff ff 	mov    %rax,-0xae0(%rbp)
   12c59:	48 8d 85 98 e0 ff ff 	lea    -0x1f68(%rbp),%rax
   12c60:	48 89 85 28 f5 ff ff 	mov    %rax,-0xad8(%rbp)
   12c67:	48 8d 85 98 e0 ff ff 	lea    -0x1f68(%rbp),%rax
   12c6e:	48 89 85 30 f5 ff ff 	mov    %rax,-0xad0(%rbp)
   12c75:	48 8d 05 6c 37 01 00 	lea    0x1376c(%rip),%rax        # 263e8 <g_1404>
   12c7c:	48 89 85 38 f5 ff ff 	mov    %rax,-0xac8(%rbp)
   12c83:	48 8d 85 98 e0 ff ff 	lea    -0x1f68(%rbp),%rax
   12c8a:	48 89 85 40 f5 ff ff 	mov    %rax,-0xac0(%rbp)
   12c91:	48 8d 85 98 e0 ff ff 	lea    -0x1f68(%rbp),%rax
   12c98:	48 89 85 48 f5 ff ff 	mov    %rax,-0xab8(%rbp)
   12c9f:	48 8d 05 42 37 01 00 	lea    0x13742(%rip),%rax        # 263e8 <g_1404>
   12ca6:	48 89 85 50 f5 ff ff 	mov    %rax,-0xab0(%rbp)
   12cad:	48 8d 85 98 e0 ff ff 	lea    -0x1f68(%rbp),%rax
   12cb4:	48 89 85 58 f5 ff ff 	mov    %rax,-0xaa8(%rbp)
   12cbb:	48 8d 85 98 e0 ff ff 	lea    -0x1f68(%rbp),%rax
   12cc2:	48 89 85 60 f5 ff ff 	mov    %rax,-0xaa0(%rbp)
   12cc9:	48 8d 05 18 37 01 00 	lea    0x13718(%rip),%rax        # 263e8 <g_1404>
   12cd0:	48 89 85 68 f5 ff ff 	mov    %rax,-0xa98(%rbp)
   12cd7:	48 8d 85 98 e0 ff ff 	lea    -0x1f68(%rbp),%rax
   12cde:	48 89 85 70 f5 ff ff 	mov    %rax,-0xa90(%rbp)
   12ce5:	48 8d 85 98 e0 ff ff 	lea    -0x1f68(%rbp),%rax
   12cec:	48 89 85 78 f5 ff ff 	mov    %rax,-0xa88(%rbp)
   12cf3:	48 8d 05 ee 36 01 00 	lea    0x136ee(%rip),%rax        # 263e8 <g_1404>
   12cfa:	48 89 85 80 f5 ff ff 	mov    %rax,-0xa80(%rbp)
   12d01:	48 8d 05 e0 36 01 00 	lea    0x136e0(%rip),%rax        # 263e8 <g_1404>
   12d08:	48 89 85 88 f5 ff ff 	mov    %rax,-0xa78(%rbp)
   12d0f:	48 8d 05 d2 36 01 00 	lea    0x136d2(%rip),%rax        # 263e8 <g_1404>
   12d16:	48 89 85 90 f5 ff ff 	mov    %rax,-0xa70(%rbp)
   12d1d:	48 8d 05 c4 36 01 00 	lea    0x136c4(%rip),%rax        # 263e8 <g_1404>
   12d24:	48 89 85 98 f5 ff ff 	mov    %rax,-0xa68(%rbp)
   12d2b:	48 8d 05 b6 36 01 00 	lea    0x136b6(%rip),%rax        # 263e8 <g_1404>
   12d32:	48 89 85 a0 f5 ff ff 	mov    %rax,-0xa60(%rbp)
   12d39:	48 8d 05 a8 36 01 00 	lea    0x136a8(%rip),%rax        # 263e8 <g_1404>
   12d40:	48 89 85 a8 f5 ff ff 	mov    %rax,-0xa58(%rbp)
   12d47:	48 8d 05 9a 36 01 00 	lea    0x1369a(%rip),%rax        # 263e8 <g_1404>
   12d4e:	48 89 85 b0 f5 ff ff 	mov    %rax,-0xa50(%rbp)
   12d55:	48 8d 85 98 e0 ff ff 	lea    -0x1f68(%rbp),%rax
   12d5c:	48 89 85 b8 f5 ff ff 	mov    %rax,-0xa48(%rbp)
   12d63:	48 8d 85 98 e0 ff ff 	lea    -0x1f68(%rbp),%rax
   12d6a:	48 89 85 c0 f5 ff ff 	mov    %rax,-0xa40(%rbp)
   12d71:	48 8d 05 70 36 01 00 	lea    0x13670(%rip),%rax        # 263e8 <g_1404>
   12d78:	48 89 85 c8 f5 ff ff 	mov    %rax,-0xa38(%rbp)
   12d7f:	48 8d 85 98 e0 ff ff 	lea    -0x1f68(%rbp),%rax
   12d86:	48 89 85 d0 f5 ff ff 	mov    %rax,-0xa30(%rbp)
   12d8d:	48 8d 85 98 e0 ff ff 	lea    -0x1f68(%rbp),%rax
   12d94:	48 89 85 d8 f5 ff ff 	mov    %rax,-0xa28(%rbp)
   12d9b:	48 8d 05 46 36 01 00 	lea    0x13646(%rip),%rax        # 263e8 <g_1404>
   12da2:	48 89 85 e0 f5 ff ff 	mov    %rax,-0xa20(%rbp)
   12da9:	48 8d 85 98 e0 ff ff 	lea    -0x1f68(%rbp),%rax
   12db0:	48 89 85 e8 f5 ff ff 	mov    %rax,-0xa18(%rbp)
   12db7:	48 8d 85 98 e0 ff ff 	lea    -0x1f68(%rbp),%rax
   12dbe:	48 89 85 f0 f5 ff ff 	mov    %rax,-0xa10(%rbp)
   12dc5:	48 8d 05 1c 36 01 00 	lea    0x1361c(%rip),%rax        # 263e8 <g_1404>
   12dcc:	48 89 85 f8 f5 ff ff 	mov    %rax,-0xa08(%rbp)
   12dd3:	48 8d 85 98 e0 ff ff 	lea    -0x1f68(%rbp),%rax
   12dda:	48 89 85 00 f6 ff ff 	mov    %rax,-0xa00(%rbp)
   12de1:	48 8d 85 98 e0 ff ff 	lea    -0x1f68(%rbp),%rax
   12de8:	48 89 85 08 f6 ff ff 	mov    %rax,-0x9f8(%rbp)
   12def:	48 8d 05 f2 35 01 00 	lea    0x135f2(%rip),%rax        # 263e8 <g_1404>
   12df6:	48 89 85 10 f6 ff ff 	mov    %rax,-0x9f0(%rbp)
   12dfd:	48 8d 05 e4 35 01 00 	lea    0x135e4(%rip),%rax        # 263e8 <g_1404>
   12e04:	48 89 85 18 f6 ff ff 	mov    %rax,-0x9e8(%rbp)
   12e0b:	48 8d 05 d6 35 01 00 	lea    0x135d6(%rip),%rax        # 263e8 <g_1404>
   12e12:	48 89 85 20 f6 ff ff 	mov    %rax,-0x9e0(%rbp)
   12e19:	48 8d 05 c8 35 01 00 	lea    0x135c8(%rip),%rax        # 263e8 <g_1404>
   12e20:	48 89 85 28 f6 ff ff 	mov    %rax,-0x9d8(%rbp)
   12e27:	48 8d 05 ba 35 01 00 	lea    0x135ba(%rip),%rax        # 263e8 <g_1404>
   12e2e:	48 89 85 30 f6 ff ff 	mov    %rax,-0x9d0(%rbp)
   12e35:	48 8d 05 ac 35 01 00 	lea    0x135ac(%rip),%rax        # 263e8 <g_1404>
   12e3c:	48 89 85 38 f6 ff ff 	mov    %rax,-0x9c8(%rbp)
   12e43:	48 8d 05 9e 35 01 00 	lea    0x1359e(%rip),%rax        # 263e8 <g_1404>
   12e4a:	48 89 85 40 f6 ff ff 	mov    %rax,-0x9c0(%rbp)
   12e51:	48 8d 85 98 e0 ff ff 	lea    -0x1f68(%rbp),%rax
   12e58:	48 89 85 48 f6 ff ff 	mov    %rax,-0x9b8(%rbp)
   12e5f:	48 8d 85 98 e0 ff ff 	lea    -0x1f68(%rbp),%rax
   12e66:	48 89 85 50 f6 ff ff 	mov    %rax,-0x9b0(%rbp)
   12e6d:	48 8d 05 74 35 01 00 	lea    0x13574(%rip),%rax        # 263e8 <g_1404>
   12e74:	48 89 85 58 f6 ff ff 	mov    %rax,-0x9a8(%rbp)
   12e7b:	48 8d 85 98 e0 ff ff 	lea    -0x1f68(%rbp),%rax
   12e82:	48 89 85 60 f6 ff ff 	mov    %rax,-0x9a0(%rbp)
   12e89:	48 8d 85 98 e0 ff ff 	lea    -0x1f68(%rbp),%rax
   12e90:	48 89 85 68 f6 ff ff 	mov    %rax,-0x998(%rbp)
   12e97:	48 8d 05 4a 35 01 00 	lea    0x1354a(%rip),%rax        # 263e8 <g_1404>
   12e9e:	48 89 85 70 f6 ff ff 	mov    %rax,-0x990(%rbp)
   12ea5:	48 8d 85 98 e0 ff ff 	lea    -0x1f68(%rbp),%rax
   12eac:	48 89 85 78 f6 ff ff 	mov    %rax,-0x988(%rbp)
   12eb3:	48 8d 85 98 e0 ff ff 	lea    -0x1f68(%rbp),%rax
   12eba:	48 89 85 80 f6 ff ff 	mov    %rax,-0x980(%rbp)
   12ec1:	48 8d 05 20 35 01 00 	lea    0x13520(%rip),%rax        # 263e8 <g_1404>
   12ec8:	48 89 85 88 f6 ff ff 	mov    %rax,-0x978(%rbp)
   12ecf:	48 8d 85 98 e0 ff ff 	lea    -0x1f68(%rbp),%rax
   12ed6:	48 89 85 90 f6 ff ff 	mov    %rax,-0x970(%rbp)
   12edd:	48 8d 85 98 e0 ff ff 	lea    -0x1f68(%rbp),%rax
   12ee4:	48 89 85 98 f6 ff ff 	mov    %rax,-0x968(%rbp)
   12eeb:	48 8d 05 f6 34 01 00 	lea    0x134f6(%rip),%rax        # 263e8 <g_1404>
   12ef2:	48 89 85 a0 f6 ff ff 	mov    %rax,-0x960(%rbp)
   12ef9:	48 8d 05 e8 34 01 00 	lea    0x134e8(%rip),%rax        # 263e8 <g_1404>
   12f00:	48 89 85 a8 f6 ff ff 	mov    %rax,-0x958(%rbp)
   12f07:	48 8d 05 da 34 01 00 	lea    0x134da(%rip),%rax        # 263e8 <g_1404>
   12f0e:	48 89 85 b0 f6 ff ff 	mov    %rax,-0x950(%rbp)
   12f15:	48 8d 05 cc 34 01 00 	lea    0x134cc(%rip),%rax        # 263e8 <g_1404>
   12f1c:	48 89 85 b8 f6 ff ff 	mov    %rax,-0x948(%rbp)
   12f23:	48 c7 85 c0 f6 ff ff 	movq   $0x0,-0x940(%rbp)
   12f2a:	00 00 00 00 
   12f2e:	48 c7 85 c8 f6 ff ff 	movq   $0x0,-0x938(%rbp)
   12f35:	00 00 00 00 
   12f39:	48 8d 05 a8 34 01 00 	lea    0x134a8(%rip),%rax        # 263e8 <g_1404>
   12f40:	48 89 85 d0 f6 ff ff 	mov    %rax,-0x930(%rbp)
   12f47:	48 8d 85 98 e0 ff ff 	lea    -0x1f68(%rbp),%rax
   12f4e:	48 89 85 d8 f6 ff ff 	mov    %rax,-0x928(%rbp)
   12f55:	48 8d 05 8c 34 01 00 	lea    0x1348c(%rip),%rax        # 263e8 <g_1404>
   12f5c:	48 89 85 e0 f6 ff ff 	mov    %rax,-0x920(%rbp)
   12f63:	48 8d 05 7e 34 01 00 	lea    0x1347e(%rip),%rax        # 263e8 <g_1404>
   12f6a:	48 89 85 e8 f6 ff ff 	mov    %rax,-0x918(%rbp)
   12f71:	48 8d 85 98 e0 ff ff 	lea    -0x1f68(%rbp),%rax
   12f78:	48 89 85 f0 f6 ff ff 	mov    %rax,-0x910(%rbp)
   12f7f:	48 8d 05 62 34 01 00 	lea    0x13462(%rip),%rax        # 263e8 <g_1404>
   12f86:	48 89 85 f8 f6 ff ff 	mov    %rax,-0x908(%rbp)
   12f8d:	48 8d 05 54 34 01 00 	lea    0x13454(%rip),%rax        # 263e8 <g_1404>
   12f94:	48 89 85 00 f7 ff ff 	mov    %rax,-0x900(%rbp)
   12f9b:	48 8d 05 46 34 01 00 	lea    0x13446(%rip),%rax        # 263e8 <g_1404>
   12fa2:	48 89 85 08 f7 ff ff 	mov    %rax,-0x8f8(%rbp)
   12fa9:	48 8d 85 98 e0 ff ff 	lea    -0x1f68(%rbp),%rax
   12fb0:	48 89 85 10 f7 ff ff 	mov    %rax,-0x8f0(%rbp)
   12fb7:	48 8d 05 2a 34 01 00 	lea    0x1342a(%rip),%rax        # 263e8 <g_1404>
   12fbe:	48 89 85 18 f7 ff ff 	mov    %rax,-0x8e8(%rbp)
   12fc5:	48 8d 05 1c 34 01 00 	lea    0x1341c(%rip),%rax        # 263e8 <g_1404>
   12fcc:	48 89 85 20 f7 ff ff 	mov    %rax,-0x8e0(%rbp)
   12fd3:	48 8d 85 98 e0 ff ff 	lea    -0x1f68(%rbp),%rax
   12fda:	48 89 85 28 f7 ff ff 	mov    %rax,-0x8d8(%rbp)
   12fe1:	48 8d 05 00 34 01 00 	lea    0x13400(%rip),%rax        # 263e8 <g_1404>
   12fe8:	48 89 85 30 f7 ff ff 	mov    %rax,-0x8d0(%rbp)
   12fef:	48 c7 85 38 f7 ff ff 	movq   $0x0,-0x8c8(%rbp)
   12ff6:	00 00 00 00 
   12ffa:	48 c7 85 40 f7 ff ff 	movq   $0x0,-0x8c0(%rbp)
   13001:	00 00 00 00 
   13005:	48 8d 05 dc 33 01 00 	lea    0x133dc(%rip),%rax        # 263e8 <g_1404>
   1300c:	48 89 85 48 f7 ff ff 	mov    %rax,-0x8b8(%rbp)
   13013:	48 c7 85 50 f7 ff ff 	movq   $0x0,-0x8b0(%rbp)
   1301a:	00 00 00 00 
   1301e:	48 c7 85 58 f7 ff ff 	movq   $0x0,-0x8a8(%rbp)
   13025:	00 00 00 00 
   13029:	48 8d 05 b8 33 01 00 	lea    0x133b8(%rip),%rax        # 263e8 <g_1404>
   13030:	48 89 85 60 f7 ff ff 	mov    %rax,-0x8a0(%rbp)
   13037:	48 8d 85 98 e0 ff ff 	lea    -0x1f68(%rbp),%rax
   1303e:	48 89 85 68 f7 ff ff 	mov    %rax,-0x898(%rbp)
   13045:	48 8d 05 9c 33 01 00 	lea    0x1339c(%rip),%rax        # 263e8 <g_1404>
   1304c:	48 89 85 70 f7 ff ff 	mov    %rax,-0x890(%rbp)
   13053:	48 8d 05 8e 33 01 00 	lea    0x1338e(%rip),%rax        # 263e8 <g_1404>
   1305a:	48 89 85 78 f7 ff ff 	mov    %rax,-0x888(%rbp)
   13061:	48 8d 85 98 e0 ff ff 	lea    -0x1f68(%rbp),%rax
   13068:	48 89 85 80 f7 ff ff 	mov    %rax,-0x880(%rbp)
   1306f:	48 8d 05 72 33 01 00 	lea    0x13372(%rip),%rax        # 263e8 <g_1404>
   13076:	48 89 85 88 f7 ff ff 	mov    %rax,-0x878(%rbp)
   1307d:	48 8d 05 64 33 01 00 	lea    0x13364(%rip),%rax        # 263e8 <g_1404>
   13084:	48 89 85 90 f7 ff ff 	mov    %rax,-0x870(%rbp)
   1308b:	48 8d 05 56 33 01 00 	lea    0x13356(%rip),%rax        # 263e8 <g_1404>
   13092:	48 89 85 98 f7 ff ff 	mov    %rax,-0x868(%rbp)
   13099:	48 8d 85 98 e0 ff ff 	lea    -0x1f68(%rbp),%rax
   130a0:	48 89 85 a0 f7 ff ff 	mov    %rax,-0x860(%rbp)
   130a7:	48 8d 05 3a 33 01 00 	lea    0x1333a(%rip),%rax        # 263e8 <g_1404>
   130ae:	48 89 85 a8 f7 ff ff 	mov    %rax,-0x858(%rbp)
   130b5:	48 8d 05 2c 33 01 00 	lea    0x1332c(%rip),%rax        # 263e8 <g_1404>
   130bc:	48 89 85 b0 f7 ff ff 	mov    %rax,-0x850(%rbp)
   130c3:	48 8d 85 98 e0 ff ff 	lea    -0x1f68(%rbp),%rax
   130ca:	48 89 85 b8 f7 ff ff 	mov    %rax,-0x848(%rbp)
   130d1:	48 8d 05 10 33 01 00 	lea    0x13310(%rip),%rax        # 263e8 <g_1404>
   130d8:	48 89 85 c0 f7 ff ff 	mov    %rax,-0x840(%rbp)
   130df:	48 c7 85 c8 f7 ff ff 	movq   $0x0,-0x838(%rbp)
   130e6:	00 00 00 00 
   130ea:	48 c7 85 d0 f7 ff ff 	movq   $0x0,-0x830(%rbp)
   130f1:	00 00 00 00 
   130f5:	48 8d 05 ec 32 01 00 	lea    0x132ec(%rip),%rax        # 263e8 <g_1404>
   130fc:	48 89 85 d8 f7 ff ff 	mov    %rax,-0x828(%rbp)
   13103:	48 8d 05 d6 10 01 00 	lea    0x110d6(%rip),%rax        # 241e0 <g_432>
   1310a:	48 89 85 38 e1 ff ff 	mov    %rax,-0x1ec8(%rbp)
   13111:	c7 85 9c df ff ff fd 	movl   $0xfffffffd,-0x2064(%rbp)
   13118:	ff ff ff 
   1311b:	c7 85 ac df ff ff 01 	movl   $0x1,-0x2054(%rbp)
   13122:	00 00 00 
   13125:	48 8d 85 50 e6 ff ff 	lea    -0x19b0(%rbp),%rax
   1312c:	48 8d 15 4d 1e 01 00 	lea    0x11e4d(%rip),%rdx        # 24f80 <g_3583+0xcf0>
   13133:	b9 40 00 00 00       	mov    $0x40,%ecx
   13138:	48 89 c7             	mov    %rax,%rdi
   1313b:	48 89 d6             	mov    %rdx,%rsi
   1313e:	f3 48 a5             	rep movsq %ds:(%rsi),%es:(%rdi)
   13141:	48 8d 85 50 e6 ff ff 	lea    -0x19b0(%rbp),%rax
   13148:	48 05 20 01 00 00    	add    $0x120,%rax
   1314e:	48 89 85 c0 e0 ff ff 	mov    %rax,-0x1f40(%rbp)
   13155:	48 8d 85 50 e6 ff ff 	lea    -0x19b0(%rbp),%rax
   1315c:	48 05 20 01 00 00    	add    $0x120,%rax
   13162:	48 89 85 40 e1 ff ff 	mov    %rax,-0x1ec0(%rbp)
   13169:	48 8d 05 78 32 01 00 	lea    0x13278(%rip),%rax        # 263e8 <g_1404>
   13170:	48 89 85 b0 e4 ff ff 	mov    %rax,-0x1b50(%rbp)
   13177:	48 8d 05 6a 32 01 00 	lea    0x1326a(%rip),%rax        # 263e8 <g_1404>
   1317e:	48 89 85 b8 e4 ff ff 	mov    %rax,-0x1b48(%rbp)
   13185:	48 8d 05 5c 32 01 00 	lea    0x1325c(%rip),%rax        # 263e8 <g_1404>
   1318c:	48 89 85 c0 e4 ff ff 	mov    %rax,-0x1b40(%rbp)
   13193:	48 8d 05 4e 32 01 00 	lea    0x1324e(%rip),%rax        # 263e8 <g_1404>
   1319a:	48 89 85 c8 e4 ff ff 	mov    %rax,-0x1b38(%rbp)
   131a1:	48 8d 05 40 32 01 00 	lea    0x13240(%rip),%rax        # 263e8 <g_1404>
   131a8:	48 89 85 d0 e4 ff ff 	mov    %rax,-0x1b30(%rbp)
   131af:	48 8d 05 32 32 01 00 	lea    0x13232(%rip),%rax        # 263e8 <g_1404>
   131b6:	48 89 85 d8 e4 ff ff 	mov    %rax,-0x1b28(%rbp)
   131bd:	48 8d 05 24 32 01 00 	lea    0x13224(%rip),%rax        # 263e8 <g_1404>
   131c4:	48 89 85 e0 e4 ff ff 	mov    %rax,-0x1b20(%rbp)
   131cb:	48 8d 05 16 32 01 00 	lea    0x13216(%rip),%rax        # 263e8 <g_1404>
   131d2:	48 89 85 e8 e4 ff ff 	mov    %rax,-0x1b18(%rbp)
   131d9:	48 8d 05 08 32 01 00 	lea    0x13208(%rip),%rax        # 263e8 <g_1404>
   131e0:	48 89 85 f0 e4 ff ff 	mov    %rax,-0x1b10(%rbp)
   131e7:	48 b8 32 ce cf 40 e3 	movabs $0x7df0ebe340cfce32,%rax
   131ee:	eb f0 7d 
   131f1:	48 89 85 48 e1 ff ff 	mov    %rax,-0x1eb8(%rbp)
   131f8:	66 c7 85 8e df ff ff 	movw   $0x9895,-0x2072(%rbp)
   131ff:	95 98 
   13201:	c7 85 18 e0 ff ff 51 	movl   $0xc61a2151,-0x1fe8(%rbp)
   13208:	21 1a c6 
   1320b:	c7 85 1c e0 ff ff 09 	movl   $0x9,-0x1fe4(%rbp)
   13212:	00 00 00 
   13215:	48 8d 05 b4 31 01 00 	lea    0x131b4(%rip),%rax        # 263d0 <g_1123>
   1321c:	48 89 85 50 e1 ff ff 	mov    %rax,-0x1eb0(%rbp)
   13223:	c7 85 20 e0 ff ff ff 	movl   $0xffffffff,-0x1fe0(%rbp)
   1322a:	ff ff ff 
   1322d:	c7 85 b0 df ff ff 00 	movl   $0x0,-0x2050(%rbp)
   13234:	00 00 00 
   13237:	eb 1a                	jmp    13253 <func_47+0xb4f>
   13239:	8b 85 b0 df ff ff    	mov    -0x2050(%rbp),%eax
   1323f:	48 98                	cltq   
   13241:	c7 84 85 e4 e3 ff ff 	movl   $0x0,-0x1c1c(%rbp,%rax,4)
   13248:	00 00 00 00 
   1324c:	83 85 b0 df ff ff 01 	addl   $0x1,-0x2050(%rbp)
   13253:	83 bd b0 df ff ff 01 	cmpl   $0x1,-0x2050(%rbp)
   1325a:	7e dd                	jle    13239 <func_47+0xb35>
   1325c:	c7 85 b0 df ff ff 00 	movl   $0x0,-0x2050(%rbp)
   13263:	00 00 00 
   13266:	eb 22                	jmp    1328a <func_47+0xb86>
   13268:	8b 85 b0 df ff ff    	mov    -0x2050(%rbp),%eax
   1326e:	48 98                	cltq   
   13270:	48 8d 95 b0 e4 ff ff 	lea    -0x1b50(%rbp),%rdx
   13277:	48 83 c2 38          	add    $0x38,%rdx
   1327b:	48 89 94 c5 00 e5 ff 	mov    %rdx,-0x1b00(%rbp,%rax,8)
   13282:	ff 
   13283:	83 85 b0 df ff ff 01 	addl   $0x1,-0x2050(%rbp)
   1328a:	83 bd b0 df ff ff 09 	cmpl   $0x9,-0x2050(%rbp)
   13291:	7e d5                	jle    13268 <func_47+0xb64>
   13293:	c7 85 b0 df ff ff 00 	movl   $0x0,-0x2050(%rbp)
   1329a:	00 00 00 
   1329d:	eb 1b                	jmp    132ba <func_47+0xbb6>
   1329f:	8b 85 b0 df ff ff    	mov    -0x2050(%rbp),%eax
   132a5:	48 98                	cltq   
   132a7:	48 c7 84 c5 50 e4 ff 	movq   $0x1,-0x1bb0(%rbp,%rax,8)
   132ae:	ff 01 00 00 00 
   132b3:	83 85 b0 df ff ff 01 	addl   $0x1,-0x2050(%rbp)
   132ba:	83 bd b0 df ff ff 05 	cmpl   $0x5,-0x2050(%rbp)
   132c1:	7e dc                	jle    1329f <func_47+0xb9b>
   132c3:	c6 05 23 0f 01 00 00 	movb   $0x0,0x10f23(%rip)        # 241ed <g_867>
   132ca:	e9 d6 2f 00 00       	jmpq   162a5 <func_47+0x3ba1>
   132cf:	48 8d 05 c8 0d 01 00 	lea    0x10dc8(%rip),%rax        # 2409e <g_116>
   132d6:	48 89 85 58 e2 ff ff 	mov    %rax,-0x1da8(%rbp)
   132dd:	c7 85 a0 df ff ff 01 	movl   $0x1,-0x2060(%rbp)
   132e4:	00 00 00 
   132e7:	48 8d 05 d6 0e 01 00 	lea    0x10ed6(%rip),%rax        # 241c4 <g_373>
   132ee:	48 89 85 60 e2 ff ff 	mov    %rax,-0x1da0(%rbp)
   132f5:	66 c7 85 8c df ff ff 	movw   $0x859,-0x2074(%rbp)
   132fc:	59 08 
   132fe:	48 8d 85 a0 e0 ff ff 	lea    -0x1f60(%rbp),%rax
   13305:	48 89 85 e0 e0 ff ff 	mov    %rax,-0x1f20(%rbp)
   1330c:	c7 85 a4 df ff ff ff 	movl   $0xffffffff,-0x205c(%rbp)
   13313:	ff ff ff 
   13316:	c7 85 00 e4 ff ff ea 	movl   $0xb71dabea,-0x1c00(%rbp)
   1331d:	ab 1d b7 
   13320:	c7 85 04 e4 ff ff ea 	movl   $0xb71dabea,-0x1bfc(%rbp)
   13327:	ab 1d b7 
   1332a:	c7 85 08 e4 ff ff ea 	movl   $0xb71dabea,-0x1bf8(%rbp)
   13331:	ab 1d b7 
   13334:	c7 85 0c e4 ff ff ea 	movl   $0xb71dabea,-0x1bf4(%rbp)
   1333b:	ab 1d b7 
   1333e:	c7 85 b4 df ff ff ff 	movl   $0xffffffff,-0x204c(%rbp)
   13345:	ff ff ff 
   13348:	48 8d 85 e0 e0 ff ff 	lea    -0x1f20(%rbp),%rax
   1334f:	48 89 85 e0 f7 ff ff 	mov    %rax,-0x820(%rbp)
   13356:	48 8d 85 e0 e0 ff ff 	lea    -0x1f20(%rbp),%rax
   1335d:	48 89 85 e8 f7 ff ff 	mov    %rax,-0x818(%rbp)
   13364:	48 8d 85 e0 e0 ff ff 	lea    -0x1f20(%rbp),%rax
   1336b:	48 89 85 f0 f7 ff ff 	mov    %rax,-0x810(%rbp)
   13372:	48 8d 85 e0 e0 ff ff 	lea    -0x1f20(%rbp),%rax
   13379:	48 89 85 f8 f7 ff ff 	mov    %rax,-0x808(%rbp)
   13380:	48 8d 85 e0 e0 ff ff 	lea    -0x1f20(%rbp),%rax
   13387:	48 89 85 00 f8 ff ff 	mov    %rax,-0x800(%rbp)
   1338e:	48 c7 85 08 f8 ff ff 	movq   $0x0,-0x7f8(%rbp)
   13395:	00 00 00 00 
   13399:	48 8d 85 a8 e0 ff ff 	lea    -0x1f58(%rbp),%rax
   133a0:	48 89 85 10 f8 ff ff 	mov    %rax,-0x7f0(%rbp)
   133a7:	48 8d 85 a8 e0 ff ff 	lea    -0x1f58(%rbp),%rax
   133ae:	48 89 85 18 f8 ff ff 	mov    %rax,-0x7e8(%rbp)
   133b5:	48 c7 85 20 f8 ff ff 	movq   $0x0,-0x7e0(%rbp)
   133bc:	00 00 00 00 
   133c0:	48 8d 85 a8 e0 ff ff 	lea    -0x1f58(%rbp),%rax
   133c7:	48 89 85 28 f8 ff ff 	mov    %rax,-0x7d8(%rbp)
   133ce:	48 8d 85 a8 e0 ff ff 	lea    -0x1f58(%rbp),%rax
   133d5:	48 89 85 30 f8 ff ff 	mov    %rax,-0x7d0(%rbp)
   133dc:	48 8d 85 a8 e0 ff ff 	lea    -0x1f58(%rbp),%rax
   133e3:	48 89 85 38 f8 ff ff 	mov    %rax,-0x7c8(%rbp)
   133ea:	48 8d 85 a8 e0 ff ff 	lea    -0x1f58(%rbp),%rax
   133f1:	48 89 85 40 f8 ff ff 	mov    %rax,-0x7c0(%rbp)
   133f8:	48 8d 85 a8 e0 ff ff 	lea    -0x1f58(%rbp),%rax
   133ff:	48 89 85 48 f8 ff ff 	mov    %rax,-0x7b8(%rbp)
   13406:	48 c7 85 50 f8 ff ff 	movq   $0x0,-0x7b0(%rbp)
   1340d:	00 00 00 00 
   13411:	48 8d 85 e0 e0 ff ff 	lea    -0x1f20(%rbp),%rax
   13418:	48 89 85 58 f8 ff ff 	mov    %rax,-0x7a8(%rbp)
   1341f:	48 8d 85 a8 e0 ff ff 	lea    -0x1f58(%rbp),%rax
   13426:	48 89 85 60 f8 ff ff 	mov    %rax,-0x7a0(%rbp)
   1342d:	48 8d 85 a8 e0 ff ff 	lea    -0x1f58(%rbp),%rax
   13434:	48 89 85 68 f8 ff ff 	mov    %rax,-0x798(%rbp)
   1343b:	48 8d 85 e0 e0 ff ff 	lea    -0x1f20(%rbp),%rax
   13442:	48 89 85 70 f8 ff ff 	mov    %rax,-0x790(%rbp)
   13449:	48 8d 85 e0 e0 ff ff 	lea    -0x1f20(%rbp),%rax
   13450:	48 89 85 78 f8 ff ff 	mov    %rax,-0x788(%rbp)
   13457:	48 8d 85 a8 e0 ff ff 	lea    -0x1f58(%rbp),%rax
   1345e:	48 89 85 80 f8 ff ff 	mov    %rax,-0x780(%rbp)
   13465:	48 8d 85 a8 e0 ff ff 	lea    -0x1f58(%rbp),%rax
   1346c:	48 89 85 88 f8 ff ff 	mov    %rax,-0x778(%rbp)
   13473:	48 8d 85 a8 e0 ff ff 	lea    -0x1f58(%rbp),%rax
   1347a:	48 89 85 90 f8 ff ff 	mov    %rax,-0x770(%rbp)
   13481:	48 8d 85 a8 e0 ff ff 	lea    -0x1f58(%rbp),%rax
   13488:	48 89 85 98 f8 ff ff 	mov    %rax,-0x768(%rbp)
   1348f:	48 8d 85 a8 e0 ff ff 	lea    -0x1f58(%rbp),%rax
   13496:	48 89 85 a0 f8 ff ff 	mov    %rax,-0x760(%rbp)
   1349d:	48 8d 85 e0 e0 ff ff 	lea    -0x1f20(%rbp),%rax
   134a4:	48 89 85 a8 f8 ff ff 	mov    %rax,-0x758(%rbp)
   134ab:	48 c7 85 b0 f8 ff ff 	movq   $0x0,-0x750(%rbp)
   134b2:	00 00 00 00 
   134b6:	48 8d 85 a8 e0 ff ff 	lea    -0x1f58(%rbp),%rax
   134bd:	48 89 85 b8 f8 ff ff 	mov    %rax,-0x748(%rbp)
   134c4:	48 c7 85 c0 f8 ff ff 	movq   $0x0,-0x740(%rbp)
   134cb:	00 00 00 00 
   134cf:	48 8d 85 e0 e0 ff ff 	lea    -0x1f20(%rbp),%rax
   134d6:	48 89 85 c8 f8 ff ff 	mov    %rax,-0x738(%rbp)
   134dd:	48 8d 85 a8 e0 ff ff 	lea    -0x1f58(%rbp),%rax
   134e4:	48 89 85 d0 f8 ff ff 	mov    %rax,-0x730(%rbp)
   134eb:	48 c7 85 d8 f8 ff ff 	movq   $0x0,-0x728(%rbp)
   134f2:	00 00 00 00 
   134f6:	48 8d 85 e0 e0 ff ff 	lea    -0x1f20(%rbp),%rax
   134fd:	48 89 85 e0 f8 ff ff 	mov    %rax,-0x720(%rbp)
   13504:	48 8d 85 e0 e0 ff ff 	lea    -0x1f20(%rbp),%rax
   1350b:	48 89 85 e8 f8 ff ff 	mov    %rax,-0x718(%rbp)
   13512:	48 8d 85 a8 e0 ff ff 	lea    -0x1f58(%rbp),%rax
   13519:	48 89 85 f0 f8 ff ff 	mov    %rax,-0x710(%rbp)
   13520:	48 8d 85 e0 e0 ff ff 	lea    -0x1f20(%rbp),%rax
   13527:	48 89 85 f8 f8 ff ff 	mov    %rax,-0x708(%rbp)
   1352e:	48 8d 85 e0 e0 ff ff 	lea    -0x1f20(%rbp),%rax
   13535:	48 89 85 00 f9 ff ff 	mov    %rax,-0x700(%rbp)
   1353c:	48 c7 85 08 f9 ff ff 	movq   $0x0,-0x6f8(%rbp)
   13543:	00 00 00 00 
   13547:	48 c7 85 10 f9 ff ff 	movq   $0x0,-0x6f0(%rbp)
   1354e:	00 00 00 00 
   13552:	48 8d 85 a8 e0 ff ff 	lea    -0x1f58(%rbp),%rax
   13559:	48 89 85 18 f9 ff ff 	mov    %rax,-0x6e8(%rbp)
   13560:	48 8d 85 a8 e0 ff ff 	lea    -0x1f58(%rbp),%rax
   13567:	48 89 85 20 f9 ff ff 	mov    %rax,-0x6e0(%rbp)
   1356e:	48 8d 85 a8 e0 ff ff 	lea    -0x1f58(%rbp),%rax
   13575:	48 89 85 28 f9 ff ff 	mov    %rax,-0x6d8(%rbp)
   1357c:	48 8d 85 e0 e0 ff ff 	lea    -0x1f20(%rbp),%rax
   13583:	48 89 85 30 f9 ff ff 	mov    %rax,-0x6d0(%rbp)
   1358a:	48 8d 85 a8 e0 ff ff 	lea    -0x1f58(%rbp),%rax
   13591:	48 89 85 38 f9 ff ff 	mov    %rax,-0x6c8(%rbp)
   13598:	48 8d 85 a8 e0 ff ff 	lea    -0x1f58(%rbp),%rax
   1359f:	48 89 85 40 f9 ff ff 	mov    %rax,-0x6c0(%rbp)
   135a6:	48 c7 85 48 f9 ff ff 	movq   $0x0,-0x6b8(%rbp)
   135ad:	00 00 00 00 
   135b1:	48 8d 85 e0 e0 ff ff 	lea    -0x1f20(%rbp),%rax
   135b8:	48 89 85 50 f9 ff ff 	mov    %rax,-0x6b0(%rbp)
   135bf:	48 8d 85 a8 e0 ff ff 	lea    -0x1f58(%rbp),%rax
   135c6:	48 89 85 58 f9 ff ff 	mov    %rax,-0x6a8(%rbp)
   135cd:	48 8d 85 a8 e0 ff ff 	lea    -0x1f58(%rbp),%rax
   135d4:	48 89 85 60 f9 ff ff 	mov    %rax,-0x6a0(%rbp)
   135db:	48 c7 85 68 f9 ff ff 	movq   $0x0,-0x698(%rbp)
   135e2:	00 00 00 00 
   135e6:	48 c7 85 70 f9 ff ff 	movq   $0x0,-0x690(%rbp)
   135ed:	00 00 00 00 
   135f1:	48 8d 85 a8 e0 ff ff 	lea    -0x1f58(%rbp),%rax
   135f8:	48 89 85 78 f9 ff ff 	mov    %rax,-0x688(%rbp)
   135ff:	48 8d 85 e0 e0 ff ff 	lea    -0x1f20(%rbp),%rax
   13606:	48 89 85 80 f9 ff ff 	mov    %rax,-0x680(%rbp)
   1360d:	48 8d 85 a8 e0 ff ff 	lea    -0x1f58(%rbp),%rax
   13614:	48 89 85 88 f9 ff ff 	mov    %rax,-0x678(%rbp)
   1361b:	48 8d 85 e0 e0 ff ff 	lea    -0x1f20(%rbp),%rax
   13622:	48 89 85 90 f9 ff ff 	mov    %rax,-0x670(%rbp)
   13629:	48 8d 85 e0 e0 ff ff 	lea    -0x1f20(%rbp),%rax
   13630:	48 89 85 98 f9 ff ff 	mov    %rax,-0x668(%rbp)
   13637:	48 c7 85 a0 f9 ff ff 	movq   $0x0,-0x660(%rbp)
   1363e:	00 00 00 00 
   13642:	48 8d 85 a8 e0 ff ff 	lea    -0x1f58(%rbp),%rax
   13649:	48 89 85 a8 f9 ff ff 	mov    %rax,-0x658(%rbp)
   13650:	48 8d 85 e0 e0 ff ff 	lea    -0x1f20(%rbp),%rax
   13657:	48 89 85 b0 f9 ff ff 	mov    %rax,-0x650(%rbp)
   1365e:	48 c7 85 b8 f9 ff ff 	movq   $0x0,-0x648(%rbp)
   13665:	00 00 00 00 
   13669:	48 8d 85 a8 e0 ff ff 	lea    -0x1f58(%rbp),%rax
   13670:	48 89 85 c0 f9 ff ff 	mov    %rax,-0x640(%rbp)
   13677:	48 c7 85 c8 f9 ff ff 	movq   $0x0,-0x638(%rbp)
   1367e:	00 00 00 00 
   13682:	48 8d 85 e0 e0 ff ff 	lea    -0x1f20(%rbp),%rax
   13689:	48 89 85 d0 f9 ff ff 	mov    %rax,-0x630(%rbp)
   13690:	48 8d 85 e0 e0 ff ff 	lea    -0x1f20(%rbp),%rax
   13697:	48 89 85 d8 f9 ff ff 	mov    %rax,-0x628(%rbp)
   1369e:	48 8d 85 e0 e0 ff ff 	lea    -0x1f20(%rbp),%rax
   136a5:	48 89 85 e0 f9 ff ff 	mov    %rax,-0x620(%rbp)
   136ac:	48 8d 85 a8 e0 ff ff 	lea    -0x1f58(%rbp),%rax
   136b3:	48 89 85 e8 f9 ff ff 	mov    %rax,-0x618(%rbp)
   136ba:	48 8d 85 e0 e0 ff ff 	lea    -0x1f20(%rbp),%rax
   136c1:	48 89 85 f0 f9 ff ff 	mov    %rax,-0x610(%rbp)
   136c8:	48 8d 85 a8 e0 ff ff 	lea    -0x1f58(%rbp),%rax
   136cf:	48 89 85 f8 f9 ff ff 	mov    %rax,-0x608(%rbp)
   136d6:	48 8d 85 e0 e0 ff ff 	lea    -0x1f20(%rbp),%rax
   136dd:	48 89 85 00 fa ff ff 	mov    %rax,-0x600(%rbp)
   136e4:	48 c7 85 08 fa ff ff 	movq   $0x0,-0x5f8(%rbp)
   136eb:	00 00 00 00 
   136ef:	48 8d 85 a8 e0 ff ff 	lea    -0x1f58(%rbp),%rax
   136f6:	48 89 85 10 fa ff ff 	mov    %rax,-0x5f0(%rbp)
   136fd:	48 8d 85 e0 e0 ff ff 	lea    -0x1f20(%rbp),%rax
   13704:	48 89 85 18 fa ff ff 	mov    %rax,-0x5e8(%rbp)
   1370b:	48 8d 85 a8 e0 ff ff 	lea    -0x1f58(%rbp),%rax
   13712:	48 89 85 20 fa ff ff 	mov    %rax,-0x5e0(%rbp)
   13719:	48 c7 85 28 fa ff ff 	movq   $0x0,-0x5d8(%rbp)
   13720:	00 00 00 00 
   13724:	48 8d 85 a8 e0 ff ff 	lea    -0x1f58(%rbp),%rax
   1372b:	48 89 85 30 fa ff ff 	mov    %rax,-0x5d0(%rbp)
   13732:	48 8d 85 a8 e0 ff ff 	lea    -0x1f58(%rbp),%rax
   13739:	48 89 85 38 fa ff ff 	mov    %rax,-0x5c8(%rbp)
   13740:	48 8d 85 a8 e0 ff ff 	lea    -0x1f58(%rbp),%rax
   13747:	48 89 85 40 fa ff ff 	mov    %rax,-0x5c0(%rbp)
   1374e:	48 c7 85 48 fa ff ff 	movq   $0x0,-0x5b8(%rbp)
   13755:	00 00 00 00 
   13759:	48 c7 85 50 fa ff ff 	movq   $0x0,-0x5b0(%rbp)
   13760:	00 00 00 00 
   13764:	48 8d 85 e0 e0 ff ff 	lea    -0x1f20(%rbp),%rax
   1376b:	48 89 85 58 fa ff ff 	mov    %rax,-0x5a8(%rbp)
   13772:	48 8d 85 a8 e0 ff ff 	lea    -0x1f58(%rbp),%rax
   13779:	48 89 85 60 fa ff ff 	mov    %rax,-0x5a0(%rbp)
   13780:	48 c7 85 68 fa ff ff 	movq   $0x0,-0x598(%rbp)
   13787:	00 00 00 00 
   1378b:	48 8d 85 a8 e0 ff ff 	lea    -0x1f58(%rbp),%rax
   13792:	48 89 85 70 fa ff ff 	mov    %rax,-0x590(%rbp)
   13799:	48 c7 85 78 fa ff ff 	movq   $0x0,-0x588(%rbp)
   137a0:	00 00 00 00 
   137a4:	48 8d 85 e0 e0 ff ff 	lea    -0x1f20(%rbp),%rax
   137ab:	48 89 85 80 fa ff ff 	mov    %rax,-0x580(%rbp)
   137b2:	48 8d 85 e0 e0 ff ff 	lea    -0x1f20(%rbp),%rax
   137b9:	48 89 85 88 fa ff ff 	mov    %rax,-0x578(%rbp)
   137c0:	48 8d 85 a8 e0 ff ff 	lea    -0x1f58(%rbp),%rax
   137c7:	48 89 85 90 fa ff ff 	mov    %rax,-0x570(%rbp)
   137ce:	48 8d 85 a8 e0 ff ff 	lea    -0x1f58(%rbp),%rax
   137d5:	48 89 85 98 fa ff ff 	mov    %rax,-0x568(%rbp)
   137dc:	48 8d 85 e0 e0 ff ff 	lea    -0x1f20(%rbp),%rax
   137e3:	48 89 85 a0 fa ff ff 	mov    %rax,-0x560(%rbp)
   137ea:	48 8d 85 e0 e0 ff ff 	lea    -0x1f20(%rbp),%rax
   137f1:	48 89 85 a8 fa ff ff 	mov    %rax,-0x558(%rbp)
   137f8:	48 c7 85 b0 fa ff ff 	movq   $0x0,-0x550(%rbp)
   137ff:	00 00 00 00 
   13803:	48 c7 85 b8 fa ff ff 	movq   $0x0,-0x548(%rbp)
   1380a:	00 00 00 00 
   1380e:	48 8d 85 e0 e0 ff ff 	lea    -0x1f20(%rbp),%rax
   13815:	48 89 85 c0 fa ff ff 	mov    %rax,-0x540(%rbp)
   1381c:	48 8d 85 a8 e0 ff ff 	lea    -0x1f58(%rbp),%rax
   13823:	48 89 85 c8 fa ff ff 	mov    %rax,-0x538(%rbp)
   1382a:	48 8d 85 e0 e0 ff ff 	lea    -0x1f20(%rbp),%rax
   13831:	48 89 85 d0 fa ff ff 	mov    %rax,-0x530(%rbp)
   13838:	48 c7 85 d8 fa ff ff 	movq   $0x0,-0x528(%rbp)
   1383f:	00 00 00 00 
   13843:	48 8d 85 a8 e0 ff ff 	lea    -0x1f58(%rbp),%rax
   1384a:	48 89 85 e0 fa ff ff 	mov    %rax,-0x520(%rbp)
   13851:	48 8d 85 a8 e0 ff ff 	lea    -0x1f58(%rbp),%rax
   13858:	48 89 85 e8 fa ff ff 	mov    %rax,-0x518(%rbp)
   1385f:	48 8d 85 a8 e0 ff ff 	lea    -0x1f58(%rbp),%rax
   13866:	48 89 85 f0 fa ff ff 	mov    %rax,-0x510(%rbp)
   1386d:	48 8d 85 e0 e0 ff ff 	lea    -0x1f20(%rbp),%rax
   13874:	48 89 85 f8 fa ff ff 	mov    %rax,-0x508(%rbp)
   1387b:	48 8d 85 e0 e0 ff ff 	lea    -0x1f20(%rbp),%rax
   13882:	48 89 85 00 fb ff ff 	mov    %rax,-0x500(%rbp)
   13889:	48 8d 85 a8 e0 ff ff 	lea    -0x1f58(%rbp),%rax
   13890:	48 89 85 08 fb ff ff 	mov    %rax,-0x4f8(%rbp)
   13897:	48 8d 85 e0 e0 ff ff 	lea    -0x1f20(%rbp),%rax
   1389e:	48 89 85 10 fb ff ff 	mov    %rax,-0x4f0(%rbp)
   138a5:	48 8d 85 a8 e0 ff ff 	lea    -0x1f58(%rbp),%rax
   138ac:	48 89 85 18 fb ff ff 	mov    %rax,-0x4e8(%rbp)
   138b3:	48 8d 85 a8 e0 ff ff 	lea    -0x1f58(%rbp),%rax
   138ba:	48 89 85 20 fb ff ff 	mov    %rax,-0x4e0(%rbp)
   138c1:	48 8d 85 a8 e0 ff ff 	lea    -0x1f58(%rbp),%rax
   138c8:	48 89 85 28 fb ff ff 	mov    %rax,-0x4d8(%rbp)
   138cf:	48 c7 85 30 fb ff ff 	movq   $0x0,-0x4d0(%rbp)
   138d6:	00 00 00 00 
   138da:	48 c7 85 38 fb ff ff 	movq   $0x0,-0x4c8(%rbp)
   138e1:	00 00 00 00 
   138e5:	48 8d 85 a8 e0 ff ff 	lea    -0x1f58(%rbp),%rax
   138ec:	48 89 85 40 fb ff ff 	mov    %rax,-0x4c0(%rbp)
   138f3:	48 8d 85 a8 e0 ff ff 	lea    -0x1f58(%rbp),%rax
   138fa:	48 89 85 48 fb ff ff 	mov    %rax,-0x4b8(%rbp)
   13901:	48 8d 85 e0 e0 ff ff 	lea    -0x1f20(%rbp),%rax
   13908:	48 89 85 50 fb ff ff 	mov    %rax,-0x4b0(%rbp)
   1390f:	48 8d 85 a8 e0 ff ff 	lea    -0x1f58(%rbp),%rax
   13916:	48 89 85 58 fb ff ff 	mov    %rax,-0x4a8(%rbp)
   1391d:	48 8d 85 a8 e0 ff ff 	lea    -0x1f58(%rbp),%rax
   13924:	48 89 85 60 fb ff ff 	mov    %rax,-0x4a0(%rbp)
   1392b:	48 8d 85 e0 e0 ff ff 	lea    -0x1f20(%rbp),%rax
   13932:	48 89 85 68 fb ff ff 	mov    %rax,-0x498(%rbp)
   13939:	48 8d 85 a8 e0 ff ff 	lea    -0x1f58(%rbp),%rax
   13940:	48 89 85 70 fb ff ff 	mov    %rax,-0x490(%rbp)
   13947:	48 8d 85 e0 e0 ff ff 	lea    -0x1f20(%rbp),%rax
   1394e:	48 89 85 78 fb ff ff 	mov    %rax,-0x488(%rbp)
   13955:	48 8d 85 a8 e0 ff ff 	lea    -0x1f58(%rbp),%rax
   1395c:	48 89 85 80 fb ff ff 	mov    %rax,-0x480(%rbp)
   13963:	48 c7 85 88 fb ff ff 	movq   $0x0,-0x478(%rbp)
   1396a:	00 00 00 00 
   1396e:	48 8d 85 a8 e0 ff ff 	lea    -0x1f58(%rbp),%rax
   13975:	48 89 85 90 fb ff ff 	mov    %rax,-0x470(%rbp)
   1397c:	48 c7 85 98 fb ff ff 	movq   $0x0,-0x468(%rbp)
   13983:	00 00 00 00 
   13987:	48 8d 85 a8 e0 ff ff 	lea    -0x1f58(%rbp),%rax
   1398e:	48 89 85 a0 fb ff ff 	mov    %rax,-0x460(%rbp)
   13995:	48 8d 85 a8 e0 ff ff 	lea    -0x1f58(%rbp),%rax
   1399c:	48 89 85 a8 fb ff ff 	mov    %rax,-0x458(%rbp)
   139a3:	48 8d 85 a8 e0 ff ff 	lea    -0x1f58(%rbp),%rax
   139aa:	48 89 85 b0 fb ff ff 	mov    %rax,-0x450(%rbp)
   139b1:	48 c7 85 b8 fb ff ff 	movq   $0x0,-0x448(%rbp)
   139b8:	00 00 00 00 
   139bc:	48 8d 85 a8 e0 ff ff 	lea    -0x1f58(%rbp),%rax
   139c3:	48 89 85 c0 fb ff ff 	mov    %rax,-0x440(%rbp)
   139ca:	48 8d 85 a8 e0 ff ff 	lea    -0x1f58(%rbp),%rax
   139d1:	48 89 85 c8 fb ff ff 	mov    %rax,-0x438(%rbp)
   139d8:	48 8d 85 e0 e0 ff ff 	lea    -0x1f20(%rbp),%rax
   139df:	48 89 85 d0 fb ff ff 	mov    %rax,-0x430(%rbp)
   139e6:	48 8d 85 a8 e0 ff ff 	lea    -0x1f58(%rbp),%rax
   139ed:	48 89 85 d8 fb ff ff 	mov    %rax,-0x428(%rbp)
   139f4:	48 8d 85 a8 e0 ff ff 	lea    -0x1f58(%rbp),%rax
   139fb:	48 89 85 e0 fb ff ff 	mov    %rax,-0x420(%rbp)
   13a02:	48 8d 85 e0 e0 ff ff 	lea    -0x1f20(%rbp),%rax
   13a09:	48 89 85 e8 fb ff ff 	mov    %rax,-0x418(%rbp)
   13a10:	48 8d 85 a8 e0 ff ff 	lea    -0x1f58(%rbp),%rax
   13a17:	48 89 85 f0 fb ff ff 	mov    %rax,-0x410(%rbp)
   13a1e:	48 c7 85 f8 fb ff ff 	movq   $0x0,-0x408(%rbp)
   13a25:	00 00 00 00 
   13a29:	48 8d 85 e0 e0 ff ff 	lea    -0x1f20(%rbp),%rax
   13a30:	48 89 85 00 fc ff ff 	mov    %rax,-0x400(%rbp)
   13a37:	48 8d 85 e0 e0 ff ff 	lea    -0x1f20(%rbp),%rax
   13a3e:	48 89 85 08 fc ff ff 	mov    %rax,-0x3f8(%rbp)
   13a45:	48 c7 85 10 fc ff ff 	movq   $0x0,-0x3f0(%rbp)
   13a4c:	00 00 00 00 
   13a50:	48 8d 85 e0 e0 ff ff 	lea    -0x1f20(%rbp),%rax
   13a57:	48 89 85 18 fc ff ff 	mov    %rax,-0x3e8(%rbp)
   13a5e:	48 8d 85 a8 e0 ff ff 	lea    -0x1f58(%rbp),%rax
   13a65:	48 89 85 20 fc ff ff 	mov    %rax,-0x3e0(%rbp)
   13a6c:	48 8d 85 e0 e0 ff ff 	lea    -0x1f20(%rbp),%rax
   13a73:	48 89 85 28 fc ff ff 	mov    %rax,-0x3d8(%rbp)
   13a7a:	48 c7 85 30 fc ff ff 	movq   $0x0,-0x3d0(%rbp)
   13a81:	00 00 00 00 
   13a85:	48 8d 85 a8 e0 ff ff 	lea    -0x1f58(%rbp),%rax
   13a8c:	48 89 85 38 fc ff ff 	mov    %rax,-0x3c8(%rbp)
   13a93:	48 8d 85 e0 e0 ff ff 	lea    -0x1f20(%rbp),%rax
   13a9a:	48 89 85 40 fc ff ff 	mov    %rax,-0x3c0(%rbp)
   13aa1:	48 8d 85 e0 e0 ff ff 	lea    -0x1f20(%rbp),%rax
   13aa8:	48 89 85 48 fc ff ff 	mov    %rax,-0x3b8(%rbp)
   13aaf:	48 c7 85 50 fc ff ff 	movq   $0x0,-0x3b0(%rbp)
   13ab6:	00 00 00 00 
   13aba:	48 8d 85 a8 e0 ff ff 	lea    -0x1f58(%rbp),%rax
   13ac1:	48 89 85 58 fc ff ff 	mov    %rax,-0x3a8(%rbp)
   13ac8:	48 8d 85 a8 e0 ff ff 	lea    -0x1f58(%rbp),%rax
   13acf:	48 89 85 60 fc ff ff 	mov    %rax,-0x3a0(%rbp)
   13ad6:	48 8d 85 a8 e0 ff ff 	lea    -0x1f58(%rbp),%rax
   13add:	48 89 85 68 fc ff ff 	mov    %rax,-0x398(%rbp)
   13ae4:	48 8d 85 e0 e0 ff ff 	lea    -0x1f20(%rbp),%rax
   13aeb:	48 89 85 70 fc ff ff 	mov    %rax,-0x390(%rbp)
   13af2:	48 c7 85 78 fc ff ff 	movq   $0x0,-0x388(%rbp)
   13af9:	00 00 00 00 
   13afd:	48 8d 85 e0 e0 ff ff 	lea    -0x1f20(%rbp),%rax
   13b04:	48 89 85 80 fc ff ff 	mov    %rax,-0x380(%rbp)
   13b0b:	48 8d 85 e0 e0 ff ff 	lea    -0x1f20(%rbp),%rax
   13b12:	48 89 85 88 fc ff ff 	mov    %rax,-0x378(%rbp)
   13b19:	48 8d 85 a8 e0 ff ff 	lea    -0x1f58(%rbp),%rax
   13b20:	48 89 85 90 fc ff ff 	mov    %rax,-0x370(%rbp)
   13b27:	48 8d 85 a8 e0 ff ff 	lea    -0x1f58(%rbp),%rax
   13b2e:	48 89 85 98 fc ff ff 	mov    %rax,-0x368(%rbp)
   13b35:	48 c7 85 a0 fc ff ff 	movq   $0x0,-0x360(%rbp)
   13b3c:	00 00 00 00 
   13b40:	48 8d 85 e0 e0 ff ff 	lea    -0x1f20(%rbp),%rax
   13b47:	48 89 85 a8 fc ff ff 	mov    %rax,-0x358(%rbp)
   13b4e:	48 8d 85 e0 e0 ff ff 	lea    -0x1f20(%rbp),%rax
   13b55:	48 89 85 b0 fc ff ff 	mov    %rax,-0x350(%rbp)
   13b5c:	48 8d 85 a8 e0 ff ff 	lea    -0x1f58(%rbp),%rax
   13b63:	48 89 85 b8 fc ff ff 	mov    %rax,-0x348(%rbp)
   13b6a:	48 c7 85 c0 fc ff ff 	movq   $0x0,-0x340(%rbp)
   13b71:	00 00 00 00 
   13b75:	48 c7 85 c8 fc ff ff 	movq   $0x0,-0x338(%rbp)
   13b7c:	00 00 00 00 
   13b80:	48 8d 85 e0 e0 ff ff 	lea    -0x1f20(%rbp),%rax
   13b87:	48 89 85 d0 fc ff ff 	mov    %rax,-0x330(%rbp)
   13b8e:	48 8d 85 e0 e0 ff ff 	lea    -0x1f20(%rbp),%rax
   13b95:	48 89 85 d8 fc ff ff 	mov    %rax,-0x328(%rbp)
   13b9c:	48 8d 85 e0 e0 ff ff 	lea    -0x1f20(%rbp),%rax
   13ba3:	48 89 85 e0 fc ff ff 	mov    %rax,-0x320(%rbp)
   13baa:	48 8d 85 e0 e0 ff ff 	lea    -0x1f20(%rbp),%rax
   13bb1:	48 89 85 e8 fc ff ff 	mov    %rax,-0x318(%rbp)
   13bb8:	48 8d 85 e0 e0 ff ff 	lea    -0x1f20(%rbp),%rax
   13bbf:	48 89 85 f0 fc ff ff 	mov    %rax,-0x310(%rbp)
   13bc6:	48 8d 85 e0 e0 ff ff 	lea    -0x1f20(%rbp),%rax
   13bcd:	48 89 85 f8 fc ff ff 	mov    %rax,-0x308(%rbp)
   13bd4:	48 c7 85 00 fd ff ff 	movq   $0x0,-0x300(%rbp)
   13bdb:	00 00 00 00 
   13bdf:	48 8d 85 e0 e0 ff ff 	lea    -0x1f20(%rbp),%rax
   13be6:	48 89 85 08 fd ff ff 	mov    %rax,-0x2f8(%rbp)
   13bed:	48 8d 85 a8 e0 ff ff 	lea    -0x1f58(%rbp),%rax
   13bf4:	48 89 85 10 fd ff ff 	mov    %rax,-0x2f0(%rbp)
   13bfb:	48 8d 85 e0 e0 ff ff 	lea    -0x1f20(%rbp),%rax
   13c02:	48 89 85 18 fd ff ff 	mov    %rax,-0x2e8(%rbp)
   13c09:	48 8d 85 e0 e0 ff ff 	lea    -0x1f20(%rbp),%rax
   13c10:	48 89 85 20 fd ff ff 	mov    %rax,-0x2e0(%rbp)
   13c17:	48 8d 85 e0 e0 ff ff 	lea    -0x1f20(%rbp),%rax
   13c1e:	48 89 85 28 fd ff ff 	mov    %rax,-0x2d8(%rbp)
   13c25:	48 8d 85 a8 e0 ff ff 	lea    -0x1f58(%rbp),%rax
   13c2c:	48 89 85 30 fd ff ff 	mov    %rax,-0x2d0(%rbp)
   13c33:	48 c7 85 38 fd ff ff 	movq   $0x0,-0x2c8(%rbp)
   13c3a:	00 00 00 00 
   13c3e:	48 8d 85 a8 e0 ff ff 	lea    -0x1f58(%rbp),%rax
   13c45:	48 89 85 40 fd ff ff 	mov    %rax,-0x2c0(%rbp)
   13c4c:	48 8d 85 e0 e0 ff ff 	lea    -0x1f20(%rbp),%rax
   13c53:	48 89 85 48 fd ff ff 	mov    %rax,-0x2b8(%rbp)
   13c5a:	48 8d 85 a8 e0 ff ff 	lea    -0x1f58(%rbp),%rax
   13c61:	48 89 85 50 fd ff ff 	mov    %rax,-0x2b0(%rbp)
   13c68:	48 c7 85 58 fd ff ff 	movq   $0x0,-0x2a8(%rbp)
   13c6f:	00 00 00 00 
   13c73:	48 c7 85 60 fd ff ff 	movq   $0x0,-0x2a0(%rbp)
   13c7a:	00 00 00 00 
   13c7e:	48 c7 85 68 fd ff ff 	movq   $0x0,-0x298(%rbp)
   13c85:	00 00 00 00 
   13c89:	48 8d 85 a8 e0 ff ff 	lea    -0x1f58(%rbp),%rax
   13c90:	48 89 85 70 fd ff ff 	mov    %rax,-0x290(%rbp)
   13c97:	48 8d 85 e0 e0 ff ff 	lea    -0x1f20(%rbp),%rax
   13c9e:	48 89 85 78 fd ff ff 	mov    %rax,-0x288(%rbp)
   13ca5:	48 8d 85 a8 e0 ff ff 	lea    -0x1f58(%rbp),%rax
   13cac:	48 89 85 80 fd ff ff 	mov    %rax,-0x280(%rbp)
   13cb3:	48 8d 85 e0 e0 ff ff 	lea    -0x1f20(%rbp),%rax
   13cba:	48 89 85 88 fd ff ff 	mov    %rax,-0x278(%rbp)
   13cc1:	48 8d 85 e0 e0 ff ff 	lea    -0x1f20(%rbp),%rax
   13cc8:	48 89 85 90 fd ff ff 	mov    %rax,-0x270(%rbp)
   13ccf:	48 8d 85 a8 e0 ff ff 	lea    -0x1f58(%rbp),%rax
   13cd6:	48 89 85 98 fd ff ff 	mov    %rax,-0x268(%rbp)
   13cdd:	48 8d 85 a8 e0 ff ff 	lea    -0x1f58(%rbp),%rax
   13ce4:	48 89 85 a0 fd ff ff 	mov    %rax,-0x260(%rbp)
   13ceb:	48 8d 85 a8 e0 ff ff 	lea    -0x1f58(%rbp),%rax
   13cf2:	48 89 85 a8 fd ff ff 	mov    %rax,-0x258(%rbp)
   13cf9:	48 8d 85 a8 e0 ff ff 	lea    -0x1f58(%rbp),%rax
   13d00:	48 89 85 b0 fd ff ff 	mov    %rax,-0x250(%rbp)
   13d07:	48 c7 85 b8 fd ff ff 	movq   $0x0,-0x248(%rbp)
   13d0e:	00 00 00 00 
   13d12:	48 c7 85 c0 fd ff ff 	movq   $0x0,-0x240(%rbp)
   13d19:	00 00 00 00 
   13d1d:	48 8d 85 a8 e0 ff ff 	lea    -0x1f58(%rbp),%rax
   13d24:	48 89 85 c8 fd ff ff 	mov    %rax,-0x238(%rbp)
   13d2b:	48 8d 85 e0 e0 ff ff 	lea    -0x1f20(%rbp),%rax
   13d32:	48 89 85 d0 fd ff ff 	mov    %rax,-0x230(%rbp)
   13d39:	48 8d 85 e0 e0 ff ff 	lea    -0x1f20(%rbp),%rax
   13d40:	48 89 85 d8 fd ff ff 	mov    %rax,-0x228(%rbp)
   13d47:	48 8d 85 e0 e0 ff ff 	lea    -0x1f20(%rbp),%rax
   13d4e:	48 89 85 e0 fd ff ff 	mov    %rax,-0x220(%rbp)
   13d55:	48 8d 85 a8 e0 ff ff 	lea    -0x1f58(%rbp),%rax
   13d5c:	48 89 85 e8 fd ff ff 	mov    %rax,-0x218(%rbp)
   13d63:	48 8d 85 e0 e0 ff ff 	lea    -0x1f20(%rbp),%rax
   13d6a:	48 89 85 f0 fd ff ff 	mov    %rax,-0x210(%rbp)
   13d71:	48 8d 85 e0 e0 ff ff 	lea    -0x1f20(%rbp),%rax
   13d78:	48 89 85 f8 fd ff ff 	mov    %rax,-0x208(%rbp)
   13d7f:	48 8d 85 e0 e0 ff ff 	lea    -0x1f20(%rbp),%rax
   13d86:	48 89 85 00 fe ff ff 	mov    %rax,-0x200(%rbp)
   13d8d:	48 8d 85 a8 e0 ff ff 	lea    -0x1f58(%rbp),%rax
   13d94:	48 89 85 08 fe ff ff 	mov    %rax,-0x1f8(%rbp)
   13d9b:	48 8d 85 a8 e0 ff ff 	lea    -0x1f58(%rbp),%rax
   13da2:	48 89 85 10 fe ff ff 	mov    %rax,-0x1f0(%rbp)
   13da9:	48 c7 85 18 fe ff ff 	movq   $0x0,-0x1e8(%rbp)
   13db0:	00 00 00 00 
   13db4:	48 8d 85 e0 e0 ff ff 	lea    -0x1f20(%rbp),%rax
   13dbb:	48 89 85 20 fe ff ff 	mov    %rax,-0x1e0(%rbp)
   13dc2:	48 8d 85 a8 e0 ff ff 	lea    -0x1f58(%rbp),%rax
   13dc9:	48 89 85 28 fe ff ff 	mov    %rax,-0x1d8(%rbp)
   13dd0:	48 8d 85 a8 e0 ff ff 	lea    -0x1f58(%rbp),%rax
   13dd7:	48 89 85 30 fe ff ff 	mov    %rax,-0x1d0(%rbp)
   13dde:	48 8d 85 e0 e0 ff ff 	lea    -0x1f20(%rbp),%rax
   13de5:	48 89 85 38 fe ff ff 	mov    %rax,-0x1c8(%rbp)
   13dec:	48 c7 85 40 fe ff ff 	movq   $0x0,-0x1c0(%rbp)
   13df3:	00 00 00 00 
   13df7:	48 8d 85 e0 e0 ff ff 	lea    -0x1f20(%rbp),%rax
   13dfe:	48 89 85 48 fe ff ff 	mov    %rax,-0x1b8(%rbp)
   13e05:	48 c7 85 50 fe ff ff 	movq   $0x0,-0x1b0(%rbp)
   13e0c:	00 00 00 00 
   13e10:	48 8d 85 a8 e0 ff ff 	lea    -0x1f58(%rbp),%rax
   13e17:	48 89 85 58 fe ff ff 	mov    %rax,-0x1a8(%rbp)
   13e1e:	48 8d 85 a8 e0 ff ff 	lea    -0x1f58(%rbp),%rax
   13e25:	48 89 85 60 fe ff ff 	mov    %rax,-0x1a0(%rbp)
   13e2c:	48 c7 85 68 fe ff ff 	movq   $0x0,-0x198(%rbp)
   13e33:	00 00 00 00 
   13e37:	48 8d 05 32 03 01 00 	lea    0x10332(%rip),%rax        # 24170 <g_190+0x10>
   13e3e:	48 89 85 68 e2 ff ff 	mov    %rax,-0x1d98(%rbp)
   13e45:	48 8d 05 a0 03 01 00 	lea    0x103a0(%rip),%rax        # 241ec <g_539>
   13e4c:	48 89 85 70 e2 ff ff 	mov    %rax,-0x1d90(%rbp)
   13e53:	c7 85 b8 df ff ff 00 	movl   $0x0,-0x2048(%rbp)
   13e5a:	00 00 00 
   13e5d:	eb 53                	jmp    13eb2 <func_47+0x17ae>
   13e5f:	c7 85 bc df ff ff 00 	movl   $0x0,-0x2044(%rbp)
   13e66:	00 00 00 
   13e69:	eb 37                	jmp    13ea2 <func_47+0x179e>
   13e6b:	8b 85 bc df ff ff    	mov    -0x2044(%rbp),%eax
   13e71:	48 63 c8             	movslq %eax,%rcx
   13e74:	8b 85 b8 df ff ff    	mov    -0x2048(%rbp),%eax
   13e7a:	48 63 d0             	movslq %eax,%rdx
   13e7d:	48 89 d0             	mov    %rdx,%rax
   13e80:	48 01 c0             	add    %rax,%rax
   13e83:	48 01 d0             	add    %rdx,%rax
   13e86:	48 01 c0             	add    %rax,%rax
   13e89:	48 01 c8             	add    %rcx,%rax
   13e8c:	48 8d 15 0d 02 01 00 	lea    0x1020d(%rip),%rdx        # 240a0 <g_124>
   13e93:	48 89 94 c5 50 e8 ff 	mov    %rdx,-0x17b0(%rbp,%rax,8)
   13e9a:	ff 
   13e9b:	83 85 bc df ff ff 01 	addl   $0x1,-0x2044(%rbp)
   13ea2:	83 bd bc df ff ff 05 	cmpl   $0x5,-0x2044(%rbp)
   13ea9:	7e c0                	jle    13e6b <func_47+0x1767>
   13eab:	83 85 b8 df ff ff 01 	addl   $0x1,-0x2048(%rbp)
   13eb2:	83 bd b8 df ff ff 02 	cmpl   $0x2,-0x2048(%rbp)
   13eb9:	7e a4                	jle    13e5f <func_47+0x175b>
   13ebb:	0f b6 05 2b 03 01 00 	movzbl 0x1032b(%rip),%eax        # 241ed <g_867>
   13ec2:	0f b6 c0             	movzbl %al,%eax
   13ec5:	48 98                	cltq   
   13ec7:	48 8d 14 00          	lea    (%rax,%rax,1),%rdx
   13ecb:	48 8d 05 ce 02 01 00 	lea    0x102ce(%rip),%rax        # 241a0 <g_241>
   13ed2:	0f b7 04 02          	movzwl (%rdx,%rax,1),%eax
   13ed6:	98                   	cwtl   
   13ed7:	be c3 33 ee 96       	mov    $0x96ee33c3,%esi
   13edc:	89 c7                	mov    %eax,%edi
   13ede:	e8 d3 76 ff ff       	callq  b5b6 <safe_add_func_int32_t_s_s>
   13ee3:	8b 85 54 df ff ff    	mov    -0x20ac(%rbp),%eax
   13ee9:	0f bf d8             	movswl %ax,%ebx
   13eec:	0f b7 05 ad 01 01 00 	movzwl 0x101ad(%rip),%eax        # 240a0 <g_124>
   13ef3:	8d 50 ff             	lea    -0x1(%rax),%edx
   13ef6:	66 89 15 a3 01 01 00 	mov    %dx,0x101a3(%rip)        # 240a0 <g_124>
   13efd:	0f b7 d0             	movzwl %ax,%edx
   13f00:	48 8b 85 58 e2 ff ff 	mov    -0x1da8(%rbp),%rax
   13f07:	0f b7 00             	movzwl (%rax),%eax
   13f0a:	8d 48 01             	lea    0x1(%rax),%ecx
   13f0d:	48 8b 85 58 e2 ff ff 	mov    -0x1da8(%rbp),%rax
   13f14:	66 89 08             	mov    %cx,(%rax)
   13f17:	48 8b 85 58 e2 ff ff 	mov    -0x1da8(%rbp),%rax
   13f1e:	0f b7 00             	movzwl (%rax),%eax
   13f21:	0f b7 c0             	movzwl %ax,%eax
   13f24:	89 d6                	mov    %edx,%esi
   13f26:	89 c7                	mov    %eax,%edi
   13f28:	e8 61 7e ff ff       	callq  bd8e <safe_div_func_uint16_t_u_u>
   13f2d:	66 85 c0             	test   %ax,%ax
   13f30:	0f 94 c0             	sete   %al
   13f33:	89 c2                	mov    %eax,%edx
   13f35:	48 8b 85 58 df ff ff 	mov    -0x20a8(%rbp),%rax
   13f3c:	88 10                	mov    %dl,(%rax)
   13f3e:	48 8b 85 58 df ff ff 	mov    -0x20a8(%rbp),%rax
   13f45:	0f b6 00             	movzbl (%rax),%eax
   13f48:	66 44 0f be e8       	movsbw %al,%r13w
   13f4d:	0f b6 05 99 02 01 00 	movzbl 0x10299(%rip),%eax        # 241ed <g_867>
   13f54:	0f b6 c0             	movzbl %al,%eax
   13f57:	48 98                	cltq   
   13f59:	48 8d 14 00          	lea    (%rax,%rax,1),%rdx
   13f5d:	48 8d 05 3c 02 01 00 	lea    0x1023c(%rip),%rax        # 241a0 <g_241>
   13f64:	0f b7 04 02          	movzwl (%rdx,%rax,1),%eax
   13f68:	44 0f bf e0          	movswl %ax,%r12d
   13f6c:	8b 85 a0 df ff ff    	mov    -0x2060(%rbp),%eax
   13f72:	0f bf d0             	movswl %ax,%edx
   13f75:	0f b6 05 71 02 01 00 	movzbl 0x10271(%rip),%eax        # 241ed <g_867>
   13f7c:	0f b6 c0             	movzbl %al,%eax
   13f7f:	48 98                	cltq   
   13f81:	48 8d 0c 00          	lea    (%rax,%rax,1),%rcx
   13f85:	48 8d 05 14 02 01 00 	lea    0x10214(%rip),%rax        # 241a0 <g_241>
   13f8c:	0f b7 04 01          	movzwl (%rcx,%rax,1),%eax
   13f90:	98                   	cwtl   
   13f91:	89 d6                	mov    %edx,%esi
   13f93:	89 c7                	mov    %eax,%edi
   13f95:	e8 7c 74 ff ff       	callq  b416 <safe_mod_func_int16_t_s_s>
   13f9a:	48 8b 05 3f 24 01 00 	mov    0x1243f(%rip),%rax        # 263e0 <g_1329>
   13fa1:	48 85 c0             	test   %rax,%rax
   13fa4:	0f 95 c0             	setne  %al
   13fa7:	0f b6 c0             	movzbl %al,%eax
   13faa:	44 89 e6             	mov    %r12d,%esi
   13fad:	89 c7                	mov    %eax,%edi
   13faf:	e8 76 75 ff ff       	callq  b52a <safe_rshift_func_int16_t_s_s>
   13fb4:	66 85 c0             	test   %ax,%ax
   13fb7:	74 13                	je     13fcc <func_47+0x18c8>
   13fb9:	0f b7 05 f2 01 01 00 	movzwl 0x101f2(%rip),%eax        # 241b2 <g_241+0x12>
   13fc0:	66 85 c0             	test   %ax,%ax
   13fc3:	74 07                	je     13fcc <func_47+0x18c8>
   13fc5:	b8 01 00 00 00       	mov    $0x1,%eax
   13fca:	eb 05                	jmp    13fd1 <func_47+0x18cd>
   13fcc:	b8 00 00 00 00       	mov    $0x0,%eax
   13fd1:	0f bf d0             	movswl %ax,%edx
   13fd4:	8b 85 e4 e3 ff ff    	mov    -0x1c1c(%rbp),%eax
   13fda:	98                   	cwtl   
   13fdb:	89 d6                	mov    %edx,%esi
   13fdd:	89 c7                	mov    %eax,%edi
   13fdf:	e8 11 74 ff ff       	callq  b3f5 <safe_mul_func_int16_t_s_s>
   13fe4:	66 41 39 c5          	cmp    %ax,%r13w
   13fe8:	0f 9e c0             	setle  %al
   13feb:	0f b6 c0             	movzbl %al,%eax
   13fee:	89 de                	mov    %ebx,%esi
   13ff0:	89 c7                	mov    %eax,%edi
   13ff2:	e8 5e 74 ff ff       	callq  b455 <safe_div_func_int16_t_s_s>
   13ff7:	83 f0 01             	xor    $0x1,%eax
   13ffa:	89 c2                	mov    %eax,%edx
   13ffc:	48 8b 85 60 e2 ff ff 	mov    -0x1da0(%rbp),%rax
   14003:	66 89 10             	mov    %dx,(%rax)
   14006:	48 8b 85 60 e2 ff ff 	mov    -0x1da0(%rbp),%rax
   1400d:	0f b7 00             	movzwl (%rax),%eax
   14010:	98                   	cwtl   
   14011:	89 85 e4 e3 ff ff    	mov    %eax,-0x1c1c(%rbp)
   14017:	8b 85 e4 e3 ff ff    	mov    -0x1c1c(%rbp),%eax
   1401d:	0f bf d0             	movswl %ax,%edx
   14020:	0f b6 05 c6 01 01 00 	movzbl 0x101c6(%rip),%eax        # 241ed <g_867>
   14027:	0f b6 c0             	movzbl %al,%eax
   1402a:	48 98                	cltq   
   1402c:	48 8d 0c 00          	lea    (%rax,%rax,1),%rcx
   14030:	48 8d 05 69 01 01 00 	lea    0x10169(%rip),%rax        # 241a0 <g_241>
   14037:	0f b7 04 01          	movzwl (%rcx,%rax,1),%eax
   1403b:	98                   	cwtl   
   1403c:	89 d6                	mov    %edx,%esi
   1403e:	89 c7                	mov    %eax,%edi
   14040:	e8 b0 73 ff ff       	callq  b3f5 <safe_mul_func_int16_t_s_s>
   14045:	66 85 c0             	test   %ax,%ax
   14048:	8b 85 14 e0 ff ff    	mov    -0x1fec(%rbp),%eax
   1404e:	83 f8 01             	cmp    $0x1,%eax
   14051:	0f 97 c0             	seta   %al
   14054:	0f b6 c0             	movzbl %al,%eax
   14057:	39 85 54 df ff ff    	cmp    %eax,-0x20ac(%rbp)
   1405d:	0f 92 c0             	setb   %al
   14060:	0f b6 d0             	movzbl %al,%edx
   14063:	8b 05 4b 01 01 00    	mov    0x1014b(%rip),%eax        # 241b4 <g_248>
   14069:	39 c2                	cmp    %eax,%edx
   1406b:	0f 97 c0             	seta   %al
   1406e:	0f b6 c0             	movzbl %al,%eax
   14071:	be 07 00 00 00       	mov    $0x7,%esi
   14076:	48 89 c7             	mov    %rax,%rdi
   14079:	e8 b0 7f ff ff       	callq  c02e <safe_add_func_uint64_t_u_u>
   1407e:	81 bd 54 df ff ff 27 	cmpl   $0x6127,-0x20ac(%rbp)
   14085:	61 00 00 
   14088:	0f 94 c0             	sete   %al
   1408b:	0f b6 c0             	movzbl %al,%eax
   1408e:	be 00 00 00 00       	mov    $0x0,%esi
   14093:	48 89 c7             	mov    %rax,%rdi
   14096:	e8 b0 7f ff ff       	callq  c04b <safe_sub_func_uint64_t_u_u>
   1409b:	35 48 c6 00 00       	xor    $0xc648,%eax
   140a0:	89 c2                	mov    %eax,%edx
   140a2:	48 8b 05 17 23 01 00 	mov    0x12317(%rip),%rax        # 263c0 <g_1058>
   140a9:	89 10                	mov    %edx,(%rax)
   140ab:	8b 00                	mov    (%rax),%eax
   140ad:	85 c0                	test   %eax,%eax
   140af:	0f 84 b7 00 00 00    	je     1416c <func_47+0x1a68>
   140b5:	c7 85 54 df ff ff 00 	movl   $0x0,-0x20ac(%rbp)
   140bc:	00 00 00 
   140bf:	e9 96 00 00 00       	jmpq   1415a <func_47+0x1a56>
   140c4:	48 8d 05 85 00 01 00 	lea    0x10085(%rip),%rax        # 24150 <g_184>
   140cb:	48 89 85 30 e3 ff ff 	mov    %rax,-0x1cd0(%rbp)
   140d2:	48 8d 05 fb 00 01 00 	lea    0x100fb(%rip),%rax        # 241d4 <g_394>
   140d9:	48 89 85 38 e3 ff ff 	mov    %rax,-0x1cc8(%rbp)
   140e0:	48 8b 85 58 df ff ff 	mov    -0x20a8(%rbp),%rax
   140e7:	0f b6 00             	movzbl (%rax),%eax
   140ea:	0f be d0             	movsbl %al,%edx
   140ed:	48 8b 85 30 e3 ff ff 	mov    -0x1cd0(%rbp),%rax
   140f4:	0f b6 00             	movzbl (%rax),%eax
   140f7:	8d 48 01             	lea    0x1(%rax),%ecx
   140fa:	48 8b 85 30 e3 ff ff 	mov    -0x1cd0(%rbp),%rax
   14101:	88 08                	mov    %cl,(%rax)
   14103:	48 8b 85 30 e3 ff ff 	mov    -0x1cd0(%rbp),%rax
   1410a:	0f b6 00             	movzbl (%rax),%eax
   1410d:	0f b6 c0             	movzbl %al,%eax
   14110:	39 c2                	cmp    %eax,%edx
   14112:	0f 9c c0             	setl   %al
   14115:	0f b6 d0             	movzbl %al,%edx
   14118:	48 8b 85 38 e3 ff ff 	mov    -0x1cc8(%rbp),%rax
   1411f:	89 10                	mov    %edx,(%rax)
   14121:	8b 85 54 df ff ff    	mov    -0x20ac(%rbp),%eax
   14127:	48 8d 14 c5 00 00 00 	lea    0x0(,%rax,8),%rdx
   1412e:	00 
   1412f:	48 8d 05 6a 48 01 00 	lea    0x1486a(%rip),%rax        # 289a0 <g_399>
   14136:	48 8b 04 02          	mov    (%rdx,%rax,1),%rax
   1413a:	8b 95 54 df ff ff    	mov    -0x20ac(%rbp),%edx
   14140:	48 8d 0c d5 00 00 00 	lea    0x0(,%rdx,8),%rcx
   14147:	00 
   14148:	48 8d 15 51 48 01 00 	lea    0x14851(%rip),%rdx        # 289a0 <g_399>
   1414f:	48 89 04 11          	mov    %rax,(%rcx,%rdx,1)
   14153:	83 85 54 df ff ff 01 	addl   $0x1,-0x20ac(%rbp)
   1415a:	83 bd 54 df ff ff 08 	cmpl   $0x8,-0x20ac(%rbp)
   14161:	0f 86 5d ff ff ff    	jbe    140c4 <func_47+0x19c0>
   14167:	e9 e8 0e 00 00       	jmpq   15054 <func_47+0x2950>
   1416c:	48 8d 85 50 e8 ff ff 	lea    -0x17b0(%rbp),%rax
   14173:	48 83 c0 20          	add    $0x20,%rax
   14177:	48 89 85 e8 e0 ff ff 	mov    %rax,-0x1f18(%rbp)
   1417e:	48 8d 85 e8 e0 ff ff 	lea    -0x1f18(%rbp),%rax
   14185:	48 89 85 f0 e0 ff ff 	mov    %rax,-0x1f10(%rbp)
   1418c:	48 8d 85 f0 e0 ff ff 	lea    -0x1f10(%rbp),%rax
   14193:	48 89 85 78 e2 ff ff 	mov    %rax,-0x1d88(%rbp)
   1419a:	c7 85 a8 df ff ff 5d 	movl   $0xa3afff5d,-0x2058(%rbp)
   141a1:	ff af a3 
   141a4:	c7 85 c8 e0 ff ff ff 	movl   $0xffffffff,-0x1f38(%rbp)
   141ab:	ff ff ff 
   141ae:	c7 85 64 e0 ff ff f1 	movl   $0xc3fa66f1,-0x1f9c(%rbp)
   141b5:	66 fa c3 
   141b8:	c7 85 68 e0 ff ff 01 	movl   $0x1,-0x1f98(%rbp)
   141bf:	00 00 00 
   141c2:	48 c7 85 f8 e0 ff ff 	movq   $0x0,-0x1f08(%rbp)
   141c9:	00 00 00 00 
   141cd:	48 8d 85 f8 e0 ff ff 	lea    -0x1f08(%rbp),%rax
   141d4:	48 89 85 80 e2 ff ff 	mov    %rax,-0x1d80(%rbp)
   141db:	66 c7 85 96 df ff ff 	movw   $0xfffd,-0x206a(%rbp)
   141e2:	fd ff 
   141e4:	c7 85 c0 df ff ff 00 	movl   $0x0,-0x2040(%rbp)
   141eb:	00 00 00 
   141ee:	eb 4c                	jmp    1423c <func_47+0x1b38>
   141f0:	c7 85 c4 df ff ff 00 	movl   $0x0,-0x203c(%rbp)
   141f7:	00 00 00 
   141fa:	eb 30                	jmp    1422c <func_47+0x1b28>
   141fc:	8b 85 c4 df ff ff    	mov    -0x203c(%rbp),%eax
   14202:	48 63 c8             	movslq %eax,%rcx
   14205:	8b 85 c0 df ff ff    	mov    -0x2040(%rbp),%eax
   1420b:	48 63 d0             	movslq %eax,%rdx
   1420e:	48 89 d0             	mov    %rdx,%rax
   14211:	48 01 c0             	add    %rax,%rax
   14214:	48 01 d0             	add    %rdx,%rax
   14217:	48 01 c8             	add    %rcx,%rax
   1421a:	c7 84 85 f4 e3 ff ff 	movl   $0xe08b548b,-0x1c0c(%rbp,%rax,4)
   14221:	8b 54 8b e0 
   14225:	83 85 c4 df ff ff 01 	addl   $0x1,-0x203c(%rbp)
   1422c:	83 bd c4 df ff ff 02 	cmpl   $0x2,-0x203c(%rbp)
   14233:	7e c7                	jle    141fc <func_47+0x1af8>
   14235:	83 85 c0 df ff ff 01 	addl   $0x1,-0x2040(%rbp)
   1423c:	83 bd c0 df ff ff 00 	cmpl   $0x0,-0x2040(%rbp)
   14243:	7e ab                	jle    141f0 <func_47+0x1aec>
   14245:	c7 05 49 ff 00 00 00 	movl   $0x0,0xff49(%rip)        # 24198 <g_214>
   1424c:	00 00 00 
   1424f:	e9 ee 0d 00 00       	jmpq   15042 <func_47+0x293e>
   14254:	48 8d 85 50 ee ff ff 	lea    -0x11b0(%rbp),%rax
   1425b:	48 8d 15 1e 0f 01 00 	lea    0x10f1e(%rip),%rdx        # 25180 <g_3583+0xef0>
   14262:	b9 32 00 00 00       	mov    $0x32,%ecx
   14267:	48 89 c7             	mov    %rax,%rdi
   1426a:	48 89 d6             	mov    %rdx,%rsi
   1426d:	f3 48 a5             	rep movsq %ds:(%rsi),%es:(%rdi)
   14270:	c7 85 d0 e0 ff ff a9 	movl   $0x73f3ba9,-0x1f30(%rbp)
   14277:	3b 3f 07 
   1427a:	48 c7 85 00 e1 ff ff 	movq   $0x0,-0x1f00(%rbp)
   14281:	00 00 00 00 
   14285:	48 8d 05 61 ff 00 00 	lea    0xff61(%rip),%rax        # 241ed <g_867>
   1428c:	48 89 85 80 ea ff ff 	mov    %rax,-0x1580(%rbp)
   14293:	48 8d 05 53 ff 00 00 	lea    0xff53(%rip),%rax        # 241ed <g_867>
   1429a:	48 89 85 88 ea ff ff 	mov    %rax,-0x1578(%rbp)
   142a1:	48 c7 85 90 ea ff ff 	movq   $0x0,-0x1570(%rbp)
   142a8:	00 00 00 00 
   142ac:	48 c7 85 98 ea ff ff 	movq   $0x0,-0x1568(%rbp)
   142b3:	00 00 00 00 
   142b7:	48 8d 05 2f ff 00 00 	lea    0xff2f(%rip),%rax        # 241ed <g_867>
   142be:	48 89 85 a0 ea ff ff 	mov    %rax,-0x1560(%rbp)
   142c5:	48 8d 05 84 fe 00 00 	lea    0xfe84(%rip),%rax        # 24150 <g_184>
   142cc:	48 89 85 a8 ea ff ff 	mov    %rax,-0x1558(%rbp)
   142d3:	48 c7 85 b0 ea ff ff 	movq   $0x0,-0x1550(%rbp)
   142da:	00 00 00 00 
   142de:	48 8d 05 6b fe 00 00 	lea    0xfe6b(%rip),%rax        # 24150 <g_184>
   142e5:	48 89 85 b8 ea ff ff 	mov    %rax,-0x1548(%rbp)
   142ec:	48 8d 05 5d fe 00 00 	lea    0xfe5d(%rip),%rax        # 24150 <g_184>
   142f3:	48 89 85 c0 ea ff ff 	mov    %rax,-0x1540(%rbp)
   142fa:	48 8d 05 4f fe 00 00 	lea    0xfe4f(%rip),%rax        # 24150 <g_184>
   14301:	48 89 85 c8 ea ff ff 	mov    %rax,-0x1538(%rbp)
   14308:	48 8d 05 42 fe 00 00 	lea    0xfe42(%rip),%rax        # 24151 <g_188>
   1430f:	48 89 85 d0 ea ff ff 	mov    %rax,-0x1530(%rbp)
   14316:	48 8d 05 33 fe 00 00 	lea    0xfe33(%rip),%rax        # 24150 <g_184>
   1431d:	48 89 85 d8 ea ff ff 	mov    %rax,-0x1528(%rbp)
   14324:	48 8d 05 c2 fe 00 00 	lea    0xfec2(%rip),%rax        # 241ed <g_867>
   1432b:	48 89 85 e0 ea ff ff 	mov    %rax,-0x1520(%rbp)
   14332:	48 8d 05 b4 fe 00 00 	lea    0xfeb4(%rip),%rax        # 241ed <g_867>
   14339:	48 89 85 e8 ea ff ff 	mov    %rax,-0x1518(%rbp)
   14340:	48 8d 05 09 fe 00 00 	lea    0xfe09(%rip),%rax        # 24150 <g_184>
   14347:	48 89 85 f0 ea ff ff 	mov    %rax,-0x1510(%rbp)
   1434e:	48 c7 85 f8 ea ff ff 	movq   $0x0,-0x1508(%rbp)
   14355:	00 00 00 00 
   14359:	48 8d 05 f0 fd 00 00 	lea    0xfdf0(%rip),%rax        # 24150 <g_184>
   14360:	48 89 85 00 eb ff ff 	mov    %rax,-0x1500(%rbp)
   14367:	48 c7 85 08 eb ff ff 	movq   $0x0,-0x14f8(%rbp)
   1436e:	00 00 00 00 
   14372:	48 c7 85 10 eb ff ff 	movq   $0x0,-0x14f0(%rbp)
   14379:	00 00 00 00 
   1437d:	48 8d 05 cc fd 00 00 	lea    0xfdcc(%rip),%rax        # 24150 <g_184>
   14384:	48 89 85 18 eb ff ff 	mov    %rax,-0x14e8(%rbp)
   1438b:	48 8d 05 56 fe 00 00 	lea    0xfe56(%rip),%rax        # 241e8 <g_446>
   14392:	48 89 85 88 e2 ff ff 	mov    %rax,-0x1d78(%rbp)
   14399:	48 c7 85 90 e2 ff ff 	movq   $0x0,-0x1d70(%rbp)
   143a0:	00 00 00 00 
   143a4:	c7 85 6c e0 ff ff fb 	movl   $0xfffffffb,-0x1f94(%rbp)
   143ab:	ff ff ff 
   143ae:	c7 85 d8 e0 ff ff 27 	movl   $0x24969327,-0x1f28(%rbp)
   143b5:	93 96 24 
   143b8:	c7 85 c8 df ff ff d1 	movl   $0xaf8e2ad1,-0x2038(%rbp)
   143bf:	2a 8e af 
   143c2:	48 c7 85 30 e4 ff ff 	movq   $0x0,-0x1bd0(%rbp)
   143c9:	00 00 00 00 
   143cd:	48 c7 85 38 e4 ff ff 	movq   $0x0,-0x1bc8(%rbp)
   143d4:	00 00 00 00 
   143d8:	48 c7 85 40 e4 ff ff 	movq   $0x0,-0x1bc0(%rbp)
   143df:	00 00 00 00 
   143e3:	48 c7 85 48 e4 ff ff 	movq   $0x0,-0x1bb8(%rbp)
   143ea:	00 00 00 00 
   143ee:	c7 85 cc df ff ff 00 	movl   $0x0,-0x2034(%rbp)
   143f5:	00 00 00 
   143f8:	eb 19                	jmp    14413 <func_47+0x1d0f>
   143fa:	8b 85 cc df ff ff    	mov    -0x2034(%rbp),%eax
   14400:	48 98                	cltq   
   14402:	66 c7 84 45 e2 e3 ff 	movw   $0x0,-0x1c1e(%rbp,%rax,2)
   14409:	ff 00 00 
   1440c:	83 85 cc df ff ff 01 	addl   $0x1,-0x2034(%rbp)
   14413:	83 bd cc df ff ff 00 	cmpl   $0x0,-0x2034(%rbp)
   1441a:	7e de                	jle    143fa <func_47+0x1cf6>
   1441c:	8b 05 72 fc 00 00    	mov    0xfc72(%rip),%eax        # 24094 <g_44>
   14422:	89 05 98 fd 00 00    	mov    %eax,0xfd98(%rip)        # 241c0 <g_362>
   14428:	8b 05 92 fd 00 00    	mov    0xfd92(%rip),%eax        # 241c0 <g_362>
   1442e:	3d 24 25 99 8c       	cmp    $0x8c992524,%eax
   14433:	0f 96 c0             	setbe  %al
   14436:	0f b6 c0             	movzbl %al,%eax
   14439:	be 05 00 00 00       	mov    $0x5,%esi
   1443e:	89 c7                	mov    %eax,%edi
   14440:	e8 5c 6e ff ff       	callq  b2a1 <safe_lshift_func_int8_t_s_s>
   14445:	8b 85 a8 df ff ff    	mov    -0x2058(%rbp),%eax
   1444b:	41 89 c5             	mov    %eax,%r13d
   1444e:	8b 85 d0 e0 ff ff    	mov    -0x1f30(%rbp),%eax
   14454:	85 c0                	test   %eax,%eax
   14456:	0f 95 c0             	setne  %al
   14459:	44 0f b6 e0          	movzbl %al,%r12d
   1445d:	8b 9d 54 df ff ff    	mov    -0x20ac(%rbp),%ebx
   14463:	c6 05 e6 fc 00 00 1b 	movb   $0x1b,0xfce6(%rip)        # 24150 <g_184>
   1446a:	8b 85 e4 e3 ff ff    	mov    -0x1c1c(%rbp),%eax
   14470:	0f be c0             	movsbl %al,%eax
   14473:	be 1b 00 00 00       	mov    $0x1b,%esi
   14478:	89 c7                	mov    %eax,%edi
   1447a:	e8 b2 6d ff ff       	callq  b231 <safe_mod_func_int8_t_s_s>
   1447f:	0f be c0             	movsbl %al,%eax
   14482:	89 de                	mov    %ebx,%esi
   14484:	89 c7                	mov    %eax,%edi
   14486:	e8 7a 71 ff ff       	callq  b605 <safe_sub_func_int32_t_s_s>
   1448b:	41 39 c4             	cmp    %eax,%r12d
   1448e:	0f 95 c0             	setne  %al
   14491:	0f b6 c0             	movzbl %al,%eax
   14494:	39 85 14 e0 ff ff    	cmp    %eax,-0x1fec(%rbp)
   1449a:	0f 9c c0             	setl   %al
   1449d:	0f b6 c0             	movzbl %al,%eax
   144a0:	44 89 ee             	mov    %r13d,%esi
   144a3:	89 c7                	mov    %eax,%edi
   144a5:	e8 d0 79 ff ff       	callq  be7a <safe_rshift_func_uint16_t_u_u>
   144aa:	66 85 c0             	test   %ax,%ax
   144ad:	75 07                	jne    144b6 <func_47+0x1db2>
   144af:	83 bd 54 df ff ff 00 	cmpl   $0x0,-0x20ac(%rbp)
   144b6:	48 8b 85 18 e1 ff ff 	mov    -0x1ee8(%rbp),%rax
   144bd:	48 3b 85 78 e2 ff ff 	cmp    -0x1d88(%rbp),%rax
   144c4:	0f 85 72 05 00 00    	jne    14a3c <func_47+0x2338>
   144ca:	48 8d 85 00 e1 ff ff 	lea    -0x1f00(%rbp),%rax
   144d1:	48 89 85 08 e1 ff ff 	mov    %rax,-0x1ef8(%rbp)
   144d8:	c7 85 74 e0 ff ff 03 	movl   $0x3,-0x1f8c(%rbp)
   144df:	00 00 00 
   144e2:	c7 85 78 e0 ff ff 9d 	movl   $0x1e2bc09d,-0x1f88(%rbp)
   144e9:	c0 2b 1e 
   144ec:	c7 85 50 e5 ff ff f4 	movl   $0x70041df4,-0x1ab0(%rbp)
   144f3:	1d 04 70 
   144f6:	c7 85 54 e5 ff ff f4 	movl   $0x70041df4,-0x1aac(%rbp)
   144fd:	1d 04 70 
   14500:	c7 85 58 e5 ff ff f4 	movl   $0x70041df4,-0x1aa8(%rbp)
   14507:	1d 04 70 
   1450a:	c7 85 5c e5 ff ff f4 	movl   $0x70041df4,-0x1aa4(%rbp)
   14511:	1d 04 70 
   14514:	c7 85 60 e5 ff ff f4 	movl   $0x70041df4,-0x1aa0(%rbp)
   1451b:	1d 04 70 
   1451e:	c7 85 64 e5 ff ff f4 	movl   $0x70041df4,-0x1a9c(%rbp)
   14525:	1d 04 70 
   14528:	c7 85 68 e5 ff ff f4 	movl   $0x70041df4,-0x1a98(%rbp)
   1452f:	1d 04 70 
   14532:	c7 85 6c e5 ff ff f4 	movl   $0x70041df4,-0x1a94(%rbp)
   14539:	1d 04 70 
   1453c:	c7 85 70 e5 ff ff f4 	movl   $0x70041df4,-0x1a90(%rbp)
   14543:	1d 04 70 
   14546:	c7 85 74 e5 ff ff f4 	movl   $0x70041df4,-0x1a8c(%rbp)
   1454d:	1d 04 70 
   14550:	c6 85 86 df ff ff 07 	movb   $0x7,-0x207a(%rbp)
   14557:	48 8d 85 e2 e3 ff ff 	lea    -0x1c1e(%rbp),%rax
   1455e:	48 89 85 18 e3 ff ff 	mov    %rax,-0x1ce8(%rbp)
   14565:	48 c7 85 20 e3 ff ff 	movq   $0x0,-0x1ce0(%rbp)
   1456c:	00 00 00 00 
   14570:	48 c7 85 80 e4 ff ff 	movq   $0x0,-0x1b80(%rbp)
   14577:	00 00 00 00 
   1457b:	48 c7 85 88 e4 ff ff 	movq   $0x0,-0x1b78(%rbp)
   14582:	00 00 00 00 
   14586:	48 c7 85 90 e4 ff ff 	movq   $0x0,-0x1b70(%rbp)
   1458d:	00 00 00 00 
   14591:	48 c7 85 98 e4 ff ff 	movq   $0x0,-0x1b68(%rbp)
   14598:	00 00 00 00 
   1459c:	c7 85 d0 df ff ff 00 	movl   $0x0,-0x2030(%rbp)
   145a3:	00 00 00 
   145a6:	eb 1a                	jmp    145c2 <func_47+0x1ebe>
   145a8:	8b 85 d0 df ff ff    	mov    -0x2030(%rbp),%eax
   145ae:	48 98                	cltq   
   145b0:	c7 84 85 ec e3 ff ff 	movl   $0x0,-0x1c14(%rbp,%rax,4)
   145b7:	00 00 00 00 
   145bb:	83 85 d0 df ff ff 01 	addl   $0x1,-0x2030(%rbp)
   145c2:	83 bd d0 df ff ff 01 	cmpl   $0x1,-0x2030(%rbp)
   145c9:	7e dd                	jle    145a8 <func_47+0x1ea4>
   145cb:	83 bd 54 df ff ff 00 	cmpl   $0x0,-0x20ac(%rbp)
   145d2:	0f 84 be 00 00 00    	je     14696 <func_47+0x1f92>
   145d8:	c6 85 87 df ff ff 39 	movb   $0x39,-0x2079(%rbp)
   145df:	8b 85 f8 e3 ff ff    	mov    -0x1c08(%rbp),%eax
   145e5:	85 c0                	test   %eax,%eax
   145e7:	0f 85 66 0a 00 00    	jne    15053 <func_47+0x294f>
   145ed:	8b 85 f4 e3 ff ff    	mov    -0x1c0c(%rbp),%eax
   145f3:	0f be c0             	movsbl %al,%eax
   145f6:	be 91 ff ff ff       	mov    $0xffffff91,%esi
   145fb:	89 c7                	mov    %eax,%edi
   145fd:	e8 f0 6b ff ff       	callq  b1f2 <safe_sub_func_int8_t_s_s>
   14602:	0f be d0             	movsbl %al,%edx
   14605:	0f b6 85 87 df ff ff 	movzbl -0x2079(%rbp),%eax
   1460c:	39 c2                	cmp    %eax,%edx
   1460e:	0f 9f c0             	setg   %al
   14611:	0f b6 d0             	movzbl %al,%edx
   14614:	48 8b 85 58 df ff ff 	mov    -0x20a8(%rbp),%rax
   1461b:	0f b6 00             	movzbl (%rax),%eax
   1461e:	09 c2                	or     %eax,%edx
   14620:	48 8b 85 58 df ff ff 	mov    -0x20a8(%rbp),%rax
   14627:	88 10                	mov    %dl,(%rax)
   14629:	48 8b 85 20 e1 ff ff 	mov    -0x1ee0(%rbp),%rax
   14630:	48 89 05 c1 43 01 00 	mov    %rax,0x143c1(%rip)        # 289f8 <g_1367>
   14637:	be 01 00 00 00       	mov    $0x1,%esi
   1463c:	bf 7e 7e 00 00       	mov    $0x7e7e,%edi
   14641:	e8 1d 6f ff ff       	callq  b563 <safe_rshift_func_int16_t_s_u>
   14646:	0f bf d0             	movswl %ax,%edx
   14649:	48 8b 05 80 1d 01 00 	mov    0x11d80(%rip),%rax        # 263d0 <g_1123>
   14650:	48 8b 00             	mov    (%rax),%rax
   14653:	0f b7 08             	movzwl (%rax),%ecx
   14656:	48 8b 05 6b 1d 01 00 	mov    0x11d6b(%rip),%rax        # 263c8 <g_1124>
   1465d:	0f b7 00             	movzwl (%rax),%eax
   14660:	09 c8                	or     %ecx,%eax
   14662:	98                   	cwtl   
   14663:	89 d6                	mov    %edx,%esi
   14665:	89 c7                	mov    %eax,%edi
   14667:	e8 26 6e ff ff       	callq  b492 <safe_lshift_func_int16_t_s_s>
   1466c:	0f bf d0             	movswl %ax,%edx
   1466f:	8b 85 e4 e3 ff ff    	mov    -0x1c1c(%rbp),%eax
   14675:	39 c2                	cmp    %eax,%edx
   14677:	8b 95 54 df ff ff    	mov    -0x20ac(%rbp),%edx
   1467d:	48 8b 05 3c 1d 01 00 	mov    0x11d3c(%rip),%rax        # 263c0 <g_1058>
   14684:	8b 00                	mov    (%rax),%eax
   14686:	21 c2                	and    %eax,%edx
   14688:	48 8b 05 31 1d 01 00 	mov    0x11d31(%rip),%rax        # 263c0 <g_1058>
   1468f:	89 10                	mov    %edx,(%rax)
   14691:	e9 b9 02 00 00       	jmpq   1494f <func_47+0x224b>
   14696:	48 8d 85 08 e1 ff ff 	lea    -0x1ef8(%rbp),%rax
   1469d:	48 89 85 28 e3 ff ff 	mov    %rax,-0x1cd8(%rbp)
   146a4:	be 02 00 00 00       	mov    $0x2,%esi
   146a9:	bf cf 39 00 00       	mov    $0x39cf,%edi
   146ae:	e8 2e 6e ff ff       	callq  b4e1 <safe_lshift_func_int16_t_s_u>
   146b3:	66 85 c0             	test   %ax,%ax
   146b6:	0f b7 85 8c df ff ff 	movzwl -0x2074(%rbp),%eax
   146bd:	0f bf d8             	movswl %ax,%ebx
   146c0:	be 07 00 00 00       	mov    $0x7,%esi
   146c5:	bf 01 00 00 00       	mov    $0x1,%edi
   146ca:	e8 66 6c ff ff       	callq  b335 <safe_rshift_func_int8_t_s_s>
   146cf:	0f be c0             	movsbl %al,%eax
   146d2:	be 0b 00 00 00       	mov    $0xb,%esi
   146d7:	89 c7                	mov    %eax,%edi
   146d9:	e8 b4 6d ff ff       	callq  b492 <safe_lshift_func_int16_t_s_s>
   146de:	48 0f bf c0          	movswq %ax,%rax
   146e2:	be 01 00 00 00       	mov    $0x1,%esi
   146e7:	48 89 c7             	mov    %rax,%rdi
   146ea:	e8 b9 71 ff ff       	callq  b8a8 <safe_sub_func_int64_t_s_s>
   146ef:	48 8b 05 da 1c 01 00 	mov    0x11cda(%rip),%rax        # 263d0 <g_1123>
   146f6:	48 8b 00             	mov    (%rax),%rax
   146f9:	0f b7 00             	movzwl (%rax),%eax
   146fc:	98                   	cwtl   
   146fd:	89 de                	mov    %ebx,%esi
   146ff:	89 c7                	mov    %eax,%edi
   14701:	e8 ef 6c ff ff       	callq  b3f5 <safe_mul_func_int16_t_s_s>
   14706:	66 3d ff 00          	cmp    $0xff,%ax
   1470a:	0f 97 c0             	seta   %al
   1470d:	0f b6 c0             	movzbl %al,%eax
   14710:	48 89 c6             	mov    %rax,%rsi
   14713:	bf 01 00 00 00       	mov    $0x1,%edi
   14718:	e8 24 71 ff ff       	callq  b841 <safe_add_func_int64_t_s_s>
   1471d:	48 8b 15 bc fa 00 00 	mov    0xfabc(%rip),%rdx        # 241e0 <g_432>
   14724:	48 39 d0             	cmp    %rdx,%rax
   14727:	ba 01 00 00 00       	mov    $0x1,%edx
   1472c:	8b 85 a8 df ff ff    	mov    -0x2058(%rbp),%eax
   14732:	21 d0                	and    %edx,%eax
   14734:	89 85 a8 df ff ff    	mov    %eax,-0x2058(%rbp)
   1473a:	48 83 bd 88 e2 ff ff 	cmpq   $0x0,-0x1d78(%rbp)
   14741:	00 
   14742:	74 11                	je     14755 <func_47+0x2051>
   14744:	8b 85 e4 e3 ff ff    	mov    -0x1c1c(%rbp),%eax
   1474a:	85 c0                	test   %eax,%eax
   1474c:	74 07                	je     14755 <func_47+0x2051>
   1474e:	b8 01 00 00 00       	mov    $0x1,%eax
   14753:	eb 05                	jmp    1475a <func_47+0x2056>
   14755:	b8 00 00 00 00       	mov    $0x0,%eax
   1475a:	89 c3                	mov    %eax,%ebx
   1475c:	0f b7 85 e2 e3 ff ff 	movzwl -0x1c1e(%rbp),%eax
   14763:	0f b7 d0             	movzwl %ax,%edx
   14766:	c7 85 54 df ff ff f6 	movl   $0xfffffff6,-0x20ac(%rbp)
   1476d:	ff ff ff 
   14770:	8b 85 54 df ff ff    	mov    -0x20ac(%rbp),%eax
   14776:	89 d6                	mov    %edx,%esi
   14778:	89 c7                	mov    %eax,%edi
   1477a:	e8 a6 77 ff ff       	callq  bf25 <safe_div_func_uint32_t_u_u>
   1477f:	39 c3                	cmp    %eax,%ebx
   14781:	0f 93 c0             	setae  %al
   14784:	89 c3                	mov    %eax,%ebx
   14786:	48 83 bd 90 e2 ff ff 	cmpq   $0x0,-0x1d70(%rbp)
   1478d:	00 
   1478e:	0f 95 c0             	setne  %al
   14791:	0f b6 c0             	movzbl %al,%eax
   14794:	48 89 c6             	mov    %rax,%rsi
   14797:	48 bf 42 9d 83 18 2f 	movabs $0x3500d82f18839d42,%rdi
   1479e:	d8 00 35 
   147a1:	e8 88 78 ff ff       	callq  c02e <safe_add_func_uint64_t_u_u>
   147a6:	0f b7 d0             	movzwl %ax,%edx
   147a9:	48 8b 8d 08 e1 ff ff 	mov    -0x1ef8(%rbp),%rcx
   147b0:	48 8b 85 28 e3 ff ff 	mov    -0x1cd8(%rbp),%rax
   147b7:	48 89 08             	mov    %rcx,(%rax)
   147ba:	48 8b 85 28 e3 ff ff 	mov    -0x1cd8(%rbp),%rax
   147c1:	48 8b 00             	mov    (%rax),%rax
   147c4:	48 85 c0             	test   %rax,%rax
   147c7:	0f 94 c0             	sete   %al
   147ca:	0f b6 c0             	movzbl %al,%eax
   147cd:	89 d6                	mov    %edx,%esi
   147cf:	89 c7                	mov    %eax,%edi
   147d1:	e8 b8 75 ff ff       	callq  bd8e <safe_div_func_uint16_t_u_u>
   147d6:	0f b7 d0             	movzwl %ax,%edx
   147d9:	48 8b 05 a0 f8 00 00 	mov    0xf8a0(%rip),%rax        # 24080 <g_21+0x40>
   147e0:	48 39 c2             	cmp    %rax,%rdx
   147e3:	0f 94 c0             	sete   %al
   147e6:	31 d8                	xor    %ebx,%eax
   147e8:	0f be c0             	movsbl %al,%eax
   147eb:	be 05 00 00 00       	mov    $0x5,%esi
   147f0:	89 c7                	mov    %eax,%edi
   147f2:	e8 aa 6a ff ff       	callq  b2a1 <safe_lshift_func_int8_t_s_s>
   147f7:	0f be c0             	movsbl %al,%eax
   147fa:	89 85 a0 df ff ff    	mov    %eax,-0x2060(%rbp)
   14800:	83 bd 54 df ff ff 00 	cmpl   $0x0,-0x20ac(%rbp)
   14807:	0f 85 26 08 00 00    	jne    15033 <func_47+0x292f>
   1480d:	8b 85 e8 e3 ff ff    	mov    -0x1c18(%rbp),%eax
   14813:	0f bf d8             	movswl %ax,%ebx
   14816:	48 8b 95 e0 e0 ff ff 	mov    -0x1f20(%rbp),%rdx
   1481d:	48 8b 85 18 e1 ff ff 	mov    -0x1ee8(%rbp),%rax
   14824:	48 89 10             	mov    %rdx,(%rax)
   14827:	48 8b 85 18 e1 ff ff 	mov    -0x1ee8(%rbp),%rax
   1482e:	48 8b 10             	mov    (%rax),%rdx
   14831:	48 8b 05 c0 1b 01 00 	mov    0x11bc0(%rip),%rax        # 263f8 <g_1402>
   14838:	48 39 c2             	cmp    %rax,%rdx
   1483b:	0f 95 c0             	setne  %al
   1483e:	0f b6 c0             	movzbl %al,%eax
   14841:	0b 85 54 df ff ff    	or     -0x20ac(%rbp),%eax
   14847:	89 c2                	mov    %eax,%edx
   14849:	0f b7 05 50 f8 00 00 	movzwl 0xf850(%rip),%eax        # 240a0 <g_124>
   14850:	0f b7 c0             	movzwl %ax,%eax
   14853:	31 c2                	xor    %eax,%edx
   14855:	41 89 d7             	mov    %edx,%r15d
   14858:	48 8b 85 58 df ff ff 	mov    -0x20a8(%rbp),%rax
   1485f:	0f b6 00             	movzbl (%rax),%eax
   14862:	44 0f be e8          	movsbl %al,%r13d
   14866:	0f b6 05 80 f9 00 00 	movzbl 0xf980(%rip),%eax        # 241ed <g_867>
   1486d:	0f b6 c0             	movzbl %al,%eax
   14870:	48 98                	cltq   
   14872:	48 8d 14 00          	lea    (%rax,%rax,1),%rdx
   14876:	48 8d 05 23 f9 00 00 	lea    0xf923(%rip),%rax        # 241a0 <g_241>
   1487d:	0f b7 04 02          	movzwl (%rdx,%rax,1),%eax
   14881:	44 0f bf f0          	movswl %ax,%r14d
   14885:	8b 85 54 df ff ff    	mov    -0x20ac(%rbp),%eax
   1488b:	44 0f b7 e0          	movzwl %ax,%r12d
   1488f:	8b 95 54 df ff ff    	mov    -0x20ac(%rbp),%edx
   14895:	8b 85 54 df ff ff    	mov    -0x20ac(%rbp),%eax
   1489b:	89 d6                	mov    %edx,%esi
   1489d:	89 c7                	mov    %eax,%edi
   1489f:	e8 2c 76 ff ff       	callq  bed0 <safe_sub_func_uint32_t_u_u>
   148a4:	89 c0                	mov    %eax,%eax
   148a6:	48 89 c7             	mov    %rax,%rdi
   148a9:	e8 68 6f ff ff       	callq  b816 <safe_unary_minus_func_int64_t_s>
   148ae:	8b 95 f8 e3 ff ff    	mov    -0x1c08(%rbp),%edx
   148b4:	48 8b 85 58 df ff ff 	mov    -0x20a8(%rbp),%rax
   148bb:	0f b6 00             	movzbl (%rax),%eax
   148be:	0f be c0             	movsbl %al,%eax
   148c1:	39 c2                	cmp    %eax,%edx
   148c3:	76 0d                	jbe    148d2 <func_47+0x21ce>
   148c5:	48 8b 05 1c 1b 01 00 	mov    0x11b1c(%rip),%rax        # 263e8 <g_1404>
   148cc:	0f b7 00             	movzwl (%rax),%eax
   148cf:	66 85 c0             	test   %ax,%ax
   148d2:	83 bd 54 df ff ff 00 	cmpl   $0x0,-0x20ac(%rbp)
   148d9:	0f 94 c0             	sete   %al
   148dc:	0f b6 c0             	movzbl %al,%eax
   148df:	48 89 c6             	mov    %rax,%rsi
   148e2:	bf 00 00 00 00       	mov    $0x0,%edi
   148e7:	e8 55 6f ff ff       	callq  b841 <safe_add_func_int64_t_s_s>
   148ec:	48 83 f0 07          	xor    $0x7,%rax
   148f0:	48 89 c2             	mov    %rax,%rdx
   148f3:	b8 99 ca b0 c2       	mov    $0xc2b0ca99,%eax
   148f8:	48 39 c2             	cmp    %rax,%rdx
   148fb:	0f 96 c0             	setbe  %al
   148fe:	0f b6 c0             	movzbl %al,%eax
   14901:	39 85 54 df ff ff    	cmp    %eax,-0x20ac(%rbp)
   14907:	0f 92 c0             	setb   %al
   1490a:	0f b6 c0             	movzbl %al,%eax
   1490d:	44 89 e6             	mov    %r12d,%esi
   14910:	89 c7                	mov    %eax,%edi
   14912:	e8 e8 73 ff ff       	callq  bcff <safe_add_func_uint16_t_u_u>
   14917:	0f b7 c0             	movzwl %ax,%eax
   1491a:	41 39 c6             	cmp    %eax,%r14d
   1491d:	0f 9f c0             	setg   %al
   14920:	0f b6 c0             	movzbl %al,%eax
   14923:	44 21 e8             	and    %r13d,%eax
   14926:	41 39 c7             	cmp    %eax,%r15d
   14929:	0f 92 c0             	setb   %al
   1492c:	0f b6 c0             	movzbl %al,%eax
   1492f:	89 de                	mov    %ebx,%esi
   14931:	89 c7                	mov    %eax,%edi
   14933:	e8 7b 6a ff ff       	callq  b3b3 <safe_add_func_int16_t_s_s>
   14938:	48 8b 15 81 1a 01 00 	mov    0x11a81(%rip),%rdx        # 263c0 <g_1058>
   1493f:	8b 0a                	mov    (%rdx),%ecx
   14941:	0f bf d0             	movswl %ax,%edx
   14944:	48 8b 05 75 1a 01 00 	mov    0x11a75(%rip),%rax        # 263c0 <g_1058>
   1494b:	21 ca                	and    %ecx,%edx
   1494d:	89 10                	mov    %edx,(%rax)
   1494f:	0f b6 05 97 f8 00 00 	movzbl 0xf897(%rip),%eax        # 241ed <g_867>
   14956:	0f b6 c0             	movzbl %al,%eax
   14959:	48 98                	cltq   
   1495b:	48 8d 14 00          	lea    (%rax,%rax,1),%rdx
   1495f:	48 8d 05 3a f8 00 00 	lea    0xf83a(%rip),%rax        # 241a0 <g_241>
   14966:	0f b7 04 02          	movzwl (%rdx,%rax,1),%eax
   1496a:	66 85 c0             	test   %ax,%ax
   1496d:	74 50                	je     149bf <func_47+0x22bb>
   1496f:	48 8b 05 4a 1a 01 00 	mov    0x11a4a(%rip),%rax        # 263c0 <g_1058>
   14976:	8b 18                	mov    (%rax),%ebx
   14978:	48 8d 05 51 f8 00 00 	lea    0xf851(%rip),%rax        # 241d0 <g_377>
   1497f:	48 39 85 58 df ff ff 	cmp    %rax,-0x20a8(%rbp)
   14986:	0f 94 c0             	sete   %al
   14989:	0f b6 c0             	movzbl %al,%eax
   1498c:	be 0c 00 00 00       	mov    $0xc,%esi
   14991:	89 c7                	mov    %eax,%edi
   14993:	e8 b0 74 ff ff       	callq  be48 <safe_rshift_func_uint16_t_u_s>
   14998:	0f b7 c0             	movzwl %ax,%eax
   1499b:	39 c3                	cmp    %eax,%ebx
   1499d:	0f 9d c0             	setge  %al
   149a0:	0f b6 c0             	movzbl %al,%eax
   149a3:	be 00 00 00 00       	mov    $0x0,%esi
   149a8:	89 c7                	mov    %eax,%edi
   149aa:	e8 0f 73 ff ff       	callq  bcbe <safe_rshift_func_uint8_t_u_u>
   149af:	0f b6 d0             	movzbl %al,%edx
   149b2:	48 8b 05 07 1a 01 00 	mov    0x11a07(%rip),%rax        # 263c0 <g_1058>
   149b9:	8b 00                	mov    (%rax),%eax
   149bb:	09 d0                	or     %edx,%eax
   149bd:	85 c0                	test   %eax,%eax
   149bf:	c7 85 d4 df ff ff 00 	movl   $0x0,-0x202c(%rbp)
   149c6:	00 00 00 
   149c9:	eb 1e                	jmp    149e9 <func_47+0x22e5>
   149cb:	8b 85 d4 df ff ff    	mov    -0x202c(%rbp),%eax
   149d1:	48 98                	cltq   
   149d3:	48 8d 15 c4 f6 00 00 	lea    0xf6c4(%rip),%rdx        # 2409e <g_116>
   149da:	48 89 94 c5 a0 e5 ff 	mov    %rdx,-0x1a60(%rbp,%rax,8)
   149e1:	ff 
   149e2:	83 85 d4 df ff ff 01 	addl   $0x1,-0x202c(%rbp)
   149e9:	83 bd d4 df ff ff 07 	cmpl   $0x7,-0x202c(%rbp)
   149f0:	7e d9                	jle    149cb <func_47+0x22c7>
   149f2:	48 8b 05 d7 19 01 00 	mov    0x119d7(%rip),%rax        # 263d0 <g_1123>
   149f9:	48 8b 00             	mov    (%rax),%rax
   149fc:	48 8b 85 a8 e5 ff ff 	mov    -0x1a58(%rbp),%rax
   14a03:	48 39 85 18 e3 ff ff 	cmp    %rax,-0x1ce8(%rbp)
   14a0a:	0f 94 c0             	sete   %al
   14a0d:	0f b6 c0             	movzbl %al,%eax
   14a10:	39 85 54 df ff ff    	cmp    %eax,-0x20ac(%rbp)
   14a16:	0f 97 c0             	seta   %al
   14a19:	0f b6 c8             	movzbl %al,%ecx
   14a1c:	48 8b 05 9d 19 01 00 	mov    0x1199d(%rip),%rax        # 263c0 <g_1058>
   14a23:	8b 10                	mov    (%rax),%edx
   14a25:	48 8b 05 94 19 01 00 	mov    0x11994(%rip),%rax        # 263c0 <g_1058>
   14a2c:	09 ca                	or     %ecx,%edx
   14a2e:	89 10                	mov    %edx,(%rax)
   14a30:	48 8b 85 58 df ff ff 	mov    -0x20a8(%rbp),%rax
   14a37:	e9 64 42 00 00       	jmpq   18ca0 <func_47+0x659c>
   14a3c:	66 c7 85 98 df ff ff 	movw   $0x9bd0,-0x2068(%rbp)
   14a43:	d0 9b 
   14a45:	c6 05 84 f7 00 00 00 	movb   $0x0,0xf784(%rip)        # 241d0 <g_377>
   14a4c:	eb 29                	jmp    14a77 <func_47+0x2373>
   14a4e:	0f b6 05 7b f7 00 00 	movzbl 0xf77b(%rip),%eax        # 241d0 <g_377>
   14a55:	0f be c0             	movsbl %al,%eax
   14a58:	8b 95 54 df ff ff    	mov    -0x20ac(%rbp),%edx
   14a5e:	48 98                	cltq   
   14a60:	89 94 85 e4 e3 ff ff 	mov    %edx,-0x1c1c(%rbp,%rax,4)
   14a67:	0f b6 05 62 f7 00 00 	movzbl 0xf762(%rip),%eax        # 241d0 <g_377>
   14a6e:	83 c0 01             	add    $0x1,%eax
   14a71:	88 05 59 f7 00 00    	mov    %al,0xf759(%rip)        # 241d0 <g_377>
   14a77:	0f b6 05 52 f7 00 00 	movzbl 0xf752(%rip),%eax        # 241d0 <g_377>
   14a7e:	3c 01                	cmp    $0x1,%al
   14a80:	7e cc                	jle    14a4e <func_47+0x234a>
   14a82:	48 8b 05 37 19 01 00 	mov    0x11937(%rip),%rax        # 263c0 <g_1058>
   14a89:	8b 00                	mov    (%rax),%eax
   14a8b:	0b 85 54 df ff ff    	or     -0x20ac(%rbp),%eax
   14a91:	89 c2                	mov    %eax,%edx
   14a93:	48 8b 05 26 19 01 00 	mov    0x11926(%rip),%rax        # 263c0 <g_1058>
   14a9a:	89 10                	mov    %edx,(%rax)
   14a9c:	0f b7 95 98 df ff ff 	movzwl -0x2068(%rbp),%edx
   14aa3:	0f b6 05 a6 f6 00 00 	movzbl 0xf6a6(%rip),%eax        # 24150 <g_184>
   14aaa:	83 e8 01             	sub    $0x1,%eax
   14aad:	88 05 9d f6 00 00    	mov    %al,0xf69d(%rip)        # 24150 <g_184>
   14ab3:	0f b6 05 96 f6 00 00 	movzbl 0xf696(%rip),%eax        # 24150 <g_184>
   14aba:	0f b6 c0             	movzbl %al,%eax
   14abd:	89 d1                	mov    %edx,%ecx
   14abf:	09 c1                	or     %eax,%ecx
   14ac1:	48 8b 05 f8 18 01 00 	mov    0x118f8(%rip),%rax        # 263c0 <g_1058>
   14ac8:	8b 10                	mov    (%rax),%edx
   14aca:	48 8b 05 ef 18 01 00 	mov    0x118ef(%rip),%rax        # 263c0 <g_1058>
   14ad1:	09 ca                	or     %ecx,%edx
   14ad3:	89 10                	mov    %edx,(%rax)
   14ad5:	c6 05 75 f6 00 00 00 	movb   $0x0,0xf675(%rip)        # 24151 <g_188>
   14adc:	eb 2d                	jmp    14b0b <func_47+0x2407>
   14ade:	0f b6 05 6c f6 00 00 	movzbl 0xf66c(%rip),%eax        # 24151 <g_188>
   14ae5:	0f b6 c0             	movzbl %al,%eax
   14ae8:	48 98                	cltq   
   14aea:	48 8d 14 00          	lea    (%rax,%rax,1),%rdx
   14aee:	48 8d 05 ab f6 00 00 	lea    0xf6ab(%rip),%rax        # 241a0 <g_241>
   14af5:	66 c7 04 02 ff ff    	movw   $0xffff,(%rdx,%rax,1)
   14afb:	0f b6 05 4f f6 00 00 	movzbl 0xf64f(%rip),%eax        # 24151 <g_188>
   14b02:	83 c0 01             	add    $0x1,%eax
   14b05:	88 05 46 f6 00 00    	mov    %al,0xf646(%rip)        # 24151 <g_188>
   14b0b:	0f b6 05 3f f6 00 00 	movzbl 0xf63f(%rip),%eax        # 24151 <g_188>
   14b12:	3c 09                	cmp    $0x9,%al
   14b14:	76 c8                	jbe    14ade <func_47+0x23da>
   14b16:	c7 85 c8 df ff ff 00 	movl   $0x0,-0x2038(%rbp)
   14b1d:	00 00 00 
   14b20:	e9 fe 04 00 00       	jmpq   15023 <func_47+0x291f>
   14b25:	66 c7 85 9a df ff ff 	movw   $0x0,-0x2066(%rbp)
   14b2c:	00 00 
   14b2e:	c6 85 85 df ff ff 4d 	movb   $0x4d,-0x207b(%rbp)
   14b35:	48 8d 05 b8 f6 00 00 	lea    0xf6b8(%rip),%rax        # 241f4 <g_892>
   14b3c:	48 89 85 98 e2 ff ff 	mov    %rax,-0x1d68(%rbp)
   14b43:	48 8d 85 e4 e3 ff ff 	lea    -0x1c1c(%rbp),%rax
   14b4a:	48 89 85 a0 e2 ff ff 	mov    %rax,-0x1d60(%rbp)
   14b51:	48 8d 85 e4 e3 ff ff 	lea    -0x1c1c(%rbp),%rax
   14b58:	48 83 c0 04          	add    $0x4,%rax
   14b5c:	48 89 85 a8 e2 ff ff 	mov    %rax,-0x1d58(%rbp)
   14b63:	48 8d 85 a8 df ff ff 	lea    -0x2058(%rbp),%rax
   14b6a:	48 89 85 b0 e2 ff ff 	mov    %rax,-0x1d50(%rbp)
   14b71:	48 c7 85 b8 e2 ff ff 	movq   $0x0,-0x1d48(%rbp)
   14b78:	00 00 00 00 
   14b7c:	48 8d 85 d8 e0 ff ff 	lea    -0x1f28(%rbp),%rax
   14b83:	48 89 85 c0 e2 ff ff 	mov    %rax,-0x1d40(%rbp)
   14b8a:	48 8d 85 c8 e0 ff ff 	lea    -0x1f38(%rbp),%rax
   14b91:	48 89 85 c8 e2 ff ff 	mov    %rax,-0x1d38(%rbp)
   14b98:	48 8d 85 c8 e0 ff ff 	lea    -0x1f38(%rbp),%rax
   14b9f:	48 89 85 d0 e2 ff ff 	mov    %rax,-0x1d30(%rbp)
   14ba6:	48 8d 85 00 e4 ff ff 	lea    -0x1c00(%rbp),%rax
   14bad:	48 83 c0 08          	add    $0x8,%rax
   14bb1:	48 89 85 d8 e2 ff ff 	mov    %rax,-0x1d28(%rbp)
   14bb8:	48 8d 85 e4 e3 ff ff 	lea    -0x1c1c(%rbp),%rax
   14bbf:	48 89 85 e0 e2 ff ff 	mov    %rax,-0x1d20(%rbp)
   14bc6:	48 8d 85 00 e4 ff ff 	lea    -0x1c00(%rbp),%rax
   14bcd:	48 83 c0 04          	add    $0x4,%rax
   14bd1:	48 89 85 e8 e2 ff ff 	mov    %rax,-0x1d18(%rbp)
   14bd8:	48 c7 85 f0 e2 ff ff 	movq   $0x0,-0x1d10(%rbp)
   14bdf:	00 00 00 00 
   14be3:	48 8d 85 e4 e3 ff ff 	lea    -0x1c1c(%rbp),%rax
   14bea:	48 89 85 f8 e2 ff ff 	mov    %rax,-0x1d08(%rbp)
   14bf1:	48 8d 85 d8 e0 ff ff 	lea    -0x1f28(%rbp),%rax
   14bf8:	48 89 85 00 e3 ff ff 	mov    %rax,-0x1d00(%rbp)
   14bff:	c7 85 70 e0 ff ff ff 	movl   $0xffffffff,-0x1f90(%rbp)
   14c06:	ff ff ff 
   14c09:	c7 85 d8 df ff ff 00 	movl   $0x0,-0x2028(%rbp)
   14c10:	00 00 00 
   14c13:	eb 1e                	jmp    14c33 <func_47+0x252f>
   14c15:	8b 85 d8 df ff ff    	mov    -0x2028(%rbp),%eax
   14c1b:	48 98                	cltq   
   14c1d:	48 8d 95 a4 df ff ff 	lea    -0x205c(%rbp),%rdx
   14c24:	48 89 94 c5 a0 e5 ff 	mov    %rdx,-0x1a60(%rbp,%rax,8)
   14c2b:	ff 
   14c2c:	83 85 d8 df ff ff 01 	addl   $0x1,-0x2028(%rbp)
   14c33:	83 bd d8 df ff ff 01 	cmpl   $0x1,-0x2028(%rbp)
   14c3a:	7e d9                	jle    14c15 <func_47+0x2511>
   14c3c:	c7 05 ae f5 00 00 00 	movl   $0x0,0xf5ae(%rip)        # 241f4 <g_892>
   14c43:	00 00 00 
   14c46:	e9 af 03 00 00       	jmpq   14ffa <func_47+0x28f6>
   14c4b:	48 8d 05 86 f5 00 00 	lea    0xf586(%rip),%rax        # 241d8 <g_400>
   14c52:	48 89 85 08 e3 ff ff 	mov    %rax,-0x1cf8(%rbp)
   14c59:	48 8d 05 38 3d 01 00 	lea    0x13d38(%rip),%rax        # 28998 <g_375>
   14c60:	48 89 85 10 e3 ff ff 	mov    %rax,-0x1cf0(%rbp)
   14c67:	48 8b 95 48 e4 ff ff 	mov    -0x1bb8(%rbp),%rdx
   14c6e:	48 8b 05 83 17 01 00 	mov    0x11783(%rip),%rax        # 263f8 <g_1402>
   14c75:	48 39 c2             	cmp    %rax,%rdx
   14c78:	0f 94 c0             	sete   %al
   14c7b:	0f b6 c0             	movzbl %al,%eax
   14c7e:	48 89 c7             	mov    %rax,%rdi
   14c81:	e8 90 6b ff ff       	callq  b816 <safe_unary_minus_func_int64_t_s>
   14c86:	48 8b 05 5b 17 01 00 	mov    0x1175b(%rip),%rax        # 263e8 <g_1404>
   14c8d:	0f b7 00             	movzwl (%rax),%eax
   14c90:	0f bf d8             	movswl %ax,%ebx
   14c93:	48 8b 85 58 df ff ff 	mov    -0x20a8(%rbp),%rax
   14c9a:	0f b6 00             	movzbl (%rax),%eax
   14c9d:	44 0f b6 e0          	movzbl %al,%r12d
   14ca1:	8b 95 54 df ff ff    	mov    -0x20ac(%rbp),%edx
   14ca7:	8b 05 47 f5 00 00    	mov    0xf547(%rip),%eax        # 241f4 <g_892>
   14cad:	48 98                	cltq   
   14caf:	48 8d 0c 85 00 00 00 	lea    0x0(,%rax,4),%rcx
   14cb6:	00 
   14cb7:	48 8d 05 f6 f4 00 00 	lea    0xf4f6(%rip),%rax        # 241b4 <g_248>
   14cbe:	8b 04 01             	mov    (%rcx,%rax,1),%eax
   14cc1:	85 c0                	test   %eax,%eax
   14cc3:	74 10                	je     14cd5 <func_47+0x25d1>
   14cc5:	83 bd 54 df ff ff 00 	cmpl   $0x0,-0x20ac(%rbp)
   14ccc:	74 07                	je     14cd5 <func_47+0x25d1>
   14cce:	b8 01 00 00 00       	mov    $0x1,%eax
   14cd3:	eb 05                	jmp    14cda <func_47+0x25d6>
   14cd5:	b8 00 00 00 00       	mov    $0x0,%eax
   14cda:	39 85 54 df ff ff    	cmp    %eax,-0x20ac(%rbp)
   14ce0:	0f 95 c0             	setne  %al
   14ce3:	0f b6 c0             	movzbl %al,%eax
   14ce6:	48 89 d6             	mov    %rdx,%rsi
   14ce9:	48 89 c7             	mov    %rax,%rdi
   14cec:	e8 50 6b ff ff       	callq  b841 <safe_add_func_int64_t_s_s>
   14cf1:	89 c2                	mov    %eax,%edx
   14cf3:	48 8b 05 c6 16 01 00 	mov    0x116c6(%rip),%rax        # 263c0 <g_1058>
   14cfa:	8b 00                	mov    (%rax),%eax
   14cfc:	31 d0                	xor    %edx,%eax
   14cfe:	66 89 85 9a df ff ff 	mov    %ax,-0x2066(%rbp)
   14d05:	66 83 bd 9a df ff ff 	cmpw   $0x56,-0x2066(%rbp)
   14d0c:	56 
   14d0d:	0f 95 c0             	setne  %al
   14d10:	0f b6 c0             	movzbl %al,%eax
   14d13:	44 89 e6             	mov    %r12d,%esi
   14d16:	89 c7                	mov    %eax,%edi
   14d18:	e8 3d 6e ff ff       	callq  bb5a <safe_add_func_uint8_t_u_u>
   14d1d:	8b 05 d1 f4 00 00    	mov    0xf4d1(%rip),%eax        # 241f4 <g_892>
   14d23:	8b 15 cb f4 00 00    	mov    0xf4cb(%rip),%edx        # 241f4 <g_892>
   14d29:	83 c2 02             	add    $0x2,%edx
   14d2c:	48 63 ca             	movslq %edx,%rcx
   14d2f:	48 63 d0             	movslq %eax,%rdx
   14d32:	48 89 d0             	mov    %rdx,%rax
   14d35:	48 01 c0             	add    %rax,%rax
   14d38:	48 01 d0             	add    %rdx,%rax
   14d3b:	48 01 c8             	add    %rcx,%rax
   14d3e:	8b 84 85 f4 e3 ff ff 	mov    -0x1c0c(%rbp,%rax,4),%eax
   14d45:	85 c0                	test   %eax,%eax
   14d47:	0f 95 c0             	setne  %al
   14d4a:	0f b6 c0             	movzbl %al,%eax
   14d4d:	be 02 00 00 00       	mov    $0x2,%esi
   14d52:	89 c7                	mov    %eax,%edi
   14d54:	e8 95 65 ff ff       	callq  b2ee <safe_lshift_func_int8_t_s_u>
   14d59:	66 98                	cbtw   
   14d5b:	0f b7 c8             	movzwl %ax,%ecx
   14d5e:	8b 05 90 f4 00 00    	mov    0xf490(%rip),%eax        # 241f4 <g_892>
   14d64:	8b 15 8a f4 00 00    	mov    0xf48a(%rip),%edx        # 241f4 <g_892>
   14d6a:	48 63 f2             	movslq %edx,%rsi
   14d6d:	48 63 d0             	movslq %eax,%rdx
   14d70:	48 89 d0             	mov    %rdx,%rax
   14d73:	48 01 c0             	add    %rax,%rax
   14d76:	48 01 d0             	add    %rdx,%rax
   14d79:	48 01 f0             	add    %rsi,%rax
   14d7c:	8b 94 85 f4 e3 ff ff 	mov    -0x1c0c(%rbp,%rax,4),%edx
   14d83:	48 8b 05 2e 16 01 00 	mov    0x1162e(%rip),%rax        # 263b8 <g_965>
   14d8a:	89 d2                	mov    %edx,%edx
   14d8c:	48 89 10             	mov    %rdx,(%rax)
   14d8f:	89 ce                	mov    %ecx,%esi
   14d91:	bf 00 00 00 00       	mov    $0x0,%edi
   14d96:	e8 c1 6f ff ff       	callq  bd5c <safe_mod_func_uint16_t_u_u>
   14d9b:	48 8b 05 36 16 01 00 	mov    0x11636(%rip),%rax        # 263d8 <g_1122>
   14da2:	48 8b 00             	mov    (%rax),%rax
   14da5:	48 8b 00             	mov    (%rax),%rax
   14da8:	0f b7 00             	movzwl (%rax),%eax
   14dab:	98                   	cwtl   
   14dac:	89 de                	mov    %ebx,%esi
   14dae:	89 c7                	mov    %eax,%edi
   14db0:	e8 40 66 ff ff       	callq  b3f5 <safe_mul_func_int16_t_s_s>
   14db5:	8b 85 c8 e0 ff ff    	mov    -0x1f38(%rbp),%eax
   14dbb:	85 c0                	test   %eax,%eax
   14dbd:	0f 9f c0             	setg   %al
   14dc0:	0f b6 d0             	movzbl %al,%edx
   14dc3:	48 8b 85 08 e3 ff ff 	mov    -0x1cf8(%rbp),%rax
   14dca:	89 10                	mov    %edx,(%rax)
   14dcc:	83 bd 54 df ff ff 00 	cmpl   $0x0,-0x20ac(%rbp)
   14dd3:	0f 85 11 02 00 00    	jne    14fea <func_47+0x28e6>
   14dd9:	8b 95 54 df ff ff    	mov    -0x20ac(%rbp),%edx
   14ddf:	48 8b 85 08 e3 ff ff 	mov    -0x1cf8(%rbp),%rax
   14de6:	89 10                	mov    %edx,(%rax)
   14de8:	48 8b 05 c9 15 01 00 	mov    0x115c9(%rip),%rax        # 263b8 <g_965>
   14def:	48 8b 18             	mov    (%rax),%rbx
   14df2:	8b 85 64 e0 ff ff    	mov    -0x1f9c(%rbp),%eax
   14df8:	4c 63 e0             	movslq %eax,%r12
   14dfb:	8b 05 d3 f3 00 00    	mov    0xf3d3(%rip),%eax        # 241d4 <g_394>
   14e01:	4c 63 e8             	movslq %eax,%r13
   14e04:	48 8b 85 58 df ff ff 	mov    -0x20a8(%rbp),%rax
   14e0b:	0f b6 00             	movzbl (%rax),%eax
   14e0e:	44 0f be f0          	movsbl %al,%r14d
   14e12:	66 83 bd 9a df ff ff 	cmpw   $0x0,-0x2066(%rbp)
   14e19:	00 
   14e1a:	74 1a                	je     14e36 <func_47+0x2732>
   14e1c:	48 8b 85 58 df ff ff 	mov    -0x20a8(%rbp),%rax
   14e23:	0f b6 00             	movzbl (%rax),%eax
   14e26:	84 c0                	test   %al,%al
   14e28:	74 0c                	je     14e36 <func_47+0x2732>
   14e2a:	c7 85 48 df ff ff 01 	movl   $0x1,-0x20b8(%rbp)
   14e31:	00 00 00 
   14e34:	eb 0a                	jmp    14e40 <func_47+0x273c>
   14e36:	c7 85 48 df ff ff 00 	movl   $0x0,-0x20b8(%rbp)
   14e3d:	00 00 00 
   14e40:	48 8b 85 20 e1 ff ff 	mov    -0x1ee0(%rbp),%rax
   14e47:	48 8b 00             	mov    (%rax),%rax
   14e4a:	0f b6 15 4b f2 00 00 	movzbl 0xf24b(%rip),%edx        # 2409c <g_113>
   14e51:	88 10                	mov    %dl,(%rax)
   14e53:	0f b6 00             	movzbl (%rax),%eax
   14e56:	83 c8 fa             	or     $0xfffffffa,%eax
   14e59:	48 0f be c0          	movsbq %al,%rax
   14e5d:	48 89 85 40 df ff ff 	mov    %rax,-0x20c0(%rbp)
   14e64:	44 8b bd 54 df ff ff 	mov    -0x20ac(%rbp),%r15d
   14e6b:	8b 05 a3 f3 00 00    	mov    0xf3a3(%rip),%eax        # 24214 <g_1297+0x14>
   14e71:	89 c2                	mov    %eax,%edx
   14e73:	8b 85 54 df ff ff    	mov    -0x20ac(%rbp),%eax
   14e79:	21 c2                	and    %eax,%edx
   14e7b:	0f b6 85 85 df ff ff 	movzbl -0x207b(%rbp),%eax
   14e82:	21 d0                	and    %edx,%eax
   14e84:	0f b7 c0             	movzwl %ax,%eax
   14e87:	be 04 00 00 00       	mov    $0x4,%esi
   14e8c:	89 c7                	mov    %eax,%edi
   14e8e:	e8 e7 6f ff ff       	callq  be7a <safe_rshift_func_uint16_t_u_u>
   14e93:	48 8d 05 16 15 01 00 	lea    0x11516(%rip),%rax        # 263b0 <g_737>
   14e9a:	48 39 85 80 e2 ff ff 	cmp    %rax,-0x1d80(%rbp)
   14ea1:	74 07                	je     14eaa <func_47+0x27a6>
   14ea3:	b8 01 00 00 00       	mov    $0x1,%eax
   14ea8:	eb 05                	jmp    14eaf <func_47+0x27ab>
   14eaa:	b8 00 00 00 00       	mov    $0x0,%eax
   14eaf:	98                   	cwtl   
   14eb0:	be 06 00 00 00       	mov    $0x6,%esi
   14eb5:	89 c7                	mov    %eax,%edi
   14eb7:	e8 17 65 ff ff       	callq  b3d3 <safe_sub_func_int16_t_s_s>
   14ebc:	0f b7 c0             	movzwl %ax,%eax
   14ebf:	44 89 fe             	mov    %r15d,%esi
   14ec2:	89 c7                	mov    %eax,%edi
   14ec4:	e8 7f 6f ff ff       	callq  be48 <safe_rshift_func_uint16_t_u_s>
   14ec9:	0f b7 c0             	movzwl %ax,%eax
   14ecc:	48 39 85 40 df ff ff 	cmp    %rax,-0x20c0(%rbp)
   14ed3:	7e 07                	jle    14edc <func_47+0x27d8>
   14ed5:	b8 01 00 00 00       	mov    $0x1,%eax
   14eda:	eb 05                	jmp    14ee1 <func_47+0x27dd>
   14edc:	b8 00 00 00 00       	mov    $0x0,%eax
   14ee1:	39 85 48 df ff ff    	cmp    %eax,-0x20b8(%rbp)
   14ee7:	0f 9c c0             	setl   %al
   14eea:	0f b6 d0             	movzbl %al,%edx
   14eed:	8b 85 e4 e3 ff ff    	mov    -0x1c1c(%rbp),%eax
   14ef3:	39 c2                	cmp    %eax,%edx
   14ef5:	7f 07                	jg     14efe <func_47+0x27fa>
   14ef7:	ba 01 00 00 00       	mov    $0x1,%edx
   14efc:	eb 05                	jmp    14f03 <func_47+0x27ff>
   14efe:	ba 00 00 00 00       	mov    $0x0,%edx
   14f03:	48 8b 05 ae 14 01 00 	mov    0x114ae(%rip),%rax        # 263b8 <g_965>
   14f0a:	48 8b 00             	mov    (%rax),%rax
   14f0d:	48 39 c2             	cmp    %rax,%rdx
   14f10:	0f 9c c0             	setl   %al
   14f13:	0f b6 d0             	movzbl %al,%edx
   14f16:	0f bf 85 96 df ff ff 	movswl -0x206a(%rbp),%eax
   14f1d:	09 d0                	or     %edx,%eax
   14f1f:	f7 d0                	not    %eax
   14f21:	c1 e8 1f             	shr    $0x1f,%eax
   14f24:	0f b6 c0             	movzbl %al,%eax
   14f27:	44 89 f6             	mov    %r14d,%esi
   14f2a:	89 c7                	mov    %eax,%edi
   14f2c:	e8 5c 6d ff ff       	callq  bc8d <safe_rshift_func_uint8_t_u_s>
   14f31:	8b 15 d1 f2 00 00    	mov    0xf2d1(%rip),%edx        # 24208 <g_1297+0x8>
   14f37:	09 d0                	or     %edx,%eax
   14f39:	0f b6 c0             	movzbl %al,%eax
   14f3c:	be 02 00 00 00       	mov    $0x2,%esi
   14f41:	89 c7                	mov    %eax,%edi
   14f43:	e8 76 6d ff ff       	callq  bcbe <safe_rshift_func_uint8_t_u_u>
   14f48:	48 8b 85 58 df ff ff 	mov    -0x20a8(%rbp),%rax
   14f4f:	0f b6 00             	movzbl (%rax),%eax
   14f52:	0f be c0             	movsbl %al,%eax
   14f55:	89 c6                	mov    %eax,%esi
   14f57:	bf a7 ff ff ff       	mov    $0xffffffa7,%edi
   14f5c:	e8 09 63 ff ff       	callq  b26a <safe_div_func_int8_t_s_s>
   14f61:	0f be d0             	movsbl %al,%edx
   14f64:	8b 05 aa f2 00 00    	mov    0xf2aa(%rip),%eax        # 24214 <g_1297+0x14>
   14f6a:	39 c2                	cmp    %eax,%edx
   14f6c:	0f 96 c0             	setbe  %al
   14f6f:	0f b6 c0             	movzbl %al,%eax
   14f72:	48 89 05 ff f0 00 00 	mov    %rax,0xf0ff(%rip)        # 24078 <g_21+0x38>
   14f79:	48 8b 05 f8 f0 00 00 	mov    0xf0f8(%rip),%rax        # 24078 <g_21+0x38>
   14f80:	4c 89 ee             	mov    %r13,%rsi
   14f83:	48 89 c7             	mov    %rax,%rdi
   14f86:	e8 24 71 ff ff       	callq  c0af <safe_div_func_uint64_t_u_u>
   14f8b:	33 85 54 df ff ff    	xor    -0x20ac(%rbp),%eax
   14f91:	89 c7                	mov    %eax,%edi
   14f93:	e8 fe 65 ff ff       	callq  b596 <safe_unary_minus_func_int32_t_s>
   14f98:	0f b6 c0             	movzbl %al,%eax
   14f9b:	8b 95 54 df ff ff    	mov    -0x20ac(%rbp),%edx
   14fa1:	89 d6                	mov    %edx,%esi
   14fa3:	89 c7                	mov    %eax,%edi
   14fa5:	e8 a2 6c ff ff       	callq  bc4c <safe_lshift_func_uint8_t_u_u>
   14faa:	0f b6 c0             	movzbl %al,%eax
   14fad:	4c 89 e6             	mov    %r12,%rsi
   14fb0:	48 89 c7             	mov    %rax,%rdi
   14fb3:	e8 89 68 ff ff       	callq  b841 <safe_add_func_int64_t_s_s>
   14fb8:	48 89 c7             	mov    %rax,%rdi
   14fbb:	48 8b 95 68 df ff ff 	mov    -0x2098(%rbp),%rdx
   14fc2:	48 8b 85 58 df ff ff 	mov    -0x20a8(%rbp),%rax
   14fc9:	49 89 d0             	mov    %rdx,%r8
   14fcc:	48 89 d9             	mov    %rbx,%rcx
   14fcf:	48 8d 15 1e f2 00 00 	lea    0xf21e(%rip),%rdx        # 241f4 <g_892>
   14fd6:	48 89 c6             	mov    %rax,%rsi
   14fd9:	e8 86 75 00 00       	callq  1c564 <func_69>
   14fde:	48 8b 95 10 e3 ff ff 	mov    -0x1cf0(%rbp),%rdx
   14fe5:	48 89 02             	mov    %rax,(%rdx)
   14fe8:	eb 01                	jmp    14feb <func_47+0x28e7>
   14fea:	90                   	nop
   14feb:	8b 05 03 f2 00 00    	mov    0xf203(%rip),%eax        # 241f4 <g_892>
   14ff1:	83 c0 01             	add    $0x1,%eax
   14ff4:	89 05 fa f1 00 00    	mov    %eax,0xf1fa(%rip)        # 241f4 <g_892>
   14ffa:	8b 05 f4 f1 00 00    	mov    0xf1f4(%rip),%eax        # 241f4 <g_892>
   15000:	85 c0                	test   %eax,%eax
   15002:	0f 8e 43 fc ff ff    	jle    14c4b <func_47+0x2547>
   15008:	48 8b 05 b1 13 01 00 	mov    0x113b1(%rip),%rax        # 263c0 <g_1058>
   1500f:	8b 00                	mov    (%rax),%eax
   15011:	85 c0                	test   %eax,%eax
   15013:	75 1d                	jne    15032 <func_47+0x292e>
   15015:	83 85 b4 df ff ff 01 	addl   $0x1,-0x204c(%rbp)
   1501c:	83 85 c8 df ff ff 01 	addl   $0x1,-0x2038(%rbp)
   15023:	83 bd c8 df ff ff 16 	cmpl   $0x16,-0x2038(%rbp)
   1502a:	0f 8f f5 fa ff ff    	jg     14b25 <func_47+0x2421>
   15030:	eb 01                	jmp    15033 <func_47+0x292f>
   15032:	90                   	nop
   15033:	8b 05 5f f1 00 00    	mov    0xf15f(%rip),%eax        # 24198 <g_214>
   15039:	83 c0 01             	add    $0x1,%eax
   1503c:	89 05 56 f1 00 00    	mov    %eax,0xf156(%rip)        # 24198 <g_214>
   15042:	8b 05 50 f1 00 00    	mov    0xf150(%rip),%eax        # 24198 <g_214>
   15048:	83 f8 08             	cmp    $0x8,%eax
   1504b:	0f 86 03 f2 ff ff    	jbe    14254 <func_47+0x1b50>
   15051:	eb 01                	jmp    15054 <func_47+0x2950>
   15053:	90                   	nop
   15054:	66 c7 05 2b 39 01 00 	movw   $0x0,0x1392b(%rip)        # 28988 <g_239>
   1505b:	00 00 
   1505d:	e9 1c 12 00 00       	jmpq   1627e <func_47+0x3b7a>
   15062:	c7 85 7c e0 ff ff fd 	movl   $0xfffffffd,-0x1f84(%rbp)
   15069:	ff ff ff 
   1506c:	c7 85 80 e0 ff ff ff 	movl   $0xffffffff,-0x1f80(%rbp)
   15073:	ff ff ff 
   15076:	c6 85 88 df ff ff fc 	movb   $0xfc,-0x2078(%rbp)
   1507d:	c7 85 e8 e0 ff ff c5 	movl   $0xd2a9b6c5,-0x1f18(%rbp)
   15084:	b6 a9 d2 
   15087:	48 b8 e3 f8 c7 cf 57 	movabs $0x207a5257cfc7f8e3,%rax
   1508e:	52 7a 20 
   15091:	48 89 85 40 e3 ff ff 	mov    %rax,-0x1cc0(%rbp)
   15098:	c7 45 c2 71 71 f7 71 	movl   $0x71f77171,-0x3e(%rbp)
   1509f:	66 c7 45 c6 71 f7    	movw   $0xf771,-0x3a(%rbp)
   150a5:	48 8d 05 48 f1 00 00 	lea    0xf148(%rip),%rax        # 241f4 <g_892>
   150ac:	48 89 85 50 e5 ff ff 	mov    %rax,-0x1ab0(%rbp)
   150b3:	48 c7 85 58 e5 ff ff 	movq   $0x0,-0x1aa8(%rbp)
   150ba:	00 00 00 00 
   150be:	48 8d 05 2f f1 00 00 	lea    0xf12f(%rip),%rax        # 241f4 <g_892>
   150c5:	48 89 85 60 e5 ff ff 	mov    %rax,-0x1aa0(%rbp)
   150cc:	48 c7 85 68 e5 ff ff 	movq   $0x0,-0x1a98(%rbp)
   150d3:	00 00 00 00 
   150d7:	48 8d 05 16 f1 00 00 	lea    0xf116(%rip),%rax        # 241f4 <g_892>
   150de:	48 89 85 70 e5 ff ff 	mov    %rax,-0x1a90(%rbp)
   150e5:	48 c7 85 78 e5 ff ff 	movq   $0x0,-0x1a88(%rbp)
   150ec:	00 00 00 00 
   150f0:	48 8d 05 fd f0 00 00 	lea    0xf0fd(%rip),%rax        # 241f4 <g_892>
   150f7:	48 89 85 80 e5 ff ff 	mov    %rax,-0x1a80(%rbp)
   150fe:	48 c7 85 88 e5 ff ff 	movq   $0x0,-0x1a78(%rbp)
   15105:	00 00 00 00 
   15109:	48 8d 05 e4 f0 00 00 	lea    0xf0e4(%rip),%rax        # 241f4 <g_892>
   15110:	48 89 85 90 e5 ff ff 	mov    %rax,-0x1a70(%rbp)
   15117:	48 c7 85 98 e5 ff ff 	movq   $0x0,-0x1a68(%rbp)
   1511e:	00 00 00 00 
   15122:	48 8d 05 c4 f0 00 00 	lea    0xf0c4(%rip),%rax        # 241ed <g_867>
   15129:	48 89 85 f8 e0 ff ff 	mov    %rax,-0x1f08(%rbp)
   15130:	48 8d 85 f8 e0 ff ff 	lea    -0x1f08(%rbp),%rax
   15137:	48 89 85 48 e3 ff ff 	mov    %rax,-0x1cb8(%rbp)
   1513e:	48 8d 85 a0 e0 ff ff 	lea    -0x1f60(%rbp),%rax
   15145:	48 89 85 50 e3 ff ff 	mov    %rax,-0x1cb0(%rbp)
   1514c:	c7 85 dc df ff ff 00 	movl   $0x0,-0x2024(%rbp)
   15153:	00 00 00 
   15156:	eb 1a                	jmp    15172 <func_47+0x2a6e>
   15158:	8b 85 dc df ff ff    	mov    -0x2024(%rbp),%eax
   1515e:	48 98                	cltq   
   15160:	c7 84 85 30 e4 ff ff 	movl   $0xffffffff,-0x1bd0(%rbp,%rax,4)
   15167:	ff ff ff ff 
   1516b:	83 85 dc df ff ff 01 	addl   $0x1,-0x2024(%rbp)
   15172:	83 bd dc df ff ff 02 	cmpl   $0x2,-0x2024(%rbp)
   15179:	7e dd                	jle    15158 <func_47+0x2a54>
   1517b:	48 8b 05 4e 12 01 00 	mov    0x1124e(%rip),%rax        # 263d0 <g_1123>
   15182:	48 8b 00             	mov    (%rax),%rax
   15185:	0f b7 00             	movzwl (%rax),%eax
   15188:	0f bf d0             	movswl %ax,%edx
   1518b:	0f b7 05 f6 37 01 00 	movzwl 0x137f6(%rip),%eax        # 28988 <g_239>
   15192:	98                   	cwtl   
   15193:	48 98                	cltq   
   15195:	48 8d 0c 85 00 00 00 	lea    0x0(,%rax,4),%rcx
   1519c:	00 
   1519d:	48 8d 05 10 f0 00 00 	lea    0xf010(%rip),%rax        # 241b4 <g_248>
   151a4:	8b 04 01             	mov    (%rcx,%rax,1),%eax
   151a7:	98                   	cwtl   
   151a8:	89 d6                	mov    %edx,%esi
   151aa:	89 c7                	mov    %eax,%edi
   151ac:	e8 a4 62 ff ff       	callq  b455 <safe_div_func_int16_t_s_s>
   151b1:	0f bf c8             	movswl %ax,%ecx
   151b4:	48 8b 85 20 e1 ff ff 	mov    -0x1ee0(%rbp),%rax
   151bb:	48 8b 10             	mov    (%rax),%rdx
   151be:	48 8b 85 20 e1 ff ff 	mov    -0x1ee0(%rbp),%rax
   151c5:	48 89 10             	mov    %rdx,(%rax)
   151c8:	48 8b 85 20 e1 ff ff 	mov    -0x1ee0(%rbp),%rax
   151cf:	48 8b 00             	mov    (%rax),%rax
   151d2:	48 8d 15 97 ef 00 00 	lea    0xef97(%rip),%rdx        # 24170 <g_190+0x10>
   151d9:	48 39 d0             	cmp    %rdx,%rax
   151dc:	0f 95 c0             	setne  %al
   151df:	0f b6 d0             	movzbl %al,%edx
   151e2:	48 8b 05 d7 11 01 00 	mov    0x111d7(%rip),%rax        # 263c0 <g_1058>
   151e9:	21 ca                	and    %ecx,%edx
   151eb:	89 10                	mov    %edx,(%rax)
   151ed:	0f b7 05 94 37 01 00 	movzwl 0x13794(%rip),%eax        # 28988 <g_239>
   151f4:	98                   	cwtl   
   151f5:	8d 50 07             	lea    0x7(%rax),%edx
   151f8:	0f b7 05 89 37 01 00 	movzwl 0x13789(%rip),%eax        # 28988 <g_239>
   151ff:	98                   	cwtl   
   15200:	8d 48 07             	lea    0x7(%rax),%ecx
   15203:	48 63 c2             	movslq %edx,%rax
   15206:	48 8d 14 c5 00 00 00 	lea    0x0(,%rax,8),%rdx
   1520d:	00 
   1520e:	48 8d 05 8b 37 01 00 	lea    0x1378b(%rip),%rax        # 289a0 <g_399>
   15215:	48 8b 04 02          	mov    (%rdx,%rax,1),%rax
   15219:	48 63 d1             	movslq %ecx,%rdx
   1521c:	48 8d 0c d5 00 00 00 	lea    0x0(,%rdx,8),%rcx
   15223:	00 
   15224:	48 8d 15 75 37 01 00 	lea    0x13775(%rip),%rdx        # 289a0 <g_399>
   1522b:	48 89 04 11          	mov    %rax,(%rcx,%rdx,1)
   1522f:	c6 05 9a ef 00 00 00 	movb   $0x0,0xef9a(%rip)        # 241d0 <g_377>
   15236:	e9 12 10 00 00       	jmpq   1624d <func_47+0x3b49>
   1523b:	48 8d 85 50 e8 ff ff 	lea    -0x17b0(%rbp),%rax
   15242:	48 83 c0 58          	add    $0x58,%rax
   15246:	48 89 85 58 e3 ff ff 	mov    %rax,-0x1ca8(%rbp)
   1524d:	c7 85 84 e0 ff ff 01 	movl   $0x1,-0x1f7c(%rbp)
   15254:	00 00 00 
   15257:	c7 85 88 e0 ff ff 54 	movl   $0x67925054,-0x1f78(%rbp)
   1525e:	50 92 67 
   15261:	c7 85 50 ee ff ff 88 	movl   $0x7fb55588,-0x11b0(%rbp)
   15268:	55 b5 7f 
   1526b:	c7 85 54 ee ff ff 3b 	movl   $0x785aee3b,-0x11ac(%rbp)
   15272:	ee 5a 78 
   15275:	c7 85 58 ee ff ff 81 	movl   $0xce94c981,-0x11a8(%rbp)
   1527c:	c9 94 ce 
   1527f:	c7 85 5c ee ff ff 02 	movl   $0x2,-0x11a4(%rbp)
   15286:	00 00 00 
   15289:	c7 85 60 ee ff ff 68 	movl   $0x49e59c68,-0x11a0(%rbp)
   15290:	9c e5 49 
   15293:	c7 85 64 ee ff ff 02 	movl   $0x2,-0x119c(%rbp)
   1529a:	00 00 00 
   1529d:	c7 85 68 ee ff ff 81 	movl   $0xce94c981,-0x1198(%rbp)
   152a4:	c9 94 ce 
   152a7:	c7 85 6c ee ff ff 3b 	movl   $0x785aee3b,-0x1194(%rbp)
   152ae:	ee 5a 78 
   152b1:	c7 85 70 ee ff ff 88 	movl   $0x7fb55588,-0x1190(%rbp)
   152b8:	55 b5 7f 
   152bb:	c7 85 74 ee ff ff 02 	movl   $0x2,-0x118c(%rbp)
   152c2:	00 00 00 
   152c5:	c7 85 78 ee ff ff 69 	movl   $0x7120c169,-0x1188(%rbp)
   152cc:	c1 20 71 
   152cf:	c7 85 7c ee ff ff 02 	movl   $0x2,-0x1184(%rbp)
   152d6:	00 00 00 
   152d9:	c7 85 80 ee ff ff 88 	movl   $0x7fb55588,-0x1180(%rbp)
   152e0:	55 b5 7f 
   152e3:	c7 85 84 ee ff ff 3b 	movl   $0x785aee3b,-0x117c(%rbp)
   152ea:	ee 5a 78 
   152ed:	c7 85 88 ee ff ff 81 	movl   $0xce94c981,-0x1178(%rbp)
   152f4:	c9 94 ce 
   152f7:	c7 85 8c ee ff ff 02 	movl   $0x2,-0x1174(%rbp)
   152fe:	00 00 00 
   15301:	c7 85 90 ee ff ff 68 	movl   $0x49e59c68,-0x1170(%rbp)
   15308:	9c e5 49 
   1530b:	c7 85 94 ee ff ff 02 	movl   $0x2,-0x116c(%rbp)
   15312:	00 00 00 
   15315:	c7 85 98 ee ff ff 81 	movl   $0xce94c981,-0x1168(%rbp)
   1531c:	c9 94 ce 
   1531f:	c7 85 9c ee ff ff 3b 	movl   $0x785aee3b,-0x1164(%rbp)
   15326:	ee 5a 78 
   15329:	c7 85 a0 ee ff ff 88 	movl   $0x7fb55588,-0x1160(%rbp)
   15330:	55 b5 7f 
   15333:	c7 85 a4 ee ff ff 02 	movl   $0x2,-0x115c(%rbp)
   1533a:	00 00 00 
   1533d:	c7 85 a8 ee ff ff 69 	movl   $0x7120c169,-0x1158(%rbp)
   15344:	c1 20 71 
   15347:	c7 85 ac ee ff ff 02 	movl   $0x2,-0x1154(%rbp)
   1534e:	00 00 00 
   15351:	c7 85 b0 ee ff ff 88 	movl   $0x7fb55588,-0x1150(%rbp)
   15358:	55 b5 7f 
   1535b:	c7 85 b4 ee ff ff 3b 	movl   $0x785aee3b,-0x114c(%rbp)
   15362:	ee 5a 78 
   15365:	c7 85 b8 ee ff ff 81 	movl   $0xce94c981,-0x1148(%rbp)
   1536c:	c9 94 ce 
   1536f:	c7 85 bc ee ff ff 02 	movl   $0x2,-0x1144(%rbp)
   15376:	00 00 00 
   15379:	c7 85 c0 ee ff ff 68 	movl   $0x49e59c68,-0x1140(%rbp)
   15380:	9c e5 49 
   15383:	c7 85 c4 ee ff ff 02 	movl   $0x2,-0x113c(%rbp)
   1538a:	00 00 00 
   1538d:	c7 85 c8 ee ff ff 81 	movl   $0xce94c981,-0x1138(%rbp)
   15394:	c9 94 ce 
   15397:	c7 85 cc ee ff ff 3b 	movl   $0x785aee3b,-0x1134(%rbp)
   1539e:	ee 5a 78 
   153a1:	c7 85 d0 ee ff ff 88 	movl   $0x7fb55588,-0x1130(%rbp)
   153a8:	55 b5 7f 
   153ab:	c7 85 d4 ee ff ff 02 	movl   $0x2,-0x112c(%rbp)
   153b2:	00 00 00 
   153b5:	c7 85 d8 ee ff ff 69 	movl   $0x7120c169,-0x1128(%rbp)
   153bc:	c1 20 71 
   153bf:	c7 85 dc ee ff ff 02 	movl   $0x2,-0x1124(%rbp)
   153c6:	00 00 00 
   153c9:	c7 85 e0 ee ff ff 88 	movl   $0x7fb55588,-0x1120(%rbp)
   153d0:	55 b5 7f 
   153d3:	c7 85 e4 ee ff ff 3b 	movl   $0x785aee3b,-0x111c(%rbp)
   153da:	ee 5a 78 
   153dd:	c7 85 e8 ee ff ff 81 	movl   $0xce94c981,-0x1118(%rbp)
   153e4:	c9 94 ce 
   153e7:	c7 85 ec ee ff ff 02 	movl   $0x2,-0x1114(%rbp)
   153ee:	00 00 00 
   153f1:	c7 85 f0 ee ff ff 68 	movl   $0x49e59c68,-0x1110(%rbp)
   153f8:	9c e5 49 
   153fb:	c7 85 f4 ee ff ff 02 	movl   $0x2,-0x110c(%rbp)
   15402:	00 00 00 
   15405:	c7 85 f8 ee ff ff 81 	movl   $0xce94c981,-0x1108(%rbp)
   1540c:	c9 94 ce 
   1540f:	c7 85 fc ee ff ff 3b 	movl   $0x785aee3b,-0x1104(%rbp)
   15416:	ee 5a 78 
   15419:	c7 85 00 ef ff ff 88 	movl   $0x7fb55588,-0x1100(%rbp)
   15420:	55 b5 7f 
   15423:	c7 85 04 ef ff ff 02 	movl   $0x2,-0x10fc(%rbp)
   1542a:	00 00 00 
   1542d:	c7 85 08 ef ff ff 69 	movl   $0x7120c169,-0x10f8(%rbp)
   15434:	c1 20 71 
   15437:	c7 85 0c ef ff ff 02 	movl   $0x2,-0x10f4(%rbp)
   1543e:	00 00 00 
   15441:	48 b8 02 9b 60 01 60 	movabs $0x9b029b6001609b02,%rax
   15448:	9b 02 9b 
   1544b:	48 89 85 a0 e5 ff ff 	mov    %rax,-0x1a60(%rbp)
   15452:	c6 85 a8 e5 ff ff 60 	movb   $0x60,-0x1a58(%rbp)
   15459:	48 bb f6 ca ca f6 ff 	movabs $0xff57cafff6cacaf6,%rbx
   15460:	ca 57 ff 
   15463:	48 89 9d a9 e5 ff ff 	mov    %rbx,-0x1a57(%rbp)
   1546a:	c6 85 b1 e5 ff ff ff 	movb   $0xff,-0x1a4f(%rbp)
   15471:	48 b9 49 9b f7 01 f7 	movabs $0x9b499bf701f79b49,%rcx
   15478:	9b 49 9b 
   1547b:	48 89 8d b2 e5 ff ff 	mov    %rcx,-0x1a4e(%rbp)
   15482:	c6 85 ba e5 ff ff f7 	movb   $0xf7,-0x1a46(%rbp)
   15489:	48 bf f6 ff ca 57 ff 	movabs $0xca57ffff57cafff6,%rdi
   15490:	ff 57 ca 
   15493:	48 89 bd bb e5 ff ff 	mov    %rdi,-0x1a45(%rbp)
   1549a:	c6 85 c3 e5 ff ff ff 	movb   $0xff,-0x1a3d(%rbp)
   154a1:	48 89 85 c4 e5 ff ff 	mov    %rax,-0x1a3c(%rbp)
   154a8:	c6 85 cc e5 ff ff 60 	movb   $0x60,-0x1a34(%rbp)
   154af:	48 89 9d cd e5 ff ff 	mov    %rbx,-0x1a33(%rbp)
   154b6:	c6 85 d5 e5 ff ff ff 	movb   $0xff,-0x1a2b(%rbp)
   154bd:	48 89 8d d6 e5 ff ff 	mov    %rcx,-0x1a2a(%rbp)
   154c4:	c6 85 de e5 ff ff f7 	movb   $0xf7,-0x1a22(%rbp)
   154cb:	48 b8 f6 ff ca 57 ff 	movabs $0xff57ffff57cafff6,%rax
   154d2:	ff 57 ff 
   154d5:	48 89 85 df e5 ff ff 	mov    %rax,-0x1a21(%rbp)
   154dc:	c6 85 e7 e5 ff ff 00 	movb   $0x0,-0x1a19(%rbp)
   154e3:	48 b8 60 01 84 9b 84 	movabs $0x16001849b840160,%rax
   154ea:	01 60 01 
   154ed:	48 89 85 e8 e5 ff ff 	mov    %rax,-0x1a18(%rbp)
   154f4:	c6 85 f0 e5 ff ff 84 	movb   $0x84,-0x1a10(%rbp)
   154fb:	48 b8 ff ff ff ff 00 	movabs $0xcaff00ffffffff,%rax
   15502:	ff ca 00 
   15505:	48 89 85 f1 e5 ff ff 	mov    %rax,-0x1a0f(%rbp)
   1550c:	c6 85 f9 e5 ff ff 00 	movb   $0x0,-0x1a07(%rbp)
   15513:	48 c7 85 60 e3 ff ff 	movq   $0x0,-0x1ca0(%rbp)
   1551a:	00 00 00 00 
   1551e:	48 8b 85 b0 e0 ff ff 	mov    -0x1f50(%rbp),%rax
   15525:	c6 00 17             	movb   $0x17,(%rax)
   15528:	48 8b 85 18 e1 ff ff 	mov    -0x1ee8(%rbp),%rax
   1552f:	48 8b 00             	mov    (%rax),%rax
   15532:	48 8b 00             	mov    (%rax),%rax
   15535:	48 8b 10             	mov    (%rax),%rdx
   15538:	48 8b 85 58 e3 ff ff 	mov    -0x1ca8(%rbp),%rax
   1553f:	48 8d 0d 58 eb 00 00 	lea    0xeb58(%rip),%rcx        # 2409e <g_116>
   15546:	48 89 08             	mov    %rcx,(%rax)
   15549:	48 8b 85 58 e3 ff ff 	mov    -0x1ca8(%rbp),%rax
   15550:	48 8b 00             	mov    (%rax),%rax
   15553:	48 39 c2             	cmp    %rax,%rdx
   15556:	0f 84 a1 03 00 00    	je     158fd <func_47+0x31f9>
   1555c:	c7 85 08 e1 ff ff ff 	movl   $0xffffffff,-0x1ef8(%rbp)
   15563:	ff ff ff 
   15566:	48 c7 85 78 e3 ff ff 	movq   $0x0,-0x1c88(%rbp)
   1556d:	00 00 00 00 
   15571:	0f b7 05 10 34 01 00 	movzwl 0x13410(%rip),%eax        # 28988 <g_239>
   15578:	98                   	cwtl   
   15579:	83 c0 07             	add    $0x7,%eax
   1557c:	48 98                	cltq   
   1557e:	48 8d 14 c5 00 00 00 	lea    0x0(,%rax,8),%rdx
   15585:	00 
   15586:	48 8d 05 13 34 01 00 	lea    0x13413(%rip),%rax        # 289a0 <g_399>
   1558d:	48 01 d0             	add    %rdx,%rax
   15590:	48 89 85 80 e3 ff ff 	mov    %rax,-0x1c80(%rbp)
   15597:	c7 85 e0 df ff ff 00 	movl   $0x0,-0x2020(%rbp)
   1559e:	00 00 00 
   155a1:	eb 1a                	jmp    155bd <func_47+0x2eb9>
   155a3:	8b 85 e0 df ff ff    	mov    -0x2020(%rbp),%eax
   155a9:	48 98                	cltq   
   155ab:	c7 84 85 80 e4 ff ff 	movl   $0xf168b1df,-0x1b80(%rbp,%rax,4)
   155b2:	df b1 68 f1 
   155b6:	83 85 e0 df ff ff 01 	addl   $0x1,-0x2020(%rbp)
   155bd:	83 bd e0 df ff ff 01 	cmpl   $0x1,-0x2020(%rbp)
   155c4:	7e dd                	jle    155a3 <func_47+0x2e9f>
   155c6:	c7 05 20 ec 00 00 e5 	movl   $0xffffffe5,0xec20(%rip)        # 241f0 <g_891>
   155cd:	ff ff ff 
   155d0:	eb 35                	jmp    15607 <func_47+0x2f03>
   155d2:	48 8d 05 1b ec 00 00 	lea    0xec1b(%rip),%rax        # 241f4 <g_892>
   155d9:	48 89 85 88 e3 ff ff 	mov    %rax,-0x1c78(%rbp)
   155e0:	83 bd 84 e0 ff ff 00 	cmpl   $0x0,-0x1f7c(%rbp)
   155e7:	75 2b                	jne    15614 <func_47+0x2f10>
   155e9:	8b 85 08 e1 ff ff    	mov    -0x1ef8(%rbp),%eax
   155ef:	83 c0 01             	add    $0x1,%eax
   155f2:	89 85 08 e1 ff ff    	mov    %eax,-0x1ef8(%rbp)
   155f8:	8b 05 f2 eb 00 00    	mov    0xebf2(%rip),%eax        # 241f0 <g_891>
   155fe:	83 c0 01             	add    $0x1,%eax
   15601:	89 05 e9 eb 00 00    	mov    %eax,0xebe9(%rip)        # 241f0 <g_891>
   15607:	8b 05 e3 eb 00 00    	mov    0xebe3(%rip),%eax        # 241f0 <g_891>
   1560d:	83 f8 ec             	cmp    $0xffffffec,%eax
   15610:	7c c0                	jl     155d2 <func_47+0x2ece>
   15612:	eb 01                	jmp    15615 <func_47+0x2f11>
   15614:	90                   	nop
   15615:	48 c7 05 c0 eb 00 00 	movq   $0x0,0xebc0(%rip)        # 241e0 <g_432>
   1561c:	00 00 00 00 
   15620:	e9 25 01 00 00       	jmpq   1574a <func_47+0x3046>
   15625:	48 8d 05 a8 eb 00 00 	lea    0xeba8(%rip),%rax        # 241d4 <g_394>
   1562c:	48 89 85 a0 e3 ff ff 	mov    %rax,-0x1c60(%rbp)
   15633:	48 8d 05 9a eb 00 00 	lea    0xeb9a(%rip),%rax        # 241d4 <g_394>
   1563a:	48 89 85 a8 e3 ff ff 	mov    %rax,-0x1c58(%rbp)
   15641:	c6 85 89 df ff ff 01 	movb   $0x1,-0x2077(%rbp)
   15648:	c7 85 e4 df ff ff 00 	movl   $0x0,-0x201c(%rbp)
   1564f:	00 00 00 
   15652:	eb 1e                	jmp    15672 <func_47+0x2f6e>
   15654:	8b 85 e4 df ff ff    	mov    -0x201c(%rbp),%eax
   1565a:	48 98                	cltq   
   1565c:	48 8d 95 e4 e3 ff ff 	lea    -0x1c1c(%rbp),%rdx
   15663:	48 89 94 c5 80 ea ff 	mov    %rdx,-0x1580(%rbp,%rax,8)
   1566a:	ff 
   1566b:	83 85 e4 df ff ff 01 	addl   $0x1,-0x201c(%rbp)
   15672:	83 bd e4 df ff ff 01 	cmpl   $0x1,-0x201c(%rbp)
   15679:	7e d9                	jle    15654 <func_47+0x2f50>
   1567b:	8b 85 84 e0 ff ff    	mov    -0x1f7c(%rbp),%eax
   15681:	0f b6 d8             	movzbl %al,%ebx
   15684:	48 8b 05 4d 0d 01 00 	mov    0x10d4d(%rip),%rax        # 263d8 <g_1122>
   1568b:	48 8b 00             	mov    (%rax),%rax
   1568e:	48 8b 00             	mov    (%rax),%rax
   15691:	48 8b 05 50 0d 01 00 	mov    0x10d50(%rip),%rax        # 263e8 <g_1404>
   15698:	0f b7 00             	movzwl (%rax),%eax
   1569b:	0f b7 c0             	movzwl %ax,%eax
   1569e:	be 00 00 00 00       	mov    $0x0,%esi
   156a3:	89 c7                	mov    %eax,%edi
   156a5:	e8 75 66 ff ff       	callq  bd1f <safe_sub_func_uint16_t_u_u>
   156aa:	44 0f b7 e0          	movzwl %ax,%r12d
   156ae:	48 8b 85 68 df ff ff 	mov    -0x2098(%rbp),%rax
   156b5:	48 89 85 a8 e3 ff ff 	mov    %rax,-0x1c58(%rbp)
   156bc:	48 8b 85 a8 e3 ff ff 	mov    -0x1c58(%rbp),%rax
   156c3:	48 3b 85 a0 e3 ff ff 	cmp    -0x1c60(%rbp),%rax
   156ca:	be 04 00 00 00       	mov    $0x4,%esi
   156cf:	bf 00 00 00 00       	mov    $0x0,%edi
   156d4:	e8 93 5c ff ff       	callq  b36c <safe_rshift_func_int8_t_s_u>
   156d9:	0f be c0             	movsbl %al,%eax
   156dc:	89 85 e8 e3 ff ff    	mov    %eax,-0x1c18(%rbp)
   156e2:	8b 85 e8 e3 ff ff    	mov    -0x1c18(%rbp),%eax
   156e8:	0f b7 c0             	movzwl %ax,%eax
   156eb:	44 89 e6             	mov    %r12d,%esi
   156ee:	89 c7                	mov    %eax,%edi
   156f0:	e8 99 66 ff ff       	callq  bd8e <safe_div_func_uint16_t_u_u>
   156f5:	0f b6 c0             	movzbl %al,%eax
   156f8:	89 de                	mov    %ebx,%esi
   156fa:	89 c7                	mov    %eax,%edi
   156fc:	e8 ad 64 ff ff       	callq  bbae <safe_mod_func_uint8_t_u_u>
   15701:	89 c2                	mov    %eax,%edx
   15703:	48 8b 05 b6 0c 01 00 	mov    0x10cb6(%rip),%rax        # 263c0 <g_1058>
   1570a:	0f b6 d2             	movzbl %dl,%edx
   1570d:	89 10                	mov    %edx,(%rax)
   1570f:	80 85 89 df ff ff 01 	addb   $0x1,-0x2077(%rbp)
   15716:	48 8b 05 a3 0c 01 00 	mov    0x10ca3(%rip),%rax        # 263c0 <g_1058>
   1571d:	8b 08                	mov    (%rax),%ecx
   1571f:	48 83 bd 78 e3 ff ff 	cmpq   $0x0,-0x1c88(%rbp)
   15726:	00 
   15727:	0f 95 c0             	setne  %al
   1572a:	0f b6 d0             	movzbl %al,%edx
   1572d:	48 8b 05 8c 0c 01 00 	mov    0x10c8c(%rip),%rax        # 263c0 <g_1058>
   15734:	21 ca                	and    %ecx,%edx
   15736:	89 10                	mov    %edx,(%rax)
   15738:	48 8b 05 a1 ea 00 00 	mov    0xeaa1(%rip),%rax        # 241e0 <g_432>
   1573f:	48 83 c0 01          	add    $0x1,%rax
   15743:	48 89 05 96 ea 00 00 	mov    %rax,0xea96(%rip)        # 241e0 <g_432>
   1574a:	48 8b 05 8f ea 00 00 	mov    0xea8f(%rip),%rax        # 241e0 <g_432>
   15751:	48 83 f8 09          	cmp    $0x9,%rax
   15755:	0f 86 ca fe ff ff    	jbe    15625 <func_47+0x2f21>
   1575b:	c7 85 b4 df ff ff 03 	movl   $0x3,-0x204c(%rbp)
   15762:	00 00 00 
   15765:	e9 98 00 00 00       	jmpq   15802 <func_47+0x30fe>
   1576a:	48 b8 e4 d4 3a 32 6b 	movabs $0xbfbd086b323ad4e4,%rax
   15771:	08 bd bf 
   15774:	48 89 85 90 e3 ff ff 	mov    %rax,-0x1c70(%rbp)
   1577b:	48 8d 85 e4 e3 ff ff 	lea    -0x1c1c(%rbp),%rax
   15782:	48 89 85 98 e3 ff ff 	mov    %rax,-0x1c68(%rbp)
   15789:	c7 85 e8 df ff ff 00 	movl   $0x0,-0x2018(%rbp)
   15790:	00 00 00 
   15793:	eb 1e                	jmp    157b3 <func_47+0x30af>
   15795:	8b 85 e8 df ff ff    	mov    -0x2018(%rbp),%eax
   1579b:	48 98                	cltq   
   1579d:	48 8d 95 e8 e0 ff ff 	lea    -0x1f18(%rbp),%rdx
   157a4:	48 89 94 c5 80 ea ff 	mov    %rdx,-0x1580(%rbp,%rax,8)
   157ab:	ff 
   157ac:	83 85 e8 df ff ff 01 	addl   $0x1,-0x2018(%rbp)
   157b3:	83 bd e8 df ff ff 03 	cmpl   $0x3,-0x2018(%rbp)
   157ba:	7e d9                	jle    15795 <func_47+0x3091>
   157bc:	0f b6 45 c7          	movzbl -0x39(%rbp),%eax
   157c0:	83 c0 01             	add    $0x1,%eax
   157c3:	88 45 c7             	mov    %al,-0x39(%rbp)
   157c6:	0f b7 05 bb 31 01 00 	movzwl 0x131bb(%rip),%eax        # 28988 <g_239>
   157cd:	98                   	cwtl   
   157ce:	83 c0 07             	add    $0x7,%eax
   157d1:	48 98                	cltq   
   157d3:	48 8d 14 c5 00 00 00 	lea    0x0(,%rax,8),%rdx
   157da:	00 
   157db:	48 8d 05 be 31 01 00 	lea    0x131be(%rip),%rax        # 289a0 <g_399>
   157e2:	48 8d 0d 0b ea 00 00 	lea    0xea0b(%rip),%rcx        # 241f4 <g_892>
   157e9:	48 89 0c 02          	mov    %rcx,(%rdx,%rax,1)
   157ed:	48 8b 85 68 df ff ff 	mov    -0x2098(%rbp),%rax
   157f4:	48 89 85 98 e5 ff ff 	mov    %rax,-0x1a68(%rbp)
   157fb:	83 85 b4 df ff ff 01 	addl   $0x1,-0x204c(%rbp)
   15802:	83 bd b4 df ff ff 09 	cmpl   $0x9,-0x204c(%rbp)
   15809:	0f 86 5b ff ff ff    	jbe    1576a <func_47+0x3066>
   1580f:	8b 9d 54 df ff ff    	mov    -0x20ac(%rbp),%ebx
   15815:	8b 85 54 df ff ff    	mov    -0x20ac(%rbp),%eax
   1581b:	44 0f b7 e0          	movzwl %ax,%r12d
   1581f:	8b 85 54 df ff ff    	mov    -0x20ac(%rbp),%eax
   15825:	44 0f b7 e8          	movzwl %ax,%r13d
   15829:	48 8b 05 b8 0b 01 00 	mov    0x10bb8(%rip),%rax        # 263e8 <g_1404>
   15830:	0f b7 00             	movzwl (%rax),%eax
   15833:	44 0f b7 f0          	movzwl %ax,%r14d
   15837:	48 8b 85 70 f8 ff ff 	mov    -0x790(%rbp),%rax
   1583e:	48 85 c0             	test   %rax,%rax
   15841:	0f 94 c0             	sete   %al
   15844:	0f b6 c0             	movzbl %al,%eax
   15847:	be 03 00 00 00       	mov    $0x3,%esi
   1584c:	89 c7                	mov    %eax,%edi
   1584e:	e8 8e 5c ff ff       	callq  b4e1 <safe_lshift_func_int16_t_s_u>
   15853:	44 89 f6             	mov    %r14d,%esi
   15856:	bf 01 00 00 00       	mov    $0x1,%edi
   1585b:	e8 dd 64 ff ff       	callq  bd3d <safe_mul_func_uint16_t_u_u>
   15860:	0f b7 c0             	movzwl %ax,%eax
   15863:	44 89 ee             	mov    %r13d,%esi
   15866:	89 c7                	mov    %eax,%edi
   15868:	e8 d0 64 ff ff       	callq  bd3d <safe_mul_func_uint16_t_u_u>
   1586d:	8b 05 75 e9 00 00    	mov    0xe975(%rip),%eax        # 241e8 <g_446>
   15873:	85 c0                	test   %eax,%eax
   15875:	0f 95 c0             	setne  %al
   15878:	0f b6 d0             	movzbl %al,%edx
   1587b:	48 8b 85 60 e2 ff ff 	mov    -0x1da0(%rbp),%rax
   15882:	66 89 10             	mov    %dx,(%rax)
   15885:	48 8b 85 60 e2 ff ff 	mov    -0x1da0(%rbp),%rax
   1588c:	0f b7 00             	movzwl (%rax),%eax
   1588f:	98                   	cwtl   
   15890:	be 0c 00 00 00       	mov    $0xc,%esi
   15895:	89 c7                	mov    %eax,%edi
   15897:	e8 8e 5c ff ff       	callq  b52a <safe_rshift_func_int16_t_s_s>
   1589c:	0f b6 c0             	movzbl %al,%eax
   1589f:	89 c7                	mov    %eax,%edi
   158a1:	e8 9f 62 ff ff       	callq  bb45 <safe_unary_minus_func_uint8_t_u>
   158a6:	0f b6 d0             	movzbl %al,%edx
   158a9:	83 bd 54 df ff ff 01 	cmpl   $0x1,-0x20ac(%rbp)
   158b0:	0f 97 c0             	seta   %al
   158b3:	0f b6 c0             	movzbl %al,%eax
   158b6:	39 c2                	cmp    %eax,%edx
   158b8:	0f 9c c0             	setl   %al
   158bb:	0f b6 c0             	movzbl %al,%eax
   158be:	44 89 e6             	mov    %r12d,%esi
   158c1:	89 c7                	mov    %eax,%edi
   158c3:	e8 c6 64 ff ff       	callq  bd8e <safe_div_func_uint16_t_u_u>
   158c8:	0f b7 c0             	movzwl %ax,%eax
   158cb:	48 8d 95 08 e1 ff ff 	lea    -0x1ef8(%rbp),%rdx
   158d2:	48 8b b5 58 df ff ff 	mov    -0x20a8(%rbp),%rsi
   158d9:	49 89 d0             	mov    %rdx,%r8
   158dc:	48 89 d9             	mov    %rbx,%rcx
   158df:	48 8d 15 f2 e8 00 00 	lea    0xe8f2(%rip),%rdx        # 241d8 <g_400>
   158e6:	48 89 c7             	mov    %rax,%rdi
   158e9:	e8 76 6c 00 00       	callq  1c564 <func_69>
   158ee:	48 8b 95 80 e3 ff ff 	mov    -0x1c80(%rbp),%rdx
   158f5:	48 89 02             	mov    %rax,(%rdx)
   158f8:	e9 28 01 00 00       	jmpq   15a25 <func_47+0x3321>
   158fd:	48 c7 85 68 e3 ff ff 	movq   $0xfffffffffffffff9,-0x1c98(%rbp)
   15904:	f9 ff ff ff 
   15908:	c7 05 d6 e8 00 00 05 	movl   $0x5,0xe8d6(%rip)        # 241e8 <g_446>
   1590f:	00 00 00 
   15912:	90                   	nop
   15913:	8b 05 cf e8 00 00    	mov    0xe8cf(%rip),%eax        # 241e8 <g_446>
   15919:	83 f8 06             	cmp    $0x6,%eax
   1591c:	0f 8f 03 01 00 00    	jg     15a25 <func_47+0x3321>
   15922:	48 8d 05 8f e8 00 00 	lea    0xe88f(%rip),%rax        # 241b8 <g_300>
   15929:	48 89 85 70 e3 ff ff 	mov    %rax,-0x1c90(%rbp)
   15930:	c7 85 8c e0 ff ff 00 	movl   $0x0,-0x1f74(%rbp)
   15937:	00 00 00 
   1593a:	48 8b 85 68 e3 ff ff 	mov    -0x1c98(%rbp),%rax
   15941:	89 c1                	mov    %eax,%ecx
   15943:	48 8b 85 70 e3 ff ff 	mov    -0x1c90(%rbp),%rax
   1594a:	48 8b 10             	mov    (%rax),%rdx
   1594d:	8b 85 54 df ff ff    	mov    -0x20ac(%rbp),%eax
   15953:	48 31 c2             	xor    %rax,%rdx
   15956:	48 8b 85 70 e3 ff ff 	mov    -0x1c90(%rbp),%rax
   1595d:	48 89 10             	mov    %rdx,(%rax)
   15960:	48 8b 85 70 e3 ff ff 	mov    -0x1c90(%rbp),%rax
   15967:	48 8b 00             	mov    (%rax),%rax
   1596a:	66 33 85 8c df ff ff 	xor    -0x2074(%rbp),%ax
   15971:	98                   	cwtl   
   15972:	89 ce                	mov    %ecx,%esi
   15974:	89 c7                	mov    %eax,%edi
   15976:	e8 17 5b ff ff       	callq  b492 <safe_lshift_func_int16_t_s_s>
   1597b:	66 85 c0             	test   %ax,%ax
   1597e:	75 07                	jne    15987 <func_47+0x3283>
   15980:	83 bd 8c e0 ff ff 00 	cmpl   $0x0,-0x1f74(%rbp)
   15987:	0f b6 05 5f e8 00 00 	movzbl 0xe85f(%rip),%eax        # 241ed <g_867>
   1598e:	0f b6 c0             	movzbl %al,%eax
   15991:	48 98                	cltq   
   15993:	48 8d 14 00          	lea    (%rax,%rax,1),%rdx
   15997:	48 8d 05 02 e8 00 00 	lea    0xe802(%rip),%rax        # 241a0 <g_241>
   1599e:	0f b7 04 02          	movzwl (%rdx,%rax,1),%eax
   159a2:	98                   	cwtl   
   159a3:	39 85 54 df ff ff    	cmp    %eax,-0x20ac(%rbp)
   159a9:	0f 94 c0             	sete   %al
   159ac:	0f b6 d8             	movzbl %al,%ebx
   159af:	48 8b 85 58 df ff ff 	mov    -0x20a8(%rbp),%rax
   159b6:	0f b6 00             	movzbl (%rax),%eax
   159b9:	0f be c0             	movsbl %al,%eax
   159bc:	be ff ff ff ff       	mov    $0xffffffff,%esi
   159c1:	89 c7                	mov    %eax,%edi
   159c3:	e8 4a 58 ff ff       	callq  b212 <safe_mul_func_int8_t_s_s>
   159c8:	66 98                	cbtw   
   159ca:	0f b7 c0             	movzwl %ax,%eax
   159cd:	89 de                	mov    %ebx,%esi
   159cf:	89 c7                	mov    %eax,%edi
   159d1:	e8 30 64 ff ff       	callq  be06 <safe_lshift_func_uint16_t_u_u>
   159d6:	8b 85 8c e0 ff ff    	mov    -0x1f74(%rbp),%eax
   159dc:	0d 46 45 de 4f       	or     $0x4fde4546,%eax
   159e1:	89 c2                	mov    %eax,%edx
   159e3:	48 8b 05 fe 09 01 00 	mov    0x109fe(%rip),%rax        # 263e8 <g_1404>
   159ea:	0f b7 00             	movzwl (%rax),%eax
   159ed:	89 c1                	mov    %eax,%ecx
   159ef:	8b 85 0c ef ff ff    	mov    -0x10f4(%rbp),%eax
   159f5:	21 c1                	and    %eax,%ecx
   159f7:	48 8b 05 ea 09 01 00 	mov    0x109ea(%rip),%rax        # 263e8 <g_1404>
   159fe:	66 89 08             	mov    %cx,(%rax)
   15a01:	0f b7 00             	movzwl (%rax),%eax
   15a04:	0f b7 c0             	movzwl %ax,%eax
   15a07:	89 d6                	mov    %edx,%esi
   15a09:	89 c7                	mov    %eax,%edi
   15a0b:	e8 ae 63 ff ff       	callq  bdbe <safe_lshift_func_uint16_t_u_s>
   15a10:	0f b7 c0             	movzwl %ax,%eax
   15a13:	89 85 ec ee ff ff    	mov    %eax,-0x1114(%rbp)
   15a19:	48 8b 85 58 df ff ff 	mov    -0x20a8(%rbp),%rax
   15a20:	e9 7b 32 00 00       	jmpq   18ca0 <func_47+0x659c>
   15a25:	66 c7 05 72 e6 00 00 	movw   $0xffef,0xe672(%rip)        # 240a0 <g_124>
   15a2c:	ef ff 
   15a2e:	e9 ce 07 00 00       	jmpq   16201 <func_47+0x3afd>
   15a33:	c6 85 8a df ff ff 6c 	movb   $0x6c,-0x2076(%rbp)
   15a3a:	48 8d 05 57 2f 01 00 	lea    0x12f57(%rip),%rax        # 28998 <g_375>
   15a41:	48 89 85 b0 e3 ff ff 	mov    %rax,-0x1c50(%rbp)
   15a48:	c7 85 f0 e0 ff ff 94 	movl   $0x2e9e9894,-0x1f10(%rbp)
   15a4f:	98 9e 2e 
   15a52:	48 8d 05 3f e6 00 00 	lea    0xe63f(%rip),%rax        # 24098 <g_89>
   15a59:	48 89 85 80 ea ff ff 	mov    %rax,-0x1580(%rbp)
   15a60:	48 8d 05 31 e6 00 00 	lea    0xe631(%rip),%rax        # 24098 <g_89>
   15a67:	48 89 85 88 ea ff ff 	mov    %rax,-0x1578(%rbp)
   15a6e:	48 c7 85 90 ea ff ff 	movq   $0x0,-0x1570(%rbp)
   15a75:	00 00 00 00 
   15a79:	48 c7 85 98 ea ff ff 	movq   $0x0,-0x1568(%rbp)
   15a80:	00 00 00 00 
   15a84:	48 8d 05 0d e6 00 00 	lea    0xe60d(%rip),%rax        # 24098 <g_89>
   15a8b:	48 89 85 a0 ea ff ff 	mov    %rax,-0x1560(%rbp)
   15a92:	48 8d 05 ff e5 00 00 	lea    0xe5ff(%rip),%rax        # 24098 <g_89>
   15a99:	48 89 85 a8 ea ff ff 	mov    %rax,-0x1558(%rbp)
   15aa0:	48 8d 05 0d e7 00 00 	lea    0xe70d(%rip),%rax        # 241b4 <g_248>
   15aa7:	48 89 85 b0 ea ff ff 	mov    %rax,-0x1550(%rbp)
   15aae:	48 8d 05 e3 e5 00 00 	lea    0xe5e3(%rip),%rax        # 24098 <g_89>
   15ab5:	48 89 85 b8 ea ff ff 	mov    %rax,-0x1548(%rbp)
   15abc:	48 8d 05 d5 e5 00 00 	lea    0xe5d5(%rip),%rax        # 24098 <g_89>
   15ac3:	48 89 85 c0 ea ff ff 	mov    %rax,-0x1540(%rbp)
   15aca:	48 c7 85 c8 ea ff ff 	movq   $0x0,-0x1538(%rbp)
   15ad1:	00 00 00 00 
   15ad5:	48 c7 85 d0 ea ff ff 	movq   $0x0,-0x1530(%rbp)
   15adc:	00 00 00 00 
   15ae0:	48 8d 05 b1 e5 00 00 	lea    0xe5b1(%rip),%rax        # 24098 <g_89>
   15ae7:	48 89 85 d8 ea ff ff 	mov    %rax,-0x1528(%rbp)
   15aee:	48 8d 05 a3 e5 00 00 	lea    0xe5a3(%rip),%rax        # 24098 <g_89>
   15af5:	48 89 85 e0 ea ff ff 	mov    %rax,-0x1520(%rbp)
   15afc:	48 8d 05 b1 e6 00 00 	lea    0xe6b1(%rip),%rax        # 241b4 <g_248>
   15b03:	48 89 85 e8 ea ff ff 	mov    %rax,-0x1518(%rbp)
   15b0a:	48 8d 05 87 e5 00 00 	lea    0xe587(%rip),%rax        # 24098 <g_89>
   15b11:	48 89 85 f0 ea ff ff 	mov    %rax,-0x1510(%rbp)
   15b18:	48 8d 05 79 e5 00 00 	lea    0xe579(%rip),%rax        # 24098 <g_89>
   15b1f:	48 89 85 f8 ea ff ff 	mov    %rax,-0x1508(%rbp)
   15b26:	c7 85 ec df ff ff 00 	movl   $0x0,-0x2014(%rbp)
   15b2d:	00 00 00 
   15b30:	eb 4e                	jmp    15b80 <func_47+0x347c>
   15b32:	c7 85 f0 df ff ff 00 	movl   $0x0,-0x2010(%rbp)
   15b39:	00 00 00 
   15b3c:	eb 32                	jmp    15b70 <func_47+0x346c>
   15b3e:	8b 85 f0 df ff ff    	mov    -0x2010(%rbp),%eax
   15b44:	48 63 c8             	movslq %eax,%rcx
   15b47:	8b 85 ec df ff ff    	mov    -0x2014(%rbp),%eax
   15b4d:	48 63 d0             	movslq %eax,%rdx
   15b50:	48 89 d0             	mov    %rdx,%rax
   15b53:	48 01 c0             	add    %rax,%rax
   15b56:	48 01 d0             	add    %rdx,%rax
   15b59:	48 01 c0             	add    %rax,%rax
   15b5c:	48 01 c8             	add    %rcx,%rax
   15b5f:	66 c7 84 45 80 e4 ff 	movw   $0x344,-0x1b80(%rbp,%rax,2)
   15b66:	ff 44 03 
   15b69:	83 85 f0 df ff ff 01 	addl   $0x1,-0x2010(%rbp)
   15b70:	83 bd f0 df ff ff 05 	cmpl   $0x5,-0x2010(%rbp)
   15b77:	7e c5                	jle    15b3e <func_47+0x343a>
   15b79:	83 85 ec df ff ff 01 	addl   $0x1,-0x2014(%rbp)
   15b80:	83 bd ec df ff ff 00 	cmpl   $0x0,-0x2014(%rbp)
   15b87:	7e a9                	jle    15b32 <func_47+0x342e>
   15b89:	48 8b 05 30 08 01 00 	mov    0x10830(%rip),%rax        # 263c0 <g_1058>
   15b90:	c7 00 be 44 a3 07    	movl   $0x7a344be,(%rax)
   15b96:	8b 85 54 df ff ff    	mov    -0x20ac(%rbp),%eax
   15b9c:	0f b6 c0             	movzbl %al,%eax
   15b9f:	be 03 00 00 00       	mov    $0x3,%esi
   15ba4:	89 c7                	mov    %eax,%edi
   15ba6:	e8 5a 60 ff ff       	callq  bc05 <safe_lshift_func_uint8_t_u_s>
   15bab:	48 8b 15 06 08 01 00 	mov    0x10806(%rip),%rdx        # 263b8 <g_965>
   15bb2:	48 8b 0a             	mov    (%rdx),%rcx
   15bb5:	0f b6 d0             	movzbl %al,%edx
   15bb8:	48 8b 05 f9 07 01 00 	mov    0x107f9(%rip),%rax        # 263b8 <g_965>
   15bbf:	48 09 ca             	or     %rcx,%rdx
   15bc2:	48 89 10             	mov    %rdx,(%rax)
   15bc5:	4c 8b 28             	mov    (%rax),%r13
   15bc8:	48 8b 85 58 df ff ff 	mov    -0x20a8(%rbp),%rax
   15bcf:	0f b6 00             	movzbl (%rax),%eax
   15bd2:	0f be d8             	movsbl %al,%ebx
   15bd5:	4c 8b b5 80 e5 ff ff 	mov    -0x1a80(%rbp),%r14
   15bdc:	8b 85 88 e0 ff ff    	mov    -0x1f78(%rbp),%eax
   15be2:	4c 63 e0             	movslq %eax,%r12
   15be5:	8b 85 54 df ff ff    	mov    -0x20ac(%rbp),%eax
   15beb:	0f b6 c0             	movzbl %al,%eax
   15bee:	be 03 00 00 00       	mov    $0x3,%esi
   15bf3:	89 c7                	mov    %eax,%edi
   15bf5:	e8 0b 60 ff ff       	callq  bc05 <safe_lshift_func_uint8_t_u_s>
   15bfa:	0f b6 c0             	movzbl %al,%eax
   15bfd:	48 8b 95 68 df ff ff 	mov    -0x2098(%rbp),%rdx
   15c04:	48 8b b5 68 e2 ff ff 	mov    -0x1d98(%rbp),%rsi
   15c0b:	4d 89 f0             	mov    %r14,%r8
   15c0e:	4c 89 e1             	mov    %r12,%rcx
   15c11:	48 89 c7             	mov    %rax,%rdi
   15c14:	e8 4b 69 00 00       	callq  1c564 <func_69>
   15c19:	48 8b 95 b0 e3 ff ff 	mov    -0x1c50(%rbp),%rdx
   15c20:	48 89 02             	mov    %rax,(%rdx)
   15c23:	89 de                	mov    %ebx,%esi
   15c25:	bf 17 00 00 00       	mov    $0x17,%edi
   15c2a:	e8 3b 56 ff ff       	callq  b26a <safe_div_func_int8_t_s_s>
   15c2f:	38 85 8a df ff ff    	cmp    %al,-0x2076(%rbp)
   15c35:	0f 94 c0             	sete   %al
   15c38:	0f b6 c0             	movzbl %al,%eax
   15c3b:	39 85 54 df ff ff    	cmp    %eax,-0x20ac(%rbp)
   15c41:	0f 94 c0             	sete   %al
   15c44:	0f b6 c0             	movzbl %al,%eax
   15c47:	39 85 88 e0 ff ff    	cmp    %eax,-0x1f78(%rbp)
   15c4d:	0f 9e c0             	setle  %al
   15c50:	0f b6 c0             	movzbl %al,%eax
   15c53:	39 85 54 df ff ff    	cmp    %eax,-0x20ac(%rbp)
   15c59:	0f 96 c0             	setbe  %al
   15c5c:	0f b6 c0             	movzbl %al,%eax
   15c5f:	49 39 c5             	cmp    %rax,%r13
   15c62:	0f 9c c0             	setl   %al
   15c65:	0f b6 d0             	movzbl %al,%edx
   15c68:	8b 85 f0 e0 ff ff    	mov    -0x1f10(%rbp),%eax
   15c6e:	09 d0                	or     %edx,%eax
   15c70:	89 85 f0 e0 ff ff    	mov    %eax,-0x1f10(%rbp)
   15c76:	8b 85 50 ee ff ff    	mov    -0x11b0(%rbp),%eax
   15c7c:	0f bf d8             	movswl %ax,%ebx
   15c7f:	44 8b a5 54 df ff ff 	mov    -0x20ac(%rbp),%r12d
   15c86:	48 8b 05 4b 07 01 00 	mov    0x1074b(%rip),%rax        # 263d8 <g_1122>
   15c8d:	48 8b 00             	mov    (%rax),%rax
   15c90:	48 8b 00             	mov    (%rax),%rax
   15c93:	66 c7 00 01 00       	movw   $0x1,(%rax)
   15c98:	48 83 bd 60 df ff ff 	cmpq   $0x0,-0x20a0(%rbp)
   15c9f:	00 
   15ca0:	0f 94 c0             	sete   %al
   15ca3:	0f b6 c0             	movzbl %al,%eax
   15ca6:	be 01 00 00 00       	mov    $0x1,%esi
   15cab:	89 c7                	mov    %eax,%edi
   15cad:	e8 a3 57 ff ff       	callq  b455 <safe_div_func_int16_t_s_s>
   15cb2:	66 85 c0             	test   %ax,%ax
   15cb5:	74 16                	je     15ccd <func_47+0x35c9>
   15cb7:	48 8b 05 fa 06 01 00 	mov    0x106fa(%rip),%rax        # 263b8 <g_965>
   15cbe:	48 8b 00             	mov    (%rax),%rax
   15cc1:	48 85 c0             	test   %rax,%rax
   15cc4:	74 07                	je     15ccd <func_47+0x35c9>
   15cc6:	b8 01 00 00 00       	mov    $0x1,%eax
   15ccb:	eb 05                	jmp    15cd2 <func_47+0x35ce>
   15ccd:	b8 00 00 00 00       	mov    $0x0,%eax
   15cd2:	89 c2                	mov    %eax,%edx
   15cd4:	0f b6 05 75 e4 00 00 	movzbl 0xe475(%rip),%eax        # 24150 <g_184>
   15cdb:	31 d0                	xor    %edx,%eax
   15cdd:	88 05 6d e4 00 00    	mov    %al,0xe46d(%rip)        # 24150 <g_184>
   15ce3:	0f b6 05 66 e4 00 00 	movzbl 0xe466(%rip),%eax        # 24150 <g_184>
   15cea:	44 0f b6 e8          	movzbl %al,%r13d
   15cee:	0f b7 85 10 e4 ff ff 	movzwl -0x1bf0(%rbp),%eax
   15cf5:	44 0f bf f0          	movswl %ax,%r14d
   15cf9:	48 8b 85 58 df ff ff 	mov    -0x20a8(%rbp),%rax
   15d00:	0f b6 00             	movzbl (%rax),%eax
   15d03:	0f be c0             	movsbl %al,%eax
   15d06:	be 01 00 00 00       	mov    $0x1,%esi
   15d0b:	89 c7                	mov    %eax,%edi
   15d0d:	e8 dc 55 ff ff       	callq  b2ee <safe_lshift_func_int8_t_s_u>
   15d12:	44 89 f6             	mov    %r14d,%esi
   15d15:	bf 01 00 00 00       	mov    $0x1,%edi
   15d1a:	e8 06 62 ff ff       	callq  bf25 <safe_div_func_uint32_t_u_u>
   15d1f:	89 c2                	mov    %eax,%edx
   15d21:	8b 85 14 e0 ff ff    	mov    -0x1fec(%rbp),%eax
   15d27:	09 d0                	or     %edx,%eax
   15d29:	0f b6 c0             	movzbl %al,%eax
   15d2c:	44 89 ee             	mov    %r13d,%esi
   15d2f:	89 c7                	mov    %eax,%edi
   15d31:	e8 5d 5e ff ff       	callq  bb93 <safe_mul_func_uint8_t_u_u>
   15d36:	0f b6 c0             	movzbl %al,%eax
   15d39:	23 85 b4 df ff ff    	and    -0x204c(%rbp),%eax
   15d3f:	89 c2                	mov    %eax,%edx
   15d41:	48 8b 05 78 06 01 00 	mov    0x10678(%rip),%rax        # 263c0 <g_1058>
   15d48:	89 10                	mov    %edx,(%rax)
   15d4a:	8b 00                	mov    (%rax),%eax
   15d4c:	44 89 e6             	mov    %r12d,%esi
   15d4f:	89 c7                	mov    %eax,%edi
   15d51:	e8 a9 59 ff ff       	callq  b6ff <safe_div_func_int32_t_s_s>
   15d56:	89 c2                	mov    %eax,%edx
   15d58:	8b 05 62 e4 00 00    	mov    0xe462(%rip),%eax        # 241c0 <g_362>
   15d5e:	0b 85 54 df ff ff    	or     -0x20ac(%rbp),%eax
   15d64:	89 05 56 e4 00 00    	mov    %eax,0xe456(%rip)        # 241c0 <g_362>
   15d6a:	8b 05 50 e4 00 00    	mov    0xe450(%rip),%eax        # 241c0 <g_362>
   15d70:	89 d6                	mov    %edx,%esi
   15d72:	89 c7                	mov    %eax,%edi
   15d74:	e8 84 61 ff ff       	callq  befd <safe_mod_func_uint32_t_u_u>
   15d79:	8b 85 a4 df ff ff    	mov    -0x205c(%rbp),%eax
   15d7f:	0f be c0             	movsbl %al,%eax
   15d82:	89 c6                	mov    %eax,%esi
   15d84:	bf 00 00 00 00       	mov    $0x0,%edi
   15d89:	e8 46 54 ff ff       	callq  b1d4 <safe_add_func_int8_t_s_s>
   15d8e:	84 c0                	test   %al,%al
   15d90:	74 13                	je     15da5 <func_47+0x36a1>
   15d92:	48 8b 05 8f e4 00 00 	mov    0xe48f(%rip),%rax        # 24228 <g_1622>
   15d99:	48 85 c0             	test   %rax,%rax
   15d9c:	74 07                	je     15da5 <func_47+0x36a1>
   15d9e:	b8 01 00 00 00       	mov    $0x1,%eax
   15da3:	eb 05                	jmp    15daa <func_47+0x36a6>
   15da5:	b8 00 00 00 00       	mov    $0x0,%eax
   15daa:	0f be c0             	movsbl %al,%eax
   15dad:	be 00 00 00 00       	mov    $0x0,%esi
   15db2:	89 c7                	mov    %eax,%edi
   15db4:	e8 59 54 ff ff       	callq  b212 <safe_mul_func_int8_t_s_s>
   15db9:	0f be c0             	movsbl %al,%eax
   15dbc:	89 de                	mov    %ebx,%esi
   15dbe:	89 c7                	mov    %eax,%edi
   15dc0:	e8 30 56 ff ff       	callq  b3f5 <safe_mul_func_int16_t_s_s>
   15dc5:	66 85 c0             	test   %ax,%ax
   15dc8:	74 0c                	je     15dd6 <func_47+0x36d2>
   15dca:	48 8b 85 60 e3 ff ff 	mov    -0x1ca0(%rbp),%rax
   15dd1:	e9 ca 2e 00 00       	jmpq   18ca0 <func_47+0x659c>
   15dd6:	48 c7 85 08 e1 ff ff 	movq   $0x0,-0x1ef8(%rbp)
   15ddd:	00 00 00 00 
   15de1:	48 8d 85 08 e1 ff ff 	lea    -0x1ef8(%rbp),%rax
   15de8:	48 89 85 b8 e3 ff ff 	mov    %rax,-0x1c48(%rbp)
   15def:	48 8d 05 82 e2 00 00 	lea    0xe282(%rip),%rax        # 24078 <g_21+0x38>
   15df6:	48 89 85 c0 e3 ff ff 	mov    %rax,-0x1c40(%rbp)
   15dfd:	8b 85 54 df ff ff    	mov    -0x20ac(%rbp),%eax
   15e03:	44 0f b6 e8          	movzbl %al,%r13d
   15e07:	48 8b 1d 32 e2 00 00 	mov    0xe232(%rip),%rbx        # 24040 <g_21>
   15e0e:	48 8b 05 b3 05 01 00 	mov    0x105b3(%rip),%rax        # 263c8 <g_1124>
   15e15:	0f b7 00             	movzwl (%rax),%eax
   15e18:	44 0f b7 e0          	movzwl %ax,%r12d
   15e1c:	8b 85 54 df ff ff    	mov    -0x20ac(%rbp),%eax
   15e22:	48 be b5 40 20 a3 97 	movabs $0xc52da897a32040b5,%rsi
   15e29:	a8 2d c5 
   15e2c:	48 89 c7             	mov    %rax,%rdi
   15e2f:	e8 7b 62 ff ff       	callq  c0af <safe_div_func_uint64_t_u_u>
   15e34:	48 8b 95 58 df ff ff 	mov    -0x20a8(%rbp),%rdx
   15e3b:	0f b6 12             	movzbl (%rdx),%edx
   15e3e:	48 0f be d2          	movsbq %dl,%rdx
   15e42:	48 39 d0             	cmp    %rdx,%rax
   15e45:	0f 95 c0             	setne  %al
   15e48:	0f b6 c0             	movzbl %al,%eax
   15e4b:	44 89 e6             	mov    %r12d,%esi
   15e4e:	89 c7                	mov    %eax,%edi
   15e50:	e8 aa 5e ff ff       	callq  bcff <safe_add_func_uint16_t_u_u>
   15e55:	0f b7 f0             	movzwl %ax,%esi
   15e58:	48 8b 85 b8 e3 ff ff 	mov    -0x1c48(%rbp),%rax
   15e5f:	48 c7 00 00 00 00 00 	movq   $0x0,(%rax)
   15e66:	48 8b 85 b8 e3 ff ff 	mov    -0x1c48(%rbp),%rax
   15e6d:	48 8b 00             	mov    (%rax),%rax
   15e70:	45 89 e8             	mov    %r13d,%r8d
   15e73:	48 8d 0d 22 e2 00 00 	lea    0xe222(%rip),%rcx        # 2409c <g_113>
   15e7a:	48 89 da             	mov    %rbx,%rdx
   15e7d:	48 89 c7             	mov    %rax,%rdi
   15e80:	e8 0d 65 00 00       	callq  1c392 <func_63>
   15e85:	48 8b 95 b8 e3 ff ff 	mov    -0x1c48(%rbp),%rdx
   15e8c:	48 89 02             	mov    %rax,(%rdx)
   15e8f:	48 8b 85 b8 e3 ff ff 	mov    -0x1c48(%rbp),%rax
   15e96:	48 8b 08             	mov    (%rax),%rcx
   15e99:	8b 95 54 df ff ff    	mov    -0x20ac(%rbp),%edx
   15e9f:	48 8b 05 12 05 01 00 	mov    0x10512(%rip),%rax        # 263b8 <g_965>
   15ea6:	48 8b 00             	mov    (%rax),%rax
   15ea9:	48 8b b5 58 df ff ff 	mov    -0x20a8(%rbp),%rsi
   15eb0:	49 89 c8             	mov    %rcx,%r8
   15eb3:	48 89 d1             	mov    %rdx,%rcx
   15eb6:	48 8d 15 1b e3 00 00 	lea    0xe31b(%rip),%rdx        # 241d8 <g_400>
   15ebd:	48 89 c7             	mov    %rax,%rdi
   15ec0:	e8 9f 66 00 00       	callq  1c564 <func_69>
   15ec5:	48 8b 95 b0 e3 ff ff 	mov    -0x1c50(%rbp),%rdx
   15ecc:	48 89 02             	mov    %rax,(%rdx)
   15ecf:	48 c7 05 de 2a 01 00 	movq   $0x0,0x12ade(%rip)        # 289b8 <g_399+0x18>
   15ed6:	00 00 00 00 
   15eda:	8b 85 04 e4 ff ff    	mov    -0x1bfc(%rbp),%eax
   15ee0:	85 c0                	test   %eax,%eax
   15ee2:	0f 85 fc 02 00 00    	jne    161e4 <func_47+0x3ae0>
   15ee8:	48 8b 05 f9 04 01 00 	mov    0x104f9(%rip),%rax        # 263e8 <g_1404>
   15eef:	0f b7 10             	movzwl (%rax),%edx
   15ef2:	83 c2 01             	add    $0x1,%edx
   15ef5:	66 89 10             	mov    %dx,(%rax)
   15ef8:	0f b7 00             	movzwl (%rax),%eax
   15efb:	66 85 c0             	test   %ax,%ax
   15efe:	0f 84 0b 01 00 00    	je     1600f <func_47+0x390b>
   15f04:	8b 95 54 df ff ff    	mov    -0x20ac(%rbp),%edx
   15f0a:	48 8b 85 c0 e3 ff ff 	mov    -0x1c40(%rbp),%rax
   15f11:	48 8b 00             	mov    (%rax),%rax
   15f14:	48 8d 48 01          	lea    0x1(%rax),%rcx
   15f18:	48 8b 85 c0 e3 ff ff 	mov    -0x1c40(%rbp),%rax
   15f1f:	48 89 08             	mov    %rcx,(%rax)
   15f22:	48 8b 85 c0 e3 ff ff 	mov    -0x1c40(%rbp),%rax
   15f29:	48 8b 00             	mov    (%rax),%rax
   15f2c:	48 85 c0             	test   %rax,%rax
   15f2f:	74 07                	je     15f38 <func_47+0x3834>
   15f31:	b8 01 00 00 00       	mov    $0x1,%eax
   15f36:	eb 05                	jmp    15f3d <func_47+0x3839>
   15f38:	b8 00 00 00 00       	mov    $0x0,%eax
   15f3d:	39 85 54 df ff ff    	cmp    %eax,-0x20ac(%rbp)
   15f43:	0f 92 c0             	setb   %al
   15f46:	0f b6 c0             	movzbl %al,%eax
   15f49:	48 89 d6             	mov    %rdx,%rsi
   15f4c:	48 89 c7             	mov    %rax,%rdi
   15f4f:	e8 2c 61 ff ff       	callq  c080 <safe_mod_func_uint64_t_u_u>
   15f54:	48 83 f8 fa          	cmp    $0xfffffffffffffffa,%rax
   15f58:	0f 97 c0             	seta   %al
   15f5b:	0f b6 d8             	movzbl %al,%ebx
   15f5e:	48 8b 85 58 df ff ff 	mov    -0x20a8(%rbp),%rax
   15f65:	0f b6 00             	movzbl (%rax),%eax
   15f68:	0f be d0             	movsbl %al,%edx
   15f6b:	48 8b 85 18 e1 ff ff 	mov    -0x1ee8(%rbp),%rax
   15f72:	48 8b 8d 50 e3 ff ff 	mov    -0x1cb0(%rbp),%rcx
   15f79:	48 89 08             	mov    %rcx,(%rax)
   15f7c:	48 8b 85 18 e1 ff ff 	mov    -0x1ee8(%rbp),%rax
   15f83:	48 8b 00             	mov    (%rax),%rax
   15f86:	48 85 c0             	test   %rax,%rax
   15f89:	0f 95 c0             	setne  %al
   15f8c:	0f b6 f0             	movzbl %al,%esi
   15f8f:	48 8b 05 3a 04 01 00 	mov    0x1043a(%rip),%rax        # 263d0 <g_1123>
   15f96:	48 8b 00             	mov    (%rax),%rax
   15f99:	0f b7 38             	movzwl (%rax),%edi
   15f9c:	0f b7 8d 10 e4 ff ff 	movzwl -0x1bf0(%rbp),%ecx
   15fa3:	48 8b 85 60 e2 ff ff 	mov    -0x1da0(%rbp),%rax
   15faa:	66 89 08             	mov    %cx,(%rax)
   15fad:	48 8b 85 60 e2 ff ff 	mov    -0x1da0(%rbp),%rax
   15fb4:	0f b7 00             	movzwl (%rax),%eax
   15fb7:	66 39 c7             	cmp    %ax,%di
   15fba:	7f 0c                	jg     15fc8 <func_47+0x38c4>
   15fbc:	0f b7 05 e5 e1 00 00 	movzwl 0xe1e5(%rip),%eax        # 241a8 <g_241+0x8>
   15fc3:	66 85 c0             	test   %ax,%ax
   15fc6:	74 07                	je     15fcf <func_47+0x38cb>
   15fc8:	b8 01 00 00 00       	mov    $0x1,%eax
   15fcd:	eb 05                	jmp    15fd4 <func_47+0x38d0>
   15fcf:	b8 00 00 00 00       	mov    $0x0,%eax
   15fd4:	39 f0                	cmp    %esi,%eax
   15fd6:	0f 9f c0             	setg   %al
   15fd9:	0f b6 c0             	movzbl %al,%eax
   15fdc:	89 d6                	mov    %edx,%esi
   15fde:	89 c7                	mov    %eax,%edi
   15fe0:	e8 2d 52 ff ff       	callq  b212 <safe_mul_func_int8_t_s_s>
   15fe5:	66 98                	cbtw   
   15fe7:	0f b7 c0             	movzwl %ax,%eax
   15fea:	89 de                	mov    %ebx,%esi
   15fec:	89 c7                	mov    %eax,%edi
   15fee:	e8 2c 5d ff ff       	callq  bd1f <safe_sub_func_uint16_t_u_u>
   15ff3:	0f b7 c0             	movzwl %ax,%eax
   15ff6:	be 01 00 00 00       	mov    $0x1,%esi
   15ffb:	89 c7                	mov    %eax,%edi
   15ffd:	e8 78 5e ff ff       	callq  be7a <safe_rshift_func_uint16_t_u_u>
   16002:	66 83 f8 01          	cmp    $0x1,%ax
   16006:	74 07                	je     1600f <func_47+0x390b>
   16008:	ba 01 00 00 00       	mov    $0x1,%edx
   1600d:	eb 05                	jmp    16014 <func_47+0x3910>
   1600f:	ba 00 00 00 00       	mov    $0x0,%edx
   16014:	48 8b 05 a5 03 01 00 	mov    0x103a5(%rip),%rax        # 263c0 <g_1058>
   1601b:	89 10                	mov    %edx,(%rax)
   1601d:	c7 05 99 e1 00 00 e2 	movl   $0xffffffe2,0xe199(%rip)        # 241c0 <g_362>
   16024:	ff ff ff 
   16027:	e9 a9 01 00 00       	jmpq   161d5 <func_47+0x3ad1>
   1602c:	c6 85 8b df ff ff 03 	movb   $0x3,-0x2075(%rbp)
   16033:	48 8d 05 17 e1 00 00 	lea    0xe117(%rip),%rax        # 24151 <g_188>
   1603a:	48 89 85 c8 e3 ff ff 	mov    %rax,-0x1c38(%rbp)
   16041:	0f b7 05 40 29 01 00 	movzwl 0x12940(%rip),%eax        # 28988 <g_239>
   16048:	98                   	cwtl   
   16049:	83 c0 07             	add    $0x7,%eax
   1604c:	48 98                	cltq   
   1604e:	48 8d 14 c5 00 00 00 	lea    0x0(,%rax,8),%rdx
   16055:	00 
   16056:	48 8d 05 43 29 01 00 	lea    0x12943(%rip),%rax        # 289a0 <g_399>
   1605d:	48 01 d0             	add    %rdx,%rax
   16060:	48 89 85 00 e1 ff ff 	mov    %rax,-0x1f00(%rbp)
   16067:	48 8d 85 00 e1 ff ff 	lea    -0x1f00(%rbp),%rax
   1606e:	48 89 85 d0 e3 ff ff 	mov    %rax,-0x1c30(%rbp)
   16075:	48 8d 85 f0 e0 ff ff 	lea    -0x1f10(%rbp),%rax
   1607c:	48 89 85 08 e1 ff ff 	mov    %rax,-0x1ef8(%rbp)
   16083:	48 8d 85 08 e1 ff ff 	lea    -0x1ef8(%rbp),%rax
   1608a:	48 89 85 d8 e3 ff ff 	mov    %rax,-0x1c28(%rbp)
   16091:	8b 85 54 df ff ff    	mov    -0x20ac(%rbp),%eax
   16097:	89 85 a0 df ff ff    	mov    %eax,-0x2060(%rbp)
   1609d:	8b 85 a0 df ff ff    	mov    -0x2060(%rbp),%eax
   160a3:	39 85 54 df ff ff    	cmp    %eax,-0x20ac(%rbp)
   160a9:	72 69                	jb     16114 <func_47+0x3a10>
   160ab:	48 8b 05 76 e1 00 00 	mov    0xe176(%rip),%rax        # 24228 <g_1622>
   160b2:	89 c2                	mov    %eax,%edx
   160b4:	8b 85 54 df ff ff    	mov    -0x20ac(%rbp),%eax
   160ba:	89 c6                	mov    %eax,%esi
   160bc:	89 d7                	mov    %edx,%edi
   160be:	e8 3a 5e ff ff       	callq  befd <safe_mod_func_uint32_t_u_u>
   160c3:	89 c6                	mov    %eax,%esi
   160c5:	bf 00 00 00 00       	mov    $0x0,%edi
   160ca:	e8 30 56 ff ff       	callq  b6ff <safe_div_func_int32_t_s_s>
   160cf:	98                   	cwtl   
   160d0:	89 c6                	mov    %eax,%esi
   160d2:	bf ff ff ff ff       	mov    $0xffffffff,%edi
   160d7:	e8 3a 53 ff ff       	callq  b416 <safe_mod_func_int16_t_s_s>
   160dc:	0f b7 85 86 e4 ff ff 	movzwl -0x1b7a(%rbp),%eax
   160e3:	98                   	cwtl   
   160e4:	39 85 88 e0 ff ff    	cmp    %eax,-0x1f78(%rbp)
   160ea:	0f 9d c0             	setge  %al
   160ed:	0f b6 c0             	movzbl %al,%eax
   160f0:	be 60 00 00 00       	mov    $0x60,%esi
   160f5:	89 c7                	mov    %eax,%edi
   160f7:	e8 5e 5a ff ff       	callq  bb5a <safe_add_func_uint8_t_u_u>
   160fc:	0f b6 c0             	movzbl %al,%eax
   160ff:	89 c6                	mov    %eax,%esi
   16101:	bf 07 00 00 00       	mov    $0x7,%edi
   16106:	e8 a8 52 ff ff       	callq  b3b3 <safe_add_func_int16_t_s_s>
   1610b:	80 bd 8b df ff ff 00 	cmpb   $0x0,-0x2075(%rbp)
   16112:	74 07                	je     1611b <func_47+0x3a17>
   16114:	b8 01 00 00 00       	mov    $0x1,%eax
   16119:	eb 05                	jmp    16120 <func_47+0x3a1c>
   1611b:	b8 00 00 00 00       	mov    $0x0,%eax
   16120:	0f b7 c0             	movzwl %ax,%eax
   16123:	be 0f 00 00 00       	mov    $0xf,%esi
   16128:	89 c7                	mov    %eax,%edi
   1612a:	e8 19 5d ff ff       	callq  be48 <safe_rshift_func_uint16_t_u_s>
   1612f:	89 c2                	mov    %eax,%edx
   16131:	48 8b 85 c8 e3 ff ff 	mov    -0x1c38(%rbp),%rax
   16138:	88 10                	mov    %dl,(%rax)
   1613a:	48 8b 95 00 e1 ff ff 	mov    -0x1f00(%rbp),%rdx
   16141:	48 8b 85 d0 e3 ff ff 	mov    -0x1c30(%rbp),%rax
   16148:	48 89 10             	mov    %rdx,(%rax)
   1614b:	8b 05 97 e0 00 00    	mov    0xe097(%rip),%eax        # 241e8 <g_446>
   16151:	83 f8 fd             	cmp    $0xfffffffd,%eax
   16154:	0f 9d c0             	setge  %al
   16157:	0f b6 c0             	movzbl %al,%eax
   1615a:	89 c6                	mov    %eax,%esi
   1615c:	bf 27 00 00 00       	mov    $0x27,%edi
   16161:	e8 88 51 ff ff       	callq  b2ee <safe_lshift_func_int8_t_s_u>
   16166:	0f be c0             	movsbl %al,%eax
   16169:	89 85 f0 e0 ff ff    	mov    %eax,-0x1f10(%rbp)
   1616f:	48 8b 05 72 02 01 00 	mov    0x10272(%rip),%rax        # 263e8 <g_1404>
   16176:	0f b7 10             	movzwl (%rax),%edx
   16179:	8d 4a ff             	lea    -0x1(%rdx),%ecx
   1617c:	66 89 08             	mov    %cx,(%rax)
   1617f:	0f b7 d2             	movzwl %dx,%edx
   16182:	8b 8d e8 e3 ff ff    	mov    -0x1c18(%rbp),%ecx
   16188:	48 8b 05 31 02 01 00 	mov    0x10231(%rip),%rax        # 263c0 <g_1058>
   1618f:	8b 00                	mov    (%rax),%eax
   16191:	31 c8                	xor    %ecx,%eax
   16193:	39 c2                	cmp    %eax,%edx
   16195:	0f 9f c2             	setg   %dl
   16198:	48 8b 05 21 02 01 00 	mov    0x10221(%rip),%rax        # 263c0 <g_1058>
   1619f:	0f b6 d2             	movzbl %dl,%edx
   161a2:	89 10                	mov    %edx,(%rax)
   161a4:	48 8b 85 b0 e3 ff ff 	mov    -0x1c50(%rbp),%rax
   161ab:	48 8d 15 26 e0 00 00 	lea    0xe026(%rip),%rdx        # 241d8 <g_400>
   161b2:	48 89 10             	mov    %rdx,(%rax)
   161b5:	48 8b 85 d8 e3 ff ff 	mov    -0x1c28(%rbp),%rax
   161bc:	48 8b 95 60 df ff ff 	mov    -0x20a0(%rbp),%rdx
   161c3:	48 89 10             	mov    %rdx,(%rax)
   161c6:	8b 05 f4 df 00 00    	mov    0xdff4(%rip),%eax        # 241c0 <g_362>
   161cc:	83 c0 01             	add    $0x1,%eax
   161cf:	89 05 eb df 00 00    	mov    %eax,0xdfeb(%rip)        # 241c0 <g_362>
   161d5:	8b 05 e5 df 00 00    	mov    0xdfe5(%rip),%eax        # 241c0 <g_362>
   161db:	83 f8 20             	cmp    $0x20,%eax
   161de:	0f 84 48 fe ff ff    	je     1602c <func_47+0x3928>
   161e4:	0f b7 05 b5 de 00 00 	movzwl 0xdeb5(%rip),%eax        # 240a0 <g_124>
   161eb:	0f b7 c0             	movzwl %ax,%eax
   161ee:	be 03 00 00 00       	mov    $0x3,%esi
   161f3:	89 c7                	mov    %eax,%edi
   161f5:	e8 05 5b ff ff       	callq  bcff <safe_add_func_uint16_t_u_u>
   161fa:	66 89 05 9f de 00 00 	mov    %ax,0xde9f(%rip)        # 240a0 <g_124>
   16201:	0f b7 05 98 de 00 00 	movzwl 0xde98(%rip),%eax        # 240a0 <g_124>
   16208:	66 83 f8 2e          	cmp    $0x2e,%ax
   1620c:	0f 86 21 f8 ff ff    	jbe    15a33 <func_47+0x332f>
   16212:	66 c7 85 8c df ff ff 	movw   $0x0,-0x2074(%rbp)
   16219:	00 00 
   1621b:	66 83 bd 8c df ff ff 	cmpw   $0x5,-0x2074(%rbp)
   16222:	05 
   16223:	77 0c                	ja     16231 <func_47+0x3b2d>
   16225:	48 8b 85 70 e2 ff ff 	mov    -0x1d90(%rbp),%rax
   1622c:	e9 6f 2a 00 00       	jmpq   18ca0 <func_47+0x659c>
   16231:	0f b6 05 98 df 00 00 	movzbl 0xdf98(%rip),%eax        # 241d0 <g_377>
   16238:	0f be c0             	movsbl %al,%eax
   1623b:	be 05 00 00 00       	mov    $0x5,%esi
   16240:	89 c7                	mov    %eax,%edi
   16242:	e8 89 5c ff ff       	callq  bed0 <safe_sub_func_uint32_t_u_u>
   16247:	88 05 83 df 00 00    	mov    %al,0xdf83(%rip)        # 241d0 <g_377>
   1624d:	0f b6 05 7c df 00 00 	movzbl 0xdf7c(%rip),%eax        # 241d0 <g_377>
   16254:	3c f0                	cmp    $0xf0,%al
   16256:	0f 8c df ef ff ff    	jl     1523b <func_47+0x2b37>
   1625c:	0f b7 05 cd df 00 00 	movzwl 0xdfcd(%rip),%eax        # 24230 <g_1670>
   16263:	83 c0 01             	add    $0x1,%eax
   16266:	66 89 05 c3 df 00 00 	mov    %ax,0xdfc3(%rip)        # 24230 <g_1670>
   1626d:	0f b7 05 14 27 01 00 	movzwl 0x12714(%rip),%eax        # 28988 <g_239>
   16274:	83 e8 01             	sub    $0x1,%eax
   16277:	66 89 05 0a 27 01 00 	mov    %ax,0x1270a(%rip)        # 28988 <g_239>
   1627e:	0f b7 05 03 27 01 00 	movzwl 0x12703(%rip),%eax        # 28988 <g_239>
   16285:	66 85 c0             	test   %ax,%ax
   16288:	0f 89 d4 ed ff ff    	jns    15062 <func_47+0x295e>
   1628e:	83 bd 54 df ff ff 00 	cmpl   $0x0,-0x20ac(%rbp)
   16295:	0f b6 05 51 df 00 00 	movzbl 0xdf51(%rip),%eax        # 241ed <g_867>
   1629c:	83 c0 01             	add    $0x1,%eax
   1629f:	88 05 48 df 00 00    	mov    %al,0xdf48(%rip)        # 241ed <g_867>
   162a5:	0f b6 05 41 df 00 00 	movzbl 0xdf41(%rip),%eax        # 241ed <g_867>
   162ac:	3c 09                	cmp    $0x9,%al
   162ae:	0f 86 1b d0 ff ff    	jbe    132cf <func_47+0xbcb>
   162b4:	48 8b 15 fd 00 01 00 	mov    0x100fd(%rip),%rdx        # 263b8 <g_965>
   162bb:	48 8b 05 f6 00 01 00 	mov    0x100f6(%rip),%rax        # 263b8 <g_965>
   162c2:	48 8b 12             	mov    (%rdx),%rdx
   162c5:	48 89 10             	mov    %rdx,(%rax)
   162c8:	8b 85 54 df ff ff    	mov    -0x20ac(%rbp),%eax
   162ce:	89 c6                	mov    %eax,%esi
   162d0:	bf d3 5a e0 8e       	mov    $0x8ee05ad3,%edi
   162d5:	e8 23 5c ff ff       	callq  befd <safe_mod_func_uint32_t_u_u>
   162da:	0f b7 c0             	movzwl %ax,%eax
   162dd:	89 c7                	mov    %eax,%edi
   162df:	e8 05 5a ff ff       	callq  bce9 <safe_unary_minus_func_uint16_t_u>
   162e4:	0f b7 d0             	movzwl %ax,%edx
   162e7:	48 8b 85 a8 e0 ff ff 	mov    -0x1f58(%rbp),%rax
   162ee:	48 8b 08             	mov    (%rax),%rcx
   162f1:	48 8d 05 f0 00 01 00 	lea    0x100f0(%rip),%rax        # 263e8 <g_1404>
   162f8:	48 89 85 e8 f3 ff ff 	mov    %rax,-0xc18(%rbp)
   162ff:	48 8b 85 e8 f3 ff ff 	mov    -0xc18(%rbp),%rax
   16306:	48 39 c1             	cmp    %rax,%rcx
   16309:	0f 94 c0             	sete   %al
   1630c:	0f b6 c0             	movzbl %al,%eax
   1630f:	89 d6                	mov    %edx,%esi
   16311:	89 c7                	mov    %eax,%edi
   16313:	e8 d6 4f ff ff       	callq  b2ee <safe_lshift_func_int8_t_s_u>
   16318:	8b 85 54 df ff ff    	mov    -0x20ac(%rbp),%eax
   1631e:	0f b7 c0             	movzwl %ax,%eax
   16321:	be 06 00 00 00       	mov    $0x6,%esi
   16326:	89 c7                	mov    %eax,%edi
   16328:	e8 d9 5a ff ff       	callq  be06 <safe_lshift_func_uint16_t_u_u>
   1632d:	0f bf d0             	movswl %ax,%edx
   16330:	83 bd 14 e0 ff ff ff 	cmpl   $0xffffffff,-0x1fec(%rbp)
   16337:	0f 9c c0             	setl   %al
   1633a:	0f b6 c0             	movzbl %al,%eax
   1633d:	89 d6                	mov    %edx,%esi
   1633f:	89 c7                	mov    %eax,%edi
   16341:	e8 d0 50 ff ff       	callq  b416 <safe_mod_func_int16_t_s_s>
   16346:	48 0f bf d0          	movswq %ax,%rdx
   1634a:	48 8b 85 38 e1 ff ff 	mov    -0x1ec8(%rbp),%rax
   16351:	48 89 10             	mov    %rdx,(%rax)
   16354:	48 8b 85 38 e1 ff ff 	mov    -0x1ec8(%rbp),%rax
   1635b:	48 8b 00             	mov    (%rax),%rax
   1635e:	83 e0 01             	and    $0x1,%eax
   16361:	89 85 e4 e3 ff ff    	mov    %eax,-0x1c1c(%rbp)
   16367:	8b 85 54 df ff ff    	mov    -0x20ac(%rbp),%eax
   1636d:	89 c6                	mov    %eax,%esi
   1636f:	bf 00 00 00 00       	mov    $0x0,%edi
   16374:	e8 8d 5a ff ff       	callq  be06 <safe_lshift_func_uint16_t_u_u>
   16379:	c7 85 9c df ff ff c4 	movl   $0xf9af0cc4,-0x2064(%rbp)
   16380:	0c af f9 
   16383:	48 c7 05 3a de 00 00 	movq   $0x0,0xde3a(%rip)        # 241c8 <g_374>
   1638a:	00 00 00 00 
   1638e:	e9 f3 28 00 00       	jmpq   18c86 <func_47+0x6582>
   16393:	c7 85 24 e0 ff ff f2 	movl   $0x7c93c8f2,-0x1fdc(%rbp)
   1639a:	c8 93 7c 
   1639d:	48 c7 85 c8 e0 ff ff 	movq   $0x0,-0x1f38(%rbp)
   163a4:	00 00 00 00 
   163a8:	48 8d 05 09 de 00 00 	lea    0xde09(%rip),%rax        # 241b8 <g_300>
   163af:	48 89 85 58 e1 ff ff 	mov    %rax,-0x1ea8(%rbp)
   163b6:	c7 85 a0 df ff ff 87 	movl   $0x34401587,-0x2060(%rbp)
   163bd:	15 40 34 
   163c0:	c7 85 a4 df ff ff ff 	movl   $0xffffffff,-0x205c(%rbp)
   163c7:	ff ff ff 
   163ca:	48 8d 85 e0 f7 ff ff 	lea    -0x820(%rbp),%rax
   163d1:	48 8d 15 48 ef 00 00 	lea    0xef48(%rip),%rdx        # 25320 <g_3583+0x1090>
   163d8:	b9 fc 00 00 00       	mov    $0xfc,%ecx
   163dd:	48 89 c7             	mov    %rax,%rdi
   163e0:	48 89 d6             	mov    %rdx,%rsi
   163e3:	f3 48 a5             	rep movsq %ds:(%rsi),%es:(%rdi)
   163e6:	c7 85 f4 df ff ff 09 	movl   $0x9,-0x200c(%rbp)
   163ed:	00 00 00 
   163f0:	48 8d 05 e1 dd 00 00 	lea    0xdde1(%rip),%rax        # 241d8 <g_400>
   163f7:	48 89 85 a0 e5 ff ff 	mov    %rax,-0x1a60(%rbp)
   163fe:	48 8d 05 d3 dd 00 00 	lea    0xddd3(%rip),%rax        # 241d8 <g_400>
   16405:	48 89 85 a8 e5 ff ff 	mov    %rax,-0x1a58(%rbp)
   1640c:	48 8d 05 c5 dd 00 00 	lea    0xddc5(%rip),%rax        # 241d8 <g_400>
   16413:	48 89 85 b0 e5 ff ff 	mov    %rax,-0x1a50(%rbp)
   1641a:	48 c7 85 b8 e5 ff ff 	movq   $0x0,-0x1a48(%rbp)
   16421:	00 00 00 00 
   16425:	48 c7 85 c0 e5 ff ff 	movq   $0x0,-0x1a40(%rbp)
   1642c:	00 00 00 00 
   16430:	48 c7 85 c8 e5 ff ff 	movq   $0x0,-0x1a38(%rbp)
   16437:	00 00 00 00 
   1643b:	48 8d 05 96 dd 00 00 	lea    0xdd96(%rip),%rax        # 241d8 <g_400>
   16442:	48 89 85 d0 e5 ff ff 	mov    %rax,-0x1a30(%rbp)
   16449:	48 8d 05 88 dd 00 00 	lea    0xdd88(%rip),%rax        # 241d8 <g_400>
   16450:	48 89 85 d8 e5 ff ff 	mov    %rax,-0x1a28(%rbp)
   16457:	48 8d 05 7a dd 00 00 	lea    0xdd7a(%rip),%rax        # 241d8 <g_400>
   1645e:	48 89 85 e0 e5 ff ff 	mov    %rax,-0x1a20(%rbp)
   16465:	48 c7 85 e8 e5 ff ff 	movq   $0x0,-0x1a18(%rbp)
   1646c:	00 00 00 00 
   16470:	48 c7 85 f0 e5 ff ff 	movq   $0x0,-0x1a10(%rbp)
   16477:	00 00 00 00 
   1647b:	48 c7 85 f8 e5 ff ff 	movq   $0x0,-0x1a08(%rbp)
   16482:	00 00 00 00 
   16486:	48 8d 05 4b dd 00 00 	lea    0xdd4b(%rip),%rax        # 241d8 <g_400>
   1648d:	48 89 85 00 e6 ff ff 	mov    %rax,-0x1a00(%rbp)
   16494:	48 8d 05 3d dd 00 00 	lea    0xdd3d(%rip),%rax        # 241d8 <g_400>
   1649b:	48 89 85 08 e6 ff ff 	mov    %rax,-0x19f8(%rbp)
   164a2:	48 8d 05 2f dd 00 00 	lea    0xdd2f(%rip),%rax        # 241d8 <g_400>
   164a9:	48 89 85 10 e6 ff ff 	mov    %rax,-0x19f0(%rbp)
   164b0:	48 c7 85 18 e6 ff ff 	movq   $0x0,-0x19e8(%rbp)
   164b7:	00 00 00 00 
   164bb:	48 c7 85 20 e6 ff ff 	movq   $0x0,-0x19e0(%rbp)
   164c2:	00 00 00 00 
   164c6:	48 c7 85 28 e6 ff ff 	movq   $0x0,-0x19d8(%rbp)
   164cd:	00 00 00 00 
   164d1:	48 8d 05 00 dd 00 00 	lea    0xdd00(%rip),%rax        # 241d8 <g_400>
   164d8:	48 89 85 30 e6 ff ff 	mov    %rax,-0x19d0(%rbp)
   164df:	48 8d 05 f2 dc 00 00 	lea    0xdcf2(%rip),%rax        # 241d8 <g_400>
   164e6:	48 89 85 38 e6 ff ff 	mov    %rax,-0x19c8(%rbp)
   164ed:	48 8d 05 e4 dc 00 00 	lea    0xdce4(%rip),%rax        # 241d8 <g_400>
   164f4:	48 89 85 40 e6 ff ff 	mov    %rax,-0x19c0(%rbp)
   164fb:	48 8d 85 50 e6 ff ff 	lea    -0x19b0(%rbp),%rax
   16502:	48 05 98 00 00 00    	add    $0x98,%rax
   16508:	48 89 85 60 e1 ff ff 	mov    %rax,-0x1ea0(%rbp)
   1650f:	66 c7 85 80 e4 ff ff 	movw   $0x1,-0x1b80(%rbp)
   16516:	01 00 
   16518:	66 c7 85 82 e4 ff ff 	movw   $0x1,-0x1b7e(%rbp)
   1651f:	01 00 
   16521:	66 c7 85 84 e4 ff ff 	movw   $0x1,-0x1b7c(%rbp)
   16528:	01 00 
   1652a:	66 c7 85 86 e4 ff ff 	movw   $0xffff,-0x1b7a(%rbp)
   16531:	ff ff 
   16533:	66 c7 85 88 e4 ff ff 	movw   $0x0,-0x1b78(%rbp)
   1653a:	00 00 
   1653c:	66 c7 85 8a e4 ff ff 	movw   $0xffff,-0x1b76(%rbp)
   16543:	ff ff 
   16545:	66 c7 85 8c e4 ff ff 	movw   $0x1,-0x1b74(%rbp)
   1654c:	01 00 
   1654e:	66 c7 85 8e e4 ff ff 	movw   $0x1,-0x1b72(%rbp)
   16555:	01 00 
   16557:	66 c7 85 90 e4 ff ff 	movw   $0x1,-0x1b70(%rbp)
   1655e:	01 00 
   16560:	66 c7 85 92 e4 ff ff 	movw   $0xffff,-0x1b6e(%rbp)
   16567:	ff ff 
   16569:	66 c7 85 94 e4 ff ff 	movw   $0x0,-0x1b6c(%rbp)
   16570:	00 00 
   16572:	66 c7 85 96 e4 ff ff 	movw   $0xffff,-0x1b6a(%rbp)
   16579:	ff ff 
   1657b:	66 c7 85 98 e4 ff ff 	movw   $0x1,-0x1b68(%rbp)
   16582:	01 00 
   16584:	66 c7 85 9a e4 ff ff 	movw   $0x1,-0x1b66(%rbp)
   1658b:	01 00 
   1658d:	66 c7 85 9c e4 ff ff 	movw   $0x1,-0x1b64(%rbp)
   16594:	01 00 
   16596:	66 c7 85 9e e4 ff ff 	movw   $0xffff,-0x1b62(%rbp)
   1659d:	ff ff 
   1659f:	66 c7 85 a0 e4 ff ff 	movw   $0x0,-0x1b60(%rbp)
   165a6:	00 00 
   165a8:	66 c7 85 a2 e4 ff ff 	movw   $0xffff,-0x1b5e(%rbp)
   165af:	ff ff 
   165b1:	66 c7 85 a4 e4 ff ff 	movw   $0x1,-0x1b5c(%rbp)
   165b8:	01 00 
   165ba:	66 c7 85 a6 e4 ff ff 	movw   $0x1,-0x1b5a(%rbp)
   165c1:	01 00 
   165c3:	66 c7 85 a8 e4 ff ff 	movw   $0x1,-0x1b58(%rbp)
   165ca:	01 00 
   165cc:	66 c7 85 aa e4 ff ff 	movw   $0xffff,-0x1b56(%rbp)
   165d3:	ff ff 
   165d5:	66 c7 85 ac e4 ff ff 	movw   $0x0,-0x1b54(%rbp)
   165dc:	00 00 
   165de:	66 c7 85 ae e4 ff ff 	movw   $0xffff,-0x1b52(%rbp)
   165e5:	ff ff 
   165e7:	48 8d 05 5a fe 00 00 	lea    0xfe5a(%rip),%rax        # 26448 <g_2066>
   165ee:	48 89 85 68 e1 ff ff 	mov    %rax,-0x1e98(%rbp)
   165f5:	48 8d 85 d0 f2 ff ff 	lea    -0xd30(%rbp),%rax
   165fc:	48 05 18 01 00 00    	add    $0x118,%rax
   16602:	48 89 85 d0 e0 ff ff 	mov    %rax,-0x1f30(%rbp)
   16609:	48 c7 85 50 ee ff ff 	movq   $0x0,-0x11b0(%rbp)
   16610:	00 00 00 00 
   16614:	48 8d 85 d0 e0 ff ff 	lea    -0x1f30(%rbp),%rax
   1661b:	48 89 85 58 ee ff ff 	mov    %rax,-0x11a8(%rbp)
   16622:	48 8d 85 d0 e0 ff ff 	lea    -0x1f30(%rbp),%rax
   16629:	48 89 85 60 ee ff ff 	mov    %rax,-0x11a0(%rbp)
   16630:	48 8d 85 d0 e0 ff ff 	lea    -0x1f30(%rbp),%rax
   16637:	48 89 85 68 ee ff ff 	mov    %rax,-0x1198(%rbp)
   1663e:	48 8d 85 d0 e0 ff ff 	lea    -0x1f30(%rbp),%rax
   16645:	48 89 85 70 ee ff ff 	mov    %rax,-0x1190(%rbp)
   1664c:	48 c7 85 78 ee ff ff 	movq   $0x0,-0x1188(%rbp)
   16653:	00 00 00 00 
   16657:	48 c7 85 80 ee ff ff 	movq   $0x0,-0x1180(%rbp)
   1665e:	00 00 00 00 
   16662:	48 c7 85 88 ee ff ff 	movq   $0x0,-0x1178(%rbp)
   16669:	00 00 00 00 
   1666d:	48 8d 85 d0 e0 ff ff 	lea    -0x1f30(%rbp),%rax
   16674:	48 89 85 90 ee ff ff 	mov    %rax,-0x1170(%rbp)
   1667b:	48 8d 85 d0 e0 ff ff 	lea    -0x1f30(%rbp),%rax
   16682:	48 89 85 98 ee ff ff 	mov    %rax,-0x1168(%rbp)
   16689:	48 c7 85 a0 ee ff ff 	movq   $0x0,-0x1160(%rbp)
   16690:	00 00 00 00 
   16694:	48 8d 85 d0 e0 ff ff 	lea    -0x1f30(%rbp),%rax
   1669b:	48 89 85 a8 ee ff ff 	mov    %rax,-0x1158(%rbp)
   166a2:	48 c7 85 b0 ee ff ff 	movq   $0x0,-0x1150(%rbp)
   166a9:	00 00 00 00 
   166ad:	48 c7 85 b8 ee ff ff 	movq   $0x0,-0x1148(%rbp)
   166b4:	00 00 00 00 
   166b8:	48 c7 85 c0 ee ff ff 	movq   $0x0,-0x1140(%rbp)
   166bf:	00 00 00 00 
   166c3:	48 8d 85 d0 e0 ff ff 	lea    -0x1f30(%rbp),%rax
   166ca:	48 89 85 c8 ee ff ff 	mov    %rax,-0x1138(%rbp)
   166d1:	48 c7 85 d0 ee ff ff 	movq   $0x0,-0x1130(%rbp)
   166d8:	00 00 00 00 
   166dc:	48 8d 85 d0 e0 ff ff 	lea    -0x1f30(%rbp),%rax
   166e3:	48 89 85 d8 ee ff ff 	mov    %rax,-0x1128(%rbp)
   166ea:	48 c7 85 e0 ee ff ff 	movq   $0x0,-0x1120(%rbp)
   166f1:	00 00 00 00 
   166f5:	48 8d 85 d0 e0 ff ff 	lea    -0x1f30(%rbp),%rax
   166fc:	48 89 85 e8 ee ff ff 	mov    %rax,-0x1118(%rbp)
   16703:	48 8d 85 d0 e0 ff ff 	lea    -0x1f30(%rbp),%rax
   1670a:	48 89 85 f0 ee ff ff 	mov    %rax,-0x1110(%rbp)
   16711:	48 8d 85 d0 e0 ff ff 	lea    -0x1f30(%rbp),%rax
   16718:	48 89 85 f8 ee ff ff 	mov    %rax,-0x1108(%rbp)
   1671f:	48 8d 85 d0 e0 ff ff 	lea    -0x1f30(%rbp),%rax
   16726:	48 89 85 00 ef ff ff 	mov    %rax,-0x1100(%rbp)
   1672d:	48 c7 85 08 ef ff ff 	movq   $0x0,-0x10f8(%rbp)
   16734:	00 00 00 00 
   16738:	48 c7 85 10 ef ff ff 	movq   $0x0,-0x10f0(%rbp)
   1673f:	00 00 00 00 
   16743:	48 c7 85 18 ef ff ff 	movq   $0x0,-0x10e8(%rbp)
   1674a:	00 00 00 00 
   1674e:	48 8d 85 d0 e0 ff ff 	lea    -0x1f30(%rbp),%rax
   16755:	48 89 85 20 ef ff ff 	mov    %rax,-0x10e0(%rbp)
   1675c:	48 8d 85 d0 e0 ff ff 	lea    -0x1f30(%rbp),%rax
   16763:	48 89 85 28 ef ff ff 	mov    %rax,-0x10d8(%rbp)
   1676a:	48 c7 85 30 ef ff ff 	movq   $0x0,-0x10d0(%rbp)
   16771:	00 00 00 00 
   16775:	48 8d 85 d0 e0 ff ff 	lea    -0x1f30(%rbp),%rax
   1677c:	48 89 85 38 ef ff ff 	mov    %rax,-0x10c8(%rbp)
   16783:	48 c7 85 40 ef ff ff 	movq   $0x0,-0x10c0(%rbp)
   1678a:	00 00 00 00 
   1678e:	48 c7 85 48 ef ff ff 	movq   $0x0,-0x10b8(%rbp)
   16795:	00 00 00 00 
   16799:	48 c7 85 50 ef ff ff 	movq   $0x0,-0x10b0(%rbp)
   167a0:	00 00 00 00 
   167a4:	48 8d 85 d0 e0 ff ff 	lea    -0x1f30(%rbp),%rax
   167ab:	48 89 85 58 ef ff ff 	mov    %rax,-0x10a8(%rbp)
   167b2:	48 c7 85 60 ef ff ff 	movq   $0x0,-0x10a0(%rbp)
   167b9:	00 00 00 00 
   167bd:	48 8d 85 d0 e0 ff ff 	lea    -0x1f30(%rbp),%rax
   167c4:	48 89 85 68 ef ff ff 	mov    %rax,-0x1098(%rbp)
   167cb:	48 c7 85 70 ef ff ff 	movq   $0x0,-0x1090(%rbp)
   167d2:	00 00 00 00 
   167d6:	48 8d 85 d0 e0 ff ff 	lea    -0x1f30(%rbp),%rax
   167dd:	48 89 85 78 ef ff ff 	mov    %rax,-0x1088(%rbp)
   167e4:	48 8d 85 d0 e0 ff ff 	lea    -0x1f30(%rbp),%rax
   167eb:	48 89 85 80 ef ff ff 	mov    %rax,-0x1080(%rbp)
   167f2:	48 8d 85 d0 e0 ff ff 	lea    -0x1f30(%rbp),%rax
   167f9:	48 89 85 88 ef ff ff 	mov    %rax,-0x1078(%rbp)
   16800:	48 8d 85 d0 e0 ff ff 	lea    -0x1f30(%rbp),%rax
   16807:	48 89 85 90 ef ff ff 	mov    %rax,-0x1070(%rbp)
   1680e:	48 c7 85 98 ef ff ff 	movq   $0x0,-0x1068(%rbp)
   16815:	00 00 00 00 
   16819:	48 c7 85 a0 ef ff ff 	movq   $0x0,-0x1060(%rbp)
   16820:	00 00 00 00 
   16824:	48 c7 85 a8 ef ff ff 	movq   $0x0,-0x1058(%rbp)
   1682b:	00 00 00 00 
   1682f:	48 8d 85 d0 e0 ff ff 	lea    -0x1f30(%rbp),%rax
   16836:	48 89 85 b0 ef ff ff 	mov    %rax,-0x1050(%rbp)
   1683d:	48 8d 85 d0 e0 ff ff 	lea    -0x1f30(%rbp),%rax
   16844:	48 89 85 b8 ef ff ff 	mov    %rax,-0x1048(%rbp)
   1684b:	48 c7 85 c0 ef ff ff 	movq   $0x0,-0x1040(%rbp)
   16852:	00 00 00 00 
   16856:	48 8d 85 d0 e0 ff ff 	lea    -0x1f30(%rbp),%rax
   1685d:	48 89 85 c8 ef ff ff 	mov    %rax,-0x1038(%rbp)
   16864:	48 c7 85 d0 ef ff ff 	movq   $0x0,-0x1030(%rbp)
   1686b:	00 00 00 00 
   1686f:	48 8d 85 d0 e0 ff ff 	lea    -0x1f30(%rbp),%rax
   16876:	48 89 85 d8 ef ff ff 	mov    %rax,-0x1028(%rbp)
   1687d:	48 c7 85 e0 ef ff ff 	movq   $0x0,-0x1020(%rbp)
   16884:	00 00 00 00 
   16888:	48 c7 85 e8 ef ff ff 	movq   $0x0,-0x1018(%rbp)
   1688f:	00 00 00 00 
   16893:	48 8d 85 d0 e0 ff ff 	lea    -0x1f30(%rbp),%rax
   1689a:	48 89 85 f0 ef ff ff 	mov    %rax,-0x1010(%rbp)
   168a1:	48 8d 85 d0 e0 ff ff 	lea    -0x1f30(%rbp),%rax
   168a8:	48 89 85 f8 ef ff ff 	mov    %rax,-0x1008(%rbp)
   168af:	48 c7 85 00 f0 ff ff 	movq   $0x0,-0x1000(%rbp)
   168b6:	00 00 00 00 
   168ba:	48 8d 85 d0 e0 ff ff 	lea    -0x1f30(%rbp),%rax
   168c1:	48 89 85 08 f0 ff ff 	mov    %rax,-0xff8(%rbp)
   168c8:	48 c7 85 10 f0 ff ff 	movq   $0x0,-0xff0(%rbp)
   168cf:	00 00 00 00 
   168d3:	48 c7 85 18 f0 ff ff 	movq   $0x0,-0xfe8(%rbp)
   168da:	00 00 00 00 
   168de:	48 8d 85 d0 e0 ff ff 	lea    -0x1f30(%rbp),%rax
   168e5:	48 89 85 20 f0 ff ff 	mov    %rax,-0xfe0(%rbp)
   168ec:	48 c7 85 28 f0 ff ff 	movq   $0x0,-0xfd8(%rbp)
   168f3:	00 00 00 00 
   168f7:	48 c7 85 30 f0 ff ff 	movq   $0x0,-0xfd0(%rbp)
   168fe:	00 00 00 00 
   16902:	48 c7 85 38 f0 ff ff 	movq   $0x0,-0xfc8(%rbp)
   16909:	00 00 00 00 
   1690d:	48 8d 85 d0 e0 ff ff 	lea    -0x1f30(%rbp),%rax
   16914:	48 89 85 40 f0 ff ff 	mov    %rax,-0xfc0(%rbp)
   1691b:	48 c7 85 48 f0 ff ff 	movq   $0x0,-0xfb8(%rbp)
   16922:	00 00 00 00 
   16926:	48 c7 85 50 f0 ff ff 	movq   $0x0,-0xfb0(%rbp)
   1692d:	00 00 00 00 
   16931:	48 c7 85 58 f0 ff ff 	movq   $0x0,-0xfa8(%rbp)
   16938:	00 00 00 00 
   1693c:	48 c7 85 60 f0 ff ff 	movq   $0x0,-0xfa0(%rbp)
   16943:	00 00 00 00 
   16947:	48 8d 85 d0 e0 ff ff 	lea    -0x1f30(%rbp),%rax
   1694e:	48 89 85 68 f0 ff ff 	mov    %rax,-0xf98(%rbp)
   16955:	48 c7 85 70 f0 ff ff 	movq   $0x0,-0xf90(%rbp)
   1695c:	00 00 00 00 
   16960:	48 c7 85 78 f0 ff ff 	movq   $0x0,-0xf88(%rbp)
   16967:	00 00 00 00 
   1696b:	48 8d 85 d0 e0 ff ff 	lea    -0x1f30(%rbp),%rax
   16972:	48 89 85 80 f0 ff ff 	mov    %rax,-0xf80(%rbp)
   16979:	48 8d 85 d0 e0 ff ff 	lea    -0x1f30(%rbp),%rax
   16980:	48 89 85 88 f0 ff ff 	mov    %rax,-0xf78(%rbp)
   16987:	48 c7 85 90 f0 ff ff 	movq   $0x0,-0xf70(%rbp)
   1698e:	00 00 00 00 
   16992:	48 8d 85 d0 e0 ff ff 	lea    -0x1f30(%rbp),%rax
   16999:	48 89 85 98 f0 ff ff 	mov    %rax,-0xf68(%rbp)
   169a0:	48 c7 85 a0 f0 ff ff 	movq   $0x0,-0xf60(%rbp)
   169a7:	00 00 00 00 
   169ab:	48 c7 85 a8 f0 ff ff 	movq   $0x0,-0xf58(%rbp)
   169b2:	00 00 00 00 
   169b6:	48 8d 85 d0 e0 ff ff 	lea    -0x1f30(%rbp),%rax
   169bd:	48 89 85 b0 f0 ff ff 	mov    %rax,-0xf50(%rbp)
   169c4:	48 c7 85 b8 f0 ff ff 	movq   $0x0,-0xf48(%rbp)
   169cb:	00 00 00 00 
   169cf:	48 c7 85 c0 f0 ff ff 	movq   $0x0,-0xf40(%rbp)
   169d6:	00 00 00 00 
   169da:	48 c7 85 c8 f0 ff ff 	movq   $0x0,-0xf38(%rbp)
   169e1:	00 00 00 00 
   169e5:	48 8d 85 d0 e0 ff ff 	lea    -0x1f30(%rbp),%rax
   169ec:	48 89 85 d0 f0 ff ff 	mov    %rax,-0xf30(%rbp)
   169f3:	48 c7 85 d8 f0 ff ff 	movq   $0x0,-0xf28(%rbp)
   169fa:	00 00 00 00 
   169fe:	48 c7 85 e0 f0 ff ff 	movq   $0x0,-0xf20(%rbp)
   16a05:	00 00 00 00 
   16a09:	48 c7 85 e8 f0 ff ff 	movq   $0x0,-0xf18(%rbp)
   16a10:	00 00 00 00 
   16a14:	48 c7 85 f0 f0 ff ff 	movq   $0x0,-0xf10(%rbp)
   16a1b:	00 00 00 00 
   16a1f:	48 8d 85 d0 e0 ff ff 	lea    -0x1f30(%rbp),%rax
   16a26:	48 89 85 f8 f0 ff ff 	mov    %rax,-0xf08(%rbp)
   16a2d:	48 c7 85 00 f1 ff ff 	movq   $0x0,-0xf00(%rbp)
   16a34:	00 00 00 00 
   16a38:	48 c7 85 08 f1 ff ff 	movq   $0x0,-0xef8(%rbp)
   16a3f:	00 00 00 00 
   16a43:	48 8d 85 d0 e0 ff ff 	lea    -0x1f30(%rbp),%rax
   16a4a:	48 89 85 10 f1 ff ff 	mov    %rax,-0xef0(%rbp)
   16a51:	48 8d 85 d0 e0 ff ff 	lea    -0x1f30(%rbp),%rax
   16a58:	48 89 85 18 f1 ff ff 	mov    %rax,-0xee8(%rbp)
   16a5f:	48 c7 85 20 f1 ff ff 	movq   $0x0,-0xee0(%rbp)
   16a66:	00 00 00 00 
   16a6a:	48 8d 85 d0 e0 ff ff 	lea    -0x1f30(%rbp),%rax
   16a71:	48 89 85 28 f1 ff ff 	mov    %rax,-0xed8(%rbp)
   16a78:	48 c7 85 30 f1 ff ff 	movq   $0x0,-0xed0(%rbp)
   16a7f:	00 00 00 00 
   16a83:	48 c7 85 38 f1 ff ff 	movq   $0x0,-0xec8(%rbp)
   16a8a:	00 00 00 00 
   16a8e:	48 8d 85 d0 e0 ff ff 	lea    -0x1f30(%rbp),%rax
   16a95:	48 89 85 40 f1 ff ff 	mov    %rax,-0xec0(%rbp)
   16a9c:	48 c7 85 48 f1 ff ff 	movq   $0x0,-0xeb8(%rbp)
   16aa3:	00 00 00 00 
   16aa7:	48 c7 85 50 f1 ff ff 	movq   $0x0,-0xeb0(%rbp)
   16aae:	00 00 00 00 
   16ab2:	48 c7 85 58 f1 ff ff 	movq   $0x0,-0xea8(%rbp)
   16ab9:	00 00 00 00 
   16abd:	48 8d 85 d0 e0 ff ff 	lea    -0x1f30(%rbp),%rax
   16ac4:	48 89 85 60 f1 ff ff 	mov    %rax,-0xea0(%rbp)
   16acb:	48 c7 85 68 f1 ff ff 	movq   $0x0,-0xe98(%rbp)
   16ad2:	00 00 00 00 
   16ad6:	48 c7 85 70 f1 ff ff 	movq   $0x0,-0xe90(%rbp)
   16add:	00 00 00 00 
   16ae1:	48 c7 85 78 f1 ff ff 	movq   $0x0,-0xe88(%rbp)
   16ae8:	00 00 00 00 
   16aec:	48 c7 85 80 f1 ff ff 	movq   $0x0,-0xe80(%rbp)
   16af3:	00 00 00 00 
   16af7:	48 8d 85 d0 e0 ff ff 	lea    -0x1f30(%rbp),%rax
   16afe:	48 89 85 88 f1 ff ff 	mov    %rax,-0xe78(%rbp)
   16b05:	48 c7 85 90 f1 ff ff 	movq   $0x0,-0xe70(%rbp)
   16b0c:	00 00 00 00 
   16b10:	48 c7 85 98 f1 ff ff 	movq   $0x0,-0xe68(%rbp)
   16b17:	00 00 00 00 
   16b1b:	48 8d 85 d0 e0 ff ff 	lea    -0x1f30(%rbp),%rax
   16b22:	48 89 85 a0 f1 ff ff 	mov    %rax,-0xe60(%rbp)
   16b29:	48 8d 85 d0 e0 ff ff 	lea    -0x1f30(%rbp),%rax
   16b30:	48 89 85 a8 f1 ff ff 	mov    %rax,-0xe58(%rbp)
   16b37:	48 c7 85 b0 f1 ff ff 	movq   $0x0,-0xe50(%rbp)
   16b3e:	00 00 00 00 
   16b42:	48 8d 85 d0 e0 ff ff 	lea    -0x1f30(%rbp),%rax
   16b49:	48 89 85 b8 f1 ff ff 	mov    %rax,-0xe48(%rbp)
   16b50:	48 c7 85 c0 f1 ff ff 	movq   $0x0,-0xe40(%rbp)
   16b57:	00 00 00 00 
   16b5b:	48 c7 85 c8 f1 ff ff 	movq   $0x0,-0xe38(%rbp)
   16b62:	00 00 00 00 
   16b66:	48 8d 85 d0 e0 ff ff 	lea    -0x1f30(%rbp),%rax
   16b6d:	48 89 85 d0 f1 ff ff 	mov    %rax,-0xe30(%rbp)
   16b74:	48 c7 85 d8 f1 ff ff 	movq   $0x0,-0xe28(%rbp)
   16b7b:	00 00 00 00 
   16b7f:	48 c7 85 e0 f1 ff ff 	movq   $0x0,-0xe20(%rbp)
   16b86:	00 00 00 00 
   16b8a:	48 c7 85 e8 f1 ff ff 	movq   $0x0,-0xe18(%rbp)
   16b91:	00 00 00 00 
   16b95:	48 8d 85 d0 e0 ff ff 	lea    -0x1f30(%rbp),%rax
   16b9c:	48 89 85 f0 f1 ff ff 	mov    %rax,-0xe10(%rbp)
   16ba3:	48 c7 85 f8 f1 ff ff 	movq   $0x0,-0xe08(%rbp)
   16baa:	00 00 00 00 
   16bae:	48 c7 85 00 f2 ff ff 	movq   $0x0,-0xe00(%rbp)
   16bb5:	00 00 00 00 
   16bb9:	48 c7 85 08 f2 ff ff 	movq   $0x0,-0xdf8(%rbp)
   16bc0:	00 00 00 00 
   16bc4:	48 c7 85 10 f2 ff ff 	movq   $0x0,-0xdf0(%rbp)
   16bcb:	00 00 00 00 
   16bcf:	48 8d 85 d0 e0 ff ff 	lea    -0x1f30(%rbp),%rax
   16bd6:	48 89 85 18 f2 ff ff 	mov    %rax,-0xde8(%rbp)
   16bdd:	48 c7 85 20 f2 ff ff 	movq   $0x0,-0xde0(%rbp)
   16be4:	00 00 00 00 
   16be8:	48 c7 85 28 f2 ff ff 	movq   $0x0,-0xdd8(%rbp)
   16bef:	00 00 00 00 
   16bf3:	48 8d 85 d0 e0 ff ff 	lea    -0x1f30(%rbp),%rax
   16bfa:	48 89 85 30 f2 ff ff 	mov    %rax,-0xdd0(%rbp)
   16c01:	48 8d 85 d0 e0 ff ff 	lea    -0x1f30(%rbp),%rax
   16c08:	48 89 85 38 f2 ff ff 	mov    %rax,-0xdc8(%rbp)
   16c0f:	48 c7 85 40 f2 ff ff 	movq   $0x0,-0xdc0(%rbp)
   16c16:	00 00 00 00 
   16c1a:	48 8d 85 d0 e0 ff ff 	lea    -0x1f30(%rbp),%rax
   16c21:	48 89 85 48 f2 ff ff 	mov    %rax,-0xdb8(%rbp)
   16c28:	48 c7 85 50 f2 ff ff 	movq   $0x0,-0xdb0(%rbp)
   16c2f:	00 00 00 00 
   16c33:	48 c7 85 58 f2 ff ff 	movq   $0x0,-0xda8(%rbp)
   16c3a:	00 00 00 00 
   16c3e:	48 8d 85 d0 e0 ff ff 	lea    -0x1f30(%rbp),%rax
   16c45:	48 89 85 60 f2 ff ff 	mov    %rax,-0xda0(%rbp)
   16c4c:	48 c7 85 68 f2 ff ff 	movq   $0x0,-0xd98(%rbp)
   16c53:	00 00 00 00 
   16c57:	48 c7 85 70 f2 ff ff 	movq   $0x0,-0xd90(%rbp)
   16c5e:	00 00 00 00 
   16c62:	48 c7 85 78 f2 ff ff 	movq   $0x0,-0xd88(%rbp)
   16c69:	00 00 00 00 
   16c6d:	48 8d 85 d0 e0 ff ff 	lea    -0x1f30(%rbp),%rax
   16c74:	48 89 85 80 f2 ff ff 	mov    %rax,-0xd80(%rbp)
   16c7b:	48 c7 85 88 f2 ff ff 	movq   $0x0,-0xd78(%rbp)
   16c82:	00 00 00 00 
   16c86:	48 c7 85 90 f2 ff ff 	movq   $0x0,-0xd70(%rbp)
   16c8d:	00 00 00 00 
   16c91:	48 c7 85 98 f2 ff ff 	movq   $0x0,-0xd68(%rbp)
   16c98:	00 00 00 00 
   16c9c:	48 c7 85 a0 f2 ff ff 	movq   $0x0,-0xd60(%rbp)
   16ca3:	00 00 00 00 
   16ca7:	48 8d 85 d0 e0 ff ff 	lea    -0x1f30(%rbp),%rax
   16cae:	48 89 85 a8 f2 ff ff 	mov    %rax,-0xd58(%rbp)
   16cb5:	48 c7 85 b0 f2 ff ff 	movq   $0x0,-0xd50(%rbp)
   16cbc:	00 00 00 00 
   16cc0:	48 c7 85 b8 f2 ff ff 	movq   $0x0,-0xd48(%rbp)
   16cc7:	00 00 00 00 
   16ccb:	48 8d 85 d0 e0 ff ff 	lea    -0x1f30(%rbp),%rax
   16cd2:	48 89 85 c0 f2 ff ff 	mov    %rax,-0xd40(%rbp)
   16cd9:	48 8d 85 d0 e0 ff ff 	lea    -0x1f30(%rbp),%rax
   16ce0:	48 89 85 c8 f2 ff ff 	mov    %rax,-0xd38(%rbp)
   16ce7:	c7 85 f8 df ff ff 00 	movl   $0x0,-0x2008(%rbp)
   16cee:	00 00 00 
   16cf1:	eb 1a                	jmp    16d0d <func_47+0x4609>
   16cf3:	8b 85 f8 df ff ff    	mov    -0x2008(%rbp),%eax
   16cf9:	48 98                	cltq   
   16cfb:	c7 84 85 f4 e3 ff ff 	movl   $0xb0aa07b5,-0x1c0c(%rbp,%rax,4)
   16d02:	b5 07 aa b0 
   16d06:	83 85 f8 df ff ff 01 	addl   $0x1,-0x2008(%rbp)
   16d0d:	83 bd f8 df ff ff 00 	cmpl   $0x0,-0x2008(%rbp)
   16d14:	7e dd                	jle    16cf3 <func_47+0x45ef>
   16d16:	c7 85 f8 df ff ff 00 	movl   $0x0,-0x2008(%rbp)
   16d1d:	00 00 00 
   16d20:	eb 1a                	jmp    16d3c <func_47+0x4638>
   16d22:	8b 85 f8 df ff ff    	mov    -0x2008(%rbp),%eax
   16d28:	48 98                	cltq   
   16d2a:	c7 84 85 30 e4 ff ff 	movl   $0x436c59e,-0x1bd0(%rbp,%rax,4)
   16d31:	9e c5 36 04 
   16d35:	83 85 f8 df ff ff 01 	addl   $0x1,-0x2008(%rbp)
   16d3c:	83 bd f8 df ff ff 07 	cmpl   $0x7,-0x2008(%rbp)
   16d43:	7e dd                	jle    16d22 <func_47+0x461e>
   16d45:	66 c7 05 3a 1c 01 00 	movw   $0x0,0x11c3a(%rip)        # 28988 <g_239>
   16d4c:	00 00 
   16d4e:	e9 d1 1d 00 00       	jmpq   18b24 <func_47+0x6420>
   16d53:	c6 85 7f df ff ff ff 	movb   $0xff,-0x2081(%rbp)
   16d5a:	48 8d 85 7f df ff ff 	lea    -0x2081(%rbp),%rax
   16d61:	48 89 85 d8 e0 ff ff 	mov    %rax,-0x1f28(%rbp)
   16d68:	48 8d 85 d8 e0 ff ff 	lea    -0x1f28(%rbp),%rax
   16d6f:	48 89 85 e0 e0 ff ff 	mov    %rax,-0x1f20(%rbp)
   16d76:	48 c7 85 10 e1 ff ff 	movq   $0x0,-0x1ef0(%rbp)
   16d7d:	00 00 00 00 
   16d81:	48 8d 85 c8 e0 ff ff 	lea    -0x1f38(%rbp),%rax
   16d88:	48 89 85 70 e1 ff ff 	mov    %rax,-0x1e90(%rbp)
   16d8f:	c7 85 fc df ff ff 00 	movl   $0x0,-0x2004(%rbp)
   16d96:	00 00 00 
   16d99:	eb 1a                	jmp    16db5 <func_47+0x46b1>
   16d9b:	8b 85 fc df ff ff    	mov    -0x2004(%rbp),%eax
   16da1:	48 98                	cltq   
   16da3:	c7 84 85 00 e4 ff ff 	movl   $0x7eb1d88,-0x1c00(%rbp,%rax,4)
   16daa:	88 1d eb 07 
   16dae:	83 85 fc df ff ff 01 	addl   $0x1,-0x2004(%rbp)
   16db5:	83 bd fc df ff ff 03 	cmpl   $0x3,-0x2004(%rbp)
   16dbc:	7e dd                	jle    16d9b <func_47+0x4697>
   16dbe:	48 8b 05 03 d4 00 00 	mov    0xd403(%rip),%rax        # 241c8 <g_374>
   16dc5:	48 8d 50 04          	lea    0x4(%rax),%rdx
   16dc9:	0f b7 05 b8 1b 01 00 	movzwl 0x11bb8(%rip),%eax        # 28988 <g_239>
   16dd0:	98                   	cwtl   
   16dd1:	48 98                	cltq   
   16dd3:	48 01 d0             	add    %rdx,%rax
   16dd6:	0f b7 84 45 10 e4 ff 	movzwl -0x1bf0(%rbp,%rax,2),%eax
   16ddd:	ff 
   16dde:	66 85 c0             	test   %ax,%ax
   16de1:	0f 85 4f 1d 00 00    	jne    18b36 <func_47+0x6432>
   16de7:	48 8b 85 68 df ff ff 	mov    -0x2098(%rbp),%rax
   16dee:	48 89 05 e3 1b 01 00 	mov    %rax,0x11be3(%rip)        # 289d8 <g_399+0x38>
   16df5:	83 bd 24 e0 ff ff 00 	cmpl   $0x0,-0x1fdc(%rbp)
   16dfc:	0f 84 04 04 00 00    	je     17206 <func_47+0x4b02>
   16e02:	c6 85 80 df ff ff 30 	movb   $0x30,-0x2080(%rbp)
   16e09:	8b 85 24 e0 ff ff    	mov    -0x1fdc(%rbp),%eax
   16e0f:	88 85 80 df ff ff    	mov    %al,-0x2080(%rbp)
   16e15:	80 bd 80 df ff ff 00 	cmpb   $0x0,-0x2080(%rbp)
   16e1c:	0f 84 9e 03 00 00    	je     171c0 <func_47+0x4abc>
   16e22:	66 c7 85 92 df ff ff 	movw   $0x816,-0x206e(%rbp)
   16e29:	16 08 
   16e2b:	48 8d 85 10 e4 ff ff 	lea    -0x1bf0(%rbp),%rax
   16e32:	48 89 85 08 e1 ff ff 	mov    %rax,-0x1ef8(%rbp)
   16e39:	48 8d 85 08 e1 ff ff 	lea    -0x1ef8(%rbp),%rax
   16e40:	48 89 85 88 e1 ff ff 	mov    %rax,-0x1e78(%rbp)
   16e47:	48 8b 05 9a f5 00 00 	mov    0xf59a(%rip),%rax        # 263e8 <g_1404>
   16e4e:	0f b7 00             	movzwl (%rax),%eax
   16e51:	0f b7 d8             	movzwl %ax,%ebx
   16e54:	0f b7 05 2d 1b 01 00 	movzwl 0x11b2d(%rip),%eax        # 28988 <g_239>
   16e5b:	98                   	cwtl   
   16e5c:	83 c0 04             	add    $0x4,%eax
   16e5f:	8b 95 54 df ff ff    	mov    -0x20ac(%rbp),%edx
   16e65:	48 63 c8             	movslq %eax,%rcx
   16e68:	48 8d 34 cd 00 00 00 	lea    0x0(,%rcx,8),%rsi
   16e6f:	00 
   16e70:	48 8d 0d c9 d1 00 00 	lea    0xd1c9(%rip),%rcx        # 24040 <g_21>
   16e77:	48 89 14 0e          	mov    %rdx,(%rsi,%rcx,1)
   16e7b:	48 98                	cltq   
   16e7d:	48 8d 14 c5 00 00 00 	lea    0x0(,%rax,8),%rdx
   16e84:	00 
   16e85:	48 8d 05 b4 d1 00 00 	lea    0xd1b4(%rip),%rax        # 24040 <g_21>
   16e8c:	48 8b 04 02          	mov    (%rdx,%rax,1),%rax
   16e90:	48 be 27 4c 57 05 7e 	movabs $0x8648d17e05574c27,%rsi
   16e97:	d1 48 86 
   16e9a:	48 89 c7             	mov    %rax,%rdi
   16e9d:	e8 a9 51 ff ff       	callq  c04b <safe_sub_func_uint64_t_u_u>
   16ea2:	48 8b 85 90 e0 ff ff 	mov    -0x1f70(%rbp),%rax
   16ea9:	48 8b 95 c8 e0 ff ff 	mov    -0x1f38(%rbp),%rdx
   16eb0:	48 89 10             	mov    %rdx,(%rax)
   16eb3:	48 8b 10             	mov    (%rax),%rdx
   16eb6:	48 8b 85 88 e1 ff ff 	mov    -0x1e78(%rbp),%rax
   16ebd:	48 8d 0d 00 d3 00 00 	lea    0xd300(%rip),%rcx        # 241c4 <g_373>
   16ec4:	48 89 08             	mov    %rcx,(%rax)
   16ec7:	48 8b 85 88 e1 ff ff 	mov    -0x1e78(%rbp),%rax
   16ece:	48 8b 00             	mov    (%rax),%rax
   16ed1:	48 39 c2             	cmp    %rax,%rdx
   16ed4:	0f 95 c0             	setne  %al
   16ed7:	0f b6 c0             	movzbl %al,%eax
   16eda:	23 85 54 df ff ff    	and    -0x20ac(%rbp),%eax
   16ee0:	39 85 54 df ff ff    	cmp    %eax,-0x20ac(%rbp)
   16ee6:	0f 96 c0             	setbe  %al
   16ee9:	0f b6 c0             	movzbl %al,%eax
   16eec:	39 85 24 e0 ff ff    	cmp    %eax,-0x1fdc(%rbp)
   16ef2:	0f 9f c0             	setg   %al
   16ef5:	0f b6 c0             	movzbl %al,%eax
   16ef8:	89 85 9c df ff ff    	mov    %eax,-0x2064(%rbp)
   16efe:	8b 95 9c df ff ff    	mov    -0x2064(%rbp),%edx
   16f04:	48 8b 05 b5 f4 00 00 	mov    0xf4b5(%rip),%rax        # 263c0 <g_1058>
   16f0b:	8b 30                	mov    (%rax),%esi
   16f0d:	0f b7 85 20 e4 ff ff 	movzwl -0x1be0(%rbp),%eax
   16f14:	0f bf c8             	movswl %ax,%ecx
   16f17:	48 8b 05 a2 f4 00 00 	mov    0xf4a2(%rip),%rax        # 263c0 <g_1058>
   16f1e:	21 f1                	and    %esi,%ecx
   16f20:	89 08                	mov    %ecx,(%rax)
   16f22:	8b 00                	mov    (%rax),%eax
   16f24:	89 d6                	mov    %edx,%esi
   16f26:	89 c7                	mov    %eax,%edi
   16f28:	e8 d8 46 ff ff       	callq  b605 <safe_sub_func_int32_t_s_s>
   16f2d:	48 98                	cltq   
   16f2f:	ba b4 a9 70 d5       	mov    $0xd570a9b4,%edx
   16f34:	48 09 c2             	or     %rax,%rdx
   16f37:	8b 85 54 df ff ff    	mov    -0x20ac(%rbp),%eax
   16f3d:	48 39 c2             	cmp    %rax,%rdx
   16f40:	0f 9f c0             	setg   %al
   16f43:	0f b6 c0             	movzbl %al,%eax
   16f46:	48 89 c6             	mov    %rax,%rsi
   16f49:	bf 01 00 00 00       	mov    $0x1,%edi
   16f4e:	e8 f8 50 ff ff       	callq  c04b <safe_sub_func_uint64_t_u_u>
   16f53:	48 3d 67 37 00 00    	cmp    $0x3767,%rax
   16f59:	0f 95 c0             	setne  %al
   16f5c:	0f b6 c0             	movzbl %al,%eax
   16f5f:	89 de                	mov    %ebx,%esi
   16f61:	89 c7                	mov    %eax,%edi
   16f63:	e8 12 4f ff ff       	callq  be7a <safe_rshift_func_uint16_t_u_u>
   16f68:	66 85 c0             	test   %ax,%ax
   16f6b:	0f 84 2b 02 00 00    	je     1719c <func_47+0x4a98>
   16f71:	c7 85 2c e0 ff ff 00 	movl   $0x0,-0x1fd4(%rbp)
   16f78:	00 00 00 
   16f7b:	8b 85 2c e0 ff ff    	mov    -0x1fd4(%rbp),%eax
   16f81:	0f be d8             	movsbl %al,%ebx
   16f84:	44 8b a5 54 df ff ff 	mov    -0x20ac(%rbp),%r12d
   16f8b:	66 0f be 85 80 df ff 	movsbw -0x2080(%rbp),%ax
   16f92:	ff 
   16f93:	44 0f b7 e8          	movzwl %ax,%r13d
   16f97:	80 bd 80 df ff ff 00 	cmpb   $0x0,-0x2080(%rbp)
   16f9e:	0f 94 c0             	sete   %al
   16fa1:	0f b6 c0             	movzbl %al,%eax
   16fa4:	48 89 c6             	mov    %rax,%rsi
   16fa7:	48 c7 c7 fe ff ff ff 	mov    $0xfffffffffffffffe,%rdi
   16fae:	e8 98 50 ff ff       	callq  c04b <safe_sub_func_uint64_t_u_u>
   16fb3:	89 c2                	mov    %eax,%edx
   16fb5:	0f b6 85 80 df ff ff 	movzbl -0x2080(%rbp),%eax
   16fbc:	0f b6 c0             	movzbl %al,%eax
   16fbf:	89 d6                	mov    %edx,%esi
   16fc1:	89 c7                	mov    %eax,%edi
   16fc3:	e8 c5 4c ff ff       	callq  bc8d <safe_rshift_func_uint8_t_u_s>
   16fc8:	48 8b 15 f9 d1 00 00 	mov    0xd1f9(%rip),%rdx        # 241c8 <g_374>
   16fcf:	48 83 c2 04          	add    $0x4,%rdx
   16fd3:	0f b6 c0             	movzbl %al,%eax
   16fd6:	48 8d 0c d5 00 00 00 	lea    0x0(,%rdx,8),%rcx
   16fdd:	00 
   16fde:	48 8d 15 5b d0 00 00 	lea    0xd05b(%rip),%rdx        # 24040 <g_21>
   16fe5:	48 89 04 11          	mov    %rax,(%rcx,%rdx,1)
   16fe9:	83 bd 54 df ff ff 00 	cmpl   $0x0,-0x20ac(%rbp)
   16ff0:	0f 84 e2 00 00 00    	je     170d8 <func_47+0x49d4>
   16ff6:	8b 85 54 df ff ff    	mov    -0x20ac(%rbp),%eax
   16ffc:	44 0f b7 f0          	movzwl %ax,%r14d
   17000:	0f b6 85 80 df ff ff 	movzbl -0x2080(%rbp),%eax
   17007:	f7 d0                	not    %eax
   17009:	c0 e8 07             	shr    $0x7,%al
   1700c:	88 85 48 df ff ff    	mov    %al,-0x20b8(%rbp)
   17012:	48 8b 85 38 e1 ff ff 	mov    -0x1ec8(%rbp),%rax
   17019:	48 8b 00             	mov    (%rax),%rax
   1701c:	48 8d 50 ff          	lea    -0x1(%rax),%rdx
   17020:	48 8b 85 38 e1 ff ff 	mov    -0x1ec8(%rbp),%rax
   17027:	48 89 10             	mov    %rdx,(%rax)
   1702a:	48 8b 85 38 e1 ff ff 	mov    -0x1ec8(%rbp),%rax
   17031:	48 8b 00             	mov    (%rax),%rax
   17034:	48 83 f8 01          	cmp    $0x1,%rax
   17038:	0f 97 c2             	seta   %dl
   1703b:	48 8b 05 76 f3 00 00 	mov    0xf376(%rip),%rax        # 263b8 <g_965>
   17042:	0f b6 d2             	movzbl %dl,%edx
   17045:	48 89 10             	mov    %rdx,(%rax)
   17048:	48 8b 38             	mov    (%rax),%rdi
   1704b:	48 89 bd 40 df ff ff 	mov    %rdi,-0x20c0(%rbp)
   17052:	48 8b 85 58 df ff ff 	mov    -0x20a8(%rbp),%rax
   17059:	0f b6 00             	movzbl (%rax),%eax
   1705c:	44 0f be f8          	movsbl %al,%r15d
   17060:	48 8b 85 58 df ff ff 	mov    -0x20a8(%rbp),%rax
   17067:	0f b6 00             	movzbl (%rax),%eax
   1706a:	0f b6 d0             	movzbl %al,%edx
   1706d:	8b 85 2c e0 ff ff    	mov    -0x1fd4(%rbp),%eax
   17073:	39 85 54 df ff ff    	cmp    %eax,-0x20ac(%rbp)
   17079:	0f 92 c0             	setb   %al
   1707c:	0f b6 c0             	movzbl %al,%eax
   1707f:	89 d6                	mov    %edx,%esi
   17081:	89 c7                	mov    %eax,%edi
   17083:	e8 d2 4a ff ff       	callq  bb5a <safe_add_func_uint8_t_u_u>
   17088:	0f be c0             	movsbl %al,%eax
   1708b:	44 89 fe             	mov    %r15d,%esi
   1708e:	89 c7                	mov    %eax,%edi
   17090:	e8 d5 41 ff ff       	callq  b26a <safe_div_func_int8_t_s_s>
   17095:	0a 85 80 df ff ff    	or     -0x2080(%rbp),%al
   1709b:	48 0f be c0          	movsbq %al,%rax
   1709f:	48 39 85 40 df ff ff 	cmp    %rax,-0x20c0(%rbp)
   170a6:	0f 94 c0             	sete   %al
   170a9:	0f b6 d0             	movzbl %al,%edx
   170ac:	0f b6 85 7f df ff ff 	movzbl -0x2081(%rbp),%eax
   170b3:	0f b6 c0             	movzbl %al,%eax
   170b6:	39 c2                	cmp    %eax,%edx
   170b8:	0f 9c c0             	setl   %al
   170bb:	0a 85 48 df ff ff    	or     -0x20b8(%rbp),%al
   170c1:	0f b6 c0             	movzbl %al,%eax
   170c4:	44 89 f6             	mov    %r14d,%esi
   170c7:	89 c7                	mov    %eax,%edi
   170c9:	e8 6f 4c ff ff       	callq  bd3d <safe_mul_func_uint16_t_u_u>
   170ce:	0f b7 c0             	movzwl %ax,%eax
   170d1:	89 c7                	mov    %eax,%edi
   170d3:	e8 be 44 ff ff       	callq  b596 <safe_unary_minus_func_int32_t_s>
   170d8:	48 8b 85 20 e1 ff ff 	mov    -0x1ee0(%rbp),%rax
   170df:	48 8b 00             	mov    (%rax),%rax
   170e2:	c6 00 00             	movb   $0x0,(%rax)
   170e5:	81 bd ac df ff ff a6 	cmpl   $0xa6,-0x2054(%rbp)
   170ec:	00 00 00 
   170ef:	0f 96 c0             	setbe  %al
   170f2:	0f b6 c0             	movzbl %al,%eax
   170f5:	be 03 00 00 00       	mov    $0x3,%esi
   170fa:	89 c7                	mov    %eax,%edi
   170fc:	e8 bd 4b ff ff       	callq  bcbe <safe_rshift_func_uint8_t_u_u>
   17101:	84 c0                	test   %al,%al
   17103:	0f 94 c0             	sete   %al
   17106:	0f b6 d0             	movzbl %al,%edx
   17109:	0f be 85 80 df ff ff 	movsbl -0x2080(%rbp),%eax
   17110:	39 c2                	cmp    %eax,%edx
   17112:	0f 9f c0             	setg   %al
   17115:	0f b6 c0             	movzbl %al,%eax
   17118:	be 02 00 00 00       	mov    $0x2,%esi
   1711d:	89 c7                	mov    %eax,%edi
   1711f:	e8 28 4b ff ff       	callq  bc4c <safe_lshift_func_uint8_t_u_u>
   17124:	0f b6 c0             	movzbl %al,%eax
   17127:	44 89 ee             	mov    %r13d,%esi
   1712a:	89 c7                	mov    %eax,%edi
   1712c:	e8 5d 4c ff ff       	callq  bd8e <safe_div_func_uint16_t_u_u>
   17131:	0f b7 c0             	movzwl %ax,%eax
   17134:	39 85 54 df ff ff    	cmp    %eax,-0x20ac(%rbp)
   1713a:	0f 94 c0             	sete   %al
   1713d:	0f b6 d0             	movzbl %al,%edx
   17140:	0f bf 85 92 df ff ff 	movswl -0x206e(%rbp),%eax
   17147:	39 c2                	cmp    %eax,%edx
   17149:	0f 9e c0             	setle  %al
   1714c:	0f b6 c0             	movzbl %al,%eax
   1714f:	44 89 e6             	mov    %r12d,%esi
   17152:	89 c7                	mov    %eax,%edi
   17154:	e8 73 45 ff ff       	callq  b6cc <safe_mod_func_int32_t_s_s>
   17159:	0f b7 95 10 e4 ff ff 	movzwl -0x1bf0(%rbp),%edx
   17160:	0f bf d2             	movswl %dx,%edx
   17163:	39 d0                	cmp    %edx,%eax
   17165:	0f 9c c0             	setl   %al
   17168:	f7 d0                	not    %eax
   1716a:	0f be c0             	movsbl %al,%eax
   1716d:	89 de                	mov    %ebx,%esi
   1716f:	89 c7                	mov    %eax,%edi
   17171:	e8 9c 40 ff ff       	callq  b212 <safe_mul_func_int8_t_s_s>
   17176:	8b 95 54 df ff ff    	mov    -0x20ac(%rbp),%edx
   1717c:	48 8b 05 3d f2 00 00 	mov    0xf23d(%rip),%rax        # 263c0 <g_1058>
   17183:	8b 00                	mov    (%rax),%eax
   17185:	31 c2                	xor    %eax,%edx
   17187:	48 8b 05 32 f2 00 00 	mov    0xf232(%rip),%rax        # 263c0 <g_1058>
   1718e:	89 10                	mov    %edx,(%rax)
   17190:	48 8b 85 58 df ff ff 	mov    -0x20a8(%rbp),%rax
   17197:	e9 04 1b 00 00       	jmpq   18ca0 <func_47+0x659c>
   1719c:	66 c7 85 94 df ff ff 	movw   $0xfff8,-0x206c(%rbp)
   171a3:	f8 ff 
   171a5:	66 83 85 94 df ff ff 	addw   $0x1,-0x206c(%rbp)
   171ac:	01 
   171ad:	66 83 bd 92 df ff ff 	cmpw   $0x0,-0x206e(%rbp)
   171b4:	00 
   171b5:	0f 84 d4 04 00 00    	je     1768f <func_47+0x4f8b>
   171bb:	e9 77 19 00 00       	jmpq   18b37 <func_47+0x6433>
   171c0:	c7 85 00 e0 ff ff 00 	movl   $0x0,-0x2000(%rbp)
   171c7:	00 00 00 
   171ca:	eb 1e                	jmp    171ea <func_47+0x4ae6>
   171cc:	8b 85 00 e0 ff ff    	mov    -0x2000(%rbp),%eax
   171d2:	48 98                	cltq   
   171d4:	48 8d 95 e0 e0 ff ff 	lea    -0x1f20(%rbp),%rdx
   171db:	48 89 94 c5 80 ea ff 	mov    %rdx,-0x1580(%rbp,%rax,8)
   171e2:	ff 
   171e3:	83 85 00 e0 ff ff 01 	addl   $0x1,-0x2000(%rbp)
   171ea:	83 bd 00 e0 ff ff 02 	cmpl   $0x2,-0x2000(%rbp)
   171f1:	7e d9                	jle    171cc <func_47+0x4ac8>
   171f3:	48 8b 85 e0 e0 ff ff 	mov    -0x1f20(%rbp),%rax
   171fa:	48 89 85 c0 e0 ff ff 	mov    %rax,-0x1f40(%rbp)
   17201:	e9 89 04 00 00       	jmpq   1768f <func_47+0x4f8b>
   17206:	c7 85 28 e0 ff ff bb 	movl   $0x25a25fbb,-0x1fd8(%rbp)
   1720d:	5f a2 25 
   17210:	48 8d 85 80 ea ff ff 	lea    -0x1580(%rbp),%rax
   17217:	48 8d 15 e2 8b 00 00 	lea    0x8be2(%rip),%rdx        # 1fe00 <g_2990+0xd88>
   1721e:	b9 64 00 00 00       	mov    $0x64,%ecx
   17223:	48 89 c7             	mov    %rax,%rdi
   17226:	48 89 d6             	mov    %rdx,%rsi
   17229:	f3 48 a5             	rep movsq %ds:(%rsi),%es:(%rdi)
   1722c:	48 8d 05 b5 f1 00 00 	lea    0xf1b5(%rip),%rax        # 263e8 <g_1404>
   17233:	48 89 85 78 e1 ff ff 	mov    %rax,-0x1e88(%rbp)
   1723a:	8b 85 e8 e3 ff ff    	mov    -0x1c18(%rbp),%eax
   17240:	0f be c0             	movsbl %al,%eax
   17243:	8b 95 54 df ff ff    	mov    -0x20ac(%rbp),%edx
   17249:	89 d6                	mov    %edx,%esi
   1724b:	89 c7                	mov    %eax,%edi
   1724d:	e8 1a 41 ff ff       	callq  b36c <safe_rshift_func_int8_t_s_u>
   17252:	83 bd 24 e0 ff ff 00 	cmpl   $0x0,-0x1fdc(%rbp)
   17259:	0f b6 85 7f df ff ff 	movzbl -0x2081(%rbp),%eax
   17260:	0f b6 d0             	movzbl %al,%edx
   17263:	48 8b 85 58 df ff ff 	mov    -0x20a8(%rbp),%rax
   1726a:	0f b6 00             	movzbl (%rax),%eax
   1726d:	0f be c0             	movsbl %al,%eax
   17270:	09 d0                	or     %edx,%eax
   17272:	48 98                	cltq   
   17274:	48 89 c6             	mov    %rax,%rsi
   17277:	bf 00 00 00 00       	mov    $0x0,%edi
   1727c:	e8 27 46 ff ff       	callq  b8a8 <safe_sub_func_int64_t_s_s>
   17281:	48 c7 c1 ff ff ff ff 	mov    $0xffffffffffffffff,%rcx
   17288:	48 8b 85 b0 e0 ff ff 	mov    -0x1f50(%rbp),%rax
   1728f:	0f b6 10             	movzbl (%rax),%edx
   17292:	48 8b 85 b0 e0 ff ff 	mov    -0x1f50(%rbp),%rax
   17299:	09 ca                	or     %ecx,%edx
   1729b:	88 10                	mov    %dl,(%rax)
   1729d:	0f b6 00             	movzbl (%rax),%eax
   172a0:	84 c0                	test   %al,%al
   172a2:	83 bd 54 df ff ff 00 	cmpl   $0x0,-0x20ac(%rbp)
   172a9:	74 60                	je     1730b <func_47+0x4c07>
   172ab:	48 8d 85 00 e4 ff ff 	lea    -0x1c00(%rbp),%rax
   172b2:	48 89 85 80 e1 ff ff 	mov    %rax,-0x1e80(%rbp)
   172b9:	66 c7 85 90 df ff ff 	movw   $0x7,-0x2070(%rbp)
   172c0:	07 00 
   172c2:	c7 85 04 e0 ff ff 00 	movl   $0x0,-0x1ffc(%rbp)
   172c9:	00 00 00 
   172cc:	eb 1b                	jmp    172e9 <func_47+0x4be5>
   172ce:	8b 85 04 e0 ff ff    	mov    -0x1ffc(%rbp),%eax
   172d4:	48 98                	cltq   
   172d6:	48 c7 84 c5 50 e8 ff 	movq   $0x0,-0x17b0(%rbp,%rax,8)
   172dd:	ff 00 00 00 00 
   172e2:	83 85 04 e0 ff ff 01 	addl   $0x1,-0x1ffc(%rbp)
   172e9:	83 bd 04 e0 ff ff 07 	cmpl   $0x7,-0x1ffc(%rbp)
   172f0:	7e dc                	jle    172ce <func_47+0x4bca>
   172f2:	8b 85 54 df ff ff    	mov    -0x20ac(%rbp),%eax
   172f8:	89 85 00 e4 ff ff    	mov    %eax,-0x1c00(%rbp)
   172fe:	48 83 85 10 e1 ff ff 	addq   $0x1,-0x1ef0(%rbp)
   17305:	01 
   17306:	e9 2f 03 00 00       	jmpq   1763a <func_47+0x4f36>
   1730b:	66 c7 85 50 e8 ff ff 	movw   $0xc6ab,-0x17b0(%rbp)
   17312:	ab c6 
   17314:	66 c7 85 52 e8 ff ff 	movw   $0xc6ab,-0x17ae(%rbp)
   1731b:	ab c6 
   1731d:	66 c7 85 54 e8 ff ff 	movw   $0xc6ab,-0x17ac(%rbp)
   17324:	ab c6 
   17326:	66 c7 85 56 e8 ff ff 	movw   $0xc6ab,-0x17aa(%rbp)
   1732d:	ab c6 
   1732f:	66 c7 85 58 e8 ff ff 	movw   $0xc6ab,-0x17a8(%rbp)
   17336:	ab c6 
   17338:	66 c7 85 5a e8 ff ff 	movw   $0xc6ab,-0x17a6(%rbp)
   1733f:	ab c6 
   17341:	66 c7 85 5c e8 ff ff 	movw   $0xc6ab,-0x17a4(%rbp)
   17348:	ab c6 
   1734a:	66 c7 85 5e e8 ff ff 	movw   $0xbda5,-0x17a2(%rbp)
   17351:	a5 bd 
   17353:	66 c7 85 60 e8 ff ff 	movw   $0xfff9,-0x17a0(%rbp)
   1735a:	f9 ff 
   1735c:	66 c7 85 62 e8 ff ff 	movw   $0xbda5,-0x179e(%rbp)
   17363:	a5 bd 
   17365:	66 c7 85 64 e8 ff ff 	movw   $0xfff9,-0x179c(%rbp)
   1736c:	f9 ff 
   1736e:	66 c7 85 66 e8 ff ff 	movw   $0xbda5,-0x179a(%rbp)
   17375:	a5 bd 
   17377:	66 c7 85 68 e8 ff ff 	movw   $0xfff9,-0x1798(%rbp)
   1737e:	f9 ff 
   17380:	66 c7 85 6a e8 ff ff 	movw   $0xbda5,-0x1796(%rbp)
   17387:	a5 bd 
   17389:	66 c7 85 6c e8 ff ff 	movw   $0xc6ab,-0x1794(%rbp)
   17390:	ab c6 
   17392:	66 c7 85 6e e8 ff ff 	movw   $0xc6ab,-0x1792(%rbp)
   17399:	ab c6 
   1739b:	66 c7 85 70 e8 ff ff 	movw   $0xc6ab,-0x1790(%rbp)
   173a2:	ab c6 
   173a4:	66 c7 85 72 e8 ff ff 	movw   $0xc6ab,-0x178e(%rbp)
   173ab:	ab c6 
   173ad:	66 c7 85 74 e8 ff ff 	movw   $0xc6ab,-0x178c(%rbp)
   173b4:	ab c6 
   173b6:	66 c7 85 76 e8 ff ff 	movw   $0xc6ab,-0x178a(%rbp)
   173bd:	ab c6 
   173bf:	66 c7 85 78 e8 ff ff 	movw   $0xc6ab,-0x1788(%rbp)
   173c6:	ab c6 
   173c8:	66 c7 85 7a e8 ff ff 	movw   $0xbda5,-0x1786(%rbp)
   173cf:	a5 bd 
   173d1:	66 c7 85 7c e8 ff ff 	movw   $0xfff9,-0x1784(%rbp)
   173d8:	f9 ff 
   173da:	66 c7 85 7e e8 ff ff 	movw   $0xbda5,-0x1782(%rbp)
   173e1:	a5 bd 
   173e3:	66 c7 85 80 e8 ff ff 	movw   $0xfff9,-0x1780(%rbp)
   173ea:	f9 ff 
   173ec:	66 c7 85 82 e8 ff ff 	movw   $0xbda5,-0x177e(%rbp)
   173f3:	a5 bd 
   173f5:	66 c7 85 84 e8 ff ff 	movw   $0xfff9,-0x177c(%rbp)
   173fc:	f9 ff 
   173fe:	66 c7 85 86 e8 ff ff 	movw   $0xbda5,-0x177a(%rbp)
   17405:	a5 bd 
   17407:	66 c7 85 88 e8 ff ff 	movw   $0xc6ab,-0x1778(%rbp)
   1740e:	ab c6 
   17410:	66 c7 85 8a e8 ff ff 	movw   $0xc6ab,-0x1776(%rbp)
   17417:	ab c6 
   17419:	66 c7 85 8c e8 ff ff 	movw   $0xc6ab,-0x1774(%rbp)
   17420:	ab c6 
   17422:	66 c7 85 8e e8 ff ff 	movw   $0xc6ab,-0x1772(%rbp)
   17429:	ab c6 
   1742b:	66 c7 85 90 e8 ff ff 	movw   $0xc6ab,-0x1770(%rbp)
   17432:	ab c6 
   17434:	66 c7 85 92 e8 ff ff 	movw   $0xc6ab,-0x176e(%rbp)
   1743b:	ab c6 
   1743d:	66 c7 85 94 e8 ff ff 	movw   $0xc6ab,-0x176c(%rbp)
   17444:	ab c6 
   17446:	48 8b 05 73 ef 00 00 	mov    0xef73(%rip),%rax        # 263c0 <g_1058>
   1744d:	8b 00                	mov    (%rax),%eax
   1744f:	85 c0                	test   %eax,%eax
   17451:	0f 85 df 16 00 00    	jne    18b36 <func_47+0x6432>
   17457:	48 c7 85 10 e1 ff ff 	movq   $0x0,-0x1ef0(%rbp)
   1745e:	00 00 00 00 
   17462:	e9 c2 01 00 00       	jmpq   17629 <func_47+0x4f25>
   17467:	48 8b 85 10 e1 ff ff 	mov    -0x1ef0(%rbp),%rax
   1746e:	48 83 c0 07          	add    $0x7,%rax
   17472:	48 8d 14 c5 00 00 00 	lea    0x0(,%rax,8),%rdx
   17479:	00 
   1747a:	48 8d 05 bf cb 00 00 	lea    0xcbbf(%rip),%rax        # 24040 <g_21>
   17481:	48 8b 04 02          	mov    (%rdx,%rax,1),%rax
   17485:	48 85 c0             	test   %rax,%rax
   17488:	0f 85 ab 01 00 00    	jne    17639 <func_47+0x4f35>
   1748e:	0f b7 05 f3 14 01 00 	movzwl 0x114f3(%rip),%eax        # 28988 <g_239>
   17495:	98                   	cwtl   
   17496:	83 c0 01             	add    $0x1,%eax
   17499:	48 98                	cltq   
   1749b:	8b 84 85 e4 e3 ff ff 	mov    -0x1c1c(%rbp,%rax,4),%eax
   174a2:	85 c0                	test   %eax,%eax
   174a4:	0f 84 47 01 00 00    	je     175f1 <func_47+0x4eed>
   174aa:	8b 85 08 e4 ff ff    	mov    -0x1bf8(%rbp),%eax
   174b0:	0f b6 d8             	movzbl %al,%ebx
   174b3:	48 8b 05 2e ef 00 00 	mov    0xef2e(%rip),%rax        # 263e8 <g_1404>
   174ba:	0f b7 00             	movzwl (%rax),%eax
   174bd:	44 0f b7 e0          	movzwl %ax,%r12d
   174c1:	48 83 bd 70 e1 ff ff 	cmpq   $0x0,-0x1e90(%rbp)
   174c8:	00 
   174c9:	0f 95 c0             	setne  %al
   174cc:	44 0f b6 f8          	movzbl %al,%r15d
   174d0:	8b 85 a4 df ff ff    	mov    -0x205c(%rbp),%eax
   174d6:	44 0f b7 e8          	movzwl %ax,%r13d
   174da:	48 8b 85 20 e1 ff ff 	mov    -0x1ee0(%rbp),%rax
   174e1:	48 8b 00             	mov    (%rax),%rax
   174e4:	c6 00 01             	movb   $0x1,(%rax)
   174e7:	be 01 00 00 00       	mov    $0x1,%esi
   174ec:	bf 22 a0 ff ff       	mov    $0xffffa022,%edi
   174f1:	e8 6d 40 ff ff       	callq  b563 <safe_rshift_func_int16_t_s_u>
   174f6:	0f be c0             	movsbl %al,%eax
   174f9:	be 01 00 00 00       	mov    $0x1,%esi
   174fe:	89 c7                	mov    %eax,%edi
   17500:	e8 0d 3d ff ff       	callq  b212 <safe_mul_func_int8_t_s_s>
   17505:	84 c0                	test   %al,%al
   17507:	75 09                	jne    17512 <func_47+0x4e0e>
   17509:	83 bd 54 df ff ff 00 	cmpl   $0x0,-0x20ac(%rbp)
   17510:	74 0c                	je     1751e <func_47+0x4e1a>
   17512:	c7 85 48 df ff ff 01 	movl   $0x1,-0x20b8(%rbp)
   17519:	00 00 00 
   1751c:	eb 0a                	jmp    17528 <func_47+0x4e24>
   1751e:	c7 85 48 df ff ff 00 	movl   $0x0,-0x20b8(%rbp)
   17525:	00 00 00 
   17528:	8b 85 54 df ff ff    	mov    -0x20ac(%rbp),%eax
   1752e:	44 0f b6 f0          	movzbl %al,%r14d
   17532:	8b 85 54 df ff ff    	mov    -0x20ac(%rbp),%eax
   17538:	0f b6 c0             	movzbl %al,%eax
   1753b:	be 05 00 00 00       	mov    $0x5,%esi
   17540:	89 c7                	mov    %eax,%edi
   17542:	e8 be 46 ff ff       	callq  bc05 <safe_lshift_func_uint8_t_u_s>
   17547:	44 89 f6             	mov    %r14d,%esi
   1754a:	bf 00 00 00 00       	mov    $0x0,%edi
   1754f:	e8 3f 46 ff ff       	callq  bb93 <safe_mul_func_uint8_t_u_u>
   17554:	0f b6 c8             	movzbl %al,%ecx
   17557:	48 8b 05 6a cc 00 00 	mov    0xcc6a(%rip),%rax        # 241c8 <g_374>
   1755e:	48 8d 14 85 00 00 00 	lea    0x0(,%rax,4),%rdx
   17565:	00 
   17566:	48 8d 05 47 cc 00 00 	lea    0xcc47(%rip),%rax        # 241b4 <g_248>
   1756d:	8b 14 02             	mov    (%rdx,%rax,1),%edx
   17570:	8b b5 48 df ff ff    	mov    -0x20b8(%rbp),%esi
   17576:	48 8b 05 4b cc 00 00 	mov    0xcc4b(%rip),%rax        # 241c8 <g_374>
   1757d:	89 d7                	mov    %edx,%edi
   1757f:	31 f7                	xor    %esi,%edi
   17581:	48 8d 14 85 00 00 00 	lea    0x0(,%rax,4),%rdx
   17588:	00 
   17589:	48 8d 35 24 cc 00 00 	lea    0xcc24(%rip),%rsi        # 241b4 <g_248>
   17590:	89 3c 32             	mov    %edi,(%rdx,%rsi,1)
   17593:	48 8d 14 85 00 00 00 	lea    0x0(,%rax,4),%rdx
   1759a:	00 
   1759b:	48 8d 05 12 cc 00 00 	lea    0xcc12(%rip),%rax        # 241b4 <g_248>
   175a2:	8b 04 02             	mov    (%rdx,%rax,1),%eax
   175a5:	39 c1                	cmp    %eax,%ecx
   175a7:	0f 93 c0             	setae  %al
   175aa:	0f b6 c0             	movzbl %al,%eax
   175ad:	44 89 ee             	mov    %r13d,%esi
   175b0:	89 c7                	mov    %eax,%edi
   175b2:	e8 68 47 ff ff       	callq  bd1f <safe_sub_func_uint16_t_u_u>
   175b7:	0f b7 d0             	movzwl %ax,%edx
   175ba:	0f b7 85 64 e8 ff ff 	movzwl -0x179c(%rbp),%eax
   175c1:	98                   	cwtl   
   175c2:	21 d0                	and    %edx,%eax
   175c4:	41 39 c7             	cmp    %eax,%r15d
   175c7:	0f 9c c0             	setl   %al
   175ca:	0f b6 c0             	movzbl %al,%eax
   175cd:	44 89 e6             	mov    %r12d,%esi
   175d0:	89 c7                	mov    %eax,%edi
   175d2:	e8 0a 3f ff ff       	callq  b4e1 <safe_lshift_func_int16_t_s_u>
   175d7:	83 c8 6e             	or     $0x6e,%eax
   175da:	0f b6 c0             	movzbl %al,%eax
   175dd:	89 de                	mov    %ebx,%esi
   175df:	89 c7                	mov    %eax,%edi
   175e1:	e8 ad 45 ff ff       	callq  bb93 <safe_mul_func_uint8_t_u_u>
   175e6:	84 c0                	test   %al,%al
   175e8:	74 07                	je     175f1 <func_47+0x4eed>
   175ea:	b9 01 00 00 00       	mov    $0x1,%ecx
   175ef:	eb 05                	jmp    175f6 <func_47+0x4ef2>
   175f1:	b9 00 00 00 00       	mov    $0x0,%ecx
   175f6:	48 8b 05 c3 ed 00 00 	mov    0xedc3(%rip),%rax        # 263c0 <g_1058>
   175fd:	8b 10                	mov    (%rax),%edx
   175ff:	48 8b 05 ba ed 00 00 	mov    0xedba(%rip),%rax        # 263c0 <g_1058>
   17606:	09 ca                	or     %ecx,%edx
   17608:	89 10                	mov    %edx,(%rax)
   1760a:	48 8b 05 af ed 00 00 	mov    0xedaf(%rip),%rax        # 263c0 <g_1058>
   17611:	8b 95 7c ec ff ff    	mov    -0x1384(%rbp),%edx
   17617:	89 10                	mov    %edx,(%rax)
   17619:	8b 00                	mov    (%rax),%eax
   1761b:	89 85 7c ec ff ff    	mov    %eax,-0x1384(%rbp)
   17621:	48 83 85 10 e1 ff ff 	addq   $0x1,-0x1ef0(%rbp)
   17628:	01 
   17629:	48 83 bd 10 e1 ff ff 	cmpq   $0x1,-0x1ef0(%rbp)
   17630:	01 
   17631:	0f 86 30 fe ff ff    	jbe    17467 <func_47+0x4d63>
   17637:	eb 01                	jmp    1763a <func_47+0x4f36>
   17639:	90                   	nop
   1763a:	8b 85 a0 df ff ff    	mov    -0x2060(%rbp),%eax
   17640:	85 c0                	test   %eax,%eax
   17642:	0f 85 c7 14 00 00    	jne    18b0f <func_47+0x640b>
   17648:	48 8b 85 18 e1 ff ff 	mov    -0x1ee8(%rbp),%rax
   1764f:	48 8b 10             	mov    (%rax),%rdx
   17652:	48 8b 85 a8 e0 ff ff 	mov    -0x1f58(%rbp),%rax
   17659:	48 8b 12             	mov    (%rdx),%rdx
   1765c:	48 89 10             	mov    %rdx,(%rax)
   1765f:	48 8b 00             	mov    (%rax),%rax
   17662:	48 39 85 78 e1 ff ff 	cmp    %rax,-0x1e88(%rbp)
   17669:	0f 95 c0             	setne  %al
   1766c:	0f b6 c8             	movzbl %al,%ecx
   1766f:	48 8b 05 4a ed 00 00 	mov    0xed4a(%rip),%rax        # 263c0 <g_1058>
   17676:	8b 10                	mov    (%rax),%edx
   17678:	48 8b 05 41 ed 00 00 	mov    0xed41(%rip),%rax        # 263c0 <g_1058>
   1767f:	31 ca                	xor    %ecx,%edx
   17681:	89 10                	mov    %edx,(%rax)
   17683:	48 8b 85 b0 f9 ff ff 	mov    -0x650(%rbp),%rax
   1768a:	e9 11 16 00 00       	jmpq   18ca0 <func_47+0x659c>
   1768f:	83 bd 24 e0 ff ff 00 	cmpl   $0x0,-0x1fdc(%rbp)
   17696:	0f 85 76 14 00 00    	jne    18b12 <func_47+0x640e>
   1769c:	c6 85 7f df ff ff 00 	movb   $0x0,-0x2081(%rbp)
   176a3:	e9 56 14 00 00       	jmpq   18afe <func_47+0x63fa>
   176a8:	48 8d 85 f4 e3 ff ff 	lea    -0x1c0c(%rbp),%rax
   176af:	48 89 85 90 e1 ff ff 	mov    %rax,-0x1e70(%rbp)
   176b6:	48 8d 85 e4 e3 ff ff 	lea    -0x1c1c(%rbp),%rax
   176bd:	48 89 85 98 e1 ff ff 	mov    %rax,-0x1e68(%rbp)
   176c4:	48 8d 85 f4 e3 ff ff 	lea    -0x1c0c(%rbp),%rax
   176cb:	48 89 85 a0 e1 ff ff 	mov    %rax,-0x1e60(%rbp)
   176d2:	48 8d 85 a0 df ff ff 	lea    -0x2060(%rbp),%rax
   176d9:	48 89 85 a8 e1 ff ff 	mov    %rax,-0x1e58(%rbp)
   176e0:	48 8d 05 f1 ca 00 00 	lea    0xcaf1(%rip),%rax        # 241d8 <g_400>
   176e7:	48 89 85 b0 e1 ff ff 	mov    %rax,-0x1e50(%rbp)
   176ee:	48 8d 05 e3 ca 00 00 	lea    0xcae3(%rip),%rax        # 241d8 <g_400>
   176f5:	48 89 85 b8 e1 ff ff 	mov    %rax,-0x1e48(%rbp)
   176fc:	48 8d 85 e4 e3 ff ff 	lea    -0x1c1c(%rbp),%rax
   17703:	48 83 c0 04          	add    $0x4,%rax
   17707:	48 89 85 c0 e1 ff ff 	mov    %rax,-0x1e40(%rbp)
   1770e:	48 8d 85 00 e4 ff ff 	lea    -0x1c00(%rbp),%rax
   17715:	48 83 c0 04          	add    $0x4,%rax
   17719:	48 89 85 c8 e1 ff ff 	mov    %rax,-0x1e38(%rbp)
   17720:	48 c7 85 e8 e0 ff ff 	movq   $0x0,-0x1f18(%rbp)
   17727:	00 00 00 00 
   1772b:	48 8d 85 e4 e3 ff ff 	lea    -0x1c1c(%rbp),%rax
   17732:	48 89 85 d0 e1 ff ff 	mov    %rax,-0x1e30(%rbp)
   17739:	48 8d 05 98 ca 00 00 	lea    0xca98(%rip),%rax        # 241d8 <g_400>
   17740:	48 89 85 f0 e0 ff ff 	mov    %rax,-0x1f10(%rbp)
   17747:	48 8d 85 9c df ff ff 	lea    -0x2064(%rbp),%rax
   1774e:	48 89 85 d8 e1 ff ff 	mov    %rax,-0x1e28(%rbp)
   17755:	48 8d 85 a4 df ff ff 	lea    -0x205c(%rbp),%rax
   1775c:	48 89 85 f8 e0 ff ff 	mov    %rax,-0x1f08(%rbp)
   17763:	48 8d 85 a0 df ff ff 	lea    -0x2060(%rbp),%rax
   1776a:	48 89 85 00 e1 ff ff 	mov    %rax,-0x1f00(%rbp)
   17771:	c7 85 a8 df ff ff 90 	movl   $0x7c9ce90,-0x2058(%rbp)
   17778:	ce c9 07 
   1777b:	48 c7 85 e0 e1 ff ff 	movq   $0x0,-0x1e20(%rbp)
   17782:	00 00 00 00 
   17786:	48 8d 85 f4 e3 ff ff 	lea    -0x1c0c(%rbp),%rax
   1778d:	48 89 85 e8 e1 ff ff 	mov    %rax,-0x1e18(%rbp)
   17794:	48 8d 05 3d ca 00 00 	lea    0xca3d(%rip),%rax        # 241d8 <g_400>
   1779b:	48 89 85 f0 e1 ff ff 	mov    %rax,-0x1e10(%rbp)
   177a2:	48 8d 85 a8 df ff ff 	lea    -0x2058(%rbp),%rax
   177a9:	48 89 85 f8 e1 ff ff 	mov    %rax,-0x1e08(%rbp)
   177b0:	48 c7 85 00 e2 ff ff 	movq   $0x0,-0x1e00(%rbp)
   177b7:	00 00 00 00 
   177bb:	48 8d 85 a0 df ff ff 	lea    -0x2060(%rbp),%rax
   177c2:	48 89 85 08 e2 ff ff 	mov    %rax,-0x1df8(%rbp)
   177c9:	48 8d 05 24 ca 00 00 	lea    0xca24(%rip),%rax        # 241f4 <g_892>
   177d0:	48 89 85 10 e2 ff ff 	mov    %rax,-0x1df0(%rbp)
   177d7:	48 c7 85 80 ea ff ff 	movq   $0x0,-0x1580(%rbp)
   177de:	00 00 00 00 
   177e2:	48 8d 05 ef c9 00 00 	lea    0xc9ef(%rip),%rax        # 241d8 <g_400>
   177e9:	48 89 85 88 ea ff ff 	mov    %rax,-0x1578(%rbp)
   177f0:	48 c7 85 90 ea ff ff 	movq   $0x0,-0x1570(%rbp)
   177f7:	00 00 00 00 
   177fb:	48 8d 05 d6 c9 00 00 	lea    0xc9d6(%rip),%rax        # 241d8 <g_400>
   17802:	48 89 85 98 ea ff ff 	mov    %rax,-0x1568(%rbp)
   17809:	48 c7 85 a0 ea ff ff 	movq   $0x0,-0x1560(%rbp)
   17810:	00 00 00 00 
   17814:	48 8d 85 f4 e3 ff ff 	lea    -0x1c0c(%rbp),%rax
   1781b:	48 89 85 a8 ea ff ff 	mov    %rax,-0x1558(%rbp)
   17822:	48 8d 85 e4 e3 ff ff 	lea    -0x1c1c(%rbp),%rax
   17829:	48 83 c0 04          	add    $0x4,%rax
   1782d:	48 89 85 b0 ea ff ff 	mov    %rax,-0x1550(%rbp)
   17834:	48 8d 85 00 e4 ff ff 	lea    -0x1c00(%rbp),%rax
   1783b:	48 83 c0 0c          	add    $0xc,%rax
   1783f:	48 89 85 b8 ea ff ff 	mov    %rax,-0x1548(%rbp)
   17846:	48 c7 85 c0 ea ff ff 	movq   $0x0,-0x1540(%rbp)
   1784d:	00 00 00 00 
   17851:	48 8d 85 00 e4 ff ff 	lea    -0x1c00(%rbp),%rax
   17858:	48 89 85 c8 ea ff ff 	mov    %rax,-0x1538(%rbp)
   1785f:	48 8d 85 f4 e3 ff ff 	lea    -0x1c0c(%rbp),%rax
   17866:	48 89 85 d0 ea ff ff 	mov    %rax,-0x1530(%rbp)
   1786d:	48 c7 85 d8 ea ff ff 	movq   $0x0,-0x1528(%rbp)
   17874:	00 00 00 00 
   17878:	48 8d 85 a0 df ff ff 	lea    -0x2060(%rbp),%rax
   1787f:	48 89 85 e0 ea ff ff 	mov    %rax,-0x1520(%rbp)
   17886:	48 8d 85 f4 e3 ff ff 	lea    -0x1c0c(%rbp),%rax
   1788d:	48 89 85 e8 ea ff ff 	mov    %rax,-0x1518(%rbp)
   17894:	48 c7 85 f0 ea ff ff 	movq   $0x0,-0x1510(%rbp)
   1789b:	00 00 00 00 
   1789f:	48 8d 05 32 c9 00 00 	lea    0xc932(%rip),%rax        # 241d8 <g_400>
   178a6:	48 89 85 f8 ea ff ff 	mov    %rax,-0x1508(%rbp)
   178ad:	48 c7 85 00 eb ff ff 	movq   $0x0,-0x1500(%rbp)
   178b4:	00 00 00 00 
   178b8:	48 8d 85 e4 e3 ff ff 	lea    -0x1c1c(%rbp),%rax
   178bf:	48 83 c0 04          	add    $0x4,%rax
   178c3:	48 89 85 08 eb ff ff 	mov    %rax,-0x14f8(%rbp)
   178ca:	48 8d 85 f4 e3 ff ff 	lea    -0x1c0c(%rbp),%rax
   178d1:	48 89 85 10 eb ff ff 	mov    %rax,-0x14f0(%rbp)
   178d8:	48 8d 85 a8 df ff ff 	lea    -0x2058(%rbp),%rax
   178df:	48 89 85 18 eb ff ff 	mov    %rax,-0x14e8(%rbp)
   178e6:	48 8d 85 a8 df ff ff 	lea    -0x2058(%rbp),%rax
   178ed:	48 89 85 20 eb ff ff 	mov    %rax,-0x14e0(%rbp)
   178f4:	48 8d 85 f4 e3 ff ff 	lea    -0x1c0c(%rbp),%rax
   178fb:	48 89 85 28 eb ff ff 	mov    %rax,-0x14d8(%rbp)
   17902:	48 8d 85 e4 e3 ff ff 	lea    -0x1c1c(%rbp),%rax
   17909:	48 83 c0 04          	add    $0x4,%rax
   1790d:	48 89 85 30 eb ff ff 	mov    %rax,-0x14d0(%rbp)
   17914:	48 c7 85 38 eb ff ff 	movq   $0x0,-0x14c8(%rbp)
   1791b:	00 00 00 00 
   1791f:	48 8d 85 a0 df ff ff 	lea    -0x2060(%rbp),%rax
   17926:	48 89 85 40 eb ff ff 	mov    %rax,-0x14c0(%rbp)
   1792d:	48 8d 85 a0 df ff ff 	lea    -0x2060(%rbp),%rax
   17934:	48 89 85 48 eb ff ff 	mov    %rax,-0x14b8(%rbp)
   1793b:	48 c7 85 50 eb ff ff 	movq   $0x0,-0x14b0(%rbp)
   17942:	00 00 00 00 
   17946:	48 8d 85 00 e4 ff ff 	lea    -0x1c00(%rbp),%rax
   1794d:	48 83 c0 0c          	add    $0xc,%rax
   17951:	48 89 85 58 eb ff ff 	mov    %rax,-0x14a8(%rbp)
   17958:	48 8d 85 e4 e3 ff ff 	lea    -0x1c1c(%rbp),%rax
   1795f:	48 89 85 60 eb ff ff 	mov    %rax,-0x14a0(%rbp)
   17966:	48 8d 85 00 e4 ff ff 	lea    -0x1c00(%rbp),%rax
   1796d:	48 89 85 68 eb ff ff 	mov    %rax,-0x1498(%rbp)
   17974:	48 8d 85 00 e4 ff ff 	lea    -0x1c00(%rbp),%rax
   1797b:	48 83 c0 08          	add    $0x8,%rax
   1797f:	48 89 85 70 eb ff ff 	mov    %rax,-0x1490(%rbp)
   17986:	48 8d 85 f4 e3 ff ff 	lea    -0x1c0c(%rbp),%rax
   1798d:	48 89 85 78 eb ff ff 	mov    %rax,-0x1488(%rbp)
   17994:	48 8d 85 f4 e3 ff ff 	lea    -0x1c0c(%rbp),%rax
   1799b:	48 89 85 80 eb ff ff 	mov    %rax,-0x1480(%rbp)
   179a2:	48 c7 85 88 eb ff ff 	movq   $0x0,-0x1478(%rbp)
   179a9:	00 00 00 00 
   179ad:	48 8d 85 e4 e3 ff ff 	lea    -0x1c1c(%rbp),%rax
   179b4:	48 89 85 90 eb ff ff 	mov    %rax,-0x1470(%rbp)
   179bb:	48 8d 85 f4 e3 ff ff 	lea    -0x1c0c(%rbp),%rax
   179c2:	48 89 85 98 eb ff ff 	mov    %rax,-0x1468(%rbp)
   179c9:	48 8d 85 00 e4 ff ff 	lea    -0x1c00(%rbp),%rax
   179d0:	48 83 c0 0c          	add    $0xc,%rax
   179d4:	48 89 85 a0 eb ff ff 	mov    %rax,-0x1460(%rbp)
   179db:	48 8d 85 00 e4 ff ff 	lea    -0x1c00(%rbp),%rax
   179e2:	48 89 85 a8 eb ff ff 	mov    %rax,-0x1458(%rbp)
   179e9:	48 8d 85 00 e4 ff ff 	lea    -0x1c00(%rbp),%rax
   179f0:	48 83 c0 0c          	add    $0xc,%rax
   179f4:	48 89 85 b0 eb ff ff 	mov    %rax,-0x1450(%rbp)
   179fb:	48 8d 85 f4 e3 ff ff 	lea    -0x1c0c(%rbp),%rax
   17a02:	48 89 85 b8 eb ff ff 	mov    %rax,-0x1448(%rbp)
   17a09:	48 8d 85 e4 e3 ff ff 	lea    -0x1c1c(%rbp),%rax
   17a10:	48 83 c0 04          	add    $0x4,%rax
   17a14:	48 89 85 c0 eb ff ff 	mov    %rax,-0x1440(%rbp)
   17a1b:	48 8d 85 a0 df ff ff 	lea    -0x2060(%rbp),%rax
   17a22:	48 89 85 c8 eb ff ff 	mov    %rax,-0x1438(%rbp)
   17a29:	48 8d 85 e4 e3 ff ff 	lea    -0x1c1c(%rbp),%rax
   17a30:	48 83 c0 04          	add    $0x4,%rax
   17a34:	48 89 85 d0 eb ff ff 	mov    %rax,-0x1430(%rbp)
   17a3b:	48 c7 85 d8 eb ff ff 	movq   $0x0,-0x1428(%rbp)
   17a42:	00 00 00 00 
   17a46:	48 8d 85 00 e4 ff ff 	lea    -0x1c00(%rbp),%rax
   17a4d:	48 89 85 e0 eb ff ff 	mov    %rax,-0x1420(%rbp)
   17a54:	48 8d 85 f4 e3 ff ff 	lea    -0x1c0c(%rbp),%rax
   17a5b:	48 89 85 e8 eb ff ff 	mov    %rax,-0x1418(%rbp)
   17a62:	48 c7 85 f0 eb ff ff 	movq   $0x0,-0x1410(%rbp)
   17a69:	00 00 00 00 
   17a6d:	48 8d 85 a0 df ff ff 	lea    -0x2060(%rbp),%rax
   17a74:	48 89 85 f8 eb ff ff 	mov    %rax,-0x1408(%rbp)
   17a7b:	48 8d 85 f4 e3 ff ff 	lea    -0x1c0c(%rbp),%rax
   17a82:	48 89 85 00 ec ff ff 	mov    %rax,-0x1400(%rbp)
   17a89:	48 8d 85 e4 e3 ff ff 	lea    -0x1c1c(%rbp),%rax
   17a90:	48 83 c0 04          	add    $0x4,%rax
   17a94:	48 89 85 08 ec ff ff 	mov    %rax,-0x13f8(%rbp)
   17a9b:	48 8d 85 00 e4 ff ff 	lea    -0x1c00(%rbp),%rax
   17aa2:	48 83 c0 0c          	add    $0xc,%rax
   17aa6:	48 89 85 10 ec ff ff 	mov    %rax,-0x13f0(%rbp)
   17aad:	48 8d 85 e4 e3 ff ff 	lea    -0x1c1c(%rbp),%rax
   17ab4:	48 89 85 18 ec ff ff 	mov    %rax,-0x13e8(%rbp)
   17abb:	48 c7 85 20 ec ff ff 	movq   $0x0,-0x13e0(%rbp)
   17ac2:	00 00 00 00 
   17ac6:	48 c7 85 28 ec ff ff 	movq   $0x0,-0x13d8(%rbp)
   17acd:	00 00 00 00 
   17ad1:	48 c7 85 30 ec ff ff 	movq   $0x0,-0x13d0(%rbp)
   17ad8:	00 00 00 00 
   17adc:	48 c7 85 38 ec ff ff 	movq   $0x0,-0x13c8(%rbp)
   17ae3:	00 00 00 00 
   17ae7:	48 8d 85 00 e4 ff ff 	lea    -0x1c00(%rbp),%rax
   17aee:	48 83 c0 0c          	add    $0xc,%rax
   17af2:	48 89 85 40 ec ff ff 	mov    %rax,-0x13c0(%rbp)
   17af9:	48 c7 85 48 ec ff ff 	movq   $0x0,-0x13b8(%rbp)
   17b00:	00 00 00 00 
   17b04:	48 c7 85 50 ec ff ff 	movq   $0x0,-0x13b0(%rbp)
   17b0b:	00 00 00 00 
   17b0f:	48 c7 85 58 ec ff ff 	movq   $0x0,-0x13a8(%rbp)
   17b16:	00 00 00 00 
   17b1a:	48 c7 85 60 ec ff ff 	movq   $0x0,-0x13a0(%rbp)
   17b21:	00 00 00 00 
   17b25:	48 8d 85 00 e4 ff ff 	lea    -0x1c00(%rbp),%rax
   17b2c:	48 83 c0 0c          	add    $0xc,%rax
   17b30:	48 89 85 68 ec ff ff 	mov    %rax,-0x1398(%rbp)
   17b37:	48 8d 85 f4 e3 ff ff 	lea    -0x1c0c(%rbp),%rax
   17b3e:	48 89 85 70 ec ff ff 	mov    %rax,-0x1390(%rbp)
   17b45:	48 8d 05 8c c6 00 00 	lea    0xc68c(%rip),%rax        # 241d8 <g_400>
   17b4c:	48 89 85 78 ec ff ff 	mov    %rax,-0x1388(%rbp)
   17b53:	48 8d 85 a0 df ff ff 	lea    -0x2060(%rbp),%rax
   17b5a:	48 89 85 80 ec ff ff 	mov    %rax,-0x1380(%rbp)
   17b61:	48 8d 85 00 e4 ff ff 	lea    -0x1c00(%rbp),%rax
   17b68:	48 83 c0 08          	add    $0x8,%rax
   17b6c:	48 89 85 88 ec ff ff 	mov    %rax,-0x1378(%rbp)
   17b73:	48 c7 85 90 ec ff ff 	movq   $0x0,-0x1370(%rbp)
   17b7a:	00 00 00 00 
   17b7e:	48 8d 85 f4 e3 ff ff 	lea    -0x1c0c(%rbp),%rax
   17b85:	48 89 85 98 ec ff ff 	mov    %rax,-0x1368(%rbp)
   17b8c:	48 c7 85 a0 ec ff ff 	movq   $0x0,-0x1360(%rbp)
   17b93:	00 00 00 00 
   17b97:	48 8d 85 a0 df ff ff 	lea    -0x2060(%rbp),%rax
   17b9e:	48 89 85 a8 ec ff ff 	mov    %rax,-0x1358(%rbp)
   17ba5:	48 8d 85 a8 df ff ff 	lea    -0x2058(%rbp),%rax
   17bac:	48 89 85 b0 ec ff ff 	mov    %rax,-0x1350(%rbp)
   17bb3:	48 8d 85 f4 e3 ff ff 	lea    -0x1c0c(%rbp),%rax
   17bba:	48 89 85 b8 ec ff ff 	mov    %rax,-0x1348(%rbp)
   17bc1:	48 c7 85 c0 ec ff ff 	movq   $0x0,-0x1340(%rbp)
   17bc8:	00 00 00 00 
   17bcc:	48 8d 05 05 c6 00 00 	lea    0xc605(%rip),%rax        # 241d8 <g_400>
   17bd3:	48 89 85 c8 ec ff ff 	mov    %rax,-0x1338(%rbp)
   17bda:	48 8d 85 a0 df ff ff 	lea    -0x2060(%rbp),%rax
   17be1:	48 89 85 d0 ec ff ff 	mov    %rax,-0x1330(%rbp)
   17be8:	48 8d 85 f4 e3 ff ff 	lea    -0x1c0c(%rbp),%rax
   17bef:	48 89 85 d8 ec ff ff 	mov    %rax,-0x1328(%rbp)
   17bf6:	48 8d 85 f4 e3 ff ff 	lea    -0x1c0c(%rbp),%rax
   17bfd:	48 89 85 e0 ec ff ff 	mov    %rax,-0x1320(%rbp)
   17c04:	48 8d 85 f4 e3 ff ff 	lea    -0x1c0c(%rbp),%rax
   17c0b:	48 89 85 e8 ec ff ff 	mov    %rax,-0x1318(%rbp)
   17c12:	48 8d 85 a0 df ff ff 	lea    -0x2060(%rbp),%rax
   17c19:	48 89 85 f0 ec ff ff 	mov    %rax,-0x1310(%rbp)
   17c20:	48 8d 05 b1 c5 00 00 	lea    0xc5b1(%rip),%rax        # 241d8 <g_400>
   17c27:	48 89 85 f8 ec ff ff 	mov    %rax,-0x1308(%rbp)
   17c2e:	c6 85 81 df ff ff 00 	movb   $0x0,-0x207f(%rbp)
   17c35:	c7 85 30 e0 ff ff 93 	movl   $0x87a1f593,-0x1fd0(%rbp)
   17c3c:	f5 a1 87 
   17c3f:	83 85 f4 df ff ff 01 	addl   $0x1,-0x200c(%rbp)
   17c46:	8b 95 54 df ff ff    	mov    -0x20ac(%rbp),%edx
   17c4c:	48 8b 85 90 e1 ff ff 	mov    -0x1e70(%rbp),%rax
   17c53:	89 10                	mov    %edx,(%rax)
   17c55:	c7 85 ac df ff ff 00 	movl   $0x0,-0x2054(%rbp)
   17c5c:	00 00 00 
   17c5f:	e9 31 0d 00 00       	jmpq   18995 <func_47+0x6291>
   17c64:	c7 85 34 e0 ff ff 00 	movl   $0x0,-0x1fcc(%rbp)
   17c6b:	00 00 00 
   17c6e:	c7 85 08 e0 ff ff 00 	movl   $0x0,-0x1ff8(%rbp)
   17c75:	00 00 00 
   17c78:	eb 46                	jmp    17cc0 <func_47+0x55bc>
   17c7a:	c7 85 0c e0 ff ff 00 	movl   $0x0,-0x1ff4(%rbp)
   17c81:	00 00 00 
   17c84:	eb 2a                	jmp    17cb0 <func_47+0x55ac>
   17c86:	8b 85 0c e0 ff ff    	mov    -0x1ff4(%rbp),%eax
   17c8c:	48 98                	cltq   
   17c8e:	8b 95 08 e0 ff ff    	mov    -0x1ff8(%rbp),%edx
   17c94:	48 63 d2             	movslq %edx,%rdx
   17c97:	48 01 d2             	add    %rdx,%rdx
   17c9a:	48 01 d0             	add    %rdx,%rax
   17c9d:	48 c7 84 c5 50 e5 ff 	movq   $0x0,-0x1ab0(%rbp,%rax,8)
   17ca4:	ff 00 00 00 00 
   17ca9:	83 85 0c e0 ff ff 01 	addl   $0x1,-0x1ff4(%rbp)
   17cb0:	83 bd 0c e0 ff ff 01 	cmpl   $0x1,-0x1ff4(%rbp)
   17cb7:	7e cd                	jle    17c86 <func_47+0x5582>
   17cb9:	83 85 08 e0 ff ff 01 	addl   $0x1,-0x1ff8(%rbp)
   17cc0:	83 bd 08 e0 ff ff 04 	cmpl   $0x4,-0x1ff8(%rbp)
   17cc7:	7e b1                	jle    17c7a <func_47+0x5576>
   17cc9:	c6 05 80 c4 00 00 00 	movb   $0x0,0xc480(%rip)        # 24150 <g_184>
   17cd0:	90                   	nop
   17cd1:	0f b6 05 78 c4 00 00 	movzbl 0xc478(%rip),%eax        # 24150 <g_184>
   17cd8:	3c 01                	cmp    $0x1,%al
   17cda:	77 29                	ja     17d05 <func_47+0x5601>
   17cdc:	0f b7 05 a5 0c 01 00 	movzwl 0x10ca5(%rip),%eax        # 28988 <g_239>
   17ce3:	98                   	cwtl   
   17ce4:	8d 50 07             	lea    0x7(%rax),%edx
   17ce7:	48 8b 05 da c4 00 00 	mov    0xc4da(%rip),%rax        # 241c8 <g_374>
   17cee:	48 63 d2             	movslq %edx,%rdx
   17cf1:	48 c1 e2 03          	shl    $0x3,%rdx
   17cf5:	48 01 d0             	add    %rdx,%rax
   17cf8:	48 8b 84 c5 50 e6 ff 	mov    -0x19b0(%rbp,%rax,8),%rax
   17cff:	ff 
   17d00:	e9 9b 0f 00 00       	jmpq   18ca0 <func_47+0x659c>
   17d05:	48 c7 05 18 c5 00 00 	movq   $0x0,0xc518(%rip)        # 24228 <g_1622>
   17d0c:	00 00 00 00 
   17d10:	e9 e2 00 00 00       	jmpq   17df7 <func_47+0x56f3>
   17d15:	48 c7 85 18 e2 ff ff 	movq   $0x0,-0x1de8(%rbp)
   17d1c:	00 00 00 00 
   17d20:	48 8d 85 00 e1 ff ff 	lea    -0x1f00(%rbp),%rax
   17d27:	48 89 85 20 e2 ff ff 	mov    %rax,-0x1de0(%rbp)
   17d2e:	8b 85 00 e4 ff ff    	mov    -0x1c00(%rbp),%eax
   17d34:	35 3e 3b 1f 83       	xor    $0x831f3b3e,%eax
   17d39:	89 85 00 e4 ff ff    	mov    %eax,-0x1c00(%rbp)
   17d3f:	8b 85 ac df ff ff    	mov    -0x2054(%rbp),%eax
   17d45:	8d 70 04             	lea    0x4(%rax),%esi
   17d48:	0f b7 05 39 0c 01 00 	movzwl 0x10c39(%rip),%eax        # 28988 <g_239>
   17d4f:	98                   	cwtl   
   17d50:	0f b7 15 31 0c 01 00 	movzwl 0x10c31(%rip),%edx        # 28988 <g_239>
   17d57:	0f bf d2             	movswl %dx,%edx
   17d5a:	48 63 ca             	movslq %edx,%rcx
   17d5d:	89 f2                	mov    %esi,%edx
   17d5f:	48 98                	cltq   
   17d61:	48 01 c2             	add    %rax,%rdx
   17d64:	48 89 d0             	mov    %rdx,%rax
   17d67:	48 01 c0             	add    %rax,%rax
   17d6a:	48 01 d0             	add    %rdx,%rax
   17d6d:	48 01 c0             	add    %rax,%rax
   17d70:	48 8d 14 08          	lea    (%rax,%rcx,1),%rdx
   17d74:	48 8d 05 e5 c3 00 00 	lea    0xc3e5(%rip),%rax        # 24160 <g_190>
   17d7b:	48 01 d0             	add    %rdx,%rax
   17d7e:	0f b6 00             	movzbl (%rax),%eax
   17d81:	84 c0                	test   %al,%al
   17d83:	0f 85 81 00 00 00    	jne    17e0a <func_47+0x5706>
   17d89:	48 8b 85 20 e2 ff ff 	mov    -0x1de0(%rbp),%rax
   17d90:	48 8d 95 f4 e3 ff ff 	lea    -0x1c0c(%rbp),%rdx
   17d97:	48 89 10             	mov    %rdx,(%rax)
   17d9a:	8b 85 ac df ff ff    	mov    -0x2054(%rbp),%eax
   17da0:	8d 70 07             	lea    0x7(%rax),%esi
   17da3:	0f b6 85 7f df ff ff 	movzbl -0x2081(%rbp),%eax
   17daa:	0f b6 c0             	movzbl %al,%eax
   17dad:	0f b6 95 7f df ff ff 	movzbl -0x2081(%rbp),%edx
   17db4:	0f b6 d2             	movzbl %dl,%edx
   17db7:	83 c2 03             	add    $0x3,%edx
   17dba:	48 63 ca             	movslq %edx,%rcx
   17dbd:	89 f2                	mov    %esi,%edx
   17dbf:	48 98                	cltq   
   17dc1:	48 01 c2             	add    %rax,%rdx
   17dc4:	48 89 d0             	mov    %rdx,%rax
   17dc7:	48 01 c0             	add    %rax,%rax
   17dca:	48 01 d0             	add    %rdx,%rax
   17dcd:	48 01 c0             	add    %rax,%rax
   17dd0:	48 8d 14 08          	lea    (%rax,%rcx,1),%rdx
   17dd4:	48 8d 05 85 c3 00 00 	lea    0xc385(%rip),%rax        # 24160 <g_190>
   17ddb:	48 01 d0             	add    %rdx,%rax
   17dde:	0f b6 00             	movzbl (%rax),%eax
   17de1:	84 c0                	test   %al,%al
   17de3:	75 28                	jne    17e0d <func_47+0x5709>
   17de5:	48 8b 05 3c c4 00 00 	mov    0xc43c(%rip),%rax        # 24228 <g_1622>
   17dec:	48 83 c0 01          	add    $0x1,%rax
   17df0:	48 89 05 31 c4 00 00 	mov    %rax,0xc431(%rip)        # 24228 <g_1622>
   17df7:	48 8b 05 2a c4 00 00 	mov    0xc42a(%rip),%rax        # 24228 <g_1622>
   17dfe:	48 83 f8 07          	cmp    $0x7,%rax
   17e02:	0f 8e 0d ff ff ff    	jle    17d15 <func_47+0x5611>
   17e08:	eb 04                	jmp    17e0e <func_47+0x570a>
   17e0a:	90                   	nop
   17e0b:	eb 01                	jmp    17e0e <func_47+0x570a>
   17e0d:	90                   	nop
   17e0e:	48 8b 05 53 c2 00 00 	mov    0xc253(%rip),%rax        # 24068 <g_21+0x28>
   17e15:	89 85 48 df ff ff    	mov    %eax,-0x20b8(%rbp)
   17e1b:	48 8b 05 a6 c3 00 00 	mov    0xc3a6(%rip),%rax        # 241c8 <g_374>
   17e22:	48 8d 70 01          	lea    0x1(%rax),%rsi
   17e26:	48 8b 05 9b c3 00 00 	mov    0xc39b(%rip),%rax        # 241c8 <g_374>
   17e2d:	0f b7 15 54 0b 01 00 	movzwl 0x10b54(%rip),%edx        # 28988 <g_239>
   17e34:	0f bf d2             	movswl %dx,%edx
   17e37:	83 c2 04             	add    $0x4,%edx
   17e3a:	48 63 ca             	movslq %edx,%rcx
   17e3d:	48 8d 14 06          	lea    (%rsi,%rax,1),%rdx
   17e41:	48 89 d0             	mov    %rdx,%rax
   17e44:	48 01 c0             	add    %rax,%rax
   17e47:	48 01 d0             	add    %rdx,%rax
   17e4a:	48 01 c0             	add    %rax,%rax
   17e4d:	48 8d 14 08          	lea    (%rax,%rcx,1),%rdx
   17e51:	48 8d 05 08 c3 00 00 	lea    0xc308(%rip),%rax        # 24160 <g_190>
   17e58:	48 01 d0             	add    %rdx,%rax
   17e5b:	0f b6 00             	movzbl (%rax),%eax
   17e5e:	44 0f be f8          	movsbl %al,%r15d
   17e62:	48 8b 05 5f c3 00 00 	mov    0xc35f(%rip),%rax        # 241c8 <g_374>
   17e69:	48 8d 50 07          	lea    0x7(%rax),%rdx
   17e6d:	0f b7 05 14 0b 01 00 	movzwl 0x10b14(%rip),%eax        # 28988 <g_239>
   17e74:	98                   	cwtl   
   17e75:	83 c0 04             	add    $0x4,%eax
   17e78:	48 63 c8             	movslq %eax,%rcx
   17e7b:	8b 85 ac df ff ff    	mov    -0x2054(%rbp),%eax
   17e81:	48 01 c2             	add    %rax,%rdx
   17e84:	48 89 d0             	mov    %rdx,%rax
   17e87:	48 01 c0             	add    %rax,%rax
   17e8a:	48 01 d0             	add    %rdx,%rax
   17e8d:	48 01 c0             	add    %rax,%rax
   17e90:	48 8d 14 08          	lea    (%rax,%rcx,1),%rdx
   17e94:	48 8d 05 c5 c2 00 00 	lea    0xc2c5(%rip),%rax        # 24160 <g_190>
   17e9b:	48 01 d0             	add    %rdx,%rax
   17e9e:	0f b6 00             	movzbl (%rax),%eax
   17ea1:	0f be c0             	movsbl %al,%eax
   17ea4:	89 85 40 df ff ff    	mov    %eax,-0x20c0(%rbp)
   17eaa:	0f b6 85 7f df ff ff 	movzbl -0x2081(%rbp),%eax
   17eb1:	0f b6 c0             	movzbl %al,%eax
   17eb4:	8d 50 04             	lea    0x4(%rax),%edx
   17eb7:	8b 85 ac df ff ff    	mov    -0x2054(%rbp),%eax
   17ebd:	83 c0 03             	add    $0x3,%eax
   17ec0:	89 c1                	mov    %eax,%ecx
   17ec2:	48 63 d2             	movslq %edx,%rdx
   17ec5:	8b 85 ac df ff ff    	mov    -0x2054(%rbp),%eax
   17ecb:	48 01 c2             	add    %rax,%rdx
   17ece:	48 89 d0             	mov    %rdx,%rax
   17ed1:	48 01 c0             	add    %rax,%rax
   17ed4:	48 01 d0             	add    %rdx,%rax
   17ed7:	48 01 c0             	add    %rax,%rax
   17eda:	48 8d 14 08          	lea    (%rax,%rcx,1),%rdx
   17ede:	48 8d 05 7b c2 00 00 	lea    0xc27b(%rip),%rax        # 24160 <g_190>
   17ee5:	48 01 d0             	add    %rdx,%rax
   17ee8:	0f b6 00             	movzbl (%rax),%eax
   17eeb:	44 0f be f0          	movsbl %al,%r14d
   17eef:	48 8b 85 c8 e1 ff ff 	mov    -0x1e38(%rbp),%rax
   17ef6:	8b 00                	mov    (%rax),%eax
   17ef8:	0f be d8             	movsbl %al,%ebx
   17efb:	8b 85 54 df ff ff    	mov    -0x20ac(%rbp),%eax
   17f01:	44 0f bf e0          	movswl %ax,%r12d
   17f05:	0f b6 85 7f df ff ff 	movzbl -0x2081(%rbp),%eax
   17f0c:	44 0f b6 e8          	movzbl %al,%r13d
   17f10:	48 8b 05 e1 e4 00 00 	mov    0xe4e1(%rip),%rax        # 263f8 <g_1402>
   17f17:	48 85 c0             	test   %rax,%rax
   17f1a:	0f 94 c0             	sete   %al
   17f1d:	0f b6 c0             	movzbl %al,%eax
   17f20:	be 04 00 00 00       	mov    $0x4,%esi
   17f25:	89 c7                	mov    %eax,%edi
   17f27:	e8 92 3d ff ff       	callq  bcbe <safe_rshift_func_uint8_t_u_u>
   17f2c:	0f b6 c0             	movzbl %al,%eax
   17f2f:	be 03 00 00 00       	mov    $0x3,%esi
   17f34:	89 c7                	mov    %eax,%edi
   17f36:	e8 ca 3c ff ff       	callq  bc05 <safe_lshift_func_uint8_t_u_s>
   17f3b:	48 8b 05 86 c2 00 00 	mov    0xc286(%rip),%rax        # 241c8 <g_374>
   17f42:	48 8d 70 01          	lea    0x1(%rax),%rsi
   17f46:	48 8b 05 7b c2 00 00 	mov    0xc27b(%rip),%rax        # 241c8 <g_374>
   17f4d:	0f b7 15 34 0a 01 00 	movzwl 0x10a34(%rip),%edx        # 28988 <g_239>
   17f54:	0f bf d2             	movswl %dx,%edx
   17f57:	83 c2 04             	add    $0x4,%edx
   17f5a:	48 63 ca             	movslq %edx,%rcx
   17f5d:	48 8d 14 06          	lea    (%rsi,%rax,1),%rdx
   17f61:	48 89 d0             	mov    %rdx,%rax
   17f64:	48 01 c0             	add    %rax,%rax
   17f67:	48 01 d0             	add    %rdx,%rax
   17f6a:	48 01 c0             	add    %rax,%rax
   17f6d:	48 8d 14 08          	lea    (%rax,%rcx,1),%rdx
   17f71:	48 8d 05 e8 c1 00 00 	lea    0xc1e8(%rip),%rax        # 24160 <g_190>
   17f78:	48 01 d0             	add    %rdx,%rax
   17f7b:	0f b6 00             	movzbl (%rax),%eax
   17f7e:	3c 01                	cmp    $0x1,%al
   17f80:	0f 9f c0             	setg   %al
   17f83:	0f b6 c0             	movzbl %al,%eax
   17f86:	44 89 ee             	mov    %r13d,%esi
   17f89:	89 c7                	mov    %eax,%edi
   17f8b:	e8 8f 3d ff ff       	callq  bd1f <safe_sub_func_uint16_t_u_u>
   17f90:	98                   	cwtl   
   17f91:	44 89 e6             	mov    %r12d,%esi
   17f94:	89 c7                	mov    %eax,%edi
   17f96:	e8 ba 34 ff ff       	callq  b455 <safe_div_func_int16_t_s_s>
   17f9b:	89 c2                	mov    %eax,%edx
   17f9d:	48 8b 85 58 df ff ff 	mov    -0x20a8(%rbp),%rax
   17fa4:	0f b6 00             	movzbl (%rax),%eax
   17fa7:	21 c2                	and    %eax,%edx
   17fa9:	48 8b 85 58 df ff ff 	mov    -0x20a8(%rbp),%rax
   17fb0:	88 10                	mov    %dl,(%rax)
   17fb2:	48 8b 85 58 df ff ff 	mov    -0x20a8(%rbp),%rax
   17fb9:	0f b6 00             	movzbl (%rax),%eax
   17fbc:	0f be c0             	movsbl %al,%eax
   17fbf:	89 de                	mov    %ebx,%esi
   17fc1:	89 c7                	mov    %eax,%edi
   17fc3:	e8 4a 32 ff ff       	callq  b212 <safe_mul_func_int8_t_s_s>
   17fc8:	84 c0                	test   %al,%al
   17fca:	0f 94 c0             	sete   %al
   17fcd:	0f b6 d0             	movzbl %al,%edx
   17fd0:	8b 85 54 df ff ff    	mov    -0x20ac(%rbp),%eax
   17fd6:	0f b6 c0             	movzbl %al,%eax
   17fd9:	89 d6                	mov    %edx,%esi
   17fdb:	89 c7                	mov    %eax,%edi
   17fdd:	e8 b1 3b ff ff       	callq  bb93 <safe_mul_func_uint8_t_u_u>
   17fe2:	0f b6 c0             	movzbl %al,%eax
   17fe5:	89 85 e4 e3 ff ff    	mov    %eax,-0x1c1c(%rbp)
   17feb:	8b 85 e4 e3 ff ff    	mov    -0x1c1c(%rbp),%eax
   17ff1:	0f b6 c0             	movzbl %al,%eax
   17ff4:	be f7 00 00 00       	mov    $0xf7,%esi
   17ff9:	89 c7                	mov    %eax,%edi
   17ffb:	e8 93 3b ff ff       	callq  bb93 <safe_mul_func_uint8_t_u_u>
   18000:	0f b6 c0             	movzbl %al,%eax
   18003:	89 85 34 e0 ff ff    	mov    %eax,-0x1fcc(%rbp)
   18009:	44 39 b5 34 e0 ff ff 	cmp    %r14d,-0x1fcc(%rbp)
   18010:	0f 9d c0             	setge  %al
   18013:	0f b6 c0             	movzbl %al,%eax
   18016:	0b 85 40 df ff ff    	or     -0x20c0(%rbp),%eax
   1801c:	41 39 c7             	cmp    %eax,%r15d
   1801f:	0f 94 c0             	sete   %al
   18022:	0f b6 c0             	movzbl %al,%eax
   18025:	8b b5 48 df ff ff    	mov    -0x20b8(%rbp),%esi
   1802b:	89 c7                	mov    %eax,%edi
   1802d:	e8 03 33 ff ff       	callq  b335 <safe_rshift_func_int8_t_s_s>
   18032:	84 c0                	test   %al,%al
   18034:	0f 84 29 02 00 00    	je     18263 <func_47+0x5b5f>
   1803a:	c7 85 38 e0 ff ff 64 	movl   $0x6cd1a964,-0x1fc8(%rbp)
   18041:	a9 d1 6c 
   18044:	48 b8 f0 92 d9 ee ab 	movabs $0xe231dbabeed992f0,%rax
   1804b:	db 31 e2 
   1804e:	48 89 85 28 e2 ff ff 	mov    %rax,-0x1dd8(%rbp)
   18055:	8b 85 54 df ff ff    	mov    -0x20ac(%rbp),%eax
   1805b:	89 85 08 e4 ff ff    	mov    %eax,-0x1bf8(%rbp)
   18061:	0f b7 85 10 e4 ff ff 	movzwl -0x1bf0(%rbp),%eax
   18068:	66 83 f8 01          	cmp    $0x1,%ax
   1806c:	0f 94 c0             	sete   %al
   1806f:	44 0f b6 e8          	movzbl %al,%r13d
   18073:	48 8b 15 4e c1 00 00 	mov    0xc14e(%rip),%rdx        # 241c8 <g_374>
   1807a:	0f b7 05 07 09 01 00 	movzwl 0x10907(%rip),%eax        # 28988 <g_239>
   18081:	98                   	cwtl   
   18082:	83 c0 01             	add    $0x1,%eax
   18085:	8b b5 ac df ff ff    	mov    -0x2054(%rbp),%esi
   1808b:	48 63 c8             	movslq %eax,%rcx
   1808e:	48 89 d0             	mov    %rdx,%rax
   18091:	48 01 c0             	add    %rax,%rax
   18094:	48 01 d0             	add    %rdx,%rax
   18097:	48 01 c0             	add    %rax,%rax
   1809a:	48 89 ca             	mov    %rcx,%rdx
   1809d:	48 01 d2             	add    %rdx,%rdx
   180a0:	48 01 ca             	add    %rcx,%rdx
   180a3:	48 01 d0             	add    %rdx,%rax
   180a6:	48 01 f0             	add    %rsi,%rax
   180a9:	48 8d 14 c5 00 00 00 	lea    0x0(,%rax,8),%rdx
   180b0:	00 
   180b1:	48 8d 05 08 c0 00 00 	lea    0xc008(%rip),%rax        # 240c0 <g_169>
   180b8:	48 8b 04 02          	mov    (%rdx,%rax,1),%rax
   180bc:	48 8b 15 05 c1 00 00 	mov    0xc105(%rip),%rdx        # 241c8 <g_374>
   180c3:	0f b7 0d be 08 01 00 	movzwl 0x108be(%rip),%ecx        # 28988 <g_239>
   180ca:	0f bf c9             	movswl %cx,%ecx
   180cd:	8d 79 01             	lea    0x1(%rcx),%edi
   180d0:	48 83 c8 04          	or     $0x4,%rax
   180d4:	49 89 c0             	mov    %rax,%r8
   180d7:	44 8b 8d ac df ff ff 	mov    -0x2054(%rbp),%r9d
   180de:	48 63 f7             	movslq %edi,%rsi
   180e1:	48 89 d0             	mov    %rdx,%rax
   180e4:	48 01 c0             	add    %rax,%rax
   180e7:	48 01 d0             	add    %rdx,%rax
   180ea:	48 01 c0             	add    %rax,%rax
   180ed:	48 89 f1             	mov    %rsi,%rcx
   180f0:	48 01 c9             	add    %rcx,%rcx
   180f3:	48 01 f1             	add    %rsi,%rcx
   180f6:	48 01 c8             	add    %rcx,%rax
   180f9:	4c 01 c8             	add    %r9,%rax
   180fc:	48 8d 0c c5 00 00 00 	lea    0x0(,%rax,8),%rcx
   18103:	00 
   18104:	48 8d 05 b5 bf 00 00 	lea    0xbfb5(%rip),%rax        # 240c0 <g_169>
   1810b:	4c 89 04 01          	mov    %r8,(%rcx,%rax,1)
   1810f:	8b b5 ac df ff ff    	mov    -0x2054(%rbp),%esi
   18115:	48 63 cf             	movslq %edi,%rcx
   18118:	48 89 d0             	mov    %rdx,%rax
   1811b:	48 01 c0             	add    %rax,%rax
   1811e:	48 01 d0             	add    %rdx,%rax
   18121:	48 01 c0             	add    %rax,%rax
   18124:	48 89 ca             	mov    %rcx,%rdx
   18127:	48 01 d2             	add    %rdx,%rdx
   1812a:	48 01 ca             	add    %rcx,%rdx
   1812d:	48 01 d0             	add    %rdx,%rax
   18130:	48 01 f0             	add    %rsi,%rax
   18133:	48 8d 14 c5 00 00 00 	lea    0x0(,%rax,8),%rdx
   1813a:	00 
   1813b:	48 8d 05 7e bf 00 00 	lea    0xbf7e(%rip),%rax        # 240c0 <g_169>
   18142:	48 8b 04 02          	mov    (%rdx,%rax,1),%rax
   18146:	49 89 c6             	mov    %rax,%r14
   18149:	8b 85 a0 df ff ff    	mov    -0x2060(%rbp),%eax
   1814f:	0f b6 d8             	movzbl %al,%ebx
   18152:	8b 85 38 e0 ff ff    	mov    -0x1fc8(%rbp),%eax
   18158:	44 0f be e0          	movsbl %al,%r12d
   1815c:	8b 85 54 df ff ff    	mov    -0x20ac(%rbp),%eax
   18162:	98                   	cwtl   
   18163:	8b 95 f4 df ff ff    	mov    -0x200c(%rbp),%edx
   18169:	89 d6                	mov    %edx,%esi
   1816b:	89 c7                	mov    %eax,%edi
   1816d:	e8 f1 33 ff ff       	callq  b563 <safe_rshift_func_int16_t_s_u>
   18172:	48 8b 05 9f e2 00 00 	mov    0xe29f(%rip),%rax        # 26418 <g_1842+0x8>
   18179:	48 85 c0             	test   %rax,%rax
   1817c:	75 07                	jne    18185 <func_47+0x5a81>
   1817e:	83 bd 54 df ff ff 00 	cmpl   $0x0,-0x20ac(%rbp)
   18185:	0f b7 05 a4 c0 00 00 	movzwl 0xc0a4(%rip),%eax        # 24230 <g_1670>
   1818c:	66 85 c0             	test   %ax,%ax
   1818f:	75 07                	jne    18198 <func_47+0x5a94>
   18191:	83 bd 34 e0 ff ff 00 	cmpl   $0x0,-0x1fcc(%rbp)
   18198:	48 8b 85 58 df ff ff 	mov    -0x20a8(%rbp),%rax
   1819f:	0f b6 00             	movzbl (%rax),%eax
   181a2:	0f be c0             	movsbl %al,%eax
   181a5:	44 89 e6             	mov    %r12d,%esi
   181a8:	89 c7                	mov    %eax,%edi
   181aa:	e8 82 30 ff ff       	callq  b231 <safe_mod_func_int8_t_s_s>
   181af:	48 8b 05 42 08 01 00 	mov    0x10842(%rip),%rax        # 289f8 <g_1367>
   181b6:	48 85 c0             	test   %rax,%rax
   181b9:	0f 94 c2             	sete   %dl
   181bc:	48 8b 05 25 e2 00 00 	mov    0xe225(%rip),%rax        # 263e8 <g_1404>
   181c3:	0f b6 d2             	movzbl %dl,%edx
   181c6:	66 89 10             	mov    %dx,(%rax)
   181c9:	0f b7 00             	movzwl (%rax),%eax
   181cc:	0f b7 c0             	movzwl %ax,%eax
   181cf:	be 00 00 00 00       	mov    $0x0,%esi
   181d4:	89 c7                	mov    %eax,%edi
   181d6:	e8 81 3b ff ff       	callq  bd5c <safe_mod_func_uint16_t_u_u>
   181db:	0f b6 c0             	movzbl %al,%eax
   181de:	89 de                	mov    %ebx,%esi
   181e0:	89 c7                	mov    %eax,%edi
   181e2:	e8 c7 39 ff ff       	callq  bbae <safe_mod_func_uint8_t_u_u>
   181e7:	0f b6 c0             	movzbl %al,%eax
   181ea:	39 85 54 df ff ff    	cmp    %eax,-0x20ac(%rbp)
   181f0:	0f 94 c0             	sete   %al
   181f3:	0f b6 d0             	movzbl %al,%edx
   181f6:	48 8b 85 58 e1 ff ff 	mov    -0x1ea8(%rbp),%rax
   181fd:	48 89 10             	mov    %rdx,(%rax)
   18200:	48 8b 85 58 e1 ff ff 	mov    -0x1ea8(%rbp),%rax
   18207:	48 8b 00             	mov    (%rax),%rax
   1820a:	49 39 c6             	cmp    %rax,%r14
   1820d:	0f 95 c0             	setne  %al
   18210:	0f b6 c0             	movzbl %al,%eax
   18213:	39 85 54 df ff ff    	cmp    %eax,-0x20ac(%rbp)
   18219:	0f 96 c0             	setbe  %al
   1821c:	0f b6 c0             	movzbl %al,%eax
   1821f:	41 39 c5             	cmp    %eax,%r13d
   18222:	0f 9d c0             	setge  %al
   18225:	0f b6 c0             	movzbl %al,%eax
   18228:	be 42 cb 00 00       	mov    $0xcb42,%esi
   1822d:	89 c7                	mov    %eax,%edi
   1822f:	e8 5a 3b ff ff       	callq  bd8e <safe_div_func_uint16_t_u_u>
   18234:	0f b7 d0             	movzwl %ax,%edx
   18237:	8b 85 54 df ff ff    	mov    -0x20ac(%rbp),%eax
   1823d:	48 89 d6             	mov    %rdx,%rsi
   18240:	48 89 c7             	mov    %rax,%rdi
   18243:	e8 60 36 ff ff       	callq  b8a8 <safe_sub_func_int64_t_s_s>
   18248:	83 e0 fe             	and    $0xfffffffe,%eax
   1824b:	89 c2                	mov    %eax,%edx
   1824d:	48 8b 85 98 e1 ff ff 	mov    -0x1e68(%rbp),%rax
   18254:	89 10                	mov    %edx,(%rax)
   18256:	48 83 ad 28 e2 ff ff 	subq   $0x1,-0x1dd8(%rbp)
   1825d:	01 
   1825e:	e9 ef 03 00 00       	jmpq   18652 <func_47+0x5f4e>
   18263:	48 8d 85 f8 e0 ff ff 	lea    -0x1f08(%rbp),%rax
   1826a:	48 89 85 50 e8 ff ff 	mov    %rax,-0x17b0(%rbp)
   18271:	48 8d 05 20 07 01 00 	lea    0x10720(%rip),%rax        # 28998 <g_375>
   18278:	48 89 85 58 e8 ff ff 	mov    %rax,-0x17a8(%rbp)
   1827f:	48 8d 85 e8 e0 ff ff 	lea    -0x1f18(%rbp),%rax
   18286:	48 89 85 60 e8 ff ff 	mov    %rax,-0x17a0(%rbp)
   1828d:	48 8d 05 04 07 01 00 	lea    0x10704(%rip),%rax        # 28998 <g_375>
   18294:	48 89 85 68 e8 ff ff 	mov    %rax,-0x1798(%rbp)
   1829b:	48 8d 85 f8 e0 ff ff 	lea    -0x1f08(%rbp),%rax
   182a2:	48 89 85 70 e8 ff ff 	mov    %rax,-0x1790(%rbp)
   182a9:	48 8d 05 10 e1 00 00 	lea    0xe110(%rip),%rax        # 263c0 <g_1058>
   182b0:	48 89 85 78 e8 ff ff 	mov    %rax,-0x1788(%rbp)
   182b7:	48 8d 85 e8 e0 ff ff 	lea    -0x1f18(%rbp),%rax
   182be:	48 89 85 80 e8 ff ff 	mov    %rax,-0x1780(%rbp)
   182c5:	48 8d 85 f0 e0 ff ff 	lea    -0x1f10(%rbp),%rax
   182cc:	48 89 85 88 e8 ff ff 	mov    %rax,-0x1778(%rbp)
   182d3:	48 8d 85 e8 e0 ff ff 	lea    -0x1f18(%rbp),%rax
   182da:	48 89 85 90 e8 ff ff 	mov    %rax,-0x1770(%rbp)
   182e1:	48 8d 05 d8 e0 00 00 	lea    0xe0d8(%rip),%rax        # 263c0 <g_1058>
   182e8:	48 89 85 98 e8 ff ff 	mov    %rax,-0x1768(%rbp)
   182ef:	48 8d 85 f8 e0 ff ff 	lea    -0x1f08(%rbp),%rax
   182f6:	48 89 85 a0 e8 ff ff 	mov    %rax,-0x1760(%rbp)
   182fd:	48 8d 05 94 06 01 00 	lea    0x10694(%rip),%rax        # 28998 <g_375>
   18304:	48 89 85 a8 e8 ff ff 	mov    %rax,-0x1758(%rbp)
   1830b:	48 8d 85 e8 e0 ff ff 	lea    -0x1f18(%rbp),%rax
   18312:	48 89 85 b0 e8 ff ff 	mov    %rax,-0x1750(%rbp)
   18319:	48 8d 05 78 06 01 00 	lea    0x10678(%rip),%rax        # 28998 <g_375>
   18320:	48 89 85 b8 e8 ff ff 	mov    %rax,-0x1748(%rbp)
   18327:	48 8d 85 f8 e0 ff ff 	lea    -0x1f08(%rbp),%rax
   1832e:	48 89 85 c0 e8 ff ff 	mov    %rax,-0x1740(%rbp)
   18335:	48 8d 05 84 e0 00 00 	lea    0xe084(%rip),%rax        # 263c0 <g_1058>
   1833c:	48 89 85 c8 e8 ff ff 	mov    %rax,-0x1738(%rbp)
   18343:	48 8d 85 e8 e0 ff ff 	lea    -0x1f18(%rbp),%rax
   1834a:	48 89 85 d0 e8 ff ff 	mov    %rax,-0x1730(%rbp)
   18351:	48 8d 85 f0 e0 ff ff 	lea    -0x1f10(%rbp),%rax
   18358:	48 89 85 d8 e8 ff ff 	mov    %rax,-0x1728(%rbp)
   1835f:	48 8d 85 e8 e0 ff ff 	lea    -0x1f18(%rbp),%rax
   18366:	48 89 85 e0 e8 ff ff 	mov    %rax,-0x1720(%rbp)
   1836d:	48 8d 05 4c e0 00 00 	lea    0xe04c(%rip),%rax        # 263c0 <g_1058>
   18374:	48 89 85 e8 e8 ff ff 	mov    %rax,-0x1718(%rbp)
   1837b:	48 8d 85 f8 e0 ff ff 	lea    -0x1f08(%rbp),%rax
   18382:	48 89 85 f0 e8 ff ff 	mov    %rax,-0x1710(%rbp)
   18389:	48 8d 05 08 06 01 00 	lea    0x10608(%rip),%rax        # 28998 <g_375>
   18390:	48 89 85 f8 e8 ff ff 	mov    %rax,-0x1708(%rbp)
   18397:	48 8d 85 e8 e0 ff ff 	lea    -0x1f18(%rbp),%rax
   1839e:	48 89 85 00 e9 ff ff 	mov    %rax,-0x1700(%rbp)
   183a5:	48 8d 05 ec 05 01 00 	lea    0x105ec(%rip),%rax        # 28998 <g_375>
   183ac:	48 89 85 08 e9 ff ff 	mov    %rax,-0x16f8(%rbp)
   183b3:	48 8d 85 f8 e0 ff ff 	lea    -0x1f08(%rbp),%rax
   183ba:	48 89 85 10 e9 ff ff 	mov    %rax,-0x16f0(%rbp)
   183c1:	48 8d 05 f8 df 00 00 	lea    0xdff8(%rip),%rax        # 263c0 <g_1058>
   183c8:	48 89 85 18 e9 ff ff 	mov    %rax,-0x16e8(%rbp)
   183cf:	48 8d 85 e8 e0 ff ff 	lea    -0x1f18(%rbp),%rax
   183d6:	48 89 85 20 e9 ff ff 	mov    %rax,-0x16e0(%rbp)
   183dd:	48 8d 85 f0 e0 ff ff 	lea    -0x1f10(%rbp),%rax
   183e4:	48 89 85 28 e9 ff ff 	mov    %rax,-0x16d8(%rbp)
   183eb:	48 8d 85 e8 e0 ff ff 	lea    -0x1f18(%rbp),%rax
   183f2:	48 89 85 30 e9 ff ff 	mov    %rax,-0x16d0(%rbp)
   183f9:	48 8d 05 c0 df 00 00 	lea    0xdfc0(%rip),%rax        # 263c0 <g_1058>
   18400:	48 89 85 38 e9 ff ff 	mov    %rax,-0x16c8(%rbp)
   18407:	48 8d 85 f8 e0 ff ff 	lea    -0x1f08(%rbp),%rax
   1840e:	48 89 85 40 e9 ff ff 	mov    %rax,-0x16c0(%rbp)
   18415:	48 8d 05 7c 05 01 00 	lea    0x1057c(%rip),%rax        # 28998 <g_375>
   1841c:	48 89 85 48 e9 ff ff 	mov    %rax,-0x16b8(%rbp)
   18423:	48 8d 85 e8 e0 ff ff 	lea    -0x1f18(%rbp),%rax
   1842a:	48 89 85 50 e9 ff ff 	mov    %rax,-0x16b0(%rbp)
   18431:	48 8d 05 60 05 01 00 	lea    0x10560(%rip),%rax        # 28998 <g_375>
   18438:	48 89 85 58 e9 ff ff 	mov    %rax,-0x16a8(%rbp)
   1843f:	48 8d 85 f8 e0 ff ff 	lea    -0x1f08(%rbp),%rax
   18446:	48 89 85 60 e9 ff ff 	mov    %rax,-0x16a0(%rbp)
   1844d:	48 8d 05 6c df 00 00 	lea    0xdf6c(%rip),%rax        # 263c0 <g_1058>
   18454:	48 89 85 68 e9 ff ff 	mov    %rax,-0x1698(%rbp)
   1845b:	48 8d 85 e8 e0 ff ff 	lea    -0x1f18(%rbp),%rax
   18462:	48 89 85 70 e9 ff ff 	mov    %rax,-0x1690(%rbp)
   18469:	48 8d 85 f0 e0 ff ff 	lea    -0x1f10(%rbp),%rax
   18470:	48 89 85 78 e9 ff ff 	mov    %rax,-0x1688(%rbp)
   18477:	48 8d 85 e8 e0 ff ff 	lea    -0x1f18(%rbp),%rax
   1847e:	48 89 85 80 e9 ff ff 	mov    %rax,-0x1680(%rbp)
   18485:	48 8d 05 34 df 00 00 	lea    0xdf34(%rip),%rax        # 263c0 <g_1058>
   1848c:	48 89 85 88 e9 ff ff 	mov    %rax,-0x1678(%rbp)
   18493:	48 8d 85 f8 e0 ff ff 	lea    -0x1f08(%rbp),%rax
   1849a:	48 89 85 90 e9 ff ff 	mov    %rax,-0x1670(%rbp)
   184a1:	48 8d 05 f0 04 01 00 	lea    0x104f0(%rip),%rax        # 28998 <g_375>
   184a8:	48 89 85 98 e9 ff ff 	mov    %rax,-0x1668(%rbp)
   184af:	48 8d 85 e8 e0 ff ff 	lea    -0x1f18(%rbp),%rax
   184b6:	48 89 85 a0 e9 ff ff 	mov    %rax,-0x1660(%rbp)
   184bd:	48 8d 05 d4 04 01 00 	lea    0x104d4(%rip),%rax        # 28998 <g_375>
   184c4:	48 89 85 a8 e9 ff ff 	mov    %rax,-0x1658(%rbp)
   184cb:	48 8d 85 f8 e0 ff ff 	lea    -0x1f08(%rbp),%rax
   184d2:	48 89 85 b0 e9 ff ff 	mov    %rax,-0x1650(%rbp)
   184d9:	48 8d 05 e0 de 00 00 	lea    0xdee0(%rip),%rax        # 263c0 <g_1058>
   184e0:	48 89 85 b8 e9 ff ff 	mov    %rax,-0x1648(%rbp)
   184e7:	48 8d 85 e8 e0 ff ff 	lea    -0x1f18(%rbp),%rax
   184ee:	48 89 85 c0 e9 ff ff 	mov    %rax,-0x1640(%rbp)
   184f5:	48 8d 85 f0 e0 ff ff 	lea    -0x1f10(%rbp),%rax
   184fc:	48 89 85 c8 e9 ff ff 	mov    %rax,-0x1638(%rbp)
   18503:	48 8d 85 e8 e0 ff ff 	lea    -0x1f18(%rbp),%rax
   1850a:	48 89 85 d0 e9 ff ff 	mov    %rax,-0x1630(%rbp)
   18511:	48 8d 05 a8 de 00 00 	lea    0xdea8(%rip),%rax        # 263c0 <g_1058>
   18518:	48 89 85 d8 e9 ff ff 	mov    %rax,-0x1628(%rbp)
   1851f:	48 8d 85 f8 e0 ff ff 	lea    -0x1f08(%rbp),%rax
   18526:	48 89 85 e0 e9 ff ff 	mov    %rax,-0x1620(%rbp)
   1852d:	48 8d 05 64 04 01 00 	lea    0x10464(%rip),%rax        # 28998 <g_375>
   18534:	48 89 85 e8 e9 ff ff 	mov    %rax,-0x1618(%rbp)
   1853b:	48 8d 85 e8 e0 ff ff 	lea    -0x1f18(%rbp),%rax
   18542:	48 89 85 f0 e9 ff ff 	mov    %rax,-0x1610(%rbp)
   18549:	48 8d 05 48 04 01 00 	lea    0x10448(%rip),%rax        # 28998 <g_375>
   18550:	48 89 85 f8 e9 ff ff 	mov    %rax,-0x1608(%rbp)
   18557:	48 8d 85 f8 e0 ff ff 	lea    -0x1f08(%rbp),%rax
   1855e:	48 89 85 00 ea ff ff 	mov    %rax,-0x1600(%rbp)
   18565:	48 8d 05 54 de 00 00 	lea    0xde54(%rip),%rax        # 263c0 <g_1058>
   1856c:	48 89 85 08 ea ff ff 	mov    %rax,-0x15f8(%rbp)
   18573:	48 8d 85 e8 e0 ff ff 	lea    -0x1f18(%rbp),%rax
   1857a:	48 89 85 10 ea ff ff 	mov    %rax,-0x15f0(%rbp)
   18581:	48 8d 85 f0 e0 ff ff 	lea    -0x1f10(%rbp),%rax
   18588:	48 89 85 18 ea ff ff 	mov    %rax,-0x15e8(%rbp)
   1858f:	48 8d 85 e8 e0 ff ff 	lea    -0x1f18(%rbp),%rax
   18596:	48 89 85 20 ea ff ff 	mov    %rax,-0x15e0(%rbp)
   1859d:	48 8d 05 1c de 00 00 	lea    0xde1c(%rip),%rax        # 263c0 <g_1058>
   185a4:	48 89 85 28 ea ff ff 	mov    %rax,-0x15d8(%rbp)
   185ab:	48 8d 85 f8 e0 ff ff 	lea    -0x1f08(%rbp),%rax
   185b2:	48 89 85 30 ea ff ff 	mov    %rax,-0x15d0(%rbp)
   185b9:	48 8d 05 d8 03 01 00 	lea    0x103d8(%rip),%rax        # 28998 <g_375>
   185c0:	48 89 85 38 ea ff ff 	mov    %rax,-0x15c8(%rbp)
   185c7:	48 8d 85 e8 e0 ff ff 	lea    -0x1f18(%rbp),%rax
   185ce:	48 89 85 40 ea ff ff 	mov    %rax,-0x15c0(%rbp)
   185d5:	48 8d 05 bc 03 01 00 	lea    0x103bc(%rip),%rax        # 28998 <g_375>
   185dc:	48 89 85 48 ea ff ff 	mov    %rax,-0x15b8(%rbp)
   185e3:	48 8d 85 f8 e0 ff ff 	lea    -0x1f08(%rbp),%rax
   185ea:	48 89 85 50 ea ff ff 	mov    %rax,-0x15b0(%rbp)
   185f1:	48 8d 05 c8 dd 00 00 	lea    0xddc8(%rip),%rax        # 263c0 <g_1058>
   185f8:	48 89 85 58 ea ff ff 	mov    %rax,-0x15a8(%rbp)
   185ff:	48 8d 85 e8 e0 ff ff 	lea    -0x1f18(%rbp),%rax
   18606:	48 89 85 60 ea ff ff 	mov    %rax,-0x15a0(%rbp)
   1860d:	48 8d 85 f0 e0 ff ff 	lea    -0x1f10(%rbp),%rax
   18614:	48 89 85 68 ea ff ff 	mov    %rax,-0x1598(%rbp)
   1861b:	48 8d 85 e8 e0 ff ff 	lea    -0x1f18(%rbp),%rax
   18622:	48 89 85 70 ea ff ff 	mov    %rax,-0x1590(%rbp)
   18629:	48 8d 05 90 dd 00 00 	lea    0xdd90(%rip),%rax        # 263c0 <g_1058>
   18630:	48 89 85 78 ea ff ff 	mov    %rax,-0x1588(%rbp)
   18637:	48 8d 05 b6 bb 00 00 	lea    0xbbb6(%rip),%rax        # 241f4 <g_892>
   1863e:	48 89 05 93 03 01 00 	mov    %rax,0x10393(%rip)        # 289d8 <g_399+0x38>
   18645:	48 8b 05 74 dd 00 00 	mov    0xdd74(%rip),%rax        # 263c0 <g_1058>
   1864c:	c7 00 01 00 00 00    	movl   $0x1,(%rax)
   18652:	c7 05 3c ba 00 00 00 	movl   $0x0,0xba3c(%rip)        # 24098 <g_89>
   18659:	00 00 00 
   1865c:	e9 1f 03 00 00       	jmpq   18980 <func_47+0x627c>
   18661:	48 8d 05 ac bb 00 00 	lea    0xbbac(%rip),%rax        # 24214 <g_1297+0x14>
   18668:	48 89 85 08 e1 ff ff 	mov    %rax,-0x1ef8(%rbp)
   1866f:	48 8d 85 08 e1 ff ff 	lea    -0x1ef8(%rbp),%rax
   18676:	48 89 85 30 e2 ff ff 	mov    %rax,-0x1dd0(%rbp)
   1867d:	c7 85 3c e0 ff ff f8 	movl   $0xfffffff8,-0x1fc4(%rbp)
   18684:	ff ff ff 
   18687:	48 8b 85 10 e2 ff ff 	mov    -0x1df0(%rbp),%rax
   1868e:	8b 10                	mov    (%rax),%edx
   18690:	48 8b 85 98 e5 ff ff 	mov    -0x1a68(%rbp),%rax
   18697:	48 85 c0             	test   %rax,%rax
   1869a:	0f 95 c0             	setne  %al
   1869d:	0f b6 c0             	movzbl %al,%eax
   186a0:	31 c2                	xor    %eax,%edx
   186a2:	48 8b 85 10 e2 ff ff 	mov    -0x1df0(%rbp),%rax
   186a9:	89 10                	mov    %edx,(%rax)
   186ab:	8b 9d a4 df ff ff    	mov    -0x205c(%rbp),%ebx
   186b1:	8b 85 a0 df ff ff    	mov    -0x2060(%rbp),%eax
   186b7:	0f b7 d0             	movzwl %ax,%edx
   186ba:	48 83 bd 68 df ff ff 	cmpq   $0x0,-0x2098(%rbp)
   186c1:	00 
   186c2:	0f 94 c0             	sete   %al
   186c5:	0f b6 c0             	movzbl %al,%eax
   186c8:	89 d6                	mov    %edx,%esi
   186ca:	89 c7                	mov    %eax,%edi
   186cc:	e8 8b 36 ff ff       	callq  bd5c <safe_mod_func_uint16_t_u_u>
   186d1:	0f b7 c0             	movzwl %ax,%eax
   186d4:	48 89 85 48 df ff ff 	mov    %rax,-0x20b8(%rbp)
   186db:	8b 85 3c e0 ff ff    	mov    -0x1fc4(%rbp),%eax
   186e1:	4c 63 e0             	movslq %eax,%r12
   186e4:	44 8b ad 54 df ff ff 	mov    -0x20ac(%rbp),%r13d
   186eb:	48 8b 05 c6 dc 00 00 	mov    0xdcc6(%rip),%rax        # 263b8 <g_965>
   186f2:	4c 8b 30             	mov    (%rax),%r14
   186f5:	8b 85 54 df ff ff    	mov    -0x20ac(%rbp),%eax
   186fb:	44 0f be f8          	movsbl %al,%r15d
   186ff:	8b 85 54 df ff ff    	mov    -0x20ac(%rbp),%eax
   18705:	0f be c0             	movsbl %al,%eax
   18708:	89 85 40 df ff ff    	mov    %eax,-0x20c0(%rbp)
   1870e:	0f b7 05 af ba 00 00 	movzwl 0xbaaf(%rip),%eax        # 241c4 <g_373>
   18715:	0f bf c8             	movswl %ax,%ecx
   18718:	89 8d 50 df ff ff    	mov    %ecx,-0x20b0(%rbp)
   1871e:	48 8b 85 30 e2 ff ff 	mov    -0x1dd0(%rbp),%rax
   18725:	48 c7 00 00 00 00 00 	movq   $0x0,(%rax)
   1872c:	48 8b 85 30 e2 ff ff 	mov    -0x1dd0(%rbp),%rax
   18733:	48 8b 00             	mov    (%rax),%rax
   18736:	48 39 85 68 df ff ff 	cmp    %rax,-0x2098(%rbp)
   1873d:	0f 95 c0             	setne  %al
   18740:	0f b6 c0             	movzbl %al,%eax
   18743:	be 92 00 00 00       	mov    $0x92,%esi
   18748:	89 c7                	mov    %eax,%edi
   1874a:	e8 44 34 ff ff       	callq  bb93 <safe_mul_func_uint8_t_u_u>
   1874f:	8b 85 00 e4 ff ff    	mov    -0x1c00(%rbp),%eax
   18755:	8b b5 50 df ff ff    	mov    -0x20b0(%rbp),%esi
   1875b:	89 c7                	mov    %eax,%edi
   1875d:	e8 6a 2f ff ff       	callq  b6cc <safe_mod_func_int32_t_s_s>
   18762:	8b b5 40 df ff ff    	mov    -0x20c0(%rbp),%esi
   18768:	bf ad ff ff ff       	mov    $0xffffffad,%edi
   1876d:	e8 bf 2a ff ff       	callq  b231 <safe_mod_func_int8_t_s_s>
   18772:	be 02 00 00 00       	mov    $0x2,%esi
   18777:	bf 00 00 00 00       	mov    $0x0,%edi
   1877c:	e8 e2 2d ff ff       	callq  b563 <safe_rshift_func_int16_t_s_u>
   18781:	89 c2                	mov    %eax,%edx
   18783:	8b 85 54 df ff ff    	mov    -0x20ac(%rbp),%eax
   18789:	09 d0                	or     %edx,%eax
   1878b:	0f be c0             	movsbl %al,%eax
   1878e:	44 89 fe             	mov    %r15d,%esi
   18791:	89 c7                	mov    %eax,%edi
   18793:	e8 7a 2a ff ff       	callq  b212 <safe_mul_func_int8_t_s_s>
   18798:	84 c0                	test   %al,%al
   1879a:	74 09                	je     187a5 <func_47+0x60a1>
   1879c:	0f b6 85 7f df ff ff 	movzbl -0x2081(%rbp),%eax
   187a3:	84 c0                	test   %al,%al
   187a5:	8b 85 54 df ff ff    	mov    -0x20ac(%rbp),%eax
   187ab:	4c 89 f6             	mov    %r14,%rsi
   187ae:	48 89 c7             	mov    %rax,%rdi
   187b1:	e8 fe 31 ff ff       	callq  b9b4 <safe_mod_func_int64_t_s_s>
   187b6:	0f b6 05 30 ba 00 00 	movzbl 0xba30(%rip),%eax        # 241ed <g_867>
   187bd:	84 c0                	test   %al,%al
   187bf:	83 bd 3c e0 ff ff 00 	cmpl   $0x0,-0x1fc4(%rbp)
   187c6:	0f 95 c0             	setne  %al
   187c9:	0f b6 c0             	movzbl %al,%eax
   187cc:	4c 89 ee             	mov    %r13,%rsi
   187cf:	48 89 c7             	mov    %rax,%rdi
   187d2:	e8 d8 38 ff ff       	callq  c0af <safe_div_func_uint64_t_u_u>
   187d7:	8b 85 54 df ff ff    	mov    -0x20ac(%rbp),%eax
   187dd:	4c 89 e6             	mov    %r12,%rsi
   187e0:	48 89 c7             	mov    %rax,%rdi
   187e3:	e8 59 30 ff ff       	callq  b841 <safe_add_func_int64_t_s_s>
   187e8:	48 39 85 48 df ff ff 	cmp    %rax,-0x20b8(%rbp)
   187ef:	0f 9f c0             	setg   %al
   187f2:	0f b6 c0             	movzbl %al,%eax
   187f5:	89 de                	mov    %ebx,%esi
   187f7:	89 c7                	mov    %eax,%edi
   187f9:	e8 a3 2a ff ff       	callq  b2a1 <safe_lshift_func_int8_t_s_s>
   187fe:	0f be d0             	movsbl %al,%edx
   18801:	48 8b 85 f8 e1 ff ff 	mov    -0x1e08(%rbp),%rax
   18808:	89 10                	mov    %edx,(%rax)
   1880a:	8b 95 54 df ff ff    	mov    -0x20ac(%rbp),%edx
   18810:	48 8b 85 e8 e1 ff ff 	mov    -0x1e18(%rbp),%rax
   18817:	89 10                	mov    %edx,(%rax)
   18819:	8b 95 54 df ff ff    	mov    -0x20ac(%rbp),%edx
   1881f:	48 8b 05 02 dc 00 00 	mov    0xdc02(%rip),%rax        # 26428 <g_1885>
   18826:	48 85 c0             	test   %rax,%rax
   18829:	0f 94 c0             	sete   %al
   1882c:	0f b6 c0             	movzbl %al,%eax
   1882f:	89 d6                	mov    %edx,%esi
   18831:	89 c7                	mov    %eax,%edi
   18833:	e8 10 36 ff ff       	callq  be48 <safe_rshift_func_uint16_t_u_s>
   18838:	48 8b 05 89 b9 00 00 	mov    0xb989(%rip),%rax        # 241c8 <g_374>
   1883f:	48 8d 50 07          	lea    0x7(%rax),%rdx
   18843:	0f b7 05 3e 01 01 00 	movzwl 0x1013e(%rip),%eax        # 28988 <g_239>
   1884a:	98                   	cwtl   
   1884b:	83 c0 04             	add    $0x4,%eax
   1884e:	48 63 c8             	movslq %eax,%rcx
   18851:	8b 85 ac df ff ff    	mov    -0x2054(%rbp),%eax
   18857:	48 01 c2             	add    %rax,%rdx
   1885a:	48 89 d0             	mov    %rdx,%rax
   1885d:	48 01 c0             	add    %rax,%rax
   18860:	48 01 d0             	add    %rdx,%rax
   18863:	48 01 c0             	add    %rax,%rax
   18866:	48 8d 14 08          	lea    (%rax,%rcx,1),%rdx
   1886a:	48 8d 05 ef b8 00 00 	lea    0xb8ef(%rip),%rax        # 24160 <g_190>
   18871:	48 01 d0             	add    %rdx,%rax
   18874:	0f b6 00             	movzbl (%rax),%eax
   18877:	3c 01                	cmp    $0x1,%al
   18879:	0f 9f c0             	setg   %al
   1887c:	0f b6 c0             	movzbl %al,%eax
   1887f:	39 85 54 df ff ff    	cmp    %eax,-0x20ac(%rbp)
   18885:	0f 92 c0             	setb   %al
   18888:	0f b6 d8             	movzbl %al,%ebx
   1888b:	8b 85 54 df ff ff    	mov    -0x20ac(%rbp),%eax
   18891:	48 89 c6             	mov    %rax,%rsi
   18894:	48 bf b3 a5 b7 65 f2 	movabs $0x7784d9f265b7a5b3,%rdi
   1889b:	d9 84 77 
   1889e:	e8 11 31 ff ff       	callq  b9b4 <safe_mod_func_int64_t_s_s>
   188a3:	49 89 c4             	mov    %rax,%r12
   188a6:	48 8b 05 1b b9 00 00 	mov    0xb91b(%rip),%rax        # 241c8 <g_374>
   188ad:	48 8d 50 04          	lea    0x4(%rax),%rdx
   188b1:	0f b7 05 d0 00 01 00 	movzwl 0x100d0(%rip),%eax        # 28988 <g_239>
   188b8:	98                   	cwtl   
   188b9:	48 98                	cltq   
   188bb:	48 01 d0             	add    %rdx,%rax
   188be:	0f b7 84 45 10 e4 ff 	movzwl -0x1bf0(%rbp,%rax,2),%eax
   188c5:	ff 
   188c6:	0f b6 c0             	movzbl %al,%eax
   188c9:	be 05 00 00 00       	mov    $0x5,%esi
   188ce:	89 c7                	mov    %eax,%edi
   188d0:	e8 b8 33 ff ff       	callq  bc8d <safe_rshift_func_uint8_t_u_s>
   188d5:	0f b6 c0             	movzbl %al,%eax
   188d8:	49 39 c4             	cmp    %rax,%r12
   188db:	0f 95 c0             	setne  %al
   188de:	0f b6 c0             	movzbl %al,%eax
   188e1:	89 de                	mov    %ebx,%esi
   188e3:	89 c7                	mov    %eax,%edi
   188e5:	e8 70 32 ff ff       	callq  bb5a <safe_add_func_uint8_t_u_u>
   188ea:	48 8b 05 d7 b8 00 00 	mov    0xb8d7(%rip),%rax        # 241c8 <g_374>
   188f1:	48 8d 50 07          	lea    0x7(%rax),%rdx
   188f5:	0f b7 05 8c 00 01 00 	movzwl 0x1008c(%rip),%eax        # 28988 <g_239>
   188fc:	98                   	cwtl   
   188fd:	83 c0 04             	add    $0x4,%eax
   18900:	48 63 c8             	movslq %eax,%rcx
   18903:	8b 85 ac df ff ff    	mov    -0x2054(%rbp),%eax
   18909:	48 01 c2             	add    %rax,%rdx
   1890c:	48 89 d0             	mov    %rdx,%rax
   1890f:	48 01 c0             	add    %rax,%rax
   18912:	48 01 d0             	add    %rdx,%rax
   18915:	48 01 c0             	add    %rax,%rax
   18918:	48 8d 14 08          	lea    (%rax,%rcx,1),%rdx
   1891c:	48 8d 05 3d b8 00 00 	lea    0xb83d(%rip),%rax        # 24160 <g_190>
   18923:	48 01 d0             	add    %rdx,%rax
   18926:	0f b6 00             	movzbl (%rax),%eax
   18929:	0f be c0             	movsbl %al,%eax
   1892c:	39 85 3c e0 ff ff    	cmp    %eax,-0x1fc4(%rbp)
   18932:	0f 9c c0             	setl   %al
   18935:	0f b6 d0             	movzbl %al,%edx
   18938:	48 8b 85 98 e1 ff ff 	mov    -0x1e68(%rbp),%rax
   1893f:	8b 00                	mov    (%rax),%eax
   18941:	83 f8 67             	cmp    $0x67,%eax
   18944:	0f 9e c0             	setle  %al
   18947:	0f b6 c0             	movzbl %al,%eax
   1894a:	89 d6                	mov    %edx,%esi
   1894c:	89 c7                	mov    %eax,%edi
   1894e:	e8 bf 28 ff ff       	callq  b212 <safe_mul_func_int8_t_s_s>
   18953:	0f be d0             	movsbl %al,%edx
   18956:	48 8b 85 c8 e1 ff ff 	mov    -0x1e38(%rbp),%rax
   1895d:	89 10                	mov    %edx,(%rax)
   1895f:	48 8b 85 f8 e0 ff ff 	mov    -0x1f08(%rbp),%rax
   18966:	48 8b 95 c8 e1 ff ff 	mov    -0x1e38(%rbp),%rdx
   1896d:	8b 12                	mov    (%rdx),%edx
   1896f:	89 10                	mov    %edx,(%rax)
   18971:	8b 05 21 b7 00 00    	mov    0xb721(%rip),%eax        # 24098 <g_89>
   18977:	83 c0 01             	add    $0x1,%eax
   1897a:	89 05 18 b7 00 00    	mov    %eax,0xb718(%rip)        # 24098 <g_89>
   18980:	8b 05 12 b7 00 00    	mov    0xb712(%rip),%eax        # 24098 <g_89>
   18986:	85 c0                	test   %eax,%eax
   18988:	0f 84 d3 fc ff ff    	je     18661 <func_47+0x5f5d>
   1898e:	83 85 ac df ff ff 01 	addl   $0x1,-0x2054(%rbp)
   18995:	83 bd ac df ff ff 00 	cmpl   $0x0,-0x2054(%rbp)
   1899c:	0f 84 c2 f2 ff ff    	je     17c64 <func_47+0x5560>
   189a2:	48 8b 85 58 df ff ff 	mov    -0x20a8(%rbp),%rax
   189a9:	0f b6 00             	movzbl (%rax),%eax
   189ac:	0f be d8             	movsbl %al,%ebx
   189af:	48 8b 05 12 b8 00 00 	mov    0xb812(%rip),%rax        # 241c8 <g_374>
   189b6:	48 8d 50 01          	lea    0x1(%rax),%rdx
   189ba:	0f b6 85 7f df ff ff 	movzbl -0x2081(%rbp),%eax
   189c1:	0f b6 c0             	movzbl %al,%eax
   189c4:	66 0f be 8d 81 df ff 	movsbw -0x207f(%rbp),%cx
   189cb:	ff 
   189cc:	48 63 f0             	movslq %eax,%rsi
   189cf:	48 01 d6             	add    %rdx,%rsi
   189d2:	66 89 8c 75 10 e4 ff 	mov    %cx,-0x1bf0(%rbp,%rsi,2)
   189d9:	ff 
   189da:	48 98                	cltq   
   189dc:	48 01 d0             	add    %rdx,%rax
   189df:	44 0f b7 ac 45 10 e4 	movzwl -0x1bf0(%rbp,%rax,2),%r13d
   189e6:	ff ff 
   189e8:	48 8b 85 e8 e1 ff ff 	mov    -0x1e18(%rbp),%rax
   189ef:	44 8b 20             	mov    (%rax),%r12d
   189f2:	8b 85 e4 e3 ff ff    	mov    -0x1c1c(%rbp),%eax
   189f8:	39 85 54 df ff ff    	cmp    %eax,-0x20ac(%rbp)
   189fe:	0f 97 c0             	seta   %al
   18a01:	44 0f b6 f0          	movzbl %al,%r14d
   18a05:	8b 85 e4 e3 ff ff    	mov    -0x1c1c(%rbp),%eax
   18a0b:	85 c0                	test   %eax,%eax
   18a0d:	75 09                	jne    18a18 <func_47+0x6314>
   18a0f:	83 bd f4 df ff ff 00 	cmpl   $0x0,-0x200c(%rbp)
   18a16:	74 07                	je     18a1f <func_47+0x631b>
   18a18:	b8 01 00 00 00       	mov    $0x1,%eax
   18a1d:	eb 05                	jmp    18a24 <func_47+0x6320>
   18a1f:	b8 00 00 00 00       	mov    $0x0,%eax
   18a24:	0f b7 c0             	movzwl %ax,%eax
   18a27:	be 0e 00 00 00       	mov    $0xe,%esi
   18a2c:	89 c7                	mov    %eax,%edi
   18a2e:	e8 8b 33 ff ff       	callq  bdbe <safe_lshift_func_uint16_t_u_s>
   18a33:	0f b7 c0             	movzwl %ax,%eax
   18a36:	41 39 c6             	cmp    %eax,%r14d
   18a39:	0f 95 c0             	setne  %al
   18a3c:	0f b6 d0             	movzbl %al,%edx
   18a3f:	48 8b 85 10 e2 ff ff 	mov    -0x1df0(%rbp),%rax
   18a46:	89 10                	mov    %edx,(%rax)
   18a48:	48 8b 85 10 e2 ff ff 	mov    -0x1df0(%rbp),%rax
   18a4f:	8b 00                	mov    (%rax),%eax
   18a51:	44 89 e6             	mov    %r12d,%esi
   18a54:	89 c7                	mov    %eax,%edi
   18a56:	e8 aa 2b ff ff       	callq  b605 <safe_sub_func_int32_t_s_s>
   18a5b:	41 0f bf cd          	movswl %r13w,%ecx
   18a5f:	8b 95 a4 df ff ff    	mov    -0x205c(%rbp),%edx
   18a65:	21 ca                	and    %ecx,%edx
   18a67:	89 95 a4 df ff ff    	mov    %edx,-0x205c(%rbp)
   18a6d:	8b 95 a4 df ff ff    	mov    -0x205c(%rbp),%edx
   18a73:	39 d0                	cmp    %edx,%eax
   18a75:	0f 9d c0             	setge  %al
   18a78:	0f b6 c0             	movzbl %al,%eax
   18a7b:	be 5e 2d 00 00       	mov    $0x2d5e,%esi
   18a80:	89 c7                	mov    %eax,%edi
   18a82:	e8 98 32 ff ff       	callq  bd1f <safe_sub_func_uint16_t_u_u>
   18a87:	0f b7 c0             	movzwl %ax,%eax
   18a8a:	be 40 8d a5 2b       	mov    $0x2ba58d40,%esi
   18a8f:	89 c7                	mov    %eax,%edi
   18a91:	e8 8f 34 ff ff       	callq  bf25 <safe_div_func_uint32_t_u_u>
   18a96:	85 c0                	test   %eax,%eax
   18a98:	0f 94 c0             	sete   %al
   18a9b:	0f b6 c0             	movzbl %al,%eax
   18a9e:	8b 95 30 e0 ff ff    	mov    -0x1fd0(%rbp),%edx
   18aa4:	89 d6                	mov    %edx,%esi
   18aa6:	89 c7                	mov    %eax,%edi
   18aa8:	e8 9b 33 ff ff       	callq  be48 <safe_rshift_func_uint16_t_u_s>
   18aad:	83 bd 54 df ff ff 01 	cmpl   $0x1,-0x20ac(%rbp)
   18ab4:	77 0f                	ja     18ac5 <func_47+0x63c1>
   18ab6:	48 8b 05 fb d8 00 00 	mov    0xd8fb(%rip),%rax        # 263b8 <g_965>
   18abd:	48 8b 00             	mov    (%rax),%rax
   18ac0:	48 85 c0             	test   %rax,%rax
   18ac3:	74 07                	je     18acc <func_47+0x63c8>
   18ac5:	b8 01 00 00 00       	mov    $0x1,%eax
   18aca:	eb 05                	jmp    18ad1 <func_47+0x63cd>
   18acc:	b8 00 00 00 00       	mov    $0x0,%eax
   18ad1:	0f b6 c0             	movzbl %al,%eax
   18ad4:	89 de                	mov    %ebx,%esi
   18ad6:	89 c7                	mov    %eax,%edi
   18ad8:	e8 28 31 ff ff       	callq  bc05 <safe_lshift_func_uint8_t_u_s>
   18add:	0f b6 d0             	movzbl %al,%edx
   18ae0:	8b 85 a0 df ff ff    	mov    -0x2060(%rbp),%eax
   18ae6:	31 d0                	xor    %edx,%eax
   18ae8:	89 85 a0 df ff ff    	mov    %eax,-0x2060(%rbp)
   18aee:	0f b6 85 7f df ff ff 	movzbl -0x2081(%rbp),%eax
   18af5:	83 c0 01             	add    $0x1,%eax
   18af8:	88 85 7f df ff ff    	mov    %al,-0x2081(%rbp)
   18afe:	0f b6 85 7f df ff ff 	movzbl -0x2081(%rbp),%eax
   18b05:	84 c0                	test   %al,%al
   18b07:	0f 84 9b eb ff ff    	je     176a8 <func_47+0x4fa4>
   18b0d:	eb 04                	jmp    18b13 <func_47+0x640f>
   18b0f:	90                   	nop
   18b10:	eb 01                	jmp    18b13 <func_47+0x640f>
   18b12:	90                   	nop
   18b13:	0f b7 05 6e fe 00 00 	movzwl 0xfe6e(%rip),%eax        # 28988 <g_239>
   18b1a:	83 e8 01             	sub    $0x1,%eax
   18b1d:	66 89 05 64 fe 00 00 	mov    %ax,0xfe64(%rip)        # 28988 <g_239>
   18b24:	0f b7 05 5d fe 00 00 	movzwl 0xfe5d(%rip),%eax        # 28988 <g_239>
   18b2b:	66 85 c0             	test   %ax,%ax
   18b2e:	0f 89 1f e2 ff ff    	jns    16d53 <func_47+0x464f>
   18b34:	eb 01                	jmp    18b37 <func_47+0x6433>
   18b36:	90                   	nop
   18b37:	0f b6 05 c4 fe 00 00 	movzbl 0xfec4(%rip),%eax        # 28a02 <g_1903>
   18b3e:	83 c0 01             	add    $0x1,%eax
   18b41:	88 05 bb fe 00 00    	mov    %al,0xfebb(%rip)        # 28a02 <g_1903>
   18b47:	c6 05 9e b6 00 00 00 	movb   $0x0,0xb69e(%rip)        # 241ec <g_539>
   18b4e:	e9 12 01 00 00       	jmpq   18c65 <func_47+0x6561>
   18b53:	c6 85 82 df ff ff 12 	movb   $0x12,-0x207e(%rbp)
   18b5a:	48 8d 85 a4 df ff ff 	lea    -0x205c(%rbp),%rax
   18b61:	48 89 85 38 e2 ff ff 	mov    %rax,-0x1dc8(%rbp)
   18b68:	48 8d 85 50 e6 ff ff 	lea    -0x19b0(%rbp),%rax
   18b6f:	48 05 20 01 00 00    	add    $0x120,%rax
   18b75:	48 89 85 40 e2 ff ff 	mov    %rax,-0x1dc0(%rbp)
   18b7c:	c7 85 40 e0 ff ff f6 	movl   $0xfffffff6,-0x1fc0(%rbp)
   18b83:	ff ff ff 
   18b86:	c7 85 44 e0 ff ff 06 	movl   $0x6,-0x1fbc(%rbp)
   18b8d:	00 00 00 
   18b90:	c7 85 48 e0 ff ff e7 	movl   $0x9b201ee7,-0x1fb8(%rbp)
   18b97:	1e 20 9b 
   18b9a:	c7 85 4c e0 ff ff ff 	movl   $0xffffffff,-0x1fb4(%rbp)
   18ba1:	ff ff ff 
   18ba4:	c6 85 83 df ff ff 18 	movb   $0x18,-0x207d(%rbp)
   18bab:	c7 85 50 e0 ff ff 01 	movl   $0x1,-0x1fb0(%rbp)
   18bb2:	00 00 00 
   18bb5:	48 c7 85 48 e2 ff ff 	movq   $0x0,-0x1db8(%rbp)
   18bbc:	00 00 00 00 
   18bc0:	c7 85 54 e0 ff ff f6 	movl   $0xfffffff6,-0x1fac(%rbp)
   18bc7:	ff ff ff 
   18bca:	c7 85 58 e0 ff ff 6b 	movl   $0x3e78fa6b,-0x1fa8(%rbp)
   18bd1:	fa 78 3e 
   18bd4:	c7 85 5c e0 ff ff 04 	movl   $0x4,-0x1fa4(%rbp)
   18bdb:	00 00 00 
   18bde:	48 8d 85 80 ea ff ff 	lea    -0x1580(%rbp),%rax
   18be5:	48 8d 15 34 75 00 00 	lea    0x7534(%rip),%rdx        # 20120 <g_2990+0x10a8>
   18bec:	b9 79 00 00 00       	mov    $0x79,%ecx
   18bf1:	48 89 c7             	mov    %rax,%rdi
   18bf4:	48 89 d6             	mov    %rdx,%rsi
   18bf7:	f3 48 a5             	rep movsq %ds:(%rsi),%es:(%rdi)
   18bfa:	48 89 f2             	mov    %rsi,%rdx
   18bfd:	48 89 f8             	mov    %rdi,%rax
   18c00:	8b 0a                	mov    (%rdx),%ecx
   18c02:	89 08                	mov    %ecx,(%rax)
   18c04:	c6 85 84 df ff ff 53 	movb   $0x53,-0x207c(%rbp)
   18c0b:	c7 85 60 e0 ff ff 51 	movl   $0x8a70ac51,-0x1fa0(%rbp)
   18c12:	ac 70 8a 
   18c15:	48 b8 f2 b7 d7 7b 2b 	movabs $0xbd94162b7bd7b7f2,%rax
   18c1c:	16 94 bd 
   18c1f:	48 89 85 50 e2 ff ff 	mov    %rax,-0x1db0(%rbp)
   18c26:	c7 85 10 e0 ff ff 00 	movl   $0x0,-0x1ff0(%rbp)
   18c2d:	00 00 00 
   18c30:	eb 1a                	jmp    18c4c <func_47+0x6548>
   18c32:	8b 85 10 e0 ff ff    	mov    -0x1ff0(%rbp),%eax
   18c38:	48 98                	cltq   
   18c3a:	c7 84 85 50 e8 ff ff 	movl   $0xe7529fd8,-0x17b0(%rbp,%rax,4)
   18c41:	d8 9f 52 e7 
   18c45:	83 85 10 e0 ff ff 01 	addl   $0x1,-0x1ff0(%rbp)
   18c4c:	83 bd 10 e0 ff ff 04 	cmpl   $0x4,-0x1ff0(%rbp)
   18c53:	7e dd                	jle    18c32 <func_47+0x652e>
   18c55:	0f b6 05 90 b5 00 00 	movzbl 0xb590(%rip),%eax        # 241ec <g_539>
   18c5c:	83 e8 01             	sub    $0x1,%eax
   18c5f:	88 05 87 b5 00 00    	mov    %al,0xb587(%rip)        # 241ec <g_539>
   18c65:	0f b6 05 80 b5 00 00 	movzbl 0xb580(%rip),%eax        # 241ec <g_539>
   18c6c:	84 c0                	test   %al,%al
   18c6e:	0f 89 df fe ff ff    	jns    18b53 <func_47+0x644f>
   18c74:	48 8b 05 4d b5 00 00 	mov    0xb54d(%rip),%rax        # 241c8 <g_374>
   18c7b:	48 83 e8 01          	sub    $0x1,%rax
   18c7f:	48 89 05 42 b5 00 00 	mov    %rax,0xb542(%rip)        # 241c8 <g_374>
   18c86:	48 8b 05 3b b5 00 00 	mov    0xb53b(%rip),%rax        # 241c8 <g_374>
   18c8d:	48 85 c0             	test   %rax,%rax
   18c90:	0f 89 fd d6 ff ff    	jns    16393 <func_47+0x3c8f>
   18c96:	48 8b 05 b3 d7 00 00 	mov    0xd7b3(%rip),%rax        # 26450 <g_2065>
   18c9d:	48 8b 00             	mov    (%rax),%rax
   18ca0:	48 8b 5d c8          	mov    -0x38(%rbp),%rbx
   18ca4:	64 48 33 1c 25 28 00 	xor    %fs:0x28,%rbx
   18cab:	00 00 
   18cad:	74 05                	je     18cb4 <func_47+0x65b0>
   18caf:	e8 bc 23 ff ff       	callq  b070 <__stack_chk_fail@plt>
   18cb4:	48 81 c4 98 20 00 00 	add    $0x2098,%rsp
   18cbb:	5b                   	pop    %rbx
   18cbc:	41 5c                	pop    %r12
   18cbe:	41 5d                	pop    %r13
   18cc0:	41 5e                	pop    %r14
   18cc2:	41 5f                	pop    %r15
   18cc4:	5d                   	pop    %rbp
   18cc5:	c3                   	retq   

0000000000018cc6 <func_52>:
   18cc6:	f3 0f 1e fa          	endbr64 
   18cca:	55                   	push   %rbp
   18ccb:	48 89 e5             	mov    %rsp,%rbp
   18cce:	41 56                	push   %r14
   18cd0:	41 55                	push   %r13
   18cd2:	41 54                	push   %r12
   18cd4:	53                   	push   %rbx
   18cd5:	48 81 ec 00 10 00 00 	sub    $0x1000,%rsp
   18cdc:	48 83 0c 24 00       	orq    $0x0,(%rsp)
   18ce1:	48 81 ec 60 05 00 00 	sub    $0x560,%rsp
   18ce8:	89 bd 8c ea ff ff    	mov    %edi,-0x1574(%rbp)
   18cee:	89 f0                	mov    %esi,%eax
   18cf0:	88 85 88 ea ff ff    	mov    %al,-0x1578(%rbp)
   18cf6:	64 48 8b 04 25 28 00 	mov    %fs:0x28,%rax
   18cfd:	00 00 
   18cff:	48 89 45 d8          	mov    %rax,-0x28(%rbp)
   18d03:	31 c0                	xor    %eax,%eax
   18d05:	c7 85 a0 ee ff ff 05 	movl   $0x5,-0x1160(%rbp)
   18d0c:	00 00 00 
   18d0f:	c7 85 a4 ee ff ff 05 	movl   $0x5,-0x115c(%rbp)
   18d16:	00 00 00 
   18d19:	c7 85 a8 ee ff ff ff 	movl   $0xffffffff,-0x1158(%rbp)
   18d20:	ff ff ff 
   18d23:	c7 85 ac ee ff ff ff 	movl   $0xffffffff,-0x1154(%rbp)
   18d2a:	ff ff ff 
   18d2d:	c7 85 b0 ee ff ff 0b 	movl   $0x6a7ac40b,-0x1150(%rbp)
   18d34:	c4 7a 6a 
   18d37:	c7 85 b4 ee ff ff 0b 	movl   $0x6a7ac40b,-0x114c(%rbp)
   18d3e:	c4 7a 6a 
   18d41:	c7 85 b8 ee ff ff ff 	movl   $0xffffffff,-0x1148(%rbp)
   18d48:	ff ff ff 
   18d4b:	c7 85 bc ee ff ff ff 	movl   $0xffffffff,-0x1144(%rbp)
   18d52:	ff ff ff 
   18d55:	c7 85 c0 ee ff ff 05 	movl   $0x5,-0x1140(%rbp)
   18d5c:	00 00 00 
   18d5f:	c7 85 c4 ee ff ff 05 	movl   $0x5,-0x113c(%rbp)
   18d66:	00 00 00 
   18d69:	c7 85 c8 ee ff ff 0b 	movl   $0x6a7ac40b,-0x1138(%rbp)
   18d70:	c4 7a 6a 
   18d73:	c7 85 cc ee ff ff ff 	movl   $0xffffffff,-0x1134(%rbp)
   18d7a:	ff ff ff 
   18d7d:	c7 85 d0 ee ff ff ff 	movl   $0xffffffff,-0x1130(%rbp)
   18d84:	ff ff ff 
   18d87:	c7 85 d4 ee ff ff 05 	movl   $0x5,-0x112c(%rbp)
   18d8e:	00 00 00 
   18d91:	c7 85 d8 ee ff ff 05 	movl   $0x5,-0x1128(%rbp)
   18d98:	00 00 00 
   18d9b:	c7 85 dc ee ff ff ff 	movl   $0xffffffff,-0x1124(%rbp)
   18da2:	ff ff ff 
   18da5:	c7 85 e0 ee ff ff ff 	movl   $0xffffffff,-0x1120(%rbp)
   18dac:	ff ff ff 
   18daf:	c7 85 e4 ee ff ff 0b 	movl   $0x6a7ac40b,-0x111c(%rbp)
   18db6:	c4 7a 6a 
   18db9:	c7 85 e8 ee ff ff 0b 	movl   $0x6a7ac40b,-0x1118(%rbp)
   18dc0:	c4 7a 6a 
   18dc3:	c7 85 ec ee ff ff ff 	movl   $0xffffffff,-0x1114(%rbp)
   18dca:	ff ff ff 
   18dcd:	c7 85 f0 ee ff ff 0b 	movl   $0x6a7ac40b,-0x1110(%rbp)
   18dd4:	c4 7a 6a 
   18dd7:	c7 85 f4 ee ff ff 05 	movl   $0x5,-0x110c(%rbp)
   18dde:	00 00 00 
   18de1:	c7 85 f8 ee ff ff ff 	movl   $0xffffffff,-0x1108(%rbp)
   18de8:	ff ff ff 
   18deb:	c7 85 fc ee ff ff ff 	movl   $0xffffffff,-0x1104(%rbp)
   18df2:	ff ff ff 
   18df5:	c7 85 00 ef ff ff 05 	movl   $0x5,-0x1100(%rbp)
   18dfc:	00 00 00 
   18dff:	c7 85 04 ef ff ff 0b 	movl   $0x6a7ac40b,-0x10fc(%rbp)
   18e06:	c4 7a 6a 
   18e09:	c7 85 08 ef ff ff ff 	movl   $0xffffffff,-0x10f8(%rbp)
   18e10:	ff ff ff 
   18e13:	c7 85 0c ef ff ff ff 	movl   $0xffffffff,-0x10f4(%rbp)
   18e1a:	ff ff ff 
   18e1d:	c7 85 10 ef ff ff 0b 	movl   $0x6a7ac40b,-0x10f0(%rbp)
   18e24:	c4 7a 6a 
   18e27:	c7 85 14 ef ff ff 05 	movl   $0x5,-0x10ec(%rbp)
   18e2e:	00 00 00 
   18e31:	c7 85 18 ef ff ff 05 	movl   $0x5,-0x10e8(%rbp)
   18e38:	00 00 00 
   18e3b:	c7 85 1c ef ff ff ff 	movl   $0xffffffff,-0x10e4(%rbp)
   18e42:	ff ff ff 
   18e45:	c7 85 20 ef ff ff ff 	movl   $0xffffffff,-0x10e0(%rbp)
   18e4c:	ff ff ff 
   18e4f:	c7 85 24 ef ff ff 05 	movl   $0x5,-0x10dc(%rbp)
   18e56:	00 00 00 
   18e59:	c7 85 28 ef ff ff 0b 	movl   $0x6a7ac40b,-0x10d8(%rbp)
   18e60:	c4 7a 6a 
   18e63:	c7 85 2c ef ff ff ff 	movl   $0xffffffff,-0x10d4(%rbp)
   18e6a:	ff ff ff 
   18e6d:	c7 85 30 ef ff ff ff 	movl   $0xffffffff,-0x10d0(%rbp)
   18e74:	ff ff ff 
   18e77:	c7 85 34 ef ff ff 0b 	movl   $0x6a7ac40b,-0x10cc(%rbp)
   18e7e:	c4 7a 6a 
   18e81:	c7 85 38 ef ff ff 05 	movl   $0x5,-0x10c8(%rbp)
   18e88:	00 00 00 
   18e8b:	c7 85 3c ef ff ff ff 	movl   $0xffffffff,-0x10c4(%rbp)
   18e92:	ff ff ff 
   18e95:	66 c7 85 9e ea ff ff 	movw   $0xfff9,-0x1562(%rbp)
   18e9c:	f9 ff 
   18e9e:	48 c7 85 50 eb ff ff 	movq   $0x0,-0x14b0(%rbp)
   18ea5:	00 00 00 00 
   18ea9:	48 8d 05 a0 b2 00 00 	lea    0xb2a0(%rip),%rax        # 24150 <g_184>
   18eb0:	48 89 85 28 eb ff ff 	mov    %rax,-0x14d8(%rbp)
   18eb7:	48 c7 85 10 ee ff ff 	movq   $0x2,-0x11f0(%rbp)
   18ebe:	02 00 00 00 
   18ec2:	48 b8 25 31 74 fe e6 	movabs $0x27c2e3e6fe743125,%rax
   18ec9:	e3 c2 27 
   18ecc:	48 89 85 18 ee ff ff 	mov    %rax,-0x11e8(%rbp)
   18ed3:	48 89 85 20 ee ff ff 	mov    %rax,-0x11e0(%rbp)
   18eda:	48 c7 85 28 ee ff ff 	movq   $0x2,-0x11d8(%rbp)
   18ee1:	02 00 00 00 
   18ee5:	48 89 85 30 ee ff ff 	mov    %rax,-0x11d0(%rbp)
   18eec:	48 89 85 38 ee ff ff 	mov    %rax,-0x11c8(%rbp)
   18ef3:	48 c7 85 40 ee ff ff 	movq   $0x2,-0x11c0(%rbp)
   18efa:	02 00 00 00 
   18efe:	48 89 85 48 ee ff ff 	mov    %rax,-0x11b8(%rbp)
   18f05:	66 c7 85 9c ea ff ff 	movw   $0x1,-0x1564(%rbp)
   18f0c:	01 00 
   18f0e:	48 8d 85 28 eb ff ff 	lea    -0x14d8(%rbp),%rax
   18f15:	48 89 85 58 eb ff ff 	mov    %rax,-0x14a8(%rbp)
   18f1c:	48 8d 85 a0 ee ff ff 	lea    -0x1160(%rbp),%rax
   18f23:	48 05 98 00 00 00    	add    $0x98,%rax
   18f29:	48 89 85 c0 f8 ff ff 	mov    %rax,-0x740(%rbp)
   18f30:	48 8d 85 a0 ee ff ff 	lea    -0x1160(%rbp),%rax
   18f37:	48 83 c0 78          	add    $0x78,%rax
   18f3b:	48 89 85 c8 f8 ff ff 	mov    %rax,-0x738(%rbp)
   18f42:	48 c7 85 d0 f8 ff ff 	movq   $0x0,-0x730(%rbp)
   18f49:	00 00 00 00 
   18f4d:	48 8d 85 a0 ee ff ff 	lea    -0x1160(%rbp),%rax
   18f54:	48 83 c0 04          	add    $0x4,%rax
   18f58:	48 89 85 d8 f8 ff ff 	mov    %rax,-0x728(%rbp)
   18f5f:	48 8d 85 a0 ee ff ff 	lea    -0x1160(%rbp),%rax
   18f66:	48 83 c0 78          	add    $0x78,%rax
   18f6a:	48 89 85 e0 f8 ff ff 	mov    %rax,-0x720(%rbp)
   18f71:	48 c7 85 e8 f8 ff ff 	movq   $0x0,-0x718(%rbp)
   18f78:	00 00 00 00 
   18f7c:	48 8d 85 a0 ee ff ff 	lea    -0x1160(%rbp),%rax
   18f83:	48 83 c0 3c          	add    $0x3c,%rax
   18f87:	48 89 85 f0 f8 ff ff 	mov    %rax,-0x710(%rbp)
   18f8e:	48 8d 85 a0 ee ff ff 	lea    -0x1160(%rbp),%rax
   18f95:	48 83 c0 78          	add    $0x78,%rax
   18f99:	48 89 85 f8 f8 ff ff 	mov    %rax,-0x708(%rbp)
   18fa0:	48 8d 85 a0 ee ff ff 	lea    -0x1160(%rbp),%rax
   18fa7:	48 83 c0 1c          	add    $0x1c,%rax
   18fab:	48 89 85 00 f9 ff ff 	mov    %rax,-0x700(%rbp)
   18fb2:	48 8d 85 a0 ee ff ff 	lea    -0x1160(%rbp),%rax
   18fb9:	48 83 c0 78          	add    $0x78,%rax
   18fbd:	48 89 85 08 f9 ff ff 	mov    %rax,-0x6f8(%rbp)
   18fc4:	48 c7 85 10 f9 ff ff 	movq   $0x0,-0x6f0(%rbp)
   18fcb:	00 00 00 00 
   18fcf:	48 8d 85 a0 ee ff ff 	lea    -0x1160(%rbp),%rax
   18fd6:	48 83 c0 78          	add    $0x78,%rax
   18fda:	48 89 85 18 f9 ff ff 	mov    %rax,-0x6e8(%rbp)
   18fe1:	48 8d 85 a0 ee ff ff 	lea    -0x1160(%rbp),%rax
   18fe8:	48 83 c0 78          	add    $0x78,%rax
   18fec:	48 89 85 20 f9 ff ff 	mov    %rax,-0x6e0(%rbp)
   18ff3:	48 8d 85 a0 ee ff ff 	lea    -0x1160(%rbp),%rax
   18ffa:	48 83 c0 04          	add    $0x4,%rax
   18ffe:	48 89 85 28 f9 ff ff 	mov    %rax,-0x6d8(%rbp)
   19005:	48 8d 05 cc b1 00 00 	lea    0xb1cc(%rip),%rax        # 241d8 <g_400>
   1900c:	48 89 85 30 f9 ff ff 	mov    %rax,-0x6d0(%rbp)
   19013:	48 8d 85 a0 ee ff ff 	lea    -0x1160(%rbp),%rax
   1901a:	48 83 c0 04          	add    $0x4,%rax
   1901e:	48 89 85 38 f9 ff ff 	mov    %rax,-0x6c8(%rbp)
   19025:	48 8d 85 a0 ee ff ff 	lea    -0x1160(%rbp),%rax
   1902c:	48 05 98 00 00 00    	add    $0x98,%rax
   19032:	48 89 85 40 f9 ff ff 	mov    %rax,-0x6c0(%rbp)
   19039:	48 8d 85 a0 ee ff ff 	lea    -0x1160(%rbp),%rax
   19040:	48 83 c0 64          	add    $0x64,%rax
   19044:	48 89 85 48 f9 ff ff 	mov    %rax,-0x6b8(%rbp)
   1904b:	48 8d 85 a0 ee ff ff 	lea    -0x1160(%rbp),%rax
   19052:	48 83 c0 04          	add    $0x4,%rax
   19056:	48 89 85 50 f9 ff ff 	mov    %rax,-0x6b0(%rbp)
   1905d:	48 8d 85 a0 ee ff ff 	lea    -0x1160(%rbp),%rax
   19064:	48 83 e8 80          	sub    $0xffffffffffffff80,%rax
   19068:	48 89 85 58 f9 ff ff 	mov    %rax,-0x6a8(%rbp)
   1906f:	48 c7 85 60 f9 ff ff 	movq   $0x0,-0x6a0(%rbp)
   19076:	00 00 00 00 
   1907a:	48 c7 85 68 f9 ff ff 	movq   $0x0,-0x698(%rbp)
   19081:	00 00 00 00 
   19085:	48 8d 85 a0 ee ff ff 	lea    -0x1160(%rbp),%rax
   1908c:	48 83 c0 78          	add    $0x78,%rax
   19090:	48 89 85 70 f9 ff ff 	mov    %rax,-0x690(%rbp)
   19097:	48 8d 85 a0 ee ff ff 	lea    -0x1160(%rbp),%rax
   1909e:	48 83 c0 1c          	add    $0x1c,%rax
   190a2:	48 89 85 78 f9 ff ff 	mov    %rax,-0x688(%rbp)
   190a9:	48 8d 85 a0 ee ff ff 	lea    -0x1160(%rbp),%rax
   190b0:	48 83 c0 78          	add    $0x78,%rax
   190b4:	48 89 85 80 f9 ff ff 	mov    %rax,-0x680(%rbp)
   190bb:	48 8d 85 a0 ee ff ff 	lea    -0x1160(%rbp),%rax
   190c2:	48 05 98 00 00 00    	add    $0x98,%rax
   190c8:	48 89 85 88 f9 ff ff 	mov    %rax,-0x678(%rbp)
   190cf:	48 8d 85 a0 ee ff ff 	lea    -0x1160(%rbp),%rax
   190d6:	48 83 c0 78          	add    $0x78,%rax
   190da:	48 89 85 90 f9 ff ff 	mov    %rax,-0x670(%rbp)
   190e1:	48 c7 85 98 f9 ff ff 	movq   $0x0,-0x668(%rbp)
   190e8:	00 00 00 00 
   190ec:	48 8d 85 a0 ee ff ff 	lea    -0x1160(%rbp),%rax
   190f3:	48 83 c0 04          	add    $0x4,%rax
   190f7:	48 89 85 a0 f9 ff ff 	mov    %rax,-0x660(%rbp)
   190fe:	48 8d 85 a0 ee ff ff 	lea    -0x1160(%rbp),%rax
   19105:	48 83 c0 28          	add    $0x28,%rax
   19109:	48 89 85 a8 f9 ff ff 	mov    %rax,-0x658(%rbp)
   19110:	48 8d 85 a0 ee ff ff 	lea    -0x1160(%rbp),%rax
   19117:	48 05 94 00 00 00    	add    $0x94,%rax
   1911d:	48 89 85 b0 f9 ff ff 	mov    %rax,-0x650(%rbp)
   19124:	48 8d 85 a0 ee ff ff 	lea    -0x1160(%rbp),%rax
   1912b:	48 83 c0 3c          	add    $0x3c,%rax
   1912f:	48 89 85 b8 f9 ff ff 	mov    %rax,-0x648(%rbp)
   19136:	48 c7 85 c0 f9 ff ff 	movq   $0x0,-0x640(%rbp)
   1913d:	00 00 00 00 
   19141:	48 8d 85 a0 ee ff ff 	lea    -0x1160(%rbp),%rax
   19148:	48 83 c0 04          	add    $0x4,%rax
   1914c:	48 89 85 c8 f9 ff ff 	mov    %rax,-0x638(%rbp)
   19153:	48 8d 85 a0 ee ff ff 	lea    -0x1160(%rbp),%rax
   1915a:	48 83 c0 78          	add    $0x78,%rax
   1915e:	48 89 85 d0 f9 ff ff 	mov    %rax,-0x630(%rbp)
   19165:	48 8d 85 a0 ee ff ff 	lea    -0x1160(%rbp),%rax
   1916c:	48 83 c0 78          	add    $0x78,%rax
   19170:	48 89 85 d8 f9 ff ff 	mov    %rax,-0x628(%rbp)
   19177:	48 8d 85 a0 ee ff ff 	lea    -0x1160(%rbp),%rax
   1917e:	48 83 c0 60          	add    $0x60,%rax
   19182:	48 89 85 e0 f9 ff ff 	mov    %rax,-0x620(%rbp)
   19189:	48 8d 85 a0 ee ff ff 	lea    -0x1160(%rbp),%rax
   19190:	48 83 c0 78          	add    $0x78,%rax
   19194:	48 89 85 e8 f9 ff ff 	mov    %rax,-0x618(%rbp)
   1919b:	48 8d 85 a0 ee ff ff 	lea    -0x1160(%rbp),%rax
   191a2:	48 83 c0 1c          	add    $0x1c,%rax
   191a6:	48 89 85 f0 f9 ff ff 	mov    %rax,-0x610(%rbp)
   191ad:	48 8d 85 a0 ee ff ff 	lea    -0x1160(%rbp),%rax
   191b4:	48 05 84 00 00 00    	add    $0x84,%rax
   191ba:	48 89 85 f8 f9 ff ff 	mov    %rax,-0x608(%rbp)
   191c1:	48 8d 85 a0 ee ff ff 	lea    -0x1160(%rbp),%rax
   191c8:	48 83 c0 04          	add    $0x4,%rax
   191cc:	48 89 85 00 fa ff ff 	mov    %rax,-0x600(%rbp)
   191d3:	48 c7 85 08 fa ff ff 	movq   $0x0,-0x5f8(%rbp)
   191da:	00 00 00 00 
   191de:	48 c7 85 10 fa ff ff 	movq   $0x0,-0x5f0(%rbp)
   191e5:	00 00 00 00 
   191e9:	48 8d 85 a0 ee ff ff 	lea    -0x1160(%rbp),%rax
   191f0:	48 83 c0 04          	add    $0x4,%rax
   191f4:	48 89 85 18 fa ff ff 	mov    %rax,-0x5e8(%rbp)
   191fb:	48 c7 85 20 fa ff ff 	movq   $0x0,-0x5e0(%rbp)
   19202:	00 00 00 00 
   19206:	48 8d 85 a0 ee ff ff 	lea    -0x1160(%rbp),%rax
   1920d:	48 05 88 00 00 00    	add    $0x88,%rax
   19213:	48 89 85 28 fa ff ff 	mov    %rax,-0x5d8(%rbp)
   1921a:	48 c7 85 30 fa ff ff 	movq   $0x0,-0x5d0(%rbp)
   19221:	00 00 00 00 
   19225:	48 c7 85 38 fa ff ff 	movq   $0x0,-0x5c8(%rbp)
   1922c:	00 00 00 00 
   19230:	48 8d 85 a0 ee ff ff 	lea    -0x1160(%rbp),%rax
   19237:	48 83 c0 04          	add    $0x4,%rax
   1923b:	48 89 85 40 fa ff ff 	mov    %rax,-0x5c0(%rbp)
   19242:	48 8d 85 a0 ee ff ff 	lea    -0x1160(%rbp),%rax
   19249:	48 83 c0 78          	add    $0x78,%rax
   1924d:	48 89 85 48 fa ff ff 	mov    %rax,-0x5b8(%rbp)
   19254:	48 8d 85 a0 ee ff ff 	lea    -0x1160(%rbp),%rax
   1925b:	48 83 c0 08          	add    $0x8,%rax
   1925f:	48 89 85 50 fa ff ff 	mov    %rax,-0x5b0(%rbp)
   19266:	48 8d 85 a0 ee ff ff 	lea    -0x1160(%rbp),%rax
   1926d:	48 83 c0 78          	add    $0x78,%rax
   19271:	48 89 85 58 fa ff ff 	mov    %rax,-0x5a8(%rbp)
   19278:	48 c7 85 60 fa ff ff 	movq   $0x0,-0x5a0(%rbp)
   1927f:	00 00 00 00 
   19283:	48 8d 85 a0 ee ff ff 	lea    -0x1160(%rbp),%rax
   1928a:	48 83 c0 1c          	add    $0x1c,%rax
   1928e:	48 89 85 68 fa ff ff 	mov    %rax,-0x598(%rbp)
   19295:	48 8d 85 a0 ee ff ff 	lea    -0x1160(%rbp),%rax
   1929c:	48 83 c0 78          	add    $0x78,%rax
   192a0:	48 89 85 70 fa ff ff 	mov    %rax,-0x590(%rbp)
   192a7:	48 8d 85 a0 ee ff ff 	lea    -0x1160(%rbp),%rax
   192ae:	48 05 94 00 00 00    	add    $0x94,%rax
   192b4:	48 89 85 78 fa ff ff 	mov    %rax,-0x588(%rbp)
   192bb:	48 8d 85 a0 ee ff ff 	lea    -0x1160(%rbp),%rax
   192c2:	48 83 c0 78          	add    $0x78,%rax
   192c6:	48 89 85 80 fa ff ff 	mov    %rax,-0x580(%rbp)
   192cd:	48 8d 85 a0 ee ff ff 	lea    -0x1160(%rbp),%rax
   192d4:	48 83 c0 78          	add    $0x78,%rax
   192d8:	48 89 85 88 fa ff ff 	mov    %rax,-0x578(%rbp)
   192df:	48 8d 85 a0 ee ff ff 	lea    -0x1160(%rbp),%rax
   192e6:	48 83 c0 04          	add    $0x4,%rax
   192ea:	48 89 85 90 fa ff ff 	mov    %rax,-0x570(%rbp)
   192f1:	48 8d 05 e0 ae 00 00 	lea    0xaee0(%rip),%rax        # 241d8 <g_400>
   192f8:	48 89 85 98 fa ff ff 	mov    %rax,-0x568(%rbp)
   192ff:	48 c7 85 a0 fa ff ff 	movq   $0x0,-0x560(%rbp)
   19306:	00 00 00 00 
   1930a:	48 8d 85 a0 ee ff ff 	lea    -0x1160(%rbp),%rax
   19311:	48 83 c0 60          	add    $0x60,%rax
   19315:	48 89 85 a8 fa ff ff 	mov    %rax,-0x558(%rbp)
   1931c:	48 8d 85 a0 ee ff ff 	lea    -0x1160(%rbp),%rax
   19323:	48 83 c0 64          	add    $0x64,%rax
   19327:	48 89 85 b0 fa ff ff 	mov    %rax,-0x550(%rbp)
   1932e:	48 8d 85 a0 ee ff ff 	lea    -0x1160(%rbp),%rax
   19335:	48 83 c0 04          	add    $0x4,%rax
   19339:	48 89 85 b8 fa ff ff 	mov    %rax,-0x548(%rbp)
   19340:	48 8d 85 a0 ee ff ff 	lea    -0x1160(%rbp),%rax
   19347:	48 05 84 00 00 00    	add    $0x84,%rax
   1934d:	48 89 85 c0 fa ff ff 	mov    %rax,-0x540(%rbp)
   19354:	48 8d 85 a0 ee ff ff 	lea    -0x1160(%rbp),%rax
   1935b:	48 83 c0 1c          	add    $0x1c,%rax
   1935f:	48 89 85 c8 fa ff ff 	mov    %rax,-0x538(%rbp)
   19366:	48 8d 85 a0 ee ff ff 	lea    -0x1160(%rbp),%rax
   1936d:	48 05 98 00 00 00    	add    $0x98,%rax
   19373:	48 89 85 d0 fa ff ff 	mov    %rax,-0x530(%rbp)
   1937a:	48 c7 85 d8 fa ff ff 	movq   $0x0,-0x528(%rbp)
   19381:	00 00 00 00 
   19385:	48 8d 85 a0 ee ff ff 	lea    -0x1160(%rbp),%rax
   1938c:	48 83 c0 1c          	add    $0x1c,%rax
   19390:	48 89 85 e0 fa ff ff 	mov    %rax,-0x520(%rbp)
   19397:	48 8d 85 a0 ee ff ff 	lea    -0x1160(%rbp),%rax
   1939e:	48 83 e8 80          	sub    $0xffffffffffffff80,%rax
   193a2:	48 89 85 e8 fa ff ff 	mov    %rax,-0x518(%rbp)
   193a9:	48 8d 85 a0 ee ff ff 	lea    -0x1160(%rbp),%rax
   193b0:	48 05 88 00 00 00    	add    $0x88,%rax
   193b6:	48 89 85 f0 fa ff ff 	mov    %rax,-0x510(%rbp)
   193bd:	48 c7 85 f8 fa ff ff 	movq   $0x0,-0x508(%rbp)
   193c4:	00 00 00 00 
   193c8:	48 8d 85 a0 ee ff ff 	lea    -0x1160(%rbp),%rax
   193cf:	48 83 c0 78          	add    $0x78,%rax
   193d3:	48 89 85 00 fb ff ff 	mov    %rax,-0x500(%rbp)
   193da:	48 8d 85 a0 ee ff ff 	lea    -0x1160(%rbp),%rax
   193e1:	48 83 c0 04          	add    $0x4,%rax
   193e5:	48 89 85 08 fb ff ff 	mov    %rax,-0x4f8(%rbp)
   193ec:	48 8d 05 e5 ad 00 00 	lea    0xade5(%rip),%rax        # 241d8 <g_400>
   193f3:	48 89 85 10 fb ff ff 	mov    %rax,-0x4f0(%rbp)
   193fa:	48 8d 85 a0 ee ff ff 	lea    -0x1160(%rbp),%rax
   19401:	48 05 98 00 00 00    	add    $0x98,%rax
   19407:	48 89 85 18 fb ff ff 	mov    %rax,-0x4e8(%rbp)
   1940e:	48 8d 85 a0 ee ff ff 	lea    -0x1160(%rbp),%rax
   19415:	48 83 c0 78          	add    $0x78,%rax
   19419:	48 89 85 20 fb ff ff 	mov    %rax,-0x4e0(%rbp)
   19420:	48 c7 85 28 fb ff ff 	movq   $0x0,-0x4d8(%rbp)
   19427:	00 00 00 00 
   1942b:	48 8d 85 a0 ee ff ff 	lea    -0x1160(%rbp),%rax
   19432:	48 83 c0 04          	add    $0x4,%rax
   19436:	48 89 85 30 fb ff ff 	mov    %rax,-0x4d0(%rbp)
   1943d:	48 8d 85 a0 ee ff ff 	lea    -0x1160(%rbp),%rax
   19444:	48 83 c0 78          	add    $0x78,%rax
   19448:	48 89 85 38 fb ff ff 	mov    %rax,-0x4c8(%rbp)
   1944f:	48 c7 85 40 fb ff ff 	movq   $0x0,-0x4c0(%rbp)
   19456:	00 00 00 00 
   1945a:	48 8d 85 a0 ee ff ff 	lea    -0x1160(%rbp),%rax
   19461:	48 83 c0 3c          	add    $0x3c,%rax
   19465:	48 89 85 48 fb ff ff 	mov    %rax,-0x4b8(%rbp)
   1946c:	48 8d 85 a0 ee ff ff 	lea    -0x1160(%rbp),%rax
   19473:	48 83 c0 78          	add    $0x78,%rax
   19477:	48 89 85 50 fb ff ff 	mov    %rax,-0x4b0(%rbp)
   1947e:	48 8d 85 a0 ee ff ff 	lea    -0x1160(%rbp),%rax
   19485:	48 83 c0 1c          	add    $0x1c,%rax
   19489:	48 89 85 58 fb ff ff 	mov    %rax,-0x4a8(%rbp)
   19490:	48 8d 85 a0 ee ff ff 	lea    -0x1160(%rbp),%rax
   19497:	48 83 c0 78          	add    $0x78,%rax
   1949b:	48 89 85 60 fb ff ff 	mov    %rax,-0x4a0(%rbp)
   194a2:	48 c7 85 68 fb ff ff 	movq   $0x0,-0x498(%rbp)
   194a9:	00 00 00 00 
   194ad:	48 8d 85 a0 ee ff ff 	lea    -0x1160(%rbp),%rax
   194b4:	48 83 c0 78          	add    $0x78,%rax
   194b8:	48 89 85 70 fb ff ff 	mov    %rax,-0x490(%rbp)
   194bf:	48 8d 85 a0 ee ff ff 	lea    -0x1160(%rbp),%rax
   194c6:	48 83 c0 78          	add    $0x78,%rax
   194ca:	48 89 85 78 fb ff ff 	mov    %rax,-0x488(%rbp)
   194d1:	48 8d 85 a0 ee ff ff 	lea    -0x1160(%rbp),%rax
   194d8:	48 83 c0 04          	add    $0x4,%rax
   194dc:	48 89 85 80 fb ff ff 	mov    %rax,-0x480(%rbp)
   194e3:	48 8d 05 ee ac 00 00 	lea    0xacee(%rip),%rax        # 241d8 <g_400>
   194ea:	48 89 85 88 fb ff ff 	mov    %rax,-0x478(%rbp)
   194f1:	48 8d 85 a0 ee ff ff 	lea    -0x1160(%rbp),%rax
   194f8:	48 83 c0 04          	add    $0x4,%rax
   194fc:	48 89 85 90 fb ff ff 	mov    %rax,-0x470(%rbp)
   19503:	48 8d 85 a0 ee ff ff 	lea    -0x1160(%rbp),%rax
   1950a:	48 05 98 00 00 00    	add    $0x98,%rax
   19510:	48 89 85 98 fb ff ff 	mov    %rax,-0x468(%rbp)
   19517:	48 8d 85 a0 ee ff ff 	lea    -0x1160(%rbp),%rax
   1951e:	48 83 c0 64          	add    $0x64,%rax
   19522:	48 89 85 a0 fb ff ff 	mov    %rax,-0x460(%rbp)
   19529:	48 8d 85 a0 ee ff ff 	lea    -0x1160(%rbp),%rax
   19530:	48 83 c0 04          	add    $0x4,%rax
   19534:	48 89 85 a8 fb ff ff 	mov    %rax,-0x458(%rbp)
   1953b:	48 8d 85 a0 ee ff ff 	lea    -0x1160(%rbp),%rax
   19542:	48 83 e8 80          	sub    $0xffffffffffffff80,%rax
   19546:	48 89 85 b0 fb ff ff 	mov    %rax,-0x450(%rbp)
   1954d:	48 c7 85 b8 fb ff ff 	movq   $0x0,-0x448(%rbp)
   19554:	00 00 00 00 
   19558:	48 c7 85 c0 fb ff ff 	movq   $0x0,-0x440(%rbp)
   1955f:	00 00 00 00 
   19563:	48 8d 85 a0 ee ff ff 	lea    -0x1160(%rbp),%rax
   1956a:	48 83 c0 78          	add    $0x78,%rax
   1956e:	48 89 85 c8 fb ff ff 	mov    %rax,-0x438(%rbp)
   19575:	48 8d 85 a0 ee ff ff 	lea    -0x1160(%rbp),%rax
   1957c:	48 83 c0 1c          	add    $0x1c,%rax
   19580:	48 89 85 d0 fb ff ff 	mov    %rax,-0x430(%rbp)
   19587:	48 8d 85 a0 ee ff ff 	lea    -0x1160(%rbp),%rax
   1958e:	48 83 c0 78          	add    $0x78,%rax
   19592:	48 89 85 d8 fb ff ff 	mov    %rax,-0x428(%rbp)
   19599:	48 8d 85 a0 ee ff ff 	lea    -0x1160(%rbp),%rax
   195a0:	48 05 98 00 00 00    	add    $0x98,%rax
   195a6:	48 89 85 e0 fb ff ff 	mov    %rax,-0x420(%rbp)
   195ad:	48 8d 85 a0 ee ff ff 	lea    -0x1160(%rbp),%rax
   195b4:	48 83 c0 78          	add    $0x78,%rax
   195b8:	48 89 85 e8 fb ff ff 	mov    %rax,-0x418(%rbp)
   195bf:	48 c7 85 f0 fb ff ff 	movq   $0x0,-0x410(%rbp)
   195c6:	00 00 00 00 
   195ca:	48 8d 85 a0 ee ff ff 	lea    -0x1160(%rbp),%rax
   195d1:	48 83 c0 04          	add    $0x4,%rax
   195d5:	48 89 85 f8 fb ff ff 	mov    %rax,-0x408(%rbp)
   195dc:	48 8d 85 a0 ee ff ff 	lea    -0x1160(%rbp),%rax
   195e3:	48 83 c0 28          	add    $0x28,%rax
   195e7:	48 89 85 00 fc ff ff 	mov    %rax,-0x400(%rbp)
   195ee:	48 8d 85 a0 ee ff ff 	lea    -0x1160(%rbp),%rax
   195f5:	48 05 94 00 00 00    	add    $0x94,%rax
   195fb:	48 89 85 08 fc ff ff 	mov    %rax,-0x3f8(%rbp)
   19602:	48 8d 85 a0 ee ff ff 	lea    -0x1160(%rbp),%rax
   19609:	48 83 c0 3c          	add    $0x3c,%rax
   1960d:	48 89 85 10 fc ff ff 	mov    %rax,-0x3f0(%rbp)
   19614:	48 c7 85 18 fc ff ff 	movq   $0x0,-0x3e8(%rbp)
   1961b:	00 00 00 00 
   1961f:	48 8d 85 a0 ee ff ff 	lea    -0x1160(%rbp),%rax
   19626:	48 83 c0 04          	add    $0x4,%rax
   1962a:	48 89 85 20 fc ff ff 	mov    %rax,-0x3e0(%rbp)
   19631:	48 8d 85 a0 ee ff ff 	lea    -0x1160(%rbp),%rax
   19638:	48 83 c0 78          	add    $0x78,%rax
   1963c:	48 89 85 28 fc ff ff 	mov    %rax,-0x3d8(%rbp)
   19643:	48 8d 85 a0 ee ff ff 	lea    -0x1160(%rbp),%rax
   1964a:	48 83 c0 78          	add    $0x78,%rax
   1964e:	48 89 85 30 fc ff ff 	mov    %rax,-0x3d0(%rbp)
   19655:	48 8d 85 a0 ee ff ff 	lea    -0x1160(%rbp),%rax
   1965c:	48 83 c0 60          	add    $0x60,%rax
   19660:	48 89 85 38 fc ff ff 	mov    %rax,-0x3c8(%rbp)
   19667:	48 8d 85 a0 ee ff ff 	lea    -0x1160(%rbp),%rax
   1966e:	48 83 c0 78          	add    $0x78,%rax
   19672:	48 89 85 40 fc ff ff 	mov    %rax,-0x3c0(%rbp)
   19679:	48 8d 85 a0 ee ff ff 	lea    -0x1160(%rbp),%rax
   19680:	48 83 c0 1c          	add    $0x1c,%rax
   19684:	48 89 85 48 fc ff ff 	mov    %rax,-0x3b8(%rbp)
   1968b:	48 8d 85 a0 ee ff ff 	lea    -0x1160(%rbp),%rax
   19692:	48 05 84 00 00 00    	add    $0x84,%rax
   19698:	48 89 85 50 fc ff ff 	mov    %rax,-0x3b0(%rbp)
   1969f:	48 8d 85 a0 ee ff ff 	lea    -0x1160(%rbp),%rax
   196a6:	48 83 c0 04          	add    $0x4,%rax
   196aa:	48 89 85 58 fc ff ff 	mov    %rax,-0x3a8(%rbp)
   196b1:	48 c7 85 60 fc ff ff 	movq   $0x0,-0x3a0(%rbp)
   196b8:	00 00 00 00 
   196bc:	48 c7 85 68 fc ff ff 	movq   $0x0,-0x398(%rbp)
   196c3:	00 00 00 00 
   196c7:	48 8d 85 a0 ee ff ff 	lea    -0x1160(%rbp),%rax
   196ce:	48 83 c0 04          	add    $0x4,%rax
   196d2:	48 89 85 70 fc ff ff 	mov    %rax,-0x390(%rbp)
   196d9:	48 c7 85 78 fc ff ff 	movq   $0x0,-0x388(%rbp)
   196e0:	00 00 00 00 
   196e4:	48 8d 85 a0 ee ff ff 	lea    -0x1160(%rbp),%rax
   196eb:	48 05 88 00 00 00    	add    $0x88,%rax
   196f1:	48 89 85 80 fc ff ff 	mov    %rax,-0x380(%rbp)
   196f8:	48 c7 85 88 fc ff ff 	movq   $0x0,-0x378(%rbp)
   196ff:	00 00 00 00 
   19703:	48 c7 85 90 fc ff ff 	movq   $0x0,-0x370(%rbp)
   1970a:	00 00 00 00 
   1970e:	48 8d 85 a0 ee ff ff 	lea    -0x1160(%rbp),%rax
   19715:	48 83 c0 04          	add    $0x4,%rax
   19719:	48 89 85 98 fc ff ff 	mov    %rax,-0x368(%rbp)
   19720:	48 8d 85 a0 ee ff ff 	lea    -0x1160(%rbp),%rax
   19727:	48 83 c0 78          	add    $0x78,%rax
   1972b:	48 89 85 a0 fc ff ff 	mov    %rax,-0x360(%rbp)
   19732:	48 8d 85 a0 ee ff ff 	lea    -0x1160(%rbp),%rax
   19739:	48 83 c0 08          	add    $0x8,%rax
   1973d:	48 89 85 a8 fc ff ff 	mov    %rax,-0x358(%rbp)
   19744:	48 8d 85 a0 ee ff ff 	lea    -0x1160(%rbp),%rax
   1974b:	48 83 c0 78          	add    $0x78,%rax
   1974f:	48 89 85 b0 fc ff ff 	mov    %rax,-0x350(%rbp)
   19756:	48 c7 85 b8 fc ff ff 	movq   $0x0,-0x348(%rbp)
   1975d:	00 00 00 00 
   19761:	48 8d 85 a0 ee ff ff 	lea    -0x1160(%rbp),%rax
   19768:	48 83 c0 1c          	add    $0x1c,%rax
   1976c:	48 89 85 c0 fc ff ff 	mov    %rax,-0x340(%rbp)
   19773:	48 8d 85 a0 ee ff ff 	lea    -0x1160(%rbp),%rax
   1977a:	48 83 c0 78          	add    $0x78,%rax
   1977e:	48 89 85 c8 fc ff ff 	mov    %rax,-0x338(%rbp)
   19785:	48 8d 85 a0 ee ff ff 	lea    -0x1160(%rbp),%rax
   1978c:	48 05 94 00 00 00    	add    $0x94,%rax
   19792:	48 89 85 d0 fc ff ff 	mov    %rax,-0x330(%rbp)
   19799:	48 8d 85 a0 ee ff ff 	lea    -0x1160(%rbp),%rax
   197a0:	48 83 c0 78          	add    $0x78,%rax
   197a4:	48 89 85 d8 fc ff ff 	mov    %rax,-0x328(%rbp)
   197ab:	48 8d 85 a0 ee ff ff 	lea    -0x1160(%rbp),%rax
   197b2:	48 83 c0 78          	add    $0x78,%rax
   197b6:	48 89 85 e0 fc ff ff 	mov    %rax,-0x320(%rbp)
   197bd:	48 8d 85 a0 ee ff ff 	lea    -0x1160(%rbp),%rax
   197c4:	48 83 c0 04          	add    $0x4,%rax
   197c8:	48 89 85 e8 fc ff ff 	mov    %rax,-0x318(%rbp)
   197cf:	48 8d 05 02 aa 00 00 	lea    0xaa02(%rip),%rax        # 241d8 <g_400>
   197d6:	48 89 85 f0 fc ff ff 	mov    %rax,-0x310(%rbp)
   197dd:	48 c7 85 f8 fc ff ff 	movq   $0x0,-0x308(%rbp)
   197e4:	00 00 00 00 
   197e8:	48 8d 85 a0 ee ff ff 	lea    -0x1160(%rbp),%rax
   197ef:	48 83 c0 60          	add    $0x60,%rax
   197f3:	48 89 85 00 fd ff ff 	mov    %rax,-0x300(%rbp)
   197fa:	48 8d 85 a0 ee ff ff 	lea    -0x1160(%rbp),%rax
   19801:	48 83 c0 64          	add    $0x64,%rax
   19805:	48 89 85 08 fd ff ff 	mov    %rax,-0x2f8(%rbp)
   1980c:	48 8d 85 a0 ee ff ff 	lea    -0x1160(%rbp),%rax
   19813:	48 83 c0 04          	add    $0x4,%rax
   19817:	48 89 85 10 fd ff ff 	mov    %rax,-0x2f0(%rbp)
   1981e:	48 8d 85 a0 ee ff ff 	lea    -0x1160(%rbp),%rax
   19825:	48 05 84 00 00 00    	add    $0x84,%rax
   1982b:	48 89 85 18 fd ff ff 	mov    %rax,-0x2e8(%rbp)
   19832:	48 8d 85 a0 ee ff ff 	lea    -0x1160(%rbp),%rax
   19839:	48 83 c0 1c          	add    $0x1c,%rax
   1983d:	48 89 85 20 fd ff ff 	mov    %rax,-0x2e0(%rbp)
   19844:	48 8d 85 a0 ee ff ff 	lea    -0x1160(%rbp),%rax
   1984b:	48 05 98 00 00 00    	add    $0x98,%rax
   19851:	48 89 85 28 fd ff ff 	mov    %rax,-0x2d8(%rbp)
   19858:	48 c7 85 30 fd ff ff 	movq   $0x0,-0x2d0(%rbp)
   1985f:	00 00 00 00 
   19863:	48 8d 85 a0 ee ff ff 	lea    -0x1160(%rbp),%rax
   1986a:	48 83 c0 1c          	add    $0x1c,%rax
   1986e:	48 89 85 38 fd ff ff 	mov    %rax,-0x2c8(%rbp)
   19875:	48 8d 85 a0 ee ff ff 	lea    -0x1160(%rbp),%rax
   1987c:	48 83 e8 80          	sub    $0xffffffffffffff80,%rax
   19880:	48 89 85 40 fd ff ff 	mov    %rax,-0x2c0(%rbp)
   19887:	48 8d 85 a0 ee ff ff 	lea    -0x1160(%rbp),%rax
   1988e:	48 05 88 00 00 00    	add    $0x88,%rax
   19894:	48 89 85 48 fd ff ff 	mov    %rax,-0x2b8(%rbp)
   1989b:	48 c7 85 50 fd ff ff 	movq   $0x0,-0x2b0(%rbp)
   198a2:	00 00 00 00 
   198a6:	48 8d 85 a0 ee ff ff 	lea    -0x1160(%rbp),%rax
   198ad:	48 83 c0 78          	add    $0x78,%rax
   198b1:	48 89 85 58 fd ff ff 	mov    %rax,-0x2a8(%rbp)
   198b8:	48 8d 85 a0 ee ff ff 	lea    -0x1160(%rbp),%rax
   198bf:	48 83 c0 04          	add    $0x4,%rax
   198c3:	48 89 85 60 fd ff ff 	mov    %rax,-0x2a0(%rbp)
   198ca:	48 8d 05 07 a9 00 00 	lea    0xa907(%rip),%rax        # 241d8 <g_400>
   198d1:	48 89 85 68 fd ff ff 	mov    %rax,-0x298(%rbp)
   198d8:	48 8d 85 a0 ee ff ff 	lea    -0x1160(%rbp),%rax
   198df:	48 05 98 00 00 00    	add    $0x98,%rax
   198e5:	48 89 85 70 fd ff ff 	mov    %rax,-0x290(%rbp)
   198ec:	48 8d 85 a0 ee ff ff 	lea    -0x1160(%rbp),%rax
   198f3:	48 83 c0 78          	add    $0x78,%rax
   198f7:	48 89 85 78 fd ff ff 	mov    %rax,-0x288(%rbp)
   198fe:	48 c7 85 80 fd ff ff 	movq   $0x0,-0x280(%rbp)
   19905:	00 00 00 00 
   19909:	48 8d 85 a0 ee ff ff 	lea    -0x1160(%rbp),%rax
   19910:	48 83 c0 04          	add    $0x4,%rax
   19914:	48 89 85 88 fd ff ff 	mov    %rax,-0x278(%rbp)
   1991b:	48 8d 85 a0 ee ff ff 	lea    -0x1160(%rbp),%rax
   19922:	48 83 c0 78          	add    $0x78,%rax
   19926:	48 89 85 90 fd ff ff 	mov    %rax,-0x270(%rbp)
   1992d:	48 c7 85 98 fd ff ff 	movq   $0x0,-0x268(%rbp)
   19934:	00 00 00 00 
   19938:	48 8d 85 a0 ee ff ff 	lea    -0x1160(%rbp),%rax
   1993f:	48 83 c0 3c          	add    $0x3c,%rax
   19943:	48 89 85 a0 fd ff ff 	mov    %rax,-0x260(%rbp)
   1994a:	48 8d 85 a0 ee ff ff 	lea    -0x1160(%rbp),%rax
   19951:	48 83 c0 78          	add    $0x78,%rax
   19955:	48 89 85 a8 fd ff ff 	mov    %rax,-0x258(%rbp)
   1995c:	48 8d 85 a0 ee ff ff 	lea    -0x1160(%rbp),%rax
   19963:	48 83 c0 1c          	add    $0x1c,%rax
   19967:	48 89 85 b0 fd ff ff 	mov    %rax,-0x250(%rbp)
   1996e:	48 8d 85 a0 ee ff ff 	lea    -0x1160(%rbp),%rax
   19975:	48 83 c0 78          	add    $0x78,%rax
   19979:	48 89 85 b8 fd ff ff 	mov    %rax,-0x248(%rbp)
   19980:	48 c7 85 c0 fd ff ff 	movq   $0x0,-0x240(%rbp)
   19987:	00 00 00 00 
   1998b:	48 8d 85 a0 ee ff ff 	lea    -0x1160(%rbp),%rax
   19992:	48 83 c0 78          	add    $0x78,%rax
   19996:	48 89 85 c8 fd ff ff 	mov    %rax,-0x238(%rbp)
   1999d:	48 8d 85 a0 ee ff ff 	lea    -0x1160(%rbp),%rax
   199a4:	48 83 c0 78          	add    $0x78,%rax
   199a8:	48 89 85 d0 fd ff ff 	mov    %rax,-0x230(%rbp)
   199af:	48 8d 85 a0 ee ff ff 	lea    -0x1160(%rbp),%rax
   199b6:	48 83 c0 04          	add    $0x4,%rax
   199ba:	48 89 85 d8 fd ff ff 	mov    %rax,-0x228(%rbp)
   199c1:	48 8d 05 10 a8 00 00 	lea    0xa810(%rip),%rax        # 241d8 <g_400>
   199c8:	48 89 85 e0 fd ff ff 	mov    %rax,-0x220(%rbp)
   199cf:	48 8d 85 a0 ee ff ff 	lea    -0x1160(%rbp),%rax
   199d6:	48 83 c0 04          	add    $0x4,%rax
   199da:	48 89 85 e8 fd ff ff 	mov    %rax,-0x218(%rbp)
   199e1:	48 8d 85 a0 ee ff ff 	lea    -0x1160(%rbp),%rax
   199e8:	48 05 98 00 00 00    	add    $0x98,%rax
   199ee:	48 89 85 f0 fd ff ff 	mov    %rax,-0x210(%rbp)
   199f5:	48 8d 85 a0 ee ff ff 	lea    -0x1160(%rbp),%rax
   199fc:	48 83 c0 64          	add    $0x64,%rax
   19a00:	48 89 85 f8 fd ff ff 	mov    %rax,-0x208(%rbp)
   19a07:	48 8d 85 a0 ee ff ff 	lea    -0x1160(%rbp),%rax
   19a0e:	48 83 c0 04          	add    $0x4,%rax
   19a12:	48 89 85 00 fe ff ff 	mov    %rax,-0x200(%rbp)
   19a19:	48 8d 85 a0 ee ff ff 	lea    -0x1160(%rbp),%rax
   19a20:	48 83 e8 80          	sub    $0xffffffffffffff80,%rax
   19a24:	48 89 85 08 fe ff ff 	mov    %rax,-0x1f8(%rbp)
   19a2b:	48 c7 85 10 fe ff ff 	movq   $0x0,-0x1f0(%rbp)
   19a32:	00 00 00 00 
   19a36:	48 c7 85 18 fe ff ff 	movq   $0x0,-0x1e8(%rbp)
   19a3d:	00 00 00 00 
   19a41:	48 8d 85 a0 ee ff ff 	lea    -0x1160(%rbp),%rax
   19a48:	48 83 c0 78          	add    $0x78,%rax
   19a4c:	48 89 85 20 fe ff ff 	mov    %rax,-0x1e0(%rbp)
   19a53:	48 8d 85 a0 ee ff ff 	lea    -0x1160(%rbp),%rax
   19a5a:	48 83 c0 1c          	add    $0x1c,%rax
   19a5e:	48 89 85 28 fe ff ff 	mov    %rax,-0x1d8(%rbp)
   19a65:	48 8d 85 a0 ee ff ff 	lea    -0x1160(%rbp),%rax
   19a6c:	48 83 c0 78          	add    $0x78,%rax
   19a70:	48 89 85 30 fe ff ff 	mov    %rax,-0x1d0(%rbp)
   19a77:	48 8d 85 a0 ee ff ff 	lea    -0x1160(%rbp),%rax
   19a7e:	48 05 98 00 00 00    	add    $0x98,%rax
   19a84:	48 89 85 38 fe ff ff 	mov    %rax,-0x1c8(%rbp)
   19a8b:	48 8d 85 a0 ee ff ff 	lea    -0x1160(%rbp),%rax
   19a92:	48 83 c0 78          	add    $0x78,%rax
   19a96:	48 89 85 40 fe ff ff 	mov    %rax,-0x1c0(%rbp)
   19a9d:	48 c7 85 48 fe ff ff 	movq   $0x0,-0x1b8(%rbp)
   19aa4:	00 00 00 00 
   19aa8:	48 8d 85 a0 ee ff ff 	lea    -0x1160(%rbp),%rax
   19aaf:	48 83 c0 04          	add    $0x4,%rax
   19ab3:	48 89 85 50 fe ff ff 	mov    %rax,-0x1b0(%rbp)
   19aba:	48 8d 85 a0 ee ff ff 	lea    -0x1160(%rbp),%rax
   19ac1:	48 83 c0 28          	add    $0x28,%rax
   19ac5:	48 89 85 58 fe ff ff 	mov    %rax,-0x1a8(%rbp)
   19acc:	48 8d 85 a0 ee ff ff 	lea    -0x1160(%rbp),%rax
   19ad3:	48 05 94 00 00 00    	add    $0x94,%rax
   19ad9:	48 89 85 60 fe ff ff 	mov    %rax,-0x1a0(%rbp)
   19ae0:	48 8d 85 a0 ee ff ff 	lea    -0x1160(%rbp),%rax
   19ae7:	48 83 c0 3c          	add    $0x3c,%rax
   19aeb:	48 89 85 68 fe ff ff 	mov    %rax,-0x198(%rbp)
   19af2:	48 8d 85 a0 ee ff ff 	lea    -0x1160(%rbp),%rax
   19af9:	48 05 88 00 00 00    	add    $0x88,%rax
   19aff:	48 89 85 70 fe ff ff 	mov    %rax,-0x190(%rbp)
   19b06:	48 8d 85 a0 ee ff ff 	lea    -0x1160(%rbp),%rax
   19b0d:	48 83 c0 78          	add    $0x78,%rax
   19b11:	48 89 85 78 fe ff ff 	mov    %rax,-0x188(%rbp)
   19b18:	48 8d 85 a0 ee ff ff 	lea    -0x1160(%rbp),%rax
   19b1f:	48 83 c0 78          	add    $0x78,%rax
   19b23:	48 89 85 80 fe ff ff 	mov    %rax,-0x180(%rbp)
   19b2a:	48 8d 85 a0 ee ff ff 	lea    -0x1160(%rbp),%rax
   19b31:	48 83 c0 78          	add    $0x78,%rax
   19b35:	48 89 85 88 fe ff ff 	mov    %rax,-0x178(%rbp)
   19b3c:	48 c7 85 90 fe ff ff 	movq   $0x0,-0x170(%rbp)
   19b43:	00 00 00 00 
   19b47:	48 8d 05 8a a6 00 00 	lea    0xa68a(%rip),%rax        # 241d8 <g_400>
   19b4e:	48 89 85 98 fe ff ff 	mov    %rax,-0x168(%rbp)
   19b55:	48 8d 05 7c a6 00 00 	lea    0xa67c(%rip),%rax        # 241d8 <g_400>
   19b5c:	48 89 85 a0 fe ff ff 	mov    %rax,-0x160(%rbp)
   19b63:	48 8d 85 a0 ee ff ff 	lea    -0x1160(%rbp),%rax
   19b6a:	48 83 c0 78          	add    $0x78,%rax
   19b6e:	48 89 85 a8 fe ff ff 	mov    %rax,-0x158(%rbp)
   19b75:	48 8d 85 a0 ee ff ff 	lea    -0x1160(%rbp),%rax
   19b7c:	48 83 c0 78          	add    $0x78,%rax
   19b80:	48 89 85 b0 fe ff ff 	mov    %rax,-0x150(%rbp)
   19b87:	48 8d 05 4a a6 00 00 	lea    0xa64a(%rip),%rax        # 241d8 <g_400>
   19b8e:	48 89 85 b8 fe ff ff 	mov    %rax,-0x148(%rbp)
   19b95:	48 8d 05 3c a6 00 00 	lea    0xa63c(%rip),%rax        # 241d8 <g_400>
   19b9c:	48 89 85 c0 fe ff ff 	mov    %rax,-0x140(%rbp)
   19ba3:	48 8d 85 a0 ee ff ff 	lea    -0x1160(%rbp),%rax
   19baa:	48 83 c0 78          	add    $0x78,%rax
   19bae:	48 89 85 c8 fe ff ff 	mov    %rax,-0x138(%rbp)
   19bb5:	48 8d 85 a0 ee ff ff 	lea    -0x1160(%rbp),%rax
   19bbc:	48 83 c0 78          	add    $0x78,%rax
   19bc0:	48 89 85 d0 fe ff ff 	mov    %rax,-0x130(%rbp)
   19bc7:	48 8d 05 0a a6 00 00 	lea    0xa60a(%rip),%rax        # 241d8 <g_400>
   19bce:	48 89 85 d8 fe ff ff 	mov    %rax,-0x128(%rbp)
   19bd5:	48 8d 85 a0 ee ff ff 	lea    -0x1160(%rbp),%rax
   19bdc:	48 83 c0 78          	add    $0x78,%rax
   19be0:	48 89 85 e0 fe ff ff 	mov    %rax,-0x120(%rbp)
   19be7:	48 8d 85 a0 ee ff ff 	lea    -0x1160(%rbp),%rax
   19bee:	48 05 98 00 00 00    	add    $0x98,%rax
   19bf4:	48 89 85 e8 fe ff ff 	mov    %rax,-0x118(%rbp)
   19bfb:	48 8d 85 a0 ee ff ff 	lea    -0x1160(%rbp),%rax
   19c02:	48 83 c0 78          	add    $0x78,%rax
   19c06:	48 89 85 f0 fe ff ff 	mov    %rax,-0x110(%rbp)
   19c0d:	48 8d 85 a0 ee ff ff 	lea    -0x1160(%rbp),%rax
   19c14:	48 83 c0 0c          	add    $0xc,%rax
   19c18:	48 89 85 f8 fe ff ff 	mov    %rax,-0x108(%rbp)
   19c1f:	48 8d 05 b2 a5 00 00 	lea    0xa5b2(%rip),%rax        # 241d8 <g_400>
   19c26:	48 89 85 00 ff ff ff 	mov    %rax,-0x100(%rbp)
   19c2d:	48 c7 85 08 ff ff ff 	movq   $0x0,-0xf8(%rbp)
   19c34:	00 00 00 00 
   19c38:	48 8d 05 99 a5 00 00 	lea    0xa599(%rip),%rax        # 241d8 <g_400>
   19c3f:	48 89 85 10 ff ff ff 	mov    %rax,-0xf0(%rbp)
   19c46:	48 8d 05 8b a5 00 00 	lea    0xa58b(%rip),%rax        # 241d8 <g_400>
   19c4d:	48 89 85 18 ff ff ff 	mov    %rax,-0xe8(%rbp)
   19c54:	48 8d 85 a0 ee ff ff 	lea    -0x1160(%rbp),%rax
   19c5b:	48 83 c0 54          	add    $0x54,%rax
   19c5f:	48 89 85 20 ff ff ff 	mov    %rax,-0xe0(%rbp)
   19c66:	48 8d 85 a0 ee ff ff 	lea    -0x1160(%rbp),%rax
   19c6d:	48 83 c0 08          	add    $0x8,%rax
   19c71:	48 89 85 28 ff ff ff 	mov    %rax,-0xd8(%rbp)
   19c78:	48 8d 85 a0 ee ff ff 	lea    -0x1160(%rbp),%rax
   19c7f:	48 83 c0 78          	add    $0x78,%rax
   19c83:	48 89 85 30 ff ff ff 	mov    %rax,-0xd0(%rbp)
   19c8a:	48 8d 85 a0 ee ff ff 	lea    -0x1160(%rbp),%rax
   19c91:	48 83 c0 78          	add    $0x78,%rax
   19c95:	48 89 85 38 ff ff ff 	mov    %rax,-0xc8(%rbp)
   19c9c:	48 8d 85 a0 ee ff ff 	lea    -0x1160(%rbp),%rax
   19ca3:	48 83 c0 78          	add    $0x78,%rax
   19ca7:	48 89 85 40 ff ff ff 	mov    %rax,-0xc0(%rbp)
   19cae:	48 8d 85 a0 ee ff ff 	lea    -0x1160(%rbp),%rax
   19cb5:	48 83 c0 78          	add    $0x78,%rax
   19cb9:	48 89 85 48 ff ff ff 	mov    %rax,-0xb8(%rbp)
   19cc0:	48 8d 05 11 a5 00 00 	lea    0xa511(%rip),%rax        # 241d8 <g_400>
   19cc7:	48 89 85 50 ff ff ff 	mov    %rax,-0xb0(%rbp)
   19cce:	48 c7 85 58 ff ff ff 	movq   $0x0,-0xa8(%rbp)
   19cd5:	00 00 00 00 
   19cd9:	48 8d 85 a0 ee ff ff 	lea    -0x1160(%rbp),%rax
   19ce0:	48 05 94 00 00 00    	add    $0x94,%rax
   19ce6:	48 89 85 60 ff ff ff 	mov    %rax,-0xa0(%rbp)
   19ced:	48 8d 85 a0 ee ff ff 	lea    -0x1160(%rbp),%rax
   19cf4:	48 83 c0 78          	add    $0x78,%rax
   19cf8:	48 89 85 68 ff ff ff 	mov    %rax,-0x98(%rbp)
   19cff:	48 8d 85 a0 ee ff ff 	lea    -0x1160(%rbp),%rax
   19d06:	48 83 c0 78          	add    $0x78,%rax
   19d0a:	48 89 85 70 ff ff ff 	mov    %rax,-0x90(%rbp)
   19d11:	48 8d 05 c0 a4 00 00 	lea    0xa4c0(%rip),%rax        # 241d8 <g_400>
   19d18:	48 89 85 78 ff ff ff 	mov    %rax,-0x88(%rbp)
   19d1f:	48 8d 85 a0 ee ff ff 	lea    -0x1160(%rbp),%rax
   19d26:	48 83 c0 1c          	add    $0x1c,%rax
   19d2a:	48 89 45 80          	mov    %rax,-0x80(%rbp)
   19d2e:	48 8d 05 a3 a4 00 00 	lea    0xa4a3(%rip),%rax        # 241d8 <g_400>
   19d35:	48 89 45 88          	mov    %rax,-0x78(%rbp)
   19d39:	48 8d 05 98 a4 00 00 	lea    0xa498(%rip),%rax        # 241d8 <g_400>
   19d40:	48 89 45 90          	mov    %rax,-0x70(%rbp)
   19d44:	48 8d 05 8d a4 00 00 	lea    0xa48d(%rip),%rax        # 241d8 <g_400>
   19d4b:	48 89 45 98          	mov    %rax,-0x68(%rbp)
   19d4f:	48 8d 05 82 a4 00 00 	lea    0xa482(%rip),%rax        # 241d8 <g_400>
   19d56:	48 89 45 a0          	mov    %rax,-0x60(%rbp)
   19d5a:	48 8d 05 77 a4 00 00 	lea    0xa477(%rip),%rax        # 241d8 <g_400>
   19d61:	48 89 45 a8          	mov    %rax,-0x58(%rbp)
   19d65:	48 8d 85 a0 ee ff ff 	lea    -0x1160(%rbp),%rax
   19d6c:	48 83 c0 78          	add    $0x78,%rax
   19d70:	48 89 45 b0          	mov    %rax,-0x50(%rbp)
   19d74:	48 8d 85 a0 ee ff ff 	lea    -0x1160(%rbp),%rax
   19d7b:	48 83 c0 78          	add    $0x78,%rax
   19d7f:	48 89 45 b8          	mov    %rax,-0x48(%rbp)
   19d83:	48 8d 05 4e a4 00 00 	lea    0xa44e(%rip),%rax        # 241d8 <g_400>
   19d8a:	48 89 45 c0          	mov    %rax,-0x40(%rbp)
   19d8e:	c7 85 f4 ea ff ff ee 	movl   $0xd52065ee,-0x150c(%rbp)
   19d95:	65 20 d5 
   19d98:	c7 85 f0 ea ff ff 06 	movl   $0x6,-0x1510(%rbp)
   19d9f:	00 00 00 
   19da2:	66 c7 85 c0 ec ff ff 	movw   $0x1,-0x1340(%rbp)
   19da9:	01 00 
   19dab:	66 c7 85 c2 ec ff ff 	movw   $0x1,-0x133e(%rbp)
   19db2:	01 00 
   19db4:	66 c7 85 c4 ec ff ff 	movw   $0x1,-0x133c(%rbp)
   19dbb:	01 00 
   19dbd:	66 c7 85 c6 ec ff ff 	movw   $0x1,-0x133a(%rbp)
   19dc4:	01 00 
   19dc6:	66 c7 85 c8 ec ff ff 	movw   $0x1,-0x1338(%rbp)
   19dcd:	01 00 
   19dcf:	66 c7 85 ca ec ff ff 	movw   $0x1,-0x1336(%rbp)
   19dd6:	01 00 
   19dd8:	66 c7 85 cc ec ff ff 	movw   $0x1,-0x1334(%rbp)
   19ddf:	01 00 
   19de1:	66 c7 85 ce ec ff ff 	movw   $0x1,-0x1332(%rbp)
   19de8:	01 00 
   19dea:	66 c7 85 d0 ec ff ff 	movw   $0x1,-0x1330(%rbp)
   19df1:	01 00 
   19df3:	66 c7 85 d2 ec ff ff 	movw   $0x1,-0x132e(%rbp)
   19dfa:	01 00 
   19dfc:	c7 85 f8 ea ff ff 00 	movl   $0x0,-0x1508(%rbp)
   19e03:	00 00 00 
   19e06:	c7 85 fc ea ff ff 07 	movl   $0x7,-0x1504(%rbp)
   19e0d:	00 00 00 
   19e10:	c7 85 00 eb ff ff ff 	movl   $0xffffffff,-0x1500(%rbp)
   19e17:	ff ff ff 
   19e1a:	c7 85 d0 ed ff ff fc 	movl   $0xfffffffc,-0x1230(%rbp)
   19e21:	ff ff ff 
   19e24:	c7 85 d4 ed ff ff ff 	movl   $0xffffffff,-0x122c(%rbp)
   19e2b:	ff ff ff 
   19e2e:	c7 85 d8 ed ff ff ff 	movl   $0xffffffff,-0x1228(%rbp)
   19e35:	ff ff ff 
   19e38:	c7 85 dc ed ff ff fc 	movl   $0xfffffffc,-0x1224(%rbp)
   19e3f:	ff ff ff 
   19e42:	c7 85 e0 ed ff ff ff 	movl   $0xffffffff,-0x1220(%rbp)
   19e49:	ff ff ff 
   19e4c:	c7 85 e4 ed ff ff ff 	movl   $0xffffffff,-0x121c(%rbp)
   19e53:	ff ff ff 
   19e56:	c7 85 e8 ed ff ff fc 	movl   $0xfffffffc,-0x1218(%rbp)
   19e5d:	ff ff ff 
   19e60:	c7 85 ec ed ff ff ff 	movl   $0xffffffff,-0x1214(%rbp)
   19e67:	ff ff ff 
   19e6a:	c7 85 f0 ed ff ff fc 	movl   $0xfffffffc,-0x1210(%rbp)
   19e71:	ff ff ff 
   19e74:	c7 85 f4 ed ff ff ff 	movl   $0xffffffff,-0x120c(%rbp)
   19e7b:	ff ff ff 
   19e7e:	c7 85 f8 ed ff ff ff 	movl   $0xffffffff,-0x1208(%rbp)
   19e85:	ff ff ff 
   19e88:	c7 85 fc ed ff ff fc 	movl   $0xfffffffc,-0x1204(%rbp)
   19e8f:	ff ff ff 
   19e92:	c7 85 00 ee ff ff ff 	movl   $0xffffffff,-0x1200(%rbp)
   19e99:	ff ff ff 
   19e9c:	c7 85 04 ee ff ff ff 	movl   $0xffffffff,-0x11fc(%rbp)
   19ea3:	ff ff ff 
   19ea6:	48 c7 85 60 eb ff ff 	movq   $0x3,-0x14a0(%rbp)
   19ead:	03 00 00 00 
   19eb1:	c7 85 ec ea ff ff 00 	movl   $0x0,-0x1514(%rbp)
   19eb8:	00 00 00 
   19ebb:	eb 1b                	jmp    19ed8 <func_52+0x1212>
   19ebd:	8b 85 ec ea ff ff    	mov    -0x1514(%rbp),%eax
   19ec3:	48 98                	cltq   
   19ec5:	48 c7 84 c5 a0 ec ff 	movq   $0xffffffffffffffff,-0x1360(%rbp,%rax,8)
   19ecc:	ff ff ff ff ff 
   19ed1:	83 85 ec ea ff ff 01 	addl   $0x1,-0x1514(%rbp)
   19ed8:	83 bd ec ea ff ff 01 	cmpl   $0x1,-0x1514(%rbp)
   19edf:	7e dc                	jle    19ebd <func_52+0x11f7>
   19ee1:	c7 85 ec ea ff ff 00 	movl   $0x0,-0x1514(%rbp)
   19ee8:	00 00 00 
   19eeb:	eb 1e                	jmp    19f0b <func_52+0x1245>
   19eed:	8b 85 ec ea ff ff    	mov    -0x1514(%rbp),%eax
   19ef3:	48 98                	cltq   
   19ef5:	48 8d 15 cc a2 00 00 	lea    0xa2cc(%rip),%rdx        # 241c8 <g_374>
   19efc:	48 89 94 c5 e0 ec ff 	mov    %rdx,-0x1320(%rbp,%rax,8)
   19f03:	ff 
   19f04:	83 85 ec ea ff ff 01 	addl   $0x1,-0x1514(%rbp)
   19f0b:	83 bd ec ea ff ff 02 	cmpl   $0x2,-0x1514(%rbp)
   19f12:	7e d9                	jle    19eed <func_52+0x1227>
   19f14:	c7 85 ec ea ff ff 00 	movl   $0x0,-0x1514(%rbp)
   19f1b:	00 00 00 
   19f1e:	eb 21                	jmp    19f41 <func_52+0x127b>
   19f20:	8b 85 ec ea ff ff    	mov    -0x1514(%rbp),%eax
   19f26:	48 98                	cltq   
   19f28:	48 bb 45 4a 5e 06 ad 	movabs $0xf20ae5ad065e4a45,%rbx
   19f2f:	e5 0a f2 
   19f32:	48 89 9c c5 40 ed ff 	mov    %rbx,-0x12c0(%rbp,%rax,8)
   19f39:	ff 
   19f3a:	83 85 ec ea ff ff 01 	addl   $0x1,-0x1514(%rbp)
   19f41:	83 bd ec ea ff ff 04 	cmpl   $0x4,-0x1514(%rbp)
   19f48:	7e d6                	jle    19f20 <func_52+0x125a>
   19f4a:	c7 05 80 a2 00 00 00 	movl   $0x0,0xa280(%rip)        # 241d4 <g_394>
   19f51:	00 00 00 
   19f54:	e9 19 17 00 00       	jmpq   1b672 <func_52+0x29ac>
   19f59:	48 c7 85 a8 eb ff ff 	movq   $0xffffffffffffffff,-0x1458(%rbp)
   19f60:	ff ff ff ff 
   19f64:	48 8d 05 49 a2 00 00 	lea    0xa249(%rip),%rax        # 241b4 <g_248>
   19f6b:	48 89 85 b0 eb ff ff 	mov    %rax,-0x1450(%rbp)
   19f72:	c7 85 e8 ea ff ff c6 	movl   $0xbc34a1c6,-0x1518(%rbp)
   19f79:	a1 34 bc 
   19f7c:	48 c7 85 40 ef ff ff 	movq   $0xffffffffffffffff,-0x10c0(%rbp)
   19f83:	ff ff ff ff 
   19f87:	48 c7 85 48 ef ff ff 	movq   $0x4,-0x10b8(%rbp)
   19f8e:	04 00 00 00 
   19f92:	48 c7 85 50 ef ff ff 	movq   $0xffffffffffffffff,-0x10b0(%rbp)
   19f99:	ff ff ff ff 
   19f9d:	48 b8 d0 d6 fe fa 89 	movabs $0x87a4df89fafed6d0,%rax
   19fa4:	df a4 87 
   19fa7:	48 89 85 58 ef ff ff 	mov    %rax,-0x10a8(%rbp)
   19fae:	48 89 85 60 ef ff ff 	mov    %rax,-0x10a0(%rbp)
   19fb5:	48 bb 6b 96 10 d1 a2 	movabs $0xed76dea2d110966b,%rbx
   19fbc:	de 76 ed 
   19fbf:	48 89 9d 68 ef ff ff 	mov    %rbx,-0x1098(%rbp)
   19fc6:	48 c7 85 70 ef ff ff 	movq   $0xfffffffffffffff7,-0x1090(%rbp)
   19fcd:	f7 ff ff ff 
   19fd1:	48 c7 85 78 ef ff ff 	movq   $0x4,-0x1088(%rbp)
   19fd8:	04 00 00 00 
   19fdc:	48 c7 85 80 ef ff ff 	movq   $0xfffffffffffffff7,-0x1080(%rbp)
   19fe3:	f7 ff ff ff 
   19fe7:	48 89 85 88 ef ff ff 	mov    %rax,-0x1078(%rbp)
   19fee:	48 89 9d 90 ef ff ff 	mov    %rbx,-0x1070(%rbp)
   19ff5:	48 89 9d 98 ef ff ff 	mov    %rbx,-0x1068(%rbp)
   19ffc:	48 c7 85 a0 ef ff ff 	movq   $0xffffffffffffffff,-0x1060(%rbp)
   1a003:	ff ff ff ff 
   1a007:	48 c7 85 a8 ef ff ff 	movq   $0x4,-0x1058(%rbp)
   1a00e:	04 00 00 00 
   1a012:	48 c7 85 b0 ef ff ff 	movq   $0xffffffffffffffff,-0x1050(%rbp)
   1a019:	ff ff ff ff 
   1a01d:	48 89 85 b8 ef ff ff 	mov    %rax,-0x1048(%rbp)
   1a024:	48 89 85 c0 ef ff ff 	mov    %rax,-0x1040(%rbp)
   1a02b:	48 89 9d c8 ef ff ff 	mov    %rbx,-0x1038(%rbp)
   1a032:	48 c7 85 d0 ef ff ff 	movq   $0xfffffffffffffff7,-0x1030(%rbp)
   1a039:	f7 ff ff ff 
   1a03d:	48 c7 85 d8 ef ff ff 	movq   $0x4,-0x1028(%rbp)
   1a044:	04 00 00 00 
   1a048:	48 c7 85 e0 ef ff ff 	movq   $0xfffffffffffffff7,-0x1020(%rbp)
   1a04f:	f7 ff ff ff 
   1a053:	48 b8 59 ac b5 d5 3b 	movabs $0x267c153bd5b5ac59,%rax
   1a05a:	15 7c 26 
   1a05d:	48 89 85 b8 eb ff ff 	mov    %rax,-0x1448(%rbp)
   1a064:	c7 85 c8 ea ff ff ff 	movl   $0xffffffff,-0x1538(%rbp)
   1a06b:	ff ff ff 
   1a06e:	48 8d 85 20 ed ff ff 	lea    -0x12e0(%rbp),%rax
   1a075:	48 89 85 70 ed ff ff 	mov    %rax,-0x1290(%rbp)
   1a07c:	48 8d 85 20 ed ff ff 	lea    -0x12e0(%rbp),%rax
   1a083:	48 89 85 78 ed ff ff 	mov    %rax,-0x1288(%rbp)
   1a08a:	48 8d 85 a0 ee ff ff 	lea    -0x1160(%rbp),%rax
   1a091:	48 83 c0 20          	add    $0x20,%rax
   1a095:	48 89 85 80 ed ff ff 	mov    %rax,-0x1280(%rbp)
   1a09c:	48 8d 85 20 ed ff ff 	lea    -0x12e0(%rbp),%rax
   1a0a3:	48 89 85 88 ed ff ff 	mov    %rax,-0x1278(%rbp)
   1a0aa:	48 8d 85 20 ed ff ff 	lea    -0x12e0(%rbp),%rax
   1a0b1:	48 89 85 90 ed ff ff 	mov    %rax,-0x1270(%rbp)
   1a0b8:	48 8d 85 a0 ee ff ff 	lea    -0x1160(%rbp),%rax
   1a0bf:	48 83 c0 20          	add    $0x20,%rax
   1a0c3:	48 89 85 98 ed ff ff 	mov    %rax,-0x1268(%rbp)
   1a0ca:	48 c7 85 c0 eb ff ff 	movq   $0x1,-0x1440(%rbp)
   1a0d1:	01 00 00 00 
   1a0d5:	48 8d 05 84 a0 00 00 	lea    0xa084(%rip),%rax        # 24160 <g_190>
   1a0dc:	48 89 85 c8 eb ff ff 	mov    %rax,-0x1438(%rbp)
   1a0e3:	48 8d 85 28 eb ff ff 	lea    -0x14d8(%rbp),%rax
   1a0ea:	48 89 85 48 eb ff ff 	mov    %rax,-0x14b8(%rbp)
   1a0f1:	48 8d 85 a0 f0 ff ff 	lea    -0xf60(%rbp),%rax
   1a0f8:	48 8d 15 01 64 00 00 	lea    0x6401(%rip),%rdx        # 20500 <g_2990+0x1488>
   1a0ff:	b9 64 00 00 00       	mov    $0x64,%ecx
   1a104:	48 89 c7             	mov    %rax,%rdi
   1a107:	48 89 d6             	mov    %rdx,%rsi
   1a10a:	f3 48 a5             	rep movsq %ds:(%rsi),%es:(%rdi)
   1a10d:	48 b8 bc ed 58 bc 40 	movabs $0xf868640bc58edbc,%rax
   1a114:	86 86 0f 
   1a117:	48 89 85 d0 eb ff ff 	mov    %rax,-0x1430(%rbp)
   1a11e:	c7 85 0c eb ff ff 07 	movl   $0x88364f07,-0x14f4(%rbp)
   1a125:	4f 36 88 
   1a128:	66 c7 85 a2 ea ff ff 	movw   $0xffff,-0x155e(%rbp)
   1a12f:	ff ff 
   1a131:	48 c7 85 d8 eb ff ff 	movq   $0x1,-0x1428(%rbp)
   1a138:	01 00 00 00 
   1a13c:	66 c7 85 a4 ea ff ff 	movw   $0x8,-0x155c(%rbp)
   1a143:	08 00 
   1a145:	c6 85 9b ea ff ff e5 	movb   $0xe5,-0x1565(%rbp)
   1a14c:	48 c7 85 a0 ed ff ff 	movq   $0x0,-0x1260(%rbp)
   1a153:	00 00 00 00 
   1a157:	48 8d 85 48 eb ff ff 	lea    -0x14b8(%rbp),%rax
   1a15e:	48 89 85 a8 ed ff ff 	mov    %rax,-0x1258(%rbp)
   1a165:	48 8d 85 48 eb ff ff 	lea    -0x14b8(%rbp),%rax
   1a16c:	48 89 85 b0 ed ff ff 	mov    %rax,-0x1250(%rbp)
   1a173:	48 c7 85 b8 ed ff ff 	movq   $0x0,-0x1248(%rbp)
   1a17a:	00 00 00 00 
   1a17e:	48 8d 85 48 eb ff ff 	lea    -0x14b8(%rbp),%rax
   1a185:	48 89 85 c0 ed ff ff 	mov    %rax,-0x1240(%rbp)
   1a18c:	48 8d 85 48 eb ff ff 	lea    -0x14b8(%rbp),%rax
   1a193:	48 89 85 c8 ed ff ff 	mov    %rax,-0x1238(%rbp)
   1a19a:	48 b8 b4 2b 52 dd 52 	movabs $0xa89e6952dd522bb4,%rax
   1a1a1:	69 9e a8 
   1a1a4:	48 89 85 e0 eb ff ff 	mov    %rax,-0x1420(%rbp)
   1a1ab:	48 b8 23 3d c8 09 8d 	movabs $0x10fba98d09c83d23,%rax
   1a1b2:	a9 fb 10 
   1a1b5:	48 89 85 e8 eb ff ff 	mov    %rax,-0x1418(%rbp)
   1a1bc:	66 c7 85 a6 ea ff ff 	movw   $0xb32a,-0x155a(%rbp)
   1a1c3:	2a b3 
   1a1c5:	48 8d 85 e0 ec ff ff 	lea    -0x1320(%rbp),%rax
   1a1cc:	48 89 85 f0 eb ff ff 	mov    %rax,-0x1410(%rbp)
   1a1d3:	c7 85 10 eb ff ff 01 	movl   $0x1,-0x14f0(%rbp)
   1a1da:	00 00 00 
   1a1dd:	c7 85 cc ea ff ff 00 	movl   $0x0,-0x1534(%rbp)
   1a1e4:	00 00 00 
   1a1e7:	eb 1a                	jmp    1a203 <func_52+0x153d>
   1a1e9:	8b 85 cc ea ff ff    	mov    -0x1534(%rbp),%eax
   1a1ef:	48 98                	cltq   
   1a1f1:	c7 84 85 20 ed ff ff 	movl   $0x1,-0x12e0(%rbp,%rax,4)
   1a1f8:	01 00 00 00 
   1a1fc:	83 85 cc ea ff ff 01 	addl   $0x1,-0x1534(%rbp)
   1a203:	83 bd cc ea ff ff 07 	cmpl   $0x7,-0x1534(%rbp)
   1a20a:	7e dd                	jle    1a1e9 <func_52+0x1523>
   1a20c:	c7 85 cc ea ff ff 00 	movl   $0x0,-0x1534(%rbp)
   1a213:	00 00 00 
   1a216:	eb 54                	jmp    1a26c <func_52+0x15a6>
   1a218:	c7 85 d0 ea ff ff 00 	movl   $0x0,-0x1530(%rbp)
   1a21f:	00 00 00 
   1a222:	eb 38                	jmp    1a25c <func_52+0x1596>
   1a224:	8b 85 d0 ea ff ff    	mov    -0x1530(%rbp),%eax
   1a22a:	48 63 c8             	movslq %eax,%rcx
   1a22d:	8b 85 cc ea ff ff    	mov    -0x1534(%rbp),%eax
   1a233:	48 63 d0             	movslq %eax,%rdx
   1a236:	48 89 d0             	mov    %rdx,%rax
   1a239:	48 c1 e0 03          	shl    $0x3,%rax
   1a23d:	48 29 d0             	sub    %rdx,%rax
   1a240:	48 01 c8             	add    %rcx,%rax
   1a243:	48 bb b4 7c f5 8e 56 	movabs $0xd62cdd568ef57cb4,%rbx
   1a24a:	dd 2c d6 
   1a24d:	48 89 9c c5 f0 ef ff 	mov    %rbx,-0x1010(%rbp,%rax,8)
   1a254:	ff 
   1a255:	83 85 d0 ea ff ff 01 	addl   $0x1,-0x1530(%rbp)
   1a25c:	83 bd d0 ea ff ff 06 	cmpl   $0x6,-0x1530(%rbp)
   1a263:	7e bf                	jle    1a224 <func_52+0x155e>
   1a265:	83 85 cc ea ff ff 01 	addl   $0x1,-0x1534(%rbp)
   1a26c:	83 bd cc ea ff ff 02 	cmpl   $0x2,-0x1534(%rbp)
   1a273:	7e a3                	jle    1a218 <func_52+0x1552>
   1a275:	c7 85 cc ea ff ff 00 	movl   $0x0,-0x1534(%rbp)
   1a27c:	00 00 00 
   1a27f:	eb 1e                	jmp    1a29f <func_52+0x15d9>
   1a281:	8b 85 cc ea ff ff    	mov    -0x1534(%rbp),%eax
   1a287:	48 98                	cltq   
   1a289:	48 8d 15 14 9f 00 00 	lea    0x9f14(%rip),%rdx        # 241a4 <g_241+0x4>
   1a290:	48 89 94 c5 b0 ec ff 	mov    %rdx,-0x1350(%rbp,%rax,8)
   1a297:	ff 
   1a298:	83 85 cc ea ff ff 01 	addl   $0x1,-0x1534(%rbp)
   1a29f:	83 bd cc ea ff ff 01 	cmpl   $0x1,-0x1534(%rbp)
   1a2a6:	7e d9                	jle    1a281 <func_52+0x15bb>
   1a2a8:	c7 85 cc ea ff ff 00 	movl   $0x0,-0x1534(%rbp)
   1a2af:	00 00 00 
   1a2b2:	eb 1e                	jmp    1a2d2 <func_52+0x160c>
   1a2b4:	8b 85 cc ea ff ff    	mov    -0x1534(%rbp),%eax
   1a2ba:	48 98                	cltq   
   1a2bc:	48 8d 95 b0 ec ff ff 	lea    -0x1350(%rbp),%rdx
   1a2c3:	48 89 94 c5 50 ee ff 	mov    %rdx,-0x11b0(%rbp,%rax,8)
   1a2ca:	ff 
   1a2cb:	83 85 cc ea ff ff 01 	addl   $0x1,-0x1534(%rbp)
   1a2d2:	83 bd cc ea ff ff 08 	cmpl   $0x8,-0x1534(%rbp)
   1a2d9:	7e d9                	jle    1a2b4 <func_52+0x15ee>
   1a2db:	48 c7 05 d2 9e 00 00 	movq   $0x0,0x9ed2(%rip)        # 241b8 <g_300>
   1a2e2:	00 00 00 00 
   1a2e6:	e9 59 13 00 00       	jmpq   1b644 <func_52+0x297e>
   1a2eb:	c7 85 d4 ea ff ff c1 	movl   $0x693499c1,-0x152c(%rbp)
   1a2f2:	99 34 69 
   1a2f5:	48 8d 05 98 9d 00 00 	lea    0x9d98(%rip),%rax        # 24094 <g_44>
   1a2fc:	48 89 85 f8 eb ff ff 	mov    %rax,-0x1408(%rbp)
   1a303:	c7 85 a8 ea ff ff fb 	movl   $0xfffffffb,-0x1558(%rbp)
   1a30a:	ff ff ff 
   1a30d:	c7 85 ac ea ff ff 86 	movl   $0x313ef886,-0x1554(%rbp)
   1a314:	f8 3e 31 
   1a317:	c7 85 b0 ea ff ff 55 	movl   $0xf4983355,-0x1550(%rbp)
   1a31e:	33 98 f4 
   1a321:	c7 85 b4 ea ff ff 71 	movl   $0x7741a571,-0x154c(%rbp)
   1a328:	a5 41 77 
   1a32b:	c7 85 b8 ea ff ff 02 	movl   $0x2,-0x1548(%rbp)
   1a332:	00 00 00 
   1a335:	c7 85 8c ea ff ff 00 	movl   $0x0,-0x1574(%rbp)
   1a33c:	00 00 00 
   1a33f:	e9 a9 00 00 00       	jmpq   1a3ed <func_52+0x1727>
   1a344:	48 8d 05 8d 9e 00 00 	lea    0x9e8d(%rip),%rax        # 241d8 <g_400>
   1a34b:	48 89 85 90 ec ff ff 	mov    %rax,-0x1370(%rbp)
   1a352:	48 c7 85 98 ec ff ff 	movq   $0x0,-0x1368(%rbp)
   1a359:	00 00 00 00 
   1a35d:	c7 85 24 eb ff ff 08 	movl   $0x8,-0x14dc(%rbp)
   1a364:	00 00 00 
   1a367:	83 ad d4 ea ff ff 01 	subl   $0x1,-0x152c(%rbp)
   1a36e:	8b 85 8c ea ff ff    	mov    -0x1574(%rbp),%eax
   1a374:	8d 70 01             	lea    0x1(%rax),%esi
   1a377:	48 8b 05 3a 9e 00 00 	mov    0x9e3a(%rip),%rax        # 241b8 <g_300>
   1a37e:	8b 95 8c ea ff ff    	mov    -0x1574(%rbp),%edx
   1a384:	48 63 ca             	movslq %edx,%rcx
   1a387:	48 63 d6             	movslq %esi,%rdx
   1a38a:	48 01 c2             	add    %rax,%rdx
   1a38d:	48 89 d0             	mov    %rdx,%rax
   1a390:	48 01 c0             	add    %rax,%rax
   1a393:	48 01 d0             	add    %rdx,%rax
   1a396:	48 01 c0             	add    %rax,%rax
   1a399:	48 8d 14 08          	lea    (%rax,%rcx,1),%rdx
   1a39d:	48 8d 05 bc 9d 00 00 	lea    0x9dbc(%rip),%rax        # 24160 <g_190>
   1a3a4:	48 01 d0             	add    %rdx,%rax
   1a3a7:	0f b6 00             	movzbl (%rax),%eax
   1a3aa:	0f be d0             	movsbl %al,%edx
   1a3ad:	48 8b 85 90 ec ff ff 	mov    -0x1370(%rbp),%rax
   1a3b4:	89 10                	mov    %edx,(%rax)
   1a3b6:	48 8b 85 90 ec ff ff 	mov    -0x1370(%rbp),%rax
   1a3bd:	c7 00 ff ff ff ff    	movl   $0xffffffff,(%rax)
   1a3c3:	48 8b 85 90 ec ff ff 	mov    -0x1370(%rbp),%rax
   1a3ca:	8b 00                	mov    (%rax),%eax
   1a3cc:	be 01 00 00 00       	mov    $0x1,%esi
   1a3d1:	89 c7                	mov    %eax,%edi
   1a3d3:	e8 2d 12 ff ff       	callq  b605 <safe_sub_func_int32_t_s_s>
   1a3d8:	89 85 24 eb ff ff    	mov    %eax,-0x14dc(%rbp)
   1a3de:	8b 85 8c ea ff ff    	mov    -0x1574(%rbp),%eax
   1a3e4:	83 e8 01             	sub    $0x1,%eax
   1a3e7:	89 85 8c ea ff ff    	mov    %eax,-0x1574(%rbp)
   1a3ed:	8b 85 8c ea ff ff    	mov    -0x1574(%rbp),%eax
   1a3f3:	85 c0                	test   %eax,%eax
   1a3f5:	0f 89 49 ff ff ff    	jns    1a344 <func_52+0x167e>
   1a3fb:	66 c7 05 9a 9c 00 00 	movw   $0x0,0x9c9a(%rip)        # 2409e <g_116>
   1a402:	00 00 
   1a404:	e9 15 12 00 00       	jmpq   1b61e <func_52+0x2958>
   1a409:	48 8d 05 94 9d 00 00 	lea    0x9d94(%rip),%rax        # 241a4 <g_241+0x4>
   1a410:	48 89 85 00 ec ff ff 	mov    %rax,-0x1400(%rbp)
   1a417:	c7 85 bc ea ff ff 84 	movl   $0xd022b84,-0x1544(%rbp)
   1a41e:	2b 02 0d 
   1a421:	c7 85 c0 ea ff ff 06 	movl   $0x6,-0x1540(%rbp)
   1a428:	00 00 00 
   1a42b:	c7 85 14 eb ff ff cb 	movl   $0xcb57c4cb,-0x14ec(%rbp)
   1a432:	c4 57 cb 
   1a435:	c7 85 c4 ea ff ff 45 	movl   $0xf661f45,-0x153c(%rbp)
   1a43c:	1f 66 0f 
   1a43f:	c7 85 30 eb ff ff dc 	movl   $0xe7d80bdc,-0x14d0(%rbp)
   1a446:	0b d8 e7 
   1a449:	c7 85 18 eb ff ff 01 	movl   $0x1,-0x14e8(%rbp)
   1a450:	00 00 00 
   1a453:	48 8b 05 5e 9d 00 00 	mov    0x9d5e(%rip),%rax        # 241b8 <g_300>
   1a45a:	48 8d 70 04          	lea    0x4(%rax),%rsi
   1a45e:	48 8b 05 53 9d 00 00 	mov    0x9d53(%rip),%rax        # 241b8 <g_300>
   1a465:	48 8b 15 4c 9d 00 00 	mov    0x9d4c(%rip),%rdx        # 241b8 <g_300>
   1a46c:	48 8d 4a 03          	lea    0x3(%rdx),%rcx
   1a470:	48 8d 14 06          	lea    (%rsi,%rax,1),%rdx
   1a474:	48 89 d0             	mov    %rdx,%rax
   1a477:	48 01 c0             	add    %rax,%rax
   1a47a:	48 01 d0             	add    %rdx,%rax
   1a47d:	48 01 c0             	add    %rax,%rax
   1a480:	48 8d 14 08          	lea    (%rax,%rcx,1),%rdx
   1a484:	48 8d 05 d5 9c 00 00 	lea    0x9cd5(%rip),%rax        # 24160 <g_190>
   1a48b:	48 01 d0             	add    %rdx,%rax
   1a48e:	0f b6 00             	movzbl (%rax),%eax
   1a491:	84 c0                	test   %al,%al
   1a493:	0f 85 98 11 00 00    	jne    1b631 <func_52+0x296b>
   1a499:	48 8b 85 a8 eb ff ff 	mov    -0x1458(%rbp),%rax
   1a4a0:	41 89 c4             	mov    %eax,%r12d
   1a4a3:	8b 9d 8c ea ff ff    	mov    -0x1574(%rbp),%ebx
   1a4a9:	0f b6 85 88 ea ff ff 	movzbl -0x1578(%rbp),%eax
   1a4b0:	89 c6                	mov    %eax,%esi
   1a4b2:	bf 00 00 00 00       	mov    $0x0,%edi
   1a4b7:	e8 f7 0e ff ff       	callq  b3b3 <safe_add_func_int16_t_s_s>
   1a4bc:	0f b7 05 c5 e4 00 00 	movzwl 0xe4c5(%rip),%eax        # 28988 <g_239>
   1a4c3:	0f bf d0             	movswl %ax,%edx
   1a4c6:	8b 85 bc ea ff ff    	mov    -0x1544(%rbp),%eax
   1a4cc:	21 d0                	and    %edx,%eax
   1a4ce:	89 85 bc ea ff ff    	mov    %eax,-0x1544(%rbp)
   1a4d4:	8b 85 bc ea ff ff    	mov    -0x1544(%rbp),%eax
   1a4da:	89 c2                	mov    %eax,%edx
   1a4dc:	8b 05 b6 9c 00 00    	mov    0x9cb6(%rip),%eax        # 24198 <g_214>
   1a4e2:	39 c2                	cmp    %eax,%edx
   1a4e4:	0f 92 c0             	setb   %al
   1a4e7:	0f b6 c0             	movzbl %al,%eax
   1a4ea:	be 97 ff ff ff       	mov    $0xffffff97,%esi
   1a4ef:	89 c7                	mov    %eax,%edi
   1a4f1:	e8 fc 0c ff ff       	callq  b1f2 <safe_sub_func_int8_t_s_s>
   1a4f6:	0f be d0             	movsbl %al,%edx
   1a4f9:	8b 85 d4 ea ff ff    	mov    -0x152c(%rbp),%eax
   1a4ff:	89 d6                	mov    %edx,%esi
   1a501:	89 c7                	mov    %eax,%edi
   1a503:	e8 ae 10 ff ff       	callq  b5b6 <safe_add_func_int32_t_s_s>
   1a508:	b8 01 00 00 00       	mov    $0x1,%eax
   1a50d:	83 f8 01             	cmp    $0x1,%eax
   1a510:	0f 97 c0             	seta   %al
   1a513:	0f b6 c0             	movzbl %al,%eax
   1a516:	be 55 00 00 00       	mov    $0x55,%esi
   1a51b:	89 c7                	mov    %eax,%edi
   1a51d:	e8 b9 16 ff ff       	callq  bbdb <safe_div_func_uint8_t_u_u>
   1a522:	0f b6 c0             	movzbl %al,%eax
   1a525:	89 de                	mov    %ebx,%esi
   1a527:	89 c7                	mov    %eax,%edi
   1a529:	e8 1a 19 ff ff       	callq  be48 <safe_rshift_func_uint16_t_u_s>
   1a52e:	0f b7 d0             	movzwl %ax,%edx
   1a531:	8b 85 8c ea ff ff    	mov    -0x1574(%rbp),%eax
   1a537:	39 c2                	cmp    %eax,%edx
   1a539:	0f 94 c0             	sete   %al
   1a53c:	0f b6 c0             	movzbl %al,%eax
   1a53f:	44 89 e6             	mov    %r12d,%esi
   1a542:	89 c7                	mov    %eax,%edi
   1a544:	e8 6f 19 ff ff       	callq  beb8 <safe_add_func_uint32_t_u_u>
   1a549:	0f bf d0             	movswl %ax,%edx
   1a54c:	8b 05 6e 9c 00 00    	mov    0x9c6e(%rip),%eax        # 241c0 <g_362>
   1a552:	98                   	cwtl   
   1a553:	89 d6                	mov    %edx,%esi
   1a555:	89 c7                	mov    %eax,%edi
   1a557:	e8 ba 0e ff ff       	callq  b416 <safe_mod_func_int16_t_s_s>
   1a55c:	8b 85 8c ea ff ff    	mov    -0x1574(%rbp),%eax
   1a562:	be a7 6b 39 2c       	mov    $0x2c396ba7,%esi
   1a567:	89 c7                	mov    %eax,%edi
   1a569:	e8 8f 19 ff ff       	callq  befd <safe_mod_func_uint32_t_u_u>
   1a56e:	85 c0                	test   %eax,%eax
   1a570:	0f 84 95 01 00 00    	je     1a70b <func_52+0x1a45>
   1a576:	48 b8 c6 14 6b 2c 36 	movabs $0xd49d26362c6b14c6,%rax
   1a57d:	26 9d d4 
   1a580:	48 89 85 78 ec ff ff 	mov    %rax,-0x1388(%rbp)
   1a587:	be 01 00 00 00       	mov    $0x1,%esi
   1a58c:	bf 06 00 00 00       	mov    $0x6,%edi
   1a591:	e8 d6 0d ff ff       	callq  b36c <safe_rshift_func_int8_t_s_u>
   1a596:	84 c0                	test   %al,%al
   1a598:	74 0c                	je     1a5a6 <func_52+0x18e0>
   1a59a:	48 8b 85 f8 eb ff ff 	mov    -0x1408(%rbp),%rax
   1a5a1:	e9 81 19 00 00       	jmpq   1bf27 <func_52+0x3261>
   1a5a6:	48 c7 85 80 ec ff ff 	movq   $0x0,-0x1380(%rbp)
   1a5ad:	00 00 00 00 
   1a5b1:	48 c7 85 88 ec ff ff 	movq   $0x0,-0x1378(%rbp)
   1a5b8:	00 00 00 00 
   1a5bc:	c7 85 1c eb ff ff 95 	movl   $0xf7d35495,-0x14e4(%rbp)
   1a5c3:	54 d3 f7 
   1a5c6:	c7 85 20 eb ff ff 00 	movl   $0x0,-0x14e0(%rbp)
   1a5cd:	00 00 00 
   1a5d0:	c7 85 d8 ea ff ff 00 	movl   $0x0,-0x1528(%rbp)
   1a5d7:	00 00 00 
   1a5da:	eb 1e                	jmp    1a5fa <func_52+0x1934>
   1a5dc:	8b 85 d8 ea ff ff    	mov    -0x1528(%rbp),%eax
   1a5e2:	48 98                	cltq   
   1a5e4:	48 8d 15 ed 9b 00 00 	lea    0x9bed(%rip),%rdx        # 241d8 <g_400>
   1a5eb:	48 89 94 c5 c0 f3 ff 	mov    %rdx,-0xc40(%rbp,%rax,8)
   1a5f2:	ff 
   1a5f3:	83 85 d8 ea ff ff 01 	addl   $0x1,-0x1528(%rbp)
   1a5fa:	83 bd d8 ea ff ff 05 	cmpl   $0x5,-0x1528(%rbp)
   1a601:	7e d9                	jle    1a5dc <func_52+0x1916>
   1a603:	8b 05 ab 9b 00 00    	mov    0x9bab(%rip),%eax        # 241b4 <g_248>
   1a609:	0f b6 d0             	movzbl %al,%edx
   1a60c:	48 83 bd 80 ec ff ff 	cmpq   $0x0,-0x1380(%rbp)
   1a613:	00 
   1a614:	74 17                	je     1a62d <func_52+0x1967>
   1a616:	48 8d 05 bb e3 00 00 	lea    0xe3bb(%rip),%rax        # 289d8 <g_399+0x38>
   1a61d:	48 39 85 88 ec ff ff 	cmp    %rax,-0x1378(%rbp)
   1a624:	74 07                	je     1a62d <func_52+0x1967>
   1a626:	b8 01 00 00 00       	mov    $0x1,%eax
   1a62b:	eb 05                	jmp    1a632 <func_52+0x196c>
   1a62d:	b8 00 00 00 00       	mov    $0x0,%eax
   1a632:	31 85 1c eb ff ff    	xor    %eax,-0x14e4(%rbp)
   1a638:	8b 85 bc ea ff ff    	mov    -0x1544(%rbp),%eax
   1a63e:	39 85 1c eb ff ff    	cmp    %eax,-0x14e4(%rbp)
   1a644:	41 0f 94 c0          	sete   %r8b
   1a648:	0f b6 85 88 ea ff ff 	movzbl -0x1578(%rbp),%eax
   1a64f:	83 c8 ee             	or     $0xffffffee,%eax
   1a652:	3c ff                	cmp    $0xff,%al
   1a654:	0f 95 c1             	setne  %cl
   1a657:	48 8b 05 5a 9b 00 00 	mov    0x9b5a(%rip),%rax        # 241b8 <g_300>
   1a65e:	48 83 c0 05          	add    $0x5,%rax
   1a662:	0f b6 f1             	movzbl %cl,%esi
   1a665:	48 8d 0c 00          	lea    (%rax,%rax,1),%rcx
   1a669:	48 8d 3d 30 9b 00 00 	lea    0x9b30(%rip),%rdi        # 241a0 <g_241>
   1a670:	66 89 34 39          	mov    %si,(%rcx,%rdi,1)
   1a674:	48 8d 0c 00          	lea    (%rax,%rax,1),%rcx
   1a678:	48 8d 05 21 9b 00 00 	lea    0x9b21(%rip),%rax        # 241a0 <g_241>
   1a67f:	0f b7 04 01          	movzwl (%rcx,%rax,1),%eax
   1a683:	98                   	cwtl   
   1a684:	39 85 20 eb ff ff    	cmp    %eax,-0x14e0(%rbp)
   1a68a:	0f 97 c0             	seta   %al
   1a68d:	0f b6 c8             	movzbl %al,%ecx
   1a690:	48 8b 05 21 9b 00 00 	mov    0x9b21(%rip),%rax        # 241b8 <g_300>
   1a697:	48 21 c8             	and    %rcx,%rax
   1a69a:	48 83 f8 ff          	cmp    $0xffffffffffffffff,%rax
   1a69e:	0f 95 c0             	setne  %al
   1a6a1:	44 31 c0             	xor    %r8d,%eax
   1a6a4:	0f b6 c0             	movzbl %al,%eax
   1a6a7:	89 d6                	mov    %edx,%esi
   1a6a9:	89 c7                	mov    %eax,%edi
   1a6ab:	e8 e3 14 ff ff       	callq  bb93 <safe_mul_func_uint8_t_u_u>
   1a6b0:	0f b6 d0             	movzbl %al,%edx
   1a6b3:	48 8b 05 26 9b 00 00 	mov    0x9b26(%rip),%rax        # 241e0 <g_432>
   1a6ba:	48 39 c2             	cmp    %rax,%rdx
   1a6bd:	0f 97 c0             	seta   %al
   1a6c0:	0f b6 d0             	movzbl %al,%edx
   1a6c3:	8b 85 8c ea ff ff    	mov    -0x1574(%rbp),%eax
   1a6c9:	39 c2                	cmp    %eax,%edx
   1a6cb:	7f 07                	jg     1a6d4 <func_52+0x1a0e>
   1a6cd:	b8 01 00 00 00       	mov    $0x1,%eax
   1a6d2:	eb 05                	jmp    1a6d9 <func_52+0x1a13>
   1a6d4:	b8 00 00 00 00       	mov    $0x0,%eax
   1a6d9:	48 98                	cltq   
   1a6db:	48 89 85 78 ec ff ff 	mov    %rax,-0x1388(%rbp)
   1a6e2:	48 8b 85 78 ec ff ff 	mov    -0x1388(%rbp),%rax
   1a6e9:	89 85 8c ea ff ff    	mov    %eax,-0x1574(%rbp)
   1a6ef:	8b 85 8c ea ff ff    	mov    -0x1574(%rbp),%eax
   1a6f5:	85 c0                	test   %eax,%eax
   1a6f7:	74 06                	je     1a6ff <func_52+0x1a39>
   1a6f9:	90                   	nop
   1a6fa:	e9 32 0f 00 00       	jmpq   1b631 <func_52+0x296b>
   1a6ff:	48 8d 05 8e 99 00 00 	lea    0x998e(%rip),%rax        # 24094 <g_44>
   1a706:	e9 1c 18 00 00       	jmpq   1bf27 <func_52+0x3261>
   1a70b:	48 8d 05 d6 9a 00 00 	lea    0x9ad6(%rip),%rax        # 241e8 <g_446>
   1a712:	48 89 85 08 ec ff ff 	mov    %rax,-0x13f8(%rbp)
   1a719:	48 8d 05 94 9a 00 00 	lea    0x9a94(%rip),%rax        # 241b4 <g_248>
   1a720:	48 89 85 10 ec ff ff 	mov    %rax,-0x13f0(%rbp)
   1a727:	48 8d 05 aa 9a 00 00 	lea    0x9aaa(%rip),%rax        # 241d8 <g_400>
   1a72e:	48 89 85 18 ec ff ff 	mov    %rax,-0x13e8(%rbp)
   1a735:	c7 85 dc ea ff ff 00 	movl   $0x0,-0x1524(%rbp)
   1a73c:	00 00 00 
   1a73f:	eb 1a                	jmp    1a75b <func_52+0x1a95>
   1a741:	8b 85 dc ea ff ff    	mov    -0x1524(%rbp),%eax
   1a747:	48 98                	cltq   
   1a749:	c7 84 85 00 ed ff ff 	movl   $0x50aa0b69,-0x1300(%rbp,%rax,4)
   1a750:	69 0b aa 50 
   1a754:	83 85 dc ea ff ff 01 	addl   $0x1,-0x1524(%rbp)
   1a75b:	83 bd dc ea ff ff 05 	cmpl   $0x5,-0x1524(%rbp)
   1a762:	7e dd                	jle    1a741 <func_52+0x1a7b>
   1a764:	48 8b 05 d5 98 00 00 	mov    0x98d5(%rip),%rax        # 24040 <g_21>
   1a76b:	41 89 c6             	mov    %eax,%r14d
   1a76e:	8b 95 8c ea ff ff    	mov    -0x1574(%rbp),%edx
   1a774:	48 8b 85 08 ec ff ff 	mov    -0x13f8(%rbp),%rax
   1a77b:	89 10                	mov    %edx,(%rax)
   1a77d:	48 8b 05 34 9a 00 00 	mov    0x9a34(%rip),%rax        # 241b8 <g_300>
   1a784:	48 8d 70 04          	lea    0x4(%rax),%rsi
   1a788:	48 8b 05 29 9a 00 00 	mov    0x9a29(%rip),%rax        # 241b8 <g_300>
   1a78f:	48 8b 15 22 9a 00 00 	mov    0x9a22(%rip),%rdx        # 241b8 <g_300>
   1a796:	48 8d 4a 03          	lea    0x3(%rdx),%rcx
   1a79a:	48 8d 14 06          	lea    (%rsi,%rax,1),%rdx
   1a79e:	48 89 d0             	mov    %rdx,%rax
   1a7a1:	48 01 c0             	add    %rax,%rax
   1a7a4:	48 01 d0             	add    %rdx,%rax
   1a7a7:	48 01 c0             	add    %rax,%rax
   1a7aa:	48 8d 14 08          	lea    (%rax,%rcx,1),%rdx
   1a7ae:	48 8d 05 ab 99 00 00 	lea    0x99ab(%rip),%rax        # 24160 <g_190>
   1a7b5:	48 01 d0             	add    %rdx,%rax
   1a7b8:	0f b6 00             	movzbl (%rax),%eax
   1a7bb:	0f be d8             	movsbl %al,%ebx
   1a7be:	8b 85 10 ed ff ff    	mov    -0x12f0(%rbp),%eax
   1a7c4:	44 0f bf e0          	movswl %ax,%r12d
   1a7c8:	44 0f b6 ad 88 ea ff 	movzbl -0x1578(%rbp),%r13d
   1a7cf:	ff 
   1a7d0:	80 bd 88 ea ff ff 00 	cmpb   $0x0,-0x1578(%rbp)
   1a7d7:	75 3f                	jne    1a818 <func_52+0x1b52>
   1a7d9:	48 8b 85 10 ec ff ff 	mov    -0x13f0(%rbp),%rax
   1a7e0:	8b 00                	mov    (%rax),%eax
   1a7e2:	25 c5 60 77 9f       	and    $0x9f7760c5,%eax
   1a7e7:	89 c2                	mov    %eax,%edx
   1a7e9:	48 8b 85 10 ec ff ff 	mov    -0x13f0(%rbp),%rax
   1a7f0:	89 10                	mov    %edx,(%rax)
   1a7f2:	bf 01 00 00 00       	mov    $0x1,%edi
   1a7f7:	e8 1a 10 ff ff       	callq  b816 <safe_unary_minus_func_int64_t_s>
   1a7fc:	48 8d 05 b1 99 00 00 	lea    0x99b1(%rip),%rax        # 241b4 <g_248>
   1a803:	48 39 85 b0 eb ff ff 	cmp    %rax,-0x1450(%rbp)
   1a80a:	75 0c                	jne    1a818 <func_52+0x1b52>
   1a80c:	0f b7 05 75 e1 00 00 	movzwl 0xe175(%rip),%eax        # 28988 <g_239>
   1a813:	66 85 c0             	test   %ax,%ax
   1a816:	74 07                	je     1a81f <func_52+0x1b59>
   1a818:	b8 01 00 00 00       	mov    $0x1,%eax
   1a81d:	eb 05                	jmp    1a824 <func_52+0x1b5e>
   1a81f:	b8 00 00 00 00       	mov    $0x0,%eax
   1a824:	48 98                	cltq   
   1a826:	4c 89 ee             	mov    %r13,%rsi
   1a829:	48 89 c7             	mov    %rax,%rdi
   1a82c:	e8 10 10 ff ff       	callq  b841 <safe_add_func_int64_t_s_s>
   1a831:	89 c2                	mov    %eax,%edx
   1a833:	48 8b 05 7e 99 00 00 	mov    0x997e(%rip),%rax        # 241b8 <g_300>
   1a83a:	09 d0                	or     %edx,%eax
   1a83c:	98                   	cwtl   
   1a83d:	44 89 e6             	mov    %r12d,%esi
   1a840:	89 c7                	mov    %eax,%edi
   1a842:	e8 cf 0b ff ff       	callq  b416 <safe_mod_func_int16_t_s_s>
   1a847:	98                   	cwtl   
   1a848:	89 de                	mov    %ebx,%esi
   1a84a:	89 c7                	mov    %eax,%edi
   1a84c:	e8 04 0c ff ff       	callq  b455 <safe_div_func_int16_t_s_s>
   1a851:	8b 85 8c ea ff ff    	mov    -0x1574(%rbp),%eax
   1a857:	98                   	cwtl   
   1a858:	be f2 25 00 00       	mov    $0x25f2,%esi
   1a85d:	89 c7                	mov    %eax,%edi
   1a85f:	e8 6f 0b ff ff       	callq  b3d3 <safe_sub_func_int16_t_s_s>
   1a864:	0f bf d0             	movswl %ax,%edx
   1a867:	8b 05 53 99 00 00    	mov    0x9953(%rip),%eax        # 241c0 <g_362>
   1a86d:	39 c2                	cmp    %eax,%edx
   1a86f:	0f 95 c0             	setne  %al
   1a872:	0f b6 c0             	movzbl %al,%eax
   1a875:	44 89 f6             	mov    %r14d,%esi
   1a878:	89 c7                	mov    %eax,%edi
   1a87a:	e8 0e 14 ff ff       	callq  bc8d <safe_rshift_func_uint8_t_u_s>
   1a87f:	84 c0                	test   %al,%al
   1a881:	75 0c                	jne    1a88f <func_52+0x1bc9>
   1a883:	48 8b 85 a0 ec ff ff 	mov    -0x1360(%rbp),%rax
   1a88a:	48 85 c0             	test   %rax,%rax
   1a88d:	74 07                	je     1a896 <func_52+0x1bd0>
   1a88f:	ba 01 00 00 00       	mov    $0x1,%edx
   1a894:	eb 05                	jmp    1a89b <func_52+0x1bd5>
   1a896:	ba 00 00 00 00       	mov    $0x0,%edx
   1a89b:	48 8b 85 18 ec ff ff 	mov    -0x13e8(%rbp),%rax
   1a8a2:	8b 00                	mov    (%rax),%eax
   1a8a4:	31 c2                	xor    %eax,%edx
   1a8a6:	48 8b 85 18 ec ff ff 	mov    -0x13e8(%rbp),%rax
   1a8ad:	89 10                	mov    %edx,(%rax)
   1a8af:	48 8b 85 18 ec ff ff 	mov    -0x13e8(%rbp),%rax
   1a8b6:	8b 00                	mov    (%rax),%eax
   1a8b8:	85 c0                	test   %eax,%eax
   1a8ba:	0f 84 7a 03 00 00    	je     1ac3a <func_52+0x1f74>
   1a8c0:	48 8d 85 00 ed ff ff 	lea    -0x1300(%rbp),%rax
   1a8c7:	48 83 c0 0c          	add    $0xc,%rax
   1a8cb:	48 89 85 30 ec ff ff 	mov    %rax,-0x13d0(%rbp)
   1a8d2:	48 8d 85 00 ed ff ff 	lea    -0x1300(%rbp),%rax
   1a8d9:	48 89 85 38 ec ff ff 	mov    %rax,-0x13c8(%rbp)
   1a8e0:	48 c7 85 40 ec ff ff 	movq   $0x0,-0x13c0(%rbp)
   1a8e7:	00 00 00 00 
   1a8eb:	48 c7 85 48 ec ff ff 	movq   $0x0,-0x13b8(%rbp)
   1a8f2:	00 00 00 00 
   1a8f6:	48 c7 85 50 ec ff ff 	movq   $0x0,-0x13b0(%rbp)
   1a8fd:	00 00 00 00 
   1a901:	48 8d 85 bc ea ff ff 	lea    -0x1544(%rbp),%rax
   1a908:	48 89 85 58 ec ff ff 	mov    %rax,-0x13a8(%rbp)
   1a90f:	48 8d 85 00 ed ff ff 	lea    -0x1300(%rbp),%rax
   1a916:	48 83 c0 04          	add    $0x4,%rax
   1a91a:	48 89 85 60 ec ff ff 	mov    %rax,-0x13a0(%rbp)
   1a921:	48 8d 85 bc ea ff ff 	lea    -0x1544(%rbp),%rax
   1a928:	48 89 85 68 ec ff ff 	mov    %rax,-0x1398(%rbp)
   1a92f:	48 8d 05 a2 98 00 00 	lea    0x98a2(%rip),%rax        # 241d8 <g_400>
   1a936:	48 89 85 70 ec ff ff 	mov    %rax,-0x1390(%rbp)
   1a93d:	48 c7 85 c0 f3 ff ff 	movq   $0x0,-0xc40(%rbp)
   1a944:	00 00 00 00 
   1a948:	48 8d 85 a0 ee ff ff 	lea    -0x1160(%rbp),%rax
   1a94f:	48 83 c0 08          	add    $0x8,%rax
   1a953:	48 89 85 c8 f3 ff ff 	mov    %rax,-0xc38(%rbp)
   1a95a:	48 c7 85 d0 f3 ff ff 	movq   $0x0,-0xc30(%rbp)
   1a961:	00 00 00 00 
   1a965:	48 8d 85 a0 ee ff ff 	lea    -0x1160(%rbp),%rax
   1a96c:	48 83 c0 78          	add    $0x78,%rax
   1a970:	48 89 85 d8 f3 ff ff 	mov    %rax,-0xc28(%rbp)
   1a977:	48 8d 85 bc ea ff ff 	lea    -0x1544(%rbp),%rax
   1a97e:	48 89 85 e0 f3 ff ff 	mov    %rax,-0xc20(%rbp)
   1a985:	48 8d 85 bc ea ff ff 	lea    -0x1544(%rbp),%rax
   1a98c:	48 89 85 e8 f3 ff ff 	mov    %rax,-0xc18(%rbp)
   1a993:	48 8d 85 a0 ee ff ff 	lea    -0x1160(%rbp),%rax
   1a99a:	48 83 c0 78          	add    $0x78,%rax
   1a99e:	48 89 85 f0 f3 ff ff 	mov    %rax,-0xc10(%rbp)
   1a9a5:	48 8d 85 a0 ee ff ff 	lea    -0x1160(%rbp),%rax
   1a9ac:	48 83 c0 38          	add    $0x38,%rax
   1a9b0:	48 89 85 f8 f3 ff ff 	mov    %rax,-0xc08(%rbp)
   1a9b7:	48 8d 85 a0 ee ff ff 	lea    -0x1160(%rbp),%rax
   1a9be:	48 83 c0 38          	add    $0x38,%rax
   1a9c2:	48 89 85 00 f4 ff ff 	mov    %rax,-0xc00(%rbp)
   1a9c9:	48 8d 85 00 ed ff ff 	lea    -0x1300(%rbp),%rax
   1a9d0:	48 89 85 08 f4 ff ff 	mov    %rax,-0xbf8(%rbp)
   1a9d7:	48 8d 85 a0 ee ff ff 	lea    -0x1160(%rbp),%rax
   1a9de:	48 83 c0 08          	add    $0x8,%rax
   1a9e2:	48 89 85 10 f4 ff ff 	mov    %rax,-0xbf0(%rbp)
   1a9e9:	48 8d 85 a0 ee ff ff 	lea    -0x1160(%rbp),%rax
   1a9f0:	48 83 c0 38          	add    $0x38,%rax
   1a9f4:	48 89 85 18 f4 ff ff 	mov    %rax,-0xbe8(%rbp)
   1a9fb:	48 8d 85 bc ea ff ff 	lea    -0x1544(%rbp),%rax
   1aa02:	48 89 85 20 f4 ff ff 	mov    %rax,-0xbe0(%rbp)
   1aa09:	48 8d 85 a0 ee ff ff 	lea    -0x1160(%rbp),%rax
   1aa10:	48 83 c0 38          	add    $0x38,%rax
   1aa14:	48 89 85 28 f4 ff ff 	mov    %rax,-0xbd8(%rbp)
   1aa1b:	48 8d 85 a0 ee ff ff 	lea    -0x1160(%rbp),%rax
   1aa22:	48 83 c0 08          	add    $0x8,%rax
   1aa26:	48 89 85 30 f4 ff ff 	mov    %rax,-0xbd0(%rbp)
   1aa2d:	48 8d 85 00 ed ff ff 	lea    -0x1300(%rbp),%rax
   1aa34:	48 89 85 38 f4 ff ff 	mov    %rax,-0xbc8(%rbp)
   1aa3b:	48 8d 85 a0 ee ff ff 	lea    -0x1160(%rbp),%rax
   1aa42:	48 83 c0 78          	add    $0x78,%rax
   1aa46:	48 89 85 40 f4 ff ff 	mov    %rax,-0xbc0(%rbp)
   1aa4d:	48 8d 85 a0 ee ff ff 	lea    -0x1160(%rbp),%rax
   1aa54:	48 83 c0 3c          	add    $0x3c,%rax
   1aa58:	48 89 85 48 f4 ff ff 	mov    %rax,-0xbb8(%rbp)
   1aa5f:	48 8d 85 a0 ee ff ff 	lea    -0x1160(%rbp),%rax
   1aa66:	48 83 c0 78          	add    $0x78,%rax
   1aa6a:	48 89 85 50 f4 ff ff 	mov    %rax,-0xbb0(%rbp)
   1aa71:	48 8d 85 bc ea ff ff 	lea    -0x1544(%rbp),%rax
   1aa78:	48 89 85 58 f4 ff ff 	mov    %rax,-0xba8(%rbp)
   1aa7f:	48 8d 85 bc ea ff ff 	lea    -0x1544(%rbp),%rax
   1aa86:	48 89 85 60 f4 ff ff 	mov    %rax,-0xba0(%rbp)
   1aa8d:	48 8d 85 a0 ee ff ff 	lea    -0x1160(%rbp),%rax
   1aa94:	48 83 c0 78          	add    $0x78,%rax
   1aa98:	48 89 85 68 f4 ff ff 	mov    %rax,-0xb98(%rbp)
   1aa9f:	48 c7 85 70 f4 ff ff 	movq   $0x0,-0xb90(%rbp)
   1aaa6:	00 00 00 00 
   1aaaa:	48 8d 85 a0 ee ff ff 	lea    -0x1160(%rbp),%rax
   1aab1:	48 83 c0 08          	add    $0x8,%rax
   1aab5:	48 89 85 78 f4 ff ff 	mov    %rax,-0xb88(%rbp)
   1aabc:	48 c7 85 80 f4 ff ff 	movq   $0x0,-0xb80(%rbp)
   1aac3:	00 00 00 00 
   1aac7:	48 8d 85 a0 ee ff ff 	lea    -0x1160(%rbp),%rax
   1aace:	48 83 c0 78          	add    $0x78,%rax
   1aad2:	48 89 85 88 f4 ff ff 	mov    %rax,-0xb78(%rbp)
   1aad9:	48 8d 85 bc ea ff ff 	lea    -0x1544(%rbp),%rax
   1aae0:	48 89 85 90 f4 ff ff 	mov    %rax,-0xb70(%rbp)
   1aae7:	48 8d 85 bc ea ff ff 	lea    -0x1544(%rbp),%rax
   1aaee:	48 89 85 98 f4 ff ff 	mov    %rax,-0xb68(%rbp)
   1aaf5:	48 8d 85 bc ea ff ff 	lea    -0x1544(%rbp),%rax
   1aafc:	48 89 85 a0 f4 ff ff 	mov    %rax,-0xb60(%rbp)
   1ab03:	48 8d 05 ce 96 00 00 	lea    0x96ce(%rip),%rax        # 241d8 <g_400>
   1ab0a:	48 89 85 a8 f4 ff ff 	mov    %rax,-0xb58(%rbp)
   1ab11:	48 c7 85 b0 f4 ff ff 	movq   $0x0,-0xb50(%rbp)
   1ab18:	00 00 00 00 
   1ab1c:	48 8d 85 a0 ee ff ff 	lea    -0x1160(%rbp),%rax
   1ab23:	48 83 c0 3c          	add    $0x3c,%rax
   1ab27:	48 89 85 b8 f4 ff ff 	mov    %rax,-0xb48(%rbp)
   1ab2e:	48 8d 85 bc ea ff ff 	lea    -0x1544(%rbp),%rax
   1ab35:	48 89 85 c0 f4 ff ff 	mov    %rax,-0xb40(%rbp)
   1ab3c:	48 8d 85 a0 ee ff ff 	lea    -0x1160(%rbp),%rax
   1ab43:	48 83 c0 08          	add    $0x8,%rax
   1ab47:	48 89 85 c8 f4 ff ff 	mov    %rax,-0xb38(%rbp)
   1ab4e:	48 8d 85 a0 ee ff ff 	lea    -0x1160(%rbp),%rax
   1ab55:	48 83 c0 78          	add    $0x78,%rax
   1ab59:	48 89 85 d0 f4 ff ff 	mov    %rax,-0xb30(%rbp)
   1ab60:	48 8d 85 a0 ee ff ff 	lea    -0x1160(%rbp),%rax
   1ab67:	48 83 c0 08          	add    $0x8,%rax
   1ab6b:	48 89 85 d8 f4 ff ff 	mov    %rax,-0xb28(%rbp)
   1ab72:	c7 45 d4 01 01 01 01 	movl   $0x1010101,-0x2c(%rbp)
   1ab79:	48 8b 85 18 ec ff ff 	mov    -0x13e8(%rbp),%rax
   1ab80:	8b 00                	mov    (%rax),%eax
   1ab82:	48 8b 95 a8 eb ff ff 	mov    -0x1458(%rbp),%rdx
   1ab89:	09 c2                	or     %eax,%edx
   1ab8b:	48 8b 85 18 ec ff ff 	mov    -0x13e8(%rbp),%rax
   1ab92:	89 10                	mov    %edx,(%rax)
   1ab94:	0f b6 45 d7          	movzbl -0x29(%rbp),%eax
   1ab98:	83 c0 01             	add    $0x1,%eax
   1ab9b:	88 45 d7             	mov    %al,-0x29(%rbp)
   1ab9e:	8b 85 14 eb ff ff    	mov    -0x14ec(%rbp),%eax
   1aba4:	0f b6 c0             	movzbl %al,%eax
   1aba7:	89 c6                	mov    %eax,%esi
   1aba9:	bf ff 00 00 00       	mov    $0xff,%edi
   1abae:	e8 a7 0f ff ff       	callq  bb5a <safe_add_func_uint8_t_u_u>
   1abb3:	0f b6 d0             	movzbl %al,%edx
   1abb6:	8b 05 2c 96 00 00    	mov    0x962c(%rip),%eax        # 241e8 <g_446>
   1abbc:	39 c2                	cmp    %eax,%edx
   1abbe:	7e 55                	jle    1ac15 <func_52+0x1f4f>
   1abc0:	8b 05 0e 96 00 00    	mov    0x960e(%rip),%eax        # 241d4 <g_394>
   1abc6:	85 c0                	test   %eax,%eax
   1abc8:	74 4b                	je     1ac15 <func_52+0x1f4f>
   1abca:	8b 85 bc ea ff ff    	mov    -0x1544(%rbp),%eax
   1abd0:	98                   	cwtl   
   1abd1:	89 c6                	mov    %eax,%esi
   1abd3:	bf 88 ee ff ff       	mov    $0xffffee88,%edi
   1abd8:	e8 18 08 ff ff       	callq  b3f5 <safe_mul_func_int16_t_s_s>
   1abdd:	89 c3                	mov    %eax,%ebx
   1abdf:	8b 05 b3 95 00 00    	mov    0x95b3(%rip),%eax        # 24198 <g_214>
   1abe5:	98                   	cwtl   
   1abe6:	be 04 00 00 00       	mov    $0x4,%esi
   1abeb:	89 c7                	mov    %eax,%edi
   1abed:	e8 38 09 ff ff       	callq  b52a <safe_rshift_func_int16_t_s_s>
   1abf2:	66 39 c3             	cmp    %ax,%bx
   1abf5:	7f 1e                	jg     1ac15 <func_52+0x1f4f>
   1abf7:	0f b7 05 8a dd 00 00 	movzwl 0xdd8a(%rip),%eax        # 28988 <g_239>
   1abfe:	48 0f bf d0          	movswq %ax,%rdx
   1ac02:	48 8b 05 bf 94 00 00 	mov    0x94bf(%rip),%rax        # 240c8 <g_169+0x8>
   1ac09:	48 39 c2             	cmp    %rax,%rdx
   1ac0c:	7c 07                	jl     1ac15 <func_52+0x1f4f>
   1ac0e:	ba 01 00 00 00       	mov    $0x1,%edx
   1ac13:	eb 05                	jmp    1ac1a <func_52+0x1f54>
   1ac15:	ba 00 00 00 00       	mov    $0x0,%edx
   1ac1a:	48 8b 85 30 ec ff ff 	mov    -0x13d0(%rbp),%rax
   1ac21:	8b 00                	mov    (%rax),%eax
   1ac23:	09 c2                	or     %eax,%edx
   1ac25:	48 8b 85 30 ec ff ff 	mov    -0x13d0(%rbp),%rax
   1ac2c:	89 10                	mov    %edx,(%rax)
   1ac2e:	83 85 e8 ea ff ff 01 	addl   $0x1,-0x1518(%rbp)
   1ac35:	e9 d3 09 00 00       	jmpq   1b60d <func_52+0x2947>
   1ac3a:	48 c7 85 20 ec ff ff 	movq   $0x0,-0x13e0(%rbp)
   1ac41:	00 00 00 00 
   1ac45:	48 8d 85 30 eb ff ff 	lea    -0x14d0(%rbp),%rax
   1ac4c:	48 89 85 28 ec ff ff 	mov    %rax,-0x13d8(%rbp)
   1ac53:	c7 85 38 eb ff ff 01 	movl   $0x1,-0x14c8(%rbp)
   1ac5a:	00 00 00 
   1ac5d:	c7 85 40 eb ff ff 74 	movl   $0x1433d74,-0x14c0(%rbp)
   1ac64:	3d 43 01 
   1ac67:	48 8d 85 b0 ea ff ff 	lea    -0x1550(%rbp),%rax
   1ac6e:	48 89 85 c0 f3 ff ff 	mov    %rax,-0xc40(%rbp)
   1ac75:	48 c7 85 c8 f3 ff ff 	movq   $0x0,-0xc38(%rbp)
   1ac7c:	00 00 00 00 
   1ac80:	48 8d 85 20 ed ff ff 	lea    -0x12e0(%rbp),%rax
   1ac87:	48 83 c0 04          	add    $0x4,%rax
   1ac8b:	48 89 85 d0 f3 ff ff 	mov    %rax,-0xc30(%rbp)
   1ac92:	48 8d 85 20 ed ff ff 	lea    -0x12e0(%rbp),%rax
   1ac99:	48 83 c0 0c          	add    $0xc,%rax
   1ac9d:	48 89 85 d8 f3 ff ff 	mov    %rax,-0xc28(%rbp)
   1aca4:	48 c7 85 e0 f3 ff ff 	movq   $0x0,-0xc20(%rbp)
   1acab:	00 00 00 00 
   1acaf:	48 8d 85 c0 ea ff ff 	lea    -0x1540(%rbp),%rax
   1acb6:	48 89 85 e8 f3 ff ff 	mov    %rax,-0xc18(%rbp)
   1acbd:	48 8d 85 a0 ee ff ff 	lea    -0x1160(%rbp),%rax
   1acc4:	48 05 8c 00 00 00    	add    $0x8c,%rax
   1acca:	48 89 85 f0 f3 ff ff 	mov    %rax,-0xc10(%rbp)
   1acd1:	48 8d 85 ac ea ff ff 	lea    -0x1554(%rbp),%rax
   1acd8:	48 89 85 f8 f3 ff ff 	mov    %rax,-0xc08(%rbp)
   1acdf:	48 c7 85 00 f4 ff ff 	movq   $0x0,-0xc00(%rbp)
   1ace6:	00 00 00 00 
   1acea:	48 8d 85 b8 ea ff ff 	lea    -0x1548(%rbp),%rax
   1acf1:	48 89 85 08 f4 ff ff 	mov    %rax,-0xbf8(%rbp)
   1acf8:	48 8d 85 20 ed ff ff 	lea    -0x12e0(%rbp),%rax
   1acff:	48 83 c0 04          	add    $0x4,%rax
   1ad03:	48 89 85 10 f4 ff ff 	mov    %rax,-0xbf0(%rbp)
   1ad0a:	48 8d 85 a0 ee ff ff 	lea    -0x1160(%rbp),%rax
   1ad11:	48 05 8c 00 00 00    	add    $0x8c,%rax
   1ad17:	48 89 85 18 f4 ff ff 	mov    %rax,-0xbe8(%rbp)
   1ad1e:	48 8d 85 b0 ea ff ff 	lea    -0x1550(%rbp),%rax
   1ad25:	48 89 85 20 f4 ff ff 	mov    %rax,-0xbe0(%rbp)
   1ad2c:	48 8d 85 ac ea ff ff 	lea    -0x1554(%rbp),%rax
   1ad33:	48 89 85 28 f4 ff ff 	mov    %rax,-0xbd8(%rbp)
   1ad3a:	48 8d 85 a0 ee ff ff 	lea    -0x1160(%rbp),%rax
   1ad41:	48 83 c0 78          	add    $0x78,%rax
   1ad45:	48 89 85 30 f4 ff ff 	mov    %rax,-0xbd0(%rbp)
   1ad4c:	48 8d 85 20 ed ff ff 	lea    -0x12e0(%rbp),%rax
   1ad53:	48 83 c0 14          	add    $0x14,%rax
   1ad57:	48 89 85 38 f4 ff ff 	mov    %rax,-0xbc8(%rbp)
   1ad5e:	48 8d 85 20 ed ff ff 	lea    -0x12e0(%rbp),%rax
   1ad65:	48 83 c0 14          	add    $0x14,%rax
   1ad69:	48 89 85 40 f4 ff ff 	mov    %rax,-0xbc0(%rbp)
   1ad70:	48 8d 85 38 eb ff ff 	lea    -0x14c8(%rbp),%rax
   1ad77:	48 89 85 48 f4 ff ff 	mov    %rax,-0xbb8(%rbp)
   1ad7e:	48 8d 85 b0 ea ff ff 	lea    -0x1550(%rbp),%rax
   1ad85:	48 89 85 50 f4 ff ff 	mov    %rax,-0xbb0(%rbp)
   1ad8c:	48 8d 85 b0 ea ff ff 	lea    -0x1550(%rbp),%rax
   1ad93:	48 89 85 58 f4 ff ff 	mov    %rax,-0xba8(%rbp)
   1ad9a:	48 c7 85 60 f4 ff ff 	movq   $0x0,-0xba0(%rbp)
   1ada1:	00 00 00 00 
   1ada5:	48 c7 85 68 f4 ff ff 	movq   $0x0,-0xb98(%rbp)
   1adac:	00 00 00 00 
   1adb0:	48 8d 85 20 ed ff ff 	lea    -0x12e0(%rbp),%rax
   1adb7:	48 83 c0 14          	add    $0x14,%rax
   1adbb:	48 89 85 70 f4 ff ff 	mov    %rax,-0xb90(%rbp)
   1adc2:	48 8d 85 a0 ee ff ff 	lea    -0x1160(%rbp),%rax
   1adc9:	48 83 c0 78          	add    $0x78,%rax
   1adcd:	48 89 85 78 f4 ff ff 	mov    %rax,-0xb88(%rbp)
   1add4:	48 8d 85 a8 ea ff ff 	lea    -0x1558(%rbp),%rax
   1addb:	48 89 85 80 f4 ff ff 	mov    %rax,-0xb80(%rbp)
   1ade2:	48 c7 85 88 f4 ff ff 	movq   $0x0,-0xb78(%rbp)
   1ade9:	00 00 00 00 
   1aded:	48 8d 85 a0 ee ff ff 	lea    -0x1160(%rbp),%rax
   1adf4:	48 05 8c 00 00 00    	add    $0x8c,%rax
   1adfa:	48 89 85 90 f4 ff ff 	mov    %rax,-0xb70(%rbp)
   1ae01:	48 8d 85 20 ed ff ff 	lea    -0x12e0(%rbp),%rax
   1ae08:	48 83 c0 04          	add    $0x4,%rax
   1ae0c:	48 89 85 98 f4 ff ff 	mov    %rax,-0xb68(%rbp)
   1ae13:	48 8d 85 c4 ea ff ff 	lea    -0x153c(%rbp),%rax
   1ae1a:	48 89 85 a0 f4 ff ff 	mov    %rax,-0xb60(%rbp)
   1ae21:	48 8d 85 20 ed ff ff 	lea    -0x12e0(%rbp),%rax
   1ae28:	48 83 c0 14          	add    $0x14,%rax
   1ae2c:	48 89 85 a8 f4 ff ff 	mov    %rax,-0xb58(%rbp)
   1ae33:	48 8d 85 ac ea ff ff 	lea    -0x1554(%rbp),%rax
   1ae3a:	48 89 85 b0 f4 ff ff 	mov    %rax,-0xb50(%rbp)
   1ae41:	48 8d 85 a0 ee ff ff 	lea    -0x1160(%rbp),%rax
   1ae48:	48 05 8c 00 00 00    	add    $0x8c,%rax
   1ae4e:	48 89 85 b8 f4 ff ff 	mov    %rax,-0xb48(%rbp)
   1ae55:	48 8d 85 a0 ee ff ff 	lea    -0x1160(%rbp),%rax
   1ae5c:	48 83 c0 78          	add    $0x78,%rax
   1ae60:	48 89 85 c0 f4 ff ff 	mov    %rax,-0xb40(%rbp)
   1ae67:	48 8d 85 20 ed ff ff 	lea    -0x12e0(%rbp),%rax
   1ae6e:	48 83 c0 14          	add    $0x14,%rax
   1ae72:	48 89 85 c8 f4 ff ff 	mov    %rax,-0xb38(%rbp)
   1ae79:	48 8d 85 20 ed ff ff 	lea    -0x12e0(%rbp),%rax
   1ae80:	48 83 c0 0c          	add    $0xc,%rax
   1ae84:	48 89 85 d0 f4 ff ff 	mov    %rax,-0xb30(%rbp)
   1ae8b:	48 8d 85 20 ed ff ff 	lea    -0x12e0(%rbp),%rax
   1ae92:	48 83 c0 04          	add    $0x4,%rax
   1ae96:	48 89 85 d8 f4 ff ff 	mov    %rax,-0xb28(%rbp)
   1ae9d:	48 8d 85 20 ed ff ff 	lea    -0x12e0(%rbp),%rax
   1aea4:	48 83 c0 14          	add    $0x14,%rax
   1aea8:	48 89 85 e0 f4 ff ff 	mov    %rax,-0xb20(%rbp)
   1aeaf:	48 c7 85 e8 f4 ff ff 	movq   $0x0,-0xb18(%rbp)
   1aeb6:	00 00 00 00 
   1aeba:	48 8d 85 40 eb ff ff 	lea    -0x14c0(%rbp),%rax
   1aec1:	48 89 85 f0 f4 ff ff 	mov    %rax,-0xb10(%rbp)
   1aec8:	48 8d 85 a0 ee ff ff 	lea    -0x1160(%rbp),%rax
   1aecf:	48 83 c0 78          	add    $0x78,%rax
   1aed3:	48 89 85 f8 f4 ff ff 	mov    %rax,-0xb08(%rbp)
   1aeda:	48 c7 85 00 f5 ff ff 	movq   $0x0,-0xb00(%rbp)
   1aee1:	00 00 00 00 
   1aee5:	48 c7 85 08 f5 ff ff 	movq   $0x0,-0xaf8(%rbp)
   1aeec:	00 00 00 00 
   1aef0:	48 8d 85 bc ea ff ff 	lea    -0x1544(%rbp),%rax
   1aef7:	48 89 85 10 f5 ff ff 	mov    %rax,-0xaf0(%rbp)
   1aefe:	48 8d 85 b0 ea ff ff 	lea    -0x1550(%rbp),%rax
   1af05:	48 89 85 18 f5 ff ff 	mov    %rax,-0xae8(%rbp)
   1af0c:	48 8d 85 a0 ee ff ff 	lea    -0x1160(%rbp),%rax
   1af13:	48 05 8c 00 00 00    	add    $0x8c,%rax
   1af19:	48 89 85 20 f5 ff ff 	mov    %rax,-0xae0(%rbp)
   1af20:	48 8d 85 38 eb ff ff 	lea    -0x14c8(%rbp),%rax
   1af27:	48 89 85 28 f5 ff ff 	mov    %rax,-0xad8(%rbp)
   1af2e:	48 8d 85 a0 ee ff ff 	lea    -0x1160(%rbp),%rax
   1af35:	48 05 8c 00 00 00    	add    $0x8c,%rax
   1af3b:	48 89 85 30 f5 ff ff 	mov    %rax,-0xad0(%rbp)
   1af42:	48 8d 85 20 ed ff ff 	lea    -0x12e0(%rbp),%rax
   1af49:	48 83 c0 14          	add    $0x14,%rax
   1af4d:	48 89 85 38 f5 ff ff 	mov    %rax,-0xac8(%rbp)
   1af54:	48 8d 85 b4 ea ff ff 	lea    -0x154c(%rbp),%rax
   1af5b:	48 89 85 40 f5 ff ff 	mov    %rax,-0xac0(%rbp)
   1af62:	48 8d 85 ac ea ff ff 	lea    -0x1554(%rbp),%rax
   1af69:	48 89 85 48 f5 ff ff 	mov    %rax,-0xab8(%rbp)
   1af70:	48 8d 85 b8 ea ff ff 	lea    -0x1548(%rbp),%rax
   1af77:	48 89 85 50 f5 ff ff 	mov    %rax,-0xab0(%rbp)
   1af7e:	48 8d 85 a0 ee ff ff 	lea    -0x1160(%rbp),%rax
   1af85:	48 05 8c 00 00 00    	add    $0x8c,%rax
   1af8b:	48 89 85 58 f5 ff ff 	mov    %rax,-0xaa8(%rbp)
   1af92:	48 8d 85 c4 ea ff ff 	lea    -0x153c(%rbp),%rax
   1af99:	48 89 85 60 f5 ff ff 	mov    %rax,-0xaa0(%rbp)
   1afa0:	48 8d 85 b8 ea ff ff 	lea    -0x1548(%rbp),%rax
   1afa7:	48 89 85 68 f5 ff ff 	mov    %rax,-0xa98(%rbp)
   1afae:	48 8d 85 38 eb ff ff 	lea    -0x14c8(%rbp),%rax
   1afb5:	48 89 85 70 f5 ff ff 	mov    %rax,-0xa90(%rbp)
   1afbc:	48 8d 85 ac ea ff ff 	lea    -0x1554(%rbp),%rax
   1afc3:	48 89 85 78 f5 ff ff 	mov    %rax,-0xa88(%rbp)
   1afca:	48 8d 85 20 ed ff ff 	lea    -0x12e0(%rbp),%rax
   1afd1:	48 83 c0 14          	add    $0x14,%rax
   1afd5:	48 89 85 80 f5 ff ff 	mov    %rax,-0xa80(%rbp)
   1afdc:	48 8d 85 c0 ea ff ff 	lea    -0x1540(%rbp),%rax
   1afe3:	48 89 85 88 f5 ff ff 	mov    %rax,-0xa78(%rbp)
   1afea:	48 8d 85 38 eb ff ff 	lea    -0x14c8(%rbp),%rax
   1aff1:	48 89 85 90 f5 ff ff 	mov    %rax,-0xa70(%rbp)
   1aff8:	48 8d 85 20 ed ff ff 	lea    -0x12e0(%rbp),%rax
   1afff:	48 83 c0 0c          	add    $0xc,%rax
   1b003:	48 89 85 98 f5 ff ff 	mov    %rax,-0xa68(%rbp)
   1b00a:	48 8d 85 c4 ea ff ff 	lea    -0x153c(%rbp),%rax
   1b011:	48 89 85 a0 f5 ff ff 	mov    %rax,-0xa60(%rbp)
   1b018:	48 c7 85 a8 f5 ff ff 	movq   $0x0,-0xa58(%rbp)
   1b01f:	00 00 00 00 
   1b023:	48 8d 85 b8 ea ff ff 	lea    -0x1548(%rbp),%rax
   1b02a:	48 89 85 b0 f5 ff ff 	mov    %rax,-0xa50(%rbp)
   1b031:	48 8d 85 40 eb ff ff 	lea    -0x14c0(%rbp),%rax
   1b038:	48 89 85 b8 f5 ff ff 	mov    %rax,-0xa48(%rbp)
   1b03f:	48 8d 85 b4 ea ff ff 	lea    -0x154c(%rbp),%rax
   1b046:	48 89 85 c0 f5 ff ff 	mov    %rax,-0xa40(%rbp)
   1b04d:	48 8d 85 20 ed ff ff 	lea    -0x12e0(%rbp),%rax
   1b054:	48 83 c0 10          	add    $0x10,%rax
   1b058:	48 89 85 c8 f5 ff ff 	mov    %rax,-0xa38(%rbp)
   1b05f:	48 8d 85 a0 ee ff ff 	lea    -0x1160(%rbp),%rax
   1b066:	48 05 8c 00 00 00    	add    $0x8c,%rax
   1b06c:	48 89 85 d0 f5 ff ff 	mov    %rax,-0xa30(%rbp)
   1b073:	48 8d 85 bc ea ff ff 	lea    -0x1544(%rbp),%rax
   1b07a:	48 89 85 d8 f5 ff ff 	mov    %rax,-0xa28(%rbp)
   1b081:	48 8d 85 a0 ee ff ff 	lea    -0x1160(%rbp),%rax
   1b088:	48 05 8c 00 00 00    	add    $0x8c,%rax
   1b08e:	48 89 85 e0 f5 ff ff 	mov    %rax,-0xa20(%rbp)
   1b095:	48 8d 85 bc ea ff ff 	lea    -0x1544(%rbp),%rax
   1b09c:	48 89 85 e8 f5 ff ff 	mov    %rax,-0xa18(%rbp)
   1b0a3:	48 8d 85 bc ea ff ff 	lea    -0x1544(%rbp),%rax
   1b0aa:	48 89 85 f0 f5 ff ff 	mov    %rax,-0xa10(%rbp)
   1b0b1:	48 8d 85 a0 ee ff ff 	lea    -0x1160(%rbp),%rax
   1b0b8:	48 05 8c 00 00 00    	add    $0x8c,%rax
   1b0be:	48 89 85 f8 f5 ff ff 	mov    %rax,-0xa08(%rbp)
   1b0c5:	48 c7 85 00 f6 ff ff 	movq   $0x0,-0xa00(%rbp)
   1b0cc:	00 00 00 00 
   1b0d0:	48 8d 85 20 ed ff ff 	lea    -0x12e0(%rbp),%rax
   1b0d7:	48 83 c0 04          	add    $0x4,%rax
   1b0db:	48 89 85 08 f6 ff ff 	mov    %rax,-0x9f8(%rbp)
   1b0e2:	48 8d 85 40 eb ff ff 	lea    -0x14c0(%rbp),%rax
   1b0e9:	48 89 85 10 f6 ff ff 	mov    %rax,-0x9f0(%rbp)
   1b0f0:	48 8d 85 b8 ea ff ff 	lea    -0x1548(%rbp),%rax
   1b0f7:	48 89 85 18 f6 ff ff 	mov    %rax,-0x9e8(%rbp)
   1b0fe:	48 8d 85 20 ed ff ff 	lea    -0x12e0(%rbp),%rax
   1b105:	48 83 c0 14          	add    $0x14,%rax
   1b109:	48 89 85 20 f6 ff ff 	mov    %rax,-0x9e0(%rbp)
   1b110:	48 8d 85 c4 ea ff ff 	lea    -0x153c(%rbp),%rax
   1b117:	48 89 85 28 f6 ff ff 	mov    %rax,-0x9d8(%rbp)
   1b11e:	48 8d 85 20 ed ff ff 	lea    -0x12e0(%rbp),%rax
   1b125:	48 83 c0 0c          	add    $0xc,%rax
   1b129:	48 89 85 30 f6 ff ff 	mov    %rax,-0x9d0(%rbp)
   1b130:	48 8d 85 38 eb ff ff 	lea    -0x14c8(%rbp),%rax
   1b137:	48 89 85 38 f6 ff ff 	mov    %rax,-0x9c8(%rbp)
   1b13e:	48 8d 85 a0 ee ff ff 	lea    -0x1160(%rbp),%rax
   1b145:	48 83 c0 78          	add    $0x78,%rax
   1b149:	48 89 85 40 f6 ff ff 	mov    %rax,-0x9c0(%rbp)
   1b150:	48 c7 85 48 f6 ff ff 	movq   $0x0,-0x9b8(%rbp)
   1b157:	00 00 00 00 
   1b15b:	48 8d 85 ac ea ff ff 	lea    -0x1554(%rbp),%rax
   1b162:	48 89 85 50 f6 ff ff 	mov    %rax,-0x9b0(%rbp)
   1b169:	48 8d 85 38 eb ff ff 	lea    -0x14c8(%rbp),%rax
   1b170:	48 89 85 58 f6 ff ff 	mov    %rax,-0x9a8(%rbp)
   1b177:	48 8d 85 c4 ea ff ff 	lea    -0x153c(%rbp),%rax
   1b17e:	48 89 85 60 f6 ff ff 	mov    %rax,-0x9a0(%rbp)
   1b185:	48 8d 85 c4 ea ff ff 	lea    -0x153c(%rbp),%rax
   1b18c:	48 89 85 68 f6 ff ff 	mov    %rax,-0x998(%rbp)
   1b193:	48 8d 85 a0 ee ff ff 	lea    -0x1160(%rbp),%rax
   1b19a:	48 05 8c 00 00 00    	add    $0x8c,%rax
   1b1a0:	48 89 85 70 f6 ff ff 	mov    %rax,-0x990(%rbp)
   1b1a7:	48 8d 85 b8 ea ff ff 	lea    -0x1548(%rbp),%rax
   1b1ae:	48 89 85 78 f6 ff ff 	mov    %rax,-0x988(%rbp)
   1b1b5:	48 8d 85 a8 ea ff ff 	lea    -0x1558(%rbp),%rax
   1b1bc:	48 89 85 80 f6 ff ff 	mov    %rax,-0x980(%rbp)
   1b1c3:	48 8d 85 20 ed ff ff 	lea    -0x12e0(%rbp),%rax
   1b1ca:	48 83 c0 04          	add    $0x4,%rax
   1b1ce:	48 89 85 88 f6 ff ff 	mov    %rax,-0x978(%rbp)
   1b1d5:	48 8d 85 20 ed ff ff 	lea    -0x12e0(%rbp),%rax
   1b1dc:	48 83 c0 14          	add    $0x14,%rax
   1b1e0:	48 89 85 90 f6 ff ff 	mov    %rax,-0x970(%rbp)
   1b1e7:	48 8d 85 a0 ee ff ff 	lea    -0x1160(%rbp),%rax
   1b1ee:	48 05 8c 00 00 00    	add    $0x8c,%rax
   1b1f4:	48 89 85 98 f6 ff ff 	mov    %rax,-0x968(%rbp)
   1b1fb:	48 c7 85 a0 f6 ff ff 	movq   $0x0,-0x960(%rbp)
   1b202:	00 00 00 00 
   1b206:	48 8d 85 bc ea ff ff 	lea    -0x1544(%rbp),%rax
   1b20d:	48 89 85 a8 f6 ff ff 	mov    %rax,-0x958(%rbp)
   1b214:	48 8d 85 b0 ea ff ff 	lea    -0x1550(%rbp),%rax
   1b21b:	48 89 85 b0 f6 ff ff 	mov    %rax,-0x950(%rbp)
   1b222:	48 8d 85 bc ea ff ff 	lea    -0x1544(%rbp),%rax
   1b229:	48 89 85 b8 f6 ff ff 	mov    %rax,-0x948(%rbp)
   1b230:	48 8d 85 20 ed ff ff 	lea    -0x12e0(%rbp),%rax
   1b237:	48 83 c0 14          	add    $0x14,%rax
   1b23b:	48 89 85 c0 f6 ff ff 	mov    %rax,-0x940(%rbp)
   1b242:	48 8d 85 20 ed ff ff 	lea    -0x12e0(%rbp),%rax
   1b249:	48 83 c0 10          	add    $0x10,%rax
   1b24d:	48 89 85 c8 f6 ff ff 	mov    %rax,-0x938(%rbp)
   1b254:	48 8d 85 a0 ee ff ff 	lea    -0x1160(%rbp),%rax
   1b25b:	48 83 c0 78          	add    $0x78,%rax
   1b25f:	48 89 85 d0 f6 ff ff 	mov    %rax,-0x930(%rbp)
   1b266:	48 8d 85 40 eb ff ff 	lea    -0x14c0(%rbp),%rax
   1b26d:	48 89 85 d8 f6 ff ff 	mov    %rax,-0x928(%rbp)
   1b274:	48 8d 85 b0 ea ff ff 	lea    -0x1550(%rbp),%rax
   1b27b:	48 89 85 e0 f6 ff ff 	mov    %rax,-0x920(%rbp)
   1b282:	48 c7 85 e8 f6 ff ff 	movq   $0x0,-0x918(%rbp)
   1b289:	00 00 00 00 
   1b28d:	48 8d 85 20 ed ff ff 	lea    -0x12e0(%rbp),%rax
   1b294:	48 83 c0 04          	add    $0x4,%rax
   1b298:	48 89 85 f0 f6 ff ff 	mov    %rax,-0x910(%rbp)
   1b29f:	48 8d 85 20 ed ff ff 	lea    -0x12e0(%rbp),%rax
   1b2a6:	48 83 c0 0c          	add    $0xc,%rax
   1b2aa:	48 89 85 f8 f6 ff ff 	mov    %rax,-0x908(%rbp)
   1b2b1:	48 c7 85 00 f7 ff ff 	movq   $0x0,-0x900(%rbp)
   1b2b8:	00 00 00 00 
   1b2bc:	48 8d 85 c0 ea ff ff 	lea    -0x1540(%rbp),%rax
   1b2c3:	48 89 85 08 f7 ff ff 	mov    %rax,-0x8f8(%rbp)
   1b2ca:	48 8d 85 a0 ee ff ff 	lea    -0x1160(%rbp),%rax
   1b2d1:	48 05 8c 00 00 00    	add    $0x8c,%rax
   1b2d7:	48 89 85 10 f7 ff ff 	mov    %rax,-0x8f0(%rbp)
   1b2de:	48 8d 85 ac ea ff ff 	lea    -0x1554(%rbp),%rax
   1b2e5:	48 89 85 18 f7 ff ff 	mov    %rax,-0x8e8(%rbp)
   1b2ec:	48 c7 85 20 f7 ff ff 	movq   $0x0,-0x8e0(%rbp)
   1b2f3:	00 00 00 00 
   1b2f7:	48 8d 85 b8 ea ff ff 	lea    -0x1548(%rbp),%rax
   1b2fe:	48 89 85 28 f7 ff ff 	mov    %rax,-0x8d8(%rbp)
   1b305:	48 8d 85 20 ed ff ff 	lea    -0x12e0(%rbp),%rax
   1b30c:	48 83 c0 04          	add    $0x4,%rax
   1b310:	48 89 85 30 f7 ff ff 	mov    %rax,-0x8d0(%rbp)
   1b317:	48 8d 85 a0 ee ff ff 	lea    -0x1160(%rbp),%rax
   1b31e:	48 05 8c 00 00 00    	add    $0x8c,%rax
   1b324:	48 89 85 38 f7 ff ff 	mov    %rax,-0x8c8(%rbp)
   1b32b:	48 8d 85 b0 ea ff ff 	lea    -0x1550(%rbp),%rax
   1b332:	48 89 85 40 f7 ff ff 	mov    %rax,-0x8c0(%rbp)
   1b339:	48 8d 85 ac ea ff ff 	lea    -0x1554(%rbp),%rax
   1b340:	48 89 85 48 f7 ff ff 	mov    %rax,-0x8b8(%rbp)
   1b347:	48 8d 85 a0 ee ff ff 	lea    -0x1160(%rbp),%rax
   1b34e:	48 83 c0 78          	add    $0x78,%rax
   1b352:	48 89 85 50 f7 ff ff 	mov    %rax,-0x8b0(%rbp)
   1b359:	48 8d 85 20 ed ff ff 	lea    -0x12e0(%rbp),%rax
   1b360:	48 83 c0 14          	add    $0x14,%rax
   1b364:	48 89 85 58 f7 ff ff 	mov    %rax,-0x8a8(%rbp)
   1b36b:	48 8d 85 20 ed ff ff 	lea    -0x12e0(%rbp),%rax
   1b372:	48 83 c0 14          	add    $0x14,%rax
   1b376:	48 89 85 60 f7 ff ff 	mov    %rax,-0x8a0(%rbp)
   1b37d:	48 8d 85 38 eb ff ff 	lea    -0x14c8(%rbp),%rax
   1b384:	48 89 85 68 f7 ff ff 	mov    %rax,-0x898(%rbp)
   1b38b:	48 8d 85 b0 ea ff ff 	lea    -0x1550(%rbp),%rax
   1b392:	48 89 85 70 f7 ff ff 	mov    %rax,-0x890(%rbp)
   1b399:	48 8d 85 b0 ea ff ff 	lea    -0x1550(%rbp),%rax
   1b3a0:	48 89 85 78 f7 ff ff 	mov    %rax,-0x888(%rbp)
   1b3a7:	48 c7 85 80 f7 ff ff 	movq   $0x0,-0x880(%rbp)
   1b3ae:	00 00 00 00 
   1b3b2:	48 c7 85 88 f7 ff ff 	movq   $0x0,-0x878(%rbp)
   1b3b9:	00 00 00 00 
   1b3bd:	48 8d 85 20 ed ff ff 	lea    -0x12e0(%rbp),%rax
   1b3c4:	48 83 c0 14          	add    $0x14,%rax
   1b3c8:	48 89 85 90 f7 ff ff 	mov    %rax,-0x870(%rbp)
   1b3cf:	48 8d 85 a0 ee ff ff 	lea    -0x1160(%rbp),%rax
   1b3d6:	48 83 c0 78          	add    $0x78,%rax
   1b3da:	48 89 85 98 f7 ff ff 	mov    %rax,-0x868(%rbp)
   1b3e1:	48 8d 85 a8 ea ff ff 	lea    -0x1558(%rbp),%rax
   1b3e8:	48 89 85 a0 f7 ff ff 	mov    %rax,-0x860(%rbp)
   1b3ef:	48 c7 85 a8 f7 ff ff 	movq   $0x0,-0x858(%rbp)
   1b3f6:	00 00 00 00 
   1b3fa:	48 8d 85 a0 ee ff ff 	lea    -0x1160(%rbp),%rax
   1b401:	48 05 8c 00 00 00    	add    $0x8c,%rax
   1b407:	48 89 85 b0 f7 ff ff 	mov    %rax,-0x850(%rbp)
   1b40e:	48 8d 85 20 ed ff ff 	lea    -0x12e0(%rbp),%rax
   1b415:	48 83 c0 04          	add    $0x4,%rax
   1b419:	48 89 85 b8 f7 ff ff 	mov    %rax,-0x848(%rbp)
   1b420:	48 8d 85 c4 ea ff ff 	lea    -0x153c(%rbp),%rax
   1b427:	48 89 85 c0 f7 ff ff 	mov    %rax,-0x840(%rbp)
   1b42e:	48 8d 85 20 ed ff ff 	lea    -0x12e0(%rbp),%rax
   1b435:	48 83 c0 14          	add    $0x14,%rax
   1b439:	48 89 85 c8 f7 ff ff 	mov    %rax,-0x838(%rbp)
   1b440:	48 8d 85 ac ea ff ff 	lea    -0x1554(%rbp),%rax
   1b447:	48 89 85 d0 f7 ff ff 	mov    %rax,-0x830(%rbp)
   1b44e:	48 8d 85 a0 ee ff ff 	lea    -0x1160(%rbp),%rax
   1b455:	48 05 8c 00 00 00    	add    $0x8c,%rax
   1b45b:	48 89 85 d8 f7 ff ff 	mov    %rax,-0x828(%rbp)
   1b462:	48 8d 85 a0 ee ff ff 	lea    -0x1160(%rbp),%rax
   1b469:	48 83 c0 78          	add    $0x78,%rax
   1b46d:	48 89 85 e0 f7 ff ff 	mov    %rax,-0x820(%rbp)
   1b474:	48 8d 85 20 ed ff ff 	lea    -0x12e0(%rbp),%rax
   1b47b:	48 83 c0 14          	add    $0x14,%rax
   1b47f:	48 89 85 e8 f7 ff ff 	mov    %rax,-0x818(%rbp)
   1b486:	48 8d 85 20 ed ff ff 	lea    -0x12e0(%rbp),%rax
   1b48d:	48 83 c0 0c          	add    $0xc,%rax
   1b491:	48 89 85 f0 f7 ff ff 	mov    %rax,-0x810(%rbp)
   1b498:	48 8d 85 20 ed ff ff 	lea    -0x12e0(%rbp),%rax
   1b49f:	48 83 c0 04          	add    $0x4,%rax
   1b4a3:	48 89 85 f8 f7 ff ff 	mov    %rax,-0x808(%rbp)
   1b4aa:	48 8d 85 20 ed ff ff 	lea    -0x12e0(%rbp),%rax
   1b4b1:	48 83 c0 14          	add    $0x14,%rax
   1b4b5:	48 89 85 00 f8 ff ff 	mov    %rax,-0x800(%rbp)
   1b4bc:	48 c7 85 08 f8 ff ff 	movq   $0x0,-0x7f8(%rbp)
   1b4c3:	00 00 00 00 
   1b4c7:	48 8d 85 40 eb ff ff 	lea    -0x14c0(%rbp),%rax
   1b4ce:	48 89 85 10 f8 ff ff 	mov    %rax,-0x7f0(%rbp)
   1b4d5:	48 8d 85 a0 ee ff ff 	lea    -0x1160(%rbp),%rax
   1b4dc:	48 83 c0 78          	add    $0x78,%rax
   1b4e0:	48 89 85 18 f8 ff ff 	mov    %rax,-0x7e8(%rbp)
   1b4e7:	48 c7 85 20 f8 ff ff 	movq   $0x0,-0x7e0(%rbp)
   1b4ee:	00 00 00 00 
   1b4f2:	48 8d 85 20 ed ff ff 	lea    -0x12e0(%rbp),%rax
   1b4f9:	48 83 c0 14          	add    $0x14,%rax
   1b4fd:	48 89 85 28 f8 ff ff 	mov    %rax,-0x7d8(%rbp)
   1b504:	48 8d 85 a0 ee ff ff 	lea    -0x1160(%rbp),%rax
   1b50b:	48 05 8c 00 00 00    	add    $0x8c,%rax
   1b511:	48 89 85 30 f8 ff ff 	mov    %rax,-0x7d0(%rbp)
   1b518:	48 8d 85 38 eb ff ff 	lea    -0x14c8(%rbp),%rax
   1b51f:	48 89 85 38 f8 ff ff 	mov    %rax,-0x7c8(%rbp)
   1b526:	48 8d 85 38 eb ff ff 	lea    -0x14c8(%rbp),%rax
   1b52d:	48 89 85 40 f8 ff ff 	mov    %rax,-0x7c0(%rbp)
   1b534:	48 c7 85 48 f8 ff ff 	movq   $0x0,-0x7b8(%rbp)
   1b53b:	00 00 00 00 
   1b53f:	48 8d 85 38 eb ff ff 	lea    -0x14c8(%rbp),%rax
   1b546:	48 89 85 50 f8 ff ff 	mov    %rax,-0x7b0(%rbp)
   1b54d:	48 c7 85 58 f8 ff ff 	movq   $0x0,-0x7a8(%rbp)
   1b554:	00 00 00 00 
   1b558:	48 8d 85 40 eb ff ff 	lea    -0x14c0(%rbp),%rax
   1b55f:	48 89 85 60 f8 ff ff 	mov    %rax,-0x7a0(%rbp)
   1b566:	48 8d 85 a8 ea ff ff 	lea    -0x1558(%rbp),%rax
   1b56d:	48 89 85 68 f8 ff ff 	mov    %rax,-0x798(%rbp)
   1b574:	48 8d 85 c4 ea ff ff 	lea    -0x153c(%rbp),%rax
   1b57b:	48 89 85 70 f8 ff ff 	mov    %rax,-0x790(%rbp)
   1b582:	48 8d 85 38 eb ff ff 	lea    -0x14c8(%rbp),%rax
   1b589:	48 89 85 78 f8 ff ff 	mov    %rax,-0x788(%rbp)
   1b590:	48 8d 85 ac ea ff ff 	lea    -0x1554(%rbp),%rax
   1b597:	48 89 85 80 f8 ff ff 	mov    %rax,-0x780(%rbp)
   1b59e:	48 8d 85 c4 ea ff ff 	lea    -0x153c(%rbp),%rax
   1b5a5:	48 89 85 88 f8 ff ff 	mov    %rax,-0x778(%rbp)
   1b5ac:	48 8d 85 20 ed ff ff 	lea    -0x12e0(%rbp),%rax
   1b5b3:	48 83 c0 10          	add    $0x10,%rax
   1b5b7:	48 89 85 90 f8 ff ff 	mov    %rax,-0x770(%rbp)
   1b5be:	48 8d 85 a8 ea ff ff 	lea    -0x1558(%rbp),%rax
   1b5c5:	48 89 85 98 f8 ff ff 	mov    %rax,-0x768(%rbp)
   1b5cc:	48 c7 85 a0 f8 ff ff 	movq   $0x0,-0x760(%rbp)
   1b5d3:	00 00 00 00 
   1b5d7:	48 8d 85 a0 ee ff ff 	lea    -0x1160(%rbp),%rax
   1b5de:	48 83 c0 78          	add    $0x78,%rax
   1b5e2:	48 89 85 a8 f8 ff ff 	mov    %rax,-0x758(%rbp)
   1b5e9:	48 8d 85 20 ed ff ff 	lea    -0x12e0(%rbp),%rax
   1b5f0:	48 83 c0 10          	add    $0x10,%rax
   1b5f4:	48 89 85 b0 f8 ff ff 	mov    %rax,-0x750(%rbp)
   1b5fb:	48 c7 85 b8 f8 ff ff 	movq   $0x0,-0x748(%rbp)
   1b602:	00 00 00 00 
   1b606:	83 85 c8 ea ff ff 01 	addl   $0x1,-0x1538(%rbp)
   1b60d:	0f b7 05 8a 8a 00 00 	movzwl 0x8a8a(%rip),%eax        # 2409e <g_116>
   1b614:	83 c0 01             	add    $0x1,%eax
   1b617:	66 89 05 80 8a 00 00 	mov    %ax,0x8a80(%rip)        # 2409e <g_116>
   1b61e:	0f b7 05 79 8a 00 00 	movzwl 0x8a79(%rip),%eax        # 2409e <g_116>
   1b625:	66 83 f8 09          	cmp    $0x9,%ax
   1b629:	0f 86 da ed ff ff    	jbe    1a409 <func_52+0x1743>
   1b62f:	eb 01                	jmp    1b632 <func_52+0x296c>
   1b631:	90                   	nop
   1b632:	48 8b 05 7f 8b 00 00 	mov    0x8b7f(%rip),%rax        # 241b8 <g_300>
   1b639:	48 83 c0 01          	add    $0x1,%rax
   1b63d:	48 89 05 74 8b 00 00 	mov    %rax,0x8b74(%rip)        # 241b8 <g_300>
   1b644:	48 8b 05 6d 8b 00 00 	mov    0x8b6d(%rip),%rax        # 241b8 <g_300>
   1b64b:	48 85 c0             	test   %rax,%rax
   1b64e:	0f 84 97 ec ff ff    	je     1a2eb <func_52+0x1625>
   1b654:	8b 85 8c ea ff ff    	mov    -0x1574(%rbp),%eax
   1b65a:	83 e0 fe             	and    $0xfffffffe,%eax
   1b65d:	89 85 8c ea ff ff    	mov    %eax,-0x1574(%rbp)
   1b663:	8b 05 6b 8b 00 00    	mov    0x8b6b(%rip),%eax        # 241d4 <g_394>
   1b669:	83 c0 01             	add    $0x1,%eax
   1b66c:	89 05 62 8b 00 00    	mov    %eax,0x8b62(%rip)        # 241d4 <g_394>
   1b672:	8b 05 5c 8b 00 00    	mov    0x8b5c(%rip),%eax        # 241d4 <g_394>
   1b678:	83 f8 09             	cmp    $0x9,%eax
   1b67b:	0f 8e d8 e8 ff ff    	jle    19f59 <func_52+0x1293>
   1b681:	c6 05 c8 8a 00 00 01 	movb   $0x1,0x8ac8(%rip)        # 24150 <g_184>
   1b688:	e9 84 08 00 00       	jmpq   1bf11 <func_52+0x324b>
   1b68d:	48 8d 05 0a 8a 00 00 	lea    0x8a0a(%rip),%rax        # 2409e <g_116>
   1b694:	48 89 85 30 eb ff ff 	mov    %rax,-0x14d0(%rbp)
   1b69b:	48 8d 85 30 eb ff ff 	lea    -0x14d0(%rbp),%rax
   1b6a2:	48 89 85 38 eb ff ff 	mov    %rax,-0x14c8(%rbp)
   1b6a9:	48 8d 05 f0 89 00 00 	lea    0x89f0(%rip),%rax        # 240a0 <g_124>
   1b6b0:	48 89 85 40 eb ff ff 	mov    %rax,-0x14c0(%rbp)
   1b6b7:	48 8d 85 40 eb ff ff 	lea    -0x14c0(%rbp),%rax
   1b6be:	48 89 85 68 eb ff ff 	mov    %rax,-0x1498(%rbp)
   1b6c5:	48 8d 05 ec 8a 00 00 	lea    0x8aec(%rip),%rax        # 241b8 <g_300>
   1b6cc:	48 89 85 70 eb ff ff 	mov    %rax,-0x1490(%rbp)
   1b6d3:	c7 85 04 eb ff ff 06 	movl   $0x6,-0x14fc(%rbp)
   1b6da:	00 00 00 
   1b6dd:	48 8d 05 b4 8a 00 00 	lea    0x8ab4(%rip),%rax        # 24198 <g_214>
   1b6e4:	48 89 85 78 eb ff ff 	mov    %rax,-0x1488(%rbp)
   1b6eb:	48 8d 85 a0 f0 ff ff 	lea    -0xf60(%rbp),%rax
   1b6f2:	48 8d 15 07 a4 00 00 	lea    0xa407(%rip),%rdx        # 25b00 <g_3583+0x1870>
   1b6f9:	b9 36 00 00 00       	mov    $0x36,%ecx
   1b6fe:	48 89 c7             	mov    %rax,%rdi
   1b701:	48 89 d6             	mov    %rdx,%rsi
   1b704:	f3 48 a5             	rep movsq %ds:(%rsi),%es:(%rdi)
   1b707:	48 8d 85 a0 f0 ff ff 	lea    -0xf60(%rbp),%rax
   1b70e:	48 05 b8 00 00 00    	add    $0xb8,%rax
   1b714:	48 89 85 80 eb ff ff 	mov    %rax,-0x1480(%rbp)
   1b71b:	48 8d 05 76 89 00 00 	lea    0x8976(%rip),%rax        # 24098 <g_89>
   1b722:	48 89 85 88 eb ff ff 	mov    %rax,-0x1478(%rbp)
   1b729:	66 c7 85 a0 ea ff ff 	movw   $0x73ea,-0x1560(%rbp)
   1b730:	ea 73 
   1b732:	c7 85 08 eb ff ff 01 	movl   $0x1,-0x14f8(%rbp)
   1b739:	00 00 00 
   1b73c:	48 8d 05 0e 8a 00 00 	lea    0x8a0e(%rip),%rax        # 24151 <g_188>
   1b743:	48 89 85 f0 ef ff ff 	mov    %rax,-0x1010(%rbp)
   1b74a:	48 8d 05 00 8a 00 00 	lea    0x8a00(%rip),%rax        # 24151 <g_188>
   1b751:	48 89 85 f8 ef ff ff 	mov    %rax,-0x1008(%rbp)
   1b758:	48 8d 05 f2 89 00 00 	lea    0x89f2(%rip),%rax        # 24151 <g_188>
   1b75f:	48 89 85 00 f0 ff ff 	mov    %rax,-0x1000(%rbp)
   1b766:	48 8d 05 e4 89 00 00 	lea    0x89e4(%rip),%rax        # 24151 <g_188>
   1b76d:	48 89 85 08 f0 ff ff 	mov    %rax,-0xff8(%rbp)
   1b774:	48 8d 05 d6 89 00 00 	lea    0x89d6(%rip),%rax        # 24151 <g_188>
   1b77b:	48 89 85 10 f0 ff ff 	mov    %rax,-0xff0(%rbp)
   1b782:	48 8d 05 c8 89 00 00 	lea    0x89c8(%rip),%rax        # 24151 <g_188>
   1b789:	48 89 85 18 f0 ff ff 	mov    %rax,-0xfe8(%rbp)
   1b790:	48 8d 05 ba 89 00 00 	lea    0x89ba(%rip),%rax        # 24151 <g_188>
   1b797:	48 89 85 20 f0 ff ff 	mov    %rax,-0xfe0(%rbp)
   1b79e:	48 8d 05 ac 89 00 00 	lea    0x89ac(%rip),%rax        # 24151 <g_188>
   1b7a5:	48 89 85 28 f0 ff ff 	mov    %rax,-0xfd8(%rbp)
   1b7ac:	48 8d 05 9e 89 00 00 	lea    0x899e(%rip),%rax        # 24151 <g_188>
   1b7b3:	48 89 85 30 f0 ff ff 	mov    %rax,-0xfd0(%rbp)
   1b7ba:	48 8d 05 4f 8a 00 00 	lea    0x8a4f(%rip),%rax        # 24210 <g_1297+0x10>
   1b7c1:	48 89 85 90 eb ff ff 	mov    %rax,-0x1470(%rbp)
   1b7c8:	c6 85 9a ea ff ff 01 	movb   $0x1,-0x1566(%rbp)
   1b7cf:	c7 85 e0 ea ff ff 00 	movl   $0x0,-0x1520(%rbp)
   1b7d6:	00 00 00 
   1b7d9:	eb 1a                	jmp    1b7f5 <func_52+0x2b2f>
   1b7db:	8b 85 e0 ea ff ff    	mov    -0x1520(%rbp),%eax
   1b7e1:	48 98                	cltq   
   1b7e3:	c7 84 85 50 ee ff ff 	movl   $0xfffffffe,-0x11b0(%rbp,%rax,4)
   1b7ea:	fe ff ff ff 
   1b7ee:	83 85 e0 ea ff ff 01 	addl   $0x1,-0x1520(%rbp)
   1b7f5:	83 bd e0 ea ff ff 01 	cmpl   $0x1,-0x1520(%rbp)
   1b7fc:	7e dd                	jle    1b7db <func_52+0x2b15>
   1b7fe:	8b 05 d4 89 00 00    	mov    0x89d4(%rip),%eax        # 241d8 <g_400>
   1b804:	48 63 d8             	movslq %eax,%rbx
   1b807:	0f b6 05 7b 89 00 00 	movzbl 0x897b(%rip),%eax        # 24189 <g_190+0x29>
   1b80e:	44 0f be e0          	movsbl %al,%r12d
   1b812:	44 0f b6 ad 88 ea ff 	movzbl -0x1578(%rbp),%r13d
   1b819:	ff 
   1b81a:	48 8b 85 70 eb ff ff 	mov    -0x1490(%rbp),%rax
   1b821:	48 8b 00             	mov    (%rax),%rax
   1b824:	48 8d 50 ff          	lea    -0x1(%rax),%rdx
   1b828:	48 8b 85 70 eb ff ff 	mov    -0x1490(%rbp),%rax
   1b82f:	48 89 10             	mov    %rdx,(%rax)
   1b832:	48 8b 05 9f ab 00 00 	mov    0xab9f(%rip),%rax        # 263d8 <g_1122>
   1b839:	48 8b 00             	mov    (%rax),%rax
   1b83c:	48 8b 00             	mov    (%rax),%rax
   1b83f:	0f b7 00             	movzwl (%rax),%eax
   1b842:	98                   	cwtl   
   1b843:	89 c6                	mov    %eax,%esi
   1b845:	bf fd ff 00 00       	mov    $0xfffd,%edi
   1b84a:	e8 6f 05 ff ff       	callq  bdbe <safe_lshift_func_uint16_t_u_s>
   1b84f:	8b 85 04 eb ff ff    	mov    -0x14fc(%rbp),%eax
   1b855:	89 05 39 88 00 00    	mov    %eax,0x8839(%rip)        # 24094 <g_44>
   1b85b:	0f b6 85 88 ea ff ff 	movzbl -0x1578(%rbp),%eax
   1b862:	0f be c0             	movsbl %al,%eax
   1b865:	44 89 ee             	mov    %r13d,%esi
   1b868:	89 c7                	mov    %eax,%edi
   1b86a:	e8 7f fa fe ff       	callq  b2ee <safe_lshift_func_int8_t_s_u>
   1b86f:	83 f0 e8             	xor    $0xffffffe8,%eax
   1b872:	0f b6 c0             	movzbl %al,%eax
   1b875:	44 89 e6             	mov    %r12d,%esi
   1b878:	89 c7                	mov    %eax,%edi
   1b87a:	e8 0e 04 ff ff       	callq  bc8d <safe_rshift_func_uint8_t_u_s>
   1b87f:	48 8b 05 42 ab 00 00 	mov    0xab42(%rip),%rax        # 263c8 <g_1124>
   1b886:	0f b7 00             	movzwl (%rax),%eax
   1b889:	66 85 c0             	test   %ax,%ax
   1b88c:	75 0b                	jne    1b899 <func_52+0x2bd3>
   1b88e:	0f b6 05 07 88 00 00 	movzbl 0x8807(%rip),%eax        # 2409c <g_113>
   1b895:	84 c0                	test   %al,%al
   1b897:	74 07                	je     1b8a0 <func_52+0x2bda>
   1b899:	ba 01 00 00 00       	mov    $0x1,%edx
   1b89e:	eb 05                	jmp    1b8a5 <func_52+0x2bdf>
   1b8a0:	ba 00 00 00 00       	mov    $0x0,%edx
   1b8a5:	48 8b 05 14 ab 00 00 	mov    0xab14(%rip),%rax        # 263c0 <g_1058>
   1b8ac:	8b 00                	mov    (%rax),%eax
   1b8ae:	39 c2                	cmp    %eax,%edx
   1b8b0:	0f 9d c0             	setge  %al
   1b8b3:	0f b6 d0             	movzbl %al,%edx
   1b8b6:	48 8b 85 38 eb ff ff 	mov    -0x14c8(%rbp),%rax
   1b8bd:	48 8d 8d 9c ea ff ff 	lea    -0x1564(%rbp),%rcx
   1b8c4:	48 89 08             	mov    %rcx,(%rax)
   1b8c7:	48 8b 30             	mov    (%rax),%rsi
   1b8ca:	48 8b 85 68 eb ff ff 	mov    -0x1498(%rbp),%rax
   1b8d1:	48 8d 8d 9c ea ff ff 	lea    -0x1564(%rbp),%rcx
   1b8d8:	48 89 08             	mov    %rcx,(%rax)
   1b8db:	48 8b 85 68 eb ff ff 	mov    -0x1498(%rbp),%rax
   1b8e2:	48 8b 00             	mov    (%rax),%rax
   1b8e5:	48 39 c6             	cmp    %rax,%rsi
   1b8e8:	0f 95 c0             	setne  %al
   1b8eb:	0f b6 c0             	movzbl %al,%eax
   1b8ee:	89 d6                	mov    %edx,%esi
   1b8f0:	89 c7                	mov    %eax,%edi
   1b8f2:	e8 d9 05 ff ff       	callq  bed0 <safe_sub_func_uint32_t_u_u>
   1b8f7:	48 8b 05 da aa 00 00 	mov    0xaada(%rip),%rax        # 263d8 <g_1122>
   1b8fe:	48 8b 00             	mov    (%rax),%rax
   1b901:	48 8b 00             	mov    (%rax),%rax
   1b904:	0f b7 00             	movzwl (%rax),%eax
   1b907:	0f bf d0             	movswl %ax,%edx
   1b90a:	0f b6 85 88 ea ff ff 	movzbl -0x1578(%rbp),%eax
   1b911:	31 c2                	xor    %eax,%edx
   1b913:	48 8b 05 a6 aa 00 00 	mov    0xaaa6(%rip),%rax        # 263c0 <g_1058>
   1b91a:	8b 00                	mov    (%rax),%eax
   1b91c:	39 c2                	cmp    %eax,%edx
   1b91e:	0f 9c c0             	setl   %al
   1b921:	0f b6 c0             	movzbl %al,%eax
   1b924:	8b 95 04 eb ff ff    	mov    -0x14fc(%rbp),%edx
   1b92a:	89 d6                	mov    %edx,%esi
   1b92c:	89 c7                	mov    %eax,%edi
   1b92e:	e8 99 fd fe ff       	callq  b6cc <safe_mod_func_int32_t_s_s>
   1b933:	48 98                	cltq   
   1b935:	48 89 de             	mov    %rbx,%rsi
   1b938:	48 89 c7             	mov    %rax,%rdi
   1b93b:	e8 b7 00 ff ff       	callq  b9f7 <safe_div_func_int64_t_s_s>
   1b940:	98                   	cwtl   
   1b941:	89 c7                	mov    %eax,%edi
   1b943:	e8 55 fa fe ff       	callq  b39d <safe_unary_minus_func_int16_t_s>
   1b948:	0f b7 d0             	movzwl %ax,%edx
   1b94b:	0f b6 8d 88 ea ff ff 	movzbl -0x1578(%rbp),%ecx
   1b952:	0f b6 05 30 88 00 00 	movzbl 0x8830(%rip),%eax        # 24189 <g_190+0x29>
   1b959:	48 0f be f0          	movsbq %al,%rsi
   1b95d:	48 8b 05 14 87 00 00 	mov    0x8714(%rip),%rax        # 24078 <g_21+0x38>
   1b964:	48 39 c6             	cmp    %rax,%rsi
   1b967:	0f 96 c0             	setbe  %al
   1b96a:	0f b6 c0             	movzbl %al,%eax
   1b96d:	39 c1                	cmp    %eax,%ecx
   1b96f:	0f 9e c0             	setle  %al
   1b972:	0f b6 c0             	movzbl %al,%eax
   1b975:	89 d6                	mov    %edx,%esi
   1b977:	89 c7                	mov    %eax,%edi
   1b979:	e8 81 03 ff ff       	callq  bcff <safe_add_func_uint16_t_u_u>
   1b97e:	0f b7 d0             	movzwl %ax,%edx
   1b981:	48 8b 05 30 aa 00 00 	mov    0xaa30(%rip),%rax        # 263b8 <g_965>
   1b988:	48 8b 00             	mov    (%rax),%rax
   1b98b:	48 23 85 60 eb ff ff 	and    -0x14a0(%rbp),%rax
   1b992:	48 89 c1             	mov    %rax,%rcx
   1b995:	48 8b 05 1c aa 00 00 	mov    0xaa1c(%rip),%rax        # 263b8 <g_965>
   1b99c:	48 89 08             	mov    %rcx,(%rax)
   1b99f:	48 8b 00             	mov    (%rax),%rax
   1b9a2:	48 89 d6             	mov    %rdx,%rsi
   1b9a5:	48 89 c7             	mov    %rax,%rdi
   1b9a8:	e8 94 fe fe ff       	callq  b841 <safe_add_func_int64_t_s_s>
   1b9ad:	48 c7 85 98 eb ff ff 	movq   $0x0,-0x1468(%rbp)
   1b9b4:	00 00 00 00 
   1b9b8:	c7 85 e4 ea ff ff 00 	movl   $0x0,-0x151c(%rbp)
   1b9bf:	00 00 00 
   1b9c2:	eb 25                	jmp    1b9e9 <func_52+0x2d23>
   1b9c4:	8b 85 e4 ea ff ff    	mov    -0x151c(%rbp),%eax
   1b9ca:	48 98                	cltq   
   1b9cc:	48 8d 95 c0 f8 ff ff 	lea    -0x740(%rbp),%rdx
   1b9d3:	48 81 c2 d0 03 00 00 	add    $0x3d0,%rdx
   1b9da:	48 89 94 c5 c0 f3 ff 	mov    %rdx,-0xc40(%rbp,%rax,8)
   1b9e1:	ff 
   1b9e2:	83 85 e4 ea ff ff 01 	addl   $0x1,-0x151c(%rbp)
   1b9e9:	83 bd e4 ea ff ff 01 	cmpl   $0x1,-0x151c(%rbp)
   1b9f0:	7e d2                	jle    1b9c4 <func_52+0x2cfe>
   1b9f2:	48 8d 85 8c ea ff ff 	lea    -0x1574(%rbp),%rax
   1b9f9:	48 89 85 90 fc ff ff 	mov    %rax,-0x370(%rbp)
   1ba00:	c6 05 4a 87 00 00 e8 	movb   $0xe8,0x874a(%rip)        # 24151 <g_188>
   1ba07:	e9 eb 01 00 00       	jmpq   1bbf7 <func_52+0x2f31>
   1ba0c:	48 8d 05 d9 87 00 00 	lea    0x87d9(%rip),%rax        # 241ec <g_539>
   1ba13:	48 89 85 48 eb ff ff 	mov    %rax,-0x14b8(%rbp)
   1ba1a:	48 8d 85 48 eb ff ff 	lea    -0x14b8(%rbp),%rax
   1ba21:	48 89 85 a0 eb ff ff 	mov    %rax,-0x1460(%rbp)
   1ba28:	48 8d 85 c0 f3 ff ff 	lea    -0xc40(%rbp),%rax
   1ba2f:	48 8d 15 ea 4d 00 00 	lea    0x4dea(%rip),%rdx        # 20820 <g_2990+0x17a8>
   1ba36:	b9 69 00 00 00       	mov    $0x69,%ecx
   1ba3b:	48 89 c7             	mov    %rax,%rdi
   1ba3e:	48 89 d6             	mov    %rdx,%rsi
   1ba41:	f3 48 a5             	rep movsq %ds:(%rsi),%es:(%rdi)
   1ba44:	c7 85 f0 ea ff ff 00 	movl   $0x0,-0x1510(%rbp)
   1ba4b:	00 00 00 
   1ba4e:	e9 87 01 00 00       	jmpq   1bbda <func_52+0x2f14>
   1ba53:	c7 85 40 ef ff ff 85 	movl   $0x85f7ff85,-0x10c0(%rbp)
   1ba5a:	ff f7 85 
   1ba5d:	c7 85 44 ef ff ff fc 	movl   $0xffff05fc,-0x10bc(%rbp)
   1ba64:	05 ff ff 
   1ba67:	c7 85 48 ef ff ff 05 	movl   $0xffffe205,-0x10b8(%rbp)
   1ba6e:	e2 ff ff 
   1ba71:	c7 85 4c ef ff ff fc 	movl   $0xf7fcfc,-0x10b4(%rbp)
   1ba78:	fc f7 00 
   1ba7b:	c7 85 50 ef ff ff 85 	movl   $0xff0e9185,-0x10b0(%rbp)
   1ba82:	91 0e ff 
   1ba85:	c7 85 54 ef ff ff 0e 	movl   $0xe05ff0e,-0x10ac(%rbp)
   1ba8c:	ff 05 0e 
   1ba8f:	c7 85 58 ef ff ff fc 	movl   $0xff01fffc,-0x10a8(%rbp)
   1ba96:	ff 01 ff 
   1ba99:	c7 85 5c ef ff ff ff 	movl   $0xff91ff,-0x10a4(%rbp)
   1baa0:	91 ff 00 
   1baa3:	0f b6 85 41 ef ff ff 	movzbl -0x10bf(%rbp),%eax
   1baaa:	84 c0                	test   %al,%al
   1baac:	74 45                	je     1baf3 <func_52+0x2e2d>
   1baae:	66 c7 05 e9 85 00 00 	movw   $0x5,0x85e9(%rip)        # 240a0 <g_124>
   1bab5:	05 00 
   1bab7:	eb 2b                	jmp    1bae4 <func_52+0x2e1e>
   1bab9:	48 8b 05 00 a9 00 00 	mov    0xa900(%rip),%rax        # 263c0 <g_1058>
   1bac0:	c7 00 1d ea 8f c2    	movl   $0xc28fea1d,(%rax)
   1bac6:	0f b7 05 d3 85 00 00 	movzwl 0x85d3(%rip),%eax        # 240a0 <g_124>
   1bacd:	0f b7 c0             	movzwl %ax,%eax
   1bad0:	be 03 00 00 00       	mov    $0x3,%esi
   1bad5:	48 89 c7             	mov    %rax,%rdi
   1bad8:	e8 64 fd fe ff       	callq  b841 <safe_add_func_int64_t_s_s>
   1badd:	66 89 05 bc 85 00 00 	mov    %ax,0x85bc(%rip)        # 240a0 <g_124>
   1bae4:	0f b7 05 b5 85 00 00 	movzwl 0x85b5(%rip),%eax        # 240a0 <g_124>
   1baeb:	66 83 f8 1e          	cmp    $0x1e,%ax
   1baef:	77 c8                	ja     1bab9 <func_52+0x2df3>
   1baf1:	eb 0c                	jmp    1baff <func_52+0x2e39>
   1baf3:	48 8d 05 9a 85 00 00 	lea    0x859a(%rip),%rax        # 24094 <g_44>
   1bafa:	e9 28 04 00 00       	jmpq   1bf27 <func_52+0x3261>
   1baff:	8b 9d 8c ea ff ff    	mov    -0x1574(%rbp),%ebx
   1bb05:	44 0f b6 a5 88 ea ff 	movzbl -0x1578(%rbp),%r12d
   1bb0c:	ff 
   1bb0d:	8b 05 e1 86 00 00    	mov    0x86e1(%rip),%eax        # 241f4 <g_892>
   1bb13:	0f b7 d0             	movzwl %ax,%edx
   1bb16:	48 8b 85 a0 eb ff ff 	mov    -0x1460(%rbp),%rax
   1bb1d:	48 3b 85 80 eb ff ff 	cmp    -0x1480(%rbp),%rax
   1bb24:	0f 95 c0             	setne  %al
   1bb27:	0f b6 c0             	movzbl %al,%eax
   1bb2a:	89 d6                	mov    %edx,%esi
   1bb2c:	89 c7                	mov    %eax,%edi
   1bb2e:	e8 0a 02 ff ff       	callq  bd3d <safe_mul_func_uint16_t_u_u>
   1bb33:	bf 01 00 00 00       	mov    $0x1,%edi
   1bb38:	e8 08 00 ff ff       	callq  bb45 <safe_unary_minus_func_uint8_t_u>
   1bb3d:	38 85 88 ea ff ff    	cmp    %al,-0x1578(%rbp)
   1bb43:	0f 97 c0             	seta   %al
   1bb46:	0f b6 c0             	movzbl %al,%eax
   1bb49:	48 89 c7             	mov    %rax,%rdi
   1bb4c:	e8 c8 04 ff ff       	callq  c019 <safe_unary_minus_func_uint64_t_u>
   1bb51:	48 3d 29 a1 00 00    	cmp    $0xa129,%rax
   1bb57:	0f 96 c0             	setbe  %al
   1bb5a:	0f b6 c0             	movzbl %al,%eax
   1bb5d:	44 21 e0             	and    %r12d,%eax
   1bb60:	3d 12 51 00 00       	cmp    $0x5112,%eax
   1bb65:	0f 9e c0             	setle  %al
   1bb68:	0f b6 c0             	movzbl %al,%eax
   1bb6b:	89 de                	mov    %ebx,%esi
   1bb6d:	89 c7                	mov    %eax,%edi
   1bb6f:	e8 42 fa fe ff       	callq  b5b6 <safe_add_func_int32_t_s_s>
   1bb74:	89 c6                	mov    %eax,%esi
   1bb76:	bf 84 ff ff ff       	mov    $0xffffff84,%edi
   1bb7b:	e8 6e f7 fe ff       	callq  b2ee <safe_lshift_func_int8_t_s_u>
   1bb80:	be fe ff ff ff       	mov    $0xfffffffe,%esi
   1bb85:	bf 00 00 00 00       	mov    $0x0,%edi
   1bb8a:	e8 83 f6 fe ff       	callq  b212 <safe_mul_func_int8_t_s_s>
   1bb8f:	48 8b 05 2a a8 00 00 	mov    0xa82a(%rip),%rax        # 263c0 <g_1058>
   1bb96:	c7 00 51 df 3e 72    	movl   $0x723edf51,(%rax)
   1bb9c:	8b 00                	mov    (%rax),%eax
   1bb9e:	89 85 8c ea ff ff    	mov    %eax,-0x1574(%rbp)
   1bba4:	8b 85 8c ea ff ff    	mov    -0x1574(%rbp),%eax
   1bbaa:	83 f8 03             	cmp    $0x3,%eax
   1bbad:	0f 97 c2             	seta   %dl
   1bbb0:	48 8b 05 09 a8 00 00 	mov    0xa809(%rip),%rax        # 263c0 <g_1058>
   1bbb7:	0f b6 d2             	movzbl %dl,%edx
   1bbba:	89 10                	mov    %edx,(%rax)
   1bbbc:	8b 85 f0 ea ff ff    	mov    -0x1510(%rbp),%eax
   1bbc2:	0f b6 c0             	movzbl %al,%eax
   1bbc5:	be 02 00 00 00       	mov    $0x2,%esi
   1bbca:	89 c7                	mov    %eax,%edi
   1bbcc:	e8 89 ff fe ff       	callq  bb5a <safe_add_func_uint8_t_u_u>
   1bbd1:	0f b6 c0             	movzbl %al,%eax
   1bbd4:	89 85 f0 ea ff ff    	mov    %eax,-0x1510(%rbp)
   1bbda:	83 bd f0 ea ff ff 1a 	cmpl   $0x1a,-0x1510(%rbp)
   1bbe1:	0f 8e 6c fe ff ff    	jle    1ba53 <func_52+0x2d8d>
   1bbe7:	0f b6 05 63 85 00 00 	movzbl 0x8563(%rip),%eax        # 24151 <g_188>
   1bbee:	83 c0 01             	add    $0x1,%eax
   1bbf1:	88 05 5a 85 00 00    	mov    %al,0x855a(%rip)        # 24151 <g_188>
   1bbf7:	0f b6 05 53 85 00 00 	movzbl 0x8553(%rip),%eax        # 24151 <g_188>
   1bbfe:	3c 20                	cmp    $0x20,%al
   1bc00:	0f 87 06 fe ff ff    	ja     1ba0c <func_52+0x2d46>
   1bc06:	8b 85 04 eb ff ff    	mov    -0x14fc(%rbp),%eax
   1bc0c:	48 63 c8             	movslq %eax,%rcx
   1bc0f:	8b 95 50 ee ff ff    	mov    -0x11b0(%rbp),%edx
   1bc15:	8b 85 8c ea ff ff    	mov    -0x1574(%rbp),%eax
   1bc1b:	31 d0                	xor    %edx,%eax
   1bc1d:	89 85 50 ee ff ff    	mov    %eax,-0x11b0(%rbp)
   1bc23:	8b 95 50 ee ff ff    	mov    -0x11b0(%rbp),%edx
   1bc29:	48 8b 05 88 a7 00 00 	mov    0xa788(%rip),%rax        # 263b8 <g_965>
   1bc30:	48 63 d2             	movslq %edx,%rdx
   1bc33:	48 89 10             	mov    %rdx,(%rax)
   1bc36:	48 8b 00             	mov    (%rax),%rax
   1bc39:	48 39 c1             	cmp    %rax,%rcx
   1bc3c:	0f 8c 11 01 00 00    	jl     1bd53 <func_52+0x308d>
   1bc42:	48 8b 05 6f a7 00 00 	mov    0xa76f(%rip),%rax        # 263b8 <g_965>
   1bc49:	48 8b 00             	mov    (%rax),%rax
   1bc4c:	49 89 c5             	mov    %rax,%r13
   1bc4f:	8b 85 8c ea ff ff    	mov    -0x1574(%rbp),%eax
   1bc55:	0f b7 d8             	movzwl %ax,%ebx
   1bc58:	44 8b 25 35 84 00 00 	mov    0x8435(%rip),%r12d        # 24094 <g_44>
   1bc5f:	48 8b 85 88 eb ff ff 	mov    -0x1478(%rbp),%rax
   1bc66:	8b 00                	mov    (%rax),%eax
   1bc68:	8b 15 66 85 00 00    	mov    0x8566(%rip),%edx        # 241d4 <g_394>
   1bc6e:	31 c2                	xor    %eax,%edx
   1bc70:	48 8b 85 88 eb ff ff 	mov    -0x1478(%rbp),%rax
   1bc77:	89 10                	mov    %edx,(%rax)
   1bc79:	48 8b 85 88 eb ff ff 	mov    -0x1478(%rbp),%rax
   1bc80:	8b 00                	mov    (%rax),%eax
   1bc82:	89 05 38 85 00 00    	mov    %eax,0x8538(%rip)        # 241c0 <g_362>
   1bc88:	be 07 00 00 00       	mov    $0x7,%esi
   1bc8d:	bf 87 ff ff ff       	mov    $0xffffff87,%edi
   1bc92:	e8 7b f5 fe ff       	callq  b212 <safe_mul_func_int8_t_s_s>
   1bc97:	0f be d0             	movsbl %al,%edx
   1bc9a:	8b 85 8c ea ff ff    	mov    -0x1574(%rbp),%eax
   1bca0:	0f b7 c0             	movzwl %ax,%eax
   1bca3:	89 d6                	mov    %edx,%esi
   1bca5:	89 c7                	mov    %eax,%edi
   1bca7:	e8 5a 01 ff ff       	callq  be06 <safe_lshift_func_uint16_t_u_u>
   1bcac:	66 85 c0             	test   %ax,%ax
   1bcaf:	74 13                	je     1bcc4 <func_52+0x2ffe>
   1bcb1:	48 8b 05 c8 83 00 00 	mov    0x83c8(%rip),%rax        # 24080 <g_21+0x40>
   1bcb8:	48 85 c0             	test   %rax,%rax
   1bcbb:	74 07                	je     1bcc4 <func_52+0x2ffe>
   1bcbd:	ba 01 00 00 00       	mov    $0x1,%edx
   1bcc2:	eb 05                	jmp    1bcc9 <func_52+0x3003>
   1bcc4:	ba 00 00 00 00       	mov    $0x0,%edx
   1bcc9:	48 8b 05 f0 a6 00 00 	mov    0xa6f0(%rip),%rax        # 263c0 <g_1058>
   1bcd0:	89 10                	mov    %edx,(%rax)
   1bcd2:	ba 01 00 00 00       	mov    $0x1,%edx
   1bcd7:	8b 85 8c ea ff ff    	mov    -0x1574(%rbp),%eax
   1bcdd:	09 d0                	or     %edx,%eax
   1bcdf:	48 63 d0             	movslq %eax,%rdx
   1bce2:	48 8b 05 47 84 00 00 	mov    0x8447(%rip),%rax        # 24130 <g_169+0x70>
   1bce9:	48 39 c2             	cmp    %rax,%rdx
   1bcec:	0f 9e c0             	setle  %al
   1bcef:	0f b6 c0             	movzbl %al,%eax
   1bcf2:	be 11 fc c3 c0       	mov    $0xc0c3fc11,%esi
   1bcf7:	89 c7                	mov    %eax,%edi
   1bcf9:	e8 07 f9 fe ff       	callq  b605 <safe_sub_func_int32_t_s_s>
   1bcfe:	ba 00 00 00 00       	mov    $0x0,%edx
   1bd03:	8b 85 54 ee ff ff    	mov    -0x11ac(%rbp),%eax
   1bd09:	31 d0                	xor    %edx,%eax
   1bd0b:	89 85 54 ee ff ff    	mov    %eax,-0x11ac(%rbp)
   1bd11:	0f b6 85 88 ea ff ff 	movzbl -0x1578(%rbp),%eax
   1bd18:	83 c8 01             	or     $0x1,%eax
   1bd1b:	0f b6 c0             	movzbl %al,%eax
   1bd1e:	44 89 e6             	mov    %r12d,%esi
   1bd21:	89 c7                	mov    %eax,%edi
   1bd23:	e8 d5 01 ff ff       	callq  befd <safe_mod_func_uint32_t_u_u>
   1bd28:	0f b7 c0             	movzwl %ax,%eax
   1bd2b:	89 de                	mov    %ebx,%esi
   1bd2d:	89 c7                	mov    %eax,%edi
   1bd2f:	e8 5a 00 ff ff       	callq  bd8e <safe_div_func_uint16_t_u_u>
   1bd34:	0f b7 c0             	movzwl %ax,%eax
   1bd37:	4c 89 ee             	mov    %r13,%rsi
   1bd3a:	48 89 c7             	mov    %rax,%rdi
   1bd3d:	e8 09 03 ff ff       	callq  c04b <safe_sub_func_uint64_t_u_u>
   1bd42:	48 8b 05 77 a6 00 00 	mov    0xa677(%rip),%rax        # 263c0 <g_1058>
   1bd49:	8b 00                	mov    (%rax),%eax
   1bd4b:	83 f0 01             	xor    $0x1,%eax
   1bd4e:	83 f8 2d             	cmp    $0x2d,%eax
   1bd51:	7e 07                	jle    1bd5a <func_52+0x3094>
   1bd53:	ba 01 00 00 00       	mov    $0x1,%edx
   1bd58:	eb 05                	jmp    1bd5f <func_52+0x3099>
   1bd5a:	ba 00 00 00 00       	mov    $0x0,%edx
   1bd5f:	0f b6 85 88 ea ff ff 	movzbl -0x1578(%rbp),%eax
   1bd66:	39 c2                	cmp    %eax,%edx
   1bd68:	0f 95 c0             	setne  %al
   1bd6b:	0f b6 d0             	movzbl %al,%edx
   1bd6e:	0f bf 85 a0 ea ff ff 	movswl -0x1560(%rbp),%eax
   1bd75:	39 c2                	cmp    %eax,%edx
   1bd77:	0f 95 c0             	setne  %al
   1bd7a:	0f b6 c0             	movzbl %al,%eax
   1bd7d:	21 85 08 eb ff ff    	and    %eax,-0x14f8(%rbp)
   1bd83:	48 8b 05 46 a6 00 00 	mov    0xa646(%rip),%rax        # 263d0 <g_1123>
   1bd8a:	48 8b 00             	mov    (%rax),%rax
   1bd8d:	0f b7 00             	movzwl (%rax),%eax
   1bd90:	0f bf d0             	movswl %ax,%edx
   1bd93:	0f b6 85 88 ea ff ff 	movzbl -0x1578(%rbp),%eax
   1bd9a:	f7 d0                	not    %eax
   1bd9c:	98                   	cwtl   
   1bd9d:	89 d6                	mov    %edx,%esi
   1bd9f:	89 c7                	mov    %eax,%edi
   1bda1:	e8 0d f6 fe ff       	callq  b3b3 <safe_add_func_int16_t_s_s>
   1bda6:	48 8b 95 70 eb ff ff 	mov    -0x1490(%rbp),%rdx
   1bdad:	48 8b 12             	mov    (%rdx),%rdx
   1bdb0:	48 0f bf c0          	movswq %ax,%rax
   1bdb4:	48 21 c2             	and    %rax,%rdx
   1bdb7:	48 8b 85 70 eb ff ff 	mov    -0x1490(%rbp),%rax
   1bdbe:	48 89 10             	mov    %rdx,(%rax)
   1bdc1:	48 8b 85 70 eb ff ff 	mov    -0x1490(%rbp),%rax
   1bdc8:	48 8b 00             	mov    (%rax),%rax
   1bdcb:	48 85 c0             	test   %rax,%rax
   1bdce:	0f 85 dc 00 00 00    	jne    1beb0 <func_52+0x31ea>
   1bdd4:	8b 85 8c ea ff ff    	mov    -0x1574(%rbp),%eax
   1bdda:	0f bf d8             	movswl %ax,%ebx
   1bddd:	8b 05 b1 82 00 00    	mov    0x82b1(%rip),%eax        # 24094 <g_44>
   1bde3:	44 0f bf e0          	movswl %ax,%r12d
   1bde7:	8b 85 50 ee ff ff    	mov    -0x11b0(%rbp),%eax
   1bded:	21 85 08 eb ff ff    	and    %eax,-0x14f8(%rbp)
   1bdf3:	0f b6 95 88 ea ff ff 	movzbl -0x1578(%rbp),%edx
   1bdfa:	0f b6 85 88 ea ff ff 	movzbl -0x1578(%rbp),%eax
   1be01:	89 d6                	mov    %edx,%esi
   1be03:	89 c7                	mov    %eax,%edi
   1be05:	e8 42 fe fe ff       	callq  bc4c <safe_lshift_func_uint8_t_u_u>
   1be0a:	0f b6 d0             	movzbl %al,%edx
   1be0d:	48 8b 85 88 eb ff ff 	mov    -0x1478(%rbp),%rax
   1be14:	89 10                	mov    %edx,(%rax)
   1be16:	48 8b 85 88 eb ff ff 	mov    -0x1478(%rbp),%rax
   1be1d:	8b 00                	mov    (%rax),%eax
   1be1f:	83 f8 ff             	cmp    $0xffffffff,%eax
   1be22:	0f 95 c0             	setne  %al
   1be25:	0f b6 d0             	movzbl %al,%edx
   1be28:	8b 05 aa 83 00 00    	mov    0x83aa(%rip),%eax        # 241d8 <g_400>
   1be2e:	09 d0                	or     %edx,%eax
   1be30:	85 c0                	test   %eax,%eax
   1be32:	74 08                	je     1be3c <func_52+0x3176>
   1be34:	8b 85 50 ee ff ff    	mov    -0x11b0(%rbp),%eax
   1be3a:	85 c0                	test   %eax,%eax
   1be3c:	44 89 e6             	mov    %r12d,%esi
   1be3f:	bf 00 00 00 00       	mov    $0x0,%edi
   1be44:	e8 cd f5 fe ff       	callq  b416 <safe_mod_func_int16_t_s_s>
   1be49:	98                   	cwtl   
   1be4a:	89 de                	mov    %ebx,%esi
   1be4c:	89 c7                	mov    %eax,%edi
   1be4e:	e8 60 f5 fe ff       	callq  b3b3 <safe_add_func_int16_t_s_s>
   1be53:	98                   	cwtl   
   1be54:	89 85 50 ee ff ff    	mov    %eax,-0x11b0(%rbp)
   1be5a:	8b 95 50 ee ff ff    	mov    -0x11b0(%rbp),%edx
   1be60:	0f b6 85 88 ea ff ff 	movzbl -0x1578(%rbp),%eax
   1be67:	21 c2                	and    %eax,%edx
   1be69:	0f b6 85 88 ea ff ff 	movzbl -0x1578(%rbp),%eax
   1be70:	39 c2                	cmp    %eax,%edx
   1be72:	0f 9f c0             	setg   %al
   1be75:	0f b6 d0             	movzbl %al,%edx
   1be78:	48 8b 85 78 eb ff ff 	mov    -0x1488(%rbp),%rax
   1be7f:	8b 00                	mov    (%rax),%eax
   1be81:	09 c2                	or     %eax,%edx
   1be83:	48 8b 85 78 eb ff ff 	mov    -0x1488(%rbp),%rax
   1be8a:	89 10                	mov    %edx,(%rax)
   1be8c:	48 8b 85 78 eb ff ff 	mov    -0x1488(%rbp),%rax
   1be93:	8b 10                	mov    (%rax),%edx
   1be95:	48 8b 85 90 eb ff ff 	mov    -0x1470(%rbp),%rax
   1be9c:	8b 00                	mov    (%rax),%eax
   1be9e:	09 c2                	or     %eax,%edx
   1bea0:	48 8b 85 90 eb ff ff 	mov    -0x1470(%rbp),%rax
   1bea7:	89 10                	mov    %edx,(%rax)
   1bea9:	83 bd 04 eb ff ff 00 	cmpl   $0x0,-0x14fc(%rbp)
   1beb0:	0f b6 85 88 ea ff ff 	movzbl -0x1578(%rbp),%eax
   1beb7:	be 0b 00 00 00       	mov    $0xb,%esi
   1bebc:	89 c7                	mov    %eax,%edi
   1bebe:	e8 1e f6 fe ff       	callq  b4e1 <safe_lshift_func_int16_t_s_u>
   1bec3:	0f be d0             	movsbl %al,%edx
   1bec6:	48 8b 05 eb a4 00 00 	mov    0xa4eb(%rip),%rax        # 263b8 <g_965>
   1becd:	48 8b 00             	mov    (%rax),%rax
   1bed0:	f7 d0                	not    %eax
   1bed2:	0f be c0             	movsbl %al,%eax
   1bed5:	89 d6                	mov    %edx,%esi
   1bed7:	89 c7                	mov    %eax,%edi
   1bed9:	e8 34 f3 fe ff       	callq  b212 <safe_mul_func_int8_t_s_s>
   1bede:	48 8b 15 db a4 00 00 	mov    0xa4db(%rip),%rdx        # 263c0 <g_1058>
   1bee5:	8b 0a                	mov    (%rdx),%ecx
   1bee7:	0f be d0             	movsbl %al,%edx
   1beea:	48 8b 05 cf a4 00 00 	mov    0xa4cf(%rip),%rax        # 263c0 <g_1058>
   1bef1:	31 ca                	xor    %ecx,%edx
   1bef3:	89 10                	mov    %edx,(%rax)
   1bef5:	0f b6 05 54 82 00 00 	movzbl 0x8254(%rip),%eax        # 24150 <g_184>
   1befc:	0f b6 c0             	movzbl %al,%eax
   1beff:	be 02 00 00 00       	mov    $0x2,%esi
   1bf04:	89 c7                	mov    %eax,%edi
   1bf06:	e8 ad ff fe ff       	callq  beb8 <safe_add_func_uint32_t_u_u>
   1bf0b:	88 05 3f 82 00 00    	mov    %al,0x823f(%rip)        # 24150 <g_184>
   1bf11:	0f b6 05 38 82 00 00 	movzbl 0x8238(%rip),%eax        # 24150 <g_184>
   1bf18:	3c 1f                	cmp    $0x1f,%al
   1bf1a:	0f 85 6d f7 ff ff    	jne    1b68d <func_52+0x29c7>
   1bf20:	48 8d 05 6d 81 00 00 	lea    0x816d(%rip),%rax        # 24094 <g_44>
   1bf27:	48 8b 5d d8          	mov    -0x28(%rbp),%rbx
   1bf2b:	64 48 33 1c 25 28 00 	xor    %fs:0x28,%rbx
   1bf32:	00 00 
   1bf34:	74 05                	je     1bf3b <func_52+0x3275>
   1bf36:	e8 35 f1 fe ff       	callq  b070 <__stack_chk_fail@plt>
   1bf3b:	48 81 c4 60 15 00 00 	add    $0x1560,%rsp
   1bf42:	5b                   	pop    %rbx
   1bf43:	41 5c                	pop    %r12
   1bf45:	41 5d                	pop    %r13
   1bf47:	41 5e                	pop    %r14
   1bf49:	5d                   	pop    %rbp
   1bf4a:	c3                   	retq   

000000000001bf4b <func_56>:
   1bf4b:	f3 0f 1e fa          	endbr64 
   1bf4f:	55                   	push   %rbp
   1bf50:	48 89 e5             	mov    %rsp,%rbp
   1bf53:	41 57                	push   %r15
   1bf55:	41 56                	push   %r14
   1bf57:	41 55                	push   %r13
   1bf59:	41 54                	push   %r12
   1bf5b:	53                   	push   %rbx
   1bf5c:	48 81 ec e8 00 00 00 	sub    $0xe8,%rsp
   1bf63:	89 bd 1c ff ff ff    	mov    %edi,-0xe4(%rbp)
   1bf69:	89 b5 18 ff ff ff    	mov    %esi,-0xe8(%rbp)
   1bf6f:	89 95 14 ff ff ff    	mov    %edx,-0xec(%rbp)
   1bf75:	64 48 8b 04 25 28 00 	mov    %fs:0x28,%rax
   1bf7c:	00 00 
   1bf7e:	48 89 45 c8          	mov    %rax,-0x38(%rbp)
   1bf82:	31 c0                	xor    %eax,%eax
   1bf84:	c7 85 40 ff ff ff 88 	movl   $0x392ad588,-0xc0(%rbp)
   1bf8b:	d5 2a 39 
   1bf8e:	c7 85 44 ff ff ff 88 	movl   $0x392ad588,-0xbc(%rbp)
   1bf95:	d5 2a 39 
   1bf98:	c7 85 48 ff ff ff 88 	movl   $0x392ad588,-0xb8(%rbp)
   1bf9f:	d5 2a 39 
   1bfa2:	c7 85 4c ff ff ff 88 	movl   $0x392ad588,-0xb4(%rbp)
   1bfa9:	d5 2a 39 
   1bfac:	c7 85 50 ff ff ff 88 	movl   $0x392ad588,-0xb0(%rbp)
   1bfb3:	d5 2a 39 
   1bfb6:	c7 85 54 ff ff ff 88 	movl   $0x392ad588,-0xac(%rbp)
   1bfbd:	d5 2a 39 
   1bfc0:	c7 85 58 ff ff ff 88 	movl   $0x392ad588,-0xa8(%rbp)
   1bfc7:	d5 2a 39 
   1bfca:	c7 85 5c ff ff ff 88 	movl   $0x392ad588,-0xa4(%rbp)
   1bfd1:	d5 2a 39 
   1bfd4:	c7 85 60 ff ff ff 88 	movl   $0x392ad588,-0xa0(%rbp)
   1bfdb:	d5 2a 39 
   1bfde:	c7 85 64 ff ff ff 88 	movl   $0x392ad588,-0x9c(%rbp)
   1bfe5:	d5 2a 39 
   1bfe8:	c7 85 68 ff ff ff 88 	movl   $0x392ad588,-0x98(%rbp)
   1bfef:	d5 2a 39 
   1bff2:	c7 85 6c ff ff ff 88 	movl   $0x392ad588,-0x94(%rbp)
   1bff9:	d5 2a 39 
   1bffc:	48 8d 05 95 80 00 00 	lea    0x8095(%rip),%rax        # 24098 <g_89>
   1c003:	48 89 85 28 ff ff ff 	mov    %rax,-0xd8(%rbp)
   1c00a:	c7 85 24 ff ff ff ff 	movl   $0xffffffff,-0xdc(%rbp)
   1c011:	ff ff ff 
   1c014:	48 8d 05 81 80 00 00 	lea    0x8081(%rip),%rax        # 2409c <g_113>
   1c01b:	48 89 85 70 ff ff ff 	mov    %rax,-0x90(%rbp)
   1c022:	48 8d 05 73 80 00 00 	lea    0x8073(%rip),%rax        # 2409c <g_113>
   1c029:	48 89 85 78 ff ff ff 	mov    %rax,-0x88(%rbp)
   1c030:	48 8d 05 65 80 00 00 	lea    0x8065(%rip),%rax        # 2409c <g_113>
   1c037:	48 89 45 80          	mov    %rax,-0x80(%rbp)
   1c03b:	48 8d 05 5a 80 00 00 	lea    0x805a(%rip),%rax        # 2409c <g_113>
   1c042:	48 89 45 88          	mov    %rax,-0x78(%rbp)
   1c046:	48 8d 05 4f 80 00 00 	lea    0x804f(%rip),%rax        # 2409c <g_113>
   1c04d:	48 89 45 90          	mov    %rax,-0x70(%rbp)
   1c051:	48 8d 05 44 80 00 00 	lea    0x8044(%rip),%rax        # 2409c <g_113>
   1c058:	48 89 45 98          	mov    %rax,-0x68(%rbp)
   1c05c:	48 8d 05 39 80 00 00 	lea    0x8039(%rip),%rax        # 2409c <g_113>
   1c063:	48 89 45 a0          	mov    %rax,-0x60(%rbp)
   1c067:	48 8d 05 2e 80 00 00 	lea    0x802e(%rip),%rax        # 2409c <g_113>
   1c06e:	48 89 45 a8          	mov    %rax,-0x58(%rbp)
   1c072:	48 8d 05 23 80 00 00 	lea    0x8023(%rip),%rax        # 2409c <g_113>
   1c079:	48 89 45 b0          	mov    %rax,-0x50(%rbp)
   1c07d:	48 8d 05 18 80 00 00 	lea    0x8018(%rip),%rax        # 2409c <g_113>
   1c084:	48 89 45 b8          	mov    %rax,-0x48(%rbp)
   1c088:	c7 85 20 ff ff ff 06 	movl   $0x6,-0xe0(%rbp)
   1c08f:	00 00 00 
   1c092:	48 8d 05 05 80 00 00 	lea    0x8005(%rip),%rax        # 2409e <g_116>
   1c099:	48 89 85 30 ff ff ff 	mov    %rax,-0xd0(%rbp)
   1c0a0:	48 8d 05 f1 c8 00 00 	lea    0xc8f1(%rip),%rax        # 28998 <g_375>
   1c0a7:	48 89 85 38 ff ff ff 	mov    %rax,-0xc8(%rbp)
   1c0ae:	8b 85 14 ff ff ff    	mov    -0xec(%rbp),%eax
   1c0b4:	0f b6 c0             	movzbl %al,%eax
   1c0b7:	89 85 10 ff ff ff    	mov    %eax,-0xf0(%rbp)
   1c0bd:	0f b6 05 0c 81 00 00 	movzbl 0x810c(%rip),%eax        # 241d0 <g_377>
   1c0c4:	4c 0f be e0          	movsbq %al,%r12
   1c0c8:	8b 9d 68 ff ff ff    	mov    -0x98(%rbp),%ebx
   1c0ce:	44 8b bd 18 ff ff ff 	mov    -0xe8(%rbp),%r15d
   1c0d5:	4c 8b 35 bc c8 00 00 	mov    0xc8bc(%rip),%r14        # 28998 <g_375>
   1c0dc:	4c 8b 6d 90          	mov    -0x70(%rbp),%r13
   1c0e0:	48 8b 85 28 ff ff ff 	mov    -0xd8(%rbp),%rax
   1c0e7:	8b 00                	mov    (%rax),%eax
   1c0e9:	8d 50 ff             	lea    -0x1(%rax),%edx
   1c0ec:	48 8b 85 28 ff ff ff 	mov    -0xd8(%rbp),%rax
   1c0f3:	89 10                	mov    %edx,(%rax)
   1c0f5:	48 8b 85 28 ff ff ff 	mov    -0xd8(%rbp),%rax
   1c0fc:	8b 00                	mov    (%rax),%eax
   1c0fe:	89 85 0c ff ff ff    	mov    %eax,-0xf4(%rbp)
   1c104:	8b 85 20 ff ff ff    	mov    -0xe0(%rbp),%eax
   1c10a:	89 85 08 ff ff ff    	mov    %eax,-0xf8(%rbp)
   1c110:	8b 85 68 ff ff ff    	mov    -0x98(%rbp),%eax
   1c116:	85 c0                	test   %eax,%eax
   1c118:	0f 94 c0             	sete   %al
   1c11b:	0f b6 d0             	movzbl %al,%edx
   1c11e:	8b 85 24 ff ff ff    	mov    -0xdc(%rbp),%eax
   1c124:	0f be c0             	movsbl %al,%eax
   1c127:	89 d6                	mov    %edx,%esi
   1c129:	89 c7                	mov    %eax,%edi
   1c12b:	e8 a4 f0 fe ff       	callq  b1d4 <safe_add_func_int8_t_s_s>
   1c130:	0f be d0             	movsbl %al,%edx
   1c133:	8b 85 40 ff ff ff    	mov    -0xc0(%rbp),%eax
   1c139:	21 d0                	and    %edx,%eax
   1c13b:	85 c0                	test   %eax,%eax
   1c13d:	0f 85 ff 00 00 00    	jne    1c242 <func_56+0x2f7>
   1c143:	8b 05 4b 7f 00 00    	mov    0x7f4b(%rip),%eax        # 24094 <g_44>
   1c149:	89 85 04 ff ff ff    	mov    %eax,-0xfc(%rbp)
   1c14f:	8b 8d 1c ff ff ff    	mov    -0xe4(%rbp),%ecx
   1c155:	89 8d 00 ff ff ff    	mov    %ecx,-0x100(%rbp)
   1c15b:	48 8b 05 0e 7f 00 00 	mov    0x7f0e(%rip),%rax        # 24070 <g_21+0x30>
   1c162:	0f be f8             	movsbl %al,%edi
   1c165:	89 bd fc fe ff ff    	mov    %edi,-0x104(%rbp)
   1c16b:	8b 85 24 ff ff ff    	mov    -0xdc(%rbp),%eax
   1c171:	0f be d0             	movsbl %al,%edx
   1c174:	89 95 f8 fe ff ff    	mov    %edx,-0x108(%rbp)
   1c17a:	48 8b 45 a0          	mov    -0x60(%rbp),%rax
   1c17e:	48 85 c0             	test   %rax,%rax
   1c181:	0f 94 c0             	sete   %al
   1c184:	0f b6 d0             	movzbl %al,%edx
   1c187:	8b 85 24 ff ff ff    	mov    -0xdc(%rbp),%eax
   1c18d:	0f be c0             	movsbl %al,%eax
   1c190:	89 d6                	mov    %edx,%esi
   1c192:	89 c7                	mov    %eax,%edi
   1c194:	e8 9c f1 fe ff       	callq  b335 <safe_rshift_func_int8_t_s_s>
   1c199:	0f be c0             	movsbl %al,%eax
   1c19c:	8b b5 f8 fe ff ff    	mov    -0x108(%rbp),%esi
   1c1a2:	89 c7                	mov    %eax,%edi
   1c1a4:	e8 69 f0 fe ff       	callq  b212 <safe_mul_func_int8_t_s_s>
   1c1a9:	8b b5 fc fe ff ff    	mov    -0x104(%rbp),%esi
   1c1af:	bf 01 00 00 00       	mov    $0x1,%edi
   1c1b4:	e8 1b f0 fe ff       	callq  b1d4 <safe_add_func_int8_t_s_s>
   1c1b9:	0f be c0             	movsbl %al,%eax
   1c1bc:	8b b5 00 ff ff ff    	mov    -0x100(%rbp),%esi
   1c1c2:	89 c7                	mov    %eax,%edi
   1c1c4:	e8 9a f3 fe ff       	callq  b563 <safe_rshift_func_int16_t_s_u>
   1c1c9:	0f b6 05 cc 7e 00 00 	movzbl 0x7ecc(%rip),%eax        # 2409c <g_113>
   1c1d0:	0f be d0             	movsbl %al,%edx
   1c1d3:	8b 85 20 ff ff ff    	mov    -0xe0(%rbp),%eax
   1c1d9:	39 c2                	cmp    %eax,%edx
   1c1db:	0f 96 c0             	setbe  %al
   1c1de:	0f b6 d0             	movzbl %al,%edx
   1c1e1:	48 8b 85 30 ff ff ff 	mov    -0xd0(%rbp),%rax
   1c1e8:	66 89 10             	mov    %dx,(%rax)
   1c1eb:	8b 85 18 ff ff ff    	mov    -0xe8(%rbp),%eax
   1c1f1:	3b 85 14 ff ff ff    	cmp    -0xec(%rbp),%eax
   1c1f7:	0f 94 c0             	sete   %al
   1c1fa:	0f b6 c0             	movzbl %al,%eax
   1c1fd:	8b b5 04 ff ff ff    	mov    -0xfc(%rbp),%esi
   1c203:	89 c7                	mov    %eax,%edi
   1c205:	e8 97 f0 fe ff       	callq  b2a1 <safe_lshift_func_int8_t_s_s>
   1c20a:	0f be d0             	movsbl %al,%edx
   1c20d:	8b 05 81 7e 00 00    	mov    0x7e81(%rip),%eax        # 24094 <g_44>
   1c213:	39 c2                	cmp    %eax,%edx
   1c215:	77 07                	ja     1c21e <func_56+0x2d3>
   1c217:	b8 63 00 00 00       	mov    $0x63,%eax
   1c21c:	eb 05                	jmp    1c223 <func_56+0x2d8>
   1c21e:	b8 62 00 00 00       	mov    $0x62,%eax
   1c223:	8b 15 6b 7e 00 00    	mov    0x7e6b(%rip),%edx        # 24094 <g_44>
   1c229:	89 d2                	mov    %edx,%edx
   1c22b:	48 39 d0             	cmp    %rdx,%rax
   1c22e:	0f 9c c0             	setl   %al
   1c231:	0f b6 c0             	movzbl %al,%eax
   1c234:	89 c6                	mov    %eax,%esi
   1c236:	bf fe ff ff ff       	mov    $0xfffffffe,%edi
   1c23b:	e8 90 fc fe ff       	callq  bed0 <safe_sub_func_uint32_t_u_u>
   1c240:	85 c0                	test   %eax,%eax
   1c242:	8b 85 20 ff ff ff    	mov    -0xe0(%rbp),%eax
   1c248:	0f b7 c0             	movzwl %ax,%eax
   1c24b:	be 06 00 00 00       	mov    $0x6,%esi
   1c250:	89 c7                	mov    %eax,%edi
   1c252:	e8 f1 fb fe ff       	callq  be48 <safe_rshift_func_uint16_t_u_s>
   1c257:	0f b7 c0             	movzwl %ax,%eax
   1c25a:	8b b5 08 ff ff ff    	mov    -0xf8(%rbp),%esi
   1c260:	89 c7                	mov    %eax,%edi
   1c262:	e8 4f f3 fe ff       	callq  b5b6 <safe_add_func_int32_t_s_s>
   1c267:	85 c0                	test   %eax,%eax
   1c269:	74 10                	je     1c27b <func_56+0x330>
   1c26b:	83 bd 18 ff ff ff 00 	cmpl   $0x0,-0xe8(%rbp)
   1c272:	74 07                	je     1c27b <func_56+0x330>
   1c274:	b8 01 00 00 00       	mov    $0x1,%eax
   1c279:	eb 05                	jmp    1c280 <func_56+0x335>
   1c27b:	b8 00 00 00 00       	mov    $0x0,%eax
   1c280:	23 85 0c ff ff ff    	and    -0xf4(%rbp),%eax
   1c286:	89 c2                	mov    %eax,%edx
   1c288:	48 8b 05 d9 7d 00 00 	mov    0x7dd9(%rip),%rax        # 24068 <g_21+0x28>
   1c28f:	48 39 c2             	cmp    %rax,%rdx
   1c292:	72 0a                	jb     1c29e <func_56+0x353>
   1c294:	8b 85 5c ff ff ff    	mov    -0xa4(%rbp),%eax
   1c29a:	85 c0                	test   %eax,%eax
   1c29c:	74 07                	je     1c2a5 <func_56+0x35a>
   1c29e:	b8 01 00 00 00       	mov    $0x1,%eax
   1c2a3:	eb 05                	jmp    1c2aa <func_56+0x35f>
   1c2a5:	b8 00 00 00 00       	mov    $0x0,%eax
   1c2aa:	0f b7 c0             	movzwl %ax,%eax
   1c2ad:	be ba eb 00 00       	mov    $0xebba,%esi
   1c2b2:	89 c7                	mov    %eax,%edi
   1c2b4:	e8 84 fa fe ff       	callq  bd3d <safe_mul_func_uint16_t_u_u>
   1c2b9:	98                   	cwtl   
   1c2ba:	be 06 00 00 00       	mov    $0x6,%esi
   1c2bf:	89 c7                	mov    %eax,%edi
   1c2c1:	e8 64 f2 fe ff       	callq  b52a <safe_rshift_func_int16_t_s_s>
   1c2c6:	0f bf d0             	movswl %ax,%edx
   1c2c9:	8b 85 68 ff ff ff    	mov    -0x98(%rbp),%eax
   1c2cf:	0f b6 c0             	movzbl %al,%eax
   1c2d2:	89 d6                	mov    %edx,%esi
   1c2d4:	89 c7                	mov    %eax,%edi
   1c2d6:	e8 e3 f9 fe ff       	callq  bcbe <safe_rshift_func_uint8_t_u_u>
   1c2db:	0f be c0             	movsbl %al,%eax
   1c2de:	be f8 ff ff ff       	mov    $0xfffffff8,%esi
   1c2e3:	89 c7                	mov    %eax,%edi
   1c2e5:	e8 80 ef fe ff       	callq  b26a <safe_div_func_int8_t_s_s>
   1c2ea:	48 0f be c0          	movsbq %al,%rax
   1c2ee:	48 8d 95 20 ff ff ff 	lea    -0xe0(%rbp),%rdx
   1c2f5:	48 8d 8d 20 ff ff ff 	lea    -0xe0(%rbp),%rcx
   1c2fc:	48 89 ce             	mov    %rcx,%rsi
   1c2ff:	48 89 c7             	mov    %rax,%rdi
   1c302:	e8 87 02 00 00       	callq  1c58e <func_75>
   1c307:	8b 05 a7 7e 00 00    	mov    0x7ea7(%rip),%eax        # 241b4 <g_248>
   1c30d:	85 c0                	test   %eax,%eax
   1c30f:	0f 94 c0             	sete   %al
   1c312:	0f b6 c0             	movzbl %al,%eax
   1c315:	48 8b 95 28 ff ff ff 	mov    -0xd8(%rbp),%rdx
   1c31c:	49 89 d0             	mov    %rdx,%r8
   1c31f:	4c 89 f9             	mov    %r15,%rcx
   1c322:	4c 89 f2             	mov    %r14,%rdx
   1c325:	4c 89 ee             	mov    %r13,%rsi
   1c328:	48 89 c7             	mov    %rax,%rdi
   1c32b:	e8 34 02 00 00       	callq  1c564 <func_69>
   1c330:	44 8b 85 10 ff ff ff 	mov    -0xf0(%rbp),%r8d
   1c337:	48 8d 0d 92 7e 00 00 	lea    0x7e92(%rip),%rcx        # 241d0 <g_377>
   1c33e:	4c 89 e2             	mov    %r12,%rdx
   1c341:	89 de                	mov    %ebx,%esi
   1c343:	48 89 c7             	mov    %rax,%rdi
   1c346:	e8 47 00 00 00       	callq  1c392 <func_63>
   1c34b:	48 8b 95 38 ff ff ff 	mov    -0xc8(%rbp),%rdx
   1c352:	48 89 02             	mov    %rax,(%rdx)
   1c355:	48 8b 85 38 ff ff ff 	mov    -0xc8(%rbp),%rax
   1c35c:	48 8b 00             	mov    (%rax),%rax
   1c35f:	48 89 05 72 c6 00 00 	mov    %rax,0xc672(%rip)        # 289d8 <g_399+0x38>
   1c366:	8b 85 18 ff ff ff    	mov    -0xe8(%rbp),%eax
   1c36c:	48 8b 5d c8          	mov    -0x38(%rbp),%rbx
   1c370:	64 48 33 1c 25 28 00 	xor    %fs:0x28,%rbx
   1c377:	00 00 
   1c379:	74 05                	je     1c380 <func_56+0x435>
   1c37b:	e8 f0 ec fe ff       	callq  b070 <__stack_chk_fail@plt>
   1c380:	48 81 c4 e8 00 00 00 	add    $0xe8,%rsp
   1c387:	5b                   	pop    %rbx
   1c388:	41 5c                	pop    %r12
   1c38a:	41 5d                	pop    %r13
   1c38c:	41 5e                	pop    %r14
   1c38e:	41 5f                	pop    %r15
   1c390:	5d                   	pop    %rbp
   1c391:	c3                   	retq   

000000000001c392 <func_63>:
   1c392:	f3 0f 1e fa          	endbr64 
   1c396:	55                   	push   %rbp
   1c397:	48 89 e5             	mov    %rsp,%rbp
   1c39a:	41 54                	push   %r12
   1c39c:	53                   	push   %rbx
   1c39d:	48 83 ec 60          	sub    $0x60,%rsp
   1c3a1:	48 89 7d a8          	mov    %rdi,-0x58(%rbp)
   1c3a5:	89 75 a4             	mov    %esi,-0x5c(%rbp)
   1c3a8:	48 89 55 98          	mov    %rdx,-0x68(%rbp)
   1c3ac:	48 89 4d 90          	mov    %rcx,-0x70(%rbp)
   1c3b0:	44 89 c0             	mov    %r8d,%eax
   1c3b3:	88 45 a0             	mov    %al,-0x60(%rbp)
   1c3b6:	64 48 8b 04 25 28 00 	mov    %fs:0x28,%rax
   1c3bd:	00 00 
   1c3bf:	48 89 45 e8          	mov    %rax,-0x18(%rbp)
   1c3c3:	31 c0                	xor    %eax,%eax
   1c3c5:	48 c7 45 c0 00 00 00 	movq   $0x0,-0x40(%rbp)
   1c3cc:	00 
   1c3cd:	48 8d 05 a4 7c 00 00 	lea    0x7ca4(%rip),%rax        # 24078 <g_21+0x38>
   1c3d4:	48 89 45 c8          	mov    %rax,-0x38(%rbp)
   1c3d8:	48 8d 05 f5 7d 00 00 	lea    0x7df5(%rip),%rax        # 241d4 <g_394>
   1c3df:	48 89 45 d0          	mov    %rax,-0x30(%rbp)
   1c3e3:	48 8d 05 66 7d 00 00 	lea    0x7d66(%rip),%rax        # 24150 <g_184>
   1c3ea:	48 89 45 d8          	mov    %rax,-0x28(%rbp)
   1c3ee:	c7 45 bc f9 7b e9 50 	movl   $0x50e97bf9,-0x44(%rbp)
   1c3f5:	48 8d 45 bc          	lea    -0x44(%rbp),%rax
   1c3f9:	48 89 45 e0          	mov    %rax,-0x20(%rbp)
   1c3fd:	8b 5d a4             	mov    -0x5c(%rbp),%ebx
   1c400:	44 8b 65 a4          	mov    -0x5c(%rbp),%r12d
   1c404:	0f b7 05 93 7c 00 00 	movzwl 0x7c93(%rip),%eax        # 2409e <g_116>
   1c40b:	0f b7 c0             	movzwl %ax,%eax
   1c40e:	0f b7 15 73 c5 00 00 	movzwl 0xc573(%rip),%edx        # 28988 <g_239>
   1c415:	48 0f bf d2          	movswq %dx,%rdx
   1c419:	48 89 55 98          	mov    %rdx,-0x68(%rbp)
   1c41d:	48 8b 55 c8          	mov    -0x38(%rbp),%rdx
   1c421:	48 8b 4d 98          	mov    -0x68(%rbp),%rcx
   1c425:	48 89 0a             	mov    %rcx,(%rdx)
   1c428:	89 c6                	mov    %eax,%esi
   1c42a:	bf 01 00 00 00       	mov    $0x1,%edi
   1c42f:	e8 09 f9 fe ff       	callq  bd3d <safe_mul_func_uint16_t_u_u>
   1c434:	48 8b 55 d0          	mov    -0x30(%rbp),%rdx
   1c438:	8b 12                	mov    (%rdx),%edx
   1c43a:	0f b7 c0             	movzwl %ax,%eax
   1c43d:	31 c2                	xor    %eax,%edx
   1c43f:	48 8b 45 d0          	mov    -0x30(%rbp),%rax
   1c443:	89 10                	mov    %edx,(%rax)
   1c445:	0f b6 05 50 7c 00 00 	movzbl 0x7c50(%rip),%eax        # 2409c <g_113>
   1c44c:	0f be d0             	movsbl %al,%edx
   1c44f:	48 8b 05 62 7d 00 00 	mov    0x7d62(%rip),%rax        # 241b8 <g_300>
   1c456:	89 c1                	mov    %eax,%ecx
   1c458:	0f b7 05 41 7c 00 00 	movzwl 0x7c41(%rip),%eax        # 240a0 <g_124>
   1c45f:	31 c8                	xor    %ecx,%eax
   1c461:	0f b7 c0             	movzwl %ax,%eax
   1c464:	89 d6                	mov    %edx,%esi
   1c466:	89 c7                	mov    %eax,%edi
   1c468:	e8 99 f9 fe ff       	callq  be06 <safe_lshift_func_uint16_t_u_u>
   1c46d:	89 c1                	mov    %eax,%ecx
   1c46f:	0f b7 05 28 7c 00 00 	movzwl 0x7c28(%rip),%eax        # 2409e <g_116>
   1c476:	0f b7 d0             	movzwl %ax,%edx
   1c479:	48 8d 05 10 c5 00 00 	lea    0xc510(%rip),%rax        # 28990 <g_261>
   1c480:	48 39 45 c0          	cmp    %rax,-0x40(%rbp)
   1c484:	40 0f 95 c6          	setne  %sil
   1c488:	48 8b 45 d8          	mov    -0x28(%rbp),%rax
   1c48c:	0f b6 00             	movzbl (%rax),%eax
   1c48f:	21 c1                	and    %eax,%ecx
   1c491:	48 8b 45 d8          	mov    -0x28(%rbp),%rax
   1c495:	88 08                	mov    %cl,(%rax)
   1c497:	48 8b 45 d8          	mov    -0x28(%rbp),%rax
   1c49b:	0f b6 00             	movzbl (%rax),%eax
   1c49e:	3c d2                	cmp    $0xd2,%al
   1c4a0:	0f 96 c0             	setbe  %al
   1c4a3:	31 f0                	xor    %esi,%eax
   1c4a5:	0f b6 c8             	movzbl %al,%ecx
   1c4a8:	8b 45 bc             	mov    -0x44(%rbp),%eax
   1c4ab:	21 c8                	and    %ecx,%eax
   1c4ad:	39 c2                	cmp    %eax,%edx
   1c4af:	0f 95 c0             	setne  %al
   1c4b2:	0f b6 d0             	movzbl %al,%edx
   1c4b5:	0f b6 45 a0          	movzbl -0x60(%rbp),%eax
   1c4b9:	89 d6                	mov    %edx,%esi
   1c4bb:	89 c7                	mov    %eax,%edi
   1c4bd:	e8 86 f9 fe ff       	callq  be48 <safe_rshift_func_uint16_t_u_s>
   1c4c2:	0f b6 c0             	movzbl %al,%eax
   1c4c5:	be f9 00 00 00       	mov    $0xf9,%esi
   1c4ca:	89 c7                	mov    %eax,%edi
   1c4cc:	e8 a7 f6 fe ff       	callq  bb78 <safe_sub_func_uint8_t_u_u>
   1c4d1:	0f b6 c0             	movzbl %al,%eax
   1c4d4:	be 00 00 00 00       	mov    $0x0,%esi
   1c4d9:	89 c7                	mov    %eax,%edi
   1c4db:	e8 7a f6 fe ff       	callq  bb5a <safe_add_func_uint8_t_u_u>
   1c4e0:	3c 63                	cmp    $0x63,%al
   1c4e2:	0f 97 c0             	seta   %al
   1c4e5:	0f b6 d0             	movzbl %al,%edx
   1c4e8:	0f b7 05 af 7b 00 00 	movzwl 0x7baf(%rip),%eax        # 2409e <g_116>
   1c4ef:	0f b7 c0             	movzwl %ax,%eax
   1c4f2:	39 c2                	cmp    %eax,%edx
   1c4f4:	0f 9d c0             	setge  %al
   1c4f7:	0f b6 d0             	movzbl %al,%edx
   1c4fa:	8b 45 bc             	mov    -0x44(%rbp),%eax
   1c4fd:	39 c2                	cmp    %eax,%edx
   1c4ff:	0f 9d c0             	setge  %al
   1c502:	0f b6 d0             	movzbl %al,%edx
   1c505:	8b 45 bc             	mov    -0x44(%rbp),%eax
   1c508:	09 c2                	or     %eax,%edx
   1c50a:	48 8b 45 e0          	mov    -0x20(%rbp),%rax
   1c50e:	89 10                	mov    %edx,(%rax)
   1c510:	48 8b 45 e0          	mov    -0x20(%rbp),%rax
   1c514:	8b 00                	mov    (%rax),%eax
   1c516:	44 89 e6             	mov    %r12d,%esi
   1c519:	89 c7                	mov    %eax,%edi
   1c51b:	e8 df f1 fe ff       	callq  b6ff <safe_div_func_int32_t_s_s>
   1c520:	48 98                	cltq   
   1c522:	48 8b 55 a8          	mov    -0x58(%rbp),%rdx
   1c526:	4c 8d 05 67 7b 00 00 	lea    0x7b67(%rip),%r8        # 24094 <g_44>
   1c52d:	48 89 d9             	mov    %rbx,%rcx
   1c530:	48 8d 35 99 7c 00 00 	lea    0x7c99(%rip),%rsi        # 241d0 <g_377>
   1c537:	48 89 c7             	mov    %rax,%rdi
   1c53a:	e8 25 00 00 00       	callq  1c564 <func_69>
   1c53f:	48 89 45 e0          	mov    %rax,-0x20(%rbp)
   1c543:	48 8b 45 a8          	mov    -0x58(%rbp),%rax
   1c547:	48 8b 5d e8          	mov    -0x18(%rbp),%rbx
   1c54b:	64 48 33 1c 25 28 00 	xor    %fs:0x28,%rbx
   1c552:	00 00 
   1c554:	74 05                	je     1c55b <func_63+0x1c9>
   1c556:	e8 15 eb fe ff       	callq  b070 <__stack_chk_fail@plt>
   1c55b:	48 83 c4 60          	add    $0x60,%rsp
   1c55f:	5b                   	pop    %rbx
   1c560:	41 5c                	pop    %r12
   1c562:	5d                   	pop    %rbp
   1c563:	c3                   	retq   

000000000001c564 <func_69>:
   1c564:	f3 0f 1e fa          	endbr64 
   1c568:	55                   	push   %rbp
   1c569:	48 89 e5             	mov    %rsp,%rbp
   1c56c:	48 89 7d e8          	mov    %rdi,-0x18(%rbp)
   1c570:	48 89 75 e0          	mov    %rsi,-0x20(%rbp)
   1c574:	48 89 55 d8          	mov    %rdx,-0x28(%rbp)
   1c578:	48 89 4d d0          	mov    %rcx,-0x30(%rbp)
   1c57c:	4c 89 45 c8          	mov    %r8,-0x38(%rbp)
   1c580:	48 c7 45 f8 00 00 00 	movq   $0x0,-0x8(%rbp)
   1c587:	00 
   1c588:	48 8b 45 f8          	mov    -0x8(%rbp),%rax
   1c58c:	5d                   	pop    %rbp
   1c58d:	c3                   	retq   

000000000001c58e <func_75>:
   1c58e:	f3 0f 1e fa          	endbr64 
   1c592:	55                   	push   %rbp
   1c593:	48 89 e5             	mov    %rsp,%rbp
   1c596:	41 57                	push   %r15
   1c598:	41 56                	push   %r14
   1c59a:	41 55                	push   %r13
   1c59c:	41 54                	push   %r12
   1c59e:	53                   	push   %rbx
   1c59f:	48 81 ec 58 0a 00 00 	sub    $0xa58,%rsp
   1c5a6:	48 89 bd 98 f5 ff ff 	mov    %rdi,-0xa68(%rbp)
   1c5ad:	48 89 b5 90 f5 ff ff 	mov    %rsi,-0xa70(%rbp)
   1c5b4:	48 89 95 88 f5 ff ff 	mov    %rdx,-0xa78(%rbp)
   1c5bb:	64 48 8b 04 25 28 00 	mov    %fs:0x28,%rax
   1c5c2:	00 00 
   1c5c4:	48 89 45 c8          	mov    %rax,-0x38(%rbp)
   1c5c8:	31 c0                	xor    %eax,%eax
   1c5ca:	66 c7 85 b0 f5 ff ff 	movw   $0x0,-0xa50(%rbp)
   1c5d1:	00 00 
   1c5d3:	c7 85 b4 f5 ff ff af 	movl   $0x395b56af,-0xa4c(%rbp)
   1c5da:	56 5b 39 
   1c5dd:	c7 85 c4 f5 ff ff d1 	movl   $0xed9abd1,-0xa3c(%rbp)
   1c5e4:	ab d9 0e 
   1c5e7:	48 c7 85 20 f7 ff ff 	movq   $0x0,-0x8e0(%rbp)
   1c5ee:	00 00 00 00 
   1c5f2:	48 c7 85 28 f7 ff ff 	movq   $0x0,-0x8d8(%rbp)
   1c5f9:	00 00 00 00 
   1c5fd:	48 c7 85 30 f7 ff ff 	movq   $0x0,-0x8d0(%rbp)
   1c604:	00 00 00 00 
   1c608:	48 c7 85 38 f7 ff ff 	movq   $0x0,-0x8c8(%rbp)
   1c60f:	00 00 00 00 
   1c613:	48 c7 85 40 f7 ff ff 	movq   $0x0,-0x8c0(%rbp)
   1c61a:	00 00 00 00 
   1c61e:	66 c7 85 b2 f5 ff ff 	movw   $0x0,-0xa4e(%rbp)
   1c625:	00 00 
   1c627:	c7 85 c8 f5 ff ff 00 	movl   $0x0,-0xa38(%rbp)
   1c62e:	00 00 00 
   1c631:	eb 1e                	jmp    1c651 <func_75+0xc3>
   1c633:	8b 85 c8 f5 ff ff    	mov    -0xa38(%rbp),%eax
   1c639:	48 98                	cltq   
   1c63b:	48 8d 15 5e 7a 00 00 	lea    0x7a5e(%rip),%rdx        # 240a0 <g_124>
   1c642:	48 89 94 c5 10 f7 ff 	mov    %rdx,-0x8f0(%rbp,%rax,8)
   1c649:	ff 
   1c64a:	83 85 c8 f5 ff ff 01 	addl   $0x1,-0xa38(%rbp)
   1c651:	83 bd c8 f5 ff ff 01 	cmpl   $0x1,-0xa38(%rbp)
   1c658:	7e d9                	jle    1c633 <func_75+0xa5>
   1c65a:	90                   	nop
   1c65b:	66 c7 05 3a 7a 00 00 	movw   $0x14,0x7a3a(%rip)        # 2409e <g_116>
   1c662:	14 00 
   1c664:	90                   	nop
   1c665:	0f b7 05 32 7a 00 00 	movzwl 0x7a32(%rip),%eax        # 2409e <g_116>
   1c66c:	66 83 f8 03          	cmp    $0x3,%ax
   1c670:	0f 86 86 0d 00 00    	jbe    1d3fc <func_75+0xe6e>
   1c676:	48 8d 05 23 7a 00 00 	lea    0x7a23(%rip),%rax        # 240a0 <g_124>
   1c67d:	48 89 85 28 f6 ff ff 	mov    %rax,-0x9d8(%rbp)
   1c684:	c7 85 b8 f5 ff ff f9 	movl   $0xfffffff9,-0xa48(%rbp)
   1c68b:	ff ff ff 
   1c68e:	48 8d 05 03 7a 00 00 	lea    0x7a03(%rip),%rax        # 24098 <g_89>
   1c695:	48 89 85 30 f6 ff ff 	mov    %rax,-0x9d0(%rbp)
   1c69c:	48 8d 85 40 f8 ff ff 	lea    -0x7c0(%rbp),%rax
   1c6a3:	48 8d 15 16 96 00 00 	lea    0x9616(%rip),%rdx        # 25cc0 <g_3583+0x1a30>
   1c6aa:	b9 c8 00 00 00       	mov    $0xc8,%ecx
   1c6af:	48 89 c7             	mov    %rax,%rdi
   1c6b2:	48 89 d6             	mov    %rdx,%rsi
   1c6b5:	f3 48 a5             	rep movsq %ds:(%rsi),%es:(%rdi)
   1c6b8:	48 b8 2a 1b b7 c2 9d 	movabs $0x9e08eb9dc2b71b2a,%rax
   1c6bf:	eb 08 9e 
   1c6c2:	48 89 85 38 f6 ff ff 	mov    %rax,-0x9c8(%rbp)
   1c6c9:	48 0f bf 9d b0 f5 ff 	movswq -0xa50(%rbp),%rbx
   1c6d0:	ff 
   1c6d1:	44 8b a5 b8 f5 ff ff 	mov    -0xa48(%rbp),%r12d
   1c6d8:	48 8b 85 98 f5 ff ff 	mov    -0xa68(%rbp),%rax
   1c6df:	89 85 84 f5 ff ff    	mov    %eax,-0xa7c(%rbp)
   1c6e5:	48 8b 85 98 f5 ff ff 	mov    -0xa68(%rbp),%rax
   1c6ec:	44 0f b6 e8          	movzbl %al,%r13d
   1c6f0:	8b 05 9e 79 00 00    	mov    0x799e(%rip),%eax        # 24094 <g_44>
   1c6f6:	44 0f be f0          	movsbl %al,%r14d
   1c6fa:	48 8b 05 77 79 00 00 	mov    0x7977(%rip),%rax        # 24078 <g_21+0x38>
   1c701:	89 85 80 f5 ff ff    	mov    %eax,-0xa80(%rbp)
   1c707:	8b 85 b4 f5 ff ff    	mov    -0xa4c(%rbp),%eax
   1c70d:	48 63 d0             	movslq %eax,%rdx
   1c710:	48 0f bf 85 b0 f5 ff 	movswq -0xa50(%rbp),%rax
   1c717:	ff 
   1c718:	48 89 d6             	mov    %rdx,%rsi
   1c71b:	48 89 c7             	mov    %rax,%rdi
   1c71e:	e8 1e f1 fe ff       	callq  b841 <safe_add_func_int64_t_s_s>
   1c723:	89 85 b4 f5 ff ff    	mov    %eax,-0xa4c(%rbp)
   1c729:	0f b6 05 6c 79 00 00 	movzbl 0x796c(%rip),%eax        # 2409c <g_113>
   1c730:	44 0f be f8          	movsbl %al,%r15d
   1c734:	48 8b 05 4d 79 00 00 	mov    0x794d(%rip),%rax        # 24088 <g_21+0x48>
   1c73b:	89 c2                	mov    %eax,%edx
   1c73d:	48 8b 05 fc 78 00 00 	mov    0x78fc(%rip),%rax        # 24040 <g_21>
   1c744:	0f be c0             	movsbl %al,%eax
   1c747:	89 d6                	mov    %edx,%esi
   1c749:	89 c7                	mov    %eax,%edi
   1c74b:	e8 9e eb fe ff       	callq  b2ee <safe_lshift_func_int8_t_s_u>
   1c750:	3c 08                	cmp    $0x8,%al
   1c752:	0f 95 c0             	setne  %al
   1c755:	0f b6 c0             	movzbl %al,%eax
   1c758:	89 c6                	mov    %eax,%esi
   1c75a:	bf ff ff 00 00       	mov    $0xffff,%edi
   1c75f:	e8 bb f5 fe ff       	callq  bd1f <safe_sub_func_uint16_t_u_u>
   1c764:	0f be c0             	movsbl %al,%eax
   1c767:	44 89 fe             	mov    %r15d,%esi
   1c76a:	89 c7                	mov    %eax,%edi
   1c76c:	e8 c0 ea fe ff       	callq  b231 <safe_mod_func_int8_t_s_s>
   1c771:	8b 05 21 79 00 00    	mov    0x7921(%rip),%eax        # 24098 <g_89>
   1c777:	be 01 00 00 00       	mov    $0x1,%esi
   1c77c:	89 c7                	mov    %eax,%edi
   1c77e:	e8 4d f7 fe ff       	callq  bed0 <safe_sub_func_uint32_t_u_u>
   1c783:	98                   	cwtl   
   1c784:	8b b5 80 f5 ff ff    	mov    -0xa80(%rbp),%esi
   1c78a:	89 c7                	mov    %eax,%edi
   1c78c:	e8 99 ed fe ff       	callq  b52a <safe_rshift_func_int16_t_s_s>
   1c791:	98                   	cwtl   
   1c792:	39 85 c4 f5 ff ff    	cmp    %eax,-0xa3c(%rbp)
   1c798:	0f 9c c0             	setl   %al
   1c79b:	0f b6 c0             	movzbl %al,%eax
   1c79e:	44 89 f6             	mov    %r14d,%esi
   1c7a1:	89 c7                	mov    %eax,%edi
   1c7a3:	e8 2c ea fe ff       	callq  b1d4 <safe_add_func_int8_t_s_s>
   1c7a8:	0f b6 c0             	movzbl %al,%eax
   1c7ab:	be 01 00 00 00       	mov    $0x1,%esi
   1c7b0:	89 c7                	mov    %eax,%edi
   1c7b2:	e8 4e f4 fe ff       	callq  bc05 <safe_lshift_func_uint8_t_u_s>
   1c7b7:	0f b6 c0             	movzbl %al,%eax
   1c7ba:	44 89 ee             	mov    %r13d,%esi
   1c7bd:	89 c7                	mov    %eax,%edi
   1c7bf:	e8 cf f3 fe ff       	callq  bb93 <safe_mul_func_uint8_t_u_u>
   1c7c4:	0f b6 c0             	movzbl %al,%eax
   1c7c7:	8b b5 84 f5 ff ff    	mov    -0xa7c(%rbp),%esi
   1c7cd:	89 c7                	mov    %eax,%edi
   1c7cf:	e8 ea f5 fe ff       	callq  bdbe <safe_lshift_func_uint16_t_u_s>
   1c7d4:	0f b7 c0             	movzwl %ax,%eax
   1c7d7:	25 2f a0 e7 6b       	and    $0x6be7a02f,%eax
   1c7dc:	44 89 e6             	mov    %r12d,%esi
   1c7df:	89 c7                	mov    %eax,%edi
   1c7e1:	e8 d0 ed fe ff       	callq  b5b6 <safe_add_func_int32_t_s_s>
   1c7e6:	0f b7 c0             	movzwl %ax,%eax
   1c7e9:	48 8b 95 28 f6 ff ff 	mov    -0x9d8(%rbp),%rdx
   1c7f0:	66 c7 02 00 00       	movw   $0x0,(%rdx)
   1c7f5:	89 c6                	mov    %eax,%esi
   1c7f7:	bf 00 00 00 00       	mov    $0x0,%edi
   1c7fc:	e8 3c f5 fe ff       	callq  bd3d <safe_mul_func_uint16_t_u_u>
   1c801:	48 8b 85 98 f5 ff ff 	mov    -0xa68(%rbp),%rax
   1c808:	48 89 de             	mov    %rbx,%rsi
   1c80b:	48 89 c7             	mov    %rax,%rdi
   1c80e:	e8 1b f8 fe ff       	callq  c02e <safe_add_func_uint64_t_u_u>
   1c813:	48 85 c0             	test   %rax,%rax
   1c816:	0f 84 61 09 00 00    	je     1d17d <func_75+0xbef>
   1c81c:	c7 85 e0 f5 ff ff ff 	movl   $0xffffffff,-0xa20(%rbp)
   1c823:	ff ff ff 
   1c826:	48 8d 85 b8 f5 ff ff 	lea    -0xa48(%rbp),%rax
   1c82d:	48 89 85 78 f6 ff ff 	mov    %rax,-0x988(%rbp)
   1c834:	48 c7 85 80 f6 ff ff 	movq   $0x0,-0x980(%rbp)
   1c83b:	00 00 00 00 
   1c83f:	c7 85 bc f5 ff ff 0b 	movl   $0x9864ec0b,-0xa44(%rbp)
   1c846:	ec 64 98 
   1c849:	66 c7 85 b0 f5 ff ff 	movw   $0xffeb,-0xa50(%rbp)
   1c850:	eb ff 
   1c852:	e9 ca 08 00 00       	jmpq   1d121 <func_75+0xb93>
   1c857:	c6 85 ad f5 ff ff 87 	movb   $0x87,-0xa53(%rbp)
   1c85e:	48 c7 85 e8 f5 ff ff 	movq   $0x0,-0xa18(%rbp)
   1c865:	00 00 00 00 
   1c869:	48 8d 05 98 78 00 00 	lea    0x7898(%rip),%rax        # 24108 <g_169+0x48>
   1c870:	48 89 85 50 f7 ff ff 	mov    %rax,-0x8b0(%rbp)
   1c877:	48 8d 05 8a 78 00 00 	lea    0x788a(%rip),%rax        # 24108 <g_169+0x48>
   1c87e:	48 89 85 58 f7 ff ff 	mov    %rax,-0x8a8(%rbp)
   1c885:	48 8d 05 7c 78 00 00 	lea    0x787c(%rip),%rax        # 24108 <g_169+0x48>
   1c88c:	48 89 85 60 f7 ff ff 	mov    %rax,-0x8a0(%rbp)
   1c893:	48 8d 05 6e 78 00 00 	lea    0x786e(%rip),%rax        # 24108 <g_169+0x48>
   1c89a:	48 89 85 68 f7 ff ff 	mov    %rax,-0x898(%rbp)
   1c8a1:	48 8d 05 60 78 00 00 	lea    0x7860(%rip),%rax        # 24108 <g_169+0x48>
   1c8a8:	48 89 85 70 f7 ff ff 	mov    %rax,-0x890(%rbp)
   1c8af:	48 8d 05 52 78 00 00 	lea    0x7852(%rip),%rax        # 24108 <g_169+0x48>
   1c8b6:	48 89 85 78 f7 ff ff 	mov    %rax,-0x888(%rbp)
   1c8bd:	48 c7 85 88 f6 ff ff 	movq   $0x0,-0x978(%rbp)
   1c8c4:	00 00 00 00 
   1c8c8:	48 c7 85 90 f6 ff ff 	movq   $0x0,-0x970(%rbp)
   1c8cf:	00 00 00 00 
   1c8d3:	c7 85 c0 f5 ff ff 78 	movl   $0xa2fe6578,-0xa40(%rbp)
   1c8da:	65 fe a2 
   1c8dd:	48 8d 05 6c 78 00 00 	lea    0x786c(%rip),%rax        # 24150 <g_184>
   1c8e4:	48 89 85 98 f6 ff ff 	mov    %rax,-0x968(%rbp)
   1c8eb:	48 8d 05 5f 78 00 00 	lea    0x785f(%rip),%rax        # 24151 <g_188>
   1c8f2:	48 89 85 a0 f6 ff ff 	mov    %rax,-0x960(%rbp)
   1c8f9:	48 8d 85 e8 f5 ff ff 	lea    -0xa18(%rbp),%rax
   1c900:	48 89 85 a8 f6 ff ff 	mov    %rax,-0x958(%rbp)
   1c907:	48 8d 05 8e 77 00 00 	lea    0x778e(%rip),%rax        # 2409c <g_113>
   1c90e:	48 89 85 b0 f6 ff ff 	mov    %rax,-0x950(%rbp)
   1c915:	c7 85 cc f5 ff ff 08 	movl   $0x8,-0xa34(%rbp)
   1c91c:	00 00 00 
   1c91f:	8b 85 b8 f5 ff ff    	mov    -0xa48(%rbp),%eax
   1c925:	88 85 ad f5 ff ff    	mov    %al,-0xa53(%rbp)
   1c92b:	80 bd ad f5 ff ff 00 	cmpb   $0x0,-0xa53(%rbp)
   1c932:	0f 84 f0 00 00 00    	je     1ca28 <func_75+0x49a>
   1c938:	48 8b 85 98 f5 ff ff 	mov    -0xa68(%rbp),%rax
   1c93f:	89 c2                	mov    %eax,%edx
   1c941:	48 8b 85 98 f5 ff ff 	mov    -0xa68(%rbp),%rax
   1c948:	0f b6 c0             	movzbl %al,%eax
   1c94b:	89 d6                	mov    %edx,%esi
   1c94d:	89 c7                	mov    %eax,%edi
   1c94f:	e8 f8 f2 fe ff       	callq  bc4c <safe_lshift_func_uint8_t_u_u>
   1c954:	83 bd e0 f5 ff ff 00 	cmpl   $0x0,-0xa20(%rbp)
   1c95b:	0f 84 b7 00 00 00    	je     1ca18 <func_75+0x48a>
   1c961:	48 8b 1d 10 77 00 00 	mov    0x7710(%rip),%rbx        # 24078 <g_21+0x38>
   1c968:	44 0f be a5 ad f5 ff 	movsbl -0xa53(%rbp),%r12d
   1c96f:	ff 
   1c970:	48 8b 05 01 77 00 00 	mov    0x7701(%rip),%rax        # 24078 <g_21+0x38>
   1c977:	48 85 c0             	test   %rax,%rax
   1c97a:	74 22                	je     1c99e <func_75+0x410>
   1c97c:	48 8b 85 98 f5 ff ff 	mov    -0xa68(%rbp),%rax
   1c983:	48 ba 47 28 9e a6 d1 	movabs $0xabc3d1a69e2847,%rdx
   1c98a:	c3 ab 00 
   1c98d:	48 09 d0             	or     %rdx,%rax
   1c990:	48 89 85 98 f5 ff ff 	mov    %rax,-0xa68(%rbp)
   1c997:	b8 01 00 00 00       	mov    $0x1,%eax
   1c99c:	eb 05                	jmp    1c9a3 <func_75+0x415>
   1c99e:	b8 00 00 00 00       	mov    $0x0,%eax
   1c9a3:	48 63 d0             	movslq %eax,%rdx
   1c9a6:	48 83 bd 78 f6 ff ff 	cmpq   $0x0,-0x988(%rbp)
   1c9ad:	00 
   1c9ae:	0f 95 c0             	setne  %al
   1c9b1:	0f b6 c0             	movzbl %al,%eax
   1c9b4:	48 89 d6             	mov    %rdx,%rsi
   1c9b7:	48 89 c7             	mov    %rax,%rdi
   1c9ba:	e8 38 f0 fe ff       	callq  b9f7 <safe_div_func_int64_t_s_s>
   1c9bf:	44 89 e6             	mov    %r12d,%esi
   1c9c2:	bf 00 00 00 00       	mov    $0x0,%edi
   1c9c7:	e8 97 eb fe ff       	callq  b563 <safe_rshift_func_int16_t_s_u>
   1c9cc:	66 85 c0             	test   %ax,%ax
   1c9cf:	75 09                	jne    1c9da <func_75+0x44c>
   1c9d1:	83 bd c4 f5 ff ff 00 	cmpl   $0x0,-0xa3c(%rbp)
   1c9d8:	74 07                	je     1c9e1 <func_75+0x453>
   1c9da:	b8 01 00 00 00       	mov    $0x1,%eax
   1c9df:	eb 05                	jmp    1c9e6 <func_75+0x458>
   1c9e1:	b8 00 00 00 00       	mov    $0x0,%eax
   1c9e6:	83 f8 ff             	cmp    $0xffffffff,%eax
   1c9e9:	0f 95 c0             	setne  %al
   1c9ec:	0f b6 c0             	movzbl %al,%eax
   1c9ef:	48 89 de             	mov    %rbx,%rsi
   1c9f2:	48 89 c7             	mov    %rax,%rdi
   1c9f5:	e8 34 f6 fe ff       	callq  c02e <safe_add_func_uint64_t_u_u>
   1c9fa:	25 e0 00 00 00       	and    $0xe0,%eax
   1c9ff:	48 83 f8 4b          	cmp    $0x4b,%rax
   1ca03:	76 13                	jbe    1ca18 <func_75+0x48a>
   1ca05:	48 8b 85 98 f5 ff ff 	mov    -0xa68(%rbp),%rax
   1ca0c:	48 85 c0             	test   %rax,%rax
   1ca0f:	74 07                	je     1ca18 <func_75+0x48a>
   1ca11:	b8 01 00 00 00       	mov    $0x1,%eax
   1ca16:	eb 05                	jmp    1ca1d <func_75+0x48f>
   1ca18:	b8 00 00 00 00       	mov    $0x0,%eax
   1ca1d:	85 c0                	test   %eax,%eax
   1ca1f:	74 07                	je     1ca28 <func_75+0x49a>
   1ca21:	ba 01 00 00 00       	mov    $0x1,%edx
   1ca26:	eb 05                	jmp    1ca2d <func_75+0x49f>
   1ca28:	ba 00 00 00 00       	mov    $0x0,%edx
   1ca2d:	8b 85 bc f5 ff ff    	mov    -0xa44(%rbp),%eax
   1ca33:	21 d0                	and    %edx,%eax
   1ca35:	89 85 bc f5 ff ff    	mov    %eax,-0xa44(%rbp)
   1ca3b:	48 8b 1d 36 76 00 00 	mov    0x7636(%rip),%rbx        # 24078 <g_21+0x38>
   1ca42:	48 8b 85 a0 f6 ff ff 	mov    -0x960(%rbp),%rax
   1ca49:	c6 00 4e             	movb   $0x4e,(%rax)
   1ca4c:	48 8b 85 98 f6 ff ff 	mov    -0x968(%rbp),%rax
   1ca53:	0f b6 00             	movzbl (%rax),%eax
   1ca56:	8d 50 ff             	lea    -0x1(%rax),%edx
   1ca59:	48 8b 85 98 f6 ff ff 	mov    -0x968(%rbp),%rax
   1ca60:	88 10                	mov    %dl,(%rax)
   1ca62:	48 8b 05 17 76 00 00 	mov    0x7617(%rip),%rax        # 24080 <g_21+0x40>
   1ca69:	0f be c0             	movsbl %al,%eax
   1ca6c:	be 01 00 00 00       	mov    $0x1,%esi
   1ca71:	89 c7                	mov    %eax,%edi
   1ca73:	e8 f4 e8 fe ff       	callq  b36c <safe_rshift_func_int8_t_s_u>
   1ca78:	0f be d0             	movsbl %al,%edx
   1ca7b:	8b 85 b8 f5 ff ff    	mov    -0xa48(%rbp),%eax
   1ca81:	39 c2                	cmp    %eax,%edx
   1ca83:	0f 9e c0             	setle  %al
   1ca86:	88 05 e4 76 00 00    	mov    %al,0x76e4(%rip)        # 24170 <g_190+0x10>
   1ca8c:	0f b6 05 dd 76 00 00 	movzbl 0x76dd(%rip),%eax        # 24170 <g_190+0x10>
   1ca93:	66 98                	cbtw   
   1ca95:	0f b7 c0             	movzwl %ax,%eax
   1ca98:	be fd ff 00 00       	mov    $0xfffd,%esi
   1ca9d:	89 c7                	mov    %eax,%edi
   1ca9f:	e8 5b f2 fe ff       	callq  bcff <safe_add_func_uint16_t_u_u>
   1caa4:	48 8b 95 c8 fc ff ff 	mov    -0x338(%rbp),%rdx
   1caab:	48 8b 85 e8 f5 ff ff 	mov    -0xa18(%rbp),%rax
   1cab2:	48 39 c2             	cmp    %rax,%rdx
   1cab5:	0f 94 c0             	sete   %al
   1cab8:	0f b6 d0             	movzbl %al,%edx
   1cabb:	0f b7 05 de 75 00 00 	movzwl 0x75de(%rip),%eax        # 240a0 <g_124>
   1cac2:	98                   	cwtl   
   1cac3:	89 d6                	mov    %edx,%esi
   1cac5:	89 c7                	mov    %eax,%edi
   1cac7:	e8 e7 e8 fe ff       	callq  b3b3 <safe_add_func_int16_t_s_s>
   1cacc:	48 0f bf c0          	movswq %ax,%rax
   1cad0:	48 39 c3             	cmp    %rax,%rbx
   1cad3:	0f 96 c0             	setbe  %al
   1cad6:	0f b6 c0             	movzbl %al,%eax
   1cad9:	be 40 cf 00 00       	mov    $0xcf40,%esi
   1cade:	89 c7                	mov    %eax,%edi
   1cae0:	e8 77 f2 fe ff       	callq  bd5c <safe_mod_func_uint16_t_u_u>
   1cae5:	66 85 c0             	test   %ax,%ax
   1cae8:	0f 84 9f 01 00 00    	je     1cc8d <func_75+0x6ff>
   1caee:	c7 85 80 f7 ff ff 33 	movl   $0xd1911733,-0x880(%rbp)
   1caf5:	17 91 d1 
   1caf8:	c7 85 84 f7 ff ff 00 	movl   $0x0,-0x87c(%rbp)
   1caff:	00 00 00 
   1cb02:	c7 85 88 f7 ff ff 66 	movl   $0x65d8e466,-0x878(%rbp)
   1cb09:	e4 d8 65 
   1cb0c:	c7 85 8c f7 ff ff 00 	movl   $0x0,-0x874(%rbp)
   1cb13:	00 00 00 
   1cb16:	c7 85 90 f7 ff ff 33 	movl   $0xd1911733,-0x870(%rbp)
   1cb1d:	17 91 d1 
   1cb20:	c7 85 94 f7 ff ff 66 	movl   $0x65d8e466,-0x86c(%rbp)
   1cb27:	e4 d8 65 
   1cb2a:	c7 85 98 f7 ff ff 04 	movl   $0x4,-0x868(%rbp)
   1cb31:	00 00 00 
   1cb34:	c7 85 9c f7 ff ff 04 	movl   $0x4,-0x864(%rbp)
   1cb3b:	00 00 00 
   1cb3e:	c7 85 a0 f7 ff ff ff 	movl   $0xffffffff,-0x860(%rbp)
   1cb45:	ff ff ff 
   1cb48:	c7 85 a4 f7 ff ff 00 	movl   $0x0,-0x85c(%rbp)
   1cb4f:	00 00 00 
   1cb52:	c7 85 a8 f7 ff ff fe 	movl   $0xff0f84fe,-0x858(%rbp)
   1cb59:	84 0f ff 
   1cb5c:	c7 85 ac f7 ff ff fe 	movl   $0xff0f84fe,-0x854(%rbp)
   1cb63:	84 0f ff 
   1cb66:	c7 85 b0 f7 ff ff be 	movl   $0xec88d1be,-0x850(%rbp)
   1cb6d:	d1 88 ec 
   1cb70:	c7 85 b4 f7 ff ff ff 	movl   $0xffffffff,-0x84c(%rbp)
   1cb77:	ff ff ff 
   1cb7a:	c7 85 b8 f7 ff ff 66 	movl   $0x65d8e466,-0x848(%rbp)
   1cb81:	e4 d8 65 
   1cb84:	c7 85 bc f7 ff ff be 	movl   $0xec88d1be,-0x844(%rbp)
   1cb8b:	d1 88 ec 
   1cb8e:	c7 85 c0 f7 ff ff ff 	movl   $0xffffffff,-0x840(%rbp)
   1cb95:	ff ff ff 
   1cb98:	c7 85 c4 f7 ff ff 66 	movl   $0x65d8e466,-0x83c(%rbp)
   1cb9f:	e4 d8 65 
   1cba2:	c7 85 c8 f7 ff ff fe 	movl   $0xff0f84fe,-0x838(%rbp)
   1cba9:	84 0f ff 
   1cbac:	c7 85 cc f7 ff ff ff 	movl   $0xffffffff,-0x834(%rbp)
   1cbb3:	ff ff ff 
   1cbb6:	c7 85 d0 f7 ff ff fe 	movl   $0xff0f84fe,-0x830(%rbp)
   1cbbd:	84 0f ff 
   1cbc0:	c7 85 d4 f7 ff ff 66 	movl   $0x65d8e466,-0x82c(%rbp)
   1cbc7:	e4 d8 65 
   1cbca:	c7 85 d8 f7 ff ff ff 	movl   $0xffffffff,-0x828(%rbp)
   1cbd1:	ff ff ff 
   1cbd4:	c7 85 dc f7 ff ff ff 	movl   $0xffffffff,-0x824(%rbp)
   1cbdb:	ff ff ff 
   1cbde:	c7 85 e0 f7 ff ff be 	movl   $0xec88d1be,-0x820(%rbp)
   1cbe5:	d1 88 ec 
   1cbe8:	c7 85 e4 f7 ff ff 09 	movl   $0xd70bf509,-0x81c(%rbp)
   1cbef:	f5 0b d7 
   1cbf2:	c7 85 e8 f7 ff ff 04 	movl   $0x4,-0x818(%rbp)
   1cbf9:	00 00 00 
   1cbfc:	c7 85 ec f7 ff ff ff 	movl   $0xffffffff,-0x814(%rbp)
   1cc03:	ff ff ff 
   1cc06:	c7 85 f0 f7 ff ff ff 	movl   $0xffffffff,-0x810(%rbp)
   1cc0d:	ff ff ff 
   1cc10:	c7 85 f4 f7 ff ff 04 	movl   $0x4,-0x80c(%rbp)
   1cc17:	00 00 00 
   1cc1a:	c7 85 f8 f7 ff ff 09 	movl   $0xd70bf509,-0x808(%rbp)
   1cc21:	f5 0b d7 
   1cc24:	c7 85 fc f7 ff ff be 	movl   $0xec88d1be,-0x804(%rbp)
   1cc2b:	d1 88 ec 
   1cc2e:	c7 85 00 f8 ff ff ff 	movl   $0xffffffff,-0x800(%rbp)
   1cc35:	ff ff ff 
   1cc38:	c7 85 04 f8 ff ff ff 	movl   $0xffffffff,-0x7fc(%rbp)
   1cc3f:	ff ff ff 
   1cc42:	c7 85 08 f8 ff ff 66 	movl   $0x65d8e466,-0x7f8(%rbp)
   1cc49:	e4 d8 65 
   1cc4c:	c7 85 0c f8 ff ff fe 	movl   $0xff0f84fe,-0x7f4(%rbp)
   1cc53:	84 0f ff 
   1cc56:	c7 85 10 f8 ff ff ff 	movl   $0xffffffff,-0x7f0(%rbp)
   1cc5d:	ff ff ff 
   1cc60:	c7 85 14 f8 ff ff fe 	movl   $0xff0f84fe,-0x7ec(%rbp)
   1cc67:	84 0f ff 
   1cc6a:	c7 85 18 f8 ff ff 66 	movl   $0x65d8e466,-0x7e8(%rbp)
   1cc71:	e4 d8 65 
   1cc74:	c7 85 1c f8 ff ff ff 	movl   $0xffffffff,-0x7e4(%rbp)
   1cc7b:	ff ff ff 
   1cc7e:	8b 85 b8 f7 ff ff    	mov    -0x848(%rbp),%eax
   1cc84:	85 c0                	test   %eax,%eax
   1cc86:	74 14                	je     1cc9c <func_75+0x70e>
   1cc88:	e9 a2 04 00 00       	jmpq   1d12f <func_75+0xba1>
   1cc8d:	8b 95 c0 f5 ff ff    	mov    -0xa40(%rbp),%edx
   1cc93:	48 8b 85 78 f6 ff ff 	mov    -0x988(%rbp),%rax
   1cc9a:	89 10                	mov    %edx,(%rax)
   1cc9c:	48 8b 85 98 f5 ff ff 	mov    -0xa68(%rbp),%rax
   1cca3:	41 89 c4             	mov    %eax,%r12d
   1cca6:	bf 97 49 4d ca       	mov    $0xca4d4997,%edi
   1ccab:	e8 e6 e8 fe ff       	callq  b596 <safe_unary_minus_func_int32_t_s>
   1ccb0:	48 63 d0             	movslq %eax,%rdx
   1ccb3:	48 8b 85 30 f6 ff ff 	mov    -0x9d0(%rbp),%rax
   1ccba:	8b 00                	mov    (%rax),%eax
   1ccbc:	83 e0 01             	and    $0x1,%eax
   1ccbf:	89 c1                	mov    %eax,%ecx
   1ccc1:	48 8b 85 30 f6 ff ff 	mov    -0x9d0(%rbp),%rax
   1ccc8:	89 08                	mov    %ecx,(%rax)
   1ccca:	48 8b 85 30 f6 ff ff 	mov    -0x9d0(%rbp),%rax
   1ccd1:	8b 00                	mov    (%rax),%eax
   1ccd3:	f7 d0                	not    %eax
   1ccd5:	89 c0                	mov    %eax,%eax
   1ccd7:	48 39 c2             	cmp    %rax,%rdx
   1ccda:	0f 96 c0             	setbe  %al
   1ccdd:	0f b6 d8             	movzbl %al,%ebx
   1cce0:	48 8b 85 a8 f6 ff ff 	mov    -0x958(%rbp),%rax
   1cce7:	48 8d 95 98 f5 ff ff 	lea    -0xa68(%rbp),%rdx
   1ccee:	48 89 10             	mov    %rdx,(%rax)
   1ccf1:	48 8b 85 98 f5 ff ff 	mov    -0xa68(%rbp),%rax
   1ccf8:	48 85 c0             	test   %rax,%rax
   1ccfb:	0f 9e c0             	setle  %al
   1ccfe:	0f b6 d0             	movzbl %al,%edx
   1cd01:	8b 85 c0 f5 ff ff    	mov    -0xa40(%rbp),%eax
   1cd07:	09 c2                	or     %eax,%edx
   1cd09:	48 8b 85 b0 f6 ff ff 	mov    -0x950(%rbp),%rax
   1cd10:	0f b6 00             	movzbl (%rax),%eax
   1cd13:	31 c2                	xor    %eax,%edx
   1cd15:	48 8b 85 b0 f6 ff ff 	mov    -0x950(%rbp),%rax
   1cd1c:	88 10                	mov    %dl,(%rax)
   1cd1e:	48 0f be 95 ad f5 ff 	movsbq -0xa53(%rbp),%rdx
   1cd25:	ff 
   1cd26:	48 8b 85 98 f5 ff ff 	mov    -0xa68(%rbp),%rax
   1cd2d:	48 39 c2             	cmp    %rax,%rdx
   1cd30:	0f 9f c0             	setg   %al
   1cd33:	0f b6 c0             	movzbl %al,%eax
   1cd36:	be ac 7e 00 00       	mov    $0x7eac,%esi
   1cd3b:	89 c7                	mov    %eax,%edi
   1cd3d:	e8 dd ef fe ff       	callq  bd1f <safe_sub_func_uint16_t_u_u>
   1cd42:	0f b7 c0             	movzwl %ax,%eax
   1cd45:	39 c3                	cmp    %eax,%ebx
   1cd47:	74 0c                	je     1cd55 <func_75+0x7c7>
   1cd49:	0f b7 05 50 73 00 00 	movzwl 0x7350(%rip),%eax        # 240a0 <g_124>
   1cd50:	66 85 c0             	test   %ax,%ax
   1cd53:	74 07                	je     1cd5c <func_75+0x7ce>
   1cd55:	b8 01 00 00 00       	mov    $0x1,%eax
   1cd5a:	eb 05                	jmp    1cd61 <func_75+0x7d3>
   1cd5c:	b8 00 00 00 00       	mov    $0x0,%eax
   1cd61:	44 89 e6             	mov    %r12d,%esi
   1cd64:	89 c7                	mov    %eax,%edi
   1cd66:	e8 4d f1 fe ff       	callq  beb8 <safe_add_func_uint32_t_u_u>
   1cd6b:	be 03 00 00 00       	mov    $0x3,%esi
   1cd70:	bf 77 00 00 00       	mov    $0x77,%edi
   1cd75:	e8 44 ef fe ff       	callq  bcbe <safe_rshift_func_uint8_t_u_u>
   1cd7a:	0f b6 d0             	movzbl %al,%edx
   1cd7d:	48 8b 85 98 f5 ff ff 	mov    -0xa68(%rbp),%rax
   1cd84:	48 39 c2             	cmp    %rax,%rdx
   1cd87:	0f 94 c0             	sete   %al
   1cd8a:	0f b6 d0             	movzbl %al,%edx
   1cd8d:	48 8b 85 78 f6 ff ff 	mov    -0x988(%rbp),%rax
   1cd94:	89 10                	mov    %edx,(%rax)
   1cd96:	c7 85 c0 f5 ff ff 00 	movl   $0x0,-0xa40(%rbp)
   1cd9d:	00 00 00 
   1cda0:	e9 5c 03 00 00       	jmpq   1d101 <func_75+0xb73>
   1cda5:	48 8d 85 b4 f5 ff ff 	lea    -0xa4c(%rbp),%rax
   1cdac:	48 89 85 b8 f6 ff ff 	mov    %rax,-0x948(%rbp)
   1cdb3:	48 8d 85 b4 f5 ff ff 	lea    -0xa4c(%rbp),%rax
   1cdba:	48 89 85 c0 f6 ff ff 	mov    %rax,-0x940(%rbp)
   1cdc1:	48 8d 85 b8 f5 ff ff 	lea    -0xa48(%rbp),%rax
   1cdc8:	48 89 85 c8 f6 ff ff 	mov    %rax,-0x938(%rbp)
   1cdcf:	48 8d 85 bc f5 ff ff 	lea    -0xa44(%rbp),%rax
   1cdd6:	48 89 85 d0 f6 ff ff 	mov    %rax,-0x930(%rbp)
   1cddd:	48 8d 85 b8 f5 ff ff 	lea    -0xa48(%rbp),%rax
   1cde4:	48 89 85 d8 f6 ff ff 	mov    %rax,-0x928(%rbp)
   1cdeb:	48 c7 85 e0 f6 ff ff 	movq   $0x0,-0x920(%rbp)
   1cdf2:	00 00 00 00 
   1cdf6:	48 8d 85 bc f5 ff ff 	lea    -0xa44(%rbp),%rax
   1cdfd:	48 89 85 e8 f6 ff ff 	mov    %rax,-0x918(%rbp)
   1ce04:	48 8d 85 b4 f5 ff ff 	lea    -0xa4c(%rbp),%rax
   1ce0b:	48 89 85 f0 f6 ff ff 	mov    %rax,-0x910(%rbp)
   1ce12:	48 8d 85 b4 f5 ff ff 	lea    -0xa4c(%rbp),%rax
   1ce19:	48 89 85 f8 f6 ff ff 	mov    %rax,-0x908(%rbp)
   1ce20:	48 8d 85 b4 f5 ff ff 	lea    -0xa4c(%rbp),%rax
   1ce27:	48 89 85 80 f7 ff ff 	mov    %rax,-0x880(%rbp)
   1ce2e:	48 8d 85 c0 f5 ff ff 	lea    -0xa40(%rbp),%rax
   1ce35:	48 89 85 88 f7 ff ff 	mov    %rax,-0x878(%rbp)
   1ce3c:	48 8d 85 b4 f5 ff ff 	lea    -0xa4c(%rbp),%rax
   1ce43:	48 89 85 90 f7 ff ff 	mov    %rax,-0x870(%rbp)
   1ce4a:	48 8d 85 c0 f5 ff ff 	lea    -0xa40(%rbp),%rax
   1ce51:	48 89 85 98 f7 ff ff 	mov    %rax,-0x868(%rbp)
   1ce58:	48 8d 85 b4 f5 ff ff 	lea    -0xa4c(%rbp),%rax
   1ce5f:	48 89 85 a0 f7 ff ff 	mov    %rax,-0x860(%rbp)
   1ce66:	48 8d 85 c0 f5 ff ff 	lea    -0xa40(%rbp),%rax
   1ce6d:	48 89 85 a8 f7 ff ff 	mov    %rax,-0x858(%rbp)
   1ce74:	48 8d 85 b4 f5 ff ff 	lea    -0xa4c(%rbp),%rax
   1ce7b:	48 89 85 b0 f7 ff ff 	mov    %rax,-0x850(%rbp)
   1ce82:	48 8d 85 c0 f5 ff ff 	lea    -0xa40(%rbp),%rax
   1ce89:	48 89 85 b8 f7 ff ff 	mov    %rax,-0x848(%rbp)
   1ce90:	48 8d 85 b4 f5 ff ff 	lea    -0xa4c(%rbp),%rax
   1ce97:	48 89 85 c0 f7 ff ff 	mov    %rax,-0x840(%rbp)
   1ce9e:	48 8d 85 c0 f5 ff ff 	lea    -0xa40(%rbp),%rax
   1cea5:	48 89 85 c8 f7 ff ff 	mov    %rax,-0x838(%rbp)
   1ceac:	8b 05 e6 72 00 00    	mov    0x72e6(%rip),%eax        # 24198 <g_214>
   1ceb2:	83 e8 01             	sub    $0x1,%eax
   1ceb5:	89 05 dd 72 00 00    	mov    %eax,0x72dd(%rip)        # 24198 <g_214>
   1cebb:	48 c7 85 98 f5 ff ff 	movq   $0x0,-0xa68(%rbp)
   1cec2:	00 00 00 00 
   1cec6:	e9 16 02 00 00       	jmpq   1d0e1 <func_75+0xb53>
   1cecb:	c7 85 e4 f5 ff ff ff 	movl   $0xffffffff,-0xa1c(%rbp)
   1ced2:	ff ff ff 
   1ced5:	48 8d 05 ac ba 00 00 	lea    0xbaac(%rip),%rax        # 28988 <g_239>
   1cedc:	48 89 85 00 f7 ff ff 	mov    %rax,-0x900(%rbp)
   1cee3:	48 8d 05 ba 72 00 00 	lea    0x72ba(%rip),%rax        # 241a4 <g_241+0x4>
   1ceea:	48 89 85 08 f7 ff ff 	mov    %rax,-0x8f8(%rbp)
   1cef1:	48 8b 85 98 f5 ff ff 	mov    -0xa68(%rbp),%rax
   1cef8:	49 89 c5             	mov    %rax,%r13
   1cefb:	8b 85 e4 f5 ff ff    	mov    -0xa1c(%rbp),%eax
   1cf01:	89 85 b4 f5 ff ff    	mov    %eax,-0xa4c(%rbp)
   1cf07:	44 8b a5 b4 f5 ff ff 	mov    -0xa4c(%rbp),%r12d
   1cf0e:	0f b6 05 5c 72 00 00 	movzbl 0x725c(%rip),%eax        # 24171 <g_190+0x11>
   1cf15:	66 98                	cbtw   
   1cf17:	0f b7 d8             	movzwl %ax,%ebx
   1cf1a:	48 8b 85 98 f5 ff ff 	mov    -0xa68(%rbp),%rax
   1cf21:	0f bf d0             	movswl %ax,%edx
   1cf24:	0f b6 05 25 72 00 00 	movzbl 0x7225(%rip),%eax        # 24150 <g_184>
   1cf2b:	0f b6 c0             	movzbl %al,%eax
   1cf2e:	89 d6                	mov    %edx,%esi
   1cf30:	89 c7                	mov    %eax,%edi
   1cf32:	e8 9c e4 fe ff       	callq  b3d3 <safe_sub_func_int16_t_s_s>
   1cf37:	48 8b 85 98 f5 ff ff 	mov    -0xa68(%rbp),%rax
   1cf3e:	89 c2                	mov    %eax,%edx
   1cf40:	0f be 85 ad f5 ff ff 	movsbl -0xa53(%rbp),%eax
   1cf47:	89 d6                	mov    %edx,%esi
   1cf49:	89 c7                	mov    %eax,%edi
   1cf4b:	e8 7c e7 fe ff       	callq  b6cc <safe_mod_func_int32_t_s_s>
   1cf50:	48 63 d0             	movslq %eax,%rdx
   1cf53:	48 8b 85 98 f5 ff ff 	mov    -0xa68(%rbp),%rax
   1cf5a:	48 39 c2             	cmp    %rax,%rdx
   1cf5d:	0f 9d c0             	setge  %al
   1cf60:	0f b6 c0             	movzbl %al,%eax
   1cf63:	be 01 00 00 00       	mov    $0x1,%esi
   1cf68:	89 c7                	mov    %eax,%edi
   1cf6a:	e8 eb eb fe ff       	callq  bb5a <safe_add_func_uint8_t_u_u>
   1cf6f:	0f b6 d0             	movzbl %al,%edx
   1cf72:	0f b6 05 15 72 00 00 	movzbl 0x7215(%rip),%eax        # 2418e <g_190+0x2e>
   1cf79:	0f be c0             	movsbl %al,%eax
   1cf7c:	09 d0                	or     %edx,%eax
   1cf7e:	89 c6                	mov    %eax,%esi
   1cf80:	bf 77 b9 ff ff       	mov    $0xffffb977,%edi
   1cf85:	e8 a0 e5 fe ff       	callq  b52a <safe_rshift_func_int16_t_s_s>
   1cf8a:	48 8b 95 00 f7 ff ff 	mov    -0x900(%rbp),%rdx
   1cf91:	0f b7 12             	movzwl (%rdx),%edx
   1cf94:	09 c2                	or     %eax,%edx
   1cf96:	48 8b 85 00 f7 ff ff 	mov    -0x900(%rbp),%rax
   1cf9d:	66 89 10             	mov    %dx,(%rax)
   1cfa0:	48 8b 85 00 f7 ff ff 	mov    -0x900(%rbp),%rax
   1cfa7:	0f b7 00             	movzwl (%rax),%eax
   1cfaa:	0f bf d0             	movswl %ax,%edx
   1cfad:	48 8b 85 78 f6 ff ff 	mov    -0x988(%rbp),%rax
   1cfb4:	8b 00                	mov    (%rax),%eax
   1cfb6:	39 c2                	cmp    %eax,%edx
   1cfb8:	0f 94 c0             	sete   %al
   1cfbb:	0f b6 d0             	movzbl %al,%edx
   1cfbe:	48 8b 85 78 f6 ff ff 	mov    -0x988(%rbp),%rax
   1cfc5:	8b 00                	mov    (%rax),%eax
   1cfc7:	39 c2                	cmp    %eax,%edx
   1cfc9:	0f 9c c0             	setl   %al
   1cfcc:	89 c2                	mov    %eax,%edx
   1cfce:	48 8b 85 a0 f6 ff ff 	mov    -0x960(%rbp),%rax
   1cfd5:	88 10                	mov    %dl,(%rax)
   1cfd7:	48 8b 85 a0 f6 ff ff 	mov    -0x960(%rbp),%rax
   1cfde:	0f b6 00             	movzbl (%rax),%eax
   1cfe1:	0f b6 d0             	movzbl %al,%edx
   1cfe4:	48 8b 85 e8 f6 ff ff 	mov    -0x918(%rbp),%rax
   1cfeb:	8b 00                	mov    (%rax),%eax
   1cfed:	39 c2                	cmp    %eax,%edx
   1cfef:	0f 9e c0             	setle  %al
   1cff2:	0f b6 c0             	movzbl %al,%eax
   1cff5:	48 8b 15 44 70 00 00 	mov    0x7044(%rip),%rdx        # 24040 <g_21>
   1cffc:	21 d0                	and    %edx,%eax
   1cffe:	0f b7 c0             	movzwl %ax,%eax
   1d001:	89 de                	mov    %ebx,%esi
   1d003:	89 c7                	mov    %eax,%edi
   1d005:	e8 84 ed fe ff       	callq  bd8e <safe_div_func_uint16_t_u_u>
   1d00a:	0f b6 d0             	movzbl %al,%edx
   1d00d:	48 8b 85 98 f5 ff ff 	mov    -0xa68(%rbp),%rax
   1d014:	0f b6 c0             	movzbl %al,%eax
   1d017:	89 d6                	mov    %edx,%esi
   1d019:	89 c7                	mov    %eax,%edi
   1d01b:	e8 bb eb fe ff       	callq  bbdb <safe_div_func_uint8_t_u_u>
   1d020:	be fe ff 00 00       	mov    $0xfffe,%esi
   1d025:	bf 01 00 00 00       	mov    $0x1,%edi
   1d02a:	e8 0e ed fe ff       	callq  bd3d <safe_mul_func_uint16_t_u_u>
   1d02f:	0f b7 c0             	movzwl %ax,%eax
   1d032:	41 39 c4             	cmp    %eax,%r12d
   1d035:	75 0a                	jne    1d041 <func_75+0xab3>
   1d037:	8b 85 b8 f5 ff ff    	mov    -0xa48(%rbp),%eax
   1d03d:	85 c0                	test   %eax,%eax
   1d03f:	74 07                	je     1d048 <func_75+0xaba>
   1d041:	b9 01 00 00 00       	mov    $0x1,%ecx
   1d046:	eb 05                	jmp    1d04d <func_75+0xabf>
   1d048:	b9 00 00 00 00       	mov    $0x0,%ecx
   1d04d:	8b 85 c4 f5 ff ff    	mov    -0xa3c(%rbp),%eax
   1d053:	48 63 d0             	movslq %eax,%rdx
   1d056:	48 8b 85 08 f7 ff ff 	mov    -0x8f8(%rbp),%rax
   1d05d:	0f b7 00             	movzwl (%rax),%eax
   1d060:	31 c1                	xor    %eax,%ecx
   1d062:	48 8b 85 08 f7 ff ff 	mov    -0x8f8(%rbp),%rax
   1d069:	66 89 08             	mov    %cx,(%rax)
   1d06c:	48 8b 85 08 f7 ff ff 	mov    -0x8f8(%rbp),%rax
   1d073:	0f b7 00             	movzwl (%rax),%eax
   1d076:	48 0f bf c0          	movswq %ax,%rax
   1d07a:	25 2f bb 00 00       	and    $0xbb2f,%eax
   1d07f:	48 21 d0             	and    %rdx,%rax
   1d082:	4c 89 ee             	mov    %r13,%rsi
   1d085:	48 89 c7             	mov    %rax,%rdi
   1d088:	e8 22 f0 fe ff       	callq  c0af <safe_div_func_uint64_t_u_u>
   1d08d:	89 c2                	mov    %eax,%edx
   1d08f:	48 8b 85 88 f5 ff ff 	mov    -0xa78(%rbp),%rax
   1d096:	89 10                	mov    %edx,(%rax)
   1d098:	48 8b 85 98 f5 ff ff 	mov    -0xa68(%rbp),%rax
   1d09f:	21 85 cc f5 ff ff    	and    %eax,-0xa34(%rbp)
   1d0a5:	0f b6 05 a4 70 00 00 	movzbl 0x70a4(%rip),%eax        # 24150 <g_184>
   1d0ac:	0f b6 d0             	movzbl %al,%edx
   1d0af:	0f b7 05 f8 70 00 00 	movzwl 0x70f8(%rip),%eax        # 241ae <g_241+0xe>
   1d0b6:	98                   	cwtl   
   1d0b7:	39 c2                	cmp    %eax,%edx
   1d0b9:	0f 9e c0             	setle  %al
   1d0bc:	0f b6 c0             	movzbl %al,%eax
   1d0bf:	89 85 20 f7 ff ff    	mov    %eax,-0x8e0(%rbp)
   1d0c5:	0f b7 05 d4 6f 00 00 	movzwl 0x6fd4(%rip),%eax        # 240a0 <g_124>
   1d0cc:	66 85 c0             	test   %ax,%ax
   1d0cf:	48 8b 85 98 f5 ff ff 	mov    -0xa68(%rbp),%rax
   1d0d6:	48 83 c0 01          	add    $0x1,%rax
   1d0da:	48 89 85 98 f5 ff ff 	mov    %rax,-0xa68(%rbp)
   1d0e1:	48 8b 85 98 f5 ff ff 	mov    -0xa68(%rbp),%rax
   1d0e8:	48 83 f8 0f          	cmp    $0xf,%rax
   1d0ec:	0f 84 d9 fd ff ff    	je     1cecb <func_75+0x93d>
   1d0f2:	8b 85 c0 f5 ff ff    	mov    -0xa40(%rbp),%eax
   1d0f8:	83 e8 01             	sub    $0x1,%eax
   1d0fb:	89 85 c0 f5 ff ff    	mov    %eax,-0xa40(%rbp)
   1d101:	8b 85 c0 f5 ff ff    	mov    -0xa40(%rbp),%eax
   1d107:	83 f8 e7             	cmp    $0xffffffe7,%eax
   1d10a:	0f 85 95 fc ff ff    	jne    1cda5 <func_75+0x817>
   1d110:	0f b7 85 b0 f5 ff ff 	movzwl -0xa50(%rbp),%eax
   1d117:	83 e8 01             	sub    $0x1,%eax
   1d11a:	66 89 85 b0 f5 ff ff 	mov    %ax,-0xa50(%rbp)
   1d121:	66 83 bd b0 f5 ff ff 	cmpw   $0xffe8,-0xa50(%rbp)
   1d128:	e8 
   1d129:	0f 8c 28 f7 ff ff    	jl     1c857 <func_75+0x2c9>
   1d12f:	c6 05 66 6f 00 00 00 	movb   $0x0,0x6f66(%rip)        # 2409c <g_113>
   1d136:	eb 2e                	jmp    1d166 <func_75+0xbd8>
   1d138:	48 8b 85 78 f6 ff ff 	mov    -0x988(%rbp),%rax
   1d13f:	8b 00                	mov    (%rax),%eax
   1d141:	89 c2                	mov    %eax,%edx
   1d143:	8b 05 4b 6f 00 00    	mov    0x6f4b(%rip),%eax        # 24094 <g_44>
   1d149:	31 d0                	xor    %edx,%eax
   1d14b:	89 c2                	mov    %eax,%edx
   1d14d:	48 8b 85 78 f6 ff ff 	mov    -0x988(%rbp),%rax
   1d154:	89 10                	mov    %edx,(%rax)
   1d156:	0f b6 05 3f 6f 00 00 	movzbl 0x6f3f(%rip),%eax        # 2409c <g_113>
   1d15d:	83 e8 01             	sub    $0x1,%eax
   1d160:	88 05 36 6f 00 00    	mov    %al,0x6f36(%rip)        # 2409c <g_113>
   1d166:	0f b6 05 2f 6f 00 00 	movzbl 0x6f2f(%rip),%eax        # 2409c <g_113>
   1d16d:	3c ec                	cmp    $0xec,%al
   1d16f:	7d c7                	jge    1d138 <func_75+0xbaa>
   1d171:	48 8b 85 98 f5 ff ff 	mov    -0xa68(%rbp),%rax
   1d178:	e9 7c 0b 00 00       	jmpq   1dcf9 <func_75+0x176b>
   1d17d:	48 8d 05 cc 6f 00 00 	lea    0x6fcc(%rip),%rax        # 24150 <g_184>
   1d184:	48 89 85 40 f6 ff ff 	mov    %rax,-0x9c0(%rbp)
   1d18b:	48 8d 05 3e 6f 00 00 	lea    0x6f3e(%rip),%rax        # 240d0 <g_169+0x10>
   1d192:	48 89 85 48 f6 ff ff 	mov    %rax,-0x9b8(%rbp)
   1d199:	c7 85 d8 f5 ff ff f9 	movl   $0xfffffff9,-0xa28(%rbp)
   1d1a0:	ff ff ff 
   1d1a3:	0f b6 05 c4 6f 00 00 	movzbl 0x6fc4(%rip),%eax        # 2416e <g_190+0xe>
   1d1aa:	0f be d0             	movsbl %al,%edx
   1d1ad:	48 8b 85 40 f6 ff ff 	mov    -0x9c0(%rbp),%rax
   1d1b4:	0f b6 00             	movzbl (%rax),%eax
   1d1b7:	89 c6                	mov    %eax,%esi
   1d1b9:	8b 05 d9 6e 00 00    	mov    0x6ed9(%rip),%eax        # 24098 <g_89>
   1d1bf:	83 f0 f8             	xor    $0xfffffff8,%eax
   1d1c2:	89 c1                	mov    %eax,%ecx
   1d1c4:	8b 05 ea 6f 00 00    	mov    0x6fea(%rip),%eax        # 241b4 <g_248>
   1d1ca:	39 c1                	cmp    %eax,%ecx
   1d1cc:	0f 94 c0             	sete   %al
   1d1cf:	31 f0                	xor    %esi,%eax
   1d1d1:	89 c1                	mov    %eax,%ecx
   1d1d3:	48 8b 85 40 f6 ff ff 	mov    -0x9c0(%rbp),%rax
   1d1da:	88 08                	mov    %cl,(%rax)
   1d1dc:	48 8b 85 40 f6 ff ff 	mov    -0x9c0(%rbp),%rax
   1d1e3:	0f b6 00             	movzbl (%rax),%eax
   1d1e6:	0f b6 c0             	movzbl %al,%eax
   1d1e9:	89 d6                	mov    %edx,%esi
   1d1eb:	89 c7                	mov    %eax,%edi
   1d1ed:	e8 cc ea fe ff       	callq  bcbe <safe_rshift_func_uint8_t_u_u>
   1d1f2:	48 c7 85 50 f6 ff ff 	movq   $0x0,-0x9b0(%rbp)
   1d1f9:	00 00 00 00 
   1d1fd:	48 c7 85 58 f6 ff ff 	movq   $0x0,-0x9a8(%rbp)
   1d204:	00 00 00 00 
   1d208:	48 c7 85 60 f6 ff ff 	movq   $0x0,-0x9a0(%rbp)
   1d20f:	00 00 00 00 
   1d213:	c7 85 dc f5 ff ff 3d 	movl   $0x1d09703d,-0xa24(%rbp)
   1d21a:	70 09 1d 
   1d21d:	48 c7 85 68 f6 ff ff 	movq   $0x0,-0x998(%rbp)
   1d224:	00 00 00 00 
   1d228:	48 8d 85 b4 f5 ff ff 	lea    -0xa4c(%rbp),%rax
   1d22f:	48 89 85 70 f6 ff ff 	mov    %rax,-0x990(%rbp)
   1d236:	c7 85 d0 f5 ff ff 00 	movl   $0x0,-0xa30(%rbp)
   1d23d:	00 00 00 
   1d240:	eb 25                	jmp    1d267 <func_75+0xcd9>
   1d242:	8b 85 d0 f5 ff ff    	mov    -0xa30(%rbp),%eax
   1d248:	48 98                	cltq   
   1d24a:	48 8d 95 40 f8 ff ff 	lea    -0x7c0(%rbp),%rdx
   1d251:	48 81 c2 88 04 00 00 	add    $0x488,%rdx
   1d258:	48 89 94 c5 80 f7 ff 	mov    %rdx,-0x880(%rbp,%rax,8)
   1d25f:	ff 
   1d260:	83 85 d0 f5 ff ff 01 	addl   $0x1,-0xa30(%rbp)
   1d267:	83 bd d0 f5 ff ff 02 	cmpl   $0x2,-0xa30(%rbp)
   1d26e:	7e d2                	jle    1d242 <func_75+0xcb4>
   1d270:	48 8b 85 38 f6 ff ff 	mov    -0x9c8(%rbp),%rax
   1d277:	41 89 c7             	mov    %eax,%r15d
   1d27a:	8b 1d 18 6f 00 00    	mov    0x6f18(%rip),%ebx        # 24198 <g_214>
   1d280:	8b 85 dc f5 ff ff    	mov    -0xa24(%rbp),%eax
   1d286:	89 85 d8 f5 ff ff    	mov    %eax,-0xa28(%rbp)
   1d28c:	8b 85 d8 f5 ff ff    	mov    -0xa28(%rbp),%eax
   1d292:	0f b7 c0             	movzwl %ax,%eax
   1d295:	89 c6                	mov    %eax,%esi
   1d297:	bf 5b d9 00 00       	mov    $0xd95b,%edi
   1d29c:	e8 bb ea fe ff       	callq  bd5c <safe_mod_func_uint16_t_u_u>
   1d2a1:	0f b7 05 f8 6d 00 00 	movzwl 0x6df8(%rip),%eax        # 240a0 <g_124>
   1d2a8:	44 0f b7 e0          	movzwl %ax,%r12d
   1d2ac:	44 0f bf ad b0 f5 ff 	movswl -0xa50(%rbp),%r13d
   1d2b3:	ff 
   1d2b4:	8b 85 b8 f5 ff ff    	mov    -0xa48(%rbp),%eax
   1d2ba:	44 0f be f0          	movsbl %al,%r14d
   1d2be:	48 8b 85 98 f5 ff ff 	mov    -0xa68(%rbp),%rax
   1d2c5:	48 89 c2             	mov    %rax,%rdx
   1d2c8:	48 8b 85 98 f5 ff ff 	mov    -0xa68(%rbp),%rax
   1d2cf:	48 89 d6             	mov    %rdx,%rsi
   1d2d2:	48 89 c7             	mov    %rax,%rdi
   1d2d5:	e8 54 ed fe ff       	callq  c02e <safe_add_func_uint64_t_u_u>
   1d2da:	48 8b 85 98 f5 ff ff 	mov    -0xa68(%rbp),%rax
   1d2e1:	89 85 84 f5 ff ff    	mov    %eax,-0xa7c(%rbp)
   1d2e7:	0f b6 05 62 6e 00 00 	movzbl 0x6e62(%rip),%eax        # 24150 <g_184>
   1d2ee:	0f b6 d0             	movzbl %al,%edx
   1d2f1:	48 8b 85 98 f5 ff ff 	mov    -0xa68(%rbp),%rax
   1d2f8:	0f b6 c0             	movzbl %al,%eax
   1d2fb:	89 d6                	mov    %edx,%esi
   1d2fd:	89 c7                	mov    %eax,%edi
   1d2ff:	e8 8f e8 fe ff       	callq  bb93 <safe_mul_func_uint8_t_u_u>
   1d304:	0f b6 c0             	movzbl %al,%eax
   1d307:	8b b5 84 f5 ff ff    	mov    -0xa7c(%rbp),%esi
   1d30d:	89 c7                	mov    %eax,%edi
   1d30f:	e8 eb e3 fe ff       	callq  b6ff <safe_div_func_int32_t_s_s>
   1d314:	83 f8 01             	cmp    $0x1,%eax
   1d317:	0f 9f c0             	setg   %al
   1d31a:	0f b6 c0             	movzbl %al,%eax
   1d31d:	44 89 f6             	mov    %r14d,%esi
   1d320:	89 c7                	mov    %eax,%edi
   1d322:	e8 43 df fe ff       	callq  b26a <safe_div_func_int8_t_s_s>
   1d327:	0f be c0             	movsbl %al,%eax
   1d32a:	44 89 ee             	mov    %r13d,%esi
   1d32d:	89 c7                	mov    %eax,%edi
   1d32f:	e8 84 eb fe ff       	callq  beb8 <safe_add_func_uint32_t_u_u>
   1d334:	98                   	cwtl   
   1d335:	44 89 e6             	mov    %r12d,%esi
   1d338:	89 c7                	mov    %eax,%edi
   1d33a:	e8 a2 e1 fe ff       	callq  b4e1 <safe_lshift_func_int16_t_s_u>
   1d33f:	48 8b 85 98 f5 ff ff 	mov    -0xa68(%rbp),%rax
   1d346:	0f bf d0             	movswl %ax,%edx
   1d349:	8b 05 65 6e 00 00    	mov    0x6e65(%rip),%eax        # 241b4 <g_248>
   1d34f:	98                   	cwtl   
   1d350:	89 d6                	mov    %edx,%esi
   1d352:	89 c7                	mov    %eax,%edi
   1d354:	e8 fc e0 fe ff       	callq  b455 <safe_div_func_int16_t_s_s>
   1d359:	48 8d 85 98 f5 ff ff 	lea    -0xa68(%rbp),%rax
   1d360:	48 89 85 f8 fc ff ff 	mov    %rax,-0x308(%rbp)
   1d367:	48 8b 85 f8 fc ff ff 	mov    -0x308(%rbp),%rax
   1d36e:	48 89 85 48 f6 ff ff 	mov    %rax,-0x9b8(%rbp)
   1d375:	48 8b 85 48 f6 ff ff 	mov    -0x9b8(%rbp),%rax
   1d37c:	48 89 05 0d b6 00 00 	mov    %rax,0xb60d(%rip)        # 28990 <g_261>
   1d383:	48 8b 05 06 b6 00 00 	mov    0xb606(%rip),%rax        # 28990 <g_261>
   1d38a:	48 8d 15 6f 6d 00 00 	lea    0x6d6f(%rip),%rdx        # 24100 <g_169+0x40>
   1d391:	48 39 d0             	cmp    %rdx,%rax
   1d394:	0f 94 c0             	sete   %al
   1d397:	0f b6 c0             	movzbl %al,%eax
   1d39a:	89 de                	mov    %ebx,%esi
   1d39c:	89 c7                	mov    %eax,%edi
   1d39e:	e8 2d eb fe ff       	callq  bed0 <safe_sub_func_uint32_t_u_u>
   1d3a3:	0f b7 15 f6 6c 00 00 	movzwl 0x6cf6(%rip),%edx        # 240a0 <g_124>
   1d3aa:	0f b7 d2             	movzwl %dx,%edx
   1d3ad:	39 d0                	cmp    %edx,%eax
   1d3af:	0f 93 c0             	setae  %al
   1d3b2:	0f b6 c0             	movzbl %al,%eax
   1d3b5:	44 89 fe             	mov    %r15d,%esi
   1d3b8:	89 c7                	mov    %eax,%edi
   1d3ba:	e8 40 e3 fe ff       	callq  b6ff <safe_div_func_int32_t_s_s>
   1d3bf:	48 8b 85 98 f5 ff ff 	mov    -0xa68(%rbp),%rax
   1d3c6:	48 83 f0 01          	xor    $0x1,%rax
   1d3ca:	48 be 41 36 c0 66 60 	movabs $0x5de5156066c03641,%rsi
   1d3d1:	15 e5 5d 
   1d3d4:	48 89 c7             	mov    %rax,%rdi
   1d3d7:	e8 a4 ec fe ff       	callq  c080 <safe_mod_func_uint64_t_u_u>
   1d3dc:	48 83 f8 07          	cmp    $0x7,%rax
   1d3e0:	0f 96 c0             	setbe  %al
   1d3e3:	0f b6 d0             	movzbl %al,%edx
   1d3e6:	48 8b 85 70 f6 ff ff 	mov    -0x990(%rbp),%rax
   1d3ed:	89 10                	mov    %edx,(%rax)
   1d3ef:	8b 85 b8 f5 ff ff    	mov    -0xa48(%rbp),%eax
   1d3f5:	48 98                	cltq   
   1d3f7:	e9 fd 08 00 00       	jmpq   1dcf9 <func_75+0x176b>
   1d3fc:	c7 05 8e 6c 00 00 00 	movl   $0x0,0x6c8e(%rip)        # 24094 <g_44>
   1d403:	00 00 00 
   1d406:	e9 d8 08 00 00       	jmpq   1dce3 <func_75+0x1755>
   1d40b:	48 8d 85 b4 f5 ff ff 	lea    -0xa4c(%rbp),%rax
   1d412:	48 89 85 f0 f5 ff ff 	mov    %rax,-0xa10(%rbp)
   1d419:	66 c7 85 ae f5 ff ff 	movw   $0xffff,-0xa52(%rbp)
   1d420:	ff ff 
   1d422:	48 8d 05 75 6c 00 00 	lea    0x6c75(%rip),%rax        # 2409e <g_116>
   1d429:	48 89 85 f8 f5 ff ff 	mov    %rax,-0xa08(%rbp)
   1d430:	48 8b 85 f0 f5 ff ff 	mov    -0xa10(%rbp),%rax
   1d437:	c7 00 00 00 00 00    	movl   $0x0,(%rax)
   1d43d:	66 c7 05 58 6c 00 00 	movw   $0x0,0x6c58(%rip)        # 2409e <g_116>
   1d444:	00 00 
   1d446:	e9 be 07 00 00       	jmpq   1dc09 <func_75+0x167b>
   1d44b:	48 8d 05 52 6d 00 00 	lea    0x6d52(%rip),%rax        # 241a4 <g_241+0x4>
   1d452:	48 89 85 00 f6 ff ff 	mov    %rax,-0xa00(%rbp)
   1d459:	48 8d 05 f0 6c 00 00 	lea    0x6cf0(%rip),%rax        # 24150 <g_184>
   1d460:	48 89 85 80 f7 ff ff 	mov    %rax,-0x880(%rbp)
   1d467:	48 8d 05 e2 6c 00 00 	lea    0x6ce2(%rip),%rax        # 24150 <g_184>
   1d46e:	48 89 85 88 f7 ff ff 	mov    %rax,-0x878(%rbp)
   1d475:	48 8d 05 d4 6c 00 00 	lea    0x6cd4(%rip),%rax        # 24150 <g_184>
   1d47c:	48 89 85 90 f7 ff ff 	mov    %rax,-0x870(%rbp)
   1d483:	48 8d 05 c6 6c 00 00 	lea    0x6cc6(%rip),%rax        # 24150 <g_184>
   1d48a:	48 89 85 98 f7 ff ff 	mov    %rax,-0x868(%rbp)
   1d491:	48 c7 85 a0 f7 ff ff 	movq   $0x0,-0x860(%rbp)
   1d498:	00 00 00 00 
   1d49c:	48 8d 05 ad 6c 00 00 	lea    0x6cad(%rip),%rax        # 24150 <g_184>
   1d4a3:	48 89 85 a8 f7 ff ff 	mov    %rax,-0x858(%rbp)
   1d4aa:	48 8d 05 9f 6c 00 00 	lea    0x6c9f(%rip),%rax        # 24150 <g_184>
   1d4b1:	48 89 85 b0 f7 ff ff 	mov    %rax,-0x850(%rbp)
   1d4b8:	48 8d 05 91 6c 00 00 	lea    0x6c91(%rip),%rax        # 24150 <g_184>
   1d4bf:	48 89 85 b8 f7 ff ff 	mov    %rax,-0x848(%rbp)
   1d4c6:	48 8d 05 83 6c 00 00 	lea    0x6c83(%rip),%rax        # 24150 <g_184>
   1d4cd:	48 89 85 c0 f7 ff ff 	mov    %rax,-0x840(%rbp)
   1d4d4:	48 c7 85 c8 f7 ff ff 	movq   $0x0,-0x838(%rbp)
   1d4db:	00 00 00 00 
   1d4df:	48 8d 05 6a 6c 00 00 	lea    0x6c6a(%rip),%rax        # 24150 <g_184>
   1d4e6:	48 89 85 d0 f7 ff ff 	mov    %rax,-0x830(%rbp)
   1d4ed:	48 8d 05 5c 6c 00 00 	lea    0x6c5c(%rip),%rax        # 24150 <g_184>
   1d4f4:	48 89 85 d8 f7 ff ff 	mov    %rax,-0x828(%rbp)
   1d4fb:	48 c7 85 e0 f7 ff ff 	movq   $0x0,-0x820(%rbp)
   1d502:	00 00 00 00 
   1d506:	48 8d 05 43 6c 00 00 	lea    0x6c43(%rip),%rax        # 24150 <g_184>
   1d50d:	48 89 85 e8 f7 ff ff 	mov    %rax,-0x818(%rbp)
   1d514:	48 c7 85 f0 f7 ff ff 	movq   $0x0,-0x810(%rbp)
   1d51b:	00 00 00 00 
   1d51f:	48 8d 05 2a 6c 00 00 	lea    0x6c2a(%rip),%rax        # 24150 <g_184>
   1d526:	48 89 85 f8 f7 ff ff 	mov    %rax,-0x808(%rbp)
   1d52d:	48 8d 05 1c 6c 00 00 	lea    0x6c1c(%rip),%rax        # 24150 <g_184>
   1d534:	48 89 85 00 f8 ff ff 	mov    %rax,-0x800(%rbp)
   1d53b:	48 c7 85 08 f8 ff ff 	movq   $0x0,-0x7f8(%rbp)
   1d542:	00 00 00 00 
   1d546:	48 8d 05 03 6c 00 00 	lea    0x6c03(%rip),%rax        # 24150 <g_184>
   1d54d:	48 89 85 10 f8 ff ff 	mov    %rax,-0x7f0(%rbp)
   1d554:	48 8d 05 f5 6b 00 00 	lea    0x6bf5(%rip),%rax        # 24150 <g_184>
   1d55b:	48 89 85 18 f8 ff ff 	mov    %rax,-0x7e8(%rbp)
   1d562:	48 8d 05 e7 6b 00 00 	lea    0x6be7(%rip),%rax        # 24150 <g_184>
   1d569:	48 89 85 20 f8 ff ff 	mov    %rax,-0x7e0(%rbp)
   1d570:	48 8d 05 d9 6b 00 00 	lea    0x6bd9(%rip),%rax        # 24150 <g_184>
   1d577:	48 89 85 28 f8 ff ff 	mov    %rax,-0x7d8(%rbp)
   1d57e:	48 c7 85 30 f8 ff ff 	movq   $0x0,-0x7d0(%rbp)
   1d585:	00 00 00 00 
   1d589:	48 8d 05 c0 6b 00 00 	lea    0x6bc0(%rip),%rax        # 24150 <g_184>
   1d590:	48 89 85 38 f8 ff ff 	mov    %rax,-0x7c8(%rbp)
   1d597:	c7 85 d4 f5 ff ff b1 	movl   $0x58dfbb1,-0xa2c(%rbp)
   1d59e:	fb 8d 05 
   1d5a1:	48 c7 85 08 f6 ff ff 	movq   $0x0,-0x9f8(%rbp)
   1d5a8:	00 00 00 00 
   1d5ac:	48 8d 85 20 f7 ff ff 	lea    -0x8e0(%rbp),%rax
   1d5b3:	48 89 85 10 f6 ff ff 	mov    %rax,-0x9f0(%rbp)
   1d5ba:	48 8b 85 10 f6 ff ff 	mov    -0x9f0(%rbp),%rax
   1d5c1:	c7 00 01 00 00 00    	movl   $0x1,(%rax)
   1d5c7:	66 c7 85 b0 f5 ff ff 	movw   $0x0,-0xa50(%rbp)
   1d5ce:	00 00 
   1d5d0:	e9 15 06 00 00       	jmpq   1dbea <func_75+0x165c>
   1d5d5:	48 8d 05 96 6b 00 00 	lea    0x6b96(%rip),%rax        # 24172 <g_190+0x12>
   1d5dc:	48 89 85 18 f6 ff ff 	mov    %rax,-0x9e8(%rbp)
   1d5e3:	0f b7 05 b4 6a 00 00 	movzwl 0x6ab4(%rip),%eax        # 2409e <g_116>
   1d5ea:	0f b7 c0             	movzwl %ax,%eax
   1d5ed:	0f bf 95 b0 f5 ff ff 	movswl -0xa50(%rbp),%edx
   1d5f4:	8d 4a 01             	lea    0x1(%rdx),%ecx
   1d5f7:	0f b7 15 a0 6a 00 00 	movzwl 0x6aa0(%rip),%edx        # 2409e <g_116>
   1d5fe:	0f b7 d2             	movzwl %dx,%edx
   1d601:	48 63 f2             	movslq %edx,%rsi
   1d604:	48 63 d0             	movslq %eax,%rdx
   1d607:	48 63 c9             	movslq %ecx,%rcx
   1d60a:	48 89 d0             	mov    %rdx,%rax
   1d60d:	48 01 c0             	add    %rax,%rax
   1d610:	48 01 d0             	add    %rdx,%rax
   1d613:	48 01 c0             	add    %rax,%rax
   1d616:	48 89 ca             	mov    %rcx,%rdx
   1d619:	48 01 d2             	add    %rdx,%rdx
   1d61c:	48 01 ca             	add    %rcx,%rdx
   1d61f:	48 01 d0             	add    %rdx,%rax
   1d622:	48 01 f0             	add    %rsi,%rax
   1d625:	48 8d 14 c5 00 00 00 	lea    0x0(,%rax,8),%rdx
   1d62c:	00 
   1d62d:	48 8d 05 8c 6a 00 00 	lea    0x6a8c(%rip),%rax        # 240c0 <g_169>
   1d634:	48 8b 04 02          	mov    (%rdx,%rax,1),%rax
   1d638:	0f b7 d8             	movzwl %ax,%ebx
   1d63b:	0f b7 05 5c 6a 00 00 	movzwl 0x6a5c(%rip),%eax        # 2409e <g_116>
   1d642:	0f b7 c0             	movzwl %ax,%eax
   1d645:	0f bf 95 b0 f5 ff ff 	movswl -0xa50(%rbp),%edx
   1d64c:	8d 4a 01             	lea    0x1(%rdx),%ecx
   1d64f:	0f b7 15 48 6a 00 00 	movzwl 0x6a48(%rip),%edx        # 2409e <g_116>
   1d656:	0f b7 d2             	movzwl %dx,%edx
   1d659:	48 63 f2             	movslq %edx,%rsi
   1d65c:	48 63 d0             	movslq %eax,%rdx
   1d65f:	48 63 c9             	movslq %ecx,%rcx
   1d662:	48 89 d0             	mov    %rdx,%rax
   1d665:	48 01 c0             	add    %rax,%rax
   1d668:	48 01 d0             	add    %rdx,%rax
   1d66b:	48 01 c0             	add    %rax,%rax
   1d66e:	48 89 ca             	mov    %rcx,%rdx
   1d671:	48 01 d2             	add    %rdx,%rdx
   1d674:	48 01 ca             	add    %rcx,%rdx
   1d677:	48 01 d0             	add    %rdx,%rax
   1d67a:	48 01 f0             	add    %rsi,%rax
   1d67d:	48 8d 14 c5 00 00 00 	lea    0x0(,%rax,8),%rdx
   1d684:	00 
   1d685:	48 8d 05 34 6a 00 00 	lea    0x6a34(%rip),%rax        # 240c0 <g_169>
   1d68c:	48 8b 04 02          	mov    (%rdx,%rax,1),%rax
   1d690:	0f be c0             	movsbl %al,%eax
   1d693:	be 01 00 00 00       	mov    $0x1,%esi
   1d698:	89 c7                	mov    %eax,%edi
   1d69a:	e8 cd dc fe ff       	callq  b36c <safe_rshift_func_int8_t_s_u>
   1d69f:	0f bf 85 b0 f5 ff ff 	movswl -0xa50(%rbp),%eax
   1d6a6:	8d 70 07             	lea    0x7(%rax),%esi
   1d6a9:	0f bf 85 b0 f5 ff ff 	movswl -0xa50(%rbp),%eax
   1d6b0:	0f b7 15 e7 69 00 00 	movzwl 0x69e7(%rip),%edx        # 2409e <g_116>
   1d6b7:	0f b7 d2             	movzwl %dx,%edx
   1d6ba:	83 c2 01             	add    $0x1,%edx
   1d6bd:	48 63 ca             	movslq %edx,%rcx
   1d6c0:	48 63 d6             	movslq %esi,%rdx
   1d6c3:	48 98                	cltq   
   1d6c5:	48 01 c2             	add    %rax,%rdx
   1d6c8:	48 89 d0             	mov    %rdx,%rax
   1d6cb:	48 01 c0             	add    %rax,%rax
   1d6ce:	48 01 d0             	add    %rdx,%rax
   1d6d1:	48 01 c0             	add    %rax,%rax
   1d6d4:	48 8d 14 08          	lea    (%rax,%rcx,1),%rdx
   1d6d8:	48 8d 05 81 6a 00 00 	lea    0x6a81(%rip),%rax        # 24160 <g_190>
   1d6df:	48 01 d0             	add    %rdx,%rax
   1d6e2:	0f b6 00             	movzbl (%rax),%eax
   1d6e5:	66 98                	cbtw   
   1d6e7:	0f b7 d0             	movzwl %ax,%edx
   1d6ea:	8b 05 c4 6a 00 00    	mov    0x6ac4(%rip),%eax        # 241b4 <g_248>
   1d6f0:	0f b7 c0             	movzwl %ax,%eax
   1d6f3:	89 d6                	mov    %edx,%esi
   1d6f5:	89 c7                	mov    %eax,%edi
   1d6f7:	e8 41 e6 fe ff       	callq  bd3d <safe_mul_func_uint16_t_u_u>
   1d6fc:	89 c2                	mov    %eax,%edx
   1d6fe:	8b 05 b0 6a 00 00    	mov    0x6ab0(%rip),%eax        # 241b4 <g_248>
   1d704:	31 d0                	xor    %edx,%eax
   1d706:	89 c2                	mov    %eax,%edx
   1d708:	48 8b 85 18 f6 ff ff 	mov    -0x9e8(%rbp),%rax
   1d70f:	88 10                	mov    %dl,(%rax)
   1d711:	48 c7 c6 fa ff ff ff 	mov    $0xfffffffffffffffa,%rsi
   1d718:	bf 00 00 00 00       	mov    $0x0,%edi
   1d71d:	e8 29 e9 fe ff       	callq  c04b <safe_sub_func_uint64_t_u_u>
   1d722:	0f be c0             	movsbl %al,%eax
   1d725:	be 07 00 00 00       	mov    $0x7,%esi
   1d72a:	89 c7                	mov    %eax,%edi
   1d72c:	e8 c1 da fe ff       	callq  b1f2 <safe_sub_func_int8_t_s_s>
   1d731:	8b 85 3c f7 ff ff    	mov    -0x8c4(%rbp),%eax
   1d737:	0f be c0             	movsbl %al,%eax
   1d73a:	89 c6                	mov    %eax,%esi
   1d73c:	bf f8 ff ff ff       	mov    $0xfffffff8,%edi
   1d741:	e8 eb da fe ff       	callq  b231 <safe_mod_func_int8_t_s_s>
   1d746:	be 06 00 00 00       	mov    $0x6,%esi
   1d74b:	bf 01 00 00 00       	mov    $0x1,%edi
   1d750:	e8 f7 e4 fe ff       	callq  bc4c <safe_lshift_func_uint8_t_u_u>
   1d755:	48 8b 85 98 f5 ff ff 	mov    -0xa68(%rbp),%rax
   1d75c:	98                   	cwtl   
   1d75d:	89 c6                	mov    %eax,%esi
   1d75f:	bf 1b 57 00 00       	mov    $0x571b,%edi
   1d764:	e8 4a dc fe ff       	callq  b3b3 <safe_add_func_int16_t_s_s>
   1d769:	0f b7 c0             	movzwl %ax,%eax
   1d76c:	89 de                	mov    %ebx,%esi
   1d76e:	89 c7                	mov    %eax,%edi
   1d770:	e8 19 e6 fe ff       	callq  bd8e <safe_div_func_uint16_t_u_u>
   1d775:	48 8b 85 10 f6 ff ff 	mov    -0x9f0(%rbp),%rax
   1d77c:	c7 00 00 00 00 00    	movl   $0x0,(%rax)
   1d782:	66 c7 85 ae f5 ff ff 	movw   $0x2,-0xa52(%rbp)
   1d789:	02 00 
   1d78b:	e9 3b 04 00 00       	jmpq   1dbcb <func_75+0x163d>
   1d790:	48 8d 05 f1 b1 00 00 	lea    0xb1f1(%rip),%rax        # 28988 <g_239>
   1d797:	48 89 85 20 f6 ff ff 	mov    %rax,-0x9e0(%rbp)
   1d79e:	c6 05 f7 68 00 00 02 	movb   $0x2,0x68f7(%rip)        # 2409c <g_113>
   1d7a5:	e9 92 00 00 00       	jmpq   1d83c <func_75+0x12ae>
   1d7aa:	48 8d 85 40 f8 ff ff 	lea    -0x7c0(%rbp),%rax
   1d7b1:	48 8d 15 c8 33 00 00 	lea    0x33c8(%rip),%rdx        # 20b80 <g_2990+0x1b08>
   1d7b8:	b9 f0 00 00 00       	mov    $0xf0,%ecx
   1d7bd:	48 89 c7             	mov    %rax,%rdi
   1d7c0:	48 89 d6             	mov    %rdx,%rsi
   1d7c3:	f3 48 a5             	rep movsq %ds:(%rsi),%es:(%rdi)
   1d7c6:	83 bd d4 f5 ff ff 00 	cmpl   $0x0,-0xa2c(%rbp)
   1d7cd:	75 61                	jne    1d830 <func_75+0x12a2>
   1d7cf:	48 8b 85 f0 f5 ff ff 	mov    -0xa10(%rbp),%rax
   1d7d6:	8b 00                	mov    (%rax),%eax
   1d7d8:	89 c1                	mov    %eax,%ecx
   1d7da:	0f bf 85 b0 f5 ff ff 	movswl -0xa50(%rbp),%eax
   1d7e1:	48 98                	cltq   
   1d7e3:	48 8d 14 85 00 00 00 	lea    0x0(,%rax,4),%rdx
   1d7ea:	00 
   1d7eb:	48 8d 05 c2 69 00 00 	lea    0x69c2(%rip),%rax        # 241b4 <g_248>
   1d7f2:	8b 04 02             	mov    (%rdx,%rax,1),%eax
   1d7f5:	31 c8                	xor    %ecx,%eax
   1d7f7:	89 c2                	mov    %eax,%edx
   1d7f9:	48 8b 85 f0 f5 ff ff 	mov    -0xa10(%rbp),%rax
   1d800:	89 10                	mov    %edx,(%rax)
   1d802:	48 8b 85 40 f8 ff ff 	mov    -0x7c0(%rbp),%rax
   1d809:	48 83 e8 01          	sub    $0x1,%rax
   1d80d:	48 89 85 40 f8 ff ff 	mov    %rax,-0x7c0(%rbp)
   1d814:	8b 05 7e 68 00 00    	mov    0x687e(%rip),%eax        # 24098 <g_89>
   1d81a:	85 c0                	test   %eax,%eax
   1d81c:	75 18                	jne    1d836 <func_75+0x12a8>
   1d81e:	0f b6 05 77 68 00 00 	movzbl 0x6877(%rip),%eax        # 2409c <g_113>
   1d825:	83 e8 01             	sub    $0x1,%eax
   1d828:	88 05 6e 68 00 00    	mov    %al,0x686e(%rip)        # 2409c <g_113>
   1d82e:	eb 0c                	jmp    1d83c <func_75+0x12ae>
   1d830:	90                   	nop
   1d831:	e9 25 ee ff ff       	jmpq   1c65b <func_75+0xcd>
   1d836:	90                   	nop
   1d837:	e9 1f ee ff ff       	jmpq   1c65b <func_75+0xcd>
   1d83c:	0f b6 05 59 68 00 00 	movzbl 0x6859(%rip),%eax        # 2409c <g_113>
   1d843:	84 c0                	test   %al,%al
   1d845:	0f 89 5f ff ff ff    	jns    1d7aa <func_75+0x121c>
   1d84b:	48 8b 05 66 69 00 00 	mov    0x6966(%rip),%rax        # 241b8 <g_300>
   1d852:	89 c2                	mov    %eax,%edx
   1d854:	48 8b 85 f0 f5 ff ff 	mov    -0xa10(%rbp),%rax
   1d85b:	89 10                	mov    %edx,(%rax)
   1d85d:	48 8b 85 f0 f5 ff ff 	mov    -0xa10(%rbp),%rax
   1d864:	8b 00                	mov    (%rax),%eax
   1d866:	48 63 d8             	movslq %eax,%rbx
   1d869:	0f b7 05 2e 68 00 00 	movzwl 0x682e(%rip),%eax        # 2409e <g_116>
   1d870:	44 0f b7 e0          	movzwl %ax,%r12d
   1d874:	0f b7 05 23 68 00 00 	movzwl 0x6823(%rip),%eax        # 2409e <g_116>
   1d87b:	0f b7 c0             	movzwl %ax,%eax
   1d87e:	0f bf 95 b0 f5 ff ff 	movswl -0xa50(%rbp),%edx
   1d885:	8d 4a 01             	lea    0x1(%rdx),%ecx
   1d888:	0f b7 15 0f 68 00 00 	movzwl 0x680f(%rip),%edx        # 2409e <g_116>
   1d88f:	0f b7 d2             	movzwl %dx,%edx
   1d892:	48 63 f2             	movslq %edx,%rsi
   1d895:	48 63 d0             	movslq %eax,%rdx
   1d898:	48 63 c9             	movslq %ecx,%rcx
   1d89b:	48 89 d0             	mov    %rdx,%rax
   1d89e:	48 01 c0             	add    %rax,%rax
   1d8a1:	48 01 d0             	add    %rdx,%rax
   1d8a4:	48 01 c0             	add    %rax,%rax
   1d8a7:	48 89 ca             	mov    %rcx,%rdx
   1d8aa:	48 01 d2             	add    %rdx,%rdx
   1d8ad:	48 01 ca             	add    %rcx,%rdx
   1d8b0:	48 01 d0             	add    %rdx,%rax
   1d8b3:	48 01 f0             	add    %rsi,%rax
   1d8b6:	48 8d 14 c5 00 00 00 	lea    0x0(,%rax,8),%rdx
   1d8bd:	00 
   1d8be:	48 8d 05 fb 67 00 00 	lea    0x67fb(%rip),%rax        # 240c0 <g_169>
   1d8c5:	48 8b 04 02          	mov    (%rdx,%rax,1),%rax
   1d8c9:	83 e0 05             	and    $0x5,%eax
   1d8cc:	49 89 c6             	mov    %rax,%r14
   1d8cf:	0f b7 05 b2 b0 00 00 	movzwl 0xb0b2(%rip),%eax        # 28988 <g_239>
   1d8d6:	66 85 c0             	test   %ax,%ax
   1d8d9:	0f 85 d0 00 00 00    	jne    1d9af <func_75+0x1421>
   1d8df:	0f b7 05 c0 68 00 00 	movzwl 0x68c0(%rip),%eax        # 241a6 <g_241+0x6>
   1d8e6:	44 0f bf e8          	movswl %ax,%r13d
   1d8ea:	48 8b 85 f0 f5 ff ff 	mov    -0xa10(%rbp),%rax
   1d8f1:	8b 00                	mov    (%rax),%eax
   1d8f3:	83 f8 01             	cmp    $0x1,%eax
   1d8f6:	0f 96 c0             	setbe  %al
   1d8f9:	0f b6 c0             	movzbl %al,%eax
   1d8fc:	be 01 00 00 00       	mov    $0x1,%esi
   1d901:	48 89 c7             	mov    %rax,%rdi
   1d904:	e8 42 e7 fe ff       	callq  c04b <safe_sub_func_uint64_t_u_u>
   1d909:	0f b6 c0             	movzbl %al,%eax
   1d90c:	44 89 ee             	mov    %r13d,%esi
   1d90f:	89 c7                	mov    %eax,%edi
   1d911:	e8 36 e3 fe ff       	callq  bc4c <safe_lshift_func_uint8_t_u_u>
   1d916:	48 8b 85 10 f6 ff ff 	mov    -0x9f0(%rbp),%rax
   1d91d:	8b 00                	mov    (%rax),%eax
   1d91f:	0f b7 c0             	movzwl %ax,%eax
   1d922:	be 01 00 00 00       	mov    $0x1,%esi
   1d927:	89 c7                	mov    %eax,%edi
   1d929:	e8 0f e4 fe ff       	callq  bd3d <safe_mul_func_uint16_t_u_u>
   1d92e:	48 8b 95 20 f6 ff ff 	mov    -0x9e0(%rbp),%rdx
   1d935:	0f b7 12             	movzwl (%rdx),%edx
   1d938:	09 c2                	or     %eax,%edx
   1d93a:	48 8b 85 20 f6 ff ff 	mov    -0x9e0(%rbp),%rax
   1d941:	66 89 10             	mov    %dx,(%rax)
   1d944:	48 8b 85 20 f6 ff ff 	mov    -0x9e0(%rbp),%rax
   1d94b:	0f b7 00             	movzwl (%rax),%eax
   1d94e:	48 0f bf d0          	movswq %ax,%rdx
   1d952:	48 8b 85 98 f5 ff ff 	mov    -0xa68(%rbp),%rax
   1d959:	48 39 c2             	cmp    %rax,%rdx
   1d95c:	0f 9d c0             	setge  %al
   1d95f:	0f b6 c8             	movzbl %al,%ecx
   1d962:	0f bf 85 b0 f5 ff ff 	movswl -0xa50(%rbp),%eax
   1d969:	8d 78 07             	lea    0x7(%rax),%edi
   1d96c:	0f bf 85 b0 f5 ff ff 	movswl -0xa50(%rbp),%eax
   1d973:	0f b7 15 24 67 00 00 	movzwl 0x6724(%rip),%edx        # 2409e <g_116>
   1d97a:	0f b7 d2             	movzwl %dx,%edx
   1d97d:	83 c2 01             	add    $0x1,%edx
   1d980:	48 63 f2             	movslq %edx,%rsi
   1d983:	48 63 d7             	movslq %edi,%rdx
   1d986:	48 98                	cltq   
   1d988:	48 01 c2             	add    %rax,%rdx
   1d98b:	48 89 d0             	mov    %rdx,%rax
   1d98e:	48 01 c0             	add    %rax,%rax
   1d991:	48 01 d0             	add    %rdx,%rax
   1d994:	48 01 c0             	add    %rax,%rax
   1d997:	48 8d 14 30          	lea    (%rax,%rsi,1),%rdx
   1d99b:	48 8d 05 be 67 00 00 	lea    0x67be(%rip),%rax        # 24160 <g_190>
   1d9a2:	48 01 d0             	add    %rdx,%rax
   1d9a5:	0f b6 00             	movzbl (%rax),%eax
   1d9a8:	0f be c0             	movsbl %al,%eax
   1d9ab:	39 c1                	cmp    %eax,%ecx
   1d9ad:	74 07                	je     1d9b6 <func_75+0x1428>
   1d9af:	ba 01 00 00 00       	mov    $0x1,%edx
   1d9b4:	eb 05                	jmp    1d9bb <func_75+0x142d>
   1d9b6:	ba 00 00 00 00       	mov    $0x0,%edx
   1d9bb:	0f b7 05 de 66 00 00 	movzwl 0x66de(%rip),%eax        # 240a0 <g_124>
   1d9c2:	0f b7 c0             	movzwl %ax,%eax
   1d9c5:	39 c2                	cmp    %eax,%edx
   1d9c7:	0f 9e c0             	setle  %al
   1d9ca:	0f b6 c0             	movzbl %al,%eax
   1d9cd:	49 39 c6             	cmp    %rax,%r14
   1d9d0:	0f 9c c2             	setl   %dl
   1d9d3:	0f b7 05 c4 66 00 00 	movzwl 0x66c4(%rip),%eax        # 2409e <g_116>
   1d9da:	0f b7 c0             	movzwl %ax,%eax
   1d9dd:	8d 78 01             	lea    0x1(%rax),%edi
   1d9e0:	0f bf 85 b0 f5 ff ff 	movswl -0xa50(%rbp),%eax
   1d9e7:	8d 70 01             	lea    0x1(%rax),%esi
   1d9ea:	0f bf 85 b0 f5 ff ff 	movswl -0xa50(%rbp),%eax
   1d9f1:	44 8d 40 01          	lea    0x1(%rax),%r8d
   1d9f5:	44 0f b6 ca          	movzbl %dl,%r9d
   1d9f9:	4d 63 d0             	movslq %r8d,%r10
   1d9fc:	48 63 d7             	movslq %edi,%rdx
   1d9ff:	48 63 ce             	movslq %esi,%rcx
   1da02:	48 89 d0             	mov    %rdx,%rax
   1da05:	48 01 c0             	add    %rax,%rax
   1da08:	48 01 d0             	add    %rdx,%rax
   1da0b:	48 01 c0             	add    %rax,%rax
   1da0e:	48 89 ca             	mov    %rcx,%rdx
   1da11:	48 01 d2             	add    %rdx,%rdx
   1da14:	48 01 ca             	add    %rcx,%rdx
   1da17:	48 01 d0             	add    %rdx,%rax
   1da1a:	4c 01 d0             	add    %r10,%rax
   1da1d:	48 8d 14 c5 00 00 00 	lea    0x0(,%rax,8),%rdx
   1da24:	00 
   1da25:	48 8d 05 94 66 00 00 	lea    0x6694(%rip),%rax        # 240c0 <g_169>
   1da2c:	4c 89 0c 02          	mov    %r9,(%rdx,%rax,1)
   1da30:	4d 63 c0             	movslq %r8d,%r8
   1da33:	48 63 d7             	movslq %edi,%rdx
   1da36:	48 63 ce             	movslq %esi,%rcx
   1da39:	48 89 d0             	mov    %rdx,%rax
   1da3c:	48 01 c0             	add    %rax,%rax
   1da3f:	48 01 d0             	add    %rdx,%rax
   1da42:	48 01 c0             	add    %rax,%rax
   1da45:	48 89 ca             	mov    %rcx,%rdx
   1da48:	48 01 d2             	add    %rdx,%rdx
   1da4b:	48 01 ca             	add    %rcx,%rdx
   1da4e:	48 01 d0             	add    %rdx,%rax
   1da51:	4c 01 c0             	add    %r8,%rax
   1da54:	48 8d 14 c5 00 00 00 	lea    0x0(,%rax,8),%rdx
   1da5b:	00 
   1da5c:	48 8d 05 5d 66 00 00 	lea    0x665d(%rip),%rax        # 240c0 <g_169>
   1da63:	48 8b 04 02          	mov    (%rdx,%rax,1),%rax
   1da67:	4c 89 e6             	mov    %r12,%rsi
   1da6a:	48 89 c7             	mov    %rax,%rdi
   1da6d:	e8 cf dd fe ff       	callq  b841 <safe_add_func_int64_t_s_s>
   1da72:	48 8b 05 ff 65 00 00 	mov    0x65ff(%rip),%rax        # 24078 <g_21+0x38>
   1da79:	48 8b 95 98 f5 ff ff 	mov    -0xa68(%rbp),%rdx
   1da80:	48 39 d0             	cmp    %rdx,%rax
   1da83:	0f 94 c0             	sete   %al
   1da86:	0f b6 c0             	movzbl %al,%eax
   1da89:	48 89 de             	mov    %rbx,%rsi
   1da8c:	48 89 c7             	mov    %rax,%rdi
   1da8f:	e8 9a e5 fe ff       	callq  c02e <safe_add_func_uint64_t_u_u>
   1da94:	0f b6 c0             	movzbl %al,%eax
   1da97:	be 09 00 00 00       	mov    $0x9,%esi
   1da9c:	89 c7                	mov    %eax,%edi
   1da9e:	e8 b7 e0 fe ff       	callq  bb5a <safe_add_func_uint8_t_u_u>
   1daa3:	0f be c0             	movsbl %al,%eax
   1daa6:	be 01 00 00 00       	mov    $0x1,%esi
   1daab:	89 c7                	mov    %eax,%edi
   1daad:	e8 7f d7 fe ff       	callq  b231 <safe_mod_func_int8_t_s_s>
   1dab2:	0f b7 05 e5 65 00 00 	movzwl 0x65e5(%rip),%eax        # 2409e <g_116>
   1dab9:	0f b7 c0             	movzwl %ax,%eax
   1dabc:	0f bf 95 b0 f5 ff ff 	movswl -0xa50(%rbp),%edx
   1dac3:	8d 4a 01             	lea    0x1(%rdx),%ecx
   1dac6:	0f b7 15 d1 65 00 00 	movzwl 0x65d1(%rip),%edx        # 2409e <g_116>
   1dacd:	0f b7 d2             	movzwl %dx,%edx
   1dad0:	48 63 f2             	movslq %edx,%rsi
   1dad3:	48 63 d0             	movslq %eax,%rdx
   1dad6:	48 63 c9             	movslq %ecx,%rcx
   1dad9:	48 89 d0             	mov    %rdx,%rax
   1dadc:	48 01 c0             	add    %rax,%rax
   1dadf:	48 01 d0             	add    %rdx,%rax
   1dae2:	48 01 c0             	add    %rax,%rax
   1dae5:	48 89 ca             	mov    %rcx,%rdx
   1dae8:	48 01 d2             	add    %rdx,%rdx
   1daeb:	48 01 ca             	add    %rcx,%rdx
   1daee:	48 01 d0             	add    %rdx,%rax
   1daf1:	48 01 f0             	add    %rsi,%rax
   1daf4:	48 8d 14 c5 00 00 00 	lea    0x0(,%rax,8),%rdx
   1dafb:	00 
   1dafc:	48 8d 05 bd 65 00 00 	lea    0x65bd(%rip),%rax        # 240c0 <g_169>
   1db03:	48 8b 04 02          	mov    (%rdx,%rax,1),%rax
   1db07:	48 85 c0             	test   %rax,%rax
   1db0a:	75 0d                	jne    1db19 <func_75+0x158b>
   1db0c:	48 8b 85 f0 f5 ff ff 	mov    -0xa10(%rbp),%rax
   1db13:	8b 00                	mov    (%rax),%eax
   1db15:	85 c0                	test   %eax,%eax
   1db17:	74 07                	je     1db20 <func_75+0x1592>
   1db19:	b8 01 00 00 00       	mov    $0x1,%eax
   1db1e:	eb 05                	jmp    1db25 <func_75+0x1597>
   1db20:	b8 00 00 00 00       	mov    $0x0,%eax
   1db25:	48 63 d0             	movslq %eax,%rdx
   1db28:	48 8b 05 89 66 00 00 	mov    0x6689(%rip),%rax        # 241b8 <g_300>
   1db2f:	48 39 c2             	cmp    %rax,%rdx
   1db32:	0f 93 c0             	setae  %al
   1db35:	0f b6 c0             	movzbl %al,%eax
   1db38:	89 05 82 66 00 00    	mov    %eax,0x6682(%rip)        # 241c0 <g_362>
   1db3e:	0f b7 05 59 65 00 00 	movzwl 0x6559(%rip),%eax        # 2409e <g_116>
   1db45:	0f b7 c0             	movzwl %ax,%eax
   1db48:	8d 50 01             	lea    0x1(%rax),%edx
   1db4b:	0f bf 85 b0 f5 ff ff 	movswl -0xa50(%rbp),%eax
   1db52:	8d 48 01             	lea    0x1(%rax),%ecx
   1db55:	0f bf 85 b0 f5 ff ff 	movswl -0xa50(%rbp),%eax
   1db5c:	83 c0 01             	add    $0x1,%eax
   1db5f:	48 63 f0             	movslq %eax,%rsi
   1db62:	48 63 d2             	movslq %edx,%rdx
   1db65:	48 63 c9             	movslq %ecx,%rcx
   1db68:	48 89 d0             	mov    %rdx,%rax
   1db6b:	48 01 c0             	add    %rax,%rax
   1db6e:	48 01 d0             	add    %rdx,%rax
   1db71:	48 01 c0             	add    %rax,%rax
   1db74:	48 89 ca             	mov    %rcx,%rdx
   1db77:	48 01 d2             	add    %rdx,%rdx
   1db7a:	48 01 ca             	add    %rcx,%rdx
   1db7d:	48 01 d0             	add    %rdx,%rax
   1db80:	48 01 f0             	add    %rsi,%rax
   1db83:	48 8d 14 c5 00 00 00 	lea    0x0(,%rax,8),%rdx
   1db8a:	00 
   1db8b:	48 8d 05 2e 65 00 00 	lea    0x652e(%rip),%rax        # 240c0 <g_169>
   1db92:	48 8b 04 02          	mov    (%rdx,%rax,1),%rax
   1db96:	48 89 c2             	mov    %rax,%rdx
   1db99:	8b 05 f5 64 00 00    	mov    0x64f5(%rip),%eax        # 24094 <g_44>
   1db9f:	89 c0                	mov    %eax,%eax
   1dba1:	48 89 d6             	mov    %rdx,%rsi
   1dba4:	48 89 c7             	mov    %rax,%rdi
   1dba7:	e8 9f e4 fe ff       	callq  c04b <safe_sub_func_uint64_t_u_u>
   1dbac:	8b 95 44 f7 ff ff    	mov    -0x8bc(%rbp),%edx
   1dbb2:	31 d0                	xor    %edx,%eax
   1dbb4:	89 85 44 f7 ff ff    	mov    %eax,-0x8bc(%rbp)
   1dbba:	0f b7 85 ae f5 ff ff 	movzwl -0xa52(%rbp),%eax
   1dbc1:	83 e8 01             	sub    $0x1,%eax
   1dbc4:	66 89 85 ae f5 ff ff 	mov    %ax,-0xa52(%rbp)
   1dbcb:	66 83 bd ae f5 ff ff 	cmpw   $0x0,-0xa52(%rbp)
   1dbd2:	00 
   1dbd3:	0f 89 b7 fb ff ff    	jns    1d790 <func_75+0x1202>
   1dbd9:	0f b7 85 b0 f5 ff ff 	movzwl -0xa50(%rbp),%eax
   1dbe0:	83 c0 01             	add    $0x1,%eax
   1dbe3:	66 89 85 b0 f5 ff ff 	mov    %ax,-0xa50(%rbp)
   1dbea:	66 83 bd b0 f5 ff ff 	cmpw   $0x0,-0xa50(%rbp)
   1dbf1:	00 
   1dbf2:	0f 8e dd f9 ff ff    	jle    1d5d5 <func_75+0x1047>
   1dbf8:	0f b7 05 9f 64 00 00 	movzwl 0x649f(%rip),%eax        # 2409e <g_116>
   1dbff:	83 c0 01             	add    $0x1,%eax
   1dc02:	66 89 05 95 64 00 00 	mov    %ax,0x6495(%rip)        # 2409e <g_116>
   1dc09:	0f b7 05 8e 64 00 00 	movzwl 0x648e(%rip),%eax        # 2409e <g_116>
   1dc10:	66 83 f8 01          	cmp    $0x1,%ax
   1dc14:	0f 86 31 f8 ff ff    	jbe    1d44b <func_75+0xebd>
   1dc1a:	48 8b 85 f0 f5 ff ff 	mov    -0xa10(%rbp),%rax
   1dc21:	8b 00                	mov    (%rax),%eax
   1dc23:	0f be c0             	movsbl %al,%eax
   1dc26:	be 05 00 00 00       	mov    $0x5,%esi
   1dc2b:	89 c7                	mov    %eax,%edi
   1dc2d:	e8 bc d6 fe ff       	callq  b2ee <safe_lshift_func_int8_t_s_u>
   1dc32:	48 8b 1d 3f 64 00 00 	mov    0x643f(%rip),%rbx        # 24078 <g_21+0x38>
   1dc39:	66 83 bd b2 f5 ff ff 	cmpw   $0x0,-0xa4e(%rbp)
   1dc40:	00 
   1dc41:	75 49                	jne    1dc8c <func_75+0x16fe>
   1dc43:	8b 05 6b 65 00 00    	mov    0x656b(%rip),%eax        # 241b4 <g_248>
   1dc49:	89 c2                	mov    %eax,%edx
   1dc4b:	48 8b 85 98 f5 ff ff 	mov    -0xa68(%rbp),%rax
   1dc52:	48 39 c2             	cmp    %rax,%rdx
   1dc55:	0f 95 c0             	setne  %al
   1dc58:	0f b6 d0             	movzbl %al,%edx
   1dc5b:	48 8b 85 f0 f5 ff ff 	mov    -0xa10(%rbp),%rax
   1dc62:	89 10                	mov    %edx,(%rax)
   1dc64:	48 8b 85 f0 f5 ff ff 	mov    -0xa10(%rbp),%rax
   1dc6b:	8b 00                	mov    (%rax),%eax
   1dc6d:	66 89 05 50 65 00 00 	mov    %ax,0x6550(%rip)        # 241c4 <g_373>
   1dc74:	0f b7 05 49 65 00 00 	movzwl 0x6549(%rip),%eax        # 241c4 <g_373>
   1dc7b:	98                   	cwtl   
   1dc7c:	89 c6                	mov    %eax,%esi
   1dc7e:	bf ff ff ff ff       	mov    $0xffffffff,%edi
   1dc83:	e8 30 e2 fe ff       	callq  beb8 <safe_add_func_uint32_t_u_u>
   1dc88:	85 c0                	test   %eax,%eax
   1dc8a:	74 07                	je     1dc93 <func_75+0x1705>
   1dc8c:	b8 01 00 00 00       	mov    $0x1,%eax
   1dc91:	eb 05                	jmp    1dc98 <func_75+0x170a>
   1dc93:	b8 00 00 00 00       	mov    $0x0,%eax
   1dc98:	0f b7 d0             	movzwl %ax,%edx
   1dc9b:	48 8b 85 98 f5 ff ff 	mov    -0xa68(%rbp),%rax
   1dca2:	48 85 c0             	test   %rax,%rax
   1dca5:	0f 95 c0             	setne  %al
   1dca8:	0f b6 c0             	movzbl %al,%eax
   1dcab:	89 d6                	mov    %edx,%esi
   1dcad:	89 c7                	mov    %eax,%edi
   1dcaf:	e8 89 e0 fe ff       	callq  bd3d <safe_mul_func_uint16_t_u_u>
   1dcb4:	0f b7 c0             	movzwl %ax,%eax
   1dcb7:	48 39 c3             	cmp    %rax,%rbx
   1dcba:	0f 97 c0             	seta   %al
   1dcbd:	0f b6 c0             	movzbl %al,%eax
   1dcc0:	48 63 d0             	movslq %eax,%rdx
   1dcc3:	48 8b 05 fe 64 00 00 	mov    0x64fe(%rip),%rax        # 241c8 <g_374>
   1dcca:	48 09 d0             	or     %rdx,%rax
   1dccd:	48 89 05 f4 64 00 00 	mov    %rax,0x64f4(%rip)        # 241c8 <g_374>
   1dcd4:	8b 05 ba 63 00 00    	mov    0x63ba(%rip),%eax        # 24094 <g_44>
   1dcda:	83 c0 01             	add    $0x1,%eax
   1dcdd:	89 05 b1 63 00 00    	mov    %eax,0x63b1(%rip)        # 24094 <g_44>
   1dce3:	8b 05 ab 63 00 00    	mov    0x63ab(%rip),%eax        # 24094 <g_44>
   1dce9:	83 f8 2f             	cmp    $0x2f,%eax
   1dcec:	0f 84 19 f7 ff ff    	je     1d40b <func_75+0xe7d>
   1dcf2:	48 8b 85 98 f5 ff ff 	mov    -0xa68(%rbp),%rax
   1dcf9:	48 8b 5d c8          	mov    -0x38(%rbp),%rbx
   1dcfd:	64 48 33 1c 25 28 00 	xor    %fs:0x28,%rbx
   1dd04:	00 00 
   1dd06:	74 05                	je     1dd0d <func_75+0x177f>
   1dd08:	e8 63 d3 fe ff       	callq  b070 <__stack_chk_fail@plt>
   1dd0d:	48 81 c4 58 0a 00 00 	add    $0xa58,%rsp
   1dd14:	5b                   	pop    %rbx
   1dd15:	41 5c                	pop    %r12
   1dd17:	41 5d                	pop    %r13
   1dd19:	41 5e                	pop    %r14
   1dd1b:	41 5f                	pop    %r15
   1dd1d:	5d                   	pop    %rbp
   1dd1e:	c3                   	retq   

000000000001dd1f <main>:
   1dd1f:	f3 0f 1e fa          	endbr64 
   1dd23:	55                   	push   %rbp
   1dd24:	48 89 e5             	mov    %rsp,%rbp
   1dd27:	48 83 ec 20          	sub    $0x20,%rsp
   1dd2b:	89 7d ec             	mov    %edi,-0x14(%rbp)
   1dd2e:	48 89 75 e0          	mov    %rsi,-0x20(%rbp)
   1dd32:	c7 45 fc 00 00 00 00 	movl   $0x0,-0x4(%rbp)
   1dd39:	83 7d ec 02          	cmpl   $0x2,-0x14(%rbp)
   1dd3d:	75 25                	jne    1dd64 <main+0x45>
   1dd3f:	48 8b 45 e0          	mov    -0x20(%rbp),%rax
   1dd43:	48 83 c0 08          	add    $0x8,%rax
   1dd47:	48 8b 00             	mov    (%rax),%rax
   1dd4a:	48 8d 35 af 35 00 00 	lea    0x35af(%rip),%rsi        # 21300 <g_2990+0x2288>
   1dd51:	48 89 c7             	mov    %rax,%rdi
   1dd54:	e8 37 d3 fe ff       	callq  b090 <strcmp@plt>
   1dd59:	85 c0                	test   %eax,%eax
   1dd5b:	75 07                	jne    1dd64 <main+0x45>
   1dd5d:	c7 45 fc 01 00 00 00 	movl   $0x1,-0x4(%rbp)
   1dd64:	e8 20 d4 fe ff       	callq  b189 <platform_main_begin>
   1dd69:	e8 2a e8 fe ff       	callq  c598 <crc32_gentab>
   1dd6e:	e8 42 ea fe ff       	callq  c7b5 <func_1>
   1dd73:	c7 45 f0 00 00 00 00 	movl   $0x0,-0x10(%rbp)
   1dd7a:	eb 4a                	jmp    1ddc6 <main+0xa7>
   1dd7c:	8b 45 f0             	mov    -0x10(%rbp),%eax
   1dd7f:	48 98                	cltq   
   1dd81:	48 8d 14 c5 00 00 00 	lea    0x0(,%rax,8),%rdx
   1dd88:	00 
   1dd89:	48 8d 05 b0 62 00 00 	lea    0x62b0(%rip),%rax        # 24040 <g_21>
   1dd90:	48 8b 04 02          	mov    (%rdx,%rax,1),%rax
   1dd94:	8b 55 fc             	mov    -0x4(%rbp),%edx
   1dd97:	48 8d 35 64 35 00 00 	lea    0x3564(%rip),%rsi        # 21302 <g_2990+0x228a>
   1dd9e:	48 89 c7             	mov    %rax,%rdi
   1dda1:	e8 4d e9 fe ff       	callq  c6f3 <transparent_crc>
   1dda6:	83 7d fc 00          	cmpl   $0x0,-0x4(%rbp)
   1ddaa:	74 16                	je     1ddc2 <main+0xa3>
   1ddac:	8b 45 f0             	mov    -0x10(%rbp),%eax
   1ddaf:	89 c6                	mov    %eax,%esi
   1ddb1:	48 8d 3d 52 35 00 00 	lea    0x3552(%rip),%rdi        # 2130a <g_2990+0x2292>
   1ddb8:	b8 00 00 00 00       	mov    $0x0,%eax
   1ddbd:	e8 be d2 fe ff       	callq  b080 <printf@plt>
   1ddc2:	83 45 f0 01          	addl   $0x1,-0x10(%rbp)
   1ddc6:	83 7d f0 09          	cmpl   $0x9,-0x10(%rbp)
   1ddca:	7e b0                	jle    1dd7c <main+0x5d>
   1ddcc:	0f b6 05 bd 62 00 00 	movzbl 0x62bd(%rip),%eax        # 24090 <g_27>
   1ddd3:	48 0f be c0          	movsbq %al,%rax
   1ddd7:	8b 55 fc             	mov    -0x4(%rbp),%edx
   1ddda:	48 8d 35 37 35 00 00 	lea    0x3537(%rip),%rsi        # 21318 <g_2990+0x22a0>
   1dde1:	48 89 c7             	mov    %rax,%rdi
   1dde4:	e8 0a e9 fe ff       	callq  c6f3 <transparent_crc>
   1dde9:	0f b6 05 a1 62 00 00 	movzbl 0x62a1(%rip),%eax        # 24091 <g_41>
   1ddf0:	48 0f be c0          	movsbq %al,%rax
   1ddf4:	8b 55 fc             	mov    -0x4(%rbp),%edx
   1ddf7:	48 8d 35 1f 35 00 00 	lea    0x351f(%rip),%rsi        # 2131d <g_2990+0x22a5>
   1ddfe:	48 89 c7             	mov    %rax,%rdi
   1de01:	e8 ed e8 fe ff       	callq  c6f3 <transparent_crc>
   1de06:	8b 05 88 62 00 00    	mov    0x6288(%rip),%eax        # 24094 <g_44>
   1de0c:	89 c1                	mov    %eax,%ecx
   1de0e:	8b 45 fc             	mov    -0x4(%rbp),%eax
   1de11:	89 c2                	mov    %eax,%edx
   1de13:	48 8d 35 08 35 00 00 	lea    0x3508(%rip),%rsi        # 21322 <g_2990+0x22aa>
   1de1a:	48 89 cf             	mov    %rcx,%rdi
   1de1d:	e8 d1 e8 fe ff       	callq  c6f3 <transparent_crc>
   1de22:	8b 05 70 62 00 00    	mov    0x6270(%rip),%eax        # 24098 <g_89>
   1de28:	89 c1                	mov    %eax,%ecx
   1de2a:	8b 45 fc             	mov    -0x4(%rbp),%eax
   1de2d:	89 c2                	mov    %eax,%edx
   1de2f:	48 8d 35 f1 34 00 00 	lea    0x34f1(%rip),%rsi        # 21327 <g_2990+0x22af>
   1de36:	48 89 cf             	mov    %rcx,%rdi
   1de39:	e8 b5 e8 fe ff       	callq  c6f3 <transparent_crc>
   1de3e:	0f b6 05 57 62 00 00 	movzbl 0x6257(%rip),%eax        # 2409c <g_113>
   1de45:	48 0f be c0          	movsbq %al,%rax
   1de49:	8b 55 fc             	mov    -0x4(%rbp),%edx
   1de4c:	48 8d 35 d9 34 00 00 	lea    0x34d9(%rip),%rsi        # 2132c <g_2990+0x22b4>
   1de53:	48 89 c7             	mov    %rax,%rdi
   1de56:	e8 98 e8 fe ff       	callq  c6f3 <transparent_crc>
   1de5b:	0f b7 05 3c 62 00 00 	movzwl 0x623c(%rip),%eax        # 2409e <g_116>
   1de62:	0f b7 c0             	movzwl %ax,%eax
   1de65:	8b 55 fc             	mov    -0x4(%rbp),%edx
   1de68:	48 8d 35 c3 34 00 00 	lea    0x34c3(%rip),%rsi        # 21332 <g_2990+0x22ba>
   1de6f:	48 89 c7             	mov    %rax,%rdi
   1de72:	e8 7c e8 fe ff       	callq  c6f3 <transparent_crc>
   1de77:	0f b7 05 22 62 00 00 	movzwl 0x6222(%rip),%eax        # 240a0 <g_124>
   1de7e:	0f b7 c0             	movzwl %ax,%eax
   1de81:	8b 55 fc             	mov    -0x4(%rbp),%edx
   1de84:	48 8d 35 ad 34 00 00 	lea    0x34ad(%rip),%rsi        # 21338 <g_2990+0x22c0>
   1de8b:	48 89 c7             	mov    %rax,%rdi
   1de8e:	e8 60 e8 fe ff       	callq  c6f3 <transparent_crc>
   1de93:	c7 45 f0 00 00 00 00 	movl   $0x0,-0x10(%rbp)
   1de9a:	e9 ae 00 00 00       	jmpq   1df4d <main+0x22e>
   1de9f:	c7 45 f4 00 00 00 00 	movl   $0x0,-0xc(%rbp)
   1dea6:	e9 94 00 00 00       	jmpq   1df3f <main+0x220>
   1deab:	c7 45 f8 00 00 00 00 	movl   $0x0,-0x8(%rbp)
   1deb2:	eb 7d                	jmp    1df31 <main+0x212>
   1deb4:	8b 45 f8             	mov    -0x8(%rbp),%eax
   1deb7:	48 63 f0             	movslq %eax,%rsi
   1deba:	8b 45 f0             	mov    -0x10(%rbp),%eax
   1debd:	48 63 d0             	movslq %eax,%rdx
   1dec0:	8b 45 f4             	mov    -0xc(%rbp),%eax
   1dec3:	48 63 c8             	movslq %eax,%rcx
   1dec6:	48 89 d0             	mov    %rdx,%rax
   1dec9:	48 01 c0             	add    %rax,%rax
   1decc:	48 01 d0             	add    %rdx,%rax
   1decf:	48 01 c0             	add    %rax,%rax
   1ded2:	48 89 ca             	mov    %rcx,%rdx
   1ded5:	48 01 d2             	add    %rdx,%rdx
   1ded8:	48 01 ca             	add    %rcx,%rdx
   1dedb:	48 01 d0             	add    %rdx,%rax
   1dede:	48 01 f0             	add    %rsi,%rax
   1dee1:	48 8d 14 c5 00 00 00 	lea    0x0(,%rax,8),%rdx
   1dee8:	00 
   1dee9:	48 8d 05 d0 61 00 00 	lea    0x61d0(%rip),%rax        # 240c0 <g_169>
   1def0:	48 8b 04 02          	mov    (%rdx,%rax,1),%rax
   1def4:	48 89 c1             	mov    %rax,%rcx
   1def7:	8b 45 fc             	mov    -0x4(%rbp),%eax
   1defa:	89 c2                	mov    %eax,%edx
   1defc:	48 8d 35 3b 34 00 00 	lea    0x343b(%rip),%rsi        # 2133e <g_2990+0x22c6>
   1df03:	48 89 cf             	mov    %rcx,%rdi
   1df06:	e8 e8 e7 fe ff       	callq  c6f3 <transparent_crc>
   1df0b:	83 7d fc 00          	cmpl   $0x0,-0x4(%rbp)
   1df0f:	74 1c                	je     1df2d <main+0x20e>
   1df11:	8b 4d f8             	mov    -0x8(%rbp),%ecx
   1df14:	8b 55 f4             	mov    -0xc(%rbp),%edx
   1df17:	8b 45 f0             	mov    -0x10(%rbp),%eax
   1df1a:	89 c6                	mov    %eax,%esi
   1df1c:	48 8d 3d 2a 34 00 00 	lea    0x342a(%rip),%rdi        # 2134d <g_2990+0x22d5>
   1df23:	b8 00 00 00 00       	mov    $0x0,%eax
   1df28:	e8 53 d1 fe ff       	callq  b080 <printf@plt>
   1df2d:	83 45 f8 01          	addl   $0x1,-0x8(%rbp)
   1df31:	83 7d f8 02          	cmpl   $0x2,-0x8(%rbp)
   1df35:	0f 8e 79 ff ff ff    	jle    1deb4 <main+0x195>
   1df3b:	83 45 f4 01          	addl   $0x1,-0xc(%rbp)
   1df3f:	83 7d f4 01          	cmpl   $0x1,-0xc(%rbp)
   1df43:	0f 8e 62 ff ff ff    	jle    1deab <main+0x18c>
   1df49:	83 45 f0 01          	addl   $0x1,-0x10(%rbp)
   1df4d:	83 7d f0 02          	cmpl   $0x2,-0x10(%rbp)
   1df51:	0f 8e 48 ff ff ff    	jle    1de9f <main+0x180>
   1df57:	0f b6 05 f2 61 00 00 	movzbl 0x61f2(%rip),%eax        # 24150 <g_184>
   1df5e:	0f b6 c0             	movzbl %al,%eax
   1df61:	8b 55 fc             	mov    -0x4(%rbp),%edx
   1df64:	48 8d 35 f8 33 00 00 	lea    0x33f8(%rip),%rsi        # 21363 <g_2990+0x22eb>
   1df6b:	48 89 c7             	mov    %rax,%rdi
   1df6e:	e8 80 e7 fe ff       	callq  c6f3 <transparent_crc>
   1df73:	0f b6 05 d7 61 00 00 	movzbl 0x61d7(%rip),%eax        # 24151 <g_188>
   1df7a:	0f b6 c0             	movzbl %al,%eax
   1df7d:	8b 55 fc             	mov    -0x4(%rbp),%edx
   1df80:	48 8d 35 e2 33 00 00 	lea    0x33e2(%rip),%rsi        # 21369 <g_2990+0x22f1>
   1df87:	48 89 c7             	mov    %rax,%rdi
   1df8a:	e8 64 e7 fe ff       	callq  c6f3 <transparent_crc>
   1df8f:	c7 45 f0 00 00 00 00 	movl   $0x0,-0x10(%rbp)
   1df96:	e9 9a 00 00 00       	jmpq   1e035 <main+0x316>
   1df9b:	c7 45 f4 00 00 00 00 	movl   $0x0,-0xc(%rbp)
   1dfa2:	e9 80 00 00 00       	jmpq   1e027 <main+0x308>
   1dfa7:	c7 45 f8 00 00 00 00 	movl   $0x0,-0x8(%rbp)
   1dfae:	eb 6d                	jmp    1e01d <main+0x2fe>
   1dfb0:	8b 45 f8             	mov    -0x8(%rbp),%eax
   1dfb3:	48 63 c8             	movslq %eax,%rcx
   1dfb6:	8b 45 f0             	mov    -0x10(%rbp),%eax
   1dfb9:	48 63 d0             	movslq %eax,%rdx
   1dfbc:	8b 45 f4             	mov    -0xc(%rbp),%eax
   1dfbf:	48 98                	cltq   
   1dfc1:	48 01 c2             	add    %rax,%rdx
   1dfc4:	48 89 d0             	mov    %rdx,%rax
   1dfc7:	48 01 c0             	add    %rax,%rax
   1dfca:	48 01 d0             	add    %rdx,%rax
   1dfcd:	48 01 c0             	add    %rax,%rax
   1dfd0:	48 8d 14 08          	lea    (%rax,%rcx,1),%rdx
   1dfd4:	48 8d 05 85 61 00 00 	lea    0x6185(%rip),%rax        # 24160 <g_190>
   1dfdb:	48 01 d0             	add    %rdx,%rax
   1dfde:	0f b6 00             	movzbl (%rax),%eax
   1dfe1:	48 0f be c0          	movsbq %al,%rax
   1dfe5:	8b 55 fc             	mov    -0x4(%rbp),%edx
   1dfe8:	48 8d 35 80 33 00 00 	lea    0x3380(%rip),%rsi        # 2136f <g_2990+0x22f7>
   1dfef:	48 89 c7             	mov    %rax,%rdi
   1dff2:	e8 fc e6 fe ff       	callq  c6f3 <transparent_crc>
   1dff7:	83 7d fc 00          	cmpl   $0x0,-0x4(%rbp)
   1dffb:	74 1c                	je     1e019 <main+0x2fa>
   1dffd:	8b 4d f8             	mov    -0x8(%rbp),%ecx
   1e000:	8b 55 f4             	mov    -0xc(%rbp),%edx
   1e003:	8b 45 f0             	mov    -0x10(%rbp),%eax
   1e006:	89 c6                	mov    %eax,%esi
   1e008:	48 8d 3d 3e 33 00 00 	lea    0x333e(%rip),%rdi        # 2134d <g_2990+0x22d5>
   1e00f:	b8 00 00 00 00       	mov    $0x0,%eax
   1e014:	e8 67 d0 fe ff       	callq  b080 <printf@plt>
   1e019:	83 45 f8 01          	addl   $0x1,-0x8(%rbp)
   1e01d:	83 7d f8 05          	cmpl   $0x5,-0x8(%rbp)
   1e021:	7e 8d                	jle    1dfb0 <main+0x291>
   1e023:	83 45 f4 01          	addl   $0x1,-0xc(%rbp)
   1e027:	83 7d f4 00          	cmpl   $0x0,-0xc(%rbp)
   1e02b:	0f 8e 76 ff ff ff    	jle    1dfa7 <main+0x288>
   1e031:	83 45 f0 01          	addl   $0x1,-0x10(%rbp)
   1e035:	83 7d f0 08          	cmpl   $0x8,-0x10(%rbp)
   1e039:	0f 8e 5c ff ff ff    	jle    1df9b <main+0x27c>
   1e03f:	8b 05 53 61 00 00    	mov    0x6153(%rip),%eax        # 24198 <g_214>
   1e045:	89 c1                	mov    %eax,%ecx
   1e047:	8b 45 fc             	mov    -0x4(%rbp),%eax
   1e04a:	89 c2                	mov    %eax,%edx
   1e04c:	48 8d 35 2b 33 00 00 	lea    0x332b(%rip),%rsi        # 2137e <g_2990+0x2306>
   1e053:	48 89 cf             	mov    %rcx,%rdi
   1e056:	e8 98 e6 fe ff       	callq  c6f3 <transparent_crc>
   1e05b:	0f b7 05 26 a9 00 00 	movzwl 0xa926(%rip),%eax        # 28988 <g_239>
   1e062:	48 0f bf c0          	movswq %ax,%rax
   1e066:	8b 55 fc             	mov    -0x4(%rbp),%edx
   1e069:	48 8d 35 14 33 00 00 	lea    0x3314(%rip),%rsi        # 21384 <g_2990+0x230c>
   1e070:	48 89 c7             	mov    %rax,%rdi
   1e073:	e8 7b e6 fe ff       	callq  c6f3 <transparent_crc>
   1e078:	c7 45 f0 00 00 00 00 	movl   $0x0,-0x10(%rbp)
   1e07f:	eb 4a                	jmp    1e0cb <main+0x3ac>
   1e081:	8b 45 f0             	mov    -0x10(%rbp),%eax
   1e084:	48 98                	cltq   
   1e086:	48 8d 14 00          	lea    (%rax,%rax,1),%rdx
   1e08a:	48 8d 05 0f 61 00 00 	lea    0x610f(%rip),%rax        # 241a0 <g_241>
   1e091:	0f b7 04 02          	movzwl (%rdx,%rax,1),%eax
   1e095:	48 0f bf c0          	movswq %ax,%rax
   1e099:	8b 55 fc             	mov    -0x4(%rbp),%edx
   1e09c:	48 8d 35 e7 32 00 00 	lea    0x32e7(%rip),%rsi        # 2138a <g_2990+0x2312>
   1e0a3:	48 89 c7             	mov    %rax,%rdi
   1e0a6:	e8 48 e6 fe ff       	callq  c6f3 <transparent_crc>
   1e0ab:	83 7d fc 00          	cmpl   $0x0,-0x4(%rbp)
   1e0af:	74 16                	je     1e0c7 <main+0x3a8>
   1e0b1:	8b 45 f0             	mov    -0x10(%rbp),%eax
   1e0b4:	89 c6                	mov    %eax,%esi
   1e0b6:	48 8d 3d 4d 32 00 00 	lea    0x324d(%rip),%rdi        # 2130a <g_2990+0x2292>
   1e0bd:	b8 00 00 00 00       	mov    $0x0,%eax
   1e0c2:	e8 b9 cf fe ff       	callq  b080 <printf@plt>
   1e0c7:	83 45 f0 01          	addl   $0x1,-0x10(%rbp)
   1e0cb:	83 7d f0 09          	cmpl   $0x9,-0x10(%rbp)
   1e0cf:	7e b0                	jle    1e081 <main+0x362>
   1e0d1:	c7 45 f0 00 00 00 00 	movl   $0x0,-0x10(%rbp)
   1e0d8:	eb 4d                	jmp    1e127 <main+0x408>
   1e0da:	8b 45 f0             	mov    -0x10(%rbp),%eax
   1e0dd:	48 98                	cltq   
   1e0df:	48 8d 14 85 00 00 00 	lea    0x0(,%rax,4),%rdx
   1e0e6:	00 
   1e0e7:	48 8d 05 c6 60 00 00 	lea    0x60c6(%rip),%rax        # 241b4 <g_248>
   1e0ee:	8b 04 02             	mov    (%rdx,%rax,1),%eax
   1e0f1:	89 c1                	mov    %eax,%ecx
   1e0f3:	8b 45 fc             	mov    -0x4(%rbp),%eax
   1e0f6:	89 c2                	mov    %eax,%edx
   1e0f8:	48 8d 35 94 32 00 00 	lea    0x3294(%rip),%rsi        # 21393 <g_2990+0x231b>
   1e0ff:	48 89 cf             	mov    %rcx,%rdi
   1e102:	e8 ec e5 fe ff       	callq  c6f3 <transparent_crc>
   1e107:	83 7d fc 00          	cmpl   $0x0,-0x4(%rbp)
   1e10b:	74 16                	je     1e123 <main+0x404>
   1e10d:	8b 45 f0             	mov    -0x10(%rbp),%eax
   1e110:	89 c6                	mov    %eax,%esi
   1e112:	48 8d 3d f1 31 00 00 	lea    0x31f1(%rip),%rdi        # 2130a <g_2990+0x2292>
   1e119:	b8 00 00 00 00       	mov    $0x0,%eax
   1e11e:	e8 5d cf fe ff       	callq  b080 <printf@plt>
   1e123:	83 45 f0 01          	addl   $0x1,-0x10(%rbp)
   1e127:	83 7d f0 00          	cmpl   $0x0,-0x10(%rbp)
   1e12b:	7e ad                	jle    1e0da <main+0x3bb>
   1e12d:	48 8b 05 84 60 00 00 	mov    0x6084(%rip),%rax        # 241b8 <g_300>
   1e134:	8b 55 fc             	mov    -0x4(%rbp),%edx
   1e137:	48 8d 35 5e 32 00 00 	lea    0x325e(%rip),%rsi        # 2139c <g_2990+0x2324>
   1e13e:	48 89 c7             	mov    %rax,%rdi
   1e141:	e8 ad e5 fe ff       	callq  c6f3 <transparent_crc>
   1e146:	8b 05 74 60 00 00    	mov    0x6074(%rip),%eax        # 241c0 <g_362>
   1e14c:	89 c1                	mov    %eax,%ecx
   1e14e:	8b 45 fc             	mov    -0x4(%rbp),%eax
   1e151:	89 c2                	mov    %eax,%edx
   1e153:	48 8d 35 48 32 00 00 	lea    0x3248(%rip),%rsi        # 213a2 <g_2990+0x232a>
   1e15a:	48 89 cf             	mov    %rcx,%rdi
   1e15d:	e8 91 e5 fe ff       	callq  c6f3 <transparent_crc>
   1e162:	0f b7 05 5b 60 00 00 	movzwl 0x605b(%rip),%eax        # 241c4 <g_373>
   1e169:	48 0f bf c0          	movswq %ax,%rax
   1e16d:	8b 55 fc             	mov    -0x4(%rbp),%edx
   1e170:	48 8d 35 31 32 00 00 	lea    0x3231(%rip),%rsi        # 213a8 <g_2990+0x2330>
   1e177:	48 89 c7             	mov    %rax,%rdi
   1e17a:	e8 74 e5 fe ff       	callq  c6f3 <transparent_crc>
   1e17f:	48 8b 05 42 60 00 00 	mov    0x6042(%rip),%rax        # 241c8 <g_374>
   1e186:	48 89 c1             	mov    %rax,%rcx
   1e189:	8b 45 fc             	mov    -0x4(%rbp),%eax
   1e18c:	89 c2                	mov    %eax,%edx
   1e18e:	48 8d 35 19 32 00 00 	lea    0x3219(%rip),%rsi        # 213ae <g_2990+0x2336>
   1e195:	48 89 cf             	mov    %rcx,%rdi
   1e198:	e8 56 e5 fe ff       	callq  c6f3 <transparent_crc>
   1e19d:	0f b6 05 2c 60 00 00 	movzbl 0x602c(%rip),%eax        # 241d0 <g_377>
   1e1a4:	48 0f be c0          	movsbq %al,%rax
   1e1a8:	8b 55 fc             	mov    -0x4(%rbp),%edx
   1e1ab:	48 8d 35 02 32 00 00 	lea    0x3202(%rip),%rsi        # 213b4 <g_2990+0x233c>
   1e1b2:	48 89 c7             	mov    %rax,%rdi
   1e1b5:	e8 39 e5 fe ff       	callq  c6f3 <transparent_crc>
   1e1ba:	8b 05 14 60 00 00    	mov    0x6014(%rip),%eax        # 241d4 <g_394>
   1e1c0:	48 98                	cltq   
   1e1c2:	8b 55 fc             	mov    -0x4(%rbp),%edx
   1e1c5:	48 8d 35 ee 31 00 00 	lea    0x31ee(%rip),%rsi        # 213ba <g_2990+0x2342>
   1e1cc:	48 89 c7             	mov    %rax,%rdi
   1e1cf:	e8 1f e5 fe ff       	callq  c6f3 <transparent_crc>
   1e1d4:	8b 05 fe 5f 00 00    	mov    0x5ffe(%rip),%eax        # 241d8 <g_400>
   1e1da:	48 98                	cltq   
   1e1dc:	8b 55 fc             	mov    -0x4(%rbp),%edx
   1e1df:	48 8d 35 da 31 00 00 	lea    0x31da(%rip),%rsi        # 213c0 <g_2990+0x2348>
   1e1e6:	48 89 c7             	mov    %rax,%rdi
   1e1e9:	e8 05 e5 fe ff       	callq  c6f3 <transparent_crc>
   1e1ee:	48 8b 05 eb 5f 00 00 	mov    0x5feb(%rip),%rax        # 241e0 <g_432>
   1e1f5:	8b 55 fc             	mov    -0x4(%rbp),%edx
   1e1f8:	48 8d 35 c7 31 00 00 	lea    0x31c7(%rip),%rsi        # 213c6 <g_2990+0x234e>
   1e1ff:	48 89 c7             	mov    %rax,%rdi
   1e202:	e8 ec e4 fe ff       	callq  c6f3 <transparent_crc>
   1e207:	8b 05 db 5f 00 00    	mov    0x5fdb(%rip),%eax        # 241e8 <g_446>
   1e20d:	48 98                	cltq   
   1e20f:	8b 55 fc             	mov    -0x4(%rbp),%edx
   1e212:	48 8d 35 b3 31 00 00 	lea    0x31b3(%rip),%rsi        # 213cc <g_2990+0x2354>
   1e219:	48 89 c7             	mov    %rax,%rdi
   1e21c:	e8 d2 e4 fe ff       	callq  c6f3 <transparent_crc>
   1e221:	0f b6 05 c4 5f 00 00 	movzbl 0x5fc4(%rip),%eax        # 241ec <g_539>
   1e228:	48 0f be c0          	movsbq %al,%rax
   1e22c:	8b 55 fc             	mov    -0x4(%rbp),%edx
   1e22f:	48 8d 35 9c 31 00 00 	lea    0x319c(%rip),%rsi        # 213d2 <g_2990+0x235a>
   1e236:	48 89 c7             	mov    %rax,%rdi
   1e239:	e8 b5 e4 fe ff       	callq  c6f3 <transparent_crc>
   1e23e:	0f b6 05 a8 5f 00 00 	movzbl 0x5fa8(%rip),%eax        # 241ed <g_867>
   1e245:	0f b6 c0             	movzbl %al,%eax
   1e248:	8b 55 fc             	mov    -0x4(%rbp),%edx
   1e24b:	48 8d 35 86 31 00 00 	lea    0x3186(%rip),%rsi        # 213d8 <g_2990+0x2360>
   1e252:	48 89 c7             	mov    %rax,%rdi
   1e255:	e8 99 e4 fe ff       	callq  c6f3 <transparent_crc>
   1e25a:	8b 05 90 5f 00 00    	mov    0x5f90(%rip),%eax        # 241f0 <g_891>
   1e260:	48 98                	cltq   
   1e262:	8b 55 fc             	mov    -0x4(%rbp),%edx
   1e265:	48 8d 35 72 31 00 00 	lea    0x3172(%rip),%rsi        # 213de <g_2990+0x2366>
   1e26c:	48 89 c7             	mov    %rax,%rdi
   1e26f:	e8 7f e4 fe ff       	callq  c6f3 <transparent_crc>
   1e274:	8b 05 7a 5f 00 00    	mov    0x5f7a(%rip),%eax        # 241f4 <g_892>
   1e27a:	48 98                	cltq   
   1e27c:	8b 55 fc             	mov    -0x4(%rbp),%edx
   1e27f:	48 8d 35 5e 31 00 00 	lea    0x315e(%rip),%rsi        # 213e4 <g_2990+0x236c>
   1e286:	48 89 c7             	mov    %rax,%rdi
   1e289:	e8 65 e4 fe ff       	callq  c6f3 <transparent_crc>
   1e28e:	b8 26 7a 22 d6       	mov    $0xd6227a26,%eax
   1e293:	48 98                	cltq   
   1e295:	8b 55 fc             	mov    -0x4(%rbp),%edx
   1e298:	48 8d 35 4b 31 00 00 	lea    0x314b(%rip),%rsi        # 213ea <g_2990+0x2372>
   1e29f:	48 89 c7             	mov    %rax,%rdi
   1e2a2:	e8 4c e4 fe ff       	callq  c6f3 <transparent_crc>
   1e2a7:	c7 45 f0 00 00 00 00 	movl   $0x0,-0x10(%rbp)
   1e2ae:	eb 4d                	jmp    1e2fd <main+0x5de>
   1e2b0:	8b 45 f0             	mov    -0x10(%rbp),%eax
   1e2b3:	48 98                	cltq   
   1e2b5:	48 8d 14 85 00 00 00 	lea    0x0(,%rax,4),%rdx
   1e2bc:	00 
   1e2bd:	48 8d 05 3c 5f 00 00 	lea    0x5f3c(%rip),%rax        # 24200 <g_1297>
   1e2c4:	8b 04 02             	mov    (%rdx,%rax,1),%eax
   1e2c7:	89 c1                	mov    %eax,%ecx
   1e2c9:	8b 45 fc             	mov    -0x4(%rbp),%eax
   1e2cc:	89 c2                	mov    %eax,%edx
   1e2ce:	48 8d 35 1c 31 00 00 	lea    0x311c(%rip),%rsi        # 213f1 <g_2990+0x2379>
   1e2d5:	48 89 cf             	mov    %rcx,%rdi
   1e2d8:	e8 16 e4 fe ff       	callq  c6f3 <transparent_crc>
   1e2dd:	83 7d fc 00          	cmpl   $0x0,-0x4(%rbp)
   1e2e1:	74 16                	je     1e2f9 <main+0x5da>
   1e2e3:	8b 45 f0             	mov    -0x10(%rbp),%eax
   1e2e6:	89 c6                	mov    %eax,%esi
   1e2e8:	48 8d 3d 1b 30 00 00 	lea    0x301b(%rip),%rdi        # 2130a <g_2990+0x2292>
   1e2ef:	b8 00 00 00 00       	mov    $0x0,%eax
   1e2f4:	e8 87 cd fe ff       	callq  b080 <printf@plt>
   1e2f9:	83 45 f0 01          	addl   $0x1,-0x10(%rbp)
   1e2fd:	83 7d f0 08          	cmpl   $0x8,-0x10(%rbp)
   1e301:	7e ad                	jle    1e2b0 <main+0x591>
   1e303:	0f b7 05 f6 a6 00 00 	movzwl 0xa6f6(%rip),%eax        # 28a00 <g_1442>
   1e30a:	0f b7 c0             	movzwl %ax,%eax
   1e30d:	8b 55 fc             	mov    -0x4(%rbp),%edx
   1e310:	48 8d 35 e4 30 00 00 	lea    0x30e4(%rip),%rsi        # 213fb <g_2990+0x2383>
   1e317:	48 89 c7             	mov    %rax,%rdi
   1e31a:	e8 d4 e3 fe ff       	callq  c6f3 <transparent_crc>
   1e31f:	48 8b 05 02 5f 00 00 	mov    0x5f02(%rip),%rax        # 24228 <g_1622>
   1e326:	48 89 c1             	mov    %rax,%rcx
   1e329:	8b 45 fc             	mov    -0x4(%rbp),%eax
   1e32c:	89 c2                	mov    %eax,%edx
   1e32e:	48 8d 35 cd 30 00 00 	lea    0x30cd(%rip),%rsi        # 21402 <g_2990+0x238a>
   1e335:	48 89 cf             	mov    %rcx,%rdi
   1e338:	e8 b6 e3 fe ff       	callq  c6f3 <transparent_crc>
   1e33d:	0f b7 05 ec 5e 00 00 	movzwl 0x5eec(%rip),%eax        # 24230 <g_1670>
   1e344:	0f b7 c0             	movzwl %ax,%eax
   1e347:	8b 55 fc             	mov    -0x4(%rbp),%edx
   1e34a:	48 8d 35 b8 30 00 00 	lea    0x30b8(%rip),%rsi        # 21409 <g_2990+0x2391>
   1e351:	48 89 c7             	mov    %rax,%rdi
   1e354:	e8 9a e3 fe ff       	callq  c6f3 <transparent_crc>
   1e359:	0f b6 05 a2 a6 00 00 	movzbl 0xa6a2(%rip),%eax        # 28a02 <g_1903>
   1e360:	0f b6 c0             	movzbl %al,%eax
   1e363:	8b 55 fc             	mov    -0x4(%rbp),%edx
   1e366:	48 8d 35 a3 30 00 00 	lea    0x30a3(%rip),%rsi        # 21410 <g_2990+0x2398>
   1e36d:	48 89 c7             	mov    %rax,%rdi
   1e370:	e8 7e e3 fe ff       	callq  c6f3 <transparent_crc>
   1e375:	0f b7 05 b6 5e 00 00 	movzwl 0x5eb6(%rip),%eax        # 24232 <g_1984>
   1e37c:	0f b7 c0             	movzwl %ax,%eax
   1e37f:	8b 55 fc             	mov    -0x4(%rbp),%edx
   1e382:	48 8d 35 8e 30 00 00 	lea    0x308e(%rip),%rsi        # 21417 <g_2990+0x239f>
   1e389:	48 89 c7             	mov    %rax,%rdi
   1e38c:	e8 62 e3 fe ff       	callq  c6f3 <transparent_crc>
   1e391:	48 8b 05 a0 5e 00 00 	mov    0x5ea0(%rip),%rax        # 24238 <g_2004>
   1e398:	8b 55 fc             	mov    -0x4(%rbp),%edx
   1e39b:	48 8d 35 7c 30 00 00 	lea    0x307c(%rip),%rsi        # 2141e <g_2990+0x23a6>
   1e3a2:	48 89 c7             	mov    %rax,%rdi
   1e3a5:	e8 49 e3 fe ff       	callq  c6f3 <transparent_crc>
   1e3aa:	b8 00 00 00 00       	mov    $0x0,%eax
   1e3af:	89 c1                	mov    %eax,%ecx
   1e3b1:	8b 45 fc             	mov    -0x4(%rbp),%eax
   1e3b4:	89 c2                	mov    %eax,%edx
   1e3b6:	48 8d 35 68 30 00 00 	lea    0x3068(%rip),%rsi        # 21425 <g_2990+0x23ad>
   1e3bd:	48 89 cf             	mov    %rcx,%rdi
   1e3c0:	e8 2e e3 fe ff       	callq  c6f3 <transparent_crc>
   1e3c5:	b8 7f 00 00 00       	mov    $0x7f,%eax
   1e3ca:	48 0f be c0          	movsbq %al,%rax
   1e3ce:	8b 55 fc             	mov    -0x4(%rbp),%edx
   1e3d1:	48 8d 35 54 30 00 00 	lea    0x3054(%rip),%rsi        # 2142c <g_2990+0x23b4>
   1e3d8:	48 89 c7             	mov    %rax,%rdi
   1e3db:	e8 13 e3 fe ff       	callq  c6f3 <transparent_crc>
   1e3e0:	b8 fc ff ff ff       	mov    $0xfffffffc,%eax
   1e3e5:	48 98                	cltq   
   1e3e7:	8b 55 fc             	mov    -0x4(%rbp),%edx
   1e3ea:	48 8d 35 42 30 00 00 	lea    0x3042(%rip),%rsi        # 21433 <g_2990+0x23bb>
   1e3f1:	48 89 c7             	mov    %rax,%rdi
   1e3f4:	e8 fa e2 fe ff       	callq  c6f3 <transparent_crc>
   1e3f9:	0f b7 05 40 5e 00 00 	movzwl 0x5e40(%rip),%eax        # 24240 <g_2240>
   1e400:	48 0f bf c0          	movswq %ax,%rax
   1e404:	8b 55 fc             	mov    -0x4(%rbp),%edx
   1e407:	48 8d 35 2c 30 00 00 	lea    0x302c(%rip),%rsi        # 2143a <g_2990+0x23c2>
   1e40e:	48 89 c7             	mov    %rax,%rdi
   1e411:	e8 dd e2 fe ff       	callq  c6f3 <transparent_crc>
   1e416:	48 8b 05 2b 5e 00 00 	mov    0x5e2b(%rip),%rax        # 24248 <g_2253>
   1e41d:	8b 55 fc             	mov    -0x4(%rbp),%edx
   1e420:	48 8d 35 1a 30 00 00 	lea    0x301a(%rip),%rsi        # 21441 <g_2990+0x23c9>
   1e427:	48 89 c7             	mov    %rax,%rdi
   1e42a:	e8 c4 e2 fe ff       	callq  c6f3 <transparent_crc>
   1e42f:	8b 05 1b 5e 00 00    	mov    0x5e1b(%rip),%eax        # 24250 <g_2286>
   1e435:	89 c1                	mov    %eax,%ecx
   1e437:	8b 45 fc             	mov    -0x4(%rbp),%eax
   1e43a:	89 c2                	mov    %eax,%edx
   1e43c:	48 8d 35 05 30 00 00 	lea    0x3005(%rip),%rsi        # 21448 <g_2990+0x23d0>
   1e443:	48 89 cf             	mov    %rcx,%rdi
   1e446:	e8 a8 e2 fe ff       	callq  c6f3 <transparent_crc>
   1e44b:	0f b7 05 02 5e 00 00 	movzwl 0x5e02(%rip),%eax        # 24254 <g_2333>
   1e452:	0f b7 c0             	movzwl %ax,%eax
   1e455:	8b 55 fc             	mov    -0x4(%rbp),%edx
   1e458:	48 8d 35 f0 2f 00 00 	lea    0x2ff0(%rip),%rsi        # 2144f <g_2990+0x23d7>
   1e45f:	48 89 c7             	mov    %rax,%rdi
   1e462:	e8 8c e2 fe ff       	callq  c6f3 <transparent_crc>
   1e467:	8b 05 eb 5d 00 00    	mov    0x5deb(%rip),%eax        # 24258 <g_2435>
   1e46d:	89 c1                	mov    %eax,%ecx
   1e46f:	8b 45 fc             	mov    -0x4(%rbp),%eax
   1e472:	89 c2                	mov    %eax,%edx
   1e474:	48 8d 35 db 2f 00 00 	lea    0x2fdb(%rip),%rsi        # 21456 <g_2990+0x23de>
   1e47b:	48 89 cf             	mov    %rcx,%rdi
   1e47e:	e8 70 e2 fe ff       	callq  c6f3 <transparent_crc>
   1e483:	0f b6 05 d2 5d 00 00 	movzbl 0x5dd2(%rip),%eax        # 2425c <g_2527>
   1e48a:	48 0f be c0          	movsbq %al,%rax
   1e48e:	8b 55 fc             	mov    -0x4(%rbp),%edx
   1e491:	48 8d 35 c5 2f 00 00 	lea    0x2fc5(%rip),%rsi        # 2145d <g_2990+0x23e5>
   1e498:	48 89 c7             	mov    %rax,%rdi
   1e49b:	e8 53 e2 fe ff       	callq  c6f3 <transparent_crc>
   1e4a0:	c7 45 f0 00 00 00 00 	movl   $0x0,-0x10(%rbp)
   1e4a7:	eb 7c                	jmp    1e525 <main+0x806>
   1e4a9:	c7 45 f4 00 00 00 00 	movl   $0x0,-0xc(%rbp)
   1e4b0:	eb 69                	jmp    1e51b <main+0x7fc>
   1e4b2:	8b 45 f4             	mov    -0xc(%rbp),%eax
   1e4b5:	48 63 c8             	movslq %eax,%rcx
   1e4b8:	8b 45 f0             	mov    -0x10(%rbp),%eax
   1e4bb:	48 63 d0             	movslq %eax,%rdx
   1e4be:	48 89 d0             	mov    %rdx,%rax
   1e4c1:	48 c1 e0 02          	shl    $0x2,%rax
   1e4c5:	48 01 d0             	add    %rdx,%rax
   1e4c8:	48 01 c0             	add    %rax,%rax
   1e4cb:	48 01 c8             	add    %rcx,%rax
   1e4ce:	48 8d 14 c5 00 00 00 	lea    0x0(,%rax,8),%rdx
   1e4d5:	00 
   1e4d6:	48 8d 05 83 a5 00 00 	lea    0xa583(%rip),%rax        # 28a60 <g_2641>
   1e4dd:	48 8b 04 02          	mov    (%rdx,%rax,1),%rax
   1e4e1:	48 89 c1             	mov    %rax,%rcx
   1e4e4:	8b 45 fc             	mov    -0x4(%rbp),%eax
   1e4e7:	89 c2                	mov    %eax,%edx
   1e4e9:	48 8d 35 74 2f 00 00 	lea    0x2f74(%rip),%rsi        # 21464 <g_2990+0x23ec>
   1e4f0:	48 89 cf             	mov    %rcx,%rdi
   1e4f3:	e8 fb e1 fe ff       	callq  c6f3 <transparent_crc>
   1e4f8:	83 7d fc 00          	cmpl   $0x0,-0x4(%rbp)
   1e4fc:	74 19                	je     1e517 <main+0x7f8>
   1e4fe:	8b 55 f4             	mov    -0xc(%rbp),%edx
   1e501:	8b 45 f0             	mov    -0x10(%rbp),%eax
   1e504:	89 c6                	mov    %eax,%esi
   1e506:	48 8d 3d 64 2f 00 00 	lea    0x2f64(%rip),%rdi        # 21471 <g_2990+0x23f9>
   1e50d:	b8 00 00 00 00       	mov    $0x0,%eax
   1e512:	e8 69 cb fe ff       	callq  b080 <printf@plt>
   1e517:	83 45 f4 01          	addl   $0x1,-0xc(%rbp)
   1e51b:	83 7d f4 09          	cmpl   $0x9,-0xc(%rbp)
   1e51f:	7e 91                	jle    1e4b2 <main+0x793>
   1e521:	83 45 f0 01          	addl   $0x1,-0x10(%rbp)
   1e525:	83 7d f0 01          	cmpl   $0x1,-0x10(%rbp)
   1e529:	0f 8e 7a ff ff ff    	jle    1e4a9 <main+0x78a>
   1e52f:	0f b6 05 27 5d 00 00 	movzbl 0x5d27(%rip),%eax        # 2425d <g_2698>
   1e536:	0f b6 c0             	movzbl %al,%eax
   1e539:	8b 55 fc             	mov    -0x4(%rbp),%edx
   1e53c:	48 8d 35 40 2f 00 00 	lea    0x2f40(%rip),%rsi        # 21483 <g_2990+0x240b>
   1e543:	48 89 c7             	mov    %rax,%rdi
   1e546:	e8 a8 e1 fe ff       	callq  c6f3 <transparent_crc>
   1e54b:	b8 ff ff ff ff       	mov    $0xffffffff,%eax
   1e550:	0f b7 c0             	movzwl %ax,%eax
   1e553:	8b 55 fc             	mov    -0x4(%rbp),%edx
   1e556:	48 8d 35 2d 2f 00 00 	lea    0x2f2d(%rip),%rsi        # 2148a <g_2990+0x2412>
   1e55d:	48 89 c7             	mov    %rax,%rdi
   1e560:	e8 8e e1 fe ff       	callq  c6f3 <transparent_crc>
   1e565:	b8 85 33 00 00       	mov    $0x3385,%eax
   1e56a:	0f b7 c0             	movzwl %ax,%eax
   1e56d:	8b 55 fc             	mov    -0x4(%rbp),%edx
   1e570:	48 8d 35 1a 2f 00 00 	lea    0x2f1a(%rip),%rsi        # 21491 <g_2990+0x2419>
   1e577:	48 89 c7             	mov    %rax,%rdi
   1e57a:	e8 74 e1 fe ff       	callq  c6f3 <transparent_crc>
   1e57f:	b8 ff ff ff ff       	mov    $0xffffffff,%eax
   1e584:	0f b7 c0             	movzwl %ax,%eax
   1e587:	8b 55 fc             	mov    -0x4(%rbp),%edx
   1e58a:	48 8d 35 07 2f 00 00 	lea    0x2f07(%rip),%rsi        # 21498 <g_2990+0x2420>
   1e591:	48 89 c7             	mov    %rax,%rdi
   1e594:	e8 5a e1 fe ff       	callq  c6f3 <transparent_crc>
   1e599:	0f b6 05 be 5c 00 00 	movzbl 0x5cbe(%rip),%eax        # 2425e <g_2895>
   1e5a0:	48 0f be c0          	movsbq %al,%rax
   1e5a4:	8b 55 fc             	mov    -0x4(%rbp),%edx
   1e5a7:	48 8d 35 f1 2e 00 00 	lea    0x2ef1(%rip),%rsi        # 2149f <g_2990+0x2427>
   1e5ae:	48 89 c7             	mov    %rax,%rdi
   1e5b1:	e8 3d e1 fe ff       	callq  c6f3 <transparent_crc>
   1e5b6:	c7 45 f0 00 00 00 00 	movl   $0x0,-0x10(%rbp)
   1e5bd:	eb 4f                	jmp    1e60e <main+0x8ef>
   1e5bf:	8b 45 f0             	mov    -0x10(%rbp),%eax
   1e5c2:	48 98                	cltq   
   1e5c4:	48 8d 14 c5 00 00 00 	lea    0x0(,%rax,8),%rdx
   1e5cb:	00 
   1e5cc:	48 8d 05 6d a5 00 00 	lea    0xa56d(%rip),%rax        # 28b40 <g_2930>
   1e5d3:	48 8b 04 02          	mov    (%rdx,%rax,1),%rax
   1e5d7:	48 89 c1             	mov    %rax,%rcx
   1e5da:	8b 45 fc             	mov    -0x4(%rbp),%eax
   1e5dd:	89 c2                	mov    %eax,%edx
   1e5df:	48 8d 35 c0 2e 00 00 	lea    0x2ec0(%rip),%rsi        # 214a6 <g_2990+0x242e>
   1e5e6:	48 89 cf             	mov    %rcx,%rdi
   1e5e9:	e8 05 e1 fe ff       	callq  c6f3 <transparent_crc>
   1e5ee:	83 7d fc 00          	cmpl   $0x0,-0x4(%rbp)
   1e5f2:	74 16                	je     1e60a <main+0x8eb>
   1e5f4:	8b 45 f0             	mov    -0x10(%rbp),%eax
   1e5f7:	89 c6                	mov    %eax,%esi
   1e5f9:	48 8d 3d 0a 2d 00 00 	lea    0x2d0a(%rip),%rdi        # 2130a <g_2990+0x2292>
   1e600:	b8 00 00 00 00       	mov    $0x0,%eax
   1e605:	e8 76 ca fe ff       	callq  b080 <printf@plt>
   1e60a:	83 45 f0 01          	addl   $0x1,-0x10(%rbp)
   1e60e:	83 7d f0 07          	cmpl   $0x7,-0x10(%rbp)
   1e612:	7e ab                	jle    1e5bf <main+0x8a0>
   1e614:	b8 ee 8d 1a 13       	mov    $0x131a8dee,%eax
   1e619:	89 c1                	mov    %eax,%ecx
   1e61b:	8b 45 fc             	mov    -0x4(%rbp),%eax
   1e61e:	89 c2                	mov    %eax,%edx
   1e620:	48 8d 35 89 2e 00 00 	lea    0x2e89(%rip),%rsi        # 214b0 <g_2990+0x2438>
   1e627:	48 89 cf             	mov    %rcx,%rdi
   1e62a:	e8 c4 e0 fe ff       	callq  c6f3 <transparent_crc>
   1e62f:	c7 45 f0 00 00 00 00 	movl   $0x0,-0x10(%rbp)
   1e636:	eb 71                	jmp    1e6a9 <main+0x98a>
   1e638:	c7 45 f4 00 00 00 00 	movl   $0x0,-0xc(%rbp)
   1e63f:	eb 5e                	jmp    1e69f <main+0x980>
   1e641:	8b 45 f4             	mov    -0xc(%rbp),%eax
   1e644:	48 63 c8             	movslq %eax,%rcx
   1e647:	8b 45 f0             	mov    -0x10(%rbp),%eax
   1e64a:	48 63 d0             	movslq %eax,%rdx
   1e64d:	48 89 d0             	mov    %rdx,%rax
   1e650:	48 01 c0             	add    %rax,%rax
   1e653:	48 01 d0             	add    %rdx,%rax
   1e656:	48 8d 14 08          	lea    (%rax,%rcx,1),%rdx
   1e65a:	48 8d 05 ff 5b 00 00 	lea    0x5bff(%rip),%rax        # 24260 <g_3046>
   1e661:	48 01 d0             	add    %rdx,%rax
   1e664:	0f b6 00             	movzbl (%rax),%eax
   1e667:	0f b6 c0             	movzbl %al,%eax
   1e66a:	8b 55 fc             	mov    -0x4(%rbp),%edx
   1e66d:	48 8d 35 43 2e 00 00 	lea    0x2e43(%rip),%rsi        # 214b7 <g_2990+0x243f>
   1e674:	48 89 c7             	mov    %rax,%rdi
   1e677:	e8 77 e0 fe ff       	callq  c6f3 <transparent_crc>
   1e67c:	83 7d fc 00          	cmpl   $0x0,-0x4(%rbp)
   1e680:	74 19                	je     1e69b <main+0x97c>
   1e682:	8b 55 f4             	mov    -0xc(%rbp),%edx
   1e685:	8b 45 f0             	mov    -0x10(%rbp),%eax
   1e688:	89 c6                	mov    %eax,%esi
   1e68a:	48 8d 3d e0 2d 00 00 	lea    0x2de0(%rip),%rdi        # 21471 <g_2990+0x23f9>
   1e691:	b8 00 00 00 00       	mov    $0x0,%eax
   1e696:	e8 e5 c9 fe ff       	callq  b080 <printf@plt>
   1e69b:	83 45 f4 01          	addl   $0x1,-0xc(%rbp)
   1e69f:	83 7d f4 02          	cmpl   $0x2,-0xc(%rbp)
   1e6a3:	7e 9c                	jle    1e641 <main+0x922>
   1e6a5:	83 45 f0 01          	addl   $0x1,-0x10(%rbp)
   1e6a9:	83 7d f0 02          	cmpl   $0x2,-0x10(%rbp)
   1e6ad:	7e 89                	jle    1e638 <main+0x919>
   1e6af:	48 8b 05 d2 a4 00 00 	mov    0xa4d2(%rip),%rax        # 28b88 <g_3074>
   1e6b6:	8b 55 fc             	mov    -0x4(%rbp),%edx
   1e6b9:	48 8d 35 04 2e 00 00 	lea    0x2e04(%rip),%rsi        # 214c4 <g_2990+0x244c>
   1e6c0:	48 89 c7             	mov    %rax,%rdi
   1e6c3:	e8 2b e0 fe ff       	callq  c6f3 <transparent_crc>
   1e6c8:	8b 05 9e 5b 00 00    	mov    0x5b9e(%rip),%eax        # 2426c <g_3276>
   1e6ce:	48 98                	cltq   
   1e6d0:	8b 55 fc             	mov    -0x4(%rbp),%edx
   1e6d3:	48 8d 35 f1 2d 00 00 	lea    0x2df1(%rip),%rsi        # 214cb <g_2990+0x2453>
   1e6da:	48 89 c7             	mov    %rax,%rdi
   1e6dd:	e8 11 e0 fe ff       	callq  c6f3 <transparent_crc>
   1e6e2:	8b 05 88 5b 00 00    	mov    0x5b88(%rip),%eax        # 24270 <g_3288>
   1e6e8:	89 c1                	mov    %eax,%ecx
   1e6ea:	8b 45 fc             	mov    -0x4(%rbp),%eax
   1e6ed:	89 c2                	mov    %eax,%edx
   1e6ef:	48 8d 35 dc 2d 00 00 	lea    0x2ddc(%rip),%rsi        # 214d2 <g_2990+0x245a>
   1e6f6:	48 89 cf             	mov    %rcx,%rdi
   1e6f9:	e8 f5 df fe ff       	callq  c6f3 <transparent_crc>
   1e6fe:	48 8b 05 73 5b 00 00 	mov    0x5b73(%rip),%rax        # 24278 <g_3364>
   1e705:	48 89 c1             	mov    %rax,%rcx
   1e708:	8b 45 fc             	mov    -0x4(%rbp),%eax
   1e70b:	89 c2                	mov    %eax,%edx
   1e70d:	48 8d 35 c5 2d 00 00 	lea    0x2dc5(%rip),%rsi        # 214d9 <g_2990+0x2461>
   1e714:	48 89 cf             	mov    %rcx,%rdi
   1e717:	e8 d7 df fe ff       	callq  c6f3 <transparent_crc>
   1e71c:	0f b6 05 5d 5b 00 00 	movzbl 0x5b5d(%rip),%eax        # 24280 <g_3421>
   1e723:	48 0f be c0          	movsbq %al,%rax
   1e727:	8b 55 fc             	mov    -0x4(%rbp),%edx
   1e72a:	48 8d 35 af 2d 00 00 	lea    0x2daf(%rip),%rsi        # 214e0 <g_2990+0x2468>
   1e731:	48 89 c7             	mov    %rax,%rdi
   1e734:	e8 ba df fe ff       	callq  c6f3 <transparent_crc>
   1e739:	48 8b 05 48 5b 00 00 	mov    0x5b48(%rip),%rax        # 24288 <g_3466>
   1e740:	48 89 c1             	mov    %rax,%rcx
   1e743:	8b 45 fc             	mov    -0x4(%rbp),%eax
   1e746:	89 c2                	mov    %eax,%edx
   1e748:	48 8d 35 98 2d 00 00 	lea    0x2d98(%rip),%rsi        # 214e7 <g_2990+0x246f>
   1e74f:	48 89 cf             	mov    %rcx,%rdi
   1e752:	e8 9c df fe ff       	callq  c6f3 <transparent_crc>
   1e757:	48 8b 05 32 5b 00 00 	mov    0x5b32(%rip),%rax        # 24290 <g_3583>
   1e75e:	48 89 c1             	mov    %rax,%rcx
   1e761:	8b 45 fc             	mov    -0x4(%rbp),%eax
   1e764:	89 c2                	mov    %eax,%edx
   1e766:	48 8d 35 81 2d 00 00 	lea    0x2d81(%rip),%rsi        # 214ee <g_2990+0x2476>
   1e76d:	48 89 cf             	mov    %rcx,%rdi
   1e770:	e8 7e df fe ff       	callq  c6f3 <transparent_crc>
   1e775:	c7 45 f0 00 00 00 00 	movl   $0x0,-0x10(%rbp)
   1e77c:	eb 4d                	jmp    1e7cb <main+0xaac>
   1e77e:	8b 45 f0             	mov    -0x10(%rbp),%eax
   1e781:	48 98                	cltq   
   1e783:	48 8d 14 85 00 00 00 	lea    0x0(,%rax,4),%rdx
   1e78a:	00 
   1e78b:	48 8d 05 06 a4 00 00 	lea    0xa406(%rip),%rax        # 28b98 <g_3781>
   1e792:	8b 04 02             	mov    (%rdx,%rax,1),%eax
   1e795:	89 c1                	mov    %eax,%ecx
   1e797:	8b 45 fc             	mov    -0x4(%rbp),%eax
   1e79a:	89 c2                	mov    %eax,%edx
   1e79c:	48 8d 35 52 2d 00 00 	lea    0x2d52(%rip),%rsi        # 214f5 <g_2990+0x247d>
   1e7a3:	48 89 cf             	mov    %rcx,%rdi
   1e7a6:	e8 48 df fe ff       	callq  c6f3 <transparent_crc>
   1e7ab:	83 7d fc 00          	cmpl   $0x0,-0x4(%rbp)
   1e7af:	74 16                	je     1e7c7 <main+0xaa8>
   1e7b1:	8b 45 f0             	mov    -0x10(%rbp),%eax
   1e7b4:	89 c6                	mov    %eax,%esi
   1e7b6:	48 8d 3d 4d 2b 00 00 	lea    0x2b4d(%rip),%rdi        # 2130a <g_2990+0x2292>
   1e7bd:	b8 00 00 00 00       	mov    $0x0,%eax
   1e7c2:	e8 b9 c8 fe ff       	callq  b080 <printf@plt>
   1e7c7:	83 45 f0 01          	addl   $0x1,-0x10(%rbp)
   1e7cb:	83 7d f0 01          	cmpl   $0x1,-0x10(%rbp)
   1e7cf:	7e ad                	jle    1e77e <main+0xa5f>
   1e7d1:	8b 05 49 58 00 00    	mov    0x5849(%rip),%eax        # 24020 <crc32_context>
   1e7d7:	f7 d0                	not    %eax
   1e7d9:	89 c2                	mov    %eax,%edx
   1e7db:	8b 45 fc             	mov    -0x4(%rbp),%eax
   1e7de:	89 c6                	mov    %eax,%esi
   1e7e0:	89 d7                	mov    %edx,%edi
   1e7e2:	e8 ad c9 fe ff       	callq  b194 <platform_main_end>
   1e7e7:	b8 00 00 00 00       	mov    $0x0,%eax
   1e7ec:	c9                   	leaveq 
   1e7ed:	c3                   	retq   
   1e7ee:	66 90                	xchg   %ax,%ax

000000000001e7f0 <__libc_csu_init>:
   1e7f0:	f3 0f 1e fa          	endbr64 
   1e7f4:	41 57                	push   %r15
   1e7f6:	4c 8d 3d ab 55 00 00 	lea    0x55ab(%rip),%r15        # 23da8 <__frame_dummy_init_array_entry>
   1e7fd:	41 56                	push   %r14
   1e7ff:	49 89 d6             	mov    %rdx,%r14
   1e802:	41 55                	push   %r13
   1e804:	49 89 f5             	mov    %rsi,%r13
   1e807:	41 54                	push   %r12
   1e809:	41 89 fc             	mov    %edi,%r12d
   1e80c:	55                   	push   %rbp
   1e80d:	48 8d 2d 9c 55 00 00 	lea    0x559c(%rip),%rbp        # 23db0 <__do_global_dtors_aux_fini_array_entry>
   1e814:	53                   	push   %rbx
   1e815:	4c 29 fd             	sub    %r15,%rbp
   1e818:	48 83 ec 08          	sub    $0x8,%rsp
   1e81c:	e8 df c7 fe ff       	callq  b000 <_init>
   1e821:	48 c1 fd 03          	sar    $0x3,%rbp
   1e825:	74 1f                	je     1e846 <__libc_csu_init+0x56>
   1e827:	31 db                	xor    %ebx,%ebx
   1e829:	0f 1f 80 00 00 00 00 	nopl   0x0(%rax)
   1e830:	4c 89 f2             	mov    %r14,%rdx
   1e833:	4c 89 ee             	mov    %r13,%rsi
   1e836:	44 89 e7             	mov    %r12d,%edi
   1e839:	41 ff 14 df          	callq  *(%r15,%rbx,8)
   1e83d:	48 83 c3 01          	add    $0x1,%rbx
   1e841:	48 39 dd             	cmp    %rbx,%rbp
   1e844:	75 ea                	jne    1e830 <__libc_csu_init+0x40>
   1e846:	48 83 c4 08          	add    $0x8,%rsp
   1e84a:	5b                   	pop    %rbx
   1e84b:	5d                   	pop    %rbp
   1e84c:	41 5c                	pop    %r12
   1e84e:	41 5d                	pop    %r13
   1e850:	41 5e                	pop    %r14
   1e852:	41 5f                	pop    %r15
   1e854:	c3                   	retq   
   1e855:	66 66 2e 0f 1f 84 00 	data16 nopw %cs:0x0(%rax,%rax,1)
   1e85c:	00 00 00 00 

000000000001e860 <__libc_csu_fini>:
   1e860:	f3 0f 1e fa          	endbr64 
   1e864:	c3                   	retq   
