


Disassembly of section .text:

00000000000060a0 <_start>:
    60a0:	f3 0f 1e fa          	endbr64 
    60a4:	31 ed                	xor    %ebp,%ebp
    60a6:	49 89 d1             	mov    %rdx,%r9
    60a9:	5e                   	pop    %rsi
    60aa:	48 89 e2             	mov    %rsp,%rdx
    60ad:	48 83 e4 f0          	and    $0xfffffffffffffff0,%rsp
    60b1:	50                   	push   %rax
    60b2:	54                   	push   %rsp
    60b3:	4c 8d 05 06 86 00 00 	lea    0x8606(%rip),%r8        # e6c0 <__libc_csu_fini>
    60ba:	48 8d 0d 8f 85 00 00 	lea    0x858f(%rip),%rcx        # e650 <__libc_csu_init>
    60c1:	48 8d 3d 48 7f 00 00 	lea    0x7f48(%rip),%rdi        # e010 <main>
    60c8:	ff 15 0a cf 00 00    	callq  *0xcf0a(%rip)        # 12fd8 <__libc_start_main@GLIBC_2.2.5>
    60ce:	f4                   	hlt    
    60cf:	90                   	nop

00000000000060d0 <deregister_tm_clones>:
    60d0:	48 8d 3d b9 f4 00 00 	lea    0xf4b9(%rip),%rdi        # 15590 <__TMC_END__>
    60d7:	48 8d 05 b2 f4 00 00 	lea    0xf4b2(%rip),%rax        # 15590 <__TMC_END__>
    60de:	48 39 f8             	cmp    %rdi,%rax
    60e1:	74 15                	je     60f8 <deregister_tm_clones+0x28>
    60e3:	48 8b 05 e6 ce 00 00 	mov    0xcee6(%rip),%rax        # 12fd0 <_ITM_deregisterTMCloneTable>
    60ea:	48 85 c0             	test   %rax,%rax
    60ed:	74 09                	je     60f8 <deregister_tm_clones+0x28>
    60ef:	ff e0                	jmpq   *%rax
    60f1:	0f 1f 80 00 00 00 00 	nopl   0x0(%rax)
    60f8:	c3                   	retq   
    60f9:	0f 1f 80 00 00 00 00 	nopl   0x0(%rax)

0000000000006100 <register_tm_clones>:
    6100:	48 8d 3d 89 f4 00 00 	lea    0xf489(%rip),%rdi        # 15590 <__TMC_END__>
    6107:	48 8d 35 82 f4 00 00 	lea    0xf482(%rip),%rsi        # 15590 <__TMC_END__>
    610e:	48 29 fe             	sub    %rdi,%rsi
    6111:	48 89 f0             	mov    %rsi,%rax
    6114:	48 c1 ee 3f          	shr    $0x3f,%rsi
    6118:	48 c1 f8 03          	sar    $0x3,%rax
    611c:	48 01 c6             	add    %rax,%rsi
    611f:	48 d1 fe             	sar    %rsi
    6122:	74 14                	je     6138 <register_tm_clones+0x38>
    6124:	48 8b 05 bd ce 00 00 	mov    0xcebd(%rip),%rax        # 12fe8 <_ITM_registerTMCloneTable>
    612b:	48 85 c0             	test   %rax,%rax
    612e:	74 08                	je     6138 <register_tm_clones+0x38>
    6130:	ff e0                	jmpq   *%rax
    6132:	66 0f 1f 44 00 00    	nopw   0x0(%rax,%rax,1)
    6138:	c3                   	retq   
    6139:	0f 1f 80 00 00 00 00 	nopl   0x0(%rax)

0000000000006140 <__do_global_dtors_aux>:
    6140:	f3 0f 1e fa          	endbr64 
    6144:	80 3d 55 f4 00 00 00 	cmpb   $0x0,0xf455(%rip)        # 155a0 <completed.8061>
    614b:	75 2b                	jne    6178 <__do_global_dtors_aux+0x38>
    614d:	55                   	push   %rbp
    614e:	48 83 3d 9a ce 00 00 	cmpq   $0x0,0xce9a(%rip)        # 12ff0 <__cxa_finalize@GLIBC_2.2.5>
    6155:	00 
    6156:	48 89 e5             	mov    %rsp,%rbp
    6159:	74 0c                	je     6167 <__do_global_dtors_aux+0x27>
    615b:	48 8b 3d a6 ce 00 00 	mov    0xcea6(%rip),%rdi        # 13008 <__dso_handle>
    6162:	e8 f9 fe ff ff       	callq  6060 <__cxa_finalize@plt>
    6167:	e8 64 ff ff ff       	callq  60d0 <deregister_tm_clones>
    616c:	c6 05 2d f4 00 00 01 	movb   $0x1,0xf42d(%rip)        # 155a0 <completed.8061>
    6173:	5d                   	pop    %rbp
    6174:	c3                   	retq   
    6175:	0f 1f 00             	nopl   (%rax)
    6178:	c3                   	retq   
    6179:	0f 1f 80 00 00 00 00 	nopl   0x0(%rax)

0000000000006180 <frame_dummy>:
    6180:	f3 0f 1e fa          	endbr64 
    6184:	e9 77 ff ff ff       	jmpq   6100 <register_tm_clones>

0000000000006189 <platform_main_begin>:
    6189:	f3 0f 1e fa          	endbr64 
    618d:	55                   	push   %rbp
    618e:	48 89 e5             	mov    %rsp,%rbp
    6191:	90                   	nop
    6192:	5d                   	pop    %rbp
    6193:	c3                   	retq   

0000000000006194 <platform_main_end>:
    6194:	f3 0f 1e fa          	endbr64 
    6198:	55                   	push   %rbp
    6199:	48 89 e5             	mov    %rsp,%rbp
    619c:	48 83 ec 10          	sub    $0x10,%rsp
    61a0:	89 7d fc             	mov    %edi,-0x4(%rbp)
    61a3:	89 75 f8             	mov    %esi,-0x8(%rbp)
    61a6:	8b 45 fc             	mov    -0x4(%rbp),%eax
    61a9:	89 c6                	mov    %eax,%esi
    61ab:	48 8d 3d 6e 8e 00 00 	lea    0x8e6e(%rip),%rdi        # f020 <_IO_stdin_used+0x20>
    61b2:	b8 00 00 00 00       	mov    $0x0,%eax
    61b7:	e8 c4 fe ff ff       	callq  6080 <printf@plt>
    61bc:	90                   	nop
    61bd:	c9                   	leaveq 
    61be:	c3                   	retq   

00000000000061bf <safe_unary_minus_func_int8_t_s>:
    61bf:	f3 0f 1e fa          	endbr64 
    61c3:	55                   	push   %rbp
    61c4:	48 89 e5             	mov    %rsp,%rbp
    61c7:	89 f8                	mov    %edi,%eax
    61c9:	88 45 fc             	mov    %al,-0x4(%rbp)
    61cc:	0f b6 45 fc          	movzbl -0x4(%rbp),%eax
    61d0:	f7 d8                	neg    %eax
    61d2:	5d                   	pop    %rbp
    61d3:	c3                   	retq   

00000000000061d4 <safe_add_func_int8_t_s_s>:
    61d4:	f3 0f 1e fa          	endbr64 
    61d8:	55                   	push   %rbp
    61d9:	48 89 e5             	mov    %rsp,%rbp
    61dc:	89 fa                	mov    %edi,%edx
    61de:	89 f0                	mov    %esi,%eax
    61e0:	88 55 fc             	mov    %dl,-0x4(%rbp)
    61e3:	88 45 f8             	mov    %al,-0x8(%rbp)
    61e6:	0f b6 55 fc          	movzbl -0x4(%rbp),%edx
    61ea:	0f b6 45 f8          	movzbl -0x8(%rbp),%eax
    61ee:	01 d0                	add    %edx,%eax
    61f0:	5d                   	pop    %rbp
    61f1:	c3                   	retq   

00000000000061f2 <safe_sub_func_int8_t_s_s>:
    61f2:	f3 0f 1e fa          	endbr64 
    61f6:	55                   	push   %rbp
    61f7:	48 89 e5             	mov    %rsp,%rbp
    61fa:	89 fa                	mov    %edi,%edx
    61fc:	89 f0                	mov    %esi,%eax
    61fe:	88 55 fc             	mov    %dl,-0x4(%rbp)
    6201:	88 45 f8             	mov    %al,-0x8(%rbp)
    6204:	0f b6 55 fc          	movzbl -0x4(%rbp),%edx
    6208:	0f b6 45 f8          	movzbl -0x8(%rbp),%eax
    620c:	29 c2                	sub    %eax,%edx
    620e:	89 d0                	mov    %edx,%eax
    6210:	5d                   	pop    %rbp
    6211:	c3                   	retq   

0000000000006212 <safe_mul_func_int8_t_s_s>:
    6212:	f3 0f 1e fa          	endbr64 
    6216:	55                   	push   %rbp
    6217:	48 89 e5             	mov    %rsp,%rbp
    621a:	89 fa                	mov    %edi,%edx
    621c:	89 f0                	mov    %esi,%eax
    621e:	88 55 fc             	mov    %dl,-0x4(%rbp)
    6221:	88 45 f8             	mov    %al,-0x8(%rbp)
    6224:	0f b6 45 fc          	movzbl -0x4(%rbp),%eax
    6228:	0f b6 55 f8          	movzbl -0x8(%rbp),%edx
    622c:	0f af c2             	imul   %edx,%eax
    622f:	5d                   	pop    %rbp
    6230:	c3                   	retq   

0000000000006231 <safe_mod_func_int8_t_s_s>:
    6231:	f3 0f 1e fa          	endbr64 
    6235:	55                   	push   %rbp
    6236:	48 89 e5             	mov    %rsp,%rbp
    6239:	89 fa                	mov    %edi,%edx
    623b:	89 f0                	mov    %esi,%eax
    623d:	88 55 fc             	mov    %dl,-0x4(%rbp)
    6240:	88 45 f8             	mov    %al,-0x8(%rbp)
    6243:	80 7d f8 00          	cmpb   $0x0,-0x8(%rbp)
    6247:	74 1b                	je     6264 <safe_mod_func_int8_t_s_s+0x33>
    6249:	80 7d fc 80          	cmpb   $0x80,-0x4(%rbp)
    624d:	75 06                	jne    6255 <safe_mod_func_int8_t_s_s+0x24>
    624f:	80 7d f8 ff          	cmpb   $0xff,-0x8(%rbp)
    6253:	74 0f                	je     6264 <safe_mod_func_int8_t_s_s+0x33>
    6255:	0f be 45 fc          	movsbl -0x4(%rbp),%eax
    6259:	0f be 4d f8          	movsbl -0x8(%rbp),%ecx
    625d:	99                   	cltd   
    625e:	f7 f9                	idiv   %ecx
    6260:	89 d0                	mov    %edx,%eax
    6262:	eb 04                	jmp    6268 <safe_mod_func_int8_t_s_s+0x37>
    6264:	0f b6 45 fc          	movzbl -0x4(%rbp),%eax
    6268:	5d                   	pop    %rbp
    6269:	c3                   	retq   

000000000000626a <safe_div_func_int8_t_s_s>:
    626a:	f3 0f 1e fa          	endbr64 
    626e:	55                   	push   %rbp
    626f:	48 89 e5             	mov    %rsp,%rbp
    6272:	89 fa                	mov    %edi,%edx
    6274:	89 f0                	mov    %esi,%eax
    6276:	88 55 fc             	mov    %dl,-0x4(%rbp)
    6279:	88 45 f8             	mov    %al,-0x8(%rbp)
    627c:	80 7d f8 00          	cmpb   $0x0,-0x8(%rbp)
    6280:	74 19                	je     629b <safe_div_func_int8_t_s_s+0x31>
    6282:	80 7d fc 80          	cmpb   $0x80,-0x4(%rbp)
    6286:	75 06                	jne    628e <safe_div_func_int8_t_s_s+0x24>
    6288:	80 7d f8 ff          	cmpb   $0xff,-0x8(%rbp)
    628c:	74 0d                	je     629b <safe_div_func_int8_t_s_s+0x31>
    628e:	0f be 45 fc          	movsbl -0x4(%rbp),%eax
    6292:	0f be 4d f8          	movsbl -0x8(%rbp),%ecx
    6296:	99                   	cltd   
    6297:	f7 f9                	idiv   %ecx
    6299:	eb 04                	jmp    629f <safe_div_func_int8_t_s_s+0x35>
    629b:	0f b6 45 fc          	movzbl -0x4(%rbp),%eax
    629f:	5d                   	pop    %rbp
    62a0:	c3                   	retq   

00000000000062a1 <safe_lshift_func_int8_t_s_s>:
    62a1:	f3 0f 1e fa          	endbr64 
    62a5:	55                   	push   %rbp
    62a6:	48 89 e5             	mov    %rsp,%rbp
    62a9:	89 f8                	mov    %edi,%eax
    62ab:	89 75 f8             	mov    %esi,-0x8(%rbp)
    62ae:	88 45 fc             	mov    %al,-0x4(%rbp)
    62b1:	80 7d fc 00          	cmpb   $0x0,-0x4(%rbp)
    62b5:	78 31                	js     62e8 <safe_lshift_func_int8_t_s_s+0x47>
    62b7:	83 7d f8 00          	cmpl   $0x0,-0x8(%rbp)
    62bb:	78 2b                	js     62e8 <safe_lshift_func_int8_t_s_s+0x47>
    62bd:	83 7d f8 1f          	cmpl   $0x1f,-0x8(%rbp)
    62c1:	7f 25                	jg     62e8 <safe_lshift_func_int8_t_s_s+0x47>
    62c3:	0f be 55 fc          	movsbl -0x4(%rbp),%edx
    62c7:	8b 45 f8             	mov    -0x8(%rbp),%eax
    62ca:	be 7f 00 00 00       	mov    $0x7f,%esi
    62cf:	89 c1                	mov    %eax,%ecx
    62d1:	d3 fe                	sar    %cl,%esi
    62d3:	89 f0                	mov    %esi,%eax
    62d5:	39 c2                	cmp    %eax,%edx
    62d7:	7f 0f                	jg     62e8 <safe_lshift_func_int8_t_s_s+0x47>
    62d9:	0f be 55 fc          	movsbl -0x4(%rbp),%edx
    62dd:	8b 45 f8             	mov    -0x8(%rbp),%eax
    62e0:	89 c1                	mov    %eax,%ecx
    62e2:	d3 e2                	shl    %cl,%edx
    62e4:	89 d0                	mov    %edx,%eax
    62e6:	eb 04                	jmp    62ec <safe_lshift_func_int8_t_s_s+0x4b>
    62e8:	0f b6 45 fc          	movzbl -0x4(%rbp),%eax
    62ec:	5d                   	pop    %rbp
    62ed:	c3                   	retq   

00000000000062ee <safe_lshift_func_int8_t_s_u>:
    62ee:	f3 0f 1e fa          	endbr64 
    62f2:	55                   	push   %rbp
    62f3:	48 89 e5             	mov    %rsp,%rbp
    62f6:	89 f8                	mov    %edi,%eax
    62f8:	89 75 f8             	mov    %esi,-0x8(%rbp)
    62fb:	88 45 fc             	mov    %al,-0x4(%rbp)
    62fe:	80 7d fc 00          	cmpb   $0x0,-0x4(%rbp)
    6302:	78 2b                	js     632f <safe_lshift_func_int8_t_s_u+0x41>
    6304:	83 7d f8 1f          	cmpl   $0x1f,-0x8(%rbp)
    6308:	77 25                	ja     632f <safe_lshift_func_int8_t_s_u+0x41>
    630a:	0f be 55 fc          	movsbl -0x4(%rbp),%edx
    630e:	8b 45 f8             	mov    -0x8(%rbp),%eax
    6311:	be 7f 00 00 00       	mov    $0x7f,%esi
    6316:	89 c1                	mov    %eax,%ecx
    6318:	d3 fe                	sar    %cl,%esi
    631a:	89 f0                	mov    %esi,%eax
    631c:	39 c2                	cmp    %eax,%edx
    631e:	7f 0f                	jg     632f <safe_lshift_func_int8_t_s_u+0x41>
    6320:	0f be 55 fc          	movsbl -0x4(%rbp),%edx
    6324:	8b 45 f8             	mov    -0x8(%rbp),%eax
    6327:	89 c1                	mov    %eax,%ecx
    6329:	d3 e2                	shl    %cl,%edx
    632b:	89 d0                	mov    %edx,%eax
    632d:	eb 04                	jmp    6333 <safe_lshift_func_int8_t_s_u+0x45>
    632f:	0f b6 45 fc          	movzbl -0x4(%rbp),%eax
    6333:	5d                   	pop    %rbp
    6334:	c3                   	retq   

0000000000006335 <safe_rshift_func_int8_t_s_s>:
    6335:	f3 0f 1e fa          	endbr64 
    6339:	55                   	push   %rbp
    633a:	48 89 e5             	mov    %rsp,%rbp
    633d:	89 f8                	mov    %edi,%eax
    633f:	89 75 f8             	mov    %esi,-0x8(%rbp)
    6342:	88 45 fc             	mov    %al,-0x4(%rbp)
    6345:	80 7d fc 00          	cmpb   $0x0,-0x4(%rbp)
    6349:	78 1b                	js     6366 <safe_rshift_func_int8_t_s_s+0x31>
    634b:	83 7d f8 00          	cmpl   $0x0,-0x8(%rbp)
    634f:	78 15                	js     6366 <safe_rshift_func_int8_t_s_s+0x31>
    6351:	83 7d f8 1f          	cmpl   $0x1f,-0x8(%rbp)
    6355:	7f 0f                	jg     6366 <safe_rshift_func_int8_t_s_s+0x31>
    6357:	0f be 55 fc          	movsbl -0x4(%rbp),%edx
    635b:	8b 45 f8             	mov    -0x8(%rbp),%eax
    635e:	89 c1                	mov    %eax,%ecx
    6360:	d3 fa                	sar    %cl,%edx
    6362:	89 d0                	mov    %edx,%eax
    6364:	eb 04                	jmp    636a <safe_rshift_func_int8_t_s_s+0x35>
    6366:	0f b6 45 fc          	movzbl -0x4(%rbp),%eax
    636a:	5d                   	pop    %rbp
    636b:	c3                   	retq   

000000000000636c <safe_rshift_func_int8_t_s_u>:
    636c:	f3 0f 1e fa          	endbr64 
    6370:	55                   	push   %rbp
    6371:	48 89 e5             	mov    %rsp,%rbp
    6374:	89 f8                	mov    %edi,%eax
    6376:	89 75 f8             	mov    %esi,-0x8(%rbp)
    6379:	88 45 fc             	mov    %al,-0x4(%rbp)
    637c:	80 7d fc 00          	cmpb   $0x0,-0x4(%rbp)
    6380:	78 15                	js     6397 <safe_rshift_func_int8_t_s_u+0x2b>
    6382:	83 7d f8 1f          	cmpl   $0x1f,-0x8(%rbp)
    6386:	77 0f                	ja     6397 <safe_rshift_func_int8_t_s_u+0x2b>
    6388:	0f be 55 fc          	movsbl -0x4(%rbp),%edx
    638c:	8b 45 f8             	mov    -0x8(%rbp),%eax
    638f:	89 c1                	mov    %eax,%ecx
    6391:	d3 fa                	sar    %cl,%edx
    6393:	89 d0                	mov    %edx,%eax
    6395:	eb 04                	jmp    639b <safe_rshift_func_int8_t_s_u+0x2f>
    6397:	0f b6 45 fc          	movzbl -0x4(%rbp),%eax
    639b:	5d                   	pop    %rbp
    639c:	c3                   	retq   

000000000000639d <safe_unary_minus_func_int16_t_s>:
    639d:	f3 0f 1e fa          	endbr64 
    63a1:	55                   	push   %rbp
    63a2:	48 89 e5             	mov    %rsp,%rbp
    63a5:	89 f8                	mov    %edi,%eax
    63a7:	66 89 45 fc          	mov    %ax,-0x4(%rbp)
    63ab:	0f b7 45 fc          	movzwl -0x4(%rbp),%eax
    63af:	f7 d8                	neg    %eax
    63b1:	5d                   	pop    %rbp
    63b2:	c3                   	retq   

00000000000063b3 <safe_add_func_int16_t_s_s>:
    63b3:	f3 0f 1e fa          	endbr64 
    63b7:	55                   	push   %rbp
    63b8:	48 89 e5             	mov    %rsp,%rbp
    63bb:	89 fa                	mov    %edi,%edx
    63bd:	89 f0                	mov    %esi,%eax
    63bf:	66 89 55 fc          	mov    %dx,-0x4(%rbp)
    63c3:	66 89 45 f8          	mov    %ax,-0x8(%rbp)
    63c7:	0f b7 55 fc          	movzwl -0x4(%rbp),%edx
    63cb:	0f b7 45 f8          	movzwl -0x8(%rbp),%eax
    63cf:	01 d0                	add    %edx,%eax
    63d1:	5d                   	pop    %rbp
    63d2:	c3                   	retq   

00000000000063d3 <safe_sub_func_int16_t_s_s>:
    63d3:	f3 0f 1e fa          	endbr64 
    63d7:	55                   	push   %rbp
    63d8:	48 89 e5             	mov    %rsp,%rbp
    63db:	89 fa                	mov    %edi,%edx
    63dd:	89 f0                	mov    %esi,%eax
    63df:	66 89 55 fc          	mov    %dx,-0x4(%rbp)
    63e3:	66 89 45 f8          	mov    %ax,-0x8(%rbp)
    63e7:	0f b7 55 fc          	movzwl -0x4(%rbp),%edx
    63eb:	0f b7 45 f8          	movzwl -0x8(%rbp),%eax
    63ef:	29 c2                	sub    %eax,%edx
    63f1:	89 d0                	mov    %edx,%eax
    63f3:	5d                   	pop    %rbp
    63f4:	c3                   	retq   

00000000000063f5 <safe_mul_func_int16_t_s_s>:
    63f5:	f3 0f 1e fa          	endbr64 
    63f9:	55                   	push   %rbp
    63fa:	48 89 e5             	mov    %rsp,%rbp
    63fd:	89 fa                	mov    %edi,%edx
    63ff:	89 f0                	mov    %esi,%eax
    6401:	66 89 55 fc          	mov    %dx,-0x4(%rbp)
    6405:	66 89 45 f8          	mov    %ax,-0x8(%rbp)
    6409:	0f b7 55 fc          	movzwl -0x4(%rbp),%edx
    640d:	0f b7 45 f8          	movzwl -0x8(%rbp),%eax
    6411:	0f af c2             	imul   %edx,%eax
    6414:	5d                   	pop    %rbp
    6415:	c3                   	retq   

0000000000006416 <safe_mod_func_int16_t_s_s>:
    6416:	f3 0f 1e fa          	endbr64 
    641a:	55                   	push   %rbp
    641b:	48 89 e5             	mov    %rsp,%rbp
    641e:	89 fa                	mov    %edi,%edx
    6420:	89 f0                	mov    %esi,%eax
    6422:	66 89 55 fc          	mov    %dx,-0x4(%rbp)
    6426:	66 89 45 f8          	mov    %ax,-0x8(%rbp)
    642a:	66 83 7d f8 00       	cmpw   $0x0,-0x8(%rbp)
    642f:	74 1e                	je     644f <safe_mod_func_int16_t_s_s+0x39>
    6431:	66 81 7d fc 00 80    	cmpw   $0x8000,-0x4(%rbp)
    6437:	75 07                	jne    6440 <safe_mod_func_int16_t_s_s+0x2a>
    6439:	66 83 7d f8 ff       	cmpw   $0xffff,-0x8(%rbp)
    643e:	74 0f                	je     644f <safe_mod_func_int16_t_s_s+0x39>
    6440:	0f bf 45 fc          	movswl -0x4(%rbp),%eax
    6444:	0f bf 4d f8          	movswl -0x8(%rbp),%ecx
    6448:	99                   	cltd   
    6449:	f7 f9                	idiv   %ecx
    644b:	89 d0                	mov    %edx,%eax
    644d:	eb 04                	jmp    6453 <safe_mod_func_int16_t_s_s+0x3d>
    644f:	0f b7 45 fc          	movzwl -0x4(%rbp),%eax
    6453:	5d                   	pop    %rbp
    6454:	c3                   	retq   

0000000000006455 <safe_div_func_int16_t_s_s>:
    6455:	f3 0f 1e fa          	endbr64 
    6459:	55                   	push   %rbp
    645a:	48 89 e5             	mov    %rsp,%rbp
    645d:	89 fa                	mov    %edi,%edx
    645f:	89 f0                	mov    %esi,%eax
    6461:	66 89 55 fc          	mov    %dx,-0x4(%rbp)
    6465:	66 89 45 f8          	mov    %ax,-0x8(%rbp)
    6469:	66 83 7d f8 00       	cmpw   $0x0,-0x8(%rbp)
    646e:	74 1c                	je     648c <safe_div_func_int16_t_s_s+0x37>
    6470:	66 81 7d fc 00 80    	cmpw   $0x8000,-0x4(%rbp)
    6476:	75 07                	jne    647f <safe_div_func_int16_t_s_s+0x2a>
    6478:	66 83 7d f8 ff       	cmpw   $0xffff,-0x8(%rbp)
    647d:	74 0d                	je     648c <safe_div_func_int16_t_s_s+0x37>
    647f:	0f bf 45 fc          	movswl -0x4(%rbp),%eax
    6483:	0f bf 4d f8          	movswl -0x8(%rbp),%ecx
    6487:	99                   	cltd   
    6488:	f7 f9                	idiv   %ecx
    648a:	eb 04                	jmp    6490 <safe_div_func_int16_t_s_s+0x3b>
    648c:	0f b7 45 fc          	movzwl -0x4(%rbp),%eax
    6490:	5d                   	pop    %rbp
    6491:	c3                   	retq   

0000000000006492 <safe_lshift_func_int16_t_s_s>:
    6492:	f3 0f 1e fa          	endbr64 
    6496:	55                   	push   %rbp
    6497:	48 89 e5             	mov    %rsp,%rbp
    649a:	89 f8                	mov    %edi,%eax
    649c:	89 75 f8             	mov    %esi,-0x8(%rbp)
    649f:	66 89 45 fc          	mov    %ax,-0x4(%rbp)
    64a3:	66 83 7d fc 00       	cmpw   $0x0,-0x4(%rbp)
    64a8:	78 31                	js     64db <safe_lshift_func_int16_t_s_s+0x49>
    64aa:	83 7d f8 00          	cmpl   $0x0,-0x8(%rbp)
    64ae:	78 2b                	js     64db <safe_lshift_func_int16_t_s_s+0x49>
    64b0:	83 7d f8 1f          	cmpl   $0x1f,-0x8(%rbp)
    64b4:	7f 25                	jg     64db <safe_lshift_func_int16_t_s_s+0x49>
    64b6:	0f bf 55 fc          	movswl -0x4(%rbp),%edx
    64ba:	8b 45 f8             	mov    -0x8(%rbp),%eax
    64bd:	be ff 7f 00 00       	mov    $0x7fff,%esi
    64c2:	89 c1                	mov    %eax,%ecx
    64c4:	d3 fe                	sar    %cl,%esi
    64c6:	89 f0                	mov    %esi,%eax
    64c8:	39 c2                	cmp    %eax,%edx
    64ca:	7f 0f                	jg     64db <safe_lshift_func_int16_t_s_s+0x49>
    64cc:	0f bf 55 fc          	movswl -0x4(%rbp),%edx
    64d0:	8b 45 f8             	mov    -0x8(%rbp),%eax
    64d3:	89 c1                	mov    %eax,%ecx
    64d5:	d3 e2                	shl    %cl,%edx
    64d7:	89 d0                	mov    %edx,%eax
    64d9:	eb 04                	jmp    64df <safe_lshift_func_int16_t_s_s+0x4d>
    64db:	0f b7 45 fc          	movzwl -0x4(%rbp),%eax
    64df:	5d                   	pop    %rbp
    64e0:	c3                   	retq   

00000000000064e1 <safe_lshift_func_int16_t_s_u>:
    64e1:	f3 0f 1e fa          	endbr64 
    64e5:	55                   	push   %rbp
    64e6:	48 89 e5             	mov    %rsp,%rbp
    64e9:	89 f8                	mov    %edi,%eax
    64eb:	89 75 f8             	mov    %esi,-0x8(%rbp)
    64ee:	66 89 45 fc          	mov    %ax,-0x4(%rbp)
    64f2:	66 83 7d fc 00       	cmpw   $0x0,-0x4(%rbp)
    64f7:	78 2b                	js     6524 <safe_lshift_func_int16_t_s_u+0x43>
    64f9:	83 7d f8 1f          	cmpl   $0x1f,-0x8(%rbp)
    64fd:	77 25                	ja     6524 <safe_lshift_func_int16_t_s_u+0x43>
    64ff:	0f bf 55 fc          	movswl -0x4(%rbp),%edx
    6503:	8b 45 f8             	mov    -0x8(%rbp),%eax
    6506:	be ff 7f 00 00       	mov    $0x7fff,%esi
    650b:	89 c1                	mov    %eax,%ecx
    650d:	d3 fe                	sar    %cl,%esi
    650f:	89 f0                	mov    %esi,%eax
    6511:	39 c2                	cmp    %eax,%edx
    6513:	7f 0f                	jg     6524 <safe_lshift_func_int16_t_s_u+0x43>
    6515:	0f bf 55 fc          	movswl -0x4(%rbp),%edx
    6519:	8b 45 f8             	mov    -0x8(%rbp),%eax
    651c:	89 c1                	mov    %eax,%ecx
    651e:	d3 e2                	shl    %cl,%edx
    6520:	89 d0                	mov    %edx,%eax
    6522:	eb 04                	jmp    6528 <safe_lshift_func_int16_t_s_u+0x47>
    6524:	0f b7 45 fc          	movzwl -0x4(%rbp),%eax
    6528:	5d                   	pop    %rbp
    6529:	c3                   	retq   

000000000000652a <safe_rshift_func_int16_t_s_s>:
    652a:	f3 0f 1e fa          	endbr64 
    652e:	55                   	push   %rbp
    652f:	48 89 e5             	mov    %rsp,%rbp
    6532:	89 f8                	mov    %edi,%eax
    6534:	89 75 f8             	mov    %esi,-0x8(%rbp)
    6537:	66 89 45 fc          	mov    %ax,-0x4(%rbp)
    653b:	66 83 7d fc 00       	cmpw   $0x0,-0x4(%rbp)
    6540:	78 1b                	js     655d <safe_rshift_func_int16_t_s_s+0x33>
    6542:	83 7d f8 00          	cmpl   $0x0,-0x8(%rbp)
    6546:	78 15                	js     655d <safe_rshift_func_int16_t_s_s+0x33>
    6548:	83 7d f8 1f          	cmpl   $0x1f,-0x8(%rbp)
    654c:	7f 0f                	jg     655d <safe_rshift_func_int16_t_s_s+0x33>
    654e:	0f bf 55 fc          	movswl -0x4(%rbp),%edx
    6552:	8b 45 f8             	mov    -0x8(%rbp),%eax
    6555:	89 c1                	mov    %eax,%ecx
    6557:	d3 fa                	sar    %cl,%edx
    6559:	89 d0                	mov    %edx,%eax
    655b:	eb 04                	jmp    6561 <safe_rshift_func_int16_t_s_s+0x37>
    655d:	0f b7 45 fc          	movzwl -0x4(%rbp),%eax
    6561:	5d                   	pop    %rbp
    6562:	c3                   	retq   

0000000000006563 <safe_rshift_func_int16_t_s_u>:
    6563:	f3 0f 1e fa          	endbr64 
    6567:	55                   	push   %rbp
    6568:	48 89 e5             	mov    %rsp,%rbp
    656b:	89 f8                	mov    %edi,%eax
    656d:	89 75 f8             	mov    %esi,-0x8(%rbp)
    6570:	66 89 45 fc          	mov    %ax,-0x4(%rbp)
    6574:	66 83 7d fc 00       	cmpw   $0x0,-0x4(%rbp)
    6579:	78 15                	js     6590 <safe_rshift_func_int16_t_s_u+0x2d>
    657b:	83 7d f8 1f          	cmpl   $0x1f,-0x8(%rbp)
    657f:	77 0f                	ja     6590 <safe_rshift_func_int16_t_s_u+0x2d>
    6581:	0f bf 55 fc          	movswl -0x4(%rbp),%edx
    6585:	8b 45 f8             	mov    -0x8(%rbp),%eax
    6588:	89 c1                	mov    %eax,%ecx
    658a:	d3 fa                	sar    %cl,%edx
    658c:	89 d0                	mov    %edx,%eax
    658e:	eb 04                	jmp    6594 <safe_rshift_func_int16_t_s_u+0x31>
    6590:	0f b7 45 fc          	movzwl -0x4(%rbp),%eax
    6594:	5d                   	pop    %rbp
    6595:	c3                   	retq   

0000000000006596 <safe_unary_minus_func_int32_t_s>:
    6596:	f3 0f 1e fa          	endbr64 
    659a:	55                   	push   %rbp
    659b:	48 89 e5             	mov    %rsp,%rbp
    659e:	89 7d fc             	mov    %edi,-0x4(%rbp)
    65a1:	81 7d fc 00 00 00 80 	cmpl   $0x80000000,-0x4(%rbp)
    65a8:	74 07                	je     65b1 <safe_unary_minus_func_int32_t_s+0x1b>
    65aa:	8b 45 fc             	mov    -0x4(%rbp),%eax
    65ad:	f7 d8                	neg    %eax
    65af:	eb 03                	jmp    65b4 <safe_unary_minus_func_int32_t_s+0x1e>
    65b1:	8b 45 fc             	mov    -0x4(%rbp),%eax
    65b4:	5d                   	pop    %rbp
    65b5:	c3                   	retq   

00000000000065b6 <safe_add_func_int32_t_s_s>:
    65b6:	f3 0f 1e fa          	endbr64 
    65ba:	55                   	push   %rbp
    65bb:	48 89 e5             	mov    %rsp,%rbp
    65be:	89 7d fc             	mov    %edi,-0x4(%rbp)
    65c1:	89 75 f8             	mov    %esi,-0x8(%rbp)
    65c4:	83 7d fc 00          	cmpl   $0x0,-0x4(%rbp)
    65c8:	7e 13                	jle    65dd <safe_add_func_int32_t_s_s+0x27>
    65ca:	83 7d f8 00          	cmpl   $0x0,-0x8(%rbp)
    65ce:	7e 0d                	jle    65dd <safe_add_func_int32_t_s_s+0x27>
    65d0:	b8 ff ff ff 7f       	mov    $0x7fffffff,%eax
    65d5:	2b 45 f8             	sub    -0x8(%rbp),%eax
    65d8:	39 45 fc             	cmp    %eax,-0x4(%rbp)
    65db:	7f 23                	jg     6600 <safe_add_func_int32_t_s_s+0x4a>
    65dd:	83 7d fc 00          	cmpl   $0x0,-0x4(%rbp)
    65e1:	79 13                	jns    65f6 <safe_add_func_int32_t_s_s+0x40>
    65e3:	83 7d f8 00          	cmpl   $0x0,-0x8(%rbp)
    65e7:	79 0d                	jns    65f6 <safe_add_func_int32_t_s_s+0x40>
    65e9:	b8 00 00 00 80       	mov    $0x80000000,%eax
    65ee:	2b 45 f8             	sub    -0x8(%rbp),%eax
    65f1:	39 45 fc             	cmp    %eax,-0x4(%rbp)
    65f4:	7c 0a                	jl     6600 <safe_add_func_int32_t_s_s+0x4a>
    65f6:	8b 55 fc             	mov    -0x4(%rbp),%edx
    65f9:	8b 45 f8             	mov    -0x8(%rbp),%eax
    65fc:	01 d0                	add    %edx,%eax
    65fe:	eb 03                	jmp    6603 <safe_add_func_int32_t_s_s+0x4d>
    6600:	8b 45 fc             	mov    -0x4(%rbp),%eax
    6603:	5d                   	pop    %rbp
    6604:	c3                   	retq   

0000000000006605 <safe_sub_func_int32_t_s_s>:
    6605:	f3 0f 1e fa          	endbr64 
    6609:	55                   	push   %rbp
    660a:	48 89 e5             	mov    %rsp,%rbp
    660d:	89 7d fc             	mov    %edi,-0x4(%rbp)
    6610:	89 75 f8             	mov    %esi,-0x8(%rbp)
    6613:	8b 45 fc             	mov    -0x4(%rbp),%eax
    6616:	33 45 f8             	xor    -0x8(%rbp),%eax
    6619:	89 c2                	mov    %eax,%edx
    661b:	8b 45 fc             	mov    -0x4(%rbp),%eax
    661e:	33 45 f8             	xor    -0x8(%rbp),%eax
    6621:	25 00 00 00 80       	and    $0x80000000,%eax
    6626:	33 45 fc             	xor    -0x4(%rbp),%eax
    6629:	2b 45 f8             	sub    -0x8(%rbp),%eax
    662c:	33 45 f8             	xor    -0x8(%rbp),%eax
    662f:	21 d0                	and    %edx,%eax
    6631:	85 c0                	test   %eax,%eax
    6633:	78 08                	js     663d <safe_sub_func_int32_t_s_s+0x38>
    6635:	8b 45 fc             	mov    -0x4(%rbp),%eax
    6638:	2b 45 f8             	sub    -0x8(%rbp),%eax
    663b:	eb 03                	jmp    6640 <safe_sub_func_int32_t_s_s+0x3b>
    663d:	8b 45 fc             	mov    -0x4(%rbp),%eax
    6640:	5d                   	pop    %rbp
    6641:	c3                   	retq   

0000000000006642 <safe_mul_func_int32_t_s_s>:
    6642:	f3 0f 1e fa          	endbr64 
    6646:	55                   	push   %rbp
    6647:	48 89 e5             	mov    %rsp,%rbp
    664a:	89 7d fc             	mov    %edi,-0x4(%rbp)
    664d:	89 75 f8             	mov    %esi,-0x8(%rbp)
    6650:	83 7d fc 00          	cmpl   $0x0,-0x4(%rbp)
    6654:	7e 14                	jle    666a <safe_mul_func_int32_t_s_s+0x28>
    6656:	83 7d f8 00          	cmpl   $0x0,-0x8(%rbp)
    665a:	7e 0e                	jle    666a <safe_mul_func_int32_t_s_s+0x28>
    665c:	b8 ff ff ff 7f       	mov    $0x7fffffff,%eax
    6661:	99                   	cltd   
    6662:	f7 7d f8             	idivl  -0x8(%rbp)
    6665:	39 45 fc             	cmp    %eax,-0x4(%rbp)
    6668:	7f 5d                	jg     66c7 <safe_mul_func_int32_t_s_s+0x85>
    666a:	83 7d fc 00          	cmpl   $0x0,-0x4(%rbp)
    666e:	7e 14                	jle    6684 <safe_mul_func_int32_t_s_s+0x42>
    6670:	83 7d f8 00          	cmpl   $0x0,-0x8(%rbp)
    6674:	7f 0e                	jg     6684 <safe_mul_func_int32_t_s_s+0x42>
    6676:	b8 00 00 00 80       	mov    $0x80000000,%eax
    667b:	99                   	cltd   
    667c:	f7 7d fc             	idivl  -0x4(%rbp)
    667f:	39 45 f8             	cmp    %eax,-0x8(%rbp)
    6682:	7c 43                	jl     66c7 <safe_mul_func_int32_t_s_s+0x85>
    6684:	83 7d fc 00          	cmpl   $0x0,-0x4(%rbp)
    6688:	7f 14                	jg     669e <safe_mul_func_int32_t_s_s+0x5c>
    668a:	83 7d f8 00          	cmpl   $0x0,-0x8(%rbp)
    668e:	7e 0e                	jle    669e <safe_mul_func_int32_t_s_s+0x5c>
    6690:	b8 00 00 00 80       	mov    $0x80000000,%eax
    6695:	99                   	cltd   
    6696:	f7 7d f8             	idivl  -0x8(%rbp)
    6699:	39 45 fc             	cmp    %eax,-0x4(%rbp)
    669c:	7c 29                	jl     66c7 <safe_mul_func_int32_t_s_s+0x85>
    669e:	83 7d fc 00          	cmpl   $0x0,-0x4(%rbp)
    66a2:	7f 1a                	jg     66be <safe_mul_func_int32_t_s_s+0x7c>
    66a4:	83 7d f8 00          	cmpl   $0x0,-0x8(%rbp)
    66a8:	7f 14                	jg     66be <safe_mul_func_int32_t_s_s+0x7c>
    66aa:	83 7d fc 00          	cmpl   $0x0,-0x4(%rbp)
    66ae:	74 0e                	je     66be <safe_mul_func_int32_t_s_s+0x7c>
    66b0:	b8 ff ff ff 7f       	mov    $0x7fffffff,%eax
    66b5:	99                   	cltd   
    66b6:	f7 7d fc             	idivl  -0x4(%rbp)
    66b9:	39 45 f8             	cmp    %eax,-0x8(%rbp)
    66bc:	7c 09                	jl     66c7 <safe_mul_func_int32_t_s_s+0x85>
    66be:	8b 45 fc             	mov    -0x4(%rbp),%eax
    66c1:	0f af 45 f8          	imul   -0x8(%rbp),%eax
    66c5:	eb 03                	jmp    66ca <safe_mul_func_int32_t_s_s+0x88>
    66c7:	8b 45 fc             	mov    -0x4(%rbp),%eax
    66ca:	5d                   	pop    %rbp
    66cb:	c3                   	retq   

00000000000066cc <safe_mod_func_int32_t_s_s>:
    66cc:	f3 0f 1e fa          	endbr64 
    66d0:	55                   	push   %rbp
    66d1:	48 89 e5             	mov    %rsp,%rbp
    66d4:	89 7d fc             	mov    %edi,-0x4(%rbp)
    66d7:	89 75 f8             	mov    %esi,-0x8(%rbp)
    66da:	83 7d f8 00          	cmpl   $0x0,-0x8(%rbp)
    66de:	74 1a                	je     66fa <safe_mod_func_int32_t_s_s+0x2e>
    66e0:	81 7d fc 00 00 00 80 	cmpl   $0x80000000,-0x4(%rbp)
    66e7:	75 06                	jne    66ef <safe_mod_func_int32_t_s_s+0x23>
    66e9:	83 7d f8 ff          	cmpl   $0xffffffff,-0x8(%rbp)
    66ed:	74 0b                	je     66fa <safe_mod_func_int32_t_s_s+0x2e>
    66ef:	8b 45 fc             	mov    -0x4(%rbp),%eax
    66f2:	99                   	cltd   
    66f3:	f7 7d f8             	idivl  -0x8(%rbp)
    66f6:	89 d0                	mov    %edx,%eax
    66f8:	eb 03                	jmp    66fd <safe_mod_func_int32_t_s_s+0x31>
    66fa:	8b 45 fc             	mov    -0x4(%rbp),%eax
    66fd:	5d                   	pop    %rbp
    66fe:	c3                   	retq   

00000000000066ff <safe_div_func_int32_t_s_s>:
    66ff:	f3 0f 1e fa          	endbr64 
    6703:	55                   	push   %rbp
    6704:	48 89 e5             	mov    %rsp,%rbp
    6707:	89 7d fc             	mov    %edi,-0x4(%rbp)
    670a:	89 75 f8             	mov    %esi,-0x8(%rbp)
    670d:	83 7d f8 00          	cmpl   $0x0,-0x8(%rbp)
    6711:	74 18                	je     672b <safe_div_func_int32_t_s_s+0x2c>
    6713:	81 7d fc 00 00 00 80 	cmpl   $0x80000000,-0x4(%rbp)
    671a:	75 06                	jne    6722 <safe_div_func_int32_t_s_s+0x23>
    671c:	83 7d f8 ff          	cmpl   $0xffffffff,-0x8(%rbp)
    6720:	74 09                	je     672b <safe_div_func_int32_t_s_s+0x2c>
    6722:	8b 45 fc             	mov    -0x4(%rbp),%eax
    6725:	99                   	cltd   
    6726:	f7 7d f8             	idivl  -0x8(%rbp)
    6729:	eb 03                	jmp    672e <safe_div_func_int32_t_s_s+0x2f>
    672b:	8b 45 fc             	mov    -0x4(%rbp),%eax
    672e:	5d                   	pop    %rbp
    672f:	c3                   	retq   

0000000000006730 <safe_lshift_func_int32_t_s_s>:
    6730:	f3 0f 1e fa          	endbr64 
    6734:	55                   	push   %rbp
    6735:	48 89 e5             	mov    %rsp,%rbp
    6738:	89 7d fc             	mov    %edi,-0x4(%rbp)
    673b:	89 75 f8             	mov    %esi,-0x8(%rbp)
    673e:	83 7d fc 00          	cmpl   $0x0,-0x4(%rbp)
    6742:	78 2d                	js     6771 <safe_lshift_func_int32_t_s_s+0x41>
    6744:	83 7d f8 00          	cmpl   $0x0,-0x8(%rbp)
    6748:	78 27                	js     6771 <safe_lshift_func_int32_t_s_s+0x41>
    674a:	83 7d f8 1f          	cmpl   $0x1f,-0x8(%rbp)
    674e:	7f 21                	jg     6771 <safe_lshift_func_int32_t_s_s+0x41>
    6750:	8b 45 f8             	mov    -0x8(%rbp),%eax
    6753:	ba ff ff ff 7f       	mov    $0x7fffffff,%edx
    6758:	89 c1                	mov    %eax,%ecx
    675a:	d3 fa                	sar    %cl,%edx
    675c:	89 d0                	mov    %edx,%eax
    675e:	39 45 fc             	cmp    %eax,-0x4(%rbp)
    6761:	7f 0e                	jg     6771 <safe_lshift_func_int32_t_s_s+0x41>
    6763:	8b 45 f8             	mov    -0x8(%rbp),%eax
    6766:	8b 55 fc             	mov    -0x4(%rbp),%edx
    6769:	89 c1                	mov    %eax,%ecx
    676b:	d3 e2                	shl    %cl,%edx
    676d:	89 d0                	mov    %edx,%eax
    676f:	eb 03                	jmp    6774 <safe_lshift_func_int32_t_s_s+0x44>
    6771:	8b 45 fc             	mov    -0x4(%rbp),%eax
    6774:	5d                   	pop    %rbp
    6775:	c3                   	retq   

0000000000006776 <safe_lshift_func_int32_t_s_u>:
    6776:	f3 0f 1e fa          	endbr64 
    677a:	55                   	push   %rbp
    677b:	48 89 e5             	mov    %rsp,%rbp
    677e:	89 7d fc             	mov    %edi,-0x4(%rbp)
    6781:	89 75 f8             	mov    %esi,-0x8(%rbp)
    6784:	83 7d fc 00          	cmpl   $0x0,-0x4(%rbp)
    6788:	78 27                	js     67b1 <safe_lshift_func_int32_t_s_u+0x3b>
    678a:	83 7d f8 1f          	cmpl   $0x1f,-0x8(%rbp)
    678e:	77 21                	ja     67b1 <safe_lshift_func_int32_t_s_u+0x3b>
    6790:	8b 45 f8             	mov    -0x8(%rbp),%eax
    6793:	ba ff ff ff 7f       	mov    $0x7fffffff,%edx
    6798:	89 c1                	mov    %eax,%ecx
    679a:	d3 fa                	sar    %cl,%edx
    679c:	89 d0                	mov    %edx,%eax
    679e:	39 45 fc             	cmp    %eax,-0x4(%rbp)
    67a1:	7f 0e                	jg     67b1 <safe_lshift_func_int32_t_s_u+0x3b>
    67a3:	8b 45 f8             	mov    -0x8(%rbp),%eax
    67a6:	8b 55 fc             	mov    -0x4(%rbp),%edx
    67a9:	89 c1                	mov    %eax,%ecx
    67ab:	d3 e2                	shl    %cl,%edx
    67ad:	89 d0                	mov    %edx,%eax
    67af:	eb 03                	jmp    67b4 <safe_lshift_func_int32_t_s_u+0x3e>
    67b1:	8b 45 fc             	mov    -0x4(%rbp),%eax
    67b4:	5d                   	pop    %rbp
    67b5:	c3                   	retq   

00000000000067b6 <safe_rshift_func_int32_t_s_s>:
    67b6:	f3 0f 1e fa          	endbr64 
    67ba:	55                   	push   %rbp
    67bb:	48 89 e5             	mov    %rsp,%rbp
    67be:	89 7d fc             	mov    %edi,-0x4(%rbp)
    67c1:	89 75 f8             	mov    %esi,-0x8(%rbp)
    67c4:	83 7d fc 00          	cmpl   $0x0,-0x4(%rbp)
    67c8:	78 1a                	js     67e4 <safe_rshift_func_int32_t_s_s+0x2e>
    67ca:	83 7d f8 00          	cmpl   $0x0,-0x8(%rbp)
    67ce:	78 14                	js     67e4 <safe_rshift_func_int32_t_s_s+0x2e>
    67d0:	83 7d f8 1f          	cmpl   $0x1f,-0x8(%rbp)
    67d4:	7f 0e                	jg     67e4 <safe_rshift_func_int32_t_s_s+0x2e>
    67d6:	8b 45 f8             	mov    -0x8(%rbp),%eax
    67d9:	8b 55 fc             	mov    -0x4(%rbp),%edx
    67dc:	89 c1                	mov    %eax,%ecx
    67de:	d3 fa                	sar    %cl,%edx
    67e0:	89 d0                	mov    %edx,%eax
    67e2:	eb 03                	jmp    67e7 <safe_rshift_func_int32_t_s_s+0x31>
    67e4:	8b 45 fc             	mov    -0x4(%rbp),%eax
    67e7:	5d                   	pop    %rbp
    67e8:	c3                   	retq   

00000000000067e9 <safe_rshift_func_int32_t_s_u>:
    67e9:	f3 0f 1e fa          	endbr64 
    67ed:	55                   	push   %rbp
    67ee:	48 89 e5             	mov    %rsp,%rbp
    67f1:	89 7d fc             	mov    %edi,-0x4(%rbp)
    67f4:	89 75 f8             	mov    %esi,-0x8(%rbp)
    67f7:	83 7d fc 00          	cmpl   $0x0,-0x4(%rbp)
    67fb:	78 14                	js     6811 <safe_rshift_func_int32_t_s_u+0x28>
    67fd:	83 7d f8 1f          	cmpl   $0x1f,-0x8(%rbp)
    6801:	77 0e                	ja     6811 <safe_rshift_func_int32_t_s_u+0x28>
    6803:	8b 45 f8             	mov    -0x8(%rbp),%eax
    6806:	8b 55 fc             	mov    -0x4(%rbp),%edx
    6809:	89 c1                	mov    %eax,%ecx
    680b:	d3 fa                	sar    %cl,%edx
    680d:	89 d0                	mov    %edx,%eax
    680f:	eb 03                	jmp    6814 <safe_rshift_func_int32_t_s_u+0x2b>
    6811:	8b 45 fc             	mov    -0x4(%rbp),%eax
    6814:	5d                   	pop    %rbp
    6815:	c3                   	retq   

0000000000006816 <safe_unary_minus_func_int64_t_s>:
    6816:	f3 0f 1e fa          	endbr64 
    681a:	55                   	push   %rbp
    681b:	48 89 e5             	mov    %rsp,%rbp
    681e:	48 89 7d f8          	mov    %rdi,-0x8(%rbp)
    6822:	48 b8 00 00 00 00 00 	movabs $0x8000000000000000,%rax
    6829:	00 00 80 
    682c:	48 39 45 f8          	cmp    %rax,-0x8(%rbp)
    6830:	74 09                	je     683b <safe_unary_minus_func_int64_t_s+0x25>
    6832:	48 8b 45 f8          	mov    -0x8(%rbp),%rax
    6836:	48 f7 d8             	neg    %rax
    6839:	eb 04                	jmp    683f <safe_unary_minus_func_int64_t_s+0x29>
    683b:	48 8b 45 f8          	mov    -0x8(%rbp),%rax
    683f:	5d                   	pop    %rbp
    6840:	c3                   	retq   

0000000000006841 <safe_add_func_int64_t_s_s>:
    6841:	f3 0f 1e fa          	endbr64 
    6845:	55                   	push   %rbp
    6846:	48 89 e5             	mov    %rsp,%rbp
    6849:	48 89 7d f8          	mov    %rdi,-0x8(%rbp)
    684d:	48 89 75 f0          	mov    %rsi,-0x10(%rbp)
    6851:	48 83 7d f8 00       	cmpq   $0x0,-0x8(%rbp)
    6856:	7e 1b                	jle    6873 <safe_add_func_int64_t_s_s+0x32>
    6858:	48 83 7d f0 00       	cmpq   $0x0,-0x10(%rbp)
    685d:	7e 14                	jle    6873 <safe_add_func_int64_t_s_s+0x32>
    685f:	48 b8 ff ff ff ff ff 	movabs $0x7fffffffffffffff,%rax
    6866:	ff ff 7f 
    6869:	48 2b 45 f0          	sub    -0x10(%rbp),%rax
    686d:	48 39 45 f8          	cmp    %rax,-0x8(%rbp)
    6871:	7f 2f                	jg     68a2 <safe_add_func_int64_t_s_s+0x61>
    6873:	48 83 7d f8 00       	cmpq   $0x0,-0x8(%rbp)
    6878:	79 1b                	jns    6895 <safe_add_func_int64_t_s_s+0x54>
    687a:	48 83 7d f0 00       	cmpq   $0x0,-0x10(%rbp)
    687f:	79 14                	jns    6895 <safe_add_func_int64_t_s_s+0x54>
    6881:	48 b8 00 00 00 00 00 	movabs $0x8000000000000000,%rax
    6888:	00 00 80 
    688b:	48 2b 45 f0          	sub    -0x10(%rbp),%rax
    688f:	48 39 45 f8          	cmp    %rax,-0x8(%rbp)
    6893:	7c 0d                	jl     68a2 <safe_add_func_int64_t_s_s+0x61>
    6895:	48 8b 55 f8          	mov    -0x8(%rbp),%rdx
    6899:	48 8b 45 f0          	mov    -0x10(%rbp),%rax
    689d:	48 01 d0             	add    %rdx,%rax
    68a0:	eb 04                	jmp    68a6 <safe_add_func_int64_t_s_s+0x65>
    68a2:	48 8b 45 f8          	mov    -0x8(%rbp),%rax
    68a6:	5d                   	pop    %rbp
    68a7:	c3                   	retq   

00000000000068a8 <safe_sub_func_int64_t_s_s>:
    68a8:	f3 0f 1e fa          	endbr64 
    68ac:	55                   	push   %rbp
    68ad:	48 89 e5             	mov    %rsp,%rbp
    68b0:	48 89 7d f8          	mov    %rdi,-0x8(%rbp)
    68b4:	48 89 75 f0          	mov    %rsi,-0x10(%rbp)
    68b8:	48 8b 45 f8          	mov    -0x8(%rbp),%rax
    68bc:	48 33 45 f0          	xor    -0x10(%rbp),%rax
    68c0:	48 89 c2             	mov    %rax,%rdx
    68c3:	48 8b 45 f8          	mov    -0x8(%rbp),%rax
    68c7:	48 33 45 f0          	xor    -0x10(%rbp),%rax
    68cb:	48 b9 00 00 00 00 00 	movabs $0x8000000000000000,%rcx
    68d2:	00 00 80 
    68d5:	48 21 c8             	and    %rcx,%rax
    68d8:	48 33 45 f8          	xor    -0x8(%rbp),%rax
    68dc:	48 2b 45 f0          	sub    -0x10(%rbp),%rax
    68e0:	48 33 45 f0          	xor    -0x10(%rbp),%rax
    68e4:	48 21 d0             	and    %rdx,%rax
    68e7:	48 85 c0             	test   %rax,%rax
    68ea:	78 0a                	js     68f6 <safe_sub_func_int64_t_s_s+0x4e>
    68ec:	48 8b 45 f8          	mov    -0x8(%rbp),%rax
    68f0:	48 2b 45 f0          	sub    -0x10(%rbp),%rax
    68f4:	eb 04                	jmp    68fa <safe_sub_func_int64_t_s_s+0x52>
    68f6:	48 8b 45 f8          	mov    -0x8(%rbp),%rax
    68fa:	5d                   	pop    %rbp
    68fb:	c3                   	retq   

00000000000068fc <safe_mul_func_int64_t_s_s>:
    68fc:	f3 0f 1e fa          	endbr64 
    6900:	55                   	push   %rbp
    6901:	48 89 e5             	mov    %rsp,%rbp
    6904:	48 89 7d f8          	mov    %rdi,-0x8(%rbp)
    6908:	48 89 75 f0          	mov    %rsi,-0x10(%rbp)
    690c:	48 83 7d f8 00       	cmpq   $0x0,-0x8(%rbp)
    6911:	7e 1d                	jle    6930 <safe_mul_func_int64_t_s_s+0x34>
    6913:	48 83 7d f0 00       	cmpq   $0x0,-0x10(%rbp)
    6918:	7e 16                	jle    6930 <safe_mul_func_int64_t_s_s+0x34>
    691a:	48 b8 ff ff ff ff ff 	movabs $0x7fffffffffffffff,%rax
    6921:	ff ff 7f 
    6924:	48 99                	cqto   
    6926:	48 f7 7d f0          	idivq  -0x10(%rbp)
    692a:	48 39 45 f8          	cmp    %rax,-0x8(%rbp)
    692e:	7f 7e                	jg     69ae <safe_mul_func_int64_t_s_s+0xb2>
    6930:	48 83 7d f8 00       	cmpq   $0x0,-0x8(%rbp)
    6935:	7e 1d                	jle    6954 <safe_mul_func_int64_t_s_s+0x58>
    6937:	48 83 7d f0 00       	cmpq   $0x0,-0x10(%rbp)
    693c:	7f 16                	jg     6954 <safe_mul_func_int64_t_s_s+0x58>
    693e:	48 b8 00 00 00 00 00 	movabs $0x8000000000000000,%rax
    6945:	00 00 80 
    6948:	48 99                	cqto   
    694a:	48 f7 7d f8          	idivq  -0x8(%rbp)
    694e:	48 39 45 f0          	cmp    %rax,-0x10(%rbp)
    6952:	7c 5a                	jl     69ae <safe_mul_func_int64_t_s_s+0xb2>
    6954:	48 83 7d f8 00       	cmpq   $0x0,-0x8(%rbp)
    6959:	7f 1d                	jg     6978 <safe_mul_func_int64_t_s_s+0x7c>
    695b:	48 83 7d f0 00       	cmpq   $0x0,-0x10(%rbp)
    6960:	7e 16                	jle    6978 <safe_mul_func_int64_t_s_s+0x7c>
    6962:	48 b8 00 00 00 00 00 	movabs $0x8000000000000000,%rax
    6969:	00 00 80 
    696c:	48 99                	cqto   
    696e:	48 f7 7d f0          	idivq  -0x10(%rbp)
    6972:	48 39 45 f8          	cmp    %rax,-0x8(%rbp)
    6976:	7c 36                	jl     69ae <safe_mul_func_int64_t_s_s+0xb2>
    6978:	48 83 7d f8 00       	cmpq   $0x0,-0x8(%rbp)
    697d:	7f 24                	jg     69a3 <safe_mul_func_int64_t_s_s+0xa7>
    697f:	48 83 7d f0 00       	cmpq   $0x0,-0x10(%rbp)
    6984:	7f 1d                	jg     69a3 <safe_mul_func_int64_t_s_s+0xa7>
    6986:	48 83 7d f8 00       	cmpq   $0x0,-0x8(%rbp)
    698b:	74 16                	je     69a3 <safe_mul_func_int64_t_s_s+0xa7>
    698d:	48 b8 ff ff ff ff ff 	movabs $0x7fffffffffffffff,%rax
    6994:	ff ff 7f 
    6997:	48 99                	cqto   
    6999:	48 f7 7d f8          	idivq  -0x8(%rbp)
    699d:	48 39 45 f0          	cmp    %rax,-0x10(%rbp)
    69a1:	7c 0b                	jl     69ae <safe_mul_func_int64_t_s_s+0xb2>
    69a3:	48 8b 45 f8          	mov    -0x8(%rbp),%rax
    69a7:	48 0f af 45 f0       	imul   -0x10(%rbp),%rax
    69ac:	eb 04                	jmp    69b2 <safe_mul_func_int64_t_s_s+0xb6>
    69ae:	48 8b 45 f8          	mov    -0x8(%rbp),%rax
    69b2:	5d                   	pop    %rbp
    69b3:	c3                   	retq   

00000000000069b4 <safe_mod_func_int64_t_s_s>:
    69b4:	f3 0f 1e fa          	endbr64 
    69b8:	55                   	push   %rbp
    69b9:	48 89 e5             	mov    %rsp,%rbp
    69bc:	48 89 7d f8          	mov    %rdi,-0x8(%rbp)
    69c0:	48 89 75 f0          	mov    %rsi,-0x10(%rbp)
    69c4:	48 83 7d f0 00       	cmpq   $0x0,-0x10(%rbp)
    69c9:	74 26                	je     69f1 <safe_mod_func_int64_t_s_s+0x3d>
    69cb:	48 b8 00 00 00 00 00 	movabs $0x8000000000000000,%rax
    69d2:	00 00 80 
    69d5:	48 39 45 f8          	cmp    %rax,-0x8(%rbp)
    69d9:	75 07                	jne    69e2 <safe_mod_func_int64_t_s_s+0x2e>
    69db:	48 83 7d f0 ff       	cmpq   $0xffffffffffffffff,-0x10(%rbp)
    69e0:	74 0f                	je     69f1 <safe_mod_func_int64_t_s_s+0x3d>
    69e2:	48 8b 45 f8          	mov    -0x8(%rbp),%rax
    69e6:	48 99                	cqto   
    69e8:	48 f7 7d f0          	idivq  -0x10(%rbp)
    69ec:	48 89 d0             	mov    %rdx,%rax
    69ef:	eb 04                	jmp    69f5 <safe_mod_func_int64_t_s_s+0x41>
    69f1:	48 8b 45 f8          	mov    -0x8(%rbp),%rax
    69f5:	5d                   	pop    %rbp
    69f6:	c3                   	retq   

00000000000069f7 <safe_div_func_int64_t_s_s>:
    69f7:	f3 0f 1e fa          	endbr64 
    69fb:	55                   	push   %rbp
    69fc:	48 89 e5             	mov    %rsp,%rbp
    69ff:	48 89 7d f8          	mov    %rdi,-0x8(%rbp)
    6a03:	48 89 75 f0          	mov    %rsi,-0x10(%rbp)
    6a07:	48 83 7d f0 00       	cmpq   $0x0,-0x10(%rbp)
    6a0c:	74 23                	je     6a31 <safe_div_func_int64_t_s_s+0x3a>
    6a0e:	48 b8 00 00 00 00 00 	movabs $0x8000000000000000,%rax
    6a15:	00 00 80 
    6a18:	48 39 45 f8          	cmp    %rax,-0x8(%rbp)
    6a1c:	75 07                	jne    6a25 <safe_div_func_int64_t_s_s+0x2e>
    6a1e:	48 83 7d f0 ff       	cmpq   $0xffffffffffffffff,-0x10(%rbp)
    6a23:	74 0c                	je     6a31 <safe_div_func_int64_t_s_s+0x3a>
    6a25:	48 8b 45 f8          	mov    -0x8(%rbp),%rax
    6a29:	48 99                	cqto   
    6a2b:	48 f7 7d f0          	idivq  -0x10(%rbp)
    6a2f:	eb 04                	jmp    6a35 <safe_div_func_int64_t_s_s+0x3e>
    6a31:	48 8b 45 f8          	mov    -0x8(%rbp),%rax
    6a35:	5d                   	pop    %rbp
    6a36:	c3                   	retq   

0000000000006a37 <safe_lshift_func_int64_t_s_s>:
    6a37:	f3 0f 1e fa          	endbr64 
    6a3b:	55                   	push   %rbp
    6a3c:	48 89 e5             	mov    %rsp,%rbp
    6a3f:	48 89 7d f8          	mov    %rdi,-0x8(%rbp)
    6a43:	89 75 f4             	mov    %esi,-0xc(%rbp)
    6a46:	48 83 7d f8 00       	cmpq   $0x0,-0x8(%rbp)
    6a4b:	78 38                	js     6a85 <safe_lshift_func_int64_t_s_s+0x4e>
    6a4d:	83 7d f4 00          	cmpl   $0x0,-0xc(%rbp)
    6a51:	78 32                	js     6a85 <safe_lshift_func_int64_t_s_s+0x4e>
    6a53:	83 7d f4 1f          	cmpl   $0x1f,-0xc(%rbp)
    6a57:	7f 2c                	jg     6a85 <safe_lshift_func_int64_t_s_s+0x4e>
    6a59:	8b 45 f4             	mov    -0xc(%rbp),%eax
    6a5c:	48 ba ff ff ff ff ff 	movabs $0x7fffffffffffffff,%rdx
    6a63:	ff ff 7f 
    6a66:	89 c1                	mov    %eax,%ecx
    6a68:	48 d3 fa             	sar    %cl,%rdx
    6a6b:	48 89 d0             	mov    %rdx,%rax
    6a6e:	48 39 45 f8          	cmp    %rax,-0x8(%rbp)
    6a72:	7f 11                	jg     6a85 <safe_lshift_func_int64_t_s_s+0x4e>
    6a74:	8b 45 f4             	mov    -0xc(%rbp),%eax
    6a77:	48 8b 55 f8          	mov    -0x8(%rbp),%rdx
    6a7b:	89 c1                	mov    %eax,%ecx
    6a7d:	48 d3 e2             	shl    %cl,%rdx
    6a80:	48 89 d0             	mov    %rdx,%rax
    6a83:	eb 04                	jmp    6a89 <safe_lshift_func_int64_t_s_s+0x52>
    6a85:	48 8b 45 f8          	mov    -0x8(%rbp),%rax
    6a89:	5d                   	pop    %rbp
    6a8a:	c3                   	retq   

0000000000006a8b <safe_lshift_func_int64_t_s_u>:
    6a8b:	f3 0f 1e fa          	endbr64 
    6a8f:	55                   	push   %rbp
    6a90:	48 89 e5             	mov    %rsp,%rbp
    6a93:	48 89 7d f8          	mov    %rdi,-0x8(%rbp)
    6a97:	89 75 f4             	mov    %esi,-0xc(%rbp)
    6a9a:	48 83 7d f8 00       	cmpq   $0x0,-0x8(%rbp)
    6a9f:	78 32                	js     6ad3 <safe_lshift_func_int64_t_s_u+0x48>
    6aa1:	83 7d f4 1f          	cmpl   $0x1f,-0xc(%rbp)
    6aa5:	77 2c                	ja     6ad3 <safe_lshift_func_int64_t_s_u+0x48>
    6aa7:	8b 45 f4             	mov    -0xc(%rbp),%eax
    6aaa:	48 ba ff ff ff ff ff 	movabs $0x7fffffffffffffff,%rdx
    6ab1:	ff ff 7f 
    6ab4:	89 c1                	mov    %eax,%ecx
    6ab6:	48 d3 fa             	sar    %cl,%rdx
    6ab9:	48 89 d0             	mov    %rdx,%rax
    6abc:	48 39 45 f8          	cmp    %rax,-0x8(%rbp)
    6ac0:	7f 11                	jg     6ad3 <safe_lshift_func_int64_t_s_u+0x48>
    6ac2:	8b 45 f4             	mov    -0xc(%rbp),%eax
    6ac5:	48 8b 55 f8          	mov    -0x8(%rbp),%rdx
    6ac9:	89 c1                	mov    %eax,%ecx
    6acb:	48 d3 e2             	shl    %cl,%rdx
    6ace:	48 89 d0             	mov    %rdx,%rax
    6ad1:	eb 04                	jmp    6ad7 <safe_lshift_func_int64_t_s_u+0x4c>
    6ad3:	48 8b 45 f8          	mov    -0x8(%rbp),%rax
    6ad7:	5d                   	pop    %rbp
    6ad8:	c3                   	retq   

0000000000006ad9 <safe_rshift_func_int64_t_s_s>:
    6ad9:	f3 0f 1e fa          	endbr64 
    6add:	55                   	push   %rbp
    6ade:	48 89 e5             	mov    %rsp,%rbp
    6ae1:	48 89 7d f8          	mov    %rdi,-0x8(%rbp)
    6ae5:	89 75 f4             	mov    %esi,-0xc(%rbp)
    6ae8:	48 83 7d f8 00       	cmpq   $0x0,-0x8(%rbp)
    6aed:	78 1d                	js     6b0c <safe_rshift_func_int64_t_s_s+0x33>
    6aef:	83 7d f4 00          	cmpl   $0x0,-0xc(%rbp)
    6af3:	78 17                	js     6b0c <safe_rshift_func_int64_t_s_s+0x33>
    6af5:	83 7d f4 1f          	cmpl   $0x1f,-0xc(%rbp)
    6af9:	7f 11                	jg     6b0c <safe_rshift_func_int64_t_s_s+0x33>
    6afb:	8b 45 f4             	mov    -0xc(%rbp),%eax
    6afe:	48 8b 55 f8          	mov    -0x8(%rbp),%rdx
    6b02:	89 c1                	mov    %eax,%ecx
    6b04:	48 d3 fa             	sar    %cl,%rdx
    6b07:	48 89 d0             	mov    %rdx,%rax
    6b0a:	eb 04                	jmp    6b10 <safe_rshift_func_int64_t_s_s+0x37>
    6b0c:	48 8b 45 f8          	mov    -0x8(%rbp),%rax
    6b10:	5d                   	pop    %rbp
    6b11:	c3                   	retq   

0000000000006b12 <safe_rshift_func_int64_t_s_u>:
    6b12:	f3 0f 1e fa          	endbr64 
    6b16:	55                   	push   %rbp
    6b17:	48 89 e5             	mov    %rsp,%rbp
    6b1a:	48 89 7d f8          	mov    %rdi,-0x8(%rbp)
    6b1e:	89 75 f4             	mov    %esi,-0xc(%rbp)
    6b21:	48 83 7d f8 00       	cmpq   $0x0,-0x8(%rbp)
    6b26:	78 17                	js     6b3f <safe_rshift_func_int64_t_s_u+0x2d>
    6b28:	83 7d f4 1f          	cmpl   $0x1f,-0xc(%rbp)
    6b2c:	77 11                	ja     6b3f <safe_rshift_func_int64_t_s_u+0x2d>
    6b2e:	8b 45 f4             	mov    -0xc(%rbp),%eax
    6b31:	48 8b 55 f8          	mov    -0x8(%rbp),%rdx
    6b35:	89 c1                	mov    %eax,%ecx
    6b37:	48 d3 fa             	sar    %cl,%rdx
    6b3a:	48 89 d0             	mov    %rdx,%rax
    6b3d:	eb 04                	jmp    6b43 <safe_rshift_func_int64_t_s_u+0x31>
    6b3f:	48 8b 45 f8          	mov    -0x8(%rbp),%rax
    6b43:	5d                   	pop    %rbp
    6b44:	c3                   	retq   

0000000000006b45 <safe_unary_minus_func_uint8_t_u>:
    6b45:	f3 0f 1e fa          	endbr64 
    6b49:	55                   	push   %rbp
    6b4a:	48 89 e5             	mov    %rsp,%rbp
    6b4d:	89 f8                	mov    %edi,%eax
    6b4f:	88 45 fc             	mov    %al,-0x4(%rbp)
    6b52:	0f b6 45 fc          	movzbl -0x4(%rbp),%eax
    6b56:	f7 d8                	neg    %eax
    6b58:	5d                   	pop    %rbp
    6b59:	c3                   	retq   

0000000000006b5a <safe_add_func_uint8_t_u_u>:
    6b5a:	f3 0f 1e fa          	endbr64 
    6b5e:	55                   	push   %rbp
    6b5f:	48 89 e5             	mov    %rsp,%rbp
    6b62:	89 fa                	mov    %edi,%edx
    6b64:	89 f0                	mov    %esi,%eax
    6b66:	88 55 fc             	mov    %dl,-0x4(%rbp)
    6b69:	88 45 f8             	mov    %al,-0x8(%rbp)
    6b6c:	0f b6 55 fc          	movzbl -0x4(%rbp),%edx
    6b70:	0f b6 45 f8          	movzbl -0x8(%rbp),%eax
    6b74:	01 d0                	add    %edx,%eax
    6b76:	5d                   	pop    %rbp
    6b77:	c3                   	retq   

0000000000006b78 <safe_sub_func_uint8_t_u_u>:
    6b78:	f3 0f 1e fa          	endbr64 
    6b7c:	55                   	push   %rbp
    6b7d:	48 89 e5             	mov    %rsp,%rbp
    6b80:	89 fa                	mov    %edi,%edx
    6b82:	89 f0                	mov    %esi,%eax
    6b84:	88 55 fc             	mov    %dl,-0x4(%rbp)
    6b87:	88 45 f8             	mov    %al,-0x8(%rbp)
    6b8a:	0f b6 45 fc          	movzbl -0x4(%rbp),%eax
    6b8e:	2a 45 f8             	sub    -0x8(%rbp),%al
    6b91:	5d                   	pop    %rbp
    6b92:	c3                   	retq   

0000000000006b93 <safe_mul_func_uint8_t_u_u>:
    6b93:	f3 0f 1e fa          	endbr64 
    6b97:	55                   	push   %rbp
    6b98:	48 89 e5             	mov    %rsp,%rbp
    6b9b:	89 fa                	mov    %edi,%edx
    6b9d:	89 f0                	mov    %esi,%eax
    6b9f:	88 55 fc             	mov    %dl,-0x4(%rbp)
    6ba2:	88 45 f8             	mov    %al,-0x8(%rbp)
    6ba5:	0f b6 45 fc          	movzbl -0x4(%rbp),%eax
    6ba9:	f6 65 f8             	mulb   -0x8(%rbp)
    6bac:	5d                   	pop    %rbp
    6bad:	c3                   	retq   

0000000000006bae <safe_mod_func_uint8_t_u_u>:
    6bae:	f3 0f 1e fa          	endbr64 
    6bb2:	55                   	push   %rbp
    6bb3:	48 89 e5             	mov    %rsp,%rbp
    6bb6:	89 fa                	mov    %edi,%edx
    6bb8:	89 f0                	mov    %esi,%eax
    6bba:	88 55 fc             	mov    %dl,-0x4(%rbp)
    6bbd:	88 45 f8             	mov    %al,-0x8(%rbp)
    6bc0:	80 7d f8 00          	cmpb   $0x0,-0x8(%rbp)
    6bc4:	74 0f                	je     6bd5 <safe_mod_func_uint8_t_u_u+0x27>
    6bc6:	0f b6 45 fc          	movzbl -0x4(%rbp),%eax
    6bca:	0f b6 c0             	movzbl %al,%eax
    6bcd:	f6 75 f8             	divb   -0x8(%rbp)
    6bd0:	0f b6 c4             	movzbl %ah,%eax
    6bd3:	eb 04                	jmp    6bd9 <safe_mod_func_uint8_t_u_u+0x2b>
    6bd5:	0f b6 45 fc          	movzbl -0x4(%rbp),%eax
    6bd9:	5d                   	pop    %rbp
    6bda:	c3                   	retq   

0000000000006bdb <safe_div_func_uint8_t_u_u>:
    6bdb:	f3 0f 1e fa          	endbr64 
    6bdf:	55                   	push   %rbp
    6be0:	48 89 e5             	mov    %rsp,%rbp
    6be3:	89 fa                	mov    %edi,%edx
    6be5:	89 f0                	mov    %esi,%eax
    6be7:	88 55 fc             	mov    %dl,-0x4(%rbp)
    6bea:	88 45 f8             	mov    %al,-0x8(%rbp)
    6bed:	80 7d f8 00          	cmpb   $0x0,-0x8(%rbp)
    6bf1:	74 0c                	je     6bff <safe_div_func_uint8_t_u_u+0x24>
    6bf3:	0f b6 45 fc          	movzbl -0x4(%rbp),%eax
    6bf7:	0f b6 c0             	movzbl %al,%eax
    6bfa:	f6 75 f8             	divb   -0x8(%rbp)
    6bfd:	eb 04                	jmp    6c03 <safe_div_func_uint8_t_u_u+0x28>
    6bff:	0f b6 45 fc          	movzbl -0x4(%rbp),%eax
    6c03:	5d                   	pop    %rbp
    6c04:	c3                   	retq   

0000000000006c05 <safe_lshift_func_uint8_t_u_s>:
    6c05:	f3 0f 1e fa          	endbr64 
    6c09:	55                   	push   %rbp
    6c0a:	48 89 e5             	mov    %rsp,%rbp
    6c0d:	89 f8                	mov    %edi,%eax
    6c0f:	89 75 f8             	mov    %esi,-0x8(%rbp)
    6c12:	88 45 fc             	mov    %al,-0x4(%rbp)
    6c15:	83 7d f8 00          	cmpl   $0x0,-0x8(%rbp)
    6c19:	78 2b                	js     6c46 <safe_lshift_func_uint8_t_u_s+0x41>
    6c1b:	83 7d f8 1f          	cmpl   $0x1f,-0x8(%rbp)
    6c1f:	7f 25                	jg     6c46 <safe_lshift_func_uint8_t_u_s+0x41>
    6c21:	0f b6 55 fc          	movzbl -0x4(%rbp),%edx
    6c25:	8b 45 f8             	mov    -0x8(%rbp),%eax
    6c28:	be ff 00 00 00       	mov    $0xff,%esi
    6c2d:	89 c1                	mov    %eax,%ecx
    6c2f:	d3 fe                	sar    %cl,%esi
    6c31:	89 f0                	mov    %esi,%eax
    6c33:	39 c2                	cmp    %eax,%edx
    6c35:	7f 0f                	jg     6c46 <safe_lshift_func_uint8_t_u_s+0x41>
    6c37:	0f b6 55 fc          	movzbl -0x4(%rbp),%edx
    6c3b:	8b 45 f8             	mov    -0x8(%rbp),%eax
    6c3e:	89 c1                	mov    %eax,%ecx
    6c40:	d3 e2                	shl    %cl,%edx
    6c42:	89 d0                	mov    %edx,%eax
    6c44:	eb 04                	jmp    6c4a <safe_lshift_func_uint8_t_u_s+0x45>
    6c46:	0f b6 45 fc          	movzbl -0x4(%rbp),%eax
    6c4a:	5d                   	pop    %rbp
    6c4b:	c3                   	retq   

0000000000006c4c <safe_lshift_func_uint8_t_u_u>:
    6c4c:	f3 0f 1e fa          	endbr64 
    6c50:	55                   	push   %rbp
    6c51:	48 89 e5             	mov    %rsp,%rbp
    6c54:	89 f8                	mov    %edi,%eax
    6c56:	89 75 f8             	mov    %esi,-0x8(%rbp)
    6c59:	88 45 fc             	mov    %al,-0x4(%rbp)
    6c5c:	83 7d f8 1f          	cmpl   $0x1f,-0x8(%rbp)
    6c60:	77 25                	ja     6c87 <safe_lshift_func_uint8_t_u_u+0x3b>
    6c62:	0f b6 55 fc          	movzbl -0x4(%rbp),%edx
    6c66:	8b 45 f8             	mov    -0x8(%rbp),%eax
    6c69:	be ff 00 00 00       	mov    $0xff,%esi
    6c6e:	89 c1                	mov    %eax,%ecx
    6c70:	d3 fe                	sar    %cl,%esi
    6c72:	89 f0                	mov    %esi,%eax
    6c74:	39 c2                	cmp    %eax,%edx
    6c76:	7f 0f                	jg     6c87 <safe_lshift_func_uint8_t_u_u+0x3b>
    6c78:	0f b6 55 fc          	movzbl -0x4(%rbp),%edx
    6c7c:	8b 45 f8             	mov    -0x8(%rbp),%eax
    6c7f:	89 c1                	mov    %eax,%ecx
    6c81:	d3 e2                	shl    %cl,%edx
    6c83:	89 d0                	mov    %edx,%eax
    6c85:	eb 04                	jmp    6c8b <safe_lshift_func_uint8_t_u_u+0x3f>
    6c87:	0f b6 45 fc          	movzbl -0x4(%rbp),%eax
    6c8b:	5d                   	pop    %rbp
    6c8c:	c3                   	retq   

0000000000006c8d <safe_rshift_func_uint8_t_u_s>:
    6c8d:	f3 0f 1e fa          	endbr64 
    6c91:	55                   	push   %rbp
    6c92:	48 89 e5             	mov    %rsp,%rbp
    6c95:	89 f8                	mov    %edi,%eax
    6c97:	89 75 f8             	mov    %esi,-0x8(%rbp)
    6c9a:	88 45 fc             	mov    %al,-0x4(%rbp)
    6c9d:	83 7d f8 00          	cmpl   $0x0,-0x8(%rbp)
    6ca1:	78 15                	js     6cb8 <safe_rshift_func_uint8_t_u_s+0x2b>
    6ca3:	83 7d f8 1f          	cmpl   $0x1f,-0x8(%rbp)
    6ca7:	7f 0f                	jg     6cb8 <safe_rshift_func_uint8_t_u_s+0x2b>
    6ca9:	0f b6 55 fc          	movzbl -0x4(%rbp),%edx
    6cad:	8b 45 f8             	mov    -0x8(%rbp),%eax
    6cb0:	89 c1                	mov    %eax,%ecx
    6cb2:	d3 fa                	sar    %cl,%edx
    6cb4:	89 d0                	mov    %edx,%eax
    6cb6:	eb 04                	jmp    6cbc <safe_rshift_func_uint8_t_u_s+0x2f>
    6cb8:	0f b6 45 fc          	movzbl -0x4(%rbp),%eax
    6cbc:	5d                   	pop    %rbp
    6cbd:	c3                   	retq   

0000000000006cbe <safe_rshift_func_uint8_t_u_u>:
    6cbe:	f3 0f 1e fa          	endbr64 
    6cc2:	55                   	push   %rbp
    6cc3:	48 89 e5             	mov    %rsp,%rbp
    6cc6:	89 f8                	mov    %edi,%eax
    6cc8:	89 75 f8             	mov    %esi,-0x8(%rbp)
    6ccb:	88 45 fc             	mov    %al,-0x4(%rbp)
    6cce:	83 7d f8 1f          	cmpl   $0x1f,-0x8(%rbp)
    6cd2:	77 0f                	ja     6ce3 <safe_rshift_func_uint8_t_u_u+0x25>
    6cd4:	0f b6 55 fc          	movzbl -0x4(%rbp),%edx
    6cd8:	8b 45 f8             	mov    -0x8(%rbp),%eax
    6cdb:	89 c1                	mov    %eax,%ecx
    6cdd:	d3 fa                	sar    %cl,%edx
    6cdf:	89 d0                	mov    %edx,%eax
    6ce1:	eb 04                	jmp    6ce7 <safe_rshift_func_uint8_t_u_u+0x29>
    6ce3:	0f b6 45 fc          	movzbl -0x4(%rbp),%eax
    6ce7:	5d                   	pop    %rbp
    6ce8:	c3                   	retq   

0000000000006ce9 <safe_unary_minus_func_uint16_t_u>:
    6ce9:	f3 0f 1e fa          	endbr64 
    6ced:	55                   	push   %rbp
    6cee:	48 89 e5             	mov    %rsp,%rbp
    6cf1:	89 f8                	mov    %edi,%eax
    6cf3:	66 89 45 fc          	mov    %ax,-0x4(%rbp)
    6cf7:	0f b7 45 fc          	movzwl -0x4(%rbp),%eax
    6cfb:	f7 d8                	neg    %eax
    6cfd:	5d                   	pop    %rbp
    6cfe:	c3                   	retq   

0000000000006cff <safe_add_func_uint16_t_u_u>:
    6cff:	f3 0f 1e fa          	endbr64 
    6d03:	55                   	push   %rbp
    6d04:	48 89 e5             	mov    %rsp,%rbp
    6d07:	89 fa                	mov    %edi,%edx
    6d09:	89 f0                	mov    %esi,%eax
    6d0b:	66 89 55 fc          	mov    %dx,-0x4(%rbp)
    6d0f:	66 89 45 f8          	mov    %ax,-0x8(%rbp)
    6d13:	0f b7 55 fc          	movzwl -0x4(%rbp),%edx
    6d17:	0f b7 45 f8          	movzwl -0x8(%rbp),%eax
    6d1b:	01 d0                	add    %edx,%eax
    6d1d:	5d                   	pop    %rbp
    6d1e:	c3                   	retq   

0000000000006d1f <safe_sub_func_uint16_t_u_u>:
    6d1f:	f3 0f 1e fa          	endbr64 
    6d23:	55                   	push   %rbp
    6d24:	48 89 e5             	mov    %rsp,%rbp
    6d27:	89 fa                	mov    %edi,%edx
    6d29:	89 f0                	mov    %esi,%eax
    6d2b:	66 89 55 fc          	mov    %dx,-0x4(%rbp)
    6d2f:	66 89 45 f8          	mov    %ax,-0x8(%rbp)
    6d33:	0f b7 45 fc          	movzwl -0x4(%rbp),%eax
    6d37:	66 2b 45 f8          	sub    -0x8(%rbp),%ax
    6d3b:	5d                   	pop    %rbp
    6d3c:	c3                   	retq   

0000000000006d3d <safe_mul_func_uint16_t_u_u>:
    6d3d:	f3 0f 1e fa          	endbr64 
    6d41:	55                   	push   %rbp
    6d42:	48 89 e5             	mov    %rsp,%rbp
    6d45:	89 fa                	mov    %edi,%edx
    6d47:	89 f0                	mov    %esi,%eax
    6d49:	66 89 55 fc          	mov    %dx,-0x4(%rbp)
    6d4d:	66 89 45 f8          	mov    %ax,-0x8(%rbp)
    6d51:	0f b7 45 fc          	movzwl -0x4(%rbp),%eax
    6d55:	66 0f af 45 f8       	imul   -0x8(%rbp),%ax
    6d5a:	5d                   	pop    %rbp
    6d5b:	c3                   	retq   

0000000000006d5c <safe_mod_func_uint16_t_u_u>:
    6d5c:	f3 0f 1e fa          	endbr64 
    6d60:	55                   	push   %rbp
    6d61:	48 89 e5             	mov    %rsp,%rbp
    6d64:	89 fa                	mov    %edi,%edx
    6d66:	89 f0                	mov    %esi,%eax
    6d68:	66 89 55 fc          	mov    %dx,-0x4(%rbp)
    6d6c:	66 89 45 f8          	mov    %ax,-0x8(%rbp)
    6d70:	66 83 7d f8 00       	cmpw   $0x0,-0x8(%rbp)
    6d75:	74 11                	je     6d88 <safe_mod_func_uint16_t_u_u+0x2c>
    6d77:	0f b7 45 fc          	movzwl -0x4(%rbp),%eax
    6d7b:	ba 00 00 00 00       	mov    $0x0,%edx
    6d80:	66 f7 75 f8          	divw   -0x8(%rbp)
    6d84:	89 d0                	mov    %edx,%eax
    6d86:	eb 04                	jmp    6d8c <safe_mod_func_uint16_t_u_u+0x30>
    6d88:	0f b7 45 fc          	movzwl -0x4(%rbp),%eax
    6d8c:	5d                   	pop    %rbp
    6d8d:	c3                   	retq   

0000000000006d8e <safe_div_func_uint16_t_u_u>:
    6d8e:	f3 0f 1e fa          	endbr64 
    6d92:	55                   	push   %rbp
    6d93:	48 89 e5             	mov    %rsp,%rbp
    6d96:	89 fa                	mov    %edi,%edx
    6d98:	89 f0                	mov    %esi,%eax
    6d9a:	66 89 55 fc          	mov    %dx,-0x4(%rbp)
    6d9e:	66 89 45 f8          	mov    %ax,-0x8(%rbp)
    6da2:	66 83 7d f8 00       	cmpw   $0x0,-0x8(%rbp)
    6da7:	74 0f                	je     6db8 <safe_div_func_uint16_t_u_u+0x2a>
    6da9:	0f b7 45 fc          	movzwl -0x4(%rbp),%eax
    6dad:	ba 00 00 00 00       	mov    $0x0,%edx
    6db2:	66 f7 75 f8          	divw   -0x8(%rbp)
    6db6:	eb 04                	jmp    6dbc <safe_div_func_uint16_t_u_u+0x2e>
    6db8:	0f b7 45 fc          	movzwl -0x4(%rbp),%eax
    6dbc:	5d                   	pop    %rbp
    6dbd:	c3                   	retq   

0000000000006dbe <safe_lshift_func_uint16_t_u_s>:
    6dbe:	f3 0f 1e fa          	endbr64 
    6dc2:	55                   	push   %rbp
    6dc3:	48 89 e5             	mov    %rsp,%rbp
    6dc6:	89 f8                	mov    %edi,%eax
    6dc8:	89 75 f8             	mov    %esi,-0x8(%rbp)
    6dcb:	66 89 45 fc          	mov    %ax,-0x4(%rbp)
    6dcf:	83 7d f8 00          	cmpl   $0x0,-0x8(%rbp)
    6dd3:	78 2b                	js     6e00 <safe_lshift_func_uint16_t_u_s+0x42>
    6dd5:	83 7d f8 1f          	cmpl   $0x1f,-0x8(%rbp)
    6dd9:	7f 25                	jg     6e00 <safe_lshift_func_uint16_t_u_s+0x42>
    6ddb:	0f b7 55 fc          	movzwl -0x4(%rbp),%edx
    6ddf:	8b 45 f8             	mov    -0x8(%rbp),%eax
    6de2:	be ff ff 00 00       	mov    $0xffff,%esi
    6de7:	89 c1                	mov    %eax,%ecx
    6de9:	d3 fe                	sar    %cl,%esi
    6deb:	89 f0                	mov    %esi,%eax
    6ded:	39 c2                	cmp    %eax,%edx
    6def:	7f 0f                	jg     6e00 <safe_lshift_func_uint16_t_u_s+0x42>
    6df1:	0f b7 55 fc          	movzwl -0x4(%rbp),%edx
    6df5:	8b 45 f8             	mov    -0x8(%rbp),%eax
    6df8:	89 c1                	mov    %eax,%ecx
    6dfa:	d3 e2                	shl    %cl,%edx
    6dfc:	89 d0                	mov    %edx,%eax
    6dfe:	eb 04                	jmp    6e04 <safe_lshift_func_uint16_t_u_s+0x46>
    6e00:	0f b7 45 fc          	movzwl -0x4(%rbp),%eax
    6e04:	5d                   	pop    %rbp
    6e05:	c3                   	retq   

0000000000006e06 <safe_lshift_func_uint16_t_u_u>:
    6e06:	f3 0f 1e fa          	endbr64 
    6e0a:	55                   	push   %rbp
    6e0b:	48 89 e5             	mov    %rsp,%rbp
    6e0e:	89 f8                	mov    %edi,%eax
    6e10:	89 75 f8             	mov    %esi,-0x8(%rbp)
    6e13:	66 89 45 fc          	mov    %ax,-0x4(%rbp)
    6e17:	83 7d f8 1f          	cmpl   $0x1f,-0x8(%rbp)
    6e1b:	77 25                	ja     6e42 <safe_lshift_func_uint16_t_u_u+0x3c>
    6e1d:	0f b7 55 fc          	movzwl -0x4(%rbp),%edx
    6e21:	8b 45 f8             	mov    -0x8(%rbp),%eax
    6e24:	be ff ff 00 00       	mov    $0xffff,%esi
    6e29:	89 c1                	mov    %eax,%ecx
    6e2b:	d3 fe                	sar    %cl,%esi
    6e2d:	89 f0                	mov    %esi,%eax
    6e2f:	39 c2                	cmp    %eax,%edx
    6e31:	7f 0f                	jg     6e42 <safe_lshift_func_uint16_t_u_u+0x3c>
    6e33:	0f b7 55 fc          	movzwl -0x4(%rbp),%edx
    6e37:	8b 45 f8             	mov    -0x8(%rbp),%eax
    6e3a:	89 c1                	mov    %eax,%ecx
    6e3c:	d3 e2                	shl    %cl,%edx
    6e3e:	89 d0                	mov    %edx,%eax
    6e40:	eb 04                	jmp    6e46 <safe_lshift_func_uint16_t_u_u+0x40>
    6e42:	0f b7 45 fc          	movzwl -0x4(%rbp),%eax
    6e46:	5d                   	pop    %rbp
    6e47:	c3                   	retq   

0000000000006e48 <safe_rshift_func_uint16_t_u_s>:
    6e48:	f3 0f 1e fa          	endbr64 
    6e4c:	55                   	push   %rbp
    6e4d:	48 89 e5             	mov    %rsp,%rbp
    6e50:	89 f8                	mov    %edi,%eax
    6e52:	89 75 f8             	mov    %esi,-0x8(%rbp)
    6e55:	66 89 45 fc          	mov    %ax,-0x4(%rbp)
    6e59:	83 7d f8 00          	cmpl   $0x0,-0x8(%rbp)
    6e5d:	78 15                	js     6e74 <safe_rshift_func_uint16_t_u_s+0x2c>
    6e5f:	83 7d f8 1f          	cmpl   $0x1f,-0x8(%rbp)
    6e63:	7f 0f                	jg     6e74 <safe_rshift_func_uint16_t_u_s+0x2c>
    6e65:	0f b7 55 fc          	movzwl -0x4(%rbp),%edx
    6e69:	8b 45 f8             	mov    -0x8(%rbp),%eax
    6e6c:	89 c1                	mov    %eax,%ecx
    6e6e:	d3 fa                	sar    %cl,%edx
    6e70:	89 d0                	mov    %edx,%eax
    6e72:	eb 04                	jmp    6e78 <safe_rshift_func_uint16_t_u_s+0x30>
    6e74:	0f b7 45 fc          	movzwl -0x4(%rbp),%eax
    6e78:	5d                   	pop    %rbp
    6e79:	c3                   	retq   

0000000000006e7a <safe_rshift_func_uint16_t_u_u>:
    6e7a:	f3 0f 1e fa          	endbr64 
    6e7e:	55                   	push   %rbp
    6e7f:	48 89 e5             	mov    %rsp,%rbp
    6e82:	89 f8                	mov    %edi,%eax
    6e84:	89 75 f8             	mov    %esi,-0x8(%rbp)
    6e87:	66 89 45 fc          	mov    %ax,-0x4(%rbp)
    6e8b:	83 7d f8 1f          	cmpl   $0x1f,-0x8(%rbp)
    6e8f:	77 0f                	ja     6ea0 <safe_rshift_func_uint16_t_u_u+0x26>
    6e91:	0f b7 55 fc          	movzwl -0x4(%rbp),%edx
    6e95:	8b 45 f8             	mov    -0x8(%rbp),%eax
    6e98:	89 c1                	mov    %eax,%ecx
    6e9a:	d3 fa                	sar    %cl,%edx
    6e9c:	89 d0                	mov    %edx,%eax
    6e9e:	eb 04                	jmp    6ea4 <safe_rshift_func_uint16_t_u_u+0x2a>
    6ea0:	0f b7 45 fc          	movzwl -0x4(%rbp),%eax
    6ea4:	5d                   	pop    %rbp
    6ea5:	c3                   	retq   

0000000000006ea6 <safe_unary_minus_func_uint32_t_u>:
    6ea6:	f3 0f 1e fa          	endbr64 
    6eaa:	55                   	push   %rbp
    6eab:	48 89 e5             	mov    %rsp,%rbp
    6eae:	89 7d fc             	mov    %edi,-0x4(%rbp)
    6eb1:	8b 45 fc             	mov    -0x4(%rbp),%eax
    6eb4:	f7 d8                	neg    %eax
    6eb6:	5d                   	pop    %rbp
    6eb7:	c3                   	retq   

0000000000006eb8 <safe_add_func_uint32_t_u_u>:
    6eb8:	f3 0f 1e fa          	endbr64 
    6ebc:	55                   	push   %rbp
    6ebd:	48 89 e5             	mov    %rsp,%rbp
    6ec0:	89 7d fc             	mov    %edi,-0x4(%rbp)
    6ec3:	89 75 f8             	mov    %esi,-0x8(%rbp)
    6ec6:	8b 55 fc             	mov    -0x4(%rbp),%edx
    6ec9:	8b 45 f8             	mov    -0x8(%rbp),%eax
    6ecc:	01 d0                	add    %edx,%eax
    6ece:	5d                   	pop    %rbp
    6ecf:	c3                   	retq   

0000000000006ed0 <safe_sub_func_uint32_t_u_u>:
    6ed0:	f3 0f 1e fa          	endbr64 
    6ed4:	55                   	push   %rbp
    6ed5:	48 89 e5             	mov    %rsp,%rbp
    6ed8:	89 7d fc             	mov    %edi,-0x4(%rbp)
    6edb:	89 75 f8             	mov    %esi,-0x8(%rbp)
    6ede:	8b 45 fc             	mov    -0x4(%rbp),%eax
    6ee1:	2b 45 f8             	sub    -0x8(%rbp),%eax
    6ee4:	5d                   	pop    %rbp
    6ee5:	c3                   	retq   

0000000000006ee6 <safe_mul_func_uint32_t_u_u>:
    6ee6:	f3 0f 1e fa          	endbr64 
    6eea:	55                   	push   %rbp
    6eeb:	48 89 e5             	mov    %rsp,%rbp
    6eee:	89 7d fc             	mov    %edi,-0x4(%rbp)
    6ef1:	89 75 f8             	mov    %esi,-0x8(%rbp)
    6ef4:	8b 45 fc             	mov    -0x4(%rbp),%eax
    6ef7:	0f af 45 f8          	imul   -0x8(%rbp),%eax
    6efb:	5d                   	pop    %rbp
    6efc:	c3                   	retq   

0000000000006efd <safe_mod_func_uint32_t_u_u>:
    6efd:	f3 0f 1e fa          	endbr64 
    6f01:	55                   	push   %rbp
    6f02:	48 89 e5             	mov    %rsp,%rbp
    6f05:	89 7d fc             	mov    %edi,-0x4(%rbp)
    6f08:	89 75 f8             	mov    %esi,-0x8(%rbp)
    6f0b:	83 7d f8 00          	cmpl   $0x0,-0x8(%rbp)
    6f0f:	74 0f                	je     6f20 <safe_mod_func_uint32_t_u_u+0x23>
    6f11:	8b 45 fc             	mov    -0x4(%rbp),%eax
    6f14:	ba 00 00 00 00       	mov    $0x0,%edx
    6f19:	f7 75 f8             	divl   -0x8(%rbp)
    6f1c:	89 d0                	mov    %edx,%eax
    6f1e:	eb 03                	jmp    6f23 <safe_mod_func_uint32_t_u_u+0x26>
    6f20:	8b 45 fc             	mov    -0x4(%rbp),%eax
    6f23:	5d                   	pop    %rbp
    6f24:	c3                   	retq   

0000000000006f25 <safe_div_func_uint32_t_u_u>:
    6f25:	f3 0f 1e fa          	endbr64 
    6f29:	55                   	push   %rbp
    6f2a:	48 89 e5             	mov    %rsp,%rbp
    6f2d:	89 7d fc             	mov    %edi,-0x4(%rbp)
    6f30:	89 75 f8             	mov    %esi,-0x8(%rbp)
    6f33:	83 7d f8 00          	cmpl   $0x0,-0x8(%rbp)
    6f37:	74 0d                	je     6f46 <safe_div_func_uint32_t_u_u+0x21>
    6f39:	8b 45 fc             	mov    -0x4(%rbp),%eax
    6f3c:	ba 00 00 00 00       	mov    $0x0,%edx
    6f41:	f7 75 f8             	divl   -0x8(%rbp)
    6f44:	eb 03                	jmp    6f49 <safe_div_func_uint32_t_u_u+0x24>
    6f46:	8b 45 fc             	mov    -0x4(%rbp),%eax
    6f49:	5d                   	pop    %rbp
    6f4a:	c3                   	retq   

0000000000006f4b <safe_lshift_func_uint32_t_u_s>:
    6f4b:	f3 0f 1e fa          	endbr64 
    6f4f:	55                   	push   %rbp
    6f50:	48 89 e5             	mov    %rsp,%rbp
    6f53:	89 7d fc             	mov    %edi,-0x4(%rbp)
    6f56:	89 75 f8             	mov    %esi,-0x8(%rbp)
    6f59:	83 7d f8 00          	cmpl   $0x0,-0x8(%rbp)
    6f5d:	78 27                	js     6f86 <safe_lshift_func_uint32_t_u_s+0x3b>
    6f5f:	83 7d f8 1f          	cmpl   $0x1f,-0x8(%rbp)
    6f63:	7f 21                	jg     6f86 <safe_lshift_func_uint32_t_u_s+0x3b>
    6f65:	8b 45 f8             	mov    -0x8(%rbp),%eax
    6f68:	ba ff ff ff ff       	mov    $0xffffffff,%edx
    6f6d:	89 c1                	mov    %eax,%ecx
    6f6f:	d3 ea                	shr    %cl,%edx
    6f71:	89 d0                	mov    %edx,%eax
    6f73:	39 45 fc             	cmp    %eax,-0x4(%rbp)
    6f76:	77 0e                	ja     6f86 <safe_lshift_func_uint32_t_u_s+0x3b>
    6f78:	8b 45 f8             	mov    -0x8(%rbp),%eax
    6f7b:	8b 55 fc             	mov    -0x4(%rbp),%edx
    6f7e:	89 c1                	mov    %eax,%ecx
    6f80:	d3 e2                	shl    %cl,%edx
    6f82:	89 d0                	mov    %edx,%eax
    6f84:	eb 03                	jmp    6f89 <safe_lshift_func_uint32_t_u_s+0x3e>
    6f86:	8b 45 fc             	mov    -0x4(%rbp),%eax
    6f89:	5d                   	pop    %rbp
    6f8a:	c3                   	retq   

0000000000006f8b <safe_lshift_func_uint32_t_u_u>:
    6f8b:	f3 0f 1e fa          	endbr64 
    6f8f:	55                   	push   %rbp
    6f90:	48 89 e5             	mov    %rsp,%rbp
    6f93:	89 7d fc             	mov    %edi,-0x4(%rbp)
    6f96:	89 75 f8             	mov    %esi,-0x8(%rbp)
    6f99:	83 7d f8 1f          	cmpl   $0x1f,-0x8(%rbp)
    6f9d:	77 21                	ja     6fc0 <safe_lshift_func_uint32_t_u_u+0x35>
    6f9f:	8b 45 f8             	mov    -0x8(%rbp),%eax
    6fa2:	ba ff ff ff ff       	mov    $0xffffffff,%edx
    6fa7:	89 c1                	mov    %eax,%ecx
    6fa9:	d3 ea                	shr    %cl,%edx
    6fab:	89 d0                	mov    %edx,%eax
    6fad:	39 45 fc             	cmp    %eax,-0x4(%rbp)
    6fb0:	77 0e                	ja     6fc0 <safe_lshift_func_uint32_t_u_u+0x35>
    6fb2:	8b 45 f8             	mov    -0x8(%rbp),%eax
    6fb5:	8b 55 fc             	mov    -0x4(%rbp),%edx
    6fb8:	89 c1                	mov    %eax,%ecx
    6fba:	d3 e2                	shl    %cl,%edx
    6fbc:	89 d0                	mov    %edx,%eax
    6fbe:	eb 03                	jmp    6fc3 <safe_lshift_func_uint32_t_u_u+0x38>
    6fc0:	8b 45 fc             	mov    -0x4(%rbp),%eax
    6fc3:	5d                   	pop    %rbp
    6fc4:	c3                   	retq   

0000000000006fc5 <safe_rshift_func_uint32_t_u_s>:
    6fc5:	f3 0f 1e fa          	endbr64 
    6fc9:	55                   	push   %rbp
    6fca:	48 89 e5             	mov    %rsp,%rbp
    6fcd:	89 7d fc             	mov    %edi,-0x4(%rbp)
    6fd0:	89 75 f8             	mov    %esi,-0x8(%rbp)
    6fd3:	83 7d f8 00          	cmpl   $0x0,-0x8(%rbp)
    6fd7:	78 14                	js     6fed <safe_rshift_func_uint32_t_u_s+0x28>
    6fd9:	83 7d f8 1f          	cmpl   $0x1f,-0x8(%rbp)
    6fdd:	7f 0e                	jg     6fed <safe_rshift_func_uint32_t_u_s+0x28>
    6fdf:	8b 45 f8             	mov    -0x8(%rbp),%eax
    6fe2:	8b 55 fc             	mov    -0x4(%rbp),%edx
    6fe5:	89 c1                	mov    %eax,%ecx
    6fe7:	d3 ea                	shr    %cl,%edx
    6fe9:	89 d0                	mov    %edx,%eax
    6feb:	eb 03                	jmp    6ff0 <safe_rshift_func_uint32_t_u_s+0x2b>
    6fed:	8b 45 fc             	mov    -0x4(%rbp),%eax
    6ff0:	5d                   	pop    %rbp
    6ff1:	c3                   	retq   

0000000000006ff2 <safe_rshift_func_uint32_t_u_u>:
    6ff2:	f3 0f 1e fa          	endbr64 
    6ff6:	55                   	push   %rbp
    6ff7:	48 89 e5             	mov    %rsp,%rbp
    6ffa:	89 7d fc             	mov    %edi,-0x4(%rbp)
    6ffd:	89 75 f8             	mov    %esi,-0x8(%rbp)
    7000:	83 7d f8 1f          	cmpl   $0x1f,-0x8(%rbp)
    7004:	77 0e                	ja     7014 <safe_rshift_func_uint32_t_u_u+0x22>
    7006:	8b 45 f8             	mov    -0x8(%rbp),%eax
    7009:	8b 55 fc             	mov    -0x4(%rbp),%edx
    700c:	89 c1                	mov    %eax,%ecx
    700e:	d3 ea                	shr    %cl,%edx
    7010:	89 d0                	mov    %edx,%eax
    7012:	eb 03                	jmp    7017 <safe_rshift_func_uint32_t_u_u+0x25>
    7014:	8b 45 fc             	mov    -0x4(%rbp),%eax
    7017:	5d                   	pop    %rbp
    7018:	c3                   	retq   

0000000000007019 <safe_unary_minus_func_uint64_t_u>:
    7019:	f3 0f 1e fa          	endbr64 
    701d:	55                   	push   %rbp
    701e:	48 89 e5             	mov    %rsp,%rbp
    7021:	48 89 7d f8          	mov    %rdi,-0x8(%rbp)
    7025:	48 8b 45 f8          	mov    -0x8(%rbp),%rax
    7029:	48 f7 d8             	neg    %rax
    702c:	5d                   	pop    %rbp
    702d:	c3                   	retq   

000000000000702e <safe_add_func_uint64_t_u_u>:
    702e:	f3 0f 1e fa          	endbr64 
    7032:	55                   	push   %rbp
    7033:	48 89 e5             	mov    %rsp,%rbp
    7036:	48 89 7d f8          	mov    %rdi,-0x8(%rbp)
    703a:	48 89 75 f0          	mov    %rsi,-0x10(%rbp)
    703e:	48 8b 55 f8          	mov    -0x8(%rbp),%rdx
    7042:	48 8b 45 f0          	mov    -0x10(%rbp),%rax
    7046:	48 01 d0             	add    %rdx,%rax
    7049:	5d                   	pop    %rbp
    704a:	c3                   	retq   

000000000000704b <safe_sub_func_uint64_t_u_u>:
    704b:	f3 0f 1e fa          	endbr64 
    704f:	55                   	push   %rbp
    7050:	48 89 e5             	mov    %rsp,%rbp
    7053:	48 89 7d f8          	mov    %rdi,-0x8(%rbp)
    7057:	48 89 75 f0          	mov    %rsi,-0x10(%rbp)
    705b:	48 8b 45 f8          	mov    -0x8(%rbp),%rax
    705f:	48 2b 45 f0          	sub    -0x10(%rbp),%rax
    7063:	5d                   	pop    %rbp
    7064:	c3                   	retq   

0000000000007065 <safe_mul_func_uint64_t_u_u>:
    7065:	f3 0f 1e fa          	endbr64 
    7069:	55                   	push   %rbp
    706a:	48 89 e5             	mov    %rsp,%rbp
    706d:	48 89 7d f8          	mov    %rdi,-0x8(%rbp)
    7071:	48 89 75 f0          	mov    %rsi,-0x10(%rbp)
    7075:	48 8b 45 f8          	mov    -0x8(%rbp),%rax
    7079:	48 0f af 45 f0       	imul   -0x10(%rbp),%rax
    707e:	5d                   	pop    %rbp
    707f:	c3                   	retq   

0000000000007080 <safe_mod_func_uint64_t_u_u>:
    7080:	f3 0f 1e fa          	endbr64 
    7084:	55                   	push   %rbp
    7085:	48 89 e5             	mov    %rsp,%rbp
    7088:	48 89 7d f8          	mov    %rdi,-0x8(%rbp)
    708c:	48 89 75 f0          	mov    %rsi,-0x10(%rbp)
    7090:	48 83 7d f0 00       	cmpq   $0x0,-0x10(%rbp)
    7095:	74 12                	je     70a9 <safe_mod_func_uint64_t_u_u+0x29>
    7097:	48 8b 45 f8          	mov    -0x8(%rbp),%rax
    709b:	ba 00 00 00 00       	mov    $0x0,%edx
    70a0:	48 f7 75 f0          	divq   -0x10(%rbp)
    70a4:	48 89 d0             	mov    %rdx,%rax
    70a7:	eb 04                	jmp    70ad <safe_mod_func_uint64_t_u_u+0x2d>
    70a9:	48 8b 45 f8          	mov    -0x8(%rbp),%rax
    70ad:	5d                   	pop    %rbp
    70ae:	c3                   	retq   

00000000000070af <safe_div_func_uint64_t_u_u>:
    70af:	f3 0f 1e fa          	endbr64 
    70b3:	55                   	push   %rbp
    70b4:	48 89 e5             	mov    %rsp,%rbp
    70b7:	48 89 7d f8          	mov    %rdi,-0x8(%rbp)
    70bb:	48 89 75 f0          	mov    %rsi,-0x10(%rbp)
    70bf:	48 83 7d f0 00       	cmpq   $0x0,-0x10(%rbp)
    70c4:	74 0f                	je     70d5 <safe_div_func_uint64_t_u_u+0x26>
    70c6:	48 8b 45 f8          	mov    -0x8(%rbp),%rax
    70ca:	ba 00 00 00 00       	mov    $0x0,%edx
    70cf:	48 f7 75 f0          	divq   -0x10(%rbp)
    70d3:	eb 04                	jmp    70d9 <safe_div_func_uint64_t_u_u+0x2a>
    70d5:	48 8b 45 f8          	mov    -0x8(%rbp),%rax
    70d9:	5d                   	pop    %rbp
    70da:	c3                   	retq   

00000000000070db <safe_lshift_func_uint64_t_u_s>:
    70db:	f3 0f 1e fa          	endbr64 
    70df:	55                   	push   %rbp
    70e0:	48 89 e5             	mov    %rsp,%rbp
    70e3:	48 89 7d f8          	mov    %rdi,-0x8(%rbp)
    70e7:	89 75 f4             	mov    %esi,-0xc(%rbp)
    70ea:	83 7d f4 00          	cmpl   $0x0,-0xc(%rbp)
    70ee:	78 2f                	js     711f <safe_lshift_func_uint64_t_u_s+0x44>
    70f0:	83 7d f4 1f          	cmpl   $0x1f,-0xc(%rbp)
    70f4:	7f 29                	jg     711f <safe_lshift_func_uint64_t_u_s+0x44>
    70f6:	8b 45 f4             	mov    -0xc(%rbp),%eax
    70f9:	48 c7 c2 ff ff ff ff 	mov    $0xffffffffffffffff,%rdx
    7100:	89 c1                	mov    %eax,%ecx
    7102:	48 d3 ea             	shr    %cl,%rdx
    7105:	48 89 d0             	mov    %rdx,%rax
    7108:	48 39 45 f8          	cmp    %rax,-0x8(%rbp)
    710c:	77 11                	ja     711f <safe_lshift_func_uint64_t_u_s+0x44>
    710e:	8b 45 f4             	mov    -0xc(%rbp),%eax
    7111:	48 8b 55 f8          	mov    -0x8(%rbp),%rdx
    7115:	89 c1                	mov    %eax,%ecx
    7117:	48 d3 e2             	shl    %cl,%rdx
    711a:	48 89 d0             	mov    %rdx,%rax
    711d:	eb 04                	jmp    7123 <safe_lshift_func_uint64_t_u_s+0x48>
    711f:	48 8b 45 f8          	mov    -0x8(%rbp),%rax
    7123:	5d                   	pop    %rbp
    7124:	c3                   	retq   

0000000000007125 <safe_lshift_func_uint64_t_u_u>:
    7125:	f3 0f 1e fa          	endbr64 
    7129:	55                   	push   %rbp
    712a:	48 89 e5             	mov    %rsp,%rbp
    712d:	48 89 7d f8          	mov    %rdi,-0x8(%rbp)
    7131:	89 75 f4             	mov    %esi,-0xc(%rbp)
    7134:	83 7d f4 1f          	cmpl   $0x1f,-0xc(%rbp)
    7138:	77 29                	ja     7163 <safe_lshift_func_uint64_t_u_u+0x3e>
    713a:	8b 45 f4             	mov    -0xc(%rbp),%eax
    713d:	48 c7 c2 ff ff ff ff 	mov    $0xffffffffffffffff,%rdx
    7144:	89 c1                	mov    %eax,%ecx
    7146:	48 d3 ea             	shr    %cl,%rdx
    7149:	48 89 d0             	mov    %rdx,%rax
    714c:	48 39 45 f8          	cmp    %rax,-0x8(%rbp)
    7150:	77 11                	ja     7163 <safe_lshift_func_uint64_t_u_u+0x3e>
    7152:	8b 45 f4             	mov    -0xc(%rbp),%eax
    7155:	48 8b 55 f8          	mov    -0x8(%rbp),%rdx
    7159:	89 c1                	mov    %eax,%ecx
    715b:	48 d3 e2             	shl    %cl,%rdx
    715e:	48 89 d0             	mov    %rdx,%rax
    7161:	eb 04                	jmp    7167 <safe_lshift_func_uint64_t_u_u+0x42>
    7163:	48 8b 45 f8          	mov    -0x8(%rbp),%rax
    7167:	5d                   	pop    %rbp
    7168:	c3                   	retq   

0000000000007169 <safe_rshift_func_uint64_t_u_s>:
    7169:	f3 0f 1e fa          	endbr64 
    716d:	55                   	push   %rbp
    716e:	48 89 e5             	mov    %rsp,%rbp
    7171:	48 89 7d f8          	mov    %rdi,-0x8(%rbp)
    7175:	89 75 f4             	mov    %esi,-0xc(%rbp)
    7178:	83 7d f4 00          	cmpl   $0x0,-0xc(%rbp)
    717c:	78 17                	js     7195 <safe_rshift_func_uint64_t_u_s+0x2c>
    717e:	83 7d f4 1f          	cmpl   $0x1f,-0xc(%rbp)
    7182:	7f 11                	jg     7195 <safe_rshift_func_uint64_t_u_s+0x2c>
    7184:	8b 45 f4             	mov    -0xc(%rbp),%eax
    7187:	48 8b 55 f8          	mov    -0x8(%rbp),%rdx
    718b:	89 c1                	mov    %eax,%ecx
    718d:	48 d3 ea             	shr    %cl,%rdx
    7190:	48 89 d0             	mov    %rdx,%rax
    7193:	eb 04                	jmp    7199 <safe_rshift_func_uint64_t_u_s+0x30>
    7195:	48 8b 45 f8          	mov    -0x8(%rbp),%rax
    7199:	5d                   	pop    %rbp
    719a:	c3                   	retq   

000000000000719b <safe_rshift_func_uint64_t_u_u>:
    719b:	f3 0f 1e fa          	endbr64 
    719f:	55                   	push   %rbp
    71a0:	48 89 e5             	mov    %rsp,%rbp
    71a3:	48 89 7d f8          	mov    %rdi,-0x8(%rbp)
    71a7:	89 75 f4             	mov    %esi,-0xc(%rbp)
    71aa:	83 7d f4 1f          	cmpl   $0x1f,-0xc(%rbp)
    71ae:	77 11                	ja     71c1 <safe_rshift_func_uint64_t_u_u+0x26>
    71b0:	8b 45 f4             	mov    -0xc(%rbp),%eax
    71b3:	48 8b 55 f8          	mov    -0x8(%rbp),%rdx
    71b7:	89 c1                	mov    %eax,%ecx
    71b9:	48 d3 ea             	shr    %cl,%rdx
    71bc:	48 89 d0             	mov    %rdx,%rax
    71bf:	eb 04                	jmp    71c5 <safe_rshift_func_uint64_t_u_u+0x2a>
    71c1:	48 8b 45 f8          	mov    -0x8(%rbp),%rax
    71c5:	5d                   	pop    %rbp
    71c6:	c3                   	retq   

00000000000071c7 <safe_add_func_float_f_f>:
    71c7:	f3 0f 1e fa          	endbr64 
    71cb:	55                   	push   %rbp
    71cc:	48 89 e5             	mov    %rsp,%rbp
    71cf:	f3 0f 11 45 fc       	movss  %xmm0,-0x4(%rbp)
    71d4:	f3 0f 11 4d f8       	movss  %xmm1,-0x8(%rbp)
    71d9:	f3 0f 10 4d fc       	movss  -0x4(%rbp),%xmm1
    71de:	f3 0f 10 05 da 96 00 	movss  0x96da(%rip),%xmm0        # 108c0 <l_1208.4481+0x20>
    71e5:	00 
    71e6:	f3 0f 59 c8          	mulss  %xmm0,%xmm1
    71ea:	f3 0f 10 55 f8       	movss  -0x8(%rbp),%xmm2
    71ef:	f3 0f 10 05 c9 96 00 	movss  0x96c9(%rip),%xmm0        # 108c0 <l_1208.4481+0x20>
    71f6:	00 
    71f7:	f3 0f 59 c2          	mulss  %xmm2,%xmm0
    71fb:	f3 0f 58 c1          	addss  %xmm1,%xmm0
    71ff:	f3 0f 10 0d c9 96 00 	movss  0x96c9(%rip),%xmm1        # 108d0 <l_1208.4481+0x30>
    7206:	00 
    7207:	0f 54 c1             	andps  %xmm1,%xmm0
    720a:	0f 2f 05 cf 96 00 00 	comiss 0x96cf(%rip),%xmm0        # 108e0 <l_1208.4481+0x40>
    7211:	76 07                	jbe    721a <safe_add_func_float_f_f+0x53>
    7213:	f3 0f 10 45 fc       	movss  -0x4(%rbp),%xmm0
    7218:	eb 0a                	jmp    7224 <safe_add_func_float_f_f+0x5d>
    721a:	f3 0f 10 45 fc       	movss  -0x4(%rbp),%xmm0
    721f:	f3 0f 58 45 f8       	addss  -0x8(%rbp),%xmm0
    7224:	5d                   	pop    %rbp
    7225:	c3                   	retq   

0000000000007226 <safe_sub_func_float_f_f>:
    7226:	f3 0f 1e fa          	endbr64 
    722a:	55                   	push   %rbp
    722b:	48 89 e5             	mov    %rsp,%rbp
    722e:	f3 0f 11 45 fc       	movss  %xmm0,-0x4(%rbp)
    7233:	f3 0f 11 4d f8       	movss  %xmm1,-0x8(%rbp)
    7238:	f3 0f 10 4d fc       	movss  -0x4(%rbp),%xmm1
    723d:	f3 0f 10 05 7b 96 00 	movss  0x967b(%rip),%xmm0        # 108c0 <l_1208.4481+0x20>
    7244:	00 
    7245:	f3 0f 59 c1          	mulss  %xmm1,%xmm0
    7249:	f3 0f 10 55 f8       	movss  -0x8(%rbp),%xmm2
    724e:	f3 0f 10 0d 6a 96 00 	movss  0x966a(%rip),%xmm1        # 108c0 <l_1208.4481+0x20>
    7255:	00 
    7256:	f3 0f 59 ca          	mulss  %xmm2,%xmm1
    725a:	f3 0f 5c c1          	subss  %xmm1,%xmm0
    725e:	f3 0f 10 0d 6a 96 00 	movss  0x966a(%rip),%xmm1        # 108d0 <l_1208.4481+0x30>
    7265:	00 
    7266:	0f 54 c1             	andps  %xmm1,%xmm0
    7269:	0f 2f 05 70 96 00 00 	comiss 0x9670(%rip),%xmm0        # 108e0 <l_1208.4481+0x40>
    7270:	76 07                	jbe    7279 <safe_sub_func_float_f_f+0x53>
    7272:	f3 0f 10 45 fc       	movss  -0x4(%rbp),%xmm0
    7277:	eb 0a                	jmp    7283 <safe_sub_func_float_f_f+0x5d>
    7279:	f3 0f 10 45 fc       	movss  -0x4(%rbp),%xmm0
    727e:	f3 0f 5c 45 f8       	subss  -0x8(%rbp),%xmm0
    7283:	5d                   	pop    %rbp
    7284:	c3                   	retq   

0000000000007285 <safe_mul_func_float_f_f>:
    7285:	f3 0f 1e fa          	endbr64 
    7289:	55                   	push   %rbp
    728a:	48 89 e5             	mov    %rsp,%rbp
    728d:	f3 0f 11 45 fc       	movss  %xmm0,-0x4(%rbp)
    7292:	f3 0f 11 4d f8       	movss  %xmm1,-0x8(%rbp)
    7297:	f3 0f 10 4d fc       	movss  -0x4(%rbp),%xmm1
    729c:	f3 0f 10 05 40 96 00 	movss  0x9640(%rip),%xmm0        # 108e4 <l_1208.4481+0x44>
    72a3:	00 
    72a4:	f3 0f 59 c8          	mulss  %xmm0,%xmm1
    72a8:	f3 0f 10 55 f8       	movss  -0x8(%rbp),%xmm2
    72ad:	f3 0f 10 05 33 96 00 	movss  0x9633(%rip),%xmm0        # 108e8 <l_1208.4481+0x48>
    72b4:	00 
    72b5:	f3 0f 59 c2          	mulss  %xmm2,%xmm0
    72b9:	f3 0f 59 c1          	mulss  %xmm1,%xmm0
    72bd:	f3 0f 10 0d 0b 96 00 	movss  0x960b(%rip),%xmm1        # 108d0 <l_1208.4481+0x30>
    72c4:	00 
    72c5:	0f 54 c1             	andps  %xmm1,%xmm0
    72c8:	0f 2f 05 1d 96 00 00 	comiss 0x961d(%rip),%xmm0        # 108ec <l_1208.4481+0x4c>
    72cf:	76 07                	jbe    72d8 <safe_mul_func_float_f_f+0x53>
    72d1:	f3 0f 10 45 fc       	movss  -0x4(%rbp),%xmm0
    72d6:	eb 0a                	jmp    72e2 <safe_mul_func_float_f_f+0x5d>
    72d8:	f3 0f 10 45 fc       	movss  -0x4(%rbp),%xmm0
    72dd:	f3 0f 59 45 f8       	mulss  -0x8(%rbp),%xmm0
    72e2:	5d                   	pop    %rbp
    72e3:	c3                   	retq   

00000000000072e4 <safe_div_func_float_f_f>:
    72e4:	f3 0f 1e fa          	endbr64 
    72e8:	55                   	push   %rbp
    72e9:	48 89 e5             	mov    %rsp,%rbp
    72ec:	f3 0f 11 45 fc       	movss  %xmm0,-0x4(%rbp)
    72f1:	f3 0f 11 4d f8       	movss  %xmm1,-0x8(%rbp)
    72f6:	f3 0f 10 45 f8       	movss  -0x8(%rbp),%xmm0
    72fb:	f3 0f 10 0d cd 95 00 	movss  0x95cd(%rip),%xmm1        # 108d0 <l_1208.4481+0x30>
    7302:	00 
    7303:	0f 54 c8             	andps  %xmm0,%xmm1
    7306:	f3 0f 10 05 e2 95 00 	movss  0x95e2(%rip),%xmm0        # 108f0 <l_1208.4481+0x50>
    730d:	00 
    730e:	0f 2f c1             	comiss %xmm1,%xmm0
    7311:	0f 97 c0             	seta   %al
    7314:	83 f0 01             	xor    $0x1,%eax
    7317:	84 c0                	test   %al,%al
    7319:	75 56                	jne    7371 <safe_div_func_float_f_f+0x8d>
    731b:	66 0f ef c0          	pxor   %xmm0,%xmm0
    731f:	0f 2e 45 f8          	ucomiss -0x8(%rbp),%xmm0
    7323:	7a 0a                	jp     732f <safe_div_func_float_f_f+0x4b>
    7325:	66 0f ef c0          	pxor   %xmm0,%xmm0
    7329:	0f 2e 45 f8          	ucomiss -0x8(%rbp),%xmm0
    732d:	74 4e                	je     737d <safe_div_func_float_f_f+0x99>
    732f:	f3 0f 10 4d fc       	movss  -0x4(%rbp),%xmm1
    7334:	f3 0f 10 05 b8 95 00 	movss  0x95b8(%rip),%xmm0        # 108f4 <l_1208.4481+0x54>
    733b:	00 
    733c:	f3 0f 59 c1          	mulss  %xmm1,%xmm0
    7340:	f3 0f 10 55 f8       	movss  -0x8(%rbp),%xmm2
    7345:	f3 0f 10 0d ab 95 00 	movss  0x95ab(%rip),%xmm1        # 108f8 <l_1208.4481+0x58>
    734c:	00 
    734d:	f3 0f 59 ca          	mulss  %xmm2,%xmm1
    7351:	f3 0f 5e c1          	divss  %xmm1,%xmm0
    7355:	f3 0f 10 0d 73 95 00 	movss  0x9573(%rip),%xmm1        # 108d0 <l_1208.4481+0x30>
    735c:	00 
    735d:	0f 54 c1             	andps  %xmm1,%xmm0
    7360:	0f 2f 05 95 95 00 00 	comiss 0x9595(%rip),%xmm0        # 108fc <l_1208.4481+0x5c>
    7367:	0f 97 c0             	seta   %al
    736a:	83 f0 01             	xor    $0x1,%eax
    736d:	84 c0                	test   %al,%al
    736f:	74 0c                	je     737d <safe_div_func_float_f_f+0x99>
    7371:	f3 0f 10 45 fc       	movss  -0x4(%rbp),%xmm0
    7376:	f3 0f 5e 45 f8       	divss  -0x8(%rbp),%xmm0
    737b:	eb 05                	jmp    7382 <safe_div_func_float_f_f+0x9e>
    737d:	f3 0f 10 45 fc       	movss  -0x4(%rbp),%xmm0
    7382:	5d                   	pop    %rbp
    7383:	c3                   	retq   

0000000000007384 <safe_add_func_double_f_f>:
    7384:	f3 0f 1e fa          	endbr64 
    7388:	55                   	push   %rbp
    7389:	48 89 e5             	mov    %rsp,%rbp
    738c:	f2 0f 11 45 f8       	movsd  %xmm0,-0x8(%rbp)
    7391:	f2 0f 11 4d f0       	movsd  %xmm1,-0x10(%rbp)
    7396:	f2 0f 10 4d f8       	movsd  -0x8(%rbp),%xmm1
    739b:	f2 0f 10 05 5d 95 00 	movsd  0x955d(%rip),%xmm0        # 10900 <l_1208.4481+0x60>
    73a2:	00 
    73a3:	f2 0f 59 c8          	mulsd  %xmm0,%xmm1
    73a7:	f2 0f 10 55 f0       	movsd  -0x10(%rbp),%xmm2
    73ac:	f2 0f 10 05 4c 95 00 	movsd  0x954c(%rip),%xmm0        # 10900 <l_1208.4481+0x60>
    73b3:	00 
    73b4:	f2 0f 59 c2          	mulsd  %xmm2,%xmm0
    73b8:	f2 0f 58 c1          	addsd  %xmm1,%xmm0
    73bc:	f3 0f 7e 0d 4c 95 00 	movq   0x954c(%rip),%xmm1        # 10910 <l_1208.4481+0x70>
    73c3:	00 
    73c4:	66 0f 54 c1          	andpd  %xmm1,%xmm0
    73c8:	66 0f 2f 05 50 95 00 	comisd 0x9550(%rip),%xmm0        # 10920 <l_1208.4481+0x80>
    73cf:	00 
    73d0:	76 07                	jbe    73d9 <safe_add_func_double_f_f+0x55>
    73d2:	f2 0f 10 45 f8       	movsd  -0x8(%rbp),%xmm0
    73d7:	eb 0a                	jmp    73e3 <safe_add_func_double_f_f+0x5f>
    73d9:	f2 0f 10 45 f8       	movsd  -0x8(%rbp),%xmm0
    73de:	f2 0f 58 45 f0       	addsd  -0x10(%rbp),%xmm0
    73e3:	5d                   	pop    %rbp
    73e4:	c3                   	retq   

00000000000073e5 <safe_sub_func_double_f_f>:
    73e5:	f3 0f 1e fa          	endbr64 
    73e9:	55                   	push   %rbp
    73ea:	48 89 e5             	mov    %rsp,%rbp
    73ed:	f2 0f 11 45 f8       	movsd  %xmm0,-0x8(%rbp)
    73f2:	f2 0f 11 4d f0       	movsd  %xmm1,-0x10(%rbp)
    73f7:	f2 0f 10 4d f8       	movsd  -0x8(%rbp),%xmm1
    73fc:	f2 0f 10 05 fc 94 00 	movsd  0x94fc(%rip),%xmm0        # 10900 <l_1208.4481+0x60>
    7403:	00 
    7404:	f2 0f 59 c1          	mulsd  %xmm1,%xmm0
    7408:	f2 0f 10 55 f0       	movsd  -0x10(%rbp),%xmm2
    740d:	f2 0f 10 0d eb 94 00 	movsd  0x94eb(%rip),%xmm1        # 10900 <l_1208.4481+0x60>
    7414:	00 
    7415:	f2 0f 59 ca          	mulsd  %xmm2,%xmm1
    7419:	f2 0f 5c c1          	subsd  %xmm1,%xmm0
    741d:	f3 0f 7e 0d eb 94 00 	movq   0x94eb(%rip),%xmm1        # 10910 <l_1208.4481+0x70>
    7424:	00 
    7425:	66 0f 54 c1          	andpd  %xmm1,%xmm0
    7429:	66 0f 2f 05 ef 94 00 	comisd 0x94ef(%rip),%xmm0        # 10920 <l_1208.4481+0x80>
    7430:	00 
    7431:	76 07                	jbe    743a <safe_sub_func_double_f_f+0x55>
    7433:	f2 0f 10 45 f8       	movsd  -0x8(%rbp),%xmm0
    7438:	eb 0a                	jmp    7444 <safe_sub_func_double_f_f+0x5f>
    743a:	f2 0f 10 45 f8       	movsd  -0x8(%rbp),%xmm0
    743f:	f2 0f 5c 45 f0       	subsd  -0x10(%rbp),%xmm0
    7444:	5d                   	pop    %rbp
    7445:	c3                   	retq   

0000000000007446 <safe_mul_func_double_f_f>:
    7446:	f3 0f 1e fa          	endbr64 
    744a:	55                   	push   %rbp
    744b:	48 89 e5             	mov    %rsp,%rbp
    744e:	f2 0f 11 45 f8       	movsd  %xmm0,-0x8(%rbp)
    7453:	f2 0f 11 4d f0       	movsd  %xmm1,-0x10(%rbp)
    7458:	f2 0f 10 4d f8       	movsd  -0x8(%rbp),%xmm1
    745d:	f2 0f 10 05 c3 94 00 	movsd  0x94c3(%rip),%xmm0        # 10928 <l_1208.4481+0x88>
    7464:	00 
    7465:	f2 0f 59 c8          	mulsd  %xmm0,%xmm1
    7469:	f2 0f 10 55 f0       	movsd  -0x10(%rbp),%xmm2
    746e:	f2 0f 10 05 ba 94 00 	movsd  0x94ba(%rip),%xmm0        # 10930 <l_1208.4481+0x90>
    7475:	00 
    7476:	f2 0f 59 c2          	mulsd  %xmm2,%xmm0
    747a:	f2 0f 59 c1          	mulsd  %xmm1,%xmm0
    747e:	f3 0f 7e 0d 8a 94 00 	movq   0x948a(%rip),%xmm1        # 10910 <l_1208.4481+0x70>
    7485:	00 
    7486:	66 0f 54 c1          	andpd  %xmm1,%xmm0
    748a:	66 0f 2f 05 a6 94 00 	comisd 0x94a6(%rip),%xmm0        # 10938 <l_1208.4481+0x98>
    7491:	00 
    7492:	76 07                	jbe    749b <safe_mul_func_double_f_f+0x55>
    7494:	f2 0f 10 45 f8       	movsd  -0x8(%rbp),%xmm0
    7499:	eb 0a                	jmp    74a5 <safe_mul_func_double_f_f+0x5f>
    749b:	f2 0f 10 45 f8       	movsd  -0x8(%rbp),%xmm0
    74a0:	f2 0f 59 45 f0       	mulsd  -0x10(%rbp),%xmm0
    74a5:	5d                   	pop    %rbp
    74a6:	c3                   	retq   

00000000000074a7 <safe_div_func_double_f_f>:
    74a7:	f3 0f 1e fa          	endbr64 
    74ab:	55                   	push   %rbp
    74ac:	48 89 e5             	mov    %rsp,%rbp
    74af:	f2 0f 11 45 f8       	movsd  %xmm0,-0x8(%rbp)
    74b4:	f2 0f 11 4d f0       	movsd  %xmm1,-0x10(%rbp)
    74b9:	f2 0f 10 45 f0       	movsd  -0x10(%rbp),%xmm0
    74be:	f3 0f 7e 0d 4a 94 00 	movq   0x944a(%rip),%xmm1        # 10910 <l_1208.4481+0x70>
    74c5:	00 
    74c6:	66 0f 54 c8          	andpd  %xmm0,%xmm1
    74ca:	f2 0f 10 05 6e 94 00 	movsd  0x946e(%rip),%xmm0        # 10940 <l_1208.4481+0xa0>
    74d1:	00 
    74d2:	66 0f 2f c1          	comisd %xmm1,%xmm0
    74d6:	0f 97 c0             	seta   %al
    74d9:	83 f0 01             	xor    $0x1,%eax
    74dc:	84 c0                	test   %al,%al
    74de:	75 5a                	jne    753a <safe_div_func_double_f_f+0x93>
    74e0:	66 0f ef c0          	pxor   %xmm0,%xmm0
    74e4:	66 0f 2e 45 f0       	ucomisd -0x10(%rbp),%xmm0
    74e9:	7a 0b                	jp     74f6 <safe_div_func_double_f_f+0x4f>
    74eb:	66 0f ef c0          	pxor   %xmm0,%xmm0
    74ef:	66 0f 2e 45 f0       	ucomisd -0x10(%rbp),%xmm0
    74f4:	74 50                	je     7546 <safe_div_func_double_f_f+0x9f>
    74f6:	f2 0f 10 4d f8       	movsd  -0x8(%rbp),%xmm1
    74fb:	f2 0f 10 05 45 94 00 	movsd  0x9445(%rip),%xmm0        # 10948 <l_1208.4481+0xa8>
    7502:	00 
    7503:	f2 0f 59 c1          	mulsd  %xmm1,%xmm0
    7507:	f2 0f 10 55 f0       	movsd  -0x10(%rbp),%xmm2
    750c:	f2 0f 10 0d 3c 94 00 	movsd  0x943c(%rip),%xmm1        # 10950 <l_1208.4481+0xb0>
    7513:	00 
    7514:	f2 0f 59 ca          	mulsd  %xmm2,%xmm1
    7518:	f2 0f 5e c1          	divsd  %xmm1,%xmm0
    751c:	f3 0f 7e 0d ec 93 00 	movq   0x93ec(%rip),%xmm1        # 10910 <l_1208.4481+0x70>
    7523:	00 
    7524:	66 0f 54 c1          	andpd  %xmm1,%xmm0
    7528:	66 0f 2f 05 28 94 00 	comisd 0x9428(%rip),%xmm0        # 10958 <l_1208.4481+0xb8>
    752f:	00 
    7530:	0f 97 c0             	seta   %al
    7533:	83 f0 01             	xor    $0x1,%eax
    7536:	84 c0                	test   %al,%al
    7538:	74 0c                	je     7546 <safe_div_func_double_f_f+0x9f>
    753a:	f2 0f 10 45 f8       	movsd  -0x8(%rbp),%xmm0
    753f:	f2 0f 5e 45 f0       	divsd  -0x10(%rbp),%xmm0
    7544:	eb 05                	jmp    754b <safe_div_func_double_f_f+0xa4>
    7546:	f2 0f 10 45 f8       	movsd  -0x8(%rbp),%xmm0
    754b:	5d                   	pop    %rbp
    754c:	c3                   	retq   

000000000000754d <safe_convert_func_float_to_int32_t>:
    754d:	f3 0f 1e fa          	endbr64 
    7551:	55                   	push   %rbp
    7552:	48 89 e5             	mov    %rsp,%rbp
    7555:	f3 0f 11 45 fc       	movss  %xmm0,-0x4(%rbp)
    755a:	f3 0f 10 05 fe 93 00 	movss  0x93fe(%rip),%xmm0        # 10960 <l_1208.4481+0xc0>
    7561:	00 
    7562:	0f 2f 45 fc          	comiss -0x4(%rbp),%xmm0
    7566:	0f 93 c0             	setae  %al
    7569:	83 f0 01             	xor    $0x1,%eax
    756c:	84 c0                	test   %al,%al
    756e:	74 21                	je     7591 <safe_convert_func_float_to_int32_t+0x44>
    7570:	f3 0f 10 45 fc       	movss  -0x4(%rbp),%xmm0
    7575:	0f 2f 05 e8 93 00 00 	comiss 0x93e8(%rip),%xmm0        # 10964 <l_1208.4481+0xc4>
    757c:	0f 93 c0             	setae  %al
    757f:	83 f0 01             	xor    $0x1,%eax
    7582:	84 c0                	test   %al,%al
    7584:	74 0b                	je     7591 <safe_convert_func_float_to_int32_t+0x44>
    7586:	f3 0f 10 45 fc       	movss  -0x4(%rbp),%xmm0
    758b:	f3 0f 2c c0          	cvttss2si %xmm0,%eax
    758f:	eb 05                	jmp    7596 <safe_convert_func_float_to_int32_t+0x49>
    7591:	b8 ff ff ff 7f       	mov    $0x7fffffff,%eax
    7596:	5d                   	pop    %rbp
    7597:	c3                   	retq   

0000000000007598 <crc32_gentab>:
    7598:	f3 0f 1e fa          	endbr64 
    759c:	55                   	push   %rbp
    759d:	48 89 e5             	mov    %rsp,%rbp
    75a0:	c7 45 fc 20 83 b8 ed 	movl   $0xedb88320,-0x4(%rbp)
    75a7:	c7 45 f4 00 00 00 00 	movl   $0x0,-0xc(%rbp)
    75ae:	eb 51                	jmp    7601 <crc32_gentab+0x69>
    75b0:	8b 45 f4             	mov    -0xc(%rbp),%eax
    75b3:	89 45 f0             	mov    %eax,-0x10(%rbp)
    75b6:	c7 45 f8 08 00 00 00 	movl   $0x8,-0x8(%rbp)
    75bd:	eb 1e                	jmp    75dd <crc32_gentab+0x45>
    75bf:	8b 45 f0             	mov    -0x10(%rbp),%eax
    75c2:	83 e0 01             	and    $0x1,%eax
    75c5:	85 c0                	test   %eax,%eax
    75c7:	74 0d                	je     75d6 <crc32_gentab+0x3e>
    75c9:	8b 45 f0             	mov    -0x10(%rbp),%eax
    75cc:	d1 e8                	shr    %eax
    75ce:	33 45 fc             	xor    -0x4(%rbp),%eax
    75d1:	89 45 f0             	mov    %eax,-0x10(%rbp)
    75d4:	eb 03                	jmp    75d9 <crc32_gentab+0x41>
    75d6:	d1 6d f0             	shrl   -0x10(%rbp)
    75d9:	83 6d f8 01          	subl   $0x1,-0x8(%rbp)
    75dd:	83 7d f8 00          	cmpl   $0x0,-0x8(%rbp)
    75e1:	7f dc                	jg     75bf <crc32_gentab+0x27>
    75e3:	8b 45 f4             	mov    -0xc(%rbp),%eax
    75e6:	48 98                	cltq   
    75e8:	48 8d 0c 85 00 00 00 	lea    0x0(,%rax,4),%rcx
    75ef:	00 
    75f0:	48 8d 15 c9 df 00 00 	lea    0xdfc9(%rip),%rdx        # 155c0 <crc32_tab>
    75f7:	8b 45 f0             	mov    -0x10(%rbp),%eax
    75fa:	89 04 11             	mov    %eax,(%rcx,%rdx,1)
    75fd:	83 45 f4 01          	addl   $0x1,-0xc(%rbp)
    7601:	81 7d f4 ff 00 00 00 	cmpl   $0xff,-0xc(%rbp)
    7608:	7e a6                	jle    75b0 <crc32_gentab+0x18>
    760a:	90                   	nop
    760b:	90                   	nop
    760c:	5d                   	pop    %rbp
    760d:	c3                   	retq   

000000000000760e <crc32_byte>:
    760e:	f3 0f 1e fa          	endbr64 
    7612:	55                   	push   %rbp
    7613:	48 89 e5             	mov    %rsp,%rbp
    7616:	89 f8                	mov    %edi,%eax
    7618:	88 45 fc             	mov    %al,-0x4(%rbp)
    761b:	8b 05 ff b9 00 00    	mov    0xb9ff(%rip),%eax        # 13020 <crc32_context>
    7621:	c1 e8 08             	shr    $0x8,%eax
    7624:	89 c1                	mov    %eax,%ecx
    7626:	0f b6 55 fc          	movzbl -0x4(%rbp),%edx
    762a:	8b 05 f0 b9 00 00    	mov    0xb9f0(%rip),%eax        # 13020 <crc32_context>
    7630:	31 d0                	xor    %edx,%eax
    7632:	0f b6 c0             	movzbl %al,%eax
    7635:	89 c0                	mov    %eax,%eax
    7637:	48 8d 14 85 00 00 00 	lea    0x0(,%rax,4),%rdx
    763e:	00 
    763f:	48 8d 05 7a df 00 00 	lea    0xdf7a(%rip),%rax        # 155c0 <crc32_tab>
    7646:	8b 04 02             	mov    (%rdx,%rax,1),%eax
    7649:	31 c8                	xor    %ecx,%eax
    764b:	89 05 cf b9 00 00    	mov    %eax,0xb9cf(%rip)        # 13020 <crc32_context>
    7651:	90                   	nop
    7652:	5d                   	pop    %rbp
    7653:	c3                   	retq   

0000000000007654 <crc32_8bytes>:
    7654:	f3 0f 1e fa          	endbr64 
    7658:	55                   	push   %rbp
    7659:	48 89 e5             	mov    %rsp,%rbp
    765c:	48 83 ec 08          	sub    $0x8,%rsp
    7660:	48 89 7d f8          	mov    %rdi,-0x8(%rbp)
    7664:	48 8b 45 f8          	mov    -0x8(%rbp),%rax
    7668:	0f b6 c0             	movzbl %al,%eax
    766b:	89 c7                	mov    %eax,%edi
    766d:	e8 9c ff ff ff       	callq  760e <crc32_byte>
    7672:	48 8b 45 f8          	mov    -0x8(%rbp),%rax
    7676:	48 c1 e8 08          	shr    $0x8,%rax
    767a:	0f b6 c0             	movzbl %al,%eax
    767d:	89 c7                	mov    %eax,%edi
    767f:	e8 8a ff ff ff       	callq  760e <crc32_byte>
    7684:	48 8b 45 f8          	mov    -0x8(%rbp),%rax
    7688:	48 c1 e8 10          	shr    $0x10,%rax
    768c:	0f b6 c0             	movzbl %al,%eax
    768f:	89 c7                	mov    %eax,%edi
    7691:	e8 78 ff ff ff       	callq  760e <crc32_byte>
    7696:	48 8b 45 f8          	mov    -0x8(%rbp),%rax
    769a:	48 c1 e8 18          	shr    $0x18,%rax
    769e:	0f b6 c0             	movzbl %al,%eax
    76a1:	89 c7                	mov    %eax,%edi
    76a3:	e8 66 ff ff ff       	callq  760e <crc32_byte>
    76a8:	48 8b 45 f8          	mov    -0x8(%rbp),%rax
    76ac:	48 c1 e8 20          	shr    $0x20,%rax
    76b0:	0f b6 c0             	movzbl %al,%eax
    76b3:	89 c7                	mov    %eax,%edi
    76b5:	e8 54 ff ff ff       	callq  760e <crc32_byte>
    76ba:	48 8b 45 f8          	mov    -0x8(%rbp),%rax
    76be:	48 c1 e8 28          	shr    $0x28,%rax
    76c2:	0f b6 c0             	movzbl %al,%eax
    76c5:	89 c7                	mov    %eax,%edi
    76c7:	e8 42 ff ff ff       	callq  760e <crc32_byte>
    76cc:	48 8b 45 f8          	mov    -0x8(%rbp),%rax
    76d0:	48 c1 e8 30          	shr    $0x30,%rax
    76d4:	0f b6 c0             	movzbl %al,%eax
    76d7:	89 c7                	mov    %eax,%edi
    76d9:	e8 30 ff ff ff       	callq  760e <crc32_byte>
    76de:	48 8b 45 f8          	mov    -0x8(%rbp),%rax
    76e2:	48 c1 e8 38          	shr    $0x38,%rax
    76e6:	0f b6 c0             	movzbl %al,%eax
    76e9:	89 c7                	mov    %eax,%edi
    76eb:	e8 1e ff ff ff       	callq  760e <crc32_byte>
    76f0:	90                   	nop
    76f1:	c9                   	leaveq 
    76f2:	c3                   	retq   

00000000000076f3 <transparent_crc>:
    76f3:	f3 0f 1e fa          	endbr64 
    76f7:	55                   	push   %rbp
    76f8:	48 89 e5             	mov    %rsp,%rbp
    76fb:	48 83 ec 20          	sub    $0x20,%rsp
    76ff:	48 89 7d f8          	mov    %rdi,-0x8(%rbp)
    7703:	48 89 75 f0          	mov    %rsi,-0x10(%rbp)
    7707:	89 55 ec             	mov    %edx,-0x14(%rbp)
    770a:	48 8b 45 f8          	mov    -0x8(%rbp),%rax
    770e:	48 89 c7             	mov    %rax,%rdi
    7711:	e8 3e ff ff ff       	callq  7654 <crc32_8bytes>
    7716:	83 7d ec 00          	cmpl   $0x0,-0x14(%rbp)
    771a:	74 22                	je     773e <transparent_crc+0x4b>
    771c:	8b 05 fe b8 00 00    	mov    0xb8fe(%rip),%eax        # 13020 <crc32_context>
    7722:	f7 d0                	not    %eax
    7724:	89 c2                	mov    %eax,%edx
    7726:	48 8b 45 f0          	mov    -0x10(%rbp),%rax
    772a:	48 89 c6             	mov    %rax,%rsi
    772d:	48 8d 3d fc 78 00 00 	lea    0x78fc(%rip),%rdi        # f030 <_IO_stdin_used+0x30>
    7734:	b8 00 00 00 00       	mov    $0x0,%eax
    7739:	e8 42 e9 ff ff       	callq  6080 <printf@plt>
    773e:	90                   	nop
    773f:	c9                   	leaveq 
    7740:	c3                   	retq   

0000000000007741 <transparent_crc_bytes>:
    7741:	f3 0f 1e fa          	endbr64 
    7745:	55                   	push   %rbp
    7746:	48 89 e5             	mov    %rsp,%rbp
    7749:	48 83 ec 30          	sub    $0x30,%rsp
    774d:	48 89 7d e8          	mov    %rdi,-0x18(%rbp)
    7751:	89 75 e4             	mov    %esi,-0x1c(%rbp)
    7754:	48 89 55 d8          	mov    %rdx,-0x28(%rbp)
    7758:	89 4d e0             	mov    %ecx,-0x20(%rbp)
    775b:	c7 45 fc 00 00 00 00 	movl   $0x0,-0x4(%rbp)
    7762:	eb 1e                	jmp    7782 <transparent_crc_bytes+0x41>
    7764:	8b 45 fc             	mov    -0x4(%rbp),%eax
    7767:	48 63 d0             	movslq %eax,%rdx
    776a:	48 8b 45 e8          	mov    -0x18(%rbp),%rax
    776e:	48 01 d0             	add    %rdx,%rax
    7771:	0f b6 00             	movzbl (%rax),%eax
    7774:	0f b6 c0             	movzbl %al,%eax
    7777:	89 c7                	mov    %eax,%edi
    7779:	e8 90 fe ff ff       	callq  760e <crc32_byte>
    777e:	83 45 fc 01          	addl   $0x1,-0x4(%rbp)
    7782:	8b 45 fc             	mov    -0x4(%rbp),%eax
    7785:	3b 45 e4             	cmp    -0x1c(%rbp),%eax
    7788:	7c da                	jl     7764 <transparent_crc_bytes+0x23>
    778a:	83 7d e0 00          	cmpl   $0x0,-0x20(%rbp)
    778e:	74 22                	je     77b2 <transparent_crc_bytes+0x71>
    7790:	8b 05 8a b8 00 00    	mov    0xb88a(%rip),%eax        # 13020 <crc32_context>
    7796:	f7 d0                	not    %eax
    7798:	89 c2                	mov    %eax,%edx
    779a:	48 8b 45 d8          	mov    -0x28(%rbp),%rax
    779e:	48 89 c6             	mov    %rax,%rsi
    77a1:	48 8d 3d 88 78 00 00 	lea    0x7888(%rip),%rdi        # f030 <_IO_stdin_used+0x30>
    77a8:	b8 00 00 00 00       	mov    $0x0,%eax
    77ad:	e8 ce e8 ff ff       	callq  6080 <printf@plt>
    77b2:	90                   	nop
    77b3:	c9                   	leaveq 
    77b4:	c3                   	retq   

00000000000077b5 <func_1>:
    77b5:	f3 0f 1e fa          	endbr64 
    77b9:	55                   	push   %rbp
    77ba:	48 89 e5             	mov    %rsp,%rbp
    77bd:	41 57                	push   %r15
    77bf:	41 56                	push   %r14
    77c1:	41 55                	push   %r13
    77c3:	41 54                	push   %r12
    77c5:	53                   	push   %rbx
    77c6:	48 81 ec a8 02 00 00 	sub    $0x2a8,%rsp
    77cd:	64 48 8b 04 25 28 00 	mov    %fs:0x28,%rax
    77d4:	00 00 
    77d6:	48 89 45 c8          	mov    %rax,-0x38(%rbp)
    77da:	31 c0                	xor    %eax,%eax
    77dc:	48 8d 05 f5 b8 00 00 	lea    0xb8f5(%rip),%rax        # 130d8 <g_2441>
    77e3:	48 89 85 58 fd ff ff 	mov    %rax,-0x2a8(%rbp)
    77ea:	48 8d 05 5f d8 00 00 	lea    0xd85f(%rip),%rax        # 15050 <g_1015>
    77f1:	48 89 85 50 fd ff ff 	mov    %rax,-0x2b0(%rbp)
    77f8:	48 8d 85 50 fd ff ff 	lea    -0x2b0(%rbp),%rax
    77ff:	48 89 85 e0 fd ff ff 	mov    %rax,-0x220(%rbp)
    7806:	48 8d 85 50 fd ff ff 	lea    -0x2b0(%rbp),%rax
    780d:	48 89 85 e8 fd ff ff 	mov    %rax,-0x218(%rbp)
    7814:	48 c7 85 f0 fd ff ff 	movq   $0x0,-0x210(%rbp)
    781b:	00 00 00 00 
    781f:	48 8d 85 50 fd ff ff 	lea    -0x2b0(%rbp),%rax
    7826:	48 89 85 f8 fd ff ff 	mov    %rax,-0x208(%rbp)
    782d:	48 8d 85 50 fd ff ff 	lea    -0x2b0(%rbp),%rax
    7834:	48 89 85 00 fe ff ff 	mov    %rax,-0x200(%rbp)
    783b:	48 c7 85 08 fe ff ff 	movq   $0x0,-0x1f8(%rbp)
    7842:	00 00 00 00 
    7846:	48 8d 85 50 fd ff ff 	lea    -0x2b0(%rbp),%rax
    784d:	48 89 85 10 fe ff ff 	mov    %rax,-0x1f0(%rbp)
    7854:	48 8d 85 50 fd ff ff 	lea    -0x2b0(%rbp),%rax
    785b:	48 89 85 18 fe ff ff 	mov    %rax,-0x1e8(%rbp)
    7862:	48 c7 85 20 fe ff ff 	movq   $0x0,-0x1e0(%rbp)
    7869:	00 00 00 00 
    786d:	48 8d 85 50 fd ff ff 	lea    -0x2b0(%rbp),%rax
    7874:	48 89 85 28 fe ff ff 	mov    %rax,-0x1d8(%rbp)
    787b:	48 8d 85 50 fd ff ff 	lea    -0x2b0(%rbp),%rax
    7882:	48 89 85 30 fe ff ff 	mov    %rax,-0x1d0(%rbp)
    7889:	48 c7 85 38 fe ff ff 	movq   $0x0,-0x1c8(%rbp)
    7890:	00 00 00 00 
    7894:	48 c7 85 40 fe ff ff 	movq   $0x0,-0x1c0(%rbp)
    789b:	00 00 00 00 
    789f:	48 8d 85 50 fd ff ff 	lea    -0x2b0(%rbp),%rax
    78a6:	48 89 85 48 fe ff ff 	mov    %rax,-0x1b8(%rbp)
    78ad:	48 c7 85 50 fe ff ff 	movq   $0x0,-0x1b0(%rbp)
    78b4:	00 00 00 00 
    78b8:	48 c7 85 58 fe ff ff 	movq   $0x0,-0x1a8(%rbp)
    78bf:	00 00 00 00 
    78c3:	48 8d 85 50 fd ff ff 	lea    -0x2b0(%rbp),%rax
    78ca:	48 89 85 60 fe ff ff 	mov    %rax,-0x1a0(%rbp)
    78d1:	48 8d 85 50 fd ff ff 	lea    -0x2b0(%rbp),%rax
    78d8:	48 89 85 68 fe ff ff 	mov    %rax,-0x198(%rbp)
    78df:	48 8d 85 50 fd ff ff 	lea    -0x2b0(%rbp),%rax
    78e6:	48 89 85 70 fe ff ff 	mov    %rax,-0x190(%rbp)
    78ed:	48 8d 85 50 fd ff ff 	lea    -0x2b0(%rbp),%rax
    78f4:	48 89 85 78 fe ff ff 	mov    %rax,-0x188(%rbp)
    78fb:	48 8d 85 50 fd ff ff 	lea    -0x2b0(%rbp),%rax
    7902:	48 89 85 80 fe ff ff 	mov    %rax,-0x180(%rbp)
    7909:	48 8d 85 50 fd ff ff 	lea    -0x2b0(%rbp),%rax
    7910:	48 89 85 88 fe ff ff 	mov    %rax,-0x178(%rbp)
    7917:	48 c7 85 90 fe ff ff 	movq   $0x0,-0x170(%rbp)
    791e:	00 00 00 00 
    7922:	48 c7 85 98 fe ff ff 	movq   $0x0,-0x168(%rbp)
    7929:	00 00 00 00 
    792d:	48 8d 85 50 fd ff ff 	lea    -0x2b0(%rbp),%rax
    7934:	48 89 85 a0 fe ff ff 	mov    %rax,-0x160(%rbp)
    793b:	48 8d 85 50 fd ff ff 	lea    -0x2b0(%rbp),%rax
    7942:	48 89 85 a8 fe ff ff 	mov    %rax,-0x158(%rbp)
    7949:	48 c7 85 b0 fe ff ff 	movq   $0x0,-0x150(%rbp)
    7950:	00 00 00 00 
    7954:	48 8d 85 50 fd ff ff 	lea    -0x2b0(%rbp),%rax
    795b:	48 89 85 b8 fe ff ff 	mov    %rax,-0x148(%rbp)
    7962:	48 c7 85 c0 fe ff ff 	movq   $0x0,-0x140(%rbp)
    7969:	00 00 00 00 
    796d:	48 8d 85 50 fd ff ff 	lea    -0x2b0(%rbp),%rax
    7974:	48 89 85 c8 fe ff ff 	mov    %rax,-0x138(%rbp)
    797b:	48 8d 85 50 fd ff ff 	lea    -0x2b0(%rbp),%rax
    7982:	48 89 85 d0 fe ff ff 	mov    %rax,-0x130(%rbp)
    7989:	48 8d 85 50 fd ff ff 	lea    -0x2b0(%rbp),%rax
    7990:	48 89 85 d8 fe ff ff 	mov    %rax,-0x128(%rbp)
    7997:	48 c7 85 e0 fe ff ff 	movq   $0x0,-0x120(%rbp)
    799e:	00 00 00 00 
    79a2:	48 8d 85 50 fd ff ff 	lea    -0x2b0(%rbp),%rax
    79a9:	48 89 85 e8 fe ff ff 	mov    %rax,-0x118(%rbp)
    79b0:	48 8d 85 50 fd ff ff 	lea    -0x2b0(%rbp),%rax
    79b7:	48 89 85 f0 fe ff ff 	mov    %rax,-0x110(%rbp)
    79be:	48 c7 85 f8 fe ff ff 	movq   $0x0,-0x108(%rbp)
    79c5:	00 00 00 00 
    79c9:	48 8d 85 50 fd ff ff 	lea    -0x2b0(%rbp),%rax
    79d0:	48 89 85 00 ff ff ff 	mov    %rax,-0x100(%rbp)
    79d7:	48 8d 85 50 fd ff ff 	lea    -0x2b0(%rbp),%rax
    79de:	48 89 85 08 ff ff ff 	mov    %rax,-0xf8(%rbp)
    79e5:	48 c7 85 10 ff ff ff 	movq   $0x0,-0xf0(%rbp)
    79ec:	00 00 00 00 
    79f0:	48 8d 85 50 fd ff ff 	lea    -0x2b0(%rbp),%rax
    79f7:	48 89 85 18 ff ff ff 	mov    %rax,-0xe8(%rbp)
    79fe:	48 8d 85 50 fd ff ff 	lea    -0x2b0(%rbp),%rax
    7a05:	48 89 85 20 ff ff ff 	mov    %rax,-0xe0(%rbp)
    7a0c:	48 c7 85 28 ff ff ff 	movq   $0x0,-0xd8(%rbp)
    7a13:	00 00 00 00 
    7a17:	48 c7 85 30 ff ff ff 	movq   $0x0,-0xd0(%rbp)
    7a1e:	00 00 00 00 
    7a22:	48 8d 85 50 fd ff ff 	lea    -0x2b0(%rbp),%rax
    7a29:	48 89 85 38 ff ff ff 	mov    %rax,-0xc8(%rbp)
    7a30:	48 c7 85 40 ff ff ff 	movq   $0x0,-0xc0(%rbp)
    7a37:	00 00 00 00 
    7a3b:	48 8d 85 50 fd ff ff 	lea    -0x2b0(%rbp),%rax
    7a42:	48 89 85 48 ff ff ff 	mov    %rax,-0xb8(%rbp)
    7a49:	48 8d 85 50 fd ff ff 	lea    -0x2b0(%rbp),%rax
    7a50:	48 89 85 50 ff ff ff 	mov    %rax,-0xb0(%rbp)
    7a57:	48 8d 85 50 fd ff ff 	lea    -0x2b0(%rbp),%rax
    7a5e:	48 89 85 58 ff ff ff 	mov    %rax,-0xa8(%rbp)
    7a65:	48 c7 85 60 ff ff ff 	movq   $0x0,-0xa0(%rbp)
    7a6c:	00 00 00 00 
    7a70:	48 8d 85 50 fd ff ff 	lea    -0x2b0(%rbp),%rax
    7a77:	48 89 85 68 ff ff ff 	mov    %rax,-0x98(%rbp)
    7a7e:	48 8d 85 50 fd ff ff 	lea    -0x2b0(%rbp),%rax
    7a85:	48 89 85 70 ff ff ff 	mov    %rax,-0x90(%rbp)
    7a8c:	48 8d 85 50 fd ff ff 	lea    -0x2b0(%rbp),%rax
    7a93:	48 89 85 78 ff ff ff 	mov    %rax,-0x88(%rbp)
    7a9a:	48 8d 85 50 fd ff ff 	lea    -0x2b0(%rbp),%rax
    7aa1:	48 89 45 80          	mov    %rax,-0x80(%rbp)
    7aa5:	48 8d 85 50 fd ff ff 	lea    -0x2b0(%rbp),%rax
    7aac:	48 89 45 88          	mov    %rax,-0x78(%rbp)
    7ab0:	48 c7 45 90 00 00 00 	movq   $0x0,-0x70(%rbp)
    7ab7:	00 
    7ab8:	48 c7 45 98 00 00 00 	movq   $0x0,-0x68(%rbp)
    7abf:	00 
    7ac0:	48 c7 45 a0 00 00 00 	movq   $0x0,-0x60(%rbp)
    7ac7:	00 
    7ac8:	48 c7 45 a8 00 00 00 	movq   $0x0,-0x58(%rbp)
    7acf:	00 
    7ad0:	48 8d 85 50 fd ff ff 	lea    -0x2b0(%rbp),%rax
    7ad7:	48 89 45 b0          	mov    %rax,-0x50(%rbp)
    7adb:	48 8d 85 50 fd ff ff 	lea    -0x2b0(%rbp),%rax
    7ae2:	48 89 45 b8          	mov    %rax,-0x48(%rbp)
    7ae6:	48 8d 85 e0 fd ff ff 	lea    -0x220(%rbp),%rax
    7aed:	48 05 d8 00 00 00    	add    $0xd8,%rax
    7af3:	48 89 85 60 fd ff ff 	mov    %rax,-0x2a0(%rbp)
    7afa:	48 c7 85 90 fd ff ff 	movq   $0x0,-0x270(%rbp)
    7b01:	00 00 00 00 
    7b05:	48 c7 85 98 fd ff ff 	movq   $0x0,-0x268(%rbp)
    7b0c:	00 00 00 00 
    7b10:	48 8d 05 19 df 00 00 	lea    0xdf19(%rip),%rax        # 15a30 <g_2539>
    7b17:	48 89 85 a0 fd ff ff 	mov    %rax,-0x260(%rbp)
    7b1e:	48 c7 85 a8 fd ff ff 	movq   $0x0,-0x258(%rbp)
    7b25:	00 00 00 00 
    7b29:	48 c7 85 b0 fd ff ff 	movq   $0x0,-0x250(%rbp)
    7b30:	00 00 00 00 
    7b34:	48 8d 05 f5 de 00 00 	lea    0xdef5(%rip),%rax        # 15a30 <g_2539>
    7b3b:	48 89 85 b8 fd ff ff 	mov    %rax,-0x248(%rbp)
    7b42:	48 c7 85 c0 fd ff ff 	movq   $0x0,-0x240(%rbp)
    7b49:	00 00 00 00 
    7b4d:	48 c7 85 c8 fd ff ff 	movq   $0x0,-0x238(%rbp)
    7b54:	00 00 00 00 
    7b58:	48 8d 05 d1 de 00 00 	lea    0xded1(%rip),%rax        # 15a30 <g_2539>
    7b5f:	48 89 85 d0 fd ff ff 	mov    %rax,-0x230(%rbp)
    7b66:	48 c7 85 d8 fd ff ff 	movq   $0x0,-0x228(%rbp)
    7b6d:	00 00 00 00 
    7b71:	48 c7 85 68 fd ff ff 	movq   $0x0,-0x298(%rbp)
    7b78:	00 00 00 00 
    7b7c:	c7 85 4c fd ff ff 00 	movl   $0x0,-0x2b4(%rbp)
    7b83:	00 00 00 
    7b86:	eb 1a                	jmp    7ba2 <func_1+0x3ed>
    7b88:	8b 85 4c fd ff ff    	mov    -0x2b4(%rbp),%eax
    7b8e:	48 98                	cltq   
    7b90:	c7 84 85 70 fd ff ff 	movl   $0x0,-0x290(%rbp,%rax,4)
    7b97:	00 00 00 00 
    7b9b:	83 85 4c fd ff ff 01 	addl   $0x1,-0x2b4(%rbp)
    7ba2:	83 bd 4c fd ff ff 06 	cmpl   $0x6,-0x2b4(%rbp)
    7ba9:	7e dd                	jle    7b88 <func_1+0x3d3>
    7bab:	8b 9d 80 fd ff ff    	mov    -0x280(%rbp),%ebx
    7bb1:	8b 85 80 fd ff ff    	mov    -0x280(%rbp),%eax
    7bb7:	f7 d0                	not    %eax
    7bb9:	89 c2                	mov    %eax,%edx
    7bbb:	0f b6 05 62 b4 00 00 	movzbl 0xb462(%rip),%eax        # 13024 <g_7>
    7bc2:	0f b6 c0             	movzbl %al,%eax
    7bc5:	89 d6                	mov    %edx,%esi
    7bc7:	89 c7                	mov    %eax,%edi
    7bc9:	e8 5c 02 00 00       	callq  7e2a <func_4>
    7bce:	48 8b 15 2b d4 00 00 	mov    0xd42b(%rip),%rdx        # 15000 <g_226>
    7bd5:	48 8b 12             	mov    (%rdx),%rdx
    7bd8:	0f b6 12             	movzbl (%rdx),%edx
    7bdb:	38 d0                	cmp    %dl,%al
    7bdd:	75 4b                	jne    7c2a <func_1+0x475>
    7bdf:	48 8b 05 a2 d3 00 00 	mov    0xd3a2(%rip),%rax        # 14f88 <g_155>
    7be6:	c7 00 52 24 4b a0    	movl   $0xa04b2452,(%rax)
    7bec:	8b 08                	mov    (%rax),%ecx
    7bee:	8b 95 74 fd ff ff    	mov    -0x28c(%rbp),%edx
    7bf4:	48 8b 85 58 fd ff ff 	mov    -0x2a8(%rbp),%rax
    7bfb:	8b 00                	mov    (%rax),%eax
    7bfd:	21 c1                	and    %eax,%ecx
    7bff:	48 8b 85 58 fd ff ff 	mov    -0x2a8(%rbp),%rax
    7c06:	89 08                	mov    %ecx,(%rax)
    7c08:	48 8b 85 58 fd ff ff 	mov    -0x2a8(%rbp),%rax
    7c0f:	8b 00                	mov    (%rax),%eax
    7c11:	39 c2                	cmp    %eax,%edx
    7c13:	0f 95 c0             	setne  %al
    7c16:	0f b6 d0             	movzbl %al,%edx
    7c19:	8b 85 80 fd ff ff    	mov    -0x280(%rbp),%eax
    7c1f:	39 c2                	cmp    %eax,%edx
    7c21:	7e 07                	jle    7c2a <func_1+0x475>
    7c23:	b8 01 00 00 00       	mov    $0x1,%eax
    7c28:	eb 05                	jmp    7c2f <func_1+0x47a>
    7c2a:	b8 00 00 00 00       	mov    $0x0,%eax
    7c2f:	98                   	cwtl   
    7c30:	89 de                	mov    %ebx,%esi
    7c32:	89 c7                	mov    %eax,%edi
    7c34:	e8 f1 e8 ff ff       	callq  652a <safe_rshift_func_int16_t_s_s>
    7c39:	89 c2                	mov    %eax,%edx
    7c3b:	48 8b 05 36 d3 00 00 	mov    0xd336(%rip),%rax        # 14f78 <g_124>
    7c42:	0f bf d2             	movswl %dx,%edx
    7c45:	89 10                	mov    %edx,(%rax)
    7c47:	48 8b 05 82 d4 00 00 	mov    0xd482(%rip),%rax        # 150d0 <g_1080>
    7c4e:	48 8d 95 70 fd ff ff 	lea    -0x290(%rbp),%rdx
    7c55:	48 83 c2 10          	add    $0x10,%rdx
    7c59:	48 89 10             	mov    %rdx,(%rax)
    7c5c:	48 8b 85 58 fd ff ff 	mov    -0x2a8(%rbp),%rax
    7c63:	8b 00                	mov    (%rax),%eax
    7c65:	0f b7 d8             	movzwl %ax,%ebx
    7c68:	48 8d 85 e0 fd ff ff 	lea    -0x220(%rbp),%rax
    7c6f:	48 05 d8 00 00 00    	add    $0xd8,%rax
    7c75:	48 39 85 60 fd ff ff 	cmp    %rax,-0x2a0(%rbp)
    7c7c:	0f 94 c0             	sete   %al
    7c7f:	0f b6 c0             	movzbl %al,%eax
    7c82:	89 85 3c fd ff ff    	mov    %eax,-0x2c4(%rbp)
    7c88:	48 8b 05 01 d6 00 00 	mov    0xd601(%rip),%rax        # 15290 <g_1585>
    7c8f:	0f b7 00             	movzwl (%rax),%eax
    7c92:	44 0f bf e0          	movswl %ax,%r12d
    7c96:	48 8b 05 63 d3 00 00 	mov    0xd363(%rip),%rax        # 15000 <g_226>
    7c9d:	48 8b 00             	mov    (%rax),%rax
    7ca0:	0f b6 00             	movzbl (%rax),%eax
    7ca3:	44 0f b6 e8          	movzbl %al,%r13d
    7ca7:	48 8b 85 58 fd ff ff 	mov    -0x2a8(%rbp),%rax
    7cae:	8b 00                	mov    (%rax),%eax
    7cb0:	44 0f bf f0          	movswl %ax,%r14d
    7cb4:	48 8b 05 45 d3 00 00 	mov    0xd345(%rip),%rax        # 15000 <g_226>
    7cbb:	48 8b 00             	mov    (%rax),%rax
    7cbe:	0f b6 00             	movzbl (%rax),%eax
    7cc1:	44 0f b6 f8          	movzbl %al,%r15d
    7cc5:	48 8b 85 58 fd ff ff 	mov    -0x2a8(%rbp),%rax
    7ccc:	8b 00                	mov    (%rax),%eax
    7cce:	3d fe 00 00 00       	cmp    $0xfe,%eax
    7cd3:	0f 97 c0             	seta   %al
    7cd6:	0f b6 f0             	movzbl %al,%esi
    7cd9:	89 b5 38 fd ff ff    	mov    %esi,-0x2c8(%rbp)
    7cdf:	48 8b 05 42 d3 00 00 	mov    0xd342(%rip),%rax        # 15028 <g_856>
    7ce6:	48 8b 00             	mov    (%rax),%rax
    7ce9:	48 39 85 68 fd ff ff 	cmp    %rax,-0x298(%rbp)
    7cf0:	0f 94 c0             	sete   %al
    7cf3:	0f b6 d0             	movzbl %al,%edx
    7cf6:	48 8b 85 58 fd ff ff 	mov    -0x2a8(%rbp),%rax
    7cfd:	8b 00                	mov    (%rax),%eax
    7cff:	89 c1                	mov    %eax,%ecx
    7d01:	48 8b 85 98 fd ff ff 	mov    -0x268(%rbp),%rax
    7d08:	48 85 c0             	test   %rax,%rax
    7d0b:	0f 94 c0             	sete   %al
    7d0e:	0f b6 c0             	movzbl %al,%eax
    7d11:	21 c8                	and    %ecx,%eax
    7d13:	0f b7 c0             	movzwl %ax,%eax
    7d16:	89 d6                	mov    %edx,%esi
    7d18:	89 c7                	mov    %eax,%edi
    7d1a:	e8 e0 ef ff ff       	callq  6cff <safe_add_func_uint16_t_u_u>
    7d1f:	0f b7 d0             	movzwl %ax,%edx
    7d22:	48 8b 85 58 fd ff ff 	mov    -0x2a8(%rbp),%rax
    7d29:	8b 00                	mov    (%rax),%eax
    7d2b:	39 c2                	cmp    %eax,%edx
    7d2d:	0f 9d c0             	setge  %al
    7d30:	0f b6 c0             	movzbl %al,%eax
    7d33:	be 08 00 00 00       	mov    $0x8,%esi
    7d38:	89 c7                	mov    %eax,%edi
    7d3a:	e8 c0 e9 ff ff       	callq  66ff <safe_div_func_int32_t_s_s>
    7d3f:	48 8b 95 58 fd ff ff 	mov    -0x2a8(%rbp),%rdx
    7d46:	8b 12                	mov    (%rdx),%edx
    7d48:	39 d0                	cmp    %edx,%eax
    7d4a:	0f 94 c0             	sete   %al
    7d4d:	0f b6 c0             	movzbl %al,%eax
    7d50:	39 85 38 fd ff ff    	cmp    %eax,-0x2c8(%rbp)
    7d56:	0f 9f c0             	setg   %al
    7d59:	0f b6 c0             	movzbl %al,%eax
    7d5c:	44 89 fe             	mov    %r15d,%esi
    7d5f:	89 c7                	mov    %eax,%edi
    7d61:	e8 48 ee ff ff       	callq  6bae <safe_mod_func_uint8_t_u_u>
    7d66:	0f b6 d0             	movzbl %al,%edx
    7d69:	48 8b 85 58 fd ff ff 	mov    -0x2a8(%rbp),%rax
    7d70:	8b 00                	mov    (%rax),%eax
    7d72:	31 d0                	xor    %edx,%eax
    7d74:	98                   	cwtl   
    7d75:	44 89 f6             	mov    %r14d,%esi
    7d78:	89 c7                	mov    %eax,%edi
    7d7a:	e8 d6 e6 ff ff       	callq  6455 <safe_div_func_int16_t_s_s>
    7d7f:	66 3d b3 00          	cmp    $0xb3,%ax
    7d83:	0f 9e c0             	setle  %al
    7d86:	0f b6 c0             	movzbl %al,%eax
    7d89:	44 89 ee             	mov    %r13d,%esi
    7d8c:	89 c7                	mov    %eax,%edi
    7d8e:	e8 00 ee ff ff       	callq  6b93 <safe_mul_func_uint8_t_u_u>
    7d93:	48 8b 85 58 fd ff ff 	mov    -0x2a8(%rbp),%rax
    7d9a:	8b 00                	mov    (%rax),%eax
    7d9c:	98                   	cwtl   
    7d9d:	44 89 e6             	mov    %r12d,%esi
    7da0:	89 c7                	mov    %eax,%edi
    7da2:	e8 83 e7 ff ff       	callq  652a <safe_rshift_func_int16_t_s_s>
    7da7:	98                   	cwtl   
    7da8:	39 85 3c fd ff ff    	cmp    %eax,-0x2c4(%rbp)
    7dae:	0f 9d c0             	setge  %al
    7db1:	0f b6 c0             	movzbl %al,%eax
    7db4:	89 de                	mov    %ebx,%esi
    7db6:	89 c7                	mov    %eax,%edi
    7db8:	e8 80 ef ff ff       	callq  6d3d <safe_mul_func_uint16_t_u_u>
    7dbd:	66 85 c0             	test   %ax,%ax
    7dc0:	75 0d                	jne    7dcf <func_1+0x61a>
    7dc2:	48 8b 85 58 fd ff ff 	mov    -0x2a8(%rbp),%rax
    7dc9:	8b 00                	mov    (%rax),%eax
    7dcb:	85 c0                	test   %eax,%eax
    7dcd:	74 07                	je     7dd6 <func_1+0x621>
    7dcf:	b9 01 00 00 00       	mov    $0x1,%ecx
    7dd4:	eb 05                	jmp    7ddb <func_1+0x626>
    7dd6:	b9 00 00 00 00       	mov    $0x0,%ecx
    7ddb:	48 8b 05 d6 d1 00 00 	mov    0xd1d6(%rip),%rax        # 14fb8 <g_177>
    7de2:	48 8b 00             	mov    (%rax),%rax
    7de5:	48 8b 00             	mov    (%rax),%rax
    7de8:	8b 10                	mov    (%rax),%edx
    7dea:	48 8b 05 c7 d1 00 00 	mov    0xd1c7(%rip),%rax        # 14fb8 <g_177>
    7df1:	48 8b 00             	mov    (%rax),%rax
    7df4:	48 8b 00             	mov    (%rax),%rax
    7df7:	31 ca                	xor    %ecx,%edx
    7df9:	89 10                	mov    %edx,(%rax)
    7dfb:	48 8b 85 58 fd ff ff 	mov    -0x2a8(%rbp),%rax
    7e02:	8b 00                	mov    (%rax),%eax
    7e04:	48 8b 5d c8          	mov    -0x38(%rbp),%rbx
    7e08:	64 48 33 1c 25 28 00 	xor    %fs:0x28,%rbx
    7e0f:	00 00 
    7e11:	74 05                	je     7e18 <func_1+0x663>
    7e13:	e8 58 e2 ff ff       	callq  6070 <__stack_chk_fail@plt>
    7e18:	48 81 c4 a8 02 00 00 	add    $0x2a8,%rsp
    7e1f:	5b                   	pop    %rbx
    7e20:	41 5c                	pop    %r12
    7e22:	41 5d                	pop    %r13
    7e24:	41 5e                	pop    %r14
    7e26:	41 5f                	pop    %r15
    7e28:	5d                   	pop    %rbp
    7e29:	c3                   	retq   

0000000000007e2a <func_4>:
    7e2a:	f3 0f 1e fa          	endbr64 
    7e2e:	55                   	push   %rbp
    7e2f:	48 89 e5             	mov    %rsp,%rbp
    7e32:	41 57                	push   %r15
    7e34:	41 56                	push   %r14
    7e36:	41 55                	push   %r13
    7e38:	41 54                	push   %r12
    7e3a:	53                   	push   %rbx
    7e3b:	48 81 ec b8 07 00 00 	sub    $0x7b8,%rsp
    7e42:	89 f8                	mov    %edi,%eax
    7e44:	89 b5 28 f8 ff ff    	mov    %esi,-0x7d8(%rbp)
    7e4a:	66 89 85 2c f8 ff ff 	mov    %ax,-0x7d4(%rbp)
    7e51:	64 48 8b 04 25 28 00 	mov    %fs:0x28,%rax
    7e58:	00 00 
    7e5a:	48 89 45 c8          	mov    %rax,-0x38(%rbp)
    7e5e:	31 c0                	xor    %eax,%eax
    7e60:	c7 85 48 f8 ff ff 64 	movl   $0xbda7fe64,-0x7b8(%rbp)
    7e67:	fe a7 bd 
    7e6a:	c7 85 58 f8 ff ff 85 	movl   $0xee2b2b85,-0x7a8(%rbp)
    7e71:	2b 2b ee 
    7e74:	c7 85 40 f8 ff ff 00 	movl   $0x0,-0x7c0(%rbp)
    7e7b:	00 00 00 
    7e7e:	48 c7 85 68 f8 ff ff 	movq   $0x0,-0x798(%rbp)
    7e85:	00 00 00 00 
    7e89:	48 8d 85 68 f8 ff ff 	lea    -0x798(%rbp),%rax
    7e90:	48 89 85 98 f8 ff ff 	mov    %rax,-0x768(%rbp)
    7e97:	48 c7 85 70 f8 ff ff 	movq   $0x0,-0x790(%rbp)
    7e9e:	00 00 00 00 
    7ea2:	48 8d 85 70 f8 ff ff 	lea    -0x790(%rbp),%rax
    7ea9:	48 89 85 a0 f8 ff ff 	mov    %rax,-0x760(%rbp)
    7eb0:	48 8d 85 40 f8 ff ff 	lea    -0x7c0(%rbp),%rax
    7eb7:	48 89 85 a8 f8 ff ff 	mov    %rax,-0x758(%rbp)
    7ebe:	c7 85 5c f8 ff ff 33 	movl   $0x74dce933,-0x7a4(%rbp)
    7ec5:	e9 dc 74 
    7ec8:	c6 85 3a f8 ff ff 01 	movb   $0x1,-0x7c6(%rbp)
    7ecf:	c7 85 60 f8 ff ff cb 	movl   $0xda507bcb,-0x7a0(%rbp)
    7ed6:	7b 50 da 
    7ed9:	c6 85 3b f8 ff ff ff 	movb   $0xff,-0x7c5(%rbp)
    7ee0:	48 8d 05 99 d0 00 00 	lea    0xd099(%rip),%rax        # 14f80 <g_140>
    7ee7:	48 89 85 78 f8 ff ff 	mov    %rax,-0x788(%rbp)
    7eee:	48 8d 85 78 f8 ff ff 	lea    -0x788(%rbp),%rax
    7ef5:	48 89 85 b0 f8 ff ff 	mov    %rax,-0x750(%rbp)
    7efc:	c7 85 64 f8 ff ff 02 	movl   $0x2,-0x79c(%rbp)
    7f03:	00 00 00 
    7f06:	48 8d 05 57 b1 00 00 	lea    0xb157(%rip),%rax        # 13064 <g_439>
    7f0d:	48 89 85 80 f8 ff ff 	mov    %rax,-0x780(%rbp)
    7f14:	48 8d 85 80 f8 ff ff 	lea    -0x780(%rbp),%rax
    7f1b:	48 89 85 b8 f8 ff ff 	mov    %rax,-0x748(%rbp)
    7f22:	48 8d 05 c7 d5 00 00 	lea    0xd5c7(%rip),%rax        # 154f0 <g_2449>
    7f29:	48 89 85 10 f9 ff ff 	mov    %rax,-0x6f0(%rbp)
    7f30:	48 8d 05 b9 d5 00 00 	lea    0xd5b9(%rip),%rax        # 154f0 <g_2449>
    7f37:	48 89 85 18 f9 ff ff 	mov    %rax,-0x6e8(%rbp)
    7f3e:	48 8d 05 ab d5 00 00 	lea    0xd5ab(%rip),%rax        # 154f0 <g_2449>
    7f45:	48 89 85 20 f9 ff ff 	mov    %rax,-0x6e0(%rbp)
    7f4c:	48 8d 05 9d d5 00 00 	lea    0xd59d(%rip),%rax        # 154f0 <g_2449>
    7f53:	48 89 85 28 f9 ff ff 	mov    %rax,-0x6d8(%rbp)
    7f5a:	48 8d 05 8f d5 00 00 	lea    0xd58f(%rip),%rax        # 154f0 <g_2449>
    7f61:	48 89 85 30 f9 ff ff 	mov    %rax,-0x6d0(%rbp)
    7f68:	48 8d 05 81 d5 00 00 	lea    0xd581(%rip),%rax        # 154f0 <g_2449>
    7f6f:	48 89 85 38 f9 ff ff 	mov    %rax,-0x6c8(%rbp)
    7f76:	48 8d 05 73 d5 00 00 	lea    0xd573(%rip),%rax        # 154f0 <g_2449>
    7f7d:	48 89 85 40 f9 ff ff 	mov    %rax,-0x6c0(%rbp)
    7f84:	48 b8 bf 52 08 6f 85 	movabs $0xc4b2bb856f0852bf,%rax
    7f8b:	bb b2 c4 
    7f8e:	48 89 85 c0 f8 ff ff 	mov    %rax,-0x740(%rbp)
    7f95:	66 c7 85 3c f8 ff ff 	movw   $0xaafe,-0x7c4(%rbp)
    7f9c:	fe aa 
    7f9e:	48 b8 8a fc 8a 8a fc 	movabs $0xfc8a8afc8a8afc8a,%rax
    7fa5:	8a 8a fc 
    7fa8:	48 89 45 bf          	mov    %rax,-0x41(%rbp)
    7fac:	c6 45 c7 8a          	movb   $0x8a,-0x39(%rbp)
    7fb0:	48 8d 05 39 da 00 00 	lea    0xda39(%rip),%rax        # 159f0 <g_860>
    7fb7:	48 89 85 88 f8 ff ff 	mov    %rax,-0x778(%rbp)
    7fbe:	48 8d 85 00 f9 ff ff 	lea    -0x700(%rbp),%rax
    7fc5:	48 89 85 50 f9 ff ff 	mov    %rax,-0x6b0(%rbp)
    7fcc:	48 8d 05 b5 d5 00 00 	lea    0xd5b5(%rip),%rax        # 15588 <g_2956>
    7fd3:	48 89 85 58 f9 ff ff 	mov    %rax,-0x6a8(%rbp)
    7fda:	48 8d 85 00 f9 ff ff 	lea    -0x700(%rbp),%rax
    7fe1:	48 89 85 60 f9 ff ff 	mov    %rax,-0x6a0(%rbp)
    7fe8:	48 8d 85 00 f9 ff ff 	lea    -0x700(%rbp),%rax
    7fef:	48 89 85 68 f9 ff ff 	mov    %rax,-0x698(%rbp)
    7ff6:	48 8d 85 00 f9 ff ff 	lea    -0x700(%rbp),%rax
    7ffd:	48 89 85 70 f9 ff ff 	mov    %rax,-0x690(%rbp)
    8004:	48 8d 85 00 f9 ff ff 	lea    -0x700(%rbp),%rax
    800b:	48 89 85 78 f9 ff ff 	mov    %rax,-0x688(%rbp)
    8012:	48 8d 85 00 f9 ff ff 	lea    -0x700(%rbp),%rax
    8019:	48 89 85 80 f9 ff ff 	mov    %rax,-0x680(%rbp)
    8020:	48 8d 85 00 f9 ff ff 	lea    -0x700(%rbp),%rax
    8027:	48 89 85 88 f9 ff ff 	mov    %rax,-0x678(%rbp)
    802e:	48 8d 85 00 f9 ff ff 	lea    -0x700(%rbp),%rax
    8035:	48 89 85 90 f9 ff ff 	mov    %rax,-0x670(%rbp)
    803c:	48 8d 05 45 d5 00 00 	lea    0xd545(%rip),%rax        # 15588 <g_2956>
    8043:	48 89 85 98 f9 ff ff 	mov    %rax,-0x668(%rbp)
    804a:	48 8d 85 00 f9 ff ff 	lea    -0x700(%rbp),%rax
    8051:	48 89 85 a0 f9 ff ff 	mov    %rax,-0x660(%rbp)
    8058:	48 8d 05 29 d5 00 00 	lea    0xd529(%rip),%rax        # 15588 <g_2956>
    805f:	48 89 85 a8 f9 ff ff 	mov    %rax,-0x658(%rbp)
    8066:	48 8d 85 00 f9 ff ff 	lea    -0x700(%rbp),%rax
    806d:	48 89 85 b0 f9 ff ff 	mov    %rax,-0x650(%rbp)
    8074:	48 8d 85 00 f9 ff ff 	lea    -0x700(%rbp),%rax
    807b:	48 89 85 b8 f9 ff ff 	mov    %rax,-0x648(%rbp)
    8082:	48 8d 85 00 f9 ff ff 	lea    -0x700(%rbp),%rax
    8089:	48 89 85 c0 f9 ff ff 	mov    %rax,-0x640(%rbp)
    8090:	48 8d 85 00 f9 ff ff 	lea    -0x700(%rbp),%rax
    8097:	48 89 85 c8 f9 ff ff 	mov    %rax,-0x638(%rbp)
    809e:	48 8d 85 00 f9 ff ff 	lea    -0x700(%rbp),%rax
    80a5:	48 89 85 d0 f9 ff ff 	mov    %rax,-0x630(%rbp)
    80ac:	48 8d 85 00 f9 ff ff 	lea    -0x700(%rbp),%rax
    80b3:	48 89 85 d8 f9 ff ff 	mov    %rax,-0x628(%rbp)
    80ba:	48 8d 85 00 f9 ff ff 	lea    -0x700(%rbp),%rax
    80c1:	48 89 85 e0 f9 ff ff 	mov    %rax,-0x620(%rbp)
    80c8:	48 8d 05 b9 d4 00 00 	lea    0xd4b9(%rip),%rax        # 15588 <g_2956>
    80cf:	48 89 85 e8 f9 ff ff 	mov    %rax,-0x618(%rbp)
    80d6:	48 8d 85 00 f9 ff ff 	lea    -0x700(%rbp),%rax
    80dd:	48 89 85 f0 f9 ff ff 	mov    %rax,-0x610(%rbp)
    80e4:	48 8d 05 9d d4 00 00 	lea    0xd49d(%rip),%rax        # 15588 <g_2956>
    80eb:	48 89 85 f8 f9 ff ff 	mov    %rax,-0x608(%rbp)
    80f2:	48 8d 85 00 f9 ff ff 	lea    -0x700(%rbp),%rax
    80f9:	48 89 85 00 fa ff ff 	mov    %rax,-0x600(%rbp)
    8100:	48 8d 85 00 f9 ff ff 	lea    -0x700(%rbp),%rax
    8107:	48 89 85 08 fa ff ff 	mov    %rax,-0x5f8(%rbp)
    810e:	c7 85 4c f8 ff ff 00 	movl   $0x0,-0x7b4(%rbp)
    8115:	00 00 00 
    8118:	eb 1e                	jmp    8138 <func_4+0x30e>
    811a:	8b 85 4c f8 ff ff    	mov    -0x7b4(%rbp),%eax
    8120:	48 98                	cltq   
    8122:	48 8d 95 88 f8 ff ff 	lea    -0x778(%rbp),%rdx
    8129:	48 89 94 c5 00 f9 ff 	mov    %rdx,-0x700(%rbp,%rax,8)
    8130:	ff 
    8131:	83 85 4c f8 ff ff 01 	addl   $0x1,-0x7b4(%rbp)
    8138:	83 bd 4c f8 ff ff 01 	cmpl   $0x1,-0x7b4(%rbp)
    813f:	7e d9                	jle    811a <func_4+0x2f0>
    8141:	66 c7 85 2c f8 ff ff 	movw   $0xfff2,-0x7d4(%rbp)
    8148:	f2 ff 
    814a:	e9 69 01 00 00       	jmpq   82b8 <func_4+0x48e>
    814f:	66 c7 85 3e f8 ff ff 	movw   $0xf30b,-0x7c2(%rbp)
    8156:	0b f3 
    8158:	48 8d 05 d1 ae 00 00 	lea    0xaed1(%rip),%rax        # 13030 <g_37>
    815f:	48 89 85 c8 f8 ff ff 	mov    %rax,-0x738(%rbp)
    8166:	48 c7 85 d0 f8 ff ff 	movq   $0x0,-0x730(%rbp)
    816d:	00 00 00 00 
    8171:	48 8d 05 ac ae 00 00 	lea    0xaeac(%rip),%rax        # 13024 <g_7>
    8178:	48 89 85 90 f8 ff ff 	mov    %rax,-0x770(%rbp)
    817f:	48 8d 85 90 f8 ff ff 	lea    -0x770(%rbp),%rax
    8186:	48 89 85 d8 f8 ff ff 	mov    %rax,-0x728(%rbp)
    818d:	48 8d 05 c0 ae 00 00 	lea    0xaec0(%rip),%rax        # 13054 <g_145>
    8194:	48 89 85 e0 f8 ff ff 	mov    %rax,-0x720(%rbp)
    819b:	c7 85 44 f8 ff ff fe 	movl   $0xfffffffe,-0x7bc(%rbp)
    81a2:	ff ff ff 
    81a5:	48 c7 85 e8 f8 ff ff 	movq   $0x0,-0x718(%rbp)
    81ac:	00 00 00 00 
    81b0:	48 8d 85 10 fa ff ff 	lea    -0x5f0(%rbp),%rax
    81b7:	48 8d 15 42 af 00 00 	lea    0xaf42(%rip),%rdx        # 13100 <g_2959+0x2>
    81be:	b9 b4 00 00 00       	mov    $0xb4,%ecx
    81c3:	48 89 c7             	mov    %rax,%rdi
    81c6:	48 89 d6             	mov    %rdx,%rsi
    81c9:	f3 48 a5             	rep movsq %ds:(%rsi),%es:(%rdi)
    81cc:	48 8d 85 44 f8 ff ff 	lea    -0x7bc(%rbp),%rax
    81d3:	48 89 85 f0 f8 ff ff 	mov    %rax,-0x710(%rbp)
    81da:	83 bd 48 f8 ff ff 00 	cmpl   $0x0,-0x7b8(%rbp)
    81e1:	0f 85 e4 00 00 00    	jne    82cb <func_4+0x4a1>
    81e7:	c7 85 28 f8 ff ff 1c 	movl   $0x1c,-0x7d8(%rbp)
    81ee:	00 00 00 
    81f1:	e9 96 00 00 00       	jmpq   828c <func_4+0x462>
    81f6:	c7 85 50 f8 ff ff 00 	movl   $0x0,-0x7b0(%rbp)
    81fd:	00 00 00 
    8200:	eb 47                	jmp    8249 <func_4+0x41f>
    8202:	c7 85 54 f8 ff ff 00 	movl   $0x0,-0x7ac(%rbp)
    8209:	00 00 00 
    820c:	eb 2b                	jmp    8239 <func_4+0x40f>
    820e:	8b 85 54 f8 ff ff    	mov    -0x7ac(%rbp),%eax
    8214:	48 63 d0             	movslq %eax,%rdx
    8217:	8b 85 50 f8 ff ff    	mov    -0x7b0(%rbp),%eax
    821d:	48 98                	cltq   
    821f:	48 8d 5d d0          	lea    -0x30(%rbp),%rbx
    8223:	48 01 da             	add    %rbx,%rdx
    8226:	48 01 d0             	add    %rdx,%rax
    8229:	48 2d d1 06 00 00    	sub    $0x6d1,%rax
    822f:	c6 00 00             	movb   $0x0,(%rax)
    8232:	83 85 54 f8 ff ff 01 	addl   $0x1,-0x7ac(%rbp)
    8239:	83 bd 54 f8 ff ff 00 	cmpl   $0x0,-0x7ac(%rbp)
    8240:	7e cc                	jle    820e <func_4+0x3e4>
    8242:	83 85 50 f8 ff ff 01 	addl   $0x1,-0x7b0(%rbp)
    8249:	83 bd 50 f8 ff ff 00 	cmpl   $0x0,-0x7b0(%rbp)
    8250:	7e b0                	jle    8202 <func_4+0x3d8>
    8252:	c7 85 48 f8 ff ff 00 	movl   $0x0,-0x7b8(%rbp)
    8259:	00 00 00 
    825c:	83 bd 48 f8 ff ff 00 	cmpl   $0x0,-0x7b8(%rbp)
    8263:	7f 20                	jg     8285 <func_4+0x45b>
    8265:	48 c7 05 b8 ad 00 00 	movq   $0xfffffffffffffff6,0xadb8(%rip)        # 13028 <g_16>
    826c:	f6 ff ff ff 
    8270:	8b 85 48 f8 ff ff    	mov    -0x7b8(%rbp),%eax
    8276:	48 98                	cltq   
    8278:	0f b6 84 45 ff f8 ff 	movzbl -0x701(%rbp,%rax,2),%eax
    827f:	ff 
    8280:	e9 80 02 00 00       	jmpq   8505 <func_4+0x6db>
    8285:	83 ad 28 f8 ff ff 01 	subl   $0x1,-0x7d8(%rbp)
    828c:	83 bd 28 f8 ff ff 0b 	cmpl   $0xb,-0x7d8(%rbp)
    8293:	0f 84 5d ff ff ff    	je     81f6 <func_4+0x3cc>
    8299:	0f b7 85 2c f8 ff ff 	movzwl -0x7d4(%rbp),%eax
    82a0:	0f be c0             	movsbl %al,%eax
    82a3:	be 01 00 00 00       	mov    $0x1,%esi
    82a8:	89 c7                	mov    %eax,%edi
    82aa:	e8 25 df ff ff       	callq  61d4 <safe_add_func_int8_t_s_s>
    82af:	66 98                	cbtw   
    82b1:	66 89 85 2c f8 ff ff 	mov    %ax,-0x7d4(%rbp)
    82b8:	0f b7 85 2c f8 ff ff 	movzwl -0x7d4(%rbp),%eax
    82bf:	66 83 f8 31          	cmp    $0x31,%ax
    82c3:	0f 84 86 fe ff ff    	je     814f <func_4+0x325>
    82c9:	eb 01                	jmp    82cc <func_4+0x4a2>
    82cb:	90                   	nop
    82cc:	0f b7 95 2c f8 ff ff 	movzwl -0x7d4(%rbp),%edx
    82d3:	48 8b 05 f6 cf 00 00 	mov    0xcff6(%rip),%rax        # 152d0 <g_2054>
    82da:	0f b7 d2             	movzwl %dx,%edx
    82dd:	89 10                	mov    %edx,(%rax)
    82df:	0f b7 85 2c f8 ff ff 	movzwl -0x7d4(%rbp),%eax
    82e6:	0f b7 d0             	movzwl %ax,%edx
    82e9:	48 8b 05 a0 cf 00 00 	mov    0xcfa0(%rip),%rax        # 15290 <g_1585>
    82f0:	0f b7 30             	movzwl (%rax),%esi
    82f3:	48 8b 05 f6 d1 00 00 	mov    0xd1f6(%rip),%rax        # 154f0 <g_2449>
    82fa:	48 8b 00             	mov    (%rax),%rax
    82fd:	48 85 c0             	test   %rax,%rax
    8300:	0f 94 c1             	sete   %cl
    8303:	48 8b 05 96 cf 00 00 	mov    0xcf96(%rip),%rax        # 152a0 <g_1638>
    830a:	0f b6 c9             	movzbl %cl,%ecx
    830d:	66 89 08             	mov    %cx,(%rax)
    8310:	0f b7 00             	movzwl (%rax),%eax
    8313:	21 f0                	and    %esi,%eax
    8315:	48 0f bf c0          	movswq %ax,%rax
    8319:	48 89 d6             	mov    %rdx,%rsi
    831c:	48 89 c7             	mov    %rax,%rdi
    831f:	e8 d3 e6 ff ff       	callq  69f7 <safe_div_func_int64_t_s_s>
    8324:	0f bf d8             	movswl %ax,%ebx
    8327:	48 8b 05 c2 d1 00 00 	mov    0xd1c2(%rip),%rax        # 154f0 <g_2449>
    832e:	48 8b 00             	mov    (%rax),%rax
    8331:	48 8b 00             	mov    (%rax),%rax
    8334:	0f b7 00             	movzwl (%rax),%eax
    8337:	0f b7 c0             	movzwl %ax,%eax
    833a:	be 05 00 00 00       	mov    $0x5,%esi
    833f:	89 c7                	mov    %eax,%edi
    8341:	e8 02 eb ff ff       	callq  6e48 <safe_rshift_func_uint16_t_u_s>
    8346:	98                   	cwtl   
    8347:	89 de                	mov    %ebx,%esi
    8349:	89 c7                	mov    %eax,%edi
    834b:	e8 05 e1 ff ff       	callq  6455 <safe_div_func_int16_t_s_s>
    8350:	0f be d0             	movsbl %al,%edx
    8353:	8b 85 28 f8 ff ff    	mov    -0x7d8(%rbp),%eax
    8359:	0f be c0             	movsbl %al,%eax
    835c:	89 d6                	mov    %edx,%esi
    835e:	89 c7                	mov    %eax,%edi
    8360:	e8 ad de ff ff       	callq  6212 <safe_mul_func_int8_t_s_s>
    8365:	0f b7 85 3c f8 ff ff 	movzwl -0x7c4(%rbp),%eax
    836c:	83 f0 6b             	xor    $0x6b,%eax
    836f:	0f b7 c0             	movzwl %ax,%eax
    8372:	be 0a 00 00 00       	mov    $0xa,%esi
    8377:	89 c7                	mov    %eax,%edi
    8379:	e8 fc ea ff ff       	callq  6e7a <safe_rshift_func_uint16_t_u_u>
    837e:	66 85 c0             	test   %ax,%ax
    8381:	48 8b 05 a0 cc 00 00 	mov    0xcca0(%rip),%rax        # 15028 <g_856>
    8388:	48 8b 00             	mov    (%rax),%rax
    838b:	48 8b 10             	mov    (%rax),%rdx
    838e:	48 8b 05 1b cc 00 00 	mov    0xcc1b(%rip),%rax        # 14fb0 <g_178>
    8395:	48 8b 12             	mov    (%rdx),%rdx
    8398:	48 89 10             	mov    %rdx,(%rax)
    839b:	0f b6 45 bf          	movzbl -0x41(%rbp),%eax
    839f:	44 0f b6 f8          	movzbl %al,%r15d
    83a3:	48 8b 85 a8 f8 ff ff 	mov    -0x758(%rbp),%rax
    83aa:	8b 00                	mov    (%rax),%eax
    83ac:	85 c0                	test   %eax,%eax
    83ae:	0f 84 28 01 00 00    	je     84dc <func_4+0x6b2>
    83b4:	0f b6 05 43 ad 00 00 	movzbl 0xad43(%rip),%eax        # 130fe <g_2959>
    83bb:	0f be d8             	movsbl %al,%ebx
    83be:	8b 85 28 f8 ff ff    	mov    -0x7d8(%rbp),%eax
    83c4:	44 0f bf e0          	movswl %ax,%r12d
    83c8:	0f b7 85 2c f8 ff ff 	movzwl -0x7d4(%rbp),%eax
    83cf:	44 0f b7 e8          	movzwl %ax,%r13d
    83d3:	0f b7 85 2c f8 ff ff 	movzwl -0x7d4(%rbp),%eax
    83da:	44 0f be f0          	movsbl %al,%r14d
    83de:	48 8b 95 00 f9 ff ff 	mov    -0x700(%rbp),%rdx
    83e5:	48 8b 05 9c d1 00 00 	mov    0xd19c(%rip),%rax        # 15588 <g_2956>
    83ec:	48 89 05 95 d1 00 00 	mov    %rax,0xd195(%rip)        # 15588 <g_2956>
    83f3:	48 8b 05 8e d1 00 00 	mov    0xd18e(%rip),%rax        # 15588 <g_2956>
    83fa:	48 39 c2             	cmp    %rax,%rdx
    83fd:	0f 94 c0             	sete   %al
    8400:	0f b6 c0             	movzbl %al,%eax
    8403:	be 85 00 00 00       	mov    $0x85,%esi
    8408:	89 c7                	mov    %eax,%edi
    840a:	e8 9f e7 ff ff       	callq  6bae <safe_mod_func_uint8_t_u_u>
    840f:	0f b6 d0             	movzbl %al,%edx
    8412:	48 8b 85 a8 f8 ff ff 	mov    -0x758(%rbp),%rax
    8419:	89 10                	mov    %edx,(%rax)
    841b:	48 8b 85 a8 f8 ff ff 	mov    -0x758(%rbp),%rax
    8422:	8b 00                	mov    (%rax),%eax
    8424:	0f be c0             	movsbl %al,%eax
    8427:	44 89 f6             	mov    %r14d,%esi
    842a:	89 c7                	mov    %eax,%edi
    842c:	e8 e1 dd ff ff       	callq  6212 <safe_mul_func_int8_t_s_s>
    8431:	48 0f be c0          	movsbq %al,%rax
    8435:	48 be 3f 7a 6a c6 97 	movabs $0x8a711f97c66a7a3f,%rsi
    843c:	1f 71 8a 
    843f:	48 89 c7             	mov    %rax,%rdi
    8442:	e8 61 e4 ff ff       	callq  68a8 <safe_sub_func_int64_t_s_s>
    8447:	4c 89 ee             	mov    %r13,%rsi
    844a:	48 89 c7             	mov    %rax,%rdi
    844d:	e8 2e ec ff ff       	callq  7080 <safe_mod_func_uint64_t_u_u>
    8452:	98                   	cwtl   
    8453:	44 89 e6             	mov    %r12d,%esi
    8456:	89 c7                	mov    %eax,%edi
    8458:	e8 76 df ff ff       	callq  63d3 <safe_sub_func_int16_t_s_s>
    845d:	0f be c0             	movsbl %al,%eax
    8460:	be 05 00 00 00       	mov    $0x5,%esi
    8465:	89 c7                	mov    %eax,%edi
    8467:	e8 35 de ff ff       	callq  62a1 <safe_lshift_func_int8_t_s_s>
    846c:	0f b7 85 2c f8 ff ff 	movzwl -0x7d4(%rbp),%eax
    8473:	66 85 c0             	test   %ax,%ax
    8476:	0f 95 c0             	setne  %al
    8479:	0f b6 c0             	movzbl %al,%eax
    847c:	89 de                	mov    %ebx,%esi
    847e:	89 c7                	mov    %eax,%edi
    8480:	e8 c3 e9 ff ff       	callq  6e48 <safe_rshift_func_uint16_t_u_s>
    8485:	66 85 c0             	test   %ax,%ax
    8488:	74 07                	je     8491 <func_4+0x667>
    848a:	b8 01 00 00 00       	mov    $0x1,%eax
    848f:	eb 05                	jmp    8496 <func_4+0x66c>
    8491:	b8 00 00 00 00       	mov    $0x0,%eax
    8496:	0f bf d0             	movswl %ax,%edx
    8499:	48 8b 05 90 cd 00 00 	mov    0xcd90(%rip),%rax        # 15230 <g_1347>
    84a0:	48 8b 00             	mov    (%rax),%rax
    84a3:	48 8b 00             	mov    (%rax),%rax
    84a6:	48 8b 00             	mov    (%rax),%rax
    84a9:	66 35 c6 4f          	xor    $0x4fc6,%ax
    84ad:	98                   	cwtl   
    84ae:	48 8b 1d eb cd 00 00 	mov    0xcdeb(%rip),%rbx        # 152a0 <g_1638>
    84b5:	89 d6                	mov    %edx,%esi
    84b7:	89 c7                	mov    %eax,%edi
    84b9:	e8 37 df ff ff       	callq  63f5 <safe_mul_func_int16_t_s_s>
    84be:	66 89 03             	mov    %ax,(%rbx)
    84c1:	0f b7 03             	movzwl (%rbx),%eax
    84c4:	0f bf d0             	movswl %ax,%edx
    84c7:	0f b7 85 2c f8 ff ff 	movzwl -0x7d4(%rbp),%eax
    84ce:	0f b7 c0             	movzwl %ax,%eax
    84d1:	39 c2                	cmp    %eax,%edx
    84d3:	7f 07                	jg     84dc <func_4+0x6b2>
    84d5:	b8 01 00 00 00       	mov    $0x1,%eax
    84da:	eb 05                	jmp    84e1 <func_4+0x6b7>
    84dc:	b8 00 00 00 00       	mov    $0x0,%eax
    84e1:	44 39 f8             	cmp    %r15d,%eax
    84e4:	0f 9e c0             	setle  %al
    84e7:	0f b6 c8             	movzbl %al,%ecx
    84ea:	48 8b 05 97 ca 00 00 	mov    0xca97(%rip),%rax        # 14f88 <g_155>
    84f1:	8b 10                	mov    (%rax),%edx
    84f3:	48 8b 05 8e ca 00 00 	mov    0xca8e(%rip),%rax        # 14f88 <g_155>
    84fa:	21 ca                	and    %ecx,%edx
    84fc:	89 10                	mov    %edx,(%rax)
    84fe:	0f b7 85 2c f8 ff ff 	movzwl -0x7d4(%rbp),%eax
    8505:	48 8b 4d c8          	mov    -0x38(%rbp),%rcx
    8509:	64 48 33 0c 25 28 00 	xor    %fs:0x28,%rcx
    8510:	00 00 
    8512:	74 05                	je     8519 <func_4+0x6ef>
    8514:	e8 57 db ff ff       	callq  6070 <__stack_chk_fail@plt>
    8519:	48 81 c4 b8 07 00 00 	add    $0x7b8,%rsp
    8520:	5b                   	pop    %rbx
    8521:	41 5c                	pop    %r12
    8523:	41 5d                	pop    %r13
    8525:	41 5e                	pop    %r14
    8527:	41 5f                	pop    %r15
    8529:	5d                   	pop    %rbp
    852a:	c3                   	retq   

000000000000852b <func_18>:
    852b:	f3 0f 1e fa          	endbr64 
    852f:	55                   	push   %rbp
    8530:	48 89 e5             	mov    %rsp,%rbp
    8533:	53                   	push   %rbx
    8534:	48 81 ec 08 05 00 00 	sub    $0x508,%rsp
    853b:	89 bd fc fa ff ff    	mov    %edi,-0x504(%rbp)
    8541:	89 b5 f8 fa ff ff    	mov    %esi,-0x508(%rbp)
    8547:	89 d0                	mov    %edx,%eax
    8549:	88 85 f4 fa ff ff    	mov    %al,-0x50c(%rbp)
    854f:	64 48 8b 04 25 28 00 	mov    %fs:0x28,%rax
    8556:	00 00 
    8558:	48 89 45 e8          	mov    %rax,-0x18(%rbp)
    855c:	31 c0                	xor    %eax,%eax
    855e:	c6 85 05 fb ff ff 00 	movb   $0x0,-0x4fb(%rbp)
    8565:	c7 85 08 fb ff ff 64 	movl   $0xbd946164,-0x4f8(%rbp)
    856c:	61 94 bd 
    856f:	c7 85 0c fb ff ff ff 	movl   $0xffffffff,-0x4f4(%rbp)
    8576:	ff ff ff 
    8579:	48 b8 87 c8 a5 a8 84 	movabs $0xe2aaf484a8a5c887,%rax
    8580:	f4 aa e2 
    8583:	48 89 85 68 fb ff ff 	mov    %rax,-0x498(%rbp)
    858a:	c6 85 06 fb ff ff 00 	movb   $0x0,-0x4fa(%rbp)
    8591:	48 8d 05 f0 aa 00 00 	lea    0xaaf0(%rip),%rax        # 13088 <g_1247>
    8598:	48 89 85 50 fb ff ff 	mov    %rax,-0x4b0(%rbp)
    859f:	48 8d 85 50 fb ff ff 	lea    -0x4b0(%rbp),%rax
    85a6:	48 89 85 70 fb ff ff 	mov    %rax,-0x490(%rbp)
    85ad:	48 8d 05 b4 aa 00 00 	lea    0xaab4(%rip),%rax        # 13068 <g_492>
    85b4:	48 89 85 78 fb ff ff 	mov    %rax,-0x488(%rbp)
    85bb:	c7 85 1c fb ff ff 55 	movl   $0x39e56555,-0x4e4(%rbp)
    85c2:	65 e5 39 
    85c5:	c7 85 20 fb ff ff 52 	movl   $0xb4c02552,-0x4e0(%rbp)
    85cc:	25 c0 b4 
    85cf:	c7 85 24 fb ff ff 5b 	movl   $0x904c255b,-0x4dc(%rbp)
    85d6:	25 4c 90 
    85d9:	c7 85 28 fb ff ff 8c 	movl   $0xf5b0868c,-0x4d8(%rbp)
    85e0:	86 b0 f5 
    85e3:	48 8d 05 a6 aa 00 00 	lea    0xaaa6(%rip),%rax        # 13090 <g_1260>
    85ea:	48 89 85 80 fb ff ff 	mov    %rax,-0x480(%rbp)
    85f1:	48 8d 05 ce aa 00 00 	lea    0xaace(%rip),%rax        # 130c6 <g_1941+0x6>
    85f8:	48 89 85 88 fb ff ff 	mov    %rax,-0x478(%rbp)
    85ff:	48 c7 05 5e aa 00 00 	movq   $0xffffffffffffffe3,0xaa5e(%rip)        # 13068 <g_492>
    8606:	e3 ff ff ff 
    860a:	e9 80 08 00 00       	jmpq   8e8f <func_18+0x964>
    860f:	48 8d 05 3a aa 00 00 	lea    0xaa3a(%rip),%rax        # 13050 <g_122>
    8616:	48 89 85 90 fb ff ff 	mov    %rax,-0x470(%rbp)
    861d:	c7 85 10 fb ff ff f8 	movl   $0xfffffff8,-0x4f0(%rbp)
    8624:	ff ff ff 
    8627:	48 c7 85 98 fb ff ff 	movq   $0x0,-0x468(%rbp)
    862e:	00 00 00 00 
    8632:	48 8d 05 17 aa 00 00 	lea    0xaa17(%rip),%rax        # 13050 <g_122>
    8639:	48 89 85 a0 fb ff ff 	mov    %rax,-0x460(%rbp)
    8640:	48 8d 05 91 aa 00 00 	lea    0xaa91(%rip),%rax        # 130d8 <g_2441>
    8647:	48 89 85 a8 fb ff ff 	mov    %rax,-0x458(%rbp)
    864e:	48 8d 05 7b aa 00 00 	lea    0xaa7b(%rip),%rax        # 130d0 <g_1941+0x10>
    8655:	48 89 85 b0 fb ff ff 	mov    %rax,-0x450(%rbp)
    865c:	48 c7 85 58 fb ff ff 	movq   $0x0,-0x4a8(%rbp)
    8663:	00 00 00 00 
    8667:	48 8d 85 58 fb ff ff 	lea    -0x4a8(%rbp),%rax
    866e:	48 89 85 b8 fb ff ff 	mov    %rax,-0x448(%rbp)
    8675:	48 8d 05 64 d3 00 00 	lea    0xd364(%rip),%rax        # 159e0 <g_616>
    867c:	48 89 85 c0 fb ff ff 	mov    %rax,-0x440(%rbp)
    8683:	48 8d 05 a6 cb 00 00 	lea    0xcba6(%rip),%rax        # 15230 <g_1347>
    868a:	48 89 85 60 fb ff ff 	mov    %rax,-0x4a0(%rbp)
    8691:	c7 85 2c fb ff ff 04 	movl   $0x4,-0x4d4(%rbp)
    8698:	00 00 00 
    869b:	c7 85 30 fb ff ff fd 	movl   $0xfffffffd,-0x4d0(%rbp)
    86a2:	ff ff ff 
    86a5:	c6 85 07 fb ff ff cd 	movb   $0xcd,-0x4f9(%rbp)
    86ac:	c7 85 34 fb ff ff 00 	movl   $0x0,-0x4cc(%rbp)
    86b3:	00 00 00 
    86b6:	c7 85 38 fb ff ff 42 	movl   $0xda386742,-0x4c8(%rbp)
    86bd:	67 38 da 
    86c0:	c7 85 3c fb ff ff 00 	movl   $0x0,-0x4c4(%rbp)
    86c7:	00 00 00 
    86ca:	c7 85 40 fb ff ff 01 	movl   $0x1,-0x4c0(%rbp)
    86d1:	00 00 00 
    86d4:	48 b8 1a 02 57 57 02 	movabs $0x2fd1a025757021a,%rax
    86db:	1a fd 02 
    86de:	48 89 85 30 fc ff ff 	mov    %rax,-0x3d0(%rbp)
    86e5:	48 b9 e5 fd 57 e5 57 	movabs $0x1ae5fd57e557fde5,%rcx
    86ec:	fd e5 1a 
    86ef:	48 89 8d 38 fc ff ff 	mov    %rcx,-0x3c8(%rbp)
    86f6:	48 bb 02 73 00 e5 e5 	movabs $0x27300e5e5007302,%rbx
    86fd:	00 73 02 
    8700:	48 89 9d 40 fc ff ff 	mov    %rbx,-0x3c0(%rbp)
    8707:	48 be 1a e5 fd 57 e5 	movabs $0xe5fd57e557fde51a,%rsi
    870e:	57 fd e5 
    8711:	48 89 b5 48 fc ff ff 	mov    %rsi,-0x3b8(%rbp)
    8718:	48 bf 02 fd 1a 02 57 	movabs $0x1a025757021afd02,%rdi
    871f:	57 02 1a 
    8722:	48 89 bd 50 fc ff ff 	mov    %rdi,-0x3b0(%rbp)
    8729:	48 ba e5 e5 00 73 02 	movabs $0x730200027300e5e5,%rdx
    8730:	00 02 73 
    8733:	48 89 95 58 fc ff ff 	mov    %rdx,-0x3a8(%rbp)
    873a:	48 ba 1a 73 1a 57 73 	movabs $0x73fdfd73571a731a,%rdx
    8741:	fd fd 73 
    8744:	48 89 95 60 fc ff ff 	mov    %rdx,-0x3a0(%rbp)
    874b:	48 ba 73 fd fd 73 57 	movabs $0x1a731a5773fdfd73,%rdx
    8752:	1a 73 1a 
    8755:	48 89 95 68 fc ff ff 	mov    %rdx,-0x398(%rbp)
    875c:	48 ba 73 02 00 02 73 	movabs $0xe5e5007302000273,%rdx
    8763:	00 e5 e5 
    8766:	48 89 95 70 fc ff ff 	mov    %rdx,-0x390(%rbp)
    876d:	48 89 85 78 fc ff ff 	mov    %rax,-0x388(%rbp)
    8774:	48 89 8d 80 fc ff ff 	mov    %rcx,-0x380(%rbp)
    877b:	48 89 9d 88 fc ff ff 	mov    %rbx,-0x378(%rbp)
    8782:	48 89 b5 90 fc ff ff 	mov    %rsi,-0x370(%rbp)
    8789:	48 89 bd 98 fc ff ff 	mov    %rdi,-0x368(%rbp)
    8790:	c7 85 14 fb ff ff 8e 	movl   $0x3b94e8e,-0x4ec(%rbp)
    8797:	4e b9 03 
    879a:	c7 85 18 fb ff ff 00 	movl   $0x0,-0x4e8(%rbp)
    87a1:	00 00 00 
    87a4:	eb 1e                	jmp    87c4 <func_18+0x299>
    87a6:	8b 85 18 fb ff ff    	mov    -0x4e8(%rbp),%eax
    87ac:	48 98                	cltq   
    87ae:	48 8d 95 60 fb ff ff 	lea    -0x4a0(%rbp),%rdx
    87b5:	48 89 94 c5 e0 fb ff 	mov    %rdx,-0x420(%rbp,%rax,8)
    87bc:	ff 
    87bd:	83 85 18 fb ff ff 01 	addl   $0x1,-0x4e8(%rbp)
    87c4:	83 bd 18 fb ff ff 08 	cmpl   $0x8,-0x4e8(%rbp)
    87cb:	7e d9                	jle    87a6 <func_18+0x27b>
    87cd:	0f b6 85 05 fb ff ff 	movzbl -0x4fb(%rbp),%eax
    87d4:	83 c0 01             	add    $0x1,%eax
    87d7:	88 85 05 fb ff ff    	mov    %al,-0x4fb(%rbp)
    87dd:	c7 05 69 a8 00 00 00 	movl   $0x0,0xa869(%rip)        # 13050 <g_122>
    87e4:	00 00 00 
    87e7:	e9 a7 00 00 00       	jmpq   8893 <func_18+0x368>
    87ec:	c7 85 44 fb ff ff ea 	movl   $0x2a531eea,-0x4bc(%rbp)
    87f3:	1e 53 2a 
    87f6:	48 8d 05 bb ca 00 00 	lea    0xcabb(%rip),%rax        # 152b8 <g_1742>
    87fd:	48 89 85 c8 fb ff ff 	mov    %rax,-0x438(%rbp)
    8804:	c7 85 48 fb ff ff f7 	movl   $0xfffffff7,-0x4b8(%rbp)
    880b:	ff ff ff 
    880e:	c7 85 4c fb ff ff 5f 	movl   $0x8e0fb35f,-0x4b4(%rbp)
    8815:	b3 0f 8e 
    8818:	c7 85 a0 fc ff ff fe 	movl   $0xfffffffe,-0x360(%rbp)
    881f:	ff ff ff 
    8822:	c7 85 a4 fc ff ff fe 	movl   $0xfffffffe,-0x35c(%rbp)
    8829:	ff ff ff 
    882c:	c7 85 a8 fc ff ff fe 	movl   $0xfffffffe,-0x358(%rbp)
    8833:	ff ff ff 
    8836:	c7 85 ac fc ff ff fe 	movl   $0xfffffffe,-0x354(%rbp)
    883d:	ff ff ff 
    8840:	c7 85 b0 fc ff ff fe 	movl   $0xfffffffe,-0x350(%rbp)
    8847:	ff ff ff 
    884a:	c7 85 b4 fc ff ff fe 	movl   $0xfffffffe,-0x34c(%rbp)
    8851:	ff ff ff 
    8854:	c7 85 b8 fc ff ff fe 	movl   $0xfffffffe,-0x348(%rbp)
    885b:	ff ff ff 
    885e:	c7 85 bc fc ff ff fe 	movl   $0xfffffffe,-0x344(%rbp)
    8865:	ff ff ff 
    8868:	48 8d 05 f1 a7 00 00 	lea    0xa7f1(%rip),%rax        # 13060 <g_423>
    886f:	48 89 85 d0 fb ff ff 	mov    %rax,-0x430(%rbp)
    8876:	48 8d 05 63 a8 00 00 	lea    0xa863(%rip),%rax        # 130e0 <g_2523>
    887d:	48 89 85 d8 fb ff ff 	mov    %rax,-0x428(%rbp)
    8884:	8b 05 c6 a7 00 00    	mov    0xa7c6(%rip),%eax        # 13050 <g_122>
    888a:	83 c0 01             	add    $0x1,%eax
    888d:	89 05 bd a7 00 00    	mov    %eax,0xa7bd(%rip)        # 13050 <g_122>
    8893:	8b 05 b7 a7 00 00    	mov    0xa7b7(%rip),%eax        # 13050 <g_122>
    8899:	83 f8 13             	cmp    $0x13,%eax
    889c:	0f 8e 4a ff ff ff    	jle    87ec <func_18+0x2c1>
    88a2:	48 8b 05 07 c7 00 00 	mov    0xc707(%rip),%rax        # 14fb0 <g_178>
    88a9:	48 8d 95 10 fb ff ff 	lea    -0x4f0(%rbp),%rdx
    88b0:	48 89 10             	mov    %rdx,(%rax)
    88b3:	48 8b 00             	mov    (%rax),%rax
    88b6:	48 89 05 7b d1 00 00 	mov    %rax,0xd17b(%rip)        # 15a38 <g_2685>
    88bd:	c7 05 89 a7 00 00 00 	movl   $0x0,0xa789(%rip)        # 13050 <g_122>
    88c4:	00 00 00 
    88c7:	e9 93 05 00 00       	jmpq   8e5f <func_18+0x934>
    88cc:	48 8d 05 7d a7 00 00 	lea    0xa77d(%rip),%rax        # 13050 <g_122>
    88d3:	48 89 85 a0 fc ff ff 	mov    %rax,-0x360(%rbp)
    88da:	48 8d 05 5f a7 00 00 	lea    0xa75f(%rip),%rax        # 13040 <g_85>
    88e1:	48 89 85 a8 fc ff ff 	mov    %rax,-0x358(%rbp)
    88e8:	48 8d 85 0c fb ff ff 	lea    -0x4f4(%rbp),%rax
    88ef:	48 89 85 b0 fc ff ff 	mov    %rax,-0x350(%rbp)
    88f6:	48 8d 05 53 a7 00 00 	lea    0xa753(%rip),%rax        # 13050 <g_122>
    88fd:	48 89 85 b8 fc ff ff 	mov    %rax,-0x348(%rbp)
    8904:	48 8d 85 08 fb ff ff 	lea    -0x4f8(%rbp),%rax
    890b:	48 89 85 c0 fc ff ff 	mov    %rax,-0x340(%rbp)
    8912:	48 8d 85 0c fb ff ff 	lea    -0x4f4(%rbp),%rax
    8919:	48 89 85 c8 fc ff ff 	mov    %rax,-0x338(%rbp)
    8920:	48 8d 85 08 fb ff ff 	lea    -0x4f8(%rbp),%rax
    8927:	48 89 85 d0 fc ff ff 	mov    %rax,-0x330(%rbp)
    892e:	48 8d 85 0c fb ff ff 	lea    -0x4f4(%rbp),%rax
    8935:	48 89 85 d8 fc ff ff 	mov    %rax,-0x328(%rbp)
    893c:	48 8d 85 08 fb ff ff 	lea    -0x4f8(%rbp),%rax
    8943:	48 89 85 e0 fc ff ff 	mov    %rax,-0x320(%rbp)
    894a:	48 8d 05 ff a6 00 00 	lea    0xa6ff(%rip),%rax        # 13050 <g_122>
    8951:	48 89 85 e8 fc ff ff 	mov    %rax,-0x318(%rbp)
    8958:	48 c7 85 f0 fc ff ff 	movq   $0x0,-0x310(%rbp)
    895f:	00 00 00 00 
    8963:	48 8d 05 6e a7 00 00 	lea    0xa76e(%rip),%rax        # 130d8 <g_2441>
    896a:	48 89 85 f8 fc ff ff 	mov    %rax,-0x308(%rbp)
    8971:	48 8d 05 d8 a6 00 00 	lea    0xa6d8(%rip),%rax        # 13050 <g_122>
    8978:	48 89 85 00 fd ff ff 	mov    %rax,-0x300(%rbp)
    897f:	48 8d 05 ba a6 00 00 	lea    0xa6ba(%rip),%rax        # 13040 <g_85>
    8986:	48 89 85 08 fd ff ff 	mov    %rax,-0x2f8(%rbp)
    898d:	48 8d 85 08 fb ff ff 	lea    -0x4f8(%rbp),%rax
    8994:	48 89 85 10 fd ff ff 	mov    %rax,-0x2f0(%rbp)
    899b:	48 8d 85 10 fb ff ff 	lea    -0x4f0(%rbp),%rax
    89a2:	48 89 85 18 fd ff ff 	mov    %rax,-0x2e8(%rbp)
    89a9:	48 8d 05 90 a6 00 00 	lea    0xa690(%rip),%rax        # 13040 <g_85>
    89b0:	48 89 85 20 fd ff ff 	mov    %rax,-0x2e0(%rbp)
    89b7:	48 8d 85 0c fb ff ff 	lea    -0x4f4(%rbp),%rax
    89be:	48 89 85 28 fd ff ff 	mov    %rax,-0x2d8(%rbp)
    89c5:	48 8d 05 84 a6 00 00 	lea    0xa684(%rip),%rax        # 13050 <g_122>
    89cc:	48 89 85 30 fd ff ff 	mov    %rax,-0x2d0(%rbp)
    89d3:	48 8d 85 0c fb ff ff 	lea    -0x4f4(%rbp),%rax
    89da:	48 89 85 38 fd ff ff 	mov    %rax,-0x2c8(%rbp)
    89e1:	48 c7 85 40 fd ff ff 	movq   $0x0,-0x2c0(%rbp)
    89e8:	00 00 00 00 
    89ec:	48 8d 85 0c fb ff ff 	lea    -0x4f4(%rbp),%rax
    89f3:	48 89 85 48 fd ff ff 	mov    %rax,-0x2b8(%rbp)
    89fa:	48 8d 85 0c fb ff ff 	lea    -0x4f4(%rbp),%rax
    8a01:	48 89 85 50 fd ff ff 	mov    %rax,-0x2b0(%rbp)
    8a08:	48 8d 05 31 a6 00 00 	lea    0xa631(%rip),%rax        # 13040 <g_85>
    8a0f:	48 89 85 58 fd ff ff 	mov    %rax,-0x2a8(%rbp)
    8a16:	48 c7 85 60 fd ff ff 	movq   $0x0,-0x2a0(%rbp)
    8a1d:	00 00 00 00 
    8a21:	48 c7 85 68 fd ff ff 	movq   $0x0,-0x298(%rbp)
    8a28:	00 00 00 00 
    8a2c:	48 8d 85 0c fb ff ff 	lea    -0x4f4(%rbp),%rax
    8a33:	48 89 85 70 fd ff ff 	mov    %rax,-0x290(%rbp)
    8a3a:	48 8d 85 08 fb ff ff 	lea    -0x4f8(%rbp),%rax
    8a41:	48 89 85 78 fd ff ff 	mov    %rax,-0x288(%rbp)
    8a48:	48 8d 85 08 fb ff ff 	lea    -0x4f8(%rbp),%rax
    8a4f:	48 89 85 80 fd ff ff 	mov    %rax,-0x280(%rbp)
    8a56:	48 8d 85 08 fb ff ff 	lea    -0x4f8(%rbp),%rax
    8a5d:	48 89 85 88 fd ff ff 	mov    %rax,-0x278(%rbp)
    8a64:	48 8d 05 e5 a5 00 00 	lea    0xa5e5(%rip),%rax        # 13050 <g_122>
    8a6b:	48 89 85 90 fd ff ff 	mov    %rax,-0x270(%rbp)
    8a72:	48 8d 85 08 fb ff ff 	lea    -0x4f8(%rbp),%rax
    8a79:	48 89 85 98 fd ff ff 	mov    %rax,-0x268(%rbp)
    8a80:	48 c7 85 a0 fd ff ff 	movq   $0x0,-0x260(%rbp)
    8a87:	00 00 00 00 
    8a8b:	48 8d 05 ae a5 00 00 	lea    0xa5ae(%rip),%rax        # 13040 <g_85>
    8a92:	48 89 85 a8 fd ff ff 	mov    %rax,-0x258(%rbp)
    8a99:	48 8d 85 08 fb ff ff 	lea    -0x4f8(%rbp),%rax
    8aa0:	48 89 85 b0 fd ff ff 	mov    %rax,-0x250(%rbp)
    8aa7:	48 8d 05 a2 a5 00 00 	lea    0xa5a2(%rip),%rax        # 13050 <g_122>
    8aae:	48 89 85 b8 fd ff ff 	mov    %rax,-0x248(%rbp)
    8ab5:	48 8d 05 84 a5 00 00 	lea    0xa584(%rip),%rax        # 13040 <g_85>
    8abc:	48 89 85 c0 fd ff ff 	mov    %rax,-0x240(%rbp)
    8ac3:	48 8d 05 86 a5 00 00 	lea    0xa586(%rip),%rax        # 13050 <g_122>
    8aca:	48 89 85 c8 fd ff ff 	mov    %rax,-0x238(%rbp)
    8ad1:	48 c7 85 d0 fd ff ff 	movq   $0x0,-0x230(%rbp)
    8ad8:	00 00 00 00 
    8adc:	48 8d 85 08 fb ff ff 	lea    -0x4f8(%rbp),%rax
    8ae3:	48 89 85 d8 fd ff ff 	mov    %rax,-0x228(%rbp)
    8aea:	48 8d 05 e7 a5 00 00 	lea    0xa5e7(%rip),%rax        # 130d8 <g_2441>
    8af1:	48 89 85 e0 fd ff ff 	mov    %rax,-0x220(%rbp)
    8af8:	48 8d 85 08 fb ff ff 	lea    -0x4f8(%rbp),%rax
    8aff:	48 89 85 e8 fd ff ff 	mov    %rax,-0x218(%rbp)
    8b06:	48 8d 85 08 fb ff ff 	lea    -0x4f8(%rbp),%rax
    8b0d:	48 89 85 f0 fd ff ff 	mov    %rax,-0x210(%rbp)
    8b14:	48 8d 05 bd a5 00 00 	lea    0xa5bd(%rip),%rax        # 130d8 <g_2441>
    8b1b:	48 89 85 f8 fd ff ff 	mov    %rax,-0x208(%rbp)
    8b22:	48 8d 85 0c fb ff ff 	lea    -0x4f4(%rbp),%rax
    8b29:	48 89 85 00 fe ff ff 	mov    %rax,-0x200(%rbp)
    8b30:	48 8d 85 0c fb ff ff 	lea    -0x4f4(%rbp),%rax
    8b37:	48 89 85 08 fe ff ff 	mov    %rax,-0x1f8(%rbp)
    8b3e:	48 8d 05 fb a4 00 00 	lea    0xa4fb(%rip),%rax        # 13040 <g_85>
    8b45:	48 89 85 10 fe ff ff 	mov    %rax,-0x1f0(%rbp)
    8b4c:	48 c7 85 18 fe ff ff 	movq   $0x0,-0x1e8(%rbp)
    8b53:	00 00 00 00 
    8b57:	48 c7 85 20 fe ff ff 	movq   $0x0,-0x1e0(%rbp)
    8b5e:	00 00 00 00 
    8b62:	48 c7 85 28 fe ff ff 	movq   $0x0,-0x1d8(%rbp)
    8b69:	00 00 00 00 
    8b6d:	48 8d 85 08 fb ff ff 	lea    -0x4f8(%rbp),%rax
    8b74:	48 89 85 30 fe ff ff 	mov    %rax,-0x1d0(%rbp)
    8b7b:	48 c7 85 38 fe ff ff 	movq   $0x0,-0x1c8(%rbp)
    8b82:	00 00 00 00 
    8b86:	48 8d 85 08 fb ff ff 	lea    -0x4f8(%rbp),%rax
    8b8d:	48 89 85 40 fe ff ff 	mov    %rax,-0x1c0(%rbp)
    8b94:	48 8d 85 08 fb ff ff 	lea    -0x4f8(%rbp),%rax
    8b9b:	48 89 85 48 fe ff ff 	mov    %rax,-0x1b8(%rbp)
    8ba2:	48 8d 85 0c fb ff ff 	lea    -0x4f4(%rbp),%rax
    8ba9:	48 89 85 50 fe ff ff 	mov    %rax,-0x1b0(%rbp)
    8bb0:	48 8d 05 99 a4 00 00 	lea    0xa499(%rip),%rax        # 13050 <g_122>
    8bb7:	48 89 85 58 fe ff ff 	mov    %rax,-0x1a8(%rbp)
    8bbe:	48 8d 05 7b a4 00 00 	lea    0xa47b(%rip),%rax        # 13040 <g_85>
    8bc5:	48 89 85 60 fe ff ff 	mov    %rax,-0x1a0(%rbp)
    8bcc:	48 8d 85 08 fb ff ff 	lea    -0x4f8(%rbp),%rax
    8bd3:	48 89 85 68 fe ff ff 	mov    %rax,-0x198(%rbp)
    8bda:	48 8d 05 5f a4 00 00 	lea    0xa45f(%rip),%rax        # 13040 <g_85>
    8be1:	48 89 85 70 fe ff ff 	mov    %rax,-0x190(%rbp)
    8be8:	48 8d 05 51 a4 00 00 	lea    0xa451(%rip),%rax        # 13040 <g_85>
    8bef:	48 89 85 78 fe ff ff 	mov    %rax,-0x188(%rbp)
    8bf6:	48 8d 85 08 fb ff ff 	lea    -0x4f8(%rbp),%rax
    8bfd:	48 89 85 80 fe ff ff 	mov    %rax,-0x180(%rbp)
    8c04:	48 8d 05 35 a4 00 00 	lea    0xa435(%rip),%rax        # 13040 <g_85>
    8c0b:	48 89 85 88 fe ff ff 	mov    %rax,-0x178(%rbp)
    8c12:	48 8d 05 bf a4 00 00 	lea    0xa4bf(%rip),%rax        # 130d8 <g_2441>
    8c19:	48 89 85 90 fe ff ff 	mov    %rax,-0x170(%rbp)
    8c20:	48 8d 05 19 a4 00 00 	lea    0xa419(%rip),%rax        # 13040 <g_85>
    8c27:	48 89 85 98 fe ff ff 	mov    %rax,-0x168(%rbp)
    8c2e:	48 8d 05 0b a4 00 00 	lea    0xa40b(%rip),%rax        # 13040 <g_85>
    8c35:	48 89 85 a0 fe ff ff 	mov    %rax,-0x160(%rbp)
    8c3c:	48 8d 85 08 fb ff ff 	lea    -0x4f8(%rbp),%rax
    8c43:	48 89 85 a8 fe ff ff 	mov    %rax,-0x158(%rbp)
    8c4a:	48 8d 05 ef a3 00 00 	lea    0xa3ef(%rip),%rax        # 13040 <g_85>
    8c51:	48 89 85 b0 fe ff ff 	mov    %rax,-0x150(%rbp)
    8c58:	48 8d 05 e1 a3 00 00 	lea    0xa3e1(%rip),%rax        # 13040 <g_85>
    8c5f:	48 89 85 b8 fe ff ff 	mov    %rax,-0x148(%rbp)
    8c66:	48 8d 05 6b a4 00 00 	lea    0xa46b(%rip),%rax        # 130d8 <g_2441>
    8c6d:	48 89 85 c0 fe ff ff 	mov    %rax,-0x140(%rbp)
    8c74:	48 8d 05 d5 a3 00 00 	lea    0xa3d5(%rip),%rax        # 13050 <g_122>
    8c7b:	48 89 85 c8 fe ff ff 	mov    %rax,-0x138(%rbp)
    8c82:	48 8d 05 b7 a3 00 00 	lea    0xa3b7(%rip),%rax        # 13040 <g_85>
    8c89:	48 89 85 d0 fe ff ff 	mov    %rax,-0x130(%rbp)
    8c90:	48 8d 85 08 fb ff ff 	lea    -0x4f8(%rbp),%rax
    8c97:	48 89 85 d8 fe ff ff 	mov    %rax,-0x128(%rbp)
    8c9e:	48 8d 85 08 fb ff ff 	lea    -0x4f8(%rbp),%rax
    8ca5:	48 89 85 e0 fe ff ff 	mov    %rax,-0x120(%rbp)
    8cac:	48 8d 05 9d a3 00 00 	lea    0xa39d(%rip),%rax        # 13050 <g_122>
    8cb3:	48 89 85 e8 fe ff ff 	mov    %rax,-0x118(%rbp)
    8cba:	48 8d 05 7f a3 00 00 	lea    0xa37f(%rip),%rax        # 13040 <g_85>
    8cc1:	48 89 85 f0 fe ff ff 	mov    %rax,-0x110(%rbp)
    8cc8:	48 c7 85 f8 fe ff ff 	movq   $0x0,-0x108(%rbp)
    8ccf:	00 00 00 00 
    8cd3:	48 8d 85 08 fb ff ff 	lea    -0x4f8(%rbp),%rax
    8cda:	48 89 85 00 ff ff ff 	mov    %rax,-0x100(%rbp)
    8ce1:	48 8d 85 10 fb ff ff 	lea    -0x4f0(%rbp),%rax
    8ce8:	48 89 85 08 ff ff ff 	mov    %rax,-0xf8(%rbp)
    8cef:	48 8d 85 08 fb ff ff 	lea    -0x4f8(%rbp),%rax
    8cf6:	48 89 85 10 ff ff ff 	mov    %rax,-0xf0(%rbp)
    8cfd:	48 c7 85 18 ff ff ff 	movq   $0x0,-0xe8(%rbp)
    8d04:	00 00 00 00 
    8d08:	48 8d 85 10 fb ff ff 	lea    -0x4f0(%rbp),%rax
    8d0f:	48 89 85 20 ff ff ff 	mov    %rax,-0xe0(%rbp)
    8d16:	48 8d 05 23 a3 00 00 	lea    0xa323(%rip),%rax        # 13040 <g_85>
    8d1d:	48 89 85 28 ff ff ff 	mov    %rax,-0xd8(%rbp)
    8d24:	48 8d 05 15 a3 00 00 	lea    0xa315(%rip),%rax        # 13040 <g_85>
    8d2b:	48 89 85 30 ff ff ff 	mov    %rax,-0xd0(%rbp)
    8d32:	48 8d 05 07 a3 00 00 	lea    0xa307(%rip),%rax        # 13040 <g_85>
    8d39:	48 89 85 38 ff ff ff 	mov    %rax,-0xc8(%rbp)
    8d40:	48 8d 05 09 a3 00 00 	lea    0xa309(%rip),%rax        # 13050 <g_122>
    8d47:	48 89 85 40 ff ff ff 	mov    %rax,-0xc0(%rbp)
    8d4e:	48 8d 05 83 a3 00 00 	lea    0xa383(%rip),%rax        # 130d8 <g_2441>
    8d55:	48 89 85 48 ff ff ff 	mov    %rax,-0xb8(%rbp)
    8d5c:	48 8d 85 08 fb ff ff 	lea    -0x4f8(%rbp),%rax
    8d63:	48 89 85 50 ff ff ff 	mov    %rax,-0xb0(%rbp)
    8d6a:	48 8d 85 0c fb ff ff 	lea    -0x4f4(%rbp),%rax
    8d71:	48 89 85 58 ff ff ff 	mov    %rax,-0xa8(%rbp)
    8d78:	48 8d 05 59 a3 00 00 	lea    0xa359(%rip),%rax        # 130d8 <g_2441>
    8d7f:	48 89 85 60 ff ff ff 	mov    %rax,-0xa0(%rbp)
    8d86:	48 8d 05 4b a3 00 00 	lea    0xa34b(%rip),%rax        # 130d8 <g_2441>
    8d8d:	48 89 85 68 ff ff ff 	mov    %rax,-0x98(%rbp)
    8d94:	48 8d 85 0c fb ff ff 	lea    -0x4f4(%rbp),%rax
    8d9b:	48 89 85 70 ff ff ff 	mov    %rax,-0x90(%rbp)
    8da2:	48 8d 05 a7 a2 00 00 	lea    0xa2a7(%rip),%rax        # 13050 <g_122>
    8da9:	48 89 85 78 ff ff ff 	mov    %rax,-0x88(%rbp)
    8db0:	48 8d 85 08 fb ff ff 	lea    -0x4f8(%rbp),%rax
    8db7:	48 89 45 80          	mov    %rax,-0x80(%rbp)
    8dbb:	48 c7 45 88 00 00 00 	movq   $0x0,-0x78(%rbp)
    8dc2:	00 
    8dc3:	48 8d 85 08 fb ff ff 	lea    -0x4f8(%rbp),%rax
    8dca:	48 89 45 90          	mov    %rax,-0x70(%rbp)
    8dce:	48 8d 05 03 a3 00 00 	lea    0xa303(%rip),%rax        # 130d8 <g_2441>
    8dd5:	48 89 45 98          	mov    %rax,-0x68(%rbp)
    8dd9:	48 8d 85 0c fb ff ff 	lea    -0x4f4(%rbp),%rax
    8de0:	48 89 45 a0          	mov    %rax,-0x60(%rbp)
    8de4:	48 8d 85 08 fb ff ff 	lea    -0x4f8(%rbp),%rax
    8deb:	48 89 45 a8          	mov    %rax,-0x58(%rbp)
    8def:	48 8d 05 4a a2 00 00 	lea    0xa24a(%rip),%rax        # 13040 <g_85>
    8df6:	48 89 45 b0          	mov    %rax,-0x50(%rbp)
    8dfa:	48 8d 85 0c fb ff ff 	lea    -0x4f4(%rbp),%rax
    8e01:	48 89 45 b8          	mov    %rax,-0x48(%rbp)
    8e05:	48 8d 85 08 fb ff ff 	lea    -0x4f8(%rbp),%rax
    8e0c:	48 89 45 c0          	mov    %rax,-0x40(%rbp)
    8e10:	48 8d 05 29 a2 00 00 	lea    0xa229(%rip),%rax        # 13040 <g_85>
    8e17:	48 89 45 c8          	mov    %rax,-0x38(%rbp)
    8e1b:	48 8d 05 2e a2 00 00 	lea    0xa22e(%rip),%rax        # 13050 <g_122>
    8e22:	48 89 45 d0          	mov    %rax,-0x30(%rbp)
    8e26:	48 c7 45 d8 00 00 00 	movq   $0x0,-0x28(%rbp)
    8e2d:	00 
    8e2e:	48 8d 85 08 fb ff ff 	lea    -0x4f8(%rbp),%rax
    8e35:	48 89 45 e0          	mov    %rax,-0x20(%rbp)
    8e39:	0f b6 85 58 fc ff ff 	movzbl -0x3a8(%rbp),%eax
    8e40:	83 e8 01             	sub    $0x1,%eax
    8e43:	88 85 58 fc ff ff    	mov    %al,-0x3a8(%rbp)
    8e49:	83 ad 14 fb ff ff 01 	subl   $0x1,-0x4ec(%rbp)
    8e50:	8b 05 fa a1 00 00    	mov    0xa1fa(%rip),%eax        # 13050 <g_122>
    8e56:	83 e8 01             	sub    $0x1,%eax
    8e59:	89 05 f1 a1 00 00    	mov    %eax,0xa1f1(%rip)        # 13050 <g_122>
    8e5f:	8b 05 eb a1 00 00    	mov    0xa1eb(%rip),%eax        # 13050 <g_122>
    8e65:	83 f8 f9             	cmp    $0xfffffff9,%eax
    8e68:	0f 8c 5e fa ff ff    	jl     88cc <func_18+0x3a1>
    8e6e:	48 8b 05 f3 a1 00 00 	mov    0xa1f3(%rip),%rax        # 13068 <g_492>
    8e75:	0f be c0             	movsbl %al,%eax
    8e78:	be 08 00 00 00       	mov    $0x8,%esi
    8e7d:	89 c7                	mov    %eax,%edi
    8e7f:	e8 50 d3 ff ff       	callq  61d4 <safe_add_func_int8_t_s_s>
    8e84:	48 0f be c0          	movsbq %al,%rax
    8e88:	48 89 05 d9 a1 00 00 	mov    %rax,0xa1d9(%rip)        # 13068 <g_492>
    8e8f:	48 8b 05 d2 a1 00 00 	mov    0xa1d2(%rip),%rax        # 13068 <g_492>
    8e96:	48 83 f8 27          	cmp    $0x27,%rax
    8e9a:	0f 84 6f f7 ff ff    	je     860f <func_18+0xe4>
    8ea0:	48 8b 05 29 c4 00 00 	mov    0xc429(%rip),%rax        # 152d0 <g_2054>
    8ea7:	0f be 95 f4 fa ff ff 	movsbl -0x50c(%rbp),%edx
    8eae:	89 10                	mov    %edx,(%rax)
    8eb0:	48 8b 1d 19 c4 00 00 	mov    0xc419(%rip),%rbx        # 152d0 <g_2054>
    8eb7:	be 01 00 00 00       	mov    $0x1,%esi
    8ebc:	bf 4c fc 75 d8       	mov    $0xd875fc4c,%edi
    8ec1:	e8 39 d8 ff ff       	callq  66ff <safe_div_func_int32_t_s_s>
    8ec6:	89 03                	mov    %eax,(%rbx)
    8ec8:	8b 85 fc fa ff ff    	mov    -0x504(%rbp),%eax
    8ece:	48 8b 4d e8          	mov    -0x18(%rbp),%rcx
    8ed2:	64 48 33 0c 25 28 00 	xor    %fs:0x28,%rcx
    8ed9:	00 00 
    8edb:	74 05                	je     8ee2 <func_18+0x9b7>
    8edd:	e8 8e d1 ff ff       	callq  6070 <__stack_chk_fail@plt>
    8ee2:	48 81 c4 08 05 00 00 	add    $0x508,%rsp
    8ee9:	5b                   	pop    %rbx
    8eea:	5d                   	pop    %rbp
    8eeb:	c3                   	retq   

0000000000008eec <func_22>:
    8eec:	f3 0f 1e fa          	endbr64 
    8ef0:	55                   	push   %rbp
    8ef1:	48 89 e5             	mov    %rsp,%rbp
    8ef4:	41 57                	push   %r15
    8ef6:	41 56                	push   %r14
    8ef8:	41 55                	push   %r13
    8efa:	41 54                	push   %r12
    8efc:	53                   	push   %rbx
    8efd:	48 81 ec 00 10 00 00 	sub    $0x1000,%rsp
    8f04:	48 83 0c 24 00       	orq    $0x0,(%rsp)
    8f09:	48 81 ec 00 10 00 00 	sub    $0x1000,%rsp
    8f10:	48 83 0c 24 00       	orq    $0x0,(%rsp)
    8f15:	48 81 ec 58 06 00 00 	sub    $0x658,%rsp
    8f1c:	89 f1                	mov    %esi,%ecx
    8f1e:	89 d0                	mov    %edx,%eax
    8f20:	89 fa                	mov    %edi,%edx
    8f22:	66 89 95 9c d9 ff ff 	mov    %dx,-0x2664(%rbp)
    8f29:	89 ca                	mov    %ecx,%edx
    8f2b:	66 89 95 98 d9 ff ff 	mov    %dx,-0x2668(%rbp)
    8f32:	66 89 85 94 d9 ff ff 	mov    %ax,-0x266c(%rbp)
    8f39:	64 48 8b 04 25 28 00 	mov    %fs:0x28,%rax
    8f40:	00 00 
    8f42:	48 89 45 c8          	mov    %rax,-0x38(%rbp)
    8f46:	31 c0                	xor    %eax,%eax
    8f48:	48 c7 85 f0 da ff ff 	movq   $0x0,-0x2510(%rbp)
    8f4f:	00 00 00 00 
    8f53:	c7 85 c8 d9 ff ff 99 	movl   $0x9369d299,-0x2638(%rbp)
    8f5a:	d2 69 93 
    8f5d:	48 c7 85 f8 da ff ff 	movq   $0x1,-0x2508(%rbp)
    8f64:	01 00 00 00 
    8f68:	c7 85 cc d9 ff ff d6 	movl   $0xdb6917d6,-0x2634(%rbp)
    8f6f:	17 69 db 
    8f72:	48 c7 85 00 db ff ff 	movq   $0x0,-0x2500(%rbp)
    8f79:	00 00 00 00 
    8f7d:	c7 85 d0 d9 ff ff f7 	movl   $0xfffffff7,-0x2630(%rbp)
    8f84:	ff ff ff 
    8f87:	48 8d 85 30 f8 ff ff 	lea    -0x7d0(%rbp),%rax
    8f8e:	48 8d 15 0b a7 00 00 	lea    0xa70b(%rip),%rdx        # 136a0 <g_2959+0x5a2>
    8f95:	b9 f0 00 00 00       	mov    $0xf0,%ecx
    8f9a:	48 89 c7             	mov    %rax,%rdi
    8f9d:	48 89 d6             	mov    %rdx,%rsi
    8fa0:	f3 48 a5             	rep movsq %ds:(%rsi),%es:(%rdi)
    8fa3:	48 8d 05 d6 a0 00 00 	lea    0xa0d6(%rip),%rax        # 13080 <g_620>
    8faa:	48 89 85 60 dd ff ff 	mov    %rax,-0x22a0(%rbp)
    8fb1:	48 8d 05 a0 a0 00 00 	lea    0xa0a0(%rip),%rax        # 13058 <g_257>
    8fb8:	48 89 85 08 db ff ff 	mov    %rax,-0x24f8(%rbp)
    8fbf:	48 8d 85 08 db ff ff 	lea    -0x24f8(%rbp),%rax
    8fc6:	48 89 85 68 dd ff ff 	mov    %rax,-0x2298(%rbp)
    8fcd:	48 c7 85 10 db ff ff 	movq   $0x0,-0x24f0(%rbp)
    8fd4:	00 00 00 00 
    8fd8:	48 8d 85 10 db ff ff 	lea    -0x24f0(%rbp),%rax
    8fdf:	48 89 85 18 db ff ff 	mov    %rax,-0x24e8(%rbp)
    8fe6:	66 c7 85 b2 d9 ff ff 	movw   $0x1,-0x264e(%rbp)
    8fed:	01 00 
    8fef:	48 8d 85 d0 df ff ff 	lea    -0x2030(%rbp),%rax
    8ff6:	48 05 a8 00 00 00    	add    $0xa8,%rax
    8ffc:	48 89 85 20 db ff ff 	mov    %rax,-0x24e0(%rbp)
    9003:	48 8d 85 20 db ff ff 	lea    -0x24e0(%rbp),%rax
    900a:	48 89 85 58 dd ff ff 	mov    %rax,-0x22a8(%rbp)
    9011:	48 c7 85 28 db ff ff 	movq   $0x9,-0x24d8(%rbp)
    9018:	09 00 00 00 
    901c:	48 b8 d8 95 83 52 63 	movabs $0x107c6b63528395d8,%rax
    9023:	6b 7c 10 
    9026:	48 89 85 90 db ff ff 	mov    %rax,-0x2470(%rbp)
    902d:	c7 85 d4 d9 ff ff 88 	movl   $0x3cbf8188,-0x262c(%rbp)
    9034:	81 bf 3c 
    9037:	c7 85 d8 d9 ff ff fe 	movl   $0xfffffffe,-0x2628(%rbp)
    903e:	ff ff ff 
    9041:	c7 85 b0 da ff ff f9 	movl   $0xfffffff9,-0x2550(%rbp)
    9048:	ff ff ff 
    904b:	c7 85 dc d9 ff ff 01 	movl   $0x1,-0x2624(%rbp)
    9052:	00 00 00 
    9055:	c7 85 e0 d9 ff ff c2 	movl   $0x85ad1ec2,-0x2620(%rbp)
    905c:	1e ad 85 
    905f:	48 8d 05 4a bf 00 00 	lea    0xbf4a(%rip),%rax        # 14fb0 <g_178>
    9066:	48 89 85 48 dd ff ff 	mov    %rax,-0x22b8(%rbp)
    906d:	48 8d 85 e0 d9 ff ff 	lea    -0x2620(%rbp),%rax
    9074:	48 89 85 50 dd ff ff 	mov    %rax,-0x22b0(%rbp)
    907b:	c6 45 b9 77          	movb   $0x77,-0x47(%rbp)
    907f:	c7 85 e4 d9 ff ff ff 	movl   $0xffffffff,-0x261c(%rbp)
    9086:	ff ff ff 
    9089:	c7 45 ba 5b 5b 5b 5b 	movl   $0x5b5b5b5b,-0x46(%rbp)
    9090:	66 c7 45 be 5b 5b    	movw   $0x5b5b,-0x42(%rbp)
    9096:	48 8d 05 7b bf 00 00 	lea    0xbf7b(%rip),%rax        # 15018 <g_748>
    909d:	48 89 85 30 db ff ff 	mov    %rax,-0x24d0(%rbp)
    90a4:	c7 85 34 da ff ff 01 	movl   $0x1,-0x25cc(%rbp)
    90ab:	00 00 00 
    90ae:	c6 85 b1 d9 ff ff 00 	movb   $0x0,-0x264f(%rbp)
    90b5:	c7 85 e8 d9 ff ff 62 	movl   $0x59987562,-0x2618(%rbp)
    90bc:	75 98 59 
    90bf:	c7 85 ac da ff ff c1 	movl   $0xfc5341c1,-0x2554(%rbp)
    90c6:	41 53 fc 
    90c9:	48 c7 85 d0 de ff ff 	movq   $0x0,-0x2130(%rbp)
    90d0:	00 00 00 00 
    90d4:	48 c7 85 d8 de ff ff 	movq   $0x0,-0x2128(%rbp)
    90db:	00 00 00 00 
    90df:	48 8d 85 e0 d9 ff ff 	lea    -0x2620(%rbp),%rax
    90e6:	48 89 85 e0 de ff ff 	mov    %rax,-0x2120(%rbp)
    90ed:	48 c7 85 e8 de ff ff 	movq   $0x0,-0x2118(%rbp)
    90f4:	00 00 00 00 
    90f8:	48 c7 85 f0 de ff ff 	movq   $0x0,-0x2110(%rbp)
    90ff:	00 00 00 00 
    9103:	48 8d 85 e0 d9 ff ff 	lea    -0x2620(%rbp),%rax
    910a:	48 89 85 f8 de ff ff 	mov    %rax,-0x2108(%rbp)
    9111:	c6 85 af d9 ff ff 49 	movb   $0x49,-0x2651(%rbp)
    9118:	48 b8 1c 13 ba 2c 5b 	movabs $0x9dfd355b2cba131c,%rax
    911f:	35 fd 9d 
    9122:	48 89 85 38 dd ff ff 	mov    %rax,-0x22c8(%rbp)
    9129:	48 c7 85 40 dd ff ff 	movq   $0xfffffffffffffff8,-0x22c0(%rbp)
    9130:	f8 ff ff ff 
    9134:	c6 85 b0 d9 ff ff 01 	movb   $0x1,-0x2650(%rbp)
    913b:	c6 85 ad d9 ff ff ff 	movb   $0xff,-0x2653(%rbp)
    9142:	c6 85 ae d9 ff ff 5c 	movb   $0x5c,-0x2652(%rbp)
    9149:	48 8d 85 30 ea ff ff 	lea    -0x15d0(%rbp),%rax
    9150:	48 8d 15 c9 ac 00 00 	lea    0xacc9(%rip),%rdx        # 13e20 <g_2959+0xd22>
    9157:	b9 e0 00 00 00       	mov    $0xe0,%ecx
    915c:	48 89 c7             	mov    %rax,%rdi
    915f:	48 89 d6             	mov    %rdx,%rsi
    9162:	f3 48 a5             	rep movsq %ds:(%rsi),%es:(%rdi)
    9165:	48 c7 85 38 db ff ff 	movq   $0x0,-0x24c8(%rbp)
    916c:	00 00 00 00 
    9170:	48 8d 85 38 db ff ff 	lea    -0x24c8(%rbp),%rax
    9177:	48 89 85 40 db ff ff 	mov    %rax,-0x24c0(%rbp)
    917e:	48 8d 85 40 db ff ff 	lea    -0x24c0(%rbp),%rax
    9185:	48 89 85 28 dd ff ff 	mov    %rax,-0x22d8(%rbp)
    918c:	c7 85 a4 da ff ff ff 	movl   $0xffffffff,-0x255c(%rbp)
    9193:	ff ff ff 
    9196:	48 8d 05 13 c1 00 00 	lea    0xc113(%rip),%rax        # 152b0 <g_1699>
    919d:	48 89 85 48 db ff ff 	mov    %rax,-0x24b8(%rbp)
    91a4:	48 8d 85 48 db ff ff 	lea    -0x24b8(%rbp),%rax
    91ab:	48 89 85 30 dd ff ff 	mov    %rax,-0x22d0(%rbp)
    91b2:	66 c7 85 c4 d9 ff ff 	movw   $0x1,-0x263c(%rbp)
    91b9:	01 00 
    91bb:	c7 85 a8 da ff ff 01 	movl   $0x1,-0x2558(%rbp)
    91c2:	00 00 00 
    91c5:	66 c7 85 c6 d9 ff ff 	movw   $0x7,-0x263a(%rbp)
    91cc:	07 00 
    91ce:	48 c7 85 f8 dc ff ff 	movq   $0x0,-0x2308(%rbp)
    91d5:	00 00 00 00 
    91d9:	c7 85 88 da ff ff 5d 	movl   $0x7ffca15d,-0x2578(%rbp)
    91e0:	a1 fc 7f 
    91e3:	66 c7 85 be d9 ff ff 	movw   $0x0,-0x2642(%rbp)
    91ea:	00 00 
    91ec:	48 8d 05 b5 9e 00 00 	lea    0x9eb5(%rip),%rax        # 130a8 <g_1571>
    91f3:	48 89 85 00 dd ff ff 	mov    %rax,-0x2300(%rbp)
    91fa:	48 c7 85 08 dd ff ff 	movq   $0x0,-0x22f8(%rbp)
    9201:	00 00 00 00 
    9205:	48 8d 85 00 e3 ff ff 	lea    -0x1d00(%rbp),%rax
    920c:	48 8d 15 6d 5e 00 00 	lea    0x5e6d(%rip),%rdx        # f080 <g_2338+0x18>
    9213:	b9 69 00 00 00       	mov    $0x69,%ecx
    9218:	48 89 c7             	mov    %rax,%rdi
    921b:	48 89 d6             	mov    %rdx,%rsi
    921e:	f3 48 a5             	rep movsq %ds:(%rsi),%es:(%rdi)
    9221:	48 8d 85 30 f1 ff ff 	lea    -0xed0(%rbp),%rax
    9228:	48 8d 15 b1 61 00 00 	lea    0x61b1(%rip),%rdx        # f3e0 <g_2338+0x378>
    922f:	b9 e0 00 00 00       	mov    $0xe0,%ecx
    9234:	48 89 c7             	mov    %rax,%rdi
    9237:	48 89 d6             	mov    %rdx,%rsi
    923a:	f3 48 a5             	rep movsq %ds:(%rsi),%es:(%rdi)
    923d:	48 8d 85 e4 d9 ff ff 	lea    -0x261c(%rbp),%rax
    9244:	48 89 85 10 dd ff ff 	mov    %rax,-0x22f0(%rbp)
    924b:	c7 85 8c da ff ff fc 	movl   $0xfffffffc,-0x2574(%rbp)
    9252:	ff ff ff 
    9255:	c7 85 90 da ff ff 09 	movl   $0x9,-0x2570(%rbp)
    925c:	00 00 00 
    925f:	c7 85 94 da ff ff b3 	movl   $0x4ea68fb3,-0x256c(%rbp)
    9266:	8f a6 4e 
    9269:	c7 85 98 da ff ff 00 	movl   $0x0,-0x2568(%rbp)
    9270:	00 00 00 
    9273:	eb 54                	jmp    92c9 <func_22+0x3dd>
    9275:	c7 85 c8 da ff ff 00 	movl   $0x0,-0x2538(%rbp)
    927c:	00 00 00 
    927f:	eb 38                	jmp    92b9 <func_22+0x3cd>
    9281:	8b 85 c8 da ff ff    	mov    -0x2538(%rbp),%eax
    9287:	48 63 c8             	movslq %eax,%rcx
    928a:	8b 85 98 da ff ff    	mov    -0x2568(%rbp),%eax
    9290:	48 63 d0             	movslq %eax,%rdx
    9293:	48 89 d0             	mov    %rdx,%rax
    9296:	48 01 c0             	add    %rax,%rax
    9299:	48 01 d0             	add    %rdx,%rax
    929c:	48 01 c0             	add    %rax,%rax
    929f:	48 8d 14 08          	lea    (%rax,%rcx,1),%rdx
    92a3:	48 8d 85 f8 da ff ff 	lea    -0x2508(%rbp),%rax
    92aa:	48 89 84 d5 d0 df ff 	mov    %rax,-0x2030(%rbp,%rdx,8)
    92b1:	ff 
    92b2:	83 85 c8 da ff ff 01 	addl   $0x1,-0x2538(%rbp)
    92b9:	83 bd c8 da ff ff 05 	cmpl   $0x5,-0x2538(%rbp)
    92c0:	7e bf                	jle    9281 <func_22+0x395>
    92c2:	83 85 98 da ff ff 01 	addl   $0x1,-0x2568(%rbp)
    92c9:	83 bd 98 da ff ff 03 	cmpl   $0x3,-0x2568(%rbp)
    92d0:	7e a3                	jle    9275 <func_22+0x389>
    92d2:	c7 85 98 da ff ff 00 	movl   $0x0,-0x2568(%rbp)
    92d9:	00 00 00 
    92dc:	eb 19                	jmp    92f7 <func_22+0x40b>
    92de:	8b 85 98 da ff ff    	mov    -0x2568(%rbp),%eax
    92e4:	48 98                	cltq   
    92e6:	66 c7 84 45 48 de ff 	movw   $0x14b7,-0x21b8(%rbp,%rax,2)
    92ed:	ff b7 14 
    92f0:	83 85 98 da ff ff 01 	addl   $0x1,-0x2568(%rbp)
    92f7:	83 bd 98 da ff ff 00 	cmpl   $0x0,-0x2568(%rbp)
    92fe:	7e de                	jle    92de <func_22+0x3f2>
    9300:	c7 85 98 da ff ff 00 	movl   $0x0,-0x2568(%rbp)
    9307:	00 00 00 
    930a:	eb 1e                	jmp    932a <func_22+0x43e>
    930c:	8b 85 98 da ff ff    	mov    -0x2568(%rbp),%eax
    9312:	48 98                	cltq   
    9314:	48 8d 15 3d bd 00 00 	lea    0xbd3d(%rip),%rdx        # 15058 <g_1014>
    931b:	48 89 94 c5 b0 de ff 	mov    %rdx,-0x2150(%rbp,%rax,8)
    9322:	ff 
    9323:	83 85 98 da ff ff 01 	addl   $0x1,-0x2568(%rbp)
    932a:	83 bd 98 da ff ff 03 	cmpl   $0x3,-0x2568(%rbp)
    9331:	7e d9                	jle    930c <func_22+0x420>
    9333:	c7 85 98 da ff ff 00 	movl   $0x0,-0x2568(%rbp)
    933a:	00 00 00 
    933d:	eb 19                	jmp    9358 <func_22+0x46c>
    933f:	8b 85 98 da ff ff    	mov    -0x2568(%rbp),%eax
    9345:	48 98                	cltq   
    9347:	66 c7 84 45 4a de ff 	movw   $0xfffd,-0x21b6(%rbp,%rax,2)
    934e:	ff fd ff 
    9351:	83 85 98 da ff ff 01 	addl   $0x1,-0x2568(%rbp)
    9358:	83 bd 98 da ff ff 02 	cmpl   $0x2,-0x2568(%rbp)
    935f:	7e de                	jle    933f <func_22+0x453>
    9361:	90                   	nop
    9362:	f3 0f 1e fa          	endbr64 
    9366:	c6 05 b7 9c 00 00 00 	movb   $0x0,0x9cb7(%rip)        # 13024 <g_7>
    936d:	e9 1f 08 00 00       	jmpq   9b91 <func_22+0xca5>
    9372:	c6 85 78 db ff ff 07 	movb   $0x7,-0x2488(%rbp)
    9379:	c7 85 dc da ff ff 00 	movl   $0x0,-0x2524(%rbp)
    9380:	00 00 00 
    9383:	c7 85 e0 da ff ff 43 	movl   $0xdc577843,-0x2520(%rbp)
    938a:	78 57 dc 
    938d:	48 8d 05 4c c6 00 00 	lea    0xc64c(%rip),%rax        # 159e0 <g_616>
    9394:	48 89 85 f8 dd ff ff 	mov    %rax,-0x2208(%rbp)
    939b:	48 8d 05 ae 9c 00 00 	lea    0x9cae(%rip),%rax        # 13050 <g_122>
    93a2:	48 89 85 00 de ff ff 	mov    %rax,-0x2200(%rbp)
    93a9:	c7 85 c4 da ff ff 00 	movl   $0x0,-0x253c(%rbp)
    93b0:	00 00 00 
    93b3:	eb 21                	jmp    93d6 <func_22+0x4ea>
    93b5:	8b 85 c4 da ff ff    	mov    -0x253c(%rbp),%eax
    93bb:	48 98                	cltq   
    93bd:	48 bb ee 24 59 24 4f 	movabs $0x69ee284f245924ee,%rbx
    93c4:	28 ee 69 
    93c7:	48 89 9c c5 50 e6 ff 	mov    %rbx,-0x19b0(%rbp,%rax,8)
    93ce:	ff 
    93cf:	83 85 c4 da ff ff 01 	addl   $0x1,-0x253c(%rbp)
    93d6:	83 bd c4 da ff ff 09 	cmpl   $0x9,-0x253c(%rbp)
    93dd:	7e d6                	jle    93b5 <func_22+0x4c9>
    93df:	c6 05 6e 9c 00 00 00 	movb   $0x0,0x9c6e(%rip)        # 13054 <g_145>
    93e6:	e9 2f 01 00 00       	jmpq   951a <func_22+0x62e>
    93eb:	48 8d 05 76 9c 00 00 	lea    0x9c76(%rip),%rax        # 13068 <g_492>
    93f2:	48 89 85 80 db ff ff 	mov    %rax,-0x2480(%rbp)
    93f9:	48 8d 85 80 db ff ff 	lea    -0x2480(%rbp),%rax
    9400:	48 89 85 70 e1 ff ff 	mov    %rax,-0x1e90(%rbp)
    9407:	48 8d 85 80 db ff ff 	lea    -0x2480(%rbp),%rax
    940e:	48 89 85 78 e1 ff ff 	mov    %rax,-0x1e88(%rbp)
    9415:	48 8d 85 80 db ff ff 	lea    -0x2480(%rbp),%rax
    941c:	48 89 85 80 e1 ff ff 	mov    %rax,-0x1e80(%rbp)
    9423:	48 8d 85 80 db ff ff 	lea    -0x2480(%rbp),%rax
    942a:	48 89 85 88 e1 ff ff 	mov    %rax,-0x1e78(%rbp)
    9431:	48 8d 85 80 db ff ff 	lea    -0x2480(%rbp),%rax
    9438:	48 89 85 90 e1 ff ff 	mov    %rax,-0x1e70(%rbp)
    943f:	48 8d 85 80 db ff ff 	lea    -0x2480(%rbp),%rax
    9446:	48 89 85 98 e1 ff ff 	mov    %rax,-0x1e68(%rbp)
    944d:	48 8d 85 80 db ff ff 	lea    -0x2480(%rbp),%rax
    9454:	48 89 85 a0 e1 ff ff 	mov    %rax,-0x1e60(%rbp)
    945b:	48 c7 85 38 de ff ff 	movq   $0x0,-0x21c8(%rbp)
    9462:	00 00 00 00 
    9466:	48 8d 85 70 e1 ff ff 	lea    -0x1e90(%rbp),%rax
    946d:	48 83 c0 28          	add    $0x28,%rax
    9471:	48 89 85 40 de ff ff 	mov    %rax,-0x21c0(%rbp)
    9478:	48 8b 95 88 e1 ff ff 	mov    -0x1e78(%rbp),%rdx
    947f:	48 8b 85 40 de ff ff 	mov    -0x21c0(%rbp),%rax
    9486:	48 89 10             	mov    %rdx,(%rax)
    9489:	0f b6 05 94 9b 00 00 	movzbl 0x9b94(%rip),%eax        # 13024 <g_7>
    9490:	0f b6 c0             	movzbl %al,%eax
    9493:	8d 50 01             	lea    0x1(%rax),%edx
    9496:	0f b6 05 87 9b 00 00 	movzbl 0x9b87(%rip),%eax        # 13024 <g_7>
    949d:	0f b6 c0             	movzbl %al,%eax
    94a0:	8d 48 03             	lea    0x3(%rax),%ecx
    94a3:	0f b6 05 aa 9b 00 00 	movzbl 0x9baa(%rip),%eax        # 13054 <g_145>
    94aa:	0f be f8             	movsbl %al,%edi
    94ad:	0f b6 05 70 9b 00 00 	movzbl 0x9b70(%rip),%eax        # 13024 <g_7>
    94b4:	0f b6 c0             	movzbl %al,%eax
    94b7:	8d 70 02             	lea    0x2(%rax),%esi
    94ba:	48 63 c9             	movslq %ecx,%rcx
    94bd:	48 63 d2             	movslq %edx,%rdx
    94c0:	48 89 d0             	mov    %rdx,%rax
    94c3:	48 01 c0             	add    %rax,%rax
    94c6:	48 01 d0             	add    %rdx,%rax
    94c9:	48 01 c0             	add    %rax,%rax
    94cc:	48 01 c8             	add    %rcx,%rax
    94cf:	48 8d 14 c5 00 00 00 	lea    0x0(,%rax,8),%rdx
    94d6:	00 
    94d7:	48 8d 05 82 b9 00 00 	lea    0xb982(%rip),%rax        # 14e60 <g_84>
    94de:	48 8b 0c 02          	mov    (%rdx,%rax,1),%rcx
    94e2:	48 63 f6             	movslq %esi,%rsi
    94e5:	48 63 d7             	movslq %edi,%rdx
    94e8:	48 89 d0             	mov    %rdx,%rax
    94eb:	48 01 c0             	add    %rax,%rax
    94ee:	48 01 d0             	add    %rdx,%rax
    94f1:	48 01 c0             	add    %rax,%rax
    94f4:	48 01 f0             	add    %rsi,%rax
    94f7:	48 8d 14 c5 00 00 00 	lea    0x0(,%rax,8),%rdx
    94fe:	00 
    94ff:	48 8d 05 5a b9 00 00 	lea    0xb95a(%rip),%rax        # 14e60 <g_84>
    9506:	48 89 0c 02          	mov    %rcx,(%rdx,%rax,1)
    950a:	0f b6 05 43 9b 00 00 	movzbl 0x9b43(%rip),%eax        # 13054 <g_145>
    9511:	83 c0 01             	add    $0x1,%eax
    9514:	88 05 3a 9b 00 00    	mov    %al,0x9b3a(%rip)        # 13054 <g_145>
    951a:	0f b6 05 33 9b 00 00 	movzbl 0x9b33(%rip),%eax        # 13054 <g_145>
    9521:	3c 02                	cmp    $0x2,%al
    9523:	0f 8e c2 fe ff ff    	jle    93eb <func_22+0x4ff>
    9529:	c7 05 2d 9b 00 00 02 	movl   $0x2,0x9b2d(%rip)        # 13060 <g_423>
    9530:	00 00 00 
    9533:	e9 2d 06 00 00       	jmpq   9b65 <func_22+0xc79>
    9538:	48 8d 05 29 9b 00 00 	lea    0x9b29(%rip),%rax        # 13068 <g_492>
    953f:	48 89 85 08 de ff ff 	mov    %rax,-0x21f8(%rbp)
    9546:	48 8d 85 f0 da ff ff 	lea    -0x2510(%rbp),%rax
    954d:	48 89 85 10 de ff ff 	mov    %rax,-0x21f0(%rbp)
    9554:	48 8d 05 f9 9a 00 00 	lea    0x9af9(%rip),%rax        # 13054 <g_145>
    955b:	48 89 85 70 e1 ff ff 	mov    %rax,-0x1e90(%rbp)
    9562:	48 8d 05 eb 9a 00 00 	lea    0x9aeb(%rip),%rax        # 13054 <g_145>
    9569:	48 89 85 78 e1 ff ff 	mov    %rax,-0x1e88(%rbp)
    9570:	48 8d 05 dd 9a 00 00 	lea    0x9add(%rip),%rax        # 13054 <g_145>
    9577:	48 89 85 80 e1 ff ff 	mov    %rax,-0x1e80(%rbp)
    957e:	48 8d 05 cf 9a 00 00 	lea    0x9acf(%rip),%rax        # 13054 <g_145>
    9585:	48 89 85 88 e1 ff ff 	mov    %rax,-0x1e78(%rbp)
    958c:	48 8d 05 c1 9a 00 00 	lea    0x9ac1(%rip),%rax        # 13054 <g_145>
    9593:	48 89 85 90 e1 ff ff 	mov    %rax,-0x1e70(%rbp)
    959a:	48 8d 05 b3 9a 00 00 	lea    0x9ab3(%rip),%rax        # 13054 <g_145>
    95a1:	48 89 85 98 e1 ff ff 	mov    %rax,-0x1e68(%rbp)
    95a8:	48 8d 05 a5 9a 00 00 	lea    0x9aa5(%rip),%rax        # 13054 <g_145>
    95af:	48 89 85 a0 e1 ff ff 	mov    %rax,-0x1e60(%rbp)
    95b6:	48 c7 85 18 de ff ff 	movq   $0x0,-0x21e8(%rbp)
    95bd:	00 00 00 00 
    95c1:	48 c7 45 c0 ff ff ff 	movq   $0xffffffffffffffff,-0x40(%rbp)
    95c8:	ff 
    95c9:	48 8b 05 e8 b9 00 00 	mov    0xb9e8(%rip),%rax        # 14fb8 <g_177>
    95d0:	48 8b 00             	mov    (%rax),%rax
    95d3:	48 8b 00             	mov    (%rax),%rax
    95d6:	c7 00 01 00 00 00    	movl   $0x1,(%rax)
    95dc:	48 8b 05 85 9a 00 00 	mov    0x9a85(%rip),%rax        # 13068 <g_492>
    95e3:	41 89 c7             	mov    %eax,%r15d
    95e6:	48 8b 85 00 db ff ff 	mov    -0x2500(%rbp),%rax
    95ed:	89 85 88 d9 ff ff    	mov    %eax,-0x2678(%rbp)
    95f3:	0f b7 85 94 d9 ff ff 	movzwl -0x266c(%rbp),%eax
    95fa:	0f be d8             	movsbl %al,%ebx
    95fd:	48 8b 85 f8 da ff ff 	mov    -0x2508(%rbp),%rax
    9604:	89 85 dc da ff ff    	mov    %eax,-0x2524(%rbp)
    960a:	48 8b 05 9f b9 00 00 	mov    0xb99f(%rip),%rax        # 14fb0 <g_178>
    9611:	48 8b 00             	mov    (%rax),%rax
    9614:	8b 95 dc da ff ff    	mov    -0x2524(%rbp),%edx
    961a:	89 10                	mov    %edx,(%rax)
    961c:	8b 00                	mov    (%rax),%eax
    961e:	88 85 93 d9 ff ff    	mov    %al,-0x266d(%rbp)
    9624:	44 0f bf a5 94 d9 ff 	movswl -0x266c(%rbp),%r12d
    962b:	ff 
    962c:	48 8b 85 00 db ff ff 	mov    -0x2500(%rbp),%rax
    9633:	44 0f b6 e8          	movzbl %al,%r13d
    9637:	0f b6 05 f2 99 00 00 	movzbl 0x99f2(%rip),%eax        # 13030 <g_37>
    963e:	44 0f b6 f0          	movzbl %al,%r14d
    9642:	8b 85 e0 da ff ff    	mov    -0x2520(%rbp),%eax
    9648:	0f be c0             	movsbl %al,%eax
    964b:	89 c6                	mov    %eax,%esi
    964d:	bf 00 00 00 00       	mov    $0x0,%edi
    9652:	e8 bb cb ff ff       	callq  6212 <safe_mul_func_int8_t_s_s>
    9657:	48 0f be c0          	movsbq %al,%rax
    965b:	4c 89 f6             	mov    %r14,%rsi
    965e:	48 89 c7             	mov    %rax,%rdi
    9661:	e8 42 d2 ff ff       	callq  68a8 <safe_sub_func_int64_t_s_s>
    9666:	0f b6 c0             	movzbl %al,%eax
    9669:	44 89 ee             	mov    %r13d,%esi
    966c:	89 c7                	mov    %eax,%edi
    966e:	e8 20 d5 ff ff       	callq  6b93 <safe_mul_func_uint8_t_u_u>
    9673:	0f b6 15 b6 99 00 00 	movzbl 0x99b6(%rip),%edx        # 13030 <g_37>
    967a:	38 d0                	cmp    %dl,%al
    967c:	0f 96 c0             	setbe  %al
    967f:	0f b6 d0             	movzbl %al,%edx
    9682:	0f bf 85 9c d9 ff ff 	movswl -0x2664(%rbp),%eax
    9689:	21 d0                	and    %edx,%eax
    968b:	85 c0                	test   %eax,%eax
    968d:	75 09                	jne    9698 <func_22+0x7ac>
    968f:	83 bd e0 da ff ff 00 	cmpl   $0x0,-0x2520(%rbp)
    9696:	74 07                	je     969f <func_22+0x7b3>
    9698:	b8 01 00 00 00       	mov    $0x1,%eax
    969d:	eb 05                	jmp    96a4 <func_22+0x7b8>
    969f:	b8 00 00 00 00       	mov    $0x0,%eax
    96a4:	88 05 aa 99 00 00    	mov    %al,0x99aa(%rip)        # 13054 <g_145>
    96aa:	0f b6 05 a3 99 00 00 	movzbl 0x99a3(%rip),%eax        # 13054 <g_145>
    96b1:	0f be c0             	movsbl %al,%eax
    96b4:	39 85 e0 da ff ff    	cmp    %eax,-0x2520(%rbp)
    96ba:	0f 9e c0             	setle  %al
    96bd:	0f b6 d0             	movzbl %al,%edx
    96c0:	0f bf 85 94 d9 ff ff 	movswl -0x266c(%rbp),%eax
    96c7:	39 c2                	cmp    %eax,%edx
    96c9:	0f 94 c0             	sete   %al
    96cc:	0f b6 c0             	movzbl %al,%eax
    96cf:	44 89 e6             	mov    %r12d,%esi
    96d2:	89 c7                	mov    %eax,%edi
    96d4:	e8 7c cd ff ff       	callq  6455 <safe_div_func_int16_t_s_s>
    96d9:	0f bf d0             	movswl %ax,%edx
    96dc:	8b 85 d0 d9 ff ff    	mov    -0x2630(%rbp),%eax
    96e2:	21 d0                	and    %edx,%eax
    96e4:	89 85 d0 d9 ff ff    	mov    %eax,-0x2630(%rbp)
    96ea:	0f bf 85 94 d9 ff ff 	movswl -0x266c(%rbp),%eax
    96f1:	83 e0 01             	and    $0x1,%eax
    96f4:	89 c2                	mov    %eax,%edx
    96f6:	8b 05 80 99 00 00    	mov    0x9980(%rip),%eax        # 1307c <g_498+0xc>
    96fc:	39 c2                	cmp    %eax,%edx
    96fe:	0f 94 c0             	sete   %al
    9701:	44 0f b6 e0          	movzbl %al,%r12d
    9705:	48 8b 05 5c 99 00 00 	mov    0x995c(%rip),%rax        # 13068 <g_492>
    970c:	0f b6 c0             	movzbl %al,%eax
    970f:	c7 85 cc d9 ff ff bc 	movl   $0xbc,-0x2634(%rbp)
    9716:	00 00 00 
    9719:	89 c6                	mov    %eax,%esi
    971b:	bf bc 00 00 00       	mov    $0xbc,%edi
    9720:	e8 53 d4 ff ff       	callq  6b78 <safe_sub_func_uint8_t_u_u>
    9725:	0f b6 c0             	movzbl %al,%eax
    9728:	be 0a 00 00 00       	mov    $0xa,%esi
    972d:	89 c7                	mov    %eax,%edi
    972f:	e8 14 d7 ff ff       	callq  6e48 <safe_rshift_func_uint16_t_u_s>
    9734:	0f b7 c0             	movzwl %ax,%eax
    9737:	44 89 e6             	mov    %r12d,%esi
    973a:	89 c7                	mov    %eax,%edi
    973c:	e8 7d d6 ff ff       	callq  6dbe <safe_lshift_func_uint16_t_u_s>
    9741:	0f b7 d0             	movzwl %ax,%edx
    9744:	48 8b 05 1d 99 00 00 	mov    0x991d(%rip),%rax        # 13068 <g_492>
    974b:	48 39 c2             	cmp    %rax,%rdx
    974e:	74 07                	je     9757 <func_22+0x86b>
    9750:	b8 01 00 00 00       	mov    $0x1,%eax
    9755:	eb 05                	jmp    975c <func_22+0x870>
    9757:	b8 00 00 00 00       	mov    $0x0,%eax
    975c:	0a 85 93 d9 ff ff    	or     -0x266d(%rbp),%al
    9762:	0f be c0             	movsbl %al,%eax
    9765:	89 de                	mov    %ebx,%esi
    9767:	89 c7                	mov    %eax,%edi
    9769:	e8 a4 ca ff ff       	callq  6212 <safe_mul_func_int8_t_s_s>
    976e:	0f bf 85 94 d9 ff ff 	movswl -0x266c(%rbp),%eax
    9775:	8b b5 88 d9 ff ff    	mov    -0x2678(%rbp),%esi
    977b:	89 c7                	mov    %eax,%edi
    977d:	e8 7d cf ff ff       	callq  66ff <safe_div_func_int32_t_s_s>
    9782:	83 e0 c8             	and    $0xffffffc8,%eax
    9785:	83 c8 32             	or     $0x32,%eax
    9788:	88 05 f4 98 00 00    	mov    %al,0x98f4(%rip)        # 13082 <g_683>
    978e:	48 8b 05 6b b8 00 00 	mov    0xb86b(%rip),%rax        # 15000 <g_226>
    9795:	48 8b 00             	mov    (%rax),%rax
    9798:	0f b6 00             	movzbl (%rax),%eax
    979b:	89 c2                	mov    %eax,%edx
    979d:	0f b7 05 dc 98 00 00 	movzwl 0x98dc(%rip),%eax        # 13080 <g_620>
    97a4:	09 d0                	or     %edx,%eax
    97a6:	0f be c0             	movsbl %al,%eax
    97a9:	be 01 00 00 00       	mov    $0x1,%esi
    97ae:	89 c7                	mov    %eax,%edi
    97b0:	e8 39 cb ff ff       	callq  62ee <safe_lshift_func_int8_t_s_u>
    97b5:	0f be d0             	movsbl %al,%edx
    97b8:	8b 85 c8 d9 ff ff    	mov    -0x2638(%rbp),%eax
    97be:	0f b7 c0             	movzwl %ax,%eax
    97c1:	89 d6                	mov    %edx,%esi
    97c3:	89 c7                	mov    %eax,%edi
    97c5:	e8 3c d6 ff ff       	callq  6e06 <safe_lshift_func_uint16_t_u_u>
    97ca:	44 89 fe             	mov    %r15d,%esi
    97cd:	bf f8 ff ff ff       	mov    $0xfffffff8,%edi
    97d2:	e8 0a cd ff ff       	callq  64e1 <safe_lshift_func_int16_t_s_u>
    97d7:	48 0f bf d0          	movswq %ax,%rdx
    97db:	48 8b 85 00 db ff ff 	mov    -0x2500(%rbp),%rax
    97e2:	48 39 c2             	cmp    %rax,%rdx
    97e5:	0f 9d c0             	setge  %al
    97e8:	0f b6 d0             	movzbl %al,%edx
    97eb:	8b 85 c8 d9 ff ff    	mov    -0x2638(%rbp),%eax
    97f1:	39 c2                	cmp    %eax,%edx
    97f3:	0f 9f c0             	setg   %al
    97f6:	0f b6 d0             	movzbl %al,%edx
    97f9:	8b 85 c8 d9 ff ff    	mov    -0x2638(%rbp),%eax
    97ff:	88 85 78 db ff ff    	mov    %al,-0x2488(%rbp)
    9805:	0f b6 85 78 db ff ff 	movzbl -0x2488(%rbp),%eax
    980c:	0f be c0             	movsbl %al,%eax
    980f:	89 d6                	mov    %edx,%esi
    9811:	89 c7                	mov    %eax,%edi
    9813:	e8 1d cb ff ff       	callq  6335 <safe_rshift_func_int8_t_s_s>
    9818:	89 c2                	mov    %eax,%edx
    981a:	48 8b 05 57 b7 00 00 	mov    0xb757(%rip),%rax        # 14f78 <g_124>
    9821:	0f be d2             	movsbl %dl,%edx
    9824:	89 10                	mov    %edx,(%rax)
    9826:	8b 00                	mov    (%rax),%eax
    9828:	85 c0                	test   %eax,%eax
    982a:	0f 84 b7 02 00 00    	je     9ae7 <func_22+0xbfb>
    9830:	48 8d 85 f8 da ff ff 	lea    -0x2508(%rbp),%rax
    9837:	48 89 85 20 de ff ff 	mov    %rax,-0x21e0(%rbp)
    983e:	c7 85 e8 da ff ff 60 	movl   $0xffcb4760,-0x2518(%rbp)
    9845:	47 cb ff 
    9848:	48 c7 85 28 de ff ff 	movq   $0x0,-0x21d8(%rbp)
    984f:	00 00 00 00 
    9853:	48 8d 05 ea 97 00 00 	lea    0x97ea(%rip),%rax        # 13044 <g_104>
    985a:	48 89 85 30 de ff ff 	mov    %rax,-0x21d0(%rbp)
    9861:	48 8b 05 a0 b7 00 00 	mov    0xb7a0(%rip),%rax        # 15008 <g_631>
    9868:	8b 00                	mov    (%rax),%eax
    986a:	85 c0                	test   %eax,%eax
    986c:	0f 85 03 03 00 00    	jne    9b75 <func_22+0xc89>
    9872:	8b 05 04 98 00 00    	mov    0x9804(%rip),%eax        # 1307c <g_498+0xc>
    9878:	48 63 d8             	movslq %eax,%rbx
    987b:	be 0d 00 00 00       	mov    $0xd,%esi
    9880:	bf 09 00 00 00       	mov    $0x9,%edi
    9885:	e8 57 cc ff ff       	callq  64e1 <safe_lshift_func_int16_t_s_u>
    988a:	66 85 c0             	test   %ax,%ax
    988d:	74 08                	je     9897 <func_22+0x9ab>
    988f:	48 83 bd f8 dd ff ff 	cmpq   $0x0,-0x2208(%rbp)
    9896:	00 
    9897:	0f b7 05 e2 97 00 00 	movzwl 0x97e2(%rip),%eax        # 13080 <g_620>
    989e:	48 0f bf c0          	movswq %ax,%rax
    98a2:	48 89 de             	mov    %rbx,%rsi
    98a5:	48 89 c7             	mov    %rax,%rdi
    98a8:	e8 81 d7 ff ff       	callq  702e <safe_add_func_uint64_t_u_u>
    98ad:	48 85 c0             	test   %rax,%rax
    98b0:	74 7a                	je     992c <func_22+0xa40>
    98b2:	8b 05 a0 97 00 00    	mov    0x97a0(%rip),%eax        # 13058 <g_257>
    98b8:	0f b7 d8             	movzwl %ax,%ebx
    98bb:	4c 0f bf a5 94 d9 ff 	movswq -0x266c(%rbp),%r12
    98c2:	ff 
    98c3:	0f b7 85 98 d9 ff ff 	movzwl -0x2668(%rbp),%eax
    98ca:	0f b7 d0             	movzwl %ax,%edx
    98cd:	48 8b 05 0c c1 00 00 	mov    0xc10c(%rip),%rax        # 159e0 <g_616>
    98d4:	48 39 c2             	cmp    %rax,%rdx
    98d7:	0f 9c c0             	setl   %al
    98da:	0f b6 d0             	movzbl %al,%edx
    98dd:	48 8b 85 f8 dd ff ff 	mov    -0x2208(%rbp),%rax
    98e4:	48 89 10             	mov    %rdx,(%rax)
    98e7:	48 8b 85 f8 dd ff ff 	mov    -0x2208(%rbp),%rax
    98ee:	48 8b 00             	mov    (%rax),%rax
    98f1:	48 c7 c6 ff ff ff ff 	mov    $0xffffffffffffffff,%rsi
    98f8:	48 89 c7             	mov    %rax,%rdi
    98fb:	e8 b4 d0 ff ff       	callq  69b4 <safe_mod_func_int64_t_s_s>
    9900:	4c 89 e2             	mov    %r12,%rdx
    9903:	48 21 c2             	and    %rax,%rdx
    9906:	48 0f bf 85 94 d9 ff 	movswq -0x266c(%rbp),%rax
    990d:	ff 
    990e:	48 39 c2             	cmp    %rax,%rdx
    9911:	0f 9e c0             	setle  %al
    9914:	0f b6 c0             	movzbl %al,%eax
    9917:	89 de                	mov    %ebx,%esi
    9919:	89 c7                	mov    %eax,%edi
    991b:	e8 6e d4 ff ff       	callq  6d8e <safe_div_func_uint16_t_u_u>
    9920:	66 85 c0             	test   %ax,%ax
    9923:	74 07                	je     992c <func_22+0xa40>
    9925:	b8 01 00 00 00       	mov    $0x1,%eax
    992a:	eb 05                	jmp    9931 <func_22+0xa45>
    992c:	b8 00 00 00 00       	mov    $0x0,%eax
    9931:	0f b7 c0             	movzwl %ax,%eax
    9934:	be f9 48 00 00       	mov    $0x48f9,%esi
    9939:	89 c7                	mov    %eax,%edi
    993b:	e8 bf d3 ff ff       	callq  6cff <safe_add_func_uint16_t_u_u>
    9940:	48 8b 85 20 de ff ff 	mov    -0x21e0(%rbp),%rax
    9947:	48 c7 00 01 00 00 00 	movq   $0x1,(%rax)
    994e:	66 83 bd 94 d9 ff ff 	cmpw   $0x0,-0x266c(%rbp)
    9955:	00 
    9956:	74 07                	je     995f <func_22+0xa73>
    9958:	b9 01 00 00 00       	mov    $0x1,%ecx
    995d:	eb 05                	jmp    9964 <func_22+0xa78>
    995f:	b9 00 00 00 00       	mov    $0x0,%ecx
    9964:	48 8b 05 1d b6 00 00 	mov    0xb61d(%rip),%rax        # 14f88 <g_155>
    996b:	8b 10                	mov    (%rax),%edx
    996d:	48 8b 05 14 b6 00 00 	mov    0xb614(%rip),%rax        # 14f88 <g_155>
    9974:	09 ca                	or     %ecx,%edx
    9976:	89 10                	mov    %edx,(%rax)
    9978:	48 8b 85 30 de ff ff 	mov    -0x21d0(%rbp),%rax
    997f:	0f b7 00             	movzwl (%rax),%eax
    9982:	83 e0 01             	and    $0x1,%eax
    9985:	89 c2                	mov    %eax,%edx
    9987:	48 8b 85 30 de ff ff 	mov    -0x21d0(%rbp),%rax
    998e:	66 89 10             	mov    %dx,(%rax)
    9991:	48 8b 85 30 de ff ff 	mov    -0x21d0(%rbp),%rax
    9998:	0f b7 00             	movzwl (%rax),%eax
    999b:	48 0f bf d0          	movswq %ax,%rdx
    999f:	48 8b 05 92 96 00 00 	mov    0x9692(%rip),%rax        # 13038 <g_80>
    99a6:	48 39 c2             	cmp    %rax,%rdx
    99a9:	0f 94 c0             	sete   %al
    99ac:	0f b6 c0             	movzbl %al,%eax
    99af:	48 be 5b d2 2f 60 64 	movabs $0xf42e2c64602fd25b,%rsi
    99b6:	2c 2e f4 
    99b9:	48 89 c7             	mov    %rax,%rdi
    99bc:	e8 e7 ce ff ff       	callq  68a8 <safe_sub_func_int64_t_s_s>
    99c1:	48 85 c0             	test   %rax,%rax
    99c4:	83 bd dc da ff ff 01 	cmpl   $0x1,-0x2524(%rbp)
    99cb:	0f 95 c0             	setne  %al
    99ce:	0f b6 d0             	movzbl %al,%edx
    99d1:	0f bf 85 94 d9 ff ff 	movswl -0x266c(%rbp),%eax
    99d8:	39 c2                	cmp    %eax,%edx
    99da:	0f 95 c0             	setne  %al
    99dd:	0f b6 d0             	movzbl %al,%edx
    99e0:	0f bf 85 94 d9 ff ff 	movswl -0x266c(%rbp),%eax
    99e7:	89 d6                	mov    %edx,%esi
    99e9:	89 c7                	mov    %eax,%edi
    99eb:	e8 73 cb ff ff       	callq  6563 <safe_rshift_func_int16_t_s_u>
    99f0:	0f be c0             	movsbl %al,%eax
    99f3:	be ff ff ff ff       	mov    $0xffffffff,%esi
    99f8:	89 c7                	mov    %eax,%edi
    99fa:	e8 32 c8 ff ff       	callq  6231 <safe_mod_func_int8_t_s_s>
    99ff:	b9 00 00 00 00       	mov    $0x0,%ecx
    9a04:	48 8b 05 7d b5 00 00 	mov    0xb57d(%rip),%rax        # 14f88 <g_155>
    9a0b:	8b 10                	mov    (%rax),%edx
    9a0d:	48 8b 05 74 b5 00 00 	mov    0xb574(%rip),%rax        # 14f88 <g_155>
    9a14:	31 ca                	xor    %ecx,%edx
    9a16:	89 10                	mov    %edx,(%rax)
    9a18:	48 c7 85 f8 da ff ff 	movq   $0x0,-0x2508(%rbp)
    9a1f:	00 00 00 00 
    9a23:	e9 ac 00 00 00       	jmpq   9ad4 <func_22+0xbe8>
    9a28:	c7 85 ec da ff ff 03 	movl   $0x3,-0x2514(%rbp)
    9a2f:	00 00 00 
    9a32:	8b 85 d0 d9 ff ff    	mov    -0x2630(%rbp),%eax
    9a38:	85 c0                	test   %eax,%eax
    9a3a:	0f 85 15 01 00 00    	jne    9b55 <func_22+0xc69>
    9a40:	83 85 ec da ff ff 01 	addl   $0x1,-0x2514(%rbp)
    9a47:	48 8b 85 60 e6 ff ff 	mov    -0x19a0(%rbp),%rax
    9a4e:	48 83 f0 01          	xor    $0x1,%rax
    9a52:	48 89 85 60 e6 ff ff 	mov    %rax,-0x19a0(%rbp)
    9a59:	c7 85 cc d9 ff ff fa 	movl   $0xfffffffa,-0x2634(%rbp)
    9a60:	ff ff ff 
    9a63:	eb 48                	jmp    9aad <func_22+0xbc1>
    9a65:	0f b6 05 b8 95 00 00 	movzbl 0x95b8(%rip),%eax        # 13024 <g_7>
    9a6c:	0f b6 d0             	movzbl %al,%edx
    9a6f:	48 8b 05 aa b4 00 00 	mov    0xb4aa(%rip),%rax        # 14f20 <g_83>
    9a76:	48 63 d2             	movslq %edx,%rdx
    9a79:	48 8d 0c d5 00 00 00 	lea    0x0(,%rdx,8),%rcx
    9a80:	00 
    9a81:	48 8d 15 08 b5 00 00 	lea    0xb508(%rip),%rdx        # 14f90 <g_157>
    9a88:	48 8b 14 11          	mov    (%rcx,%rdx,1),%rdx
    9a8c:	48 89 10             	mov    %rdx,(%rax)
    9a8f:	8b 85 cc d9 ff ff    	mov    -0x2634(%rbp),%eax
    9a95:	0f b7 c0             	movzwl %ax,%eax
    9a98:	be 01 00 00 00       	mov    $0x1,%esi
    9a9d:	89 c7                	mov    %eax,%edi
    9a9f:	e8 7b d2 ff ff       	callq  6d1f <safe_sub_func_uint16_t_u_u>
    9aa4:	0f b7 c0             	movzwl %ax,%eax
    9aa7:	89 85 cc d9 ff ff    	mov    %eax,-0x2634(%rbp)
    9aad:	8b 85 cc d9 ff ff    	mov    -0x2634(%rbp),%eax
    9ab3:	83 f8 e4             	cmp    $0xffffffe4,%eax
    9ab6:	7d ad                	jge    9a65 <func_22+0xb79>
    9ab8:	48 8b 85 f8 da ff ff 	mov    -0x2508(%rbp),%rax
    9abf:	be 05 00 00 00       	mov    $0x5,%esi
    9ac4:	89 c7                	mov    %eax,%edi
    9ac6:	e8 ed d3 ff ff       	callq  6eb8 <safe_add_func_uint32_t_u_u>
    9acb:	89 c0                	mov    %eax,%eax
    9acd:	48 89 85 f8 da ff ff 	mov    %rax,-0x2508(%rbp)
    9ad4:	48 8b 85 f8 da ff ff 	mov    -0x2508(%rbp),%rax
    9adb:	48 83 f8 08          	cmp    $0x8,%rax
    9adf:	0f 8e 43 ff ff ff    	jle    9a28 <func_22+0xb3c>
    9ae5:	eb 6f                	jmp    9b56 <func_22+0xc6a>
    9ae7:	c7 85 b4 da ff ff ff 	movl   $0xffffffff,-0x254c(%rbp)
    9aee:	ff ff ff 
    9af1:	c6 05 8a 95 00 00 00 	movb   $0x0,0x958a(%rip)        # 13082 <g_683>
    9af8:	eb 4e                	jmp    9b48 <func_22+0xc5c>
    9afa:	c7 05 3c 95 00 00 1d 	movl   $0x1d,0x953c(%rip)        # 13040 <g_85>
    9b01:	00 00 00 
    9b04:	90                   	nop
    9b05:	8b 05 35 95 00 00    	mov    0x9535(%rip),%eax        # 13040 <g_85>
    9b0b:	83 f8 0b             	cmp    $0xb,%eax
    9b0e:	7e 15                	jle    9b25 <func_22+0xc39>
    9b10:	c7 85 e4 da ff ff a8 	movl   $0xd0a77a8,-0x251c(%rbp)
    9b17:	77 0a 0d 
    9b1a:	8b 85 e4 da ff ff    	mov    -0x251c(%rbp),%eax
    9b20:	e9 43 27 00 00       	jmpq   c268 <func_22+0x337c>
    9b25:	83 85 b4 da ff ff 01 	addl   $0x1,-0x254c(%rbp)
    9b2c:	0f b6 05 4f 95 00 00 	movzbl 0x954f(%rip),%eax        # 13082 <g_683>
    9b33:	0f be c0             	movsbl %al,%eax
    9b36:	be 02 00 00 00       	mov    $0x2,%esi
    9b3b:	89 c7                	mov    %eax,%edi
    9b3d:	e8 91 c8 ff ff       	callq  63d3 <safe_sub_func_int16_t_s_s>
    9b42:	88 05 3a 95 00 00    	mov    %al,0x953a(%rip)        # 13082 <g_683>
    9b48:	0f b6 05 33 95 00 00 	movzbl 0x9533(%rip),%eax        # 13082 <g_683>
    9b4f:	3c f4                	cmp    $0xf4,%al
    9b51:	75 a7                	jne    9afa <func_22+0xc0e>
    9b53:	eb 01                	jmp    9b56 <func_22+0xc6a>
    9b55:	90                   	nop
    9b56:	8b 05 04 95 00 00    	mov    0x9504(%rip),%eax        # 13060 <g_423>
    9b5c:	83 e8 01             	sub    $0x1,%eax
    9b5f:	89 05 fb 94 00 00    	mov    %eax,0x94fb(%rip)        # 13060 <g_423>
    9b65:	8b 05 f5 94 00 00    	mov    0x94f5(%rip),%eax        # 13060 <g_423>
    9b6b:	85 c0                	test   %eax,%eax
    9b6d:	0f 89 c5 f9 ff ff    	jns    9538 <func_22+0x64c>
    9b73:	eb 01                	jmp    9b76 <func_22+0xc8a>
    9b75:	90                   	nop
    9b76:	48 c7 85 00 de ff ff 	movq   $0x0,-0x2200(%rbp)
    9b7d:	00 00 00 00 
    9b81:	0f b6 05 9c 94 00 00 	movzbl 0x949c(%rip),%eax        # 13024 <g_7>
    9b88:	83 c0 01             	add    $0x1,%eax
    9b8b:	88 05 93 94 00 00    	mov    %al,0x9493(%rip)        # 13024 <g_7>
    9b91:	0f b6 05 8c 94 00 00 	movzbl 0x948c(%rip),%eax        # 13024 <g_7>
    9b98:	3c 02                	cmp    $0x2,%al
    9b9a:	0f 86 d2 f7 ff ff    	jbe    9372 <func_22+0x486>
    9ba0:	48 8b 85 68 dd ff ff 	mov    -0x2298(%rbp),%rax
    9ba7:	48 8d 15 aa 94 00 00 	lea    0x94aa(%rip),%rdx        # 13058 <g_257>
    9bae:	48 89 10             	mov    %rdx,(%rax)
    9bb1:	66 c7 85 c0 d9 ff ff 	movw   $0xffff,-0x2640(%rbp)
    9bb8:	ff ff 
    9bba:	c7 85 ec d9 ff ff c4 	movl   $0xf2b17dc4,-0x2614(%rbp)
    9bc1:	7d b1 f2 
    9bc4:	48 8d 85 48 de ff ff 	lea    -0x21b8(%rbp),%rax
    9bcb:	48 89 85 50 db ff ff 	mov    %rax,-0x24b0(%rbp)
    9bd2:	48 8d 85 50 db ff ff 	lea    -0x24b0(%rbp),%rax
    9bd9:	48 89 85 58 db ff ff 	mov    %rax,-0x24a8(%rbp)
    9be0:	c7 85 24 da ff ff 2e 	movl   $0x6c5c562e,-0x25dc(%rbp)
    9be7:	56 5c 6c 
    9bea:	48 b8 4d 9b 39 3a 48 	movabs $0xd8b7fe483a399b4d,%rax
    9bf1:	fe b7 d8 
    9bf4:	48 89 85 18 dd ff ff 	mov    %rax,-0x22e8(%rbp)
    9bfb:	48 c7 85 98 db ff ff 	movq   $0x0,-0x2468(%rbp)
    9c02:	00 00 00 00 
    9c06:	48 c7 85 d8 db ff ff 	movq   $0x0,-0x2428(%rbp)
    9c0d:	00 00 00 00 
    9c11:	c7 85 f0 d9 ff ff ff 	movl   $0xffffffff,-0x2610(%rbp)
    9c18:	ff ff ff 
    9c1b:	c7 85 f4 d9 ff ff f6 	movl   $0xfffffff6,-0x260c(%rbp)
    9c22:	ff ff ff 
    9c25:	c7 85 9c da ff ff 02 	movl   $0x2,-0x2564(%rbp)
    9c2c:	00 00 00 
    9c2f:	c7 85 a0 da ff ff d1 	movl   $0x44236d1,-0x2560(%rbp)
    9c36:	36 42 04 
    9c39:	c7 85 70 df ff ff 00 	movl   $0x0,-0x2090(%rbp)
    9c40:	00 00 00 
    9c43:	c7 85 74 df ff ff fc 	movl   $0xa64a3fc,-0x208c(%rbp)
    9c4a:	a3 64 0a 
    9c4d:	c7 85 78 df ff ff 00 	movl   $0x0,-0x2088(%rbp)
    9c54:	00 00 00 
    9c57:	c7 85 7c df ff ff 05 	movl   $0x5,-0x2084(%rbp)
    9c5e:	00 00 00 
    9c61:	c7 85 80 df ff ff fc 	movl   $0xa64a3fc,-0x2080(%rbp)
    9c68:	a3 64 0a 
    9c6b:	c7 85 84 df ff ff ad 	movl   $0x8263e2ad,-0x207c(%rbp)
    9c72:	e2 63 82 
    9c75:	c7 85 88 df ff ff ad 	movl   $0x8263e2ad,-0x2078(%rbp)
    9c7c:	e2 63 82 
    9c7f:	c7 85 8c df ff ff fc 	movl   $0xa64a3fc,-0x2074(%rbp)
    9c86:	a3 64 0a 
    9c89:	c7 85 90 df ff ff ff 	movl   $0xffffffff,-0x2070(%rbp)
    9c90:	ff ff ff 
    9c93:	c7 85 94 df ff ff bd 	movl   $0xa1f9aabd,-0x206c(%rbp)
    9c9a:	aa f9 a1 
    9c9d:	c7 85 98 df ff ff ff 	movl   $0xffffffff,-0x2068(%rbp)
    9ca4:	ff ff ff 
    9ca7:	c7 85 9c df ff ff fc 	movl   $0xa64a3fc,-0x2064(%rbp)
    9cae:	a3 64 0a 
    9cb1:	c7 85 a0 df ff ff bd 	movl   $0xa1f9aabd,-0x2060(%rbp)
    9cb8:	aa f9 a1 
    9cbb:	c7 85 a4 df ff ff f9 	movl   $0xfffffff9,-0x205c(%rbp)
    9cc2:	ff ff ff 
    9cc5:	c7 85 a8 df ff ff f9 	movl   $0xfffffff9,-0x2058(%rbp)
    9ccc:	ff ff ff 
    9ccf:	c7 85 ac df ff ff ad 	movl   $0x8263e2ad,-0x2054(%rbp)
    9cd6:	e2 63 82 
    9cd9:	c7 85 b0 df ff ff 05 	movl   $0x5,-0x2050(%rbp)
    9ce0:	00 00 00 
    9ce3:	c7 85 b4 df ff ff f9 	movl   $0xfffffff9,-0x204c(%rbp)
    9cea:	ff ff ff 
    9ced:	c7 85 b8 df ff ff 05 	movl   $0x5,-0x2048(%rbp)
    9cf4:	00 00 00 
    9cf7:	c7 85 bc df ff ff ad 	movl   $0x8263e2ad,-0x2044(%rbp)
    9cfe:	e2 63 82 
    9d01:	c7 85 c0 df ff ff f9 	movl   $0xfffffff9,-0x2040(%rbp)
    9d08:	ff ff ff 
    9d0b:	66 c7 85 b4 d9 ff ff 	movw   $0x1,-0x264c(%rbp)
    9d12:	01 00 
    9d14:	48 8d 85 30 f8 ff ff 	lea    -0x7d0(%rbp),%rax
    9d1b:	48 05 d8 06 00 00    	add    $0x6d8,%rax
    9d21:	48 89 85 20 dd ff ff 	mov    %rax,-0x22e0(%rbp)
    9d28:	66 c7 85 c2 d9 ff ff 	movw   $0x4609,-0x263e(%rbp)
    9d2f:	09 46 
    9d31:	48 8d 05 a0 bc 00 00 	lea    0xbca0(%rip),%rax        # 159d8 <g_258>
    9d38:	48 89 85 d0 dc ff ff 	mov    %rax,-0x2330(%rbp)
    9d3f:	c6 85 a7 d9 ff ff 01 	movb   $0x1,-0x2659(%rbp)
    9d46:	48 c7 85 d8 dc ff ff 	movq   $0x0,-0x2328(%rbp)
    9d4d:	00 00 00 00 
    9d51:	48 8d 85 d0 de ff ff 	lea    -0x2130(%rbp),%rax
    9d58:	48 89 85 e0 dc ff ff 	mov    %rax,-0x2320(%rbp)
    9d5f:	48 8d 85 a7 d9 ff ff 	lea    -0x2659(%rbp),%rax
    9d66:	48 89 85 60 db ff ff 	mov    %rax,-0x24a0(%rbp)
    9d6d:	48 8d 85 60 db ff ff 	lea    -0x24a0(%rbp),%rax
    9d74:	48 89 85 68 db ff ff 	mov    %rax,-0x2498(%rbp)
    9d7b:	48 8d 85 68 db ff ff 	lea    -0x2498(%rbp),%rax
    9d82:	48 89 85 e8 dc ff ff 	mov    %rax,-0x2318(%rbp)
    9d89:	c7 85 80 da ff ff ff 	movl   $0xffffffff,-0x2580(%rbp)
    9d90:	ff ff ff 
    9d93:	48 8d 05 be b2 00 00 	lea    0xb2be(%rip),%rax        # 15058 <g_1014>
    9d9a:	48 89 85 70 db ff ff 	mov    %rax,-0x2490(%rbp)
    9da1:	48 8d 85 90 de ff ff 	lea    -0x2170(%rbp),%rax
    9da8:	48 83 c0 08          	add    $0x8,%rax
    9dac:	48 89 85 f0 dc ff ff 	mov    %rax,-0x2310(%rbp)
    9db3:	c7 85 84 da ff ff 00 	movl   $0x0,-0x257c(%rbp)
    9dba:	00 00 00 
    9dbd:	eb 1e                	jmp    9ddd <func_22+0xef1>
    9dbf:	8b 85 84 da ff ff    	mov    -0x257c(%rbp),%eax
    9dc5:	48 98                	cltq   
    9dc7:	48 8d 15 da 92 00 00 	lea    0x92da(%rip),%rdx        # 130a8 <g_1571>
    9dce:	48 89 94 c5 30 df ff 	mov    %rdx,-0x20d0(%rbp,%rax,8)
    9dd5:	ff 
    9dd6:	83 85 84 da ff ff 01 	addl   $0x1,-0x257c(%rbp)
    9ddd:	83 bd 84 da ff ff 07 	cmpl   $0x7,-0x257c(%rbp)
    9de4:	7e d9                	jle    9dbf <func_22+0xed3>
    9de6:	c7 85 84 da ff ff 00 	movl   $0x0,-0x257c(%rbp)
    9ded:	00 00 00 
    9df0:	eb 1e                	jmp    9e10 <func_22+0xf24>
    9df2:	8b 85 84 da ff ff    	mov    -0x257c(%rbp),%eax
    9df8:	48 98                	cltq   
    9dfa:	48 8d 95 70 db ff ff 	lea    -0x2490(%rbp),%rdx
    9e01:	48 89 94 c5 90 de ff 	mov    %rdx,-0x2170(%rbp,%rax,8)
    9e08:	ff 
    9e09:	83 85 84 da ff ff 01 	addl   $0x1,-0x257c(%rbp)
    9e10:	83 bd 84 da ff ff 02 	cmpl   $0x2,-0x257c(%rbp)
    9e17:	7e d9                	jle    9df2 <func_22+0xf06>
    9e19:	66 c7 85 9c d9 ff ff 	movw   $0x0,-0x2664(%rbp)
    9e20:	00 00 
    9e22:	eb 1f                	jmp    9e43 <func_22+0xf57>
    9e24:	48 8b 05 a5 b2 00 00 	mov    0xb2a5(%rip),%rax        # 150d0 <g_1080>
    9e2b:	48 c7 00 00 00 00 00 	movq   $0x0,(%rax)
    9e32:	0f b7 85 9c d9 ff ff 	movzwl -0x2664(%rbp),%eax
    9e39:	83 c0 01             	add    $0x1,%eax
    9e3c:	66 89 85 9c d9 ff ff 	mov    %ax,-0x2664(%rbp)
    9e43:	66 83 bd 9c d9 ff ff 	cmpw   $0x9,-0x2664(%rbp)
    9e4a:	09 
    9e4b:	7e d7                	jle    9e24 <func_22+0xf38>
    9e4d:	48 c7 05 10 92 00 00 	movq   $0x0,0x9210(%rip)        # 13068 <g_492>
    9e54:	00 00 00 00 
    9e58:	e9 33 18 00 00       	jmpq   b690 <func_22+0x27a4>
    9e5d:	c7 85 48 da ff ff 93 	movl   $0x2116ce93,-0x25b8(%rbp)
    9e64:	ce 16 21 
    9e67:	c7 85 f8 d9 ff ff f9 	movl   $0xfffffff9,-0x2608(%rbp)
    9e6e:	ff ff ff 
    9e71:	c7 85 90 e0 ff ff b7 	movl   $0x3ee13bb7,-0x1f70(%rbp)
    9e78:	3b e1 3e 
    9e7b:	c7 85 94 e0 ff ff 63 	movl   $0x26e5a363,-0x1f6c(%rbp)
    9e82:	a3 e5 26 
    9e85:	c7 85 98 e0 ff ff ff 	movl   $0xffffffff,-0x1f68(%rbp)
    9e8c:	ff ff ff 
    9e8f:	c7 85 9c e0 ff ff ff 	movl   $0xffffffff,-0x1f64(%rbp)
    9e96:	ff ff ff 
    9e99:	c7 85 a0 e0 ff ff 63 	movl   $0x26e5a363,-0x1f60(%rbp)
    9ea0:	a3 e5 26 
    9ea3:	c7 85 a4 e0 ff ff b7 	movl   $0x3ee13bb7,-0x1f5c(%rbp)
    9eaa:	3b e1 3e 
    9ead:	c7 85 a8 e0 ff ff ff 	movl   $0xffffffff,-0x1f58(%rbp)
    9eb4:	ff ff ff 
    9eb7:	c7 85 ac e0 ff ff f6 	movl   $0xfffffff6,-0x1f54(%rbp)
    9ebe:	ff ff ff 
    9ec1:	c7 85 b0 e0 ff ff e1 	movl   $0x601fb5e1,-0x1f50(%rbp)
    9ec8:	b5 1f 60 
    9ecb:	c7 85 b4 e0 ff ff 53 	movl   $0xfe7e0c53,-0x1f4c(%rbp)
    9ed2:	0c 7e fe 
    9ed5:	c7 85 b8 e0 ff ff e1 	movl   $0x601fb5e1,-0x1f48(%rbp)
    9edc:	b5 1f 60 
    9edf:	c7 85 bc e0 ff ff f6 	movl   $0xfffffff6,-0x1f44(%rbp)
    9ee6:	ff ff ff 
    9ee9:	c7 85 c0 e0 ff ff 00 	movl   $0x0,-0x1f40(%rbp)
    9ef0:	00 00 00 
    9ef3:	c7 85 c4 e0 ff ff f6 	movl   $0xfffffff6,-0x1f3c(%rbp)
    9efa:	ff ff ff 
    9efd:	c7 85 c8 e0 ff ff 63 	movl   $0x26e5a363,-0x1f38(%rbp)
    9f04:	a3 e5 26 
    9f07:	c7 85 cc e0 ff ff ff 	movl   $0xffffffff,-0x1f34(%rbp)
    9f0e:	ff ff ff 
    9f11:	c7 85 d0 e0 ff ff ff 	movl   $0xffffffff,-0x1f30(%rbp)
    9f18:	ff ff ff 
    9f1b:	c7 85 d4 e0 ff ff 63 	movl   $0x26e5a363,-0x1f2c(%rbp)
    9f22:	a3 e5 26 
    9f25:	c7 85 d8 e0 ff ff b7 	movl   $0x3ee13bb7,-0x1f28(%rbp)
    9f2c:	3b e1 3e 
    9f2f:	c7 85 dc e0 ff ff ff 	movl   $0xffffffff,-0x1f24(%rbp)
    9f36:	ff ff ff 
    9f39:	c7 85 e0 e0 ff ff 07 	movl   $0x7,-0x1f20(%rbp)
    9f40:	00 00 00 
    9f43:	c7 85 e4 e0 ff ff 01 	movl   $0x1,-0x1f1c(%rbp)
    9f4a:	00 00 00 
    9f4d:	c7 85 e8 e0 ff ff e1 	movl   $0x601fb5e1,-0x1f18(%rbp)
    9f54:	b5 1f 60 
    9f57:	c7 85 ec e0 ff ff 01 	movl   $0x1,-0x1f14(%rbp)
    9f5e:	00 00 00 
    9f61:	c7 85 f0 e0 ff ff 00 	movl   $0x0,-0x1f10(%rbp)
    9f68:	00 00 00 
    9f6b:	c7 85 f4 e0 ff ff 25 	movl   $0xd069cb25,-0x1f0c(%rbp)
    9f72:	cb 69 d0 
    9f75:	c7 85 f8 e0 ff ff 00 	movl   $0x0,-0x1f08(%rbp)
    9f7c:	00 00 00 
    9f7f:	c7 85 fc e0 ff ff 01 	movl   $0x1,-0x1f04(%rbp)
    9f86:	00 00 00 
    9f89:	c7 85 00 e1 ff ff 63 	movl   $0x26e5a363,-0x1f00(%rbp)
    9f90:	a3 e5 26 
    9f93:	c7 85 04 e1 ff ff 63 	movl   $0x26e5a363,-0x1efc(%rbp)
    9f9a:	a3 e5 26 
    9f9d:	c7 85 08 e1 ff ff f9 	movl   $0xfffffff9,-0x1ef8(%rbp)
    9fa4:	ff ff ff 
    9fa7:	c7 85 0c e1 ff ff 07 	movl   $0x7,-0x1ef4(%rbp)
    9fae:	00 00 00 
    9fb1:	c7 85 10 e1 ff ff 63 	movl   $0x26e5a363,-0x1ef0(%rbp)
    9fb8:	a3 e5 26 
    9fbb:	c7 85 14 e1 ff ff 01 	movl   $0x1,-0x1eec(%rbp)
    9fc2:	00 00 00 
    9fc5:	c7 85 18 e1 ff ff 07 	movl   $0x7,-0x1ee8(%rbp)
    9fcc:	00 00 00 
    9fcf:	c7 85 1c e1 ff ff f6 	movl   $0xfffffff6,-0x1ee4(%rbp)
    9fd6:	ff ff ff 
    9fd9:	c7 85 20 e1 ff ff 00 	movl   $0x0,-0x1ee0(%rbp)
    9fe0:	00 00 00 
    9fe3:	c7 85 24 e1 ff ff 85 	movl   $0x4e598885,-0x1edc(%rbp)
    9fea:	88 59 4e 
    9fed:	c7 85 28 e1 ff ff e1 	movl   $0x601fb5e1,-0x1ed8(%rbp)
    9ff4:	b5 1f 60 
    9ff7:	c7 85 2c e1 ff ff 85 	movl   $0x4e598885,-0x1ed4(%rbp)
    9ffe:	88 59 4e 
    a001:	c7 85 30 e1 ff ff 00 	movl   $0x0,-0x1ed0(%rbp)
    a008:	00 00 00 
    a00b:	c7 85 34 e1 ff ff f6 	movl   $0xfffffff6,-0x1ecc(%rbp)
    a012:	ff ff ff 
    a015:	c7 85 38 e1 ff ff b7 	movl   $0x3ee13bb7,-0x1ec8(%rbp)
    a01c:	3b e1 3e 
    a01f:	c7 85 3c e1 ff ff 07 	movl   $0x7,-0x1ec4(%rbp)
    a026:	00 00 00 
    a029:	c7 85 40 e1 ff ff ff 	movl   $0xffffffff,-0x1ec0(%rbp)
    a030:	ff ff ff 
    a033:	c7 85 44 e1 ff ff b7 	movl   $0x3ee13bb7,-0x1ebc(%rbp)
    a03a:	3b e1 3e 
    a03d:	c7 85 48 e1 ff ff 63 	movl   $0x26e5a363,-0x1eb8(%rbp)
    a044:	a3 e5 26 
    a047:	c7 85 4c e1 ff ff f9 	movl   $0xfffffff9,-0x1eb4(%rbp)
    a04e:	ff ff ff 
    a051:	c7 85 50 e1 ff ff f9 	movl   $0xfffffff9,-0x1eb0(%rbp)
    a058:	ff ff ff 
    a05b:	c7 85 54 e1 ff ff 01 	movl   $0x1,-0x1eac(%rbp)
    a062:	00 00 00 
    a065:	c7 85 58 e1 ff ff 00 	movl   $0x0,-0x1ea8(%rbp)
    a06c:	00 00 00 
    a06f:	c7 85 5c e1 ff ff 25 	movl   $0xd069cb25,-0x1ea4(%rbp)
    a076:	cb 69 d0 
    a079:	c7 85 60 e1 ff ff 00 	movl   $0x0,-0x1ea0(%rbp)
    a080:	00 00 00 
    a083:	c7 85 64 e1 ff ff 01 	movl   $0x1,-0x1e9c(%rbp)
    a08a:	00 00 00 
    a08d:	c7 85 68 e1 ff ff e1 	movl   $0x601fb5e1,-0x1e98(%rbp)
    a094:	b5 1f 60 
    a097:	c7 85 6c e1 ff ff 01 	movl   $0x1,-0x1e94(%rbp)
    a09e:	00 00 00 
    a0a1:	48 c7 85 e8 db ff ff 	movq   $0x1,-0x2418(%rbp)
    a0a8:	01 00 00 00 
    a0ac:	c7 85 fc d9 ff ff 63 	movl   $0x109cc63,-0x2604(%rbp)
    a0b3:	cc 09 01 
    a0b6:	c7 85 28 da ff ff 07 	movl   $0x7,-0x25d8(%rbp)
    a0bd:	00 00 00 
    a0c0:	c6 85 aa d9 ff ff ec 	movb   $0xec,-0x2656(%rbp)
    a0c7:	c6 85 a9 d9 ff ff ca 	movb   $0xca,-0x2657(%rbp)
    a0ce:	0f b7 95 98 d9 ff ff 	movzwl -0x2668(%rbp),%edx
    a0d5:	48 8b 05 4c af 00 00 	mov    0xaf4c(%rip),%rax        # 15028 <g_856>
    a0dc:	48 8b 00             	mov    (%rax),%rax
    a0df:	48 8b 00             	mov    (%rax),%rax
    a0e2:	48 8b 00             	mov    (%rax),%rax
    a0e5:	0f b7 d2             	movzwl %dx,%edx
    a0e8:	89 10                	mov    %edx,(%rax)
    a0ea:	8b 10                	mov    (%rax),%edx
    a0ec:	0f bf 85 c0 d9 ff ff 	movswl -0x2640(%rbp),%eax
    a0f3:	89 d3                	mov    %edx,%ebx
    a0f5:	31 c3                	xor    %eax,%ebx
    a0f7:	be 0a 00 00 00       	mov    $0xa,%esi
    a0fc:	bf 00 00 00 00       	mov    $0x0,%edi
    a101:	e8 db c3 ff ff       	callq  64e1 <safe_lshift_func_int16_t_s_u>
    a106:	98                   	cwtl   
    a107:	09 d8                	or     %ebx,%eax
    a109:	85 c0                	test   %eax,%eax
    a10b:	0f 84 09 0b 00 00    	je     ac1a <func_22+0x1d2e>
    a111:	48 8d 85 dc d9 ff ff 	lea    -0x2624(%rbp),%rax
    a118:	48 89 85 50 e6 ff ff 	mov    %rax,-0x19b0(%rbp)
    a11f:	48 8d 05 1a 8f 00 00 	lea    0x8f1a(%rip),%rax        # 13040 <g_85>
    a126:	48 89 85 58 e6 ff ff 	mov    %rax,-0x19a8(%rbp)
    a12d:	48 8d 05 0c 8f 00 00 	lea    0x8f0c(%rip),%rax        # 13040 <g_85>
    a134:	48 89 85 60 e6 ff ff 	mov    %rax,-0x19a0(%rbp)
    a13b:	48 8d 85 cc d9 ff ff 	lea    -0x2634(%rbp),%rax
    a142:	48 89 85 68 e6 ff ff 	mov    %rax,-0x1998(%rbp)
    a149:	48 c7 85 70 e6 ff ff 	movq   $0x0,-0x1990(%rbp)
    a150:	00 00 00 00 
    a154:	48 c7 85 78 e6 ff ff 	movq   $0x0,-0x1988(%rbp)
    a15b:	00 00 00 00 
    a15f:	48 8d 85 dc d9 ff ff 	lea    -0x2624(%rbp),%rax
    a166:	48 89 85 80 e6 ff ff 	mov    %rax,-0x1980(%rbp)
    a16d:	48 8d 05 cc 8e 00 00 	lea    0x8ecc(%rip),%rax        # 13040 <g_85>
    a174:	48 89 85 88 e6 ff ff 	mov    %rax,-0x1978(%rbp)
    a17b:	48 8d 05 be 8e 00 00 	lea    0x8ebe(%rip),%rax        # 13040 <g_85>
    a182:	48 89 85 90 e6 ff ff 	mov    %rax,-0x1970(%rbp)
    a189:	48 8d 85 cc d9 ff ff 	lea    -0x2634(%rbp),%rax
    a190:	48 89 85 98 e6 ff ff 	mov    %rax,-0x1968(%rbp)
    a197:	48 c7 85 a0 e6 ff ff 	movq   $0x0,-0x1960(%rbp)
    a19e:	00 00 00 00 
    a1a2:	48 c7 85 a8 e6 ff ff 	movq   $0x0,-0x1958(%rbp)
    a1a9:	00 00 00 00 
    a1ad:	48 8d 85 dc d9 ff ff 	lea    -0x2624(%rbp),%rax
    a1b4:	48 89 85 b0 e6 ff ff 	mov    %rax,-0x1950(%rbp)
    a1bb:	48 8d 05 7e 8e 00 00 	lea    0x8e7e(%rip),%rax        # 13040 <g_85>
    a1c2:	48 89 85 b8 e6 ff ff 	mov    %rax,-0x1948(%rbp)
    a1c9:	48 8d 05 70 8e 00 00 	lea    0x8e70(%rip),%rax        # 13040 <g_85>
    a1d0:	48 89 85 c0 e6 ff ff 	mov    %rax,-0x1940(%rbp)
    a1d7:	48 8d 85 cc d9 ff ff 	lea    -0x2634(%rbp),%rax
    a1de:	48 89 85 c8 e6 ff ff 	mov    %rax,-0x1938(%rbp)
    a1e5:	48 c7 85 d0 e6 ff ff 	movq   $0x0,-0x1930(%rbp)
    a1ec:	00 00 00 00 
    a1f0:	48 c7 85 d8 e6 ff ff 	movq   $0x0,-0x1928(%rbp)
    a1f7:	00 00 00 00 
    a1fb:	48 c7 85 70 e1 ff ff 	movq   $0x0,-0x1e90(%rbp)
    a202:	00 00 00 00 
    a206:	48 c7 85 78 e1 ff ff 	movq   $0x0,-0x1e88(%rbp)
    a20d:	00 00 00 00 
    a211:	48 c7 85 80 e1 ff ff 	movq   $0x0,-0x1e80(%rbp)
    a218:	00 00 00 00 
    a21c:	48 c7 85 88 e1 ff ff 	movq   $0x0,-0x1e78(%rbp)
    a223:	00 00 00 00 
    a227:	48 c7 85 90 e1 ff ff 	movq   $0x0,-0x1e70(%rbp)
    a22e:	00 00 00 00 
    a232:	48 c7 85 98 e1 ff ff 	movq   $0x0,-0x1e68(%rbp)
    a239:	00 00 00 00 
    a23d:	48 8d 05 74 ad 00 00 	lea    0xad74(%rip),%rax        # 14fb8 <g_177>
    a244:	48 89 85 e0 db ff ff 	mov    %rax,-0x2420(%rbp)
    a24b:	48 83 ad e8 db ff ff 	subq   $0x1,-0x2418(%rbp)
    a252:	01 
    a253:	66 c7 05 7c b7 00 00 	movw   $0x0,0xb77c(%rip)        # 159d8 <g_258>
    a25a:	00 00 
    a25c:	e9 53 03 00 00       	jmpq   a5b4 <func_22+0x16c8>
    a261:	c6 85 a8 d9 ff ff 80 	movb   $0x80,-0x2658(%rbp)
    a268:	48 8d 85 30 db ff ff 	lea    -0x24d0(%rbp),%rax
    a26f:	48 89 85 88 db ff ff 	mov    %rax,-0x2478(%rbp)
    a276:	c7 85 0c da ff ff 01 	movl   $0x1,-0x25f4(%rbp)
    a27d:	00 00 00 
    a280:	48 c7 85 90 db ff ff 	movq   $0x2,-0x2470(%rbp)
    a287:	02 00 00 00 
    a28b:	eb 71                	jmp    a2fe <func_22+0x1412>
    a28d:	48 8d 85 58 db ff ff 	lea    -0x24a8(%rbp),%rax
    a294:	48 89 85 a0 db ff ff 	mov    %rax,-0x2460(%rbp)
    a29b:	0f b6 45 bb          	movzbl -0x45(%rbp),%eax
    a29f:	83 c0 01             	add    $0x1,%eax
    a2a2:	88 45 bb             	mov    %al,-0x45(%rbp)
    a2a5:	48 8b 95 58 db ff ff 	mov    -0x24a8(%rbp),%rdx
    a2ac:	48 8b 85 a0 db ff ff 	mov    -0x2460(%rbp),%rax
    a2b3:	48 89 10             	mov    %rdx,(%rax)
    a2b6:	48 8b 85 90 db ff ff 	mov    -0x2470(%rbp),%rax
    a2bd:	48 83 c0 01          	add    $0x1,%rax
    a2c1:	48 8d 14 85 00 00 00 	lea    0x0(,%rax,4),%rdx
    a2c8:	00 
    a2c9:	48 8d 05 a0 8d 00 00 	lea    0x8da0(%rip),%rax        # 13070 <g_498>
    a2d0:	8b 04 02             	mov    (%rdx,%rax,1),%eax
    a2d3:	0f b7 85 98 d9 ff ff 	movzwl -0x2668(%rbp),%eax
    a2da:	0f b7 d0             	movzwl %ax,%edx
    a2dd:	0f b7 05 9c 8d 00 00 	movzwl 0x8d9c(%rip),%eax        # 13080 <g_620>
    a2e4:	98                   	cwtl   
    a2e5:	39 c2                	cmp    %eax,%edx
    a2e7:	0f 9d c0             	setge  %al
    a2ea:	0f b6 d0             	movzbl %al,%edx
    a2ed:	48 8b 85 50 dd ff ff 	mov    -0x22b0(%rbp),%rax
    a2f4:	89 10                	mov    %edx,(%rax)
    a2f6:	48 83 ad 90 db ff ff 	subq   $0x1,-0x2470(%rbp)
    a2fd:	01 
    a2fe:	48 83 bd 90 db ff ff 	cmpq   $0x0,-0x2470(%rbp)
    a305:	00 
    a306:	79 85                	jns    a28d <func_22+0x13a1>
    a308:	0f be 9d a8 d9 ff ff 	movsbl -0x2658(%rbp),%ebx
    a30f:	48 8b 05 4a ad 00 00 	mov    0xad4a(%rip),%rax        # 15060 <g_1013>
    a316:	48 8b 00             	mov    (%rax),%rax
    a319:	48 8b 00             	mov    (%rax),%rax
    a31c:	48 8b 00             	mov    (%rax),%rax
    a31f:	49 89 c5             	mov    %rax,%r13
    a322:	0f b7 85 98 d9 ff ff 	movzwl -0x2668(%rbp),%eax
    a329:	44 0f b7 e0          	movzwl %ax,%r12d
    a32d:	8b 85 48 da ff ff    	mov    -0x25b8(%rbp),%eax
    a333:	0f b6 d0             	movzbl %al,%edx
    a336:	48 8b 85 48 dd ff ff 	mov    -0x22b8(%rbp),%rax
    a33d:	48 8b 00             	mov    (%rax),%rax
    a340:	48 8b 00             	mov    (%rax),%rax
    a343:	8b 30                	mov    (%rax),%esi
    a345:	0f be 8d a8 d9 ff ff 	movsbl -0x2658(%rbp),%ecx
    a34c:	48 8b 85 48 dd ff ff 	mov    -0x22b8(%rbp),%rax
    a353:	48 8b 00             	mov    (%rax),%rax
    a356:	48 8b 00             	mov    (%rax),%rax
    a359:	21 f1                	and    %esi,%ecx
    a35b:	89 08                	mov    %ecx,(%rax)
    a35d:	8b 00                	mov    (%rax),%eax
    a35f:	0f b6 c0             	movzbl %al,%eax
    a362:	89 d6                	mov    %edx,%esi
    a364:	89 c7                	mov    %eax,%edi
    a366:	e8 70 c8 ff ff       	callq  6bdb <safe_div_func_uint8_t_u_u>
    a36b:	89 c2                	mov    %eax,%edx
    a36d:	48 8b 85 50 db ff ff 	mov    -0x24b0(%rbp),%rax
    a374:	0f b6 d2             	movzbl %dl,%edx
    a377:	66 89 10             	mov    %dx,(%rax)
    a37a:	0f b7 00             	movzwl (%rax),%eax
    a37d:	66 83 f8 f7          	cmp    $0xfff7,%ax
    a381:	0f 97 c0             	seta   %al
    a384:	0f b6 c0             	movzbl %al,%eax
    a387:	8b 95 24 da ff ff    	mov    -0x25dc(%rbp),%edx
    a38d:	21 d0                	and    %edx,%eax
    a38f:	0f b7 c0             	movzwl %ax,%eax
    a392:	44 89 e6             	mov    %r12d,%esi
    a395:	89 c7                	mov    %eax,%edi
    a397:	e8 83 c9 ff ff       	callq  6d1f <safe_sub_func_uint16_t_u_u>
    a39c:	66 85 c0             	test   %ax,%ax
    a39f:	8b 85 fc d9 ff ff    	mov    -0x2604(%rbp),%eax
    a3a5:	88 05 f1 8c 00 00    	mov    %al,0x8cf1(%rip)        # 1309c <g_1346>
    a3ab:	0f b6 05 ea 8c 00 00 	movzbl 0x8cea(%rip),%eax        # 1309c <g_1346>
    a3b2:	0f b6 c0             	movzbl %al,%eax
    a3b5:	be 00 00 00 00       	mov    $0x0,%esi
    a3ba:	89 c7                	mov    %eax,%edi
    a3bc:	e8 fd c8 ff ff       	callq  6cbe <safe_rshift_func_uint8_t_u_u>
    a3c1:	84 c0                	test   %al,%al
    a3c3:	75 1d                	jne    a3e2 <func_22+0x14f6>
    a3c5:	0f b7 05 90 8c 00 00 	movzwl 0x8c90(%rip),%eax        # 1305c <g_306>
    a3cc:	83 e8 01             	sub    $0x1,%eax
    a3cf:	66 89 05 86 8c 00 00 	mov    %ax,0x8c86(%rip)        # 1305c <g_306>
    a3d6:	0f b7 05 7f 8c 00 00 	movzwl 0x8c7f(%rip),%eax        # 1305c <g_306>
    a3dd:	66 85 c0             	test   %ax,%ax
    a3e0:	74 07                	je     a3e9 <func_22+0x14fd>
    a3e2:	b8 01 00 00 00       	mov    $0x1,%eax
    a3e7:	eb 05                	jmp    a3ee <func_22+0x1502>
    a3e9:	b8 00 00 00 00       	mov    $0x0,%eax
    a3ee:	89 c2                	mov    %eax,%edx
    a3f0:	8b 05 a2 8c 00 00    	mov    0x8ca2(%rip),%eax        # 13098 <g_1283>
    a3f6:	39 c2                	cmp    %eax,%edx
    a3f8:	73 07                	jae    a401 <func_22+0x1515>
    a3fa:	b8 0e a5 00 00       	mov    $0xa50e,%eax
    a3ff:	eb 05                	jmp    a406 <func_22+0x151a>
    a401:	b8 0f a5 00 00       	mov    $0xa50f,%eax
    a406:	be 00 00 00 00       	mov    $0x0,%esi
    a40b:	89 c7                	mov    %eax,%edi
    a40d:	e8 2b c9 ff ff       	callq  6d3d <safe_mul_func_uint16_t_u_u>
    a412:	0f b7 c0             	movzwl %ax,%eax
    a415:	4c 89 ee             	mov    %r13,%rsi
    a418:	48 89 c7             	mov    %rax,%rdi
    a41b:	e8 0e cc ff ff       	callq  702e <safe_add_func_uint64_t_u_u>
    a420:	8b 95 f8 d9 ff ff    	mov    -0x2608(%rbp),%edx
    a426:	48 63 d2             	movslq %edx,%rdx
    a429:	48 39 d0             	cmp    %rdx,%rax
    a42c:	0f b7 85 9c d9 ff ff 	movzwl -0x2664(%rbp),%eax
    a433:	0f be c0             	movsbl %al,%eax
    a436:	89 de                	mov    %ebx,%esi
    a438:	89 c7                	mov    %eax,%edi
    a43a:	e8 2b be ff ff       	callq  626a <safe_div_func_int8_t_s_s>
    a43f:	0f be c0             	movsbl %al,%eax
    a442:	be 05 00 00 00       	mov    $0x5,%esi
    a447:	89 c7                	mov    %eax,%edi
    a449:	e8 93 c0 ff ff       	callq  64e1 <safe_lshift_func_int16_t_s_u>
    a44e:	66 0f be 95 a8 d9 ff 	movsbw -0x2658(%rbp),%dx
    a455:	ff 
    a456:	66 39 d0             	cmp    %dx,%ax
    a459:	0f 9c c0             	setl   %al
    a45c:	0f b6 d0             	movzbl %al,%edx
    a45f:	8b 85 48 e1 ff ff    	mov    -0x1eb8(%rbp),%eax
    a465:	31 d0                	xor    %edx,%eax
    a467:	89 85 48 e1 ff ff    	mov    %eax,-0x1eb8(%rbp)
    a46d:	66 83 bd 9c d9 ff ff 	cmpw   $0x0,-0x2664(%rbp)
    a474:	00 
    a475:	0f 85 27 01 00 00    	jne    a5a2 <func_22+0x16b6>
    a47b:	0f bf 9d 94 d9 ff ff 	movswl -0x266c(%rbp),%ebx
    a482:	48 8b 05 bf ab 00 00 	mov    0xabbf(%rip),%rax        # 15048 <g_943>
    a489:	0f b7 00             	movzwl (%rax),%eax
    a48c:	66 85 c0             	test   %ax,%ax
    a48f:	0f 84 e5 00 00 00    	je     a57a <func_22+0x168e>
    a495:	0f b7 85 98 d9 ff ff 	movzwl -0x2668(%rbp),%eax
    a49c:	44 0f b7 e0          	movzwl %ax,%r12d
    a4a0:	8b 85 28 da ff ff    	mov    -0x25d8(%rbp),%eax
    a4a6:	0f b7 c0             	movzwl %ax,%eax
    a4a9:	be 02 00 00 00       	mov    $0x2,%esi
    a4ae:	89 c7                	mov    %eax,%edi
    a4b0:	e8 88 c8 ff ff       	callq  6d3d <safe_mul_func_uint16_t_u_u>
    a4b5:	48 8b 05 44 ab 00 00 	mov    0xab44(%rip),%rax        # 15000 <g_226>
    a4bc:	48 8b 00             	mov    (%rax),%rax
    a4bf:	0f b6 00             	movzbl (%rax),%eax
    a4c2:	0f be d0             	movsbl %al,%edx
    a4c5:	0f b7 85 98 d9 ff ff 	movzwl -0x2668(%rbp),%eax
    a4cc:	0f be c0             	movsbl %al,%eax
    a4cf:	89 d6                	mov    %edx,%esi
    a4d1:	89 c7                	mov    %eax,%edi
    a4d3:	e8 92 bd ff ff       	callq  626a <safe_div_func_int8_t_s_s>
    a4d8:	66 98                	cbtw   
    a4da:	66 0d 93 bf          	or     $0xbf93,%ax
    a4de:	98                   	cwtl   
    a4df:	be 0d 00 00 00       	mov    $0xd,%esi
    a4e4:	89 c7                	mov    %eax,%edi
    a4e6:	e8 f6 bf ff ff       	callq  64e1 <safe_lshift_func_int16_t_s_u>
    a4eb:	0f bf d0             	movswl %ax,%edx
    a4ee:	48 8b 85 60 dd ff ff 	mov    -0x22a0(%rbp),%rax
    a4f5:	0f b7 08             	movzwl (%rax),%ecx
    a4f8:	48 8b 85 48 dd ff ff 	mov    -0x22b8(%rbp),%rax
    a4ff:	48 8b 00             	mov    (%rax),%rax
    a502:	48 8b 00             	mov    (%rax),%rax
    a505:	8b 00                	mov    (%rax),%eax
    a507:	21 c1                	and    %eax,%ecx
    a509:	48 8b 85 60 dd ff ff 	mov    -0x22a0(%rbp),%rax
    a510:	66 89 08             	mov    %cx,(%rax)
    a513:	48 8b 85 60 dd ff ff 	mov    -0x22a0(%rbp),%rax
    a51a:	0f b7 00             	movzwl (%rax),%eax
    a51d:	98                   	cwtl   
    a51e:	89 d6                	mov    %edx,%esi
    a520:	89 c7                	mov    %eax,%edi
    a522:	e8 ef be ff ff       	callq  6416 <safe_mod_func_int16_t_s_s>
    a527:	98                   	cwtl   
    a528:	44 21 e0             	and    %r12d,%eax
    a52b:	89 85 ec d9 ff ff    	mov    %eax,-0x2614(%rbp)
    a531:	8b 8d ec d9 ff ff    	mov    -0x2614(%rbp),%ecx
    a537:	48 8b 85 50 dd ff ff 	mov    -0x22b0(%rbp),%rax
    a53e:	8b 10                	mov    (%rax),%edx
    a540:	48 63 c1             	movslq %ecx,%rax
    a543:	48 31 85 98 db ff ff 	xor    %rax,-0x2468(%rbp)
    a54a:	48 83 bd 98 db ff ff 	cmpq   $0x0,-0x2468(%rbp)
    a551:	00 
    a552:	0f 9f c0             	setg   %al
    a555:	0f b6 c0             	movzbl %al,%eax
    a558:	21 d0                	and    %edx,%eax
    a55a:	89 c2                	mov    %eax,%edx
    a55c:	8b 05 36 8b 00 00    	mov    0x8b36(%rip),%eax        # 13098 <g_1283>
    a562:	39 c2                	cmp    %eax,%edx
    a564:	0f 95 c0             	setne  %al
    a567:	0f b6 c0             	movzbl %al,%eax
    a56a:	48 39 85 18 dd ff ff 	cmp    %rax,-0x22e8(%rbp)
    a571:	75 07                	jne    a57a <func_22+0x168e>
    a573:	b8 01 00 00 00       	mov    $0x1,%eax
    a578:	eb 05                	jmp    a57f <func_22+0x1693>
    a57a:	b8 00 00 00 00       	mov    $0x0,%eax
    a57f:	89 de                	mov    %ebx,%esi
    a581:	89 c7                	mov    %eax,%edi
    a583:	e8 7d c0 ff ff       	callq  6605 <safe_sub_func_int32_t_s_s>
    a588:	48 8b 05 99 aa 00 00 	mov    0xaa99(%rip),%rax        # 15028 <g_856>
    a58f:	48 8b 00             	mov    (%rax),%rax
    a592:	48 8b 00             	mov    (%rax),%rax
    a595:	48 8b 00             	mov    (%rax),%rax
    a598:	8b 95 0c da ff ff    	mov    -0x25f4(%rbp),%edx
    a59e:	89 10                	mov    %edx,(%rax)
    a5a0:	eb 01                	jmp    a5a3 <func_22+0x16b7>
    a5a2:	90                   	nop
    a5a3:	0f b7 05 2e b4 00 00 	movzwl 0xb42e(%rip),%eax        # 159d8 <g_258>
    a5aa:	83 c0 01             	add    $0x1,%eax
    a5ad:	66 89 05 24 b4 00 00 	mov    %ax,0xb424(%rip)        # 159d8 <g_258>
    a5b4:	0f b7 05 1d b4 00 00 	movzwl 0xb41d(%rip),%eax        # 159d8 <g_258>
    a5bb:	66 83 f8 02          	cmp    $0x2,%ax
    a5bf:	0f 8e 9c fc ff ff    	jle    a261 <func_22+0x1375>
    a5c5:	c7 85 24 da ff ff 00 	movl   $0x0,-0x25dc(%rbp)
    a5cc:	00 00 00 
    a5cf:	83 bd 24 da ff ff 02 	cmpl   $0x2,-0x25dc(%rbp)
    a5d6:	0f 87 75 03 00 00    	ja     a951 <func_22+0x1a65>
    a5dc:	48 8d 05 4d ac 00 00 	lea    0xac4d(%rip),%rax        # 15230 <g_1347>
    a5e3:	48 89 85 d0 db ff ff 	mov    %rax,-0x2430(%rbp)
    a5ea:	c7 85 14 da ff ff e4 	movl   $0x4a6fefe4,-0x25ec(%rbp)
    a5f1:	ef 6f 4a 
    a5f4:	48 8d 85 50 db ff ff 	lea    -0x24b0(%rbp),%rax
    a5fb:	48 89 85 c8 db ff ff 	mov    %rax,-0x2438(%rbp)
    a602:	c7 85 18 da ff ff 88 	movl   $0xca5e7c88,-0x25e8(%rbp)
    a609:	7c 5e ca 
    a60c:	c7 85 08 da ff ff 00 	movl   $0x0,-0x25f8(%rbp)
    a613:	00 00 00 
    a616:	eb 47                	jmp    a65f <func_22+0x1773>
    a618:	c7 85 04 da ff ff 00 	movl   $0x0,-0x25fc(%rbp)
    a61f:	00 00 00 
    a622:	eb 2b                	jmp    a64f <func_22+0x1763>
    a624:	8b 85 04 da ff ff    	mov    -0x25fc(%rbp),%eax
    a62a:	48 63 d0             	movslq %eax,%rdx
    a62d:	8b 85 08 da ff ff    	mov    -0x25f8(%rbp),%eax
    a633:	48 98                	cltq   
    a635:	48 8d 5d d0          	lea    -0x30(%rbp),%rbx
    a639:	48 01 da             	add    %rbx,%rdx
    a63c:	48 01 d0             	add    %rdx,%rax
    a63f:	48 2d d0 20 00 00    	sub    $0x20d0,%rax
    a645:	c6 00 3e             	movb   $0x3e,(%rax)
    a648:	83 85 04 da ff ff 01 	addl   $0x1,-0x25fc(%rbp)
    a64f:	83 bd 04 da ff ff 00 	cmpl   $0x0,-0x25fc(%rbp)
    a656:	7e cc                	jle    a624 <func_22+0x1738>
    a658:	83 85 08 da ff ff 01 	addl   $0x1,-0x25f8(%rbp)
    a65f:	83 bd 08 da ff ff 01 	cmpl   $0x1,-0x25f8(%rbp)
    a666:	7e b0                	jle    a618 <func_22+0x172c>
    a668:	48 8b 05 b9 a9 00 00 	mov    0xa9b9(%rip),%rax        # 15028 <g_856>
    a66f:	48 8b 00             	mov    (%rax),%rax
    a672:	48 8b 00             	mov    (%rax),%rax
    a675:	48 8b 00             	mov    (%rax),%rax
    a678:	8b 08                	mov    (%rax),%ecx
    a67a:	0f b6 85 01 df ff ff 	movzbl -0x20ff(%rbp),%eax
    a681:	0f b6 d0             	movzbl %al,%edx
    a684:	48 8b 05 9d a9 00 00 	mov    0xa99d(%rip),%rax        # 15028 <g_856>
    a68b:	48 8b 00             	mov    (%rax),%rax
    a68e:	48 8b 00             	mov    (%rax),%rax
    a691:	48 8b 00             	mov    (%rax),%rax
    a694:	09 ca                	or     %ecx,%edx
    a696:	89 10                	mov    %edx,(%rax)
    a698:	66 c7 85 b2 d9 ff ff 	movw   $0x0,-0x264e(%rbp)
    a69f:	00 00 
    a6a1:	e9 8e 02 00 00       	jmpq   a934 <func_22+0x1a48>
    a6a6:	48 8d 05 83 ab 00 00 	lea    0xab83(%rip),%rax        # 15230 <g_1347>
    a6ad:	48 89 85 78 db ff ff 	mov    %rax,-0x2488(%rbp)
    a6b4:	48 8d 85 78 db ff ff 	lea    -0x2488(%rbp),%rax
    a6bb:	48 89 85 b0 db ff ff 	mov    %rax,-0x2450(%rbp)
    a6c2:	48 8d 85 30 db ff ff 	lea    -0x24d0(%rbp),%rax
    a6c9:	48 89 85 80 db ff ff 	mov    %rax,-0x2480(%rbp)
    a6d0:	48 8d 85 80 db ff ff 	lea    -0x2480(%rbp),%rax
    a6d7:	48 89 85 b8 db ff ff 	mov    %rax,-0x2448(%rbp)
    a6de:	48 8d 85 28 db ff ff 	lea    -0x24d8(%rbp),%rax
    a6e5:	48 89 85 c0 db ff ff 	mov    %rax,-0x2440(%rbp)
    a6ec:	c7 85 10 da ff ff fb 	movl   $0xfffffffb,-0x25f0(%rbp)
    a6f3:	ff ff ff 
    a6f6:	48 8d 85 50 db ff ff 	lea    -0x24b0(%rbp),%rax
    a6fd:	48 89 85 a8 db ff ff 	mov    %rax,-0x2458(%rbp)
    a704:	c7 85 00 da ff ff 01 	movl   $0x1,-0x2600(%rbp)
    a70b:	00 00 00 
    a70e:	48 8b 15 63 a8 00 00 	mov    0xa863(%rip),%rdx        # 14f78 <g_124>
    a715:	48 8b 05 6c a8 00 00 	mov    0xa86c(%rip),%rax        # 14f88 <g_155>
    a71c:	8b 12                	mov    (%rdx),%edx
    a71e:	89 10                	mov    %edx,(%rax)
    a720:	80 bd aa d9 ff ff 00 	cmpb   $0x0,-0x2656(%rbp)
    a727:	0f 85 f5 01 00 00    	jne    a922 <func_22+0x1a36>
    a72d:	48 8b 95 78 db ff ff 	mov    -0x2488(%rbp),%rdx
    a734:	48 8b 85 b0 db ff ff 	mov    -0x2450(%rbp),%rax
    a73b:	48 89 10             	mov    %rdx,(%rax)
    a73e:	48 8b 85 b0 db ff ff 	mov    -0x2450(%rbp),%rax
    a745:	48 8b 10             	mov    (%rax),%rdx
    a748:	48 8b 85 b8 db ff ff 	mov    -0x2448(%rbp),%rax
    a74f:	48 89 10             	mov    %rdx,(%rax)
    a752:	48 8b 85 b8 db ff ff 	mov    -0x2448(%rbp),%rax
    a759:	48 8b 00             	mov    (%rax),%rax
    a75c:	48 39 85 d0 db ff ff 	cmp    %rax,-0x2430(%rbp)
    a763:	0f 94 c0             	sete   %al
    a766:	0f b6 d0             	movzbl %al,%edx
    a769:	48 8b 85 50 dd ff ff 	mov    -0x22b0(%rbp),%rax
    a770:	8b 00                	mov    (%rax),%eax
    a772:	09 c2                	or     %eax,%edx
    a774:	48 8b 85 50 dd ff ff 	mov    -0x22b0(%rbp),%rax
    a77b:	89 10                	mov    %edx,(%rax)
    a77d:	0f b6 85 01 df ff ff 	movzbl -0x20ff(%rbp),%eax
    a784:	84 c0                	test   %al,%al
    a786:	0f 85 67 01 00 00    	jne    a8f3 <func_22+0x1a07>
    a78c:	0f bf 9d 94 d9 ff ff 	movswl -0x266c(%rbp),%ebx
    a793:	0f b7 85 9c d9 ff ff 	movzwl -0x2664(%rbp),%eax
    a79a:	44 0f b6 e0          	movzbl %al,%r12d
    a79e:	0f b7 85 98 d9 ff ff 	movzwl -0x2668(%rbp),%eax
    a7a5:	44 0f b7 e8          	movzwl %ax,%r13d
    a7a9:	44 0f bf b5 9c d9 ff 	movswl -0x2664(%rbp),%r14d
    a7b0:	ff 
    a7b1:	0f b7 85 98 d9 ff ff 	movzwl -0x2668(%rbp),%eax
    a7b8:	0f b7 c0             	movzwl %ax,%eax
    a7bb:	89 85 10 da ff ff    	mov    %eax,-0x25f0(%rbp)
    a7c1:	0f b7 85 98 d9 ff ff 	movzwl -0x2668(%rbp),%eax
    a7c8:	44 0f be f8          	movsbl %al,%r15d
    a7cc:	48 8b 85 c8 db ff ff 	mov    -0x2438(%rbp),%rax
    a7d3:	48 3b 85 a8 db ff ff 	cmp    -0x2458(%rbp),%rax
    a7da:	0f 94 c0             	sete   %al
    a7dd:	0f b6 c0             	movzbl %al,%eax
    a7e0:	48 89 85 88 d9 ff ff 	mov    %rax,-0x2678(%rbp)
    a7e7:	be 51 00 00 00       	mov    $0x51,%esi
    a7ec:	bf ca ff ff ff       	mov    $0xffffffca,%edi
    a7f1:	e8 fc b9 ff ff       	callq  61f2 <safe_sub_func_int8_t_s_s>
    a7f6:	48 8b b5 88 d9 ff ff 	mov    -0x2678(%rbp),%rsi
    a7fd:	bf 01 00 00 00       	mov    $0x1,%edi
    a802:	e8 27 c8 ff ff       	callq  702e <safe_add_func_uint64_t_u_u>
    a807:	48 85 c0             	test   %rax,%rax
    a80a:	0f 94 c0             	sete   %al
    a80d:	0f b6 c8             	movzbl %al,%ecx
    a810:	48 8b 85 48 dd ff ff 	mov    -0x22b8(%rbp),%rax
    a817:	48 8b 00             	mov    (%rax),%rax
    a81a:	48 8b 00             	mov    (%rax),%rax
    a81d:	8b 10                	mov    (%rax),%edx
    a81f:	48 8b 85 48 dd ff ff 	mov    -0x22b8(%rbp),%rax
    a826:	48 8b 00             	mov    (%rax),%rax
    a829:	48 8b 00             	mov    (%rax),%rax
    a82c:	09 ca                	or     %ecx,%edx
    a82e:	89 10                	mov    %edx,(%rax)
    a830:	8b 00                	mov    (%rax),%eax
    a832:	0f be c0             	movsbl %al,%eax
    a835:	44 89 fe             	mov    %r15d,%esi
    a838:	89 c7                	mov    %eax,%edi
    a83a:	e8 b3 b9 ff ff       	callq  61f2 <safe_sub_func_int8_t_s_s>
    a83f:	b8 01 00 00 00       	mov    $0x1,%eax
    a844:	89 c2                	mov    %eax,%edx
    a846:	0f b6 05 4f 88 00 00 	movzbl 0x884f(%rip),%eax        # 1309c <g_1346>
    a84d:	21 d0                	and    %edx,%eax
    a84f:	0f be c0             	movsbl %al,%eax
    a852:	44 89 f6             	mov    %r14d,%esi
    a855:	89 c7                	mov    %eax,%edi
    a857:	e8 92 ba ff ff       	callq  62ee <safe_lshift_func_int8_t_s_u>
    a85c:	89 c2                	mov    %eax,%edx
    a85e:	48 8b 85 50 db ff ff 	mov    -0x24b0(%rbp),%rax
    a865:	66 0f be d2          	movsbw %dl,%dx
    a869:	66 89 10             	mov    %dx,(%rax)
    a86c:	0f b7 00             	movzwl (%rax),%eax
    a86f:	0f b7 c0             	movzwl %ax,%eax
    a872:	44 89 ee             	mov    %r13d,%esi
    a875:	89 c7                	mov    %eax,%edi
    a877:	e8 c1 c4 ff ff       	callq  6d3d <safe_mul_func_uint16_t_u_u>
    a87c:	0f b6 c0             	movzbl %al,%eax
    a87f:	44 89 e6             	mov    %r12d,%esi
    a882:	89 c7                	mov    %eax,%edi
    a884:	e8 0a c3 ff ff       	callq  6b93 <safe_mul_func_uint8_t_u_u>
    a889:	48 8b 85 c0 db ff ff 	mov    -0x2440(%rbp),%rax
    a890:	48 8b 00             	mov    (%rax),%rax
    a893:	48 8d 50 ff          	lea    -0x1(%rax),%rdx
    a897:	48 8b 85 c0 db ff ff 	mov    -0x2440(%rbp),%rax
    a89e:	48 89 10             	mov    %rdx,(%rax)
    a8a1:	48 8b 85 c0 db ff ff 	mov    -0x2440(%rbp),%rax
    a8a8:	48 8b 00             	mov    (%rax),%rax
    a8ab:	98                   	cwtl   
    a8ac:	be 23 97 ff ff       	mov    $0xffff9723,%esi
    a8b1:	89 c7                	mov    %eax,%edi
    a8b3:	e8 3d bb ff ff       	callq  63f5 <safe_mul_func_int16_t_s_s>
    a8b8:	83 f0 b9             	xor    $0xffffffb9,%eax
    a8bb:	0f be c0             	movsbl %al,%eax
    a8be:	89 de                	mov    %ebx,%esi
    a8c0:	89 c7                	mov    %eax,%edi
    a8c2:	e8 a5 ba ff ff       	callq  636c <safe_rshift_func_int8_t_s_u>
    a8c7:	3c 01                	cmp    $0x1,%al
    a8c9:	0f 9e c0             	setle  %al
    a8cc:	0f b6 c0             	movzbl %al,%eax
    a8cf:	be 3b 00 00 00       	mov    $0x3b,%esi
    a8d4:	89 c7                	mov    %eax,%edi
    a8d6:	e8 7f c2 ff ff       	callq  6b5a <safe_add_func_uint8_t_u_u>
    a8db:	0f b6 c0             	movzbl %al,%eax
    a8de:	0b 85 18 da ff ff    	or     -0x25e8(%rbp),%eax
    a8e4:	89 c2                	mov    %eax,%edx
    a8e6:	0f bf 85 94 d9 ff ff 	movswl -0x266c(%rbp),%eax
    a8ed:	09 d0                	or     %edx,%eax
    a8ef:	85 c0                	test   %eax,%eax
    a8f1:	74 07                	je     a8fa <func_22+0x1a0e>
    a8f3:	b8 01 00 00 00       	mov    $0x1,%eax
    a8f8:	eb 05                	jmp    a8ff <func_22+0x1a13>
    a8fa:	b8 00 00 00 00       	mov    $0x0,%eax
    a8ff:	be d5 b4 ec 18       	mov    $0x18ecb4d5,%esi
    a904:	89 c7                	mov    %eax,%edi
    a906:	e8 f4 bd ff ff       	callq  66ff <safe_div_func_int32_t_s_s>
    a90b:	0f bf 95 94 d9 ff ff 	movswl -0x266c(%rbp),%edx
    a912:	39 d0                	cmp    %edx,%eax
    a914:	0f 94 c0             	sete   %al
    a917:	0f b6 c0             	movzbl %al,%eax
    a91a:	09 85 00 da ff ff    	or     %eax,-0x2600(%rbp)
    a920:	eb 01                	jmp    a923 <func_22+0x1a37>
    a922:	90                   	nop
    a923:	0f b7 85 b2 d9 ff ff 	movzwl -0x264e(%rbp),%eax
    a92a:	83 c0 01             	add    $0x1,%eax
    a92d:	66 89 85 b2 d9 ff ff 	mov    %ax,-0x264e(%rbp)
    a934:	0f b7 85 b2 d9 ff ff 	movzwl -0x264e(%rbp),%eax
    a93b:	66 83 f8 02          	cmp    $0x2,%ax
    a93f:	0f 86 61 fd ff ff    	jbe    a6a6 <func_22+0x17ba>
    a945:	0f bf 85 9c d9 ff ff 	movswl -0x2664(%rbp),%eax
    a94c:	e9 17 19 00 00       	jmpq   c268 <func_22+0x337c>
    a951:	c7 85 d0 d9 ff ff 03 	movl   $0x3,-0x2630(%rbp)
    a958:	00 00 00 
    a95b:	e9 a7 02 00 00       	jmpq   ac07 <func_22+0x1d1b>
    a960:	c7 85 20 da ff ff 00 	movl   $0x0,-0x25e0(%rbp)
    a967:	00 00 00 
    a96a:	eb 1b                	jmp    a987 <func_22+0x1a9b>
    a96c:	8b 85 20 da ff ff    	mov    -0x25e0(%rbp),%eax
    a972:	48 98                	cltq   
    a974:	48 c7 84 c5 00 df ff 	movq   $0x0,-0x2100(%rbp,%rax,8)
    a97b:	ff 00 00 00 00 
    a980:	83 85 20 da ff ff 01 	addl   $0x1,-0x25e0(%rbp)
    a987:	83 bd 20 da ff ff 00 	cmpl   $0x0,-0x25e0(%rbp)
    a98e:	7e dc                	jle    a96c <func_22+0x1a80>
    a990:	48 8b 05 b1 a6 00 00 	mov    0xa6b1(%rip),%rax        # 15048 <g_943>
    a997:	0f b7 00             	movzwl (%rax),%eax
    a99a:	0f b7 d0             	movzwl %ax,%edx
    a99d:	48 8b 85 78 e1 ff ff 	mov    -0x1e88(%rbp),%rax
    a9a4:	48 85 c0             	test   %rax,%rax
    a9a7:	0f 94 c0             	sete   %al
    a9aa:	0f b6 c0             	movzbl %al,%eax
    a9ad:	89 d6                	mov    %edx,%esi
    a9af:	89 c7                	mov    %eax,%edi
    a9b1:	e8 69 c3 ff ff       	callq  6d1f <safe_sub_func_uint16_t_u_u>
    a9b6:	41 89 c4             	mov    %eax,%r12d
    a9b9:	0f b7 85 98 d9 ff ff 	movzwl -0x2668(%rbp),%eax
    a9c0:	0f b7 d8             	movzwl %ax,%ebx
    a9c3:	0f bf 85 94 d9 ff ff 	movswl -0x266c(%rbp),%eax
    a9ca:	be 06 00 00 00       	mov    $0x6,%esi
    a9cf:	89 c7                	mov    %eax,%edi
    a9d1:	e8 bc ba ff ff       	callq  6492 <safe_lshift_func_int16_t_s_s>
    a9d6:	48 8d 05 fb af 00 00 	lea    0xaffb(%rip),%rax        # 159d8 <g_258>
    a9dd:	48 89 85 d8 db ff ff 	mov    %rax,-0x2428(%rbp)
    a9e4:	48 8d 05 95 86 00 00 	lea    0x8695(%rip),%rax        # 13080 <g_620>
    a9eb:	48 39 85 d8 db ff ff 	cmp    %rax,-0x2428(%rbp)
    a9f2:	0f 94 c0             	sete   %al
    a9f5:	0f b6 d0             	movzbl %al,%edx
    a9f8:	48 8b 85 60 dd ff ff 	mov    -0x22a0(%rbp),%rax
    a9ff:	66 89 10             	mov    %dx,(%rax)
    aa02:	48 8b 85 60 dd ff ff 	mov    -0x22a0(%rbp),%rax
    aa09:	0f b7 10             	movzwl (%rax),%edx
    aa0c:	0f b7 05 8b 86 00 00 	movzwl 0x868b(%rip),%eax        # 1309e <g_1419>
    aa13:	66 39 c2             	cmp    %ax,%dx
    aa16:	0f 95 c0             	setne  %al
    aa19:	0f b6 c0             	movzbl %al,%eax
    aa1c:	be 04 00 00 00       	mov    $0x4,%esi
    aa21:	89 c7                	mov    %eax,%edi
    aa23:	e8 96 c2 ff ff       	callq  6cbe <safe_rshift_func_uint8_t_u_u>
    aa28:	0f b6 d0             	movzbl %al,%edx
    aa2b:	0f bf 85 9c d9 ff ff 	movswl -0x2664(%rbp),%eax
    aa32:	39 c2                	cmp    %eax,%edx
    aa34:	0f 9e c0             	setle  %al
    aa37:	0f b6 c0             	movzbl %al,%eax
    aa3a:	89 de                	mov    %ebx,%esi
    aa3c:	89 c7                	mov    %eax,%edi
    aa3e:	e8 fa c2 ff ff       	callq  6d3d <safe_mul_func_uint16_t_u_u>
    aa43:	66 41 39 c4          	cmp    %ax,%r12w
    aa47:	74 42                	je     aa8b <func_22+0x1b9f>
    aa49:	c7 85 1c da ff ff 00 	movl   $0x0,-0x25e4(%rbp)
    aa50:	00 00 00 
    aa53:	eb 1a                	jmp    aa6f <func_22+0x1b83>
    aa55:	8b 85 1c da ff ff    	mov    -0x25e4(%rbp),%eax
    aa5b:	48 98                	cltq   
    aa5d:	c7 84 85 70 de ff ff 	movl   $0xfffffffd,-0x2190(%rbp,%rax,4)
    aa64:	fd ff ff ff 
    aa68:	83 85 1c da ff ff 01 	addl   $0x1,-0x25e4(%rbp)
    aa6f:	83 bd 1c da ff ff 00 	cmpl   $0x0,-0x25e4(%rbp)
    aa76:	7e dd                	jle    aa55 <func_22+0x1b69>
    aa78:	8b 85 70 de ff ff    	mov    -0x2190(%rbp),%eax
    aa7e:	85 c0                	test   %eax,%eax
    aa80:	0f 84 72 01 00 00    	je     abf8 <func_22+0x1d0c>
    aa86:	e9 e8 04 00 00       	jmpq   af73 <func_22+0x2087>
    aa8b:	48 8b 05 1e a5 00 00 	mov    0xa51e(%rip),%rax        # 14fb0 <g_178>
    aa92:	48 8b 00             	mov    (%rax),%rax
    aa95:	8b 08                	mov    (%rax),%ecx
    aa97:	0f bf 95 94 d9 ff ff 	movswl -0x266c(%rbp),%edx
    aa9e:	48 8b 05 0b a5 00 00 	mov    0xa50b(%rip),%rax        # 14fb0 <g_178>
    aaa5:	48 8b 00             	mov    (%rax),%rax
    aaa8:	31 ca                	xor    %ecx,%edx
    aaaa:	89 10                	mov    %edx,(%rax)
    aaac:	0f b6 05 e9 85 00 00 	movzbl 0x85e9(%rip),%eax        # 1309c <g_1346>
    aab3:	84 c0                	test   %al,%al
    aab5:	74 08                	je     aabf <func_22+0x1bd3>
    aab7:	41 be 05 00 00 00    	mov    $0x5,%r14d
    aabd:	eb 06                	jmp    aac5 <func_22+0x1bd9>
    aabf:	41 be 04 00 00 00    	mov    $0x4,%r14d
    aac5:	48 8b 85 50 dd ff ff 	mov    -0x22b0(%rbp),%rax
    aacc:	8b 10                	mov    (%rax),%edx
    aace:	48 8b 05 73 a5 00 00 	mov    0xa573(%rip),%rax        # 15048 <g_943>
    aad5:	0f b7 00             	movzwl (%rax),%eax
    aad8:	0f b7 c0             	movzwl %ax,%eax
    aadb:	89 d6                	mov    %edx,%esi
    aadd:	89 c7                	mov    %eax,%edi
    aadf:	e8 da c2 ff ff       	callq  6dbe <safe_lshift_func_uint16_t_u_s>
    aae4:	0f b6 c0             	movzbl %al,%eax
    aae7:	89 c6                	mov    %eax,%esi
    aae9:	bf 01 00 00 00       	mov    $0x1,%edi
    aaee:	e8 85 c0 ff ff       	callq  6b78 <safe_sub_func_uint8_t_u_u>
    aaf3:	44 0f b6 e0          	movzbl %al,%r12d
    aaf7:	48 8b 05 1a a5 00 00 	mov    0xa51a(%rip),%rax        # 15018 <g_748>
    aafe:	48 8b 00             	mov    (%rax),%rax
    ab01:	48 8b 00             	mov    (%rax),%rax
    ab04:	49 89 c5             	mov    %rax,%r13
    ab07:	0f b6 05 56 85 00 00 	movzbl 0x8556(%rip),%eax        # 13064 <g_439>
    ab0e:	0f b6 d8             	movzbl %al,%ebx
    ab11:	0f b6 85 aa d9 ff ff 	movzbl -0x2656(%rbp),%eax
    ab18:	0f be d0             	movsbl %al,%edx
    ab1b:	8b 85 d0 d9 ff ff    	mov    -0x2630(%rbp),%eax
    ab21:	83 c0 04             	add    $0x4,%eax
    ab24:	48 63 c8             	movslq %eax,%rcx
    ab27:	48 8d 34 cd 00 00 00 	lea    0x0(,%rcx,8),%rsi
    ab2e:	00 
    ab2f:	48 8d 0d 8a a4 00 00 	lea    0xa48a(%rip),%rcx        # 14fc0 <g_176>
    ab36:	48 8d 3d 7b a4 00 00 	lea    0xa47b(%rip),%rdi        # 14fb8 <g_177>
    ab3d:	48 89 3c 0e          	mov    %rdi,(%rsi,%rcx,1)
    ab41:	48 98                	cltq   
    ab43:	48 8d 0c c5 00 00 00 	lea    0x0(,%rax,8),%rcx
    ab4a:	00 
    ab4b:	48 8d 05 6e a4 00 00 	lea    0xa46e(%rip),%rax        # 14fc0 <g_176>
    ab52:	48 8b 04 01          	mov    (%rcx,%rax,1),%rax
    ab56:	48 39 85 e0 db ff ff 	cmp    %rax,-0x2420(%rbp)
    ab5d:	0f 94 c0             	sete   %al
    ab60:	0f b6 c8             	movzbl %al,%ecx
    ab63:	8b 85 fc d9 ff ff    	mov    -0x2604(%rbp),%eax
    ab69:	21 c8                	and    %ecx,%eax
    ab6b:	89 85 fc d9 ff ff    	mov    %eax,-0x2604(%rbp)
    ab71:	8b 85 fc d9 ff ff    	mov    -0x2604(%rbp),%eax
    ab77:	0f be c0             	movsbl %al,%eax
    ab7a:	89 d6                	mov    %edx,%esi
    ab7c:	89 c7                	mov    %eax,%edi
    ab7e:	e8 6f b6 ff ff       	callq  61f2 <safe_sub_func_int8_t_s_s>
    ab83:	0f be c0             	movsbl %al,%eax
    ab86:	89 de                	mov    %ebx,%esi
    ab88:	89 c7                	mov    %eax,%edi
    ab8a:	e8 3d bb ff ff       	callq  66cc <safe_mod_func_int32_t_s_s>
    ab8f:	0f b7 85 98 d9 ff ff 	movzwl -0x2668(%rbp),%eax
    ab96:	0f b7 d0             	movzwl %ax,%edx
    ab99:	8b 05 01 85 00 00    	mov    0x8501(%rip),%eax        # 130a0 <g_1428>
    ab9f:	83 f8 01             	cmp    $0x1,%eax
    aba2:	0f 97 c0             	seta   %al
    aba5:	0f b6 c0             	movzbl %al,%eax
    aba8:	21 d0                	and    %edx,%eax
    abaa:	48 98                	cltq   
    abac:	4c 89 ee             	mov    %r13,%rsi
    abaf:	48 89 c7             	mov    %rax,%rdi
    abb2:	e8 fd bd ff ff       	callq  69b4 <safe_mod_func_int64_t_s_s>
    abb7:	49 39 c4             	cmp    %rax,%r12
    abba:	0f 9d c0             	setge  %al
    abbd:	0f b6 d0             	movzbl %al,%edx
    abc0:	0f bf 85 9c d9 ff ff 	movswl -0x2664(%rbp),%eax
    abc7:	39 c2                	cmp    %eax,%edx
    abc9:	0f 94 c0             	sete   %al
    abcc:	0f b6 c0             	movzbl %al,%eax
    abcf:	49 39 c6             	cmp    %rax,%r14
    abd2:	0f 9e c0             	setle  %al
    abd5:	0f b6 d0             	movzbl %al,%edx
    abd8:	0f b7 85 98 d9 ff ff 	movzwl -0x2668(%rbp),%eax
    abdf:	0f b7 c0             	movzwl %ax,%eax
    abe2:	39 c2                	cmp    %eax,%edx
    abe4:	0f 9f c0             	setg   %al
    abe7:	0f b6 d0             	movzbl %al,%edx
    abea:	8b 85 ec d9 ff ff    	mov    -0x2614(%rbp),%eax
    abf0:	21 d0                	and    %edx,%eax
    abf2:	89 85 ec d9 ff ff    	mov    %eax,-0x2614(%rbp)
    abf8:	8b 85 d0 d9 ff ff    	mov    -0x2630(%rbp),%eax
    abfe:	83 e8 01             	sub    $0x1,%eax
    ac01:	89 85 d0 d9 ff ff    	mov    %eax,-0x2630(%rbp)
    ac07:	8b 85 d0 d9 ff ff    	mov    -0x2630(%rbp),%eax
    ac0d:	85 c0                	test   %eax,%eax
    ac0f:	0f 89 4b fd ff ff    	jns    a960 <func_22+0x1a74>
    ac15:	e9 59 03 00 00       	jmpq   af73 <func_22+0x2087>
    ac1a:	48 8d 05 2f 84 00 00 	lea    0x842f(%rip),%rax        # 13050 <g_122>
    ac21:	48 89 85 f0 db ff ff 	mov    %rax,-0x2410(%rbp)
    ac28:	48 8d 85 ec d9 ff ff 	lea    -0x2614(%rbp),%rax
    ac2f:	48 89 85 f8 db ff ff 	mov    %rax,-0x2408(%rbp)
    ac36:	48 8d 85 90 e0 ff ff 	lea    -0x1f70(%rbp),%rax
    ac3d:	48 05 98 00 00 00    	add    $0x98,%rax
    ac43:	48 89 85 00 dc ff ff 	mov    %rax,-0x2400(%rbp)
    ac4a:	48 8d 85 cc d9 ff ff 	lea    -0x2634(%rbp),%rax
    ac51:	48 89 85 50 e6 ff ff 	mov    %rax,-0x19b0(%rbp)
    ac58:	48 c7 85 58 e6 ff ff 	movq   $0x0,-0x19a8(%rbp)
    ac5f:	00 00 00 00 
    ac63:	48 c7 85 60 e6 ff ff 	movq   $0x0,-0x19a0(%rbp)
    ac6a:	00 00 00 00 
    ac6e:	48 8d 85 cc d9 ff ff 	lea    -0x2634(%rbp),%rax
    ac75:	48 89 85 68 e6 ff ff 	mov    %rax,-0x1998(%rbp)
    ac7c:	48 c7 85 70 e6 ff ff 	movq   $0x0,-0x1990(%rbp)
    ac83:	00 00 00 00 
    ac87:	48 c7 85 78 e6 ff ff 	movq   $0x0,-0x1988(%rbp)
    ac8e:	00 00 00 00 
    ac92:	48 8d 85 cc d9 ff ff 	lea    -0x2634(%rbp),%rax
    ac99:	48 89 85 80 e6 ff ff 	mov    %rax,-0x1980(%rbp)
    aca0:	48 c7 85 88 e6 ff ff 	movq   $0x0,-0x1978(%rbp)
    aca7:	00 00 00 00 
    acab:	48 8d 05 9e 83 00 00 	lea    0x839e(%rip),%rax        # 13050 <g_122>
    acb2:	48 89 85 90 e6 ff ff 	mov    %rax,-0x1970(%rbp)
    acb9:	48 c7 85 98 e6 ff ff 	movq   $0x0,-0x1968(%rbp)
    acc0:	00 00 00 00 
    acc4:	48 c7 85 a0 e6 ff ff 	movq   $0x0,-0x1960(%rbp)
    accb:	00 00 00 00 
    accf:	48 8d 05 7a 83 00 00 	lea    0x837a(%rip),%rax        # 13050 <g_122>
    acd6:	48 89 85 a8 e6 ff ff 	mov    %rax,-0x1958(%rbp)
    acdd:	48 c7 85 b0 e6 ff ff 	movq   $0x0,-0x1950(%rbp)
    ace4:	00 00 00 00 
    ace8:	48 c7 85 b8 e6 ff ff 	movq   $0x0,-0x1948(%rbp)
    acef:	00 00 00 00 
    acf3:	48 8d 85 cc d9 ff ff 	lea    -0x2634(%rbp),%rax
    acfa:	48 89 85 c0 e6 ff ff 	mov    %rax,-0x1940(%rbp)
    ad01:	48 8d 85 cc d9 ff ff 	lea    -0x2634(%rbp),%rax
    ad08:	48 89 85 c8 e6 ff ff 	mov    %rax,-0x1938(%rbp)
    ad0f:	48 8d 05 3a 83 00 00 	lea    0x833a(%rip),%rax        # 13050 <g_122>
    ad16:	48 89 85 d0 e6 ff ff 	mov    %rax,-0x1930(%rbp)
    ad1d:	48 8d 85 cc d9 ff ff 	lea    -0x2634(%rbp),%rax
    ad24:	48 89 85 d8 e6 ff ff 	mov    %rax,-0x1928(%rbp)
    ad2b:	48 8d 85 cc d9 ff ff 	lea    -0x2634(%rbp),%rax
    ad32:	48 89 85 e0 e6 ff ff 	mov    %rax,-0x1920(%rbp)
    ad39:	48 8d 05 10 83 00 00 	lea    0x8310(%rip),%rax        # 13050 <g_122>
    ad40:	48 89 85 e8 e6 ff ff 	mov    %rax,-0x1918(%rbp)
    ad47:	48 8d 85 cc d9 ff ff 	lea    -0x2634(%rbp),%rax
    ad4e:	48 89 85 f0 e6 ff ff 	mov    %rax,-0x1910(%rbp)
    ad55:	48 8d 05 f4 82 00 00 	lea    0x82f4(%rip),%rax        # 13050 <g_122>
    ad5c:	48 89 85 f8 e6 ff ff 	mov    %rax,-0x1908(%rbp)
    ad63:	48 c7 85 00 e7 ff ff 	movq   $0x0,-0x1900(%rbp)
    ad6a:	00 00 00 00 
    ad6e:	48 c7 85 08 e7 ff ff 	movq   $0x0,-0x18f8(%rbp)
    ad75:	00 00 00 00 
    ad79:	48 8d 05 d0 82 00 00 	lea    0x82d0(%rip),%rax        # 13050 <g_122>
    ad80:	48 89 85 10 e7 ff ff 	mov    %rax,-0x18f0(%rbp)
    ad87:	48 c7 85 18 e7 ff ff 	movq   $0x0,-0x18e8(%rbp)
    ad8e:	00 00 00 00 
    ad92:	48 c7 85 20 e7 ff ff 	movq   $0x0,-0x18e0(%rbp)
    ad99:	00 00 00 00 
    ad9d:	48 8d 05 ac 82 00 00 	lea    0x82ac(%rip),%rax        # 13050 <g_122>
    ada4:	48 89 85 28 e7 ff ff 	mov    %rax,-0x18d8(%rbp)
    adab:	48 c7 85 30 e7 ff ff 	movq   $0x0,-0x18d0(%rbp)
    adb2:	00 00 00 00 
    adb6:	48 8d 85 cc d9 ff ff 	lea    -0x2634(%rbp),%rax
    adbd:	48 89 85 38 e7 ff ff 	mov    %rax,-0x18c8(%rbp)
    adc4:	48 c7 85 40 e7 ff ff 	movq   $0x0,-0x18c0(%rbp)
    adcb:	00 00 00 00 
    adcf:	48 c7 85 48 e7 ff ff 	movq   $0x0,-0x18b8(%rbp)
    add6:	00 00 00 00 
    adda:	48 8d 85 cc d9 ff ff 	lea    -0x2634(%rbp),%rax
    ade1:	48 89 85 50 e7 ff ff 	mov    %rax,-0x18b0(%rbp)
    ade8:	48 c7 85 58 e7 ff ff 	movq   $0x0,-0x18a8(%rbp)
    adef:	00 00 00 00 
    adf3:	48 c7 85 60 e7 ff ff 	movq   $0x0,-0x18a0(%rbp)
    adfa:	00 00 00 00 
    adfe:	48 8d 05 4b 82 00 00 	lea    0x824b(%rip),%rax        # 13050 <g_122>
    ae05:	48 89 85 68 e7 ff ff 	mov    %rax,-0x1898(%rbp)
    ae0c:	48 8d 05 3d 82 00 00 	lea    0x823d(%rip),%rax        # 13050 <g_122>
    ae13:	48 89 85 70 e7 ff ff 	mov    %rax,-0x1890(%rbp)
    ae1a:	48 8d 05 2f 82 00 00 	lea    0x822f(%rip),%rax        # 13050 <g_122>
    ae21:	48 89 85 78 e7 ff ff 	mov    %rax,-0x1888(%rbp)
    ae28:	48 8d 05 21 82 00 00 	lea    0x8221(%rip),%rax        # 13050 <g_122>
    ae2f:	48 89 85 80 e7 ff ff 	mov    %rax,-0x1880(%rbp)
    ae36:	48 8d 05 13 82 00 00 	lea    0x8213(%rip),%rax        # 13050 <g_122>
    ae3d:	48 89 85 88 e7 ff ff 	mov    %rax,-0x1878(%rbp)
    ae44:	48 8d 05 05 82 00 00 	lea    0x8205(%rip),%rax        # 13050 <g_122>
    ae4b:	48 89 85 90 e7 ff ff 	mov    %rax,-0x1870(%rbp)
    ae52:	48 8d 05 f7 81 00 00 	lea    0x81f7(%rip),%rax        # 13050 <g_122>
    ae59:	48 89 85 98 e7 ff ff 	mov    %rax,-0x1868(%rbp)
    ae60:	48 8d 85 cc d9 ff ff 	lea    -0x2634(%rbp),%rax
    ae67:	48 89 85 a0 e7 ff ff 	mov    %rax,-0x1860(%rbp)
    ae6e:	48 c7 85 a8 e7 ff ff 	movq   $0x0,-0x1858(%rbp)
    ae75:	00 00 00 00 
    ae79:	48 c7 85 b0 e7 ff ff 	movq   $0x0,-0x1850(%rbp)
    ae80:	00 00 00 00 
    ae84:	48 8d 85 cc d9 ff ff 	lea    -0x2634(%rbp),%rax
    ae8b:	48 89 85 b8 e7 ff ff 	mov    %rax,-0x1848(%rbp)
    ae92:	48 c7 85 c0 e7 ff ff 	movq   $0x0,-0x1840(%rbp)
    ae99:	00 00 00 00 
    ae9d:	48 c7 85 c8 e7 ff ff 	movq   $0x0,-0x1838(%rbp)
    aea4:	00 00 00 00 
    aea8:	48 8d 85 cc d9 ff ff 	lea    -0x2634(%rbp),%rax
    aeaf:	48 89 85 d0 e7 ff ff 	mov    %rax,-0x1830(%rbp)
    aeb6:	48 c7 85 d8 e7 ff ff 	movq   $0x0,-0x1828(%rbp)
    aebd:	00 00 00 00 
    aec1:	48 8d 05 88 81 00 00 	lea    0x8188(%rip),%rax        # 13050 <g_122>
    aec8:	48 89 85 e0 e7 ff ff 	mov    %rax,-0x1820(%rbp)
    aecf:	48 c7 85 e8 e7 ff ff 	movq   $0x0,-0x1818(%rbp)
    aed6:	00 00 00 00 
    aeda:	48 c7 85 f0 e7 ff ff 	movq   $0x0,-0x1810(%rbp)
    aee1:	00 00 00 00 
    aee5:	48 8d 05 64 81 00 00 	lea    0x8164(%rip),%rax        # 13050 <g_122>
    aeec:	48 89 85 f8 e7 ff ff 	mov    %rax,-0x1808(%rbp)
    aef3:	48 c7 85 00 e8 ff ff 	movq   $0x0,-0x1800(%rbp)
    aefa:	00 00 00 00 
    aefe:	48 c7 85 08 e8 ff ff 	movq   $0x0,-0x17f8(%rbp)
    af05:	00 00 00 00 
    af09:	48 8d 85 cc d9 ff ff 	lea    -0x2634(%rbp),%rax
    af10:	48 89 85 10 e8 ff ff 	mov    %rax,-0x17f0(%rbp)
    af17:	48 8d 85 cc d9 ff ff 	lea    -0x2634(%rbp),%rax
    af1e:	48 89 85 18 e8 ff ff 	mov    %rax,-0x17e8(%rbp)
    af25:	48 8d 05 24 81 00 00 	lea    0x8124(%rip),%rax        # 13050 <g_122>
    af2c:	48 89 85 20 e8 ff ff 	mov    %rax,-0x17e0(%rbp)
    af33:	48 8d 85 cc d9 ff ff 	lea    -0x2634(%rbp),%rax
    af3a:	48 89 85 28 e8 ff ff 	mov    %rax,-0x17d8(%rbp)
    af41:	48 8d 85 cc d9 ff ff 	lea    -0x2634(%rbp),%rax
    af48:	48 89 85 30 e8 ff ff 	mov    %rax,-0x17d0(%rbp)
    af4f:	48 8d 05 fa 80 00 00 	lea    0x80fa(%rip),%rax        # 13050 <g_122>
    af56:	48 89 85 38 e8 ff ff 	mov    %rax,-0x17c8(%rbp)
    af5d:	48 8d 85 cc d9 ff ff 	lea    -0x2634(%rbp),%rax
    af64:	48 89 85 40 e8 ff ff 	mov    %rax,-0x17c0(%rbp)
    af6b:	66 83 ad b4 d9 ff ff 	subw   $0x1,-0x264c(%rbp)
    af72:	01 
    af73:	c7 85 fc d9 ff ff 0c 	movl   $0xc,-0x2604(%rbp)
    af7a:	00 00 00 
    af7d:	e9 ea 00 00 00       	jmpq   b06c <func_22+0x2180>
    af82:	c7 85 d0 da ff ff 01 	movl   $0x1,-0x2530(%rbp)
    af89:	00 00 00 
    af8c:	48 8d 85 90 e0 ff ff 	lea    -0x1f70(%rbp),%rax
    af93:	48 05 98 00 00 00    	add    $0x98,%rax
    af99:	48 89 85 d0 dd ff ff 	mov    %rax,-0x2230(%rbp)
    afa0:	48 8d 05 99 80 00 00 	lea    0x8099(%rip),%rax        # 13040 <g_85>
    afa7:	48 89 85 d8 dd ff ff 	mov    %rax,-0x2228(%rbp)
    afae:	48 c7 85 e0 dd ff ff 	movq   $0x0,-0x2220(%rbp)
    afb5:	00 00 00 00 
    afb9:	c7 85 d4 da ff ff 01 	movl   $0x1,-0x252c(%rbp)
    afc0:	00 00 00 
    afc3:	48 c7 85 e8 dd ff ff 	movq   $0x0,-0x2218(%rbp)
    afca:	00 00 00 00 
    afce:	48 8d 85 d4 d9 ff ff 	lea    -0x262c(%rbp),%rax
    afd5:	48 89 85 f0 dd ff ff 	mov    %rax,-0x2210(%rbp)
    afdc:	48 8d 05 6d 80 00 00 	lea    0x806d(%rip),%rax        # 13050 <g_122>
    afe3:	48 89 85 50 e6 ff ff 	mov    %rax,-0x19b0(%rbp)
    afea:	48 8d 85 d8 d9 ff ff 	lea    -0x2628(%rbp),%rax
    aff1:	48 89 85 58 e6 ff ff 	mov    %rax,-0x19a8(%rbp)
    aff8:	48 8d 85 d8 d9 ff ff 	lea    -0x2628(%rbp),%rax
    afff:	48 89 85 60 e6 ff ff 	mov    %rax,-0x19a0(%rbp)
    b006:	48 8d 05 43 80 00 00 	lea    0x8043(%rip),%rax        # 13050 <g_122>
    b00d:	48 89 85 68 e6 ff ff 	mov    %rax,-0x1998(%rbp)
    b014:	48 8d 85 d8 d9 ff ff 	lea    -0x2628(%rbp),%rax
    b01b:	48 89 85 70 e6 ff ff 	mov    %rax,-0x1990(%rbp)
    b022:	48 8d 85 d8 d9 ff ff 	lea    -0x2628(%rbp),%rax
    b029:	48 89 85 78 e6 ff ff 	mov    %rax,-0x1988(%rbp)
    b030:	48 8d 05 19 80 00 00 	lea    0x8019(%rip),%rax        # 13050 <g_122>
    b037:	48 89 85 80 e6 ff ff 	mov    %rax,-0x1980(%rbp)
    b03e:	48 8d 85 d8 d9 ff ff 	lea    -0x2628(%rbp),%rax
    b045:	48 89 85 88 e6 ff ff 	mov    %rax,-0x1978(%rbp)
    b04c:	c7 85 d8 da ff ff ff 	movl   $0xffffffff,-0x2528(%rbp)
    b053:	ff ff ff 
    b056:	83 ad d8 da ff ff 01 	subl   $0x1,-0x2528(%rbp)
    b05d:	8b 85 fc d9 ff ff    	mov    -0x2604(%rbp),%eax
    b063:	83 c0 01             	add    $0x1,%eax
    b066:	89 85 fc d9 ff ff    	mov    %eax,-0x2604(%rbp)
    b06c:	8b 85 fc d9 ff ff    	mov    -0x2604(%rbp),%eax
    b072:	83 f8 19             	cmp    $0x19,%eax
    b075:	0f 84 07 ff ff ff    	je     af82 <func_22+0x2096>
    b07b:	c7 05 03 80 00 00 fa 	movl   $0xfffffffa,0x8003(%rip)        # 13088 <g_1247>
    b082:	ff ff ff 
    b085:	e9 02 05 00 00       	jmpq   b58c <func_22+0x26a0>
    b08a:	48 8d 85 f8 d9 ff ff 	lea    -0x2608(%rbp),%rax
    b091:	48 89 85 70 dd ff ff 	mov    %rax,-0x2290(%rbp)
    b098:	48 8d 85 cc d9 ff ff 	lea    -0x2634(%rbp),%rax
    b09f:	48 89 85 78 dd ff ff 	mov    %rax,-0x2288(%rbp)
    b0a6:	48 8d 85 ec d9 ff ff 	lea    -0x2614(%rbp),%rax
    b0ad:	48 89 85 80 dd ff ff 	mov    %rax,-0x2280(%rbp)
    b0b4:	48 8d 05 95 7f 00 00 	lea    0x7f95(%rip),%rax        # 13050 <g_122>
    b0bb:	48 89 85 88 dd ff ff 	mov    %rax,-0x2278(%rbp)
    b0c2:	48 8d 85 f8 d9 ff ff 	lea    -0x2608(%rbp),%rax
    b0c9:	48 89 85 90 dd ff ff 	mov    %rax,-0x2270(%rbp)
    b0d0:	48 8d 05 69 7f 00 00 	lea    0x7f69(%rip),%rax        # 13040 <g_85>
    b0d7:	48 89 85 98 dd ff ff 	mov    %rax,-0x2268(%rbp)
    b0de:	48 c7 85 a0 dd ff ff 	movq   $0x0,-0x2260(%rbp)
    b0e5:	00 00 00 00 
    b0e9:	48 8d 85 f0 d9 ff ff 	lea    -0x2610(%rbp),%rax
    b0f0:	48 89 85 a8 dd ff ff 	mov    %rax,-0x2258(%rbp)
    b0f7:	48 8d 85 f4 d9 ff ff 	lea    -0x260c(%rbp),%rax
    b0fe:	48 89 85 b0 dd ff ff 	mov    %rax,-0x2250(%rbp)
    b105:	48 8d 85 fc d9 ff ff 	lea    -0x2604(%rbp),%rax
    b10c:	48 89 85 b8 dd ff ff 	mov    %rax,-0x2248(%rbp)
    b113:	48 8d 85 cc d9 ff ff 	lea    -0x2634(%rbp),%rax
    b11a:	48 89 85 c0 dd ff ff 	mov    %rax,-0x2240(%rbp)
    b121:	48 8d 85 00 df ff ff 	lea    -0x2100(%rbp),%rax
    b128:	48 83 c0 2c          	add    $0x2c,%rax
    b12c:	48 89 85 c8 dd ff ff 	mov    %rax,-0x2238(%rbp)
    b133:	48 8d 85 90 e0 ff ff 	lea    -0x1f70(%rbp),%rax
    b13a:	48 05 98 00 00 00    	add    $0x98,%rax
    b140:	48 89 85 70 e1 ff ff 	mov    %rax,-0x1e90(%rbp)
    b147:	48 c7 85 78 e1 ff ff 	movq   $0x0,-0x1e88(%rbp)
    b14e:	00 00 00 00 
    b152:	48 8d 85 90 e0 ff ff 	lea    -0x1f70(%rbp),%rax
    b159:	48 05 98 00 00 00    	add    $0x98,%rax
    b15f:	48 89 85 80 e1 ff ff 	mov    %rax,-0x1e80(%rbp)
    b166:	48 c7 85 88 e1 ff ff 	movq   $0x0,-0x1e78(%rbp)
    b16d:	00 00 00 00 
    b171:	48 8d 85 90 e0 ff ff 	lea    -0x1f70(%rbp),%rax
    b178:	48 05 98 00 00 00    	add    $0x98,%rax
    b17e:	48 89 85 90 e1 ff ff 	mov    %rax,-0x1e70(%rbp)
    b185:	48 8d 85 d0 d9 ff ff 	lea    -0x2630(%rbp),%rax
    b18c:	48 89 85 98 e1 ff ff 	mov    %rax,-0x1e68(%rbp)
    b193:	48 8d 85 d0 d9 ff ff 	lea    -0x2630(%rbp),%rax
    b19a:	48 89 85 a0 e1 ff ff 	mov    %rax,-0x1e60(%rbp)
    b1a1:	48 8d 85 dc d9 ff ff 	lea    -0x2624(%rbp),%rax
    b1a8:	48 89 85 a8 e1 ff ff 	mov    %rax,-0x1e58(%rbp)
    b1af:	48 8d 85 dc d9 ff ff 	lea    -0x2624(%rbp),%rax
    b1b6:	48 89 85 b0 e1 ff ff 	mov    %rax,-0x1e50(%rbp)
    b1bd:	48 8d 85 d0 d9 ff ff 	lea    -0x2630(%rbp),%rax
    b1c4:	48 89 85 b8 e1 ff ff 	mov    %rax,-0x1e48(%rbp)
    b1cb:	48 8d 85 d8 d9 ff ff 	lea    -0x2628(%rbp),%rax
    b1d2:	48 89 85 c0 e1 ff ff 	mov    %rax,-0x1e40(%rbp)
    b1d9:	48 c7 85 c8 e1 ff ff 	movq   $0x0,-0x1e38(%rbp)
    b1e0:	00 00 00 00 
    b1e4:	48 8d 85 d8 d9 ff ff 	lea    -0x2628(%rbp),%rax
    b1eb:	48 89 85 d0 e1 ff ff 	mov    %rax,-0x1e30(%rbp)
    b1f2:	48 c7 85 d8 e1 ff ff 	movq   $0x0,-0x1e28(%rbp)
    b1f9:	00 00 00 00 
    b1fd:	48 8d 85 d8 d9 ff ff 	lea    -0x2628(%rbp),%rax
    b204:	48 89 85 e0 e1 ff ff 	mov    %rax,-0x1e20(%rbp)
    b20b:	48 8d 85 d0 d9 ff ff 	lea    -0x2630(%rbp),%rax
    b212:	48 89 85 e8 e1 ff ff 	mov    %rax,-0x1e18(%rbp)
    b219:	48 8d 85 dc d9 ff ff 	lea    -0x2624(%rbp),%rax
    b220:	48 89 85 f0 e1 ff ff 	mov    %rax,-0x1e10(%rbp)
    b227:	48 8d 85 dc d9 ff ff 	lea    -0x2624(%rbp),%rax
    b22e:	48 89 85 f8 e1 ff ff 	mov    %rax,-0x1e08(%rbp)
    b235:	48 8d 85 d0 d9 ff ff 	lea    -0x2630(%rbp),%rax
    b23c:	48 89 85 00 e2 ff ff 	mov    %rax,-0x1e00(%rbp)
    b243:	48 8d 85 d0 d9 ff ff 	lea    -0x2630(%rbp),%rax
    b24a:	48 89 85 08 e2 ff ff 	mov    %rax,-0x1df8(%rbp)
    b251:	48 8d 85 90 e0 ff ff 	lea    -0x1f70(%rbp),%rax
    b258:	48 05 98 00 00 00    	add    $0x98,%rax
    b25e:	48 89 85 10 e2 ff ff 	mov    %rax,-0x1df0(%rbp)
    b265:	48 c7 85 18 e2 ff ff 	movq   $0x0,-0x1de8(%rbp)
    b26c:	00 00 00 00 
    b270:	48 8d 85 90 e0 ff ff 	lea    -0x1f70(%rbp),%rax
    b277:	48 05 98 00 00 00    	add    $0x98,%rax
    b27d:	48 89 85 20 e2 ff ff 	mov    %rax,-0x1de0(%rbp)
    b284:	48 c7 85 28 e2 ff ff 	movq   $0x0,-0x1dd8(%rbp)
    b28b:	00 00 00 00 
    b28f:	48 8d 85 90 e0 ff ff 	lea    -0x1f70(%rbp),%rax
    b296:	48 05 98 00 00 00    	add    $0x98,%rax
    b29c:	48 89 85 30 e2 ff ff 	mov    %rax,-0x1dd0(%rbp)
    b2a3:	48 8d 85 d0 d9 ff ff 	lea    -0x2630(%rbp),%rax
    b2aa:	48 89 85 38 e2 ff ff 	mov    %rax,-0x1dc8(%rbp)
    b2b1:	48 8d 85 d0 d9 ff ff 	lea    -0x2630(%rbp),%rax
    b2b8:	48 89 85 40 e2 ff ff 	mov    %rax,-0x1dc0(%rbp)
    b2bf:	48 8d 85 dc d9 ff ff 	lea    -0x2624(%rbp),%rax
    b2c6:	48 89 85 48 e2 ff ff 	mov    %rax,-0x1db8(%rbp)
    b2cd:	48 8d 85 dc d9 ff ff 	lea    -0x2624(%rbp),%rax
    b2d4:	48 89 85 50 e2 ff ff 	mov    %rax,-0x1db0(%rbp)
    b2db:	48 8d 85 d0 d9 ff ff 	lea    -0x2630(%rbp),%rax
    b2e2:	48 89 85 58 e2 ff ff 	mov    %rax,-0x1da8(%rbp)
    b2e9:	48 8d 85 d8 d9 ff ff 	lea    -0x2628(%rbp),%rax
    b2f0:	48 89 85 60 e2 ff ff 	mov    %rax,-0x1da0(%rbp)
    b2f7:	48 c7 85 68 e2 ff ff 	movq   $0x0,-0x1d98(%rbp)
    b2fe:	00 00 00 00 
    b302:	48 8d 85 d8 d9 ff ff 	lea    -0x2628(%rbp),%rax
    b309:	48 89 85 70 e2 ff ff 	mov    %rax,-0x1d90(%rbp)
    b310:	48 c7 85 78 e2 ff ff 	movq   $0x0,-0x1d88(%rbp)
    b317:	00 00 00 00 
    b31b:	48 8d 85 d8 d9 ff ff 	lea    -0x2628(%rbp),%rax
    b322:	48 89 85 80 e2 ff ff 	mov    %rax,-0x1d80(%rbp)
    b329:	48 8d 85 d0 d9 ff ff 	lea    -0x2630(%rbp),%rax
    b330:	48 89 85 88 e2 ff ff 	mov    %rax,-0x1d78(%rbp)
    b337:	48 8d 85 dc d9 ff ff 	lea    -0x2624(%rbp),%rax
    b33e:	48 89 85 90 e2 ff ff 	mov    %rax,-0x1d70(%rbp)
    b345:	48 8d 85 dc d9 ff ff 	lea    -0x2624(%rbp),%rax
    b34c:	48 89 85 98 e2 ff ff 	mov    %rax,-0x1d68(%rbp)
    b353:	48 8d 85 d0 d9 ff ff 	lea    -0x2630(%rbp),%rax
    b35a:	48 89 85 a0 e2 ff ff 	mov    %rax,-0x1d60(%rbp)
    b361:	48 8d 85 d0 d9 ff ff 	lea    -0x2630(%rbp),%rax
    b368:	48 89 85 a8 e2 ff ff 	mov    %rax,-0x1d58(%rbp)
    b36f:	48 8d 85 90 e0 ff ff 	lea    -0x1f70(%rbp),%rax
    b376:	48 05 98 00 00 00    	add    $0x98,%rax
    b37c:	48 89 85 b0 e2 ff ff 	mov    %rax,-0x1d50(%rbp)
    b383:	48 c7 85 b8 e2 ff ff 	movq   $0x0,-0x1d48(%rbp)
    b38a:	00 00 00 00 
    b38e:	48 8d 85 90 e0 ff ff 	lea    -0x1f70(%rbp),%rax
    b395:	48 05 98 00 00 00    	add    $0x98,%rax
    b39b:	48 89 85 c0 e2 ff ff 	mov    %rax,-0x1d40(%rbp)
    b3a2:	48 c7 85 c8 e2 ff ff 	movq   $0x0,-0x1d38(%rbp)
    b3a9:	00 00 00 00 
    b3ad:	48 8d 85 90 e0 ff ff 	lea    -0x1f70(%rbp),%rax
    b3b4:	48 05 98 00 00 00    	add    $0x98,%rax
    b3ba:	48 89 85 d0 e2 ff ff 	mov    %rax,-0x1d30(%rbp)
    b3c1:	48 8d 85 d0 d9 ff ff 	lea    -0x2630(%rbp),%rax
    b3c8:	48 89 85 d8 e2 ff ff 	mov    %rax,-0x1d28(%rbp)
    b3cf:	48 8d 85 d0 d9 ff ff 	lea    -0x2630(%rbp),%rax
    b3d6:	48 89 85 e0 e2 ff ff 	mov    %rax,-0x1d20(%rbp)
    b3dd:	48 8d 85 dc d9 ff ff 	lea    -0x2624(%rbp),%rax
    b3e4:	48 89 85 e8 e2 ff ff 	mov    %rax,-0x1d18(%rbp)
    b3eb:	48 8d 85 dc d9 ff ff 	lea    -0x2624(%rbp),%rax
    b3f2:	48 89 85 f0 e2 ff ff 	mov    %rax,-0x1d10(%rbp)
    b3f9:	48 8d 85 d0 d9 ff ff 	lea    -0x2630(%rbp),%rax
    b400:	48 89 85 f8 e2 ff ff 	mov    %rax,-0x1d08(%rbp)
    b407:	48 8d 85 50 e6 ff ff 	lea    -0x19b0(%rbp),%rax
    b40e:	48 8d 15 cb 46 00 00 	lea    0x46cb(%rip),%rdx        # fae0 <g_2338+0xa78>
    b415:	b9 36 00 00 00       	mov    $0x36,%ecx
    b41a:	48 89 c7             	mov    %rax,%rdi
    b41d:	48 89 d6             	mov    %rdx,%rsi
    b420:	f3 48 a5             	rep movsq %ds:(%rsi),%es:(%rdi)
    b423:	c7 85 b8 da ff ff 00 	movl   $0x0,-0x2548(%rbp)
    b42a:	00 00 00 
    b42d:	eb 76                	jmp    b4a5 <func_22+0x25b9>
    b42f:	c7 85 bc da ff ff 00 	movl   $0x0,-0x2544(%rbp)
    b436:	00 00 00 
    b439:	eb 5a                	jmp    b495 <func_22+0x25a9>
    b43b:	c7 85 c0 da ff ff 00 	movl   $0x0,-0x2540(%rbp)
    b442:	00 00 00 
    b445:	eb 3e                	jmp    b485 <func_22+0x2599>
    b447:	8b 85 c0 da ff ff    	mov    -0x2540(%rbp),%eax
    b44d:	48 63 c8             	movslq %eax,%rcx
    b450:	8b 85 b8 da ff ff    	mov    -0x2548(%rbp),%eax
    b456:	48 63 d0             	movslq %eax,%rdx
    b459:	8b 85 bc da ff ff    	mov    -0x2544(%rbp),%eax
    b45f:	48 98                	cltq   
    b461:	48 01 c2             	add    %rax,%rdx
    b464:	48 89 d0             	mov    %rdx,%rax
    b467:	48 01 c0             	add    %rax,%rax
    b46a:	48 01 d0             	add    %rdx,%rax
    b46d:	48 01 c0             	add    %rax,%rax
    b470:	48 01 c8             	add    %rcx,%rax
    b473:	c7 84 85 00 df ff ff 	movl   $0x1,-0x2100(%rbp,%rax,4)
    b47a:	01 00 00 00 
    b47e:	83 85 c0 da ff ff 01 	addl   $0x1,-0x2540(%rbp)
    b485:	83 bd c0 da ff ff 05 	cmpl   $0x5,-0x2540(%rbp)
    b48c:	7e b9                	jle    b447 <func_22+0x255b>
    b48e:	83 85 bc da ff ff 01 	addl   $0x1,-0x2544(%rbp)
    b495:	83 bd bc da ff ff 00 	cmpl   $0x0,-0x2544(%rbp)
    b49c:	7e 9d                	jle    b43b <func_22+0x254f>
    b49e:	83 85 b8 da ff ff 01 	addl   $0x1,-0x2548(%rbp)
    b4a5:	83 bd b8 da ff ff 01 	cmpl   $0x1,-0x2548(%rbp)
    b4ac:	7e 81                	jle    b42f <func_22+0x2543>
    b4ae:	c7 85 24 da ff ff 00 	movl   $0x0,-0x25dc(%rbp)
    b4b5:	00 00 00 
    b4b8:	e9 a2 00 00 00       	jmpq   b55f <func_22+0x2673>
    b4bd:	c7 85 cc da ff ff 02 	movl   $0x2,-0x2534(%rbp)
    b4c4:	00 00 00 
    b4c7:	48 8b 85 50 dd ff ff 	mov    -0x22b0(%rbp),%rax
    b4ce:	8b 30                	mov    (%rax),%esi
    b4d0:	48 8b 05 91 7b 00 00 	mov    0x7b91(%rip),%rax        # 13068 <g_492>
    b4d7:	48 83 c0 06          	add    $0x6,%rax
    b4db:	48 8b 0d 86 7b 00 00 	mov    0x7b86(%rip),%rcx        # 13068 <g_492>
    b4e2:	8b 95 24 da ff ff    	mov    -0x25dc(%rbp),%edx
    b4e8:	83 c2 02             	add    $0x2,%edx
    b4eb:	89 d7                	mov    %edx,%edi
    b4ed:	48 89 c2             	mov    %rax,%rdx
    b4f0:	48 01 d2             	add    %rdx,%rdx
    b4f3:	48 01 c2             	add    %rax,%rdx
    b4f6:	48 8d 04 d5 00 00 00 	lea    0x0(,%rdx,8),%rax
    b4fd:	00 
    b4fe:	48 89 c2             	mov    %rax,%rdx
    b501:	48 89 c8             	mov    %rcx,%rax
    b504:	48 01 c0             	add    %rax,%rax
    b507:	48 01 c8             	add    %rcx,%rax
    b50a:	48 01 c0             	add    %rax,%rax
    b50d:	48 01 d0             	add    %rdx,%rax
    b510:	48 01 f8             	add    %rdi,%rax
    b513:	48 8b 84 c5 30 f8 ff 	mov    -0x7d0(%rbp,%rax,8),%rax
    b51a:	ff 
    b51b:	48 85 c0             	test   %rax,%rax
    b51e:	0f 94 c0             	sete   %al
    b521:	0f b6 c0             	movzbl %al,%eax
    b524:	21 c6                	and    %eax,%esi
    b526:	89 f2                	mov    %esi,%edx
    b528:	48 8b 85 50 dd ff ff 	mov    -0x22b0(%rbp),%rax
    b52f:	89 10                	mov    %edx,(%rax)
    b531:	0f b7 05 6c 7b 00 00 	movzwl 0x7b6c(%rip),%eax        # 130a4 <g_1463>
    b538:	83 e8 01             	sub    $0x1,%eax
    b53b:	66 89 05 62 7b 00 00 	mov    %ax,0x7b62(%rip)        # 130a4 <g_1463>
    b542:	48 8b 85 48 dd ff ff 	mov    -0x22b8(%rbp),%rax
    b549:	48 8b 00             	mov    (%rax),%rax
    b54c:	48 8b 00             	mov    (%rax),%rax
    b54f:	0f bf 95 9c d9 ff ff 	movswl -0x2664(%rbp),%edx
    b556:	89 10                	mov    %edx,(%rax)
    b558:	83 85 24 da ff ff 01 	addl   $0x1,-0x25dc(%rbp)
    b55f:	83 bd 24 da ff ff 03 	cmpl   $0x3,-0x25dc(%rbp)
    b566:	0f 86 51 ff ff ff    	jbe    b4bd <func_22+0x25d1>
    b56c:	0f b7 85 96 e6 ff ff 	movzwl -0x196a(%rbp),%eax
    b573:	83 c0 01             	add    $0x1,%eax
    b576:	66 89 85 96 e6 ff ff 	mov    %ax,-0x196a(%rbp)
    b57d:	8b 05 05 7b 00 00    	mov    0x7b05(%rip),%eax        # 13088 <g_1247>
    b583:	83 c0 01             	add    $0x1,%eax
    b586:	89 05 fc 7a 00 00    	mov    %eax,0x7afc(%rip)        # 13088 <g_1247>
    b58c:	8b 05 f6 7a 00 00    	mov    0x7af6(%rip),%eax        # 13088 <g_1247>
    b592:	83 f8 17             	cmp    $0x17,%eax
    b595:	0f 87 ef fa ff ff    	ja     b08a <func_22+0x219e>
    b59b:	48 8b 05 be 9a 00 00 	mov    0x9abe(%rip),%rax        # 15060 <g_1013>
    b5a2:	48 8b 00             	mov    (%rax),%rax
    b5a5:	48 8b 00             	mov    (%rax),%rax
    b5a8:	48 8b 18             	mov    (%rax),%rbx
    b5ab:	48 8b 85 48 dd ff ff 	mov    -0x22b8(%rbp),%rax
    b5b2:	48 8b 00             	mov    (%rax),%rax
    b5b5:	48 8b 00             	mov    (%rax),%rax
    b5b8:	8b 00                	mov    (%rax),%eax
    b5ba:	48 63 d0             	movslq %eax,%rdx
    b5bd:	48 8b 85 68 dd ff ff 	mov    -0x2298(%rbp),%rax
    b5c4:	48 8b 00             	mov    (%rax),%rax
    b5c7:	8b 0d bb 7a 00 00    	mov    0x7abb(%rip),%ecx        # 13088 <g_1247>
    b5cd:	89 08                	mov    %ecx,(%rax)
    b5cf:	8b 00                	mov    (%rax),%eax
    b5d1:	85 c0                	test   %eax,%eax
    b5d3:	75 08                	jne    b5dd <func_22+0x26f1>
    b5d5:	66 83 bd 94 d9 ff ff 	cmpw   $0x0,-0x266c(%rbp)
    b5dc:	00 
    b5dd:	48 8b 85 48 dd ff ff 	mov    -0x22b8(%rbp),%rax
    b5e4:	48 8b 00             	mov    (%rax),%rax
    b5e7:	48 8b 00             	mov    (%rax),%rax
    b5ea:	8b 00                	mov    (%rax),%eax
    b5ec:	85 c0                	test   %eax,%eax
    b5ee:	74 08                	je     b5f8 <func_22+0x270c>
    b5f0:	66 83 bd 94 d9 ff ff 	cmpw   $0x0,-0x266c(%rbp)
    b5f7:	00 
    b5f8:	80 bd b1 d9 ff ff 00 	cmpb   $0x0,-0x264f(%rbp)
    b5ff:	0f 9f c0             	setg   %al
    b602:	0f b6 c0             	movzbl %al,%eax
    b605:	48 89 d6             	mov    %rdx,%rsi
    b608:	48 89 c7             	mov    %rax,%rdi
    b60b:	e8 3b ba ff ff       	callq  704b <safe_sub_func_uint64_t_u_u>
    b610:	48 89 de             	mov    %rbx,%rsi
    b613:	48 89 c7             	mov    %rax,%rdi
    b616:	e8 dc b3 ff ff       	callq  69f7 <safe_div_func_int64_t_s_s>
    b61b:	89 c3                	mov    %eax,%ebx
    b61d:	0f b7 85 9c d9 ff ff 	movzwl -0x2664(%rbp),%eax
    b624:	0f be d0             	movsbl %al,%edx
    b627:	48 8b 85 48 dd ff ff 	mov    -0x22b8(%rbp),%rax
    b62e:	48 8b 00             	mov    (%rax),%rax
    b631:	48 8b 00             	mov    (%rax),%rax
    b634:	8b 00                	mov    (%rax),%eax
    b636:	85 c0                	test   %eax,%eax
    b638:	75 0a                	jne    b644 <func_22+0x2758>
    b63a:	8b 85 f0 d9 ff ff    	mov    -0x2610(%rbp),%eax
    b640:	85 c0                	test   %eax,%eax
    b642:	74 07                	je     b64b <func_22+0x275f>
    b644:	b8 01 00 00 00       	mov    $0x1,%eax
    b649:	eb 05                	jmp    b650 <func_22+0x2764>
    b64b:	b8 00 00 00 00       	mov    $0x0,%eax
    b650:	0f be c0             	movsbl %al,%eax
    b653:	89 d6                	mov    %edx,%esi
    b655:	89 c7                	mov    %eax,%edi
    b657:	e8 b6 ab ff ff       	callq  6212 <safe_mul_func_int8_t_s_s>
    b65c:	0f be c0             	movsbl %al,%eax
    b65f:	89 de                	mov    %ebx,%esi
    b661:	89 c7                	mov    %eax,%edi
    b663:	e8 9d af ff ff       	callq  6605 <safe_sub_func_int32_t_s_s>
    b668:	85 c0                	test   %eax,%eax
    b66a:	0f 9f c0             	setg   %al
    b66d:	0f b6 d0             	movzbl %al,%edx
    b670:	8b 85 70 df ff ff    	mov    -0x2090(%rbp),%eax
    b676:	21 d0                	and    %edx,%eax
    b678:	89 85 70 df ff ff    	mov    %eax,-0x2090(%rbp)
    b67e:	48 8b 05 e3 79 00 00 	mov    0x79e3(%rip),%rax        # 13068 <g_492>
    b685:	48 83 c0 01          	add    $0x1,%rax
    b689:	48 89 05 d8 79 00 00 	mov    %rax,0x79d8(%rip)        # 13068 <g_492>
    b690:	48 8b 05 d1 79 00 00 	mov    0x79d1(%rip),%rax        # 13068 <g_492>
    b697:	48 83 f8 02          	cmp    $0x2,%rax
    b69b:	0f 86 bc e7 ff ff    	jbe    9e5d <func_22+0xf71>
    b6a1:	48 8b 85 50 dd ff ff 	mov    -0x22b0(%rbp),%rax
    b6a8:	8b 00                	mov    (%rax),%eax
    b6aa:	41 89 c6             	mov    %eax,%r14d
    b6ad:	0f b7 95 98 d9 ff ff 	movzwl -0x2668(%rbp),%edx
    b6b4:	48 8b 85 48 dd ff ff 	mov    -0x22b8(%rbp),%rax
    b6bb:	48 8b 00             	mov    (%rax),%rax
    b6be:	48 8b 00             	mov    (%rax),%rax
    b6c1:	0f b7 d2             	movzwl %dx,%edx
    b6c4:	89 10                	mov    %edx,(%rax)
    b6c6:	8b 00                	mov    (%rax),%eax
    b6c8:	3d 78 92 cf 54       	cmp    $0x54cf9278,%eax
    b6cd:	0f 9f c0             	setg   %al
    b6d0:	44 0f b6 e8          	movzbl %al,%r13d
    b6d4:	0f b7 85 b4 d9 ff ff 	movzwl -0x264c(%rbp),%eax
    b6db:	0f b6 d8             	movzbl %al,%ebx
    b6de:	48 8b 85 50 dd ff ff 	mov    -0x22b0(%rbp),%rax
    b6e5:	8b 00                	mov    (%rax),%eax
    b6e7:	44 0f bf e0          	movswl %ax,%r12d
    b6eb:	8b 85 70 df ff ff    	mov    -0x2090(%rbp),%eax
    b6f1:	89 c6                	mov    %eax,%esi
    b6f3:	bf 00 00 00 00       	mov    $0x0,%edi
    b6f8:	e8 28 b8 ff ff       	callq  6f25 <safe_div_func_uint32_t_u_u>
    b6fd:	89 c2                	mov    %eax,%edx
    b6ff:	48 b8 93 17 52 7e 67 	movabs $0x80dedd677e521793,%rax
    b706:	dd de 80 
    b709:	48 21 c2             	and    %rax,%rdx
    b70c:	48 0f bf 85 9c d9 ff 	movswq -0x2664(%rbp),%rax
    b713:	ff 
    b714:	48 89 d6             	mov    %rdx,%rsi
    b717:	48 89 c7             	mov    %rax,%rdi
    b71a:	e8 95 b2 ff ff       	callq  69b4 <safe_mod_func_int64_t_s_s>
    b71f:	48 85 c0             	test   %rax,%rax
    b722:	74 07                	je     b72b <func_22+0x283f>
    b724:	b8 01 00 00 00       	mov    $0x1,%eax
    b729:	eb 05                	jmp    b730 <func_22+0x2844>
    b72b:	b8 00 00 00 00       	mov    $0x0,%eax
    b730:	89 c2                	mov    %eax,%edx
    b732:	0f b7 85 98 d9 ff ff 	movzwl -0x2668(%rbp),%eax
    b739:	31 d0                	xor    %edx,%eax
    b73b:	0f be c0             	movsbl %al,%eax
    b73e:	be 07 00 00 00       	mov    $0x7,%esi
    b743:	89 c7                	mov    %eax,%edi
    b745:	e8 eb ab ff ff       	callq  6335 <safe_rshift_func_int8_t_s_s>
    b74a:	48 0f be c0          	movsbq %al,%rax
    b74e:	48 39 85 18 dd ff ff 	cmp    %rax,-0x22e8(%rbp)
    b755:	0f 93 c0             	setae  %al
    b758:	0f b6 c0             	movzbl %al,%eax
    b75b:	48 8d 55 ba          	lea    -0x46(%rbp),%rdx
    b75f:	48 8d 72 01          	lea    0x1(%rdx),%rsi
    b763:	48 8d 55 ba          	lea    -0x46(%rbp),%rdx
    b767:	48 8d 7a 01          	lea    0x1(%rdx),%rdi
    b76b:	44 89 e1             	mov    %r12d,%ecx
    b76e:	89 c2                	mov    %eax,%edx
    b770:	e8 05 28 00 00       	callq  df7a <func_73>
    b775:	48 8b 95 20 dd ff ff 	mov    -0x22e0(%rbp),%rdx
    b77c:	48 89 02             	mov    %rax,(%rdx)
    b77f:	48 8b 85 20 dd ff ff 	mov    -0x22e0(%rbp),%rax
    b786:	48 8b 00             	mov    (%rax),%rax
    b789:	48 8d 55 ba          	lea    -0x46(%rbp),%rdx
    b78d:	48 83 c2 03          	add    $0x3,%rdx
    b791:	48 39 d0             	cmp    %rdx,%rax
    b794:	0f b7 85 9c d9 ff ff 	movzwl -0x2664(%rbp),%eax
    b79b:	0f b6 c0             	movzbl %al,%eax
    b79e:	89 de                	mov    %ebx,%esi
    b7a0:	89 c7                	mov    %eax,%edi
    b7a2:	e8 07 b4 ff ff       	callq  6bae <safe_mod_func_uint8_t_u_u>
    b7a7:	48 8b 05 82 9a 00 00 	mov    0x9a82(%rip),%rax        # 15230 <g_1347>
    b7ae:	48 8b 00             	mov    (%rax),%rax
    b7b1:	48 8b 00             	mov    (%rax),%rax
    b7b4:	48 8b 00             	mov    (%rax),%rax
    b7b7:	48 85 c0             	test   %rax,%rax
    b7ba:	74 07                	je     b7c3 <func_22+0x28d7>
    b7bc:	b8 01 00 00 00       	mov    $0x1,%eax
    b7c1:	eb 05                	jmp    b7c8 <func_22+0x28dc>
    b7c3:	b8 00 00 00 00       	mov    $0x0,%eax
    b7c8:	39 85 ac da ff ff    	cmp    %eax,-0x2554(%rbp)
    b7ce:	0f 92 c0             	setb   %al
    b7d1:	0f b6 c0             	movzbl %al,%eax
    b7d4:	41 39 c5             	cmp    %eax,%r13d
    b7d7:	0f 9c c0             	setl   %al
    b7da:	0f b6 c0             	movzbl %al,%eax
    b7dd:	44 89 f6             	mov    %r14d,%esi
    b7e0:	89 c7                	mov    %eax,%edi
    b7e2:	e8 65 b4 ff ff       	callq  6c4c <safe_lshift_func_uint8_t_u_u>
    b7e7:	0f b6 d0             	movzbl %al,%edx
    b7ea:	48 8b 85 50 dd ff ff 	mov    -0x22b0(%rbp),%rax
    b7f1:	89 10                	mov    %edx,(%rax)
    b7f3:	c7 85 f0 d9 ff ff 12 	movl   $0x12,-0x2610(%rbp)
    b7fa:	00 00 00 
    b7fd:	e9 81 00 00 00       	jmpq   b883 <func_22+0x2997>
    b802:	48 8d 85 d4 d9 ff ff 	lea    -0x262c(%rbp),%rax
    b809:	48 89 85 18 dc ff ff 	mov    %rax,-0x23e8(%rbp)
    b810:	48 8d 85 10 db ff ff 	lea    -0x24f0(%rbp),%rax
    b817:	48 89 85 20 dc ff ff 	mov    %rax,-0x23e0(%rbp)
    b81e:	48 c7 85 28 dc ff ff 	movq   $0x1,-0x23d8(%rbp)
    b825:	01 00 00 00 
    b829:	66 c7 85 b8 d9 ff ff 	movw   $0x4e16,-0x2648(%rbp)
    b830:	16 4e 
    b832:	48 c7 85 30 dc ff ff 	movq   $0xfffffffffffffff9,-0x23d0(%rbp)
    b839:	f9 ff ff ff 
    b83d:	48 8d 05 6c 9a 00 00 	lea    0x9a6c(%rip),%rax        # 152b0 <g_1699>
    b844:	48 89 85 38 dc ff ff 	mov    %rax,-0x23c8(%rbp)
    b84b:	c6 85 ab d9 ff ff 0e 	movb   $0xe,-0x2655(%rbp)
    b852:	c7 85 40 da ff ff 66 	movl   $0x6ecbdd66,-0x25c0(%rbp)
    b859:	dd cb 6e 
    b85c:	c7 85 44 da ff ff 85 	movl   $0x2612a685,-0x25bc(%rbp)
    b863:	a6 12 26 
    b866:	48 8b 85 18 dc ff ff 	mov    -0x23e8(%rbp),%rax
    b86d:	48 89 85 f0 de ff ff 	mov    %rax,-0x2110(%rbp)
    b874:	8b 85 f0 d9 ff ff    	mov    -0x2610(%rbp),%eax
    b87a:	83 e8 01             	sub    $0x1,%eax
    b87d:	89 85 f0 d9 ff ff    	mov    %eax,-0x2610(%rbp)
    b883:	8b 85 f0 d9 ff ff    	mov    -0x2610(%rbp),%eax
    b889:	83 f8 0e             	cmp    $0xe,%eax
    b88c:	0f 8e 70 ff ff ff    	jle    b802 <func_22+0x2916>
    b892:	48 8b 85 50 dd ff ff 	mov    -0x22b0(%rbp),%rax
    b899:	8b 00                	mov    (%rax),%eax
    b89b:	0f b6 d8             	movzbl %al,%ebx
    b89e:	44 0f bf a5 94 d9 ff 	movswl -0x266c(%rbp),%r12d
    b8a5:	ff 
    b8a6:	48 8b 05 6b a1 00 00 	mov    0xa16b(%rip),%rax        # 15a18 <g_1800>
    b8ad:	48 85 c0             	test   %rax,%rax
    b8b0:	0f 94 c0             	sete   %al
    b8b3:	0f b6 d0             	movzbl %al,%edx
    b8b6:	0f bf 85 94 d9 ff ff 	movswl -0x266c(%rbp),%eax
    b8bd:	89 d6                	mov    %edx,%esi
    b8bf:	89 c7                	mov    %eax,%edi
    b8c1:	e8 2f ab ff ff       	callq  63f5 <safe_mul_func_int16_t_s_s>
    b8c6:	0f bf d0             	movswl %ax,%edx
    b8c9:	48 8b 85 50 dd ff ff 	mov    -0x22b0(%rbp),%rax
    b8d0:	8b 00                	mov    (%rax),%eax
    b8d2:	39 c2                	cmp    %eax,%edx
    b8d4:	0f 9f c0             	setg   %al
    b8d7:	0f b6 c0             	movzbl %al,%eax
    b8da:	44 89 e6             	mov    %r12d,%esi
    b8dd:	89 c7                	mov    %eax,%edi
    b8df:	e8 71 ab ff ff       	callq  6455 <safe_div_func_int16_t_s_s>
    b8e4:	48 8b 15 c5 99 00 00 	mov    0x99c5(%rip),%rdx        # 152b0 <g_1699>
    b8eb:	48 8b 12             	mov    (%rdx),%rdx
    b8ee:	0f b7 12             	movzwl (%rdx),%edx
    b8f1:	31 c2                	xor    %eax,%edx
    b8f3:	48 8b 05 b6 99 00 00 	mov    0x99b6(%rip),%rax        # 152b0 <g_1699>
    b8fa:	48 8b 00             	mov    (%rax),%rax
    b8fd:	66 89 10             	mov    %dx,(%rax)
    b900:	48 8b 15 a9 99 00 00 	mov    0x99a9(%rip),%rdx        # 152b0 <g_1699>
    b907:	48 8b 05 a2 99 00 00 	mov    0x99a2(%rip),%rax        # 152b0 <g_1699>
    b90e:	48 8b 12             	mov    (%rdx),%rdx
    b911:	48 89 10             	mov    %rdx,(%rax)
    b914:	48 8b 10             	mov    (%rax),%rdx
    b917:	48 8d 85 98 d9 ff ff 	lea    -0x2668(%rbp),%rax
    b91e:	48 39 c2             	cmp    %rax,%rdx
    b921:	0f 94 c0             	sete   %al
    b924:	0f b6 c0             	movzbl %al,%eax
    b927:	89 de                	mov    %ebx,%esi
    b929:	89 c7                	mov    %eax,%edi
    b92b:	e8 2a b2 ff ff       	callq  6b5a <safe_add_func_uint8_t_u_u>
    b930:	0f b6 c0             	movzbl %al,%eax
    b933:	48 8b b5 60 ec ff ff 	mov    -0x13a0(%rbp),%rsi
    b93a:	48 8b 8d 40 db ff ff 	mov    -0x24c0(%rbp),%rcx
    b941:	48 8b 95 28 dd ff ff 	mov    -0x22d8(%rbp),%rdx
    b948:	48 89 0a             	mov    %rcx,(%rdx)
    b94b:	48 8b 95 28 dd ff ff 	mov    -0x22d8(%rbp),%rdx
    b952:	48 8b 12             	mov    (%rdx),%rdx
    b955:	48 39 d6             	cmp    %rdx,%rsi
    b958:	0f 94 c2             	sete   %dl
    b95b:	0f b6 d2             	movzbl %dl,%edx
    b95e:	39 95 a4 da ff ff    	cmp    %edx,-0x255c(%rbp)
    b964:	75 27                	jne    b98d <func_22+0x2aa1>
    b966:	48 8b 8d 48 db ff ff 	mov    -0x24b8(%rbp),%rcx
    b96d:	48 8b 95 30 dd ff ff 	mov    -0x22d0(%rbp),%rdx
    b974:	48 89 0a             	mov    %rcx,(%rdx)
    b977:	48 8b 95 30 dd ff ff 	mov    -0x22d0(%rbp),%rdx
    b97e:	48 8b 12             	mov    (%rdx),%rdx
    b981:	48 8d 0d 28 99 00 00 	lea    0x9928(%rip),%rcx        # 152b0 <g_1699>
    b988:	48 39 ca             	cmp    %rcx,%rdx
    b98b:	75 07                	jne    b994 <func_22+0x2aa8>
    b98d:	ba 01 00 00 00       	mov    $0x1,%edx
    b992:	eb 05                	jmp    b999 <func_22+0x2aad>
    b994:	ba 00 00 00 00       	mov    $0x0,%edx
    b999:	89 c6                	mov    %eax,%esi
    b99b:	89 d7                	mov    %edx,%edi
    b99d:	e8 16 b5 ff ff       	callq  6eb8 <safe_add_func_uint32_t_u_u>
    b9a2:	be 00 00 00 00       	mov    $0x0,%esi
    b9a7:	89 c7                	mov    %eax,%edi
    b9a9:	e8 22 b5 ff ff       	callq  6ed0 <safe_sub_func_uint32_t_u_u>
    b9ae:	85 c0                	test   %eax,%eax
    b9b0:	0f 84 5a 08 00 00    	je     c210 <func_22+0x3324>
    b9b6:	66 c7 85 ba d9 ff ff 	movw   $0xffff,-0x2646(%rbp)
    b9bd:	ff ff 
    b9bf:	48 c7 85 c8 dc ff ff 	movq   $0x0,-0x2338(%rbp)
    b9c6:	00 00 00 00 
    b9ca:	48 8d 85 50 e6 ff ff 	lea    -0x19b0(%rbp),%rax
    b9d1:	48 8d 15 c8 42 00 00 	lea    0x42c8(%rip),%rdx        # fca0 <g_2338+0xc38>
    b9d8:	b9 7a 00 00 00       	mov    $0x7a,%ecx
    b9dd:	48 89 c7             	mov    %rax,%rdi
    b9e0:	48 89 d6             	mov    %rdx,%rsi
    b9e3:	f3 48 a5             	rep movsq %ds:(%rsi),%es:(%rdi)
    b9e6:	48 89 f2             	mov    %rsi,%rdx
    b9e9:	48 89 f8             	mov    %rdi,%rax
    b9ec:	8b 0a                	mov    (%rdx),%ecx
    b9ee:	89 08                	mov    %ecx,(%rax)
    b9f0:	c7 85 78 da ff ff b7 	movl   $0x44af8cb7,-0x2588(%rbp)
    b9f7:	8c af 44 
    b9fa:	c7 85 7c da ff ff ff 	movl   $0xffffffff,-0x2584(%rbp)
    ba01:	ff ff ff 
    ba04:	c7 85 90 de ff ff 01 	movl   $0x1,-0x2170(%rbp)
    ba0b:	00 00 00 
    ba0e:	c7 85 94 de ff ff 01 	movl   $0x1,-0x216c(%rbp)
    ba15:	00 00 00 
    ba18:	c7 85 98 de ff ff 01 	movl   $0x1,-0x2168(%rbp)
    ba1f:	00 00 00 
    ba22:	c7 85 9c de ff ff 01 	movl   $0x1,-0x2164(%rbp)
    ba29:	00 00 00 
    ba2c:	c7 85 a0 de ff ff 01 	movl   $0x1,-0x2160(%rbp)
    ba33:	00 00 00 
    ba36:	c7 85 a4 de ff ff 01 	movl   $0x1,-0x215c(%rbp)
    ba3d:	00 00 00 
    ba40:	c7 85 a8 de ff ff 01 	movl   $0x1,-0x2158(%rbp)
    ba47:	00 00 00 
    ba4a:	48 c7 85 58 db ff ff 	movq   $0x0,-0x24a8(%rbp)
    ba51:	00 00 00 00 
    ba55:	48 c7 85 70 e1 ff ff 	movq   $0x0,-0x1e90(%rbp)
    ba5c:	00 00 00 00 
    ba60:	48 8d 85 58 db ff ff 	lea    -0x24a8(%rbp),%rax
    ba67:	48 89 85 78 e1 ff ff 	mov    %rax,-0x1e88(%rbp)
    ba6e:	48 8d 85 58 db ff ff 	lea    -0x24a8(%rbp),%rax
    ba75:	48 89 85 80 e1 ff ff 	mov    %rax,-0x1e80(%rbp)
    ba7c:	48 c7 85 88 e1 ff ff 	movq   $0x0,-0x1e78(%rbp)
    ba83:	00 00 00 00 
    ba87:	48 8d 85 58 db ff ff 	lea    -0x24a8(%rbp),%rax
    ba8e:	48 89 85 90 e1 ff ff 	mov    %rax,-0x1e70(%rbp)
    ba95:	48 8d 85 58 db ff ff 	lea    -0x24a8(%rbp),%rax
    ba9c:	48 89 85 98 e1 ff ff 	mov    %rax,-0x1e68(%rbp)
    baa3:	48 8d 85 58 db ff ff 	lea    -0x24a8(%rbp),%rax
    baaa:	48 89 85 a0 e1 ff ff 	mov    %rax,-0x1e60(%rbp)
    bab1:	48 8d 85 58 db ff ff 	lea    -0x24a8(%rbp),%rax
    bab8:	48 89 85 a8 e1 ff ff 	mov    %rax,-0x1e58(%rbp)
    babf:	48 8d 85 58 db ff ff 	lea    -0x24a8(%rbp),%rax
    bac6:	48 89 85 b0 e1 ff ff 	mov    %rax,-0x1e50(%rbp)
    bacd:	48 8d 85 58 db ff ff 	lea    -0x24a8(%rbp),%rax
    bad4:	48 89 85 b8 e1 ff ff 	mov    %rax,-0x1e48(%rbp)
    badb:	48 8d 85 58 db ff ff 	lea    -0x24a8(%rbp),%rax
    bae2:	48 89 85 c0 e1 ff ff 	mov    %rax,-0x1e40(%rbp)
    bae9:	48 8d 85 58 db ff ff 	lea    -0x24a8(%rbp),%rax
    baf0:	48 89 85 c8 e1 ff ff 	mov    %rax,-0x1e38(%rbp)
    baf7:	48 8d 85 58 db ff ff 	lea    -0x24a8(%rbp),%rax
    bafe:	48 89 85 d0 e1 ff ff 	mov    %rax,-0x1e30(%rbp)
    bb05:	48 8d 85 58 db ff ff 	lea    -0x24a8(%rbp),%rax
    bb0c:	48 89 85 d8 e1 ff ff 	mov    %rax,-0x1e28(%rbp)
    bb13:	48 8d 85 58 db ff ff 	lea    -0x24a8(%rbp),%rax
    bb1a:	48 89 85 e0 e1 ff ff 	mov    %rax,-0x1e20(%rbp)
    bb21:	48 8d 85 58 db ff ff 	lea    -0x24a8(%rbp),%rax
    bb28:	48 89 85 e8 e1 ff ff 	mov    %rax,-0x1e18(%rbp)
    bb2f:	48 c7 85 f0 e1 ff ff 	movq   $0x0,-0x1e10(%rbp)
    bb36:	00 00 00 00 
    bb3a:	48 8d 85 58 db ff ff 	lea    -0x24a8(%rbp),%rax
    bb41:	48 89 85 f8 e1 ff ff 	mov    %rax,-0x1e08(%rbp)
    bb48:	48 c7 85 00 e2 ff ff 	movq   $0x0,-0x1e00(%rbp)
    bb4f:	00 00 00 00 
    bb53:	48 8d 85 58 db ff ff 	lea    -0x24a8(%rbp),%rax
    bb5a:	48 89 85 08 e2 ff ff 	mov    %rax,-0x1df8(%rbp)
    bb61:	48 c7 85 10 e2 ff ff 	movq   $0x0,-0x1df0(%rbp)
    bb68:	00 00 00 00 
    bb6c:	48 8d 85 58 db ff ff 	lea    -0x24a8(%rbp),%rax
    bb73:	48 89 85 18 e2 ff ff 	mov    %rax,-0x1de8(%rbp)
    bb7a:	48 8d 85 58 db ff ff 	lea    -0x24a8(%rbp),%rax
    bb81:	48 89 85 20 e2 ff ff 	mov    %rax,-0x1de0(%rbp)
    bb88:	48 c7 85 28 e2 ff ff 	movq   $0x0,-0x1dd8(%rbp)
    bb8f:	00 00 00 00 
    bb93:	48 8d 85 58 db ff ff 	lea    -0x24a8(%rbp),%rax
    bb9a:	48 89 85 30 e2 ff ff 	mov    %rax,-0x1dd0(%rbp)
    bba1:	48 8d 85 58 db ff ff 	lea    -0x24a8(%rbp),%rax
    bba8:	48 89 85 38 e2 ff ff 	mov    %rax,-0x1dc8(%rbp)
    bbaf:	48 8d 85 58 db ff ff 	lea    -0x24a8(%rbp),%rax
    bbb6:	48 89 85 40 e2 ff ff 	mov    %rax,-0x1dc0(%rbp)
    bbbd:	48 8d 85 58 db ff ff 	lea    -0x24a8(%rbp),%rax
    bbc4:	48 89 85 48 e2 ff ff 	mov    %rax,-0x1db8(%rbp)
    bbcb:	c6 85 ac d9 ff ff ff 	movb   $0xff,-0x2654(%rbp)
    bbd2:	48 c7 85 98 dc ff ff 	movq   $0x4,-0x2368(%rbp)
    bbd9:	04 00 00 00 
    bbdd:	48 8d 85 d0 d9 ff ff 	lea    -0x2630(%rbp),%rax
    bbe4:	48 89 85 a0 dc ff ff 	mov    %rax,-0x2360(%rbp)
    bbeb:	48 8d 05 1e 94 00 00 	lea    0x941e(%rip),%rax        # 15010 <g_749>
    bbf2:	48 89 85 70 df ff ff 	mov    %rax,-0x2090(%rbp)
    bbf9:	48 8d 05 10 94 00 00 	lea    0x9410(%rip),%rax        # 15010 <g_749>
    bc00:	48 89 85 78 df ff ff 	mov    %rax,-0x2088(%rbp)
    bc07:	48 8d 05 02 94 00 00 	lea    0x9402(%rip),%rax        # 15010 <g_749>
    bc0e:	48 89 85 80 df ff ff 	mov    %rax,-0x2080(%rbp)
    bc15:	48 8d 05 f4 93 00 00 	lea    0x93f4(%rip),%rax        # 15010 <g_749>
    bc1c:	48 89 85 88 df ff ff 	mov    %rax,-0x2078(%rbp)
    bc23:	48 8d 05 e6 93 00 00 	lea    0x93e6(%rip),%rax        # 15010 <g_749>
    bc2a:	48 89 85 90 df ff ff 	mov    %rax,-0x2070(%rbp)
    bc31:	48 8d 05 d8 93 00 00 	lea    0x93d8(%rip),%rax        # 15010 <g_749>
    bc38:	48 89 85 98 df ff ff 	mov    %rax,-0x2068(%rbp)
    bc3f:	48 8d 05 ca 93 00 00 	lea    0x93ca(%rip),%rax        # 15010 <g_749>
    bc46:	48 89 85 a0 df ff ff 	mov    %rax,-0x2060(%rbp)
    bc4d:	48 8d 05 5c 93 00 00 	lea    0x935c(%rip),%rax        # 14fb0 <g_178>
    bc54:	48 89 85 a8 dc ff ff 	mov    %rax,-0x2358(%rbp)
    bc5b:	48 c7 85 b0 dc ff ff 	movq   $0x0,-0x2350(%rbp)
    bc62:	00 00 00 00 
    bc66:	48 b8 c6 ec 02 c1 7d 	movabs $0x9b1e897dc102ecc6,%rax
    bc6d:	89 1e 9b 
    bc70:	48 89 85 b8 dc ff ff 	mov    %rax,-0x2348(%rbp)
    bc77:	c7 85 70 da ff ff 83 	movl   $0xfc4b2583,-0x2590(%rbp)
    bc7e:	25 4b fc 
    bc81:	c7 85 74 da ff ff ee 	movl   $0x9b6ca2ee,-0x258c(%rbp)
    bc88:	a2 6c 9b 
    bc8b:	48 8d 85 20 db ff ff 	lea    -0x24e0(%rbp),%rax
    bc92:	48 89 85 c0 dc ff ff 	mov    %rax,-0x2340(%rbp)
    bc99:	66 c7 85 30 df ff ff 	movw   $0xfffc,-0x20d0(%rbp)
    bca0:	fc ff 
    bca2:	66 c7 85 32 df ff ff 	movw   $0xfffc,-0x20ce(%rbp)
    bca9:	fc ff 
    bcab:	66 c7 85 34 df ff ff 	movw   $0xfffc,-0x20cc(%rbp)
    bcb2:	fc ff 
    bcb4:	66 c7 85 36 df ff ff 	movw   $0x8bb5,-0x20ca(%rbp)
    bcbb:	b5 8b 
    bcbd:	66 c7 85 38 df ff ff 	movw   $0xffff,-0x20c8(%rbp)
    bcc4:	ff ff 
    bcc6:	66 c7 85 3a df ff ff 	movw   $0x8bb5,-0x20c6(%rbp)
    bccd:	b5 8b 
    bccf:	66 c7 85 3c df ff ff 	movw   $0xfffc,-0x20c4(%rbp)
    bcd6:	fc ff 
    bcd8:	66 c7 85 3e df ff ff 	movw   $0xfffc,-0x20c2(%rbp)
    bcdf:	fc ff 
    bce1:	66 c7 85 40 df ff ff 	movw   $0xfffc,-0x20c0(%rbp)
    bce8:	fc ff 
    bcea:	66 c7 85 42 df ff ff 	movw   $0x8bb5,-0x20be(%rbp)
    bcf1:	b5 8b 
    bcf3:	66 c7 85 44 df ff ff 	movw   $0xffff,-0x20bc(%rbp)
    bcfa:	ff ff 
    bcfc:	66 c7 85 46 df ff ff 	movw   $0x8bb5,-0x20ba(%rbp)
    bd03:	b5 8b 
    bd05:	66 c7 85 48 df ff ff 	movw   $0xfffc,-0x20b8(%rbp)
    bd0c:	fc ff 
    bd0e:	66 c7 85 4a df ff ff 	movw   $0xfffc,-0x20b6(%rbp)
    bd15:	fc ff 
    bd17:	66 c7 85 4c df ff ff 	movw   $0xfffc,-0x20b4(%rbp)
    bd1e:	fc ff 
    bd20:	66 c7 85 4e df ff ff 	movw   $0x8bb5,-0x20b2(%rbp)
    bd27:	b5 8b 
    bd29:	66 c7 85 50 df ff ff 	movw   $0xffff,-0x20b0(%rbp)
    bd30:	ff ff 
    bd32:	66 c7 85 52 df ff ff 	movw   $0x8bb5,-0x20ae(%rbp)
    bd39:	b5 8b 
    bd3b:	66 c7 85 54 df ff ff 	movw   $0xfffc,-0x20ac(%rbp)
    bd42:	fc ff 
    bd44:	66 c7 85 56 df ff ff 	movw   $0xfffc,-0x20aa(%rbp)
    bd4b:	fc ff 
    bd4d:	66 c7 85 58 df ff ff 	movw   $0xfffc,-0x20a8(%rbp)
    bd54:	fc ff 
    bd56:	48 8d 05 b3 9c 00 00 	lea    0x9cb3(%rip),%rax        # 15a10 <g_1636>
    bd5d:	48 89 85 58 dc ff ff 	mov    %rax,-0x23a8(%rbp)
    bd64:	48 c7 85 60 dc ff ff 	movq   $0x5,-0x23a0(%rbp)
    bd6b:	05 00 00 00 
    bd6f:	c7 85 64 da ff ff 84 	movl   $0xc4036c84,-0x259c(%rbp)
    bd76:	6c 03 c4 
    bd79:	c7 85 68 da ff ff 01 	movl   $0x1,-0x2598(%rbp)
    bd80:	00 00 00 
    bd83:	c7 85 6c da ff ff 01 	movl   $0x1,-0x2594(%rbp)
    bd8a:	00 00 00 
    bd8d:	48 8d 05 b4 92 00 00 	lea    0x92b4(%rip),%rax        # 15048 <g_943>
    bd94:	48 89 85 60 db ff ff 	mov    %rax,-0x24a0(%rbp)
    bd9b:	48 8d 85 60 db ff ff 	lea    -0x24a0(%rbp),%rax
    bda2:	48 89 85 68 db ff ff 	mov    %rax,-0x2498(%rbp)
    bda9:	48 8d 85 68 db ff ff 	lea    -0x2498(%rbp),%rax
    bdb0:	48 89 85 70 db ff ff 	mov    %rax,-0x2490(%rbp)
    bdb7:	48 8d 85 70 db ff ff 	lea    -0x2490(%rbp),%rax
    bdbe:	48 89 85 68 dc ff ff 	mov    %rax,-0x2398(%rbp)
    bdc5:	48 8d 05 14 97 00 00 	lea    0x9714(%rip),%rax        # 154e0 <g_2388>
    bdcc:	48 89 85 70 dc ff ff 	mov    %rax,-0x2390(%rbp)
    bdd3:	48 b8 5c a5 a2 20 bc 	movabs $0x174052bc20a2a55c,%rax
    bdda:	52 40 17 
    bddd:	48 89 85 78 dc ff ff 	mov    %rax,-0x2388(%rbp)
    bde4:	48 8d 85 48 db ff ff 	lea    -0x24b8(%rbp),%rax
    bdeb:	48 89 85 80 dc ff ff 	mov    %rax,-0x2380(%rbp)
    bdf2:	48 c7 85 88 dc ff ff 	movq   $0x0,-0x2378(%rbp)
    bdf9:	00 00 00 00 
    bdfd:	48 8d 85 10 db ff ff 	lea    -0x24f0(%rbp),%rax
    be04:	48 89 85 90 dc ff ff 	mov    %rax,-0x2370(%rbp)
    be0b:	66 c7 85 90 e0 ff ff 	movw   $0x2926,-0x1f70(%rbp)
    be12:	26 29 
    be14:	66 c7 85 92 e0 ff ff 	movw   $0xaee4,-0x1f6e(%rbp)
    be1b:	e4 ae 
    be1d:	66 c7 85 94 e0 ff ff 	movw   $0x2926,-0x1f6c(%rbp)
    be24:	26 29 
    be26:	66 c7 85 96 e0 ff ff 	movw   $0x6,-0x1f6a(%rbp)
    be2d:	06 00 
    be2f:	66 c7 85 98 e0 ff ff 	movw   $0x6,-0x1f68(%rbp)
    be36:	06 00 
    be38:	66 c7 85 9a e0 ff ff 	movw   $0x2926,-0x1f66(%rbp)
    be3f:	26 29 
    be41:	66 c7 85 9c e0 ff ff 	movw   $0xaee4,-0x1f64(%rbp)
    be48:	e4 ae 
    be4a:	66 c7 85 9e e0 ff ff 	movw   $0x2926,-0x1f62(%rbp)
    be51:	26 29 
    be53:	66 c7 85 a0 e0 ff ff 	movw   $0xde7a,-0x1f60(%rbp)
    be5a:	7a de 
    be5c:	66 c7 85 a2 e0 ff ff 	movw   $0x6,-0x1f5e(%rbp)
    be63:	06 00 
    be65:	66 c7 85 a4 e0 ff ff 	movw   $0x4be9,-0x1f5c(%rbp)
    be6c:	e9 4b 
    be6e:	66 c7 85 a6 e0 ff ff 	movw   $0x6,-0x1f5a(%rbp)
    be75:	06 00 
    be77:	66 c7 85 a8 e0 ff ff 	movw   $0xde7a,-0x1f58(%rbp)
    be7e:	7a de 
    be80:	66 c7 85 aa e0 ff ff 	movw   $0xde7a,-0x1f56(%rbp)
    be87:	7a de 
    be89:	66 c7 85 ac e0 ff ff 	movw   $0x6,-0x1f54(%rbp)
    be90:	06 00 
    be92:	66 c7 85 ae e0 ff ff 	movw   $0x4be9,-0x1f52(%rbp)
    be99:	e9 4b 
    be9b:	66 c7 85 b0 e0 ff ff 	movw   $0xde7a,-0x1f50(%rbp)
    bea2:	7a de 
    bea4:	66 c7 85 b2 e0 ff ff 	movw   $0xde7a,-0x1f4e(%rbp)
    beab:	7a de 
    bead:	66 c7 85 b4 e0 ff ff 	movw   $0x6,-0x1f4c(%rbp)
    beb4:	06 00 
    beb6:	66 c7 85 b6 e0 ff ff 	movw   $0x4be9,-0x1f4a(%rbp)
    bebd:	e9 4b 
    bebf:	66 c7 85 b8 e0 ff ff 	movw   $0x6,-0x1f48(%rbp)
    bec6:	06 00 
    bec8:	66 c7 85 ba e0 ff ff 	movw   $0xde7a,-0x1f46(%rbp)
    becf:	7a de 
    bed1:	66 c7 85 bc e0 ff ff 	movw   $0xde7a,-0x1f44(%rbp)
    bed8:	7a de 
    beda:	66 c7 85 be e0 ff ff 	movw   $0x6,-0x1f42(%rbp)
    bee1:	06 00 
    bee3:	66 c7 85 c0 e0 ff ff 	movw   $0x2926,-0x1f40(%rbp)
    beea:	26 29 
    beec:	66 c7 85 c2 e0 ff ff 	movw   $0x6,-0x1f3e(%rbp)
    bef3:	06 00 
    bef5:	66 c7 85 c4 e0 ff ff 	movw   $0x6,-0x1f3c(%rbp)
    befc:	06 00 
    befe:	66 c7 85 c6 e0 ff ff 	movw   $0x2926,-0x1f3a(%rbp)
    bf05:	26 29 
    bf07:	66 c7 85 c8 e0 ff ff 	movw   $0xaee4,-0x1f38(%rbp)
    bf0e:	e4 ae 
    bf10:	66 c7 85 ca e0 ff ff 	movw   $0x2926,-0x1f36(%rbp)
    bf17:	26 29 
    bf19:	66 c7 85 cc e0 ff ff 	movw   $0x6,-0x1f34(%rbp)
    bf20:	06 00 
    bf22:	66 c7 85 ce e0 ff ff 	movw   $0x6,-0x1f32(%rbp)
    bf29:	06 00 
    bf2b:	66 c7 85 d0 e0 ff ff 	movw   $0x6,-0x1f30(%rbp)
    bf32:	06 00 
    bf34:	66 c7 85 d2 e0 ff ff 	movw   $0xaee4,-0x1f2e(%rbp)
    bf3b:	e4 ae 
    bf3d:	66 c7 85 d4 e0 ff ff 	movw   $0x4be9,-0x1f2c(%rbp)
    bf44:	e9 4b 
    bf46:	66 c7 85 d6 e0 ff ff 	movw   $0x4be9,-0x1f2a(%rbp)
    bf4d:	e9 4b 
    bf4f:	66 c7 85 d8 e0 ff ff 	movw   $0xaee4,-0x1f28(%rbp)
    bf56:	e4 ae 
    bf58:	66 c7 85 da e0 ff ff 	movw   $0x6,-0x1f26(%rbp)
    bf5f:	06 00 
    bf61:	66 c7 85 dc e0 ff ff 	movw   $0xaee4,-0x1f24(%rbp)
    bf68:	e4 ae 
    bf6a:	66 c7 85 de e0 ff ff 	movw   $0x4be9,-0x1f22(%rbp)
    bf71:	e9 4b 
    bf73:	66 c7 85 e0 e0 ff ff 	movw   $0x2926,-0x1f20(%rbp)
    bf7a:	26 29 
    bf7c:	66 c7 85 e2 e0 ff ff 	movw   $0xaee4,-0x1f1e(%rbp)
    bf83:	e4 ae 
    bf85:	66 c7 85 e4 e0 ff ff 	movw   $0x2926,-0x1f1c(%rbp)
    bf8c:	26 29 
    bf8e:	66 c7 85 e6 e0 ff ff 	movw   $0x6,-0x1f1a(%rbp)
    bf95:	06 00 
    bf97:	66 c7 85 e8 e0 ff ff 	movw   $0x6,-0x1f18(%rbp)
    bf9e:	06 00 
    bfa0:	66 c7 85 ea e0 ff ff 	movw   $0x2926,-0x1f16(%rbp)
    bfa7:	26 29 
    bfa9:	66 c7 85 ec e0 ff ff 	movw   $0xaee4,-0x1f14(%rbp)
    bfb0:	e4 ae 
    bfb2:	66 c7 85 ee e0 ff ff 	movw   $0x2926,-0x1f12(%rbp)
    bfb9:	26 29 
    bfbb:	c7 85 3c da ff ff 00 	movl   $0x0,-0x25c4(%rbp)
    bfc2:	00 00 00 
    bfc5:	eb 1b                	jmp    bfe2 <func_22+0x30f6>
    bfc7:	8b 85 3c da ff ff    	mov    -0x25c4(%rbp),%eax
    bfcd:	48 98                	cltq   
    bfcf:	48 c7 84 c5 70 de ff 	movq   $0x0,-0x2190(%rbp,%rax,8)
    bfd6:	ff 00 00 00 00 
    bfdb:	83 85 3c da ff ff 01 	addl   $0x1,-0x25c4(%rbp)
    bfe2:	83 bd 3c da ff ff 02 	cmpl   $0x2,-0x25c4(%rbp)
    bfe9:	7e dc                	jle    bfc7 <func_22+0x30db>
    bfeb:	66 c7 85 94 d9 ff ff 	movw   $0xfff6,-0x266c(%rbp)
    bff2:	f6 ff 
    bff4:	e9 07 02 00 00       	jmpq   c200 <func_22+0x3314>
    bff9:	48 8d 85 e8 d9 ff ff 	lea    -0x2618(%rbp),%rax
    c000:	48 89 85 40 dc ff ff 	mov    %rax,-0x23c0(%rbp)
    c007:	c7 85 4c da ff ff 00 	movl   $0x0,-0x25b4(%rbp)
    c00e:	00 00 00 
    c011:	66 c7 85 58 de ff ff 	movw   $0x941d,-0x21a8(%rbp)
    c018:	1d 94 
    c01a:	66 c7 85 5a de ff ff 	movw   $0x941d,-0x21a6(%rbp)
    c021:	1d 94 
    c023:	66 c7 85 5c de ff ff 	movw   $0x941d,-0x21a4(%rbp)
    c02a:	1d 94 
    c02c:	66 c7 85 5e de ff ff 	movw   $0x941d,-0x21a2(%rbp)
    c033:	1d 94 
    c035:	48 8d 05 14 90 00 00 	lea    0x9014(%rip),%rax        # 15050 <g_1015>
    c03c:	48 89 85 78 db ff ff 	mov    %rax,-0x2488(%rbp)
    c043:	48 8d 85 78 db ff ff 	lea    -0x2488(%rbp),%rax
    c04a:	48 89 85 80 db ff ff 	mov    %rax,-0x2480(%rbp)
    c051:	48 8d 85 60 de ff ff 	lea    -0x21a0(%rbp),%rax
    c058:	48 83 c0 08          	add    $0x8,%rax
    c05c:	48 89 85 48 dc ff ff 	mov    %rax,-0x23b8(%rbp)
    c063:	c7 85 38 da ff ff 00 	movl   $0x0,-0x25c8(%rbp)
    c06a:	00 00 00 
    c06d:	eb 1a                	jmp    c089 <func_22+0x319d>
    c06f:	8b 85 38 da ff ff    	mov    -0x25c8(%rbp),%eax
    c075:	48 98                	cltq   
    c077:	c7 84 85 50 de ff ff 	movl   $0x5eb0cbf1,-0x21b0(%rbp,%rax,4)
    c07e:	f1 cb b0 5e 
    c082:	83 85 38 da ff ff 01 	addl   $0x1,-0x25c8(%rbp)
    c089:	83 bd 38 da ff ff 01 	cmpl   $0x1,-0x25c8(%rbp)
    c090:	7e dd                	jle    c06f <func_22+0x3183>
    c092:	c7 85 38 da ff ff 00 	movl   $0x0,-0x25c8(%rbp)
    c099:	00 00 00 
    c09c:	eb 1e                	jmp    c0bc <func_22+0x31d0>
    c09e:	8b 85 38 da ff ff    	mov    -0x25c8(%rbp),%eax
    c0a4:	48 98                	cltq   
    c0a6:	48 8d 95 80 db ff ff 	lea    -0x2480(%rbp),%rdx
    c0ad:	48 89 94 c5 60 de ff 	mov    %rdx,-0x21a0(%rbp,%rax,8)
    c0b4:	ff 
    c0b5:	83 85 38 da ff ff 01 	addl   $0x1,-0x25c8(%rbp)
    c0bc:	83 bd 38 da ff ff 01 	cmpl   $0x1,-0x25c8(%rbp)
    c0c3:	7e d9                	jle    c09e <func_22+0x31b2>
    c0c5:	48 8b 05 fc 91 00 00 	mov    0x91fc(%rip),%rax        # 152c8 <g_1804>
    c0cc:	48 8b 95 40 dc ff ff 	mov    -0x23c0(%rbp),%rdx
    c0d3:	48 89 10             	mov    %rdx,(%rax)
    c0d6:	48 8b 05 cb 8e 00 00 	mov    0x8ecb(%rip),%rax        # 14fa8 <g_158>
    c0dd:	0f b7 95 ba d9 ff ff 	movzwl -0x2646(%rbp),%edx
    c0e4:	89 10                	mov    %edx,(%rax)
    c0e6:	c7 85 34 da ff ff 00 	movl   $0x0,-0x25cc(%rbp)
    c0ed:	00 00 00 
    c0f0:	e9 de 00 00 00       	jmpq   c1d3 <func_22+0x32e7>
    c0f5:	48 8d 85 dc d9 ff ff 	lea    -0x2624(%rbp),%rax
    c0fc:	48 89 85 50 dc ff ff 	mov    %rax,-0x23b0(%rbp)
    c103:	c7 85 50 da ff ff a0 	movl   $0xcea3a6a0,-0x25b0(%rbp)
    c10a:	a6 a3 ce 
    c10d:	c7 85 54 da ff ff ff 	movl   $0xffffffff,-0x25ac(%rbp)
    c114:	ff ff ff 
    c117:	c7 85 58 da ff ff 46 	movl   $0xb4f9cd46,-0x25a8(%rbp)
    c11e:	cd f9 b4 
    c121:	c7 85 5c da ff ff ff 	movl   $0xffffffff,-0x25a4(%rbp)
    c128:	ff ff ff 
    c12b:	c7 85 60 da ff ff 2c 	movl   $0xe9ed782c,-0x25a0(%rbp)
    c132:	78 ed e9 
    c135:	c7 85 00 df ff ff 01 	movl   $0x1,-0x2100(%rbp)
    c13c:	00 00 00 
    c13f:	c7 85 04 df ff ff 01 	movl   $0x1,-0x20fc(%rbp)
    c146:	00 00 00 
    c149:	c7 85 08 df ff ff 01 	movl   $0x1,-0x20f8(%rbp)
    c150:	00 00 00 
    c153:	c7 85 0c df ff ff 01 	movl   $0x1,-0x20f4(%rbp)
    c15a:	00 00 00 
    c15d:	c7 85 10 df ff ff 01 	movl   $0x1,-0x20f0(%rbp)
    c164:	00 00 00 
    c167:	c7 85 14 df ff ff 01 	movl   $0x1,-0x20ec(%rbp)
    c16e:	00 00 00 
    c171:	c7 85 18 df ff ff 01 	movl   $0x1,-0x20e8(%rbp)
    c178:	00 00 00 
    c17b:	c7 85 1c df ff ff 01 	movl   $0x1,-0x20e4(%rbp)
    c182:	00 00 00 
    c185:	c7 85 20 df ff ff 01 	movl   $0x1,-0x20e0(%rbp)
    c18c:	00 00 00 
    c18f:	c7 85 24 df ff ff 01 	movl   $0x1,-0x20dc(%rbp)
    c196:	00 00 00 
    c199:	c7 85 2c da ff ff f6 	movl   $0xfffffff6,-0x25d4(%rbp)
    c1a0:	ff ff ff 
    c1a3:	66 c7 85 b6 d9 ff ff 	movw   $0xa34b,-0x264a(%rbp)
    c1aa:	4b a3 
    c1ac:	c7 85 30 da ff ff de 	movl   $0x2ba3ade,-0x25d0(%rbp)
    c1b3:	3a ba 02 
    c1b6:	48 c7 85 08 dc ff ff 	movq   $0x0,-0x23f8(%rbp)
    c1bd:	00 00 00 00 
    c1c1:	48 c7 85 10 dc ff ff 	movq   $0x0,-0x23f0(%rbp)
    c1c8:	00 00 00 00 
    c1cc:	83 85 34 da ff ff 01 	addl   $0x1,-0x25cc(%rbp)
    c1d3:	83 bd 34 da ff ff 0c 	cmpl   $0xc,-0x25cc(%rbp)
    c1da:	0f 84 15 ff ff ff    	je     c0f5 <func_22+0x3209>
    c1e0:	0f b7 85 94 d9 ff ff 	movzwl -0x266c(%rbp),%eax
    c1e7:	0f b6 c0             	movzbl %al,%eax
    c1ea:	be 07 00 00 00       	mov    $0x7,%esi
    c1ef:	89 c7                	mov    %eax,%edi
    c1f1:	e8 82 a9 ff ff       	callq  6b78 <safe_sub_func_uint8_t_u_u>
    c1f6:	0f b6 c0             	movzbl %al,%eax
    c1f9:	66 89 85 94 d9 ff ff 	mov    %ax,-0x266c(%rbp)
    c200:	66 83 bd 94 d9 ff ff 	cmpw   $0xfff2,-0x266c(%rbp)
    c207:	f2 
    c208:	0f 8c eb fd ff ff    	jl     bff9 <func_22+0x310d>
    c20e:	eb 4f                	jmp    c25f <func_22+0x3373>
    c210:	66 c7 85 bc d9 ff ff 	movw   $0x5389,-0x2644(%rbp)
    c217:	89 53 
    c219:	c7 85 e4 d9 ff ff 00 	movl   $0x0,-0x261c(%rbp)
    c220:	00 00 00 
    c223:	eb 2f                	jmp    c254 <func_22+0x3368>
    c225:	0f bf 95 94 d9 ff ff 	movswl -0x266c(%rbp),%edx
    c22c:	48 8b 85 50 dd ff ff 	mov    -0x22b0(%rbp),%rax
    c233:	89 10                	mov    %edx,(%rax)
    c235:	0f b7 95 bc d9 ff ff 	movzwl -0x2644(%rbp),%edx
    c23c:	48 8b 85 50 dd ff ff 	mov    -0x22b0(%rbp),%rax
    c243:	89 10                	mov    %edx,(%rax)
    c245:	8b 85 e4 d9 ff ff    	mov    -0x261c(%rbp),%eax
    c24b:	83 c0 01             	add    $0x1,%eax
    c24e:	89 85 e4 d9 ff ff    	mov    %eax,-0x261c(%rbp)
    c254:	8b 85 e4 d9 ff ff    	mov    -0x261c(%rbp),%eax
    c25a:	83 f8 0e             	cmp    $0xe,%eax
    c25d:	76 c6                	jbe    c225 <func_22+0x3339>
    c25f:	48 8b 05 a2 8d 00 00 	mov    0x8da2(%rip),%rax        # 15008 <g_631>
    c266:	8b 00                	mov    (%rax),%eax
    c268:	48 8b 5d c8          	mov    -0x38(%rbp),%rbx
    c26c:	64 48 33 1c 25 28 00 	xor    %fs:0x28,%rbx
    c273:	00 00 
    c275:	74 05                	je     c27c <func_22+0x3390>
    c277:	e8 f4 9d ff ff       	callq  6070 <__stack_chk_fail@plt>
    c27c:	48 81 c4 58 26 00 00 	add    $0x2658,%rsp
    c283:	5b                   	pop    %rbx
    c284:	41 5c                	pop    %r12
    c286:	41 5d                	pop    %r13
    c288:	41 5e                	pop    %r14
    c28a:	41 5f                	pop    %r15
    c28c:	5d                   	pop    %rbp
    c28d:	c3                   	retq   

000000000000c28e <func_29>:
    c28e:	f3 0f 1e fa          	endbr64 
    c292:	55                   	push   %rbp
    c293:	48 89 e5             	mov    %rsp,%rbp
    c296:	89 f8                	mov    %edi,%eax
    c298:	89 75 e8             	mov    %esi,-0x18(%rbp)
    c29b:	89 55 e4             	mov    %edx,-0x1c(%rbp)
    c29e:	66 89 45 ec          	mov    %ax,-0x14(%rbp)
    c2a2:	c7 45 fc 31 90 af 26 	movl   $0x26af9031,-0x4(%rbp)
    c2a9:	8b 45 fc             	mov    -0x4(%rbp),%eax
    c2ac:	48 98                	cltq   
    c2ae:	5d                   	pop    %rbp
    c2af:	c3                   	retq   

000000000000c2b0 <func_40>:
    c2b0:	f3 0f 1e fa          	endbr64 
    c2b4:	55                   	push   %rbp
    c2b5:	48 89 e5             	mov    %rsp,%rbp
    c2b8:	48 81 ec e0 0a 00 00 	sub    $0xae0,%rsp
    c2bf:	89 bd 3c f5 ff ff    	mov    %edi,-0xac4(%rbp)
    c2c5:	48 89 b5 30 f5 ff ff 	mov    %rsi,-0xad0(%rbp)
    c2cc:	48 89 95 28 f5 ff ff 	mov    %rdx,-0xad8(%rbp)
    c2d3:	89 8d 38 f5 ff ff    	mov    %ecx,-0xac8(%rbp)
    c2d9:	64 48 8b 04 25 28 00 	mov    %fs:0x28,%rax
    c2e0:	00 00 
    c2e2:	48 89 45 f8          	mov    %rax,-0x8(%rbp)
    c2e6:	31 c0                	xor    %eax,%eax
    c2e8:	48 8d 85 20 f7 ff ff 	lea    -0x8e0(%rbp),%rax
    c2ef:	48 8d 15 8a 3d 00 00 	lea    0x3d8a(%rip),%rdx        # 10080 <g_2338+0x1018>
    c2f6:	b9 2a 00 00 00       	mov    $0x2a,%ecx
    c2fb:	48 89 c7             	mov    %rax,%rdi
    c2fe:	48 89 d6             	mov    %rdx,%rsi
    c301:	f3 48 a5             	rep movsq %ds:(%rsi),%es:(%rdi)
    c304:	48 8d 05 19 6d 00 00 	lea    0x6d19(%rip),%rax        # 13024 <g_7>
    c30b:	48 89 85 78 f5 ff ff 	mov    %rax,-0xa88(%rbp)
    c312:	48 8d 05 0b 6d 00 00 	lea    0x6d0b(%rip),%rax        # 13024 <g_7>
    c319:	48 89 85 80 f5 ff ff 	mov    %rax,-0xa80(%rbp)
    c320:	c6 85 41 f5 ff ff 00 	movb   $0x0,-0xabf(%rbp)
    c327:	48 8d 05 5a 8c 00 00 	lea    0x8c5a(%rip),%rax        # 14f88 <g_155>
    c32e:	48 89 85 88 f5 ff ff 	mov    %rax,-0xa78(%rbp)
    c335:	48 8d 05 0c 6d 00 00 	lea    0x6d0c(%rip),%rax        # 13048 <g_118>
    c33c:	48 89 85 90 f5 ff ff 	mov    %rax,-0xa70(%rbp)
    c343:	66 c7 85 44 f5 ff ff 	movw   $0xffff,-0xabc(%rbp)
    c34a:	ff ff 
    c34c:	66 c7 85 d0 f6 ff ff 	movw   $0x20ec,-0x930(%rbp)
    c353:	ec 20 
    c355:	66 c7 85 d2 f6 ff ff 	movw   $0x1,-0x92e(%rbp)
    c35c:	01 00 
    c35e:	66 c7 85 d4 f6 ff ff 	movw   $0xffff,-0x92c(%rbp)
    c365:	ff ff 
    c367:	66 c7 85 d6 f6 ff ff 	movw   $0x1,-0x92a(%rbp)
    c36e:	01 00 
    c370:	66 c7 85 d8 f6 ff ff 	movw   $0x20ec,-0x928(%rbp)
    c377:	ec 20 
    c379:	66 c7 85 da f6 ff ff 	movw   $0x2fba,-0x926(%rbp)
    c380:	ba 2f 
    c382:	66 c7 85 dc f6 ff ff 	movw   $0x20ec,-0x924(%rbp)
    c389:	ec 20 
    c38b:	66 c7 85 de f6 ff ff 	movw   $0x1,-0x922(%rbp)
    c392:	01 00 
    c394:	66 c7 85 e0 f6 ff ff 	movw   $0xffff,-0x920(%rbp)
    c39b:	ff ff 
    c39d:	66 c7 85 e2 f6 ff ff 	movw   $0x1,-0x91e(%rbp)
    c3a4:	01 00 
    c3a6:	66 c7 85 e4 f6 ff ff 	movw   $0x20ec,-0x91c(%rbp)
    c3ad:	ec 20 
    c3af:	66 c7 85 e6 f6 ff ff 	movw   $0x41cc,-0x91a(%rbp)
    c3b6:	cc 41 
    c3b8:	66 c7 85 e8 f6 ff ff 	movw   $0x0,-0x918(%rbp)
    c3bf:	00 00 
    c3c1:	66 c7 85 ea f6 ff ff 	movw   $0x1,-0x916(%rbp)
    c3c8:	01 00 
    c3ca:	66 c7 85 ec f6 ff ff 	movw   $0x0,-0x914(%rbp)
    c3d1:	00 00 
    c3d3:	66 c7 85 ee f6 ff ff 	movw   $0x41cc,-0x912(%rbp)
    c3da:	cc 41 
    c3dc:	66 c7 85 f0 f6 ff ff 	movw   $0x20ec,-0x910(%rbp)
    c3e3:	ec 20 
    c3e5:	66 c7 85 f2 f6 ff ff 	movw   $0x41cc,-0x90e(%rbp)
    c3ec:	cc 41 
    c3ee:	66 c7 85 f4 f6 ff ff 	movw   $0x0,-0x90c(%rbp)
    c3f5:	00 00 
    c3f7:	66 c7 85 f6 f6 ff ff 	movw   $0x1,-0x90a(%rbp)
    c3fe:	01 00 
    c400:	66 c7 85 f8 f6 ff ff 	movw   $0x0,-0x908(%rbp)
    c407:	00 00 
    c409:	66 c7 85 fa f6 ff ff 	movw   $0x1,-0x906(%rbp)
    c410:	01 00 
    c412:	66 c7 85 fc f6 ff ff 	movw   $0x0,-0x904(%rbp)
    c419:	00 00 
    c41b:	66 c7 85 fe f6 ff ff 	movw   $0x41cc,-0x902(%rbp)
    c422:	cc 41 
    c424:	66 c7 85 00 f7 ff ff 	movw   $0x20ec,-0x900(%rbp)
    c42b:	ec 20 
    c42d:	66 c7 85 02 f7 ff ff 	movw   $0x41cc,-0x8fe(%rbp)
    c434:	cc 41 
    c436:	66 c7 85 04 f7 ff ff 	movw   $0x0,-0x8fc(%rbp)
    c43d:	00 00 
    c43f:	66 c7 85 06 f7 ff ff 	movw   $0x1,-0x8fa(%rbp)
    c446:	01 00 
    c448:	66 c7 85 08 f7 ff ff 	movw   $0x0,-0x8f8(%rbp)
    c44f:	00 00 
    c451:	66 c7 85 0a f7 ff ff 	movw   $0x41cc,-0x8f6(%rbp)
    c458:	cc 41 
    c45a:	66 c7 85 0c f7 ff ff 	movw   $0x20ec,-0x8f4(%rbp)
    c461:	ec 20 
    c463:	66 c7 85 0e f7 ff ff 	movw   $0x1,-0x8f2(%rbp)
    c46a:	01 00 
    c46c:	66 c7 85 10 f7 ff ff 	movw   $0xffff,-0x8f0(%rbp)
    c473:	ff ff 
    c475:	66 c7 85 12 f7 ff ff 	movw   $0x1,-0x8ee(%rbp)
    c47c:	01 00 
    c47e:	66 c7 85 14 f7 ff ff 	movw   $0x20ec,-0x8ec(%rbp)
    c485:	ec 20 
    c487:	66 c7 85 16 f7 ff ff 	movw   $0x2fba,-0x8ea(%rbp)
    c48e:	ba 2f 
    c490:	66 c7 85 18 f7 ff ff 	movw   $0x20ec,-0x8e8(%rbp)
    c497:	ec 20 
    c499:	66 c7 85 1a f7 ff ff 	movw   $0x1,-0x8e6(%rbp)
    c4a0:	01 00 
    c4a2:	66 c7 85 1c f7 ff ff 	movw   $0xffff,-0x8e4(%rbp)
    c4a9:	ff ff 
    c4ab:	66 c7 85 1e f7 ff ff 	movw   $0x1,-0x8e2(%rbp)
    c4b2:	01 00 
    c4b4:	66 c7 85 46 f5 ff ff 	movw   $0x2b03,-0xaba(%rbp)
    c4bb:	03 2b 
    c4bd:	c7 85 54 f5 ff ff 82 	movl   $0x7c134b82,-0xaac(%rbp)
    c4c4:	4b 13 7c 
    c4c7:	48 8d 05 0a 8b 00 00 	lea    0x8b0a(%rip),%rax        # 14fd8 <g_176+0x18>
    c4ce:	48 89 85 98 f5 ff ff 	mov    %rax,-0xa68(%rbp)
    c4d5:	c6 85 42 f5 ff ff 01 	movb   $0x1,-0xabe(%rbp)
    c4dc:	66 c7 85 00 f6 ff ff 	movw   $0x5527,-0xa00(%rbp)
    c4e3:	27 55 
    c4e5:	66 c7 85 02 f6 ff ff 	movw   $0x5527,-0x9fe(%rbp)
    c4ec:	27 55 
    c4ee:	66 c7 85 04 f6 ff ff 	movw   $0x1,-0x9fc(%rbp)
    c4f5:	01 00 
    c4f7:	66 c7 85 06 f6 ff ff 	movw   $0xffff,-0x9fa(%rbp)
    c4fe:	ff ff 
    c500:	66 c7 85 08 f6 ff ff 	movw   $0xd6ff,-0x9f8(%rbp)
    c507:	ff d6 
    c509:	66 c7 85 0a f6 ff ff 	movw   $0x0,-0x9f6(%rbp)
    c510:	00 00 
    c512:	66 c7 85 0c f6 ff ff 	movw   $0xd6ff,-0x9f4(%rbp)
    c519:	ff d6 
    c51b:	66 c7 85 0e f6 ff ff 	movw   $0x1,-0x9f2(%rbp)
    c522:	01 00 
    c524:	66 c7 85 10 f6 ff ff 	movw   $0xd6ff,-0x9f0(%rbp)
    c52b:	ff d6 
    c52d:	66 c7 85 12 f6 ff ff 	movw   $0x1,-0x9ee(%rbp)
    c534:	01 00 
    c536:	66 c7 85 14 f6 ff ff 	movw   $0x1,-0x9ec(%rbp)
    c53d:	01 00 
    c53f:	66 c7 85 16 f6 ff ff 	movw   $0xd6ff,-0x9ea(%rbp)
    c546:	ff d6 
    c548:	66 c7 85 18 f6 ff ff 	movw   $0x5527,-0x9e8(%rbp)
    c54f:	27 55 
    c551:	66 c7 85 1a f6 ff ff 	movw   $0x1,-0x9e6(%rbp)
    c558:	01 00 
    c55a:	66 c7 85 1c f6 ff ff 	movw   $0xffff,-0x9e4(%rbp)
    c561:	ff ff 
    c563:	66 c7 85 1e f6 ff ff 	movw   $0x1,-0x9e2(%rbp)
    c56a:	01 00 
    c56c:	66 c7 85 20 f6 ff ff 	movw   $0x1,-0x9e0(%rbp)
    c573:	01 00 
    c575:	66 c7 85 22 f6 ff ff 	movw   $0x0,-0x9de(%rbp)
    c57c:	00 00 
    c57e:	66 c7 85 24 f6 ff ff 	movw   $0xffff,-0x9dc(%rbp)
    c585:	ff ff 
    c587:	66 c7 85 26 f6 ff ff 	movw   $0xffff,-0x9da(%rbp)
    c58e:	ff ff 
    c590:	c7 85 58 f5 ff ff 01 	movl   $0x1,-0xaa8(%rbp)
    c597:	00 00 00 
    c59a:	c7 85 5c f5 ff ff d7 	movl   $0x28b4ced7,-0xaa4(%rbp)
    c5a1:	ce b4 28 
    c5a4:	c7 85 60 f5 ff ff d7 	movl   $0x4f7ba2d7,-0xaa0(%rbp)
    c5ab:	a2 7b 4f 
    c5ae:	c7 85 38 f5 ff ff 00 	movl   $0x0,-0xac8(%rbp)
    c5b5:	00 00 00 
    c5b8:	e9 cd 02 00 00       	jmpq   c88a <func_40+0x5da>
    c5bd:	c7 85 64 f5 ff ff 01 	movl   $0x1,-0xa9c(%rbp)
    c5c4:	00 00 00 
    c5c7:	48 8d 85 30 f6 ff ff 	lea    -0x9d0(%rbp),%rax
    c5ce:	48 83 c0 18          	add    $0x18,%rax
    c5d2:	48 89 85 a0 f5 ff ff 	mov    %rax,-0xa60(%rbp)
    c5d9:	48 8d 85 70 f8 ff ff 	lea    -0x790(%rbp),%rax
    c5e0:	48 8d 15 39 7f 00 00 	lea    0x7f39(%rip),%rdx        # 14520 <g_2959+0x1422>
    c5e7:	b9 f0 00 00 00       	mov    $0xf0,%ecx
    c5ec:	48 89 c7             	mov    %rax,%rdi
    c5ef:	48 89 d6             	mov    %rdx,%rsi
    c5f2:	f3 48 a5             	rep movsq %ds:(%rsi),%es:(%rdi)
    c5f5:	c7 85 68 f5 ff ff ff 	movl   $0xffffffff,-0xa98(%rbp)
    c5fc:	ff ff ff 
    c5ff:	48 8d 05 82 89 00 00 	lea    0x8982(%rip),%rax        # 14f88 <g_155>
    c606:	48 89 85 a8 f5 ff ff 	mov    %rax,-0xa58(%rbp)
    c60d:	c7 85 6c f5 ff ff 01 	movl   $0x1,-0xa94(%rbp)
    c614:	00 00 00 
    c617:	48 8d 05 22 6a 00 00 	lea    0x6a22(%rip),%rax        # 13040 <g_85>
    c61e:	48 89 85 70 f5 ff ff 	mov    %rax,-0xa90(%rbp)
    c625:	48 8d 85 e0 f5 ff ff 	lea    -0xa20(%rbp),%rax
    c62c:	48 83 c0 10          	add    $0x10,%rax
    c630:	48 89 85 90 f6 ff ff 	mov    %rax,-0x970(%rbp)
    c637:	48 8d 85 e0 f5 ff ff 	lea    -0xa20(%rbp),%rax
    c63e:	48 83 c0 10          	add    $0x10,%rax
    c642:	48 89 85 98 f6 ff ff 	mov    %rax,-0x968(%rbp)
    c649:	48 8d 85 e0 f5 ff ff 	lea    -0xa20(%rbp),%rax
    c650:	48 83 c0 10          	add    $0x10,%rax
    c654:	48 89 85 a0 f6 ff ff 	mov    %rax,-0x960(%rbp)
    c65b:	48 8d 85 e0 f5 ff ff 	lea    -0xa20(%rbp),%rax
    c662:	48 83 c0 10          	add    $0x10,%rax
    c666:	48 89 85 a8 f6 ff ff 	mov    %rax,-0x958(%rbp)
    c66d:	48 8d 85 e0 f5 ff ff 	lea    -0xa20(%rbp),%rax
    c674:	48 83 c0 10          	add    $0x10,%rax
    c678:	48 89 85 b0 f6 ff ff 	mov    %rax,-0x950(%rbp)
    c67f:	48 8d 85 e0 f5 ff ff 	lea    -0xa20(%rbp),%rax
    c686:	48 83 c0 10          	add    $0x10,%rax
    c68a:	48 89 85 b8 f6 ff ff 	mov    %rax,-0x948(%rbp)
    c691:	48 8d 85 e0 f5 ff ff 	lea    -0xa20(%rbp),%rax
    c698:	48 83 c0 10          	add    $0x10,%rax
    c69c:	48 89 85 c0 f6 ff ff 	mov    %rax,-0x940(%rbp)
    c6a3:	48 8d 85 e0 f5 ff ff 	lea    -0xa20(%rbp),%rax
    c6aa:	48 83 c0 10          	add    $0x10,%rax
    c6ae:	48 89 85 c8 f6 ff ff 	mov    %rax,-0x938(%rbp)
    c6b5:	48 8d 85 90 f6 ff ff 	lea    -0x970(%rbp),%rax
    c6bc:	48 83 c0 20          	add    $0x20,%rax
    c6c0:	48 89 85 b0 f5 ff ff 	mov    %rax,-0xa50(%rbp)
    c6c7:	66 c7 85 48 f5 ff ff 	movw   $0xffff,-0xab8(%rbp)
    c6ce:	ff ff 
    c6d0:	66 c7 85 60 f6 ff ff 	movw   $0x4,-0x9a0(%rbp)
    c6d7:	04 00 
    c6d9:	66 c7 85 62 f6 ff ff 	movw   $0x7f2b,-0x99e(%rbp)
    c6e0:	2b 7f 
    c6e2:	66 c7 85 64 f6 ff ff 	movw   $0x4,-0x99c(%rbp)
    c6e9:	04 00 
    c6eb:	66 c7 85 66 f6 ff ff 	movw   $0x7f2b,-0x99a(%rbp)
    c6f2:	2b 7f 
    c6f4:	66 c7 85 68 f6 ff ff 	movw   $0x4,-0x998(%rbp)
    c6fb:	04 00 
    c6fd:	66 c7 85 6a f6 ff ff 	movw   $0x7f2b,-0x996(%rbp)
    c704:	2b 7f 
    c706:	66 c7 85 6c f6 ff ff 	movw   $0x4,-0x994(%rbp)
    c70d:	04 00 
    c70f:	66 c7 85 6e f6 ff ff 	movw   $0x7f2b,-0x992(%rbp)
    c716:	2b 7f 
    c718:	66 c7 85 70 f6 ff ff 	movw   $0x4,-0x990(%rbp)
    c71f:	04 00 
    c721:	66 c7 85 72 f6 ff ff 	movw   $0x7f2b,-0x98e(%rbp)
    c728:	2b 7f 
    c72a:	66 c7 85 74 f6 ff ff 	movw   $0x4,-0x98c(%rbp)
    c731:	04 00 
    c733:	66 c7 85 76 f6 ff ff 	movw   $0x7f2b,-0x98a(%rbp)
    c73a:	2b 7f 
    c73c:	66 c7 85 78 f6 ff ff 	movw   $0x4,-0x988(%rbp)
    c743:	04 00 
    c745:	66 c7 85 7a f6 ff ff 	movw   $0x7f2b,-0x986(%rbp)
    c74c:	2b 7f 
    c74e:	66 c7 85 7c f6 ff ff 	movw   $0x4,-0x984(%rbp)
    c755:	04 00 
    c757:	66 c7 85 7e f6 ff ff 	movw   $0x7f2b,-0x982(%rbp)
    c75e:	2b 7f 
    c760:	66 c7 85 80 f6 ff ff 	movw   $0x4,-0x980(%rbp)
    c767:	04 00 
    c769:	66 c7 85 82 f6 ff ff 	movw   $0x7f2b,-0x97e(%rbp)
    c770:	2b 7f 
    c772:	66 c7 85 84 f6 ff ff 	movw   $0x4,-0x97c(%rbp)
    c779:	04 00 
    c77b:	66 c7 85 86 f6 ff ff 	movw   $0x7f2b,-0x97a(%rbp)
    c782:	2b 7f 
    c784:	66 c7 85 88 f6 ff ff 	movw   $0x4,-0x978(%rbp)
    c78b:	04 00 
    c78d:	66 c7 85 8a f6 ff ff 	movw   $0x7f2b,-0x976(%rbp)
    c794:	2b 7f 
    c796:	66 c7 85 8c f6 ff ff 	movw   $0x4,-0x974(%rbp)
    c79d:	04 00 
    c79f:	66 c7 85 8e f6 ff ff 	movw   $0x7f2b,-0x972(%rbp)
    c7a6:	2b 7f 
    c7a8:	66 c7 85 4a f5 ff ff 	movw   $0xfff6,-0xab6(%rbp)
    c7af:	f6 ff 
    c7b1:	48 8d 05 90 68 00 00 	lea    0x6890(%rip),%rax        # 13048 <g_118>
    c7b8:	48 89 85 b8 f5 ff ff 	mov    %rax,-0xa48(%rbp)
    c7bf:	c6 85 43 f5 ff ff ff 	movb   $0xff,-0xabd(%rbp)
    c7c6:	c7 85 4c f5 ff ff 00 	movl   $0x0,-0xab4(%rbp)
    c7cd:	00 00 00 
    c7d0:	eb 1e                	jmp    c7f0 <func_40+0x540>
    c7d2:	8b 85 4c f5 ff ff    	mov    -0xab4(%rbp),%eax
    c7d8:	48 98                	cltq   
    c7da:	48 8d 15 43 68 00 00 	lea    0x6843(%rip),%rdx        # 13024 <g_7>
    c7e1:	48 89 94 c5 30 f6 ff 	mov    %rdx,-0x9d0(%rbp,%rax,8)
    c7e8:	ff 
    c7e9:	83 85 4c f5 ff ff 01 	addl   $0x1,-0xab4(%rbp)
    c7f0:	83 bd 4c f5 ff ff 04 	cmpl   $0x4,-0xab4(%rbp)
    c7f7:	7e d9                	jle    c7d2 <func_40+0x522>
    c7f9:	c7 85 4c f5 ff ff 00 	movl   $0x0,-0xab4(%rbp)
    c800:	00 00 00 
    c803:	eb 1e                	jmp    c823 <func_40+0x573>
    c805:	8b 85 4c f5 ff ff    	mov    -0xab4(%rbp),%eax
    c80b:	48 98                	cltq   
    c80d:	48 8d 95 70 f5 ff ff 	lea    -0xa90(%rbp),%rdx
    c814:	48 89 94 c5 e0 f5 ff 	mov    %rdx,-0xa20(%rbp,%rax,8)
    c81b:	ff 
    c81c:	83 85 4c f5 ff ff 01 	addl   $0x1,-0xab4(%rbp)
    c823:	83 bd 4c f5 ff ff 02 	cmpl   $0x2,-0xab4(%rbp)
    c82a:	7e d9                	jle    c805 <func_40+0x555>
    c82c:	c7 85 4c f5 ff ff 00 	movl   $0x0,-0xab4(%rbp)
    c833:	00 00 00 
    c836:	eb 42                	jmp    c87a <func_40+0x5ca>
    c838:	c7 85 50 f5 ff ff 00 	movl   $0x0,-0xab0(%rbp)
    c83f:	00 00 00 
    c842:	eb 26                	jmp    c86a <func_40+0x5ba>
    c844:	8b 85 50 f5 ff ff    	mov    -0xab0(%rbp),%eax
    c84a:	48 63 d0             	movslq %eax,%rdx
    c84d:	8b 85 4c f5 ff ff    	mov    -0xab4(%rbp),%eax
    c853:	48 98                	cltq   
    c855:	48 01 d0             	add    %rdx,%rax
    c858:	c7 84 85 c0 f5 ff ff 	movl   $0x1,-0xa40(%rbp,%rax,4)
    c85f:	01 00 00 00 
    c863:	83 85 50 f5 ff ff 01 	addl   $0x1,-0xab0(%rbp)
    c86a:	83 bd 50 f5 ff ff 00 	cmpl   $0x0,-0xab0(%rbp)
    c871:	7e d1                	jle    c844 <func_40+0x594>
    c873:	83 85 4c f5 ff ff 01 	addl   $0x1,-0xab4(%rbp)
    c87a:	83 bd 4c f5 ff ff 04 	cmpl   $0x4,-0xab4(%rbp)
    c881:	7e b5                	jle    c838 <func_40+0x588>
    c883:	83 85 38 f5 ff ff 01 	addl   $0x1,-0xac8(%rbp)
    c88a:	83 bd 38 f5 ff ff 02 	cmpl   $0x2,-0xac8(%rbp)
    c891:	0f 86 26 fd ff ff    	jbe    c5bd <func_40+0x30d>
    c897:	83 bd 38 f5 ff ff 00 	cmpl   $0x0,-0xac8(%rbp)
    c89e:	90                   	nop
    c89f:	f3 0f 1e fa          	endbr64 
    c8a3:	48 8b 85 88 f5 ff ff 	mov    -0xa78(%rbp),%rax
    c8aa:	48 8b 00             	mov    (%rax),%rax
    c8ad:	c7 00 f1 5b 7d 9f    	movl   $0x9f7d5bf1,(%rax)
    c8b3:	48 8b 85 88 f5 ff ff 	mov    -0xa78(%rbp),%rax
    c8ba:	48 8b 00             	mov    (%rax),%rax
    c8bd:	8b 95 3c f5 ff ff    	mov    -0xac4(%rbp),%edx
    c8c3:	89 10                	mov    %edx,(%rax)
    c8c5:	48 8b 15 3c 87 00 00 	mov    0x873c(%rip),%rdx        # 15008 <g_631>
    c8cc:	8b 00                	mov    (%rax),%eax
    c8ce:	89 02                	mov    %eax,(%rdx)
    c8d0:	48 8b 05 b1 86 00 00 	mov    0x86b1(%rip),%rax        # 14f88 <g_155>
    c8d7:	c7 00 61 ee 9f f3    	movl   $0xf39fee61,(%rax)
    c8dd:	48 8d 05 40 67 00 00 	lea    0x6740(%rip),%rax        # 13024 <g_7>
    c8e4:	48 8b 4d f8          	mov    -0x8(%rbp),%rcx
    c8e8:	64 48 33 0c 25 28 00 	xor    %fs:0x28,%rcx
    c8ef:	00 00 
    c8f1:	74 05                	je     c8f8 <func_40+0x648>
    c8f3:	e8 78 97 ff ff       	callq  6070 <__stack_chk_fail@plt>
    c8f8:	c9                   	leaveq 
    c8f9:	c3                   	retq   

000000000000c8fa <func_46>:
    c8fa:	f3 0f 1e fa          	endbr64 
    c8fe:	55                   	push   %rbp
    c8ff:	48 89 e5             	mov    %rsp,%rbp
    c902:	41 54                	push   %r12
    c904:	53                   	push   %rbx
    c905:	48 81 ec 00 06 00 00 	sub    $0x600,%rsp
    c90c:	89 f8                	mov    %edi,%eax
    c90e:	89 b5 f8 f9 ff ff    	mov    %esi,-0x608(%rbp)
    c914:	48 89 95 f0 f9 ff ff 	mov    %rdx,-0x610(%rbp)
    c91b:	66 89 85 fc f9 ff ff 	mov    %ax,-0x604(%rbp)
    c922:	64 48 8b 04 25 28 00 	mov    %fs:0x28,%rax
    c929:	00 00 
    c92b:	48 89 45 e8          	mov    %rax,-0x18(%rbp)
    c92f:	31 c0                	xor    %eax,%eax
    c931:	c7 85 18 fa ff ff 00 	movl   $0x0,-0x5e8(%rbp)
    c938:	00 00 00 
    c93b:	c7 85 0c fa ff ff 1d 	movl   $0x834c931d,-0x5f4(%rbp)
    c942:	93 4c 83 
    c945:	c7 85 10 fa ff ff d0 	movl   $0xec0a1d0,-0x5f0(%rbp)
    c94c:	a1 c0 0e 
    c94f:	c7 85 1c fa ff ff 17 	movl   $0xb61e3e17,-0x5e4(%rbp)
    c956:	3e 1e b6 
    c959:	c6 85 0b fa ff ff fa 	movb   $0xfa,-0x5f5(%rbp)
    c960:	c7 85 20 fa ff ff 8b 	movl   $0x5599f8b,-0x5e0(%rbp)
    c967:	9f 59 05 
    c96a:	c7 85 20 fb ff ff 00 	movl   $0x0,-0x4e0(%rbp)
    c971:	00 00 00 
    c974:	c7 85 24 fb ff ff 00 	movl   $0x0,-0x4dc(%rbp)
    c97b:	00 00 00 
    c97e:	c7 85 28 fb ff ff 00 	movl   $0x0,-0x4d8(%rbp)
    c985:	00 00 00 
    c988:	c7 85 2c fb ff ff b1 	movl   $0x6d2e92b1,-0x4d4(%rbp)
    c98f:	92 2e 6d 
    c992:	c7 85 30 fb ff ff f7 	movl   $0xfffffff7,-0x4d0(%rbp)
    c999:	ff ff ff 
    c99c:	c7 85 34 fb ff ff b1 	movl   $0x6d2e92b1,-0x4cc(%rbp)
    c9a3:	92 2e 6d 
    c9a6:	c7 85 38 fb ff ff 49 	movl   $0x1fda2849,-0x4c8(%rbp)
    c9ad:	28 da 1f 
    c9b0:	c7 85 3c fb ff ff 00 	movl   $0x0,-0x4c4(%rbp)
    c9b7:	00 00 00 
    c9ba:	c7 85 40 fb ff ff 49 	movl   $0x1fda2849,-0x4c0(%rbp)
    c9c1:	28 da 1f 
    c9c4:	c7 85 44 fb ff ff b1 	movl   $0x6d2e92b1,-0x4bc(%rbp)
    c9cb:	92 2e 6d 
    c9ce:	c7 85 48 fb ff ff b7 	movl   $0xeea5f8b7,-0x4b8(%rbp)
    c9d5:	f8 a5 ee 
    c9d8:	c7 85 4c fb ff ff b1 	movl   $0x6d2e92b1,-0x4b4(%rbp)
    c9df:	92 2e 6d 
    c9e2:	c7 85 50 fb ff ff 00 	movl   $0x0,-0x4b0(%rbp)
    c9e9:	00 00 00 
    c9ec:	c7 85 54 fb ff ff 00 	movl   $0x0,-0x4ac(%rbp)
    c9f3:	00 00 00 
    c9f6:	c7 85 58 fb ff ff 00 	movl   $0x0,-0x4a8(%rbp)
    c9fd:	00 00 00 
    ca00:	c7 85 5c fb ff ff b1 	movl   $0x6d2e92b1,-0x4a4(%rbp)
    ca07:	92 2e 6d 
    ca0a:	c7 85 60 fb ff ff f7 	movl   $0xfffffff7,-0x4a0(%rbp)
    ca11:	ff ff ff 
    ca14:	c7 85 64 fb ff ff b1 	movl   $0x6d2e92b1,-0x49c(%rbp)
    ca1b:	92 2e 6d 
    ca1e:	c7 85 68 fb ff ff 49 	movl   $0x1fda2849,-0x498(%rbp)
    ca25:	28 da 1f 
    ca28:	c7 85 6c fb ff ff 00 	movl   $0x0,-0x494(%rbp)
    ca2f:	00 00 00 
    ca32:	c7 85 70 fb ff ff 49 	movl   $0x1fda2849,-0x490(%rbp)
    ca39:	28 da 1f 
    ca3c:	c7 85 74 fb ff ff b1 	movl   $0x6d2e92b1,-0x48c(%rbp)
    ca43:	92 2e 6d 
    ca46:	c7 85 78 fb ff ff b7 	movl   $0xeea5f8b7,-0x488(%rbp)
    ca4d:	f8 a5 ee 
    ca50:	c7 85 7c fb ff ff b1 	movl   $0x6d2e92b1,-0x484(%rbp)
    ca57:	92 2e 6d 
    ca5a:	c7 85 80 fb ff ff 00 	movl   $0x0,-0x480(%rbp)
    ca61:	00 00 00 
    ca64:	c7 85 84 fb ff ff 00 	movl   $0x0,-0x47c(%rbp)
    ca6b:	00 00 00 
    ca6e:	c7 85 88 fb ff ff 00 	movl   $0x0,-0x478(%rbp)
    ca75:	00 00 00 
    ca78:	c7 85 8c fb ff ff b1 	movl   $0x6d2e92b1,-0x474(%rbp)
    ca7f:	92 2e 6d 
    ca82:	c7 85 90 fb ff ff f7 	movl   $0xfffffff7,-0x470(%rbp)
    ca89:	ff ff ff 
    ca8c:	c7 85 94 fb ff ff b1 	movl   $0x6d2e92b1,-0x46c(%rbp)
    ca93:	92 2e 6d 
    ca96:	c7 85 98 fb ff ff 49 	movl   $0x1fda2849,-0x468(%rbp)
    ca9d:	28 da 1f 
    caa0:	c7 85 9c fb ff ff 00 	movl   $0x0,-0x464(%rbp)
    caa7:	00 00 00 
    caaa:	c7 85 a0 fb ff ff 49 	movl   $0x1fda2849,-0x460(%rbp)
    cab1:	28 da 1f 
    cab4:	c7 85 a4 fb ff ff b1 	movl   $0x6d2e92b1,-0x45c(%rbp)
    cabb:	92 2e 6d 
    cabe:	c7 85 a8 fb ff ff b7 	movl   $0xeea5f8b7,-0x458(%rbp)
    cac5:	f8 a5 ee 
    cac8:	c7 85 ac fb ff ff b1 	movl   $0x6d2e92b1,-0x454(%rbp)
    cacf:	92 2e 6d 
    cad2:	c7 85 b0 fb ff ff 00 	movl   $0x0,-0x450(%rbp)
    cad9:	00 00 00 
    cadc:	c7 85 b4 fb ff ff 00 	movl   $0x0,-0x44c(%rbp)
    cae3:	00 00 00 
    cae6:	c7 85 b8 fb ff ff 00 	movl   $0x0,-0x448(%rbp)
    caed:	00 00 00 
    caf0:	c7 85 bc fb ff ff b1 	movl   $0x6d2e92b1,-0x444(%rbp)
    caf7:	92 2e 6d 
    cafa:	c7 85 c0 fb ff ff f7 	movl   $0xfffffff7,-0x440(%rbp)
    cb01:	ff ff ff 
    cb04:	c7 85 c4 fb ff ff b1 	movl   $0x6d2e92b1,-0x43c(%rbp)
    cb0b:	92 2e 6d 
    cb0e:	c7 85 c8 fb ff ff 49 	movl   $0x1fda2849,-0x438(%rbp)
    cb15:	28 da 1f 
    cb18:	c7 85 cc fb ff ff 00 	movl   $0x0,-0x434(%rbp)
    cb1f:	00 00 00 
    cb22:	c7 85 d0 fb ff ff 49 	movl   $0x1fda2849,-0x430(%rbp)
    cb29:	28 da 1f 
    cb2c:	c7 85 d4 fb ff ff b1 	movl   $0x6d2e92b1,-0x42c(%rbp)
    cb33:	92 2e 6d 
    cb36:	c7 85 d8 fb ff ff b7 	movl   $0xeea5f8b7,-0x428(%rbp)
    cb3d:	f8 a5 ee 
    cb40:	c7 85 dc fb ff ff b1 	movl   $0x6d2e92b1,-0x424(%rbp)
    cb47:	92 2e 6d 
    cb4a:	c7 05 04 65 00 00 00 	movl   $0x0,0x6504(%rip)        # 13058 <g_257>
    cb51:	00 00 00 
    cb54:	90                   	nop
    cb55:	8b 05 fd 64 00 00    	mov    0x64fd(%rip),%eax        # 13058 <g_257>
    cb5b:	83 f8 03             	cmp    $0x3,%eax
    cb5e:	77 0c                	ja     cb6c <func_46+0x272>
    cb60:	0f b7 85 fc f9 ff ff 	movzwl -0x604(%rbp),%eax
    cb67:	e9 12 03 00 00       	jmpq   ce7e <func_46+0x584>
    cb6c:	c6 85 0a fa ff ff fd 	movb   $0xfd,-0x5f6(%rbp)
    cb73:	48 c7 85 38 fa ff ff 	movq   $0x0,-0x5c8(%rbp)
    cb7a:	00 00 00 00 
    cb7e:	48 8d 05 d7 64 00 00 	lea    0x64d7(%rip),%rax        # 1305c <g_306>
    cb85:	48 89 85 28 fa ff ff 	mov    %rax,-0x5d8(%rbp)
    cb8c:	48 8d 05 b5 64 00 00 	lea    0x64b5(%rip),%rax        # 13048 <g_118>
    cb93:	48 89 85 30 fa ff ff 	mov    %rax,-0x5d0(%rbp)
    cb9a:	48 c7 85 40 fa ff ff 	movq   $0x0,-0x5c0(%rbp)
    cba1:	00 00 00 00 
    cba5:	c7 85 14 fa ff ff 11 	movl   $0xf128c111,-0x5ec(%rbp)
    cbac:	c1 28 f1 
    cbaf:	48 8d 05 9a 64 00 00 	lea    0x649a(%rip),%rax        # 13050 <g_122>
    cbb6:	48 89 85 48 fa ff ff 	mov    %rax,-0x5b8(%rbp)
    cbbd:	48 8d 85 e0 fb ff ff 	lea    -0x420(%rbp),%rax
    cbc4:	48 8d 15 15 36 00 00 	lea    0x3615(%rip),%rdx        # 101e0 <g_2338+0x1178>
    cbcb:	b9 80 00 00 00       	mov    $0x80,%ecx
    cbd0:	48 89 c7             	mov    %rax,%rdi
    cbd3:	48 89 d6             	mov    %rdx,%rsi
    cbd6:	f3 48 a5             	rep movsq %ds:(%rsi),%es:(%rdi)
    cbd9:	48 8d 05 70 64 00 00 	lea    0x6470(%rip),%rax        # 13050 <g_122>
    cbe0:	48 89 85 50 fa ff ff 	mov    %rax,-0x5b0(%rbp)
    cbe7:	48 c7 85 58 fa ff ff 	movq   $0x0,-0x5a8(%rbp)
    cbee:	00 00 00 00 
    cbf2:	48 8d 85 e0 fb ff ff 	lea    -0x420(%rbp),%rax
    cbf9:	48 05 44 03 00 00    	add    $0x344,%rax
    cbff:	48 89 85 60 fa ff ff 	mov    %rax,-0x5a0(%rbp)
    cc06:	48 8d 05 43 64 00 00 	lea    0x6443(%rip),%rax        # 13050 <g_122>
    cc0d:	48 89 85 68 fa ff ff 	mov    %rax,-0x598(%rbp)
    cc14:	48 8d 85 e0 fb ff ff 	lea    -0x420(%rbp),%rax
    cc1b:	48 83 c0 34          	add    $0x34,%rax
    cc1f:	48 89 85 70 fa ff ff 	mov    %rax,-0x590(%rbp)
    cc26:	48 8d 05 13 64 00 00 	lea    0x6413(%rip),%rax        # 13040 <g_85>
    cc2d:	48 89 85 78 fa ff ff 	mov    %rax,-0x588(%rbp)
    cc34:	48 c7 85 80 fa ff ff 	movq   $0x0,-0x580(%rbp)
    cc3b:	00 00 00 00 
    cc3f:	48 c7 85 88 fa ff ff 	movq   $0x0,-0x578(%rbp)
    cc46:	00 00 00 00 
    cc4a:	48 8d 85 0c fa ff ff 	lea    -0x5f4(%rbp),%rax
    cc51:	48 89 85 90 fa ff ff 	mov    %rax,-0x570(%rbp)
    cc58:	48 8d 85 10 fa ff ff 	lea    -0x5f0(%rbp),%rax
    cc5f:	48 89 85 98 fa ff ff 	mov    %rax,-0x568(%rbp)
    cc66:	48 8d 05 e3 63 00 00 	lea    0x63e3(%rip),%rax        # 13050 <g_122>
    cc6d:	48 89 85 a0 fa ff ff 	mov    %rax,-0x560(%rbp)
    cc74:	48 8d 05 d5 63 00 00 	lea    0x63d5(%rip),%rax        # 13050 <g_122>
    cc7b:	48 89 85 a8 fa ff ff 	mov    %rax,-0x558(%rbp)
    cc82:	48 8d 85 14 fa ff ff 	lea    -0x5ec(%rbp),%rax
    cc89:	48 89 85 b0 fa ff ff 	mov    %rax,-0x550(%rbp)
    cc90:	48 8d 85 0c fa ff ff 	lea    -0x5f4(%rbp),%rax
    cc97:	48 89 85 b8 fa ff ff 	mov    %rax,-0x548(%rbp)
    cc9e:	48 8d 05 ab 63 00 00 	lea    0x63ab(%rip),%rax        # 13050 <g_122>
    cca5:	48 89 85 c0 fa ff ff 	mov    %rax,-0x540(%rbp)
    ccac:	48 8d 05 9d 63 00 00 	lea    0x639d(%rip),%rax        # 13050 <g_122>
    ccb3:	48 89 85 c8 fa ff ff 	mov    %rax,-0x538(%rbp)
    ccba:	48 c7 85 d0 fa ff ff 	movq   $0x0,-0x530(%rbp)
    ccc1:	00 00 00 00 
    ccc5:	48 8d 85 e0 fb ff ff 	lea    -0x420(%rbp),%rax
    cccc:	48 05 ac 00 00 00    	add    $0xac,%rax
    ccd2:	48 89 85 d8 fa ff ff 	mov    %rax,-0x528(%rbp)
    ccd9:	48 c7 85 e0 fa ff ff 	movq   $0x0,-0x520(%rbp)
    cce0:	00 00 00 00 
    cce4:	48 c7 85 e8 fa ff ff 	movq   $0x0,-0x518(%rbp)
    cceb:	00 00 00 00 
    ccef:	48 8d 85 e0 fb ff ff 	lea    -0x420(%rbp),%rax
    ccf6:	48 05 ac 00 00 00    	add    $0xac,%rax
    ccfc:	48 89 85 f0 fa ff ff 	mov    %rax,-0x510(%rbp)
    cd03:	48 c7 85 f8 fa ff ff 	movq   $0x0,-0x508(%rbp)
    cd0a:	00 00 00 00 
    cd0e:	48 c7 85 00 fb ff ff 	movq   $0x0,-0x500(%rbp)
    cd15:	00 00 00 00 
    cd19:	48 8d 85 e0 fb ff ff 	lea    -0x420(%rbp),%rax
    cd20:	48 05 ac 00 00 00    	add    $0xac,%rax
    cd26:	48 89 85 08 fb ff ff 	mov    %rax,-0x4f8(%rbp)
    cd2d:	48 c7 85 10 fb ff ff 	movq   $0x0,-0x4f0(%rbp)
    cd34:	00 00 00 00 
    cd38:	48 c7 85 18 fb ff ff 	movq   $0x0,-0x4e8(%rbp)
    cd3f:	00 00 00 00 
    cd43:	c7 85 24 fa ff ff 2a 	movl   $0xb03e8a2a,-0x5dc(%rbp)
    cd4a:	8a 3e b0 
    cd4d:	48 8b 85 f0 f9 ff ff 	mov    -0x610(%rbp),%rax
    cd54:	0f b6 00             	movzbl (%rax),%eax
    cd57:	0f b6 d8             	movzbl %al,%ebx
    cd5a:	44 0f b6 a5 0a fa ff 	movzbl -0x5f6(%rbp),%r12d
    cd61:	ff 
    cd62:	48 8b 05 df 62 00 00 	mov    0x62df(%rip),%rax        # 13048 <g_118>
    cd69:	89 c2                	mov    %eax,%edx
    cd6b:	48 8b 85 28 fa ff ff 	mov    -0x5d8(%rbp),%rax
    cd72:	66 89 10             	mov    %dx,(%rax)
    cd75:	48 8b 05 84 82 00 00 	mov    0x8284(%rip),%rax        # 15000 <g_226>
    cd7c:	48 8b 00             	mov    (%rax),%rax
    cd7f:	0f b6 00             	movzbl (%rax),%eax
    cd82:	0f be c0             	movsbl %al,%eax
    cd85:	c7 85 0c fa ff ff 01 	movl   $0x1,-0x5f4(%rbp)
    cd8c:	00 00 00 
    cd8f:	89 c6                	mov    %eax,%esi
    cd91:	bf 01 00 00 00       	mov    $0x1,%edi
    cd96:	e8 39 94 ff ff       	callq  61d4 <safe_add_func_int8_t_s_s>
    cd9b:	ba 01 00 00 00       	mov    $0x1,%edx
    cda0:	0f bf 85 fc f9 ff ff 	movswl -0x604(%rbp),%eax
    cda7:	39 c2                	cmp    %eax,%edx
    cda9:	0f b6 05 74 62 00 00 	movzbl 0x6274(%rip),%eax        # 13024 <g_7>
    cdb0:	0f b6 d0             	movzbl %al,%edx
    cdb3:	48 8b 05 6e 62 00 00 	mov    0x626e(%rip),%rax        # 13028 <g_16>
    cdba:	48 39 c2             	cmp    %rax,%rdx
    cdbd:	0f 93 c0             	setae  %al
    cdc0:	0f b6 c0             	movzbl %al,%eax
    cdc3:	39 85 f8 f9 ff ff    	cmp    %eax,-0x608(%rbp)
    cdc9:	0f 95 c0             	setne  %al
    cdcc:	0f b6 d0             	movzbl %al,%edx
    cdcf:	0f b6 85 0a fa ff ff 	movzbl -0x5f6(%rbp),%eax
    cdd6:	09 c2                	or     %eax,%edx
    cdd8:	8b 85 10 fa ff ff    	mov    -0x5f0(%rbp),%eax
    cdde:	09 d0                	or     %edx,%eax
    cde0:	89 85 10 fa ff ff    	mov    %eax,-0x5f0(%rbp)
    cde6:	8b 85 10 fa ff ff    	mov    -0x5f0(%rbp),%eax
    cdec:	3d 91 00 00 00       	cmp    $0x91,%eax
    cdf1:	0f 9e c0             	setle  %al
    cdf4:	0f b6 c0             	movzbl %al,%eax
    cdf7:	44 89 e6             	mov    %r12d,%esi
    cdfa:	89 c7                	mov    %eax,%edi
    cdfc:	e8 da 9d ff ff       	callq  6bdb <safe_div_func_uint8_t_u_u>
    ce01:	0f b6 d0             	movzbl %al,%edx
    ce04:	8b 85 14 fa ff ff    	mov    -0x5ec(%rbp),%eax
    ce0a:	21 d0                	and    %edx,%eax
    ce0c:	89 85 14 fa ff ff    	mov    %eax,-0x5ec(%rbp)
    ce12:	8b 85 14 fa ff ff    	mov    -0x5ec(%rbp),%eax
    ce18:	48 63 d0             	movslq %eax,%rdx
    ce1b:	0f b6 85 0a fa ff ff 	movzbl -0x5f6(%rbp),%eax
    ce22:	48 89 d6             	mov    %rdx,%rsi
    ce25:	48 89 c7             	mov    %rax,%rdi
    ce28:	e8 7b 9a ff ff       	callq  68a8 <safe_sub_func_int64_t_s_s>
    ce2d:	0f b6 c0             	movzbl %al,%eax
    ce30:	89 de                	mov    %ebx,%esi
    ce32:	89 c7                	mov    %eax,%edi
    ce34:	e8 5a 9d ff ff       	callq  6b93 <safe_mul_func_uint8_t_u_u>
    ce39:	48 8b 95 48 fa ff ff 	mov    -0x5b8(%rbp),%rdx
    ce40:	8b 12                	mov    (%rdx),%edx
    ce42:	0f b6 c0             	movzbl %al,%eax
    ce45:	31 c2                	xor    %eax,%edx
    ce47:	48 8b 85 48 fa ff ff 	mov    -0x5b8(%rbp),%rax
    ce4e:	89 10                	mov    %edx,(%rax)
    ce50:	48 8b 05 59 81 00 00 	mov    0x8159(%rip),%rax        # 14fb0 <g_178>
    ce57:	48 8d 95 14 fa ff ff 	lea    -0x5ec(%rbp),%rdx
    ce5e:	48 89 10             	mov    %rdx,(%rax)
    ce61:	83 ad 24 fa ff ff 01 	subl   $0x1,-0x5dc(%rbp)
    ce68:	8b 05 e2 61 00 00    	mov    0x61e2(%rip),%eax        # 13050 <g_122>
    ce6e:	85 c0                	test   %eax,%eax
    ce70:	74 05                	je     ce77 <func_46+0x57d>
    ce72:	e9 d3 fc ff ff       	jmpq   cb4a <func_46+0x250>
    ce77:	48 8b 05 ba 61 00 00 	mov    0x61ba(%rip),%rax        # 13038 <g_80>
    ce7e:	48 8b 4d e8          	mov    -0x18(%rbp),%rcx
    ce82:	64 48 33 0c 25 28 00 	xor    %fs:0x28,%rcx
    ce89:	00 00 
    ce8b:	74 05                	je     ce92 <func_46+0x598>
    ce8d:	e8 de 91 ff ff       	callq  6070 <__stack_chk_fail@plt>
    ce92:	48 81 c4 00 06 00 00 	add    $0x600,%rsp
    ce99:	5b                   	pop    %rbx
    ce9a:	41 5c                	pop    %r12
    ce9c:	5d                   	pop    %rbp
    ce9d:	c3                   	retq   

000000000000ce9e <func_61>:
    ce9e:	f3 0f 1e fa          	endbr64 
    cea2:	55                   	push   %rbp
    cea3:	48 89 e5             	mov    %rsp,%rbp
    cea6:	41 56                	push   %r14
    cea8:	41 55                	push   %r13
    ceaa:	41 54                	push   %r12
    ceac:	53                   	push   %rbx
    cead:	48 81 ec 50 05 00 00 	sub    $0x550,%rsp
    ceb4:	89 bd ac fa ff ff    	mov    %edi,-0x554(%rbp)
    ceba:	89 b5 a8 fa ff ff    	mov    %esi,-0x558(%rbp)
    cec0:	48 89 95 a0 fa ff ff 	mov    %rdx,-0x560(%rbp)
    cec7:	89 8d 9c fa ff ff    	mov    %ecx,-0x564(%rbp)
    cecd:	44 89 85 98 fa ff ff 	mov    %r8d,-0x568(%rbp)
    ced4:	64 48 8b 04 25 28 00 	mov    %fs:0x28,%rax
    cedb:	00 00 
    cedd:	48 89 45 d8          	mov    %rax,-0x28(%rbp)
    cee1:	31 c0                	xor    %eax,%eax
    cee3:	48 c7 85 d8 fa ff ff 	movq   $0x0,-0x528(%rbp)
    ceea:	00 00 00 00 
    ceee:	48 b8 fd 00 fb 61 b4 	movabs $0x17fdb3b461fb00fd,%rax
    cef5:	b3 fd 17 
    cef8:	48 89 85 a0 fb ff ff 	mov    %rax,-0x460(%rbp)
    ceff:	66 c7 85 a8 fb ff ff 	movw   $0x4e,-0x458(%rbp)
    cf06:	4e 00 
    cf08:	48 b8 d8 61 56 66 fd 	movabs $0xa314fdfd665661d8,%rax
    cf0f:	fd 14 a3 
    cf12:	48 89 85 aa fb ff ff 	mov    %rax,-0x456(%rbp)
    cf19:	66 c7 85 b2 fb ff ff 	movw   $0xffe3,-0x44e(%rbp)
    cf20:	e3 ff 
    cf22:	48 b8 00 fb fd 4f ee 	movabs $0xf801ee4ffdfb00,%rax
    cf29:	01 f8 00 
    cf2c:	48 89 85 b4 fb ff ff 	mov    %rax,-0x44c(%rbp)
    cf33:	66 c7 85 bc fb ff ff 	movw   $0x1717,-0x444(%rbp)
    cf3a:	17 17 
    cf3c:	48 b8 fd 01 00 01 01 	movabs $0xfd010001010001fd,%rax
    cf43:	00 01 fd 
    cf46:	48 89 85 be fb ff ff 	mov    %rax,-0x442(%rbp)
    cf4d:	66 c7 85 c6 fb ff ff 	movw   $0xfdfe,-0x43a(%rbp)
    cf54:	fe fd 
    cf56:	48 b8 54 a3 17 14 01 	movabs $0x7004f011417a354,%rax
    cf5d:	4f 00 07 
    cf60:	48 89 85 c8 fb ff ff 	mov    %rax,-0x438(%rbp)
    cf67:	66 c7 85 d0 fb ff ff 	movw   $0x1b4,-0x430(%rbp)
    cf6e:	b4 01 
    cf70:	48 b8 fb ee 17 01 fd 	movabs $0xfd5607fd0117eefb,%rax
    cf77:	07 56 fd 
    cf7a:	48 89 85 d2 fb ff ff 	mov    %rax,-0x42e(%rbp)
    cf81:	66 c7 85 da fb ff ff 	movw   $0xb2f5,-0x426(%rbp)
    cf88:	f5 b2 
    cf8a:	48 b8 b3 3d 00 fd 00 	movabs $0xf50100fd003db3,%rax
    cf91:	01 f5 00 
    cf94:	48 89 85 dc fb ff ff 	mov    %rax,-0x424(%rbp)
    cf9b:	66 c7 85 e4 fb ff ff 	movw   $0xa301,-0x41c(%rbp)
    cfa2:	01 a3 
    cfa4:	48 b8 ff f8 fd a3 38 	movabs $0xa3385438a3fdf8ff,%rax
    cfab:	54 38 a3 
    cfae:	48 89 85 e6 fb ff ff 	mov    %rax,-0x41a(%rbp)
    cfb5:	66 c7 85 ee fb ff ff 	movw   $0xf8fd,-0x412(%rbp)
    cfbc:	fd f8 
    cfbe:	48 b8 a3 fd 56 e0 af 	movabs $0x174f66afe056fda3,%rax
    cfc5:	66 4f 17 
    cfc8:	48 89 85 f0 fb ff ff 	mov    %rax,-0x410(%rbp)
    cfcf:	66 c7 85 f8 fb ff ff 	movw   $0xfeff,-0x408(%rbp)
    cfd6:	ff fe 
    cfd8:	c7 85 c8 fa ff ff 01 	movl   $0x1,-0x538(%rbp)
    cfdf:	00 00 00 
    cfe2:	c7 85 cc fa ff ff 01 	movl   $0x1,-0x534(%rbp)
    cfe9:	00 00 00 
    cfec:	48 8d 85 b0 fc ff ff 	lea    -0x350(%rbp),%rax
    cff3:	48 8d 15 e6 35 00 00 	lea    0x35e6(%rip),%rdx        # 105e0 <g_2338+0x1578>
    cffa:	b9 2d 00 00 00       	mov    $0x2d,%ecx
    cfff:	48 89 c7             	mov    %rax,%rdi
    d002:	48 89 d6             	mov    %rdx,%rsi
    d005:	f3 48 a5             	rep movsq %ds:(%rsi),%es:(%rdi)
    d008:	48 c7 85 00 fc ff ff 	movq   $0x0,-0x400(%rbp)
    d00f:	00 00 00 00 
    d013:	48 c7 85 08 fc ff ff 	movq   $0x0,-0x3f8(%rbp)
    d01a:	00 00 00 00 
    d01e:	48 c7 85 10 fc ff ff 	movq   $0x0,-0x3f0(%rbp)
    d025:	00 00 00 00 
    d029:	48 c7 85 18 fc ff ff 	movq   $0x0,-0x3e8(%rbp)
    d030:	00 00 00 00 
    d034:	48 c7 85 20 fc ff ff 	movq   $0x0,-0x3e0(%rbp)
    d03b:	00 00 00 00 
    d03f:	48 c7 85 28 fc ff ff 	movq   $0x0,-0x3d8(%rbp)
    d046:	00 00 00 00 
    d04a:	48 c7 85 30 fc ff ff 	movq   $0x0,-0x3d0(%rbp)
    d051:	00 00 00 00 
    d055:	48 b8 cb 67 19 fb 98 	movabs $0x7b94b598fb1967cb,%rax
    d05c:	b5 94 7b 
    d05f:	48 89 85 38 fc ff ff 	mov    %rax,-0x3c8(%rbp)
    d066:	48 89 85 40 fc ff ff 	mov    %rax,-0x3c0(%rbp)
    d06d:	48 89 85 48 fc ff ff 	mov    %rax,-0x3b8(%rbp)
    d074:	48 89 85 50 fc ff ff 	mov    %rax,-0x3b0(%rbp)
    d07b:	48 89 85 58 fc ff ff 	mov    %rax,-0x3a8(%rbp)
    d082:	48 89 85 60 fc ff ff 	mov    %rax,-0x3a0(%rbp)
    d089:	48 89 85 68 fc ff ff 	mov    %rax,-0x398(%rbp)
    d090:	48 c7 85 70 fc ff ff 	movq   $0x0,-0x390(%rbp)
    d097:	00 00 00 00 
    d09b:	48 c7 85 78 fc ff ff 	movq   $0x0,-0x388(%rbp)
    d0a2:	00 00 00 00 
    d0a6:	48 c7 85 80 fc ff ff 	movq   $0x0,-0x380(%rbp)
    d0ad:	00 00 00 00 
    d0b1:	48 c7 85 88 fc ff ff 	movq   $0x0,-0x378(%rbp)
    d0b8:	00 00 00 00 
    d0bc:	48 c7 85 90 fc ff ff 	movq   $0x0,-0x370(%rbp)
    d0c3:	00 00 00 00 
    d0c7:	48 c7 85 98 fc ff ff 	movq   $0x0,-0x368(%rbp)
    d0ce:	00 00 00 00 
    d0d2:	48 c7 85 a0 fc ff ff 	movq   $0x0,-0x360(%rbp)
    d0d9:	00 00 00 00 
    d0dd:	66 c7 85 c2 fa ff ff 	movw   $0x9b09,-0x53e(%rbp)
    d0e4:	09 9b 
    d0e6:	66 c7 85 bc fa ff ff 	movw   $0xffff,-0x544(%rbp)
    d0ed:	ff ff 
    d0ef:	66 c7 85 c0 fa ff ff 	movw   $0xfff8,-0x540(%rbp)
    d0f6:	f8 ff 
    d0f8:	66 c7 85 40 fb ff ff 	movw   $0x6de4,-0x4c0(%rbp)
    d0ff:	e4 6d 
    d101:	66 c7 85 42 fb ff ff 	movw   $0xffff,-0x4be(%rbp)
    d108:	ff ff 
    d10a:	66 c7 85 44 fb ff ff 	movw   $0x0,-0x4bc(%rbp)
    d111:	00 00 
    d113:	66 c7 85 46 fb ff ff 	movw   $0xffff,-0x4ba(%rbp)
    d11a:	ff ff 
    d11c:	66 c7 85 48 fb ff ff 	movw   $0x6de4,-0x4b8(%rbp)
    d123:	e4 6d 
    d125:	66 c7 85 4a fb ff ff 	movw   $0xe957,-0x4b6(%rbp)
    d12c:	57 e9 
    d12e:	66 c7 85 4c fb ff ff 	movw   $0x6de4,-0x4b4(%rbp)
    d135:	e4 6d 
    d137:	66 c7 85 4e fb ff ff 	movw   $0xffff,-0x4b2(%rbp)
    d13e:	ff ff 
    d140:	66 c7 85 50 fb ff ff 	movw   $0x0,-0x4b0(%rbp)
    d147:	00 00 
    d149:	66 c7 85 52 fb ff ff 	movw   $0xffff,-0x4ae(%rbp)
    d150:	ff ff 
    d152:	66 c7 85 54 fb ff ff 	movw   $0x6de4,-0x4ac(%rbp)
    d159:	e4 6d 
    d15b:	66 c7 85 56 fb ff ff 	movw   $0xe957,-0x4aa(%rbp)
    d162:	57 e9 
    d164:	66 c7 85 58 fb ff ff 	movw   $0x6de4,-0x4a8(%rbp)
    d16b:	e4 6d 
    d16d:	66 c7 85 5a fb ff ff 	movw   $0xffff,-0x4a6(%rbp)
    d174:	ff ff 
    d176:	66 c7 85 5c fb ff ff 	movw   $0x0,-0x4a4(%rbp)
    d17d:	00 00 
    d17f:	66 c7 85 5e fb ff ff 	movw   $0xffff,-0x4a2(%rbp)
    d186:	ff ff 
    d188:	66 c7 85 60 fb ff ff 	movw   $0x6de4,-0x4a0(%rbp)
    d18f:	e4 6d 
    d191:	66 c7 85 62 fb ff ff 	movw   $0xe957,-0x49e(%rbp)
    d198:	57 e9 
    d19a:	66 c7 85 64 fb ff ff 	movw   $0x6de4,-0x49c(%rbp)
    d1a1:	e4 6d 
    d1a3:	66 c7 85 66 fb ff ff 	movw   $0xffff,-0x49a(%rbp)
    d1aa:	ff ff 
    d1ac:	66 c7 85 68 fb ff ff 	movw   $0x0,-0x498(%rbp)
    d1b3:	00 00 
    d1b5:	66 c7 85 6a fb ff ff 	movw   $0xffff,-0x496(%rbp)
    d1bc:	ff ff 
    d1be:	66 c7 85 6c fb ff ff 	movw   $0x6de4,-0x494(%rbp)
    d1c5:	e4 6d 
    d1c7:	66 c7 85 6e fb ff ff 	movw   $0xe957,-0x492(%rbp)
    d1ce:	57 e9 
    d1d0:	66 c7 85 70 fb ff ff 	movw   $0x6de4,-0x490(%rbp)
    d1d7:	e4 6d 
    d1d9:	66 c7 85 72 fb ff ff 	movw   $0xffff,-0x48e(%rbp)
    d1e0:	ff ff 
    d1e2:	66 c7 85 74 fb ff ff 	movw   $0x0,-0x48c(%rbp)
    d1e9:	00 00 
    d1eb:	66 c7 85 76 fb ff ff 	movw   $0xffff,-0x48a(%rbp)
    d1f2:	ff ff 
    d1f4:	66 c7 85 78 fb ff ff 	movw   $0x6de4,-0x488(%rbp)
    d1fb:	e4 6d 
    d1fd:	66 c7 85 7a fb ff ff 	movw   $0xe957,-0x486(%rbp)
    d204:	57 e9 
    d206:	66 c7 85 7c fb ff ff 	movw   $0x6de4,-0x484(%rbp)
    d20d:	e4 6d 
    d20f:	66 c7 85 7e fb ff ff 	movw   $0xffff,-0x482(%rbp)
    d216:	ff ff 
    d218:	66 c7 85 80 fb ff ff 	movw   $0x0,-0x480(%rbp)
    d21f:	00 00 
    d221:	66 c7 85 82 fb ff ff 	movw   $0xffff,-0x47e(%rbp)
    d228:	ff ff 
    d22a:	66 c7 85 84 fb ff ff 	movw   $0x6de4,-0x47c(%rbp)
    d231:	e4 6d 
    d233:	66 c7 85 86 fb ff ff 	movw   $0xe957,-0x47a(%rbp)
    d23a:	57 e9 
    d23c:	66 c7 85 88 fb ff ff 	movw   $0x6de4,-0x478(%rbp)
    d243:	e4 6d 
    d245:	66 c7 85 8a fb ff ff 	movw   $0xffff,-0x476(%rbp)
    d24c:	ff ff 
    d24e:	66 c7 85 8c fb ff ff 	movw   $0x0,-0x474(%rbp)
    d255:	00 00 
    d257:	66 c7 85 8e fb ff ff 	movw   $0xffff,-0x472(%rbp)
    d25e:	ff ff 
    d260:	66 c7 85 90 fb ff ff 	movw   $0x6de4,-0x470(%rbp)
    d267:	e4 6d 
    d269:	66 c7 85 92 fb ff ff 	movw   $0xe957,-0x46e(%rbp)
    d270:	57 e9 
    d272:	48 c7 85 e0 fa ff ff 	movq   $0x0,-0x520(%rbp)
    d279:	00 00 00 00 
    d27d:	c7 85 d0 fa ff ff b3 	movl   $0x2c48db3,-0x530(%rbp)
    d284:	8d c4 02 
    d287:	66 c7 85 be fa ff ff 	movw   $0x0,-0x542(%rbp)
    d28e:	00 00 
    d290:	48 b8 71 fe a0 fa e5 	movabs $0x4ee3f9e5faa0fe71,%rax
    d297:	f9 e3 4e 
    d29a:	48 89 85 e8 fa ff ff 	mov    %rax,-0x518(%rbp)
    d2a1:	48 8b 05 00 7d 00 00 	mov    0x7d00(%rip),%rax        # 14fa8 <g_158>
    d2a8:	8b 08                	mov    (%rax),%ecx
    d2aa:	8b 95 ac fa ff ff    	mov    -0x554(%rbp),%edx
    d2b0:	31 ca                	xor    %ecx,%edx
    d2b2:	89 10                	mov    %edx,(%rax)
    d2b4:	0f b6 85 a7 fb ff ff 	movzbl -0x459(%rbp),%eax
    d2bb:	84 c0                	test   %al,%al
    d2bd:	0f 84 81 00 00 00    	je     d344 <func_61+0x4a6>
    d2c3:	48 8d 85 20 fe ff ff 	lea    -0x1e0(%rbp),%rax
    d2ca:	48 8d 15 cf 79 00 00 	lea    0x79cf(%rip),%rdx        # 14ca0 <g_2959+0x1ba2>
    d2d1:	b9 36 00 00 00       	mov    $0x36,%ecx
    d2d6:	48 89 c7             	mov    %rax,%rdi
    d2d9:	48 89 d6             	mov    %rdx,%rsi
    d2dc:	f3 48 a5             	rep movsq %ds:(%rsi),%es:(%rdi)
    d2df:	66 c7 85 c4 fa ff ff 	movw   $0x0,-0x53c(%rbp)
    d2e6:	00 00 
    d2e8:	66 c7 85 c6 fa ff ff 	movw   $0xffff,-0x53a(%rbp)
    d2ef:	ff ff 
    d2f1:	66 83 ad c6 fa ff ff 	subw   $0x1,-0x53a(%rbp)
    d2f8:	01 
    d2f9:	0f b7 85 48 fb ff ff 	movzwl -0x4b8(%rbp),%eax
    d300:	83 e8 01             	sub    $0x1,%eax
    d303:	66 89 85 48 fb ff ff 	mov    %ax,-0x4b8(%rbp)
    d30a:	48 8b 05 67 7c 00 00 	mov    0x7c67(%rip),%rax        # 14f78 <g_124>
    d311:	8b 00                	mov    (%rax),%eax
    d313:	89 85 ac fa ff ff    	mov    %eax,-0x554(%rbp)
    d319:	48 8d 85 20 fe ff ff 	lea    -0x1e0(%rbp),%rax
    d320:	48 83 c0 40          	add    $0x40,%rax
    d324:	48 39 85 e0 fa ff ff 	cmp    %rax,-0x520(%rbp)
    d32b:	0f 95 c0             	setne  %al
    d32e:	0f b6 d0             	movzbl %al,%edx
    d331:	8b 85 ac fa ff ff    	mov    -0x554(%rbp),%eax
    d337:	09 d0                	or     %edx,%eax
    d339:	89 85 ac fa ff ff    	mov    %eax,-0x554(%rbp)
    d33f:	e9 af 08 00 00       	jmpq   dbf3 <func_61+0xd55>
    d344:	48 8d 05 a5 7c 00 00 	lea    0x7ca5(%rip),%rax        # 14ff0 <g_176+0x30>
    d34b:	48 89 85 f0 fa ff ff 	mov    %rax,-0x510(%rbp)
    d352:	48 8d 85 b0 fc ff ff 	lea    -0x350(%rbp),%rax
    d359:	48 05 10 01 00 00    	add    $0x110,%rax
    d35f:	48 89 85 f8 fa ff ff 	mov    %rax,-0x508(%rbp)
    d366:	48 c7 85 00 fb ff ff 	movq   $0x0,-0x500(%rbp)
    d36d:	00 00 00 00 
    d371:	48 8d 85 bc fa ff ff 	lea    -0x544(%rbp),%rax
    d378:	48 89 85 08 fb ff ff 	mov    %rax,-0x4f8(%rbp)
    d37f:	c6 85 bb fa ff ff 43 	movb   $0x43,-0x545(%rbp)
    d386:	48 8d 05 cb 5c 00 00 	lea    0x5ccb(%rip),%rax        # 13058 <g_257>
    d38d:	48 89 85 10 fb ff ff 	mov    %rax,-0x4f0(%rbp)
    d394:	48 8b 15 45 7c 00 00 	mov    0x7c45(%rip),%rdx        # 14fe0 <g_176+0x20>
    d39b:	48 8b 85 f0 fa ff ff 	mov    -0x510(%rbp),%rax
    d3a2:	48 89 10             	mov    %rdx,(%rax)
    d3a5:	48 8b 85 f0 fa ff ff 	mov    -0x510(%rbp),%rax
    d3ac:	48 8b 00             	mov    (%rax),%rax
    d3af:	48 8d 15 ca 7b 00 00 	lea    0x7bca(%rip),%rdx        # 14f80 <g_140>
    d3b6:	48 39 d0             	cmp    %rdx,%rax
    d3b9:	0f 95 c0             	setne  %al
    d3bc:	0f b6 c0             	movzbl %al,%eax
    d3bf:	39 85 98 fa ff ff    	cmp    %eax,-0x568(%rbp)
    d3c5:	0f 96 c0             	setbe  %al
    d3c8:	0f b6 d0             	movzbl %al,%edx
    d3cb:	8b 85 ac fa ff ff    	mov    -0x554(%rbp),%eax
    d3d1:	39 c2                	cmp    %eax,%edx
    d3d3:	0f 9c c0             	setl   %al
    d3d6:	44 0f b6 e0          	movzbl %al,%r12d
    d3da:	8b 9d 9c fa ff ff    	mov    -0x564(%rbp),%ebx
    d3e0:	48 8b 05 51 5c 00 00 	mov    0x5c51(%rip),%rax        # 13038 <g_80>
    d3e7:	0f b6 c0             	movzbl %al,%eax
    d3ea:	be 00 00 00 00       	mov    $0x0,%esi
    d3ef:	89 c7                	mov    %eax,%edi
    d3f1:	e8 97 98 ff ff       	callq  6c8d <safe_rshift_func_uint8_t_u_s>
    d3f6:	0f b6 c0             	movzbl %al,%eax
    d3f9:	39 85 a8 fa ff ff    	cmp    %eax,-0x558(%rbp)
    d3ff:	0f 93 c0             	setae  %al
    d402:	0f b6 c0             	movzbl %al,%eax
    d405:	89 de                	mov    %ebx,%esi
    d407:	89 c7                	mov    %eax,%edi
    d409:	e8 1c 91 ff ff       	callq  652a <safe_rshift_func_int16_t_s_s>
    d40e:	66 85 c0             	test   %ax,%ax
    d411:	74 12                	je     d425 <func_61+0x587>
    d413:	0f b6 05 3a 5c 00 00 	movzbl 0x5c3a(%rip),%eax        # 13054 <g_145>
    d41a:	84 c0                	test   %al,%al
    d41c:	74 07                	je     d425 <func_61+0x587>
    d41e:	b8 01 00 00 00       	mov    $0x1,%eax
    d423:	eb 05                	jmp    d42a <func_61+0x58c>
    d425:	b8 00 00 00 00       	mov    $0x0,%eax
    d42a:	83 f8 01             	cmp    $0x1,%eax
    d42d:	0f 9e c0             	setle  %al
    d430:	0f b6 c0             	movzbl %al,%eax
    d433:	41 39 c4             	cmp    %eax,%r12d
    d436:	0f 9c c0             	setl   %al
    d439:	0f b6 d0             	movzbl %al,%edx
    d43c:	48 8b 85 f8 fa ff ff 	mov    -0x508(%rbp),%rax
    d443:	89 10                	mov    %edx,(%rax)
    d445:	c7 05 f1 5b 00 00 00 	movl   $0x0,0x5bf1(%rip)        # 13040 <g_85>
    d44c:	00 00 00 
    d44f:	e9 7e 01 00 00       	jmpq   d5d2 <func_61+0x734>
    d454:	48 8d 85 b0 fc ff ff 	lea    -0x350(%rbp),%rax
    d45b:	48 05 10 01 00 00    	add    $0x110,%rax
    d461:	48 89 85 20 fe ff ff 	mov    %rax,-0x1e0(%rbp)
    d468:	48 8d 85 b0 fc ff ff 	lea    -0x350(%rbp),%rax
    d46f:	48 05 10 01 00 00    	add    $0x110,%rax
    d475:	48 89 85 28 fe ff ff 	mov    %rax,-0x1d8(%rbp)
    d47c:	48 c7 85 30 fe ff ff 	movq   $0x0,-0x1d0(%rbp)
    d483:	00 00 00 00 
    d487:	48 8d 85 b0 fc ff ff 	lea    -0x350(%rbp),%rax
    d48e:	48 05 10 01 00 00    	add    $0x110,%rax
    d494:	48 89 85 38 fe ff ff 	mov    %rax,-0x1c8(%rbp)
    d49b:	48 8d 85 b0 fc ff ff 	lea    -0x350(%rbp),%rax
    d4a2:	48 05 10 01 00 00    	add    $0x110,%rax
    d4a8:	48 89 85 40 fe ff ff 	mov    %rax,-0x1c0(%rbp)
    d4af:	48 c7 85 48 fe ff ff 	movq   $0x0,-0x1b8(%rbp)
    d4b6:	00 00 00 00 
    d4ba:	48 8d 85 b0 fc ff ff 	lea    -0x350(%rbp),%rax
    d4c1:	48 05 10 01 00 00    	add    $0x110,%rax
    d4c7:	48 89 85 50 fe ff ff 	mov    %rax,-0x1b0(%rbp)
    d4ce:	48 8d 85 b0 fc ff ff 	lea    -0x350(%rbp),%rax
    d4d5:	48 05 10 01 00 00    	add    $0x110,%rax
    d4db:	48 89 85 58 fe ff ff 	mov    %rax,-0x1a8(%rbp)
    d4e2:	48 c7 85 60 fe ff ff 	movq   $0x0,-0x1a0(%rbp)
    d4e9:	00 00 00 00 
    d4ed:	48 8d 85 b0 fc ff ff 	lea    -0x350(%rbp),%rax
    d4f4:	48 05 10 01 00 00    	add    $0x110,%rax
    d4fa:	48 89 85 68 fe ff ff 	mov    %rax,-0x198(%rbp)
    d501:	48 8d 85 b0 fc ff ff 	lea    -0x350(%rbp),%rax
    d508:	48 05 10 01 00 00    	add    $0x110,%rax
    d50e:	48 89 85 70 fe ff ff 	mov    %rax,-0x190(%rbp)
    d515:	48 c7 85 78 fe ff ff 	movq   $0x0,-0x188(%rbp)
    d51c:	00 00 00 00 
    d520:	48 8d 85 b0 fc ff ff 	lea    -0x350(%rbp),%rax
    d527:	48 05 10 01 00 00    	add    $0x110,%rax
    d52d:	48 89 85 80 fe ff ff 	mov    %rax,-0x180(%rbp)
    d534:	48 8d 85 b0 fc ff ff 	lea    -0x350(%rbp),%rax
    d53b:	48 05 10 01 00 00    	add    $0x110,%rax
    d541:	48 89 85 88 fe ff ff 	mov    %rax,-0x178(%rbp)
    d548:	c7 85 98 fa ff ff 00 	movl   $0x0,-0x568(%rbp)
    d54f:	00 00 00 
    d552:	eb 33                	jmp    d587 <func_61+0x6e9>
    d554:	48 8b 85 f0 fa ff ff 	mov    -0x510(%rbp),%rax
    d55b:	48 8b 00             	mov    (%rax),%rax
    d55e:	48 8b 00             	mov    (%rax),%rax
    d561:	48 8b 00             	mov    (%rax),%rax
    d564:	48 8d 95 ac fa ff ff 	lea    -0x554(%rbp),%rdx
    d56b:	48 89 10             	mov    %rdx,(%rax)
    d56e:	8b 85 98 fa ff ff    	mov    -0x568(%rbp),%eax
    d574:	be 09 00 00 00       	mov    $0x9,%esi
    d579:	48 89 c7             	mov    %rax,%rdi
    d57c:	e8 ad 9a ff ff       	callq  702e <safe_add_func_uint64_t_u_u>
    d581:	89 85 98 fa ff ff    	mov    %eax,-0x568(%rbp)
    d587:	83 bd 98 fa ff ff 09 	cmpl   $0x9,-0x568(%rbp)
    d58e:	75 c4                	jne    d554 <func_61+0x6b6>
    d590:	48 8d 85 ac fa ff ff 	lea    -0x554(%rbp),%rax
    d597:	48 89 85 d8 fa ff ff 	mov    %rax,-0x528(%rbp)
    d59e:	48 8b 05 13 7a 00 00 	mov    0x7a13(%rip),%rax        # 14fb8 <g_177>
    d5a5:	48 8b 00             	mov    (%rax),%rax
    d5a8:	48 8b 95 d8 fa ff ff 	mov    -0x528(%rbp),%rdx
    d5af:	48 89 10             	mov    %rdx,(%rax)
    d5b2:	0f b7 85 be fa ff ff 	movzwl -0x542(%rbp),%eax
    d5b9:	83 e8 01             	sub    $0x1,%eax
    d5bc:	66 89 85 be fa ff ff 	mov    %ax,-0x542(%rbp)
    d5c3:	8b 05 77 5a 00 00    	mov    0x5a77(%rip),%eax        # 13040 <g_85>
    d5c9:	83 c0 01             	add    $0x1,%eax
    d5cc:	89 05 6e 5a 00 00    	mov    %eax,0x5a6e(%rip)        # 13040 <g_85>
    d5d2:	8b 05 68 5a 00 00    	mov    0x5a68(%rip),%eax        # 13040 <g_85>
    d5d8:	83 f8 01             	cmp    $0x1,%eax
    d5db:	0f 85 73 fe ff ff    	jne    d454 <func_61+0x5b6>
    d5e1:	66 c7 85 c0 fa ff ff 	movw   $0x7,-0x540(%rbp)
    d5e8:	07 00 
    d5ea:	e9 5e 04 00 00       	jmpq   da4d <func_61+0xbaf>
    d5ef:	48 8d 85 be fa ff ff 	lea    -0x542(%rbp),%rax
    d5f6:	48 89 85 18 fb ff ff 	mov    %rax,-0x4e8(%rbp)
    d5fd:	48 8d 05 3c 5a 00 00 	lea    0x5a3c(%rip),%rax        # 13040 <g_85>
    d604:	48 89 85 20 fe ff ff 	mov    %rax,-0x1e0(%rbp)
    d60b:	48 c7 85 28 fe ff ff 	movq   $0x0,-0x1d8(%rbp)
    d612:	00 00 00 00 
    d616:	48 8d 05 23 5a 00 00 	lea    0x5a23(%rip),%rax        # 13040 <g_85>
    d61d:	48 89 85 30 fe ff ff 	mov    %rax,-0x1d0(%rbp)
    d624:	48 8d 05 15 5a 00 00 	lea    0x5a15(%rip),%rax        # 13040 <g_85>
    d62b:	48 89 85 38 fe ff ff 	mov    %rax,-0x1c8(%rbp)
    d632:	48 8d 85 cc fa ff ff 	lea    -0x534(%rbp),%rax
    d639:	48 89 85 40 fe ff ff 	mov    %rax,-0x1c0(%rbp)
    d640:	48 8d 85 cc fa ff ff 	lea    -0x534(%rbp),%rax
    d647:	48 89 85 48 fe ff ff 	mov    %rax,-0x1b8(%rbp)
    d64e:	48 8d 85 c8 fa ff ff 	lea    -0x538(%rbp),%rax
    d655:	48 89 85 50 fe ff ff 	mov    %rax,-0x1b0(%rbp)
    d65c:	48 c7 85 58 fe ff ff 	movq   $0x0,-0x1a8(%rbp)
    d663:	00 00 00 00 
    d667:	48 c7 85 60 fe ff ff 	movq   $0x0,-0x1a0(%rbp)
    d66e:	00 00 00 00 
    d672:	48 8d 05 c7 59 00 00 	lea    0x59c7(%rip),%rax        # 13040 <g_85>
    d679:	48 89 85 68 fe ff ff 	mov    %rax,-0x198(%rbp)
    d680:	48 8d 85 c8 fa ff ff 	lea    -0x538(%rbp),%rax
    d687:	48 89 85 70 fe ff ff 	mov    %rax,-0x190(%rbp)
    d68e:	48 8d 05 ab 59 00 00 	lea    0x59ab(%rip),%rax        # 13040 <g_85>
    d695:	48 89 85 78 fe ff ff 	mov    %rax,-0x188(%rbp)
    d69c:	48 8d 85 cc fa ff ff 	lea    -0x534(%rbp),%rax
    d6a3:	48 89 85 80 fe ff ff 	mov    %rax,-0x180(%rbp)
    d6aa:	48 8d 05 9f 59 00 00 	lea    0x599f(%rip),%rax        # 13050 <g_122>
    d6b1:	48 89 85 88 fe ff ff 	mov    %rax,-0x178(%rbp)
    d6b8:	48 8d 05 81 59 00 00 	lea    0x5981(%rip),%rax        # 13040 <g_85>
    d6bf:	48 89 85 90 fe ff ff 	mov    %rax,-0x170(%rbp)
    d6c6:	48 8d 85 c8 fa ff ff 	lea    -0x538(%rbp),%rax
    d6cd:	48 89 85 98 fe ff ff 	mov    %rax,-0x168(%rbp)
    d6d4:	48 8d 05 65 59 00 00 	lea    0x5965(%rip),%rax        # 13040 <g_85>
    d6db:	48 89 85 a0 fe ff ff 	mov    %rax,-0x160(%rbp)
    d6e2:	48 8d 05 67 59 00 00 	lea    0x5967(%rip),%rax        # 13050 <g_122>
    d6e9:	48 89 85 a8 fe ff ff 	mov    %rax,-0x158(%rbp)
    d6f0:	48 8d 05 59 59 00 00 	lea    0x5959(%rip),%rax        # 13050 <g_122>
    d6f7:	48 89 85 b0 fe ff ff 	mov    %rax,-0x150(%rbp)
    d6fe:	48 8d 05 3b 59 00 00 	lea    0x593b(%rip),%rax        # 13040 <g_85>
    d705:	48 89 85 b8 fe ff ff 	mov    %rax,-0x148(%rbp)
    d70c:	48 8d 05 3d 59 00 00 	lea    0x593d(%rip),%rax        # 13050 <g_122>
    d713:	48 89 85 c0 fe ff ff 	mov    %rax,-0x140(%rbp)
    d71a:	48 8d 05 1f 59 00 00 	lea    0x591f(%rip),%rax        # 13040 <g_85>
    d721:	48 89 85 c8 fe ff ff 	mov    %rax,-0x138(%rbp)
    d728:	48 8d 85 cc fa ff ff 	lea    -0x534(%rbp),%rax
    d72f:	48 89 85 d0 fe ff ff 	mov    %rax,-0x130(%rbp)
    d736:	48 c7 85 d8 fe ff ff 	movq   $0x0,-0x128(%rbp)
    d73d:	00 00 00 00 
    d741:	48 8d 05 08 59 00 00 	lea    0x5908(%rip),%rax        # 13050 <g_122>
    d748:	48 89 85 e0 fe ff ff 	mov    %rax,-0x120(%rbp)
    d74f:	48 8d 85 cc fa ff ff 	lea    -0x534(%rbp),%rax
    d756:	48 89 85 e8 fe ff ff 	mov    %rax,-0x118(%rbp)
    d75d:	48 8d 05 ec 58 00 00 	lea    0x58ec(%rip),%rax        # 13050 <g_122>
    d764:	48 89 85 f0 fe ff ff 	mov    %rax,-0x110(%rbp)
    d76b:	48 8d 05 ce 58 00 00 	lea    0x58ce(%rip),%rax        # 13040 <g_85>
    d772:	48 89 85 f8 fe ff ff 	mov    %rax,-0x108(%rbp)
    d779:	48 8d 05 c0 58 00 00 	lea    0x58c0(%rip),%rax        # 13040 <g_85>
    d780:	48 89 85 00 ff ff ff 	mov    %rax,-0x100(%rbp)
    d787:	48 c7 85 08 ff ff ff 	movq   $0x0,-0xf8(%rbp)
    d78e:	00 00 00 00 
    d792:	48 8d 05 a7 58 00 00 	lea    0x58a7(%rip),%rax        # 13040 <g_85>
    d799:	48 89 85 10 ff ff ff 	mov    %rax,-0xf0(%rbp)
    d7a0:	48 8d 05 99 58 00 00 	lea    0x5899(%rip),%rax        # 13040 <g_85>
    d7a7:	48 89 85 18 ff ff ff 	mov    %rax,-0xe8(%rbp)
    d7ae:	48 8d 85 cc fa ff ff 	lea    -0x534(%rbp),%rax
    d7b5:	48 89 85 20 ff ff ff 	mov    %rax,-0xe0(%rbp)
    d7bc:	48 8d 85 cc fa ff ff 	lea    -0x534(%rbp),%rax
    d7c3:	48 89 85 28 ff ff ff 	mov    %rax,-0xd8(%rbp)
    d7ca:	48 8d 85 c8 fa ff ff 	lea    -0x538(%rbp),%rax
    d7d1:	48 89 85 30 ff ff ff 	mov    %rax,-0xd0(%rbp)
    d7d8:	48 c7 85 38 ff ff ff 	movq   $0x0,-0xc8(%rbp)
    d7df:	00 00 00 00 
    d7e3:	48 c7 85 40 ff ff ff 	movq   $0x0,-0xc0(%rbp)
    d7ea:	00 00 00 00 
    d7ee:	48 8d 05 4b 58 00 00 	lea    0x584b(%rip),%rax        # 13040 <g_85>
    d7f5:	48 89 85 48 ff ff ff 	mov    %rax,-0xb8(%rbp)
    d7fc:	48 8d 85 c8 fa ff ff 	lea    -0x538(%rbp),%rax
    d803:	48 89 85 50 ff ff ff 	mov    %rax,-0xb0(%rbp)
    d80a:	48 8d 05 2f 58 00 00 	lea    0x582f(%rip),%rax        # 13040 <g_85>
    d811:	48 89 85 58 ff ff ff 	mov    %rax,-0xa8(%rbp)
    d818:	c7 85 d4 fa ff ff 00 	movl   $0x0,-0x52c(%rbp)
    d81f:	00 00 00 
    d822:	eb 1b                	jmp    d83f <func_61+0x9a1>
    d824:	8b 85 d4 fa ff ff    	mov    -0x52c(%rbp),%eax
    d82a:	48 98                	cltq   
    d82c:	48 c7 84 c5 20 fb ff 	movq   $0x0,-0x4e0(%rbp,%rax,8)
    d833:	ff 00 00 00 00 
    d838:	83 85 d4 fa ff ff 01 	addl   $0x1,-0x52c(%rbp)
    d83f:	83 bd d4 fa ff ff 02 	cmpl   $0x2,-0x52c(%rbp)
    d846:	7e dc                	jle    d824 <func_61+0x986>
    d848:	48 8b 05 f9 57 00 00 	mov    0x57f9(%rip),%rax        # 13048 <g_118>
    d84f:	41 89 c5             	mov    %eax,%r13d
    d852:	8b 85 a8 fa ff ff    	mov    -0x558(%rbp),%eax
    d858:	0f b7 d8             	movzwl %ax,%ebx
    d85b:	8b 85 ac fa ff ff    	mov    -0x554(%rbp),%eax
    d861:	44 0f b7 e0          	movzwl %ax,%r12d
    d865:	be 78 00 00 00       	mov    $0x78,%esi
    d86a:	bf 5f 00 00 00       	mov    $0x5f,%edi
    d86f:	e8 67 93 ff ff       	callq  6bdb <safe_div_func_uint8_t_u_u>
    d874:	48 8b 05 85 77 00 00 	mov    0x7785(%rip),%rax        # 15000 <g_226>
    d87b:	48 85 c0             	test   %rax,%rax
    d87e:	0f 95 c0             	setne  %al
    d881:	0f b6 c0             	movzbl %al,%eax
    d884:	44 89 e6             	mov    %r12d,%esi
    d887:	89 c7                	mov    %eax,%edi
    d889:	e8 00 95 ff ff       	callq  6d8e <safe_div_func_uint16_t_u_u>
    d88e:	0f b7 d0             	movzwl %ax,%edx
    d891:	48 8b 85 f0 fa ff ff 	mov    -0x510(%rbp),%rax
    d898:	48 8b 00             	mov    (%rax),%rax
    d89b:	48 85 c0             	test   %rax,%rax
    d89e:	0f 94 c0             	sete   %al
    d8a1:	0f b6 c0             	movzbl %al,%eax
    d8a4:	89 d6                	mov    %edx,%esi
    d8a6:	89 c7                	mov    %eax,%edi
    d8a8:	e8 72 94 ff ff       	callq  6d1f <safe_sub_func_uint16_t_u_u>
    d8ad:	0f b7 d0             	movzwl %ax,%edx
    d8b0:	48 8b 85 18 fb ff ff 	mov    -0x4e8(%rbp),%rax
    d8b7:	0f b7 00             	movzwl (%rax),%eax
    d8ba:	8d 70 01             	lea    0x1(%rax),%esi
    d8bd:	48 8b 8d 18 fb ff ff 	mov    -0x4e8(%rbp),%rcx
    d8c4:	66 89 31             	mov    %si,(%rcx)
    d8c7:	0f b7 c0             	movzwl %ax,%eax
    d8ca:	89 d6                	mov    %edx,%esi
    d8cc:	89 c7                	mov    %eax,%edi
    d8ce:	e8 4c 94 ff ff       	callq  6d1f <safe_sub_func_uint16_t_u_u>
    d8d3:	0f b7 c0             	movzwl %ax,%eax
    d8d6:	89 de                	mov    %ebx,%esi
    d8d8:	89 c7                	mov    %eax,%edi
    d8da:	e8 af 94 ff ff       	callq  6d8e <safe_div_func_uint16_t_u_u>
    d8df:	0f b6 05 6e 57 00 00 	movzbl 0x576e(%rip),%eax        # 13054 <g_145>
    d8e6:	0f b6 c0             	movzbl %al,%eax
    d8e9:	be 02 00 00 00       	mov    $0x2,%esi
    d8ee:	89 c7                	mov    %eax,%edi
    d8f0:	e8 10 93 ff ff       	callq  6c05 <safe_lshift_func_uint8_t_u_s>
    d8f5:	84 c0                	test   %al,%al
    d8f7:	75 0a                	jne    d903 <func_61+0xa65>
    d8f9:	8b 85 ac fa ff ff    	mov    -0x554(%rbp),%eax
    d8ff:	85 c0                	test   %eax,%eax
    d901:	74 07                	je     d90a <func_61+0xa6c>
    d903:	b8 01 00 00 00       	mov    $0x1,%eax
    d908:	eb 05                	jmp    d90f <func_61+0xa71>
    d90a:	b8 00 00 00 00       	mov    $0x0,%eax
    d90f:	48 63 d0             	movslq %eax,%rdx
    d912:	48 8b 05 2f 57 00 00 	mov    0x572f(%rip),%rax        # 13048 <g_118>
    d919:	48 39 c2             	cmp    %rax,%rdx
    d91c:	0f 9c c0             	setl   %al
    d91f:	0f b6 c0             	movzbl %al,%eax
    d922:	be 41 e9 00 00       	mov    $0xe941,%esi
    d927:	89 c7                	mov    %eax,%edi
    d929:	e8 d1 93 ff ff       	callq  6cff <safe_add_func_uint16_t_u_u>
    d92e:	48 8d 85 d8 fa ff ff 	lea    -0x528(%rbp),%rax
    d935:	48 89 05 94 80 00 00 	mov    %rax,0x8094(%rip)        # 159d0 <g_208>
    d93c:	48 8b 15 8d 80 00 00 	mov    0x808d(%rip),%rdx        # 159d0 <g_208>
    d943:	48 8b 05 36 76 00 00 	mov    0x7636(%rip),%rax        # 14f80 <g_140>
    d94a:	48 8b 00             	mov    (%rax),%rax
    d94d:	48 39 c2             	cmp    %rax,%rdx
    d950:	74 07                	je     d959 <func_61+0xabb>
    d952:	b8 19 f0 11 94       	mov    $0x9411f019,%eax
    d957:	eb 05                	jmp    d95e <func_61+0xac0>
    d959:	b8 18 f0 11 94       	mov    $0x9411f018,%eax
    d95e:	8b 95 a8 fa ff ff    	mov    -0x558(%rbp),%edx
    d964:	48 39 d0             	cmp    %rdx,%rax
    d967:	be 06 00 00 00       	mov    $0x6,%esi
    d96c:	bf f7 ff ff ff       	mov    $0xfffffff7,%edi
    d971:	e8 2b 89 ff ff       	callq  62a1 <safe_lshift_func_int8_t_s_s>
    d976:	8b 95 98 fa ff ff    	mov    -0x568(%rbp),%edx
    d97c:	48 8b 05 c5 56 00 00 	mov    0x56c5(%rip),%rax        # 13048 <g_118>
    d983:	48 39 c2             	cmp    %rax,%rdx
    d986:	0f 94 c0             	sete   %al
    d989:	0f b6 d0             	movzbl %al,%edx
    d98c:	48 8b 85 f8 fa ff ff 	mov    -0x508(%rbp),%rax
    d993:	8b 00                	mov    (%rax),%eax
    d995:	21 c2                	and    %eax,%edx
    d997:	48 8b 85 f8 fa ff ff 	mov    -0x508(%rbp),%rax
    d99e:	89 10                	mov    %edx,(%rax)
    d9a0:	48 8b 85 f8 fa ff ff 	mov    -0x508(%rbp),%rax
    d9a7:	8b 00                	mov    (%rax),%eax
    d9a9:	98                   	cwtl   
    d9aa:	be 0d 00 00 00       	mov    $0xd,%esi
    d9af:	89 c7                	mov    %eax,%edi
    d9b1:	e8 dc 8a ff ff       	callq  6492 <safe_lshift_func_int16_t_s_s>
    d9b6:	98                   	cwtl   
    d9b7:	be 02 00 00 00       	mov    $0x2,%esi
    d9bc:	89 c7                	mov    %eax,%edi
    d9be:	e8 10 8a ff ff       	callq  63d3 <safe_sub_func_int16_t_s_s>
    d9c3:	0f b7 05 7a 56 00 00 	movzwl 0x567a(%rip),%eax        # 13044 <g_104>
    d9ca:	48 0f bf c0          	movswq %ax,%rax
    d9ce:	48 ba 70 29 3d 9e 5e 	movabs $0xc60c495e9e3d2970,%rdx
    d9d5:	49 0c c6 
    d9d8:	48 39 d0             	cmp    %rdx,%rax
    d9db:	0f 96 c0             	setbe  %al
    d9de:	0f b6 d0             	movzbl %al,%edx
    d9e1:	48 8b 85 a0 fa ff ff 	mov    -0x560(%rbp),%rax
    d9e8:	0f b6 00             	movzbl (%rax),%eax
    d9eb:	0f b6 c0             	movzbl %al,%eax
    d9ee:	09 d0                	or     %edx,%eax
    d9f0:	48 98                	cltq   
    d9f2:	48 89 85 e8 fa ff ff 	mov    %rax,-0x518(%rbp)
    d9f9:	48 8b 85 e8 fa ff ff 	mov    -0x518(%rbp),%rax
    da00:	89 c2                	mov    %eax,%edx
    da02:	48 8b 05 2f 56 00 00 	mov    0x562f(%rip),%rax        # 13038 <g_80>
    da09:	0f b7 c0             	movzwl %ax,%eax
    da0c:	89 d6                	mov    %edx,%esi
    da0e:	89 c7                	mov    %eax,%edi
    da10:	e8 65 94 ff ff       	callq  6e7a <safe_rshift_func_uint16_t_u_u>
    da15:	0f b7 c0             	movzwl %ax,%eax
    da18:	be c1 53 7b 59       	mov    $0x597b53c1,%esi
    da1d:	89 c7                	mov    %eax,%edi
    da1f:	e8 92 8b ff ff       	callq  65b6 <safe_add_func_int32_t_s_s>
    da24:	44 89 ee             	mov    %r13d,%esi
    da27:	89 c7                	mov    %eax,%edi
    da29:	e8 f7 94 ff ff       	callq  6f25 <safe_div_func_uint32_t_u_u>
    da2e:	8b 95 c8 fa ff ff    	mov    -0x538(%rbp),%edx
    da34:	31 d0                	xor    %edx,%eax
    da36:	89 85 c8 fa ff ff    	mov    %eax,-0x538(%rbp)
    da3c:	0f b7 85 c0 fa ff ff 	movzwl -0x540(%rbp),%eax
    da43:	83 e8 01             	sub    $0x1,%eax
    da46:	66 89 85 c0 fa ff ff 	mov    %ax,-0x540(%rbp)
    da4d:	66 83 bd c0 fa ff ff 	cmpw   $0x0,-0x540(%rbp)
    da54:	00 
    da55:	0f 8f 94 fb ff ff    	jg     d5ef <func_61+0x751>
    da5b:	48 8b 85 f8 fa ff ff 	mov    -0x508(%rbp),%rax
    da62:	8b 00                	mov    (%rax),%eax
    da64:	41 89 c6             	mov    %eax,%r14d
    da67:	8b 05 d3 55 00 00    	mov    0x55d3(%rip),%eax        # 13040 <g_85>
    da6d:	0f bf d8             	movswl %ax,%ebx
    da70:	48 8b 05 89 75 00 00 	mov    0x7589(%rip),%rax        # 15000 <g_226>
    da77:	48 8b 00             	mov    (%rax),%rax
    da7a:	0f b6 00             	movzbl (%rax),%eax
    da7d:	44 0f b6 e0          	movzbl %al,%r12d
    da81:	48 8b 05 78 75 00 00 	mov    0x7578(%rip),%rax        # 15000 <g_226>
    da88:	48 8b 00             	mov    (%rax),%rax
    da8b:	0f b6 00             	movzbl (%rax),%eax
    da8e:	44 0f b6 e8          	movzbl %al,%r13d
    da92:	48 8b 05 af 55 00 00 	mov    0x55af(%rip),%rax        # 13048 <g_118>
    da99:	48 85 c0             	test   %rax,%rax
    da9c:	75 3c                	jne    dada <func_61+0xc3c>
    da9e:	8b 05 9c 55 00 00    	mov    0x559c(%rip),%eax        # 13040 <g_85>
    daa4:	0f bf d0             	movswl %ax,%edx
    daa7:	48 8b 85 f8 fa ff ff 	mov    -0x508(%rbp),%rax
    daae:	8b 00                	mov    (%rax),%eax
    dab0:	48 63 c8             	movslq %eax,%rcx
    dab3:	48 8b 05 8e 55 00 00 	mov    0x558e(%rip),%rax        # 13048 <g_118>
    daba:	48 39 c1             	cmp    %rax,%rcx
    dabd:	0f 94 c0             	sete   %al
    dac0:	0f b6 c0             	movzbl %al,%eax
    dac3:	89 d6                	mov    %edx,%esi
    dac5:	89 c7                	mov    %eax,%edi
    dac7:	e8 07 89 ff ff       	callq  63d3 <safe_sub_func_int16_t_s_s>
    dacc:	66 85 c0             	test   %ax,%ax
    dacf:	75 09                	jne    dada <func_61+0xc3c>
    dad1:	83 bd 98 fa ff ff 00 	cmpl   $0x0,-0x568(%rbp)
    dad8:	74 07                	je     dae1 <func_61+0xc43>
    dada:	b8 01 00 00 00       	mov    $0x1,%eax
    dadf:	eb 05                	jmp    dae6 <func_61+0xc48>
    dae1:	b8 00 00 00 00       	mov    $0x0,%eax
    dae6:	0f be c0             	movsbl %al,%eax
    dae9:	44 89 ee             	mov    %r13d,%esi
    daec:	89 c7                	mov    %eax,%edi
    daee:	e8 fb 87 ff ff       	callq  62ee <safe_lshift_func_int8_t_s_u>
    daf3:	84 c0                	test   %al,%al
    daf5:	75 0d                	jne    db04 <func_61+0xc66>
    daf7:	48 8b 85 f8 fa ff ff 	mov    -0x508(%rbp),%rax
    dafe:	8b 00                	mov    (%rax),%eax
    db00:	85 c0                	test   %eax,%eax
    db02:	74 07                	je     db0b <func_61+0xc6d>
    db04:	b8 01 00 00 00       	mov    $0x1,%eax
    db09:	eb 05                	jmp    db10 <func_61+0xc72>
    db0b:	b8 00 00 00 00       	mov    $0x0,%eax
    db10:	0f be c0             	movsbl %al,%eax
    db13:	89 c6                	mov    %eax,%esi
    db15:	bf 01 00 00 00       	mov    $0x1,%edi
    db1a:	e8 4b 87 ff ff       	callq  626a <safe_div_func_int8_t_s_s>
    db1f:	0f be d0             	movsbl %al,%edx
    db22:	0f b6 85 bb fa ff ff 	movzbl -0x545(%rbp),%eax
    db29:	21 d0                	and    %edx,%eax
    db2b:	39 85 a8 fa ff ff    	cmp    %eax,-0x558(%rbp)
    db31:	0f 97 c0             	seta   %al
    db34:	0f b6 c0             	movzbl %al,%eax
    db37:	0f b6 15 e6 54 00 00 	movzbl 0x54e6(%rip),%edx        # 13024 <g_7>
    db3e:	0f b6 ca             	movzbl %dl,%ecx
    db41:	48 8b 95 08 fb ff ff 	mov    -0x4f8(%rbp),%rdx
    db48:	66 89 0a             	mov    %cx,(%rdx)
    db4b:	89 c6                	mov    %eax,%esi
    db4d:	bf 01 00 00 00       	mov    $0x1,%edi
    db52:	e8 21 90 ff ff       	callq  6b78 <safe_sub_func_uint8_t_u_u>
    db57:	0f b6 c0             	movzbl %al,%eax
    db5a:	89 c7                	mov    %eax,%edi
    db5c:	e8 e4 8f ff ff       	callq  6b45 <safe_unary_minus_func_uint8_t_u>
    db61:	8b 15 d9 54 00 00    	mov    0x54d9(%rip),%edx        # 13040 <g_85>
    db67:	48 8b 05 0a 74 00 00 	mov    0x740a(%rip),%rax        # 14f78 <g_124>
    db6e:	8b 00                	mov    (%rax),%eax
    db70:	89 d6                	mov    %edx,%esi
    db72:	89 c7                	mov    %eax,%edi
    db74:	e8 86 8b ff ff       	callq  66ff <safe_div_func_int32_t_s_s>
    db79:	48 8b 95 10 fb ff ff 	mov    -0x4f0(%rbp),%rdx
    db80:	8b 12                	mov    (%rdx),%edx
    db82:	09 c2                	or     %eax,%edx
    db84:	48 8b 85 10 fb ff ff 	mov    -0x4f0(%rbp),%rax
    db8b:	89 10                	mov    %edx,(%rax)
    db8d:	48 8b 85 10 fb ff ff 	mov    -0x4f0(%rbp),%rax
    db94:	8b 00                	mov    (%rax),%eax
    db96:	85 c0                	test   %eax,%eax
    db98:	74 07                	je     dba1 <func_61+0xd03>
    db9a:	b8 01 00 00 00       	mov    $0x1,%eax
    db9f:	eb 05                	jmp    dba6 <func_61+0xd08>
    dba1:	b8 00 00 00 00       	mov    $0x0,%eax
    dba6:	0f be d0             	movsbl %al,%edx
    dba9:	8b 85 a8 fa ff ff    	mov    -0x558(%rbp),%eax
    dbaf:	0f be c0             	movsbl %al,%eax
    dbb2:	89 d6                	mov    %edx,%esi
    dbb4:	89 c7                	mov    %eax,%edi
    dbb6:	e8 af 86 ff ff       	callq  626a <safe_div_func_int8_t_s_s>
    dbbb:	0f b6 c0             	movzbl %al,%eax
    dbbe:	44 89 e6             	mov    %r12d,%esi
    dbc1:	89 c7                	mov    %eax,%edi
    dbc3:	e8 f6 90 ff ff       	callq  6cbe <safe_rshift_func_uint8_t_u_u>
    dbc8:	0f b6 c0             	movzbl %al,%eax
    dbcb:	89 de                	mov    %ebx,%esi
    dbcd:	89 c7                	mov    %eax,%edi
    dbcf:	e8 21 88 ff ff       	callq  63f5 <safe_mul_func_int16_t_s_s>
    dbd4:	66 89 05 fd 7d 00 00 	mov    %ax,0x7dfd(%rip)        # 159d8 <g_258>
    dbdb:	0f b7 05 f6 7d 00 00 	movzwl 0x7df6(%rip),%eax        # 159d8 <g_258>
    dbe2:	98                   	cwtl   
    dbe3:	44 89 f6             	mov    %r14d,%esi
    dbe6:	89 c7                	mov    %eax,%edi
    dbe8:	e8 e3 92 ff ff       	callq  6ed0 <safe_sub_func_uint32_t_u_u>
    dbed:	89 85 ac fa ff ff    	mov    %eax,-0x554(%rbp)
    dbf3:	8b 85 ac fa ff ff    	mov    -0x554(%rbp),%eax
    dbf9:	48 98                	cltq   
    dbfb:	48 8b 5d d8          	mov    -0x28(%rbp),%rbx
    dbff:	64 48 33 1c 25 28 00 	xor    %fs:0x28,%rbx
    dc06:	00 00 
    dc08:	74 05                	je     dc0f <func_61+0xd71>
    dc0a:	e8 61 84 ff ff       	callq  6070 <__stack_chk_fail@plt>
    dc0f:	48 81 c4 50 05 00 00 	add    $0x550,%rsp
    dc16:	5b                   	pop    %rbx
    dc17:	41 5c                	pop    %r12
    dc19:	41 5d                	pop    %r13
    dc1b:	41 5e                	pop    %r14
    dc1d:	5d                   	pop    %rbp
    dc1e:	c3                   	retq   

000000000000dc1f <func_69>:
    dc1f:	f3 0f 1e fa          	endbr64 
    dc23:	55                   	push   %rbp
    dc24:	48 89 e5             	mov    %rsp,%rbp
    dc27:	48 81 ec a0 00 00 00 	sub    $0xa0,%rsp
    dc2e:	48 89 bd 68 ff ff ff 	mov    %rdi,-0x98(%rbp)
    dc35:	64 48 8b 04 25 28 00 	mov    %fs:0x28,%rax
    dc3c:	00 00 
    dc3e:	48 89 45 f8          	mov    %rax,-0x8(%rbp)
    dc42:	31 c0                	xor    %eax,%eax
    dc44:	48 c7 45 88 01 00 00 	movq   $0x1,-0x78(%rbp)
    dc4b:	00 
    dc4c:	48 8d 05 ed 53 00 00 	lea    0x53ed(%rip),%rax        # 13040 <g_85>
    dc53:	48 89 45 90          	mov    %rax,-0x70(%rbp)
    dc57:	c7 85 74 ff ff ff a3 	movl   $0xa799ada3,-0x8c(%rbp)
    dc5e:	ad 99 a7 
    dc61:	48 8b 45 90          	mov    -0x70(%rbp),%rax
    dc65:	8b 00                	mov    (%rax),%eax
    dc67:	89 c2                	mov    %eax,%edx
    dc69:	48 8b 45 88          	mov    -0x78(%rbp),%rax
    dc6d:	21 d0                	and    %edx,%eax
    dc6f:	89 c2                	mov    %eax,%edx
    dc71:	48 8b 45 90          	mov    -0x70(%rbp),%rax
    dc75:	89 10                	mov    %edx,(%rax)
    dc77:	48 c7 45 88 0f 00 00 	movq   $0xf,-0x78(%rbp)
    dc7e:	00 
    dc7f:	e9 a4 02 00 00       	jmpq   df28 <func_69+0x309>
    dc84:	c7 45 80 0e df 77 3e 	movl   $0x3e77df0e,-0x80(%rbp)
    dc8b:	48 8d 05 b2 53 00 00 	lea    0x53b2(%rip),%rax        # 13044 <g_104>
    dc92:	48 89 45 98          	mov    %rax,-0x68(%rbp)
    dc96:	66 c7 85 72 ff ff ff 	movw   $0x3d34,-0x8e(%rbp)
    dc9d:	34 3d 
    dc9f:	c7 85 78 ff ff ff 03 	movl   $0xd2487603,-0x88(%rbp)
    dca6:	76 48 d2 
    dca9:	48 c7 45 a0 00 00 00 	movq   $0x0,-0x60(%rbp)
    dcb0:	00 
    dcb1:	48 8d 05 90 53 00 00 	lea    0x5390(%rip),%rax        # 13048 <g_118>
    dcb8:	48 89 45 a8          	mov    %rax,-0x58(%rbp)
    dcbc:	48 8d 85 78 ff ff ff 	lea    -0x88(%rbp),%rax
    dcc3:	48 89 45 b0          	mov    %rax,-0x50(%rbp)
    dcc7:	48 8d 05 56 53 00 00 	lea    0x5356(%rip),%rax        # 13024 <g_7>
    dcce:	48 89 45 b8          	mov    %rax,-0x48(%rbp)
    dcd2:	48 c7 45 c0 00 00 00 	movq   $0x0,-0x40(%rbp)
    dcd9:	00 
    dcda:	48 c7 45 c8 00 00 00 	movq   $0x0,-0x38(%rbp)
    dce1:	00 
    dce2:	48 c7 45 d0 00 00 00 	movq   $0x0,-0x30(%rbp)
    dce9:	00 
    dcea:	48 8d 85 74 ff ff ff 	lea    -0x8c(%rbp),%rax
    dcf1:	48 89 45 d8          	mov    %rax,-0x28(%rbp)
    dcf5:	c7 45 84 fe ff ff ff 	movl   $0xfffffffe,-0x7c(%rbp)
    dcfc:	c7 85 7c ff ff ff 00 	movl   $0x0,-0x84(%rbp)
    dd03:	00 00 00 
    dd06:	eb 1b                	jmp    dd23 <func_69+0x104>
    dd08:	8b 85 7c ff ff ff    	mov    -0x84(%rbp),%eax
    dd0e:	48 98                	cltq   
    dd10:	48 8d 15 29 53 00 00 	lea    0x5329(%rip),%rdx        # 13040 <g_85>
    dd17:	48 89 54 c5 f0       	mov    %rdx,-0x10(%rbp,%rax,8)
    dd1c:	83 85 7c ff ff ff 01 	addl   $0x1,-0x84(%rbp)
    dd23:	83 bd 7c ff ff ff 00 	cmpl   $0x0,-0x84(%rbp)
    dd2a:	7e dc                	jle    dd08 <func_69+0xe9>
    dd2c:	48 8b 45 98          	mov    -0x68(%rbp),%rax
    dd30:	66 c7 00 01 00       	movw   $0x1,(%rax)
    dd35:	48 8b 05 ec 52 00 00 	mov    0x52ec(%rip),%rax        # 13028 <g_16>
    dd3c:	48 85 c0             	test   %rax,%rax
    dd3f:	0f 94 c0             	sete   %al
    dd42:	0f b6 c0             	movzbl %al,%eax
    dd45:	be 06 00 00 00       	mov    $0x6,%esi
    dd4a:	89 c7                	mov    %eax,%edi
    dd4c:	e8 50 85 ff ff       	callq  62a1 <safe_lshift_func_int8_t_s_s>
    dd51:	8b 05 e9 52 00 00    	mov    0x52e9(%rip),%eax        # 13040 <g_85>
    dd57:	83 f8 01             	cmp    $0x1,%eax
    dd5a:	0f 9f c0             	setg   %al
    dd5d:	0f b6 d0             	movzbl %al,%edx
    dd60:	8b 45 80             	mov    -0x80(%rbp),%eax
    dd63:	f7 d0                	not    %eax
    dd65:	0f b6 c0             	movzbl %al,%eax
    dd68:	89 d6                	mov    %edx,%esi
    dd6a:	89 c7                	mov    %eax,%edi
    dd6c:	e8 e9 8d ff ff       	callq  6b5a <safe_add_func_uint8_t_u_u>
    dd71:	0f b6 d0             	movzbl %al,%edx
    dd74:	48 8b 45 b0          	mov    -0x50(%rbp),%rax
    dd78:	89 10                	mov    %edx,(%rax)
    dd7a:	48 8b 45 b0          	mov    -0x50(%rbp),%rax
    dd7e:	8b 10                	mov    (%rax),%edx
    dd80:	48 8b 45 90          	mov    -0x70(%rbp),%rax
    dd84:	89 10                	mov    %edx,(%rax)
    dd86:	48 8b 45 b8          	mov    -0x48(%rbp),%rax
    dd8a:	48 3b 85 68 ff ff ff 	cmp    -0x98(%rbp),%rax
    dd91:	0f 95 c2             	setne  %dl
    dd94:	48 8b 05 dd 71 00 00 	mov    0x71dd(%rip),%rax        # 14f78 <g_124>
    dd9b:	0f b6 d2             	movzbl %dl,%edx
    dd9e:	89 10                	mov    %edx,(%rax)
    dda0:	c7 05 a6 52 00 00 00 	movl   $0x0,0x52a6(%rip)        # 13050 <g_122>
    dda7:	00 00 00 
    ddaa:	e9 42 01 00 00       	jmpq   def1 <func_69+0x2d2>
    ddaf:	48 8d 05 ca 71 00 00 	lea    0x71ca(%rip),%rax        # 14f80 <g_140>
    ddb6:	48 89 45 e0          	mov    %rax,-0x20(%rbp)
    ddba:	48 8d 05 93 52 00 00 	lea    0x5293(%rip),%rax        # 13054 <g_145>
    ddc1:	48 89 45 e8          	mov    %rax,-0x18(%rbp)
    ddc5:	48 8b 05 7c 52 00 00 	mov    0x527c(%rip),%rax        # 13048 <g_118>
    ddcc:	48 89 c1             	mov    %rax,%rcx
    ddcf:	48 8b 15 aa 71 00 00 	mov    0x71aa(%rip),%rdx        # 14f80 <g_140>
    ddd6:	48 8b 45 e0          	mov    -0x20(%rbp),%rax
    ddda:	48 89 10             	mov    %rdx,(%rax)
    dddd:	48 8b 45 e0          	mov    -0x20(%rbp),%rax
    dde1:	48 8b 00             	mov    (%rax),%rax
    dde4:	48 39 45 c0          	cmp    %rax,-0x40(%rbp)
    dde8:	48 8b 45 e0          	mov    -0x20(%rbp),%rax
    ddec:	48 8b 00             	mov    (%rax),%rax
    ddef:	48 8b 10             	mov    (%rax),%rdx
    ddf2:	48 8b 05 27 71 00 00 	mov    0x7127(%rip),%rax        # 14f20 <g_83>
    ddf9:	48 39 c2             	cmp    %rax,%rdx
    ddfc:	0f 94 c0             	sete   %al
    ddff:	0f b6 c0             	movzbl %al,%eax
    de02:	48 89 ce             	mov    %rcx,%rsi
    de05:	48 89 c7             	mov    %rax,%rdi
    de08:	e8 3e 92 ff ff       	callq  704b <safe_sub_func_uint64_t_u_u>
    de0d:	48 89 c2             	mov    %rax,%rdx
    de10:	48 8b 45 e8          	mov    -0x18(%rbp),%rax
    de14:	0f b6 00             	movzbl (%rax),%eax
    de17:	89 c1                	mov    %eax,%ecx
    de19:	89 d0                	mov    %edx,%eax
    de1b:	09 c8                	or     %ecx,%eax
    de1d:	89 c2                	mov    %eax,%edx
    de1f:	48 8b 45 e8          	mov    -0x18(%rbp),%rax
    de23:	88 10                	mov    %dl,(%rax)
    de25:	48 8b 45 e8          	mov    -0x18(%rbp),%rax
    de29:	0f b6 00             	movzbl (%rax),%eax
    de2c:	48 0f be d0          	movsbq %al,%rdx
    de30:	48 8b 05 f1 51 00 00 	mov    0x51f1(%rip),%rax        # 13028 <g_16>
    de37:	48 39 c2             	cmp    %rax,%rdx
    de3a:	0f 94 c0             	sete   %al
    de3d:	0f b6 d0             	movzbl %al,%edx
    de40:	8b 05 0a 52 00 00    	mov    0x520a(%rip),%eax        # 13050 <g_122>
    de46:	39 c2                	cmp    %eax,%edx
    de48:	7d 07                	jge    de51 <func_69+0x232>
    de4a:	b8 01 00 00 00       	mov    $0x1,%eax
    de4f:	eb 05                	jmp    de56 <func_69+0x237>
    de51:	b8 00 00 00 00       	mov    $0x0,%eax
    de56:	84 c0                	test   %al,%al
    de58:	74 13                	je     de6d <func_69+0x24e>
    de5a:	48 8b 05 e7 51 00 00 	mov    0x51e7(%rip),%rax        # 13048 <g_118>
    de61:	48 85 c0             	test   %rax,%rax
    de64:	74 07                	je     de6d <func_69+0x24e>
    de66:	b8 01 00 00 00       	mov    $0x1,%eax
    de6b:	eb 05                	jmp    de72 <func_69+0x253>
    de6d:	b8 00 00 00 00       	mov    $0x0,%eax
    de72:	0f b6 c0             	movzbl %al,%eax
    de75:	be 07 00 00 00       	mov    $0x7,%esi
    de7a:	89 c7                	mov    %eax,%edi
    de7c:	e8 3d 8e ff ff       	callq  6cbe <safe_rshift_func_uint8_t_u_u>
    de81:	0f b6 c0             	movzbl %al,%eax
    de84:	be 00 00 00 00       	mov    $0x0,%esi
    de89:	89 c7                	mov    %eax,%edi
    de8b:	e8 75 8d ff ff       	callq  6c05 <safe_lshift_func_uint8_t_u_s>
    de90:	8b 05 ba 51 00 00    	mov    0x51ba(%rip),%eax        # 13050 <g_122>
    de96:	f7 d0                	not    %eax
    de98:	c1 e8 1f             	shr    $0x1f,%eax
    de9b:	0f b6 c0             	movzbl %al,%eax
    de9e:	be 00 00 00 00       	mov    $0x0,%esi
    dea3:	48 89 c7             	mov    %rax,%rdi
    dea6:	e8 96 89 ff ff       	callq  6841 <safe_add_func_int64_t_s_s>
    deab:	48 85 c0             	test   %rax,%rax
    deae:	74 09                	je     deb9 <func_69+0x29a>
    deb0:	0f b6 05 9d 51 00 00 	movzbl 0x519d(%rip),%eax        # 13054 <g_145>
    deb7:	84 c0                	test   %al,%al
    deb9:	8b 85 78 ff ff ff    	mov    -0x88(%rbp),%eax
    debf:	89 c6                	mov    %eax,%esi
    dec1:	bf 00 00 00 00       	mov    $0x0,%edi
    dec6:	e8 05 90 ff ff       	callq  6ed0 <safe_sub_func_uint32_t_u_u>
    decb:	48 8b 05 a6 70 00 00 	mov    0x70a6(%rip),%rax        # 14f78 <g_124>
    ded2:	8b 10                	mov    (%rax),%edx
    ded4:	48 8b 45 90          	mov    -0x70(%rbp),%rax
    ded8:	8b 00                	mov    (%rax),%eax
    deda:	21 c2                	and    %eax,%edx
    dedc:	48 8b 45 90          	mov    -0x70(%rbp),%rax
    dee0:	89 10                	mov    %edx,(%rax)
    dee2:	8b 05 68 51 00 00    	mov    0x5168(%rip),%eax        # 13050 <g_122>
    dee8:	83 e8 01             	sub    $0x1,%eax
    deeb:	89 05 5f 51 00 00    	mov    %eax,0x515f(%rip)        # 13050 <g_122>
    def1:	8b 05 59 51 00 00    	mov    0x5159(%rip),%eax        # 13050 <g_122>
    def7:	83 f8 eb             	cmp    $0xffffffeb,%eax
    defa:	0f 84 af fe ff ff    	je     ddaf <func_69+0x190>
    df00:	8b 05 4a 51 00 00    	mov    0x514a(%rip),%eax        # 13050 <g_122>
    df06:	85 c0                	test   %eax,%eax
    df08:	74 05                	je     df0f <func_69+0x2f0>
    df0a:	e9 52 fd ff ff       	jmpq   dc61 <func_69+0x42>
    df0f:	83 45 84 01          	addl   $0x1,-0x7c(%rbp)
    df13:	48 8b 45 88          	mov    -0x78(%rbp),%rax
    df17:	be 04 00 00 00       	mov    $0x4,%esi
    df1c:	48 89 c7             	mov    %rax,%rdi
    df1f:	e8 0a 91 ff ff       	callq  702e <safe_add_func_uint64_t_u_u>
    df24:	48 89 45 88          	mov    %rax,-0x78(%rbp)
    df28:	48 83 7d 88 18       	cmpq   $0x18,-0x78(%rbp)
    df2d:	0f 86 51 fd ff ff    	jbe    dc84 <func_69+0x65>
    df33:	48 8b 45 90          	mov    -0x70(%rbp),%rax
    df37:	8b 10                	mov    (%rax),%edx
    df39:	48 8b 45 90          	mov    -0x70(%rbp),%rax
    df3d:	89 10                	mov    %edx,(%rax)
    df3f:	48 8d 85 74 ff ff ff 	lea    -0x8c(%rbp),%rax
    df46:	48 89 05 3b 70 00 00 	mov    %rax,0x703b(%rip)        # 14f88 <g_155>
    df4d:	48 8b 05 cc 6f 00 00 	mov    0x6fcc(%rip),%rax        # 14f20 <g_83>
    df54:	48 8b 15 2d 70 00 00 	mov    0x702d(%rip),%rdx        # 14f88 <g_155>
    df5b:	48 89 10             	mov    %rdx,(%rax)
    df5e:	48 8b 45 90          	mov    -0x70(%rbp),%rax
    df62:	8b 00                	mov    (%rax),%eax
    df64:	48 8b 4d f8          	mov    -0x8(%rbp),%rcx
    df68:	64 48 33 0c 25 28 00 	xor    %fs:0x28,%rcx
    df6f:	00 00 
    df71:	74 05                	je     df78 <func_69+0x359>
    df73:	e8 f8 80 ff ff       	callq  6070 <__stack_chk_fail@plt>
    df78:	c9                   	leaveq 
    df79:	c3                   	retq   

000000000000df7a <func_73>:
    df7a:	f3 0f 1e fa          	endbr64 
    df7e:	55                   	push   %rbp
    df7f:	48 89 e5             	mov    %rsp,%rbp
    df82:	48 83 ec 40          	sub    $0x40,%rsp
    df86:	48 89 7d d8          	mov    %rdi,-0x28(%rbp)
    df8a:	48 89 75 d0          	mov    %rsi,-0x30(%rbp)
    df8e:	89 c8                	mov    %ecx,%eax
    df90:	66 89 55 cc          	mov    %dx,-0x34(%rbp)
    df94:	66 89 45 c8          	mov    %ax,-0x38(%rbp)
    df98:	64 48 8b 04 25 28 00 	mov    %fs:0x28,%rax
    df9f:	00 00 
    dfa1:	48 89 45 f8          	mov    %rax,-0x8(%rbp)
    dfa5:	31 c0                	xor    %eax,%eax
    dfa7:	48 8d 05 72 6f 00 00 	lea    0x6f72(%rip),%rax        # 14f20 <g_83>
    dfae:	48 89 45 e8          	mov    %rax,-0x18(%rbp)
    dfb2:	c7 45 e4 00 00 00 00 	movl   $0x0,-0x1c(%rbp)
    dfb9:	eb 12                	jmp    dfcd <func_73+0x53>
    dfbb:	8b 45 e4             	mov    -0x1c(%rbp),%eax
    dfbe:	48 98                	cltq   
    dfc0:	48 c7 44 c5 f0 00 00 	movq   $0x0,-0x10(%rbp,%rax,8)
    dfc7:	00 00 
    dfc9:	83 45 e4 01          	addl   $0x1,-0x1c(%rbp)
    dfcd:	83 7d e4 00          	cmpl   $0x0,-0x1c(%rbp)
    dfd1:	7e e8                	jle    dfbb <func_73+0x41>
    dfd3:	48 8b 05 5e 50 00 00 	mov    0x505e(%rip),%rax        # 13038 <g_80>
    dfda:	48 83 e8 01          	sub    $0x1,%rax
    dfde:	48 89 05 53 50 00 00 	mov    %rax,0x5053(%rip)        # 13038 <g_80>
    dfe5:	48 8b 15 34 6f 00 00 	mov    0x6f34(%rip),%rdx        # 14f20 <g_83>
    dfec:	48 8b 45 e8          	mov    -0x18(%rbp),%rax
    dff0:	48 89 10             	mov    %rdx,(%rax)
    dff3:	48 8d 05 2a 50 00 00 	lea    0x502a(%rip),%rax        # 13024 <g_7>
    dffa:	48 8b 4d f8          	mov    -0x8(%rbp),%rcx
    dffe:	64 48 33 0c 25 28 00 	xor    %fs:0x28,%rcx
    e005:	00 00 
    e007:	74 05                	je     e00e <func_73+0x94>
    e009:	e8 62 80 ff ff       	callq  6070 <__stack_chk_fail@plt>
    e00e:	c9                   	leaveq 
    e00f:	c3                   	retq   

000000000000e010 <main>:
    e010:	f3 0f 1e fa          	endbr64 
    e014:	55                   	push   %rbp
    e015:	48 89 e5             	mov    %rsp,%rbp
    e018:	48 83 ec 20          	sub    $0x20,%rsp
    e01c:	89 7d ec             	mov    %edi,-0x14(%rbp)
    e01f:	48 89 75 e0          	mov    %rsi,-0x20(%rbp)
    e023:	c7 45 fc 00 00 00 00 	movl   $0x0,-0x4(%rbp)
    e02a:	83 7d ec 02          	cmpl   $0x2,-0x14(%rbp)
    e02e:	75 25                	jne    e055 <main+0x45>
    e030:	48 8b 45 e0          	mov    -0x20(%rbp),%rax
    e034:	48 83 c0 08          	add    $0x8,%rax
    e038:	48 8b 00             	mov    (%rax),%rax
    e03b:	48 8d 35 06 27 00 00 	lea    0x2706(%rip),%rsi        # 10748 <g_2338+0x16e0>
    e042:	48 89 c7             	mov    %rax,%rdi
    e045:	e8 46 80 ff ff       	callq  6090 <strcmp@plt>
    e04a:	85 c0                	test   %eax,%eax
    e04c:	75 07                	jne    e055 <main+0x45>
    e04e:	c7 45 fc 01 00 00 00 	movl   $0x1,-0x4(%rbp)
    e055:	e8 2f 81 ff ff       	callq  6189 <platform_main_begin>
    e05a:	e8 39 95 ff ff       	callq  7598 <crc32_gentab>
    e05f:	e8 51 97 ff ff       	callq  77b5 <func_1>
    e064:	0f b6 05 b9 4f 00 00 	movzbl 0x4fb9(%rip),%eax        # 13024 <g_7>
    e06b:	0f b6 c0             	movzbl %al,%eax
    e06e:	8b 55 fc             	mov    -0x4(%rbp),%edx
    e071:	48 8d 35 d2 26 00 00 	lea    0x26d2(%rip),%rsi        # 1074a <g_2338+0x16e2>
    e078:	48 89 c7             	mov    %rax,%rdi
    e07b:	e8 73 96 ff ff       	callq  76f3 <transparent_crc>
    e080:	48 8b 05 a1 4f 00 00 	mov    0x4fa1(%rip),%rax        # 13028 <g_16>
    e087:	8b 55 fc             	mov    -0x4(%rbp),%edx
    e08a:	48 8d 35 bd 26 00 00 	lea    0x26bd(%rip),%rsi        # 1074e <g_2338+0x16e6>
    e091:	48 89 c7             	mov    %rax,%rdi
    e094:	e8 5a 96 ff ff       	callq  76f3 <transparent_crc>
    e099:	0f b6 05 90 4f 00 00 	movzbl 0x4f90(%rip),%eax        # 13030 <g_37>
    e0a0:	0f b6 c0             	movzbl %al,%eax
    e0a3:	8b 55 fc             	mov    -0x4(%rbp),%edx
    e0a6:	48 8d 35 a6 26 00 00 	lea    0x26a6(%rip),%rsi        # 10753 <g_2338+0x16eb>
    e0ad:	48 89 c7             	mov    %rax,%rdi
    e0b0:	e8 3e 96 ff ff       	callq  76f3 <transparent_crc>
    e0b5:	48 8b 05 7c 4f 00 00 	mov    0x4f7c(%rip),%rax        # 13038 <g_80>
    e0bc:	8b 55 fc             	mov    -0x4(%rbp),%edx
    e0bf:	48 8d 35 92 26 00 00 	lea    0x2692(%rip),%rsi        # 10758 <g_2338+0x16f0>
    e0c6:	48 89 c7             	mov    %rax,%rdi
    e0c9:	e8 25 96 ff ff       	callq  76f3 <transparent_crc>
    e0ce:	8b 05 6c 4f 00 00    	mov    0x4f6c(%rip),%eax        # 13040 <g_85>
    e0d4:	48 98                	cltq   
    e0d6:	8b 55 fc             	mov    -0x4(%rbp),%edx
    e0d9:	48 8d 35 7d 26 00 00 	lea    0x267d(%rip),%rsi        # 1075d <g_2338+0x16f5>
    e0e0:	48 89 c7             	mov    %rax,%rdi
    e0e3:	e8 0b 96 ff ff       	callq  76f3 <transparent_crc>
    e0e8:	0f b7 05 55 4f 00 00 	movzwl 0x4f55(%rip),%eax        # 13044 <g_104>
    e0ef:	48 0f bf c0          	movswq %ax,%rax
    e0f3:	8b 55 fc             	mov    -0x4(%rbp),%edx
    e0f6:	48 8d 35 65 26 00 00 	lea    0x2665(%rip),%rsi        # 10762 <g_2338+0x16fa>
    e0fd:	48 89 c7             	mov    %rax,%rdi
    e100:	e8 ee 95 ff ff       	callq  76f3 <transparent_crc>
    e105:	48 8b 05 3c 4f 00 00 	mov    0x4f3c(%rip),%rax        # 13048 <g_118>
    e10c:	48 89 c1             	mov    %rax,%rcx
    e10f:	8b 45 fc             	mov    -0x4(%rbp),%eax
    e112:	89 c2                	mov    %eax,%edx
    e114:	48 8d 35 4d 26 00 00 	lea    0x264d(%rip),%rsi        # 10768 <g_2338+0x1700>
    e11b:	48 89 cf             	mov    %rcx,%rdi
    e11e:	e8 d0 95 ff ff       	callq  76f3 <transparent_crc>
    e123:	8b 05 27 4f 00 00    	mov    0x4f27(%rip),%eax        # 13050 <g_122>
    e129:	48 98                	cltq   
    e12b:	8b 55 fc             	mov    -0x4(%rbp),%edx
    e12e:	48 8d 35 39 26 00 00 	lea    0x2639(%rip),%rsi        # 1076e <g_2338+0x1706>
    e135:	48 89 c7             	mov    %rax,%rdi
    e138:	e8 b6 95 ff ff       	callq  76f3 <transparent_crc>
    e13d:	0f b6 05 10 4f 00 00 	movzbl 0x4f10(%rip),%eax        # 13054 <g_145>
    e144:	48 0f be c0          	movsbq %al,%rax
    e148:	8b 55 fc             	mov    -0x4(%rbp),%edx
    e14b:	48 8d 35 22 26 00 00 	lea    0x2622(%rip),%rsi        # 10774 <g_2338+0x170c>
    e152:	48 89 c7             	mov    %rax,%rdi
    e155:	e8 99 95 ff ff       	callq  76f3 <transparent_crc>
    e15a:	8b 05 f8 4e 00 00    	mov    0x4ef8(%rip),%eax        # 13058 <g_257>
    e160:	89 c1                	mov    %eax,%ecx
    e162:	8b 45 fc             	mov    -0x4(%rbp),%eax
    e165:	89 c2                	mov    %eax,%edx
    e167:	48 8d 35 0c 26 00 00 	lea    0x260c(%rip),%rsi        # 1077a <g_2338+0x1712>
    e16e:	48 89 cf             	mov    %rcx,%rdi
    e171:	e8 7d 95 ff ff       	callq  76f3 <transparent_crc>
    e176:	0f b7 05 5b 78 00 00 	movzwl 0x785b(%rip),%eax        # 159d8 <g_258>
    e17d:	48 0f bf c0          	movswq %ax,%rax
    e181:	8b 55 fc             	mov    -0x4(%rbp),%edx
    e184:	48 8d 35 f5 25 00 00 	lea    0x25f5(%rip),%rsi        # 10780 <g_2338+0x1718>
    e18b:	48 89 c7             	mov    %rax,%rdi
    e18e:	e8 60 95 ff ff       	callq  76f3 <transparent_crc>
    e193:	0f b7 05 c2 4e 00 00 	movzwl 0x4ec2(%rip),%eax        # 1305c <g_306>
    e19a:	0f b7 c0             	movzwl %ax,%eax
    e19d:	8b 55 fc             	mov    -0x4(%rbp),%edx
    e1a0:	48 8d 35 df 25 00 00 	lea    0x25df(%rip),%rsi        # 10786 <g_2338+0x171e>
    e1a7:	48 89 c7             	mov    %rax,%rdi
    e1aa:	e8 44 95 ff ff       	callq  76f3 <transparent_crc>
    e1af:	8b 05 ab 4e 00 00    	mov    0x4eab(%rip),%eax        # 13060 <g_423>
    e1b5:	48 98                	cltq   
    e1b7:	8b 55 fc             	mov    -0x4(%rbp),%edx
    e1ba:	48 8d 35 cb 25 00 00 	lea    0x25cb(%rip),%rsi        # 1078c <g_2338+0x1724>
    e1c1:	48 89 c7             	mov    %rax,%rdi
    e1c4:	e8 2a 95 ff ff       	callq  76f3 <transparent_crc>
    e1c9:	0f b6 05 94 4e 00 00 	movzbl 0x4e94(%rip),%eax        # 13064 <g_439>
    e1d0:	0f b6 c0             	movzbl %al,%eax
    e1d3:	8b 55 fc             	mov    -0x4(%rbp),%edx
    e1d6:	48 8d 35 b5 25 00 00 	lea    0x25b5(%rip),%rsi        # 10792 <g_2338+0x172a>
    e1dd:	48 89 c7             	mov    %rax,%rdi
    e1e0:	e8 0e 95 ff ff       	callq  76f3 <transparent_crc>
    e1e5:	48 8b 05 7c 4e 00 00 	mov    0x4e7c(%rip),%rax        # 13068 <g_492>
    e1ec:	8b 55 fc             	mov    -0x4(%rbp),%edx
    e1ef:	48 8d 35 a2 25 00 00 	lea    0x25a2(%rip),%rsi        # 10798 <g_2338+0x1730>
    e1f6:	48 89 c7             	mov    %rax,%rdi
    e1f9:	e8 f5 94 ff ff       	callq  76f3 <transparent_crc>
    e1fe:	c7 45 f4 00 00 00 00 	movl   $0x0,-0xc(%rbp)
    e205:	eb 4b                	jmp    e252 <main+0x242>
    e207:	8b 45 f4             	mov    -0xc(%rbp),%eax
    e20a:	48 98                	cltq   
    e20c:	48 8d 14 85 00 00 00 	lea    0x0(,%rax,4),%rdx
    e213:	00 
    e214:	48 8d 05 55 4e 00 00 	lea    0x4e55(%rip),%rax        # 13070 <g_498>
    e21b:	8b 04 02             	mov    (%rdx,%rax,1),%eax
    e21e:	48 98                	cltq   
    e220:	8b 55 fc             	mov    -0x4(%rbp),%edx
    e223:	48 8d 35 74 25 00 00 	lea    0x2574(%rip),%rsi        # 1079e <g_2338+0x1736>
    e22a:	48 89 c7             	mov    %rax,%rdi
    e22d:	e8 c1 94 ff ff       	callq  76f3 <transparent_crc>
    e232:	83 7d fc 00          	cmpl   $0x0,-0x4(%rbp)
    e236:	74 16                	je     e24e <main+0x23e>
    e238:	8b 45 f4             	mov    -0xc(%rbp),%eax
    e23b:	89 c6                	mov    %eax,%esi
    e23d:	48 8d 3d 63 25 00 00 	lea    0x2563(%rip),%rdi        # 107a7 <g_2338+0x173f>
    e244:	b8 00 00 00 00       	mov    $0x0,%eax
    e249:	e8 32 7e ff ff       	callq  6080 <printf@plt>
    e24e:	83 45 f4 01          	addl   $0x1,-0xc(%rbp)
    e252:	83 7d f4 03          	cmpl   $0x3,-0xc(%rbp)
    e256:	7e af                	jle    e207 <main+0x1f7>
    e258:	48 8b 05 81 77 00 00 	mov    0x7781(%rip),%rax        # 159e0 <g_616>
    e25f:	48 89 c1             	mov    %rax,%rcx
    e262:	8b 45 fc             	mov    -0x4(%rbp),%eax
    e265:	89 c2                	mov    %eax,%edx
    e267:	48 8d 35 47 25 00 00 	lea    0x2547(%rip),%rsi        # 107b5 <g_2338+0x174d>
    e26e:	48 89 cf             	mov    %rcx,%rdi
    e271:	e8 7d 94 ff ff       	callq  76f3 <transparent_crc>
    e276:	0f b7 05 03 4e 00 00 	movzwl 0x4e03(%rip),%eax        # 13080 <g_620>
    e27d:	48 0f bf c0          	movswq %ax,%rax
    e281:	8b 55 fc             	mov    -0x4(%rbp),%edx
    e284:	48 8d 35 30 25 00 00 	lea    0x2530(%rip),%rsi        # 107bb <g_2338+0x1753>
    e28b:	48 89 c7             	mov    %rax,%rdi
    e28e:	e8 60 94 ff ff       	callq  76f3 <transparent_crc>
    e293:	0f b6 05 e8 4d 00 00 	movzbl 0x4de8(%rip),%eax        # 13082 <g_683>
    e29a:	48 0f be c0          	movsbq %al,%rax
    e29e:	8b 55 fc             	mov    -0x4(%rbp),%edx
    e2a1:	48 8d 35 19 25 00 00 	lea    0x2519(%rip),%rsi        # 107c1 <g_2338+0x1759>
    e2a8:	48 89 c7             	mov    %rax,%rdi
    e2ab:	e8 43 94 ff ff       	callq  76f3 <transparent_crc>
    e2b0:	8b 05 ce 4d 00 00    	mov    0x4dce(%rip),%eax        # 13084 <g_1025>
    e2b6:	48 98                	cltq   
    e2b8:	8b 55 fc             	mov    -0x4(%rbp),%edx
    e2bb:	48 8d 35 05 25 00 00 	lea    0x2505(%rip),%rsi        # 107c7 <g_2338+0x175f>
    e2c2:	48 89 c7             	mov    %rax,%rdi
    e2c5:	e8 29 94 ff ff       	callq  76f3 <transparent_crc>
    e2ca:	8b 05 b8 4d 00 00    	mov    0x4db8(%rip),%eax        # 13088 <g_1247>
    e2d0:	89 c1                	mov    %eax,%ecx
    e2d2:	8b 45 fc             	mov    -0x4(%rbp),%eax
    e2d5:	89 c2                	mov    %eax,%edx
    e2d7:	48 8d 35 f0 24 00 00 	lea    0x24f0(%rip),%rsi        # 107ce <g_2338+0x1766>
    e2de:	48 89 cf             	mov    %rcx,%rdi
    e2e1:	e8 0d 94 ff ff       	callq  76f3 <transparent_crc>
    e2e6:	c7 45 f4 00 00 00 00 	movl   $0x0,-0xc(%rbp)
    e2ed:	eb 4d                	jmp    e33c <main+0x32c>
    e2ef:	8b 45 f4             	mov    -0xc(%rbp),%eax
    e2f2:	48 98                	cltq   
    e2f4:	48 8d 14 85 00 00 00 	lea    0x0(,%rax,4),%rdx
    e2fb:	00 
    e2fc:	48 8d 05 8d 4d 00 00 	lea    0x4d8d(%rip),%rax        # 13090 <g_1260>
    e303:	8b 04 02             	mov    (%rdx,%rax,1),%eax
    e306:	89 c1                	mov    %eax,%ecx
    e308:	8b 45 fc             	mov    -0x4(%rbp),%eax
    e30b:	89 c2                	mov    %eax,%edx
    e30d:	48 8d 35 c1 24 00 00 	lea    0x24c1(%rip),%rsi        # 107d5 <g_2338+0x176d>
    e314:	48 89 cf             	mov    %rcx,%rdi
    e317:	e8 d7 93 ff ff       	callq  76f3 <transparent_crc>
    e31c:	83 7d fc 00          	cmpl   $0x0,-0x4(%rbp)
    e320:	74 16                	je     e338 <main+0x328>
    e322:	8b 45 f4             	mov    -0xc(%rbp),%eax
    e325:	89 c6                	mov    %eax,%esi
    e327:	48 8d 3d 79 24 00 00 	lea    0x2479(%rip),%rdi        # 107a7 <g_2338+0x173f>
    e32e:	b8 00 00 00 00       	mov    $0x0,%eax
    e333:	e8 48 7d ff ff       	callq  6080 <printf@plt>
    e338:	83 45 f4 01          	addl   $0x1,-0xc(%rbp)
    e33c:	83 7d f4 01          	cmpl   $0x1,-0xc(%rbp)
    e340:	7e ad                	jle    e2ef <main+0x2df>
    e342:	8b 05 50 4d 00 00    	mov    0x4d50(%rip),%eax        # 13098 <g_1283>
    e348:	89 c1                	mov    %eax,%ecx
    e34a:	8b 45 fc             	mov    -0x4(%rbp),%eax
    e34d:	89 c2                	mov    %eax,%edx
    e34f:	48 8d 35 89 24 00 00 	lea    0x2489(%rip),%rsi        # 107df <g_2338+0x1777>
    e356:	48 89 cf             	mov    %rcx,%rdi
    e359:	e8 95 93 ff ff       	callq  76f3 <transparent_crc>
    e35e:	0f b6 05 37 4d 00 00 	movzbl 0x4d37(%rip),%eax        # 1309c <g_1346>
    e365:	0f b6 c0             	movzbl %al,%eax
    e368:	8b 55 fc             	mov    -0x4(%rbp),%edx
    e36b:	48 8d 35 74 24 00 00 	lea    0x2474(%rip),%rsi        # 107e6 <g_2338+0x177e>
    e372:	48 89 c7             	mov    %rax,%rdi
    e375:	e8 79 93 ff ff       	callq  76f3 <transparent_crc>
    e37a:	0f b7 05 1d 4d 00 00 	movzwl 0x4d1d(%rip),%eax        # 1309e <g_1419>
    e381:	48 0f bf c0          	movswq %ax,%rax
    e385:	8b 55 fc             	mov    -0x4(%rbp),%edx
    e388:	48 8d 35 5e 24 00 00 	lea    0x245e(%rip),%rsi        # 107ed <g_2338+0x1785>
    e38f:	48 89 c7             	mov    %rax,%rdi
    e392:	e8 5c 93 ff ff       	callq  76f3 <transparent_crc>
    e397:	8b 05 03 4d 00 00    	mov    0x4d03(%rip),%eax        # 130a0 <g_1428>
    e39d:	89 c1                	mov    %eax,%ecx
    e39f:	8b 45 fc             	mov    -0x4(%rbp),%eax
    e3a2:	89 c2                	mov    %eax,%edx
    e3a4:	48 8d 35 49 24 00 00 	lea    0x2449(%rip),%rsi        # 107f4 <g_2338+0x178c>
    e3ab:	48 89 cf             	mov    %rcx,%rdi
    e3ae:	e8 40 93 ff ff       	callq  76f3 <transparent_crc>
    e3b3:	0f b6 05 46 76 00 00 	movzbl 0x7646(%rip),%eax        # 15a00 <g_1456>
    e3ba:	48 0f be c0          	movsbq %al,%rax
    e3be:	8b 55 fc             	mov    -0x4(%rbp),%edx
    e3c1:	48 8d 35 33 24 00 00 	lea    0x2433(%rip),%rsi        # 107fb <g_2338+0x1793>
    e3c8:	48 89 c7             	mov    %rax,%rdi
    e3cb:	e8 23 93 ff ff       	callq  76f3 <transparent_crc>
    e3d0:	0f b7 05 cd 4c 00 00 	movzwl 0x4ccd(%rip),%eax        # 130a4 <g_1463>
    e3d7:	0f b7 c0             	movzwl %ax,%eax
    e3da:	8b 55 fc             	mov    -0x4(%rbp),%edx
    e3dd:	48 8d 35 1e 24 00 00 	lea    0x241e(%rip),%rsi        # 10802 <g_2338+0x179a>
    e3e4:	48 89 c7             	mov    %rax,%rdi
    e3e7:	e8 07 93 ff ff       	callq  76f3 <transparent_crc>
    e3ec:	8b 05 b6 4c 00 00    	mov    0x4cb6(%rip),%eax        # 130a8 <g_1571>
    e3f2:	48 98                	cltq   
    e3f4:	8b 55 fc             	mov    -0x4(%rbp),%edx
    e3f7:	48 8d 35 0b 24 00 00 	lea    0x240b(%rip),%rsi        # 10809 <g_2338+0x17a1>
    e3fe:	48 89 c7             	mov    %rax,%rdi
    e401:	e8 ed 92 ff ff       	callq  76f3 <transparent_crc>
    e406:	0f b7 05 9f 4c 00 00 	movzwl 0x4c9f(%rip),%eax        # 130ac <g_1586>
    e40d:	48 0f bf c0          	movswq %ax,%rax
    e411:	8b 55 fc             	mov    -0x4(%rbp),%edx
    e414:	48 8d 35 f5 23 00 00 	lea    0x23f5(%rip),%rsi        # 10810 <g_2338+0x17a8>
    e41b:	48 89 c7             	mov    %rax,%rdi
    e41e:	e8 d0 92 ff ff       	callq  76f3 <transparent_crc>
    e423:	0f b7 05 84 4c 00 00 	movzwl 0x4c84(%rip),%eax        # 130ae <g_1752>
    e42a:	48 0f bf c0          	movswq %ax,%rax
    e42e:	8b 55 fc             	mov    -0x4(%rbp),%edx
    e431:	48 8d 35 df 23 00 00 	lea    0x23df(%rip),%rsi        # 10817 <g_2338+0x17af>
    e438:	48 89 c7             	mov    %rax,%rdi
    e43b:	e8 b3 92 ff ff       	callq  76f3 <transparent_crc>
    e440:	0f b7 05 69 4c 00 00 	movzwl 0x4c69(%rip),%eax        # 130b0 <g_1842>
    e447:	48 0f bf c0          	movswq %ax,%rax
    e44b:	8b 55 fc             	mov    -0x4(%rbp),%edx
    e44e:	48 8d 35 c9 23 00 00 	lea    0x23c9(%rip),%rsi        # 1081e <g_2338+0x17b6>
    e455:	48 89 c7             	mov    %rax,%rdi
    e458:	e8 96 92 ff ff       	callq  76f3 <transparent_crc>
    e45d:	c7 45 f4 00 00 00 00 	movl   $0x0,-0xc(%rbp)
    e464:	eb 76                	jmp    e4dc <main+0x4cc>
    e466:	c7 45 f8 00 00 00 00 	movl   $0x0,-0x8(%rbp)
    e46d:	eb 63                	jmp    e4d2 <main+0x4c2>
    e46f:	8b 45 f8             	mov    -0x8(%rbp),%eax
    e472:	48 63 c8             	movslq %eax,%rcx
    e475:	8b 45 f4             	mov    -0xc(%rbp),%eax
    e478:	48 63 d0             	movslq %eax,%rdx
    e47b:	48 89 d0             	mov    %rdx,%rax
    e47e:	48 c1 e0 02          	shl    $0x2,%rax
    e482:	48 01 d0             	add    %rdx,%rax
    e485:	48 01 c0             	add    %rax,%rax
    e488:	48 01 c8             	add    %rcx,%rax
    e48b:	48 8d 14 00          	lea    (%rax,%rax,1),%rdx
    e48f:	48 8d 05 2a 4c 00 00 	lea    0x4c2a(%rip),%rax        # 130c0 <g_1941>
    e496:	0f b7 04 02          	movzwl (%rdx,%rax,1),%eax
    e49a:	0f b7 c0             	movzwl %ax,%eax
    e49d:	8b 55 fc             	mov    -0x4(%rbp),%edx
    e4a0:	48 8d 35 7e 23 00 00 	lea    0x237e(%rip),%rsi        # 10825 <g_2338+0x17bd>
    e4a7:	48 89 c7             	mov    %rax,%rdi
    e4aa:	e8 44 92 ff ff       	callq  76f3 <transparent_crc>
    e4af:	83 7d fc 00          	cmpl   $0x0,-0x4(%rbp)
    e4b3:	74 19                	je     e4ce <main+0x4be>
    e4b5:	8b 55 f8             	mov    -0x8(%rbp),%edx
    e4b8:	8b 45 f4             	mov    -0xc(%rbp),%eax
    e4bb:	89 c6                	mov    %eax,%esi
    e4bd:	48 8d 3d 6e 23 00 00 	lea    0x236e(%rip),%rdi        # 10832 <g_2338+0x17ca>
    e4c4:	b8 00 00 00 00       	mov    $0x0,%eax
    e4c9:	e8 b2 7b ff ff       	callq  6080 <printf@plt>
    e4ce:	83 45 f8 01          	addl   $0x1,-0x8(%rbp)
    e4d2:	83 7d f8 09          	cmpl   $0x9,-0x8(%rbp)
    e4d6:	7e 97                	jle    e46f <main+0x45f>
    e4d8:	83 45 f4 01          	addl   $0x1,-0xc(%rbp)
    e4dc:	83 7d f4 00          	cmpl   $0x0,-0xc(%rbp)
    e4e0:	7e 84                	jle    e466 <main+0x456>
    e4e2:	0f b7 05 37 75 00 00 	movzwl 0x7537(%rip),%eax        # 15a20 <g_2101>
    e4e9:	48 0f bf c0          	movswq %ax,%rax
    e4ed:	8b 55 fc             	mov    -0x4(%rbp),%edx
    e4f0:	48 8d 35 4d 23 00 00 	lea    0x234d(%rip),%rsi        # 10844 <g_2338+0x17dc>
    e4f7:	48 89 c7             	mov    %rax,%rdi
    e4fa:	e8 f4 91 ff ff       	callq  76f3 <transparent_crc>
    e4ff:	8b 05 cf 4b 00 00    	mov    0x4bcf(%rip),%eax        # 130d4 <g_2163>
    e505:	89 c1                	mov    %eax,%ecx
    e507:	8b 45 fc             	mov    -0x4(%rbp),%eax
    e50a:	89 c2                	mov    %eax,%edx
    e50c:	48 8d 35 38 23 00 00 	lea    0x2338(%rip),%rsi        # 1084b <g_2338+0x17e3>
    e513:	48 89 cf             	mov    %rcx,%rdi
    e516:	e8 d8 91 ff ff       	callq  76f3 <transparent_crc>
    e51b:	b9 01 00 00 00       	mov    $0x1,%ecx
    e520:	8b 45 fc             	mov    -0x4(%rbp),%eax
    e523:	89 c2                	mov    %eax,%edx
    e525:	48 8d 35 26 23 00 00 	lea    0x2326(%rip),%rsi        # 10852 <g_2338+0x17ea>
    e52c:	48 89 cf             	mov    %rcx,%rdi
    e52f:	e8 bf 91 ff ff       	callq  76f3 <transparent_crc>
    e534:	8b 05 9e 4b 00 00    	mov    0x4b9e(%rip),%eax        # 130d8 <g_2441>
    e53a:	48 98                	cltq   
    e53c:	8b 55 fc             	mov    -0x4(%rbp),%edx
    e53f:	48 8d 35 13 23 00 00 	lea    0x2313(%rip),%rsi        # 10859 <g_2338+0x17f1>
    e546:	48 89 c7             	mov    %rax,%rdi
    e549:	e8 a5 91 ff ff       	callq  76f3 <transparent_crc>
    e54e:	8b 05 88 4b 00 00    	mov    0x4b88(%rip),%eax        # 130dc <g_2484>
    e554:	89 c1                	mov    %eax,%ecx
    e556:	8b 45 fc             	mov    -0x4(%rbp),%eax
    e559:	89 c2                	mov    %eax,%edx
    e55b:	48 8d 35 fe 22 00 00 	lea    0x22fe(%rip),%rsi        # 10860 <g_2338+0x17f8>
    e562:	48 89 cf             	mov    %rcx,%rdi
    e565:	e8 89 91 ff ff       	callq  76f3 <transparent_crc>
    e56a:	48 8b 05 6f 4b 00 00 	mov    0x4b6f(%rip),%rax        # 130e0 <g_2523>
    e571:	8b 55 fc             	mov    -0x4(%rbp),%edx
    e574:	48 8d 35 ec 22 00 00 	lea    0x22ec(%rip),%rsi        # 10867 <g_2338+0x17ff>
    e57b:	48 89 c7             	mov    %rax,%rdi
    e57e:	e8 70 91 ff ff       	callq  76f3 <transparent_crc>
    e583:	48 8b 05 5e 4b 00 00 	mov    0x4b5e(%rip),%rax        # 130e8 <g_2531>
    e58a:	48 89 c1             	mov    %rax,%rcx
    e58d:	8b 45 fc             	mov    -0x4(%rbp),%eax
    e590:	89 c2                	mov    %eax,%edx
    e592:	48 8d 35 d5 22 00 00 	lea    0x22d5(%rip),%rsi        # 1086e <g_2338+0x1806>
    e599:	48 89 cf             	mov    %rcx,%rdi
    e59c:	e8 52 91 ff ff       	callq  76f3 <transparent_crc>
    e5a1:	8b 05 49 4b 00 00    	mov    0x4b49(%rip),%eax        # 130f0 <g_2558>
    e5a7:	89 c1                	mov    %eax,%ecx
    e5a9:	8b 45 fc             	mov    -0x4(%rbp),%eax
    e5ac:	89 c2                	mov    %eax,%edx
    e5ae:	48 8d 35 c0 22 00 00 	lea    0x22c0(%rip),%rsi        # 10875 <g_2338+0x180d>
    e5b5:	48 89 cf             	mov    %rcx,%rdi
    e5b8:	e8 36 91 ff ff       	callq  76f3 <transparent_crc>
    e5bd:	0f b6 05 30 4b 00 00 	movzbl 0x4b30(%rip),%eax        # 130f4 <g_2583>
    e5c4:	48 0f be c0          	movsbq %al,%rax
    e5c8:	8b 55 fc             	mov    -0x4(%rbp),%edx
    e5cb:	48 8d 35 aa 22 00 00 	lea    0x22aa(%rip),%rsi        # 1087c <g_2338+0x1814>
    e5d2:	48 89 c7             	mov    %rax,%rdi
    e5d5:	e8 19 91 ff ff       	callq  76f3 <transparent_crc>
    e5da:	8b 05 18 4b 00 00    	mov    0x4b18(%rip),%eax        # 130f8 <g_2766>
    e5e0:	48 98                	cltq   
    e5e2:	8b 55 fc             	mov    -0x4(%rbp),%edx
    e5e5:	48 8d 35 97 22 00 00 	lea    0x2297(%rip),%rsi        # 10883 <g_2338+0x181b>
    e5ec:	48 89 c7             	mov    %rax,%rdi
    e5ef:	e8 ff 90 ff ff       	callq  76f3 <transparent_crc>
    e5f4:	0f b7 05 01 4b 00 00 	movzwl 0x4b01(%rip),%eax        # 130fc <g_2846>
    e5fb:	48 0f bf c0          	movswq %ax,%rax
    e5ff:	8b 55 fc             	mov    -0x4(%rbp),%edx
    e602:	48 8d 35 81 22 00 00 	lea    0x2281(%rip),%rsi        # 1088a <g_2338+0x1822>
    e609:	48 89 c7             	mov    %rax,%rdi
    e60c:	e8 e2 90 ff ff       	callq  76f3 <transparent_crc>
    e611:	0f b6 05 e6 4a 00 00 	movzbl 0x4ae6(%rip),%eax        # 130fe <g_2959>
    e618:	48 0f be c0          	movsbq %al,%rax
    e61c:	8b 55 fc             	mov    -0x4(%rbp),%edx
    e61f:	48 8d 35 6b 22 00 00 	lea    0x226b(%rip),%rsi        # 10891 <g_2338+0x1829>
    e626:	48 89 c7             	mov    %rax,%rdi
    e629:	e8 c5 90 ff ff       	callq  76f3 <transparent_crc>
    e62e:	8b 05 ec 49 00 00    	mov    0x49ec(%rip),%eax        # 13020 <crc32_context>
    e634:	f7 d0                	not    %eax
    e636:	89 c2                	mov    %eax,%edx
    e638:	8b 45 fc             	mov    -0x4(%rbp),%eax
    e63b:	89 c6                	mov    %eax,%esi
    e63d:	89 d7                	mov    %edx,%edi
    e63f:	e8 50 7b ff ff       	callq  6194 <platform_main_end>
    e644:	b8 00 00 00 00       	mov    $0x0,%eax
    e649:	c9                   	leaveq 
    e64a:	c3                   	retq   
    e64b:	0f 1f 44 00 00       	nopl   0x0(%rax,%rax,1)

000000000000e650 <__libc_csu_init>:
    e650:	f3 0f 1e fa          	endbr64 
    e654:	41 57                	push   %r15
    e656:	4c 8d 3d 13 47 00 00 	lea    0x4713(%rip),%r15        # 12d70 <__frame_dummy_init_array_entry>
    e65d:	41 56                	push   %r14
    e65f:	49 89 d6             	mov    %rdx,%r14
    e662:	41 55                	push   %r13
    e664:	49 89 f5             	mov    %rsi,%r13
    e667:	41 54                	push   %r12
    e669:	41 89 fc             	mov    %edi,%r12d
    e66c:	55                   	push   %rbp
    e66d:	48 8d 2d 04 47 00 00 	lea    0x4704(%rip),%rbp        # 12d78 <__do_global_dtors_aux_fini_array_entry>
    e674:	53                   	push   %rbx
    e675:	4c 29 fd             	sub    %r15,%rbp
    e678:	48 83 ec 08          	sub    $0x8,%rsp
    e67c:	e8 7f 79 ff ff       	callq  6000 <_init>
    e681:	48 c1 fd 03          	sar    $0x3,%rbp
    e685:	74 1f                	je     e6a6 <__libc_csu_init+0x56>
    e687:	31 db                	xor    %ebx,%ebx
    e689:	0f 1f 80 00 00 00 00 	nopl   0x0(%rax)
    e690:	4c 89 f2             	mov    %r14,%rdx
    e693:	4c 89 ee             	mov    %r13,%rsi
    e696:	44 89 e7             	mov    %r12d,%edi
    e699:	41 ff 14 df          	callq  *(%r15,%rbx,8)
    e69d:	48 83 c3 01          	add    $0x1,%rbx
    e6a1:	48 39 dd             	cmp    %rbx,%rbp
    e6a4:	75 ea                	jne    e690 <__libc_csu_init+0x40>
    e6a6:	48 83 c4 08          	add    $0x8,%rsp
    e6aa:	5b                   	pop    %rbx
    e6ab:	5d                   	pop    %rbp
    e6ac:	41 5c                	pop    %r12
    e6ae:	41 5d                	pop    %r13
    e6b0:	41 5e                	pop    %r14
    e6b2:	41 5f                	pop    %r15
    e6b4:	c3                   	retq   
    e6b5:	66 66 2e 0f 1f 84 00 	data16 nopw %cs:0x0(%rax,%rax,1)
    e6bc:	00 00 00 00 

000000000000e6c0 <__libc_csu_fini>:
    e6c0:	f3 0f 1e fa          	endbr64 
    e6c4:	c3                   	retq   
