


Disassembly of section .text:

00000000000080a0 <_start>:
    80a0:	f3 0f 1e fa          	endbr64 
    80a4:	31 ed                	xor    %ebp,%ebp
    80a6:	49 89 d1             	mov    %rdx,%r9
    80a9:	5e                   	pop    %rsi
    80aa:	48 89 e2             	mov    %rsp,%rdx
    80ad:	48 83 e4 f0          	and    $0xfffffffffffffff0,%rsp
    80b1:	50                   	push   %rax
    80b2:	54                   	push   %rsp
    80b3:	4c 8d 05 e6 ce 00 00 	lea    0xcee6(%rip),%r8        # 14fa0 <__libc_csu_fini>
    80ba:	48 8d 0d 6f ce 00 00 	lea    0xce6f(%rip),%rcx        # 14f30 <__libc_csu_init>
    80c1:	48 8d 3d 0b ae 00 00 	lea    0xae0b(%rip),%rdi        # 12ed3 <main>
    80c8:	ff 15 12 0f 01 00    	callq  *0x10f12(%rip)        # 18fe0 <__libc_start_main@GLIBC_2.2.5>
    80ce:	f4                   	hlt    
    80cf:	90                   	nop

00000000000080d0 <deregister_tm_clones>:
    80d0:	48 8d 3d 71 46 01 00 	lea    0x14671(%rip),%rdi        # 1c748 <__TMC_END__>
    80d7:	48 8d 05 6a 46 01 00 	lea    0x1466a(%rip),%rax        # 1c748 <__TMC_END__>
    80de:	48 39 f8             	cmp    %rdi,%rax
    80e1:	74 15                	je     80f8 <deregister_tm_clones+0x28>
    80e3:	48 8b 05 ee 0e 01 00 	mov    0x10eee(%rip),%rax        # 18fd8 <_ITM_deregisterTMCloneTable>
    80ea:	48 85 c0             	test   %rax,%rax
    80ed:	74 09                	je     80f8 <deregister_tm_clones+0x28>
    80ef:	ff e0                	jmpq   *%rax
    80f1:	0f 1f 80 00 00 00 00 	nopl   0x0(%rax)
    80f8:	c3                   	retq   
    80f9:	0f 1f 80 00 00 00 00 	nopl   0x0(%rax)

0000000000008100 <register_tm_clones>:
    8100:	48 8d 3d 41 46 01 00 	lea    0x14641(%rip),%rdi        # 1c748 <__TMC_END__>
    8107:	48 8d 35 3a 46 01 00 	lea    0x1463a(%rip),%rsi        # 1c748 <__TMC_END__>
    810e:	48 29 fe             	sub    %rdi,%rsi
    8111:	48 89 f0             	mov    %rsi,%rax
    8114:	48 c1 ee 3f          	shr    $0x3f,%rsi
    8118:	48 c1 f8 03          	sar    $0x3,%rax
    811c:	48 01 c6             	add    %rax,%rsi
    811f:	48 d1 fe             	sar    %rsi
    8122:	74 14                	je     8138 <register_tm_clones+0x38>
    8124:	48 8b 05 c5 0e 01 00 	mov    0x10ec5(%rip),%rax        # 18ff0 <_ITM_registerTMCloneTable>
    812b:	48 85 c0             	test   %rax,%rax
    812e:	74 08                	je     8138 <register_tm_clones+0x38>
    8130:	ff e0                	jmpq   *%rax
    8132:	66 0f 1f 44 00 00    	nopw   0x0(%rax,%rax,1)
    8138:	c3                   	retq   
    8139:	0f 1f 80 00 00 00 00 	nopl   0x0(%rax)

0000000000008140 <__do_global_dtors_aux>:
    8140:	f3 0f 1e fa          	endbr64 
    8144:	80 3d 15 46 01 00 00 	cmpb   $0x0,0x14615(%rip)        # 1c760 <completed.8061>
    814b:	75 2b                	jne    8178 <__do_global_dtors_aux+0x38>
    814d:	55                   	push   %rbp
    814e:	48 83 3d a2 0e 01 00 	cmpq   $0x0,0x10ea2(%rip)        # 18ff8 <__cxa_finalize@GLIBC_2.2.5>
    8155:	00 
    8156:	48 89 e5             	mov    %rsp,%rbp
    8159:	74 0c                	je     8167 <__do_global_dtors_aux+0x27>
    815b:	48 8b 3d a6 0e 01 00 	mov    0x10ea6(%rip),%rdi        # 19008 <__dso_handle>
    8162:	e8 f9 fe ff ff       	callq  8060 <__cxa_finalize@plt>
    8167:	e8 64 ff ff ff       	callq  80d0 <deregister_tm_clones>
    816c:	c6 05 ed 45 01 00 01 	movb   $0x1,0x145ed(%rip)        # 1c760 <completed.8061>
    8173:	5d                   	pop    %rbp
    8174:	c3                   	retq   
    8175:	0f 1f 00             	nopl   (%rax)
    8178:	c3                   	retq   
    8179:	0f 1f 80 00 00 00 00 	nopl   0x0(%rax)

0000000000008180 <frame_dummy>:
    8180:	f3 0f 1e fa          	endbr64 
    8184:	e9 77 ff ff ff       	jmpq   8100 <register_tm_clones>

0000000000008189 <platform_main_begin>:
    8189:	f3 0f 1e fa          	endbr64 
    818d:	55                   	push   %rbp
    818e:	48 89 e5             	mov    %rsp,%rbp
    8191:	90                   	nop
    8192:	5d                   	pop    %rbp
    8193:	c3                   	retq   

0000000000008194 <platform_main_end>:
    8194:	f3 0f 1e fa          	endbr64 
    8198:	55                   	push   %rbp
    8199:	48 89 e5             	mov    %rsp,%rbp
    819c:	48 83 ec 10          	sub    $0x10,%rsp
    81a0:	89 7d fc             	mov    %edi,-0x4(%rbp)
    81a3:	89 75 f8             	mov    %esi,-0x8(%rbp)
    81a6:	8b 45 fc             	mov    -0x4(%rbp),%eax
    81a9:	89 c6                	mov    %eax,%esi
    81ab:	48 8d 3d 6e ce 00 00 	lea    0xce6e(%rip),%rdi        # 15020 <_IO_stdin_used+0x20>
    81b2:	b8 00 00 00 00       	mov    $0x0,%eax
    81b7:	e8 c4 fe ff ff       	callq  8080 <printf@plt>
    81bc:	90                   	nop
    81bd:	c9                   	leaveq 
    81be:	c3                   	retq   

00000000000081bf <safe_unary_minus_func_int8_t_s>:
    81bf:	f3 0f 1e fa          	endbr64 
    81c3:	55                   	push   %rbp
    81c4:	48 89 e5             	mov    %rsp,%rbp
    81c7:	89 f8                	mov    %edi,%eax
    81c9:	88 45 fc             	mov    %al,-0x4(%rbp)
    81cc:	0f b6 45 fc          	movzbl -0x4(%rbp),%eax
    81d0:	f7 d8                	neg    %eax
    81d2:	5d                   	pop    %rbp
    81d3:	c3                   	retq   

00000000000081d4 <safe_add_func_int8_t_s_s>:
    81d4:	f3 0f 1e fa          	endbr64 
    81d8:	55                   	push   %rbp
    81d9:	48 89 e5             	mov    %rsp,%rbp
    81dc:	89 fa                	mov    %edi,%edx
    81de:	89 f0                	mov    %esi,%eax
    81e0:	88 55 fc             	mov    %dl,-0x4(%rbp)
    81e3:	88 45 f8             	mov    %al,-0x8(%rbp)
    81e6:	0f b6 55 fc          	movzbl -0x4(%rbp),%edx
    81ea:	0f b6 45 f8          	movzbl -0x8(%rbp),%eax
    81ee:	01 d0                	add    %edx,%eax
    81f0:	5d                   	pop    %rbp
    81f1:	c3                   	retq   

00000000000081f2 <safe_sub_func_int8_t_s_s>:
    81f2:	f3 0f 1e fa          	endbr64 
    81f6:	55                   	push   %rbp
    81f7:	48 89 e5             	mov    %rsp,%rbp
    81fa:	89 fa                	mov    %edi,%edx
    81fc:	89 f0                	mov    %esi,%eax
    81fe:	88 55 fc             	mov    %dl,-0x4(%rbp)
    8201:	88 45 f8             	mov    %al,-0x8(%rbp)
    8204:	0f b6 55 fc          	movzbl -0x4(%rbp),%edx
    8208:	0f b6 45 f8          	movzbl -0x8(%rbp),%eax
    820c:	29 c2                	sub    %eax,%edx
    820e:	89 d0                	mov    %edx,%eax
    8210:	5d                   	pop    %rbp
    8211:	c3                   	retq   

0000000000008212 <safe_mul_func_int8_t_s_s>:
    8212:	f3 0f 1e fa          	endbr64 
    8216:	55                   	push   %rbp
    8217:	48 89 e5             	mov    %rsp,%rbp
    821a:	89 fa                	mov    %edi,%edx
    821c:	89 f0                	mov    %esi,%eax
    821e:	88 55 fc             	mov    %dl,-0x4(%rbp)
    8221:	88 45 f8             	mov    %al,-0x8(%rbp)
    8224:	0f b6 45 fc          	movzbl -0x4(%rbp),%eax
    8228:	0f b6 55 f8          	movzbl -0x8(%rbp),%edx
    822c:	0f af c2             	imul   %edx,%eax
    822f:	5d                   	pop    %rbp
    8230:	c3                   	retq   

0000000000008231 <safe_mod_func_int8_t_s_s>:
    8231:	f3 0f 1e fa          	endbr64 
    8235:	55                   	push   %rbp
    8236:	48 89 e5             	mov    %rsp,%rbp
    8239:	89 fa                	mov    %edi,%edx
    823b:	89 f0                	mov    %esi,%eax
    823d:	88 55 fc             	mov    %dl,-0x4(%rbp)
    8240:	88 45 f8             	mov    %al,-0x8(%rbp)
    8243:	80 7d f8 00          	cmpb   $0x0,-0x8(%rbp)
    8247:	74 1b                	je     8264 <safe_mod_func_int8_t_s_s+0x33>
    8249:	80 7d fc 80          	cmpb   $0x80,-0x4(%rbp)
    824d:	75 06                	jne    8255 <safe_mod_func_int8_t_s_s+0x24>
    824f:	80 7d f8 ff          	cmpb   $0xff,-0x8(%rbp)
    8253:	74 0f                	je     8264 <safe_mod_func_int8_t_s_s+0x33>
    8255:	0f be 45 fc          	movsbl -0x4(%rbp),%eax
    8259:	0f be 4d f8          	movsbl -0x8(%rbp),%ecx
    825d:	99                   	cltd   
    825e:	f7 f9                	idiv   %ecx
    8260:	89 d0                	mov    %edx,%eax
    8262:	eb 04                	jmp    8268 <safe_mod_func_int8_t_s_s+0x37>
    8264:	0f b6 45 fc          	movzbl -0x4(%rbp),%eax
    8268:	5d                   	pop    %rbp
    8269:	c3                   	retq   

000000000000826a <safe_div_func_int8_t_s_s>:
    826a:	f3 0f 1e fa          	endbr64 
    826e:	55                   	push   %rbp
    826f:	48 89 e5             	mov    %rsp,%rbp
    8272:	89 fa                	mov    %edi,%edx
    8274:	89 f0                	mov    %esi,%eax
    8276:	88 55 fc             	mov    %dl,-0x4(%rbp)
    8279:	88 45 f8             	mov    %al,-0x8(%rbp)
    827c:	80 7d f8 00          	cmpb   $0x0,-0x8(%rbp)
    8280:	74 19                	je     829b <safe_div_func_int8_t_s_s+0x31>
    8282:	80 7d fc 80          	cmpb   $0x80,-0x4(%rbp)
    8286:	75 06                	jne    828e <safe_div_func_int8_t_s_s+0x24>
    8288:	80 7d f8 ff          	cmpb   $0xff,-0x8(%rbp)
    828c:	74 0d                	je     829b <safe_div_func_int8_t_s_s+0x31>
    828e:	0f be 45 fc          	movsbl -0x4(%rbp),%eax
    8292:	0f be 4d f8          	movsbl -0x8(%rbp),%ecx
    8296:	99                   	cltd   
    8297:	f7 f9                	idiv   %ecx
    8299:	eb 04                	jmp    829f <safe_div_func_int8_t_s_s+0x35>
    829b:	0f b6 45 fc          	movzbl -0x4(%rbp),%eax
    829f:	5d                   	pop    %rbp
    82a0:	c3                   	retq   

00000000000082a1 <safe_lshift_func_int8_t_s_s>:
    82a1:	f3 0f 1e fa          	endbr64 
    82a5:	55                   	push   %rbp
    82a6:	48 89 e5             	mov    %rsp,%rbp
    82a9:	89 f8                	mov    %edi,%eax
    82ab:	89 75 f8             	mov    %esi,-0x8(%rbp)
    82ae:	88 45 fc             	mov    %al,-0x4(%rbp)
    82b1:	80 7d fc 00          	cmpb   $0x0,-0x4(%rbp)
    82b5:	78 31                	js     82e8 <safe_lshift_func_int8_t_s_s+0x47>
    82b7:	83 7d f8 00          	cmpl   $0x0,-0x8(%rbp)
    82bb:	78 2b                	js     82e8 <safe_lshift_func_int8_t_s_s+0x47>
    82bd:	83 7d f8 1f          	cmpl   $0x1f,-0x8(%rbp)
    82c1:	7f 25                	jg     82e8 <safe_lshift_func_int8_t_s_s+0x47>
    82c3:	0f be 55 fc          	movsbl -0x4(%rbp),%edx
    82c7:	8b 45 f8             	mov    -0x8(%rbp),%eax
    82ca:	be 7f 00 00 00       	mov    $0x7f,%esi
    82cf:	89 c1                	mov    %eax,%ecx
    82d1:	d3 fe                	sar    %cl,%esi
    82d3:	89 f0                	mov    %esi,%eax
    82d5:	39 c2                	cmp    %eax,%edx
    82d7:	7f 0f                	jg     82e8 <safe_lshift_func_int8_t_s_s+0x47>
    82d9:	0f be 55 fc          	movsbl -0x4(%rbp),%edx
    82dd:	8b 45 f8             	mov    -0x8(%rbp),%eax
    82e0:	89 c1                	mov    %eax,%ecx
    82e2:	d3 e2                	shl    %cl,%edx
    82e4:	89 d0                	mov    %edx,%eax
    82e6:	eb 04                	jmp    82ec <safe_lshift_func_int8_t_s_s+0x4b>
    82e8:	0f b6 45 fc          	movzbl -0x4(%rbp),%eax
    82ec:	5d                   	pop    %rbp
    82ed:	c3                   	retq   

00000000000082ee <safe_lshift_func_int8_t_s_u>:
    82ee:	f3 0f 1e fa          	endbr64 
    82f2:	55                   	push   %rbp
    82f3:	48 89 e5             	mov    %rsp,%rbp
    82f6:	89 f8                	mov    %edi,%eax
    82f8:	89 75 f8             	mov    %esi,-0x8(%rbp)
    82fb:	88 45 fc             	mov    %al,-0x4(%rbp)
    82fe:	80 7d fc 00          	cmpb   $0x0,-0x4(%rbp)
    8302:	78 2b                	js     832f <safe_lshift_func_int8_t_s_u+0x41>
    8304:	83 7d f8 1f          	cmpl   $0x1f,-0x8(%rbp)
    8308:	77 25                	ja     832f <safe_lshift_func_int8_t_s_u+0x41>
    830a:	0f be 55 fc          	movsbl -0x4(%rbp),%edx
    830e:	8b 45 f8             	mov    -0x8(%rbp),%eax
    8311:	be 7f 00 00 00       	mov    $0x7f,%esi
    8316:	89 c1                	mov    %eax,%ecx
    8318:	d3 fe                	sar    %cl,%esi
    831a:	89 f0                	mov    %esi,%eax
    831c:	39 c2                	cmp    %eax,%edx
    831e:	7f 0f                	jg     832f <safe_lshift_func_int8_t_s_u+0x41>
    8320:	0f be 55 fc          	movsbl -0x4(%rbp),%edx
    8324:	8b 45 f8             	mov    -0x8(%rbp),%eax
    8327:	89 c1                	mov    %eax,%ecx
    8329:	d3 e2                	shl    %cl,%edx
    832b:	89 d0                	mov    %edx,%eax
    832d:	eb 04                	jmp    8333 <safe_lshift_func_int8_t_s_u+0x45>
    832f:	0f b6 45 fc          	movzbl -0x4(%rbp),%eax
    8333:	5d                   	pop    %rbp
    8334:	c3                   	retq   

0000000000008335 <safe_rshift_func_int8_t_s_s>:
    8335:	f3 0f 1e fa          	endbr64 
    8339:	55                   	push   %rbp
    833a:	48 89 e5             	mov    %rsp,%rbp
    833d:	89 f8                	mov    %edi,%eax
    833f:	89 75 f8             	mov    %esi,-0x8(%rbp)
    8342:	88 45 fc             	mov    %al,-0x4(%rbp)
    8345:	80 7d fc 00          	cmpb   $0x0,-0x4(%rbp)
    8349:	78 1b                	js     8366 <safe_rshift_func_int8_t_s_s+0x31>
    834b:	83 7d f8 00          	cmpl   $0x0,-0x8(%rbp)
    834f:	78 15                	js     8366 <safe_rshift_func_int8_t_s_s+0x31>
    8351:	83 7d f8 1f          	cmpl   $0x1f,-0x8(%rbp)
    8355:	7f 0f                	jg     8366 <safe_rshift_func_int8_t_s_s+0x31>
    8357:	0f be 55 fc          	movsbl -0x4(%rbp),%edx
    835b:	8b 45 f8             	mov    -0x8(%rbp),%eax
    835e:	89 c1                	mov    %eax,%ecx
    8360:	d3 fa                	sar    %cl,%edx
    8362:	89 d0                	mov    %edx,%eax
    8364:	eb 04                	jmp    836a <safe_rshift_func_int8_t_s_s+0x35>
    8366:	0f b6 45 fc          	movzbl -0x4(%rbp),%eax
    836a:	5d                   	pop    %rbp
    836b:	c3                   	retq   

000000000000836c <safe_rshift_func_int8_t_s_u>:
    836c:	f3 0f 1e fa          	endbr64 
    8370:	55                   	push   %rbp
    8371:	48 89 e5             	mov    %rsp,%rbp
    8374:	89 f8                	mov    %edi,%eax
    8376:	89 75 f8             	mov    %esi,-0x8(%rbp)
    8379:	88 45 fc             	mov    %al,-0x4(%rbp)
    837c:	80 7d fc 00          	cmpb   $0x0,-0x4(%rbp)
    8380:	78 15                	js     8397 <safe_rshift_func_int8_t_s_u+0x2b>
    8382:	83 7d f8 1f          	cmpl   $0x1f,-0x8(%rbp)
    8386:	77 0f                	ja     8397 <safe_rshift_func_int8_t_s_u+0x2b>
    8388:	0f be 55 fc          	movsbl -0x4(%rbp),%edx
    838c:	8b 45 f8             	mov    -0x8(%rbp),%eax
    838f:	89 c1                	mov    %eax,%ecx
    8391:	d3 fa                	sar    %cl,%edx
    8393:	89 d0                	mov    %edx,%eax
    8395:	eb 04                	jmp    839b <safe_rshift_func_int8_t_s_u+0x2f>
    8397:	0f b6 45 fc          	movzbl -0x4(%rbp),%eax
    839b:	5d                   	pop    %rbp
    839c:	c3                   	retq   

000000000000839d <safe_unary_minus_func_int16_t_s>:
    839d:	f3 0f 1e fa          	endbr64 
    83a1:	55                   	push   %rbp
    83a2:	48 89 e5             	mov    %rsp,%rbp
    83a5:	89 f8                	mov    %edi,%eax
    83a7:	66 89 45 fc          	mov    %ax,-0x4(%rbp)
    83ab:	0f b7 45 fc          	movzwl -0x4(%rbp),%eax
    83af:	f7 d8                	neg    %eax
    83b1:	5d                   	pop    %rbp
    83b2:	c3                   	retq   

00000000000083b3 <safe_add_func_int16_t_s_s>:
    83b3:	f3 0f 1e fa          	endbr64 
    83b7:	55                   	push   %rbp
    83b8:	48 89 e5             	mov    %rsp,%rbp
    83bb:	89 fa                	mov    %edi,%edx
    83bd:	89 f0                	mov    %esi,%eax
    83bf:	66 89 55 fc          	mov    %dx,-0x4(%rbp)
    83c3:	66 89 45 f8          	mov    %ax,-0x8(%rbp)
    83c7:	0f b7 55 fc          	movzwl -0x4(%rbp),%edx
    83cb:	0f b7 45 f8          	movzwl -0x8(%rbp),%eax
    83cf:	01 d0                	add    %edx,%eax
    83d1:	5d                   	pop    %rbp
    83d2:	c3                   	retq   

00000000000083d3 <safe_sub_func_int16_t_s_s>:
    83d3:	f3 0f 1e fa          	endbr64 
    83d7:	55                   	push   %rbp
    83d8:	48 89 e5             	mov    %rsp,%rbp
    83db:	89 fa                	mov    %edi,%edx
    83dd:	89 f0                	mov    %esi,%eax
    83df:	66 89 55 fc          	mov    %dx,-0x4(%rbp)
    83e3:	66 89 45 f8          	mov    %ax,-0x8(%rbp)
    83e7:	0f b7 55 fc          	movzwl -0x4(%rbp),%edx
    83eb:	0f b7 45 f8          	movzwl -0x8(%rbp),%eax
    83ef:	29 c2                	sub    %eax,%edx
    83f1:	89 d0                	mov    %edx,%eax
    83f3:	5d                   	pop    %rbp
    83f4:	c3                   	retq   

00000000000083f5 <safe_mul_func_int16_t_s_s>:
    83f5:	f3 0f 1e fa          	endbr64 
    83f9:	55                   	push   %rbp
    83fa:	48 89 e5             	mov    %rsp,%rbp
    83fd:	89 fa                	mov    %edi,%edx
    83ff:	89 f0                	mov    %esi,%eax
    8401:	66 89 55 fc          	mov    %dx,-0x4(%rbp)
    8405:	66 89 45 f8          	mov    %ax,-0x8(%rbp)
    8409:	0f b7 55 fc          	movzwl -0x4(%rbp),%edx
    840d:	0f b7 45 f8          	movzwl -0x8(%rbp),%eax
    8411:	0f af c2             	imul   %edx,%eax
    8414:	5d                   	pop    %rbp
    8415:	c3                   	retq   

0000000000008416 <safe_mod_func_int16_t_s_s>:
    8416:	f3 0f 1e fa          	endbr64 
    841a:	55                   	push   %rbp
    841b:	48 89 e5             	mov    %rsp,%rbp
    841e:	89 fa                	mov    %edi,%edx
    8420:	89 f0                	mov    %esi,%eax
    8422:	66 89 55 fc          	mov    %dx,-0x4(%rbp)
    8426:	66 89 45 f8          	mov    %ax,-0x8(%rbp)
    842a:	66 83 7d f8 00       	cmpw   $0x0,-0x8(%rbp)
    842f:	74 1e                	je     844f <safe_mod_func_int16_t_s_s+0x39>
    8431:	66 81 7d fc 00 80    	cmpw   $0x8000,-0x4(%rbp)
    8437:	75 07                	jne    8440 <safe_mod_func_int16_t_s_s+0x2a>
    8439:	66 83 7d f8 ff       	cmpw   $0xffff,-0x8(%rbp)
    843e:	74 0f                	je     844f <safe_mod_func_int16_t_s_s+0x39>
    8440:	0f bf 45 fc          	movswl -0x4(%rbp),%eax
    8444:	0f bf 4d f8          	movswl -0x8(%rbp),%ecx
    8448:	99                   	cltd   
    8449:	f7 f9                	idiv   %ecx
    844b:	89 d0                	mov    %edx,%eax
    844d:	eb 04                	jmp    8453 <safe_mod_func_int16_t_s_s+0x3d>
    844f:	0f b7 45 fc          	movzwl -0x4(%rbp),%eax
    8453:	5d                   	pop    %rbp
    8454:	c3                   	retq   

0000000000008455 <safe_div_func_int16_t_s_s>:
    8455:	f3 0f 1e fa          	endbr64 
    8459:	55                   	push   %rbp
    845a:	48 89 e5             	mov    %rsp,%rbp
    845d:	89 fa                	mov    %edi,%edx
    845f:	89 f0                	mov    %esi,%eax
    8461:	66 89 55 fc          	mov    %dx,-0x4(%rbp)
    8465:	66 89 45 f8          	mov    %ax,-0x8(%rbp)
    8469:	66 83 7d f8 00       	cmpw   $0x0,-0x8(%rbp)
    846e:	74 1c                	je     848c <safe_div_func_int16_t_s_s+0x37>
    8470:	66 81 7d fc 00 80    	cmpw   $0x8000,-0x4(%rbp)
    8476:	75 07                	jne    847f <safe_div_func_int16_t_s_s+0x2a>
    8478:	66 83 7d f8 ff       	cmpw   $0xffff,-0x8(%rbp)
    847d:	74 0d                	je     848c <safe_div_func_int16_t_s_s+0x37>
    847f:	0f bf 45 fc          	movswl -0x4(%rbp),%eax
    8483:	0f bf 4d f8          	movswl -0x8(%rbp),%ecx
    8487:	99                   	cltd   
    8488:	f7 f9                	idiv   %ecx
    848a:	eb 04                	jmp    8490 <safe_div_func_int16_t_s_s+0x3b>
    848c:	0f b7 45 fc          	movzwl -0x4(%rbp),%eax
    8490:	5d                   	pop    %rbp
    8491:	c3                   	retq   

0000000000008492 <safe_lshift_func_int16_t_s_s>:
    8492:	f3 0f 1e fa          	endbr64 
    8496:	55                   	push   %rbp
    8497:	48 89 e5             	mov    %rsp,%rbp
    849a:	89 f8                	mov    %edi,%eax
    849c:	89 75 f8             	mov    %esi,-0x8(%rbp)
    849f:	66 89 45 fc          	mov    %ax,-0x4(%rbp)
    84a3:	66 83 7d fc 00       	cmpw   $0x0,-0x4(%rbp)
    84a8:	78 31                	js     84db <safe_lshift_func_int16_t_s_s+0x49>
    84aa:	83 7d f8 00          	cmpl   $0x0,-0x8(%rbp)
    84ae:	78 2b                	js     84db <safe_lshift_func_int16_t_s_s+0x49>
    84b0:	83 7d f8 1f          	cmpl   $0x1f,-0x8(%rbp)
    84b4:	7f 25                	jg     84db <safe_lshift_func_int16_t_s_s+0x49>
    84b6:	0f bf 55 fc          	movswl -0x4(%rbp),%edx
    84ba:	8b 45 f8             	mov    -0x8(%rbp),%eax
    84bd:	be ff 7f 00 00       	mov    $0x7fff,%esi
    84c2:	89 c1                	mov    %eax,%ecx
    84c4:	d3 fe                	sar    %cl,%esi
    84c6:	89 f0                	mov    %esi,%eax
    84c8:	39 c2                	cmp    %eax,%edx
    84ca:	7f 0f                	jg     84db <safe_lshift_func_int16_t_s_s+0x49>
    84cc:	0f bf 55 fc          	movswl -0x4(%rbp),%edx
    84d0:	8b 45 f8             	mov    -0x8(%rbp),%eax
    84d3:	89 c1                	mov    %eax,%ecx
    84d5:	d3 e2                	shl    %cl,%edx
    84d7:	89 d0                	mov    %edx,%eax
    84d9:	eb 04                	jmp    84df <safe_lshift_func_int16_t_s_s+0x4d>
    84db:	0f b7 45 fc          	movzwl -0x4(%rbp),%eax
    84df:	5d                   	pop    %rbp
    84e0:	c3                   	retq   

00000000000084e1 <safe_lshift_func_int16_t_s_u>:
    84e1:	f3 0f 1e fa          	endbr64 
    84e5:	55                   	push   %rbp
    84e6:	48 89 e5             	mov    %rsp,%rbp
    84e9:	89 f8                	mov    %edi,%eax
    84eb:	89 75 f8             	mov    %esi,-0x8(%rbp)
    84ee:	66 89 45 fc          	mov    %ax,-0x4(%rbp)
    84f2:	66 83 7d fc 00       	cmpw   $0x0,-0x4(%rbp)
    84f7:	78 2b                	js     8524 <safe_lshift_func_int16_t_s_u+0x43>
    84f9:	83 7d f8 1f          	cmpl   $0x1f,-0x8(%rbp)
    84fd:	77 25                	ja     8524 <safe_lshift_func_int16_t_s_u+0x43>
    84ff:	0f bf 55 fc          	movswl -0x4(%rbp),%edx
    8503:	8b 45 f8             	mov    -0x8(%rbp),%eax
    8506:	be ff 7f 00 00       	mov    $0x7fff,%esi
    850b:	89 c1                	mov    %eax,%ecx
    850d:	d3 fe                	sar    %cl,%esi
    850f:	89 f0                	mov    %esi,%eax
    8511:	39 c2                	cmp    %eax,%edx
    8513:	7f 0f                	jg     8524 <safe_lshift_func_int16_t_s_u+0x43>
    8515:	0f bf 55 fc          	movswl -0x4(%rbp),%edx
    8519:	8b 45 f8             	mov    -0x8(%rbp),%eax
    851c:	89 c1                	mov    %eax,%ecx
    851e:	d3 e2                	shl    %cl,%edx
    8520:	89 d0                	mov    %edx,%eax
    8522:	eb 04                	jmp    8528 <safe_lshift_func_int16_t_s_u+0x47>
    8524:	0f b7 45 fc          	movzwl -0x4(%rbp),%eax
    8528:	5d                   	pop    %rbp
    8529:	c3                   	retq   

000000000000852a <safe_rshift_func_int16_t_s_s>:
    852a:	f3 0f 1e fa          	endbr64 
    852e:	55                   	push   %rbp
    852f:	48 89 e5             	mov    %rsp,%rbp
    8532:	89 f8                	mov    %edi,%eax
    8534:	89 75 f8             	mov    %esi,-0x8(%rbp)
    8537:	66 89 45 fc          	mov    %ax,-0x4(%rbp)
    853b:	66 83 7d fc 00       	cmpw   $0x0,-0x4(%rbp)
    8540:	78 1b                	js     855d <safe_rshift_func_int16_t_s_s+0x33>
    8542:	83 7d f8 00          	cmpl   $0x0,-0x8(%rbp)
    8546:	78 15                	js     855d <safe_rshift_func_int16_t_s_s+0x33>
    8548:	83 7d f8 1f          	cmpl   $0x1f,-0x8(%rbp)
    854c:	7f 0f                	jg     855d <safe_rshift_func_int16_t_s_s+0x33>
    854e:	0f bf 55 fc          	movswl -0x4(%rbp),%edx
    8552:	8b 45 f8             	mov    -0x8(%rbp),%eax
    8555:	89 c1                	mov    %eax,%ecx
    8557:	d3 fa                	sar    %cl,%edx
    8559:	89 d0                	mov    %edx,%eax
    855b:	eb 04                	jmp    8561 <safe_rshift_func_int16_t_s_s+0x37>
    855d:	0f b7 45 fc          	movzwl -0x4(%rbp),%eax
    8561:	5d                   	pop    %rbp
    8562:	c3                   	retq   

0000000000008563 <safe_rshift_func_int16_t_s_u>:
    8563:	f3 0f 1e fa          	endbr64 
    8567:	55                   	push   %rbp
    8568:	48 89 e5             	mov    %rsp,%rbp
    856b:	89 f8                	mov    %edi,%eax
    856d:	89 75 f8             	mov    %esi,-0x8(%rbp)
    8570:	66 89 45 fc          	mov    %ax,-0x4(%rbp)
    8574:	66 83 7d fc 00       	cmpw   $0x0,-0x4(%rbp)
    8579:	78 15                	js     8590 <safe_rshift_func_int16_t_s_u+0x2d>
    857b:	83 7d f8 1f          	cmpl   $0x1f,-0x8(%rbp)
    857f:	77 0f                	ja     8590 <safe_rshift_func_int16_t_s_u+0x2d>
    8581:	0f bf 55 fc          	movswl -0x4(%rbp),%edx
    8585:	8b 45 f8             	mov    -0x8(%rbp),%eax
    8588:	89 c1                	mov    %eax,%ecx
    858a:	d3 fa                	sar    %cl,%edx
    858c:	89 d0                	mov    %edx,%eax
    858e:	eb 04                	jmp    8594 <safe_rshift_func_int16_t_s_u+0x31>
    8590:	0f b7 45 fc          	movzwl -0x4(%rbp),%eax
    8594:	5d                   	pop    %rbp
    8595:	c3                   	retq   

0000000000008596 <safe_unary_minus_func_int32_t_s>:
    8596:	f3 0f 1e fa          	endbr64 
    859a:	55                   	push   %rbp
    859b:	48 89 e5             	mov    %rsp,%rbp
    859e:	89 7d fc             	mov    %edi,-0x4(%rbp)
    85a1:	81 7d fc 00 00 00 80 	cmpl   $0x80000000,-0x4(%rbp)
    85a8:	74 07                	je     85b1 <safe_unary_minus_func_int32_t_s+0x1b>
    85aa:	8b 45 fc             	mov    -0x4(%rbp),%eax
    85ad:	f7 d8                	neg    %eax
    85af:	eb 03                	jmp    85b4 <safe_unary_minus_func_int32_t_s+0x1e>
    85b1:	8b 45 fc             	mov    -0x4(%rbp),%eax
    85b4:	5d                   	pop    %rbp
    85b5:	c3                   	retq   

00000000000085b6 <safe_add_func_int32_t_s_s>:
    85b6:	f3 0f 1e fa          	endbr64 
    85ba:	55                   	push   %rbp
    85bb:	48 89 e5             	mov    %rsp,%rbp
    85be:	89 7d fc             	mov    %edi,-0x4(%rbp)
    85c1:	89 75 f8             	mov    %esi,-0x8(%rbp)
    85c4:	83 7d fc 00          	cmpl   $0x0,-0x4(%rbp)
    85c8:	7e 13                	jle    85dd <safe_add_func_int32_t_s_s+0x27>
    85ca:	83 7d f8 00          	cmpl   $0x0,-0x8(%rbp)
    85ce:	7e 0d                	jle    85dd <safe_add_func_int32_t_s_s+0x27>
    85d0:	b8 ff ff ff 7f       	mov    $0x7fffffff,%eax
    85d5:	2b 45 f8             	sub    -0x8(%rbp),%eax
    85d8:	39 45 fc             	cmp    %eax,-0x4(%rbp)
    85db:	7f 23                	jg     8600 <safe_add_func_int32_t_s_s+0x4a>
    85dd:	83 7d fc 00          	cmpl   $0x0,-0x4(%rbp)
    85e1:	79 13                	jns    85f6 <safe_add_func_int32_t_s_s+0x40>
    85e3:	83 7d f8 00          	cmpl   $0x0,-0x8(%rbp)
    85e7:	79 0d                	jns    85f6 <safe_add_func_int32_t_s_s+0x40>
    85e9:	b8 00 00 00 80       	mov    $0x80000000,%eax
    85ee:	2b 45 f8             	sub    -0x8(%rbp),%eax
    85f1:	39 45 fc             	cmp    %eax,-0x4(%rbp)
    85f4:	7c 0a                	jl     8600 <safe_add_func_int32_t_s_s+0x4a>
    85f6:	8b 55 fc             	mov    -0x4(%rbp),%edx
    85f9:	8b 45 f8             	mov    -0x8(%rbp),%eax
    85fc:	01 d0                	add    %edx,%eax
    85fe:	eb 03                	jmp    8603 <safe_add_func_int32_t_s_s+0x4d>
    8600:	8b 45 fc             	mov    -0x4(%rbp),%eax
    8603:	5d                   	pop    %rbp
    8604:	c3                   	retq   

0000000000008605 <safe_sub_func_int32_t_s_s>:
    8605:	f3 0f 1e fa          	endbr64 
    8609:	55                   	push   %rbp
    860a:	48 89 e5             	mov    %rsp,%rbp
    860d:	89 7d fc             	mov    %edi,-0x4(%rbp)
    8610:	89 75 f8             	mov    %esi,-0x8(%rbp)
    8613:	8b 45 fc             	mov    -0x4(%rbp),%eax
    8616:	33 45 f8             	xor    -0x8(%rbp),%eax
    8619:	89 c2                	mov    %eax,%edx
    861b:	8b 45 fc             	mov    -0x4(%rbp),%eax
    861e:	33 45 f8             	xor    -0x8(%rbp),%eax
    8621:	25 00 00 00 80       	and    $0x80000000,%eax
    8626:	33 45 fc             	xor    -0x4(%rbp),%eax
    8629:	2b 45 f8             	sub    -0x8(%rbp),%eax
    862c:	33 45 f8             	xor    -0x8(%rbp),%eax
    862f:	21 d0                	and    %edx,%eax
    8631:	85 c0                	test   %eax,%eax
    8633:	78 08                	js     863d <safe_sub_func_int32_t_s_s+0x38>
    8635:	8b 45 fc             	mov    -0x4(%rbp),%eax
    8638:	2b 45 f8             	sub    -0x8(%rbp),%eax
    863b:	eb 03                	jmp    8640 <safe_sub_func_int32_t_s_s+0x3b>
    863d:	8b 45 fc             	mov    -0x4(%rbp),%eax
    8640:	5d                   	pop    %rbp
    8641:	c3                   	retq   

0000000000008642 <safe_mul_func_int32_t_s_s>:
    8642:	f3 0f 1e fa          	endbr64 
    8646:	55                   	push   %rbp
    8647:	48 89 e5             	mov    %rsp,%rbp
    864a:	89 7d fc             	mov    %edi,-0x4(%rbp)
    864d:	89 75 f8             	mov    %esi,-0x8(%rbp)
    8650:	83 7d fc 00          	cmpl   $0x0,-0x4(%rbp)
    8654:	7e 14                	jle    866a <safe_mul_func_int32_t_s_s+0x28>
    8656:	83 7d f8 00          	cmpl   $0x0,-0x8(%rbp)
    865a:	7e 0e                	jle    866a <safe_mul_func_int32_t_s_s+0x28>
    865c:	b8 ff ff ff 7f       	mov    $0x7fffffff,%eax
    8661:	99                   	cltd   
    8662:	f7 7d f8             	idivl  -0x8(%rbp)
    8665:	39 45 fc             	cmp    %eax,-0x4(%rbp)
    8668:	7f 5d                	jg     86c7 <safe_mul_func_int32_t_s_s+0x85>
    866a:	83 7d fc 00          	cmpl   $0x0,-0x4(%rbp)
    866e:	7e 14                	jle    8684 <safe_mul_func_int32_t_s_s+0x42>
    8670:	83 7d f8 00          	cmpl   $0x0,-0x8(%rbp)
    8674:	7f 0e                	jg     8684 <safe_mul_func_int32_t_s_s+0x42>
    8676:	b8 00 00 00 80       	mov    $0x80000000,%eax
    867b:	99                   	cltd   
    867c:	f7 7d fc             	idivl  -0x4(%rbp)
    867f:	39 45 f8             	cmp    %eax,-0x8(%rbp)
    8682:	7c 43                	jl     86c7 <safe_mul_func_int32_t_s_s+0x85>
    8684:	83 7d fc 00          	cmpl   $0x0,-0x4(%rbp)
    8688:	7f 14                	jg     869e <safe_mul_func_int32_t_s_s+0x5c>
    868a:	83 7d f8 00          	cmpl   $0x0,-0x8(%rbp)
    868e:	7e 0e                	jle    869e <safe_mul_func_int32_t_s_s+0x5c>
    8690:	b8 00 00 00 80       	mov    $0x80000000,%eax
    8695:	99                   	cltd   
    8696:	f7 7d f8             	idivl  -0x8(%rbp)
    8699:	39 45 fc             	cmp    %eax,-0x4(%rbp)
    869c:	7c 29                	jl     86c7 <safe_mul_func_int32_t_s_s+0x85>
    869e:	83 7d fc 00          	cmpl   $0x0,-0x4(%rbp)
    86a2:	7f 1a                	jg     86be <safe_mul_func_int32_t_s_s+0x7c>
    86a4:	83 7d f8 00          	cmpl   $0x0,-0x8(%rbp)
    86a8:	7f 14                	jg     86be <safe_mul_func_int32_t_s_s+0x7c>
    86aa:	83 7d fc 00          	cmpl   $0x0,-0x4(%rbp)
    86ae:	74 0e                	je     86be <safe_mul_func_int32_t_s_s+0x7c>
    86b0:	b8 ff ff ff 7f       	mov    $0x7fffffff,%eax
    86b5:	99                   	cltd   
    86b6:	f7 7d fc             	idivl  -0x4(%rbp)
    86b9:	39 45 f8             	cmp    %eax,-0x8(%rbp)
    86bc:	7c 09                	jl     86c7 <safe_mul_func_int32_t_s_s+0x85>
    86be:	8b 45 fc             	mov    -0x4(%rbp),%eax
    86c1:	0f af 45 f8          	imul   -0x8(%rbp),%eax
    86c5:	eb 03                	jmp    86ca <safe_mul_func_int32_t_s_s+0x88>
    86c7:	8b 45 fc             	mov    -0x4(%rbp),%eax
    86ca:	5d                   	pop    %rbp
    86cb:	c3                   	retq   

00000000000086cc <safe_mod_func_int32_t_s_s>:
    86cc:	f3 0f 1e fa          	endbr64 
    86d0:	55                   	push   %rbp
    86d1:	48 89 e5             	mov    %rsp,%rbp
    86d4:	89 7d fc             	mov    %edi,-0x4(%rbp)
    86d7:	89 75 f8             	mov    %esi,-0x8(%rbp)
    86da:	83 7d f8 00          	cmpl   $0x0,-0x8(%rbp)
    86de:	74 1a                	je     86fa <safe_mod_func_int32_t_s_s+0x2e>
    86e0:	81 7d fc 00 00 00 80 	cmpl   $0x80000000,-0x4(%rbp)
    86e7:	75 06                	jne    86ef <safe_mod_func_int32_t_s_s+0x23>
    86e9:	83 7d f8 ff          	cmpl   $0xffffffff,-0x8(%rbp)
    86ed:	74 0b                	je     86fa <safe_mod_func_int32_t_s_s+0x2e>
    86ef:	8b 45 fc             	mov    -0x4(%rbp),%eax
    86f2:	99                   	cltd   
    86f3:	f7 7d f8             	idivl  -0x8(%rbp)
    86f6:	89 d0                	mov    %edx,%eax
    86f8:	eb 03                	jmp    86fd <safe_mod_func_int32_t_s_s+0x31>
    86fa:	8b 45 fc             	mov    -0x4(%rbp),%eax
    86fd:	5d                   	pop    %rbp
    86fe:	c3                   	retq   

00000000000086ff <safe_div_func_int32_t_s_s>:
    86ff:	f3 0f 1e fa          	endbr64 
    8703:	55                   	push   %rbp
    8704:	48 89 e5             	mov    %rsp,%rbp
    8707:	89 7d fc             	mov    %edi,-0x4(%rbp)
    870a:	89 75 f8             	mov    %esi,-0x8(%rbp)
    870d:	83 7d f8 00          	cmpl   $0x0,-0x8(%rbp)
    8711:	74 18                	je     872b <safe_div_func_int32_t_s_s+0x2c>
    8713:	81 7d fc 00 00 00 80 	cmpl   $0x80000000,-0x4(%rbp)
    871a:	75 06                	jne    8722 <safe_div_func_int32_t_s_s+0x23>
    871c:	83 7d f8 ff          	cmpl   $0xffffffff,-0x8(%rbp)
    8720:	74 09                	je     872b <safe_div_func_int32_t_s_s+0x2c>
    8722:	8b 45 fc             	mov    -0x4(%rbp),%eax
    8725:	99                   	cltd   
    8726:	f7 7d f8             	idivl  -0x8(%rbp)
    8729:	eb 03                	jmp    872e <safe_div_func_int32_t_s_s+0x2f>
    872b:	8b 45 fc             	mov    -0x4(%rbp),%eax
    872e:	5d                   	pop    %rbp
    872f:	c3                   	retq   

0000000000008730 <safe_lshift_func_int32_t_s_s>:
    8730:	f3 0f 1e fa          	endbr64 
    8734:	55                   	push   %rbp
    8735:	48 89 e5             	mov    %rsp,%rbp
    8738:	89 7d fc             	mov    %edi,-0x4(%rbp)
    873b:	89 75 f8             	mov    %esi,-0x8(%rbp)
    873e:	83 7d fc 00          	cmpl   $0x0,-0x4(%rbp)
    8742:	78 2d                	js     8771 <safe_lshift_func_int32_t_s_s+0x41>
    8744:	83 7d f8 00          	cmpl   $0x0,-0x8(%rbp)
    8748:	78 27                	js     8771 <safe_lshift_func_int32_t_s_s+0x41>
    874a:	83 7d f8 1f          	cmpl   $0x1f,-0x8(%rbp)
    874e:	7f 21                	jg     8771 <safe_lshift_func_int32_t_s_s+0x41>
    8750:	8b 45 f8             	mov    -0x8(%rbp),%eax
    8753:	ba ff ff ff 7f       	mov    $0x7fffffff,%edx
    8758:	89 c1                	mov    %eax,%ecx
    875a:	d3 fa                	sar    %cl,%edx
    875c:	89 d0                	mov    %edx,%eax
    875e:	39 45 fc             	cmp    %eax,-0x4(%rbp)
    8761:	7f 0e                	jg     8771 <safe_lshift_func_int32_t_s_s+0x41>
    8763:	8b 45 f8             	mov    -0x8(%rbp),%eax
    8766:	8b 55 fc             	mov    -0x4(%rbp),%edx
    8769:	89 c1                	mov    %eax,%ecx
    876b:	d3 e2                	shl    %cl,%edx
    876d:	89 d0                	mov    %edx,%eax
    876f:	eb 03                	jmp    8774 <safe_lshift_func_int32_t_s_s+0x44>
    8771:	8b 45 fc             	mov    -0x4(%rbp),%eax
    8774:	5d                   	pop    %rbp
    8775:	c3                   	retq   

0000000000008776 <safe_lshift_func_int32_t_s_u>:
    8776:	f3 0f 1e fa          	endbr64 
    877a:	55                   	push   %rbp
    877b:	48 89 e5             	mov    %rsp,%rbp
    877e:	89 7d fc             	mov    %edi,-0x4(%rbp)
    8781:	89 75 f8             	mov    %esi,-0x8(%rbp)
    8784:	83 7d fc 00          	cmpl   $0x0,-0x4(%rbp)
    8788:	78 27                	js     87b1 <safe_lshift_func_int32_t_s_u+0x3b>
    878a:	83 7d f8 1f          	cmpl   $0x1f,-0x8(%rbp)
    878e:	77 21                	ja     87b1 <safe_lshift_func_int32_t_s_u+0x3b>
    8790:	8b 45 f8             	mov    -0x8(%rbp),%eax
    8793:	ba ff ff ff 7f       	mov    $0x7fffffff,%edx
    8798:	89 c1                	mov    %eax,%ecx
    879a:	d3 fa                	sar    %cl,%edx
    879c:	89 d0                	mov    %edx,%eax
    879e:	39 45 fc             	cmp    %eax,-0x4(%rbp)
    87a1:	7f 0e                	jg     87b1 <safe_lshift_func_int32_t_s_u+0x3b>
    87a3:	8b 45 f8             	mov    -0x8(%rbp),%eax
    87a6:	8b 55 fc             	mov    -0x4(%rbp),%edx
    87a9:	89 c1                	mov    %eax,%ecx
    87ab:	d3 e2                	shl    %cl,%edx
    87ad:	89 d0                	mov    %edx,%eax
    87af:	eb 03                	jmp    87b4 <safe_lshift_func_int32_t_s_u+0x3e>
    87b1:	8b 45 fc             	mov    -0x4(%rbp),%eax
    87b4:	5d                   	pop    %rbp
    87b5:	c3                   	retq   

00000000000087b6 <safe_rshift_func_int32_t_s_s>:
    87b6:	f3 0f 1e fa          	endbr64 
    87ba:	55                   	push   %rbp
    87bb:	48 89 e5             	mov    %rsp,%rbp
    87be:	89 7d fc             	mov    %edi,-0x4(%rbp)
    87c1:	89 75 f8             	mov    %esi,-0x8(%rbp)
    87c4:	83 7d fc 00          	cmpl   $0x0,-0x4(%rbp)
    87c8:	78 1a                	js     87e4 <safe_rshift_func_int32_t_s_s+0x2e>
    87ca:	83 7d f8 00          	cmpl   $0x0,-0x8(%rbp)
    87ce:	78 14                	js     87e4 <safe_rshift_func_int32_t_s_s+0x2e>
    87d0:	83 7d f8 1f          	cmpl   $0x1f,-0x8(%rbp)
    87d4:	7f 0e                	jg     87e4 <safe_rshift_func_int32_t_s_s+0x2e>
    87d6:	8b 45 f8             	mov    -0x8(%rbp),%eax
    87d9:	8b 55 fc             	mov    -0x4(%rbp),%edx
    87dc:	89 c1                	mov    %eax,%ecx
    87de:	d3 fa                	sar    %cl,%edx
    87e0:	89 d0                	mov    %edx,%eax
    87e2:	eb 03                	jmp    87e7 <safe_rshift_func_int32_t_s_s+0x31>
    87e4:	8b 45 fc             	mov    -0x4(%rbp),%eax
    87e7:	5d                   	pop    %rbp
    87e8:	c3                   	retq   

00000000000087e9 <safe_rshift_func_int32_t_s_u>:
    87e9:	f3 0f 1e fa          	endbr64 
    87ed:	55                   	push   %rbp
    87ee:	48 89 e5             	mov    %rsp,%rbp
    87f1:	89 7d fc             	mov    %edi,-0x4(%rbp)
    87f4:	89 75 f8             	mov    %esi,-0x8(%rbp)
    87f7:	83 7d fc 00          	cmpl   $0x0,-0x4(%rbp)
    87fb:	78 14                	js     8811 <safe_rshift_func_int32_t_s_u+0x28>
    87fd:	83 7d f8 1f          	cmpl   $0x1f,-0x8(%rbp)
    8801:	77 0e                	ja     8811 <safe_rshift_func_int32_t_s_u+0x28>
    8803:	8b 45 f8             	mov    -0x8(%rbp),%eax
    8806:	8b 55 fc             	mov    -0x4(%rbp),%edx
    8809:	89 c1                	mov    %eax,%ecx
    880b:	d3 fa                	sar    %cl,%edx
    880d:	89 d0                	mov    %edx,%eax
    880f:	eb 03                	jmp    8814 <safe_rshift_func_int32_t_s_u+0x2b>
    8811:	8b 45 fc             	mov    -0x4(%rbp),%eax
    8814:	5d                   	pop    %rbp
    8815:	c3                   	retq   

0000000000008816 <safe_unary_minus_func_int64_t_s>:
    8816:	f3 0f 1e fa          	endbr64 
    881a:	55                   	push   %rbp
    881b:	48 89 e5             	mov    %rsp,%rbp
    881e:	48 89 7d f8          	mov    %rdi,-0x8(%rbp)
    8822:	48 b8 00 00 00 00 00 	movabs $0x8000000000000000,%rax
    8829:	00 00 80 
    882c:	48 39 45 f8          	cmp    %rax,-0x8(%rbp)
    8830:	74 09                	je     883b <safe_unary_minus_func_int64_t_s+0x25>
    8832:	48 8b 45 f8          	mov    -0x8(%rbp),%rax
    8836:	48 f7 d8             	neg    %rax
    8839:	eb 04                	jmp    883f <safe_unary_minus_func_int64_t_s+0x29>
    883b:	48 8b 45 f8          	mov    -0x8(%rbp),%rax
    883f:	5d                   	pop    %rbp
    8840:	c3                   	retq   

0000000000008841 <safe_add_func_int64_t_s_s>:
    8841:	f3 0f 1e fa          	endbr64 
    8845:	55                   	push   %rbp
    8846:	48 89 e5             	mov    %rsp,%rbp
    8849:	48 89 7d f8          	mov    %rdi,-0x8(%rbp)
    884d:	48 89 75 f0          	mov    %rsi,-0x10(%rbp)
    8851:	48 83 7d f8 00       	cmpq   $0x0,-0x8(%rbp)
    8856:	7e 1b                	jle    8873 <safe_add_func_int64_t_s_s+0x32>
    8858:	48 83 7d f0 00       	cmpq   $0x0,-0x10(%rbp)
    885d:	7e 14                	jle    8873 <safe_add_func_int64_t_s_s+0x32>
    885f:	48 b8 ff ff ff ff ff 	movabs $0x7fffffffffffffff,%rax
    8866:	ff ff 7f 
    8869:	48 2b 45 f0          	sub    -0x10(%rbp),%rax
    886d:	48 39 45 f8          	cmp    %rax,-0x8(%rbp)
    8871:	7f 2f                	jg     88a2 <safe_add_func_int64_t_s_s+0x61>
    8873:	48 83 7d f8 00       	cmpq   $0x0,-0x8(%rbp)
    8878:	79 1b                	jns    8895 <safe_add_func_int64_t_s_s+0x54>
    887a:	48 83 7d f0 00       	cmpq   $0x0,-0x10(%rbp)
    887f:	79 14                	jns    8895 <safe_add_func_int64_t_s_s+0x54>
    8881:	48 b8 00 00 00 00 00 	movabs $0x8000000000000000,%rax
    8888:	00 00 80 
    888b:	48 2b 45 f0          	sub    -0x10(%rbp),%rax
    888f:	48 39 45 f8          	cmp    %rax,-0x8(%rbp)
    8893:	7c 0d                	jl     88a2 <safe_add_func_int64_t_s_s+0x61>
    8895:	48 8b 55 f8          	mov    -0x8(%rbp),%rdx
    8899:	48 8b 45 f0          	mov    -0x10(%rbp),%rax
    889d:	48 01 d0             	add    %rdx,%rax
    88a0:	eb 04                	jmp    88a6 <safe_add_func_int64_t_s_s+0x65>
    88a2:	48 8b 45 f8          	mov    -0x8(%rbp),%rax
    88a6:	5d                   	pop    %rbp
    88a7:	c3                   	retq   

00000000000088a8 <safe_sub_func_int64_t_s_s>:
    88a8:	f3 0f 1e fa          	endbr64 
    88ac:	55                   	push   %rbp
    88ad:	48 89 e5             	mov    %rsp,%rbp
    88b0:	48 89 7d f8          	mov    %rdi,-0x8(%rbp)
    88b4:	48 89 75 f0          	mov    %rsi,-0x10(%rbp)
    88b8:	48 8b 45 f8          	mov    -0x8(%rbp),%rax
    88bc:	48 33 45 f0          	xor    -0x10(%rbp),%rax
    88c0:	48 89 c2             	mov    %rax,%rdx
    88c3:	48 8b 45 f8          	mov    -0x8(%rbp),%rax
    88c7:	48 33 45 f0          	xor    -0x10(%rbp),%rax
    88cb:	48 b9 00 00 00 00 00 	movabs $0x8000000000000000,%rcx
    88d2:	00 00 80 
    88d5:	48 21 c8             	and    %rcx,%rax
    88d8:	48 33 45 f8          	xor    -0x8(%rbp),%rax
    88dc:	48 2b 45 f0          	sub    -0x10(%rbp),%rax
    88e0:	48 33 45 f0          	xor    -0x10(%rbp),%rax
    88e4:	48 21 d0             	and    %rdx,%rax
    88e7:	48 85 c0             	test   %rax,%rax
    88ea:	78 0a                	js     88f6 <safe_sub_func_int64_t_s_s+0x4e>
    88ec:	48 8b 45 f8          	mov    -0x8(%rbp),%rax
    88f0:	48 2b 45 f0          	sub    -0x10(%rbp),%rax
    88f4:	eb 04                	jmp    88fa <safe_sub_func_int64_t_s_s+0x52>
    88f6:	48 8b 45 f8          	mov    -0x8(%rbp),%rax
    88fa:	5d                   	pop    %rbp
    88fb:	c3                   	retq   

00000000000088fc <safe_mul_func_int64_t_s_s>:
    88fc:	f3 0f 1e fa          	endbr64 
    8900:	55                   	push   %rbp
    8901:	48 89 e5             	mov    %rsp,%rbp
    8904:	48 89 7d f8          	mov    %rdi,-0x8(%rbp)
    8908:	48 89 75 f0          	mov    %rsi,-0x10(%rbp)
    890c:	48 83 7d f8 00       	cmpq   $0x0,-0x8(%rbp)
    8911:	7e 1d                	jle    8930 <safe_mul_func_int64_t_s_s+0x34>
    8913:	48 83 7d f0 00       	cmpq   $0x0,-0x10(%rbp)
    8918:	7e 16                	jle    8930 <safe_mul_func_int64_t_s_s+0x34>
    891a:	48 b8 ff ff ff ff ff 	movabs $0x7fffffffffffffff,%rax
    8921:	ff ff 7f 
    8924:	48 99                	cqto   
    8926:	48 f7 7d f0          	idivq  -0x10(%rbp)
    892a:	48 39 45 f8          	cmp    %rax,-0x8(%rbp)
    892e:	7f 7e                	jg     89ae <safe_mul_func_int64_t_s_s+0xb2>
    8930:	48 83 7d f8 00       	cmpq   $0x0,-0x8(%rbp)
    8935:	7e 1d                	jle    8954 <safe_mul_func_int64_t_s_s+0x58>
    8937:	48 83 7d f0 00       	cmpq   $0x0,-0x10(%rbp)
    893c:	7f 16                	jg     8954 <safe_mul_func_int64_t_s_s+0x58>
    893e:	48 b8 00 00 00 00 00 	movabs $0x8000000000000000,%rax
    8945:	00 00 80 
    8948:	48 99                	cqto   
    894a:	48 f7 7d f8          	idivq  -0x8(%rbp)
    894e:	48 39 45 f0          	cmp    %rax,-0x10(%rbp)
    8952:	7c 5a                	jl     89ae <safe_mul_func_int64_t_s_s+0xb2>
    8954:	48 83 7d f8 00       	cmpq   $0x0,-0x8(%rbp)
    8959:	7f 1d                	jg     8978 <safe_mul_func_int64_t_s_s+0x7c>
    895b:	48 83 7d f0 00       	cmpq   $0x0,-0x10(%rbp)
    8960:	7e 16                	jle    8978 <safe_mul_func_int64_t_s_s+0x7c>
    8962:	48 b8 00 00 00 00 00 	movabs $0x8000000000000000,%rax
    8969:	00 00 80 
    896c:	48 99                	cqto   
    896e:	48 f7 7d f0          	idivq  -0x10(%rbp)
    8972:	48 39 45 f8          	cmp    %rax,-0x8(%rbp)
    8976:	7c 36                	jl     89ae <safe_mul_func_int64_t_s_s+0xb2>
    8978:	48 83 7d f8 00       	cmpq   $0x0,-0x8(%rbp)
    897d:	7f 24                	jg     89a3 <safe_mul_func_int64_t_s_s+0xa7>
    897f:	48 83 7d f0 00       	cmpq   $0x0,-0x10(%rbp)
    8984:	7f 1d                	jg     89a3 <safe_mul_func_int64_t_s_s+0xa7>
    8986:	48 83 7d f8 00       	cmpq   $0x0,-0x8(%rbp)
    898b:	74 16                	je     89a3 <safe_mul_func_int64_t_s_s+0xa7>
    898d:	48 b8 ff ff ff ff ff 	movabs $0x7fffffffffffffff,%rax
    8994:	ff ff 7f 
    8997:	48 99                	cqto   
    8999:	48 f7 7d f8          	idivq  -0x8(%rbp)
    899d:	48 39 45 f0          	cmp    %rax,-0x10(%rbp)
    89a1:	7c 0b                	jl     89ae <safe_mul_func_int64_t_s_s+0xb2>
    89a3:	48 8b 45 f8          	mov    -0x8(%rbp),%rax
    89a7:	48 0f af 45 f0       	imul   -0x10(%rbp),%rax
    89ac:	eb 04                	jmp    89b2 <safe_mul_func_int64_t_s_s+0xb6>
    89ae:	48 8b 45 f8          	mov    -0x8(%rbp),%rax
    89b2:	5d                   	pop    %rbp
    89b3:	c3                   	retq   

00000000000089b4 <safe_mod_func_int64_t_s_s>:
    89b4:	f3 0f 1e fa          	endbr64 
    89b8:	55                   	push   %rbp
    89b9:	48 89 e5             	mov    %rsp,%rbp
    89bc:	48 89 7d f8          	mov    %rdi,-0x8(%rbp)
    89c0:	48 89 75 f0          	mov    %rsi,-0x10(%rbp)
    89c4:	48 83 7d f0 00       	cmpq   $0x0,-0x10(%rbp)
    89c9:	74 26                	je     89f1 <safe_mod_func_int64_t_s_s+0x3d>
    89cb:	48 b8 00 00 00 00 00 	movabs $0x8000000000000000,%rax
    89d2:	00 00 80 
    89d5:	48 39 45 f8          	cmp    %rax,-0x8(%rbp)
    89d9:	75 07                	jne    89e2 <safe_mod_func_int64_t_s_s+0x2e>
    89db:	48 83 7d f0 ff       	cmpq   $0xffffffffffffffff,-0x10(%rbp)
    89e0:	74 0f                	je     89f1 <safe_mod_func_int64_t_s_s+0x3d>
    89e2:	48 8b 45 f8          	mov    -0x8(%rbp),%rax
    89e6:	48 99                	cqto   
    89e8:	48 f7 7d f0          	idivq  -0x10(%rbp)
    89ec:	48 89 d0             	mov    %rdx,%rax
    89ef:	eb 04                	jmp    89f5 <safe_mod_func_int64_t_s_s+0x41>
    89f1:	48 8b 45 f8          	mov    -0x8(%rbp),%rax
    89f5:	5d                   	pop    %rbp
    89f6:	c3                   	retq   

00000000000089f7 <safe_div_func_int64_t_s_s>:
    89f7:	f3 0f 1e fa          	endbr64 
    89fb:	55                   	push   %rbp
    89fc:	48 89 e5             	mov    %rsp,%rbp
    89ff:	48 89 7d f8          	mov    %rdi,-0x8(%rbp)
    8a03:	48 89 75 f0          	mov    %rsi,-0x10(%rbp)
    8a07:	48 83 7d f0 00       	cmpq   $0x0,-0x10(%rbp)
    8a0c:	74 23                	je     8a31 <safe_div_func_int64_t_s_s+0x3a>
    8a0e:	48 b8 00 00 00 00 00 	movabs $0x8000000000000000,%rax
    8a15:	00 00 80 
    8a18:	48 39 45 f8          	cmp    %rax,-0x8(%rbp)
    8a1c:	75 07                	jne    8a25 <safe_div_func_int64_t_s_s+0x2e>
    8a1e:	48 83 7d f0 ff       	cmpq   $0xffffffffffffffff,-0x10(%rbp)
    8a23:	74 0c                	je     8a31 <safe_div_func_int64_t_s_s+0x3a>
    8a25:	48 8b 45 f8          	mov    -0x8(%rbp),%rax
    8a29:	48 99                	cqto   
    8a2b:	48 f7 7d f0          	idivq  -0x10(%rbp)
    8a2f:	eb 04                	jmp    8a35 <safe_div_func_int64_t_s_s+0x3e>
    8a31:	48 8b 45 f8          	mov    -0x8(%rbp),%rax
    8a35:	5d                   	pop    %rbp
    8a36:	c3                   	retq   

0000000000008a37 <safe_lshift_func_int64_t_s_s>:
    8a37:	f3 0f 1e fa          	endbr64 
    8a3b:	55                   	push   %rbp
    8a3c:	48 89 e5             	mov    %rsp,%rbp
    8a3f:	48 89 7d f8          	mov    %rdi,-0x8(%rbp)
    8a43:	89 75 f4             	mov    %esi,-0xc(%rbp)
    8a46:	48 83 7d f8 00       	cmpq   $0x0,-0x8(%rbp)
    8a4b:	78 38                	js     8a85 <safe_lshift_func_int64_t_s_s+0x4e>
    8a4d:	83 7d f4 00          	cmpl   $0x0,-0xc(%rbp)
    8a51:	78 32                	js     8a85 <safe_lshift_func_int64_t_s_s+0x4e>
    8a53:	83 7d f4 1f          	cmpl   $0x1f,-0xc(%rbp)
    8a57:	7f 2c                	jg     8a85 <safe_lshift_func_int64_t_s_s+0x4e>
    8a59:	8b 45 f4             	mov    -0xc(%rbp),%eax
    8a5c:	48 ba ff ff ff ff ff 	movabs $0x7fffffffffffffff,%rdx
    8a63:	ff ff 7f 
    8a66:	89 c1                	mov    %eax,%ecx
    8a68:	48 d3 fa             	sar    %cl,%rdx
    8a6b:	48 89 d0             	mov    %rdx,%rax
    8a6e:	48 39 45 f8          	cmp    %rax,-0x8(%rbp)
    8a72:	7f 11                	jg     8a85 <safe_lshift_func_int64_t_s_s+0x4e>
    8a74:	8b 45 f4             	mov    -0xc(%rbp),%eax
    8a77:	48 8b 55 f8          	mov    -0x8(%rbp),%rdx
    8a7b:	89 c1                	mov    %eax,%ecx
    8a7d:	48 d3 e2             	shl    %cl,%rdx
    8a80:	48 89 d0             	mov    %rdx,%rax
    8a83:	eb 04                	jmp    8a89 <safe_lshift_func_int64_t_s_s+0x52>
    8a85:	48 8b 45 f8          	mov    -0x8(%rbp),%rax
    8a89:	5d                   	pop    %rbp
    8a8a:	c3                   	retq   

0000000000008a8b <safe_lshift_func_int64_t_s_u>:
    8a8b:	f3 0f 1e fa          	endbr64 
    8a8f:	55                   	push   %rbp
    8a90:	48 89 e5             	mov    %rsp,%rbp
    8a93:	48 89 7d f8          	mov    %rdi,-0x8(%rbp)
    8a97:	89 75 f4             	mov    %esi,-0xc(%rbp)
    8a9a:	48 83 7d f8 00       	cmpq   $0x0,-0x8(%rbp)
    8a9f:	78 32                	js     8ad3 <safe_lshift_func_int64_t_s_u+0x48>
    8aa1:	83 7d f4 1f          	cmpl   $0x1f,-0xc(%rbp)
    8aa5:	77 2c                	ja     8ad3 <safe_lshift_func_int64_t_s_u+0x48>
    8aa7:	8b 45 f4             	mov    -0xc(%rbp),%eax
    8aaa:	48 ba ff ff ff ff ff 	movabs $0x7fffffffffffffff,%rdx
    8ab1:	ff ff 7f 
    8ab4:	89 c1                	mov    %eax,%ecx
    8ab6:	48 d3 fa             	sar    %cl,%rdx
    8ab9:	48 89 d0             	mov    %rdx,%rax
    8abc:	48 39 45 f8          	cmp    %rax,-0x8(%rbp)
    8ac0:	7f 11                	jg     8ad3 <safe_lshift_func_int64_t_s_u+0x48>
    8ac2:	8b 45 f4             	mov    -0xc(%rbp),%eax
    8ac5:	48 8b 55 f8          	mov    -0x8(%rbp),%rdx
    8ac9:	89 c1                	mov    %eax,%ecx
    8acb:	48 d3 e2             	shl    %cl,%rdx
    8ace:	48 89 d0             	mov    %rdx,%rax
    8ad1:	eb 04                	jmp    8ad7 <safe_lshift_func_int64_t_s_u+0x4c>
    8ad3:	48 8b 45 f8          	mov    -0x8(%rbp),%rax
    8ad7:	5d                   	pop    %rbp
    8ad8:	c3                   	retq   

0000000000008ad9 <safe_rshift_func_int64_t_s_s>:
    8ad9:	f3 0f 1e fa          	endbr64 
    8add:	55                   	push   %rbp
    8ade:	48 89 e5             	mov    %rsp,%rbp
    8ae1:	48 89 7d f8          	mov    %rdi,-0x8(%rbp)
    8ae5:	89 75 f4             	mov    %esi,-0xc(%rbp)
    8ae8:	48 83 7d f8 00       	cmpq   $0x0,-0x8(%rbp)
    8aed:	78 1d                	js     8b0c <safe_rshift_func_int64_t_s_s+0x33>
    8aef:	83 7d f4 00          	cmpl   $0x0,-0xc(%rbp)
    8af3:	78 17                	js     8b0c <safe_rshift_func_int64_t_s_s+0x33>
    8af5:	83 7d f4 1f          	cmpl   $0x1f,-0xc(%rbp)
    8af9:	7f 11                	jg     8b0c <safe_rshift_func_int64_t_s_s+0x33>
    8afb:	8b 45 f4             	mov    -0xc(%rbp),%eax
    8afe:	48 8b 55 f8          	mov    -0x8(%rbp),%rdx
    8b02:	89 c1                	mov    %eax,%ecx
    8b04:	48 d3 fa             	sar    %cl,%rdx
    8b07:	48 89 d0             	mov    %rdx,%rax
    8b0a:	eb 04                	jmp    8b10 <safe_rshift_func_int64_t_s_s+0x37>
    8b0c:	48 8b 45 f8          	mov    -0x8(%rbp),%rax
    8b10:	5d                   	pop    %rbp
    8b11:	c3                   	retq   

0000000000008b12 <safe_rshift_func_int64_t_s_u>:
    8b12:	f3 0f 1e fa          	endbr64 
    8b16:	55                   	push   %rbp
    8b17:	48 89 e5             	mov    %rsp,%rbp
    8b1a:	48 89 7d f8          	mov    %rdi,-0x8(%rbp)
    8b1e:	89 75 f4             	mov    %esi,-0xc(%rbp)
    8b21:	48 83 7d f8 00       	cmpq   $0x0,-0x8(%rbp)
    8b26:	78 17                	js     8b3f <safe_rshift_func_int64_t_s_u+0x2d>
    8b28:	83 7d f4 1f          	cmpl   $0x1f,-0xc(%rbp)
    8b2c:	77 11                	ja     8b3f <safe_rshift_func_int64_t_s_u+0x2d>
    8b2e:	8b 45 f4             	mov    -0xc(%rbp),%eax
    8b31:	48 8b 55 f8          	mov    -0x8(%rbp),%rdx
    8b35:	89 c1                	mov    %eax,%ecx
    8b37:	48 d3 fa             	sar    %cl,%rdx
    8b3a:	48 89 d0             	mov    %rdx,%rax
    8b3d:	eb 04                	jmp    8b43 <safe_rshift_func_int64_t_s_u+0x31>
    8b3f:	48 8b 45 f8          	mov    -0x8(%rbp),%rax
    8b43:	5d                   	pop    %rbp
    8b44:	c3                   	retq   

0000000000008b45 <safe_unary_minus_func_uint8_t_u>:
    8b45:	f3 0f 1e fa          	endbr64 
    8b49:	55                   	push   %rbp
    8b4a:	48 89 e5             	mov    %rsp,%rbp
    8b4d:	89 f8                	mov    %edi,%eax
    8b4f:	88 45 fc             	mov    %al,-0x4(%rbp)
    8b52:	0f b6 45 fc          	movzbl -0x4(%rbp),%eax
    8b56:	f7 d8                	neg    %eax
    8b58:	5d                   	pop    %rbp
    8b59:	c3                   	retq   

0000000000008b5a <safe_add_func_uint8_t_u_u>:
    8b5a:	f3 0f 1e fa          	endbr64 
    8b5e:	55                   	push   %rbp
    8b5f:	48 89 e5             	mov    %rsp,%rbp
    8b62:	89 fa                	mov    %edi,%edx
    8b64:	89 f0                	mov    %esi,%eax
    8b66:	88 55 fc             	mov    %dl,-0x4(%rbp)
    8b69:	88 45 f8             	mov    %al,-0x8(%rbp)
    8b6c:	0f b6 55 fc          	movzbl -0x4(%rbp),%edx
    8b70:	0f b6 45 f8          	movzbl -0x8(%rbp),%eax
    8b74:	01 d0                	add    %edx,%eax
    8b76:	5d                   	pop    %rbp
    8b77:	c3                   	retq   

0000000000008b78 <safe_sub_func_uint8_t_u_u>:
    8b78:	f3 0f 1e fa          	endbr64 
    8b7c:	55                   	push   %rbp
    8b7d:	48 89 e5             	mov    %rsp,%rbp
    8b80:	89 fa                	mov    %edi,%edx
    8b82:	89 f0                	mov    %esi,%eax
    8b84:	88 55 fc             	mov    %dl,-0x4(%rbp)
    8b87:	88 45 f8             	mov    %al,-0x8(%rbp)
    8b8a:	0f b6 45 fc          	movzbl -0x4(%rbp),%eax
    8b8e:	2a 45 f8             	sub    -0x8(%rbp),%al
    8b91:	5d                   	pop    %rbp
    8b92:	c3                   	retq   

0000000000008b93 <safe_mul_func_uint8_t_u_u>:
    8b93:	f3 0f 1e fa          	endbr64 
    8b97:	55                   	push   %rbp
    8b98:	48 89 e5             	mov    %rsp,%rbp
    8b9b:	89 fa                	mov    %edi,%edx
    8b9d:	89 f0                	mov    %esi,%eax
    8b9f:	88 55 fc             	mov    %dl,-0x4(%rbp)
    8ba2:	88 45 f8             	mov    %al,-0x8(%rbp)
    8ba5:	0f b6 45 fc          	movzbl -0x4(%rbp),%eax
    8ba9:	f6 65 f8             	mulb   -0x8(%rbp)
    8bac:	5d                   	pop    %rbp
    8bad:	c3                   	retq   

0000000000008bae <safe_mod_func_uint8_t_u_u>:
    8bae:	f3 0f 1e fa          	endbr64 
    8bb2:	55                   	push   %rbp
    8bb3:	48 89 e5             	mov    %rsp,%rbp
    8bb6:	89 fa                	mov    %edi,%edx
    8bb8:	89 f0                	mov    %esi,%eax
    8bba:	88 55 fc             	mov    %dl,-0x4(%rbp)
    8bbd:	88 45 f8             	mov    %al,-0x8(%rbp)
    8bc0:	80 7d f8 00          	cmpb   $0x0,-0x8(%rbp)
    8bc4:	74 0f                	je     8bd5 <safe_mod_func_uint8_t_u_u+0x27>
    8bc6:	0f b6 45 fc          	movzbl -0x4(%rbp),%eax
    8bca:	0f b6 c0             	movzbl %al,%eax
    8bcd:	f6 75 f8             	divb   -0x8(%rbp)
    8bd0:	0f b6 c4             	movzbl %ah,%eax
    8bd3:	eb 04                	jmp    8bd9 <safe_mod_func_uint8_t_u_u+0x2b>
    8bd5:	0f b6 45 fc          	movzbl -0x4(%rbp),%eax
    8bd9:	5d                   	pop    %rbp
    8bda:	c3                   	retq   

0000000000008bdb <safe_div_func_uint8_t_u_u>:
    8bdb:	f3 0f 1e fa          	endbr64 
    8bdf:	55                   	push   %rbp
    8be0:	48 89 e5             	mov    %rsp,%rbp
    8be3:	89 fa                	mov    %edi,%edx
    8be5:	89 f0                	mov    %esi,%eax
    8be7:	88 55 fc             	mov    %dl,-0x4(%rbp)
    8bea:	88 45 f8             	mov    %al,-0x8(%rbp)
    8bed:	80 7d f8 00          	cmpb   $0x0,-0x8(%rbp)
    8bf1:	74 0c                	je     8bff <safe_div_func_uint8_t_u_u+0x24>
    8bf3:	0f b6 45 fc          	movzbl -0x4(%rbp),%eax
    8bf7:	0f b6 c0             	movzbl %al,%eax
    8bfa:	f6 75 f8             	divb   -0x8(%rbp)
    8bfd:	eb 04                	jmp    8c03 <safe_div_func_uint8_t_u_u+0x28>
    8bff:	0f b6 45 fc          	movzbl -0x4(%rbp),%eax
    8c03:	5d                   	pop    %rbp
    8c04:	c3                   	retq   

0000000000008c05 <safe_lshift_func_uint8_t_u_s>:
    8c05:	f3 0f 1e fa          	endbr64 
    8c09:	55                   	push   %rbp
    8c0a:	48 89 e5             	mov    %rsp,%rbp
    8c0d:	89 f8                	mov    %edi,%eax
    8c0f:	89 75 f8             	mov    %esi,-0x8(%rbp)
    8c12:	88 45 fc             	mov    %al,-0x4(%rbp)
    8c15:	83 7d f8 00          	cmpl   $0x0,-0x8(%rbp)
    8c19:	78 2b                	js     8c46 <safe_lshift_func_uint8_t_u_s+0x41>
    8c1b:	83 7d f8 1f          	cmpl   $0x1f,-0x8(%rbp)
    8c1f:	7f 25                	jg     8c46 <safe_lshift_func_uint8_t_u_s+0x41>
    8c21:	0f b6 55 fc          	movzbl -0x4(%rbp),%edx
    8c25:	8b 45 f8             	mov    -0x8(%rbp),%eax
    8c28:	be ff 00 00 00       	mov    $0xff,%esi
    8c2d:	89 c1                	mov    %eax,%ecx
    8c2f:	d3 fe                	sar    %cl,%esi
    8c31:	89 f0                	mov    %esi,%eax
    8c33:	39 c2                	cmp    %eax,%edx
    8c35:	7f 0f                	jg     8c46 <safe_lshift_func_uint8_t_u_s+0x41>
    8c37:	0f b6 55 fc          	movzbl -0x4(%rbp),%edx
    8c3b:	8b 45 f8             	mov    -0x8(%rbp),%eax
    8c3e:	89 c1                	mov    %eax,%ecx
    8c40:	d3 e2                	shl    %cl,%edx
    8c42:	89 d0                	mov    %edx,%eax
    8c44:	eb 04                	jmp    8c4a <safe_lshift_func_uint8_t_u_s+0x45>
    8c46:	0f b6 45 fc          	movzbl -0x4(%rbp),%eax
    8c4a:	5d                   	pop    %rbp
    8c4b:	c3                   	retq   

0000000000008c4c <safe_lshift_func_uint8_t_u_u>:
    8c4c:	f3 0f 1e fa          	endbr64 
    8c50:	55                   	push   %rbp
    8c51:	48 89 e5             	mov    %rsp,%rbp
    8c54:	89 f8                	mov    %edi,%eax
    8c56:	89 75 f8             	mov    %esi,-0x8(%rbp)
    8c59:	88 45 fc             	mov    %al,-0x4(%rbp)
    8c5c:	83 7d f8 1f          	cmpl   $0x1f,-0x8(%rbp)
    8c60:	77 25                	ja     8c87 <safe_lshift_func_uint8_t_u_u+0x3b>
    8c62:	0f b6 55 fc          	movzbl -0x4(%rbp),%edx
    8c66:	8b 45 f8             	mov    -0x8(%rbp),%eax
    8c69:	be ff 00 00 00       	mov    $0xff,%esi
    8c6e:	89 c1                	mov    %eax,%ecx
    8c70:	d3 fe                	sar    %cl,%esi
    8c72:	89 f0                	mov    %esi,%eax
    8c74:	39 c2                	cmp    %eax,%edx
    8c76:	7f 0f                	jg     8c87 <safe_lshift_func_uint8_t_u_u+0x3b>
    8c78:	0f b6 55 fc          	movzbl -0x4(%rbp),%edx
    8c7c:	8b 45 f8             	mov    -0x8(%rbp),%eax
    8c7f:	89 c1                	mov    %eax,%ecx
    8c81:	d3 e2                	shl    %cl,%edx
    8c83:	89 d0                	mov    %edx,%eax
    8c85:	eb 04                	jmp    8c8b <safe_lshift_func_uint8_t_u_u+0x3f>
    8c87:	0f b6 45 fc          	movzbl -0x4(%rbp),%eax
    8c8b:	5d                   	pop    %rbp
    8c8c:	c3                   	retq   

0000000000008c8d <safe_rshift_func_uint8_t_u_s>:
    8c8d:	f3 0f 1e fa          	endbr64 
    8c91:	55                   	push   %rbp
    8c92:	48 89 e5             	mov    %rsp,%rbp
    8c95:	89 f8                	mov    %edi,%eax
    8c97:	89 75 f8             	mov    %esi,-0x8(%rbp)
    8c9a:	88 45 fc             	mov    %al,-0x4(%rbp)
    8c9d:	83 7d f8 00          	cmpl   $0x0,-0x8(%rbp)
    8ca1:	78 15                	js     8cb8 <safe_rshift_func_uint8_t_u_s+0x2b>
    8ca3:	83 7d f8 1f          	cmpl   $0x1f,-0x8(%rbp)
    8ca7:	7f 0f                	jg     8cb8 <safe_rshift_func_uint8_t_u_s+0x2b>
    8ca9:	0f b6 55 fc          	movzbl -0x4(%rbp),%edx
    8cad:	8b 45 f8             	mov    -0x8(%rbp),%eax
    8cb0:	89 c1                	mov    %eax,%ecx
    8cb2:	d3 fa                	sar    %cl,%edx
    8cb4:	89 d0                	mov    %edx,%eax
    8cb6:	eb 04                	jmp    8cbc <safe_rshift_func_uint8_t_u_s+0x2f>
    8cb8:	0f b6 45 fc          	movzbl -0x4(%rbp),%eax
    8cbc:	5d                   	pop    %rbp
    8cbd:	c3                   	retq   

0000000000008cbe <safe_rshift_func_uint8_t_u_u>:
    8cbe:	f3 0f 1e fa          	endbr64 
    8cc2:	55                   	push   %rbp
    8cc3:	48 89 e5             	mov    %rsp,%rbp
    8cc6:	89 f8                	mov    %edi,%eax
    8cc8:	89 75 f8             	mov    %esi,-0x8(%rbp)
    8ccb:	88 45 fc             	mov    %al,-0x4(%rbp)
    8cce:	83 7d f8 1f          	cmpl   $0x1f,-0x8(%rbp)
    8cd2:	77 0f                	ja     8ce3 <safe_rshift_func_uint8_t_u_u+0x25>
    8cd4:	0f b6 55 fc          	movzbl -0x4(%rbp),%edx
    8cd8:	8b 45 f8             	mov    -0x8(%rbp),%eax
    8cdb:	89 c1                	mov    %eax,%ecx
    8cdd:	d3 fa                	sar    %cl,%edx
    8cdf:	89 d0                	mov    %edx,%eax
    8ce1:	eb 04                	jmp    8ce7 <safe_rshift_func_uint8_t_u_u+0x29>
    8ce3:	0f b6 45 fc          	movzbl -0x4(%rbp),%eax
    8ce7:	5d                   	pop    %rbp
    8ce8:	c3                   	retq   

0000000000008ce9 <safe_unary_minus_func_uint16_t_u>:
    8ce9:	f3 0f 1e fa          	endbr64 
    8ced:	55                   	push   %rbp
    8cee:	48 89 e5             	mov    %rsp,%rbp
    8cf1:	89 f8                	mov    %edi,%eax
    8cf3:	66 89 45 fc          	mov    %ax,-0x4(%rbp)
    8cf7:	0f b7 45 fc          	movzwl -0x4(%rbp),%eax
    8cfb:	f7 d8                	neg    %eax
    8cfd:	5d                   	pop    %rbp
    8cfe:	c3                   	retq   

0000000000008cff <safe_add_func_uint16_t_u_u>:
    8cff:	f3 0f 1e fa          	endbr64 
    8d03:	55                   	push   %rbp
    8d04:	48 89 e5             	mov    %rsp,%rbp
    8d07:	89 fa                	mov    %edi,%edx
    8d09:	89 f0                	mov    %esi,%eax
    8d0b:	66 89 55 fc          	mov    %dx,-0x4(%rbp)
    8d0f:	66 89 45 f8          	mov    %ax,-0x8(%rbp)
    8d13:	0f b7 55 fc          	movzwl -0x4(%rbp),%edx
    8d17:	0f b7 45 f8          	movzwl -0x8(%rbp),%eax
    8d1b:	01 d0                	add    %edx,%eax
    8d1d:	5d                   	pop    %rbp
    8d1e:	c3                   	retq   

0000000000008d1f <safe_sub_func_uint16_t_u_u>:
    8d1f:	f3 0f 1e fa          	endbr64 
    8d23:	55                   	push   %rbp
    8d24:	48 89 e5             	mov    %rsp,%rbp
    8d27:	89 fa                	mov    %edi,%edx
    8d29:	89 f0                	mov    %esi,%eax
    8d2b:	66 89 55 fc          	mov    %dx,-0x4(%rbp)
    8d2f:	66 89 45 f8          	mov    %ax,-0x8(%rbp)
    8d33:	0f b7 45 fc          	movzwl -0x4(%rbp),%eax
    8d37:	66 2b 45 f8          	sub    -0x8(%rbp),%ax
    8d3b:	5d                   	pop    %rbp
    8d3c:	c3                   	retq   

0000000000008d3d <safe_mul_func_uint16_t_u_u>:
    8d3d:	f3 0f 1e fa          	endbr64 
    8d41:	55                   	push   %rbp
    8d42:	48 89 e5             	mov    %rsp,%rbp
    8d45:	89 fa                	mov    %edi,%edx
    8d47:	89 f0                	mov    %esi,%eax
    8d49:	66 89 55 fc          	mov    %dx,-0x4(%rbp)
    8d4d:	66 89 45 f8          	mov    %ax,-0x8(%rbp)
    8d51:	0f b7 45 fc          	movzwl -0x4(%rbp),%eax
    8d55:	66 0f af 45 f8       	imul   -0x8(%rbp),%ax
    8d5a:	5d                   	pop    %rbp
    8d5b:	c3                   	retq   

0000000000008d5c <safe_mod_func_uint16_t_u_u>:
    8d5c:	f3 0f 1e fa          	endbr64 
    8d60:	55                   	push   %rbp
    8d61:	48 89 e5             	mov    %rsp,%rbp
    8d64:	89 fa                	mov    %edi,%edx
    8d66:	89 f0                	mov    %esi,%eax
    8d68:	66 89 55 fc          	mov    %dx,-0x4(%rbp)
    8d6c:	66 89 45 f8          	mov    %ax,-0x8(%rbp)
    8d70:	66 83 7d f8 00       	cmpw   $0x0,-0x8(%rbp)
    8d75:	74 11                	je     8d88 <safe_mod_func_uint16_t_u_u+0x2c>
    8d77:	0f b7 45 fc          	movzwl -0x4(%rbp),%eax
    8d7b:	ba 00 00 00 00       	mov    $0x0,%edx
    8d80:	66 f7 75 f8          	divw   -0x8(%rbp)
    8d84:	89 d0                	mov    %edx,%eax
    8d86:	eb 04                	jmp    8d8c <safe_mod_func_uint16_t_u_u+0x30>
    8d88:	0f b7 45 fc          	movzwl -0x4(%rbp),%eax
    8d8c:	5d                   	pop    %rbp
    8d8d:	c3                   	retq   

0000000000008d8e <safe_div_func_uint16_t_u_u>:
    8d8e:	f3 0f 1e fa          	endbr64 
    8d92:	55                   	push   %rbp
    8d93:	48 89 e5             	mov    %rsp,%rbp
    8d96:	89 fa                	mov    %edi,%edx
    8d98:	89 f0                	mov    %esi,%eax
    8d9a:	66 89 55 fc          	mov    %dx,-0x4(%rbp)
    8d9e:	66 89 45 f8          	mov    %ax,-0x8(%rbp)
    8da2:	66 83 7d f8 00       	cmpw   $0x0,-0x8(%rbp)
    8da7:	74 0f                	je     8db8 <safe_div_func_uint16_t_u_u+0x2a>
    8da9:	0f b7 45 fc          	movzwl -0x4(%rbp),%eax
    8dad:	ba 00 00 00 00       	mov    $0x0,%edx
    8db2:	66 f7 75 f8          	divw   -0x8(%rbp)
    8db6:	eb 04                	jmp    8dbc <safe_div_func_uint16_t_u_u+0x2e>
    8db8:	0f b7 45 fc          	movzwl -0x4(%rbp),%eax
    8dbc:	5d                   	pop    %rbp
    8dbd:	c3                   	retq   

0000000000008dbe <safe_lshift_func_uint16_t_u_s>:
    8dbe:	f3 0f 1e fa          	endbr64 
    8dc2:	55                   	push   %rbp
    8dc3:	48 89 e5             	mov    %rsp,%rbp
    8dc6:	89 f8                	mov    %edi,%eax
    8dc8:	89 75 f8             	mov    %esi,-0x8(%rbp)
    8dcb:	66 89 45 fc          	mov    %ax,-0x4(%rbp)
    8dcf:	83 7d f8 00          	cmpl   $0x0,-0x8(%rbp)
    8dd3:	78 2b                	js     8e00 <safe_lshift_func_uint16_t_u_s+0x42>
    8dd5:	83 7d f8 1f          	cmpl   $0x1f,-0x8(%rbp)
    8dd9:	7f 25                	jg     8e00 <safe_lshift_func_uint16_t_u_s+0x42>
    8ddb:	0f b7 55 fc          	movzwl -0x4(%rbp),%edx
    8ddf:	8b 45 f8             	mov    -0x8(%rbp),%eax
    8de2:	be ff ff 00 00       	mov    $0xffff,%esi
    8de7:	89 c1                	mov    %eax,%ecx
    8de9:	d3 fe                	sar    %cl,%esi
    8deb:	89 f0                	mov    %esi,%eax
    8ded:	39 c2                	cmp    %eax,%edx
    8def:	7f 0f                	jg     8e00 <safe_lshift_func_uint16_t_u_s+0x42>
    8df1:	0f b7 55 fc          	movzwl -0x4(%rbp),%edx
    8df5:	8b 45 f8             	mov    -0x8(%rbp),%eax
    8df8:	89 c1                	mov    %eax,%ecx
    8dfa:	d3 e2                	shl    %cl,%edx
    8dfc:	89 d0                	mov    %edx,%eax
    8dfe:	eb 04                	jmp    8e04 <safe_lshift_func_uint16_t_u_s+0x46>
    8e00:	0f b7 45 fc          	movzwl -0x4(%rbp),%eax
    8e04:	5d                   	pop    %rbp
    8e05:	c3                   	retq   

0000000000008e06 <safe_lshift_func_uint16_t_u_u>:
    8e06:	f3 0f 1e fa          	endbr64 
    8e0a:	55                   	push   %rbp
    8e0b:	48 89 e5             	mov    %rsp,%rbp
    8e0e:	89 f8                	mov    %edi,%eax
    8e10:	89 75 f8             	mov    %esi,-0x8(%rbp)
    8e13:	66 89 45 fc          	mov    %ax,-0x4(%rbp)
    8e17:	83 7d f8 1f          	cmpl   $0x1f,-0x8(%rbp)
    8e1b:	77 25                	ja     8e42 <safe_lshift_func_uint16_t_u_u+0x3c>
    8e1d:	0f b7 55 fc          	movzwl -0x4(%rbp),%edx
    8e21:	8b 45 f8             	mov    -0x8(%rbp),%eax
    8e24:	be ff ff 00 00       	mov    $0xffff,%esi
    8e29:	89 c1                	mov    %eax,%ecx
    8e2b:	d3 fe                	sar    %cl,%esi
    8e2d:	89 f0                	mov    %esi,%eax
    8e2f:	39 c2                	cmp    %eax,%edx
    8e31:	7f 0f                	jg     8e42 <safe_lshift_func_uint16_t_u_u+0x3c>
    8e33:	0f b7 55 fc          	movzwl -0x4(%rbp),%edx
    8e37:	8b 45 f8             	mov    -0x8(%rbp),%eax
    8e3a:	89 c1                	mov    %eax,%ecx
    8e3c:	d3 e2                	shl    %cl,%edx
    8e3e:	89 d0                	mov    %edx,%eax
    8e40:	eb 04                	jmp    8e46 <safe_lshift_func_uint16_t_u_u+0x40>
    8e42:	0f b7 45 fc          	movzwl -0x4(%rbp),%eax
    8e46:	5d                   	pop    %rbp
    8e47:	c3                   	retq   

0000000000008e48 <safe_rshift_func_uint16_t_u_s>:
    8e48:	f3 0f 1e fa          	endbr64 
    8e4c:	55                   	push   %rbp
    8e4d:	48 89 e5             	mov    %rsp,%rbp
    8e50:	89 f8                	mov    %edi,%eax
    8e52:	89 75 f8             	mov    %esi,-0x8(%rbp)
    8e55:	66 89 45 fc          	mov    %ax,-0x4(%rbp)
    8e59:	83 7d f8 00          	cmpl   $0x0,-0x8(%rbp)
    8e5d:	78 15                	js     8e74 <safe_rshift_func_uint16_t_u_s+0x2c>
    8e5f:	83 7d f8 1f          	cmpl   $0x1f,-0x8(%rbp)
    8e63:	7f 0f                	jg     8e74 <safe_rshift_func_uint16_t_u_s+0x2c>
    8e65:	0f b7 55 fc          	movzwl -0x4(%rbp),%edx
    8e69:	8b 45 f8             	mov    -0x8(%rbp),%eax
    8e6c:	89 c1                	mov    %eax,%ecx
    8e6e:	d3 fa                	sar    %cl,%edx
    8e70:	89 d0                	mov    %edx,%eax
    8e72:	eb 04                	jmp    8e78 <safe_rshift_func_uint16_t_u_s+0x30>
    8e74:	0f b7 45 fc          	movzwl -0x4(%rbp),%eax
    8e78:	5d                   	pop    %rbp
    8e79:	c3                   	retq   

0000000000008e7a <safe_rshift_func_uint16_t_u_u>:
    8e7a:	f3 0f 1e fa          	endbr64 
    8e7e:	55                   	push   %rbp
    8e7f:	48 89 e5             	mov    %rsp,%rbp
    8e82:	89 f8                	mov    %edi,%eax
    8e84:	89 75 f8             	mov    %esi,-0x8(%rbp)
    8e87:	66 89 45 fc          	mov    %ax,-0x4(%rbp)
    8e8b:	83 7d f8 1f          	cmpl   $0x1f,-0x8(%rbp)
    8e8f:	77 0f                	ja     8ea0 <safe_rshift_func_uint16_t_u_u+0x26>
    8e91:	0f b7 55 fc          	movzwl -0x4(%rbp),%edx
    8e95:	8b 45 f8             	mov    -0x8(%rbp),%eax
    8e98:	89 c1                	mov    %eax,%ecx
    8e9a:	d3 fa                	sar    %cl,%edx
    8e9c:	89 d0                	mov    %edx,%eax
    8e9e:	eb 04                	jmp    8ea4 <safe_rshift_func_uint16_t_u_u+0x2a>
    8ea0:	0f b7 45 fc          	movzwl -0x4(%rbp),%eax
    8ea4:	5d                   	pop    %rbp
    8ea5:	c3                   	retq   

0000000000008ea6 <safe_unary_minus_func_uint32_t_u>:
    8ea6:	f3 0f 1e fa          	endbr64 
    8eaa:	55                   	push   %rbp
    8eab:	48 89 e5             	mov    %rsp,%rbp
    8eae:	89 7d fc             	mov    %edi,-0x4(%rbp)
    8eb1:	8b 45 fc             	mov    -0x4(%rbp),%eax
    8eb4:	f7 d8                	neg    %eax
    8eb6:	5d                   	pop    %rbp
    8eb7:	c3                   	retq   

0000000000008eb8 <safe_add_func_uint32_t_u_u>:
    8eb8:	f3 0f 1e fa          	endbr64 
    8ebc:	55                   	push   %rbp
    8ebd:	48 89 e5             	mov    %rsp,%rbp
    8ec0:	89 7d fc             	mov    %edi,-0x4(%rbp)
    8ec3:	89 75 f8             	mov    %esi,-0x8(%rbp)
    8ec6:	8b 55 fc             	mov    -0x4(%rbp),%edx
    8ec9:	8b 45 f8             	mov    -0x8(%rbp),%eax
    8ecc:	01 d0                	add    %edx,%eax
    8ece:	5d                   	pop    %rbp
    8ecf:	c3                   	retq   

0000000000008ed0 <safe_sub_func_uint32_t_u_u>:
    8ed0:	f3 0f 1e fa          	endbr64 
    8ed4:	55                   	push   %rbp
    8ed5:	48 89 e5             	mov    %rsp,%rbp
    8ed8:	89 7d fc             	mov    %edi,-0x4(%rbp)
    8edb:	89 75 f8             	mov    %esi,-0x8(%rbp)
    8ede:	8b 45 fc             	mov    -0x4(%rbp),%eax
    8ee1:	2b 45 f8             	sub    -0x8(%rbp),%eax
    8ee4:	5d                   	pop    %rbp
    8ee5:	c3                   	retq   

0000000000008ee6 <safe_mul_func_uint32_t_u_u>:
    8ee6:	f3 0f 1e fa          	endbr64 
    8eea:	55                   	push   %rbp
    8eeb:	48 89 e5             	mov    %rsp,%rbp
    8eee:	89 7d fc             	mov    %edi,-0x4(%rbp)
    8ef1:	89 75 f8             	mov    %esi,-0x8(%rbp)
    8ef4:	8b 45 fc             	mov    -0x4(%rbp),%eax
    8ef7:	0f af 45 f8          	imul   -0x8(%rbp),%eax
    8efb:	5d                   	pop    %rbp
    8efc:	c3                   	retq   

0000000000008efd <safe_mod_func_uint32_t_u_u>:
    8efd:	f3 0f 1e fa          	endbr64 
    8f01:	55                   	push   %rbp
    8f02:	48 89 e5             	mov    %rsp,%rbp
    8f05:	89 7d fc             	mov    %edi,-0x4(%rbp)
    8f08:	89 75 f8             	mov    %esi,-0x8(%rbp)
    8f0b:	83 7d f8 00          	cmpl   $0x0,-0x8(%rbp)
    8f0f:	74 0f                	je     8f20 <safe_mod_func_uint32_t_u_u+0x23>
    8f11:	8b 45 fc             	mov    -0x4(%rbp),%eax
    8f14:	ba 00 00 00 00       	mov    $0x0,%edx
    8f19:	f7 75 f8             	divl   -0x8(%rbp)
    8f1c:	89 d0                	mov    %edx,%eax
    8f1e:	eb 03                	jmp    8f23 <safe_mod_func_uint32_t_u_u+0x26>
    8f20:	8b 45 fc             	mov    -0x4(%rbp),%eax
    8f23:	5d                   	pop    %rbp
    8f24:	c3                   	retq   

0000000000008f25 <safe_div_func_uint32_t_u_u>:
    8f25:	f3 0f 1e fa          	endbr64 
    8f29:	55                   	push   %rbp
    8f2a:	48 89 e5             	mov    %rsp,%rbp
    8f2d:	89 7d fc             	mov    %edi,-0x4(%rbp)
    8f30:	89 75 f8             	mov    %esi,-0x8(%rbp)
    8f33:	83 7d f8 00          	cmpl   $0x0,-0x8(%rbp)
    8f37:	74 0d                	je     8f46 <safe_div_func_uint32_t_u_u+0x21>
    8f39:	8b 45 fc             	mov    -0x4(%rbp),%eax
    8f3c:	ba 00 00 00 00       	mov    $0x0,%edx
    8f41:	f7 75 f8             	divl   -0x8(%rbp)
    8f44:	eb 03                	jmp    8f49 <safe_div_func_uint32_t_u_u+0x24>
    8f46:	8b 45 fc             	mov    -0x4(%rbp),%eax
    8f49:	5d                   	pop    %rbp
    8f4a:	c3                   	retq   

0000000000008f4b <safe_lshift_func_uint32_t_u_s>:
    8f4b:	f3 0f 1e fa          	endbr64 
    8f4f:	55                   	push   %rbp
    8f50:	48 89 e5             	mov    %rsp,%rbp
    8f53:	89 7d fc             	mov    %edi,-0x4(%rbp)
    8f56:	89 75 f8             	mov    %esi,-0x8(%rbp)
    8f59:	83 7d f8 00          	cmpl   $0x0,-0x8(%rbp)
    8f5d:	78 27                	js     8f86 <safe_lshift_func_uint32_t_u_s+0x3b>
    8f5f:	83 7d f8 1f          	cmpl   $0x1f,-0x8(%rbp)
    8f63:	7f 21                	jg     8f86 <safe_lshift_func_uint32_t_u_s+0x3b>
    8f65:	8b 45 f8             	mov    -0x8(%rbp),%eax
    8f68:	ba ff ff ff ff       	mov    $0xffffffff,%edx
    8f6d:	89 c1                	mov    %eax,%ecx
    8f6f:	d3 ea                	shr    %cl,%edx
    8f71:	89 d0                	mov    %edx,%eax
    8f73:	39 45 fc             	cmp    %eax,-0x4(%rbp)
    8f76:	77 0e                	ja     8f86 <safe_lshift_func_uint32_t_u_s+0x3b>
    8f78:	8b 45 f8             	mov    -0x8(%rbp),%eax
    8f7b:	8b 55 fc             	mov    -0x4(%rbp),%edx
    8f7e:	89 c1                	mov    %eax,%ecx
    8f80:	d3 e2                	shl    %cl,%edx
    8f82:	89 d0                	mov    %edx,%eax
    8f84:	eb 03                	jmp    8f89 <safe_lshift_func_uint32_t_u_s+0x3e>
    8f86:	8b 45 fc             	mov    -0x4(%rbp),%eax
    8f89:	5d                   	pop    %rbp
    8f8a:	c3                   	retq   

0000000000008f8b <safe_lshift_func_uint32_t_u_u>:
    8f8b:	f3 0f 1e fa          	endbr64 
    8f8f:	55                   	push   %rbp
    8f90:	48 89 e5             	mov    %rsp,%rbp
    8f93:	89 7d fc             	mov    %edi,-0x4(%rbp)
    8f96:	89 75 f8             	mov    %esi,-0x8(%rbp)
    8f99:	83 7d f8 1f          	cmpl   $0x1f,-0x8(%rbp)
    8f9d:	77 21                	ja     8fc0 <safe_lshift_func_uint32_t_u_u+0x35>
    8f9f:	8b 45 f8             	mov    -0x8(%rbp),%eax
    8fa2:	ba ff ff ff ff       	mov    $0xffffffff,%edx
    8fa7:	89 c1                	mov    %eax,%ecx
    8fa9:	d3 ea                	shr    %cl,%edx
    8fab:	89 d0                	mov    %edx,%eax
    8fad:	39 45 fc             	cmp    %eax,-0x4(%rbp)
    8fb0:	77 0e                	ja     8fc0 <safe_lshift_func_uint32_t_u_u+0x35>
    8fb2:	8b 45 f8             	mov    -0x8(%rbp),%eax
    8fb5:	8b 55 fc             	mov    -0x4(%rbp),%edx
    8fb8:	89 c1                	mov    %eax,%ecx
    8fba:	d3 e2                	shl    %cl,%edx
    8fbc:	89 d0                	mov    %edx,%eax
    8fbe:	eb 03                	jmp    8fc3 <safe_lshift_func_uint32_t_u_u+0x38>
    8fc0:	8b 45 fc             	mov    -0x4(%rbp),%eax
    8fc3:	5d                   	pop    %rbp
    8fc4:	c3                   	retq   

0000000000008fc5 <safe_rshift_func_uint32_t_u_s>:
    8fc5:	f3 0f 1e fa          	endbr64 
    8fc9:	55                   	push   %rbp
    8fca:	48 89 e5             	mov    %rsp,%rbp
    8fcd:	89 7d fc             	mov    %edi,-0x4(%rbp)
    8fd0:	89 75 f8             	mov    %esi,-0x8(%rbp)
    8fd3:	83 7d f8 00          	cmpl   $0x0,-0x8(%rbp)
    8fd7:	78 14                	js     8fed <safe_rshift_func_uint32_t_u_s+0x28>
    8fd9:	83 7d f8 1f          	cmpl   $0x1f,-0x8(%rbp)
    8fdd:	7f 0e                	jg     8fed <safe_rshift_func_uint32_t_u_s+0x28>
    8fdf:	8b 45 f8             	mov    -0x8(%rbp),%eax
    8fe2:	8b 55 fc             	mov    -0x4(%rbp),%edx
    8fe5:	89 c1                	mov    %eax,%ecx
    8fe7:	d3 ea                	shr    %cl,%edx
    8fe9:	89 d0                	mov    %edx,%eax
    8feb:	eb 03                	jmp    8ff0 <safe_rshift_func_uint32_t_u_s+0x2b>
    8fed:	8b 45 fc             	mov    -0x4(%rbp),%eax
    8ff0:	5d                   	pop    %rbp
    8ff1:	c3                   	retq   

0000000000008ff2 <safe_rshift_func_uint32_t_u_u>:
    8ff2:	f3 0f 1e fa          	endbr64 
    8ff6:	55                   	push   %rbp
    8ff7:	48 89 e5             	mov    %rsp,%rbp
    8ffa:	89 7d fc             	mov    %edi,-0x4(%rbp)
    8ffd:	89 75 f8             	mov    %esi,-0x8(%rbp)
    9000:	83 7d f8 1f          	cmpl   $0x1f,-0x8(%rbp)
    9004:	77 0e                	ja     9014 <safe_rshift_func_uint32_t_u_u+0x22>
    9006:	8b 45 f8             	mov    -0x8(%rbp),%eax
    9009:	8b 55 fc             	mov    -0x4(%rbp),%edx
    900c:	89 c1                	mov    %eax,%ecx
    900e:	d3 ea                	shr    %cl,%edx
    9010:	89 d0                	mov    %edx,%eax
    9012:	eb 03                	jmp    9017 <safe_rshift_func_uint32_t_u_u+0x25>
    9014:	8b 45 fc             	mov    -0x4(%rbp),%eax
    9017:	5d                   	pop    %rbp
    9018:	c3                   	retq   

0000000000009019 <safe_unary_minus_func_uint64_t_u>:
    9019:	f3 0f 1e fa          	endbr64 
    901d:	55                   	push   %rbp
    901e:	48 89 e5             	mov    %rsp,%rbp
    9021:	48 89 7d f8          	mov    %rdi,-0x8(%rbp)
    9025:	48 8b 45 f8          	mov    -0x8(%rbp),%rax
    9029:	48 f7 d8             	neg    %rax
    902c:	5d                   	pop    %rbp
    902d:	c3                   	retq   

000000000000902e <safe_add_func_uint64_t_u_u>:
    902e:	f3 0f 1e fa          	endbr64 
    9032:	55                   	push   %rbp
    9033:	48 89 e5             	mov    %rsp,%rbp
    9036:	48 89 7d f8          	mov    %rdi,-0x8(%rbp)
    903a:	48 89 75 f0          	mov    %rsi,-0x10(%rbp)
    903e:	48 8b 55 f8          	mov    -0x8(%rbp),%rdx
    9042:	48 8b 45 f0          	mov    -0x10(%rbp),%rax
    9046:	48 01 d0             	add    %rdx,%rax
    9049:	5d                   	pop    %rbp
    904a:	c3                   	retq   

000000000000904b <safe_sub_func_uint64_t_u_u>:
    904b:	f3 0f 1e fa          	endbr64 
    904f:	55                   	push   %rbp
    9050:	48 89 e5             	mov    %rsp,%rbp
    9053:	48 89 7d f8          	mov    %rdi,-0x8(%rbp)
    9057:	48 89 75 f0          	mov    %rsi,-0x10(%rbp)
    905b:	48 8b 45 f8          	mov    -0x8(%rbp),%rax
    905f:	48 2b 45 f0          	sub    -0x10(%rbp),%rax
    9063:	5d                   	pop    %rbp
    9064:	c3                   	retq   

0000000000009065 <safe_mul_func_uint64_t_u_u>:
    9065:	f3 0f 1e fa          	endbr64 
    9069:	55                   	push   %rbp
    906a:	48 89 e5             	mov    %rsp,%rbp
    906d:	48 89 7d f8          	mov    %rdi,-0x8(%rbp)
    9071:	48 89 75 f0          	mov    %rsi,-0x10(%rbp)
    9075:	48 8b 45 f8          	mov    -0x8(%rbp),%rax
    9079:	48 0f af 45 f0       	imul   -0x10(%rbp),%rax
    907e:	5d                   	pop    %rbp
    907f:	c3                   	retq   

0000000000009080 <safe_mod_func_uint64_t_u_u>:
    9080:	f3 0f 1e fa          	endbr64 
    9084:	55                   	push   %rbp
    9085:	48 89 e5             	mov    %rsp,%rbp
    9088:	48 89 7d f8          	mov    %rdi,-0x8(%rbp)
    908c:	48 89 75 f0          	mov    %rsi,-0x10(%rbp)
    9090:	48 83 7d f0 00       	cmpq   $0x0,-0x10(%rbp)
    9095:	74 12                	je     90a9 <safe_mod_func_uint64_t_u_u+0x29>
    9097:	48 8b 45 f8          	mov    -0x8(%rbp),%rax
    909b:	ba 00 00 00 00       	mov    $0x0,%edx
    90a0:	48 f7 75 f0          	divq   -0x10(%rbp)
    90a4:	48 89 d0             	mov    %rdx,%rax
    90a7:	eb 04                	jmp    90ad <safe_mod_func_uint64_t_u_u+0x2d>
    90a9:	48 8b 45 f8          	mov    -0x8(%rbp),%rax
    90ad:	5d                   	pop    %rbp
    90ae:	c3                   	retq   

00000000000090af <safe_div_func_uint64_t_u_u>:
    90af:	f3 0f 1e fa          	endbr64 
    90b3:	55                   	push   %rbp
    90b4:	48 89 e5             	mov    %rsp,%rbp
    90b7:	48 89 7d f8          	mov    %rdi,-0x8(%rbp)
    90bb:	48 89 75 f0          	mov    %rsi,-0x10(%rbp)
    90bf:	48 83 7d f0 00       	cmpq   $0x0,-0x10(%rbp)
    90c4:	74 0f                	je     90d5 <safe_div_func_uint64_t_u_u+0x26>
    90c6:	48 8b 45 f8          	mov    -0x8(%rbp),%rax
    90ca:	ba 00 00 00 00       	mov    $0x0,%edx
    90cf:	48 f7 75 f0          	divq   -0x10(%rbp)
    90d3:	eb 04                	jmp    90d9 <safe_div_func_uint64_t_u_u+0x2a>
    90d5:	48 8b 45 f8          	mov    -0x8(%rbp),%rax
    90d9:	5d                   	pop    %rbp
    90da:	c3                   	retq   

00000000000090db <safe_lshift_func_uint64_t_u_s>:
    90db:	f3 0f 1e fa          	endbr64 
    90df:	55                   	push   %rbp
    90e0:	48 89 e5             	mov    %rsp,%rbp
    90e3:	48 89 7d f8          	mov    %rdi,-0x8(%rbp)
    90e7:	89 75 f4             	mov    %esi,-0xc(%rbp)
    90ea:	83 7d f4 00          	cmpl   $0x0,-0xc(%rbp)
    90ee:	78 2f                	js     911f <safe_lshift_func_uint64_t_u_s+0x44>
    90f0:	83 7d f4 1f          	cmpl   $0x1f,-0xc(%rbp)
    90f4:	7f 29                	jg     911f <safe_lshift_func_uint64_t_u_s+0x44>
    90f6:	8b 45 f4             	mov    -0xc(%rbp),%eax
    90f9:	48 c7 c2 ff ff ff ff 	mov    $0xffffffffffffffff,%rdx
    9100:	89 c1                	mov    %eax,%ecx
    9102:	48 d3 ea             	shr    %cl,%rdx
    9105:	48 89 d0             	mov    %rdx,%rax
    9108:	48 39 45 f8          	cmp    %rax,-0x8(%rbp)
    910c:	77 11                	ja     911f <safe_lshift_func_uint64_t_u_s+0x44>
    910e:	8b 45 f4             	mov    -0xc(%rbp),%eax
    9111:	48 8b 55 f8          	mov    -0x8(%rbp),%rdx
    9115:	89 c1                	mov    %eax,%ecx
    9117:	48 d3 e2             	shl    %cl,%rdx
    911a:	48 89 d0             	mov    %rdx,%rax
    911d:	eb 04                	jmp    9123 <safe_lshift_func_uint64_t_u_s+0x48>
    911f:	48 8b 45 f8          	mov    -0x8(%rbp),%rax
    9123:	5d                   	pop    %rbp
    9124:	c3                   	retq   

0000000000009125 <safe_lshift_func_uint64_t_u_u>:
    9125:	f3 0f 1e fa          	endbr64 
    9129:	55                   	push   %rbp
    912a:	48 89 e5             	mov    %rsp,%rbp
    912d:	48 89 7d f8          	mov    %rdi,-0x8(%rbp)
    9131:	89 75 f4             	mov    %esi,-0xc(%rbp)
    9134:	83 7d f4 1f          	cmpl   $0x1f,-0xc(%rbp)
    9138:	77 29                	ja     9163 <safe_lshift_func_uint64_t_u_u+0x3e>
    913a:	8b 45 f4             	mov    -0xc(%rbp),%eax
    913d:	48 c7 c2 ff ff ff ff 	mov    $0xffffffffffffffff,%rdx
    9144:	89 c1                	mov    %eax,%ecx
    9146:	48 d3 ea             	shr    %cl,%rdx
    9149:	48 89 d0             	mov    %rdx,%rax
    914c:	48 39 45 f8          	cmp    %rax,-0x8(%rbp)
    9150:	77 11                	ja     9163 <safe_lshift_func_uint64_t_u_u+0x3e>
    9152:	8b 45 f4             	mov    -0xc(%rbp),%eax
    9155:	48 8b 55 f8          	mov    -0x8(%rbp),%rdx
    9159:	89 c1                	mov    %eax,%ecx
    915b:	48 d3 e2             	shl    %cl,%rdx
    915e:	48 89 d0             	mov    %rdx,%rax
    9161:	eb 04                	jmp    9167 <safe_lshift_func_uint64_t_u_u+0x42>
    9163:	48 8b 45 f8          	mov    -0x8(%rbp),%rax
    9167:	5d                   	pop    %rbp
    9168:	c3                   	retq   

0000000000009169 <safe_rshift_func_uint64_t_u_s>:
    9169:	f3 0f 1e fa          	endbr64 
    916d:	55                   	push   %rbp
    916e:	48 89 e5             	mov    %rsp,%rbp
    9171:	48 89 7d f8          	mov    %rdi,-0x8(%rbp)
    9175:	89 75 f4             	mov    %esi,-0xc(%rbp)
    9178:	83 7d f4 00          	cmpl   $0x0,-0xc(%rbp)
    917c:	78 17                	js     9195 <safe_rshift_func_uint64_t_u_s+0x2c>
    917e:	83 7d f4 1f          	cmpl   $0x1f,-0xc(%rbp)
    9182:	7f 11                	jg     9195 <safe_rshift_func_uint64_t_u_s+0x2c>
    9184:	8b 45 f4             	mov    -0xc(%rbp),%eax
    9187:	48 8b 55 f8          	mov    -0x8(%rbp),%rdx
    918b:	89 c1                	mov    %eax,%ecx
    918d:	48 d3 ea             	shr    %cl,%rdx
    9190:	48 89 d0             	mov    %rdx,%rax
    9193:	eb 04                	jmp    9199 <safe_rshift_func_uint64_t_u_s+0x30>
    9195:	48 8b 45 f8          	mov    -0x8(%rbp),%rax
    9199:	5d                   	pop    %rbp
    919a:	c3                   	retq   

000000000000919b <safe_rshift_func_uint64_t_u_u>:
    919b:	f3 0f 1e fa          	endbr64 
    919f:	55                   	push   %rbp
    91a0:	48 89 e5             	mov    %rsp,%rbp
    91a3:	48 89 7d f8          	mov    %rdi,-0x8(%rbp)
    91a7:	89 75 f4             	mov    %esi,-0xc(%rbp)
    91aa:	83 7d f4 1f          	cmpl   $0x1f,-0xc(%rbp)
    91ae:	77 11                	ja     91c1 <safe_rshift_func_uint64_t_u_u+0x26>
    91b0:	8b 45 f4             	mov    -0xc(%rbp),%eax
    91b3:	48 8b 55 f8          	mov    -0x8(%rbp),%rdx
    91b7:	89 c1                	mov    %eax,%ecx
    91b9:	48 d3 ea             	shr    %cl,%rdx
    91bc:	48 89 d0             	mov    %rdx,%rax
    91bf:	eb 04                	jmp    91c5 <safe_rshift_func_uint64_t_u_u+0x2a>
    91c1:	48 8b 45 f8          	mov    -0x8(%rbp),%rax
    91c5:	5d                   	pop    %rbp
    91c6:	c3                   	retq   

00000000000091c7 <safe_add_func_float_f_f>:
    91c7:	f3 0f 1e fa          	endbr64 
    91cb:	55                   	push   %rbp
    91cc:	48 89 e5             	mov    %rsp,%rbp
    91cf:	f3 0f 11 45 fc       	movss  %xmm0,-0x4(%rbp)
    91d4:	f3 0f 11 4d f8       	movss  %xmm1,-0x8(%rbp)
    91d9:	f3 0f 10 4d fc       	movss  -0x4(%rbp),%xmm1
    91de:	f3 0f 10 05 56 d6 00 	movss  0xd656(%rip),%xmm0        # 1683c <l_1787.4672+0x5c>
    91e5:	00 
    91e6:	f3 0f 59 c8          	mulss  %xmm0,%xmm1
    91ea:	f3 0f 10 55 f8       	movss  -0x8(%rbp),%xmm2
    91ef:	f3 0f 10 05 45 d6 00 	movss  0xd645(%rip),%xmm0        # 1683c <l_1787.4672+0x5c>
    91f6:	00 
    91f7:	f3 0f 59 c2          	mulss  %xmm2,%xmm0
    91fb:	f3 0f 58 c1          	addss  %xmm1,%xmm0
    91ff:	f3 0f 10 0d 39 d6 00 	movss  0xd639(%rip),%xmm1        # 16840 <l_1787.4672+0x60>
    9206:	00 
    9207:	0f 54 c1             	andps  %xmm1,%xmm0
    920a:	0f 2f 05 3f d6 00 00 	comiss 0xd63f(%rip),%xmm0        # 16850 <l_1787.4672+0x70>
    9211:	76 07                	jbe    921a <safe_add_func_float_f_f+0x53>
    9213:	f3 0f 10 45 fc       	movss  -0x4(%rbp),%xmm0
    9218:	eb 0a                	jmp    9224 <safe_add_func_float_f_f+0x5d>
    921a:	f3 0f 10 45 fc       	movss  -0x4(%rbp),%xmm0
    921f:	f3 0f 58 45 f8       	addss  -0x8(%rbp),%xmm0
    9224:	5d                   	pop    %rbp
    9225:	c3                   	retq   

0000000000009226 <safe_sub_func_float_f_f>:
    9226:	f3 0f 1e fa          	endbr64 
    922a:	55                   	push   %rbp
    922b:	48 89 e5             	mov    %rsp,%rbp
    922e:	f3 0f 11 45 fc       	movss  %xmm0,-0x4(%rbp)
    9233:	f3 0f 11 4d f8       	movss  %xmm1,-0x8(%rbp)
    9238:	f3 0f 10 4d fc       	movss  -0x4(%rbp),%xmm1
    923d:	f3 0f 10 05 f7 d5 00 	movss  0xd5f7(%rip),%xmm0        # 1683c <l_1787.4672+0x5c>
    9244:	00 
    9245:	f3 0f 59 c1          	mulss  %xmm1,%xmm0
    9249:	f3 0f 10 55 f8       	movss  -0x8(%rbp),%xmm2
    924e:	f3 0f 10 0d e6 d5 00 	movss  0xd5e6(%rip),%xmm1        # 1683c <l_1787.4672+0x5c>
    9255:	00 
    9256:	f3 0f 59 ca          	mulss  %xmm2,%xmm1
    925a:	f3 0f 5c c1          	subss  %xmm1,%xmm0
    925e:	f3 0f 10 0d da d5 00 	movss  0xd5da(%rip),%xmm1        # 16840 <l_1787.4672+0x60>
    9265:	00 
    9266:	0f 54 c1             	andps  %xmm1,%xmm0
    9269:	0f 2f 05 e0 d5 00 00 	comiss 0xd5e0(%rip),%xmm0        # 16850 <l_1787.4672+0x70>
    9270:	76 07                	jbe    9279 <safe_sub_func_float_f_f+0x53>
    9272:	f3 0f 10 45 fc       	movss  -0x4(%rbp),%xmm0
    9277:	eb 0a                	jmp    9283 <safe_sub_func_float_f_f+0x5d>
    9279:	f3 0f 10 45 fc       	movss  -0x4(%rbp),%xmm0
    927e:	f3 0f 5c 45 f8       	subss  -0x8(%rbp),%xmm0
    9283:	5d                   	pop    %rbp
    9284:	c3                   	retq   

0000000000009285 <safe_mul_func_float_f_f>:
    9285:	f3 0f 1e fa          	endbr64 
    9289:	55                   	push   %rbp
    928a:	48 89 e5             	mov    %rsp,%rbp
    928d:	f3 0f 11 45 fc       	movss  %xmm0,-0x4(%rbp)
    9292:	f3 0f 11 4d f8       	movss  %xmm1,-0x8(%rbp)
    9297:	f3 0f 10 4d fc       	movss  -0x4(%rbp),%xmm1
    929c:	f3 0f 10 05 b0 d5 00 	movss  0xd5b0(%rip),%xmm0        # 16854 <l_1787.4672+0x74>
    92a3:	00 
    92a4:	f3 0f 59 c8          	mulss  %xmm0,%xmm1
    92a8:	f3 0f 10 55 f8       	movss  -0x8(%rbp),%xmm2
    92ad:	f3 0f 10 05 a3 d5 00 	movss  0xd5a3(%rip),%xmm0        # 16858 <l_1787.4672+0x78>
    92b4:	00 
    92b5:	f3 0f 59 c2          	mulss  %xmm2,%xmm0
    92b9:	f3 0f 59 c1          	mulss  %xmm1,%xmm0
    92bd:	f3 0f 10 0d 7b d5 00 	movss  0xd57b(%rip),%xmm1        # 16840 <l_1787.4672+0x60>
    92c4:	00 
    92c5:	0f 54 c1             	andps  %xmm1,%xmm0
    92c8:	0f 2f 05 8d d5 00 00 	comiss 0xd58d(%rip),%xmm0        # 1685c <l_1787.4672+0x7c>
    92cf:	76 07                	jbe    92d8 <safe_mul_func_float_f_f+0x53>
    92d1:	f3 0f 10 45 fc       	movss  -0x4(%rbp),%xmm0
    92d6:	eb 0a                	jmp    92e2 <safe_mul_func_float_f_f+0x5d>
    92d8:	f3 0f 10 45 fc       	movss  -0x4(%rbp),%xmm0
    92dd:	f3 0f 59 45 f8       	mulss  -0x8(%rbp),%xmm0
    92e2:	5d                   	pop    %rbp
    92e3:	c3                   	retq   

00000000000092e4 <safe_div_func_float_f_f>:
    92e4:	f3 0f 1e fa          	endbr64 
    92e8:	55                   	push   %rbp
    92e9:	48 89 e5             	mov    %rsp,%rbp
    92ec:	f3 0f 11 45 fc       	movss  %xmm0,-0x4(%rbp)
    92f1:	f3 0f 11 4d f8       	movss  %xmm1,-0x8(%rbp)
    92f6:	f3 0f 10 45 f8       	movss  -0x8(%rbp),%xmm0
    92fb:	f3 0f 10 0d 3d d5 00 	movss  0xd53d(%rip),%xmm1        # 16840 <l_1787.4672+0x60>
    9302:	00 
    9303:	0f 54 c8             	andps  %xmm0,%xmm1
    9306:	f3 0f 10 05 52 d5 00 	movss  0xd552(%rip),%xmm0        # 16860 <l_1787.4672+0x80>
    930d:	00 
    930e:	0f 2f c1             	comiss %xmm1,%xmm0
    9311:	0f 97 c0             	seta   %al
    9314:	83 f0 01             	xor    $0x1,%eax
    9317:	84 c0                	test   %al,%al
    9319:	75 56                	jne    9371 <safe_div_func_float_f_f+0x8d>
    931b:	66 0f ef c0          	pxor   %xmm0,%xmm0
    931f:	0f 2e 45 f8          	ucomiss -0x8(%rbp),%xmm0
    9323:	7a 0a                	jp     932f <safe_div_func_float_f_f+0x4b>
    9325:	66 0f ef c0          	pxor   %xmm0,%xmm0
    9329:	0f 2e 45 f8          	ucomiss -0x8(%rbp),%xmm0
    932d:	74 4e                	je     937d <safe_div_func_float_f_f+0x99>
    932f:	f3 0f 10 4d fc       	movss  -0x4(%rbp),%xmm1
    9334:	f3 0f 10 05 28 d5 00 	movss  0xd528(%rip),%xmm0        # 16864 <l_1787.4672+0x84>
    933b:	00 
    933c:	f3 0f 59 c1          	mulss  %xmm1,%xmm0
    9340:	f3 0f 10 55 f8       	movss  -0x8(%rbp),%xmm2
    9345:	f3 0f 10 0d 1b d5 00 	movss  0xd51b(%rip),%xmm1        # 16868 <l_1787.4672+0x88>
    934c:	00 
    934d:	f3 0f 59 ca          	mulss  %xmm2,%xmm1
    9351:	f3 0f 5e c1          	divss  %xmm1,%xmm0
    9355:	f3 0f 10 0d e3 d4 00 	movss  0xd4e3(%rip),%xmm1        # 16840 <l_1787.4672+0x60>
    935c:	00 
    935d:	0f 54 c1             	andps  %xmm1,%xmm0
    9360:	0f 2f 05 05 d5 00 00 	comiss 0xd505(%rip),%xmm0        # 1686c <l_1787.4672+0x8c>
    9367:	0f 97 c0             	seta   %al
    936a:	83 f0 01             	xor    $0x1,%eax
    936d:	84 c0                	test   %al,%al
    936f:	74 0c                	je     937d <safe_div_func_float_f_f+0x99>
    9371:	f3 0f 10 45 fc       	movss  -0x4(%rbp),%xmm0
    9376:	f3 0f 5e 45 f8       	divss  -0x8(%rbp),%xmm0
    937b:	eb 05                	jmp    9382 <safe_div_func_float_f_f+0x9e>
    937d:	f3 0f 10 45 fc       	movss  -0x4(%rbp),%xmm0
    9382:	5d                   	pop    %rbp
    9383:	c3                   	retq   

0000000000009384 <safe_add_func_double_f_f>:
    9384:	f3 0f 1e fa          	endbr64 
    9388:	55                   	push   %rbp
    9389:	48 89 e5             	mov    %rsp,%rbp
    938c:	f2 0f 11 45 f8       	movsd  %xmm0,-0x8(%rbp)
    9391:	f2 0f 11 4d f0       	movsd  %xmm1,-0x10(%rbp)
    9396:	f2 0f 10 4d f8       	movsd  -0x8(%rbp),%xmm1
    939b:	f2 0f 10 05 cd d4 00 	movsd  0xd4cd(%rip),%xmm0        # 16870 <l_1787.4672+0x90>
    93a2:	00 
    93a3:	f2 0f 59 c8          	mulsd  %xmm0,%xmm1
    93a7:	f2 0f 10 55 f0       	movsd  -0x10(%rbp),%xmm2
    93ac:	f2 0f 10 05 bc d4 00 	movsd  0xd4bc(%rip),%xmm0        # 16870 <l_1787.4672+0x90>
    93b3:	00 
    93b4:	f2 0f 59 c2          	mulsd  %xmm2,%xmm0
    93b8:	f2 0f 58 c1          	addsd  %xmm1,%xmm0
    93bc:	f3 0f 7e 0d bc d4 00 	movq   0xd4bc(%rip),%xmm1        # 16880 <l_1787.4672+0xa0>
    93c3:	00 
    93c4:	66 0f 54 c1          	andpd  %xmm1,%xmm0
    93c8:	66 0f 2f 05 c0 d4 00 	comisd 0xd4c0(%rip),%xmm0        # 16890 <l_1787.4672+0xb0>
    93cf:	00 
    93d0:	76 07                	jbe    93d9 <safe_add_func_double_f_f+0x55>
    93d2:	f2 0f 10 45 f8       	movsd  -0x8(%rbp),%xmm0
    93d7:	eb 0a                	jmp    93e3 <safe_add_func_double_f_f+0x5f>
    93d9:	f2 0f 10 45 f8       	movsd  -0x8(%rbp),%xmm0
    93de:	f2 0f 58 45 f0       	addsd  -0x10(%rbp),%xmm0
    93e3:	5d                   	pop    %rbp
    93e4:	c3                   	retq   

00000000000093e5 <safe_sub_func_double_f_f>:
    93e5:	f3 0f 1e fa          	endbr64 
    93e9:	55                   	push   %rbp
    93ea:	48 89 e5             	mov    %rsp,%rbp
    93ed:	f2 0f 11 45 f8       	movsd  %xmm0,-0x8(%rbp)
    93f2:	f2 0f 11 4d f0       	movsd  %xmm1,-0x10(%rbp)
    93f7:	f2 0f 10 4d f8       	movsd  -0x8(%rbp),%xmm1
    93fc:	f2 0f 10 05 6c d4 00 	movsd  0xd46c(%rip),%xmm0        # 16870 <l_1787.4672+0x90>
    9403:	00 
    9404:	f2 0f 59 c1          	mulsd  %xmm1,%xmm0
    9408:	f2 0f 10 55 f0       	movsd  -0x10(%rbp),%xmm2
    940d:	f2 0f 10 0d 5b d4 00 	movsd  0xd45b(%rip),%xmm1        # 16870 <l_1787.4672+0x90>
    9414:	00 
    9415:	f2 0f 59 ca          	mulsd  %xmm2,%xmm1
    9419:	f2 0f 5c c1          	subsd  %xmm1,%xmm0
    941d:	f3 0f 7e 0d 5b d4 00 	movq   0xd45b(%rip),%xmm1        # 16880 <l_1787.4672+0xa0>
    9424:	00 
    9425:	66 0f 54 c1          	andpd  %xmm1,%xmm0
    9429:	66 0f 2f 05 5f d4 00 	comisd 0xd45f(%rip),%xmm0        # 16890 <l_1787.4672+0xb0>
    9430:	00 
    9431:	76 07                	jbe    943a <safe_sub_func_double_f_f+0x55>
    9433:	f2 0f 10 45 f8       	movsd  -0x8(%rbp),%xmm0
    9438:	eb 0a                	jmp    9444 <safe_sub_func_double_f_f+0x5f>
    943a:	f2 0f 10 45 f8       	movsd  -0x8(%rbp),%xmm0
    943f:	f2 0f 5c 45 f0       	subsd  -0x10(%rbp),%xmm0
    9444:	5d                   	pop    %rbp
    9445:	c3                   	retq   

0000000000009446 <safe_mul_func_double_f_f>:
    9446:	f3 0f 1e fa          	endbr64 
    944a:	55                   	push   %rbp
    944b:	48 89 e5             	mov    %rsp,%rbp
    944e:	f2 0f 11 45 f8       	movsd  %xmm0,-0x8(%rbp)
    9453:	f2 0f 11 4d f0       	movsd  %xmm1,-0x10(%rbp)
    9458:	f2 0f 10 4d f8       	movsd  -0x8(%rbp),%xmm1
    945d:	f2 0f 10 05 33 d4 00 	movsd  0xd433(%rip),%xmm0        # 16898 <l_1787.4672+0xb8>
    9464:	00 
    9465:	f2 0f 59 c8          	mulsd  %xmm0,%xmm1
    9469:	f2 0f 10 55 f0       	movsd  -0x10(%rbp),%xmm2
    946e:	f2 0f 10 05 2a d4 00 	movsd  0xd42a(%rip),%xmm0        # 168a0 <l_1787.4672+0xc0>
    9475:	00 
    9476:	f2 0f 59 c2          	mulsd  %xmm2,%xmm0
    947a:	f2 0f 59 c1          	mulsd  %xmm1,%xmm0
    947e:	f3 0f 7e 0d fa d3 00 	movq   0xd3fa(%rip),%xmm1        # 16880 <l_1787.4672+0xa0>
    9485:	00 
    9486:	66 0f 54 c1          	andpd  %xmm1,%xmm0
    948a:	66 0f 2f 05 16 d4 00 	comisd 0xd416(%rip),%xmm0        # 168a8 <l_1787.4672+0xc8>
    9491:	00 
    9492:	76 07                	jbe    949b <safe_mul_func_double_f_f+0x55>
    9494:	f2 0f 10 45 f8       	movsd  -0x8(%rbp),%xmm0
    9499:	eb 0a                	jmp    94a5 <safe_mul_func_double_f_f+0x5f>
    949b:	f2 0f 10 45 f8       	movsd  -0x8(%rbp),%xmm0
    94a0:	f2 0f 59 45 f0       	mulsd  -0x10(%rbp),%xmm0
    94a5:	5d                   	pop    %rbp
    94a6:	c3                   	retq   

00000000000094a7 <safe_div_func_double_f_f>:
    94a7:	f3 0f 1e fa          	endbr64 
    94ab:	55                   	push   %rbp
    94ac:	48 89 e5             	mov    %rsp,%rbp
    94af:	f2 0f 11 45 f8       	movsd  %xmm0,-0x8(%rbp)
    94b4:	f2 0f 11 4d f0       	movsd  %xmm1,-0x10(%rbp)
    94b9:	f2 0f 10 45 f0       	movsd  -0x10(%rbp),%xmm0
    94be:	f3 0f 7e 0d ba d3 00 	movq   0xd3ba(%rip),%xmm1        # 16880 <l_1787.4672+0xa0>
    94c5:	00 
    94c6:	66 0f 54 c8          	andpd  %xmm0,%xmm1
    94ca:	f2 0f 10 05 de d3 00 	movsd  0xd3de(%rip),%xmm0        # 168b0 <l_1787.4672+0xd0>
    94d1:	00 
    94d2:	66 0f 2f c1          	comisd %xmm1,%xmm0
    94d6:	0f 97 c0             	seta   %al
    94d9:	83 f0 01             	xor    $0x1,%eax
    94dc:	84 c0                	test   %al,%al
    94de:	75 5a                	jne    953a <safe_div_func_double_f_f+0x93>
    94e0:	66 0f ef c0          	pxor   %xmm0,%xmm0
    94e4:	66 0f 2e 45 f0       	ucomisd -0x10(%rbp),%xmm0
    94e9:	7a 0b                	jp     94f6 <safe_div_func_double_f_f+0x4f>
    94eb:	66 0f ef c0          	pxor   %xmm0,%xmm0
    94ef:	66 0f 2e 45 f0       	ucomisd -0x10(%rbp),%xmm0
    94f4:	74 50                	je     9546 <safe_div_func_double_f_f+0x9f>
    94f6:	f2 0f 10 4d f8       	movsd  -0x8(%rbp),%xmm1
    94fb:	f2 0f 10 05 b5 d3 00 	movsd  0xd3b5(%rip),%xmm0        # 168b8 <l_1787.4672+0xd8>
    9502:	00 
    9503:	f2 0f 59 c1          	mulsd  %xmm1,%xmm0
    9507:	f2 0f 10 55 f0       	movsd  -0x10(%rbp),%xmm2
    950c:	f2 0f 10 0d ac d3 00 	movsd  0xd3ac(%rip),%xmm1        # 168c0 <l_1787.4672+0xe0>
    9513:	00 
    9514:	f2 0f 59 ca          	mulsd  %xmm2,%xmm1
    9518:	f2 0f 5e c1          	divsd  %xmm1,%xmm0
    951c:	f3 0f 7e 0d 5c d3 00 	movq   0xd35c(%rip),%xmm1        # 16880 <l_1787.4672+0xa0>
    9523:	00 
    9524:	66 0f 54 c1          	andpd  %xmm1,%xmm0
    9528:	66 0f 2f 05 98 d3 00 	comisd 0xd398(%rip),%xmm0        # 168c8 <l_1787.4672+0xe8>
    952f:	00 
    9530:	0f 97 c0             	seta   %al
    9533:	83 f0 01             	xor    $0x1,%eax
    9536:	84 c0                	test   %al,%al
    9538:	74 0c                	je     9546 <safe_div_func_double_f_f+0x9f>
    953a:	f2 0f 10 45 f8       	movsd  -0x8(%rbp),%xmm0
    953f:	f2 0f 5e 45 f0       	divsd  -0x10(%rbp),%xmm0
    9544:	eb 05                	jmp    954b <safe_div_func_double_f_f+0xa4>
    9546:	f2 0f 10 45 f8       	movsd  -0x8(%rbp),%xmm0
    954b:	5d                   	pop    %rbp
    954c:	c3                   	retq   

000000000000954d <safe_convert_func_float_to_int32_t>:
    954d:	f3 0f 1e fa          	endbr64 
    9551:	55                   	push   %rbp
    9552:	48 89 e5             	mov    %rsp,%rbp
    9555:	f3 0f 11 45 fc       	movss  %xmm0,-0x4(%rbp)
    955a:	f3 0f 10 05 6e d3 00 	movss  0xd36e(%rip),%xmm0        # 168d0 <l_1787.4672+0xf0>
    9561:	00 
    9562:	0f 2f 45 fc          	comiss -0x4(%rbp),%xmm0
    9566:	0f 93 c0             	setae  %al
    9569:	83 f0 01             	xor    $0x1,%eax
    956c:	84 c0                	test   %al,%al
    956e:	74 21                	je     9591 <safe_convert_func_float_to_int32_t+0x44>
    9570:	f3 0f 10 45 fc       	movss  -0x4(%rbp),%xmm0
    9575:	0f 2f 05 58 d3 00 00 	comiss 0xd358(%rip),%xmm0        # 168d4 <l_1787.4672+0xf4>
    957c:	0f 93 c0             	setae  %al
    957f:	83 f0 01             	xor    $0x1,%eax
    9582:	84 c0                	test   %al,%al
    9584:	74 0b                	je     9591 <safe_convert_func_float_to_int32_t+0x44>
    9586:	f3 0f 10 45 fc       	movss  -0x4(%rbp),%xmm0
    958b:	f3 0f 2c c0          	cvttss2si %xmm0,%eax
    958f:	eb 05                	jmp    9596 <safe_convert_func_float_to_int32_t+0x49>
    9591:	b8 ff ff ff 7f       	mov    $0x7fffffff,%eax
    9596:	5d                   	pop    %rbp
    9597:	c3                   	retq   

0000000000009598 <crc32_gentab>:
    9598:	f3 0f 1e fa          	endbr64 
    959c:	55                   	push   %rbp
    959d:	48 89 e5             	mov    %rsp,%rbp
    95a0:	c7 45 fc 20 83 b8 ed 	movl   $0xedb88320,-0x4(%rbp)
    95a7:	c7 45 f4 00 00 00 00 	movl   $0x0,-0xc(%rbp)
    95ae:	eb 51                	jmp    9601 <crc32_gentab+0x69>
    95b0:	8b 45 f4             	mov    -0xc(%rbp),%eax
    95b3:	89 45 f0             	mov    %eax,-0x10(%rbp)
    95b6:	c7 45 f8 08 00 00 00 	movl   $0x8,-0x8(%rbp)
    95bd:	eb 1e                	jmp    95dd <crc32_gentab+0x45>
    95bf:	8b 45 f0             	mov    -0x10(%rbp),%eax
    95c2:	83 e0 01             	and    $0x1,%eax
    95c5:	85 c0                	test   %eax,%eax
    95c7:	74 0d                	je     95d6 <crc32_gentab+0x3e>
    95c9:	8b 45 f0             	mov    -0x10(%rbp),%eax
    95cc:	d1 e8                	shr    %eax
    95ce:	33 45 fc             	xor    -0x4(%rbp),%eax
    95d1:	89 45 f0             	mov    %eax,-0x10(%rbp)
    95d4:	eb 03                	jmp    95d9 <crc32_gentab+0x41>
    95d6:	d1 6d f0             	shrl   -0x10(%rbp)
    95d9:	83 6d f8 01          	subl   $0x1,-0x8(%rbp)
    95dd:	83 7d f8 00          	cmpl   $0x0,-0x8(%rbp)
    95e1:	7f dc                	jg     95bf <crc32_gentab+0x27>
    95e3:	8b 45 f4             	mov    -0xc(%rbp),%eax
    95e6:	48 98                	cltq   
    95e8:	48 8d 0c 85 00 00 00 	lea    0x0(,%rax,4),%rcx
    95ef:	00 
    95f0:	48 8d 15 89 31 01 00 	lea    0x13189(%rip),%rdx        # 1c780 <crc32_tab>
    95f7:	8b 45 f0             	mov    -0x10(%rbp),%eax
    95fa:	89 04 11             	mov    %eax,(%rcx,%rdx,1)
    95fd:	83 45 f4 01          	addl   $0x1,-0xc(%rbp)
    9601:	81 7d f4 ff 00 00 00 	cmpl   $0xff,-0xc(%rbp)
    9608:	7e a6                	jle    95b0 <crc32_gentab+0x18>
    960a:	90                   	nop
    960b:	90                   	nop
    960c:	5d                   	pop    %rbp
    960d:	c3                   	retq   

000000000000960e <crc32_byte>:
    960e:	f3 0f 1e fa          	endbr64 
    9612:	55                   	push   %rbp
    9613:	48 89 e5             	mov    %rsp,%rbp
    9616:	89 f8                	mov    %edi,%eax
    9618:	88 45 fc             	mov    %al,-0x4(%rbp)
    961b:	8b 05 ff f9 00 00    	mov    0xf9ff(%rip),%eax        # 19020 <crc32_context>
    9621:	c1 e8 08             	shr    $0x8,%eax
    9624:	89 c1                	mov    %eax,%ecx
    9626:	0f b6 55 fc          	movzbl -0x4(%rbp),%edx
    962a:	8b 05 f0 f9 00 00    	mov    0xf9f0(%rip),%eax        # 19020 <crc32_context>
    9630:	31 d0                	xor    %edx,%eax
    9632:	0f b6 c0             	movzbl %al,%eax
    9635:	89 c0                	mov    %eax,%eax
    9637:	48 8d 14 85 00 00 00 	lea    0x0(,%rax,4),%rdx
    963e:	00 
    963f:	48 8d 05 3a 31 01 00 	lea    0x1313a(%rip),%rax        # 1c780 <crc32_tab>
    9646:	8b 04 02             	mov    (%rdx,%rax,1),%eax
    9649:	31 c8                	xor    %ecx,%eax
    964b:	89 05 cf f9 00 00    	mov    %eax,0xf9cf(%rip)        # 19020 <crc32_context>
    9651:	90                   	nop
    9652:	5d                   	pop    %rbp
    9653:	c3                   	retq   

0000000000009654 <crc32_8bytes>:
    9654:	f3 0f 1e fa          	endbr64 
    9658:	55                   	push   %rbp
    9659:	48 89 e5             	mov    %rsp,%rbp
    965c:	48 83 ec 08          	sub    $0x8,%rsp
    9660:	48 89 7d f8          	mov    %rdi,-0x8(%rbp)
    9664:	48 8b 45 f8          	mov    -0x8(%rbp),%rax
    9668:	0f b6 c0             	movzbl %al,%eax
    966b:	89 c7                	mov    %eax,%edi
    966d:	e8 9c ff ff ff       	callq  960e <crc32_byte>
    9672:	48 8b 45 f8          	mov    -0x8(%rbp),%rax
    9676:	48 c1 e8 08          	shr    $0x8,%rax
    967a:	0f b6 c0             	movzbl %al,%eax
    967d:	89 c7                	mov    %eax,%edi
    967f:	e8 8a ff ff ff       	callq  960e <crc32_byte>
    9684:	48 8b 45 f8          	mov    -0x8(%rbp),%rax
    9688:	48 c1 e8 10          	shr    $0x10,%rax
    968c:	0f b6 c0             	movzbl %al,%eax
    968f:	89 c7                	mov    %eax,%edi
    9691:	e8 78 ff ff ff       	callq  960e <crc32_byte>
    9696:	48 8b 45 f8          	mov    -0x8(%rbp),%rax
    969a:	48 c1 e8 18          	shr    $0x18,%rax
    969e:	0f b6 c0             	movzbl %al,%eax
    96a1:	89 c7                	mov    %eax,%edi
    96a3:	e8 66 ff ff ff       	callq  960e <crc32_byte>
    96a8:	48 8b 45 f8          	mov    -0x8(%rbp),%rax
    96ac:	48 c1 e8 20          	shr    $0x20,%rax
    96b0:	0f b6 c0             	movzbl %al,%eax
    96b3:	89 c7                	mov    %eax,%edi
    96b5:	e8 54 ff ff ff       	callq  960e <crc32_byte>
    96ba:	48 8b 45 f8          	mov    -0x8(%rbp),%rax
    96be:	48 c1 e8 28          	shr    $0x28,%rax
    96c2:	0f b6 c0             	movzbl %al,%eax
    96c5:	89 c7                	mov    %eax,%edi
    96c7:	e8 42 ff ff ff       	callq  960e <crc32_byte>
    96cc:	48 8b 45 f8          	mov    -0x8(%rbp),%rax
    96d0:	48 c1 e8 30          	shr    $0x30,%rax
    96d4:	0f b6 c0             	movzbl %al,%eax
    96d7:	89 c7                	mov    %eax,%edi
    96d9:	e8 30 ff ff ff       	callq  960e <crc32_byte>
    96de:	48 8b 45 f8          	mov    -0x8(%rbp),%rax
    96e2:	48 c1 e8 38          	shr    $0x38,%rax
    96e6:	0f b6 c0             	movzbl %al,%eax
    96e9:	89 c7                	mov    %eax,%edi
    96eb:	e8 1e ff ff ff       	callq  960e <crc32_byte>
    96f0:	90                   	nop
    96f1:	c9                   	leaveq 
    96f2:	c3                   	retq   

00000000000096f3 <transparent_crc>:
    96f3:	f3 0f 1e fa          	endbr64 
    96f7:	55                   	push   %rbp
    96f8:	48 89 e5             	mov    %rsp,%rbp
    96fb:	48 83 ec 20          	sub    $0x20,%rsp
    96ff:	48 89 7d f8          	mov    %rdi,-0x8(%rbp)
    9703:	48 89 75 f0          	mov    %rsi,-0x10(%rbp)
    9707:	89 55 ec             	mov    %edx,-0x14(%rbp)
    970a:	48 8b 45 f8          	mov    -0x8(%rbp),%rax
    970e:	48 89 c7             	mov    %rax,%rdi
    9711:	e8 3e ff ff ff       	callq  9654 <crc32_8bytes>
    9716:	83 7d ec 00          	cmpl   $0x0,-0x14(%rbp)
    971a:	74 22                	je     973e <transparent_crc+0x4b>
    971c:	8b 05 fe f8 00 00    	mov    0xf8fe(%rip),%eax        # 19020 <crc32_context>
    9722:	f7 d0                	not    %eax
    9724:	89 c2                	mov    %eax,%edx
    9726:	48 8b 45 f0          	mov    -0x10(%rbp),%rax
    972a:	48 89 c6             	mov    %rax,%rsi
    972d:	48 8d 3d fc b8 00 00 	lea    0xb8fc(%rip),%rdi        # 15030 <_IO_stdin_used+0x30>
    9734:	b8 00 00 00 00       	mov    $0x0,%eax
    9739:	e8 42 e9 ff ff       	callq  8080 <printf@plt>
    973e:	90                   	nop
    973f:	c9                   	leaveq 
    9740:	c3                   	retq   

0000000000009741 <transparent_crc_bytes>:
    9741:	f3 0f 1e fa          	endbr64 
    9745:	55                   	push   %rbp
    9746:	48 89 e5             	mov    %rsp,%rbp
    9749:	48 83 ec 30          	sub    $0x30,%rsp
    974d:	48 89 7d e8          	mov    %rdi,-0x18(%rbp)
    9751:	89 75 e4             	mov    %esi,-0x1c(%rbp)
    9754:	48 89 55 d8          	mov    %rdx,-0x28(%rbp)
    9758:	89 4d e0             	mov    %ecx,-0x20(%rbp)
    975b:	c7 45 fc 00 00 00 00 	movl   $0x0,-0x4(%rbp)
    9762:	eb 1e                	jmp    9782 <transparent_crc_bytes+0x41>
    9764:	8b 45 fc             	mov    -0x4(%rbp),%eax
    9767:	48 63 d0             	movslq %eax,%rdx
    976a:	48 8b 45 e8          	mov    -0x18(%rbp),%rax
    976e:	48 01 d0             	add    %rdx,%rax
    9771:	0f b6 00             	movzbl (%rax),%eax
    9774:	0f b6 c0             	movzbl %al,%eax
    9777:	89 c7                	mov    %eax,%edi
    9779:	e8 90 fe ff ff       	callq  960e <crc32_byte>
    977e:	83 45 fc 01          	addl   $0x1,-0x4(%rbp)
    9782:	8b 45 fc             	mov    -0x4(%rbp),%eax
    9785:	3b 45 e4             	cmp    -0x1c(%rbp),%eax
    9788:	7c da                	jl     9764 <transparent_crc_bytes+0x23>
    978a:	83 7d e0 00          	cmpl   $0x0,-0x20(%rbp)
    978e:	74 22                	je     97b2 <transparent_crc_bytes+0x71>
    9790:	8b 05 8a f8 00 00    	mov    0xf88a(%rip),%eax        # 19020 <crc32_context>
    9796:	f7 d0                	not    %eax
    9798:	89 c2                	mov    %eax,%edx
    979a:	48 8b 45 d8          	mov    -0x28(%rbp),%rax
    979e:	48 89 c6             	mov    %rax,%rsi
    97a1:	48 8d 3d 88 b8 00 00 	lea    0xb888(%rip),%rdi        # 15030 <_IO_stdin_used+0x30>
    97a8:	b8 00 00 00 00       	mov    $0x0,%eax
    97ad:	e8 ce e8 ff ff       	callq  8080 <printf@plt>
    97b2:	90                   	nop
    97b3:	c9                   	leaveq 
    97b4:	c3                   	retq   

00000000000097b5 <func_1>:
    97b5:	f3 0f 1e fa          	endbr64 
    97b9:	55                   	push   %rbp
    97ba:	48 89 e5             	mov    %rsp,%rbp
    97bd:	41 57                	push   %r15
    97bf:	41 56                	push   %r14
    97c1:	41 55                	push   %r13
    97c3:	41 54                	push   %r12
    97c5:	53                   	push   %rbx
    97c6:	48 81 ec 00 10 00 00 	sub    $0x1000,%rsp
    97cd:	48 83 0c 24 00       	orq    $0x0,(%rsp)
    97d2:	48 81 ec 98 0a 00 00 	sub    $0xa98,%rsp
    97d9:	64 48 8b 04 25 28 00 	mov    %fs:0x28,%rax
    97e0:	00 00 
    97e2:	48 89 45 c8          	mov    %rax,-0x38(%rbp)
    97e6:	31 c0                	xor    %eax,%eax
    97e8:	c7 85 08 e6 ff ff 71 	movl   $0x73672d71,-0x19f8(%rbp)
    97ef:	2d 67 73 
    97f2:	48 c7 85 70 e7 ff ff 	movq   $0x0,-0x1890(%rbp)
    97f9:	00 00 00 00 
    97fd:	48 8d 85 00 f1 ff ff 	lea    -0xf00(%rbp),%rax
    9804:	48 8d 15 55 03 01 00 	lea    0x10355(%rip),%rdx        # 19b60 <g_2195+0x30>
    980b:	b9 3f 00 00 00       	mov    $0x3f,%ecx
    9810:	48 89 c7             	mov    %rax,%rdi
    9813:	48 89 d6             	mov    %rdx,%rsi
    9816:	f3 48 a5             	rep movsq %ds:(%rsi),%es:(%rdi)
    9819:	48 b8 77 d5 a5 e1 13 	movabs $0x7c505713e1a5d577,%rax
    9820:	57 50 7c 
    9823:	48 89 85 f0 e7 ff ff 	mov    %rax,-0x1810(%rbp)
    982a:	48 b8 c1 7d 6f a3 df 	movabs $0xec21e2dfa36f7dc1,%rax
    9831:	e2 21 ec 
    9834:	48 89 85 f8 e7 ff ff 	mov    %rax,-0x1808(%rbp)
    983b:	c7 85 c4 e5 ff ff 00 	movl   $0x0,-0x1a3c(%rbp)
    9842:	00 00 00 
    9845:	48 8d 05 80 f8 00 00 	lea    0xf880(%rip),%rax        # 190cc <g_61+0x6c>
    984c:	48 89 85 78 e7 ff ff 	mov    %rax,-0x1888(%rbp)
    9853:	48 b8 ac d7 fa 83 f4 	movabs $0xcd37c0f483fad7ac,%rax
    985a:	c0 37 cd 
    985d:	48 89 85 00 e8 ff ff 	mov    %rax,-0x1800(%rbp)
    9864:	c7 85 00 e6 ff ff a4 	movl   $0x3d57a3a4,-0x1a00(%rbp)
    986b:	a3 57 3d 
    986e:	c7 85 04 e6 ff ff 27 	movl   $0x9a3cb027,-0x19fc(%rbp)
    9875:	b0 3c 9a 
    9878:	48 8d 85 50 ef ff ff 	lea    -0x10b0(%rbp),%rax
    987f:	48 8d 15 7a b9 00 00 	lea    0xb97a(%rip),%rdx        # 15200 <g_1636+0x10>
    9886:	b9 34 00 00 00       	mov    $0x34,%ecx
    988b:	48 89 c7             	mov    %rax,%rdi
    988e:	48 89 d6             	mov    %rdx,%rsi
    9891:	f3 48 a5             	rep movsq %ds:(%rsi),%es:(%rdi)
    9894:	48 89 f2             	mov    %rsi,%rdx
    9897:	48 89 f8             	mov    %rdi,%rax
    989a:	8b 0a                	mov    (%rdx),%ecx
    989c:	89 08                	mov    %ecx,(%rax)
    989e:	66 c7 85 9a e5 ff ff 	movw   $0x0,-0x1a66(%rbp)
    98a5:	00 00 
    98a7:	c6 85 7a e5 ff ff de 	movb   $0xde,-0x1a86(%rbp)
    98ae:	c7 85 fc e5 ff ff 02 	movl   $0x2,-0x1a04(%rbp)
    98b5:	00 00 00 
    98b8:	48 8d 85 b0 ea ff ff 	lea    -0x1550(%rbp),%rax
    98bf:	48 83 c0 08          	add    $0x8,%rax
    98c3:	48 89 85 e8 e7 ff ff 	mov    %rax,-0x1818(%rbp)
    98ca:	48 8d 05 bf fd 00 00 	lea    0xfdbf(%rip),%rax        # 19690 <g_192>
    98d1:	48 89 85 80 e7 ff ff 	mov    %rax,-0x1880(%rbp)
    98d8:	48 8d 85 80 e7 ff ff 	lea    -0x1880(%rbp),%rax
    98df:	48 89 85 88 e7 ff ff 	mov    %rax,-0x1878(%rbp)
    98e6:	48 8d 85 88 e7 ff ff 	lea    -0x1878(%rbp),%rax
    98ed:	48 89 85 e0 e7 ff ff 	mov    %rax,-0x1820(%rbp)
    98f4:	66 c7 85 98 e5 ff ff 	movw   $0xf00e,-0x1a68(%rbp)
    98fb:	0e f0 
    98fd:	48 b8 59 a4 c5 51 05 	movabs $0x7c48be0551c5a459,%rax
    9904:	be 48 7c 
    9907:	48 89 85 90 e7 ff ff 	mov    %rax,-0x1870(%rbp)
    990e:	c6 85 78 e5 ff ff ff 	movb   $0xff,-0x1a88(%rbp)
    9915:	c7 85 f8 e5 ff ff fe 	movl   $0xfffffffe,-0x1a08(%rbp)
    991c:	ff ff ff 
    991f:	48 b8 f7 f7 f7 f7 f7 	movabs $0xf7f7f7f7f7f7f7f7,%rax
    9926:	f7 f7 f7 
    9929:	48 89 45 ac          	mov    %rax,-0x54(%rbp)
    992d:	48 b8 d7 23 89 39 3f 	movabs $0xdc2f963f398923d7,%rax
    9934:	96 2f dc 
    9937:	48 89 85 d8 e7 ff ff 	mov    %rax,-0x1828(%rbp)
    993e:	c6 85 79 e5 ff ff e0 	movb   $0xe0,-0x1a87(%rbp)
    9945:	c6 85 73 e5 ff ff 91 	movb   $0x91,-0x1a8d(%rbp)
    994c:	c6 85 74 e5 ff ff 18 	movb   $0x18,-0x1a8c(%rbp)
    9953:	c7 85 f4 e5 ff ff 00 	movl   $0x0,-0x1a0c(%rbp)
    995a:	00 00 00 
    995d:	66 c7 85 96 e5 ff ff 	movw   $0x2,-0x1a6a(%rbp)
    9964:	02 00 
    9966:	c6 85 77 e5 ff ff a9 	movb   $0xa9,-0x1a89(%rbp)
    996d:	48 b8 b7 b7 06 de fd 	movabs $0xb706defdde06b7b7,%rax
    9974:	de 06 b7 
    9977:	48 89 85 80 ec ff ff 	mov    %rax,-0x1380(%rbp)
    997e:	c6 85 88 ec ff ff b7 	movb   $0xb7,-0x1378(%rbp)
    9985:	48 b8 f8 a1 01 0f 01 	movabs $0xf8f8a1010f01a1f8,%rax
    998c:	a1 f8 f8 
    998f:	48 89 85 89 ec ff ff 	mov    %rax,-0x1377(%rbp)
    9996:	c6 85 91 ec ff ff a1 	movb   $0xa1,-0x136f(%rbp)
    999d:	48 b8 de 07 06 07 de 	movabs $0xdeb4b4de070607de,%rax
    99a4:	b4 b4 de 
    99a7:	48 89 85 92 ec ff ff 	mov    %rax,-0x136e(%rbp)
    99ae:	c6 85 9a ec ff ff 07 	movb   $0x7,-0x1366(%rbp)
    99b5:	48 b8 f8 01 f8 5a f4 	movabs $0xf85af4f45af801f8,%rax
    99bc:	f4 5a f8 
    99bf:	48 89 85 9b ec ff ff 	mov    %rax,-0x1365(%rbp)
    99c6:	c6 85 a3 ec ff ff 01 	movb   $0x1,-0x135d(%rbp)
    99cd:	48 b8 b7 ab b4 06 06 	movabs $0xb7abb40606b4abb7,%rax
    99d4:	b4 ab b7 
    99d7:	48 89 85 a4 ec ff ff 	mov    %rax,-0x135c(%rbp)
    99de:	c6 85 ac ec ff ff ab 	movb   $0xab,-0x1354(%rbp)
    99e5:	48 b8 a1 0f 5a 5a 5a 	movabs $0xf801f85a5a5a0fa1,%rax
    99ec:	f8 01 f8 
    99ef:	48 89 85 ad ec ff ff 	mov    %rax,-0x1353(%rbp)
    99f6:	c6 85 b5 ec ff ff 5a 	movb   $0x5a,-0x134b(%rbp)
    99fd:	48 b8 ab de de ab fd 	movabs $0xabfdb4fdabdedeab,%rax
    9a04:	b4 fd ab 
    9a07:	48 89 85 b6 ec ff ff 	mov    %rax,-0x134a(%rbp)
    9a0e:	c6 85 be ec ff ff de 	movb   $0xde,-0x1342(%rbp)
    9a15:	48 b8 4c 4c 01 5a a1 	movabs $0x4c015aa15a014c4c,%rax
    9a1c:	5a 01 4c 
    9a1f:	48 89 85 bf ec ff ff 	mov    %rax,-0x1341(%rbp)
    9a26:	c6 85 c7 ec ff ff 4c 	movb   $0x4c,-0x1339(%rbp)
    9a2d:	48 b8 de ab fd b4 fd 	movabs $0xdedeabfdb4fdabde,%rax
    9a34:	ab de de 
    9a37:	48 89 85 c8 ec ff ff 	mov    %rax,-0x1338(%rbp)
    9a3e:	c6 85 d0 ec ff ff ab 	movb   $0xab,-0x1330(%rbp)
    9a45:	48 b8 5a f8 01 f8 5a 	movabs $0x5af4f45af801f85a,%rax
    9a4c:	f4 f4 5a 
    9a4f:	48 89 85 d1 ec ff ff 	mov    %rax,-0x132f(%rbp)
    9a56:	c6 85 d9 ec ff ff f8 	movb   $0xf8,-0x1327(%rbp)
    9a5d:	66 c7 85 92 e5 ff ff 	movw   $0x1,-0x1a6e(%rbp)
    9a64:	01 00 
    9a66:	c7 85 e0 e5 ff ff f8 	movl   $0xfffffff8,-0x1a20(%rbp)
    9a6d:	ff ff ff 
    9a70:	c7 85 e4 e5 ff ff 18 	movl   $0x26fb1f18,-0x1a1c(%rbp)
    9a77:	1f fb 26 
    9a7a:	c7 85 e8 e5 ff ff 00 	movl   $0x0,-0x1a18(%rbp)
    9a81:	00 00 00 
    9a84:	48 8d 85 00 f1 ff ff 	lea    -0xf00(%rbp),%rax
    9a8b:	48 05 48 01 00 00    	add    $0x148,%rax
    9a91:	48 89 85 c8 e7 ff ff 	mov    %rax,-0x1838(%rbp)
    9a98:	c7 85 ec e5 ff ff 00 	movl   $0x0,-0x1a14(%rbp)
    9a9f:	00 00 00 
    9aa2:	66 c7 85 94 e5 ff ff 	movw   $0x4,-0x1a6c(%rbp)
    9aa9:	04 00 
    9aab:	c7 85 f0 e5 ff ff 00 	movl   $0x0,-0x1a10(%rbp)
    9ab2:	00 00 00 
    9ab5:	eb 1e                	jmp    9ad5 <func_1+0x320>
    9ab7:	8b 85 f0 e5 ff ff    	mov    -0x1a10(%rbp),%eax
    9abd:	48 98                	cltq   
    9abf:	48 8d 15 2a fc 00 00 	lea    0xfc2a(%rip),%rdx        # 196f0 <g_403>
    9ac6:	48 89 94 c5 60 eb ff 	mov    %rdx,-0x14a0(%rbp,%rax,8)
    9acd:	ff 
    9ace:	83 85 f0 e5 ff ff 01 	addl   $0x1,-0x1a10(%rbp)
    9ad5:	83 bd f0 e5 ff ff 07 	cmpl   $0x7,-0x1a10(%rbp)
    9adc:	7e d9                	jle    9ab7 <func_1+0x302>
    9ade:	c7 85 f0 e5 ff ff 00 	movl   $0x0,-0x1a10(%rbp)
    9ae5:	00 00 00 
    9ae8:	eb 1e                	jmp    9b08 <func_1+0x353>
    9aea:	8b 85 f0 e5 ff ff    	mov    -0x1a10(%rbp),%eax
    9af0:	48 98                	cltq   
    9af2:	48 8d 15 47 1f 01 00 	lea    0x11f47(%rip),%rdx        # 1ba40 <g_350>
    9af9:	48 89 94 c5 a0 ea ff 	mov    %rdx,-0x1560(%rbp,%rax,8)
    9b00:	ff 
    9b01:	83 85 f0 e5 ff ff 01 	addl   $0x1,-0x1a10(%rbp)
    9b08:	83 bd f0 e5 ff ff 01 	cmpl   $0x1,-0x1a10(%rbp)
    9b0f:	7e d9                	jle    9aea <func_1+0x335>
    9b11:	c7 85 f0 e5 ff ff 00 	movl   $0x0,-0x1a10(%rbp)
    9b18:	00 00 00 
    9b1b:	eb 53                	jmp    9b70 <func_1+0x3bb>
    9b1d:	c7 85 50 e6 ff ff 00 	movl   $0x0,-0x19b0(%rbp)
    9b24:	00 00 00 
    9b27:	eb 37                	jmp    9b60 <func_1+0x3ab>
    9b29:	8b 85 50 e6 ff ff    	mov    -0x19b0(%rbp),%eax
    9b2f:	48 63 c8             	movslq %eax,%rcx
    9b32:	8b 85 f0 e5 ff ff    	mov    -0x1a10(%rbp),%eax
    9b38:	48 63 d0             	movslq %eax,%rdx
    9b3b:	48 89 d0             	mov    %rdx,%rax
    9b3e:	48 01 c0             	add    %rax,%rax
    9b41:	48 01 d0             	add    %rdx,%rax
    9b44:	48 01 c0             	add    %rax,%rax
    9b47:	48 01 c8             	add    %rcx,%rax
    9b4a:	48 8d 15 57 30 01 00 	lea    0x13057(%rip),%rdx        # 1cba8 <g_145>
    9b51:	48 89 94 c5 60 ee ff 	mov    %rdx,-0x11a0(%rbp,%rax,8)
    9b58:	ff 
    9b59:	83 85 50 e6 ff ff 01 	addl   $0x1,-0x19b0(%rbp)
    9b60:	83 bd 50 e6 ff ff 05 	cmpl   $0x5,-0x19b0(%rbp)
    9b67:	7e c0                	jle    9b29 <func_1+0x374>
    9b69:	83 85 f0 e5 ff ff 01 	addl   $0x1,-0x1a10(%rbp)
    9b70:	83 bd f0 e5 ff ff 04 	cmpl   $0x4,-0x1a10(%rbp)
    9b77:	7e a4                	jle    9b1d <func_1+0x368>
    9b79:	c7 85 f0 e5 ff ff 00 	movl   $0x0,-0x1a10(%rbp)
    9b80:	00 00 00 
    9b83:	eb 1e                	jmp    9ba3 <func_1+0x3ee>
    9b85:	8b 85 f0 e5 ff ff    	mov    -0x1a10(%rbp),%eax
    9b8b:	48 98                	cltq   
    9b8d:	48 8d 15 84 30 01 00 	lea    0x13084(%rip),%rdx        # 1cc18 <g_1403>
    9b94:	48 89 94 c5 b0 ea ff 	mov    %rdx,-0x1550(%rbp,%rax,8)
    9b9b:	ff 
    9b9c:	83 85 f0 e5 ff ff 01 	addl   $0x1,-0x1a10(%rbp)
    9ba3:	83 bd f0 e5 ff ff 01 	cmpl   $0x1,-0x1a10(%rbp)
    9baa:	7e d9                	jle    9b85 <func_1+0x3d0>
    9bac:	c7 85 f0 e5 ff ff 00 	movl   $0x0,-0x1a10(%rbp)
    9bb3:	00 00 00 
    9bb6:	eb 1e                	jmp    9bd6 <func_1+0x421>
    9bb8:	8b 85 f0 e5 ff ff    	mov    -0x1a10(%rbp),%eax
    9bbe:	48 98                	cltq   
    9bc0:	48 8d 15 25 b6 00 00 	lea    0xb625(%rip),%rdx        # 151ec <g_1610>
    9bc7:	48 89 94 c5 e0 ea ff 	mov    %rdx,-0x1520(%rbp,%rax,8)
    9bce:	ff 
    9bcf:	83 85 f0 e5 ff ff 01 	addl   $0x1,-0x1a10(%rbp)
    9bd6:	83 bd f0 e5 ff ff 03 	cmpl   $0x3,-0x1a10(%rbp)
    9bdd:	7e d9                	jle    9bb8 <func_1+0x403>
    9bdf:	c7 85 f0 e5 ff ff 00 	movl   $0x0,-0x1a10(%rbp)
    9be6:	00 00 00 
    9be9:	eb 14                	jmp    9bff <func_1+0x44a>
    9beb:	8b 85 f0 e5 ff ff    	mov    -0x1a10(%rbp),%eax
    9bf1:	48 98                	cltq   
    9bf3:	c6 44 05 aa 75       	movb   $0x75,-0x56(%rbp,%rax,1)
    9bf8:	83 85 f0 e5 ff ff 01 	addl   $0x1,-0x1a10(%rbp)
    9bff:	83 bd f0 e5 ff ff 01 	cmpl   $0x1,-0x1a10(%rbp)
    9c06:	7e e3                	jle    9beb <func_1+0x436>
    9c08:	c7 85 f0 e5 ff ff 00 	movl   $0x0,-0x1a10(%rbp)
    9c0f:	00 00 00 
    9c12:	eb 1e                	jmp    9c32 <func_1+0x47d>
    9c14:	8b 85 f0 e5 ff ff    	mov    -0x1a10(%rbp),%eax
    9c1a:	48 98                	cltq   
    9c1c:	48 8d 15 c5 2f 01 00 	lea    0x12fc5(%rip),%rdx        # 1cbe8 <g_654>
    9c23:	48 89 94 c5 c0 ea ff 	mov    %rdx,-0x1540(%rbp,%rax,8)
    9c2a:	ff 
    9c2b:	83 85 f0 e5 ff ff 01 	addl   $0x1,-0x1a10(%rbp)
    9c32:	83 bd f0 e5 ff ff 01 	cmpl   $0x1,-0x1a10(%rbp)
    9c39:	7e d9                	jle    9c14 <func_1+0x45f>
    9c3b:	c7 05 f7 f3 00 00 1a 	movl   $0x1a,0xf3f7(%rip)        # 1903c <g_3+0xc>
    9c42:	00 00 00 
    9c45:	e9 0f 40 00 00       	jmpq   dc59 <func_1+0x44a4>
    9c4a:	c6 85 75 e5 ff ff 9e 	movb   $0x9e,-0x1a8b(%rbp)
    9c51:	48 8d 05 f4 f3 00 00 	lea    0xf3f4(%rip),%rax        # 1904c <g_33>
    9c58:	48 89 85 d0 e7 ff ff 	mov    %rax,-0x1830(%rbp)
    9c5f:	c7 85 e0 eb ff ff f7 	movl   $0xfffffff7,-0x1420(%rbp)
    9c66:	ff ff ff 
    9c69:	c7 85 e4 eb ff ff f7 	movl   $0xfffffff7,-0x141c(%rbp)
    9c70:	ff ff ff 
    9c73:	c7 85 e8 eb ff ff fe 	movl   $0xfffffffe,-0x1418(%rbp)
    9c7a:	ff ff ff 
    9c7d:	c7 85 ec eb ff ff fe 	movl   $0xfffffffe,-0x1414(%rbp)
    9c84:	ff ff ff 
    9c87:	c7 85 f0 eb ff ff f7 	movl   $0xfffffff7,-0x1410(%rbp)
    9c8e:	ff ff ff 
    9c91:	c7 85 f4 eb ff ff f7 	movl   $0xfffffff7,-0x140c(%rbp)
    9c98:	ff ff ff 
    9c9b:	c7 85 f8 eb ff ff fe 	movl   $0xfffffffe,-0x1408(%rbp)
    9ca2:	ff ff ff 
    9ca5:	c7 85 fc eb ff ff fe 	movl   $0xfffffffe,-0x1404(%rbp)
    9cac:	ff ff ff 
    9caf:	c7 85 00 ec ff ff f7 	movl   $0xfffffff7,-0x1400(%rbp)
    9cb6:	ff ff ff 
    9cb9:	c7 85 04 ec ff ff f7 	movl   $0xfffffff7,-0x13fc(%rbp)
    9cc0:	ff ff ff 
    9cc3:	c7 85 08 ec ff ff f7 	movl   $0xfffffff7,-0x13f8(%rbp)
    9cca:	ff ff ff 
    9ccd:	c7 85 0c ec ff ff fe 	movl   $0xfffffffe,-0x13f4(%rbp)
    9cd4:	ff ff ff 
    9cd7:	c7 85 10 ec ff ff fe 	movl   $0xfffffffe,-0x13f0(%rbp)
    9cde:	ff ff ff 
    9ce1:	c7 85 14 ec ff ff f7 	movl   $0xfffffff7,-0x13ec(%rbp)
    9ce8:	ff ff ff 
    9ceb:	c7 85 18 ec ff ff f7 	movl   $0xfffffff7,-0x13e8(%rbp)
    9cf2:	ff ff ff 
    9cf5:	c7 85 1c ec ff ff fe 	movl   $0xfffffffe,-0x13e4(%rbp)
    9cfc:	ff ff ff 
    9cff:	c7 85 20 ec ff ff fe 	movl   $0xfffffffe,-0x13e0(%rbp)
    9d06:	ff ff ff 
    9d09:	c7 85 24 ec ff ff f7 	movl   $0xfffffff7,-0x13dc(%rbp)
    9d10:	ff ff ff 
    9d13:	c7 85 28 ec ff ff f7 	movl   $0xfffffff7,-0x13d8(%rbp)
    9d1a:	ff ff ff 
    9d1d:	c7 85 2c ec ff ff fe 	movl   $0xfffffffe,-0x13d4(%rbp)
    9d24:	ff ff ff 
    9d27:	48 8d 05 ba f9 00 00 	lea    0xf9ba(%rip),%rax        # 196e8 <g_402>
    9d2e:	48 89 85 98 e7 ff ff 	mov    %rax,-0x1868(%rbp)
    9d35:	66 c7 85 00 eb ff ff 	movw   $0xf100,-0x1500(%rbp)
    9d3c:	00 f1 
    9d3e:	66 c7 85 02 eb ff ff 	movw   $0x0,-0x14fe(%rbp)
    9d45:	00 00 
    9d47:	66 c7 85 04 eb ff ff 	movw   $0xf1,-0x14fc(%rbp)
    9d4e:	f1 00 
    9d50:	66 c7 85 06 eb ff ff 	movw   $0xf100,-0x14fa(%rbp)
    9d57:	00 f1 
    9d59:	66 c7 85 08 eb ff ff 	movw   $0x0,-0x14f8(%rbp)
    9d60:	00 00 
    9d62:	66 c7 85 0a eb ff ff 	movw   $0xf1,-0x14f6(%rbp)
    9d69:	f1 00 
    9d6b:	66 c7 85 0c eb ff ff 	movw   $0xf100,-0x14f4(%rbp)
    9d72:	00 f1 
    9d74:	66 c7 85 0e eb ff ff 	movw   $0x0,-0x14f2(%rbp)
    9d7b:	00 00 
    9d7d:	66 c7 85 10 eb ff ff 	movw   $0xf1,-0x14f0(%rbp)
    9d84:	f1 00 
    9d86:	66 c7 85 12 eb ff ff 	movw   $0xf100,-0x14ee(%rbp)
    9d8d:	00 f1 
    9d8f:	66 c7 85 14 eb ff ff 	movw   $0x0,-0x14ec(%rbp)
    9d96:	00 00 
    9d98:	66 c7 85 16 eb ff ff 	movw   $0xf1,-0x14ea(%rbp)
    9d9f:	f1 00 
    9da1:	66 c7 85 18 eb ff ff 	movw   $0xf100,-0x14e8(%rbp)
    9da8:	00 f1 
    9daa:	66 c7 85 1a eb ff ff 	movw   $0x0,-0x14e6(%rbp)
    9db1:	00 00 
    9db3:	66 c7 85 1c eb ff ff 	movw   $0xf1,-0x14e4(%rbp)
    9dba:	f1 00 
    9dbc:	66 c7 85 1e eb ff ff 	movw   $0xf100,-0x14e2(%rbp)
    9dc3:	00 f1 
    9dc5:	66 c7 85 20 eb ff ff 	movw   $0x0,-0x14e0(%rbp)
    9dcc:	00 00 
    9dce:	66 c7 85 22 eb ff ff 	movw   $0xf1,-0x14de(%rbp)
    9dd5:	f1 00 
    9dd7:	c7 85 c8 e5 ff ff 64 	movl   $0x18cafe64,-0x1a38(%rbp)
    9dde:	fe ca 18 
    9de1:	c7 85 dc e5 ff ff 03 	movl   $0x3,-0x1a24(%rbp)
    9de8:	00 00 00 
    9deb:	48 c7 85 a0 e7 ff ff 	movq   $0x0,-0x1860(%rbp)
    9df2:	00 00 00 00 
    9df6:	66 c7 85 8e e5 ff ff 	movw   $0xfdec,-0x1a72(%rbp)
    9dfd:	ec fd 
    9dff:	c6 85 76 e5 ff ff 08 	movb   $0x8,-0x1a8a(%rbp)
    9e06:	c7 85 cc e5 ff ff 99 	movl   $0xe7beb599,-0x1a34(%rbp)
    9e0d:	b5 be e7 
    9e10:	48 8d 05 81 2d 01 00 	lea    0x12d81(%rip),%rax        # 1cb98 <g_103>
    9e17:	48 89 85 c0 e7 ff ff 	mov    %rax,-0x1840(%rbp)
    9e1e:	66 c7 85 90 e5 ff ff 	movw   $0xffff,-0x1a70(%rbp)
    9e25:	ff ff 
    9e27:	c7 85 d8 e5 ff ff 00 	movl   $0x0,-0x1a28(%rbp)
    9e2e:	00 00 00 
    9e31:	eb 46                	jmp    9e79 <func_1+0x6c4>
    9e33:	c7 85 54 e6 ff ff 00 	movl   $0x0,-0x19ac(%rbp)
    9e3a:	00 00 00 
    9e3d:	eb 2a                	jmp    9e69 <func_1+0x6b4>
    9e3f:	8b 85 54 e6 ff ff    	mov    -0x19ac(%rbp),%eax
    9e45:	48 98                	cltq   
    9e47:	8b 95 d8 e5 ff ff    	mov    -0x1a28(%rbp),%edx
    9e4d:	48 63 d2             	movslq %edx,%rdx
    9e50:	48 c1 e2 03          	shl    $0x3,%rdx
    9e54:	48 01 d0             	add    %rdx,%rax
    9e57:	c7 84 85 e0 ec ff ff 	movl   $0x3,-0x1320(%rbp,%rax,4)
    9e5e:	03 00 00 00 
    9e62:	83 85 54 e6 ff ff 01 	addl   $0x1,-0x19ac(%rbp)
    9e69:	83 bd 54 e6 ff ff 07 	cmpl   $0x7,-0x19ac(%rbp)
    9e70:	7e cd                	jle    9e3f <func_1+0x68a>
    9e72:	83 85 d8 e5 ff ff 01 	addl   $0x1,-0x1a28(%rbp)
    9e79:	83 bd d8 e5 ff ff 04 	cmpl   $0x4,-0x1a28(%rbp)
    9e80:	7e b1                	jle    9e33 <func_1+0x67e>
    9e82:	c7 85 d8 e5 ff ff 00 	movl   $0x0,-0x1a28(%rbp)
    9e89:	00 00 00 
    9e8c:	eb 1a                	jmp    9ea8 <func_1+0x6f3>
    9e8e:	8b 85 d8 e5 ff ff    	mov    -0x1a28(%rbp),%eax
    9e94:	48 98                	cltq   
    9e96:	c7 84 85 d0 ea ff ff 	movl   $0x1,-0x1530(%rbp,%rax,4)
    9e9d:	01 00 00 00 
    9ea1:	83 85 d8 e5 ff ff 01 	addl   $0x1,-0x1a28(%rbp)
    9ea8:	83 bd d8 e5 ff ff 03 	cmpl   $0x3,-0x1a28(%rbp)
    9eaf:	7e dd                	jle    9e8e <func_1+0x6d9>
    9eb1:	48 8b 05 e8 1d 01 00 	mov    0x11de8(%rip),%rax        # 1bca0 <g_529>
    9eb8:	48 89 85 68 e5 ff ff 	mov    %rax,-0x1a98(%rbp)
    9ebf:	48 8b 9d 48 f2 ff ff 	mov    -0xdb8(%rbp),%rbx
    9ec6:	48 89 9d 60 e5 ff ff 	mov    %rbx,-0x1aa0(%rbp)
    9ecd:	8b 85 f4 eb ff ff    	mov    -0x140c(%rbp),%eax
    9ed3:	44 0f b6 e8          	movzbl %al,%r13d
    9ed7:	0f b6 85 75 e5 ff ff 	movzbl -0x1a8b(%rbp),%eax
    9ede:	44 0f b6 e0          	movzbl %al,%r12d
    9ee2:	48 8b 85 f0 e7 ff ff 	mov    -0x1810(%rbp),%rax
    9ee9:	0f b6 d8             	movzbl %al,%ebx
    9eec:	4c 8b bd 48 f2 ff ff 	mov    -0xdb8(%rbp),%r15
    9ef3:	8b 05 1f f6 00 00    	mov    0xf61f(%rip),%eax        # 19518 <g_66+0x2b8>
    9ef9:	4c 63 f0             	movslq %eax,%r14
    9efc:	8b 85 fc eb ff ff    	mov    -0x1404(%rbp),%eax
    9f02:	0f b7 f0             	movzwl %ax,%esi
    9f05:	89 b5 5c e5 ff ff    	mov    %esi,-0x1aa4(%rbp)
    9f0b:	48 8b bd 48 f2 ff ff 	mov    -0xdb8(%rbp),%rdi
    9f12:	48 89 bd 50 e5 ff ff 	mov    %rdi,-0x1ab0(%rbp)
    9f19:	8b 05 11 f1 00 00    	mov    0xf111(%rip),%eax        # 19030 <g_3>
    9f1f:	48 63 d0             	movslq %eax,%rdx
    9f22:	48 89 95 48 e5 ff ff 	mov    %rdx,-0x1ab8(%rbp)
    9f29:	bf 01 00 00 00       	mov    $0x1,%edi
    9f2e:	e8 e3 e8 ff ff       	callq  8816 <safe_unary_minus_func_int64_t_s>
    9f33:	48 85 c0             	test   %rax,%rax
    9f36:	0f 9f c0             	setg   %al
    9f39:	0f b6 d0             	movzbl %al,%edx
    9f3c:	0f b6 05 09 f1 00 00 	movzbl 0xf109(%rip),%eax        # 1904c <g_33>
    9f43:	0f be c0             	movsbl %al,%eax
    9f46:	21 d0                	and    %edx,%eax
    9f48:	48 98                	cltq   
    9f4a:	48 8b 95 d0 e7 ff ff 	mov    -0x1830(%rbp),%rdx
    9f51:	4c 8b 85 50 e5 ff ff 	mov    -0x1ab0(%rbp),%r8
    9f58:	48 8b 8d 48 e5 ff ff 	mov    -0x1ab8(%rbp),%rcx
    9f5f:	48 8d 35 e6 f0 00 00 	lea    0xf0e6(%rip),%rsi        # 1904c <g_33>
    9f66:	48 89 c7             	mov    %rax,%rdi
    9f69:	e8 42 8c 00 00       	callq  12bb0 <func_36>
    9f6e:	48 83 f8 ff          	cmp    $0xffffffffffffffff,%rax
    9f72:	0f 95 c0             	setne  %al
    9f75:	0f b6 c0             	movzbl %al,%eax
    9f78:	8b b5 5c e5 ff ff    	mov    -0x1aa4(%rbp),%esi
    9f7e:	89 c7                	mov    %eax,%edi
    9f80:	e8 7a ed ff ff       	callq  8cff <safe_add_func_uint16_t_u_u>
    9f85:	0f be d0             	movsbl %al,%edx
    9f88:	48 8b 05 f1 19 01 00 	mov    0x119f1(%rip),%rax        # 1b980 <g_32>
    9f8f:	89 d6                	mov    %edx,%esi
    9f91:	48 89 c7             	mov    %rax,%rdi
    9f94:	e8 8d 7e 00 00       	callq  11e26 <func_29>
    9f99:	48 89 c6             	mov    %rax,%rsi
    9f9c:	8b 05 82 f0 00 00    	mov    0xf082(%rip),%eax        # 19024 <g_2>
    9fa2:	48 98                	cltq   
    9fa4:	48 8b 95 d0 e7 ff ff 	mov    -0x1830(%rbp),%rdx
    9fab:	49 89 d0             	mov    %rdx,%r8
    9fae:	4c 89 f9             	mov    %r15,%rcx
    9fb1:	4c 89 f2             	mov    %r14,%rdx
    9fb4:	48 89 c7             	mov    %rax,%rdi
    9fb7:	e8 ef 7d 00 00       	callq  11dab <func_23>
    9fbc:	48 89 c7             	mov    %rax,%rdi
    9fbf:	e8 84 7b 00 00       	callq  11b48 <func_21>
    9fc4:	48 8d 15 62 f6 00 00 	lea    0xf662(%rip),%rdx        # 1962d <g_70>
    9fcb:	48 39 d0             	cmp    %rdx,%rax
    9fce:	0f 95 c0             	setne  %al
    9fd1:	0f b6 c0             	movzbl %al,%eax
    9fd4:	4c 8b 85 60 e5 ff ff 	mov    -0x1aa0(%rbp),%r8
    9fdb:	44 89 e9             	mov    %r13d,%ecx
    9fde:	44 89 e2             	mov    %r12d,%edx
    9fe1:	89 de                	mov    %ebx,%esi
    9fe3:	48 89 c7             	mov    %rax,%rdi
    9fe6:	e8 34 7b 00 00       	callq  11b1f <func_14>
    9feb:	48 89 c6             	mov    %rax,%rsi
    9fee:	8b 05 3c f0 00 00    	mov    0xf03c(%rip),%eax        # 19030 <g_3>
    9ff4:	89 c7                	mov    %eax,%edi
    9ff6:	8b 85 08 e6 ff ff    	mov    -0x19f8(%rbp),%eax
    9ffc:	48 8b 15 0d 1d 01 00 	mov    0x11d0d(%rip),%rdx        # 1bd10 <g_552>
    a003:	48 8b 1a             	mov    (%rdx),%rbx
    a006:	48 8b 8d 68 e5 ff ff 	mov    -0x1a98(%rbp),%rcx
    a00d:	48 8b 09             	mov    (%rcx),%rcx
    a010:	48 89 f2             	mov    %rsi,%rdx
    a013:	89 fe                	mov    %edi,%esi
    a015:	48 89 c7             	mov    %rax,%rdi
    a018:	e8 df 7a 00 00       	callq  11afc <func_9>
    a01d:	48 89 03             	mov    %rax,(%rbx)
    a020:	48 8b 03             	mov    (%rbx),%rax
    a023:	48 89 c7             	mov    %rax,%rdi
    a026:	e8 04 65 00 00       	callq  1052f <func_7>
    a02b:	0f be d0             	movsbl %al,%edx
    a02e:	0f b6 85 75 e5 ff ff 	movzbl -0x1a8b(%rbp),%eax
    a035:	0f b6 c0             	movzbl %al,%eax
    a038:	39 c2                	cmp    %eax,%edx
    a03a:	0f 84 f3 0a 00 00    	je     ab33 <func_1+0x137e>
    a040:	48 8d 85 00 f3 ff ff 	lea    -0xd00(%rbp),%rax
    a047:	48 8d 15 12 fd 00 00 	lea    0xfd12(%rip),%rdx        # 19d60 <g_2195+0x230>
    a04e:	b9 38 00 00 00       	mov    $0x38,%ecx
    a053:	48 89 c7             	mov    %rax,%rdi
    a056:	48 89 d6             	mov    %rdx,%rsi
    a059:	f3 48 a5             	rep movsq %ds:(%rsi),%es:(%rdi)
    a05c:	c7 85 d4 e5 ff ff ff 	movl   $0xffffffff,-0x1a2c(%rbp)
    a063:	ff ff ff 
    a066:	48 8d 05 23 f6 00 00 	lea    0xf623(%rip),%rax        # 19690 <g_192>
    a06d:	48 89 85 a8 e7 ff ff 	mov    %rax,-0x1858(%rbp)
    a074:	48 c7 85 d8 e8 ff ff 	movq   $0x9,-0x1728(%rbp)
    a07b:	09 00 00 00 
    a07f:	48 8d 05 2e f6 00 00 	lea    0xf62e(%rip),%rax        # 196b4 <g_241+0x14>
    a086:	48 89 85 b0 e7 ff ff 	mov    %rax,-0x1850(%rbp)
    a08d:	48 8d 85 b0 e7 ff ff 	lea    -0x1850(%rbp),%rax
    a094:	48 89 85 b8 e7 ff ff 	mov    %rax,-0x1848(%rbp)
    a09b:	48 8d 85 b8 e7 ff ff 	lea    -0x1848(%rbp),%rax
    a0a2:	48 89 85 30 ec ff ff 	mov    %rax,-0x13d0(%rbp)
    a0a9:	48 8d 85 b8 e7 ff ff 	lea    -0x1848(%rbp),%rax
    a0b0:	48 89 85 38 ec ff ff 	mov    %rax,-0x13c8(%rbp)
    a0b7:	48 8d 85 b8 e7 ff ff 	lea    -0x1848(%rbp),%rax
    a0be:	48 89 85 40 ec ff ff 	mov    %rax,-0x13c0(%rbp)
    a0c5:	48 8d 85 b8 e7 ff ff 	lea    -0x1848(%rbp),%rax
    a0cc:	48 89 85 48 ec ff ff 	mov    %rax,-0x13b8(%rbp)
    a0d3:	48 8d 85 b8 e7 ff ff 	lea    -0x1848(%rbp),%rax
    a0da:	48 89 85 50 ec ff ff 	mov    %rax,-0x13b0(%rbp)
    a0e1:	48 8d 85 b8 e7 ff ff 	lea    -0x1848(%rbp),%rax
    a0e8:	48 89 85 58 ec ff ff 	mov    %rax,-0x13a8(%rbp)
    a0ef:	48 8d 85 b8 e7 ff ff 	lea    -0x1848(%rbp),%rax
    a0f6:	48 89 85 60 ec ff ff 	mov    %rax,-0x13a0(%rbp)
    a0fd:	48 8d 85 b8 e7 ff ff 	lea    -0x1848(%rbp),%rax
    a104:	48 89 85 68 ec ff ff 	mov    %rax,-0x1398(%rbp)
    a10b:	48 8d 05 9e 2a 01 00 	lea    0x12a9e(%rip),%rax        # 1cbb0 <g_225>
    a112:	48 89 85 e0 e8 ff ff 	mov    %rax,-0x1720(%rbp)
    a119:	48 c7 85 e8 e8 ff ff 	movq   $0x0,-0x1718(%rbp)
    a120:	00 00 00 00 
    a124:	48 8d 85 70 e7 ff ff 	lea    -0x1890(%rbp),%rax
    a12b:	48 89 85 f0 e8 ff ff 	mov    %rax,-0x1710(%rbp)
    a132:	c7 85 58 e6 ff ff 00 	movl   $0x0,-0x19a8(%rbp)
    a139:	00 00 00 
    a13c:	eb 1e                	jmp    a15c <func_1+0x9a7>
    a13e:	8b 85 58 e6 ff ff    	mov    -0x19a8(%rbp),%eax
    a144:	48 98                	cltq   
    a146:	48 8d 95 98 e7 ff ff 	lea    -0x1868(%rbp),%rdx
    a14d:	48 89 94 c5 30 eb ff 	mov    %rdx,-0x14d0(%rbp,%rax,8)
    a154:	ff 
    a155:	83 85 58 e6 ff ff 01 	addl   $0x1,-0x19a8(%rbp)
    a15c:	83 bd 58 e6 ff ff 03 	cmpl   $0x3,-0x19a8(%rbp)
    a163:	7e d9                	jle    a13e <func_1+0x989>
    a165:	c7 85 58 e6 ff ff 00 	movl   $0x0,-0x19a8(%rbp)
    a16c:	00 00 00 
    a16f:	eb 51                	jmp    a1c2 <func_1+0xa0d>
    a171:	c7 85 5c e6 ff ff 00 	movl   $0x0,-0x19a4(%rbp)
    a178:	00 00 00 
    a17b:	eb 35                	jmp    a1b2 <func_1+0x9fd>
    a17d:	8b 85 5c e6 ff ff    	mov    -0x19a4(%rbp),%eax
    a183:	48 63 c8             	movslq %eax,%rcx
    a186:	8b 85 58 e6 ff ff    	mov    -0x19a8(%rbp),%eax
    a18c:	48 63 d0             	movslq %eax,%rdx
    a18f:	48 89 d0             	mov    %rdx,%rax
    a192:	48 c1 e0 03          	shl    $0x3,%rax
    a196:	48 29 d0             	sub    %rdx,%rax
    a199:	48 01 c8             	add    %rcx,%rax
    a19c:	48 8d 15 01 f7 00 00 	lea    0xf701(%rip),%rdx        # 198a4 <g_1010>
    a1a3:	48 89 94 c5 80 ed ff 	mov    %rdx,-0x1280(%rbp,%rax,8)
    a1aa:	ff 
    a1ab:	83 85 5c e6 ff ff 01 	addl   $0x1,-0x19a4(%rbp)
    a1b2:	83 bd 5c e6 ff ff 06 	cmpl   $0x6,-0x19a4(%rbp)
    a1b9:	7e c2                	jle    a17d <func_1+0x9c8>
    a1bb:	83 85 58 e6 ff ff 01 	addl   $0x1,-0x19a8(%rbp)
    a1c2:	83 bd 58 e6 ff ff 03 	cmpl   $0x3,-0x19a8(%rbp)
    a1c9:	7e a6                	jle    a171 <func_1+0x9bc>
    a1cb:	48 8b 05 ae 17 01 00 	mov    0x117ae(%rip),%rax        # 1b980 <g_32>
    a1d2:	0f b6 00             	movzbl (%rax),%eax
    a1d5:	0f be d8             	movsbl %al,%ebx
    a1d8:	48 8b 05 f1 f4 00 00 	mov    0xf4f1(%rip),%rax        # 196d0 <g_333>
    a1df:	48 c1 e8 19          	shr    $0x19,%rax
    a1e3:	66 25 ff 03          	and    $0x3ff,%ax
    a1e7:	44 0f b7 e0          	movzwl %ax,%r12d
    a1eb:	48 8b 85 d8 e8 ff ff 	mov    -0x1728(%rbp),%rax
    a1f2:	44 0f be e8          	movsbl %al,%r13d
    a1f6:	be 00 00 00 00       	mov    $0x0,%esi
    a1fb:	bf 00 00 00 00       	mov    $0x0,%edi
    a200:	e8 8d e2 ff ff       	callq  8492 <safe_lshift_func_int16_t_s_s>
    a205:	0f be c0             	movsbl %al,%eax
    a208:	44 89 ee             	mov    %r13d,%esi
    a20b:	89 c7                	mov    %eax,%edi
    a20d:	e8 00 e0 ff ff       	callq  8212 <safe_mul_func_int8_t_s_s>
    a212:	0f be d0             	movsbl %al,%edx
    a215:	8b 85 2c ec ff ff    	mov    -0x13d4(%rbp),%eax
    a21b:	39 c2                	cmp    %eax,%edx
    a21d:	0f 95 c0             	setne  %al
    a220:	0f b6 c0             	movzbl %al,%eax
    a223:	4c 89 e6             	mov    %r12,%rsi
    a226:	48 89 c7             	mov    %rax,%rdi
    a229:	e8 c9 e7 ff ff       	callq  89f7 <safe_div_func_int64_t_s_s>
    a22e:	0f be c0             	movsbl %al,%eax
    a231:	89 de                	mov    %ebx,%esi
    a233:	89 c7                	mov    %eax,%edi
    a235:	e8 d8 df ff ff       	callq  8212 <safe_mul_func_int8_t_s_s>
    a23a:	0f be c0             	movsbl %al,%eax
    a23d:	89 85 c4 e5 ff ff    	mov    %eax,-0x1a3c(%rbp)
    a243:	48 8b 85 30 ec ff ff 	mov    -0x13d0(%rbp),%rax
    a24a:	48 85 c0             	test   %rax,%rax
    a24d:	0f 95 c0             	setne  %al
    a250:	0f b6 d8             	movzbl %al,%ebx
    a253:	48 8b 85 78 e7 ff ff 	mov    -0x1888(%rbp),%rax
    a25a:	48 85 c0             	test   %rax,%rax
    a25d:	41 0f 95 c4          	setne  %r12b
    a261:	0f b6 85 75 e5 ff ff 	movzbl -0x1a8b(%rbp),%eax
    a268:	0f b6 d0             	movzbl %al,%edx
    a26b:	8b 85 c4 e5 ff ff    	mov    -0x1a3c(%rbp),%eax
    a271:	39 c2                	cmp    %eax,%edx
    a273:	7e 5c                	jle    a2d1 <func_1+0xb1c>
    a275:	be 1d eb f6 0b       	mov    $0xbf6eb1d,%esi
    a27a:	bf 01 00 00 00       	mov    $0x1,%edi
    a27f:	e8 48 e4 ff ff       	callq  86cc <safe_mod_func_int32_t_s_s>
    a284:	8b 95 e8 eb ff ff    	mov    -0x1418(%rbp),%edx
    a28a:	48 8b 85 78 e7 ff ff 	mov    -0x1888(%rbp),%rax
    a291:	66 89 10             	mov    %dx,(%rax)
    a294:	48 8b 05 e5 ad 00 00 	mov    0xade5(%rip),%rax        # 15080 <g_463+0x20>
    a29b:	48 c1 e0 17          	shl    $0x17,%rax
    a29f:	48 c1 f8 27          	sar    $0x27,%rax
    a2a3:	0f b7 c0             	movzwl %ax,%eax
    a2a6:	be 00 00 00 00       	mov    $0x0,%esi
    a2ab:	89 c7                	mov    %eax,%edi
    a2ad:	e8 0c eb ff ff       	callq  8dbe <safe_lshift_func_uint16_t_u_s>
    a2b2:	8b 85 10 ec ff ff    	mov    -0x13f0(%rbp),%eax
    a2b8:	0f b7 c0             	movzwl %ax,%eax
    a2bb:	be ff ff 00 00       	mov    $0xffff,%esi
    a2c0:	89 c7                	mov    %eax,%edi
    a2c2:	e8 3f eb ff ff       	callq  8e06 <safe_lshift_func_uint16_t_u_u>
    a2c7:	bf 01 00 00 00       	mov    $0x1,%edi
    a2cc:	e8 c5 e2 ff ff       	callq  8596 <safe_unary_minus_func_int32_t_s>
    a2d1:	b8 01 00 00 00       	mov    $0x1,%eax
    a2d6:	83 e0 01             	and    $0x1,%eax
    a2d9:	44 31 e0             	xor    %r12d,%eax
    a2dc:	0f b6 c0             	movzbl %al,%eax
    a2df:	39 c3                	cmp    %eax,%ebx
    a2e1:	0f 84 d8 05 00 00    	je     a8bf <func_1+0x110a>
    a2e7:	c7 85 60 e6 ff ff 65 	movl   $0xd076ad65,-0x19a0(%rbp)
    a2ee:	ad 76 d0 
    a2f1:	c7 85 a4 e6 ff ff 06 	movl   $0x843e4606,-0x195c(%rbp)
    a2f8:	46 3e 84 
    a2fb:	c7 85 64 e6 ff ff f6 	movl   $0xfffffff6,-0x199c(%rbp)
    a302:	ff ff ff 
    a305:	c6 85 80 e5 ff ff 01 	movb   $0x1,-0x1a80(%rbp)
    a30c:	c7 85 68 e6 ff ff b5 	movl   $0x1a1adab5,-0x1998(%rbp)
    a313:	da 1a 1a 
    a316:	48 8d 05 eb 28 01 00 	lea    0x128eb(%rip),%rax        # 1cc08 <g_1182>
    a31d:	48 89 85 10 e9 ff ff 	mov    %rax,-0x16f0(%rbp)
    a324:	66 c7 85 a6 e5 ff ff 	movw   $0xb29e,-0x1a5a(%rbp)
    a32b:	9e b2 
    a32d:	c7 85 c4 e5 ff ff fc 	movl   $0xfffffffc,-0x1a3c(%rbp)
    a334:	ff ff ff 
    a337:	eb 36                	jmp    a36f <func_1+0xbba>
    a339:	8b 05 e1 c3 00 00    	mov    0xc3e1(%rip),%eax        # 16720 <l_1107.4180+0x10>
    a33f:	0f b7 c0             	movzwl %ax,%eax
    a342:	be 09 00 00 00       	mov    $0x9,%esi
    a347:	89 c7                	mov    %eax,%edi
    a349:	e8 70 ea ff ff       	callq  8dbe <safe_lshift_func_uint16_t_u_s>
    a34e:	0f b7 c0             	movzwl %ax,%eax
    a351:	89 85 60 e6 ff ff    	mov    %eax,-0x19a0(%rbp)
    a357:	8b 85 c4 e5 ff ff    	mov    -0x1a3c(%rbp),%eax
    a35d:	be 04 00 00 00       	mov    $0x4,%esi
    a362:	89 c7                	mov    %eax,%edi
    a364:	e8 4f eb ff ff       	callq  8eb8 <safe_add_func_uint32_t_u_u>
    a369:	89 85 c4 e5 ff ff    	mov    %eax,-0x1a3c(%rbp)
    a36f:	8b 85 c4 e5 ff ff    	mov    -0x1a3c(%rbp),%eax
    a375:	83 f8 10             	cmp    $0x10,%eax
    a378:	7e bf                	jle    a339 <func_1+0xb84>
    a37a:	48 c7 05 bb f2 00 00 	movq   $0xfffffffffffffffc,0xf2bb(%rip)        # 19640 <g_100>
    a381:	fc ff ff ff 
    a385:	e9 9f 00 00 00       	jmpq   a429 <func_1+0xc74>
    a38a:	48 c7 85 30 e9 ff ff 	movq   $0x0,-0x16d0(%rbp)
    a391:	00 00 00 00 
    a395:	48 8d 85 00 f1 ff ff 	lea    -0xf00(%rbp),%rax
    a39c:	48 05 48 01 00 00    	add    $0x148,%rax
    a3a2:	48 89 85 38 e9 ff ff 	mov    %rax,-0x16c8(%rbp)
    a3a9:	48 8b 85 d0 e7 ff ff 	mov    -0x1830(%rbp),%rax
    a3b0:	c6 00 00             	movb   $0x0,(%rax)
    a3b3:	48 8b 05 86 16 01 00 	mov    0x11686(%rip),%rax        # 1ba40 <g_350>
    a3ba:	48 8b 95 e0 e8 ff ff 	mov    -0x1720(%rbp),%rdx
    a3c1:	48 89 10             	mov    %rdx,(%rax)
    a3c4:	48 8b 10             	mov    (%rax),%rdx
    a3c7:	48 8b 05 6a 19 01 00 	mov    0x1196a(%rip),%rax        # 1bd38 <g_780>
    a3ce:	48 8b 00             	mov    (%rax),%rax
    a3d1:	48 8b 00             	mov    (%rax),%rax
    a3d4:	48 39 c2             	cmp    %rax,%rdx
    a3d7:	48 8b 95 d8 f2 ff ff 	mov    -0xd28(%rbp),%rdx
    a3de:	48 8b 85 38 e9 ff ff 	mov    -0x16c8(%rbp),%rax
    a3e5:	48 89 10             	mov    %rdx,(%rax)
    a3e8:	48 8b 85 38 e9 ff ff 	mov    -0x16c8(%rbp),%rax
    a3ef:	48 8b 10             	mov    (%rax),%rdx
    a3f2:	48 8b 85 88 eb ff ff 	mov    -0x1478(%rbp),%rax
    a3f9:	48 39 c2             	cmp    %rax,%rdx
    a3fc:	0f 95 c0             	setne  %al
    a3ff:	0f b6 d0             	movzbl %al,%edx
    a402:	48 8b 05 87 f2 00 00 	mov    0xf287(%rip),%rax        # 19690 <g_192>
    a409:	48 39 c2             	cmp    %rax,%rdx
    a40c:	b8 01 00 00 00       	mov    $0x1,%eax
    a411:	21 85 64 e6 ff ff    	and    %eax,-0x199c(%rbp)
    a417:	48 8b 05 22 f2 00 00 	mov    0xf222(%rip),%rax        # 19640 <g_100>
    a41e:	48 83 c0 01          	add    $0x1,%rax
    a422:	48 89 05 17 f2 00 00 	mov    %rax,0xf217(%rip)        # 19640 <g_100>
    a429:	48 8b 05 10 f2 00 00 	mov    0xf210(%rip),%rax        # 19640 <g_100>
    a430:	48 83 f8 18          	cmp    $0x18,%rax
    a434:	0f 85 50 ff ff ff    	jne    a38a <func_1+0xbd5>
    a43a:	8b 85 60 e6 ff ff    	mov    -0x19a0(%rbp),%eax
    a440:	48 63 d8             	movslq %eax,%rbx
    a443:	8b 05 cb c2 00 00    	mov    0xc2cb(%rip),%eax        # 16714 <l_1107.4180+0x4>
    a449:	0f b6 c0             	movzbl %al,%eax
    a44c:	89 c6                	mov    %eax,%esi
    a44e:	bf a6 00 00 00       	mov    $0xa6,%edi
    a453:	e8 56 e7 ff ff       	callq  8bae <safe_mod_func_uint8_t_u_u>
    a458:	0f b6 85 80 e5 ff ff 	movzbl -0x1a80(%rbp),%eax
    a45f:	0f b6 d0             	movzbl %al,%edx
    a462:	48 8b 85 00 e8 ff ff 	mov    -0x1800(%rbp),%rax
    a469:	0f b6 c0             	movzbl %al,%eax
    a46c:	89 d6                	mov    %edx,%esi
    a46e:	89 c7                	mov    %eax,%edi
    a470:	e8 1e e7 ff ff       	callq  8b93 <safe_mul_func_uint8_t_u_u>
    a475:	0f b6 c0             	movzbl %al,%eax
    a478:	48 89 de             	mov    %rbx,%rsi
    a47b:	48 89 c7             	mov    %rax,%rdi
    a47e:	e8 25 e4 ff ff       	callq  88a8 <safe_sub_func_int64_t_s_s>
    a483:	48 8b 85 78 e7 ff ff 	mov    -0x1888(%rbp),%rax
    a48a:	48 8d 15 b3 f3 00 00 	lea    0xf3b3(%rip),%rdx        # 19844 <g_618>
    a491:	48 39 d0             	cmp    %rdx,%rax
    a494:	0f 95 c0             	setne  %al
    a497:	0f b6 c0             	movzbl %al,%eax
    a49a:	89 c6                	mov    %eax,%esi
    a49c:	bf 01 00 00 00       	mov    $0x1,%edi
    a4a1:	e8 4f df ff ff       	callq  83f5 <safe_mul_func_int16_t_s_s>
    a4a6:	66 85 c0             	test   %ax,%ax
    a4a9:	75 09                	jne    a4b4 <func_1+0xcff>
    a4ab:	80 bd 80 e5 ff ff 00 	cmpb   $0x0,-0x1a80(%rbp)
    a4b2:	74 07                	je     a4bb <func_1+0xd06>
    a4b4:	b8 01 00 00 00       	mov    $0x1,%eax
    a4b9:	eb 05                	jmp    a4c0 <func_1+0xd0b>
    a4bb:	b8 00 00 00 00       	mov    $0x0,%eax
    a4c0:	3d 4a e5 00 00       	cmp    $0xe54a,%eax
    a4c5:	7f 16                	jg     a4dd <func_1+0xd28>
    a4c7:	66 c7 85 aa e5 ff ff 	movw   $0x1,-0x1a56(%rbp)
    a4ce:	01 00 
    a4d0:	66 83 85 aa e5 ff ff 	addw   $0x1,-0x1a56(%rbp)
    a4d7:	01 
    a4d8:	e9 44 06 00 00       	jmpq   ab21 <func_1+0x136c>
    a4dd:	66 c7 85 a8 e5 ff ff 	movw   $0x7,-0x1a58(%rbp)
    a4e4:	07 00 
    a4e6:	c7 85 a8 e6 ff ff 09 	movl   $0x9,-0x1958(%rbp)
    a4ed:	00 00 00 
    a4f0:	48 8d 85 78 e7 ff ff 	lea    -0x1888(%rbp),%rax
    a4f7:	48 89 85 18 e9 ff ff 	mov    %rax,-0x16e8(%rbp)
    a4fe:	48 c7 85 20 e9 ff ff 	movq   $0x0,-0x16e0(%rbp)
    a505:	00 00 00 00 
    a509:	48 c7 85 28 e9 ff ff 	movq   $0x0,-0x16d8(%rbp)
    a510:	00 00 00 00 
    a514:	48 8b 05 5d 1c 01 00 	mov    0x11c5d(%rip),%rax        # 1c178 <g_1161>
    a51b:	48 8d 95 c4 e5 ff ff 	lea    -0x1a3c(%rbp),%rdx
    a522:	48 89 10             	mov    %rdx,(%rax)
    a525:	c7 05 19 f1 00 00 00 	movl   $0x0,0xf119(%rip)        # 19648 <g_131>
    a52c:	00 00 00 
    a52f:	e9 80 00 00 00       	jmpq   a5b4 <func_1+0xdff>
    a534:	c7 85 6c e6 ff ff 00 	movl   $0x0,-0x1994(%rbp)
    a53b:	00 00 00 
    a53e:	eb 14                	jmp    a554 <func_1+0xd9f>
    a540:	8b 85 6c e6 ff ff    	mov    -0x1994(%rbp),%eax
    a546:	48 98                	cltq   
    a548:	c6 44 05 be 01       	movb   $0x1,-0x42(%rbp,%rax,1)
    a54d:	83 85 6c e6 ff ff 01 	addl   $0x1,-0x1994(%rbp)
    a554:	83 bd 6c e6 ff ff 05 	cmpl   $0x5,-0x1994(%rbp)
    a55b:	7e e3                	jle    a540 <func_1+0xd8b>
    a55d:	0f b6 45 c1          	movzbl -0x3f(%rbp),%eax
    a561:	3c 2a                	cmp    $0x2a,%al
    a563:	0f 9f c0             	setg   %al
    a566:	0f b6 c8             	movzbl %al,%ecx
    a569:	48 8b 05 10 14 01 00 	mov    0x11410(%rip),%rax        # 1b980 <g_32>
    a570:	0f b6 00             	movzbl (%rax),%eax
    a573:	0f be d0             	movsbl %al,%edx
    a576:	48 8b 05 2b 26 01 00 	mov    0x1262b(%rip),%rax        # 1cba8 <g_145>
    a57d:	09 ca                	or     %ecx,%edx
    a57f:	89 10                	mov    %edx,(%rax)
    a581:	48 8b 05 f0 1b 01 00 	mov    0x11bf0(%rip),%rax        # 1c178 <g_1161>
    a588:	48 8b 00             	mov    (%rax),%rax
    a58b:	8b 00                	mov    (%rax),%eax
    a58d:	85 c0                	test   %eax,%eax
    a58f:	75 0a                	jne    a59b <func_1+0xde6>
    a591:	8b 85 c4 e5 ff ff    	mov    -0x1a3c(%rbp),%eax
    a597:	85 c0                	test   %eax,%eax
    a599:	eb 01                	jmp    a59c <func_1+0xde7>
    a59b:	90                   	nop
    a59c:	8b 05 a6 f0 00 00    	mov    0xf0a6(%rip),%eax        # 19648 <g_131>
    a5a2:	be 04 00 00 00       	mov    $0x4,%esi
    a5a7:	89 c7                	mov    %eax,%edi
    a5a9:	e8 22 e9 ff ff       	callq  8ed0 <safe_sub_func_uint32_t_u_u>
    a5ae:	89 05 94 f0 00 00    	mov    %eax,0xf094(%rip)        # 19648 <g_131>
    a5b4:	8b 05 8e f0 00 00    	mov    0xf08e(%rip),%eax        # 19648 <g_131>
    a5ba:	83 f8 f8             	cmp    $0xfffffff8,%eax
    a5bd:	0f 85 71 ff ff ff    	jne    a534 <func_1+0xd7f>
    a5c3:	8b 85 fc eb ff ff    	mov    -0x1404(%rbp),%eax
    a5c9:	85 c0                	test   %eax,%eax
    a5cb:	0f 84 09 01 00 00    	je     a6da <func_1+0xf25>
    a5d1:	c7 85 b4 e6 ff ff 77 	movl   $0xbdcbbc77,-0x194c(%rbp)
    a5d8:	bc cb bd 
    a5db:	66 83 bd a8 e5 ff ff 	cmpw   $0x0,-0x1a58(%rbp)
    a5e2:	00 
    a5e3:	0f 85 81 36 00 00    	jne    dc6a <func_1+0x44b5>
    a5e9:	8b 85 60 e6 ff ff    	mov    -0x19a0(%rbp),%eax
    a5ef:	89 85 dc e5 ff ff    	mov    %eax,-0x1a24(%rbp)
    a5f5:	83 bd dc e5 ff ff 00 	cmpl   $0x0,-0x1a24(%rbp)
    a5fc:	0f 85 b6 00 00 00    	jne    a6b8 <func_1+0xf03>
    a602:	8b 05 18 c1 00 00    	mov    0xc118(%rip),%eax        # 16720 <l_1107.4180+0x10>
    a608:	83 f8 ff             	cmp    $0xffffffff,%eax
    a60b:	0f 85 a7 00 00 00    	jne    a6b8 <func_1+0xf03>
    a611:	48 8b 85 b0 e7 ff ff 	mov    -0x1850(%rbp),%rax
    a618:	8b 10                	mov    (%rax),%edx
    a61a:	48 8b 85 b0 e7 ff ff 	mov    -0x1850(%rbp),%rax
    a621:	23 95 04 e6 ff ff    	and    -0x19fc(%rbp),%edx
    a627:	89 10                	mov    %edx,(%rax)
    a629:	8b 18                	mov    (%rax),%ebx
    a62b:	be 05 00 00 00       	mov    $0x5,%esi
    a630:	bf 01 00 00 00       	mov    $0x1,%edi
    a635:	e8 f4 e9 ff ff       	callq  902e <safe_add_func_uint64_t_u_u>
    a63a:	0f b6 c0             	movzbl %al,%eax
    a63d:	be 01 00 00 00       	mov    $0x1,%esi
    a642:	89 c7                	mov    %eax,%edi
    a644:	e8 4a e5 ff ff       	callq  8b93 <safe_mul_func_uint8_t_u_u>
    a649:	0f b7 05 4c eb 00 00 	movzwl 0xeb4c(%rip),%eax        # 1919c <g_61+0x13c>
    a650:	98                   	cwtl   
    a651:	be 3d 2f 00 00       	mov    $0x2f3d,%esi
    a656:	89 c7                	mov    %eax,%edi
    a658:	e8 f8 dd ff ff       	callq  8455 <safe_div_func_int16_t_s_s>
    a65d:	66 85 c0             	test   %ax,%ax
    a660:	75 09                	jne    a66b <func_1+0xeb6>
    a662:	83 bd b4 e6 ff ff 00 	cmpl   $0x0,-0x194c(%rbp)
    a669:	74 07                	je     a672 <func_1+0xebd>
    a66b:	b8 01 00 00 00       	mov    $0x1,%eax
    a670:	eb 05                	jmp    a677 <func_1+0xec2>
    a672:	b8 00 00 00 00       	mov    $0x0,%eax
    a677:	39 c3                	cmp    %eax,%ebx
    a679:	0f 95 c2             	setne  %dl
    a67c:	48 8b 05 25 25 01 00 	mov    0x12525(%rip),%rax        # 1cba8 <g_145>
    a683:	0f b6 d2             	movzbl %dl,%edx
    a686:	89 10                	mov    %edx,(%rax)
    a688:	8b 00                	mov    (%rax),%eax
    a68a:	89 85 04 f0 ff ff    	mov    %eax,-0xffc(%rbp)
    a690:	8b 85 04 f0 ff ff    	mov    -0xffc(%rbp),%eax
    a696:	89 85 a8 e6 ff ff    	mov    %eax,-0x1958(%rbp)
    a69c:	48 8b 05 c5 1a 01 00 	mov    0x11ac5(%rip),%rax        # 1c168 <g_806>
    a6a3:	8b 00                	mov    (%rax),%eax
    a6a5:	8b 95 a8 e6 ff ff    	mov    -0x1958(%rbp),%edx
    a6ab:	89 d6                	mov    %edx,%esi
    a6ad:	89 c7                	mov    %eax,%edi
    a6af:	e8 02 df ff ff       	callq  85b6 <safe_add_func_int32_t_s_s>
    a6b4:	85 c0                	test   %eax,%eax
    a6b6:	74 07                	je     a6bf <func_1+0xf0a>
    a6b8:	b8 01 00 00 00       	mov    $0x1,%eax
    a6bd:	eb 05                	jmp    a6c4 <func_1+0xf0f>
    a6bf:	b8 00 00 00 00       	mov    $0x0,%eax
    a6c4:	21 85 68 e6 ff ff    	and    %eax,-0x1998(%rbp)
    a6ca:	48 8b 85 f0 e8 ff ff 	mov    -0x1710(%rbp),%rax
    a6d1:	48 89 85 10 e9 ff ff 	mov    %rax,-0x16f0(%rbp)
    a6d8:	eb 40                	jmp    a71a <func_1+0xf65>
    a6da:	c7 85 ac e6 ff ff bd 	movl   $0x87277bbd,-0x1954(%rbp)
    a6e1:	7b 27 87 
    a6e4:	c7 85 b0 e6 ff ff ae 	movl   $0xafea20ae,-0x1950(%rbp)
    a6eb:	20 ea af 
    a6ee:	c7 85 04 f0 ff ff cc 	movl   $0xc61458cc,-0xffc(%rbp)
    a6f5:	58 14 c6 
    a6f8:	b8 01 00 00 00       	mov    $0x1,%eax
    a6fd:	83 f8 ff             	cmp    $0xffffffff,%eax
    a700:	0f 95 c0             	setne  %al
    a703:	0f b6 c0             	movzbl %al,%eax
    a706:	89 85 b0 e6 ff ff    	mov    %eax,-0x1950(%rbp)
    a70c:	66 83 bd a6 e5 ff ff 	cmpw   $0x0,-0x1a5a(%rbp)
    a713:	00 
    a714:	0f 85 27 35 00 00    	jne    dc41 <func_1+0x448c>
    a71a:	48 8b 85 00 e8 ff ff 	mov    -0x1800(%rbp),%rax
    a721:	89 c3                	mov    %eax,%ebx
    a723:	8b 85 30 ed ff ff    	mov    -0x12d0(%rbp),%eax
    a729:	48 98                	cltq   
    a72b:	be 04 00 00 00       	mov    $0x4,%esi
    a730:	48 89 c7             	mov    %rax,%rdi
    a733:	e8 7c e2 ff ff       	callq  89b4 <safe_mod_func_int64_t_s_s>
    a738:	0f b6 c0             	movzbl %al,%eax
    a73b:	89 de                	mov    %ebx,%esi
    a73d:	89 c7                	mov    %eax,%edi
    a73f:	e8 7a e5 ff ff       	callq  8cbe <safe_rshift_func_uint8_t_u_u>
    a744:	b9 01 00 00 00       	mov    $0x1,%ecx
    a749:	48 8b 05 58 24 01 00 	mov    0x12458(%rip),%rax        # 1cba8 <g_145>
    a750:	8b 10                	mov    (%rax),%edx
    a752:	48 8b 05 4f 24 01 00 	mov    0x1244f(%rip),%rax        # 1cba8 <g_145>
    a759:	31 ca                	xor    %ecx,%edx
    a75b:	89 10                	mov    %edx,(%rax)
    a75d:	8b 18                	mov    (%rax),%ebx
    a75f:	8b 95 30 ed ff ff    	mov    -0x12d0(%rbp),%edx
    a765:	8b 85 ec eb ff ff    	mov    -0x1414(%rbp),%eax
    a76b:	0f be c0             	movsbl %al,%eax
    a76e:	89 d6                	mov    %edx,%esi
    a770:	89 c7                	mov    %eax,%edi
    a772:	e8 2a db ff ff       	callq  82a1 <safe_lshift_func_int8_t_s_s>
    a777:	84 c0                	test   %al,%al
    a779:	75 17                	jne    a792 <func_1+0xfdd>
    a77b:	48 8b 85 b8 e7 ff ff 	mov    -0x1848(%rbp),%rax
    a782:	48 8b 00             	mov    (%rax),%rax
    a785:	8b 10                	mov    (%rax),%edx
    a787:	83 c2 01             	add    $0x1,%edx
    a78a:	89 10                	mov    %edx,(%rax)
    a78c:	8b 00                	mov    (%rax),%eax
    a78e:	85 c0                	test   %eax,%eax
    a790:	74 07                	je     a799 <func_1+0xfe4>
    a792:	b8 01 00 00 00       	mov    $0x1,%eax
    a797:	eb 05                	jmp    a79e <func_1+0xfe9>
    a799:	b8 00 00 00 00       	mov    $0x0,%eax
    a79e:	44 0f bf e0          	movswl %ax,%r12d
    a7a2:	48 8b 85 18 e9 ff ff 	mov    -0x16e8(%rbp),%rax
    a7a9:	48 8d 15 ec e9 00 00 	lea    0xe9ec(%rip),%rdx        # 1919c <g_61+0x13c>
    a7b0:	48 89 10             	mov    %rdx,(%rax)
    a7b3:	48 8b 85 18 e9 ff ff 	mov    -0x16e8(%rbp),%rax
    a7ba:	48 8b 00             	mov    (%rax),%rax
    a7bd:	48 39 85 20 e9 ff ff 	cmp    %rax,-0x16e0(%rbp)
    a7c4:	0f 95 c0             	setne  %al
    a7c7:	0f b6 d0             	movzbl %al,%edx
    a7ca:	8b 85 0c ec ff ff    	mov    -0x13f4(%rbp),%eax
    a7d0:	39 c2                	cmp    %eax,%edx
    a7d2:	0f 95 c0             	setne  %al
    a7d5:	0f b6 c0             	movzbl %al,%eax
    a7d8:	89 c7                	mov    %eax,%edi
    a7da:	e8 b7 dd ff ff       	callq  8596 <safe_unary_minus_func_int32_t_s>
    a7df:	0f b7 05 6c ea 00 00 	movzwl 0xea6c(%rip),%eax        # 19252 <g_63>
    a7e6:	83 c0 01             	add    $0x1,%eax
    a7e9:	66 89 05 62 ea 00 00 	mov    %ax,0xea62(%rip)        # 19252 <g_63>
    a7f0:	0f b7 05 5b ea 00 00 	movzwl 0xea5b(%rip),%eax        # 19252 <g_63>
    a7f7:	44 0f b7 e8          	movzwl %ax,%r13d
    a7fb:	48 bf f2 bc 8e 53 a5 	movabs $0x3e909a5538ebcf2,%rdi
    a802:	09 e9 03 
    a805:	e8 0f e8 ff ff       	callq  9019 <safe_unary_minus_func_uint64_t_u>
    a80a:	49 39 c5             	cmp    %rax,%r13
    a80d:	0f 93 c0             	setae  %al
    a810:	0f b6 d0             	movzbl %al,%edx
    a813:	8b 85 30 ed ff ff    	mov    -0x12d0(%rbp),%eax
    a819:	39 c2                	cmp    %eax,%edx
    a81b:	0f 9e c0             	setle  %al
    a81e:	0f b6 d0             	movzbl %al,%edx
    a821:	0f b7 05 48 e8 00 00 	movzwl 0xe848(%rip),%eax        # 19070 <g_61+0x10>
    a828:	21 d0                	and    %edx,%eax
    a82a:	66 89 05 3f e8 00 00 	mov    %ax,0xe83f(%rip)        # 19070 <g_61+0x10>
    a831:	0f b7 05 38 e8 00 00 	movzwl 0xe838(%rip),%eax        # 19070 <g_61+0x10>
    a838:	98                   	cwtl   
    a839:	44 89 e6             	mov    %r12d,%esi
    a83c:	89 c7                	mov    %eax,%edi
    a83e:	e8 70 db ff ff       	callq  83b3 <safe_add_func_int16_t_s_s>
    a843:	98                   	cwtl   
    a844:	89 de                	mov    %ebx,%esi
    a846:	89 c7                	mov    %eax,%edi
    a848:	e8 b2 de ff ff       	callq  86ff <safe_div_func_int32_t_s_s>
    a84d:	8b 95 fc eb ff ff    	mov    -0x1404(%rbp),%edx
    a853:	31 d0                	xor    %edx,%eax
    a855:	23 85 68 e6 ff ff    	and    -0x1998(%rbp),%eax
    a85b:	89 c2                	mov    %eax,%edx
    a85d:	0f bf 85 a6 e5 ff ff 	movswl -0x1a5a(%rbp),%eax
    a864:	39 c2                	cmp    %eax,%edx
    a866:	7f 0a                	jg     a872 <func_1+0x10bd>
    a868:	8b 05 b2 be 00 00    	mov    0xbeb2(%rip),%eax        # 16720 <l_1107.4180+0x10>
    a86e:	85 c0                	test   %eax,%eax
    a870:	74 07                	je     a879 <func_1+0x10c4>
    a872:	b8 01 00 00 00       	mov    $0x1,%eax
    a877:	eb 05                	jmp    a87e <func_1+0x10c9>
    a879:	b8 00 00 00 00       	mov    $0x0,%eax
    a87e:	f7 d0                	not    %eax
    a880:	0f b6 c0             	movzbl %al,%eax
    a883:	be 02 00 00 00       	mov    $0x2,%esi
    a888:	89 c7                	mov    %eax,%edi
    a88a:	e8 bd e3 ff ff       	callq  8c4c <safe_lshift_func_uint8_t_u_u>
    a88f:	0f b6 85 75 e5 ff ff 	movzbl -0x1a8b(%rbp),%eax
    a896:	84 c0                	test   %al,%al
    a898:	75 07                	jne    a8a1 <func_1+0x10ec>
    a89a:	83 bd 64 e6 ff ff 00 	cmpl   $0x0,-0x199c(%rbp)
    a8a1:	c7 85 04 f0 ff ff 01 	movl   $0x1,-0xffc(%rbp)
    a8a8:	00 00 00 
    a8ab:	48 8b 05 b6 18 01 00 	mov    0x118b6(%rip),%rax        # 1c168 <g_806>
    a8b2:	8b 95 04 f0 ff ff    	mov    -0xffc(%rbp),%edx
    a8b8:	89 10                	mov    %edx,(%rax)
    a8ba:	e9 62 02 00 00       	jmpq   ab21 <func_1+0x136c>
    a8bf:	48 c7 85 f8 e8 ff ff 	movq   $0x0,-0x1708(%rbp)
    a8c6:	00 00 00 00 
    a8ca:	48 8d 05 f7 11 01 00 	lea    0x111f7(%rip),%rax        # 1bac8 <g_455+0x68>
    a8d1:	48 89 85 00 e9 ff ff 	mov    %rax,-0x1700(%rbp)
    a8d8:	48 8d 85 50 ef ff ff 	lea    -0x10b0(%rbp),%rax
    a8df:	48 05 b4 00 00 00    	add    $0xb4,%rax
    a8e5:	48 89 85 08 e9 ff ff 	mov    %rax,-0x16f8(%rbp)
    a8ec:	48 8d 85 00 f8 ff ff 	lea    -0x800(%rbp),%rax
    a8f3:	48 8d 15 26 f6 00 00 	lea    0xf626(%rip),%rdx        # 19f20 <g_2195+0x3f0>
    a8fa:	b9 f5 00 00 00       	mov    $0xf5,%ecx
    a8ff:	48 89 c7             	mov    %rax,%rdi
    a902:	48 89 d6             	mov    %rdx,%rsi
    a905:	f3 48 a5             	rep movsq %ds:(%rsi),%es:(%rdi)
    a908:	c7 85 70 e6 ff ff 00 	movl   $0x0,-0x1990(%rbp)
    a90f:	00 00 00 
    a912:	eb 1e                	jmp    a932 <func_1+0x117d>
    a914:	8b 85 70 e6 ff ff    	mov    -0x1990(%rbp),%eax
    a91a:	48 98                	cltq   
    a91c:	48 8d 95 a8 e7 ff ff 	lea    -0x1858(%rbp),%rdx
    a923:	48 89 94 c5 a0 eb ff 	mov    %rdx,-0x1460(%rbp,%rax,8)
    a92a:	ff 
    a92b:	83 85 70 e6 ff ff 01 	addl   $0x1,-0x1990(%rbp)
    a932:	83 bd 70 e6 ff ff 03 	cmpl   $0x3,-0x1990(%rbp)
    a939:	7e d9                	jle    a914 <func_1+0x115f>
    a93b:	48 c7 85 d8 e8 ff ff 	movq   $0xffffffffffffffec,-0x1728(%rbp)
    a942:	ec ff ff ff 
    a946:	48 83 bd d8 e8 ff ff 	cmpq   $0x1c,-0x1728(%rbp)
    a94d:	1c 
    a94e:	74 13                	je     a963 <func_1+0x11ae>
    a950:	c6 85 7f e5 ff ff fe 	movb   $0xfe,-0x1a81(%rbp)
    a957:	0f b6 85 7f e5 ff ff 	movzbl -0x1a81(%rbp),%eax
    a95e:	e9 a6 5b 00 00       	jmpq   10509 <func_1+0x6d54>
    a963:	48 8b 85 08 e9 ff ff 	mov    -0x16f8(%rbp),%rax
    a96a:	8b 00                	mov    (%rax),%eax
    a96c:	0f b6 d8             	movzbl %al,%ebx
    a96f:	48 8b 15 a2 13 01 00 	mov    0x113a2(%rip),%rdx        # 1bd18 <g_653>
    a976:	48 8b 05 9b 13 01 00 	mov    0x1139b(%rip),%rax        # 1bd18 <g_653>
    a97d:	48 8b 12             	mov    (%rdx),%rdx
    a980:	48 89 10             	mov    %rdx,(%rax)
    a983:	48 8b 00             	mov    (%rax),%rax
    a986:	48 85 c0             	test   %rax,%rax
    a989:	0f 95 c0             	setne  %al
    a98c:	0f b6 c0             	movzbl %al,%eax
    a98f:	be 07 00 00 00       	mov    $0x7,%esi
    a994:	89 c7                	mov    %eax,%edi
    a996:	e8 d1 d9 ff ff       	callq  836c <safe_rshift_func_int8_t_s_u>
    a99b:	0f be d0             	movsbl %al,%edx
    a99e:	0f b6 05 f7 ec 00 00 	movzbl 0xecf7(%rip),%eax        # 1969c <g_207+0x4>
    a9a5:	0f b6 c0             	movzbl %al,%eax
    a9a8:	89 d6                	mov    %edx,%esi
    a9aa:	89 c7                	mov    %eax,%edi
    a9ac:	e8 44 da ff ff       	callq  83f5 <safe_mul_func_int16_t_s_s>
    a9b1:	0f b7 c0             	movzwl %ax,%eax
    a9b4:	be a0 27 00 00       	mov    $0x27a0,%esi
    a9b9:	89 c7                	mov    %eax,%edi
    a9bb:	e8 7d e3 ff ff       	callq  8d3d <safe_mul_func_uint16_t_u_u>
    a9c0:	0f b7 d0             	movzwl %ax,%edx
    a9c3:	48 8b 8d 48 f2 ff ff 	mov    -0xdb8(%rbp),%rcx
    a9ca:	48 8b 85 00 e9 ff ff 	mov    -0x1700(%rbp),%rax
    a9d1:	48 89 08             	mov    %rcx,(%rax)
    a9d4:	48 8b 85 00 e9 ff ff 	mov    -0x1700(%rbp),%rax
    a9db:	48 8b 08             	mov    (%rax),%rcx
    a9de:	48 8d 85 75 e5 ff ff 	lea    -0x1a8b(%rbp),%rax
    a9e5:	48 39 c1             	cmp    %rax,%rcx
    a9e8:	0f 95 c0             	setne  %al
    a9eb:	0f b6 c0             	movzbl %al,%eax
    a9ee:	89 d6                	mov    %edx,%esi
    a9f0:	89 c7                	mov    %eax,%edi
    a9f2:	e8 08 dd ff ff       	callq  86ff <safe_div_func_int32_t_s_s>
    a9f7:	39 85 00 e6 ff ff    	cmp    %eax,-0x1a00(%rbp)
    a9fd:	0f 93 c0             	setae  %al
    aa00:	0f b6 d0             	movzbl %al,%edx
    aa03:	0f be 85 7a e5 ff ff 	movsbl -0x1a86(%rbp),%eax
    aa0a:	39 c2                	cmp    %eax,%edx
    aa0c:	48 8d 85 d4 e5 ff ff 	lea    -0x1a2c(%rbp),%rax
    aa13:	48 39 85 08 e9 ff ff 	cmp    %rax,-0x16f8(%rbp)
    aa1a:	0f 95 c0             	setne  %al
    aa1d:	0f b6 d0             	movzbl %al,%edx
    aa20:	8b 85 fc eb ff ff    	mov    -0x1404(%rbp),%eax
    aa26:	39 c2                	cmp    %eax,%edx
    aa28:	0f 95 c2             	setne  %dl
    aa2b:	48 8b 05 4e 0f 01 00 	mov    0x10f4e(%rip),%rax        # 1b980 <g_32>
    aa32:	88 10                	mov    %dl,(%rax)
    aa34:	be 9e ff ff ff       	mov    $0xffffff9e,%esi
    aa39:	bf 01 00 00 00       	mov    $0x1,%edi
    aa3e:	e8 91 d7 ff ff       	callq  81d4 <safe_add_func_int8_t_s_s>
    aa43:	0f b6 c0             	movzbl %al,%eax
    aa46:	89 de                	mov    %ebx,%esi
    aa48:	89 c7                	mov    %eax,%edi
    aa4a:	e8 8c e1 ff ff       	callq  8bdb <safe_div_func_uint8_t_u_u>
    aa4f:	0f b6 c0             	movzbl %al,%eax
    aa52:	48 89 c7             	mov    %rax,%rdi
    aa55:	e8 bf e5 ff ff       	callq  9019 <safe_unary_minus_func_uint64_t_u>
    aa5a:	89 c2                	mov    %eax,%edx
    aa5c:	8b 85 dc e5 ff ff    	mov    -0x1a24(%rbp),%eax
    aa62:	21 d0                	and    %edx,%eax
    aa64:	89 85 dc e5 ff ff    	mov    %eax,-0x1a24(%rbp)
    aa6a:	8b 85 4c ed ff ff    	mov    -0x12b4(%rbp),%eax
    aa70:	0f be d0             	movsbl %al,%edx
    aa73:	48 8b 05 06 0f 01 00 	mov    0x10f06(%rip),%rax        # 1b980 <g_32>
    aa7a:	0f b6 00             	movzbl (%rax),%eax
    aa7d:	48 0f be c0          	movsbq %al,%rax
    aa81:	48 3d f6 00 00 00    	cmp    $0xf6,%rax
    aa87:	0f 95 c0             	setne  %al
    aa8a:	0f b6 c0             	movzbl %al,%eax
    aa8d:	89 d6                	mov    %edx,%esi
    aa8f:	89 c7                	mov    %eax,%edi
    aa91:	e8 9b d7 ff ff       	callq  8231 <safe_mod_func_int8_t_s_s>
    aa96:	be 03 00 00 00       	mov    $0x3,%esi
    aa9b:	bf 01 00 00 00       	mov    $0x1,%edi
    aaa0:	e8 90 d8 ff ff       	callq  8335 <safe_rshift_func_int8_t_s_s>
    aaa5:	48 0f be c0          	movsbq %al,%rax
    aaa9:	0c df                	or     $0xdf,%al
    aaab:	48 89 c2             	mov    %rax,%rdx
    aaae:	8b 85 30 ed ff ff    	mov    -0x12d0(%rbp),%eax
    aab4:	48 98                	cltq   
    aab6:	48 39 c2             	cmp    %rax,%rdx
    aab9:	7d 08                	jge    aac3 <func_1+0x130e>
    aabb:	8b 05 8f eb 00 00    	mov    0xeb8f(%rip),%eax        # 19650 <g_142>
    aac1:	85 c0                	test   %eax,%eax
    aac3:	48 8b 05 1e ee 00 00 	mov    0xee1e(%rip),%rax        # 198e8 <g_1072+0x28>
    aaca:	01 c0                	add    %eax,%eax
    aacc:	c1 f8 11             	sar    $0x11,%eax
    aacf:	83 f0 01             	xor    $0x1,%eax
    aad2:	0f bf d0             	movswl %ax,%edx
    aad5:	48 8b 85 40 fe ff ff 	mov    -0x1c0(%rbp),%rax
    aadc:	48 85 c0             	test   %rax,%rax
    aadf:	0f 95 c0             	setne  %al
    aae2:	0f b6 c8             	movzbl %al,%ecx
    aae5:	8b 85 7c f0 ff ff    	mov    -0xf84(%rbp),%eax
    aaeb:	39 c1                	cmp    %eax,%ecx
    aaed:	0f 9e c0             	setle  %al
    aaf0:	0f b6 c0             	movzbl %al,%eax
    aaf3:	39 c2                	cmp    %eax,%edx
    aaf5:	0f 9e c0             	setle  %al
    aaf8:	0f b6 d0             	movzbl %al,%edx
    aafb:	8b 85 c8 e5 ff ff    	mov    -0x1a38(%rbp),%eax
    ab01:	31 d0                	xor    %edx,%eax
    ab03:	48 63 d0             	movslq %eax,%rdx
    ab06:	0f b6 85 75 e5 ff ff 	movzbl -0x1a8b(%rbp),%eax
    ab0d:	0f b6 c0             	movzbl %al,%eax
    ab10:	48 89 d6             	mov    %rdx,%rsi
    ab13:	48 89 c7             	mov    %rax,%rdi
    ab16:	e8 13 e5 ff ff       	callq  902e <safe_add_func_uint64_t_u_u>
    ab1b:	89 85 30 ed ff ff    	mov    %eax,-0x12d0(%rbp)
    ab21:	83 bd dc e5 ff ff 00 	cmpl   $0x0,-0x1a24(%rbp)
    ab28:	0f 84 13 31 00 00    	je     dc41 <func_1+0x448c>
    ab2e:	e9 38 31 00 00       	jmpq   dc6b <func_1+0x44b6>
    ab33:	48 c7 85 20 e8 ff ff 	movq   $0x0,-0x17e0(%rbp)
    ab3a:	00 00 00 00 
    ab3e:	48 8d 05 a3 eb 00 00 	lea    0xeba3(%rip),%rax        # 196e8 <g_402>
    ab45:	48 89 85 28 e8 ff ff 	mov    %rax,-0x17d8(%rbp)
    ab4c:	c7 85 d0 e5 ff ff 02 	movl   $0x2,-0x1a30(%rbp)
    ab53:	00 00 00 
    ab56:	48 b8 5e 52 33 40 4a 	movabs $0xbe50544a4033525e,%rax
    ab5d:	54 50 be 
    ab60:	48 89 85 30 e8 ff ff 	mov    %rax,-0x17d0(%rbp)
    ab67:	48 b8 69 5d e8 9f 2a 	movabs $0x4b90052a9fe85d69,%rax
    ab6e:	05 90 4b 
    ab71:	48 89 85 a8 e7 ff ff 	mov    %rax,-0x1858(%rbp)
    ab78:	48 8d 05 cd ea 00 00 	lea    0xeacd(%rip),%rax        # 1964c <g_134>
    ab7f:	48 89 85 38 e8 ff ff 	mov    %rax,-0x17c8(%rbp)
    ab86:	66 c7 85 9c e5 ff ff 	movw   $0xfffe,-0x1a64(%rbp)
    ab8d:	fe ff 
    ab8f:	c7 85 84 e6 ff ff 03 	movl   $0x3,-0x197c(%rbp)
    ab96:	00 00 00 
    ab99:	c7 85 80 ed ff ff 36 	movl   $0x1ada1c36,-0x1280(%rbp)
    aba0:	1c da 1a 
    aba3:	c7 85 84 ed ff ff 01 	movl   $0x1,-0x127c(%rbp)
    abaa:	00 00 00 
    abad:	c7 85 88 ed ff ff 31 	movl   $0x9f844c31,-0x1278(%rbp)
    abb4:	4c 84 9f 
    abb7:	c7 85 8c ed ff ff 4e 	movl   $0x553c94e,-0x1274(%rbp)
    abbe:	c9 53 05 
    abc1:	c7 85 90 ed ff ff 01 	movl   $0x1,-0x1270(%rbp)
    abc8:	00 00 00 
    abcb:	c7 85 94 ed ff ff 01 	movl   $0x1,-0x126c(%rbp)
    abd2:	00 00 00 
    abd5:	c7 85 98 ed ff ff 36 	movl   $0x1ada1c36,-0x1268(%rbp)
    abdc:	1c da 1a 
    abdf:	c7 85 9c ed ff ff 31 	movl   $0x9f844c31,-0x1264(%rbp)
    abe6:	4c 84 9f 
    abe9:	c7 85 a0 ed ff ff 31 	movl   $0x9f844c31,-0x1260(%rbp)
    abf0:	4c 84 9f 
    abf3:	c7 85 a4 ed ff ff 36 	movl   $0x1ada1c36,-0x125c(%rbp)
    abfa:	1c da 1a 
    abfd:	c7 85 a8 ed ff ff 01 	movl   $0x1,-0x1258(%rbp)
    ac04:	00 00 00 
    ac07:	c7 85 ac ed ff ff 31 	movl   $0x9f844c31,-0x1254(%rbp)
    ac0e:	4c 84 9f 
    ac11:	c7 85 b0 ed ff ff 36 	movl   $0x1ada1c36,-0x1250(%rbp)
    ac18:	1c da 1a 
    ac1b:	c7 85 b4 ed ff ff 01 	movl   $0x1,-0x124c(%rbp)
    ac22:	00 00 00 
    ac25:	c7 85 b8 ed ff ff 31 	movl   $0x9f844c31,-0x1248(%rbp)
    ac2c:	4c 84 9f 
    ac2f:	c7 85 bc ed ff ff 4e 	movl   $0x553c94e,-0x1244(%rbp)
    ac36:	c9 53 05 
    ac39:	c7 85 c0 ed ff ff 01 	movl   $0x1,-0x1240(%rbp)
    ac40:	00 00 00 
    ac43:	c7 85 c4 ed ff ff 01 	movl   $0x1,-0x123c(%rbp)
    ac4a:	00 00 00 
    ac4d:	c7 85 c8 ed ff ff 36 	movl   $0x1ada1c36,-0x1238(%rbp)
    ac54:	1c da 1a 
    ac57:	c7 85 cc ed ff ff 31 	movl   $0x9f844c31,-0x1234(%rbp)
    ac5e:	4c 84 9f 
    ac61:	c7 85 d0 ed ff ff 31 	movl   $0x9f844c31,-0x1230(%rbp)
    ac68:	4c 84 9f 
    ac6b:	c7 85 d4 ed ff ff 36 	movl   $0x1ada1c36,-0x122c(%rbp)
    ac72:	1c da 1a 
    ac75:	c7 85 d8 ed ff ff 01 	movl   $0x1,-0x1228(%rbp)
    ac7c:	00 00 00 
    ac7f:	c7 85 dc ed ff ff 31 	movl   $0x9f844c31,-0x1224(%rbp)
    ac86:	4c 84 9f 
    ac89:	c7 85 e0 ed ff ff 36 	movl   $0x1ada1c36,-0x1220(%rbp)
    ac90:	1c da 1a 
    ac93:	c7 85 e4 ed ff ff 01 	movl   $0x1,-0x121c(%rbp)
    ac9a:	00 00 00 
    ac9d:	c7 85 e8 ed ff ff 31 	movl   $0x9f844c31,-0x1218(%rbp)
    aca4:	4c 84 9f 
    aca7:	c7 85 ec ed ff ff 4e 	movl   $0x553c94e,-0x1214(%rbp)
    acae:	c9 53 05 
    acb1:	c7 85 f0 ed ff ff 01 	movl   $0x1,-0x1210(%rbp)
    acb8:	00 00 00 
    acbb:	c7 85 f4 ed ff ff 01 	movl   $0x1,-0x120c(%rbp)
    acc2:	00 00 00 
    acc5:	c7 85 f8 ed ff ff 36 	movl   $0x1ada1c36,-0x1208(%rbp)
    accc:	1c da 1a 
    accf:	c7 85 fc ed ff ff 31 	movl   $0x9f844c31,-0x1204(%rbp)
    acd6:	4c 84 9f 
    acd9:	c7 85 00 ee ff ff 31 	movl   $0x9f844c31,-0x1200(%rbp)
    ace0:	4c 84 9f 
    ace3:	c7 85 04 ee ff ff 36 	movl   $0x1ada1c36,-0x11fc(%rbp)
    acea:	1c da 1a 
    aced:	c7 85 08 ee ff ff 01 	movl   $0x1,-0x11f8(%rbp)
    acf4:	00 00 00 
    acf7:	c7 85 0c ee ff ff 31 	movl   $0x9f844c31,-0x11f4(%rbp)
    acfe:	4c 84 9f 
    ad01:	c7 85 10 ee ff ff 36 	movl   $0x1ada1c36,-0x11f0(%rbp)
    ad08:	1c da 1a 
    ad0b:	c7 85 14 ee ff ff 01 	movl   $0x1,-0x11ec(%rbp)
    ad12:	00 00 00 
    ad15:	c7 85 18 ee ff ff 31 	movl   $0x9f844c31,-0x11e8(%rbp)
    ad1c:	4c 84 9f 
    ad1f:	c7 85 1c ee ff ff 4e 	movl   $0x553c94e,-0x11e4(%rbp)
    ad26:	c9 53 05 
    ad29:	c7 85 20 ee ff ff 01 	movl   $0x1,-0x11e0(%rbp)
    ad30:	00 00 00 
    ad33:	c7 85 24 ee ff ff 01 	movl   $0x1,-0x11dc(%rbp)
    ad3a:	00 00 00 
    ad3d:	c7 85 28 ee ff ff 36 	movl   $0x1ada1c36,-0x11d8(%rbp)
    ad44:	1c da 1a 
    ad47:	c7 85 2c ee ff ff 31 	movl   $0x9f844c31,-0x11d4(%rbp)
    ad4e:	4c 84 9f 
    ad51:	c7 85 30 ee ff ff 31 	movl   $0x9f844c31,-0x11d0(%rbp)
    ad58:	4c 84 9f 
    ad5b:	c7 85 34 ee ff ff 36 	movl   $0x1ada1c36,-0x11cc(%rbp)
    ad62:	1c da 1a 
    ad65:	c7 85 38 ee ff ff 01 	movl   $0x1,-0x11c8(%rbp)
    ad6c:	00 00 00 
    ad6f:	c7 85 3c ee ff ff 31 	movl   $0x9f844c31,-0x11c4(%rbp)
    ad76:	4c 84 9f 
    ad79:	c7 85 40 ee ff ff 36 	movl   $0x1ada1c36,-0x11c0(%rbp)
    ad80:	1c da 1a 
    ad83:	c7 85 44 ee ff ff 01 	movl   $0x1,-0x11bc(%rbp)
    ad8a:	00 00 00 
    ad8d:	c7 85 48 ee ff ff 31 	movl   $0x9f844c31,-0x11b8(%rbp)
    ad94:	4c 84 9f 
    ad97:	c7 85 4c ee ff ff 4e 	movl   $0x553c94e,-0x11b4(%rbp)
    ad9e:	c9 53 05 
    ada1:	c7 85 50 ee ff ff 01 	movl   $0x1,-0x11b0(%rbp)
    ada8:	00 00 00 
    adab:	c7 85 54 ee ff ff 01 	movl   $0x1,-0x11ac(%rbp)
    adb2:	00 00 00 
    adb5:	48 8d 85 00 f1 ff ff 	lea    -0xf00(%rbp),%rax
    adbc:	48 05 48 01 00 00    	add    $0x148,%rax
    adc2:	48 89 85 a0 eb ff ff 	mov    %rax,-0x1460(%rbp)
    adc9:	48 8d 85 00 f1 ff ff 	lea    -0xf00(%rbp),%rax
    add0:	48 05 48 01 00 00    	add    $0x148,%rax
    add6:	48 89 85 a8 eb ff ff 	mov    %rax,-0x1458(%rbp)
    addd:	48 8d 85 00 f1 ff ff 	lea    -0xf00(%rbp),%rax
    ade4:	48 05 48 01 00 00    	add    $0x148,%rax
    adea:	48 89 85 b0 eb ff ff 	mov    %rax,-0x1450(%rbp)
    adf1:	48 8d 85 00 f1 ff ff 	lea    -0xf00(%rbp),%rax
    adf8:	48 05 48 01 00 00    	add    $0x148,%rax
    adfe:	48 89 85 b8 eb ff ff 	mov    %rax,-0x1448(%rbp)
    ae05:	48 8d 85 00 f1 ff ff 	lea    -0xf00(%rbp),%rax
    ae0c:	48 05 48 01 00 00    	add    $0x148,%rax
    ae12:	48 89 85 c0 eb ff ff 	mov    %rax,-0x1440(%rbp)
    ae19:	48 8d 85 00 f1 ff ff 	lea    -0xf00(%rbp),%rax
    ae20:	48 05 48 01 00 00    	add    $0x148,%rax
    ae26:	48 89 85 c8 eb ff ff 	mov    %rax,-0x1438(%rbp)
    ae2d:	48 8d 85 00 f1 ff ff 	lea    -0xf00(%rbp),%rax
    ae34:	48 05 48 01 00 00    	add    $0x148,%rax
    ae3a:	48 89 85 d0 eb ff ff 	mov    %rax,-0x1430(%rbp)
    ae41:	48 8d 85 00 f1 ff ff 	lea    -0xf00(%rbp),%rax
    ae48:	48 05 48 01 00 00    	add    $0x148,%rax
    ae4e:	48 89 85 d8 eb ff ff 	mov    %rax,-0x1428(%rbp)
    ae55:	48 8d 85 80 ed ff ff 	lea    -0x1280(%rbp),%rax
    ae5c:	48 83 c0 34          	add    $0x34,%rax
    ae60:	48 89 85 40 e8 ff ff 	mov    %rax,-0x17c0(%rbp)
    ae67:	48 b8 77 2b 07 1a 31 	movabs $0x52ec32311a072b77,%rax
    ae6e:	32 ec 52 
    ae71:	48 89 85 48 e8 ff ff 	mov    %rax,-0x17b8(%rbp)
    ae78:	c7 85 88 e6 ff ff 1e 	movl   $0x6f08e41e,-0x1978(%rbp)
    ae7f:	e4 08 6f 
    ae82:	66 c7 85 9e e5 ff ff 	movw   $0xd6b4,-0x1a62(%rbp)
    ae89:	b4 d6 
    ae8b:	48 8b 85 28 e8 ff ff 	mov    -0x17d8(%rbp),%rax
    ae92:	48 8b 00             	mov    (%rax),%rax
    ae95:	48 8d 48 01          	lea    0x1(%rax),%rcx
    ae99:	48 8b 95 28 e8 ff ff 	mov    -0x17d8(%rbp),%rdx
    aea0:	48 89 0a             	mov    %rcx,(%rdx)
    aea3:	66 89 85 68 e5 ff ff 	mov    %ax,-0x1a98(%rbp)
    aeaa:	8b 85 30 ed ff ff    	mov    -0x12d0(%rbp),%eax
    aeb0:	48 63 d8             	movslq %eax,%rbx
    aeb3:	48 8b 85 a8 e7 ff ff 	mov    -0x1858(%rbp),%rax
    aeba:	44 0f b7 e0          	movzwl %ax,%r12d
    aebe:	48 8b 85 a8 e7 ff ff 	mov    -0x1858(%rbp),%rax
    aec5:	44 0f b6 e8          	movzbl %al,%r13d
    aec9:	48 8b 85 a8 e7 ff ff 	mov    -0x1858(%rbp),%rax
    aed0:	44 0f b7 f0          	movzwl %ax,%r14d
    aed4:	8b 85 d0 e5 ff ff    	mov    -0x1a30(%rbp),%eax
    aeda:	0f b7 c0             	movzwl %ax,%eax
    aedd:	be 0e 00 00 00       	mov    $0xe,%esi
    aee2:	89 c7                	mov    %eax,%edi
    aee4:	e8 d5 de ff ff       	callq  8dbe <safe_lshift_func_uint16_t_u_s>
    aee9:	48 8b 85 30 e8 ff ff 	mov    -0x17d0(%rbp),%rax
    aef0:	89 85 60 e5 ff ff    	mov    %eax,-0x1aa0(%rbp)
    aef6:	8b 85 d0 e5 ff ff    	mov    -0x1a30(%rbp),%eax
    aefc:	89 85 5c e5 ff ff    	mov    %eax,-0x1aa4(%rbp)
    af02:	8b 85 ac f0 ff ff    	mov    -0xf54(%rbp),%eax
    af08:	89 85 50 e5 ff ff    	mov    %eax,-0x1ab0(%rbp)
    af0e:	0f b6 85 19 eb ff ff 	movzbl -0x14e7(%rbp),%eax
    af15:	44 0f be f8          	movsbl %al,%r15d
    af19:	8b 85 08 e6 ff ff    	mov    -0x19f8(%rbp),%eax
    af1f:	48 8b 15 82 0d 01 00 	mov    0x10d82(%rip),%rdx        # 1bca8 <g_528>
    af26:	89 c6                	mov    %eax,%esi
    af28:	bf f6 00 00 00       	mov    $0xf6,%edi
    af2d:	e8 d3 dc ff ff       	callq  8c05 <safe_lshift_func_uint8_t_u_s>
    af32:	be 0b 00 00 00       	mov    $0xb,%esi
    af37:	bf 00 00 00 00       	mov    $0x0,%edi
    af3c:	e8 a0 d5 ff ff       	callq  84e1 <safe_lshift_func_int16_t_s_u>
    af41:	98                   	cwtl   
    af42:	44 89 fe             	mov    %r15d,%esi
    af45:	89 c7                	mov    %eax,%edi
    af47:	e8 46 d5 ff ff       	callq  8492 <safe_lshift_func_int16_t_s_s>
    af4c:	98                   	cwtl   
    af4d:	8b b5 50 e5 ff ff    	mov    -0x1ab0(%rbp),%esi
    af53:	89 c7                	mov    %eax,%edi
    af55:	e8 87 d5 ff ff       	callq  84e1 <safe_lshift_func_int16_t_s_u>
    af5a:	48 0f bf c0          	movswq %ax,%rax
    af5e:	48 39 85 f0 e7 ff ff 	cmp    %rax,-0x1810(%rbp)
    af65:	74 07                	je     af6e <func_1+0x17b9>
    af67:	b8 01 00 00 00       	mov    $0x1,%eax
    af6c:	eb 05                	jmp    af73 <func_1+0x17be>
    af6e:	b8 00 00 00 00       	mov    $0x0,%eax
    af73:	89 c7                	mov    %eax,%edi
    af75:	e8 cb db ff ff       	callq  8b45 <safe_unary_minus_func_uint8_t_u>
    af7a:	0f b6 d0             	movzbl %al,%edx
    af7d:	48 8b 85 a8 e7 ff ff 	mov    -0x1858(%rbp),%rax
    af84:	48 39 c2             	cmp    %rax,%rdx
    af87:	75 0a                	jne    af93 <func_1+0x17de>
    af89:	48 83 bd 30 e8 ff ff 	cmpq   $0x0,-0x17d0(%rbp)
    af90:	00 
    af91:	74 07                	je     af9a <func_1+0x17e5>
    af93:	b8 01 00 00 00       	mov    $0x1,%eax
    af98:	eb 05                	jmp    af9f <func_1+0x17ea>
    af9a:	b8 00 00 00 00       	mov    $0x0,%eax
    af9f:	48 98                	cltq   
    afa1:	25 87 98 00 00       	and    $0x9887,%eax
    afa6:	48 39 85 00 e8 ff ff 	cmp    %rax,-0x1800(%rbp)
    afad:	0f 92 c0             	setb   %al
    afb0:	0f b6 c0             	movzbl %al,%eax
    afb3:	8b b5 5c e5 ff ff    	mov    -0x1aa4(%rbp),%esi
    afb9:	89 c7                	mov    %eax,%edi
    afbb:	e8 3d df ff ff       	callq  8efd <safe_mod_func_uint32_t_u_u>
    afc0:	98                   	cwtl   
    afc1:	8b b5 60 e5 ff ff    	mov    -0x1aa0(%rbp),%esi
    afc7:	89 c7                	mov    %eax,%edi
    afc9:	e8 5c d5 ff ff       	callq  852a <safe_rshift_func_int16_t_s_s>
    afce:	44 0f bf f8          	movswl %ax,%r15d
    afd2:	bf 01 00 00 00       	mov    $0x1,%edi
    afd7:	e8 0d dd ff ff       	callq  8ce9 <safe_unary_minus_func_uint16_t_u>
    afdc:	83 c8 01             	or     $0x1,%eax
    afdf:	0f b7 c0             	movzwl %ax,%eax
    afe2:	44 89 fe             	mov    %r15d,%esi
    afe5:	89 c7                	mov    %eax,%edi
    afe7:	e8 5c de ff ff       	callq  8e48 <safe_rshift_func_uint16_t_u_s>
    afec:	89 c2                	mov    %eax,%edx
    afee:	48 8b 85 38 e8 ff ff 	mov    -0x17c8(%rbp),%rax
    aff5:	88 10                	mov    %dl,(%rax)
    aff7:	48 8b 85 38 e8 ff ff 	mov    -0x17c8(%rbp),%rax
    affe:	0f b6 00             	movzbl (%rax),%eax
    b001:	0f b6 c0             	movzbl %al,%eax
    b004:	be c0 00 00 00       	mov    $0xc0,%esi
    b009:	89 c7                	mov    %eax,%edi
    b00b:	e8 83 db ff ff       	callq  8b93 <safe_mul_func_uint8_t_u_u>
    b010:	ba 00 00 00 00       	mov    $0x0,%edx
    b015:	38 d0                	cmp    %dl,%al
    b017:	44 89 f6             	mov    %r14d,%esi
    b01a:	bf 01 00 00 00       	mov    $0x1,%edi
    b01f:	e8 db dc ff ff       	callq  8cff <safe_add_func_uint16_t_u_u>
    b024:	0f b6 c0             	movzbl %al,%eax
    b027:	44 89 ee             	mov    %r13d,%esi
    b02a:	89 c7                	mov    %eax,%edi
    b02c:	e8 62 db ff ff       	callq  8b93 <safe_mul_func_uint8_t_u_u>
    b031:	0f b6 c0             	movzbl %al,%eax
    b034:	8b 95 d0 e5 ff ff    	mov    -0x1a30(%rbp),%edx
    b03a:	31 d0                	xor    %edx,%eax
    b03c:	0f b7 c0             	movzwl %ax,%eax
    b03f:	44 89 e6             	mov    %r12d,%esi
    b042:	89 c7                	mov    %eax,%edi
    b044:	e8 b6 dc ff ff       	callq  8cff <safe_add_func_uint16_t_u_u>
    b049:	0f b7 c0             	movzwl %ax,%eax
    b04c:	48 89 de             	mov    %rbx,%rsi
    b04f:	48 89 c7             	mov    %rax,%rdi
    b052:	e8 ea d7 ff ff       	callq  8841 <safe_add_func_int64_t_s_s>
    b057:	8b 95 30 ed ff ff    	mov    -0x12d0(%rbp),%edx
    b05d:	48 63 d2             	movslq %edx,%rdx
    b060:	48 39 d0             	cmp    %rdx,%rax
    b063:	0f 9f c0             	setg   %al
    b066:	0f b6 c0             	movzbl %al,%eax
    b069:	39 85 08 e6 ff ff    	cmp    %eax,-0x19f8(%rbp)
    b06f:	0f 95 c0             	setne  %al
    b072:	0f b6 c0             	movzbl %al,%eax
    b075:	66 0b 85 68 e5 ff ff 	or     -0x1a98(%rbp),%ax
    b07c:	0f b7 c0             	movzwl %ax,%eax
    b07f:	be f7 ff 00 00       	mov    $0xfff7,%esi
    b084:	89 c7                	mov    %eax,%edi
    b086:	e8 b2 dc ff ff       	callq  8d3d <safe_mul_func_uint16_t_u_u>
    b08b:	48 0f be 95 7a e5 ff 	movsbq -0x1a86(%rbp),%rdx
    b092:	ff 
    b093:	48 8b 05 76 0c 01 00 	mov    0x10c76(%rip),%rax        # 1bd10 <g_552>
    b09a:	48 8b 00             	mov    (%rax),%rax
    b09d:	48 8b 00             	mov    (%rax),%rax
    b0a0:	48 39 c2             	cmp    %rax,%rdx
    b0a3:	0f 84 1e 0c 00 00    	je     bcc7 <func_1+0x2512>
    b0a9:	48 8d 95 00 f8 ff ff 	lea    -0x800(%rbp),%rdx
    b0b0:	b8 00 00 00 00       	mov    $0x0,%eax
    b0b5:	b9 b4 00 00 00       	mov    $0xb4,%ecx
    b0ba:	48 89 d7             	mov    %rdx,%rdi
    b0bd:	f3 48 ab             	rep stos %rax,%es:(%rdi)
    b0c0:	48 8d 05 e1 10 01 00 	lea    0x110e1(%rip),%rax        # 1c1a8 <g_1290>
    b0c7:	48 89 85 20 f8 ff ff 	mov    %rax,-0x7e0(%rbp)
    b0ce:	48 8d 05 d3 10 01 00 	lea    0x110d3(%rip),%rax        # 1c1a8 <g_1290>
    b0d5:	48 89 85 30 f8 ff ff 	mov    %rax,-0x7d0(%rbp)
    b0dc:	48 8d 05 c5 10 01 00 	lea    0x110c5(%rip),%rax        # 1c1a8 <g_1290>
    b0e3:	48 89 85 60 f8 ff ff 	mov    %rax,-0x7a0(%rbp)
    b0ea:	48 8d 05 b7 10 01 00 	lea    0x110b7(%rip),%rax        # 1c1a8 <g_1290>
    b0f1:	48 89 85 70 f8 ff ff 	mov    %rax,-0x790(%rbp)
    b0f8:	48 8d 05 a9 10 01 00 	lea    0x110a9(%rip),%rax        # 1c1a8 <g_1290>
    b0ff:	48 89 85 a0 f8 ff ff 	mov    %rax,-0x760(%rbp)
    b106:	48 8d 05 9b 10 01 00 	lea    0x1109b(%rip),%rax        # 1c1a8 <g_1290>
    b10d:	48 89 85 b0 f8 ff ff 	mov    %rax,-0x750(%rbp)
    b114:	48 8d 05 8d 10 01 00 	lea    0x1108d(%rip),%rax        # 1c1a8 <g_1290>
    b11b:	48 89 85 e0 f8 ff ff 	mov    %rax,-0x720(%rbp)
    b122:	48 8d 05 7f 10 01 00 	lea    0x1107f(%rip),%rax        # 1c1a8 <g_1290>
    b129:	48 89 85 f0 f8 ff ff 	mov    %rax,-0x710(%rbp)
    b130:	48 8d 05 71 10 01 00 	lea    0x11071(%rip),%rax        # 1c1a8 <g_1290>
    b137:	48 89 85 20 f9 ff ff 	mov    %rax,-0x6e0(%rbp)
    b13e:	48 8d 05 63 10 01 00 	lea    0x11063(%rip),%rax        # 1c1a8 <g_1290>
    b145:	48 89 85 30 f9 ff ff 	mov    %rax,-0x6d0(%rbp)
    b14c:	48 8d 05 55 10 01 00 	lea    0x11055(%rip),%rax        # 1c1a8 <g_1290>
    b153:	48 89 85 60 f9 ff ff 	mov    %rax,-0x6a0(%rbp)
    b15a:	48 8d 05 47 10 01 00 	lea    0x11047(%rip),%rax        # 1c1a8 <g_1290>
    b161:	48 89 85 70 f9 ff ff 	mov    %rax,-0x690(%rbp)
    b168:	48 8d 05 39 10 01 00 	lea    0x11039(%rip),%rax        # 1c1a8 <g_1290>
    b16f:	48 89 85 a0 f9 ff ff 	mov    %rax,-0x660(%rbp)
    b176:	48 8d 05 2b 10 01 00 	lea    0x1102b(%rip),%rax        # 1c1a8 <g_1290>
    b17d:	48 89 85 b0 f9 ff ff 	mov    %rax,-0x650(%rbp)
    b184:	48 8d 05 1d 10 01 00 	lea    0x1101d(%rip),%rax        # 1c1a8 <g_1290>
    b18b:	48 89 85 e0 f9 ff ff 	mov    %rax,-0x620(%rbp)
    b192:	48 8d 05 0f 10 01 00 	lea    0x1100f(%rip),%rax        # 1c1a8 <g_1290>
    b199:	48 89 85 f0 f9 ff ff 	mov    %rax,-0x610(%rbp)
    b1a0:	48 8d 05 01 10 01 00 	lea    0x11001(%rip),%rax        # 1c1a8 <g_1290>
    b1a7:	48 89 85 20 fa ff ff 	mov    %rax,-0x5e0(%rbp)
    b1ae:	48 8d 05 f3 0f 01 00 	lea    0x10ff3(%rip),%rax        # 1c1a8 <g_1290>
    b1b5:	48 89 85 30 fa ff ff 	mov    %rax,-0x5d0(%rbp)
    b1bc:	48 8d 05 e5 0f 01 00 	lea    0x10fe5(%rip),%rax        # 1c1a8 <g_1290>
    b1c3:	48 89 85 60 fa ff ff 	mov    %rax,-0x5a0(%rbp)
    b1ca:	48 8d 05 d7 0f 01 00 	lea    0x10fd7(%rip),%rax        # 1c1a8 <g_1290>
    b1d1:	48 89 85 70 fa ff ff 	mov    %rax,-0x590(%rbp)
    b1d8:	48 8d 05 c9 0f 01 00 	lea    0x10fc9(%rip),%rax        # 1c1a8 <g_1290>
    b1df:	48 89 85 a0 fa ff ff 	mov    %rax,-0x560(%rbp)
    b1e6:	48 8d 05 bb 0f 01 00 	lea    0x10fbb(%rip),%rax        # 1c1a8 <g_1290>
    b1ed:	48 89 85 b0 fa ff ff 	mov    %rax,-0x550(%rbp)
    b1f4:	48 8d 05 ad 0f 01 00 	lea    0x10fad(%rip),%rax        # 1c1a8 <g_1290>
    b1fb:	48 89 85 e0 fa ff ff 	mov    %rax,-0x520(%rbp)
    b202:	48 8d 05 9f 0f 01 00 	lea    0x10f9f(%rip),%rax        # 1c1a8 <g_1290>
    b209:	48 89 85 f0 fa ff ff 	mov    %rax,-0x510(%rbp)
    b210:	48 8d 05 91 0f 01 00 	lea    0x10f91(%rip),%rax        # 1c1a8 <g_1290>
    b217:	48 89 85 20 fb ff ff 	mov    %rax,-0x4e0(%rbp)
    b21e:	48 8d 05 83 0f 01 00 	lea    0x10f83(%rip),%rax        # 1c1a8 <g_1290>
    b225:	48 89 85 30 fb ff ff 	mov    %rax,-0x4d0(%rbp)
    b22c:	48 8d 05 75 0f 01 00 	lea    0x10f75(%rip),%rax        # 1c1a8 <g_1290>
    b233:	48 89 85 60 fb ff ff 	mov    %rax,-0x4a0(%rbp)
    b23a:	48 8d 05 67 0f 01 00 	lea    0x10f67(%rip),%rax        # 1c1a8 <g_1290>
    b241:	48 89 85 70 fb ff ff 	mov    %rax,-0x490(%rbp)
    b248:	48 8d 05 59 0f 01 00 	lea    0x10f59(%rip),%rax        # 1c1a8 <g_1290>
    b24f:	48 89 85 a0 fb ff ff 	mov    %rax,-0x460(%rbp)
    b256:	48 8d 05 4b 0f 01 00 	lea    0x10f4b(%rip),%rax        # 1c1a8 <g_1290>
    b25d:	48 89 85 b0 fb ff ff 	mov    %rax,-0x450(%rbp)
    b264:	48 8d 05 3d 0f 01 00 	lea    0x10f3d(%rip),%rax        # 1c1a8 <g_1290>
    b26b:	48 89 85 e0 fb ff ff 	mov    %rax,-0x420(%rbp)
    b272:	48 8d 05 2f 0f 01 00 	lea    0x10f2f(%rip),%rax        # 1c1a8 <g_1290>
    b279:	48 89 85 f0 fb ff ff 	mov    %rax,-0x410(%rbp)
    b280:	48 8d 05 21 0f 01 00 	lea    0x10f21(%rip),%rax        # 1c1a8 <g_1290>
    b287:	48 89 85 20 fc ff ff 	mov    %rax,-0x3e0(%rbp)
    b28e:	48 8d 05 13 0f 01 00 	lea    0x10f13(%rip),%rax        # 1c1a8 <g_1290>
    b295:	48 89 85 30 fc ff ff 	mov    %rax,-0x3d0(%rbp)
    b29c:	48 8d 05 05 0f 01 00 	lea    0x10f05(%rip),%rax        # 1c1a8 <g_1290>
    b2a3:	48 89 85 60 fc ff ff 	mov    %rax,-0x3a0(%rbp)
    b2aa:	48 8d 05 f7 0e 01 00 	lea    0x10ef7(%rip),%rax        # 1c1a8 <g_1290>
    b2b1:	48 89 85 70 fc ff ff 	mov    %rax,-0x390(%rbp)
    b2b8:	48 8d 05 e9 0e 01 00 	lea    0x10ee9(%rip),%rax        # 1c1a8 <g_1290>
    b2bf:	48 89 85 a0 fc ff ff 	mov    %rax,-0x360(%rbp)
    b2c6:	48 8d 05 db 0e 01 00 	lea    0x10edb(%rip),%rax        # 1c1a8 <g_1290>
    b2cd:	48 89 85 b0 fc ff ff 	mov    %rax,-0x350(%rbp)
    b2d4:	48 8d 05 cd 0e 01 00 	lea    0x10ecd(%rip),%rax        # 1c1a8 <g_1290>
    b2db:	48 89 85 e0 fc ff ff 	mov    %rax,-0x320(%rbp)
    b2e2:	48 8d 05 bf 0e 01 00 	lea    0x10ebf(%rip),%rax        # 1c1a8 <g_1290>
    b2e9:	48 89 85 f0 fc ff ff 	mov    %rax,-0x310(%rbp)
    b2f0:	48 8d 05 b1 0e 01 00 	lea    0x10eb1(%rip),%rax        # 1c1a8 <g_1290>
    b2f7:	48 89 85 20 fd ff ff 	mov    %rax,-0x2e0(%rbp)
    b2fe:	48 8d 05 a3 0e 01 00 	lea    0x10ea3(%rip),%rax        # 1c1a8 <g_1290>
    b305:	48 89 85 30 fd ff ff 	mov    %rax,-0x2d0(%rbp)
    b30c:	48 8d 05 95 0e 01 00 	lea    0x10e95(%rip),%rax        # 1c1a8 <g_1290>
    b313:	48 89 85 60 fd ff ff 	mov    %rax,-0x2a0(%rbp)
    b31a:	48 8d 05 87 0e 01 00 	lea    0x10e87(%rip),%rax        # 1c1a8 <g_1290>
    b321:	48 89 85 70 fd ff ff 	mov    %rax,-0x290(%rbp)
    b328:	48 8d 85 50 ef ff ff 	lea    -0x10b0(%rbp),%rax
    b32f:	48 05 b4 00 00 00    	add    $0xb4,%rax
    b335:	48 89 85 00 f3 ff ff 	mov    %rax,-0xd00(%rbp)
    b33c:	48 8d 85 50 ef ff ff 	lea    -0x10b0(%rbp),%rax
    b343:	48 05 a0 00 00 00    	add    $0xa0,%rax
    b349:	48 89 85 08 f3 ff ff 	mov    %rax,-0xcf8(%rbp)
    b350:	48 8d 85 c8 e5 ff ff 	lea    -0x1a38(%rbp),%rax
    b357:	48 89 85 10 f3 ff ff 	mov    %rax,-0xcf0(%rbp)
    b35e:	48 c7 85 18 f3 ff ff 	movq   $0x0,-0xce8(%rbp)
    b365:	00 00 00 00 
    b369:	48 8d 05 cc dc 00 00 	lea    0xdccc(%rip),%rax        # 1903c <g_3+0xc>
    b370:	48 89 85 20 f3 ff ff 	mov    %rax,-0xce0(%rbp)
    b377:	48 8d 05 be dc 00 00 	lea    0xdcbe(%rip),%rax        # 1903c <g_3+0xc>
    b37e:	48 89 85 28 f3 ff ff 	mov    %rax,-0xcd8(%rbp)
    b385:	48 c7 85 30 f3 ff ff 	movq   $0x0,-0xcd0(%rbp)
    b38c:	00 00 00 00 
    b390:	48 8d 85 c8 e5 ff ff 	lea    -0x1a38(%rbp),%rax
    b397:	48 89 85 38 f3 ff ff 	mov    %rax,-0xcc8(%rbp)
    b39e:	48 8d 85 50 ef ff ff 	lea    -0x10b0(%rbp),%rax
    b3a5:	48 05 a0 00 00 00    	add    $0xa0,%rax
    b3ab:	48 89 85 40 f3 ff ff 	mov    %rax,-0xcc0(%rbp)
    b3b2:	48 8d 85 50 ef ff ff 	lea    -0x10b0(%rbp),%rax
    b3b9:	48 05 b4 00 00 00    	add    $0xb4,%rax
    b3bf:	48 89 85 48 f3 ff ff 	mov    %rax,-0xcb8(%rbp)
    b3c6:	48 8d 85 d0 e5 ff ff 	lea    -0x1a30(%rbp),%rax
    b3cd:	48 89 85 50 f3 ff ff 	mov    %rax,-0xcb0(%rbp)
    b3d4:	48 8d 85 d0 e5 ff ff 	lea    -0x1a30(%rbp),%rax
    b3db:	48 89 85 58 f3 ff ff 	mov    %rax,-0xca8(%rbp)
    b3e2:	48 8d 05 bb e4 00 00 	lea    0xe4bb(%rip),%rax        # 198a4 <g_1010>
    b3e9:	48 89 85 60 f3 ff ff 	mov    %rax,-0xca0(%rbp)
    b3f0:	48 8d 05 ad e4 00 00 	lea    0xe4ad(%rip),%rax        # 198a4 <g_1010>
    b3f7:	48 89 85 68 f3 ff ff 	mov    %rax,-0xc98(%rbp)
    b3fe:	48 8d 05 37 dc 00 00 	lea    0xdc37(%rip),%rax        # 1903c <g_3+0xc>
    b405:	48 89 85 70 f3 ff ff 	mov    %rax,-0xc90(%rbp)
    b40c:	48 c7 85 78 f3 ff ff 	movq   $0x0,-0xc88(%rbp)
    b413:	00 00 00 00 
    b417:	48 8d 05 26 dc 00 00 	lea    0xdc26(%rip),%rax        # 19044 <g_3+0x14>
    b41e:	48 89 85 80 f3 ff ff 	mov    %rax,-0xc80(%rbp)
    b425:	48 8d 05 78 e4 00 00 	lea    0xe478(%rip),%rax        # 198a4 <g_1010>
    b42c:	48 89 85 88 f3 ff ff 	mov    %rax,-0xc78(%rbp)
    b433:	48 c7 85 90 f3 ff ff 	movq   $0x0,-0xc70(%rbp)
    b43a:	00 00 00 00 
    b43e:	48 8d 85 50 ef ff ff 	lea    -0x10b0(%rbp),%rax
    b445:	48 05 b4 00 00 00    	add    $0xb4,%rax
    b44b:	48 89 85 98 f3 ff ff 	mov    %rax,-0xc68(%rbp)
    b452:	48 8d 85 c4 e5 ff ff 	lea    -0x1a3c(%rbp),%rax
    b459:	48 89 85 a0 f3 ff ff 	mov    %rax,-0xc60(%rbp)
    b460:	48 c7 85 a8 f3 ff ff 	movq   $0x0,-0xc58(%rbp)
    b467:	00 00 00 00 
    b46b:	48 c7 85 b0 f3 ff ff 	movq   $0x0,-0xc50(%rbp)
    b472:	00 00 00 00 
    b476:	48 8d 85 d0 e5 ff ff 	lea    -0x1a30(%rbp),%rax
    b47d:	48 89 85 b8 f3 ff ff 	mov    %rax,-0xc48(%rbp)
    b484:	48 8d 05 b1 db 00 00 	lea    0xdbb1(%rip),%rax        # 1903c <g_3+0xc>
    b48b:	48 89 85 c0 f3 ff ff 	mov    %rax,-0xc40(%rbp)
    b492:	48 8d 85 50 ef ff ff 	lea    -0x10b0(%rbp),%rax
    b499:	48 05 b4 00 00 00    	add    $0xb4,%rax
    b49f:	48 89 85 c8 f3 ff ff 	mov    %rax,-0xc38(%rbp)
    b4a6:	48 8d 05 f7 e3 00 00 	lea    0xe3f7(%rip),%rax        # 198a4 <g_1010>
    b4ad:	48 89 85 d0 f3 ff ff 	mov    %rax,-0xc30(%rbp)
    b4b4:	48 c7 85 d8 f3 ff ff 	movq   $0x0,-0xc28(%rbp)
    b4bb:	00 00 00 00 
    b4bf:	48 8d 05 de e3 00 00 	lea    0xe3de(%rip),%rax        # 198a4 <g_1010>
    b4c6:	48 89 85 e0 f3 ff ff 	mov    %rax,-0xc20(%rbp)
    b4cd:	48 8d 85 50 ef ff ff 	lea    -0x10b0(%rbp),%rax
    b4d4:	48 05 b4 00 00 00    	add    $0xb4,%rax
    b4da:	48 89 85 e8 f3 ff ff 	mov    %rax,-0xc18(%rbp)
    b4e1:	48 8d 05 54 db 00 00 	lea    0xdb54(%rip),%rax        # 1903c <g_3+0xc>
    b4e8:	48 89 85 f0 f3 ff ff 	mov    %rax,-0xc10(%rbp)
    b4ef:	48 8d 05 4e db 00 00 	lea    0xdb4e(%rip),%rax        # 19044 <g_3+0x14>
    b4f6:	48 89 85 f8 f3 ff ff 	mov    %rax,-0xc08(%rbp)
    b4fd:	48 c7 85 00 f4 ff ff 	movq   $0x0,-0xc00(%rbp)
    b504:	00 00 00 00 
    b508:	48 8d 05 35 db 00 00 	lea    0xdb35(%rip),%rax        # 19044 <g_3+0x14>
    b50f:	48 89 85 08 f4 ff ff 	mov    %rax,-0xbf8(%rbp)
    b516:	48 8d 05 1f db 00 00 	lea    0xdb1f(%rip),%rax        # 1903c <g_3+0xc>
    b51d:	48 89 85 10 f4 ff ff 	mov    %rax,-0xbf0(%rbp)
    b524:	48 8d 85 d0 e5 ff ff 	lea    -0x1a30(%rbp),%rax
    b52b:	48 89 85 18 f4 ff ff 	mov    %rax,-0xbe8(%rbp)
    b532:	48 8d 85 50 ef ff ff 	lea    -0x10b0(%rbp),%rax
    b539:	48 05 a0 00 00 00    	add    $0xa0,%rax
    b53f:	48 89 85 20 f4 ff ff 	mov    %rax,-0xbe0(%rbp)
    b546:	48 c7 85 28 f4 ff ff 	movq   $0x0,-0xbd8(%rbp)
    b54d:	00 00 00 00 
    b551:	48 8d 85 d0 e5 ff ff 	lea    -0x1a30(%rbp),%rax
    b558:	48 89 85 30 f4 ff ff 	mov    %rax,-0xbd0(%rbp)
    b55f:	48 8d 85 50 ef ff ff 	lea    -0x10b0(%rbp),%rax
    b566:	48 05 b4 00 00 00    	add    $0xb4,%rax
    b56c:	48 89 85 38 f4 ff ff 	mov    %rax,-0xbc8(%rbp)
    b573:	48 c7 85 40 f4 ff ff 	movq   $0x0,-0xbc0(%rbp)
    b57a:	00 00 00 00 
    b57e:	48 8d 05 1f e3 00 00 	lea    0xe31f(%rip),%rax        # 198a4 <g_1010>
    b585:	48 89 85 48 f4 ff ff 	mov    %rax,-0xbb8(%rbp)
    b58c:	48 8d 85 50 ef ff ff 	lea    -0x10b0(%rbp),%rax
    b593:	48 89 85 50 f4 ff ff 	mov    %rax,-0xbb0(%rbp)
    b59a:	48 8d 85 50 ef ff ff 	lea    -0x10b0(%rbp),%rax
    b5a1:	48 05 a0 00 00 00    	add    $0xa0,%rax
    b5a7:	48 89 85 58 f4 ff ff 	mov    %rax,-0xba8(%rbp)
    b5ae:	48 8d 05 87 da 00 00 	lea    0xda87(%rip),%rax        # 1903c <g_3+0xc>
    b5b5:	48 89 85 60 f4 ff ff 	mov    %rax,-0xba0(%rbp)
    b5bc:	48 8d 85 c4 e5 ff ff 	lea    -0x1a3c(%rbp),%rax
    b5c3:	48 89 85 68 f4 ff ff 	mov    %rax,-0xb98(%rbp)
    b5ca:	48 8d 85 d0 e5 ff ff 	lea    -0x1a30(%rbp),%rax
    b5d1:	48 89 85 70 f4 ff ff 	mov    %rax,-0xb90(%rbp)
    b5d8:	48 8d 85 50 ef ff ff 	lea    -0x10b0(%rbp),%rax
    b5df:	48 89 85 78 f4 ff ff 	mov    %rax,-0xb88(%rbp)
    b5e6:	48 8d 05 57 da 00 00 	lea    0xda57(%rip),%rax        # 19044 <g_3+0x14>
    b5ed:	48 89 85 80 f4 ff ff 	mov    %rax,-0xb80(%rbp)
    b5f4:	48 8d 85 50 ef ff ff 	lea    -0x10b0(%rbp),%rax
    b5fb:	48 05 b4 00 00 00    	add    $0xb4,%rax
    b601:	48 89 85 88 f4 ff ff 	mov    %rax,-0xb78(%rbp)
    b608:	48 8d 85 50 ef ff ff 	lea    -0x10b0(%rbp),%rax
    b60f:	48 05 b4 00 00 00    	add    $0xb4,%rax
    b615:	48 89 85 90 f4 ff ff 	mov    %rax,-0xb70(%rbp)
    b61c:	48 8d 85 50 ef ff ff 	lea    -0x10b0(%rbp),%rax
    b623:	48 05 a0 00 00 00    	add    $0xa0,%rax
    b629:	48 89 85 98 f4 ff ff 	mov    %rax,-0xb68(%rbp)
    b630:	48 8d 85 c8 e5 ff ff 	lea    -0x1a38(%rbp),%rax
    b637:	48 89 85 a0 f4 ff ff 	mov    %rax,-0xb60(%rbp)
    b63e:	48 c7 85 a8 f4 ff ff 	movq   $0x0,-0xb58(%rbp)
    b645:	00 00 00 00 
    b649:	48 8d 05 ec d9 00 00 	lea    0xd9ec(%rip),%rax        # 1903c <g_3+0xc>
    b650:	48 89 85 b0 f4 ff ff 	mov    %rax,-0xb50(%rbp)
    b657:	48 8d 05 de d9 00 00 	lea    0xd9de(%rip),%rax        # 1903c <g_3+0xc>
    b65e:	48 89 85 b8 f4 ff ff 	mov    %rax,-0xb48(%rbp)
    b665:	48 c7 85 c0 f4 ff ff 	movq   $0x0,-0xb40(%rbp)
    b66c:	00 00 00 00 
    b670:	48 8d 85 c8 e5 ff ff 	lea    -0x1a38(%rbp),%rax
    b677:	48 89 85 c8 f4 ff ff 	mov    %rax,-0xb38(%rbp)
    b67e:	48 8d 85 50 ef ff ff 	lea    -0x10b0(%rbp),%rax
    b685:	48 05 a0 00 00 00    	add    $0xa0,%rax
    b68b:	48 89 85 d0 f4 ff ff 	mov    %rax,-0xb30(%rbp)
    b692:	48 8d 85 50 ef ff ff 	lea    -0x10b0(%rbp),%rax
    b699:	48 05 b4 00 00 00    	add    $0xb4,%rax
    b69f:	48 89 85 d8 f4 ff ff 	mov    %rax,-0xb28(%rbp)
    b6a6:	48 8d 85 d0 e5 ff ff 	lea    -0x1a30(%rbp),%rax
    b6ad:	48 89 85 e0 f4 ff ff 	mov    %rax,-0xb20(%rbp)
    b6b4:	48 8d 85 d0 e5 ff ff 	lea    -0x1a30(%rbp),%rax
    b6bb:	48 89 85 e8 f4 ff ff 	mov    %rax,-0xb18(%rbp)
    b6c2:	48 8d 05 db e1 00 00 	lea    0xe1db(%rip),%rax        # 198a4 <g_1010>
    b6c9:	48 89 85 f0 f4 ff ff 	mov    %rax,-0xb10(%rbp)
    b6d0:	48 8d 05 cd e1 00 00 	lea    0xe1cd(%rip),%rax        # 198a4 <g_1010>
    b6d7:	48 89 85 f8 f4 ff ff 	mov    %rax,-0xb08(%rbp)
    b6de:	48 8d 05 57 d9 00 00 	lea    0xd957(%rip),%rax        # 1903c <g_3+0xc>
    b6e5:	48 89 85 00 f5 ff ff 	mov    %rax,-0xb00(%rbp)
    b6ec:	48 c7 85 08 f5 ff ff 	movq   $0x0,-0xaf8(%rbp)
    b6f3:	00 00 00 00 
    b6f7:	48 8d 05 46 d9 00 00 	lea    0xd946(%rip),%rax        # 19044 <g_3+0x14>
    b6fe:	48 89 85 10 f5 ff ff 	mov    %rax,-0xaf0(%rbp)
    b705:	48 8d 05 98 e1 00 00 	lea    0xe198(%rip),%rax        # 198a4 <g_1010>
    b70c:	48 89 85 18 f5 ff ff 	mov    %rax,-0xae8(%rbp)
    b713:	48 c7 85 20 f5 ff ff 	movq   $0x0,-0xae0(%rbp)
    b71a:	00 00 00 00 
    b71e:	48 8d 85 50 ef ff ff 	lea    -0x10b0(%rbp),%rax
    b725:	48 05 b4 00 00 00    	add    $0xb4,%rax
    b72b:	48 89 85 28 f5 ff ff 	mov    %rax,-0xad8(%rbp)
    b732:	48 8d 85 c4 e5 ff ff 	lea    -0x1a3c(%rbp),%rax
    b739:	48 89 85 30 f5 ff ff 	mov    %rax,-0xad0(%rbp)
    b740:	48 c7 85 38 f5 ff ff 	movq   $0x0,-0xac8(%rbp)
    b747:	00 00 00 00 
    b74b:	48 c7 85 40 f5 ff ff 	movq   $0x0,-0xac0(%rbp)
    b752:	00 00 00 00 
    b756:	48 8d 85 d0 e5 ff ff 	lea    -0x1a30(%rbp),%rax
    b75d:	48 89 85 48 f5 ff ff 	mov    %rax,-0xab8(%rbp)
    b764:	48 8d 05 d1 d8 00 00 	lea    0xd8d1(%rip),%rax        # 1903c <g_3+0xc>
    b76b:	48 89 85 50 f5 ff ff 	mov    %rax,-0xab0(%rbp)
    b772:	48 8d 85 50 ef ff ff 	lea    -0x10b0(%rbp),%rax
    b779:	48 05 b4 00 00 00    	add    $0xb4,%rax
    b77f:	48 89 85 58 f5 ff ff 	mov    %rax,-0xaa8(%rbp)
    b786:	48 8d 05 17 e1 00 00 	lea    0xe117(%rip),%rax        # 198a4 <g_1010>
    b78d:	48 89 85 60 f5 ff ff 	mov    %rax,-0xaa0(%rbp)
    b794:	48 c7 85 68 f5 ff ff 	movq   $0x0,-0xa98(%rbp)
    b79b:	00 00 00 00 
    b79f:	48 8d 05 fe e0 00 00 	lea    0xe0fe(%rip),%rax        # 198a4 <g_1010>
    b7a6:	48 89 85 70 f5 ff ff 	mov    %rax,-0xa90(%rbp)
    b7ad:	48 8d 85 50 ef ff ff 	lea    -0x10b0(%rbp),%rax
    b7b4:	48 05 b4 00 00 00    	add    $0xb4,%rax
    b7ba:	48 89 85 78 f5 ff ff 	mov    %rax,-0xa88(%rbp)
    b7c1:	48 8d 05 74 d8 00 00 	lea    0xd874(%rip),%rax        # 1903c <g_3+0xc>
    b7c8:	48 89 85 80 f5 ff ff 	mov    %rax,-0xa80(%rbp)
    b7cf:	48 8d 05 6e d8 00 00 	lea    0xd86e(%rip),%rax        # 19044 <g_3+0x14>
    b7d6:	48 89 85 88 f5 ff ff 	mov    %rax,-0xa78(%rbp)
    b7dd:	48 c7 85 90 f5 ff ff 	movq   $0x0,-0xa70(%rbp)
    b7e4:	00 00 00 00 
    b7e8:	48 8d 05 55 d8 00 00 	lea    0xd855(%rip),%rax        # 19044 <g_3+0x14>
    b7ef:	48 89 85 98 f5 ff ff 	mov    %rax,-0xa68(%rbp)
    b7f6:	48 8d 05 3f d8 00 00 	lea    0xd83f(%rip),%rax        # 1903c <g_3+0xc>
    b7fd:	48 89 85 a0 f5 ff ff 	mov    %rax,-0xa60(%rbp)
    b804:	48 8d 85 d0 e5 ff ff 	lea    -0x1a30(%rbp),%rax
    b80b:	48 89 85 a8 f5 ff ff 	mov    %rax,-0xa58(%rbp)
    b812:	48 8d 85 50 ef ff ff 	lea    -0x10b0(%rbp),%rax
    b819:	48 05 a0 00 00 00    	add    $0xa0,%rax
    b81f:	48 89 85 b0 f5 ff ff 	mov    %rax,-0xa50(%rbp)
    b826:	48 c7 85 b8 f5 ff ff 	movq   $0x0,-0xa48(%rbp)
    b82d:	00 00 00 00 
    b831:	48 8d 85 50 ef ff ff 	lea    -0x10b0(%rbp),%rax
    b838:	48 05 b4 00 00 00    	add    $0xb4,%rax
    b83e:	48 89 85 c0 f5 ff ff 	mov    %rax,-0xa40(%rbp)
    b845:	48 8d 05 f8 d7 00 00 	lea    0xd7f8(%rip),%rax        # 19044 <g_3+0x14>
    b84c:	48 89 85 c8 f5 ff ff 	mov    %rax,-0xa38(%rbp)
    b853:	48 8d 85 50 ef ff ff 	lea    -0x10b0(%rbp),%rax
    b85a:	48 05 a0 00 00 00    	add    $0xa0,%rax
    b860:	48 89 85 d0 f5 ff ff 	mov    %rax,-0xa30(%rbp)
    b867:	48 8d 85 c8 e5 ff ff 	lea    -0x1a38(%rbp),%rax
    b86e:	48 89 85 d8 f5 ff ff 	mov    %rax,-0xa28(%rbp)
    b875:	48 c7 85 e0 f5 ff ff 	movq   $0x0,-0xa20(%rbp)
    b87c:	00 00 00 00 
    b880:	48 8d 85 50 ef ff ff 	lea    -0x10b0(%rbp),%rax
    b887:	48 83 c0 64          	add    $0x64,%rax
    b88b:	48 89 85 e8 f5 ff ff 	mov    %rax,-0xa18(%rbp)
    b892:	48 c7 85 f0 f5 ff ff 	movq   $0x0,-0xa10(%rbp)
    b899:	00 00 00 00 
    b89d:	48 8d 05 00 e0 00 00 	lea    0xe000(%rip),%rax        # 198a4 <g_1010>
    b8a4:	48 89 85 f8 f5 ff ff 	mov    %rax,-0xa08(%rbp)
    b8ab:	48 8d 85 50 ef ff ff 	lea    -0x10b0(%rbp),%rax
    b8b2:	48 05 b4 00 00 00    	add    $0xb4,%rax
    b8b8:	48 89 85 00 f6 ff ff 	mov    %rax,-0xa00(%rbp)
    b8bf:	48 c7 85 08 f6 ff ff 	movq   $0x0,-0x9f8(%rbp)
    b8c6:	00 00 00 00 
    b8ca:	48 8d 85 50 ef ff ff 	lea    -0x10b0(%rbp),%rax
    b8d1:	48 05 2c 01 00 00    	add    $0x12c,%rax
    b8d7:	48 89 85 10 f6 ff ff 	mov    %rax,-0x9f0(%rbp)
    b8de:	48 8d 05 5f d7 00 00 	lea    0xd75f(%rip),%rax        # 19044 <g_3+0x14>
    b8e5:	48 89 85 18 f6 ff ff 	mov    %rax,-0x9e8(%rbp)
    b8ec:	48 8d 05 51 d7 00 00 	lea    0xd751(%rip),%rax        # 19044 <g_3+0x14>
    b8f3:	48 89 85 20 f6 ff ff 	mov    %rax,-0x9e0(%rbp)
    b8fa:	48 8d 85 50 ef ff ff 	lea    -0x10b0(%rbp),%rax
    b901:	48 83 c0 64          	add    $0x64,%rax
    b905:	48 89 85 28 f6 ff ff 	mov    %rax,-0x9d8(%rbp)
    b90c:	48 8d 05 2d d7 00 00 	lea    0xd72d(%rip),%rax        # 19040 <g_3+0x10>
    b913:	48 89 85 30 f6 ff ff 	mov    %rax,-0x9d0(%rbp)
    b91a:	48 8d 05 27 dd 00 00 	lea    0xdd27(%rip),%rax        # 19648 <g_131>
    b921:	48 89 85 38 f6 ff ff 	mov    %rax,-0x9c8(%rbp)
    b928:	48 c7 85 40 f6 ff ff 	movq   $0x0,-0x9c0(%rbp)
    b92f:	00 00 00 00 
    b933:	48 c7 85 48 f6 ff ff 	movq   $0x0,-0x9b8(%rbp)
    b93a:	00 00 00 00 
    b93e:	48 8d 05 03 dd 00 00 	lea    0xdd03(%rip),%rax        # 19648 <g_131>
    b945:	48 89 85 50 f6 ff ff 	mov    %rax,-0x9b0(%rbp)
    b94c:	48 8d 05 ed d6 00 00 	lea    0xd6ed(%rip),%rax        # 19040 <g_3+0x10>
    b953:	48 89 85 58 f6 ff ff 	mov    %rax,-0x9a8(%rbp)
    b95a:	48 8d 85 50 ef ff ff 	lea    -0x10b0(%rbp),%rax
    b961:	48 83 c0 64          	add    $0x64,%rax
    b965:	48 89 85 60 f6 ff ff 	mov    %rax,-0x9a0(%rbp)
    b96c:	48 8d 05 d1 d6 00 00 	lea    0xd6d1(%rip),%rax        # 19044 <g_3+0x14>
    b973:	48 89 85 68 f6 ff ff 	mov    %rax,-0x998(%rbp)
    b97a:	48 8d 85 d0 e5 ff ff 	lea    -0x1a30(%rbp),%rax
    b981:	48 89 85 70 f6 ff ff 	mov    %rax,-0x990(%rbp)
    b988:	48 8d 85 50 ef ff ff 	lea    -0x10b0(%rbp),%rax
    b98f:	48 05 b4 00 00 00    	add    $0xb4,%rax
    b995:	48 89 85 78 f6 ff ff 	mov    %rax,-0x988(%rbp)
    b99c:	48 8d 05 ad dc 00 00 	lea    0xdcad(%rip),%rax        # 19650 <g_142>
    b9a3:	48 89 85 80 f6 ff ff 	mov    %rax,-0x980(%rbp)
    b9aa:	48 8d 85 c8 e5 ff ff 	lea    -0x1a38(%rbp),%rax
    b9b1:	48 89 85 88 f6 ff ff 	mov    %rax,-0x978(%rbp)
    b9b8:	48 c7 85 90 f6 ff ff 	movq   $0x0,-0x970(%rbp)
    b9bf:	00 00 00 00 
    b9c3:	48 8d 85 50 ef ff ff 	lea    -0x10b0(%rbp),%rax
    b9ca:	48 05 a0 00 00 00    	add    $0xa0,%rax
    b9d0:	48 89 85 98 f6 ff ff 	mov    %rax,-0x968(%rbp)
    b9d7:	48 8d 85 50 ef ff ff 	lea    -0x10b0(%rbp),%rax
    b9de:	48 05 2c 01 00 00    	add    $0x12c,%rax
    b9e4:	48 89 85 a0 f6 ff ff 	mov    %rax,-0x960(%rbp)
    b9eb:	48 8d 05 5e dc 00 00 	lea    0xdc5e(%rip),%rax        # 19650 <g_142>
    b9f2:	48 89 85 a8 f6 ff ff 	mov    %rax,-0x958(%rbp)
    b9f9:	48 8d 05 48 dc 00 00 	lea    0xdc48(%rip),%rax        # 19648 <g_131>
    ba00:	48 89 85 b0 f6 ff ff 	mov    %rax,-0x950(%rbp)
    ba07:	48 8d 05 36 d6 00 00 	lea    0xd636(%rip),%rax        # 19044 <g_3+0x14>
    ba0e:	48 89 85 b8 f6 ff ff 	mov    %rax,-0x948(%rbp)
    ba15:	48 8d 05 88 de 00 00 	lea    0xde88(%rip),%rax        # 198a4 <g_1010>
    ba1c:	48 89 85 c0 f6 ff ff 	mov    %rax,-0x940(%rbp)
    ba23:	48 8d 05 1e dc 00 00 	lea    0xdc1e(%rip),%rax        # 19648 <g_131>
    ba2a:	48 89 85 c8 f6 ff ff 	mov    %rax,-0x938(%rbp)
    ba31:	48 8d 05 04 d6 00 00 	lea    0xd604(%rip),%rax        # 1903c <g_3+0xc>
    ba38:	48 89 85 d0 f6 ff ff 	mov    %rax,-0x930(%rbp)
    ba3f:	48 8d 85 50 ef ff ff 	lea    -0x10b0(%rbp),%rax
    ba46:	48 05 b4 00 00 00    	add    $0xb4,%rax
    ba4c:	48 89 85 d8 f6 ff ff 	mov    %rax,-0x928(%rbp)
    ba53:	48 c7 85 e0 f6 ff ff 	movq   $0x0,-0x920(%rbp)
    ba5a:	00 00 00 00 
    ba5e:	48 8d 05 df d5 00 00 	lea    0xd5df(%rip),%rax        # 19044 <g_3+0x14>
    ba65:	48 89 85 e8 f6 ff ff 	mov    %rax,-0x918(%rbp)
    ba6c:	48 8d 85 c8 e5 ff ff 	lea    -0x1a38(%rbp),%rax
    ba73:	48 89 85 f0 f6 ff ff 	mov    %rax,-0x910(%rbp)
    ba7a:	48 8d 05 bb d5 00 00 	lea    0xd5bb(%rip),%rax        # 1903c <g_3+0xc>
    ba81:	48 89 85 f8 f6 ff ff 	mov    %rax,-0x908(%rbp)
    ba88:	48 8d 85 c8 e5 ff ff 	lea    -0x1a38(%rbp),%rax
    ba8f:	48 89 85 00 f7 ff ff 	mov    %rax,-0x900(%rbp)
    ba96:	48 8d 05 a7 d5 00 00 	lea    0xd5a7(%rip),%rax        # 19044 <g_3+0x14>
    ba9d:	48 89 85 08 f7 ff ff 	mov    %rax,-0x8f8(%rbp)
    baa4:	48 c7 85 10 f7 ff ff 	movq   $0x0,-0x8f0(%rbp)
    baab:	00 00 00 00 
    baaf:	48 8d 85 50 ef ff ff 	lea    -0x10b0(%rbp),%rax
    bab6:	48 05 2c 01 00 00    	add    $0x12c,%rax
    babc:	48 89 85 18 f7 ff ff 	mov    %rax,-0x8e8(%rbp)
    bac3:	48 8d 05 da dd 00 00 	lea    0xddda(%rip),%rax        # 198a4 <g_1010>
    baca:	48 89 85 20 f7 ff ff 	mov    %rax,-0x8e0(%rbp)
    bad1:	48 8d 85 50 ef ff ff 	lea    -0x10b0(%rbp),%rax
    bad8:	48 05 2c 01 00 00    	add    $0x12c,%rax
    bade:	48 89 85 28 f7 ff ff 	mov    %rax,-0x8d8(%rbp)
    bae5:	48 c7 85 30 f7 ff ff 	movq   $0x0,-0x8d0(%rbp)
    baec:	00 00 00 00 
    baf0:	48 8d 85 d0 e5 ff ff 	lea    -0x1a30(%rbp),%rax
    baf7:	48 89 85 38 f7 ff ff 	mov    %rax,-0x8c8(%rbp)
    bafe:	48 8d 85 50 ef ff ff 	lea    -0x10b0(%rbp),%rax
    bb05:	48 83 c0 64          	add    $0x64,%rax
    bb09:	48 89 85 40 f7 ff ff 	mov    %rax,-0x8c0(%rbp)
    bb10:	48 8d 05 8d dd 00 00 	lea    0xdd8d(%rip),%rax        # 198a4 <g_1010>
    bb17:	48 89 85 48 f7 ff ff 	mov    %rax,-0x8b8(%rbp)
    bb1e:	48 8d 85 50 ef ff ff 	lea    -0x10b0(%rbp),%rax
    bb25:	48 05 b4 00 00 00    	add    $0xb4,%rax
    bb2b:	48 89 85 50 f7 ff ff 	mov    %rax,-0x8b0(%rbp)
    bb32:	48 8d 05 0b d5 00 00 	lea    0xd50b(%rip),%rax        # 19044 <g_3+0x14>
    bb39:	48 89 85 58 f7 ff ff 	mov    %rax,-0x8a8(%rbp)
    bb40:	48 8d 85 50 ef ff ff 	lea    -0x10b0(%rbp),%rax
    bb47:	48 05 a0 00 00 00    	add    $0xa0,%rax
    bb4d:	48 89 85 60 f7 ff ff 	mov    %rax,-0x8a0(%rbp)
    bb54:	48 8d 85 c8 e5 ff ff 	lea    -0x1a38(%rbp),%rax
    bb5b:	48 89 85 68 f7 ff ff 	mov    %rax,-0x898(%rbp)
    bb62:	48 c7 85 70 f7 ff ff 	movq   $0x0,-0x890(%rbp)
    bb69:	00 00 00 00 
    bb6d:	48 8d 85 50 ef ff ff 	lea    -0x10b0(%rbp),%rax
    bb74:	48 83 c0 64          	add    $0x64,%rax
    bb78:	48 89 85 78 f7 ff ff 	mov    %rax,-0x888(%rbp)
    bb7f:	48 c7 85 80 f7 ff ff 	movq   $0x0,-0x880(%rbp)
    bb86:	00 00 00 00 
    bb8a:	48 8d 05 13 dd 00 00 	lea    0xdd13(%rip),%rax        # 198a4 <g_1010>
    bb91:	48 89 85 88 f7 ff ff 	mov    %rax,-0x878(%rbp)
    bb98:	48 8d 85 50 ef ff ff 	lea    -0x10b0(%rbp),%rax
    bb9f:	48 05 b4 00 00 00    	add    $0xb4,%rax
    bba5:	48 89 85 90 f7 ff ff 	mov    %rax,-0x870(%rbp)
    bbac:	48 c7 85 98 f7 ff ff 	movq   $0x0,-0x868(%rbp)
    bbb3:	00 00 00 00 
    bbb7:	48 8d 85 50 ef ff ff 	lea    -0x10b0(%rbp),%rax
    bbbe:	48 05 2c 01 00 00    	add    $0x12c,%rax
    bbc4:	48 89 85 a0 f7 ff ff 	mov    %rax,-0x860(%rbp)
    bbcb:	48 8d 05 72 d4 00 00 	lea    0xd472(%rip),%rax        # 19044 <g_3+0x14>
    bbd2:	48 89 85 a8 f7 ff ff 	mov    %rax,-0x858(%rbp)
    bbd9:	48 8d 05 64 d4 00 00 	lea    0xd464(%rip),%rax        # 19044 <g_3+0x14>
    bbe0:	48 89 85 b0 f7 ff ff 	mov    %rax,-0x850(%rbp)
    bbe7:	48 8d 85 50 ef ff ff 	lea    -0x10b0(%rbp),%rax
    bbee:	48 83 c0 64          	add    $0x64,%rax
    bbf2:	48 89 85 b8 f7 ff ff 	mov    %rax,-0x848(%rbp)
    bbf9:	48 8d 05 40 d4 00 00 	lea    0xd440(%rip),%rax        # 19040 <g_3+0x10>
    bc00:	48 89 85 c0 f7 ff ff 	mov    %rax,-0x840(%rbp)
    bc07:	48 8d 05 3a da 00 00 	lea    0xda3a(%rip),%rax        # 19648 <g_131>
    bc0e:	48 89 85 c8 f7 ff ff 	mov    %rax,-0x838(%rbp)
    bc15:	48 c7 85 d0 f7 ff ff 	movq   $0x0,-0x830(%rbp)
    bc1c:	00 00 00 00 
    bc20:	48 c7 85 d8 f7 ff ff 	movq   $0x0,-0x828(%rbp)
    bc27:	00 00 00 00 
    bc2b:	48 8d 05 16 da 00 00 	lea    0xda16(%rip),%rax        # 19648 <g_131>
    bc32:	48 89 85 e0 f7 ff ff 	mov    %rax,-0x820(%rbp)
    bc39:	48 8d 05 00 d4 00 00 	lea    0xd400(%rip),%rax        # 19040 <g_3+0x10>
    bc40:	48 89 85 e8 f7 ff ff 	mov    %rax,-0x818(%rbp)
    bc47:	48 8d 85 50 ef ff ff 	lea    -0x10b0(%rbp),%rax
    bc4e:	48 83 c0 64          	add    $0x64,%rax
    bc52:	48 89 85 f0 f7 ff ff 	mov    %rax,-0x810(%rbp)
    bc59:	48 8d 05 e4 d3 00 00 	lea    0xd3e4(%rip),%rax        # 19044 <g_3+0x14>
    bc60:	48 89 85 f8 f7 ff ff 	mov    %rax,-0x808(%rbp)
    bc67:	48 8b 05 2a dc 00 00 	mov    0xdc2a(%rip),%rax        # 19898 <g_863+0x8>
    bc6e:	48 c1 e8 0f          	shr    $0xf,%rax
    bc72:	66 25 ff 03          	and    $0x3ff,%ax
    bc76:	0f b7 d0             	movzwl %ax,%edx
    bc79:	48 8b 05 28 05 01 00 	mov    0x10528(%rip),%rax        # 1c1a8 <g_1290>
    bc80:	48 89 05 21 05 01 00 	mov    %rax,0x10521(%rip)        # 1c1a8 <g_1290>
    bc87:	48 8b 05 1a 05 01 00 	mov    0x1051a(%rip),%rax        # 1c1a8 <g_1290>
    bc8e:	48 8d 0d f3 04 01 00 	lea    0x104f3(%rip),%rcx        # 1c188 <g_1291+0x8>
    bc95:	48 39 c8             	cmp    %rcx,%rax
    bc98:	0f 95 c0             	setne  %al
    bc9b:	0f b6 c0             	movzbl %al,%eax
    bc9e:	89 d6                	mov    %edx,%esi
    bca0:	89 c7                	mov    %eax,%edi
    bca2:	e8 2c c7 ff ff       	callq  83d3 <safe_sub_func_int16_t_s_s>
    bca7:	8b 95 e0 ec ff ff    	mov    -0x1320(%rbp),%edx
    bcad:	98                   	cwtl   
    bcae:	21 d0                	and    %edx,%eax
    bcb0:	89 85 e0 ec ff ff    	mov    %eax,-0x1320(%rbp)
    bcb6:	8b 85 e0 ec ff ff    	mov    -0x1320(%rbp),%eax
    bcbc:	89 85 c8 e5 ff ff    	mov    %eax,-0x1a38(%rbp)
    bcc2:	e9 38 1a 00 00       	jmpq   d6ff <func_1+0x3f4a>
    bcc7:	c7 85 d4 e5 ff ff 5b 	movl   $0x7995075b,-0x1a2c(%rbp)
    bcce:	07 95 79 
    bcd1:	c6 85 7d e5 ff ff ff 	movb   $0xff,-0x1a83(%rbp)
    bcd8:	48 c7 85 50 e8 ff ff 	movq   $0x0,-0x17b0(%rbp)
    bcdf:	00 00 00 00 
    bce3:	48 8d 85 00 f3 ff ff 	lea    -0xd00(%rbp),%rax
    bcea:	48 8d 15 cf 96 00 00 	lea    0x96cf(%rip),%rdx        # 153c0 <g_1636+0x1d0>
    bcf1:	b9 32 00 00 00       	mov    $0x32,%ecx
    bcf6:	48 89 c7             	mov    %rax,%rdi
    bcf9:	48 89 d6             	mov    %rdx,%rsi
    bcfc:	f3 48 a5             	rep movsq %ds:(%rsi),%es:(%rdi)
    bcff:	48 b8 09 8f 09 09 8f 	movabs $0x8f09098f09098f09,%rax
    bd06:	09 09 8f 
    bd09:	48 89 45 b4          	mov    %rax,-0x4c(%rbp)
    bd0d:	66 c7 45 bc 09 09    	movw   $0x909,-0x44(%rbp)
    bd13:	c7 85 74 e6 ff ff 00 	movl   $0x0,-0x198c(%rbp)
    bd1a:	00 00 00 
    bd1d:	eb 1a                	jmp    bd39 <func_1+0x2584>
    bd1f:	8b 85 74 e6 ff ff    	mov    -0x198c(%rbp),%eax
    bd25:	48 98                	cltq   
    bd27:	c7 84 85 94 ea ff ff 	movl   $0xfffffffc,-0x156c(%rbp,%rax,4)
    bd2e:	fc ff ff ff 
    bd32:	83 85 74 e6 ff ff 01 	addl   $0x1,-0x198c(%rbp)
    bd39:	83 bd 74 e6 ff ff 02 	cmpl   $0x2,-0x198c(%rbp)
    bd40:	7e dd                	jle    bd1f <func_1+0x256a>
    bd42:	48 83 bd 30 e8 ff ff 	cmpq   $0x0,-0x17d0(%rbp)
    bd49:	00 
    bd4a:	74 0d                	je     bd59 <func_1+0x25a4>
    bd4c:	8b 85 00 ed ff ff    	mov    -0x1300(%rbp),%eax
    bd52:	48 98                	cltq   
    bd54:	e9 b0 47 00 00       	jmpq   10509 <func_1+0x6d54>
    bd59:	48 b8 5b ba 57 f2 b9 	movabs $0x96254bb9f257ba5b,%rax
    bd60:	4b 25 96 
    bd63:	48 89 85 58 e8 ff ff 	mov    %rax,-0x17a8(%rbp)
    bd6a:	48 8d 85 c8 e5 ff ff 	lea    -0x1a38(%rbp),%rax
    bd71:	48 89 85 60 e8 ff ff 	mov    %rax,-0x17a0(%rbp)
    bd78:	48 8d 85 d0 e5 ff ff 	lea    -0x1a30(%rbp),%rax
    bd7f:	48 89 85 68 e8 ff ff 	mov    %rax,-0x1798(%rbp)
    bd86:	48 8d 85 50 ef ff ff 	lea    -0x10b0(%rbp),%rax
    bd8d:	48 05 b4 00 00 00    	add    $0xb4,%rax
    bd93:	48 89 85 70 e8 ff ff 	mov    %rax,-0x1790(%rbp)
    bd9a:	48 8d 05 8f d2 00 00 	lea    0xd28f(%rip),%rax        # 19030 <g_3>
    bda1:	48 89 85 00 f8 ff ff 	mov    %rax,-0x800(%rbp)
    bda8:	48 8d 85 50 ef ff ff 	lea    -0x10b0(%rbp),%rax
    bdaf:	48 05 b4 00 00 00    	add    $0xb4,%rax
    bdb5:	48 89 85 08 f8 ff ff 	mov    %rax,-0x7f8(%rbp)
    bdbc:	48 8d 85 94 ea ff ff 	lea    -0x156c(%rbp),%rax
    bdc3:	48 83 c0 08          	add    $0x8,%rax
    bdc7:	48 89 85 10 f8 ff ff 	mov    %rax,-0x7f0(%rbp)
    bdce:	48 8d 05 73 d8 00 00 	lea    0xd873(%rip),%rax        # 19648 <g_131>
    bdd5:	48 89 85 18 f8 ff ff 	mov    %rax,-0x7e8(%rbp)
    bddc:	48 8d 85 94 ea ff ff 	lea    -0x156c(%rbp),%rax
    bde3:	48 83 c0 08          	add    $0x8,%rax
    bde7:	48 89 85 20 f8 ff ff 	mov    %rax,-0x7e0(%rbp)
    bdee:	48 8d 85 50 ef ff ff 	lea    -0x10b0(%rbp),%rax
    bdf5:	48 05 b4 00 00 00    	add    $0xb4,%rax
    bdfb:	48 89 85 28 f8 ff ff 	mov    %rax,-0x7d8(%rbp)
    be02:	48 8d 05 27 d2 00 00 	lea    0xd227(%rip),%rax        # 19030 <g_3>
    be09:	48 89 85 30 f8 ff ff 	mov    %rax,-0x7d0(%rbp)
    be10:	48 8d 05 29 d2 00 00 	lea    0xd229(%rip),%rax        # 19040 <g_3+0x10>
    be17:	48 89 85 38 f8 ff ff 	mov    %rax,-0x7c8(%rbp)
    be1e:	48 8d 05 2b d8 00 00 	lea    0xd82b(%rip),%rax        # 19650 <g_142>
    be25:	48 89 85 40 f8 ff ff 	mov    %rax,-0x7c0(%rbp)
    be2c:	48 8d 85 e0 ec ff ff 	lea    -0x1320(%rbp),%rax
    be33:	48 83 c0 74          	add    $0x74,%rax
    be37:	48 89 85 48 f8 ff ff 	mov    %rax,-0x7b8(%rbp)
    be3e:	48 8d 05 0b d8 00 00 	lea    0xd80b(%rip),%rax        # 19650 <g_142>
    be45:	48 89 85 50 f8 ff ff 	mov    %rax,-0x7b0(%rbp)
    be4c:	48 8d 05 ed d1 00 00 	lea    0xd1ed(%rip),%rax        # 19040 <g_3+0x10>
    be53:	48 89 85 58 f8 ff ff 	mov    %rax,-0x7a8(%rbp)
    be5a:	48 8d 05 cf d1 00 00 	lea    0xd1cf(%rip),%rax        # 19030 <g_3>
    be61:	48 89 85 60 f8 ff ff 	mov    %rax,-0x7a0(%rbp)
    be68:	48 8d 85 50 ef ff ff 	lea    -0x10b0(%rbp),%rax
    be6f:	48 05 b4 00 00 00    	add    $0xb4,%rax
    be75:	48 89 85 68 f8 ff ff 	mov    %rax,-0x798(%rbp)
    be7c:	48 8d 85 94 ea ff ff 	lea    -0x156c(%rbp),%rax
    be83:	48 83 c0 08          	add    $0x8,%rax
    be87:	48 89 85 70 f8 ff ff 	mov    %rax,-0x790(%rbp)
    be8e:	48 8d 05 b3 d7 00 00 	lea    0xd7b3(%rip),%rax        # 19648 <g_131>
    be95:	48 89 85 78 f8 ff ff 	mov    %rax,-0x788(%rbp)
    be9c:	48 8d 85 94 ea ff ff 	lea    -0x156c(%rbp),%rax
    bea3:	48 83 c0 08          	add    $0x8,%rax
    bea7:	48 89 85 80 f8 ff ff 	mov    %rax,-0x780(%rbp)
    beae:	48 8d 85 50 ef ff ff 	lea    -0x10b0(%rbp),%rax
    beb5:	48 05 b4 00 00 00    	add    $0xb4,%rax
    bebb:	48 89 85 88 f8 ff ff 	mov    %rax,-0x778(%rbp)
    bec2:	48 8d 05 67 d1 00 00 	lea    0xd167(%rip),%rax        # 19030 <g_3>
    bec9:	48 89 85 90 f8 ff ff 	mov    %rax,-0x770(%rbp)
    bed0:	48 8d 05 69 d1 00 00 	lea    0xd169(%rip),%rax        # 19040 <g_3+0x10>
    bed7:	48 89 85 98 f8 ff ff 	mov    %rax,-0x768(%rbp)
    bede:	48 8d 85 94 ea ff ff 	lea    -0x156c(%rbp),%rax
    bee5:	48 83 c0 08          	add    $0x8,%rax
    bee9:	48 89 85 a0 f8 ff ff 	mov    %rax,-0x760(%rbp)
    bef0:	48 8d 05 49 d1 00 00 	lea    0xd149(%rip),%rax        # 19040 <g_3+0x10>
    bef7:	48 89 85 a8 f8 ff ff 	mov    %rax,-0x758(%rbp)
    befe:	48 8d 85 d4 e5 ff ff 	lea    -0x1a2c(%rbp),%rax
    bf05:	48 89 85 b0 f8 ff ff 	mov    %rax,-0x750(%rbp)
    bf0c:	48 8d 85 d4 e5 ff ff 	lea    -0x1a2c(%rbp),%rax
    bf13:	48 89 85 b8 f8 ff ff 	mov    %rax,-0x748(%rbp)
    bf1a:	48 8d 85 c4 e5 ff ff 	lea    -0x1a3c(%rbp),%rax
    bf21:	48 89 85 c0 f8 ff ff 	mov    %rax,-0x740(%rbp)
    bf28:	48 8d 85 d4 e5 ff ff 	lea    -0x1a2c(%rbp),%rax
    bf2f:	48 89 85 c8 f8 ff ff 	mov    %rax,-0x738(%rbp)
    bf36:	48 8d 05 f3 d0 00 00 	lea    0xd0f3(%rip),%rax        # 19030 <g_3>
    bf3d:	48 89 85 d0 f8 ff ff 	mov    %rax,-0x730(%rbp)
    bf44:	48 8d 85 e0 ec ff ff 	lea    -0x1320(%rbp),%rax
    bf4b:	48 83 c0 74          	add    $0x74,%rax
    bf4f:	48 89 85 d8 f8 ff ff 	mov    %rax,-0x728(%rbp)
    bf56:	48 8d 05 d3 d0 00 00 	lea    0xd0d3(%rip),%rax        # 19030 <g_3>
    bf5d:	48 89 85 e0 f8 ff ff 	mov    %rax,-0x720(%rbp)
    bf64:	48 8d 85 d4 e5 ff ff 	lea    -0x1a2c(%rbp),%rax
    bf6b:	48 89 85 e8 f8 ff ff 	mov    %rax,-0x718(%rbp)
    bf72:	48 c7 85 f0 f8 ff ff 	movq   $0x0,-0x710(%rbp)
    bf79:	00 00 00 00 
    bf7d:	48 8d 85 50 ef ff ff 	lea    -0x10b0(%rbp),%rax
    bf84:	48 05 b4 00 00 00    	add    $0xb4,%rax
    bf8a:	48 89 85 f8 f8 ff ff 	mov    %rax,-0x708(%rbp)
    bf91:	48 8d 85 c4 e5 ff ff 	lea    -0x1a3c(%rbp),%rax
    bf98:	48 89 85 00 f9 ff ff 	mov    %rax,-0x700(%rbp)
    bf9f:	48 8d 85 50 ef ff ff 	lea    -0x10b0(%rbp),%rax
    bfa6:	48 05 b4 00 00 00    	add    $0xb4,%rax
    bfac:	48 89 85 08 f9 ff ff 	mov    %rax,-0x6f8(%rbp)
    bfb3:	48 c7 85 10 f9 ff ff 	movq   $0x0,-0x6f0(%rbp)
    bfba:	00 00 00 00 
    bfbe:	48 8d 85 d4 e5 ff ff 	lea    -0x1a2c(%rbp),%rax
    bfc5:	48 89 85 18 f9 ff ff 	mov    %rax,-0x6e8(%rbp)
    bfcc:	48 8d 85 d4 e5 ff ff 	lea    -0x1a2c(%rbp),%rax
    bfd3:	48 89 85 20 f9 ff ff 	mov    %rax,-0x6e0(%rbp)
    bfda:	48 8d 05 67 d6 00 00 	lea    0xd667(%rip),%rax        # 19648 <g_131>
    bfe1:	48 89 85 28 f9 ff ff 	mov    %rax,-0x6d8(%rbp)
    bfe8:	48 8d 05 61 d6 00 00 	lea    0xd661(%rip),%rax        # 19650 <g_142>
    bfef:	48 89 85 30 f9 ff ff 	mov    %rax,-0x6d0(%rbp)
    bff6:	48 8d 85 d4 e5 ff ff 	lea    -0x1a2c(%rbp),%rax
    bffd:	48 89 85 38 f9 ff ff 	mov    %rax,-0x6c8(%rbp)
    c004:	48 8d 85 94 ea ff ff 	lea    -0x156c(%rbp),%rax
    c00b:	48 83 c0 08          	add    $0x8,%rax
    c00f:	48 89 85 40 f9 ff ff 	mov    %rax,-0x6c0(%rbp)
    c016:	48 8d 85 e0 ec ff ff 	lea    -0x1320(%rbp),%rax
    c01d:	48 83 c0 74          	add    $0x74,%rax
    c021:	48 89 85 48 f9 ff ff 	mov    %rax,-0x6b8(%rbp)
    c028:	48 8d 85 c4 e5 ff ff 	lea    -0x1a3c(%rbp),%rax
    c02f:	48 89 85 50 f9 ff ff 	mov    %rax,-0x6b0(%rbp)
    c036:	48 8d 05 0b d6 00 00 	lea    0xd60b(%rip),%rax        # 19648 <g_131>
    c03d:	48 89 85 58 f9 ff ff 	mov    %rax,-0x6a8(%rbp)
    c044:	48 8d 85 d0 e5 ff ff 	lea    -0x1a30(%rbp),%rax
    c04b:	48 89 85 60 f9 ff ff 	mov    %rax,-0x6a0(%rbp)
    c052:	48 8d 05 ef d5 00 00 	lea    0xd5ef(%rip),%rax        # 19648 <g_131>
    c059:	48 89 85 68 f9 ff ff 	mov    %rax,-0x698(%rbp)
    c060:	48 8d 85 c4 e5 ff ff 	lea    -0x1a3c(%rbp),%rax
    c067:	48 89 85 70 f9 ff ff 	mov    %rax,-0x690(%rbp)
    c06e:	48 8d 85 e0 ec ff ff 	lea    -0x1320(%rbp),%rax
    c075:	48 83 c0 74          	add    $0x74,%rax
    c079:	48 89 85 78 f9 ff ff 	mov    %rax,-0x688(%rbp)
    c080:	48 8d 85 94 ea ff ff 	lea    -0x156c(%rbp),%rax
    c087:	48 83 c0 08          	add    $0x8,%rax
    c08b:	48 89 85 80 f9 ff ff 	mov    %rax,-0x680(%rbp)
    c092:	48 8d 85 d4 e5 ff ff 	lea    -0x1a2c(%rbp),%rax
    c099:	48 89 85 88 f9 ff ff 	mov    %rax,-0x678(%rbp)
    c0a0:	48 8d 05 a9 d5 00 00 	lea    0xd5a9(%rip),%rax        # 19650 <g_142>
    c0a7:	48 89 85 90 f9 ff ff 	mov    %rax,-0x670(%rbp)
    c0ae:	48 8d 05 93 d5 00 00 	lea    0xd593(%rip),%rax        # 19648 <g_131>
    c0b5:	48 89 85 98 f9 ff ff 	mov    %rax,-0x668(%rbp)
    c0bc:	48 8d 85 d4 e5 ff ff 	lea    -0x1a2c(%rbp),%rax
    c0c3:	48 89 85 a0 f9 ff ff 	mov    %rax,-0x660(%rbp)
    c0ca:	48 8d 85 d4 e5 ff ff 	lea    -0x1a2c(%rbp),%rax
    c0d1:	48 89 85 a8 f9 ff ff 	mov    %rax,-0x658(%rbp)
    c0d8:	48 c7 85 b0 f9 ff ff 	movq   $0x0,-0x650(%rbp)
    c0df:	00 00 00 00 
    c0e3:	48 8d 85 50 ef ff ff 	lea    -0x10b0(%rbp),%rax
    c0ea:	48 05 b4 00 00 00    	add    $0xb4,%rax
    c0f0:	48 89 85 b8 f9 ff ff 	mov    %rax,-0x648(%rbp)
    c0f7:	48 8d 85 c4 e5 ff ff 	lea    -0x1a3c(%rbp),%rax
    c0fe:	48 89 85 c0 f9 ff ff 	mov    %rax,-0x640(%rbp)
    c105:	48 8d 85 50 ef ff ff 	lea    -0x10b0(%rbp),%rax
    c10c:	48 05 b4 00 00 00    	add    $0xb4,%rax
    c112:	48 89 85 c8 f9 ff ff 	mov    %rax,-0x638(%rbp)
    c119:	48 c7 85 d0 f9 ff ff 	movq   $0x0,-0x630(%rbp)
    c120:	00 00 00 00 
    c124:	48 8d 85 d4 e5 ff ff 	lea    -0x1a2c(%rbp),%rax
    c12b:	48 89 85 d8 f9 ff ff 	mov    %rax,-0x628(%rbp)
    c132:	48 8d 05 f7 ce 00 00 	lea    0xcef7(%rip),%rax        # 19030 <g_3>
    c139:	48 89 85 e0 f9 ff ff 	mov    %rax,-0x620(%rbp)
    c140:	48 8d 85 e0 ec ff ff 	lea    -0x1320(%rbp),%rax
    c147:	48 83 c0 74          	add    $0x74,%rax
    c14b:	48 89 85 e8 f9 ff ff 	mov    %rax,-0x618(%rbp)
    c152:	48 8d 05 d7 ce 00 00 	lea    0xced7(%rip),%rax        # 19030 <g_3>
    c159:	48 89 85 f0 f9 ff ff 	mov    %rax,-0x610(%rbp)
    c160:	48 8d 85 d4 e5 ff ff 	lea    -0x1a2c(%rbp),%rax
    c167:	48 89 85 f8 f9 ff ff 	mov    %rax,-0x608(%rbp)
    c16e:	48 8d 85 c4 e5 ff ff 	lea    -0x1a3c(%rbp),%rax
    c175:	48 89 85 00 fa ff ff 	mov    %rax,-0x600(%rbp)
    c17c:	48 8d 85 d4 e5 ff ff 	lea    -0x1a2c(%rbp),%rax
    c183:	48 89 85 08 fa ff ff 	mov    %rax,-0x5f8(%rbp)
    c18a:	48 8d 85 d4 e5 ff ff 	lea    -0x1a2c(%rbp),%rax
    c191:	48 89 85 10 fa ff ff 	mov    %rax,-0x5f0(%rbp)
    c198:	48 8d 05 a1 ce 00 00 	lea    0xcea1(%rip),%rax        # 19040 <g_3+0x10>
    c19f:	48 89 85 18 fa ff ff 	mov    %rax,-0x5e8(%rbp)
    c1a6:	48 8d 85 94 ea ff ff 	lea    -0x156c(%rbp),%rax
    c1ad:	48 83 c0 08          	add    $0x8,%rax
    c1b1:	48 89 85 20 fa ff ff 	mov    %rax,-0x5e0(%rbp)
    c1b8:	48 8d 05 81 ce 00 00 	lea    0xce81(%rip),%rax        # 19040 <g_3+0x10>
    c1bf:	48 89 85 28 fa ff ff 	mov    %rax,-0x5d8(%rbp)
    c1c6:	48 8d 05 63 ce 00 00 	lea    0xce63(%rip),%rax        # 19030 <g_3>
    c1cd:	48 89 85 30 fa ff ff 	mov    %rax,-0x5d0(%rbp)
    c1d4:	48 8d 85 50 ef ff ff 	lea    -0x10b0(%rbp),%rax
    c1db:	48 05 b4 00 00 00    	add    $0xb4,%rax
    c1e1:	48 89 85 38 fa ff ff 	mov    %rax,-0x5c8(%rbp)
    c1e8:	48 8d 85 94 ea ff ff 	lea    -0x156c(%rbp),%rax
    c1ef:	48 83 c0 08          	add    $0x8,%rax
    c1f3:	48 89 85 40 fa ff ff 	mov    %rax,-0x5c0(%rbp)
    c1fa:	48 8d 05 47 d4 00 00 	lea    0xd447(%rip),%rax        # 19648 <g_131>
    c201:	48 89 85 48 fa ff ff 	mov    %rax,-0x5b8(%rbp)
    c208:	48 8d 85 94 ea ff ff 	lea    -0x156c(%rbp),%rax
    c20f:	48 83 c0 08          	add    $0x8,%rax
    c213:	48 89 85 50 fa ff ff 	mov    %rax,-0x5b0(%rbp)
    c21a:	48 8d 85 50 ef ff ff 	lea    -0x10b0(%rbp),%rax
    c221:	48 05 b4 00 00 00    	add    $0xb4,%rax
    c227:	48 89 85 58 fa ff ff 	mov    %rax,-0x5a8(%rbp)
    c22e:	48 8d 05 fb cd 00 00 	lea    0xcdfb(%rip),%rax        # 19030 <g_3>
    c235:	48 89 85 60 fa ff ff 	mov    %rax,-0x5a0(%rbp)
    c23c:	48 8d 05 fd cd 00 00 	lea    0xcdfd(%rip),%rax        # 19040 <g_3+0x10>
    c243:	48 89 85 68 fa ff ff 	mov    %rax,-0x598(%rbp)
    c24a:	48 8d 05 ff d3 00 00 	lea    0xd3ff(%rip),%rax        # 19650 <g_142>
    c251:	48 89 85 70 fa ff ff 	mov    %rax,-0x590(%rbp)
    c258:	48 8d 85 e0 ec ff ff 	lea    -0x1320(%rbp),%rax
    c25f:	48 83 c0 74          	add    $0x74,%rax
    c263:	48 89 85 78 fa ff ff 	mov    %rax,-0x588(%rbp)
    c26a:	66 c7 85 a0 e5 ff ff 	movw   $0x8,-0x1a60(%rbp)
    c271:	08 00 
    c273:	c7 85 78 e6 ff ff 00 	movl   $0x0,-0x1988(%rbp)
    c27a:	00 00 00 
    c27d:	eb 1e                	jmp    c29d <func_1+0x2ae8>
    c27f:	8b 85 78 e6 ff ff    	mov    -0x1988(%rbp),%eax
    c285:	48 98                	cltq   
    c287:	48 8d 95 70 e7 ff ff 	lea    -0x1890(%rbp),%rdx
    c28e:	48 89 94 c5 30 eb ff 	mov    %rdx,-0x14d0(%rbp,%rax,8)
    c295:	ff 
    c296:	83 85 78 e6 ff ff 01 	addl   $0x1,-0x1988(%rbp)
    c29d:	83 bd 78 e6 ff ff 05 	cmpl   $0x5,-0x1988(%rbp)
    c2a4:	7e d9                	jle    c27f <func_1+0x2aca>
    c2a6:	48 8b 05 a3 a4 00 00 	mov    0xa4a3(%rip),%rax        # 16750 <l_1313.4387+0x10>
    c2ad:	48 89 c3             	mov    %rax,%rbx
    c2b0:	8b 85 50 ed ff ff    	mov    -0x12b0(%rbp),%eax
    c2b6:	48 63 d0             	movslq %eax,%rdx
    c2b9:	48 8d 85 e0 ec ff ff 	lea    -0x1320(%rbp),%rax
    c2c0:	48 83 c0 04          	add    $0x4,%rax
    c2c4:	48 39 85 60 e8 ff ff 	cmp    %rax,-0x17a0(%rbp)
    c2cb:	0f 95 c0             	setne  %al
    c2ce:	0f b6 c0             	movzbl %al,%eax
    c2d1:	89 85 dc e5 ff ff    	mov    %eax,-0x1a24(%rbp)
    c2d7:	0f b7 8d 8e e5 ff ff 	movzwl -0x1a72(%rbp),%ecx
    c2de:	48 8b 85 a8 e7 ff ff 	mov    -0x1858(%rbp),%rax
    c2e5:	48 39 c1             	cmp    %rax,%rcx
    c2e8:	0f 9e c0             	setle  %al
    c2eb:	0f b6 c8             	movzbl %al,%ecx
    c2ee:	b8 00 00 00 00       	mov    $0x0,%eax
    c2f3:	0f b6 c0             	movzbl %al,%eax
    c2f6:	39 c1                	cmp    %eax,%ecx
    c2f8:	8b 05 8e d4 00 00    	mov    0xd48e(%rip),%eax        # 1978c <g_606+0x8c>
    c2fe:	3d c6 6c 00 00       	cmp    $0x6cc6,%eax
    c303:	0f 97 c0             	seta   %al
    c306:	0f b6 c0             	movzbl %al,%eax
    c309:	48 89 d6             	mov    %rdx,%rsi
    c30c:	48 89 c7             	mov    %rax,%rdi
    c30f:	e8 2d c5 ff ff       	callq  8841 <safe_add_func_int64_t_s_s>
    c314:	48 83 f8 ff          	cmp    $0xffffffffffffffff,%rax
    c318:	0f 9d c0             	setge  %al
    c31b:	0f b6 c0             	movzbl %al,%eax
    c31e:	89 c6                	mov    %eax,%esi
    c320:	bf 01 00 00 00       	mov    $0x1,%edi
    c325:	e8 8e cb ff ff       	callq  8eb8 <safe_add_func_uint32_t_u_u>
    c32a:	0f b7 d0             	movzwl %ax,%edx
    c32d:	48 8b 05 1c d5 00 00 	mov    0xd51c(%rip),%rax        # 19850 <g_669>
    c334:	48 c1 e8 23          	shr    $0x23,%rax
    c338:	83 e0 0f             	and    $0xf,%eax
    c33b:	0f b6 c0             	movzbl %al,%eax
    c33e:	89 d6                	mov    %edx,%esi
    c340:	89 c7                	mov    %eax,%edi
    c342:	e8 f6 c9 ff ff       	callq  8d3d <safe_mul_func_uint16_t_u_u>
    c347:	66 89 05 42 08 01 00 	mov    %ax,0x10842(%rip)        # 1cb90 <g_101>
    c34e:	0f b7 05 3b 08 01 00 	movzwl 0x1083b(%rip),%eax        # 1cb90 <g_101>
    c355:	0f bf d0             	movswl %ax,%edx
    c358:	48 8b 85 60 e8 ff ff 	mov    -0x17a0(%rbp),%rax
    c35f:	8b 00                	mov    (%rax),%eax
    c361:	21 d0                	and    %edx,%eax
    c363:	48 98                	cltq   
    c365:	48 89 de             	mov    %rbx,%rsi
    c368:	48 89 c7             	mov    %rax,%rdi
    c36b:	e8 db cc ff ff       	callq  904b <safe_sub_func_uint64_t_u_u>
    c370:	48 8b 95 68 e8 ff ff 	mov    -0x1798(%rbp),%rdx
    c377:	8b 12                	mov    (%rdx),%edx
    c379:	31 d0                	xor    %edx,%eax
    c37b:	89 c2                	mov    %eax,%edx
    c37d:	48 8b 85 68 e8 ff ff 	mov    -0x1798(%rbp),%rax
    c384:	89 10                	mov    %edx,(%rax)
    c386:	8b 85 f4 eb ff ff    	mov    -0x140c(%rbp),%eax
    c38c:	89 85 d4 e5 ff ff    	mov    %eax,-0x1a2c(%rbp)
    c392:	48 c7 85 a8 e7 ff ff 	movq   $0x0,-0x1858(%rbp)
    c399:	00 00 00 00 
    c39d:	e9 a8 01 00 00       	jmpq   c54a <func_1+0x2d95>
    c3a2:	48 c7 85 30 ec ff ff 	movq   $0x0,-0x13d0(%rbp)
    c3a9:	00 00 00 00 
    c3ad:	48 8d 05 84 cc 00 00 	lea    0xcc84(%rip),%rax        # 19038 <g_3+0x8>
    c3b4:	48 89 85 38 ec ff ff 	mov    %rax,-0x13c8(%rbp)
    c3bb:	48 c7 85 40 ec ff ff 	movq   $0x0,-0x13c0(%rbp)
    c3c2:	00 00 00 00 
    c3c6:	48 c7 85 48 ec ff ff 	movq   $0x0,-0x13b8(%rbp)
    c3cd:	00 00 00 00 
    c3d1:	48 8d 05 60 cc 00 00 	lea    0xcc60(%rip),%rax        # 19038 <g_3+0x8>
    c3d8:	48 89 85 50 ec ff ff 	mov    %rax,-0x13b0(%rbp)
    c3df:	48 c7 85 58 ec ff ff 	movq   $0x0,-0x13a8(%rbp)
    c3e6:	00 00 00 00 
    c3ea:	48 c7 85 60 ec ff ff 	movq   $0x0,-0x13a0(%rbp)
    c3f1:	00 00 00 00 
    c3f5:	48 83 bd 00 e8 ff ff 	cmpq   $0x0,-0x1800(%rbp)
    c3fc:	00 
    c3fd:	0f 85 5a 01 00 00    	jne    c55d <func_1+0x2da8>
    c403:	8b 85 58 f0 ff ff    	mov    -0xfa8(%rbp),%eax
    c409:	0f bf d8             	movswl %ax,%ebx
    c40c:	48 8b 85 a8 e7 ff ff 	mov    -0x1858(%rbp),%rax
    c413:	0f b6 d0             	movzbl %al,%edx
    c416:	48 8b 85 60 e8 ff ff 	mov    -0x17a0(%rbp),%rax
    c41d:	8b 00                	mov    (%rax),%eax
    c41f:	0f b6 c0             	movzbl %al,%eax
    c422:	89 d6                	mov    %edx,%esi
    c424:	89 c7                	mov    %eax,%edi
    c426:	e8 83 c7 ff ff       	callq  8bae <safe_mod_func_uint8_t_u_u>
    c42b:	0f be d0             	movsbl %al,%edx
    c42e:	48 8b 05 4b f5 00 00 	mov    0xf54b(%rip),%rax        # 1b980 <g_32>
    c435:	0f b6 00             	movzbl (%rax),%eax
    c438:	0f be c8             	movsbl %al,%ecx
    c43b:	8b 85 d0 e5 ff ff    	mov    -0x1a30(%rbp),%eax
    c441:	31 c8                	xor    %ecx,%eax
    c443:	89 85 d0 e5 ff ff    	mov    %eax,-0x1a30(%rbp)
    c449:	8b 85 d0 e5 ff ff    	mov    -0x1a30(%rbp),%eax
    c44f:	0f be c0             	movsbl %al,%eax
    c452:	89 d6                	mov    %edx,%esi
    c454:	89 c7                	mov    %eax,%edi
    c456:	e8 b7 bd ff ff       	callq  8212 <safe_mul_func_int8_t_s_s>
    c45b:	84 c0                	test   %al,%al
    c45d:	75 34                	jne    c493 <func_1+0x2cde>
    c45f:	48 8b 85 68 e8 ff ff 	mov    -0x1798(%rbp),%rax
    c466:	8b 00                	mov    (%rax),%eax
    c468:	be fc ff ff ff       	mov    $0xfffffffc,%esi
    c46d:	89 c7                	mov    %eax,%edi
    c46f:	e8 89 ca ff ff       	callq  8efd <safe_mod_func_uint32_t_u_u>
    c474:	0f b7 05 d3 cb 00 00 	movzwl 0xcbd3(%rip),%eax        # 1904e <g_52>
    c47b:	83 c0 01             	add    $0x1,%eax
    c47e:	66 89 05 c9 cb 00 00 	mov    %ax,0xcbc9(%rip)        # 1904e <g_52>
    c485:	0f b7 05 c2 cb 00 00 	movzwl 0xcbc2(%rip),%eax        # 1904e <g_52>
    c48c:	66 39 85 9c e5 ff ff 	cmp    %ax,-0x1a64(%rbp)
    c493:	8b 95 30 ed ff ff    	mov    -0x12d0(%rbp),%edx
    c499:	48 8b 85 60 e8 ff ff 	mov    -0x17a0(%rbp),%rax
    c4a0:	8b 08                	mov    (%rax),%ecx
    c4a2:	8b 85 d4 e5 ff ff    	mov    -0x1a2c(%rbp),%eax
    c4a8:	39 c1                	cmp    %eax,%ecx
    c4aa:	0f 9e c0             	setle  %al
    c4ad:	0f b6 c0             	movzbl %al,%eax
    c4b0:	39 c2                	cmp    %eax,%edx
    c4b2:	0f 95 c0             	setne  %al
    c4b5:	0f b6 d0             	movzbl %al,%edx
    c4b8:	48 8b 85 38 e8 ff ff 	mov    -0x17c8(%rbp),%rax
    c4bf:	0f b6 00             	movzbl (%rax),%eax
    c4c2:	89 c1                	mov    %eax,%ecx
    c4c4:	89 d0                	mov    %edx,%eax
    c4c6:	21 c8                	and    %ecx,%eax
    c4c8:	89 c2                	mov    %eax,%edx
    c4ca:	48 8b 85 38 e8 ff ff 	mov    -0x17c8(%rbp),%rax
    c4d1:	88 10                	mov    %dl,(%rax)
    c4d3:	48 8b 85 38 e8 ff ff 	mov    -0x17c8(%rbp),%rax
    c4da:	0f b6 00             	movzbl (%rax),%eax
    c4dd:	0f b6 c0             	movzbl %al,%eax
    c4e0:	be fa 00 00 00       	mov    $0xfa,%esi
    c4e5:	89 c7                	mov    %eax,%edi
    c4e7:	e8 6e c6 ff ff       	callq  8b5a <safe_add_func_uint8_t_u_u>
    c4ec:	0f b6 c0             	movzbl %al,%eax
    c4ef:	48 89 c7             	mov    %rax,%rdi
    c4f2:	e8 1f c3 ff ff       	callq  8816 <safe_unary_minus_func_int64_t_s>
    c4f7:	0f b6 15 a3 d4 00 00 	movzbl 0xd4a3(%rip),%edx        # 199a1 <g_1333+0x1>
    c4fe:	48 0f be d2          	movsbq %dl,%rdx
    c502:	48 39 d0             	cmp    %rdx,%rax
    c505:	0f 9d c0             	setge  %al
    c508:	0f b6 c0             	movzbl %al,%eax
    c50b:	89 de                	mov    %ebx,%esi
    c50d:	89 c7                	mov    %eax,%edi
    c50f:	e8 02 bf ff ff       	callq  8416 <safe_mod_func_int16_t_s_s>
    c514:	8b 95 9c ea ff ff    	mov    -0x1564(%rbp),%edx
    c51a:	98                   	cwtl   
    c51b:	21 d0                	and    %edx,%eax
    c51d:	89 85 9c ea ff ff    	mov    %eax,-0x1564(%rbp)
    c523:	0f b6 85 1e eb ff ff 	movzbl -0x14e2(%rbp),%eax
    c52a:	84 c0                	test   %al,%al
    c52c:	75 09                	jne    c537 <func_1+0x2d82>
    c52e:	83 bd 84 e6 ff ff 00 	cmpl   $0x0,-0x197c(%rbp)
    c535:	eb 01                	jmp    c538 <func_1+0x2d83>
    c537:	90                   	nop
    c538:	48 8b 85 a8 e7 ff ff 	mov    -0x1858(%rbp),%rax
    c53f:	48 83 e8 01          	sub    $0x1,%rax
    c543:	48 89 85 a8 e7 ff ff 	mov    %rax,-0x1858(%rbp)
    c54a:	48 8b 85 a8 e7 ff ff 	mov    -0x1858(%rbp),%rax
    c551:	48 83 f8 f5          	cmp    $0xfffffffffffffff5,%rax
    c555:	0f 8d 47 fe ff ff    	jge    c3a2 <func_1+0x2bed>
    c55b:	eb 01                	jmp    c55e <func_1+0x2da9>
    c55d:	90                   	nop
    c55e:	8b 85 cc e5 ff ff    	mov    -0x1a34(%rbp),%eax
    c564:	83 c0 01             	add    $0x1,%eax
    c567:	89 85 cc e5 ff ff    	mov    %eax,-0x1a34(%rbp)
    c56d:	83 bd dc e5 ff ff 00 	cmpl   $0x0,-0x1a24(%rbp)
    c574:	0f 84 0e 04 00 00    	je     c988 <func_1+0x31d3>
    c57a:	c7 85 8c e6 ff ff 0b 	movl   $0xd0a5bf0b,-0x1974(%rbp)
    c581:	bf a5 d0 
    c584:	48 8d 05 5d 06 01 00 	lea    0x1065d(%rip),%rax        # 1cbe8 <g_654>
    c58b:	48 89 85 00 f8 ff ff 	mov    %rax,-0x800(%rbp)
    c592:	48 8d 05 4f 06 01 00 	lea    0x1064f(%rip),%rax        # 1cbe8 <g_654>
    c599:	48 89 85 08 f8 ff ff 	mov    %rax,-0x7f8(%rbp)
    c5a0:	48 8d 05 41 06 01 00 	lea    0x10641(%rip),%rax        # 1cbe8 <g_654>
    c5a7:	48 89 85 10 f8 ff ff 	mov    %rax,-0x7f0(%rbp)
    c5ae:	48 8d 05 33 06 01 00 	lea    0x10633(%rip),%rax        # 1cbe8 <g_654>
    c5b5:	48 89 85 18 f8 ff ff 	mov    %rax,-0x7e8(%rbp)
    c5bc:	48 8d 05 25 06 01 00 	lea    0x10625(%rip),%rax        # 1cbe8 <g_654>
    c5c3:	48 89 85 20 f8 ff ff 	mov    %rax,-0x7e0(%rbp)
    c5ca:	48 8d 05 17 06 01 00 	lea    0x10617(%rip),%rax        # 1cbe8 <g_654>
    c5d1:	48 89 85 28 f8 ff ff 	mov    %rax,-0x7d8(%rbp)
    c5d8:	48 8d 05 09 06 01 00 	lea    0x10609(%rip),%rax        # 1cbe8 <g_654>
    c5df:	48 89 85 30 f8 ff ff 	mov    %rax,-0x7d0(%rbp)
    c5e6:	48 8d 05 fb 05 01 00 	lea    0x105fb(%rip),%rax        # 1cbe8 <g_654>
    c5ed:	48 89 85 80 e8 ff ff 	mov    %rax,-0x1780(%rbp)
    c5f4:	c7 85 7c e6 ff ff 00 	movl   $0x0,-0x1984(%rbp)
    c5fb:	00 00 00 
    c5fe:	eb 1e                	jmp    c61e <func_1+0x2e69>
    c600:	8b 85 7c e6 ff ff    	mov    -0x1984(%rbp),%eax
    c606:	48 98                	cltq   
    c608:	48 8d 95 70 e7 ff ff 	lea    -0x1890(%rbp),%rdx
    c60f:	48 89 94 c5 30 eb ff 	mov    %rdx,-0x14d0(%rbp,%rax,8)
    c616:	ff 
    c617:	83 85 7c e6 ff ff 01 	addl   $0x1,-0x1984(%rbp)
    c61e:	83 bd 7c e6 ff ff 00 	cmpl   $0x0,-0x1984(%rbp)
    c625:	7e d9                	jle    c600 <func_1+0x2e4b>
    c627:	c7 85 7c e6 ff ff 00 	movl   $0x0,-0x1984(%rbp)
    c62e:	00 00 00 
    c631:	eb 1a                	jmp    c64d <func_1+0x2e98>
    c633:	8b 85 7c e6 ff ff    	mov    -0x1984(%rbp),%eax
    c639:	48 98                	cltq   
    c63b:	c7 84 85 30 ec ff ff 	movl   $0x11c59aaf,-0x13d0(%rbp,%rax,4)
    c642:	af 9a c5 11 
    c646:	83 85 7c e6 ff ff 01 	addl   $0x1,-0x1984(%rbp)
    c64d:	83 bd 7c e6 ff ff 03 	cmpl   $0x3,-0x1984(%rbp)
    c654:	7e dd                	jle    c633 <func_1+0x2e7e>
    c656:	c7 85 7c e6 ff ff 00 	movl   $0x0,-0x1984(%rbp)
    c65d:	00 00 00 
    c660:	eb 14                	jmp    c676 <func_1+0x2ec1>
    c662:	8b 85 7c e6 ff ff    	mov    -0x1984(%rbp),%eax
    c668:	48 98                	cltq   
    c66a:	c6 44 05 be 01       	movb   $0x1,-0x42(%rbp,%rax,1)
    c66f:	83 85 7c e6 ff ff 01 	addl   $0x1,-0x1984(%rbp)
    c676:	83 bd 7c e6 ff ff 09 	cmpl   $0x9,-0x1984(%rbp)
    c67d:	7e e3                	jle    c662 <func_1+0x2ead>
    c67f:	0f b7 05 46 cb 00 00 	movzwl 0xcb46(%rip),%eax        # 191cc <g_61+0x16c>
    c686:	98                   	cwtl   
    c687:	be 01 00 00 00       	mov    $0x1,%esi
    c68c:	89 c7                	mov    %eax,%edi
    c68e:	e8 20 bd ff ff       	callq  83b3 <safe_add_func_int16_t_s_s>
    c693:	66 3d ff fe          	cmp    $0xfeff,%ax
    c697:	76 11                	jbe    c6aa <func_1+0x2ef5>
    c699:	8b 85 30 ed ff ff    	mov    -0x12d0(%rbp),%eax
    c69f:	85 c0                	test   %eax,%eax
    c6a1:	74 07                	je     c6aa <func_1+0x2ef5>
    c6a3:	ba 01 00 00 00       	mov    $0x1,%edx
    c6a8:	eb 05                	jmp    c6af <func_1+0x2efa>
    c6aa:	ba 00 00 00 00       	mov    $0x0,%edx
    c6af:	48 8b 05 fa fa 00 00 	mov    0xfafa(%rip),%rax        # 1c1b0 <g_1348>
    c6b6:	89 10                	mov    %edx,(%rax)
    c6b8:	0f b6 05 6d cf 00 00 	movzbl 0xcf6d(%rip),%eax        # 1962c <g_69>
    c6bf:	0f be d8             	movsbl %al,%ebx
    c6c2:	0f b7 05 89 cb 00 00 	movzwl 0xcb89(%rip),%eax        # 19252 <g_63>
    c6c9:	83 c0 01             	add    $0x1,%eax
    c6cc:	66 89 05 7f cb 00 00 	mov    %ax,0xcb7f(%rip)        # 19252 <g_63>
    c6d3:	8b 85 d4 e5 ff ff    	mov    -0x1a2c(%rbp),%eax
    c6d9:	98                   	cwtl   
    c6da:	89 c6                	mov    %eax,%esi
    c6dc:	bf 00 00 00 00       	mov    $0x0,%edi
    c6e1:	e8 0f bd ff ff       	callq  83f5 <safe_mul_func_int16_t_s_s>
    c6e6:	0f b6 c0             	movzbl %al,%eax
    c6e9:	be 06 00 00 00       	mov    $0x6,%esi
    c6ee:	89 c7                	mov    %eax,%edi
    c6f0:	e8 c9 c5 ff ff       	callq  8cbe <safe_rshift_func_uint8_t_u_u>
    c6f5:	0f b6 c0             	movzbl %al,%eax
    c6f8:	be 0a 00 00 00       	mov    $0xa,%esi
    c6fd:	89 c7                	mov    %eax,%edi
    c6ff:	e8 44 c7 ff ff       	callq  8e48 <safe_rshift_func_uint16_t_u_s>
    c704:	0f b7 c0             	movzwl %ax,%eax
    c707:	39 c3                	cmp    %eax,%ebx
    c709:	48 8b 85 28 e8 ff ff 	mov    -0x17d8(%rbp),%rax
    c710:	48 8b 10             	mov    (%rax),%rdx
    c713:	8b 85 8c e6 ff ff    	mov    -0x1974(%rbp),%eax
    c719:	48 21 c2             	and    %rax,%rdx
    c71c:	48 8b 85 28 e8 ff ff 	mov    -0x17d8(%rbp),%rax
    c723:	48 89 10             	mov    %rdx,(%rax)
    c726:	48 8b 85 28 e8 ff ff 	mov    -0x17d8(%rbp),%rax
    c72d:	48 8b 00             	mov    (%rax),%rax
    c730:	89 c1                	mov    %eax,%ecx
    c732:	8b 85 d0 e5 ff ff    	mov    -0x1a30(%rbp),%eax
    c738:	3d cd 46 00 00       	cmp    $0x46cd,%eax
    c73d:	0f 9e c0             	setle  %al
    c740:	0f b6 d0             	movzbl %al,%edx
    c743:	0f b6 05 4f cf 00 00 	movzbl 0xcf4f(%rip),%eax        # 19699 <g_207+0x1>
    c74a:	0f b6 c0             	movzbl %al,%eax
    c74d:	09 c2                	or     %eax,%edx
    c74f:	8b 85 c8 ed ff ff    	mov    -0x1238(%rbp),%eax
    c755:	39 c2                	cmp    %eax,%edx
    c757:	0f 9d c0             	setge  %al
    c75a:	0f b6 d0             	movzbl %al,%edx
    c75d:	8b 85 3c ec ff ff    	mov    -0x13c4(%rbp),%eax
    c763:	09 d0                	or     %edx,%eax
    c765:	09 c8                	or     %ecx,%eax
    c767:	be d8 cc 56 d5       	mov    $0xd556ccd8,%esi
    c76c:	89 c7                	mov    %eax,%edi
    c76e:	e8 92 be ff ff       	callq  8605 <safe_sub_func_int32_t_s_s>
    c773:	85 c0                	test   %eax,%eax
    c775:	75 14                	jne    c78b <func_1+0x2fd6>
    c777:	8b 85 1c ec ff ff    	mov    -0x13e4(%rbp),%eax
    c77d:	85 c0                	test   %eax,%eax
    c77f:	75 0a                	jne    c78b <func_1+0x2fd6>
    c781:	8b 85 9c ea ff ff    	mov    -0x1564(%rbp),%eax
    c787:	85 c0                	test   %eax,%eax
    c789:	74 07                	je     c792 <func_1+0x2fdd>
    c78b:	ba 01 00 00 00       	mov    $0x1,%edx
    c790:	eb 05                	jmp    c797 <func_1+0x2fe2>
    c792:	ba 00 00 00 00       	mov    $0x0,%edx
    c797:	8b 85 9c ea ff ff    	mov    -0x1564(%rbp),%eax
    c79d:	09 d0                	or     %edx,%eax
    c79f:	3d e0 9b 00 00       	cmp    $0x9be0,%eax
    c7a4:	48 8b 85 d8 eb ff ff 	mov    -0x1428(%rbp),%rax
    c7ab:	48 85 c0             	test   %rax,%rax
    c7ae:	0f 95 c0             	setne  %al
    c7b1:	89 c2                	mov    %eax,%edx
    c7b3:	48 8b 05 ee f9 00 00 	mov    0xf9ee(%rip),%rax        # 1c1a8 <g_1290>
    c7ba:	48 8b 00             	mov    (%rax),%rax
    c7bd:	48 39 85 c0 e7 ff ff 	cmp    %rax,-0x1840(%rbp)
    c7c4:	0f 95 c0             	setne  %al
    c7c7:	0f b6 c0             	movzbl %al,%eax
    c7ca:	48 39 85 f8 e7 ff ff 	cmp    %rax,-0x1808(%rbp)
    c7d1:	0f 93 c0             	setae  %al
    c7d4:	31 d0                	xor    %edx,%eax
    c7d6:	88 85 7d e5 ff ff    	mov    %al,-0x1a83(%rbp)
    c7dc:	48 8b 05 85 f9 00 00 	mov    0xf985(%rip),%rax        # 1c168 <g_806>
    c7e3:	c7 00 01 00 00 00    	movl   $0x1,(%rax)
    c7e9:	66 c7 05 5c c8 00 00 	movw   $0x1,0xc85c(%rip)        # 1904e <g_52>
    c7f0:	01 00 
    c7f2:	e9 6a 01 00 00       	jmpq   c961 <func_1+0x31ac>
    c7f7:	c7 85 90 e6 ff ff 70 	movl   $0x2b667570,-0x1970(%rbp)
    c7fe:	75 66 2b 
    c801:	c7 85 94 e6 ff ff 06 	movl   $0x6,-0x196c(%rbp)
    c808:	00 00 00 
    c80b:	8b 95 9c ea ff ff    	mov    -0x1564(%rbp),%edx
    c811:	0f b7 05 36 c8 00 00 	movzwl 0xc836(%rip),%eax        # 1904e <g_52>
    c818:	0f b7 c0             	movzwl %ax,%eax
    c81b:	48 98                	cltq   
    c81d:	48 8d 0d 7c d1 00 00 	lea    0xd17c(%rip),%rcx        # 199a0 <g_1333>
    c824:	0f b6 04 08          	movzbl (%rax,%rcx,1),%eax
    c828:	0f be c0             	movsbl %al,%eax
    c82b:	09 d0                	or     %edx,%eax
    c82d:	89 85 9c ea ff ff    	mov    %eax,-0x1564(%rbp)
    c833:	8b 85 fc e5 ff ff    	mov    -0x1a04(%rbp),%eax
    c839:	0f b6 d0             	movzbl %al,%edx
    c83c:	0f b7 05 0b c8 00 00 	movzwl 0xc80b(%rip),%eax        # 1904e <g_52>
    c843:	0f b7 c0             	movzwl %ax,%eax
    c846:	48 98                	cltq   
    c848:	48 8d 0d 51 d1 00 00 	lea    0xd151(%rip),%rcx        # 199a0 <g_1333>
    c84f:	0f b6 04 08          	movzbl (%rax,%rcx,1),%eax
    c853:	84 c0                	test   %al,%al
    c855:	0f 95 c0             	setne  %al
    c858:	0f b6 c0             	movzbl %al,%eax
    c85b:	89 d6                	mov    %edx,%esi
    c85d:	89 c7                	mov    %eax,%edi
    c85f:	e8 f6 c2 ff ff       	callq  8b5a <safe_add_func_uint8_t_u_u>
    c864:	0f b6 c0             	movzbl %al,%eax
    c867:	be ed 7e 2b 19       	mov    $0x192b7eed,%esi
    c86c:	89 c7                	mov    %eax,%edi
    c86e:	e8 43 bd ff ff       	callq  85b6 <safe_add_func_int32_t_s_s>
    c873:	8b 85 94 ea ff ff    	mov    -0x156c(%rbp),%eax
    c879:	0f be d0             	movsbl %al,%edx
    c87c:	8b 85 9c ea ff ff    	mov    -0x1564(%rbp),%eax
    c882:	0f be c0             	movsbl %al,%eax
    c885:	89 d6                	mov    %edx,%esi
    c887:	89 c7                	mov    %eax,%edi
    c889:	e8 46 b9 ff ff       	callq  81d4 <safe_add_func_int8_t_s_s>
    c88e:	89 c2                	mov    %eax,%edx
    c890:	48 8b 85 78 e7 ff ff 	mov    -0x1888(%rbp),%rax
    c897:	66 0f be d2          	movsbw %dl,%dx
    c89b:	66 89 10             	mov    %dx,(%rax)
    c89e:	0f b7 00             	movzwl (%rax),%eax
    c8a1:	98                   	cwtl   
    c8a2:	be 01 00 00 00       	mov    $0x1,%esi
    c8a7:	89 c7                	mov    %eax,%edi
    c8a9:	e8 68 bb ff ff       	callq  8416 <safe_mod_func_int16_t_s_s>
    c8ae:	98                   	cwtl   
    c8af:	89 85 c8 e5 ff ff    	mov    %eax,-0x1a38(%rbp)
    c8b5:	0f b6 45 be          	movzbl -0x42(%rbp),%eax
    c8b9:	0f b6 d0             	movzbl %al,%edx
    c8bc:	48 8b 85 28 f8 ff ff 	mov    -0x7d8(%rbp),%rax
    c8c3:	48 39 85 80 e8 ff ff 	cmp    %rax,-0x1780(%rbp)
    c8ca:	0f 95 c0             	setne  %al
    c8cd:	0f b6 c0             	movzbl %al,%eax
    c8d0:	23 85 8c e6 ff ff    	and    -0x1974(%rbp),%eax
    c8d6:	39 c2                	cmp    %eax,%edx
    c8d8:	0f 97 c0             	seta   %al
    c8db:	0f b6 c0             	movzbl %al,%eax
    c8de:	31 85 dc e5 ff ff    	xor    %eax,-0x1a24(%rbp)
    c8e4:	8b 85 dc e5 ff ff    	mov    -0x1a24(%rbp),%eax
    c8ea:	0f b6 d0             	movzbl %al,%edx
    c8ed:	8b 85 74 ed ff ff    	mov    -0x128c(%rbp),%eax
    c8f3:	0f b6 c0             	movzbl %al,%eax
    c8f6:	89 d6                	mov    %edx,%esi
    c8f8:	89 c7                	mov    %eax,%edi
    c8fa:	e8 dc c2 ff ff       	callq  8bdb <safe_div_func_uint8_t_u_u>
    c8ff:	89 c3                	mov    %eax,%ebx
    c901:	be 01 00 00 00       	mov    $0x1,%esi
    c906:	48 bf e9 91 c5 f7 50 	movabs $0x8d87b850f7c591e9,%rdi
    c90d:	b8 87 8d 
    c910:	e8 9a c7 ff ff       	callq  90af <safe_div_func_uint64_t_u_u>
    c915:	8b 85 fc eb ff ff    	mov    -0x1404(%rbp),%eax
    c91b:	48 63 d0             	movslq %eax,%rdx
    c91e:	48 8b 85 28 e8 ff ff 	mov    -0x17d8(%rbp),%rax
    c925:	48 8b 08             	mov    (%rax),%rcx
    c928:	0f b6 c3             	movzbl %bl,%eax
    c92b:	48 31 c1             	xor    %rax,%rcx
    c92e:	48 8b 85 28 e8 ff ff 	mov    -0x17d8(%rbp),%rax
    c935:	48 89 08             	mov    %rcx,(%rax)
    c938:	48 8b 85 28 e8 ff ff 	mov    -0x17d8(%rbp),%rax
    c93f:	48 8b 00             	mov    (%rax),%rax
    c942:	48 39 c2             	cmp    %rax,%rdx
    c945:	b8 01 00 00 00       	mov    $0x1,%eax
    c94a:	09 85 94 e6 ff ff    	or     %eax,-0x196c(%rbp)
    c950:	0f b7 05 f7 c6 00 00 	movzwl 0xc6f7(%rip),%eax        # 1904e <g_52>
    c957:	83 c0 01             	add    $0x1,%eax
    c95a:	66 89 05 ed c6 00 00 	mov    %ax,0xc6ed(%rip)        # 1904e <g_52>
    c961:	0f b7 05 e6 c6 00 00 	movzwl 0xc6e6(%rip),%eax        # 1904e <g_52>
    c968:	66 83 f8 07          	cmp    $0x7,%ax
    c96c:	0f 86 85 fe ff ff    	jbe    c7f7 <func_1+0x3042>
    c972:	48 8b 05 3f f8 00 00 	mov    0xf83f(%rip),%rax        # 1c1b8 <g_1385>
    c979:	48 8b 95 40 e8 ff ff 	mov    -0x17c0(%rbp),%rdx
    c980:	48 89 10             	mov    %rdx,(%rax)
    c983:	e9 a3 03 00 00       	jmpq   cd2b <func_1+0x3576>
    c988:	66 c7 85 a2 e5 ff ff 	movw   $0x0,-0x1a5e(%rbp)
    c98f:	00 00 
    c991:	c6 85 7e e5 ff ff 0d 	movb   $0xd,-0x1a82(%rbp)
    c998:	48 8d 05 b1 cc 00 00 	lea    0xccb1(%rip),%rax        # 19650 <g_142>
    c99f:	48 89 85 00 f8 ff ff 	mov    %rax,-0x800(%rbp)
    c9a6:	48 8d 85 94 ea ff ff 	lea    -0x156c(%rbp),%rax
    c9ad:	48 83 c0 08          	add    $0x8,%rax
    c9b1:	48 89 85 08 f8 ff ff 	mov    %rax,-0x7f8(%rbp)
    c9b8:	48 8d 85 94 ea ff ff 	lea    -0x156c(%rbp),%rax
    c9bf:	48 83 c0 08          	add    $0x8,%rax
    c9c3:	48 89 85 10 f8 ff ff 	mov    %rax,-0x7f0(%rbp)
    c9ca:	48 8d 05 7f cc 00 00 	lea    0xcc7f(%rip),%rax        # 19650 <g_142>
    c9d1:	48 89 85 18 f8 ff ff 	mov    %rax,-0x7e8(%rbp)
    c9d8:	48 8d 85 94 ea ff ff 	lea    -0x156c(%rbp),%rax
    c9df:	48 83 c0 08          	add    $0x8,%rax
    c9e3:	48 89 85 20 f8 ff ff 	mov    %rax,-0x7e0(%rbp)
    c9ea:	48 8d 85 94 ea ff ff 	lea    -0x156c(%rbp),%rax
    c9f1:	48 83 c0 08          	add    $0x8,%rax
    c9f5:	48 89 85 28 f8 ff ff 	mov    %rax,-0x7d8(%rbp)
    c9fc:	48 8d 05 4d cc 00 00 	lea    0xcc4d(%rip),%rax        # 19650 <g_142>
    ca03:	48 89 85 30 f8 ff ff 	mov    %rax,-0x7d0(%rbp)
    ca0a:	48 8d 85 94 ea ff ff 	lea    -0x156c(%rbp),%rax
    ca11:	48 83 c0 08          	add    $0x8,%rax
    ca15:	48 89 85 38 f8 ff ff 	mov    %rax,-0x7c8(%rbp)
    ca1c:	48 8d 85 94 ea ff ff 	lea    -0x156c(%rbp),%rax
    ca23:	48 83 c0 08          	add    $0x8,%rax
    ca27:	48 89 85 40 f8 ff ff 	mov    %rax,-0x7c0(%rbp)
    ca2e:	48 8d 05 1b cc 00 00 	lea    0xcc1b(%rip),%rax        # 19650 <g_142>
    ca35:	48 89 85 48 f8 ff ff 	mov    %rax,-0x7b8(%rbp)
    ca3c:	48 8d 85 94 ea ff ff 	lea    -0x156c(%rbp),%rax
    ca43:	48 83 c0 08          	add    $0x8,%rax
    ca47:	48 89 85 50 f8 ff ff 	mov    %rax,-0x7b0(%rbp)
    ca4e:	48 8d 85 94 ea ff ff 	lea    -0x156c(%rbp),%rax
    ca55:	48 83 c0 08          	add    $0x8,%rax
    ca59:	48 89 85 58 f8 ff ff 	mov    %rax,-0x7a8(%rbp)
    ca60:	48 8d 05 e9 cb 00 00 	lea    0xcbe9(%rip),%rax        # 19650 <g_142>
    ca67:	48 89 85 60 f8 ff ff 	mov    %rax,-0x7a0(%rbp)
    ca6e:	48 8d 85 94 ea ff ff 	lea    -0x156c(%rbp),%rax
    ca75:	48 83 c0 08          	add    $0x8,%rax
    ca79:	48 89 85 68 f8 ff ff 	mov    %rax,-0x798(%rbp)
    ca80:	48 8d 85 94 ea ff ff 	lea    -0x156c(%rbp),%rax
    ca87:	48 83 c0 08          	add    $0x8,%rax
    ca8b:	48 89 85 70 f8 ff ff 	mov    %rax,-0x790(%rbp)
    ca92:	48 8d 05 b7 cb 00 00 	lea    0xcbb7(%rip),%rax        # 19650 <g_142>
    ca99:	48 89 85 78 f8 ff ff 	mov    %rax,-0x788(%rbp)
    caa0:	48 8d 85 94 ea ff ff 	lea    -0x156c(%rbp),%rax
    caa7:	48 83 c0 08          	add    $0x8,%rax
    caab:	48 89 85 80 f8 ff ff 	mov    %rax,-0x780(%rbp)
    cab2:	48 8d 85 94 ea ff ff 	lea    -0x156c(%rbp),%rax
    cab9:	48 83 c0 08          	add    $0x8,%rax
    cabd:	48 89 85 88 f8 ff ff 	mov    %rax,-0x778(%rbp)
    cac4:	48 8d 05 85 cb 00 00 	lea    0xcb85(%rip),%rax        # 19650 <g_142>
    cacb:	48 89 85 90 f8 ff ff 	mov    %rax,-0x770(%rbp)
    cad2:	48 8d 85 94 ea ff ff 	lea    -0x156c(%rbp),%rax
    cad9:	48 83 c0 08          	add    $0x8,%rax
    cadd:	48 89 85 98 f8 ff ff 	mov    %rax,-0x768(%rbp)
    cae4:	48 8d 85 94 ea ff ff 	lea    -0x156c(%rbp),%rax
    caeb:	48 83 c0 08          	add    $0x8,%rax
    caef:	48 89 85 a0 f8 ff ff 	mov    %rax,-0x760(%rbp)
    caf6:	48 8d 05 53 cb 00 00 	lea    0xcb53(%rip),%rax        # 19650 <g_142>
    cafd:	48 89 85 a8 f8 ff ff 	mov    %rax,-0x758(%rbp)
    cb04:	48 8d 85 94 ea ff ff 	lea    -0x156c(%rbp),%rax
    cb0b:	48 83 c0 08          	add    $0x8,%rax
    cb0f:	48 89 85 b0 f8 ff ff 	mov    %rax,-0x750(%rbp)
    cb16:	48 8d 85 94 ea ff ff 	lea    -0x156c(%rbp),%rax
    cb1d:	48 83 c0 08          	add    $0x8,%rax
    cb21:	48 89 85 b8 f8 ff ff 	mov    %rax,-0x748(%rbp)
    cb28:	48 8d 05 21 cb 00 00 	lea    0xcb21(%rip),%rax        # 19650 <g_142>
    cb2f:	48 89 85 c0 f8 ff ff 	mov    %rax,-0x740(%rbp)
    cb36:	48 8d 85 94 ea ff ff 	lea    -0x156c(%rbp),%rax
    cb3d:	48 83 c0 08          	add    $0x8,%rax
    cb41:	48 89 85 c8 f8 ff ff 	mov    %rax,-0x738(%rbp)
    cb48:	48 8d 85 94 ea ff ff 	lea    -0x156c(%rbp),%rax
    cb4f:	48 83 c0 08          	add    $0x8,%rax
    cb53:	48 89 85 d0 f8 ff ff 	mov    %rax,-0x730(%rbp)
    cb5a:	48 8d 05 ef ca 00 00 	lea    0xcaef(%rip),%rax        # 19650 <g_142>
    cb61:	48 89 85 d8 f8 ff ff 	mov    %rax,-0x728(%rbp)
    cb68:	48 8d 85 94 ea ff ff 	lea    -0x156c(%rbp),%rax
    cb6f:	48 83 c0 08          	add    $0x8,%rax
    cb73:	48 89 85 e0 f8 ff ff 	mov    %rax,-0x720(%rbp)
    cb7a:	48 8d 85 94 ea ff ff 	lea    -0x156c(%rbp),%rax
    cb81:	48 83 c0 08          	add    $0x8,%rax
    cb85:	48 89 85 e8 f8 ff ff 	mov    %rax,-0x718(%rbp)
    cb8c:	48 8d 05 bd ca 00 00 	lea    0xcabd(%rip),%rax        # 19650 <g_142>
    cb93:	48 89 85 f0 f8 ff ff 	mov    %rax,-0x710(%rbp)
    cb9a:	48 8d 85 94 ea ff ff 	lea    -0x156c(%rbp),%rax
    cba1:	48 83 c0 08          	add    $0x8,%rax
    cba5:	48 89 85 f8 f8 ff ff 	mov    %rax,-0x708(%rbp)
    cbac:	48 8d 85 94 ea ff ff 	lea    -0x156c(%rbp),%rax
    cbb3:	48 83 c0 08          	add    $0x8,%rax
    cbb7:	48 89 85 00 f9 ff ff 	mov    %rax,-0x700(%rbp)
    cbbe:	48 8d 05 8b ca 00 00 	lea    0xca8b(%rip),%rax        # 19650 <g_142>
    cbc5:	48 89 85 08 f9 ff ff 	mov    %rax,-0x6f8(%rbp)
    cbcc:	48 8d 85 94 ea ff ff 	lea    -0x156c(%rbp),%rax
    cbd3:	48 83 c0 08          	add    $0x8,%rax
    cbd7:	48 89 85 10 f9 ff ff 	mov    %rax,-0x6f0(%rbp)
    cbde:	48 8d 85 94 ea ff ff 	lea    -0x156c(%rbp),%rax
    cbe5:	48 83 c0 08          	add    $0x8,%rax
    cbe9:	48 89 85 18 f9 ff ff 	mov    %rax,-0x6e8(%rbp)
    cbf0:	48 8d 05 59 ca 00 00 	lea    0xca59(%rip),%rax        # 19650 <g_142>
    cbf7:	48 89 85 20 f9 ff ff 	mov    %rax,-0x6e0(%rbp)
    cbfe:	48 8d 85 94 ea ff ff 	lea    -0x156c(%rbp),%rax
    cc05:	48 83 c0 08          	add    $0x8,%rax
    cc09:	48 89 85 28 f9 ff ff 	mov    %rax,-0x6d8(%rbp)
    cc10:	48 8d 85 94 ea ff ff 	lea    -0x156c(%rbp),%rax
    cc17:	48 83 c0 08          	add    $0x8,%rax
    cc1b:	48 89 85 30 f9 ff ff 	mov    %rax,-0x6d0(%rbp)
    cc22:	48 8d 05 27 ca 00 00 	lea    0xca27(%rip),%rax        # 19650 <g_142>
    cc29:	48 89 85 38 f9 ff ff 	mov    %rax,-0x6c8(%rbp)
    cc30:	48 8d 85 94 ea ff ff 	lea    -0x156c(%rbp),%rax
    cc37:	48 83 c0 08          	add    $0x8,%rax
    cc3b:	48 89 85 40 f9 ff ff 	mov    %rax,-0x6c0(%rbp)
    cc42:	48 8d 85 94 ea ff ff 	lea    -0x156c(%rbp),%rax
    cc49:	48 83 c0 08          	add    $0x8,%rax
    cc4d:	48 89 85 48 f9 ff ff 	mov    %rax,-0x6b8(%rbp)
    cc54:	48 c7 05 e1 c9 00 00 	movq   $0x1,0xc9e1(%rip)        # 19640 <g_100>
    cc5b:	01 00 00 00 
    cc5f:	e9 83 00 00 00       	jmpq   cce7 <func_1+0x3532>
    cc64:	48 8d 05 95 ff 00 00 	lea    0xff95(%rip),%rax        # 1cc00 <g_1046>
    cc6b:	48 89 85 b8 e7 ff ff 	mov    %rax,-0x1848(%rbp)
    cc72:	48 8d 85 b8 e7 ff ff 	lea    -0x1848(%rbp),%rax
    cc79:	48 89 85 78 e8 ff ff 	mov    %rax,-0x1788(%rbp)
    cc80:	48 8b 05 b9 f0 00 00 	mov    0xf0b9(%rip),%rax        # 1bd40 <g_779>
    cc87:	48 8b 00             	mov    (%rax),%rax
    cc8a:	48 8b 00             	mov    (%rax),%rax
    cc8d:	48 8b 00             	mov    (%rax),%rax
    cc90:	48 8b 00             	mov    (%rax),%rax
    cc93:	8b 00                	mov    (%rax),%eax
    cc95:	66 c7 85 a2 e5 ff ff 	movw   $0x6,-0x1a5e(%rbp)
    cc9c:	06 00 
    cc9e:	be 07 00 00 00       	mov    $0x7,%esi
    cca3:	bf 06 00 00 00       	mov    $0x6,%edi
    cca8:	e8 41 b6 ff ff       	callq  82ee <safe_lshift_func_int8_t_s_u>
    ccad:	48 8b 85 78 e8 ff ff 	mov    -0x1788(%rbp),%rax
    ccb4:	48 8d 15 45 ff 00 00 	lea    0xff45(%rip),%rdx        # 1cc00 <g_1046>
    ccbb:	48 89 10             	mov    %rdx,(%rax)
    ccbe:	48 8d 05 3b ff 00 00 	lea    0xff3b(%rip),%rax        # 1cc00 <g_1046>
    ccc5:	48 39 85 50 e8 ff ff 	cmp    %rax,-0x17b0(%rbp)
    cccc:	0f 95 c0             	setne  %al
    cccf:	88 85 7e e5 ff ff    	mov    %al,-0x1a82(%rbp)
    ccd5:	48 8b 05 64 c9 00 00 	mov    0xc964(%rip),%rax        # 19640 <g_100>
    ccdc:	48 83 e8 01          	sub    $0x1,%rax
    cce0:	48 89 05 59 c9 00 00 	mov    %rax,0xc959(%rip)        # 19640 <g_100>
    cce7:	48 8b 05 52 c9 00 00 	mov    0xc952(%rip),%rax        # 19640 <g_100>
    ccee:	48 85 c0             	test   %rax,%rax
    ccf1:	0f 89 6d ff ff ff    	jns    cc64 <func_1+0x34af>
    ccf7:	48 8b 85 40 e8 ff ff 	mov    -0x17c0(%rbp),%rax
    ccfe:	8b 00                	mov    (%rax),%eax
    cd00:	83 c8 01             	or     $0x1,%eax
    cd03:	89 c2                	mov    %eax,%edx
    cd05:	48 8b 85 40 e8 ff ff 	mov    -0x17c0(%rbp),%rax
    cd0c:	89 10                	mov    %edx,(%rax)
    cd0e:	8b 85 48 f3 ff ff    	mov    -0xcb8(%rbp),%eax
    cd14:	83 e8 01             	sub    $0x1,%eax
    cd17:	89 85 48 f3 ff ff    	mov    %eax,-0xcb8(%rbp)
    cd1d:	8b 85 98 ea ff ff    	mov    -0x1568(%rbp),%eax
    cd23:	85 c0                	test   %eax,%eax
    cd25:	0f 85 40 0f 00 00    	jne    dc6b <func_1+0x44b6>
    cd2b:	48 c7 85 f8 e7 ff ff 	movq   $0x0,-0x1808(%rbp)
    cd32:	00 00 00 00 
    cd36:	e9 96 09 00 00       	jmpq   d6d1 <func_1+0x3f1c>
    cd3b:	48 8d 05 4e fe 00 00 	lea    0xfe4e(%rip),%rax        # 1cb90 <g_101>
    cd42:	48 89 85 30 ec ff ff 	mov    %rax,-0x13d0(%rbp)
    cd49:	48 8d 05 40 fe 00 00 	lea    0xfe40(%rip),%rax        # 1cb90 <g_101>
    cd50:	48 89 85 38 ec ff ff 	mov    %rax,-0x13c8(%rbp)
    cd57:	48 8d 05 32 fe 00 00 	lea    0xfe32(%rip),%rax        # 1cb90 <g_101>
    cd5e:	48 89 85 40 ec ff ff 	mov    %rax,-0x13c0(%rbp)
    cd65:	48 8d 05 24 fe 00 00 	lea    0xfe24(%rip),%rax        # 1cb90 <g_101>
    cd6c:	48 89 85 48 ec ff ff 	mov    %rax,-0x13b8(%rbp)
    cd73:	48 8d 05 16 fe 00 00 	lea    0xfe16(%rip),%rax        # 1cb90 <g_101>
    cd7a:	48 89 85 50 ec ff ff 	mov    %rax,-0x13b0(%rbp)
    cd81:	48 8d 05 08 fe 00 00 	lea    0xfe08(%rip),%rax        # 1cb90 <g_101>
    cd88:	48 89 85 58 ec ff ff 	mov    %rax,-0x13a8(%rbp)
    cd8f:	48 8d 05 fa fd 00 00 	lea    0xfdfa(%rip),%rax        # 1cb90 <g_101>
    cd96:	48 89 85 60 ec ff ff 	mov    %rax,-0x13a0(%rbp)
    cd9d:	48 8d 05 ec fd 00 00 	lea    0xfdec(%rip),%rax        # 1cb90 <g_101>
    cda4:	48 89 85 68 ec ff ff 	mov    %rax,-0x1398(%rbp)
    cdab:	48 8d 05 de fd 00 00 	lea    0xfdde(%rip),%rax        # 1cb90 <g_101>
    cdb2:	48 89 85 70 ec ff ff 	mov    %rax,-0x1390(%rbp)
    cdb9:	48 8d 05 d0 fd 00 00 	lea    0xfdd0(%rip),%rax        # 1cb90 <g_101>
    cdc0:	48 89 85 78 ec ff ff 	mov    %rax,-0x1388(%rbp)
    cdc7:	48 8d 85 30 ec ff ff 	lea    -0x13d0(%rbp),%rax
    cdce:	48 83 c0 08          	add    $0x8,%rax
    cdd2:	48 89 85 88 e8 ff ff 	mov    %rax,-0x1778(%rbp)
    cdd9:	c7 85 98 e6 ff ff 01 	movl   $0x1,-0x1968(%rbp)
    cde0:	00 00 00 
    cde3:	48 8d 95 00 f8 ff ff 	lea    -0x800(%rbp),%rdx
    cdea:	b8 00 00 00 00       	mov    $0x0,%eax
    cdef:	b9 19 00 00 00       	mov    $0x19,%ecx
    cdf4:	48 89 d7             	mov    %rdx,%rdi
    cdf7:	f3 48 ab             	rep stos %rax,%es:(%rdi)
    cdfa:	c7 85 30 f8 ff ff 07 	movl   $0x7,-0x7d0(%rbp)
    ce01:	00 00 00 
    ce04:	c7 85 3c f8 ff ff 07 	movl   $0x7,-0x7c4(%rbp)
    ce0b:	00 00 00 
    ce0e:	c7 85 48 f8 ff ff 07 	movl   $0x7,-0x7b8(%rbp)
    ce15:	00 00 00 
    ce18:	c7 85 a8 f8 ff ff 07 	movl   $0x7,-0x758(%rbp)
    ce1f:	00 00 00 
    ce22:	c7 85 80 e6 ff ff 00 	movl   $0x0,-0x1980(%rbp)
    ce29:	00 00 00 
    ce2c:	eb 14                	jmp    ce42 <func_1+0x368d>
    ce2e:	8b 85 80 e6 ff ff    	mov    -0x1980(%rbp),%eax
    ce34:	48 98                	cltq   
    ce36:	c6 44 05 be ce       	movb   $0xce,-0x42(%rbp,%rax,1)
    ce3b:	83 85 80 e6 ff ff 01 	addl   $0x1,-0x1980(%rbp)
    ce42:	83 bd 80 e6 ff ff 08 	cmpl   $0x8,-0x1980(%rbp)
    ce49:	7e e3                	jle    ce2e <func_1+0x3679>
    ce4b:	c7 85 04 e6 ff ff 00 	movl   $0x0,-0x19fc(%rbp)
    ce52:	00 00 00 
    ce55:	eb 72                	jmp    cec9 <func_1+0x3714>
    ce57:	c7 85 30 eb ff ff 1a 	movl   $0x22c5eb1a,-0x14d0(%rbp)
    ce5e:	eb c5 22 
    ce61:	c7 85 34 eb ff ff bc 	movl   $0x933d8dbc,-0x14cc(%rbp)
    ce68:	8d 3d 93 
    ce6b:	c7 85 38 eb ff ff bc 	movl   $0x933d8dbc,-0x14c8(%rbp)
    ce72:	8d 3d 93 
    ce75:	c7 85 3c eb ff ff 1a 	movl   $0x22c5eb1a,-0x14c4(%rbp)
    ce7c:	eb c5 22 
    ce7f:	c7 85 40 eb ff ff bc 	movl   $0x933d8dbc,-0x14c0(%rbp)
    ce86:	8d 3d 93 
    ce89:	c7 85 44 eb ff ff bc 	movl   $0x933d8dbc,-0x14bc(%rbp)
    ce90:	8d 3d 93 
    ce93:	c7 85 48 eb ff ff 1a 	movl   $0x22c5eb1a,-0x14b8(%rbp)
    ce9a:	eb c5 22 
    ce9d:	c7 85 4c eb ff ff bc 	movl   $0x933d8dbc,-0x14b4(%rbp)
    cea4:	8d 3d 93 
    cea7:	48 8b 05 42 f3 00 00 	mov    0xf342(%rip),%rax        # 1c1f0 <g_1401>
    ceae:	48 8d 95 78 e7 ff ff 	lea    -0x1888(%rbp),%rdx
    ceb5:	48 89 10             	mov    %rdx,(%rax)
    ceb8:	8b 85 48 eb ff ff    	mov    -0x14b8(%rbp),%eax
    cebe:	85 c0                	test   %eax,%eax
    cec0:	75 12                	jne    ced4 <func_1+0x371f>
    cec2:	83 85 04 e6 ff ff 01 	addl   $0x1,-0x19fc(%rbp)
    cec9:	83 bd 04 e6 ff ff 0c 	cmpl   $0xc,-0x19fc(%rbp)
    ced0:	77 85                	ja     ce57 <func_1+0x36a2>
    ced2:	eb 01                	jmp    ced5 <func_1+0x3720>
    ced4:	90                   	nop
    ced5:	48 8b 95 38 ec ff ff 	mov    -0x13c8(%rbp),%rdx
    cedc:	48 8b 85 88 e8 ff ff 	mov    -0x1778(%rbp),%rax
    cee3:	48 89 10             	mov    %rdx,(%rax)
    cee6:	c7 85 c4 e5 ff ff 02 	movl   $0x2,-0x1a3c(%rbp)
    ceed:	00 00 00 
    cef0:	e9 c6 07 00 00       	jmpq   d6bb <func_1+0x3f06>
    cef5:	48 8d 05 ec f2 00 00 	lea    0xf2ec(%rip),%rax        # 1c1e8 <g_1402+0x28>
    cefc:	48 89 85 b0 e7 ff ff 	mov    %rax,-0x1850(%rbp)
    cf03:	48 8d 85 b0 e7 ff ff 	lea    -0x1850(%rbp),%rax
    cf0a:	48 89 85 90 e8 ff ff 	mov    %rax,-0x1770(%rbp)
    cf11:	48 8d 05 a8 f2 00 00 	lea    0xf2a8(%rip),%rax        # 1c1c0 <g_1402>
    cf18:	48 89 85 b8 e7 ff ff 	mov    %rax,-0x1848(%rbp)
    cf1f:	48 8d 85 b8 e7 ff ff 	lea    -0x1848(%rbp),%rax
    cf26:	48 89 85 98 e8 ff ff 	mov    %rax,-0x1768(%rbp)
    cf2d:	c7 85 9c e6 ff ff a3 	movl   $0xcc8782a3,-0x1964(%rbp)
    cf34:	82 87 cc 
    cf37:	48 8d 85 cc e5 ff ff 	lea    -0x1a34(%rbp),%rax
    cf3e:	48 89 85 a0 e8 ff ff 	mov    %rax,-0x1760(%rbp)
    cf45:	c7 85 a0 e6 ff ff 8a 	movl   $0x9efbc98a,-0x1960(%rbp)
    cf4c:	c9 fb 9e 
    cf4f:	48 c7 85 a8 e8 ff ff 	movq   $0xfffffffffffffff9,-0x1758(%rbp)
    cf56:	f9 ff ff ff 
    cf5a:	48 8d 85 e0 ec ff ff 	lea    -0x1320(%rbp),%rax
    cf61:	48 05 9c 00 00 00    	add    $0x9c,%rax
    cf67:	48 89 85 b0 e8 ff ff 	mov    %rax,-0x1750(%rbp)
    cf6e:	c7 85 30 e6 ff ff 00 	movl   $0x0,-0x19d0(%rbp)
    cf75:	00 00 00 
    cf78:	eb 1e                	jmp    cf98 <func_1+0x37e3>
    cf7a:	8b 85 30 e6 ff ff    	mov    -0x19d0(%rbp),%eax
    cf80:	48 98                	cltq   
    cf82:	48 8d 15 07 fc 00 00 	lea    0xfc07(%rip),%rdx        # 1cb90 <g_101>
    cf89:	48 89 94 c5 30 eb ff 	mov    %rdx,-0x14d0(%rbp,%rax,8)
    cf90:	ff 
    cf91:	83 85 30 e6 ff ff 01 	addl   $0x1,-0x19d0(%rbp)
    cf98:	83 bd 30 e6 ff ff 03 	cmpl   $0x3,-0x19d0(%rbp)
    cf9f:	7e d9                	jle    cf7a <func_1+0x37c5>
    cfa1:	48 0f bf 9d 90 e5 ff 	movswq -0x1a70(%rbp),%rbx
    cfa8:	ff 
    cfa9:	8b 85 c4 e5 ff ff    	mov    -0x1a3c(%rbp),%eax
    cfaf:	83 c0 06             	add    $0x6,%eax
    cfb2:	48 98                	cltq   
    cfb4:	48 8d 15 8d c2 00 00 	lea    0xc28d(%rip),%rdx        # 19248 <g_62>
    cfbb:	0f b6 04 10          	movzbl (%rax,%rdx,1),%eax
    cfbf:	84 c0                	test   %al,%al
    cfc1:	0f 85 1b 03 00 00    	jne    d2e2 <func_1+0x3b2d>
    cfc7:	8b 85 c4 e5 ff ff    	mov    -0x1a3c(%rbp),%eax
    cfcd:	8d 48 05             	lea    0x5(%rax),%ecx
    cfd0:	8b 85 c4 e5 ff ff    	mov    -0x1a3c(%rbp),%eax
    cfd6:	8b 95 c4 e5 ff ff    	mov    -0x1a3c(%rbp),%edx
    cfdc:	48 63 f2             	movslq %edx,%rsi
    cfdf:	48 63 d1             	movslq %ecx,%rdx
    cfe2:	48 63 c8             	movslq %eax,%rcx
    cfe5:	48 89 d0             	mov    %rdx,%rax
    cfe8:	48 01 c0             	add    %rax,%rax
    cfeb:	48 01 d0             	add    %rdx,%rax
    cfee:	48 8d 14 c5 00 00 00 	lea    0x0(,%rax,8),%rdx
    cff5:	00 
    cff6:	48 01 d0             	add    %rdx,%rax
    cff9:	48 89 ca             	mov    %rcx,%rdx
    cffc:	48 01 d2             	add    %rdx,%rdx
    cfff:	48 01 ca             	add    %rcx,%rdx
    d002:	48 01 d0             	add    %rdx,%rax
    d005:	48 01 f0             	add    %rsi,%rax
    d008:	48 8d 14 00          	lea    (%rax,%rax,1),%rdx
    d00c:	48 8d 05 4d c0 00 00 	lea    0xc04d(%rip),%rax        # 19060 <g_61>
    d013:	0f b7 14 02          	movzwl (%rdx,%rax,1),%edx
    d017:	48 8b 05 62 e9 00 00 	mov    0xe962(%rip),%rax        # 1b980 <g_32>
    d01e:	88 10                	mov    %dl,(%rax)
    d020:	0f b6 00             	movzbl (%rax),%eax
    d023:	0f be d0             	movsbl %al,%edx
    d026:	48 8b 85 40 e8 ff ff 	mov    -0x17c0(%rbp),%rax
    d02d:	89 10                	mov    %edx,(%rax)
    d02f:	8b 85 c4 e5 ff ff    	mov    -0x1a3c(%rbp),%eax
    d035:	8d 50 01             	lea    0x1(%rax),%edx
    d038:	8b 85 c4 e5 ff ff    	mov    -0x1a3c(%rbp),%eax
    d03e:	8d 48 01             	lea    0x1(%rax),%ecx
    d041:	8b 85 c4 e5 ff ff    	mov    -0x1a3c(%rbp),%eax
    d047:	48 63 f0             	movslq %eax,%rsi
    d04a:	48 63 d2             	movslq %edx,%rdx
    d04d:	48 63 c9             	movslq %ecx,%rcx
    d050:	48 89 d0             	mov    %rdx,%rax
    d053:	48 c1 e0 02          	shl    $0x2,%rax
    d057:	48 01 d0             	add    %rdx,%rax
    d05a:	48 c1 e0 02          	shl    $0x2,%rax
    d05e:	48 01 d0             	add    %rdx,%rax
    d061:	48 89 ca             	mov    %rcx,%rdx
    d064:	48 01 d2             	add    %rdx,%rdx
    d067:	48 01 ca             	add    %rcx,%rdx
    d06a:	48 01 d0             	add    %rdx,%rax
    d06d:	48 01 f0             	add    %rsi,%rax
    d070:	8b 84 85 50 ef ff ff 	mov    -0x10b0(%rbp,%rax,4),%eax
    d077:	44 0f b7 e0          	movzwl %ax,%r12d
    d07b:	0f b6 85 7a e5 ff ff 	movzbl -0x1a86(%rbp),%eax
    d082:	44 0f b6 e8          	movzbl %al,%r13d
    d086:	0f b6 85 7d e5 ff ff 	movzbl -0x1a83(%rbp),%eax
    d08d:	44 0f b6 f0          	movzbl %al,%r14d
    d091:	66 0f be 85 7d e5 ff 	movsbw -0x1a83(%rbp),%ax
    d098:	ff 
    d099:	44 0f b7 f8          	movzwl %ax,%r15d
    d09d:	48 8b 05 6c c8 00 00 	mov    0xc86c(%rip),%rax        # 19910 <g_1261+0x10>
    d0a4:	48 c1 e8 2b          	shr    $0x2b,%rax
    d0a8:	83 e0 0f             	and    $0xf,%eax
    d0ab:	0f b6 d0             	movzbl %al,%edx
    d0ae:	48 8b 85 90 e8 ff ff 	mov    -0x1770(%rbp),%rax
    d0b5:	48 c7 00 00 00 00 00 	movq   $0x0,(%rax)
    d0bc:	48 8b 85 90 e8 ff ff 	mov    -0x1770(%rbp),%rax
    d0c3:	48 8b 08             	mov    (%rax),%rcx
    d0c6:	48 8b 85 98 e8 ff ff 	mov    -0x1768(%rbp),%rax
    d0cd:	48 8d 35 14 f1 00 00 	lea    0xf114(%rip),%rsi        # 1c1e8 <g_1402+0x28>
    d0d4:	48 89 30             	mov    %rsi,(%rax)
    d0d7:	48 8b 85 98 e8 ff ff 	mov    -0x1768(%rbp),%rax
    d0de:	48 8b 00             	mov    (%rax),%rax
    d0e1:	48 39 c1             	cmp    %rax,%rcx
    d0e4:	0f 95 c0             	setne  %al
    d0e7:	0f b6 c0             	movzbl %al,%eax
    d0ea:	89 d6                	mov    %edx,%esi
    d0ec:	89 c7                	mov    %eax,%edi
    d0ee:	e8 02 b3 ff ff       	callq  83f5 <safe_mul_func_int16_t_s_s>
    d0f3:	0f b7 c0             	movzwl %ax,%eax
    d0f6:	44 89 fe             	mov    %r15d,%esi
    d0f9:	89 c7                	mov    %eax,%edi
    d0fb:	e8 5c bc ff ff       	callq  8d5c <safe_mod_func_uint16_t_u_u>
    d100:	66 85 c0             	test   %ax,%ax
    d103:	0f 94 c0             	sete   %al
    d106:	0f b6 c0             	movzbl %al,%eax
    d109:	be 00 00 00 00       	mov    $0x0,%esi
    d10e:	89 c7                	mov    %eax,%edi
    d110:	e8 63 ba ff ff       	callq  8b78 <safe_sub_func_uint8_t_u_u>
    d115:	84 c0                	test   %al,%al
    d117:	75 08                	jne    d121 <func_1+0x396c>
    d119:	48 83 bd f8 e7 ff ff 	cmpq   $0x0,-0x1808(%rbp)
    d120:	00 
    d121:	44 89 f6             	mov    %r14d,%esi
    d124:	bf 01 00 00 00       	mov    $0x1,%edi
    d129:	e8 65 ba ff ff       	callq  8b93 <safe_mul_func_uint8_t_u_u>
    d12e:	8b 85 c4 e5 ff ff    	mov    -0x1a3c(%rbp),%eax
    d134:	8d 48 05             	lea    0x5(%rax),%ecx
    d137:	8b 85 c4 e5 ff ff    	mov    -0x1a3c(%rbp),%eax
    d13d:	8b 95 c4 e5 ff ff    	mov    -0x1a3c(%rbp),%edx
    d143:	48 63 f2             	movslq %edx,%rsi
    d146:	48 63 d1             	movslq %ecx,%rdx
    d149:	48 63 c8             	movslq %eax,%rcx
    d14c:	48 89 d0             	mov    %rdx,%rax
    d14f:	48 01 c0             	add    %rax,%rax
    d152:	48 01 d0             	add    %rdx,%rax
    d155:	48 8d 14 c5 00 00 00 	lea    0x0(,%rax,8),%rdx
    d15c:	00 
    d15d:	48 01 d0             	add    %rdx,%rax
    d160:	48 89 ca             	mov    %rcx,%rdx
    d163:	48 01 d2             	add    %rdx,%rdx
    d166:	48 01 ca             	add    %rcx,%rdx
    d169:	48 01 d0             	add    %rdx,%rax
    d16c:	48 01 f0             	add    %rsi,%rax
    d16f:	48 8d 14 00          	lea    (%rax,%rax,1),%rdx
    d173:	48 8d 05 e6 be 00 00 	lea    0xbee6(%rip),%rax        # 19060 <g_61>
    d17a:	0f b7 04 02          	movzwl (%rdx,%rax,1),%eax
    d17e:	89 c2                	mov    %eax,%edx
    d180:	48 8b 85 38 e8 ff ff 	mov    -0x17c8(%rbp),%rax
    d187:	88 10                	mov    %dl,(%rax)
    d189:	48 8b 85 38 e8 ff ff 	mov    -0x17c8(%rbp),%rax
    d190:	0f b6 00             	movzbl (%rax),%eax
    d193:	0f b6 c0             	movzbl %al,%eax
    d196:	44 89 ee             	mov    %r13d,%esi
    d199:	89 c7                	mov    %eax,%edi
    d19b:	e8 ba b9 ff ff       	callq  8b5a <safe_add_func_uint8_t_u_u>
    d1a0:	0f b6 f0             	movzbl %al,%esi
    d1a3:	8b 85 c4 e5 ff ff    	mov    -0x1a3c(%rbp),%eax
    d1a9:	8d 48 05             	lea    0x5(%rax),%ecx
    d1ac:	8b 85 c4 e5 ff ff    	mov    -0x1a3c(%rbp),%eax
    d1b2:	8b 95 c4 e5 ff ff    	mov    -0x1a3c(%rbp),%edx
    d1b8:	48 63 fa             	movslq %edx,%rdi
    d1bb:	48 63 d1             	movslq %ecx,%rdx
    d1be:	48 63 c8             	movslq %eax,%rcx
    d1c1:	48 89 d0             	mov    %rdx,%rax
    d1c4:	48 01 c0             	add    %rax,%rax
    d1c7:	48 01 d0             	add    %rdx,%rax
    d1ca:	48 8d 14 c5 00 00 00 	lea    0x0(,%rax,8),%rdx
    d1d1:	00 
    d1d2:	48 01 d0             	add    %rdx,%rax
    d1d5:	48 89 ca             	mov    %rcx,%rdx
    d1d8:	48 01 d2             	add    %rdx,%rdx
    d1db:	48 01 ca             	add    %rcx,%rdx
    d1de:	48 01 d0             	add    %rdx,%rax
    d1e1:	48 01 f8             	add    %rdi,%rax
    d1e4:	48 8d 14 00          	lea    (%rax,%rax,1),%rdx
    d1e8:	48 8d 05 71 be 00 00 	lea    0xbe71(%rip),%rax        # 19060 <g_61>
    d1ef:	0f b7 04 02          	movzwl (%rdx,%rax,1),%eax
    d1f3:	98                   	cwtl   
    d1f4:	39 c6                	cmp    %eax,%esi
    d1f6:	8b 85 98 e6 ff ff    	mov    -0x1968(%rbp),%eax
    d1fc:	83 c8 01             	or     $0x1,%eax
    d1ff:	09 85 9c e6 ff ff    	or     %eax,-0x1964(%rbp)
    d205:	81 bd 9c e6 ff ff a9 	cmpl   $0x25a9,-0x1964(%rbp)
    d20c:	25 00 00 
    d20f:	0f 95 c0             	setne  %al
    d212:	0f b6 c0             	movzbl %al,%eax
    d215:	39 85 00 e6 ff ff    	cmp    %eax,-0x1a00(%rbp)
    d21b:	0f 95 c0             	setne  %al
    d21e:	0f b6 d0             	movzbl %al,%edx
    d221:	48 8b 85 38 eb ff ff 	mov    -0x14c8(%rbp),%rax
    d228:	48 85 c0             	test   %rax,%rax
    d22b:	0f 95 c0             	setne  %al
    d22e:	0f b6 c0             	movzbl %al,%eax
    d231:	89 d6                	mov    %edx,%esi
    d233:	89 c7                	mov    %eax,%edi
    d235:	e8 bb b1 ff ff       	callq  83f5 <safe_mul_func_int16_t_s_s>
    d23a:	0f b7 c0             	movzwl %ax,%eax
    d23d:	44 89 e6             	mov    %r12d,%esi
    d240:	89 c7                	mov    %eax,%edi
    d242:	e8 15 bb ff ff       	callq  8d5c <safe_mod_func_uint16_t_u_u>
    d247:	8b 85 98 e6 ff ff    	mov    -0x1968(%rbp),%eax
    d24d:	0f b6 c0             	movzbl %al,%eax
    d250:	be fb 00 00 00       	mov    $0xfb,%esi
    d255:	89 c7                	mov    %eax,%edi
    d257:	e8 52 b9 ff ff       	callq  8bae <safe_mod_func_uint8_t_u_u>
    d25c:	8b 95 ac f8 ff ff    	mov    -0x754(%rbp),%edx
    d262:	0f b6 c0             	movzbl %al,%eax
    d265:	09 d0                	or     %edx,%eax
    d267:	89 85 ac f8 ff ff    	mov    %eax,-0x754(%rbp)
    d26d:	8b 85 ac f8 ff ff    	mov    -0x754(%rbp),%eax
    d273:	0f b6 c0             	movzbl %al,%eax
    d276:	be 01 00 00 00       	mov    $0x1,%esi
    d27b:	89 c7                	mov    %eax,%edi
    d27d:	e8 0b ba ff ff       	callq  8c8d <safe_rshift_func_uint8_t_u_s>
    d282:	8b 85 c4 e5 ff ff    	mov    -0x1a3c(%rbp),%eax
    d288:	83 c0 02             	add    $0x2,%eax
    d28b:	48 98                	cltq   
    d28d:	48 8d 15 b4 bf 00 00 	lea    0xbfb4(%rip),%rdx        # 19248 <g_62>
    d294:	0f b6 14 10          	movzbl (%rax,%rdx,1),%edx
    d298:	8b 85 c4 e5 ff ff    	mov    -0x1a3c(%rbp),%eax
    d29e:	83 c0 02             	add    $0x2,%eax
    d2a1:	89 d6                	mov    %edx,%esi
    d2a3:	f7 d6                	not    %esi
    d2a5:	48 63 d0             	movslq %eax,%rdx
    d2a8:	48 8d 0d 99 bf 00 00 	lea    0xbf99(%rip),%rcx        # 19248 <g_62>
    d2af:	40 88 34 0a          	mov    %sil,(%rdx,%rcx,1)
    d2b3:	48 98                	cltq   
    d2b5:	48 8d 15 8c bf 00 00 	lea    0xbf8c(%rip),%rdx        # 19248 <g_62>
    d2bc:	0f b6 04 10          	movzbl (%rax,%rdx,1),%eax
    d2c0:	0f be c0             	movsbl %al,%eax
    d2c3:	be 00 00 00 00       	mov    $0x0,%esi
    d2c8:	89 c7                	mov    %eax,%edi
    d2ca:	e8 43 af ff ff       	callq  8212 <safe_mul_func_int8_t_s_s>
    d2cf:	0f be c0             	movsbl %al,%eax
    d2d2:	be ff ff ff ff       	mov    $0xffffffff,%esi
    d2d7:	89 c7                	mov    %eax,%edi
    d2d9:	e8 27 b3 ff ff       	callq  8605 <safe_sub_func_int32_t_s_s>
    d2de:	85 c0                	test   %eax,%eax
    d2e0:	74 07                	je     d2e9 <func_1+0x3b34>
    d2e2:	b8 01 00 00 00       	mov    $0x1,%eax
    d2e7:	eb 05                	jmp    d2ee <func_1+0x3b39>
    d2e9:	b8 00 00 00 00       	mov    $0x0,%eax
    d2ee:	48 98                	cltq   
    d2f0:	48 89 de             	mov    %rbx,%rsi
    d2f3:	48 89 c7             	mov    %rax,%rdi
    d2f6:	e8 50 bd ff ff       	callq  904b <safe_sub_func_uint64_t_u_u>
    d2fb:	8b 95 c4 e5 ff ff    	mov    -0x1a3c(%rbp),%edx
    d301:	8b 8d c4 e5 ff ff    	mov    -0x1a3c(%rbp),%ecx
    d307:	8b b5 c4 e5 ff ff    	mov    -0x1a3c(%rbp),%esi
    d30d:	89 c7                	mov    %eax,%edi
    d30f:	48 63 f6             	movslq %esi,%rsi
    d312:	48 63 d2             	movslq %edx,%rdx
    d315:	48 63 c9             	movslq %ecx,%rcx
    d318:	48 89 d0             	mov    %rdx,%rax
    d31b:	48 c1 e0 02          	shl    $0x2,%rax
    d31f:	48 01 d0             	add    %rdx,%rax
    d322:	48 c1 e0 02          	shl    $0x2,%rax
    d326:	48 01 d0             	add    %rdx,%rax
    d329:	48 89 ca             	mov    %rcx,%rdx
    d32c:	48 01 d2             	add    %rdx,%rdx
    d32f:	48 01 ca             	add    %rcx,%rdx
    d332:	48 01 d0             	add    %rdx,%rax
    d335:	48 01 f0             	add    %rsi,%rax
    d338:	89 bc 85 50 ef ff ff 	mov    %edi,-0x10b0(%rbp,%rax,4)
    d33f:	0f b6 05 57 94 00 00 	movzbl 0x9457(%rip),%eax        # 1679d <l_1482.4264+0xd>
    d346:	0f b6 c0             	movzbl %al,%eax
    d349:	89 85 68 e5 ff ff    	mov    %eax,-0x1a98(%rbp)
    d34f:	48 8b 05 4a e9 00 00 	mov    0xe94a(%rip),%rax        # 1bca0 <g_529>
    d356:	48 89 85 60 e5 ff ff 	mov    %rax,-0x1aa0(%rbp)
    d35d:	48 8b 05 0c c5 00 00 	mov    0xc50c(%rip),%rax        # 19870 <g_729>
    d364:	48 c1 e8 19          	shr    $0x19,%rax
    d368:	66 25 ff 03          	and    $0x3ff,%ax
    d36c:	44 0f b7 e0          	movzwl %ax,%r12d
    d370:	48 8b 9d 30 ef ff ff 	mov    -0x10d0(%rbp),%rbx
    d377:	48 8b 05 02 e6 00 00 	mov    0xe602(%rip),%rax        # 1b980 <g_32>
    d37e:	0f b6 00             	movzbl (%rax),%eax
    d381:	44 0f b6 e8          	movzbl %al,%r13d
    d385:	48 8b 85 a8 e8 ff ff 	mov    -0x1758(%rbp),%rax
    d38c:	44 0f b6 f0          	movzbl %al,%r14d
    d390:	8b 85 a0 e6 ff ff    	mov    -0x1960(%rbp),%eax
    d396:	4c 63 f8             	movslq %eax,%r15
    d399:	8b 85 c8 e5 ff ff    	mov    -0x1a38(%rbp),%eax
    d39f:	0f b6 c0             	movzbl %al,%eax
    d3a2:	89 85 5c e5 ff ff    	mov    %eax,-0x1aa4(%rbp)
    d3a8:	8b 85 ac f8 ff ff    	mov    -0x754(%rbp),%eax
    d3ae:	0f be c0             	movsbl %al,%eax
    d3b1:	89 85 50 e5 ff ff    	mov    %eax,-0x1ab0(%rbp)
    d3b7:	8b 85 30 ed ff ff    	mov    -0x12d0(%rbp),%eax
    d3bd:	be b9 85 20 72       	mov    $0x722085b9,%esi
    d3c2:	89 c7                	mov    %eax,%edi
    d3c4:	e8 ed b1 ff ff       	callq  85b6 <safe_add_func_int32_t_s_s>
    d3c9:	48 8b 85 a0 e8 ff ff 	mov    -0x1760(%rbp),%rax
    d3d0:	8b 00                	mov    (%rax),%eax
    d3d2:	8b 95 54 ed ff ff    	mov    -0x12ac(%rbp),%edx
    d3d8:	09 c2                	or     %eax,%edx
    d3da:	48 8b 85 a0 e8 ff ff 	mov    -0x1760(%rbp),%rax
    d3e1:	89 10                	mov    %edx,(%rax)
    d3e3:	48 8b 85 a0 e8 ff ff 	mov    -0x1760(%rbp),%rax
    d3ea:	8b 00                	mov    (%rax),%eax
    d3ec:	83 f8 01             	cmp    $0x1,%eax
    d3ef:	76 12                	jbe    d403 <func_1+0x3c4e>
    d3f1:	8b 85 9c f8 ff ff    	mov    -0x764(%rbp),%eax
    d3f7:	85 c0                	test   %eax,%eax
    d3f9:	75 08                	jne    d403 <func_1+0x3c4e>
    d3fb:	8b 85 c4 e5 ff ff    	mov    -0x1a3c(%rbp),%eax
    d401:	85 c0                	test   %eax,%eax
    d403:	90                   	nop
    d404:	48 8b 85 78 e7 ff ff 	mov    -0x1888(%rbp),%rax
    d40b:	48 85 c0             	test   %rax,%rax
    d40e:	0f 95 c0             	setne  %al
    d411:	0f b6 d0             	movzbl %al,%edx
    d414:	48 8b 85 40 e8 ff ff 	mov    -0x17c0(%rbp),%rax
    d41b:	8b 00                	mov    (%rax),%eax
    d41d:	39 c2                	cmp    %eax,%edx
    d41f:	0f 95 c0             	setne  %al
    d422:	0f b6 c0             	movzbl %al,%eax
    d425:	89 c6                	mov    %eax,%esi
    d427:	bf bd 6c 00 00       	mov    $0x6cbd,%edi
    d42c:	e8 f9 b0 ff ff       	callq  852a <safe_rshift_func_int16_t_s_s>
    d431:	98                   	cwtl   
    d432:	be 91 d2 7c 1b       	mov    $0x1b7cd291,%esi
    d437:	89 c7                	mov    %eax,%edi
    d439:	e8 92 ba ff ff       	callq  8ed0 <safe_sub_func_uint32_t_u_u>
    d43e:	8b 95 c4 e5 ff ff    	mov    -0x1a3c(%rbp),%edx
    d444:	44 8d 42 06          	lea    0x6(%rdx),%r8d
    d448:	8b 95 c4 e5 ff ff    	mov    -0x1a3c(%rbp),%edx
    d44e:	8d 7a 05             	lea    0x5(%rdx),%edi
    d451:	8b b5 c4 e5 ff ff    	mov    -0x1a3c(%rbp),%esi
    d457:	41 89 c2             	mov    %eax,%r10d
    d45a:	4c 63 ce             	movslq %esi,%r9
    d45d:	49 63 c0             	movslq %r8d,%rax
    d460:	48 63 cf             	movslq %edi,%rcx
    d463:	48 89 c2             	mov    %rax,%rdx
    d466:	48 01 d2             	add    %rdx,%rdx
    d469:	48 01 c2             	add    %rax,%rdx
    d46c:	48 8d 04 d5 00 00 00 	lea    0x0(,%rdx,8),%rax
    d473:	00 
    d474:	48 01 c2             	add    %rax,%rdx
    d477:	48 89 c8             	mov    %rcx,%rax
    d47a:	48 01 c0             	add    %rax,%rax
    d47d:	48 01 c8             	add    %rcx,%rax
    d480:	48 01 d0             	add    %rdx,%rax
    d483:	4c 01 c8             	add    %r9,%rax
    d486:	48 8d 14 00          	lea    (%rax,%rax,1),%rdx
    d48a:	48 8d 05 cf bb 00 00 	lea    0xbbcf(%rip),%rax        # 19060 <g_61>
    d491:	66 44 89 14 02       	mov    %r10w,(%rdx,%rax,1)
    d496:	48 63 f6             	movslq %esi,%rsi
    d499:	49 63 d0             	movslq %r8d,%rdx
    d49c:	48 63 cf             	movslq %edi,%rcx
    d49f:	48 89 d0             	mov    %rdx,%rax
    d4a2:	48 01 c0             	add    %rax,%rax
    d4a5:	48 01 d0             	add    %rdx,%rax
    d4a8:	48 8d 14 c5 00 00 00 	lea    0x0(,%rax,8),%rdx
    d4af:	00 
    d4b0:	48 01 d0             	add    %rdx,%rax
    d4b3:	48 89 ca             	mov    %rcx,%rdx
    d4b6:	48 01 d2             	add    %rdx,%rdx
    d4b9:	48 01 ca             	add    %rcx,%rdx
    d4bc:	48 01 d0             	add    %rdx,%rax
    d4bf:	48 01 f0             	add    %rsi,%rax
    d4c2:	48 8d 14 00          	lea    (%rax,%rax,1),%rdx
    d4c6:	48 8d 05 93 bb 00 00 	lea    0xbb93(%rip),%rax        # 19060 <g_61>
    d4cd:	0f b7 04 02          	movzwl (%rdx,%rax,1),%eax
    d4d1:	98                   	cwtl   
    d4d2:	8b 95 98 e6 ff ff    	mov    -0x1968(%rbp),%edx
    d4d8:	89 d6                	mov    %edx,%esi
    d4da:	89 c7                	mov    %eax,%edi
    d4dc:	e8 b1 af ff ff       	callq  8492 <safe_lshift_func_int16_t_s_s>
    d4e1:	48 8b 05 d0 ec 00 00 	mov    0xecd0(%rip),%rax        # 1c1b8 <g_1385>
    d4e8:	48 8b 85 40 e8 ff ff 	mov    -0x17c0(%rbp),%rax
    d4ef:	8b 00                	mov    (%rax),%eax
    d4f1:	83 f8 01             	cmp    $0x1,%eax
    d4f4:	48 8b 85 40 e8 ff ff 	mov    -0x17c0(%rbp),%rax
    d4fb:	8b 10                	mov    (%rax),%edx
    d4fd:	0f b7 05 4e bd 00 00 	movzwl 0xbd4e(%rip),%eax        # 19252 <g_63>
    d504:	0f b7 c0             	movzwl %ax,%eax
    d507:	39 c2                	cmp    %eax,%edx
    d509:	0f 9c c0             	setl   %al
    d50c:	0f b6 d0             	movzbl %al,%edx
    d50f:	0f b6 45 bb          	movzbl -0x45(%rbp),%eax
    d513:	0f be c0             	movsbl %al,%eax
    d516:	39 c2                	cmp    %eax,%edx
    d518:	74 07                	je     d521 <func_1+0x3d6c>
    d51a:	b8 74 00 00 00       	mov    $0x74,%eax
    d51f:	eb 05                	jmp    d526 <func_1+0x3d71>
    d521:	b8 75 00 00 00       	mov    $0x75,%eax
    d526:	8b b5 50 e5 ff ff    	mov    -0x1ab0(%rbp),%esi
    d52c:	89 c7                	mov    %eax,%edi
    d52e:	e8 df ac ff ff       	callq  8212 <safe_mul_func_int8_t_s_s>
    d533:	0f be c0             	movsbl %al,%eax
    d536:	89 c6                	mov    %eax,%esi
    d538:	bf 01 00 00 00       	mov    $0x1,%edi
    d53d:	e8 c3 b6 ff ff       	callq  8c05 <safe_lshift_func_uint8_t_u_s>
    d542:	0f b6 c0             	movzbl %al,%eax
    d545:	8b b5 5c e5 ff ff    	mov    -0x1aa4(%rbp),%esi
    d54b:	89 c7                	mov    %eax,%edi
    d54d:	e8 41 b6 ff ff       	callq  8b93 <safe_mul_func_uint8_t_u_u>
    d552:	0f b6 15 4f c4 00 00 	movzbl 0xc44f(%rip),%edx        # 199a8 <g_1477>
    d559:	38 d0                	cmp    %dl,%al
    d55b:	0f 92 c0             	setb   %al
    d55e:	0f b6 c0             	movzbl %al,%eax
    d561:	48 be ae cb 0e 99 8d 	movabs $0xcd1528d990ecbae,%rsi
    d568:	52 d1 0c 
    d56b:	48 89 c7             	mov    %rax,%rdi
    d56e:	e8 35 b3 ff ff       	callq  88a8 <safe_sub_func_int64_t_s_s>
    d573:	0f b7 85 9a e5 ff ff 	movzwl -0x1a66(%rbp),%eax
    d57a:	be ed 4d 00 00       	mov    $0x4ded,%esi
    d57f:	89 c7                	mov    %eax,%edi
    d581:	e8 99 b7 ff ff       	callq  8d1f <safe_sub_func_uint16_t_u_u>
    d586:	0f b7 c0             	movzwl %ax,%eax
    d589:	4c 89 fe             	mov    %r15,%rsi
    d58c:	48 89 c7             	mov    %rax,%rdi
    d58f:	e8 1b bb ff ff       	callq  90af <safe_div_func_uint64_t_u_u>
    d594:	0f b6 c0             	movzbl %al,%eax
    d597:	44 89 f6             	mov    %r14d,%esi
    d59a:	89 c7                	mov    %eax,%edi
    d59c:	e8 f2 b5 ff ff       	callq  8b93 <safe_mul_func_uint8_t_u_u>
    d5a1:	0f b6 55 bf          	movzbl -0x41(%rbp),%edx
    d5a5:	0f b6 05 a0 c0 00 00 	movzbl 0xc0a0(%rip),%eax        # 1964c <g_134>
    d5ac:	38 c2                	cmp    %al,%dl
    d5ae:	0f 95 c0             	setne  %al
    d5b1:	0f b6 c0             	movzbl %al,%eax
    d5b4:	be 01 00 00 00       	mov    $0x1,%esi
    d5b9:	89 c7                	mov    %eax,%edi
    d5bb:	e8 fe b6 ff ff       	callq  8cbe <safe_rshift_func_uint8_t_u_u>
    d5c0:	0f b6 c0             	movzbl %al,%eax
    d5c3:	44 89 ee             	mov    %r13d,%esi
    d5c6:	89 c7                	mov    %eax,%edi
    d5c8:	e8 0e b6 ff ff       	callq  8bdb <safe_div_func_uint8_t_u_u>
    d5cd:	0f b6 c0             	movzbl %al,%eax
    d5d0:	be 04 00 00 00       	mov    $0x4,%esi
    d5d5:	89 c7                	mov    %eax,%edi
    d5d7:	e8 87 af ff ff       	callq  8563 <safe_rshift_func_int16_t_s_u>
    d5dc:	48 c7 c6 ff ff ff ff 	mov    $0xffffffffffffffff,%rsi
    d5e3:	bf 01 00 00 00       	mov    $0x1,%edi
    d5e8:	e8 41 ba ff ff       	callq  902e <safe_add_func_uint64_t_u_u>
    d5ed:	89 c6                	mov    %eax,%esi
    d5ef:	bf 67 ec 17 bb       	mov    $0xbb17ec67,%edi
    d5f4:	e8 bd af ff ff       	callq  85b6 <safe_add_func_int32_t_s_s>
    d5f9:	48 98                	cltq   
    d5fb:	48 be df 7d 26 35 dd 	movabs $0x6bcfe5dd35267ddf,%rsi
    d602:	e5 cf 6b 
    d605:	48 89 c7             	mov    %rax,%rdi
    d608:	e8 21 ba ff ff       	callq  902e <safe_add_func_uint64_t_u_u>
    d60d:	48 85 c0             	test   %rax,%rax
    d610:	75 06                	jne    d618 <func_1+0x3e63>
    d612:	0f b6 45 bf          	movzbl -0x41(%rbp),%eax
    d616:	84 c0                	test   %al,%al
    d618:	44 8b 85 68 e5 ff ff 	mov    -0x1a98(%rbp),%r8d
    d61f:	48 8b 85 60 e5 ff ff 	mov    -0x1aa0(%rbp),%rax
    d626:	48 8b 08             	mov    (%rax),%rcx
    d629:	44 89 e2             	mov    %r12d,%edx
    d62c:	48 89 de             	mov    %rbx,%rsi
    d62f:	bf 81 16 ce b3       	mov    $0xb3ce1681,%edi
    d634:	e8 56 56 00 00       	callq  12c8f <func_78>
    d639:	8b 85 c4 e5 ff ff    	mov    -0x1a3c(%rbp),%eax
    d63f:	8d 50 01             	lea    0x1(%rax),%edx
    d642:	8b 85 c4 e5 ff ff    	mov    -0x1a3c(%rbp),%eax
    d648:	8d 48 01             	lea    0x1(%rax),%ecx
    d64b:	8b 85 c4 e5 ff ff    	mov    -0x1a3c(%rbp),%eax
    d651:	48 8d b5 50 ef ff ff 	lea    -0x10b0(%rbp),%rsi
    d658:	48 63 f8             	movslq %eax,%rdi
    d65b:	48 63 d2             	movslq %edx,%rdx
    d65e:	48 89 d0             	mov    %rdx,%rax
    d661:	48 c1 e0 02          	shl    $0x2,%rax
    d665:	48 01 d0             	add    %rdx,%rax
    d668:	48 c1 e0 02          	shl    $0x2,%rax
    d66c:	48 01 d0             	add    %rdx,%rax
    d66f:	48 63 c9             	movslq %ecx,%rcx
    d672:	48 89 ca             	mov    %rcx,%rdx
    d675:	48 01 d2             	add    %rdx,%rdx
    d678:	48 01 ca             	add    %rcx,%rdx
    d67b:	48 01 d0             	add    %rdx,%rax
    d67e:	48 01 f8             	add    %rdi,%rax
    d681:	48 c1 e0 02          	shl    $0x2,%rax
    d685:	48 01 f0             	add    %rsi,%rax
    d688:	48 89 85 b0 e8 ff ff 	mov    %rax,-0x1750(%rbp)
    d68f:	48 8b 85 b0 e8 ff ff 	mov    -0x1750(%rbp),%rax
    d696:	8b 10                	mov    (%rax),%edx
    d698:	48 8b 85 40 e8 ff ff 	mov    -0x17c0(%rbp),%rax
    d69f:	8b 00                	mov    (%rax),%eax
    d6a1:	21 c2                	and    %eax,%edx
    d6a3:	48 8b 85 b0 e8 ff ff 	mov    -0x1750(%rbp),%rax
    d6aa:	89 10                	mov    %edx,(%rax)
    d6ac:	8b 85 c4 e5 ff ff    	mov    -0x1a3c(%rbp),%eax
    d6b2:	83 e8 01             	sub    $0x1,%eax
    d6b5:	89 85 c4 e5 ff ff    	mov    %eax,-0x1a3c(%rbp)
    d6bb:	8b 85 c4 e5 ff ff    	mov    -0x1a3c(%rbp),%eax
    d6c1:	85 c0                	test   %eax,%eax
    d6c3:	0f 89 2c f8 ff ff    	jns    cef5 <func_1+0x3740>
    d6c9:	48 83 85 f8 e7 ff ff 	addq   $0x1,-0x1808(%rbp)
    d6d0:	01 
    d6d1:	48 83 bd f8 e7 ff ff 	cmpq   $0x7,-0x1808(%rbp)
    d6d8:	07 
    d6d9:	0f 86 5c f6 ff ff    	jbe    cd3b <func_1+0x3586>
    d6df:	48 8b 85 40 e8 ff ff 	mov    -0x17c0(%rbp),%rax
    d6e6:	8b 00                	mov    (%rax),%eax
    d6e8:	98                   	cwtl   
    d6e9:	89 c7                	mov    %eax,%edi
    d6eb:	e8 ad ac ff ff       	callq  839d <safe_unary_minus_func_int16_t_s>
    d6f0:	8b 95 9c ea ff ff    	mov    -0x1564(%rbp),%edx
    d6f6:	98                   	cwtl   
    d6f7:	21 d0                	and    %edx,%eax
    d6f9:	89 85 9c ea ff ff    	mov    %eax,-0x1564(%rbp)
    d6ff:	c6 05 98 bf 00 00 0b 	movb   $0xb,0xbf98(%rip)        # 1969e <g_223>
    d706:	90                   	nop
    d707:	0f b6 05 90 bf 00 00 	movzbl 0xbf90(%rip),%eax        # 1969e <g_223>
    d70e:	3c 05                	cmp    $0x5,%al
    d710:	0f 86 04 04 00 00    	jbe    db1a <func_1+0x4365>
    d716:	48 b8 d0 10 04 91 3c 	movabs $0xc5d27e3c910410d0,%rax
    d71d:	7e d2 c5 
    d720:	48 89 85 c8 e8 ff ff 	mov    %rax,-0x1738(%rbp)
    d727:	66 c7 05 1e b9 00 00 	movw   $0x7,0xb91e(%rip)        # 1904e <g_52>
    d72e:	07 00 
    d730:	e9 c2 03 00 00       	jmpq   daf7 <func_1+0x4342>
    d735:	c7 85 34 e6 ff ff 00 	movl   $0x0,-0x19cc(%rbp)
    d73c:	00 00 00 
    d73f:	eb 4a                	jmp    d78b <func_1+0x3fd6>
    d741:	c7 85 38 e6 ff ff 00 	movl   $0x0,-0x19c8(%rbp)
    d748:	00 00 00 
    d74b:	eb 2e                	jmp    d77b <func_1+0x3fc6>
    d74d:	8b 85 38 e6 ff ff    	mov    -0x19c8(%rbp),%eax
    d753:	48 98                	cltq   
    d755:	8b 95 34 e6 ff ff    	mov    -0x19cc(%rbp),%edx
    d75b:	48 63 d2             	movslq %edx,%rdx
    d75e:	48 01 d2             	add    %rdx,%rdx
    d761:	48 8d 5d d0          	lea    -0x30(%rbp),%rbx
    d765:	48 01 da             	add    %rbx,%rdx
    d768:	48 01 d0             	add    %rdx,%rax
    d76b:	48 2d a0 13 00 00    	sub    $0x13a0,%rax
    d771:	c6 00 fd             	movb   $0xfd,(%rax)
    d774:	83 85 38 e6 ff ff 01 	addl   $0x1,-0x19c8(%rbp)
    d77b:	83 bd 38 e6 ff ff 01 	cmpl   $0x1,-0x19c8(%rbp)
    d782:	7e c9                	jle    d74d <func_1+0x3f98>
    d784:	83 85 34 e6 ff ff 01 	addl   $0x1,-0x19cc(%rbp)
    d78b:	83 bd 34 e6 ff ff 01 	cmpl   $0x1,-0x19cc(%rbp)
    d792:	7e ad                	jle    d741 <func_1+0x3f8c>
    d794:	48 8b 85 38 e8 ff ff 	mov    -0x17c8(%rbp),%rax
    d79b:	0f b6 00             	movzbl (%rax),%eax
    d79e:	89 c2                	mov    %eax,%edx
    d7a0:	48 8b 85 40 e8 ff ff 	mov    -0x17c0(%rbp),%rax
    d7a7:	8b 00                	mov    (%rax),%eax
    d7a9:	09 d0                	or     %edx,%eax
    d7ab:	89 c2                	mov    %eax,%edx
    d7ad:	48 8b 85 38 e8 ff ff 	mov    -0x17c8(%rbp),%rax
    d7b4:	88 10                	mov    %dl,(%rax)
    d7b6:	48 8b 85 38 e8 ff ff 	mov    -0x17c8(%rbp),%rax
    d7bd:	0f b6 00             	movzbl (%rax),%eax
    d7c0:	0f b6 d8             	movzbl %al,%ebx
    d7c3:	48 83 bd c8 e8 ff ff 	cmpq   $0x0,-0x1738(%rbp)
    d7ca:	00 
    d7cb:	0f 95 c0             	setne  %al
    d7ce:	0f b6 c0             	movzbl %al,%eax
    d7d1:	be 47 1b 76 1d       	mov    $0x1d761b47,%esi
    d7d6:	89 c7                	mov    %eax,%edi
    d7d8:	e8 db b6 ff ff       	callq  8eb8 <safe_add_func_uint32_t_u_u>
    d7dd:	0f b7 d0             	movzwl %ax,%edx
    d7e0:	48 b8 24 1b 94 52 ce 	movabs $0xfeeabdce52941b24,%rax
    d7e7:	bd ea fe 
    d7ea:	0f b7 c0             	movzwl %ax,%eax
    d7ed:	89 d6                	mov    %edx,%esi
    d7ef:	89 c7                	mov    %eax,%edi
    d7f1:	e8 66 b5 ff ff       	callq  8d5c <safe_mod_func_uint16_t_u_u>
    d7f6:	66 85 c0             	test   %ax,%ax
    d7f9:	74 11                	je     d80c <func_1+0x4057>
    d7fb:	8b 85 fc eb ff ff    	mov    -0x1404(%rbp),%eax
    d801:	85 c0                	test   %eax,%eax
    d803:	74 07                	je     d80c <func_1+0x4057>
    d805:	b8 01 00 00 00       	mov    $0x1,%eax
    d80a:	eb 05                	jmp    d811 <func_1+0x405c>
    d80c:	b8 00 00 00 00       	mov    $0x0,%eax
    d811:	39 d8                	cmp    %ebx,%eax
    d813:	0f 9c c0             	setl   %al
    d816:	0f b6 d0             	movzbl %al,%edx
    d819:	0f b6 85 32 ec ff ff 	movzbl -0x13ce(%rbp),%eax
    d820:	0f b6 c0             	movzbl %al,%eax
    d823:	31 d0                	xor    %edx,%eax
    d825:	48 98                	cltq   
    d827:	48 23 85 c8 e8 ff ff 	and    -0x1738(%rbp),%rax
    d82e:	25 75 ec 00 00       	and    $0xec75,%eax
    d833:	48 89 c2             	mov    %rax,%rdx
    d836:	0f b7 85 8e e5 ff ff 	movzwl -0x1a72(%rbp),%eax
    d83d:	48 39 c2             	cmp    %rax,%rdx
    d840:	0f 93 c2             	setae  %dl
    d843:	48 8b 05 1e e9 00 00 	mov    0xe91e(%rip),%rax        # 1c168 <g_806>
    d84a:	0f b6 d2             	movzbl %dl,%edx
    d84d:	89 10                	mov    %edx,(%rax)
    d84f:	8b 00                	mov    (%rax),%eax
    d851:	85 c0                	test   %eax,%eax
    d853:	0f 84 62 02 00 00    	je     dabb <func_1+0x4306>
    d859:	66 c7 85 a4 e5 ff ff 	movw   $0x4f9,-0x1a5c(%rbp)
    d860:	f9 04 
    d862:	48 8d 85 a0 eb ff ff 	lea    -0x1460(%rbp),%rax
    d869:	48 83 c0 38          	add    $0x38,%rax
    d86d:	48 89 85 b8 e7 ff ff 	mov    %rax,-0x1848(%rbp)
    d874:	48 8d 85 b8 e7 ff ff 	lea    -0x1848(%rbp),%rax
    d87b:	48 89 85 d0 e8 ff ff 	mov    %rax,-0x1730(%rbp)
    d882:	48 b8 00 ff ff 00 36 	movabs $0xf600073600ffff00,%rax
    d889:	07 00 f6 
    d88c:	48 89 85 00 f8 ff ff 	mov    %rax,-0x800(%rbp)
    d893:	48 b8 fb 96 64 ff 07 	movabs $0x5020807ff6496fb,%rax
    d89a:	08 02 05 
    d89d:	48 89 85 08 f8 ff ff 	mov    %rax,-0x7f8(%rbp)
    d8a4:	48 b8 05 96 e0 4d 64 	movabs $0x4d6407644de09605,%rax
    d8ab:	07 64 4d 
    d8ae:	48 89 85 10 f8 ff ff 	mov    %rax,-0x7f0(%rbp)
    d8b5:	48 b8 00 ff 00 01 c7 	movabs $0x64004dc70100ff00,%rax
    d8bc:	4d 00 64 
    d8bf:	48 89 85 18 f8 ff ff 	mov    %rax,-0x7e8(%rbp)
    d8c6:	48 b8 36 64 fb 00 ff 	movabs $0x96c754ff00fb6436,%rax
    d8cd:	54 c7 96 
    d8d0:	48 89 85 20 f8 ff ff 	mov    %rax,-0x7e0(%rbp)
    d8d7:	48 b8 36 e0 54 fb c7 	movabs $0x54fbc7c7fb54e036,%rax
    d8de:	c7 fb 54 
    d8e1:	48 89 85 28 f8 ff ff 	mov    %rax,-0x7d8(%rbp)
    d8e8:	48 b8 00 00 08 f6 64 	movabs $0xfce064f6080000,%rax
    d8ef:	e0 fc 00 
    d8f2:	48 89 85 30 f8 ff ff 	mov    %rax,-0x7d0(%rbp)
    d8f9:	48 b8 05 fb c7 e0 07 	movabs $0xff9607e0c7fb05,%rax
    d900:	96 ff 00 
    d903:	48 89 85 38 f8 ff ff 	mov    %rax,-0x7c8(%rbp)
    d90a:	48 b8 fb 54 00 f6 36 	movabs $0x5400f636f60054fb,%rax
    d911:	f6 00 54 
    d914:	48 89 85 40 f8 ff ff 	mov    %rax,-0x7c0(%rbp)
    d91b:	48 b8 00 08 36 fb fb 	movabs $0x965401fbfb360800,%rax
    d922:	01 54 96 
    d925:	48 89 85 48 f8 ff ff 	mov    %rax,-0x7b8(%rbp)
    d92c:	48 b8 ff c7 00 00 00 	movabs $0x645402000000c7ff,%rax
    d933:	02 54 64 
    d936:	48 89 85 50 f8 ff ff 	mov    %rax,-0x7b0(%rbp)
    d93d:	48 b8 4d 00 36 01 01 	movabs $0x4d0036010136004d,%rax
    d944:	36 00 4d 
    d947:	48 89 85 58 f8 ff ff 	mov    %rax,-0x7a8(%rbp)
    d94e:	48 b8 01 36 00 4d 00 	movabs $0x5fffb004d003601,%rax
    d955:	fb ff 05 
    d958:	48 89 85 60 f8 ff ff 	mov    %rax,-0x7a0(%rbp)
    d95f:	48 b8 00 00 c7 ff 4d 	movabs $0xf6fcfb4dffc70000,%rax
    d966:	fb fc f6 
    d969:	48 89 85 68 f8 ff ff 	mov    %rax,-0x798(%rbp)
    d970:	48 b8 fb 36 08 00 08 	movabs $0xfbfb3608000836fb,%rax
    d977:	36 fb fb 
    d97a:	48 89 85 70 f8 ff ff 	mov    %rax,-0x790(%rbp)
    d981:	c7 85 00 f3 ff ff de 	movl   $0xc0c7bade,-0xd00(%rbp)
    d988:	ba c7 c0 
    d98b:	c7 85 04 f3 ff ff de 	movl   $0xc0c7bade,-0xcfc(%rbp)
    d992:	ba c7 c0 
    d995:	c7 85 08 f3 ff ff 4b 	movl   $0x6216ab4b,-0xcf8(%rbp)
    d99c:	ab 16 62 
    d99f:	c7 85 0c f3 ff ff de 	movl   $0xc0c7bade,-0xcf4(%rbp)
    d9a6:	ba c7 c0 
    d9a9:	c7 85 10 f3 ff ff de 	movl   $0xc0c7bade,-0xcf0(%rbp)
    d9b0:	ba c7 c0 
    d9b3:	c7 85 14 f3 ff ff 4b 	movl   $0x6216ab4b,-0xcec(%rbp)
    d9ba:	ab 16 62 
    d9bd:	c7 85 18 f3 ff ff de 	movl   $0xc0c7bade,-0xce8(%rbp)
    d9c4:	ba c7 c0 
    d9c7:	c7 85 1c f3 ff ff de 	movl   $0xc0c7bade,-0xce4(%rbp)
    d9ce:	ba c7 c0 
    d9d1:	c7 85 20 f3 ff ff 4b 	movl   $0x6216ab4b,-0xce0(%rbp)
    d9d8:	ab 16 62 
    d9db:	48 8b 95 b8 e7 ff ff 	mov    -0x1848(%rbp),%rdx
    d9e2:	48 8b 85 d0 e8 ff ff 	mov    -0x1730(%rbp),%rax
    d9e9:	48 89 10             	mov    %rdx,(%rax)
    d9ec:	48 83 bd c8 e8 ff ff 	cmpq   $0x0,-0x1738(%rbp)
    d9f3:	00 
    d9f4:	0f 95 c0             	setne  %al
    d9f7:	89 c2                	mov    %eax,%edx
    d9f9:	48 8b 85 d0 e7 ff ff 	mov    -0x1830(%rbp),%rax
    da00:	88 10                	mov    %dl,(%rax)
    da02:	48 8b 85 d0 e7 ff ff 	mov    -0x1830(%rbp),%rax
    da09:	0f b6 00             	movzbl (%rax),%eax
    da0c:	0f be d8             	movsbl %al,%ebx
    da0f:	8b 85 88 e6 ff ff    	mov    -0x1978(%rbp),%eax
    da15:	48 63 d0             	movslq %eax,%rdx
    da18:	0f b6 85 19 f8 ff ff 	movzbl -0x7e7(%rbp),%eax
    da1f:	0f b6 c0             	movzbl %al,%eax
    da22:	48 89 d6             	mov    %rdx,%rsi
    da25:	48 89 c7             	mov    %rax,%rdi
    da28:	e8 ca af ff ff       	callq  89f7 <safe_div_func_int64_t_s_s>
    da2d:	48 85 c0             	test   %rax,%rax
    da30:	0f 94 c0             	sete   %al
    da33:	0f b6 c0             	movzbl %al,%eax
    da36:	48 39 85 48 e8 ff ff 	cmp    %rax,-0x17b8(%rbp)
    da3d:	0f 95 c0             	setne  %al
    da40:	0f b6 c0             	movzbl %al,%eax
    da43:	39 c3                	cmp    %eax,%ebx
    da45:	0f 9c c0             	setl   %al
    da48:	0f b6 d0             	movzbl %al,%edx
    da4b:	0f b7 85 a4 e5 ff ff 	movzwl -0x1a5c(%rbp),%eax
    da52:	0f b6 c0             	movzbl %al,%eax
    da55:	89 d6                	mov    %edx,%esi
    da57:	89 c7                	mov    %eax,%edi
    da59:	e8 ee b1 ff ff       	callq  8c4c <safe_lshift_func_uint8_t_u_u>
    da5e:	be f2 ff ff ff       	mov    $0xfffffff2,%esi
    da63:	bf 81 ff ff ff       	mov    $0xffffff81,%edi
    da68:	e8 c4 a7 ff ff       	callq  8231 <safe_mod_func_int8_t_s_s>
    da6d:	83 e0 a6             	and    $0xffffffa6,%eax
    da70:	0f be c0             	movsbl %al,%eax
    da73:	be 03 00 00 00       	mov    $0x3,%esi
    da78:	89 c7                	mov    %eax,%edi
    da7a:	e8 6f a8 ff ff       	callq  82ee <safe_lshift_func_int8_t_s_u>
    da7f:	0f be c0             	movsbl %al,%eax
    da82:	89 85 1c f3 ff ff    	mov    %eax,-0xce4(%rbp)
    da88:	8b 95 1c f3 ff ff    	mov    -0xce4(%rbp),%edx
    da8e:	48 8b 85 40 e8 ff ff 	mov    -0x17c0(%rbp),%rax
    da95:	8b 00                	mov    (%rax),%eax
    da97:	09 c2                	or     %eax,%edx
    da99:	48 8b 85 40 e8 ff ff 	mov    -0x17c0(%rbp),%rax
    daa0:	89 10                	mov    %edx,(%rax)
    daa2:	48 8b 85 40 e8 ff ff 	mov    -0x17c0(%rbp),%rax
    daa9:	8b 10                	mov    (%rax),%edx
    daab:	8b 85 dc ea ff ff    	mov    -0x1524(%rbp),%eax
    dab1:	09 d0                	or     %edx,%eax
    dab3:	89 85 dc ea ff ff    	mov    %eax,-0x1524(%rbp)
    dab9:	eb 1d                	jmp    dad8 <func_1+0x4323>
    dabb:	48 8b 05 a6 e6 00 00 	mov    0xe6a6(%rip),%rax        # 1c168 <g_806>
    dac2:	8b 10                	mov    (%rax),%edx
    dac4:	48 8b 85 40 e8 ff ff 	mov    -0x17c0(%rbp),%rax
    dacb:	8b 00                	mov    (%rax),%eax
    dacd:	21 c2                	and    %eax,%edx
    dacf:	48 8b 85 40 e8 ff ff 	mov    -0x17c0(%rbp),%rax
    dad6:	89 10                	mov    %edx,(%rax)
    dad8:	0f b7 05 6f b5 00 00 	movzwl 0xb56f(%rip),%eax        # 1904e <g_52>
    dadf:	0f be c0             	movsbl %al,%eax
    dae2:	be 05 00 00 00       	mov    $0x5,%esi
    dae7:	89 c7                	mov    %eax,%edi
    dae9:	e8 e6 a6 ff ff       	callq  81d4 <safe_add_func_int8_t_s_s>
    daee:	66 98                	cbtw   
    daf0:	66 89 05 57 b5 00 00 	mov    %ax,0xb557(%rip)        # 1904e <g_52>
    daf7:	0f b7 05 50 b5 00 00 	movzwl 0xb550(%rip),%eax        # 1904e <g_52>
    dafe:	66 83 f8 16          	cmp    $0x16,%ax
    db02:	0f 86 2d fc ff ff    	jbe    d735 <func_1+0x3f80>
    db08:	48 8b 05 01 e2 00 00 	mov    0xe201(%rip),%rax        # 1bd10 <g_552>
    db0f:	48 8b 00             	mov    (%rax),%rax
    db12:	48 8b 00             	mov    (%rax),%rax
    db15:	e9 ef 29 00 00       	jmpq   10509 <func_1+0x6d54>
    db1a:	c6 05 87 be 00 00 05 	movb   $0x5,0xbe87(%rip)        # 199a8 <g_1477>
    db21:	e9 0c 01 00 00       	jmpq   dc32 <func_1+0x447d>
    db26:	48 8d 85 80 ed ff ff 	lea    -0x1280(%rbp),%rax
    db2d:	48 83 c0 24          	add    $0x24,%rax
    db31:	48 89 85 b8 e8 ff ff 	mov    %rax,-0x1748(%rbp)
    db38:	48 8d 05 19 76 00 00 	lea    0x7619(%rip),%rax        # 15158 <g_1532>
    db3f:	48 89 85 b0 e7 ff ff 	mov    %rax,-0x1850(%rbp)
    db46:	48 8d 85 b0 e7 ff ff 	lea    -0x1850(%rbp),%rax
    db4d:	48 89 85 b8 e7 ff ff 	mov    %rax,-0x1848(%rbp)
    db54:	48 8d 85 b8 e7 ff ff 	lea    -0x1848(%rbp),%rax
    db5b:	48 89 85 c0 e8 ff ff 	mov    %rax,-0x1740(%rbp)
    db62:	48 8b 85 b8 e8 ff ff 	mov    -0x1748(%rbp),%rax
    db69:	8b 00                	mov    (%rax),%eax
    db6b:	48 63 d8             	movslq %eax,%rbx
    db6e:	0f b6 05 34 be 00 00 	movzbl 0xbe34(%rip),%eax        # 199a9 <g_1533>
    db75:	0f b6 c0             	movzbl %al,%eax
    db78:	48 8b 95 c0 e8 ff ff 	mov    -0x1740(%rbp),%rdx
    db7f:	48 8d 0d ea e5 00 00 	lea    0xe5ea(%rip),%rcx        # 1c170 <g_1097>
    db86:	48 89 0a             	mov    %rcx,(%rdx)
    db89:	89 c6                	mov    %eax,%esi
    db8b:	bf 01 00 00 00       	mov    $0x1,%edi
    db90:	e8 e3 af ff ff       	callq  8b78 <safe_sub_func_uint8_t_u_u>
    db95:	8b 85 30 ed ff ff    	mov    -0x12d0(%rbp),%eax
    db9b:	85 c0                	test   %eax,%eax
    db9d:	75 0b                	jne    dbaa <func_1+0x43f5>
    db9f:	48 8b 85 b8 e8 ff ff 	mov    -0x1748(%rbp),%rax
    dba6:	8b 00                	mov    (%rax),%eax
    dba8:	85 c0                	test   %eax,%eax
    dbaa:	8b 85 dc ea ff ff    	mov    -0x1524(%rbp),%eax
    dbb0:	48 63 d0             	movslq %eax,%rdx
    dbb3:	48 8b 85 28 e8 ff ff 	mov    -0x17d8(%rbp),%rax
    dbba:	48 89 10             	mov    %rdx,(%rax)
    dbbd:	48 8b 85 28 e8 ff ff 	mov    -0x17d8(%rbp),%rax
    dbc4:	48 8b 00             	mov    (%rax),%rax
    dbc7:	89 c2                	mov    %eax,%edx
    dbc9:	48 8b 85 b8 e8 ff ff 	mov    -0x1748(%rbp),%rax
    dbd0:	8b 00                	mov    (%rax),%eax
    dbd2:	0f b6 c0             	movzbl %al,%eax
    dbd5:	89 d6                	mov    %edx,%esi
    dbd7:	89 c7                	mov    %eax,%edi
    dbd9:	e8 6e b0 ff ff       	callq  8c4c <safe_lshift_func_uint8_t_u_u>
    dbde:	0f b6 c0             	movzbl %al,%eax
    dbe1:	48 89 de             	mov    %rbx,%rsi
    dbe4:	48 89 c7             	mov    %rax,%rdi
    dbe7:	e8 55 ac ff ff       	callq  8841 <safe_add_func_int64_t_s_s>
    dbec:	0f b6 c0             	movzbl %al,%eax
    dbef:	be 04 00 00 00       	mov    $0x4,%esi
    dbf4:	89 c7                	mov    %eax,%edi
    dbf6:	e8 51 b0 ff ff       	callq  8c4c <safe_lshift_func_uint8_t_u_u>
    dbfb:	0f b6 d0             	movzbl %al,%edx
    dbfe:	48 8b 85 b8 e8 ff ff 	mov    -0x1748(%rbp),%rax
    dc05:	89 10                	mov    %edx,(%rax)
    dc07:	48 8b 85 b8 e8 ff ff 	mov    -0x1748(%rbp),%rax
    dc0e:	8b 00                	mov    (%rax),%eax
    dc10:	89 85 d0 ea ff ff    	mov    %eax,-0x1530(%rbp)
    dc16:	0f b6 05 8b bd 00 00 	movzbl 0xbd8b(%rip),%eax        # 199a8 <g_1477>
    dc1d:	0f b6 c0             	movzbl %al,%eax
    dc20:	be 01 00 00 00       	mov    $0x1,%esi
    dc25:	89 c7                	mov    %eax,%edi
    dc27:	e8 8a a9 ff ff       	callq  85b6 <safe_add_func_int32_t_s_s>
    dc2c:	88 05 76 bd 00 00    	mov    %al,0xbd76(%rip)        # 199a8 <g_1477>
    dc32:	0f b6 05 6f bd 00 00 	movzbl 0xbd6f(%rip),%eax        # 199a8 <g_1477>
    dc39:	3c 0e                	cmp    $0xe,%al
    dc3b:	0f 87 e5 fe ff ff    	ja     db26 <func_1+0x4371>
    dc41:	8b 05 f5 b3 00 00    	mov    0xb3f5(%rip),%eax        # 1903c <g_3+0xc>
    dc47:	be 04 00 00 00       	mov    $0x4,%esi
    dc4c:	89 c7                	mov    %eax,%edi
    dc4e:	e8 b2 a9 ff ff       	callq  8605 <safe_sub_func_int32_t_s_s>
    dc53:	89 05 e3 b3 00 00    	mov    %eax,0xb3e3(%rip)        # 1903c <g_3+0xc>
    dc59:	8b 05 dd b3 00 00    	mov    0xb3dd(%rip),%eax        # 1903c <g_3+0xc>
    dc5f:	83 f8 e6             	cmp    $0xffffffe6,%eax
    dc62:	0f 8c e2 bf ff ff    	jl     9c4a <func_1+0x495>
    dc68:	eb 01                	jmp    dc6b <func_1+0x44b6>
    dc6a:	90                   	nop
    dc6b:	c6 05 2c ba 00 00 00 	movb   $0x0,0xba2c(%rip)        # 1969e <g_223>
    dc72:	e9 76 28 00 00       	jmpq   104ed <func_1+0x6d38>
    dc77:	66 c7 85 ac e5 ff ff 	movw   $0xa6a6,-0x1a54(%rbp)
    dc7e:	a6 a6 
    dc80:	66 c7 85 ae e5 ff ff 	movw   $0x0,-0x1a52(%rbp)
    dc87:	00 00 
    dc89:	48 8d 05 14 bc 00 00 	lea    0xbc14(%rip),%rax        # 198a4 <g_1010>
    dc90:	48 89 85 40 e9 ff ff 	mov    %rax,-0x16c0(%rbp)
    dc97:	c7 85 d4 e5 ff ff ea 	movl   $0xc89200ea,-0x1a2c(%rbp)
    dc9e:	00 92 c8 
    dca1:	48 c7 85 a8 e7 ff ff 	movq   $0x0,-0x1858(%rbp)
    dca8:	00 00 00 00 
    dcac:	c7 85 3c e6 ff ff e6 	movl   $0x93f995e6,-0x19c4(%rbp)
    dcb3:	95 f9 93 
    dcb6:	48 8d 85 60 eb ff ff 	lea    -0x14a0(%rbp),%rax
    dcbd:	48 83 c0 28          	add    $0x28,%rax
    dcc1:	48 89 85 48 e9 ff ff 	mov    %rax,-0x16b8(%rbp)
    dcc8:	66 c7 85 b0 e5 ff ff 	movw   $0x0,-0x1a50(%rbp)
    dccf:	00 00 
    dcd1:	c7 85 b8 e6 ff ff ff 	movl   $0xffffffff,-0x1948(%rbp)
    dcd8:	ff ff ff 
    dcdb:	48 8d 05 66 b9 00 00 	lea    0xb966(%rip),%rax        # 19648 <g_131>
    dce2:	48 89 85 50 e9 ff ff 	mov    %rax,-0x16b0(%rbp)
    dce9:	66 c7 85 b2 e5 ff ff 	movw   $0x9b1f,-0x1a4e(%rbp)
    dcf0:	1f 9b 
    dcf2:	c7 85 bc e6 ff ff 97 	movl   $0x4a27ae97,-0x1944(%rbp)
    dcf9:	ae 27 4a 
    dcfc:	c7 85 c0 e6 ff ff 00 	movl   $0x0,-0x1940(%rbp)
    dd03:	00 00 00 
    dd06:	c7 85 40 e6 ff ff 05 	movl   $0x5,-0x19c0(%rbp)
    dd0d:	00 00 00 
    dd10:	48 8d 05 89 e4 00 00 	lea    0xe489(%rip),%rax        # 1c1a0 <g_1291+0x20>
    dd17:	48 89 85 58 e9 ff ff 	mov    %rax,-0x16a8(%rbp)
    dd1e:	c7 85 44 e6 ff ff 60 	movl   $0xf3991360,-0x19bc(%rbp)
    dd25:	13 99 f3 
    dd28:	c7 85 c4 e6 ff ff 09 	movl   $0x9,-0x193c(%rbp)
    dd2f:	00 00 00 
    dd32:	c7 85 c8 e6 ff ff be 	movl   $0xc03f44be,-0x1938(%rbp)
    dd39:	44 3f c0 
    dd3c:	c7 85 cc e6 ff ff f6 	movl   $0xfffffff6,-0x1934(%rbp)
    dd43:	ff ff ff 
    dd46:	c7 85 d0 e6 ff ff a1 	movl   $0x975738a1,-0x1930(%rbp)
    dd4d:	38 57 97 
    dd50:	c7 85 98 e7 ff ff fa 	movl   $0xfffffffa,-0x1868(%rbp)
    dd57:	ff ff ff 
    dd5a:	c7 85 a0 eb ff ff 81 	movl   $0x24cce881,-0x1460(%rbp)
    dd61:	e8 cc 24 
    dd64:	c7 85 a4 eb ff ff 07 	movl   $0xfe413b07,-0x145c(%rbp)
    dd6b:	3b 41 fe 
    dd6e:	c7 85 a8 eb ff ff 0a 	movl   $0x3406b20a,-0x1458(%rbp)
    dd75:	b2 06 34 
    dd78:	c7 85 ac eb ff ff 07 	movl   $0xfe413b07,-0x1454(%rbp)
    dd7f:	3b 41 fe 
    dd82:	c7 85 b0 eb ff ff 81 	movl   $0x24cce881,-0x1450(%rbp)
    dd89:	e8 cc 24 
    dd8c:	c7 85 b4 eb ff ff 0a 	movl   $0x3406b20a,-0x144c(%rbp)
    dd93:	b2 06 34 
    dd96:	c7 85 b8 eb ff ff 00 	movl   $0x0,-0x1448(%rbp)
    dd9d:	00 00 00 
    dda0:	c7 85 bc eb ff ff 00 	movl   $0x0,-0x1444(%rbp)
    dda7:	00 00 00 
    ddaa:	c7 85 c0 eb ff ff 00 	movl   $0x0,-0x1440(%rbp)
    ddb1:	00 00 00 
    ddb4:	c7 85 c4 eb ff ff 0a 	movl   $0x3406b20a,-0x143c(%rbp)
    ddbb:	b2 06 34 
    ddbe:	c7 85 d4 e6 ff ff 03 	movl   $0x90c1ef03,-0x192c(%rbp)
    ddc5:	ef c1 90 
    ddc8:	c6 85 81 e5 ff ff e0 	movb   $0xe0,-0x1a7f(%rbp)
    ddcf:	c6 85 82 e5 ff ff 60 	movb   $0x60,-0x1a7e(%rbp)
    ddd6:	c7 85 48 e6 ff ff f8 	movl   $0xfffffff8,-0x19b8(%rbp)
    dddd:	ff ff ff 
    dde0:	48 c7 85 60 e9 ff ff 	movq   $0x0,-0x16a0(%rbp)
    dde7:	00 00 00 00 
    ddeb:	48 8d 05 be ed 00 00 	lea    0xedbe(%rip),%rax        # 1cbb0 <g_225>
    ddf2:	48 89 85 68 e9 ff ff 	mov    %rax,-0x1698(%rbp)
    ddf9:	c7 85 d8 e6 ff ff 01 	movl   $0x1,-0x1928(%rbp)
    de00:	00 00 00 
    de03:	48 b8 c9 3d e5 f7 d4 	movabs $0x803a0d4f7e53dc9,%rax
    de0a:	a0 03 08 
    de0d:	48 89 85 70 e9 ff ff 	mov    %rax,-0x1690(%rbp)
    de14:	c7 85 dc e6 ff ff 1a 	movl   $0x6c6bb81a,-0x1924(%rbp)
    de1b:	b8 6b 6c 
    de1e:	c6 85 d0 e5 ff ff 53 	movb   $0x53,-0x1a30(%rbp)
    de25:	48 8d 05 ec ed 00 00 	lea    0xedec(%rip),%rax        # 1cc18 <g_1403>
    de2c:	48 89 85 78 e9 ff ff 	mov    %rax,-0x1688(%rbp)
    de33:	c6 85 83 e5 ff ff 00 	movb   $0x0,-0x1a7d(%rbp)
    de3a:	c7 85 e0 e6 ff ff 82 	movl   $0x89ff1a82,-0x1920(%rbp)
    de41:	1a ff 89 
    de44:	c7 85 e4 e6 ff ff 03 	movl   $0x3,-0x191c(%rbp)
    de4b:	00 00 00 
    de4e:	c7 85 4c e6 ff ff 00 	movl   $0x0,-0x19b4(%rbp)
    de55:	00 00 00 
    de58:	eb 1b                	jmp    de75 <func_1+0x46c0>
    de5a:	8b 85 4c e6 ff ff    	mov    -0x19b4(%rbp),%eax
    de60:	48 98                	cltq   
    de62:	48 c7 84 c5 e0 eb ff 	movq   $0xffffffffffffffff,-0x1420(%rbp,%rax,8)
    de69:	ff ff ff ff ff 
    de6e:	83 85 4c e6 ff ff 01 	addl   $0x1,-0x19b4(%rbp)
    de75:	83 bd 4c e6 ff ff 04 	cmpl   $0x4,-0x19b4(%rbp)
    de7c:	7e dc                	jle    de5a <func_1+0x46a5>
    de7e:	c7 85 4c e6 ff ff 00 	movl   $0x0,-0x19b4(%rbp)
    de85:	00 00 00 
    de88:	eb 19                	jmp    dea3 <func_1+0x46ee>
    de8a:	8b 85 4c e6 ff ff    	mov    -0x19b4(%rbp),%eax
    de90:	48 98                	cltq   
    de92:	66 c7 84 45 94 ea ff 	movw   $0x0,-0x156c(%rbp,%rax,2)
    de99:	ff 00 00 
    de9c:	83 85 4c e6 ff ff 01 	addl   $0x1,-0x19b4(%rbp)
    dea3:	83 bd 4c e6 ff ff 01 	cmpl   $0x1,-0x19b4(%rbp)
    deaa:	7e de                	jle    de8a <func_1+0x46d5>
    deac:	48 8b 05 b5 e2 00 00 	mov    0xe2b5(%rip),%rax        # 1c168 <g_806>
    deb3:	0f bf 95 ac e5 ff ff 	movswl -0x1a54(%rbp),%edx
    deba:	89 10                	mov    %edx,(%rax)
    debc:	48 c7 85 f8 e7 ff ff 	movq   $0x0,-0x1808(%rbp)
    dec3:	00 00 00 00 
    dec7:	48 83 bd f8 e7 ff ff 	cmpq   $0x13,-0x1808(%rbp)
    dece:	13 
    decf:	0f 87 07 0a 00 00    	ja     e8dc <func_1+0x5127>
    ded5:	48 b8 b7 6e 28 c9 e3 	movabs $0x39436de3c9286eb7,%rax
    dedc:	6d 43 39 
    dedf:	48 89 85 30 ea ff ff 	mov    %rax,-0x15d0(%rbp)
    dee6:	c7 85 2c e6 ff ff 3e 	movl   $0x7895383e,-0x19d4(%rbp)
    deed:	38 95 78 
    def0:	c7 85 0c e6 ff ff 08 	movl   $0x8,-0x19f4(%rbp)
    def7:	00 00 00 
    defa:	c7 85 64 e7 ff ff 07 	movl   $0x7,-0x189c(%rbp)
    df01:	00 00 00 
    df04:	c7 85 68 e7 ff ff cc 	movl   $0x252c21cc,-0x1898(%rbp)
    df0b:	21 2c 25 
    df0e:	c7 85 a0 e7 ff ff 98 	movl   $0xda139d98,-0x1860(%rbp)
    df15:	9d 13 da 
    df18:	48 c7 85 38 ea ff ff 	movq   $0x0,-0x15c8(%rbp)
    df1f:	00 00 00 00 
    df23:	48 8d 85 00 f8 ff ff 	lea    -0x800(%rbp),%rax
    df2a:	48 8d 15 af c7 00 00 	lea    0xc7af(%rip),%rdx        # 1a6e0 <g_2195+0xbb0>
    df31:	b9 8c 00 00 00       	mov    $0x8c,%ecx
    df36:	48 89 c7             	mov    %rax,%rdi
    df39:	48 89 d6             	mov    %rdx,%rsi
    df3c:	f3 48 a5             	rep movsq %ds:(%rsi),%es:(%rdi)
    df3f:	48 c7 05 46 b7 00 00 	movq   $0x0,0xb746(%rip)        # 19690 <g_192>
    df46:	00 00 00 00 
    df4a:	e9 6f 09 00 00       	jmpq   e8be <func_1+0x5109>
    df4f:	48 8d 05 ea db 00 00 	lea    0xdbea(%rip),%rax        # 1bb40 <g_454+0x60>
    df56:	48 89 85 40 ea ff ff 	mov    %rax,-0x15c0(%rbp)
    df5d:	c7 85 00 eb ff ff 00 	movl   $0x0,-0x1500(%rbp)
    df64:	00 00 00 
    df67:	c7 85 04 eb ff ff 00 	movl   $0x0,-0x14fc(%rbp)
    df6e:	00 00 00 
    df71:	c7 85 08 eb ff ff 00 	movl   $0x0,-0x14f8(%rbp)
    df78:	00 00 00 
    df7b:	c7 85 0c eb ff ff 00 	movl   $0x0,-0x14f4(%rbp)
    df82:	00 00 00 
    df85:	c7 85 10 eb ff ff 00 	movl   $0x0,-0x14f0(%rbp)
    df8c:	00 00 00 
    df8f:	48 8d 05 05 b7 00 00 	lea    0xb705(%rip),%rax        # 1969b <g_207+0x3>
    df96:	48 89 85 48 ea ff ff 	mov    %rax,-0x15b8(%rbp)
    df9d:	c7 85 6c e7 ff ff ca 	movl   $0x786b5fca,-0x1894(%rbp)
    dfa4:	5f 6b 78 
    dfa7:	48 8d 05 8a ec 00 00 	lea    0xec8a(%rip),%rax        # 1cc38 <g_1588+0x8>
    dfae:	48 89 85 30 ec ff ff 	mov    %rax,-0x13d0(%rbp)
    dfb5:	48 8d 05 7c ec 00 00 	lea    0xec7c(%rip),%rax        # 1cc38 <g_1588+0x8>
    dfbc:	48 89 85 38 ec ff ff 	mov    %rax,-0x13c8(%rbp)
    dfc3:	48 8d 05 6e ec 00 00 	lea    0xec6e(%rip),%rax        # 1cc38 <g_1588+0x8>
    dfca:	48 89 85 40 ec ff ff 	mov    %rax,-0x13c0(%rbp)
    dfd1:	48 8d 05 60 ec 00 00 	lea    0xec60(%rip),%rax        # 1cc38 <g_1588+0x8>
    dfd8:	48 89 85 48 ec ff ff 	mov    %rax,-0x13b8(%rbp)
    dfdf:	48 8d 05 52 ec 00 00 	lea    0xec52(%rip),%rax        # 1cc38 <g_1588+0x8>
    dfe6:	48 89 85 50 ec ff ff 	mov    %rax,-0x13b0(%rbp)
    dfed:	48 8d 05 50 b0 00 00 	lea    0xb050(%rip),%rax        # 19044 <g_3+0x14>
    dff4:	48 89 85 50 ea ff ff 	mov    %rax,-0x15b0(%rbp)
    dffb:	c6 85 8c e5 ff ff ff 	movb   $0xff,-0x1a74(%rbp)
    e002:	48 c7 85 58 ea ff ff 	movq   $0x0,-0x15a8(%rbp)
    e009:	00 00 00 00 
    e00d:	b8 ef 46 92 e9       	mov    $0xe99246ef,%eax
    e012:	0f b6 d8             	movzbl %al,%ebx
    e015:	48 8d 05 3c dc 00 00 	lea    0xdc3c(%rip),%rax        # 1bc58 <g_454+0x178>
    e01c:	48 39 85 40 ea ff ff 	cmp    %rax,-0x15c0(%rbp)
    e023:	0f 95 c0             	setne  %al
    e026:	44 0f b6 f0          	movzbl %al,%r14d
    e02a:	44 0f bf a5 ac e5 ff 	movswl -0x1a54(%rbp),%r12d
    e031:	ff 
    e032:	be 0f 00 00 00       	mov    $0xf,%esi
    e037:	bf ff ff 00 00       	mov    $0xffff,%edi
    e03c:	e8 07 ae ff ff       	callq  8e48 <safe_rshift_func_uint16_t_u_s>
    e041:	44 0f b7 f8          	movzwl %ax,%r15d
    e045:	8b 85 10 eb ff ff    	mov    -0x14f0(%rbp),%eax
    e04b:	98                   	cwtl   
    e04c:	89 c6                	mov    %eax,%esi
    e04e:	bf 08 3b 00 00       	mov    $0x3b08,%edi
    e053:	e8 7b a3 ff ff       	callq  83d3 <safe_sub_func_int16_t_s_s>
    e058:	8b 85 10 eb ff ff    	mov    -0x14f0(%rbp),%eax
    e05e:	0f be c0             	movsbl %al,%eax
    e061:	be 03 00 00 00       	mov    $0x3,%esi
    e066:	89 c7                	mov    %eax,%edi
    e068:	e8 34 a2 ff ff       	callq  82a1 <safe_lshift_func_int8_t_s_s>
    e06d:	44 0f b6 e8          	movzbl %al,%r13d
    e071:	8b 85 10 eb ff ff    	mov    -0x14f0(%rbp),%eax
    e077:	0f b7 c0             	movzwl %ax,%eax
    e07a:	be 02 00 00 00       	mov    $0x2,%esi
    e07f:	89 c7                	mov    %eax,%edi
    e081:	e8 c2 ad ff ff       	callq  8e48 <safe_rshift_func_uint16_t_u_s>
    e086:	89 c2                	mov    %eax,%edx
    e088:	48 8b 85 48 ea ff ff 	mov    -0x15b8(%rbp),%rax
    e08f:	88 10                	mov    %dl,(%rax)
    e091:	48 8b 85 48 ea ff ff 	mov    -0x15b8(%rbp),%rax
    e098:	0f b6 00             	movzbl (%rax),%eax
    e09b:	0f b6 c0             	movzbl %al,%eax
    e09e:	44 89 ee             	mov    %r13d,%esi
    e0a1:	89 c7                	mov    %eax,%edi
    e0a3:	e8 33 ab ff ff       	callq  8bdb <safe_div_func_uint8_t_u_u>
    e0a8:	48 8b 05 b9 e0 00 00 	mov    0xe0b9(%rip),%rax        # 1c168 <g_806>
    e0af:	8b 10                	mov    (%rax),%edx
    e0b1:	8b 85 04 eb ff ff    	mov    -0x14fc(%rbp),%eax
    e0b7:	39 c2                	cmp    %eax,%edx
    e0b9:	7d 07                	jge    e0c2 <func_1+0x490d>
    e0bb:	b8 01 00 00 00       	mov    $0x1,%eax
    e0c0:	eb 05                	jmp    e0c7 <func_1+0x4912>
    e0c2:	b8 00 00 00 00       	mov    $0x0,%eax
    e0c7:	84 c0                	test   %al,%al
    e0c9:	75 0a                	jne    e0d5 <func_1+0x4920>
    e0cb:	8b 85 10 eb ff ff    	mov    -0x14f0(%rbp),%eax
    e0d1:	85 c0                	test   %eax,%eax
    e0d3:	74 07                	je     e0dc <func_1+0x4927>
    e0d5:	ba 01 00 00 00       	mov    $0x1,%edx
    e0da:	eb 05                	jmp    e0e1 <func_1+0x492c>
    e0dc:	ba 00 00 00 00       	mov    $0x0,%edx
    e0e1:	8b 85 0c eb ff ff    	mov    -0x14f4(%rbp),%eax
    e0e7:	39 c2                	cmp    %eax,%edx
    e0e9:	0f 9c c0             	setl   %al
    e0ec:	0f b6 c0             	movzbl %al,%eax
    e0ef:	41 39 c7             	cmp    %eax,%r15d
    e0f2:	0f 95 c0             	setne  %al
    e0f5:	0f b6 c0             	movzbl %al,%eax
    e0f8:	44 89 e6             	mov    %r12d,%esi
    e0fb:	89 c7                	mov    %eax,%edi
    e0fd:	e8 78 ad ff ff       	callq  8e7a <safe_rshift_func_uint16_t_u_u>
    e102:	0f b7 c0             	movzwl %ax,%eax
    e105:	41 39 c6             	cmp    %eax,%r14d
    e108:	0f 9e c0             	setle  %al
    e10b:	0f b6 c0             	movzbl %al,%eax
    e10e:	89 de                	mov    %ebx,%esi
    e110:	89 c7                	mov    %eax,%edi
    e112:	e8 97 aa ff ff       	callq  8bae <safe_mod_func_uint8_t_u_u>
    e117:	66 81 bd ac e5 ff ff 	cmpw   $0xd1,-0x1a54(%rbp)
    e11e:	d1 00 
    e120:	0f 8e bb 01 00 00    	jle    e2e1 <func_1+0x4b2c>
    e126:	48 8d 05 f3 ea 00 00 	lea    0xeaf3(%rip),%rax        # 1cc20 <g_1565>
    e12d:	48 89 85 b0 e7 ff ff 	mov    %rax,-0x1850(%rbp)
    e134:	48 8d 85 b0 e7 ff ff 	lea    -0x1850(%rbp),%rax
    e13b:	48 89 85 b8 e7 ff ff 	mov    %rax,-0x1848(%rbp)
    e142:	48 8d 85 b8 e7 ff ff 	lea    -0x1848(%rbp),%rax
    e149:	48 89 85 78 ea ff ff 	mov    %rax,-0x1588(%rbp)
    e150:	48 c7 85 80 ea ff ff 	movq   $0x0,-0x1580(%rbp)
    e157:	00 00 00 00 
    e15b:	48 8d 05 6a b5 00 00 	lea    0xb56a(%rip),%rax        # 196cc <g_318>
    e162:	48 89 85 00 f3 ff ff 	mov    %rax,-0xd00(%rbp)
    e169:	48 8d 05 5c b5 00 00 	lea    0xb55c(%rip),%rax        # 196cc <g_318>
    e170:	48 89 85 08 f3 ff ff 	mov    %rax,-0xcf8(%rbp)
    e177:	48 8d 05 4e b5 00 00 	lea    0xb54e(%rip),%rax        # 196cc <g_318>
    e17e:	48 89 85 10 f3 ff ff 	mov    %rax,-0xcf0(%rbp)
    e185:	48 8d 05 40 b5 00 00 	lea    0xb540(%rip),%rax        # 196cc <g_318>
    e18c:	48 89 85 18 f3 ff ff 	mov    %rax,-0xce8(%rbp)
    e193:	48 8d 05 32 b5 00 00 	lea    0xb532(%rip),%rax        # 196cc <g_318>
    e19a:	48 89 85 20 f3 ff ff 	mov    %rax,-0xce0(%rbp)
    e1a1:	48 8d 05 24 b5 00 00 	lea    0xb524(%rip),%rax        # 196cc <g_318>
    e1a8:	48 89 85 28 f3 ff ff 	mov    %rax,-0xcd8(%rbp)
    e1af:	48 8d 05 16 b5 00 00 	lea    0xb516(%rip),%rax        # 196cc <g_318>
    e1b6:	48 89 85 30 f3 ff ff 	mov    %rax,-0xcd0(%rbp)
    e1bd:	48 8d 85 00 f3 ff ff 	lea    -0xd00(%rbp),%rax
    e1c4:	48 89 85 88 ea ff ff 	mov    %rax,-0x1578(%rbp)
    e1cb:	8b 85 08 eb ff ff    	mov    -0x14f8(%rbp),%eax
    e1d1:	0f be d8             	movsbl %al,%ebx
    e1d4:	48 8b 05 0d b7 00 00 	mov    0xb70d(%rip),%rax        # 198e8 <g_1072+0x28>
    e1db:	48 c1 e8 30          	shr    $0x30,%rax
    e1df:	48 89 c2             	mov    %rax,%rdx
    e1e2:	48 8b 05 07 b7 00 00 	mov    0xb707(%rip),%rax        # 198f0 <g_1072+0x30>
    e1e9:	83 e0 1f             	and    $0x1f,%eax
    e1ec:	48 c1 e0 10          	shl    $0x10,%rax
    e1f0:	48 09 d0             	or     %rdx,%rax
    e1f3:	be 01 00 00 00       	mov    $0x1,%esi
    e1f8:	89 c7                	mov    %eax,%edi
    e1fa:	e8 26 ad ff ff       	callq  8f25 <safe_div_func_uint32_t_u_u>
    e1ff:	0f be c0             	movsbl %al,%eax
    e202:	89 de                	mov    %ebx,%esi
    e204:	89 c7                	mov    %eax,%edi
    e206:	e8 c9 9f ff ff       	callq  81d4 <safe_add_func_int8_t_s_s>
    e20b:	84 c0                	test   %al,%al
    e20d:	74 11                	je     e220 <func_1+0x4a6b>
    e20f:	48 83 bd 30 ea ff ff 	cmpq   $0x0,-0x15d0(%rbp)
    e216:	00 
    e217:	74 07                	je     e220 <func_1+0x4a6b>
    e219:	b8 01 00 00 00       	mov    $0x1,%eax
    e21e:	eb 05                	jmp    e225 <func_1+0x4a70>
    e220:	b8 00 00 00 00       	mov    $0x0,%eax
    e225:	89 c3                	mov    %eax,%ebx
    e227:	48 8d 05 72 da 00 00 	lea    0xda72(%rip),%rax        # 1bca0 <g_529>
    e22e:	48 89 05 cb e9 00 00 	mov    %rax,0xe9cb(%rip)        # 1cc00 <g_1046>
    e235:	48 8b 85 78 ea ff ff 	mov    -0x1588(%rbp),%rax
    e23c:	48 8d 15 5d da 00 00 	lea    0xda5d(%rip),%rdx        # 1bca0 <g_529>
    e243:	48 89 10             	mov    %rdx,(%rax)
    e246:	48 8b 85 78 ea ff ff 	mov    -0x1588(%rbp),%rax
    e24d:	48 8b 00             	mov    (%rax),%rax
    e250:	48 8d 15 49 da 00 00 	lea    0xda49(%rip),%rdx        # 1bca0 <g_529>
    e257:	48 39 d0             	cmp    %rdx,%rax
    e25a:	74 5c                	je     e2b8 <func_1+0x4b03>
    e25c:	48 83 bd e8 e7 ff ff 	cmpq   $0x0,-0x1818(%rbp)
    e263:	00 
    e264:	0f 95 c0             	setne  %al
    e267:	0f b6 d0             	movzbl %al,%edx
    e26a:	0f bf 85 ac e5 ff ff 	movswl -0x1a54(%rbp),%eax
    e271:	21 d0                	and    %edx,%eax
    e273:	41 89 c4             	mov    %eax,%r12d
    e276:	bf 00 00 00 00       	mov    $0x0,%edi
    e27b:	e8 99 ad ff ff       	callq  9019 <safe_unary_minus_func_uint64_t_u>
    e280:	44 89 e6             	mov    %r12d,%esi
    e283:	89 c7                	mov    %eax,%edi
    e285:	e8 2e ac ff ff       	callq  8eb8 <safe_add_func_uint32_t_u_u>
    e28a:	48 8b 95 00 f3 ff ff 	mov    -0xd00(%rbp),%rdx
    e291:	48 8b 85 88 ea ff ff 	mov    -0x1578(%rbp),%rax
    e298:	48 89 10             	mov    %rdx,(%rax)
    e29b:	48 8b 85 88 ea ff ff 	mov    -0x1578(%rbp),%rax
    e2a2:	48 8b 00             	mov    (%rax),%rax
    e2a5:	48 8d 15 08 b4 00 00 	lea    0xb408(%rip),%rdx        # 196b4 <g_241+0x14>
    e2ac:	48 39 d0             	cmp    %rdx,%rax
    e2af:	74 07                	je     e2b8 <func_1+0x4b03>
    e2b1:	b8 01 00 00 00       	mov    $0x1,%eax
    e2b6:	eb 05                	jmp    e2bd <func_1+0x4b08>
    e2b8:	b8 00 00 00 00       	mov    $0x0,%eax
    e2bd:	89 de                	mov    %ebx,%esi
    e2bf:	89 c7                	mov    %eax,%edi
    e2c1:	e8 5f ac ff ff       	callq  8f25 <safe_div_func_uint32_t_u_u>
    e2c6:	8b 95 6c e7 ff ff    	mov    -0x1894(%rbp),%edx
    e2cc:	21 d0                	and    %edx,%eax
    e2ce:	89 85 6c e7 ff ff    	mov    %eax,-0x1894(%rbp)
    e2d4:	8b 85 6c e7 ff ff    	mov    -0x1894(%rbp),%eax
    e2da:	48 98                	cltq   
    e2dc:	e9 28 22 00 00       	jmpq   10509 <func_1+0x6d54>
    e2e1:	48 8d 05 10 df 00 00 	lea    0xdf10(%rip),%rax        # 1c1f8 <g_1587>
    e2e8:	48 89 85 60 ea ff ff 	mov    %rax,-0x15a0(%rbp)
    e2ef:	c7 85 b8 e7 ff ff d3 	movl   $0x9a7897d3,-0x1848(%rbp)
    e2f6:	97 78 9a 
    e2f9:	48 8d 05 50 b3 00 00 	lea    0xb350(%rip),%rax        # 19650 <g_142>
    e300:	48 89 85 68 ea ff ff 	mov    %rax,-0x1598(%rbp)
    e307:	48 c7 85 70 ea ff ff 	movq   $0x0,-0x1590(%rbp)
    e30e:	00 00 00 00 
    e312:	48 8d 85 00 f3 ff ff 	lea    -0xd00(%rbp),%rax
    e319:	48 8d 15 40 72 00 00 	lea    0x7240(%rip),%rdx        # 15560 <g_1636+0x370>
    e320:	b9 2d 00 00 00       	mov    $0x2d,%ecx
    e325:	48 89 c7             	mov    %rax,%rdi
    e328:	48 89 d6             	mov    %rdx,%rsi
    e32b:	f3 48 a5             	rep movsq %ds:(%rsi),%es:(%rdi)
    e32e:	48 8d 05 ff b0 00 00 	lea    0xb0ff(%rip),%rax        # 19434 <g_66+0x1d4>
    e335:	48 89 85 e0 ec ff ff 	mov    %rax,-0x1320(%rbp)
    e33c:	48 8d 05 f1 b0 00 00 	lea    0xb0f1(%rip),%rax        # 19434 <g_66+0x1d4>
    e343:	48 89 85 e8 ec ff ff 	mov    %rax,-0x1318(%rbp)
    e34a:	48 8d 05 e3 b0 00 00 	lea    0xb0e3(%rip),%rax        # 19434 <g_66+0x1d4>
    e351:	48 89 85 f0 ec ff ff 	mov    %rax,-0x1310(%rbp)
    e358:	48 8d 05 d5 b0 00 00 	lea    0xb0d5(%rip),%rax        # 19434 <g_66+0x1d4>
    e35f:	48 89 85 f8 ec ff ff 	mov    %rax,-0x1308(%rbp)
    e366:	48 8d 05 c7 b0 00 00 	lea    0xb0c7(%rip),%rax        # 19434 <g_66+0x1d4>
    e36d:	48 89 85 00 ed ff ff 	mov    %rax,-0x1300(%rbp)
    e374:	48 8d 05 b9 b0 00 00 	lea    0xb0b9(%rip),%rax        # 19434 <g_66+0x1d4>
    e37b:	48 89 85 08 ed ff ff 	mov    %rax,-0x12f8(%rbp)
    e382:	48 c7 85 80 ed ff ff 	movq   $0x0,-0x1280(%rbp)
    e389:	00 00 00 00 
    e38d:	48 c7 85 88 ed ff ff 	movq   $0x0,-0x1278(%rbp)
    e394:	00 00 00 00 
    e398:	48 c7 85 90 ed ff ff 	movq   $0x0,-0x1270(%rbp)
    e39f:	00 00 00 00 
    e3a3:	48 c7 85 98 ed ff ff 	movq   $0x0,-0x1268(%rbp)
    e3aa:	00 00 00 00 
    e3ae:	48 c7 85 a0 ed ff ff 	movq   $0x0,-0x1260(%rbp)
    e3b5:	00 00 00 00 
    e3b9:	48 c7 85 a8 ed ff ff 	movq   $0x0,-0x1258(%rbp)
    e3c0:	00 00 00 00 
    e3c4:	8b 85 b8 e7 ff ff    	mov    -0x1848(%rbp),%eax
    e3ca:	48 63 d8             	movslq %eax,%rbx
    e3cd:	44 0f bf a5 ac e5 ff 	movswl -0x1a54(%rbp),%r12d
    e3d4:	ff 
    e3d5:	8b 05 09 b5 00 00    	mov    0xb509(%rip),%eax        # 198e4 <g_1072+0x24>
    e3db:	c1 e8 09             	shr    $0x9,%eax
    e3de:	66 25 ff 03          	and    $0x3ff,%ax
    e3e2:	0f b7 d0             	movzwl %ax,%edx
    e3e5:	48 8b 05 1c de 00 00 	mov    0xde1c(%rip),%rax        # 1c208 <g_1597+0x8>
    e3ec:	48 8d 0d 9d e7 00 00 	lea    0xe79d(%rip),%rcx        # 1cb90 <g_101>
    e3f3:	48 39 c8             	cmp    %rcx,%rax
    e3f6:	0f 95 c0             	setne  %al
    e3f9:	0f b6 c0             	movzbl %al,%eax
    e3fc:	89 d6                	mov    %edx,%esi
    e3fe:	89 c7                	mov    %eax,%edi
    e400:	e8 fa a8 ff ff       	callq  8cff <safe_add_func_uint16_t_u_u>
    e405:	0f b7 c0             	movzwl %ax,%eax
    e408:	41 39 c4             	cmp    %eax,%r12d
    e40b:	0f 95 c0             	setne  %al
    e40e:	44 0f b6 e0          	movzbl %al,%r12d
    e412:	8b 85 b8 e7 ff ff    	mov    -0x1848(%rbp),%eax
    e418:	0f b7 d0             	movzwl %ax,%edx
    e41b:	48 8b 85 30 ea ff ff 	mov    -0x15d0(%rbp),%rax
    e422:	0f b7 c0             	movzwl %ax,%eax
    e425:	89 d6                	mov    %edx,%esi
    e427:	89 c7                	mov    %eax,%edi
    e429:	e8 d1 a8 ff ff       	callq  8cff <safe_add_func_uint16_t_u_u>
    e42e:	0f b7 c0             	movzwl %ax,%eax
    e431:	41 39 c4             	cmp    %eax,%r12d
    e434:	0f 9c c0             	setl   %al
    e437:	0f b6 c0             	movzbl %al,%eax
    e43a:	48 89 de             	mov    %rbx,%rsi
    e43d:	48 89 c7             	mov    %rax,%rdi
    e440:	e8 e9 ab ff ff       	callq  902e <safe_add_func_uint64_t_u_u>
    e445:	83 c8 81             	or     $0xffffff81,%eax
    e448:	0f be c0             	movsbl %al,%eax
    e44b:	be f6 ff ff ff       	mov    $0xfffffff6,%esi
    e450:	89 c7                	mov    %eax,%edi
    e452:	e8 13 9e ff ff       	callq  826a <safe_div_func_int8_t_s_s>
    e457:	48 8b 15 9a dd 00 00 	mov    0xdd9a(%rip),%rdx        # 1c1f8 <g_1587>
    e45e:	48 8b 85 60 ea ff ff 	mov    -0x15a0(%rbp),%rax
    e465:	48 89 10             	mov    %rdx,(%rax)
    e468:	48 8b 85 60 ea ff ff 	mov    -0x15a0(%rbp),%rax
    e46f:	48 8b 10             	mov    (%rax),%rdx
    e472:	48 8b 85 50 ec ff ff 	mov    -0x13b0(%rbp),%rax
    e479:	48 39 c2             	cmp    %rax,%rdx
    e47c:	0f 94 c0             	sete   %al
    e47f:	89 c2                	mov    %eax,%edx
    e481:	8b 85 0c eb ff ff    	mov    -0x14f4(%rbp),%eax
    e487:	31 d0                	xor    %edx,%eax
    e489:	0f b6 c0             	movzbl %al,%eax
    e48c:	be 02 00 00 00       	mov    $0x2,%esi
    e491:	89 c7                	mov    %eax,%edi
    e493:	e8 26 a8 ff ff       	callq  8cbe <safe_rshift_func_uint8_t_u_u>
    e498:	3c 09                	cmp    $0x9,%al
    e49a:	0f 95 c0             	setne  %al
    e49d:	0f b6 c0             	movzbl %al,%eax
    e4a0:	09 85 6c e7 ff ff    	or     %eax,-0x1894(%rbp)
    e4a6:	48 8d 85 b8 e7 ff ff 	lea    -0x1848(%rbp),%rax
    e4ad:	48 89 85 50 ea ff ff 	mov    %rax,-0x15b0(%rbp)
    e4b4:	48 8b 85 50 ea ff ff 	mov    -0x15b0(%rbp),%rax
    e4bb:	48 89 85 68 ea ff ff 	mov    %rax,-0x1598(%rbp)
    e4c2:	48 8b 85 40 e9 ff ff 	mov    -0x16c0(%rbp),%rax
    e4c9:	48 89 85 f0 ea ff ff 	mov    %rax,-0x1510(%rbp)
    e4d0:	48 8b 05 49 dd 00 00 	mov    0xdd49(%rip),%rax        # 1c220 <g_1611>
    e4d7:	48 8b 95 f0 ea ff ff 	mov    -0x1510(%rbp),%rdx
    e4de:	48 89 10             	mov    %rdx,(%rax)
    e4e1:	c7 85 b8 e7 ff ff ea 	movl   $0xffffffea,-0x1848(%rbp)
    e4e8:	ff ff ff 
    e4eb:	eb 1e                	jmp    e50b <func_1+0x4d56>
    e4ed:	48 8b 05 bc dc 00 00 	mov    0xdcbc(%rip),%rax        # 1c1b0 <g_1348>
    e4f4:	8b 00                	mov    (%rax),%eax
    e4f6:	89 85 20 f4 ff ff    	mov    %eax,-0xbe0(%rbp)
    e4fc:	8b 85 b8 e7 ff ff    	mov    -0x1848(%rbp),%eax
    e502:	83 c0 01             	add    $0x1,%eax
    e505:	89 85 b8 e7 ff ff    	mov    %eax,-0x1848(%rbp)
    e50b:	8b 85 b8 e7 ff ff    	mov    -0x1848(%rbp),%eax
    e511:	83 f8 fc             	cmp    $0xfffffffc,%eax
    e514:	7c d7                	jl     e4ed <func_1+0x4d38>
    e516:	8b 85 64 e7 ff ff    	mov    -0x189c(%rbp),%eax
    e51c:	98                   	cwtl   
    e51d:	89 85 68 e5 ff ff    	mov    %eax,-0x1a98(%rbp)
    e523:	48 8b 85 50 ea ff ff 	mov    -0x15b0(%rbp),%rax
    e52a:	8b 00                	mov    (%rax),%eax
    e52c:	89 85 60 e5 ff ff    	mov    %eax,-0x1aa0(%rbp)
    e532:	48 8b 85 50 ea ff ff 	mov    -0x15b0(%rbp),%rax
    e539:	8b 18                	mov    (%rax),%ebx
    e53b:	48 8b 85 68 ea ff ff 	mov    -0x1598(%rbp),%rax
    e542:	44 8b 20             	mov    (%rax),%r12d
    e545:	48 8b 85 50 ea ff ff 	mov    -0x15b0(%rbp),%rax
    e54c:	44 8b 38             	mov    (%rax),%r15d
    e54f:	48 8b 85 68 ea ff ff 	mov    -0x1598(%rbp),%rax
    e556:	8b 10                	mov    (%rax),%edx
    e558:	48 8b 85 40 e9 ff ff 	mov    -0x16c0(%rbp),%rax
    e55f:	8b 00                	mov    (%rax),%eax
    e561:	39 c2                	cmp    %eax,%edx
    e563:	0f 95 c0             	setne  %al
    e566:	89 c2                	mov    %eax,%edx
    e568:	48 8b 85 48 ea ff ff 	mov    -0x15b8(%rbp),%rax
    e56f:	88 10                	mov    %dl,(%rax)
    e571:	48 8b 85 48 ea ff ff 	mov    -0x15b8(%rbp),%rax
    e578:	0f b6 00             	movzbl (%rax),%eax
    e57b:	89 c2                	mov    %eax,%edx
    e57d:	48 8b 85 50 ea ff ff 	mov    -0x15b0(%rbp),%rax
    e584:	8b 00                	mov    (%rax),%eax
    e586:	85 c0                	test   %eax,%eax
    e588:	0f 95 c0             	setne  %al
    e58b:	31 d0                	xor    %edx,%eax
    e58d:	0f be d0             	movsbl %al,%edx
    e590:	48 8b 85 30 ea ff ff 	mov    -0x15d0(%rbp),%rax
    e597:	0f be c0             	movsbl %al,%eax
    e59a:	89 d6                	mov    %edx,%esi
    e59c:	89 c7                	mov    %eax,%edi
    e59e:	e8 4f 9c ff ff       	callq  81f2 <safe_sub_func_int8_t_s_s>
    e5a3:	0f be c0             	movsbl %al,%eax
    e5a6:	89 85 5c e5 ff ff    	mov    %eax,-0x1aa4(%rbp)
    e5ac:	48 8b 85 50 ea ff ff 	mov    -0x15b0(%rbp),%rax
    e5b3:	8b 00                	mov    (%rax),%eax
    e5b5:	09 85 2c e6 ff ff    	or     %eax,-0x19d4(%rbp)
    e5bb:	8b 95 2c e6 ff ff    	mov    -0x19d4(%rbp),%edx
    e5c1:	8b 85 d4 e5 ff ff    	mov    -0x1a2c(%rbp),%eax
    e5c7:	09 d0                	or     %edx,%eax
    e5c9:	89 85 d4 e5 ff ff    	mov    %eax,-0x1a2c(%rbp)
    e5cf:	8b 85 d4 e5 ff ff    	mov    -0x1a2c(%rbp),%eax
    e5d5:	85 c0                	test   %eax,%eax
    e5d7:	74 65                	je     e63e <func_1+0x4e89>
    e5d9:	48 8b 85 50 ea ff ff 	mov    -0x15b0(%rbp),%rax
    e5e0:	44 8b 28             	mov    (%rax),%r13d
    e5e3:	0f b7 05 d6 81 00 00 	movzwl 0x81d6(%rip),%eax        # 167c0 <l_1633.4201+0x10>
    e5ea:	44 0f b7 f0          	movzwl %ax,%r14d
    e5ee:	48 8b 85 40 e9 ff ff 	mov    -0x16c0(%rbp),%rax
    e5f5:	8b 10                	mov    (%rax),%edx
    e5f7:	48 8b 85 50 ea ff ff 	mov    -0x15b0(%rbp),%rax
    e5fe:	8b 00                	mov    (%rax),%eax
    e600:	83 c8 01             	or     $0x1,%eax
    e603:	98                   	cwtl   
    e604:	89 d6                	mov    %edx,%esi
    e606:	89 c7                	mov    %eax,%edi
    e608:	e8 1d 9f ff ff       	callq  852a <safe_rshift_func_int16_t_s_s>
    e60d:	48 8b 05 54 db 00 00 	mov    0xdb54(%rip),%rax        # 1c168 <g_806>
    e614:	8b 00                	mov    (%rax),%eax
    e616:	44 89 f6             	mov    %r14d,%esi
    e619:	89 c7                	mov    %eax,%edi
    e61b:	e8 96 9f ff ff       	callq  85b6 <safe_add_func_int32_t_s_s>
    e620:	44 89 ee             	mov    %r13d,%esi
    e623:	89 c7                	mov    %eax,%edi
    e625:	e8 db 9f ff ff       	callq  8605 <safe_sub_func_int32_t_s_s>
    e62a:	48 8b 85 50 ea ff ff 	mov    -0x15b0(%rbp),%rax
    e631:	8b 00                	mov    (%rax),%eax
    e633:	85 c0                	test   %eax,%eax
    e635:	74 07                	je     e63e <func_1+0x4e89>
    e637:	b8 01 00 00 00       	mov    $0x1,%eax
    e63c:	eb 05                	jmp    e643 <func_1+0x4e8e>
    e63e:	b8 00 00 00 00       	mov    $0x0,%eax
    e643:	48 63 d0             	movslq %eax,%rdx
    e646:	48 8b 85 90 e7 ff ff 	mov    -0x1870(%rbp),%rax
    e64d:	48 39 c2             	cmp    %rax,%rdx
    e650:	0f 9d c0             	setge  %al
    e653:	0f b6 d0             	movzbl %al,%edx
    e656:	0f b7 05 7f b3 00 00 	movzwl 0xb37f(%rip),%eax        # 199dc <g_1635+0xc>
    e65d:	0f b7 c0             	movzwl %ax,%eax
    e660:	39 c2                	cmp    %eax,%edx
    e662:	0f 95 c0             	setne  %al
    e665:	0f b6 d0             	movzbl %al,%edx
    e668:	48 8b 85 40 e9 ff ff 	mov    -0x16c0(%rbp),%rax
    e66f:	8b 00                	mov    (%rax),%eax
    e671:	09 d0                	or     %edx,%eax
    e673:	0b 85 5c e5 ff ff    	or     -0x1aa4(%rbp),%eax
    e679:	41 39 c7             	cmp    %eax,%r15d
    e67c:	0f 9c c0             	setl   %al
    e67f:	0f b6 c0             	movzbl %al,%eax
    e682:	44 89 e6             	mov    %r12d,%esi
    e685:	89 c7                	mov    %eax,%edi
    e687:	e8 79 a5 ff ff       	callq  8c05 <safe_lshift_func_uint8_t_u_s>
    e68c:	84 c0                	test   %al,%al
    e68e:	74 11                	je     e6a1 <func_1+0x4eec>
    e690:	48 83 bd 30 ea ff ff 	cmpq   $0x0,-0x15d0(%rbp)
    e697:	00 
    e698:	74 07                	je     e6a1 <func_1+0x4eec>
    e69a:	ba 01 00 00 00       	mov    $0x1,%edx
    e69f:	eb 05                	jmp    e6a6 <func_1+0x4ef1>
    e6a1:	ba 00 00 00 00       	mov    $0x0,%edx
    e6a6:	48 8b 85 78 e7 ff ff 	mov    -0x1888(%rbp),%rax
    e6ad:	66 89 10             	mov    %dx,(%rax)
    e6b0:	48 8b 05 61 db 00 00 	mov    0xdb61(%rip),%rax        # 1c218 <g_1612>
    e6b7:	8b 00                	mov    (%rax),%eax
    e6b9:	89 de                	mov    %ebx,%esi
    e6bb:	89 c7                	mov    %eax,%edi
    e6bd:	e8 3d a0 ff ff       	callq  86ff <safe_div_func_int32_t_s_s>
    e6c2:	83 e0 fe             	and    $0xfffffffe,%eax
    e6c5:	89 85 0c e6 ff ff    	mov    %eax,-0x19f4(%rbp)
    e6cb:	48 8b 95 a8 e7 ff ff 	mov    -0x1858(%rbp),%rdx
    e6d2:	8b 85 0c e6 ff ff    	mov    -0x19f4(%rbp),%eax
    e6d8:	44 8b 85 68 e5 ff ff 	mov    -0x1a98(%rbp),%r8d
    e6df:	48 89 d1             	mov    %rdx,%rcx
    e6e2:	8b 95 60 e5 ff ff    	mov    -0x1aa0(%rbp),%edx
    e6e8:	48 8d 35 b9 e4 00 00 	lea    0xe4b9(%rip),%rsi        # 1cba8 <g_145>
    e6ef:	89 c7                	mov    %eax,%edi
    e6f1:	e8 99 45 00 00       	callq  12c8f <func_78>
    e6f6:	48 8b 85 40 e9 ff ff 	mov    -0x16c0(%rbp),%rax
    e6fd:	8b 00                	mov    (%rax),%eax
    e6ff:	39 85 2c e6 ff ff    	cmp    %eax,-0x19d4(%rbp)
    e705:	0f 9d c0             	setge  %al
    e708:	0f b6 c0             	movzbl %al,%eax
    e70b:	be 04 00 00 00       	mov    $0x4,%esi
    e710:	89 c7                	mov    %eax,%edi
    e712:	e8 a7 a6 ff ff       	callq  8dbe <safe_lshift_func_uint16_t_u_s>
    e717:	66 85 c0             	test   %ax,%ax
    e71a:	74 76                	je     e792 <func_1+0x4fdd>
    e71c:	c6 85 8d e5 ff ff 1a 	movb   $0x1a,-0x1a73(%rbp)
    e723:	c7 85 10 e6 ff ff 00 	movl   $0x0,-0x19f0(%rbp)
    e72a:	00 00 00 
    e72d:	eb 1a                	jmp    e749 <func_1+0x4f94>
    e72f:	8b 85 10 e6 ff ff    	mov    -0x19f0(%rbp),%eax
    e735:	48 98                	cltq   
    e737:	c7 84 85 30 eb ff ff 	movl   $0x1fe55bf3,-0x14d0(%rbp,%rax,4)
    e73e:	f3 5b e5 1f 
    e742:	83 85 10 e6 ff ff 01 	addl   $0x1,-0x19f0(%rbp)
    e749:	83 bd 10 e6 ff ff 04 	cmpl   $0x4,-0x19f0(%rbp)
    e750:	7e dd                	jle    e72f <func_1+0x4f7a>
    e752:	c7 85 10 e6 ff ff 00 	movl   $0x0,-0x19f0(%rbp)
    e759:	00 00 00 
    e75c:	eb 1a                	jmp    e778 <func_1+0x4fc3>
    e75e:	8b 85 10 e6 ff ff    	mov    -0x19f0(%rbp),%eax
    e764:	48 98                	cltq   
    e766:	c7 84 85 d0 ea ff ff 	movl   $0x0,-0x1530(%rbp,%rax,4)
    e76d:	00 00 00 00 
    e771:	83 85 10 e6 ff ff 01 	addl   $0x1,-0x19f0(%rbp)
    e778:	83 bd 10 e6 ff ff 01 	cmpl   $0x1,-0x19f0(%rbp)
    e77f:	7e dd                	jle    e75e <func_1+0x4fa9>
    e781:	8b 85 d0 ea ff ff    	mov    -0x1530(%rbp),%eax
    e787:	83 e8 01             	sub    $0x1,%eax
    e78a:	89 85 d0 ea ff ff    	mov    %eax,-0x1530(%rbp)
    e790:	eb 2e                	jmp    e7c0 <func_1+0x500b>
    e792:	8b 85 3c e6 ff ff    	mov    -0x19c4(%rbp),%eax
    e798:	0d ff ff 00 00       	or     $0xffff,%eax
    e79d:	89 c0                	mov    %eax,%eax
    e79f:	48 89 c7             	mov    %rax,%rdi
    e7a2:	e8 72 a8 ff ff       	callq  9019 <safe_unary_minus_func_uint64_t_u>
    e7a7:	98                   	cwtl   
    e7a8:	be 04 00 00 00       	mov    $0x4,%esi
    e7ad:	89 c7                	mov    %eax,%edi
    e7af:	e8 76 9d ff ff       	callq  852a <safe_rshift_func_int16_t_s_s>
    e7b4:	0f bf d0             	movswl %ax,%edx
    e7b7:	48 8b 85 68 ea ff ff 	mov    -0x1598(%rbp),%rax
    e7be:	89 10                	mov    %edx,(%rax)
    e7c0:	48 8b 85 30 ea ff ff 	mov    -0x15d0(%rbp),%rax
    e7c7:	0f be c0             	movsbl %al,%eax
    e7ca:	be 01 00 00 00       	mov    $0x1,%esi
    e7cf:	89 c7                	mov    %eax,%edi
    e7d1:	e8 96 9b ff ff       	callq  836c <safe_rshift_func_int8_t_s_u>
    e7d6:	83 bd 64 e7 ff ff 00 	cmpl   $0x0,-0x189c(%rbp)
    e7dd:	75 69                	jne    e848 <func_1+0x5093>
    e7df:	48 8b 05 c2 d9 00 00 	mov    0xd9c2(%rip),%rax        # 1c1a8 <g_1290>
    e7e6:	48 8b 00             	mov    (%rax),%rax
    e7e9:	48 8b 00             	mov    (%rax),%rax
    e7ec:	48 8b 00             	mov    (%rax),%rax
    e7ef:	0f b6 00             	movzbl (%rax),%eax
    e7f2:	0f b6 d8             	movzbl %al,%ebx
    e7f5:	8b 05 f1 b1 00 00    	mov    0xb1f1(%rip),%eax        # 199ec <g_1666>
    e7fb:	23 85 64 e7 ff ff    	and    -0x189c(%rbp),%eax
    e801:	89 c2                	mov    %eax,%edx
    e803:	48 8b 05 06 d5 00 00 	mov    0xd506(%rip),%rax        # 1bd10 <g_552>
    e80a:	48 8b 00             	mov    (%rax),%rax
    e80d:	48 8b 00             	mov    (%rax),%rax
    e810:	48 89 d6             	mov    %rdx,%rsi
    e813:	48 89 c7             	mov    %rax,%rdi
    e816:	e8 99 a1 ff ff       	callq  89b4 <safe_mod_func_int64_t_s_s>
    e81b:	8b 85 6c e7 ff ff    	mov    -0x1894(%rbp),%eax
    e821:	0f b6 c0             	movzbl %al,%eax
    e824:	89 de                	mov    %ebx,%esi
    e826:	89 c7                	mov    %eax,%edi
    e828:	e8 4b a3 ff ff       	callq  8b78 <safe_sub_func_uint8_t_u_u>
    e82d:	0f be c0             	movsbl %al,%eax
    e830:	be 96 ff ff ff       	mov    $0xffffff96,%esi
    e835:	89 c7                	mov    %eax,%edi
    e837:	e8 2e 9a ff ff       	callq  826a <safe_div_func_int8_t_s_s>
    e83c:	48 0f be c0          	movsbq %al,%rax
    e840:	ba fa ff ff ff       	mov    $0xfffffffa,%edx
    e845:	48 39 d0             	cmp    %rdx,%rax
    e848:	48 81 bd 30 ea ff ff 	cmpq   $0xe9,-0x15d0(%rbp)
    e84f:	e9 00 00 00 
    e853:	0f 96 c0             	setbe  %al
    e856:	0f b6 c0             	movzbl %al,%eax
    e859:	48 89 85 58 ea ff ff 	mov    %rax,-0x15a8(%rbp)
    e860:	48 8b 85 40 e9 ff ff 	mov    -0x16c0(%rbp),%rax
    e867:	8b 00                	mov    (%rax),%eax
    e869:	85 c0                	test   %eax,%eax
    e86b:	0f 95 c0             	setne  %al
    e86e:	0f b6 c0             	movzbl %al,%eax
    e871:	be 2c 25 00 00       	mov    $0x252c,%esi
    e876:	89 c7                	mov    %eax,%edi
    e878:	e8 a2 a4 ff ff       	callq  8d1f <safe_sub_func_uint16_t_u_u>
    e87d:	66 85 c0             	test   %ax,%ax
    e880:	75 07                	jne    e889 <func_1+0x50d4>
    e882:	83 bd 2c e6 ff ff 00 	cmpl   $0x0,-0x19d4(%rbp)
    e889:	8b 05 a1 b1 00 00    	mov    0xb1a1(%rip),%eax        # 19a30 <g_1668+0x30>
    e88f:	89 c7                	mov    %eax,%edi
    e891:	e8 d2 43 00 00       	callq  12c68 <func_46>
    e896:	48 89 85 50 ea ff ff 	mov    %rax,-0x15b0(%rbp)
    e89d:	48 8b 05 ec ad 00 00 	mov    0xadec(%rip),%rax        # 19690 <g_192>
    e8a4:	0f be c0             	movsbl %al,%eax
    e8a7:	be 04 00 00 00       	mov    $0x4,%esi
    e8ac:	89 c7                	mov    %eax,%edi
    e8ae:	e8 21 99 ff ff       	callq  81d4 <safe_add_func_int8_t_s_s>
    e8b3:	48 0f be c0          	movsbq %al,%rax
    e8b7:	48 89 05 d2 ad 00 00 	mov    %rax,0xadd2(%rip)        # 19690 <g_192>
    e8be:	48 8b 05 cb ad 00 00 	mov    0xadcb(%rip),%rax        # 19690 <g_192>
    e8c5:	48 83 f8 23          	cmp    $0x23,%rax
    e8c9:	0f 86 80 f6 ff ff    	jbe    df4f <func_1+0x479a>
    e8cf:	8b 85 0c e6 ff ff    	mov    -0x19f4(%rbp),%eax
    e8d5:	48 98                	cltq   
    e8d7:	e9 2d 1c 00 00       	jmpq   10509 <func_1+0x6d54>
    e8dc:	48 8b 85 40 e9 ff ff 	mov    -0x16c0(%rbp),%rax
    e8e3:	8b 00                	mov    (%rax),%eax
    e8e5:	85 c0                	test   %eax,%eax
    e8e7:	0f 84 30 0a 00 00    	je     f31d <func_1+0x5b68>
    e8ed:	c7 85 08 e7 ff ff 41 	movl   $0xeab2aa41,-0x18f8(%rbp)
    e8f4:	aa b2 ea 
    e8f7:	48 8d 85 50 ef ff ff 	lea    -0x10b0(%rbp),%rax
    e8fe:	48 05 b4 00 00 00    	add    $0xb4,%rax
    e904:	48 89 85 e8 e9 ff ff 	mov    %rax,-0x1618(%rbp)
    e90b:	c7 85 0c e7 ff ff bf 	movl   $0xc0db65bf,-0x18f4(%rbp)
    e912:	65 db c0 
    e915:	c7 85 10 e7 ff ff fc 	movl   $0xfffffffc,-0x18f0(%rbp)
    e91c:	ff ff ff 
    e91f:	c7 85 14 e7 ff ff f7 	movl   $0xfffffff7,-0x18ec(%rbp)
    e926:	ff ff ff 
    e929:	66 c7 85 be e5 ff ff 	movw   $0x7d5c,-0x1a42(%rbp)
    e930:	5c 7d 
    e932:	c7 85 00 f3 ff ff f5 	movl   $0xab7c18f5,-0xd00(%rbp)
    e939:	18 7c ab 
    e93c:	c7 85 04 f3 ff ff 11 	movl   $0x9532b111,-0xcfc(%rbp)
    e943:	b1 32 95 
    e946:	c7 85 08 f3 ff ff 11 	movl   $0x9532b111,-0xcf8(%rbp)
    e94d:	b1 32 95 
    e950:	c7 85 0c f3 ff ff 01 	movl   $0x1,-0xcf4(%rbp)
    e957:	00 00 00 
    e95a:	c7 85 10 f3 ff ff 09 	movl   $0x9,-0xcf0(%rbp)
    e961:	00 00 00 
    e964:	c7 85 14 f3 ff ff 09 	movl   $0x9,-0xcec(%rbp)
    e96b:	00 00 00 
    e96e:	c7 85 18 f3 ff ff f5 	movl   $0xab7c18f5,-0xce8(%rbp)
    e975:	18 7c ab 
    e978:	c7 85 1c f3 ff ff 11 	movl   $0x9532b111,-0xce4(%rbp)
    e97f:	b1 32 95 
    e982:	c7 85 20 f3 ff ff 11 	movl   $0x9532b111,-0xce0(%rbp)
    e989:	b1 32 95 
    e98c:	c7 85 24 f3 ff ff 01 	movl   $0x1,-0xcdc(%rbp)
    e993:	00 00 00 
    e996:	c7 85 28 f3 ff ff 09 	movl   $0x9,-0xcd8(%rbp)
    e99d:	00 00 00 
    e9a0:	c7 85 2c f3 ff ff 09 	movl   $0x9,-0xcd4(%rbp)
    e9a7:	00 00 00 
    e9aa:	c7 85 30 f3 ff ff f5 	movl   $0xab7c18f5,-0xcd0(%rbp)
    e9b1:	18 7c ab 
    e9b4:	c7 85 34 f3 ff ff 11 	movl   $0x9532b111,-0xccc(%rbp)
    e9bb:	b1 32 95 
    e9be:	c7 85 38 f3 ff ff 11 	movl   $0x9532b111,-0xcc8(%rbp)
    e9c5:	b1 32 95 
    e9c8:	c6 85 87 e5 ff ff 00 	movb   $0x0,-0x1a79(%rbp)
    e9cf:	c6 85 88 e5 ff ff fc 	movb   $0xfc,-0x1a78(%rbp)
    e9d6:	c6 85 7b e5 ff ff dc 	movb   $0xdc,-0x1a85(%rbp)
    e9dd:	c7 85 80 ed ff ff 21 	movl   $0x1aec1b21,-0x1280(%rbp)
    e9e4:	1b ec 1a 
    e9e7:	c7 85 84 ed ff ff 06 	movl   $0x6,-0x127c(%rbp)
    e9ee:	00 00 00 
    e9f1:	c7 85 88 ed ff ff 7e 	movl   $0x2edacb7e,-0x1278(%rbp)
    e9f8:	cb da 2e 
    e9fb:	c7 85 8c ed ff ff 7e 	movl   $0x2edacb7e,-0x1274(%rbp)
    ea02:	cb da 2e 
    ea05:	c7 85 90 ed ff ff 7e 	movl   $0x2edacb7e,-0x1270(%rbp)
    ea0c:	cb da 2e 
    ea0f:	c7 85 94 ed ff ff 06 	movl   $0x6,-0x126c(%rbp)
    ea16:	00 00 00 
    ea19:	c7 85 98 ed ff ff 21 	movl   $0x1aec1b21,-0x1268(%rbp)
    ea20:	1b ec 1a 
    ea23:	c7 85 9c ed ff ff 7e 	movl   $0x2edacb7e,-0x1264(%rbp)
    ea2a:	cb da 2e 
    ea2d:	c7 85 a0 ed ff ff 21 	movl   $0x1aec1b21,-0x1260(%rbp)
    ea34:	1b ec 1a 
    ea37:	c7 85 a4 ed ff ff 7e 	movl   $0x2edacb7e,-0x125c(%rbp)
    ea3e:	cb da 2e 
    ea41:	c7 85 a8 ed ff ff 2b 	movl   $0x39b57e2b,-0x1258(%rbp)
    ea48:	7e b5 39 
    ea4b:	c7 85 ac ed ff ff 21 	movl   $0x1aec1b21,-0x1254(%rbp)
    ea52:	1b ec 1a 
    ea55:	c7 85 18 e7 ff ff 14 	movl   $0x5716d514,-0x18e8(%rbp)
    ea5c:	d5 16 57 
    ea5f:	c6 85 79 e5 ff ff 00 	movb   $0x0,-0x1a87(%rbp)
    ea66:	e9 b1 03 00 00       	jmpq   ee1c <func_1+0x5667>
    ea6b:	c7 85 1c e7 ff ff af 	movl   $0x24d3c1af,-0x18e4(%rbp)
    ea72:	c1 d3 24 
    ea75:	c7 85 20 e7 ff ff 8f 	movl   $0xd4a4588f,-0x18e0(%rbp)
    ea7c:	58 a4 d4 
    ea7f:	c7 85 24 e7 ff ff 08 	movl   $0x8,-0x18dc(%rbp)
    ea86:	00 00 00 
    ea89:	8b 05 b9 af 00 00    	mov    0xafb9(%rip),%eax        # 19a48 <g_1851>
    ea8f:	83 c0 01             	add    $0x1,%eax
    ea92:	89 05 b0 af 00 00    	mov    %eax,0xafb0(%rip)        # 19a48 <g_1851>
    ea98:	48 8b 05 19 d7 00 00 	mov    0xd719(%rip),%rax        # 1c1b8 <g_1385>
    ea9f:	48 8b 95 e8 e9 ff ff 	mov    -0x1618(%rbp),%rdx
    eaa6:	48 89 10             	mov    %rdx,(%rax)
    eaa9:	48 8b 05 08 d7 00 00 	mov    0xd708(%rip),%rax        # 1c1b8 <g_1385>
    eab0:	48 8b 00             	mov    (%rax),%rax
    eab3:	8b 00                	mov    (%rax),%eax
    eab5:	85 c0                	test   %eax,%eax
    eab7:	0f 84 8d 02 00 00    	je     ed4a <func_1+0x5595>
    eabd:	c7 85 00 f8 ff ff ff 	movl   $0xffffffff,-0x800(%rbp)
    eac4:	ff ff ff 
    eac7:	c7 85 04 f8 ff ff 00 	movl   $0x0,-0x7fc(%rbp)
    eace:	00 00 00 
    ead1:	c7 85 08 f8 ff ff 05 	movl   $0x5,-0x7f8(%rbp)
    ead8:	00 00 00 
    eadb:	c7 85 0c f8 ff ff 46 	movl   $0x6342d546,-0x7f4(%rbp)
    eae2:	d5 42 63 
    eae5:	c7 85 10 f8 ff ff 46 	movl   $0x6342d546,-0x7f0(%rbp)
    eaec:	d5 42 63 
    eaef:	c7 85 14 f8 ff ff 05 	movl   $0x5,-0x7ec(%rbp)
    eaf6:	00 00 00 
    eaf9:	c7 85 18 f8 ff ff 00 	movl   $0x0,-0x7e8(%rbp)
    eb00:	00 00 00 
    eb03:	c7 85 1c f8 ff ff ff 	movl   $0xffffffff,-0x7e4(%rbp)
    eb0a:	ff ff ff 
    eb0d:	c7 85 20 f8 ff ff 00 	movl   $0x0,-0x7e0(%rbp)
    eb14:	00 00 00 
    eb17:	c7 85 24 f8 ff ff 05 	movl   $0x5,-0x7dc(%rbp)
    eb1e:	00 00 00 
    eb21:	c7 85 28 f8 ff ff 46 	movl   $0x6342d546,-0x7d8(%rbp)
    eb28:	d5 42 63 
    eb2b:	c7 85 2c f8 ff ff 46 	movl   $0x6342d546,-0x7d4(%rbp)
    eb32:	d5 42 63 
    eb35:	c7 85 30 f8 ff ff 05 	movl   $0x5,-0x7d0(%rbp)
    eb3c:	00 00 00 
    eb3f:	c7 85 34 f8 ff ff 00 	movl   $0x0,-0x7cc(%rbp)
    eb46:	00 00 00 
    eb49:	c7 85 38 f8 ff ff ff 	movl   $0xffffffff,-0x7c8(%rbp)
    eb50:	ff ff ff 
    eb53:	66 c7 05 e8 ac 00 00 	movw   $0x0,0xace8(%rip)        # 19844 <g_618>
    eb5a:	00 00 
    eb5c:	e9 bb 01 00 00       	jmpq   ed1c <func_1+0x5567>
    eb61:	48 c7 85 00 ea ff ff 	movq   $0x0,-0x1600(%rbp)
    eb68:	00 00 00 00 
    eb6c:	48 8d 85 73 e5 ff ff 	lea    -0x1a8d(%rbp),%rax
    eb73:	48 89 85 08 ea ff ff 	mov    %rax,-0x15f8(%rbp)
    eb7a:	48 8d 85 00 f8 ff ff 	lea    -0x800(%rbp),%rax
    eb81:	48 83 c0 18          	add    $0x18,%rax
    eb85:	48 89 85 10 ea ff ff 	mov    %rax,-0x15f0(%rbp)
    eb8c:	48 8b 05 d5 d5 00 00 	mov    0xd5d5(%rip),%rax        # 1c168 <g_806>
    eb93:	8b 10                	mov    (%rax),%edx
    eb95:	48 8b 85 50 e9 ff ff 	mov    -0x16b0(%rbp),%rax
    eb9c:	89 10                	mov    %edx,(%rax)
    eb9e:	48 8b 85 50 e9 ff ff 	mov    -0x16b0(%rbp),%rax
    eba5:	8b 00                	mov    (%rax),%eax
    eba7:	89 85 68 e5 ff ff    	mov    %eax,-0x1a98(%rbp)
    ebad:	48 8b 85 e8 e9 ff ff 	mov    -0x1618(%rbp),%rax
    ebb4:	8b 00                	mov    (%rax),%eax
    ebb6:	41 89 c6             	mov    %eax,%r14d
    ebb9:	8b 85 0c e7 ff ff    	mov    -0x18f4(%rbp),%eax
    ebbf:	0f be d8             	movsbl %al,%ebx
    ebc2:	48 8b 05 df df 00 00 	mov    0xdfdf(%rip),%rax        # 1cba8 <g_145>
    ebc9:	8b 00                	mov    (%rax),%eax
    ebcb:	41 89 c7             	mov    %eax,%r15d
    ebce:	0f b6 85 74 e5 ff ff 	movzbl -0x1a8c(%rbp),%eax
    ebd5:	0f b6 d0             	movzbl %al,%edx
    ebd8:	48 8b 85 40 e9 ff ff 	mov    -0x16c0(%rbp),%rax
    ebdf:	8b 00                	mov    (%rax),%eax
    ebe1:	48 98                	cltq   
    ebe3:	48 39 85 00 ea ff ff 	cmp    %rax,-0x1600(%rbp)
    ebea:	0f 95 c0             	setne  %al
    ebed:	0f b6 c0             	movzbl %al,%eax
    ebf0:	89 d6                	mov    %edx,%esi
    ebf2:	89 c7                	mov    %eax,%edi
    ebf4:	e8 d3 9a ff ff       	callq  86cc <safe_mod_func_int32_t_s_s>
    ebf9:	41 89 c4             	mov    %eax,%r12d
    ebfc:	44 8b ad 1c f8 ff ff 	mov    -0x7e4(%rbp),%r13d
    ec03:	48 8b 05 9e df 00 00 	mov    0xdf9e(%rip),%rax        # 1cba8 <g_145>
    ec0a:	8b 00                	mov    (%rax),%eax
    ec0c:	85 c0                	test   %eax,%eax
    ec0e:	75 20                	jne    ec30 <func_1+0x547b>
    ec10:	8b 85 2c f8 ff ff    	mov    -0x7d4(%rbp),%eax
    ec16:	83 f8 01             	cmp    $0x1,%eax
    ec19:	0f 95 c0             	setne  %al
    ec1c:	0f b6 c0             	movzbl %al,%eax
    ec1f:	be 09 00 00 00       	mov    $0x9,%esi
    ec24:	89 c7                	mov    %eax,%edi
    ec26:	e8 67 98 ff ff       	callq  8492 <safe_lshift_func_int16_t_s_s>
    ec2b:	66 85 c0             	test   %ax,%ax
    ec2e:	74 07                	je     ec37 <func_1+0x5482>
    ec30:	b8 01 00 00 00       	mov    $0x1,%eax
    ec35:	eb 05                	jmp    ec3c <func_1+0x5487>
    ec37:	b8 00 00 00 00       	mov    $0x0,%eax
    ec3c:	85 c0                	test   %eax,%eax
    ec3e:	0f 94 c0             	sete   %al
    ec41:	0f b6 c0             	movzbl %al,%eax
    ec44:	41 39 c5             	cmp    %eax,%r13d
    ec47:	0f 92 c0             	setb   %al
    ec4a:	0f b6 c0             	movzbl %al,%eax
    ec4d:	be 68 00 00 00       	mov    $0x68,%esi
    ec52:	89 c7                	mov    %eax,%edi
    ec54:	e8 82 9f ff ff       	callq  8bdb <safe_div_func_uint8_t_u_u>
    ec59:	48 8b 95 08 ea ff ff 	mov    -0x15f8(%rbp),%rdx
    ec60:	88 02                	mov    %al,(%rdx)
    ec62:	48 8b 85 08 ea ff ff 	mov    -0x15f8(%rbp),%rax
    ec69:	0f b6 00             	movzbl (%rax),%eax
    ec6c:	0f b6 c0             	movzbl %al,%eax
    ec6f:	44 21 e0             	and    %r12d,%eax
    ec72:	44 89 fe             	mov    %r15d,%esi
    ec75:	89 c7                	mov    %eax,%edi
    ec77:	e8 81 a2 ff ff       	callq  8efd <safe_mod_func_uint32_t_u_u>
    ec7c:	0f be c0             	movsbl %al,%eax
    ec7f:	89 de                	mov    %ebx,%esi
    ec81:	89 c7                	mov    %eax,%edi
    ec83:	e8 8a 95 ff ff       	callq  8212 <safe_mul_func_int8_t_s_s>
    ec88:	48 0f be c0          	movsbq %al,%rax
    ec8c:	48 39 85 00 ea ff ff 	cmp    %rax,-0x1600(%rbp)
    ec93:	8b 85 c0 e6 ff ff    	mov    -0x1940(%rbp),%eax
    ec99:	89 c6                	mov    %eax,%esi
    ec9b:	bf 01 00 00 00       	mov    $0x1,%edi
    eca0:	e8 d5 a1 ff ff       	callq  8e7a <safe_rshift_func_uint16_t_u_u>
    eca5:	0f b6 c0             	movzbl %al,%eax
    eca8:	44 89 f6             	mov    %r14d,%esi
    ecab:	89 c7                	mov    %eax,%edi
    ecad:	e8 0c a0 ff ff       	callq  8cbe <safe_rshift_func_uint8_t_u_u>
    ecb2:	0f b6 d0             	movzbl %al,%edx
    ecb5:	8b 85 1c f8 ff ff    	mov    -0x7e4(%rbp),%eax
    ecbb:	39 c2                	cmp    %eax,%edx
    ecbd:	0f 92 c0             	setb   %al
    ecc0:	0f b6 d0             	movzbl %al,%edx
    ecc3:	48 8b 85 10 ea ff ff 	mov    -0x15f0(%rbp),%rax
    ecca:	89 10                	mov    %edx,(%rax)
    eccc:	48 8b 85 10 ea ff ff 	mov    -0x15f0(%rbp),%rax
    ecd3:	8b 00                	mov    (%rax),%eax
    ecd5:	23 85 68 e5 ff ff    	and    -0x1a98(%rbp),%eax
    ecdb:	21 85 f4 e5 ff ff    	and    %eax,-0x1a0c(%rbp)
    ece1:	48 8b 85 50 e9 ff ff 	mov    -0x16b0(%rbp),%rax
    ece8:	8b 00                	mov    (%rax),%eax
    ecea:	89 c2                	mov    %eax,%edx
    ecec:	48 8b 85 00 ea ff ff 	mov    -0x1600(%rbp),%rax
    ecf3:	31 d0                	xor    %edx,%eax
    ecf5:	89 c2                	mov    %eax,%edx
    ecf7:	48 8b 85 50 e9 ff ff 	mov    -0x16b0(%rbp),%rax
    ecfe:	89 10                	mov    %edx,(%rax)
    ed00:	48 8b 85 e8 e9 ff ff 	mov    -0x1618(%rbp),%rax
    ed07:	8b 00                	mov    (%rax),%eax
    ed09:	85 c0                	test   %eax,%eax
    ed0b:	0f b7 05 32 ab 00 00 	movzwl 0xab32(%rip),%eax        # 19844 <g_618>
    ed12:	83 c0 01             	add    $0x1,%eax
    ed15:	66 89 05 28 ab 00 00 	mov    %ax,0xab28(%rip)        # 19844 <g_618>
    ed1c:	0f b7 05 21 ab 00 00 	movzwl 0xab21(%rip),%eax        # 19844 <g_618>
    ed23:	66 83 f8 01          	cmp    $0x1,%ax
    ed27:	0f 8e 34 fe ff ff    	jle    eb61 <func_1+0x53ac>
    ed2d:	48 8b 05 74 de 00 00 	mov    0xde74(%rip),%rax        # 1cba8 <g_145>
    ed34:	c7 00 01 00 00 00    	movl   $0x1,(%rax)
    ed3a:	48 8b 85 50 e9 ff ff 	mov    -0x16b0(%rbp),%rax
    ed41:	8b 00                	mov    (%rax),%eax
    ed43:	48 98                	cltq   
    ed45:	e9 bf 17 00 00       	jmpq   10509 <func_1+0x6d54>
    ed4a:	66 c7 85 c0 e5 ff ff 	movw   $0xef89,-0x1a40(%rbp)
    ed51:	89 ef 
    ed53:	66 83 bd c0 e5 ff ff 	cmpw   $0x0,-0x1a40(%rbp)
    ed5a:	00 
    ed5b:	0f 85 ca 00 00 00    	jne    ee2b <func_1+0x5676>
    ed61:	48 c7 05 d4 ac 00 00 	movq   $0x0,0xacd4(%rip)        # 19a40 <g_1840>
    ed68:	00 00 00 00 
    ed6c:	e9 93 00 00 00       	jmpq   ee04 <func_1+0x564f>
    ed71:	48 c7 85 f0 e9 ff ff 	movq   $0x1,-0x1610(%rbp)
    ed78:	01 00 00 00 
    ed7c:	c7 85 28 e7 ff ff 00 	movl   $0x0,-0x18d8(%rbp)
    ed83:	00 00 00 
    ed86:	c7 85 2c e7 ff ff 01 	movl   $0x1,-0x18d4(%rbp)
    ed8d:	00 00 00 
    ed90:	c7 85 00 f8 ff ff ff 	movl   $0xffffffff,-0x800(%rbp)
    ed97:	ff ff ff 
    ed9a:	c7 85 04 f8 ff ff ff 	movl   $0xffffffff,-0x7fc(%rbp)
    eda1:	ff ff ff 
    eda4:	c7 85 08 f8 ff ff ff 	movl   $0xffffffff,-0x7f8(%rbp)
    edab:	ff ff ff 
    edae:	c7 85 0c f8 ff ff 38 	movl   $0x79badb38,-0x7f4(%rbp)
    edb5:	db ba 79 
    edb8:	c7 85 10 f8 ff ff 38 	movl   $0x79badb38,-0x7f0(%rbp)
    edbf:	db ba 79 
    edc2:	c7 85 14 f8 ff ff 38 	movl   $0x79badb38,-0x7ec(%rbp)
    edc9:	db ba 79 
    edcc:	48 8d 05 d5 d3 00 00 	lea    0xd3d5(%rip),%rax        # 1c1a8 <g_1290>
    edd3:	48 89 85 f8 e9 ff ff 	mov    %rax,-0x1608(%rbp)
    edda:	83 85 40 e6 ff ff 01 	addl   $0x1,-0x19c0(%rbp)
    ede1:	48 8b 85 f8 e9 ff ff 	mov    -0x1608(%rbp),%rax
    ede8:	48 8b 95 58 e9 ff ff 	mov    -0x16a8(%rbp),%rdx
    edef:	48 89 10             	mov    %rdx,(%rax)
    edf2:	48 8b 05 47 ac 00 00 	mov    0xac47(%rip),%rax        # 19a40 <g_1840>
    edf9:	48 83 c0 01          	add    $0x1,%rax
    edfd:	48 89 05 3c ac 00 00 	mov    %rax,0xac3c(%rip)        # 19a40 <g_1840>
    ee04:	48 8b 05 35 ac 00 00 	mov    0xac35(%rip),%rax        # 19a40 <g_1840>
    ee0b:	48 83 f8 02          	cmp    $0x2,%rax
    ee0f:	0f 86 5c ff ff ff    	jbe    ed71 <func_1+0x55bc>
    ee15:	80 85 79 e5 ff ff 01 	addb   $0x1,-0x1a87(%rbp)
    ee1c:	80 bd 79 e5 ff ff 01 	cmpb   $0x1,-0x1a87(%rbp)
    ee23:	0f 86 42 fc ff ff    	jbe    ea6b <func_1+0x52b6>
    ee29:	eb 01                	jmp    ee2c <func_1+0x5677>
    ee2b:	90                   	nop
    ee2c:	c7 85 3c e6 ff ff 00 	movl   $0x0,-0x19c4(%rbp)
    ee33:	00 00 00 
    ee36:	e9 0b 04 00 00       	jmpq   f246 <func_1+0x5a91>
    ee3b:	c6 85 8a e5 ff ff f6 	movb   $0xf6,-0x1a76(%rbp)
    ee42:	c7 85 14 e6 ff ff 08 	movl   $0x8,-0x19ec(%rbp)
    ee49:	00 00 00 
    ee4c:	c7 85 3c e7 ff ff f1 	movl   $0xe7fbd8f1,-0x18c4(%rbp)
    ee53:	d8 fb e7 
    ee56:	c7 85 40 e7 ff ff fe 	movl   $0xd694bdfe,-0x18c0(%rbp)
    ee5d:	bd 94 d6 
    ee60:	c7 85 44 e7 ff ff ff 	movl   $0xffffffff,-0x18bc(%rbp)
    ee67:	ff ff ff 
    ee6a:	c7 85 48 e7 ff ff fa 	movl   $0xfffffffa,-0x18b8(%rbp)
    ee71:	ff ff ff 
    ee74:	c7 85 4c e7 ff ff 01 	movl   $0x1,-0x18b4(%rbp)
    ee7b:	00 00 00 
    ee7e:	c7 85 00 f8 ff ff 05 	movl   $0x5,-0x800(%rbp)
    ee85:	00 00 00 
    ee88:	c7 85 04 f8 ff ff 04 	movl   $0x4,-0x7fc(%rbp)
    ee8f:	00 00 00 
    ee92:	c7 85 08 f8 ff ff bd 	movl   $0x98539bbd,-0x7f8(%rbp)
    ee99:	9b 53 98 
    ee9c:	c7 85 0c f8 ff ff bd 	movl   $0x98539bbd,-0x7f4(%rbp)
    eea3:	9b 53 98 
    eea6:	c7 85 10 f8 ff ff 04 	movl   $0x4,-0x7f0(%rbp)
    eead:	00 00 00 
    eeb0:	c7 85 14 f8 ff ff 05 	movl   $0x5,-0x7ec(%rbp)
    eeb7:	00 00 00 
    eeba:	c7 85 18 f8 ff ff 04 	movl   $0x4,-0x7e8(%rbp)
    eec1:	00 00 00 
    eec4:	c7 85 1c f8 ff ff bd 	movl   $0x98539bbd,-0x7e4(%rbp)
    eecb:	9b 53 98 
    eece:	c7 85 20 f8 ff ff bd 	movl   $0x98539bbd,-0x7e0(%rbp)
    eed5:	9b 53 98 
    eed8:	c7 85 24 f8 ff ff 04 	movl   $0x4,-0x7dc(%rbp)
    eedf:	00 00 00 
    eee2:	c7 85 28 f8 ff ff 05 	movl   $0x5,-0x7d8(%rbp)
    eee9:	00 00 00 
    eeec:	c7 85 2c f8 ff ff 04 	movl   $0x4,-0x7d4(%rbp)
    eef3:	00 00 00 
    eef6:	c7 85 30 f8 ff ff bd 	movl   $0x98539bbd,-0x7d0(%rbp)
    eefd:	9b 53 98 
    ef00:	c7 85 34 f8 ff ff bd 	movl   $0x98539bbd,-0x7cc(%rbp)
    ef07:	9b 53 98 
    ef0a:	c7 85 38 f8 ff ff 04 	movl   $0x4,-0x7c8(%rbp)
    ef11:	00 00 00 
    ef14:	c7 85 3c f8 ff ff 05 	movl   $0x5,-0x7c4(%rbp)
    ef1b:	00 00 00 
    ef1e:	c7 85 40 f8 ff ff 04 	movl   $0x4,-0x7c0(%rbp)
    ef25:	00 00 00 
    ef28:	c7 85 44 f8 ff ff bd 	movl   $0x98539bbd,-0x7bc(%rbp)
    ef2f:	9b 53 98 
    ef32:	c7 85 48 f8 ff ff bd 	movl   $0x98539bbd,-0x7b8(%rbp)
    ef39:	9b 53 98 
    ef3c:	c7 85 4c f8 ff ff 04 	movl   $0x4,-0x7b4(%rbp)
    ef43:	00 00 00 
    ef46:	48 c7 05 ef aa 00 00 	movq   $0x0,0xaaef(%rip)        # 19a40 <g_1840>
    ef4d:	00 00 00 00 
    ef51:	e9 89 00 00 00       	jmpq   efdf <func_1+0x582a>
    ef56:	48 b8 b9 6e 52 0b 09 	movabs $0xafac80090b526eb9,%rax
    ef5d:	80 ac af 
    ef60:	48 89 85 08 e8 ff ff 	mov    %rax,-0x17f8(%rbp)
    ef67:	48 8b 05 3a d2 00 00 	mov    0xd23a(%rip),%rax        # 1c1a8 <g_1290>
    ef6e:	48 8b 10             	mov    (%rax),%rdx
    ef71:	48 8b 85 58 e9 ff ff 	mov    -0x16a8(%rbp),%rax
    ef78:	48 8b 00             	mov    (%rax),%rax
    ef7b:	48 8b 12             	mov    (%rdx),%rdx
    ef7e:	48 89 10             	mov    %rdx,(%rax)
    ef81:	80 bd 8a e5 ff ff 00 	cmpb   $0x0,-0x1a76(%rbp)
    ef88:	74 14                	je     ef9e <func_1+0x57e9>
    ef8a:	48 8b 05 af aa 00 00 	mov    0xaaaf(%rip),%rax        # 19a40 <g_1840>
    ef91:	48 83 c0 01          	add    $0x1,%rax
    ef95:	48 89 05 a4 aa 00 00 	mov    %rax,0xaaa4(%rip)        # 19a40 <g_1840>
    ef9c:	eb 41                	jmp    efdf <func_1+0x582a>
    ef9e:	c7 85 fc e5 ff ff 00 	movl   $0x0,-0x1a04(%rbp)
    efa5:	00 00 00 
    efa8:	eb 20                	jmp    efca <func_1+0x5815>
    efaa:	48 83 a5 08 e8 ff ff 	andq   $0x7,-0x17f8(%rbp)
    efb1:	07 
    efb2:	8b 85 fc e5 ff ff    	mov    -0x1a04(%rbp),%eax
    efb8:	be 05 00 00 00       	mov    $0x5,%esi
    efbd:	89 c7                	mov    %eax,%edi
    efbf:	e8 f4 9e ff ff       	callq  8eb8 <safe_add_func_uint32_t_u_u>
    efc4:	89 85 fc e5 ff ff    	mov    %eax,-0x1a04(%rbp)
    efca:	83 bd fc e5 ff ff 0f 	cmpl   $0xf,-0x1a04(%rbp)
    efd1:	75 d7                	jne    efaa <func_1+0x57f5>
    efd3:	0f b6 85 8a e5 ff ff 	movzbl -0x1a76(%rbp),%eax
    efda:	e9 2a 15 00 00       	jmpq   10509 <func_1+0x6d54>
    efdf:	48 8b 05 5a aa 00 00 	mov    0xaa5a(%rip),%rax        # 19a40 <g_1840>
    efe6:	48 83 f8 01          	cmp    $0x1,%rax
    efea:	0f 86 66 ff ff ff    	jbe    ef56 <func_1+0x57a1>
    eff0:	c7 85 f4 e5 ff ff 00 	movl   $0x0,-0x1a0c(%rbp)
    eff7:	00 00 00 
    effa:	e9 10 02 00 00       	jmpq   f20f <func_1+0x5a5a>
    efff:	c7 85 18 e6 ff ff 8b 	movl   $0xc720f48b,-0x19e8(%rbp)
    f006:	f4 20 c7 
    f009:	c6 85 8b e5 ff ff 71 	movb   $0x71,-0x1a75(%rbp)
    f010:	c7 05 b2 a6 00 00 00 	movl   $0x0,0xa6b2(%rip)        # 196cc <g_318>
    f017:	00 00 00 
    f01a:	eb 16                	jmp    f032 <func_1+0x587d>
    f01c:	83 ad 18 e6 ff ff 01 	subl   $0x1,-0x19e8(%rbp)
    f023:	8b 05 a3 a6 00 00    	mov    0xa6a3(%rip),%eax        # 196cc <g_318>
    f029:	83 c0 01             	add    $0x1,%eax
    f02c:	89 05 9a a6 00 00    	mov    %eax,0xa69a(%rip)        # 196cc <g_318>
    f032:	8b 05 94 a6 00 00    	mov    0xa694(%rip),%eax        # 196cc <g_318>
    f038:	83 f8 0f             	cmp    $0xf,%eax
    f03b:	77 df                	ja     f01c <func_1+0x5867>
    f03d:	80 bd 8a e5 ff ff 00 	cmpb   $0x0,-0x1a76(%rbp)
    f044:	0f 85 d4 01 00 00    	jne    f21e <func_1+0x5a69>
    f04a:	48 8b 05 17 d1 00 00 	mov    0xd117(%rip),%rax        # 1c168 <g_806>
    f051:	8b 10                	mov    (%rax),%edx
    f053:	48 8b 85 e8 e9 ff ff 	mov    -0x1618(%rbp),%rax
    f05a:	8b 00                	mov    (%rax),%eax
    f05c:	31 c2                	xor    %eax,%edx
    f05e:	48 8b 85 e8 e9 ff ff 	mov    -0x1618(%rbp),%rax
    f065:	89 10                	mov    %edx,(%rax)
    f067:	48 8b 85 e8 e9 ff ff 	mov    -0x1618(%rbp),%rax
    f06e:	8b 00                	mov    (%rax),%eax
    f070:	0f b7 d8             	movzwl %ax,%ebx
    f073:	48 8b 85 50 e9 ff ff 	mov    -0x16b0(%rbp),%rax
    f07a:	8b 00                	mov    (%rax),%eax
    f07c:	4c 63 e0             	movslq %eax,%r12
    f07f:	48 8b 95 78 e7 ff ff 	mov    -0x1888(%rbp),%rdx
    f086:	48 8b 85 78 e7 ff ff 	mov    -0x1888(%rbp),%rax
    f08d:	0f b7 12             	movzwl (%rdx),%edx
    f090:	66 89 10             	mov    %dx,(%rax)
    f093:	0f b7 00             	movzwl (%rax),%eax
    f096:	66 85 c0             	test   %ax,%ax
    f099:	0f 84 d9 00 00 00    	je     f178 <func_1+0x59c3>
    f09f:	44 0f b6 ad 8a e5 ff 	movzbl -0x1a76(%rbp),%r13d
    f0a6:	ff 
    f0a7:	48 8b 85 e8 e9 ff ff 	mov    -0x1618(%rbp),%rax
    f0ae:	8b 10                	mov    (%rax),%edx
    f0b0:	48 8b 05 f1 d0 00 00 	mov    0xd0f1(%rip),%rax        # 1c1a8 <g_1290>
    f0b7:	48 8b 00             	mov    (%rax),%rax
    f0ba:	48 8b 00             	mov    (%rax),%rax
    f0bd:	48 85 c0             	test   %rax,%rax
    f0c0:	0f 95 c0             	setne  %al
    f0c3:	0f b6 c0             	movzbl %al,%eax
    f0c6:	39 c2                	cmp    %eax,%edx
    f0c8:	0f 9c c0             	setl   %al
    f0cb:	0f b6 d0             	movzbl %al,%edx
    f0ce:	48 8b 85 e8 e9 ff ff 	mov    -0x1618(%rbp),%rax
    f0d5:	8b 00                	mov    (%rax),%eax
    f0d7:	98                   	cwtl   
    f0d8:	89 d6                	mov    %edx,%esi
    f0da:	89 c7                	mov    %eax,%edi
    f0dc:	e8 82 94 ff ff       	callq  8563 <safe_rshift_func_int16_t_s_u>
    f0e1:	48 8b 15 30 cc 00 00 	mov    0xcc30(%rip),%rdx        # 1bd18 <g_653>
    f0e8:	48 8b 05 29 cc 00 00 	mov    0xcc29(%rip),%rax        # 1bd18 <g_653>
    f0ef:	48 8b 12             	mov    (%rdx),%rdx
    f0f2:	48 89 10             	mov    %rdx,(%rax)
    f0f5:	48 8b 10             	mov    (%rax),%rdx
    f0f8:	48 8b 05 59 db 00 00 	mov    0xdb59(%rip),%rax        # 1cc58 <g_1921>
    f0ff:	48 39 c2             	cmp    %rax,%rdx
    f102:	0f 95 c0             	setne  %al
    f105:	0f b6 d0             	movzbl %al,%edx
    f108:	48 8b 05 01 cc 00 00 	mov    0xcc01(%rip),%rax        # 1bd10 <g_552>
    f10f:	48 8b 00             	mov    (%rax),%rax
    f112:	48 8b 00             	mov    (%rax),%rax
    f115:	48 09 c2             	or     %rax,%rdx
    f118:	48 b8 22 6b 13 4e 4d 	movabs $0xcc339d4d4e136b22,%rax
    f11f:	9d 33 cc 
    f122:	48 39 c2             	cmp    %rax,%rdx
    f125:	0f 95 c0             	setne  %al
    f128:	0f b6 c0             	movzbl %al,%eax
    f12b:	be 03 00 00 00       	mov    $0x3,%esi
    f130:	48 89 c7             	mov    %rax,%rdi
    f133:	e8 77 9f ff ff       	callq  90af <safe_div_func_uint64_t_u_u>
    f138:	0f b6 c0             	movzbl %al,%eax
    f13b:	44 89 ee             	mov    %r13d,%esi
    f13e:	89 c7                	mov    %eax,%edi
    f140:	e8 15 9a ff ff       	callq  8b5a <safe_add_func_uint8_t_u_u>
    f145:	0f be c0             	movsbl %al,%eax
    f148:	be 00 00 00 00       	mov    $0x0,%esi
    f14d:	89 c7                	mov    %eax,%edi
    f14f:	e8 18 92 ff ff       	callq  836c <safe_rshift_func_int8_t_s_u>
    f154:	8b 95 18 e6 ff ff    	mov    -0x19e8(%rbp),%edx
    f15a:	8b 85 14 e6 ff ff    	mov    -0x19ec(%rbp),%eax
    f160:	09 d0                	or     %edx,%eax
    f162:	89 85 14 e6 ff ff    	mov    %eax,-0x19ec(%rbp)
    f168:	83 bd 14 e6 ff ff ff 	cmpl   $0xffffffff,-0x19ec(%rbp)
    f16f:	74 07                	je     f178 <func_1+0x59c3>
    f171:	b8 01 00 00 00       	mov    $0x1,%eax
    f176:	eb 05                	jmp    f17d <func_1+0x59c8>
    f178:	b8 00 00 00 00       	mov    $0x0,%eax
    f17d:	48 98                	cltq   
    f17f:	4c 89 e6             	mov    %r12,%rsi
    f182:	48 89 c7             	mov    %rax,%rdi
    f185:	e8 2a 98 ff ff       	callq  89b4 <safe_mod_func_int64_t_s_s>
    f18a:	0f be 85 8b e5 ff ff 	movsbl -0x1a75(%rbp),%eax
    f191:	39 85 44 e6 ff ff    	cmp    %eax,-0x19bc(%rbp)
    f197:	74 07                	je     f1a0 <func_1+0x59eb>
    f199:	b8 01 00 00 00       	mov    $0x1,%eax
    f19e:	eb 05                	jmp    f1a5 <func_1+0x59f0>
    f1a0:	b8 00 00 00 00       	mov    $0x0,%eax
    f1a5:	48 98                	cltq   
    f1a7:	48 be f9 a5 5f 97 24 	movabs $0xb9806d24975fa5f9,%rsi
    f1ae:	6d 80 b9 
    f1b1:	48 89 c7             	mov    %rax,%rdi
    f1b4:	e8 ef 96 ff ff       	callq  88a8 <safe_sub_func_int64_t_s_s>
    f1b9:	8b 95 3c e7 ff ff    	mov    -0x18c4(%rbp),%edx
    f1bf:	48 39 d0             	cmp    %rdx,%rax
    f1c2:	75 09                	jne    f1cd <func_1+0x5a18>
    f1c4:	83 bd 18 e6 ff ff 00 	cmpl   $0x0,-0x19e8(%rbp)
    f1cb:	74 07                	je     f1d4 <func_1+0x5a1f>
    f1cd:	b8 01 00 00 00       	mov    $0x1,%eax
    f1d2:	eb 05                	jmp    f1d9 <func_1+0x5a24>
    f1d4:	b8 00 00 00 00       	mov    $0x0,%eax
    f1d9:	66 35 61 da          	xor    $0xda61,%ax
    f1dd:	0f b7 c0             	movzwl %ax,%eax
    f1e0:	89 de                	mov    %ebx,%esi
    f1e2:	89 c7                	mov    %eax,%edi
    f1e4:	e8 54 9b ff ff       	callq  8d3d <safe_mul_func_uint16_t_u_u>
    f1e9:	0f b7 d0             	movzwl %ax,%edx
    f1ec:	48 8b 85 e8 e9 ff ff 	mov    -0x1618(%rbp),%rax
    f1f3:	89 10                	mov    %edx,(%rax)
    f1f5:	8b 85 f4 e5 ff ff    	mov    -0x1a0c(%rbp),%eax
    f1fb:	98                   	cwtl   
    f1fc:	be 02 00 00 00       	mov    $0x2,%esi
    f201:	89 c7                	mov    %eax,%edi
    f203:	e8 ab 91 ff ff       	callq  83b3 <safe_add_func_int16_t_s_s>
    f208:	98                   	cwtl   
    f209:	89 85 f4 e5 ff ff    	mov    %eax,-0x1a0c(%rbp)
    f20f:	83 bd f4 e5 ff ff 2e 	cmpl   $0x2e,-0x1a0c(%rbp)
    f216:	0f 85 e3 fd ff ff    	jne    efff <func_1+0x584a>
    f21c:	eb 01                	jmp    f21f <func_1+0x5a6a>
    f21e:	90                   	nop
    f21f:	0f b6 85 7b e5 ff ff 	movzbl -0x1a85(%rbp),%eax
    f226:	83 c0 01             	add    $0x1,%eax
    f229:	88 85 7b e5 ff ff    	mov    %al,-0x1a85(%rbp)
    f22f:	0f b6 85 b9 ec ff ff 	movzbl -0x1347(%rbp),%eax
    f236:	83 e8 01             	sub    $0x1,%eax
    f239:	88 85 b9 ec ff ff    	mov    %al,-0x1347(%rbp)
    f23f:	83 85 3c e6 ff ff 01 	addl   $0x1,-0x19c4(%rbp)
    f246:	83 bd 3c e6 ff ff 01 	cmpl   $0x1,-0x19c4(%rbp)
    f24d:	0f 86 e8 fb ff ff    	jbe    ee3b <func_1+0x5686>
    f253:	48 c7 85 f0 e7 ff ff 	movq   $0x9,-0x1810(%rbp)
    f25a:	09 00 00 00 
    f25e:	e9 9c 00 00 00       	jmpq   f2ff <func_1+0x5b4a>
    f263:	c6 85 89 e5 ff ff 58 	movb   $0x58,-0x1a77(%rbp)
    f26a:	c7 85 30 e7 ff ff cf 	movl   $0xde002ecf,-0x18d0(%rbp)
    f271:	2e 00 de 
    f274:	c7 85 34 e7 ff ff ff 	movl   $0xffffffff,-0x18cc(%rbp)
    f27b:	ff ff ff 
    f27e:	c7 85 38 e7 ff ff 09 	movl   $0x9,-0x18c8(%rbp)
    f285:	00 00 00 
    f288:	48 8b 05 d9 ce 00 00 	mov    0xced9(%rip),%rax        # 1c168 <g_806>
    f28f:	8b 10                	mov    (%rax),%edx
    f291:	48 8b 85 50 e9 ff ff 	mov    -0x16b0(%rbp),%rax
    f298:	89 10                	mov    %edx,(%rax)
    f29a:	0f be 95 89 e5 ff ff 	movsbl -0x1a77(%rbp),%edx
    f2a1:	48 8b 05 d8 c6 00 00 	mov    0xc6d8(%rip),%rax        # 1b980 <g_32>
    f2a8:	0f b6 00             	movzbl (%rax),%eax
    f2ab:	0f be c0             	movsbl %al,%eax
    f2ae:	89 d6                	mov    %edx,%esi
    f2b0:	89 c7                	mov    %eax,%edi
    f2b2:	e8 7a 8f ff ff       	callq  8231 <safe_mod_func_int8_t_s_s>
    f2b7:	0f be c0             	movsbl %al,%eax
    f2ba:	89 c7                	mov    %eax,%edi
    f2bc:	e8 fe 8e ff ff       	callq  81bf <safe_unary_minus_func_int8_t_s>
    f2c1:	0f be d0             	movsbl %al,%edx
    f2c4:	48 8b 85 50 e9 ff ff 	mov    -0x16b0(%rbp),%rax
    f2cb:	8b 00                	mov    (%rax),%eax
    f2cd:	0f be c0             	movsbl %al,%eax
    f2d0:	89 d6                	mov    %edx,%esi
    f2d2:	89 c7                	mov    %eax,%edi
    f2d4:	e8 58 8f ff ff       	callq  8231 <safe_mod_func_int8_t_s_s>
    f2d9:	48 8b 95 e8 e9 ff ff 	mov    -0x1618(%rbp),%rdx
    f2e0:	8b 12                	mov    (%rdx),%edx
    f2e2:	0f be c0             	movsbl %al,%eax
    f2e5:	21 c2                	and    %eax,%edx
    f2e7:	48 8b 85 e8 e9 ff ff 	mov    -0x1618(%rbp),%rax
    f2ee:	89 10                	mov    %edx,(%rax)
    f2f0:	83 ad 48 e6 ff ff 01 	subl   $0x1,-0x19b8(%rbp)
    f2f7:	48 83 ad f0 e7 ff ff 	subq   $0x1,-0x1810(%rbp)
    f2fe:	01 
    f2ff:	48 83 bd f0 e7 ff ff 	cmpq   $0x0,-0x1810(%rbp)
    f306:	00 
    f307:	0f 89 56 ff ff ff    	jns    f263 <func_1+0x5aae>
    f30d:	48 c7 85 e8 e9 ff ff 	movq   $0x0,-0x1618(%rbp)
    f314:	00 00 00 00 
    f318:	e9 af 0e 00 00       	jmpq   101cc <func_1+0x6a17>
    f31d:	c7 85 e8 e6 ff ff b5 	movl   $0xb6c594b5,-0x1918(%rbp)
    f324:	94 c5 b6 
    f327:	48 8d 05 a2 a3 00 00 	lea    0xa3a2(%rip),%rax        # 196d0 <g_333>
    f32e:	48 89 85 80 e9 ff ff 	mov    %rax,-0x1680(%rbp)
    f335:	48 8d 85 00 f8 ff ff 	lea    -0x800(%rbp),%rax
    f33c:	48 8d 15 9d 63 00 00 	lea    0x639d(%rip),%rdx        # 156e0 <g_1636+0x4f0>
    f343:	b9 50 00 00 00       	mov    $0x50,%ecx
    f348:	48 89 c7             	mov    %rax,%rdi
    f34b:	48 89 d6             	mov    %rdx,%rsi
    f34e:	f3 48 a5             	rep movsq %ds:(%rsi),%es:(%rdi)
    f351:	c7 85 ec e6 ff ff 5a 	movl   $0x35717d5a,-0x1914(%rbp)
    f358:	7d 71 35 
    f35b:	66 c7 85 b4 e5 ff ff 	movw   $0x375e,-0x1a4c(%rbp)
    f362:	5e 37 
    f364:	8b 05 f6 d8 00 00    	mov    0xd8f6(%rip),%eax        # 1cc60 <g_1967>
    f36a:	83 c0 01             	add    $0x1,%eax
    f36d:	89 05 ed d8 00 00    	mov    %eax,0xd8ed(%rip)        # 1cc60 <g_1967>
    f373:	83 bd e8 e6 ff ff 00 	cmpl   $0x0,-0x1918(%rbp)
    f37a:	0f 84 2e 04 00 00    	je     f7ae <func_1+0x5ff9>
    f380:	48 c7 85 d8 e9 ff ff 	movq   $0x0,-0x1628(%rbp)
    f387:	00 00 00 00 
    f38b:	c7 85 00 e7 ff ff 57 	movl   $0x65bb2157,-0x1900(%rbp)
    f392:	21 bb 65 
    f395:	48 c7 85 d8 e7 ff ff 	movq   $0xffffffffffffffff,-0x1828(%rbp)
    f39c:	ff ff ff ff 
    f3a0:	48 83 bd d8 e7 ff ff 	cmpq   $0x1b,-0x1828(%rbp)
    f3a7:	1b 
    f3a8:	0f 87 df 02 00 00    	ja     f68d <func_1+0x5ed8>
    f3ae:	c7 85 04 e7 ff ff d0 	movl   $0x437424d0,-0x18fc(%rbp)
    f3b5:	24 74 43 
    f3b8:	48 8b 85 d8 e9 ff ff 	mov    -0x1628(%rbp),%rax
    f3bf:	48 89 85 40 e9 ff ff 	mov    %rax,-0x16c0(%rbp)
    f3c6:	48 c7 85 90 e7 ff ff 	movq   $0x0,-0x1870(%rbp)
    f3cd:	00 00 00 00 
    f3d1:	e9 91 02 00 00       	jmpq   f667 <func_1+0x5eb2>
    f3d6:	48 8d 05 05 a5 00 00 	lea    0xa505(%rip),%rax        # 198e2 <g_1072+0x22>
    f3dd:	48 89 85 b8 e7 ff ff 	mov    %rax,-0x1848(%rbp)
    f3e4:	48 8d 85 b8 e7 ff ff 	lea    -0x1848(%rbp),%rax
    f3eb:	48 89 85 e0 e9 ff ff 	mov    %rax,-0x1620(%rbp)
    f3f2:	c7 85 00 f3 ff ff 16 	movl   $0xad0bcf16,-0xd00(%rbp)
    f3f9:	cf 0b ad 
    f3fc:	c7 85 04 f3 ff ff ff 	movl   $0xffffffff,-0xcfc(%rbp)
    f403:	ff ff ff 
    f406:	c7 85 08 f3 ff ff 08 	movl   $0x8,-0xcf8(%rbp)
    f40d:	00 00 00 
    f410:	c7 85 0c f3 ff ff 08 	movl   $0x8,-0xcf4(%rbp)
    f417:	00 00 00 
    f41a:	c7 85 10 f3 ff ff ff 	movl   $0xffffffff,-0xcf0(%rbp)
    f421:	ff ff ff 
    f424:	c7 85 14 f3 ff ff 16 	movl   $0xad0bcf16,-0xcec(%rbp)
    f42b:	cf 0b ad 
    f42e:	c7 85 18 f3 ff ff ff 	movl   $0xffffffff,-0xce8(%rbp)
    f435:	ff ff ff 
    f438:	c7 85 1c f3 ff ff 08 	movl   $0x8,-0xce4(%rbp)
    f43f:	00 00 00 
    f442:	c7 85 20 f3 ff ff ff 	movl   $0xffffffff,-0xce0(%rbp)
    f449:	ff ff ff 
    f44c:	c7 85 24 f3 ff ff ff 	movl   $0xffffffff,-0xcdc(%rbp)
    f453:	ff ff ff 
    f456:	c7 85 28 f3 ff ff ff 	movl   $0xffffffff,-0xcd8(%rbp)
    f45d:	ff ff ff 
    f460:	c7 85 2c f3 ff ff 16 	movl   $0xad0bcf16,-0xcd4(%rbp)
    f467:	cf 0b ad 
    f46a:	c7 85 30 f3 ff ff 16 	movl   $0xad0bcf16,-0xcd0(%rbp)
    f471:	cf 0b ad 
    f474:	c7 85 34 f3 ff ff ff 	movl   $0xffffffff,-0xccc(%rbp)
    f47b:	ff ff ff 
    f47e:	c7 85 38 f3 ff ff ff 	movl   $0xffffffff,-0xcc8(%rbp)
    f485:	ff ff ff 
    f488:	c7 85 3c f3 ff ff ff 	movl   $0xffffffff,-0xcc4(%rbp)
    f48f:	ff ff ff 
    f492:	c7 85 40 f3 ff ff 13 	movl   $0x33c31213,-0xcc0(%rbp)
    f499:	12 c3 33 
    f49c:	c7 85 44 f3 ff ff 16 	movl   $0xad0bcf16,-0xcbc(%rbp)
    f4a3:	cf 0b ad 
    f4a6:	c7 85 48 f3 ff ff 08 	movl   $0x8,-0xcb8(%rbp)
    f4ad:	00 00 00 
    f4b0:	c7 85 4c f3 ff ff 16 	movl   $0xad0bcf16,-0xcb4(%rbp)
    f4b7:	cf 0b ad 
    f4ba:	c7 85 50 f3 ff ff 13 	movl   $0x33c31213,-0xcb0(%rbp)
    f4c1:	12 c3 33 
    f4c4:	c7 85 54 f3 ff ff 13 	movl   $0x33c31213,-0xcac(%rbp)
    f4cb:	12 c3 33 
    f4ce:	c7 85 58 f3 ff ff 16 	movl   $0xad0bcf16,-0xca8(%rbp)
    f4d5:	cf 0b ad 
    f4d8:	c7 85 5c f3 ff ff 08 	movl   $0x8,-0xca4(%rbp)
    f4df:	00 00 00 
    f4e2:	c7 85 60 f3 ff ff 13 	movl   $0x33c31213,-0xca0(%rbp)
    f4e9:	12 c3 33 
    f4ec:	c7 85 64 f3 ff ff 13 	movl   $0x33c31213,-0xc9c(%rbp)
    f4f3:	12 c3 33 
    f4f6:	c7 85 68 f3 ff ff 16 	movl   $0xad0bcf16,-0xc98(%rbp)
    f4fd:	cf 0b ad 
    f500:	c7 85 6c f3 ff ff 08 	movl   $0x8,-0xc94(%rbp)
    f507:	00 00 00 
    f50a:	c7 85 70 f3 ff ff 16 	movl   $0xad0bcf16,-0xc90(%rbp)
    f511:	cf 0b ad 
    f514:	c7 85 74 f3 ff ff 13 	movl   $0x33c31213,-0xc8c(%rbp)
    f51b:	12 c3 33 
    f51e:	c7 85 78 f3 ff ff 13 	movl   $0x33c31213,-0xc88(%rbp)
    f525:	12 c3 33 
    f528:	c7 85 7c f3 ff ff 16 	movl   $0xad0bcf16,-0xc84(%rbp)
    f52f:	cf 0b ad 
    f532:	c7 85 80 f3 ff ff ff 	movl   $0xffffffff,-0xc80(%rbp)
    f539:	ff ff ff 
    f53c:	c7 85 84 f3 ff ff 16 	movl   $0xad0bcf16,-0xc7c(%rbp)
    f543:	cf 0b ad 
    f546:	c7 85 88 f3 ff ff 16 	movl   $0xad0bcf16,-0xc78(%rbp)
    f54d:	cf 0b ad 
    f550:	c7 85 8c f3 ff ff ff 	movl   $0xffffffff,-0xc74(%rbp)
    f557:	ff ff ff 
    f55a:	c7 85 90 f3 ff ff ff 	movl   $0xffffffff,-0xc70(%rbp)
    f561:	ff ff ff 
    f564:	c7 85 94 f3 ff ff ff 	movl   $0xffffffff,-0xc6c(%rbp)
    f56b:	ff ff ff 
    f56e:	c7 85 98 f3 ff ff 16 	movl   $0xad0bcf16,-0xc68(%rbp)
    f575:	cf 0b ad 
    f578:	c7 85 9c f3 ff ff 16 	movl   $0xad0bcf16,-0xc64(%rbp)
    f57f:	cf 0b ad 
    f582:	c7 85 a0 f3 ff ff 16 	movl   $0xad0bcf16,-0xc60(%rbp)
    f589:	cf 0b ad 
    f58c:	c7 85 a4 f3 ff ff ff 	movl   $0xffffffff,-0xc5c(%rbp)
    f593:	ff ff ff 
    f596:	c7 85 a8 f3 ff ff 08 	movl   $0x8,-0xc58(%rbp)
    f59d:	00 00 00 
    f5a0:	c7 85 ac f3 ff ff 08 	movl   $0x8,-0xc54(%rbp)
    f5a7:	00 00 00 
    f5aa:	c7 85 b0 f3 ff ff ff 	movl   $0xffffffff,-0xc50(%rbp)
    f5b1:	ff ff ff 
    f5b4:	c7 85 b4 f3 ff ff 16 	movl   $0xad0bcf16,-0xc4c(%rbp)
    f5bb:	cf 0b ad 
    f5be:	c7 85 b8 f3 ff ff ff 	movl   $0xffffffff,-0xc48(%rbp)
    f5c5:	ff ff ff 
    f5c8:	c7 85 bc f3 ff ff 08 	movl   $0x8,-0xc44(%rbp)
    f5cf:	00 00 00 
    f5d2:	c7 85 c0 f3 ff ff ff 	movl   $0xffffffff,-0xc40(%rbp)
    f5d9:	ff ff ff 
    f5dc:	c7 85 c4 f3 ff ff ff 	movl   $0xffffffff,-0xc3c(%rbp)
    f5e3:	ff ff ff 
    f5e6:	c7 85 c8 f3 ff ff ff 	movl   $0xffffffff,-0xc38(%rbp)
    f5ed:	ff ff ff 
    f5f0:	c7 85 cc f3 ff ff 16 	movl   $0xad0bcf16,-0xc34(%rbp)
    f5f7:	cf 0b ad 
    f5fa:	c7 85 d0 f3 ff ff 16 	movl   $0xad0bcf16,-0xc30(%rbp)
    f601:	cf 0b ad 
    f604:	c7 85 d4 f3 ff ff ff 	movl   $0xffffffff,-0xc2c(%rbp)
    f60b:	ff ff ff 
    f60e:	c7 85 d8 f3 ff ff ff 	movl   $0xffffffff,-0xc28(%rbp)
    f615:	ff ff ff 
    f618:	c7 85 dc f3 ff ff ff 	movl   $0xffffffff,-0xc24(%rbp)
    f61f:	ff ff ff 
    f622:	48 8b 05 87 cb 00 00 	mov    0xcb87(%rip),%rax        # 1c1b0 <g_1348>
    f629:	8b 00                	mov    (%rax),%eax
    f62b:	85 c0                	test   %eax,%eax
    f62d:	75 4b                	jne    f67a <func_1+0x5ec5>
    f62f:	48 8b 85 e0 e9 ff ff 	mov    -0x1620(%rbp),%rax
    f636:	48 c7 00 00 00 00 00 	movq   $0x0,(%rax)
    f63d:	0f b6 45 aa          	movzbl -0x56(%rbp),%eax
    f641:	83 e8 01             	sub    $0x1,%eax
    f644:	88 45 aa             	mov    %al,-0x56(%rbp)
    f647:	48 8b 85 90 e7 ff ff 	mov    -0x1870(%rbp),%rax
    f64e:	0f b6 c0             	movzbl %al,%eax
    f651:	be 07 00 00 00       	mov    $0x7,%esi
    f656:	89 c7                	mov    %eax,%edi
    f658:	e8 fd 94 ff ff       	callq  8b5a <safe_add_func_uint8_t_u_u>
    f65d:	0f b6 c0             	movzbl %al,%eax
    f660:	48 89 85 90 e7 ff ff 	mov    %rax,-0x1870(%rbp)
    f667:	48 8b 85 90 e7 ff ff 	mov    -0x1870(%rbp),%rax
    f66e:	48 83 f8 14          	cmp    $0x14,%rax
    f672:	0f 8f 5e fd ff ff    	jg     f3d6 <func_1+0x5c21>
    f678:	eb 01                	jmp    f67b <func_1+0x5ec6>
    f67a:	90                   	nop
    f67b:	48 8b 05 8e c6 00 00 	mov    0xc68e(%rip),%rax        # 1bd10 <g_552>
    f682:	48 8b 00             	mov    (%rax),%rax
    f685:	48 8b 00             	mov    (%rax),%rax
    f688:	e9 7c 0e 00 00       	jmpq   10509 <func_1+0x6d54>
    f68d:	48 8b 85 50 e9 ff ff 	mov    -0x16b0(%rbp),%rax
    f694:	8b 00                	mov    (%rax),%eax
    f696:	33 85 e8 e6 ff ff    	xor    -0x1918(%rbp),%eax
    f69c:	89 c2                	mov    %eax,%edx
    f69e:	48 8b 85 50 e9 ff ff 	mov    -0x16b0(%rbp),%rax
    f6a5:	89 10                	mov    %edx,(%rax)
    f6a7:	8b 85 e8 e6 ff ff    	mov    -0x1918(%rbp),%eax
    f6ad:	0f b6 c0             	movzbl %al,%eax
    f6b0:	be 02 00 00 00       	mov    $0x2,%esi
    f6b5:	89 c7                	mov    %eax,%edi
    f6b7:	e8 49 95 ff ff       	callq  8c05 <safe_lshift_func_uint8_t_u_s>
    f6bc:	8b 85 e8 e6 ff ff    	mov    -0x1918(%rbp),%eax
    f6c2:	98                   	cwtl   
    f6c3:	be 09 00 00 00       	mov    $0x9,%esi
    f6c8:	89 c7                	mov    %eax,%edi
    f6ca:	e8 94 8e ff ff       	callq  8563 <safe_rshift_func_int16_t_s_u>
    f6cf:	66 85 c0             	test   %ax,%ax
    f6d2:	74 4f                	je     f723 <func_1+0x5f6e>
    f6d4:	48 8b 85 f8 eb ff ff 	mov    -0x1408(%rbp),%rax
    f6db:	0f b7 d8             	movzwl %ax,%ebx
    f6de:	48 8b 85 40 e9 ff ff 	mov    -0x16c0(%rbp),%rax
    f6e5:	8b 00                	mov    (%rax),%eax
    f6e7:	48 8b 95 78 e7 ff ff 	mov    -0x1888(%rbp),%rdx
    f6ee:	66 c7 02 20 f6       	movw   $0xf620,(%rdx)
    f6f3:	89 c6                	mov    %eax,%esi
    f6f5:	bf 20 f6 ff ff       	mov    $0xfffff620,%edi
    f6fa:	e8 93 8d ff ff       	callq  8492 <safe_lshift_func_int16_t_s_s>
    f6ff:	0f bf d0             	movswl %ax,%edx
    f702:	48 8b 85 50 e9 ff ff 	mov    -0x16b0(%rbp),%rax
    f709:	8b 00                	mov    (%rax),%eax
    f70b:	39 c2                	cmp    %eax,%edx
    f70d:	0f 95 c0             	setne  %al
    f710:	0f b6 c0             	movzbl %al,%eax
    f713:	89 de                	mov    %ebx,%esi
    f715:	89 c7                	mov    %eax,%edi
    f717:	e8 40 96 ff ff       	callq  8d5c <safe_mod_func_uint16_t_u_u>
    f71c:	ba 01 00 00 00       	mov    $0x1,%edx
    f721:	eb 05                	jmp    f728 <func_1+0x5f73>
    f723:	ba 00 00 00 00       	mov    $0x0,%edx
    f728:	48 8b 85 50 e9 ff ff 	mov    -0x16b0(%rbp),%rax
    f72f:	8b 00                	mov    (%rax),%eax
    f731:	39 c2                	cmp    %eax,%edx
    f733:	83 bd 00 e7 ff ff 00 	cmpl   $0x0,-0x1900(%rbp)
    f73a:	75 36                	jne    f772 <func_1+0x5fbd>
    f73c:	0f b7 05 1f a3 00 00 	movzwl 0xa31f(%rip),%eax        # 19a62 <g_1986>
    f743:	66 85 c0             	test   %ax,%ax
    f746:	75 2a                	jne    f772 <func_1+0x5fbd>
    f748:	48 8b 85 48 e9 ff ff 	mov    -0x16b8(%rbp),%rax
    f74f:	48 8b 00             	mov    (%rax),%rax
    f752:	0f b6 10             	movzbl (%rax),%edx
    f755:	48 8b 85 48 e9 ff ff 	mov    -0x16b8(%rbp),%rax
    f75c:	48 8b 00             	mov    (%rax),%rax
    f75f:	83 ca 01             	or     $0x1,%edx
    f762:	88 10                	mov    %dl,(%rax)
    f764:	0f b6 00             	movzbl (%rax),%eax
    f767:	0f be c0             	movsbl %al,%eax
    f76a:	39 85 e8 e6 ff ff    	cmp    %eax,-0x1918(%rbp)
    f770:	7f 07                	jg     f779 <func_1+0x5fc4>
    f772:	ba 01 00 00 00       	mov    $0x1,%edx
    f777:	eb 05                	jmp    f77e <func_1+0x5fc9>
    f779:	ba 00 00 00 00       	mov    $0x0,%edx
    f77e:	48 8b 85 40 e9 ff ff 	mov    -0x16c0(%rbp),%rax
    f785:	8b 00                	mov    (%rax),%eax
    f787:	21 d0                	and    %edx,%eax
    f789:	be ff ff ff ff       	mov    $0xffffffff,%esi
    f78e:	89 c7                	mov    %eax,%edi
    f790:	e8 21 8e ff ff       	callq  85b6 <safe_add_func_int32_t_s_s>
    f795:	48 63 d0             	movslq %eax,%rdx
    f798:	48 8b 05 c9 a2 00 00 	mov    0xa2c9(%rip),%rax        # 19a68 <g_1999>
    f79f:	48 21 d0             	and    %rdx,%rax
    f7a2:	48 89 05 bf a2 00 00 	mov    %rax,0xa2bf(%rip)        # 19a68 <g_1999>
    f7a9:	e9 7a 09 00 00       	jmpq   10128 <func_1+0x6973>
    f7ae:	48 8d 85 a0 eb ff ff 	lea    -0x1460(%rbp),%rax
    f7b5:	48 83 c0 0c          	add    $0xc,%rax
    f7b9:	48 89 85 10 e8 ff ff 	mov    %rax,-0x17f0(%rbp)
    f7c0:	48 8d 05 89 9e 00 00 	lea    0x9e89(%rip),%rax        # 19650 <g_142>
    f7c7:	48 89 85 18 e8 ff ff 	mov    %rax,-0x17e8(%rbp)
    f7ce:	c6 85 7c e5 ff ff 01 	movb   $0x1,-0x1a84(%rbp)
    f7d5:	48 8d 05 00 a2 00 00 	lea    0xa200(%rip),%rax        # 199dc <g_1635+0xc>
    f7dc:	48 89 85 b0 e7 ff ff 	mov    %rax,-0x1850(%rbp)
    f7e3:	48 8d 85 b0 e7 ff ff 	lea    -0x1850(%rbp),%rax
    f7ea:	48 89 85 88 e9 ff ff 	mov    %rax,-0x1678(%rbp)
    f7f1:	48 c7 85 b8 e7 ff ff 	movq   $0x0,-0x1848(%rbp)
    f7f8:	00 00 00 00 
    f7fc:	66 c7 85 b6 e5 ff ff 	movw   $0x0,-0x1a4a(%rbp)
    f803:	00 00 
    f805:	48 c7 85 90 e9 ff ff 	movq   $0x0,-0x1670(%rbp)
    f80c:	00 00 00 00 
    f810:	48 8d 85 a0 ea ff ff 	lea    -0x1560(%rbp),%rax
    f817:	48 83 c0 08          	add    $0x8,%rax
    f81b:	48 89 85 98 e9 ff ff 	mov    %rax,-0x1668(%rbp)
    f822:	c7 85 a0 e7 ff ff 00 	movl   $0x0,-0x1860(%rbp)
    f829:	00 00 00 
    f82c:	48 b8 c4 d2 7e bd 1c 	movabs $0x657621cbd7ed2c4,%rax
    f833:	62 57 06 
    f836:	48 89 85 a0 e9 ff ff 	mov    %rax,-0x1660(%rbp)
    f83d:	c6 85 84 e5 ff ff f9 	movb   $0xf9,-0x1a7c(%rbp)
    f844:	66 c7 05 f7 9f 00 00 	movw   $0x0,0x9ff7(%rip)        # 19844 <g_618>
    f84b:	00 00 
    f84d:	eb 3e                	jmp    f88d <func_1+0x60d8>
    f84f:	66 c7 85 ba e5 ff ff 	movw   $0x7,-0x1a46(%rbp)
    f856:	07 00 
    f858:	66 c7 85 bc e5 ff ff 	movw   $0x22b8,-0x1a44(%rbp)
    f85f:	b8 22 
    f861:	0f b7 85 bc e5 ff ff 	movzwl -0x1a44(%rbp),%eax
    f868:	83 e8 01             	sub    $0x1,%eax
    f86b:	66 89 85 bc e5 ff ff 	mov    %ax,-0x1a44(%rbp)
    f872:	0f b7 05 cb 9f 00 00 	movzwl 0x9fcb(%rip),%eax        # 19844 <g_618>
    f879:	98                   	cwtl   
    f87a:	be 07 00 00 00       	mov    $0x7,%esi
    f87f:	89 c7                	mov    %eax,%edi
    f881:	e8 7f 8d ff ff       	callq  8605 <safe_sub_func_int32_t_s_s>
    f886:	66 89 05 b7 9f 00 00 	mov    %ax,0x9fb7(%rip)        # 19844 <g_618>
    f88d:	0f b7 05 b0 9f 00 00 	movzwl 0x9fb0(%rip),%eax        # 19844 <g_618>
    f894:	66 83 f8 e6          	cmp    $0xffe6,%ax
    f898:	7c b5                	jl     f84f <func_1+0x609a>
    f89a:	c7 85 44 e6 ff ff 0c 	movl   $0xc,-0x19bc(%rbp)
    f8a1:	00 00 00 
    f8a4:	e9 fa 00 00 00       	jmpq   f9a3 <func_1+0x61ee>
    f8a9:	c7 85 f8 e6 ff ff 00 	movl   $0x0,-0x1908(%rbp)
    f8b0:	00 00 00 
    f8b3:	c7 85 fc e6 ff ff 01 	movl   $0x1,-0x1904(%rbp)
    f8ba:	00 00 00 
    f8bd:	c7 85 1c e6 ff ff 00 	movl   $0x0,-0x19e4(%rbp)
    f8c4:	00 00 00 
    f8c7:	eb 1a                	jmp    f8e3 <func_1+0x612e>
    f8c9:	8b 85 1c e6 ff ff    	mov    -0x19e4(%rbp),%eax
    f8cf:	48 98                	cltq   
    f8d1:	c7 84 85 00 f3 ff ff 	movl   $0x0,-0xd00(%rbp,%rax,4)
    f8d8:	00 00 00 00 
    f8dc:	83 85 1c e6 ff ff 01 	addl   $0x1,-0x19e4(%rbp)
    f8e3:	83 bd 1c e6 ff ff 06 	cmpl   $0x6,-0x19e4(%rbp)
    f8ea:	7e dd                	jle    f8c9 <func_1+0x6114>
    f8ec:	48 8d 85 98 e7 ff ff 	lea    -0x1868(%rbp),%rax
    f8f3:	48 89 85 10 e8 ff ff 	mov    %rax,-0x17f0(%rbp)
    f8fa:	48 8b 85 10 e8 ff ff 	mov    -0x17f0(%rbp),%rax
    f901:	48 89 85 18 e8 ff ff 	mov    %rax,-0x17e8(%rbp)
    f908:	48 8b 05 b1 cb 00 00 	mov    0xcbb1(%rip),%rax        # 1c4c0 <g_2011>
    f90f:	48 8b 95 60 e9 ff ff 	mov    -0x16a0(%rbp),%rdx
    f916:	48 89 10             	mov    %rdx,(%rax)
    f919:	0f b6 85 7c e5 ff ff 	movzbl -0x1a84(%rbp),%eax
    f920:	83 e8 01             	sub    $0x1,%eax
    f923:	88 85 7c e5 ff ff    	mov    %al,-0x1a84(%rbp)
    f929:	c6 85 79 e5 ff ff 00 	movb   $0x0,-0x1a87(%rbp)
    f930:	eb 4a                	jmp    f97c <func_1+0x61c7>
    f932:	0f b6 85 79 e5 ff ff 	movzbl -0x1a87(%rbp),%eax
    f939:	48 98                	cltq   
    f93b:	48 8d 14 85 00 00 00 	lea    0x0(,%rax,4),%rdx
    f942:	00 
    f943:	48 8d 05 e6 96 00 00 	lea    0x96e6(%rip),%rax        # 19030 <g_3>
    f94a:	8b 04 02             	mov    (%rdx,%rax,1),%eax
    f94d:	85 c0                	test   %eax,%eax
    f94f:	75 36                	jne    f987 <func_1+0x61d2>
    f951:	48 8b 05 d0 c3 00 00 	mov    0xc3d0(%rip),%rax        # 1bd28 <g_782>
    f958:	48 8b 00             	mov    (%rax),%rax
    f95b:	48 85 c0             	test   %rax,%rax
    f95e:	0f 95 c0             	setne  %al
    f961:	0f b6 c0             	movzbl %al,%eax
    f964:	48 8b 1d 0d c8 00 00 	mov    0xc80d(%rip),%rbx        # 1c178 <g_1161>
    f96b:	89 c7                	mov    %eax,%edi
    f96d:	e8 f6 32 00 00       	callq  12c68 <func_46>
    f972:	48 89 03             	mov    %rax,(%rbx)
    f975:	80 85 79 e5 ff ff 01 	addb   $0x1,-0x1a87(%rbp)
    f97c:	80 bd 79 e5 ff ff 06 	cmpb   $0x6,-0x1a87(%rbp)
    f983:	76 ad                	jbe    f932 <func_1+0x617d>
    f985:	eb 01                	jmp    f988 <func_1+0x61d3>
    f987:	90                   	nop
    f988:	8b 85 44 e6 ff ff    	mov    -0x19bc(%rbp),%eax
    f98e:	48 98                	cltq   
    f990:	be 01 00 00 00       	mov    $0x1,%esi
    f995:	48 89 c7             	mov    %rax,%rdi
    f998:	e8 0b 8f ff ff       	callq  88a8 <safe_sub_func_int64_t_s_s>
    f99d:	89 85 44 e6 ff ff    	mov    %eax,-0x19bc(%rbp)
    f9a3:	83 bd 44 e6 ff ff fe 	cmpl   $0xfffffffe,-0x19bc(%rbp)
    f9aa:	0f 8c f9 fe ff ff    	jl     f8a9 <func_1+0x60f4>
    f9b0:	8b 9d e8 e6 ff ff    	mov    -0x1918(%rbp),%ebx
    f9b6:	4c 8b 25 eb a0 00 00 	mov    0xa0eb(%rip),%r12        # 19aa8 <g_2035>
    f9bd:	48 8b 85 10 e8 ff ff 	mov    -0x17f0(%rbp),%rax
    f9c4:	c7 00 37 89 9a 0e    	movl   $0xe9a8937,(%rax)
    f9ca:	48 8b 85 40 e9 ff ff 	mov    -0x16c0(%rbp),%rax
    f9d1:	8b 00                	mov    (%rax),%eax
    f9d3:	85 c0                	test   %eax,%eax
    f9d5:	0f 9e c2             	setle  %dl
    f9d8:	48 8b 05 39 c3 00 00 	mov    0xc339(%rip),%rax        # 1bd18 <g_653>
    f9df:	48 8b 00             	mov    (%rax),%rax
    f9e2:	48 39 85 88 e9 ff ff 	cmp    %rax,-0x1678(%rbp)
    f9e9:	0f 95 c0             	setne  %al
    f9ec:	09 d0                	or     %edx,%eax
    f9ee:	44 0f b6 f0          	movzbl %al,%r14d
    f9f2:	48 8b 05 8f a0 00 00 	mov    0xa08f(%rip),%rax        # 19a88 <g_2034+0x8>
    f9f9:	44 0f b7 e8          	movzwl %ax,%r13d
    f9fd:	48 83 bd 68 e9 ff ff 	cmpq   $0x0,-0x1698(%rbp)
    fa04:	00 
    fa05:	0f 95 c0             	setne  %al
    fa08:	89 c2                	mov    %eax,%edx
    fa0a:	48 8b 85 50 e9 ff ff 	mov    -0x16b0(%rbp),%rax
    fa11:	8b 00                	mov    (%rax),%eax
    fa13:	21 d0                	and    %edx,%eax
    fa15:	0f be d0             	movsbl %al,%edx
    fa18:	8b 85 e8 e6 ff ff    	mov    -0x1918(%rbp),%eax
    fa1e:	0f be c0             	movsbl %al,%eax
    fa21:	89 d6                	mov    %edx,%esi
    fa23:	89 c7                	mov    %eax,%edi
    fa25:	e8 40 88 ff ff       	callq  826a <safe_div_func_int8_t_s_s>
    fa2a:	0f be c0             	movsbl %al,%eax
    fa2d:	be 0d 00 00 00       	mov    $0xd,%esi
    fa32:	89 c7                	mov    %eax,%edi
    fa34:	e8 f1 8a ff ff       	callq  852a <safe_rshift_func_int16_t_s_s>
    fa39:	48 8b 85 40 e9 ff ff 	mov    -0x16c0(%rbp),%rax
    fa40:	8b 00                	mov    (%rax),%eax
    fa42:	39 85 e8 e6 ff ff    	cmp    %eax,-0x1918(%rbp)
    fa48:	0f 95 c0             	setne  %al
    fa4b:	0f b6 c0             	movzbl %al,%eax
    fa4e:	44 89 ee             	mov    %r13d,%esi
    fa51:	89 c7                	mov    %eax,%edi
    fa53:	e8 e5 92 ff ff       	callq  8d3d <safe_mul_func_uint16_t_u_u>
    fa58:	0f b7 c0             	movzwl %ax,%eax
    fa5b:	44 89 f2             	mov    %r14d,%edx
    fa5e:	31 c2                	xor    %eax,%edx
    fa60:	48 8b 85 e0 e7 ff ff 	mov    -0x1820(%rbp),%rax
    fa67:	48 8b 00             	mov    (%rax),%rax
    fa6a:	48 8b 00             	mov    (%rax),%rax
    fa6d:	48 63 d2             	movslq %edx,%rdx
    fa70:	48 89 10             	mov    %rdx,(%rax)
    fa73:	48 8b 00             	mov    (%rax),%rax
    fa76:	4c 89 e6             	mov    %r12,%rsi
    fa79:	48 89 c7             	mov    %rax,%rdi
    fa7c:	e8 ff 95 ff ff       	callq  9080 <safe_mod_func_uint64_t_u_u>
    fa81:	8b 95 d8 e6 ff ff    	mov    -0x1928(%rbp),%edx
    fa87:	48 39 d0             	cmp    %rdx,%rax
    fa8a:	0f 95 c0             	setne  %al
    fa8d:	89 c2                	mov    %eax,%edx
    fa8f:	48 8b 85 50 e9 ff ff 	mov    -0x16b0(%rbp),%rax
    fa96:	8b 00                	mov    (%rax),%eax
    fa98:	31 d0                	xor    %edx,%eax
    fa9a:	0f b6 c0             	movzbl %al,%eax
    fa9d:	89 de                	mov    %ebx,%esi
    fa9f:	89 c7                	mov    %eax,%edi
    faa1:	e8 a6 91 ff ff       	callq  8c4c <safe_lshift_func_uint8_t_u_u>
    faa6:	66 c7 85 b8 e5 ff ff 	movw   $0x45ef,-0x1a48(%rbp)
    faad:	ef 45 
    faaf:	48 8d 85 74 e5 ff ff 	lea    -0x1a8c(%rbp),%rax
    fab6:	48 89 85 a8 e9 ff ff 	mov    %rax,-0x1658(%rbp)
    fabd:	48 c7 85 b0 e9 ff ff 	movq   $0x0,-0x1650(%rbp)
    fac4:	00 00 00 00 
    fac8:	48 c7 85 b8 e9 ff ff 	movq   $0x0,-0x1648(%rbp)
    facf:	00 00 00 00 
    fad3:	48 8d 05 78 97 00 00 	lea    0x9778(%rip),%rax        # 19252 <g_63>
    fada:	48 89 85 c0 e9 ff ff 	mov    %rax,-0x1640(%rbp)
    fae1:	48 8d 85 a0 ea ff ff 	lea    -0x1560(%rbp),%rax
    fae8:	48 89 85 c8 e9 ff ff 	mov    %rax,-0x1638(%rbp)
    faef:	c6 85 85 e5 ff ff 00 	movb   $0x0,-0x1a7b(%rbp)
    faf6:	c7 85 e0 ec ff ff 54 	movl   $0x7b66e354,-0x1320(%rbp)
    fafd:	e3 66 7b 
    fb00:	c7 85 e4 ec ff ff 54 	movl   $0x7b66e354,-0x131c(%rbp)
    fb07:	e3 66 7b 
    fb0a:	c7 85 e8 ec ff ff 00 	movl   $0x0,-0x1318(%rbp)
    fb11:	00 00 00 
    fb14:	c7 85 ec ec ff ff 54 	movl   $0x7b66e354,-0x1314(%rbp)
    fb1b:	e3 66 7b 
    fb1e:	c7 85 f0 ec ff ff 54 	movl   $0x7b66e354,-0x1310(%rbp)
    fb25:	e3 66 7b 
    fb28:	c7 85 f4 ec ff ff 00 	movl   $0x0,-0x130c(%rbp)
    fb2f:	00 00 00 
    fb32:	c7 85 f8 ec ff ff 54 	movl   $0x7b66e354,-0x1308(%rbp)
    fb39:	e3 66 7b 
    fb3c:	c7 85 fc ec ff ff 54 	movl   $0x7b66e354,-0x1304(%rbp)
    fb43:	e3 66 7b 
    fb46:	48 8d 85 78 e7 ff ff 	lea    -0x1888(%rbp),%rax
    fb4d:	48 89 85 80 ed ff ff 	mov    %rax,-0x1280(%rbp)
    fb54:	48 8d 05 bd d0 00 00 	lea    0xd0bd(%rip),%rax        # 1cc18 <g_1403>
    fb5b:	48 89 85 88 ed ff ff 	mov    %rax,-0x1278(%rbp)
    fb62:	48 8d 85 78 e7 ff ff 	lea    -0x1888(%rbp),%rax
    fb69:	48 89 85 90 ed ff ff 	mov    %rax,-0x1270(%rbp)
    fb70:	48 8d 85 78 e7 ff ff 	lea    -0x1888(%rbp),%rax
    fb77:	48 89 85 98 ed ff ff 	mov    %rax,-0x1268(%rbp)
    fb7e:	48 8d 05 93 d0 00 00 	lea    0xd093(%rip),%rax        # 1cc18 <g_1403>
    fb85:	48 89 85 a0 ed ff ff 	mov    %rax,-0x1260(%rbp)
    fb8c:	48 8d 85 78 e7 ff ff 	lea    -0x1888(%rbp),%rax
    fb93:	48 89 85 a8 ed ff ff 	mov    %rax,-0x1258(%rbp)
    fb9a:	48 8d 85 78 e7 ff ff 	lea    -0x1888(%rbp),%rax
    fba1:	48 89 85 b0 ed ff ff 	mov    %rax,-0x1250(%rbp)
    fba8:	48 8d 05 69 d0 00 00 	lea    0xd069(%rip),%rax        # 1cc18 <g_1403>
    fbaf:	48 89 85 b8 ed ff ff 	mov    %rax,-0x1248(%rbp)
    fbb6:	48 8d 85 78 e7 ff ff 	lea    -0x1888(%rbp),%rax
    fbbd:	48 89 85 c0 ed ff ff 	mov    %rax,-0x1240(%rbp)
    fbc4:	48 8d 85 78 e7 ff ff 	lea    -0x1888(%rbp),%rax
    fbcb:	48 89 85 c8 ed ff ff 	mov    %rax,-0x1238(%rbp)
    fbd2:	c7 85 f0 e6 ff ff f6 	movl   $0xfffffff6,-0x1910(%rbp)
    fbd9:	ff ff ff 
    fbdc:	66 83 bd b8 e5 ff ff 	cmpw   $0x0,-0x1a48(%rbp)
    fbe3:	00 
    fbe4:	0f 85 12 09 00 00    	jne    104fc <func_1+0x6d47>
    fbea:	48 8b 05 87 c5 00 00 	mov    0xc587(%rip),%rax        # 1c178 <g_1161>
    fbf1:	48 c7 00 00 00 00 00 	movq   $0x0,(%rax)
    fbf8:	0f bf 9d b8 e5 ff ff 	movswl -0x1a48(%rbp),%ebx
    fbff:	0f b7 85 b6 e5 ff ff 	movzwl -0x1a4a(%rbp),%eax
    fc06:	44 0f be e0          	movsbl %al,%r12d
    fc0a:	48 8b 85 10 e8 ff ff 	mov    -0x17f0(%rbp),%rax
    fc11:	8b 00                	mov    (%rax),%eax
    fc13:	41 89 c5             	mov    %eax,%r13d
    fc16:	8b 85 e0 e5 ff ff    	mov    -0x1a20(%rbp),%eax
    fc1c:	0f b6 c0             	movzbl %al,%eax
    fc1f:	25 b2 00 00 00       	and    $0xb2,%eax
    fc24:	be 01 00 00 00       	mov    $0x1,%esi
    fc29:	89 c7                	mov    %eax,%edi
    fc2b:	e8 d5 8f ff ff       	callq  8c05 <safe_lshift_func_uint8_t_u_s>
    fc30:	48 8b 85 80 e9 ff ff 	mov    -0x1680(%rbp),%rax
    fc37:	48 3b 85 60 e9 ff ff 	cmp    -0x16a0(%rbp),%rax
    fc3e:	0f 95 c0             	setne  %al
    fc41:	0f b6 c0             	movzbl %al,%eax
    fc44:	48 89 c7             	mov    %rax,%rdi
    fc47:	e8 cd 93 ff ff       	callq  9019 <safe_unary_minus_func_uint64_t_u>
    fc4c:	48 8b 85 88 e9 ff ff 	mov    -0x1678(%rbp),%rax
    fc53:	48 8b 00             	mov    (%rax),%rax
    fc56:	48 8b 95 70 e9 ff ff 	mov    -0x1690(%rbp),%rdx
    fc5d:	66 89 10             	mov    %dx,(%rax)
    fc60:	0f b7 00             	movzwl (%rax),%eax
    fc63:	0f b7 c0             	movzwl %ax,%eax
    fc66:	be 00 00 00 00       	mov    $0x0,%esi
    fc6b:	89 c7                	mov    %eax,%edi
    fc6d:	e8 1c 91 ff ff       	callq  8d8e <safe_div_func_uint16_t_u_u>
    fc72:	0f be c0             	movsbl %al,%eax
    fc75:	44 89 ee             	mov    %r13d,%esi
    fc78:	89 c7                	mov    %eax,%edi
    fc7a:	e8 ed 86 ff ff       	callq  836c <safe_rshift_func_int8_t_s_u>
    fc7f:	44 89 e6             	mov    %r12d,%esi
    fc82:	bf f7 ff ff ff       	mov    $0xfffffff7,%edi
    fc87:	e8 86 85 ff ff       	callq  8212 <safe_mul_func_int8_t_s_s>
    fc8c:	0f b6 c0             	movzbl %al,%eax
    fc8f:	89 de                	mov    %ebx,%esi
    fc91:	89 c7                	mov    %eax,%edi
    fc93:	e8 b4 8f ff ff       	callq  8c4c <safe_lshift_func_uint8_t_u_u>
    fc98:	0f b6 c0             	movzbl %al,%eax
    fc9b:	be 7a c6 37 92       	mov    $0x9237c67a,%esi
    fca0:	89 c7                	mov    %eax,%edi
    fca2:	e8 56 92 ff ff       	callq  8efd <safe_mod_func_uint32_t_u_u>
    fca7:	89 c2                	mov    %eax,%edx
    fca9:	48 8b 85 c0 e9 ff ff 	mov    -0x1640(%rbp),%rax
    fcb0:	66 89 10             	mov    %dx,(%rax)
    fcb3:	48 8b 85 c0 e9 ff ff 	mov    -0x1640(%rbp),%rax
    fcba:	0f b7 00             	movzwl (%rax),%eax
    fcbd:	0f bf d0             	movswl %ax,%edx
    fcc0:	48 8b 85 78 e7 ff ff 	mov    -0x1888(%rbp),%rax
    fcc7:	66 c7 00 b9 c0       	movw   $0xc0b9,(%rax)
    fccc:	c7 85 e8 e6 ff ff b9 	movl   $0xffffc0b9,-0x1918(%rbp)
    fcd3:	c0 ff ff 
    fcd6:	8b 85 e8 e6 ff ff    	mov    -0x1918(%rbp),%eax
    fcdc:	98                   	cwtl   
    fcdd:	89 d6                	mov    %edx,%esi
    fcdf:	89 c7                	mov    %eax,%edi
    fce1:	e8 cd 86 ff ff       	callq  83b3 <safe_add_func_int16_t_s_s>
    fce6:	c6 85 86 e5 ff ff 01 	movb   $0x1,-0x1a7a(%rbp)
    fced:	c7 85 30 ec ff ff 00 	movl   $0x0,-0x13d0(%rbp)
    fcf4:	00 00 00 
    fcf7:	c7 85 34 ec ff ff 00 	movl   $0x0,-0x13cc(%rbp)
    fcfe:	00 00 00 
    fd01:	c7 85 38 ec ff ff 00 	movl   $0x0,-0x13c8(%rbp)
    fd08:	00 00 00 
    fd0b:	c7 85 3c ec ff ff 00 	movl   $0x0,-0x13c4(%rbp)
    fd12:	00 00 00 
    fd15:	c7 85 40 ec ff ff 00 	movl   $0x0,-0x13c0(%rbp)
    fd1c:	00 00 00 
    fd1f:	c7 85 20 e6 ff ff 00 	movl   $0x0,-0x19e0(%rbp)
    fd26:	00 00 00 
    fd29:	eb 55                	jmp    fd80 <func_1+0x65cb>
    fd2b:	c7 85 24 e6 ff ff 00 	movl   $0x0,-0x19dc(%rbp)
    fd32:	00 00 00 
    fd35:	eb 39                	jmp    fd70 <func_1+0x65bb>
    fd37:	8b 85 24 e6 ff ff    	mov    -0x19dc(%rbp),%eax
    fd3d:	48 63 c8             	movslq %eax,%rcx
    fd40:	8b 85 20 e6 ff ff    	mov    -0x19e0(%rbp),%eax
    fd46:	48 63 d0             	movslq %eax,%rdx
    fd49:	48 89 d0             	mov    %rdx,%rax
    fd4c:	48 c1 e0 02          	shl    $0x2,%rax
    fd50:	48 01 d0             	add    %rdx,%rax
    fd53:	48 01 c8             	add    %rcx,%rax
    fd56:	48 8d 95 a0 ea ff ff 	lea    -0x1560(%rbp),%rdx
    fd5d:	48 83 c2 08          	add    $0x8,%rdx
    fd61:	48 89 94 c5 00 f3 ff 	mov    %rdx,-0xd00(%rbp,%rax,8)
    fd68:	ff 
    fd69:	83 85 24 e6 ff ff 01 	addl   $0x1,-0x19dc(%rbp)
    fd70:	83 bd 24 e6 ff ff 04 	cmpl   $0x4,-0x19dc(%rbp)
    fd77:	7e be                	jle    fd37 <func_1+0x6582>
    fd79:	83 85 20 e6 ff ff 01 	addl   $0x1,-0x19e0(%rbp)
    fd80:	83 bd 20 e6 ff ff 07 	cmpl   $0x7,-0x19e0(%rbp)
    fd87:	7e a2                	jle    fd2b <func_1+0x6576>
    fd89:	48 8b 85 90 e9 ff ff 	mov    -0x1670(%rbp),%rax
    fd90:	48 89 85 10 e8 ff ff 	mov    %rax,-0x17f0(%rbp)
    fd97:	0f b6 85 86 e5 ff ff 	movzbl -0x1a7a(%rbp),%eax
    fd9e:	0f b6 d8             	movzbl %al,%ebx
    fda1:	48 8b 85 50 e9 ff ff 	mov    -0x16b0(%rbp),%rax
    fda8:	8b 00                	mov    (%rax),%eax
    fdaa:	41 89 c6             	mov    %eax,%r14d
    fdad:	44 0f b6 a5 85 e5 ff 	movzbl -0x1a7b(%rbp),%r12d
    fdb4:	ff 
    fdb5:	48 8b 05 f4 c3 00 00 	mov    0xc3f4(%rip),%rax        # 1c1b0 <g_1348>
    fdbc:	48 8b 85 18 e8 ff ff 	mov    -0x17e8(%rbp),%rax
    fdc3:	44 8b 28             	mov    (%rax),%r13d
    fdc6:	8b 85 3c f8 ff ff    	mov    -0x7c4(%rbp),%eax
    fdcc:	0f be c0             	movsbl %al,%eax
    fdcf:	89 c6                	mov    %eax,%esi
    fdd1:	bf 5d 00 00 00       	mov    $0x5d,%edi
    fdd6:	e8 f9 83 ff ff       	callq  81d4 <safe_add_func_int8_t_s_s>
    fddb:	38 85 86 e5 ff ff    	cmp    %al,-0x1a7a(%rbp)
    fde1:	0f 9f c0             	setg   %al
    fde4:	0f b6 c0             	movzbl %al,%eax
    fde7:	41 39 c5             	cmp    %eax,%r13d
    fdea:	0f 95 c0             	setne  %al
    fded:	0f b6 c0             	movzbl %al,%eax
    fdf0:	44 89 e6             	mov    %r12d,%esi
    fdf3:	89 c7                	mov    %eax,%edi
    fdf5:	e8 05 8f ff ff       	callq  8cff <safe_add_func_uint16_t_u_u>
    fdfa:	0f b7 c0             	movzwl %ax,%eax
    fdfd:	89 85 30 ec ff ff    	mov    %eax,-0x13d0(%rbp)
    fe03:	44 89 f6             	mov    %r14d,%esi
    fe06:	bf 01 00 00 00       	mov    $0x1,%edi
    fe0b:	e8 15 91 ff ff       	callq  8f25 <safe_div_func_uint32_t_u_u>
    fe10:	0f bf d0             	movswl %ax,%edx
    fe13:	48 8b 85 40 f3 ff ff 	mov    -0xcc0(%rbp),%rax
    fe1a:	48 89 85 c8 e9 ff ff 	mov    %rax,-0x1638(%rbp)
    fe21:	48 8b 05 20 ce 00 00 	mov    0xce20(%rip),%rax        # 1cc48 <g_1695>
    fe28:	48 89 85 98 e9 ff ff 	mov    %rax,-0x1668(%rbp)
    fe2f:	48 8b 85 c8 e9 ff ff 	mov    -0x1638(%rbp),%rax
    fe36:	48 3b 85 98 e9 ff ff 	cmp    -0x1668(%rbp),%rax
    fe3d:	0f 95 c0             	setne  %al
    fe40:	0f b6 c0             	movzbl %al,%eax
    fe43:	89 d6                	mov    %edx,%esi
    fe45:	89 c7                	mov    %eax,%edi
    fe47:	e8 09 86 ff ff       	callq  8455 <safe_div_func_int16_t_s_s>
    fe4c:	66 83 f8 01          	cmp    $0x1,%ax
    fe50:	0f 96 c0             	setbe  %al
    fe53:	22 85 86 e5 ff ff    	and    -0x1a7a(%rbp),%al
    fe59:	0f b6 c0             	movzbl %al,%eax
    fe5c:	89 de                	mov    %ebx,%esi
    fe5e:	89 c7                	mov    %eax,%edi
    fe60:	e8 2e 8d ff ff       	callq  8b93 <safe_mul_func_uint8_t_u_u>
    fe65:	be 07 00 00 00       	mov    $0x7,%esi
    fe6a:	bf 8d 00 00 00       	mov    $0x8d,%edi
    fe6f:	e8 4a 8e ff ff       	callq  8cbe <safe_rshift_func_uint8_t_u_u>
    fe74:	8b 95 3c f8 ff ff    	mov    -0x7c4(%rbp),%edx
    fe7a:	0f bf 85 b8 e5 ff ff 	movswl -0x1a48(%rbp),%eax
    fe81:	39 c2                	cmp    %eax,%edx
    fe83:	7d 09                	jge    fe8e <func_1+0x66d9>
    fe85:	80 bd 85 e5 ff ff 00 	cmpb   $0x0,-0x1a7b(%rbp)
    fe8c:	74 07                	je     fe95 <func_1+0x66e0>
    fe8e:	ba 01 00 00 00       	mov    $0x1,%edx
    fe93:	eb 05                	jmp    fe9a <func_1+0x66e5>
    fe95:	ba 00 00 00 00       	mov    $0x0,%edx
    fe9a:	0f bf 85 b8 e5 ff ff 	movswl -0x1a48(%rbp),%eax
    fea1:	39 c2                	cmp    %eax,%edx
    fea3:	0f 95 c0             	setne  %al
    fea6:	0f b6 d0             	movzbl %al,%edx
    fea9:	48 8b 85 50 e9 ff ff 	mov    -0x16b0(%rbp),%rax
    feb0:	89 10                	mov    %edx,(%rax)
    feb2:	48 8b 85 50 e9 ff ff 	mov    -0x16b0(%rbp),%rax
    feb9:	8b 00                	mov    (%rax),%eax
    febb:	89 85 e8 ec ff ff    	mov    %eax,-0x1318(%rbp)
    fec1:	0f b6 85 d0 e5 ff ff 	movzbl -0x1a30(%rbp),%eax
    fec8:	84 c0                	test   %al,%al
    feca:	0f 84 05 01 00 00    	je     ffd5 <func_1+0x6820>
    fed0:	48 b8 68 3d 28 1e a9 	movabs $0x10c9d8a91e283d68,%rax
    fed7:	d8 c9 10 
    feda:	48 89 85 d0 e9 ff ff 	mov    %rax,-0x1630(%rbp)
    fee1:	48 8d 85 00 f3 ff ff 	lea    -0xd00(%rbp),%rax
    fee8:	48 8d 15 71 5a 00 00 	lea    0x5a71(%rip),%rdx        # 15960 <g_1636+0x770>
    feef:	b9 24 00 00 00       	mov    $0x24,%ecx
    fef4:	48 89 c7             	mov    %rax,%rdi
    fef7:	48 89 d6             	mov    %rdx,%rsi
    fefa:	f3 48 a5             	rep movsq %ds:(%rsi),%es:(%rdi)
    fefd:	8b 85 e4 e5 ff ff    	mov    -0x1a1c(%rbp),%eax
    ff03:	0f b7 d8             	movzwl %ax,%ebx
    ff06:	48 8b 85 50 e9 ff ff 	mov    -0x16b0(%rbp),%rax
    ff0d:	8b 00                	mov    (%rax),%eax
    ff0f:	48 98                	cltq   
    ff11:	be 07 00 00 00       	mov    $0x7,%esi
    ff16:	48 89 c7             	mov    %rax,%rdi
    ff19:	e8 10 91 ff ff       	callq  902e <safe_add_func_uint64_t_u_u>
    ff1e:	48 89 c2             	mov    %rax,%rdx
    ff21:	8b 8d e8 ec ff ff    	mov    -0x1318(%rbp),%ecx
    ff27:	48 8b 85 78 e7 ff ff 	mov    -0x1888(%rbp),%rax
    ff2e:	66 89 08             	mov    %cx,(%rax)
    ff31:	0f b7 00             	movzwl (%rax),%eax
    ff34:	48 0f bf c0          	movswq %ax,%rax
    ff38:	48 b9 24 1b 94 52 ce 	movabs $0xfeeabdce52941b24,%rcx
    ff3f:	bd ea fe 
    ff42:	48 39 c8             	cmp    %rcx,%rax
    ff45:	0f 9d c0             	setge  %al
    ff48:	0f b6 c0             	movzbl %al,%eax
    ff4b:	48 09 c2             	or     %rax,%rdx
    ff4e:	48 8b 85 a8 e9 ff ff 	mov    -0x1658(%rbp),%rax
    ff55:	0f b6 00             	movzbl (%rax),%eax
    ff58:	09 c2                	or     %eax,%edx
    ff5a:	48 8b 85 a8 e9 ff ff 	mov    -0x1658(%rbp),%rax
    ff61:	88 10                	mov    %dl,(%rax)
    ff63:	48 8b 85 50 e9 ff ff 	mov    -0x16b0(%rbp),%rax
    ff6a:	8b 00                	mov    (%rax),%eax
    ff6c:	0b 85 e8 e6 ff ff    	or     -0x1918(%rbp),%eax
    ff72:	48 63 d0             	movslq %eax,%rdx
    ff75:	48 8b 05 d4 98 00 00 	mov    0x98d4(%rip),%rax        # 19850 <g_669>
    ff7c:	c1 e0 07             	shl    $0x7,%eax
    ff7f:	c1 f8 07             	sar    $0x7,%eax
    ff82:	89 c1                	mov    %eax,%ecx
    ff84:	48 8b 85 40 e9 ff ff 	mov    -0x16c0(%rbp),%rax
    ff8b:	8b 00                	mov    (%rax),%eax
    ff8d:	31 c8                	xor    %ecx,%eax
    ff8f:	48 98                	cltq   
    ff91:	48 89 d6             	mov    %rdx,%rsi
    ff94:	48 89 c7             	mov    %rax,%rdi
    ff97:	e8 18 8a ff ff       	callq  89b4 <safe_mod_func_int64_t_s_s>
    ff9c:	48 8b 85 40 e9 ff ff 	mov    -0x16c0(%rbp),%rax
    ffa3:	8b 00                	mov    (%rax),%eax
    ffa5:	85 c0                	test   %eax,%eax
    ffa7:	89 de                	mov    %ebx,%esi
    ffa9:	bf 01 00 00 00       	mov    $0x1,%edi
    ffae:	e8 6c 8d ff ff       	callq  8d1f <safe_sub_func_uint16_t_u_u>
    ffb3:	0f b7 d0             	movzwl %ax,%edx
    ffb6:	48 8b 85 18 e8 ff ff 	mov    -0x17e8(%rbp),%rax
    ffbd:	89 10                	mov    %edx,(%rax)
    ffbf:	0f b7 05 b2 cc 00 00 	movzwl 0xccb2(%rip),%eax        # 1cc78 <g_2109>
    ffc6:	83 c0 01             	add    $0x1,%eax
    ffc9:	66 89 05 a8 cc 00 00 	mov    %ax,0xcca8(%rip)        # 1cc78 <g_2109>
    ffd0:	e9 42 01 00 00       	jmpq   10117 <func_1+0x6962>
    ffd5:	c7 85 f4 e6 ff ff ce 	movl   $0xe61a07ce,-0x190c(%rbp)
    ffdc:	07 1a e6 
    ffdf:	8b 85 e8 e5 ff ff    	mov    -0x1a18(%rbp),%eax
    ffe5:	0f be d8             	movsbl %al,%ebx
    ffe8:	48 8b 85 18 e8 ff ff 	mov    -0x17e8(%rbp),%rax
    ffef:	8b 00                	mov    (%rax),%eax
    fff1:	4c 63 e0             	movslq %eax,%r12
    fff4:	48 8b 85 50 e9 ff ff 	mov    -0x16b0(%rbp),%rax
    fffb:	8b 00                	mov    (%rax),%eax
    fffd:	4c 63 e8             	movslq %eax,%r13
   10000:	8b 85 f4 ec ff ff    	mov    -0x130c(%rbp),%eax
   10006:	89 85 68 e5 ff ff    	mov    %eax,-0x1a98(%rbp)
   1000c:	44 8b b5 7c fa ff ff 	mov    -0x584(%rbp),%r14d
   10013:	48 8b 85 18 e8 ff ff 	mov    -0x17e8(%rbp),%rax
   1001a:	8b 00                	mov    (%rax),%eax
   1001c:	4c 63 f8             	movslq %eax,%r15
   1001f:	48 8d 05 c2 ba 00 00 	lea    0xbac2(%rip),%rax        # 1bae8 <g_454+0x8>
   10026:	48 89 05 13 c7 00 00 	mov    %rax,0xc713(%rip)        # 1c740 <g_2133>
   1002d:	48 8b 05 0c c7 00 00 	mov    0xc70c(%rip),%rax        # 1c740 <g_2133>
   10034:	48 8d 15 ad ba 00 00 	lea    0xbaad(%rip),%rdx        # 1bae8 <g_454+0x8>
   1003b:	48 39 d0             	cmp    %rdx,%rax
   1003e:	0f 95 c0             	setne  %al
   10041:	0f b6 d0             	movzbl %al,%edx
   10044:	0f be 85 84 e5 ff ff 	movsbl -0x1a7c(%rbp),%eax
   1004b:	89 d6                	mov    %edx,%esi
   1004d:	89 c7                	mov    %eax,%edi
   1004f:	e8 a1 83 ff ff       	callq  83f5 <safe_mul_func_int16_t_s_s>
   10054:	48 0f bf c0          	movswq %ax,%rax
   10058:	4c 89 fe             	mov    %r15,%rsi
   1005b:	48 89 c7             	mov    %rax,%rdi
   1005e:	e8 de 87 ff ff       	callq  8841 <safe_add_func_int64_t_s_s>
   10063:	48 8b 95 18 e8 ff ff 	mov    -0x17e8(%rbp),%rdx
   1006a:	8b 12                	mov    (%rdx),%edx
   1006c:	48 63 d2             	movslq %edx,%rdx
   1006f:	48 39 d0             	cmp    %rdx,%rax
   10072:	0f 95 c0             	setne  %al
   10075:	0f b6 c0             	movzbl %al,%eax
   10078:	89 c7                	mov    %eax,%edi
   1007a:	e8 1e 83 ff ff       	callq  839d <safe_unary_minus_func_int16_t_s>
   1007f:	98                   	cwtl   
   10080:	44 89 f6             	mov    %r14d,%esi
   10083:	89 c7                	mov    %eax,%edi
   10085:	e8 2c 85 ff ff       	callq  85b6 <safe_add_func_int32_t_s_s>
   1008a:	98                   	cwtl   
   1008b:	89 c6                	mov    %eax,%esi
   1008d:	bf ae 53 00 00       	mov    $0x53ae,%edi
   10092:	e8 7f 83 ff ff       	callq  8416 <safe_mod_func_int16_t_s_s>
   10097:	98                   	cwtl   
   10098:	33 85 68 e5 ff ff    	xor    -0x1a98(%rbp),%eax
   1009e:	48 98                	cltq   
   100a0:	4c 89 ee             	mov    %r13,%rsi
   100a3:	48 89 c7             	mov    %rax,%rdi
   100a6:	e8 a0 8f ff ff       	callq  904b <safe_sub_func_uint64_t_u_u>
   100ab:	48 8b 85 40 e9 ff ff 	mov    -0x16c0(%rbp),%rax
   100b2:	8b 00                	mov    (%rax),%eax
   100b4:	89 c2                	mov    %eax,%edx
   100b6:	48 8b 85 a8 e9 ff ff 	mov    -0x1658(%rbp),%rax
   100bd:	88 10                	mov    %dl,(%rax)
   100bf:	48 8b 85 a8 e9 ff ff 	mov    -0x1658(%rbp),%rax
   100c6:	0f b6 00             	movzbl (%rax),%eax
   100c9:	0f be d0             	movsbl %al,%edx
   100cc:	48 8b 85 90 ed ff ff 	mov    -0x1270(%rbp),%rax
   100d3:	48 39 85 78 e9 ff ff 	cmp    %rax,-0x1688(%rbp)
   100da:	0f 95 c0             	setne  %al
   100dd:	0f b6 c0             	movzbl %al,%eax
   100e0:	89 d6                	mov    %edx,%esi
   100e2:	89 c7                	mov    %eax,%edi
   100e4:	e8 29 81 ff ff       	callq  8212 <safe_mul_func_int8_t_s_s>
   100e9:	48 0f be c0          	movsbq %al,%rax
   100ed:	4c 89 e6             	mov    %r12,%rsi
   100f0:	48 89 c7             	mov    %rax,%rdi
   100f3:	e8 49 87 ff ff       	callq  8841 <safe_add_func_int64_t_s_s>
   100f8:	0f be c0             	movsbl %al,%eax
   100fb:	89 de                	mov    %ebx,%esi
   100fd:	89 c7                	mov    %eax,%edi
   100ff:	e8 d0 80 ff ff       	callq  81d4 <safe_add_func_int8_t_s_s>
   10104:	83 bd f4 e6 ff ff 00 	cmpl   $0x0,-0x190c(%rbp)
   1010b:	0f 95 c0             	setne  %al
   1010e:	0f b6 c0             	movzbl %al,%eax
   10111:	21 85 f0 e6 ff ff    	and    %eax,-0x1910(%rbp)
   10117:	48 8b 05 02 c1 00 00 	mov    0xc102(%rip),%rax        # 1c220 <g_1611>
   1011e:	48 8d 95 a0 e7 ff ff 	lea    -0x1860(%rbp),%rdx
   10125:	48 89 10             	mov    %rdx,(%rax)
   10128:	44 8b a5 7c fa ff ff 	mov    -0x584(%rbp),%r12d
   1012f:	48 8b 85 50 e9 ff ff 	mov    -0x16b0(%rbp),%rax
   10136:	8b 00                	mov    (%rax),%eax
   10138:	48 63 d8             	movslq %eax,%rbx
   1013b:	8b 85 ec e6 ff ff    	mov    -0x1914(%rbp),%eax
   10141:	0f bf d0             	movswl %ax,%edx
   10144:	48 8b 85 40 e9 ff ff 	mov    -0x16c0(%rbp),%rax
   1014b:	8b 00                	mov    (%rax),%eax
   1014d:	98                   	cwtl   
   1014e:	89 d6                	mov    %edx,%esi
   10150:	89 c7                	mov    %eax,%edi
   10152:	e8 9e 82 ff ff       	callq  83f5 <safe_mul_func_int16_t_s_s>
   10157:	48 0f bf c0          	movswq %ax,%rax
   1015b:	48 0d 08 93 00 00    	or     $0x9308,%rax
   10161:	48 89 de             	mov    %rbx,%rsi
   10164:	48 89 c7             	mov    %rax,%rdi
   10167:	e8 14 8f ff ff       	callq  9080 <safe_mod_func_uint64_t_u_u>
   1016c:	48 8b 15 0d b8 00 00 	mov    0xb80d(%rip),%rdx        # 1b980 <g_32>
   10173:	0f b6 12             	movzbl (%rdx),%edx
   10176:	48 0f be d2          	movsbq %dl,%rdx
   1017a:	48 39 d0             	cmp    %rdx,%rax
   1017d:	0f 97 c0             	seta   %al
   10180:	0f b6 d0             	movzbl %al,%edx
   10183:	0f b7 85 b4 e5 ff ff 	movzwl -0x1a4c(%rbp),%eax
   1018a:	31 d0                	xor    %edx,%eax
   1018c:	41 39 c4             	cmp    %eax,%r12d
   1018f:	0f 95 c0             	setne  %al
   10192:	0f b6 c0             	movzbl %al,%eax
   10195:	f7 d0                	not    %eax
   10197:	39 85 ec e5 ff ff    	cmp    %eax,-0x1a14(%rbp)
   1019d:	74 14                	je     101b3 <func_1+0x69fe>
   1019f:	48 8b 85 50 e9 ff ff 	mov    -0x16b0(%rbp),%rax
   101a6:	8b 00                	mov    (%rax),%eax
   101a8:	85 c0                	test   %eax,%eax
   101aa:	74 07                	je     101b3 <func_1+0x69fe>
   101ac:	ba 01 00 00 00       	mov    $0x1,%edx
   101b1:	eb 05                	jmp    101b8 <func_1+0x6a03>
   101b3:	ba 00 00 00 00       	mov    $0x0,%edx
   101b8:	8b 85 3c f8 ff ff    	mov    -0x7c4(%rbp),%eax
   101be:	39 c2                	cmp    %eax,%edx
   101c0:	0f 9c c0             	setl   %al
   101c3:	0f b6 c0             	movzbl %al,%eax
   101c6:	89 85 e8 e6 ff ff    	mov    %eax,-0x1918(%rbp)
   101cc:	66 c7 05 6f 96 00 00 	movw   $0x0,0x966f(%rip)        # 19844 <g_618>
   101d3:	00 00 
   101d5:	e9 f2 02 00 00       	jmpq   104cc <func_1+0x6d17>
   101da:	c7 85 50 e7 ff ff 04 	movl   $0x29bc0d04,-0x18b0(%rbp)
   101e1:	0d bc 29 
   101e4:	c7 85 54 e7 ff ff f8 	movl   $0xfffffff8,-0x18ac(%rbp)
   101eb:	ff ff ff 
   101ee:	c7 85 58 e7 ff ff ff 	movl   $0xffffffff,-0x18a8(%rbp)
   101f5:	ff ff ff 
   101f8:	c7 85 5c e7 ff ff 01 	movl   $0x1,-0x18a4(%rbp)
   101ff:	00 00 00 
   10202:	c7 85 60 e7 ff ff 20 	movl   $0x9dfcff20,-0x18a0(%rbp)
   10209:	ff fc 9d 
   1020c:	c7 85 00 f8 ff ff a9 	movl   $0xe041dba9,-0x800(%rbp)
   10213:	db 41 e0 
   10216:	c7 85 04 f8 ff ff a9 	movl   $0xe041dba9,-0x7fc(%rbp)
   1021d:	db 41 e0 
   10220:	c7 85 08 f8 ff ff a9 	movl   $0xe041dba9,-0x7f8(%rbp)
   10227:	db 41 e0 
   1022a:	c7 85 0c f8 ff ff a9 	movl   $0xe041dba9,-0x7f4(%rbp)
   10231:	db 41 e0 
   10234:	c7 85 10 f8 ff ff a9 	movl   $0xe041dba9,-0x7f0(%rbp)
   1023b:	db 41 e0 
   1023e:	c7 85 14 f8 ff ff a9 	movl   $0xe041dba9,-0x7ec(%rbp)
   10245:	db 41 e0 
   10248:	c7 85 18 f8 ff ff a9 	movl   $0xe041dba9,-0x7e8(%rbp)
   1024f:	db 41 e0 
   10252:	c7 85 1c f8 ff ff a9 	movl   $0xe041dba9,-0x7e4(%rbp)
   10259:	db 41 e0 
   1025c:	c7 85 20 f8 ff ff a9 	movl   $0xe041dba9,-0x7e0(%rbp)
   10263:	db 41 e0 
   10266:	c7 85 24 f8 ff ff a9 	movl   $0xe041dba9,-0x7dc(%rbp)
   1026d:	db 41 e0 
   10270:	48 c7 85 18 ea ff ff 	movq   $0x0,-0x15e8(%rbp)
   10277:	00 00 00 00 
   1027b:	48 c7 85 20 ea ff ff 	movq   $0x0,-0x15e0(%rbp)
   10282:	00 00 00 00 
   10286:	48 8d 85 d0 e5 ff ff 	lea    -0x1a30(%rbp),%rax
   1028d:	48 89 85 28 ea ff ff 	mov    %rax,-0x15d8(%rbp)
   10294:	66 c7 85 c2 e5 ff ff 	movw   $0x1,-0x1a3e(%rbp)
   1029b:	01 00 
   1029d:	c7 85 28 e6 ff ff 00 	movl   $0x0,-0x19d8(%rbp)
   102a4:	00 00 00 
   102a7:	eb 1e                	jmp    102c7 <func_1+0x6b12>
   102a9:	8b 85 28 e6 ff ff    	mov    -0x19d8(%rbp),%eax
   102af:	48 98                	cltq   
   102b1:	48 8d 15 e8 93 00 00 	lea    0x93e8(%rip),%rdx        # 196a0 <g_241>
   102b8:	48 89 94 c5 00 f3 ff 	mov    %rdx,-0xd00(%rbp,%rax,8)
   102bf:	ff 
   102c0:	83 85 28 e6 ff ff 01 	addl   $0x1,-0x19d8(%rbp)
   102c7:	83 bd 28 e6 ff ff 02 	cmpl   $0x2,-0x19d8(%rbp)
   102ce:	7e d9                	jle    102a9 <func_1+0x6af4>
   102d0:	8b 85 e4 e6 ff ff    	mov    -0x191c(%rbp),%eax
   102d6:	48 63 d8             	movslq %eax,%rbx
   102d9:	8b 85 50 e7 ff ff    	mov    -0x18b0(%rbp),%eax
   102df:	44 0f bf e0          	movswl %ax,%r12d
   102e3:	48 8b 05 96 b6 00 00 	mov    0xb696(%rip),%rax        # 1b980 <g_32>
   102ea:	0f b6 00             	movzbl (%rax),%eax
   102ed:	44 0f be e8          	movsbl %al,%r13d
   102f1:	0f b6 05 08 98 00 00 	movzbl 0x9808(%rip),%eax        # 19b00 <g_2140+0x10>
   102f8:	0f b6 c0             	movzbl %al,%eax
   102fb:	be 0f 00 00 00       	mov    $0xf,%esi
   10300:	89 c7                	mov    %eax,%edi
   10302:	e8 73 8b ff ff       	callq  8e7a <safe_rshift_func_uint16_t_u_u>
   10307:	66 89 85 68 e5 ff ff 	mov    %ax,-0x1a98(%rbp)
   1030e:	48 8b 05 fb b9 00 00 	mov    0xb9fb(%rip),%rax        # 1bd10 <g_552>
   10315:	48 8b 00             	mov    (%rax),%rax
   10318:	48 8b 10             	mov    (%rax),%rdx
   1031b:	48 8b 05 ee b9 00 00 	mov    0xb9ee(%rip),%rax        # 1bd10 <g_552>
   10322:	48 8b 00             	mov    (%rax),%rax
   10325:	48 83 ca fa          	or     $0xfffffffffffffffa,%rdx
   10329:	48 89 10             	mov    %rdx,(%rax)
   1032c:	8b 85 60 e7 ff ff    	mov    -0x18a0(%rbp),%eax
   10332:	4c 63 f0             	movslq %eax,%r14
   10335:	8b 85 18 f8 ff ff    	mov    -0x7e8(%rbp),%eax
   1033b:	44 0f bf f8          	movswl %ax,%r15d
   1033f:	8b 85 60 e7 ff ff    	mov    -0x18a0(%rbp),%eax
   10345:	48 63 c8             	movslq %eax,%rcx
   10348:	48 89 8d 60 e5 ff ff 	mov    %rcx,-0x1aa0(%rbp)
   1034f:	c7 85 5c e7 ff ff f8 	movl   $0xf8,-0x18a4(%rbp)
   10356:	00 00 00 
   10359:	8b 85 5c e7 ff ff    	mov    -0x18a4(%rbp),%eax
   1035f:	0f b6 c0             	movzbl %al,%eax
   10362:	89 c6                	mov    %eax,%esi
   10364:	bf 00 00 00 00       	mov    $0x0,%edi
   10369:	e8 25 88 ff ff       	callq  8b93 <safe_mul_func_uint8_t_u_u>
   1036e:	0f b6 c0             	movzbl %al,%eax
   10371:	48 8b b5 60 e5 ff ff 	mov    -0x1aa0(%rbp),%rsi
   10378:	48 89 c7             	mov    %rax,%rdi
   1037b:	e8 cb 8c ff ff       	callq  904b <safe_sub_func_uint64_t_u_u>
   10380:	8b 95 54 e7 ff ff    	mov    -0x18ac(%rbp),%edx
   10386:	48 63 d2             	movslq %edx,%rdx
   10389:	48 39 d0             	cmp    %rdx,%rax
   1038c:	0f 97 c0             	seta   %al
   1038f:	0f b6 c0             	movzbl %al,%eax
   10392:	44 89 fe             	mov    %r15d,%esi
   10395:	89 c7                	mov    %eax,%edi
   10397:	e8 37 80 ff ff       	callq  83d3 <safe_sub_func_int16_t_s_s>
   1039c:	44 0f bf f8          	movswl %ax,%r15d
   103a0:	48 8b 85 40 e9 ff ff 	mov    -0x16c0(%rbp),%rax
   103a7:	8b 00                	mov    (%rax),%eax
   103a9:	98                   	cwtl   
   103aa:	be ff ff ff ff       	mov    $0xffffffff,%esi
   103af:	89 c7                	mov    %eax,%edi
   103b1:	e8 fd 7f ff ff       	callq  83b3 <safe_add_func_int16_t_s_s>
   103b6:	98                   	cwtl   
   103b7:	44 89 fe             	mov    %r15d,%esi
   103ba:	89 c7                	mov    %eax,%edi
   103bc:	e8 34 80 ff ff       	callq  83f5 <safe_mul_func_int16_t_s_s>
   103c1:	48 0f bf c0          	movswq %ax,%rax
   103c5:	4c 89 f6             	mov    %r14,%rsi
   103c8:	48 89 c7             	mov    %rax,%rdi
   103cb:	e8 7b 8c ff ff       	callq  904b <safe_sub_func_uint64_t_u_u>
   103d0:	0f b7 05 4b 97 00 00 	movzwl 0x974b(%rip),%eax        # 19b22 <g_2175>
   103d7:	8d 50 01             	lea    0x1(%rax),%edx
   103da:	66 89 15 41 97 00 00 	mov    %dx,0x9741(%rip)        # 19b22 <g_2175>
   103e1:	0f b7 d0             	movzwl %ax,%edx
   103e4:	48 8b 85 50 e9 ff ff 	mov    -0x16b0(%rbp),%rax
   103eb:	89 10                	mov    %edx,(%rax)
   103ed:	48 8b 85 50 e9 ff ff 	mov    -0x16b0(%rbp),%rax
   103f4:	8b 00                	mov    (%rax),%eax
   103f6:	89 c6                	mov    %eax,%esi
   103f8:	bf 07 00 00 00       	mov    $0x7,%edi
   103fd:	e8 fb 8a ff ff       	callq  8efd <safe_mod_func_uint32_t_u_u>
   10402:	89 c0                	mov    %eax,%eax
   10404:	48 89 c6             	mov    %rax,%rsi
   10407:	48 c7 c7 f7 ff ff ff 	mov    $0xfffffffffffffff7,%rdi
   1040e:	e8 1b 8c ff ff       	callq  902e <safe_add_func_uint64_t_u_u>
   10413:	48 8b 85 40 e9 ff ff 	mov    -0x16c0(%rbp),%rax
   1041a:	8b 00                	mov    (%rax),%eax
   1041c:	0f be c0             	movsbl %al,%eax
   1041f:	be 00 00 00 00       	mov    $0x0,%esi
   10424:	89 c7                	mov    %eax,%edi
   10426:	e8 a9 7d ff ff       	callq  81d4 <safe_add_func_int8_t_s_s>
   1042b:	48 8b 85 28 ea ff ff 	mov    -0x15d8(%rbp),%rax
   10432:	c6 00 01             	movb   $0x1,(%rax)
   10435:	48 8b 85 28 ea ff ff 	mov    -0x15d8(%rbp),%rax
   1043c:	0f b6 00             	movzbl (%rax),%eax
   1043f:	0f b6 c0             	movzbl %al,%eax
   10442:	66 39 85 68 e5 ff ff 	cmp    %ax,-0x1a98(%rbp)
   10449:	0f 96 c0             	setbe  %al
   1044c:	0f b6 c0             	movzbl %al,%eax
   1044f:	44 89 ee             	mov    %r13d,%esi
   10452:	89 c7                	mov    %eax,%edi
   10454:	e8 7b 7d ff ff       	callq  81d4 <safe_add_func_int8_t_s_s>
   10459:	8b 85 58 e7 ff ff    	mov    -0x18a8(%rbp),%eax
   1045f:	89 85 60 e7 ff ff    	mov    %eax,-0x18a0(%rbp)
   10465:	48 8b 85 40 e9 ff ff 	mov    -0x16c0(%rbp),%rax
   1046c:	8b 00                	mov    (%rax),%eax
   1046e:	39 85 60 e7 ff ff    	cmp    %eax,-0x18a0(%rbp)
   10474:	0f 9c c0             	setl   %al
   10477:	0f b6 c0             	movzbl %al,%eax
   1047a:	44 89 e6             	mov    %r12d,%esi
   1047d:	89 c7                	mov    %eax,%edi
   1047f:	e8 71 7f ff ff       	callq  83f5 <safe_mul_func_int16_t_s_s>
   10484:	48 0f bf c0          	movswq %ax,%rax
   10488:	48 89 de             	mov    %rbx,%rsi
   1048b:	48 89 c7             	mov    %rax,%rdi
   1048e:	e8 15 84 ff ff       	callq  88a8 <safe_sub_func_int64_t_s_s>
   10493:	48 89 c2             	mov    %rax,%rdx
   10496:	48 8b 85 78 e7 ff ff 	mov    -0x1888(%rbp),%rax
   1049d:	66 89 10             	mov    %dx,(%rax)
   104a0:	8b 85 58 e7 ff ff    	mov    -0x18a8(%rbp),%eax
   104a6:	66 89 85 c2 e5 ff ff 	mov    %ax,-0x1a3e(%rbp)
   104ad:	0f b7 05 90 93 00 00 	movzwl 0x9390(%rip),%eax        # 19844 <g_618>
   104b4:	0f be c0             	movsbl %al,%eax
   104b7:	be 05 00 00 00       	mov    $0x5,%esi
   104bc:	89 c7                	mov    %eax,%edi
   104be:	e8 2f 7d ff ff       	callq  81f2 <safe_sub_func_int8_t_s_s>
   104c3:	66 98                	cbtw   
   104c5:	66 89 05 78 93 00 00 	mov    %ax,0x9378(%rip)        # 19844 <g_618>
   104cc:	0f b7 05 71 93 00 00 	movzwl 0x9371(%rip),%eax        # 19844 <g_618>
   104d3:	66 83 f8 e8          	cmp    $0xffe8,%ax
   104d7:	0f 85 fd fc ff ff    	jne    101da <func_1+0x6a25>
   104dd:	0f b6 05 ba 91 00 00 	movzbl 0x91ba(%rip),%eax        # 1969e <g_223>
   104e4:	83 c0 01             	add    $0x1,%eax
   104e7:	88 05 b1 91 00 00    	mov    %al,0x91b1(%rip)        # 1969e <g_223>
   104ed:	0f b6 05 aa 91 00 00 	movzbl 0x91aa(%rip),%eax        # 1969e <g_223>
   104f4:	3c 36                	cmp    $0x36,%al
   104f6:	0f 86 7b d7 ff ff    	jbe    dc77 <func_1+0x44c2>
   104fc:	48 8b 05 0d b8 00 00 	mov    0xb80d(%rip),%rax        # 1bd10 <g_552>
   10503:	48 8b 00             	mov    (%rax),%rax
   10506:	48 8b 00             	mov    (%rax),%rax
   10509:	48 8b 5d c8          	mov    -0x38(%rbp),%rbx
   1050d:	64 48 33 1c 25 28 00 	xor    %fs:0x28,%rbx
   10514:	00 00 
   10516:	74 05                	je     1051d <func_1+0x6d68>
   10518:	e8 53 7b ff ff       	callq  8070 <__stack_chk_fail@plt>
   1051d:	48 81 c4 98 1a 00 00 	add    $0x1a98,%rsp
   10524:	5b                   	pop    %rbx
   10525:	41 5c                	pop    %r12
   10527:	41 5d                	pop    %r13
   10529:	41 5e                	pop    %r14
   1052b:	41 5f                	pop    %r15
   1052d:	5d                   	pop    %rbp
   1052e:	c3                   	retq   

000000000001052f <func_7>:
   1052f:	f3 0f 1e fa          	endbr64 
   10533:	55                   	push   %rbp
   10534:	48 89 e5             	mov    %rsp,%rbp
   10537:	41 56                	push   %r14
   10539:	41 55                	push   %r13
   1053b:	41 54                	push   %r12
   1053d:	53                   	push   %rbx
   1053e:	48 81 ec 30 0a 00 00 	sub    $0xa30,%rsp
   10545:	48 89 bd b8 f5 ff ff 	mov    %rdi,-0xa48(%rbp)
   1054c:	64 48 8b 04 25 28 00 	mov    %fs:0x28,%rax
   10553:	00 00 
   10555:	48 89 45 d8          	mov    %rax,-0x28(%rbp)
   10559:	31 c0                	xor    %eax,%eax
   1055b:	48 8d 05 3e b7 00 00 	lea    0xb73e(%rip),%rax        # 1bca0 <g_529>
   10562:	48 89 85 e8 f5 ff ff 	mov    %rax,-0xa18(%rbp)
   10569:	48 c7 85 d8 f5 ff ff 	movq   $0x0,-0xa28(%rbp)
   10570:	00 00 00 00 
   10574:	c7 85 60 f6 ff ff 81 	movl   $0xe4497d81,-0x9a0(%rbp)
   1057b:	7d 49 e4 
   1057e:	c7 85 64 f6 ff ff 81 	movl   $0xe4497d81,-0x99c(%rbp)
   10585:	7d 49 e4 
   10588:	c7 85 68 f6 ff ff 00 	movl   $0x469f9000,-0x998(%rbp)
   1058f:	90 9f 46 
   10592:	c7 85 6c f6 ff ff 81 	movl   $0xe4497d81,-0x994(%rbp)
   10599:	7d 49 e4 
   1059c:	c7 85 70 f6 ff ff 81 	movl   $0xe4497d81,-0x990(%rbp)
   105a3:	7d 49 e4 
   105a6:	c7 85 74 f6 ff ff 00 	movl   $0x469f9000,-0x98c(%rbp)
   105ad:	90 9f 46 
   105b0:	c7 85 78 f6 ff ff 81 	movl   $0xe4497d81,-0x988(%rbp)
   105b7:	7d 49 e4 
   105ba:	c7 85 7c f6 ff ff 81 	movl   $0xe4497d81,-0x984(%rbp)
   105c1:	7d 49 e4 
   105c4:	c7 85 80 f6 ff ff 00 	movl   $0x469f9000,-0x980(%rbp)
   105cb:	90 9f 46 
   105ce:	c7 85 20 f7 ff ff d6 	movl   $0x7458d3d6,-0x8e0(%rbp)
   105d5:	d3 58 74 
   105d8:	c7 85 24 f7 ff ff 5b 	movl   $0x9918dc5b,-0x8dc(%rbp)
   105df:	dc 18 99 
   105e2:	c7 85 28 f7 ff ff 30 	movl   $0xe8ff0430,-0x8d8(%rbp)
   105e9:	04 ff e8 
   105ec:	c7 85 2c f7 ff ff 12 	movl   $0xeb50ea12,-0x8d4(%rbp)
   105f3:	ea 50 eb 
   105f6:	c7 85 30 f7 ff ff 03 	movl   $0x3,-0x8d0(%rbp)
   105fd:	00 00 00 
   10600:	c7 85 34 f7 ff ff 03 	movl   $0x3,-0x8cc(%rbp)
   10607:	00 00 00 
   1060a:	c7 85 38 f7 ff ff 03 	movl   $0x3,-0x8c8(%rbp)
   10611:	00 00 00 
   10614:	c7 85 3c f7 ff ff 2d 	movl   $0xf0446b2d,-0x8c4(%rbp)
   1061b:	6b 44 f0 
   1061e:	c7 85 40 f7 ff ff 09 	movl   $0x9,-0x8c0(%rbp)
   10625:	00 00 00 
   10628:	c7 85 44 f7 ff ff 00 	movl   $0x0,-0x8bc(%rbp)
   1062f:	00 00 00 
   10632:	c7 85 48 f7 ff ff 2d 	movl   $0xf0446b2d,-0x8b8(%rbp)
   10639:	6b 44 f0 
   1063c:	c7 85 4c f7 ff ff 34 	movl   $0xbab9e534,-0x8b4(%rbp)
   10643:	e5 b9 ba 
   10646:	c7 85 50 f7 ff ff 5b 	movl   $0x9918dc5b,-0x8b0(%rbp)
   1064d:	dc 18 99 
   10650:	c7 85 54 f7 ff ff 00 	movl   $0x0,-0x8ac(%rbp)
   10657:	00 00 00 
   1065a:	c7 85 58 f7 ff ff 30 	movl   $0xe8ff0430,-0x8a8(%rbp)
   10661:	04 ff e8 
   10664:	c7 85 5c f7 ff ff 30 	movl   $0xe8ff0430,-0x8a4(%rbp)
   1066b:	04 ff e8 
   1066e:	c7 85 60 f7 ff ff 00 	movl   $0x0,-0x8a0(%rbp)
   10675:	00 00 00 
   10678:	c7 85 64 f7 ff ff 5b 	movl   $0x9918dc5b,-0x89c(%rbp)
   1067f:	dc 18 99 
   10682:	c7 85 68 f7 ff ff 00 	movl   $0x0,-0x898(%rbp)
   10689:	00 00 00 
   1068c:	c7 85 6c f7 ff ff 12 	movl   $0xeb50ea12,-0x894(%rbp)
   10693:	ea 50 eb 
   10696:	c7 85 70 f7 ff ff 00 	movl   $0x0,-0x890(%rbp)
   1069d:	00 00 00 
   106a0:	c7 85 74 f7 ff ff 30 	movl   $0xe8ff0430,-0x88c(%rbp)
   106a7:	04 ff e8 
   106aa:	c7 85 78 f7 ff ff 03 	movl   $0x3,-0x888(%rbp)
   106b1:	00 00 00 
   106b4:	c7 85 7c f7 ff ff 34 	movl   $0xbab9e534,-0x884(%rbp)
   106bb:	e5 b9 ba 
   106be:	c7 85 80 f7 ff ff ff 	movl   $0xffffffff,-0x880(%rbp)
   106c5:	ff ff ff 
   106c8:	c7 85 84 f7 ff ff ff 	movl   $0xffffffff,-0x87c(%rbp)
   106cf:	ff ff ff 
   106d2:	c7 85 88 f7 ff ff 34 	movl   $0xbab9e534,-0x878(%rbp)
   106d9:	e5 b9 ba 
   106dc:	c7 85 20 f6 ff ff 01 	movl   $0x1,-0x9e0(%rbp)
   106e3:	00 00 00 
   106e6:	c7 85 24 f6 ff ff 01 	movl   $0x1,-0x9dc(%rbp)
   106ed:	00 00 00 
   106f0:	c7 85 28 f6 ff ff 01 	movl   $0x1,-0x9d8(%rbp)
   106f7:	00 00 00 
   106fa:	c7 85 2c f6 ff ff 01 	movl   $0x1,-0x9d4(%rbp)
   10701:	00 00 00 
   10704:	c7 85 30 f6 ff ff 01 	movl   $0x1,-0x9d0(%rbp)
   1070b:	00 00 00 
   1070e:	c7 85 c4 f5 ff ff de 	movl   $0x4e23d0de,-0xa3c(%rbp)
   10715:	d0 23 4e 
   10718:	48 8d 05 21 b3 00 00 	lea    0xb321(%rip),%rax        # 1ba40 <g_350>
   1071f:	48 89 85 e0 f5 ff ff 	mov    %rax,-0xa20(%rbp)
   10726:	48 8d 85 e0 f5 ff ff 	lea    -0xa20(%rbp),%rax
   1072d:	48 89 85 c0 f8 ff ff 	mov    %rax,-0x740(%rbp)
   10734:	48 8d 85 e0 f5 ff ff 	lea    -0xa20(%rbp),%rax
   1073b:	48 89 85 c8 f8 ff ff 	mov    %rax,-0x738(%rbp)
   10742:	48 8d 85 e0 f5 ff ff 	lea    -0xa20(%rbp),%rax
   10749:	48 89 85 d0 f8 ff ff 	mov    %rax,-0x730(%rbp)
   10750:	48 8d 85 e0 f5 ff ff 	lea    -0xa20(%rbp),%rax
   10757:	48 89 85 d8 f8 ff ff 	mov    %rax,-0x728(%rbp)
   1075e:	48 8d 85 e0 f5 ff ff 	lea    -0xa20(%rbp),%rax
   10765:	48 89 85 e0 f8 ff ff 	mov    %rax,-0x720(%rbp)
   1076c:	48 8d 85 e0 f5 ff ff 	lea    -0xa20(%rbp),%rax
   10773:	48 89 85 e8 f8 ff ff 	mov    %rax,-0x718(%rbp)
   1077a:	48 c7 85 f0 f8 ff ff 	movq   $0x0,-0x710(%rbp)
   10781:	00 00 00 00 
   10785:	48 8d 85 e0 f5 ff ff 	lea    -0xa20(%rbp),%rax
   1078c:	48 89 85 f8 f8 ff ff 	mov    %rax,-0x708(%rbp)
   10793:	48 8d 85 e0 f5 ff ff 	lea    -0xa20(%rbp),%rax
   1079a:	48 89 85 00 f9 ff ff 	mov    %rax,-0x700(%rbp)
   107a1:	48 8d 85 e0 f5 ff ff 	lea    -0xa20(%rbp),%rax
   107a8:	48 89 85 08 f9 ff ff 	mov    %rax,-0x6f8(%rbp)
   107af:	48 8d 85 e0 f5 ff ff 	lea    -0xa20(%rbp),%rax
   107b6:	48 89 85 10 f9 ff ff 	mov    %rax,-0x6f0(%rbp)
   107bd:	48 8d 85 e0 f5 ff ff 	lea    -0xa20(%rbp),%rax
   107c4:	48 89 85 18 f9 ff ff 	mov    %rax,-0x6e8(%rbp)
   107cb:	48 8d 85 e0 f5 ff ff 	lea    -0xa20(%rbp),%rax
   107d2:	48 89 85 20 f9 ff ff 	mov    %rax,-0x6e0(%rbp)
   107d9:	48 c7 85 28 f9 ff ff 	movq   $0x0,-0x6d8(%rbp)
   107e0:	00 00 00 00 
   107e4:	48 8d 85 e0 f5 ff ff 	lea    -0xa20(%rbp),%rax
   107eb:	48 89 85 30 f9 ff ff 	mov    %rax,-0x6d0(%rbp)
   107f2:	48 8d 85 e0 f5 ff ff 	lea    -0xa20(%rbp),%rax
   107f9:	48 89 85 38 f9 ff ff 	mov    %rax,-0x6c8(%rbp)
   10800:	48 8d 85 e0 f5 ff ff 	lea    -0xa20(%rbp),%rax
   10807:	48 89 85 40 f9 ff ff 	mov    %rax,-0x6c0(%rbp)
   1080e:	48 8d 85 e0 f5 ff ff 	lea    -0xa20(%rbp),%rax
   10815:	48 89 85 48 f9 ff ff 	mov    %rax,-0x6b8(%rbp)
   1081c:	48 c7 85 50 f9 ff ff 	movq   $0x0,-0x6b0(%rbp)
   10823:	00 00 00 00 
   10827:	48 8d 85 e0 f5 ff ff 	lea    -0xa20(%rbp),%rax
   1082e:	48 89 85 58 f9 ff ff 	mov    %rax,-0x6a8(%rbp)
   10835:	48 c7 85 60 f9 ff ff 	movq   $0x0,-0x6a0(%rbp)
   1083c:	00 00 00 00 
   10840:	48 8d 85 e0 f5 ff ff 	lea    -0xa20(%rbp),%rax
   10847:	48 89 85 68 f9 ff ff 	mov    %rax,-0x698(%rbp)
   1084e:	48 8d 85 e0 f5 ff ff 	lea    -0xa20(%rbp),%rax
   10855:	48 89 85 70 f9 ff ff 	mov    %rax,-0x690(%rbp)
   1085c:	48 c7 85 78 f9 ff ff 	movq   $0x0,-0x688(%rbp)
   10863:	00 00 00 00 
   10867:	48 8d 85 e0 f5 ff ff 	lea    -0xa20(%rbp),%rax
   1086e:	48 89 85 80 f9 ff ff 	mov    %rax,-0x680(%rbp)
   10875:	48 8d 85 e0 f5 ff ff 	lea    -0xa20(%rbp),%rax
   1087c:	48 89 85 88 f9 ff ff 	mov    %rax,-0x678(%rbp)
   10883:	48 c7 85 90 f9 ff ff 	movq   $0x0,-0x670(%rbp)
   1088a:	00 00 00 00 
   1088e:	48 8d 85 e0 f5 ff ff 	lea    -0xa20(%rbp),%rax
   10895:	48 89 85 98 f9 ff ff 	mov    %rax,-0x668(%rbp)
   1089c:	48 8d 85 e0 f5 ff ff 	lea    -0xa20(%rbp),%rax
   108a3:	48 89 85 a0 f9 ff ff 	mov    %rax,-0x660(%rbp)
   108aa:	48 c7 85 a8 f9 ff ff 	movq   $0x0,-0x658(%rbp)
   108b1:	00 00 00 00 
   108b5:	48 c7 85 b0 f9 ff ff 	movq   $0x0,-0x650(%rbp)
   108bc:	00 00 00 00 
   108c0:	48 8d 85 e0 f5 ff ff 	lea    -0xa20(%rbp),%rax
   108c7:	48 89 85 b8 f9 ff ff 	mov    %rax,-0x648(%rbp)
   108ce:	48 8d 85 e0 f5 ff ff 	lea    -0xa20(%rbp),%rax
   108d5:	48 89 85 c0 f9 ff ff 	mov    %rax,-0x640(%rbp)
   108dc:	48 8d 85 e0 f5 ff ff 	lea    -0xa20(%rbp),%rax
   108e3:	48 89 85 c8 f9 ff ff 	mov    %rax,-0x638(%rbp)
   108ea:	48 c7 85 d0 f9 ff ff 	movq   $0x0,-0x630(%rbp)
   108f1:	00 00 00 00 
   108f5:	48 8d 85 e0 f5 ff ff 	lea    -0xa20(%rbp),%rax
   108fc:	48 89 85 d8 f9 ff ff 	mov    %rax,-0x628(%rbp)
   10903:	48 c7 85 e0 f9 ff ff 	movq   $0x0,-0x620(%rbp)
   1090a:	00 00 00 00 
   1090e:	48 8d 85 e0 f5 ff ff 	lea    -0xa20(%rbp),%rax
   10915:	48 89 85 e8 f9 ff ff 	mov    %rax,-0x618(%rbp)
   1091c:	48 8d 85 e0 f5 ff ff 	lea    -0xa20(%rbp),%rax
   10923:	48 89 85 f0 f9 ff ff 	mov    %rax,-0x610(%rbp)
   1092a:	48 8d 85 e0 f5 ff ff 	lea    -0xa20(%rbp),%rax
   10931:	48 89 85 f8 f9 ff ff 	mov    %rax,-0x608(%rbp)
   10938:	48 8d 85 e0 f5 ff ff 	lea    -0xa20(%rbp),%rax
   1093f:	48 89 85 00 fa ff ff 	mov    %rax,-0x600(%rbp)
   10946:	48 8d 85 e0 f5 ff ff 	lea    -0xa20(%rbp),%rax
   1094d:	48 89 85 08 fa ff ff 	mov    %rax,-0x5f8(%rbp)
   10954:	48 8d 85 e0 f5 ff ff 	lea    -0xa20(%rbp),%rax
   1095b:	48 89 85 10 fa ff ff 	mov    %rax,-0x5f0(%rbp)
   10962:	48 c7 85 18 fa ff ff 	movq   $0x0,-0x5e8(%rbp)
   10969:	00 00 00 00 
   1096d:	48 8d 85 e0 f5 ff ff 	lea    -0xa20(%rbp),%rax
   10974:	48 89 85 20 fa ff ff 	mov    %rax,-0x5e0(%rbp)
   1097b:	48 c7 85 28 fa ff ff 	movq   $0x0,-0x5d8(%rbp)
   10982:	00 00 00 00 
   10986:	48 8d 85 e0 f5 ff ff 	lea    -0xa20(%rbp),%rax
   1098d:	48 89 85 30 fa ff ff 	mov    %rax,-0x5d0(%rbp)
   10994:	48 8d 85 e0 f5 ff ff 	lea    -0xa20(%rbp),%rax
   1099b:	48 89 85 38 fa ff ff 	mov    %rax,-0x5c8(%rbp)
   109a2:	48 c7 85 40 fa ff ff 	movq   $0x0,-0x5c0(%rbp)
   109a9:	00 00 00 00 
   109ad:	48 8d 85 e0 f5 ff ff 	lea    -0xa20(%rbp),%rax
   109b4:	48 89 85 48 fa ff ff 	mov    %rax,-0x5b8(%rbp)
   109bb:	48 8d 85 e0 f5 ff ff 	lea    -0xa20(%rbp),%rax
   109c2:	48 89 85 50 fa ff ff 	mov    %rax,-0x5b0(%rbp)
   109c9:	48 8d 85 e0 f5 ff ff 	lea    -0xa20(%rbp),%rax
   109d0:	48 89 85 58 fa ff ff 	mov    %rax,-0x5a8(%rbp)
   109d7:	48 8d 85 e0 f5 ff ff 	lea    -0xa20(%rbp),%rax
   109de:	48 89 85 60 fa ff ff 	mov    %rax,-0x5a0(%rbp)
   109e5:	48 c7 85 68 fa ff ff 	movq   $0x0,-0x598(%rbp)
   109ec:	00 00 00 00 
   109f0:	48 8d 85 e0 f5 ff ff 	lea    -0xa20(%rbp),%rax
   109f7:	48 89 85 70 fa ff ff 	mov    %rax,-0x590(%rbp)
   109fe:	48 8d 85 e0 f5 ff ff 	lea    -0xa20(%rbp),%rax
   10a05:	48 89 85 78 fa ff ff 	mov    %rax,-0x588(%rbp)
   10a0c:	48 8d 85 e0 f5 ff ff 	lea    -0xa20(%rbp),%rax
   10a13:	48 89 85 80 fa ff ff 	mov    %rax,-0x580(%rbp)
   10a1a:	48 8d 85 e0 f5 ff ff 	lea    -0xa20(%rbp),%rax
   10a21:	48 89 85 88 fa ff ff 	mov    %rax,-0x578(%rbp)
   10a28:	48 8d 85 e0 f5 ff ff 	lea    -0xa20(%rbp),%rax
   10a2f:	48 89 85 90 fa ff ff 	mov    %rax,-0x570(%rbp)
   10a36:	48 8d 85 e0 f5 ff ff 	lea    -0xa20(%rbp),%rax
   10a3d:	48 89 85 98 fa ff ff 	mov    %rax,-0x568(%rbp)
   10a44:	48 8d 85 e0 f5 ff ff 	lea    -0xa20(%rbp),%rax
   10a4b:	48 89 85 a0 fa ff ff 	mov    %rax,-0x560(%rbp)
   10a52:	48 8d 85 e0 f5 ff ff 	lea    -0xa20(%rbp),%rax
   10a59:	48 89 85 a8 fa ff ff 	mov    %rax,-0x558(%rbp)
   10a60:	48 c7 85 b0 fa ff ff 	movq   $0x0,-0x550(%rbp)
   10a67:	00 00 00 00 
   10a6b:	48 8d 85 e0 f5 ff ff 	lea    -0xa20(%rbp),%rax
   10a72:	48 89 85 b8 fa ff ff 	mov    %rax,-0x548(%rbp)
   10a79:	48 8d 85 e0 f5 ff ff 	lea    -0xa20(%rbp),%rax
   10a80:	48 89 85 c0 fa ff ff 	mov    %rax,-0x540(%rbp)
   10a87:	48 c7 85 c8 fa ff ff 	movq   $0x0,-0x538(%rbp)
   10a8e:	00 00 00 00 
   10a92:	48 c7 85 d0 fa ff ff 	movq   $0x0,-0x530(%rbp)
   10a99:	00 00 00 00 
   10a9d:	48 8d 85 e0 f5 ff ff 	lea    -0xa20(%rbp),%rax
   10aa4:	48 89 85 d8 fa ff ff 	mov    %rax,-0x528(%rbp)
   10aab:	48 c7 85 e0 fa ff ff 	movq   $0x0,-0x520(%rbp)
   10ab2:	00 00 00 00 
   10ab6:	48 8d 85 e0 f5 ff ff 	lea    -0xa20(%rbp),%rax
   10abd:	48 89 85 e8 fa ff ff 	mov    %rax,-0x518(%rbp)
   10ac4:	48 8d 85 e0 f5 ff ff 	lea    -0xa20(%rbp),%rax
   10acb:	48 89 85 f0 fa ff ff 	mov    %rax,-0x510(%rbp)
   10ad2:	48 c7 85 f8 fa ff ff 	movq   $0x0,-0x508(%rbp)
   10ad9:	00 00 00 00 
   10add:	48 8d 85 e0 f5 ff ff 	lea    -0xa20(%rbp),%rax
   10ae4:	48 89 85 00 fb ff ff 	mov    %rax,-0x500(%rbp)
   10aeb:	48 8d 85 e0 f5 ff ff 	lea    -0xa20(%rbp),%rax
   10af2:	48 89 85 08 fb ff ff 	mov    %rax,-0x4f8(%rbp)
   10af9:	48 8d 85 e0 f5 ff ff 	lea    -0xa20(%rbp),%rax
   10b00:	48 89 85 10 fb ff ff 	mov    %rax,-0x4f0(%rbp)
   10b07:	48 8d 85 e0 f5 ff ff 	lea    -0xa20(%rbp),%rax
   10b0e:	48 89 85 18 fb ff ff 	mov    %rax,-0x4e8(%rbp)
   10b15:	48 8d 85 e0 f5 ff ff 	lea    -0xa20(%rbp),%rax
   10b1c:	48 89 85 20 fb ff ff 	mov    %rax,-0x4e0(%rbp)
   10b23:	48 8d 85 e0 f5 ff ff 	lea    -0xa20(%rbp),%rax
   10b2a:	48 89 85 28 fb ff ff 	mov    %rax,-0x4d8(%rbp)
   10b31:	48 8d 85 e0 f5 ff ff 	lea    -0xa20(%rbp),%rax
   10b38:	48 89 85 30 fb ff ff 	mov    %rax,-0x4d0(%rbp)
   10b3f:	48 8d 85 e0 f5 ff ff 	lea    -0xa20(%rbp),%rax
   10b46:	48 89 85 38 fb ff ff 	mov    %rax,-0x4c8(%rbp)
   10b4d:	48 8d 85 e0 f5 ff ff 	lea    -0xa20(%rbp),%rax
   10b54:	48 89 85 40 fb ff ff 	mov    %rax,-0x4c0(%rbp)
   10b5b:	48 8d 85 e0 f5 ff ff 	lea    -0xa20(%rbp),%rax
   10b62:	48 89 85 48 fb ff ff 	mov    %rax,-0x4b8(%rbp)
   10b69:	48 8d 85 e0 f5 ff ff 	lea    -0xa20(%rbp),%rax
   10b70:	48 89 85 50 fb ff ff 	mov    %rax,-0x4b0(%rbp)
   10b77:	48 8d 85 e0 f5 ff ff 	lea    -0xa20(%rbp),%rax
   10b7e:	48 89 85 58 fb ff ff 	mov    %rax,-0x4a8(%rbp)
   10b85:	48 8d 85 e0 f5 ff ff 	lea    -0xa20(%rbp),%rax
   10b8c:	48 89 85 60 fb ff ff 	mov    %rax,-0x4a0(%rbp)
   10b93:	48 8d 85 e0 f5 ff ff 	lea    -0xa20(%rbp),%rax
   10b9a:	48 89 85 68 fb ff ff 	mov    %rax,-0x498(%rbp)
   10ba1:	48 8d 85 e0 f5 ff ff 	lea    -0xa20(%rbp),%rax
   10ba8:	48 89 85 70 fb ff ff 	mov    %rax,-0x490(%rbp)
   10baf:	48 8d 85 e0 f5 ff ff 	lea    -0xa20(%rbp),%rax
   10bb6:	48 89 85 78 fb ff ff 	mov    %rax,-0x488(%rbp)
   10bbd:	48 8d 85 e0 f5 ff ff 	lea    -0xa20(%rbp),%rax
   10bc4:	48 89 85 80 fb ff ff 	mov    %rax,-0x480(%rbp)
   10bcb:	48 c7 85 88 fb ff ff 	movq   $0x0,-0x478(%rbp)
   10bd2:	00 00 00 00 
   10bd6:	48 8d 85 e0 f5 ff ff 	lea    -0xa20(%rbp),%rax
   10bdd:	48 89 85 90 fb ff ff 	mov    %rax,-0x470(%rbp)
   10be4:	48 8d 85 e0 f5 ff ff 	lea    -0xa20(%rbp),%rax
   10beb:	48 89 85 98 fb ff ff 	mov    %rax,-0x468(%rbp)
   10bf2:	48 8d 85 e0 f5 ff ff 	lea    -0xa20(%rbp),%rax
   10bf9:	48 89 85 a0 fb ff ff 	mov    %rax,-0x460(%rbp)
   10c00:	48 8d 85 e0 f5 ff ff 	lea    -0xa20(%rbp),%rax
   10c07:	48 89 85 a8 fb ff ff 	mov    %rax,-0x458(%rbp)
   10c0e:	48 c7 85 b0 fb ff ff 	movq   $0x0,-0x450(%rbp)
   10c15:	00 00 00 00 
   10c19:	48 8d 85 e0 f5 ff ff 	lea    -0xa20(%rbp),%rax
   10c20:	48 89 85 b8 fb ff ff 	mov    %rax,-0x448(%rbp)
   10c27:	48 8d 85 e0 f5 ff ff 	lea    -0xa20(%rbp),%rax
   10c2e:	48 89 85 c0 fb ff ff 	mov    %rax,-0x440(%rbp)
   10c35:	48 8d 85 e0 f5 ff ff 	lea    -0xa20(%rbp),%rax
   10c3c:	48 89 85 c8 fb ff ff 	mov    %rax,-0x438(%rbp)
   10c43:	48 8d 85 e0 f5 ff ff 	lea    -0xa20(%rbp),%rax
   10c4a:	48 89 85 d0 fb ff ff 	mov    %rax,-0x430(%rbp)
   10c51:	48 8d 85 e0 f5 ff ff 	lea    -0xa20(%rbp),%rax
   10c58:	48 89 85 d8 fb ff ff 	mov    %rax,-0x428(%rbp)
   10c5f:	48 8d 85 e0 f5 ff ff 	lea    -0xa20(%rbp),%rax
   10c66:	48 89 85 e0 fb ff ff 	mov    %rax,-0x420(%rbp)
   10c6d:	48 8d 85 e0 f5 ff ff 	lea    -0xa20(%rbp),%rax
   10c74:	48 89 85 e8 fb ff ff 	mov    %rax,-0x418(%rbp)
   10c7b:	48 8d 85 e0 f5 ff ff 	lea    -0xa20(%rbp),%rax
   10c82:	48 89 85 f0 fb ff ff 	mov    %rax,-0x410(%rbp)
   10c89:	48 8d 85 e0 f5 ff ff 	lea    -0xa20(%rbp),%rax
   10c90:	48 89 85 f8 fb ff ff 	mov    %rax,-0x408(%rbp)
   10c97:	48 8d 85 e0 f5 ff ff 	lea    -0xa20(%rbp),%rax
   10c9e:	48 89 85 00 fc ff ff 	mov    %rax,-0x400(%rbp)
   10ca5:	48 8d 85 e0 f5 ff ff 	lea    -0xa20(%rbp),%rax
   10cac:	48 89 85 08 fc ff ff 	mov    %rax,-0x3f8(%rbp)
   10cb3:	48 8d 85 e0 f5 ff ff 	lea    -0xa20(%rbp),%rax
   10cba:	48 89 85 10 fc ff ff 	mov    %rax,-0x3f0(%rbp)
   10cc1:	48 8d 85 e0 f5 ff ff 	lea    -0xa20(%rbp),%rax
   10cc8:	48 89 85 18 fc ff ff 	mov    %rax,-0x3e8(%rbp)
   10ccf:	48 8d 85 e0 f5 ff ff 	lea    -0xa20(%rbp),%rax
   10cd6:	48 89 85 20 fc ff ff 	mov    %rax,-0x3e0(%rbp)
   10cdd:	48 8d 85 e0 f5 ff ff 	lea    -0xa20(%rbp),%rax
   10ce4:	48 89 85 28 fc ff ff 	mov    %rax,-0x3d8(%rbp)
   10ceb:	48 8d 85 e0 f5 ff ff 	lea    -0xa20(%rbp),%rax
   10cf2:	48 89 85 30 fc ff ff 	mov    %rax,-0x3d0(%rbp)
   10cf9:	48 8d 85 e0 f5 ff ff 	lea    -0xa20(%rbp),%rax
   10d00:	48 89 85 38 fc ff ff 	mov    %rax,-0x3c8(%rbp)
   10d07:	48 8d 85 e0 f5 ff ff 	lea    -0xa20(%rbp),%rax
   10d0e:	48 89 85 40 fc ff ff 	mov    %rax,-0x3c0(%rbp)
   10d15:	48 8d 85 e0 f5 ff ff 	lea    -0xa20(%rbp),%rax
   10d1c:	48 89 85 48 fc ff ff 	mov    %rax,-0x3b8(%rbp)
   10d23:	48 8d 85 e0 f5 ff ff 	lea    -0xa20(%rbp),%rax
   10d2a:	48 89 85 50 fc ff ff 	mov    %rax,-0x3b0(%rbp)
   10d31:	48 c7 85 58 fc ff ff 	movq   $0x0,-0x3a8(%rbp)
   10d38:	00 00 00 00 
   10d3c:	48 c7 85 60 fc ff ff 	movq   $0x0,-0x3a0(%rbp)
   10d43:	00 00 00 00 
   10d47:	48 c7 85 68 fc ff ff 	movq   $0x0,-0x398(%rbp)
   10d4e:	00 00 00 00 
   10d52:	48 c7 85 70 fc ff ff 	movq   $0x0,-0x390(%rbp)
   10d59:	00 00 00 00 
   10d5d:	48 8d 85 e0 f5 ff ff 	lea    -0xa20(%rbp),%rax
   10d64:	48 89 85 78 fc ff ff 	mov    %rax,-0x388(%rbp)
   10d6b:	48 8d 85 e0 f5 ff ff 	lea    -0xa20(%rbp),%rax
   10d72:	48 89 85 80 fc ff ff 	mov    %rax,-0x380(%rbp)
   10d79:	48 c7 85 88 fc ff ff 	movq   $0x0,-0x378(%rbp)
   10d80:	00 00 00 00 
   10d84:	48 8d 85 e0 f5 ff ff 	lea    -0xa20(%rbp),%rax
   10d8b:	48 89 85 90 fc ff ff 	mov    %rax,-0x370(%rbp)
   10d92:	48 8d 85 e0 f5 ff ff 	lea    -0xa20(%rbp),%rax
   10d99:	48 89 85 98 fc ff ff 	mov    %rax,-0x368(%rbp)
   10da0:	48 c7 85 a0 fc ff ff 	movq   $0x0,-0x360(%rbp)
   10da7:	00 00 00 00 
   10dab:	48 8d 85 e0 f5 ff ff 	lea    -0xa20(%rbp),%rax
   10db2:	48 89 85 a8 fc ff ff 	mov    %rax,-0x358(%rbp)
   10db9:	48 8d 85 e0 f5 ff ff 	lea    -0xa20(%rbp),%rax
   10dc0:	48 89 85 b0 fc ff ff 	mov    %rax,-0x350(%rbp)
   10dc7:	48 8d 85 e0 f5 ff ff 	lea    -0xa20(%rbp),%rax
   10dce:	48 89 85 b8 fc ff ff 	mov    %rax,-0x348(%rbp)
   10dd5:	48 8d 85 e0 f5 ff ff 	lea    -0xa20(%rbp),%rax
   10ddc:	48 89 85 c0 fc ff ff 	mov    %rax,-0x340(%rbp)
   10de3:	48 8d 85 e0 f5 ff ff 	lea    -0xa20(%rbp),%rax
   10dea:	48 89 85 c8 fc ff ff 	mov    %rax,-0x338(%rbp)
   10df1:	48 8d 85 e0 f5 ff ff 	lea    -0xa20(%rbp),%rax
   10df8:	48 89 85 d0 fc ff ff 	mov    %rax,-0x330(%rbp)
   10dff:	48 8d 85 e0 f5 ff ff 	lea    -0xa20(%rbp),%rax
   10e06:	48 89 85 d8 fc ff ff 	mov    %rax,-0x328(%rbp)
   10e0d:	48 8d 85 e0 f5 ff ff 	lea    -0xa20(%rbp),%rax
   10e14:	48 89 85 e0 fc ff ff 	mov    %rax,-0x320(%rbp)
   10e1b:	48 8d 85 e0 f5 ff ff 	lea    -0xa20(%rbp),%rax
   10e22:	48 89 85 e8 fc ff ff 	mov    %rax,-0x318(%rbp)
   10e29:	48 8d 85 e0 f5 ff ff 	lea    -0xa20(%rbp),%rax
   10e30:	48 89 85 f0 fc ff ff 	mov    %rax,-0x310(%rbp)
   10e37:	48 c7 85 f8 fc ff ff 	movq   $0x0,-0x308(%rbp)
   10e3e:	00 00 00 00 
   10e42:	48 8d 85 e0 f5 ff ff 	lea    -0xa20(%rbp),%rax
   10e49:	48 89 85 00 fd ff ff 	mov    %rax,-0x300(%rbp)
   10e50:	48 c7 85 08 fd ff ff 	movq   $0x0,-0x2f8(%rbp)
   10e57:	00 00 00 00 
   10e5b:	48 8d 85 e0 f5 ff ff 	lea    -0xa20(%rbp),%rax
   10e62:	48 89 85 10 fd ff ff 	mov    %rax,-0x2f0(%rbp)
   10e69:	48 8d 85 e0 f5 ff ff 	lea    -0xa20(%rbp),%rax
   10e70:	48 89 85 18 fd ff ff 	mov    %rax,-0x2e8(%rbp)
   10e77:	48 8d 85 e0 f5 ff ff 	lea    -0xa20(%rbp),%rax
   10e7e:	48 89 85 20 fd ff ff 	mov    %rax,-0x2e0(%rbp)
   10e85:	48 8d 85 e0 f5 ff ff 	lea    -0xa20(%rbp),%rax
   10e8c:	48 89 85 28 fd ff ff 	mov    %rax,-0x2d8(%rbp)
   10e93:	48 8d 85 e0 f5 ff ff 	lea    -0xa20(%rbp),%rax
   10e9a:	48 89 85 30 fd ff ff 	mov    %rax,-0x2d0(%rbp)
   10ea1:	48 8d 85 e0 f5 ff ff 	lea    -0xa20(%rbp),%rax
   10ea8:	48 89 85 38 fd ff ff 	mov    %rax,-0x2c8(%rbp)
   10eaf:	48 8d 85 e0 f5 ff ff 	lea    -0xa20(%rbp),%rax
   10eb6:	48 89 85 40 fd ff ff 	mov    %rax,-0x2c0(%rbp)
   10ebd:	48 8d 85 e0 f5 ff ff 	lea    -0xa20(%rbp),%rax
   10ec4:	48 89 85 48 fd ff ff 	mov    %rax,-0x2b8(%rbp)
   10ecb:	48 8d 85 e0 f5 ff ff 	lea    -0xa20(%rbp),%rax
   10ed2:	48 89 85 50 fd ff ff 	mov    %rax,-0x2b0(%rbp)
   10ed9:	48 c7 85 58 fd ff ff 	movq   $0x0,-0x2a8(%rbp)
   10ee0:	00 00 00 00 
   10ee4:	48 c7 85 60 fd ff ff 	movq   $0x0,-0x2a0(%rbp)
   10eeb:	00 00 00 00 
   10eef:	48 8d 85 e0 f5 ff ff 	lea    -0xa20(%rbp),%rax
   10ef6:	48 89 85 68 fd ff ff 	mov    %rax,-0x298(%rbp)
   10efd:	48 c7 85 70 fd ff ff 	movq   $0x0,-0x290(%rbp)
   10f04:	00 00 00 00 
   10f08:	48 8d 85 e0 f5 ff ff 	lea    -0xa20(%rbp),%rax
   10f0f:	48 89 85 78 fd ff ff 	mov    %rax,-0x288(%rbp)
   10f16:	48 8d 85 e0 f5 ff ff 	lea    -0xa20(%rbp),%rax
   10f1d:	48 89 85 80 fd ff ff 	mov    %rax,-0x280(%rbp)
   10f24:	48 8d 85 e0 f5 ff ff 	lea    -0xa20(%rbp),%rax
   10f2b:	48 89 85 88 fd ff ff 	mov    %rax,-0x278(%rbp)
   10f32:	48 8d 85 e0 f5 ff ff 	lea    -0xa20(%rbp),%rax
   10f39:	48 89 85 90 fd ff ff 	mov    %rax,-0x270(%rbp)
   10f40:	48 8d 85 e0 f5 ff ff 	lea    -0xa20(%rbp),%rax
   10f47:	48 89 85 98 fd ff ff 	mov    %rax,-0x268(%rbp)
   10f4e:	48 8d 85 e0 f5 ff ff 	lea    -0xa20(%rbp),%rax
   10f55:	48 89 85 a0 fd ff ff 	mov    %rax,-0x260(%rbp)
   10f5c:	48 c7 85 a8 fd ff ff 	movq   $0x0,-0x258(%rbp)
   10f63:	00 00 00 00 
   10f67:	48 8d 85 e0 f5 ff ff 	lea    -0xa20(%rbp),%rax
   10f6e:	48 89 85 b0 fd ff ff 	mov    %rax,-0x250(%rbp)
   10f75:	48 8d 85 e0 f5 ff ff 	lea    -0xa20(%rbp),%rax
   10f7c:	48 89 85 b8 fd ff ff 	mov    %rax,-0x248(%rbp)
   10f83:	48 c7 85 c0 fd ff ff 	movq   $0x0,-0x240(%rbp)
   10f8a:	00 00 00 00 
   10f8e:	48 8d 85 e0 f5 ff ff 	lea    -0xa20(%rbp),%rax
   10f95:	48 89 85 c8 fd ff ff 	mov    %rax,-0x238(%rbp)
   10f9c:	48 8d 85 e0 f5 ff ff 	lea    -0xa20(%rbp),%rax
   10fa3:	48 89 85 d0 fd ff ff 	mov    %rax,-0x230(%rbp)
   10faa:	48 c7 85 d8 fd ff ff 	movq   $0x0,-0x228(%rbp)
   10fb1:	00 00 00 00 
   10fb5:	48 8d 85 e0 f5 ff ff 	lea    -0xa20(%rbp),%rax
   10fbc:	48 89 85 e0 fd ff ff 	mov    %rax,-0x220(%rbp)
   10fc3:	48 c7 85 e8 fd ff ff 	movq   $0x0,-0x218(%rbp)
   10fca:	00 00 00 00 
   10fce:	48 8d 85 e0 f5 ff ff 	lea    -0xa20(%rbp),%rax
   10fd5:	48 89 85 f0 fd ff ff 	mov    %rax,-0x210(%rbp)
   10fdc:	48 8d 85 e0 f5 ff ff 	lea    -0xa20(%rbp),%rax
   10fe3:	48 89 85 f8 fd ff ff 	mov    %rax,-0x208(%rbp)
   10fea:	48 8d 85 e0 f5 ff ff 	lea    -0xa20(%rbp),%rax
   10ff1:	48 89 85 00 fe ff ff 	mov    %rax,-0x200(%rbp)
   10ff8:	48 8d 85 e0 f5 ff ff 	lea    -0xa20(%rbp),%rax
   10fff:	48 89 85 08 fe ff ff 	mov    %rax,-0x1f8(%rbp)
   11006:	48 8d 85 e0 f5 ff ff 	lea    -0xa20(%rbp),%rax
   1100d:	48 89 85 10 fe ff ff 	mov    %rax,-0x1f0(%rbp)
   11014:	48 8d 85 e0 f5 ff ff 	lea    -0xa20(%rbp),%rax
   1101b:	48 89 85 18 fe ff ff 	mov    %rax,-0x1e8(%rbp)
   11022:	48 8d 85 e0 f5 ff ff 	lea    -0xa20(%rbp),%rax
   11029:	48 89 85 20 fe ff ff 	mov    %rax,-0x1e0(%rbp)
   11030:	48 8d 85 e0 f5 ff ff 	lea    -0xa20(%rbp),%rax
   11037:	48 89 85 28 fe ff ff 	mov    %rax,-0x1d8(%rbp)
   1103e:	48 8d 85 e0 f5 ff ff 	lea    -0xa20(%rbp),%rax
   11045:	48 89 85 30 fe ff ff 	mov    %rax,-0x1d0(%rbp)
   1104c:	48 8d 85 e0 f5 ff ff 	lea    -0xa20(%rbp),%rax
   11053:	48 89 85 38 fe ff ff 	mov    %rax,-0x1c8(%rbp)
   1105a:	48 8d 85 e0 f5 ff ff 	lea    -0xa20(%rbp),%rax
   11061:	48 89 85 40 fe ff ff 	mov    %rax,-0x1c0(%rbp)
   11068:	48 8d 85 e0 f5 ff ff 	lea    -0xa20(%rbp),%rax
   1106f:	48 89 85 48 fe ff ff 	mov    %rax,-0x1b8(%rbp)
   11076:	48 8d 85 e0 f5 ff ff 	lea    -0xa20(%rbp),%rax
   1107d:	48 89 85 50 fe ff ff 	mov    %rax,-0x1b0(%rbp)
   11084:	48 8d 85 e0 f5 ff ff 	lea    -0xa20(%rbp),%rax
   1108b:	48 89 85 58 fe ff ff 	mov    %rax,-0x1a8(%rbp)
   11092:	48 8d 85 e0 f5 ff ff 	lea    -0xa20(%rbp),%rax
   11099:	48 89 85 60 fe ff ff 	mov    %rax,-0x1a0(%rbp)
   110a0:	48 8d 85 e0 f5 ff ff 	lea    -0xa20(%rbp),%rax
   110a7:	48 89 85 68 fe ff ff 	mov    %rax,-0x198(%rbp)
   110ae:	48 8d 85 e0 f5 ff ff 	lea    -0xa20(%rbp),%rax
   110b5:	48 89 85 70 fe ff ff 	mov    %rax,-0x190(%rbp)
   110bc:	48 8d 85 e0 f5 ff ff 	lea    -0xa20(%rbp),%rax
   110c3:	48 89 85 78 fe ff ff 	mov    %rax,-0x188(%rbp)
   110ca:	48 8d 85 e0 f5 ff ff 	lea    -0xa20(%rbp),%rax
   110d1:	48 89 85 80 fe ff ff 	mov    %rax,-0x180(%rbp)
   110d8:	48 8d 85 e0 f5 ff ff 	lea    -0xa20(%rbp),%rax
   110df:	48 89 85 88 fe ff ff 	mov    %rax,-0x178(%rbp)
   110e6:	48 c7 85 90 fe ff ff 	movq   $0x0,-0x170(%rbp)
   110ed:	00 00 00 00 
   110f1:	48 8d 85 e0 f5 ff ff 	lea    -0xa20(%rbp),%rax
   110f8:	48 89 85 98 fe ff ff 	mov    %rax,-0x168(%rbp)
   110ff:	48 8d 85 e0 f5 ff ff 	lea    -0xa20(%rbp),%rax
   11106:	48 89 85 a0 fe ff ff 	mov    %rax,-0x160(%rbp)
   1110d:	48 8d 85 e0 f5 ff ff 	lea    -0xa20(%rbp),%rax
   11114:	48 89 85 a8 fe ff ff 	mov    %rax,-0x158(%rbp)
   1111b:	48 8d 85 e0 f5 ff ff 	lea    -0xa20(%rbp),%rax
   11122:	48 89 85 b0 fe ff ff 	mov    %rax,-0x150(%rbp)
   11129:	48 8d 85 e0 f5 ff ff 	lea    -0xa20(%rbp),%rax
   11130:	48 89 85 b8 fe ff ff 	mov    %rax,-0x148(%rbp)
   11137:	48 8d 85 e0 f5 ff ff 	lea    -0xa20(%rbp),%rax
   1113e:	48 89 85 c0 fe ff ff 	mov    %rax,-0x140(%rbp)
   11145:	48 8d 85 e0 f5 ff ff 	lea    -0xa20(%rbp),%rax
   1114c:	48 89 85 c8 fe ff ff 	mov    %rax,-0x138(%rbp)
   11153:	48 8d 85 e0 f5 ff ff 	lea    -0xa20(%rbp),%rax
   1115a:	48 89 85 d0 fe ff ff 	mov    %rax,-0x130(%rbp)
   11161:	48 c7 85 d8 fe ff ff 	movq   $0x0,-0x128(%rbp)
   11168:	00 00 00 00 
   1116c:	48 8d 85 e0 f5 ff ff 	lea    -0xa20(%rbp),%rax
   11173:	48 89 85 e0 fe ff ff 	mov    %rax,-0x120(%rbp)
   1117a:	48 8d 85 e0 f5 ff ff 	lea    -0xa20(%rbp),%rax
   11181:	48 89 85 e8 fe ff ff 	mov    %rax,-0x118(%rbp)
   11188:	48 8d 85 e0 f5 ff ff 	lea    -0xa20(%rbp),%rax
   1118f:	48 89 85 f0 fe ff ff 	mov    %rax,-0x110(%rbp)
   11196:	48 8d 85 e0 f5 ff ff 	lea    -0xa20(%rbp),%rax
   1119d:	48 89 85 f8 fe ff ff 	mov    %rax,-0x108(%rbp)
   111a4:	48 8d 85 e0 f5 ff ff 	lea    -0xa20(%rbp),%rax
   111ab:	48 89 85 00 ff ff ff 	mov    %rax,-0x100(%rbp)
   111b2:	48 8d 85 e0 f5 ff ff 	lea    -0xa20(%rbp),%rax
   111b9:	48 89 85 08 ff ff ff 	mov    %rax,-0xf8(%rbp)
   111c0:	48 8d 85 e0 f5 ff ff 	lea    -0xa20(%rbp),%rax
   111c7:	48 89 85 10 ff ff ff 	mov    %rax,-0xf0(%rbp)
   111ce:	48 8d 85 e0 f5 ff ff 	lea    -0xa20(%rbp),%rax
   111d5:	48 89 85 18 ff ff ff 	mov    %rax,-0xe8(%rbp)
   111dc:	48 c7 85 20 ff ff ff 	movq   $0x0,-0xe0(%rbp)
   111e3:	00 00 00 00 
   111e7:	48 8d 85 e0 f5 ff ff 	lea    -0xa20(%rbp),%rax
   111ee:	48 89 85 28 ff ff ff 	mov    %rax,-0xd8(%rbp)
   111f5:	48 8d 85 e0 f5 ff ff 	lea    -0xa20(%rbp),%rax
   111fc:	48 89 85 30 ff ff ff 	mov    %rax,-0xd0(%rbp)
   11203:	48 8d 85 e0 f5 ff ff 	lea    -0xa20(%rbp),%rax
   1120a:	48 89 85 38 ff ff ff 	mov    %rax,-0xc8(%rbp)
   11211:	48 8d 85 e0 f5 ff ff 	lea    -0xa20(%rbp),%rax
   11218:	48 89 85 40 ff ff ff 	mov    %rax,-0xc0(%rbp)
   1121f:	48 8d 85 e0 f5 ff ff 	lea    -0xa20(%rbp),%rax
   11226:	48 89 85 48 ff ff ff 	mov    %rax,-0xb8(%rbp)
   1122d:	48 8d 85 e0 f5 ff ff 	lea    -0xa20(%rbp),%rax
   11234:	48 89 85 50 ff ff ff 	mov    %rax,-0xb0(%rbp)
   1123b:	48 8d 85 e0 f5 ff ff 	lea    -0xa20(%rbp),%rax
   11242:	48 89 85 58 ff ff ff 	mov    %rax,-0xa8(%rbp)
   11249:	48 8d 85 e0 f5 ff ff 	lea    -0xa20(%rbp),%rax
   11250:	48 89 85 60 ff ff ff 	mov    %rax,-0xa0(%rbp)
   11257:	48 8d 85 e0 f5 ff ff 	lea    -0xa20(%rbp),%rax
   1125e:	48 89 85 68 ff ff ff 	mov    %rax,-0x98(%rbp)
   11265:	48 8d 85 e0 f5 ff ff 	lea    -0xa20(%rbp),%rax
   1126c:	48 89 85 70 ff ff ff 	mov    %rax,-0x90(%rbp)
   11273:	48 8d 85 e0 f5 ff ff 	lea    -0xa20(%rbp),%rax
   1127a:	48 89 85 78 ff ff ff 	mov    %rax,-0x88(%rbp)
   11281:	48 8d 85 e0 f5 ff ff 	lea    -0xa20(%rbp),%rax
   11288:	48 89 45 80          	mov    %rax,-0x80(%rbp)
   1128c:	48 8d 85 e0 f5 ff ff 	lea    -0xa20(%rbp),%rax
   11293:	48 89 45 88          	mov    %rax,-0x78(%rbp)
   11297:	48 8d 85 e0 f5 ff ff 	lea    -0xa20(%rbp),%rax
   1129e:	48 89 45 90          	mov    %rax,-0x70(%rbp)
   112a2:	48 8d 85 e0 f5 ff ff 	lea    -0xa20(%rbp),%rax
   112a9:	48 89 45 98          	mov    %rax,-0x68(%rbp)
   112ad:	48 8d 85 e0 f5 ff ff 	lea    -0xa20(%rbp),%rax
   112b4:	48 89 45 a0          	mov    %rax,-0x60(%rbp)
   112b8:	48 8d 85 e0 f5 ff ff 	lea    -0xa20(%rbp),%rax
   112bf:	48 89 45 a8          	mov    %rax,-0x58(%rbp)
   112c3:	48 8d 85 e0 f5 ff ff 	lea    -0xa20(%rbp),%rax
   112ca:	48 89 45 b0          	mov    %rax,-0x50(%rbp)
   112ce:	48 8d 85 e0 f5 ff ff 	lea    -0xa20(%rbp),%rax
   112d5:	48 89 45 b8          	mov    %rax,-0x48(%rbp)
   112d9:	48 8d 85 e0 f5 ff ff 	lea    -0xa20(%rbp),%rax
   112e0:	48 89 45 c0          	mov    %rax,-0x40(%rbp)
   112e4:	48 8d 05 41 83 00 00 	lea    0x8341(%rip),%rax        # 1962c <g_69>
   112eb:	48 89 85 f0 f5 ff ff 	mov    %rax,-0xa10(%rbp)
   112f2:	c7 85 d0 f5 ff ff 01 	movl   $0x1,-0xa30(%rbp)
   112f9:	00 00 00 
   112fc:	66 c7 85 20 f8 ff ff 	movw   $0x818f,-0x7e0(%rbp)
   11303:	8f 81 
   11305:	66 c7 85 22 f8 ff ff 	movw   $0xd479,-0x7de(%rbp)
   1130c:	79 d4 
   1130e:	66 c7 85 24 f8 ff ff 	movw   $0x0,-0x7dc(%rbp)
   11315:	00 00 
   11317:	66 c7 85 26 f8 ff ff 	movw   $0xffff,-0x7da(%rbp)
   1131e:	ff ff 
   11320:	66 c7 85 28 f8 ff ff 	movw   $0xf515,-0x7d8(%rbp)
   11327:	15 f5 
   11329:	66 c7 85 2a f8 ff ff 	movw   $0x0,-0x7d6(%rbp)
   11330:	00 00 
   11332:	66 c7 85 2c f8 ff ff 	movw   $0x3,-0x7d4(%rbp)
   11339:	03 00 
   1133b:	66 c7 85 2e f8 ff ff 	movw   $0xc6b8,-0x7d2(%rbp)
   11342:	b8 c6 
   11344:	66 c7 85 30 f8 ff ff 	movw   $0xd479,-0x7d0(%rbp)
   1134b:	79 d4 
   1134d:	66 c7 85 32 f8 ff ff 	movw   $0xc7a3,-0x7ce(%rbp)
   11354:	a3 c7 
   11356:	66 c7 85 34 f8 ff ff 	movw   $0xc1aa,-0x7cc(%rbp)
   1135d:	aa c1 
   1135f:	66 c7 85 36 f8 ff ff 	movw   $0xc1aa,-0x7ca(%rbp)
   11366:	aa c1 
   11368:	66 c7 85 38 f8 ff ff 	movw   $0x0,-0x7c8(%rbp)
   1136f:	00 00 
   11371:	66 c7 85 3a f8 ff ff 	movw   $0x0,-0x7c6(%rbp)
   11378:	00 00 
   1137a:	66 c7 85 3c f8 ff ff 	movw   $0x0,-0x7c4(%rbp)
   11381:	00 00 
   11383:	66 c7 85 3e f8 ff ff 	movw   $0x4c77,-0x7c2(%rbp)
   1138a:	77 4c 
   1138c:	66 c7 85 40 f8 ff ff 	movw   $0xffff,-0x7c0(%rbp)
   11393:	ff ff 
   11395:	66 c7 85 42 f8 ff ff 	movw   $0xb0fb,-0x7be(%rbp)
   1139c:	fb b0 
   1139e:	66 c7 85 44 f8 ff ff 	movw   $0xfffe,-0x7bc(%rbp)
   113a5:	fe ff 
   113a7:	66 c7 85 46 f8 ff ff 	movw   $0xd479,-0x7ba(%rbp)
   113ae:	79 d4 
   113b0:	66 c7 85 48 f8 ff ff 	movw   $0xdfcc,-0x7b8(%rbp)
   113b7:	cc df 
   113b9:	66 c7 85 4a f8 ff ff 	movw   $0xb820,-0x7b6(%rbp)
   113c0:	20 b8 
   113c2:	66 c7 85 4c f8 ff ff 	movw   $0xc6b8,-0x7b4(%rbp)
   113c9:	b8 c6 
   113cb:	66 c7 85 4e f8 ff ff 	movw   $0xfffe,-0x7b2(%rbp)
   113d2:	fe ff 
   113d4:	66 c7 85 50 f8 ff ff 	movw   $0xffff,-0x7b0(%rbp)
   113db:	ff ff 
   113dd:	66 c7 85 52 f8 ff ff 	movw   $0xb820,-0x7ae(%rbp)
   113e4:	20 b8 
   113e6:	66 c7 85 54 f8 ff ff 	movw   $0x3,-0x7ac(%rbp)
   113ed:	03 00 
   113ef:	66 c7 85 56 f8 ff ff 	movw   $0xd479,-0x7aa(%rbp)
   113f6:	79 d4 
   113f8:	66 c7 85 58 f8 ff ff 	movw   $0xb820,-0x7a8(%rbp)
   113ff:	20 b8 
   11401:	66 c7 85 5a f8 ff ff 	movw   $0xb0fb,-0x7a6(%rbp)
   11408:	fb b0 
   1140a:	66 c7 85 5c f8 ff ff 	movw   $0x57d5,-0x7a4(%rbp)
   11411:	d5 57 
   11413:	66 c7 85 5e f8 ff ff 	movw   $0x4c77,-0x7a2(%rbp)
   1141a:	77 4c 
   1141c:	66 c7 85 60 f8 ff ff 	movw   $0xf515,-0x7a0(%rbp)
   11423:	15 f5 
   11425:	66 c7 85 62 f8 ff ff 	movw   $0x0,-0x79e(%rbp)
   1142c:	00 00 
   1142e:	66 c7 85 64 f8 ff ff 	movw   $0xb820,-0x79c(%rbp)
   11435:	20 b8 
   11437:	66 c7 85 66 f8 ff ff 	movw   $0xc1aa,-0x79a(%rbp)
   1143e:	aa c1 
   11440:	66 c7 85 68 f8 ff ff 	movw   $0x0,-0x798(%rbp)
   11447:	00 00 
   11449:	66 c7 85 6a f8 ff ff 	movw   $0xc7a3,-0x796(%rbp)
   11450:	a3 c7 
   11452:	66 c7 85 6c f8 ff ff 	movw   $0x98f8,-0x794(%rbp)
   11459:	f8 98 
   1145b:	66 c7 85 6e f8 ff ff 	movw   $0xc6b8,-0x792(%rbp)
   11462:	b8 c6 
   11464:	66 c7 85 70 f8 ff ff 	movw   $0xdfcc,-0x790(%rbp)
   1146b:	cc df 
   1146d:	66 c7 85 72 f8 ff ff 	movw   $0x0,-0x78e(%rbp)
   11474:	00 00 
   11476:	66 c7 85 74 f8 ff ff 	movw   $0x0,-0x78c(%rbp)
   1147d:	00 00 
   1147f:	66 c7 85 76 f8 ff ff 	movw   $0xffff,-0x78a(%rbp)
   11486:	ff ff 
   11488:	66 c7 85 78 f8 ff ff 	movw   $0x0,-0x788(%rbp)
   1148f:	00 00 
   11491:	66 c7 85 7a f8 ff ff 	movw   $0xd479,-0x786(%rbp)
   11498:	79 d4 
   1149a:	66 c7 85 7c f8 ff ff 	movw   $0x8,-0x784(%rbp)
   114a1:	08 00 
   114a3:	66 c7 85 7e f8 ff ff 	movw   $0xd479,-0x782(%rbp)
   114aa:	79 d4 
   114ac:	66 c7 85 80 f8 ff ff 	movw   $0x0,-0x780(%rbp)
   114b3:	00 00 
   114b5:	66 c7 85 82 f8 ff ff 	movw   $0x3244,-0x77e(%rbp)
   114bc:	44 32 
   114be:	66 c7 85 84 f8 ff ff 	movw   $0xc1aa,-0x77c(%rbp)
   114c5:	aa c1 
   114c7:	66 c7 85 86 f8 ff ff 	movw   $0x8,-0x77a(%rbp)
   114ce:	08 00 
   114d0:	66 c7 85 88 f8 ff ff 	movw   $0xffff,-0x778(%rbp)
   114d7:	ff ff 
   114d9:	66 c7 85 8a f8 ff ff 	movw   $0xf515,-0x776(%rbp)
   114e0:	15 f5 
   114e2:	66 c7 85 8c f8 ff ff 	movw   $0xb820,-0x774(%rbp)
   114e9:	20 b8 
   114eb:	66 c7 85 8e f8 ff ff 	movw   $0xfff7,-0x772(%rbp)
   114f2:	f7 ff 
   114f4:	66 c7 85 90 f8 ff ff 	movw   $0x818f,-0x770(%rbp)
   114fb:	8f 81 
   114fd:	66 c7 85 92 f8 ff ff 	movw   $0xb0fb,-0x76e(%rbp)
   11504:	fb b0 
   11506:	66 c7 85 94 f8 ff ff 	movw   $0xdfcc,-0x76c(%rbp)
   1150d:	cc df 
   1150f:	66 c7 85 96 f8 ff ff 	movw   $0xffff,-0x76a(%rbp)
   11516:	ff ff 
   11518:	66 c7 85 98 f8 ff ff 	movw   $0x818f,-0x768(%rbp)
   1151f:	8f 81 
   11521:	66 c7 85 9a f8 ff ff 	movw   $0x0,-0x766(%rbp)
   11528:	00 00 
   1152a:	66 c7 85 9c f8 ff ff 	movw   $0xb820,-0x764(%rbp)
   11531:	20 b8 
   11533:	66 c7 85 9e f8 ff ff 	movw   $0x98f8,-0x762(%rbp)
   1153a:	f8 98 
   1153c:	66 c7 85 a0 f8 ff ff 	movw   $0xffff,-0x760(%rbp)
   11543:	ff ff 
   11545:	66 c7 85 a2 f8 ff ff 	movw   $0xffff,-0x75e(%rbp)
   1154c:	ff ff 
   1154e:	66 c7 85 a4 f8 ff ff 	movw   $0xc1aa,-0x75c(%rbp)
   11555:	aa c1 
   11557:	66 c7 85 a6 f8 ff ff 	movw   $0xc6b8,-0x75a(%rbp)
   1155e:	b8 c6 
   11560:	66 c7 85 a8 f8 ff ff 	movw   $0x0,-0x758(%rbp)
   11567:	00 00 
   11569:	66 c7 85 aa f8 ff ff 	movw   $0x54de,-0x756(%rbp)
   11570:	de 54 
   11572:	66 c7 85 ac f8 ff ff 	movw   $0x8,-0x754(%rbp)
   11579:	08 00 
   1157b:	66 c7 85 ae f8 ff ff 	movw   $0x4c77,-0x752(%rbp)
   11582:	77 4c 
   11584:	66 c7 85 b0 f8 ff ff 	movw   $0x0,-0x750(%rbp)
   1158b:	00 00 
   1158d:	66 c7 85 b2 f8 ff ff 	movw   $0xffff,-0x74e(%rbp)
   11594:	ff ff 
   11596:	66 c7 85 b4 f8 ff ff 	movw   $0x0,-0x74c(%rbp)
   1159d:	00 00 
   1159f:	66 c7 85 b6 f8 ff ff 	movw   $0xfff7,-0x74a(%rbp)
   115a6:	f7 ff 
   115a8:	66 c7 85 b8 f8 ff ff 	movw   $0xdfcc,-0x748(%rbp)
   115af:	cc df 
   115b1:	66 c7 85 ba f8 ff ff 	movw   $0x3244,-0x746(%rbp)
   115b8:	44 32 
   115ba:	66 c7 85 bc f8 ff ff 	movw   $0x98f8,-0x744(%rbp)
   115c1:	f8 98 
   115c3:	66 c7 85 be f8 ff ff 	movw   $0x0,-0x742(%rbp)
   115ca:	00 00 
   115cc:	c7 85 d4 f5 ff ff 07 	movl   $0x7,-0xa2c(%rbp)
   115d3:	00 00 00 
   115d6:	c7 85 90 f7 ff ff 00 	movl   $0x0,-0x870(%rbp)
   115dd:	00 00 00 
   115e0:	c7 85 94 f7 ff ff 00 	movl   $0x0,-0x86c(%rbp)
   115e7:	00 00 00 
   115ea:	c7 85 98 f7 ff ff e7 	movl   $0x6d6896e7,-0x868(%rbp)
   115f1:	96 68 6d 
   115f4:	c7 85 9c f7 ff ff 98 	movl   $0x2df7e098,-0x864(%rbp)
   115fb:	e0 f7 2d 
   115fe:	c7 85 a0 f7 ff ff f0 	movl   $0x2ec898f0,-0x860(%rbp)
   11605:	98 c8 2e 
   11608:	c7 85 a4 f7 ff ff 00 	movl   $0x0,-0x85c(%rbp)
   1160f:	00 00 00 
   11612:	c7 85 a8 f7 ff ff 98 	movl   $0x2df7e098,-0x858(%rbp)
   11619:	e0 f7 2d 
   1161c:	c7 85 ac f7 ff ff 98 	movl   $0x2df7e098,-0x854(%rbp)
   11623:	e0 f7 2d 
   11626:	c7 85 b0 f7 ff ff 00 	movl   $0x0,-0x850(%rbp)
   1162d:	00 00 00 
   11630:	c7 85 b4 f7 ff ff 00 	movl   $0x0,-0x84c(%rbp)
   11637:	00 00 00 
   1163a:	c7 85 b8 f7 ff ff e7 	movl   $0x6d6896e7,-0x848(%rbp)
   11641:	96 68 6d 
   11644:	c7 85 bc f7 ff ff 98 	movl   $0x2df7e098,-0x844(%rbp)
   1164b:	e0 f7 2d 
   1164e:	c7 85 c0 f7 ff ff f0 	movl   $0x2ec898f0,-0x840(%rbp)
   11655:	98 c8 2e 
   11658:	c7 85 c4 f7 ff ff 00 	movl   $0x0,-0x83c(%rbp)
   1165f:	00 00 00 
   11662:	c7 85 c8 f7 ff ff 98 	movl   $0x2df7e098,-0x838(%rbp)
   11669:	e0 f7 2d 
   1166c:	c7 85 cc f7 ff ff 98 	movl   $0x2df7e098,-0x834(%rbp)
   11673:	e0 f7 2d 
   11676:	c7 85 d0 f7 ff ff 00 	movl   $0x0,-0x830(%rbp)
   1167d:	00 00 00 
   11680:	c7 85 d4 f7 ff ff 00 	movl   $0x0,-0x82c(%rbp)
   11687:	00 00 00 
   1168a:	c7 85 d8 f7 ff ff e7 	movl   $0x6d6896e7,-0x828(%rbp)
   11691:	96 68 6d 
   11694:	c7 85 dc f7 ff ff 98 	movl   $0x2df7e098,-0x824(%rbp)
   1169b:	e0 f7 2d 
   1169e:	c7 85 e0 f7 ff ff f0 	movl   $0x2ec898f0,-0x820(%rbp)
   116a5:	98 c8 2e 
   116a8:	c7 85 e4 f7 ff ff 00 	movl   $0x0,-0x81c(%rbp)
   116af:	00 00 00 
   116b2:	c7 85 e8 f7 ff ff 98 	movl   $0x2df7e098,-0x818(%rbp)
   116b9:	e0 f7 2d 
   116bc:	c7 85 ec f7 ff ff 98 	movl   $0x2df7e098,-0x814(%rbp)
   116c3:	e0 f7 2d 
   116c6:	c7 85 f0 f7 ff ff 00 	movl   $0x0,-0x810(%rbp)
   116cd:	00 00 00 
   116d0:	c7 85 f4 f7 ff ff 00 	movl   $0x0,-0x80c(%rbp)
   116d7:	00 00 00 
   116da:	c7 85 f8 f7 ff ff e7 	movl   $0x6d6896e7,-0x808(%rbp)
   116e1:	96 68 6d 
   116e4:	c7 85 fc f7 ff ff 98 	movl   $0x2df7e098,-0x804(%rbp)
   116eb:	e0 f7 2d 
   116ee:	c7 85 00 f8 ff ff f0 	movl   $0x2ec898f0,-0x800(%rbp)
   116f5:	98 c8 2e 
   116f8:	c7 85 04 f8 ff ff 00 	movl   $0x0,-0x7fc(%rbp)
   116ff:	00 00 00 
   11702:	c7 85 08 f8 ff ff 98 	movl   $0x2df7e098,-0x7f8(%rbp)
   11709:	e0 f7 2d 
   1170c:	c7 85 0c f8 ff ff 98 	movl   $0x2df7e098,-0x7f4(%rbp)
   11713:	e0 f7 2d 
   11716:	c7 85 10 f8 ff ff 00 	movl   $0x0,-0x7f0(%rbp)
   1171d:	00 00 00 
   11720:	c7 85 14 f8 ff ff 00 	movl   $0x0,-0x7ec(%rbp)
   11727:	00 00 00 
   1172a:	c7 85 18 f8 ff ff e7 	movl   $0x6d6896e7,-0x7e8(%rbp)
   11731:	96 68 6d 
   11734:	c7 85 1c f8 ff ff 98 	movl   $0x2df7e098,-0x7e4(%rbp)
   1173b:	e0 f7 2d 
   1173e:	c7 85 c8 f5 ff ff 00 	movl   $0x0,-0xa38(%rbp)
   11745:	00 00 00 
   11748:	eb 1e                	jmp    11768 <func_7+0x1239>
   1174a:	8b 85 c8 f5 ff ff    	mov    -0xa38(%rbp),%eax
   11750:	48 98                	cltq   
   11752:	48 8d 15 ef 7e 00 00 	lea    0x7eef(%rip),%rdx        # 19648 <g_131>
   11759:	48 89 94 c5 10 f6 ff 	mov    %rdx,-0x9f0(%rbp,%rax,8)
   11760:	ff 
   11761:	83 85 c8 f5 ff ff 01 	addl   $0x1,-0xa38(%rbp)
   11768:	83 bd c8 f5 ff ff 01 	cmpl   $0x1,-0xa38(%rbp)
   1176f:	7e d9                	jle    1174a <func_7+0x121b>
   11771:	c7 85 c8 f5 ff ff 00 	movl   $0x0,-0xa38(%rbp)
   11778:	00 00 00 
   1177b:	eb 14                	jmp    11791 <func_7+0x1262>
   1177d:	8b 85 c8 f5 ff ff    	mov    -0xa38(%rbp),%eax
   11783:	48 98                	cltq   
   11785:	c6 44 05 d5 4a       	movb   $0x4a,-0x2b(%rbp,%rax,1)
   1178a:	83 85 c8 f5 ff ff 01 	addl   $0x1,-0xa38(%rbp)
   11791:	83 bd c8 f5 ff ff 02 	cmpl   $0x2,-0xa38(%rbp)
   11798:	7e e3                	jle    1177d <func_7+0x124e>
   1179a:	48 c7 85 b8 f5 ff ff 	movq   $0x0,-0xa48(%rbp)
   117a1:	00 00 00 00 
   117a5:	e9 8f 01 00 00       	jmpq   11939 <func_7+0x140a>
   117aa:	48 c7 85 90 f6 ff ff 	movq   $0x0,-0x970(%rbp)
   117b1:	00 00 00 00 
   117b5:	48 c7 85 98 f6 ff ff 	movq   $0x0,-0x968(%rbp)
   117bc:	00 00 00 00 
   117c0:	48 c7 85 a0 f6 ff ff 	movq   $0x0,-0x960(%rbp)
   117c7:	00 00 00 00 
   117cb:	48 c7 85 a8 f6 ff ff 	movq   $0x0,-0x958(%rbp)
   117d2:	00 00 00 00 
   117d6:	48 c7 85 b0 f6 ff ff 	movq   $0x0,-0x950(%rbp)
   117dd:	00 00 00 00 
   117e1:	48 c7 85 b8 f6 ff ff 	movq   $0x0,-0x948(%rbp)
   117e8:	00 00 00 00 
   117ec:	48 c7 85 c0 f6 ff ff 	movq   $0x0,-0x940(%rbp)
   117f3:	00 00 00 00 
   117f7:	48 c7 85 c8 f6 ff ff 	movq   $0x0,-0x938(%rbp)
   117fe:	00 00 00 00 
   11802:	48 8d 85 d8 f5 ff ff 	lea    -0xa28(%rbp),%rax
   11809:	48 89 85 f8 f5 ff ff 	mov    %rax,-0xa08(%rbp)
   11810:	48 8d 05 31 7e 00 00 	lea    0x7e31(%rip),%rax        # 19648 <g_131>
   11817:	48 89 85 40 f6 ff ff 	mov    %rax,-0x9c0(%rbp)
   1181e:	48 8d 05 23 7e 00 00 	lea    0x7e23(%rip),%rax        # 19648 <g_131>
   11825:	48 89 85 48 f6 ff ff 	mov    %rax,-0x9b8(%rbp)
   1182c:	48 8d 05 15 7e 00 00 	lea    0x7e15(%rip),%rax        # 19648 <g_131>
   11833:	48 89 85 50 f6 ff ff 	mov    %rax,-0x9b0(%rbp)
   1183a:	48 8d 05 07 7e 00 00 	lea    0x7e07(%rip),%rax        # 19648 <g_131>
   11841:	48 89 85 58 f6 ff ff 	mov    %rax,-0x9a8(%rbp)
   11848:	c7 85 cc f5 ff ff 00 	movl   $0x0,-0xa34(%rbp)
   1184f:	00 00 00 
   11852:	eb 1a                	jmp    1186e <func_7+0x133f>
   11854:	8b 85 cc f5 ff ff    	mov    -0xa34(%rbp),%eax
   1185a:	48 98                	cltq   
   1185c:	c7 84 85 04 f6 ff ff 	movl   $0xffffffff,-0x9fc(%rbp,%rax,4)
   11863:	ff ff ff ff 
   11867:	83 85 cc f5 ff ff 01 	addl   $0x1,-0xa34(%rbp)
   1186e:	83 bd cc f5 ff ff 02 	cmpl   $0x2,-0xa34(%rbp)
   11875:	7e dd                	jle    11854 <func_7+0x1325>
   11877:	83 a5 c4 f5 ff ff 01 	andl   $0x1,-0xa3c(%rbp)
   1187e:	c6 05 a8 7d 00 00 e7 	movb   $0xe7,0x7da8(%rip)        # 1962d <g_70>
   11885:	e9 98 00 00 00       	jmpq   11922 <func_7+0x13f3>
   1188a:	48 c7 85 d0 f6 ff ff 	movq   $0x0,-0x930(%rbp)
   11891:	00 00 00 00 
   11895:	48 c7 85 d8 f6 ff ff 	movq   $0x0,-0x928(%rbp)
   1189c:	00 00 00 00 
   118a0:	48 c7 85 e0 f6 ff ff 	movq   $0x0,-0x920(%rbp)
   118a7:	00 00 00 00 
   118ab:	48 c7 85 e8 f6 ff ff 	movq   $0x0,-0x918(%rbp)
   118b2:	00 00 00 00 
   118b6:	48 c7 85 f0 f6 ff ff 	movq   $0x0,-0x910(%rbp)
   118bd:	00 00 00 00 
   118c1:	48 c7 85 f8 f6 ff ff 	movq   $0x0,-0x908(%rbp)
   118c8:	00 00 00 00 
   118cc:	48 c7 85 00 f7 ff ff 	movq   $0x0,-0x900(%rbp)
   118d3:	00 00 00 00 
   118d7:	48 c7 85 08 f7 ff ff 	movq   $0x0,-0x8f8(%rbp)
   118de:	00 00 00 00 
   118e2:	48 c7 85 10 f7 ff ff 	movq   $0x0,-0x8f0(%rbp)
   118e9:	00 00 00 00 
   118ed:	48 c7 85 18 f7 ff ff 	movq   $0x0,-0x8e8(%rbp)
   118f4:	00 00 00 00 
   118f8:	48 8b 85 08 f7 ff ff 	mov    -0x8f8(%rbp),%rax
   118ff:	48 89 85 f0 f6 ff ff 	mov    %rax,-0x910(%rbp)
   11906:	0f b6 05 20 7d 00 00 	movzbl 0x7d20(%rip),%eax        # 1962d <g_70>
   1190d:	0f be c0             	movsbl %al,%eax
   11910:	be 09 00 00 00       	mov    $0x9,%esi
   11915:	89 c7                	mov    %eax,%edi
   11917:	e8 b8 68 ff ff       	callq  81d4 <safe_add_func_int8_t_s_s>
   1191c:	88 05 0b 7d 00 00    	mov    %al,0x7d0b(%rip)        # 1962d <g_70>
   11922:	0f b6 05 04 7d 00 00 	movzbl 0x7d04(%rip),%eax        # 1962d <g_70>
   11929:	3c e8                	cmp    $0xe8,%al
   1192b:	0f 8c 59 ff ff ff    	jl     1188a <func_7+0x135b>
   11931:	48 83 ad b8 f5 ff ff 	subq   $0x1,-0xa48(%rbp)
   11938:	01 
   11939:	48 83 bd b8 f5 ff ff 	cmpq   $0xfffffffffffffff6,-0xa48(%rbp)
   11940:	f6 
   11941:	0f 8c 63 fe ff ff    	jl     117aa <func_7+0x127b>
   11947:	8b 9d d4 f5 ff ff    	mov    -0xa2c(%rbp),%ebx
   1194d:	8b 85 2c f6 ff ff    	mov    -0x9d4(%rbp),%eax
   11953:	89 85 30 f6 ff ff    	mov    %eax,-0x9d0(%rbp)
   11959:	48 8b 85 b8 f5 ff ff 	mov    -0xa48(%rbp),%rax
   11960:	41 89 c6             	mov    %eax,%r14d
   11963:	0f b7 05 e8 78 00 00 	movzwl 0x78e8(%rip),%eax        # 19252 <g_63>
   1196a:	44 0f b7 e0          	movzwl %ax,%r12d
   1196e:	44 8b ad 68 f6 ff ff 	mov    -0x998(%rbp),%r13d
   11975:	8b 85 74 f6 ff ff    	mov    -0x98c(%rbp),%eax
   1197b:	0f b7 c0             	movzwl %ax,%eax
   1197e:	89 c6                	mov    %eax,%esi
   11980:	bf 01 00 00 00       	mov    $0x1,%edi
   11985:	e8 04 74 ff ff       	callq  8d8e <safe_div_func_uint16_t_u_u>
   1198a:	48 8b 85 b8 f5 ff ff 	mov    -0xa48(%rbp),%rax
   11991:	89 c7                	mov    %eax,%edi
   11993:	e8 0e 75 ff ff       	callq  8ea6 <safe_unary_minus_func_uint32_t_u>
   11998:	89 c0                	mov    %eax,%eax
   1199a:	be 01 00 00 00       	mov    $0x1,%esi
   1199f:	48 89 c7             	mov    %rax,%rdi
   119a2:	e8 01 6f ff ff       	callq  88a8 <safe_sub_func_int64_t_s_s>
   119a7:	48 81 bd b8 f5 ff ff 	cmpq   $0xffff,-0xa48(%rbp)
   119ae:	ff ff 00 00 
   119b2:	74 11                	je     119c5 <func_7+0x1496>
   119b4:	48 83 bd b8 f5 ff ff 	cmpq   $0x0,-0xa48(%rbp)
   119bb:	00 
   119bc:	74 07                	je     119c5 <func_7+0x1496>
   119be:	ba 01 00 00 00       	mov    $0x1,%edx
   119c3:	eb 05                	jmp    119ca <func_7+0x149b>
   119c5:	ba 00 00 00 00       	mov    $0x0,%edx
   119ca:	48 8b 05 97 a7 00 00 	mov    0xa797(%rip),%rax        # 1c168 <g_806>
   119d1:	89 10                	mov    %edx,(%rax)
   119d3:	48 8b 85 b8 f5 ff ff 	mov    -0xa48(%rbp),%rax
   119da:	0f b7 c0             	movzwl %ax,%eax
   119dd:	89 c7                	mov    %eax,%edi
   119df:	e8 05 73 ff ff       	callq  8ce9 <safe_unary_minus_func_uint16_t_u>
   119e4:	66 3d 0e 69          	cmp    $0x690e,%ax
   119e8:	0f 95 c0             	setne  %al
   119eb:	0f b6 c0             	movzbl %al,%eax
   119ee:	48 39 85 b8 f5 ff ff 	cmp    %rax,-0xa48(%rbp)
   119f5:	0f 9f c0             	setg   %al
   119f8:	0f b6 c0             	movzbl %al,%eax
   119fb:	41 39 c5             	cmp    %eax,%r13d
   119fe:	0f 9c c0             	setl   %al
   11a01:	0f b6 c0             	movzbl %al,%eax
   11a04:	48 39 85 b8 f5 ff ff 	cmp    %rax,-0xa48(%rbp)
   11a0b:	0f 95 c0             	setne  %al
   11a0e:	0f b6 c0             	movzbl %al,%eax
   11a11:	44 89 e6             	mov    %r12d,%esi
   11a14:	89 c7                	mov    %eax,%edi
   11a16:	e8 e4 72 ff ff       	callq  8cff <safe_add_func_uint16_t_u_u>
   11a1b:	48 bf 4b 7c d8 66 07 	movabs $0x90a6310766d87c4b,%rdi
   11a22:	31 a6 90 
   11a25:	e8 ef 75 ff ff       	callq  9019 <safe_unary_minus_func_uint64_t_u>
   11a2a:	0f b6 c0             	movzbl %al,%eax
   11a2d:	44 89 f6             	mov    %r14d,%esi
   11a30:	89 c7                	mov    %eax,%edi
   11a32:	e8 15 72 ff ff       	callq  8c4c <safe_lshift_func_uint8_t_u_u>
   11a37:	0f b6 c0             	movzbl %al,%eax
   11a3a:	be 49 00 00 00       	mov    $0x49,%esi
   11a3f:	89 c7                	mov    %eax,%edi
   11a41:	e8 4d 71 ff ff       	callq  8b93 <safe_mul_func_uint8_t_u_u>
   11a46:	84 c0                	test   %al,%al
   11a48:	74 07                	je     11a51 <func_7+0x1522>
   11a4a:	b8 01 00 00 00       	mov    $0x1,%eax
   11a4f:	eb 05                	jmp    11a56 <func_7+0x1527>
   11a51:	b8 00 00 00 00       	mov    $0x0,%eax
   11a56:	3b 85 d0 f5 ff ff    	cmp    -0xa30(%rbp),%eax
   11a5c:	0f 95 c0             	setne  %al
   11a5f:	0f b6 d0             	movzbl %al,%edx
   11a62:	48 8b 85 18 fa ff ff 	mov    -0x5e8(%rbp),%rax
   11a69:	48 89 85 18 fa ff ff 	mov    %rax,-0x5e8(%rbp)
   11a70:	48 8b 8d 18 fa ff ff 	mov    -0x5e8(%rbp),%rcx
   11a77:	48 8d 85 e0 f5 ff ff 	lea    -0xa20(%rbp),%rax
   11a7e:	48 39 c1             	cmp    %rax,%rcx
   11a81:	0f 95 c0             	setne  %al
   11a84:	0f b6 c0             	movzbl %al,%eax
   11a87:	89 d6                	mov    %edx,%esi
   11a89:	89 c7                	mov    %eax,%edi
   11a8b:	e8 82 67 ff ff       	callq  8212 <safe_mul_func_int8_t_s_s>
   11a90:	3c fa                	cmp    $0xfa,%al
   11a92:	0f 97 c0             	seta   %al
   11a95:	0f b6 c0             	movzbl %al,%eax
   11a98:	66 89 85 96 f8 ff ff 	mov    %ax,-0x76a(%rbp)
   11a9f:	0f b7 85 96 f8 ff ff 	movzwl -0x76a(%rbp),%eax
   11aa6:	0f b7 c0             	movzwl %ax,%eax
   11aa9:	89 de                	mov    %ebx,%esi
   11aab:	89 c7                	mov    %eax,%edi
   11aad:	e8 1a 6c ff ff       	callq  86cc <safe_mod_func_int32_t_s_s>
   11ab2:	85 c0                	test   %eax,%eax
   11ab4:	75 08                	jne    11abe <func_7+0x158f>
   11ab6:	8b 85 e0 f7 ff ff    	mov    -0x820(%rbp),%eax
   11abc:	85 c0                	test   %eax,%eax
   11abe:	48 c7 c2 ff ff ff ff 	mov    $0xffffffffffffffff,%rdx
   11ac5:	0f b6 45 d5          	movzbl -0x2b(%rbp),%eax
   11ac9:	09 d0                	or     %edx,%eax
   11acb:	88 45 d5             	mov    %al,-0x2b(%rbp)
   11ace:	48 8b 05 ab 9e 00 00 	mov    0x9eab(%rip),%rax        # 1b980 <g_32>
   11ad5:	0f b6 00             	movzbl (%rax),%eax
   11ad8:	48 8b 4d d8          	mov    -0x28(%rbp),%rcx
   11adc:	64 48 33 0c 25 28 00 	xor    %fs:0x28,%rcx
   11ae3:	00 00 
   11ae5:	74 05                	je     11aec <func_7+0x15bd>
   11ae7:	e8 84 65 ff ff       	callq  8070 <__stack_chk_fail@plt>
   11aec:	48 81 c4 30 0a 00 00 	add    $0xa30,%rsp
   11af3:	5b                   	pop    %rbx
   11af4:	41 5c                	pop    %r12
   11af6:	41 5d                	pop    %r13
   11af8:	41 5e                	pop    %r14
   11afa:	5d                   	pop    %rbp
   11afb:	c3                   	retq   

0000000000011afc <func_9>:
   11afc:	f3 0f 1e fa          	endbr64 
   11b00:	55                   	push   %rbp
   11b01:	48 89 e5             	mov    %rsp,%rbp
   11b04:	48 89 7d e8          	mov    %rdi,-0x18(%rbp)
   11b08:	89 75 e4             	mov    %esi,-0x1c(%rbp)
   11b0b:	48 89 55 d8          	mov    %rdx,-0x28(%rbp)
   11b0f:	48 89 4d d0          	mov    %rcx,-0x30(%rbp)
   11b13:	66 c7 45 fe 02 00    	movw   $0x2,-0x2(%rbp)
   11b19:	0f b7 45 fe          	movzwl -0x2(%rbp),%eax
   11b1d:	5d                   	pop    %rbp
   11b1e:	c3                   	retq   

0000000000011b1f <func_14>:
   11b1f:	f3 0f 1e fa          	endbr64 
   11b23:	55                   	push   %rbp
   11b24:	48 89 e5             	mov    %rsp,%rbp
   11b27:	48 89 7d e8          	mov    %rdi,-0x18(%rbp)
   11b2b:	89 c8                	mov    %ecx,%eax
   11b2d:	4c 89 45 d0          	mov    %r8,-0x30(%rbp)
   11b31:	89 f1                	mov    %esi,%ecx
   11b33:	88 4d e4             	mov    %cl,-0x1c(%rbp)
   11b36:	88 55 e0             	mov    %dl,-0x20(%rbp)
   11b39:	88 45 dc             	mov    %al,-0x24(%rbp)
   11b3c:	c7 45 fc 03 00 00 00 	movl   $0x3,-0x4(%rbp)
   11b43:	8b 45 fc             	mov    -0x4(%rbp),%eax
   11b46:	5d                   	pop    %rbp
   11b47:	c3                   	retq   

0000000000011b48 <func_21>:
   11b48:	f3 0f 1e fa          	endbr64 
   11b4c:	55                   	push   %rbp
   11b4d:	48 89 e5             	mov    %rsp,%rbp
   11b50:	48 81 ec 70 07 00 00 	sub    $0x770,%rsp
   11b57:	48 89 bd 98 f8 ff ff 	mov    %rdi,-0x768(%rbp)
   11b5e:	64 48 8b 04 25 28 00 	mov    %fs:0x28,%rax
   11b65:	00 00 
   11b67:	48 89 45 f8          	mov    %rax,-0x8(%rbp)
   11b6b:	31 c0                	xor    %eax,%eax
   11b6d:	48 8d 05 d4 7a 00 00 	lea    0x7ad4(%rip),%rax        # 19648 <g_131>
   11b74:	48 89 85 d8 f8 ff ff 	mov    %rax,-0x728(%rbp)
   11b7b:	48 c7 85 c8 f8 ff ff 	movq   $0x0,-0x738(%rbp)
   11b82:	00 00 00 00 
   11b86:	c7 85 b8 f8 ff ff 3c 	movl   $0x90d2993c,-0x748(%rbp)
   11b8d:	99 d2 90 
   11b90:	66 c7 85 b2 f8 ff ff 	movw   $0x0,-0x74e(%rbp)
   11b97:	00 00 
   11b99:	48 8d 05 ae 74 00 00 	lea    0x74ae(%rip),%rax        # 1904e <g_52>
   11ba0:	48 89 85 e0 f8 ff ff 	mov    %rax,-0x720(%rbp)
   11ba7:	48 8d 05 e2 af 00 00 	lea    0xafe2(%rip),%rax        # 1cb90 <g_101>
   11bae:	48 89 85 e8 f8 ff ff 	mov    %rax,-0x718(%rbp)
   11bb5:	c7 85 bc f8 ff ff 00 	movl   $0x0,-0x744(%rbp)
   11bbc:	00 00 00 
   11bbf:	c7 85 c0 f8 ff ff 01 	movl   $0x1,-0x740(%rbp)
   11bc6:	00 00 00 
   11bc9:	48 8d 85 f0 f9 ff ff 	lea    -0x610(%rbp),%rax
   11bd0:	48 8d 15 a9 3e 00 00 	lea    0x3ea9(%rip),%rdx        # 15a80 <g_1636+0x890>
   11bd7:	b9 46 00 00 00       	mov    $0x46,%ecx
   11bdc:	48 89 c7             	mov    %rax,%rdi
   11bdf:	48 89 d6             	mov    %rdx,%rsi
   11be2:	f3 48 a5             	rep movsq %ds:(%rsi),%es:(%rdi)
   11be5:	48 8d 05 60 7a 00 00 	lea    0x7a60(%rip),%rax        # 1964c <g_134>
   11bec:	48 89 85 f0 f8 ff ff 	mov    %rax,-0x710(%rbp)
   11bf3:	48 8d 05 5e 34 00 00 	lea    0x345e(%rip),%rax        # 15058 <g_348>
   11bfa:	48 89 85 f8 f8 ff ff 	mov    %rax,-0x708(%rbp)
   11c01:	48 8d 05 80 9d 00 00 	lea    0x9d80(%rip),%rax        # 1b988 <g_224>
   11c08:	48 89 85 00 f9 ff ff 	mov    %rax,-0x700(%rbp)
   11c0f:	c6 85 ae f8 ff ff fd 	movb   $0xfd,-0x752(%rbp)
   11c16:	c6 85 af f8 ff ff f6 	movb   $0xf6,-0x751(%rbp)
   11c1d:	c7 85 30 f9 ff ff 32 	movl   $0xfffffd32,-0x6d0(%rbp)
   11c24:	fd ff ff 
   11c27:	c7 85 34 f9 ff ff 4f 	movl   $0xff324f4f,-0x6cc(%rbp)
   11c2e:	4f 32 ff 
   11c31:	c7 85 38 f9 ff ff 01 	movl   $0x3201fd01,-0x6c8(%rbp)
   11c38:	fd 01 32 
   11c3b:	c7 85 3c f9 ff ff 01 	movl   $0x1323201,-0x6c4(%rbp)
   11c42:	32 32 01 
   11c45:	c7 85 40 f9 ff ff 4f 	movl   $0x32ff324f,-0x6c0(%rbp)
   11c4c:	32 ff 32 
   11c4f:	c7 85 44 f9 ff ff 32 	movl   $0xfffffd32,-0x6bc(%rbp)
   11c56:	fd ff ff 
   11c59:	48 8d 05 b0 a0 00 00 	lea    0xa0b0(%rip),%rax        # 1bd10 <g_552>
   11c60:	48 89 85 08 f9 ff ff 	mov    %rax,-0x6f8(%rbp)
   11c67:	c6 85 b0 f8 ff ff a8 	movb   $0xa8,-0x750(%rbp)
   11c6e:	48 c7 85 10 f9 ff ff 	movq   $0x0,-0x6f0(%rbp)
   11c75:	00 00 00 00 
   11c79:	c6 85 b1 f8 ff ff e0 	movb   $0xe0,-0x74f(%rbp)
   11c80:	48 c7 85 18 f9 ff ff 	movq   $0x0,-0x6e8(%rbp)
   11c87:	00 00 00 00 
   11c8b:	48 8d 05 ee 9c 00 00 	lea    0x9cee(%rip),%rax        # 1b980 <g_32>
   11c92:	48 89 85 20 f9 ff ff 	mov    %rax,-0x6e0(%rbp)
   11c99:	c7 85 c4 f8 ff ff e8 	movl   $0xed3804e8,-0x73c(%rbp)
   11ca0:	04 38 ed 
   11ca3:	48 8d 05 22 7a 00 00 	lea    0x7a22(%rip),%rax        # 196cc <g_318>
   11caa:	48 89 85 d0 f8 ff ff 	mov    %rax,-0x730(%rbp)
   11cb1:	48 8d 85 d0 f8 ff ff 	lea    -0x730(%rbp),%rax
   11cb8:	48 89 85 28 f9 ff ff 	mov    %rax,-0x6d8(%rbp)
   11cbf:	48 c7 85 a0 f9 ff ff 	movq   $0x0,-0x660(%rbp)
   11cc6:	00 00 00 00 
   11cca:	48 c7 85 a8 f9 ff ff 	movq   $0x0,-0x658(%rbp)
   11cd1:	00 00 00 00 
   11cd5:	48 c7 85 b0 f9 ff ff 	movq   $0x0,-0x650(%rbp)
   11cdc:	00 00 00 00 
   11ce0:	48 c7 85 b8 f9 ff ff 	movq   $0x0,-0x648(%rbp)
   11ce7:	00 00 00 00 
   11ceb:	48 c7 85 c0 f9 ff ff 	movq   $0x0,-0x640(%rbp)
   11cf2:	00 00 00 00 
   11cf6:	48 c7 85 c8 f9 ff ff 	movq   $0x0,-0x638(%rbp)
   11cfd:	00 00 00 00 
   11d01:	48 c7 85 d0 f9 ff ff 	movq   $0x0,-0x630(%rbp)
   11d08:	00 00 00 00 
   11d0c:	48 c7 85 d8 f9 ff ff 	movq   $0x0,-0x628(%rbp)
   11d13:	00 00 00 00 
   11d17:	48 c7 85 e0 f9 ff ff 	movq   $0x0,-0x620(%rbp)
   11d1e:	00 00 00 00 
   11d22:	48 c7 85 e8 f9 ff ff 	movq   $0x0,-0x618(%rbp)
   11d29:	00 00 00 00 
   11d2d:	48 8d 85 20 fc ff ff 	lea    -0x3e0(%rbp),%rax
   11d34:	48 8d 15 85 3f 00 00 	lea    0x3f85(%rip),%rdx        # 15cc0 <g_1636+0xad0>
   11d3b:	b9 7a 00 00 00       	mov    $0x7a,%ecx
   11d40:	48 89 c7             	mov    %rax,%rdi
   11d43:	48 89 d6             	mov    %rdx,%rsi
   11d46:	f3 48 a5             	rep movsq %ds:(%rsi),%es:(%rdi)
   11d49:	48 89 f2             	mov    %rsi,%rdx
   11d4c:	48 89 f8             	mov    %rdi,%rax
   11d4f:	8b 0a                	mov    (%rdx),%ecx
   11d51:	89 08                	mov    %ecx,(%rax)
   11d53:	48 8d 40 04          	lea    0x4(%rax),%rax
   11d57:	48 8d 52 04          	lea    0x4(%rdx),%rdx
   11d5b:	c7 85 b4 f8 ff ff 00 	movl   $0x0,-0x74c(%rbp)
   11d62:	00 00 00 
   11d65:	eb 1e                	jmp    11d85 <func_21+0x23d>
   11d67:	8b 85 b4 f8 ff ff    	mov    -0x74c(%rbp),%eax
   11d6d:	48 98                	cltq   
   11d6f:	48 8d 95 c8 f8 ff ff 	lea    -0x738(%rbp),%rdx
   11d76:	48 89 94 c5 50 f9 ff 	mov    %rdx,-0x6b0(%rbp,%rax,8)
   11d7d:	ff 
   11d7e:	83 85 b4 f8 ff ff 01 	addl   $0x1,-0x74c(%rbp)
   11d85:	83 bd b4 f8 ff ff 08 	cmpl   $0x8,-0x74c(%rbp)
   11d8c:	7e d9                	jle    11d67 <func_21+0x21f>
   11d8e:	48 8b 85 98 f8 ff ff 	mov    -0x768(%rbp),%rax
   11d95:	48 8b 75 f8          	mov    -0x8(%rbp),%rsi
   11d99:	64 48 33 34 25 28 00 	xor    %fs:0x28,%rsi
   11da0:	00 00 
   11da2:	74 05                	je     11da9 <func_21+0x261>
   11da4:	e8 c7 62 ff ff       	callq  8070 <__stack_chk_fail@plt>
   11da9:	c9                   	leaveq 
   11daa:	c3                   	retq   

0000000000011dab <func_23>:
   11dab:	f3 0f 1e fa          	endbr64 
   11daf:	55                   	push   %rbp
   11db0:	48 89 e5             	mov    %rsp,%rbp
   11db3:	48 89 7d d8          	mov    %rdi,-0x28(%rbp)
   11db7:	48 89 75 d0          	mov    %rsi,-0x30(%rbp)
   11dbb:	48 89 55 c8          	mov    %rdx,-0x38(%rbp)
   11dbf:	48 89 4d c0          	mov    %rcx,-0x40(%rbp)
   11dc3:	4c 89 45 b8          	mov    %r8,-0x48(%rbp)
   11dc7:	48 8d 05 7a 78 00 00 	lea    0x787a(%rip),%rax        # 19648 <g_131>
   11dce:	48 89 45 e8          	mov    %rax,-0x18(%rbp)
   11dd2:	48 8d 05 77 78 00 00 	lea    0x7877(%rip),%rax        # 19650 <g_142>
   11dd9:	48 89 45 f0          	mov    %rax,-0x10(%rbp)
   11ddd:	48 8d 05 58 72 00 00 	lea    0x7258(%rip),%rax        # 1903c <g_3+0xc>
   11de4:	48 89 45 f8          	mov    %rax,-0x8(%rbp)
   11de8:	48 8b 45 c8          	mov    -0x38(%rbp),%rax
   11dec:	89 c2                	mov    %eax,%edx
   11dee:	8b 05 54 78 00 00    	mov    0x7854(%rip),%eax        # 19648 <g_131>
   11df4:	31 d0                	xor    %edx,%eax
   11df6:	89 05 4c 78 00 00    	mov    %eax,0x784c(%rip)        # 19648 <g_131>
   11dfc:	48 8b 45 e8          	mov    -0x18(%rbp),%rax
   11e00:	c7 00 25 fd 3b fd    	movl   $0xfd3bfd25,(%rax)
   11e06:	48 8b 45 e8          	mov    -0x18(%rbp),%rax
   11e0a:	8b 10                	mov    (%rax),%edx
   11e0c:	48 8b 45 f0          	mov    -0x10(%rbp),%rax
   11e10:	89 10                	mov    %edx,(%rax)
   11e12:	48 8b 45 f8          	mov    -0x8(%rbp),%rax
   11e16:	48 89 05 8b ad 00 00 	mov    %rax,0xad8b(%rip)        # 1cba8 <g_145>
   11e1d:	48 8d 05 29 74 00 00 	lea    0x7429(%rip),%rax        # 1924d <g_62+0x5>
   11e24:	5d                   	pop    %rbp
   11e25:	c3                   	retq   

0000000000011e26 <func_29>:
   11e26:	f3 0f 1e fa          	endbr64 
   11e2a:	55                   	push   %rbp
   11e2b:	48 89 e5             	mov    %rsp,%rbp
   11e2e:	41 57                	push   %r15
   11e30:	41 56                	push   %r14
   11e32:	41 55                	push   %r13
   11e34:	41 54                	push   %r12
   11e36:	53                   	push   %rbx
   11e37:	48 81 ec 58 0e 00 00 	sub    $0xe58,%rsp
   11e3e:	48 89 bd 88 f1 ff ff 	mov    %rdi,-0xe78(%rbp)
   11e45:	89 f0                	mov    %esi,%eax
   11e47:	88 85 84 f1 ff ff    	mov    %al,-0xe7c(%rbp)
   11e4d:	64 48 8b 04 25 28 00 	mov    %fs:0x28,%rax
   11e54:	00 00 
   11e56:	48 89 45 c8          	mov    %rax,-0x38(%rbp)
   11e5a:	31 c0                	xor    %eax,%eax
   11e5c:	c7 85 e0 f1 ff ff ff 	movl   $0xffffffff,-0xe20(%rbp)
   11e63:	ff ff ff 
   11e66:	c7 85 e4 f1 ff ff 01 	movl   $0x1,-0xe1c(%rbp)
   11e6d:	00 00 00 
   11e70:	c7 85 e8 f1 ff ff ff 	movl   $0xffffffff,-0xe18(%rbp)
   11e77:	ff ff ff 
   11e7a:	c7 85 ec f1 ff ff 01 	movl   $0x1,-0xe14(%rbp)
   11e81:	00 00 00 
   11e84:	c7 85 f0 f1 ff ff ff 	movl   $0xffffffff,-0xe10(%rbp)
   11e8b:	ff ff ff 
   11e8e:	c7 85 f4 f1 ff ff 01 	movl   $0x1,-0xe0c(%rbp)
   11e95:	00 00 00 
   11e98:	c7 85 f8 f1 ff ff ff 	movl   $0xffffffff,-0xe08(%rbp)
   11e9f:	ff ff ff 
   11ea2:	c7 85 fc f1 ff ff 01 	movl   $0x1,-0xe04(%rbp)
   11ea9:	00 00 00 
   11eac:	c7 85 00 f2 ff ff ff 	movl   $0xffffffff,-0xe00(%rbp)
   11eb3:	ff ff ff 
   11eb6:	c7 85 9c f1 ff ff 00 	movl   $0x0,-0xe64(%rbp)
   11ebd:	00 00 00 
   11ec0:	c7 85 a0 f1 ff ff 00 	movl   $0x0,-0xe60(%rbp)
   11ec7:	00 00 00 
   11eca:	c7 85 a4 f1 ff ff 06 	movl   $0x6,-0xe5c(%rbp)
   11ed1:	00 00 00 
   11ed4:	c7 85 ac f1 ff ff ff 	movl   $0xffffffff,-0xe54(%rbp)
   11edb:	ff ff ff 
   11ede:	48 8d 05 6c 73 00 00 	lea    0x736c(%rip),%rax        # 19251 <g_62+0x9>
   11ee5:	48 89 85 c0 f1 ff ff 	mov    %rax,-0xe40(%rbp)
   11eec:	48 8d 05 51 71 00 00 	lea    0x7151(%rip),%rax        # 19044 <g_3+0x14>
   11ef3:	48 89 85 b0 f1 ff ff 	mov    %rax,-0xe50(%rbp)
   11efa:	48 8d 85 b0 f1 ff ff 	lea    -0xe50(%rbp),%rax
   11f01:	48 89 85 c8 f1 ff ff 	mov    %rax,-0xe38(%rbp)
   11f08:	48 8d 85 a0 f1 ff ff 	lea    -0xe60(%rbp),%rax
   11f0f:	48 89 85 b8 f1 ff ff 	mov    %rax,-0xe48(%rbp)
   11f16:	48 8d 85 b8 f1 ff ff 	lea    -0xe48(%rbp),%rax
   11f1d:	48 89 85 d0 f1 ff ff 	mov    %rax,-0xe30(%rbp)
   11f24:	48 8d 85 40 f8 ff ff 	lea    -0x7c0(%rbp),%rax
   11f2b:	48 8d 15 0e 8c 00 00 	lea    0x8c0e(%rip),%rdx        # 1ab40 <g_2195+0x1010>
   11f32:	b9 f0 00 00 00       	mov    $0xf0,%ecx
   11f37:	48 89 c7             	mov    %rax,%rdi
   11f3a:	48 89 d6             	mov    %rdx,%rsi
   11f3d:	f3 48 a5             	rep movsq %ds:(%rsi),%es:(%rdi)
   11f40:	c6 05 05 71 00 00 00 	movb   $0x0,0x7105(%rip)        # 1904c <g_33>
   11f47:	eb 27                	jmp    11f70 <func_29+0x14a>
   11f49:	0f b6 05 fc 70 00 00 	movzbl 0x70fc(%rip),%eax        # 1904c <g_33>
   11f50:	0f be c0             	movsbl %al,%eax
   11f53:	48 98                	cltq   
   11f55:	c7 84 85 e0 f1 ff ff 	movl   $0xecb515fe,-0xe20(%rbp,%rax,4)
   11f5c:	fe 15 b5 ec 
   11f60:	0f b6 05 e5 70 00 00 	movzbl 0x70e5(%rip),%eax        # 1904c <g_33>
   11f67:	83 c0 01             	add    $0x1,%eax
   11f6a:	88 05 dc 70 00 00    	mov    %al,0x70dc(%rip)        # 1904c <g_33>
   11f70:	0f b6 05 d5 70 00 00 	movzbl 0x70d5(%rip),%eax        # 1904c <g_33>
   11f77:	3c 08                	cmp    $0x8,%al
   11f79:	7e ce                	jle    11f49 <func_29+0x123>
   11f7b:	c6 05 ca 70 00 00 00 	movb   $0x0,0x70ca(%rip)        # 1904c <g_33>
   11f82:	e9 ad 0b 00 00       	jmpq   12b34 <func_29+0xd0e>
   11f87:	48 c7 85 40 f2 ff ff 	movq   $0x0,-0xdc0(%rbp)
   11f8e:	00 00 00 00 
   11f92:	48 8d 05 ab 70 00 00 	lea    0x70ab(%rip),%rax        # 19044 <g_3+0x14>
   11f99:	48 89 85 48 f2 ff ff 	mov    %rax,-0xdb8(%rbp)
   11fa0:	48 8d 05 95 70 00 00 	lea    0x7095(%rip),%rax        # 1903c <g_3+0xc>
   11fa7:	48 89 85 50 f2 ff ff 	mov    %rax,-0xdb0(%rbp)
   11fae:	48 8d 05 7b 70 00 00 	lea    0x707b(%rip),%rax        # 19030 <g_3>
   11fb5:	48 89 85 58 f2 ff ff 	mov    %rax,-0xda8(%rbp)
   11fbc:	48 8d 05 6d 70 00 00 	lea    0x706d(%rip),%rax        # 19030 <g_3>
   11fc3:	48 89 85 60 f2 ff ff 	mov    %rax,-0xda0(%rbp)
   11fca:	48 8d 05 6b 70 00 00 	lea    0x706b(%rip),%rax        # 1903c <g_3+0xc>
   11fd1:	48 89 85 68 f2 ff ff 	mov    %rax,-0xd98(%rbp)
   11fd8:	48 8d 05 65 70 00 00 	lea    0x7065(%rip),%rax        # 19044 <g_3+0x14>
   11fdf:	48 89 85 70 f2 ff ff 	mov    %rax,-0xd90(%rbp)
   11fe6:	48 c7 85 78 f2 ff ff 	movq   $0x0,-0xd88(%rbp)
   11fed:	00 00 00 00 
   11ff1:	48 c7 85 80 f2 ff ff 	movq   $0x0,-0xd80(%rbp)
   11ff8:	00 00 00 00 
   11ffc:	48 8d 05 39 70 00 00 	lea    0x7039(%rip),%rax        # 1903c <g_3+0xc>
   12003:	48 89 85 88 f2 ff ff 	mov    %rax,-0xd78(%rbp)
   1200a:	48 8d 05 2b 70 00 00 	lea    0x702b(%rip),%rax        # 1903c <g_3+0xc>
   12011:	48 89 85 90 f2 ff ff 	mov    %rax,-0xd70(%rbp)
   12018:	48 8d 05 21 70 00 00 	lea    0x7021(%rip),%rax        # 19040 <g_3+0x10>
   1201f:	48 89 85 98 f2 ff ff 	mov    %rax,-0xd68(%rbp)
   12026:	48 8d 05 17 70 00 00 	lea    0x7017(%rip),%rax        # 19044 <g_3+0x14>
   1202d:	48 89 85 a0 f2 ff ff 	mov    %rax,-0xd60(%rbp)
   12034:	48 8d 85 9c f1 ff ff 	lea    -0xe64(%rbp),%rax
   1203b:	48 89 85 a8 f2 ff ff 	mov    %rax,-0xd58(%rbp)
   12042:	48 8d 05 f3 6f 00 00 	lea    0x6ff3(%rip),%rax        # 1903c <g_3+0xc>
   12049:	48 89 85 b0 f2 ff ff 	mov    %rax,-0xd50(%rbp)
   12050:	48 8d 85 9c f1 ff ff 	lea    -0xe64(%rbp),%rax
   12057:	48 89 85 b8 f2 ff ff 	mov    %rax,-0xd48(%rbp)
   1205e:	48 8d 05 db 6f 00 00 	lea    0x6fdb(%rip),%rax        # 19040 <g_3+0x10>
   12065:	48 89 85 c0 f2 ff ff 	mov    %rax,-0xd40(%rbp)
   1206c:	48 8d 05 c1 6f 00 00 	lea    0x6fc1(%rip),%rax        # 19034 <g_3+0x4>
   12073:	48 89 85 c8 f2 ff ff 	mov    %rax,-0xd38(%rbp)
   1207a:	48 8d 05 bb 6f 00 00 	lea    0x6fbb(%rip),%rax        # 1903c <g_3+0xc>
   12081:	48 89 85 d0 f2 ff ff 	mov    %rax,-0xd30(%rbp)
   12088:	48 8d 05 a5 6f 00 00 	lea    0x6fa5(%rip),%rax        # 19034 <g_3+0x4>
   1208f:	48 89 85 d8 f2 ff ff 	mov    %rax,-0xd28(%rbp)
   12096:	48 8d 05 a3 6f 00 00 	lea    0x6fa3(%rip),%rax        # 19040 <g_3+0x10>
   1209d:	48 89 85 e0 f2 ff ff 	mov    %rax,-0xd20(%rbp)
   120a4:	48 8d 85 9c f1 ff ff 	lea    -0xe64(%rbp),%rax
   120ab:	48 89 85 e8 f2 ff ff 	mov    %rax,-0xd18(%rbp)
   120b2:	48 8d 85 9c f1 ff ff 	lea    -0xe64(%rbp),%rax
   120b9:	48 89 85 f0 f2 ff ff 	mov    %rax,-0xd10(%rbp)
   120c0:	48 8d 05 7d 6f 00 00 	lea    0x6f7d(%rip),%rax        # 19044 <g_3+0x14>
   120c7:	48 89 85 f8 f2 ff ff 	mov    %rax,-0xd08(%rbp)
   120ce:	48 8d 05 67 6f 00 00 	lea    0x6f67(%rip),%rax        # 1903c <g_3+0xc>
   120d5:	48 89 85 00 f3 ff ff 	mov    %rax,-0xd00(%rbp)
   120dc:	48 8d 05 59 6f 00 00 	lea    0x6f59(%rip),%rax        # 1903c <g_3+0xc>
   120e3:	48 89 85 08 f3 ff ff 	mov    %rax,-0xcf8(%rbp)
   120ea:	48 8d 05 43 6f 00 00 	lea    0x6f43(%rip),%rax        # 19034 <g_3+0x4>
   120f1:	48 89 85 10 f3 ff ff 	mov    %rax,-0xcf0(%rbp)
   120f8:	48 c7 85 18 f3 ff ff 	movq   $0x0,-0xce8(%rbp)
   120ff:	00 00 00 00 
   12103:	48 8d 05 32 6f 00 00 	lea    0x6f32(%rip),%rax        # 1903c <g_3+0xc>
   1210a:	48 89 85 20 f3 ff ff 	mov    %rax,-0xce0(%rbp)
   12111:	48 8d 05 24 6f 00 00 	lea    0x6f24(%rip),%rax        # 1903c <g_3+0xc>
   12118:	48 89 85 28 f3 ff ff 	mov    %rax,-0xcd8(%rbp)
   1211f:	48 c7 85 30 f3 ff ff 	movq   $0x0,-0xcd0(%rbp)
   12126:	00 00 00 00 
   1212a:	48 8d 05 03 6f 00 00 	lea    0x6f03(%rip),%rax        # 19034 <g_3+0x4>
   12131:	48 89 85 38 f3 ff ff 	mov    %rax,-0xcc8(%rbp)
   12138:	48 8d 05 05 6f 00 00 	lea    0x6f05(%rip),%rax        # 19044 <g_3+0x14>
   1213f:	48 89 85 40 f3 ff ff 	mov    %rax,-0xcc0(%rbp)
   12146:	48 8d 05 f7 6e 00 00 	lea    0x6ef7(%rip),%rax        # 19044 <g_3+0x14>
   1214d:	48 89 85 48 f3 ff ff 	mov    %rax,-0xcb8(%rbp)
   12154:	48 8d 05 d9 6e 00 00 	lea    0x6ed9(%rip),%rax        # 19034 <g_3+0x4>
   1215b:	48 89 85 50 f3 ff ff 	mov    %rax,-0xcb0(%rbp)
   12162:	48 c7 85 58 f3 ff ff 	movq   $0x0,-0xca8(%rbp)
   12169:	00 00 00 00 
   1216d:	48 8d 05 c8 6e 00 00 	lea    0x6ec8(%rip),%rax        # 1903c <g_3+0xc>
   12174:	48 89 85 60 f3 ff ff 	mov    %rax,-0xca0(%rbp)
   1217b:	48 8d 05 ae 6e 00 00 	lea    0x6eae(%rip),%rax        # 19030 <g_3>
   12182:	48 89 85 68 f3 ff ff 	mov    %rax,-0xc98(%rbp)
   12189:	48 8d 85 9c f1 ff ff 	lea    -0xe64(%rbp),%rax
   12190:	48 89 85 70 f3 ff ff 	mov    %rax,-0xc90(%rbp)
   12197:	48 8d 05 9e 6e 00 00 	lea    0x6e9e(%rip),%rax        # 1903c <g_3+0xc>
   1219e:	48 89 85 78 f3 ff ff 	mov    %rax,-0xc88(%rbp)
   121a5:	48 8d 05 90 6e 00 00 	lea    0x6e90(%rip),%rax        # 1903c <g_3+0xc>
   121ac:	48 89 85 80 f3 ff ff 	mov    %rax,-0xc80(%rbp)
   121b3:	48 8d 85 9c f1 ff ff 	lea    -0xe64(%rbp),%rax
   121ba:	48 89 85 88 f3 ff ff 	mov    %rax,-0xc78(%rbp)
   121c1:	48 8d 05 74 6e 00 00 	lea    0x6e74(%rip),%rax        # 1903c <g_3+0xc>
   121c8:	48 89 85 90 f3 ff ff 	mov    %rax,-0xc70(%rbp)
   121cf:	48 8d 05 6e 6e 00 00 	lea    0x6e6e(%rip),%rax        # 19044 <g_3+0x14>
   121d6:	48 89 85 98 f3 ff ff 	mov    %rax,-0xc68(%rbp)
   121dd:	48 8d 05 58 6e 00 00 	lea    0x6e58(%rip),%rax        # 1903c <g_3+0xc>
   121e4:	48 89 85 a0 f3 ff ff 	mov    %rax,-0xc60(%rbp)
   121eb:	48 8d 85 9c f1 ff ff 	lea    -0xe64(%rbp),%rax
   121f2:	48 89 85 a8 f3 ff ff 	mov    %rax,-0xc58(%rbp)
   121f9:	48 8d 05 3c 6e 00 00 	lea    0x6e3c(%rip),%rax        # 1903c <g_3+0xc>
   12200:	48 89 85 b0 f3 ff ff 	mov    %rax,-0xc50(%rbp)
   12207:	48 8d 05 2e 6e 00 00 	lea    0x6e2e(%rip),%rax        # 1903c <g_3+0xc>
   1220e:	48 89 85 b8 f3 ff ff 	mov    %rax,-0xc48(%rbp)
   12215:	48 8d 85 9c f1 ff ff 	lea    -0xe64(%rbp),%rax
   1221c:	48 89 85 c0 f3 ff ff 	mov    %rax,-0xc40(%rbp)
   12223:	48 8d 05 06 6e 00 00 	lea    0x6e06(%rip),%rax        # 19030 <g_3>
   1222a:	48 89 85 c8 f3 ff ff 	mov    %rax,-0xc38(%rbp)
   12231:	48 8d 05 04 6e 00 00 	lea    0x6e04(%rip),%rax        # 1903c <g_3+0xc>
   12238:	48 89 85 d0 f3 ff ff 	mov    %rax,-0xc30(%rbp)
   1223f:	48 c7 85 d8 f3 ff ff 	movq   $0x0,-0xc28(%rbp)
   12246:	00 00 00 00 
   1224a:	48 8d 05 e3 6d 00 00 	lea    0x6de3(%rip),%rax        # 19034 <g_3+0x4>
   12251:	48 89 85 e0 f3 ff ff 	mov    %rax,-0xc20(%rbp)
   12258:	48 8d 05 e5 6d 00 00 	lea    0x6de5(%rip),%rax        # 19044 <g_3+0x14>
   1225f:	48 89 85 e8 f3 ff ff 	mov    %rax,-0xc18(%rbp)
   12266:	48 8d 05 d7 6d 00 00 	lea    0x6dd7(%rip),%rax        # 19044 <g_3+0x14>
   1226d:	48 89 85 f0 f3 ff ff 	mov    %rax,-0xc10(%rbp)
   12274:	48 8d 05 b9 6d 00 00 	lea    0x6db9(%rip),%rax        # 19034 <g_3+0x4>
   1227b:	48 89 85 f8 f3 ff ff 	mov    %rax,-0xc08(%rbp)
   12282:	48 c7 85 00 f4 ff ff 	movq   $0x0,-0xc00(%rbp)
   12289:	00 00 00 00 
   1228d:	48 8d 05 a8 6d 00 00 	lea    0x6da8(%rip),%rax        # 1903c <g_3+0xc>
   12294:	48 89 85 08 f4 ff ff 	mov    %rax,-0xbf8(%rbp)
   1229b:	48 8d 05 9a 6d 00 00 	lea    0x6d9a(%rip),%rax        # 1903c <g_3+0xc>
   122a2:	48 89 85 10 f4 ff ff 	mov    %rax,-0xbf0(%rbp)
   122a9:	48 c7 85 18 f4 ff ff 	movq   $0x0,-0xbe8(%rbp)
   122b0:	00 00 00 00 
   122b4:	48 8d 05 79 6d 00 00 	lea    0x6d79(%rip),%rax        # 19034 <g_3+0x4>
   122bb:	48 89 85 20 f4 ff ff 	mov    %rax,-0xbe0(%rbp)
   122c2:	48 8d 05 73 6d 00 00 	lea    0x6d73(%rip),%rax        # 1903c <g_3+0xc>
   122c9:	48 89 85 28 f4 ff ff 	mov    %rax,-0xbd8(%rbp)
   122d0:	48 8d 05 65 6d 00 00 	lea    0x6d65(%rip),%rax        # 1903c <g_3+0xc>
   122d7:	48 89 85 30 f4 ff ff 	mov    %rax,-0xbd0(%rbp)
   122de:	48 8d 05 5f 6d 00 00 	lea    0x6d5f(%rip),%rax        # 19044 <g_3+0x14>
   122e5:	48 89 85 38 f4 ff ff 	mov    %rax,-0xbc8(%rbp)
   122ec:	48 8d 85 9c f1 ff ff 	lea    -0xe64(%rbp),%rax
   122f3:	48 89 85 40 f4 ff ff 	mov    %rax,-0xbc0(%rbp)
   122fa:	48 8d 85 9c f1 ff ff 	lea    -0xe64(%rbp),%rax
   12301:	48 89 85 48 f4 ff ff 	mov    %rax,-0xbb8(%rbp)
   12308:	48 8d 05 31 6d 00 00 	lea    0x6d31(%rip),%rax        # 19040 <g_3+0x10>
   1230f:	48 89 85 50 f4 ff ff 	mov    %rax,-0xbb0(%rbp)
   12316:	48 8d 05 17 6d 00 00 	lea    0x6d17(%rip),%rax        # 19034 <g_3+0x4>
   1231d:	48 89 85 58 f4 ff ff 	mov    %rax,-0xba8(%rbp)
   12324:	48 8d 05 11 6d 00 00 	lea    0x6d11(%rip),%rax        # 1903c <g_3+0xc>
   1232b:	48 89 85 60 f4 ff ff 	mov    %rax,-0xba0(%rbp)
   12332:	48 8d 05 fb 6c 00 00 	lea    0x6cfb(%rip),%rax        # 19034 <g_3+0x4>
   12339:	48 89 85 68 f4 ff ff 	mov    %rax,-0xb98(%rbp)
   12340:	48 8d 05 f9 6c 00 00 	lea    0x6cf9(%rip),%rax        # 19040 <g_3+0x10>
   12347:	48 89 85 70 f4 ff ff 	mov    %rax,-0xb90(%rbp)
   1234e:	48 8d 85 9c f1 ff ff 	lea    -0xe64(%rbp),%rax
   12355:	48 89 85 78 f4 ff ff 	mov    %rax,-0xb88(%rbp)
   1235c:	48 8d 05 d9 6c 00 00 	lea    0x6cd9(%rip),%rax        # 1903c <g_3+0xc>
   12363:	48 89 85 80 f4 ff ff 	mov    %rax,-0xb80(%rbp)
   1236a:	48 8d 85 9c f1 ff ff 	lea    -0xe64(%rbp),%rax
   12371:	48 89 85 88 f4 ff ff 	mov    %rax,-0xb78(%rbp)
   12378:	48 8d 05 c5 6c 00 00 	lea    0x6cc5(%rip),%rax        # 19044 <g_3+0x14>
   1237f:	48 89 85 90 f4 ff ff 	mov    %rax,-0xb70(%rbp)
   12386:	48 8d 05 b3 6c 00 00 	lea    0x6cb3(%rip),%rax        # 19040 <g_3+0x10>
   1238d:	48 89 85 98 f4 ff ff 	mov    %rax,-0xb68(%rbp)
   12394:	48 8d 05 a1 6c 00 00 	lea    0x6ca1(%rip),%rax        # 1903c <g_3+0xc>
   1239b:	48 89 85 a0 f4 ff ff 	mov    %rax,-0xb60(%rbp)
   123a2:	48 8d 05 93 6c 00 00 	lea    0x6c93(%rip),%rax        # 1903c <g_3+0xc>
   123a9:	48 89 85 a8 f4 ff ff 	mov    %rax,-0xb58(%rbp)
   123b0:	48 c7 85 b0 f4 ff ff 	movq   $0x0,-0xb50(%rbp)
   123b7:	00 00 00 00 
   123bb:	48 c7 85 b8 f4 ff ff 	movq   $0x0,-0xb48(%rbp)
   123c2:	00 00 00 00 
   123c6:	48 8d 05 77 6c 00 00 	lea    0x6c77(%rip),%rax        # 19044 <g_3+0x14>
   123cd:	48 89 85 c0 f4 ff ff 	mov    %rax,-0xb40(%rbp)
   123d4:	48 8d 05 61 6c 00 00 	lea    0x6c61(%rip),%rax        # 1903c <g_3+0xc>
   123db:	48 89 85 c8 f4 ff ff 	mov    %rax,-0xb38(%rbp)
   123e2:	48 8d 05 47 6c 00 00 	lea    0x6c47(%rip),%rax        # 19030 <g_3>
   123e9:	48 89 85 d0 f4 ff ff 	mov    %rax,-0xb30(%rbp)
   123f0:	48 8d 05 39 6c 00 00 	lea    0x6c39(%rip),%rax        # 19030 <g_3>
   123f7:	48 89 85 d8 f4 ff ff 	mov    %rax,-0xb28(%rbp)
   123fe:	48 8d 05 37 6c 00 00 	lea    0x6c37(%rip),%rax        # 1903c <g_3+0xc>
   12405:	48 89 85 e0 f4 ff ff 	mov    %rax,-0xb20(%rbp)
   1240c:	48 8d 05 31 6c 00 00 	lea    0x6c31(%rip),%rax        # 19044 <g_3+0x14>
   12413:	48 89 85 e8 f4 ff ff 	mov    %rax,-0xb18(%rbp)
   1241a:	48 8d 05 1b 6c 00 00 	lea    0x6c1b(%rip),%rax        # 1903c <g_3+0xc>
   12421:	48 89 85 f0 f4 ff ff 	mov    %rax,-0xb10(%rbp)
   12428:	48 8d 05 0d 6c 00 00 	lea    0x6c0d(%rip),%rax        # 1903c <g_3+0xc>
   1242f:	48 89 85 f8 f4 ff ff 	mov    %rax,-0xb08(%rbp)
   12436:	48 8d 05 03 6c 00 00 	lea    0x6c03(%rip),%rax        # 19040 <g_3+0x10>
   1243d:	48 89 85 00 f5 ff ff 	mov    %rax,-0xb00(%rbp)
   12444:	48 8d 05 f1 6b 00 00 	lea    0x6bf1(%rip),%rax        # 1903c <g_3+0xc>
   1244b:	48 89 85 08 f5 ff ff 	mov    %rax,-0xaf8(%rbp)
   12452:	48 8d 05 db 6b 00 00 	lea    0x6bdb(%rip),%rax        # 19034 <g_3+0x4>
   12459:	48 89 85 10 f5 ff ff 	mov    %rax,-0xaf0(%rbp)
   12460:	48 8d 85 9c f1 ff ff 	lea    -0xe64(%rbp),%rax
   12467:	48 89 85 18 f5 ff ff 	mov    %rax,-0xae8(%rbp)
   1246e:	48 8d 05 bb 6b 00 00 	lea    0x6bbb(%rip),%rax        # 19030 <g_3>
   12475:	48 89 85 20 f5 ff ff 	mov    %rax,-0xae0(%rbp)
   1247c:	48 c7 85 28 f5 ff ff 	movq   $0x0,-0xad8(%rbp)
   12483:	00 00 00 00 
   12487:	48 8d 05 a2 6b 00 00 	lea    0x6ba2(%rip),%rax        # 19030 <g_3>
   1248e:	48 89 85 30 f5 ff ff 	mov    %rax,-0xad0(%rbp)
   12495:	48 8d 85 9c f1 ff ff 	lea    -0xe64(%rbp),%rax
   1249c:	48 89 85 38 f5 ff ff 	mov    %rax,-0xac8(%rbp)
   124a3:	48 8d 05 86 6b 00 00 	lea    0x6b86(%rip),%rax        # 19030 <g_3>
   124aa:	48 89 85 40 f5 ff ff 	mov    %rax,-0xac0(%rbp)
   124b1:	48 c7 85 48 f5 ff ff 	movq   $0x0,-0xab8(%rbp)
   124b8:	00 00 00 00 
   124bc:	48 8d 05 6d 6b 00 00 	lea    0x6b6d(%rip),%rax        # 19030 <g_3>
   124c3:	48 89 85 50 f5 ff ff 	mov    %rax,-0xab0(%rbp)
   124ca:	48 8d 85 9c f1 ff ff 	lea    -0xe64(%rbp),%rax
   124d1:	48 89 85 58 f5 ff ff 	mov    %rax,-0xaa8(%rbp)
   124d8:	48 8d 05 55 6b 00 00 	lea    0x6b55(%rip),%rax        # 19034 <g_3+0x4>
   124df:	48 89 85 60 f5 ff ff 	mov    %rax,-0xaa0(%rbp)
   124e6:	48 8d 05 4f 6b 00 00 	lea    0x6b4f(%rip),%rax        # 1903c <g_3+0xc>
   124ed:	48 89 85 68 f5 ff ff 	mov    %rax,-0xa98(%rbp)
   124f4:	48 8d 05 45 6b 00 00 	lea    0x6b45(%rip),%rax        # 19040 <g_3+0x10>
   124fb:	48 89 85 70 f5 ff ff 	mov    %rax,-0xa90(%rbp)
   12502:	48 8d 05 33 6b 00 00 	lea    0x6b33(%rip),%rax        # 1903c <g_3+0xc>
   12509:	48 89 85 78 f5 ff ff 	mov    %rax,-0xa88(%rbp)
   12510:	48 8d 05 25 6b 00 00 	lea    0x6b25(%rip),%rax        # 1903c <g_3+0xc>
   12517:	48 89 85 80 f5 ff ff 	mov    %rax,-0xa80(%rbp)
   1251e:	48 8d 05 0f 6b 00 00 	lea    0x6b0f(%rip),%rax        # 19034 <g_3+0x4>
   12525:	48 89 85 88 f5 ff ff 	mov    %rax,-0xa78(%rbp)
   1252c:	48 c7 85 90 f5 ff ff 	movq   $0x0,-0xa70(%rbp)
   12533:	00 00 00 00 
   12537:	48 8d 05 fe 6a 00 00 	lea    0x6afe(%rip),%rax        # 1903c <g_3+0xc>
   1253e:	48 89 85 98 f5 ff ff 	mov    %rax,-0xa68(%rbp)
   12545:	48 8d 05 f0 6a 00 00 	lea    0x6af0(%rip),%rax        # 1903c <g_3+0xc>
   1254c:	48 89 85 a0 f5 ff ff 	mov    %rax,-0xa60(%rbp)
   12553:	48 c7 85 a8 f5 ff ff 	movq   $0x0,-0xa58(%rbp)
   1255a:	00 00 00 00 
   1255e:	48 8d 05 cf 6a 00 00 	lea    0x6acf(%rip),%rax        # 19034 <g_3+0x4>
   12565:	48 89 85 b0 f5 ff ff 	mov    %rax,-0xa50(%rbp)
   1256c:	48 8d 05 c9 6a 00 00 	lea    0x6ac9(%rip),%rax        # 1903c <g_3+0xc>
   12573:	48 89 85 b8 f5 ff ff 	mov    %rax,-0xa48(%rbp)
   1257a:	48 8d 05 bb 6a 00 00 	lea    0x6abb(%rip),%rax        # 1903c <g_3+0xc>
   12581:	48 89 85 c0 f5 ff ff 	mov    %rax,-0xa40(%rbp)
   12588:	48 8d 85 9c f1 ff ff 	lea    -0xe64(%rbp),%rax
   1258f:	48 89 85 c8 f5 ff ff 	mov    %rax,-0xa38(%rbp)
   12596:	48 8d 05 9f 6a 00 00 	lea    0x6a9f(%rip),%rax        # 1903c <g_3+0xc>
   1259d:	48 89 85 d0 f5 ff ff 	mov    %rax,-0xa30(%rbp)
   125a4:	48 8d 05 85 6a 00 00 	lea    0x6a85(%rip),%rax        # 19030 <g_3>
   125ab:	48 89 85 d8 f5 ff ff 	mov    %rax,-0xa28(%rbp)
   125b2:	48 8d 05 7b 6a 00 00 	lea    0x6a7b(%rip),%rax        # 19034 <g_3+0x4>
   125b9:	48 89 85 e0 f5 ff ff 	mov    %rax,-0xa20(%rbp)
   125c0:	48 8d 05 75 6a 00 00 	lea    0x6a75(%rip),%rax        # 1903c <g_3+0xc>
   125c7:	48 89 85 e8 f5 ff ff 	mov    %rax,-0xa18(%rbp)
   125ce:	48 c7 85 f0 f5 ff ff 	movq   $0x0,-0xa10(%rbp)
   125d5:	00 00 00 00 
   125d9:	48 8d 05 5c 6a 00 00 	lea    0x6a5c(%rip),%rax        # 1903c <g_3+0xc>
   125e0:	48 89 85 f8 f5 ff ff 	mov    %rax,-0xa08(%rbp)
   125e7:	48 8d 05 42 6a 00 00 	lea    0x6a42(%rip),%rax        # 19030 <g_3>
   125ee:	48 89 85 00 f6 ff ff 	mov    %rax,-0xa00(%rbp)
   125f5:	48 8d 85 9c f1 ff ff 	lea    -0xe64(%rbp),%rax
   125fc:	48 89 85 08 f6 ff ff 	mov    %rax,-0x9f8(%rbp)
   12603:	48 8d 05 32 6a 00 00 	lea    0x6a32(%rip),%rax        # 1903c <g_3+0xc>
   1260a:	48 89 85 10 f6 ff ff 	mov    %rax,-0x9f0(%rbp)
   12611:	48 8d 85 9c f1 ff ff 	lea    -0xe64(%rbp),%rax
   12618:	48 89 85 18 f6 ff ff 	mov    %rax,-0x9e8(%rbp)
   1261f:	48 8d 05 0a 6a 00 00 	lea    0x6a0a(%rip),%rax        # 19030 <g_3>
   12626:	48 89 85 20 f6 ff ff 	mov    %rax,-0x9e0(%rbp)
   1262d:	48 8d 05 08 6a 00 00 	lea    0x6a08(%rip),%rax        # 1903c <g_3+0xc>
   12634:	48 89 85 28 f6 ff ff 	mov    %rax,-0x9d8(%rbp)
   1263b:	48 c7 85 30 f6 ff ff 	movq   $0x0,-0x9d0(%rbp)
   12642:	00 00 00 00 
   12646:	48 8d 05 e7 69 00 00 	lea    0x69e7(%rip),%rax        # 19034 <g_3+0x4>
   1264d:	48 89 85 38 f6 ff ff 	mov    %rax,-0x9c8(%rbp)
   12654:	48 8d 05 e5 69 00 00 	lea    0x69e5(%rip),%rax        # 19040 <g_3+0x10>
   1265b:	48 89 85 40 f6 ff ff 	mov    %rax,-0x9c0(%rbp)
   12662:	48 8d 85 9c f1 ff ff 	lea    -0xe64(%rbp),%rax
   12669:	48 89 85 48 f6 ff ff 	mov    %rax,-0x9b8(%rbp)
   12670:	48 8d 85 9c f1 ff ff 	lea    -0xe64(%rbp),%rax
   12677:	48 89 85 50 f6 ff ff 	mov    %rax,-0x9b0(%rbp)
   1267e:	48 8d 05 bf 69 00 00 	lea    0x69bf(%rip),%rax        # 19044 <g_3+0x14>
   12685:	48 89 85 58 f6 ff ff 	mov    %rax,-0x9a8(%rbp)
   1268c:	48 c7 85 60 f6 ff ff 	movq   $0x0,-0x9a0(%rbp)
   12693:	00 00 00 00 
   12697:	48 c7 85 68 f6 ff ff 	movq   $0x0,-0x998(%rbp)
   1269e:	00 00 00 00 
   126a2:	48 8d 05 9b 69 00 00 	lea    0x699b(%rip),%rax        # 19044 <g_3+0x14>
   126a9:	48 89 85 70 f6 ff ff 	mov    %rax,-0x990(%rbp)
   126b0:	48 8d 85 9c f1 ff ff 	lea    -0xe64(%rbp),%rax
   126b7:	48 89 85 78 f6 ff ff 	mov    %rax,-0x988(%rbp)
   126be:	48 8d 05 6f 69 00 00 	lea    0x696f(%rip),%rax        # 19034 <g_3+0x4>
   126c5:	48 89 85 80 f6 ff ff 	mov    %rax,-0x980(%rbp)
   126cc:	48 8d 05 61 69 00 00 	lea    0x6961(%rip),%rax        # 19034 <g_3+0x4>
   126d3:	48 89 85 88 f6 ff ff 	mov    %rax,-0x978(%rbp)
   126da:	48 8d 85 9c f1 ff ff 	lea    -0xe64(%rbp),%rax
   126e1:	48 89 85 90 f6 ff ff 	mov    %rax,-0x970(%rbp)
   126e8:	48 8d 05 4d 69 00 00 	lea    0x694d(%rip),%rax        # 1903c <g_3+0xc>
   126ef:	48 89 85 98 f6 ff ff 	mov    %rax,-0x968(%rbp)
   126f6:	48 8d 05 3f 69 00 00 	lea    0x693f(%rip),%rax        # 1903c <g_3+0xc>
   126fd:	48 89 85 a0 f6 ff ff 	mov    %rax,-0x960(%rbp)
   12704:	48 8d 05 31 69 00 00 	lea    0x6931(%rip),%rax        # 1903c <g_3+0xc>
   1270b:	48 89 85 a8 f6 ff ff 	mov    %rax,-0x958(%rbp)
   12712:	48 c7 85 b0 f6 ff ff 	movq   $0x0,-0x950(%rbp)
   12719:	00 00 00 00 
   1271d:	48 8d 05 1c 69 00 00 	lea    0x691c(%rip),%rax        # 19040 <g_3+0x10>
   12724:	48 89 85 b8 f6 ff ff 	mov    %rax,-0x948(%rbp)
   1272b:	48 c7 85 c0 f6 ff ff 	movq   $0x0,-0x940(%rbp)
   12732:	00 00 00 00 
   12736:	48 c7 85 c8 f6 ff ff 	movq   $0x0,-0x938(%rbp)
   1273d:	00 00 00 00 
   12741:	48 8d 05 f4 68 00 00 	lea    0x68f4(%rip),%rax        # 1903c <g_3+0xc>
   12748:	48 89 85 d0 f6 ff ff 	mov    %rax,-0x930(%rbp)
   1274f:	48 8d 05 de 68 00 00 	lea    0x68de(%rip),%rax        # 19034 <g_3+0x4>
   12756:	48 89 85 d8 f6 ff ff 	mov    %rax,-0x928(%rbp)
   1275d:	48 8d 05 d8 68 00 00 	lea    0x68d8(%rip),%rax        # 1903c <g_3+0xc>
   12764:	48 89 85 e0 f6 ff ff 	mov    %rax,-0x920(%rbp)
   1276b:	48 c7 85 e8 f6 ff ff 	movq   $0x0,-0x918(%rbp)
   12772:	00 00 00 00 
   12776:	48 c7 85 f0 f6 ff ff 	movq   $0x0,-0x910(%rbp)
   1277d:	00 00 00 00 
   12781:	48 8d 05 b8 68 00 00 	lea    0x68b8(%rip),%rax        # 19040 <g_3+0x10>
   12788:	48 89 85 f8 f6 ff ff 	mov    %rax,-0x908(%rbp)
   1278f:	48 c7 85 00 f7 ff ff 	movq   $0x0,-0x900(%rbp)
   12796:	00 00 00 00 
   1279a:	48 8d 05 9b 68 00 00 	lea    0x689b(%rip),%rax        # 1903c <g_3+0xc>
   127a1:	48 89 85 08 f7 ff ff 	mov    %rax,-0x8f8(%rbp)
   127a8:	48 8d 05 8d 68 00 00 	lea    0x688d(%rip),%rax        # 1903c <g_3+0xc>
   127af:	48 89 85 10 f7 ff ff 	mov    %rax,-0x8f0(%rbp)
   127b6:	48 8d 05 7f 68 00 00 	lea    0x687f(%rip),%rax        # 1903c <g_3+0xc>
   127bd:	48 89 85 18 f7 ff ff 	mov    %rax,-0x8e8(%rbp)
   127c4:	48 8d 85 9c f1 ff ff 	lea    -0xe64(%rbp),%rax
   127cb:	48 89 85 20 f7 ff ff 	mov    %rax,-0x8e0(%rbp)
   127d2:	48 8d 05 5b 68 00 00 	lea    0x685b(%rip),%rax        # 19034 <g_3+0x4>
   127d9:	48 89 85 28 f7 ff ff 	mov    %rax,-0x8d8(%rbp)
   127e0:	48 8d 05 4d 68 00 00 	lea    0x684d(%rip),%rax        # 19034 <g_3+0x4>
   127e7:	48 89 85 30 f7 ff ff 	mov    %rax,-0x8d0(%rbp)
   127ee:	48 8d 85 9c f1 ff ff 	lea    -0xe64(%rbp),%rax
   127f5:	48 89 85 38 f7 ff ff 	mov    %rax,-0x8c8(%rbp)
   127fc:	48 8d 05 41 68 00 00 	lea    0x6841(%rip),%rax        # 19044 <g_3+0x14>
   12803:	48 89 85 40 f7 ff ff 	mov    %rax,-0x8c0(%rbp)
   1280a:	48 c7 85 48 f7 ff ff 	movq   $0x0,-0x8b8(%rbp)
   12811:	00 00 00 00 
   12815:	48 c7 85 50 f7 ff ff 	movq   $0x0,-0x8b0(%rbp)
   1281c:	00 00 00 00 
   12820:	48 8d 05 1d 68 00 00 	lea    0x681d(%rip),%rax        # 19044 <g_3+0x14>
   12827:	48 89 85 58 f7 ff ff 	mov    %rax,-0x8a8(%rbp)
   1282e:	48 8d 85 9c f1 ff ff 	lea    -0xe64(%rbp),%rax
   12835:	48 89 85 60 f7 ff ff 	mov    %rax,-0x8a0(%rbp)
   1283c:	48 8d 85 9c f1 ff ff 	lea    -0xe64(%rbp),%rax
   12843:	48 89 85 68 f7 ff ff 	mov    %rax,-0x898(%rbp)
   1284a:	48 8d 05 ef 67 00 00 	lea    0x67ef(%rip),%rax        # 19040 <g_3+0x10>
   12851:	48 89 85 70 f7 ff ff 	mov    %rax,-0x890(%rbp)
   12858:	48 8d 05 d5 67 00 00 	lea    0x67d5(%rip),%rax        # 19034 <g_3+0x4>
   1285f:	48 89 85 78 f7 ff ff 	mov    %rax,-0x888(%rbp)
   12866:	48 c7 85 80 f7 ff ff 	movq   $0x0,-0x880(%rbp)
   1286d:	00 00 00 00 
   12871:	48 8d 05 c4 67 00 00 	lea    0x67c4(%rip),%rax        # 1903c <g_3+0xc>
   12878:	48 89 85 88 f7 ff ff 	mov    %rax,-0x878(%rbp)
   1287f:	48 8d 05 aa 67 00 00 	lea    0x67aa(%rip),%rax        # 19030 <g_3>
   12886:	48 89 85 90 f7 ff ff 	mov    %rax,-0x870(%rbp)
   1288d:	48 8d 85 9c f1 ff ff 	lea    -0xe64(%rbp),%rax
   12894:	48 89 85 98 f7 ff ff 	mov    %rax,-0x868(%rbp)
   1289b:	48 8d 05 9a 67 00 00 	lea    0x679a(%rip),%rax        # 1903c <g_3+0xc>
   128a2:	48 89 85 a0 f7 ff ff 	mov    %rax,-0x860(%rbp)
   128a9:	48 8d 85 9c f1 ff ff 	lea    -0xe64(%rbp),%rax
   128b0:	48 89 85 a8 f7 ff ff 	mov    %rax,-0x858(%rbp)
   128b7:	48 8d 05 72 67 00 00 	lea    0x6772(%rip),%rax        # 19030 <g_3>
   128be:	48 89 85 b0 f7 ff ff 	mov    %rax,-0x850(%rbp)
   128c5:	48 8d 05 70 67 00 00 	lea    0x6770(%rip),%rax        # 1903c <g_3+0xc>
   128cc:	48 89 85 b8 f7 ff ff 	mov    %rax,-0x848(%rbp)
   128d3:	48 c7 85 c0 f7 ff ff 	movq   $0x0,-0x840(%rbp)
   128da:	00 00 00 00 
   128de:	48 8d 05 57 67 00 00 	lea    0x6757(%rip),%rax        # 1903c <g_3+0xc>
   128e5:	48 89 85 c8 f7 ff ff 	mov    %rax,-0x838(%rbp)
   128ec:	48 8d 05 41 67 00 00 	lea    0x6741(%rip),%rax        # 19034 <g_3+0x4>
   128f3:	48 89 85 d0 f7 ff ff 	mov    %rax,-0x830(%rbp)
   128fa:	48 8d 05 2f 67 00 00 	lea    0x672f(%rip),%rax        # 19030 <g_3>
   12901:	48 89 85 d8 f7 ff ff 	mov    %rax,-0x828(%rbp)
   12908:	48 8d 05 2d 67 00 00 	lea    0x672d(%rip),%rax        # 1903c <g_3+0xc>
   1290f:	48 89 85 e0 f7 ff ff 	mov    %rax,-0x820(%rbp)
   12916:	48 8d 85 9c f1 ff ff 	lea    -0xe64(%rbp),%rax
   1291d:	48 89 85 e8 f7 ff ff 	mov    %rax,-0x818(%rbp)
   12924:	48 8d 05 11 67 00 00 	lea    0x6711(%rip),%rax        # 1903c <g_3+0xc>
   1292b:	48 89 85 f0 f7 ff ff 	mov    %rax,-0x810(%rbp)
   12932:	48 8d 05 03 67 00 00 	lea    0x6703(%rip),%rax        # 1903c <g_3+0xc>
   12939:	48 89 85 f8 f7 ff ff 	mov    %rax,-0x808(%rbp)
   12940:	48 8d 05 ed 66 00 00 	lea    0x66ed(%rip),%rax        # 19034 <g_3+0x4>
   12947:	48 89 85 00 f8 ff ff 	mov    %rax,-0x800(%rbp)
   1294e:	48 c7 85 08 f8 ff ff 	movq   $0x0,-0x7f8(%rbp)
   12955:	00 00 00 00 
   12959:	48 8d 05 dc 66 00 00 	lea    0x66dc(%rip),%rax        # 1903c <g_3+0xc>
   12960:	48 89 85 10 f8 ff ff 	mov    %rax,-0x7f0(%rbp)
   12967:	48 8d 05 ce 66 00 00 	lea    0x66ce(%rip),%rax        # 1903c <g_3+0xc>
   1296e:	48 89 85 18 f8 ff ff 	mov    %rax,-0x7e8(%rbp)
   12975:	48 c7 85 20 f8 ff ff 	movq   $0x0,-0x7e0(%rbp)
   1297c:	00 00 00 00 
   12980:	48 8d 05 ad 66 00 00 	lea    0x66ad(%rip),%rax        # 19034 <g_3+0x4>
   12987:	48 89 85 28 f8 ff ff 	mov    %rax,-0x7d8(%rbp)
   1298e:	48 8d 05 a7 66 00 00 	lea    0x66a7(%rip),%rax        # 1903c <g_3+0xc>
   12995:	48 89 85 30 f8 ff ff 	mov    %rax,-0x7d0(%rbp)
   1299c:	48 8d 05 99 66 00 00 	lea    0x6699(%rip),%rax        # 1903c <g_3+0xc>
   129a3:	48 89 85 38 f8 ff ff 	mov    %rax,-0x7c8(%rbp)
   129aa:	48 8d 05 87 6c 00 00 	lea    0x6c87(%rip),%rax        # 19638 <g_98>
   129b1:	48 89 85 d8 f1 ff ff 	mov    %rax,-0xe28(%rbp)
   129b8:	c7 85 a8 f1 ff ff 00 	movl   $0x0,-0xe58(%rbp)
   129bf:	00 00 00 
   129c2:	eb 1e                	jmp    129e2 <func_29+0xbbc>
   129c4:	8b 85 a8 f1 ff ff    	mov    -0xe58(%rbp),%eax
   129ca:	48 98                	cltq   
   129cc:	48 8d 15 6d 6c 00 00 	lea    0x6c6d(%rip),%rdx        # 19640 <g_100>
   129d3:	48 89 94 c5 10 f2 ff 	mov    %rdx,-0xdf0(%rbp,%rax,8)
   129da:	ff 
   129db:	83 85 a8 f1 ff ff 01 	addl   $0x1,-0xe58(%rbp)
   129e2:	83 bd a8 f1 ff ff 04 	cmpl   $0x4,-0xe58(%rbp)
   129e9:	7e d9                	jle    129c4 <func_29+0xb9e>
   129eb:	0f b7 05 60 68 00 00 	movzwl 0x6860(%rip),%eax        # 19252 <g_63>
   129f2:	83 c0 01             	add    $0x1,%eax
   129f5:	66 89 05 56 68 00 00 	mov    %ax,0x6856(%rip)        # 19252 <g_63>
   129fc:	8b 05 2e 6c 00 00    	mov    0x6c2e(%rip),%eax        # 19630 <g_71>
   12a02:	83 e8 01             	sub    $0x1,%eax
   12a05:	89 05 25 6c 00 00    	mov    %eax,0x6c25(%rip)        # 19630 <g_71>
   12a0b:	0f b7 05 40 68 00 00 	movzwl 0x6840(%rip),%eax        # 19252 <g_63>
   12a12:	0f b7 d8             	movzwl %ax,%ebx
   12a15:	4c 0f be a5 84 f1 ff 	movsbq -0xe7c(%rbp),%r12
   12a1c:	ff 
   12a1d:	44 0f be ad 84 f1 ff 	movsbl -0xe7c(%rbp),%r13d
   12a24:	ff 
   12a25:	8b 05 11 66 00 00    	mov    0x6611(%rip),%eax        # 1903c <g_3+0xc>
   12a2b:	41 89 c6             	mov    %eax,%r14d
   12a2e:	8b 85 a0 f1 ff ff    	mov    -0xe60(%rbp),%eax
   12a34:	41 89 c7             	mov    %eax,%r15d
   12a37:	c7 85 ac f1 ff ff f7 	movl   $0xf0835ff7,-0xe54(%rbp)
   12a3e:	5f 83 f0 
   12a41:	b8 01 00 00 00       	mov    $0x1,%eax
   12a46:	83 f8 01             	cmp    $0x1,%eax
   12a49:	0f 95 c0             	setne  %al
   12a4c:	0f b6 d0             	movzbl %al,%edx
   12a4f:	8b 85 9c f1 ff ff    	mov    -0xe64(%rbp),%eax
   12a55:	09 d0                	or     %edx,%eax
   12a57:	89 85 9c f1 ff ff    	mov    %eax,-0xe64(%rbp)
   12a5d:	8b 85 9c f1 ff ff    	mov    -0xe64(%rbp),%eax
   12a63:	85 c0                	test   %eax,%eax
   12a65:	0f 94 c0             	sete   %al
   12a68:	0f b6 d0             	movzbl %al,%edx
   12a6b:	48 0f be 85 84 f1 ff 	movsbq -0xe7c(%rbp),%rax
   12a72:	ff 
   12a73:	48 89 d6             	mov    %rdx,%rsi
   12a76:	48 89 c7             	mov    %rax,%rdi
   12a79:	e8 b0 65 ff ff       	callq  902e <safe_add_func_uint64_t_u_u>
   12a7e:	98                   	cwtl   
   12a7f:	44 89 fe             	mov    %r15d,%esi
   12a82:	89 c7                	mov    %eax,%edi
   12a84:	e8 da 5a ff ff       	callq  8563 <safe_rshift_func_int16_t_s_u>
   12a89:	66 85 c0             	test   %ax,%ax
   12a8c:	75 0b                	jne    12a99 <func_29+0xc73>
   12a8e:	0f b6 05 b8 67 00 00 	movzbl 0x67b8(%rip),%eax        # 1924d <g_62+0x5>
   12a95:	84 c0                	test   %al,%al
   12a97:	74 07                	je     12aa0 <func_29+0xc7a>
   12a99:	bf 01 00 00 00       	mov    $0x1,%edi
   12a9e:	eb 05                	jmp    12aa5 <func_29+0xc7f>
   12aa0:	bf 00 00 00 00       	mov    $0x0,%edi
   12aa5:	48 8b 05 e4 a0 00 00 	mov    0xa0e4(%rip),%rax        # 1cb90 <g_101>
   12aac:	48 8d 95 40 f2 ff ff 	lea    -0xdc0(%rbp),%rdx
   12ab3:	48 8d b2 68 05 00 00 	lea    0x568(%rdx),%rsi
   12aba:	45 89 e8             	mov    %r13d,%r8d
   12abd:	48 89 c1             	mov    %rax,%rcx
   12ac0:	44 89 f2             	mov    %r14d,%edx
   12ac3:	e8 c7 01 00 00       	callq  12c8f <func_78>
   12ac8:	48 0f be 85 84 f1 ff 	movsbq -0xe7c(%rbp),%rax
   12acf:	ff 
   12ad0:	48 8b 95 c0 f1 ff ff 	mov    -0xe40(%rbp),%rdx
   12ad7:	4c 8d 05 4e 6b 00 00 	lea    0x6b4e(%rip),%r8        # 1962c <g_69>
   12ade:	4c 89 e1             	mov    %r12,%rcx
   12ae1:	48 8d 35 44 6b 00 00 	lea    0x6b44(%rip),%rsi        # 1962c <g_69>
   12ae8:	48 89 c7             	mov    %rax,%rdi
   12aeb:	e8 c0 00 00 00       	callq  12bb0 <func_36>
   12af0:	89 de                	mov    %ebx,%esi
   12af2:	89 c7                	mov    %eax,%edi
   12af4:	e8 bf 63 ff ff       	callq  8eb8 <safe_add_func_uint32_t_u_u>
   12af9:	89 c2                	mov    %eax,%edx
   12afb:	8b 85 a4 f1 ff ff    	mov    -0xe5c(%rbp),%eax
   12b01:	48 98                	cltq   
   12b03:	48 89 d6             	mov    %rdx,%rsi
   12b06:	48 89 c7             	mov    %rax,%rdi
   12b09:	e8 20 65 ff ff       	callq  902e <safe_add_func_uint64_t_u_u>
   12b0e:	88 05 38 6b 00 00    	mov    %al,0x6b38(%rip)        # 1964c <g_134>
   12b14:	0f b6 05 31 6b 00 00 	movzbl 0x6b31(%rip),%eax        # 1964c <g_134>
   12b1b:	0f b6 c0             	movzbl %al,%eax
   12b1e:	89 85 a4 f1 ff ff    	mov    %eax,-0xe5c(%rbp)
   12b24:	0f b6 05 21 65 00 00 	movzbl 0x6521(%rip),%eax        # 1904c <g_33>
   12b2b:	83 c0 01             	add    $0x1,%eax
   12b2e:	88 05 18 65 00 00    	mov    %al,0x6518(%rip)        # 1904c <g_33>
   12b34:	0f b6 05 11 65 00 00 	movzbl 0x6511(%rip),%eax        # 1904c <g_33>
   12b3b:	3c 0b                	cmp    $0xb,%al
   12b3d:	0f 8f 44 f4 ff ff    	jg     11f87 <func_29+0x161>
   12b43:	8b 85 00 f2 ff ff    	mov    -0xe00(%rbp),%eax
   12b49:	89 c7                	mov    %eax,%edi
   12b4b:	e8 18 01 00 00       	callq  12c68 <func_46>
   12b50:	48 8b 95 c8 f1 ff ff 	mov    -0xe38(%rbp),%rdx
   12b57:	48 89 02             	mov    %rax,(%rdx)
   12b5a:	48 8b 85 c8 f1 ff ff 	mov    -0xe38(%rbp),%rax
   12b61:	48 8b 10             	mov    (%rax),%rdx
   12b64:	48 8b 85 d0 f1 ff ff 	mov    -0xe30(%rbp),%rax
   12b6b:	48 89 10             	mov    %rdx,(%rax)
   12b6e:	0f be 95 84 f1 ff ff 	movsbl -0xe7c(%rbp),%edx
   12b75:	8b 05 cd 6a 00 00    	mov    0x6acd(%rip),%eax        # 19648 <g_131>
   12b7b:	09 d0                	or     %edx,%eax
   12b7d:	89 05 c5 6a 00 00    	mov    %eax,0x6ac5(%rip)        # 19648 <g_131>
   12b83:	48 8b 85 10 fc ff ff 	mov    -0x3f0(%rbp),%rax
   12b8a:	48 8b 5d c8          	mov    -0x38(%rbp),%rbx
   12b8e:	64 48 33 1c 25 28 00 	xor    %fs:0x28,%rbx
   12b95:	00 00 
   12b97:	74 05                	je     12b9e <func_29+0xd78>
   12b99:	e8 d2 54 ff ff       	callq  8070 <__stack_chk_fail@plt>
   12b9e:	48 81 c4 58 0e 00 00 	add    $0xe58,%rsp
   12ba5:	5b                   	pop    %rbx
   12ba6:	41 5c                	pop    %r12
   12ba8:	41 5d                	pop    %r13
   12baa:	41 5e                	pop    %r14
   12bac:	41 5f                	pop    %r15
   12bae:	5d                   	pop    %rbp
   12baf:	c3                   	retq   

0000000000012bb0 <func_36>:
   12bb0:	f3 0f 1e fa          	endbr64 
   12bb4:	55                   	push   %rbp
   12bb5:	48 89 e5             	mov    %rsp,%rbp
   12bb8:	48 81 ec 10 07 00 00 	sub    $0x710,%rsp
   12bbf:	48 89 bd 18 f9 ff ff 	mov    %rdi,-0x6e8(%rbp)
   12bc6:	48 89 b5 10 f9 ff ff 	mov    %rsi,-0x6f0(%rbp)
   12bcd:	48 89 95 08 f9 ff ff 	mov    %rdx,-0x6f8(%rbp)
   12bd4:	48 89 8d 00 f9 ff ff 	mov    %rcx,-0x700(%rbp)
   12bdb:	4c 89 85 f8 f8 ff ff 	mov    %r8,-0x708(%rbp)
   12be2:	64 48 8b 04 25 28 00 	mov    %fs:0x28,%rax
   12be9:	00 00 
   12beb:	48 89 45 f8          	mov    %rax,-0x8(%rbp)
   12bef:	31 c0                	xor    %eax,%eax
   12bf1:	48 8d 85 30 f9 ff ff 	lea    -0x6d0(%rbp),%rax
   12bf8:	48 8d 15 c1 86 00 00 	lea    0x86c1(%rip),%rdx        # 1b2c0 <g_2195+0x1790>
   12bff:	b9 d8 00 00 00       	mov    $0xd8,%ecx
   12c04:	48 89 c7             	mov    %rax,%rdi
   12c07:	48 89 d6             	mov    %rdx,%rsi
   12c0a:	f3 48 a5             	rep movsq %ds:(%rsi),%es:(%rdi)
   12c0d:	48 8d 85 30 f9 ff ff 	lea    -0x6d0(%rbp),%rax
   12c14:	48 05 30 02 00 00    	add    $0x230,%rax
   12c1a:	48 89 85 28 f9 ff ff 	mov    %rax,-0x6d8(%rbp)
   12c21:	48 8b 85 00 f9 ff ff 	mov    -0x700(%rbp),%rax
   12c28:	89 c7                	mov    %eax,%edi
   12c2a:	e8 39 00 00 00       	callq  12c68 <func_46>
   12c2f:	48 8b 95 28 f9 ff ff 	mov    -0x6d8(%rbp),%rdx
   12c36:	48 89 02             	mov    %rax,(%rdx)
   12c39:	0f b7 05 0e 64 00 00 	movzwl 0x640e(%rip),%eax        # 1904e <g_52>
   12c40:	83 c0 01             	add    $0x1,%eax
   12c43:	66 89 05 04 64 00 00 	mov    %ax,0x6404(%rip)        # 1904e <g_52>
   12c4a:	8b 05 ec 63 00 00    	mov    0x63ec(%rip),%eax        # 1903c <g_3+0xc>
   12c50:	48 98                	cltq   
   12c52:	48 8b 4d f8          	mov    -0x8(%rbp),%rcx
   12c56:	64 48 33 0c 25 28 00 	xor    %fs:0x28,%rcx
   12c5d:	00 00 
   12c5f:	74 05                	je     12c66 <func_36+0xb6>
   12c61:	e8 0a 54 ff ff       	callq  8070 <__stack_chk_fail@plt>
   12c66:	c9                   	leaveq 
   12c67:	c3                   	retq   

0000000000012c68 <func_46>:
   12c68:	f3 0f 1e fa          	endbr64 
   12c6c:	55                   	push   %rbp
   12c6d:	48 89 e5             	mov    %rsp,%rbp
   12c70:	89 7d ec             	mov    %edi,-0x14(%rbp)
   12c73:	48 8d 05 be 63 00 00 	lea    0x63be(%rip),%rax        # 19038 <g_3+0x8>
   12c7a:	48 89 45 f8          	mov    %rax,-0x8(%rbp)
   12c7e:	48 c7 05 ff 9e 00 00 	movq   $0x0,0x9eff(%rip)        # 1cb88 <g_48>
   12c85:	00 00 00 00 
   12c89:	48 8b 45 f8          	mov    -0x8(%rbp),%rax
   12c8d:	5d                   	pop    %rbp
   12c8e:	c3                   	retq   

0000000000012c8f <func_78>:
   12c8f:	f3 0f 1e fa          	endbr64 
   12c93:	55                   	push   %rbp
   12c94:	48 89 e5             	mov    %rsp,%rbp
   12c97:	41 57                	push   %r15
   12c99:	41 56                	push   %r14
   12c9b:	41 55                	push   %r13
   12c9d:	41 54                	push   %r12
   12c9f:	53                   	push   %rbx
   12ca0:	48 81 ec 88 00 00 00 	sub    $0x88,%rsp
   12ca7:	89 bd 6c ff ff ff    	mov    %edi,-0x94(%rbp)
   12cad:	48 89 b5 60 ff ff ff 	mov    %rsi,-0xa0(%rbp)
   12cb4:	89 95 68 ff ff ff    	mov    %edx,-0x98(%rbp)
   12cba:	48 89 8d 58 ff ff ff 	mov    %rcx,-0xa8(%rbp)
   12cc1:	44 89 c0             	mov    %r8d,%eax
   12cc4:	66 89 85 54 ff ff ff 	mov    %ax,-0xac(%rbp)
   12ccb:	64 48 8b 04 25 28 00 	mov    %fs:0x28,%rax
   12cd2:	00 00 
   12cd4:	48 89 45 c8          	mov    %rax,-0x38(%rbp)
   12cd8:	31 c0                	xor    %eax,%eax
   12cda:	48 8d 05 9f 8c 00 00 	lea    0x8c9f(%rip),%rax        # 1b980 <g_32>
   12ce1:	48 89 45 98          	mov    %rax,-0x68(%rbp)
   12ce5:	48 c7 45 a0 ff ff ff 	movq   $0xffffffffffffffff,-0x60(%rbp)
   12cec:	ff 
   12ced:	48 8d 05 4c 69 00 00 	lea    0x694c(%rip),%rax        # 19640 <g_100>
   12cf4:	48 89 45 a8          	mov    %rax,-0x58(%rbp)
   12cf8:	c6 85 7f ff ff ff 62 	movb   $0x62,-0x81(%rbp)
   12cff:	48 c7 45 88 00 00 00 	movq   $0x0,-0x78(%rbp)
   12d06:	00 
   12d07:	c7 45 80 da 3e 8f 51 	movl   $0x518f3eda,-0x80(%rbp)
   12d0e:	c7 45 84 7d 65 90 af 	movl   $0xaf90657d,-0x7c(%rbp)
   12d15:	48 c7 45 90 00 00 00 	movq   $0x0,-0x70(%rbp)
   12d1c:	00 
   12d1d:	48 8d 05 78 64 00 00 	lea    0x6478(%rip),%rax        # 1919c <g_61+0x13c>
   12d24:	48 89 45 b0          	mov    %rax,-0x50(%rbp)
   12d28:	48 8d 05 19 69 00 00 	lea    0x6919(%rip),%rax        # 19648 <g_131>
   12d2f:	48 89 45 b8          	mov    %rax,-0x48(%rbp)
   12d33:	48 8d 45 88          	lea    -0x78(%rbp),%rax
   12d37:	48 89 45 c0          	mov    %rax,-0x40(%rbp)
   12d3b:	48 8b 45 98          	mov    -0x68(%rbp),%rax
   12d3f:	48 89 05 52 9e 00 00 	mov    %rax,0x9e52(%rip)        # 1cb98 <g_103>
   12d46:	8b 85 68 ff ff ff    	mov    -0x98(%rbp),%eax
   12d4c:	0f b6 d8             	movzbl %al,%ebx
   12d4f:	0f b6 05 d7 68 00 00 	movzbl 0x68d7(%rip),%eax        # 1962d <g_70>
   12d56:	66 98                	cbtw   
   12d58:	44 0f b7 e0          	movzwl %ax,%r12d
   12d5c:	44 0f b6 ad 7f ff ff 	movzbl -0x81(%rbp),%r13d
   12d63:	ff 
   12d64:	48 83 7d a8 00       	cmpq   $0x0,-0x58(%rbp)
   12d69:	0f 95 c0             	setne  %al
   12d6c:	0f b6 c0             	movzbl %al,%eax
   12d6f:	89 85 50 ff ff ff    	mov    %eax,-0xb0(%rbp)
   12d75:	83 bd 68 ff ff ff 00 	cmpl   $0x0,-0x98(%rbp)
   12d7c:	0f 85 87 00 00 00    	jne    12e09 <func_78+0x17a>
   12d82:	44 0f b6 b5 7f ff ff 	movzbl -0x81(%rbp),%r14d
   12d89:	ff 
   12d8a:	44 8b bd 68 ff ff ff 	mov    -0x98(%rbp),%r15d
   12d91:	8b 85 6c ff ff ff    	mov    -0x94(%rbp),%eax
   12d97:	0f b6 d0             	movzbl %al,%edx
   12d9a:	48 8b 05 f7 9d 00 00 	mov    0x9df7(%rip),%rax        # 1cb98 <g_103>
   12da1:	48 8b 00             	mov    (%rax),%rax
   12da4:	0f b6 00             	movzbl (%rax),%eax
   12da7:	83 c8 ac             	or     $0xffffffac,%eax
   12daa:	0f b6 c0             	movzbl %al,%eax
   12dad:	89 d6                	mov    %edx,%esi
   12daf:	89 c7                	mov    %eax,%edi
   12db1:	e8 dd 5d ff ff       	callq  8b93 <safe_mul_func_uint8_t_u_u>
   12db6:	0f b6 c0             	movzbl %al,%eax
   12db9:	f7 d0                	not    %eax
   12dbb:	44 89 fe             	mov    %r15d,%esi
   12dbe:	89 c7                	mov    %eax,%edi
   12dc0:	e8 3a 59 ff ff       	callq  86ff <safe_div_func_int32_t_s_s>
   12dc5:	0f b6 85 7f ff ff ff 	movzbl -0x81(%rbp),%eax
   12dcc:	48 8b 55 a0          	mov    -0x60(%rbp),%rdx
   12dd0:	09 d0                	or     %edx,%eax
   12dd2:	89 45 80             	mov    %eax,-0x80(%rbp)
   12dd5:	0f b6 85 7f ff ff ff 	movzbl -0x81(%rbp),%eax
   12ddc:	0d 3b 57 00 00       	or     $0x573b,%eax
   12de1:	f7 d0                	not    %eax
   12de3:	89 45 84             	mov    %eax,-0x7c(%rbp)
   12de6:	48 83 7d a0 08       	cmpq   $0x8,-0x60(%rbp)
   12deb:	0f 96 c0             	setbe  %al
   12dee:	0f b6 c0             	movzbl %al,%eax
   12df1:	39 85 68 ff ff ff    	cmp    %eax,-0x98(%rbp)
   12df7:	0f 93 c0             	setae  %al
   12dfa:	0f b6 c0             	movzbl %al,%eax
   12dfd:	44 89 f6             	mov    %r14d,%esi
   12e00:	89 c7                	mov    %eax,%edi
   12e02:	e8 f8 58 ff ff       	callq  86ff <safe_div_func_int32_t_s_s>
   12e07:	85 c0                	test   %eax,%eax
   12e09:	48 8b 45 b0          	mov    -0x50(%rbp),%rax
   12e0d:	66 c7 00 96 e1       	movw   $0xe196,(%rax)
   12e12:	be 08 00 00 00       	mov    $0x8,%esi
   12e17:	bf 01 00 00 00       	mov    $0x1,%edi
   12e1c:	e8 59 60 ff ff       	callq  8e7a <safe_rshift_func_uint16_t_u_u>
   12e21:	0f b7 c0             	movzwl %ax,%eax
   12e24:	39 85 50 ff ff ff    	cmp    %eax,-0xb0(%rbp)
   12e2a:	0f 9f c0             	setg   %al
   12e2d:	0f b6 c0             	movzbl %al,%eax
   12e30:	44 89 ee             	mov    %r13d,%esi
   12e33:	89 c7                	mov    %eax,%edi
   12e35:	e8 eb 60 ff ff       	callq  8f25 <safe_div_func_uint32_t_u_u>
   12e3a:	48 8b 55 a0          	mov    -0x60(%rbp),%rdx
   12e3e:	31 d0                	xor    %edx,%eax
   12e40:	89 c2                	mov    %eax,%edx
   12e42:	48 8b 45 a0          	mov    -0x60(%rbp),%rax
   12e46:	89 d6                	mov    %edx,%esi
   12e48:	89 c7                	mov    %eax,%edi
   12e4a:	e8 b6 57 ff ff       	callq  8605 <safe_sub_func_int32_t_s_s>
   12e4f:	0f b7 c0             	movzwl %ax,%eax
   12e52:	44 89 e6             	mov    %r12d,%esi
   12e55:	89 c7                	mov    %eax,%edi
   12e57:	e8 a3 5e ff ff       	callq  8cff <safe_add_func_uint16_t_u_u>
   12e5c:	0f b6 c0             	movzbl %al,%eax
   12e5f:	89 de                	mov    %ebx,%esi
   12e61:	89 c7                	mov    %eax,%edi
   12e63:	e8 73 5d ff ff       	callq  8bdb <safe_div_func_uint8_t_u_u>
   12e68:	0f b6 8d 7f ff ff ff 	movzbl -0x81(%rbp),%ecx
   12e6f:	48 8b 45 b8          	mov    -0x48(%rbp),%rax
   12e73:	8b 10                	mov    (%rax),%edx
   12e75:	0f b6 c1             	movzbl %cl,%eax
   12e78:	09 c2                	or     %eax,%edx
   12e7a:	48 8b 45 b8          	mov    -0x48(%rbp),%rax
   12e7e:	89 10                	mov    %edx,(%rax)
   12e80:	48 8b 45 c0          	mov    -0x40(%rbp),%rax
   12e84:	48 c7 00 00 00 00 00 	movq   $0x0,(%rax)
   12e8b:	48 8b 45 c0          	mov    -0x40(%rbp),%rax
   12e8f:	48 8b 00             	mov    (%rax),%rax
   12e92:	48 85 c0             	test   %rax,%rax
   12e95:	0f 95 c0             	setne  %al
   12e98:	0f b6 d0             	movzbl %al,%edx
   12e9b:	48 8b 45 b8          	mov    -0x48(%rbp),%rax
   12e9f:	8b 00                	mov    (%rax),%eax
   12ea1:	09 c2                	or     %eax,%edx
   12ea3:	48 8b 45 b8          	mov    -0x48(%rbp),%rax
   12ea7:	89 10                	mov    %edx,(%rax)
   12ea9:	48 8b 45 90          	mov    -0x70(%rbp),%rax
   12ead:	48 8b 5d c8          	mov    -0x38(%rbp),%rbx
   12eb1:	64 48 33 1c 25 28 00 	xor    %fs:0x28,%rbx
   12eb8:	00 00 
   12eba:	74 05                	je     12ec1 <func_78+0x232>
   12ebc:	e8 af 51 ff ff       	callq  8070 <__stack_chk_fail@plt>
   12ec1:	48 81 c4 88 00 00 00 	add    $0x88,%rsp
   12ec8:	5b                   	pop    %rbx
   12ec9:	41 5c                	pop    %r12
   12ecb:	41 5d                	pop    %r13
   12ecd:	41 5e                	pop    %r14
   12ecf:	41 5f                	pop    %r15
   12ed1:	5d                   	pop    %rbp
   12ed2:	c3                   	retq   

0000000000012ed3 <main>:
   12ed3:	f3 0f 1e fa          	endbr64 
   12ed7:	55                   	push   %rbp
   12ed8:	48 89 e5             	mov    %rsp,%rbp
   12edb:	48 83 ec 20          	sub    $0x20,%rsp
   12edf:	89 7d ec             	mov    %edi,-0x14(%rbp)
   12ee2:	48 89 75 e0          	mov    %rsi,-0x20(%rbp)
   12ee6:	c7 45 fc 00 00 00 00 	movl   $0x0,-0x4(%rbp)
   12eed:	83 7d ec 02          	cmpl   $0x2,-0x14(%rbp)
   12ef1:	74 25                	je     12f18 <main+0x45>
   12ef3:	48 8b 45 e0          	mov    -0x20(%rbp),%rax
   12ef7:	48 83 c0 08          	add    $0x8,%rax
   12efb:	48 8b 00             	mov    (%rax),%rax
   12efe:	48 8d 35 8f 31 00 00 	lea    0x318f(%rip),%rsi        # 16094 <g_1636+0xea4>
   12f05:	48 89 c7             	mov    %rax,%rdi
   12f08:	e8 83 51 ff ff       	callq  8090 <strcmp@plt>
   12f0d:	85 c0                	test   %eax,%eax
   12f0f:	74 07                	je     12f18 <main+0x45>
   12f11:	c7 45 fc 01 00 00 00 	movl   $0x1,-0x4(%rbp)
   12f18:	e8 6c 52 ff ff       	callq  8189 <platform_main_begin>
   12f1d:	e8 76 66 ff ff       	callq  9598 <crc32_gentab>
   12f22:	e8 8e 68 ff ff       	callq  97b5 <func_1>
   12f27:	8b 05 f7 60 00 00    	mov    0x60f7(%rip),%eax        # 19024 <g_2>
   12f2d:	48 98                	cltq   
   12f2f:	8b 55 fc             	mov    -0x4(%rbp),%edx
   12f32:	48 8d 35 5d 31 00 00 	lea    0x315d(%rip),%rsi        # 16096 <g_1636+0xea6>
   12f39:	48 89 c7             	mov    %rax,%rdi
   12f3c:	e8 b2 67 ff ff       	callq  96f3 <transparent_crc>
   12f41:	c7 45 f0 00 00 00 00 	movl   $0x0,-0x10(%rbp)
   12f48:	eb 4b                	jmp    12f95 <main+0xc2>
   12f4a:	8b 45 f0             	mov    -0x10(%rbp),%eax
   12f4d:	48 98                	cltq   
   12f4f:	48 8d 14 85 00 00 00 	lea    0x0(,%rax,4),%rdx
   12f56:	00 
   12f57:	48 8d 05 d2 60 00 00 	lea    0x60d2(%rip),%rax        # 19030 <g_3>
   12f5e:	8b 04 02             	mov    (%rdx,%rax,1),%eax
   12f61:	48 98                	cltq   
   12f63:	8b 55 fc             	mov    -0x4(%rbp),%edx
   12f66:	48 8d 35 2d 31 00 00 	lea    0x312d(%rip),%rsi        # 1609a <g_1636+0xeaa>
   12f6d:	48 89 c7             	mov    %rax,%rdi
   12f70:	e8 7e 67 ff ff       	callq  96f3 <transparent_crc>
   12f75:	83 7d fc 00          	cmpl   $0x0,-0x4(%rbp)
   12f79:	74 16                	je     12f91 <main+0xbe>
   12f7b:	8b 45 f0             	mov    -0x10(%rbp),%eax
   12f7e:	89 c6                	mov    %eax,%esi
   12f80:	48 8d 3d 1a 31 00 00 	lea    0x311a(%rip),%rdi        # 160a1 <g_1636+0xeb1>
   12f87:	b8 00 00 00 00       	mov    $0x0,%eax
   12f8c:	e8 ef 50 ff ff       	callq  8080 <printf@plt>
   12f91:	83 45 f0 01          	addl   $0x1,-0x10(%rbp)
   12f95:	83 7d f0 06          	cmpl   $0x6,-0x10(%rbp)
   12f99:	7e af                	jle    12f4a <main+0x77>
   12f9b:	0f b6 05 aa 60 00 00 	movzbl 0x60aa(%rip),%eax        # 1904c <g_33>
   12fa2:	48 0f be c0          	movsbq %al,%rax
   12fa6:	8b 55 fc             	mov    -0x4(%rbp),%edx
   12fa9:	48 8d 35 ff 30 00 00 	lea    0x30ff(%rip),%rsi        # 160af <g_1636+0xebf>
   12fb0:	48 89 c7             	mov    %rax,%rdi
   12fb3:	e8 3b 67 ff ff       	callq  96f3 <transparent_crc>
   12fb8:	0f b7 05 8f 60 00 00 	movzwl 0x608f(%rip),%eax        # 1904e <g_52>
   12fbf:	0f b7 c0             	movzwl %ax,%eax
   12fc2:	8b 55 fc             	mov    -0x4(%rbp),%edx
   12fc5:	48 8d 35 e8 30 00 00 	lea    0x30e8(%rip),%rsi        # 160b4 <g_1636+0xec4>
   12fcc:	48 89 c7             	mov    %rax,%rdi
   12fcf:	e8 1f 67 ff ff       	callq  96f3 <transparent_crc>
   12fd4:	c7 45 f0 00 00 00 00 	movl   $0x0,-0x10(%rbp)
   12fdb:	e9 b4 00 00 00       	jmpq   13094 <main+0x1c1>
   12fe0:	c7 45 f4 00 00 00 00 	movl   $0x0,-0xc(%rbp)
   12fe7:	e9 9a 00 00 00       	jmpq   13086 <main+0x1b3>
   12fec:	c7 45 f8 00 00 00 00 	movl   $0x0,-0x8(%rbp)
   12ff3:	e9 80 00 00 00       	jmpq   13078 <main+0x1a5>
   12ff8:	8b 45 f8             	mov    -0x8(%rbp),%eax
   12ffb:	48 63 f0             	movslq %eax,%rsi
   12ffe:	8b 45 f0             	mov    -0x10(%rbp),%eax
   13001:	48 63 d0             	movslq %eax,%rdx
   13004:	8b 45 f4             	mov    -0xc(%rbp),%eax
   13007:	48 63 c8             	movslq %eax,%rcx
   1300a:	48 89 d0             	mov    %rdx,%rax
   1300d:	48 01 c0             	add    %rax,%rax
   13010:	48 01 d0             	add    %rdx,%rax
   13013:	48 8d 14 c5 00 00 00 	lea    0x0(,%rax,8),%rdx
   1301a:	00 
   1301b:	48 01 d0             	add    %rdx,%rax
   1301e:	48 89 ca             	mov    %rcx,%rdx
   13021:	48 01 d2             	add    %rdx,%rdx
   13024:	48 01 ca             	add    %rcx,%rdx
   13027:	48 01 d0             	add    %rdx,%rax
   1302a:	48 01 f0             	add    %rsi,%rax
   1302d:	48 8d 14 00          	lea    (%rax,%rax,1),%rdx
   13031:	48 8d 05 28 60 00 00 	lea    0x6028(%rip),%rax        # 19060 <g_61>
   13038:	0f b7 04 02          	movzwl (%rdx,%rax,1),%eax
   1303c:	48 0f bf c0          	movswq %ax,%rax
   13040:	8b 55 fc             	mov    -0x4(%rbp),%edx
   13043:	48 8d 35 6f 30 00 00 	lea    0x306f(%rip),%rsi        # 160b9 <g_1636+0xec9>
   1304a:	48 89 c7             	mov    %rax,%rdi
   1304d:	e8 a1 66 ff ff       	callq  96f3 <transparent_crc>
   13052:	83 7d fc 00          	cmpl   $0x0,-0x4(%rbp)
   13056:	74 1c                	je     13074 <main+0x1a1>
   13058:	8b 4d f8             	mov    -0x8(%rbp),%ecx
   1305b:	8b 55 f4             	mov    -0xc(%rbp),%edx
   1305e:	8b 45 f0             	mov    -0x10(%rbp),%eax
   13061:	89 c6                	mov    %eax,%esi
   13063:	48 8d 3d 5d 30 00 00 	lea    0x305d(%rip),%rdi        # 160c7 <g_1636+0xed7>
   1306a:	b8 00 00 00 00       	mov    $0x0,%eax
   1306f:	e8 0c 50 ff ff       	callq  8080 <printf@plt>
   13074:	83 45 f8 01          	addl   $0x1,-0x8(%rbp)
   13078:	83 7d f8 02          	cmpl   $0x2,-0x8(%rbp)
   1307c:	0f 8e 76 ff ff ff    	jle    12ff8 <main+0x125>
   13082:	83 45 f4 01          	addl   $0x1,-0xc(%rbp)
   13086:	83 7d f4 08          	cmpl   $0x8,-0xc(%rbp)
   1308a:	0f 8e 5c ff ff ff    	jle    12fec <main+0x119>
   13090:	83 45 f0 01          	addl   $0x1,-0x10(%rbp)
   13094:	83 7d f0 08          	cmpl   $0x8,-0x10(%rbp)
   13098:	0f 8e 42 ff ff ff    	jle    12fe0 <main+0x10d>
   1309e:	c7 45 f0 00 00 00 00 	movl   $0x0,-0x10(%rbp)
   130a5:	eb 46                	jmp    130ed <main+0x21a>
   130a7:	8b 45 f0             	mov    -0x10(%rbp),%eax
   130aa:	48 98                	cltq   
   130ac:	48 8d 15 95 61 00 00 	lea    0x6195(%rip),%rdx        # 19248 <g_62>
   130b3:	0f b6 04 10          	movzbl (%rax,%rdx,1),%eax
   130b7:	48 0f be c0          	movsbq %al,%rax
   130bb:	8b 55 fc             	mov    -0x4(%rbp),%edx
   130be:	48 8d 35 18 30 00 00 	lea    0x3018(%rip),%rsi        # 160dd <g_1636+0xeed>
   130c5:	48 89 c7             	mov    %rax,%rdi
   130c8:	e8 26 66 ff ff       	callq  96f3 <transparent_crc>
   130cd:	83 7d fc 00          	cmpl   $0x0,-0x4(%rbp)
   130d1:	74 16                	je     130e9 <main+0x216>
   130d3:	8b 45 f0             	mov    -0x10(%rbp),%eax
   130d6:	89 c6                	mov    %eax,%esi
   130d8:	48 8d 3d c2 2f 00 00 	lea    0x2fc2(%rip),%rdi        # 160a1 <g_1636+0xeb1>
   130df:	b8 00 00 00 00       	mov    $0x0,%eax
   130e4:	e8 97 4f ff ff       	callq  8080 <printf@plt>
   130e9:	83 45 f0 01          	addl   $0x1,-0x10(%rbp)
   130ed:	83 7d f0 09          	cmpl   $0x9,-0x10(%rbp)
   130f1:	7e b4                	jle    130a7 <main+0x1d4>
   130f3:	c7 45 f0 00 00 00 00 	movl   $0x0,-0x10(%rbp)
   130fa:	eb 68                	jmp    13164 <main+0x291>
   130fc:	c7 45 f4 00 00 00 00 	movl   $0x0,-0xc(%rbp)
   13103:	eb 55                	jmp    1315a <main+0x287>
   13105:	8b 45 f4             	mov    -0xc(%rbp),%eax
   13108:	48 63 d0             	movslq %eax,%rdx
   1310b:	8b 45 f0             	mov    -0x10(%rbp),%eax
   1310e:	48 98                	cltq   
   13110:	48 01 d0             	add    %rdx,%rax
   13113:	48 8d 14 00          	lea    (%rax,%rax,1),%rdx
   13117:	48 8d 05 34 61 00 00 	lea    0x6134(%rip),%rax        # 19252 <g_63>
   1311e:	0f b7 04 02          	movzwl (%rdx,%rax,1),%eax
   13122:	0f b7 c0             	movzwl %ax,%eax
   13125:	8b 55 fc             	mov    -0x4(%rbp),%edx
   13128:	48 8d 35 b6 2f 00 00 	lea    0x2fb6(%rip),%rsi        # 160e5 <g_1636+0xef5>
   1312f:	48 89 c7             	mov    %rax,%rdi
   13132:	e8 bc 65 ff ff       	callq  96f3 <transparent_crc>
   13137:	83 7d fc 00          	cmpl   $0x0,-0x4(%rbp)
   1313b:	74 19                	je     13156 <main+0x283>
   1313d:	8b 55 f4             	mov    -0xc(%rbp),%edx
   13140:	8b 45 f0             	mov    -0x10(%rbp),%eax
   13143:	89 c6                	mov    %eax,%esi
   13145:	48 8d 3d a4 2f 00 00 	lea    0x2fa4(%rip),%rdi        # 160f0 <g_1636+0xf00>
   1314c:	b8 00 00 00 00       	mov    $0x0,%eax
   13151:	e8 2a 4f ff ff       	callq  8080 <printf@plt>
   13156:	83 45 f4 01          	addl   $0x1,-0xc(%rbp)
   1315a:	83 7d f4 00          	cmpl   $0x0,-0xc(%rbp)
   1315e:	7e a5                	jle    13105 <main+0x232>
   13160:	83 45 f0 01          	addl   $0x1,-0x10(%rbp)
   13164:	83 7d f0 00          	cmpl   $0x0,-0x10(%rbp)
   13168:	7e 92                	jle    130fc <main+0x229>
   1316a:	c7 45 f0 00 00 00 00 	movl   $0x0,-0x10(%rbp)
   13171:	e9 b6 00 00 00       	jmpq   1322c <main+0x359>
   13176:	c7 45 f4 00 00 00 00 	movl   $0x0,-0xc(%rbp)
   1317d:	e9 9c 00 00 00       	jmpq   1321e <main+0x34b>
   13182:	c7 45 f8 00 00 00 00 	movl   $0x0,-0x8(%rbp)
   13189:	e9 82 00 00 00       	jmpq   13210 <main+0x33d>
   1318e:	8b 45 f8             	mov    -0x8(%rbp),%eax
   13191:	48 63 f0             	movslq %eax,%rsi
   13194:	8b 45 f0             	mov    -0x10(%rbp),%eax
   13197:	48 63 d0             	movslq %eax,%rdx
   1319a:	8b 45 f4             	mov    -0xc(%rbp),%eax
   1319d:	48 63 c8             	movslq %eax,%rcx
   131a0:	48 89 d0             	mov    %rdx,%rax
   131a3:	48 01 c0             	add    %rax,%rax
   131a6:	48 01 d0             	add    %rdx,%rax
   131a9:	48 8d 14 c5 00 00 00 	lea    0x0(,%rax,8),%rdx
   131b0:	00 
   131b1:	48 01 d0             	add    %rdx,%rax
   131b4:	48 89 ca             	mov    %rcx,%rdx
   131b7:	48 c1 e2 03          	shl    $0x3,%rdx
   131bb:	48 01 ca             	add    %rcx,%rdx
   131be:	48 01 d0             	add    %rdx,%rax
   131c1:	48 01 f0             	add    %rsi,%rax
   131c4:	48 8d 14 85 00 00 00 	lea    0x0(,%rax,4),%rdx
   131cb:	00 
   131cc:	48 8d 05 8d 60 00 00 	lea    0x608d(%rip),%rax        # 19260 <g_66>
   131d3:	8b 04 02             	mov    (%rdx,%rax,1),%eax
   131d6:	48 98                	cltq   
   131d8:	8b 55 fc             	mov    -0x4(%rbp),%edx
   131db:	48 8d 35 20 2f 00 00 	lea    0x2f20(%rip),%rsi        # 16102 <g_1636+0xf12>
   131e2:	48 89 c7             	mov    %rax,%rdi
   131e5:	e8 09 65 ff ff       	callq  96f3 <transparent_crc>
   131ea:	83 7d fc 00          	cmpl   $0x0,-0x4(%rbp)
   131ee:	74 1c                	je     1320c <main+0x339>
   131f0:	8b 4d f8             	mov    -0x8(%rbp),%ecx
   131f3:	8b 55 f4             	mov    -0xc(%rbp),%edx
   131f6:	8b 45 f0             	mov    -0x10(%rbp),%eax
   131f9:	89 c6                	mov    %eax,%esi
   131fb:	48 8d 3d c5 2e 00 00 	lea    0x2ec5(%rip),%rdi        # 160c7 <g_1636+0xed7>
   13202:	b8 00 00 00 00       	mov    $0x0,%eax
   13207:	e8 74 4e ff ff       	callq  8080 <printf@plt>
   1320c:	83 45 f8 01          	addl   $0x1,-0x8(%rbp)
   13210:	83 7d f8 08          	cmpl   $0x8,-0x8(%rbp)
   13214:	0f 8e 74 ff ff ff    	jle    1318e <main+0x2bb>
   1321a:	83 45 f4 01          	addl   $0x1,-0xc(%rbp)
   1321e:	83 7d f4 02          	cmpl   $0x2,-0xc(%rbp)
   13222:	0f 8e 5a ff ff ff    	jle    13182 <main+0x2af>
   13228:	83 45 f0 01          	addl   $0x1,-0x10(%rbp)
   1322c:	83 7d f0 08          	cmpl   $0x8,-0x10(%rbp)
   13230:	0f 8e 40 ff ff ff    	jle    13176 <main+0x2a3>
   13236:	0f b6 05 ef 63 00 00 	movzbl 0x63ef(%rip),%eax        # 1962c <g_69>
   1323d:	48 0f be c0          	movsbq %al,%rax
   13241:	8b 55 fc             	mov    -0x4(%rbp),%edx
   13244:	48 8d 35 c5 2e 00 00 	lea    0x2ec5(%rip),%rsi        # 16110 <g_1636+0xf20>
   1324b:	48 89 c7             	mov    %rax,%rdi
   1324e:	e8 a0 64 ff ff       	callq  96f3 <transparent_crc>
   13253:	0f b6 05 d3 63 00 00 	movzbl 0x63d3(%rip),%eax        # 1962d <g_70>
   1325a:	48 0f be c0          	movsbq %al,%rax
   1325e:	8b 55 fc             	mov    -0x4(%rbp),%edx
   13261:	48 8d 35 ad 2e 00 00 	lea    0x2ead(%rip),%rsi        # 16115 <g_1636+0xf25>
   13268:	48 89 c7             	mov    %rax,%rdi
   1326b:	e8 83 64 ff ff       	callq  96f3 <transparent_crc>
   13270:	8b 05 ba 63 00 00    	mov    0x63ba(%rip),%eax        # 19630 <g_71>
   13276:	89 c1                	mov    %eax,%ecx
   13278:	8b 45 fc             	mov    -0x4(%rbp),%eax
   1327b:	89 c2                	mov    %eax,%edx
   1327d:	48 8d 35 96 2e 00 00 	lea    0x2e96(%rip),%rsi        # 1611a <g_1636+0xf2a>
   13284:	48 89 cf             	mov    %rcx,%rdi
   13287:	e8 67 64 ff ff       	callq  96f3 <transparent_crc>
   1328c:	48 8b 05 a5 63 00 00 	mov    0x63a5(%rip),%rax        # 19638 <g_98>
   13293:	48 89 c1             	mov    %rax,%rcx
   13296:	8b 45 fc             	mov    -0x4(%rbp),%eax
   13299:	89 c2                	mov    %eax,%edx
   1329b:	48 8d 35 7d 2e 00 00 	lea    0x2e7d(%rip),%rsi        # 1611f <g_1636+0xf2f>
   132a2:	48 89 cf             	mov    %rcx,%rdi
   132a5:	e8 49 64 ff ff       	callq  96f3 <transparent_crc>
   132aa:	48 8b 05 8f 63 00 00 	mov    0x638f(%rip),%rax        # 19640 <g_100>
   132b1:	48 89 c1             	mov    %rax,%rcx
   132b4:	8b 45 fc             	mov    -0x4(%rbp),%eax
   132b7:	89 c2                	mov    %eax,%edx
   132b9:	48 8d 35 64 2e 00 00 	lea    0x2e64(%rip),%rsi        # 16124 <g_1636+0xf34>
   132c0:	48 89 cf             	mov    %rcx,%rdi
   132c3:	e8 2b 64 ff ff       	callq  96f3 <transparent_crc>
   132c8:	8b 05 7a 63 00 00    	mov    0x637a(%rip),%eax        # 19648 <g_131>
   132ce:	48 98                	cltq   
   132d0:	8b 55 fc             	mov    -0x4(%rbp),%edx
   132d3:	48 8d 35 50 2e 00 00 	lea    0x2e50(%rip),%rsi        # 1612a <g_1636+0xf3a>
   132da:	48 89 c7             	mov    %rax,%rdi
   132dd:	e8 11 64 ff ff       	callq  96f3 <transparent_crc>
   132e2:	0f b6 05 63 63 00 00 	movzbl 0x6363(%rip),%eax        # 1964c <g_134>
   132e9:	0f b6 c0             	movzbl %al,%eax
   132ec:	8b 55 fc             	mov    -0x4(%rbp),%edx
   132ef:	48 8d 35 3a 2e 00 00 	lea    0x2e3a(%rip),%rsi        # 16130 <g_1636+0xf40>
   132f6:	48 89 c7             	mov    %rax,%rdi
   132f9:	e8 f5 63 ff ff       	callq  96f3 <transparent_crc>
   132fe:	8b 05 4c 63 00 00    	mov    0x634c(%rip),%eax        # 19650 <g_142>
   13304:	48 98                	cltq   
   13306:	8b 55 fc             	mov    -0x4(%rbp),%edx
   13309:	48 8d 35 26 2e 00 00 	lea    0x2e26(%rip),%rsi        # 16136 <g_1636+0xf46>
   13310:	48 89 c7             	mov    %rax,%rdi
   13313:	e8 db 63 ff ff       	callq  96f3 <transparent_crc>
   13318:	c7 45 f0 00 00 00 00 	movl   $0x0,-0x10(%rbp)
   1331f:	e9 8b 00 00 00       	jmpq   133af <main+0x4dc>
   13324:	c7 45 f4 00 00 00 00 	movl   $0x0,-0xc(%rbp)
   1332b:	eb 78                	jmp    133a5 <main+0x4d2>
   1332d:	c7 45 f8 00 00 00 00 	movl   $0x0,-0x8(%rbp)
   13334:	eb 65                	jmp    1339b <main+0x4c8>
   13336:	8b 45 f8             	mov    -0x8(%rbp),%eax
   13339:	48 63 d0             	movslq %eax,%rdx
   1333c:	8b 45 f4             	mov    -0xc(%rbp),%eax
   1333f:	48 98                	cltq   
   13341:	8b 4d f0             	mov    -0x10(%rbp),%ecx
   13344:	48 63 c9             	movslq %ecx,%rcx
   13347:	48 c1 e1 03          	shl    $0x3,%rcx
   1334b:	48 01 ca             	add    %rcx,%rdx
   1334e:	48 01 d0             	add    %rdx,%rax
   13351:	48 8d 14 00          	lea    (%rax,%rax,1),%rdx
   13355:	48 8d 05 04 63 00 00 	lea    0x6304(%rip),%rax        # 19660 <g_174>
   1335c:	0f b7 04 02          	movzwl (%rdx,%rax,1),%eax
   13360:	0f b7 c0             	movzwl %ax,%eax
   13363:	8b 55 fc             	mov    -0x4(%rbp),%edx
   13366:	48 8d 35 cf 2d 00 00 	lea    0x2dcf(%rip),%rsi        # 1613c <g_1636+0xf4c>
   1336d:	48 89 c7             	mov    %rax,%rdi
   13370:	e8 7e 63 ff ff       	callq  96f3 <transparent_crc>
   13375:	83 7d fc 00          	cmpl   $0x0,-0x4(%rbp)
   13379:	74 1c                	je     13397 <main+0x4c4>
   1337b:	8b 4d f8             	mov    -0x8(%rbp),%ecx
   1337e:	8b 55 f4             	mov    -0xc(%rbp),%edx
   13381:	8b 45 f0             	mov    -0x10(%rbp),%eax
   13384:	89 c6                	mov    %eax,%esi
   13386:	48 8d 3d 3a 2d 00 00 	lea    0x2d3a(%rip),%rdi        # 160c7 <g_1636+0xed7>
   1338d:	b8 00 00 00 00       	mov    $0x0,%eax
   13392:	e8 e9 4c ff ff       	callq  8080 <printf@plt>
   13397:	83 45 f8 01          	addl   $0x1,-0x8(%rbp)
   1339b:	83 7d f8 00          	cmpl   $0x0,-0x8(%rbp)
   1339f:	7e 95                	jle    13336 <main+0x463>
   133a1:	83 45 f4 01          	addl   $0x1,-0xc(%rbp)
   133a5:	83 7d f4 07          	cmpl   $0x7,-0xc(%rbp)
   133a9:	7e 82                	jle    1332d <main+0x45a>
   133ab:	83 45 f0 01          	addl   $0x1,-0x10(%rbp)
   133af:	83 7d f0 02          	cmpl   $0x2,-0x10(%rbp)
   133b3:	0f 8e 6b ff ff ff    	jle    13324 <main+0x451>
   133b9:	48 8b 05 d0 62 00 00 	mov    0x62d0(%rip),%rax        # 19690 <g_192>
   133c0:	8b 55 fc             	mov    -0x4(%rbp),%edx
   133c3:	48 8d 35 81 2d 00 00 	lea    0x2d81(%rip),%rsi        # 1614b <g_1636+0xf5b>
   133ca:	48 89 c7             	mov    %rax,%rdi
   133cd:	e8 21 63 ff ff       	callq  96f3 <transparent_crc>
   133d2:	c7 45 f0 00 00 00 00 	movl   $0x0,-0x10(%rbp)
   133d9:	eb 45                	jmp    13420 <main+0x54d>
   133db:	8b 45 f0             	mov    -0x10(%rbp),%eax
   133de:	48 98                	cltq   
   133e0:	48 8d 15 b1 62 00 00 	lea    0x62b1(%rip),%rdx        # 19698 <g_207>
   133e7:	0f b6 04 10          	movzbl (%rax,%rdx,1),%eax
   133eb:	0f b6 c0             	movzbl %al,%eax
   133ee:	8b 55 fc             	mov    -0x4(%rbp),%edx
   133f1:	48 8d 35 59 2d 00 00 	lea    0x2d59(%rip),%rsi        # 16151 <g_1636+0xf61>
   133f8:	48 89 c7             	mov    %rax,%rdi
   133fb:	e8 f3 62 ff ff       	callq  96f3 <transparent_crc>
   13400:	83 7d fc 00          	cmpl   $0x0,-0x4(%rbp)
   13404:	74 16                	je     1341c <main+0x549>
   13406:	8b 45 f0             	mov    -0x10(%rbp),%eax
   13409:	89 c6                	mov    %eax,%esi
   1340b:	48 8d 3d 8f 2c 00 00 	lea    0x2c8f(%rip),%rdi        # 160a1 <g_1636+0xeb1>
   13412:	b8 00 00 00 00       	mov    $0x0,%eax
   13417:	e8 64 4c ff ff       	callq  8080 <printf@plt>
   1341c:	83 45 f0 01          	addl   $0x1,-0x10(%rbp)
   13420:	83 7d f0 05          	cmpl   $0x5,-0x10(%rbp)
   13424:	7e b5                	jle    133db <main+0x508>
   13426:	0f b6 05 71 62 00 00 	movzbl 0x6271(%rip),%eax        # 1969e <g_223>
   1342d:	0f b6 c0             	movzbl %al,%eax
   13430:	8b 55 fc             	mov    -0x4(%rbp),%edx
   13433:	48 8d 35 20 2d 00 00 	lea    0x2d20(%rip),%rsi        # 1615a <g_1636+0xf6a>
   1343a:	48 89 c7             	mov    %rax,%rdi
   1343d:	e8 b1 62 ff ff       	callq  96f3 <transparent_crc>
   13442:	c7 45 f0 00 00 00 00 	movl   $0x0,-0x10(%rbp)
   13449:	eb 4d                	jmp    13498 <main+0x5c5>
   1344b:	8b 45 f0             	mov    -0x10(%rbp),%eax
   1344e:	48 98                	cltq   
   13450:	48 8d 14 85 00 00 00 	lea    0x0(,%rax,4),%rdx
   13457:	00 
   13458:	48 8d 05 41 62 00 00 	lea    0x6241(%rip),%rax        # 196a0 <g_241>
   1345f:	8b 04 02             	mov    (%rdx,%rax,1),%eax
   13462:	89 c1                	mov    %eax,%ecx
   13464:	8b 45 fc             	mov    -0x4(%rbp),%eax
   13467:	89 c2                	mov    %eax,%edx
   13469:	48 8d 35 f0 2c 00 00 	lea    0x2cf0(%rip),%rsi        # 16160 <g_1636+0xf70>
   13470:	48 89 cf             	mov    %rcx,%rdi
   13473:	e8 7b 62 ff ff       	callq  96f3 <transparent_crc>
   13478:	83 7d fc 00          	cmpl   $0x0,-0x4(%rbp)
   1347c:	74 16                	je     13494 <main+0x5c1>
   1347e:	8b 45 f0             	mov    -0x10(%rbp),%eax
   13481:	89 c6                	mov    %eax,%esi
   13483:	48 8d 3d 17 2c 00 00 	lea    0x2c17(%rip),%rdi        # 160a1 <g_1636+0xeb1>
   1348a:	b8 00 00 00 00       	mov    $0x0,%eax
   1348f:	e8 ec 4b ff ff       	callq  8080 <printf@plt>
   13494:	83 45 f0 01          	addl   $0x1,-0x10(%rbp)
   13498:	83 7d f0 09          	cmpl   $0x9,-0x10(%rbp)
   1349c:	7e ad                	jle    1344b <main+0x578>
   1349e:	0f b6 05 23 62 00 00 	movzbl 0x6223(%rip),%eax        # 196c8 <g_264>
   134a5:	0f b6 c0             	movzbl %al,%eax
   134a8:	8b 55 fc             	mov    -0x4(%rbp),%edx
   134ab:	48 8d 35 b7 2c 00 00 	lea    0x2cb7(%rip),%rsi        # 16169 <g_1636+0xf79>
   134b2:	48 89 c7             	mov    %rax,%rdi
   134b5:	e8 39 62 ff ff       	callq  96f3 <transparent_crc>
   134ba:	8b 05 0c 62 00 00    	mov    0x620c(%rip),%eax        # 196cc <g_318>
   134c0:	89 c1                	mov    %eax,%ecx
   134c2:	8b 45 fc             	mov    -0x4(%rbp),%eax
   134c5:	89 c2                	mov    %eax,%edx
   134c7:	48 8d 35 a1 2c 00 00 	lea    0x2ca1(%rip),%rsi        # 1616f <g_1636+0xf7f>
   134ce:	48 89 cf             	mov    %rcx,%rdi
   134d1:	e8 1d 62 ff ff       	callq  96f3 <transparent_crc>
   134d6:	48 8b 05 f3 61 00 00 	mov    0x61f3(%rip),%rax        # 196d0 <g_333>
   134dd:	c1 e0 07             	shl    $0x7,%eax
   134e0:	c1 f8 07             	sar    $0x7,%eax
   134e3:	48 98                	cltq   
   134e5:	8b 55 fc             	mov    -0x4(%rbp),%edx
   134e8:	48 8d 35 86 2c 00 00 	lea    0x2c86(%rip),%rsi        # 16175 <g_1636+0xf85>
   134ef:	48 89 c7             	mov    %rax,%rdi
   134f2:	e8 fc 61 ff ff       	callq  96f3 <transparent_crc>
   134f7:	48 8b 05 d2 61 00 00 	mov    0x61d2(%rip),%rax        # 196d0 <g_333>
   134fe:	48 c1 e8 19          	shr    $0x19,%rax
   13502:	66 25 ff 03          	and    $0x3ff,%ax
   13506:	0f b7 c0             	movzwl %ax,%eax
   13509:	8b 55 fc             	mov    -0x4(%rbp),%edx
   1350c:	48 8d 35 6b 2c 00 00 	lea    0x2c6b(%rip),%rsi        # 1617e <g_1636+0xf8e>
   13513:	48 89 c7             	mov    %rax,%rdi
   13516:	e8 d8 61 ff ff       	callq  96f3 <transparent_crc>
   1351b:	0f b6 05 b2 61 00 00 	movzbl 0x61b2(%rip),%eax        # 196d4 <g_333+0x4>
   13522:	c0 e8 03             	shr    $0x3,%al
   13525:	83 e0 0f             	and    $0xf,%eax
   13528:	0f b6 c0             	movzbl %al,%eax
   1352b:	8b 55 fc             	mov    -0x4(%rbp),%edx
   1352e:	48 8d 35 52 2c 00 00 	lea    0x2c52(%rip),%rsi        # 16187 <g_1636+0xf97>
   13535:	48 89 c7             	mov    %rax,%rdi
   13538:	e8 b6 61 ff ff       	callq  96f3 <transparent_crc>
   1353d:	48 8b 05 94 61 00 00 	mov    0x6194(%rip),%rax        # 196d8 <g_333+0x8>
   13544:	01 c0                	add    %eax,%eax
   13546:	66 d1 f8             	sar    %ax
   13549:	48 0f bf c0          	movswq %ax,%rax
   1354d:	8b 55 fc             	mov    -0x4(%rbp),%edx
   13550:	48 8d 35 39 2c 00 00 	lea    0x2c39(%rip),%rsi        # 16190 <g_1636+0xfa0>
   13557:	48 89 c7             	mov    %rax,%rdi
   1355a:	e8 94 61 ff ff       	callq  96f3 <transparent_crc>
   1355f:	8b 05 73 61 00 00    	mov    0x6173(%rip),%eax        # 196d8 <g_333+0x8>
   13565:	c1 e8 0f             	shr    $0xf,%eax
   13568:	66 25 ff 03          	and    $0x3ff,%ax
   1356c:	0f b7 c0             	movzwl %ax,%eax
   1356f:	8b 55 fc             	mov    -0x4(%rbp),%edx
   13572:	48 8d 35 20 2c 00 00 	lea    0x2c20(%rip),%rsi        # 16199 <g_1636+0xfa9>
   13579:	48 89 c7             	mov    %rax,%rdi
   1357c:	e8 72 61 ff ff       	callq  96f3 <transparent_crc>
   13581:	48 8b 05 50 61 00 00 	mov    0x6150(%rip),%rax        # 196d8 <g_333+0x8>
   13588:	48 c1 e8 20          	shr    $0x20,%rax
   1358c:	25 ff ff 1f 00       	and    $0x1fffff,%eax
   13591:	89 c1                	mov    %eax,%ecx
   13593:	8b 45 fc             	mov    -0x4(%rbp),%eax
   13596:	89 c2                	mov    %eax,%edx
   13598:	48 8d 35 03 2c 00 00 	lea    0x2c03(%rip),%rsi        # 161a2 <g_1636+0xfb2>
   1359f:	48 89 cf             	mov    %rcx,%rdi
   135a2:	e8 4c 61 ff ff       	callq  96f3 <transparent_crc>
   135a7:	0f b7 05 30 61 00 00 	movzwl 0x6130(%rip),%eax        # 196de <g_333+0xe>
   135ae:	c1 e0 06             	shl    $0x6,%eax
   135b1:	66 c1 f8 0b          	sar    $0xb,%ax
   135b5:	48 0f be c0          	movsbq %al,%rax
   135b9:	8b 55 fc             	mov    -0x4(%rbp),%edx
   135bc:	48 8d 35 e8 2b 00 00 	lea    0x2be8(%rip),%rsi        # 161ab <g_1636+0xfbb>
   135c3:	48 89 c7             	mov    %rax,%rdi
   135c6:	e8 28 61 ff ff       	callq  96f3 <transparent_crc>
   135cb:	0f b6 05 0e 61 00 00 	movzbl 0x610e(%rip),%eax        # 196e0 <g_333+0x10>
   135d2:	0f b6 c0             	movzbl %al,%eax
   135d5:	8b 55 fc             	mov    -0x4(%rbp),%edx
   135d8:	48 8d 35 d5 2b 00 00 	lea    0x2bd5(%rip),%rsi        # 161b4 <g_1636+0xfc4>
   135df:	48 89 c7             	mov    %rax,%rdi
   135e2:	e8 0c 61 ff ff       	callq  96f3 <transparent_crc>
   135e7:	48 b8 24 1b 94 52 ce 	movabs $0xfeeabdce52941b24,%rax
   135ee:	bd ea fe 
   135f1:	48 89 c1             	mov    %rax,%rcx
   135f4:	8b 45 fc             	mov    -0x4(%rbp),%eax
   135f7:	89 c2                	mov    %eax,%edx
   135f9:	48 8d 35 bd 2b 00 00 	lea    0x2bbd(%rip),%rsi        # 161bd <g_1636+0xfcd>
   13600:	48 89 cf             	mov    %rcx,%rdi
   13603:	e8 eb 60 ff ff       	callq  96f3 <transparent_crc>
   13608:	48 8b 05 d9 60 00 00 	mov    0x60d9(%rip),%rax        # 196e8 <g_402>
   1360f:	8b 55 fc             	mov    -0x4(%rbp),%edx
   13612:	48 8d 35 aa 2b 00 00 	lea    0x2baa(%rip),%rsi        # 161c3 <g_1636+0xfd3>
   13619:	48 89 c7             	mov    %rax,%rdi
   1361c:	e8 d2 60 ff ff       	callq  96f3 <transparent_crc>
   13621:	0f b6 05 c8 60 00 00 	movzbl 0x60c8(%rip),%eax        # 196f0 <g_403>
   13628:	48 0f be c0          	movsbq %al,%rax
   1362c:	8b 55 fc             	mov    -0x4(%rbp),%edx
   1362f:	48 8d 35 93 2b 00 00 	lea    0x2b93(%rip),%rsi        # 161c9 <g_1636+0xfd9>
   13636:	48 89 c7             	mov    %rax,%rdi
   13639:	e8 b5 60 ff ff       	callq  96f3 <transparent_crc>
   1363e:	0f b6 05 ac 60 00 00 	movzbl 0x60ac(%rip),%eax        # 196f1 <g_426>
   13645:	0f b6 c0             	movzbl %al,%eax
   13648:	8b 55 fc             	mov    -0x4(%rbp),%edx
   1364b:	48 8d 35 7d 2b 00 00 	lea    0x2b7d(%rip),%rsi        # 161cf <g_1636+0xfdf>
   13652:	48 89 c7             	mov    %rax,%rdi
   13655:	e8 99 60 ff ff       	callq  96f3 <transparent_crc>
   1365a:	c7 45 f0 00 00 00 00 	movl   $0x0,-0x10(%rbp)
   13661:	e9 06 03 00 00       	jmpq   1396c <main+0xa99>
   13666:	c7 45 f4 00 00 00 00 	movl   $0x0,-0xc(%rbp)
   1366d:	e9 ec 02 00 00       	jmpq   1395e <main+0xa8b>
   13672:	8b 45 f4             	mov    -0xc(%rbp),%eax
   13675:	48 63 d0             	movslq %eax,%rdx
   13678:	8b 45 f0             	mov    -0x10(%rbp),%eax
   1367b:	48 63 c8             	movslq %eax,%rcx
   1367e:	48 89 d0             	mov    %rdx,%rax
   13681:	48 c1 e0 04          	shl    $0x4,%rax
   13685:	48 01 d0             	add    %rdx,%rax
   13688:	48 6b d1 77          	imul   $0x77,%rcx,%rdx
   1368c:	48 01 c2             	add    %rax,%rdx
   1368f:	48 8d 05 ca 19 00 00 	lea    0x19ca(%rip),%rax        # 15060 <g_463>
   13696:	48 01 d0             	add    %rdx,%rax
   13699:	0f b6 10             	movzbl (%rax),%edx
   1369c:	0f b6 d2             	movzbl %dl,%edx
   1369f:	0f b6 48 01          	movzbl 0x1(%rax),%ecx
   136a3:	0f b6 c9             	movzbl %cl,%ecx
   136a6:	48 c1 e1 08          	shl    $0x8,%rcx
   136aa:	48 09 d1             	or     %rdx,%rcx
   136ad:	0f b6 50 02          	movzbl 0x2(%rax),%edx
   136b1:	0f b6 d2             	movzbl %dl,%edx
   136b4:	48 c1 e2 10          	shl    $0x10,%rdx
   136b8:	48 09 ca             	or     %rcx,%rdx
   136bb:	0f b6 40 03          	movzbl 0x3(%rax),%eax
   136bf:	0f b6 c0             	movzbl %al,%eax
   136c2:	83 e0 01             	and    $0x1,%eax
   136c5:	48 c1 e0 18          	shl    $0x18,%rax
   136c9:	48 09 d0             	or     %rdx,%rax
   136cc:	48 c1 e0 27          	shl    $0x27,%rax
   136d0:	48 c1 f8 27          	sar    $0x27,%rax
   136d4:	48 98                	cltq   
   136d6:	8b 55 fc             	mov    -0x4(%rbp),%edx
   136d9:	48 8d 35 f5 2a 00 00 	lea    0x2af5(%rip),%rsi        # 161d5 <g_1636+0xfe5>
   136e0:	48 89 c7             	mov    %rax,%rdi
   136e3:	e8 0b 60 ff ff       	callq  96f3 <transparent_crc>
   136e8:	8b 45 f4             	mov    -0xc(%rbp),%eax
   136eb:	48 63 d0             	movslq %eax,%rdx
   136ee:	8b 45 f0             	mov    -0x10(%rbp),%eax
   136f1:	48 63 c8             	movslq %eax,%rcx
   136f4:	48 89 d0             	mov    %rdx,%rax
   136f7:	48 c1 e0 04          	shl    $0x4,%rax
   136fb:	48 01 d0             	add    %rdx,%rax
   136fe:	48 6b d1 77          	imul   $0x77,%rcx,%rdx
   13702:	48 01 c2             	add    %rax,%rdx
   13705:	48 8d 05 54 19 00 00 	lea    0x1954(%rip),%rax        # 15060 <g_463>
   1370c:	48 01 d0             	add    %rdx,%rax
   1370f:	0f b6 50 03          	movzbl 0x3(%rax),%edx
   13713:	d0 ea                	shr    %dl
   13715:	0f b6 d2             	movzbl %dl,%edx
   13718:	0f b6 40 04          	movzbl 0x4(%rax),%eax
   1371c:	83 e0 07             	and    $0x7,%eax
   1371f:	48 c1 e0 07          	shl    $0x7,%rax
   13723:	48 09 d0             	or     %rdx,%rax
   13726:	0f b7 c0             	movzwl %ax,%eax
   13729:	8b 55 fc             	mov    -0x4(%rbp),%edx
   1372c:	48 8d 35 b1 2a 00 00 	lea    0x2ab1(%rip),%rsi        # 161e4 <g_1636+0xff4>
   13733:	48 89 c7             	mov    %rax,%rdi
   13736:	e8 b8 5f ff ff       	callq  96f3 <transparent_crc>
   1373b:	8b 45 f4             	mov    -0xc(%rbp),%eax
   1373e:	48 63 d0             	movslq %eax,%rdx
   13741:	8b 45 f0             	mov    -0x10(%rbp),%eax
   13744:	48 63 c8             	movslq %eax,%rcx
   13747:	48 89 d0             	mov    %rdx,%rax
   1374a:	48 c1 e0 04          	shl    $0x4,%rax
   1374e:	48 01 d0             	add    %rdx,%rax
   13751:	48 6b d1 77          	imul   $0x77,%rcx,%rdx
   13755:	48 01 c2             	add    %rax,%rdx
   13758:	48 8d 05 01 19 00 00 	lea    0x1901(%rip),%rax        # 15060 <g_463>
   1375f:	48 01 d0             	add    %rdx,%rax
   13762:	0f b6 40 04          	movzbl 0x4(%rax),%eax
   13766:	c0 e8 03             	shr    $0x3,%al
   13769:	83 e0 0f             	and    $0xf,%eax
   1376c:	0f b6 c0             	movzbl %al,%eax
   1376f:	8b 55 fc             	mov    -0x4(%rbp),%edx
   13772:	48 8d 35 7a 2a 00 00 	lea    0x2a7a(%rip),%rsi        # 161f3 <g_1636+0x1003>
   13779:	48 89 c7             	mov    %rax,%rdi
   1377c:	e8 72 5f ff ff       	callq  96f3 <transparent_crc>
   13781:	8b 45 f4             	mov    -0xc(%rbp),%eax
   13784:	48 63 d0             	movslq %eax,%rdx
   13787:	8b 45 f0             	mov    -0x10(%rbp),%eax
   1378a:	48 63 c8             	movslq %eax,%rcx
   1378d:	48 89 d0             	mov    %rdx,%rax
   13790:	48 c1 e0 04          	shl    $0x4,%rax
   13794:	48 01 d0             	add    %rdx,%rax
   13797:	48 6b d1 77          	imul   $0x77,%rcx,%rdx
   1379b:	48 01 c2             	add    %rax,%rdx
   1379e:	48 8d 05 bb 18 00 00 	lea    0x18bb(%rip),%rax        # 15060 <g_463>
   137a5:	48 01 d0             	add    %rdx,%rax
   137a8:	0f b6 50 08          	movzbl 0x8(%rax),%edx
   137ac:	0f b6 d2             	movzbl %dl,%edx
   137af:	0f b6 40 09          	movzbl 0x9(%rax),%eax
   137b3:	0f b6 c0             	movzbl %al,%eax
   137b6:	83 e0 7f             	and    $0x7f,%eax
   137b9:	48 c1 e0 08          	shl    $0x8,%rax
   137bd:	48 09 d0             	or     %rdx,%rax
   137c0:	48 c1 e0 31          	shl    $0x31,%rax
   137c4:	48 c1 f8 31          	sar    $0x31,%rax
   137c8:	48 0f bf c0          	movswq %ax,%rax
   137cc:	8b 55 fc             	mov    -0x4(%rbp),%edx
   137cf:	48 8d 35 2c 2a 00 00 	lea    0x2a2c(%rip),%rsi        # 16202 <g_1636+0x1012>
   137d6:	48 89 c7             	mov    %rax,%rdi
   137d9:	e8 15 5f ff ff       	callq  96f3 <transparent_crc>
   137de:	8b 45 f4             	mov    -0xc(%rbp),%eax
   137e1:	48 63 d0             	movslq %eax,%rdx
   137e4:	8b 45 f0             	mov    -0x10(%rbp),%eax
   137e7:	48 63 c8             	movslq %eax,%rcx
   137ea:	48 89 d0             	mov    %rdx,%rax
   137ed:	48 c1 e0 04          	shl    $0x4,%rax
   137f1:	48 01 d0             	add    %rdx,%rax
   137f4:	48 6b d1 77          	imul   $0x77,%rcx,%rdx
   137f8:	48 01 c2             	add    %rax,%rdx
   137fb:	48 8d 05 5e 18 00 00 	lea    0x185e(%rip),%rax        # 15060 <g_463>
   13802:	48 01 d0             	add    %rdx,%rax
   13805:	0f b6 50 09          	movzbl 0x9(%rax),%edx
   13809:	c0 ea 07             	shr    $0x7,%dl
   1380c:	0f b6 d2             	movzbl %dl,%edx
   1380f:	0f b6 48 0a          	movzbl 0xa(%rax),%ecx
   13813:	48 01 c9             	add    %rcx,%rcx
   13816:	48 09 ca             	or     %rcx,%rdx
   13819:	0f b6 40 0b          	movzbl 0xb(%rax),%eax
   1381d:	83 e0 01             	and    $0x1,%eax
   13820:	48 c1 e0 09          	shl    $0x9,%rax
   13824:	48 09 d0             	or     %rdx,%rax
   13827:	0f b7 c0             	movzwl %ax,%eax
   1382a:	8b 55 fc             	mov    -0x4(%rbp),%edx
   1382d:	48 8d 35 dd 29 00 00 	lea    0x29dd(%rip),%rsi        # 16211 <g_1636+0x1021>
   13834:	48 89 c7             	mov    %rax,%rdi
   13837:	e8 b7 5e ff ff       	callq  96f3 <transparent_crc>
   1383c:	8b 45 f4             	mov    -0xc(%rbp),%eax
   1383f:	48 63 d0             	movslq %eax,%rdx
   13842:	8b 45 f0             	mov    -0x10(%rbp),%eax
   13845:	48 63 c8             	movslq %eax,%rcx
   13848:	48 89 d0             	mov    %rdx,%rax
   1384b:	48 c1 e0 04          	shl    $0x4,%rax
   1384f:	48 01 d0             	add    %rdx,%rax
   13852:	48 6b d1 77          	imul   $0x77,%rcx,%rdx
   13856:	48 01 c2             	add    %rax,%rdx
   13859:	48 8d 05 00 18 00 00 	lea    0x1800(%rip),%rax        # 15060 <g_463>
   13860:	48 01 d0             	add    %rdx,%rax
   13863:	0f b6 50 0c          	movzbl 0xc(%rax),%edx
   13867:	0f b6 d2             	movzbl %dl,%edx
   1386a:	0f b6 48 0d          	movzbl 0xd(%rax),%ecx
   1386e:	0f b6 c9             	movzbl %cl,%ecx
   13871:	48 c1 e1 08          	shl    $0x8,%rcx
   13875:	48 09 ca             	or     %rcx,%rdx
   13878:	0f b6 40 0e          	movzbl 0xe(%rax),%eax
   1387c:	0f b6 c0             	movzbl %al,%eax
   1387f:	83 e0 1f             	and    $0x1f,%eax
   13882:	48 c1 e0 10          	shl    $0x10,%rax
   13886:	48 09 d0             	or     %rdx,%rax
   13889:	89 c1                	mov    %eax,%ecx
   1388b:	8b 45 fc             	mov    -0x4(%rbp),%eax
   1388e:	89 c2                	mov    %eax,%edx
   13890:	48 8d 35 89 29 00 00 	lea    0x2989(%rip),%rsi        # 16220 <g_1636+0x1030>
   13897:	48 89 cf             	mov    %rcx,%rdi
   1389a:	e8 54 5e ff ff       	callq  96f3 <transparent_crc>
   1389f:	8b 45 f4             	mov    -0xc(%rbp),%eax
   138a2:	48 63 d0             	movslq %eax,%rdx
   138a5:	8b 45 f0             	mov    -0x10(%rbp),%eax
   138a8:	48 63 c8             	movslq %eax,%rcx
   138ab:	48 89 d0             	mov    %rdx,%rax
   138ae:	48 c1 e0 04          	shl    $0x4,%rax
   138b2:	48 01 d0             	add    %rdx,%rax
   138b5:	48 6b d1 77          	imul   $0x77,%rcx,%rdx
   138b9:	48 01 c2             	add    %rax,%rdx
   138bc:	48 8d 05 9d 17 00 00 	lea    0x179d(%rip),%rax        # 15060 <g_463>
   138c3:	48 01 d0             	add    %rdx,%rax
   138c6:	0f b6 50 0e          	movzbl 0xe(%rax),%edx
   138ca:	c0 ea 05             	shr    $0x5,%dl
   138cd:	0f b6 d2             	movzbl %dl,%edx
   138d0:	0f b6 40 0f          	movzbl 0xf(%rax),%eax
   138d4:	83 e0 03             	and    $0x3,%eax
   138d7:	48 c1 e0 03          	shl    $0x3,%rax
   138db:	48 09 d0             	or     %rdx,%rax
   138de:	48 c1 e0 3b          	shl    $0x3b,%rax
   138e2:	48 c1 f8 3b          	sar    $0x3b,%rax
   138e6:	48 0f be c0          	movsbq %al,%rax
   138ea:	8b 55 fc             	mov    -0x4(%rbp),%edx
   138ed:	48 8d 35 3b 29 00 00 	lea    0x293b(%rip),%rsi        # 1622f <g_1636+0x103f>
   138f4:	48 89 c7             	mov    %rax,%rdi
   138f7:	e8 f7 5d ff ff       	callq  96f3 <transparent_crc>
   138fc:	8b 45 f4             	mov    -0xc(%rbp),%eax
   138ff:	48 63 d0             	movslq %eax,%rdx
   13902:	8b 45 f0             	mov    -0x10(%rbp),%eax
   13905:	48 63 c8             	movslq %eax,%rcx
   13908:	48 89 d0             	mov    %rdx,%rax
   1390b:	48 c1 e0 04          	shl    $0x4,%rax
   1390f:	48 01 d0             	add    %rdx,%rax
   13912:	48 6b d1 77          	imul   $0x77,%rcx,%rdx
   13916:	48 01 c2             	add    %rax,%rdx
   13919:	48 8d 05 50 17 00 00 	lea    0x1750(%rip),%rax        # 15070 <g_463+0x10>
   13920:	48 01 d0             	add    %rdx,%rax
   13923:	0f b6 00             	movzbl (%rax),%eax
   13926:	0f b6 c0             	movzbl %al,%eax
   13929:	8b 55 fc             	mov    -0x4(%rbp),%edx
   1392c:	48 8d 35 0b 29 00 00 	lea    0x290b(%rip),%rsi        # 1623e <g_1636+0x104e>
   13933:	48 89 c7             	mov    %rax,%rdi
   13936:	e8 b8 5d ff ff       	callq  96f3 <transparent_crc>
   1393b:	83 7d fc 00          	cmpl   $0x0,-0x4(%rbp)
   1393f:	74 19                	je     1395a <main+0xa87>
   13941:	8b 55 f4             	mov    -0xc(%rbp),%edx
   13944:	8b 45 f0             	mov    -0x10(%rbp),%eax
   13947:	89 c6                	mov    %eax,%esi
   13949:	48 8d 3d a0 27 00 00 	lea    0x27a0(%rip),%rdi        # 160f0 <g_1636+0xf00>
   13950:	b8 00 00 00 00       	mov    $0x0,%eax
   13955:	e8 26 47 ff ff       	callq  8080 <printf@plt>
   1395a:	83 45 f4 01          	addl   $0x1,-0xc(%rbp)
   1395e:	83 7d f4 06          	cmpl   $0x6,-0xc(%rbp)
   13962:	0f 8e 0a fd ff ff    	jle    13672 <main+0x79f>
   13968:	83 45 f0 01          	addl   $0x1,-0x10(%rbp)
   1396c:	83 7d f0 01          	cmpl   $0x1,-0x10(%rbp)
   13970:	0f 8e f0 fc ff ff    	jle    13666 <main+0x793>
   13976:	c7 45 f0 00 00 00 00 	movl   $0x0,-0x10(%rbp)
   1397d:	eb 77                	jmp    139f6 <main+0xb23>
   1397f:	c7 45 f4 00 00 00 00 	movl   $0x0,-0xc(%rbp)
   13986:	eb 64                	jmp    139ec <main+0xb19>
   13988:	8b 45 f4             	mov    -0xc(%rbp),%eax
   1398b:	48 63 c8             	movslq %eax,%rcx
   1398e:	8b 45 f0             	mov    -0x10(%rbp),%eax
   13991:	48 63 d0             	movslq %eax,%rdx
   13994:	48 89 d0             	mov    %rdx,%rax
   13997:	48 c1 e0 03          	shl    $0x3,%rax
   1399b:	48 01 d0             	add    %rdx,%rax
   1399e:	48 01 c8             	add    %rcx,%rax
   139a1:	48 8d 14 85 00 00 00 	lea    0x0(,%rax,4),%rdx
   139a8:	00 
   139a9:	48 8d 05 50 5d 00 00 	lea    0x5d50(%rip),%rax        # 19700 <g_606>
   139b0:	8b 04 02             	mov    (%rdx,%rax,1),%eax
   139b3:	89 c1                	mov    %eax,%ecx
   139b5:	8b 45 fc             	mov    -0x4(%rbp),%eax
   139b8:	89 c2                	mov    %eax,%edx
   139ba:	48 8d 35 8c 28 00 00 	lea    0x288c(%rip),%rsi        # 1624d <g_1636+0x105d>
   139c1:	48 89 cf             	mov    %rcx,%rdi
   139c4:	e8 2a 5d ff ff       	callq  96f3 <transparent_crc>
   139c9:	83 7d fc 00          	cmpl   $0x0,-0x4(%rbp)
   139cd:	74 19                	je     139e8 <main+0xb15>
   139cf:	8b 55 f4             	mov    -0xc(%rbp),%edx
   139d2:	8b 45 f0             	mov    -0x10(%rbp),%eax
   139d5:	89 c6                	mov    %eax,%esi
   139d7:	48 8d 3d 12 27 00 00 	lea    0x2712(%rip),%rdi        # 160f0 <g_1636+0xf00>
   139de:	b8 00 00 00 00       	mov    $0x0,%eax
   139e3:	e8 98 46 ff ff       	callq  8080 <printf@plt>
   139e8:	83 45 f4 01          	addl   $0x1,-0xc(%rbp)
   139ec:	83 7d f4 08          	cmpl   $0x8,-0xc(%rbp)
   139f0:	7e 96                	jle    13988 <main+0xab5>
   139f2:	83 45 f0 01          	addl   $0x1,-0x10(%rbp)
   139f6:	83 7d f0 08          	cmpl   $0x8,-0x10(%rbp)
   139fa:	7e 83                	jle    1397f <main+0xaac>
   139fc:	0f b7 05 41 5e 00 00 	movzwl 0x5e41(%rip),%eax        # 19844 <g_618>
   13a03:	48 0f bf c0          	movswq %ax,%rax
   13a07:	8b 55 fc             	mov    -0x4(%rbp),%edx
   13a0a:	48 8d 35 48 28 00 00 	lea    0x2848(%rip),%rsi        # 16259 <g_1636+0x1069>
   13a11:	48 89 c7             	mov    %rax,%rdi
   13a14:	e8 da 5c ff ff       	callq  96f3 <transparent_crc>
   13a19:	48 8b 05 30 5e 00 00 	mov    0x5e30(%rip),%rax        # 19850 <g_669>
   13a20:	c1 e0 07             	shl    $0x7,%eax
   13a23:	c1 f8 07             	sar    $0x7,%eax
   13a26:	48 98                	cltq   
   13a28:	8b 55 fc             	mov    -0x4(%rbp),%edx
   13a2b:	48 8d 35 2d 28 00 00 	lea    0x282d(%rip),%rsi        # 1625f <g_1636+0x106f>
   13a32:	48 89 c7             	mov    %rax,%rdi
   13a35:	e8 b9 5c ff ff       	callq  96f3 <transparent_crc>
   13a3a:	48 8b 05 0f 5e 00 00 	mov    0x5e0f(%rip),%rax        # 19850 <g_669>
   13a41:	48 c1 e8 19          	shr    $0x19,%rax
   13a45:	66 25 ff 03          	and    $0x3ff,%ax
   13a49:	0f b7 c0             	movzwl %ax,%eax
   13a4c:	8b 55 fc             	mov    -0x4(%rbp),%edx
   13a4f:	48 8d 35 12 28 00 00 	lea    0x2812(%rip),%rsi        # 16268 <g_1636+0x1078>
   13a56:	48 89 c7             	mov    %rax,%rdi
   13a59:	e8 95 5c ff ff       	callq  96f3 <transparent_crc>
   13a5e:	48 8b 05 eb 5d 00 00 	mov    0x5deb(%rip),%rax        # 19850 <g_669>
   13a65:	48 c1 e8 23          	shr    $0x23,%rax
   13a69:	83 e0 0f             	and    $0xf,%eax
   13a6c:	0f b6 c0             	movzbl %al,%eax
   13a6f:	8b 55 fc             	mov    -0x4(%rbp),%edx
   13a72:	48 8d 35 f8 27 00 00 	lea    0x27f8(%rip),%rsi        # 16271 <g_1636+0x1081>
   13a79:	48 89 c7             	mov    %rax,%rdi
   13a7c:	e8 72 5c ff ff       	callq  96f3 <transparent_crc>
   13a81:	48 8b 05 d0 5d 00 00 	mov    0x5dd0(%rip),%rax        # 19858 <g_669+0x8>
   13a88:	01 c0                	add    %eax,%eax
   13a8a:	66 d1 f8             	sar    %ax
   13a8d:	48 0f bf c0          	movswq %ax,%rax
   13a91:	8b 55 fc             	mov    -0x4(%rbp),%edx
   13a94:	48 8d 35 df 27 00 00 	lea    0x27df(%rip),%rsi        # 1627a <g_1636+0x108a>
   13a9b:	48 89 c7             	mov    %rax,%rdi
   13a9e:	e8 50 5c ff ff       	callq  96f3 <transparent_crc>
   13aa3:	48 8b 05 ae 5d 00 00 	mov    0x5dae(%rip),%rax        # 19858 <g_669+0x8>
   13aaa:	48 c1 e8 0f          	shr    $0xf,%rax
   13aae:	66 25 ff 03          	and    $0x3ff,%ax
   13ab2:	0f b7 c0             	movzwl %ax,%eax
   13ab5:	8b 55 fc             	mov    -0x4(%rbp),%edx
   13ab8:	48 8d 35 c4 27 00 00 	lea    0x27c4(%rip),%rsi        # 16283 <g_1636+0x1093>
   13abf:	48 89 c7             	mov    %rax,%rdi
   13ac2:	e8 2c 5c ff ff       	callq  96f3 <transparent_crc>
   13ac7:	48 8b 05 8a 5d 00 00 	mov    0x5d8a(%rip),%rax        # 19858 <g_669+0x8>
   13ace:	48 c1 e8 20          	shr    $0x20,%rax
   13ad2:	25 ff ff 1f 00       	and    $0x1fffff,%eax
   13ad7:	89 c1                	mov    %eax,%ecx
   13ad9:	8b 45 fc             	mov    -0x4(%rbp),%eax
   13adc:	89 c2                	mov    %eax,%edx
   13ade:	48 8d 35 a7 27 00 00 	lea    0x27a7(%rip),%rsi        # 1628c <g_1636+0x109c>
   13ae5:	48 89 cf             	mov    %rcx,%rdi
   13ae8:	e8 06 5c ff ff       	callq  96f3 <transparent_crc>
   13aed:	48 8b 05 64 5d 00 00 	mov    0x5d64(%rip),%rax        # 19858 <g_669+0x8>
   13af4:	48 c1 e0 06          	shl    $0x6,%rax
   13af8:	48 c1 f8 3b          	sar    $0x3b,%rax
   13afc:	48 0f be c0          	movsbq %al,%rax
   13b00:	8b 55 fc             	mov    -0x4(%rbp),%edx
   13b03:	48 8d 35 8b 27 00 00 	lea    0x278b(%rip),%rsi        # 16295 <g_1636+0x10a5>
   13b0a:	48 89 c7             	mov    %rax,%rdi
   13b0d:	e8 e1 5b ff ff       	callq  96f3 <transparent_crc>
   13b12:	0f b6 05 47 5d 00 00 	movzbl 0x5d47(%rip),%eax        # 19860 <g_669+0x10>
   13b19:	0f b6 c0             	movzbl %al,%eax
   13b1c:	8b 55 fc             	mov    -0x4(%rbp),%edx
   13b1f:	48 8d 35 78 27 00 00 	lea    0x2778(%rip),%rsi        # 1629e <g_1636+0x10ae>
   13b26:	48 89 c7             	mov    %rax,%rdi
   13b29:	e8 c5 5b ff ff       	callq  96f3 <transparent_crc>
   13b2e:	48 8b 05 3b 5d 00 00 	mov    0x5d3b(%rip),%rax        # 19870 <g_729>
   13b35:	c1 e0 07             	shl    $0x7,%eax
   13b38:	c1 f8 07             	sar    $0x7,%eax
   13b3b:	48 98                	cltq   
   13b3d:	8b 55 fc             	mov    -0x4(%rbp),%edx
   13b40:	48 8d 35 60 27 00 00 	lea    0x2760(%rip),%rsi        # 162a7 <g_1636+0x10b7>
   13b47:	48 89 c7             	mov    %rax,%rdi
   13b4a:	e8 a4 5b ff ff       	callq  96f3 <transparent_crc>
   13b4f:	48 8b 05 1a 5d 00 00 	mov    0x5d1a(%rip),%rax        # 19870 <g_729>
   13b56:	48 c1 e8 19          	shr    $0x19,%rax
   13b5a:	66 25 ff 03          	and    $0x3ff,%ax
   13b5e:	0f b7 c0             	movzwl %ax,%eax
   13b61:	8b 55 fc             	mov    -0x4(%rbp),%edx
   13b64:	48 8d 35 45 27 00 00 	lea    0x2745(%rip),%rsi        # 162b0 <g_1636+0x10c0>
   13b6b:	48 89 c7             	mov    %rax,%rdi
   13b6e:	e8 80 5b ff ff       	callq  96f3 <transparent_crc>
   13b73:	0f b6 05 fa 5c 00 00 	movzbl 0x5cfa(%rip),%eax        # 19874 <g_729+0x4>
   13b7a:	c0 e8 03             	shr    $0x3,%al
   13b7d:	83 e0 0f             	and    $0xf,%eax
   13b80:	0f b6 c0             	movzbl %al,%eax
   13b83:	8b 55 fc             	mov    -0x4(%rbp),%edx
   13b86:	48 8d 35 2c 27 00 00 	lea    0x272c(%rip),%rsi        # 162b9 <g_1636+0x10c9>
   13b8d:	48 89 c7             	mov    %rax,%rdi
   13b90:	e8 5e 5b ff ff       	callq  96f3 <transparent_crc>
   13b95:	48 8b 05 dc 5c 00 00 	mov    0x5cdc(%rip),%rax        # 19878 <g_729+0x8>
   13b9c:	01 c0                	add    %eax,%eax
   13b9e:	66 d1 f8             	sar    %ax
   13ba1:	48 0f bf c0          	movswq %ax,%rax
   13ba5:	8b 55 fc             	mov    -0x4(%rbp),%edx
   13ba8:	48 8d 35 13 27 00 00 	lea    0x2713(%rip),%rsi        # 162c2 <g_1636+0x10d2>
   13baf:	48 89 c7             	mov    %rax,%rdi
   13bb2:	e8 3c 5b ff ff       	callq  96f3 <transparent_crc>
   13bb7:	8b 05 bb 5c 00 00    	mov    0x5cbb(%rip),%eax        # 19878 <g_729+0x8>
   13bbd:	c1 e8 0f             	shr    $0xf,%eax
   13bc0:	66 25 ff 03          	and    $0x3ff,%ax
   13bc4:	0f b7 c0             	movzwl %ax,%eax
   13bc7:	8b 55 fc             	mov    -0x4(%rbp),%edx
   13bca:	48 8d 35 fa 26 00 00 	lea    0x26fa(%rip),%rsi        # 162cb <g_1636+0x10db>
   13bd1:	48 89 c7             	mov    %rax,%rdi
   13bd4:	e8 1a 5b ff ff       	callq  96f3 <transparent_crc>
   13bd9:	48 8b 05 98 5c 00 00 	mov    0x5c98(%rip),%rax        # 19878 <g_729+0x8>
   13be0:	48 c1 e8 20          	shr    $0x20,%rax
   13be4:	25 ff ff 1f 00       	and    $0x1fffff,%eax
   13be9:	89 c1                	mov    %eax,%ecx
   13beb:	8b 45 fc             	mov    -0x4(%rbp),%eax
   13bee:	89 c2                	mov    %eax,%edx
   13bf0:	48 8d 35 dd 26 00 00 	lea    0x26dd(%rip),%rsi        # 162d4 <g_1636+0x10e4>
   13bf7:	48 89 cf             	mov    %rcx,%rdi
   13bfa:	e8 f4 5a ff ff       	callq  96f3 <transparent_crc>
   13bff:	0f b7 05 78 5c 00 00 	movzwl 0x5c78(%rip),%eax        # 1987e <g_729+0xe>
   13c06:	c1 e0 06             	shl    $0x6,%eax
   13c09:	66 c1 f8 0b          	sar    $0xb,%ax
   13c0d:	48 0f be c0          	movsbq %al,%rax
   13c11:	8b 55 fc             	mov    -0x4(%rbp),%edx
   13c14:	48 8d 35 c2 26 00 00 	lea    0x26c2(%rip),%rsi        # 162dd <g_1636+0x10ed>
   13c1b:	48 89 c7             	mov    %rax,%rdi
   13c1e:	e8 d0 5a ff ff       	callq  96f3 <transparent_crc>
   13c23:	0f b6 05 56 5c 00 00 	movzbl 0x5c56(%rip),%eax        # 19880 <g_729+0x10>
   13c2a:	0f b6 c0             	movzbl %al,%eax
   13c2d:	8b 55 fc             	mov    -0x4(%rbp),%edx
   13c30:	48 8d 35 af 26 00 00 	lea    0x26af(%rip),%rsi        # 162e6 <g_1636+0x10f6>
   13c37:	48 89 c7             	mov    %rax,%rdi
   13c3a:	e8 b4 5a ff ff       	callq  96f3 <transparent_crc>
   13c3f:	c7 45 f0 00 00 00 00 	movl   $0x0,-0x10(%rbp)
   13c46:	eb 6c                	jmp    13cb4 <main+0xde1>
   13c48:	c7 45 f4 00 00 00 00 	movl   $0x0,-0xc(%rbp)
   13c4f:	eb 59                	jmp    13caa <main+0xdd7>
   13c51:	8b 45 f4             	mov    -0xc(%rbp),%eax
   13c54:	48 63 d0             	movslq %eax,%rdx
   13c57:	8b 45 f0             	mov    -0x10(%rbp),%eax
   13c5a:	48 98                	cltq   
   13c5c:	48 01 d0             	add    %rdx,%rax
   13c5f:	48 8d 14 85 00 00 00 	lea    0x0(,%rax,4),%rdx
   13c66:	00 
   13c67:	48 8d 05 16 5c 00 00 	lea    0x5c16(%rip),%rax        # 19884 <g_784>
   13c6e:	8b 04 02             	mov    (%rdx,%rax,1),%eax
   13c71:	89 c1                	mov    %eax,%ecx
   13c73:	8b 45 fc             	mov    -0x4(%rbp),%eax
   13c76:	89 c2                	mov    %eax,%edx
   13c78:	48 8d 35 70 26 00 00 	lea    0x2670(%rip),%rsi        # 162ef <g_1636+0x10ff>
   13c7f:	48 89 cf             	mov    %rcx,%rdi
   13c82:	e8 6c 5a ff ff       	callq  96f3 <transparent_crc>
   13c87:	83 7d fc 00          	cmpl   $0x0,-0x4(%rbp)
   13c8b:	74 19                	je     13ca6 <main+0xdd3>
   13c8d:	8b 55 f4             	mov    -0xc(%rbp),%edx
   13c90:	8b 45 f0             	mov    -0x10(%rbp),%eax
   13c93:	89 c6                	mov    %eax,%esi
   13c95:	48 8d 3d 54 24 00 00 	lea    0x2454(%rip),%rdi        # 160f0 <g_1636+0xf00>
   13c9c:	b8 00 00 00 00       	mov    $0x0,%eax
   13ca1:	e8 da 43 ff ff       	callq  8080 <printf@plt>
   13ca6:	83 45 f4 01          	addl   $0x1,-0xc(%rbp)
   13caa:	83 7d f4 00          	cmpl   $0x0,-0xc(%rbp)
   13cae:	7e a1                	jle    13c51 <main+0xd7e>
   13cb0:	83 45 f0 01          	addl   $0x1,-0x10(%rbp)
   13cb4:	83 7d f0 00          	cmpl   $0x0,-0x10(%rbp)
   13cb8:	7e 8e                	jle    13c48 <main+0xd75>
   13cba:	48 8b 05 cf 5b 00 00 	mov    0x5bcf(%rip),%rax        # 19890 <g_863>
   13cc1:	c1 e0 07             	shl    $0x7,%eax
   13cc4:	c1 f8 07             	sar    $0x7,%eax
   13cc7:	48 98                	cltq   
   13cc9:	8b 55 fc             	mov    -0x4(%rbp),%edx
   13ccc:	48 8d 35 28 26 00 00 	lea    0x2628(%rip),%rsi        # 162fb <g_1636+0x110b>
   13cd3:	48 89 c7             	mov    %rax,%rdi
   13cd6:	e8 18 5a ff ff       	callq  96f3 <transparent_crc>
   13cdb:	48 8b 05 ae 5b 00 00 	mov    0x5bae(%rip),%rax        # 19890 <g_863>
   13ce2:	48 c1 e8 19          	shr    $0x19,%rax
   13ce6:	66 25 ff 03          	and    $0x3ff,%ax
   13cea:	0f b7 c0             	movzwl %ax,%eax
   13ced:	8b 55 fc             	mov    -0x4(%rbp),%edx
   13cf0:	48 8d 35 0d 26 00 00 	lea    0x260d(%rip),%rsi        # 16304 <g_1636+0x1114>
   13cf7:	48 89 c7             	mov    %rax,%rdi
   13cfa:	e8 f4 59 ff ff       	callq  96f3 <transparent_crc>
   13cff:	48 8b 05 8a 5b 00 00 	mov    0x5b8a(%rip),%rax        # 19890 <g_863>
   13d06:	48 c1 e8 23          	shr    $0x23,%rax
   13d0a:	83 e0 0f             	and    $0xf,%eax
   13d0d:	0f b6 c0             	movzbl %al,%eax
   13d10:	8b 55 fc             	mov    -0x4(%rbp),%edx
   13d13:	48 8d 35 f3 25 00 00 	lea    0x25f3(%rip),%rsi        # 1630d <g_1636+0x111d>
   13d1a:	48 89 c7             	mov    %rax,%rdi
   13d1d:	e8 d1 59 ff ff       	callq  96f3 <transparent_crc>
   13d22:	48 8b 05 6f 5b 00 00 	mov    0x5b6f(%rip),%rax        # 19898 <g_863+0x8>
   13d29:	01 c0                	add    %eax,%eax
   13d2b:	66 d1 f8             	sar    %ax
   13d2e:	48 0f bf c0          	movswq %ax,%rax
   13d32:	8b 55 fc             	mov    -0x4(%rbp),%edx
   13d35:	48 8d 35 da 25 00 00 	lea    0x25da(%rip),%rsi        # 16316 <g_1636+0x1126>
   13d3c:	48 89 c7             	mov    %rax,%rdi
   13d3f:	e8 af 59 ff ff       	callq  96f3 <transparent_crc>
   13d44:	48 8b 05 4d 5b 00 00 	mov    0x5b4d(%rip),%rax        # 19898 <g_863+0x8>
   13d4b:	48 c1 e8 0f          	shr    $0xf,%rax
   13d4f:	66 25 ff 03          	and    $0x3ff,%ax
   13d53:	0f b7 c0             	movzwl %ax,%eax
   13d56:	8b 55 fc             	mov    -0x4(%rbp),%edx
   13d59:	48 8d 35 bf 25 00 00 	lea    0x25bf(%rip),%rsi        # 1631f <g_1636+0x112f>
   13d60:	48 89 c7             	mov    %rax,%rdi
   13d63:	e8 8b 59 ff ff       	callq  96f3 <transparent_crc>
   13d68:	48 8b 05 29 5b 00 00 	mov    0x5b29(%rip),%rax        # 19898 <g_863+0x8>
   13d6f:	48 c1 e8 20          	shr    $0x20,%rax
   13d73:	25 ff ff 1f 00       	and    $0x1fffff,%eax
   13d78:	89 c1                	mov    %eax,%ecx
   13d7a:	8b 45 fc             	mov    -0x4(%rbp),%eax
   13d7d:	89 c2                	mov    %eax,%edx
   13d7f:	48 8d 35 a2 25 00 00 	lea    0x25a2(%rip),%rsi        # 16328 <g_1636+0x1138>
   13d86:	48 89 cf             	mov    %rcx,%rdi
   13d89:	e8 65 59 ff ff       	callq  96f3 <transparent_crc>
   13d8e:	48 8b 05 03 5b 00 00 	mov    0x5b03(%rip),%rax        # 19898 <g_863+0x8>
   13d95:	48 c1 e0 06          	shl    $0x6,%rax
   13d99:	48 c1 f8 3b          	sar    $0x3b,%rax
   13d9d:	48 0f be c0          	movsbq %al,%rax
   13da1:	8b 55 fc             	mov    -0x4(%rbp),%edx
   13da4:	48 8d 35 86 25 00 00 	lea    0x2586(%rip),%rsi        # 16331 <g_1636+0x1141>
   13dab:	48 89 c7             	mov    %rax,%rdi
   13dae:	e8 40 59 ff ff       	callq  96f3 <transparent_crc>
   13db3:	0f b6 05 e6 5a 00 00 	movzbl 0x5ae6(%rip),%eax        # 198a0 <g_863+0x10>
   13dba:	0f b6 c0             	movzbl %al,%eax
   13dbd:	8b 55 fc             	mov    -0x4(%rbp),%edx
   13dc0:	48 8d 35 73 25 00 00 	lea    0x2573(%rip),%rsi        # 1633a <g_1636+0x114a>
   13dc7:	48 89 c7             	mov    %rax,%rdi
   13dca:	e8 24 59 ff ff       	callq  96f3 <transparent_crc>
   13dcf:	8b 05 cf 5a 00 00    	mov    0x5acf(%rip),%eax        # 198a4 <g_1010>
   13dd5:	48 98                	cltq   
   13dd7:	8b 55 fc             	mov    -0x4(%rbp),%edx
   13dda:	48 8d 35 62 25 00 00 	lea    0x2562(%rip),%rsi        # 16343 <g_1636+0x1153>
   13de1:	48 89 c7             	mov    %rax,%rdi
   13de4:	e8 0a 59 ff ff       	callq  96f3 <transparent_crc>
   13de9:	c7 45 f0 00 00 00 00 	movl   $0x0,-0x10(%rbp)
   13df0:	e9 7d 02 00 00       	jmpq   14072 <main+0x119f>
   13df5:	8b 45 f0             	mov    -0x10(%rbp),%eax
   13df8:	48 63 d0             	movslq %eax,%rdx
   13dfb:	48 89 d0             	mov    %rdx,%rax
   13dfe:	48 c1 e0 04          	shl    $0x4,%rax
   13e02:	48 01 c2             	add    %rax,%rdx
   13e05:	48 8d 05 b4 5a 00 00 	lea    0x5ab4(%rip),%rax        # 198c0 <g_1072>
   13e0c:	0f b6 0c 02          	movzbl (%rdx,%rax,1),%ecx
   13e10:	0f b6 c9             	movzbl %cl,%ecx
   13e13:	0f b6 74 02 01       	movzbl 0x1(%rdx,%rax,1),%esi
   13e18:	40 0f b6 f6          	movzbl %sil,%esi
   13e1c:	48 c1 e6 08          	shl    $0x8,%rsi
   13e20:	48 09 ce             	or     %rcx,%rsi
   13e23:	0f b6 4c 02 02       	movzbl 0x2(%rdx,%rax,1),%ecx
   13e28:	0f b6 c9             	movzbl %cl,%ecx
   13e2b:	48 c1 e1 10          	shl    $0x10,%rcx
   13e2f:	48 09 f1             	or     %rsi,%rcx
   13e32:	0f b6 44 02 03       	movzbl 0x3(%rdx,%rax,1),%eax
   13e37:	0f b6 c0             	movzbl %al,%eax
   13e3a:	83 e0 01             	and    $0x1,%eax
   13e3d:	48 c1 e0 18          	shl    $0x18,%rax
   13e41:	48 09 c8             	or     %rcx,%rax
   13e44:	48 c1 e0 27          	shl    $0x27,%rax
   13e48:	48 c1 f8 27          	sar    $0x27,%rax
   13e4c:	48 98                	cltq   
   13e4e:	8b 55 fc             	mov    -0x4(%rbp),%edx
   13e51:	48 8d 35 f2 24 00 00 	lea    0x24f2(%rip),%rsi        # 1634a <g_1636+0x115a>
   13e58:	48 89 c7             	mov    %rax,%rdi
   13e5b:	e8 93 58 ff ff       	callq  96f3 <transparent_crc>
   13e60:	8b 45 f0             	mov    -0x10(%rbp),%eax
   13e63:	48 63 d0             	movslq %eax,%rdx
   13e66:	48 89 d0             	mov    %rdx,%rax
   13e69:	48 c1 e0 04          	shl    $0x4,%rax
   13e6d:	48 01 c2             	add    %rax,%rdx
   13e70:	48 8d 05 49 5a 00 00 	lea    0x5a49(%rip),%rax        # 198c0 <g_1072>
   13e77:	0f b6 4c 02 03       	movzbl 0x3(%rdx,%rax,1),%ecx
   13e7c:	d0 e9                	shr    %cl
   13e7e:	0f b6 c9             	movzbl %cl,%ecx
   13e81:	0f b6 44 02 04       	movzbl 0x4(%rdx,%rax,1),%eax
   13e86:	83 e0 07             	and    $0x7,%eax
   13e89:	48 c1 e0 07          	shl    $0x7,%rax
   13e8d:	48 09 c8             	or     %rcx,%rax
   13e90:	0f b7 c0             	movzwl %ax,%eax
   13e93:	8b 55 fc             	mov    -0x4(%rbp),%edx
   13e96:	48 8d 35 ba 24 00 00 	lea    0x24ba(%rip),%rsi        # 16357 <g_1636+0x1167>
   13e9d:	48 89 c7             	mov    %rax,%rdi
   13ea0:	e8 4e 58 ff ff       	callq  96f3 <transparent_crc>
   13ea5:	8b 45 f0             	mov    -0x10(%rbp),%eax
   13ea8:	48 63 d0             	movslq %eax,%rdx
   13eab:	48 89 d0             	mov    %rdx,%rax
   13eae:	48 c1 e0 04          	shl    $0x4,%rax
   13eb2:	48 01 c2             	add    %rax,%rdx
   13eb5:	48 8d 05 04 5a 00 00 	lea    0x5a04(%rip),%rax        # 198c0 <g_1072>
   13ebc:	0f b6 44 02 04       	movzbl 0x4(%rdx,%rax,1),%eax
   13ec1:	c0 e8 03             	shr    $0x3,%al
   13ec4:	83 e0 0f             	and    $0xf,%eax
   13ec7:	0f b6 c0             	movzbl %al,%eax
   13eca:	8b 55 fc             	mov    -0x4(%rbp),%edx
   13ecd:	48 8d 35 90 24 00 00 	lea    0x2490(%rip),%rsi        # 16364 <g_1636+0x1174>
   13ed4:	48 89 c7             	mov    %rax,%rdi
   13ed7:	e8 17 58 ff ff       	callq  96f3 <transparent_crc>
   13edc:	8b 45 f0             	mov    -0x10(%rbp),%eax
   13edf:	48 63 d0             	movslq %eax,%rdx
   13ee2:	48 89 d0             	mov    %rdx,%rax
   13ee5:	48 c1 e0 04          	shl    $0x4,%rax
   13ee9:	48 01 c2             	add    %rax,%rdx
   13eec:	48 8d 05 cd 59 00 00 	lea    0x59cd(%rip),%rax        # 198c0 <g_1072>
   13ef3:	0f b6 4c 02 08       	movzbl 0x8(%rdx,%rax,1),%ecx
   13ef8:	0f b6 c9             	movzbl %cl,%ecx
   13efb:	0f b6 44 02 09       	movzbl 0x9(%rdx,%rax,1),%eax
   13f00:	0f b6 c0             	movzbl %al,%eax
   13f03:	83 e0 7f             	and    $0x7f,%eax
   13f06:	48 c1 e0 08          	shl    $0x8,%rax
   13f0a:	48 09 c8             	or     %rcx,%rax
   13f0d:	48 c1 e0 31          	shl    $0x31,%rax
   13f11:	48 c1 f8 31          	sar    $0x31,%rax
   13f15:	48 0f bf c0          	movswq %ax,%rax
   13f19:	8b 55 fc             	mov    -0x4(%rbp),%edx
   13f1c:	48 8d 35 4e 24 00 00 	lea    0x244e(%rip),%rsi        # 16371 <g_1636+0x1181>
   13f23:	48 89 c7             	mov    %rax,%rdi
   13f26:	e8 c8 57 ff ff       	callq  96f3 <transparent_crc>
   13f2b:	8b 45 f0             	mov    -0x10(%rbp),%eax
   13f2e:	48 63 d0             	movslq %eax,%rdx
   13f31:	48 89 d0             	mov    %rdx,%rax
   13f34:	48 c1 e0 04          	shl    $0x4,%rax
   13f38:	48 01 c2             	add    %rax,%rdx
   13f3b:	48 8d 05 7e 59 00 00 	lea    0x597e(%rip),%rax        # 198c0 <g_1072>
   13f42:	0f b6 4c 02 09       	movzbl 0x9(%rdx,%rax,1),%ecx
   13f47:	c0 e9 07             	shr    $0x7,%cl
   13f4a:	0f b6 c9             	movzbl %cl,%ecx
   13f4d:	0f b6 74 02 0a       	movzbl 0xa(%rdx,%rax,1),%esi
   13f52:	48 01 f6             	add    %rsi,%rsi
   13f55:	48 09 f1             	or     %rsi,%rcx
   13f58:	0f b6 44 02 0b       	movzbl 0xb(%rdx,%rax,1),%eax
   13f5d:	83 e0 01             	and    $0x1,%eax
   13f60:	48 c1 e0 09          	shl    $0x9,%rax
   13f64:	48 09 c8             	or     %rcx,%rax
   13f67:	0f b7 c0             	movzwl %ax,%eax
   13f6a:	8b 55 fc             	mov    -0x4(%rbp),%edx
   13f6d:	48 8d 35 0a 24 00 00 	lea    0x240a(%rip),%rsi        # 1637e <g_1636+0x118e>
   13f74:	48 89 c7             	mov    %rax,%rdi
   13f77:	e8 77 57 ff ff       	callq  96f3 <transparent_crc>
   13f7c:	8b 45 f0             	mov    -0x10(%rbp),%eax
   13f7f:	48 63 d0             	movslq %eax,%rdx
   13f82:	48 89 d0             	mov    %rdx,%rax
   13f85:	48 c1 e0 04          	shl    $0x4,%rax
   13f89:	48 01 c2             	add    %rax,%rdx
   13f8c:	48 8d 05 2d 59 00 00 	lea    0x592d(%rip),%rax        # 198c0 <g_1072>
   13f93:	0f b6 4c 02 0c       	movzbl 0xc(%rdx,%rax,1),%ecx
   13f98:	0f b6 c9             	movzbl %cl,%ecx
   13f9b:	0f b6 74 02 0d       	movzbl 0xd(%rdx,%rax,1),%esi
   13fa0:	40 0f b6 f6          	movzbl %sil,%esi
   13fa4:	48 c1 e6 08          	shl    $0x8,%rsi
   13fa8:	48 09 f1             	or     %rsi,%rcx
   13fab:	0f b6 44 02 0e       	movzbl 0xe(%rdx,%rax,1),%eax
   13fb0:	0f b6 c0             	movzbl %al,%eax
   13fb3:	83 e0 1f             	and    $0x1f,%eax
   13fb6:	48 c1 e0 10          	shl    $0x10,%rax
   13fba:	48 09 c8             	or     %rcx,%rax
   13fbd:	89 c1                	mov    %eax,%ecx
   13fbf:	8b 45 fc             	mov    -0x4(%rbp),%eax
   13fc2:	89 c2                	mov    %eax,%edx
   13fc4:	48 8d 35 c0 23 00 00 	lea    0x23c0(%rip),%rsi        # 1638b <g_1636+0x119b>
   13fcb:	48 89 cf             	mov    %rcx,%rdi
   13fce:	e8 20 57 ff ff       	callq  96f3 <transparent_crc>
   13fd3:	8b 45 f0             	mov    -0x10(%rbp),%eax
   13fd6:	48 63 d0             	movslq %eax,%rdx
   13fd9:	48 89 d0             	mov    %rdx,%rax
   13fdc:	48 c1 e0 04          	shl    $0x4,%rax
   13fe0:	48 01 c2             	add    %rax,%rdx
   13fe3:	48 8d 05 d6 58 00 00 	lea    0x58d6(%rip),%rax        # 198c0 <g_1072>
   13fea:	0f b6 4c 02 0e       	movzbl 0xe(%rdx,%rax,1),%ecx
   13fef:	c0 e9 05             	shr    $0x5,%cl
   13ff2:	0f b6 c9             	movzbl %cl,%ecx
   13ff5:	0f b6 44 02 0f       	movzbl 0xf(%rdx,%rax,1),%eax
   13ffa:	83 e0 03             	and    $0x3,%eax
   13ffd:	48 c1 e0 03          	shl    $0x3,%rax
   14001:	48 09 c8             	or     %rcx,%rax
   14004:	48 c1 e0 3b          	shl    $0x3b,%rax
   14008:	48 c1 f8 3b          	sar    $0x3b,%rax
   1400c:	48 0f be c0          	movsbq %al,%rax
   14010:	8b 55 fc             	mov    -0x4(%rbp),%edx
   14013:	48 8d 35 7e 23 00 00 	lea    0x237e(%rip),%rsi        # 16398 <g_1636+0x11a8>
   1401a:	48 89 c7             	mov    %rax,%rdi
   1401d:	e8 d1 56 ff ff       	callq  96f3 <transparent_crc>
   14022:	8b 45 f0             	mov    -0x10(%rbp),%eax
   14025:	48 63 d0             	movslq %eax,%rdx
   14028:	48 89 d0             	mov    %rdx,%rax
   1402b:	48 c1 e0 04          	shl    $0x4,%rax
   1402f:	48 01 c2             	add    %rax,%rdx
   14032:	48 8d 05 97 58 00 00 	lea    0x5897(%rip),%rax        # 198d0 <g_1072+0x10>
   14039:	0f b6 04 02          	movzbl (%rdx,%rax,1),%eax
   1403d:	0f b6 c0             	movzbl %al,%eax
   14040:	8b 55 fc             	mov    -0x4(%rbp),%edx
   14043:	48 8d 35 5b 23 00 00 	lea    0x235b(%rip),%rsi        # 163a5 <g_1636+0x11b5>
   1404a:	48 89 c7             	mov    %rax,%rdi
   1404d:	e8 a1 56 ff ff       	callq  96f3 <transparent_crc>
   14052:	83 7d fc 00          	cmpl   $0x0,-0x4(%rbp)
   14056:	74 16                	je     1406e <main+0x119b>
   14058:	8b 45 f0             	mov    -0x10(%rbp),%eax
   1405b:	89 c6                	mov    %eax,%esi
   1405d:	48 8d 3d 3d 20 00 00 	lea    0x203d(%rip),%rdi        # 160a1 <g_1636+0xeb1>
   14064:	b8 00 00 00 00       	mov    $0x0,%eax
   14069:	e8 12 40 ff ff       	callq  8080 <printf@plt>
   1406e:	83 45 f0 01          	addl   $0x1,-0x10(%rbp)
   14072:	83 7d f0 02          	cmpl   $0x2,-0x10(%rbp)
   14076:	0f 8e 79 fd ff ff    	jle    13df5 <main+0xf22>
   1407c:	b9 01 00 00 00       	mov    $0x1,%ecx
   14081:	8b 45 fc             	mov    -0x4(%rbp),%eax
   14084:	89 c2                	mov    %eax,%edx
   14086:	48 8d 35 25 23 00 00 	lea    0x2325(%rip),%rsi        # 163b2 <g_1636+0x11c2>
   1408d:	48 89 cf             	mov    %rcx,%rdi
   14090:	e8 5e 56 ff ff       	callq  96f3 <transparent_crc>
   14095:	c7 45 f0 00 00 00 00 	movl   $0x0,-0x10(%rbp)
   1409c:	e9 8a 02 00 00       	jmpq   1432b <main+0x1458>
   140a1:	8b 45 f0             	mov    -0x10(%rbp),%eax
   140a4:	48 63 d0             	movslq %eax,%rdx
   140a7:	48 89 d0             	mov    %rdx,%rax
   140aa:	48 c1 e0 04          	shl    $0x4,%rax
   140ae:	48 01 c2             	add    %rax,%rdx
   140b1:	48 8d 05 48 58 00 00 	lea    0x5848(%rip),%rax        # 19900 <g_1261>
   140b8:	0f b6 0c 02          	movzbl (%rdx,%rax,1),%ecx
   140bc:	0f b6 c9             	movzbl %cl,%ecx
   140bf:	0f b6 74 02 01       	movzbl 0x1(%rdx,%rax,1),%esi
   140c4:	40 0f b6 f6          	movzbl %sil,%esi
   140c8:	48 c1 e6 08          	shl    $0x8,%rsi
   140cc:	48 09 ce             	or     %rcx,%rsi
   140cf:	0f b6 4c 02 02       	movzbl 0x2(%rdx,%rax,1),%ecx
   140d4:	0f b6 c9             	movzbl %cl,%ecx
   140d7:	48 c1 e1 10          	shl    $0x10,%rcx
   140db:	48 09 f1             	or     %rsi,%rcx
   140de:	0f b6 44 02 03       	movzbl 0x3(%rdx,%rax,1),%eax
   140e3:	0f b6 c0             	movzbl %al,%eax
   140e6:	83 e0 01             	and    $0x1,%eax
   140e9:	48 c1 e0 18          	shl    $0x18,%rax
   140ed:	48 09 c8             	or     %rcx,%rax
   140f0:	48 c1 e0 27          	shl    $0x27,%rax
   140f4:	48 c1 f8 27          	sar    $0x27,%rax
   140f8:	48 98                	cltq   
   140fa:	8b 55 fc             	mov    -0x4(%rbp),%edx
   140fd:	48 8d 35 b5 22 00 00 	lea    0x22b5(%rip),%rsi        # 163b9 <g_1636+0x11c9>
   14104:	48 89 c7             	mov    %rax,%rdi
   14107:	e8 e7 55 ff ff       	callq  96f3 <transparent_crc>
   1410c:	8b 45 f0             	mov    -0x10(%rbp),%eax
   1410f:	48 63 d0             	movslq %eax,%rdx
   14112:	48 89 d0             	mov    %rdx,%rax
   14115:	48 c1 e0 04          	shl    $0x4,%rax
   14119:	48 01 c2             	add    %rax,%rdx
   1411c:	48 8d 05 dd 57 00 00 	lea    0x57dd(%rip),%rax        # 19900 <g_1261>
   14123:	0f b6 4c 02 03       	movzbl 0x3(%rdx,%rax,1),%ecx
   14128:	d0 e9                	shr    %cl
   1412a:	0f b6 c9             	movzbl %cl,%ecx
   1412d:	0f b6 44 02 04       	movzbl 0x4(%rdx,%rax,1),%eax
   14132:	0f b6 c0             	movzbl %al,%eax
   14135:	83 e0 07             	and    $0x7,%eax
   14138:	48 c1 e0 07          	shl    $0x7,%rax
   1413c:	48 09 c8             	or     %rcx,%rax
   1413f:	0f b7 c0             	movzwl %ax,%eax
   14142:	8b 55 fc             	mov    -0x4(%rbp),%edx
   14145:	48 8d 35 7a 22 00 00 	lea    0x227a(%rip),%rsi        # 163c6 <g_1636+0x11d6>
   1414c:	48 89 c7             	mov    %rax,%rdi
   1414f:	e8 9f 55 ff ff       	callq  96f3 <transparent_crc>
   14154:	8b 45 f0             	mov    -0x10(%rbp),%eax
   14157:	48 63 d0             	movslq %eax,%rdx
   1415a:	48 89 d0             	mov    %rdx,%rax
   1415d:	48 c1 e0 04          	shl    $0x4,%rax
   14161:	48 01 c2             	add    %rax,%rdx
   14164:	48 8d 05 95 57 00 00 	lea    0x5795(%rip),%rax        # 19900 <g_1261>
   1416b:	0f b6 44 02 04       	movzbl 0x4(%rdx,%rax,1),%eax
   14170:	c0 e8 03             	shr    $0x3,%al
   14173:	83 e0 0f             	and    $0xf,%eax
   14176:	0f b6 c0             	movzbl %al,%eax
   14179:	8b 55 fc             	mov    -0x4(%rbp),%edx
   1417c:	48 8d 35 50 22 00 00 	lea    0x2250(%rip),%rsi        # 163d3 <g_1636+0x11e3>
   14183:	48 89 c7             	mov    %rax,%rdi
   14186:	e8 68 55 ff ff       	callq  96f3 <transparent_crc>
   1418b:	8b 45 f0             	mov    -0x10(%rbp),%eax
   1418e:	48 63 d0             	movslq %eax,%rdx
   14191:	48 89 d0             	mov    %rdx,%rax
   14194:	48 c1 e0 04          	shl    $0x4,%rax
   14198:	48 01 c2             	add    %rax,%rdx
   1419b:	48 8d 05 5e 57 00 00 	lea    0x575e(%rip),%rax        # 19900 <g_1261>
   141a2:	0f b6 4c 02 08       	movzbl 0x8(%rdx,%rax,1),%ecx
   141a7:	0f b6 c9             	movzbl %cl,%ecx
   141aa:	0f b6 44 02 09       	movzbl 0x9(%rdx,%rax,1),%eax
   141af:	0f b6 c0             	movzbl %al,%eax
   141b2:	83 e0 7f             	and    $0x7f,%eax
   141b5:	48 c1 e0 08          	shl    $0x8,%rax
   141b9:	48 09 c8             	or     %rcx,%rax
   141bc:	48 c1 e0 31          	shl    $0x31,%rax
   141c0:	48 c1 f8 31          	sar    $0x31,%rax
   141c4:	48 0f bf c0          	movswq %ax,%rax
   141c8:	8b 55 fc             	mov    -0x4(%rbp),%edx
   141cb:	48 8d 35 0e 22 00 00 	lea    0x220e(%rip),%rsi        # 163e0 <g_1636+0x11f0>
   141d2:	48 89 c7             	mov    %rax,%rdi
   141d5:	e8 19 55 ff ff       	callq  96f3 <transparent_crc>
   141da:	8b 45 f0             	mov    -0x10(%rbp),%eax
   141dd:	48 63 d0             	movslq %eax,%rdx
   141e0:	48 89 d0             	mov    %rdx,%rax
   141e3:	48 c1 e0 04          	shl    $0x4,%rax
   141e7:	48 01 c2             	add    %rax,%rdx
   141ea:	48 8d 05 0f 57 00 00 	lea    0x570f(%rip),%rax        # 19900 <g_1261>
   141f1:	0f b6 4c 02 09       	movzbl 0x9(%rdx,%rax,1),%ecx
   141f6:	c0 e9 07             	shr    $0x7,%cl
   141f9:	0f b6 c9             	movzbl %cl,%ecx
   141fc:	0f b6 74 02 0a       	movzbl 0xa(%rdx,%rax,1),%esi
   14201:	40 0f b6 f6          	movzbl %sil,%esi
   14205:	48 01 f6             	add    %rsi,%rsi
   14208:	48 09 f1             	or     %rsi,%rcx
   1420b:	0f b6 44 02 0b       	movzbl 0xb(%rdx,%rax,1),%eax
   14210:	0f b6 c0             	movzbl %al,%eax
   14213:	83 e0 01             	and    $0x1,%eax
   14216:	48 c1 e0 09          	shl    $0x9,%rax
   1421a:	48 09 c8             	or     %rcx,%rax
   1421d:	0f b7 c0             	movzwl %ax,%eax
   14220:	8b 55 fc             	mov    -0x4(%rbp),%edx
   14223:	48 8d 35 c3 21 00 00 	lea    0x21c3(%rip),%rsi        # 163ed <g_1636+0x11fd>
   1422a:	48 89 c7             	mov    %rax,%rdi
   1422d:	e8 c1 54 ff ff       	callq  96f3 <transparent_crc>
   14232:	8b 45 f0             	mov    -0x10(%rbp),%eax
   14235:	48 63 d0             	movslq %eax,%rdx
   14238:	48 89 d0             	mov    %rdx,%rax
   1423b:	48 c1 e0 04          	shl    $0x4,%rax
   1423f:	48 01 c2             	add    %rax,%rdx
   14242:	48 8d 05 b7 56 00 00 	lea    0x56b7(%rip),%rax        # 19900 <g_1261>
   14249:	0f b6 4c 02 0c       	movzbl 0xc(%rdx,%rax,1),%ecx
   1424e:	0f b6 c9             	movzbl %cl,%ecx
   14251:	0f b6 74 02 0d       	movzbl 0xd(%rdx,%rax,1),%esi
   14256:	40 0f b6 f6          	movzbl %sil,%esi
   1425a:	48 c1 e6 08          	shl    $0x8,%rsi
   1425e:	48 09 f1             	or     %rsi,%rcx
   14261:	0f b6 44 02 0e       	movzbl 0xe(%rdx,%rax,1),%eax
   14266:	0f b6 c0             	movzbl %al,%eax
   14269:	83 e0 1f             	and    $0x1f,%eax
   1426c:	48 c1 e0 10          	shl    $0x10,%rax
   14270:	48 09 c8             	or     %rcx,%rax
   14273:	89 c1                	mov    %eax,%ecx
   14275:	8b 45 fc             	mov    -0x4(%rbp),%eax
   14278:	89 c2                	mov    %eax,%edx
   1427a:	48 8d 35 79 21 00 00 	lea    0x2179(%rip),%rsi        # 163fa <g_1636+0x120a>
   14281:	48 89 cf             	mov    %rcx,%rdi
   14284:	e8 6a 54 ff ff       	callq  96f3 <transparent_crc>
   14289:	8b 45 f0             	mov    -0x10(%rbp),%eax
   1428c:	48 63 d0             	movslq %eax,%rdx
   1428f:	48 89 d0             	mov    %rdx,%rax
   14292:	48 c1 e0 04          	shl    $0x4,%rax
   14296:	48 01 c2             	add    %rax,%rdx
   14299:	48 8d 05 60 56 00 00 	lea    0x5660(%rip),%rax        # 19900 <g_1261>
   142a0:	0f b6 4c 02 0e       	movzbl 0xe(%rdx,%rax,1),%ecx
   142a5:	c0 e9 05             	shr    $0x5,%cl
   142a8:	0f b6 c9             	movzbl %cl,%ecx
   142ab:	0f b6 44 02 0f       	movzbl 0xf(%rdx,%rax,1),%eax
   142b0:	0f b6 c0             	movzbl %al,%eax
   142b3:	83 e0 03             	and    $0x3,%eax
   142b6:	48 c1 e0 03          	shl    $0x3,%rax
   142ba:	48 09 c8             	or     %rcx,%rax
   142bd:	48 c1 e0 3b          	shl    $0x3b,%rax
   142c1:	48 c1 f8 3b          	sar    $0x3b,%rax
   142c5:	48 0f be c0          	movsbq %al,%rax
   142c9:	8b 55 fc             	mov    -0x4(%rbp),%edx
   142cc:	48 8d 35 34 21 00 00 	lea    0x2134(%rip),%rsi        # 16407 <g_1636+0x1217>
   142d3:	48 89 c7             	mov    %rax,%rdi
   142d6:	e8 18 54 ff ff       	callq  96f3 <transparent_crc>
   142db:	8b 45 f0             	mov    -0x10(%rbp),%eax
   142de:	48 63 d0             	movslq %eax,%rdx
   142e1:	48 89 d0             	mov    %rdx,%rax
   142e4:	48 c1 e0 04          	shl    $0x4,%rax
   142e8:	48 01 c2             	add    %rax,%rdx
   142eb:	48 8d 05 1e 56 00 00 	lea    0x561e(%rip),%rax        # 19910 <g_1261+0x10>
   142f2:	0f b6 04 02          	movzbl (%rdx,%rax,1),%eax
   142f6:	0f b6 c0             	movzbl %al,%eax
   142f9:	8b 55 fc             	mov    -0x4(%rbp),%edx
   142fc:	48 8d 35 11 21 00 00 	lea    0x2111(%rip),%rsi        # 16414 <g_1636+0x1224>
   14303:	48 89 c7             	mov    %rax,%rdi
   14306:	e8 e8 53 ff ff       	callq  96f3 <transparent_crc>
   1430b:	83 7d fc 00          	cmpl   $0x0,-0x4(%rbp)
   1430f:	74 16                	je     14327 <main+0x1454>
   14311:	8b 45 f0             	mov    -0x10(%rbp),%eax
   14314:	89 c6                	mov    %eax,%esi
   14316:	48 8d 3d 84 1d 00 00 	lea    0x1d84(%rip),%rdi        # 160a1 <g_1636+0xeb1>
   1431d:	b8 00 00 00 00       	mov    $0x0,%eax
   14322:	e8 59 3d ff ff       	callq  8080 <printf@plt>
   14327:	83 45 f0 01          	addl   $0x1,-0x10(%rbp)
   1432b:	83 7d f0 08          	cmpl   $0x8,-0x10(%rbp)
   1432f:	0f 8e 6c fd ff ff    	jle    140a1 <main+0x11ce>
   14335:	c7 45 f0 00 00 00 00 	movl   $0x0,-0x10(%rbp)
   1433c:	eb 46                	jmp    14384 <main+0x14b1>
   1433e:	8b 45 f0             	mov    -0x10(%rbp),%eax
   14341:	48 98                	cltq   
   14343:	48 8d 15 56 56 00 00 	lea    0x5656(%rip),%rdx        # 199a0 <g_1333>
   1434a:	0f b6 04 10          	movzbl (%rax,%rdx,1),%eax
   1434e:	48 0f be c0          	movsbq %al,%rax
   14352:	8b 55 fc             	mov    -0x4(%rbp),%edx
   14355:	48 8d 35 c5 20 00 00 	lea    0x20c5(%rip),%rsi        # 16421 <g_1636+0x1231>
   1435c:	48 89 c7             	mov    %rax,%rdi
   1435f:	e8 8f 53 ff ff       	callq  96f3 <transparent_crc>
   14364:	83 7d fc 00          	cmpl   $0x0,-0x4(%rbp)
   14368:	74 16                	je     14380 <main+0x14ad>
   1436a:	8b 45 f0             	mov    -0x10(%rbp),%eax
   1436d:	89 c6                	mov    %eax,%esi
   1436f:	48 8d 3d 2b 1d 00 00 	lea    0x1d2b(%rip),%rdi        # 160a1 <g_1636+0xeb1>
   14376:	b8 00 00 00 00       	mov    $0x0,%eax
   1437b:	e8 00 3d ff ff       	callq  8080 <printf@plt>
   14380:	83 45 f0 01          	addl   $0x1,-0x10(%rbp)
   14384:	83 7d f0 07          	cmpl   $0x7,-0x10(%rbp)
   14388:	7e b4                	jle    1433e <main+0x146b>
   1438a:	0f b6 05 17 56 00 00 	movzbl 0x5617(%rip),%eax        # 199a8 <g_1477>
   14391:	0f b6 c0             	movzbl %al,%eax
   14394:	8b 55 fc             	mov    -0x4(%rbp),%edx
   14397:	48 8d 35 8d 20 00 00 	lea    0x208d(%rip),%rsi        # 1642b <g_1636+0x123b>
   1439e:	48 89 c7             	mov    %rax,%rdi
   143a1:	e8 4d 53 ff ff       	callq  96f3 <transparent_crc>
   143a6:	b9 00 00 00 00       	mov    $0x0,%ecx
   143ab:	8b 45 fc             	mov    -0x4(%rbp),%eax
   143ae:	89 c2                	mov    %eax,%edx
   143b0:	48 8d 35 7b 20 00 00 	lea    0x207b(%rip),%rsi        # 16432 <g_1636+0x1242>
   143b7:	48 89 cf             	mov    %rcx,%rdi
   143ba:	e8 34 53 ff ff       	callq  96f3 <transparent_crc>
   143bf:	0f b6 05 e3 55 00 00 	movzbl 0x55e3(%rip),%eax        # 199a9 <g_1533>
   143c6:	48 0f be c0          	movsbq %al,%rax
   143ca:	8b 55 fc             	mov    -0x4(%rbp),%edx
   143cd:	48 8d 35 65 20 00 00 	lea    0x2065(%rip),%rsi        # 16439 <g_1636+0x1249>
   143d4:	48 89 c7             	mov    %rax,%rdi
   143d7:	e8 17 53 ff ff       	callq  96f3 <transparent_crc>
   143dc:	c7 45 f0 00 00 00 00 	movl   $0x0,-0x10(%rbp)
   143e3:	eb 77                	jmp    1445c <main+0x1589>
   143e5:	c7 45 f4 00 00 00 00 	movl   $0x0,-0xc(%rbp)
   143ec:	eb 64                	jmp    14452 <main+0x157f>
   143ee:	8b 45 f4             	mov    -0xc(%rbp),%eax
   143f1:	48 63 c8             	movslq %eax,%rcx
   143f4:	8b 45 f0             	mov    -0x10(%rbp),%eax
   143f7:	48 63 d0             	movslq %eax,%rdx
   143fa:	48 89 d0             	mov    %rdx,%rax
   143fd:	48 c1 e0 03          	shl    $0x3,%rax
   14401:	48 29 d0             	sub    %rdx,%rax
   14404:	48 01 c8             	add    %rcx,%rax
   14407:	48 8d 14 85 00 00 00 	lea    0x0(,%rax,4),%rdx
   1440e:	00 
   1440f:	48 8d 05 4a 0d 00 00 	lea    0xd4a(%rip),%rax        # 15160 <g_1559>
   14416:	8b 04 02             	mov    (%rdx,%rax,1),%eax
   14419:	89 c1                	mov    %eax,%ecx
   1441b:	8b 45 fc             	mov    -0x4(%rbp),%eax
   1441e:	89 c2                	mov    %eax,%edx
   14420:	48 8d 35 19 20 00 00 	lea    0x2019(%rip),%rsi        # 16440 <g_1636+0x1250>
   14427:	48 89 cf             	mov    %rcx,%rdi
   1442a:	e8 c4 52 ff ff       	callq  96f3 <transparent_crc>
   1442f:	83 7d fc 00          	cmpl   $0x0,-0x4(%rbp)
   14433:	74 19                	je     1444e <main+0x157b>
   14435:	8b 55 f4             	mov    -0xc(%rbp),%edx
   14438:	8b 45 f0             	mov    -0x10(%rbp),%eax
   1443b:	89 c6                	mov    %eax,%esi
   1443d:	48 8d 3d ac 1c 00 00 	lea    0x1cac(%rip),%rdi        # 160f0 <g_1636+0xf00>
   14444:	b8 00 00 00 00       	mov    $0x0,%eax
   14449:	e8 32 3c ff ff       	callq  8080 <printf@plt>
   1444e:	83 45 f4 01          	addl   $0x1,-0xc(%rbp)
   14452:	83 7d f4 06          	cmpl   $0x6,-0xc(%rbp)
   14456:	7e 96                	jle    143ee <main+0x151b>
   14458:	83 45 f0 01          	addl   $0x1,-0x10(%rbp)
   1445c:	83 7d f0 04          	cmpl   $0x4,-0x10(%rbp)
   14460:	7e 83                	jle    143e5 <main+0x1512>
   14462:	48 8b 05 47 55 00 00 	mov    0x5547(%rip),%rax        # 199b0 <g_1581>
   14469:	c1 e0 07             	shl    $0x7,%eax
   1446c:	c1 f8 07             	sar    $0x7,%eax
   1446f:	48 98                	cltq   
   14471:	8b 55 fc             	mov    -0x4(%rbp),%edx
   14474:	48 8d 35 d2 1f 00 00 	lea    0x1fd2(%rip),%rsi        # 1644d <g_1636+0x125d>
   1447b:	48 89 c7             	mov    %rax,%rdi
   1447e:	e8 70 52 ff ff       	callq  96f3 <transparent_crc>
   14483:	48 8b 05 26 55 00 00 	mov    0x5526(%rip),%rax        # 199b0 <g_1581>
   1448a:	48 c1 e8 19          	shr    $0x19,%rax
   1448e:	66 25 ff 03          	and    $0x3ff,%ax
   14492:	0f b7 c0             	movzwl %ax,%eax
   14495:	8b 55 fc             	mov    -0x4(%rbp),%edx
   14498:	48 8d 35 b8 1f 00 00 	lea    0x1fb8(%rip),%rsi        # 16457 <g_1636+0x1267>
   1449f:	48 89 c7             	mov    %rax,%rdi
   144a2:	e8 4c 52 ff ff       	callq  96f3 <transparent_crc>
   144a7:	0f b6 05 06 55 00 00 	movzbl 0x5506(%rip),%eax        # 199b4 <g_1581+0x4>
   144ae:	c0 e8 03             	shr    $0x3,%al
   144b1:	83 e0 0f             	and    $0xf,%eax
   144b4:	0f b6 c0             	movzbl %al,%eax
   144b7:	8b 55 fc             	mov    -0x4(%rbp),%edx
   144ba:	48 8d 35 a0 1f 00 00 	lea    0x1fa0(%rip),%rsi        # 16461 <g_1636+0x1271>
   144c1:	48 89 c7             	mov    %rax,%rdi
   144c4:	e8 2a 52 ff ff       	callq  96f3 <transparent_crc>
   144c9:	48 8b 05 e8 54 00 00 	mov    0x54e8(%rip),%rax        # 199b8 <g_1581+0x8>
   144d0:	01 c0                	add    %eax,%eax
   144d2:	66 d1 f8             	sar    %ax
   144d5:	48 0f bf c0          	movswq %ax,%rax
   144d9:	8b 55 fc             	mov    -0x4(%rbp),%edx
   144dc:	48 8d 35 88 1f 00 00 	lea    0x1f88(%rip),%rsi        # 1646b <g_1636+0x127b>
   144e3:	48 89 c7             	mov    %rax,%rdi
   144e6:	e8 08 52 ff ff       	callq  96f3 <transparent_crc>
   144eb:	8b 05 c7 54 00 00    	mov    0x54c7(%rip),%eax        # 199b8 <g_1581+0x8>
   144f1:	c1 e8 0f             	shr    $0xf,%eax
   144f4:	66 25 ff 03          	and    $0x3ff,%ax
   144f8:	0f b7 c0             	movzwl %ax,%eax
   144fb:	8b 55 fc             	mov    -0x4(%rbp),%edx
   144fe:	48 8d 35 70 1f 00 00 	lea    0x1f70(%rip),%rsi        # 16475 <g_1636+0x1285>
   14505:	48 89 c7             	mov    %rax,%rdi
   14508:	e8 e6 51 ff ff       	callq  96f3 <transparent_crc>
   1450d:	48 8b 05 a4 54 00 00 	mov    0x54a4(%rip),%rax        # 199b8 <g_1581+0x8>
   14514:	48 c1 e8 20          	shr    $0x20,%rax
   14518:	25 ff ff 1f 00       	and    $0x1fffff,%eax
   1451d:	89 c1                	mov    %eax,%ecx
   1451f:	8b 45 fc             	mov    -0x4(%rbp),%eax
   14522:	89 c2                	mov    %eax,%edx
   14524:	48 8d 35 54 1f 00 00 	lea    0x1f54(%rip),%rsi        # 1647f <g_1636+0x128f>
   1452b:	48 89 cf             	mov    %rcx,%rdi
   1452e:	e8 c0 51 ff ff       	callq  96f3 <transparent_crc>
   14533:	0f b7 05 84 54 00 00 	movzwl 0x5484(%rip),%eax        # 199be <g_1581+0xe>
   1453a:	c1 e0 06             	shl    $0x6,%eax
   1453d:	66 c1 f8 0b          	sar    $0xb,%ax
   14541:	48 0f be c0          	movsbq %al,%rax
   14545:	8b 55 fc             	mov    -0x4(%rbp),%edx
   14548:	48 8d 35 3a 1f 00 00 	lea    0x1f3a(%rip),%rsi        # 16489 <g_1636+0x1299>
   1454f:	48 89 c7             	mov    %rax,%rdi
   14552:	e8 9c 51 ff ff       	callq  96f3 <transparent_crc>
   14557:	0f b6 05 62 54 00 00 	movzbl 0x5462(%rip),%eax        # 199c0 <g_1581+0x10>
   1455e:	0f b6 c0             	movzbl %al,%eax
   14561:	8b 55 fc             	mov    -0x4(%rbp),%edx
   14564:	48 8d 35 28 1f 00 00 	lea    0x1f28(%rip),%rsi        # 16493 <g_1636+0x12a3>
   1456b:	48 89 c7             	mov    %rax,%rdi
   1456e:	e8 80 51 ff ff       	callq  96f3 <transparent_crc>
   14573:	b8 ff ff ff ff       	mov    $0xffffffff,%eax
   14578:	48 98                	cltq   
   1457a:	8b 55 fc             	mov    -0x4(%rbp),%edx
   1457d:	48 8d 35 19 1f 00 00 	lea    0x1f19(%rip),%rsi        # 1649d <g_1636+0x12ad>
   14584:	48 89 c7             	mov    %rax,%rdi
   14587:	e8 67 51 ff ff       	callq  96f3 <transparent_crc>
   1458c:	c7 45 f0 00 00 00 00 	movl   $0x0,-0x10(%rbp)
   14593:	eb 73                	jmp    14608 <main+0x1735>
   14595:	c7 45 f4 00 00 00 00 	movl   $0x0,-0xc(%rbp)
   1459c:	eb 60                	jmp    145fe <main+0x172b>
   1459e:	8b 45 f4             	mov    -0xc(%rbp),%eax
   145a1:	48 63 c8             	movslq %eax,%rcx
   145a4:	8b 45 f0             	mov    -0x10(%rbp),%eax
   145a7:	48 63 d0             	movslq %eax,%rdx
   145aa:	48 89 d0             	mov    %rdx,%rax
   145ad:	48 c1 e0 03          	shl    $0x3,%rax
   145b1:	48 29 d0             	sub    %rdx,%rax
   145b4:	48 01 c8             	add    %rcx,%rax
   145b7:	48 8d 14 00          	lea    (%rax,%rax,1),%rdx
   145bb:	48 8d 05 0e 54 00 00 	lea    0x540e(%rip),%rax        # 199d0 <g_1635>
   145c2:	0f b7 04 02          	movzwl (%rdx,%rax,1),%eax
   145c6:	0f b7 c0             	movzwl %ax,%eax
   145c9:	8b 55 fc             	mov    -0x4(%rbp),%edx
   145cc:	48 8d 35 d1 1e 00 00 	lea    0x1ed1(%rip),%rsi        # 164a4 <g_1636+0x12b4>
   145d3:	48 89 c7             	mov    %rax,%rdi
   145d6:	e8 18 51 ff ff       	callq  96f3 <transparent_crc>
   145db:	83 7d fc 00          	cmpl   $0x0,-0x4(%rbp)
   145df:	74 19                	je     145fa <main+0x1727>
   145e1:	8b 55 f4             	mov    -0xc(%rbp),%edx
   145e4:	8b 45 f0             	mov    -0x10(%rbp),%eax
   145e7:	89 c6                	mov    %eax,%esi
   145e9:	48 8d 3d 00 1b 00 00 	lea    0x1b00(%rip),%rdi        # 160f0 <g_1636+0xf00>
   145f0:	b8 00 00 00 00       	mov    $0x0,%eax
   145f5:	e8 86 3a ff ff       	callq  8080 <printf@plt>
   145fa:	83 45 f4 01          	addl   $0x1,-0xc(%rbp)
   145fe:	83 7d f4 06          	cmpl   $0x6,-0xc(%rbp)
   14602:	7e 9a                	jle    1459e <main+0x16cb>
   14604:	83 45 f0 01          	addl   $0x1,-0x10(%rbp)
   14608:	83 7d f0 01          	cmpl   $0x1,-0x10(%rbp)
   1460c:	7e 87                	jle    14595 <main+0x16c2>
   1460e:	b8 ad 56 00 00       	mov    $0x56ad,%eax
   14613:	0f b7 c0             	movzwl %ax,%eax
   14616:	8b 55 fc             	mov    -0x4(%rbp),%edx
   14619:	48 8d 35 91 1e 00 00 	lea    0x1e91(%rip),%rsi        # 164b1 <g_1636+0x12c1>
   14620:	48 89 c7             	mov    %rax,%rdi
   14623:	e8 cb 50 ff ff       	callq  96f3 <transparent_crc>
   14628:	c7 45 f0 00 00 00 00 	movl   $0x0,-0x10(%rbp)
   1462f:	eb 4d                	jmp    1467e <main+0x17ab>
   14631:	8b 45 f0             	mov    -0x10(%rbp),%eax
   14634:	48 98                	cltq   
   14636:	48 8d 14 85 00 00 00 	lea    0x0(,%rax,4),%rdx
   1463d:	00 
   1463e:	48 8d 05 a7 53 00 00 	lea    0x53a7(%rip),%rax        # 199ec <g_1666>
   14645:	8b 04 02             	mov    (%rdx,%rax,1),%eax
   14648:	89 c1                	mov    %eax,%ecx
   1464a:	8b 45 fc             	mov    -0x4(%rbp),%eax
   1464d:	89 c2                	mov    %eax,%edx
   1464f:	48 8d 35 62 1e 00 00 	lea    0x1e62(%rip),%rsi        # 164b8 <g_1636+0x12c8>
   14656:	48 89 cf             	mov    %rcx,%rdi
   14659:	e8 95 50 ff ff       	callq  96f3 <transparent_crc>
   1465e:	83 7d fc 00          	cmpl   $0x0,-0x4(%rbp)
   14662:	74 16                	je     1467a <main+0x17a7>
   14664:	8b 45 f0             	mov    -0x10(%rbp),%eax
   14667:	89 c6                	mov    %eax,%esi
   14669:	48 8d 3d 31 1a 00 00 	lea    0x1a31(%rip),%rdi        # 160a1 <g_1636+0xeb1>
   14670:	b8 00 00 00 00       	mov    $0x0,%eax
   14675:	e8 06 3a ff ff       	callq  8080 <printf@plt>
   1467a:	83 45 f0 01          	addl   $0x1,-0x10(%rbp)
   1467e:	83 7d f0 00          	cmpl   $0x0,-0x10(%rbp)
   14682:	7e ad                	jle    14631 <main+0x175e>
   14684:	c7 45 f0 00 00 00 00 	movl   $0x0,-0x10(%rbp)
   1468b:	eb 74                	jmp    14701 <main+0x182e>
   1468d:	c7 45 f4 00 00 00 00 	movl   $0x0,-0xc(%rbp)
   14694:	eb 61                	jmp    146f7 <main+0x1824>
   14696:	8b 45 f4             	mov    -0xc(%rbp),%eax
   14699:	48 63 c8             	movslq %eax,%rcx
   1469c:	8b 45 f0             	mov    -0x10(%rbp),%eax
   1469f:	48 63 d0             	movslq %eax,%rdx
   146a2:	48 89 d0             	mov    %rdx,%rax
   146a5:	48 01 c0             	add    %rax,%rax
   146a8:	48 01 d0             	add    %rdx,%rax
   146ab:	48 01 c8             	add    %rcx,%rax
   146ae:	48 8d 14 85 00 00 00 	lea    0x0(,%rax,4),%rdx
   146b5:	00 
   146b6:	48 8d 05 43 53 00 00 	lea    0x5343(%rip),%rax        # 19a00 <g_1668>
   146bd:	8b 04 02             	mov    (%rdx,%rax,1),%eax
   146c0:	48 98                	cltq   
   146c2:	8b 55 fc             	mov    -0x4(%rbp),%edx
   146c5:	48 8d 35 f6 1d 00 00 	lea    0x1df6(%rip),%rsi        # 164c2 <g_1636+0x12d2>
   146cc:	48 89 c7             	mov    %rax,%rdi
   146cf:	e8 1f 50 ff ff       	callq  96f3 <transparent_crc>
   146d4:	83 7d fc 00          	cmpl   $0x0,-0x4(%rbp)
   146d8:	74 19                	je     146f3 <main+0x1820>
   146da:	8b 55 f4             	mov    -0xc(%rbp),%edx
   146dd:	8b 45 f0             	mov    -0x10(%rbp),%eax
   146e0:	89 c6                	mov    %eax,%esi
   146e2:	48 8d 3d 07 1a 00 00 	lea    0x1a07(%rip),%rdi        # 160f0 <g_1636+0xf00>
   146e9:	b8 00 00 00 00       	mov    $0x0,%eax
   146ee:	e8 8d 39 ff ff       	callq  8080 <printf@plt>
   146f3:	83 45 f4 01          	addl   $0x1,-0xc(%rbp)
   146f7:	83 7d f4 02          	cmpl   $0x2,-0xc(%rbp)
   146fb:	7e 99                	jle    14696 <main+0x17c3>
   146fd:	83 45 f0 01          	addl   $0x1,-0x10(%rbp)
   14701:	83 7d f0 04          	cmpl   $0x4,-0x10(%rbp)
   14705:	7e 86                	jle    1468d <main+0x17ba>
   14707:	0f b7 05 2e 53 00 00 	movzwl 0x532e(%rip),%eax        # 19a3c <g_1750>
   1470e:	0f b7 c0             	movzwl %ax,%eax
   14711:	8b 55 fc             	mov    -0x4(%rbp),%edx
   14714:	48 8d 35 b4 1d 00 00 	lea    0x1db4(%rip),%rsi        # 164cf <g_1636+0x12df>
   1471b:	48 89 c7             	mov    %rax,%rdi
   1471e:	e8 d0 4f ff ff       	callq  96f3 <transparent_crc>
   14723:	48 8b 05 16 53 00 00 	mov    0x5316(%rip),%rax        # 19a40 <g_1840>
   1472a:	8b 55 fc             	mov    -0x4(%rbp),%edx
   1472d:	48 8d 35 a2 1d 00 00 	lea    0x1da2(%rip),%rsi        # 164d6 <g_1636+0x12e6>
   14734:	48 89 c7             	mov    %rax,%rdi
   14737:	e8 b7 4f ff ff       	callq  96f3 <transparent_crc>
   1473c:	8b 05 06 53 00 00    	mov    0x5306(%rip),%eax        # 19a48 <g_1851>
   14742:	89 c1                	mov    %eax,%ecx
   14744:	8b 45 fc             	mov    -0x4(%rbp),%eax
   14747:	89 c2                	mov    %eax,%edx
   14749:	48 8d 35 8d 1d 00 00 	lea    0x1d8d(%rip),%rsi        # 164dd <g_1636+0x12ed>
   14750:	48 89 cf             	mov    %rcx,%rdi
   14753:	e8 9b 4f ff ff       	callq  96f3 <transparent_crc>
   14758:	48 8b 05 f1 52 00 00 	mov    0x52f1(%rip),%rax        # 19a50 <g_1954>
   1475f:	c1 e0 07             	shl    $0x7,%eax
   14762:	c1 f8 07             	sar    $0x7,%eax
   14765:	48 98                	cltq   
   14767:	8b 55 fc             	mov    -0x4(%rbp),%edx
   1476a:	48 8d 35 73 1d 00 00 	lea    0x1d73(%rip),%rsi        # 164e4 <g_1636+0x12f4>
   14771:	48 89 c7             	mov    %rax,%rdi
   14774:	e8 7a 4f ff ff       	callq  96f3 <transparent_crc>
   14779:	48 8b 05 d0 52 00 00 	mov    0x52d0(%rip),%rax        # 19a50 <g_1954>
   14780:	48 c1 e8 19          	shr    $0x19,%rax
   14784:	66 25 ff 03          	and    $0x3ff,%ax
   14788:	0f b7 c0             	movzwl %ax,%eax
   1478b:	8b 55 fc             	mov    -0x4(%rbp),%edx
   1478e:	48 8d 35 59 1d 00 00 	lea    0x1d59(%rip),%rsi        # 164ee <g_1636+0x12fe>
   14795:	48 89 c7             	mov    %rax,%rdi
   14798:	e8 56 4f ff ff       	callq  96f3 <transparent_crc>
   1479d:	0f b6 05 b0 52 00 00 	movzbl 0x52b0(%rip),%eax        # 19a54 <g_1954+0x4>
   147a4:	c0 e8 03             	shr    $0x3,%al
   147a7:	83 e0 0f             	and    $0xf,%eax
   147aa:	0f b6 c0             	movzbl %al,%eax
   147ad:	8b 55 fc             	mov    -0x4(%rbp),%edx
   147b0:	48 8d 35 41 1d 00 00 	lea    0x1d41(%rip),%rsi        # 164f8 <g_1636+0x1308>
   147b7:	48 89 c7             	mov    %rax,%rdi
   147ba:	e8 34 4f ff ff       	callq  96f3 <transparent_crc>
   147bf:	48 8b 05 92 52 00 00 	mov    0x5292(%rip),%rax        # 19a58 <g_1954+0x8>
   147c6:	01 c0                	add    %eax,%eax
   147c8:	66 d1 f8             	sar    %ax
   147cb:	48 0f bf c0          	movswq %ax,%rax
   147cf:	8b 55 fc             	mov    -0x4(%rbp),%edx
   147d2:	48 8d 35 29 1d 00 00 	lea    0x1d29(%rip),%rsi        # 16502 <g_1636+0x1312>
   147d9:	48 89 c7             	mov    %rax,%rdi
   147dc:	e8 12 4f ff ff       	callq  96f3 <transparent_crc>
   147e1:	8b 05 71 52 00 00    	mov    0x5271(%rip),%eax        # 19a58 <g_1954+0x8>
   147e7:	c1 e8 0f             	shr    $0xf,%eax
   147ea:	66 25 ff 03          	and    $0x3ff,%ax
   147ee:	0f b7 c0             	movzwl %ax,%eax
   147f1:	8b 55 fc             	mov    -0x4(%rbp),%edx
   147f4:	48 8d 35 11 1d 00 00 	lea    0x1d11(%rip),%rsi        # 1650c <g_1636+0x131c>
   147fb:	48 89 c7             	mov    %rax,%rdi
   147fe:	e8 f0 4e ff ff       	callq  96f3 <transparent_crc>
   14803:	48 8b 05 4e 52 00 00 	mov    0x524e(%rip),%rax        # 19a58 <g_1954+0x8>
   1480a:	48 c1 e8 20          	shr    $0x20,%rax
   1480e:	25 ff ff 1f 00       	and    $0x1fffff,%eax
   14813:	89 c1                	mov    %eax,%ecx
   14815:	8b 45 fc             	mov    -0x4(%rbp),%eax
   14818:	89 c2                	mov    %eax,%edx
   1481a:	48 8d 35 f5 1c 00 00 	lea    0x1cf5(%rip),%rsi        # 16516 <g_1636+0x1326>
   14821:	48 89 cf             	mov    %rcx,%rdi
   14824:	e8 ca 4e ff ff       	callq  96f3 <transparent_crc>
   14829:	0f b7 05 2e 52 00 00 	movzwl 0x522e(%rip),%eax        # 19a5e <g_1954+0xe>
   14830:	c1 e0 06             	shl    $0x6,%eax
   14833:	66 c1 f8 0b          	sar    $0xb,%ax
   14837:	48 0f be c0          	movsbq %al,%rax
   1483b:	8b 55 fc             	mov    -0x4(%rbp),%edx
   1483e:	48 8d 35 db 1c 00 00 	lea    0x1cdb(%rip),%rsi        # 16520 <g_1636+0x1330>
   14845:	48 89 c7             	mov    %rax,%rdi
   14848:	e8 a6 4e ff ff       	callq  96f3 <transparent_crc>
   1484d:	0f b6 05 0c 52 00 00 	movzbl 0x520c(%rip),%eax        # 19a60 <g_1954+0x10>
   14854:	0f b6 c0             	movzbl %al,%eax
   14857:	8b 55 fc             	mov    -0x4(%rbp),%edx
   1485a:	48 8d 35 c9 1c 00 00 	lea    0x1cc9(%rip),%rsi        # 1652a <g_1636+0x133a>
   14861:	48 89 c7             	mov    %rax,%rdi
   14864:	e8 8a 4e ff ff       	callq  96f3 <transparent_crc>
   14869:	8b 05 f1 83 00 00    	mov    0x83f1(%rip),%eax        # 1cc60 <g_1967>
   1486f:	89 c1                	mov    %eax,%ecx
   14871:	8b 45 fc             	mov    -0x4(%rbp),%eax
   14874:	89 c2                	mov    %eax,%edx
   14876:	48 8d 35 b7 1c 00 00 	lea    0x1cb7(%rip),%rsi        # 16534 <g_1636+0x1344>
   1487d:	48 89 cf             	mov    %rcx,%rdi
   14880:	e8 6e 4e ff ff       	callq  96f3 <transparent_crc>
   14885:	0f b7 05 d6 51 00 00 	movzwl 0x51d6(%rip),%eax        # 19a62 <g_1986>
   1488c:	0f b7 c0             	movzwl %ax,%eax
   1488f:	8b 55 fc             	mov    -0x4(%rbp),%edx
   14892:	48 8d 35 a2 1c 00 00 	lea    0x1ca2(%rip),%rsi        # 1653b <g_1636+0x134b>
   14899:	48 89 c7             	mov    %rax,%rdi
   1489c:	e8 52 4e ff ff       	callq  96f3 <transparent_crc>
   148a1:	48 8b 05 c0 51 00 00 	mov    0x51c0(%rip),%rax        # 19a68 <g_1999>
   148a8:	8b 55 fc             	mov    -0x4(%rbp),%edx
   148ab:	48 8d 35 90 1c 00 00 	lea    0x1c90(%rip),%rsi        # 16542 <g_1636+0x1352>
   148b2:	48 89 c7             	mov    %rax,%rdi
   148b5:	e8 39 4e ff ff       	callq  96f3 <transparent_crc>
   148ba:	c7 45 f0 00 00 00 00 	movl   $0x0,-0x10(%rbp)
   148c1:	eb 74                	jmp    14937 <main+0x1a64>
   148c3:	c7 45 f4 00 00 00 00 	movl   $0x0,-0xc(%rbp)
   148ca:	eb 61                	jmp    1492d <main+0x1a5a>
   148cc:	8b 45 f4             	mov    -0xc(%rbp),%eax
   148cf:	48 63 c8             	movslq %eax,%rcx
   148d2:	8b 45 f0             	mov    -0x10(%rbp),%eax
   148d5:	48 63 d0             	movslq %eax,%rdx
   148d8:	48 89 d0             	mov    %rdx,%rax
   148db:	48 c1 e0 02          	shl    $0x2,%rax
   148df:	48 01 d0             	add    %rdx,%rax
   148e2:	48 01 c8             	add    %rcx,%rax
   148e5:	48 8d 14 c5 00 00 00 	lea    0x0(,%rax,8),%rdx
   148ec:	00 
   148ed:	48 8d 05 8c 51 00 00 	lea    0x518c(%rip),%rax        # 19a80 <g_2034>
   148f4:	48 8b 04 02          	mov    (%rdx,%rax,1),%rax
   148f8:	8b 55 fc             	mov    -0x4(%rbp),%edx
   148fb:	48 8d 35 47 1c 00 00 	lea    0x1c47(%rip),%rsi        # 16549 <g_1636+0x1359>
   14902:	48 89 c7             	mov    %rax,%rdi
   14905:	e8 e9 4d ff ff       	callq  96f3 <transparent_crc>
   1490a:	83 7d fc 00          	cmpl   $0x0,-0x4(%rbp)
   1490e:	74 19                	je     14929 <main+0x1a56>
   14910:	8b 55 f4             	mov    -0xc(%rbp),%edx
   14913:	8b 45 f0             	mov    -0x10(%rbp),%eax
   14916:	89 c6                	mov    %eax,%esi
   14918:	48 8d 3d d1 17 00 00 	lea    0x17d1(%rip),%rdi        # 160f0 <g_1636+0xf00>
   1491f:	b8 00 00 00 00       	mov    $0x0,%eax
   14924:	e8 57 37 ff ff       	callq  8080 <printf@plt>
   14929:	83 45 f4 01          	addl   $0x1,-0xc(%rbp)
   1492d:	83 7d f4 04          	cmpl   $0x4,-0xc(%rbp)
   14931:	7e 99                	jle    148cc <main+0x19f9>
   14933:	83 45 f0 01          	addl   $0x1,-0x10(%rbp)
   14937:	83 7d f0 00          	cmpl   $0x0,-0x10(%rbp)
   1493b:	7e 86                	jle    148c3 <main+0x19f0>
   1493d:	48 8b 05 64 51 00 00 	mov    0x5164(%rip),%rax        # 19aa8 <g_2035>
   14944:	8b 55 fc             	mov    -0x4(%rbp),%edx
   14947:	48 8d 35 08 1c 00 00 	lea    0x1c08(%rip),%rsi        # 16556 <g_1636+0x1366>
   1494e:	48 89 c7             	mov    %rax,%rdi
   14951:	e8 9d 4d ff ff       	callq  96f3 <transparent_crc>
   14956:	48 8b 05 53 51 00 00 	mov    0x5153(%rip),%rax        # 19ab0 <g_2064>
   1495d:	c1 e0 07             	shl    $0x7,%eax
   14960:	c1 f8 07             	sar    $0x7,%eax
   14963:	48 98                	cltq   
   14965:	8b 55 fc             	mov    -0x4(%rbp),%edx
   14968:	48 8d 35 ee 1b 00 00 	lea    0x1bee(%rip),%rsi        # 1655d <g_1636+0x136d>
   1496f:	48 89 c7             	mov    %rax,%rdi
   14972:	e8 7c 4d ff ff       	callq  96f3 <transparent_crc>
   14977:	48 8b 05 32 51 00 00 	mov    0x5132(%rip),%rax        # 19ab0 <g_2064>
   1497e:	48 c1 e8 19          	shr    $0x19,%rax
   14982:	66 25 ff 03          	and    $0x3ff,%ax
   14986:	0f b7 c0             	movzwl %ax,%eax
   14989:	8b 55 fc             	mov    -0x4(%rbp),%edx
   1498c:	48 8d 35 d4 1b 00 00 	lea    0x1bd4(%rip),%rsi        # 16567 <g_1636+0x1377>
   14993:	48 89 c7             	mov    %rax,%rdi
   14996:	e8 58 4d ff ff       	callq  96f3 <transparent_crc>
   1499b:	48 8b 05 0e 51 00 00 	mov    0x510e(%rip),%rax        # 19ab0 <g_2064>
   149a2:	48 c1 e8 23          	shr    $0x23,%rax
   149a6:	83 e0 0f             	and    $0xf,%eax
   149a9:	0f b6 c0             	movzbl %al,%eax
   149ac:	8b 55 fc             	mov    -0x4(%rbp),%edx
   149af:	48 8d 35 bb 1b 00 00 	lea    0x1bbb(%rip),%rsi        # 16571 <g_1636+0x1381>
   149b6:	48 89 c7             	mov    %rax,%rdi
   149b9:	e8 35 4d ff ff       	callq  96f3 <transparent_crc>
   149be:	48 8b 05 f3 50 00 00 	mov    0x50f3(%rip),%rax        # 19ab8 <g_2064+0x8>
   149c5:	01 c0                	add    %eax,%eax
   149c7:	66 d1 f8             	sar    %ax
   149ca:	48 0f bf c0          	movswq %ax,%rax
   149ce:	8b 55 fc             	mov    -0x4(%rbp),%edx
   149d1:	48 8d 35 a3 1b 00 00 	lea    0x1ba3(%rip),%rsi        # 1657b <g_1636+0x138b>
   149d8:	48 89 c7             	mov    %rax,%rdi
   149db:	e8 13 4d ff ff       	callq  96f3 <transparent_crc>
   149e0:	48 8b 05 d1 50 00 00 	mov    0x50d1(%rip),%rax        # 19ab8 <g_2064+0x8>
   149e7:	48 c1 e8 0f          	shr    $0xf,%rax
   149eb:	66 25 ff 03          	and    $0x3ff,%ax
   149ef:	0f b7 c0             	movzwl %ax,%eax
   149f2:	8b 55 fc             	mov    -0x4(%rbp),%edx
   149f5:	48 8d 35 89 1b 00 00 	lea    0x1b89(%rip),%rsi        # 16585 <g_1636+0x1395>
   149fc:	48 89 c7             	mov    %rax,%rdi
   149ff:	e8 ef 4c ff ff       	callq  96f3 <transparent_crc>
   14a04:	48 8b 05 ad 50 00 00 	mov    0x50ad(%rip),%rax        # 19ab8 <g_2064+0x8>
   14a0b:	48 c1 e8 20          	shr    $0x20,%rax
   14a0f:	25 ff ff 1f 00       	and    $0x1fffff,%eax
   14a14:	89 c1                	mov    %eax,%ecx
   14a16:	8b 45 fc             	mov    -0x4(%rbp),%eax
   14a19:	89 c2                	mov    %eax,%edx
   14a1b:	48 8d 35 6d 1b 00 00 	lea    0x1b6d(%rip),%rsi        # 1658f <g_1636+0x139f>
   14a22:	48 89 cf             	mov    %rcx,%rdi
   14a25:	e8 c9 4c ff ff       	callq  96f3 <transparent_crc>
   14a2a:	48 8b 05 87 50 00 00 	mov    0x5087(%rip),%rax        # 19ab8 <g_2064+0x8>
   14a31:	48 c1 e0 06          	shl    $0x6,%rax
   14a35:	48 c1 f8 3b          	sar    $0x3b,%rax
   14a39:	48 0f be c0          	movsbq %al,%rax
   14a3d:	8b 55 fc             	mov    -0x4(%rbp),%edx
   14a40:	48 8d 35 52 1b 00 00 	lea    0x1b52(%rip),%rsi        # 16599 <g_1636+0x13a9>
   14a47:	48 89 c7             	mov    %rax,%rdi
   14a4a:	e8 a4 4c ff ff       	callq  96f3 <transparent_crc>
   14a4f:	0f b6 05 6a 50 00 00 	movzbl 0x506a(%rip),%eax        # 19ac0 <g_2064+0x10>
   14a56:	0f b6 c0             	movzbl %al,%eax
   14a59:	8b 55 fc             	mov    -0x4(%rbp),%edx
   14a5c:	48 8d 35 40 1b 00 00 	lea    0x1b40(%rip),%rsi        # 165a3 <g_1636+0x13b3>
   14a63:	48 89 c7             	mov    %rax,%rdi
   14a66:	e8 88 4c ff ff       	callq  96f3 <transparent_crc>
   14a6b:	48 8b 05 56 50 00 00 	mov    0x5056(%rip),%rax        # 19ac8 <g_2100>
   14a72:	8b 55 fc             	mov    -0x4(%rbp),%edx
   14a75:	48 8d 35 31 1b 00 00 	lea    0x1b31(%rip),%rsi        # 165ad <g_1636+0x13bd>
   14a7c:	48 89 c7             	mov    %rax,%rdi
   14a7f:	e8 6f 4c ff ff       	callq  96f3 <transparent_crc>
   14a84:	0f b7 05 ed 81 00 00 	movzwl 0x81ed(%rip),%eax        # 1cc78 <g_2109>
   14a8b:	0f b7 c0             	movzwl %ax,%eax
   14a8e:	8b 55 fc             	mov    -0x4(%rbp),%edx
   14a91:	48 8d 35 1c 1b 00 00 	lea    0x1b1c(%rip),%rsi        # 165b4 <g_1636+0x13c4>
   14a98:	48 89 c7             	mov    %rax,%rdi
   14a9b:	e8 53 4c ff ff       	callq  96f3 <transparent_crc>
   14aa0:	48 8b 05 29 50 00 00 	mov    0x5029(%rip),%rax        # 19ad0 <g_2132>
   14aa7:	c1 e0 07             	shl    $0x7,%eax
   14aaa:	c1 f8 07             	sar    $0x7,%eax
   14aad:	48 98                	cltq   
   14aaf:	8b 55 fc             	mov    -0x4(%rbp),%edx
   14ab2:	48 8d 35 02 1b 00 00 	lea    0x1b02(%rip),%rsi        # 165bb <g_1636+0x13cb>
   14ab9:	48 89 c7             	mov    %rax,%rdi
   14abc:	e8 32 4c ff ff       	callq  96f3 <transparent_crc>
   14ac1:	48 8b 05 08 50 00 00 	mov    0x5008(%rip),%rax        # 19ad0 <g_2132>
   14ac8:	48 c1 e8 19          	shr    $0x19,%rax
   14acc:	66 25 ff 03          	and    $0x3ff,%ax
   14ad0:	0f b7 c0             	movzwl %ax,%eax
   14ad3:	8b 55 fc             	mov    -0x4(%rbp),%edx
   14ad6:	48 8d 35 e8 1a 00 00 	lea    0x1ae8(%rip),%rsi        # 165c5 <g_1636+0x13d5>
   14add:	48 89 c7             	mov    %rax,%rdi
   14ae0:	e8 0e 4c ff ff       	callq  96f3 <transparent_crc>
   14ae5:	48 8b 05 e4 4f 00 00 	mov    0x4fe4(%rip),%rax        # 19ad0 <g_2132>
   14aec:	48 c1 e8 23          	shr    $0x23,%rax
   14af0:	83 e0 0f             	and    $0xf,%eax
   14af3:	0f b6 c0             	movzbl %al,%eax
   14af6:	8b 55 fc             	mov    -0x4(%rbp),%edx
   14af9:	48 8d 35 cf 1a 00 00 	lea    0x1acf(%rip),%rsi        # 165cf <g_1636+0x13df>
   14b00:	48 89 c7             	mov    %rax,%rdi
   14b03:	e8 eb 4b ff ff       	callq  96f3 <transparent_crc>
   14b08:	48 8b 05 c9 4f 00 00 	mov    0x4fc9(%rip),%rax        # 19ad8 <g_2132+0x8>
   14b0f:	01 c0                	add    %eax,%eax
   14b11:	66 d1 f8             	sar    %ax
   14b14:	48 0f bf c0          	movswq %ax,%rax
   14b18:	8b 55 fc             	mov    -0x4(%rbp),%edx
   14b1b:	48 8d 35 b7 1a 00 00 	lea    0x1ab7(%rip),%rsi        # 165d9 <g_1636+0x13e9>
   14b22:	48 89 c7             	mov    %rax,%rdi
   14b25:	e8 c9 4b ff ff       	callq  96f3 <transparent_crc>
   14b2a:	48 8b 05 a7 4f 00 00 	mov    0x4fa7(%rip),%rax        # 19ad8 <g_2132+0x8>
   14b31:	48 c1 e8 0f          	shr    $0xf,%rax
   14b35:	66 25 ff 03          	and    $0x3ff,%ax
   14b39:	0f b7 c0             	movzwl %ax,%eax
   14b3c:	8b 55 fc             	mov    -0x4(%rbp),%edx
   14b3f:	48 8d 35 9d 1a 00 00 	lea    0x1a9d(%rip),%rsi        # 165e3 <g_1636+0x13f3>
   14b46:	48 89 c7             	mov    %rax,%rdi
   14b49:	e8 a5 4b ff ff       	callq  96f3 <transparent_crc>
   14b4e:	48 8b 05 83 4f 00 00 	mov    0x4f83(%rip),%rax        # 19ad8 <g_2132+0x8>
   14b55:	48 c1 e8 20          	shr    $0x20,%rax
   14b59:	25 ff ff 1f 00       	and    $0x1fffff,%eax
   14b5e:	89 c1                	mov    %eax,%ecx
   14b60:	8b 45 fc             	mov    -0x4(%rbp),%eax
   14b63:	89 c2                	mov    %eax,%edx
   14b65:	48 8d 35 81 1a 00 00 	lea    0x1a81(%rip),%rsi        # 165ed <g_1636+0x13fd>
   14b6c:	48 89 cf             	mov    %rcx,%rdi
   14b6f:	e8 7f 4b ff ff       	callq  96f3 <transparent_crc>
   14b74:	48 8b 05 5d 4f 00 00 	mov    0x4f5d(%rip),%rax        # 19ad8 <g_2132+0x8>
   14b7b:	48 c1 e0 06          	shl    $0x6,%rax
   14b7f:	48 c1 f8 3b          	sar    $0x3b,%rax
   14b83:	48 0f be c0          	movsbq %al,%rax
   14b87:	8b 55 fc             	mov    -0x4(%rbp),%edx
   14b8a:	48 8d 35 66 1a 00 00 	lea    0x1a66(%rip),%rsi        # 165f7 <g_1636+0x1407>
   14b91:	48 89 c7             	mov    %rax,%rdi
   14b94:	e8 5a 4b ff ff       	callq  96f3 <transparent_crc>
   14b99:	0f b6 05 40 4f 00 00 	movzbl 0x4f40(%rip),%eax        # 19ae0 <g_2132+0x10>
   14ba0:	0f b6 c0             	movzbl %al,%eax
   14ba3:	8b 55 fc             	mov    -0x4(%rbp),%edx
   14ba6:	48 8d 35 54 1a 00 00 	lea    0x1a54(%rip),%rsi        # 16601 <g_1636+0x1411>
   14bad:	48 89 c7             	mov    %rax,%rdi
   14bb0:	e8 3e 4b ff ff       	callq  96f3 <transparent_crc>
   14bb5:	48 8b 05 34 4f 00 00 	mov    0x4f34(%rip),%rax        # 19af0 <g_2140>
   14bbc:	c1 e0 07             	shl    $0x7,%eax
   14bbf:	c1 f8 07             	sar    $0x7,%eax
   14bc2:	48 98                	cltq   
   14bc4:	8b 55 fc             	mov    -0x4(%rbp),%edx
   14bc7:	48 8d 35 3d 1a 00 00 	lea    0x1a3d(%rip),%rsi        # 1660b <g_1636+0x141b>
   14bce:	48 89 c7             	mov    %rax,%rdi
   14bd1:	e8 1d 4b ff ff       	callq  96f3 <transparent_crc>
   14bd6:	48 8b 05 13 4f 00 00 	mov    0x4f13(%rip),%rax        # 19af0 <g_2140>
   14bdd:	48 c1 e8 19          	shr    $0x19,%rax
   14be1:	66 25 ff 03          	and    $0x3ff,%ax
   14be5:	0f b7 c0             	movzwl %ax,%eax
   14be8:	8b 55 fc             	mov    -0x4(%rbp),%edx
   14beb:	48 8d 35 23 1a 00 00 	lea    0x1a23(%rip),%rsi        # 16615 <g_1636+0x1425>
   14bf2:	48 89 c7             	mov    %rax,%rdi
   14bf5:	e8 f9 4a ff ff       	callq  96f3 <transparent_crc>
   14bfa:	0f b6 05 f3 4e 00 00 	movzbl 0x4ef3(%rip),%eax        # 19af4 <g_2140+0x4>
   14c01:	c0 e8 03             	shr    $0x3,%al
   14c04:	83 e0 0f             	and    $0xf,%eax
   14c07:	0f b6 c0             	movzbl %al,%eax
   14c0a:	8b 55 fc             	mov    -0x4(%rbp),%edx
   14c0d:	48 8d 35 0b 1a 00 00 	lea    0x1a0b(%rip),%rsi        # 1661f <g_1636+0x142f>
   14c14:	48 89 c7             	mov    %rax,%rdi
   14c17:	e8 d7 4a ff ff       	callq  96f3 <transparent_crc>
   14c1c:	48 8b 05 d5 4e 00 00 	mov    0x4ed5(%rip),%rax        # 19af8 <g_2140+0x8>
   14c23:	01 c0                	add    %eax,%eax
   14c25:	66 d1 f8             	sar    %ax
   14c28:	48 0f bf c0          	movswq %ax,%rax
   14c2c:	8b 55 fc             	mov    -0x4(%rbp),%edx
   14c2f:	48 8d 35 f3 19 00 00 	lea    0x19f3(%rip),%rsi        # 16629 <g_1636+0x1439>
   14c36:	48 89 c7             	mov    %rax,%rdi
   14c39:	e8 b5 4a ff ff       	callq  96f3 <transparent_crc>
   14c3e:	8b 05 b4 4e 00 00    	mov    0x4eb4(%rip),%eax        # 19af8 <g_2140+0x8>
   14c44:	c1 e8 0f             	shr    $0xf,%eax
   14c47:	66 25 ff 03          	and    $0x3ff,%ax
   14c4b:	0f b7 c0             	movzwl %ax,%eax
   14c4e:	8b 55 fc             	mov    -0x4(%rbp),%edx
   14c51:	48 8d 35 db 19 00 00 	lea    0x19db(%rip),%rsi        # 16633 <g_1636+0x1443>
   14c58:	48 89 c7             	mov    %rax,%rdi
   14c5b:	e8 93 4a ff ff       	callq  96f3 <transparent_crc>
   14c60:	48 8b 05 91 4e 00 00 	mov    0x4e91(%rip),%rax        # 19af8 <g_2140+0x8>
   14c67:	48 c1 e8 20          	shr    $0x20,%rax
   14c6b:	25 ff ff 1f 00       	and    $0x1fffff,%eax
   14c70:	89 c1                	mov    %eax,%ecx
   14c72:	8b 45 fc             	mov    -0x4(%rbp),%eax
   14c75:	89 c2                	mov    %eax,%edx
   14c77:	48 8d 35 bf 19 00 00 	lea    0x19bf(%rip),%rsi        # 1663d <g_1636+0x144d>
   14c7e:	48 89 cf             	mov    %rcx,%rdi
   14c81:	e8 6d 4a ff ff       	callq  96f3 <transparent_crc>
   14c86:	0f b7 05 71 4e 00 00 	movzwl 0x4e71(%rip),%eax        # 19afe <g_2140+0xe>
   14c8d:	c1 e0 06             	shl    $0x6,%eax
   14c90:	66 c1 f8 0b          	sar    $0xb,%ax
   14c94:	48 0f be c0          	movsbq %al,%rax
   14c98:	8b 55 fc             	mov    -0x4(%rbp),%edx
   14c9b:	48 8d 35 a5 19 00 00 	lea    0x19a5(%rip),%rsi        # 16647 <g_1636+0x1457>
   14ca2:	48 89 c7             	mov    %rax,%rdi
   14ca5:	e8 49 4a ff ff       	callq  96f3 <transparent_crc>
   14caa:	0f b6 05 4f 4e 00 00 	movzbl 0x4e4f(%rip),%eax        # 19b00 <g_2140+0x10>
   14cb1:	0f b6 c0             	movzbl %al,%eax
   14cb4:	8b 55 fc             	mov    -0x4(%rbp),%edx
   14cb7:	48 8d 35 93 19 00 00 	lea    0x1993(%rip),%rsi        # 16651 <g_1636+0x1461>
   14cbe:	48 89 c7             	mov    %rax,%rdi
   14cc1:	e8 2d 4a ff ff       	callq  96f3 <transparent_crc>
   14cc6:	48 8b 05 43 4e 00 00 	mov    0x4e43(%rip),%rax        # 19b10 <g_2147>
   14ccd:	c1 e0 07             	shl    $0x7,%eax
   14cd0:	c1 f8 07             	sar    $0x7,%eax
   14cd3:	48 98                	cltq   
   14cd5:	8b 55 fc             	mov    -0x4(%rbp),%edx
   14cd8:	48 8d 35 7c 19 00 00 	lea    0x197c(%rip),%rsi        # 1665b <g_1636+0x146b>
   14cdf:	48 89 c7             	mov    %rax,%rdi
   14ce2:	e8 0c 4a ff ff       	callq  96f3 <transparent_crc>
   14ce7:	48 8b 05 22 4e 00 00 	mov    0x4e22(%rip),%rax        # 19b10 <g_2147>
   14cee:	48 c1 e8 19          	shr    $0x19,%rax
   14cf2:	66 25 ff 03          	and    $0x3ff,%ax
   14cf6:	0f b7 c0             	movzwl %ax,%eax
   14cf9:	8b 55 fc             	mov    -0x4(%rbp),%edx
   14cfc:	48 8d 35 62 19 00 00 	lea    0x1962(%rip),%rsi        # 16665 <g_1636+0x1475>
   14d03:	48 89 c7             	mov    %rax,%rdi
   14d06:	e8 e8 49 ff ff       	callq  96f3 <transparent_crc>
   14d0b:	0f b6 05 02 4e 00 00 	movzbl 0x4e02(%rip),%eax        # 19b14 <g_2147+0x4>
   14d12:	c0 e8 03             	shr    $0x3,%al
   14d15:	83 e0 0f             	and    $0xf,%eax
   14d18:	0f b6 c0             	movzbl %al,%eax
   14d1b:	8b 55 fc             	mov    -0x4(%rbp),%edx
   14d1e:	48 8d 35 4a 19 00 00 	lea    0x194a(%rip),%rsi        # 1666f <g_1636+0x147f>
   14d25:	48 89 c7             	mov    %rax,%rdi
   14d28:	e8 c6 49 ff ff       	callq  96f3 <transparent_crc>
   14d2d:	48 8b 05 e4 4d 00 00 	mov    0x4de4(%rip),%rax        # 19b18 <g_2147+0x8>
   14d34:	01 c0                	add    %eax,%eax
   14d36:	66 d1 f8             	sar    %ax
   14d39:	48 0f bf c0          	movswq %ax,%rax
   14d3d:	8b 55 fc             	mov    -0x4(%rbp),%edx
   14d40:	48 8d 35 32 19 00 00 	lea    0x1932(%rip),%rsi        # 16679 <g_1636+0x1489>
   14d47:	48 89 c7             	mov    %rax,%rdi
   14d4a:	e8 a4 49 ff ff       	callq  96f3 <transparent_crc>
   14d4f:	8b 05 c3 4d 00 00    	mov    0x4dc3(%rip),%eax        # 19b18 <g_2147+0x8>
   14d55:	c1 e8 0f             	shr    $0xf,%eax
   14d58:	66 25 ff 03          	and    $0x3ff,%ax
   14d5c:	0f b7 c0             	movzwl %ax,%eax
   14d5f:	8b 55 fc             	mov    -0x4(%rbp),%edx
   14d62:	48 8d 35 1a 19 00 00 	lea    0x191a(%rip),%rsi        # 16683 <g_1636+0x1493>
   14d69:	48 89 c7             	mov    %rax,%rdi
   14d6c:	e8 82 49 ff ff       	callq  96f3 <transparent_crc>
   14d71:	48 8b 05 a0 4d 00 00 	mov    0x4da0(%rip),%rax        # 19b18 <g_2147+0x8>
   14d78:	48 c1 e8 20          	shr    $0x20,%rax
   14d7c:	25 ff ff 1f 00       	and    $0x1fffff,%eax
   14d81:	89 c1                	mov    %eax,%ecx
   14d83:	8b 45 fc             	mov    -0x4(%rbp),%eax
   14d86:	89 c2                	mov    %eax,%edx
   14d88:	48 8d 35 fe 18 00 00 	lea    0x18fe(%rip),%rsi        # 1668d <g_1636+0x149d>
   14d8f:	48 89 cf             	mov    %rcx,%rdi
   14d92:	e8 5c 49 ff ff       	callq  96f3 <transparent_crc>
   14d97:	0f b7 05 80 4d 00 00 	movzwl 0x4d80(%rip),%eax        # 19b1e <g_2147+0xe>
   14d9e:	c1 e0 06             	shl    $0x6,%eax
   14da1:	66 c1 f8 0b          	sar    $0xb,%ax
   14da5:	48 0f be c0          	movsbq %al,%rax
   14da9:	8b 55 fc             	mov    -0x4(%rbp),%edx
   14dac:	48 8d 35 e4 18 00 00 	lea    0x18e4(%rip),%rsi        # 16697 <g_1636+0x14a7>
   14db3:	48 89 c7             	mov    %rax,%rdi
   14db6:	e8 38 49 ff ff       	callq  96f3 <transparent_crc>
   14dbb:	0f b6 05 5e 4d 00 00 	movzbl 0x4d5e(%rip),%eax        # 19b20 <g_2147+0x10>
   14dc2:	0f b6 c0             	movzbl %al,%eax
   14dc5:	8b 55 fc             	mov    -0x4(%rbp),%edx
   14dc8:	48 8d 35 d2 18 00 00 	lea    0x18d2(%rip),%rsi        # 166a1 <g_1636+0x14b1>
   14dcf:	48 89 c7             	mov    %rax,%rdi
   14dd2:	e8 1c 49 ff ff       	callq  96f3 <transparent_crc>
   14dd7:	0f b7 05 44 4d 00 00 	movzwl 0x4d44(%rip),%eax        # 19b22 <g_2175>
   14dde:	0f b7 c0             	movzwl %ax,%eax
   14de1:	8b 55 fc             	mov    -0x4(%rbp),%edx
   14de4:	48 8d 35 c0 18 00 00 	lea    0x18c0(%rip),%rsi        # 166ab <g_1636+0x14bb>
   14deb:	48 89 c7             	mov    %rax,%rdi
   14dee:	e8 00 49 ff ff       	callq  96f3 <transparent_crc>
   14df3:	48 8b 05 36 4d 00 00 	mov    0x4d36(%rip),%rax        # 19b30 <g_2195>
   14dfa:	c1 e0 07             	shl    $0x7,%eax
   14dfd:	c1 f8 07             	sar    $0x7,%eax
   14e00:	48 98                	cltq   
   14e02:	8b 55 fc             	mov    -0x4(%rbp),%edx
   14e05:	48 8d 35 a6 18 00 00 	lea    0x18a6(%rip),%rsi        # 166b2 <g_1636+0x14c2>
   14e0c:	48 89 c7             	mov    %rax,%rdi
   14e0f:	e8 df 48 ff ff       	callq  96f3 <transparent_crc>
   14e14:	48 8b 05 15 4d 00 00 	mov    0x4d15(%rip),%rax        # 19b30 <g_2195>
   14e1b:	48 c1 e8 19          	shr    $0x19,%rax
   14e1f:	66 25 ff 03          	and    $0x3ff,%ax
   14e23:	0f b7 c0             	movzwl %ax,%eax
   14e26:	8b 55 fc             	mov    -0x4(%rbp),%edx
   14e29:	48 8d 35 8c 18 00 00 	lea    0x188c(%rip),%rsi        # 166bc <g_1636+0x14cc>
   14e30:	48 89 c7             	mov    %rax,%rdi
   14e33:	e8 bb 48 ff ff       	callq  96f3 <transparent_crc>
   14e38:	0f b6 05 f5 4c 00 00 	movzbl 0x4cf5(%rip),%eax        # 19b34 <g_2195+0x4>
   14e3f:	c0 e8 03             	shr    $0x3,%al
   14e42:	83 e0 0f             	and    $0xf,%eax
   14e45:	0f b6 c0             	movzbl %al,%eax
   14e48:	8b 55 fc             	mov    -0x4(%rbp),%edx
   14e4b:	48 8d 35 74 18 00 00 	lea    0x1874(%rip),%rsi        # 166c6 <g_1636+0x14d6>
   14e52:	48 89 c7             	mov    %rax,%rdi
   14e55:	e8 99 48 ff ff       	callq  96f3 <transparent_crc>
   14e5a:	48 8b 05 d7 4c 00 00 	mov    0x4cd7(%rip),%rax        # 19b38 <g_2195+0x8>
   14e61:	01 c0                	add    %eax,%eax
   14e63:	66 d1 f8             	sar    %ax
   14e66:	48 0f bf c0          	movswq %ax,%rax
   14e6a:	8b 55 fc             	mov    -0x4(%rbp),%edx
   14e6d:	48 8d 35 5c 18 00 00 	lea    0x185c(%rip),%rsi        # 166d0 <g_1636+0x14e0>
   14e74:	48 89 c7             	mov    %rax,%rdi
   14e77:	e8 77 48 ff ff       	callq  96f3 <transparent_crc>
   14e7c:	8b 05 b6 4c 00 00    	mov    0x4cb6(%rip),%eax        # 19b38 <g_2195+0x8>
   14e82:	c1 e8 0f             	shr    $0xf,%eax
   14e85:	66 25 ff 03          	and    $0x3ff,%ax
   14e89:	0f b7 c0             	movzwl %ax,%eax
   14e8c:	8b 55 fc             	mov    -0x4(%rbp),%edx
   14e8f:	48 8d 35 44 18 00 00 	lea    0x1844(%rip),%rsi        # 166da <g_1636+0x14ea>
   14e96:	48 89 c7             	mov    %rax,%rdi
   14e99:	e8 55 48 ff ff       	callq  96f3 <transparent_crc>
   14e9e:	48 8b 05 93 4c 00 00 	mov    0x4c93(%rip),%rax        # 19b38 <g_2195+0x8>
   14ea5:	48 c1 e8 20          	shr    $0x20,%rax
   14ea9:	25 ff ff 1f 00       	and    $0x1fffff,%eax
   14eae:	89 c1                	mov    %eax,%ecx
   14eb0:	8b 45 fc             	mov    -0x4(%rbp),%eax
   14eb3:	89 c2                	mov    %eax,%edx
   14eb5:	48 8d 35 28 18 00 00 	lea    0x1828(%rip),%rsi        # 166e4 <g_1636+0x14f4>
   14ebc:	48 89 cf             	mov    %rcx,%rdi
   14ebf:	e8 2f 48 ff ff       	callq  96f3 <transparent_crc>
   14ec4:	0f b7 05 73 4c 00 00 	movzwl 0x4c73(%rip),%eax        # 19b3e <g_2195+0xe>
   14ecb:	c1 e0 06             	shl    $0x6,%eax
   14ece:	66 c1 f8 0b          	sar    $0xb,%ax
   14ed2:	48 0f be c0          	movsbq %al,%rax
   14ed6:	8b 55 fc             	mov    -0x4(%rbp),%edx
   14ed9:	48 8d 35 0e 18 00 00 	lea    0x180e(%rip),%rsi        # 166ee <g_1636+0x14fe>
   14ee0:	48 89 c7             	mov    %rax,%rdi
   14ee3:	e8 0b 48 ff ff       	callq  96f3 <transparent_crc>
   14ee8:	0f b6 05 51 4c 00 00 	movzbl 0x4c51(%rip),%eax        # 19b40 <g_2195+0x10>
   14eef:	0f b6 c0             	movzbl %al,%eax
   14ef2:	8b 55 fc             	mov    -0x4(%rbp),%edx
   14ef5:	48 8d 35 fc 17 00 00 	lea    0x17fc(%rip),%rsi        # 166f8 <g_1636+0x1508>
   14efc:	48 89 c7             	mov    %rax,%rdi
   14eff:	e8 ef 47 ff ff       	callq  96f3 <transparent_crc>
   14f04:	8b 05 16 41 00 00    	mov    0x4116(%rip),%eax        # 19020 <crc32_context>
   14f0a:	f7 d0                	not    %eax
   14f0c:	89 c2                	mov    %eax,%edx
   14f0e:	8b 45 fc             	mov    -0x4(%rbp),%eax
   14f11:	89 c6                	mov    %eax,%esi
   14f13:	89 d7                	mov    %edx,%edi
   14f15:	e8 7a 32 ff ff       	callq  8194 <platform_main_end>
   14f1a:	b8 00 00 00 00       	mov    $0x0,%eax
   14f1f:	c9                   	leaveq 
   14f20:	c3                   	retq   
   14f21:	66 2e 0f 1f 84 00 00 	nopw   %cs:0x0(%rax,%rax,1)
   14f28:	00 00 00 
   14f2b:	0f 1f 44 00 00       	nopl   0x0(%rax,%rax,1)

0000000000014f30 <__libc_csu_init>:
   14f30:	f3 0f 1e fa          	endbr64 
   14f34:	41 57                	push   %r15
   14f36:	4c 8d 3d 6b 3e 00 00 	lea    0x3e6b(%rip),%r15        # 18da8 <__frame_dummy_init_array_entry>
   14f3d:	41 56                	push   %r14
   14f3f:	49 89 d6             	mov    %rdx,%r14
   14f42:	41 55                	push   %r13
   14f44:	49 89 f5             	mov    %rsi,%r13
   14f47:	41 54                	push   %r12
   14f49:	41 89 fc             	mov    %edi,%r12d
   14f4c:	55                   	push   %rbp
   14f4d:	48 8d 2d 5c 3e 00 00 	lea    0x3e5c(%rip),%rbp        # 18db0 <__do_global_dtors_aux_fini_array_entry>
   14f54:	53                   	push   %rbx
   14f55:	4c 29 fd             	sub    %r15,%rbp
   14f58:	48 83 ec 08          	sub    $0x8,%rsp
   14f5c:	e8 9f 30 ff ff       	callq  8000 <_init>
   14f61:	48 c1 fd 03          	sar    $0x3,%rbp
   14f65:	74 1f                	je     14f86 <__libc_csu_init+0x56>
   14f67:	31 db                	xor    %ebx,%ebx
   14f69:	0f 1f 80 00 00 00 00 	nopl   0x0(%rax)
   14f70:	4c 89 f2             	mov    %r14,%rdx
   14f73:	4c 89 ee             	mov    %r13,%rsi
   14f76:	44 89 e7             	mov    %r12d,%edi
   14f79:	41 ff 14 df          	callq  *(%r15,%rbx,8)
   14f7d:	48 83 c3 01          	add    $0x1,%rbx
   14f81:	48 39 dd             	cmp    %rbx,%rbp
   14f84:	75 ea                	jne    14f70 <__libc_csu_init+0x40>
   14f86:	48 83 c4 08          	add    $0x8,%rsp
   14f8a:	5b                   	pop    %rbx
   14f8b:	5d                   	pop    %rbp
   14f8c:	41 5c                	pop    %r12
   14f8e:	41 5d                	pop    %r13
   14f90:	41 5e                	pop    %r14
   14f92:	41 5f                	pop    %r15
   14f94:	c3                   	retq   
   14f95:	66 66 2e 0f 1f 84 00 	data16 nopw %cs:0x0(%rax,%rax,1)
   14f9c:	00 00 00 00 

0000000000014fa0 <__libc_csu_fini>:
   14fa0:	f3 0f 1e fa          	endbr64 
   14fa4:	c3                   	retq   
