


Disassembly of section .text:

00000000000060a0 <_start>:
    60a0:	f3 0f 1e fa          	endbr64 
    60a4:	31 ed                	xor    %ebp,%ebp
    60a6:	49 89 d1             	mov    %rdx,%r9
    60a9:	5e                   	pop    %rsi
    60aa:	48 89 e2             	mov    %rsp,%rdx
    60ad:	48 83 e4 f0          	and    $0xfffffffffffffff0,%rsp
    60b1:	50                   	push   %rax
    60b2:	54                   	push   %rsp
    60b3:	4c 8d 05 f6 58 00 00 	lea    0x58f6(%rip),%r8        # b9b0 <__libc_csu_fini>
    60ba:	48 8d 0d 7f 58 00 00 	lea    0x587f(%rip),%rcx        # b940 <__libc_csu_init>
    60c1:	48 8d 3d 6d 3c 00 00 	lea    0x3c6d(%rip),%rdi        # 9d35 <main>
    60c8:	ff 15 12 9f 00 00    	callq  *0x9f12(%rip)        # ffe0 <__libc_start_main@GLIBC_2.2.5>
    60ce:	f4                   	hlt    
    60cf:	90                   	nop

00000000000060d0 <deregister_tm_clones>:
    60d0:	48 8d 3d c9 c3 00 00 	lea    0xc3c9(%rip),%rdi        # 124a0 <__TMC_END__>
    60d7:	48 8d 05 c2 c3 00 00 	lea    0xc3c2(%rip),%rax        # 124a0 <__TMC_END__>
    60de:	48 39 f8             	cmp    %rdi,%rax
    60e1:	74 15                	je     60f8 <deregister_tm_clones+0x28>
    60e3:	48 8b 05 ee 9e 00 00 	mov    0x9eee(%rip),%rax        # ffd8 <_ITM_deregisterTMCloneTable>
    60ea:	48 85 c0             	test   %rax,%rax
    60ed:	74 09                	je     60f8 <deregister_tm_clones+0x28>
    60ef:	ff e0                	jmpq   *%rax
    60f1:	0f 1f 80 00 00 00 00 	nopl   0x0(%rax)
    60f8:	c3                   	retq   
    60f9:	0f 1f 80 00 00 00 00 	nopl   0x0(%rax)

0000000000006100 <register_tm_clones>:
    6100:	48 8d 3d 99 c3 00 00 	lea    0xc399(%rip),%rdi        # 124a0 <__TMC_END__>
    6107:	48 8d 35 92 c3 00 00 	lea    0xc392(%rip),%rsi        # 124a0 <__TMC_END__>
    610e:	48 29 fe             	sub    %rdi,%rsi
    6111:	48 89 f0             	mov    %rsi,%rax
    6114:	48 c1 ee 3f          	shr    $0x3f,%rsi
    6118:	48 c1 f8 03          	sar    $0x3,%rax
    611c:	48 01 c6             	add    %rax,%rsi
    611f:	48 d1 fe             	sar    %rsi
    6122:	74 14                	je     6138 <register_tm_clones+0x38>
    6124:	48 8b 05 c5 9e 00 00 	mov    0x9ec5(%rip),%rax        # fff0 <_ITM_registerTMCloneTable>
    612b:	48 85 c0             	test   %rax,%rax
    612e:	74 08                	je     6138 <register_tm_clones+0x38>
    6130:	ff e0                	jmpq   *%rax
    6132:	66 0f 1f 44 00 00    	nopw   0x0(%rax,%rax,1)
    6138:	c3                   	retq   
    6139:	0f 1f 80 00 00 00 00 	nopl   0x0(%rax)

0000000000006140 <__do_global_dtors_aux>:
    6140:	f3 0f 1e fa          	endbr64 
    6144:	80 3d 55 c3 00 00 00 	cmpb   $0x0,0xc355(%rip)        # 124a0 <__TMC_END__>
    614b:	75 2b                	jne    6178 <__do_global_dtors_aux+0x38>
    614d:	55                   	push   %rbp
    614e:	48 83 3d a2 9e 00 00 	cmpq   $0x0,0x9ea2(%rip)        # fff8 <__cxa_finalize@GLIBC_2.2.5>
    6155:	00 
    6156:	48 89 e5             	mov    %rsp,%rbp
    6159:	74 0c                	je     6167 <__do_global_dtors_aux+0x27>
    615b:	48 8b 3d a6 9e 00 00 	mov    0x9ea6(%rip),%rdi        # 10008 <__dso_handle>
    6162:	e8 f9 fe ff ff       	callq  6060 <__cxa_finalize@plt>
    6167:	e8 64 ff ff ff       	callq  60d0 <deregister_tm_clones>
    616c:	c6 05 2d c3 00 00 01 	movb   $0x1,0xc32d(%rip)        # 124a0 <__TMC_END__>
    6173:	5d                   	pop    %rbp
    6174:	c3                   	retq   
    6175:	0f 1f 00             	nopl   (%rax)
    6178:	c3                   	retq   
    6179:	0f 1f 80 00 00 00 00 	nopl   0x0(%rax)

0000000000006180 <frame_dummy>:
    6180:	f3 0f 1e fa          	endbr64 
    6184:	e9 77 ff ff ff       	jmpq   6100 <register_tm_clones>

0000000000006189 <platform_main_begin>:
    6189:	f3 0f 1e fa          	endbr64 
    618d:	55                   	push   %rbp
    618e:	48 89 e5             	mov    %rsp,%rbp
    6191:	90                   	nop
    6192:	5d                   	pop    %rbp
    6193:	c3                   	retq   

0000000000006194 <platform_main_end>:
    6194:	f3 0f 1e fa          	endbr64 
    6198:	55                   	push   %rbp
    6199:	48 89 e5             	mov    %rsp,%rbp
    619c:	48 83 ec 10          	sub    $0x10,%rsp
    61a0:	89 7d fc             	mov    %edi,-0x4(%rbp)
    61a3:	89 75 f8             	mov    %esi,-0x8(%rbp)
    61a6:	8b 45 fc             	mov    -0x4(%rbp),%eax
    61a9:	89 c6                	mov    %eax,%esi
    61ab:	48 8d 3d 6e 5e 00 00 	lea    0x5e6e(%rip),%rdi        # c020 <_IO_stdin_used+0x20>
    61b2:	b8 00 00 00 00       	mov    $0x0,%eax
    61b7:	e8 c4 fe ff ff       	callq  6080 <printf@plt>
    61bc:	90                   	nop
    61bd:	c9                   	leaveq 
    61be:	c3                   	retq   

00000000000061bf <safe_unary_minus_func_int8_t_s>:
    61bf:	f3 0f 1e fa          	endbr64 
    61c3:	55                   	push   %rbp
    61c4:	48 89 e5             	mov    %rsp,%rbp
    61c7:	89 f8                	mov    %edi,%eax
    61c9:	88 45 fc             	mov    %al,-0x4(%rbp)
    61cc:	0f b6 45 fc          	movzbl -0x4(%rbp),%eax
    61d0:	f7 d8                	neg    %eax
    61d2:	5d                   	pop    %rbp
    61d3:	c3                   	retq   

00000000000061d4 <safe_add_func_int8_t_s_s>:
    61d4:	f3 0f 1e fa          	endbr64 
    61d8:	55                   	push   %rbp
    61d9:	48 89 e5             	mov    %rsp,%rbp
    61dc:	89 fa                	mov    %edi,%edx
    61de:	89 f0                	mov    %esi,%eax
    61e0:	88 55 fc             	mov    %dl,-0x4(%rbp)
    61e3:	88 45 f8             	mov    %al,-0x8(%rbp)
    61e6:	0f b6 55 fc          	movzbl -0x4(%rbp),%edx
    61ea:	0f b6 45 f8          	movzbl -0x8(%rbp),%eax
    61ee:	01 d0                	add    %edx,%eax
    61f0:	5d                   	pop    %rbp
    61f1:	c3                   	retq   

00000000000061f2 <safe_sub_func_int8_t_s_s>:
    61f2:	f3 0f 1e fa          	endbr64 
    61f6:	55                   	push   %rbp
    61f7:	48 89 e5             	mov    %rsp,%rbp
    61fa:	89 fa                	mov    %edi,%edx
    61fc:	89 f0                	mov    %esi,%eax
    61fe:	88 55 fc             	mov    %dl,-0x4(%rbp)
    6201:	88 45 f8             	mov    %al,-0x8(%rbp)
    6204:	0f b6 55 fc          	movzbl -0x4(%rbp),%edx
    6208:	0f b6 45 f8          	movzbl -0x8(%rbp),%eax
    620c:	29 c2                	sub    %eax,%edx
    620e:	89 d0                	mov    %edx,%eax
    6210:	5d                   	pop    %rbp
    6211:	c3                   	retq   

0000000000006212 <safe_mul_func_int8_t_s_s>:
    6212:	f3 0f 1e fa          	endbr64 
    6216:	55                   	push   %rbp
    6217:	48 89 e5             	mov    %rsp,%rbp
    621a:	89 fa                	mov    %edi,%edx
    621c:	89 f0                	mov    %esi,%eax
    621e:	88 55 fc             	mov    %dl,-0x4(%rbp)
    6221:	88 45 f8             	mov    %al,-0x8(%rbp)
    6224:	0f b6 45 fc          	movzbl -0x4(%rbp),%eax
    6228:	0f b6 55 f8          	movzbl -0x8(%rbp),%edx
    622c:	0f af c2             	imul   %edx,%eax
    622f:	5d                   	pop    %rbp
    6230:	c3                   	retq   

0000000000006231 <safe_mod_func_int8_t_s_s>:
    6231:	f3 0f 1e fa          	endbr64 
    6235:	55                   	push   %rbp
    6236:	48 89 e5             	mov    %rsp,%rbp
    6239:	89 fa                	mov    %edi,%edx
    623b:	89 f0                	mov    %esi,%eax
    623d:	88 55 fc             	mov    %dl,-0x4(%rbp)
    6240:	88 45 f8             	mov    %al,-0x8(%rbp)
    6243:	80 7d f8 00          	cmpb   $0x0,-0x8(%rbp)
    6247:	74 1b                	je     6264 <safe_mod_func_int8_t_s_s+0x33>
    6249:	80 7d fc 80          	cmpb   $0x80,-0x4(%rbp)
    624d:	75 06                	jne    6255 <safe_mod_func_int8_t_s_s+0x24>
    624f:	80 7d f8 ff          	cmpb   $0xff,-0x8(%rbp)
    6253:	74 0f                	je     6264 <safe_mod_func_int8_t_s_s+0x33>
    6255:	0f be 45 fc          	movsbl -0x4(%rbp),%eax
    6259:	0f be 4d f8          	movsbl -0x8(%rbp),%ecx
    625d:	99                   	cltd   
    625e:	f7 f9                	idiv   %ecx
    6260:	89 d0                	mov    %edx,%eax
    6262:	eb 04                	jmp    6268 <safe_mod_func_int8_t_s_s+0x37>
    6264:	0f b6 45 fc          	movzbl -0x4(%rbp),%eax
    6268:	5d                   	pop    %rbp
    6269:	c3                   	retq   

000000000000626a <safe_div_func_int8_t_s_s>:
    626a:	f3 0f 1e fa          	endbr64 
    626e:	55                   	push   %rbp
    626f:	48 89 e5             	mov    %rsp,%rbp
    6272:	89 fa                	mov    %edi,%edx
    6274:	89 f0                	mov    %esi,%eax
    6276:	88 55 fc             	mov    %dl,-0x4(%rbp)
    6279:	88 45 f8             	mov    %al,-0x8(%rbp)
    627c:	80 7d f8 00          	cmpb   $0x0,-0x8(%rbp)
    6280:	74 19                	je     629b <safe_div_func_int8_t_s_s+0x31>
    6282:	80 7d fc 80          	cmpb   $0x80,-0x4(%rbp)
    6286:	75 06                	jne    628e <safe_div_func_int8_t_s_s+0x24>
    6288:	80 7d f8 ff          	cmpb   $0xff,-0x8(%rbp)
    628c:	74 0d                	je     629b <safe_div_func_int8_t_s_s+0x31>
    628e:	0f be 45 fc          	movsbl -0x4(%rbp),%eax
    6292:	0f be 4d f8          	movsbl -0x8(%rbp),%ecx
    6296:	99                   	cltd   
    6297:	f7 f9                	idiv   %ecx
    6299:	eb 04                	jmp    629f <safe_div_func_int8_t_s_s+0x35>
    629b:	0f b6 45 fc          	movzbl -0x4(%rbp),%eax
    629f:	5d                   	pop    %rbp
    62a0:	c3                   	retq   

00000000000062a1 <safe_lshift_func_int8_t_s_s>:
    62a1:	f3 0f 1e fa          	endbr64 
    62a5:	55                   	push   %rbp
    62a6:	48 89 e5             	mov    %rsp,%rbp
    62a9:	89 f8                	mov    %edi,%eax
    62ab:	89 75 f8             	mov    %esi,-0x8(%rbp)
    62ae:	88 45 fc             	mov    %al,-0x4(%rbp)
    62b1:	80 7d fc 00          	cmpb   $0x0,-0x4(%rbp)
    62b5:	78 31                	js     62e8 <safe_lshift_func_int8_t_s_s+0x47>
    62b7:	83 7d f8 00          	cmpl   $0x0,-0x8(%rbp)
    62bb:	78 2b                	js     62e8 <safe_lshift_func_int8_t_s_s+0x47>
    62bd:	83 7d f8 1f          	cmpl   $0x1f,-0x8(%rbp)
    62c1:	7f 25                	jg     62e8 <safe_lshift_func_int8_t_s_s+0x47>
    62c3:	0f be 55 fc          	movsbl -0x4(%rbp),%edx
    62c7:	8b 45 f8             	mov    -0x8(%rbp),%eax
    62ca:	be 7f 00 00 00       	mov    $0x7f,%esi
    62cf:	89 c1                	mov    %eax,%ecx
    62d1:	d3 fe                	sar    %cl,%esi
    62d3:	89 f0                	mov    %esi,%eax
    62d5:	39 c2                	cmp    %eax,%edx
    62d7:	7f 0f                	jg     62e8 <safe_lshift_func_int8_t_s_s+0x47>
    62d9:	0f be 55 fc          	movsbl -0x4(%rbp),%edx
    62dd:	8b 45 f8             	mov    -0x8(%rbp),%eax
    62e0:	89 c1                	mov    %eax,%ecx
    62e2:	d3 e2                	shl    %cl,%edx
    62e4:	89 d0                	mov    %edx,%eax
    62e6:	eb 04                	jmp    62ec <safe_lshift_func_int8_t_s_s+0x4b>
    62e8:	0f b6 45 fc          	movzbl -0x4(%rbp),%eax
    62ec:	5d                   	pop    %rbp
    62ed:	c3                   	retq   

00000000000062ee <safe_lshift_func_int8_t_s_u>:
    62ee:	f3 0f 1e fa          	endbr64 
    62f2:	55                   	push   %rbp
    62f3:	48 89 e5             	mov    %rsp,%rbp
    62f6:	89 f8                	mov    %edi,%eax
    62f8:	89 75 f8             	mov    %esi,-0x8(%rbp)
    62fb:	88 45 fc             	mov    %al,-0x4(%rbp)
    62fe:	80 7d fc 00          	cmpb   $0x0,-0x4(%rbp)
    6302:	78 2b                	js     632f <safe_lshift_func_int8_t_s_u+0x41>
    6304:	83 7d f8 1f          	cmpl   $0x1f,-0x8(%rbp)
    6308:	77 25                	ja     632f <safe_lshift_func_int8_t_s_u+0x41>
    630a:	0f be 55 fc          	movsbl -0x4(%rbp),%edx
    630e:	8b 45 f8             	mov    -0x8(%rbp),%eax
    6311:	be 7f 00 00 00       	mov    $0x7f,%esi
    6316:	89 c1                	mov    %eax,%ecx
    6318:	d3 fe                	sar    %cl,%esi
    631a:	89 f0                	mov    %esi,%eax
    631c:	39 c2                	cmp    %eax,%edx
    631e:	7f 0f                	jg     632f <safe_lshift_func_int8_t_s_u+0x41>
    6320:	0f be 55 fc          	movsbl -0x4(%rbp),%edx
    6324:	8b 45 f8             	mov    -0x8(%rbp),%eax
    6327:	89 c1                	mov    %eax,%ecx
    6329:	d3 e2                	shl    %cl,%edx
    632b:	89 d0                	mov    %edx,%eax
    632d:	eb 04                	jmp    6333 <safe_lshift_func_int8_t_s_u+0x45>
    632f:	0f b6 45 fc          	movzbl -0x4(%rbp),%eax
    6333:	5d                   	pop    %rbp
    6334:	c3                   	retq   

0000000000006335 <safe_rshift_func_int8_t_s_s>:
    6335:	f3 0f 1e fa          	endbr64 
    6339:	55                   	push   %rbp
    633a:	48 89 e5             	mov    %rsp,%rbp
    633d:	89 f8                	mov    %edi,%eax
    633f:	89 75 f8             	mov    %esi,-0x8(%rbp)
    6342:	88 45 fc             	mov    %al,-0x4(%rbp)
    6345:	80 7d fc 00          	cmpb   $0x0,-0x4(%rbp)
    6349:	78 1b                	js     6366 <safe_rshift_func_int8_t_s_s+0x31>
    634b:	83 7d f8 00          	cmpl   $0x0,-0x8(%rbp)
    634f:	78 15                	js     6366 <safe_rshift_func_int8_t_s_s+0x31>
    6351:	83 7d f8 1f          	cmpl   $0x1f,-0x8(%rbp)
    6355:	7f 0f                	jg     6366 <safe_rshift_func_int8_t_s_s+0x31>
    6357:	0f be 55 fc          	movsbl -0x4(%rbp),%edx
    635b:	8b 45 f8             	mov    -0x8(%rbp),%eax
    635e:	89 c1                	mov    %eax,%ecx
    6360:	d3 fa                	sar    %cl,%edx
    6362:	89 d0                	mov    %edx,%eax
    6364:	eb 04                	jmp    636a <safe_rshift_func_int8_t_s_s+0x35>
    6366:	0f b6 45 fc          	movzbl -0x4(%rbp),%eax
    636a:	5d                   	pop    %rbp
    636b:	c3                   	retq   

000000000000636c <safe_rshift_func_int8_t_s_u>:
    636c:	f3 0f 1e fa          	endbr64 
    6370:	55                   	push   %rbp
    6371:	48 89 e5             	mov    %rsp,%rbp
    6374:	89 f8                	mov    %edi,%eax
    6376:	89 75 f8             	mov    %esi,-0x8(%rbp)
    6379:	88 45 fc             	mov    %al,-0x4(%rbp)
    637c:	80 7d fc 00          	cmpb   $0x0,-0x4(%rbp)
    6380:	78 15                	js     6397 <safe_rshift_func_int8_t_s_u+0x2b>
    6382:	83 7d f8 1f          	cmpl   $0x1f,-0x8(%rbp)
    6386:	77 0f                	ja     6397 <safe_rshift_func_int8_t_s_u+0x2b>
    6388:	0f be 55 fc          	movsbl -0x4(%rbp),%edx
    638c:	8b 45 f8             	mov    -0x8(%rbp),%eax
    638f:	89 c1                	mov    %eax,%ecx
    6391:	d3 fa                	sar    %cl,%edx
    6393:	89 d0                	mov    %edx,%eax
    6395:	eb 04                	jmp    639b <safe_rshift_func_int8_t_s_u+0x2f>
    6397:	0f b6 45 fc          	movzbl -0x4(%rbp),%eax
    639b:	5d                   	pop    %rbp
    639c:	c3                   	retq   

000000000000639d <safe_unary_minus_func_int16_t_s>:
    639d:	f3 0f 1e fa          	endbr64 
    63a1:	55                   	push   %rbp
    63a2:	48 89 e5             	mov    %rsp,%rbp
    63a5:	89 f8                	mov    %edi,%eax
    63a7:	66 89 45 fc          	mov    %ax,-0x4(%rbp)
    63ab:	0f b7 45 fc          	movzwl -0x4(%rbp),%eax
    63af:	f7 d8                	neg    %eax
    63b1:	5d                   	pop    %rbp
    63b2:	c3                   	retq   

00000000000063b3 <safe_add_func_int16_t_s_s>:
    63b3:	f3 0f 1e fa          	endbr64 
    63b7:	55                   	push   %rbp
    63b8:	48 89 e5             	mov    %rsp,%rbp
    63bb:	89 fa                	mov    %edi,%edx
    63bd:	89 f0                	mov    %esi,%eax
    63bf:	66 89 55 fc          	mov    %dx,-0x4(%rbp)
    63c3:	66 89 45 f8          	mov    %ax,-0x8(%rbp)
    63c7:	0f b7 55 fc          	movzwl -0x4(%rbp),%edx
    63cb:	0f b7 45 f8          	movzwl -0x8(%rbp),%eax
    63cf:	01 d0                	add    %edx,%eax
    63d1:	5d                   	pop    %rbp
    63d2:	c3                   	retq   

00000000000063d3 <safe_sub_func_int16_t_s_s>:
    63d3:	f3 0f 1e fa          	endbr64 
    63d7:	55                   	push   %rbp
    63d8:	48 89 e5             	mov    %rsp,%rbp
    63db:	89 fa                	mov    %edi,%edx
    63dd:	89 f0                	mov    %esi,%eax
    63df:	66 89 55 fc          	mov    %dx,-0x4(%rbp)
    63e3:	66 89 45 f8          	mov    %ax,-0x8(%rbp)
    63e7:	0f b7 55 fc          	movzwl -0x4(%rbp),%edx
    63eb:	0f b7 45 f8          	movzwl -0x8(%rbp),%eax
    63ef:	29 c2                	sub    %eax,%edx
    63f1:	89 d0                	mov    %edx,%eax
    63f3:	5d                   	pop    %rbp
    63f4:	c3                   	retq   

00000000000063f5 <safe_mul_func_int16_t_s_s>:
    63f5:	f3 0f 1e fa          	endbr64 
    63f9:	55                   	push   %rbp
    63fa:	48 89 e5             	mov    %rsp,%rbp
    63fd:	89 fa                	mov    %edi,%edx
    63ff:	89 f0                	mov    %esi,%eax
    6401:	66 89 55 fc          	mov    %dx,-0x4(%rbp)
    6405:	66 89 45 f8          	mov    %ax,-0x8(%rbp)
    6409:	0f b7 55 fc          	movzwl -0x4(%rbp),%edx
    640d:	0f b7 45 f8          	movzwl -0x8(%rbp),%eax
    6411:	0f af c2             	imul   %edx,%eax
    6414:	5d                   	pop    %rbp
    6415:	c3                   	retq   

0000000000006416 <safe_mod_func_int16_t_s_s>:
    6416:	f3 0f 1e fa          	endbr64 
    641a:	55                   	push   %rbp
    641b:	48 89 e5             	mov    %rsp,%rbp
    641e:	89 fa                	mov    %edi,%edx
    6420:	89 f0                	mov    %esi,%eax
    6422:	66 89 55 fc          	mov    %dx,-0x4(%rbp)
    6426:	66 89 45 f8          	mov    %ax,-0x8(%rbp)
    642a:	66 83 7d f8 00       	cmpw   $0x0,-0x8(%rbp)
    642f:	74 1e                	je     644f <safe_mod_func_int16_t_s_s+0x39>
    6431:	66 81 7d fc 00 80    	cmpw   $0x8000,-0x4(%rbp)
    6437:	75 07                	jne    6440 <safe_mod_func_int16_t_s_s+0x2a>
    6439:	66 83 7d f8 ff       	cmpw   $0xffff,-0x8(%rbp)
    643e:	74 0f                	je     644f <safe_mod_func_int16_t_s_s+0x39>
    6440:	0f bf 45 fc          	movswl -0x4(%rbp),%eax
    6444:	0f bf 4d f8          	movswl -0x8(%rbp),%ecx
    6448:	99                   	cltd   
    6449:	f7 f9                	idiv   %ecx
    644b:	89 d0                	mov    %edx,%eax
    644d:	eb 04                	jmp    6453 <safe_mod_func_int16_t_s_s+0x3d>
    644f:	0f b7 45 fc          	movzwl -0x4(%rbp),%eax
    6453:	5d                   	pop    %rbp
    6454:	c3                   	retq   

0000000000006455 <safe_div_func_int16_t_s_s>:
    6455:	f3 0f 1e fa          	endbr64 
    6459:	55                   	push   %rbp
    645a:	48 89 e5             	mov    %rsp,%rbp
    645d:	89 fa                	mov    %edi,%edx
    645f:	89 f0                	mov    %esi,%eax
    6461:	66 89 55 fc          	mov    %dx,-0x4(%rbp)
    6465:	66 89 45 f8          	mov    %ax,-0x8(%rbp)
    6469:	66 83 7d f8 00       	cmpw   $0x0,-0x8(%rbp)
    646e:	74 1c                	je     648c <safe_div_func_int16_t_s_s+0x37>
    6470:	66 81 7d fc 00 80    	cmpw   $0x8000,-0x4(%rbp)
    6476:	75 07                	jne    647f <safe_div_func_int16_t_s_s+0x2a>
    6478:	66 83 7d f8 ff       	cmpw   $0xffff,-0x8(%rbp)
    647d:	74 0d                	je     648c <safe_div_func_int16_t_s_s+0x37>
    647f:	0f bf 45 fc          	movswl -0x4(%rbp),%eax
    6483:	0f bf 4d f8          	movswl -0x8(%rbp),%ecx
    6487:	99                   	cltd   
    6488:	f7 f9                	idiv   %ecx
    648a:	eb 04                	jmp    6490 <safe_div_func_int16_t_s_s+0x3b>
    648c:	0f b7 45 fc          	movzwl -0x4(%rbp),%eax
    6490:	5d                   	pop    %rbp
    6491:	c3                   	retq   

0000000000006492 <safe_lshift_func_int16_t_s_s>:
    6492:	f3 0f 1e fa          	endbr64 
    6496:	55                   	push   %rbp
    6497:	48 89 e5             	mov    %rsp,%rbp
    649a:	89 f8                	mov    %edi,%eax
    649c:	89 75 f8             	mov    %esi,-0x8(%rbp)
    649f:	66 89 45 fc          	mov    %ax,-0x4(%rbp)
    64a3:	66 83 7d fc 00       	cmpw   $0x0,-0x4(%rbp)
    64a8:	78 31                	js     64db <safe_lshift_func_int16_t_s_s+0x49>
    64aa:	83 7d f8 00          	cmpl   $0x0,-0x8(%rbp)
    64ae:	78 2b                	js     64db <safe_lshift_func_int16_t_s_s+0x49>
    64b0:	83 7d f8 1f          	cmpl   $0x1f,-0x8(%rbp)
    64b4:	7f 25                	jg     64db <safe_lshift_func_int16_t_s_s+0x49>
    64b6:	0f bf 55 fc          	movswl -0x4(%rbp),%edx
    64ba:	8b 45 f8             	mov    -0x8(%rbp),%eax
    64bd:	be ff 7f 00 00       	mov    $0x7fff,%esi
    64c2:	89 c1                	mov    %eax,%ecx
    64c4:	d3 fe                	sar    %cl,%esi
    64c6:	89 f0                	mov    %esi,%eax
    64c8:	39 c2                	cmp    %eax,%edx
    64ca:	7f 0f                	jg     64db <safe_lshift_func_int16_t_s_s+0x49>
    64cc:	0f bf 55 fc          	movswl -0x4(%rbp),%edx
    64d0:	8b 45 f8             	mov    -0x8(%rbp),%eax
    64d3:	89 c1                	mov    %eax,%ecx
    64d5:	d3 e2                	shl    %cl,%edx
    64d7:	89 d0                	mov    %edx,%eax
    64d9:	eb 04                	jmp    64df <safe_lshift_func_int16_t_s_s+0x4d>
    64db:	0f b7 45 fc          	movzwl -0x4(%rbp),%eax
    64df:	5d                   	pop    %rbp
    64e0:	c3                   	retq   

00000000000064e1 <safe_lshift_func_int16_t_s_u>:
    64e1:	f3 0f 1e fa          	endbr64 
    64e5:	55                   	push   %rbp
    64e6:	48 89 e5             	mov    %rsp,%rbp
    64e9:	89 f8                	mov    %edi,%eax
    64eb:	89 75 f8             	mov    %esi,-0x8(%rbp)
    64ee:	66 89 45 fc          	mov    %ax,-0x4(%rbp)
    64f2:	66 83 7d fc 00       	cmpw   $0x0,-0x4(%rbp)
    64f7:	78 2b                	js     6524 <safe_lshift_func_int16_t_s_u+0x43>
    64f9:	83 7d f8 1f          	cmpl   $0x1f,-0x8(%rbp)
    64fd:	77 25                	ja     6524 <safe_lshift_func_int16_t_s_u+0x43>
    64ff:	0f bf 55 fc          	movswl -0x4(%rbp),%edx
    6503:	8b 45 f8             	mov    -0x8(%rbp),%eax
    6506:	be ff 7f 00 00       	mov    $0x7fff,%esi
    650b:	89 c1                	mov    %eax,%ecx
    650d:	d3 fe                	sar    %cl,%esi
    650f:	89 f0                	mov    %esi,%eax
    6511:	39 c2                	cmp    %eax,%edx
    6513:	7f 0f                	jg     6524 <safe_lshift_func_int16_t_s_u+0x43>
    6515:	0f bf 55 fc          	movswl -0x4(%rbp),%edx
    6519:	8b 45 f8             	mov    -0x8(%rbp),%eax
    651c:	89 c1                	mov    %eax,%ecx
    651e:	d3 e2                	shl    %cl,%edx
    6520:	89 d0                	mov    %edx,%eax
    6522:	eb 04                	jmp    6528 <safe_lshift_func_int16_t_s_u+0x47>
    6524:	0f b7 45 fc          	movzwl -0x4(%rbp),%eax
    6528:	5d                   	pop    %rbp
    6529:	c3                   	retq   

000000000000652a <safe_rshift_func_int16_t_s_s>:
    652a:	f3 0f 1e fa          	endbr64 
    652e:	55                   	push   %rbp
    652f:	48 89 e5             	mov    %rsp,%rbp
    6532:	89 f8                	mov    %edi,%eax
    6534:	89 75 f8             	mov    %esi,-0x8(%rbp)
    6537:	66 89 45 fc          	mov    %ax,-0x4(%rbp)
    653b:	66 83 7d fc 00       	cmpw   $0x0,-0x4(%rbp)
    6540:	78 1b                	js     655d <safe_rshift_func_int16_t_s_s+0x33>
    6542:	83 7d f8 00          	cmpl   $0x0,-0x8(%rbp)
    6546:	78 15                	js     655d <safe_rshift_func_int16_t_s_s+0x33>
    6548:	83 7d f8 1f          	cmpl   $0x1f,-0x8(%rbp)
    654c:	7f 0f                	jg     655d <safe_rshift_func_int16_t_s_s+0x33>
    654e:	0f bf 55 fc          	movswl -0x4(%rbp),%edx
    6552:	8b 45 f8             	mov    -0x8(%rbp),%eax
    6555:	89 c1                	mov    %eax,%ecx
    6557:	d3 fa                	sar    %cl,%edx
    6559:	89 d0                	mov    %edx,%eax
    655b:	eb 04                	jmp    6561 <safe_rshift_func_int16_t_s_s+0x37>
    655d:	0f b7 45 fc          	movzwl -0x4(%rbp),%eax
    6561:	5d                   	pop    %rbp
    6562:	c3                   	retq   

0000000000006563 <safe_rshift_func_int16_t_s_u>:
    6563:	f3 0f 1e fa          	endbr64 
    6567:	55                   	push   %rbp
    6568:	48 89 e5             	mov    %rsp,%rbp
    656b:	89 f8                	mov    %edi,%eax
    656d:	89 75 f8             	mov    %esi,-0x8(%rbp)
    6570:	66 89 45 fc          	mov    %ax,-0x4(%rbp)
    6574:	66 83 7d fc 00       	cmpw   $0x0,-0x4(%rbp)
    6579:	78 15                	js     6590 <safe_rshift_func_int16_t_s_u+0x2d>
    657b:	83 7d f8 1f          	cmpl   $0x1f,-0x8(%rbp)
    657f:	77 0f                	ja     6590 <safe_rshift_func_int16_t_s_u+0x2d>
    6581:	0f bf 55 fc          	movswl -0x4(%rbp),%edx
    6585:	8b 45 f8             	mov    -0x8(%rbp),%eax
    6588:	89 c1                	mov    %eax,%ecx
    658a:	d3 fa                	sar    %cl,%edx
    658c:	89 d0                	mov    %edx,%eax
    658e:	eb 04                	jmp    6594 <safe_rshift_func_int16_t_s_u+0x31>
    6590:	0f b7 45 fc          	movzwl -0x4(%rbp),%eax
    6594:	5d                   	pop    %rbp
    6595:	c3                   	retq   

0000000000006596 <safe_unary_minus_func_int32_t_s>:
    6596:	f3 0f 1e fa          	endbr64 
    659a:	55                   	push   %rbp
    659b:	48 89 e5             	mov    %rsp,%rbp
    659e:	89 7d fc             	mov    %edi,-0x4(%rbp)
    65a1:	81 7d fc 00 00 00 80 	cmpl   $0x80000000,-0x4(%rbp)
    65a8:	74 07                	je     65b1 <safe_unary_minus_func_int32_t_s+0x1b>
    65aa:	8b 45 fc             	mov    -0x4(%rbp),%eax
    65ad:	f7 d8                	neg    %eax
    65af:	eb 03                	jmp    65b4 <safe_unary_minus_func_int32_t_s+0x1e>
    65b1:	8b 45 fc             	mov    -0x4(%rbp),%eax
    65b4:	5d                   	pop    %rbp
    65b5:	c3                   	retq   

00000000000065b6 <safe_add_func_int32_t_s_s>:
    65b6:	f3 0f 1e fa          	endbr64 
    65ba:	55                   	push   %rbp
    65bb:	48 89 e5             	mov    %rsp,%rbp
    65be:	89 7d fc             	mov    %edi,-0x4(%rbp)
    65c1:	89 75 f8             	mov    %esi,-0x8(%rbp)
    65c4:	83 7d fc 00          	cmpl   $0x0,-0x4(%rbp)
    65c8:	7e 13                	jle    65dd <safe_add_func_int32_t_s_s+0x27>
    65ca:	83 7d f8 00          	cmpl   $0x0,-0x8(%rbp)
    65ce:	7e 0d                	jle    65dd <safe_add_func_int32_t_s_s+0x27>
    65d0:	b8 ff ff ff 7f       	mov    $0x7fffffff,%eax
    65d5:	2b 45 f8             	sub    -0x8(%rbp),%eax
    65d8:	39 45 fc             	cmp    %eax,-0x4(%rbp)
    65db:	7f 23                	jg     6600 <safe_add_func_int32_t_s_s+0x4a>
    65dd:	83 7d fc 00          	cmpl   $0x0,-0x4(%rbp)
    65e1:	79 13                	jns    65f6 <safe_add_func_int32_t_s_s+0x40>
    65e3:	83 7d f8 00          	cmpl   $0x0,-0x8(%rbp)
    65e7:	79 0d                	jns    65f6 <safe_add_func_int32_t_s_s+0x40>
    65e9:	b8 00 00 00 80       	mov    $0x80000000,%eax
    65ee:	2b 45 f8             	sub    -0x8(%rbp),%eax
    65f1:	39 45 fc             	cmp    %eax,-0x4(%rbp)
    65f4:	7c 0a                	jl     6600 <safe_add_func_int32_t_s_s+0x4a>
    65f6:	8b 55 fc             	mov    -0x4(%rbp),%edx
    65f9:	8b 45 f8             	mov    -0x8(%rbp),%eax
    65fc:	01 d0                	add    %edx,%eax
    65fe:	eb 03                	jmp    6603 <safe_add_func_int32_t_s_s+0x4d>
    6600:	8b 45 fc             	mov    -0x4(%rbp),%eax
    6603:	5d                   	pop    %rbp
    6604:	c3                   	retq   

0000000000006605 <safe_sub_func_int32_t_s_s>:
    6605:	f3 0f 1e fa          	endbr64 
    6609:	55                   	push   %rbp
    660a:	48 89 e5             	mov    %rsp,%rbp
    660d:	89 7d fc             	mov    %edi,-0x4(%rbp)
    6610:	89 75 f8             	mov    %esi,-0x8(%rbp)
    6613:	8b 45 fc             	mov    -0x4(%rbp),%eax
    6616:	33 45 f8             	xor    -0x8(%rbp),%eax
    6619:	89 c2                	mov    %eax,%edx
    661b:	8b 45 fc             	mov    -0x4(%rbp),%eax
    661e:	33 45 f8             	xor    -0x8(%rbp),%eax
    6621:	25 00 00 00 80       	and    $0x80000000,%eax
    6626:	33 45 fc             	xor    -0x4(%rbp),%eax
    6629:	2b 45 f8             	sub    -0x8(%rbp),%eax
    662c:	33 45 f8             	xor    -0x8(%rbp),%eax
    662f:	21 d0                	and    %edx,%eax
    6631:	85 c0                	test   %eax,%eax
    6633:	78 08                	js     663d <safe_sub_func_int32_t_s_s+0x38>
    6635:	8b 45 fc             	mov    -0x4(%rbp),%eax
    6638:	2b 45 f8             	sub    -0x8(%rbp),%eax
    663b:	eb 03                	jmp    6640 <safe_sub_func_int32_t_s_s+0x3b>
    663d:	8b 45 fc             	mov    -0x4(%rbp),%eax
    6640:	5d                   	pop    %rbp
    6641:	c3                   	retq   

0000000000006642 <safe_mul_func_int32_t_s_s>:
    6642:	f3 0f 1e fa          	endbr64 
    6646:	55                   	push   %rbp
    6647:	48 89 e5             	mov    %rsp,%rbp
    664a:	89 7d fc             	mov    %edi,-0x4(%rbp)
    664d:	89 75 f8             	mov    %esi,-0x8(%rbp)
    6650:	83 7d fc 00          	cmpl   $0x0,-0x4(%rbp)
    6654:	7e 14                	jle    666a <safe_mul_func_int32_t_s_s+0x28>
    6656:	83 7d f8 00          	cmpl   $0x0,-0x8(%rbp)
    665a:	7e 0e                	jle    666a <safe_mul_func_int32_t_s_s+0x28>
    665c:	b8 ff ff ff 7f       	mov    $0x7fffffff,%eax
    6661:	99                   	cltd   
    6662:	f7 7d f8             	idivl  -0x8(%rbp)
    6665:	39 45 fc             	cmp    %eax,-0x4(%rbp)
    6668:	7f 5d                	jg     66c7 <safe_mul_func_int32_t_s_s+0x85>
    666a:	83 7d fc 00          	cmpl   $0x0,-0x4(%rbp)
    666e:	7e 14                	jle    6684 <safe_mul_func_int32_t_s_s+0x42>
    6670:	83 7d f8 00          	cmpl   $0x0,-0x8(%rbp)
    6674:	7f 0e                	jg     6684 <safe_mul_func_int32_t_s_s+0x42>
    6676:	b8 00 00 00 80       	mov    $0x80000000,%eax
    667b:	99                   	cltd   
    667c:	f7 7d fc             	idivl  -0x4(%rbp)
    667f:	39 45 f8             	cmp    %eax,-0x8(%rbp)
    6682:	7c 43                	jl     66c7 <safe_mul_func_int32_t_s_s+0x85>
    6684:	83 7d fc 00          	cmpl   $0x0,-0x4(%rbp)
    6688:	7f 14                	jg     669e <safe_mul_func_int32_t_s_s+0x5c>
    668a:	83 7d f8 00          	cmpl   $0x0,-0x8(%rbp)
    668e:	7e 0e                	jle    669e <safe_mul_func_int32_t_s_s+0x5c>
    6690:	b8 00 00 00 80       	mov    $0x80000000,%eax
    6695:	99                   	cltd   
    6696:	f7 7d f8             	idivl  -0x8(%rbp)
    6699:	39 45 fc             	cmp    %eax,-0x4(%rbp)
    669c:	7c 29                	jl     66c7 <safe_mul_func_int32_t_s_s+0x85>
    669e:	83 7d fc 00          	cmpl   $0x0,-0x4(%rbp)
    66a2:	7f 1a                	jg     66be <safe_mul_func_int32_t_s_s+0x7c>
    66a4:	83 7d f8 00          	cmpl   $0x0,-0x8(%rbp)
    66a8:	7f 14                	jg     66be <safe_mul_func_int32_t_s_s+0x7c>
    66aa:	83 7d fc 00          	cmpl   $0x0,-0x4(%rbp)
    66ae:	74 0e                	je     66be <safe_mul_func_int32_t_s_s+0x7c>
    66b0:	b8 ff ff ff 7f       	mov    $0x7fffffff,%eax
    66b5:	99                   	cltd   
    66b6:	f7 7d fc             	idivl  -0x4(%rbp)
    66b9:	39 45 f8             	cmp    %eax,-0x8(%rbp)
    66bc:	7c 09                	jl     66c7 <safe_mul_func_int32_t_s_s+0x85>
    66be:	8b 45 fc             	mov    -0x4(%rbp),%eax
    66c1:	0f af 45 f8          	imul   -0x8(%rbp),%eax
    66c5:	eb 03                	jmp    66ca <safe_mul_func_int32_t_s_s+0x88>
    66c7:	8b 45 fc             	mov    -0x4(%rbp),%eax
    66ca:	5d                   	pop    %rbp
    66cb:	c3                   	retq   

00000000000066cc <safe_mod_func_int32_t_s_s>:
    66cc:	f3 0f 1e fa          	endbr64 
    66d0:	55                   	push   %rbp
    66d1:	48 89 e5             	mov    %rsp,%rbp
    66d4:	89 7d fc             	mov    %edi,-0x4(%rbp)
    66d7:	89 75 f8             	mov    %esi,-0x8(%rbp)
    66da:	83 7d f8 00          	cmpl   $0x0,-0x8(%rbp)
    66de:	74 1a                	je     66fa <safe_mod_func_int32_t_s_s+0x2e>
    66e0:	81 7d fc 00 00 00 80 	cmpl   $0x80000000,-0x4(%rbp)
    66e7:	75 06                	jne    66ef <safe_mod_func_int32_t_s_s+0x23>
    66e9:	83 7d f8 ff          	cmpl   $0xffffffff,-0x8(%rbp)
    66ed:	74 0b                	je     66fa <safe_mod_func_int32_t_s_s+0x2e>
    66ef:	8b 45 fc             	mov    -0x4(%rbp),%eax
    66f2:	99                   	cltd   
    66f3:	f7 7d f8             	idivl  -0x8(%rbp)
    66f6:	89 d0                	mov    %edx,%eax
    66f8:	eb 03                	jmp    66fd <safe_mod_func_int32_t_s_s+0x31>
    66fa:	8b 45 fc             	mov    -0x4(%rbp),%eax
    66fd:	5d                   	pop    %rbp
    66fe:	c3                   	retq   

00000000000066ff <safe_div_func_int32_t_s_s>:
    66ff:	f3 0f 1e fa          	endbr64 
    6703:	55                   	push   %rbp
    6704:	48 89 e5             	mov    %rsp,%rbp
    6707:	89 7d fc             	mov    %edi,-0x4(%rbp)
    670a:	89 75 f8             	mov    %esi,-0x8(%rbp)
    670d:	83 7d f8 00          	cmpl   $0x0,-0x8(%rbp)
    6711:	74 18                	je     672b <safe_div_func_int32_t_s_s+0x2c>
    6713:	81 7d fc 00 00 00 80 	cmpl   $0x80000000,-0x4(%rbp)
    671a:	75 06                	jne    6722 <safe_div_func_int32_t_s_s+0x23>
    671c:	83 7d f8 ff          	cmpl   $0xffffffff,-0x8(%rbp)
    6720:	74 09                	je     672b <safe_div_func_int32_t_s_s+0x2c>
    6722:	8b 45 fc             	mov    -0x4(%rbp),%eax
    6725:	99                   	cltd   
    6726:	f7 7d f8             	idivl  -0x8(%rbp)
    6729:	eb 03                	jmp    672e <safe_div_func_int32_t_s_s+0x2f>
    672b:	8b 45 fc             	mov    -0x4(%rbp),%eax
    672e:	5d                   	pop    %rbp
    672f:	c3                   	retq   

0000000000006730 <safe_lshift_func_int32_t_s_s>:
    6730:	f3 0f 1e fa          	endbr64 
    6734:	55                   	push   %rbp
    6735:	48 89 e5             	mov    %rsp,%rbp
    6738:	89 7d fc             	mov    %edi,-0x4(%rbp)
    673b:	89 75 f8             	mov    %esi,-0x8(%rbp)
    673e:	83 7d fc 00          	cmpl   $0x0,-0x4(%rbp)
    6742:	78 2d                	js     6771 <safe_lshift_func_int32_t_s_s+0x41>
    6744:	83 7d f8 00          	cmpl   $0x0,-0x8(%rbp)
    6748:	78 27                	js     6771 <safe_lshift_func_int32_t_s_s+0x41>
    674a:	83 7d f8 1f          	cmpl   $0x1f,-0x8(%rbp)
    674e:	7f 21                	jg     6771 <safe_lshift_func_int32_t_s_s+0x41>
    6750:	8b 45 f8             	mov    -0x8(%rbp),%eax
    6753:	ba ff ff ff 7f       	mov    $0x7fffffff,%edx
    6758:	89 c1                	mov    %eax,%ecx
    675a:	d3 fa                	sar    %cl,%edx
    675c:	89 d0                	mov    %edx,%eax
    675e:	39 45 fc             	cmp    %eax,-0x4(%rbp)
    6761:	7f 0e                	jg     6771 <safe_lshift_func_int32_t_s_s+0x41>
    6763:	8b 45 f8             	mov    -0x8(%rbp),%eax
    6766:	8b 55 fc             	mov    -0x4(%rbp),%edx
    6769:	89 c1                	mov    %eax,%ecx
    676b:	d3 e2                	shl    %cl,%edx
    676d:	89 d0                	mov    %edx,%eax
    676f:	eb 03                	jmp    6774 <safe_lshift_func_int32_t_s_s+0x44>
    6771:	8b 45 fc             	mov    -0x4(%rbp),%eax
    6774:	5d                   	pop    %rbp
    6775:	c3                   	retq   

0000000000006776 <safe_lshift_func_int32_t_s_u>:
    6776:	f3 0f 1e fa          	endbr64 
    677a:	55                   	push   %rbp
    677b:	48 89 e5             	mov    %rsp,%rbp
    677e:	89 7d fc             	mov    %edi,-0x4(%rbp)
    6781:	89 75 f8             	mov    %esi,-0x8(%rbp)
    6784:	83 7d fc 00          	cmpl   $0x0,-0x4(%rbp)
    6788:	78 27                	js     67b1 <safe_lshift_func_int32_t_s_u+0x3b>
    678a:	83 7d f8 1f          	cmpl   $0x1f,-0x8(%rbp)
    678e:	77 21                	ja     67b1 <safe_lshift_func_int32_t_s_u+0x3b>
    6790:	8b 45 f8             	mov    -0x8(%rbp),%eax
    6793:	ba ff ff ff 7f       	mov    $0x7fffffff,%edx
    6798:	89 c1                	mov    %eax,%ecx
    679a:	d3 fa                	sar    %cl,%edx
    679c:	89 d0                	mov    %edx,%eax
    679e:	39 45 fc             	cmp    %eax,-0x4(%rbp)
    67a1:	7f 0e                	jg     67b1 <safe_lshift_func_int32_t_s_u+0x3b>
    67a3:	8b 45 f8             	mov    -0x8(%rbp),%eax
    67a6:	8b 55 fc             	mov    -0x4(%rbp),%edx
    67a9:	89 c1                	mov    %eax,%ecx
    67ab:	d3 e2                	shl    %cl,%edx
    67ad:	89 d0                	mov    %edx,%eax
    67af:	eb 03                	jmp    67b4 <safe_lshift_func_int32_t_s_u+0x3e>
    67b1:	8b 45 fc             	mov    -0x4(%rbp),%eax
    67b4:	5d                   	pop    %rbp
    67b5:	c3                   	retq   

00000000000067b6 <safe_rshift_func_int32_t_s_s>:
    67b6:	f3 0f 1e fa          	endbr64 
    67ba:	55                   	push   %rbp
    67bb:	48 89 e5             	mov    %rsp,%rbp
    67be:	89 7d fc             	mov    %edi,-0x4(%rbp)
    67c1:	89 75 f8             	mov    %esi,-0x8(%rbp)
    67c4:	83 7d fc 00          	cmpl   $0x0,-0x4(%rbp)
    67c8:	78 1a                	js     67e4 <safe_rshift_func_int32_t_s_s+0x2e>
    67ca:	83 7d f8 00          	cmpl   $0x0,-0x8(%rbp)
    67ce:	78 14                	js     67e4 <safe_rshift_func_int32_t_s_s+0x2e>
    67d0:	83 7d f8 1f          	cmpl   $0x1f,-0x8(%rbp)
    67d4:	7f 0e                	jg     67e4 <safe_rshift_func_int32_t_s_s+0x2e>
    67d6:	8b 45 f8             	mov    -0x8(%rbp),%eax
    67d9:	8b 55 fc             	mov    -0x4(%rbp),%edx
    67dc:	89 c1                	mov    %eax,%ecx
    67de:	d3 fa                	sar    %cl,%edx
    67e0:	89 d0                	mov    %edx,%eax
    67e2:	eb 03                	jmp    67e7 <safe_rshift_func_int32_t_s_s+0x31>
    67e4:	8b 45 fc             	mov    -0x4(%rbp),%eax
    67e7:	5d                   	pop    %rbp
    67e8:	c3                   	retq   

00000000000067e9 <safe_rshift_func_int32_t_s_u>:
    67e9:	f3 0f 1e fa          	endbr64 
    67ed:	55                   	push   %rbp
    67ee:	48 89 e5             	mov    %rsp,%rbp
    67f1:	89 7d fc             	mov    %edi,-0x4(%rbp)
    67f4:	89 75 f8             	mov    %esi,-0x8(%rbp)
    67f7:	83 7d fc 00          	cmpl   $0x0,-0x4(%rbp)
    67fb:	78 14                	js     6811 <safe_rshift_func_int32_t_s_u+0x28>
    67fd:	83 7d f8 1f          	cmpl   $0x1f,-0x8(%rbp)
    6801:	77 0e                	ja     6811 <safe_rshift_func_int32_t_s_u+0x28>
    6803:	8b 45 f8             	mov    -0x8(%rbp),%eax
    6806:	8b 55 fc             	mov    -0x4(%rbp),%edx
    6809:	89 c1                	mov    %eax,%ecx
    680b:	d3 fa                	sar    %cl,%edx
    680d:	89 d0                	mov    %edx,%eax
    680f:	eb 03                	jmp    6814 <safe_rshift_func_int32_t_s_u+0x2b>
    6811:	8b 45 fc             	mov    -0x4(%rbp),%eax
    6814:	5d                   	pop    %rbp
    6815:	c3                   	retq   

0000000000006816 <safe_unary_minus_func_int64_t_s>:
    6816:	f3 0f 1e fa          	endbr64 
    681a:	55                   	push   %rbp
    681b:	48 89 e5             	mov    %rsp,%rbp
    681e:	48 89 7d f8          	mov    %rdi,-0x8(%rbp)
    6822:	48 b8 00 00 00 00 00 	movabs $0x8000000000000000,%rax
    6829:	00 00 80 
    682c:	48 39 45 f8          	cmp    %rax,-0x8(%rbp)
    6830:	74 09                	je     683b <safe_unary_minus_func_int64_t_s+0x25>
    6832:	48 8b 45 f8          	mov    -0x8(%rbp),%rax
    6836:	48 f7 d8             	neg    %rax
    6839:	eb 04                	jmp    683f <safe_unary_minus_func_int64_t_s+0x29>
    683b:	48 8b 45 f8          	mov    -0x8(%rbp),%rax
    683f:	5d                   	pop    %rbp
    6840:	c3                   	retq   

0000000000006841 <safe_add_func_int64_t_s_s>:
    6841:	f3 0f 1e fa          	endbr64 
    6845:	55                   	push   %rbp
    6846:	48 89 e5             	mov    %rsp,%rbp
    6849:	48 89 7d f8          	mov    %rdi,-0x8(%rbp)
    684d:	48 89 75 f0          	mov    %rsi,-0x10(%rbp)
    6851:	48 83 7d f8 00       	cmpq   $0x0,-0x8(%rbp)
    6856:	7e 1b                	jle    6873 <safe_add_func_int64_t_s_s+0x32>
    6858:	48 83 7d f0 00       	cmpq   $0x0,-0x10(%rbp)
    685d:	7e 14                	jle    6873 <safe_add_func_int64_t_s_s+0x32>
    685f:	48 b8 ff ff ff ff ff 	movabs $0x7fffffffffffffff,%rax
    6866:	ff ff 7f 
    6869:	48 2b 45 f0          	sub    -0x10(%rbp),%rax
    686d:	48 39 45 f8          	cmp    %rax,-0x8(%rbp)
    6871:	7f 2f                	jg     68a2 <safe_add_func_int64_t_s_s+0x61>
    6873:	48 83 7d f8 00       	cmpq   $0x0,-0x8(%rbp)
    6878:	79 1b                	jns    6895 <safe_add_func_int64_t_s_s+0x54>
    687a:	48 83 7d f0 00       	cmpq   $0x0,-0x10(%rbp)
    687f:	79 14                	jns    6895 <safe_add_func_int64_t_s_s+0x54>
    6881:	48 b8 00 00 00 00 00 	movabs $0x8000000000000000,%rax
    6888:	00 00 80 
    688b:	48 2b 45 f0          	sub    -0x10(%rbp),%rax
    688f:	48 39 45 f8          	cmp    %rax,-0x8(%rbp)
    6893:	7c 0d                	jl     68a2 <safe_add_func_int64_t_s_s+0x61>
    6895:	48 8b 55 f8          	mov    -0x8(%rbp),%rdx
    6899:	48 8b 45 f0          	mov    -0x10(%rbp),%rax
    689d:	48 01 d0             	add    %rdx,%rax
    68a0:	eb 04                	jmp    68a6 <safe_add_func_int64_t_s_s+0x65>
    68a2:	48 8b 45 f8          	mov    -0x8(%rbp),%rax
    68a6:	5d                   	pop    %rbp
    68a7:	c3                   	retq   

00000000000068a8 <safe_sub_func_int64_t_s_s>:
    68a8:	f3 0f 1e fa          	endbr64 
    68ac:	55                   	push   %rbp
    68ad:	48 89 e5             	mov    %rsp,%rbp
    68b0:	48 89 7d f8          	mov    %rdi,-0x8(%rbp)
    68b4:	48 89 75 f0          	mov    %rsi,-0x10(%rbp)
    68b8:	48 8b 45 f8          	mov    -0x8(%rbp),%rax
    68bc:	48 33 45 f0          	xor    -0x10(%rbp),%rax
    68c0:	48 89 c2             	mov    %rax,%rdx
    68c3:	48 8b 45 f8          	mov    -0x8(%rbp),%rax
    68c7:	48 33 45 f0          	xor    -0x10(%rbp),%rax
    68cb:	48 b9 00 00 00 00 00 	movabs $0x8000000000000000,%rcx
    68d2:	00 00 80 
    68d5:	48 21 c8             	and    %rcx,%rax
    68d8:	48 33 45 f8          	xor    -0x8(%rbp),%rax
    68dc:	48 2b 45 f0          	sub    -0x10(%rbp),%rax
    68e0:	48 33 45 f0          	xor    -0x10(%rbp),%rax
    68e4:	48 21 d0             	and    %rdx,%rax
    68e7:	48 85 c0             	test   %rax,%rax
    68ea:	78 0a                	js     68f6 <safe_sub_func_int64_t_s_s+0x4e>
    68ec:	48 8b 45 f8          	mov    -0x8(%rbp),%rax
    68f0:	48 2b 45 f0          	sub    -0x10(%rbp),%rax
    68f4:	eb 04                	jmp    68fa <safe_sub_func_int64_t_s_s+0x52>
    68f6:	48 8b 45 f8          	mov    -0x8(%rbp),%rax
    68fa:	5d                   	pop    %rbp
    68fb:	c3                   	retq   

00000000000068fc <safe_mul_func_int64_t_s_s>:
    68fc:	f3 0f 1e fa          	endbr64 
    6900:	55                   	push   %rbp
    6901:	48 89 e5             	mov    %rsp,%rbp
    6904:	48 89 7d f8          	mov    %rdi,-0x8(%rbp)
    6908:	48 89 75 f0          	mov    %rsi,-0x10(%rbp)
    690c:	48 83 7d f8 00       	cmpq   $0x0,-0x8(%rbp)
    6911:	7e 1d                	jle    6930 <safe_mul_func_int64_t_s_s+0x34>
    6913:	48 83 7d f0 00       	cmpq   $0x0,-0x10(%rbp)
    6918:	7e 16                	jle    6930 <safe_mul_func_int64_t_s_s+0x34>
    691a:	48 b8 ff ff ff ff ff 	movabs $0x7fffffffffffffff,%rax
    6921:	ff ff 7f 
    6924:	48 99                	cqto   
    6926:	48 f7 7d f0          	idivq  -0x10(%rbp)
    692a:	48 39 45 f8          	cmp    %rax,-0x8(%rbp)
    692e:	7f 7e                	jg     69ae <safe_mul_func_int64_t_s_s+0xb2>
    6930:	48 83 7d f8 00       	cmpq   $0x0,-0x8(%rbp)
    6935:	7e 1d                	jle    6954 <safe_mul_func_int64_t_s_s+0x58>
    6937:	48 83 7d f0 00       	cmpq   $0x0,-0x10(%rbp)
    693c:	7f 16                	jg     6954 <safe_mul_func_int64_t_s_s+0x58>
    693e:	48 b8 00 00 00 00 00 	movabs $0x8000000000000000,%rax
    6945:	00 00 80 
    6948:	48 99                	cqto   
    694a:	48 f7 7d f8          	idivq  -0x8(%rbp)
    694e:	48 39 45 f0          	cmp    %rax,-0x10(%rbp)
    6952:	7c 5a                	jl     69ae <safe_mul_func_int64_t_s_s+0xb2>
    6954:	48 83 7d f8 00       	cmpq   $0x0,-0x8(%rbp)
    6959:	7f 1d                	jg     6978 <safe_mul_func_int64_t_s_s+0x7c>
    695b:	48 83 7d f0 00       	cmpq   $0x0,-0x10(%rbp)
    6960:	7e 16                	jle    6978 <safe_mul_func_int64_t_s_s+0x7c>
    6962:	48 b8 00 00 00 00 00 	movabs $0x8000000000000000,%rax
    6969:	00 00 80 
    696c:	48 99                	cqto   
    696e:	48 f7 7d f0          	idivq  -0x10(%rbp)
    6972:	48 39 45 f8          	cmp    %rax,-0x8(%rbp)
    6976:	7c 36                	jl     69ae <safe_mul_func_int64_t_s_s+0xb2>
    6978:	48 83 7d f8 00       	cmpq   $0x0,-0x8(%rbp)
    697d:	7f 24                	jg     69a3 <safe_mul_func_int64_t_s_s+0xa7>
    697f:	48 83 7d f0 00       	cmpq   $0x0,-0x10(%rbp)
    6984:	7f 1d                	jg     69a3 <safe_mul_func_int64_t_s_s+0xa7>
    6986:	48 83 7d f8 00       	cmpq   $0x0,-0x8(%rbp)
    698b:	74 16                	je     69a3 <safe_mul_func_int64_t_s_s+0xa7>
    698d:	48 b8 ff ff ff ff ff 	movabs $0x7fffffffffffffff,%rax
    6994:	ff ff 7f 
    6997:	48 99                	cqto   
    6999:	48 f7 7d f8          	idivq  -0x8(%rbp)
    699d:	48 39 45 f0          	cmp    %rax,-0x10(%rbp)
    69a1:	7c 0b                	jl     69ae <safe_mul_func_int64_t_s_s+0xb2>
    69a3:	48 8b 45 f8          	mov    -0x8(%rbp),%rax
    69a7:	48 0f af 45 f0       	imul   -0x10(%rbp),%rax
    69ac:	eb 04                	jmp    69b2 <safe_mul_func_int64_t_s_s+0xb6>
    69ae:	48 8b 45 f8          	mov    -0x8(%rbp),%rax
    69b2:	5d                   	pop    %rbp
    69b3:	c3                   	retq   

00000000000069b4 <safe_mod_func_int64_t_s_s>:
    69b4:	f3 0f 1e fa          	endbr64 
    69b8:	55                   	push   %rbp
    69b9:	48 89 e5             	mov    %rsp,%rbp
    69bc:	48 89 7d f8          	mov    %rdi,-0x8(%rbp)
    69c0:	48 89 75 f0          	mov    %rsi,-0x10(%rbp)
    69c4:	48 83 7d f0 00       	cmpq   $0x0,-0x10(%rbp)
    69c9:	74 26                	je     69f1 <safe_mod_func_int64_t_s_s+0x3d>
    69cb:	48 b8 00 00 00 00 00 	movabs $0x8000000000000000,%rax
    69d2:	00 00 80 
    69d5:	48 39 45 f8          	cmp    %rax,-0x8(%rbp)
    69d9:	75 07                	jne    69e2 <safe_mod_func_int64_t_s_s+0x2e>
    69db:	48 83 7d f0 ff       	cmpq   $0xffffffffffffffff,-0x10(%rbp)
    69e0:	74 0f                	je     69f1 <safe_mod_func_int64_t_s_s+0x3d>
    69e2:	48 8b 45 f8          	mov    -0x8(%rbp),%rax
    69e6:	48 99                	cqto   
    69e8:	48 f7 7d f0          	idivq  -0x10(%rbp)
    69ec:	48 89 d0             	mov    %rdx,%rax
    69ef:	eb 04                	jmp    69f5 <safe_mod_func_int64_t_s_s+0x41>
    69f1:	48 8b 45 f8          	mov    -0x8(%rbp),%rax
    69f5:	5d                   	pop    %rbp
    69f6:	c3                   	retq   

00000000000069f7 <safe_div_func_int64_t_s_s>:
    69f7:	f3 0f 1e fa          	endbr64 
    69fb:	55                   	push   %rbp
    69fc:	48 89 e5             	mov    %rsp,%rbp
    69ff:	48 89 7d f8          	mov    %rdi,-0x8(%rbp)
    6a03:	48 89 75 f0          	mov    %rsi,-0x10(%rbp)
    6a07:	48 83 7d f0 00       	cmpq   $0x0,-0x10(%rbp)
    6a0c:	74 23                	je     6a31 <safe_div_func_int64_t_s_s+0x3a>
    6a0e:	48 b8 00 00 00 00 00 	movabs $0x8000000000000000,%rax
    6a15:	00 00 80 
    6a18:	48 39 45 f8          	cmp    %rax,-0x8(%rbp)
    6a1c:	75 07                	jne    6a25 <safe_div_func_int64_t_s_s+0x2e>
    6a1e:	48 83 7d f0 ff       	cmpq   $0xffffffffffffffff,-0x10(%rbp)
    6a23:	74 0c                	je     6a31 <safe_div_func_int64_t_s_s+0x3a>
    6a25:	48 8b 45 f8          	mov    -0x8(%rbp),%rax
    6a29:	48 99                	cqto   
    6a2b:	48 f7 7d f0          	idivq  -0x10(%rbp)
    6a2f:	eb 04                	jmp    6a35 <safe_div_func_int64_t_s_s+0x3e>
    6a31:	48 8b 45 f8          	mov    -0x8(%rbp),%rax
    6a35:	5d                   	pop    %rbp
    6a36:	c3                   	retq   

0000000000006a37 <safe_lshift_func_int64_t_s_s>:
    6a37:	f3 0f 1e fa          	endbr64 
    6a3b:	55                   	push   %rbp
    6a3c:	48 89 e5             	mov    %rsp,%rbp
    6a3f:	48 89 7d f8          	mov    %rdi,-0x8(%rbp)
    6a43:	89 75 f4             	mov    %esi,-0xc(%rbp)
    6a46:	48 83 7d f8 00       	cmpq   $0x0,-0x8(%rbp)
    6a4b:	78 38                	js     6a85 <safe_lshift_func_int64_t_s_s+0x4e>
    6a4d:	83 7d f4 00          	cmpl   $0x0,-0xc(%rbp)
    6a51:	78 32                	js     6a85 <safe_lshift_func_int64_t_s_s+0x4e>
    6a53:	83 7d f4 1f          	cmpl   $0x1f,-0xc(%rbp)
    6a57:	7f 2c                	jg     6a85 <safe_lshift_func_int64_t_s_s+0x4e>
    6a59:	8b 45 f4             	mov    -0xc(%rbp),%eax
    6a5c:	48 ba ff ff ff ff ff 	movabs $0x7fffffffffffffff,%rdx
    6a63:	ff ff 7f 
    6a66:	89 c1                	mov    %eax,%ecx
    6a68:	48 d3 fa             	sar    %cl,%rdx
    6a6b:	48 89 d0             	mov    %rdx,%rax
    6a6e:	48 39 45 f8          	cmp    %rax,-0x8(%rbp)
    6a72:	7f 11                	jg     6a85 <safe_lshift_func_int64_t_s_s+0x4e>
    6a74:	8b 45 f4             	mov    -0xc(%rbp),%eax
    6a77:	48 8b 55 f8          	mov    -0x8(%rbp),%rdx
    6a7b:	89 c1                	mov    %eax,%ecx
    6a7d:	48 d3 e2             	shl    %cl,%rdx
    6a80:	48 89 d0             	mov    %rdx,%rax
    6a83:	eb 04                	jmp    6a89 <safe_lshift_func_int64_t_s_s+0x52>
    6a85:	48 8b 45 f8          	mov    -0x8(%rbp),%rax
    6a89:	5d                   	pop    %rbp
    6a8a:	c3                   	retq   

0000000000006a8b <safe_lshift_func_int64_t_s_u>:
    6a8b:	f3 0f 1e fa          	endbr64 
    6a8f:	55                   	push   %rbp
    6a90:	48 89 e5             	mov    %rsp,%rbp
    6a93:	48 89 7d f8          	mov    %rdi,-0x8(%rbp)
    6a97:	89 75 f4             	mov    %esi,-0xc(%rbp)
    6a9a:	48 83 7d f8 00       	cmpq   $0x0,-0x8(%rbp)
    6a9f:	78 32                	js     6ad3 <safe_lshift_func_int64_t_s_u+0x48>
    6aa1:	83 7d f4 1f          	cmpl   $0x1f,-0xc(%rbp)
    6aa5:	77 2c                	ja     6ad3 <safe_lshift_func_int64_t_s_u+0x48>
    6aa7:	8b 45 f4             	mov    -0xc(%rbp),%eax
    6aaa:	48 ba ff ff ff ff ff 	movabs $0x7fffffffffffffff,%rdx
    6ab1:	ff ff 7f 
    6ab4:	89 c1                	mov    %eax,%ecx
    6ab6:	48 d3 fa             	sar    %cl,%rdx
    6ab9:	48 89 d0             	mov    %rdx,%rax
    6abc:	48 39 45 f8          	cmp    %rax,-0x8(%rbp)
    6ac0:	7f 11                	jg     6ad3 <safe_lshift_func_int64_t_s_u+0x48>
    6ac2:	8b 45 f4             	mov    -0xc(%rbp),%eax
    6ac5:	48 8b 55 f8          	mov    -0x8(%rbp),%rdx
    6ac9:	89 c1                	mov    %eax,%ecx
    6acb:	48 d3 e2             	shl    %cl,%rdx
    6ace:	48 89 d0             	mov    %rdx,%rax
    6ad1:	eb 04                	jmp    6ad7 <safe_lshift_func_int64_t_s_u+0x4c>
    6ad3:	48 8b 45 f8          	mov    -0x8(%rbp),%rax
    6ad7:	5d                   	pop    %rbp
    6ad8:	c3                   	retq   

0000000000006ad9 <safe_rshift_func_int64_t_s_s>:
    6ad9:	f3 0f 1e fa          	endbr64 
    6add:	55                   	push   %rbp
    6ade:	48 89 e5             	mov    %rsp,%rbp
    6ae1:	48 89 7d f8          	mov    %rdi,-0x8(%rbp)
    6ae5:	89 75 f4             	mov    %esi,-0xc(%rbp)
    6ae8:	48 83 7d f8 00       	cmpq   $0x0,-0x8(%rbp)
    6aed:	78 1d                	js     6b0c <safe_rshift_func_int64_t_s_s+0x33>
    6aef:	83 7d f4 00          	cmpl   $0x0,-0xc(%rbp)
    6af3:	78 17                	js     6b0c <safe_rshift_func_int64_t_s_s+0x33>
    6af5:	83 7d f4 1f          	cmpl   $0x1f,-0xc(%rbp)
    6af9:	7f 11                	jg     6b0c <safe_rshift_func_int64_t_s_s+0x33>
    6afb:	8b 45 f4             	mov    -0xc(%rbp),%eax
    6afe:	48 8b 55 f8          	mov    -0x8(%rbp),%rdx
    6b02:	89 c1                	mov    %eax,%ecx
    6b04:	48 d3 fa             	sar    %cl,%rdx
    6b07:	48 89 d0             	mov    %rdx,%rax
    6b0a:	eb 04                	jmp    6b10 <safe_rshift_func_int64_t_s_s+0x37>
    6b0c:	48 8b 45 f8          	mov    -0x8(%rbp),%rax
    6b10:	5d                   	pop    %rbp
    6b11:	c3                   	retq   

0000000000006b12 <safe_rshift_func_int64_t_s_u>:
    6b12:	f3 0f 1e fa          	endbr64 
    6b16:	55                   	push   %rbp
    6b17:	48 89 e5             	mov    %rsp,%rbp
    6b1a:	48 89 7d f8          	mov    %rdi,-0x8(%rbp)
    6b1e:	89 75 f4             	mov    %esi,-0xc(%rbp)
    6b21:	48 83 7d f8 00       	cmpq   $0x0,-0x8(%rbp)
    6b26:	78 17                	js     6b3f <safe_rshift_func_int64_t_s_u+0x2d>
    6b28:	83 7d f4 1f          	cmpl   $0x1f,-0xc(%rbp)
    6b2c:	77 11                	ja     6b3f <safe_rshift_func_int64_t_s_u+0x2d>
    6b2e:	8b 45 f4             	mov    -0xc(%rbp),%eax
    6b31:	48 8b 55 f8          	mov    -0x8(%rbp),%rdx
    6b35:	89 c1                	mov    %eax,%ecx
    6b37:	48 d3 fa             	sar    %cl,%rdx
    6b3a:	48 89 d0             	mov    %rdx,%rax
    6b3d:	eb 04                	jmp    6b43 <safe_rshift_func_int64_t_s_u+0x31>
    6b3f:	48 8b 45 f8          	mov    -0x8(%rbp),%rax
    6b43:	5d                   	pop    %rbp
    6b44:	c3                   	retq   

0000000000006b45 <safe_unary_minus_func_uint8_t_u>:
    6b45:	f3 0f 1e fa          	endbr64 
    6b49:	55                   	push   %rbp
    6b4a:	48 89 e5             	mov    %rsp,%rbp
    6b4d:	89 f8                	mov    %edi,%eax
    6b4f:	88 45 fc             	mov    %al,-0x4(%rbp)
    6b52:	0f b6 45 fc          	movzbl -0x4(%rbp),%eax
    6b56:	f7 d8                	neg    %eax
    6b58:	5d                   	pop    %rbp
    6b59:	c3                   	retq   

0000000000006b5a <safe_add_func_uint8_t_u_u>:
    6b5a:	f3 0f 1e fa          	endbr64 
    6b5e:	55                   	push   %rbp
    6b5f:	48 89 e5             	mov    %rsp,%rbp
    6b62:	89 fa                	mov    %edi,%edx
    6b64:	89 f0                	mov    %esi,%eax
    6b66:	88 55 fc             	mov    %dl,-0x4(%rbp)
    6b69:	88 45 f8             	mov    %al,-0x8(%rbp)
    6b6c:	0f b6 55 fc          	movzbl -0x4(%rbp),%edx
    6b70:	0f b6 45 f8          	movzbl -0x8(%rbp),%eax
    6b74:	01 d0                	add    %edx,%eax
    6b76:	5d                   	pop    %rbp
    6b77:	c3                   	retq   

0000000000006b78 <safe_sub_func_uint8_t_u_u>:
    6b78:	f3 0f 1e fa          	endbr64 
    6b7c:	55                   	push   %rbp
    6b7d:	48 89 e5             	mov    %rsp,%rbp
    6b80:	89 fa                	mov    %edi,%edx
    6b82:	89 f0                	mov    %esi,%eax
    6b84:	88 55 fc             	mov    %dl,-0x4(%rbp)
    6b87:	88 45 f8             	mov    %al,-0x8(%rbp)
    6b8a:	0f b6 45 fc          	movzbl -0x4(%rbp),%eax
    6b8e:	2a 45 f8             	sub    -0x8(%rbp),%al
    6b91:	5d                   	pop    %rbp
    6b92:	c3                   	retq   

0000000000006b93 <safe_mul_func_uint8_t_u_u>:
    6b93:	f3 0f 1e fa          	endbr64 
    6b97:	55                   	push   %rbp
    6b98:	48 89 e5             	mov    %rsp,%rbp
    6b9b:	89 fa                	mov    %edi,%edx
    6b9d:	89 f0                	mov    %esi,%eax
    6b9f:	88 55 fc             	mov    %dl,-0x4(%rbp)
    6ba2:	88 45 f8             	mov    %al,-0x8(%rbp)
    6ba5:	0f b6 45 fc          	movzbl -0x4(%rbp),%eax
    6ba9:	f6 65 f8             	mulb   -0x8(%rbp)
    6bac:	5d                   	pop    %rbp
    6bad:	c3                   	retq   

0000000000006bae <safe_mod_func_uint8_t_u_u>:
    6bae:	f3 0f 1e fa          	endbr64 
    6bb2:	55                   	push   %rbp
    6bb3:	48 89 e5             	mov    %rsp,%rbp
    6bb6:	89 fa                	mov    %edi,%edx
    6bb8:	89 f0                	mov    %esi,%eax
    6bba:	88 55 fc             	mov    %dl,-0x4(%rbp)
    6bbd:	88 45 f8             	mov    %al,-0x8(%rbp)
    6bc0:	80 7d f8 00          	cmpb   $0x0,-0x8(%rbp)
    6bc4:	74 0f                	je     6bd5 <safe_mod_func_uint8_t_u_u+0x27>
    6bc6:	0f b6 45 fc          	movzbl -0x4(%rbp),%eax
    6bca:	0f b6 c0             	movzbl %al,%eax
    6bcd:	f6 75 f8             	divb   -0x8(%rbp)
    6bd0:	0f b6 c4             	movzbl %ah,%eax
    6bd3:	eb 04                	jmp    6bd9 <safe_mod_func_uint8_t_u_u+0x2b>
    6bd5:	0f b6 45 fc          	movzbl -0x4(%rbp),%eax
    6bd9:	5d                   	pop    %rbp
    6bda:	c3                   	retq   

0000000000006bdb <safe_div_func_uint8_t_u_u>:
    6bdb:	f3 0f 1e fa          	endbr64 
    6bdf:	55                   	push   %rbp
    6be0:	48 89 e5             	mov    %rsp,%rbp
    6be3:	89 fa                	mov    %edi,%edx
    6be5:	89 f0                	mov    %esi,%eax
    6be7:	88 55 fc             	mov    %dl,-0x4(%rbp)
    6bea:	88 45 f8             	mov    %al,-0x8(%rbp)
    6bed:	80 7d f8 00          	cmpb   $0x0,-0x8(%rbp)
    6bf1:	74 0c                	je     6bff <safe_div_func_uint8_t_u_u+0x24>
    6bf3:	0f b6 45 fc          	movzbl -0x4(%rbp),%eax
    6bf7:	0f b6 c0             	movzbl %al,%eax
    6bfa:	f6 75 f8             	divb   -0x8(%rbp)
    6bfd:	eb 04                	jmp    6c03 <safe_div_func_uint8_t_u_u+0x28>
    6bff:	0f b6 45 fc          	movzbl -0x4(%rbp),%eax
    6c03:	5d                   	pop    %rbp
    6c04:	c3                   	retq   

0000000000006c05 <safe_lshift_func_uint8_t_u_s>:
    6c05:	f3 0f 1e fa          	endbr64 
    6c09:	55                   	push   %rbp
    6c0a:	48 89 e5             	mov    %rsp,%rbp
    6c0d:	89 f8                	mov    %edi,%eax
    6c0f:	89 75 f8             	mov    %esi,-0x8(%rbp)
    6c12:	88 45 fc             	mov    %al,-0x4(%rbp)
    6c15:	83 7d f8 00          	cmpl   $0x0,-0x8(%rbp)
    6c19:	78 2b                	js     6c46 <safe_lshift_func_uint8_t_u_s+0x41>
    6c1b:	83 7d f8 1f          	cmpl   $0x1f,-0x8(%rbp)
    6c1f:	7f 25                	jg     6c46 <safe_lshift_func_uint8_t_u_s+0x41>
    6c21:	0f b6 55 fc          	movzbl -0x4(%rbp),%edx
    6c25:	8b 45 f8             	mov    -0x8(%rbp),%eax
    6c28:	be ff 00 00 00       	mov    $0xff,%esi
    6c2d:	89 c1                	mov    %eax,%ecx
    6c2f:	d3 fe                	sar    %cl,%esi
    6c31:	89 f0                	mov    %esi,%eax
    6c33:	39 c2                	cmp    %eax,%edx
    6c35:	7f 0f                	jg     6c46 <safe_lshift_func_uint8_t_u_s+0x41>
    6c37:	0f b6 55 fc          	movzbl -0x4(%rbp),%edx
    6c3b:	8b 45 f8             	mov    -0x8(%rbp),%eax
    6c3e:	89 c1                	mov    %eax,%ecx
    6c40:	d3 e2                	shl    %cl,%edx
    6c42:	89 d0                	mov    %edx,%eax
    6c44:	eb 04                	jmp    6c4a <safe_lshift_func_uint8_t_u_s+0x45>
    6c46:	0f b6 45 fc          	movzbl -0x4(%rbp),%eax
    6c4a:	5d                   	pop    %rbp
    6c4b:	c3                   	retq   

0000000000006c4c <safe_lshift_func_uint8_t_u_u>:
    6c4c:	f3 0f 1e fa          	endbr64 
    6c50:	55                   	push   %rbp
    6c51:	48 89 e5             	mov    %rsp,%rbp
    6c54:	89 f8                	mov    %edi,%eax
    6c56:	89 75 f8             	mov    %esi,-0x8(%rbp)
    6c59:	88 45 fc             	mov    %al,-0x4(%rbp)
    6c5c:	83 7d f8 1f          	cmpl   $0x1f,-0x8(%rbp)
    6c60:	77 25                	ja     6c87 <safe_lshift_func_uint8_t_u_u+0x3b>
    6c62:	0f b6 55 fc          	movzbl -0x4(%rbp),%edx
    6c66:	8b 45 f8             	mov    -0x8(%rbp),%eax
    6c69:	be ff 00 00 00       	mov    $0xff,%esi
    6c6e:	89 c1                	mov    %eax,%ecx
    6c70:	d3 fe                	sar    %cl,%esi
    6c72:	89 f0                	mov    %esi,%eax
    6c74:	39 c2                	cmp    %eax,%edx
    6c76:	7f 0f                	jg     6c87 <safe_lshift_func_uint8_t_u_u+0x3b>
    6c78:	0f b6 55 fc          	movzbl -0x4(%rbp),%edx
    6c7c:	8b 45 f8             	mov    -0x8(%rbp),%eax
    6c7f:	89 c1                	mov    %eax,%ecx
    6c81:	d3 e2                	shl    %cl,%edx
    6c83:	89 d0                	mov    %edx,%eax
    6c85:	eb 04                	jmp    6c8b <safe_lshift_func_uint8_t_u_u+0x3f>
    6c87:	0f b6 45 fc          	movzbl -0x4(%rbp),%eax
    6c8b:	5d                   	pop    %rbp
    6c8c:	c3                   	retq   

0000000000006c8d <safe_rshift_func_uint8_t_u_s>:
    6c8d:	f3 0f 1e fa          	endbr64 
    6c91:	55                   	push   %rbp
    6c92:	48 89 e5             	mov    %rsp,%rbp
    6c95:	89 f8                	mov    %edi,%eax
    6c97:	89 75 f8             	mov    %esi,-0x8(%rbp)
    6c9a:	88 45 fc             	mov    %al,-0x4(%rbp)
    6c9d:	83 7d f8 00          	cmpl   $0x0,-0x8(%rbp)
    6ca1:	78 15                	js     6cb8 <safe_rshift_func_uint8_t_u_s+0x2b>
    6ca3:	83 7d f8 1f          	cmpl   $0x1f,-0x8(%rbp)
    6ca7:	7f 0f                	jg     6cb8 <safe_rshift_func_uint8_t_u_s+0x2b>
    6ca9:	0f b6 55 fc          	movzbl -0x4(%rbp),%edx
    6cad:	8b 45 f8             	mov    -0x8(%rbp),%eax
    6cb0:	89 c1                	mov    %eax,%ecx
    6cb2:	d3 fa                	sar    %cl,%edx
    6cb4:	89 d0                	mov    %edx,%eax
    6cb6:	eb 04                	jmp    6cbc <safe_rshift_func_uint8_t_u_s+0x2f>
    6cb8:	0f b6 45 fc          	movzbl -0x4(%rbp),%eax
    6cbc:	5d                   	pop    %rbp
    6cbd:	c3                   	retq   

0000000000006cbe <safe_rshift_func_uint8_t_u_u>:
    6cbe:	f3 0f 1e fa          	endbr64 
    6cc2:	55                   	push   %rbp
    6cc3:	48 89 e5             	mov    %rsp,%rbp
    6cc6:	89 f8                	mov    %edi,%eax
    6cc8:	89 75 f8             	mov    %esi,-0x8(%rbp)
    6ccb:	88 45 fc             	mov    %al,-0x4(%rbp)
    6cce:	83 7d f8 1f          	cmpl   $0x1f,-0x8(%rbp)
    6cd2:	77 0f                	ja     6ce3 <safe_rshift_func_uint8_t_u_u+0x25>
    6cd4:	0f b6 55 fc          	movzbl -0x4(%rbp),%edx
    6cd8:	8b 45 f8             	mov    -0x8(%rbp),%eax
    6cdb:	89 c1                	mov    %eax,%ecx
    6cdd:	d3 fa                	sar    %cl,%edx
    6cdf:	89 d0                	mov    %edx,%eax
    6ce1:	eb 04                	jmp    6ce7 <safe_rshift_func_uint8_t_u_u+0x29>
    6ce3:	0f b6 45 fc          	movzbl -0x4(%rbp),%eax
    6ce7:	5d                   	pop    %rbp
    6ce8:	c3                   	retq   

0000000000006ce9 <safe_unary_minus_func_uint16_t_u>:
    6ce9:	f3 0f 1e fa          	endbr64 
    6ced:	55                   	push   %rbp
    6cee:	48 89 e5             	mov    %rsp,%rbp
    6cf1:	89 f8                	mov    %edi,%eax
    6cf3:	66 89 45 fc          	mov    %ax,-0x4(%rbp)
    6cf7:	0f b7 45 fc          	movzwl -0x4(%rbp),%eax
    6cfb:	f7 d8                	neg    %eax
    6cfd:	5d                   	pop    %rbp
    6cfe:	c3                   	retq   

0000000000006cff <safe_add_func_uint16_t_u_u>:
    6cff:	f3 0f 1e fa          	endbr64 
    6d03:	55                   	push   %rbp
    6d04:	48 89 e5             	mov    %rsp,%rbp
    6d07:	89 fa                	mov    %edi,%edx
    6d09:	89 f0                	mov    %esi,%eax
    6d0b:	66 89 55 fc          	mov    %dx,-0x4(%rbp)
    6d0f:	66 89 45 f8          	mov    %ax,-0x8(%rbp)
    6d13:	0f b7 55 fc          	movzwl -0x4(%rbp),%edx
    6d17:	0f b7 45 f8          	movzwl -0x8(%rbp),%eax
    6d1b:	01 d0                	add    %edx,%eax
    6d1d:	5d                   	pop    %rbp
    6d1e:	c3                   	retq   

0000000000006d1f <safe_sub_func_uint16_t_u_u>:
    6d1f:	f3 0f 1e fa          	endbr64 
    6d23:	55                   	push   %rbp
    6d24:	48 89 e5             	mov    %rsp,%rbp
    6d27:	89 fa                	mov    %edi,%edx
    6d29:	89 f0                	mov    %esi,%eax
    6d2b:	66 89 55 fc          	mov    %dx,-0x4(%rbp)
    6d2f:	66 89 45 f8          	mov    %ax,-0x8(%rbp)
    6d33:	0f b7 45 fc          	movzwl -0x4(%rbp),%eax
    6d37:	66 2b 45 f8          	sub    -0x8(%rbp),%ax
    6d3b:	5d                   	pop    %rbp
    6d3c:	c3                   	retq   

0000000000006d3d <safe_mul_func_uint16_t_u_u>:
    6d3d:	f3 0f 1e fa          	endbr64 
    6d41:	55                   	push   %rbp
    6d42:	48 89 e5             	mov    %rsp,%rbp
    6d45:	89 fa                	mov    %edi,%edx
    6d47:	89 f0                	mov    %esi,%eax
    6d49:	66 89 55 fc          	mov    %dx,-0x4(%rbp)
    6d4d:	66 89 45 f8          	mov    %ax,-0x8(%rbp)
    6d51:	0f b7 45 fc          	movzwl -0x4(%rbp),%eax
    6d55:	66 0f af 45 f8       	imul   -0x8(%rbp),%ax
    6d5a:	5d                   	pop    %rbp
    6d5b:	c3                   	retq   

0000000000006d5c <safe_mod_func_uint16_t_u_u>:
    6d5c:	f3 0f 1e fa          	endbr64 
    6d60:	55                   	push   %rbp
    6d61:	48 89 e5             	mov    %rsp,%rbp
    6d64:	89 fa                	mov    %edi,%edx
    6d66:	89 f0                	mov    %esi,%eax
    6d68:	66 89 55 fc          	mov    %dx,-0x4(%rbp)
    6d6c:	66 89 45 f8          	mov    %ax,-0x8(%rbp)
    6d70:	66 83 7d f8 00       	cmpw   $0x0,-0x8(%rbp)
    6d75:	74 11                	je     6d88 <safe_mod_func_uint16_t_u_u+0x2c>
    6d77:	0f b7 45 fc          	movzwl -0x4(%rbp),%eax
    6d7b:	ba 00 00 00 00       	mov    $0x0,%edx
    6d80:	66 f7 75 f8          	divw   -0x8(%rbp)
    6d84:	89 d0                	mov    %edx,%eax
    6d86:	eb 04                	jmp    6d8c <safe_mod_func_uint16_t_u_u+0x30>
    6d88:	0f b7 45 fc          	movzwl -0x4(%rbp),%eax
    6d8c:	5d                   	pop    %rbp
    6d8d:	c3                   	retq   

0000000000006d8e <safe_div_func_uint16_t_u_u>:
    6d8e:	f3 0f 1e fa          	endbr64 
    6d92:	55                   	push   %rbp
    6d93:	48 89 e5             	mov    %rsp,%rbp
    6d96:	89 fa                	mov    %edi,%edx
    6d98:	89 f0                	mov    %esi,%eax
    6d9a:	66 89 55 fc          	mov    %dx,-0x4(%rbp)
    6d9e:	66 89 45 f8          	mov    %ax,-0x8(%rbp)
    6da2:	66 83 7d f8 00       	cmpw   $0x0,-0x8(%rbp)
    6da7:	74 0f                	je     6db8 <safe_div_func_uint16_t_u_u+0x2a>
    6da9:	0f b7 45 fc          	movzwl -0x4(%rbp),%eax
    6dad:	ba 00 00 00 00       	mov    $0x0,%edx
    6db2:	66 f7 75 f8          	divw   -0x8(%rbp)
    6db6:	eb 04                	jmp    6dbc <safe_div_func_uint16_t_u_u+0x2e>
    6db8:	0f b7 45 fc          	movzwl -0x4(%rbp),%eax
    6dbc:	5d                   	pop    %rbp
    6dbd:	c3                   	retq   

0000000000006dbe <safe_lshift_func_uint16_t_u_s>:
    6dbe:	f3 0f 1e fa          	endbr64 
    6dc2:	55                   	push   %rbp
    6dc3:	48 89 e5             	mov    %rsp,%rbp
    6dc6:	89 f8                	mov    %edi,%eax
    6dc8:	89 75 f8             	mov    %esi,-0x8(%rbp)
    6dcb:	66 89 45 fc          	mov    %ax,-0x4(%rbp)
    6dcf:	83 7d f8 00          	cmpl   $0x0,-0x8(%rbp)
    6dd3:	78 2b                	js     6e00 <safe_lshift_func_uint16_t_u_s+0x42>
    6dd5:	83 7d f8 1f          	cmpl   $0x1f,-0x8(%rbp)
    6dd9:	7f 25                	jg     6e00 <safe_lshift_func_uint16_t_u_s+0x42>
    6ddb:	0f b7 55 fc          	movzwl -0x4(%rbp),%edx
    6ddf:	8b 45 f8             	mov    -0x8(%rbp),%eax
    6de2:	be ff ff 00 00       	mov    $0xffff,%esi
    6de7:	89 c1                	mov    %eax,%ecx
    6de9:	d3 fe                	sar    %cl,%esi
    6deb:	89 f0                	mov    %esi,%eax
    6ded:	39 c2                	cmp    %eax,%edx
    6def:	7f 0f                	jg     6e00 <safe_lshift_func_uint16_t_u_s+0x42>
    6df1:	0f b7 55 fc          	movzwl -0x4(%rbp),%edx
    6df5:	8b 45 f8             	mov    -0x8(%rbp),%eax
    6df8:	89 c1                	mov    %eax,%ecx
    6dfa:	d3 e2                	shl    %cl,%edx
    6dfc:	89 d0                	mov    %edx,%eax
    6dfe:	eb 04                	jmp    6e04 <safe_lshift_func_uint16_t_u_s+0x46>
    6e00:	0f b7 45 fc          	movzwl -0x4(%rbp),%eax
    6e04:	5d                   	pop    %rbp
    6e05:	c3                   	retq   

0000000000006e06 <safe_lshift_func_uint16_t_u_u>:
    6e06:	f3 0f 1e fa          	endbr64 
    6e0a:	55                   	push   %rbp
    6e0b:	48 89 e5             	mov    %rsp,%rbp
    6e0e:	89 f8                	mov    %edi,%eax
    6e10:	89 75 f8             	mov    %esi,-0x8(%rbp)
    6e13:	66 89 45 fc          	mov    %ax,-0x4(%rbp)
    6e17:	83 7d f8 1f          	cmpl   $0x1f,-0x8(%rbp)
    6e1b:	77 25                	ja     6e42 <safe_lshift_func_uint16_t_u_u+0x3c>
    6e1d:	0f b7 55 fc          	movzwl -0x4(%rbp),%edx
    6e21:	8b 45 f8             	mov    -0x8(%rbp),%eax
    6e24:	be ff ff 00 00       	mov    $0xffff,%esi
    6e29:	89 c1                	mov    %eax,%ecx
    6e2b:	d3 fe                	sar    %cl,%esi
    6e2d:	89 f0                	mov    %esi,%eax
    6e2f:	39 c2                	cmp    %eax,%edx
    6e31:	7f 0f                	jg     6e42 <safe_lshift_func_uint16_t_u_u+0x3c>
    6e33:	0f b7 55 fc          	movzwl -0x4(%rbp),%edx
    6e37:	8b 45 f8             	mov    -0x8(%rbp),%eax
    6e3a:	89 c1                	mov    %eax,%ecx
    6e3c:	d3 e2                	shl    %cl,%edx
    6e3e:	89 d0                	mov    %edx,%eax
    6e40:	eb 04                	jmp    6e46 <safe_lshift_func_uint16_t_u_u+0x40>
    6e42:	0f b7 45 fc          	movzwl -0x4(%rbp),%eax
    6e46:	5d                   	pop    %rbp
    6e47:	c3                   	retq   

0000000000006e48 <safe_rshift_func_uint16_t_u_s>:
    6e48:	f3 0f 1e fa          	endbr64 
    6e4c:	55                   	push   %rbp
    6e4d:	48 89 e5             	mov    %rsp,%rbp
    6e50:	89 f8                	mov    %edi,%eax
    6e52:	89 75 f8             	mov    %esi,-0x8(%rbp)
    6e55:	66 89 45 fc          	mov    %ax,-0x4(%rbp)
    6e59:	83 7d f8 00          	cmpl   $0x0,-0x8(%rbp)
    6e5d:	78 15                	js     6e74 <safe_rshift_func_uint16_t_u_s+0x2c>
    6e5f:	83 7d f8 1f          	cmpl   $0x1f,-0x8(%rbp)
    6e63:	7f 0f                	jg     6e74 <safe_rshift_func_uint16_t_u_s+0x2c>
    6e65:	0f b7 55 fc          	movzwl -0x4(%rbp),%edx
    6e69:	8b 45 f8             	mov    -0x8(%rbp),%eax
    6e6c:	89 c1                	mov    %eax,%ecx
    6e6e:	d3 fa                	sar    %cl,%edx
    6e70:	89 d0                	mov    %edx,%eax
    6e72:	eb 04                	jmp    6e78 <safe_rshift_func_uint16_t_u_s+0x30>
    6e74:	0f b7 45 fc          	movzwl -0x4(%rbp),%eax
    6e78:	5d                   	pop    %rbp
    6e79:	c3                   	retq   

0000000000006e7a <safe_rshift_func_uint16_t_u_u>:
    6e7a:	f3 0f 1e fa          	endbr64 
    6e7e:	55                   	push   %rbp
    6e7f:	48 89 e5             	mov    %rsp,%rbp
    6e82:	89 f8                	mov    %edi,%eax
    6e84:	89 75 f8             	mov    %esi,-0x8(%rbp)
    6e87:	66 89 45 fc          	mov    %ax,-0x4(%rbp)
    6e8b:	83 7d f8 1f          	cmpl   $0x1f,-0x8(%rbp)
    6e8f:	77 0f                	ja     6ea0 <safe_rshift_func_uint16_t_u_u+0x26>
    6e91:	0f b7 55 fc          	movzwl -0x4(%rbp),%edx
    6e95:	8b 45 f8             	mov    -0x8(%rbp),%eax
    6e98:	89 c1                	mov    %eax,%ecx
    6e9a:	d3 fa                	sar    %cl,%edx
    6e9c:	89 d0                	mov    %edx,%eax
    6e9e:	eb 04                	jmp    6ea4 <safe_rshift_func_uint16_t_u_u+0x2a>
    6ea0:	0f b7 45 fc          	movzwl -0x4(%rbp),%eax
    6ea4:	5d                   	pop    %rbp
    6ea5:	c3                   	retq   

0000000000006ea6 <safe_unary_minus_func_uint32_t_u>:
    6ea6:	f3 0f 1e fa          	endbr64 
    6eaa:	55                   	push   %rbp
    6eab:	48 89 e5             	mov    %rsp,%rbp
    6eae:	89 7d fc             	mov    %edi,-0x4(%rbp)
    6eb1:	8b 45 fc             	mov    -0x4(%rbp),%eax
    6eb4:	f7 d8                	neg    %eax
    6eb6:	5d                   	pop    %rbp
    6eb7:	c3                   	retq   

0000000000006eb8 <safe_add_func_uint32_t_u_u>:
    6eb8:	f3 0f 1e fa          	endbr64 
    6ebc:	55                   	push   %rbp
    6ebd:	48 89 e5             	mov    %rsp,%rbp
    6ec0:	89 7d fc             	mov    %edi,-0x4(%rbp)
    6ec3:	89 75 f8             	mov    %esi,-0x8(%rbp)
    6ec6:	8b 55 fc             	mov    -0x4(%rbp),%edx
    6ec9:	8b 45 f8             	mov    -0x8(%rbp),%eax
    6ecc:	01 d0                	add    %edx,%eax
    6ece:	5d                   	pop    %rbp
    6ecf:	c3                   	retq   

0000000000006ed0 <safe_sub_func_uint32_t_u_u>:
    6ed0:	f3 0f 1e fa          	endbr64 
    6ed4:	55                   	push   %rbp
    6ed5:	48 89 e5             	mov    %rsp,%rbp
    6ed8:	89 7d fc             	mov    %edi,-0x4(%rbp)
    6edb:	89 75 f8             	mov    %esi,-0x8(%rbp)
    6ede:	8b 45 fc             	mov    -0x4(%rbp),%eax
    6ee1:	2b 45 f8             	sub    -0x8(%rbp),%eax
    6ee4:	5d                   	pop    %rbp
    6ee5:	c3                   	retq   

0000000000006ee6 <safe_mul_func_uint32_t_u_u>:
    6ee6:	f3 0f 1e fa          	endbr64 
    6eea:	55                   	push   %rbp
    6eeb:	48 89 e5             	mov    %rsp,%rbp
    6eee:	89 7d fc             	mov    %edi,-0x4(%rbp)
    6ef1:	89 75 f8             	mov    %esi,-0x8(%rbp)
    6ef4:	8b 45 fc             	mov    -0x4(%rbp),%eax
    6ef7:	0f af 45 f8          	imul   -0x8(%rbp),%eax
    6efb:	5d                   	pop    %rbp
    6efc:	c3                   	retq   

0000000000006efd <safe_mod_func_uint32_t_u_u>:
    6efd:	f3 0f 1e fa          	endbr64 
    6f01:	55                   	push   %rbp
    6f02:	48 89 e5             	mov    %rsp,%rbp
    6f05:	89 7d fc             	mov    %edi,-0x4(%rbp)
    6f08:	89 75 f8             	mov    %esi,-0x8(%rbp)
    6f0b:	83 7d f8 00          	cmpl   $0x0,-0x8(%rbp)
    6f0f:	74 0f                	je     6f20 <safe_mod_func_uint32_t_u_u+0x23>
    6f11:	8b 45 fc             	mov    -0x4(%rbp),%eax
    6f14:	ba 00 00 00 00       	mov    $0x0,%edx
    6f19:	f7 75 f8             	divl   -0x8(%rbp)
    6f1c:	89 d0                	mov    %edx,%eax
    6f1e:	eb 03                	jmp    6f23 <safe_mod_func_uint32_t_u_u+0x26>
    6f20:	8b 45 fc             	mov    -0x4(%rbp),%eax
    6f23:	5d                   	pop    %rbp
    6f24:	c3                   	retq   

0000000000006f25 <safe_div_func_uint32_t_u_u>:
    6f25:	f3 0f 1e fa          	endbr64 
    6f29:	55                   	push   %rbp
    6f2a:	48 89 e5             	mov    %rsp,%rbp
    6f2d:	89 7d fc             	mov    %edi,-0x4(%rbp)
    6f30:	89 75 f8             	mov    %esi,-0x8(%rbp)
    6f33:	83 7d f8 00          	cmpl   $0x0,-0x8(%rbp)
    6f37:	74 0d                	je     6f46 <safe_div_func_uint32_t_u_u+0x21>
    6f39:	8b 45 fc             	mov    -0x4(%rbp),%eax
    6f3c:	ba 00 00 00 00       	mov    $0x0,%edx
    6f41:	f7 75 f8             	divl   -0x8(%rbp)
    6f44:	eb 03                	jmp    6f49 <safe_div_func_uint32_t_u_u+0x24>
    6f46:	8b 45 fc             	mov    -0x4(%rbp),%eax
    6f49:	5d                   	pop    %rbp
    6f4a:	c3                   	retq   

0000000000006f4b <safe_lshift_func_uint32_t_u_s>:
    6f4b:	f3 0f 1e fa          	endbr64 
    6f4f:	55                   	push   %rbp
    6f50:	48 89 e5             	mov    %rsp,%rbp
    6f53:	89 7d fc             	mov    %edi,-0x4(%rbp)
    6f56:	89 75 f8             	mov    %esi,-0x8(%rbp)
    6f59:	83 7d f8 00          	cmpl   $0x0,-0x8(%rbp)
    6f5d:	78 27                	js     6f86 <safe_lshift_func_uint32_t_u_s+0x3b>
    6f5f:	83 7d f8 1f          	cmpl   $0x1f,-0x8(%rbp)
    6f63:	7f 21                	jg     6f86 <safe_lshift_func_uint32_t_u_s+0x3b>
    6f65:	8b 45 f8             	mov    -0x8(%rbp),%eax
    6f68:	ba ff ff ff ff       	mov    $0xffffffff,%edx
    6f6d:	89 c1                	mov    %eax,%ecx
    6f6f:	d3 ea                	shr    %cl,%edx
    6f71:	89 d0                	mov    %edx,%eax
    6f73:	39 45 fc             	cmp    %eax,-0x4(%rbp)
    6f76:	77 0e                	ja     6f86 <safe_lshift_func_uint32_t_u_s+0x3b>
    6f78:	8b 45 f8             	mov    -0x8(%rbp),%eax
    6f7b:	8b 55 fc             	mov    -0x4(%rbp),%edx
    6f7e:	89 c1                	mov    %eax,%ecx
    6f80:	d3 e2                	shl    %cl,%edx
    6f82:	89 d0                	mov    %edx,%eax
    6f84:	eb 03                	jmp    6f89 <safe_lshift_func_uint32_t_u_s+0x3e>
    6f86:	8b 45 fc             	mov    -0x4(%rbp),%eax
    6f89:	5d                   	pop    %rbp
    6f8a:	c3                   	retq   

0000000000006f8b <safe_lshift_func_uint32_t_u_u>:
    6f8b:	f3 0f 1e fa          	endbr64 
    6f8f:	55                   	push   %rbp
    6f90:	48 89 e5             	mov    %rsp,%rbp
    6f93:	89 7d fc             	mov    %edi,-0x4(%rbp)
    6f96:	89 75 f8             	mov    %esi,-0x8(%rbp)
    6f99:	83 7d f8 1f          	cmpl   $0x1f,-0x8(%rbp)
    6f9d:	77 21                	ja     6fc0 <safe_lshift_func_uint32_t_u_u+0x35>
    6f9f:	8b 45 f8             	mov    -0x8(%rbp),%eax
    6fa2:	ba ff ff ff ff       	mov    $0xffffffff,%edx
    6fa7:	89 c1                	mov    %eax,%ecx
    6fa9:	d3 ea                	shr    %cl,%edx
    6fab:	89 d0                	mov    %edx,%eax
    6fad:	39 45 fc             	cmp    %eax,-0x4(%rbp)
    6fb0:	77 0e                	ja     6fc0 <safe_lshift_func_uint32_t_u_u+0x35>
    6fb2:	8b 45 f8             	mov    -0x8(%rbp),%eax
    6fb5:	8b 55 fc             	mov    -0x4(%rbp),%edx
    6fb8:	89 c1                	mov    %eax,%ecx
    6fba:	d3 e2                	shl    %cl,%edx
    6fbc:	89 d0                	mov    %edx,%eax
    6fbe:	eb 03                	jmp    6fc3 <safe_lshift_func_uint32_t_u_u+0x38>
    6fc0:	8b 45 fc             	mov    -0x4(%rbp),%eax
    6fc3:	5d                   	pop    %rbp
    6fc4:	c3                   	retq   

0000000000006fc5 <safe_rshift_func_uint32_t_u_s>:
    6fc5:	f3 0f 1e fa          	endbr64 
    6fc9:	55                   	push   %rbp
    6fca:	48 89 e5             	mov    %rsp,%rbp
    6fcd:	89 7d fc             	mov    %edi,-0x4(%rbp)
    6fd0:	89 75 f8             	mov    %esi,-0x8(%rbp)
    6fd3:	83 7d f8 00          	cmpl   $0x0,-0x8(%rbp)
    6fd7:	78 14                	js     6fed <safe_rshift_func_uint32_t_u_s+0x28>
    6fd9:	83 7d f8 1f          	cmpl   $0x1f,-0x8(%rbp)
    6fdd:	7f 0e                	jg     6fed <safe_rshift_func_uint32_t_u_s+0x28>
    6fdf:	8b 45 f8             	mov    -0x8(%rbp),%eax
    6fe2:	8b 55 fc             	mov    -0x4(%rbp),%edx
    6fe5:	89 c1                	mov    %eax,%ecx
    6fe7:	d3 ea                	shr    %cl,%edx
    6fe9:	89 d0                	mov    %edx,%eax
    6feb:	eb 03                	jmp    6ff0 <safe_rshift_func_uint32_t_u_s+0x2b>
    6fed:	8b 45 fc             	mov    -0x4(%rbp),%eax
    6ff0:	5d                   	pop    %rbp
    6ff1:	c3                   	retq   

0000000000006ff2 <safe_rshift_func_uint32_t_u_u>:
    6ff2:	f3 0f 1e fa          	endbr64 
    6ff6:	55                   	push   %rbp
    6ff7:	48 89 e5             	mov    %rsp,%rbp
    6ffa:	89 7d fc             	mov    %edi,-0x4(%rbp)
    6ffd:	89 75 f8             	mov    %esi,-0x8(%rbp)
    7000:	83 7d f8 1f          	cmpl   $0x1f,-0x8(%rbp)
    7004:	77 0e                	ja     7014 <safe_rshift_func_uint32_t_u_u+0x22>
    7006:	8b 45 f8             	mov    -0x8(%rbp),%eax
    7009:	8b 55 fc             	mov    -0x4(%rbp),%edx
    700c:	89 c1                	mov    %eax,%ecx
    700e:	d3 ea                	shr    %cl,%edx
    7010:	89 d0                	mov    %edx,%eax
    7012:	eb 03                	jmp    7017 <safe_rshift_func_uint32_t_u_u+0x25>
    7014:	8b 45 fc             	mov    -0x4(%rbp),%eax
    7017:	5d                   	pop    %rbp
    7018:	c3                   	retq   

0000000000007019 <safe_unary_minus_func_uint64_t_u>:
    7019:	f3 0f 1e fa          	endbr64 
    701d:	55                   	push   %rbp
    701e:	48 89 e5             	mov    %rsp,%rbp
    7021:	48 89 7d f8          	mov    %rdi,-0x8(%rbp)
    7025:	48 8b 45 f8          	mov    -0x8(%rbp),%rax
    7029:	48 f7 d8             	neg    %rax
    702c:	5d                   	pop    %rbp
    702d:	c3                   	retq   

000000000000702e <safe_add_func_uint64_t_u_u>:
    702e:	f3 0f 1e fa          	endbr64 
    7032:	55                   	push   %rbp
    7033:	48 89 e5             	mov    %rsp,%rbp
    7036:	48 89 7d f8          	mov    %rdi,-0x8(%rbp)
    703a:	48 89 75 f0          	mov    %rsi,-0x10(%rbp)
    703e:	48 8b 55 f8          	mov    -0x8(%rbp),%rdx
    7042:	48 8b 45 f0          	mov    -0x10(%rbp),%rax
    7046:	48 01 d0             	add    %rdx,%rax
    7049:	5d                   	pop    %rbp
    704a:	c3                   	retq   

000000000000704b <safe_sub_func_uint64_t_u_u>:
    704b:	f3 0f 1e fa          	endbr64 
    704f:	55                   	push   %rbp
    7050:	48 89 e5             	mov    %rsp,%rbp
    7053:	48 89 7d f8          	mov    %rdi,-0x8(%rbp)
    7057:	48 89 75 f0          	mov    %rsi,-0x10(%rbp)
    705b:	48 8b 45 f8          	mov    -0x8(%rbp),%rax
    705f:	48 2b 45 f0          	sub    -0x10(%rbp),%rax
    7063:	5d                   	pop    %rbp
    7064:	c3                   	retq   

0000000000007065 <safe_mul_func_uint64_t_u_u>:
    7065:	f3 0f 1e fa          	endbr64 
    7069:	55                   	push   %rbp
    706a:	48 89 e5             	mov    %rsp,%rbp
    706d:	48 89 7d f8          	mov    %rdi,-0x8(%rbp)
    7071:	48 89 75 f0          	mov    %rsi,-0x10(%rbp)
    7075:	48 8b 45 f8          	mov    -0x8(%rbp),%rax
    7079:	48 0f af 45 f0       	imul   -0x10(%rbp),%rax
    707e:	5d                   	pop    %rbp
    707f:	c3                   	retq   

0000000000007080 <safe_mod_func_uint64_t_u_u>:
    7080:	f3 0f 1e fa          	endbr64 
    7084:	55                   	push   %rbp
    7085:	48 89 e5             	mov    %rsp,%rbp
    7088:	48 89 7d f8          	mov    %rdi,-0x8(%rbp)
    708c:	48 89 75 f0          	mov    %rsi,-0x10(%rbp)
    7090:	48 83 7d f0 00       	cmpq   $0x0,-0x10(%rbp)
    7095:	74 12                	je     70a9 <safe_mod_func_uint64_t_u_u+0x29>
    7097:	48 8b 45 f8          	mov    -0x8(%rbp),%rax
    709b:	ba 00 00 00 00       	mov    $0x0,%edx
    70a0:	48 f7 75 f0          	divq   -0x10(%rbp)
    70a4:	48 89 d0             	mov    %rdx,%rax
    70a7:	eb 04                	jmp    70ad <safe_mod_func_uint64_t_u_u+0x2d>
    70a9:	48 8b 45 f8          	mov    -0x8(%rbp),%rax
    70ad:	5d                   	pop    %rbp
    70ae:	c3                   	retq   

00000000000070af <safe_div_func_uint64_t_u_u>:
    70af:	f3 0f 1e fa          	endbr64 
    70b3:	55                   	push   %rbp
    70b4:	48 89 e5             	mov    %rsp,%rbp
    70b7:	48 89 7d f8          	mov    %rdi,-0x8(%rbp)
    70bb:	48 89 75 f0          	mov    %rsi,-0x10(%rbp)
    70bf:	48 83 7d f0 00       	cmpq   $0x0,-0x10(%rbp)
    70c4:	74 0f                	je     70d5 <safe_div_func_uint64_t_u_u+0x26>
    70c6:	48 8b 45 f8          	mov    -0x8(%rbp),%rax
    70ca:	ba 00 00 00 00       	mov    $0x0,%edx
    70cf:	48 f7 75 f0          	divq   -0x10(%rbp)
    70d3:	eb 04                	jmp    70d9 <safe_div_func_uint64_t_u_u+0x2a>
    70d5:	48 8b 45 f8          	mov    -0x8(%rbp),%rax
    70d9:	5d                   	pop    %rbp
    70da:	c3                   	retq   

00000000000070db <safe_lshift_func_uint64_t_u_s>:
    70db:	f3 0f 1e fa          	endbr64 
    70df:	55                   	push   %rbp
    70e0:	48 89 e5             	mov    %rsp,%rbp
    70e3:	48 89 7d f8          	mov    %rdi,-0x8(%rbp)
    70e7:	89 75 f4             	mov    %esi,-0xc(%rbp)
    70ea:	83 7d f4 00          	cmpl   $0x0,-0xc(%rbp)
    70ee:	78 2f                	js     711f <safe_lshift_func_uint64_t_u_s+0x44>
    70f0:	83 7d f4 1f          	cmpl   $0x1f,-0xc(%rbp)
    70f4:	7f 29                	jg     711f <safe_lshift_func_uint64_t_u_s+0x44>
    70f6:	8b 45 f4             	mov    -0xc(%rbp),%eax
    70f9:	48 c7 c2 ff ff ff ff 	mov    $0xffffffffffffffff,%rdx
    7100:	89 c1                	mov    %eax,%ecx
    7102:	48 d3 ea             	shr    %cl,%rdx
    7105:	48 89 d0             	mov    %rdx,%rax
    7108:	48 39 45 f8          	cmp    %rax,-0x8(%rbp)
    710c:	77 11                	ja     711f <safe_lshift_func_uint64_t_u_s+0x44>
    710e:	8b 45 f4             	mov    -0xc(%rbp),%eax
    7111:	48 8b 55 f8          	mov    -0x8(%rbp),%rdx
    7115:	89 c1                	mov    %eax,%ecx
    7117:	48 d3 e2             	shl    %cl,%rdx
    711a:	48 89 d0             	mov    %rdx,%rax
    711d:	eb 04                	jmp    7123 <safe_lshift_func_uint64_t_u_s+0x48>
    711f:	48 8b 45 f8          	mov    -0x8(%rbp),%rax
    7123:	5d                   	pop    %rbp
    7124:	c3                   	retq   

0000000000007125 <safe_lshift_func_uint64_t_u_u>:
    7125:	f3 0f 1e fa          	endbr64 
    7129:	55                   	push   %rbp
    712a:	48 89 e5             	mov    %rsp,%rbp
    712d:	48 89 7d f8          	mov    %rdi,-0x8(%rbp)
    7131:	89 75 f4             	mov    %esi,-0xc(%rbp)
    7134:	83 7d f4 1f          	cmpl   $0x1f,-0xc(%rbp)
    7138:	77 29                	ja     7163 <safe_lshift_func_uint64_t_u_u+0x3e>
    713a:	8b 45 f4             	mov    -0xc(%rbp),%eax
    713d:	48 c7 c2 ff ff ff ff 	mov    $0xffffffffffffffff,%rdx
    7144:	89 c1                	mov    %eax,%ecx
    7146:	48 d3 ea             	shr    %cl,%rdx
    7149:	48 89 d0             	mov    %rdx,%rax
    714c:	48 39 45 f8          	cmp    %rax,-0x8(%rbp)
    7150:	77 11                	ja     7163 <safe_lshift_func_uint64_t_u_u+0x3e>
    7152:	8b 45 f4             	mov    -0xc(%rbp),%eax
    7155:	48 8b 55 f8          	mov    -0x8(%rbp),%rdx
    7159:	89 c1                	mov    %eax,%ecx
    715b:	48 d3 e2             	shl    %cl,%rdx
    715e:	48 89 d0             	mov    %rdx,%rax
    7161:	eb 04                	jmp    7167 <safe_lshift_func_uint64_t_u_u+0x42>
    7163:	48 8b 45 f8          	mov    -0x8(%rbp),%rax
    7167:	5d                   	pop    %rbp
    7168:	c3                   	retq   

0000000000007169 <safe_rshift_func_uint64_t_u_s>:
    7169:	f3 0f 1e fa          	endbr64 
    716d:	55                   	push   %rbp
    716e:	48 89 e5             	mov    %rsp,%rbp
    7171:	48 89 7d f8          	mov    %rdi,-0x8(%rbp)
    7175:	89 75 f4             	mov    %esi,-0xc(%rbp)
    7178:	83 7d f4 00          	cmpl   $0x0,-0xc(%rbp)
    717c:	78 17                	js     7195 <safe_rshift_func_uint64_t_u_s+0x2c>
    717e:	83 7d f4 1f          	cmpl   $0x1f,-0xc(%rbp)
    7182:	7f 11                	jg     7195 <safe_rshift_func_uint64_t_u_s+0x2c>
    7184:	8b 45 f4             	mov    -0xc(%rbp),%eax
    7187:	48 8b 55 f8          	mov    -0x8(%rbp),%rdx
    718b:	89 c1                	mov    %eax,%ecx
    718d:	48 d3 ea             	shr    %cl,%rdx
    7190:	48 89 d0             	mov    %rdx,%rax
    7193:	eb 04                	jmp    7199 <safe_rshift_func_uint64_t_u_s+0x30>
    7195:	48 8b 45 f8          	mov    -0x8(%rbp),%rax
    7199:	5d                   	pop    %rbp
    719a:	c3                   	retq   

000000000000719b <safe_rshift_func_uint64_t_u_u>:
    719b:	f3 0f 1e fa          	endbr64 
    719f:	55                   	push   %rbp
    71a0:	48 89 e5             	mov    %rsp,%rbp
    71a3:	48 89 7d f8          	mov    %rdi,-0x8(%rbp)
    71a7:	89 75 f4             	mov    %esi,-0xc(%rbp)
    71aa:	83 7d f4 1f          	cmpl   $0x1f,-0xc(%rbp)
    71ae:	77 11                	ja     71c1 <safe_rshift_func_uint64_t_u_u+0x26>
    71b0:	8b 45 f4             	mov    -0xc(%rbp),%eax
    71b3:	48 8b 55 f8          	mov    -0x8(%rbp),%rdx
    71b7:	89 c1                	mov    %eax,%ecx
    71b9:	48 d3 ea             	shr    %cl,%rdx
    71bc:	48 89 d0             	mov    %rdx,%rax
    71bf:	eb 04                	jmp    71c5 <safe_rshift_func_uint64_t_u_u+0x2a>
    71c1:	48 8b 45 f8          	mov    -0x8(%rbp),%rax
    71c5:	5d                   	pop    %rbp
    71c6:	c3                   	retq   

00000000000071c7 <safe_add_func_float_f_f>:
    71c7:	f3 0f 1e fa          	endbr64 
    71cb:	55                   	push   %rbp
    71cc:	48 89 e5             	mov    %rsp,%rbp
    71cf:	f3 0f 11 45 fc       	movss  %xmm0,-0x4(%rbp)
    71d4:	f3 0f 11 4d f8       	movss  %xmm1,-0x8(%rbp)
    71d9:	f3 0f 10 4d fc       	movss  -0x4(%rbp),%xmm1
    71de:	f3 0f 10 05 5a 5a 00 	movss  0x5a5a(%rip),%xmm0        # cc40 <l_1184.4322+0x60>
    71e5:	00 
    71e6:	f3 0f 59 c8          	mulss  %xmm0,%xmm1
    71ea:	f3 0f 10 55 f8       	movss  -0x8(%rbp),%xmm2
    71ef:	f3 0f 10 05 49 5a 00 	movss  0x5a49(%rip),%xmm0        # cc40 <l_1184.4322+0x60>
    71f6:	00 
    71f7:	f3 0f 59 c2          	mulss  %xmm2,%xmm0
    71fb:	f3 0f 58 c1          	addss  %xmm1,%xmm0
    71ff:	f3 0f 10 0d 49 5a 00 	movss  0x5a49(%rip),%xmm1        # cc50 <l_1184.4322+0x70>
    7206:	00 
    7207:	0f 54 c1             	andps  %xmm1,%xmm0
    720a:	0f 2f 05 4f 5a 00 00 	comiss 0x5a4f(%rip),%xmm0        # cc60 <l_1184.4322+0x80>
    7211:	76 07                	jbe    721a <safe_add_func_float_f_f+0x53>
    7213:	f3 0f 10 45 fc       	movss  -0x4(%rbp),%xmm0
    7218:	eb 0a                	jmp    7224 <safe_add_func_float_f_f+0x5d>
    721a:	f3 0f 10 45 fc       	movss  -0x4(%rbp),%xmm0
    721f:	f3 0f 58 45 f8       	addss  -0x8(%rbp),%xmm0
    7224:	5d                   	pop    %rbp
    7225:	c3                   	retq   

0000000000007226 <safe_sub_func_float_f_f>:
    7226:	f3 0f 1e fa          	endbr64 
    722a:	55                   	push   %rbp
    722b:	48 89 e5             	mov    %rsp,%rbp
    722e:	f3 0f 11 45 fc       	movss  %xmm0,-0x4(%rbp)
    7233:	f3 0f 11 4d f8       	movss  %xmm1,-0x8(%rbp)
    7238:	f3 0f 10 4d fc       	movss  -0x4(%rbp),%xmm1
    723d:	f3 0f 10 05 fb 59 00 	movss  0x59fb(%rip),%xmm0        # cc40 <l_1184.4322+0x60>
    7244:	00 
    7245:	f3 0f 59 c1          	mulss  %xmm1,%xmm0
    7249:	f3 0f 10 55 f8       	movss  -0x8(%rbp),%xmm2
    724e:	f3 0f 10 0d ea 59 00 	movss  0x59ea(%rip),%xmm1        # cc40 <l_1184.4322+0x60>
    7255:	00 
    7256:	f3 0f 59 ca          	mulss  %xmm2,%xmm1
    725a:	f3 0f 5c c1          	subss  %xmm1,%xmm0
    725e:	f3 0f 10 0d ea 59 00 	movss  0x59ea(%rip),%xmm1        # cc50 <l_1184.4322+0x70>
    7265:	00 
    7266:	0f 54 c1             	andps  %xmm1,%xmm0
    7269:	0f 2f 05 f0 59 00 00 	comiss 0x59f0(%rip),%xmm0        # cc60 <l_1184.4322+0x80>
    7270:	76 07                	jbe    7279 <safe_sub_func_float_f_f+0x53>
    7272:	f3 0f 10 45 fc       	movss  -0x4(%rbp),%xmm0
    7277:	eb 0a                	jmp    7283 <safe_sub_func_float_f_f+0x5d>
    7279:	f3 0f 10 45 fc       	movss  -0x4(%rbp),%xmm0
    727e:	f3 0f 5c 45 f8       	subss  -0x8(%rbp),%xmm0
    7283:	5d                   	pop    %rbp
    7284:	c3                   	retq   

0000000000007285 <safe_mul_func_float_f_f>:
    7285:	f3 0f 1e fa          	endbr64 
    7289:	55                   	push   %rbp
    728a:	48 89 e5             	mov    %rsp,%rbp
    728d:	f3 0f 11 45 fc       	movss  %xmm0,-0x4(%rbp)
    7292:	f3 0f 11 4d f8       	movss  %xmm1,-0x8(%rbp)
    7297:	f3 0f 10 4d fc       	movss  -0x4(%rbp),%xmm1
    729c:	f3 0f 10 05 c0 59 00 	movss  0x59c0(%rip),%xmm0        # cc64 <l_1184.4322+0x84>
    72a3:	00 
    72a4:	f3 0f 59 c8          	mulss  %xmm0,%xmm1
    72a8:	f3 0f 10 55 f8       	movss  -0x8(%rbp),%xmm2
    72ad:	f3 0f 10 05 b3 59 00 	movss  0x59b3(%rip),%xmm0        # cc68 <l_1184.4322+0x88>
    72b4:	00 
    72b5:	f3 0f 59 c2          	mulss  %xmm2,%xmm0
    72b9:	f3 0f 59 c1          	mulss  %xmm1,%xmm0
    72bd:	f3 0f 10 0d 8b 59 00 	movss  0x598b(%rip),%xmm1        # cc50 <l_1184.4322+0x70>
    72c4:	00 
    72c5:	0f 54 c1             	andps  %xmm1,%xmm0
    72c8:	0f 2f 05 9d 59 00 00 	comiss 0x599d(%rip),%xmm0        # cc6c <l_1184.4322+0x8c>
    72cf:	76 07                	jbe    72d8 <safe_mul_func_float_f_f+0x53>
    72d1:	f3 0f 10 45 fc       	movss  -0x4(%rbp),%xmm0
    72d6:	eb 0a                	jmp    72e2 <safe_mul_func_float_f_f+0x5d>
    72d8:	f3 0f 10 45 fc       	movss  -0x4(%rbp),%xmm0
    72dd:	f3 0f 59 45 f8       	mulss  -0x8(%rbp),%xmm0
    72e2:	5d                   	pop    %rbp
    72e3:	c3                   	retq   

00000000000072e4 <safe_div_func_float_f_f>:
    72e4:	f3 0f 1e fa          	endbr64 
    72e8:	55                   	push   %rbp
    72e9:	48 89 e5             	mov    %rsp,%rbp
    72ec:	f3 0f 11 45 fc       	movss  %xmm0,-0x4(%rbp)
    72f1:	f3 0f 11 4d f8       	movss  %xmm1,-0x8(%rbp)
    72f6:	f3 0f 10 45 f8       	movss  -0x8(%rbp),%xmm0
    72fb:	f3 0f 10 0d 4d 59 00 	movss  0x594d(%rip),%xmm1        # cc50 <l_1184.4322+0x70>
    7302:	00 
    7303:	0f 54 c8             	andps  %xmm0,%xmm1
    7306:	f3 0f 10 05 62 59 00 	movss  0x5962(%rip),%xmm0        # cc70 <l_1184.4322+0x90>
    730d:	00 
    730e:	0f 2f c1             	comiss %xmm1,%xmm0
    7311:	0f 97 c0             	seta   %al
    7314:	83 f0 01             	xor    $0x1,%eax
    7317:	84 c0                	test   %al,%al
    7319:	75 56                	jne    7371 <safe_div_func_float_f_f+0x8d>
    731b:	66 0f ef c0          	pxor   %xmm0,%xmm0
    731f:	0f 2e 45 f8          	ucomiss -0x8(%rbp),%xmm0
    7323:	7a 0a                	jp     732f <safe_div_func_float_f_f+0x4b>
    7325:	66 0f ef c0          	pxor   %xmm0,%xmm0
    7329:	0f 2e 45 f8          	ucomiss -0x8(%rbp),%xmm0
    732d:	74 4e                	je     737d <safe_div_func_float_f_f+0x99>
    732f:	f3 0f 10 4d fc       	movss  -0x4(%rbp),%xmm1
    7334:	f3 0f 10 05 38 59 00 	movss  0x5938(%rip),%xmm0        # cc74 <l_1184.4322+0x94>
    733b:	00 
    733c:	f3 0f 59 c1          	mulss  %xmm1,%xmm0
    7340:	f3 0f 10 55 f8       	movss  -0x8(%rbp),%xmm2
    7345:	f3 0f 10 0d 2b 59 00 	movss  0x592b(%rip),%xmm1        # cc78 <l_1184.4322+0x98>
    734c:	00 
    734d:	f3 0f 59 ca          	mulss  %xmm2,%xmm1
    7351:	f3 0f 5e c1          	divss  %xmm1,%xmm0
    7355:	f3 0f 10 0d f3 58 00 	movss  0x58f3(%rip),%xmm1        # cc50 <l_1184.4322+0x70>
    735c:	00 
    735d:	0f 54 c1             	andps  %xmm1,%xmm0
    7360:	0f 2f 05 15 59 00 00 	comiss 0x5915(%rip),%xmm0        # cc7c <l_1184.4322+0x9c>
    7367:	0f 97 c0             	seta   %al
    736a:	83 f0 01             	xor    $0x1,%eax
    736d:	84 c0                	test   %al,%al
    736f:	74 0c                	je     737d <safe_div_func_float_f_f+0x99>
    7371:	f3 0f 10 45 fc       	movss  -0x4(%rbp),%xmm0
    7376:	f3 0f 5e 45 f8       	divss  -0x8(%rbp),%xmm0
    737b:	eb 05                	jmp    7382 <safe_div_func_float_f_f+0x9e>
    737d:	f3 0f 10 45 fc       	movss  -0x4(%rbp),%xmm0
    7382:	5d                   	pop    %rbp
    7383:	c3                   	retq   

0000000000007384 <safe_add_func_double_f_f>:
    7384:	f3 0f 1e fa          	endbr64 
    7388:	55                   	push   %rbp
    7389:	48 89 e5             	mov    %rsp,%rbp
    738c:	f2 0f 11 45 f8       	movsd  %xmm0,-0x8(%rbp)
    7391:	f2 0f 11 4d f0       	movsd  %xmm1,-0x10(%rbp)
    7396:	f2 0f 10 4d f8       	movsd  -0x8(%rbp),%xmm1
    739b:	f2 0f 10 05 dd 58 00 	movsd  0x58dd(%rip),%xmm0        # cc80 <l_1184.4322+0xa0>
    73a2:	00 
    73a3:	f2 0f 59 c8          	mulsd  %xmm0,%xmm1
    73a7:	f2 0f 10 55 f0       	movsd  -0x10(%rbp),%xmm2
    73ac:	f2 0f 10 05 cc 58 00 	movsd  0x58cc(%rip),%xmm0        # cc80 <l_1184.4322+0xa0>
    73b3:	00 
    73b4:	f2 0f 59 c2          	mulsd  %xmm2,%xmm0
    73b8:	f2 0f 58 c1          	addsd  %xmm1,%xmm0
    73bc:	f3 0f 7e 0d cc 58 00 	movq   0x58cc(%rip),%xmm1        # cc90 <l_1184.4322+0xb0>
    73c3:	00 
    73c4:	66 0f 54 c1          	andpd  %xmm1,%xmm0
    73c8:	66 0f 2f 05 d0 58 00 	comisd 0x58d0(%rip),%xmm0        # cca0 <l_1184.4322+0xc0>
    73cf:	00 
    73d0:	76 07                	jbe    73d9 <safe_add_func_double_f_f+0x55>
    73d2:	f2 0f 10 45 f8       	movsd  -0x8(%rbp),%xmm0
    73d7:	eb 0a                	jmp    73e3 <safe_add_func_double_f_f+0x5f>
    73d9:	f2 0f 10 45 f8       	movsd  -0x8(%rbp),%xmm0
    73de:	f2 0f 58 45 f0       	addsd  -0x10(%rbp),%xmm0
    73e3:	5d                   	pop    %rbp
    73e4:	c3                   	retq   

00000000000073e5 <safe_sub_func_double_f_f>:
    73e5:	f3 0f 1e fa          	endbr64 
    73e9:	55                   	push   %rbp
    73ea:	48 89 e5             	mov    %rsp,%rbp
    73ed:	f2 0f 11 45 f8       	movsd  %xmm0,-0x8(%rbp)
    73f2:	f2 0f 11 4d f0       	movsd  %xmm1,-0x10(%rbp)
    73f7:	f2 0f 10 4d f8       	movsd  -0x8(%rbp),%xmm1
    73fc:	f2 0f 10 05 7c 58 00 	movsd  0x587c(%rip),%xmm0        # cc80 <l_1184.4322+0xa0>
    7403:	00 
    7404:	f2 0f 59 c1          	mulsd  %xmm1,%xmm0
    7408:	f2 0f 10 55 f0       	movsd  -0x10(%rbp),%xmm2
    740d:	f2 0f 10 0d 6b 58 00 	movsd  0x586b(%rip),%xmm1        # cc80 <l_1184.4322+0xa0>
    7414:	00 
    7415:	f2 0f 59 ca          	mulsd  %xmm2,%xmm1
    7419:	f2 0f 5c c1          	subsd  %xmm1,%xmm0
    741d:	f3 0f 7e 0d 6b 58 00 	movq   0x586b(%rip),%xmm1        # cc90 <l_1184.4322+0xb0>
    7424:	00 
    7425:	66 0f 54 c1          	andpd  %xmm1,%xmm0
    7429:	66 0f 2f 05 6f 58 00 	comisd 0x586f(%rip),%xmm0        # cca0 <l_1184.4322+0xc0>
    7430:	00 
    7431:	76 07                	jbe    743a <safe_sub_func_double_f_f+0x55>
    7433:	f2 0f 10 45 f8       	movsd  -0x8(%rbp),%xmm0
    7438:	eb 0a                	jmp    7444 <safe_sub_func_double_f_f+0x5f>
    743a:	f2 0f 10 45 f8       	movsd  -0x8(%rbp),%xmm0
    743f:	f2 0f 5c 45 f0       	subsd  -0x10(%rbp),%xmm0
    7444:	5d                   	pop    %rbp
    7445:	c3                   	retq   

0000000000007446 <safe_mul_func_double_f_f>:
    7446:	f3 0f 1e fa          	endbr64 
    744a:	55                   	push   %rbp
    744b:	48 89 e5             	mov    %rsp,%rbp
    744e:	f2 0f 11 45 f8       	movsd  %xmm0,-0x8(%rbp)
    7453:	f2 0f 11 4d f0       	movsd  %xmm1,-0x10(%rbp)
    7458:	f2 0f 10 4d f8       	movsd  -0x8(%rbp),%xmm1
    745d:	f2 0f 10 05 43 58 00 	movsd  0x5843(%rip),%xmm0        # cca8 <l_1184.4322+0xc8>
    7464:	00 
    7465:	f2 0f 59 c8          	mulsd  %xmm0,%xmm1
    7469:	f2 0f 10 55 f0       	movsd  -0x10(%rbp),%xmm2
    746e:	f2 0f 10 05 3a 58 00 	movsd  0x583a(%rip),%xmm0        # ccb0 <l_1184.4322+0xd0>
    7475:	00 
    7476:	f2 0f 59 c2          	mulsd  %xmm2,%xmm0
    747a:	f2 0f 59 c1          	mulsd  %xmm1,%xmm0
    747e:	f3 0f 7e 0d 0a 58 00 	movq   0x580a(%rip),%xmm1        # cc90 <l_1184.4322+0xb0>
    7485:	00 
    7486:	66 0f 54 c1          	andpd  %xmm1,%xmm0
    748a:	66 0f 2f 05 26 58 00 	comisd 0x5826(%rip),%xmm0        # ccb8 <l_1184.4322+0xd8>
    7491:	00 
    7492:	76 07                	jbe    749b <safe_mul_func_double_f_f+0x55>
    7494:	f2 0f 10 45 f8       	movsd  -0x8(%rbp),%xmm0
    7499:	eb 0a                	jmp    74a5 <safe_mul_func_double_f_f+0x5f>
    749b:	f2 0f 10 45 f8       	movsd  -0x8(%rbp),%xmm0
    74a0:	f2 0f 59 45 f0       	mulsd  -0x10(%rbp),%xmm0
    74a5:	5d                   	pop    %rbp
    74a6:	c3                   	retq   

00000000000074a7 <safe_div_func_double_f_f>:
    74a7:	f3 0f 1e fa          	endbr64 
    74ab:	55                   	push   %rbp
    74ac:	48 89 e5             	mov    %rsp,%rbp
    74af:	f2 0f 11 45 f8       	movsd  %xmm0,-0x8(%rbp)
    74b4:	f2 0f 11 4d f0       	movsd  %xmm1,-0x10(%rbp)
    74b9:	f2 0f 10 45 f0       	movsd  -0x10(%rbp),%xmm0
    74be:	f3 0f 7e 0d ca 57 00 	movq   0x57ca(%rip),%xmm1        # cc90 <l_1184.4322+0xb0>
    74c5:	00 
    74c6:	66 0f 54 c8          	andpd  %xmm0,%xmm1
    74ca:	f2 0f 10 05 ee 57 00 	movsd  0x57ee(%rip),%xmm0        # ccc0 <l_1184.4322+0xe0>
    74d1:	00 
    74d2:	66 0f 2f c1          	comisd %xmm1,%xmm0
    74d6:	0f 97 c0             	seta   %al
    74d9:	83 f0 01             	xor    $0x1,%eax
    74dc:	84 c0                	test   %al,%al
    74de:	75 5a                	jne    753a <safe_div_func_double_f_f+0x93>
    74e0:	66 0f ef c0          	pxor   %xmm0,%xmm0
    74e4:	66 0f 2e 45 f0       	ucomisd -0x10(%rbp),%xmm0
    74e9:	7a 0b                	jp     74f6 <safe_div_func_double_f_f+0x4f>
    74eb:	66 0f ef c0          	pxor   %xmm0,%xmm0
    74ef:	66 0f 2e 45 f0       	ucomisd -0x10(%rbp),%xmm0
    74f4:	74 50                	je     7546 <safe_div_func_double_f_f+0x9f>
    74f6:	f2 0f 10 4d f8       	movsd  -0x8(%rbp),%xmm1
    74fb:	f2 0f 10 05 c5 57 00 	movsd  0x57c5(%rip),%xmm0        # ccc8 <l_1184.4322+0xe8>
    7502:	00 
    7503:	f2 0f 59 c1          	mulsd  %xmm1,%xmm0
    7507:	f2 0f 10 55 f0       	movsd  -0x10(%rbp),%xmm2
    750c:	f2 0f 10 0d bc 57 00 	movsd  0x57bc(%rip),%xmm1        # ccd0 <l_1184.4322+0xf0>
    7513:	00 
    7514:	f2 0f 59 ca          	mulsd  %xmm2,%xmm1
    7518:	f2 0f 5e c1          	divsd  %xmm1,%xmm0
    751c:	f3 0f 7e 0d 6c 57 00 	movq   0x576c(%rip),%xmm1        # cc90 <l_1184.4322+0xb0>
    7523:	00 
    7524:	66 0f 54 c1          	andpd  %xmm1,%xmm0
    7528:	66 0f 2f 05 a8 57 00 	comisd 0x57a8(%rip),%xmm0        # ccd8 <l_1184.4322+0xf8>
    752f:	00 
    7530:	0f 97 c0             	seta   %al
    7533:	83 f0 01             	xor    $0x1,%eax
    7536:	84 c0                	test   %al,%al
    7538:	74 0c                	je     7546 <safe_div_func_double_f_f+0x9f>
    753a:	f2 0f 10 45 f8       	movsd  -0x8(%rbp),%xmm0
    753f:	f2 0f 5e 45 f0       	divsd  -0x10(%rbp),%xmm0
    7544:	eb 05                	jmp    754b <safe_div_func_double_f_f+0xa4>
    7546:	f2 0f 10 45 f8       	movsd  -0x8(%rbp),%xmm0
    754b:	5d                   	pop    %rbp
    754c:	c3                   	retq   

000000000000754d <safe_convert_func_float_to_int32_t>:
    754d:	f3 0f 1e fa          	endbr64 
    7551:	55                   	push   %rbp
    7552:	48 89 e5             	mov    %rsp,%rbp
    7555:	f3 0f 11 45 fc       	movss  %xmm0,-0x4(%rbp)
    755a:	f3 0f 10 05 7e 57 00 	movss  0x577e(%rip),%xmm0        # cce0 <l_1184.4322+0x100>
    7561:	00 
    7562:	0f 2f 45 fc          	comiss -0x4(%rbp),%xmm0
    7566:	0f 93 c0             	setae  %al
    7569:	83 f0 01             	xor    $0x1,%eax
    756c:	84 c0                	test   %al,%al
    756e:	74 21                	je     7591 <safe_convert_func_float_to_int32_t+0x44>
    7570:	f3 0f 10 45 fc       	movss  -0x4(%rbp),%xmm0
    7575:	0f 2f 05 68 57 00 00 	comiss 0x5768(%rip),%xmm0        # cce4 <l_1184.4322+0x104>
    757c:	0f 93 c0             	setae  %al
    757f:	83 f0 01             	xor    $0x1,%eax
    7582:	84 c0                	test   %al,%al
    7584:	74 0b                	je     7591 <safe_convert_func_float_to_int32_t+0x44>
    7586:	f3 0f 10 45 fc       	movss  -0x4(%rbp),%xmm0
    758b:	f3 0f 2c c0          	cvttss2si %xmm0,%eax
    758f:	eb 05                	jmp    7596 <safe_convert_func_float_to_int32_t+0x49>
    7591:	b8 ff ff ff 7f       	mov    $0x7fffffff,%eax
    7596:	5d                   	pop    %rbp
    7597:	c3                   	retq   

0000000000007598 <crc32_gentab>:
    7598:	f3 0f 1e fa          	endbr64 
    759c:	55                   	push   %rbp
    759d:	48 89 e5             	mov    %rsp,%rbp
    75a0:	c7 45 fc 20 83 b8 ed 	movl   $0xedb88320,-0x4(%rbp)
    75a7:	c7 45 f4 00 00 00 00 	movl   $0x0,-0xc(%rbp)
    75ae:	eb 51                	jmp    7601 <crc32_gentab+0x69>
    75b0:	8b 45 f4             	mov    -0xc(%rbp),%eax
    75b3:	89 45 f0             	mov    %eax,-0x10(%rbp)
    75b6:	c7 45 f8 08 00 00 00 	movl   $0x8,-0x8(%rbp)
    75bd:	eb 1e                	jmp    75dd <crc32_gentab+0x45>
    75bf:	8b 45 f0             	mov    -0x10(%rbp),%eax
    75c2:	83 e0 01             	and    $0x1,%eax
    75c5:	85 c0                	test   %eax,%eax
    75c7:	74 0d                	je     75d6 <crc32_gentab+0x3e>
    75c9:	8b 45 f0             	mov    -0x10(%rbp),%eax
    75cc:	d1 e8                	shr    %eax
    75ce:	33 45 fc             	xor    -0x4(%rbp),%eax
    75d1:	89 45 f0             	mov    %eax,-0x10(%rbp)
    75d4:	eb 03                	jmp    75d9 <crc32_gentab+0x41>
    75d6:	d1 6d f0             	shrl   -0x10(%rbp)
    75d9:	83 6d f8 01          	subl   $0x1,-0x8(%rbp)
    75dd:	83 7d f8 00          	cmpl   $0x0,-0x8(%rbp)
    75e1:	7f dc                	jg     75bf <crc32_gentab+0x27>
    75e3:	8b 45 f4             	mov    -0xc(%rbp),%eax
    75e6:	48 98                	cltq   
    75e8:	48 8d 0c 85 00 00 00 	lea    0x0(,%rax,4),%rcx
    75ef:	00 
    75f0:	48 8d 15 c9 ae 00 00 	lea    0xaec9(%rip),%rdx        # 124c0 <crc32_tab>
    75f7:	8b 45 f0             	mov    -0x10(%rbp),%eax
    75fa:	89 04 11             	mov    %eax,(%rcx,%rdx,1)
    75fd:	83 45 f4 01          	addl   $0x1,-0xc(%rbp)
    7601:	81 7d f4 ff 00 00 00 	cmpl   $0xff,-0xc(%rbp)
    7608:	7e a6                	jle    75b0 <crc32_gentab+0x18>
    760a:	90                   	nop
    760b:	90                   	nop
    760c:	5d                   	pop    %rbp
    760d:	c3                   	retq   

000000000000760e <crc32_byte>:
    760e:	f3 0f 1e fa          	endbr64 
    7612:	55                   	push   %rbp
    7613:	48 89 e5             	mov    %rsp,%rbp
    7616:	89 f8                	mov    %edi,%eax
    7618:	88 45 fc             	mov    %al,-0x4(%rbp)
    761b:	8b 05 ff 89 00 00    	mov    0x89ff(%rip),%eax        # 10020 <crc32_context>
    7621:	c1 e8 08             	shr    $0x8,%eax
    7624:	89 c1                	mov    %eax,%ecx
    7626:	0f b6 55 fc          	movzbl -0x4(%rbp),%edx
    762a:	8b 05 f0 89 00 00    	mov    0x89f0(%rip),%eax        # 10020 <crc32_context>
    7630:	31 d0                	xor    %edx,%eax
    7632:	0f b6 c0             	movzbl %al,%eax
    7635:	89 c0                	mov    %eax,%eax
    7637:	48 8d 14 85 00 00 00 	lea    0x0(,%rax,4),%rdx
    763e:	00 
    763f:	48 8d 05 7a ae 00 00 	lea    0xae7a(%rip),%rax        # 124c0 <crc32_tab>
    7646:	8b 04 02             	mov    (%rdx,%rax,1),%eax
    7649:	31 c8                	xor    %ecx,%eax
    764b:	89 05 cf 89 00 00    	mov    %eax,0x89cf(%rip)        # 10020 <crc32_context>
    7651:	90                   	nop
    7652:	5d                   	pop    %rbp
    7653:	c3                   	retq   

0000000000007654 <crc32_8bytes>:
    7654:	f3 0f 1e fa          	endbr64 
    7658:	55                   	push   %rbp
    7659:	48 89 e5             	mov    %rsp,%rbp
    765c:	48 83 ec 08          	sub    $0x8,%rsp
    7660:	48 89 7d f8          	mov    %rdi,-0x8(%rbp)
    7664:	48 8b 45 f8          	mov    -0x8(%rbp),%rax
    7668:	0f b6 c0             	movzbl %al,%eax
    766b:	89 c7                	mov    %eax,%edi
    766d:	e8 9c ff ff ff       	callq  760e <crc32_byte>
    7672:	48 8b 45 f8          	mov    -0x8(%rbp),%rax
    7676:	48 c1 e8 08          	shr    $0x8,%rax
    767a:	0f b6 c0             	movzbl %al,%eax
    767d:	89 c7                	mov    %eax,%edi
    767f:	e8 8a ff ff ff       	callq  760e <crc32_byte>
    7684:	48 8b 45 f8          	mov    -0x8(%rbp),%rax
    7688:	48 c1 e8 10          	shr    $0x10,%rax
    768c:	0f b6 c0             	movzbl %al,%eax
    768f:	89 c7                	mov    %eax,%edi
    7691:	e8 78 ff ff ff       	callq  760e <crc32_byte>
    7696:	48 8b 45 f8          	mov    -0x8(%rbp),%rax
    769a:	48 c1 e8 18          	shr    $0x18,%rax
    769e:	0f b6 c0             	movzbl %al,%eax
    76a1:	89 c7                	mov    %eax,%edi
    76a3:	e8 66 ff ff ff       	callq  760e <crc32_byte>
    76a8:	48 8b 45 f8          	mov    -0x8(%rbp),%rax
    76ac:	48 c1 e8 20          	shr    $0x20,%rax
    76b0:	0f b6 c0             	movzbl %al,%eax
    76b3:	89 c7                	mov    %eax,%edi
    76b5:	e8 54 ff ff ff       	callq  760e <crc32_byte>
    76ba:	48 8b 45 f8          	mov    -0x8(%rbp),%rax
    76be:	48 c1 e8 28          	shr    $0x28,%rax
    76c2:	0f b6 c0             	movzbl %al,%eax
    76c5:	89 c7                	mov    %eax,%edi
    76c7:	e8 42 ff ff ff       	callq  760e <crc32_byte>
    76cc:	48 8b 45 f8          	mov    -0x8(%rbp),%rax
    76d0:	48 c1 e8 30          	shr    $0x30,%rax
    76d4:	0f b6 c0             	movzbl %al,%eax
    76d7:	89 c7                	mov    %eax,%edi
    76d9:	e8 30 ff ff ff       	callq  760e <crc32_byte>
    76de:	48 8b 45 f8          	mov    -0x8(%rbp),%rax
    76e2:	48 c1 e8 38          	shr    $0x38,%rax
    76e6:	0f b6 c0             	movzbl %al,%eax
    76e9:	89 c7                	mov    %eax,%edi
    76eb:	e8 1e ff ff ff       	callq  760e <crc32_byte>
    76f0:	90                   	nop
    76f1:	c9                   	leaveq 
    76f2:	c3                   	retq   

00000000000076f3 <transparent_crc>:
    76f3:	f3 0f 1e fa          	endbr64 
    76f7:	55                   	push   %rbp
    76f8:	48 89 e5             	mov    %rsp,%rbp
    76fb:	48 83 ec 20          	sub    $0x20,%rsp
    76ff:	48 89 7d f8          	mov    %rdi,-0x8(%rbp)
    7703:	48 89 75 f0          	mov    %rsi,-0x10(%rbp)
    7707:	89 55 ec             	mov    %edx,-0x14(%rbp)
    770a:	48 8b 45 f8          	mov    -0x8(%rbp),%rax
    770e:	48 89 c7             	mov    %rax,%rdi
    7711:	e8 3e ff ff ff       	callq  7654 <crc32_8bytes>
    7716:	83 7d ec 00          	cmpl   $0x0,-0x14(%rbp)
    771a:	74 22                	je     773e <transparent_crc+0x4b>
    771c:	8b 05 fe 88 00 00    	mov    0x88fe(%rip),%eax        # 10020 <crc32_context>
    7722:	f7 d0                	not    %eax
    7724:	89 c2                	mov    %eax,%edx
    7726:	48 8b 45 f0          	mov    -0x10(%rbp),%rax
    772a:	48 89 c6             	mov    %rax,%rsi
    772d:	48 8d 3d fc 48 00 00 	lea    0x48fc(%rip),%rdi        # c030 <_IO_stdin_used+0x30>
    7734:	b8 00 00 00 00       	mov    $0x0,%eax
    7739:	e8 42 e9 ff ff       	callq  6080 <printf@plt>
    773e:	90                   	nop
    773f:	c9                   	leaveq 
    7740:	c3                   	retq   

0000000000007741 <transparent_crc_bytes>:
    7741:	f3 0f 1e fa          	endbr64 
    7745:	55                   	push   %rbp
    7746:	48 89 e5             	mov    %rsp,%rbp
    7749:	48 83 ec 30          	sub    $0x30,%rsp
    774d:	48 89 7d e8          	mov    %rdi,-0x18(%rbp)
    7751:	89 75 e4             	mov    %esi,-0x1c(%rbp)
    7754:	48 89 55 d8          	mov    %rdx,-0x28(%rbp)
    7758:	89 4d e0             	mov    %ecx,-0x20(%rbp)
    775b:	c7 45 fc 00 00 00 00 	movl   $0x0,-0x4(%rbp)
    7762:	eb 1e                	jmp    7782 <transparent_crc_bytes+0x41>
    7764:	8b 45 fc             	mov    -0x4(%rbp),%eax
    7767:	48 63 d0             	movslq %eax,%rdx
    776a:	48 8b 45 e8          	mov    -0x18(%rbp),%rax
    776e:	48 01 d0             	add    %rdx,%rax
    7771:	0f b6 00             	movzbl (%rax),%eax
    7774:	0f b6 c0             	movzbl %al,%eax
    7777:	89 c7                	mov    %eax,%edi
    7779:	e8 90 fe ff ff       	callq  760e <crc32_byte>
    777e:	83 45 fc 01          	addl   $0x1,-0x4(%rbp)
    7782:	8b 45 fc             	mov    -0x4(%rbp),%eax
    7785:	3b 45 e4             	cmp    -0x1c(%rbp),%eax
    7788:	7c da                	jl     7764 <transparent_crc_bytes+0x23>
    778a:	83 7d e0 00          	cmpl   $0x0,-0x20(%rbp)
    778e:	74 22                	je     77b2 <transparent_crc_bytes+0x71>
    7790:	8b 05 8a 88 00 00    	mov    0x888a(%rip),%eax        # 10020 <crc32_context>
    7796:	f7 d0                	not    %eax
    7798:	89 c2                	mov    %eax,%edx
    779a:	48 8b 45 d8          	mov    -0x28(%rbp),%rax
    779e:	48 89 c6             	mov    %rax,%rsi
    77a1:	48 8d 3d 88 48 00 00 	lea    0x4888(%rip),%rdi        # c030 <_IO_stdin_used+0x30>
    77a8:	b8 00 00 00 00       	mov    $0x0,%eax
    77ad:	e8 ce e8 ff ff       	callq  6080 <printf@plt>
    77b2:	90                   	nop
    77b3:	c9                   	leaveq 
    77b4:	c3                   	retq   

00000000000077b5 <func_1>:
    77b5:	f3 0f 1e fa          	endbr64 
    77b9:	55                   	push   %rbp
    77ba:	48 89 e5             	mov    %rsp,%rbp
    77bd:	41 55                	push   %r13
    77bf:	41 54                	push   %r12
    77c1:	53                   	push   %rbx
    77c2:	48 81 ec b8 0a 00 00 	sub    $0xab8,%rsp
    77c9:	64 48 8b 04 25 28 00 	mov    %fs:0x28,%rax
    77d0:	00 00 
    77d2:	48 89 45 d8          	mov    %rax,-0x28(%rbp)
    77d6:	31 c0                	xor    %eax,%eax
    77d8:	48 8d 05 4d 88 00 00 	lea    0x884d(%rip),%rax        # 1002c <g_9>
    77df:	48 89 85 b0 f5 ff ff 	mov    %rax,-0xa50(%rbp)
    77e6:	48 b8 51 8a 9b ce a8 	movabs $0x307758a8ce9b8a51,%rax
    77ed:	58 77 30 
    77f0:	48 89 85 a8 f5 ff ff 	mov    %rax,-0xa58(%rbp)
    77f7:	48 8d 85 e0 f6 ff ff 	lea    -0x920(%rbp),%rax
    77fe:	48 8d 15 9b 48 00 00 	lea    0x489b(%rip),%rdx        # c0a0 <g_1875+0x30>
    7805:	b9 7e 00 00 00       	mov    $0x7e,%ecx
    780a:	48 89 c7             	mov    %rax,%rdi
    780d:	48 89 d6             	mov    %rdx,%rsi
    7810:	f3 48 a5             	rep movsq %ds:(%rsi),%es:(%rdi)
    7813:	66 c7 85 3c f5 ff ff 	movw   $0xffff,-0xac4(%rbp)
    781a:	ff ff 
    781c:	48 c7 85 b8 f5 ff ff 	movq   $0x0,-0xa48(%rbp)
    7823:	00 00 00 00 
    7827:	c6 85 39 f5 ff ff ff 	movb   $0xff,-0xac7(%rbp)
    782e:	66 c7 85 3e f5 ff ff 	movw   $0x5,-0xac2(%rbp)
    7835:	05 00 
    7837:	48 c7 85 c0 f5 ff ff 	movq   $0x1,-0xa40(%rbp)
    783e:	01 00 00 00 
    7842:	66 c7 85 40 f5 ff ff 	movw   $0x1,-0xac0(%rbp)
    7849:	01 00 
    784b:	48 8d 05 5e 9b 00 00 	lea    0x9b5e(%rip),%rax        # 113b0 <g_112+0x150>
    7852:	48 89 85 c8 f5 ff ff 	mov    %rax,-0xa38(%rbp)
    7859:	48 8d 85 e0 f6 ff ff 	lea    -0x920(%rbp),%rax
    7860:	48 05 54 01 00 00    	add    $0x154,%rax
    7866:	48 89 85 90 f5 ff ff 	mov    %rax,-0xa70(%rbp)
    786d:	48 8d 85 90 f5 ff ff 	lea    -0xa70(%rbp),%rax
    7874:	48 89 85 d0 f5 ff ff 	mov    %rax,-0xa30(%rbp)
    787b:	c7 05 9f 87 00 00 14 	movl   $0x14,0x879f(%rip)        # 10024 <g_2>
    7882:	00 00 00 
    7885:	e9 1b 05 00 00       	jmpq   7da5 <func_1+0x5f0>
    788a:	66 c7 85 a0 f6 ff ff 	movw   $0x3fa,-0x960(%rbp)
    7891:	fa 03 
    7893:	66 c7 85 a2 f6 ff ff 	movw   $0x3fa,-0x95e(%rbp)
    789a:	fa 03 
    789c:	66 c7 85 a4 f6 ff ff 	movw   $0x3fa,-0x95c(%rbp)
    78a3:	fa 03 
    78a5:	66 c7 85 a6 f6 ff ff 	movw   $0x3fa,-0x95a(%rbp)
    78ac:	fa 03 
    78ae:	c7 85 98 f5 ff ff 22 	movl   $0x1b5ab522,-0xa68(%rbp)
    78b5:	b5 5a 1b 
    78b8:	48 8d 05 79 87 00 00 	lea    0x8779(%rip),%rax        # 10038 <g_95>
    78bf:	48 89 85 30 f6 ff ff 	mov    %rax,-0x9d0(%rbp)
    78c6:	48 c7 85 38 f6 ff ff 	movq   $0x0,-0x9c8(%rbp)
    78cd:	00 00 00 00 
    78d1:	48 8d 85 e0 f6 ff ff 	lea    -0x920(%rbp),%rax
    78d8:	48 05 60 03 00 00    	add    $0x360,%rax
    78de:	48 89 85 40 f6 ff ff 	mov    %rax,-0x9c0(%rbp)
    78e5:	c7 05 39 87 00 00 0a 	movl   $0xa,0x8739(%rip)        # 10028 <g_5>
    78ec:	00 00 00 
    78ef:	eb 37                	jmp    7928 <func_1+0x173>
    78f1:	48 8d 85 d0 fa ff ff 	lea    -0x530(%rbp),%rax
    78f8:	48 8d 15 01 8d 00 00 	lea    0x8d01(%rip),%rdx        # 10600 <g_2349+0x18>
    78ff:	b9 a0 00 00 00       	mov    $0xa0,%ecx
    7904:	48 89 c7             	mov    %rax,%rdi
    7907:	48 89 d6             	mov    %rdx,%rsi
    790a:	f3 48 a5             	rep movsq %ds:(%rsi),%es:(%rdi)
    790d:	8b 05 15 87 00 00    	mov    0x8715(%rip),%eax        # 10028 <g_5>
    7913:	48 98                	cltq   
    7915:	be 05 00 00 00       	mov    $0x5,%esi
    791a:	48 89 c7             	mov    %rax,%rdi
    791d:	e8 29 f7 ff ff       	callq  704b <safe_sub_func_uint64_t_u_u>
    7922:	89 05 00 87 00 00    	mov    %eax,0x8700(%rip)        # 10028 <g_5>
    7928:	8b 05 fa 86 00 00    	mov    0x86fa(%rip),%eax        # 10028 <g_5>
    792e:	83 f8 07             	cmp    $0x7,%eax
    7931:	75 be                	jne    78f1 <func_1+0x13c>
    7933:	48 8b 85 b0 f5 ff ff 	mov    -0xa50(%rbp),%rax
    793a:	8b 00                	mov    (%rax),%eax
    793c:	85 c0                	test   %eax,%eax
    793e:	74 2b                	je     796b <func_1+0x1b6>
    7940:	48 c7 85 60 f6 ff ff 	movq   $0x0,-0x9a0(%rbp)
    7947:	00 00 00 00 
    794b:	48 8d 85 98 f5 ff ff 	lea    -0xa68(%rbp),%rax
    7952:	48 89 85 68 f6 ff ff 	mov    %rax,-0x998(%rbp)
    7959:	48 8b 85 68 f6 ff ff 	mov    -0x998(%rbp),%rax
    7960:	c7 00 09 b3 98 c2    	movl   $0xc298b309,(%rax)
    7966:	e9 b9 02 00 00       	jmpq   7c24 <func_1+0x46f>
    796b:	c7 85 8c f5 ff ff 0a 	movl   $0x4a56f00a,-0xa74(%rbp)
    7972:	f0 56 4a 
    7975:	48 8d 85 e0 f6 ff ff 	lea    -0x920(%rbp),%rax
    797c:	48 05 54 01 00 00    	add    $0x154,%rax
    7982:	48 89 85 a0 f5 ff ff 	mov    %rax,-0xa60(%rbp)
    7989:	48 8d 85 98 f5 ff ff 	lea    -0xa68(%rbp),%rax
    7990:	48 89 85 48 f6 ff ff 	mov    %rax,-0x9b8(%rbp)
    7997:	48 8d 05 b2 9d 00 00 	lea    0x9db2(%rip),%rax        # 11750 <g_201+0x30>
    799e:	48 89 85 50 f6 ff ff 	mov    %rax,-0x9b0(%rbp)
    79a5:	48 8d 05 b4 86 00 00 	lea    0x86b4(%rip),%rax        # 10060 <g_172>
    79ac:	48 89 85 58 f6 ff ff 	mov    %rax,-0x9a8(%rbp)
    79b3:	48 8b 85 b0 f5 ff ff 	mov    -0xa50(%rbp),%rax
    79ba:	8b 00                	mov    (%rax),%eax
    79bc:	41 89 c5             	mov    %eax,%r13d
    79bf:	48 8b 05 e2 9d 00 00 	mov    0x9de2(%rip),%rax        # 117a8 <g_797>
    79c6:	8b 18                	mov    (%rax),%ebx
    79c8:	0f b7 05 57 89 00 00 	movzwl 0x8957(%rip),%eax        # 10326 <g_888+0x6>
    79cf:	83 c8 02             	or     $0x2,%eax
    79d2:	89 c2                	mov    %eax,%edx
    79d4:	0f b7 85 a4 f6 ff ff 	movzwl -0x95c(%rbp),%eax
    79db:	89 d1                	mov    %edx,%ecx
    79dd:	09 c1                	or     %eax,%ecx
    79df:	0f b7 15 ce 8b 00 00 	movzwl 0x8bce(%rip),%edx        # 105b4 <g_2203+0x4>
    79e6:	0f b7 05 59 8a 00 00 	movzwl 0x8a59(%rip),%eax        # 10446 <g_1497+0x6>
    79ed:	66 39 c2             	cmp    %ax,%dx
    79f0:	0f 9f c0             	setg   %al
    79f3:	09 c8                	or     %ecx,%eax
    79f5:	0f be d0             	movsbl %al,%edx
    79f8:	8b 85 8c f5 ff ff    	mov    -0xa74(%rbp),%eax
    79fe:	0f be c0             	movsbl %al,%eax
    7a01:	89 d6                	mov    %edx,%esi
    7a03:	89 c7                	mov    %eax,%edi
    7a05:	e8 e8 e7 ff ff       	callq  61f2 <safe_sub_func_int8_t_s_s>
    7a0a:	44 0f be e0          	movsbl %al,%r12d
    7a0e:	48 8b 85 b0 f5 ff ff 	mov    -0xa50(%rbp),%rax
    7a15:	8b 00                	mov    (%rax),%eax
    7a17:	89 c6                	mov    %eax,%esi
    7a19:	bf fa ff ff ff       	mov    $0xfffffffa,%edi
    7a1e:	e8 49 e9 ff ff       	callq  636c <safe_rshift_func_int8_t_s_u>
    7a23:	0f be c0             	movsbl %al,%eax
    7a26:	44 89 e6             	mov    %r12d,%esi
    7a29:	89 c7                	mov    %eax,%edi
    7a2b:	e8 f5 f4 ff ff       	callq  6f25 <safe_div_func_uint32_t_u_u>
    7a30:	85 c0                	test   %eax,%eax
    7a32:	74 13                	je     7a47 <func_1+0x292>
    7a34:	48 8b 05 9d 8b 00 00 	mov    0x8b9d(%rip),%rax        # 105d8 <g_2304>
    7a3b:	48 85 c0             	test   %rax,%rax
    7a3e:	74 07                	je     7a47 <func_1+0x292>
    7a40:	b9 01 00 00 00       	mov    $0x1,%ecx
    7a45:	eb 05                	jmp    7a4c <func_1+0x297>
    7a47:	b9 00 00 00 00       	mov    $0x0,%ecx
    7a4c:	48 8b 85 a0 f5 ff ff 	mov    -0xa60(%rbp),%rax
    7a53:	8b 10                	mov    (%rax),%edx
    7a55:	48 8b 85 a0 f5 ff ff 	mov    -0xa60(%rbp),%rax
    7a5c:	21 ca                	and    %ecx,%edx
    7a5e:	89 10                	mov    %edx,(%rax)
    7a60:	8b 00                	mov    (%rax),%eax
    7a62:	89 de                	mov    %ebx,%esi
    7a64:	89 c7                	mov    %eax,%edi
    7a66:	e8 9a eb ff ff       	callq  6605 <safe_sub_func_int32_t_s_s>
    7a6b:	48 8b 85 a0 f5 ff ff 	mov    -0xa60(%rbp),%rax
    7a72:	8b 10                	mov    (%rax),%edx
    7a74:	48 8b 85 b0 f5 ff ff 	mov    -0xa50(%rbp),%rax
    7a7b:	8b 00                	mov    (%rax),%eax
    7a7d:	21 d0                	and    %edx,%eax
    7a7f:	44 89 ee             	mov    %r13d,%esi
    7a82:	89 c7                	mov    %eax,%edi
    7a84:	e8 47 f4 ff ff       	callq  6ed0 <safe_sub_func_uint32_t_u_u>
    7a89:	48 8b 05 f0 9c 00 00 	mov    0x9cf0(%rip),%rax        # 11780 <g_350>
    7a90:	0f b7 00             	movzwl (%rax),%eax
    7a93:	0f b7 d0             	movzwl %ax,%edx
    7a96:	8b 85 8c f5 ff ff    	mov    -0xa74(%rbp),%eax
    7a9c:	0f b7 c0             	movzwl %ax,%eax
    7a9f:	89 d6                	mov    %edx,%esi
    7aa1:	89 c7                	mov    %eax,%edi
    7aa3:	e8 b4 f2 ff ff       	callq  6d5c <safe_mod_func_uint16_t_u_u>
    7aa8:	0f b7 d0             	movzwl %ax,%edx
    7aab:	48 8b 85 b0 f5 ff ff 	mov    -0xa50(%rbp),%rax
    7ab2:	8b 00                	mov    (%rax),%eax
    7ab4:	39 c2                	cmp    %eax,%edx
    7ab6:	0f 95 c0             	setne  %al
    7ab9:	0f b6 d0             	movzbl %al,%edx
    7abc:	48 8b 85 48 f6 ff ff 	mov    -0x9b8(%rbp),%rax
    7ac3:	8b 00                	mov    (%rax),%eax
    7ac5:	31 c2                	xor    %eax,%edx
    7ac7:	48 8b 85 48 f6 ff ff 	mov    -0x9b8(%rbp),%rax
    7ace:	89 10                	mov    %edx,(%rax)
    7ad0:	0f b7 85 a0 f6 ff ff 	movzwl -0x960(%rbp),%eax
    7ad7:	0f bf d8             	movswl %ax,%ebx
    7ada:	0f b7 05 51 85 00 00 	movzwl 0x8551(%rip),%eax        # 10032 <g_39>
    7ae1:	44 0f b7 e0          	movzwl %ax,%r12d
    7ae5:	48 8b 85 58 f6 ff ff 	mov    -0x9a8(%rbp),%rax
    7aec:	48 8b 10             	mov    (%rax),%rdx
    7aef:	0f b7 05 10 86 00 00 	movzwl 0x8610(%rip),%eax        # 10106 <g_614+0x16>
    7af6:	48 0f bf c0          	movswq %ax,%rax
    7afa:	48 09 c2             	or     %rax,%rdx
    7afd:	48 8b 85 58 f6 ff ff 	mov    -0x9a8(%rbp),%rax
    7b04:	48 89 10             	mov    %rdx,(%rax)
    7b07:	48 8b 85 58 f6 ff ff 	mov    -0x9a8(%rbp),%rax
    7b0e:	4c 8b 28             	mov    (%rax),%r13
    7b11:	48 8b 05 e6 85 00 00 	mov    0x85e6(%rip),%rax        # 100fe <g_614+0xe>
    7b18:	0f b6 d0             	movzbl %al,%edx
    7b1b:	48 8b 05 5e 96 00 00 	mov    0x965e(%rip),%rax        # 11180 <g_99>
    7b22:	0f b6 00             	movzbl (%rax),%eax
    7b25:	0f b6 c0             	movzbl %al,%eax
    7b28:	89 d6                	mov    %edx,%esi
    7b2a:	89 c7                	mov    %eax,%edi
    7b2c:	e8 47 f0 ff ff       	callq  6b78 <safe_sub_func_uint8_t_u_u>
    7b31:	84 c0                	test   %al,%al
    7b33:	74 0b                	je     7b40 <func_1+0x38b>
    7b35:	48 8b 85 48 f6 ff ff 	mov    -0x9b8(%rbp),%rax
    7b3c:	8b 00                	mov    (%rax),%eax
    7b3e:	85 c0                	test   %eax,%eax
    7b40:	0f b7 85 a2 f6 ff ff 	movzwl -0x95e(%rbp),%eax
    7b47:	0f bf d0             	movswl %ax,%edx
    7b4a:	48 8b 05 8f 8a 00 00 	mov    0x8a8f(%rip),%rax        # 105e0 <g_2315>
    7b51:	98                   	cwtl   
    7b52:	89 d6                	mov    %edx,%esi
    7b54:	89 c7                	mov    %eax,%edi
    7b56:	e8 78 e8 ff ff       	callq  63d3 <safe_sub_func_int16_t_s_s>
    7b5b:	48 0f bf c0          	movswq %ax,%rax
    7b5f:	49 39 c5             	cmp    %rax,%r13
    7b62:	0f 97 c0             	seta   %al
    7b65:	0f b6 c0             	movzbl %al,%eax
    7b68:	4c 89 e6             	mov    %r12,%rsi
    7b6b:	48 89 c7             	mov    %rax,%rdi
    7b6e:	e8 84 ee ff ff       	callq  69f7 <safe_div_func_int64_t_s_s>
    7b73:	48 83 bd 50 f6 ff ff 	cmpq   $0x0,-0x9b0(%rbp)
    7b7a:	00 
    7b7b:	0f 95 c0             	setne  %al
    7b7e:	0f b6 c0             	movzbl %al,%eax
    7b81:	89 de                	mov    %ebx,%esi
    7b83:	89 c7                	mov    %eax,%edi
    7b85:	e8 2e f3 ff ff       	callq  6eb8 <safe_add_func_uint32_t_u_u>
    7b8a:	48 8d 05 9f 9e 00 00 	lea    0x9e9f(%rip),%rax        # 11a30 <g_1422+0x10>
    7b91:	48 39 85 b8 f5 ff ff 	cmp    %rax,-0xa48(%rbp)
    7b98:	0f 95 c0             	setne  %al
    7b9b:	0f b6 c8             	movzbl %al,%ecx
    7b9e:	48 8b 85 a0 f5 ff ff 	mov    -0xa60(%rbp),%rax
    7ba5:	8b 10                	mov    (%rax),%edx
    7ba7:	48 8b 85 a0 f5 ff ff 	mov    -0xa60(%rbp),%rax
    7bae:	31 ca                	xor    %ecx,%edx
    7bb0:	89 10                	mov    %edx,(%rax)
    7bb2:	66 c7 05 75 84 00 00 	movw   $0x0,0x8475(%rip)        # 10030 <g_15>
    7bb9:	00 00 
    7bbb:	eb 48                	jmp    7c05 <func_1+0x450>
    7bbd:	66 c7 05 7e 87 00 00 	movw   $0x2,0x877e(%rip)        # 10344 <g_908+0x4>
    7bc4:	02 00 
    7bc6:	90                   	nop
    7bc7:	0f b7 05 76 87 00 00 	movzwl 0x8776(%rip),%eax        # 10344 <g_908+0x4>
    7bce:	66 83 f8 06          	cmp    $0x6,%ax
    7bd2:	7f 13                	jg     7be7 <func_1+0x432>
    7bd4:	c6 85 3b f5 ff ff 45 	movb   $0x45,-0xac5(%rbp)
    7bdb:	0f be 85 3b f5 ff ff 	movsbl -0xac5(%rbp),%eax
    7be2:	e9 bb 0b 00 00       	jmpq   87a2 <func_1+0xfed>
    7be7:	0f b7 05 42 84 00 00 	movzwl 0x8442(%rip),%eax        # 10030 <g_15>
    7bee:	0f b7 c0             	movzwl %ax,%eax
    7bf1:	be 07 00 00 00       	mov    $0x7,%esi
    7bf6:	48 89 c7             	mov    %rax,%rdi
    7bf9:	e8 30 f4 ff ff       	callq  702e <safe_add_func_uint64_t_u_u>
    7bfe:	66 89 05 2b 84 00 00 	mov    %ax,0x842b(%rip)        # 10030 <g_15>
    7c05:	0f b7 05 24 84 00 00 	movzwl 0x8424(%rip),%eax        # 10030 <g_15>
    7c0c:	66 83 f8 25          	cmp    $0x25,%ax
    7c10:	76 ab                	jbe    7bbd <func_1+0x408>
    7c12:	48 8b 85 a0 f5 ff ff 	mov    -0xa60(%rbp),%rax
    7c19:	8b 10                	mov    (%rax),%edx
    7c1b:	48 8b 85 48 f6 ff ff 	mov    -0x9b8(%rbp),%rax
    7c22:	89 10                	mov    %edx,(%rax)
    7c24:	48 8b 05 45 a8 00 00 	mov    0xa845(%rip),%rax        # 12470 <g_2167>
    7c2b:	48 8b 00             	mov    (%rax),%rax
    7c2e:	48 8b 00             	mov    (%rax),%rax
    7c31:	0f b7 00             	movzwl (%rax),%eax
    7c34:	0f bf d8             	movswl %ax,%ebx
    7c37:	48 8b 05 8a 89 00 00 	mov    0x898a(%rip),%rax        # 105c8 <g_2205>
    7c3e:	48 83 c0 01          	add    $0x1,%rax
    7c42:	48 89 05 7f 89 00 00 	mov    %rax,0x897f(%rip)        # 105c8 <g_2205>
    7c49:	48 8b 85 b0 f5 ff ff 	mov    -0xa50(%rbp),%rax
    7c50:	8b 00                	mov    (%rax),%eax
    7c52:	85 c0                	test   %eax,%eax
    7c54:	74 33                	je     7c89 <func_1+0x4d4>
    7c56:	8b 85 98 f5 ff ff    	mov    -0xa68(%rbp),%eax
    7c5c:	83 f8 01             	cmp    $0x1,%eax
    7c5f:	0f 9e c2             	setle  %dl
    7c62:	48 8b 05 17 9b 00 00 	mov    0x9b17(%rip),%rax        # 11780 <g_350>
    7c69:	0f b6 d2             	movzbl %dl,%edx
    7c6c:	66 89 10             	mov    %dx,(%rax)
    7c6f:	48 8b 05 ea a7 00 00 	mov    0xa7ea(%rip),%rax        # 12460 <g_2120>
    7c76:	48 8b 00             	mov    (%rax),%rax
    7c79:	48 8b 00             	mov    (%rax),%rax
    7c7c:	8b 00                	mov    (%rax),%eax
    7c7e:	85 c0                	test   %eax,%eax
    7c80:	74 07                	je     7c89 <func_1+0x4d4>
    7c82:	ba 01 00 00 00       	mov    $0x1,%edx
    7c87:	eb 05                	jmp    7c8e <func_1+0x4d9>
    7c89:	ba 00 00 00 00       	mov    $0x0,%edx
    7c8e:	48 8b 05 eb 94 00 00 	mov    0x94eb(%rip),%rax        # 11180 <g_99>
    7c95:	0f b6 00             	movzbl (%rax),%eax
    7c98:	0f b6 c0             	movzbl %al,%eax
    7c9b:	21 d0                	and    %edx,%eax
    7c9d:	89 c2                	mov    %eax,%edx
    7c9f:	48 8b 05 b2 a7 00 00 	mov    0xa7b2(%rip),%rax        # 12458 <g_2121>
    7ca6:	48 8b 00             	mov    (%rax),%rax
    7ca9:	8b 00                	mov    (%rax),%eax
    7cab:	39 c2                	cmp    %eax,%edx
    7cad:	0f 95 c0             	setne  %al
    7cb0:	0f b6 d0             	movzbl %al,%edx
    7cb3:	0f be 85 39 f5 ff ff 	movsbl -0xac7(%rbp),%eax
    7cba:	31 d0                	xor    %edx,%eax
    7cbc:	89 c1                	mov    %eax,%ecx
    7cbe:	48 8d 05 93 88 00 00 	lea    0x8893(%rip),%rax        # 10558 <g_2123>
    7cc5:	8b 10                	mov    (%rax),%edx
    7cc7:	48 8b 05 92 a7 00 00 	mov    0xa792(%rip),%rax        # 12460 <g_2120>
    7cce:	48 8b 00             	mov    (%rax),%rax
    7cd1:	48 8b 00             	mov    (%rax),%rax
    7cd4:	8b 00                	mov    (%rax),%eax
    7cd6:	39 c2                	cmp    %eax,%edx
    7cd8:	0f 96 c0             	setbe  %al
    7cdb:	0f b6 c0             	movzbl %al,%eax
    7cde:	89 ce                	mov    %ecx,%esi
    7ce0:	89 c7                	mov    %eax,%edi
    7ce2:	e8 3e f2 ff ff       	callq  6f25 <safe_div_func_uint32_t_u_u>
    7ce7:	89 c1                	mov    %eax,%ecx
    7ce9:	48 8b 85 30 f6 ff ff 	mov    -0x9d0(%rbp),%rax
    7cf0:	8b 10                	mov    (%rax),%edx
    7cf2:	0f b7 85 a2 f6 ff ff 	movzwl -0x95e(%rbp),%eax
    7cf9:	98                   	cwtl   
    7cfa:	09 c2                	or     %eax,%edx
    7cfc:	48 8b 85 30 f6 ff ff 	mov    -0x9d0(%rbp),%rax
    7d03:	89 10                	mov    %edx,(%rax)
    7d05:	48 8b 85 30 f6 ff ff 	mov    -0x9d0(%rbp),%rax
    7d0c:	8b 00                	mov    (%rax),%eax
    7d0e:	89 ce                	mov    %ecx,%esi
    7d10:	89 c7                	mov    %eax,%edi
    7d12:	e8 ee e8 ff ff       	callq  6605 <safe_sub_func_int32_t_s_s>
    7d17:	f7 d0                	not    %eax
    7d19:	c1 e8 1f             	shr    $0x1f,%eax
    7d1c:	0f b6 c0             	movzbl %al,%eax
    7d1f:	be 02 00 00 00       	mov    $0x2,%esi
    7d24:	89 c7                	mov    %eax,%edi
    7d26:	e8 c3 e5 ff ff       	callq  62ee <safe_lshift_func_int8_t_s_u>
    7d2b:	48 0f be c0          	movsbq %al,%rax
    7d2f:	25 09 a4 bb d3       	and    $0xd3bba409,%eax
    7d34:	48 89 c2             	mov    %rax,%rdx
    7d37:	48 8b 85 b0 f5 ff ff 	mov    -0xa50(%rbp),%rax
    7d3e:	8b 00                	mov    (%rax),%eax
    7d40:	48 98                	cltq   
    7d42:	48 39 c2             	cmp    %rax,%rdx
    7d45:	48 8b 85 b0 f5 ff ff 	mov    -0xa50(%rbp),%rax
    7d4c:	8b 10                	mov    (%rax),%edx
    7d4e:	48 8b 05 53 9a 00 00 	mov    0x9a53(%rip),%rax        # 117a8 <g_797>
    7d55:	8b 00                	mov    (%rax),%eax
    7d57:	39 c2                	cmp    %eax,%edx
    7d59:	0f 9c c0             	setl   %al
    7d5c:	0f b6 d0             	movzbl %al,%edx
    7d5f:	0f b7 85 a2 f6 ff ff 	movzwl -0x95e(%rbp),%eax
    7d66:	31 c2                	xor    %eax,%edx
    7d68:	0f b7 85 3e f5 ff ff 	movzwl -0xac2(%rbp),%eax
    7d6f:	31 d0                	xor    %edx,%eax
    7d71:	98                   	cwtl   
    7d72:	89 de                	mov    %ebx,%esi
    7d74:	89 c7                	mov    %eax,%edi
    7d76:	e8 9b e6 ff ff       	callq  6416 <safe_mod_func_int16_t_s_s>
    7d7b:	be 0e 00 00 00       	mov    $0xe,%esi
    7d80:	bf fe ff 00 00       	mov    $0xfffe,%edi
    7d85:	e8 7c f0 ff ff       	callq  6e06 <safe_lshift_func_uint16_t_u_u>
    7d8a:	0f b7 d0             	movzwl %ax,%edx
    7d8d:	48 8b 85 40 f6 ff ff 	mov    -0x9c0(%rbp),%rax
    7d94:	89 10                	mov    %edx,(%rax)
    7d96:	8b 05 88 82 00 00    	mov    0x8288(%rip),%eax        # 10024 <g_2>
    7d9c:	83 c0 01             	add    $0x1,%eax
    7d9f:	89 05 7f 82 00 00    	mov    %eax,0x827f(%rip)        # 10024 <g_2>
    7da5:	8b 05 79 82 00 00    	mov    0x8279(%rip),%eax        # 10024 <g_2>
    7dab:	83 f8 17             	cmp    $0x17,%eax
    7dae:	0f 8f d6 fa ff ff    	jg     788a <func_1+0xd5>
    7db4:	c7 05 0a 87 00 00 00 	movl   $0x0,0x870a(%rip)        # 104c8 <g_1864>
    7dbb:	00 00 00 
    7dbe:	e9 1d 08 00 00       	jmpq   85e0 <func_1+0xe2b>
    7dc3:	48 b8 46 3a f9 4e 58 	movabs $0xc1164a584ef93a46,%rax
    7dca:	4a 16 c1 
    7dcd:	48 89 85 e0 f5 ff ff 	mov    %rax,-0xa20(%rbp)
    7dd4:	48 c7 85 e8 f5 ff ff 	movq   $0x0,-0xa18(%rbp)
    7ddb:	00 00 00 00 
    7ddf:	c7 85 44 f5 ff ff 00 	movl   $0x0,-0xabc(%rbp)
    7de6:	00 00 00 
    7de9:	eb 4f                	jmp    7e3a <func_1+0x685>
    7deb:	c7 85 48 f5 ff ff 00 	movl   $0x0,-0xab8(%rbp)
    7df2:	00 00 00 
    7df5:	eb 33                	jmp    7e2a <func_1+0x675>
    7df7:	8b 85 48 f5 ff ff    	mov    -0xab8(%rbp),%eax
    7dfd:	48 63 c8             	movslq %eax,%rcx
    7e00:	8b 85 44 f5 ff ff    	mov    -0xabc(%rbp),%eax
    7e06:	48 63 d0             	movslq %eax,%rdx
    7e09:	48 89 d0             	mov    %rdx,%rax
    7e0c:	48 01 c0             	add    %rax,%rax
    7e0f:	48 01 d0             	add    %rdx,%rax
    7e12:	48 01 c0             	add    %rax,%rax
    7e15:	48 01 c8             	add    %rcx,%rax
    7e18:	c7 84 85 d0 fa ff ff 	movl   $0x0,-0x530(%rbp,%rax,4)
    7e1f:	00 00 00 00 
    7e23:	83 85 48 f5 ff ff 01 	addl   $0x1,-0xab8(%rbp)
    7e2a:	83 bd 48 f5 ff ff 05 	cmpl   $0x5,-0xab8(%rbp)
    7e31:	7e c4                	jle    7df7 <func_1+0x642>
    7e33:	83 85 44 f5 ff ff 01 	addl   $0x1,-0xabc(%rbp)
    7e3a:	83 bd 44 f5 ff ff 04 	cmpl   $0x4,-0xabc(%rbp)
    7e41:	7e a8                	jle    7deb <func_1+0x636>
    7e43:	c7 85 44 f5 ff ff 00 	movl   $0x0,-0xabc(%rbp)
    7e4a:	00 00 00 
    7e4d:	eb 21                	jmp    7e70 <func_1+0x6bb>
    7e4f:	8b 85 44 f5 ff ff    	mov    -0xabc(%rbp),%eax
    7e55:	48 98                	cltq   
    7e57:	48 bb ad a3 62 56 bf 	movabs $0x9c5bf5bf5662a3ad,%rbx
    7e5e:	f5 5b 9c 
    7e61:	48 89 9c c5 70 f6 ff 	mov    %rbx,-0x990(%rbp,%rax,8)
    7e68:	ff 
    7e69:	83 85 44 f5 ff ff 01 	addl   $0x1,-0xabc(%rbp)
    7e70:	83 bd 44 f5 ff ff 01 	cmpl   $0x1,-0xabc(%rbp)
    7e77:	7e d6                	jle    7e4f <func_1+0x69a>
    7e79:	66 c7 05 a2 85 00 00 	movw   $0x0,0x85a2(%rip)        # 10424 <g_1466+0x4>
    7e80:	00 00 
    7e82:	90                   	nop
    7e83:	0f b7 05 9a 85 00 00 	movzwl 0x859a(%rip),%eax        # 10424 <g_1466+0x4>
    7e8a:	66 85 c0             	test   %ax,%ax
    7e8d:	0f 8f 0a 01 00 00    	jg     7f9d <func_1+0x7e8>
    7e93:	48 8d 85 e0 f6 ff ff 	lea    -0x920(%rbp),%rax
    7e9a:	48 05 54 01 00 00    	add    $0x154,%rax
    7ea0:	48 89 85 10 f6 ff ff 	mov    %rax,-0x9f0(%rbp)
    7ea7:	48 8d 05 76 81 00 00 	lea    0x8176(%rip),%rax        # 10024 <g_2>
    7eae:	48 89 85 18 f6 ff ff 	mov    %rax,-0x9e8(%rbp)
    7eb5:	48 8d 05 7c 81 00 00 	lea    0x817c(%rip),%rax        # 10038 <g_95>
    7ebc:	48 89 85 20 f6 ff ff 	mov    %rax,-0x9e0(%rbp)
    7ec3:	48 8d 85 e0 f6 ff ff 	lea    -0x920(%rbp),%rax
    7eca:	48 05 d4 00 00 00    	add    $0xd4,%rax
    7ed0:	48 89 85 28 f6 ff ff 	mov    %rax,-0x9d8(%rbp)
    7ed7:	c7 85 4c f5 ff ff 00 	movl   $0x0,-0xab4(%rbp)
    7ede:	00 00 00 
    7ee1:	eb 1e                	jmp    7f01 <func_1+0x74c>
    7ee3:	8b 85 4c f5 ff ff    	mov    -0xab4(%rbp),%eax
    7ee9:	48 98                	cltq   
    7eeb:	48 8d 15 b2 81 00 00 	lea    0x81b2(%rip),%rdx        # 100a4 <g_248>
    7ef2:	48 89 94 c5 a0 f6 ff 	mov    %rdx,-0x960(%rbp,%rax,8)
    7ef9:	ff 
    7efa:	83 85 4c f5 ff ff 01 	addl   $0x1,-0xab4(%rbp)
    7f01:	83 bd 4c f5 ff ff 03 	cmpl   $0x3,-0xab4(%rbp)
    7f08:	7e d9                	jle    7ee3 <func_1+0x72e>
    7f0a:	48 83 ad e0 f5 ff ff 	subq   $0x1,-0xa20(%rbp)
    7f11:	01 
    7f12:	66 c7 05 15 81 00 00 	movw   $0x0,0x8115(%rip)        # 10030 <g_15>
    7f19:	00 00 
    7f1b:	eb 37                	jmp    7f54 <func_1+0x79f>
    7f1d:	0f b7 05 00 85 00 00 	movzwl 0x8500(%rip),%eax        # 10424 <g_1466+0x4>
    7f24:	98                   	cwtl   
    7f25:	8b 15 9d 85 00 00    	mov    0x859d(%rip),%edx        # 104c8 <g_1864>
    7f2b:	89 d2                	mov    %edx,%edx
    7f2d:	48 98                	cltq   
    7f2f:	48 01 c2             	add    %rax,%rdx
    7f32:	48 8d 05 77 81 00 00 	lea    0x8177(%rip),%rax        # 100b0 <g_360>
    7f39:	48 01 d0             	add    %rdx,%rax
    7f3c:	0f b6 00             	movzbl (%rax),%eax
    7f3f:	84 c0                	test   %al,%al
    7f41:	75 20                	jne    7f63 <func_1+0x7ae>
    7f43:	0f b7 05 e6 80 00 00 	movzwl 0x80e6(%rip),%eax        # 10030 <g_15>
    7f4a:	83 c0 01             	add    $0x1,%eax
    7f4d:	66 89 05 dc 80 00 00 	mov    %ax,0x80dc(%rip)        # 10030 <g_15>
    7f54:	0f b7 05 d5 80 00 00 	movzwl 0x80d5(%rip),%eax        # 10030 <g_15>
    7f5b:	66 83 f8 01          	cmp    $0x1,%ax
    7f5f:	76 bc                	jbe    7f1d <func_1+0x768>
    7f61:	eb 01                	jmp    7f64 <func_1+0x7af>
    7f63:	90                   	nop
    7f64:	48 83 85 c0 f5 ff ff 	addq   $0x1,-0xa40(%rbp)
    7f6b:	01 
    7f6c:	0f b7 05 b1 84 00 00 	movzwl 0x84b1(%rip),%eax        # 10424 <g_1466+0x4>
    7f73:	98                   	cwtl   
    7f74:	0f b7 15 a9 84 00 00 	movzwl 0x84a9(%rip),%edx        # 10424 <g_1466+0x4>
    7f7b:	0f bf d2             	movswl %dx,%edx
    7f7e:	48 63 d2             	movslq %edx,%rdx
    7f81:	48 98                	cltq   
    7f83:	48 01 d0             	add    %rdx,%rax
    7f86:	48 8d 14 85 00 00 00 	lea    0x0(,%rax,4),%rdx
    7f8d:	00 
    7f8e:	48 8d 05 eb 80 00 00 	lea    0x80eb(%rip),%rax        # 10080 <g_236>
    7f95:	8b 04 02             	mov    (%rdx,%rax,1),%eax
    7f98:	e9 05 08 00 00       	jmpq   87a2 <func_1+0xfed>
    7f9d:	c6 05 84 84 00 00 00 	movb   $0x0,0x8484(%rip)        # 10428 <g_1466+0x8>
    7fa4:	e9 13 06 00 00       	jmpq   85bc <func_1+0xe07>
    7fa9:	48 8d 05 96 84 00 00 	lea    0x8496(%rip),%rax        # 10446 <g_1497+0x6>
    7fb0:	48 89 85 f0 f5 ff ff 	mov    %rax,-0xa10(%rbp)
    7fb7:	c7 85 50 f5 ff ff b5 	movl   $0x40f834b5,-0xab0(%rbp)
    7fbe:	34 f8 40 
    7fc1:	48 8d 85 d0 fa ff ff 	lea    -0x530(%rbp),%rax
    7fc8:	48 83 c0 64          	add    $0x64,%rax
    7fcc:	48 89 85 f8 f5 ff ff 	mov    %rax,-0xa08(%rbp)
    7fd3:	0f b6 05 4e 84 00 00 	movzbl 0x844e(%rip),%eax        # 10428 <g_1466+0x8>
    7fda:	0f b6 c0             	movzbl %al,%eax
    7fdd:	83 c0 01             	add    $0x1,%eax
    7fe0:	8b 15 e2 84 00 00    	mov    0x84e2(%rip),%edx        # 104c8 <g_1864>
    7fe6:	89 d2                	mov    %edx,%edx
    7fe8:	48 98                	cltq   
    7fea:	48 01 c2             	add    %rax,%rdx
    7fed:	48 8d 05 bc 80 00 00 	lea    0x80bc(%rip),%rax        # 100b0 <g_360>
    7ff4:	48 01 d0             	add    %rdx,%rax
    7ff7:	0f b6 00             	movzbl (%rax),%eax
    7ffa:	0f be d8             	movsbl %al,%ebx
    7ffd:	be 04 00 00 00       	mov    $0x4,%esi
    8002:	bf 00 00 00 00       	mov    $0x0,%edi
    8007:	e8 95 e2 ff ff       	callq  62a1 <safe_lshift_func_int8_t_s_s>
    800c:	0f be c0             	movsbl %al,%eax
    800f:	be 00 00 00 00       	mov    $0x0,%esi
    8014:	89 c7                	mov    %eax,%edi
    8016:	e8 86 e2 ff ff       	callq  62a1 <safe_lshift_func_int8_t_s_s>
    801b:	0f be c0             	movsbl %al,%eax
    801e:	be 06 00 00 00       	mov    $0x6,%esi
    8023:	89 c7                	mov    %eax,%edi
    8025:	e8 b7 e4 ff ff       	callq  64e1 <safe_lshift_func_int16_t_s_u>
    802a:	89 c2                	mov    %eax,%edx
    802c:	48 8b 05 4d 97 00 00 	mov    0x974d(%rip),%rax        # 11780 <g_350>
    8033:	0f b7 08             	movzwl (%rax),%ecx
    8036:	48 8b 05 43 97 00 00 	mov    0x9743(%rip),%rax        # 11780 <g_350>
    803d:	21 ca                	and    %ecx,%edx
    803f:	66 89 10             	mov    %dx,(%rax)
    8042:	0f b7 00             	movzwl (%rax),%eax
    8045:	0f bf d0             	movswl %ax,%edx
    8048:	48 8b 05 a1 99 00 00 	mov    0x99a1(%rip),%rax        # 119f0 <g_1289>
    804f:	48 8b 00             	mov    (%rax),%rax
    8052:	0f b7 00             	movzwl (%rax),%eax
    8055:	0f b7 c0             	movzwl %ax,%eax
    8058:	89 d6                	mov    %edx,%esi
    805a:	89 c7                	mov    %eax,%edi
    805c:	e8 5d ed ff ff       	callq  6dbe <safe_lshift_func_uint16_t_u_s>
    8061:	0f b7 c0             	movzwl %ax,%eax
    8064:	89 de                	mov    %ebx,%esi
    8066:	89 c7                	mov    %eax,%edi
    8068:	e8 99 ed ff ff       	callq  6e06 <safe_lshift_func_uint16_t_u_u>
    806d:	48 8b 95 f0 f5 ff ff 	mov    -0xa10(%rbp),%rdx
    8074:	0f b7 12             	movzwl (%rdx),%edx
    8077:	09 c2                	or     %eax,%edx
    8079:	48 8b 85 f0 f5 ff ff 	mov    -0xa10(%rbp),%rax
    8080:	66 89 10             	mov    %dx,(%rax)
    8083:	48 8b 85 f0 f5 ff ff 	mov    -0xa10(%rbp),%rax
    808a:	0f b7 00             	movzwl (%rax),%eax
    808d:	98                   	cwtl   
    808e:	89 c6                	mov    %eax,%esi
    8090:	bf ff ff ff ff       	mov    $0xffffffff,%edi
    8095:	e8 39 e3 ff ff       	callq  63d3 <safe_sub_func_int16_t_s_s>
    809a:	66 85 c0             	test   %ax,%ax
    809d:	74 07                	je     80a6 <func_1+0x8f1>
    809f:	b8 01 00 00 00       	mov    $0x1,%eax
    80a4:	eb 05                	jmp    80ab <func_1+0x8f6>
    80a6:	b8 00 00 00 00       	mov    $0x0,%eax
    80ab:	0f b6 c0             	movzbl %al,%eax
    80ae:	83 e0 01             	and    $0x1,%eax
    80b1:	89 c3                	mov    %eax,%ebx
    80b3:	8b 05 0f 84 00 00    	mov    0x840f(%rip),%eax        # 104c8 <g_1864>
    80b9:	8d 48 01             	lea    0x1(%rax),%ecx
    80bc:	8b 05 06 84 00 00    	mov    0x8406(%rip),%eax        # 104c8 <g_1864>
    80c2:	89 c2                	mov    %eax,%edx
    80c4:	89 c8                	mov    %ecx,%eax
    80c6:	48 01 c2             	add    %rax,%rdx
    80c9:	48 8d 05 e0 7f 00 00 	lea    0x7fe0(%rip),%rax        # 100b0 <g_360>
    80d0:	48 01 d0             	add    %rdx,%rax
    80d3:	0f b6 00             	movzbl (%rax),%eax
    80d6:	66 98                	cbtw   
    80d8:	0f b7 c0             	movzwl %ax,%eax
    80db:	89 c6                	mov    %eax,%esi
    80dd:	bf 01 00 00 00       	mov    $0x1,%edi
    80e2:	e8 56 ec ff ff       	callq  6d3d <safe_mul_func_uint16_t_u_u>
    80e7:	0f b6 c0             	movzbl %al,%eax
    80ea:	be 05 00 00 00       	mov    $0x5,%esi
    80ef:	89 c7                	mov    %eax,%edi
    80f1:	e8 c8 eb ff ff       	callq  6cbe <safe_rshift_func_uint8_t_u_u>
    80f6:	0f b6 c0             	movzbl %al,%eax
    80f9:	be 08 00 00 00       	mov    $0x8,%esi
    80fe:	89 c7                	mov    %eax,%edi
    8100:	e8 75 ed ff ff       	callq  6e7a <safe_rshift_func_uint16_t_u_u>
    8105:	0f b6 c0             	movzbl %al,%eax
    8108:	89 de                	mov    %ebx,%esi
    810a:	89 c7                	mov    %eax,%edi
    810c:	e8 49 ea ff ff       	callq  6b5a <safe_add_func_uint8_t_u_u>
    8111:	0f b6 05 10 83 00 00 	movzbl 0x8310(%rip),%eax        # 10428 <g_1466+0x8>
    8118:	0f b6 c0             	movzbl %al,%eax
    811b:	83 c0 01             	add    $0x1,%eax
    811e:	8b 15 a4 83 00 00    	mov    0x83a4(%rip),%edx        # 104c8 <g_1864>
    8124:	89 d2                	mov    %edx,%edx
    8126:	48 98                	cltq   
    8128:	48 01 c2             	add    %rax,%rdx
    812b:	48 8d 05 7e 7f 00 00 	lea    0x7f7e(%rip),%rax        # 100b0 <g_360>
    8132:	48 01 d0             	add    %rdx,%rax
    8135:	0f b6 00             	movzbl (%rax),%eax
    8138:	84 c0                	test   %al,%al
    813a:	74 54                	je     8190 <func_1+0x9db>
    813c:	48 c7 85 a8 f5 ff ff 	movq   $0x0,-0xa58(%rbp)
    8143:	00 00 00 00 
    8147:	eb 1e                	jmp    8167 <func_1+0x9b2>
    8149:	48 8b 05 48 a3 00 00 	mov    0xa348(%rip),%rax        # 12498 <g_2375>
    8150:	8b 08                	mov    (%rax),%ecx
    8152:	48 8b 15 4f 96 00 00 	mov    0x964f(%rip),%rdx        # 117a8 <g_797>
    8159:	8b 12                	mov    (%rdx),%edx
    815b:	21 ca                	and    %ecx,%edx
    815d:	89 10                	mov    %edx,(%rax)
    815f:	48 83 85 a8 f5 ff ff 	addq   $0x1,-0xa58(%rbp)
    8166:	01 
    8167:	48 83 bd a8 f5 ff ff 	cmpq   $0x1,-0xa58(%rbp)
    816e:	01 
    816f:	7e d8                	jle    8149 <func_1+0x994>
    8171:	48 8b 05 30 96 00 00 	mov    0x9630(%rip),%rax        # 117a8 <g_797>
    8178:	8b 00                	mov    (%rax),%eax
    817a:	85 c0                	test   %eax,%eax
    817c:	0f 85 4b 04 00 00    	jne    85cd <func_1+0xe18>
    8182:	48 8b 85 b0 f5 ff ff 	mov    -0xa50(%rbp),%rax
    8189:	8b 00                	mov    (%rax),%eax
    818b:	e9 12 06 00 00       	jmpq   87a2 <func_1+0xfed>
    8190:	48 8d 05 a1 7e 00 00 	lea    0x7ea1(%rip),%rax        # 10038 <g_95>
    8197:	48 89 85 00 f6 ff ff 	mov    %rax,-0xa00(%rbp)
    819e:	48 8b 85 00 f6 ff ff 	mov    -0xa00(%rbp),%rax
    81a5:	c7 00 00 00 00 00    	movl   $0x0,(%rax)
    81ab:	66 c7 05 20 7f 00 00 	movw   $0x0,0x7f20(%rip)        # 100d4 <g_512+0x4>
    81b2:	00 00 
    81b4:	e9 07 03 00 00       	jmpq   84c0 <func_1+0xd0b>
    81b9:	48 8d 05 64 7e 00 00 	lea    0x7e64(%rip),%rax        # 10024 <g_2>
    81c0:	48 89 85 98 f5 ff ff 	mov    %rax,-0xa68(%rbp)
    81c7:	48 8d 05 5a 7e 00 00 	lea    0x7e5a(%rip),%rax        # 10028 <g_5>
    81ce:	48 89 85 a0 f6 ff ff 	mov    %rax,-0x960(%rbp)
    81d5:	48 8d 05 4c 7e 00 00 	lea    0x7e4c(%rip),%rax        # 10028 <g_5>
    81dc:	48 89 85 a8 f6 ff ff 	mov    %rax,-0x958(%rbp)
    81e3:	48 8d 05 3e 7e 00 00 	lea    0x7e3e(%rip),%rax        # 10028 <g_5>
    81ea:	48 89 85 b0 f6 ff ff 	mov    %rax,-0x950(%rbp)
    81f1:	48 8d 05 30 7e 00 00 	lea    0x7e30(%rip),%rax        # 10028 <g_5>
    81f8:	48 89 85 b8 f6 ff ff 	mov    %rax,-0x948(%rbp)
    81ff:	48 8d 05 22 7e 00 00 	lea    0x7e22(%rip),%rax        # 10028 <g_5>
    8206:	48 89 85 c0 f6 ff ff 	mov    %rax,-0x940(%rbp)
    820d:	48 8d 05 14 7e 00 00 	lea    0x7e14(%rip),%rax        # 10028 <g_5>
    8214:	48 89 85 c8 f6 ff ff 	mov    %rax,-0x938(%rbp)
    821b:	48 8d 05 06 7e 00 00 	lea    0x7e06(%rip),%rax        # 10028 <g_5>
    8222:	48 89 85 d0 f6 ff ff 	mov    %rax,-0x930(%rbp)
    8229:	c7 85 54 f5 ff ff f6 	movl   $0xfffffff6,-0xaac(%rbp)
    8230:	ff ff ff 
    8233:	c7 85 58 f5 ff ff 96 	movl   $0x75387496,-0xaa8(%rbp)
    823a:	74 38 75 
    823d:	48 8b 85 70 f6 ff ff 	mov    -0x990(%rbp),%rax
    8244:	48 83 e8 01          	sub    $0x1,%rax
    8248:	48 89 85 70 f6 ff ff 	mov    %rax,-0x990(%rbp)
    824f:	66 c7 05 0c 81 00 00 	movw   $0x0,0x810c(%rip)        # 10364 <g_1011+0x4>
    8256:	00 00 
    8258:	90                   	nop
    8259:	0f b7 05 04 81 00 00 	movzwl 0x8104(%rip),%eax        # 10364 <g_1011+0x4>
    8260:	66 83 f8 01          	cmp    $0x1,%ax
    8264:	7f 0c                	jg     8272 <func_1+0xabd>
    8266:	48 8b 85 70 f6 ff ff 	mov    -0x990(%rbp),%rax
    826d:	e9 30 05 00 00       	jmpq   87a2 <func_1+0xfed>
    8272:	c6 05 44 83 00 00 00 	movb   $0x0,0x8344(%rip)        # 105bd <g_2203+0xd>
    8279:	90                   	nop
    827a:	0f b6 05 3c 83 00 00 	movzbl 0x833c(%rip),%eax        # 105bd <g_2203+0xd>
    8281:	3c 01                	cmp    $0x1,%al
    8283:	0f 87 26 02 00 00    	ja     84af <func_1+0xcfa>
    8289:	48 8d 85 98 f5 ff ff 	lea    -0xa68(%rbp),%rax
    8290:	48 89 85 a0 f5 ff ff 	mov    %rax,-0xa60(%rbp)
    8297:	48 8d 85 a0 f5 ff ff 	lea    -0xa60(%rbp),%rax
    829e:	48 89 85 08 f6 ff ff 	mov    %rax,-0x9f8(%rbp)
    82a5:	c7 85 5c f5 ff ff 42 	movl   $0x4a44b042,-0xaa4(%rbp)
    82ac:	b0 44 4a 
    82af:	c7 85 60 f5 ff ff 36 	movl   $0xfabb2636,-0xaa0(%rbp)
    82b6:	26 bb fa 
    82b9:	c7 85 64 f5 ff ff f6 	movl   $0xfffffff6,-0xa9c(%rbp)
    82c0:	ff ff ff 
    82c3:	c7 85 68 f5 ff ff 00 	movl   $0x0,-0xa98(%rbp)
    82ca:	00 00 00 
    82cd:	c7 85 6c f5 ff ff f6 	movl   $0xfffffff6,-0xa94(%rbp)
    82d4:	ff ff ff 
    82d7:	48 8b 95 98 f5 ff ff 	mov    -0xa68(%rbp),%rdx
    82de:	48 8b 85 98 f5 ff ff 	mov    -0xa68(%rbp),%rax
    82e5:	8b 12                	mov    (%rdx),%edx
    82e7:	89 10                	mov    %edx,(%rax)
    82e9:	48 8b 85 08 f6 ff ff 	mov    -0x9f8(%rbp),%rax
    82f0:	48 3b 85 e8 f5 ff ff 	cmp    -0xa18(%rbp),%rax
    82f7:	74 24                	je     831d <func_1+0xb68>
    82f9:	c6 85 3a f5 ff ff 66 	movb   $0x66,-0xac6(%rbp)
    8300:	48 8b 15 01 99 00 00 	mov    0x9901(%rip),%rdx        # 11c08 <g_1508>
    8307:	48 8b 85 a0 f5 ff ff 	mov    -0xa60(%rbp),%rax
    830e:	48 8b 12             	mov    (%rdx),%rdx
    8311:	48 89 10             	mov    %rdx,(%rax)
    8314:	83 ad 5c f5 ff ff 01 	subl   $0x1,-0xaa4(%rbp)
    831b:	eb 07                	jmp    8324 <func_1+0xb6f>
    831d:	83 85 64 f5 ff ff 01 	addl   $0x1,-0xa9c(%rbp)
    8324:	48 8b 85 78 f6 ff ff 	mov    -0x988(%rbp),%rax
    832b:	48 85 c0             	test   %rax,%rax
    832e:	0f 84 66 01 00 00    	je     849a <func_1+0xce5>
    8334:	c7 85 70 f5 ff ff d1 	movl   $0x438d2ed1,-0xa90(%rbp)
    833b:	2e 8d 43 
    833e:	c7 85 74 f5 ff ff d7 	movl   $0xb81363d7,-0xa8c(%rbp)
    8345:	63 13 b8 
    8348:	c7 85 78 f5 ff ff 00 	movl   $0x0,-0xa88(%rbp)
    834f:	00 00 00 
    8352:	c7 85 7c f5 ff ff 00 	movl   $0x0,-0xa84(%rbp)
    8359:	00 00 00 
    835c:	c7 85 80 f5 ff ff 01 	movl   $0x1,-0xa80(%rbp)
    8363:	00 00 00 
    8366:	c7 85 84 f5 ff ff 09 	movl   $0x9,-0xa7c(%rbp)
    836d:	00 00 00 
    8370:	c7 85 88 f5 ff ff 6f 	movl   $0x30c5986f,-0xa78(%rbp)
    8377:	98 c5 30 
    837a:	48 c7 85 80 f6 ff ff 	movq   $0x0,-0x980(%rbp)
    8381:	00 00 00 00 
    8385:	48 c7 85 88 f6 ff ff 	movq   $0x0,-0x978(%rbp)
    838c:	00 00 00 00 
    8390:	48 c7 85 90 f6 ff ff 	movq   $0x0,-0x970(%rbp)
    8397:	00 00 00 00 
    839b:	48 c7 85 98 f6 ff ff 	movq   $0x0,-0x968(%rbp)
    83a2:	00 00 00 00 
    83a6:	48 8b 05 bb a0 00 00 	mov    0xa0bb(%rip),%rax        # 12468 <g_2168>
    83ad:	48 8b 38             	mov    (%rax),%rdi
    83b0:	8b 05 12 81 00 00    	mov    0x8112(%rip),%eax        # 104c8 <g_1864>
    83b6:	8d 48 01             	lea    0x1(%rax),%ecx
    83b9:	8b 05 09 81 00 00    	mov    0x8109(%rip),%eax        # 104c8 <g_1864>
    83bf:	89 c2                	mov    %eax,%edx
    83c1:	89 c8                	mov    %ecx,%eax
    83c3:	48 01 c2             	add    %rax,%rdx
    83c6:	48 8d 05 e3 7c 00 00 	lea    0x7ce3(%rip),%rax        # 100b0 <g_360>
    83cd:	48 01 d0             	add    %rdx,%rax
    83d0:	0f b6 00             	movzbl (%rax),%eax
    83d3:	66 98                	cbtw   
    83d5:	0f b7 d0             	movzwl %ax,%edx
    83d8:	8b 85 70 f5 ff ff    	mov    -0xa90(%rbp),%eax
    83de:	89 85 50 f5 ff ff    	mov    %eax,-0xab0(%rbp)
    83e4:	8b 85 50 f5 ff ff    	mov    -0xab0(%rbp),%eax
    83ea:	48 98                	cltq   
    83ec:	48 39 85 e0 f5 ff ff 	cmp    %rax,-0xa20(%rbp)
    83f3:	74 08                	je     83fd <func_1+0xc48>
    83f5:	41 b9 33 00 00 00    	mov    $0x33,%r9d
    83fb:	eb 06                	jmp    8403 <func_1+0xc4e>
    83fd:	41 b9 32 00 00 00    	mov    $0x32,%r9d
    8403:	48 8b 85 b0 f5 ff ff 	mov    -0xa50(%rbp),%rax
    840a:	8b 00                	mov    (%rax),%eax
    840c:	89 c1                	mov    %eax,%ecx
    840e:	48 8d 05 43 81 00 00 	lea    0x8143(%rip),%rax        # 10558 <g_2123>
    8415:	8b 00                	mov    (%rax),%eax
    8417:	39 c1                	cmp    %eax,%ecx
    8419:	0f 95 c0             	setne  %al
    841c:	0f b6 f0             	movzbl %al,%esi
    841f:	0f b7 85 40 f5 ff ff 	movzwl -0xac0(%rbp),%eax
    8426:	48 8b 8d 08 f6 ff ff 	mov    -0x9f8(%rbp),%rcx
    842d:	48 8b 19             	mov    (%rcx),%rbx
    8430:	49 89 f8             	mov    %rdi,%r8
    8433:	89 d1                	mov    %edx,%ecx
    8435:	44 89 ca             	mov    %r9d,%edx
    8438:	89 c7                	mov    %eax,%edi
    843a:	e8 ae 0b 00 00       	callq  8fed <func_70>
    843f:	48 89 03             	mov    %rax,(%rbx)
    8442:	8b 05 80 80 00 00    	mov    0x8080(%rip),%eax        # 104c8 <g_1864>
    8448:	8d 48 01             	lea    0x1(%rax),%ecx
    844b:	8b 05 77 80 00 00    	mov    0x8077(%rip),%eax        # 104c8 <g_1864>
    8451:	89 c2                	mov    %eax,%edx
    8453:	89 c8                	mov    %ecx,%eax
    8455:	48 01 c2             	add    %rax,%rdx
    8458:	48 8d 05 51 7c 00 00 	lea    0x7c51(%rip),%rax        # 100b0 <g_360>
    845f:	48 01 d0             	add    %rdx,%rax
    8462:	0f b6 00             	movzbl (%rax),%eax
    8465:	66 98                	cbtw   
    8467:	0f b7 c0             	movzwl %ax,%eax
    846a:	be 07 00 00 00       	mov    $0x7,%esi
    846f:	89 c7                	mov    %eax,%edi
    8471:	e8 48 e9 ff ff       	callq  6dbe <safe_lshift_func_uint16_t_u_s>
    8476:	0f b7 c0             	movzwl %ax,%eax
    8479:	23 85 50 f5 ff ff    	and    -0xab0(%rbp),%eax
    847f:	89 85 14 f8 ff ff    	mov    %eax,-0x7ec(%rbp)
    8485:	83 ad 58 f5 ff ff 01 	subl   $0x1,-0xaa8(%rbp)
    848c:	48 8b 85 b0 f5 ff ff 	mov    -0xa50(%rbp),%rax
    8493:	8b 00                	mov    (%rax),%eax
    8495:	e9 08 03 00 00       	jmpq   87a2 <func_1+0xfed>
    849a:	66 c7 85 42 f5 ff ff 	movw   $0x9105,-0xabe(%rbp)
    84a1:	05 91 
    84a3:	0f bf 85 42 f5 ff ff 	movswl -0xabe(%rbp),%eax
    84aa:	e9 f3 02 00 00       	jmpq   87a2 <func_1+0xfed>
    84af:	0f b7 05 1e 7c 00 00 	movzwl 0x7c1e(%rip),%eax        # 100d4 <g_512+0x4>
    84b6:	83 c0 01             	add    $0x1,%eax
    84b9:	66 89 05 14 7c 00 00 	mov    %ax,0x7c14(%rip)        # 100d4 <g_512+0x4>
    84c0:	0f b7 05 0d 7c 00 00 	movzwl 0x7c0d(%rip),%eax        # 100d4 <g_512+0x4>
    84c7:	66 85 c0             	test   %ax,%ax
    84ca:	0f 8e e9 fc ff ff    	jle    81b9 <func_1+0xa04>
    84d0:	8b 05 f2 7f 00 00    	mov    0x7ff2(%rip),%eax        # 104c8 <g_1864>
    84d6:	8d 48 01             	lea    0x1(%rax),%ecx
    84d9:	8b 05 e9 7f 00 00    	mov    0x7fe9(%rip),%eax        # 104c8 <g_1864>
    84df:	89 c2                	mov    %eax,%edx
    84e1:	89 c8                	mov    %ecx,%eax
    84e3:	48 01 c2             	add    %rax,%rdx
    84e6:	48 8d 05 c3 7b 00 00 	lea    0x7bc3(%rip),%rax        # 100b0 <g_360>
    84ed:	48 01 d0             	add    %rdx,%rax
    84f0:	0f b6 00             	movzbl (%rax),%eax
    84f3:	84 c0                	test   %al,%al
    84f5:	0f 85 d5 00 00 00    	jne    85d0 <func_1+0xe1b>
    84fb:	8b 85 34 fb ff ff    	mov    -0x4cc(%rbp),%eax
    8501:	89 c3                	mov    %eax,%ebx
    8503:	48 8b 85 b0 f5 ff ff 	mov    -0xa50(%rbp),%rax
    850a:	8b 00                	mov    (%rax),%eax
    850c:	0f be c0             	movsbl %al,%eax
    850f:	89 c6                	mov    %eax,%esi
    8511:	bf 01 00 00 00       	mov    $0x1,%edi
    8516:	e8 f7 dc ff ff       	callq  6212 <safe_mul_func_int8_t_s_s>
    851b:	48 8b 85 b0 f5 ff ff 	mov    -0xa50(%rbp),%rax
    8522:	8b 10                	mov    (%rax),%edx
    8524:	48 8b 05 55 92 00 00 	mov    0x9255(%rip),%rax        # 11780 <g_350>
    852b:	0f b7 00             	movzwl (%rax),%eax
    852e:	98                   	cwtl   
    852f:	89 d6                	mov    %edx,%esi
    8531:	89 c7                	mov    %eax,%edi
    8533:	e8 f2 df ff ff       	callq  652a <safe_rshift_func_int16_t_s_s>
    8538:	8b 05 aa 7b 00 00    	mov    0x7baa(%rip),%eax        # 100e8 <g_605>
    853e:	85 c0                	test   %eax,%eax
    8540:	48 8b 85 b0 f5 ff ff 	mov    -0xa50(%rbp),%rax
    8547:	8b 10                	mov    (%rax),%edx
    8549:	b8 4b 89 ff ff       	mov    $0xffff894b,%eax
    854e:	66 85 c0             	test   %ax,%ax
    8551:	0f 9e c0             	setle  %al
    8554:	0f b6 c0             	movzbl %al,%eax
    8557:	39 c2                	cmp    %eax,%edx
    8559:	7d 13                	jge    856e <func_1+0xdb9>
    855b:	48 8b 05 fe 9e 00 00 	mov    0x9efe(%rip),%rax        # 12460 <g_2120>
    8562:	48 8b 00             	mov    (%rax),%rax
    8565:	48 8b 00             	mov    (%rax),%rax
    8568:	8b 00                	mov    (%rax),%eax
    856a:	85 c0                	test   %eax,%eax
    856c:	74 0c                	je     857a <func_1+0xdc5>
    856e:	48 8b 05 0b 8c 00 00 	mov    0x8c0b(%rip),%rax        # 11180 <g_99>
    8575:	0f b6 00             	movzbl (%rax),%eax
    8578:	84 c0                	test   %al,%al
    857a:	b8 00 00 00 00       	mov    $0x0,%eax
    857f:	21 d8                	and    %ebx,%eax
    8581:	0f b6 c0             	movzbl %al,%eax
    8584:	be ff 00 00 00       	mov    $0xff,%esi
    8589:	89 c7                	mov    %eax,%edi
    858b:	e8 4b e6 ff ff       	callq  6bdb <safe_div_func_uint8_t_u_u>
    8590:	8b 05 33 7e 00 00    	mov    0x7e33(%rip),%eax        # 103c9 <g_1103+0x9>
    8596:	bf 09 00 00 00       	mov    $0x9,%edi
    859b:	e8 1f dc ff ff       	callq  61bf <safe_unary_minus_func_int8_t_s>
    85a0:	0f be d0             	movsbl %al,%edx
    85a3:	48 8b 85 f8 f5 ff ff 	mov    -0xa08(%rbp),%rax
    85aa:	89 10                	mov    %edx,(%rax)
    85ac:	0f b6 05 75 7e 00 00 	movzbl 0x7e75(%rip),%eax        # 10428 <g_1466+0x8>
    85b3:	83 c0 01             	add    $0x1,%eax
    85b6:	88 05 6c 7e 00 00    	mov    %al,0x7e6c(%rip)        # 10428 <g_1466+0x8>
    85bc:	0f b6 05 65 7e 00 00 	movzbl 0x7e65(%rip),%eax        # 10428 <g_1466+0x8>
    85c3:	3c 01                	cmp    $0x1,%al
    85c5:	0f 86 de f9 ff ff    	jbe    7fa9 <func_1+0x7f4>
    85cb:	eb 04                	jmp    85d1 <func_1+0xe1c>
    85cd:	90                   	nop
    85ce:	eb 01                	jmp    85d1 <func_1+0xe1c>
    85d0:	90                   	nop
    85d1:	8b 05 f1 7e 00 00    	mov    0x7ef1(%rip),%eax        # 104c8 <g_1864>
    85d7:	83 c0 01             	add    $0x1,%eax
    85da:	89 05 e8 7e 00 00    	mov    %eax,0x7ee8(%rip)        # 104c8 <g_1864>
    85e0:	8b 05 e2 7e 00 00    	mov    0x7ee2(%rip),%eax        # 104c8 <g_1864>
    85e6:	85 c0                	test   %eax,%eax
    85e8:	0f 84 d5 f7 ff ff    	je     7dc3 <func_1+0x60e>
    85ee:	90                   	nop
    85ef:	48 8b 85 c8 f5 ff ff 	mov    -0xa38(%rbp),%rax
    85f6:	48 8d 95 e0 f6 ff ff 	lea    -0x920(%rbp),%rdx
    85fd:	48 81 c2 54 01 00 00 	add    $0x154,%rdx
    8604:	48 89 10             	mov    %rdx,(%rax)
    8607:	48 8b 85 c8 f5 ff ff 	mov    -0xa38(%rbp),%rax
    860e:	48 8b 10             	mov    (%rax),%rdx
    8611:	48 8b 85 d0 f5 ff ff 	mov    -0xa30(%rbp),%rax
    8618:	48 89 10             	mov    %rdx,(%rax)
    861b:	66 c7 05 22 7a 00 00 	movw   $0x0,0x7a22(%rip)        # 10046 <g_105+0x6>
    8622:	00 00 
    8624:	e9 5f 01 00 00       	jmpq   8788 <func_1+0xfd3>
    8629:	48 c7 85 d8 f5 ff ff 	movq   $0x0,-0xa28(%rbp)
    8630:	00 00 00 00 
    8634:	0f b6 05 ed 7d 00 00 	movzbl 0x7ded(%rip),%eax        # 10428 <g_1466+0x8>
    863b:	84 c0                	test   %al,%al
    863d:	74 02                	je     8641 <func_1+0xe8c>
    863f:	eb ae                	jmp    85ef <func_1+0xe3a>
    8641:	66 c7 05 3c 7d 00 00 	movw   $0x1,0x7d3c(%rip)        # 10386 <g_1019+0x6>
    8648:	01 00 
    864a:	e9 15 01 00 00       	jmpq   8764 <func_1+0xfaf>
    864f:	48 83 bd d8 f5 ff ff 	cmpq   $0x0,-0xa28(%rbp)
    8656:	00 
    8657:	0f 85 19 01 00 00    	jne    8776 <func_1+0xfc1>
    865d:	48 c7 05 70 7f 00 00 	movq   $0x1,0x7f70(%rip)        # 105d8 <g_2304>
    8664:	01 00 00 00 
    8668:	e9 d6 00 00 00       	jmpq   8743 <func_1+0xf8e>
    866d:	c7 05 62 7a 00 00 00 	movl   $0x0,0x7a62(%rip)        # 100d9 <g_512+0x9>
    8674:	00 00 00 
    8677:	e9 a6 00 00 00       	jmpq   8722 <func_1+0xf6d>
    867c:	c6 05 aa 7d 00 00 00 	movb   $0x0,0x7daa(%rip)        # 1042d <g_1466+0xd>
    8683:	eb 7f                	jmp    8704 <func_1+0xf4f>
    8685:	c6 05 9c 7c 00 00 00 	movb   $0x0,0x7c9c(%rip)        # 10328 <g_888+0x8>
    868c:	eb 5b                	jmp    86e9 <func_1+0xf34>
    868e:	8b 35 45 7a 00 00    	mov    0x7a45(%rip),%esi        # 100d9 <g_512+0x9>
    8694:	0f b6 05 92 7d 00 00 	movzbl 0x7d92(%rip),%eax        # 1042d <g_1466+0xd>
    869b:	0f b6 c0             	movzbl %al,%eax
    869e:	0f b6 15 83 7c 00 00 	movzbl 0x7c83(%rip),%edx        # 10328 <g_888+0x8>
    86a5:	0f b6 d2             	movzbl %dl,%edx
    86a8:	48 63 ca             	movslq %edx,%rcx
    86ab:	89 f2                	mov    %esi,%edx
    86ad:	48 98                	cltq   
    86af:	48 01 c2             	add    %rax,%rdx
    86b2:	48 89 d0             	mov    %rdx,%rax
    86b5:	48 c1 e0 03          	shl    $0x3,%rax
    86b9:	48 29 d0             	sub    %rdx,%rax
    86bc:	48 01 c8             	add    %rcx,%rax
    86bf:	48 8d 14 c5 00 00 00 	lea    0x0(,%rax,8),%rdx
    86c6:	00 
    86c7:	48 8d 05 52 93 00 00 	lea    0x9352(%rip),%rax        # 11a20 <g_1422>
    86ce:	48 8d 0d 2b 93 00 00 	lea    0x932b(%rip),%rcx        # 11a00 <g_1423>
    86d5:	48 89 0c 02          	mov    %rcx,(%rdx,%rax,1)
    86d9:	0f b6 05 48 7c 00 00 	movzbl 0x7c48(%rip),%eax        # 10328 <g_888+0x8>
    86e0:	83 c0 01             	add    $0x1,%eax
    86e3:	88 05 3f 7c 00 00    	mov    %al,0x7c3f(%rip)        # 10328 <g_888+0x8>
    86e9:	0f b6 05 38 7c 00 00 	movzbl 0x7c38(%rip),%eax        # 10328 <g_888+0x8>
    86f0:	3c 06                	cmp    $0x6,%al
    86f2:	76 9a                	jbe    868e <func_1+0xed9>
    86f4:	0f b6 05 32 7d 00 00 	movzbl 0x7d32(%rip),%eax        # 1042d <g_1466+0xd>
    86fb:	83 c0 01             	add    $0x1,%eax
    86fe:	88 05 29 7d 00 00    	mov    %al,0x7d29(%rip)        # 1042d <g_1466+0xd>
    8704:	0f b6 05 22 7d 00 00 	movzbl 0x7d22(%rip),%eax        # 1042d <g_1466+0xd>
    870b:	84 c0                	test   %al,%al
    870d:	0f 84 72 ff ff ff    	je     8685 <func_1+0xed0>
    8713:	8b 05 c0 79 00 00    	mov    0x79c0(%rip),%eax        # 100d9 <g_512+0x9>
    8719:	83 c0 01             	add    $0x1,%eax
    871c:	89 05 b7 79 00 00    	mov    %eax,0x79b7(%rip)        # 100d9 <g_512+0x9>
    8722:	8b 05 b1 79 00 00    	mov    0x79b1(%rip),%eax        # 100d9 <g_512+0x9>
    8728:	83 f8 03             	cmp    $0x3,%eax
    872b:	0f 86 4b ff ff ff    	jbe    867c <func_1+0xec7>
    8731:	48 8b 05 a0 7e 00 00 	mov    0x7ea0(%rip),%rax        # 105d8 <g_2304>
    8738:	48 83 e8 01          	sub    $0x1,%rax
    873c:	48 89 05 95 7e 00 00 	mov    %rax,0x7e95(%rip)        # 105d8 <g_2304>
    8743:	48 8b 05 8e 7e 00 00 	mov    0x7e8e(%rip),%rax        # 105d8 <g_2304>
    874a:	48 85 c0             	test   %rax,%rax
    874d:	0f 89 1a ff ff ff    	jns    866d <func_1+0xeb8>
    8753:	0f b7 05 2c 7c 00 00 	movzwl 0x7c2c(%rip),%eax        # 10386 <g_1019+0x6>
    875a:	83 e8 01             	sub    $0x1,%eax
    875d:	66 89 05 22 7c 00 00 	mov    %ax,0x7c22(%rip)        # 10386 <g_1019+0x6>
    8764:	0f b7 05 1b 7c 00 00 	movzwl 0x7c1b(%rip),%eax        # 10386 <g_1019+0x6>
    876b:	66 85 c0             	test   %ax,%ax
    876e:	0f 89 db fe ff ff    	jns    864f <func_1+0xe9a>
    8774:	eb 01                	jmp    8777 <func_1+0xfc2>
    8776:	90                   	nop
    8777:	0f b7 05 c8 78 00 00 	movzwl 0x78c8(%rip),%eax        # 10046 <g_105+0x6>
    877e:	83 c0 01             	add    $0x1,%eax
    8781:	66 89 05 be 78 00 00 	mov    %ax,0x78be(%rip)        # 10046 <g_105+0x6>
    8788:	0f b7 05 b7 78 00 00 	movzwl 0x78b7(%rip),%eax        # 10046 <g_105+0x6>
    878f:	66 83 f8 03          	cmp    $0x3,%ax
    8793:	0f 8e 90 fe ff ff    	jle    8629 <func_1+0xe74>
    8799:	48 8b 85 b0 f5 ff ff 	mov    -0xa50(%rbp),%rax
    87a0:	8b 00                	mov    (%rax),%eax
    87a2:	48 8b 5d d8          	mov    -0x28(%rbp),%rbx
    87a6:	64 48 33 1c 25 28 00 	xor    %fs:0x28,%rbx
    87ad:	00 00 
    87af:	74 05                	je     87b6 <func_1+0x1001>
    87b1:	e8 ba d8 ff ff       	callq  6070 <__stack_chk_fail@plt>
    87b6:	48 81 c4 b8 0a 00 00 	add    $0xab8,%rsp
    87bd:	5b                   	pop    %rbx
    87be:	41 5c                	pop    %r12
    87c0:	41 5d                	pop    %r13
    87c2:	5d                   	pop    %rbp
    87c3:	c3                   	retq   

00000000000087c4 <func_20>:
    87c4:	f3 0f 1e fa          	endbr64 
    87c8:	55                   	push   %rbp
    87c9:	48 89 e5             	mov    %rsp,%rbp
    87cc:	48 81 ec f0 01 00 00 	sub    $0x1f0,%rsp
    87d3:	89 bd 1c fe ff ff    	mov    %edi,-0x1e4(%rbp)
    87d9:	89 b5 18 fe ff ff    	mov    %esi,-0x1e8(%rbp)
    87df:	64 48 8b 04 25 28 00 	mov    %fs:0x28,%rax
    87e6:	00 00 
    87e8:	48 89 45 f8          	mov    %rax,-0x8(%rbp)
    87ec:	31 c0                	xor    %eax,%eax
    87ee:	48 8d 05 3f 78 00 00 	lea    0x783f(%rip),%rax        # 10034 <g_69>
    87f5:	48 89 85 78 fe ff ff 	mov    %rax,-0x188(%rbp)
    87fc:	c7 85 34 fe ff ff 48 	movl   $0xb073f848,-0x1cc(%rbp)
    8803:	f8 73 b0 
    8806:	66 c7 85 24 fe ff ff 	movw   $0x1f3c,-0x1dc(%rbp)
    880d:	3c 1f 
    880f:	c7 85 38 fe ff ff 39 	movl   $0x80ade639,-0x1c8(%rbp)
    8816:	e6 ad 80 
    8819:	48 8d 05 60 8f 00 00 	lea    0x8f60(%rip),%rax        # 11780 <g_350>
    8820:	48 89 85 80 fe ff ff 	mov    %rax,-0x180(%rbp)
    8827:	c7 85 3c fe ff ff 00 	movl   $0x0,-0x1c4(%rbp)
    882e:	00 00 00 
    8831:	c7 85 28 fe ff ff 00 	movl   $0x0,-0x1d8(%rbp)
    8838:	00 00 00 
    883b:	c7 85 40 ff ff ff 0d 	movl   $0x46a7020d,-0xc0(%rbp)
    8842:	02 a7 46 
    8845:	c7 85 44 ff ff ff 0d 	movl   $0x46a7020d,-0xbc(%rbp)
    884c:	02 a7 46 
    884f:	c7 85 48 ff ff ff 0d 	movl   $0x46a7020d,-0xb8(%rbp)
    8856:	02 a7 46 
    8859:	c7 85 4c ff ff ff 0d 	movl   $0x46a7020d,-0xb4(%rbp)
    8860:	02 a7 46 
    8863:	48 8d 05 23 7b 00 00 	lea    0x7b23(%rip),%rax        # 1038d <g_1019+0xd>
    886a:	48 89 85 88 fe ff ff 	mov    %rax,-0x178(%rbp)
    8871:	48 8d 05 f0 8e 00 00 	lea    0x8ef0(%rip),%rax        # 11768 <g_201+0x48>
    8878:	48 89 85 50 ff ff ff 	mov    %rax,-0xb0(%rbp)
    887f:	48 8d 05 e2 8e 00 00 	lea    0x8ee2(%rip),%rax        # 11768 <g_201+0x48>
    8886:	48 89 85 58 ff ff ff 	mov    %rax,-0xa8(%rbp)
    888d:	48 8d 05 d4 8e 00 00 	lea    0x8ed4(%rip),%rax        # 11768 <g_201+0x48>
    8894:	48 89 85 60 ff ff ff 	mov    %rax,-0xa0(%rbp)
    889b:	48 8d 05 c6 8e 00 00 	lea    0x8ec6(%rip),%rax        # 11768 <g_201+0x48>
    88a2:	48 89 85 68 ff ff ff 	mov    %rax,-0x98(%rbp)
    88a9:	48 8d 05 b8 8e 00 00 	lea    0x8eb8(%rip),%rax        # 11768 <g_201+0x48>
    88b0:	48 89 85 70 ff ff ff 	mov    %rax,-0x90(%rbp)
    88b7:	48 8d 05 aa 8e 00 00 	lea    0x8eaa(%rip),%rax        # 11768 <g_201+0x48>
    88be:	48 89 85 78 ff ff ff 	mov    %rax,-0x88(%rbp)
    88c5:	48 8d 05 9c 8e 00 00 	lea    0x8e9c(%rip),%rax        # 11768 <g_201+0x48>
    88cc:	48 89 45 80          	mov    %rax,-0x80(%rbp)
    88d0:	48 8d 05 91 8e 00 00 	lea    0x8e91(%rip),%rax        # 11768 <g_201+0x48>
    88d7:	48 89 45 88          	mov    %rax,-0x78(%rbp)
    88db:	48 8d 05 86 8e 00 00 	lea    0x8e86(%rip),%rax        # 11768 <g_201+0x48>
    88e2:	48 89 45 90          	mov    %rax,-0x70(%rbp)
    88e6:	48 8d 05 7b 8e 00 00 	lea    0x8e7b(%rip),%rax        # 11768 <g_201+0x48>
    88ed:	48 89 45 98          	mov    %rax,-0x68(%rbp)
    88f1:	48 8d 05 70 8e 00 00 	lea    0x8e70(%rip),%rax        # 11768 <g_201+0x48>
    88f8:	48 89 45 a0          	mov    %rax,-0x60(%rbp)
    88fc:	48 8d 05 65 8e 00 00 	lea    0x8e65(%rip),%rax        # 11768 <g_201+0x48>
    8903:	48 89 45 a8          	mov    %rax,-0x58(%rbp)
    8907:	48 8d 05 5a 8e 00 00 	lea    0x8e5a(%rip),%rax        # 11768 <g_201+0x48>
    890e:	48 89 45 b0          	mov    %rax,-0x50(%rbp)
    8912:	48 8d 05 4f 8e 00 00 	lea    0x8e4f(%rip),%rax        # 11768 <g_201+0x48>
    8919:	48 89 45 b8          	mov    %rax,-0x48(%rbp)
    891d:	48 8d 05 44 8e 00 00 	lea    0x8e44(%rip),%rax        # 11768 <g_201+0x48>
    8924:	48 89 45 c0          	mov    %rax,-0x40(%rbp)
    8928:	48 8d 05 39 8e 00 00 	lea    0x8e39(%rip),%rax        # 11768 <g_201+0x48>
    892f:	48 89 45 c8          	mov    %rax,-0x38(%rbp)
    8933:	48 8d 05 2e 8e 00 00 	lea    0x8e2e(%rip),%rax        # 11768 <g_201+0x48>
    893a:	48 89 45 d0          	mov    %rax,-0x30(%rbp)
    893e:	48 8d 05 23 8e 00 00 	lea    0x8e23(%rip),%rax        # 11768 <g_201+0x48>
    8945:	48 89 45 d8          	mov    %rax,-0x28(%rbp)
    8949:	48 8d 05 18 8e 00 00 	lea    0x8e18(%rip),%rax        # 11768 <g_201+0x48>
    8950:	48 89 45 e0          	mov    %rax,-0x20(%rbp)
    8954:	48 8d 05 0d 8e 00 00 	lea    0x8e0d(%rip),%rax        # 11768 <g_201+0x48>
    895b:	48 89 45 e8          	mov    %rax,-0x18(%rbp)
    895f:	48 c7 85 90 fe ff ff 	movq   $0x0,-0x170(%rbp)
    8966:	00 00 00 00 
    896a:	c7 85 2c fe ff ff fa 	movl   $0xfffffffa,-0x1d4(%rbp)
    8971:	ff ff ff 
    8974:	48 8d 85 40 ff ff ff 	lea    -0xc0(%rbp),%rax
    897b:	48 83 c0 04          	add    $0x4,%rax
    897f:	48 89 85 98 fe ff ff 	mov    %rax,-0x168(%rbp)
    8986:	48 c7 85 a0 fe ff ff 	movq   $0x0,-0x160(%rbp)
    898d:	00 00 00 00 
    8991:	48 8d 05 a0 76 00 00 	lea    0x76a0(%rip),%rax        # 10038 <g_95>
    8998:	48 89 85 a8 fe ff ff 	mov    %rax,-0x158(%rbp)
    899f:	48 8d 05 32 90 00 00 	lea    0x9032(%rip),%rax        # 119d8 <g_1175>
    89a6:	48 89 85 b0 fe ff ff 	mov    %rax,-0x150(%rbp)
    89ad:	c7 85 40 fe ff ff 01 	movl   $0x1,-0x1c0(%rbp)
    89b4:	00 00 00 
    89b7:	c7 85 44 fe ff ff ff 	movl   $0xffffffff,-0x1bc(%rbp)
    89be:	ff ff ff 
    89c1:	c7 85 48 fe ff ff 66 	movl   $0x7f141166,-0x1b8(%rbp)
    89c8:	11 14 7f 
    89cb:	48 8d 05 7e 8d 00 00 	lea    0x8d7e(%rip),%rax        # 11750 <g_201+0x30>
    89d2:	48 89 85 b8 fe ff ff 	mov    %rax,-0x148(%rbp)
    89d9:	c7 85 4c fe ff ff fa 	movl   $0xfffffffa,-0x1b4(%rbp)
    89e0:	ff ff ff 
    89e3:	48 c7 85 60 fe ff ff 	movq   $0x0,-0x1a0(%rbp)
    89ea:	00 00 00 00 
    89ee:	48 8d 85 60 fe ff ff 	lea    -0x1a0(%rbp),%rax
    89f5:	48 89 85 c0 fe ff ff 	mov    %rax,-0x140(%rbp)
    89fc:	48 8d 85 28 fe ff ff 	lea    -0x1d8(%rbp),%rax
    8a03:	48 89 85 c8 fe ff ff 	mov    %rax,-0x138(%rbp)
    8a0a:	48 c7 85 d0 fe ff ff 	movq   $0x0,-0x130(%rbp)
    8a11:	00 00 00 00 
    8a15:	c7 85 50 fe ff ff 13 	movl   $0x7b6afd13,-0x1b0(%rbp)
    8a1c:	fd 6a 7b 
    8a1f:	66 c7 85 22 ff ff ff 	movw   $0xa0a0,-0xde(%rbp)
    8a26:	a0 a0 
    8a28:	66 c7 85 24 ff ff ff 	movw   $0xa0ac,-0xdc(%rbp)
    8a2f:	ac a0 
    8a31:	66 c7 85 26 ff ff ff 	movw   $0xaca0,-0xda(%rbp)
    8a38:	a0 ac 
    8a3a:	c7 85 54 fe ff ff fd 	movl   $0xfffffffd,-0x1ac(%rbp)
    8a41:	ff ff ff 
    8a44:	c6 85 22 fe ff ff 01 	movb   $0x1,-0x1de(%rbp)
    8a4b:	48 8d 05 9e 91 00 00 	lea    0x919e(%rip),%rax        # 11bf0 <g_1496>
    8a52:	48 89 85 d8 fe ff ff 	mov    %rax,-0x128(%rbp)
    8a59:	c7 85 58 fe ff ff 8f 	movl   $0x2faec18f,-0x1a8(%rbp)
    8a60:	c1 ae 2f 
    8a63:	48 b8 4a a6 ae 50 90 	movabs $0x76d7649050aea64a,%rax
    8a6a:	64 d7 76 
    8a6d:	48 89 85 e0 fe ff ff 	mov    %rax,-0x120(%rbp)
    8a74:	c6 85 23 fe ff ff 28 	movb   $0x28,-0x1dd(%rbp)
    8a7b:	48 8d 05 fe 8c 00 00 	lea    0x8cfe(%rip),%rax        # 11780 <g_350>
    8a82:	48 89 85 68 fe ff ff 	mov    %rax,-0x198(%rbp)
    8a89:	48 8d 85 68 fe ff ff 	lea    -0x198(%rbp),%rax
    8a90:	48 89 85 e8 fe ff ff 	mov    %rax,-0x118(%rbp)
    8a97:	48 c7 85 f0 fe ff ff 	movq   $0x0,-0x110(%rbp)
    8a9e:	00 00 00 00 
    8aa2:	48 c7 85 f8 fe ff ff 	movq   $0xffffffffffffffff,-0x108(%rbp)
    8aa9:	ff ff ff ff 
    8aad:	48 c7 85 00 ff ff ff 	movq   $0xfffffffffffffffb,-0x100(%rbp)
    8ab4:	fb ff ff ff 
    8ab8:	66 c7 85 26 fe ff ff 	movw   $0x9df8,-0x1da(%rbp)
    8abf:	f8 9d 
    8ac1:	48 8d 85 28 ff ff ff 	lea    -0xd8(%rbp),%rax
    8ac8:	48 89 85 70 fe ff ff 	mov    %rax,-0x190(%rbp)
    8acf:	48 8d 85 70 fe ff ff 	lea    -0x190(%rbp),%rax
    8ad6:	48 89 85 08 ff ff ff 	mov    %rax,-0xf8(%rbp)
    8add:	48 8d 05 fc 8e 00 00 	lea    0x8efc(%rip),%rax        # 119e0 <g_1174>
    8ae4:	48 89 85 10 ff ff ff 	mov    %rax,-0xf0(%rbp)
    8aeb:	48 8d 05 ce 8e 00 00 	lea    0x8ece(%rip),%rax        # 119c0 <g_1088>
    8af2:	48 89 85 18 ff ff ff 	mov    %rax,-0xe8(%rbp)
    8af9:	c7 85 5c fe ff ff 7c 	movl   $0xc9127e7c,-0x1a4(%rbp)
    8b00:	7e 12 c9 
    8b03:	c7 85 30 fe ff ff 00 	movl   $0x0,-0x1d0(%rbp)
    8b0a:	00 00 00 
    8b0d:	eb 1e                	jmp    8b2d <func_20+0x369>
    8b0f:	8b 85 30 fe ff ff    	mov    -0x1d0(%rbp),%eax
    8b15:	48 98                	cltq   
    8b17:	48 8d 95 2c fe ff ff 	lea    -0x1d4(%rbp),%rdx
    8b1e:	48 89 94 c5 28 ff ff 	mov    %rdx,-0xd8(%rbp,%rax,8)
    8b25:	ff 
    8b26:	83 85 30 fe ff ff 01 	addl   $0x1,-0x1d0(%rbp)
    8b2d:	83 bd 30 fe ff ff 00 	cmpl   $0x0,-0x1d0(%rbp)
    8b34:	7e d9                	jle    8b0f <func_20+0x34b>
    8b36:	c7 85 30 fe ff ff 00 	movl   $0x0,-0x1d0(%rbp)
    8b3d:	00 00 00 
    8b40:	eb 1a                	jmp    8b5c <func_20+0x398>
    8b42:	8b 85 30 fe ff ff    	mov    -0x1d0(%rbp),%eax
    8b48:	48 98                	cltq   
    8b4a:	c7 84 85 34 ff ff ff 	movl   $0x903633a,-0xcc(%rbp,%rax,4)
    8b51:	3a 63 03 09 
    8b55:	83 85 30 fe ff ff 01 	addl   $0x1,-0x1d0(%rbp)
    8b5c:	83 bd 30 fe ff ff 02 	cmpl   $0x2,-0x1d0(%rbp)
    8b63:	7e dd                	jle    8b42 <func_20+0x37e>
    8b65:	8b 85 5c fe ff ff    	mov    -0x1a4(%rbp),%eax
    8b6b:	48 98                	cltq   
    8b6d:	48 8b 4d f8          	mov    -0x8(%rbp),%rcx
    8b71:	64 48 33 0c 25 28 00 	xor    %fs:0x28,%rcx
    8b78:	00 00 
    8b7a:	74 05                	je     8b81 <func_20+0x3bd>
    8b7c:	e8 ef d4 ff ff       	callq  6070 <__stack_chk_fail@plt>
    8b81:	c9                   	leaveq 
    8b82:	c3                   	retq   

0000000000008b83 <func_43>:
    8b83:	f3 0f 1e fa          	endbr64 
    8b87:	55                   	push   %rbp
    8b88:	48 89 e5             	mov    %rsp,%rbp
    8b8b:	48 81 ec 70 01 00 00 	sub    $0x170,%rsp
    8b92:	48 89 bd 98 fe ff ff 	mov    %rdi,-0x168(%rbp)
    8b99:	64 48 8b 04 25 28 00 	mov    %fs:0x28,%rax
    8ba0:	00 00 
    8ba2:	48 89 45 f8          	mov    %rax,-0x8(%rbp)
    8ba6:	31 c0                	xor    %eax,%eax
    8ba8:	48 8d 85 b0 fe ff ff 	lea    -0x150(%rbp),%rax
    8baf:	48 8d 15 4a 7f 00 00 	lea    0x7f4a(%rip),%rdx        # 10b00 <g_2349+0x518>
    8bb6:	b9 28 00 00 00       	mov    $0x28,%ecx
    8bbb:	48 89 c7             	mov    %rax,%rdi
    8bbe:	48 89 d6             	mov    %rdx,%rsi
    8bc1:	f3 48 a5             	rep movsq %ds:(%rsi),%es:(%rdi)
    8bc4:	c7 85 a4 fe ff ff a6 	movl   $0x29276aa6,-0x15c(%rbp)
    8bcb:	6a 27 29 
    8bce:	48 8b 15 9b 8b 00 00 	mov    0x8b9b(%rip),%rdx        # 11770 <g_200>
    8bd5:	48 8b 05 94 8b 00 00 	mov    0x8b94(%rip),%rax        # 11770 <g_200>
    8bdc:	48 8b 12             	mov    (%rdx),%rdx
    8bdf:	48 89 10             	mov    %rdx,(%rax)
    8be2:	48 8b 00             	mov    (%rax),%rax
    8be5:	48 89 85 60 ff ff ff 	mov    %rax,-0xa0(%rbp)
    8bec:	c7 05 f2 74 00 00 03 	movl   $0x3,0x74f2(%rip)        # 100e8 <g_605>
    8bf3:	00 00 00 
    8bf6:	eb 22                	jmp    8c1a <func_43+0x97>
    8bf8:	48 c7 85 a8 fe ff ff 	movq   $0x1,-0x158(%rbp)
    8bff:	01 00 00 00 
    8c03:	48 83 85 a8 fe ff ff 	addq   $0x1,-0x158(%rbp)
    8c0a:	01 
    8c0b:	8b 05 d7 74 00 00    	mov    0x74d7(%rip),%eax        # 100e8 <g_605>
    8c11:	83 c0 01             	add    $0x1,%eax
    8c14:	89 05 ce 74 00 00    	mov    %eax,0x74ce(%rip)        # 100e8 <g_605>
    8c1a:	8b 05 c8 74 00 00    	mov    0x74c8(%rip),%eax        # 100e8 <g_605>
    8c20:	83 f8 11             	cmp    $0x11,%eax
    8c23:	7e d3                	jle    8bf8 <func_43+0x75>
    8c25:	8b 85 a4 fe ff ff    	mov    -0x15c(%rbp),%eax
    8c2b:	48 8b 4d f8          	mov    -0x8(%rbp),%rcx
    8c2f:	64 48 33 0c 25 28 00 	xor    %fs:0x28,%rcx
    8c36:	00 00 
    8c38:	74 05                	je     8c3f <func_43+0xbc>
    8c3a:	e8 31 d4 ff ff       	callq  6070 <__stack_chk_fail@plt>
    8c3f:	c9                   	leaveq 
    8c40:	c3                   	retq   

0000000000008c41 <func_45>:
    8c41:	f3 0f 1e fa          	endbr64 
    8c45:	55                   	push   %rbp
    8c46:	48 89 e5             	mov    %rsp,%rbp
    8c49:	48 81 ec 90 00 00 00 	sub    $0x90,%rsp
    8c50:	89 f8                	mov    %edi,%eax
    8c52:	66 89 85 7c ff ff ff 	mov    %ax,-0x84(%rbp)
    8c59:	64 48 8b 04 25 28 00 	mov    %fs:0x28,%rax
    8c60:	00 00 
    8c62:	48 89 45 f8          	mov    %rax,-0x8(%rbp)
    8c66:	31 c0                	xor    %eax,%eax
    8c68:	48 c7 45 90 00 00 00 	movq   $0x0,-0x70(%rbp)
    8c6f:	00 
    8c70:	48 8d 05 c1 73 00 00 	lea    0x73c1(%rip),%rax        # 10038 <g_95>
    8c77:	48 89 45 98          	mov    %rax,-0x68(%rbp)
    8c7b:	48 8d 05 22 74 00 00 	lea    0x7422(%rip),%rax        # 100a4 <g_248>
    8c82:	48 89 45 a0          	mov    %rax,-0x60(%rbp)
    8c86:	48 8d 05 ab 73 00 00 	lea    0x73ab(%rip),%rax        # 10038 <g_95>
    8c8d:	48 89 45 a8          	mov    %rax,-0x58(%rbp)
    8c91:	48 8d 05 a0 73 00 00 	lea    0x73a0(%rip),%rax        # 10038 <g_95>
    8c98:	48 89 45 b0          	mov    %rax,-0x50(%rbp)
    8c9c:	48 8d 05 95 73 00 00 	lea    0x7395(%rip),%rax        # 10038 <g_95>
    8ca3:	48 89 45 c0          	mov    %rax,-0x40(%rbp)
    8ca7:	48 8d 05 8a 73 00 00 	lea    0x738a(%rip),%rax        # 10038 <g_95>
    8cae:	48 89 45 c8          	mov    %rax,-0x38(%rbp)
    8cb2:	48 8d 05 7f 73 00 00 	lea    0x737f(%rip),%rax        # 10038 <g_95>
    8cb9:	48 89 45 d0          	mov    %rax,-0x30(%rbp)
    8cbd:	48 8d 05 74 73 00 00 	lea    0x7374(%rip),%rax        # 10038 <g_95>
    8cc4:	48 89 45 d8          	mov    %rax,-0x28(%rbp)
    8cc8:	48 8d 05 69 73 00 00 	lea    0x7369(%rip),%rax        # 10038 <g_95>
    8ccf:	48 89 45 e0          	mov    %rax,-0x20(%rbp)
    8cd3:	48 8d 05 5e 73 00 00 	lea    0x735e(%rip),%rax        # 10038 <g_95>
    8cda:	48 89 45 e8          	mov    %rax,-0x18(%rbp)
    8cde:	c6 45 8f 04          	movb   $0x4,-0x71(%rbp)
    8ce2:	48 8d 05 0f 74 00 00 	lea    0x740f(%rip),%rax        # 100f8 <g_614+0x8>
    8ce9:	48 89 45 b8          	mov    %rax,-0x48(%rbp)
    8ced:	0f b6 45 8f          	movzbl -0x71(%rbp),%eax
    8cf1:	83 c0 01             	add    $0x1,%eax
    8cf4:	88 45 8f             	mov    %al,-0x71(%rbp)
    8cf7:	48 8b 45 b8          	mov    -0x48(%rbp),%rax
    8cfb:	48 8b 55 f8          	mov    -0x8(%rbp),%rdx
    8cff:	64 48 33 14 25 28 00 	xor    %fs:0x28,%rdx
    8d06:	00 00 
    8d08:	74 05                	je     8d0f <func_45+0xce>
    8d0a:	e8 61 d3 ff ff       	callq  6070 <__stack_chk_fail@plt>
    8d0f:	c9                   	leaveq 
    8d10:	c3                   	retq   

0000000000008d11 <func_56>:
    8d11:	f3 0f 1e fa          	endbr64 
    8d15:	55                   	push   %rbp
    8d16:	48 89 e5             	mov    %rsp,%rbp
    8d19:	41 56                	push   %r14
    8d1b:	41 55                	push   %r13
    8d1d:	41 54                	push   %r12
    8d1f:	53                   	push   %rbx
    8d20:	48 81 ec b0 00 00 00 	sub    $0xb0,%rsp
    8d27:	48 89 bd 48 ff ff ff 	mov    %rdi,-0xb8(%rbp)
    8d2e:	48 89 b5 40 ff ff ff 	mov    %rsi,-0xc0(%rbp)
    8d35:	89 d0                	mov    %edx,%eax
    8d37:	48 89 8d 30 ff ff ff 	mov    %rcx,-0xd0(%rbp)
    8d3e:	66 89 85 3c ff ff ff 	mov    %ax,-0xc4(%rbp)
    8d45:	64 48 8b 04 25 28 00 	mov    %fs:0x28,%rax
    8d4c:	00 00 
    8d4e:	48 89 45 d8          	mov    %rax,-0x28(%rbp)
    8d52:	31 c0                	xor    %eax,%eax
    8d54:	c7 85 60 ff ff ff 01 	movl   $0x1,-0xa0(%rbp)
    8d5b:	00 00 00 
    8d5e:	48 8d 05 03 73 00 00 	lea    0x7303(%rip),%rax        # 10068 <g_172+0x8>
    8d65:	48 89 45 80          	mov    %rax,-0x80(%rbp)
    8d69:	48 8d 05 c2 72 00 00 	lea    0x72c2(%rip),%rax        # 10032 <g_39>
    8d70:	48 89 45 88          	mov    %rax,-0x78(%rbp)
    8d74:	48 8d 45 a0          	lea    -0x60(%rbp),%rax
    8d78:	48 83 c0 08          	add    $0x8,%rax
    8d7c:	48 89 85 68 ff ff ff 	mov    %rax,-0x98(%rbp)
    8d83:	48 8d 85 68 ff ff ff 	lea    -0x98(%rbp),%rax
    8d8a:	48 89 85 70 ff ff ff 	mov    %rax,-0x90(%rbp)
    8d91:	48 8d 85 70 ff ff ff 	lea    -0x90(%rbp),%rax
    8d98:	48 89 85 78 ff ff ff 	mov    %rax,-0x88(%rbp)
    8d9f:	48 8d 85 78 ff ff ff 	lea    -0x88(%rbp),%rax
    8da6:	48 89 45 90          	mov    %rax,-0x70(%rbp)
    8daa:	66 c7 85 5a ff ff ff 	movw   $0xf1a5,-0xa6(%rbp)
    8db1:	a5 f1 
    8db3:	48 8d 05 06 73 00 00 	lea    0x7306(%rip),%rax        # 100c0 <g_418>
    8dba:	48 89 45 98          	mov    %rax,-0x68(%rbp)
    8dbe:	c7 85 64 ff ff ff 55 	movl   $0x4d043955,-0x9c(%rbp)
    8dc5:	39 04 4d 
    8dc8:	c7 85 5c ff ff ff 00 	movl   $0x0,-0xa4(%rbp)
    8dcf:	00 00 00 
    8dd2:	eb 1b                	jmp    8def <func_56+0xde>
    8dd4:	8b 85 5c ff ff ff    	mov    -0xa4(%rbp),%eax
    8dda:	48 98                	cltq   
    8ddc:	48 8d 15 0d 73 00 00 	lea    0x730d(%rip),%rdx        # 100f0 <g_614>
    8de3:	48 89 54 c5 a0       	mov    %rdx,-0x60(%rbp,%rax,8)
    8de8:	83 85 5c ff ff ff 01 	addl   $0x1,-0xa4(%rbp)
    8def:	83 bd 5c ff ff ff 06 	cmpl   $0x6,-0xa4(%rbp)
    8df6:	7e dc                	jle    8dd4 <func_56+0xc3>
    8df8:	8b 85 60 ff ff ff    	mov    -0xa0(%rbp),%eax
    8dfe:	0f b6 d8             	movzbl %al,%ebx
    8e01:	48 8b 05 70 89 00 00 	mov    0x8970(%rip),%rax        # 11778 <g_210>
    8e08:	0f b7 00             	movzwl (%rax),%eax
    8e0b:	44 0f bf e0          	movswl %ax,%r12d
    8e0f:	48 8b 85 40 ff ff ff 	mov    -0xc0(%rbp),%rax
    8e16:	44 0f b6 e8          	movzbl %al,%r13d
    8e1a:	0f b7 05 d5 72 00 00 	movzwl 0x72d5(%rip),%eax        # 100f6 <g_614+0x6>
    8e21:	44 0f be f0          	movsbl %al,%r14d
    8e25:	48 8b 45 88          	mov    -0x78(%rbp),%rax
    8e29:	0f b7 00             	movzwl (%rax),%eax
    8e2c:	8d 50 01             	lea    0x1(%rax),%edx
    8e2f:	48 8b 45 88          	mov    -0x78(%rbp),%rax
    8e33:	66 89 10             	mov    %dx,(%rax)
    8e36:	48 8b 45 88          	mov    -0x78(%rbp),%rax
    8e3a:	0f b7 00             	movzwl (%rax),%eax
    8e3d:	0f b7 d0             	movzwl %ax,%edx
    8e40:	48 8b 05 39 89 00 00 	mov    0x8939(%rip),%rax        # 11780 <g_350>
    8e47:	66 c7 00 40 35       	movw   $0x3540,(%rax)
    8e4c:	48 8b 45 90          	mov    -0x70(%rbp),%rax
    8e50:	48 89 05 61 8b 00 00 	mov    %rax,0x8b61(%rip)        # 119b8 <g_993>
    8e57:	48 8b 05 5a 8b 00 00 	mov    0x8b5a(%rip),%rax        # 119b8 <g_993>
    8e5e:	48 85 c0             	test   %rax,%rax
    8e61:	0f 95 c0             	setne  %al
    8e64:	0f b6 c0             	movzbl %al,%eax
    8e67:	48 23 85 40 ff ff ff 	and    -0xc0(%rbp),%rax
    8e6e:	83 e0 01             	and    $0x1,%eax
    8e71:	48 3d 3f 35 00 00    	cmp    $0x353f,%rax
    8e77:	0f 97 c0             	seta   %al
    8e7a:	0f b6 c8             	movzbl %al,%ecx
    8e7d:	8b 05 11 72 00 00    	mov    0x7211(%rip),%eax        # 10094 <g_236+0x14>
    8e83:	39 c1                	cmp    %eax,%ecx
    8e85:	0f 97 c1             	seta   %cl
    8e88:	48 8b 05 f1 82 00 00 	mov    0x82f1(%rip),%rax        # 11180 <g_99>
    8e8f:	88 08                	mov    %cl,(%rax)
    8e91:	0f b6 00             	movzbl (%rax),%eax
    8e94:	0f b6 c0             	movzbl %al,%eax
    8e97:	0b 85 60 ff ff ff    	or     -0xa0(%rbp),%eax
    8e9d:	48 98                	cltq   
    8e9f:	48 39 c2             	cmp    %rax,%rdx
    8ea2:	0f 9f c0             	setg   %al
    8ea5:	0f b6 c0             	movzbl %al,%eax
    8ea8:	be f6 34 00 00       	mov    $0x34f6,%esi
    8ead:	89 c7                	mov    %eax,%edi
    8eaf:	e8 a1 d5 ff ff       	callq  6455 <safe_div_func_int16_t_s_s>
    8eb4:	48 8b 05 c5 88 00 00 	mov    0x88c5(%rip),%rax        # 11780 <g_350>
    8ebb:	0f b7 00             	movzwl (%rax),%eax
    8ebe:	98                   	cwtl   
    8ebf:	be fb ff ff ff       	mov    $0xfffffffb,%esi
    8ec4:	89 c7                	mov    %eax,%edi
    8ec6:	e8 4b d5 ff ff       	callq  6416 <safe_mod_func_int16_t_s_s>
    8ecb:	0f be c0             	movsbl %al,%eax
    8ece:	83 e0 4b             	and    $0x4b,%eax
    8ed1:	44 89 f6             	mov    %r14d,%esi
    8ed4:	89 c7                	mov    %eax,%edi
    8ed6:	e8 56 d3 ff ff       	callq  6231 <safe_mod_func_int8_t_s_s>
    8edb:	8b 85 60 ff ff ff    	mov    -0xa0(%rbp),%eax
    8ee1:	89 c6                	mov    %eax,%esi
    8ee3:	bf 01 00 00 00       	mov    $0x1,%edi
    8ee8:	e8 df d7 ff ff       	callq  66cc <safe_mod_func_int32_t_s_s>
    8eed:	0f be c0             	movsbl %al,%eax
    8ef0:	be 02 00 00 00       	mov    $0x2,%esi
    8ef5:	89 c7                	mov    %eax,%edi
    8ef7:	e8 39 d4 ff ff       	callq  6335 <safe_rshift_func_int8_t_s_s>
    8efc:	0f b7 05 23 72 00 00 	movzwl 0x7223(%rip),%eax        # 10126 <g_705+0x16>
    8f03:	0f b7 85 5a ff ff ff 	movzwl -0xa6(%rbp),%eax
    8f0a:	0f b6 c0             	movzbl %al,%eax
    8f0d:	44 89 ee             	mov    %r13d,%esi
    8f10:	89 c7                	mov    %eax,%edi
    8f12:	e8 c4 dc ff ff       	callq  6bdb <safe_div_func_uint8_t_u_u>
    8f17:	48 be b1 5f 5d 3e 26 	movabs $0xe84175263e5d5fb1,%rsi
    8f1e:	75 41 e8 
    8f21:	48 8b 45 80          	mov    -0x80(%rbp),%rax
    8f25:	48 8b 00             	mov    (%rax),%rax
    8f28:	48 8d 48 01          	lea    0x1(%rax),%rcx
    8f2c:	48 8b 55 80          	mov    -0x80(%rbp),%rdx
    8f30:	48 89 0a             	mov    %rcx,(%rdx)
    8f33:	48 8b 55 98          	mov    -0x68(%rbp),%rdx
    8f37:	48 8b 12             	mov    (%rdx),%rdx
    8f3a:	48 21 f2             	and    %rsi,%rdx
    8f3d:	48 89 d1             	mov    %rdx,%rcx
    8f40:	48 8b 55 98          	mov    -0x68(%rbp),%rdx
    8f44:	48 89 0a             	mov    %rcx,(%rdx)
    8f47:	48 8b 55 98          	mov    -0x68(%rbp),%rdx
    8f4b:	48 8b 12             	mov    (%rdx),%rdx
    8f4e:	48 21 d0             	and    %rdx,%rax
    8f51:	48 85 c0             	test   %rax,%rax
    8f54:	0f 95 c0             	setne  %al
    8f57:	0f b6 c0             	movzbl %al,%eax
    8f5a:	44 89 e6             	mov    %r12d,%esi
    8f5d:	89 c7                	mov    %eax,%edi
    8f5f:	e8 91 d4 ff ff       	callq  63f5 <safe_mul_func_int16_t_s_s>
    8f64:	0f b6 c0             	movzbl %al,%eax
    8f67:	89 de                	mov    %ebx,%esi
    8f69:	89 c7                	mov    %eax,%edi
    8f6b:	e8 6b dc ff ff       	callq  6bdb <safe_div_func_uint8_t_u_u>
    8f70:	0f b6 c0             	movzbl %al,%eax
    8f73:	be 06 00 00 00       	mov    $0x6,%esi
    8f78:	89 c7                	mov    %eax,%edi
    8f7a:	e8 be dd ff ff       	callq  6d3d <safe_mul_func_uint16_t_u_u>
    8f7f:	0f b7 c0             	movzwl %ax,%eax
    8f82:	39 85 60 ff ff ff    	cmp    %eax,-0xa0(%rbp)
    8f88:	0f 9d c0             	setge  %al
    8f8b:	0f b6 d0             	movzbl %al,%edx
    8f8e:	0f bf 85 5a ff ff ff 	movswl -0xa6(%rbp),%eax
    8f95:	39 c2                	cmp    %eax,%edx
    8f97:	0f 9d c0             	setge  %al
    8f9a:	0f b6 c0             	movzbl %al,%eax
    8f9d:	21 85 64 ff ff ff    	and    %eax,-0x9c(%rbp)
    8fa3:	0f b7 85 3c ff ff ff 	movzwl -0xc4(%rbp),%eax
    8faa:	48 8b 5d d8          	mov    -0x28(%rbp),%rbx
    8fae:	64 48 33 1c 25 28 00 	xor    %fs:0x28,%rbx
    8fb5:	00 00 
    8fb7:	74 05                	je     8fbe <func_56+0x2ad>
    8fb9:	e8 b2 d0 ff ff       	callq  6070 <__stack_chk_fail@plt>
    8fbe:	48 81 c4 b0 00 00 00 	add    $0xb0,%rsp
    8fc5:	5b                   	pop    %rbx
    8fc6:	41 5c                	pop    %r12
    8fc8:	41 5d                	pop    %r13
    8fca:	41 5e                	pop    %r14
    8fcc:	5d                   	pop    %rbp
    8fcd:	c3                   	retq   

0000000000008fce <func_64>:
    8fce:	f3 0f 1e fa          	endbr64 
    8fd2:	55                   	push   %rbp
    8fd3:	48 89 e5             	mov    %rsp,%rbp
    8fd6:	48 89 7d f8          	mov    %rdi,-0x8(%rbp)
    8fda:	48 89 75 f0          	mov    %rsi,-0x10(%rbp)
    8fde:	89 d0                	mov    %edx,%eax
    8fe0:	88 45 ec             	mov    %al,-0x14(%rbp)
    8fe3:	8b 05 30 71 00 00    	mov    0x7130(%rip),%eax        # 10119 <g_705+0x9>
    8fe9:	89 c0                	mov    %eax,%eax
    8feb:	5d                   	pop    %rbp
    8fec:	c3                   	retq   

0000000000008fed <func_70>:
    8fed:	f3 0f 1e fa          	endbr64 
    8ff1:	55                   	push   %rbp
    8ff2:	48 89 e5             	mov    %rsp,%rbp
    8ff5:	48 81 ec 80 05 00 00 	sub    $0x580,%rsp
    8ffc:	89 bd 9c fa ff ff    	mov    %edi,-0x564(%rbp)
    9002:	89 b5 98 fa ff ff    	mov    %esi,-0x568(%rbp)
    9008:	89 95 94 fa ff ff    	mov    %edx,-0x56c(%rbp)
    900e:	89 c8                	mov    %ecx,%eax
    9010:	4c 89 85 88 fa ff ff 	mov    %r8,-0x578(%rbp)
    9017:	66 89 85 90 fa ff ff 	mov    %ax,-0x570(%rbp)
    901e:	64 48 8b 04 25 28 00 	mov    %fs:0x28,%rax
    9025:	00 00 
    9027:	48 89 45 f8          	mov    %rax,-0x8(%rbp)
    902b:	31 c0                	xor    %eax,%eax
    902d:	48 8d 05 70 70 00 00 	lea    0x7070(%rip),%rax        # 100a4 <g_248>
    9034:	48 89 85 a8 fa ff ff 	mov    %rax,-0x558(%rbp)
    903b:	48 8d 85 b0 fa ff ff 	lea    -0x550(%rbp),%rax
    9042:	48 8d 15 f7 7b 00 00 	lea    0x7bf7(%rip),%rdx        # 10c40 <g_2349+0x658>
    9049:	b9 a8 00 00 00       	mov    $0xa8,%ecx
    904e:	48 89 c7             	mov    %rax,%rdi
    9051:	48 89 d6             	mov    %rdx,%rsi
    9054:	f3 48 a5             	rep movsq %ds:(%rsi),%es:(%rdi)
    9057:	48 8b 05 02 85 00 00 	mov    0x8502(%rip),%rax        # 11560 <g_111>
    905e:	48 8b 00             	mov    (%rax),%rax
    9061:	48 89 85 a8 fa ff ff 	mov    %rax,-0x558(%rbp)
    9068:	48 8b 85 a8 fa ff ff 	mov    -0x558(%rbp),%rax
    906f:	48 8b 55 f8          	mov    -0x8(%rbp),%rdx
    9073:	64 48 33 14 25 28 00 	xor    %fs:0x28,%rdx
    907a:	00 00 
    907c:	74 05                	je     9083 <func_70+0x96>
    907e:	e8 ed cf ff ff       	callq  6070 <__stack_chk_fail@plt>
    9083:	c9                   	leaveq 
    9084:	c3                   	retq   

0000000000009085 <func_76>:
    9085:	f3 0f 1e fa          	endbr64 
    9089:	55                   	push   %rbp
    908a:	48 89 e5             	mov    %rsp,%rbp
    908d:	48 81 ec 00 01 00 00 	sub    $0x100,%rsp
    9094:	89 bd 0c ff ff ff    	mov    %edi,-0xf4(%rbp)
    909a:	64 48 8b 04 25 28 00 	mov    %fs:0x28,%rax
    90a1:	00 00 
    90a3:	48 89 45 f8          	mov    %rax,-0x8(%rbp)
    90a7:	31 c0                	xor    %eax,%eax
    90a9:	c7 85 20 ff ff ff 5e 	movl   $0x92afb55e,-0xe0(%rbp)
    90b0:	b5 af 92 
    90b3:	48 c7 85 60 ff ff ff 	movq   $0x0,-0xa0(%rbp)
    90ba:	00 00 00 00 
    90be:	48 c7 85 78 ff ff ff 	movq   $0x0,-0x88(%rbp)
    90c5:	00 00 00 00 
    90c9:	48 8d 05 64 6f 00 00 	lea    0x6f64(%rip),%rax        # 10034 <g_69>
    90d0:	48 89 45 80          	mov    %rax,-0x80(%rbp)
    90d4:	c7 85 28 ff ff ff 49 	movl   $0x2d29949,-0xd8(%rbp)
    90db:	99 d2 02 
    90de:	c7 85 2c ff ff ff 7f 	movl   $0x9722a27f,-0xd4(%rbp)
    90e5:	a2 22 97 
    90e8:	48 8d 85 60 ff ff ff 	lea    -0xa0(%rbp),%rax
    90ef:	48 89 45 88          	mov    %rax,-0x78(%rbp)
    90f3:	48 8d 05 ce 85 00 00 	lea    0x85ce(%rip),%rax        # 116c8 <g_202+0x8>
    90fa:	48 89 85 68 ff ff ff 	mov    %rax,-0x98(%rbp)
    9101:	48 8d 85 68 ff ff ff 	lea    -0x98(%rbp),%rax
    9108:	48 89 45 90          	mov    %rax,-0x70(%rbp)
    910c:	48 8d 05 55 6f 00 00 	lea    0x6f55(%rip),%rax        # 10068 <g_172+0x8>
    9113:	48 89 45 98          	mov    %rax,-0x68(%rbp)
    9117:	c7 85 30 ff ff ff f8 	movl   $0xfffffff8,-0xd0(%rbp)
    911e:	ff ff ff 
    9121:	c7 85 34 ff ff ff 3b 	movl   $0xd93f7c3b,-0xcc(%rbp)
    9128:	7c 3f d9 
    912b:	c7 85 38 ff ff ff ff 	movl   $0xffffffff,-0xc8(%rbp)
    9132:	ff ff ff 
    9135:	c7 85 3c ff ff ff 04 	movl   $0x4,-0xc4(%rbp)
    913c:	00 00 00 
    913f:	c7 85 24 ff ff ff b0 	movl   $0x39ffbfb0,-0xdc(%rbp)
    9146:	bf ff 39 
    9149:	c7 85 40 ff ff ff 14 	movl   $0x42766014,-0xc0(%rbp)
    9150:	60 76 42 
    9153:	c7 85 44 ff ff ff 05 	movl   $0x5,-0xbc(%rbp)
    915a:	00 00 00 
    915d:	c7 85 48 ff ff ff bb 	movl   $0x3b80fdbb,-0xb8(%rbp)
    9164:	fd 80 3b 
    9167:	c7 85 4c ff ff ff 6e 	movl   $0xada77c6e,-0xb4(%rbp)
    916e:	7c a7 ad 
    9171:	48 b8 1e bb 0e 6c 3c 	movabs $0xb7f73c3c6c0ebb1e,%rax
    9178:	3c f7 b7 
    917b:	48 89 45 a0          	mov    %rax,-0x60(%rbp)
    917f:	c7 85 50 ff ff ff 02 	movl   $0x2,-0xb0(%rbp)
    9186:	00 00 00 
    9189:	c7 85 54 ff ff ff ff 	movl   $0xffffffff,-0xac(%rbp)
    9190:	ff ff ff 
    9193:	c6 85 1c ff ff ff 8c 	movb   $0x8c,-0xe4(%rbp)
    919a:	c6 85 1d ff ff ff 00 	movb   $0x0,-0xe3(%rbp)
    91a1:	c7 45 d0 ab 88 ac e5 	movl   $0xe5ac88ab,-0x30(%rbp)
    91a8:	c7 45 d4 ab 88 ac e5 	movl   $0xe5ac88ab,-0x2c(%rbp)
    91af:	c7 45 d8 ab 88 ac e5 	movl   $0xe5ac88ab,-0x28(%rbp)
    91b6:	c7 45 dc ab 88 ac e5 	movl   $0xe5ac88ab,-0x24(%rbp)
    91bd:	c7 45 e0 ab 88 ac e5 	movl   $0xe5ac88ab,-0x20(%rbp)
    91c4:	c7 45 e4 ab 88 ac e5 	movl   $0xe5ac88ab,-0x1c(%rbp)
    91cb:	c7 45 e8 ab 88 ac e5 	movl   $0xe5ac88ab,-0x18(%rbp)
    91d2:	c7 45 ec ab 88 ac e5 	movl   $0xe5ac88ab,-0x14(%rbp)
    91d9:	66 c7 85 1e ff ff ff 	movw   $0x90a2,-0xe2(%rbp)
    91e0:	a2 90 
    91e2:	48 c7 45 a8 00 00 00 	movq   $0x0,-0x58(%rbp)
    91e9:	00 
    91ea:	c7 85 58 ff ff ff f9 	movl   $0xfffffff9,-0xa8(%rbp)
    91f1:	ff ff ff 
    91f4:	48 8d 05 85 85 00 00 	lea    0x8585(%rip),%rax        # 11780 <g_350>
    91fb:	48 89 45 b0          	mov    %rax,-0x50(%rbp)
    91ff:	48 8d 05 ee 6e 00 00 	lea    0x6eee(%rip),%rax        # 100f4 <g_614+0x4>
    9206:	48 89 45 b8          	mov    %rax,-0x48(%rbp)
    920a:	c7 85 5c ff ff ff 04 	movl   $0x4,-0xa4(%rbp)
    9211:	00 00 00 
    9214:	48 8d 85 24 ff ff ff 	lea    -0xdc(%rbp),%rax
    921b:	48 89 45 c0          	mov    %rax,-0x40(%rbp)
    921f:	48 8d 85 20 ff ff ff 	lea    -0xe0(%rbp),%rax
    9226:	48 89 85 70 ff ff ff 	mov    %rax,-0x90(%rbp)
    922d:	48 8d 85 70 ff ff ff 	lea    -0x90(%rbp),%rax
    9234:	48 89 45 c8          	mov    %rax,-0x38(%rbp)
    9238:	8b 05 42 6e 00 00    	mov    0x6e42(%rip),%eax        # 10080 <g_236>
    923e:	89 c0                	mov    %eax,%eax
    9240:	48 8b 55 f8          	mov    -0x8(%rbp),%rdx
    9244:	64 48 33 14 25 28 00 	xor    %fs:0x28,%rdx
    924b:	00 00 
    924d:	74 05                	je     9254 <func_76+0x1cf>
    924f:	e8 1c ce ff ff       	callq  6070 <__stack_chk_fail@plt>
    9254:	c9                   	leaveq 
    9255:	c3                   	retq   

0000000000009256 <func_81>:
    9256:	f3 0f 1e fa          	endbr64 
    925a:	55                   	push   %rbp
    925b:	48 89 e5             	mov    %rsp,%rbp
    925e:	53                   	push   %rbx
    925f:	48 81 ec d8 02 00 00 	sub    $0x2d8,%rsp
    9266:	48 89 bd 38 fd ff ff 	mov    %rdi,-0x2c8(%rbp)
    926d:	48 89 b5 30 fd ff ff 	mov    %rsi,-0x2d0(%rbp)
    9274:	48 89 95 28 fd ff ff 	mov    %rdx,-0x2d8(%rbp)
    927b:	89 8d 24 fd ff ff    	mov    %ecx,-0x2dc(%rbp)
    9281:	64 48 8b 04 25 28 00 	mov    %fs:0x28,%rax
    9288:	00 00 
    928a:	48 89 45 e8          	mov    %rax,-0x18(%rbp)
    928e:	31 c0                	xor    %eax,%eax
    9290:	48 8d 05 a1 6d 00 00 	lea    0x6da1(%rip),%rax        # 10038 <g_95>
    9297:	48 89 85 e8 fd ff ff 	mov    %rax,-0x218(%rbp)
    929e:	c7 85 58 fd ff ff 47 	movl   $0x59535647,-0x2a8(%rbp)
    92a5:	56 53 59 
    92a8:	c7 85 5c fd ff ff fc 	movl   $0xfffffffc,-0x2a4(%rbp)
    92af:	ff ff ff 
    92b2:	48 8d 05 8f 7f 00 00 	lea    0x7f8f(%rip),%rax        # 11248 <g_108>
    92b9:	48 89 85 f0 fd ff ff 	mov    %rax,-0x210(%rbp)
    92c0:	48 8d 05 6b 6d 00 00 	lea    0x6d6b(%rip),%rax        # 10032 <g_39>
    92c7:	48 89 85 f8 fd ff ff 	mov    %rax,-0x208(%rbp)
    92ce:	48 8d 05 6b 6d 00 00 	lea    0x6d6b(%rip),%rax        # 10040 <g_105>
    92d5:	48 89 85 b0 fd ff ff 	mov    %rax,-0x250(%rbp)
    92dc:	48 8d 85 b0 fd ff ff 	lea    -0x250(%rbp),%rax
    92e3:	48 89 85 b8 fd ff ff 	mov    %rax,-0x248(%rbp)
    92ea:	48 8d 85 b8 fd ff ff 	lea    -0x248(%rbp),%rax
    92f1:	48 89 85 c0 fd ff ff 	mov    %rax,-0x240(%rbp)
    92f8:	48 8d 85 c0 fd ff ff 	lea    -0x240(%rbp),%rax
    92ff:	48 89 85 c8 fd ff ff 	mov    %rax,-0x238(%rbp)
    9306:	48 8d 85 c8 fd ff ff 	lea    -0x238(%rbp),%rax
    930d:	48 89 85 00 fe ff ff 	mov    %rax,-0x200(%rbp)
    9314:	48 8d 05 17 6d 00 00 	lea    0x6d17(%rip),%rax        # 10032 <g_39>
    931b:	48 89 85 08 fe ff ff 	mov    %rax,-0x1f8(%rbp)
    9322:	48 8d 05 17 6d 00 00 	lea    0x6d17(%rip),%rax        # 10040 <g_105>
    9329:	48 89 85 10 fe ff ff 	mov    %rax,-0x1f0(%rbp)
    9330:	c7 85 60 fd ff ff 85 	movl   $0x9790a85,-0x2a0(%rbp)
    9337:	0a 79 09 
    933a:	c7 85 64 fd ff ff fe 	movl   $0xfffffffe,-0x29c(%rbp)
    9341:	ff ff ff 
    9344:	c7 85 68 fd ff ff 00 	movl   $0x0,-0x298(%rbp)
    934b:	00 00 00 
    934e:	c7 85 6c fd ff ff c4 	movl   $0x9b02a3c4,-0x294(%rbp)
    9355:	a3 02 9b 
    9358:	c7 85 70 fd ff ff 01 	movl   $0x1,-0x290(%rbp)
    935f:	00 00 00 
    9362:	c7 85 74 fd ff ff 43 	movl   $0xfe129a43,-0x28c(%rbp)
    9369:	9a 12 fe 
    936c:	c7 85 78 fd ff ff 01 	movl   $0x1,-0x288(%rbp)
    9373:	00 00 00 
    9376:	c7 85 7c fd ff ff 14 	movl   $0x70757414,-0x284(%rbp)
    937d:	74 75 70 
    9380:	c7 85 80 fd ff ff 01 	movl   $0x1,-0x280(%rbp)
    9387:	00 00 00 
    938a:	c7 85 84 fd ff ff fc 	movl   $0xf62972fc,-0x27c(%rbp)
    9391:	72 29 f6 
    9394:	c7 85 88 fd ff ff 01 	movl   $0x24e71501,-0x278(%rbp)
    939b:	15 e7 24 
    939e:	48 8b 85 e8 fd ff ff 	mov    -0x218(%rbp),%rax
    93a5:	c7 00 fb ff ff ff    	movl   $0xfffffffb,(%rax)
    93ab:	c7 85 24 fd ff ff 0e 	movl   $0xe,-0x2dc(%rbp)
    93b2:	00 00 00 
    93b5:	e9 f0 06 00 00       	jmpq   9aaa <func_81+0x854>
    93ba:	48 8d 05 7f 7e 00 00 	lea    0x7e7f(%rip),%rax        # 11240 <g_104>
    93c1:	48 89 85 d0 fd ff ff 	mov    %rax,-0x230(%rbp)
    93c8:	48 8d 85 d0 fd ff ff 	lea    -0x230(%rbp),%rax
    93cf:	48 89 85 d8 fd ff ff 	mov    %rax,-0x228(%rbp)
    93d6:	48 8d 85 d8 fd ff ff 	lea    -0x228(%rbp),%rax
    93dd:	48 89 85 18 fe ff ff 	mov    %rax,-0x1e8(%rbp)
    93e4:	48 8d 05 3d 6c 00 00 	lea    0x6c3d(%rip),%rax        # 10028 <g_5>
    93eb:	48 89 85 20 fe ff ff 	mov    %rax,-0x1e0(%rbp)
    93f2:	48 8b 85 d0 fd ff ff 	mov    -0x230(%rbp),%rax
    93f9:	48 8b 15 40 7e 00 00 	mov    0x7e40(%rip),%rdx        # 11240 <g_104>
    9400:	48 89 10             	mov    %rdx,(%rax)
    9403:	48 8b 15 46 7e 00 00 	mov    0x7e46(%rip),%rdx        # 11250 <g_107>
    940a:	48 8b 00             	mov    (%rax),%rax
    940d:	48 89 02             	mov    %rax,(%rdx)
    9410:	48 8b 85 18 fe ff ff 	mov    -0x1e8(%rbp),%rax
    9417:	48 8d 15 32 7e 00 00 	lea    0x7e32(%rip),%rdx        # 11250 <g_107>
    941e:	48 89 10             	mov    %rdx,(%rax)
    9421:	8b 05 19 6c 00 00    	mov    0x6c19(%rip),%eax        # 10040 <g_105>
    9427:	85 c0                	test   %eax,%eax
    9429:	74 44                	je     946f <func_81+0x219>
    942b:	48 8b 05 2e 81 00 00 	mov    0x812e(%rip),%rax        # 11560 <g_111>
    9432:	48 8d 15 eb 6b 00 00 	lea    0x6beb(%rip),%rdx        # 10024 <g_2>
    9439:	48 89 10             	mov    %rdx,(%rax)
    943c:	c6 05 f1 6b 00 00 00 	movb   $0x0,0x6bf1(%rip)        # 10034 <g_69>
    9443:	90                   	nop
    9444:	0f b6 05 e9 6b 00 00 	movzbl 0x6be9(%rip),%eax        # 10034 <g_69>
    944b:	3c 01                	cmp    $0x1,%al
    944d:	77 15                	ja     9464 <func_81+0x20e>
    944f:	c7 85 8c fd ff ff ff 	movl   $0xffffffff,-0x274(%rbp)
    9456:	ff ff ff 
    9459:	8b 85 8c fd ff ff    	mov    -0x274(%rbp),%eax
    945f:	e9 34 08 00 00       	jmpq   9c98 <func_81+0xa42>
    9464:	8b 85 24 fd ff ff    	mov    -0x2dc(%rbp),%eax
    946a:	e9 29 08 00 00       	jmpq   9c98 <func_81+0xa42>
    946f:	48 b8 bc fa ab f0 c8 	movabs $0x1b1975c8f0abfabc,%rax
    9476:	75 19 1b 
    9479:	48 89 85 e0 fd ff ff 	mov    %rax,-0x220(%rbp)
    9480:	c7 85 48 fd ff ff 00 	movl   $0x0,-0x2b8(%rbp)
    9487:	00 00 00 
    948a:	c6 05 a3 6b 00 00 f2 	movb   $0xf2,0x6ba3(%rip)        # 10034 <g_69>
    9491:	e9 7f 01 00 00       	jmpq   9615 <func_81+0x3bf>
    9496:	66 c7 85 46 fd ff ff 	movw   $0x2847,-0x2ba(%rbp)
    949d:	47 28 
    949f:	66 c7 05 9e 6b 00 00 	movw   $0x15,0x6b9e(%rip)        # 10046 <g_105+0x6>
    94a6:	15 00 
    94a8:	e9 47 01 00 00       	jmpq   95f4 <func_81+0x39e>
    94ad:	c7 05 81 6b 00 00 12 	movl   $0x12,0x6b81(%rip)        # 10038 <g_95>
    94b4:	00 00 00 
    94b7:	e9 18 01 00 00       	jmpq   95d4 <func_81+0x37e>
    94bc:	48 8d 05 85 80 00 00 	lea    0x8085(%rip),%rax        # 11548 <g_112+0x2e8>
    94c3:	48 89 85 78 fe ff ff 	mov    %rax,-0x188(%rbp)
    94ca:	48 8b 15 7f 7d 00 00 	mov    0x7d7f(%rip),%rdx        # 11250 <g_107>
    94d1:	48 8b 85 18 fe ff ff 	mov    -0x1e8(%rbp),%rax
    94d8:	48 8b 00             	mov    (%rax),%rax
    94db:	48 8b 00             	mov    (%rax),%rax
    94de:	48 8b 12             	mov    (%rdx),%rdx
    94e1:	48 89 10             	mov    %rdx,(%rax)
    94e4:	83 bd 24 fd ff ff 00 	cmpl   $0x0,-0x2dc(%rbp)
    94eb:	0f 95 c0             	setne  %al
    94ee:	0f b6 d8             	movzbl %al,%ebx
    94f1:	48 8b 05 88 7c 00 00 	mov    0x7c88(%rip),%rax        # 11180 <g_99>
    94f8:	0f b6 00             	movzbl (%rax),%eax
    94fb:	0f b6 d0             	movzbl %al,%edx
    94fe:	8b 85 24 fd ff ff    	mov    -0x2dc(%rbp),%eax
    9504:	48 0b 85 e0 fd ff ff 	or     -0x220(%rbp),%rax
    950b:	48 83 f8 03          	cmp    $0x3,%rax
    950f:	0f 96 c0             	setbe  %al
    9512:	0f b6 c0             	movzbl %al,%eax
    9515:	39 c2                	cmp    %eax,%edx
    9517:	0f 9e c0             	setle  %al
    951a:	0f b6 d0             	movzbl %al,%edx
    951d:	48 8b 05 5c 7c 00 00 	mov    0x7c5c(%rip),%rax        # 11180 <g_99>
    9524:	0f b6 00             	movzbl (%rax),%eax
    9527:	0f b6 c0             	movzbl %al,%eax
    952a:	39 c2                	cmp    %eax,%edx
    952c:	0f 9e c0             	setle  %al
    952f:	0f b6 c0             	movzbl %al,%eax
    9532:	89 c7                	mov    %eax,%edi
    9534:	e8 6d d9 ff ff       	callq  6ea6 <safe_unary_minus_func_uint32_t_u>
    9539:	21 d8                	and    %ebx,%eax
    953b:	3d ff 00 00 00       	cmp    $0xff,%eax
    9540:	0f 96 c0             	setbe  %al
    9543:	0f b6 c0             	movzbl %al,%eax
    9546:	39 85 24 fd ff ff    	cmp    %eax,-0x2dc(%rbp)
    954c:	0f 97 c0             	seta   %al
    954f:	0f b6 c0             	movzbl %al,%eax
    9552:	48 be 4f b8 68 30 69 	movabs $0xe9ac72693068b84f,%rsi
    9559:	72 ac e9 
    955c:	48 89 c7             	mov    %rax,%rdi
    955f:	e8 44 d3 ff ff       	callq  68a8 <safe_sub_func_int64_t_s_s>
    9564:	be 01 00 00 00       	mov    $0x1,%esi
    9569:	89 c7                	mov    %eax,%edi
    956b:	e8 8d d9 ff ff       	callq  6efd <safe_mod_func_uint32_t_u_u>
    9570:	be 07 00 00 00       	mov    $0x7,%esi
    9575:	bf ff ff 00 00       	mov    $0xffff,%edi
    957a:	e8 c9 d8 ff ff       	callq  6e48 <safe_rshift_func_uint16_t_u_s>
    957f:	48 8b 85 78 fe ff ff 	mov    -0x188(%rbp),%rax
    9586:	48 8b 95 20 fe ff ff 	mov    -0x1e0(%rbp),%rdx
    958d:	48 89 10             	mov    %rdx,(%rax)
    9590:	66 83 bd 46 fd ff ff 	cmpw   $0x0,-0x2ba(%rbp)
    9597:	00 
    9598:	75 1b                	jne    95b5 <func_81+0x35f>
    959a:	48 8b 05 bf 7f 00 00 	mov    0x7fbf(%rip),%rax        # 11560 <g_111>
    95a1:	48 8b 00             	mov    (%rax),%rax
    95a4:	48 85 c0             	test   %rax,%rax
    95a7:	0f 95 c0             	setne  %al
    95aa:	0f b6 c0             	movzbl %al,%eax
    95ad:	89 85 48 fd ff ff    	mov    %eax,-0x2b8(%rbp)
    95b3:	eb 01                	jmp    95b6 <func_81+0x360>
    95b5:	90                   	nop
    95b6:	8b 05 7c 6a 00 00    	mov    0x6a7c(%rip),%eax        # 10038 <g_95>
    95bc:	0f be c0             	movsbl %al,%eax
    95bf:	be 06 00 00 00       	mov    $0x6,%esi
    95c4:	89 c7                	mov    %eax,%edi
    95c6:	e8 27 cc ff ff       	callq  61f2 <safe_sub_func_int8_t_s_s>
    95cb:	0f be c0             	movsbl %al,%eax
    95ce:	89 05 64 6a 00 00    	mov    %eax,0x6a64(%rip)        # 10038 <g_95>
    95d4:	8b 05 5e 6a 00 00    	mov    0x6a5e(%rip),%eax        # 10038 <g_95>
    95da:	83 f8 0c             	cmp    $0xc,%eax
    95dd:	0f 85 d9 fe ff ff    	jne    94bc <func_81+0x266>
    95e3:	0f b7 05 5c 6a 00 00 	movzwl 0x6a5c(%rip),%eax        # 10046 <g_105+0x6>
    95ea:	83 c0 01             	add    $0x1,%eax
    95ed:	66 89 05 52 6a 00 00 	mov    %ax,0x6a52(%rip)        # 10046 <g_105+0x6>
    95f4:	0f b7 05 4b 6a 00 00 	movzwl 0x6a4b(%rip),%eax        # 10046 <g_105+0x6>
    95fb:	66 83 f8 1b          	cmp    $0x1b,%ax
    95ff:	0f 8e a8 fe ff ff    	jle    94ad <func_81+0x257>
    9605:	0f b6 05 28 6a 00 00 	movzbl 0x6a28(%rip),%eax        # 10034 <g_69>
    960c:	83 c0 01             	add    $0x1,%eax
    960f:	88 05 1f 6a 00 00    	mov    %al,0x6a1f(%rip)        # 10034 <g_69>
    9615:	0f b6 05 18 6a 00 00 	movzbl 0x6a18(%rip),%eax        # 10034 <g_69>
    961c:	3c 14                	cmp    $0x14,%al
    961e:	0f 85 72 fe ff ff    	jne    9496 <func_81+0x240>
    9624:	48 8b 85 e8 fd ff ff 	mov    -0x218(%rbp),%rax
    962b:	8b 10                	mov    (%rax),%edx
    962d:	48 8b 85 e8 fd ff ff 	mov    -0x218(%rbp),%rax
    9634:	89 10                	mov    %edx,(%rax)
    9636:	48 8b 85 e8 fd ff ff 	mov    -0x218(%rbp),%rax
    963d:	8b 10                	mov    (%rax),%edx
    963f:	8b 85 48 fd ff ff    	mov    -0x2b8(%rbp),%eax
    9645:	09 d0                	or     %edx,%eax
    9647:	89 85 48 fd ff ff    	mov    %eax,-0x2b8(%rbp)
    964d:	48 8b 85 20 fe ff ff 	mov    -0x1e0(%rbp),%rax
    9654:	8b 00                	mov    (%rax),%eax
    9656:	85 c0                	test   %eax,%eax
    9658:	0f 85 59 04 00 00    	jne    9ab7 <func_81+0x861>
    965e:	c6 05 cf 69 00 00 f5 	movb   $0xf5,0x69cf(%rip)        # 10034 <g_69>
    9665:	e9 f5 03 00 00       	jmpq   9a5f <func_81+0x809>
    966a:	48 8d 05 b3 69 00 00 	lea    0x69b3(%rip),%rax        # 10024 <g_2>
    9671:	48 89 85 28 fe ff ff 	mov    %rax,-0x1d8(%rbp)
    9678:	66 c7 05 b1 69 00 00 	movw   $0x0,0x69b1(%rip)        # 10032 <g_39>
    967f:	00 00 
    9681:	90                   	nop
    9682:	0f b7 05 a9 69 00 00 	movzwl 0x69a9(%rip),%eax        # 10032 <g_39>
    9689:	66 83 f8 33          	cmp    $0x33,%ax
    968d:	74 4e                	je     96dd <func_81+0x487>
    968f:	66 c7 05 ac 69 00 00 	movw   $0x0,0x69ac(%rip)        # 10044 <g_105+0x4>
    9696:	00 00 
    9698:	eb 28                	jmp    96c2 <func_81+0x46c>
    969a:	83 bd 24 fd ff ff 00 	cmpl   $0x0,-0x2dc(%rbp)
    96a1:	75 2e                	jne    96d1 <func_81+0x47b>
    96a3:	48 8b 85 28 fe ff ff 	mov    -0x1d8(%rbp),%rax
    96aa:	48 89 85 20 fe ff ff 	mov    %rax,-0x1e0(%rbp)
    96b1:	0f b7 05 8c 69 00 00 	movzwl 0x698c(%rip),%eax        # 10044 <g_105+0x4>
    96b8:	83 e8 01             	sub    $0x1,%eax
    96bb:	66 89 05 82 69 00 00 	mov    %ax,0x6982(%rip)        # 10044 <g_105+0x4>
    96c2:	0f b7 05 7b 69 00 00 	movzwl 0x697b(%rip),%eax        # 10044 <g_105+0x4>
    96c9:	66 83 f8 f5          	cmp    $0xfff5,%ax
    96cd:	7d cb                	jge    969a <func_81+0x444>
    96cf:	eb 01                	jmp    96d2 <func_81+0x47c>
    96d1:	90                   	nop
    96d2:	8b 85 24 fd ff ff    	mov    -0x2dc(%rbp),%eax
    96d8:	e9 bb 05 00 00       	jmpq   9c98 <func_81+0xa42>
    96dd:	8b 05 66 69 00 00    	mov    0x6966(%rip),%eax        # 10049 <g_105+0x9>
    96e3:	98                   	cwtl   
    96e4:	89 c7                	mov    %eax,%edi
    96e6:	e8 b2 cc ff ff       	callq  639d <safe_unary_minus_func_int16_t_s>
    96eb:	0f bf d8             	movswl %ax,%ebx
    96ee:	be 01 00 00 00       	mov    $0x1,%esi
    96f3:	bf 18 8c 00 00       	mov    $0x8c18,%edi
    96f8:	e8 40 d6 ff ff       	callq  6d3d <safe_mul_func_uint16_t_u_u>
    96fd:	98                   	cwtl   
    96fe:	89 de                	mov    %ebx,%esi
    9700:	89 c7                	mov    %eax,%edi
    9702:	e8 23 ce ff ff       	callq  652a <safe_rshift_func_int16_t_s_s>
    9707:	66 85 c0             	test   %ax,%ax
    970a:	0f 94 c0             	sete   %al
    970d:	0f b6 d0             	movzbl %al,%edx
    9710:	48 8b 85 e8 fd ff ff 	mov    -0x218(%rbp),%rax
    9717:	8b 00                	mov    (%rax),%eax
    9719:	21 c2                	and    %eax,%edx
    971b:	48 8b 85 e8 fd ff ff 	mov    -0x218(%rbp),%rax
    9722:	89 10                	mov    %edx,(%rax)
    9724:	c6 05 1d 69 00 00 0e 	movb   $0xe,0x691d(%rip)        # 10048 <g_105+0x8>
    972b:	e9 dd 02 00 00       	jmpq   9a0d <func_81+0x7b7>
    9730:	c7 85 4c fd ff ff 5a 	movl   $0x8510e35a,-0x2b4(%rbp)
    9737:	e3 10 85 
    973a:	66 c7 05 ef 68 00 00 	movw   $0x0,0x68ef(%rip)        # 10032 <g_39>
    9741:	00 00 
    9743:	e9 21 02 00 00       	jmpq   9969 <func_81+0x713>
    9748:	48 8d 85 48 fd ff ff 	lea    -0x2b8(%rbp),%rax
    974f:	48 89 85 30 fe ff ff 	mov    %rax,-0x1d0(%rbp)
    9756:	48 c7 85 38 fe ff ff 	movq   $0x0,-0x1c8(%rbp)
    975d:	00 00 00 00 
    9761:	48 8d 85 48 fd ff ff 	lea    -0x2b8(%rbp),%rax
    9768:	48 89 85 40 fe ff ff 	mov    %rax,-0x1c0(%rbp)
    976f:	48 8d 05 c2 68 00 00 	lea    0x68c2(%rip),%rax        # 10038 <g_95>
    9776:	48 89 85 48 fe ff ff 	mov    %rax,-0x1b8(%rbp)
    977d:	48 8d 05 b4 68 00 00 	lea    0x68b4(%rip),%rax        # 10038 <g_95>
    9784:	48 89 85 50 fe ff ff 	mov    %rax,-0x1b0(%rbp)
    978b:	48 c7 85 58 fe ff ff 	movq   $0x0,-0x1a8(%rbp)
    9792:	00 00 00 00 
    9796:	48 8d 05 9b 68 00 00 	lea    0x689b(%rip),%rax        # 10038 <g_95>
    979d:	48 89 85 60 fe ff ff 	mov    %rax,-0x1a0(%rbp)
    97a4:	48 c7 85 68 fe ff ff 	movq   $0x0,-0x198(%rbp)
    97ab:	00 00 00 00 
    97af:	48 8d 85 48 fd ff ff 	lea    -0x2b8(%rbp),%rax
    97b6:	48 89 85 70 fe ff ff 	mov    %rax,-0x190(%rbp)
    97bd:	48 8d 05 74 68 00 00 	lea    0x6874(%rip),%rax        # 10038 <g_95>
    97c4:	48 89 85 f0 fe ff ff 	mov    %rax,-0x110(%rbp)
    97cb:	48 8d 05 66 68 00 00 	lea    0x6866(%rip),%rax        # 10038 <g_95>
    97d2:	48 89 85 f8 fe ff ff 	mov    %rax,-0x108(%rbp)
    97d9:	48 c7 85 00 ff ff ff 	movq   $0x0,-0x100(%rbp)
    97e0:	00 00 00 00 
    97e4:	48 8d 05 41 68 00 00 	lea    0x6841(%rip),%rax        # 1002c <g_9>
    97eb:	48 89 85 08 ff ff ff 	mov    %rax,-0xf8(%rbp)
    97f2:	48 8d 05 33 68 00 00 	lea    0x6833(%rip),%rax        # 1002c <g_9>
    97f9:	48 89 85 10 ff ff ff 	mov    %rax,-0xf0(%rbp)
    9800:	48 8d 05 1d 68 00 00 	lea    0x681d(%rip),%rax        # 10024 <g_2>
    9807:	48 89 85 18 ff ff ff 	mov    %rax,-0xe8(%rbp)
    980e:	48 8d 05 23 68 00 00 	lea    0x6823(%rip),%rax        # 10038 <g_95>
    9815:	48 89 85 20 ff ff ff 	mov    %rax,-0xe0(%rbp)
    981c:	48 8d 05 15 68 00 00 	lea    0x6815(%rip),%rax        # 10038 <g_95>
    9823:	48 89 85 28 ff ff ff 	mov    %rax,-0xd8(%rbp)
    982a:	48 8d 05 07 68 00 00 	lea    0x6807(%rip),%rax        # 10038 <g_95>
    9831:	48 89 85 30 ff ff ff 	mov    %rax,-0xd0(%rbp)
    9838:	48 8d 05 f9 67 00 00 	lea    0x67f9(%rip),%rax        # 10038 <g_95>
    983f:	48 89 85 38 ff ff ff 	mov    %rax,-0xc8(%rbp)
    9846:	48 8d 05 df 67 00 00 	lea    0x67df(%rip),%rax        # 1002c <g_9>
    984d:	48 89 85 40 ff ff ff 	mov    %rax,-0xc0(%rbp)
    9854:	48 8d 05 dd 67 00 00 	lea    0x67dd(%rip),%rax        # 10038 <g_95>
    985b:	48 89 85 48 ff ff ff 	mov    %rax,-0xb8(%rbp)
    9862:	48 8d 05 c3 67 00 00 	lea    0x67c3(%rip),%rax        # 1002c <g_9>
    9869:	48 89 85 50 ff ff ff 	mov    %rax,-0xb0(%rbp)
    9870:	48 8d 05 c1 67 00 00 	lea    0x67c1(%rip),%rax        # 10038 <g_95>
    9877:	48 89 85 58 ff ff ff 	mov    %rax,-0xa8(%rbp)
    987e:	48 8d 05 b3 67 00 00 	lea    0x67b3(%rip),%rax        # 10038 <g_95>
    9885:	48 89 85 60 ff ff ff 	mov    %rax,-0xa0(%rbp)
    988c:	48 8d 05 a5 67 00 00 	lea    0x67a5(%rip),%rax        # 10038 <g_95>
    9893:	48 89 85 68 ff ff ff 	mov    %rax,-0x98(%rbp)
    989a:	48 8d 05 97 67 00 00 	lea    0x6797(%rip),%rax        # 10038 <g_95>
    98a1:	48 89 85 70 ff ff ff 	mov    %rax,-0x90(%rbp)
    98a8:	48 8d 05 75 67 00 00 	lea    0x6775(%rip),%rax        # 10024 <g_2>
    98af:	48 89 85 78 ff ff ff 	mov    %rax,-0x88(%rbp)
    98b6:	48 8d 05 6f 67 00 00 	lea    0x676f(%rip),%rax        # 1002c <g_9>
    98bd:	48 89 45 80          	mov    %rax,-0x80(%rbp)
    98c1:	48 8d 05 64 67 00 00 	lea    0x6764(%rip),%rax        # 1002c <g_9>
    98c8:	48 89 45 88          	mov    %rax,-0x78(%rbp)
    98cc:	48 c7 45 90 00 00 00 	movq   $0x0,-0x70(%rbp)
    98d3:	00 
    98d4:	48 8d 05 5d 67 00 00 	lea    0x675d(%rip),%rax        # 10038 <g_95>
    98db:	48 89 45 98          	mov    %rax,-0x68(%rbp)
    98df:	48 8d 05 52 67 00 00 	lea    0x6752(%rip),%rax        # 10038 <g_95>
    98e6:	48 89 45 a0          	mov    %rax,-0x60(%rbp)
    98ea:	48 c7 45 a8 00 00 00 	movq   $0x0,-0x58(%rbp)
    98f1:	00 
    98f2:	48 8d 05 33 67 00 00 	lea    0x6733(%rip),%rax        # 1002c <g_9>
    98f9:	48 89 45 b0          	mov    %rax,-0x50(%rbp)
    98fd:	48 8d 05 28 67 00 00 	lea    0x6728(%rip),%rax        # 1002c <g_9>
    9904:	48 89 45 b8          	mov    %rax,-0x48(%rbp)
    9908:	48 8d 05 15 67 00 00 	lea    0x6715(%rip),%rax        # 10024 <g_2>
    990f:	48 89 45 c0          	mov    %rax,-0x40(%rbp)
    9913:	48 8d 05 1e 67 00 00 	lea    0x671e(%rip),%rax        # 10038 <g_95>
    991a:	48 89 45 c8          	mov    %rax,-0x38(%rbp)
    991e:	48 8d 05 13 67 00 00 	lea    0x6713(%rip),%rax        # 10038 <g_95>
    9925:	48 89 45 d0          	mov    %rax,-0x30(%rbp)
    9929:	48 8d 05 08 67 00 00 	lea    0x6708(%rip),%rax        # 10038 <g_95>
    9930:	48 89 45 d8          	mov    %rax,-0x28(%rbp)
    9934:	83 ad 4c fd ff ff 01 	subl   $0x1,-0x2b4(%rbp)
    993b:	48 8b 85 28 fe ff ff 	mov    -0x1d8(%rbp),%rax
    9942:	8b 00                	mov    (%rax),%eax
    9944:	85 c0                	test   %eax,%eax
    9946:	75 0f                	jne    9957 <func_81+0x701>
    9948:	48 8b 85 30 fe ff ff 	mov    -0x1d0(%rbp),%rax
    994f:	8b 00                	mov    (%rax),%eax
    9951:	85 c0                	test   %eax,%eax
    9953:	75 27                	jne    997c <func_81+0x726>
    9955:	eb 01                	jmp    9958 <func_81+0x702>
    9957:	90                   	nop
    9958:	0f b7 05 d3 66 00 00 	movzwl 0x66d3(%rip),%eax        # 10032 <g_39>
    995f:	83 c0 01             	add    $0x1,%eax
    9962:	66 89 05 c9 66 00 00 	mov    %ax,0x66c9(%rip)        # 10032 <g_39>
    9969:	0f b7 05 c2 66 00 00 	movzwl 0x66c2(%rip),%eax        # 10032 <g_39>
    9970:	66 83 f8 32          	cmp    $0x32,%ax
    9974:	0f 86 ce fd ff ff    	jbe    9748 <func_81+0x4f2>
    997a:	eb 01                	jmp    997d <func_81+0x727>
    997c:	90                   	nop
    997d:	48 c7 85 e0 fd ff ff 	movq   $0x0,-0x220(%rbp)
    9984:	00 00 00 00 
    9988:	eb 69                	jmp    99f3 <func_81+0x79d>
    998a:	48 c7 05 b9 66 00 00 	movq   $0x0,0x66b9(%rip)        # 1004e <g_105+0xe>
    9991:	00 00 00 00 
    9995:	eb 47                	jmp    99de <func_81+0x788>
    9997:	48 8b 0d b0 66 00 00 	mov    0x66b0(%rip),%rcx        # 1004e <g_105+0xe>
    999e:	48 8b 95 e0 fd ff ff 	mov    -0x220(%rbp),%rdx
    99a5:	48 89 d0             	mov    %rdx,%rax
    99a8:	48 c1 e0 02          	shl    $0x2,%rax
    99ac:	48 01 d0             	add    %rdx,%rax
    99af:	48 01 c8             	add    %rcx,%rax
    99b2:	48 8d 14 c5 00 00 00 	lea    0x0(,%rax,8),%rdx
    99b9:	00 
    99ba:	48 8d 05 df 77 00 00 	lea    0x77df(%rip),%rax        # 111a0 <g_98>
    99c1:	48 8d 0d b8 77 00 00 	lea    0x77b8(%rip),%rcx        # 11180 <g_99>
    99c8:	48 89 0c 02          	mov    %rcx,(%rdx,%rax,1)
    99cc:	48 8b 05 7b 66 00 00 	mov    0x667b(%rip),%rax        # 1004e <g_105+0xe>
    99d3:	48 83 c0 01          	add    $0x1,%rax
    99d7:	48 89 05 70 66 00 00 	mov    %rax,0x6670(%rip)        # 1004e <g_105+0xe>
    99de:	48 8b 05 69 66 00 00 	mov    0x6669(%rip),%rax        # 1004e <g_105+0xe>
    99e5:	48 83 f8 04          	cmp    $0x4,%rax
    99e9:	7e ac                	jle    9997 <func_81+0x741>
    99eb:	48 83 85 e0 fd ff ff 	addq   $0x1,-0x220(%rbp)
    99f2:	01 
    99f3:	48 83 bd e0 fd ff ff 	cmpq   $0x3,-0x220(%rbp)
    99fa:	03 
    99fb:	76 8d                	jbe    998a <func_81+0x734>
    99fd:	0f b6 05 44 66 00 00 	movzbl 0x6644(%rip),%eax        # 10048 <g_105+0x8>
    9a04:	83 e8 01             	sub    $0x1,%eax
    9a07:	88 05 3b 66 00 00    	mov    %al,0x663b(%rip)        # 10048 <g_105+0x8>
    9a0d:	0f b6 05 34 66 00 00 	movzbl 0x6634(%rip),%eax        # 10048 <g_105+0x8>
    9a14:	3c 04                	cmp    $0x4,%al
    9a16:	0f 87 14 fd ff ff    	ja     9730 <func_81+0x4da>
    9a1c:	48 8b 85 e0 fd ff ff 	mov    -0x220(%rbp),%rax
    9a23:	0f be d0             	movsbl %al,%edx
    9a26:	8b 85 58 fd ff ff    	mov    -0x2a8(%rbp),%eax
    9a2c:	0f be c0             	movsbl %al,%eax
    9a2f:	89 d6                	mov    %edx,%esi
    9a31:	89 c7                	mov    %eax,%edi
    9a33:	e8 ba c7 ff ff       	callq  61f2 <safe_sub_func_int8_t_s_s>
    9a38:	0f be c0             	movsbl %al,%eax
    9a3b:	f7 d0                	not    %eax
    9a3d:	89 85 48 fd ff ff    	mov    %eax,-0x2b8(%rbp)
    9a43:	0f b6 05 ea 65 00 00 	movzbl 0x65ea(%rip),%eax        # 10034 <g_69>
    9a4a:	0f b6 c0             	movzbl %al,%eax
    9a4d:	be 03 00 00 00       	mov    $0x3,%esi
    9a52:	89 c7                	mov    %eax,%edi
    9a54:	e8 01 d1 ff ff       	callq  6b5a <safe_add_func_uint8_t_u_u>
    9a59:	88 05 d5 65 00 00    	mov    %al,0x65d5(%rip)        # 10034 <g_69>
    9a5f:	0f b6 05 ce 65 00 00 	movzbl 0x65ce(%rip),%eax        # 10034 <g_69>
    9a66:	3c 24                	cmp    $0x24,%al
    9a68:	0f 87 fc fb ff ff    	ja     966a <func_81+0x414>
    9a6e:	c6 05 bf 65 00 00 02 	movb   $0x2,0x65bf(%rip)        # 10034 <g_69>
    9a75:	90                   	nop
    9a76:	0f b6 05 b7 65 00 00 	movzbl 0x65b7(%rip),%eax        # 10034 <g_69>
    9a7d:	3c 2f                	cmp    $0x2f,%al
    9a7f:	76 0b                	jbe    9a8c <func_81+0x836>
    9a81:	8b 85 24 fd ff ff    	mov    -0x2dc(%rbp),%eax
    9a87:	e9 0c 02 00 00       	jmpq   9c98 <func_81+0xa42>
    9a8c:	8b 85 24 fd ff ff    	mov    -0x2dc(%rbp),%eax
    9a92:	0f b6 c0             	movzbl %al,%eax
    9a95:	be 02 00 00 00       	mov    $0x2,%esi
    9a9a:	89 c7                	mov    %eax,%edi
    9a9c:	e8 d7 d0 ff ff       	callq  6b78 <safe_sub_func_uint8_t_u_u>
    9aa1:	0f b6 c0             	movzbl %al,%eax
    9aa4:	89 85 24 fd ff ff    	mov    %eax,-0x2dc(%rbp)
    9aaa:	83 bd 24 fd ff ff 08 	cmpl   $0x8,-0x2dc(%rbp)
    9ab1:	0f 87 03 f9 ff ff    	ja     93ba <func_81+0x164>
    9ab7:	c6 05 8f 65 00 00 00 	movb   $0x0,0x658f(%rip)        # 1004d <g_105+0xd>
    9abe:	e9 a4 01 00 00       	jmpq   9c67 <func_81+0xa11>
    9ac3:	48 8d 05 fe 7b 00 00 	lea    0x7bfe(%rip),%rax        # 116c8 <g_202+0x8>
    9aca:	48 89 85 d8 fd ff ff 	mov    %rax,-0x228(%rbp)
    9ad1:	48 8d 85 d8 fd ff ff 	lea    -0x228(%rbp),%rax
    9ad8:	48 89 85 80 fe ff ff 	mov    %rax,-0x180(%rbp)
    9adf:	48 8d 05 4c 65 00 00 	lea    0x654c(%rip),%rax        # 10032 <g_39>
    9ae6:	48 89 85 88 fe ff ff 	mov    %rax,-0x178(%rbp)
    9aed:	c7 85 90 fd ff ff ff 	movl   $0xffffffff,-0x270(%rbp)
    9af4:	ff ff ff 
    9af7:	c7 85 94 fd ff ff 14 	movl   $0x5afd3214,-0x26c(%rbp)
    9afe:	32 fd 5a 
    9b01:	c7 85 98 fd ff ff e0 	movl   $0x12672e0,-0x268(%rbp)
    9b08:	72 26 01 
    9b0b:	c7 85 9c fd ff ff fd 	movl   $0xfffffffd,-0x264(%rbp)
    9b12:	ff ff ff 
    9b15:	c7 85 a0 fd ff ff 6e 	movl   $0x1ca6c46e,-0x260(%rbp)
    9b1c:	c4 a6 1c 
    9b1f:	c7 85 a4 fd ff ff fe 	movl   $0xfffffffe,-0x25c(%rbp)
    9b26:	ff ff ff 
    9b29:	c7 85 a8 fd ff ff 00 	movl   $0x0,-0x258(%rbp)
    9b30:	00 00 00 
    9b33:	c7 85 50 fd ff ff 00 	movl   $0x0,-0x2b0(%rbp)
    9b3a:	00 00 00 
    9b3d:	eb 1e                	jmp    9b5d <func_81+0x907>
    9b3f:	8b 85 50 fd ff ff    	mov    -0x2b0(%rbp),%eax
    9b45:	48 98                	cltq   
    9b47:	48 8d 15 ea 7b 00 00 	lea    0x7bea(%rip),%rdx        # 11738 <g_201+0x18>
    9b4e:	48 89 94 c5 b0 fe ff 	mov    %rdx,-0x150(%rbp,%rax,8)
    9b55:	ff 
    9b56:	83 85 50 fd ff ff 01 	addl   $0x1,-0x2b0(%rbp)
    9b5d:	83 bd 50 fd ff ff 02 	cmpl   $0x2,-0x2b0(%rbp)
    9b64:	7e d9                	jle    9b3f <func_81+0x8e9>
    9b66:	66 c7 05 e7 64 00 00 	movw   $0x3,0x64e7(%rip)        # 10056 <g_105+0x16>
    9b6d:	03 00 
    9b6f:	e9 b5 00 00 00       	jmpq   9c29 <func_81+0x9d3>
    9b74:	48 8d 05 e5 64 00 00 	lea    0x64e5(%rip),%rax        # 10060 <g_172>
    9b7b:	48 89 85 90 fe ff ff 	mov    %rax,-0x170(%rbp)
    9b82:	48 8d 05 a9 64 00 00 	lea    0x64a9(%rip),%rax        # 10032 <g_39>
    9b89:	48 89 85 98 fe ff ff 	mov    %rax,-0x168(%rbp)
    9b90:	48 8d 05 af 64 00 00 	lea    0x64af(%rip),%rax        # 10046 <g_105+0x6>
    9b97:	48 89 85 a0 fe ff ff 	mov    %rax,-0x160(%rbp)
    9b9e:	48 8d 05 cb 64 00 00 	lea    0x64cb(%rip),%rax        # 10070 <g_192>
    9ba5:	48 89 85 a8 fe ff ff 	mov    %rax,-0x158(%rbp)
    9bac:	c7 85 ac fd ff ff 00 	movl   $0x0,-0x254(%rbp)
    9bb3:	00 00 00 
    9bb6:	c7 85 54 fd ff ff 00 	movl   $0x0,-0x2ac(%rbp)
    9bbd:	00 00 00 
    9bc0:	eb 1e                	jmp    9be0 <func_81+0x98a>
    9bc2:	8b 85 54 fd ff ff    	mov    -0x2ac(%rbp),%eax
    9bc8:	48 98                	cltq   
    9bca:	48 8d 15 9f 7b 00 00 	lea    0x7b9f(%rip),%rdx        # 11770 <g_200>
    9bd1:	48 89 94 c5 f0 fe ff 	mov    %rdx,-0x110(%rbp,%rax,8)
    9bd8:	ff 
    9bd9:	83 85 54 fd ff ff 01 	addl   $0x1,-0x2ac(%rbp)
    9be0:	83 bd 54 fd ff ff 08 	cmpl   $0x8,-0x2ac(%rbp)
    9be7:	7e d9                	jle    9bc2 <func_81+0x96c>
    9be9:	c7 85 54 fd ff ff 00 	movl   $0x0,-0x2ac(%rbp)
    9bf0:	00 00 00 
    9bf3:	eb 1a                	jmp    9c0f <func_81+0x9b9>
    9bf5:	8b 85 54 fd ff ff    	mov    -0x2ac(%rbp),%eax
    9bfb:	48 98                	cltq   
    9bfd:	c7 84 85 d0 fe ff ff 	movl   $0xffffffff,-0x130(%rbp,%rax,4)
    9c04:	ff ff ff ff 
    9c08:	83 85 54 fd ff ff 01 	addl   $0x1,-0x2ac(%rbp)
    9c0f:	83 bd 54 fd ff ff 05 	cmpl   $0x5,-0x2ac(%rbp)
    9c16:	7e dd                	jle    9bf5 <func_81+0x99f>
    9c18:	0f b7 05 37 64 00 00 	movzwl 0x6437(%rip),%eax        # 10056 <g_105+0x16>
    9c1f:	83 e8 01             	sub    $0x1,%eax
    9c22:	66 89 05 2d 64 00 00 	mov    %ax,0x642d(%rip)        # 10056 <g_105+0x16>
    9c29:	0f b7 05 26 64 00 00 	movzwl 0x6426(%rip),%eax        # 10056 <g_105+0x16>
    9c30:	66 85 c0             	test   %ax,%ax
    9c33:	0f 89 3b ff ff ff    	jns    9b74 <func_81+0x91e>
    9c39:	c7 85 58 fd ff ff 00 	movl   $0x0,-0x2a8(%rbp)
    9c40:	00 00 00 
    9c43:	83 bd 58 fd ff ff 01 	cmpl   $0x1,-0x2a8(%rbp)
    9c4a:	77 0b                	ja     9c57 <func_81+0xa01>
    9c4c:	48 8b 85 e8 fd ff ff 	mov    -0x218(%rbp),%rax
    9c53:	8b 00                	mov    (%rax),%eax
    9c55:	eb 41                	jmp    9c98 <func_81+0xa42>
    9c57:	0f b6 05 ef 63 00 00 	movzbl 0x63ef(%rip),%eax        # 1004d <g_105+0xd>
    9c5e:	83 c0 01             	add    $0x1,%eax
    9c61:	88 05 e6 63 00 00    	mov    %al,0x63e6(%rip)        # 1004d <g_105+0xd>
    9c67:	0f b6 05 df 63 00 00 	movzbl 0x63df(%rip),%eax        # 1004d <g_105+0xd>
    9c6e:	3c 01                	cmp    $0x1,%al
    9c70:	0f 86 4d fe ff ff    	jbe    9ac3 <func_81+0x86d>
    9c76:	48 8b 85 e8 fd ff ff 	mov    -0x218(%rbp),%rax
    9c7d:	8b 00                	mov    (%rax),%eax
    9c7f:	25 0b 6f c9 f4       	and    $0xf4c96f0b,%eax
    9c84:	89 c2                	mov    %eax,%edx
    9c86:	48 8b 85 e8 fd ff ff 	mov    -0x218(%rbp),%rax
    9c8d:	89 10                	mov    %edx,(%rax)
    9c8f:	48 8b 85 e8 fd ff ff 	mov    -0x218(%rbp),%rax
    9c96:	8b 00                	mov    (%rax),%eax
    9c98:	48 8b 5d e8          	mov    -0x18(%rbp),%rbx
    9c9c:	64 48 33 1c 25 28 00 	xor    %fs:0x28,%rbx
    9ca3:	00 00 
    9ca5:	74 05                	je     9cac <func_81+0xa56>
    9ca7:	e8 c4 c3 ff ff       	callq  6070 <__stack_chk_fail@plt>
    9cac:	48 81 c4 d8 02 00 00 	add    $0x2d8,%rsp
    9cb3:	5b                   	pop    %rbx
    9cb4:	5d                   	pop    %rbp
    9cb5:	c3                   	retq   

0000000000009cb6 <func_86>:
    9cb6:	f3 0f 1e fa          	endbr64 
    9cba:	55                   	push   %rbp
    9cbb:	48 89 e5             	mov    %rsp,%rbp
    9cbe:	48 83 ec 40          	sub    $0x40,%rsp
    9cc2:	89 f8                	mov    %edi,%eax
    9cc4:	48 89 75 d0          	mov    %rsi,-0x30(%rbp)
    9cc8:	48 89 55 c8          	mov    %rdx,-0x38(%rbp)
    9ccc:	48 89 4d c0          	mov    %rcx,-0x40(%rbp)
    9cd0:	44 89 45 d8          	mov    %r8d,-0x28(%rbp)
    9cd4:	88 45 dc             	mov    %al,-0x24(%rbp)
    9cd7:	64 48 8b 04 25 28 00 	mov    %fs:0x28,%rax
    9cde:	00 00 
    9ce0:	48 89 45 f8          	mov    %rax,-0x8(%rbp)
    9ce4:	31 c0                	xor    %eax,%eax
    9ce6:	48 8d 05 4b 63 00 00 	lea    0x634b(%rip),%rax        # 10038 <g_95>
    9ced:	48 89 45 e8          	mov    %rax,-0x18(%rbp)
    9cf1:	48 8d 05 3c 63 00 00 	lea    0x633c(%rip),%rax        # 10034 <g_69>
    9cf8:	48 89 45 e0          	mov    %rax,-0x20(%rbp)
    9cfc:	48 8d 45 e0          	lea    -0x20(%rbp),%rax
    9d00:	48 89 45 f0          	mov    %rax,-0x10(%rbp)
    9d04:	48 8b 45 e8          	mov    -0x18(%rbp),%rax
    9d08:	8b 10                	mov    (%rax),%edx
    9d0a:	48 8b 45 d0          	mov    -0x30(%rbp),%rax
    9d0e:	8b 00                	mov    (%rax),%eax
    9d10:	31 c2                	xor    %eax,%edx
    9d12:	48 8b 45 e8          	mov    -0x18(%rbp),%rax
    9d16:	89 10                	mov    %edx,(%rax)
    9d18:	48 8b 05 f1 74 00 00 	mov    0x74f1(%rip),%rax        # 11210 <g_98+0x70>
    9d1f:	48 8b 4d f8          	mov    -0x8(%rbp),%rcx
    9d23:	64 48 33 0c 25 28 00 	xor    %fs:0x28,%rcx
    9d2a:	00 00 
    9d2c:	74 05                	je     9d33 <func_86+0x7d>
    9d2e:	e8 3d c3 ff ff       	callq  6070 <__stack_chk_fail@plt>
    9d33:	c9                   	leaveq 
    9d34:	c3                   	retq   

0000000000009d35 <main>:
    9d35:	f3 0f 1e fa          	endbr64 
    9d39:	55                   	push   %rbp
    9d3a:	48 89 e5             	mov    %rsp,%rbp
    9d3d:	48 83 ec 20          	sub    $0x20,%rsp
    9d41:	89 7d ec             	mov    %edi,-0x14(%rbp)
    9d44:	48 89 75 e0          	mov    %rsi,-0x20(%rbp)
    9d48:	c7 45 fc 00 00 00 00 	movl   $0x0,-0x4(%rbp)
    9d4f:	83 7d ec 02          	cmpl   $0x2,-0x14(%rbp)
    9d53:	74 25                	je     9d7a <main+0x45>
    9d55:	48 8b 45 e0          	mov    -0x20(%rbp),%rax
    9d59:	48 83 c0 08          	add    $0x8,%rax
    9d5d:	48 8b 00             	mov    (%rax),%rax
    9d60:	48 8d 35 29 27 00 00 	lea    0x2729(%rip),%rsi        # c490 <g_1875+0x420>
    9d67:	48 89 c7             	mov    %rax,%rdi
    9d6a:	e8 21 c3 ff ff       	callq  6090 <strcmp@plt>
    9d6f:	85 c0                	test   %eax,%eax
    9d71:	74 07                	je     9d7a <main+0x45>
    9d73:	c7 45 fc 01 00 00 00 	movl   $0x1,-0x4(%rbp)
    9d7a:	e8 0a c4 ff ff       	callq  6189 <platform_main_begin>
    9d7f:	e8 14 d8 ff ff       	callq  7598 <crc32_gentab>
    9d84:	e8 2c da ff ff       	callq  77b5 <func_1>
    9d89:	8b 05 95 62 00 00    	mov    0x6295(%rip),%eax        # 10024 <g_2>
    9d8f:	48 98                	cltq   
    9d91:	8b 55 fc             	mov    -0x4(%rbp),%edx
    9d94:	48 8d 35 f7 26 00 00 	lea    0x26f7(%rip),%rsi        # c492 <g_1875+0x422>
    9d9b:	48 89 c7             	mov    %rax,%rdi
    9d9e:	e8 50 d9 ff ff       	callq  76f3 <transparent_crc>
    9da3:	8b 05 7f 62 00 00    	mov    0x627f(%rip),%eax        # 10028 <g_5>
    9da9:	48 98                	cltq   
    9dab:	8b 55 fc             	mov    -0x4(%rbp),%edx
    9dae:	48 8d 35 e1 26 00 00 	lea    0x26e1(%rip),%rsi        # c496 <g_1875+0x426>
    9db5:	48 89 c7             	mov    %rax,%rdi
    9db8:	e8 36 d9 ff ff       	callq  76f3 <transparent_crc>
    9dbd:	8b 05 69 62 00 00    	mov    0x6269(%rip),%eax        # 1002c <g_9>
    9dc3:	48 98                	cltq   
    9dc5:	8b 55 fc             	mov    -0x4(%rbp),%edx
    9dc8:	48 8d 35 cb 26 00 00 	lea    0x26cb(%rip),%rsi        # c49a <g_1875+0x42a>
    9dcf:	48 89 c7             	mov    %rax,%rdi
    9dd2:	e8 1c d9 ff ff       	callq  76f3 <transparent_crc>
    9dd7:	0f b7 05 52 62 00 00 	movzwl 0x6252(%rip),%eax        # 10030 <g_15>
    9dde:	0f b7 c0             	movzwl %ax,%eax
    9de1:	8b 55 fc             	mov    -0x4(%rbp),%edx
    9de4:	48 8d 35 b3 26 00 00 	lea    0x26b3(%rip),%rsi        # c49e <g_1875+0x42e>
    9deb:	48 89 c7             	mov    %rax,%rdi
    9dee:	e8 00 d9 ff ff       	callq  76f3 <transparent_crc>
    9df3:	0f b6 05 ce 8a 00 00 	movzbl 0x8ace(%rip),%eax        # 128c8 <g_19>
    9dfa:	0f b6 c0             	movzbl %al,%eax
    9dfd:	8b 55 fc             	mov    -0x4(%rbp),%edx
    9e00:	48 8d 35 9c 26 00 00 	lea    0x269c(%rip),%rsi        # c4a3 <g_1875+0x433>
    9e07:	48 89 c7             	mov    %rax,%rdi
    9e0a:	e8 e4 d8 ff ff       	callq  76f3 <transparent_crc>
    9e0f:	0f b7 05 1c 62 00 00 	movzwl 0x621c(%rip),%eax        # 10032 <g_39>
    9e16:	0f b7 c0             	movzwl %ax,%eax
    9e19:	8b 55 fc             	mov    -0x4(%rbp),%edx
    9e1c:	48 8d 35 85 26 00 00 	lea    0x2685(%rip),%rsi        # c4a8 <g_1875+0x438>
    9e23:	48 89 c7             	mov    %rax,%rdi
    9e26:	e8 c8 d8 ff ff       	callq  76f3 <transparent_crc>
    9e2b:	0f b6 05 02 62 00 00 	movzbl 0x6202(%rip),%eax        # 10034 <g_69>
    9e32:	0f b6 c0             	movzbl %al,%eax
    9e35:	8b 55 fc             	mov    -0x4(%rbp),%edx
    9e38:	48 8d 35 6e 26 00 00 	lea    0x266e(%rip),%rsi        # c4ad <g_1875+0x43d>
    9e3f:	48 89 c7             	mov    %rax,%rdi
    9e42:	e8 ac d8 ff ff       	callq  76f3 <transparent_crc>
    9e47:	8b 05 eb 61 00 00    	mov    0x61eb(%rip),%eax        # 10038 <g_95>
    9e4d:	48 98                	cltq   
    9e4f:	8b 55 fc             	mov    -0x4(%rbp),%edx
    9e52:	48 8d 35 59 26 00 00 	lea    0x2659(%rip),%rsi        # c4b2 <g_1875+0x442>
    9e59:	48 89 c7             	mov    %rax,%rdi
    9e5c:	e8 92 d8 ff ff       	callq  76f3 <transparent_crc>
    9e61:	8b 05 d9 61 00 00    	mov    0x61d9(%rip),%eax        # 10040 <g_105>
    9e67:	89 c1                	mov    %eax,%ecx
    9e69:	8b 45 fc             	mov    -0x4(%rbp),%eax
    9e6c:	89 c2                	mov    %eax,%edx
    9e6e:	48 8d 35 42 26 00 00 	lea    0x2642(%rip),%rsi        # c4b7 <g_1875+0x447>
    9e75:	48 89 cf             	mov    %rcx,%rdi
    9e78:	e8 76 d8 ff ff       	callq  76f3 <transparent_crc>
    9e7d:	0f b7 05 c0 61 00 00 	movzwl 0x61c0(%rip),%eax        # 10044 <g_105+0x4>
    9e84:	48 0f bf c0          	movswq %ax,%rax
    9e88:	8b 55 fc             	mov    -0x4(%rbp),%edx
    9e8b:	48 8d 35 2e 26 00 00 	lea    0x262e(%rip),%rsi        # c4c0 <g_1875+0x450>
    9e92:	48 89 c7             	mov    %rax,%rdi
    9e95:	e8 59 d8 ff ff       	callq  76f3 <transparent_crc>
    9e9a:	0f b7 05 a5 61 00 00 	movzwl 0x61a5(%rip),%eax        # 10046 <g_105+0x6>
    9ea1:	48 0f bf c0          	movswq %ax,%rax
    9ea5:	8b 55 fc             	mov    -0x4(%rbp),%edx
    9ea8:	48 8d 35 1a 26 00 00 	lea    0x261a(%rip),%rsi        # c4c9 <g_1875+0x459>
    9eaf:	48 89 c7             	mov    %rax,%rdi
    9eb2:	e8 3c d8 ff ff       	callq  76f3 <transparent_crc>
    9eb7:	0f b6 05 8a 61 00 00 	movzbl 0x618a(%rip),%eax        # 10048 <g_105+0x8>
    9ebe:	0f b6 c0             	movzbl %al,%eax
    9ec1:	8b 55 fc             	mov    -0x4(%rbp),%edx
    9ec4:	48 8d 35 07 26 00 00 	lea    0x2607(%rip),%rsi        # c4d2 <g_1875+0x462>
    9ecb:	48 89 c7             	mov    %rax,%rdi
    9ece:	e8 20 d8 ff ff       	callq  76f3 <transparent_crc>
    9ed3:	8b 05 70 61 00 00    	mov    0x6170(%rip),%eax        # 10049 <g_105+0x9>
    9ed9:	89 c1                	mov    %eax,%ecx
    9edb:	8b 45 fc             	mov    -0x4(%rbp),%eax
    9ede:	89 c2                	mov    %eax,%edx
    9ee0:	48 8d 35 f4 25 00 00 	lea    0x25f4(%rip),%rsi        # c4db <g_1875+0x46b>
    9ee7:	48 89 cf             	mov    %rcx,%rdi
    9eea:	e8 04 d8 ff ff       	callq  76f3 <transparent_crc>
    9eef:	0f b6 05 57 61 00 00 	movzbl 0x6157(%rip),%eax        # 1004d <g_105+0xd>
    9ef6:	0f b6 c0             	movzbl %al,%eax
    9ef9:	8b 55 fc             	mov    -0x4(%rbp),%edx
    9efc:	48 8d 35 e1 25 00 00 	lea    0x25e1(%rip),%rsi        # c4e4 <g_1875+0x474>
    9f03:	48 89 c7             	mov    %rax,%rdi
    9f06:	e8 e8 d7 ff ff       	callq  76f3 <transparent_crc>
    9f0b:	48 8b 05 3c 61 00 00 	mov    0x613c(%rip),%rax        # 1004e <g_105+0xe>
    9f12:	48 89 c1             	mov    %rax,%rcx
    9f15:	8b 45 fc             	mov    -0x4(%rbp),%eax
    9f18:	89 c2                	mov    %eax,%edx
    9f1a:	48 8d 35 cc 25 00 00 	lea    0x25cc(%rip),%rsi        # c4ed <g_1875+0x47d>
    9f21:	48 89 cf             	mov    %rcx,%rdi
    9f24:	e8 ca d7 ff ff       	callq  76f3 <transparent_crc>
    9f29:	0f b7 05 26 61 00 00 	movzwl 0x6126(%rip),%eax        # 10056 <g_105+0x16>
    9f30:	48 0f bf c0          	movswq %ax,%rax
    9f34:	8b 55 fc             	mov    -0x4(%rbp),%edx
    9f37:	48 8d 35 b8 25 00 00 	lea    0x25b8(%rip),%rsi        # c4f6 <g_1875+0x486>
    9f3e:	48 89 c7             	mov    %rax,%rdi
    9f41:	e8 ad d7 ff ff       	callq  76f3 <transparent_crc>
    9f46:	c7 45 f4 00 00 00 00 	movl   $0x0,-0xc(%rbp)
    9f4d:	eb 4a                	jmp    9f99 <main+0x264>
    9f4f:	8b 45 f4             	mov    -0xc(%rbp),%eax
    9f52:	48 98                	cltq   
    9f54:	48 8d 14 c5 00 00 00 	lea    0x0(,%rax,8),%rdx
    9f5b:	00 
    9f5c:	48 8d 05 fd 60 00 00 	lea    0x60fd(%rip),%rax        # 10060 <g_172>
    9f63:	48 8b 04 02          	mov    (%rdx,%rax,1),%rax
    9f67:	8b 55 fc             	mov    -0x4(%rbp),%edx
    9f6a:	48 8d 35 8e 25 00 00 	lea    0x258e(%rip),%rsi        # c4ff <g_1875+0x48f>
    9f71:	48 89 c7             	mov    %rax,%rdi
    9f74:	e8 7a d7 ff ff       	callq  76f3 <transparent_crc>
    9f79:	83 7d fc 00          	cmpl   $0x0,-0x4(%rbp)
    9f7d:	74 16                	je     9f95 <main+0x260>
    9f7f:	8b 45 f4             	mov    -0xc(%rbp),%eax
    9f82:	89 c6                	mov    %eax,%esi
    9f84:	48 8d 3d 7d 25 00 00 	lea    0x257d(%rip),%rdi        # c508 <g_1875+0x498>
    9f8b:	b8 00 00 00 00       	mov    $0x0,%eax
    9f90:	e8 eb c0 ff ff       	callq  6080 <printf@plt>
    9f95:	83 45 f4 01          	addl   $0x1,-0xc(%rbp)
    9f99:	83 7d f4 01          	cmpl   $0x1,-0xc(%rbp)
    9f9d:	7e b0                	jle    9f4f <main+0x21a>
    9f9f:	0f b6 05 ca 60 00 00 	movzbl 0x60ca(%rip),%eax        # 10070 <g_192>
    9fa6:	0f b6 c0             	movzbl %al,%eax
    9fa9:	8b 55 fc             	mov    -0x4(%rbp),%edx
    9fac:	48 8d 35 63 25 00 00 	lea    0x2563(%rip),%rsi        # c516 <g_1875+0x4a6>
    9fb3:	48 89 c7             	mov    %rax,%rdi
    9fb6:	e8 38 d7 ff ff       	callq  76f3 <transparent_crc>
    9fbb:	b8 ff ff ff ff       	mov    $0xffffffff,%eax
    9fc0:	0f b7 c0             	movzwl %ax,%eax
    9fc3:	8b 55 fc             	mov    -0x4(%rbp),%edx
    9fc6:	48 8d 35 4f 25 00 00 	lea    0x254f(%rip),%rsi        # c51c <g_1875+0x4ac>
    9fcd:	48 89 c7             	mov    %rax,%rdi
    9fd0:	e8 1e d7 ff ff       	callq  76f3 <transparent_crc>
    9fd5:	c7 45 f4 00 00 00 00 	movl   $0x0,-0xc(%rbp)
    9fdc:	eb 6c                	jmp    a04a <main+0x315>
    9fde:	c7 45 f8 00 00 00 00 	movl   $0x0,-0x8(%rbp)
    9fe5:	eb 59                	jmp    a040 <main+0x30b>
    9fe7:	8b 45 f8             	mov    -0x8(%rbp),%eax
    9fea:	48 63 d0             	movslq %eax,%rdx
    9fed:	8b 45 f4             	mov    -0xc(%rbp),%eax
    9ff0:	48 98                	cltq   
    9ff2:	48 01 d0             	add    %rdx,%rax
    9ff5:	48 8d 14 85 00 00 00 	lea    0x0(,%rax,4),%rdx
    9ffc:	00 
    9ffd:	48 8d 05 7c 60 00 00 	lea    0x607c(%rip),%rax        # 10080 <g_236>
    a004:	8b 04 02             	mov    (%rdx,%rax,1),%eax
    a007:	89 c1                	mov    %eax,%ecx
    a009:	8b 45 fc             	mov    -0x4(%rbp),%eax
    a00c:	89 c2                	mov    %eax,%edx
    a00e:	48 8d 35 0d 25 00 00 	lea    0x250d(%rip),%rsi        # c522 <g_1875+0x4b2>
    a015:	48 89 cf             	mov    %rcx,%rdi
    a018:	e8 d6 d6 ff ff       	callq  76f3 <transparent_crc>
    a01d:	83 7d fc 00          	cmpl   $0x0,-0x4(%rbp)
    a021:	74 19                	je     a03c <main+0x307>
    a023:	8b 55 f8             	mov    -0x8(%rbp),%edx
    a026:	8b 45 f4             	mov    -0xc(%rbp),%eax
    a029:	89 c6                	mov    %eax,%esi
    a02b:	48 8d 3d fc 24 00 00 	lea    0x24fc(%rip),%rdi        # c52e <g_1875+0x4be>
    a032:	b8 00 00 00 00       	mov    $0x0,%eax
    a037:	e8 44 c0 ff ff       	callq  6080 <printf@plt>
    a03c:	83 45 f8 01          	addl   $0x1,-0x8(%rbp)
    a040:	83 7d f8 00          	cmpl   $0x0,-0x8(%rbp)
    a044:	7e a1                	jle    9fe7 <main+0x2b2>
    a046:	83 45 f4 01          	addl   $0x1,-0xc(%rbp)
    a04a:	83 7d f4 08          	cmpl   $0x8,-0xc(%rbp)
    a04e:	7e 8e                	jle    9fde <main+0x2a9>
    a050:	8b 05 4e 60 00 00    	mov    0x604e(%rip),%eax        # 100a4 <g_248>
    a056:	48 98                	cltq   
    a058:	8b 55 fc             	mov    -0x4(%rbp),%edx
    a05b:	48 8d 35 de 24 00 00 	lea    0x24de(%rip),%rsi        # c540 <g_1875+0x4d0>
    a062:	48 89 c7             	mov    %rax,%rdi
    a065:	e8 89 d6 ff ff       	callq  76f3 <transparent_crc>
    a06a:	0f b7 05 37 60 00 00 	movzwl 0x6037(%rip),%eax        # 100a8 <g_311>
    a071:	48 0f bf c0          	movswq %ax,%rax
    a075:	8b 55 fc             	mov    -0x4(%rbp),%edx
    a078:	48 8d 35 c7 24 00 00 	lea    0x24c7(%rip),%rsi        # c546 <g_1875+0x4d6>
    a07f:	48 89 c7             	mov    %rax,%rdi
    a082:	e8 6c d6 ff ff       	callq  76f3 <transparent_crc>
    a087:	8b 05 1f 60 00 00    	mov    0x601f(%rip),%eax        # 100ac <g_355>
    a08d:	89 c1                	mov    %eax,%ecx
    a08f:	8b 45 fc             	mov    -0x4(%rbp),%eax
    a092:	89 c2                	mov    %eax,%edx
    a094:	48 8d 35 b1 24 00 00 	lea    0x24b1(%rip),%rsi        # c54c <g_1875+0x4dc>
    a09b:	48 89 cf             	mov    %rcx,%rdi
    a09e:	e8 50 d6 ff ff       	callq  76f3 <transparent_crc>
    a0a3:	c7 45 f4 00 00 00 00 	movl   $0x0,-0xc(%rbp)
    a0aa:	eb 67                	jmp    a113 <main+0x3de>
    a0ac:	c7 45 f8 00 00 00 00 	movl   $0x0,-0x8(%rbp)
    a0b3:	eb 54                	jmp    a109 <main+0x3d4>
    a0b5:	8b 45 f8             	mov    -0x8(%rbp),%eax
    a0b8:	48 63 d0             	movslq %eax,%rdx
    a0bb:	8b 45 f4             	mov    -0xc(%rbp),%eax
    a0be:	48 98                	cltq   
    a0c0:	48 01 c2             	add    %rax,%rdx
    a0c3:	48 8d 05 e6 5f 00 00 	lea    0x5fe6(%rip),%rax        # 100b0 <g_360>
    a0ca:	48 01 d0             	add    %rdx,%rax
    a0cd:	0f b6 00             	movzbl (%rax),%eax
    a0d0:	48 0f be c0          	movsbq %al,%rax
    a0d4:	8b 55 fc             	mov    -0x4(%rbp),%edx
    a0d7:	48 8d 35 74 24 00 00 	lea    0x2474(%rip),%rsi        # c552 <g_1875+0x4e2>
    a0de:	48 89 c7             	mov    %rax,%rdi
    a0e1:	e8 0d d6 ff ff       	callq  76f3 <transparent_crc>
    a0e6:	83 7d fc 00          	cmpl   $0x0,-0x4(%rbp)
    a0ea:	74 19                	je     a105 <main+0x3d0>
    a0ec:	8b 55 f8             	mov    -0x8(%rbp),%edx
    a0ef:	8b 45 f4             	mov    -0xc(%rbp),%eax
    a0f2:	89 c6                	mov    %eax,%esi
    a0f4:	48 8d 3d 33 24 00 00 	lea    0x2433(%rip),%rdi        # c52e <g_1875+0x4be>
    a0fb:	b8 00 00 00 00       	mov    $0x0,%eax
    a100:	e8 7b bf ff ff       	callq  6080 <printf@plt>
    a105:	83 45 f8 01          	addl   $0x1,-0x8(%rbp)
    a109:	83 7d f8 00          	cmpl   $0x0,-0x8(%rbp)
    a10d:	7e a6                	jle    a0b5 <main+0x380>
    a10f:	83 45 f4 01          	addl   $0x1,-0xc(%rbp)
    a113:	83 7d f4 08          	cmpl   $0x8,-0xc(%rbp)
    a117:	7e 93                	jle    a0ac <main+0x377>
    a119:	48 8b 05 a0 5f 00 00 	mov    0x5fa0(%rip),%rax        # 100c0 <g_418>
    a120:	48 89 c1             	mov    %rax,%rcx
    a123:	8b 45 fc             	mov    -0x4(%rbp),%eax
    a126:	89 c2                	mov    %eax,%edx
    a128:	48 8d 35 2f 24 00 00 	lea    0x242f(%rip),%rsi        # c55e <g_1875+0x4ee>
    a12f:	48 89 cf             	mov    %rcx,%rdi
    a132:	e8 bc d5 ff ff       	callq  76f3 <transparent_crc>
    a137:	8b 05 93 5f 00 00    	mov    0x5f93(%rip),%eax        # 100d0 <g_512>
    a13d:	89 c1                	mov    %eax,%ecx
    a13f:	8b 45 fc             	mov    -0x4(%rbp),%eax
    a142:	89 c2                	mov    %eax,%edx
    a144:	48 8d 35 19 24 00 00 	lea    0x2419(%rip),%rsi        # c564 <g_1875+0x4f4>
    a14b:	48 89 cf             	mov    %rcx,%rdi
    a14e:	e8 a0 d5 ff ff       	callq  76f3 <transparent_crc>
    a153:	0f b7 05 7a 5f 00 00 	movzwl 0x5f7a(%rip),%eax        # 100d4 <g_512+0x4>
    a15a:	48 0f bf c0          	movswq %ax,%rax
    a15e:	8b 55 fc             	mov    -0x4(%rbp),%edx
    a161:	48 8d 35 05 24 00 00 	lea    0x2405(%rip),%rsi        # c56d <g_1875+0x4fd>
    a168:	48 89 c7             	mov    %rax,%rdi
    a16b:	e8 83 d5 ff ff       	callq  76f3 <transparent_crc>
    a170:	0f b7 05 5f 5f 00 00 	movzwl 0x5f5f(%rip),%eax        # 100d6 <g_512+0x6>
    a177:	48 0f bf c0          	movswq %ax,%rax
    a17b:	8b 55 fc             	mov    -0x4(%rbp),%edx
    a17e:	48 8d 35 f1 23 00 00 	lea    0x23f1(%rip),%rsi        # c576 <g_1875+0x506>
    a185:	48 89 c7             	mov    %rax,%rdi
    a188:	e8 66 d5 ff ff       	callq  76f3 <transparent_crc>
    a18d:	0f b6 05 44 5f 00 00 	movzbl 0x5f44(%rip),%eax        # 100d8 <g_512+0x8>
    a194:	0f b6 c0             	movzbl %al,%eax
    a197:	8b 55 fc             	mov    -0x4(%rbp),%edx
    a19a:	48 8d 35 de 23 00 00 	lea    0x23de(%rip),%rsi        # c57f <g_1875+0x50f>
    a1a1:	48 89 c7             	mov    %rax,%rdi
    a1a4:	e8 4a d5 ff ff       	callq  76f3 <transparent_crc>
    a1a9:	8b 05 2a 5f 00 00    	mov    0x5f2a(%rip),%eax        # 100d9 <g_512+0x9>
    a1af:	89 c1                	mov    %eax,%ecx
    a1b1:	8b 45 fc             	mov    -0x4(%rbp),%eax
    a1b4:	89 c2                	mov    %eax,%edx
    a1b6:	48 8d 35 cb 23 00 00 	lea    0x23cb(%rip),%rsi        # c588 <g_1875+0x518>
    a1bd:	48 89 cf             	mov    %rcx,%rdi
    a1c0:	e8 2e d5 ff ff       	callq  76f3 <transparent_crc>
    a1c5:	0f b6 05 11 5f 00 00 	movzbl 0x5f11(%rip),%eax        # 100dd <g_512+0xd>
    a1cc:	0f b6 c0             	movzbl %al,%eax
    a1cf:	8b 55 fc             	mov    -0x4(%rbp),%edx
    a1d2:	48 8d 35 b8 23 00 00 	lea    0x23b8(%rip),%rsi        # c591 <g_1875+0x521>
    a1d9:	48 89 c7             	mov    %rax,%rdi
    a1dc:	e8 12 d5 ff ff       	callq  76f3 <transparent_crc>
    a1e1:	48 8b 05 f6 5e 00 00 	mov    0x5ef6(%rip),%rax        # 100de <g_512+0xe>
    a1e8:	48 89 c1             	mov    %rax,%rcx
    a1eb:	8b 45 fc             	mov    -0x4(%rbp),%eax
    a1ee:	89 c2                	mov    %eax,%edx
    a1f0:	48 8d 35 a3 23 00 00 	lea    0x23a3(%rip),%rsi        # c59a <g_1875+0x52a>
    a1f7:	48 89 cf             	mov    %rcx,%rdi
    a1fa:	e8 f4 d4 ff ff       	callq  76f3 <transparent_crc>
    a1ff:	0f b7 05 e0 5e 00 00 	movzwl 0x5ee0(%rip),%eax        # 100e6 <g_512+0x16>
    a206:	48 0f bf c0          	movswq %ax,%rax
    a20a:	8b 55 fc             	mov    -0x4(%rbp),%edx
    a20d:	48 8d 35 8f 23 00 00 	lea    0x238f(%rip),%rsi        # c5a3 <g_1875+0x533>
    a214:	48 89 c7             	mov    %rax,%rdi
    a217:	e8 d7 d4 ff ff       	callq  76f3 <transparent_crc>
    a21c:	8b 05 c6 5e 00 00    	mov    0x5ec6(%rip),%eax        # 100e8 <g_605>
    a222:	48 98                	cltq   
    a224:	8b 55 fc             	mov    -0x4(%rbp),%edx
    a227:	48 8d 35 7e 23 00 00 	lea    0x237e(%rip),%rsi        # c5ac <g_1875+0x53c>
    a22e:	48 89 c7             	mov    %rax,%rdi
    a231:	e8 bd d4 ff ff       	callq  76f3 <transparent_crc>
    a236:	8b 05 b4 5e 00 00    	mov    0x5eb4(%rip),%eax        # 100f0 <g_614>
    a23c:	89 c1                	mov    %eax,%ecx
    a23e:	8b 45 fc             	mov    -0x4(%rbp),%eax
    a241:	89 c2                	mov    %eax,%edx
    a243:	48 8d 35 68 23 00 00 	lea    0x2368(%rip),%rsi        # c5b2 <g_1875+0x542>
    a24a:	48 89 cf             	mov    %rcx,%rdi
    a24d:	e8 a1 d4 ff ff       	callq  76f3 <transparent_crc>
    a252:	0f b7 05 9b 5e 00 00 	movzwl 0x5e9b(%rip),%eax        # 100f4 <g_614+0x4>
    a259:	48 0f bf c0          	movswq %ax,%rax
    a25d:	8b 55 fc             	mov    -0x4(%rbp),%edx
    a260:	48 8d 35 54 23 00 00 	lea    0x2354(%rip),%rsi        # c5bb <g_1875+0x54b>
    a267:	48 89 c7             	mov    %rax,%rdi
    a26a:	e8 84 d4 ff ff       	callq  76f3 <transparent_crc>
    a26f:	0f b7 05 80 5e 00 00 	movzwl 0x5e80(%rip),%eax        # 100f6 <g_614+0x6>
    a276:	48 0f bf c0          	movswq %ax,%rax
    a27a:	8b 55 fc             	mov    -0x4(%rbp),%edx
    a27d:	48 8d 35 40 23 00 00 	lea    0x2340(%rip),%rsi        # c5c4 <g_1875+0x554>
    a284:	48 89 c7             	mov    %rax,%rdi
    a287:	e8 67 d4 ff ff       	callq  76f3 <transparent_crc>
    a28c:	0f b6 05 65 5e 00 00 	movzbl 0x5e65(%rip),%eax        # 100f8 <g_614+0x8>
    a293:	0f b6 c0             	movzbl %al,%eax
    a296:	8b 55 fc             	mov    -0x4(%rbp),%edx
    a299:	48 8d 35 2d 23 00 00 	lea    0x232d(%rip),%rsi        # c5cd <g_1875+0x55d>
    a2a0:	48 89 c7             	mov    %rax,%rdi
    a2a3:	e8 4b d4 ff ff       	callq  76f3 <transparent_crc>
    a2a8:	8b 05 4b 5e 00 00    	mov    0x5e4b(%rip),%eax        # 100f9 <g_614+0x9>
    a2ae:	89 c1                	mov    %eax,%ecx
    a2b0:	8b 45 fc             	mov    -0x4(%rbp),%eax
    a2b3:	89 c2                	mov    %eax,%edx
    a2b5:	48 8d 35 1a 23 00 00 	lea    0x231a(%rip),%rsi        # c5d6 <g_1875+0x566>
    a2bc:	48 89 cf             	mov    %rcx,%rdi
    a2bf:	e8 2f d4 ff ff       	callq  76f3 <transparent_crc>
    a2c4:	0f b6 05 32 5e 00 00 	movzbl 0x5e32(%rip),%eax        # 100fd <g_614+0xd>
    a2cb:	0f b6 c0             	movzbl %al,%eax
    a2ce:	8b 55 fc             	mov    -0x4(%rbp),%edx
    a2d1:	48 8d 35 07 23 00 00 	lea    0x2307(%rip),%rsi        # c5df <g_1875+0x56f>
    a2d8:	48 89 c7             	mov    %rax,%rdi
    a2db:	e8 13 d4 ff ff       	callq  76f3 <transparent_crc>
    a2e0:	48 8b 05 17 5e 00 00 	mov    0x5e17(%rip),%rax        # 100fe <g_614+0xe>
    a2e7:	48 89 c1             	mov    %rax,%rcx
    a2ea:	8b 45 fc             	mov    -0x4(%rbp),%eax
    a2ed:	89 c2                	mov    %eax,%edx
    a2ef:	48 8d 35 f2 22 00 00 	lea    0x22f2(%rip),%rsi        # c5e8 <g_1875+0x578>
    a2f6:	48 89 cf             	mov    %rcx,%rdi
    a2f9:	e8 f5 d3 ff ff       	callq  76f3 <transparent_crc>
    a2fe:	0f b7 05 01 5e 00 00 	movzwl 0x5e01(%rip),%eax        # 10106 <g_614+0x16>
    a305:	48 0f bf c0          	movswq %ax,%rax
    a309:	8b 55 fc             	mov    -0x4(%rbp),%edx
    a30c:	48 8d 35 de 22 00 00 	lea    0x22de(%rip),%rsi        # c5f1 <g_1875+0x581>
    a313:	48 89 c7             	mov    %rax,%rdi
    a316:	e8 d8 d3 ff ff       	callq  76f3 <transparent_crc>
    a31b:	8b 05 ef 5d 00 00    	mov    0x5def(%rip),%eax        # 10110 <g_705>
    a321:	89 c1                	mov    %eax,%ecx
    a323:	8b 45 fc             	mov    -0x4(%rbp),%eax
    a326:	89 c2                	mov    %eax,%edx
    a328:	48 8d 35 cb 22 00 00 	lea    0x22cb(%rip),%rsi        # c5fa <g_1875+0x58a>
    a32f:	48 89 cf             	mov    %rcx,%rdi
    a332:	e8 bc d3 ff ff       	callq  76f3 <transparent_crc>
    a337:	0f b7 05 d6 5d 00 00 	movzwl 0x5dd6(%rip),%eax        # 10114 <g_705+0x4>
    a33e:	48 0f bf c0          	movswq %ax,%rax
    a342:	8b 55 fc             	mov    -0x4(%rbp),%edx
    a345:	48 8d 35 b7 22 00 00 	lea    0x22b7(%rip),%rsi        # c603 <g_1875+0x593>
    a34c:	48 89 c7             	mov    %rax,%rdi
    a34f:	e8 9f d3 ff ff       	callq  76f3 <transparent_crc>
    a354:	0f b7 05 bb 5d 00 00 	movzwl 0x5dbb(%rip),%eax        # 10116 <g_705+0x6>
    a35b:	48 0f bf c0          	movswq %ax,%rax
    a35f:	8b 55 fc             	mov    -0x4(%rbp),%edx
    a362:	48 8d 35 a3 22 00 00 	lea    0x22a3(%rip),%rsi        # c60c <g_1875+0x59c>
    a369:	48 89 c7             	mov    %rax,%rdi
    a36c:	e8 82 d3 ff ff       	callq  76f3 <transparent_crc>
    a371:	0f b6 05 a0 5d 00 00 	movzbl 0x5da0(%rip),%eax        # 10118 <g_705+0x8>
    a378:	0f b6 c0             	movzbl %al,%eax
    a37b:	8b 55 fc             	mov    -0x4(%rbp),%edx
    a37e:	48 8d 35 90 22 00 00 	lea    0x2290(%rip),%rsi        # c615 <g_1875+0x5a5>
    a385:	48 89 c7             	mov    %rax,%rdi
    a388:	e8 66 d3 ff ff       	callq  76f3 <transparent_crc>
    a38d:	8b 05 86 5d 00 00    	mov    0x5d86(%rip),%eax        # 10119 <g_705+0x9>
    a393:	89 c1                	mov    %eax,%ecx
    a395:	8b 45 fc             	mov    -0x4(%rbp),%eax
    a398:	89 c2                	mov    %eax,%edx
    a39a:	48 8d 35 7d 22 00 00 	lea    0x227d(%rip),%rsi        # c61e <g_1875+0x5ae>
    a3a1:	48 89 cf             	mov    %rcx,%rdi
    a3a4:	e8 4a d3 ff ff       	callq  76f3 <transparent_crc>
    a3a9:	0f b6 05 6d 5d 00 00 	movzbl 0x5d6d(%rip),%eax        # 1011d <g_705+0xd>
    a3b0:	0f b6 c0             	movzbl %al,%eax
    a3b3:	8b 55 fc             	mov    -0x4(%rbp),%edx
    a3b6:	48 8d 35 6a 22 00 00 	lea    0x226a(%rip),%rsi        # c627 <g_1875+0x5b7>
    a3bd:	48 89 c7             	mov    %rax,%rdi
    a3c0:	e8 2e d3 ff ff       	callq  76f3 <transparent_crc>
    a3c5:	48 8b 05 52 5d 00 00 	mov    0x5d52(%rip),%rax        # 1011e <g_705+0xe>
    a3cc:	48 89 c1             	mov    %rax,%rcx
    a3cf:	8b 45 fc             	mov    -0x4(%rbp),%eax
    a3d2:	89 c2                	mov    %eax,%edx
    a3d4:	48 8d 35 55 22 00 00 	lea    0x2255(%rip),%rsi        # c630 <g_1875+0x5c0>
    a3db:	48 89 cf             	mov    %rcx,%rdi
    a3de:	e8 10 d3 ff ff       	callq  76f3 <transparent_crc>
    a3e3:	0f b7 05 3c 5d 00 00 	movzwl 0x5d3c(%rip),%eax        # 10126 <g_705+0x16>
    a3ea:	48 0f bf c0          	movswq %ax,%rax
    a3ee:	8b 55 fc             	mov    -0x4(%rbp),%edx
    a3f1:	48 8d 35 41 22 00 00 	lea    0x2241(%rip),%rsi        # c639 <g_1875+0x5c9>
    a3f8:	48 89 c7             	mov    %rax,%rdi
    a3fb:	e8 f3 d2 ff ff       	callq  76f3 <transparent_crc>
    a400:	c7 45 f4 00 00 00 00 	movl   $0x0,-0xc(%rbp)
    a407:	eb 73                	jmp    a47c <main+0x747>
    a409:	c7 45 f8 00 00 00 00 	movl   $0x0,-0x8(%rbp)
    a410:	eb 60                	jmp    a472 <main+0x73d>
    a412:	8b 45 f8             	mov    -0x8(%rbp),%eax
    a415:	48 63 c8             	movslq %eax,%rcx
    a418:	8b 45 f4             	mov    -0xc(%rbp),%eax
    a41b:	48 63 d0             	movslq %eax,%rdx
    a41e:	48 89 d0             	mov    %rdx,%rax
    a421:	48 c1 e0 02          	shl    $0x2,%rax
    a425:	48 01 d0             	add    %rdx,%rax
    a428:	48 01 c8             	add    %rcx,%rax
    a42b:	48 8d 14 00          	lea    (%rax,%rax,1),%rdx
    a42f:	48 8d 05 fa 5c 00 00 	lea    0x5cfa(%rip),%rax        # 10130 <g_739>
    a436:	0f b7 04 02          	movzwl (%rdx,%rax,1),%eax
    a43a:	0f b7 c0             	movzwl %ax,%eax
    a43d:	8b 55 fc             	mov    -0x4(%rbp),%edx
    a440:	48 8d 35 fb 21 00 00 	lea    0x21fb(%rip),%rsi        # c642 <g_1875+0x5d2>
    a447:	48 89 c7             	mov    %rax,%rdi
    a44a:	e8 a4 d2 ff ff       	callq  76f3 <transparent_crc>
    a44f:	83 7d fc 00          	cmpl   $0x0,-0x4(%rbp)
    a453:	74 19                	je     a46e <main+0x739>
    a455:	8b 55 f8             	mov    -0x8(%rbp),%edx
    a458:	8b 45 f4             	mov    -0xc(%rbp),%eax
    a45b:	89 c6                	mov    %eax,%esi
    a45d:	48 8d 3d ca 20 00 00 	lea    0x20ca(%rip),%rdi        # c52e <g_1875+0x4be>
    a464:	b8 00 00 00 00       	mov    $0x0,%eax
    a469:	e8 12 bc ff ff       	callq  6080 <printf@plt>
    a46e:	83 45 f8 01          	addl   $0x1,-0x8(%rbp)
    a472:	83 7d f8 04          	cmpl   $0x4,-0x8(%rbp)
    a476:	7e 9a                	jle    a412 <main+0x6dd>
    a478:	83 45 f4 01          	addl   $0x1,-0xc(%rbp)
    a47c:	83 7d f4 02          	cmpl   $0x2,-0xc(%rbp)
    a480:	7e 87                	jle    a409 <main+0x6d4>
    a482:	8b 05 b0 84 00 00    	mov    0x84b0(%rip),%eax        # 12938 <g_740>
    a488:	89 c1                	mov    %eax,%ecx
    a48a:	8b 45 fc             	mov    -0x4(%rbp),%eax
    a48d:	89 c2                	mov    %eax,%edx
    a48f:	48 8d 35 b8 21 00 00 	lea    0x21b8(%rip),%rsi        # c64e <g_1875+0x5de>
    a496:	48 89 cf             	mov    %rcx,%rdi
    a499:	e8 55 d2 ff ff       	callq  76f3 <transparent_crc>
    a49e:	b8 f3 c8 7f d1       	mov    $0xd17fc8f3,%eax
    a4a3:	48 98                	cltq   
    a4a5:	8b 55 fc             	mov    -0x4(%rbp),%edx
    a4a8:	48 8d 35 a5 21 00 00 	lea    0x21a5(%rip),%rsi        # c654 <g_1875+0x5e4>
    a4af:	48 89 c7             	mov    %rax,%rdi
    a4b2:	e8 3c d2 ff ff       	callq  76f3 <transparent_crc>
    a4b7:	c7 45 f4 00 00 00 00 	movl   $0x0,-0xc(%rbp)
    a4be:	e9 d4 02 00 00       	jmpq   a797 <main+0xa62>
    a4c3:	c7 45 f8 00 00 00 00 	movl   $0x0,-0x8(%rbp)
    a4ca:	e9 ba 02 00 00       	jmpq   a789 <main+0xa54>
    a4cf:	8b 45 f8             	mov    -0x8(%rbp),%eax
    a4d2:	48 98                	cltq   
    a4d4:	8b 55 f4             	mov    -0xc(%rbp),%edx
    a4d7:	48 63 ca             	movslq %edx,%rcx
    a4da:	48 89 c2             	mov    %rax,%rdx
    a4dd:	48 01 d2             	add    %rdx,%rdx
    a4e0:	48 01 c2             	add    %rax,%rdx
    a4e3:	48 8d 04 d5 00 00 00 	lea    0x0(,%rdx,8),%rax
    a4ea:	00 
    a4eb:	48 89 c2             	mov    %rax,%rdx
    a4ee:	48 89 c8             	mov    %rcx,%rax
    a4f1:	48 c1 e0 03          	shl    $0x3,%rax
    a4f5:	48 01 c8             	add    %rcx,%rax
    a4f8:	48 c1 e0 03          	shl    $0x3,%rax
    a4fc:	48 01 c2             	add    %rax,%rdx
    a4ff:	48 8d 05 5a 5c 00 00 	lea    0x5c5a(%rip),%rax        # 10160 <g_831>
    a506:	48 01 d0             	add    %rdx,%rax
    a509:	8b 00                	mov    (%rax),%eax
    a50b:	89 c1                	mov    %eax,%ecx
    a50d:	8b 45 fc             	mov    -0x4(%rbp),%eax
    a510:	89 c2                	mov    %eax,%edx
    a512:	48 8d 35 41 21 00 00 	lea    0x2141(%rip),%rsi        # c65a <g_1875+0x5ea>
    a519:	48 89 cf             	mov    %rcx,%rdi
    a51c:	e8 d2 d1 ff ff       	callq  76f3 <transparent_crc>
    a521:	8b 45 f8             	mov    -0x8(%rbp),%eax
    a524:	48 98                	cltq   
    a526:	8b 55 f4             	mov    -0xc(%rbp),%edx
    a529:	48 63 ca             	movslq %edx,%rcx
    a52c:	48 89 c2             	mov    %rax,%rdx
    a52f:	48 01 d2             	add    %rdx,%rdx
    a532:	48 01 c2             	add    %rax,%rdx
    a535:	48 8d 04 d5 00 00 00 	lea    0x0(,%rdx,8),%rax
    a53c:	00 
    a53d:	48 89 c2             	mov    %rax,%rdx
    a540:	48 89 c8             	mov    %rcx,%rax
    a543:	48 c1 e0 03          	shl    $0x3,%rax
    a547:	48 01 c8             	add    %rcx,%rax
    a54a:	48 c1 e0 03          	shl    $0x3,%rax
    a54e:	48 01 c2             	add    %rax,%rdx
    a551:	48 8d 05 0c 5c 00 00 	lea    0x5c0c(%rip),%rax        # 10164 <g_831+0x4>
    a558:	48 01 d0             	add    %rdx,%rax
    a55b:	0f b7 00             	movzwl (%rax),%eax
    a55e:	48 0f bf c0          	movswq %ax,%rax
    a562:	8b 55 fc             	mov    -0x4(%rbp),%edx
    a565:	48 8d 35 fd 20 00 00 	lea    0x20fd(%rip),%rsi        # c669 <g_1875+0x5f9>
    a56c:	48 89 c7             	mov    %rax,%rdi
    a56f:	e8 7f d1 ff ff       	callq  76f3 <transparent_crc>
    a574:	8b 45 f8             	mov    -0x8(%rbp),%eax
    a577:	48 98                	cltq   
    a579:	8b 55 f4             	mov    -0xc(%rbp),%edx
    a57c:	48 63 ca             	movslq %edx,%rcx
    a57f:	48 89 c2             	mov    %rax,%rdx
    a582:	48 01 d2             	add    %rdx,%rdx
    a585:	48 01 c2             	add    %rax,%rdx
    a588:	48 8d 04 d5 00 00 00 	lea    0x0(,%rdx,8),%rax
    a58f:	00 
    a590:	48 89 c2             	mov    %rax,%rdx
    a593:	48 89 c8             	mov    %rcx,%rax
    a596:	48 c1 e0 03          	shl    $0x3,%rax
    a59a:	48 01 c8             	add    %rcx,%rax
    a59d:	48 c1 e0 03          	shl    $0x3,%rax
    a5a1:	48 01 c2             	add    %rax,%rdx
    a5a4:	48 8d 05 bb 5b 00 00 	lea    0x5bbb(%rip),%rax        # 10166 <g_831+0x6>
    a5ab:	48 01 d0             	add    %rdx,%rax
    a5ae:	0f b7 00             	movzwl (%rax),%eax
    a5b1:	48 0f bf c0          	movswq %ax,%rax
    a5b5:	8b 55 fc             	mov    -0x4(%rbp),%edx
    a5b8:	48 8d 35 b9 20 00 00 	lea    0x20b9(%rip),%rsi        # c678 <g_1875+0x608>
    a5bf:	48 89 c7             	mov    %rax,%rdi
    a5c2:	e8 2c d1 ff ff       	callq  76f3 <transparent_crc>
    a5c7:	8b 45 f8             	mov    -0x8(%rbp),%eax
    a5ca:	48 98                	cltq   
    a5cc:	8b 55 f4             	mov    -0xc(%rbp),%edx
    a5cf:	48 63 ca             	movslq %edx,%rcx
    a5d2:	48 89 c2             	mov    %rax,%rdx
    a5d5:	48 01 d2             	add    %rdx,%rdx
    a5d8:	48 01 c2             	add    %rax,%rdx
    a5db:	48 8d 04 d5 00 00 00 	lea    0x0(,%rdx,8),%rax
    a5e2:	00 
    a5e3:	48 89 c2             	mov    %rax,%rdx
    a5e6:	48 89 c8             	mov    %rcx,%rax
    a5e9:	48 c1 e0 03          	shl    $0x3,%rax
    a5ed:	48 01 c8             	add    %rcx,%rax
    a5f0:	48 c1 e0 03          	shl    $0x3,%rax
    a5f4:	48 01 c2             	add    %rax,%rdx
    a5f7:	48 8d 05 6a 5b 00 00 	lea    0x5b6a(%rip),%rax        # 10168 <g_831+0x8>
    a5fe:	48 01 d0             	add    %rdx,%rax
    a601:	0f b6 00             	movzbl (%rax),%eax
    a604:	0f b6 c0             	movzbl %al,%eax
    a607:	8b 55 fc             	mov    -0x4(%rbp),%edx
    a60a:	48 8d 35 76 20 00 00 	lea    0x2076(%rip),%rsi        # c687 <g_1875+0x617>
    a611:	48 89 c7             	mov    %rax,%rdi
    a614:	e8 da d0 ff ff       	callq  76f3 <transparent_crc>
    a619:	8b 45 f8             	mov    -0x8(%rbp),%eax
    a61c:	48 98                	cltq   
    a61e:	8b 55 f4             	mov    -0xc(%rbp),%edx
    a621:	48 63 ca             	movslq %edx,%rcx
    a624:	48 89 c2             	mov    %rax,%rdx
    a627:	48 01 d2             	add    %rdx,%rdx
    a62a:	48 01 c2             	add    %rax,%rdx
    a62d:	48 8d 04 d5 00 00 00 	lea    0x0(,%rdx,8),%rax
    a634:	00 
    a635:	48 89 c2             	mov    %rax,%rdx
    a638:	48 89 c8             	mov    %rcx,%rax
    a63b:	48 c1 e0 03          	shl    $0x3,%rax
    a63f:	48 01 c8             	add    %rcx,%rax
    a642:	48 c1 e0 03          	shl    $0x3,%rax
    a646:	48 01 c2             	add    %rax,%rdx
    a649:	48 8d 05 10 5b 00 00 	lea    0x5b10(%rip),%rax        # 10160 <g_831>
    a650:	48 01 d0             	add    %rdx,%rax
    a653:	8b 40 09             	mov    0x9(%rax),%eax
    a656:	89 c1                	mov    %eax,%ecx
    a658:	8b 45 fc             	mov    -0x4(%rbp),%eax
    a65b:	89 c2                	mov    %eax,%edx
    a65d:	48 8d 35 32 20 00 00 	lea    0x2032(%rip),%rsi        # c696 <g_1875+0x626>
    a664:	48 89 cf             	mov    %rcx,%rdi
    a667:	e8 87 d0 ff ff       	callq  76f3 <transparent_crc>
    a66c:	8b 45 f8             	mov    -0x8(%rbp),%eax
    a66f:	48 98                	cltq   
    a671:	8b 55 f4             	mov    -0xc(%rbp),%edx
    a674:	48 63 ca             	movslq %edx,%rcx
    a677:	48 89 c2             	mov    %rax,%rdx
    a67a:	48 01 d2             	add    %rdx,%rdx
    a67d:	48 01 c2             	add    %rax,%rdx
    a680:	48 8d 04 d5 00 00 00 	lea    0x0(,%rdx,8),%rax
    a687:	00 
    a688:	48 89 c2             	mov    %rax,%rdx
    a68b:	48 89 c8             	mov    %rcx,%rax
    a68e:	48 c1 e0 03          	shl    $0x3,%rax
    a692:	48 01 c8             	add    %rcx,%rax
    a695:	48 c1 e0 03          	shl    $0x3,%rax
    a699:	48 01 c2             	add    %rax,%rdx
    a69c:	48 8d 05 ca 5a 00 00 	lea    0x5aca(%rip),%rax        # 1016d <g_831+0xd>
    a6a3:	48 01 d0             	add    %rdx,%rax
    a6a6:	0f b6 00             	movzbl (%rax),%eax
    a6a9:	0f b6 c0             	movzbl %al,%eax
    a6ac:	8b 55 fc             	mov    -0x4(%rbp),%edx
    a6af:	48 8d 35 ef 1f 00 00 	lea    0x1fef(%rip),%rsi        # c6a5 <g_1875+0x635>
    a6b6:	48 89 c7             	mov    %rax,%rdi
    a6b9:	e8 35 d0 ff ff       	callq  76f3 <transparent_crc>
    a6be:	8b 45 f8             	mov    -0x8(%rbp),%eax
    a6c1:	48 98                	cltq   
    a6c3:	8b 55 f4             	mov    -0xc(%rbp),%edx
    a6c6:	48 63 ca             	movslq %edx,%rcx
    a6c9:	48 89 c2             	mov    %rax,%rdx
    a6cc:	48 01 d2             	add    %rdx,%rdx
    a6cf:	48 01 c2             	add    %rax,%rdx
    a6d2:	48 8d 04 d5 00 00 00 	lea    0x0(,%rdx,8),%rax
    a6d9:	00 
    a6da:	48 89 c2             	mov    %rax,%rdx
    a6dd:	48 89 c8             	mov    %rcx,%rax
    a6e0:	48 c1 e0 03          	shl    $0x3,%rax
    a6e4:	48 01 c8             	add    %rcx,%rax
    a6e7:	48 c1 e0 03          	shl    $0x3,%rax
    a6eb:	48 01 c2             	add    %rax,%rdx
    a6ee:	48 8d 05 6b 5a 00 00 	lea    0x5a6b(%rip),%rax        # 10160 <g_831>
    a6f5:	48 01 d0             	add    %rdx,%rax
    a6f8:	48 8b 40 0e          	mov    0xe(%rax),%rax
    a6fc:	48 89 c1             	mov    %rax,%rcx
    a6ff:	8b 45 fc             	mov    -0x4(%rbp),%eax
    a702:	89 c2                	mov    %eax,%edx
    a704:	48 8d 35 a9 1f 00 00 	lea    0x1fa9(%rip),%rsi        # c6b4 <g_1875+0x644>
    a70b:	48 89 cf             	mov    %rcx,%rdi
    a70e:	e8 e0 cf ff ff       	callq  76f3 <transparent_crc>
    a713:	8b 45 f8             	mov    -0x8(%rbp),%eax
    a716:	48 98                	cltq   
    a718:	8b 55 f4             	mov    -0xc(%rbp),%edx
    a71b:	48 63 ca             	movslq %edx,%rcx
    a71e:	48 89 c2             	mov    %rax,%rdx
    a721:	48 01 d2             	add    %rdx,%rdx
    a724:	48 01 c2             	add    %rax,%rdx
    a727:	48 8d 04 d5 00 00 00 	lea    0x0(,%rdx,8),%rax
    a72e:	00 
    a72f:	48 89 c2             	mov    %rax,%rdx
    a732:	48 89 c8             	mov    %rcx,%rax
    a735:	48 c1 e0 03          	shl    $0x3,%rax
    a739:	48 01 c8             	add    %rcx,%rax
    a73c:	48 c1 e0 03          	shl    $0x3,%rax
    a740:	48 01 c2             	add    %rax,%rdx
    a743:	48 8d 05 2c 5a 00 00 	lea    0x5a2c(%rip),%rax        # 10176 <g_831+0x16>
    a74a:	48 01 d0             	add    %rdx,%rax
    a74d:	0f b7 00             	movzwl (%rax),%eax
    a750:	48 0f bf c0          	movswq %ax,%rax
    a754:	8b 55 fc             	mov    -0x4(%rbp),%edx
    a757:	48 8d 35 65 1f 00 00 	lea    0x1f65(%rip),%rsi        # c6c3 <g_1875+0x653>
    a75e:	48 89 c7             	mov    %rax,%rdi
    a761:	e8 8d cf ff ff       	callq  76f3 <transparent_crc>
    a766:	83 7d fc 00          	cmpl   $0x0,-0x4(%rbp)
    a76a:	74 19                	je     a785 <main+0xa50>
    a76c:	8b 55 f8             	mov    -0x8(%rbp),%edx
    a76f:	8b 45 f4             	mov    -0xc(%rbp),%eax
    a772:	89 c6                	mov    %eax,%esi
    a774:	48 8d 3d b3 1d 00 00 	lea    0x1db3(%rip),%rdi        # c52e <g_1875+0x4be>
    a77b:	b8 00 00 00 00       	mov    $0x0,%eax
    a780:	e8 fb b8 ff ff       	callq  6080 <printf@plt>
    a785:	83 45 f8 01          	addl   $0x1,-0x8(%rbp)
    a789:	83 7d f8 02          	cmpl   $0x2,-0x8(%rbp)
    a78d:	0f 8e 3c fd ff ff    	jle    a4cf <main+0x79a>
    a793:	83 45 f4 01          	addl   $0x1,-0xc(%rbp)
    a797:	83 7d f4 05          	cmpl   $0x5,-0xc(%rbp)
    a79b:	0f 8e 22 fd ff ff    	jle    a4c3 <main+0x78e>
    a7a1:	0f b7 05 68 5b 00 00 	movzwl 0x5b68(%rip),%eax        # 10310 <g_878>
    a7a8:	0f b7 c0             	movzwl %ax,%eax
    a7ab:	8b 55 fc             	mov    -0x4(%rbp),%edx
    a7ae:	48 8d 35 1d 1f 00 00 	lea    0x1f1d(%rip),%rsi        # c6d2 <g_1875+0x662>
    a7b5:	48 89 c7             	mov    %rax,%rdi
    a7b8:	e8 36 cf ff ff       	callq  76f3 <transparent_crc>
    a7bd:	8b 05 5d 5b 00 00    	mov    0x5b5d(%rip),%eax        # 10320 <g_888>
    a7c3:	89 c1                	mov    %eax,%ecx
    a7c5:	8b 45 fc             	mov    -0x4(%rbp),%eax
    a7c8:	89 c2                	mov    %eax,%edx
    a7ca:	48 8d 35 07 1f 00 00 	lea    0x1f07(%rip),%rsi        # c6d8 <g_1875+0x668>
    a7d1:	48 89 cf             	mov    %rcx,%rdi
    a7d4:	e8 1a cf ff ff       	callq  76f3 <transparent_crc>
    a7d9:	0f b7 05 44 5b 00 00 	movzwl 0x5b44(%rip),%eax        # 10324 <g_888+0x4>
    a7e0:	48 0f bf c0          	movswq %ax,%rax
    a7e4:	8b 55 fc             	mov    -0x4(%rbp),%edx
    a7e7:	48 8d 35 f3 1e 00 00 	lea    0x1ef3(%rip),%rsi        # c6e1 <g_1875+0x671>
    a7ee:	48 89 c7             	mov    %rax,%rdi
    a7f1:	e8 fd ce ff ff       	callq  76f3 <transparent_crc>
    a7f6:	0f b7 05 29 5b 00 00 	movzwl 0x5b29(%rip),%eax        # 10326 <g_888+0x6>
    a7fd:	48 0f bf c0          	movswq %ax,%rax
    a801:	8b 55 fc             	mov    -0x4(%rbp),%edx
    a804:	48 8d 35 df 1e 00 00 	lea    0x1edf(%rip),%rsi        # c6ea <g_1875+0x67a>
    a80b:	48 89 c7             	mov    %rax,%rdi
    a80e:	e8 e0 ce ff ff       	callq  76f3 <transparent_crc>
    a813:	0f b6 05 0e 5b 00 00 	movzbl 0x5b0e(%rip),%eax        # 10328 <g_888+0x8>
    a81a:	0f b6 c0             	movzbl %al,%eax
    a81d:	8b 55 fc             	mov    -0x4(%rbp),%edx
    a820:	48 8d 35 cc 1e 00 00 	lea    0x1ecc(%rip),%rsi        # c6f3 <g_1875+0x683>
    a827:	48 89 c7             	mov    %rax,%rdi
    a82a:	e8 c4 ce ff ff       	callq  76f3 <transparent_crc>
    a82f:	8b 05 f4 5a 00 00    	mov    0x5af4(%rip),%eax        # 10329 <g_888+0x9>
    a835:	89 c1                	mov    %eax,%ecx
    a837:	8b 45 fc             	mov    -0x4(%rbp),%eax
    a83a:	89 c2                	mov    %eax,%edx
    a83c:	48 8d 35 b9 1e 00 00 	lea    0x1eb9(%rip),%rsi        # c6fc <g_1875+0x68c>
    a843:	48 89 cf             	mov    %rcx,%rdi
    a846:	e8 a8 ce ff ff       	callq  76f3 <transparent_crc>
    a84b:	0f b6 05 db 5a 00 00 	movzbl 0x5adb(%rip),%eax        # 1032d <g_888+0xd>
    a852:	0f b6 c0             	movzbl %al,%eax
    a855:	8b 55 fc             	mov    -0x4(%rbp),%edx
    a858:	48 8d 35 a6 1e 00 00 	lea    0x1ea6(%rip),%rsi        # c705 <g_1875+0x695>
    a85f:	48 89 c7             	mov    %rax,%rdi
    a862:	e8 8c ce ff ff       	callq  76f3 <transparent_crc>
    a867:	48 8b 05 c0 5a 00 00 	mov    0x5ac0(%rip),%rax        # 1032e <g_888+0xe>
    a86e:	48 89 c1             	mov    %rax,%rcx
    a871:	8b 45 fc             	mov    -0x4(%rbp),%eax
    a874:	89 c2                	mov    %eax,%edx
    a876:	48 8d 35 91 1e 00 00 	lea    0x1e91(%rip),%rsi        # c70e <g_1875+0x69e>
    a87d:	48 89 cf             	mov    %rcx,%rdi
    a880:	e8 6e ce ff ff       	callq  76f3 <transparent_crc>
    a885:	0f b7 05 aa 5a 00 00 	movzwl 0x5aaa(%rip),%eax        # 10336 <g_888+0x16>
    a88c:	48 0f bf c0          	movswq %ax,%rax
    a890:	8b 55 fc             	mov    -0x4(%rbp),%edx
    a893:	48 8d 35 7d 1e 00 00 	lea    0x1e7d(%rip),%rsi        # c717 <g_1875+0x6a7>
    a89a:	48 89 c7             	mov    %rax,%rdi
    a89d:	e8 51 ce ff ff       	callq  76f3 <transparent_crc>
    a8a2:	8b 05 98 5a 00 00    	mov    0x5a98(%rip),%eax        # 10340 <g_908>
    a8a8:	89 c1                	mov    %eax,%ecx
    a8aa:	8b 45 fc             	mov    -0x4(%rbp),%eax
    a8ad:	89 c2                	mov    %eax,%edx
    a8af:	48 8d 35 6a 1e 00 00 	lea    0x1e6a(%rip),%rsi        # c720 <g_1875+0x6b0>
    a8b6:	48 89 cf             	mov    %rcx,%rdi
    a8b9:	e8 35 ce ff ff       	callq  76f3 <transparent_crc>
    a8be:	0f b7 05 7f 5a 00 00 	movzwl 0x5a7f(%rip),%eax        # 10344 <g_908+0x4>
    a8c5:	48 0f bf c0          	movswq %ax,%rax
    a8c9:	8b 55 fc             	mov    -0x4(%rbp),%edx
    a8cc:	48 8d 35 56 1e 00 00 	lea    0x1e56(%rip),%rsi        # c729 <g_1875+0x6b9>
    a8d3:	48 89 c7             	mov    %rax,%rdi
    a8d6:	e8 18 ce ff ff       	callq  76f3 <transparent_crc>
    a8db:	0f b7 05 64 5a 00 00 	movzwl 0x5a64(%rip),%eax        # 10346 <g_908+0x6>
    a8e2:	48 0f bf c0          	movswq %ax,%rax
    a8e6:	8b 55 fc             	mov    -0x4(%rbp),%edx
    a8e9:	48 8d 35 42 1e 00 00 	lea    0x1e42(%rip),%rsi        # c732 <g_1875+0x6c2>
    a8f0:	48 89 c7             	mov    %rax,%rdi
    a8f3:	e8 fb cd ff ff       	callq  76f3 <transparent_crc>
    a8f8:	0f b6 05 49 5a 00 00 	movzbl 0x5a49(%rip),%eax        # 10348 <g_908+0x8>
    a8ff:	0f b6 c0             	movzbl %al,%eax
    a902:	8b 55 fc             	mov    -0x4(%rbp),%edx
    a905:	48 8d 35 2f 1e 00 00 	lea    0x1e2f(%rip),%rsi        # c73b <g_1875+0x6cb>
    a90c:	48 89 c7             	mov    %rax,%rdi
    a90f:	e8 df cd ff ff       	callq  76f3 <transparent_crc>
    a914:	8b 05 2f 5a 00 00    	mov    0x5a2f(%rip),%eax        # 10349 <g_908+0x9>
    a91a:	89 c1                	mov    %eax,%ecx
    a91c:	8b 45 fc             	mov    -0x4(%rbp),%eax
    a91f:	89 c2                	mov    %eax,%edx
    a921:	48 8d 35 1c 1e 00 00 	lea    0x1e1c(%rip),%rsi        # c744 <g_1875+0x6d4>
    a928:	48 89 cf             	mov    %rcx,%rdi
    a92b:	e8 c3 cd ff ff       	callq  76f3 <transparent_crc>
    a930:	0f b6 05 16 5a 00 00 	movzbl 0x5a16(%rip),%eax        # 1034d <g_908+0xd>
    a937:	0f b6 c0             	movzbl %al,%eax
    a93a:	8b 55 fc             	mov    -0x4(%rbp),%edx
    a93d:	48 8d 35 09 1e 00 00 	lea    0x1e09(%rip),%rsi        # c74d <g_1875+0x6dd>
    a944:	48 89 c7             	mov    %rax,%rdi
    a947:	e8 a7 cd ff ff       	callq  76f3 <transparent_crc>
    a94c:	48 8b 05 fb 59 00 00 	mov    0x59fb(%rip),%rax        # 1034e <g_908+0xe>
    a953:	48 89 c1             	mov    %rax,%rcx
    a956:	8b 45 fc             	mov    -0x4(%rbp),%eax
    a959:	89 c2                	mov    %eax,%edx
    a95b:	48 8d 35 f4 1d 00 00 	lea    0x1df4(%rip),%rsi        # c756 <g_1875+0x6e6>
    a962:	48 89 cf             	mov    %rcx,%rdi
    a965:	e8 89 cd ff ff       	callq  76f3 <transparent_crc>
    a96a:	0f b7 05 e5 59 00 00 	movzwl 0x59e5(%rip),%eax        # 10356 <g_908+0x16>
    a971:	48 0f bf c0          	movswq %ax,%rax
    a975:	8b 55 fc             	mov    -0x4(%rbp),%edx
    a978:	48 8d 35 e0 1d 00 00 	lea    0x1de0(%rip),%rsi        # c75f <g_1875+0x6ef>
    a97f:	48 89 c7             	mov    %rax,%rdi
    a982:	e8 6c cd ff ff       	callq  76f3 <transparent_crc>
    a987:	8b 05 d3 59 00 00    	mov    0x59d3(%rip),%eax        # 10360 <g_1011>
    a98d:	89 c1                	mov    %eax,%ecx
    a98f:	8b 45 fc             	mov    -0x4(%rbp),%eax
    a992:	89 c2                	mov    %eax,%edx
    a994:	48 8d 35 cd 1d 00 00 	lea    0x1dcd(%rip),%rsi        # c768 <g_1875+0x6f8>
    a99b:	48 89 cf             	mov    %rcx,%rdi
    a99e:	e8 50 cd ff ff       	callq  76f3 <transparent_crc>
    a9a3:	0f b7 05 ba 59 00 00 	movzwl 0x59ba(%rip),%eax        # 10364 <g_1011+0x4>
    a9aa:	48 0f bf c0          	movswq %ax,%rax
    a9ae:	8b 55 fc             	mov    -0x4(%rbp),%edx
    a9b1:	48 8d 35 ba 1d 00 00 	lea    0x1dba(%rip),%rsi        # c772 <g_1875+0x702>
    a9b8:	48 89 c7             	mov    %rax,%rdi
    a9bb:	e8 33 cd ff ff       	callq  76f3 <transparent_crc>
    a9c0:	0f b7 05 9f 59 00 00 	movzwl 0x599f(%rip),%eax        # 10366 <g_1011+0x6>
    a9c7:	48 0f bf c0          	movswq %ax,%rax
    a9cb:	8b 55 fc             	mov    -0x4(%rbp),%edx
    a9ce:	48 8d 35 a7 1d 00 00 	lea    0x1da7(%rip),%rsi        # c77c <g_1875+0x70c>
    a9d5:	48 89 c7             	mov    %rax,%rdi
    a9d8:	e8 16 cd ff ff       	callq  76f3 <transparent_crc>
    a9dd:	0f b6 05 84 59 00 00 	movzbl 0x5984(%rip),%eax        # 10368 <g_1011+0x8>
    a9e4:	0f b6 c0             	movzbl %al,%eax
    a9e7:	8b 55 fc             	mov    -0x4(%rbp),%edx
    a9ea:	48 8d 35 95 1d 00 00 	lea    0x1d95(%rip),%rsi        # c786 <g_1875+0x716>
    a9f1:	48 89 c7             	mov    %rax,%rdi
    a9f4:	e8 fa cc ff ff       	callq  76f3 <transparent_crc>
    a9f9:	8b 05 6a 59 00 00    	mov    0x596a(%rip),%eax        # 10369 <g_1011+0x9>
    a9ff:	89 c1                	mov    %eax,%ecx
    aa01:	8b 45 fc             	mov    -0x4(%rbp),%eax
    aa04:	89 c2                	mov    %eax,%edx
    aa06:	48 8d 35 83 1d 00 00 	lea    0x1d83(%rip),%rsi        # c790 <g_1875+0x720>
    aa0d:	48 89 cf             	mov    %rcx,%rdi
    aa10:	e8 de cc ff ff       	callq  76f3 <transparent_crc>
    aa15:	0f b6 05 51 59 00 00 	movzbl 0x5951(%rip),%eax        # 1036d <g_1011+0xd>
    aa1c:	0f b6 c0             	movzbl %al,%eax
    aa1f:	8b 55 fc             	mov    -0x4(%rbp),%edx
    aa22:	48 8d 35 71 1d 00 00 	lea    0x1d71(%rip),%rsi        # c79a <g_1875+0x72a>
    aa29:	48 89 c7             	mov    %rax,%rdi
    aa2c:	e8 c2 cc ff ff       	callq  76f3 <transparent_crc>
    aa31:	48 8b 05 36 59 00 00 	mov    0x5936(%rip),%rax        # 1036e <g_1011+0xe>
    aa38:	48 89 c1             	mov    %rax,%rcx
    aa3b:	8b 45 fc             	mov    -0x4(%rbp),%eax
    aa3e:	89 c2                	mov    %eax,%edx
    aa40:	48 8d 35 5d 1d 00 00 	lea    0x1d5d(%rip),%rsi        # c7a4 <g_1875+0x734>
    aa47:	48 89 cf             	mov    %rcx,%rdi
    aa4a:	e8 a4 cc ff ff       	callq  76f3 <transparent_crc>
    aa4f:	0f b7 05 20 59 00 00 	movzwl 0x5920(%rip),%eax        # 10376 <g_1011+0x16>
    aa56:	48 0f bf c0          	movswq %ax,%rax
    aa5a:	8b 55 fc             	mov    -0x4(%rbp),%edx
    aa5d:	48 8d 35 4a 1d 00 00 	lea    0x1d4a(%rip),%rsi        # c7ae <g_1875+0x73e>
    aa64:	48 89 c7             	mov    %rax,%rdi
    aa67:	e8 87 cc ff ff       	callq  76f3 <transparent_crc>
    aa6c:	8b 05 0e 59 00 00    	mov    0x590e(%rip),%eax        # 10380 <g_1019>
    aa72:	89 c1                	mov    %eax,%ecx
    aa74:	8b 45 fc             	mov    -0x4(%rbp),%eax
    aa77:	89 c2                	mov    %eax,%edx
    aa79:	48 8d 35 38 1d 00 00 	lea    0x1d38(%rip),%rsi        # c7b8 <g_1875+0x748>
    aa80:	48 89 cf             	mov    %rcx,%rdi
    aa83:	e8 6b cc ff ff       	callq  76f3 <transparent_crc>
    aa88:	0f b7 05 f5 58 00 00 	movzwl 0x58f5(%rip),%eax        # 10384 <g_1019+0x4>
    aa8f:	48 0f bf c0          	movswq %ax,%rax
    aa93:	8b 55 fc             	mov    -0x4(%rbp),%edx
    aa96:	48 8d 35 25 1d 00 00 	lea    0x1d25(%rip),%rsi        # c7c2 <g_1875+0x752>
    aa9d:	48 89 c7             	mov    %rax,%rdi
    aaa0:	e8 4e cc ff ff       	callq  76f3 <transparent_crc>
    aaa5:	0f b7 05 da 58 00 00 	movzwl 0x58da(%rip),%eax        # 10386 <g_1019+0x6>
    aaac:	48 0f bf c0          	movswq %ax,%rax
    aab0:	8b 55 fc             	mov    -0x4(%rbp),%edx
    aab3:	48 8d 35 12 1d 00 00 	lea    0x1d12(%rip),%rsi        # c7cc <g_1875+0x75c>
    aaba:	48 89 c7             	mov    %rax,%rdi
    aabd:	e8 31 cc ff ff       	callq  76f3 <transparent_crc>
    aac2:	0f b6 05 bf 58 00 00 	movzbl 0x58bf(%rip),%eax        # 10388 <g_1019+0x8>
    aac9:	0f b6 c0             	movzbl %al,%eax
    aacc:	8b 55 fc             	mov    -0x4(%rbp),%edx
    aacf:	48 8d 35 00 1d 00 00 	lea    0x1d00(%rip),%rsi        # c7d6 <g_1875+0x766>
    aad6:	48 89 c7             	mov    %rax,%rdi
    aad9:	e8 15 cc ff ff       	callq  76f3 <transparent_crc>
    aade:	8b 05 a5 58 00 00    	mov    0x58a5(%rip),%eax        # 10389 <g_1019+0x9>
    aae4:	89 c1                	mov    %eax,%ecx
    aae6:	8b 45 fc             	mov    -0x4(%rbp),%eax
    aae9:	89 c2                	mov    %eax,%edx
    aaeb:	48 8d 35 ee 1c 00 00 	lea    0x1cee(%rip),%rsi        # c7e0 <g_1875+0x770>
    aaf2:	48 89 cf             	mov    %rcx,%rdi
    aaf5:	e8 f9 cb ff ff       	callq  76f3 <transparent_crc>
    aafa:	0f b6 05 8c 58 00 00 	movzbl 0x588c(%rip),%eax        # 1038d <g_1019+0xd>
    ab01:	0f b6 c0             	movzbl %al,%eax
    ab04:	8b 55 fc             	mov    -0x4(%rbp),%edx
    ab07:	48 8d 35 dc 1c 00 00 	lea    0x1cdc(%rip),%rsi        # c7ea <g_1875+0x77a>
    ab0e:	48 89 c7             	mov    %rax,%rdi
    ab11:	e8 dd cb ff ff       	callq  76f3 <transparent_crc>
    ab16:	48 8b 05 71 58 00 00 	mov    0x5871(%rip),%rax        # 1038e <g_1019+0xe>
    ab1d:	48 89 c1             	mov    %rax,%rcx
    ab20:	8b 45 fc             	mov    -0x4(%rbp),%eax
    ab23:	89 c2                	mov    %eax,%edx
    ab25:	48 8d 35 c8 1c 00 00 	lea    0x1cc8(%rip),%rsi        # c7f4 <g_1875+0x784>
    ab2c:	48 89 cf             	mov    %rcx,%rdi
    ab2f:	e8 bf cb ff ff       	callq  76f3 <transparent_crc>
    ab34:	0f b7 05 5b 58 00 00 	movzwl 0x585b(%rip),%eax        # 10396 <g_1019+0x16>
    ab3b:	48 0f bf c0          	movswq %ax,%rax
    ab3f:	8b 55 fc             	mov    -0x4(%rbp),%edx
    ab42:	48 8d 35 b5 1c 00 00 	lea    0x1cb5(%rip),%rsi        # c7fe <g_1875+0x78e>
    ab49:	48 89 c7             	mov    %rax,%rdi
    ab4c:	e8 a2 cb ff ff       	callq  76f3 <transparent_crc>
    ab51:	8b 05 49 58 00 00    	mov    0x5849(%rip),%eax        # 103a0 <g_1036>
    ab57:	89 c1                	mov    %eax,%ecx
    ab59:	8b 45 fc             	mov    -0x4(%rbp),%eax
    ab5c:	89 c2                	mov    %eax,%edx
    ab5e:	48 8d 35 a3 1c 00 00 	lea    0x1ca3(%rip),%rsi        # c808 <g_1875+0x798>
    ab65:	48 89 cf             	mov    %rcx,%rdi
    ab68:	e8 86 cb ff ff       	callq  76f3 <transparent_crc>
    ab6d:	0f b7 05 30 58 00 00 	movzwl 0x5830(%rip),%eax        # 103a4 <g_1036+0x4>
    ab74:	48 0f bf c0          	movswq %ax,%rax
    ab78:	8b 55 fc             	mov    -0x4(%rbp),%edx
    ab7b:	48 8d 35 90 1c 00 00 	lea    0x1c90(%rip),%rsi        # c812 <g_1875+0x7a2>
    ab82:	48 89 c7             	mov    %rax,%rdi
    ab85:	e8 69 cb ff ff       	callq  76f3 <transparent_crc>
    ab8a:	0f b7 05 15 58 00 00 	movzwl 0x5815(%rip),%eax        # 103a6 <g_1036+0x6>
    ab91:	48 0f bf c0          	movswq %ax,%rax
    ab95:	8b 55 fc             	mov    -0x4(%rbp),%edx
    ab98:	48 8d 35 7d 1c 00 00 	lea    0x1c7d(%rip),%rsi        # c81c <g_1875+0x7ac>
    ab9f:	48 89 c7             	mov    %rax,%rdi
    aba2:	e8 4c cb ff ff       	callq  76f3 <transparent_crc>
    aba7:	0f b6 05 fa 57 00 00 	movzbl 0x57fa(%rip),%eax        # 103a8 <g_1036+0x8>
    abae:	0f b6 c0             	movzbl %al,%eax
    abb1:	8b 55 fc             	mov    -0x4(%rbp),%edx
    abb4:	48 8d 35 6b 1c 00 00 	lea    0x1c6b(%rip),%rsi        # c826 <g_1875+0x7b6>
    abbb:	48 89 c7             	mov    %rax,%rdi
    abbe:	e8 30 cb ff ff       	callq  76f3 <transparent_crc>
    abc3:	8b 05 e0 57 00 00    	mov    0x57e0(%rip),%eax        # 103a9 <g_1036+0x9>
    abc9:	89 c1                	mov    %eax,%ecx
    abcb:	8b 45 fc             	mov    -0x4(%rbp),%eax
    abce:	89 c2                	mov    %eax,%edx
    abd0:	48 8d 35 59 1c 00 00 	lea    0x1c59(%rip),%rsi        # c830 <g_1875+0x7c0>
    abd7:	48 89 cf             	mov    %rcx,%rdi
    abda:	e8 14 cb ff ff       	callq  76f3 <transparent_crc>
    abdf:	0f b6 05 c7 57 00 00 	movzbl 0x57c7(%rip),%eax        # 103ad <g_1036+0xd>
    abe6:	0f b6 c0             	movzbl %al,%eax
    abe9:	8b 55 fc             	mov    -0x4(%rbp),%edx
    abec:	48 8d 35 47 1c 00 00 	lea    0x1c47(%rip),%rsi        # c83a <g_1875+0x7ca>
    abf3:	48 89 c7             	mov    %rax,%rdi
    abf6:	e8 f8 ca ff ff       	callq  76f3 <transparent_crc>
    abfb:	48 8b 05 ac 57 00 00 	mov    0x57ac(%rip),%rax        # 103ae <g_1036+0xe>
    ac02:	48 89 c1             	mov    %rax,%rcx
    ac05:	8b 45 fc             	mov    -0x4(%rbp),%eax
    ac08:	89 c2                	mov    %eax,%edx
    ac0a:	48 8d 35 33 1c 00 00 	lea    0x1c33(%rip),%rsi        # c844 <g_1875+0x7d4>
    ac11:	48 89 cf             	mov    %rcx,%rdi
    ac14:	e8 da ca ff ff       	callq  76f3 <transparent_crc>
    ac19:	0f b7 05 96 57 00 00 	movzwl 0x5796(%rip),%eax        # 103b6 <g_1036+0x16>
    ac20:	48 0f bf c0          	movswq %ax,%rax
    ac24:	8b 55 fc             	mov    -0x4(%rbp),%edx
    ac27:	48 8d 35 20 1c 00 00 	lea    0x1c20(%rip),%rsi        # c84e <g_1875+0x7de>
    ac2e:	48 89 c7             	mov    %rax,%rdi
    ac31:	e8 bd ca ff ff       	callq  76f3 <transparent_crc>
    ac36:	8b 05 84 57 00 00    	mov    0x5784(%rip),%eax        # 103c0 <g_1103>
    ac3c:	89 c1                	mov    %eax,%ecx
    ac3e:	8b 45 fc             	mov    -0x4(%rbp),%eax
    ac41:	89 c2                	mov    %eax,%edx
    ac43:	48 8d 35 0e 1c 00 00 	lea    0x1c0e(%rip),%rsi        # c858 <g_1875+0x7e8>
    ac4a:	48 89 cf             	mov    %rcx,%rdi
    ac4d:	e8 a1 ca ff ff       	callq  76f3 <transparent_crc>
    ac52:	0f b7 05 6b 57 00 00 	movzwl 0x576b(%rip),%eax        # 103c4 <g_1103+0x4>
    ac59:	48 0f bf c0          	movswq %ax,%rax
    ac5d:	8b 55 fc             	mov    -0x4(%rbp),%edx
    ac60:	48 8d 35 fb 1b 00 00 	lea    0x1bfb(%rip),%rsi        # c862 <g_1875+0x7f2>
    ac67:	48 89 c7             	mov    %rax,%rdi
    ac6a:	e8 84 ca ff ff       	callq  76f3 <transparent_crc>
    ac6f:	0f b7 05 50 57 00 00 	movzwl 0x5750(%rip),%eax        # 103c6 <g_1103+0x6>
    ac76:	48 0f bf c0          	movswq %ax,%rax
    ac7a:	8b 55 fc             	mov    -0x4(%rbp),%edx
    ac7d:	48 8d 35 e8 1b 00 00 	lea    0x1be8(%rip),%rsi        # c86c <g_1875+0x7fc>
    ac84:	48 89 c7             	mov    %rax,%rdi
    ac87:	e8 67 ca ff ff       	callq  76f3 <transparent_crc>
    ac8c:	0f b6 05 35 57 00 00 	movzbl 0x5735(%rip),%eax        # 103c8 <g_1103+0x8>
    ac93:	0f b6 c0             	movzbl %al,%eax
    ac96:	8b 55 fc             	mov    -0x4(%rbp),%edx
    ac99:	48 8d 35 d6 1b 00 00 	lea    0x1bd6(%rip),%rsi        # c876 <g_1875+0x806>
    aca0:	48 89 c7             	mov    %rax,%rdi
    aca3:	e8 4b ca ff ff       	callq  76f3 <transparent_crc>
    aca8:	8b 05 1b 57 00 00    	mov    0x571b(%rip),%eax        # 103c9 <g_1103+0x9>
    acae:	89 c1                	mov    %eax,%ecx
    acb0:	8b 45 fc             	mov    -0x4(%rbp),%eax
    acb3:	89 c2                	mov    %eax,%edx
    acb5:	48 8d 35 c4 1b 00 00 	lea    0x1bc4(%rip),%rsi        # c880 <g_1875+0x810>
    acbc:	48 89 cf             	mov    %rcx,%rdi
    acbf:	e8 2f ca ff ff       	callq  76f3 <transparent_crc>
    acc4:	0f b6 05 02 57 00 00 	movzbl 0x5702(%rip),%eax        # 103cd <g_1103+0xd>
    accb:	0f b6 c0             	movzbl %al,%eax
    acce:	8b 55 fc             	mov    -0x4(%rbp),%edx
    acd1:	48 8d 35 b2 1b 00 00 	lea    0x1bb2(%rip),%rsi        # c88a <g_1875+0x81a>
    acd8:	48 89 c7             	mov    %rax,%rdi
    acdb:	e8 13 ca ff ff       	callq  76f3 <transparent_crc>
    ace0:	48 8b 05 e7 56 00 00 	mov    0x56e7(%rip),%rax        # 103ce <g_1103+0xe>
    ace7:	48 89 c1             	mov    %rax,%rcx
    acea:	8b 45 fc             	mov    -0x4(%rbp),%eax
    aced:	89 c2                	mov    %eax,%edx
    acef:	48 8d 35 9e 1b 00 00 	lea    0x1b9e(%rip),%rsi        # c894 <g_1875+0x824>
    acf6:	48 89 cf             	mov    %rcx,%rdi
    acf9:	e8 f5 c9 ff ff       	callq  76f3 <transparent_crc>
    acfe:	0f b7 05 d1 56 00 00 	movzwl 0x56d1(%rip),%eax        # 103d6 <g_1103+0x16>
    ad05:	48 0f bf c0          	movswq %ax,%rax
    ad09:	8b 55 fc             	mov    -0x4(%rbp),%edx
    ad0c:	48 8d 35 8b 1b 00 00 	lea    0x1b8b(%rip),%rsi        # c89e <g_1875+0x82e>
    ad13:	48 89 c7             	mov    %rax,%rdi
    ad16:	e8 d8 c9 ff ff       	callq  76f3 <transparent_crc>
    ad1b:	8b 05 bf 56 00 00    	mov    0x56bf(%rip),%eax        # 103e0 <g_1115>
    ad21:	89 c1                	mov    %eax,%ecx
    ad23:	8b 45 fc             	mov    -0x4(%rbp),%eax
    ad26:	89 c2                	mov    %eax,%edx
    ad28:	48 8d 35 79 1b 00 00 	lea    0x1b79(%rip),%rsi        # c8a8 <g_1875+0x838>
    ad2f:	48 89 cf             	mov    %rcx,%rdi
    ad32:	e8 bc c9 ff ff       	callq  76f3 <transparent_crc>
    ad37:	0f b7 05 a6 56 00 00 	movzwl 0x56a6(%rip),%eax        # 103e4 <g_1115+0x4>
    ad3e:	48 0f bf c0          	movswq %ax,%rax
    ad42:	8b 55 fc             	mov    -0x4(%rbp),%edx
    ad45:	48 8d 35 66 1b 00 00 	lea    0x1b66(%rip),%rsi        # c8b2 <g_1875+0x842>
    ad4c:	48 89 c7             	mov    %rax,%rdi
    ad4f:	e8 9f c9 ff ff       	callq  76f3 <transparent_crc>
    ad54:	0f b7 05 8b 56 00 00 	movzwl 0x568b(%rip),%eax        # 103e6 <g_1115+0x6>
    ad5b:	48 0f bf c0          	movswq %ax,%rax
    ad5f:	8b 55 fc             	mov    -0x4(%rbp),%edx
    ad62:	48 8d 35 53 1b 00 00 	lea    0x1b53(%rip),%rsi        # c8bc <g_1875+0x84c>
    ad69:	48 89 c7             	mov    %rax,%rdi
    ad6c:	e8 82 c9 ff ff       	callq  76f3 <transparent_crc>
    ad71:	0f b6 05 70 56 00 00 	movzbl 0x5670(%rip),%eax        # 103e8 <g_1115+0x8>
    ad78:	0f b6 c0             	movzbl %al,%eax
    ad7b:	8b 55 fc             	mov    -0x4(%rbp),%edx
    ad7e:	48 8d 35 41 1b 00 00 	lea    0x1b41(%rip),%rsi        # c8c6 <g_1875+0x856>
    ad85:	48 89 c7             	mov    %rax,%rdi
    ad88:	e8 66 c9 ff ff       	callq  76f3 <transparent_crc>
    ad8d:	8b 05 56 56 00 00    	mov    0x5656(%rip),%eax        # 103e9 <g_1115+0x9>
    ad93:	89 c1                	mov    %eax,%ecx
    ad95:	8b 45 fc             	mov    -0x4(%rbp),%eax
    ad98:	89 c2                	mov    %eax,%edx
    ad9a:	48 8d 35 2f 1b 00 00 	lea    0x1b2f(%rip),%rsi        # c8d0 <g_1875+0x860>
    ada1:	48 89 cf             	mov    %rcx,%rdi
    ada4:	e8 4a c9 ff ff       	callq  76f3 <transparent_crc>
    ada9:	0f b6 05 3d 56 00 00 	movzbl 0x563d(%rip),%eax        # 103ed <g_1115+0xd>
    adb0:	0f b6 c0             	movzbl %al,%eax
    adb3:	8b 55 fc             	mov    -0x4(%rbp),%edx
    adb6:	48 8d 35 1d 1b 00 00 	lea    0x1b1d(%rip),%rsi        # c8da <g_1875+0x86a>
    adbd:	48 89 c7             	mov    %rax,%rdi
    adc0:	e8 2e c9 ff ff       	callq  76f3 <transparent_crc>
    adc5:	48 8b 05 22 56 00 00 	mov    0x5622(%rip),%rax        # 103ee <g_1115+0xe>
    adcc:	48 89 c1             	mov    %rax,%rcx
    adcf:	8b 45 fc             	mov    -0x4(%rbp),%eax
    add2:	89 c2                	mov    %eax,%edx
    add4:	48 8d 35 09 1b 00 00 	lea    0x1b09(%rip),%rsi        # c8e4 <g_1875+0x874>
    addb:	48 89 cf             	mov    %rcx,%rdi
    adde:	e8 10 c9 ff ff       	callq  76f3 <transparent_crc>
    ade3:	0f b7 05 0c 56 00 00 	movzwl 0x560c(%rip),%eax        # 103f6 <g_1115+0x16>
    adea:	48 0f bf c0          	movswq %ax,%rax
    adee:	8b 55 fc             	mov    -0x4(%rbp),%edx
    adf1:	48 8d 35 f6 1a 00 00 	lea    0x1af6(%rip),%rsi        # c8ee <g_1875+0x87e>
    adf8:	48 89 c7             	mov    %rax,%rdi
    adfb:	e8 f3 c8 ff ff       	callq  76f3 <transparent_crc>
    ae00:	c7 45 f4 00 00 00 00 	movl   $0x0,-0xc(%rbp)
    ae07:	eb 4a                	jmp    ae53 <main+0x111e>
    ae09:	8b 45 f4             	mov    -0xc(%rbp),%eax
    ae0c:	48 98                	cltq   
    ae0e:	48 8d 14 00          	lea    (%rax,%rax,1),%rdx
    ae12:	48 8d 05 df 55 00 00 	lea    0x55df(%rip),%rax        # 103f8 <g_1159>
    ae19:	0f b7 04 02          	movzwl (%rdx,%rax,1),%eax
    ae1d:	48 0f bf c0          	movswq %ax,%rax
    ae21:	8b 55 fc             	mov    -0x4(%rbp),%edx
    ae24:	48 8d 35 cd 1a 00 00 	lea    0x1acd(%rip),%rsi        # c8f8 <g_1875+0x888>
    ae2b:	48 89 c7             	mov    %rax,%rdi
    ae2e:	e8 c0 c8 ff ff       	callq  76f3 <transparent_crc>
    ae33:	83 7d fc 00          	cmpl   $0x0,-0x4(%rbp)
    ae37:	74 16                	je     ae4f <main+0x111a>
    ae39:	8b 45 f4             	mov    -0xc(%rbp),%eax
    ae3c:	89 c6                	mov    %eax,%esi
    ae3e:	48 8d 3d c3 16 00 00 	lea    0x16c3(%rip),%rdi        # c508 <g_1875+0x498>
    ae45:	b8 00 00 00 00       	mov    $0x0,%eax
    ae4a:	e8 31 b2 ff ff       	callq  6080 <printf@plt>
    ae4f:	83 45 f4 01          	addl   $0x1,-0xc(%rbp)
    ae53:	83 7d f4 04          	cmpl   $0x4,-0xc(%rbp)
    ae57:	7e b0                	jle    ae09 <main+0x10d4>
    ae59:	48 8b 05 a8 55 00 00 	mov    0x55a8(%rip),%rax        # 10408 <g_1251>
    ae60:	48 89 c1             	mov    %rax,%rcx
    ae63:	8b 45 fc             	mov    -0x4(%rbp),%eax
    ae66:	89 c2                	mov    %eax,%edx
    ae68:	48 8d 35 93 1a 00 00 	lea    0x1a93(%rip),%rsi        # c902 <g_1875+0x892>
    ae6f:	48 89 cf             	mov    %rcx,%rdi
    ae72:	e8 7c c8 ff ff       	callq  76f3 <transparent_crc>
    ae77:	0f b6 05 92 55 00 00 	movzbl 0x5592(%rip),%eax        # 10410 <g_1300>
    ae7e:	0f b6 c0             	movzbl %al,%eax
    ae81:	8b 55 fc             	mov    -0x4(%rbp),%edx
    ae84:	48 8d 35 7e 1a 00 00 	lea    0x1a7e(%rip),%rsi        # c909 <g_1875+0x899>
    ae8b:	48 89 c7             	mov    %rax,%rdi
    ae8e:	e8 60 c8 ff ff       	callq  76f3 <transparent_crc>
    ae93:	8b 05 87 55 00 00    	mov    0x5587(%rip),%eax        # 10420 <g_1466>
    ae99:	89 c1                	mov    %eax,%ecx
    ae9b:	8b 45 fc             	mov    -0x4(%rbp),%eax
    ae9e:	89 c2                	mov    %eax,%edx
    aea0:	48 8d 35 69 1a 00 00 	lea    0x1a69(%rip),%rsi        # c910 <g_1875+0x8a0>
    aea7:	48 89 cf             	mov    %rcx,%rdi
    aeaa:	e8 44 c8 ff ff       	callq  76f3 <transparent_crc>
    aeaf:	0f b7 05 6e 55 00 00 	movzwl 0x556e(%rip),%eax        # 10424 <g_1466+0x4>
    aeb6:	48 0f bf c0          	movswq %ax,%rax
    aeba:	8b 55 fc             	mov    -0x4(%rbp),%edx
    aebd:	48 8d 35 56 1a 00 00 	lea    0x1a56(%rip),%rsi        # c91a <g_1875+0x8aa>
    aec4:	48 89 c7             	mov    %rax,%rdi
    aec7:	e8 27 c8 ff ff       	callq  76f3 <transparent_crc>
    aecc:	0f b7 05 53 55 00 00 	movzwl 0x5553(%rip),%eax        # 10426 <g_1466+0x6>
    aed3:	48 0f bf c0          	movswq %ax,%rax
    aed7:	8b 55 fc             	mov    -0x4(%rbp),%edx
    aeda:	48 8d 35 43 1a 00 00 	lea    0x1a43(%rip),%rsi        # c924 <g_1875+0x8b4>
    aee1:	48 89 c7             	mov    %rax,%rdi
    aee4:	e8 0a c8 ff ff       	callq  76f3 <transparent_crc>
    aee9:	0f b6 05 38 55 00 00 	movzbl 0x5538(%rip),%eax        # 10428 <g_1466+0x8>
    aef0:	0f b6 c0             	movzbl %al,%eax
    aef3:	8b 55 fc             	mov    -0x4(%rbp),%edx
    aef6:	48 8d 35 31 1a 00 00 	lea    0x1a31(%rip),%rsi        # c92e <g_1875+0x8be>
    aefd:	48 89 c7             	mov    %rax,%rdi
    af00:	e8 ee c7 ff ff       	callq  76f3 <transparent_crc>
    af05:	8b 05 1e 55 00 00    	mov    0x551e(%rip),%eax        # 10429 <g_1466+0x9>
    af0b:	89 c1                	mov    %eax,%ecx
    af0d:	8b 45 fc             	mov    -0x4(%rbp),%eax
    af10:	89 c2                	mov    %eax,%edx
    af12:	48 8d 35 1f 1a 00 00 	lea    0x1a1f(%rip),%rsi        # c938 <g_1875+0x8c8>
    af19:	48 89 cf             	mov    %rcx,%rdi
    af1c:	e8 d2 c7 ff ff       	callq  76f3 <transparent_crc>
    af21:	0f b6 05 05 55 00 00 	movzbl 0x5505(%rip),%eax        # 1042d <g_1466+0xd>
    af28:	0f b6 c0             	movzbl %al,%eax
    af2b:	8b 55 fc             	mov    -0x4(%rbp),%edx
    af2e:	48 8d 35 0d 1a 00 00 	lea    0x1a0d(%rip),%rsi        # c942 <g_1875+0x8d2>
    af35:	48 89 c7             	mov    %rax,%rdi
    af38:	e8 b6 c7 ff ff       	callq  76f3 <transparent_crc>
    af3d:	48 8b 05 ea 54 00 00 	mov    0x54ea(%rip),%rax        # 1042e <g_1466+0xe>
    af44:	48 89 c1             	mov    %rax,%rcx
    af47:	8b 45 fc             	mov    -0x4(%rbp),%eax
    af4a:	89 c2                	mov    %eax,%edx
    af4c:	48 8d 35 f9 19 00 00 	lea    0x19f9(%rip),%rsi        # c94c <g_1875+0x8dc>
    af53:	48 89 cf             	mov    %rcx,%rdi
    af56:	e8 98 c7 ff ff       	callq  76f3 <transparent_crc>
    af5b:	0f b7 05 d4 54 00 00 	movzwl 0x54d4(%rip),%eax        # 10436 <g_1466+0x16>
    af62:	48 0f bf c0          	movswq %ax,%rax
    af66:	8b 55 fc             	mov    -0x4(%rbp),%edx
    af69:	48 8d 35 e6 19 00 00 	lea    0x19e6(%rip),%rsi        # c956 <g_1875+0x8e6>
    af70:	48 89 c7             	mov    %rax,%rdi
    af73:	e8 7b c7 ff ff       	callq  76f3 <transparent_crc>
    af78:	8b 05 c2 54 00 00    	mov    0x54c2(%rip),%eax        # 10440 <g_1497>
    af7e:	89 c1                	mov    %eax,%ecx
    af80:	8b 45 fc             	mov    -0x4(%rbp),%eax
    af83:	89 c2                	mov    %eax,%edx
    af85:	48 8d 35 d4 19 00 00 	lea    0x19d4(%rip),%rsi        # c960 <g_1875+0x8f0>
    af8c:	48 89 cf             	mov    %rcx,%rdi
    af8f:	e8 5f c7 ff ff       	callq  76f3 <transparent_crc>
    af94:	0f b7 05 a9 54 00 00 	movzwl 0x54a9(%rip),%eax        # 10444 <g_1497+0x4>
    af9b:	48 0f bf c0          	movswq %ax,%rax
    af9f:	8b 55 fc             	mov    -0x4(%rbp),%edx
    afa2:	48 8d 35 c1 19 00 00 	lea    0x19c1(%rip),%rsi        # c96a <g_1875+0x8fa>
    afa9:	48 89 c7             	mov    %rax,%rdi
    afac:	e8 42 c7 ff ff       	callq  76f3 <transparent_crc>
    afb1:	0f b7 05 8e 54 00 00 	movzwl 0x548e(%rip),%eax        # 10446 <g_1497+0x6>
    afb8:	48 0f bf c0          	movswq %ax,%rax
    afbc:	8b 55 fc             	mov    -0x4(%rbp),%edx
    afbf:	48 8d 35 ae 19 00 00 	lea    0x19ae(%rip),%rsi        # c974 <g_1875+0x904>
    afc6:	48 89 c7             	mov    %rax,%rdi
    afc9:	e8 25 c7 ff ff       	callq  76f3 <transparent_crc>
    afce:	0f b6 05 73 54 00 00 	movzbl 0x5473(%rip),%eax        # 10448 <g_1497+0x8>
    afd5:	0f b6 c0             	movzbl %al,%eax
    afd8:	8b 55 fc             	mov    -0x4(%rbp),%edx
    afdb:	48 8d 35 9c 19 00 00 	lea    0x199c(%rip),%rsi        # c97e <g_1875+0x90e>
    afe2:	48 89 c7             	mov    %rax,%rdi
    afe5:	e8 09 c7 ff ff       	callq  76f3 <transparent_crc>
    afea:	8b 05 59 54 00 00    	mov    0x5459(%rip),%eax        # 10449 <g_1497+0x9>
    aff0:	89 c1                	mov    %eax,%ecx
    aff2:	8b 45 fc             	mov    -0x4(%rbp),%eax
    aff5:	89 c2                	mov    %eax,%edx
    aff7:	48 8d 35 8a 19 00 00 	lea    0x198a(%rip),%rsi        # c988 <g_1875+0x918>
    affe:	48 89 cf             	mov    %rcx,%rdi
    b001:	e8 ed c6 ff ff       	callq  76f3 <transparent_crc>
    b006:	0f b6 05 40 54 00 00 	movzbl 0x5440(%rip),%eax        # 1044d <g_1497+0xd>
    b00d:	0f b6 c0             	movzbl %al,%eax
    b010:	8b 55 fc             	mov    -0x4(%rbp),%edx
    b013:	48 8d 35 78 19 00 00 	lea    0x1978(%rip),%rsi        # c992 <g_1875+0x922>
    b01a:	48 89 c7             	mov    %rax,%rdi
    b01d:	e8 d1 c6 ff ff       	callq  76f3 <transparent_crc>
    b022:	48 8b 05 25 54 00 00 	mov    0x5425(%rip),%rax        # 1044e <g_1497+0xe>
    b029:	48 89 c1             	mov    %rax,%rcx
    b02c:	8b 45 fc             	mov    -0x4(%rbp),%eax
    b02f:	89 c2                	mov    %eax,%edx
    b031:	48 8d 35 64 19 00 00 	lea    0x1964(%rip),%rsi        # c99c <g_1875+0x92c>
    b038:	48 89 cf             	mov    %rcx,%rdi
    b03b:	e8 b3 c6 ff ff       	callq  76f3 <transparent_crc>
    b040:	0f b7 05 0f 54 00 00 	movzwl 0x540f(%rip),%eax        # 10456 <g_1497+0x16>
    b047:	48 0f bf c0          	movswq %ax,%rax
    b04b:	8b 55 fc             	mov    -0x4(%rbp),%edx
    b04e:	48 8d 35 51 19 00 00 	lea    0x1951(%rip),%rsi        # c9a6 <g_1875+0x936>
    b055:	48 89 c7             	mov    %rax,%rdi
    b058:	e8 96 c6 ff ff       	callq  76f3 <transparent_crc>
    b05d:	8b 05 fd 53 00 00    	mov    0x53fd(%rip),%eax        # 10460 <g_1664>
    b063:	48 98                	cltq   
    b065:	8b 55 fc             	mov    -0x4(%rbp),%edx
    b068:	48 8d 35 41 19 00 00 	lea    0x1941(%rip),%rsi        # c9b0 <g_1875+0x940>
    b06f:	48 89 c7             	mov    %rax,%rdi
    b072:	e8 7c c6 ff ff       	callq  76f3 <transparent_crc>
    b077:	c7 45 f4 00 00 00 00 	movl   $0x0,-0xc(%rbp)
    b07e:	e9 d7 01 00 00       	jmpq   b25a <main+0x1525>
    b083:	8b 45 f4             	mov    -0xc(%rbp),%eax
    b086:	48 63 d0             	movslq %eax,%rdx
    b089:	48 89 d0             	mov    %rdx,%rax
    b08c:	48 01 c0             	add    %rax,%rax
    b08f:	48 01 d0             	add    %rdx,%rax
    b092:	48 c1 e0 03          	shl    $0x3,%rax
    b096:	48 89 c2             	mov    %rax,%rdx
    b099:	48 8d 05 e0 53 00 00 	lea    0x53e0(%rip),%rax        # 10480 <g_1683>
    b0a0:	8b 04 02             	mov    (%rdx,%rax,1),%eax
    b0a3:	89 c1                	mov    %eax,%ecx
    b0a5:	8b 45 fc             	mov    -0x4(%rbp),%eax
    b0a8:	89 c2                	mov    %eax,%edx
    b0aa:	48 8d 35 06 19 00 00 	lea    0x1906(%rip),%rsi        # c9b7 <g_1875+0x947>
    b0b1:	48 89 cf             	mov    %rcx,%rdi
    b0b4:	e8 3a c6 ff ff       	callq  76f3 <transparent_crc>
    b0b9:	8b 45 f4             	mov    -0xc(%rbp),%eax
    b0bc:	48 63 d0             	movslq %eax,%rdx
    b0bf:	48 89 d0             	mov    %rdx,%rax
    b0c2:	48 01 c0             	add    %rax,%rax
    b0c5:	48 01 d0             	add    %rdx,%rax
    b0c8:	48 c1 e0 03          	shl    $0x3,%rax
    b0cc:	48 89 c2             	mov    %rax,%rdx
    b0cf:	48 8d 05 ae 53 00 00 	lea    0x53ae(%rip),%rax        # 10484 <g_1683+0x4>
    b0d6:	0f b7 04 02          	movzwl (%rdx,%rax,1),%eax
    b0da:	48 0f bf c0          	movswq %ax,%rax
    b0de:	8b 55 fc             	mov    -0x4(%rbp),%edx
    b0e1:	48 8d 35 dc 18 00 00 	lea    0x18dc(%rip),%rsi        # c9c4 <g_1875+0x954>
    b0e8:	48 89 c7             	mov    %rax,%rdi
    b0eb:	e8 03 c6 ff ff       	callq  76f3 <transparent_crc>
    b0f0:	8b 45 f4             	mov    -0xc(%rbp),%eax
    b0f3:	48 63 d0             	movslq %eax,%rdx
    b0f6:	48 89 d0             	mov    %rdx,%rax
    b0f9:	48 01 c0             	add    %rax,%rax
    b0fc:	48 01 d0             	add    %rdx,%rax
    b0ff:	48 c1 e0 03          	shl    $0x3,%rax
    b103:	48 89 c2             	mov    %rax,%rdx
    b106:	48 8d 05 79 53 00 00 	lea    0x5379(%rip),%rax        # 10486 <g_1683+0x6>
    b10d:	0f b7 04 02          	movzwl (%rdx,%rax,1),%eax
    b111:	48 0f bf c0          	movswq %ax,%rax
    b115:	8b 55 fc             	mov    -0x4(%rbp),%edx
    b118:	48 8d 35 b2 18 00 00 	lea    0x18b2(%rip),%rsi        # c9d1 <g_1875+0x961>
    b11f:	48 89 c7             	mov    %rax,%rdi
    b122:	e8 cc c5 ff ff       	callq  76f3 <transparent_crc>
    b127:	8b 45 f4             	mov    -0xc(%rbp),%eax
    b12a:	48 63 d0             	movslq %eax,%rdx
    b12d:	48 89 d0             	mov    %rdx,%rax
    b130:	48 01 c0             	add    %rax,%rax
    b133:	48 01 d0             	add    %rdx,%rax
    b136:	48 c1 e0 03          	shl    $0x3,%rax
    b13a:	48 89 c2             	mov    %rax,%rdx
    b13d:	48 8d 05 44 53 00 00 	lea    0x5344(%rip),%rax        # 10488 <g_1683+0x8>
    b144:	0f b6 04 02          	movzbl (%rdx,%rax,1),%eax
    b148:	0f b6 c0             	movzbl %al,%eax
    b14b:	8b 55 fc             	mov    -0x4(%rbp),%edx
    b14e:	48 8d 35 89 18 00 00 	lea    0x1889(%rip),%rsi        # c9de <g_1875+0x96e>
    b155:	48 89 c7             	mov    %rax,%rdi
    b158:	e8 96 c5 ff ff       	callq  76f3 <transparent_crc>
    b15d:	8b 45 f4             	mov    -0xc(%rbp),%eax
    b160:	48 63 d0             	movslq %eax,%rdx
    b163:	48 89 d0             	mov    %rdx,%rax
    b166:	48 01 c0             	add    %rax,%rax
    b169:	48 01 d0             	add    %rdx,%rax
    b16c:	48 c1 e0 03          	shl    $0x3,%rax
    b170:	48 89 c2             	mov    %rax,%rdx
    b173:	48 8d 05 06 53 00 00 	lea    0x5306(%rip),%rax        # 10480 <g_1683>
    b17a:	8b 44 02 09          	mov    0x9(%rdx,%rax,1),%eax
    b17e:	89 c1                	mov    %eax,%ecx
    b180:	8b 45 fc             	mov    -0x4(%rbp),%eax
    b183:	89 c2                	mov    %eax,%edx
    b185:	48 8d 35 5f 18 00 00 	lea    0x185f(%rip),%rsi        # c9eb <g_1875+0x97b>
    b18c:	48 89 cf             	mov    %rcx,%rdi
    b18f:	e8 5f c5 ff ff       	callq  76f3 <transparent_crc>
    b194:	8b 45 f4             	mov    -0xc(%rbp),%eax
    b197:	48 63 d0             	movslq %eax,%rdx
    b19a:	48 89 d0             	mov    %rdx,%rax
    b19d:	48 01 c0             	add    %rax,%rax
    b1a0:	48 01 d0             	add    %rdx,%rax
    b1a3:	48 c1 e0 03          	shl    $0x3,%rax
    b1a7:	48 89 c2             	mov    %rax,%rdx
    b1aa:	48 8d 05 dc 52 00 00 	lea    0x52dc(%rip),%rax        # 1048d <g_1683+0xd>
    b1b1:	0f b6 04 02          	movzbl (%rdx,%rax,1),%eax
    b1b5:	0f b6 c0             	movzbl %al,%eax
    b1b8:	8b 55 fc             	mov    -0x4(%rbp),%edx
    b1bb:	48 8d 35 36 18 00 00 	lea    0x1836(%rip),%rsi        # c9f8 <g_1875+0x988>
    b1c2:	48 89 c7             	mov    %rax,%rdi
    b1c5:	e8 29 c5 ff ff       	callq  76f3 <transparent_crc>
    b1ca:	8b 45 f4             	mov    -0xc(%rbp),%eax
    b1cd:	48 63 d0             	movslq %eax,%rdx
    b1d0:	48 89 d0             	mov    %rdx,%rax
    b1d3:	48 01 c0             	add    %rax,%rax
    b1d6:	48 01 d0             	add    %rdx,%rax
    b1d9:	48 c1 e0 03          	shl    $0x3,%rax
    b1dd:	48 89 c2             	mov    %rax,%rdx
    b1e0:	48 8d 05 99 52 00 00 	lea    0x5299(%rip),%rax        # 10480 <g_1683>
    b1e7:	48 8b 44 02 0e       	mov    0xe(%rdx,%rax,1),%rax
    b1ec:	48 89 c1             	mov    %rax,%rcx
    b1ef:	8b 45 fc             	mov    -0x4(%rbp),%eax
    b1f2:	89 c2                	mov    %eax,%edx
    b1f4:	48 8d 35 0a 18 00 00 	lea    0x180a(%rip),%rsi        # ca05 <g_1875+0x995>
    b1fb:	48 89 cf             	mov    %rcx,%rdi
    b1fe:	e8 f0 c4 ff ff       	callq  76f3 <transparent_crc>
    b203:	8b 45 f4             	mov    -0xc(%rbp),%eax
    b206:	48 63 d0             	movslq %eax,%rdx
    b209:	48 89 d0             	mov    %rdx,%rax
    b20c:	48 01 c0             	add    %rax,%rax
    b20f:	48 01 d0             	add    %rdx,%rax
    b212:	48 c1 e0 03          	shl    $0x3,%rax
    b216:	48 89 c2             	mov    %rax,%rdx
    b219:	48 8d 05 76 52 00 00 	lea    0x5276(%rip),%rax        # 10496 <g_1683+0x16>
    b220:	0f b7 04 02          	movzwl (%rdx,%rax,1),%eax
    b224:	48 0f bf c0          	movswq %ax,%rax
    b228:	8b 55 fc             	mov    -0x4(%rbp),%edx
    b22b:	48 8d 35 e0 17 00 00 	lea    0x17e0(%rip),%rsi        # ca12 <g_1875+0x9a2>
    b232:	48 89 c7             	mov    %rax,%rdi
    b235:	e8 b9 c4 ff ff       	callq  76f3 <transparent_crc>
    b23a:	83 7d fc 00          	cmpl   $0x0,-0x4(%rbp)
    b23e:	74 16                	je     b256 <main+0x1521>
    b240:	8b 45 f4             	mov    -0xc(%rbp),%eax
    b243:	89 c6                	mov    %eax,%esi
    b245:	48 8d 3d bc 12 00 00 	lea    0x12bc(%rip),%rdi        # c508 <g_1875+0x498>
    b24c:	b8 00 00 00 00       	mov    $0x0,%eax
    b251:	e8 2a ae ff ff       	callq  6080 <printf@plt>
    b256:	83 45 f4 01          	addl   $0x1,-0xc(%rbp)
    b25a:	83 7d f4 02          	cmpl   $0x2,-0xc(%rbp)
    b25e:	0f 8e 1f fe ff ff    	jle    b083 <main+0x134e>
    b264:	8b 05 5e 52 00 00    	mov    0x525e(%rip),%eax        # 104c8 <g_1864>
    b26a:	89 c1                	mov    %eax,%ecx
    b26c:	8b 45 fc             	mov    -0x4(%rbp),%eax
    b26f:	89 c2                	mov    %eax,%edx
    b271:	48 8d 35 a7 17 00 00 	lea    0x17a7(%rip),%rsi        # ca1f <g_1875+0x9af>
    b278:	48 89 cf             	mov    %rcx,%rdi
    b27b:	e8 73 c4 ff ff       	callq  76f3 <transparent_crc>
    b280:	c7 45 f4 00 00 00 00 	movl   $0x0,-0xc(%rbp)
    b287:	eb 4d                	jmp    b2d6 <main+0x15a1>
    b289:	8b 45 f4             	mov    -0xc(%rbp),%eax
    b28c:	48 98                	cltq   
    b28e:	48 8d 14 85 00 00 00 	lea    0x0(,%rax,4),%rdx
    b295:	00 
    b296:	48 8d 05 33 52 00 00 	lea    0x5233(%rip),%rax        # 104d0 <g_1871>
    b29d:	8b 04 02             	mov    (%rdx,%rax,1),%eax
    b2a0:	89 c1                	mov    %eax,%ecx
    b2a2:	8b 45 fc             	mov    -0x4(%rbp),%eax
    b2a5:	89 c2                	mov    %eax,%edx
    b2a7:	48 8d 35 78 17 00 00 	lea    0x1778(%rip),%rsi        # ca26 <g_1875+0x9b6>
    b2ae:	48 89 cf             	mov    %rcx,%rdi
    b2b1:	e8 3d c4 ff ff       	callq  76f3 <transparent_crc>
    b2b6:	83 7d fc 00          	cmpl   $0x0,-0x4(%rbp)
    b2ba:	74 16                	je     b2d2 <main+0x159d>
    b2bc:	8b 45 f4             	mov    -0xc(%rbp),%eax
    b2bf:	89 c6                	mov    %eax,%esi
    b2c1:	48 8d 3d 40 12 00 00 	lea    0x1240(%rip),%rdi        # c508 <g_1875+0x498>
    b2c8:	b8 00 00 00 00       	mov    $0x0,%eax
    b2cd:	e8 ae ad ff ff       	callq  6080 <printf@plt>
    b2d2:	83 45 f4 01          	addl   $0x1,-0xc(%rbp)
    b2d6:	83 7d f4 01          	cmpl   $0x1,-0xc(%rbp)
    b2da:	7e ad                	jle    b289 <main+0x1554>
    b2dc:	8b 05 8e 0d 00 00    	mov    0xd8e(%rip),%eax        # c070 <g_1875>
    b2e2:	89 c1                	mov    %eax,%ecx
    b2e4:	8b 45 fc             	mov    -0x4(%rbp),%eax
    b2e7:	89 c2                	mov    %eax,%edx
    b2e9:	48 8d 35 40 17 00 00 	lea    0x1740(%rip),%rsi        # ca30 <g_1875+0x9c0>
    b2f0:	48 89 cf             	mov    %rcx,%rdi
    b2f3:	e8 fb c3 ff ff       	callq  76f3 <transparent_crc>
    b2f8:	b8 4b 89 ff ff       	mov    $0xffff894b,%eax
    b2fd:	48 0f bf c0          	movswq %ax,%rax
    b301:	8b 55 fc             	mov    -0x4(%rbp),%edx
    b304:	48 8d 35 2f 17 00 00 	lea    0x172f(%rip),%rsi        # ca3a <g_1875+0x9ca>
    b30b:	48 89 c7             	mov    %rax,%rdi
    b30e:	e8 e0 c3 ff ff       	callq  76f3 <transparent_crc>
    b313:	b8 ae 89 ff ff       	mov    $0xffff89ae,%eax
    b318:	48 0f bf c0          	movswq %ax,%rax
    b31c:	8b 55 fc             	mov    -0x4(%rbp),%edx
    b31f:	48 8d 35 1e 17 00 00 	lea    0x171e(%rip),%rsi        # ca44 <g_1875+0x9d4>
    b326:	48 89 c7             	mov    %rax,%rdi
    b329:	e8 c5 c3 ff ff       	callq  76f3 <transparent_crc>
    b32e:	b8 85 ff ff ff       	mov    $0xffffff85,%eax
    b333:	0f b6 c0             	movzbl %al,%eax
    b336:	8b 55 fc             	mov    -0x4(%rbp),%edx
    b339:	48 8d 35 0e 17 00 00 	lea    0x170e(%rip),%rsi        # ca4e <g_1875+0x9de>
    b340:	48 89 c7             	mov    %rax,%rdi
    b343:	e8 ab c3 ff ff       	callq  76f3 <transparent_crc>
    b348:	8b 05 2b 0d 00 00    	mov    0xd2b(%rip),%eax        # c079 <g_1875+0x9>
    b34e:	89 c1                	mov    %eax,%ecx
    b350:	8b 45 fc             	mov    -0x4(%rbp),%eax
    b353:	89 c2                	mov    %eax,%edx
    b355:	48 8d 35 fc 16 00 00 	lea    0x16fc(%rip),%rsi        # ca58 <g_1875+0x9e8>
    b35c:	48 89 cf             	mov    %rcx,%rdi
    b35f:	e8 8f c3 ff ff       	callq  76f3 <transparent_crc>
    b364:	b8 01 00 00 00       	mov    $0x1,%eax
    b369:	0f b6 c0             	movzbl %al,%eax
    b36c:	8b 55 fc             	mov    -0x4(%rbp),%edx
    b36f:	48 8d 35 ec 16 00 00 	lea    0x16ec(%rip),%rsi        # ca62 <g_1875+0x9f2>
    b376:	48 89 c7             	mov    %rax,%rdi
    b379:	e8 75 c3 ff ff       	callq  76f3 <transparent_crc>
    b37e:	48 8b 05 f9 0c 00 00 	mov    0xcf9(%rip),%rax        # c07e <g_1875+0xe>
    b385:	48 89 c1             	mov    %rax,%rcx
    b388:	8b 45 fc             	mov    -0x4(%rbp),%eax
    b38b:	89 c2                	mov    %eax,%edx
    b38d:	48 8d 35 d8 16 00 00 	lea    0x16d8(%rip),%rsi        # ca6c <g_1875+0x9fc>
    b394:	48 89 cf             	mov    %rcx,%rdi
    b397:	e8 57 c3 ff ff       	callq  76f3 <transparent_crc>
    b39c:	b8 00 00 00 00       	mov    $0x0,%eax
    b3a1:	48 0f bf c0          	movswq %ax,%rax
    b3a5:	8b 55 fc             	mov    -0x4(%rbp),%edx
    b3a8:	48 8d 35 c7 16 00 00 	lea    0x16c7(%rip),%rsi        # ca76 <g_1875+0xa06>
    b3af:	48 89 c7             	mov    %rax,%rdi
    b3b2:	e8 3c c3 ff ff       	callq  76f3 <transparent_crc>
    b3b7:	c7 45 f4 00 00 00 00 	movl   $0x0,-0xc(%rbp)
    b3be:	e9 d7 01 00 00       	jmpq   b59a <main+0x1865>
    b3c3:	8b 45 f4             	mov    -0xc(%rbp),%eax
    b3c6:	48 63 d0             	movslq %eax,%rdx
    b3c9:	48 89 d0             	mov    %rdx,%rax
    b3cc:	48 01 c0             	add    %rax,%rax
    b3cf:	48 01 d0             	add    %rdx,%rax
    b3d2:	48 c1 e0 03          	shl    $0x3,%rax
    b3d6:	48 89 c2             	mov    %rax,%rdx
    b3d9:	48 8d 05 00 51 00 00 	lea    0x5100(%rip),%rax        # 104e0 <g_2001>
    b3e0:	8b 04 02             	mov    (%rdx,%rax,1),%eax
    b3e3:	89 c1                	mov    %eax,%ecx
    b3e5:	8b 45 fc             	mov    -0x4(%rbp),%eax
    b3e8:	89 c2                	mov    %eax,%edx
    b3ea:	48 8d 35 8f 16 00 00 	lea    0x168f(%rip),%rsi        # ca80 <g_1875+0xa10>
    b3f1:	48 89 cf             	mov    %rcx,%rdi
    b3f4:	e8 fa c2 ff ff       	callq  76f3 <transparent_crc>
    b3f9:	8b 45 f4             	mov    -0xc(%rbp),%eax
    b3fc:	48 63 d0             	movslq %eax,%rdx
    b3ff:	48 89 d0             	mov    %rdx,%rax
    b402:	48 01 c0             	add    %rax,%rax
    b405:	48 01 d0             	add    %rdx,%rax
    b408:	48 c1 e0 03          	shl    $0x3,%rax
    b40c:	48 89 c2             	mov    %rax,%rdx
    b40f:	48 8d 05 ce 50 00 00 	lea    0x50ce(%rip),%rax        # 104e4 <g_2001+0x4>
    b416:	0f b7 04 02          	movzwl (%rdx,%rax,1),%eax
    b41a:	48 0f bf c0          	movswq %ax,%rax
    b41e:	8b 55 fc             	mov    -0x4(%rbp),%edx
    b421:	48 8d 35 65 16 00 00 	lea    0x1665(%rip),%rsi        # ca8d <g_1875+0xa1d>
    b428:	48 89 c7             	mov    %rax,%rdi
    b42b:	e8 c3 c2 ff ff       	callq  76f3 <transparent_crc>
    b430:	8b 45 f4             	mov    -0xc(%rbp),%eax
    b433:	48 63 d0             	movslq %eax,%rdx
    b436:	48 89 d0             	mov    %rdx,%rax
    b439:	48 01 c0             	add    %rax,%rax
    b43c:	48 01 d0             	add    %rdx,%rax
    b43f:	48 c1 e0 03          	shl    $0x3,%rax
    b443:	48 89 c2             	mov    %rax,%rdx
    b446:	48 8d 05 99 50 00 00 	lea    0x5099(%rip),%rax        # 104e6 <g_2001+0x6>
    b44d:	0f b7 04 02          	movzwl (%rdx,%rax,1),%eax
    b451:	48 0f bf c0          	movswq %ax,%rax
    b455:	8b 55 fc             	mov    -0x4(%rbp),%edx
    b458:	48 8d 35 3b 16 00 00 	lea    0x163b(%rip),%rsi        # ca9a <g_1875+0xa2a>
    b45f:	48 89 c7             	mov    %rax,%rdi
    b462:	e8 8c c2 ff ff       	callq  76f3 <transparent_crc>
    b467:	8b 45 f4             	mov    -0xc(%rbp),%eax
    b46a:	48 63 d0             	movslq %eax,%rdx
    b46d:	48 89 d0             	mov    %rdx,%rax
    b470:	48 01 c0             	add    %rax,%rax
    b473:	48 01 d0             	add    %rdx,%rax
    b476:	48 c1 e0 03          	shl    $0x3,%rax
    b47a:	48 89 c2             	mov    %rax,%rdx
    b47d:	48 8d 05 64 50 00 00 	lea    0x5064(%rip),%rax        # 104e8 <g_2001+0x8>
    b484:	0f b6 04 02          	movzbl (%rdx,%rax,1),%eax
    b488:	0f b6 c0             	movzbl %al,%eax
    b48b:	8b 55 fc             	mov    -0x4(%rbp),%edx
    b48e:	48 8d 35 12 16 00 00 	lea    0x1612(%rip),%rsi        # caa7 <g_1875+0xa37>
    b495:	48 89 c7             	mov    %rax,%rdi
    b498:	e8 56 c2 ff ff       	callq  76f3 <transparent_crc>
    b49d:	8b 45 f4             	mov    -0xc(%rbp),%eax
    b4a0:	48 63 d0             	movslq %eax,%rdx
    b4a3:	48 89 d0             	mov    %rdx,%rax
    b4a6:	48 01 c0             	add    %rax,%rax
    b4a9:	48 01 d0             	add    %rdx,%rax
    b4ac:	48 c1 e0 03          	shl    $0x3,%rax
    b4b0:	48 89 c2             	mov    %rax,%rdx
    b4b3:	48 8d 05 26 50 00 00 	lea    0x5026(%rip),%rax        # 104e0 <g_2001>
    b4ba:	8b 44 02 09          	mov    0x9(%rdx,%rax,1),%eax
    b4be:	89 c1                	mov    %eax,%ecx
    b4c0:	8b 45 fc             	mov    -0x4(%rbp),%eax
    b4c3:	89 c2                	mov    %eax,%edx
    b4c5:	48 8d 35 e8 15 00 00 	lea    0x15e8(%rip),%rsi        # cab4 <g_1875+0xa44>
    b4cc:	48 89 cf             	mov    %rcx,%rdi
    b4cf:	e8 1f c2 ff ff       	callq  76f3 <transparent_crc>
    b4d4:	8b 45 f4             	mov    -0xc(%rbp),%eax
    b4d7:	48 63 d0             	movslq %eax,%rdx
    b4da:	48 89 d0             	mov    %rdx,%rax
    b4dd:	48 01 c0             	add    %rax,%rax
    b4e0:	48 01 d0             	add    %rdx,%rax
    b4e3:	48 c1 e0 03          	shl    $0x3,%rax
    b4e7:	48 89 c2             	mov    %rax,%rdx
    b4ea:	48 8d 05 fc 4f 00 00 	lea    0x4ffc(%rip),%rax        # 104ed <g_2001+0xd>
    b4f1:	0f b6 04 02          	movzbl (%rdx,%rax,1),%eax
    b4f5:	0f b6 c0             	movzbl %al,%eax
    b4f8:	8b 55 fc             	mov    -0x4(%rbp),%edx
    b4fb:	48 8d 35 bf 15 00 00 	lea    0x15bf(%rip),%rsi        # cac1 <g_1875+0xa51>
    b502:	48 89 c7             	mov    %rax,%rdi
    b505:	e8 e9 c1 ff ff       	callq  76f3 <transparent_crc>
    b50a:	8b 45 f4             	mov    -0xc(%rbp),%eax
    b50d:	48 63 d0             	movslq %eax,%rdx
    b510:	48 89 d0             	mov    %rdx,%rax
    b513:	48 01 c0             	add    %rax,%rax
    b516:	48 01 d0             	add    %rdx,%rax
    b519:	48 c1 e0 03          	shl    $0x3,%rax
    b51d:	48 89 c2             	mov    %rax,%rdx
    b520:	48 8d 05 b9 4f 00 00 	lea    0x4fb9(%rip),%rax        # 104e0 <g_2001>
    b527:	48 8b 44 02 0e       	mov    0xe(%rdx,%rax,1),%rax
    b52c:	48 89 c1             	mov    %rax,%rcx
    b52f:	8b 45 fc             	mov    -0x4(%rbp),%eax
    b532:	89 c2                	mov    %eax,%edx
    b534:	48 8d 35 93 15 00 00 	lea    0x1593(%rip),%rsi        # cace <g_1875+0xa5e>
    b53b:	48 89 cf             	mov    %rcx,%rdi
    b53e:	e8 b0 c1 ff ff       	callq  76f3 <transparent_crc>
    b543:	8b 45 f4             	mov    -0xc(%rbp),%eax
    b546:	48 63 d0             	movslq %eax,%rdx
    b549:	48 89 d0             	mov    %rdx,%rax
    b54c:	48 01 c0             	add    %rax,%rax
    b54f:	48 01 d0             	add    %rdx,%rax
    b552:	48 c1 e0 03          	shl    $0x3,%rax
    b556:	48 89 c2             	mov    %rax,%rdx
    b559:	48 8d 05 96 4f 00 00 	lea    0x4f96(%rip),%rax        # 104f6 <g_2001+0x16>
    b560:	0f b7 04 02          	movzwl (%rdx,%rax,1),%eax
    b564:	48 0f bf c0          	movswq %ax,%rax
    b568:	8b 55 fc             	mov    -0x4(%rbp),%edx
    b56b:	48 8d 35 69 15 00 00 	lea    0x1569(%rip),%rsi        # cadb <g_1875+0xa6b>
    b572:	48 89 c7             	mov    %rax,%rdi
    b575:	e8 79 c1 ff ff       	callq  76f3 <transparent_crc>
    b57a:	83 7d fc 00          	cmpl   $0x0,-0x4(%rbp)
    b57e:	74 16                	je     b596 <main+0x1861>
    b580:	8b 45 f4             	mov    -0xc(%rbp),%eax
    b583:	89 c6                	mov    %eax,%esi
    b585:	48 8d 3d 7c 0f 00 00 	lea    0xf7c(%rip),%rdi        # c508 <g_1875+0x498>
    b58c:	b8 00 00 00 00       	mov    $0x0,%eax
    b591:	e8 ea aa ff ff       	callq  6080 <printf@plt>
    b596:	83 45 f4 01          	addl   $0x1,-0xc(%rbp)
    b59a:	83 7d f4 04          	cmpl   $0x4,-0xc(%rbp)
    b59e:	0f 8e 1f fe ff ff    	jle    b3c3 <main+0x168e>
    b5a4:	8b 05 ae 4f 00 00    	mov    0x4fae(%rip),%eax        # 10558 <g_2123>
    b5aa:	89 c1                	mov    %eax,%ecx
    b5ac:	8b 45 fc             	mov    -0x4(%rbp),%eax
    b5af:	89 c2                	mov    %eax,%edx
    b5b1:	48 8d 35 30 15 00 00 	lea    0x1530(%rip),%rsi        # cae8 <g_1875+0xa78>
    b5b8:	48 89 cf             	mov    %rcx,%rdi
    b5bb:	e8 33 c1 ff ff       	callq  76f3 <transparent_crc>
    b5c0:	c7 45 f4 00 00 00 00 	movl   $0x0,-0xc(%rbp)
    b5c7:	e9 d7 01 00 00       	jmpq   b7a3 <main+0x1a6e>
    b5cc:	8b 45 f4             	mov    -0xc(%rbp),%eax
    b5cf:	48 63 d0             	movslq %eax,%rdx
    b5d2:	48 89 d0             	mov    %rdx,%rax
    b5d5:	48 01 c0             	add    %rax,%rax
    b5d8:	48 01 d0             	add    %rdx,%rax
    b5db:	48 c1 e0 03          	shl    $0x3,%rax
    b5df:	48 89 c2             	mov    %rax,%rdx
    b5e2:	48 8d 05 77 4f 00 00 	lea    0x4f77(%rip),%rax        # 10560 <g_2182>
    b5e9:	8b 04 02             	mov    (%rdx,%rax,1),%eax
    b5ec:	89 c1                	mov    %eax,%ecx
    b5ee:	8b 45 fc             	mov    -0x4(%rbp),%eax
    b5f1:	89 c2                	mov    %eax,%edx
    b5f3:	48 8d 35 f5 14 00 00 	lea    0x14f5(%rip),%rsi        # caef <g_1875+0xa7f>
    b5fa:	48 89 cf             	mov    %rcx,%rdi
    b5fd:	e8 f1 c0 ff ff       	callq  76f3 <transparent_crc>
    b602:	8b 45 f4             	mov    -0xc(%rbp),%eax
    b605:	48 63 d0             	movslq %eax,%rdx
    b608:	48 89 d0             	mov    %rdx,%rax
    b60b:	48 01 c0             	add    %rax,%rax
    b60e:	48 01 d0             	add    %rdx,%rax
    b611:	48 c1 e0 03          	shl    $0x3,%rax
    b615:	48 89 c2             	mov    %rax,%rdx
    b618:	48 8d 05 45 4f 00 00 	lea    0x4f45(%rip),%rax        # 10564 <g_2182+0x4>
    b61f:	0f b7 04 02          	movzwl (%rdx,%rax,1),%eax
    b623:	48 0f bf c0          	movswq %ax,%rax
    b627:	8b 55 fc             	mov    -0x4(%rbp),%edx
    b62a:	48 8d 35 cb 14 00 00 	lea    0x14cb(%rip),%rsi        # cafc <g_1875+0xa8c>
    b631:	48 89 c7             	mov    %rax,%rdi
    b634:	e8 ba c0 ff ff       	callq  76f3 <transparent_crc>
    b639:	8b 45 f4             	mov    -0xc(%rbp),%eax
    b63c:	48 63 d0             	movslq %eax,%rdx
    b63f:	48 89 d0             	mov    %rdx,%rax
    b642:	48 01 c0             	add    %rax,%rax
    b645:	48 01 d0             	add    %rdx,%rax
    b648:	48 c1 e0 03          	shl    $0x3,%rax
    b64c:	48 89 c2             	mov    %rax,%rdx
    b64f:	48 8d 05 10 4f 00 00 	lea    0x4f10(%rip),%rax        # 10566 <g_2182+0x6>
    b656:	0f b7 04 02          	movzwl (%rdx,%rax,1),%eax
    b65a:	48 0f bf c0          	movswq %ax,%rax
    b65e:	8b 55 fc             	mov    -0x4(%rbp),%edx
    b661:	48 8d 35 a1 14 00 00 	lea    0x14a1(%rip),%rsi        # cb09 <g_1875+0xa99>
    b668:	48 89 c7             	mov    %rax,%rdi
    b66b:	e8 83 c0 ff ff       	callq  76f3 <transparent_crc>
    b670:	8b 45 f4             	mov    -0xc(%rbp),%eax
    b673:	48 63 d0             	movslq %eax,%rdx
    b676:	48 89 d0             	mov    %rdx,%rax
    b679:	48 01 c0             	add    %rax,%rax
    b67c:	48 01 d0             	add    %rdx,%rax
    b67f:	48 c1 e0 03          	shl    $0x3,%rax
    b683:	48 89 c2             	mov    %rax,%rdx
    b686:	48 8d 05 db 4e 00 00 	lea    0x4edb(%rip),%rax        # 10568 <g_2182+0x8>
    b68d:	0f b6 04 02          	movzbl (%rdx,%rax,1),%eax
    b691:	0f b6 c0             	movzbl %al,%eax
    b694:	8b 55 fc             	mov    -0x4(%rbp),%edx
    b697:	48 8d 35 78 14 00 00 	lea    0x1478(%rip),%rsi        # cb16 <g_1875+0xaa6>
    b69e:	48 89 c7             	mov    %rax,%rdi
    b6a1:	e8 4d c0 ff ff       	callq  76f3 <transparent_crc>
    b6a6:	8b 45 f4             	mov    -0xc(%rbp),%eax
    b6a9:	48 63 d0             	movslq %eax,%rdx
    b6ac:	48 89 d0             	mov    %rdx,%rax
    b6af:	48 01 c0             	add    %rax,%rax
    b6b2:	48 01 d0             	add    %rdx,%rax
    b6b5:	48 c1 e0 03          	shl    $0x3,%rax
    b6b9:	48 89 c2             	mov    %rax,%rdx
    b6bc:	48 8d 05 9d 4e 00 00 	lea    0x4e9d(%rip),%rax        # 10560 <g_2182>
    b6c3:	8b 44 02 09          	mov    0x9(%rdx,%rax,1),%eax
    b6c7:	89 c1                	mov    %eax,%ecx
    b6c9:	8b 45 fc             	mov    -0x4(%rbp),%eax
    b6cc:	89 c2                	mov    %eax,%edx
    b6ce:	48 8d 35 4e 14 00 00 	lea    0x144e(%rip),%rsi        # cb23 <g_1875+0xab3>
    b6d5:	48 89 cf             	mov    %rcx,%rdi
    b6d8:	e8 16 c0 ff ff       	callq  76f3 <transparent_crc>
    b6dd:	8b 45 f4             	mov    -0xc(%rbp),%eax
    b6e0:	48 63 d0             	movslq %eax,%rdx
    b6e3:	48 89 d0             	mov    %rdx,%rax
    b6e6:	48 01 c0             	add    %rax,%rax
    b6e9:	48 01 d0             	add    %rdx,%rax
    b6ec:	48 c1 e0 03          	shl    $0x3,%rax
    b6f0:	48 89 c2             	mov    %rax,%rdx
    b6f3:	48 8d 05 73 4e 00 00 	lea    0x4e73(%rip),%rax        # 1056d <g_2182+0xd>
    b6fa:	0f b6 04 02          	movzbl (%rdx,%rax,1),%eax
    b6fe:	0f b6 c0             	movzbl %al,%eax
    b701:	8b 55 fc             	mov    -0x4(%rbp),%edx
    b704:	48 8d 35 25 14 00 00 	lea    0x1425(%rip),%rsi        # cb30 <g_1875+0xac0>
    b70b:	48 89 c7             	mov    %rax,%rdi
    b70e:	e8 e0 bf ff ff       	callq  76f3 <transparent_crc>
    b713:	8b 45 f4             	mov    -0xc(%rbp),%eax
    b716:	48 63 d0             	movslq %eax,%rdx
    b719:	48 89 d0             	mov    %rdx,%rax
    b71c:	48 01 c0             	add    %rax,%rax
    b71f:	48 01 d0             	add    %rdx,%rax
    b722:	48 c1 e0 03          	shl    $0x3,%rax
    b726:	48 89 c2             	mov    %rax,%rdx
    b729:	48 8d 05 30 4e 00 00 	lea    0x4e30(%rip),%rax        # 10560 <g_2182>
    b730:	48 8b 44 02 0e       	mov    0xe(%rdx,%rax,1),%rax
    b735:	48 89 c1             	mov    %rax,%rcx
    b738:	8b 45 fc             	mov    -0x4(%rbp),%eax
    b73b:	89 c2                	mov    %eax,%edx
    b73d:	48 8d 35 f9 13 00 00 	lea    0x13f9(%rip),%rsi        # cb3d <g_1875+0xacd>
    b744:	48 89 cf             	mov    %rcx,%rdi
    b747:	e8 a7 bf ff ff       	callq  76f3 <transparent_crc>
    b74c:	8b 45 f4             	mov    -0xc(%rbp),%eax
    b74f:	48 63 d0             	movslq %eax,%rdx
    b752:	48 89 d0             	mov    %rdx,%rax
    b755:	48 01 c0             	add    %rax,%rax
    b758:	48 01 d0             	add    %rdx,%rax
    b75b:	48 c1 e0 03          	shl    $0x3,%rax
    b75f:	48 89 c2             	mov    %rax,%rdx
    b762:	48 8d 05 0d 4e 00 00 	lea    0x4e0d(%rip),%rax        # 10576 <g_2182+0x16>
    b769:	0f b7 04 02          	movzwl (%rdx,%rax,1),%eax
    b76d:	48 0f bf c0          	movswq %ax,%rax
    b771:	8b 55 fc             	mov    -0x4(%rbp),%edx
    b774:	48 8d 35 cf 13 00 00 	lea    0x13cf(%rip),%rsi        # cb4a <g_1875+0xada>
    b77b:	48 89 c7             	mov    %rax,%rdi
    b77e:	e8 70 bf ff ff       	callq  76f3 <transparent_crc>
    b783:	83 7d fc 00          	cmpl   $0x0,-0x4(%rbp)
    b787:	74 16                	je     b79f <main+0x1a6a>
    b789:	8b 45 f4             	mov    -0xc(%rbp),%eax
    b78c:	89 c6                	mov    %eax,%esi
    b78e:	48 8d 3d 73 0d 00 00 	lea    0xd73(%rip),%rdi        # c508 <g_1875+0x498>
    b795:	b8 00 00 00 00       	mov    $0x0,%eax
    b79a:	e8 e1 a8 ff ff       	callq  6080 <printf@plt>
    b79f:	83 45 f4 01          	addl   $0x1,-0xc(%rbp)
    b7a3:	83 7d f4 02          	cmpl   $0x2,-0xc(%rbp)
    b7a7:	0f 8e 1f fe ff ff    	jle    b5cc <main+0x1897>
    b7ad:	8b 05 fd 4d 00 00    	mov    0x4dfd(%rip),%eax        # 105b0 <g_2203>
    b7b3:	89 c1                	mov    %eax,%ecx
    b7b5:	8b 45 fc             	mov    -0x4(%rbp),%eax
    b7b8:	89 c2                	mov    %eax,%edx
    b7ba:	48 8d 35 96 13 00 00 	lea    0x1396(%rip),%rsi        # cb57 <g_1875+0xae7>
    b7c1:	48 89 cf             	mov    %rcx,%rdi
    b7c4:	e8 2a bf ff ff       	callq  76f3 <transparent_crc>
    b7c9:	0f b7 05 e4 4d 00 00 	movzwl 0x4de4(%rip),%eax        # 105b4 <g_2203+0x4>
    b7d0:	48 0f bf c0          	movswq %ax,%rax
    b7d4:	8b 55 fc             	mov    -0x4(%rbp),%edx
    b7d7:	48 8d 35 83 13 00 00 	lea    0x1383(%rip),%rsi        # cb61 <g_1875+0xaf1>
    b7de:	48 89 c7             	mov    %rax,%rdi
    b7e1:	e8 0d bf ff ff       	callq  76f3 <transparent_crc>
    b7e6:	0f b7 05 c9 4d 00 00 	movzwl 0x4dc9(%rip),%eax        # 105b6 <g_2203+0x6>
    b7ed:	48 0f bf c0          	movswq %ax,%rax
    b7f1:	8b 55 fc             	mov    -0x4(%rbp),%edx
    b7f4:	48 8d 35 70 13 00 00 	lea    0x1370(%rip),%rsi        # cb6b <g_1875+0xafb>
    b7fb:	48 89 c7             	mov    %rax,%rdi
    b7fe:	e8 f0 be ff ff       	callq  76f3 <transparent_crc>
    b803:	0f b6 05 ae 4d 00 00 	movzbl 0x4dae(%rip),%eax        # 105b8 <g_2203+0x8>
    b80a:	0f b6 c0             	movzbl %al,%eax
    b80d:	8b 55 fc             	mov    -0x4(%rbp),%edx
    b810:	48 8d 35 5e 13 00 00 	lea    0x135e(%rip),%rsi        # cb75 <g_1875+0xb05>
    b817:	48 89 c7             	mov    %rax,%rdi
    b81a:	e8 d4 be ff ff       	callq  76f3 <transparent_crc>
    b81f:	8b 05 94 4d 00 00    	mov    0x4d94(%rip),%eax        # 105b9 <g_2203+0x9>
    b825:	89 c1                	mov    %eax,%ecx
    b827:	8b 45 fc             	mov    -0x4(%rbp),%eax
    b82a:	89 c2                	mov    %eax,%edx
    b82c:	48 8d 35 4c 13 00 00 	lea    0x134c(%rip),%rsi        # cb7f <g_1875+0xb0f>
    b833:	48 89 cf             	mov    %rcx,%rdi
    b836:	e8 b8 be ff ff       	callq  76f3 <transparent_crc>
    b83b:	0f b6 05 7b 4d 00 00 	movzbl 0x4d7b(%rip),%eax        # 105bd <g_2203+0xd>
    b842:	0f b6 c0             	movzbl %al,%eax
    b845:	8b 55 fc             	mov    -0x4(%rbp),%edx
    b848:	48 8d 35 3a 13 00 00 	lea    0x133a(%rip),%rsi        # cb89 <g_1875+0xb19>
    b84f:	48 89 c7             	mov    %rax,%rdi
    b852:	e8 9c be ff ff       	callq  76f3 <transparent_crc>
    b857:	48 8b 05 60 4d 00 00 	mov    0x4d60(%rip),%rax        # 105be <g_2203+0xe>
    b85e:	48 89 c1             	mov    %rax,%rcx
    b861:	8b 45 fc             	mov    -0x4(%rbp),%eax
    b864:	89 c2                	mov    %eax,%edx
    b866:	48 8d 35 26 13 00 00 	lea    0x1326(%rip),%rsi        # cb93 <g_1875+0xb23>
    b86d:	48 89 cf             	mov    %rcx,%rdi
    b870:	e8 7e be ff ff       	callq  76f3 <transparent_crc>
    b875:	0f b7 05 4a 4d 00 00 	movzwl 0x4d4a(%rip),%eax        # 105c6 <g_2203+0x16>
    b87c:	48 0f bf c0          	movswq %ax,%rax
    b880:	8b 55 fc             	mov    -0x4(%rbp),%edx
    b883:	48 8d 35 13 13 00 00 	lea    0x1313(%rip),%rsi        # cb9d <g_1875+0xb2d>
    b88a:	48 89 c7             	mov    %rax,%rdi
    b88d:	e8 61 be ff ff       	callq  76f3 <transparent_crc>
    b892:	48 8b 05 2f 4d 00 00 	mov    0x4d2f(%rip),%rax        # 105c8 <g_2205>
    b899:	8b 55 fc             	mov    -0x4(%rbp),%edx
    b89c:	48 8d 35 04 13 00 00 	lea    0x1304(%rip),%rsi        # cba7 <g_1875+0xb37>
    b8a3:	48 89 c7             	mov    %rax,%rdi
    b8a6:	e8 48 be ff ff       	callq  76f3 <transparent_crc>
    b8ab:	48 8b 05 1e 4d 00 00 	mov    0x4d1e(%rip),%rax        # 105d0 <g_2270>
    b8b2:	8b 55 fc             	mov    -0x4(%rbp),%edx
    b8b5:	48 8d 35 f2 12 00 00 	lea    0x12f2(%rip),%rsi        # cbae <g_1875+0xb3e>
    b8bc:	48 89 c7             	mov    %rax,%rdi
    b8bf:	e8 2f be ff ff       	callq  76f3 <transparent_crc>
    b8c4:	48 8b 05 0d 4d 00 00 	mov    0x4d0d(%rip),%rax        # 105d8 <g_2304>
    b8cb:	48 89 c1             	mov    %rax,%rcx
    b8ce:	8b 45 fc             	mov    -0x4(%rbp),%eax
    b8d1:	89 c2                	mov    %eax,%edx
    b8d3:	48 8d 35 db 12 00 00 	lea    0x12db(%rip),%rsi        # cbb5 <g_1875+0xb45>
    b8da:	48 89 cf             	mov    %rcx,%rdi
    b8dd:	e8 11 be ff ff       	callq  76f3 <transparent_crc>
    b8e2:	48 8b 05 f7 4c 00 00 	mov    0x4cf7(%rip),%rax        # 105e0 <g_2315>
    b8e9:	8b 55 fc             	mov    -0x4(%rbp),%edx
    b8ec:	48 8d 35 c9 12 00 00 	lea    0x12c9(%rip),%rsi        # cbbc <g_1875+0xb4c>
    b8f3:	48 89 c7             	mov    %rax,%rdi
    b8f6:	e8 f8 bd ff ff       	callq  76f3 <transparent_crc>
    b8fb:	8b 05 e7 4c 00 00    	mov    0x4ce7(%rip),%eax        # 105e8 <g_2349>
    b901:	48 98                	cltq   
    b903:	8b 55 fc             	mov    -0x4(%rbp),%edx
    b906:	48 8d 35 b6 12 00 00 	lea    0x12b6(%rip),%rsi        # cbc3 <g_1875+0xb53>
    b90d:	48 89 c7             	mov    %rax,%rdi
    b910:	e8 de bd ff ff       	callq  76f3 <transparent_crc>
    b915:	8b 05 05 47 00 00    	mov    0x4705(%rip),%eax        # 10020 <crc32_context>
    b91b:	f7 d0                	not    %eax
    b91d:	89 c2                	mov    %eax,%edx
    b91f:	8b 45 fc             	mov    -0x4(%rbp),%eax
    b922:	89 c6                	mov    %eax,%esi
    b924:	89 d7                	mov    %edx,%edi
    b926:	e8 69 a8 ff ff       	callq  6194 <platform_main_end>
    b92b:	b8 00 00 00 00       	mov    $0x0,%eax
    b930:	c9                   	leaveq 
    b931:	c3                   	retq   
    b932:	66 2e 0f 1f 84 00 00 	nopw   %cs:0x0(%rax,%rax,1)
    b939:	00 00 00 
    b93c:	0f 1f 40 00          	nopl   0x0(%rax)

000000000000b940 <__libc_csu_init>:
    b940:	f3 0f 1e fa          	endbr64 
    b944:	41 57                	push   %r15
    b946:	4c 8d 3d 4b 44 00 00 	lea    0x444b(%rip),%r15        # fd98 <__frame_dummy_init_array_entry>
    b94d:	41 56                	push   %r14
    b94f:	49 89 d6             	mov    %rdx,%r14
    b952:	41 55                	push   %r13
    b954:	49 89 f5             	mov    %rsi,%r13
    b957:	41 54                	push   %r12
    b959:	41 89 fc             	mov    %edi,%r12d
    b95c:	55                   	push   %rbp
    b95d:	48 8d 2d 3c 44 00 00 	lea    0x443c(%rip),%rbp        # fda0 <__do_global_dtors_aux_fini_array_entry>
    b964:	53                   	push   %rbx
    b965:	4c 29 fd             	sub    %r15,%rbp
    b968:	48 83 ec 08          	sub    $0x8,%rsp
    b96c:	e8 8f a6 ff ff       	callq  6000 <_init>
    b971:	48 c1 fd 03          	sar    $0x3,%rbp
    b975:	74 1f                	je     b996 <__libc_csu_init+0x56>
    b977:	31 db                	xor    %ebx,%ebx
    b979:	0f 1f 80 00 00 00 00 	nopl   0x0(%rax)
    b980:	4c 89 f2             	mov    %r14,%rdx
    b983:	4c 89 ee             	mov    %r13,%rsi
    b986:	44 89 e7             	mov    %r12d,%edi
    b989:	41 ff 14 df          	callq  *(%r15,%rbx,8)
    b98d:	48 83 c3 01          	add    $0x1,%rbx
    b991:	48 39 dd             	cmp    %rbx,%rbp
    b994:	75 ea                	jne    b980 <__libc_csu_init+0x40>
    b996:	48 83 c4 08          	add    $0x8,%rsp
    b99a:	5b                   	pop    %rbx
    b99b:	5d                   	pop    %rbp
    b99c:	41 5c                	pop    %r12
    b99e:	41 5d                	pop    %r13
    b9a0:	41 5e                	pop    %r14
    b9a2:	41 5f                	pop    %r15
    b9a4:	c3                   	retq   
    b9a5:	66 66 2e 0f 1f 84 00 	data16 nopw %cs:0x0(%rax,%rax,1)
    b9ac:	00 00 00 00 

000000000000b9b0 <__libc_csu_fini>:
    b9b0:	f3 0f 1e fa          	endbr64 
    b9b4:	c3                   	retq   
