


Disassembly of section .text:

00000000000060a0 <_start>:
    60a0:	f3 0f 1e fa          	endbr64 
    60a4:	31 ed                	xor    %ebp,%ebp
    60a6:	49 89 d1             	mov    %rdx,%r9
    60a9:	5e                   	pop    %rsi
    60aa:	48 89 e2             	mov    %rsp,%rdx
    60ad:	48 83 e4 f0          	and    $0xfffffffffffffff0,%rsp
    60b1:	50                   	push   %rax
    60b2:	54                   	push   %rsp
    60b3:	4c 8d 05 36 b4 00 00 	lea    0xb436(%rip),%r8        # 114f0 <__libc_csu_fini>
    60ba:	48 8d 0d bf b3 00 00 	lea    0xb3bf(%rip),%rcx        # 11480 <__libc_csu_init>
    60c1:	48 8d 3d 9a ac 00 00 	lea    0xac9a(%rip),%rdi        # 10d62 <main>
    60c8:	ff 15 fa fe 00 00    	callq  *0xfefa(%rip)        # 15fc8 <__libc_start_main@GLIBC_2.2.5>
    60ce:	f4                   	hlt    
    60cf:	90                   	nop

00000000000060d0 <deregister_tm_clones>:
    60d0:	48 8d 3d c1 20 01 00 	lea    0x120c1(%rip),%rdi        # 18198 <__TMC_END__>
    60d7:	48 8d 05 ba 20 01 00 	lea    0x120ba(%rip),%rax        # 18198 <__TMC_END__>
    60de:	48 39 f8             	cmp    %rdi,%rax
    60e1:	74 15                	je     60f8 <deregister_tm_clones+0x28>
    60e3:	48 8b 05 d6 fe 00 00 	mov    0xfed6(%rip),%rax        # 15fc0 <_ITM_deregisterTMCloneTable>
    60ea:	48 85 c0             	test   %rax,%rax
    60ed:	74 09                	je     60f8 <deregister_tm_clones+0x28>
    60ef:	ff e0                	jmpq   *%rax
    60f1:	0f 1f 80 00 00 00 00 	nopl   0x0(%rax)
    60f8:	c3                   	retq   
    60f9:	0f 1f 80 00 00 00 00 	nopl   0x0(%rax)

0000000000006100 <register_tm_clones>:
    6100:	48 8d 3d 91 20 01 00 	lea    0x12091(%rip),%rdi        # 18198 <__TMC_END__>
    6107:	48 8d 35 8a 20 01 00 	lea    0x1208a(%rip),%rsi        # 18198 <__TMC_END__>
    610e:	48 29 fe             	sub    %rdi,%rsi
    6111:	48 89 f0             	mov    %rsi,%rax
    6114:	48 c1 ee 3f          	shr    $0x3f,%rsi
    6118:	48 c1 f8 03          	sar    $0x3,%rax
    611c:	48 01 c6             	add    %rax,%rsi
    611f:	48 d1 fe             	sar    %rsi
    6122:	74 14                	je     6138 <register_tm_clones+0x38>
    6124:	48 8b 05 ad fe 00 00 	mov    0xfead(%rip),%rax        # 15fd8 <_ITM_registerTMCloneTable>
    612b:	48 85 c0             	test   %rax,%rax
    612e:	74 08                	je     6138 <register_tm_clones+0x38>
    6130:	ff e0                	jmpq   *%rax
    6132:	66 0f 1f 44 00 00    	nopw   0x0(%rax,%rax,1)
    6138:	c3                   	retq   
    6139:	0f 1f 80 00 00 00 00 	nopl   0x0(%rax)

0000000000006140 <__do_global_dtors_aux>:
    6140:	f3 0f 1e fa          	endbr64 
    6144:	80 3d 55 20 01 00 00 	cmpb   $0x0,0x12055(%rip)        # 181a0 <completed.8061>
    614b:	75 2b                	jne    6178 <__do_global_dtors_aux+0x38>
    614d:	55                   	push   %rbp
    614e:	48 83 3d 8a fe 00 00 	cmpq   $0x0,0xfe8a(%rip)        # 15fe0 <__cxa_finalize@GLIBC_2.2.5>
    6155:	00 
    6156:	48 89 e5             	mov    %rsp,%rbp
    6159:	74 0c                	je     6167 <__do_global_dtors_aux+0x27>
    615b:	48 8b 3d a6 fe 00 00 	mov    0xfea6(%rip),%rdi        # 16008 <__dso_handle>
    6162:	e8 f9 fe ff ff       	callq  6060 <__cxa_finalize@plt>
    6167:	e8 64 ff ff ff       	callq  60d0 <deregister_tm_clones>
    616c:	c6 05 2d 20 01 00 01 	movb   $0x1,0x1202d(%rip)        # 181a0 <completed.8061>
    6173:	5d                   	pop    %rbp
    6174:	c3                   	retq   
    6175:	0f 1f 00             	nopl   (%rax)
    6178:	c3                   	retq   
    6179:	0f 1f 80 00 00 00 00 	nopl   0x0(%rax)

0000000000006180 <frame_dummy>:
    6180:	f3 0f 1e fa          	endbr64 
    6184:	e9 77 ff ff ff       	jmpq   6100 <register_tm_clones>

0000000000006189 <platform_main_begin>:
    6189:	f3 0f 1e fa          	endbr64 
    618d:	55                   	push   %rbp
    618e:	48 89 e5             	mov    %rsp,%rbp
    6191:	90                   	nop
    6192:	5d                   	pop    %rbp
    6193:	c3                   	retq   

0000000000006194 <platform_main_end>:
    6194:	f3 0f 1e fa          	endbr64 
    6198:	55                   	push   %rbp
    6199:	48 89 e5             	mov    %rsp,%rbp
    619c:	48 83 ec 10          	sub    $0x10,%rsp
    61a0:	89 7d fc             	mov    %edi,-0x4(%rbp)
    61a3:	89 75 f8             	mov    %esi,-0x8(%rbp)
    61a6:	8b 45 fc             	mov    -0x4(%rbp),%eax
    61a9:	89 c6                	mov    %eax,%esi
    61ab:	48 8d 3d 6e be 00 00 	lea    0xbe6e(%rip),%rdi        # 12020 <_IO_stdin_used+0x20>
    61b2:	b8 00 00 00 00       	mov    $0x0,%eax
    61b7:	e8 c4 fe ff ff       	callq  6080 <printf@plt>
    61bc:	90                   	nop
    61bd:	c9                   	leaveq 
    61be:	c3                   	retq   

00000000000061bf <safe_unary_minus_func_int8_t_s>:
    61bf:	f3 0f 1e fa          	endbr64 
    61c3:	55                   	push   %rbp
    61c4:	48 89 e5             	mov    %rsp,%rbp
    61c7:	89 f8                	mov    %edi,%eax
    61c9:	88 45 fc             	mov    %al,-0x4(%rbp)
    61cc:	0f b6 45 fc          	movzbl -0x4(%rbp),%eax
    61d0:	f7 d8                	neg    %eax
    61d2:	5d                   	pop    %rbp
    61d3:	c3                   	retq   

00000000000061d4 <safe_add_func_int8_t_s_s>:
    61d4:	f3 0f 1e fa          	endbr64 
    61d8:	55                   	push   %rbp
    61d9:	48 89 e5             	mov    %rsp,%rbp
    61dc:	89 fa                	mov    %edi,%edx
    61de:	89 f0                	mov    %esi,%eax
    61e0:	88 55 fc             	mov    %dl,-0x4(%rbp)
    61e3:	88 45 f8             	mov    %al,-0x8(%rbp)
    61e6:	0f b6 55 fc          	movzbl -0x4(%rbp),%edx
    61ea:	0f b6 45 f8          	movzbl -0x8(%rbp),%eax
    61ee:	01 d0                	add    %edx,%eax
    61f0:	5d                   	pop    %rbp
    61f1:	c3                   	retq   

00000000000061f2 <safe_sub_func_int8_t_s_s>:
    61f2:	f3 0f 1e fa          	endbr64 
    61f6:	55                   	push   %rbp
    61f7:	48 89 e5             	mov    %rsp,%rbp
    61fa:	89 fa                	mov    %edi,%edx
    61fc:	89 f0                	mov    %esi,%eax
    61fe:	88 55 fc             	mov    %dl,-0x4(%rbp)
    6201:	88 45 f8             	mov    %al,-0x8(%rbp)
    6204:	0f b6 55 fc          	movzbl -0x4(%rbp),%edx
    6208:	0f b6 45 f8          	movzbl -0x8(%rbp),%eax
    620c:	29 c2                	sub    %eax,%edx
    620e:	89 d0                	mov    %edx,%eax
    6210:	5d                   	pop    %rbp
    6211:	c3                   	retq   

0000000000006212 <safe_mul_func_int8_t_s_s>:
    6212:	f3 0f 1e fa          	endbr64 
    6216:	55                   	push   %rbp
    6217:	48 89 e5             	mov    %rsp,%rbp
    621a:	89 fa                	mov    %edi,%edx
    621c:	89 f0                	mov    %esi,%eax
    621e:	88 55 fc             	mov    %dl,-0x4(%rbp)
    6221:	88 45 f8             	mov    %al,-0x8(%rbp)
    6224:	0f b6 45 fc          	movzbl -0x4(%rbp),%eax
    6228:	0f b6 55 f8          	movzbl -0x8(%rbp),%edx
    622c:	0f af c2             	imul   %edx,%eax
    622f:	5d                   	pop    %rbp
    6230:	c3                   	retq   

0000000000006231 <safe_mod_func_int8_t_s_s>:
    6231:	f3 0f 1e fa          	endbr64 
    6235:	55                   	push   %rbp
    6236:	48 89 e5             	mov    %rsp,%rbp
    6239:	89 fa                	mov    %edi,%edx
    623b:	89 f0                	mov    %esi,%eax
    623d:	88 55 fc             	mov    %dl,-0x4(%rbp)
    6240:	88 45 f8             	mov    %al,-0x8(%rbp)
    6243:	80 7d f8 00          	cmpb   $0x0,-0x8(%rbp)
    6247:	74 1b                	je     6264 <safe_mod_func_int8_t_s_s+0x33>
    6249:	80 7d fc 80          	cmpb   $0x80,-0x4(%rbp)
    624d:	75 06                	jne    6255 <safe_mod_func_int8_t_s_s+0x24>
    624f:	80 7d f8 ff          	cmpb   $0xff,-0x8(%rbp)
    6253:	74 0f                	je     6264 <safe_mod_func_int8_t_s_s+0x33>
    6255:	0f be 45 fc          	movsbl -0x4(%rbp),%eax
    6259:	0f be 4d f8          	movsbl -0x8(%rbp),%ecx
    625d:	99                   	cltd   
    625e:	f7 f9                	idiv   %ecx
    6260:	89 d0                	mov    %edx,%eax
    6262:	eb 04                	jmp    6268 <safe_mod_func_int8_t_s_s+0x37>
    6264:	0f b6 45 fc          	movzbl -0x4(%rbp),%eax
    6268:	5d                   	pop    %rbp
    6269:	c3                   	retq   

000000000000626a <safe_div_func_int8_t_s_s>:
    626a:	f3 0f 1e fa          	endbr64 
    626e:	55                   	push   %rbp
    626f:	48 89 e5             	mov    %rsp,%rbp
    6272:	89 fa                	mov    %edi,%edx
    6274:	89 f0                	mov    %esi,%eax
    6276:	88 55 fc             	mov    %dl,-0x4(%rbp)
    6279:	88 45 f8             	mov    %al,-0x8(%rbp)
    627c:	80 7d f8 00          	cmpb   $0x0,-0x8(%rbp)
    6280:	74 19                	je     629b <safe_div_func_int8_t_s_s+0x31>
    6282:	80 7d fc 80          	cmpb   $0x80,-0x4(%rbp)
    6286:	75 06                	jne    628e <safe_div_func_int8_t_s_s+0x24>
    6288:	80 7d f8 ff          	cmpb   $0xff,-0x8(%rbp)
    628c:	74 0d                	je     629b <safe_div_func_int8_t_s_s+0x31>
    628e:	0f be 45 fc          	movsbl -0x4(%rbp),%eax
    6292:	0f be 4d f8          	movsbl -0x8(%rbp),%ecx
    6296:	99                   	cltd   
    6297:	f7 f9                	idiv   %ecx
    6299:	eb 04                	jmp    629f <safe_div_func_int8_t_s_s+0x35>
    629b:	0f b6 45 fc          	movzbl -0x4(%rbp),%eax
    629f:	5d                   	pop    %rbp
    62a0:	c3                   	retq   

00000000000062a1 <safe_lshift_func_int8_t_s_s>:
    62a1:	f3 0f 1e fa          	endbr64 
    62a5:	55                   	push   %rbp
    62a6:	48 89 e5             	mov    %rsp,%rbp
    62a9:	89 f8                	mov    %edi,%eax
    62ab:	89 75 f8             	mov    %esi,-0x8(%rbp)
    62ae:	88 45 fc             	mov    %al,-0x4(%rbp)
    62b1:	80 7d fc 00          	cmpb   $0x0,-0x4(%rbp)
    62b5:	78 31                	js     62e8 <safe_lshift_func_int8_t_s_s+0x47>
    62b7:	83 7d f8 00          	cmpl   $0x0,-0x8(%rbp)
    62bb:	78 2b                	js     62e8 <safe_lshift_func_int8_t_s_s+0x47>
    62bd:	83 7d f8 1f          	cmpl   $0x1f,-0x8(%rbp)
    62c1:	7f 25                	jg     62e8 <safe_lshift_func_int8_t_s_s+0x47>
    62c3:	0f be 55 fc          	movsbl -0x4(%rbp),%edx
    62c7:	8b 45 f8             	mov    -0x8(%rbp),%eax
    62ca:	be 7f 00 00 00       	mov    $0x7f,%esi
    62cf:	89 c1                	mov    %eax,%ecx
    62d1:	d3 fe                	sar    %cl,%esi
    62d3:	89 f0                	mov    %esi,%eax
    62d5:	39 c2                	cmp    %eax,%edx
    62d7:	7f 0f                	jg     62e8 <safe_lshift_func_int8_t_s_s+0x47>
    62d9:	0f be 55 fc          	movsbl -0x4(%rbp),%edx
    62dd:	8b 45 f8             	mov    -0x8(%rbp),%eax
    62e0:	89 c1                	mov    %eax,%ecx
    62e2:	d3 e2                	shl    %cl,%edx
    62e4:	89 d0                	mov    %edx,%eax
    62e6:	eb 04                	jmp    62ec <safe_lshift_func_int8_t_s_s+0x4b>
    62e8:	0f b6 45 fc          	movzbl -0x4(%rbp),%eax
    62ec:	5d                   	pop    %rbp
    62ed:	c3                   	retq   

00000000000062ee <safe_lshift_func_int8_t_s_u>:
    62ee:	f3 0f 1e fa          	endbr64 
    62f2:	55                   	push   %rbp
    62f3:	48 89 e5             	mov    %rsp,%rbp
    62f6:	89 f8                	mov    %edi,%eax
    62f8:	89 75 f8             	mov    %esi,-0x8(%rbp)
    62fb:	88 45 fc             	mov    %al,-0x4(%rbp)
    62fe:	80 7d fc 00          	cmpb   $0x0,-0x4(%rbp)
    6302:	78 2b                	js     632f <safe_lshift_func_int8_t_s_u+0x41>
    6304:	83 7d f8 1f          	cmpl   $0x1f,-0x8(%rbp)
    6308:	77 25                	ja     632f <safe_lshift_func_int8_t_s_u+0x41>
    630a:	0f be 55 fc          	movsbl -0x4(%rbp),%edx
    630e:	8b 45 f8             	mov    -0x8(%rbp),%eax
    6311:	be 7f 00 00 00       	mov    $0x7f,%esi
    6316:	89 c1                	mov    %eax,%ecx
    6318:	d3 fe                	sar    %cl,%esi
    631a:	89 f0                	mov    %esi,%eax
    631c:	39 c2                	cmp    %eax,%edx
    631e:	7f 0f                	jg     632f <safe_lshift_func_int8_t_s_u+0x41>
    6320:	0f be 55 fc          	movsbl -0x4(%rbp),%edx
    6324:	8b 45 f8             	mov    -0x8(%rbp),%eax
    6327:	89 c1                	mov    %eax,%ecx
    6329:	d3 e2                	shl    %cl,%edx
    632b:	89 d0                	mov    %edx,%eax
    632d:	eb 04                	jmp    6333 <safe_lshift_func_int8_t_s_u+0x45>
    632f:	0f b6 45 fc          	movzbl -0x4(%rbp),%eax
    6333:	5d                   	pop    %rbp
    6334:	c3                   	retq   

0000000000006335 <safe_rshift_func_int8_t_s_s>:
    6335:	f3 0f 1e fa          	endbr64 
    6339:	55                   	push   %rbp
    633a:	48 89 e5             	mov    %rsp,%rbp
    633d:	89 f8                	mov    %edi,%eax
    633f:	89 75 f8             	mov    %esi,-0x8(%rbp)
    6342:	88 45 fc             	mov    %al,-0x4(%rbp)
    6345:	80 7d fc 00          	cmpb   $0x0,-0x4(%rbp)
    6349:	78 1b                	js     6366 <safe_rshift_func_int8_t_s_s+0x31>
    634b:	83 7d f8 00          	cmpl   $0x0,-0x8(%rbp)
    634f:	78 15                	js     6366 <safe_rshift_func_int8_t_s_s+0x31>
    6351:	83 7d f8 1f          	cmpl   $0x1f,-0x8(%rbp)
    6355:	7f 0f                	jg     6366 <safe_rshift_func_int8_t_s_s+0x31>
    6357:	0f be 55 fc          	movsbl -0x4(%rbp),%edx
    635b:	8b 45 f8             	mov    -0x8(%rbp),%eax
    635e:	89 c1                	mov    %eax,%ecx
    6360:	d3 fa                	sar    %cl,%edx
    6362:	89 d0                	mov    %edx,%eax
    6364:	eb 04                	jmp    636a <safe_rshift_func_int8_t_s_s+0x35>
    6366:	0f b6 45 fc          	movzbl -0x4(%rbp),%eax
    636a:	5d                   	pop    %rbp
    636b:	c3                   	retq   

000000000000636c <safe_rshift_func_int8_t_s_u>:
    636c:	f3 0f 1e fa          	endbr64 
    6370:	55                   	push   %rbp
    6371:	48 89 e5             	mov    %rsp,%rbp
    6374:	89 f8                	mov    %edi,%eax
    6376:	89 75 f8             	mov    %esi,-0x8(%rbp)
    6379:	88 45 fc             	mov    %al,-0x4(%rbp)
    637c:	80 7d fc 00          	cmpb   $0x0,-0x4(%rbp)
    6380:	78 15                	js     6397 <safe_rshift_func_int8_t_s_u+0x2b>
    6382:	83 7d f8 1f          	cmpl   $0x1f,-0x8(%rbp)
    6386:	77 0f                	ja     6397 <safe_rshift_func_int8_t_s_u+0x2b>
    6388:	0f be 55 fc          	movsbl -0x4(%rbp),%edx
    638c:	8b 45 f8             	mov    -0x8(%rbp),%eax
    638f:	89 c1                	mov    %eax,%ecx
    6391:	d3 fa                	sar    %cl,%edx
    6393:	89 d0                	mov    %edx,%eax
    6395:	eb 04                	jmp    639b <safe_rshift_func_int8_t_s_u+0x2f>
    6397:	0f b6 45 fc          	movzbl -0x4(%rbp),%eax
    639b:	5d                   	pop    %rbp
    639c:	c3                   	retq   

000000000000639d <safe_unary_minus_func_int16_t_s>:
    639d:	f3 0f 1e fa          	endbr64 
    63a1:	55                   	push   %rbp
    63a2:	48 89 e5             	mov    %rsp,%rbp
    63a5:	89 f8                	mov    %edi,%eax
    63a7:	66 89 45 fc          	mov    %ax,-0x4(%rbp)
    63ab:	0f b7 45 fc          	movzwl -0x4(%rbp),%eax
    63af:	f7 d8                	neg    %eax
    63b1:	5d                   	pop    %rbp
    63b2:	c3                   	retq   

00000000000063b3 <safe_add_func_int16_t_s_s>:
    63b3:	f3 0f 1e fa          	endbr64 
    63b7:	55                   	push   %rbp
    63b8:	48 89 e5             	mov    %rsp,%rbp
    63bb:	89 fa                	mov    %edi,%edx
    63bd:	89 f0                	mov    %esi,%eax
    63bf:	66 89 55 fc          	mov    %dx,-0x4(%rbp)
    63c3:	66 89 45 f8          	mov    %ax,-0x8(%rbp)
    63c7:	0f b7 55 fc          	movzwl -0x4(%rbp),%edx
    63cb:	0f b7 45 f8          	movzwl -0x8(%rbp),%eax
    63cf:	01 d0                	add    %edx,%eax
    63d1:	5d                   	pop    %rbp
    63d2:	c3                   	retq   

00000000000063d3 <safe_sub_func_int16_t_s_s>:
    63d3:	f3 0f 1e fa          	endbr64 
    63d7:	55                   	push   %rbp
    63d8:	48 89 e5             	mov    %rsp,%rbp
    63db:	89 fa                	mov    %edi,%edx
    63dd:	89 f0                	mov    %esi,%eax
    63df:	66 89 55 fc          	mov    %dx,-0x4(%rbp)
    63e3:	66 89 45 f8          	mov    %ax,-0x8(%rbp)
    63e7:	0f b7 55 fc          	movzwl -0x4(%rbp),%edx
    63eb:	0f b7 45 f8          	movzwl -0x8(%rbp),%eax
    63ef:	29 c2                	sub    %eax,%edx
    63f1:	89 d0                	mov    %edx,%eax
    63f3:	5d                   	pop    %rbp
    63f4:	c3                   	retq   

00000000000063f5 <safe_mul_func_int16_t_s_s>:
    63f5:	f3 0f 1e fa          	endbr64 
    63f9:	55                   	push   %rbp
    63fa:	48 89 e5             	mov    %rsp,%rbp
    63fd:	89 fa                	mov    %edi,%edx
    63ff:	89 f0                	mov    %esi,%eax
    6401:	66 89 55 fc          	mov    %dx,-0x4(%rbp)
    6405:	66 89 45 f8          	mov    %ax,-0x8(%rbp)
    6409:	0f b7 55 fc          	movzwl -0x4(%rbp),%edx
    640d:	0f b7 45 f8          	movzwl -0x8(%rbp),%eax
    6411:	0f af c2             	imul   %edx,%eax
    6414:	5d                   	pop    %rbp
    6415:	c3                   	retq   

0000000000006416 <safe_mod_func_int16_t_s_s>:
    6416:	f3 0f 1e fa          	endbr64 
    641a:	55                   	push   %rbp
    641b:	48 89 e5             	mov    %rsp,%rbp
    641e:	89 fa                	mov    %edi,%edx
    6420:	89 f0                	mov    %esi,%eax
    6422:	66 89 55 fc          	mov    %dx,-0x4(%rbp)
    6426:	66 89 45 f8          	mov    %ax,-0x8(%rbp)
    642a:	66 83 7d f8 00       	cmpw   $0x0,-0x8(%rbp)
    642f:	74 1e                	je     644f <safe_mod_func_int16_t_s_s+0x39>
    6431:	66 81 7d fc 00 80    	cmpw   $0x8000,-0x4(%rbp)
    6437:	75 07                	jne    6440 <safe_mod_func_int16_t_s_s+0x2a>
    6439:	66 83 7d f8 ff       	cmpw   $0xffff,-0x8(%rbp)
    643e:	74 0f                	je     644f <safe_mod_func_int16_t_s_s+0x39>
    6440:	0f bf 45 fc          	movswl -0x4(%rbp),%eax
    6444:	0f bf 4d f8          	movswl -0x8(%rbp),%ecx
    6448:	99                   	cltd   
    6449:	f7 f9                	idiv   %ecx
    644b:	89 d0                	mov    %edx,%eax
    644d:	eb 04                	jmp    6453 <safe_mod_func_int16_t_s_s+0x3d>
    644f:	0f b7 45 fc          	movzwl -0x4(%rbp),%eax
    6453:	5d                   	pop    %rbp
    6454:	c3                   	retq   

0000000000006455 <safe_div_func_int16_t_s_s>:
    6455:	f3 0f 1e fa          	endbr64 
    6459:	55                   	push   %rbp
    645a:	48 89 e5             	mov    %rsp,%rbp
    645d:	89 fa                	mov    %edi,%edx
    645f:	89 f0                	mov    %esi,%eax
    6461:	66 89 55 fc          	mov    %dx,-0x4(%rbp)
    6465:	66 89 45 f8          	mov    %ax,-0x8(%rbp)
    6469:	66 83 7d f8 00       	cmpw   $0x0,-0x8(%rbp)
    646e:	74 1c                	je     648c <safe_div_func_int16_t_s_s+0x37>
    6470:	66 81 7d fc 00 80    	cmpw   $0x8000,-0x4(%rbp)
    6476:	75 07                	jne    647f <safe_div_func_int16_t_s_s+0x2a>
    6478:	66 83 7d f8 ff       	cmpw   $0xffff,-0x8(%rbp)
    647d:	74 0d                	je     648c <safe_div_func_int16_t_s_s+0x37>
    647f:	0f bf 45 fc          	movswl -0x4(%rbp),%eax
    6483:	0f bf 4d f8          	movswl -0x8(%rbp),%ecx
    6487:	99                   	cltd   
    6488:	f7 f9                	idiv   %ecx
    648a:	eb 04                	jmp    6490 <safe_div_func_int16_t_s_s+0x3b>
    648c:	0f b7 45 fc          	movzwl -0x4(%rbp),%eax
    6490:	5d                   	pop    %rbp
    6491:	c3                   	retq   

0000000000006492 <safe_lshift_func_int16_t_s_s>:
    6492:	f3 0f 1e fa          	endbr64 
    6496:	55                   	push   %rbp
    6497:	48 89 e5             	mov    %rsp,%rbp
    649a:	89 f8                	mov    %edi,%eax
    649c:	89 75 f8             	mov    %esi,-0x8(%rbp)
    649f:	66 89 45 fc          	mov    %ax,-0x4(%rbp)
    64a3:	66 83 7d fc 00       	cmpw   $0x0,-0x4(%rbp)
    64a8:	78 31                	js     64db <safe_lshift_func_int16_t_s_s+0x49>
    64aa:	83 7d f8 00          	cmpl   $0x0,-0x8(%rbp)
    64ae:	78 2b                	js     64db <safe_lshift_func_int16_t_s_s+0x49>
    64b0:	83 7d f8 1f          	cmpl   $0x1f,-0x8(%rbp)
    64b4:	7f 25                	jg     64db <safe_lshift_func_int16_t_s_s+0x49>
    64b6:	0f bf 55 fc          	movswl -0x4(%rbp),%edx
    64ba:	8b 45 f8             	mov    -0x8(%rbp),%eax
    64bd:	be ff 7f 00 00       	mov    $0x7fff,%esi
    64c2:	89 c1                	mov    %eax,%ecx
    64c4:	d3 fe                	sar    %cl,%esi
    64c6:	89 f0                	mov    %esi,%eax
    64c8:	39 c2                	cmp    %eax,%edx
    64ca:	7f 0f                	jg     64db <safe_lshift_func_int16_t_s_s+0x49>
    64cc:	0f bf 55 fc          	movswl -0x4(%rbp),%edx
    64d0:	8b 45 f8             	mov    -0x8(%rbp),%eax
    64d3:	89 c1                	mov    %eax,%ecx
    64d5:	d3 e2                	shl    %cl,%edx
    64d7:	89 d0                	mov    %edx,%eax
    64d9:	eb 04                	jmp    64df <safe_lshift_func_int16_t_s_s+0x4d>
    64db:	0f b7 45 fc          	movzwl -0x4(%rbp),%eax
    64df:	5d                   	pop    %rbp
    64e0:	c3                   	retq   

00000000000064e1 <safe_lshift_func_int16_t_s_u>:
    64e1:	f3 0f 1e fa          	endbr64 
    64e5:	55                   	push   %rbp
    64e6:	48 89 e5             	mov    %rsp,%rbp
    64e9:	89 f8                	mov    %edi,%eax
    64eb:	89 75 f8             	mov    %esi,-0x8(%rbp)
    64ee:	66 89 45 fc          	mov    %ax,-0x4(%rbp)
    64f2:	66 83 7d fc 00       	cmpw   $0x0,-0x4(%rbp)
    64f7:	78 2b                	js     6524 <safe_lshift_func_int16_t_s_u+0x43>
    64f9:	83 7d f8 1f          	cmpl   $0x1f,-0x8(%rbp)
    64fd:	77 25                	ja     6524 <safe_lshift_func_int16_t_s_u+0x43>
    64ff:	0f bf 55 fc          	movswl -0x4(%rbp),%edx
    6503:	8b 45 f8             	mov    -0x8(%rbp),%eax
    6506:	be ff 7f 00 00       	mov    $0x7fff,%esi
    650b:	89 c1                	mov    %eax,%ecx
    650d:	d3 fe                	sar    %cl,%esi
    650f:	89 f0                	mov    %esi,%eax
    6511:	39 c2                	cmp    %eax,%edx
    6513:	7f 0f                	jg     6524 <safe_lshift_func_int16_t_s_u+0x43>
    6515:	0f bf 55 fc          	movswl -0x4(%rbp),%edx
    6519:	8b 45 f8             	mov    -0x8(%rbp),%eax
    651c:	89 c1                	mov    %eax,%ecx
    651e:	d3 e2                	shl    %cl,%edx
    6520:	89 d0                	mov    %edx,%eax
    6522:	eb 04                	jmp    6528 <safe_lshift_func_int16_t_s_u+0x47>
    6524:	0f b7 45 fc          	movzwl -0x4(%rbp),%eax
    6528:	5d                   	pop    %rbp
    6529:	c3                   	retq   

000000000000652a <safe_rshift_func_int16_t_s_s>:
    652a:	f3 0f 1e fa          	endbr64 
    652e:	55                   	push   %rbp
    652f:	48 89 e5             	mov    %rsp,%rbp
    6532:	89 f8                	mov    %edi,%eax
    6534:	89 75 f8             	mov    %esi,-0x8(%rbp)
    6537:	66 89 45 fc          	mov    %ax,-0x4(%rbp)
    653b:	66 83 7d fc 00       	cmpw   $0x0,-0x4(%rbp)
    6540:	78 1b                	js     655d <safe_rshift_func_int16_t_s_s+0x33>
    6542:	83 7d f8 00          	cmpl   $0x0,-0x8(%rbp)
    6546:	78 15                	js     655d <safe_rshift_func_int16_t_s_s+0x33>
    6548:	83 7d f8 1f          	cmpl   $0x1f,-0x8(%rbp)
    654c:	7f 0f                	jg     655d <safe_rshift_func_int16_t_s_s+0x33>
    654e:	0f bf 55 fc          	movswl -0x4(%rbp),%edx
    6552:	8b 45 f8             	mov    -0x8(%rbp),%eax
    6555:	89 c1                	mov    %eax,%ecx
    6557:	d3 fa                	sar    %cl,%edx
    6559:	89 d0                	mov    %edx,%eax
    655b:	eb 04                	jmp    6561 <safe_rshift_func_int16_t_s_s+0x37>
    655d:	0f b7 45 fc          	movzwl -0x4(%rbp),%eax
    6561:	5d                   	pop    %rbp
    6562:	c3                   	retq   

0000000000006563 <safe_rshift_func_int16_t_s_u>:
    6563:	f3 0f 1e fa          	endbr64 
    6567:	55                   	push   %rbp
    6568:	48 89 e5             	mov    %rsp,%rbp
    656b:	89 f8                	mov    %edi,%eax
    656d:	89 75 f8             	mov    %esi,-0x8(%rbp)
    6570:	66 89 45 fc          	mov    %ax,-0x4(%rbp)
    6574:	66 83 7d fc 00       	cmpw   $0x0,-0x4(%rbp)
    6579:	78 15                	js     6590 <safe_rshift_func_int16_t_s_u+0x2d>
    657b:	83 7d f8 1f          	cmpl   $0x1f,-0x8(%rbp)
    657f:	77 0f                	ja     6590 <safe_rshift_func_int16_t_s_u+0x2d>
    6581:	0f bf 55 fc          	movswl -0x4(%rbp),%edx
    6585:	8b 45 f8             	mov    -0x8(%rbp),%eax
    6588:	89 c1                	mov    %eax,%ecx
    658a:	d3 fa                	sar    %cl,%edx
    658c:	89 d0                	mov    %edx,%eax
    658e:	eb 04                	jmp    6594 <safe_rshift_func_int16_t_s_u+0x31>
    6590:	0f b7 45 fc          	movzwl -0x4(%rbp),%eax
    6594:	5d                   	pop    %rbp
    6595:	c3                   	retq   

0000000000006596 <safe_unary_minus_func_int32_t_s>:
    6596:	f3 0f 1e fa          	endbr64 
    659a:	55                   	push   %rbp
    659b:	48 89 e5             	mov    %rsp,%rbp
    659e:	89 7d fc             	mov    %edi,-0x4(%rbp)
    65a1:	81 7d fc 00 00 00 80 	cmpl   $0x80000000,-0x4(%rbp)
    65a8:	74 07                	je     65b1 <safe_unary_minus_func_int32_t_s+0x1b>
    65aa:	8b 45 fc             	mov    -0x4(%rbp),%eax
    65ad:	f7 d8                	neg    %eax
    65af:	eb 03                	jmp    65b4 <safe_unary_minus_func_int32_t_s+0x1e>
    65b1:	8b 45 fc             	mov    -0x4(%rbp),%eax
    65b4:	5d                   	pop    %rbp
    65b5:	c3                   	retq   

00000000000065b6 <safe_add_func_int32_t_s_s>:
    65b6:	f3 0f 1e fa          	endbr64 
    65ba:	55                   	push   %rbp
    65bb:	48 89 e5             	mov    %rsp,%rbp
    65be:	89 7d fc             	mov    %edi,-0x4(%rbp)
    65c1:	89 75 f8             	mov    %esi,-0x8(%rbp)
    65c4:	83 7d fc 00          	cmpl   $0x0,-0x4(%rbp)
    65c8:	7e 13                	jle    65dd <safe_add_func_int32_t_s_s+0x27>
    65ca:	83 7d f8 00          	cmpl   $0x0,-0x8(%rbp)
    65ce:	7e 0d                	jle    65dd <safe_add_func_int32_t_s_s+0x27>
    65d0:	b8 ff ff ff 7f       	mov    $0x7fffffff,%eax
    65d5:	2b 45 f8             	sub    -0x8(%rbp),%eax
    65d8:	39 45 fc             	cmp    %eax,-0x4(%rbp)
    65db:	7f 23                	jg     6600 <safe_add_func_int32_t_s_s+0x4a>
    65dd:	83 7d fc 00          	cmpl   $0x0,-0x4(%rbp)
    65e1:	79 13                	jns    65f6 <safe_add_func_int32_t_s_s+0x40>
    65e3:	83 7d f8 00          	cmpl   $0x0,-0x8(%rbp)
    65e7:	79 0d                	jns    65f6 <safe_add_func_int32_t_s_s+0x40>
    65e9:	b8 00 00 00 80       	mov    $0x80000000,%eax
    65ee:	2b 45 f8             	sub    -0x8(%rbp),%eax
    65f1:	39 45 fc             	cmp    %eax,-0x4(%rbp)
    65f4:	7c 0a                	jl     6600 <safe_add_func_int32_t_s_s+0x4a>
    65f6:	8b 55 fc             	mov    -0x4(%rbp),%edx
    65f9:	8b 45 f8             	mov    -0x8(%rbp),%eax
    65fc:	01 d0                	add    %edx,%eax
    65fe:	eb 03                	jmp    6603 <safe_add_func_int32_t_s_s+0x4d>
    6600:	8b 45 fc             	mov    -0x4(%rbp),%eax
    6603:	5d                   	pop    %rbp
    6604:	c3                   	retq   

0000000000006605 <safe_sub_func_int32_t_s_s>:
    6605:	f3 0f 1e fa          	endbr64 
    6609:	55                   	push   %rbp
    660a:	48 89 e5             	mov    %rsp,%rbp
    660d:	89 7d fc             	mov    %edi,-0x4(%rbp)
    6610:	89 75 f8             	mov    %esi,-0x8(%rbp)
    6613:	8b 45 fc             	mov    -0x4(%rbp),%eax
    6616:	33 45 f8             	xor    -0x8(%rbp),%eax
    6619:	89 c2                	mov    %eax,%edx
    661b:	8b 45 fc             	mov    -0x4(%rbp),%eax
    661e:	33 45 f8             	xor    -0x8(%rbp),%eax
    6621:	25 00 00 00 80       	and    $0x80000000,%eax
    6626:	33 45 fc             	xor    -0x4(%rbp),%eax
    6629:	2b 45 f8             	sub    -0x8(%rbp),%eax
    662c:	33 45 f8             	xor    -0x8(%rbp),%eax
    662f:	21 d0                	and    %edx,%eax
    6631:	85 c0                	test   %eax,%eax
    6633:	78 08                	js     663d <safe_sub_func_int32_t_s_s+0x38>
    6635:	8b 45 fc             	mov    -0x4(%rbp),%eax
    6638:	2b 45 f8             	sub    -0x8(%rbp),%eax
    663b:	eb 03                	jmp    6640 <safe_sub_func_int32_t_s_s+0x3b>
    663d:	8b 45 fc             	mov    -0x4(%rbp),%eax
    6640:	5d                   	pop    %rbp
    6641:	c3                   	retq   

0000000000006642 <safe_mul_func_int32_t_s_s>:
    6642:	f3 0f 1e fa          	endbr64 
    6646:	55                   	push   %rbp
    6647:	48 89 e5             	mov    %rsp,%rbp
    664a:	89 7d fc             	mov    %edi,-0x4(%rbp)
    664d:	89 75 f8             	mov    %esi,-0x8(%rbp)
    6650:	83 7d fc 00          	cmpl   $0x0,-0x4(%rbp)
    6654:	7e 14                	jle    666a <safe_mul_func_int32_t_s_s+0x28>
    6656:	83 7d f8 00          	cmpl   $0x0,-0x8(%rbp)
    665a:	7e 0e                	jle    666a <safe_mul_func_int32_t_s_s+0x28>
    665c:	b8 ff ff ff 7f       	mov    $0x7fffffff,%eax
    6661:	99                   	cltd   
    6662:	f7 7d f8             	idivl  -0x8(%rbp)
    6665:	39 45 fc             	cmp    %eax,-0x4(%rbp)
    6668:	7f 5d                	jg     66c7 <safe_mul_func_int32_t_s_s+0x85>
    666a:	83 7d fc 00          	cmpl   $0x0,-0x4(%rbp)
    666e:	7e 14                	jle    6684 <safe_mul_func_int32_t_s_s+0x42>
    6670:	83 7d f8 00          	cmpl   $0x0,-0x8(%rbp)
    6674:	7f 0e                	jg     6684 <safe_mul_func_int32_t_s_s+0x42>
    6676:	b8 00 00 00 80       	mov    $0x80000000,%eax
    667b:	99                   	cltd   
    667c:	f7 7d fc             	idivl  -0x4(%rbp)
    667f:	39 45 f8             	cmp    %eax,-0x8(%rbp)
    6682:	7c 43                	jl     66c7 <safe_mul_func_int32_t_s_s+0x85>
    6684:	83 7d fc 00          	cmpl   $0x0,-0x4(%rbp)
    6688:	7f 14                	jg     669e <safe_mul_func_int32_t_s_s+0x5c>
    668a:	83 7d f8 00          	cmpl   $0x0,-0x8(%rbp)
    668e:	7e 0e                	jle    669e <safe_mul_func_int32_t_s_s+0x5c>
    6690:	b8 00 00 00 80       	mov    $0x80000000,%eax
    6695:	99                   	cltd   
    6696:	f7 7d f8             	idivl  -0x8(%rbp)
    6699:	39 45 fc             	cmp    %eax,-0x4(%rbp)
    669c:	7c 29                	jl     66c7 <safe_mul_func_int32_t_s_s+0x85>
    669e:	83 7d fc 00          	cmpl   $0x0,-0x4(%rbp)
    66a2:	7f 1a                	jg     66be <safe_mul_func_int32_t_s_s+0x7c>
    66a4:	83 7d f8 00          	cmpl   $0x0,-0x8(%rbp)
    66a8:	7f 14                	jg     66be <safe_mul_func_int32_t_s_s+0x7c>
    66aa:	83 7d fc 00          	cmpl   $0x0,-0x4(%rbp)
    66ae:	74 0e                	je     66be <safe_mul_func_int32_t_s_s+0x7c>
    66b0:	b8 ff ff ff 7f       	mov    $0x7fffffff,%eax
    66b5:	99                   	cltd   
    66b6:	f7 7d fc             	idivl  -0x4(%rbp)
    66b9:	39 45 f8             	cmp    %eax,-0x8(%rbp)
    66bc:	7c 09                	jl     66c7 <safe_mul_func_int32_t_s_s+0x85>
    66be:	8b 45 fc             	mov    -0x4(%rbp),%eax
    66c1:	0f af 45 f8          	imul   -0x8(%rbp),%eax
    66c5:	eb 03                	jmp    66ca <safe_mul_func_int32_t_s_s+0x88>
    66c7:	8b 45 fc             	mov    -0x4(%rbp),%eax
    66ca:	5d                   	pop    %rbp
    66cb:	c3                   	retq   

00000000000066cc <safe_mod_func_int32_t_s_s>:
    66cc:	f3 0f 1e fa          	endbr64 
    66d0:	55                   	push   %rbp
    66d1:	48 89 e5             	mov    %rsp,%rbp
    66d4:	89 7d fc             	mov    %edi,-0x4(%rbp)
    66d7:	89 75 f8             	mov    %esi,-0x8(%rbp)
    66da:	83 7d f8 00          	cmpl   $0x0,-0x8(%rbp)
    66de:	74 1a                	je     66fa <safe_mod_func_int32_t_s_s+0x2e>
    66e0:	81 7d fc 00 00 00 80 	cmpl   $0x80000000,-0x4(%rbp)
    66e7:	75 06                	jne    66ef <safe_mod_func_int32_t_s_s+0x23>
    66e9:	83 7d f8 ff          	cmpl   $0xffffffff,-0x8(%rbp)
    66ed:	74 0b                	je     66fa <safe_mod_func_int32_t_s_s+0x2e>
    66ef:	8b 45 fc             	mov    -0x4(%rbp),%eax
    66f2:	99                   	cltd   
    66f3:	f7 7d f8             	idivl  -0x8(%rbp)
    66f6:	89 d0                	mov    %edx,%eax
    66f8:	eb 03                	jmp    66fd <safe_mod_func_int32_t_s_s+0x31>
    66fa:	8b 45 fc             	mov    -0x4(%rbp),%eax
    66fd:	5d                   	pop    %rbp
    66fe:	c3                   	retq   

00000000000066ff <safe_div_func_int32_t_s_s>:
    66ff:	f3 0f 1e fa          	endbr64 
    6703:	55                   	push   %rbp
    6704:	48 89 e5             	mov    %rsp,%rbp
    6707:	89 7d fc             	mov    %edi,-0x4(%rbp)
    670a:	89 75 f8             	mov    %esi,-0x8(%rbp)
    670d:	83 7d f8 00          	cmpl   $0x0,-0x8(%rbp)
    6711:	74 18                	je     672b <safe_div_func_int32_t_s_s+0x2c>
    6713:	81 7d fc 00 00 00 80 	cmpl   $0x80000000,-0x4(%rbp)
    671a:	75 06                	jne    6722 <safe_div_func_int32_t_s_s+0x23>
    671c:	83 7d f8 ff          	cmpl   $0xffffffff,-0x8(%rbp)
    6720:	74 09                	je     672b <safe_div_func_int32_t_s_s+0x2c>
    6722:	8b 45 fc             	mov    -0x4(%rbp),%eax
    6725:	99                   	cltd   
    6726:	f7 7d f8             	idivl  -0x8(%rbp)
    6729:	eb 03                	jmp    672e <safe_div_func_int32_t_s_s+0x2f>
    672b:	8b 45 fc             	mov    -0x4(%rbp),%eax
    672e:	5d                   	pop    %rbp
    672f:	c3                   	retq   

0000000000006730 <safe_lshift_func_int32_t_s_s>:
    6730:	f3 0f 1e fa          	endbr64 
    6734:	55                   	push   %rbp
    6735:	48 89 e5             	mov    %rsp,%rbp
    6738:	89 7d fc             	mov    %edi,-0x4(%rbp)
    673b:	89 75 f8             	mov    %esi,-0x8(%rbp)
    673e:	83 7d fc 00          	cmpl   $0x0,-0x4(%rbp)
    6742:	78 2d                	js     6771 <safe_lshift_func_int32_t_s_s+0x41>
    6744:	83 7d f8 00          	cmpl   $0x0,-0x8(%rbp)
    6748:	78 27                	js     6771 <safe_lshift_func_int32_t_s_s+0x41>
    674a:	83 7d f8 1f          	cmpl   $0x1f,-0x8(%rbp)
    674e:	7f 21                	jg     6771 <safe_lshift_func_int32_t_s_s+0x41>
    6750:	8b 45 f8             	mov    -0x8(%rbp),%eax
    6753:	ba ff ff ff 7f       	mov    $0x7fffffff,%edx
    6758:	89 c1                	mov    %eax,%ecx
    675a:	d3 fa                	sar    %cl,%edx
    675c:	89 d0                	mov    %edx,%eax
    675e:	39 45 fc             	cmp    %eax,-0x4(%rbp)
    6761:	7f 0e                	jg     6771 <safe_lshift_func_int32_t_s_s+0x41>
    6763:	8b 45 f8             	mov    -0x8(%rbp),%eax
    6766:	8b 55 fc             	mov    -0x4(%rbp),%edx
    6769:	89 c1                	mov    %eax,%ecx
    676b:	d3 e2                	shl    %cl,%edx
    676d:	89 d0                	mov    %edx,%eax
    676f:	eb 03                	jmp    6774 <safe_lshift_func_int32_t_s_s+0x44>
    6771:	8b 45 fc             	mov    -0x4(%rbp),%eax
    6774:	5d                   	pop    %rbp
    6775:	c3                   	retq   

0000000000006776 <safe_lshift_func_int32_t_s_u>:
    6776:	f3 0f 1e fa          	endbr64 
    677a:	55                   	push   %rbp
    677b:	48 89 e5             	mov    %rsp,%rbp
    677e:	89 7d fc             	mov    %edi,-0x4(%rbp)
    6781:	89 75 f8             	mov    %esi,-0x8(%rbp)
    6784:	83 7d fc 00          	cmpl   $0x0,-0x4(%rbp)
    6788:	78 27                	js     67b1 <safe_lshift_func_int32_t_s_u+0x3b>
    678a:	83 7d f8 1f          	cmpl   $0x1f,-0x8(%rbp)
    678e:	77 21                	ja     67b1 <safe_lshift_func_int32_t_s_u+0x3b>
    6790:	8b 45 f8             	mov    -0x8(%rbp),%eax
    6793:	ba ff ff ff 7f       	mov    $0x7fffffff,%edx
    6798:	89 c1                	mov    %eax,%ecx
    679a:	d3 fa                	sar    %cl,%edx
    679c:	89 d0                	mov    %edx,%eax
    679e:	39 45 fc             	cmp    %eax,-0x4(%rbp)
    67a1:	7f 0e                	jg     67b1 <safe_lshift_func_int32_t_s_u+0x3b>
    67a3:	8b 45 f8             	mov    -0x8(%rbp),%eax
    67a6:	8b 55 fc             	mov    -0x4(%rbp),%edx
    67a9:	89 c1                	mov    %eax,%ecx
    67ab:	d3 e2                	shl    %cl,%edx
    67ad:	89 d0                	mov    %edx,%eax
    67af:	eb 03                	jmp    67b4 <safe_lshift_func_int32_t_s_u+0x3e>
    67b1:	8b 45 fc             	mov    -0x4(%rbp),%eax
    67b4:	5d                   	pop    %rbp
    67b5:	c3                   	retq   

00000000000067b6 <safe_rshift_func_int32_t_s_s>:
    67b6:	f3 0f 1e fa          	endbr64 
    67ba:	55                   	push   %rbp
    67bb:	48 89 e5             	mov    %rsp,%rbp
    67be:	89 7d fc             	mov    %edi,-0x4(%rbp)
    67c1:	89 75 f8             	mov    %esi,-0x8(%rbp)
    67c4:	83 7d fc 00          	cmpl   $0x0,-0x4(%rbp)
    67c8:	78 1a                	js     67e4 <safe_rshift_func_int32_t_s_s+0x2e>
    67ca:	83 7d f8 00          	cmpl   $0x0,-0x8(%rbp)
    67ce:	78 14                	js     67e4 <safe_rshift_func_int32_t_s_s+0x2e>
    67d0:	83 7d f8 1f          	cmpl   $0x1f,-0x8(%rbp)
    67d4:	7f 0e                	jg     67e4 <safe_rshift_func_int32_t_s_s+0x2e>
    67d6:	8b 45 f8             	mov    -0x8(%rbp),%eax
    67d9:	8b 55 fc             	mov    -0x4(%rbp),%edx
    67dc:	89 c1                	mov    %eax,%ecx
    67de:	d3 fa                	sar    %cl,%edx
    67e0:	89 d0                	mov    %edx,%eax
    67e2:	eb 03                	jmp    67e7 <safe_rshift_func_int32_t_s_s+0x31>
    67e4:	8b 45 fc             	mov    -0x4(%rbp),%eax
    67e7:	5d                   	pop    %rbp
    67e8:	c3                   	retq   

00000000000067e9 <safe_rshift_func_int32_t_s_u>:
    67e9:	f3 0f 1e fa          	endbr64 
    67ed:	55                   	push   %rbp
    67ee:	48 89 e5             	mov    %rsp,%rbp
    67f1:	89 7d fc             	mov    %edi,-0x4(%rbp)
    67f4:	89 75 f8             	mov    %esi,-0x8(%rbp)
    67f7:	83 7d fc 00          	cmpl   $0x0,-0x4(%rbp)
    67fb:	78 14                	js     6811 <safe_rshift_func_int32_t_s_u+0x28>
    67fd:	83 7d f8 1f          	cmpl   $0x1f,-0x8(%rbp)
    6801:	77 0e                	ja     6811 <safe_rshift_func_int32_t_s_u+0x28>
    6803:	8b 45 f8             	mov    -0x8(%rbp),%eax
    6806:	8b 55 fc             	mov    -0x4(%rbp),%edx
    6809:	89 c1                	mov    %eax,%ecx
    680b:	d3 fa                	sar    %cl,%edx
    680d:	89 d0                	mov    %edx,%eax
    680f:	eb 03                	jmp    6814 <safe_rshift_func_int32_t_s_u+0x2b>
    6811:	8b 45 fc             	mov    -0x4(%rbp),%eax
    6814:	5d                   	pop    %rbp
    6815:	c3                   	retq   

0000000000006816 <safe_unary_minus_func_int64_t_s>:
    6816:	f3 0f 1e fa          	endbr64 
    681a:	55                   	push   %rbp
    681b:	48 89 e5             	mov    %rsp,%rbp
    681e:	48 89 7d f8          	mov    %rdi,-0x8(%rbp)
    6822:	48 b8 00 00 00 00 00 	movabs $0x8000000000000000,%rax
    6829:	00 00 80 
    682c:	48 39 45 f8          	cmp    %rax,-0x8(%rbp)
    6830:	74 09                	je     683b <safe_unary_minus_func_int64_t_s+0x25>
    6832:	48 8b 45 f8          	mov    -0x8(%rbp),%rax
    6836:	48 f7 d8             	neg    %rax
    6839:	eb 04                	jmp    683f <safe_unary_minus_func_int64_t_s+0x29>
    683b:	48 8b 45 f8          	mov    -0x8(%rbp),%rax
    683f:	5d                   	pop    %rbp
    6840:	c3                   	retq   

0000000000006841 <safe_add_func_int64_t_s_s>:
    6841:	f3 0f 1e fa          	endbr64 
    6845:	55                   	push   %rbp
    6846:	48 89 e5             	mov    %rsp,%rbp
    6849:	48 89 7d f8          	mov    %rdi,-0x8(%rbp)
    684d:	48 89 75 f0          	mov    %rsi,-0x10(%rbp)
    6851:	48 83 7d f8 00       	cmpq   $0x0,-0x8(%rbp)
    6856:	7e 1b                	jle    6873 <safe_add_func_int64_t_s_s+0x32>
    6858:	48 83 7d f0 00       	cmpq   $0x0,-0x10(%rbp)
    685d:	7e 14                	jle    6873 <safe_add_func_int64_t_s_s+0x32>
    685f:	48 b8 ff ff ff ff ff 	movabs $0x7fffffffffffffff,%rax
    6866:	ff ff 7f 
    6869:	48 2b 45 f0          	sub    -0x10(%rbp),%rax
    686d:	48 39 45 f8          	cmp    %rax,-0x8(%rbp)
    6871:	7f 2f                	jg     68a2 <safe_add_func_int64_t_s_s+0x61>
    6873:	48 83 7d f8 00       	cmpq   $0x0,-0x8(%rbp)
    6878:	79 1b                	jns    6895 <safe_add_func_int64_t_s_s+0x54>
    687a:	48 83 7d f0 00       	cmpq   $0x0,-0x10(%rbp)
    687f:	79 14                	jns    6895 <safe_add_func_int64_t_s_s+0x54>
    6881:	48 b8 00 00 00 00 00 	movabs $0x8000000000000000,%rax
    6888:	00 00 80 
    688b:	48 2b 45 f0          	sub    -0x10(%rbp),%rax
    688f:	48 39 45 f8          	cmp    %rax,-0x8(%rbp)
    6893:	7c 0d                	jl     68a2 <safe_add_func_int64_t_s_s+0x61>
    6895:	48 8b 55 f8          	mov    -0x8(%rbp),%rdx
    6899:	48 8b 45 f0          	mov    -0x10(%rbp),%rax
    689d:	48 01 d0             	add    %rdx,%rax
    68a0:	eb 04                	jmp    68a6 <safe_add_func_int64_t_s_s+0x65>
    68a2:	48 8b 45 f8          	mov    -0x8(%rbp),%rax
    68a6:	5d                   	pop    %rbp
    68a7:	c3                   	retq   

00000000000068a8 <safe_sub_func_int64_t_s_s>:
    68a8:	f3 0f 1e fa          	endbr64 
    68ac:	55                   	push   %rbp
    68ad:	48 89 e5             	mov    %rsp,%rbp
    68b0:	48 89 7d f8          	mov    %rdi,-0x8(%rbp)
    68b4:	48 89 75 f0          	mov    %rsi,-0x10(%rbp)
    68b8:	48 8b 45 f8          	mov    -0x8(%rbp),%rax
    68bc:	48 33 45 f0          	xor    -0x10(%rbp),%rax
    68c0:	48 89 c2             	mov    %rax,%rdx
    68c3:	48 8b 45 f8          	mov    -0x8(%rbp),%rax
    68c7:	48 33 45 f0          	xor    -0x10(%rbp),%rax
    68cb:	48 b9 00 00 00 00 00 	movabs $0x8000000000000000,%rcx
    68d2:	00 00 80 
    68d5:	48 21 c8             	and    %rcx,%rax
    68d8:	48 33 45 f8          	xor    -0x8(%rbp),%rax
    68dc:	48 2b 45 f0          	sub    -0x10(%rbp),%rax
    68e0:	48 33 45 f0          	xor    -0x10(%rbp),%rax
    68e4:	48 21 d0             	and    %rdx,%rax
    68e7:	48 85 c0             	test   %rax,%rax
    68ea:	78 0a                	js     68f6 <safe_sub_func_int64_t_s_s+0x4e>
    68ec:	48 8b 45 f8          	mov    -0x8(%rbp),%rax
    68f0:	48 2b 45 f0          	sub    -0x10(%rbp),%rax
    68f4:	eb 04                	jmp    68fa <safe_sub_func_int64_t_s_s+0x52>
    68f6:	48 8b 45 f8          	mov    -0x8(%rbp),%rax
    68fa:	5d                   	pop    %rbp
    68fb:	c3                   	retq   

00000000000068fc <safe_mul_func_int64_t_s_s>:
    68fc:	f3 0f 1e fa          	endbr64 
    6900:	55                   	push   %rbp
    6901:	48 89 e5             	mov    %rsp,%rbp
    6904:	48 89 7d f8          	mov    %rdi,-0x8(%rbp)
    6908:	48 89 75 f0          	mov    %rsi,-0x10(%rbp)
    690c:	48 83 7d f8 00       	cmpq   $0x0,-0x8(%rbp)
    6911:	7e 1d                	jle    6930 <safe_mul_func_int64_t_s_s+0x34>
    6913:	48 83 7d f0 00       	cmpq   $0x0,-0x10(%rbp)
    6918:	7e 16                	jle    6930 <safe_mul_func_int64_t_s_s+0x34>
    691a:	48 b8 ff ff ff ff ff 	movabs $0x7fffffffffffffff,%rax
    6921:	ff ff 7f 
    6924:	48 99                	cqto   
    6926:	48 f7 7d f0          	idivq  -0x10(%rbp)
    692a:	48 39 45 f8          	cmp    %rax,-0x8(%rbp)
    692e:	7f 7e                	jg     69ae <safe_mul_func_int64_t_s_s+0xb2>
    6930:	48 83 7d f8 00       	cmpq   $0x0,-0x8(%rbp)
    6935:	7e 1d                	jle    6954 <safe_mul_func_int64_t_s_s+0x58>
    6937:	48 83 7d f0 00       	cmpq   $0x0,-0x10(%rbp)
    693c:	7f 16                	jg     6954 <safe_mul_func_int64_t_s_s+0x58>
    693e:	48 b8 00 00 00 00 00 	movabs $0x8000000000000000,%rax
    6945:	00 00 80 
    6948:	48 99                	cqto   
    694a:	48 f7 7d f8          	idivq  -0x8(%rbp)
    694e:	48 39 45 f0          	cmp    %rax,-0x10(%rbp)
    6952:	7c 5a                	jl     69ae <safe_mul_func_int64_t_s_s+0xb2>
    6954:	48 83 7d f8 00       	cmpq   $0x0,-0x8(%rbp)
    6959:	7f 1d                	jg     6978 <safe_mul_func_int64_t_s_s+0x7c>
    695b:	48 83 7d f0 00       	cmpq   $0x0,-0x10(%rbp)
    6960:	7e 16                	jle    6978 <safe_mul_func_int64_t_s_s+0x7c>
    6962:	48 b8 00 00 00 00 00 	movabs $0x8000000000000000,%rax
    6969:	00 00 80 
    696c:	48 99                	cqto   
    696e:	48 f7 7d f0          	idivq  -0x10(%rbp)
    6972:	48 39 45 f8          	cmp    %rax,-0x8(%rbp)
    6976:	7c 36                	jl     69ae <safe_mul_func_int64_t_s_s+0xb2>
    6978:	48 83 7d f8 00       	cmpq   $0x0,-0x8(%rbp)
    697d:	7f 24                	jg     69a3 <safe_mul_func_int64_t_s_s+0xa7>
    697f:	48 83 7d f0 00       	cmpq   $0x0,-0x10(%rbp)
    6984:	7f 1d                	jg     69a3 <safe_mul_func_int64_t_s_s+0xa7>
    6986:	48 83 7d f8 00       	cmpq   $0x0,-0x8(%rbp)
    698b:	74 16                	je     69a3 <safe_mul_func_int64_t_s_s+0xa7>
    698d:	48 b8 ff ff ff ff ff 	movabs $0x7fffffffffffffff,%rax
    6994:	ff ff 7f 
    6997:	48 99                	cqto   
    6999:	48 f7 7d f8          	idivq  -0x8(%rbp)
    699d:	48 39 45 f0          	cmp    %rax,-0x10(%rbp)
    69a1:	7c 0b                	jl     69ae <safe_mul_func_int64_t_s_s+0xb2>
    69a3:	48 8b 45 f8          	mov    -0x8(%rbp),%rax
    69a7:	48 0f af 45 f0       	imul   -0x10(%rbp),%rax
    69ac:	eb 04                	jmp    69b2 <safe_mul_func_int64_t_s_s+0xb6>
    69ae:	48 8b 45 f8          	mov    -0x8(%rbp),%rax
    69b2:	5d                   	pop    %rbp
    69b3:	c3                   	retq   

00000000000069b4 <safe_mod_func_int64_t_s_s>:
    69b4:	f3 0f 1e fa          	endbr64 
    69b8:	55                   	push   %rbp
    69b9:	48 89 e5             	mov    %rsp,%rbp
    69bc:	48 89 7d f8          	mov    %rdi,-0x8(%rbp)
    69c0:	48 89 75 f0          	mov    %rsi,-0x10(%rbp)
    69c4:	48 83 7d f0 00       	cmpq   $0x0,-0x10(%rbp)
    69c9:	74 26                	je     69f1 <safe_mod_func_int64_t_s_s+0x3d>
    69cb:	48 b8 00 00 00 00 00 	movabs $0x8000000000000000,%rax
    69d2:	00 00 80 
    69d5:	48 39 45 f8          	cmp    %rax,-0x8(%rbp)
    69d9:	75 07                	jne    69e2 <safe_mod_func_int64_t_s_s+0x2e>
    69db:	48 83 7d f0 ff       	cmpq   $0xffffffffffffffff,-0x10(%rbp)
    69e0:	74 0f                	je     69f1 <safe_mod_func_int64_t_s_s+0x3d>
    69e2:	48 8b 45 f8          	mov    -0x8(%rbp),%rax
    69e6:	48 99                	cqto   
    69e8:	48 f7 7d f0          	idivq  -0x10(%rbp)
    69ec:	48 89 d0             	mov    %rdx,%rax
    69ef:	eb 04                	jmp    69f5 <safe_mod_func_int64_t_s_s+0x41>
    69f1:	48 8b 45 f8          	mov    -0x8(%rbp),%rax
    69f5:	5d                   	pop    %rbp
    69f6:	c3                   	retq   

00000000000069f7 <safe_div_func_int64_t_s_s>:
    69f7:	f3 0f 1e fa          	endbr64 
    69fb:	55                   	push   %rbp
    69fc:	48 89 e5             	mov    %rsp,%rbp
    69ff:	48 89 7d f8          	mov    %rdi,-0x8(%rbp)
    6a03:	48 89 75 f0          	mov    %rsi,-0x10(%rbp)
    6a07:	48 83 7d f0 00       	cmpq   $0x0,-0x10(%rbp)
    6a0c:	74 23                	je     6a31 <safe_div_func_int64_t_s_s+0x3a>
    6a0e:	48 b8 00 00 00 00 00 	movabs $0x8000000000000000,%rax
    6a15:	00 00 80 
    6a18:	48 39 45 f8          	cmp    %rax,-0x8(%rbp)
    6a1c:	75 07                	jne    6a25 <safe_div_func_int64_t_s_s+0x2e>
    6a1e:	48 83 7d f0 ff       	cmpq   $0xffffffffffffffff,-0x10(%rbp)
    6a23:	74 0c                	je     6a31 <safe_div_func_int64_t_s_s+0x3a>
    6a25:	48 8b 45 f8          	mov    -0x8(%rbp),%rax
    6a29:	48 99                	cqto   
    6a2b:	48 f7 7d f0          	idivq  -0x10(%rbp)
    6a2f:	eb 04                	jmp    6a35 <safe_div_func_int64_t_s_s+0x3e>
    6a31:	48 8b 45 f8          	mov    -0x8(%rbp),%rax
    6a35:	5d                   	pop    %rbp
    6a36:	c3                   	retq   

0000000000006a37 <safe_lshift_func_int64_t_s_s>:
    6a37:	f3 0f 1e fa          	endbr64 
    6a3b:	55                   	push   %rbp
    6a3c:	48 89 e5             	mov    %rsp,%rbp
    6a3f:	48 89 7d f8          	mov    %rdi,-0x8(%rbp)
    6a43:	89 75 f4             	mov    %esi,-0xc(%rbp)
    6a46:	48 83 7d f8 00       	cmpq   $0x0,-0x8(%rbp)
    6a4b:	78 38                	js     6a85 <safe_lshift_func_int64_t_s_s+0x4e>
    6a4d:	83 7d f4 00          	cmpl   $0x0,-0xc(%rbp)
    6a51:	78 32                	js     6a85 <safe_lshift_func_int64_t_s_s+0x4e>
    6a53:	83 7d f4 1f          	cmpl   $0x1f,-0xc(%rbp)
    6a57:	7f 2c                	jg     6a85 <safe_lshift_func_int64_t_s_s+0x4e>
    6a59:	8b 45 f4             	mov    -0xc(%rbp),%eax
    6a5c:	48 ba ff ff ff ff ff 	movabs $0x7fffffffffffffff,%rdx
    6a63:	ff ff 7f 
    6a66:	89 c1                	mov    %eax,%ecx
    6a68:	48 d3 fa             	sar    %cl,%rdx
    6a6b:	48 89 d0             	mov    %rdx,%rax
    6a6e:	48 39 45 f8          	cmp    %rax,-0x8(%rbp)
    6a72:	7f 11                	jg     6a85 <safe_lshift_func_int64_t_s_s+0x4e>
    6a74:	8b 45 f4             	mov    -0xc(%rbp),%eax
    6a77:	48 8b 55 f8          	mov    -0x8(%rbp),%rdx
    6a7b:	89 c1                	mov    %eax,%ecx
    6a7d:	48 d3 e2             	shl    %cl,%rdx
    6a80:	48 89 d0             	mov    %rdx,%rax
    6a83:	eb 04                	jmp    6a89 <safe_lshift_func_int64_t_s_s+0x52>
    6a85:	48 8b 45 f8          	mov    -0x8(%rbp),%rax
    6a89:	5d                   	pop    %rbp
    6a8a:	c3                   	retq   

0000000000006a8b <safe_lshift_func_int64_t_s_u>:
    6a8b:	f3 0f 1e fa          	endbr64 
    6a8f:	55                   	push   %rbp
    6a90:	48 89 e5             	mov    %rsp,%rbp
    6a93:	48 89 7d f8          	mov    %rdi,-0x8(%rbp)
    6a97:	89 75 f4             	mov    %esi,-0xc(%rbp)
    6a9a:	48 83 7d f8 00       	cmpq   $0x0,-0x8(%rbp)
    6a9f:	78 32                	js     6ad3 <safe_lshift_func_int64_t_s_u+0x48>
    6aa1:	83 7d f4 1f          	cmpl   $0x1f,-0xc(%rbp)
    6aa5:	77 2c                	ja     6ad3 <safe_lshift_func_int64_t_s_u+0x48>
    6aa7:	8b 45 f4             	mov    -0xc(%rbp),%eax
    6aaa:	48 ba ff ff ff ff ff 	movabs $0x7fffffffffffffff,%rdx
    6ab1:	ff ff 7f 
    6ab4:	89 c1                	mov    %eax,%ecx
    6ab6:	48 d3 fa             	sar    %cl,%rdx
    6ab9:	48 89 d0             	mov    %rdx,%rax
    6abc:	48 39 45 f8          	cmp    %rax,-0x8(%rbp)
    6ac0:	7f 11                	jg     6ad3 <safe_lshift_func_int64_t_s_u+0x48>
    6ac2:	8b 45 f4             	mov    -0xc(%rbp),%eax
    6ac5:	48 8b 55 f8          	mov    -0x8(%rbp),%rdx
    6ac9:	89 c1                	mov    %eax,%ecx
    6acb:	48 d3 e2             	shl    %cl,%rdx
    6ace:	48 89 d0             	mov    %rdx,%rax
    6ad1:	eb 04                	jmp    6ad7 <safe_lshift_func_int64_t_s_u+0x4c>
    6ad3:	48 8b 45 f8          	mov    -0x8(%rbp),%rax
    6ad7:	5d                   	pop    %rbp
    6ad8:	c3                   	retq   

0000000000006ad9 <safe_rshift_func_int64_t_s_s>:
    6ad9:	f3 0f 1e fa          	endbr64 
    6add:	55                   	push   %rbp
    6ade:	48 89 e5             	mov    %rsp,%rbp
    6ae1:	48 89 7d f8          	mov    %rdi,-0x8(%rbp)
    6ae5:	89 75 f4             	mov    %esi,-0xc(%rbp)
    6ae8:	48 83 7d f8 00       	cmpq   $0x0,-0x8(%rbp)
    6aed:	78 1d                	js     6b0c <safe_rshift_func_int64_t_s_s+0x33>
    6aef:	83 7d f4 00          	cmpl   $0x0,-0xc(%rbp)
    6af3:	78 17                	js     6b0c <safe_rshift_func_int64_t_s_s+0x33>
    6af5:	83 7d f4 1f          	cmpl   $0x1f,-0xc(%rbp)
    6af9:	7f 11                	jg     6b0c <safe_rshift_func_int64_t_s_s+0x33>
    6afb:	8b 45 f4             	mov    -0xc(%rbp),%eax
    6afe:	48 8b 55 f8          	mov    -0x8(%rbp),%rdx
    6b02:	89 c1                	mov    %eax,%ecx
    6b04:	48 d3 fa             	sar    %cl,%rdx
    6b07:	48 89 d0             	mov    %rdx,%rax
    6b0a:	eb 04                	jmp    6b10 <safe_rshift_func_int64_t_s_s+0x37>
    6b0c:	48 8b 45 f8          	mov    -0x8(%rbp),%rax
    6b10:	5d                   	pop    %rbp
    6b11:	c3                   	retq   

0000000000006b12 <safe_rshift_func_int64_t_s_u>:
    6b12:	f3 0f 1e fa          	endbr64 
    6b16:	55                   	push   %rbp
    6b17:	48 89 e5             	mov    %rsp,%rbp
    6b1a:	48 89 7d f8          	mov    %rdi,-0x8(%rbp)
    6b1e:	89 75 f4             	mov    %esi,-0xc(%rbp)
    6b21:	48 83 7d f8 00       	cmpq   $0x0,-0x8(%rbp)
    6b26:	78 17                	js     6b3f <safe_rshift_func_int64_t_s_u+0x2d>
    6b28:	83 7d f4 1f          	cmpl   $0x1f,-0xc(%rbp)
    6b2c:	77 11                	ja     6b3f <safe_rshift_func_int64_t_s_u+0x2d>
    6b2e:	8b 45 f4             	mov    -0xc(%rbp),%eax
    6b31:	48 8b 55 f8          	mov    -0x8(%rbp),%rdx
    6b35:	89 c1                	mov    %eax,%ecx
    6b37:	48 d3 fa             	sar    %cl,%rdx
    6b3a:	48 89 d0             	mov    %rdx,%rax
    6b3d:	eb 04                	jmp    6b43 <safe_rshift_func_int64_t_s_u+0x31>
    6b3f:	48 8b 45 f8          	mov    -0x8(%rbp),%rax
    6b43:	5d                   	pop    %rbp
    6b44:	c3                   	retq   

0000000000006b45 <safe_unary_minus_func_uint8_t_u>:
    6b45:	f3 0f 1e fa          	endbr64 
    6b49:	55                   	push   %rbp
    6b4a:	48 89 e5             	mov    %rsp,%rbp
    6b4d:	89 f8                	mov    %edi,%eax
    6b4f:	88 45 fc             	mov    %al,-0x4(%rbp)
    6b52:	0f b6 45 fc          	movzbl -0x4(%rbp),%eax
    6b56:	f7 d8                	neg    %eax
    6b58:	5d                   	pop    %rbp
    6b59:	c3                   	retq   

0000000000006b5a <safe_add_func_uint8_t_u_u>:
    6b5a:	f3 0f 1e fa          	endbr64 
    6b5e:	55                   	push   %rbp
    6b5f:	48 89 e5             	mov    %rsp,%rbp
    6b62:	89 fa                	mov    %edi,%edx
    6b64:	89 f0                	mov    %esi,%eax
    6b66:	88 55 fc             	mov    %dl,-0x4(%rbp)
    6b69:	88 45 f8             	mov    %al,-0x8(%rbp)
    6b6c:	0f b6 55 fc          	movzbl -0x4(%rbp),%edx
    6b70:	0f b6 45 f8          	movzbl -0x8(%rbp),%eax
    6b74:	01 d0                	add    %edx,%eax
    6b76:	5d                   	pop    %rbp
    6b77:	c3                   	retq   

0000000000006b78 <safe_sub_func_uint8_t_u_u>:
    6b78:	f3 0f 1e fa          	endbr64 
    6b7c:	55                   	push   %rbp
    6b7d:	48 89 e5             	mov    %rsp,%rbp
    6b80:	89 fa                	mov    %edi,%edx
    6b82:	89 f0                	mov    %esi,%eax
    6b84:	88 55 fc             	mov    %dl,-0x4(%rbp)
    6b87:	88 45 f8             	mov    %al,-0x8(%rbp)
    6b8a:	0f b6 45 fc          	movzbl -0x4(%rbp),%eax
    6b8e:	2a 45 f8             	sub    -0x8(%rbp),%al
    6b91:	5d                   	pop    %rbp
    6b92:	c3                   	retq   

0000000000006b93 <safe_mul_func_uint8_t_u_u>:
    6b93:	f3 0f 1e fa          	endbr64 
    6b97:	55                   	push   %rbp
    6b98:	48 89 e5             	mov    %rsp,%rbp
    6b9b:	89 fa                	mov    %edi,%edx
    6b9d:	89 f0                	mov    %esi,%eax
    6b9f:	88 55 fc             	mov    %dl,-0x4(%rbp)
    6ba2:	88 45 f8             	mov    %al,-0x8(%rbp)
    6ba5:	0f b6 45 fc          	movzbl -0x4(%rbp),%eax
    6ba9:	f6 65 f8             	mulb   -0x8(%rbp)
    6bac:	5d                   	pop    %rbp
    6bad:	c3                   	retq   

0000000000006bae <safe_mod_func_uint8_t_u_u>:
    6bae:	f3 0f 1e fa          	endbr64 
    6bb2:	55                   	push   %rbp
    6bb3:	48 89 e5             	mov    %rsp,%rbp
    6bb6:	89 fa                	mov    %edi,%edx
    6bb8:	89 f0                	mov    %esi,%eax
    6bba:	88 55 fc             	mov    %dl,-0x4(%rbp)
    6bbd:	88 45 f8             	mov    %al,-0x8(%rbp)
    6bc0:	80 7d f8 00          	cmpb   $0x0,-0x8(%rbp)
    6bc4:	74 0f                	je     6bd5 <safe_mod_func_uint8_t_u_u+0x27>
    6bc6:	0f b6 45 fc          	movzbl -0x4(%rbp),%eax
    6bca:	0f b6 c0             	movzbl %al,%eax
    6bcd:	f6 75 f8             	divb   -0x8(%rbp)
    6bd0:	0f b6 c4             	movzbl %ah,%eax
    6bd3:	eb 04                	jmp    6bd9 <safe_mod_func_uint8_t_u_u+0x2b>
    6bd5:	0f b6 45 fc          	movzbl -0x4(%rbp),%eax
    6bd9:	5d                   	pop    %rbp
    6bda:	c3                   	retq   

0000000000006bdb <safe_div_func_uint8_t_u_u>:
    6bdb:	f3 0f 1e fa          	endbr64 
    6bdf:	55                   	push   %rbp
    6be0:	48 89 e5             	mov    %rsp,%rbp
    6be3:	89 fa                	mov    %edi,%edx
    6be5:	89 f0                	mov    %esi,%eax
    6be7:	88 55 fc             	mov    %dl,-0x4(%rbp)
    6bea:	88 45 f8             	mov    %al,-0x8(%rbp)
    6bed:	80 7d f8 00          	cmpb   $0x0,-0x8(%rbp)
    6bf1:	74 0c                	je     6bff <safe_div_func_uint8_t_u_u+0x24>
    6bf3:	0f b6 45 fc          	movzbl -0x4(%rbp),%eax
    6bf7:	0f b6 c0             	movzbl %al,%eax
    6bfa:	f6 75 f8             	divb   -0x8(%rbp)
    6bfd:	eb 04                	jmp    6c03 <safe_div_func_uint8_t_u_u+0x28>
    6bff:	0f b6 45 fc          	movzbl -0x4(%rbp),%eax
    6c03:	5d                   	pop    %rbp
    6c04:	c3                   	retq   

0000000000006c05 <safe_lshift_func_uint8_t_u_s>:
    6c05:	f3 0f 1e fa          	endbr64 
    6c09:	55                   	push   %rbp
    6c0a:	48 89 e5             	mov    %rsp,%rbp
    6c0d:	89 f8                	mov    %edi,%eax
    6c0f:	89 75 f8             	mov    %esi,-0x8(%rbp)
    6c12:	88 45 fc             	mov    %al,-0x4(%rbp)
    6c15:	83 7d f8 00          	cmpl   $0x0,-0x8(%rbp)
    6c19:	78 2b                	js     6c46 <safe_lshift_func_uint8_t_u_s+0x41>
    6c1b:	83 7d f8 1f          	cmpl   $0x1f,-0x8(%rbp)
    6c1f:	7f 25                	jg     6c46 <safe_lshift_func_uint8_t_u_s+0x41>
    6c21:	0f b6 55 fc          	movzbl -0x4(%rbp),%edx
    6c25:	8b 45 f8             	mov    -0x8(%rbp),%eax
    6c28:	be ff 00 00 00       	mov    $0xff,%esi
    6c2d:	89 c1                	mov    %eax,%ecx
    6c2f:	d3 fe                	sar    %cl,%esi
    6c31:	89 f0                	mov    %esi,%eax
    6c33:	39 c2                	cmp    %eax,%edx
    6c35:	7f 0f                	jg     6c46 <safe_lshift_func_uint8_t_u_s+0x41>
    6c37:	0f b6 55 fc          	movzbl -0x4(%rbp),%edx
    6c3b:	8b 45 f8             	mov    -0x8(%rbp),%eax
    6c3e:	89 c1                	mov    %eax,%ecx
    6c40:	d3 e2                	shl    %cl,%edx
    6c42:	89 d0                	mov    %edx,%eax
    6c44:	eb 04                	jmp    6c4a <safe_lshift_func_uint8_t_u_s+0x45>
    6c46:	0f b6 45 fc          	movzbl -0x4(%rbp),%eax
    6c4a:	5d                   	pop    %rbp
    6c4b:	c3                   	retq   

0000000000006c4c <safe_lshift_func_uint8_t_u_u>:
    6c4c:	f3 0f 1e fa          	endbr64 
    6c50:	55                   	push   %rbp
    6c51:	48 89 e5             	mov    %rsp,%rbp
    6c54:	89 f8                	mov    %edi,%eax
    6c56:	89 75 f8             	mov    %esi,-0x8(%rbp)
    6c59:	88 45 fc             	mov    %al,-0x4(%rbp)
    6c5c:	83 7d f8 1f          	cmpl   $0x1f,-0x8(%rbp)
    6c60:	77 25                	ja     6c87 <safe_lshift_func_uint8_t_u_u+0x3b>
    6c62:	0f b6 55 fc          	movzbl -0x4(%rbp),%edx
    6c66:	8b 45 f8             	mov    -0x8(%rbp),%eax
    6c69:	be ff 00 00 00       	mov    $0xff,%esi
    6c6e:	89 c1                	mov    %eax,%ecx
    6c70:	d3 fe                	sar    %cl,%esi
    6c72:	89 f0                	mov    %esi,%eax
    6c74:	39 c2                	cmp    %eax,%edx
    6c76:	7f 0f                	jg     6c87 <safe_lshift_func_uint8_t_u_u+0x3b>
    6c78:	0f b6 55 fc          	movzbl -0x4(%rbp),%edx
    6c7c:	8b 45 f8             	mov    -0x8(%rbp),%eax
    6c7f:	89 c1                	mov    %eax,%ecx
    6c81:	d3 e2                	shl    %cl,%edx
    6c83:	89 d0                	mov    %edx,%eax
    6c85:	eb 04                	jmp    6c8b <safe_lshift_func_uint8_t_u_u+0x3f>
    6c87:	0f b6 45 fc          	movzbl -0x4(%rbp),%eax
    6c8b:	5d                   	pop    %rbp
    6c8c:	c3                   	retq   

0000000000006c8d <safe_rshift_func_uint8_t_u_s>:
    6c8d:	f3 0f 1e fa          	endbr64 
    6c91:	55                   	push   %rbp
    6c92:	48 89 e5             	mov    %rsp,%rbp
    6c95:	89 f8                	mov    %edi,%eax
    6c97:	89 75 f8             	mov    %esi,-0x8(%rbp)
    6c9a:	88 45 fc             	mov    %al,-0x4(%rbp)
    6c9d:	83 7d f8 00          	cmpl   $0x0,-0x8(%rbp)
    6ca1:	78 15                	js     6cb8 <safe_rshift_func_uint8_t_u_s+0x2b>
    6ca3:	83 7d f8 1f          	cmpl   $0x1f,-0x8(%rbp)
    6ca7:	7f 0f                	jg     6cb8 <safe_rshift_func_uint8_t_u_s+0x2b>
    6ca9:	0f b6 55 fc          	movzbl -0x4(%rbp),%edx
    6cad:	8b 45 f8             	mov    -0x8(%rbp),%eax
    6cb0:	89 c1                	mov    %eax,%ecx
    6cb2:	d3 fa                	sar    %cl,%edx
    6cb4:	89 d0                	mov    %edx,%eax
    6cb6:	eb 04                	jmp    6cbc <safe_rshift_func_uint8_t_u_s+0x2f>
    6cb8:	0f b6 45 fc          	movzbl -0x4(%rbp),%eax
    6cbc:	5d                   	pop    %rbp
    6cbd:	c3                   	retq   

0000000000006cbe <safe_rshift_func_uint8_t_u_u>:
    6cbe:	f3 0f 1e fa          	endbr64 
    6cc2:	55                   	push   %rbp
    6cc3:	48 89 e5             	mov    %rsp,%rbp
    6cc6:	89 f8                	mov    %edi,%eax
    6cc8:	89 75 f8             	mov    %esi,-0x8(%rbp)
    6ccb:	88 45 fc             	mov    %al,-0x4(%rbp)
    6cce:	83 7d f8 1f          	cmpl   $0x1f,-0x8(%rbp)
    6cd2:	77 0f                	ja     6ce3 <safe_rshift_func_uint8_t_u_u+0x25>
    6cd4:	0f b6 55 fc          	movzbl -0x4(%rbp),%edx
    6cd8:	8b 45 f8             	mov    -0x8(%rbp),%eax
    6cdb:	89 c1                	mov    %eax,%ecx
    6cdd:	d3 fa                	sar    %cl,%edx
    6cdf:	89 d0                	mov    %edx,%eax
    6ce1:	eb 04                	jmp    6ce7 <safe_rshift_func_uint8_t_u_u+0x29>
    6ce3:	0f b6 45 fc          	movzbl -0x4(%rbp),%eax
    6ce7:	5d                   	pop    %rbp
    6ce8:	c3                   	retq   

0000000000006ce9 <safe_unary_minus_func_uint16_t_u>:
    6ce9:	f3 0f 1e fa          	endbr64 
    6ced:	55                   	push   %rbp
    6cee:	48 89 e5             	mov    %rsp,%rbp
    6cf1:	89 f8                	mov    %edi,%eax
    6cf3:	66 89 45 fc          	mov    %ax,-0x4(%rbp)
    6cf7:	0f b7 45 fc          	movzwl -0x4(%rbp),%eax
    6cfb:	f7 d8                	neg    %eax
    6cfd:	5d                   	pop    %rbp
    6cfe:	c3                   	retq   

0000000000006cff <safe_add_func_uint16_t_u_u>:
    6cff:	f3 0f 1e fa          	endbr64 
    6d03:	55                   	push   %rbp
    6d04:	48 89 e5             	mov    %rsp,%rbp
    6d07:	89 fa                	mov    %edi,%edx
    6d09:	89 f0                	mov    %esi,%eax
    6d0b:	66 89 55 fc          	mov    %dx,-0x4(%rbp)
    6d0f:	66 89 45 f8          	mov    %ax,-0x8(%rbp)
    6d13:	0f b7 55 fc          	movzwl -0x4(%rbp),%edx
    6d17:	0f b7 45 f8          	movzwl -0x8(%rbp),%eax
    6d1b:	01 d0                	add    %edx,%eax
    6d1d:	5d                   	pop    %rbp
    6d1e:	c3                   	retq   

0000000000006d1f <safe_sub_func_uint16_t_u_u>:
    6d1f:	f3 0f 1e fa          	endbr64 
    6d23:	55                   	push   %rbp
    6d24:	48 89 e5             	mov    %rsp,%rbp
    6d27:	89 fa                	mov    %edi,%edx
    6d29:	89 f0                	mov    %esi,%eax
    6d2b:	66 89 55 fc          	mov    %dx,-0x4(%rbp)
    6d2f:	66 89 45 f8          	mov    %ax,-0x8(%rbp)
    6d33:	0f b7 45 fc          	movzwl -0x4(%rbp),%eax
    6d37:	66 2b 45 f8          	sub    -0x8(%rbp),%ax
    6d3b:	5d                   	pop    %rbp
    6d3c:	c3                   	retq   

0000000000006d3d <safe_mul_func_uint16_t_u_u>:
    6d3d:	f3 0f 1e fa          	endbr64 
    6d41:	55                   	push   %rbp
    6d42:	48 89 e5             	mov    %rsp,%rbp
    6d45:	89 fa                	mov    %edi,%edx
    6d47:	89 f0                	mov    %esi,%eax
    6d49:	66 89 55 fc          	mov    %dx,-0x4(%rbp)
    6d4d:	66 89 45 f8          	mov    %ax,-0x8(%rbp)
    6d51:	0f b7 45 fc          	movzwl -0x4(%rbp),%eax
    6d55:	66 0f af 45 f8       	imul   -0x8(%rbp),%ax
    6d5a:	5d                   	pop    %rbp
    6d5b:	c3                   	retq   

0000000000006d5c <safe_mod_func_uint16_t_u_u>:
    6d5c:	f3 0f 1e fa          	endbr64 
    6d60:	55                   	push   %rbp
    6d61:	48 89 e5             	mov    %rsp,%rbp
    6d64:	89 fa                	mov    %edi,%edx
    6d66:	89 f0                	mov    %esi,%eax
    6d68:	66 89 55 fc          	mov    %dx,-0x4(%rbp)
    6d6c:	66 89 45 f8          	mov    %ax,-0x8(%rbp)
    6d70:	66 83 7d f8 00       	cmpw   $0x0,-0x8(%rbp)
    6d75:	74 11                	je     6d88 <safe_mod_func_uint16_t_u_u+0x2c>
    6d77:	0f b7 45 fc          	movzwl -0x4(%rbp),%eax
    6d7b:	ba 00 00 00 00       	mov    $0x0,%edx
    6d80:	66 f7 75 f8          	divw   -0x8(%rbp)
    6d84:	89 d0                	mov    %edx,%eax
    6d86:	eb 04                	jmp    6d8c <safe_mod_func_uint16_t_u_u+0x30>
    6d88:	0f b7 45 fc          	movzwl -0x4(%rbp),%eax
    6d8c:	5d                   	pop    %rbp
    6d8d:	c3                   	retq   

0000000000006d8e <safe_div_func_uint16_t_u_u>:
    6d8e:	f3 0f 1e fa          	endbr64 
    6d92:	55                   	push   %rbp
    6d93:	48 89 e5             	mov    %rsp,%rbp
    6d96:	89 fa                	mov    %edi,%edx
    6d98:	89 f0                	mov    %esi,%eax
    6d9a:	66 89 55 fc          	mov    %dx,-0x4(%rbp)
    6d9e:	66 89 45 f8          	mov    %ax,-0x8(%rbp)
    6da2:	66 83 7d f8 00       	cmpw   $0x0,-0x8(%rbp)
    6da7:	74 0f                	je     6db8 <safe_div_func_uint16_t_u_u+0x2a>
    6da9:	0f b7 45 fc          	movzwl -0x4(%rbp),%eax
    6dad:	ba 00 00 00 00       	mov    $0x0,%edx
    6db2:	66 f7 75 f8          	divw   -0x8(%rbp)
    6db6:	eb 04                	jmp    6dbc <safe_div_func_uint16_t_u_u+0x2e>
    6db8:	0f b7 45 fc          	movzwl -0x4(%rbp),%eax
    6dbc:	5d                   	pop    %rbp
    6dbd:	c3                   	retq   

0000000000006dbe <safe_lshift_func_uint16_t_u_s>:
    6dbe:	f3 0f 1e fa          	endbr64 
    6dc2:	55                   	push   %rbp
    6dc3:	48 89 e5             	mov    %rsp,%rbp
    6dc6:	89 f8                	mov    %edi,%eax
    6dc8:	89 75 f8             	mov    %esi,-0x8(%rbp)
    6dcb:	66 89 45 fc          	mov    %ax,-0x4(%rbp)
    6dcf:	83 7d f8 00          	cmpl   $0x0,-0x8(%rbp)
    6dd3:	78 2b                	js     6e00 <safe_lshift_func_uint16_t_u_s+0x42>
    6dd5:	83 7d f8 1f          	cmpl   $0x1f,-0x8(%rbp)
    6dd9:	7f 25                	jg     6e00 <safe_lshift_func_uint16_t_u_s+0x42>
    6ddb:	0f b7 55 fc          	movzwl -0x4(%rbp),%edx
    6ddf:	8b 45 f8             	mov    -0x8(%rbp),%eax
    6de2:	be ff ff 00 00       	mov    $0xffff,%esi
    6de7:	89 c1                	mov    %eax,%ecx
    6de9:	d3 fe                	sar    %cl,%esi
    6deb:	89 f0                	mov    %esi,%eax
    6ded:	39 c2                	cmp    %eax,%edx
    6def:	7f 0f                	jg     6e00 <safe_lshift_func_uint16_t_u_s+0x42>
    6df1:	0f b7 55 fc          	movzwl -0x4(%rbp),%edx
    6df5:	8b 45 f8             	mov    -0x8(%rbp),%eax
    6df8:	89 c1                	mov    %eax,%ecx
    6dfa:	d3 e2                	shl    %cl,%edx
    6dfc:	89 d0                	mov    %edx,%eax
    6dfe:	eb 04                	jmp    6e04 <safe_lshift_func_uint16_t_u_s+0x46>
    6e00:	0f b7 45 fc          	movzwl -0x4(%rbp),%eax
    6e04:	5d                   	pop    %rbp
    6e05:	c3                   	retq   

0000000000006e06 <safe_lshift_func_uint16_t_u_u>:
    6e06:	f3 0f 1e fa          	endbr64 
    6e0a:	55                   	push   %rbp
    6e0b:	48 89 e5             	mov    %rsp,%rbp
    6e0e:	89 f8                	mov    %edi,%eax
    6e10:	89 75 f8             	mov    %esi,-0x8(%rbp)
    6e13:	66 89 45 fc          	mov    %ax,-0x4(%rbp)
    6e17:	83 7d f8 1f          	cmpl   $0x1f,-0x8(%rbp)
    6e1b:	77 25                	ja     6e42 <safe_lshift_func_uint16_t_u_u+0x3c>
    6e1d:	0f b7 55 fc          	movzwl -0x4(%rbp),%edx
    6e21:	8b 45 f8             	mov    -0x8(%rbp),%eax
    6e24:	be ff ff 00 00       	mov    $0xffff,%esi
    6e29:	89 c1                	mov    %eax,%ecx
    6e2b:	d3 fe                	sar    %cl,%esi
    6e2d:	89 f0                	mov    %esi,%eax
    6e2f:	39 c2                	cmp    %eax,%edx
    6e31:	7f 0f                	jg     6e42 <safe_lshift_func_uint16_t_u_u+0x3c>
    6e33:	0f b7 55 fc          	movzwl -0x4(%rbp),%edx
    6e37:	8b 45 f8             	mov    -0x8(%rbp),%eax
    6e3a:	89 c1                	mov    %eax,%ecx
    6e3c:	d3 e2                	shl    %cl,%edx
    6e3e:	89 d0                	mov    %edx,%eax
    6e40:	eb 04                	jmp    6e46 <safe_lshift_func_uint16_t_u_u+0x40>
    6e42:	0f b7 45 fc          	movzwl -0x4(%rbp),%eax
    6e46:	5d                   	pop    %rbp
    6e47:	c3                   	retq   

0000000000006e48 <safe_rshift_func_uint16_t_u_s>:
    6e48:	f3 0f 1e fa          	endbr64 
    6e4c:	55                   	push   %rbp
    6e4d:	48 89 e5             	mov    %rsp,%rbp
    6e50:	89 f8                	mov    %edi,%eax
    6e52:	89 75 f8             	mov    %esi,-0x8(%rbp)
    6e55:	66 89 45 fc          	mov    %ax,-0x4(%rbp)
    6e59:	83 7d f8 00          	cmpl   $0x0,-0x8(%rbp)
    6e5d:	78 15                	js     6e74 <safe_rshift_func_uint16_t_u_s+0x2c>
    6e5f:	83 7d f8 1f          	cmpl   $0x1f,-0x8(%rbp)
    6e63:	7f 0f                	jg     6e74 <safe_rshift_func_uint16_t_u_s+0x2c>
    6e65:	0f b7 55 fc          	movzwl -0x4(%rbp),%edx
    6e69:	8b 45 f8             	mov    -0x8(%rbp),%eax
    6e6c:	89 c1                	mov    %eax,%ecx
    6e6e:	d3 fa                	sar    %cl,%edx
    6e70:	89 d0                	mov    %edx,%eax
    6e72:	eb 04                	jmp    6e78 <safe_rshift_func_uint16_t_u_s+0x30>
    6e74:	0f b7 45 fc          	movzwl -0x4(%rbp),%eax
    6e78:	5d                   	pop    %rbp
    6e79:	c3                   	retq   

0000000000006e7a <safe_rshift_func_uint16_t_u_u>:
    6e7a:	f3 0f 1e fa          	endbr64 
    6e7e:	55                   	push   %rbp
    6e7f:	48 89 e5             	mov    %rsp,%rbp
    6e82:	89 f8                	mov    %edi,%eax
    6e84:	89 75 f8             	mov    %esi,-0x8(%rbp)
    6e87:	66 89 45 fc          	mov    %ax,-0x4(%rbp)
    6e8b:	83 7d f8 1f          	cmpl   $0x1f,-0x8(%rbp)
    6e8f:	77 0f                	ja     6ea0 <safe_rshift_func_uint16_t_u_u+0x26>
    6e91:	0f b7 55 fc          	movzwl -0x4(%rbp),%edx
    6e95:	8b 45 f8             	mov    -0x8(%rbp),%eax
    6e98:	89 c1                	mov    %eax,%ecx
    6e9a:	d3 fa                	sar    %cl,%edx
    6e9c:	89 d0                	mov    %edx,%eax
    6e9e:	eb 04                	jmp    6ea4 <safe_rshift_func_uint16_t_u_u+0x2a>
    6ea0:	0f b7 45 fc          	movzwl -0x4(%rbp),%eax
    6ea4:	5d                   	pop    %rbp
    6ea5:	c3                   	retq   

0000000000006ea6 <safe_unary_minus_func_uint32_t_u>:
    6ea6:	f3 0f 1e fa          	endbr64 
    6eaa:	55                   	push   %rbp
    6eab:	48 89 e5             	mov    %rsp,%rbp
    6eae:	89 7d fc             	mov    %edi,-0x4(%rbp)
    6eb1:	8b 45 fc             	mov    -0x4(%rbp),%eax
    6eb4:	f7 d8                	neg    %eax
    6eb6:	5d                   	pop    %rbp
    6eb7:	c3                   	retq   

0000000000006eb8 <safe_add_func_uint32_t_u_u>:
    6eb8:	f3 0f 1e fa          	endbr64 
    6ebc:	55                   	push   %rbp
    6ebd:	48 89 e5             	mov    %rsp,%rbp
    6ec0:	89 7d fc             	mov    %edi,-0x4(%rbp)
    6ec3:	89 75 f8             	mov    %esi,-0x8(%rbp)
    6ec6:	8b 55 fc             	mov    -0x4(%rbp),%edx
    6ec9:	8b 45 f8             	mov    -0x8(%rbp),%eax
    6ecc:	01 d0                	add    %edx,%eax
    6ece:	5d                   	pop    %rbp
    6ecf:	c3                   	retq   

0000000000006ed0 <safe_sub_func_uint32_t_u_u>:
    6ed0:	f3 0f 1e fa          	endbr64 
    6ed4:	55                   	push   %rbp
    6ed5:	48 89 e5             	mov    %rsp,%rbp
    6ed8:	89 7d fc             	mov    %edi,-0x4(%rbp)
    6edb:	89 75 f8             	mov    %esi,-0x8(%rbp)
    6ede:	8b 45 fc             	mov    -0x4(%rbp),%eax
    6ee1:	2b 45 f8             	sub    -0x8(%rbp),%eax
    6ee4:	5d                   	pop    %rbp
    6ee5:	c3                   	retq   

0000000000006ee6 <safe_mul_func_uint32_t_u_u>:
    6ee6:	f3 0f 1e fa          	endbr64 
    6eea:	55                   	push   %rbp
    6eeb:	48 89 e5             	mov    %rsp,%rbp
    6eee:	89 7d fc             	mov    %edi,-0x4(%rbp)
    6ef1:	89 75 f8             	mov    %esi,-0x8(%rbp)
    6ef4:	8b 45 fc             	mov    -0x4(%rbp),%eax
    6ef7:	0f af 45 f8          	imul   -0x8(%rbp),%eax
    6efb:	5d                   	pop    %rbp
    6efc:	c3                   	retq   

0000000000006efd <safe_mod_func_uint32_t_u_u>:
    6efd:	f3 0f 1e fa          	endbr64 
    6f01:	55                   	push   %rbp
    6f02:	48 89 e5             	mov    %rsp,%rbp
    6f05:	89 7d fc             	mov    %edi,-0x4(%rbp)
    6f08:	89 75 f8             	mov    %esi,-0x8(%rbp)
    6f0b:	83 7d f8 00          	cmpl   $0x0,-0x8(%rbp)
    6f0f:	74 0f                	je     6f20 <safe_mod_func_uint32_t_u_u+0x23>
    6f11:	8b 45 fc             	mov    -0x4(%rbp),%eax
    6f14:	ba 00 00 00 00       	mov    $0x0,%edx
    6f19:	f7 75 f8             	divl   -0x8(%rbp)
    6f1c:	89 d0                	mov    %edx,%eax
    6f1e:	eb 03                	jmp    6f23 <safe_mod_func_uint32_t_u_u+0x26>
    6f20:	8b 45 fc             	mov    -0x4(%rbp),%eax
    6f23:	5d                   	pop    %rbp
    6f24:	c3                   	retq   

0000000000006f25 <safe_div_func_uint32_t_u_u>:
    6f25:	f3 0f 1e fa          	endbr64 
    6f29:	55                   	push   %rbp
    6f2a:	48 89 e5             	mov    %rsp,%rbp
    6f2d:	89 7d fc             	mov    %edi,-0x4(%rbp)
    6f30:	89 75 f8             	mov    %esi,-0x8(%rbp)
    6f33:	83 7d f8 00          	cmpl   $0x0,-0x8(%rbp)
    6f37:	74 0d                	je     6f46 <safe_div_func_uint32_t_u_u+0x21>
    6f39:	8b 45 fc             	mov    -0x4(%rbp),%eax
    6f3c:	ba 00 00 00 00       	mov    $0x0,%edx
    6f41:	f7 75 f8             	divl   -0x8(%rbp)
    6f44:	eb 03                	jmp    6f49 <safe_div_func_uint32_t_u_u+0x24>
    6f46:	8b 45 fc             	mov    -0x4(%rbp),%eax
    6f49:	5d                   	pop    %rbp
    6f4a:	c3                   	retq   

0000000000006f4b <safe_lshift_func_uint32_t_u_s>:
    6f4b:	f3 0f 1e fa          	endbr64 
    6f4f:	55                   	push   %rbp
    6f50:	48 89 e5             	mov    %rsp,%rbp
    6f53:	89 7d fc             	mov    %edi,-0x4(%rbp)
    6f56:	89 75 f8             	mov    %esi,-0x8(%rbp)
    6f59:	83 7d f8 00          	cmpl   $0x0,-0x8(%rbp)
    6f5d:	78 27                	js     6f86 <safe_lshift_func_uint32_t_u_s+0x3b>
    6f5f:	83 7d f8 1f          	cmpl   $0x1f,-0x8(%rbp)
    6f63:	7f 21                	jg     6f86 <safe_lshift_func_uint32_t_u_s+0x3b>
    6f65:	8b 45 f8             	mov    -0x8(%rbp),%eax
    6f68:	ba ff ff ff ff       	mov    $0xffffffff,%edx
    6f6d:	89 c1                	mov    %eax,%ecx
    6f6f:	d3 ea                	shr    %cl,%edx
    6f71:	89 d0                	mov    %edx,%eax
    6f73:	39 45 fc             	cmp    %eax,-0x4(%rbp)
    6f76:	77 0e                	ja     6f86 <safe_lshift_func_uint32_t_u_s+0x3b>
    6f78:	8b 45 f8             	mov    -0x8(%rbp),%eax
    6f7b:	8b 55 fc             	mov    -0x4(%rbp),%edx
    6f7e:	89 c1                	mov    %eax,%ecx
    6f80:	d3 e2                	shl    %cl,%edx
    6f82:	89 d0                	mov    %edx,%eax
    6f84:	eb 03                	jmp    6f89 <safe_lshift_func_uint32_t_u_s+0x3e>
    6f86:	8b 45 fc             	mov    -0x4(%rbp),%eax
    6f89:	5d                   	pop    %rbp
    6f8a:	c3                   	retq   

0000000000006f8b <safe_lshift_func_uint32_t_u_u>:
    6f8b:	f3 0f 1e fa          	endbr64 
    6f8f:	55                   	push   %rbp
    6f90:	48 89 e5             	mov    %rsp,%rbp
    6f93:	89 7d fc             	mov    %edi,-0x4(%rbp)
    6f96:	89 75 f8             	mov    %esi,-0x8(%rbp)
    6f99:	83 7d f8 1f          	cmpl   $0x1f,-0x8(%rbp)
    6f9d:	77 21                	ja     6fc0 <safe_lshift_func_uint32_t_u_u+0x35>
    6f9f:	8b 45 f8             	mov    -0x8(%rbp),%eax
    6fa2:	ba ff ff ff ff       	mov    $0xffffffff,%edx
    6fa7:	89 c1                	mov    %eax,%ecx
    6fa9:	d3 ea                	shr    %cl,%edx
    6fab:	89 d0                	mov    %edx,%eax
    6fad:	39 45 fc             	cmp    %eax,-0x4(%rbp)
    6fb0:	77 0e                	ja     6fc0 <safe_lshift_func_uint32_t_u_u+0x35>
    6fb2:	8b 45 f8             	mov    -0x8(%rbp),%eax
    6fb5:	8b 55 fc             	mov    -0x4(%rbp),%edx
    6fb8:	89 c1                	mov    %eax,%ecx
    6fba:	d3 e2                	shl    %cl,%edx
    6fbc:	89 d0                	mov    %edx,%eax
    6fbe:	eb 03                	jmp    6fc3 <safe_lshift_func_uint32_t_u_u+0x38>
    6fc0:	8b 45 fc             	mov    -0x4(%rbp),%eax
    6fc3:	5d                   	pop    %rbp
    6fc4:	c3                   	retq   

0000000000006fc5 <safe_rshift_func_uint32_t_u_s>:
    6fc5:	f3 0f 1e fa          	endbr64 
    6fc9:	55                   	push   %rbp
    6fca:	48 89 e5             	mov    %rsp,%rbp
    6fcd:	89 7d fc             	mov    %edi,-0x4(%rbp)
    6fd0:	89 75 f8             	mov    %esi,-0x8(%rbp)
    6fd3:	83 7d f8 00          	cmpl   $0x0,-0x8(%rbp)
    6fd7:	78 14                	js     6fed <safe_rshift_func_uint32_t_u_s+0x28>
    6fd9:	83 7d f8 1f          	cmpl   $0x1f,-0x8(%rbp)
    6fdd:	7f 0e                	jg     6fed <safe_rshift_func_uint32_t_u_s+0x28>
    6fdf:	8b 45 f8             	mov    -0x8(%rbp),%eax
    6fe2:	8b 55 fc             	mov    -0x4(%rbp),%edx
    6fe5:	89 c1                	mov    %eax,%ecx
    6fe7:	d3 ea                	shr    %cl,%edx
    6fe9:	89 d0                	mov    %edx,%eax
    6feb:	eb 03                	jmp    6ff0 <safe_rshift_func_uint32_t_u_s+0x2b>
    6fed:	8b 45 fc             	mov    -0x4(%rbp),%eax
    6ff0:	5d                   	pop    %rbp
    6ff1:	c3                   	retq   

0000000000006ff2 <safe_rshift_func_uint32_t_u_u>:
    6ff2:	f3 0f 1e fa          	endbr64 
    6ff6:	55                   	push   %rbp
    6ff7:	48 89 e5             	mov    %rsp,%rbp
    6ffa:	89 7d fc             	mov    %edi,-0x4(%rbp)
    6ffd:	89 75 f8             	mov    %esi,-0x8(%rbp)
    7000:	83 7d f8 1f          	cmpl   $0x1f,-0x8(%rbp)
    7004:	77 0e                	ja     7014 <safe_rshift_func_uint32_t_u_u+0x22>
    7006:	8b 45 f8             	mov    -0x8(%rbp),%eax
    7009:	8b 55 fc             	mov    -0x4(%rbp),%edx
    700c:	89 c1                	mov    %eax,%ecx
    700e:	d3 ea                	shr    %cl,%edx
    7010:	89 d0                	mov    %edx,%eax
    7012:	eb 03                	jmp    7017 <safe_rshift_func_uint32_t_u_u+0x25>
    7014:	8b 45 fc             	mov    -0x4(%rbp),%eax
    7017:	5d                   	pop    %rbp
    7018:	c3                   	retq   

0000000000007019 <safe_unary_minus_func_uint64_t_u>:
    7019:	f3 0f 1e fa          	endbr64 
    701d:	55                   	push   %rbp
    701e:	48 89 e5             	mov    %rsp,%rbp
    7021:	48 89 7d f8          	mov    %rdi,-0x8(%rbp)
    7025:	48 8b 45 f8          	mov    -0x8(%rbp),%rax
    7029:	48 f7 d8             	neg    %rax
    702c:	5d                   	pop    %rbp
    702d:	c3                   	retq   

000000000000702e <safe_add_func_uint64_t_u_u>:
    702e:	f3 0f 1e fa          	endbr64 
    7032:	55                   	push   %rbp
    7033:	48 89 e5             	mov    %rsp,%rbp
    7036:	48 89 7d f8          	mov    %rdi,-0x8(%rbp)
    703a:	48 89 75 f0          	mov    %rsi,-0x10(%rbp)
    703e:	48 8b 55 f8          	mov    -0x8(%rbp),%rdx
    7042:	48 8b 45 f0          	mov    -0x10(%rbp),%rax
    7046:	48 01 d0             	add    %rdx,%rax
    7049:	5d                   	pop    %rbp
    704a:	c3                   	retq   

000000000000704b <safe_sub_func_uint64_t_u_u>:
    704b:	f3 0f 1e fa          	endbr64 
    704f:	55                   	push   %rbp
    7050:	48 89 e5             	mov    %rsp,%rbp
    7053:	48 89 7d f8          	mov    %rdi,-0x8(%rbp)
    7057:	48 89 75 f0          	mov    %rsi,-0x10(%rbp)
    705b:	48 8b 45 f8          	mov    -0x8(%rbp),%rax
    705f:	48 2b 45 f0          	sub    -0x10(%rbp),%rax
    7063:	5d                   	pop    %rbp
    7064:	c3                   	retq   

0000000000007065 <safe_mul_func_uint64_t_u_u>:
    7065:	f3 0f 1e fa          	endbr64 
    7069:	55                   	push   %rbp
    706a:	48 89 e5             	mov    %rsp,%rbp
    706d:	48 89 7d f8          	mov    %rdi,-0x8(%rbp)
    7071:	48 89 75 f0          	mov    %rsi,-0x10(%rbp)
    7075:	48 8b 45 f8          	mov    -0x8(%rbp),%rax
    7079:	48 0f af 45 f0       	imul   -0x10(%rbp),%rax
    707e:	5d                   	pop    %rbp
    707f:	c3                   	retq   

0000000000007080 <safe_mod_func_uint64_t_u_u>:
    7080:	f3 0f 1e fa          	endbr64 
    7084:	55                   	push   %rbp
    7085:	48 89 e5             	mov    %rsp,%rbp
    7088:	48 89 7d f8          	mov    %rdi,-0x8(%rbp)
    708c:	48 89 75 f0          	mov    %rsi,-0x10(%rbp)
    7090:	48 83 7d f0 00       	cmpq   $0x0,-0x10(%rbp)
    7095:	74 12                	je     70a9 <safe_mod_func_uint64_t_u_u+0x29>
    7097:	48 8b 45 f8          	mov    -0x8(%rbp),%rax
    709b:	ba 00 00 00 00       	mov    $0x0,%edx
    70a0:	48 f7 75 f0          	divq   -0x10(%rbp)
    70a4:	48 89 d0             	mov    %rdx,%rax
    70a7:	eb 04                	jmp    70ad <safe_mod_func_uint64_t_u_u+0x2d>
    70a9:	48 8b 45 f8          	mov    -0x8(%rbp),%rax
    70ad:	5d                   	pop    %rbp
    70ae:	c3                   	retq   

00000000000070af <safe_div_func_uint64_t_u_u>:
    70af:	f3 0f 1e fa          	endbr64 
    70b3:	55                   	push   %rbp
    70b4:	48 89 e5             	mov    %rsp,%rbp
    70b7:	48 89 7d f8          	mov    %rdi,-0x8(%rbp)
    70bb:	48 89 75 f0          	mov    %rsi,-0x10(%rbp)
    70bf:	48 83 7d f0 00       	cmpq   $0x0,-0x10(%rbp)
    70c4:	74 0f                	je     70d5 <safe_div_func_uint64_t_u_u+0x26>
    70c6:	48 8b 45 f8          	mov    -0x8(%rbp),%rax
    70ca:	ba 00 00 00 00       	mov    $0x0,%edx
    70cf:	48 f7 75 f0          	divq   -0x10(%rbp)
    70d3:	eb 04                	jmp    70d9 <safe_div_func_uint64_t_u_u+0x2a>
    70d5:	48 8b 45 f8          	mov    -0x8(%rbp),%rax
    70d9:	5d                   	pop    %rbp
    70da:	c3                   	retq   

00000000000070db <safe_lshift_func_uint64_t_u_s>:
    70db:	f3 0f 1e fa          	endbr64 
    70df:	55                   	push   %rbp
    70e0:	48 89 e5             	mov    %rsp,%rbp
    70e3:	48 89 7d f8          	mov    %rdi,-0x8(%rbp)
    70e7:	89 75 f4             	mov    %esi,-0xc(%rbp)
    70ea:	83 7d f4 00          	cmpl   $0x0,-0xc(%rbp)
    70ee:	78 2f                	js     711f <safe_lshift_func_uint64_t_u_s+0x44>
    70f0:	83 7d f4 1f          	cmpl   $0x1f,-0xc(%rbp)
    70f4:	7f 29                	jg     711f <safe_lshift_func_uint64_t_u_s+0x44>
    70f6:	8b 45 f4             	mov    -0xc(%rbp),%eax
    70f9:	48 c7 c2 ff ff ff ff 	mov    $0xffffffffffffffff,%rdx
    7100:	89 c1                	mov    %eax,%ecx
    7102:	48 d3 ea             	shr    %cl,%rdx
    7105:	48 89 d0             	mov    %rdx,%rax
    7108:	48 39 45 f8          	cmp    %rax,-0x8(%rbp)
    710c:	77 11                	ja     711f <safe_lshift_func_uint64_t_u_s+0x44>
    710e:	8b 45 f4             	mov    -0xc(%rbp),%eax
    7111:	48 8b 55 f8          	mov    -0x8(%rbp),%rdx
    7115:	89 c1                	mov    %eax,%ecx
    7117:	48 d3 e2             	shl    %cl,%rdx
    711a:	48 89 d0             	mov    %rdx,%rax
    711d:	eb 04                	jmp    7123 <safe_lshift_func_uint64_t_u_s+0x48>
    711f:	48 8b 45 f8          	mov    -0x8(%rbp),%rax
    7123:	5d                   	pop    %rbp
    7124:	c3                   	retq   

0000000000007125 <safe_lshift_func_uint64_t_u_u>:
    7125:	f3 0f 1e fa          	endbr64 
    7129:	55                   	push   %rbp
    712a:	48 89 e5             	mov    %rsp,%rbp
    712d:	48 89 7d f8          	mov    %rdi,-0x8(%rbp)
    7131:	89 75 f4             	mov    %esi,-0xc(%rbp)
    7134:	83 7d f4 1f          	cmpl   $0x1f,-0xc(%rbp)
    7138:	77 29                	ja     7163 <safe_lshift_func_uint64_t_u_u+0x3e>
    713a:	8b 45 f4             	mov    -0xc(%rbp),%eax
    713d:	48 c7 c2 ff ff ff ff 	mov    $0xffffffffffffffff,%rdx
    7144:	89 c1                	mov    %eax,%ecx
    7146:	48 d3 ea             	shr    %cl,%rdx
    7149:	48 89 d0             	mov    %rdx,%rax
    714c:	48 39 45 f8          	cmp    %rax,-0x8(%rbp)
    7150:	77 11                	ja     7163 <safe_lshift_func_uint64_t_u_u+0x3e>
    7152:	8b 45 f4             	mov    -0xc(%rbp),%eax
    7155:	48 8b 55 f8          	mov    -0x8(%rbp),%rdx
    7159:	89 c1                	mov    %eax,%ecx
    715b:	48 d3 e2             	shl    %cl,%rdx
    715e:	48 89 d0             	mov    %rdx,%rax
    7161:	eb 04                	jmp    7167 <safe_lshift_func_uint64_t_u_u+0x42>
    7163:	48 8b 45 f8          	mov    -0x8(%rbp),%rax
    7167:	5d                   	pop    %rbp
    7168:	c3                   	retq   

0000000000007169 <safe_rshift_func_uint64_t_u_s>:
    7169:	f3 0f 1e fa          	endbr64 
    716d:	55                   	push   %rbp
    716e:	48 89 e5             	mov    %rsp,%rbp
    7171:	48 89 7d f8          	mov    %rdi,-0x8(%rbp)
    7175:	89 75 f4             	mov    %esi,-0xc(%rbp)
    7178:	83 7d f4 00          	cmpl   $0x0,-0xc(%rbp)
    717c:	78 17                	js     7195 <safe_rshift_func_uint64_t_u_s+0x2c>
    717e:	83 7d f4 1f          	cmpl   $0x1f,-0xc(%rbp)
    7182:	7f 11                	jg     7195 <safe_rshift_func_uint64_t_u_s+0x2c>
    7184:	8b 45 f4             	mov    -0xc(%rbp),%eax
    7187:	48 8b 55 f8          	mov    -0x8(%rbp),%rdx
    718b:	89 c1                	mov    %eax,%ecx
    718d:	48 d3 ea             	shr    %cl,%rdx
    7190:	48 89 d0             	mov    %rdx,%rax
    7193:	eb 04                	jmp    7199 <safe_rshift_func_uint64_t_u_s+0x30>
    7195:	48 8b 45 f8          	mov    -0x8(%rbp),%rax
    7199:	5d                   	pop    %rbp
    719a:	c3                   	retq   

000000000000719b <safe_rshift_func_uint64_t_u_u>:
    719b:	f3 0f 1e fa          	endbr64 
    719f:	55                   	push   %rbp
    71a0:	48 89 e5             	mov    %rsp,%rbp
    71a3:	48 89 7d f8          	mov    %rdi,-0x8(%rbp)
    71a7:	89 75 f4             	mov    %esi,-0xc(%rbp)
    71aa:	83 7d f4 1f          	cmpl   $0x1f,-0xc(%rbp)
    71ae:	77 11                	ja     71c1 <safe_rshift_func_uint64_t_u_u+0x26>
    71b0:	8b 45 f4             	mov    -0xc(%rbp),%eax
    71b3:	48 8b 55 f8          	mov    -0x8(%rbp),%rdx
    71b7:	89 c1                	mov    %eax,%ecx
    71b9:	48 d3 ea             	shr    %cl,%rdx
    71bc:	48 89 d0             	mov    %rdx,%rax
    71bf:	eb 04                	jmp    71c5 <safe_rshift_func_uint64_t_u_u+0x2a>
    71c1:	48 8b 45 f8          	mov    -0x8(%rbp),%rax
    71c5:	5d                   	pop    %rbp
    71c6:	c3                   	retq   

00000000000071c7 <safe_add_func_float_f_f>:
    71c7:	f3 0f 1e fa          	endbr64 
    71cb:	55                   	push   %rbp
    71cc:	48 89 e5             	mov    %rsp,%rbp
    71cf:	f3 0f 11 45 fc       	movss  %xmm0,-0x4(%rbp)
    71d4:	f3 0f 11 4d f8       	movss  %xmm1,-0x8(%rbp)
    71d9:	f3 0f 10 4d fc       	movss  -0x4(%rbp),%xmm1
    71de:	f3 0f 10 05 da c0 00 	movss  0xc0da(%rip),%xmm0        # 132c0 <l_1219.4135+0x120>
    71e5:	00 
    71e6:	f3 0f 59 c8          	mulss  %xmm0,%xmm1
    71ea:	f3 0f 10 55 f8       	movss  -0x8(%rbp),%xmm2
    71ef:	f3 0f 10 05 c9 c0 00 	movss  0xc0c9(%rip),%xmm0        # 132c0 <l_1219.4135+0x120>
    71f6:	00 
    71f7:	f3 0f 59 c2          	mulss  %xmm2,%xmm0
    71fb:	f3 0f 58 c1          	addss  %xmm1,%xmm0
    71ff:	f3 0f 10 0d c9 c0 00 	movss  0xc0c9(%rip),%xmm1        # 132d0 <l_1219.4135+0x130>
    7206:	00 
    7207:	0f 54 c1             	andps  %xmm1,%xmm0
    720a:	0f 2f 05 cf c0 00 00 	comiss 0xc0cf(%rip),%xmm0        # 132e0 <l_1219.4135+0x140>
    7211:	76 07                	jbe    721a <safe_add_func_float_f_f+0x53>
    7213:	f3 0f 10 45 fc       	movss  -0x4(%rbp),%xmm0
    7218:	eb 0a                	jmp    7224 <safe_add_func_float_f_f+0x5d>
    721a:	f3 0f 10 45 fc       	movss  -0x4(%rbp),%xmm0
    721f:	f3 0f 58 45 f8       	addss  -0x8(%rbp),%xmm0
    7224:	5d                   	pop    %rbp
    7225:	c3                   	retq   

0000000000007226 <safe_sub_func_float_f_f>:
    7226:	f3 0f 1e fa          	endbr64 
    722a:	55                   	push   %rbp
    722b:	48 89 e5             	mov    %rsp,%rbp
    722e:	f3 0f 11 45 fc       	movss  %xmm0,-0x4(%rbp)
    7233:	f3 0f 11 4d f8       	movss  %xmm1,-0x8(%rbp)
    7238:	f3 0f 10 4d fc       	movss  -0x4(%rbp),%xmm1
    723d:	f3 0f 10 05 7b c0 00 	movss  0xc07b(%rip),%xmm0        # 132c0 <l_1219.4135+0x120>
    7244:	00 
    7245:	f3 0f 59 c1          	mulss  %xmm1,%xmm0
    7249:	f3 0f 10 55 f8       	movss  -0x8(%rbp),%xmm2
    724e:	f3 0f 10 0d 6a c0 00 	movss  0xc06a(%rip),%xmm1        # 132c0 <l_1219.4135+0x120>
    7255:	00 
    7256:	f3 0f 59 ca          	mulss  %xmm2,%xmm1
    725a:	f3 0f 5c c1          	subss  %xmm1,%xmm0
    725e:	f3 0f 10 0d 6a c0 00 	movss  0xc06a(%rip),%xmm1        # 132d0 <l_1219.4135+0x130>
    7265:	00 
    7266:	0f 54 c1             	andps  %xmm1,%xmm0
    7269:	0f 2f 05 70 c0 00 00 	comiss 0xc070(%rip),%xmm0        # 132e0 <l_1219.4135+0x140>
    7270:	76 07                	jbe    7279 <safe_sub_func_float_f_f+0x53>
    7272:	f3 0f 10 45 fc       	movss  -0x4(%rbp),%xmm0
    7277:	eb 0a                	jmp    7283 <safe_sub_func_float_f_f+0x5d>
    7279:	f3 0f 10 45 fc       	movss  -0x4(%rbp),%xmm0
    727e:	f3 0f 5c 45 f8       	subss  -0x8(%rbp),%xmm0
    7283:	5d                   	pop    %rbp
    7284:	c3                   	retq   

0000000000007285 <safe_mul_func_float_f_f>:
    7285:	f3 0f 1e fa          	endbr64 
    7289:	55                   	push   %rbp
    728a:	48 89 e5             	mov    %rsp,%rbp
    728d:	f3 0f 11 45 fc       	movss  %xmm0,-0x4(%rbp)
    7292:	f3 0f 11 4d f8       	movss  %xmm1,-0x8(%rbp)
    7297:	f3 0f 10 4d fc       	movss  -0x4(%rbp),%xmm1
    729c:	f3 0f 10 05 40 c0 00 	movss  0xc040(%rip),%xmm0        # 132e4 <l_1219.4135+0x144>
    72a3:	00 
    72a4:	f3 0f 59 c8          	mulss  %xmm0,%xmm1
    72a8:	f3 0f 10 55 f8       	movss  -0x8(%rbp),%xmm2
    72ad:	f3 0f 10 05 33 c0 00 	movss  0xc033(%rip),%xmm0        # 132e8 <l_1219.4135+0x148>
    72b4:	00 
    72b5:	f3 0f 59 c2          	mulss  %xmm2,%xmm0
    72b9:	f3 0f 59 c1          	mulss  %xmm1,%xmm0
    72bd:	f3 0f 10 0d 0b c0 00 	movss  0xc00b(%rip),%xmm1        # 132d0 <l_1219.4135+0x130>
    72c4:	00 
    72c5:	0f 54 c1             	andps  %xmm1,%xmm0
    72c8:	0f 2f 05 1d c0 00 00 	comiss 0xc01d(%rip),%xmm0        # 132ec <l_1219.4135+0x14c>
    72cf:	76 07                	jbe    72d8 <safe_mul_func_float_f_f+0x53>
    72d1:	f3 0f 10 45 fc       	movss  -0x4(%rbp),%xmm0
    72d6:	eb 0a                	jmp    72e2 <safe_mul_func_float_f_f+0x5d>
    72d8:	f3 0f 10 45 fc       	movss  -0x4(%rbp),%xmm0
    72dd:	f3 0f 59 45 f8       	mulss  -0x8(%rbp),%xmm0
    72e2:	5d                   	pop    %rbp
    72e3:	c3                   	retq   

00000000000072e4 <safe_div_func_float_f_f>:
    72e4:	f3 0f 1e fa          	endbr64 
    72e8:	55                   	push   %rbp
    72e9:	48 89 e5             	mov    %rsp,%rbp
    72ec:	f3 0f 11 45 fc       	movss  %xmm0,-0x4(%rbp)
    72f1:	f3 0f 11 4d f8       	movss  %xmm1,-0x8(%rbp)
    72f6:	f3 0f 10 45 f8       	movss  -0x8(%rbp),%xmm0
    72fb:	f3 0f 10 0d cd bf 00 	movss  0xbfcd(%rip),%xmm1        # 132d0 <l_1219.4135+0x130>
    7302:	00 
    7303:	0f 54 c8             	andps  %xmm0,%xmm1
    7306:	f3 0f 10 05 e2 bf 00 	movss  0xbfe2(%rip),%xmm0        # 132f0 <l_1219.4135+0x150>
    730d:	00 
    730e:	0f 2f c1             	comiss %xmm1,%xmm0
    7311:	0f 97 c0             	seta   %al
    7314:	83 f0 01             	xor    $0x1,%eax
    7317:	84 c0                	test   %al,%al
    7319:	75 56                	jne    7371 <safe_div_func_float_f_f+0x8d>
    731b:	66 0f ef c0          	pxor   %xmm0,%xmm0
    731f:	0f 2e 45 f8          	ucomiss -0x8(%rbp),%xmm0
    7323:	7a 0a                	jp     732f <safe_div_func_float_f_f+0x4b>
    7325:	66 0f ef c0          	pxor   %xmm0,%xmm0
    7329:	0f 2e 45 f8          	ucomiss -0x8(%rbp),%xmm0
    732d:	74 4e                	je     737d <safe_div_func_float_f_f+0x99>
    732f:	f3 0f 10 4d fc       	movss  -0x4(%rbp),%xmm1
    7334:	f3 0f 10 05 b8 bf 00 	movss  0xbfb8(%rip),%xmm0        # 132f4 <l_1219.4135+0x154>
    733b:	00 
    733c:	f3 0f 59 c1          	mulss  %xmm1,%xmm0
    7340:	f3 0f 10 55 f8       	movss  -0x8(%rbp),%xmm2
    7345:	f3 0f 10 0d ab bf 00 	movss  0xbfab(%rip),%xmm1        # 132f8 <l_1219.4135+0x158>
    734c:	00 
    734d:	f3 0f 59 ca          	mulss  %xmm2,%xmm1
    7351:	f3 0f 5e c1          	divss  %xmm1,%xmm0
    7355:	f3 0f 10 0d 73 bf 00 	movss  0xbf73(%rip),%xmm1        # 132d0 <l_1219.4135+0x130>
    735c:	00 
    735d:	0f 54 c1             	andps  %xmm1,%xmm0
    7360:	0f 2f 05 95 bf 00 00 	comiss 0xbf95(%rip),%xmm0        # 132fc <l_1219.4135+0x15c>
    7367:	0f 97 c0             	seta   %al
    736a:	83 f0 01             	xor    $0x1,%eax
    736d:	84 c0                	test   %al,%al
    736f:	74 0c                	je     737d <safe_div_func_float_f_f+0x99>
    7371:	f3 0f 10 45 fc       	movss  -0x4(%rbp),%xmm0
    7376:	f3 0f 5e 45 f8       	divss  -0x8(%rbp),%xmm0
    737b:	eb 05                	jmp    7382 <safe_div_func_float_f_f+0x9e>
    737d:	f3 0f 10 45 fc       	movss  -0x4(%rbp),%xmm0
    7382:	5d                   	pop    %rbp
    7383:	c3                   	retq   

0000000000007384 <safe_add_func_double_f_f>:
    7384:	f3 0f 1e fa          	endbr64 
    7388:	55                   	push   %rbp
    7389:	48 89 e5             	mov    %rsp,%rbp
    738c:	f2 0f 11 45 f8       	movsd  %xmm0,-0x8(%rbp)
    7391:	f2 0f 11 4d f0       	movsd  %xmm1,-0x10(%rbp)
    7396:	f2 0f 10 4d f8       	movsd  -0x8(%rbp),%xmm1
    739b:	f2 0f 10 05 5d bf 00 	movsd  0xbf5d(%rip),%xmm0        # 13300 <l_1219.4135+0x160>
    73a2:	00 
    73a3:	f2 0f 59 c8          	mulsd  %xmm0,%xmm1
    73a7:	f2 0f 10 55 f0       	movsd  -0x10(%rbp),%xmm2
    73ac:	f2 0f 10 05 4c bf 00 	movsd  0xbf4c(%rip),%xmm0        # 13300 <l_1219.4135+0x160>
    73b3:	00 
    73b4:	f2 0f 59 c2          	mulsd  %xmm2,%xmm0
    73b8:	f2 0f 58 c1          	addsd  %xmm1,%xmm0
    73bc:	f3 0f 7e 0d 4c bf 00 	movq   0xbf4c(%rip),%xmm1        # 13310 <l_1219.4135+0x170>
    73c3:	00 
    73c4:	66 0f 54 c1          	andpd  %xmm1,%xmm0
    73c8:	66 0f 2f 05 50 bf 00 	comisd 0xbf50(%rip),%xmm0        # 13320 <l_1219.4135+0x180>
    73cf:	00 
    73d0:	76 07                	jbe    73d9 <safe_add_func_double_f_f+0x55>
    73d2:	f2 0f 10 45 f8       	movsd  -0x8(%rbp),%xmm0
    73d7:	eb 0a                	jmp    73e3 <safe_add_func_double_f_f+0x5f>
    73d9:	f2 0f 10 45 f8       	movsd  -0x8(%rbp),%xmm0
    73de:	f2 0f 58 45 f0       	addsd  -0x10(%rbp),%xmm0
    73e3:	5d                   	pop    %rbp
    73e4:	c3                   	retq   

00000000000073e5 <safe_sub_func_double_f_f>:
    73e5:	f3 0f 1e fa          	endbr64 
    73e9:	55                   	push   %rbp
    73ea:	48 89 e5             	mov    %rsp,%rbp
    73ed:	f2 0f 11 45 f8       	movsd  %xmm0,-0x8(%rbp)
    73f2:	f2 0f 11 4d f0       	movsd  %xmm1,-0x10(%rbp)
    73f7:	f2 0f 10 4d f8       	movsd  -0x8(%rbp),%xmm1
    73fc:	f2 0f 10 05 fc be 00 	movsd  0xbefc(%rip),%xmm0        # 13300 <l_1219.4135+0x160>
    7403:	00 
    7404:	f2 0f 59 c1          	mulsd  %xmm1,%xmm0
    7408:	f2 0f 10 55 f0       	movsd  -0x10(%rbp),%xmm2
    740d:	f2 0f 10 0d eb be 00 	movsd  0xbeeb(%rip),%xmm1        # 13300 <l_1219.4135+0x160>
    7414:	00 
    7415:	f2 0f 59 ca          	mulsd  %xmm2,%xmm1
    7419:	f2 0f 5c c1          	subsd  %xmm1,%xmm0
    741d:	f3 0f 7e 0d eb be 00 	movq   0xbeeb(%rip),%xmm1        # 13310 <l_1219.4135+0x170>
    7424:	00 
    7425:	66 0f 54 c1          	andpd  %xmm1,%xmm0
    7429:	66 0f 2f 05 ef be 00 	comisd 0xbeef(%rip),%xmm0        # 13320 <l_1219.4135+0x180>
    7430:	00 
    7431:	76 07                	jbe    743a <safe_sub_func_double_f_f+0x55>
    7433:	f2 0f 10 45 f8       	movsd  -0x8(%rbp),%xmm0
    7438:	eb 0a                	jmp    7444 <safe_sub_func_double_f_f+0x5f>
    743a:	f2 0f 10 45 f8       	movsd  -0x8(%rbp),%xmm0
    743f:	f2 0f 5c 45 f0       	subsd  -0x10(%rbp),%xmm0
    7444:	5d                   	pop    %rbp
    7445:	c3                   	retq   

0000000000007446 <safe_mul_func_double_f_f>:
    7446:	f3 0f 1e fa          	endbr64 
    744a:	55                   	push   %rbp
    744b:	48 89 e5             	mov    %rsp,%rbp
    744e:	f2 0f 11 45 f8       	movsd  %xmm0,-0x8(%rbp)
    7453:	f2 0f 11 4d f0       	movsd  %xmm1,-0x10(%rbp)
    7458:	f2 0f 10 4d f8       	movsd  -0x8(%rbp),%xmm1
    745d:	f2 0f 10 05 c3 be 00 	movsd  0xbec3(%rip),%xmm0        # 13328 <l_1219.4135+0x188>
    7464:	00 
    7465:	f2 0f 59 c8          	mulsd  %xmm0,%xmm1
    7469:	f2 0f 10 55 f0       	movsd  -0x10(%rbp),%xmm2
    746e:	f2 0f 10 05 ba be 00 	movsd  0xbeba(%rip),%xmm0        # 13330 <l_1219.4135+0x190>
    7475:	00 
    7476:	f2 0f 59 c2          	mulsd  %xmm2,%xmm0
    747a:	f2 0f 59 c1          	mulsd  %xmm1,%xmm0
    747e:	f3 0f 7e 0d 8a be 00 	movq   0xbe8a(%rip),%xmm1        # 13310 <l_1219.4135+0x170>
    7485:	00 
    7486:	66 0f 54 c1          	andpd  %xmm1,%xmm0
    748a:	66 0f 2f 05 a6 be 00 	comisd 0xbea6(%rip),%xmm0        # 13338 <l_1219.4135+0x198>
    7491:	00 
    7492:	76 07                	jbe    749b <safe_mul_func_double_f_f+0x55>
    7494:	f2 0f 10 45 f8       	movsd  -0x8(%rbp),%xmm0
    7499:	eb 0a                	jmp    74a5 <safe_mul_func_double_f_f+0x5f>
    749b:	f2 0f 10 45 f8       	movsd  -0x8(%rbp),%xmm0
    74a0:	f2 0f 59 45 f0       	mulsd  -0x10(%rbp),%xmm0
    74a5:	5d                   	pop    %rbp
    74a6:	c3                   	retq   

00000000000074a7 <safe_div_func_double_f_f>:
    74a7:	f3 0f 1e fa          	endbr64 
    74ab:	55                   	push   %rbp
    74ac:	48 89 e5             	mov    %rsp,%rbp
    74af:	f2 0f 11 45 f8       	movsd  %xmm0,-0x8(%rbp)
    74b4:	f2 0f 11 4d f0       	movsd  %xmm1,-0x10(%rbp)
    74b9:	f2 0f 10 45 f0       	movsd  -0x10(%rbp),%xmm0
    74be:	f3 0f 7e 0d 4a be 00 	movq   0xbe4a(%rip),%xmm1        # 13310 <l_1219.4135+0x170>
    74c5:	00 
    74c6:	66 0f 54 c8          	andpd  %xmm0,%xmm1
    74ca:	f2 0f 10 05 6e be 00 	movsd  0xbe6e(%rip),%xmm0        # 13340 <l_1219.4135+0x1a0>
    74d1:	00 
    74d2:	66 0f 2f c1          	comisd %xmm1,%xmm0
    74d6:	0f 97 c0             	seta   %al
    74d9:	83 f0 01             	xor    $0x1,%eax
    74dc:	84 c0                	test   %al,%al
    74de:	75 5a                	jne    753a <safe_div_func_double_f_f+0x93>
    74e0:	66 0f ef c0          	pxor   %xmm0,%xmm0
    74e4:	66 0f 2e 45 f0       	ucomisd -0x10(%rbp),%xmm0
    74e9:	7a 0b                	jp     74f6 <safe_div_func_double_f_f+0x4f>
    74eb:	66 0f ef c0          	pxor   %xmm0,%xmm0
    74ef:	66 0f 2e 45 f0       	ucomisd -0x10(%rbp),%xmm0
    74f4:	74 50                	je     7546 <safe_div_func_double_f_f+0x9f>
    74f6:	f2 0f 10 4d f8       	movsd  -0x8(%rbp),%xmm1
    74fb:	f2 0f 10 05 45 be 00 	movsd  0xbe45(%rip),%xmm0        # 13348 <l_1219.4135+0x1a8>
    7502:	00 
    7503:	f2 0f 59 c1          	mulsd  %xmm1,%xmm0
    7507:	f2 0f 10 55 f0       	movsd  -0x10(%rbp),%xmm2
    750c:	f2 0f 10 0d 3c be 00 	movsd  0xbe3c(%rip),%xmm1        # 13350 <l_1219.4135+0x1b0>
    7513:	00 
    7514:	f2 0f 59 ca          	mulsd  %xmm2,%xmm1
    7518:	f2 0f 5e c1          	divsd  %xmm1,%xmm0
    751c:	f3 0f 7e 0d ec bd 00 	movq   0xbdec(%rip),%xmm1        # 13310 <l_1219.4135+0x170>
    7523:	00 
    7524:	66 0f 54 c1          	andpd  %xmm1,%xmm0
    7528:	66 0f 2f 05 28 be 00 	comisd 0xbe28(%rip),%xmm0        # 13358 <l_1219.4135+0x1b8>
    752f:	00 
    7530:	0f 97 c0             	seta   %al
    7533:	83 f0 01             	xor    $0x1,%eax
    7536:	84 c0                	test   %al,%al
    7538:	74 0c                	je     7546 <safe_div_func_double_f_f+0x9f>
    753a:	f2 0f 10 45 f8       	movsd  -0x8(%rbp),%xmm0
    753f:	f2 0f 5e 45 f0       	divsd  -0x10(%rbp),%xmm0
    7544:	eb 05                	jmp    754b <safe_div_func_double_f_f+0xa4>
    7546:	f2 0f 10 45 f8       	movsd  -0x8(%rbp),%xmm0
    754b:	5d                   	pop    %rbp
    754c:	c3                   	retq   

000000000000754d <safe_convert_func_float_to_int32_t>:
    754d:	f3 0f 1e fa          	endbr64 
    7551:	55                   	push   %rbp
    7552:	48 89 e5             	mov    %rsp,%rbp
    7555:	f3 0f 11 45 fc       	movss  %xmm0,-0x4(%rbp)
    755a:	f3 0f 10 05 fe bd 00 	movss  0xbdfe(%rip),%xmm0        # 13360 <l_1219.4135+0x1c0>
    7561:	00 
    7562:	0f 2f 45 fc          	comiss -0x4(%rbp),%xmm0
    7566:	0f 93 c0             	setae  %al
    7569:	83 f0 01             	xor    $0x1,%eax
    756c:	84 c0                	test   %al,%al
    756e:	74 21                	je     7591 <safe_convert_func_float_to_int32_t+0x44>
    7570:	f3 0f 10 45 fc       	movss  -0x4(%rbp),%xmm0
    7575:	0f 2f 05 e8 bd 00 00 	comiss 0xbde8(%rip),%xmm0        # 13364 <l_1219.4135+0x1c4>
    757c:	0f 93 c0             	setae  %al
    757f:	83 f0 01             	xor    $0x1,%eax
    7582:	84 c0                	test   %al,%al
    7584:	74 0b                	je     7591 <safe_convert_func_float_to_int32_t+0x44>
    7586:	f3 0f 10 45 fc       	movss  -0x4(%rbp),%xmm0
    758b:	f3 0f 2c c0          	cvttss2si %xmm0,%eax
    758f:	eb 05                	jmp    7596 <safe_convert_func_float_to_int32_t+0x49>
    7591:	b8 ff ff ff 7f       	mov    $0x7fffffff,%eax
    7596:	5d                   	pop    %rbp
    7597:	c3                   	retq   

0000000000007598 <crc32_gentab>:
    7598:	f3 0f 1e fa          	endbr64 
    759c:	55                   	push   %rbp
    759d:	48 89 e5             	mov    %rsp,%rbp
    75a0:	c7 45 fc 20 83 b8 ed 	movl   $0xedb88320,-0x4(%rbp)
    75a7:	c7 45 f4 00 00 00 00 	movl   $0x0,-0xc(%rbp)
    75ae:	eb 51                	jmp    7601 <crc32_gentab+0x69>
    75b0:	8b 45 f4             	mov    -0xc(%rbp),%eax
    75b3:	89 45 f0             	mov    %eax,-0x10(%rbp)
    75b6:	c7 45 f8 08 00 00 00 	movl   $0x8,-0x8(%rbp)
    75bd:	eb 1e                	jmp    75dd <crc32_gentab+0x45>
    75bf:	8b 45 f0             	mov    -0x10(%rbp),%eax
    75c2:	83 e0 01             	and    $0x1,%eax
    75c5:	85 c0                	test   %eax,%eax
    75c7:	74 0d                	je     75d6 <crc32_gentab+0x3e>
    75c9:	8b 45 f0             	mov    -0x10(%rbp),%eax
    75cc:	d1 e8                	shr    %eax
    75ce:	33 45 fc             	xor    -0x4(%rbp),%eax
    75d1:	89 45 f0             	mov    %eax,-0x10(%rbp)
    75d4:	eb 03                	jmp    75d9 <crc32_gentab+0x41>
    75d6:	d1 6d f0             	shrl   -0x10(%rbp)
    75d9:	83 6d f8 01          	subl   $0x1,-0x8(%rbp)
    75dd:	83 7d f8 00          	cmpl   $0x0,-0x8(%rbp)
    75e1:	7f dc                	jg     75bf <crc32_gentab+0x27>
    75e3:	8b 45 f4             	mov    -0xc(%rbp),%eax
    75e6:	48 98                	cltq   
    75e8:	48 8d 0c 85 00 00 00 	lea    0x0(,%rax,4),%rcx
    75ef:	00 
    75f0:	48 8d 15 c9 0b 01 00 	lea    0x10bc9(%rip),%rdx        # 181c0 <crc32_tab>
    75f7:	8b 45 f0             	mov    -0x10(%rbp),%eax
    75fa:	89 04 11             	mov    %eax,(%rcx,%rdx,1)
    75fd:	83 45 f4 01          	addl   $0x1,-0xc(%rbp)
    7601:	81 7d f4 ff 00 00 00 	cmpl   $0xff,-0xc(%rbp)
    7608:	7e a6                	jle    75b0 <crc32_gentab+0x18>
    760a:	90                   	nop
    760b:	90                   	nop
    760c:	5d                   	pop    %rbp
    760d:	c3                   	retq   

000000000000760e <crc32_byte>:
    760e:	f3 0f 1e fa          	endbr64 
    7612:	55                   	push   %rbp
    7613:	48 89 e5             	mov    %rsp,%rbp
    7616:	89 f8                	mov    %edi,%eax
    7618:	88 45 fc             	mov    %al,-0x4(%rbp)
    761b:	8b 05 ff e9 00 00    	mov    0xe9ff(%rip),%eax        # 16020 <crc32_context>
    7621:	c1 e8 08             	shr    $0x8,%eax
    7624:	89 c1                	mov    %eax,%ecx
    7626:	0f b6 55 fc          	movzbl -0x4(%rbp),%edx
    762a:	8b 05 f0 e9 00 00    	mov    0xe9f0(%rip),%eax        # 16020 <crc32_context>
    7630:	31 d0                	xor    %edx,%eax
    7632:	0f b6 c0             	movzbl %al,%eax
    7635:	89 c0                	mov    %eax,%eax
    7637:	48 8d 14 85 00 00 00 	lea    0x0(,%rax,4),%rdx
    763e:	00 
    763f:	48 8d 05 7a 0b 01 00 	lea    0x10b7a(%rip),%rax        # 181c0 <crc32_tab>
    7646:	8b 04 02             	mov    (%rdx,%rax,1),%eax
    7649:	31 c8                	xor    %ecx,%eax
    764b:	89 05 cf e9 00 00    	mov    %eax,0xe9cf(%rip)        # 16020 <crc32_context>
    7651:	90                   	nop
    7652:	5d                   	pop    %rbp
    7653:	c3                   	retq   

0000000000007654 <crc32_8bytes>:
    7654:	f3 0f 1e fa          	endbr64 
    7658:	55                   	push   %rbp
    7659:	48 89 e5             	mov    %rsp,%rbp
    765c:	48 83 ec 08          	sub    $0x8,%rsp
    7660:	48 89 7d f8          	mov    %rdi,-0x8(%rbp)
    7664:	48 8b 45 f8          	mov    -0x8(%rbp),%rax
    7668:	0f b6 c0             	movzbl %al,%eax
    766b:	89 c7                	mov    %eax,%edi
    766d:	e8 9c ff ff ff       	callq  760e <crc32_byte>
    7672:	48 8b 45 f8          	mov    -0x8(%rbp),%rax
    7676:	48 c1 e8 08          	shr    $0x8,%rax
    767a:	0f b6 c0             	movzbl %al,%eax
    767d:	89 c7                	mov    %eax,%edi
    767f:	e8 8a ff ff ff       	callq  760e <crc32_byte>
    7684:	48 8b 45 f8          	mov    -0x8(%rbp),%rax
    7688:	48 c1 e8 10          	shr    $0x10,%rax
    768c:	0f b6 c0             	movzbl %al,%eax
    768f:	89 c7                	mov    %eax,%edi
    7691:	e8 78 ff ff ff       	callq  760e <crc32_byte>
    7696:	48 8b 45 f8          	mov    -0x8(%rbp),%rax
    769a:	48 c1 e8 18          	shr    $0x18,%rax
    769e:	0f b6 c0             	movzbl %al,%eax
    76a1:	89 c7                	mov    %eax,%edi
    76a3:	e8 66 ff ff ff       	callq  760e <crc32_byte>
    76a8:	48 8b 45 f8          	mov    -0x8(%rbp),%rax
    76ac:	48 c1 e8 20          	shr    $0x20,%rax
    76b0:	0f b6 c0             	movzbl %al,%eax
    76b3:	89 c7                	mov    %eax,%edi
    76b5:	e8 54 ff ff ff       	callq  760e <crc32_byte>
    76ba:	48 8b 45 f8          	mov    -0x8(%rbp),%rax
    76be:	48 c1 e8 28          	shr    $0x28,%rax
    76c2:	0f b6 c0             	movzbl %al,%eax
    76c5:	89 c7                	mov    %eax,%edi
    76c7:	e8 42 ff ff ff       	callq  760e <crc32_byte>
    76cc:	48 8b 45 f8          	mov    -0x8(%rbp),%rax
    76d0:	48 c1 e8 30          	shr    $0x30,%rax
    76d4:	0f b6 c0             	movzbl %al,%eax
    76d7:	89 c7                	mov    %eax,%edi
    76d9:	e8 30 ff ff ff       	callq  760e <crc32_byte>
    76de:	48 8b 45 f8          	mov    -0x8(%rbp),%rax
    76e2:	48 c1 e8 38          	shr    $0x38,%rax
    76e6:	0f b6 c0             	movzbl %al,%eax
    76e9:	89 c7                	mov    %eax,%edi
    76eb:	e8 1e ff ff ff       	callq  760e <crc32_byte>
    76f0:	90                   	nop
    76f1:	c9                   	leaveq 
    76f2:	c3                   	retq   

00000000000076f3 <transparent_crc>:
    76f3:	f3 0f 1e fa          	endbr64 
    76f7:	55                   	push   %rbp
    76f8:	48 89 e5             	mov    %rsp,%rbp
    76fb:	48 83 ec 20          	sub    $0x20,%rsp
    76ff:	48 89 7d f8          	mov    %rdi,-0x8(%rbp)
    7703:	48 89 75 f0          	mov    %rsi,-0x10(%rbp)
    7707:	89 55 ec             	mov    %edx,-0x14(%rbp)
    770a:	48 8b 45 f8          	mov    -0x8(%rbp),%rax
    770e:	48 89 c7             	mov    %rax,%rdi
    7711:	e8 3e ff ff ff       	callq  7654 <crc32_8bytes>
    7716:	83 7d ec 00          	cmpl   $0x0,-0x14(%rbp)
    771a:	74 22                	je     773e <transparent_crc+0x4b>
    771c:	8b 05 fe e8 00 00    	mov    0xe8fe(%rip),%eax        # 16020 <crc32_context>
    7722:	f7 d0                	not    %eax
    7724:	89 c2                	mov    %eax,%edx
    7726:	48 8b 45 f0          	mov    -0x10(%rbp),%rax
    772a:	48 89 c6             	mov    %rax,%rsi
    772d:	48 8d 3d fc a8 00 00 	lea    0xa8fc(%rip),%rdi        # 12030 <_IO_stdin_used+0x30>
    7734:	b8 00 00 00 00       	mov    $0x0,%eax
    7739:	e8 42 e9 ff ff       	callq  6080 <printf@plt>
    773e:	90                   	nop
    773f:	c9                   	leaveq 
    7740:	c3                   	retq   

0000000000007741 <transparent_crc_bytes>:
    7741:	f3 0f 1e fa          	endbr64 
    7745:	55                   	push   %rbp
    7746:	48 89 e5             	mov    %rsp,%rbp
    7749:	48 83 ec 30          	sub    $0x30,%rsp
    774d:	48 89 7d e8          	mov    %rdi,-0x18(%rbp)
    7751:	89 75 e4             	mov    %esi,-0x1c(%rbp)
    7754:	48 89 55 d8          	mov    %rdx,-0x28(%rbp)
    7758:	89 4d e0             	mov    %ecx,-0x20(%rbp)
    775b:	c7 45 fc 00 00 00 00 	movl   $0x0,-0x4(%rbp)
    7762:	eb 1e                	jmp    7782 <transparent_crc_bytes+0x41>
    7764:	8b 45 fc             	mov    -0x4(%rbp),%eax
    7767:	48 63 d0             	movslq %eax,%rdx
    776a:	48 8b 45 e8          	mov    -0x18(%rbp),%rax
    776e:	48 01 d0             	add    %rdx,%rax
    7771:	0f b6 00             	movzbl (%rax),%eax
    7774:	0f b6 c0             	movzbl %al,%eax
    7777:	89 c7                	mov    %eax,%edi
    7779:	e8 90 fe ff ff       	callq  760e <crc32_byte>
    777e:	83 45 fc 01          	addl   $0x1,-0x4(%rbp)
    7782:	8b 45 fc             	mov    -0x4(%rbp),%eax
    7785:	3b 45 e4             	cmp    -0x1c(%rbp),%eax
    7788:	7c da                	jl     7764 <transparent_crc_bytes+0x23>
    778a:	83 7d e0 00          	cmpl   $0x0,-0x20(%rbp)
    778e:	74 22                	je     77b2 <transparent_crc_bytes+0x71>
    7790:	8b 05 8a e8 00 00    	mov    0xe88a(%rip),%eax        # 16020 <crc32_context>
    7796:	f7 d0                	not    %eax
    7798:	89 c2                	mov    %eax,%edx
    779a:	48 8b 45 d8          	mov    -0x28(%rbp),%rax
    779e:	48 89 c6             	mov    %rax,%rsi
    77a1:	48 8d 3d 88 a8 00 00 	lea    0xa888(%rip),%rdi        # 12030 <_IO_stdin_used+0x30>
    77a8:	b8 00 00 00 00       	mov    $0x0,%eax
    77ad:	e8 ce e8 ff ff       	callq  6080 <printf@plt>
    77b2:	90                   	nop
    77b3:	c9                   	leaveq 
    77b4:	c3                   	retq   

00000000000077b5 <func_1>:
    77b5:	f3 0f 1e fa          	endbr64 
    77b9:	55                   	push   %rbp
    77ba:	48 89 e5             	mov    %rsp,%rbp
    77bd:	41 57                	push   %r15
    77bf:	41 56                	push   %r14
    77c1:	41 55                	push   %r13
    77c3:	41 54                	push   %r12
    77c5:	53                   	push   %rbx
    77c6:	48 81 ec a8 0a 00 00 	sub    $0xaa8,%rsp
    77cd:	64 48 8b 04 25 28 00 	mov    %fs:0x28,%rax
    77d4:	00 00 
    77d6:	48 89 45 c8          	mov    %rax,-0x38(%rbp)
    77da:	31 c0                	xor    %eax,%eax
    77dc:	48 b8 a3 bb 7a b6 fd 	movabs $0x8c9566fdb67abba3,%rax
    77e3:	66 95 8c 
    77e6:	48 89 85 a0 f5 ff ff 	mov    %rax,-0xa60(%rbp)
    77ed:	66 c7 85 70 f5 ff ff 	movw   $0xffff,-0xa90(%rbp)
    77f4:	ff ff 
    77f6:	48 8d 05 dd e8 00 00 	lea    0xe8dd(%rip),%rax        # 160da <g_106>
    77fd:	48 89 85 a8 f5 ff ff 	mov    %rax,-0xa58(%rbp)
    7804:	c7 85 78 f5 ff ff ff 	movl   $0xffffffff,-0xa88(%rbp)
    780b:	ff ff ff 
    780e:	48 8d 85 20 f6 ff ff 	lea    -0x9e0(%rbp),%rax
    7815:	48 83 c0 08          	add    $0x8,%rax
    7819:	48 89 85 00 f6 ff ff 	mov    %rax,-0xa00(%rbp)
    7820:	48 8d 85 20 f6 ff ff 	lea    -0x9e0(%rbp),%rax
    7827:	48 83 c0 08          	add    $0x8,%rax
    782b:	48 89 85 08 f6 ff ff 	mov    %rax,-0x9f8(%rbp)
    7832:	48 8d 85 20 f6 ff ff 	lea    -0x9e0(%rbp),%rax
    7839:	48 83 c0 08          	add    $0x8,%rax
    783d:	48 89 85 10 f6 ff ff 	mov    %rax,-0x9f0(%rbp)
    7844:	48 8d 85 20 f6 ff ff 	lea    -0x9e0(%rbp),%rax
    784b:	48 83 c0 08          	add    $0x8,%rax
    784f:	48 89 85 18 f6 ff ff 	mov    %rax,-0x9e8(%rbp)
    7856:	66 c7 85 72 f5 ff ff 	movw   $0x1,-0xa8e(%rbp)
    785d:	01 00 
    785f:	c7 85 80 f5 ff ff 00 	movl   $0x0,-0xa80(%rbp)
    7866:	00 00 00 
    7869:	eb 14                	jmp    787f <func_1+0xca>
    786b:	8b 85 80 f5 ff ff    	mov    -0xa80(%rbp),%eax
    7871:	48 98                	cltq   
    7873:	c6 44 05 c2 03       	movb   $0x3,-0x3e(%rbp,%rax,1)
    7878:	83 85 80 f5 ff ff 01 	addl   $0x1,-0xa80(%rbp)
    787f:	83 bd 80 f5 ff ff 00 	cmpl   $0x0,-0xa80(%rbp)
    7886:	7e e3                	jle    786b <func_1+0xb6>
    7888:	c7 85 80 f5 ff ff 00 	movl   $0x0,-0xa80(%rbp)
    788f:	00 00 00 
    7892:	eb 1b                	jmp    78af <func_1+0xfa>
    7894:	8b 85 80 f5 ff ff    	mov    -0xa80(%rbp),%eax
    789a:	48 98                	cltq   
    789c:	48 c7 84 c5 20 f6 ff 	movq   $0x0,-0x9e0(%rbp,%rax,8)
    78a3:	ff 00 00 00 00 
    78a8:	83 85 80 f5 ff ff 01 	addl   $0x1,-0xa80(%rbp)
    78af:	83 bd 80 f5 ff ff 04 	cmpl   $0x4,-0xa80(%rbp)
    78b6:	7e dc                	jle    7894 <func_1+0xdf>
    78b8:	c7 05 76 e7 00 00 00 	movl   $0x0,0xe776(%rip)        # 16038 <g_7>
    78bf:	00 00 00 
    78c2:	e9 66 0d 00 00       	jmpq   862d <func_1+0xe78>
    78c7:	c6 85 6f f5 ff ff ff 	movb   $0xff,-0xa91(%rbp)
    78ce:	c7 05 f0 0c 01 00 00 	movl   $0x0,0x10cf0(%rip)        # 185c8 <g_14>
    78d5:	00 00 00 
    78d8:	90                   	nop
    78d9:	8b 05 e9 0c 01 00    	mov    0x10ce9(%rip),%eax        # 185c8 <g_14>
    78df:	85 c0                	test   %eax,%eax
    78e1:	0f 88 98 0c 00 00    	js     857f <func_1+0xdca>
    78e7:	48 8d 05 d6 e7 00 00 	lea    0xe7d6(%rip),%rax        # 160c4 <g_56>
    78ee:	48 89 85 b0 f5 ff ff 	mov    %rax,-0xa50(%rbp)
    78f5:	48 8d 05 cc e7 00 00 	lea    0xe7cc(%rip),%rax        # 160c8 <g_58>
    78fc:	48 89 85 b8 f5 ff ff 	mov    %rax,-0xa48(%rbp)
    7903:	48 8d 05 d6 e7 00 00 	lea    0xe7d6(%rip),%rax        # 160e0 <g_127>
    790a:	48 89 85 c0 f5 ff ff 	mov    %rax,-0xa40(%rbp)
    7911:	48 8d 05 dc e8 00 00 	lea    0xe8dc(%rip),%rax        # 161f4 <g_1804>
    7918:	48 89 85 c8 f5 ff ff 	mov    %rax,-0xa38(%rbp)
    791f:	48 b8 de 0d e8 8c 06 	movabs $0xe25ee1068ce80dde,%rax
    7926:	e1 5e e2 
    7929:	48 89 85 d0 f5 ff ff 	mov    %rax,-0xa30(%rbp)
    7930:	48 8d 05 e5 e8 00 00 	lea    0xe8e5(%rip),%rax        # 1621c <g_2027>
    7937:	48 89 85 d8 f5 ff ff 	mov    %rax,-0xa28(%rbp)
    793e:	48 8d 85 80 f7 ff ff 	lea    -0x880(%rbp),%rax
    7945:	48 8d 15 d4 e8 00 00 	lea    0xe8d4(%rip),%rdx        # 16220 <g_2027+0x4>
    794c:	b9 54 00 00 00       	mov    $0x54,%ecx
    7951:	48 89 c7             	mov    %rax,%rdi
    7954:	48 89 d6             	mov    %rdx,%rsi
    7957:	f3 48 a5             	rep movsq %ds:(%rsi),%es:(%rdi)
    795a:	c7 85 88 f5 ff ff 6b 	movl   $0xc6108b6b,-0xa78(%rbp)
    7961:	8b 10 c6 
    7964:	c7 85 8c f5 ff ff 1c 	movl   $0xdc6b521c,-0xa74(%rbp)
    796b:	52 6b dc 
    796e:	48 8d 05 7f e7 00 00 	lea    0xe77f(%rip),%rax        # 160f4 <g_159>
    7975:	48 89 85 98 f5 ff ff 	mov    %rax,-0xa68(%rbp)
    797c:	48 8d 85 98 f5 ff ff 	lea    -0xa68(%rbp),%rax
    7983:	48 89 85 e0 f5 ff ff 	mov    %rax,-0xa20(%rbp)
    798a:	c7 85 7c f5 ff ff 30 	movl   $0x6d746930,-0xa84(%rbp)
    7991:	69 74 6d 
    7994:	48 8b 85 a0 f5 ff ff 	mov    -0xa60(%rbp),%rax
    799b:	44 0f be f8          	movsbl %al,%r15d
    799f:	8b 85 88 f5 ff ff    	mov    -0xa78(%rbp),%eax
    79a5:	44 0f bf f0          	movswl %ax,%r14d
    79a9:	0f b7 05 28 e7 00 00 	movzwl 0xe728(%rip),%eax        # 160d8 <g_102>
    79b0:	44 0f b7 e8          	movzwl %ax,%r13d
    79b4:	48 8b 85 d0 f5 ff ff 	mov    -0xa30(%rbp),%rax
    79bb:	89 85 58 f5 ff ff    	mov    %eax,-0xaa8(%rbp)
    79c1:	48 8b 85 d0 f5 ff ff 	mov    -0xa30(%rbp),%rax
    79c8:	98                   	cwtl   
    79c9:	89 85 54 f5 ff ff    	mov    %eax,-0xaac(%rbp)
    79cf:	0f b7 85 70 f5 ff ff 	movzwl -0xa90(%rbp),%eax
    79d6:	0f b7 c0             	movzwl %ax,%eax
    79d9:	89 85 48 f5 ff ff    	mov    %eax,-0xab8(%rbp)
    79df:	0f b6 85 6f f5 ff ff 	movzbl -0xa91(%rbp),%eax
    79e6:	0f be c0             	movsbl %al,%eax
    79e9:	89 85 50 f5 ff ff    	mov    %eax,-0xab0(%rbp)
    79ef:	8b 05 d3 0b 01 00    	mov    0x10bd3(%rip),%eax        # 185c8 <g_14>
    79f5:	48 98                	cltq   
    79f7:	0f b6 44 05 c2       	movzbl -0x3e(%rbp,%rax,1),%eax
    79fc:	0f b6 c0             	movzbl %al,%eax
    79ff:	89 85 44 f5 ff ff    	mov    %eax,-0xabc(%rbp)
    7a05:	0f b6 45 c2          	movzbl -0x3e(%rbp),%eax
    7a09:	0f b6 c0             	movzbl %al,%eax
    7a0c:	89 85 40 f5 ff ff    	mov    %eax,-0xac0(%rbp)
    7a12:	8b 05 b0 0b 01 00    	mov    0x10bb0(%rip),%eax        # 185c8 <g_14>
    7a18:	48 98                	cltq   
    7a1a:	0f b6 44 05 c2       	movzbl -0x3e(%rbp,%rax,1),%eax
    7a1f:	0f b6 c0             	movzbl %al,%eax
    7a22:	89 85 3c f5 ff ff    	mov    %eax,-0xac4(%rbp)
    7a28:	48 8b 05 f9 b7 00 00 	mov    0xb7f9(%rip),%rax        # 13228 <l_1219.4135+0x88>
    7a2f:	89 85 38 f5 ff ff    	mov    %eax,-0xac8(%rbp)
    7a35:	0f b6 45 c2          	movzbl -0x3e(%rbp),%eax
    7a39:	0f be c0             	movsbl %al,%eax
    7a3c:	89 85 34 f5 ff ff    	mov    %eax,-0xacc(%rbp)
    7a42:	0f b6 45 c2          	movzbl -0x3e(%rbp),%eax
    7a46:	0f b6 d8             	movzbl %al,%ebx
    7a49:	89 9d 30 f5 ff ff    	mov    %ebx,-0xad0(%rbp)
    7a4f:	8b 05 73 0b 01 00    	mov    0x10b73(%rip),%eax        # 185c8 <g_14>
    7a55:	48 98                	cltq   
    7a57:	0f b6 44 05 c2       	movzbl -0x3e(%rbp,%rax,1),%eax
    7a5c:	44 0f be e0          	movsbl %al,%r12d
    7a60:	0f b6 45 c2          	movzbl -0x3e(%rbp),%eax
    7a64:	0f b6 d8             	movzbl %al,%ebx
    7a67:	8b 05 5b 0b 01 00    	mov    0x10b5b(%rip),%eax        # 185c8 <g_14>
    7a6d:	48 98                	cltq   
    7a6f:	0f b6 44 05 c2       	movzbl -0x3e(%rbp,%rax,1),%eax
    7a74:	0f b6 d0             	movzbl %al,%edx
    7a77:	48 8b 85 b0 f5 ff ff 	mov    -0xa50(%rbp),%rax
    7a7e:	89 10                	mov    %edx,(%rax)
    7a80:	8b 05 b2 e5 00 00    	mov    0xe5b2(%rip),%eax        # 16038 <g_7>
    7a86:	89 c2                	mov    %eax,%edx
    7a88:	48 8b 85 b8 f5 ff ff 	mov    -0xa48(%rbp),%rax
    7a8f:	88 10                	mov    %dl,(%rax)
    7a91:	0f b6 45 c2          	movzbl -0x3e(%rbp),%eax
    7a95:	0f b6 d0             	movzbl %al,%edx
    7a98:	8b 05 9a e5 00 00    	mov    0xe59a(%rip),%eax        # 16038 <g_7>
    7a9e:	98                   	cwtl   
    7a9f:	48 89 d6             	mov    %rdx,%rsi
    7aa2:	89 c7                	mov    %eax,%edi
    7aa4:	e8 34 6d 00 00       	callq  e7dd <func_63>
    7aa9:	be 06 00 00 00       	mov    $0x6,%esi
    7aae:	bf dc ff ff ff       	mov    $0xffffffdc,%edi
    7ab3:	e8 b4 e8 ff ff       	callq  636c <safe_rshift_func_int8_t_s_u>
    7ab8:	0f be d0             	movsbl %al,%edx
    7abb:	8b 05 07 0b 01 00    	mov    0x10b07(%rip),%eax        # 185c8 <g_14>
    7ac1:	48 98                	cltq   
    7ac3:	0f b6 44 05 c2       	movzbl -0x3e(%rbp,%rax,1),%eax
    7ac8:	0f be c0             	movsbl %al,%eax
    7acb:	89 d6                	mov    %edx,%esi
    7acd:	89 c7                	mov    %eax,%edi
    7acf:	e8 1a e8 ff ff       	callq  62ee <safe_lshift_func_int8_t_s_u>
    7ad4:	44 89 e2             	mov    %r12d,%edx
    7ad7:	89 de                	mov    %ebx,%esi
    7ad9:	bf 01 00 00 00       	mov    $0x1,%edi
    7ade:	e8 b4 6a 00 00       	callq  e597 <func_51>
    7ae3:	48 89 c2             	mov    %rax,%rdx
    7ae6:	48 8b 05 a3 b7 00 00 	mov    0xb7a3(%rip),%rax        # 13290 <l_1219.4135+0xf0>
    7aed:	48 39 c2             	cmp    %rax,%rdx
    7af0:	0f 93 c0             	setae  %al
    7af3:	0f b6 d0             	movzbl %al,%edx
    7af6:	48 8b 85 c0 f5 ff ff 	mov    -0xa40(%rbp),%rax
    7afd:	48 89 10             	mov    %rdx,(%rax)
    7b00:	48 8b 85 c0 f5 ff ff 	mov    -0xa40(%rbp),%rax
    7b07:	48 8b 10             	mov    (%rax),%rdx
    7b0a:	0f b6 45 c2          	movzbl -0x3e(%rbp),%eax
    7b0e:	0f b6 c0             	movzbl %al,%eax
    7b11:	48 8b 1d 58 03 01 00 	mov    0x10358(%rip),%rbx        # 17e70 <g_900>
    7b18:	48 89 d6             	mov    %rdx,%rsi
    7b1b:	89 c7                	mov    %eax,%edi
    7b1d:	e8 69 69 00 00       	callq  e48b <func_48>
    7b22:	89 03                	mov    %eax,(%rbx)
    7b24:	8b 03                	mov    (%rbx),%eax
    7b26:	8b 8d 38 f5 ff ff    	mov    -0xac8(%rbp),%ecx
    7b2c:	8b 95 34 f5 ff ff    	mov    -0xacc(%rbp),%edx
    7b32:	8b b5 30 f5 ff ff    	mov    -0xad0(%rbp),%esi
    7b38:	89 c7                	mov    %eax,%edi
    7b3a:	e8 f0 64 00 00       	callq  e02f <func_43>
    7b3f:	85 c0                	test   %eax,%eax
    7b41:	75 06                	jne    7b49 <func_1+0x394>
    7b43:	0f b6 45 c2          	movzbl -0x3e(%rbp),%eax
    7b47:	84 c0                	test   %al,%al
    7b49:	90                   	nop
    7b4a:	0f b6 45 c2          	movzbl -0x3e(%rbp),%eax
    7b4e:	0f b6 c0             	movzbl %al,%eax
    7b51:	66 0d 48 c4          	or     $0xc448,%ax
    7b55:	98                   	cwtl   
    7b56:	8b b5 3c f5 ff ff    	mov    -0xac4(%rbp),%esi
    7b5c:	89 c7                	mov    %eax,%edi
    7b5e:	e8 b3 e8 ff ff       	callq  6416 <safe_mod_func_int16_t_s_s>
    7b63:	0f b6 45 c2          	movzbl -0x3e(%rbp),%eax
    7b67:	0f b6 c8             	movzbl %al,%ecx
    7b6a:	8b 05 b4 e4 00 00    	mov    0xe4b4(%rip),%eax        # 16024 <g_2>
    7b70:	0f b6 c0             	movzbl %al,%eax
    7b73:	8b 95 40 f5 ff ff    	mov    -0xac0(%rbp),%edx
    7b79:	48 89 ce             	mov    %rcx,%rsi
    7b7c:	89 c7                	mov    %eax,%edi
    7b7e:	e8 79 16 00 00       	callq  91fc <func_37>
    7b83:	66 85 c0             	test   %ax,%ax
    7b86:	74 07                	je     7b8f <func_1+0x3da>
    7b88:	b8 01 00 00 00       	mov    $0x1,%eax
    7b8d:	eb 05                	jmp    7b94 <func_1+0x3df>
    7b8f:	b8 00 00 00 00       	mov    $0x0,%eax
    7b94:	48 63 d0             	movslq %eax,%rdx
    7b97:	48 8b 05 f2 b6 00 00 	mov    0xb6f2(%rip),%rax        # 13290 <l_1219.4135+0xf0>
    7b9e:	48 39 c2             	cmp    %rax,%rdx
    7ba1:	0f 9c c0             	setl   %al
    7ba4:	0f b6 d0             	movzbl %al,%edx
    7ba7:	8b 05 1b 0a 01 00    	mov    0x10a1b(%rip),%eax        # 185c8 <g_14>
    7bad:	31 d0                	xor    %edx,%eax
    7baf:	8b b5 44 f5 ff ff    	mov    -0xabc(%rbp),%esi
    7bb5:	89 c7                	mov    %eax,%edi
    7bb7:	e8 10 eb ff ff       	callq  66cc <safe_mod_func_int32_t_s_s>
    7bbc:	0f b7 85 70 f5 ff ff 	movzwl -0xa90(%rbp),%eax
    7bc3:	98                   	cwtl   
    7bc4:	8b b5 50 f5 ff ff    	mov    -0xab0(%rbp),%esi
    7bca:	89 c7                	mov    %eax,%edi
    7bcc:	e8 24 e8 ff ff       	callq  63f5 <safe_mul_func_int16_t_s_s>
    7bd1:	66 85 c0             	test   %ax,%ax
    7bd4:	75 15                	jne    7beb <func_1+0x436>
    7bd6:	48 8b 05 03 02 01 00 	mov    0x10203(%rip),%rax        # 17de0 <g_612>
    7bdd:	48 8b 00             	mov    (%rax),%rax
    7be0:	48 8b 00             	mov    (%rax),%rax
    7be3:	0f b7 00             	movzwl (%rax),%eax
    7be6:	66 85 c0             	test   %ax,%ax
    7be9:	74 07                	je     7bf2 <func_1+0x43d>
    7beb:	b8 01 00 00 00       	mov    $0x1,%eax
    7bf0:	eb 05                	jmp    7bf7 <func_1+0x442>
    7bf2:	b8 00 00 00 00       	mov    $0x0,%eax
    7bf7:	83 f8 01             	cmp    $0x1,%eax
    7bfa:	0f 97 c0             	seta   %al
    7bfd:	0f b6 d0             	movzbl %al,%edx
    7c00:	48 8b 85 c8 f5 ff ff 	mov    -0xa38(%rbp),%rax
    7c07:	0f b7 00             	movzwl (%rax),%eax
    7c0a:	21 c2                	and    %eax,%edx
    7c0c:	48 8b 85 c8 f5 ff ff 	mov    -0xa38(%rbp),%rax
    7c13:	66 89 10             	mov    %dx,(%rax)
    7c16:	48 8b 85 c8 f5 ff ff 	mov    -0xa38(%rbp),%rax
    7c1d:	0f b7 00             	movzwl (%rax),%eax
    7c20:	66 85 c0             	test   %ax,%ax
    7c23:	0f 94 c0             	sete   %al
    7c26:	0f b6 c0             	movzbl %al,%eax
    7c29:	8b 8d 58 f5 ff ff    	mov    -0xaa8(%rbp),%ecx
    7c2f:	8b 95 54 f5 ff ff    	mov    -0xaac(%rbp),%edx
    7c35:	8b b5 48 f5 ff ff    	mov    -0xab8(%rbp),%esi
    7c3b:	89 c7                	mov    %eax,%edi
    7c3d:	e8 4f 0a 00 00       	callq  8691 <func_26>
    7c42:	48 8b 95 c0 f5 ff ff 	mov    -0xa40(%rbp),%rdx
    7c49:	48 89 02             	mov    %rax,(%rdx)
    7c4c:	8b 05 76 09 01 00    	mov    0x10976(%rip),%eax        # 185c8 <g_14>
    7c52:	48 98                	cltq   
    7c54:	0f b6 4c 05 c2       	movzbl -0x3e(%rbp,%rax,1),%ecx
    7c59:	48 8b 85 d8 f5 ff ff 	mov    -0xa28(%rbp),%rax
    7c60:	8b 10                	mov    (%rax),%edx
    7c62:	0f b6 c1             	movzbl %cl,%eax
    7c65:	09 c2                	or     %eax,%edx
    7c67:	48 8b 85 d8 f5 ff ff 	mov    -0xa28(%rbp),%rax
    7c6e:	89 10                	mov    %edx,(%rax)
    7c70:	48 8b 85 d8 f5 ff ff 	mov    -0xa28(%rbp),%rax
    7c77:	8b 00                	mov    (%rax),%eax
    7c79:	89 05 71 e5 00 00    	mov    %eax,0xe571(%rip)        # 161f0 <g_1577>
    7c7f:	8b 15 6b e5 00 00    	mov    0xe56b(%rip),%edx        # 161f0 <g_1577>
    7c85:	8b 05 3d 09 01 00    	mov    0x1093d(%rip),%eax        # 185c8 <g_14>
    7c8b:	48 98                	cltq   
    7c8d:	0f b6 44 05 c2       	movzbl -0x3e(%rbp,%rax,1),%eax
    7c92:	0f b6 c0             	movzbl %al,%eax
    7c95:	89 d6                	mov    %edx,%esi
    7c97:	89 c7                	mov    %eax,%edi
    7c99:	e8 32 f2 ff ff       	callq  6ed0 <safe_sub_func_uint32_t_u_u>
    7c9e:	ba fe ff ff ff       	mov    $0xfffffffe,%edx
    7ca3:	0f bf d2             	movswl %dx,%edx
    7ca6:	39 d0                	cmp    %edx,%eax
    7ca8:	0f 95 c0             	setne  %al
    7cab:	0f b6 c0             	movzbl %al,%eax
    7cae:	48 be fe f4 74 ca 09 	movabs $0x262dd409ca74f4fe,%rsi
    7cb5:	d4 2d 26 
    7cb8:	48 89 c7             	mov    %rax,%rdi
    7cbb:	e8 81 eb ff ff       	callq  6841 <safe_add_func_int64_t_s_s>
    7cc0:	48 85 c0             	test   %rax,%rax
    7cc3:	75 0c                	jne    7cd1 <func_1+0x51c>
    7cc5:	0f b7 85 70 f5 ff ff 	movzwl -0xa90(%rbp),%eax
    7ccc:	66 85 c0             	test   %ax,%ax
    7ccf:	74 07                	je     7cd8 <func_1+0x523>
    7cd1:	b8 01 00 00 00       	mov    $0x1,%eax
    7cd6:	eb 05                	jmp    7cdd <func_1+0x528>
    7cd8:	b8 00 00 00 00       	mov    $0x0,%eax
    7cdd:	98                   	cwtl   
    7cde:	44 89 f9             	mov    %r15d,%ecx
    7ce1:	44 89 f2             	mov    %r14d,%edx
    7ce4:	44 89 ee             	mov    %r13d,%esi
    7ce7:	89 c7                	mov    %eax,%edi
    7ce9:	e8 7b 09 00 00       	callq  8669 <func_17>
    7cee:	0f b6 c0             	movzbl %al,%eax
    7cf1:	be 01 00 00 00       	mov    $0x1,%esi
    7cf6:	89 c7                	mov    %eax,%edi
    7cf8:	e8 96 ee ff ff       	callq  6b93 <safe_mul_func_uint8_t_u_u>
    7cfd:	48 c7 85 50 f6 ff ff 	movq   $0x0,-0x9b0(%rbp)
    7d04:	00 00 00 00 
    7d08:	48 c7 85 58 f6 ff ff 	movq   $0x0,-0x9a8(%rbp)
    7d0f:	00 00 00 00 
    7d13:	48 c7 85 60 f6 ff ff 	movq   $0x0,-0x9a0(%rbp)
    7d1a:	00 00 00 00 
    7d1e:	48 c7 85 68 f6 ff ff 	movq   $0x0,-0x998(%rbp)
    7d25:	00 00 00 00 
    7d29:	48 c7 85 70 f6 ff ff 	movq   $0x0,-0x990(%rbp)
    7d30:	00 00 00 00 
    7d34:	c7 85 90 f5 ff ff 5f 	movl   $0xeadd815f,-0xa70(%rbp)
    7d3b:	81 dd ea 
    7d3e:	48 8d 85 6f f5 ff ff 	lea    -0xa91(%rbp),%rax
    7d45:	48 89 85 e8 f5 ff ff 	mov    %rax,-0xa18(%rbp)
    7d4c:	c7 85 84 f5 ff ff 00 	movl   $0x0,-0xa7c(%rbp)
    7d53:	00 00 00 
    7d56:	eb 19                	jmp    7d71 <func_1+0x5bc>
    7d58:	8b 85 84 f5 ff ff    	mov    -0xa7c(%rbp),%eax
    7d5e:	48 98                	cltq   
    7d60:	66 c7 84 45 fa f5 ff 	movw   $0x3d17,-0xa06(%rbp,%rax,2)
    7d67:	ff 17 3d 
    7d6a:	83 85 84 f5 ff ff 01 	addl   $0x1,-0xa7c(%rbp)
    7d71:	83 bd 84 f5 ff ff 02 	cmpl   $0x2,-0xa7c(%rbp)
    7d78:	7e de                	jle    7d58 <func_1+0x5a3>
    7d7a:	8b 05 68 e3 00 00    	mov    0xe368(%rip),%eax        # 160e8 <g_135>
    7d80:	85 c0                	test   %eax,%eax
    7d82:	75 7a                	jne    7dfe <func_1+0x649>
    7d84:	48 8b 15 95 b4 00 00 	mov    0xb495(%rip),%rdx        # 13220 <l_1219.4135+0x80>
    7d8b:	8b 05 37 08 01 00    	mov    0x10837(%rip),%eax        # 185c8 <g_14>
    7d91:	48 98                	cltq   
    7d93:	0f b6 44 05 c2       	movzbl -0x3e(%rbp,%rax,1),%eax
    7d98:	84 c0                	test   %al,%al
    7d9a:	0f 95 c0             	setne  %al
    7d9d:	0f b6 c0             	movzbl %al,%eax
    7da0:	48 89 d6             	mov    %rdx,%rsi
    7da3:	48 89 c7             	mov    %rax,%rdi
    7da6:	e8 96 ea ff ff       	callq  6841 <safe_add_func_int64_t_s_s>
    7dab:	48 89 c3             	mov    %rax,%rbx
    7dae:	48 8b 05 63 b4 00 00 	mov    0xb463(%rip),%rax        # 13218 <l_1219.4135+0x78>
    7db5:	89 c2                	mov    %eax,%edx
    7db7:	48 8b 05 2a 00 01 00 	mov    0x1002a(%rip),%rax        # 17de8 <g_722>
    7dbe:	0f b6 00             	movzbl (%rax),%eax
    7dc1:	84 c0                	test   %al,%al
    7dc3:	74 1e                	je     7de3 <func_1+0x62e>
    7dc5:	48 8b 05 d4 01 01 00 	mov    0x101d4(%rip),%rax        # 17fa0 <g_1450>
    7dcc:	48 8d 85 70 f5 ff ff 	lea    -0xa90(%rbp),%rax
    7dd3:	48 39 85 a8 f5 ff ff 	cmp    %rax,-0xa58(%rbp)
    7dda:	75 07                	jne    7de3 <func_1+0x62e>
    7ddc:	b8 01 00 00 00       	mov    $0x1,%eax
    7de1:	eb 05                	jmp    7de8 <func_1+0x633>
    7de3:	b8 00 00 00 00       	mov    $0x0,%eax
    7de8:	98                   	cwtl   
    7de9:	89 d6                	mov    %edx,%esi
    7deb:	89 c7                	mov    %eax,%edi
    7ded:	e8 a0 e6 ff ff       	callq  6492 <safe_lshift_func_int16_t_s_s>
    7df2:	48 0f bf c0          	movswq %ax,%rax
    7df6:	48 21 d8             	and    %rbx,%rax
    7df9:	48 85 c0             	test   %rax,%rax
    7dfc:	74 07                	je     7e05 <func_1+0x650>
    7dfe:	b8 01 00 00 00       	mov    $0x1,%eax
    7e03:	eb 05                	jmp    7e0a <func_1+0x655>
    7e05:	b8 00 00 00 00       	mov    $0x0,%eax
    7e0a:	be 07 00 00 00       	mov    $0x7,%esi
    7e0f:	89 c7                	mov    %eax,%edi
    7e11:	e8 0f f1 ff ff       	callq  6f25 <safe_div_func_uint32_t_u_u>
    7e16:	98                   	cwtl   
    7e17:	be e5 9c ff ff       	mov    $0xffff9ce5,%esi
    7e1c:	89 c7                	mov    %eax,%edi
    7e1e:	e8 f3 e5 ff ff       	callq  6416 <safe_mod_func_int16_t_s_s>
    7e23:	48 8b 05 d6 01 01 00 	mov    0x101d6(%rip),%rax        # 18000 <g_1609>
    7e2a:	8b 10                	mov    (%rax),%edx
    7e2c:	0f b6 45 c2          	movzbl -0x3e(%rbp),%eax
    7e30:	0f b6 c0             	movzbl %al,%eax
    7e33:	39 c2                	cmp    %eax,%edx
    7e35:	0f 9d c0             	setge  %al
    7e38:	0f b6 c0             	movzbl %al,%eax
    7e3b:	89 85 78 f5 ff ff    	mov    %eax,-0xa88(%rbp)
    7e41:	c6 05 80 e2 00 00 0d 	movb   $0xd,0xe280(%rip)        # 160c8 <g_58>
    7e48:	e9 14 07 00 00       	jmpq   8561 <func_1+0xdac>
    7e4d:	c7 85 80 f6 ff ff c9 	movl   $0xfb59dbc9,-0x980(%rbp)
    7e54:	db 59 fb 
    7e57:	66 c7 85 84 f6 ff ff 	movw   $0x4eff,-0x97c(%rbp)
    7e5e:	ff 4e 
    7e60:	c6 85 86 f6 ff ff 4e 	movb   $0x4e,-0x97a(%rbp)
    7e67:	c7 85 87 f6 ff ff ff 	movl   $0x703870ff,-0x979(%rbp)
    7e6e:	70 38 70 
    7e71:	66 c7 85 8b f6 ff ff 	movw   $0xcbff,-0x975(%rbp)
    7e78:	ff cb 
    7e7a:	c6 85 8d f6 ff ff ff 	movb   $0xff,-0x973(%rbp)
    7e81:	c7 85 8e f6 ff ff 60 	movl   $0xfffb4e60,-0x972(%rbp)
    7e88:	4e fb ff 
    7e8b:	66 c7 85 92 f6 ff ff 	movw   $0x21a1,-0x96e(%rbp)
    7e92:	a1 21 
    7e94:	c6 85 94 f6 ff ff 60 	movb   $0x60,-0x96c(%rbp)
    7e9b:	c7 85 95 f6 ff ff 59 	movl   $0xa1216059,-0x96b(%rbp)
    7ea2:	60 21 a1 
    7ea5:	66 c7 85 99 f6 ff ff 	movw   $0xfbff,-0x967(%rbp)
    7eac:	ff fb 
    7eae:	c6 85 9b f6 ff ff 4e 	movb   $0x4e,-0x965(%rbp)
    7eb5:	c7 85 9c f6 ff ff 60 	movl   $0xffcbff60,-0x964(%rbp)
    7ebc:	ff cb ff 
    7ebf:	66 c7 85 a0 f6 ff ff 	movw   $0x3870,-0x960(%rbp)
    7ec6:	70 38 
    7ec8:	c6 85 a2 f6 ff ff 70 	movb   $0x70,-0x95e(%rbp)
    7ecf:	c7 85 a3 f6 ff ff ff 	movl   $0xff4e4eff,-0x95d(%rbp)
    7ed6:	4e 4e ff 
    7ed9:	66 c7 85 a7 f6 ff ff 	movw   $0x2dfb,-0x959(%rbp)
    7ee0:	fb 2d 
    7ee2:	c6 85 a9 f6 ff ff 21 	movb   $0x21,-0x957(%rbp)
    7ee9:	c7 85 aa f6 ff ff 01 	movl   $0x62cea101,-0x956(%rbp)
    7ef0:	a1 ce 62 
    7ef3:	66 c7 85 ae f6 ff ff 	movw   $0xaaa1,-0x952(%rbp)
    7efa:	a1 aa 
    7efc:	c6 85 b0 f6 ff ff 38 	movb   $0x38,-0x950(%rbp)
    7f03:	c7 85 b1 f6 ff ff 44 	movl   $0xc9ff4e44,-0x94f(%rbp)
    7f0a:	4e ff c9 
    7f0d:	66 c7 85 b5 f6 ff ff 	movw   $0xffff,-0x94b(%rbp)
    7f14:	ff ff 
    7f16:	c6 85 b7 f6 ff ff 21 	movb   $0x21,-0x949(%rbp)
    7f1d:	c7 85 b8 f6 ff ff fb 	movl   $0x440138fb,-0x948(%rbp)
    7f24:	38 01 44 
    7f27:	66 c7 85 bc f6 ff ff 	movw   $0x6262,-0x944(%rbp)
    7f2e:	62 62 
    7f30:	c6 85 be f6 ff ff 44 	movb   $0x44,-0x942(%rbp)
    7f37:	c7 85 bf f6 ff ff 01 	movl   $0xa401b001,-0x941(%rbp)
    7f3e:	b0 01 a4 
    7f41:	66 c7 85 c3 f6 ff ff 	movw   $0xcb4e,-0x93d(%rbp)
    7f48:	4e cb 
    7f4a:	c6 85 c5 f6 ff ff ff 	movb   $0xff,-0x93b(%rbp)
    7f51:	c7 85 c6 f6 ff ff 4e 	movl   $0xa1fffb4e,-0x93a(%rbp)
    7f58:	fb ff a1 
    7f5b:	66 c7 85 ca f6 ff ff 	movw   $0x6021,-0x936(%rbp)
    7f62:	21 60 
    7f64:	c6 85 cc f6 ff ff 59 	movb   $0x59,-0x934(%rbp)
    7f6b:	c7 85 cd f6 ff ff c9 	movl   $0xffceffc9,-0x933(%rbp)
    7f72:	ff ce ff 
    7f75:	66 c7 85 d1 f6 ff ff 	movw   $0xcb62,-0x92f(%rbp)
    7f7c:	62 cb 
    7f7e:	c6 85 d3 f6 ff ff c9 	movb   $0xc9,-0x92d(%rbp)
    7f85:	c7 45 c3 01 01 01 01 	movl   $0x1010101,-0x3d(%rbp)
    7f8c:	c6 45 c7 01          	movb   $0x1,-0x39(%rbp)
    7f90:	48 8d 85 20 fa ff ff 	lea    -0x5e0(%rbp),%rax
    7f97:	48 8d 15 22 e5 00 00 	lea    0xe522(%rip),%rdx        # 164c0 <g_2027+0x2a4>
    7f9e:	b9 b4 00 00 00       	mov    $0xb4,%ecx
    7fa3:	48 89 c7             	mov    %rax,%rdi
    7fa6:	48 89 d6             	mov    %rdx,%rsi
    7fa9:	f3 48 a5             	rep movsq %ds:(%rsi),%es:(%rdi)
    7fac:	8b 05 16 06 01 00    	mov    0x10616(%rip),%eax        # 185c8 <g_14>
    7fb2:	48 98                	cltq   
    7fb4:	0f b6 44 05 c2       	movzbl -0x3e(%rbp,%rax,1),%eax
    7fb9:	84 c0                	test   %al,%al
    7fbb:	75 10                	jne    7fcd <func_1+0x818>
    7fbd:	0f b7 85 fe f5 ff ff 	movzwl -0xa02(%rbp),%eax
    7fc4:	66 85 c0             	test   %ax,%ax
    7fc7:	0f 84 b8 02 00 00    	je     8285 <func_1+0xad0>
    7fcd:	66 c7 85 76 f5 ff ff 	movw   $0xd6bd,-0xa8a(%rbp)
    7fd4:	bd d6 
    7fd6:	83 bd 88 f5 ff ff 00 	cmpl   $0x0,-0xa78(%rbp)
    7fdd:	0f 85 8f 05 00 00    	jne    8572 <func_1+0xdbd>
    7fe3:	0f b7 95 76 f5 ff ff 	movzwl -0xa8a(%rbp),%edx
    7fea:	0f b6 05 d8 e0 00 00 	movzbl 0xe0d8(%rip),%eax        # 160c9 <g_77>
    7ff1:	0f b6 c0             	movzbl %al,%eax
    7ff4:	25 0a 07 e4 05       	and    $0x5e4070a,%eax
    7ff9:	48 89 c1             	mov    %rax,%rcx
    7ffc:	0f b7 85 76 f5 ff ff 	movzwl -0xa8a(%rbp),%eax
    8003:	48 39 c1             	cmp    %rax,%rcx
    8006:	0f 94 c0             	sete   %al
    8009:	0f b6 c0             	movzbl %al,%eax
    800c:	89 d6                	mov    %edx,%esi
    800e:	89 c7                	mov    %eax,%edi
    8010:	e8 f0 e5 ff ff       	callq  6605 <safe_sub_func_int32_t_s_s>
    8015:	85 c0                	test   %eax,%eax
    8017:	0f 95 c0             	setne  %al
    801a:	0f b6 d0             	movzbl %al,%edx
    801d:	0f b7 85 76 f5 ff ff 	movzwl -0xa8a(%rbp),%eax
    8024:	39 c2                	cmp    %eax,%edx
    8026:	0f 9d c0             	setge  %al
    8029:	0f b6 d0             	movzbl %al,%edx
    802c:	8b 85 78 f5 ff ff    	mov    -0xa88(%rbp),%eax
    8032:	09 d0                	or     %edx,%eax
    8034:	89 85 78 f5 ff ff    	mov    %eax,-0xa88(%rbp)
    803a:	0f b6 45 c6          	movzbl -0x3a(%rbp),%eax
    803e:	0f b6 d8             	movzbl %al,%ebx
    8041:	48 8b 85 a0 f5 ff ff 	mov    -0xa60(%rbp),%rax
    8048:	44 0f bf e0          	movswl %ax,%r12d
    804c:	44 0f b7 ad 76 f5 ff 	movzwl -0xa8a(%rbp),%r13d
    8053:	ff 
    8054:	8b 05 6e 05 01 00    	mov    0x1056e(%rip),%eax        # 185c8 <g_14>
    805a:	48 98                	cltq   
    805c:	0f b6 44 05 c2       	movzbl -0x3e(%rbp,%rax,1),%eax
    8061:	44 0f b6 f0          	movzbl %al,%r14d
    8065:	48 8b 05 a4 fc 00 00 	mov    0xfca4(%rip),%rax        # 17d10 <g_288>
    806c:	0f b7 00             	movzwl (%rax),%eax
    806f:	44 0f bf f8          	movswl %ax,%r15d
    8073:	8b 05 77 e1 00 00    	mov    0xe177(%rip),%eax        # 161f0 <g_1577>
    8079:	89 c0                	mov    %eax,%eax
    807b:	48 89 85 58 f5 ff ff 	mov    %rax,-0xaa8(%rbp)
    8082:	0f b6 85 c4 f6 ff ff 	movzbl -0x93c(%rbp),%eax
    8089:	0f b6 c0             	movzbl %al,%eax
    808c:	89 85 54 f5 ff ff    	mov    %eax,-0xaac(%rbp)
    8092:	0f b6 85 cc f6 ff ff 	movzbl -0x934(%rbp),%eax
    8099:	0f b6 c0             	movzbl %al,%eax
    809c:	48 89 85 48 f5 ff ff 	mov    %rax,-0xab8(%rbp)
    80a3:	83 bd 88 f5 ff ff 00 	cmpl   $0x0,-0xa78(%rbp)
    80aa:	75 0a                	jne    80b6 <func_1+0x901>
    80ac:	66 83 bd 76 f5 ff ff 	cmpw   $0x0,-0xa8a(%rbp)
    80b3:	00 
    80b4:	74 12                	je     80c8 <func_1+0x913>
    80b6:	0f b6 85 6f f5 ff ff 	movzbl -0xa91(%rbp),%eax
    80bd:	84 c0                	test   %al,%al
    80bf:	74 07                	je     80c8 <func_1+0x913>
    80c1:	b8 01 00 00 00       	mov    $0x1,%eax
    80c6:	eb 05                	jmp    80cd <func_1+0x918>
    80c8:	b8 00 00 00 00       	mov    $0x0,%eax
    80cd:	89 c2                	mov    %eax,%edx
    80cf:	0f b7 85 70 f5 ff ff 	movzwl -0xa90(%rbp),%eax
    80d6:	0f be c0             	movsbl %al,%eax
    80d9:	89 d6                	mov    %edx,%esi
    80db:	89 c7                	mov    %eax,%edi
    80dd:	e8 0c e2 ff ff       	callq  62ee <safe_lshift_func_int8_t_s_u>
    80e2:	66 98                	cbtw   
    80e4:	0f b7 c0             	movzwl %ax,%eax
    80e7:	89 85 50 f5 ff ff    	mov    %eax,-0xab0(%rbp)
    80ed:	0f b7 85 76 f5 ff ff 	movzwl -0xa8a(%rbp),%eax
    80f4:	be f1 62 25 c5       	mov    $0xc52562f1,%esi
    80f9:	89 c7                	mov    %eax,%edi
    80fb:	e8 ff e5 ff ff       	callq  66ff <safe_div_func_int32_t_s_s>
    8100:	0f b7 d0             	movzwl %ax,%edx
    8103:	0f b6 85 c2 f6 ff ff 	movzbl -0x93e(%rbp),%eax
    810a:	0f b6 c0             	movzbl %al,%eax
    810d:	89 d6                	mov    %edx,%esi
    810f:	89 c7                	mov    %eax,%edi
    8111:	e8 46 ec ff ff       	callq  6d5c <safe_mod_func_uint16_t_u_u>
    8116:	0f b7 c0             	movzwl %ax,%eax
    8119:	8b b5 50 f5 ff ff    	mov    -0xab0(%rbp),%esi
    811f:	89 c7                	mov    %eax,%edi
    8121:	e8 17 ec ff ff       	callq  6d3d <safe_mul_func_uint16_t_u_u>
    8126:	66 85 c0             	test   %ax,%ax
    8129:	75 0b                	jne    8136 <func_1+0x981>
    812b:	0f b6 85 b3 f6 ff ff 	movzbl -0x94d(%rbp),%eax
    8132:	84 c0                	test   %al,%al
    8134:	74 07                	je     813d <func_1+0x988>
    8136:	b8 01 00 00 00       	mov    $0x1,%eax
    813b:	eb 05                	jmp    8142 <func_1+0x98d>
    813d:	b8 00 00 00 00       	mov    $0x0,%eax
    8142:	48 98                	cltq   
    8144:	48 8b b5 48 f5 ff ff 	mov    -0xab8(%rbp),%rsi
    814b:	48 89 c7             	mov    %rax,%rdi
    814e:	e8 61 e8 ff ff       	callq  69b4 <safe_mod_func_int64_t_s_s>
    8153:	98                   	cwtl   
    8154:	8b b5 54 f5 ff ff    	mov    -0xaac(%rbp),%esi
    815a:	89 c7                	mov    %eax,%edi
    815c:	e8 94 e2 ff ff       	callq  63f5 <safe_mul_func_int16_t_s_s>
    8161:	83 f0 05             	xor    $0x5,%eax
    8164:	0f b7 d0             	movzwl %ax,%edx
    8167:	48 8b 05 62 fc 00 00 	mov    0xfc62(%rip),%rax        # 17dd0 <g_614>
    816e:	0f b7 00             	movzwl (%rax),%eax
    8171:	0f b7 c0             	movzwl %ax,%eax
    8174:	89 d6                	mov    %edx,%esi
    8176:	89 c7                	mov    %eax,%edi
    8178:	e8 c0 eb ff ff       	callq  6d3d <safe_mul_func_uint16_t_u_u>
    817d:	48 8b 05 0c b1 00 00 	mov    0xb10c(%rip),%rax        # 13290 <l_1219.4135+0xf0>
    8184:	48 83 f8 01          	cmp    $0x1,%rax
    8188:	0f 9e c0             	setle  %al
    818b:	0f b6 d0             	movzbl %al,%edx
    818e:	48 8b 05 9b fc 00 00 	mov    0xfc9b(%rip),%rax        # 17e30 <g_769>
    8195:	48 8b 08             	mov    (%rax),%rcx
    8198:	48 63 d2             	movslq %edx,%rdx
    819b:	48 8b 05 8e fc 00 00 	mov    0xfc8e(%rip),%rax        # 17e30 <g_769>
    81a2:	48 09 ca             	or     %rcx,%rdx
    81a5:	48 89 10             	mov    %rdx,(%rax)
    81a8:	48 8b 10             	mov    (%rax),%rdx
    81ab:	8b 85 88 f5 ff ff    	mov    -0xa78(%rbp),%eax
    81b1:	48 39 c2             	cmp    %rax,%rdx
    81b4:	0f 9c c0             	setl   %al
    81b7:	0f b6 c0             	movzbl %al,%eax
    81ba:	48 8b b5 58 f5 ff ff 	mov    -0xaa8(%rbp),%rsi
    81c1:	48 89 c7             	mov    %rax,%rdi
    81c4:	e8 2e e8 ff ff       	callq  69f7 <safe_div_func_int64_t_s_s>
    81c9:	0f b7 c0             	movzwl %ax,%eax
    81cc:	44 89 fe             	mov    %r15d,%esi
    81cf:	89 c7                	mov    %eax,%edi
    81d1:	e8 e8 eb ff ff       	callq  6dbe <safe_lshift_func_uint16_t_u_s>
    81d6:	44 89 f6             	mov    %r14d,%esi
    81d9:	bf 06 00 00 00       	mov    $0x6,%edi
    81de:	e8 cb e9 ff ff       	callq  6bae <safe_mod_func_uint8_t_u_u>
    81e3:	0f b7 85 76 f5 ff ff 	movzwl -0xa8a(%rbp),%eax
    81ea:	0f be c0             	movsbl %al,%eax
    81ed:	44 89 ee             	mov    %r13d,%esi
    81f0:	89 c7                	mov    %eax,%edi
    81f2:	e8 aa e0 ff ff       	callq  62a1 <safe_lshift_func_int8_t_s_s>
    81f7:	0f be c0             	movsbl %al,%eax
    81fa:	44 89 e6             	mov    %r12d,%esi
    81fd:	89 c7                	mov    %eax,%edi
    81ff:	e8 f1 e1 ff ff       	callq  63f5 <safe_mul_func_int16_t_s_s>
    8204:	98                   	cwtl   
    8205:	89 de                	mov    %ebx,%esi
    8207:	89 c7                	mov    %eax,%edi
    8209:	e8 e7 e1 ff ff       	callq  63f5 <safe_mul_func_int16_t_s_s>
    820e:	98                   	cwtl   
    820f:	89 85 8c f5 ff ff    	mov    %eax,-0xa74(%rbp)
    8215:	48 8b 05 44 ff 00 00 	mov    0xff44(%rip),%rax        # 18160 <g_2080>
    821c:	48 8d 95 78 f5 ff ff 	lea    -0xa88(%rbp),%rdx
    8223:	48 89 10             	mov    %rdx,(%rax)
    8226:	90                   	nop
    8227:	0f b7 85 70 f5 ff ff 	movzwl -0xa90(%rbp),%eax
    822e:	98                   	cwtl   
    822f:	f7 d0                	not    %eax
    8231:	89 c1                	mov    %eax,%ecx
    8233:	48 8d 85 6f f5 ff ff 	lea    -0xa91(%rbp),%rax
    823a:	48 39 85 e8 f5 ff ff 	cmp    %rax,-0xa18(%rbp)
    8241:	0f 94 c0             	sete   %al
    8244:	0f b6 d0             	movzbl %al,%edx
    8247:	8b 85 78 f5 ff ff    	mov    -0xa88(%rbp),%eax
    824d:	39 c2                	cmp    %eax,%edx
    824f:	0f 9c c0             	setl   %al
    8252:	0f b6 c0             	movzbl %al,%eax
    8255:	39 c1                	cmp    %eax,%ecx
    8257:	48 8b 05 82 fb 00 00 	mov    0xfb82(%rip),%rax        # 17de0 <g_612>
    825e:	48 8b 00             	mov    (%rax),%rax
    8261:	48 8b 00             	mov    (%rax),%rax
    8264:	0f b7 00             	movzwl (%rax),%eax
    8267:	0f b7 c0             	movzwl %ax,%eax
    826a:	8b 15 58 03 01 00    	mov    0x10358(%rip),%edx        # 185c8 <g_14>
    8270:	48 63 d2             	movslq %edx,%rdx
    8273:	0f b6 54 15 c2       	movzbl -0x3e(%rbp,%rdx,1),%edx
    8278:	84 d2                	test   %dl,%dl
    827a:	0f 84 5b 02 00 00    	je     84db <func_1+0xd26>
    8280:	e9 26 02 00 00       	jmpq   84ab <func_1+0xcf6>
    8285:	c7 85 94 f5 ff ff 01 	movl   $0x1,-0xa6c(%rbp)
    828c:	00 00 00 
    828f:	48 8d 85 78 f5 ff ff 	lea    -0xa88(%rbp),%rax
    8296:	48 89 85 f0 f5 ff ff 	mov    %rax,-0xa10(%rbp)
    829d:	48 8d 05 50 de 00 00 	lea    0xde50(%rip),%rax        # 160f4 <g_159>
    82a4:	48 89 85 e0 f6 ff ff 	mov    %rax,-0x920(%rbp)
    82ab:	48 8d 05 62 df 00 00 	lea    0xdf62(%rip),%rax        # 16214 <g_1965>
    82b2:	48 89 85 e8 f6 ff ff 	mov    %rax,-0x918(%rbp)
    82b9:	48 8d 05 54 df 00 00 	lea    0xdf54(%rip),%rax        # 16214 <g_1965>
    82c0:	48 89 85 f0 f6 ff ff 	mov    %rax,-0x910(%rbp)
    82c7:	48 8d 05 26 de 00 00 	lea    0xde26(%rip),%rax        # 160f4 <g_159>
    82ce:	48 89 85 f8 f6 ff ff 	mov    %rax,-0x908(%rbp)
    82d5:	48 8d 05 38 df 00 00 	lea    0xdf38(%rip),%rax        # 16214 <g_1965>
    82dc:	48 89 85 00 f7 ff ff 	mov    %rax,-0x900(%rbp)
    82e3:	48 8d 05 0a de 00 00 	lea    0xde0a(%rip),%rax        # 160f4 <g_159>
    82ea:	48 89 85 08 f7 ff ff 	mov    %rax,-0x8f8(%rbp)
    82f1:	48 8d 05 1c df 00 00 	lea    0xdf1c(%rip),%rax        # 16214 <g_1965>
    82f8:	48 89 85 10 f7 ff ff 	mov    %rax,-0x8f0(%rbp)
    82ff:	48 8d 05 0e df 00 00 	lea    0xdf0e(%rip),%rax        # 16214 <g_1965>
    8306:	48 89 85 18 f7 ff ff 	mov    %rax,-0x8e8(%rbp)
    830d:	48 8d 05 e0 dd 00 00 	lea    0xdde0(%rip),%rax        # 160f4 <g_159>
    8314:	48 89 85 20 f7 ff ff 	mov    %rax,-0x8e0(%rbp)
    831b:	48 8d 05 d2 dd 00 00 	lea    0xddd2(%rip),%rax        # 160f4 <g_159>
    8322:	48 89 85 28 f7 ff ff 	mov    %rax,-0x8d8(%rbp)
    8329:	48 8d 05 e4 de 00 00 	lea    0xdee4(%rip),%rax        # 16214 <g_1965>
    8330:	48 89 85 30 f7 ff ff 	mov    %rax,-0x8d0(%rbp)
    8337:	48 8d 05 b6 dd 00 00 	lea    0xddb6(%rip),%rax        # 160f4 <g_159>
    833e:	48 89 85 38 f7 ff ff 	mov    %rax,-0x8c8(%rbp)
    8345:	48 8d 05 a8 dd 00 00 	lea    0xdda8(%rip),%rax        # 160f4 <g_159>
    834c:	48 89 85 40 f7 ff ff 	mov    %rax,-0x8c0(%rbp)
    8353:	48 8d 05 ba de 00 00 	lea    0xdeba(%rip),%rax        # 16214 <g_1965>
    835a:	48 89 85 48 f7 ff ff 	mov    %rax,-0x8b8(%rbp)
    8361:	48 8d 05 ac de 00 00 	lea    0xdeac(%rip),%rax        # 16214 <g_1965>
    8368:	48 89 85 50 f7 ff ff 	mov    %rax,-0x8b0(%rbp)
    836f:	48 8d 05 7e dd 00 00 	lea    0xdd7e(%rip),%rax        # 160f4 <g_159>
    8376:	48 89 85 58 f7 ff ff 	mov    %rax,-0x8a8(%rbp)
    837d:	48 8d 05 90 de 00 00 	lea    0xde90(%rip),%rax        # 16214 <g_1965>
    8384:	48 89 85 60 f7 ff ff 	mov    %rax,-0x8a0(%rbp)
    838b:	48 8d 05 62 dd 00 00 	lea    0xdd62(%rip),%rax        # 160f4 <g_159>
    8392:	48 89 85 68 f7 ff ff 	mov    %rax,-0x898(%rbp)
    8399:	48 8d 05 74 de 00 00 	lea    0xde74(%rip),%rax        # 16214 <g_1965>
    83a0:	48 89 85 70 f7 ff ff 	mov    %rax,-0x890(%rbp)
    83a7:	48 8d 05 66 de 00 00 	lea    0xde66(%rip),%rax        # 16214 <g_1965>
    83ae:	48 89 85 78 f7 ff ff 	mov    %rax,-0x888(%rbp)
    83b5:	48 8b 05 74 fa 00 00 	mov    0xfa74(%rip),%rax        # 17e30 <g_769>
    83bc:	4c 8b 20             	mov    (%rax),%r12
    83bf:	8b 85 78 f5 ff ff    	mov    -0xa88(%rbp),%eax
    83c5:	0f b6 d8             	movzbl %al,%ebx
    83c8:	83 bd 94 f5 ff ff 00 	cmpl   $0x0,-0xa6c(%rbp)
    83cf:	74 73                	je     8444 <func_1+0xc8f>
    83d1:	4c 8b 2d b0 ae 00 00 	mov    0xaeb0(%rip),%r13        # 13288 <l_1219.4135+0xe8>
    83d8:	48 83 bd f0 f5 ff ff 	cmpq   $0x0,-0xa10(%rbp)
    83df:	00 
    83e0:	0f 94 c0             	sete   %al
    83e3:	0f b6 c0             	movzbl %al,%eax
    83e6:	48 0b 85 d0 f5 ff ff 	or     -0xa30(%rbp),%rax
    83ed:	48 89 c2             	mov    %rax,%rdx
    83f0:	0f b6 85 6f f5 ff ff 	movzbl -0xa91(%rbp),%eax
    83f7:	48 0f be c0          	movsbq %al,%rax
    83fb:	48 31 d0             	xor    %rdx,%rax
    83fe:	48 89 c7             	mov    %rax,%rdi
    8401:	e8 13 ec ff ff       	callq  7019 <safe_unary_minus_func_uint64_t_u>
    8406:	48 83 f8 3d          	cmp    $0x3d,%rax
    840a:	0f 97 c0             	seta   %al
    840d:	0f b6 d0             	movzbl %al,%edx
    8410:	0f b6 45 c5          	movzbl -0x3b(%rbp),%eax
    8414:	0f b6 c0             	movzbl %al,%eax
    8417:	39 c2                	cmp    %eax,%edx
    8419:	0f 9f c0             	setg   %al
    841c:	0f b6 c0             	movzbl %al,%eax
    841f:	4c 89 ea             	mov    %r13,%rdx
    8422:	48 31 c2             	xor    %rax,%rdx
    8425:	0f b6 85 6f f5 ff ff 	movzbl -0xa91(%rbp),%eax
    842c:	48 0f be c0          	movsbq %al,%rax
    8430:	48 09 c2             	or     %rax,%rdx
    8433:	48 8b 85 f0 f5 ff ff 	mov    -0xa10(%rbp),%rax
    843a:	8b 00                	mov    (%rax),%eax
    843c:	48 98                	cltq   
    843e:	48 21 d0             	and    %rdx,%rax
    8441:	48 85 c0             	test   %rax,%rax
    8444:	89 de                	mov    %ebx,%esi
    8446:	bf 00 00 00 00       	mov    $0x0,%edi
    844b:	e8 28 e7 ff ff       	callq  6b78 <safe_sub_func_uint8_t_u_u>
    8450:	0f b6 c0             	movzbl %al,%eax
    8453:	89 05 9b dc 00 00    	mov    %eax,0xdc9b(%rip)        # 160f4 <g_159>
    8459:	bf fb 00 00 00       	mov    $0xfb,%edi
    845e:	e8 e2 e6 ff ff       	callq  6b45 <safe_unary_minus_func_uint8_t_u>
    8463:	0f b6 d0             	movzbl %al,%edx
    8466:	48 8b 05 23 ae 00 00 	mov    0xae23(%rip),%rax        # 13290 <l_1219.4135+0xf0>
    846d:	48 09 c2             	or     %rax,%rdx
    8470:	0f b7 85 70 f5 ff ff 	movzwl -0xa90(%rbp),%eax
    8477:	48 0f bf c0          	movswq %ax,%rax
    847b:	48 21 d0             	and    %rdx,%rax
    847e:	49 39 c4             	cmp    %rax,%r12
    8481:	0f 9d c0             	setge  %al
    8484:	0f b6 d0             	movzbl %al,%edx
    8487:	48 8b 85 f0 f5 ff ff 	mov    -0xa10(%rbp),%rax
    848e:	89 10                	mov    %edx,(%rax)
    8490:	48 8b 85 f0 f5 ff ff 	mov    -0xa10(%rbp),%rax
    8497:	8b 00                	mov    (%rax),%eax
    8499:	89 85 7c f5 ff ff    	mov    %eax,-0xa84(%rbp)
    849f:	48 8b 05 ea ad 00 00 	mov    0xadea(%rip),%rax        # 13290 <l_1219.4135+0xf0>
    84a6:	e9 98 01 00 00       	jmpq   8643 <func_1+0xe8e>
    84ab:	0f b7 15 50 dd 00 00 	movzwl 0xdd50(%rip),%edx        # 16202 <g_1878+0x2>
    84b2:	66 83 fa 01          	cmp    $0x1,%dx
    84b6:	0f 97 c2             	seta   %dl
    84b9:	0f b6 d2             	movzbl %dl,%edx
    84bc:	39 95 8c f5 ff ff    	cmp    %edx,-0xa74(%rbp)
    84c2:	0f 93 c2             	setae  %dl
    84c5:	0f b6 ca             	movzbl %dl,%ecx
    84c8:	48 8b 15 c1 ad 00 00 	mov    0xadc1(%rip),%rdx        # 13290 <l_1219.4135+0xf0>
    84cf:	48 39 d1             	cmp    %rdx,%rcx
    84d2:	7e 07                	jle    84db <func_1+0xd26>
    84d4:	ba 01 00 00 00       	mov    $0x1,%edx
    84d9:	eb 05                	jmp    84e0 <func_1+0xd2b>
    84db:	ba 00 00 00 00       	mov    $0x0,%edx
    84e0:	0f bf d2             	movswl %dx,%edx
    84e3:	81 e2 9f 00 00 00    	and    $0x9f,%edx
    84e9:	89 c6                	mov    %eax,%esi
    84eb:	89 d7                	mov    %edx,%edi
    84ed:	e8 ef df ff ff       	callq  64e1 <safe_lshift_func_int16_t_s_u>
    84f2:	8b 85 78 f5 ff ff    	mov    -0xa88(%rbp),%eax
    84f8:	85 c0                	test   %eax,%eax
    84fa:	74 07                	je     8503 <func_1+0xd4e>
    84fc:	ba 01 00 00 00       	mov    $0x1,%edx
    8501:	eb 05                	jmp    8508 <func_1+0xd53>
    8503:	ba 00 00 00 00       	mov    $0x0,%edx
    8508:	0f b7 05 c9 db 00 00 	movzwl 0xdbc9(%rip),%eax        # 160d8 <g_102>
    850f:	0f b7 c0             	movzwl %ax,%eax
    8512:	39 c2                	cmp    %eax,%edx
    8514:	48 8b 05 75 ad 00 00 	mov    0xad75(%rip),%rax        # 13290 <l_1219.4135+0xf0>
    851b:	89 c2                	mov    %eax,%edx
    851d:	8b 85 7c f5 ff ff    	mov    -0xa84(%rbp),%eax
    8523:	31 d0                	xor    %edx,%eax
    8525:	89 85 7c f5 ff ff    	mov    %eax,-0xa84(%rbp)
    852b:	8b 95 78 f5 ff ff    	mov    -0xa88(%rbp),%edx
    8531:	48 8b 05 e8 f7 00 00 	mov    0xf7e8(%rip),%rax        # 17d20 <g_312>
    8538:	48 8b 00             	mov    (%rax),%rax
    853b:	48 8b 00             	mov    (%rax),%rax
    853e:	89 10                	mov    %edx,(%rax)
    8540:	48 8b 05 39 fc 00 00 	mov    0xfc39(%rip),%rax        # 18180 <g_2102>
    8547:	48 8d 95 7c f5 ff ff 	lea    -0xa84(%rbp),%rdx
    854e:	48 89 10             	mov    %rdx,(%rax)
    8551:	0f b6 05 70 db 00 00 	movzbl 0xdb70(%rip),%eax        # 160c8 <g_58>
    8558:	83 c0 01             	add    $0x1,%eax
    855b:	88 05 67 db 00 00    	mov    %al,0xdb67(%rip)        # 160c8 <g_58>
    8561:	0f b6 05 60 db 00 00 	movzbl 0xdb60(%rip),%eax        # 160c8 <g_58>
    8568:	3c 15                	cmp    $0x15,%al
    856a:	0f 87 dd f8 ff ff    	ja     7e4d <func_1+0x698>
    8570:	eb 01                	jmp    8573 <func_1+0xdbe>
    8572:	90                   	nop
    8573:	0f b6 85 6f f5 ff ff 	movzbl -0xa91(%rbp),%eax
    857a:	e9 c4 00 00 00       	jmpq   8643 <func_1+0xe8e>
    857f:	66 c7 05 50 db 00 00 	movw   $0x0,0xdb50(%rip)        # 160d8 <g_102>
    8586:	00 00 
    8588:	eb 7a                	jmp    8604 <func_1+0xe4f>
    858a:	66 c7 85 74 f5 ff ff 	movw   $0xd6d5,-0xa8c(%rbp)
    8591:	d5 d6 
    8593:	48 c7 85 a0 f5 ff ff 	movq   $0x1,-0xa60(%rbp)
    859a:	01 00 00 00 
    859e:	eb 3c                	jmp    85dc <func_1+0xe27>
    85a0:	0f b7 05 31 db 00 00 	movzwl 0xdb31(%rip),%eax        # 160d8 <g_102>
    85a7:	0f b7 c0             	movzwl %ax,%eax
    85aa:	48 98                	cltq   
    85ac:	48 8d 14 00          	lea    (%rax,%rax,1),%rdx
    85b0:	48 8d 05 49 dc 00 00 	lea    0xdc49(%rip),%rax        # 16200 <g_1878>
    85b7:	0f b7 04 02          	movzwl (%rdx,%rax,1),%eax
    85bb:	66 85 c0             	test   %ax,%ax
    85be:	75 28                	jne    85e8 <func_1+0xe33>
    85c0:	48 8b 05 c1 fb 00 00 	mov    0xfbc1(%rip),%rax        # 18188 <g_2119>
    85c7:	8b 08                	mov    (%rax),%ecx
    85c9:	0f b7 95 74 f5 ff ff 	movzwl -0xa8c(%rbp),%edx
    85d0:	21 ca                	and    %ecx,%edx
    85d2:	89 10                	mov    %edx,(%rax)
    85d4:	48 83 ad a0 f5 ff ff 	subq   $0x1,-0xa60(%rbp)
    85db:	01 
    85dc:	48 83 bd a0 f5 ff ff 	cmpq   $0x0,-0xa60(%rbp)
    85e3:	00 
    85e4:	79 ba                	jns    85a0 <func_1+0xdeb>
    85e6:	eb 01                	jmp    85e9 <func_1+0xe34>
    85e8:	90                   	nop
    85e9:	c7 85 78 f5 ff ff 40 	movl   $0xb7525140,-0xa88(%rbp)
    85f0:	51 52 b7 
    85f3:	0f b7 05 de da 00 00 	movzwl 0xdade(%rip),%eax        # 160d8 <g_102>
    85fa:	83 c0 01             	add    $0x1,%eax
    85fd:	66 89 05 d4 da 00 00 	mov    %ax,0xdad4(%rip)        # 160d8 <g_102>
    8604:	0f b7 05 cd da 00 00 	movzwl 0xdacd(%rip),%eax        # 160d8 <g_102>
    860b:	66 83 f8 05          	cmp    $0x5,%ax
    860f:	0f 86 75 ff ff ff    	jbe    858a <func_1+0xdd5>
    8615:	8b 05 1d da 00 00    	mov    0xda1d(%rip),%eax        # 16038 <g_7>
    861b:	be 02 00 00 00       	mov    $0x2,%esi
    8620:	89 c7                	mov    %eax,%edi
    8622:	e8 8f df ff ff       	callq  65b6 <safe_add_func_int32_t_s_s>
    8627:	89 05 0b da 00 00    	mov    %eax,0xda0b(%rip)        # 16038 <g_7>
    862d:	8b 05 05 da 00 00    	mov    0xda05(%rip),%eax        # 16038 <g_7>
    8633:	83 f8 02             	cmp    $0x2,%eax
    8636:	0f 8e 8b f2 ff ff    	jle    78c7 <func_1+0x112>
    863c:	0f b7 85 70 f5 ff ff 	movzwl -0xa90(%rbp),%eax
    8643:	48 8b 5d c8          	mov    -0x38(%rbp),%rbx
    8647:	64 48 33 1c 25 28 00 	xor    %fs:0x28,%rbx
    864e:	00 00 
    8650:	74 05                	je     8657 <func_1+0xea2>
    8652:	e8 19 da ff ff       	callq  6070 <__stack_chk_fail@plt>
    8657:	48 81 c4 a8 0a 00 00 	add    $0xaa8,%rsp
    865e:	5b                   	pop    %rbx
    865f:	41 5c                	pop    %r12
    8661:	41 5d                	pop    %r13
    8663:	41 5e                	pop    %r14
    8665:	41 5f                	pop    %r15
    8667:	5d                   	pop    %rbp
    8668:	c3                   	retq   

0000000000008669 <func_17>:
    8669:	f3 0f 1e fa          	endbr64 
    866d:	55                   	push   %rbp
    866e:	48 89 e5             	mov    %rsp,%rbp
    8671:	89 75 e8             	mov    %esi,-0x18(%rbp)
    8674:	89 d0                	mov    %edx,%eax
    8676:	89 ca                	mov    %ecx,%edx
    8678:	89 f9                	mov    %edi,%ecx
    867a:	66 89 4d ec          	mov    %cx,-0x14(%rbp)
    867e:	66 89 45 e4          	mov    %ax,-0x1c(%rbp)
    8682:	89 d0                	mov    %edx,%eax
    8684:	88 45 e0             	mov    %al,-0x20(%rbp)
    8687:	c6 45 ff 05          	movb   $0x5,-0x1(%rbp)
    868b:	0f b6 45 ff          	movzbl -0x1(%rbp),%eax
    868f:	5d                   	pop    %rbp
    8690:	c3                   	retq   

0000000000008691 <func_26>:
    8691:	f3 0f 1e fa          	endbr64 
    8695:	55                   	push   %rbp
    8696:	48 89 e5             	mov    %rsp,%rbp
    8699:	41 56                	push   %r14
    869b:	41 55                	push   %r13
    869d:	41 54                	push   %r12
    869f:	53                   	push   %rbx
    86a0:	48 81 ec 80 03 00 00 	sub    $0x380,%rsp
    86a7:	89 d0                	mov    %edx,%eax
    86a9:	89 8d 60 fc ff ff    	mov    %ecx,-0x3a0(%rbp)
    86af:	89 fa                	mov    %edi,%edx
    86b1:	66 89 95 6c fc ff ff 	mov    %dx,-0x394(%rbp)
    86b8:	89 f2                	mov    %esi,%edx
    86ba:	66 89 95 68 fc ff ff 	mov    %dx,-0x398(%rbp)
    86c1:	66 89 85 64 fc ff ff 	mov    %ax,-0x39c(%rbp)
    86c8:	64 48 8b 04 25 28 00 	mov    %fs:0x28,%rax
    86cf:	00 00 
    86d1:	48 89 45 d8          	mov    %rax,-0x28(%rbp)
    86d5:	31 c0                	xor    %eax,%eax
    86d7:	48 b8 82 46 04 eb d6 	movabs $0xffc887d6eb044682,%rax
    86de:	87 c8 ff 
    86e1:	48 89 85 00 fd ff ff 	mov    %rax,-0x300(%rbp)
    86e8:	48 8d 05 01 ff 00 00 	lea    0xff01(%rip),%rax        # 185f0 <g_1118>
    86ef:	48 89 85 b8 fc ff ff 	mov    %rax,-0x348(%rbp)
    86f6:	48 8d 85 b8 fc ff ff 	lea    -0x348(%rbp),%rax
    86fd:	48 89 85 f0 fc ff ff 	mov    %rax,-0x310(%rbp)
    8704:	48 8d 05 dd d9 00 00 	lea    0xd9dd(%rip),%rax        # 160e8 <g_135>
    870b:	48 89 85 f8 fc ff ff 	mov    %rax,-0x308(%rbp)
    8712:	c7 85 c0 fe ff ff 99 	movl   $0x831a8599,-0x140(%rbp)
    8719:	85 1a 83 
    871c:	c7 85 c4 fe ff ff f8 	movl   $0xfffffff8,-0x13c(%rbp)
    8723:	ff ff ff 
    8726:	c7 85 c8 fe ff ff 00 	movl   $0x0,-0x138(%rbp)
    872d:	00 00 00 
    8730:	c7 85 cc fe ff ff 99 	movl   $0x831a8599,-0x134(%rbp)
    8737:	85 1a 83 
    873a:	c7 85 d0 fe ff ff 99 	movl   $0x831a8599,-0x130(%rbp)
    8741:	85 1a 83 
    8744:	c7 85 d4 fe ff ff f8 	movl   $0xfffffff8,-0x12c(%rbp)
    874b:	ff ff ff 
    874e:	c7 85 d8 fe ff ff d8 	movl   $0xc630b9d8,-0x128(%rbp)
    8755:	b9 30 c6 
    8758:	c7 85 dc fe ff ff f8 	movl   $0xfffffff8,-0x124(%rbp)
    875f:	ff ff ff 
    8762:	c7 85 e0 fe ff ff f8 	movl   $0xfffffff8,-0x120(%rbp)
    8769:	ff ff ff 
    876c:	c7 85 e4 fe ff ff f8 	movl   $0xfffffff8,-0x11c(%rbp)
    8773:	ff ff ff 
    8776:	c7 85 e8 fe ff ff 01 	movl   $0x1,-0x118(%rbp)
    877d:	00 00 00 
    8780:	c7 85 ec fe ff ff 00 	movl   $0x0,-0x114(%rbp)
    8787:	00 00 00 
    878a:	c7 85 f0 fe ff ff d8 	movl   $0xc630b9d8,-0x110(%rbp)
    8791:	b9 30 c6 
    8794:	c7 85 f4 fe ff ff 01 	movl   $0x1,-0x10c(%rbp)
    879b:	00 00 00 
    879e:	c7 85 f8 fe ff ff d8 	movl   $0xc630b9d8,-0x108(%rbp)
    87a5:	b9 30 c6 
    87a8:	c7 85 fc fe ff ff 99 	movl   $0x831a8599,-0x104(%rbp)
    87af:	85 1a 83 
    87b2:	c7 85 00 ff ff ff f8 	movl   $0xfffffff8,-0x100(%rbp)
    87b9:	ff ff ff 
    87bc:	c7 85 04 ff ff ff 00 	movl   $0x0,-0xfc(%rbp)
    87c3:	00 00 00 
    87c6:	c7 85 08 ff ff ff 99 	movl   $0x831a8599,-0xf8(%rbp)
    87cd:	85 1a 83 
    87d0:	c7 85 0c ff ff ff 99 	movl   $0x831a8599,-0xf4(%rbp)
    87d7:	85 1a 83 
    87da:	c7 85 10 ff ff ff f8 	movl   $0xfffffff8,-0xf0(%rbp)
    87e1:	ff ff ff 
    87e4:	c7 85 14 ff ff ff d8 	movl   $0xc630b9d8,-0xec(%rbp)
    87eb:	b9 30 c6 
    87ee:	c7 85 18 ff ff ff f8 	movl   $0xfffffff8,-0xe8(%rbp)
    87f5:	ff ff ff 
    87f8:	c7 85 1c ff ff ff f8 	movl   $0xfffffff8,-0xe4(%rbp)
    87ff:	ff ff ff 
    8802:	c7 85 20 ff ff ff f8 	movl   $0xfffffff8,-0xe0(%rbp)
    8809:	ff ff ff 
    880c:	c7 85 24 ff ff ff 01 	movl   $0x1,-0xdc(%rbp)
    8813:	00 00 00 
    8816:	c7 85 28 ff ff ff 00 	movl   $0x0,-0xd8(%rbp)
    881d:	00 00 00 
    8820:	c7 85 2c ff ff ff d8 	movl   $0xc630b9d8,-0xd4(%rbp)
    8827:	b9 30 c6 
    882a:	c7 85 30 ff ff ff 01 	movl   $0x1,-0xd0(%rbp)
    8831:	00 00 00 
    8834:	c7 85 34 ff ff ff d8 	movl   $0xc630b9d8,-0xcc(%rbp)
    883b:	b9 30 c6 
    883e:	c7 85 38 ff ff ff 99 	movl   $0x831a8599,-0xc8(%rbp)
    8845:	85 1a 83 
    8848:	c7 85 3c ff ff ff f8 	movl   $0xfffffff8,-0xc4(%rbp)
    884f:	ff ff ff 
    8852:	c7 85 40 ff ff ff 00 	movl   $0x0,-0xc0(%rbp)
    8859:	00 00 00 
    885c:	c7 85 44 ff ff ff 99 	movl   $0x831a8599,-0xbc(%rbp)
    8863:	85 1a 83 
    8866:	c7 85 48 ff ff ff 99 	movl   $0x831a8599,-0xb8(%rbp)
    886d:	85 1a 83 
    8870:	c7 85 4c ff ff ff f8 	movl   $0xfffffff8,-0xb4(%rbp)
    8877:	ff ff ff 
    887a:	c7 85 50 ff ff ff d8 	movl   $0xc630b9d8,-0xb0(%rbp)
    8881:	b9 30 c6 
    8884:	c7 85 54 ff ff ff f8 	movl   $0xfffffff8,-0xac(%rbp)
    888b:	ff ff ff 
    888e:	c7 85 58 ff ff ff f8 	movl   $0xfffffff8,-0xa8(%rbp)
    8895:	ff ff ff 
    8898:	c7 85 5c ff ff ff f8 	movl   $0xfffffff8,-0xa4(%rbp)
    889f:	ff ff ff 
    88a2:	c7 85 60 ff ff ff 01 	movl   $0x1,-0xa0(%rbp)
    88a9:	00 00 00 
    88ac:	c7 85 64 ff ff ff 00 	movl   $0x0,-0x9c(%rbp)
    88b3:	00 00 00 
    88b6:	c7 85 68 ff ff ff d8 	movl   $0xc630b9d8,-0x98(%rbp)
    88bd:	b9 30 c6 
    88c0:	c7 85 6c ff ff ff 01 	movl   $0x1,-0x94(%rbp)
    88c7:	00 00 00 
    88ca:	c7 85 70 ff ff ff d8 	movl   $0xc630b9d8,-0x90(%rbp)
    88d1:	b9 30 c6 
    88d4:	c7 85 74 ff ff ff 99 	movl   $0x831a8599,-0x8c(%rbp)
    88db:	85 1a 83 
    88de:	c7 85 78 ff ff ff f8 	movl   $0xfffffff8,-0x88(%rbp)
    88e5:	ff ff ff 
    88e8:	c7 85 7c ff ff ff 00 	movl   $0x0,-0x84(%rbp)
    88ef:	00 00 00 
    88f2:	c7 85 20 fe ff ff fc 	movl   $0xfffffffc,-0x1e0(%rbp)
    88f9:	ff ff ff 
    88fc:	c7 85 24 fe ff ff 6d 	movl   $0x80cfdd6d,-0x1dc(%rbp)
    8903:	dd cf 80 
    8906:	c7 85 28 fe ff ff ea 	movl   $0x50fcc7ea,-0x1d8(%rbp)
    890d:	c7 fc 50 
    8910:	c7 85 2c fe ff ff 01 	movl   $0x1,-0x1d4(%rbp)
    8917:	00 00 00 
    891a:	c7 85 30 fe ff ff 01 	movl   $0x1,-0x1d0(%rbp)
    8921:	00 00 00 
    8924:	c7 85 34 fe ff ff ea 	movl   $0x50fcc7ea,-0x1cc(%rbp)
    892b:	c7 fc 50 
    892e:	c7 85 38 fe ff ff 6d 	movl   $0x80cfdd6d,-0x1c8(%rbp)
    8935:	dd cf 80 
    8938:	c7 85 3c fe ff ff fc 	movl   $0xfffffffc,-0x1c4(%rbp)
    893f:	ff ff ff 
    8942:	c7 85 40 fe ff ff 6d 	movl   $0x80cfdd6d,-0x1c0(%rbp)
    8949:	dd cf 80 
    894c:	c7 85 44 fe ff ff ea 	movl   $0x50fcc7ea,-0x1bc(%rbp)
    8953:	c7 fc 50 
    8956:	c7 85 48 fe ff ff f9 	movl   $0xfffffff9,-0x1b8(%rbp)
    895d:	ff ff ff 
    8960:	c7 85 4c fe ff ff a8 	movl   $0x26319aa8,-0x1b4(%rbp)
    8967:	9a 31 26 
    896a:	c7 85 50 fe ff ff 01 	movl   $0x1,-0x1b0(%rbp)
    8971:	00 00 00 
    8974:	c7 85 54 fe ff ff a8 	movl   $0x26319aa8,-0x1ac(%rbp)
    897b:	9a 31 26 
    897e:	c7 85 58 fe ff ff f9 	movl   $0xfffffff9,-0x1a8(%rbp)
    8985:	ff ff ff 
    8988:	c7 85 5c fe ff ff ea 	movl   $0x50fcc7ea,-0x1a4(%rbp)
    898f:	c7 fc 50 
    8992:	c7 85 60 fe ff ff ea 	movl   $0x50fcc7ea,-0x1a0(%rbp)
    8999:	c7 fc 50 
    899c:	c7 85 64 fe ff ff f9 	movl   $0xfffffff9,-0x19c(%rbp)
    89a3:	ff ff ff 
    89a6:	c7 85 68 fe ff ff a8 	movl   $0x26319aa8,-0x198(%rbp)
    89ad:	9a 31 26 
    89b0:	c7 85 6c fe ff ff 01 	movl   $0x1,-0x194(%rbp)
    89b7:	00 00 00 
    89ba:	c7 85 70 fe ff ff fc 	movl   $0xfffffffc,-0x190(%rbp)
    89c1:	ff ff ff 
    89c4:	c7 85 74 fe ff ff fc 	movl   $0xfffffffc,-0x18c(%rbp)
    89cb:	ff ff ff 
    89ce:	c7 85 78 fe ff ff 01 	movl   $0x1,-0x188(%rbp)
    89d5:	00 00 00 
    89d8:	c7 85 7c fe ff ff f9 	movl   $0xfffffff9,-0x184(%rbp)
    89df:	ff ff ff 
    89e2:	c7 85 80 fe ff ff 96 	movl   $0x151f4696,-0x180(%rbp)
    89e9:	46 1f 15 
    89ec:	c7 85 84 fe ff ff f9 	movl   $0xfffffff9,-0x17c(%rbp)
    89f3:	ff ff ff 
    89f6:	c7 85 88 fe ff ff 01 	movl   $0x1,-0x178(%rbp)
    89fd:	00 00 00 
    8a00:	c7 85 8c fe ff ff fc 	movl   $0xfffffffc,-0x174(%rbp)
    8a07:	ff ff ff 
    8a0a:	c7 85 90 fe ff ff fc 	movl   $0xfffffffc,-0x170(%rbp)
    8a11:	ff ff ff 
    8a14:	c7 85 94 fe ff ff 01 	movl   $0x1,-0x16c(%rbp)
    8a1b:	00 00 00 
    8a1e:	c7 85 98 fe ff ff a8 	movl   $0x26319aa8,-0x168(%rbp)
    8a25:	9a 31 26 
    8a28:	c7 85 9c fe ff ff f9 	movl   $0xfffffff9,-0x164(%rbp)
    8a2f:	ff ff ff 
    8a32:	c7 85 a0 fe ff ff ea 	movl   $0x50fcc7ea,-0x160(%rbp)
    8a39:	c7 fc 50 
    8a3c:	c7 85 a4 fe ff ff ea 	movl   $0x50fcc7ea,-0x15c(%rbp)
    8a43:	c7 fc 50 
    8a46:	c7 85 a8 fe ff ff f9 	movl   $0xfffffff9,-0x158(%rbp)
    8a4d:	ff ff ff 
    8a50:	c7 85 ac fe ff ff a8 	movl   $0x26319aa8,-0x154(%rbp)
    8a57:	9a 31 26 
    8a5a:	c7 85 b0 fe ff ff 01 	movl   $0x1,-0x150(%rbp)
    8a61:	00 00 00 
    8a64:	c7 85 b4 fe ff ff a8 	movl   $0x26319aa8,-0x14c(%rbp)
    8a6b:	9a 31 26 
    8a6e:	c7 85 b8 fe ff ff f9 	movl   $0xfffffff9,-0x148(%rbp)
    8a75:	ff ff ff 
    8a78:	c7 85 bc fe ff ff ea 	movl   $0x50fcc7ea,-0x144(%rbp)
    8a7f:	c7 fc 50 
    8a82:	c7 85 84 fc ff ff 0b 	movl   $0xf719170b,-0x37c(%rbp)
    8a89:	17 19 f7 
    8a8c:	c7 85 80 fc ff ff 01 	movl   $0x1,-0x380(%rbp)
    8a93:	00 00 00 
    8a96:	48 8d 05 33 f3 00 00 	lea    0xf333(%rip),%rax        # 17dd0 <g_614>
    8a9d:	48 89 85 90 fd ff ff 	mov    %rax,-0x270(%rbp)
    8aa4:	48 8d 05 25 f3 00 00 	lea    0xf325(%rip),%rax        # 17dd0 <g_614>
    8aab:	48 89 85 98 fd ff ff 	mov    %rax,-0x268(%rbp)
    8ab2:	48 8d 05 17 f3 00 00 	lea    0xf317(%rip),%rax        # 17dd0 <g_614>
    8ab9:	48 89 85 a0 fd ff ff 	mov    %rax,-0x260(%rbp)
    8ac0:	48 8d 05 09 f3 00 00 	lea    0xf309(%rip),%rax        # 17dd0 <g_614>
    8ac7:	48 89 85 a8 fd ff ff 	mov    %rax,-0x258(%rbp)
    8ace:	48 8d 05 fb f2 00 00 	lea    0xf2fb(%rip),%rax        # 17dd0 <g_614>
    8ad5:	48 89 85 b0 fd ff ff 	mov    %rax,-0x250(%rbp)
    8adc:	48 8d 05 ed f2 00 00 	lea    0xf2ed(%rip),%rax        # 17dd0 <g_614>
    8ae3:	48 89 85 b8 fd ff ff 	mov    %rax,-0x248(%rbp)
    8aea:	48 8d 05 df f2 00 00 	lea    0xf2df(%rip),%rax        # 17dd0 <g_614>
    8af1:	48 89 85 c0 fd ff ff 	mov    %rax,-0x240(%rbp)
    8af8:	48 8d 05 d1 f2 00 00 	lea    0xf2d1(%rip),%rax        # 17dd0 <g_614>
    8aff:	48 89 85 c8 fd ff ff 	mov    %rax,-0x238(%rbp)
    8b06:	48 b8 63 63 a9 e1 67 	movabs $0x63a9e167e1a96363,%rax
    8b0d:	e1 a9 63 
    8b10:	48 89 85 70 fd ff ff 	mov    %rax,-0x290(%rbp)
    8b17:	66 c7 85 78 fd ff ff 	movw   $0xa963,-0x288(%rbp)
    8b1e:	63 a9 
    8b20:	48 b8 60 e1 fb fb e1 	movabs $0x60a960e1fbfbe160,%rax
    8b27:	60 a9 60 
    8b2a:	48 89 85 7a fd ff ff 	mov    %rax,-0x286(%rbp)
    8b31:	66 c7 85 82 fd ff ff 	movw   $0xfbe1,-0x27e(%rbp)
    8b38:	e1 fb 
    8b3a:	c7 85 88 fc ff ff 0b 	movl   $0x11d7510b,-0x378(%rbp)
    8b41:	51 d7 11 
    8b44:	c6 05 a5 d5 00 00 00 	movb   $0x0,0xd5a5(%rip)        # 160f0 <g_153>
    8b4b:	e9 53 01 00 00       	jmpq   8ca3 <func_26+0x612>
    8b50:	48 8d 05 99 d6 00 00 	lea    0xd699(%rip),%rax        # 161f0 <g_1577>
    8b57:	48 89 85 08 fd ff ff 	mov    %rax,-0x2f8(%rbp)
    8b5e:	c7 85 90 fc ff ff 98 	movl   $0xfd940b98,-0x370(%rbp)
    8b65:	0b 94 fd 
    8b68:	c7 85 e0 fc ff ff 71 	movl   $0x25c95d71,-0x320(%rbp)
    8b6f:	5d c9 25 
    8b72:	48 8d 05 87 f1 00 00 	lea    0xf187(%rip),%rax        # 17d00 <g_247>
    8b79:	48 89 85 10 fd ff ff 	mov    %rax,-0x2f0(%rbp)
    8b80:	48 c7 85 e8 fc ff ff 	movq   $0x0,-0x318(%rbp)
    8b87:	00 00 00 00 
    8b8b:	48 8d 85 e8 fc ff ff 	lea    -0x318(%rbp),%rax
    8b92:	48 89 85 18 fd ff ff 	mov    %rax,-0x2e8(%rbp)
    8b99:	c7 85 94 fc ff ff 69 	movl   $0xa4beda69,-0x36c(%rbp)
    8ba0:	da be a4 
    8ba3:	c7 85 98 fc ff ff fc 	movl   $0x331e50fc,-0x368(%rbp)
    8baa:	50 1e 33 
    8bad:	c7 85 9c fc ff ff 00 	movl   $0x0,-0x364(%rbp)
    8bb4:	00 00 00 
    8bb7:	48 8d 85 e0 fc ff ff 	lea    -0x320(%rbp),%rax
    8bbe:	48 89 85 d0 fd ff ff 	mov    %rax,-0x230(%rbp)
    8bc5:	48 8d 85 e0 fc ff ff 	lea    -0x320(%rbp),%rax
    8bcc:	48 89 85 d8 fd ff ff 	mov    %rax,-0x228(%rbp)
    8bd3:	48 8d 85 e0 fc ff ff 	lea    -0x320(%rbp),%rax
    8bda:	48 89 85 e0 fd ff ff 	mov    %rax,-0x220(%rbp)
    8be1:	48 8d 85 e0 fc ff ff 	lea    -0x320(%rbp),%rax
    8be8:	48 89 85 e8 fd ff ff 	mov    %rax,-0x218(%rbp)
    8bef:	48 8d 85 e0 fc ff ff 	lea    -0x320(%rbp),%rax
    8bf6:	48 89 85 f0 fd ff ff 	mov    %rax,-0x210(%rbp)
    8bfd:	48 8d 85 e0 fc ff ff 	lea    -0x320(%rbp),%rax
    8c04:	48 89 85 f8 fd ff ff 	mov    %rax,-0x208(%rbp)
    8c0b:	48 8d 85 e0 fc ff ff 	lea    -0x320(%rbp),%rax
    8c12:	48 89 85 00 fe ff ff 	mov    %rax,-0x200(%rbp)
    8c19:	48 8d 85 e0 fc ff ff 	lea    -0x320(%rbp),%rax
    8c20:	48 89 85 08 fe ff ff 	mov    %rax,-0x1f8(%rbp)
    8c27:	48 8d 85 e0 fc ff ff 	lea    -0x320(%rbp),%rax
    8c2e:	48 89 85 10 fe ff ff 	mov    %rax,-0x1f0(%rbp)
    8c35:	c7 85 8c fc ff ff 00 	movl   $0x0,-0x374(%rbp)
    8c3c:	00 00 00 
    8c3f:	eb 21                	jmp    8c62 <func_26+0x5d1>
    8c41:	8b 85 8c fc ff ff    	mov    -0x374(%rbp),%eax
    8c47:	48 98                	cltq   
    8c49:	48 b9 0e ab ed 66 a1 	movabs $0xc1f36ea166edab0e,%rcx
    8c50:	6e f3 c1 
    8c53:	48 89 8c c5 60 fd ff 	mov    %rcx,-0x2a0(%rbp,%rax,8)
    8c5a:	ff 
    8c5b:	83 85 8c fc ff ff 01 	addl   $0x1,-0x374(%rbp)
    8c62:	83 bd 8c fc ff ff 01 	cmpl   $0x1,-0x374(%rbp)
    8c69:	7e d6                	jle    8c41 <func_26+0x5b0>
    8c6b:	0f b7 85 68 fc ff ff 	movzwl -0x398(%rbp),%eax
    8c72:	66 85 c0             	test   %ax,%ax
    8c75:	75 3d                	jne    8cb4 <func_26+0x623>
    8c77:	48 8b 05 5a f1 00 00 	mov    0xf15a(%rip),%rax        # 17dd8 <g_613>
    8c7e:	48 8b 00             	mov    (%rax),%rax
    8c81:	66 c7 00 a7 27       	movw   $0x27a7,(%rax)
    8c86:	48 8b 05 13 f3 00 00 	mov    0xf313(%rip),%rax        # 17fa0 <g_1450>
    8c8d:	c7 00 01 00 00 00    	movl   $0x1,(%rax)
    8c93:	0f b6 05 56 d4 00 00 	movzbl 0xd456(%rip),%eax        # 160f0 <g_153>
    8c9a:	83 c0 01             	add    $0x1,%eax
    8c9d:	88 05 4d d4 00 00    	mov    %al,0xd44d(%rip)        # 160f0 <g_153>
    8ca3:	0f b6 05 46 d4 00 00 	movzbl 0xd446(%rip),%eax        # 160f0 <g_153>
    8caa:	3c 03                	cmp    $0x3,%al
    8cac:	0f 86 9e fe ff ff    	jbe    8b50 <func_26+0x4bf>
    8cb2:	eb 01                	jmp    8cb5 <func_26+0x624>
    8cb4:	90                   	nop
    8cb5:	c7 05 35 d4 00 00 00 	movl   $0x0,0xd435(%rip)        # 160f4 <g_159>
    8cbc:	00 00 00 
    8cbf:	e9 fd 04 00 00       	jmpq   91c1 <func_26+0xb30>
    8cc4:	c7 85 a0 fc ff ff 00 	movl   $0x0,-0x360(%rbp)
    8ccb:	00 00 00 
    8cce:	48 8d 05 fb f0 00 00 	lea    0xf0fb(%rip),%rax        # 17dd0 <g_614>
    8cd5:	48 89 85 20 fd ff ff 	mov    %rax,-0x2e0(%rbp)
    8cdc:	48 8d 05 05 f1 00 00 	lea    0xf105(%rip),%rax        # 17de8 <g_722>
    8ce3:	48 89 85 28 fd ff ff 	mov    %rax,-0x2d8(%rbp)
    8cea:	48 8d 05 07 f9 00 00 	lea    0xf907(%rip),%rax        # 185f8 <g_1386>
    8cf1:	48 89 85 c0 fc ff ff 	mov    %rax,-0x340(%rbp)
    8cf8:	48 8d 85 c0 fc ff ff 	lea    -0x340(%rbp),%rax
    8cff:	48 89 85 30 fd ff ff 	mov    %rax,-0x2d0(%rbp)
    8d06:	c7 85 84 fc ff ff 03 	movl   $0x3,-0x37c(%rbp)
    8d0d:	00 00 00 
    8d10:	e9 90 04 00 00       	jmpq   91a5 <func_26+0xb14>
    8d15:	48 8d 85 80 fc ff ff 	lea    -0x380(%rbp),%rax
    8d1c:	48 89 85 c8 fc ff ff 	mov    %rax,-0x338(%rbp)
    8d23:	48 8d 85 80 fc ff ff 	lea    -0x380(%rbp),%rax
    8d2a:	48 89 85 d0 fc ff ff 	mov    %rax,-0x330(%rbp)
    8d31:	48 8d 05 3c d4 00 00 	lea    0xd43c(%rip),%rax        # 16174 <g_1259>
    8d38:	48 89 85 38 fd ff ff 	mov    %rax,-0x2c8(%rbp)
    8d3f:	48 8d 05 2e d4 00 00 	lea    0xd42e(%rip),%rax        # 16174 <g_1259>
    8d46:	48 89 85 d8 fc ff ff 	mov    %rax,-0x328(%rbp)
    8d4d:	48 8d 85 c0 fe ff ff 	lea    -0x140(%rbp),%rax
    8d54:	48 83 c0 38          	add    $0x38,%rax
    8d58:	48 89 85 e0 fc ff ff 	mov    %rax,-0x320(%rbp)
    8d5f:	48 8d 05 0e d4 00 00 	lea    0xd40e(%rip),%rax        # 16174 <g_1259>
    8d66:	48 89 85 e8 fc ff ff 	mov    %rax,-0x318(%rbp)
    8d6d:	48 8d 05 74 d3 00 00 	lea    0xd374(%rip),%rax        # 160e8 <g_135>
    8d74:	48 89 85 40 fd ff ff 	mov    %rax,-0x2c0(%rbp)
    8d7b:	48 8d 85 c0 fe ff ff 	lea    -0x140(%rbp),%rax
    8d82:	48 05 88 00 00 00    	add    $0x88,%rax
    8d88:	48 89 85 d0 fd ff ff 	mov    %rax,-0x230(%rbp)
    8d8f:	48 8d 85 c0 fe ff ff 	lea    -0x140(%rbp),%rax
    8d96:	48 83 c0 40          	add    $0x40,%rax
    8d9a:	48 89 85 d8 fd ff ff 	mov    %rax,-0x228(%rbp)
    8da1:	48 8d 85 c0 fe ff ff 	lea    -0x140(%rbp),%rax
    8da8:	48 05 88 00 00 00    	add    $0x88,%rax
    8dae:	48 89 85 e0 fd ff ff 	mov    %rax,-0x220(%rbp)
    8db5:	48 8d 85 c0 fe ff ff 	lea    -0x140(%rbp),%rax
    8dbc:	48 05 88 00 00 00    	add    $0x88,%rax
    8dc2:	48 89 85 e8 fd ff ff 	mov    %rax,-0x218(%rbp)
    8dc9:	48 8d 85 c0 fe ff ff 	lea    -0x140(%rbp),%rax
    8dd0:	48 83 c0 40          	add    $0x40,%rax
    8dd4:	48 89 85 f0 fd ff ff 	mov    %rax,-0x210(%rbp)
    8ddb:	48 8d 85 c0 fe ff ff 	lea    -0x140(%rbp),%rax
    8de2:	48 05 88 00 00 00    	add    $0x88,%rax
    8de8:	48 89 85 f8 fd ff ff 	mov    %rax,-0x208(%rbp)
    8def:	48 8d 85 c0 fe ff ff 	lea    -0x140(%rbp),%rax
    8df6:	48 05 88 00 00 00    	add    $0x88,%rax
    8dfc:	48 89 85 00 fe ff ff 	mov    %rax,-0x200(%rbp)
    8e03:	48 8d 85 c0 fe ff ff 	lea    -0x140(%rbp),%rax
    8e0a:	48 83 c0 40          	add    $0x40,%rax
    8e0e:	48 89 85 08 fe ff ff 	mov    %rax,-0x1f8(%rbp)
    8e15:	48 8d 05 58 d3 00 00 	lea    0xd358(%rip),%rax        # 16174 <g_1259>
    8e1c:	48 89 85 10 fe ff ff 	mov    %rax,-0x1f0(%rbp)
    8e23:	48 8d 05 4a d3 00 00 	lea    0xd34a(%rip),%rax        # 16174 <g_1259>
    8e2a:	48 89 85 18 fe ff ff 	mov    %rax,-0x1e8(%rbp)
    8e31:	c6 85 7e fc ff ff 06 	movb   $0x6,-0x382(%rbp)
    8e38:	c7 85 a4 fc ff ff 11 	movl   $0x314bb611,-0x35c(%rbp)
    8e3f:	b6 4b 31 
    8e42:	48 8d 05 2b d3 00 00 	lea    0xd32b(%rip),%rax        # 16174 <g_1259>
    8e49:	48 89 85 48 fd ff ff 	mov    %rax,-0x2b8(%rbp)
    8e50:	48 c7 85 50 fd ff ff 	movq   $0x0,-0x2b0(%rbp)
    8e57:	00 00 00 00 
    8e5b:	48 b8 95 1d dd 3d 69 	movabs $0xdb038d693ddd1d95,%rax
    8e62:	8d 03 db 
    8e65:	48 89 85 58 fd ff ff 	mov    %rax,-0x2a8(%rbp)
    8e6c:	c7 05 72 d2 00 00 06 	movl   $0x6,0xd272(%rip)        # 160e8 <g_135>
    8e73:	00 00 00 
    8e76:	90                   	nop
    8e77:	8b 05 6b d2 00 00    	mov    0xd26b(%rip),%eax        # 160e8 <g_135>
    8e7d:	85 c0                	test   %eax,%eax
    8e7f:	7e 20                	jle    8ea1 <func_26+0x810>
    8e81:	8b 85 84 fc ff ff    	mov    -0x37c(%rbp),%eax
    8e87:	48 98                	cltq   
    8e89:	48 8d 14 c5 00 00 00 	lea    0x0(,%rax,8),%rdx
    8e90:	00 
    8e91:	48 8d 05 e8 d2 00 00 	lea    0xd2e8(%rip),%rax        # 16180 <g_1310>
    8e98:	48 8b 04 02          	mov    (%rdx,%rax,1),%rax
    8e9c:	e9 37 03 00 00       	jmpq   91d8 <func_26+0xb47>
    8ea1:	83 ad a4 fc ff ff 01 	subl   $0x1,-0x35c(%rbp)
    8ea8:	c7 85 a8 fc ff ff 14 	movl   $0xe0c7e514,-0x358(%rbp)
    8eaf:	e5 c7 e0 
    8eb2:	c7 85 ac fc ff ff ab 	movl   $0xacc24bab,-0x354(%rbp)
    8eb9:	4b c2 ac 
    8ebc:	c7 85 b0 fc ff ff 79 	movl   $0xbcf3d779,-0x350(%rbp)
    8ec3:	d7 f3 bc 
    8ec6:	c7 85 b4 fc ff ff 7d 	movl   $0x45c1d27d,-0x34c(%rbp)
    8ecd:	d2 c1 45 
    8ed0:	c7 05 0e d2 00 00 01 	movl   $0x1,0xd20e(%rip)        # 160e8 <g_135>
    8ed7:	00 00 00 
    8eda:	e9 01 01 00 00       	jmpq   8fe0 <func_26+0x94f>
    8edf:	c6 85 7f fc ff ff 5b 	movb   $0x5b,-0x381(%rbp)
    8ee6:	8b 85 a8 fc ff ff    	mov    -0x358(%rbp),%eax
    8eec:	89 c7                	mov    %eax,%edi
    8eee:	e8 b3 df ff ff       	callq  6ea6 <safe_unary_minus_func_uint32_t_u>
    8ef3:	48 8b 85 d0 fc ff ff 	mov    -0x330(%rbp),%rax
    8efa:	8b 18                	mov    (%rax),%ebx
    8efc:	48 8d 05 e5 ee 00 00 	lea    0xeee5(%rip),%rax        # 17de8 <g_722>
    8f03:	48 39 85 28 fd ff ff 	cmp    %rax,-0x2d8(%rbp)
    8f0a:	0f 94 c0             	sete   %al
    8f0d:	44 0f b6 e0          	movzbl %al,%r12d
    8f11:	8b 85 a8 fc ff ff    	mov    -0x358(%rbp),%eax
    8f17:	0f b7 c0             	movzwl %ax,%eax
    8f1a:	48 8b 95 50 fd ff ff 	mov    -0x2b0(%rbp),%rdx
    8f21:	48 89 95 30 fd ff ff 	mov    %rdx,-0x2d0(%rbp)
    8f28:	89 c6                	mov    %eax,%esi
    8f2a:	bf 00 00 00 00       	mov    $0x0,%edi
    8f2f:	e8 eb dd ff ff       	callq  6d1f <safe_sub_func_uint16_t_u_u>
    8f34:	48 8b 85 40 fd ff ff 	mov    -0x2c0(%rbp),%rax
    8f3b:	8b 00                	mov    (%rax),%eax
    8f3d:	0f b7 c0             	movzwl %ax,%eax
    8f40:	be b4 55 00 00       	mov    $0x55b4,%esi
    8f45:	89 c7                	mov    %eax,%edi
    8f47:	e8 d3 dd ff ff       	callq  6d1f <safe_sub_func_uint16_t_u_u>
    8f4c:	66 85 c0             	test   %ax,%ax
    8f4f:	75 09                	jne    8f5a <func_26+0x8c9>
    8f51:	83 bd 60 fc ff ff 00 	cmpl   $0x0,-0x3a0(%rbp)
    8f58:	74 07                	je     8f61 <func_26+0x8d0>
    8f5a:	b8 01 00 00 00       	mov    $0x1,%eax
    8f5f:	eb 05                	jmp    8f66 <func_26+0x8d5>
    8f61:	b8 00 00 00 00       	mov    $0x0,%eax
    8f66:	44 39 e0             	cmp    %r12d,%eax
    8f69:	0f 9e c0             	setle  %al
    8f6c:	0f b6 c0             	movzbl %al,%eax
    8f6f:	21 c3                	and    %eax,%ebx
    8f71:	89 da                	mov    %ebx,%edx
    8f73:	48 8b 85 e0 fc ff ff 	mov    -0x320(%rbp),%rax
    8f7a:	8b 00                	mov    (%rax),%eax
    8f7c:	39 c2                	cmp    %eax,%edx
    8f7e:	0f b7 05 7d d1 00 00 	movzwl 0xd17d(%rip),%eax        # 16102 <g_163+0x2>
    8f85:	0f b7 c0             	movzwl %ax,%eax
    8f88:	39 85 ac fc ff ff    	cmp    %eax,-0x354(%rbp)
    8f8e:	73 0c                	jae    8f9c <func_26+0x90b>
    8f90:	66 83 bd 6c fc ff ff 	cmpw   $0x0,-0x394(%rbp)
    8f97:	00 
    8f98:	74 1c                	je     8fb6 <func_26+0x925>
    8f9a:	eb 52                	jmp    8fee <func_26+0x95d>
    8f9c:	48 8b 85 d8 fc ff ff 	mov    -0x328(%rbp),%rax
    8fa3:	c7 00 01 00 00 00    	movl   $0x1,(%rax)
    8fa9:	48 8b 85 d0 fc ff ff 	mov    -0x330(%rbp),%rax
    8fb0:	c7 00 fd 88 7f ba    	movl   $0xba7f88fd,(%rax)
    8fb6:	48 8b 85 d8 fc ff ff 	mov    -0x328(%rbp),%rax
    8fbd:	8b 08                	mov    (%rax),%ecx
    8fbf:	0f b7 95 6c fc ff ff 	movzwl -0x394(%rbp),%edx
    8fc6:	48 8b 85 d8 fc ff ff 	mov    -0x328(%rbp),%rax
    8fcd:	09 ca                	or     %ecx,%edx
    8fcf:	89 10                	mov    %edx,(%rax)
    8fd1:	8b 05 11 d1 00 00    	mov    0xd111(%rip),%eax        # 160e8 <g_135>
    8fd7:	83 e8 01             	sub    $0x1,%eax
    8fda:	89 05 08 d1 00 00    	mov    %eax,0xd108(%rip)        # 160e8 <g_135>
    8fe0:	8b 05 02 d1 00 00    	mov    0xd102(%rip),%eax        # 160e8 <g_135>
    8fe6:	85 c0                	test   %eax,%eax
    8fe8:	0f 89 f1 fe ff ff    	jns    8edf <func_26+0x84e>
    8fee:	44 0f b7 a5 6c fc ff 	movzwl -0x394(%rbp),%r12d
    8ff5:	ff 
    8ff6:	44 0f bf ad 64 fc ff 	movswl -0x39c(%rbp),%r13d
    8ffd:	ff 
    8ffe:	8b 85 60 fc ff ff    	mov    -0x3a0(%rbp),%eax
    9004:	44 0f b6 f0          	movzbl %al,%r14d
    9008:	8b 85 a0 fc ff ff    	mov    -0x360(%rbp),%eax
    900e:	0f b6 d0             	movzbl %al,%edx
    9011:	0f b7 85 68 fc ff ff 	movzwl -0x398(%rbp),%eax
    9018:	0f b7 c8             	movzwl %ax,%ecx
    901b:	0f b7 b5 6c fc ff ff 	movzwl -0x394(%rbp),%esi
    9022:	0f b6 05 b9 f5 00 00 	movzbl 0xf5b9(%rip),%eax        # 185e2 <g_431>
    9029:	0f be c0             	movsbl %al,%eax
    902c:	39 c6                	cmp    %eax,%esi
    902e:	0f 9f c0             	setg   %al
    9031:	0f b6 c0             	movzbl %al,%eax
    9034:	21 c8                	and    %ecx,%eax
    9036:	48 63 c8             	movslq %eax,%rcx
    9039:	83 bd a0 fc ff ff 00 	cmpl   $0x0,-0x360(%rbp)
    9040:	78 09                	js     904b <func_26+0x9ba>
    9042:	83 bd 60 fc ff ff 00 	cmpl   $0x0,-0x3a0(%rbp)
    9049:	74 07                	je     9052 <func_26+0x9c1>
    904b:	b8 01 00 00 00       	mov    $0x1,%eax
    9050:	eb 05                	jmp    9057 <func_26+0x9c6>
    9052:	b8 00 00 00 00       	mov    $0x0,%eax
    9057:	48 63 f0             	movslq %eax,%rsi
    905a:	48 8b 05 cf ed 00 00 	mov    0xedcf(%rip),%rax        # 17e30 <g_769>
    9061:	48 8b 00             	mov    (%rax),%rax
    9064:	48 21 f0             	and    %rsi,%rax
    9067:	48 39 c1             	cmp    %rax,%rcx
    906a:	7c 09                	jl     9075 <func_26+0x9e4>
    906c:	83 bd a0 fc ff ff 00 	cmpl   $0x0,-0x360(%rbp)
    9073:	74 07                	je     907c <func_26+0x9eb>
    9075:	b8 01 00 00 00       	mov    $0x1,%eax
    907a:	eb 05                	jmp    9081 <func_26+0x9f0>
    907c:	b8 00 00 00 00       	mov    $0x0,%eax
    9081:	0f b6 c0             	movzbl %al,%eax
    9084:	89 d6                	mov    %edx,%esi
    9086:	89 c7                	mov    %eax,%edi
    9088:	e8 21 db ff ff       	callq  6bae <safe_mod_func_uint8_t_u_u>
    908d:	48 8b 85 28 fd ff ff 	mov    -0x2d8(%rbp),%rax
    9094:	48 8b 18             	mov    (%rax),%rbx
    9097:	44 89 f6             	mov    %r14d,%esi
    909a:	bf 01 00 00 00       	mov    $0x1,%edi
    909f:	e8 d4 da ff ff       	callq  6b78 <safe_sub_func_uint8_t_u_u>
    90a4:	88 03                	mov    %al,(%rbx)
    90a6:	0f b6 03             	movzbl (%rbx),%eax
    90a9:	0f be d8             	movsbl %al,%ebx
    90ac:	be 05 00 00 00       	mov    $0x5,%esi
    90b1:	bf 98 ff ff ff       	mov    $0xffffff98,%edi
    90b6:	e8 b1 d2 ff ff       	callq  636c <safe_rshift_func_int8_t_s_u>
    90bb:	48 0f be c0          	movsbq %al,%rax
    90bf:	48 89 c7             	mov    %rax,%rdi
    90c2:	e8 4f d7 ff ff       	callq  6816 <safe_unary_minus_func_int64_t_s>
    90c7:	0f be c0             	movsbl %al,%eax
    90ca:	89 de                	mov    %ebx,%esi
    90cc:	89 c7                	mov    %eax,%edi
    90ce:	e8 1f d1 ff ff       	callq  61f2 <safe_sub_func_int8_t_s_s>
    90d3:	83 bd a0 fc ff ff 00 	cmpl   $0x0,-0x360(%rbp)
    90da:	b8 1f 3e 00 00       	mov    $0x3e1f,%eax
    90df:	21 85 a8 fc ff ff    	and    %eax,-0x358(%rbp)
    90e5:	8b 85 a8 fc ff ff    	mov    -0x358(%rbp),%eax
    90eb:	89 85 60 fc ff ff    	mov    %eax,-0x3a0(%rbp)
    90f1:	8b 85 60 fc ff ff    	mov    -0x3a0(%rbp),%eax
    90f7:	44 89 ee             	mov    %r13d,%esi
    90fa:	89 c7                	mov    %eax,%edi
    90fc:	e8 fc dd ff ff       	callq  6efd <safe_mod_func_uint32_t_u_u>
    9101:	0f b7 95 68 fc ff ff 	movzwl -0x398(%rbp),%edx
    9108:	0f b7 d2             	movzwl %dx,%edx
    910b:	39 d0                	cmp    %edx,%eax
    910d:	0f 95 c0             	setne  %al
    9110:	0f b6 c0             	movzbl %al,%eax
    9113:	39 85 a0 fc ff ff    	cmp    %eax,-0x360(%rbp)
    9119:	0f 9c c0             	setl   %al
    911c:	0f b6 d0             	movzbl %al,%edx
    911f:	0f bf 85 64 fc ff ff 	movswl -0x39c(%rbp),%eax
    9126:	89 d6                	mov    %edx,%esi
    9128:	89 c7                	mov    %eax,%edi
    912a:	e8 fb d3 ff ff       	callq  652a <safe_rshift_func_int16_t_s_s>
    912f:	98                   	cwtl   
    9130:	09 85 b4 fc ff ff    	or     %eax,-0x34c(%rbp)
    9136:	8b 85 b4 fc ff ff    	mov    -0x34c(%rbp),%eax
    913c:	f7 d0                	not    %eax
    913e:	48 98                	cltq   
    9140:	48 39 85 58 fd ff ff 	cmp    %rax,-0x2a8(%rbp)
    9147:	0f 97 c0             	seta   %al
    914a:	0f b6 c0             	movzbl %al,%eax
    914d:	44 89 e6             	mov    %r12d,%esi
    9150:	89 c7                	mov    %eax,%edi
    9152:	e8 a6 dd ff ff       	callq  6efd <safe_mod_func_uint32_t_u_u>
    9157:	0f bf d0             	movswl %ax,%edx
    915a:	48 8b 05 e7 ef 00 00 	mov    0xefe7(%rip),%rax        # 18148 <g_1873>
    9161:	48 8b 00             	mov    (%rax),%rax
    9164:	48 8b 00             	mov    (%rax),%rax
    9167:	48 85 c0             	test   %rax,%rax
    916a:	0f 95 c0             	setne  %al
    916d:	0f b6 c0             	movzbl %al,%eax
    9170:	89 d6                	mov    %edx,%esi
    9172:	89 c7                	mov    %eax,%edi
    9174:	e8 3a d2 ff ff       	callq  63b3 <safe_add_func_int16_t_s_s>
    9179:	66 33 85 64 fc ff ff 	xor    -0x39c(%rbp),%ax
    9180:	0f bf c8             	movswl %ax,%ecx
    9183:	48 8b 85 e0 fc ff ff 	mov    -0x320(%rbp),%rax
    918a:	8b 10                	mov    (%rax),%edx
    918c:	48 8b 85 e0 fc ff ff 	mov    -0x320(%rbp),%rax
    9193:	31 ca                	xor    %ecx,%edx
    9195:	89 10                	mov    %edx,(%rax)
    9197:	83 85 88 fc ff ff 01 	addl   $0x1,-0x378(%rbp)
    919e:	83 85 84 fc ff ff 01 	addl   $0x1,-0x37c(%rbp)
    91a5:	83 bd 84 fc ff ff 08 	cmpl   $0x8,-0x37c(%rbp)
    91ac:	0f 8e 63 fb ff ff    	jle    8d15 <func_26+0x684>
    91b2:	8b 05 3c cf 00 00    	mov    0xcf3c(%rip),%eax        # 160f4 <g_159>
    91b8:	83 e8 01             	sub    $0x1,%eax
    91bb:	89 05 33 cf 00 00    	mov    %eax,0xcf33(%rip)        # 160f4 <g_159>
    91c1:	8b 05 2d cf 00 00    	mov    0xcf2d(%rip),%eax        # 160f4 <g_159>
    91c7:	83 f8 e8             	cmp    $0xffffffe8,%eax
    91ca:	0f 8c f4 fa ff ff    	jl     8cc4 <func_26+0x633>
    91d0:	8b 05 52 ce 00 00    	mov    0xce52(%rip),%eax        # 16028 <g_3>
    91d6:	48 98                	cltq   
    91d8:	48 8b 5d d8          	mov    -0x28(%rbp),%rbx
    91dc:	64 48 33 1c 25 28 00 	xor    %fs:0x28,%rbx
    91e3:	00 00 
    91e5:	74 05                	je     91ec <func_26+0xb5b>
    91e7:	e8 84 ce ff ff       	callq  6070 <__stack_chk_fail@plt>
    91ec:	48 81 c4 80 03 00 00 	add    $0x380,%rsp
    91f3:	5b                   	pop    %rbx
    91f4:	41 5c                	pop    %r12
    91f6:	41 5d                	pop    %r13
    91f8:	41 5e                	pop    %r14
    91fa:	5d                   	pop    %rbp
    91fb:	c3                   	retq   

00000000000091fc <func_37>:
    91fc:	f3 0f 1e fa          	endbr64 
    9200:	55                   	push   %rbp
    9201:	48 89 e5             	mov    %rsp,%rbp
    9204:	41 57                	push   %r15
    9206:	41 56                	push   %r14
    9208:	41 55                	push   %r13
    920a:	41 54                	push   %r12
    920c:	53                   	push   %rbx
    920d:	48 81 ec 00 10 00 00 	sub    $0x1000,%rsp
    9214:	48 83 0c 24 00       	orq    $0x0,(%rsp)
    9219:	48 81 ec 88 0e 00 00 	sub    $0xe88,%rsp
    9220:	89 f9                	mov    %edi,%ecx
    9222:	48 89 b5 50 e1 ff ff 	mov    %rsi,-0x1eb0(%rbp)
    9229:	89 d0                	mov    %edx,%eax
    922b:	89 ca                	mov    %ecx,%edx
    922d:	88 95 5c e1 ff ff    	mov    %dl,-0x1ea4(%rbp)
    9233:	66 89 85 58 e1 ff ff 	mov    %ax,-0x1ea8(%rbp)
    923a:	64 48 8b 04 25 28 00 	mov    %fs:0x28,%rax
    9241:	00 00 
    9243:	48 89 45 c8          	mov    %rax,-0x38(%rbp)
    9247:	31 c0                	xor    %eax,%eax
    9249:	48 c7 85 68 e2 ff ff 	movq   $0x0,-0x1d98(%rbp)
    9250:	00 00 00 00 
    9254:	c7 85 74 e1 ff ff e1 	movl   $0x47eefce1,-0x1e8c(%rbp)
    925b:	fc ee 47 
    925e:	48 8d 85 70 ed ff ff 	lea    -0x1290(%rbp),%rax
    9265:	48 8d 15 f4 d7 00 00 	lea    0xd7f4(%rip),%rdx        # 16a60 <g_2027+0x844>
    926c:	b9 87 00 00 00       	mov    $0x87,%ecx
    9271:	48 89 c7             	mov    %rax,%rdi
    9274:	48 89 d6             	mov    %rdx,%rsi
    9277:	f3 48 a5             	rep movsq %ds:(%rsi),%es:(%rdi)
    927a:	48 b8 33 be ec 47 87 	movabs $0xa4dc28747ecbe33,%rax
    9281:	c2 4d 0a 
    9284:	48 89 85 70 e2 ff ff 	mov    %rax,-0x1d90(%rbp)
    928b:	c7 85 78 e1 ff ff 60 	movl   $0x5ee1c360,-0x1e88(%rbp)
    9292:	c3 e1 5e 
    9295:	48 c7 85 f0 e2 ff ff 	movq   $0x0,-0x1d10(%rbp)
    929c:	00 00 00 00 
    92a0:	48 8d 85 20 ea ff ff 	lea    -0x15e0(%rbp),%rax
    92a7:	48 8d 15 b2 8d 00 00 	lea    0x8db2(%rip),%rdx        # 12060 <g_1119+0xc>
    92ae:	b9 69 00 00 00       	mov    $0x69,%ecx
    92b3:	48 89 c7             	mov    %rax,%rdi
    92b6:	48 89 d6             	mov    %rdx,%rsi
    92b9:	f3 48 a5             	rep movsq %ds:(%rsi),%es:(%rdi)
    92bc:	48 c7 85 78 e2 ff ff 	movq   $0x0,-0x1d88(%rbp)
    92c3:	00 00 00 00 
    92c7:	48 8d 85 78 e2 ff ff 	lea    -0x1d88(%rbp),%rax
    92ce:	48 89 85 f8 e2 ff ff 	mov    %rax,-0x1d08(%rbp)
    92d5:	48 8d 05 18 ce 00 00 	lea    0xce18(%rip),%rax        # 160f4 <g_159>
    92dc:	48 89 85 00 e3 ff ff 	mov    %rax,-0x1d00(%rbp)
    92e3:	48 8d 05 fe e9 00 00 	lea    0xe9fe(%rip),%rax        # 17ce8 <g_134+0x8>
    92ea:	48 89 85 08 e3 ff ff 	mov    %rax,-0x1cf8(%rbp)
    92f1:	48 8d 05 d8 f2 00 00 	lea    0xf2d8(%rip),%rax        # 185d0 <g_243>
    92f8:	48 89 85 10 e3 ff ff 	mov    %rax,-0x1cf0(%rbp)
    92ff:	c6 85 64 e1 ff ff f8 	movb   $0xf8,-0x1e9c(%rbp)
    9306:	48 c7 85 18 e3 ff ff 	movq   $0xfffffffffffffff6,-0x1ce8(%rbp)
    930d:	f6 ff ff ff 
    9311:	c7 85 50 e7 ff ff a7 	movl   $0xa74d4da7,-0x18b0(%rbp)
    9318:	4d 4d a7 
    931b:	c6 85 54 e7 ff ff 01 	movb   $0x1,-0x18ac(%rbp)
    9322:	c7 85 55 e7 ff ff f7 	movl   $0xf7ffa7f7,-0x18ab(%rbp)
    9329:	a7 ff f7 
    932c:	c6 85 59 e7 ff ff 01 	movb   $0x1,-0x18a7(%rbp)
    9333:	c7 85 5a e7 ff ff f7 	movl   $0xff01fff7,-0x18a6(%rbp)
    933a:	ff 01 ff 
    933d:	c6 85 5e e7 ff ff f7 	movb   $0xf7,-0x18a2(%rbp)
    9344:	c7 85 5f e7 ff ff a7 	movl   $0xf755faa7,-0x18a1(%rbp)
    934b:	fa 55 f7 
    934e:	c6 85 63 e7 ff ff 4d 	movb   $0x4d,-0x189d(%rbp)
    9355:	c7 85 64 e7 ff ff 55 	movl   $0xa7a7fa55,-0x189c(%rbp)
    935c:	fa a7 a7 
    935f:	c6 85 68 e7 ff ff fa 	movb   $0xfa,-0x1898(%rbp)
    9366:	c7 85 69 e7 ff ff 01 	movl   $0xfaf7ff01,-0x1897(%rbp)
    936d:	ff f7 fa 
    9370:	c6 85 6d e7 ff ff 4d 	movb   $0x4d,-0x1893(%rbp)
    9377:	c7 85 6e e7 ff ff ff 	movl   $0x7df7a7ff,-0x1892(%rbp)
    937e:	a7 f7 7d 
    9381:	c6 85 72 e7 ff ff f7 	movb   $0xf7,-0x188e(%rbp)
    9388:	c7 85 73 e7 ff ff 4d 	movl   $0x1a74d4d,-0x188d(%rbp)
    938f:	4d a7 01 
    9392:	c6 85 77 e7 ff ff 01 	movb   $0x1,-0x1889(%rbp)
    9399:	c7 85 78 e7 ff ff ff 	movl   $0x15501ff,-0x1888(%rbp)
    93a0:	01 55 01 
    93a3:	c6 85 7c e7 ff ff 01 	movb   $0x1,-0x1884(%rbp)
    93aa:	c7 85 7d e7 ff ff 01 	movl   $0x7d01ff01,-0x1883(%rbp)
    93b1:	ff 01 7d 
    93b4:	c6 85 81 e7 ff ff f7 	movb   $0xf7,-0x187f(%rbp)
    93bb:	c7 85 82 e7 ff ff 55 	movl   $0xfaff0155,-0x187e(%rbp)
    93c2:	01 ff fa 
    93c5:	c6 85 86 e7 ff ff f7 	movb   $0xf7,-0x187a(%rbp)
    93cc:	c7 85 87 e7 ff ff a7 	movl   $0xa74d4da7,-0x1879(%rbp)
    93d3:	4d 4d a7 
    93d6:	c6 85 8b e7 ff ff 01 	movb   $0x1,-0x1875(%rbp)
    93dd:	c7 85 8c e7 ff ff f7 	movl   $0xf7ffa7f7,-0x1874(%rbp)
    93e4:	a7 ff f7 
    93e7:	c6 85 90 e7 ff ff 01 	movb   $0x1,-0x1870(%rbp)
    93ee:	c7 85 91 e7 ff ff f7 	movl   $0xff01fff7,-0x186f(%rbp)
    93f5:	ff 01 ff 
    93f8:	c6 85 95 e7 ff ff f7 	movb   $0xf7,-0x186b(%rbp)
    93ff:	c7 85 96 e7 ff ff a7 	movl   $0xf755faa7,-0x186a(%rbp)
    9406:	fa 55 f7 
    9409:	c6 85 9a e7 ff ff 4d 	movb   $0x4d,-0x1866(%rbp)
    9410:	c7 85 9b e7 ff ff 55 	movl   $0xa7a7fa55,-0x1865(%rbp)
    9417:	fa a7 a7 
    941a:	c6 85 9f e7 ff ff fa 	movb   $0xfa,-0x1861(%rbp)
    9421:	c7 85 a0 e7 ff ff 01 	movl   $0xfaf7ff01,-0x1860(%rbp)
    9428:	ff f7 fa 
    942b:	c6 85 a4 e7 ff ff 4d 	movb   $0x4d,-0x185c(%rbp)
    9432:	c7 85 a5 e7 ff ff ff 	movl   $0x7df7a7ff,-0x185b(%rbp)
    9439:	a7 f7 7d 
    943c:	c6 85 a9 e7 ff ff f7 	movb   $0xf7,-0x1857(%rbp)
    9443:	c7 85 aa e7 ff ff 4d 	movl   $0x1a74d4d,-0x1856(%rbp)
    944a:	4d a7 01 
    944d:	c6 85 ae e7 ff ff 01 	movb   $0x1,-0x1852(%rbp)
    9454:	c7 85 af e7 ff ff ff 	movl   $0x15501ff,-0x1851(%rbp)
    945b:	01 55 01 
    945e:	c6 85 b3 e7 ff ff 01 	movb   $0x1,-0x184d(%rbp)
    9465:	c7 85 b4 e7 ff ff 01 	movl   $0x7d01ff01,-0x184c(%rbp)
    946c:	ff 01 7d 
    946f:	c6 85 b8 e7 ff ff f7 	movb   $0xf7,-0x1848(%rbp)
    9476:	c7 85 b9 e7 ff ff 55 	movl   $0xfaff0155,-0x1847(%rbp)
    947d:	01 ff fa 
    9480:	c6 85 bd e7 ff ff f7 	movb   $0xf7,-0x1843(%rbp)
    9487:	c7 85 be e7 ff ff a7 	movl   $0xa74d4da7,-0x1842(%rbp)
    948e:	4d 4d a7 
    9491:	c6 85 c2 e7 ff ff 01 	movb   $0x1,-0x183e(%rbp)
    9498:	c7 85 c3 e7 ff ff f7 	movl   $0xf7ffa7f7,-0x183d(%rbp)
    949f:	a7 ff f7 
    94a2:	c6 85 c7 e7 ff ff 01 	movb   $0x1,-0x1839(%rbp)
    94a9:	48 c7 85 20 e3 ff ff 	movq   $0x0,-0x1ce0(%rbp)
    94b0:	00 00 00 00 
    94b4:	c7 85 e0 e1 ff ff 6b 	movl   $0xd100e6b,-0x1e20(%rbp)
    94bb:	0e 10 0d 
    94be:	c7 85 94 e1 ff ff 00 	movl   $0x0,-0x1e6c(%rbp)
    94c5:	00 00 00 
    94c8:	eb 4c                	jmp    9516 <func_37+0x31a>
    94ca:	c7 85 98 e1 ff ff 00 	movl   $0x0,-0x1e68(%rbp)
    94d1:	00 00 00 
    94d4:	eb 30                	jmp    9506 <func_37+0x30a>
    94d6:	8b 85 98 e1 ff ff    	mov    -0x1e68(%rbp),%eax
    94dc:	48 63 c8             	movslq %eax,%rcx
    94df:	8b 85 94 e1 ff ff    	mov    -0x1e6c(%rbp),%eax
    94e5:	48 63 d0             	movslq %eax,%rdx
    94e8:	48 89 d0             	mov    %rdx,%rax
    94eb:	48 c1 e0 02          	shl    $0x2,%rax
    94ef:	48 01 d0             	add    %rdx,%rax
    94f2:	48 01 c8             	add    %rcx,%rax
    94f5:	66 c7 84 45 60 e6 ff 	movw   $0x44e7,-0x19a0(%rbp,%rax,2)
    94fc:	ff e7 44 
    94ff:	83 85 98 e1 ff ff 01 	addl   $0x1,-0x1e68(%rbp)
    9506:	83 bd 98 e1 ff ff 04 	cmpl   $0x4,-0x1e68(%rbp)
    950d:	7e c7                	jle    94d6 <func_37+0x2da>
    950f:	83 85 94 e1 ff ff 01 	addl   $0x1,-0x1e6c(%rbp)
    9516:	83 bd 94 e1 ff ff 06 	cmpl   $0x6,-0x1e6c(%rbp)
    951d:	7e ab                	jle    94ca <func_37+0x2ce>
    951f:	90                   	nop
    9520:	f3 0f 1e fa          	endbr64 
    9524:	c6 05 2d cc 00 00 15 	movb   $0x15,0xcc2d(%rip)        # 16158 <g_205>
    952b:	e9 80 38 00 00       	jmpq   cdb0 <func_37+0x3bb4>
    9530:	48 8d 05 99 cb 00 00 	lea    0xcb99(%rip),%rax        # 160d0 <g_91>
    9537:	48 89 85 20 e6 ff ff 	mov    %rax,-0x19e0(%rbp)
    953e:	48 8d 05 8b cb 00 00 	lea    0xcb8b(%rip),%rax        # 160d0 <g_91>
    9545:	48 89 85 28 e6 ff ff 	mov    %rax,-0x19d8(%rbp)
    954c:	48 8d 05 7d cb 00 00 	lea    0xcb7d(%rip),%rax        # 160d0 <g_91>
    9553:	48 89 85 30 e6 ff ff 	mov    %rax,-0x19d0(%rbp)
    955a:	48 8d 05 6f cb 00 00 	lea    0xcb6f(%rip),%rax        # 160d0 <g_91>
    9561:	48 89 85 38 e6 ff ff 	mov    %rax,-0x19c8(%rbp)
    9568:	48 8d 05 61 cb 00 00 	lea    0xcb61(%rip),%rax        # 160d0 <g_91>
    956f:	48 89 85 40 e6 ff ff 	mov    %rax,-0x19c0(%rbp)
    9576:	48 8d 05 53 cb 00 00 	lea    0xcb53(%rip),%rax        # 160d0 <g_91>
    957d:	48 89 85 48 e6 ff ff 	mov    %rax,-0x19b8(%rbp)
    9584:	48 8d 05 45 cb 00 00 	lea    0xcb45(%rip),%rax        # 160d0 <g_91>
    958b:	48 89 85 50 e6 ff ff 	mov    %rax,-0x19b0(%rbp)
    9592:	48 8d 05 37 cb 00 00 	lea    0xcb37(%rip),%rax        # 160d0 <g_91>
    9599:	48 89 85 58 e6 ff ff 	mov    %rax,-0x19a8(%rbp)
    95a0:	48 8d 05 49 f0 00 00 	lea    0xf049(%rip),%rax        # 185f0 <g_1118>
    95a7:	48 89 85 10 e4 ff ff 	mov    %rax,-0x1bf0(%rbp)
    95ae:	c7 85 7c e1 ff ff 8c 	movl   $0x7f69198c,-0x1e84(%rbp)
    95b5:	19 69 7f 
    95b8:	66 c7 85 70 e1 ff ff 	movw   $0xc7ad,-0x1e90(%rbp)
    95bf:	ad c7 
    95c1:	48 b8 9e 95 9e 95 9e 	movabs $0x959e959e959e959e,%rax
    95c8:	95 9e 95 
    95cb:	48 89 85 b0 e6 ff ff 	mov    %rax,-0x1950(%rbp)
    95d2:	66 c7 85 b8 e6 ff ff 	movw   $0x959e,-0x1948(%rbp)
    95d9:	9e 95 
    95db:	48 89 85 ba e6 ff ff 	mov    %rax,-0x1946(%rbp)
    95e2:	66 c7 85 c2 e6 ff ff 	movw   $0x959e,-0x193e(%rbp)
    95e9:	9e 95 
    95eb:	48 89 85 c4 e6 ff ff 	mov    %rax,-0x193c(%rbp)
    95f2:	66 c7 85 cc e6 ff ff 	movw   $0x959e,-0x1934(%rbp)
    95f9:	9e 95 
    95fb:	48 89 85 ce e6 ff ff 	mov    %rax,-0x1932(%rbp)
    9602:	66 c7 85 d6 e6 ff ff 	movw   $0x959e,-0x192a(%rbp)
    9609:	9e 95 
    960b:	48 89 85 d8 e6 ff ff 	mov    %rax,-0x1928(%rbp)
    9612:	66 c7 85 e0 e6 ff ff 	movw   $0x959e,-0x1920(%rbp)
    9619:	9e 95 
    961b:	48 89 85 e2 e6 ff ff 	mov    %rax,-0x191e(%rbp)
    9622:	66 c7 85 ea e6 ff ff 	movw   $0x959e,-0x1916(%rbp)
    9629:	9e 95 
    962b:	48 89 85 ec e6 ff ff 	mov    %rax,-0x1914(%rbp)
    9632:	66 c7 85 f4 e6 ff ff 	movw   $0x959e,-0x190c(%rbp)
    9639:	9e 95 
    963b:	48 89 85 f6 e6 ff ff 	mov    %rax,-0x190a(%rbp)
    9642:	66 c7 85 fe e6 ff ff 	movw   $0x959e,-0x1902(%rbp)
    9649:	9e 95 
    964b:	48 c7 85 18 e4 ff ff 	movq   $0x0,-0x1be8(%rbp)
    9652:	00 00 00 00 
    9656:	c7 85 90 e1 ff ff 4d 	movl   $0x2f35f34d,-0x1e70(%rbp)
    965d:	f3 35 2f 
    9660:	c7 85 88 e1 ff ff 3f 	movl   $0x9ceb783f,-0x1e78(%rbp)
    9667:	78 eb 9c 
    966a:	48 c7 85 20 e4 ff ff 	movq   $0x1,-0x1be0(%rbp)
    9671:	01 00 00 00 
    9675:	48 c7 85 28 e4 ff ff 	movq   $0x0,-0x1bd8(%rbp)
    967c:	00 00 00 00 
    9680:	48 8d 05 59 e6 00 00 	lea    0xe659(%rip),%rax        # 17ce0 <g_134>
    9687:	48 89 85 30 e4 ff ff 	mov    %rax,-0x1bd0(%rbp)
    968e:	c7 85 8c e1 ff ff 00 	movl   $0x0,-0x1e74(%rbp)
    9695:	00 00 00 
    9698:	eb 1a                	jmp    96b4 <func_37+0x4b8>
    969a:	8b 85 8c e1 ff ff    	mov    -0x1e74(%rbp),%eax
    96a0:	48 98                	cltq   
    96a2:	c7 84 85 74 e5 ff ff 	movl   $0xa5b24c35,-0x1a8c(%rbp,%rax,4)
    96a9:	35 4c b2 a5 
    96ad:	83 85 8c e1 ff ff 01 	addl   $0x1,-0x1e74(%rbp)
    96b4:	83 bd 8c e1 ff ff 02 	cmpl   $0x2,-0x1e74(%rbp)
    96bb:	7e dd                	jle    969a <func_37+0x49e>
    96bd:	8b 85 74 e1 ff ff    	mov    -0x1e8c(%rbp),%eax
    96c3:	89 c1                	mov    %eax,%ecx
    96c5:	48 8b 05 04 ca 00 00 	mov    0xca04(%rip),%rax        # 160d0 <g_91>
    96cc:	48 83 e8 01          	sub    $0x1,%rax
    96d0:	48 89 05 f9 c9 00 00 	mov    %rax,0xc9f9(%rip)        # 160d0 <g_91>
    96d7:	48 8b 15 f2 c9 00 00 	mov    0xc9f2(%rip),%rdx        # 160d0 <g_91>
    96de:	48 c7 05 f7 c9 00 00 	movq   $0x3,0xc9f7(%rip)        # 160e0 <g_127>
    96e5:	03 00 00 00 
    96e9:	48 8b 05 f0 c9 00 00 	mov    0xc9f0(%rip),%rax        # 160e0 <g_127>
    96f0:	48 39 c2             	cmp    %rax,%rdx
    96f3:	0f 95 c0             	setne  %al
    96f6:	0f b6 d0             	movzbl %al,%edx
    96f9:	48 8b 85 68 e2 ff ff 	mov    -0x1d98(%rbp),%rax
    9700:	48 39 85 10 e4 ff ff 	cmp    %rax,-0x1bf0(%rbp)
    9707:	0f 95 c0             	setne  %al
    970a:	0f b6 c0             	movzbl %al,%eax
    970d:	39 c2                	cmp    %eax,%edx
    970f:	0f 9f c0             	setg   %al
    9712:	0f b6 c0             	movzbl %al,%eax
    9715:	89 ce                	mov    %ecx,%esi
    9717:	89 c7                	mov    %eax,%edi
    9719:	e8 b2 d7 ff ff       	callq  6ed0 <safe_sub_func_uint32_t_u_u>
    971e:	89 85 7c e1 ff ff    	mov    %eax,-0x1e84(%rbp)
    9724:	8b 85 7c e1 ff ff    	mov    -0x1e84(%rbp),%eax
    972a:	85 c0                	test   %eax,%eax
    972c:	0f 84 80 01 00 00    	je     98b2 <func_37+0x6b6>
    9732:	48 8d 85 74 e1 ff ff 	lea    -0x1e8c(%rbp),%rax
    9739:	48 89 85 60 e5 ff ff 	mov    %rax,-0x1aa0(%rbp)
    9740:	c7 85 84 e1 ff ff 00 	movl   $0x0,-0x1e7c(%rbp)
    9747:	00 00 00 
    974a:	eb 1b                	jmp    9767 <func_37+0x56b>
    974c:	8b 85 84 e1 ff ff    	mov    -0x1e7c(%rbp),%eax
    9752:	48 98                	cltq   
    9754:	48 c7 84 c5 f0 f7 ff 	movq   $0x0,-0x810(%rbp,%rax,8)
    975b:	ff 00 00 00 00 
    9760:	83 85 84 e1 ff ff 01 	addl   $0x1,-0x1e7c(%rbp)
    9767:	83 bd 84 e1 ff ff 05 	cmpl   $0x5,-0x1e7c(%rbp)
    976e:	7e dc                	jle    974c <func_37+0x550>
    9770:	0f b6 85 f4 e6 ff ff 	movzbl -0x190c(%rbp),%eax
    9777:	0f be d8             	movsbl %al,%ebx
    977a:	48 8b 05 b7 e6 00 00 	mov    0xe6b7(%rip),%rax        # 17e38 <g_768>
    9781:	48 8b 00             	mov    (%rax),%rax
    9784:	48 8b 00             	mov    (%rax),%rax
    9787:	48 85 c0             	test   %rax,%rax
    978a:	0f 95 c0             	setne  %al
    978d:	0f b6 c0             	movzbl %al,%eax
    9790:	89 c7                	mov    %eax,%edi
    9792:	e8 ff cd ff ff       	callq  6596 <safe_unary_minus_func_int32_t_s>
    9797:	85 c0                	test   %eax,%eax
    9799:	0f 94 c0             	sete   %al
    979c:	0f b6 d0             	movzbl %al,%edx
    979f:	8b 85 74 e1 ff ff    	mov    -0x1e8c(%rbp),%eax
    97a5:	39 c2                	cmp    %eax,%edx
    97a7:	0f 9c c0             	setl   %al
    97aa:	0f b6 d0             	movzbl %al,%edx
    97ad:	48 8b 05 5c e5 00 00 	mov    0xe55c(%rip),%rax        # 17d10 <g_288>
    97b4:	0f b7 00             	movzwl (%rax),%eax
    97b7:	98                   	cwtl   
    97b8:	39 c2                	cmp    %eax,%edx
    97ba:	7f 07                	jg     97c3 <func_37+0x5c7>
    97bc:	b8 01 00 00 00       	mov    $0x1,%eax
    97c1:	eb 05                	jmp    97c8 <func_37+0x5cc>
    97c3:	b8 00 00 00 00       	mov    $0x0,%eax
    97c8:	0f be c0             	movsbl %al,%eax
    97cb:	89 de                	mov    %ebx,%esi
    97cd:	89 c7                	mov    %eax,%edi
    97cf:	e8 00 ca ff ff       	callq  61d4 <safe_add_func_int8_t_s_s>
    97d4:	3c 08                	cmp    $0x8,%al
    97d6:	0f 95 c0             	setne  %al
    97d9:	0f b6 c0             	movzbl %al,%eax
    97dc:	be 00 00 00 00       	mov    $0x0,%esi
    97e1:	89 c7                	mov    %eax,%edi
    97e3:	e8 4d cb ff ff       	callq  6335 <safe_rshift_func_int8_t_s_s>
    97e8:	89 c2                	mov    %eax,%edx
    97ea:	48 8b 05 1f e5 00 00 	mov    0xe51f(%rip),%rax        # 17d10 <g_288>
    97f1:	66 0f be d2          	movsbw %dl,%dx
    97f5:	66 89 10             	mov    %dx,(%rax)
    97f8:	48 8b 85 50 e1 ff ff 	mov    -0x1eb0(%rbp),%rax
    97ff:	66 0d dd e3          	or     $0xe3dd,%ax
    9803:	f7 d0                	not    %eax
    9805:	89 c2                	mov    %eax,%edx
    9807:	0f b7 85 58 e1 ff ff 	movzwl -0x1ea8(%rbp),%eax
    980e:	21 d0                	and    %edx,%eax
    9810:	0f b7 c0             	movzwl %ax,%eax
    9813:	be ff ff 00 00       	mov    $0xffff,%esi
    9818:	89 c7                	mov    %eax,%edi
    981a:	e8 3d d5 ff ff       	callq  6d5c <safe_mod_func_uint16_t_u_u>
    981f:	89 c2                	mov    %eax,%edx
    9821:	0f b7 85 58 e1 ff ff 	movzwl -0x1ea8(%rbp),%eax
    9828:	09 d0                	or     %edx,%eax
    982a:	0f b6 c0             	movzbl %al,%eax
    982d:	89 c6                	mov    %eax,%esi
    982f:	bf c2 00 00 00       	mov    $0xc2,%edi
    9834:	e8 a2 d3 ff ff       	callq  6bdb <safe_div_func_uint8_t_u_u>
    9839:	48 8b 85 08 f8 ff ff 	mov    -0x7f8(%rbp),%rax
    9840:	48 85 c0             	test   %rax,%rax
    9843:	0f 95 c0             	setne  %al
    9846:	0f b6 c0             	movzbl %al,%eax
    9849:	66 89 85 70 e1 ff ff 	mov    %ax,-0x1e90(%rbp)
    9850:	66 83 bd 70 e1 ff ff 	cmpw   $0xffff,-0x1e90(%rbp)
    9857:	ff 
    9858:	0f 94 c2             	sete   %dl
    985b:	48 8b 05 0e e6 00 00 	mov    0xe60e(%rip),%rax        # 17e70 <g_900>
    9862:	0f b6 d2             	movzbl %dl,%edx
    9865:	89 10                	mov    %edx,(%rax)
    9867:	48 8b 05 7a e5 00 00 	mov    0xe57a(%rip),%rax        # 17de8 <g_722>
    986e:	0f b6 00             	movzbl (%rax),%eax
    9871:	0f b6 c0             	movzbl %al,%eax
    9874:	be 00 00 00 00       	mov    $0x0,%esi
    9879:	89 c7                	mov    %eax,%edi
    987b:	e8 da d2 ff ff       	callq  6b5a <safe_add_func_uint8_t_u_u>
    9880:	0f b6 d0             	movzbl %al,%edx
    9883:	48 8b 85 60 e5 ff ff 	mov    -0x1aa0(%rbp),%rax
    988a:	89 10                	mov    %edx,(%rax)
    988c:	0f b7 85 58 e1 ff ff 	movzwl -0x1ea8(%rbp),%eax
    9893:	66 85 c0             	test   %ax,%ax
    9896:	0f 85 03 35 00 00    	jne    cd9f <func_37+0x3ba3>
    989c:	48 8b 05 cd e5 00 00 	mov    0xe5cd(%rip),%rax        # 17e70 <g_900>
    98a3:	8b 00                	mov    (%rax),%eax
    98a5:	85 c0                	test   %eax,%eax
    98a7:	0f 84 de 32 00 00    	je     cb8b <func_37+0x398f>
    98ad:	e9 ee 34 00 00       	jmpq   cda0 <func_37+0x3ba4>
    98b2:	48 8d 05 57 e4 00 00 	lea    0xe457(%rip),%rax        # 17d10 <g_288>
    98b9:	48 89 85 80 e2 ff ff 	mov    %rax,-0x1d80(%rbp)
    98c0:	48 c7 85 88 e2 ff ff 	movq   $0x0,-0x1d78(%rbp)
    98c7:	00 00 00 00 
    98cb:	48 8d 85 80 e2 ff ff 	lea    -0x1d80(%rbp),%rax
    98d2:	48 89 85 00 e7 ff ff 	mov    %rax,-0x1900(%rbp)
    98d9:	48 8d 85 80 e2 ff ff 	lea    -0x1d80(%rbp),%rax
    98e0:	48 89 85 08 e7 ff ff 	mov    %rax,-0x18f8(%rbp)
    98e7:	48 8d 85 80 e2 ff ff 	lea    -0x1d80(%rbp),%rax
    98ee:	48 89 85 10 e7 ff ff 	mov    %rax,-0x18f0(%rbp)
    98f5:	48 8d 85 80 e2 ff ff 	lea    -0x1d80(%rbp),%rax
    98fc:	48 89 85 18 e7 ff ff 	mov    %rax,-0x18e8(%rbp)
    9903:	48 8d 85 80 e2 ff ff 	lea    -0x1d80(%rbp),%rax
    990a:	48 89 85 20 e7 ff ff 	mov    %rax,-0x18e0(%rbp)
    9911:	48 8d 85 80 e2 ff ff 	lea    -0x1d80(%rbp),%rax
    9918:	48 89 85 28 e7 ff ff 	mov    %rax,-0x18d8(%rbp)
    991f:	48 8d 85 80 e2 ff ff 	lea    -0x1d80(%rbp),%rax
    9926:	48 89 85 30 e7 ff ff 	mov    %rax,-0x18d0(%rbp)
    992d:	48 8d 85 80 e2 ff ff 	lea    -0x1d80(%rbp),%rax
    9934:	48 89 85 38 e7 ff ff 	mov    %rax,-0x18c8(%rbp)
    993b:	48 8d 85 80 e2 ff ff 	lea    -0x1d80(%rbp),%rax
    9942:	48 89 85 40 e7 ff ff 	mov    %rax,-0x18c0(%rbp)
    9949:	48 8d 85 80 e2 ff ff 	lea    -0x1d80(%rbp),%rax
    9950:	48 89 85 48 e7 ff ff 	mov    %rax,-0x18b8(%rbp)
    9957:	48 c7 85 90 e2 ff ff 	movq   $0x0,-0x1d70(%rbp)
    995e:	00 00 00 00 
    9962:	48 8d 05 1f c8 00 00 	lea    0xc81f(%rip),%rax        # 16188 <g_1310+0x8>
    9969:	48 89 85 98 e2 ff ff 	mov    %rax,-0x1d68(%rbp)
    9970:	c7 85 44 e2 ff ff 06 	movl   $0x6,-0x1dbc(%rbp)
    9977:	00 00 00 
    997a:	48 8d 05 67 c7 00 00 	lea    0xc767(%rip),%rax        # 160e8 <g_135>
    9981:	48 89 85 a0 e2 ff ff 	mov    %rax,-0x1d60(%rbp)
    9988:	48 c7 85 a8 e2 ff ff 	movq   $0x0,-0x1d58(%rbp)
    998f:	00 00 00 00 
    9993:	48 8d 85 a8 e2 ff ff 	lea    -0x1d58(%rbp),%rax
    999a:	48 89 85 38 e4 ff ff 	mov    %rax,-0x1bc8(%rbp)
    99a1:	48 8d 05 90 e4 00 00 	lea    0xe490(%rip),%rax        # 17e38 <g_768>
    99a8:	48 89 85 b0 e2 ff ff 	mov    %rax,-0x1d50(%rbp)
    99af:	c6 85 63 e1 ff ff ed 	movb   $0xed,-0x1e9d(%rbp)
    99b6:	48 c7 85 b8 e2 ff ff 	movq   $0x0,-0x1d48(%rbp)
    99bd:	00 00 00 00 
    99c1:	48 8d 85 b8 e2 ff ff 	lea    -0x1d48(%rbp),%rax
    99c8:	48 89 85 40 e4 ff ff 	mov    %rax,-0x1bc0(%rbp)
    99cf:	48 b8 f8 dd 01 ce 13 	movabs $0xa3a20913ce01ddf8,%rax
    99d6:	09 a2 a3 
    99d9:	48 89 85 48 e4 ff ff 	mov    %rax,-0x1bb8(%rbp)
    99e0:	48 c7 85 50 e4 ff ff 	movq   $0x0,-0x1bb0(%rbp)
    99e7:	00 00 00 00 
    99eb:	48 8d 05 56 e4 00 00 	lea    0xe456(%rip),%rax        # 17e48 <g_766+0x8>
    99f2:	48 89 85 58 e4 ff ff 	mov    %rax,-0x1ba8(%rbp)
    99f9:	48 c7 85 60 e4 ff ff 	movq   $0x0,-0x1ba0(%rbp)
    9a00:	00 00 00 00 
    9a04:	48 8d 85 e0 e8 ff ff 	lea    -0x1720(%rbp),%rax
    9a0b:	48 8d 15 ae 89 00 00 	lea    0x89ae(%rip),%rdx        # 123c0 <g_1119+0x36c>
    9a12:	b9 28 00 00 00       	mov    $0x28,%ecx
    9a17:	48 89 c7             	mov    %rax,%rdi
    9a1a:	48 89 d6             	mov    %rdx,%rsi
    9a1d:	f3 48 a5             	rep movsq %ds:(%rsi),%es:(%rdi)
    9a20:	c7 85 9c e1 ff ff 00 	movl   $0x0,-0x1e64(%rbp)
    9a27:	00 00 00 
    9a2a:	eb 1e                	jmp    9a4a <func_37+0x84e>
    9a2c:	8b 85 9c e1 ff ff    	mov    -0x1e64(%rbp),%eax
    9a32:	48 98                	cltq   
    9a34:	48 8d 15 21 c7 00 00 	lea    0xc721(%rip),%rdx        # 1615c <g_234>
    9a3b:	48 89 94 c5 80 e5 ff 	mov    %rdx,-0x1a80(%rbp,%rax,8)
    9a42:	ff 
    9a43:	83 85 9c e1 ff ff 01 	addl   $0x1,-0x1e64(%rbp)
    9a4a:	83 bd 9c e1 ff ff 01 	cmpl   $0x1,-0x1e64(%rbp)
    9a51:	7e d9                	jle    9a2c <func_37+0x830>
    9a53:	c7 85 9c e1 ff ff 00 	movl   $0x0,-0x1e64(%rbp)
    9a5a:	00 00 00 
    9a5d:	eb 1a                	jmp    9a79 <func_37+0x87d>
    9a5f:	8b 85 9c e1 ff ff    	mov    -0x1e64(%rbp),%eax
    9a65:	48 98                	cltq   
    9a67:	c7 84 85 90 e5 ff ff 	movl   $0xe468f321,-0x1a70(%rbp,%rax,4)
    9a6e:	21 f3 68 e4 
    9a72:	83 85 9c e1 ff ff 01 	addl   $0x1,-0x1e64(%rbp)
    9a79:	83 bd 9c e1 ff ff 05 	cmpl   $0x5,-0x1e64(%rbp)
    9a80:	7e dd                	jle    9a5f <func_37+0x863>
    9a82:	c7 85 9c e1 ff ff 00 	movl   $0x0,-0x1e64(%rbp)
    9a89:	00 00 00 
    9a8c:	eb 71                	jmp    9aff <func_37+0x903>
    9a8e:	c7 85 a0 e1 ff ff 00 	movl   $0x0,-0x1e60(%rbp)
    9a95:	00 00 00 
    9a98:	eb 55                	jmp    9aef <func_37+0x8f3>
    9a9a:	c7 85 a4 e1 ff ff 00 	movl   $0x0,-0x1e5c(%rbp)
    9aa1:	00 00 00 
    9aa4:	eb 39                	jmp    9adf <func_37+0x8e3>
    9aa6:	8b 85 a4 e1 ff ff    	mov    -0x1e5c(%rbp),%eax
    9aac:	48 98                	cltq   
    9aae:	8b 95 9c e1 ff ff    	mov    -0x1e64(%rbp),%edx
    9ab4:	48 63 ca             	movslq %edx,%rcx
    9ab7:	8b 95 a0 e1 ff ff    	mov    -0x1e60(%rbp),%edx
    9abd:	48 63 d2             	movslq %edx,%rdx
    9ac0:	48 01 c9             	add    %rcx,%rcx
    9ac3:	48 01 ca             	add    %rcx,%rdx
    9ac6:	48 c1 e2 03          	shl    $0x3,%rdx
    9aca:	48 01 d0             	add    %rdx,%rax
    9acd:	c7 84 85 d0 e7 ff ff 	movl   $0x501829f6,-0x1830(%rbp,%rax,4)
    9ad4:	f6 29 18 50 
    9ad8:	83 85 a4 e1 ff ff 01 	addl   $0x1,-0x1e5c(%rbp)
    9adf:	83 bd a4 e1 ff ff 07 	cmpl   $0x7,-0x1e5c(%rbp)
    9ae6:	7e be                	jle    9aa6 <func_37+0x8aa>
    9ae8:	83 85 a0 e1 ff ff 01 	addl   $0x1,-0x1e60(%rbp)
    9aef:	83 bd a0 e1 ff ff 01 	cmpl   $0x1,-0x1e60(%rbp)
    9af6:	7e a2                	jle    9a9a <func_37+0x89e>
    9af8:	83 85 9c e1 ff ff 01 	addl   $0x1,-0x1e64(%rbp)
    9aff:	83 bd 9c e1 ff ff 01 	cmpl   $0x1,-0x1e64(%rbp)
    9b06:	7e 86                	jle    9a8e <func_37+0x892>
    9b08:	48 8b 05 69 e4 00 00 	mov    0xe469(%rip),%rax        # 17f78 <g_1117>
    9b0f:	48 8b 10             	mov    (%rax),%rdx
    9b12:	48 8b 85 80 e5 ff ff 	mov    -0x1a80(%rbp),%rax
    9b19:	48 39 c2             	cmp    %rax,%rdx
    9b1c:	0f b6 9d 5c e1 ff ff 	movzbl -0x1ea4(%rbp),%ebx
    9b23:	48 8b 85 80 e2 ff ff 	mov    -0x1d80(%rbp),%rax
    9b2a:	48 89 05 5f e4 00 00 	mov    %rax,0xe45f(%rip)        # 17f90 <g_1307+0x10>
    9b31:	48 8b 05 58 e4 00 00 	mov    0xe458(%rip),%rax        # 17f90 <g_1307+0x10>
    9b38:	48 85 c0             	test   %rax,%rax
    9b3b:	0f 94 c2             	sete   %dl
    9b3e:	48 8b 05 a3 e2 00 00 	mov    0xe2a3(%rip),%rax        # 17de8 <g_722>
    9b45:	88 10                	mov    %dl,(%rax)
    9b47:	0f b6 00             	movzbl (%rax),%eax
    9b4a:	0f b6 c0             	movzbl %al,%eax
    9b4d:	be 03 00 00 00       	mov    $0x3,%esi
    9b52:	89 c7                	mov    %eax,%edi
    9b54:	e8 65 d1 ff ff       	callq  6cbe <safe_rshift_func_uint8_t_u_u>
    9b59:	ba 01 00 00 00       	mov    $0x1,%edx
    9b5e:	48 8d 05 d3 e2 00 00 	lea    0xe2d3(%rip),%rax        # 17e38 <g_768>
    9b65:	48 8b 00             	mov    (%rax),%rax
    9b68:	48 8b 00             	mov    (%rax),%rax
    9b6b:	48 8b 08             	mov    (%rax),%rcx
    9b6e:	48 63 d2             	movslq %edx,%rdx
    9b71:	48 8d 05 c0 e2 00 00 	lea    0xe2c0(%rip),%rax        # 17e38 <g_768>
    9b78:	48 8b 00             	mov    (%rax),%rax
    9b7b:	48 8b 00             	mov    (%rax),%rax
    9b7e:	48 21 ca             	and    %rcx,%rdx
    9b81:	48 89 10             	mov    %rdx,(%rax)
    9b84:	48 8b 00             	mov    (%rax),%rax
    9b87:	48 89 c6             	mov    %rax,%rsi
    9b8a:	48 bf 57 10 7e ec 74 	movabs $0x6672f974ec7e1057,%rdi
    9b91:	f9 72 66 
    9b94:	e8 5e ce ff ff       	callq  69f7 <safe_div_func_int64_t_s_s>
    9b99:	48 89 c2             	mov    %rax,%rdx
    9b9c:	48 8b 85 98 e2 ff ff 	mov    -0x1d68(%rbp),%rax
    9ba3:	48 8b 08             	mov    (%rax),%rcx
    9ba6:	48 8b 85 98 e2 ff ff 	mov    -0x1d68(%rbp),%rax
    9bad:	48 21 ca             	and    %rcx,%rdx
    9bb0:	48 89 10             	mov    %rdx,(%rax)
    9bb3:	48 8b 00             	mov    (%rax),%rax
    9bb6:	be 00 00 00 00       	mov    $0x0,%esi
    9bbb:	48 89 c7             	mov    %rax,%rdi
    9bbe:	e8 e5 cc ff ff       	callq  68a8 <safe_sub_func_int64_t_s_s>
    9bc3:	be 3b d0 ff ff       	mov    $0xffffd03b,%esi
    9bc8:	bf 01 00 00 00       	mov    $0x1,%edi
    9bcd:	e8 01 c8 ff ff       	callq  63d3 <safe_sub_func_int16_t_s_s>
    9bd2:	0f b6 85 5c e1 ff ff 	movzbl -0x1ea4(%rbp),%eax
    9bd9:	89 de                	mov    %ebx,%esi
    9bdb:	89 c7                	mov    %eax,%edi
    9bdd:	e8 d6 d2 ff ff       	callq  6eb8 <safe_add_func_uint32_t_u_u>
    9be2:	98                   	cwtl   
    9be3:	be 16 ae ff ff       	mov    $0xffffae16,%esi
    9be8:	89 c7                	mov    %eax,%edi
    9bea:	e8 06 c8 ff ff       	callq  63f5 <safe_mul_func_int16_t_s_s>
    9bef:	66 85 c0             	test   %ax,%ax
    9bf2:	74 15                	je     9c09 <func_37+0xa0d>
    9bf4:	48 8b 05 ed e1 00 00 	mov    0xe1ed(%rip),%rax        # 17de8 <g_722>
    9bfb:	0f b6 00             	movzbl (%rax),%eax
    9bfe:	84 c0                	test   %al,%al
    9c00:	74 07                	je     9c09 <func_37+0xa0d>
    9c02:	b8 01 00 00 00       	mov    $0x1,%eax
    9c07:	eb 05                	jmp    9c0e <func_37+0xa12>
    9c09:	b8 00 00 00 00       	mov    $0x0,%eax
    9c0e:	0f b7 c0             	movzwl %ax,%eax
    9c11:	be 5c 7e 00 00       	mov    $0x7e5c,%esi
    9c16:	89 c7                	mov    %eax,%edi
    9c18:	e8 71 d1 ff ff       	callq  6d8e <safe_div_func_uint16_t_u_u>
    9c1d:	0f b7 85 58 e1 ff ff 	movzwl -0x1ea8(%rbp),%eax
    9c24:	66 83 f8 03          	cmp    $0x3,%ax
    9c28:	0f 94 c2             	sete   %dl
    9c2b:	48 8b 05 3e e2 00 00 	mov    0xe23e(%rip),%rax        # 17e70 <g_900>
    9c32:	0f b6 d2             	movzbl %dl,%edx
    9c35:	89 10                	mov    %edx,(%rax)
    9c37:	8b 00                	mov    (%rax),%eax
    9c39:	85 c0                	test   %eax,%eax
    9c3b:	0f 84 cf 0a 00 00    	je     a710 <func_37+0x1514>
    9c41:	c6 85 c8 e2 ff ff 00 	movb   $0x0,-0x1d38(%rbp)
    9c48:	48 8d 85 80 e2 ff ff 	lea    -0x1d80(%rbp),%rax
    9c4f:	48 89 85 e8 e4 ff ff 	mov    %rax,-0x1b18(%rbp)
    9c56:	48 8d 05 7b e1 00 00 	lea    0xe17b(%rip),%rax        # 17dd8 <g_613>
    9c5d:	48 89 85 d0 e2 ff ff 	mov    %rax,-0x1d30(%rbp)
    9c64:	48 8d 85 d0 e2 ff ff 	lea    -0x1d30(%rbp),%rax
    9c6b:	48 89 85 b0 f1 ff ff 	mov    %rax,-0xe50(%rbp)
    9c72:	48 8d 85 d0 e2 ff ff 	lea    -0x1d30(%rbp),%rax
    9c79:	48 89 85 b8 f1 ff ff 	mov    %rax,-0xe48(%rbp)
    9c80:	48 8d 85 d0 e2 ff ff 	lea    -0x1d30(%rbp),%rax
    9c87:	48 89 85 c0 f1 ff ff 	mov    %rax,-0xe40(%rbp)
    9c8e:	48 8d 85 d0 e2 ff ff 	lea    -0x1d30(%rbp),%rax
    9c95:	48 89 85 c8 f1 ff ff 	mov    %rax,-0xe38(%rbp)
    9c9c:	48 8d 85 d0 e2 ff ff 	lea    -0x1d30(%rbp),%rax
    9ca3:	48 89 85 d0 f1 ff ff 	mov    %rax,-0xe30(%rbp)
    9caa:	48 8d 85 d0 e2 ff ff 	lea    -0x1d30(%rbp),%rax
    9cb1:	48 89 85 d8 f1 ff ff 	mov    %rax,-0xe28(%rbp)
    9cb8:	48 8d 85 d0 e2 ff ff 	lea    -0x1d30(%rbp),%rax
    9cbf:	48 89 85 e0 f1 ff ff 	mov    %rax,-0xe20(%rbp)
    9cc6:	48 8d 85 d0 e2 ff ff 	lea    -0x1d30(%rbp),%rax
    9ccd:	48 89 85 e8 f1 ff ff 	mov    %rax,-0xe18(%rbp)
    9cd4:	48 8d 85 d0 e2 ff ff 	lea    -0x1d30(%rbp),%rax
    9cdb:	48 89 85 f0 f1 ff ff 	mov    %rax,-0xe10(%rbp)
    9ce2:	48 8d 85 d0 e2 ff ff 	lea    -0x1d30(%rbp),%rax
    9ce9:	48 89 85 f8 f1 ff ff 	mov    %rax,-0xe08(%rbp)
    9cf0:	48 8d 85 d0 e2 ff ff 	lea    -0x1d30(%rbp),%rax
    9cf7:	48 89 85 00 f2 ff ff 	mov    %rax,-0xe00(%rbp)
    9cfe:	48 8d 85 d0 e2 ff ff 	lea    -0x1d30(%rbp),%rax
    9d05:	48 89 85 08 f2 ff ff 	mov    %rax,-0xdf8(%rbp)
    9d0c:	48 8d 85 d0 e2 ff ff 	lea    -0x1d30(%rbp),%rax
    9d13:	48 89 85 10 f2 ff ff 	mov    %rax,-0xdf0(%rbp)
    9d1a:	48 8d 85 d0 e2 ff ff 	lea    -0x1d30(%rbp),%rax
    9d21:	48 89 85 18 f2 ff ff 	mov    %rax,-0xde8(%rbp)
    9d28:	48 8d 85 d0 e2 ff ff 	lea    -0x1d30(%rbp),%rax
    9d2f:	48 89 85 20 f2 ff ff 	mov    %rax,-0xde0(%rbp)
    9d36:	48 8d 85 d0 e2 ff ff 	lea    -0x1d30(%rbp),%rax
    9d3d:	48 89 85 28 f2 ff ff 	mov    %rax,-0xdd8(%rbp)
    9d44:	48 8d 85 d0 e2 ff ff 	lea    -0x1d30(%rbp),%rax
    9d4b:	48 89 85 30 f2 ff ff 	mov    %rax,-0xdd0(%rbp)
    9d52:	48 8d 85 d0 e2 ff ff 	lea    -0x1d30(%rbp),%rax
    9d59:	48 89 85 38 f2 ff ff 	mov    %rax,-0xdc8(%rbp)
    9d60:	48 8d 85 d0 e2 ff ff 	lea    -0x1d30(%rbp),%rax
    9d67:	48 89 85 40 f2 ff ff 	mov    %rax,-0xdc0(%rbp)
    9d6e:	48 8d 85 d0 e2 ff ff 	lea    -0x1d30(%rbp),%rax
    9d75:	48 89 85 48 f2 ff ff 	mov    %rax,-0xdb8(%rbp)
    9d7c:	48 8d 85 d0 e2 ff ff 	lea    -0x1d30(%rbp),%rax
    9d83:	48 89 85 50 f2 ff ff 	mov    %rax,-0xdb0(%rbp)
    9d8a:	48 8d 85 d0 e2 ff ff 	lea    -0x1d30(%rbp),%rax
    9d91:	48 89 85 58 f2 ff ff 	mov    %rax,-0xda8(%rbp)
    9d98:	48 8d 85 d0 e2 ff ff 	lea    -0x1d30(%rbp),%rax
    9d9f:	48 89 85 60 f2 ff ff 	mov    %rax,-0xda0(%rbp)
    9da6:	48 8d 85 d0 e2 ff ff 	lea    -0x1d30(%rbp),%rax
    9dad:	48 89 85 68 f2 ff ff 	mov    %rax,-0xd98(%rbp)
    9db4:	48 8d 85 d0 e2 ff ff 	lea    -0x1d30(%rbp),%rax
    9dbb:	48 89 85 70 f2 ff ff 	mov    %rax,-0xd90(%rbp)
    9dc2:	48 8d 85 d0 e2 ff ff 	lea    -0x1d30(%rbp),%rax
    9dc9:	48 89 85 78 f2 ff ff 	mov    %rax,-0xd88(%rbp)
    9dd0:	48 8d 85 d0 e2 ff ff 	lea    -0x1d30(%rbp),%rax
    9dd7:	48 89 85 80 f2 ff ff 	mov    %rax,-0xd80(%rbp)
    9dde:	48 8d 85 d0 e2 ff ff 	lea    -0x1d30(%rbp),%rax
    9de5:	48 89 85 88 f2 ff ff 	mov    %rax,-0xd78(%rbp)
    9dec:	48 8d 85 d0 e2 ff ff 	lea    -0x1d30(%rbp),%rax
    9df3:	48 89 85 90 f2 ff ff 	mov    %rax,-0xd70(%rbp)
    9dfa:	48 8d 85 d0 e2 ff ff 	lea    -0x1d30(%rbp),%rax
    9e01:	48 89 85 98 f2 ff ff 	mov    %rax,-0xd68(%rbp)
    9e08:	48 8d 85 d0 e2 ff ff 	lea    -0x1d30(%rbp),%rax
    9e0f:	48 89 85 a0 f2 ff ff 	mov    %rax,-0xd60(%rbp)
    9e16:	48 8d 85 d0 e2 ff ff 	lea    -0x1d30(%rbp),%rax
    9e1d:	48 89 85 a8 f2 ff ff 	mov    %rax,-0xd58(%rbp)
    9e24:	48 8d 85 d0 e2 ff ff 	lea    -0x1d30(%rbp),%rax
    9e2b:	48 89 85 b0 f2 ff ff 	mov    %rax,-0xd50(%rbp)
    9e32:	48 8d 85 d0 e2 ff ff 	lea    -0x1d30(%rbp),%rax
    9e39:	48 89 85 b8 f2 ff ff 	mov    %rax,-0xd48(%rbp)
    9e40:	48 8d 85 d0 e2 ff ff 	lea    -0x1d30(%rbp),%rax
    9e47:	48 89 85 c0 f2 ff ff 	mov    %rax,-0xd40(%rbp)
    9e4e:	48 8d 85 d0 e2 ff ff 	lea    -0x1d30(%rbp),%rax
    9e55:	48 89 85 c8 f2 ff ff 	mov    %rax,-0xd38(%rbp)
    9e5c:	48 8d 85 d0 e2 ff ff 	lea    -0x1d30(%rbp),%rax
    9e63:	48 89 85 d0 f2 ff ff 	mov    %rax,-0xd30(%rbp)
    9e6a:	48 8d 85 d0 e2 ff ff 	lea    -0x1d30(%rbp),%rax
    9e71:	48 89 85 d8 f2 ff ff 	mov    %rax,-0xd28(%rbp)
    9e78:	48 8d 85 d0 e2 ff ff 	lea    -0x1d30(%rbp),%rax
    9e7f:	48 89 85 e0 f2 ff ff 	mov    %rax,-0xd20(%rbp)
    9e86:	48 8d 85 d0 e2 ff ff 	lea    -0x1d30(%rbp),%rax
    9e8d:	48 89 85 e8 f2 ff ff 	mov    %rax,-0xd18(%rbp)
    9e94:	c7 85 60 e2 ff ff fe 	movl   $0x9564e0fe,-0x1da0(%rbp)
    9e9b:	e0 64 95 
    9e9e:	c6 85 69 e1 ff ff 01 	movb   $0x1,-0x1e97(%rbp)
    9ea5:	c7 85 a8 e1 ff ff 00 	movl   $0x0,-0x1e58(%rbp)
    9eac:	00 00 00 
    9eaf:	eb 1a                	jmp    9ecb <func_37+0xccf>
    9eb1:	8b 85 a8 e1 ff ff    	mov    -0x1e58(%rbp),%eax
    9eb7:	48 98                	cltq   
    9eb9:	c7 84 85 e0 e5 ff ff 	movl   $0xfffffffe,-0x1a20(%rbp,%rax,4)
    9ec0:	fe ff ff ff 
    9ec4:	83 85 a8 e1 ff ff 01 	addl   $0x1,-0x1e58(%rbp)
    9ecb:	83 bd a8 e1 ff ff 00 	cmpl   $0x0,-0x1e58(%rbp)
    9ed2:	7e dd                	jle    9eb1 <func_37+0xcb5>
    9ed4:	48 8b 05 95 df 00 00 	mov    0xdf95(%rip),%rax        # 17e70 <g_900>
    9edb:	8b 10                	mov    (%rax),%edx
    9edd:	48 8b 85 50 e1 ff ff 	mov    -0x1eb0(%rbp),%rax
    9ee4:	89 c1                	mov    %eax,%ecx
    9ee6:	48 8b 05 83 df 00 00 	mov    0xdf83(%rip),%rax        # 17e70 <g_900>
    9eed:	09 ca                	or     %ecx,%edx
    9eef:	89 10                	mov    %edx,(%rax)
    9ef1:	48 8b 85 c8 ee ff ff 	mov    -0x1138(%rbp),%rax
    9ef8:	48 85 c0             	test   %rax,%rax
    9efb:	0f 84 af 00 00 00    	je     9fb0 <func_37+0xdb4>
    9f01:	8b 85 a4 e5 ff ff    	mov    -0x1a5c(%rbp),%eax
    9f07:	0f b6 d8             	movzbl %al,%ebx
    9f0a:	44 8b a5 44 e2 ff ff 	mov    -0x1dbc(%rbp),%r12d
    9f11:	0f b7 85 58 e1 ff ff 	movzwl -0x1ea8(%rbp),%eax
    9f18:	44 0f b7 e8          	movzwl %ax,%r13d
    9f1c:	48 8b 85 50 e1 ff ff 	mov    -0x1eb0(%rbp),%rax
    9f23:	0f bf d0             	movswl %ax,%edx
    9f26:	48 8b 85 10 e4 ff ff 	mov    -0x1bf0(%rbp),%rax
    9f2d:	48 8b 00             	mov    (%rax),%rax
    9f30:	48 85 c0             	test   %rax,%rax
    9f33:	0f 94 c0             	sete   %al
    9f36:	0f b6 c0             	movzbl %al,%eax
    9f39:	0f b7 8d 58 e1 ff ff 	movzwl -0x1ea8(%rbp),%ecx
    9f40:	21 c8                	and    %ecx,%eax
    9f42:	98                   	cwtl   
    9f43:	89 d6                	mov    %edx,%esi
    9f45:	89 c7                	mov    %eax,%edi
    9f47:	e8 87 c4 ff ff       	callq  63d3 <safe_sub_func_int16_t_s_s>
    9f4c:	83 c8 01             	or     $0x1,%eax
    9f4f:	48 0f bf c0          	movswq %ax,%rax
    9f53:	48 39 85 50 e1 ff ff 	cmp    %rax,-0x1eb0(%rbp)
    9f5a:	0f 9c c0             	setl   %al
    9f5d:	0f b6 c0             	movzbl %al,%eax
    9f60:	41 39 c5             	cmp    %eax,%r13d
    9f63:	0f 94 c0             	sete   %al
    9f66:	0f b6 c0             	movzbl %al,%eax
    9f69:	44 89 e6             	mov    %r12d,%esi
    9f6c:	89 c7                	mov    %eax,%edi
    9f6e:	e8 b7 c5 ff ff       	callq  652a <safe_rshift_func_int16_t_s_s>
    9f73:	0f b6 c0             	movzbl %al,%eax
    9f76:	89 de                	mov    %ebx,%esi
    9f78:	89 c7                	mov    %eax,%edi
    9f7a:	e8 f9 cb ff ff       	callq  6b78 <safe_sub_func_uint8_t_u_u>
    9f7f:	8b 05 57 c2 00 00    	mov    0xc257(%rip),%eax        # 161dc <g_1325+0xc>
    9f85:	0f b7 85 58 e1 ff ff 	movzwl -0x1ea8(%rbp),%eax
    9f8c:	88 85 5c e1 ff ff    	mov    %al,-0x1ea4(%rbp)
    9f92:	0f b6 85 5c e1 ff ff 	movzbl -0x1ea4(%rbp),%eax
    9f99:	be 01 00 00 00       	mov    $0x1,%esi
    9f9e:	89 c7                	mov    %eax,%edi
    9fa0:	e8 b5 cb ff ff       	callq  6b5a <safe_add_func_uint8_t_u_u>
    9fa5:	3c 01                	cmp    $0x1,%al
    9fa7:	76 07                	jbe    9fb0 <func_37+0xdb4>
    9fa9:	b8 01 00 00 00       	mov    $0x1,%eax
    9fae:	eb 05                	jmp    9fb5 <func_37+0xdb9>
    9fb0:	b8 00 00 00 00       	mov    $0x0,%eax
    9fb5:	89 c6                	mov    %eax,%esi
    9fb7:	bf bb c9 91 57       	mov    $0x5791c9bb,%edi
    9fbc:	e8 0f cf ff ff       	callq  6ed0 <safe_sub_func_uint32_t_u_u>
    9fc1:	0f b6 95 c8 e2 ff ff 	movzbl -0x1d38(%rbp),%edx
    9fc8:	0f b6 d2             	movzbl %dl,%edx
    9fcb:	39 d0                	cmp    %edx,%eax
    9fcd:	0f 96 c0             	setbe  %al
    9fd0:	0f b6 d0             	movzbl %al,%edx
    9fd3:	48 8b 05 06 de 00 00 	mov    0xde06(%rip),%rax        # 17de0 <g_612>
    9fda:	48 8b 00             	mov    (%rax),%rax
    9fdd:	48 8b 00             	mov    (%rax),%rax
    9fe0:	0f b7 00             	movzwl (%rax),%eax
    9fe3:	0f b7 c0             	movzwl %ax,%eax
    9fe6:	39 c2                	cmp    %eax,%edx
    9fe8:	0f 8d ad 02 00 00    	jge    a29b <func_37+0x109f>
    9fee:	48 8d 05 eb c0 00 00 	lea    0xc0eb(%rip),%rax        # 160e0 <g_127>
    9ff5:	48 89 85 20 e5 ff ff 	mov    %rax,-0x1ae0(%rbp)
    9ffc:	c7 85 ac e1 ff ff 00 	movl   $0x0,-0x1e54(%rbp)
    a003:	00 00 00 
    a006:	eb 19                	jmp    a021 <func_37+0xe25>
    a008:	8b 85 ac e1 ff ff    	mov    -0x1e54(%rbp),%eax
    a00e:	48 98                	cltq   
    a010:	66 c7 84 45 50 e8 ff 	movw   $0x6,-0x17b0(%rbp,%rax,2)
    a017:	ff 06 00 
    a01a:	83 85 ac e1 ff ff 01 	addl   $0x1,-0x1e54(%rbp)
    a021:	83 bd ac e1 ff ff 04 	cmpl   $0x4,-0x1e54(%rbp)
    a028:	7e de                	jle    a008 <func_37+0xe0c>
    a02a:	c7 85 7c e1 ff ff f3 	movl   $0xfffffff3,-0x1e84(%rbp)
    a031:	ff ff ff 
    a034:	eb 5e                	jmp    a094 <func_37+0xe98>
    a036:	48 8d 05 ab dc 00 00 	lea    0xdcab(%rip),%rax        # 17ce8 <g_134+0x8>
    a03d:	48 89 85 50 e5 ff ff 	mov    %rax,-0x1ab0(%rbp)
    a044:	48 8d 85 88 e2 ff ff 	lea    -0x1d78(%rbp),%rax
    a04b:	48 89 85 58 e5 ff ff 	mov    %rax,-0x1aa8(%rbp)
    a052:	48 8b 85 50 e5 ff ff 	mov    -0x1ab0(%rbp),%rax
    a059:	48 8d 95 74 e1 ff ff 	lea    -0x1e8c(%rbp),%rdx
    a060:	48 89 10             	mov    %rdx,(%rax)
    a063:	48 8b 05 2e df 00 00 	mov    0xdf2e(%rip),%rax        # 17f98 <g_1331>
    a06a:	48 8b 95 a0 e2 ff ff 	mov    -0x1d60(%rbp),%rdx
    a071:	48 89 10             	mov    %rdx,(%rax)
    a074:	48 8b 85 58 e5 ff ff 	mov    -0x1aa8(%rbp),%rax
    a07b:	48 8b 95 e8 e4 ff ff 	mov    -0x1b18(%rbp),%rdx
    a082:	48 89 10             	mov    %rdx,(%rax)
    a085:	8b 85 7c e1 ff ff    	mov    -0x1e84(%rbp),%eax
    a08b:	83 e8 01             	sub    $0x1,%eax
    a08e:	89 85 7c e1 ff ff    	mov    %eax,-0x1e84(%rbp)
    a094:	8b 85 7c e1 ff ff    	mov    -0x1e84(%rbp),%eax
    a09a:	83 f8 ee             	cmp    $0xffffffee,%eax
    a09d:	74 97                	je     a036 <func_37+0xe3a>
    a09f:	c7 05 43 c0 00 00 f1 	movl   $0xfffffff1,0xc043(%rip)        # 160ec <g_146>
    a0a6:	ff ff ff 
    a0a9:	e9 d9 01 00 00       	jmpq   a287 <func_37+0x108b>
    a0ae:	48 c7 85 28 e5 ff ff 	movq   $0x0,-0x1ad8(%rbp)
    a0b5:	00 00 00 00 
    a0b9:	48 8d 85 f0 f7 ff ff 	lea    -0x810(%rbp),%rax
    a0c0:	48 8d 15 d9 cd 00 00 	lea    0xcdd9(%rip),%rdx        # 16ea0 <g_2027+0xc84>
    a0c7:	b9 28 00 00 00       	mov    $0x28,%ecx
    a0cc:	48 89 c7             	mov    %rax,%rdi
    a0cf:	48 89 d6             	mov    %rdx,%rsi
    a0d2:	f3 48 a5             	rep movsq %ds:(%rsi),%es:(%rdi)
    a0d5:	48 8d 85 f0 f7 ff ff 	lea    -0x810(%rbp),%rax
    a0dc:	48 83 c0 40          	add    $0x40,%rax
    a0e0:	48 89 85 30 e5 ff ff 	mov    %rax,-0x1ad0(%rbp)
    a0e7:	48 8d 05 aa dc 00 00 	lea    0xdcaa(%rip),%rax        # 17d98 <g_588>
    a0ee:	48 89 85 38 e5 ff ff 	mov    %rax,-0x1ac8(%rbp)
    a0f5:	48 8d 05 f8 bf 00 00 	lea    0xbff8(%rip),%rax        # 160f4 <g_159>
    a0fc:	48 89 85 40 e5 ff ff 	mov    %rax,-0x1ac0(%rbp)
    a103:	48 8d 05 2e bf 00 00 	lea    0xbf2e(%rip),%rax        # 16038 <g_7>
    a10a:	48 89 85 d8 e2 ff ff 	mov    %rax,-0x1d28(%rbp)
    a111:	48 8d 85 d8 e2 ff ff 	lea    -0x1d28(%rbp),%rax
    a118:	48 89 85 48 e5 ff ff 	mov    %rax,-0x1ab8(%rbp)
    a11f:	0f bf 9d 70 e1 ff ff 	movswl -0x1e90(%rbp),%ebx
    a126:	0f b7 85 58 e1 ff ff 	movzwl -0x1ea8(%rbp),%eax
    a12d:	44 0f b7 e0          	movzwl %ax,%r12d
    a131:	48 8b 85 30 e5 ff ff 	mov    -0x1ad0(%rbp),%rax
    a138:	48 8d 15 e9 dc 00 00 	lea    0xdce9(%rip),%rdx        # 17e28 <g_721+0x28>
    a13f:	48 89 10             	mov    %rdx,(%rax)
    a142:	be ff ff ff ff       	mov    $0xffffffff,%esi
    a147:	bf ff ff ff ff       	mov    $0xffffffff,%edi
    a14c:	e8 ae c5 ff ff       	callq  66ff <safe_div_func_int32_t_s_s>
    a151:	85 c0                	test   %eax,%eax
    a153:	75 0b                	jne    a160 <func_37+0xf64>
    a155:	48 8b 85 a0 e2 ff ff 	mov    -0x1d60(%rbp),%rax
    a15c:	8b 00                	mov    (%rax),%eax
    a15e:	85 c0                	test   %eax,%eax
    a160:	48 8b 85 38 e5 ff ff 	mov    -0x1ac8(%rbp),%rax
    a167:	48 3b 85 38 e4 ff ff 	cmp    -0x1bc8(%rbp),%rax
    a16e:	75 07                	jne    a177 <func_37+0xf7b>
    a170:	ba 01 00 00 00       	mov    $0x1,%edx
    a175:	eb 05                	jmp    a17c <func_37+0xf80>
    a177:	ba 00 00 00 00       	mov    $0x0,%edx
    a17c:	48 8b 85 20 e5 ff ff 	mov    -0x1ae0(%rbp),%rax
    a183:	48 89 10             	mov    %rdx,(%rax)
    a186:	48 8b 85 20 e5 ff ff 	mov    -0x1ae0(%rbp),%rax
    a18d:	48 8b 00             	mov    (%rax),%rax
    a190:	be 01 00 00 00       	mov    $0x1,%esi
    a195:	48 89 c7             	mov    %rax,%rdi
    a198:	e8 ae ce ff ff       	callq  704b <safe_sub_func_uint64_t_u_u>
    a19d:	0f b6 85 5c e1 ff ff 	movzbl -0x1ea4(%rbp),%eax
    a1a4:	83 f0 a3             	xor    $0xffffffa3,%eax
    a1a7:	0f be c0             	movsbl %al,%eax
    a1aa:	44 89 e6             	mov    %r12d,%esi
    a1ad:	89 c7                	mov    %eax,%edi
    a1af:	e8 81 c1 ff ff       	callq  6335 <safe_rshift_func_int8_t_s_s>
    a1b4:	48 83 bd 40 e5 ff ff 	cmpq   $0x0,-0x1ac0(%rbp)
    a1bb:	00 
    a1bc:	0f 94 c0             	sete   %al
    a1bf:	0f b6 d0             	movzbl %al,%edx
    a1c2:	0f b7 85 58 e1 ff ff 	movzwl -0x1ea8(%rbp),%eax
    a1c9:	0f b7 c0             	movzwl %ax,%eax
    a1cc:	39 c2                	cmp    %eax,%edx
    a1ce:	0f 9d c0             	setge  %al
    a1d1:	0f b6 c0             	movzbl %al,%eax
    a1d4:	89 de                	mov    %ebx,%esi
    a1d6:	89 c7                	mov    %eax,%edi
    a1d8:	e8 9d cc ff ff       	callq  6e7a <safe_rshift_func_uint16_t_u_u>
    a1dd:	0f bf d8             	movswl %ax,%ebx
    a1e0:	66 c7 85 50 e8 ff ff 	movw   $0x1,-0x17b0(%rbp)
    a1e7:	01 00 
    a1e9:	48 8b 85 58 e6 ff ff 	mov    -0x19a8(%rbp),%rax
    a1f0:	48 39 85 20 e5 ff ff 	cmp    %rax,-0x1ae0(%rbp)
    a1f7:	0f 94 c0             	sete   %al
    a1fa:	0f b6 c0             	movzbl %al,%eax
    a1fd:	48 8b 95 50 e1 ff ff 	mov    -0x1eb0(%rbp),%rdx
    a204:	89 c6                	mov    %eax,%esi
    a206:	89 d7                	mov    %edx,%edi
    a208:	e8 c3 cc ff ff       	callq  6ed0 <safe_sub_func_uint32_t_u_u>
    a20d:	98                   	cwtl   
    a20e:	89 de                	mov    %ebx,%esi
    a210:	89 c7                	mov    %eax,%edi
    a212:	e8 de c1 ff ff       	callq  63f5 <safe_mul_func_int16_t_s_s>
    a217:	48 8b 85 48 e5 ff ff 	mov    -0x1ab8(%rbp),%rax
    a21e:	48 c7 00 00 00 00 00 	movq   $0x0,(%rax)
    a225:	0f b6 85 5c e1 ff ff 	movzbl -0x1ea4(%rbp),%eax
    a22c:	83 c8 01             	or     $0x1,%eax
    a22f:	0f b6 c0             	movzbl %al,%eax
    a232:	48 8b 95 50 e1 ff ff 	mov    -0x1eb0(%rbp),%rdx
    a239:	89 c6                	mov    %eax,%esi
    a23b:	89 d7                	mov    %edx,%edi
    a23d:	e8 c3 c3 ff ff       	callq  6605 <safe_sub_func_int32_t_s_s>
    a242:	48 8b 8d 50 e1 ff ff 	mov    -0x1eb0(%rbp),%rcx
    a249:	48 8b 05 20 dc 00 00 	mov    0xdc20(%rip),%rax        # 17e70 <g_900>
    a250:	8b 10                	mov    (%rax),%edx
    a252:	48 8b 05 17 dc 00 00 	mov    0xdc17(%rip),%rax        # 17e70 <g_900>
    a259:	09 ca                	or     %ecx,%edx
    a25b:	89 10                	mov    %edx,(%rax)
    a25d:	48 8b 95 a0 e2 ff ff 	mov    -0x1d60(%rbp),%rdx
    a264:	48 8b 05 05 dc 00 00 	mov    0xdc05(%rip),%rax        # 17e70 <g_900>
    a26b:	8b 12                	mov    (%rdx),%edx
    a26d:	89 10                	mov    %edx,(%rax)
    a26f:	8b 05 77 be 00 00    	mov    0xbe77(%rip),%eax        # 160ec <g_146>
    a275:	be 01 00 00 00       	mov    $0x1,%esi
    a27a:	89 c7                	mov    %eax,%edi
    a27c:	e8 37 cc ff ff       	callq  6eb8 <safe_add_func_uint32_t_u_u>
    a281:	89 05 65 be 00 00    	mov    %eax,0xbe65(%rip)        # 160ec <g_146>
    a287:	8b 05 5f be 00 00    	mov    0xbe5f(%rip),%eax        # 160ec <g_146>
    a28d:	83 f8 0f             	cmp    $0xf,%eax
    a290:	0f 84 18 fe ff ff    	je     a0ae <func_37+0xeb2>
    a296:	e9 94 27 00 00       	jmpq   ca2f <func_37+0x3833>
    a29b:	48 8d 85 74 e1 ff ff 	lea    -0x1e8c(%rbp),%rax
    a2a2:	48 89 85 e0 e2 ff ff 	mov    %rax,-0x1d20(%rbp)
    a2a9:	48 c7 85 f0 e4 ff ff 	movq   $0x0,-0x1b10(%rbp)
    a2b0:	00 00 00 00 
    a2b4:	48 8d 05 39 be 00 00 	lea    0xbe39(%rip),%rax        # 160f4 <g_159>
    a2bb:	48 89 85 f8 e4 ff ff 	mov    %rax,-0x1b08(%rbp)
    a2c2:	48 8d 85 c8 e2 ff ff 	lea    -0x1d38(%rbp),%rax
    a2c9:	48 89 85 f0 f7 ff ff 	mov    %rax,-0x810(%rbp)
    a2d0:	48 8d 85 b0 e6 ff ff 	lea    -0x1950(%rbp),%rax
    a2d7:	48 83 c0 1d          	add    $0x1d,%rax
    a2db:	48 89 85 f8 f7 ff ff 	mov    %rax,-0x808(%rbp)
    a2e2:	48 8d 85 c8 e2 ff ff 	lea    -0x1d38(%rbp),%rax
    a2e9:	48 89 85 00 f8 ff ff 	mov    %rax,-0x800(%rbp)
    a2f0:	48 8d 85 b0 e6 ff ff 	lea    -0x1950(%rbp),%rax
    a2f7:	48 83 c0 1d          	add    $0x1d,%rax
    a2fb:	48 89 85 08 f8 ff ff 	mov    %rax,-0x7f8(%rbp)
    a302:	48 8d 85 c8 e2 ff ff 	lea    -0x1d38(%rbp),%rax
    a309:	48 89 85 10 f8 ff ff 	mov    %rax,-0x7f0(%rbp)
    a310:	48 8d 85 b0 e6 ff ff 	lea    -0x1950(%rbp),%rax
    a317:	48 83 c0 1d          	add    $0x1d,%rax
    a31b:	48 89 85 18 f8 ff ff 	mov    %rax,-0x7e8(%rbp)
    a322:	48 8d 85 c8 e2 ff ff 	lea    -0x1d38(%rbp),%rax
    a329:	48 89 85 20 f8 ff ff 	mov    %rax,-0x7e0(%rbp)
    a330:	48 8d 85 b0 e6 ff ff 	lea    -0x1950(%rbp),%rax
    a337:	48 83 c0 1d          	add    $0x1d,%rax
    a33b:	48 89 85 28 f8 ff ff 	mov    %rax,-0x7d8(%rbp)
    a342:	48 c7 05 1b be 00 00 	movq   $0x6,0xbe1b(%rip)        # 16168 <g_650>
    a349:	06 00 00 00 
    a34d:	e9 8a 00 00 00       	jmpq   a3dc <func_37+0x11e0>
    a352:	48 8d 05 17 db 00 00 	lea    0xdb17(%rip),%rax        # 17e70 <g_900>
    a359:	48 89 85 18 e5 ff ff 	mov    %rax,-0x1ae8(%rbp)
    a360:	48 8b 05 01 be 00 00 	mov    0xbe01(%rip),%rax        # 16168 <g_650>
    a367:	48 8d 50 01          	lea    0x1(%rax),%rdx
    a36b:	48 8b 0d f6 bd 00 00 	mov    0xbdf6(%rip),%rcx        # 16168 <g_650>
    a372:	48 89 d0             	mov    %rdx,%rax
    a375:	48 c1 e0 02          	shl    $0x2,%rax
    a379:	48 01 d0             	add    %rdx,%rax
    a37c:	48 01 c0             	add    %rax,%rax
    a37f:	48 8d 5d d0          	lea    -0x30(%rbp),%rbx
    a383:	48 01 d8             	add    %rbx,%rax
    a386:	48 01 c8             	add    %rcx,%rax
    a389:	48 2d 20 19 00 00    	sub    $0x1920,%rax
    a38f:	0f b6 00             	movzbl (%rax),%eax
    a392:	0f b6 c0             	movzbl %al,%eax
    a395:	89 c7                	mov    %eax,%edi
    a397:	e8 4d c9 ff ff       	callq  6ce9 <safe_unary_minus_func_uint16_t_u>
    a39c:	0f b6 c0             	movzbl %al,%eax
    a39f:	89 c6                	mov    %eax,%esi
    a3a1:	bf 93 00 00 00       	mov    $0x93,%edi
    a3a6:	e8 af c7 ff ff       	callq  6b5a <safe_add_func_uint8_t_u_u>
    a3ab:	89 c2                	mov    %eax,%edx
    a3ad:	48 8b 85 a0 e2 ff ff 	mov    -0x1d60(%rbp),%rax
    a3b4:	0f b6 d2             	movzbl %dl,%edx
    a3b7:	89 10                	mov    %edx,(%rax)
    a3b9:	48 8b 85 18 e5 ff ff 	mov    -0x1ae8(%rbp),%rax
    a3c0:	48 8d 95 74 e1 ff ff 	lea    -0x1e8c(%rbp),%rdx
    a3c7:	48 89 10             	mov    %rdx,(%rax)
    a3ca:	48 8b 05 97 bd 00 00 	mov    0xbd97(%rip),%rax        # 16168 <g_650>
    a3d1:	48 83 e8 01          	sub    $0x1,%rax
    a3d5:	48 89 05 8c bd 00 00 	mov    %rax,0xbd8c(%rip)        # 16168 <g_650>
    a3dc:	48 8b 05 85 bd 00 00 	mov    0xbd85(%rip),%rax        # 16168 <g_650>
    a3e3:	48 85 c0             	test   %rax,%rax
    a3e6:	0f 89 66 ff ff ff    	jns    a352 <func_37+0x1156>
    a3ec:	c7 05 f2 bc 00 00 1d 	movl   $0x1d,0xbcf2(%rip)        # 160e8 <g_135>
    a3f3:	00 00 00 
    a3f6:	e9 8c 00 00 00       	jmpq   a487 <func_37+0x128b>
    a3fb:	48 c7 85 00 e5 ff ff 	movq   $0x0,-0x1b00(%rbp)
    a402:	00 00 00 00 
    a406:	48 c7 85 08 e5 ff ff 	movq   $0x0,-0x1af8(%rbp)
    a40d:	00 00 00 00 
    a411:	48 8d 85 7c e1 ff ff 	lea    -0x1e84(%rbp),%rax
    a418:	48 89 85 10 e5 ff ff 	mov    %rax,-0x1af0(%rbp)
    a41f:	0f b7 85 58 e1 ff ff 	movzwl -0x1ea8(%rbp),%eax
    a426:	0f b7 d0             	movzwl %ax,%edx
    a429:	8b 85 7c e1 ff ff    	mov    -0x1e84(%rbp),%eax
    a42f:	31 d0                	xor    %edx,%eax
    a431:	89 85 7c e1 ff ff    	mov    %eax,-0x1e84(%rbp)
    a437:	48 c7 85 c0 f1 ff ff 	movq   $0x0,-0xe40(%rbp)
    a43e:	00 00 00 00 
    a442:	48 8b 05 27 da 00 00 	mov    0xda27(%rip),%rax        # 17e70 <g_900>
    a449:	8b 00                	mov    (%rax),%eax
    a44b:	85 c0                	test   %eax,%eax
    a44d:	75 49                	jne    a498 <func_37+0x129c>
    a44f:	48 8b 85 50 e1 ff ff 	mov    -0x1eb0(%rbp),%rax
    a456:	89 c2                	mov    %eax,%edx
    a458:	48 8b 85 10 e5 ff ff 	mov    -0x1af0(%rbp),%rax
    a45f:	89 10                	mov    %edx,(%rax)
    a461:	48 8b 85 10 e5 ff ff 	mov    -0x1af0(%rbp),%rax
    a468:	8b 10                	mov    (%rax),%edx
    a46a:	8b 85 e0 e5 ff ff    	mov    -0x1a20(%rbp),%eax
    a470:	31 d0                	xor    %edx,%eax
    a472:	89 85 e0 e5 ff ff    	mov    %eax,-0x1a20(%rbp)
    a478:	8b 05 6a bc 00 00    	mov    0xbc6a(%rip),%eax        # 160e8 <g_135>
    a47e:	83 e8 01             	sub    $0x1,%eax
    a481:	89 05 61 bc 00 00    	mov    %eax,0xbc61(%rip)        # 160e8 <g_135>
    a487:	8b 05 5b bc 00 00    	mov    0xbc5b(%rip),%eax        # 160e8 <g_135>
    a48d:	83 f8 f4             	cmp    $0xfffffff4,%eax
    a490:	0f 84 65 ff ff ff    	je     a3fb <func_37+0x11ff>
    a496:	eb 01                	jmp    a499 <func_37+0x129d>
    a498:	90                   	nop
    a499:	66 c7 05 3e e1 00 00 	movw   $0x0,0xe13e(%rip)        # 185e0 <g_405>
    a4a0:	00 00 
    a4a2:	e9 bd 00 00 00       	jmpq   a564 <func_37+0x1368>
    a4a7:	c7 85 b0 e1 ff ff 00 	movl   $0x0,-0x1e50(%rbp)
    a4ae:	00 00 00 
    a4b1:	eb 1e                	jmp    a4d1 <func_37+0x12d5>
    a4b3:	8b 85 b0 e1 ff ff    	mov    -0x1e50(%rbp),%eax
    a4b9:	48 98                	cltq   
    a4bb:	48 8d 95 b0 e2 ff ff 	lea    -0x1d50(%rbp),%rdx
    a4c2:	48 89 94 c5 50 e8 ff 	mov    %rdx,-0x17b0(%rbp,%rax,8)
    a4c9:	ff 
    a4ca:	83 85 b0 e1 ff ff 01 	addl   $0x1,-0x1e50(%rbp)
    a4d1:	83 bd b0 e1 ff ff 04 	cmpl   $0x4,-0x1e50(%rbp)
    a4d8:	7e d9                	jle    a4b3 <func_37+0x12b7>
    a4da:	48 8d 85 74 e1 ff ff 	lea    -0x1e8c(%rbp),%rax
    a4e1:	48 89 85 e0 e2 ff ff 	mov    %rax,-0x1d20(%rbp)
    a4e8:	48 8b 85 b0 e2 ff ff 	mov    -0x1d50(%rbp),%rax
    a4ef:	48 89 05 02 e1 00 00 	mov    %rax,0xe102(%rip)        # 185f8 <g_1386>
    a4f6:	48 8b 85 a0 e2 ff ff 	mov    -0x1d60(%rbp),%rax
    a4fd:	48 8b 95 50 e1 ff ff 	mov    -0x1eb0(%rbp),%rdx
    a504:	89 10                	mov    %edx,(%rax)
    a506:	8b 85 e0 e5 ff ff    	mov    -0x1a20(%rbp),%eax
    a50c:	48 63 d0             	movslq %eax,%rdx
    a50f:	8b 05 27 bb 00 00    	mov    0xbb27(%rip),%eax        # 1603c <g_11>
    a515:	48 98                	cltq   
    a517:	48 89 d6             	mov    %rdx,%rsi
    a51a:	48 89 c7             	mov    %rax,%rdi
    a51d:	e8 8d cb ff ff       	callq  70af <safe_div_func_uint64_t_u_u>
    a522:	0f b6 d0             	movzbl %al,%edx
    a525:	8b 85 74 e1 ff ff    	mov    -0x1e8c(%rbp),%eax
    a52b:	0f b6 c0             	movzbl %al,%eax
    a52e:	89 d6                	mov    %edx,%esi
    a530:	89 c7                	mov    %eax,%edi
    a532:	e8 5c c6 ff ff       	callq  6b93 <safe_mul_func_uint8_t_u_u>
    a537:	48 8b 95 a0 e2 ff ff 	mov    -0x1d60(%rbp),%rdx
    a53e:	48 8b 05 2b d9 00 00 	mov    0xd92b(%rip),%rax        # 17e70 <g_900>
    a545:	8b 12                	mov    (%rdx),%edx
    a547:	89 10                	mov    %edx,(%rax)
    a549:	0f b7 05 90 e0 00 00 	movzwl 0xe090(%rip),%eax        # 185e0 <g_405>
    a550:	98                   	cwtl   
    a551:	be 04 00 00 00       	mov    $0x4,%esi
    a556:	89 c7                	mov    %eax,%edi
    a558:	e8 59 c0 ff ff       	callq  65b6 <safe_add_func_int32_t_s_s>
    a55d:	66 89 05 7c e0 00 00 	mov    %ax,0xe07c(%rip)        # 185e0 <g_405>
    a564:	0f b7 05 75 e0 00 00 	movzwl 0xe075(%rip),%eax        # 185e0 <g_405>
    a56b:	66 83 f8 04          	cmp    $0x4,%ax
    a56f:	0f 8e 32 ff ff ff    	jle    a4a7 <func_37+0x12ab>
    a575:	0f b6 85 69 e1 ff ff 	movzbl -0x1e97(%rbp),%eax
    a57c:	0f be d8             	movsbl %al,%ebx
    a57f:	48 8b 05 4a d8 00 00 	mov    0xd84a(%rip),%rax        # 17dd0 <g_614>
    a586:	0f b7 00             	movzwl (%rax),%eax
    a589:	44 0f b7 e0          	movzwl %ax,%r12d
    a58d:	0f b7 85 58 e1 ff ff 	movzwl -0x1ea8(%rbp),%eax
    a594:	0f b7 c0             	movzwl %ax,%eax
    a597:	48 be 97 c1 57 a9 72 	movabs $0x67877372a957c197,%rsi
    a59e:	73 87 67 
    a5a1:	48 89 c7             	mov    %rax,%rdi
    a5a4:	e8 ff c2 ff ff       	callq  68a8 <safe_sub_func_int64_t_s_s>
    a5a9:	8b 95 74 e1 ff ff    	mov    -0x1e8c(%rbp),%edx
    a5af:	48 8b 05 c2 d9 00 00 	mov    0xd9c2(%rip),%rax        # 17f78 <g_1117>
    a5b6:	48 8b 00             	mov    (%rax),%rax
    a5b9:	48 85 c0             	test   %rax,%rax
    a5bc:	0f 94 c0             	sete   %al
    a5bf:	0f b6 c0             	movzbl %al,%eax
    a5c2:	89 d6                	mov    %edx,%esi
    a5c4:	89 c7                	mov    %eax,%edi
    a5c6:	e8 eb bf ff ff       	callq  65b6 <safe_add_func_int32_t_s_s>
    a5cb:	98                   	cwtl   
    a5cc:	be 16 ea ff ff       	mov    $0xffffea16,%esi
    a5d1:	89 c7                	mov    %eax,%edi
    a5d3:	e8 fb bd ff ff       	callq  63d3 <safe_sub_func_int16_t_s_s>
    a5d8:	89 c2                	mov    %eax,%edx
    a5da:	8b 85 e0 e5 ff ff    	mov    -0x1a20(%rbp),%eax
    a5e0:	21 d0                	and    %edx,%eax
    a5e2:	0f be c0             	movsbl %al,%eax
    a5e5:	be 03 00 00 00       	mov    $0x3,%esi
    a5ea:	89 c7                	mov    %eax,%edi
    a5ec:	e8 fd bc ff ff       	callq  62ee <safe_lshift_func_int8_t_s_u>
    a5f1:	8b 85 e0 e5 ff ff    	mov    -0x1a20(%rbp),%eax
    a5f7:	48 98                	cltq   
    a5f9:	48 33 85 50 e1 ff ff 	xor    -0x1eb0(%rbp),%rax
    a600:	48 89 c2             	mov    %rax,%rdx
    a603:	48 8b 85 a0 e2 ff ff 	mov    -0x1d60(%rbp),%rax
    a60a:	8b 00                	mov    (%rax),%eax
    a60c:	48 98                	cltq   
    a60e:	48 39 c2             	cmp    %rax,%rdx
    a611:	0f 9c c0             	setl   %al
    a614:	0f b6 c0             	movzbl %al,%eax
    a617:	be 03 00 00 00       	mov    $0x3,%esi
    a61c:	89 c7                	mov    %eax,%edi
    a61e:	e8 7e bc ff ff       	callq  62a1 <safe_lshift_func_int8_t_s_s>
    a623:	0f b6 95 5c e1 ff ff 	movzbl -0x1ea4(%rbp),%edx
    a62a:	48 8b 85 f8 e4 ff ff 	mov    -0x1b08(%rbp),%rax
    a631:	89 10                	mov    %edx,(%rax)
    a633:	44 89 e6             	mov    %r12d,%esi
    a636:	bf ec 54 00 00       	mov    $0x54ec,%edi
    a63b:	e8 fd c6 ff ff       	callq  6d3d <safe_mul_func_uint16_t_u_u>
    a640:	89 c2                	mov    %eax,%edx
    a642:	48 8b 85 a0 e2 ff ff 	mov    -0x1d60(%rbp),%rax
    a649:	0f b7 d2             	movzwl %dx,%edx
    a64c:	89 10                	mov    %edx,(%rax)
    a64e:	8b 00                	mov    (%rax),%eax
    a650:	89 c2                	mov    %eax,%edx
    a652:	48 8b 85 50 e1 ff ff 	mov    -0x1eb0(%rbp),%rax
    a659:	31 d0                	xor    %edx,%eax
    a65b:	0f be d0             	movsbl %al,%edx
    a65e:	8b 85 60 e2 ff ff    	mov    -0x1da0(%rbp),%eax
    a664:	0f be c0             	movsbl %al,%eax
    a667:	89 d6                	mov    %edx,%esi
    a669:	89 c7                	mov    %eax,%edi
    a66b:	e8 a2 bb ff ff       	callq  6212 <safe_mul_func_int8_t_s_s>
    a670:	0f b6 85 63 e1 ff ff 	movzbl -0x1e9d(%rbp),%eax
    a677:	83 e0 08             	and    $0x8,%eax
    a67a:	41 89 c4             	mov    %eax,%r12d
    a67d:	48 8b 85 e0 e2 ff ff 	mov    -0x1d20(%rbp),%rax
    a684:	8b 00                	mov    (%rax),%eax
    a686:	83 f8 ff             	cmp    $0xffffffff,%eax
    a689:	74 16                	je     a6a1 <func_37+0x14a5>
    a68b:	48 8b 05 7e d6 00 00 	mov    0xd67e(%rip),%rax        # 17d10 <g_288>
    a692:	0f b7 00             	movzwl (%rax),%eax
    a695:	66 85 c0             	test   %ax,%ax
    a698:	74 07                	je     a6a1 <func_37+0x14a5>
    a69a:	b8 01 00 00 00       	mov    $0x1,%eax
    a69f:	eb 05                	jmp    a6a6 <func_37+0x14aa>
    a6a1:	b8 00 00 00 00       	mov    $0x0,%eax
    a6a6:	0f b6 c8             	movzbl %al,%ecx
    a6a9:	48 8b 05 38 d7 00 00 	mov    0xd738(%rip),%rax        # 17de8 <g_722>
    a6b0:	0f b6 10             	movzbl (%rax),%edx
    a6b3:	8d 72 ff             	lea    -0x1(%rdx),%esi
    a6b6:	40 88 30             	mov    %sil,(%rax)
    a6b9:	0f b6 c2             	movzbl %dl,%eax
    a6bc:	89 ce                	mov    %ecx,%esi
    a6be:	89 c7                	mov    %eax,%edi
    a6c0:	e8 e9 c4 ff ff       	callq  6bae <safe_mod_func_uint8_t_u_u>
    a6c5:	44 89 e6             	mov    %r12d,%esi
    a6c8:	bf 00 00 00 00       	mov    $0x0,%edi
    a6cd:	e8 a8 c7 ff ff       	callq  6e7a <safe_rshift_func_uint16_t_u_u>
    a6d2:	0f b6 95 5c e1 ff ff 	movzbl -0x1ea4(%rbp),%edx
    a6d9:	66 39 d0             	cmp    %dx,%ax
    a6dc:	0f 96 c0             	setbe  %al
    a6df:	0f b6 c0             	movzbl %al,%eax
    a6e2:	be f3 00 00 00       	mov    $0xf3,%esi
    a6e7:	89 c7                	mov    %eax,%edi
    a6e9:	e8 6c c4 ff ff       	callq  6b5a <safe_add_func_uint8_t_u_u>
    a6ee:	0f be c0             	movsbl %al,%eax
    a6f1:	89 de                	mov    %ebx,%esi
    a6f3:	89 c7                	mov    %eax,%edi
    a6f5:	e8 18 bb ff ff       	callq  6212 <safe_mul_func_int8_t_s_s>
    a6fa:	0f be d0             	movsbl %al,%edx
    a6fd:	8b 85 78 e1 ff ff    	mov    -0x1e88(%rbp),%eax
    a703:	31 d0                	xor    %edx,%eax
    a705:	89 85 78 e1 ff ff    	mov    %eax,-0x1e88(%rbp)
    a70b:	e9 1f 23 00 00       	jmpq   ca2f <func_37+0x3833>
    a710:	c7 85 80 e1 ff ff fc 	movl   $0xfffffffc,-0x1e80(%rbp)
    a717:	ff ff ff 
    a71a:	48 b8 9d 24 5d f6 92 	movabs $0xdcac6e92f65d249d,%rax
    a721:	6e ac dc 
    a724:	48 89 85 68 e4 ff ff 	mov    %rax,-0x1b98(%rbp)
    a72b:	48 8d 05 a6 d6 00 00 	lea    0xd6a6(%rip),%rax        # 17dd8 <g_613>
    a732:	48 89 85 c0 e2 ff ff 	mov    %rax,-0x1d40(%rbp)
    a739:	48 8d 85 c0 e2 ff ff 	lea    -0x1d40(%rbp),%rax
    a740:	48 89 85 b0 e5 ff ff 	mov    %rax,-0x1a50(%rbp)
    a747:	48 8d 85 c0 e2 ff ff 	lea    -0x1d40(%rbp),%rax
    a74e:	48 89 85 b8 e5 ff ff 	mov    %rax,-0x1a48(%rbp)
    a755:	48 8d 85 c0 e2 ff ff 	lea    -0x1d40(%rbp),%rax
    a75c:	48 89 85 c0 e5 ff ff 	mov    %rax,-0x1a40(%rbp)
    a763:	48 8d 85 c0 e2 ff ff 	lea    -0x1d40(%rbp),%rax
    a76a:	48 89 85 c8 e5 ff ff 	mov    %rax,-0x1a38(%rbp)
    a771:	48 8d 85 c0 e2 ff ff 	lea    -0x1d40(%rbp),%rax
    a778:	48 89 85 d0 e5 ff ff 	mov    %rax,-0x1a30(%rbp)
    a77f:	48 8d 85 b0 e5 ff ff 	lea    -0x1a50(%rbp),%rax
    a786:	48 83 c0 18          	add    $0x18,%rax
    a78a:	48 89 85 70 e4 ff ff 	mov    %rax,-0x1b90(%rbp)
    a791:	c7 85 48 e2 ff ff fc 	movl   $0xfffffffc,-0x1db8(%rbp)
    a798:	ff ff ff 
    a79b:	c7 85 4c e2 ff ff ff 	movl   $0xffffffff,-0x1db4(%rbp)
    a7a2:	ff ff ff 
    a7a5:	c7 85 50 e2 ff ff 04 	movl   $0x4,-0x1db0(%rbp)
    a7ac:	00 00 00 
    a7af:	c7 85 b4 e1 ff ff 85 	movl   $0xde2dce85,-0x1e4c(%rbp)
    a7b6:	ce 2d de 
    a7b9:	c7 85 54 e2 ff ff ac 	movl   $0x95d4c0ac,-0x1dac(%rbp)
    a7c0:	c0 d4 95 
    a7c3:	c7 85 50 e8 ff ff fd 	movl   $0xfffffffd,-0x17b0(%rbp)
    a7ca:	ff ff ff 
    a7cd:	c7 85 54 e8 ff ff fd 	movl   $0xfffffffd,-0x17ac(%rbp)
    a7d4:	ff ff ff 
    a7d7:	c7 85 58 e8 ff ff fd 	movl   $0xfffffffd,-0x17a8(%rbp)
    a7de:	ff ff ff 
    a7e1:	c7 85 5c e8 ff ff fd 	movl   $0xfffffffd,-0x17a4(%rbp)
    a7e8:	ff ff ff 
    a7eb:	c7 85 60 e8 ff ff fd 	movl   $0xfffffffd,-0x17a0(%rbp)
    a7f2:	ff ff ff 
    a7f5:	c7 85 64 e8 ff ff fd 	movl   $0xfffffffd,-0x179c(%rbp)
    a7fc:	ff ff ff 
    a7ff:	c7 85 68 e8 ff ff fd 	movl   $0xfffffffd,-0x1798(%rbp)
    a806:	ff ff ff 
    a809:	c7 85 6c e8 ff ff fd 	movl   $0xfffffffd,-0x1794(%rbp)
    a810:	ff ff ff 
    a813:	c7 85 70 e8 ff ff fd 	movl   $0xfffffffd,-0x1790(%rbp)
    a81a:	ff ff ff 
    a81d:	c7 85 74 e8 ff ff 96 	movl   $0xf3ad0e96,-0x178c(%rbp)
    a824:	0e ad f3 
    a827:	c7 85 78 e8 ff ff 96 	movl   $0xf3ad0e96,-0x1788(%rbp)
    a82e:	0e ad f3 
    a831:	c7 85 7c e8 ff ff 96 	movl   $0xf3ad0e96,-0x1784(%rbp)
    a838:	0e ad f3 
    a83b:	c7 85 80 e8 ff ff 96 	movl   $0xf3ad0e96,-0x1780(%rbp)
    a842:	0e ad f3 
    a845:	c7 85 84 e8 ff ff 96 	movl   $0xf3ad0e96,-0x177c(%rbp)
    a84c:	0e ad f3 
    a84f:	c7 85 88 e8 ff ff 96 	movl   $0xf3ad0e96,-0x1778(%rbp)
    a856:	0e ad f3 
    a859:	c7 85 8c e8 ff ff 96 	movl   $0xf3ad0e96,-0x1774(%rbp)
    a860:	0e ad f3 
    a863:	c7 85 90 e8 ff ff 96 	movl   $0xf3ad0e96,-0x1770(%rbp)
    a86a:	0e ad f3 
    a86d:	c7 85 94 e8 ff ff 96 	movl   $0xf3ad0e96,-0x176c(%rbp)
    a874:	0e ad f3 
    a877:	c7 85 98 e8 ff ff fd 	movl   $0xfffffffd,-0x1768(%rbp)
    a87e:	ff ff ff 
    a881:	c7 85 9c e8 ff ff fd 	movl   $0xfffffffd,-0x1764(%rbp)
    a888:	ff ff ff 
    a88b:	c7 85 a0 e8 ff ff fd 	movl   $0xfffffffd,-0x1760(%rbp)
    a892:	ff ff ff 
    a895:	c7 85 a4 e8 ff ff fd 	movl   $0xfffffffd,-0x175c(%rbp)
    a89c:	ff ff ff 
    a89f:	c7 85 a8 e8 ff ff fd 	movl   $0xfffffffd,-0x1758(%rbp)
    a8a6:	ff ff ff 
    a8a9:	c7 85 ac e8 ff ff fd 	movl   $0xfffffffd,-0x1754(%rbp)
    a8b0:	ff ff ff 
    a8b3:	c7 85 b0 e8 ff ff fd 	movl   $0xfffffffd,-0x1750(%rbp)
    a8ba:	ff ff ff 
    a8bd:	c7 85 b4 e8 ff ff fd 	movl   $0xfffffffd,-0x174c(%rbp)
    a8c4:	ff ff ff 
    a8c7:	c7 85 b8 e8 ff ff fd 	movl   $0xfffffffd,-0x1748(%rbp)
    a8ce:	ff ff ff 
    a8d1:	c7 85 bc e8 ff ff 96 	movl   $0xf3ad0e96,-0x1744(%rbp)
    a8d8:	0e ad f3 
    a8db:	c7 85 c0 e8 ff ff 96 	movl   $0xf3ad0e96,-0x1740(%rbp)
    a8e2:	0e ad f3 
    a8e5:	c7 85 c4 e8 ff ff 96 	movl   $0xf3ad0e96,-0x173c(%rbp)
    a8ec:	0e ad f3 
    a8ef:	c7 85 c8 e8 ff ff 96 	movl   $0xf3ad0e96,-0x1738(%rbp)
    a8f6:	0e ad f3 
    a8f9:	c7 85 cc e8 ff ff 96 	movl   $0xf3ad0e96,-0x1734(%rbp)
    a900:	0e ad f3 
    a903:	c7 85 d0 e8 ff ff 96 	movl   $0xf3ad0e96,-0x1730(%rbp)
    a90a:	0e ad f3 
    a90d:	c7 85 d4 e8 ff ff 96 	movl   $0xf3ad0e96,-0x172c(%rbp)
    a914:	0e ad f3 
    a917:	c7 85 d8 e8 ff ff 96 	movl   $0xf3ad0e96,-0x1728(%rbp)
    a91e:	0e ad f3 
    a921:	c7 85 dc e8 ff ff 96 	movl   $0xf3ad0e96,-0x1724(%rbp)
    a928:	0e ad f3 
    a92b:	48 8d 05 42 b8 00 00 	lea    0xb842(%rip),%rax        # 16174 <g_1259>
    a932:	48 89 85 e0 e5 ff ff 	mov    %rax,-0x1a20(%rbp)
    a939:	48 8d 05 34 b8 00 00 	lea    0xb834(%rip),%rax        # 16174 <g_1259>
    a940:	48 89 85 e8 e5 ff ff 	mov    %rax,-0x1a18(%rbp)
    a947:	48 8d 05 26 b8 00 00 	lea    0xb826(%rip),%rax        # 16174 <g_1259>
    a94e:	48 89 85 f0 e5 ff ff 	mov    %rax,-0x1a10(%rbp)
    a955:	48 8d 05 18 b8 00 00 	lea    0xb818(%rip),%rax        # 16174 <g_1259>
    a95c:	48 89 85 f8 e5 ff ff 	mov    %rax,-0x1a08(%rbp)
    a963:	48 8d 05 0a b8 00 00 	lea    0xb80a(%rip),%rax        # 16174 <g_1259>
    a96a:	48 89 85 00 e6 ff ff 	mov    %rax,-0x1a00(%rbp)
    a971:	48 8d 05 fc b7 00 00 	lea    0xb7fc(%rip),%rax        # 16174 <g_1259>
    a978:	48 89 85 08 e6 ff ff 	mov    %rax,-0x19f8(%rbp)
    a97f:	48 8d 05 ee b7 00 00 	lea    0xb7ee(%rip),%rax        # 16174 <g_1259>
    a986:	48 89 85 10 e6 ff ff 	mov    %rax,-0x19f0(%rbp)
    a98d:	48 8d 85 60 e6 ff ff 	lea    -0x19a0(%rbp),%rax
    a994:	48 83 c0 18          	add    $0x18,%rax
    a998:	48 89 85 78 e4 ff ff 	mov    %rax,-0x1b88(%rbp)
    a99f:	48 8d 05 4a b8 00 00 	lea    0xb84a(%rip),%rax        # 161f0 <g_1577>
    a9a6:	48 89 85 c8 e2 ff ff 	mov    %rax,-0x1d38(%rbp)
    a9ad:	48 8d 85 c8 e2 ff ff 	lea    -0x1d38(%rbp),%rax
    a9b4:	48 89 85 d0 e2 ff ff 	mov    %rax,-0x1d30(%rbp)
    a9bb:	48 8d 85 d0 e2 ff ff 	lea    -0x1d30(%rbp),%rax
    a9c2:	48 89 85 80 e4 ff ff 	mov    %rax,-0x1b80(%rbp)
    a9c9:	48 8b 05 10 d4 00 00 	mov    0xd410(%rip),%rax        # 17de0 <g_612>
    a9d0:	48 8b 00             	mov    (%rax),%rax
    a9d3:	48 8b 00             	mov    (%rax),%rax
    a9d6:	0f b7 95 58 e1 ff ff 	movzwl -0x1ea8(%rbp),%edx
    a9dd:	66 89 10             	mov    %dx,(%rax)
    a9e0:	0f b6 95 5c e1 ff ff 	movzbl -0x1ea4(%rbp),%edx
    a9e7:	8b 05 ff b6 00 00    	mov    0xb6ff(%rip),%eax        # 160ec <g_146>
    a9ed:	39 c2                	cmp    %eax,%edx
    a9ef:	80 bd 5c e1 ff ff 00 	cmpb   $0x0,-0x1ea4(%rbp)
    a9f6:	0f 95 c0             	setne  %al
    a9f9:	0f b6 c0             	movzbl %al,%eax
    a9fc:	89 85 7c e1 ff ff    	mov    %eax,-0x1e84(%rbp)
    aa02:	48 8b 05 27 d4 00 00 	mov    0xd427(%rip),%rax        # 17e30 <g_769>
    aa09:	48 8b 00             	mov    (%rax),%rax
    aa0c:	48 83 f8 01          	cmp    $0x1,%rax
    aa10:	0f 9f c0             	setg   %al
    aa13:	0f b6 d0             	movzbl %al,%edx
    aa16:	48 8b 05 cb d3 00 00 	mov    0xd3cb(%rip),%rax        # 17de8 <g_722>
    aa1d:	0f b6 00             	movzbl (%rax),%eax
    aa20:	89 c1                	mov    %eax,%ecx
    aa22:	89 d0                	mov    %edx,%eax
    aa24:	21 c1                	and    %eax,%ecx
    aa26:	89 ca                	mov    %ecx,%edx
    aa28:	48 8b 05 b9 d3 00 00 	mov    0xd3b9(%rip),%rax        # 17de8 <g_722>
    aa2f:	88 10                	mov    %dl,(%rax)
    aa31:	0f b6 00             	movzbl (%rax),%eax
    aa34:	0f b6 c0             	movzbl %al,%eax
    aa37:	89 c7                	mov    %eax,%edi
    aa39:	e8 07 c1 ff ff       	callq  6b45 <safe_unary_minus_func_uint8_t_u>
    aa3e:	84 c0                	test   %al,%al
    aa40:	0f 84 93 01 00 00    	je     abd9 <func_37+0x19dd>
    aa46:	c7 85 58 e2 ff ff ef 	movl   $0xe329bbef,-0x1da8(%rbp)
    aa4d:	bb 29 e3 
    aa50:	48 8d 85 78 e1 ff ff 	lea    -0x1e88(%rbp),%rax
    aa57:	48 89 85 88 e4 ff ff 	mov    %rax,-0x1b78(%rbp)
    aa5e:	c7 85 b8 e1 ff ff 00 	movl   $0x0,-0x1e48(%rbp)
    aa65:	00 00 00 
    aa68:	eb 22                	jmp    aa8c <func_37+0x1890>
    aa6a:	8b 85 b8 e1 ff ff    	mov    -0x1e48(%rbp),%eax
    aa70:	48 98                	cltq   
    aa72:	48 8d 95 90 e5 ff ff 	lea    -0x1a70(%rbp),%rdx
    aa79:	48 83 c2 14          	add    $0x14,%rdx
    aa7d:	48 89 94 c5 f0 f7 ff 	mov    %rdx,-0x810(%rbp,%rax,8)
    aa84:	ff 
    aa85:	83 85 b8 e1 ff ff 01 	addl   $0x1,-0x1e48(%rbp)
    aa8c:	83 bd b8 e1 ff ff 02 	cmpl   $0x2,-0x1e48(%rbp)
    aa93:	7e d5                	jle    aa6a <func_37+0x186e>
    aa95:	c7 05 55 b6 00 00 00 	movl   $0x0,0xb655(%rip)        # 160f4 <g_159>
    aa9c:	00 00 00 
    aa9f:	e9 07 01 00 00       	jmpq   abab <func_37+0x19af>
    aaa4:	0f b7 85 58 e1 ff ff 	movzwl -0x1ea8(%rbp),%eax
    aaab:	0f b7 d8             	movzwl %ax,%ebx
    aaae:	48 8b 85 50 e1 ff ff 	mov    -0x1eb0(%rbp),%rax
    aab5:	41 89 c5             	mov    %eax,%r13d
    aab8:	8b 85 58 e2 ff ff    	mov    -0x1da8(%rbp),%eax
    aabe:	4c 63 e0             	movslq %eax,%r12
    aac1:	0f b7 85 58 e1 ff ff 	movzwl -0x1ea8(%rbp),%eax
    aac8:	66 85 c0             	test   %ax,%ax
    aacb:	0f 95 c0             	setne  %al
    aace:	0f b6 c0             	movzbl %al,%eax
    aad1:	0f b7 95 58 e1 ff ff 	movzwl -0x1ea8(%rbp),%edx
    aad8:	21 d0                	and    %edx,%eax
    aada:	0f b7 c0             	movzwl %ax,%eax
    aadd:	89 c6                	mov    %eax,%esi
    aadf:	bf 9c bb 00 00       	mov    $0xbb9c,%edi
    aae4:	e8 a5 c2 ff ff       	callq  6d8e <safe_div_func_uint16_t_u_u>
    aae9:	89 c2                	mov    %eax,%edx
    aaeb:	48 8b 85 a0 e2 ff ff 	mov    -0x1d60(%rbp),%rax
    aaf2:	0f b7 d2             	movzwl %dx,%edx
    aaf5:	89 10                	mov    %edx,(%rax)
    aaf7:	8b 00                	mov    (%rax),%eax
    aaf9:	48 63 d0             	movslq %eax,%rdx
    aafc:	48 8b 85 70 e2 ff ff 	mov    -0x1d90(%rbp),%rax
    ab03:	48 09 d0             	or     %rdx,%rax
    ab06:	48 83 f8 01          	cmp    $0x1,%rax
    ab0a:	48 8b 85 70 e4 ff ff 	mov    -0x1b90(%rbp),%rax
    ab11:	48 3b 85 18 e4 ff ff 	cmp    -0x1be8(%rbp),%rax
    ab18:	0f 94 c0             	sete   %al
    ab1b:	0f b6 c0             	movzbl %al,%eax
    ab1e:	4c 89 e6             	mov    %r12,%rsi
    ab21:	48 89 c7             	mov    %rax,%rdi
    ab24:	e8 57 c5 ff ff       	callq  7080 <safe_mod_func_uint64_t_u_u>
    ab29:	0f b7 c0             	movzwl %ax,%eax
    ab2c:	44 89 ee             	mov    %r13d,%esi
    ab2f:	89 c7                	mov    %eax,%edi
    ab31:	e8 88 c2 ff ff       	callq  6dbe <safe_lshift_func_uint16_t_u_s>
    ab36:	0f b7 c0             	movzwl %ax,%eax
    ab39:	89 85 74 e1 ff ff    	mov    %eax,-0x1e8c(%rbp)
    ab3f:	8b 85 74 e1 ff ff    	mov    -0x1e8c(%rbp),%eax
    ab45:	89 de                	mov    %ebx,%esi
    ab47:	89 c7                	mov    %eax,%edi
    ab49:	e8 7e bb ff ff       	callq  66cc <safe_mod_func_int32_t_s_s>
    ab4e:	0f b7 15 85 b5 00 00 	movzwl 0xb585(%rip),%edx        # 160da <g_106>
    ab55:	0f bf d2             	movswl %dx,%edx
    ab58:	39 d0                	cmp    %edx,%eax
    ab5a:	0f b6 9d 5c e1 ff ff 	movzbl -0x1ea4(%rbp),%ebx
    ab61:	8b 85 58 e2 ff ff    	mov    -0x1da8(%rbp),%eax
    ab67:	0f b7 c0             	movzwl %ax,%eax
    ab6a:	be 0c 00 00 00       	mov    $0xc,%esi
    ab6f:	89 c7                	mov    %eax,%edi
    ab71:	e8 04 c3 ff ff       	callq  6e7a <safe_rshift_func_uint16_t_u_u>
    ab76:	48 8b 85 50 e1 ff ff 	mov    -0x1eb0(%rbp),%rax
    ab7d:	0f b7 c0             	movzwl %ax,%eax
    ab80:	89 de                	mov    %ebx,%esi
    ab82:	89 c7                	mov    %eax,%edi
    ab84:	e8 96 c1 ff ff       	callq  6d1f <safe_sub_func_uint16_t_u_u>
    ab89:	66 83 f8 01          	cmp    $0x1,%ax
    ab8d:	0f 96 c2             	setbe  %dl
    ab90:	48 8b 05 09 d4 00 00 	mov    0xd409(%rip),%rax        # 17fa0 <g_1450>
    ab97:	0f b6 d2             	movzbl %dl,%edx
    ab9a:	89 10                	mov    %edx,(%rax)
    ab9c:	8b 05 52 b5 00 00    	mov    0xb552(%rip),%eax        # 160f4 <g_159>
    aba2:	83 e8 01             	sub    $0x1,%eax
    aba5:	89 05 49 b5 00 00    	mov    %eax,0xb549(%rip)        # 160f4 <g_159>
    abab:	8b 05 43 b5 00 00    	mov    0xb543(%rip),%eax        # 160f4 <g_159>
    abb1:	85 c0                	test   %eax,%eax
    abb3:	0f 89 eb fe ff ff    	jns    aaa4 <func_37+0x18a8>
    abb9:	48 8b 85 88 e4 ff ff 	mov    -0x1b78(%rbp),%rax
    abc0:	48 89 85 f8 f7 ff ff 	mov    %rax,-0x808(%rbp)
    abc7:	48 8b 85 88 e4 ff ff 	mov    -0x1b78(%rbp),%rax
    abce:	8b 00                	mov    (%rax),%eax
    abd0:	85 c0                	test   %eax,%eax
    abd2:	74 69                	je     ac3d <func_37+0x1a41>
    abd4:	e9 c7 21 00 00       	jmpq   cda0 <func_37+0x3ba4>
    abd9:	c6 05 10 b5 00 00 0a 	movb   $0xa,0xb510(%rip)        # 160f0 <g_153>
    abe0:	90                   	nop
    abe1:	0f b6 05 08 b5 00 00 	movzbl 0xb508(%rip),%eax        # 160f0 <g_153>
    abe8:	3c 2d                	cmp    $0x2d,%al
    abea:	77 0c                	ja     abf8 <func_37+0x19fc>
    abec:	0f b6 85 5c e1 ff ff 	movzbl -0x1ea4(%rbp),%eax
    abf3:	e9 11 34 00 00       	jmpq   e009 <func_37+0x4e0d>
    abf8:	48 c7 05 dd b4 00 00 	movq   $0x0,0xb4dd(%rip)        # 160e0 <g_127>
    abff:	00 00 00 00 
    ac03:	90                   	nop
    ac04:	48 8b 05 d5 b4 00 00 	mov    0xb4d5(%rip),%rax        # 160e0 <g_127>
    ac0b:	48 83 f8 02          	cmp    $0x2,%rax
    ac0f:	77 1d                	ja     ac2e <func_37+0x1a32>
    ac11:	48 8b 05 90 d3 00 00 	mov    0xd390(%rip),%rax        # 17fa8 <g_1455>
    ac18:	48 8d 95 7c e1 ff ff 	lea    -0x1e84(%rbp),%rdx
    ac1f:	48 89 10             	mov    %rdx,(%rax)
    ac22:	0f b7 85 58 e1 ff ff 	movzwl -0x1ea8(%rbp),%eax
    ac29:	e9 db 33 00 00       	jmpq   e009 <func_37+0x4e0d>
    ac2e:	48 8b 85 a0 e2 ff ff 	mov    -0x1d60(%rbp),%rax
    ac35:	8b 95 78 e1 ff ff    	mov    -0x1e88(%rbp),%edx
    ac3b:	89 10                	mov    %edx,(%rax)
    ac3d:	c7 85 74 e1 ff ff 00 	movl   $0x0,-0x1e8c(%rbp)
    ac44:	00 00 00 
    ac47:	e9 70 1c 00 00       	jmpq   c8bc <func_37+0x36c0>
    ac4c:	66 c7 85 72 e1 ff ff 	movw   $0xfff7,-0x1e8e(%rbp)
    ac53:	f7 ff 
    ac55:	48 8d 05 d4 d1 00 00 	lea    0xd1d4(%rip),%rax        # 17e30 <g_769>
    ac5c:	48 89 85 f0 f7 ff ff 	mov    %rax,-0x810(%rbp)
    ac63:	48 c7 85 f8 f7 ff ff 	movq   $0x0,-0x808(%rbp)
    ac6a:	00 00 00 00 
    ac6e:	48 8d 85 90 e2 ff ff 	lea    -0x1d70(%rbp),%rax
    ac75:	48 89 85 00 f8 ff ff 	mov    %rax,-0x800(%rbp)
    ac7c:	48 8d 85 90 e2 ff ff 	lea    -0x1d70(%rbp),%rax
    ac83:	48 89 85 08 f8 ff ff 	mov    %rax,-0x7f8(%rbp)
    ac8a:	48 c7 85 10 f8 ff ff 	movq   $0x0,-0x7f0(%rbp)
    ac91:	00 00 00 00 
    ac95:	48 8d 85 90 e2 ff ff 	lea    -0x1d70(%rbp),%rax
    ac9c:	48 89 85 18 f8 ff ff 	mov    %rax,-0x7e8(%rbp)
    aca3:	48 8d 85 90 e2 ff ff 	lea    -0x1d70(%rbp),%rax
    acaa:	48 89 85 20 f8 ff ff 	mov    %rax,-0x7e0(%rbp)
    acb1:	48 8d 85 98 e2 ff ff 	lea    -0x1d68(%rbp),%rax
    acb8:	48 89 85 28 f8 ff ff 	mov    %rax,-0x7d8(%rbp)
    acbf:	48 c7 85 30 f8 ff ff 	movq   $0x0,-0x7d0(%rbp)
    acc6:	00 00 00 00 
    acca:	48 8d 85 98 e2 ff ff 	lea    -0x1d68(%rbp),%rax
    acd1:	48 89 85 38 f8 ff ff 	mov    %rax,-0x7c8(%rbp)
    acd8:	48 8d 85 90 e2 ff ff 	lea    -0x1d70(%rbp),%rax
    acdf:	48 89 85 40 f8 ff ff 	mov    %rax,-0x7c0(%rbp)
    ace6:	48 8d 85 90 e2 ff ff 	lea    -0x1d70(%rbp),%rax
    aced:	48 89 85 48 f8 ff ff 	mov    %rax,-0x7b8(%rbp)
    acf4:	48 8d 85 98 e2 ff ff 	lea    -0x1d68(%rbp),%rax
    acfb:	48 89 85 50 f8 ff ff 	mov    %rax,-0x7b0(%rbp)
    ad02:	48 8d 05 27 d1 00 00 	lea    0xd127(%rip),%rax        # 17e30 <g_769>
    ad09:	48 89 85 58 f8 ff ff 	mov    %rax,-0x7a8(%rbp)
    ad10:	48 8d 85 98 e2 ff ff 	lea    -0x1d68(%rbp),%rax
    ad17:	48 89 85 60 f8 ff ff 	mov    %rax,-0x7a0(%rbp)
    ad1e:	48 8d 85 98 e2 ff ff 	lea    -0x1d68(%rbp),%rax
    ad25:	48 89 85 68 f8 ff ff 	mov    %rax,-0x798(%rbp)
    ad2c:	48 8d 85 98 e2 ff ff 	lea    -0x1d68(%rbp),%rax
    ad33:	48 89 85 70 f8 ff ff 	mov    %rax,-0x790(%rbp)
    ad3a:	48 8d 85 90 e2 ff ff 	lea    -0x1d70(%rbp),%rax
    ad41:	48 89 85 78 f8 ff ff 	mov    %rax,-0x788(%rbp)
    ad48:	48 8d 85 90 e2 ff ff 	lea    -0x1d70(%rbp),%rax
    ad4f:	48 89 85 80 f8 ff ff 	mov    %rax,-0x780(%rbp)
    ad56:	48 8d 05 d3 d0 00 00 	lea    0xd0d3(%rip),%rax        # 17e30 <g_769>
    ad5d:	48 89 85 88 f8 ff ff 	mov    %rax,-0x778(%rbp)
    ad64:	48 8d 85 90 e2 ff ff 	lea    -0x1d70(%rbp),%rax
    ad6b:	48 89 85 90 f8 ff ff 	mov    %rax,-0x770(%rbp)
    ad72:	48 8d 05 b7 d0 00 00 	lea    0xd0b7(%rip),%rax        # 17e30 <g_769>
    ad79:	48 89 85 98 f8 ff ff 	mov    %rax,-0x768(%rbp)
    ad80:	48 8d 05 a9 d0 00 00 	lea    0xd0a9(%rip),%rax        # 17e30 <g_769>
    ad87:	48 89 85 a0 f8 ff ff 	mov    %rax,-0x760(%rbp)
    ad8e:	48 8d 85 90 e2 ff ff 	lea    -0x1d70(%rbp),%rax
    ad95:	48 89 85 a8 f8 ff ff 	mov    %rax,-0x758(%rbp)
    ad9c:	48 8d 85 90 e2 ff ff 	lea    -0x1d70(%rbp),%rax
    ada3:	48 89 85 b0 f8 ff ff 	mov    %rax,-0x750(%rbp)
    adaa:	48 8d 85 90 e2 ff ff 	lea    -0x1d70(%rbp),%rax
    adb1:	48 89 85 b8 f8 ff ff 	mov    %rax,-0x748(%rbp)
    adb8:	48 8d 85 90 e2 ff ff 	lea    -0x1d70(%rbp),%rax
    adbf:	48 89 85 c0 f8 ff ff 	mov    %rax,-0x740(%rbp)
    adc6:	48 8d 85 90 e2 ff ff 	lea    -0x1d70(%rbp),%rax
    adcd:	48 89 85 c8 f8 ff ff 	mov    %rax,-0x738(%rbp)
    add4:	48 8d 05 55 d0 00 00 	lea    0xd055(%rip),%rax        # 17e30 <g_769>
    addb:	48 89 85 d0 f8 ff ff 	mov    %rax,-0x730(%rbp)
    ade2:	48 8d 85 90 e2 ff ff 	lea    -0x1d70(%rbp),%rax
    ade9:	48 89 85 d8 f8 ff ff 	mov    %rax,-0x728(%rbp)
    adf0:	48 8d 05 39 d0 00 00 	lea    0xd039(%rip),%rax        # 17e30 <g_769>
    adf7:	48 89 85 e0 f8 ff ff 	mov    %rax,-0x720(%rbp)
    adfe:	48 8d 05 2b d0 00 00 	lea    0xd02b(%rip),%rax        # 17e30 <g_769>
    ae05:	48 89 85 e8 f8 ff ff 	mov    %rax,-0x718(%rbp)
    ae0c:	48 8d 85 90 e2 ff ff 	lea    -0x1d70(%rbp),%rax
    ae13:	48 89 85 f0 f8 ff ff 	mov    %rax,-0x710(%rbp)
    ae1a:	48 c7 85 f8 f8 ff ff 	movq   $0x0,-0x708(%rbp)
    ae21:	00 00 00 00 
    ae25:	48 8d 85 90 e2 ff ff 	lea    -0x1d70(%rbp),%rax
    ae2c:	48 89 85 00 f9 ff ff 	mov    %rax,-0x700(%rbp)
    ae33:	48 8d 85 90 e2 ff ff 	lea    -0x1d70(%rbp),%rax
    ae3a:	48 89 85 08 f9 ff ff 	mov    %rax,-0x6f8(%rbp)
    ae41:	48 8d 85 98 e2 ff ff 	lea    -0x1d68(%rbp),%rax
    ae48:	48 89 85 10 f9 ff ff 	mov    %rax,-0x6f0(%rbp)
    ae4f:	48 8d 85 98 e2 ff ff 	lea    -0x1d68(%rbp),%rax
    ae56:	48 89 85 18 f9 ff ff 	mov    %rax,-0x6e8(%rbp)
    ae5d:	48 8d 85 90 e2 ff ff 	lea    -0x1d70(%rbp),%rax
    ae64:	48 89 85 20 f9 ff ff 	mov    %rax,-0x6e0(%rbp)
    ae6b:	48 8d 85 90 e2 ff ff 	lea    -0x1d70(%rbp),%rax
    ae72:	48 89 85 28 f9 ff ff 	mov    %rax,-0x6d8(%rbp)
    ae79:	48 8d 85 98 e2 ff ff 	lea    -0x1d68(%rbp),%rax
    ae80:	48 89 85 30 f9 ff ff 	mov    %rax,-0x6d0(%rbp)
    ae87:	48 8d 85 90 e2 ff ff 	lea    -0x1d70(%rbp),%rax
    ae8e:	48 89 85 38 f9 ff ff 	mov    %rax,-0x6c8(%rbp)
    ae95:	48 8d 85 90 e2 ff ff 	lea    -0x1d70(%rbp),%rax
    ae9c:	48 89 85 40 f9 ff ff 	mov    %rax,-0x6c0(%rbp)
    aea3:	48 8d 85 90 e2 ff ff 	lea    -0x1d70(%rbp),%rax
    aeaa:	48 89 85 48 f9 ff ff 	mov    %rax,-0x6b8(%rbp)
    aeb1:	48 8d 05 78 cf 00 00 	lea    0xcf78(%rip),%rax        # 17e30 <g_769>
    aeb8:	48 89 85 50 f9 ff ff 	mov    %rax,-0x6b0(%rbp)
    aebf:	48 8d 85 98 e2 ff ff 	lea    -0x1d68(%rbp),%rax
    aec6:	48 89 85 58 f9 ff ff 	mov    %rax,-0x6a8(%rbp)
    aecd:	48 8d 85 90 e2 ff ff 	lea    -0x1d70(%rbp),%rax
    aed4:	48 89 85 60 f9 ff ff 	mov    %rax,-0x6a0(%rbp)
    aedb:	48 8d 85 90 e2 ff ff 	lea    -0x1d70(%rbp),%rax
    aee2:	48 89 85 68 f9 ff ff 	mov    %rax,-0x698(%rbp)
    aee9:	48 8d 85 90 e2 ff ff 	lea    -0x1d70(%rbp),%rax
    aef0:	48 89 85 70 f9 ff ff 	mov    %rax,-0x690(%rbp)
    aef7:	48 8d 85 98 e2 ff ff 	lea    -0x1d68(%rbp),%rax
    aefe:	48 89 85 78 f9 ff ff 	mov    %rax,-0x688(%rbp)
    af05:	48 8d 85 90 e2 ff ff 	lea    -0x1d70(%rbp),%rax
    af0c:	48 89 85 80 f9 ff ff 	mov    %rax,-0x680(%rbp)
    af13:	48 c7 85 88 f9 ff ff 	movq   $0x0,-0x678(%rbp)
    af1a:	00 00 00 00 
    af1e:	48 8d 05 0b cf 00 00 	lea    0xcf0b(%rip),%rax        # 17e30 <g_769>
    af25:	48 89 85 90 f9 ff ff 	mov    %rax,-0x670(%rbp)
    af2c:	48 8d 85 90 e2 ff ff 	lea    -0x1d70(%rbp),%rax
    af33:	48 89 85 98 f9 ff ff 	mov    %rax,-0x668(%rbp)
    af3a:	48 8d 85 98 e2 ff ff 	lea    -0x1d68(%rbp),%rax
    af41:	48 89 85 a0 f9 ff ff 	mov    %rax,-0x660(%rbp)
    af48:	48 8d 05 e1 ce 00 00 	lea    0xcee1(%rip),%rax        # 17e30 <g_769>
    af4f:	48 89 85 a8 f9 ff ff 	mov    %rax,-0x658(%rbp)
    af56:	48 c7 85 b0 f9 ff ff 	movq   $0x0,-0x650(%rbp)
    af5d:	00 00 00 00 
    af61:	48 8d 85 90 e2 ff ff 	lea    -0x1d70(%rbp),%rax
    af68:	48 89 85 b8 f9 ff ff 	mov    %rax,-0x648(%rbp)
    af6f:	48 8d 85 90 e2 ff ff 	lea    -0x1d70(%rbp),%rax
    af76:	48 89 85 c0 f9 ff ff 	mov    %rax,-0x640(%rbp)
    af7d:	48 c7 85 c8 f9 ff ff 	movq   $0x0,-0x638(%rbp)
    af84:	00 00 00 00 
    af88:	48 8d 85 90 e2 ff ff 	lea    -0x1d70(%rbp),%rax
    af8f:	48 89 85 d0 f9 ff ff 	mov    %rax,-0x630(%rbp)
    af96:	48 8d 85 90 e2 ff ff 	lea    -0x1d70(%rbp),%rax
    af9d:	48 89 85 d8 f9 ff ff 	mov    %rax,-0x628(%rbp)
    afa4:	48 8d 85 98 e2 ff ff 	lea    -0x1d68(%rbp),%rax
    afab:	48 89 85 e0 f9 ff ff 	mov    %rax,-0x620(%rbp)
    afb2:	48 c7 85 e8 f9 ff ff 	movq   $0x0,-0x618(%rbp)
    afb9:	00 00 00 00 
    afbd:	48 8d 85 98 e2 ff ff 	lea    -0x1d68(%rbp),%rax
    afc4:	48 89 85 f0 f9 ff ff 	mov    %rax,-0x610(%rbp)
    afcb:	48 8d 85 90 e2 ff ff 	lea    -0x1d70(%rbp),%rax
    afd2:	48 89 85 f8 f9 ff ff 	mov    %rax,-0x608(%rbp)
    afd9:	48 8d 85 90 e2 ff ff 	lea    -0x1d70(%rbp),%rax
    afe0:	48 89 85 00 fa ff ff 	mov    %rax,-0x600(%rbp)
    afe7:	48 8d 85 98 e2 ff ff 	lea    -0x1d68(%rbp),%rax
    afee:	48 89 85 08 fa ff ff 	mov    %rax,-0x5f8(%rbp)
    aff5:	48 8d 05 34 ce 00 00 	lea    0xce34(%rip),%rax        # 17e30 <g_769>
    affc:	48 89 85 10 fa ff ff 	mov    %rax,-0x5f0(%rbp)
    b003:	48 8d 85 98 e2 ff ff 	lea    -0x1d68(%rbp),%rax
    b00a:	48 89 85 18 fa ff ff 	mov    %rax,-0x5e8(%rbp)
    b011:	48 8d 85 98 e2 ff ff 	lea    -0x1d68(%rbp),%rax
    b018:	48 89 85 20 fa ff ff 	mov    %rax,-0x5e0(%rbp)
    b01f:	48 8d 85 98 e2 ff ff 	lea    -0x1d68(%rbp),%rax
    b026:	48 89 85 28 fa ff ff 	mov    %rax,-0x5d8(%rbp)
    b02d:	48 8d 85 90 e2 ff ff 	lea    -0x1d70(%rbp),%rax
    b034:	48 89 85 30 fa ff ff 	mov    %rax,-0x5d0(%rbp)
    b03b:	48 8d 85 90 e2 ff ff 	lea    -0x1d70(%rbp),%rax
    b042:	48 89 85 38 fa ff ff 	mov    %rax,-0x5c8(%rbp)
    b049:	48 8d 05 e0 cd 00 00 	lea    0xcde0(%rip),%rax        # 17e30 <g_769>
    b050:	48 89 85 40 fa ff ff 	mov    %rax,-0x5c0(%rbp)
    b057:	48 8d 85 90 e2 ff ff 	lea    -0x1d70(%rbp),%rax
    b05e:	48 89 85 48 fa ff ff 	mov    %rax,-0x5b8(%rbp)
    b065:	48 8d 05 c4 cd 00 00 	lea    0xcdc4(%rip),%rax        # 17e30 <g_769>
    b06c:	48 89 85 50 fa ff ff 	mov    %rax,-0x5b0(%rbp)
    b073:	48 8d 05 b6 cd 00 00 	lea    0xcdb6(%rip),%rax        # 17e30 <g_769>
    b07a:	48 89 85 58 fa ff ff 	mov    %rax,-0x5a8(%rbp)
    b081:	48 8d 85 90 e2 ff ff 	lea    -0x1d70(%rbp),%rax
    b088:	48 89 85 60 fa ff ff 	mov    %rax,-0x5a0(%rbp)
    b08f:	48 8d 85 90 e2 ff ff 	lea    -0x1d70(%rbp),%rax
    b096:	48 89 85 68 fa ff ff 	mov    %rax,-0x598(%rbp)
    b09d:	48 8d 85 90 e2 ff ff 	lea    -0x1d70(%rbp),%rax
    b0a4:	48 89 85 70 fa ff ff 	mov    %rax,-0x590(%rbp)
    b0ab:	48 8d 85 90 e2 ff ff 	lea    -0x1d70(%rbp),%rax
    b0b2:	48 89 85 78 fa ff ff 	mov    %rax,-0x588(%rbp)
    b0b9:	48 8d 85 90 e2 ff ff 	lea    -0x1d70(%rbp),%rax
    b0c0:	48 89 85 80 fa ff ff 	mov    %rax,-0x580(%rbp)
    b0c7:	48 8d 05 62 cd 00 00 	lea    0xcd62(%rip),%rax        # 17e30 <g_769>
    b0ce:	48 89 85 88 fa ff ff 	mov    %rax,-0x578(%rbp)
    b0d5:	48 8d 85 90 e2 ff ff 	lea    -0x1d70(%rbp),%rax
    b0dc:	48 89 85 90 fa ff ff 	mov    %rax,-0x570(%rbp)
    b0e3:	48 8d 05 46 cd 00 00 	lea    0xcd46(%rip),%rax        # 17e30 <g_769>
    b0ea:	48 89 85 98 fa ff ff 	mov    %rax,-0x568(%rbp)
    b0f1:	48 8d 05 38 cd 00 00 	lea    0xcd38(%rip),%rax        # 17e30 <g_769>
    b0f8:	48 89 85 a0 fa ff ff 	mov    %rax,-0x560(%rbp)
    b0ff:	48 8d 85 90 e2 ff ff 	lea    -0x1d70(%rbp),%rax
    b106:	48 89 85 a8 fa ff ff 	mov    %rax,-0x558(%rbp)
    b10d:	48 c7 85 b0 fa ff ff 	movq   $0x0,-0x550(%rbp)
    b114:	00 00 00 00 
    b118:	48 8d 85 90 e2 ff ff 	lea    -0x1d70(%rbp),%rax
    b11f:	48 89 85 b8 fa ff ff 	mov    %rax,-0x548(%rbp)
    b126:	48 8d 85 90 e2 ff ff 	lea    -0x1d70(%rbp),%rax
    b12d:	48 89 85 c0 fa ff ff 	mov    %rax,-0x540(%rbp)
    b134:	48 8d 85 98 e2 ff ff 	lea    -0x1d68(%rbp),%rax
    b13b:	48 89 85 c8 fa ff ff 	mov    %rax,-0x538(%rbp)
    b142:	48 8d 85 98 e2 ff ff 	lea    -0x1d68(%rbp),%rax
    b149:	48 89 85 d0 fa ff ff 	mov    %rax,-0x530(%rbp)
    b150:	48 8d 85 90 e2 ff ff 	lea    -0x1d70(%rbp),%rax
    b157:	48 89 85 d8 fa ff ff 	mov    %rax,-0x528(%rbp)
    b15e:	48 8d 85 90 e2 ff ff 	lea    -0x1d70(%rbp),%rax
    b165:	48 89 85 e0 fa ff ff 	mov    %rax,-0x520(%rbp)
    b16c:	48 8d 85 98 e2 ff ff 	lea    -0x1d68(%rbp),%rax
    b173:	48 89 85 e8 fa ff ff 	mov    %rax,-0x518(%rbp)
    b17a:	48 8d 85 90 e2 ff ff 	lea    -0x1d70(%rbp),%rax
    b181:	48 89 85 f0 fa ff ff 	mov    %rax,-0x510(%rbp)
    b188:	48 8d 85 90 e2 ff ff 	lea    -0x1d70(%rbp),%rax
    b18f:	48 89 85 f8 fa ff ff 	mov    %rax,-0x508(%rbp)
    b196:	48 8d 85 90 e2 ff ff 	lea    -0x1d70(%rbp),%rax
    b19d:	48 89 85 00 fb ff ff 	mov    %rax,-0x500(%rbp)
    b1a4:	48 8d 05 85 cc 00 00 	lea    0xcc85(%rip),%rax        # 17e30 <g_769>
    b1ab:	48 89 85 08 fb ff ff 	mov    %rax,-0x4f8(%rbp)
    b1b2:	48 8d 85 98 e2 ff ff 	lea    -0x1d68(%rbp),%rax
    b1b9:	48 89 85 10 fb ff ff 	mov    %rax,-0x4f0(%rbp)
    b1c0:	48 8d 85 90 e2 ff ff 	lea    -0x1d70(%rbp),%rax
    b1c7:	48 89 85 18 fb ff ff 	mov    %rax,-0x4e8(%rbp)
    b1ce:	48 8d 85 90 e2 ff ff 	lea    -0x1d70(%rbp),%rax
    b1d5:	48 89 85 20 fb ff ff 	mov    %rax,-0x4e0(%rbp)
    b1dc:	48 8d 85 90 e2 ff ff 	lea    -0x1d70(%rbp),%rax
    b1e3:	48 89 85 28 fb ff ff 	mov    %rax,-0x4d8(%rbp)
    b1ea:	48 8d 85 98 e2 ff ff 	lea    -0x1d68(%rbp),%rax
    b1f1:	48 89 85 30 fb ff ff 	mov    %rax,-0x4d0(%rbp)
    b1f8:	48 8d 85 90 e2 ff ff 	lea    -0x1d70(%rbp),%rax
    b1ff:	48 89 85 38 fb ff ff 	mov    %rax,-0x4c8(%rbp)
    b206:	48 c7 85 40 fb ff ff 	movq   $0x0,-0x4c0(%rbp)
    b20d:	00 00 00 00 
    b211:	48 8d 05 18 cc 00 00 	lea    0xcc18(%rip),%rax        # 17e30 <g_769>
    b218:	48 89 85 48 fb ff ff 	mov    %rax,-0x4b8(%rbp)
    b21f:	48 8d 85 90 e2 ff ff 	lea    -0x1d70(%rbp),%rax
    b226:	48 89 85 50 fb ff ff 	mov    %rax,-0x4b0(%rbp)
    b22d:	48 8d 85 98 e2 ff ff 	lea    -0x1d68(%rbp),%rax
    b234:	48 89 85 58 fb ff ff 	mov    %rax,-0x4a8(%rbp)
    b23b:	48 8d 05 ee cb 00 00 	lea    0xcbee(%rip),%rax        # 17e30 <g_769>
    b242:	48 89 85 60 fb ff ff 	mov    %rax,-0x4a0(%rbp)
    b249:	48 c7 85 68 fb ff ff 	movq   $0x0,-0x498(%rbp)
    b250:	00 00 00 00 
    b254:	48 8d 85 90 e2 ff ff 	lea    -0x1d70(%rbp),%rax
    b25b:	48 89 85 70 fb ff ff 	mov    %rax,-0x490(%rbp)
    b262:	48 8d 85 90 e2 ff ff 	lea    -0x1d70(%rbp),%rax
    b269:	48 89 85 78 fb ff ff 	mov    %rax,-0x488(%rbp)
    b270:	48 c7 85 80 fb ff ff 	movq   $0x0,-0x480(%rbp)
    b277:	00 00 00 00 
    b27b:	48 8d 85 90 e2 ff ff 	lea    -0x1d70(%rbp),%rax
    b282:	48 89 85 88 fb ff ff 	mov    %rax,-0x478(%rbp)
    b289:	48 8d 85 90 e2 ff ff 	lea    -0x1d70(%rbp),%rax
    b290:	48 89 85 90 fb ff ff 	mov    %rax,-0x470(%rbp)
    b297:	48 8d 85 98 e2 ff ff 	lea    -0x1d68(%rbp),%rax
    b29e:	48 89 85 98 fb ff ff 	mov    %rax,-0x468(%rbp)
    b2a5:	48 c7 85 a0 fb ff ff 	movq   $0x0,-0x460(%rbp)
    b2ac:	00 00 00 00 
    b2b0:	48 8d 85 98 e2 ff ff 	lea    -0x1d68(%rbp),%rax
    b2b7:	48 89 85 a8 fb ff ff 	mov    %rax,-0x458(%rbp)
    b2be:	48 8d 85 90 e2 ff ff 	lea    -0x1d70(%rbp),%rax
    b2c5:	48 89 85 b0 fb ff ff 	mov    %rax,-0x450(%rbp)
    b2cc:	48 8d 85 90 e2 ff ff 	lea    -0x1d70(%rbp),%rax
    b2d3:	48 89 85 b8 fb ff ff 	mov    %rax,-0x448(%rbp)
    b2da:	48 8d 85 98 e2 ff ff 	lea    -0x1d68(%rbp),%rax
    b2e1:	48 89 85 c0 fb ff ff 	mov    %rax,-0x440(%rbp)
    b2e8:	48 8d 05 41 cb 00 00 	lea    0xcb41(%rip),%rax        # 17e30 <g_769>
    b2ef:	48 89 85 c8 fb ff ff 	mov    %rax,-0x438(%rbp)
    b2f6:	48 8d 85 98 e2 ff ff 	lea    -0x1d68(%rbp),%rax
    b2fd:	48 89 85 d0 fb ff ff 	mov    %rax,-0x430(%rbp)
    b304:	48 8d 85 98 e2 ff ff 	lea    -0x1d68(%rbp),%rax
    b30b:	48 89 85 d8 fb ff ff 	mov    %rax,-0x428(%rbp)
    b312:	48 8d 85 98 e2 ff ff 	lea    -0x1d68(%rbp),%rax
    b319:	48 89 85 e0 fb ff ff 	mov    %rax,-0x420(%rbp)
    b320:	48 8d 85 90 e2 ff ff 	lea    -0x1d70(%rbp),%rax
    b327:	48 89 85 e8 fb ff ff 	mov    %rax,-0x418(%rbp)
    b32e:	48 8d 85 90 e2 ff ff 	lea    -0x1d70(%rbp),%rax
    b335:	48 89 85 f0 fb ff ff 	mov    %rax,-0x410(%rbp)
    b33c:	48 8d 05 ed ca 00 00 	lea    0xcaed(%rip),%rax        # 17e30 <g_769>
    b343:	48 89 85 f8 fb ff ff 	mov    %rax,-0x408(%rbp)
    b34a:	48 8d 85 90 e2 ff ff 	lea    -0x1d70(%rbp),%rax
    b351:	48 89 85 00 fc ff ff 	mov    %rax,-0x400(%rbp)
    b358:	48 8d 05 d1 ca 00 00 	lea    0xcad1(%rip),%rax        # 17e30 <g_769>
    b35f:	48 89 85 08 fc ff ff 	mov    %rax,-0x3f8(%rbp)
    b366:	48 8d 05 c3 ca 00 00 	lea    0xcac3(%rip),%rax        # 17e30 <g_769>
    b36d:	48 89 85 10 fc ff ff 	mov    %rax,-0x3f0(%rbp)
    b374:	48 8d 85 90 e2 ff ff 	lea    -0x1d70(%rbp),%rax
    b37b:	48 89 85 18 fc ff ff 	mov    %rax,-0x3e8(%rbp)
    b382:	48 8d 85 90 e2 ff ff 	lea    -0x1d70(%rbp),%rax
    b389:	48 89 85 20 fc ff ff 	mov    %rax,-0x3e0(%rbp)
    b390:	48 8d 85 90 e2 ff ff 	lea    -0x1d70(%rbp),%rax
    b397:	48 89 85 28 fc ff ff 	mov    %rax,-0x3d8(%rbp)
    b39e:	48 8d 85 90 e2 ff ff 	lea    -0x1d70(%rbp),%rax
    b3a5:	48 89 85 30 fc ff ff 	mov    %rax,-0x3d0(%rbp)
    b3ac:	48 8d 85 90 e2 ff ff 	lea    -0x1d70(%rbp),%rax
    b3b3:	48 89 85 38 fc ff ff 	mov    %rax,-0x3c8(%rbp)
    b3ba:	48 8d 05 6f ca 00 00 	lea    0xca6f(%rip),%rax        # 17e30 <g_769>
    b3c1:	48 89 85 40 fc ff ff 	mov    %rax,-0x3c0(%rbp)
    b3c8:	48 8d 85 90 e2 ff ff 	lea    -0x1d70(%rbp),%rax
    b3cf:	48 89 85 48 fc ff ff 	mov    %rax,-0x3b8(%rbp)
    b3d6:	48 8d 05 53 ca 00 00 	lea    0xca53(%rip),%rax        # 17e30 <g_769>
    b3dd:	48 89 85 50 fc ff ff 	mov    %rax,-0x3b0(%rbp)
    b3e4:	48 8d 05 45 ca 00 00 	lea    0xca45(%rip),%rax        # 17e30 <g_769>
    b3eb:	48 89 85 58 fc ff ff 	mov    %rax,-0x3a8(%rbp)
    b3f2:	48 8d 85 90 e2 ff ff 	lea    -0x1d70(%rbp),%rax
    b3f9:	48 89 85 60 fc ff ff 	mov    %rax,-0x3a0(%rbp)
    b400:	48 c7 85 68 fc ff ff 	movq   $0x0,-0x398(%rbp)
    b407:	00 00 00 00 
    b40b:	48 8d 85 90 e2 ff ff 	lea    -0x1d70(%rbp),%rax
    b412:	48 89 85 70 fc ff ff 	mov    %rax,-0x390(%rbp)
    b419:	48 8d 85 90 e2 ff ff 	lea    -0x1d70(%rbp),%rax
    b420:	48 89 85 78 fc ff ff 	mov    %rax,-0x388(%rbp)
    b427:	48 8d 85 98 e2 ff ff 	lea    -0x1d68(%rbp),%rax
    b42e:	48 89 85 80 fc ff ff 	mov    %rax,-0x380(%rbp)
    b435:	48 8d 85 98 e2 ff ff 	lea    -0x1d68(%rbp),%rax
    b43c:	48 89 85 88 fc ff ff 	mov    %rax,-0x378(%rbp)
    b443:	48 8d 85 90 e2 ff ff 	lea    -0x1d70(%rbp),%rax
    b44a:	48 89 85 90 fc ff ff 	mov    %rax,-0x370(%rbp)
    b451:	48 8d 85 90 e2 ff ff 	lea    -0x1d70(%rbp),%rax
    b458:	48 89 85 98 fc ff ff 	mov    %rax,-0x368(%rbp)
    b45f:	48 8d 85 98 e2 ff ff 	lea    -0x1d68(%rbp),%rax
    b466:	48 89 85 a0 fc ff ff 	mov    %rax,-0x360(%rbp)
    b46d:	48 8d 85 90 e2 ff ff 	lea    -0x1d70(%rbp),%rax
    b474:	48 89 85 a8 fc ff ff 	mov    %rax,-0x358(%rbp)
    b47b:	48 8d 85 90 e2 ff ff 	lea    -0x1d70(%rbp),%rax
    b482:	48 89 85 b0 fc ff ff 	mov    %rax,-0x350(%rbp)
    b489:	48 8d 85 90 e2 ff ff 	lea    -0x1d70(%rbp),%rax
    b490:	48 89 85 b8 fc ff ff 	mov    %rax,-0x348(%rbp)
    b497:	48 8d 05 92 c9 00 00 	lea    0xc992(%rip),%rax        # 17e30 <g_769>
    b49e:	48 89 85 c0 fc ff ff 	mov    %rax,-0x340(%rbp)
    b4a5:	48 8d 85 98 e2 ff ff 	lea    -0x1d68(%rbp),%rax
    b4ac:	48 89 85 c8 fc ff ff 	mov    %rax,-0x338(%rbp)
    b4b3:	48 8d 85 90 e2 ff ff 	lea    -0x1d70(%rbp),%rax
    b4ba:	48 89 85 d0 fc ff ff 	mov    %rax,-0x330(%rbp)
    b4c1:	48 8d 85 90 e2 ff ff 	lea    -0x1d70(%rbp),%rax
    b4c8:	48 89 85 d8 fc ff ff 	mov    %rax,-0x328(%rbp)
    b4cf:	48 8d 85 90 e2 ff ff 	lea    -0x1d70(%rbp),%rax
    b4d6:	48 89 85 e0 fc ff ff 	mov    %rax,-0x320(%rbp)
    b4dd:	48 8d 85 98 e2 ff ff 	lea    -0x1d68(%rbp),%rax
    b4e4:	48 89 85 e8 fc ff ff 	mov    %rax,-0x318(%rbp)
    b4eb:	48 8d 85 90 e2 ff ff 	lea    -0x1d70(%rbp),%rax
    b4f2:	48 89 85 f0 fc ff ff 	mov    %rax,-0x310(%rbp)
    b4f9:	48 c7 85 f8 fc ff ff 	movq   $0x0,-0x308(%rbp)
    b500:	00 00 00 00 
    b504:	48 8d 05 25 c9 00 00 	lea    0xc925(%rip),%rax        # 17e30 <g_769>
    b50b:	48 89 85 00 fd ff ff 	mov    %rax,-0x300(%rbp)
    b512:	48 8d 85 90 e2 ff ff 	lea    -0x1d70(%rbp),%rax
    b519:	48 89 85 08 fd ff ff 	mov    %rax,-0x2f8(%rbp)
    b520:	48 8d 85 98 e2 ff ff 	lea    -0x1d68(%rbp),%rax
    b527:	48 89 85 10 fd ff ff 	mov    %rax,-0x2f0(%rbp)
    b52e:	48 8d 05 fb c8 00 00 	lea    0xc8fb(%rip),%rax        # 17e30 <g_769>
    b535:	48 89 85 18 fd ff ff 	mov    %rax,-0x2e8(%rbp)
    b53c:	48 c7 85 20 fd ff ff 	movq   $0x0,-0x2e0(%rbp)
    b543:	00 00 00 00 
    b547:	48 8d 85 90 e2 ff ff 	lea    -0x1d70(%rbp),%rax
    b54e:	48 89 85 28 fd ff ff 	mov    %rax,-0x2d8(%rbp)
    b555:	48 8d 85 90 e2 ff ff 	lea    -0x1d70(%rbp),%rax
    b55c:	48 89 85 30 fd ff ff 	mov    %rax,-0x2d0(%rbp)
    b563:	48 c7 85 38 fd ff ff 	movq   $0x0,-0x2c8(%rbp)
    b56a:	00 00 00 00 
    b56e:	48 8d 85 90 e2 ff ff 	lea    -0x1d70(%rbp),%rax
    b575:	48 89 85 40 fd ff ff 	mov    %rax,-0x2c0(%rbp)
    b57c:	48 8d 85 90 e2 ff ff 	lea    -0x1d70(%rbp),%rax
    b583:	48 89 85 48 fd ff ff 	mov    %rax,-0x2b8(%rbp)
    b58a:	48 8d 85 98 e2 ff ff 	lea    -0x1d68(%rbp),%rax
    b591:	48 89 85 50 fd ff ff 	mov    %rax,-0x2b0(%rbp)
    b598:	48 c7 85 58 fd ff ff 	movq   $0x0,-0x2a8(%rbp)
    b59f:	00 00 00 00 
    b5a3:	48 8d 85 98 e2 ff ff 	lea    -0x1d68(%rbp),%rax
    b5aa:	48 89 85 60 fd ff ff 	mov    %rax,-0x2a0(%rbp)
    b5b1:	48 8d 85 90 e2 ff ff 	lea    -0x1d70(%rbp),%rax
    b5b8:	48 89 85 68 fd ff ff 	mov    %rax,-0x298(%rbp)
    b5bf:	48 8d 85 90 e2 ff ff 	lea    -0x1d70(%rbp),%rax
    b5c6:	48 89 85 70 fd ff ff 	mov    %rax,-0x290(%rbp)
    b5cd:	48 8d 05 5c c8 00 00 	lea    0xc85c(%rip),%rax        # 17e30 <g_769>
    b5d4:	48 89 85 78 fd ff ff 	mov    %rax,-0x288(%rbp)
    b5db:	48 8d 85 90 e2 ff ff 	lea    -0x1d70(%rbp),%rax
    b5e2:	48 89 85 80 fd ff ff 	mov    %rax,-0x280(%rbp)
    b5e9:	48 8d 05 40 c8 00 00 	lea    0xc840(%rip),%rax        # 17e30 <g_769>
    b5f0:	48 89 85 88 fd ff ff 	mov    %rax,-0x278(%rbp)
    b5f7:	48 8d 05 32 c8 00 00 	lea    0xc832(%rip),%rax        # 17e30 <g_769>
    b5fe:	48 89 85 90 fd ff ff 	mov    %rax,-0x270(%rbp)
    b605:	48 8d 05 24 c8 00 00 	lea    0xc824(%rip),%rax        # 17e30 <g_769>
    b60c:	48 89 85 98 fd ff ff 	mov    %rax,-0x268(%rbp)
    b613:	48 8d 85 98 e2 ff ff 	lea    -0x1d68(%rbp),%rax
    b61a:	48 89 85 a0 fd ff ff 	mov    %rax,-0x260(%rbp)
    b621:	48 c7 85 a8 fd ff ff 	movq   $0x0,-0x258(%rbp)
    b628:	00 00 00 00 
    b62c:	48 8d 85 98 e2 ff ff 	lea    -0x1d68(%rbp),%rax
    b633:	48 89 85 b0 fd ff ff 	mov    %rax,-0x250(%rbp)
    b63a:	48 8d 85 90 e2 ff ff 	lea    -0x1d70(%rbp),%rax
    b641:	48 89 85 b8 fd ff ff 	mov    %rax,-0x248(%rbp)
    b648:	48 8d 85 98 e2 ff ff 	lea    -0x1d68(%rbp),%rax
    b64f:	48 89 85 c0 fd ff ff 	mov    %rax,-0x240(%rbp)
    b656:	48 8d 85 90 e2 ff ff 	lea    -0x1d70(%rbp),%rax
    b65d:	48 89 85 c8 fd ff ff 	mov    %rax,-0x238(%rbp)
    b664:	48 c7 85 d0 fd ff ff 	movq   $0x0,-0x230(%rbp)
    b66b:	00 00 00 00 
    b66f:	48 c7 85 d8 fd ff ff 	movq   $0x0,-0x228(%rbp)
    b676:	00 00 00 00 
    b67a:	48 c7 85 e0 fd ff ff 	movq   $0x0,-0x220(%rbp)
    b681:	00 00 00 00 
    b685:	48 8d 85 90 e2 ff ff 	lea    -0x1d70(%rbp),%rax
    b68c:	48 89 85 e8 fd ff ff 	mov    %rax,-0x218(%rbp)
    b693:	48 c7 85 f0 fd ff ff 	movq   $0x0,-0x210(%rbp)
    b69a:	00 00 00 00 
    b69e:	48 8d 85 90 e2 ff ff 	lea    -0x1d70(%rbp),%rax
    b6a5:	48 89 85 f8 fd ff ff 	mov    %rax,-0x208(%rbp)
    b6ac:	48 8d 05 7d c7 00 00 	lea    0xc77d(%rip),%rax        # 17e30 <g_769>
    b6b3:	48 89 85 00 fe ff ff 	mov    %rax,-0x200(%rbp)
    b6ba:	48 8d 85 90 e2 ff ff 	lea    -0x1d70(%rbp),%rax
    b6c1:	48 89 85 08 fe ff ff 	mov    %rax,-0x1f8(%rbp)
    b6c8:	48 8d 85 98 e2 ff ff 	lea    -0x1d68(%rbp),%rax
    b6cf:	48 89 85 10 fe ff ff 	mov    %rax,-0x1f0(%rbp)
    b6d6:	48 8d 85 90 e2 ff ff 	lea    -0x1d70(%rbp),%rax
    b6dd:	48 89 85 18 fe ff ff 	mov    %rax,-0x1e8(%rbp)
    b6e4:	48 8d 85 90 e2 ff ff 	lea    -0x1d70(%rbp),%rax
    b6eb:	48 89 85 20 fe ff ff 	mov    %rax,-0x1e0(%rbp)
    b6f2:	48 8d 05 37 c7 00 00 	lea    0xc737(%rip),%rax        # 17e30 <g_769>
    b6f9:	48 89 85 28 fe ff ff 	mov    %rax,-0x1d8(%rbp)
    b700:	48 8d 85 98 e2 ff ff 	lea    -0x1d68(%rbp),%rax
    b707:	48 89 85 30 fe ff ff 	mov    %rax,-0x1d0(%rbp)
    b70e:	48 8d 05 1b c7 00 00 	lea    0xc71b(%rip),%rax        # 17e30 <g_769>
    b715:	48 89 85 38 fe ff ff 	mov    %rax,-0x1c8(%rbp)
    b71c:	48 8d 05 0d c7 00 00 	lea    0xc70d(%rip),%rax        # 17e30 <g_769>
    b723:	48 89 85 40 fe ff ff 	mov    %rax,-0x1c0(%rbp)
    b72a:	48 8d 85 98 e2 ff ff 	lea    -0x1d68(%rbp),%rax
    b731:	48 89 85 48 fe ff ff 	mov    %rax,-0x1b8(%rbp)
    b738:	48 c7 85 50 fe ff ff 	movq   $0x0,-0x1b0(%rbp)
    b73f:	00 00 00 00 
    b743:	48 8d 05 e6 c6 00 00 	lea    0xc6e6(%rip),%rax        # 17e30 <g_769>
    b74a:	48 89 85 58 fe ff ff 	mov    %rax,-0x1a8(%rbp)
    b751:	48 8d 85 98 e2 ff ff 	lea    -0x1d68(%rbp),%rax
    b758:	48 89 85 60 fe ff ff 	mov    %rax,-0x1a0(%rbp)
    b75f:	48 8d 85 90 e2 ff ff 	lea    -0x1d70(%rbp),%rax
    b766:	48 89 85 68 fe ff ff 	mov    %rax,-0x198(%rbp)
    b76d:	48 8d 05 bc c6 00 00 	lea    0xc6bc(%rip),%rax        # 17e30 <g_769>
    b774:	48 89 85 70 fe ff ff 	mov    %rax,-0x190(%rbp)
    b77b:	48 8d 85 98 e2 ff ff 	lea    -0x1d68(%rbp),%rax
    b782:	48 89 85 78 fe ff ff 	mov    %rax,-0x188(%rbp)
    b789:	48 8d 05 a0 c6 00 00 	lea    0xc6a0(%rip),%rax        # 17e30 <g_769>
    b790:	48 89 85 80 fe ff ff 	mov    %rax,-0x180(%rbp)
    b797:	48 8d 85 90 e2 ff ff 	lea    -0x1d70(%rbp),%rax
    b79e:	48 89 85 88 fe ff ff 	mov    %rax,-0x178(%rbp)
    b7a5:	48 c7 85 90 fe ff ff 	movq   $0x0,-0x170(%rbp)
    b7ac:	00 00 00 00 
    b7b0:	48 8d 85 90 e2 ff ff 	lea    -0x1d70(%rbp),%rax
    b7b7:	48 89 85 98 fe ff ff 	mov    %rax,-0x168(%rbp)
    b7be:	48 8d 05 6b c6 00 00 	lea    0xc66b(%rip),%rax        # 17e30 <g_769>
    b7c5:	48 89 85 a0 fe ff ff 	mov    %rax,-0x160(%rbp)
    b7cc:	48 8d 85 98 e2 ff ff 	lea    -0x1d68(%rbp),%rax
    b7d3:	48 89 85 a8 fe ff ff 	mov    %rax,-0x158(%rbp)
    b7da:	48 8d 85 90 e2 ff ff 	lea    -0x1d70(%rbp),%rax
    b7e1:	48 89 85 b0 fe ff ff 	mov    %rax,-0x150(%rbp)
    b7e8:	48 8d 85 90 e2 ff ff 	lea    -0x1d70(%rbp),%rax
    b7ef:	48 89 85 b8 fe ff ff 	mov    %rax,-0x148(%rbp)
    b7f6:	48 8d 05 33 c6 00 00 	lea    0xc633(%rip),%rax        # 17e30 <g_769>
    b7fd:	48 89 85 c0 fe ff ff 	mov    %rax,-0x140(%rbp)
    b804:	48 8d 05 25 c6 00 00 	lea    0xc625(%rip),%rax        # 17e30 <g_769>
    b80b:	48 89 85 c8 fe ff ff 	mov    %rax,-0x138(%rbp)
    b812:	48 8d 85 90 e2 ff ff 	lea    -0x1d70(%rbp),%rax
    b819:	48 89 85 d0 fe ff ff 	mov    %rax,-0x130(%rbp)
    b820:	48 8d 85 90 e2 ff ff 	lea    -0x1d70(%rbp),%rax
    b827:	48 89 85 d8 fe ff ff 	mov    %rax,-0x128(%rbp)
    b82e:	48 8d 85 98 e2 ff ff 	lea    -0x1d68(%rbp),%rax
    b835:	48 89 85 e0 fe ff ff 	mov    %rax,-0x120(%rbp)
    b83c:	48 8d 85 98 e2 ff ff 	lea    -0x1d68(%rbp),%rax
    b843:	48 89 85 e8 fe ff ff 	mov    %rax,-0x118(%rbp)
    b84a:	48 8d 85 90 e2 ff ff 	lea    -0x1d70(%rbp),%rax
    b851:	48 89 85 f0 fe ff ff 	mov    %rax,-0x110(%rbp)
    b858:	48 c7 85 f8 fe ff ff 	movq   $0x0,-0x108(%rbp)
    b85f:	00 00 00 00 
    b863:	48 8d 85 90 e2 ff ff 	lea    -0x1d70(%rbp),%rax
    b86a:	48 89 85 00 ff ff ff 	mov    %rax,-0x100(%rbp)
    b871:	48 8d 05 b8 c5 00 00 	lea    0xc5b8(%rip),%rax        # 17e30 <g_769>
    b878:	48 89 85 08 ff ff ff 	mov    %rax,-0xf8(%rbp)
    b87f:	48 8d 85 90 e2 ff ff 	lea    -0x1d70(%rbp),%rax
    b886:	48 89 85 10 ff ff ff 	mov    %rax,-0xf0(%rbp)
    b88d:	48 8d 05 9c c5 00 00 	lea    0xc59c(%rip),%rax        # 17e30 <g_769>
    b894:	48 89 85 18 ff ff ff 	mov    %rax,-0xe8(%rbp)
    b89b:	48 8d 85 90 e2 ff ff 	lea    -0x1d70(%rbp),%rax
    b8a2:	48 89 85 20 ff ff ff 	mov    %rax,-0xe0(%rbp)
    b8a9:	48 8d 85 98 e2 ff ff 	lea    -0x1d68(%rbp),%rax
    b8b0:	48 89 85 28 ff ff ff 	mov    %rax,-0xd8(%rbp)
    b8b7:	48 8d 05 72 c5 00 00 	lea    0xc572(%rip),%rax        # 17e30 <g_769>
    b8be:	48 89 85 30 ff ff ff 	mov    %rax,-0xd0(%rbp)
    b8c5:	48 8d 85 90 e2 ff ff 	lea    -0x1d70(%rbp),%rax
    b8cc:	48 89 85 38 ff ff ff 	mov    %rax,-0xc8(%rbp)
    b8d3:	48 8d 05 56 c5 00 00 	lea    0xc556(%rip),%rax        # 17e30 <g_769>
    b8da:	48 89 85 40 ff ff ff 	mov    %rax,-0xc0(%rbp)
    b8e1:	48 8d 05 48 c5 00 00 	lea    0xc548(%rip),%rax        # 17e30 <g_769>
    b8e8:	48 89 85 48 ff ff ff 	mov    %rax,-0xb8(%rbp)
    b8ef:	48 8d 05 3a c5 00 00 	lea    0xc53a(%rip),%rax        # 17e30 <g_769>
    b8f6:	48 89 85 50 ff ff ff 	mov    %rax,-0xb0(%rbp)
    b8fd:	48 8d 85 98 e2 ff ff 	lea    -0x1d68(%rbp),%rax
    b904:	48 89 85 58 ff ff ff 	mov    %rax,-0xa8(%rbp)
    b90b:	48 c7 85 60 ff ff ff 	movq   $0x0,-0xa0(%rbp)
    b912:	00 00 00 00 
    b916:	48 8d 85 98 e2 ff ff 	lea    -0x1d68(%rbp),%rax
    b91d:	48 89 85 68 ff ff ff 	mov    %rax,-0x98(%rbp)
    b924:	48 8d 85 90 e2 ff ff 	lea    -0x1d70(%rbp),%rax
    b92b:	48 89 85 70 ff ff ff 	mov    %rax,-0x90(%rbp)
    b932:	48 8d 85 98 e2 ff ff 	lea    -0x1d68(%rbp),%rax
    b939:	48 89 85 78 ff ff ff 	mov    %rax,-0x88(%rbp)
    b940:	48 8d 85 90 e2 ff ff 	lea    -0x1d70(%rbp),%rax
    b947:	48 89 45 80          	mov    %rax,-0x80(%rbp)
    b94b:	48 c7 45 88 00 00 00 	movq   $0x0,-0x78(%rbp)
    b952:	00 
    b953:	48 c7 45 90 00 00 00 	movq   $0x0,-0x70(%rbp)
    b95a:	00 
    b95b:	48 c7 45 98 00 00 00 	movq   $0x0,-0x68(%rbp)
    b962:	00 
    b963:	48 8d 85 90 e2 ff ff 	lea    -0x1d70(%rbp),%rax
    b96a:	48 89 45 a0          	mov    %rax,-0x60(%rbp)
    b96e:	48 c7 45 a8 00 00 00 	movq   $0x0,-0x58(%rbp)
    b975:	00 
    b976:	48 8d 85 90 e2 ff ff 	lea    -0x1d70(%rbp),%rax
    b97d:	48 89 45 b0          	mov    %rax,-0x50(%rbp)
    b981:	48 8d 05 a8 c4 00 00 	lea    0xc4a8(%rip),%rax        # 17e30 <g_769>
    b988:	48 89 45 b8          	mov    %rax,-0x48(%rbp)
    b98c:	c7 85 5c e2 ff ff 03 	movl   $0x3,-0x1da4(%rbp)
    b993:	00 00 00 
    b996:	c7 05 24 a7 00 00 00 	movl   $0x0,0xa724(%rip)        # 160c4 <g_56>
    b99d:	00 00 00 
    b9a0:	e9 a4 01 00 00       	jmpq   bb49 <func_37+0x294d>
    b9a5:	48 b8 f8 71 b8 0a 44 	movabs $0xad6eef440ab871f8,%rax
    b9ac:	ef 6e ad 
    b9af:	48 89 85 b0 e4 ff ff 	mov    %rax,-0x1b50(%rbp)
    b9b6:	48 8d 85 80 e1 ff ff 	lea    -0x1e80(%rbp),%rax
    b9bd:	48 89 85 b8 e4 ff ff 	mov    %rax,-0x1b48(%rbp)
    b9c4:	48 8d 85 78 e1 ff ff 	lea    -0x1e88(%rbp),%rax
    b9cb:	48 89 85 c0 e4 ff ff 	mov    %rax,-0x1b40(%rbp)
    b9d2:	48 8d 85 7c e1 ff ff 	lea    -0x1e84(%rbp),%rax
    b9d9:	48 89 85 c8 e4 ff ff 	mov    %rax,-0x1b38(%rbp)
    b9e0:	48 8d 05 01 a7 00 00 	lea    0xa701(%rip),%rax        # 160e8 <g_135>
    b9e7:	48 89 85 d0 e4 ff ff 	mov    %rax,-0x1b30(%rbp)
    b9ee:	48 8d 85 90 e5 ff ff 	lea    -0x1a70(%rbp),%rax
    b9f5:	48 83 c0 14          	add    $0x14,%rax
    b9f9:	48 89 85 d8 e4 ff ff 	mov    %rax,-0x1b28(%rbp)
    ba00:	48 8d 85 80 e1 ff ff 	lea    -0x1e80(%rbp),%rax
    ba07:	48 89 85 e0 e4 ff ff 	mov    %rax,-0x1b20(%rbp)
    ba0e:	c7 85 bc e1 ff ff 00 	movl   $0x0,-0x1e44(%rbp)
    ba15:	00 00 00 
    ba18:	eb 1e                	jmp    ba38 <func_37+0x283c>
    ba1a:	8b 85 bc e1 ff ff    	mov    -0x1e44(%rbp),%eax
    ba20:	48 98                	cltq   
    ba22:	48 8d 95 80 e1 ff ff 	lea    -0x1e80(%rbp),%rdx
    ba29:	48 89 94 c5 b0 f1 ff 	mov    %rdx,-0xe50(%rbp,%rax,8)
    ba30:	ff 
    ba31:	83 85 bc e1 ff ff 01 	addl   $0x1,-0x1e44(%rbp)
    ba38:	83 bd bc e1 ff ff 02 	cmpl   $0x2,-0x1e44(%rbp)
    ba3f:	7e d9                	jle    ba1a <func_37+0x281e>
    ba41:	48 8b 05 88 c3 00 00 	mov    0xc388(%rip),%rax        # 17dd0 <g_614>
    ba48:	0f b7 00             	movzwl (%rax),%eax
    ba4b:	0f b7 d8             	movzwl %ax,%ebx
    ba4e:	44 0f b6 a5 5c e1 ff 	movzbl -0x1ea4(%rbp),%r12d
    ba55:	ff 
    ba56:	48 8b 85 68 e4 ff ff 	mov    -0x1b98(%rbp),%rax
    ba5d:	89 c1                	mov    %eax,%ecx
    ba5f:	48 81 bd 48 e4 ff ff 	cmpq   $0x3a4a5bb6,-0x1bb8(%rbp)
    ba66:	b6 5b 4a 3a 
    ba6a:	0f 9f c0             	setg   %al
    ba6d:	0f b6 d0             	movzbl %al,%edx
    ba70:	0f b6 85 5c e1 ff ff 	movzbl -0x1ea4(%rbp),%eax
    ba77:	39 c2                	cmp    %eax,%edx
    ba79:	0f 9f c0             	setg   %al
    ba7c:	0f b6 d0             	movzbl %al,%edx
    ba7f:	8b 85 80 e1 ff ff    	mov    -0x1e80(%rbp),%eax
    ba85:	39 c2                	cmp    %eax,%edx
    ba87:	0f 9d c0             	setge  %al
    ba8a:	0f b6 c0             	movzbl %al,%eax
    ba8d:	48 39 85 68 e4 ff ff 	cmp    %rax,-0x1b98(%rbp)
    ba94:	0f 94 c0             	sete   %al
    ba97:	0f b6 c0             	movzbl %al,%eax
    ba9a:	89 ce                	mov    %ecx,%esi
    ba9c:	89 c7                	mov    %eax,%edi
    ba9e:	e8 ea b1 ff ff       	callq  6c8d <safe_rshift_func_uint8_t_u_s>
    baa3:	3c e5                	cmp    $0xe5,%al
    baa5:	0f 96 c0             	setbe  %al
    baa8:	0f b6 c0             	movzbl %al,%eax
    baab:	be 0b 00 00 00       	mov    $0xb,%esi
    bab0:	89 c7                	mov    %eax,%edi
    bab2:	e8 c3 b3 ff ff       	callq  6e7a <safe_rshift_func_uint16_t_u_u>
    bab7:	66 35 68 01          	xor    $0x168,%ax
    babb:	0f b7 c0             	movzwl %ax,%eax
    babe:	44 89 e6             	mov    %r12d,%esi
    bac1:	89 c7                	mov    %eax,%edi
    bac3:	e8 37 b2 ff ff       	callq  6cff <safe_add_func_uint16_t_u_u>
    bac8:	0f b6 95 5c e1 ff ff 	movzbl -0x1ea4(%rbp),%edx
    bacf:	66 39 d0             	cmp    %dx,%ax
    bad2:	0f 96 c0             	setbe  %al
    bad5:	0f b6 c0             	movzbl %al,%eax
    bad8:	48 39 85 50 e1 ff ff 	cmp    %rax,-0x1eb0(%rbp)
    badf:	0f 95 c0             	setne  %al
    bae2:	0f b6 c0             	movzbl %al,%eax
    bae5:	89 de                	mov    %ebx,%esi
    bae7:	89 c7                	mov    %eax,%edi
    bae9:	e8 18 b3 ff ff       	callq  6e06 <safe_lshift_func_uint16_t_u_u>
    baee:	b9 01 00 00 00       	mov    $0x1,%ecx
    baf3:	48 8b 85 a0 e2 ff ff 	mov    -0x1d60(%rbp),%rax
    bafa:	8b 10                	mov    (%rax),%edx
    bafc:	48 8b 85 a0 e2 ff ff 	mov    -0x1d60(%rbp),%rax
    bb03:	21 ca                	and    %ecx,%edx
    bb05:	89 10                	mov    %edx,(%rax)
    bb07:	b8 00 00 00 00       	mov    $0x0,%eax
    bb0c:	48 98                	cltq   
    bb0e:	48 09 85 b0 e4 ff ff 	or     %rax,-0x1b50(%rbp)
    bb15:	48 8d 15 1c c3 00 00 	lea    0xc31c(%rip),%rdx        # 17e38 <g_768>
    bb1c:	48 8b 85 e8 fe ff ff 	mov    -0x118(%rbp),%rax
    bb23:	48 89 02             	mov    %rax,(%rdx)
    bb26:	0f b6 85 5c e1 ff ff 	movzbl -0x1ea4(%rbp),%eax
    bb2d:	89 85 7c e1 ff ff    	mov    %eax,-0x1e84(%rbp)
    bb33:	83 ad 88 e1 ff ff 01 	subl   $0x1,-0x1e78(%rbp)
    bb3a:	8b 05 84 a5 00 00    	mov    0xa584(%rip),%eax        # 160c4 <g_56>
    bb40:	83 c0 01             	add    $0x1,%eax
    bb43:	89 05 7b a5 00 00    	mov    %eax,0xa57b(%rip)        # 160c4 <g_56>
    bb49:	8b 05 75 a5 00 00    	mov    0xa575(%rip),%eax        # 160c4 <g_56>
    bb4f:	85 c0                	test   %eax,%eax
    bb51:	0f 84 4e fe ff ff    	je     b9a5 <func_37+0x27a9>
    bb57:	48 8b 85 50 e1 ff ff 	mov    -0x1eb0(%rbp),%rax
    bb5e:	0f b7 d0             	movzwl %ax,%edx
    bb61:	0f b6 85 5c e1 ff ff 	movzbl -0x1ea4(%rbp),%eax
    bb68:	48 39 85 50 e1 ff ff 	cmp    %rax,-0x1eb0(%rbp)
    bb6f:	0f 9f c0             	setg   %al
    bb72:	0f b6 c0             	movzbl %al,%eax
    bb75:	89 d6                	mov    %edx,%esi
    bb77:	89 c7                	mov    %eax,%edi
    bb79:	e8 de b1 ff ff       	callq  6d5c <safe_mod_func_uint16_t_u_u>
    bb7e:	0f bf d0             	movswl %ax,%edx
    bb81:	48 8b 85 50 e1 ff ff 	mov    -0x1eb0(%rbp),%rax
    bb88:	98                   	cwtl   
    bb89:	89 d6                	mov    %edx,%esi
    bb8b:	89 c7                	mov    %eax,%edi
    bb8d:	e8 63 a8 ff ff       	callq  63f5 <safe_mul_func_int16_t_s_s>
    bb92:	0f bf d0             	movswl %ax,%edx
    bb95:	8b 85 7c e1 ff ff    	mov    -0x1e84(%rbp),%eax
    bb9b:	39 c2                	cmp    %eax,%edx
    bb9d:	0f 9d c2             	setge  %dl
    bba0:	48 8b 05 69 c1 00 00 	mov    0xc169(%rip),%rax        # 17d10 <g_288>
    bba7:	0f b6 d2             	movzbl %dl,%edx
    bbaa:	66 89 10             	mov    %dx,(%rax)
    bbad:	0f b7 00             	movzwl (%rax),%eax
    bbb0:	98                   	cwtl   
    bbb1:	be 02 00 00 00       	mov    $0x2,%esi
    bbb6:	89 c7                	mov    %eax,%edi
    bbb8:	e8 6d a9 ff ff       	callq  652a <safe_rshift_func_int16_t_s_s>
    bbbd:	66 85 c0             	test   %ax,%ax
    bbc0:	74 0c                	je     bbce <func_37+0x29d2>
    bbc2:	0f b7 85 70 e1 ff ff 	movzwl -0x1e90(%rbp),%eax
    bbc9:	e9 3b 24 00 00       	jmpq   e009 <func_37+0x4e0d>
    bbce:	48 8d 05 1f a5 00 00 	lea    0xa51f(%rip),%rax        # 160f4 <g_159>
    bbd5:	48 89 85 98 e4 ff ff 	mov    %rax,-0x1b68(%rbp)
    bbdc:	48 8d 85 80 e5 ff ff 	lea    -0x1a80(%rbp),%rax
    bbe3:	48 89 85 a0 e4 ff ff 	mov    %rax,-0x1b60(%rbp)
    bbea:	48 c7 85 50 e1 ff ff 	movq   $0xff,-0x1eb0(%rbp)
    bbf1:	ff 00 00 00 
    bbf5:	66 83 bd 72 e1 ff ff 	cmpw   $0x0,-0x1e8e(%rbp)
    bbfc:	00 
    bbfd:	74 07                	je     bc06 <func_37+0x2a0a>
    bbff:	b8 01 00 00 00       	mov    $0x1,%eax
    bc04:	eb 05                	jmp    bc0b <func_37+0x2a0f>
    bc06:	b8 00 00 00 00       	mov    $0x0,%eax
    bc0b:	0f be c0             	movsbl %al,%eax
    bc0e:	be 01 00 00 00       	mov    $0x1,%esi
    bc13:	89 c7                	mov    %eax,%edi
    bc15:	e8 f8 a5 ff ff       	callq  6212 <safe_mul_func_int8_t_s_s>
    bc1a:	48 8b 95 a0 e2 ff ff 	mov    -0x1d60(%rbp),%rdx
    bc21:	8b 0a                	mov    (%rdx),%ecx
    bc23:	0f be d0             	movsbl %al,%edx
    bc26:	48 8b 85 a0 e2 ff ff 	mov    -0x1d60(%rbp),%rax
    bc2d:	31 ca                	xor    %ecx,%edx
    bc2f:	89 10                	mov    %edx,(%rax)
    bc31:	48 8b 85 50 e1 ff ff 	mov    -0x1eb0(%rbp),%rax
    bc38:	89 85 48 e2 ff ff    	mov    %eax,-0x1db8(%rbp)
    bc3e:	0f b6 85 5c e1 ff ff 	movzbl -0x1ea4(%rbp),%eax
    bc45:	48 35 ff ff 00 00    	xor    $0xffff,%rax
    bc4b:	48 89 c6             	mov    %rax,%rsi
    bc4e:	48 c7 c7 f7 ff ff ff 	mov    $0xfffffffffffffff7,%rdi
    bc55:	e8 4e ac ff ff       	callq  68a8 <safe_sub_func_int64_t_s_s>
    bc5a:	48 89 c2             	mov    %rax,%rdx
    bc5d:	48 8b 85 a0 e2 ff ff 	mov    -0x1d60(%rbp),%rax
    bc64:	89 10                	mov    %edx,(%rax)
    bc66:	48 8b 85 50 e1 ff ff 	mov    -0x1eb0(%rbp),%rax
    bc6d:	89 c2                	mov    %eax,%edx
    bc6f:	48 8b 85 98 e4 ff ff 	mov    -0x1b68(%rbp),%rax
    bc76:	89 10                	mov    %edx,(%rax)
    bc78:	48 8b 85 98 e4 ff ff 	mov    -0x1b68(%rbp),%rax
    bc7f:	8b 00                	mov    (%rax),%eax
    bc81:	48 63 d0             	movslq %eax,%rdx
    bc84:	48 8b 05 5d a5 00 00 	mov    0xa55d(%rip),%rax        # 161e8 <g_1531>
    bc8b:	48 31 d0             	xor    %rdx,%rax
    bc8e:	48 89 05 53 a5 00 00 	mov    %rax,0xa553(%rip)        # 161e8 <g_1531>
    bc95:	48 8b 85 70 e4 ff ff 	mov    -0x1b90(%rbp),%rax
    bc9c:	48 8b 00             	mov    (%rax),%rax
    bc9f:	48 8b 00             	mov    (%rax),%rax
    bca2:	48 8b 00             	mov    (%rax),%rax
    bca5:	48 8b 00             	mov    (%rax),%rax
    bca8:	0f b7 00             	movzwl (%rax),%eax
    bcab:	66 23 85 70 e1 ff ff 	and    -0x1e90(%rbp),%ax
    bcb2:	89 c2                	mov    %eax,%edx
    bcb4:	48 8b 85 70 e4 ff ff 	mov    -0x1b90(%rbp),%rax
    bcbb:	48 8b 00             	mov    (%rax),%rax
    bcbe:	48 8b 00             	mov    (%rax),%rax
    bcc1:	48 8b 00             	mov    (%rax),%rax
    bcc4:	48 8b 00             	mov    (%rax),%rax
    bcc7:	66 89 10             	mov    %dx,(%rax)
    bcca:	0f b7 00             	movzwl (%rax),%eax
    bccd:	0f b7 d0             	movzwl %ax,%edx
    bcd0:	0f b6 85 5c e1 ff ff 	movzbl -0x1ea4(%rbp),%eax
    bcd7:	89 d6                	mov    %edx,%esi
    bcd9:	89 c7                	mov    %eax,%edi
    bcdb:	e8 5d b0 ff ff       	callq  6d3d <safe_mul_func_uint16_t_u_u>
    bce0:	89 c3                	mov    %eax,%ebx
    bce2:	0f b7 85 58 e1 ff ff 	movzwl -0x1ea8(%rbp),%eax
    bce9:	0f b7 c0             	movzwl %ax,%eax
    bcec:	89 c6                	mov    %eax,%esi
    bcee:	bf 01 00 00 00       	mov    $0x1,%edi
    bcf3:	e8 05 b2 ff ff       	callq  6efd <safe_mod_func_uint32_t_u_u>
    bcf8:	89 c2                	mov    %eax,%edx
    bcfa:	8b 85 5c e2 ff ff    	mov    -0x1da4(%rbp),%eax
    bd00:	21 d0                	and    %edx,%eax
    bd02:	83 f0 02             	xor    $0x2,%eax
    bd05:	21 d8                	and    %ebx,%eax
    bd07:	83 f0 01             	xor    $0x1,%eax
    bd0a:	0f bf d0             	movswl %ax,%edx
    bd0d:	8b 85 5c e2 ff ff    	mov    -0x1da4(%rbp),%eax
    bd13:	48 98                	cltq   
    bd15:	48 39 85 50 e1 ff ff 	cmp    %rax,-0x1eb0(%rbp)
    bd1c:	0f 9f c0             	setg   %al
    bd1f:	0f b6 c0             	movzbl %al,%eax
    bd22:	89 d6                	mov    %edx,%esi
    bd24:	89 c7                	mov    %eax,%edi
    bd26:	e8 88 a6 ff ff       	callq  63b3 <safe_add_func_int16_t_s_s>
    bd2b:	0f b7 d0             	movzwl %ax,%edx
    bd2e:	8b 85 54 e8 ff ff    	mov    -0x17ac(%rbp),%eax
    bd34:	0f b7 c0             	movzwl %ax,%eax
    bd37:	89 d6                	mov    %edx,%esi
    bd39:	89 c7                	mov    %eax,%edi
    bd3b:	e8 df af ff ff       	callq  6d1f <safe_sub_func_uint16_t_u_u>
    bd40:	48 8b 85 a0 e2 ff ff 	mov    -0x1d60(%rbp),%rax
    bd47:	48 8b 95 50 e1 ff ff 	mov    -0x1eb0(%rbp),%rdx
    bd4e:	89 10                	mov    %edx,(%rax)
    bd50:	c7 85 b4 e1 ff ff 00 	movl   $0x0,-0x1e4c(%rbp)
    bd57:	00 00 00 
    bd5a:	e9 41 0b 00 00       	jmpq   c8a0 <func_37+0x36a4>
    bd5f:	48 b8 42 85 17 1e 9a 	movabs $0x815c629a1e178542,%rax
    bd66:	62 5c 81 
    bd69:	48 89 85 a8 e4 ff ff 	mov    %rax,-0x1b58(%rbp)
    bd70:	48 8d 85 a0 e2 ff ff 	lea    -0x1d60(%rbp),%rax
    bd77:	48 89 85 d8 e2 ff ff 	mov    %rax,-0x1d28(%rbp)
    bd7e:	48 8d 85 d8 e2 ff ff 	lea    -0x1d28(%rbp),%rax
    bd85:	48 89 85 b0 f1 ff ff 	mov    %rax,-0xe50(%rbp)
    bd8c:	48 8d 85 d8 e2 ff ff 	lea    -0x1d28(%rbp),%rax
    bd93:	48 89 85 b8 f1 ff ff 	mov    %rax,-0xe48(%rbp)
    bd9a:	48 8d 85 d8 e2 ff ff 	lea    -0x1d28(%rbp),%rax
    bda1:	48 89 85 c0 f1 ff ff 	mov    %rax,-0xe40(%rbp)
    bda8:	48 8d 85 d8 e2 ff ff 	lea    -0x1d28(%rbp),%rax
    bdaf:	48 89 85 c8 f1 ff ff 	mov    %rax,-0xe38(%rbp)
    bdb6:	48 c7 85 d0 f1 ff ff 	movq   $0x0,-0xe30(%rbp)
    bdbd:	00 00 00 00 
    bdc1:	48 8d 85 d8 e2 ff ff 	lea    -0x1d28(%rbp),%rax
    bdc8:	48 89 85 d8 f1 ff ff 	mov    %rax,-0xe28(%rbp)
    bdcf:	48 c7 85 e0 f1 ff ff 	movq   $0x0,-0xe20(%rbp)
    bdd6:	00 00 00 00 
    bdda:	48 8d 85 d8 e2 ff ff 	lea    -0x1d28(%rbp),%rax
    bde1:	48 89 85 e8 f1 ff ff 	mov    %rax,-0xe18(%rbp)
    bde8:	48 8d 85 d8 e2 ff ff 	lea    -0x1d28(%rbp),%rax
    bdef:	48 89 85 f0 f1 ff ff 	mov    %rax,-0xe10(%rbp)
    bdf6:	48 8d 85 d8 e2 ff ff 	lea    -0x1d28(%rbp),%rax
    bdfd:	48 89 85 f8 f1 ff ff 	mov    %rax,-0xe08(%rbp)
    be04:	48 8d 85 d8 e2 ff ff 	lea    -0x1d28(%rbp),%rax
    be0b:	48 89 85 00 f2 ff ff 	mov    %rax,-0xe00(%rbp)
    be12:	48 8d 85 d8 e2 ff ff 	lea    -0x1d28(%rbp),%rax
    be19:	48 89 85 08 f2 ff ff 	mov    %rax,-0xdf8(%rbp)
    be20:	48 8d 85 d8 e2 ff ff 	lea    -0x1d28(%rbp),%rax
    be27:	48 89 85 10 f2 ff ff 	mov    %rax,-0xdf0(%rbp)
    be2e:	48 8d 85 d8 e2 ff ff 	lea    -0x1d28(%rbp),%rax
    be35:	48 89 85 18 f2 ff ff 	mov    %rax,-0xde8(%rbp)
    be3c:	48 8d 85 d8 e2 ff ff 	lea    -0x1d28(%rbp),%rax
    be43:	48 89 85 20 f2 ff ff 	mov    %rax,-0xde0(%rbp)
    be4a:	48 8d 85 d8 e2 ff ff 	lea    -0x1d28(%rbp),%rax
    be51:	48 89 85 28 f2 ff ff 	mov    %rax,-0xdd8(%rbp)
    be58:	48 8d 85 d8 e2 ff ff 	lea    -0x1d28(%rbp),%rax
    be5f:	48 89 85 30 f2 ff ff 	mov    %rax,-0xdd0(%rbp)
    be66:	48 8d 85 d8 e2 ff ff 	lea    -0x1d28(%rbp),%rax
    be6d:	48 89 85 38 f2 ff ff 	mov    %rax,-0xdc8(%rbp)
    be74:	48 8d 85 d8 e2 ff ff 	lea    -0x1d28(%rbp),%rax
    be7b:	48 89 85 40 f2 ff ff 	mov    %rax,-0xdc0(%rbp)
    be82:	48 8d 85 d8 e2 ff ff 	lea    -0x1d28(%rbp),%rax
    be89:	48 89 85 48 f2 ff ff 	mov    %rax,-0xdb8(%rbp)
    be90:	48 8d 85 d8 e2 ff ff 	lea    -0x1d28(%rbp),%rax
    be97:	48 89 85 50 f2 ff ff 	mov    %rax,-0xdb0(%rbp)
    be9e:	48 8d 85 d8 e2 ff ff 	lea    -0x1d28(%rbp),%rax
    bea5:	48 89 85 58 f2 ff ff 	mov    %rax,-0xda8(%rbp)
    beac:	48 8d 85 d8 e2 ff ff 	lea    -0x1d28(%rbp),%rax
    beb3:	48 89 85 60 f2 ff ff 	mov    %rax,-0xda0(%rbp)
    beba:	48 8d 85 d8 e2 ff ff 	lea    -0x1d28(%rbp),%rax
    bec1:	48 89 85 68 f2 ff ff 	mov    %rax,-0xd98(%rbp)
    bec8:	48 8d 85 d8 e2 ff ff 	lea    -0x1d28(%rbp),%rax
    becf:	48 89 85 70 f2 ff ff 	mov    %rax,-0xd90(%rbp)
    bed6:	48 8d 85 d8 e2 ff ff 	lea    -0x1d28(%rbp),%rax
    bedd:	48 89 85 78 f2 ff ff 	mov    %rax,-0xd88(%rbp)
    bee4:	48 8d 85 d8 e2 ff ff 	lea    -0x1d28(%rbp),%rax
    beeb:	48 89 85 80 f2 ff ff 	mov    %rax,-0xd80(%rbp)
    bef2:	48 8d 85 d8 e2 ff ff 	lea    -0x1d28(%rbp),%rax
    bef9:	48 89 85 88 f2 ff ff 	mov    %rax,-0xd78(%rbp)
    bf00:	48 8d 85 d8 e2 ff ff 	lea    -0x1d28(%rbp),%rax
    bf07:	48 89 85 90 f2 ff ff 	mov    %rax,-0xd70(%rbp)
    bf0e:	48 8d 85 d8 e2 ff ff 	lea    -0x1d28(%rbp),%rax
    bf15:	48 89 85 98 f2 ff ff 	mov    %rax,-0xd68(%rbp)
    bf1c:	48 8d 85 d8 e2 ff ff 	lea    -0x1d28(%rbp),%rax
    bf23:	48 89 85 a0 f2 ff ff 	mov    %rax,-0xd60(%rbp)
    bf2a:	48 8d 85 d8 e2 ff ff 	lea    -0x1d28(%rbp),%rax
    bf31:	48 89 85 a8 f2 ff ff 	mov    %rax,-0xd58(%rbp)
    bf38:	48 8d 85 d8 e2 ff ff 	lea    -0x1d28(%rbp),%rax
    bf3f:	48 89 85 b0 f2 ff ff 	mov    %rax,-0xd50(%rbp)
    bf46:	48 8d 85 d8 e2 ff ff 	lea    -0x1d28(%rbp),%rax
    bf4d:	48 89 85 b8 f2 ff ff 	mov    %rax,-0xd48(%rbp)
    bf54:	48 8d 85 d8 e2 ff ff 	lea    -0x1d28(%rbp),%rax
    bf5b:	48 89 85 c0 f2 ff ff 	mov    %rax,-0xd40(%rbp)
    bf62:	48 c7 85 c8 f2 ff ff 	movq   $0x0,-0xd38(%rbp)
    bf69:	00 00 00 00 
    bf6d:	48 8d 85 d8 e2 ff ff 	lea    -0x1d28(%rbp),%rax
    bf74:	48 89 85 d0 f2 ff ff 	mov    %rax,-0xd30(%rbp)
    bf7b:	48 c7 85 d8 f2 ff ff 	movq   $0x0,-0xd28(%rbp)
    bf82:	00 00 00 00 
    bf86:	48 8d 85 d8 e2 ff ff 	lea    -0x1d28(%rbp),%rax
    bf8d:	48 89 85 e0 f2 ff ff 	mov    %rax,-0xd20(%rbp)
    bf94:	48 8d 85 d8 e2 ff ff 	lea    -0x1d28(%rbp),%rax
    bf9b:	48 89 85 e8 f2 ff ff 	mov    %rax,-0xd18(%rbp)
    bfa2:	48 8d 85 d8 e2 ff ff 	lea    -0x1d28(%rbp),%rax
    bfa9:	48 89 85 f0 f2 ff ff 	mov    %rax,-0xd10(%rbp)
    bfb0:	48 8d 85 d8 e2 ff ff 	lea    -0x1d28(%rbp),%rax
    bfb7:	48 89 85 f8 f2 ff ff 	mov    %rax,-0xd08(%rbp)
    bfbe:	48 c7 85 00 f3 ff ff 	movq   $0x0,-0xd00(%rbp)
    bfc5:	00 00 00 00 
    bfc9:	48 8d 85 d8 e2 ff ff 	lea    -0x1d28(%rbp),%rax
    bfd0:	48 89 85 08 f3 ff ff 	mov    %rax,-0xcf8(%rbp)
    bfd7:	48 8d 85 d8 e2 ff ff 	lea    -0x1d28(%rbp),%rax
    bfde:	48 89 85 10 f3 ff ff 	mov    %rax,-0xcf0(%rbp)
    bfe5:	48 c7 85 18 f3 ff ff 	movq   $0x0,-0xce8(%rbp)
    bfec:	00 00 00 00 
    bff0:	48 8d 85 d8 e2 ff ff 	lea    -0x1d28(%rbp),%rax
    bff7:	48 89 85 20 f3 ff ff 	mov    %rax,-0xce0(%rbp)
    bffe:	48 8d 85 d8 e2 ff ff 	lea    -0x1d28(%rbp),%rax
    c005:	48 89 85 28 f3 ff ff 	mov    %rax,-0xcd8(%rbp)
    c00c:	48 8d 85 d8 e2 ff ff 	lea    -0x1d28(%rbp),%rax
    c013:	48 89 85 30 f3 ff ff 	mov    %rax,-0xcd0(%rbp)
    c01a:	48 8d 85 d8 e2 ff ff 	lea    -0x1d28(%rbp),%rax
    c021:	48 89 85 38 f3 ff ff 	mov    %rax,-0xcc8(%rbp)
    c028:	48 8d 85 d8 e2 ff ff 	lea    -0x1d28(%rbp),%rax
    c02f:	48 89 85 40 f3 ff ff 	mov    %rax,-0xcc0(%rbp)
    c036:	48 8d 85 d8 e2 ff ff 	lea    -0x1d28(%rbp),%rax
    c03d:	48 89 85 48 f3 ff ff 	mov    %rax,-0xcb8(%rbp)
    c044:	48 8d 85 d8 e2 ff ff 	lea    -0x1d28(%rbp),%rax
    c04b:	48 89 85 50 f3 ff ff 	mov    %rax,-0xcb0(%rbp)
    c052:	48 8d 85 d8 e2 ff ff 	lea    -0x1d28(%rbp),%rax
    c059:	48 89 85 58 f3 ff ff 	mov    %rax,-0xca8(%rbp)
    c060:	48 8d 85 d8 e2 ff ff 	lea    -0x1d28(%rbp),%rax
    c067:	48 89 85 60 f3 ff ff 	mov    %rax,-0xca0(%rbp)
    c06e:	48 8d 85 d8 e2 ff ff 	lea    -0x1d28(%rbp),%rax
    c075:	48 89 85 68 f3 ff ff 	mov    %rax,-0xc98(%rbp)
    c07c:	48 8d 85 d8 e2 ff ff 	lea    -0x1d28(%rbp),%rax
    c083:	48 89 85 70 f3 ff ff 	mov    %rax,-0xc90(%rbp)
    c08a:	48 8d 85 d8 e2 ff ff 	lea    -0x1d28(%rbp),%rax
    c091:	48 89 85 78 f3 ff ff 	mov    %rax,-0xc88(%rbp)
    c098:	48 8d 85 d8 e2 ff ff 	lea    -0x1d28(%rbp),%rax
    c09f:	48 89 85 80 f3 ff ff 	mov    %rax,-0xc80(%rbp)
    c0a6:	48 8d 85 d8 e2 ff ff 	lea    -0x1d28(%rbp),%rax
    c0ad:	48 89 85 88 f3 ff ff 	mov    %rax,-0xc78(%rbp)
    c0b4:	48 c7 85 90 f3 ff ff 	movq   $0x0,-0xc70(%rbp)
    c0bb:	00 00 00 00 
    c0bf:	48 8d 85 d8 e2 ff ff 	lea    -0x1d28(%rbp),%rax
    c0c6:	48 89 85 98 f3 ff ff 	mov    %rax,-0xc68(%rbp)
    c0cd:	48 8d 85 d8 e2 ff ff 	lea    -0x1d28(%rbp),%rax
    c0d4:	48 89 85 a0 f3 ff ff 	mov    %rax,-0xc60(%rbp)
    c0db:	48 8d 85 d8 e2 ff ff 	lea    -0x1d28(%rbp),%rax
    c0e2:	48 89 85 a8 f3 ff ff 	mov    %rax,-0xc58(%rbp)
    c0e9:	48 8d 85 d8 e2 ff ff 	lea    -0x1d28(%rbp),%rax
    c0f0:	48 89 85 b0 f3 ff ff 	mov    %rax,-0xc50(%rbp)
    c0f7:	48 8d 85 d8 e2 ff ff 	lea    -0x1d28(%rbp),%rax
    c0fe:	48 89 85 b8 f3 ff ff 	mov    %rax,-0xc48(%rbp)
    c105:	48 c7 85 c0 f3 ff ff 	movq   $0x0,-0xc40(%rbp)
    c10c:	00 00 00 00 
    c110:	48 c7 85 c8 f3 ff ff 	movq   $0x0,-0xc38(%rbp)
    c117:	00 00 00 00 
    c11b:	48 8d 85 d8 e2 ff ff 	lea    -0x1d28(%rbp),%rax
    c122:	48 89 85 d0 f3 ff ff 	mov    %rax,-0xc30(%rbp)
    c129:	48 8d 85 d8 e2 ff ff 	lea    -0x1d28(%rbp),%rax
    c130:	48 89 85 d8 f3 ff ff 	mov    %rax,-0xc28(%rbp)
    c137:	48 8d 85 d8 e2 ff ff 	lea    -0x1d28(%rbp),%rax
    c13e:	48 89 85 e0 f3 ff ff 	mov    %rax,-0xc20(%rbp)
    c145:	48 8d 85 d8 e2 ff ff 	lea    -0x1d28(%rbp),%rax
    c14c:	48 89 85 e8 f3 ff ff 	mov    %rax,-0xc18(%rbp)
    c153:	48 8d 85 d8 e2 ff ff 	lea    -0x1d28(%rbp),%rax
    c15a:	48 89 85 f0 f3 ff ff 	mov    %rax,-0xc10(%rbp)
    c161:	48 8d 85 d8 e2 ff ff 	lea    -0x1d28(%rbp),%rax
    c168:	48 89 85 f8 f3 ff ff 	mov    %rax,-0xc08(%rbp)
    c16f:	48 8d 85 d8 e2 ff ff 	lea    -0x1d28(%rbp),%rax
    c176:	48 89 85 00 f4 ff ff 	mov    %rax,-0xc00(%rbp)
    c17d:	48 c7 85 08 f4 ff ff 	movq   $0x0,-0xbf8(%rbp)
    c184:	00 00 00 00 
    c188:	48 c7 85 10 f4 ff ff 	movq   $0x0,-0xbf0(%rbp)
    c18f:	00 00 00 00 
    c193:	48 8d 85 d8 e2 ff ff 	lea    -0x1d28(%rbp),%rax
    c19a:	48 89 85 18 f4 ff ff 	mov    %rax,-0xbe8(%rbp)
    c1a1:	48 c7 85 20 f4 ff ff 	movq   $0x0,-0xbe0(%rbp)
    c1a8:	00 00 00 00 
    c1ac:	48 c7 85 28 f4 ff ff 	movq   $0x0,-0xbd8(%rbp)
    c1b3:	00 00 00 00 
    c1b7:	48 8d 85 d8 e2 ff ff 	lea    -0x1d28(%rbp),%rax
    c1be:	48 89 85 30 f4 ff ff 	mov    %rax,-0xbd0(%rbp)
    c1c5:	48 8d 85 d8 e2 ff ff 	lea    -0x1d28(%rbp),%rax
    c1cc:	48 89 85 38 f4 ff ff 	mov    %rax,-0xbc8(%rbp)
    c1d3:	48 8d 85 d8 e2 ff ff 	lea    -0x1d28(%rbp),%rax
    c1da:	48 89 85 40 f4 ff ff 	mov    %rax,-0xbc0(%rbp)
    c1e1:	48 8d 85 d8 e2 ff ff 	lea    -0x1d28(%rbp),%rax
    c1e8:	48 89 85 48 f4 ff ff 	mov    %rax,-0xbb8(%rbp)
    c1ef:	48 8d 85 d8 e2 ff ff 	lea    -0x1d28(%rbp),%rax
    c1f6:	48 89 85 50 f4 ff ff 	mov    %rax,-0xbb0(%rbp)
    c1fd:	48 8d 85 d8 e2 ff ff 	lea    -0x1d28(%rbp),%rax
    c204:	48 89 85 58 f4 ff ff 	mov    %rax,-0xba8(%rbp)
    c20b:	48 8d 85 d8 e2 ff ff 	lea    -0x1d28(%rbp),%rax
    c212:	48 89 85 60 f4 ff ff 	mov    %rax,-0xba0(%rbp)
    c219:	48 8d 85 d8 e2 ff ff 	lea    -0x1d28(%rbp),%rax
    c220:	48 89 85 68 f4 ff ff 	mov    %rax,-0xb98(%rbp)
    c227:	48 8d 85 d8 e2 ff ff 	lea    -0x1d28(%rbp),%rax
    c22e:	48 89 85 70 f4 ff ff 	mov    %rax,-0xb90(%rbp)
    c235:	48 8d 85 d8 e2 ff ff 	lea    -0x1d28(%rbp),%rax
    c23c:	48 89 85 78 f4 ff ff 	mov    %rax,-0xb88(%rbp)
    c243:	48 c7 85 80 f4 ff ff 	movq   $0x0,-0xb80(%rbp)
    c24a:	00 00 00 00 
    c24e:	48 8d 85 d8 e2 ff ff 	lea    -0x1d28(%rbp),%rax
    c255:	48 89 85 88 f4 ff ff 	mov    %rax,-0xb78(%rbp)
    c25c:	48 c7 85 90 f4 ff ff 	movq   $0x0,-0xb70(%rbp)
    c263:	00 00 00 00 
    c267:	48 8d 85 d8 e2 ff ff 	lea    -0x1d28(%rbp),%rax
    c26e:	48 89 85 98 f4 ff ff 	mov    %rax,-0xb68(%rbp)
    c275:	48 c7 85 a0 f4 ff ff 	movq   $0x0,-0xb60(%rbp)
    c27c:	00 00 00 00 
    c280:	48 8d 85 d8 e2 ff ff 	lea    -0x1d28(%rbp),%rax
    c287:	48 89 85 a8 f4 ff ff 	mov    %rax,-0xb58(%rbp)
    c28e:	48 8d 85 d8 e2 ff ff 	lea    -0x1d28(%rbp),%rax
    c295:	48 89 85 b0 f4 ff ff 	mov    %rax,-0xb50(%rbp)
    c29c:	48 c7 85 b8 f4 ff ff 	movq   $0x0,-0xb48(%rbp)
    c2a3:	00 00 00 00 
    c2a7:	48 8d 85 d8 e2 ff ff 	lea    -0x1d28(%rbp),%rax
    c2ae:	48 89 85 c0 f4 ff ff 	mov    %rax,-0xb40(%rbp)
    c2b5:	48 8d 85 d8 e2 ff ff 	lea    -0x1d28(%rbp),%rax
    c2bc:	48 89 85 c8 f4 ff ff 	mov    %rax,-0xb38(%rbp)
    c2c3:	48 c7 85 d0 f4 ff ff 	movq   $0x0,-0xb30(%rbp)
    c2ca:	00 00 00 00 
    c2ce:	48 8d 85 d8 e2 ff ff 	lea    -0x1d28(%rbp),%rax
    c2d5:	48 89 85 d8 f4 ff ff 	mov    %rax,-0xb28(%rbp)
    c2dc:	48 8d 85 d8 e2 ff ff 	lea    -0x1d28(%rbp),%rax
    c2e3:	48 89 85 e0 f4 ff ff 	mov    %rax,-0xb20(%rbp)
    c2ea:	48 8d 85 d8 e2 ff ff 	lea    -0x1d28(%rbp),%rax
    c2f1:	48 89 85 e8 f4 ff ff 	mov    %rax,-0xb18(%rbp)
    c2f8:	48 8d 85 d8 e2 ff ff 	lea    -0x1d28(%rbp),%rax
    c2ff:	48 89 85 f0 f4 ff ff 	mov    %rax,-0xb10(%rbp)
    c306:	48 c7 85 f8 f4 ff ff 	movq   $0x0,-0xb08(%rbp)
    c30d:	00 00 00 00 
    c311:	48 c7 85 00 f5 ff ff 	movq   $0x0,-0xb00(%rbp)
    c318:	00 00 00 00 
    c31c:	48 8d 85 d8 e2 ff ff 	lea    -0x1d28(%rbp),%rax
    c323:	48 89 85 08 f5 ff ff 	mov    %rax,-0xaf8(%rbp)
    c32a:	48 8d 85 d8 e2 ff ff 	lea    -0x1d28(%rbp),%rax
    c331:	48 89 85 10 f5 ff ff 	mov    %rax,-0xaf0(%rbp)
    c338:	48 8d 85 d8 e2 ff ff 	lea    -0x1d28(%rbp),%rax
    c33f:	48 89 85 18 f5 ff ff 	mov    %rax,-0xae8(%rbp)
    c346:	48 c7 85 20 f5 ff ff 	movq   $0x0,-0xae0(%rbp)
    c34d:	00 00 00 00 
    c351:	48 c7 85 28 f5 ff ff 	movq   $0x0,-0xad8(%rbp)
    c358:	00 00 00 00 
    c35c:	48 8d 85 d8 e2 ff ff 	lea    -0x1d28(%rbp),%rax
    c363:	48 89 85 30 f5 ff ff 	mov    %rax,-0xad0(%rbp)
    c36a:	48 8d 85 d8 e2 ff ff 	lea    -0x1d28(%rbp),%rax
    c371:	48 89 85 38 f5 ff ff 	mov    %rax,-0xac8(%rbp)
    c378:	48 8d 85 d8 e2 ff ff 	lea    -0x1d28(%rbp),%rax
    c37f:	48 89 85 40 f5 ff ff 	mov    %rax,-0xac0(%rbp)
    c386:	48 8d 85 d8 e2 ff ff 	lea    -0x1d28(%rbp),%rax
    c38d:	48 89 85 48 f5 ff ff 	mov    %rax,-0xab8(%rbp)
    c394:	48 8d 85 d8 e2 ff ff 	lea    -0x1d28(%rbp),%rax
    c39b:	48 89 85 50 f5 ff ff 	mov    %rax,-0xab0(%rbp)
    c3a2:	48 8d 85 d8 e2 ff ff 	lea    -0x1d28(%rbp),%rax
    c3a9:	48 89 85 58 f5 ff ff 	mov    %rax,-0xaa8(%rbp)
    c3b0:	48 8d 85 d8 e2 ff ff 	lea    -0x1d28(%rbp),%rax
    c3b7:	48 89 85 60 f5 ff ff 	mov    %rax,-0xaa0(%rbp)
    c3be:	48 8d 85 d8 e2 ff ff 	lea    -0x1d28(%rbp),%rax
    c3c5:	48 89 85 68 f5 ff ff 	mov    %rax,-0xa98(%rbp)
    c3cc:	48 8d 85 d8 e2 ff ff 	lea    -0x1d28(%rbp),%rax
    c3d3:	48 89 85 70 f5 ff ff 	mov    %rax,-0xa90(%rbp)
    c3da:	48 c7 85 78 f5 ff ff 	movq   $0x0,-0xa88(%rbp)
    c3e1:	00 00 00 00 
    c3e5:	48 8d 85 d8 e2 ff ff 	lea    -0x1d28(%rbp),%rax
    c3ec:	48 89 85 80 f5 ff ff 	mov    %rax,-0xa80(%rbp)
    c3f3:	48 8d 85 d8 e2 ff ff 	lea    -0x1d28(%rbp),%rax
    c3fa:	48 89 85 88 f5 ff ff 	mov    %rax,-0xa78(%rbp)
    c401:	48 8d 85 d8 e2 ff ff 	lea    -0x1d28(%rbp),%rax
    c408:	48 89 85 90 f5 ff ff 	mov    %rax,-0xa70(%rbp)
    c40f:	48 8d 85 d8 e2 ff ff 	lea    -0x1d28(%rbp),%rax
    c416:	48 89 85 98 f5 ff ff 	mov    %rax,-0xa68(%rbp)
    c41d:	48 8d 85 d8 e2 ff ff 	lea    -0x1d28(%rbp),%rax
    c424:	48 89 85 a0 f5 ff ff 	mov    %rax,-0xa60(%rbp)
    c42b:	48 c7 85 a8 f5 ff ff 	movq   $0x0,-0xa58(%rbp)
    c432:	00 00 00 00 
    c436:	48 c7 85 b0 f5 ff ff 	movq   $0x0,-0xa50(%rbp)
    c43d:	00 00 00 00 
    c441:	48 8d 85 d8 e2 ff ff 	lea    -0x1d28(%rbp),%rax
    c448:	48 89 85 b8 f5 ff ff 	mov    %rax,-0xa48(%rbp)
    c44f:	48 8d 85 d8 e2 ff ff 	lea    -0x1d28(%rbp),%rax
    c456:	48 89 85 c0 f5 ff ff 	mov    %rax,-0xa40(%rbp)
    c45d:	48 8d 85 d8 e2 ff ff 	lea    -0x1d28(%rbp),%rax
    c464:	48 89 85 c8 f5 ff ff 	mov    %rax,-0xa38(%rbp)
    c46b:	48 c7 85 d0 f5 ff ff 	movq   $0x0,-0xa30(%rbp)
    c472:	00 00 00 00 
    c476:	48 c7 85 d8 f5 ff ff 	movq   $0x0,-0xa28(%rbp)
    c47d:	00 00 00 00 
    c481:	48 8d 85 d8 e2 ff ff 	lea    -0x1d28(%rbp),%rax
    c488:	48 89 85 e0 f5 ff ff 	mov    %rax,-0xa20(%rbp)
    c48f:	48 c7 85 e8 f5 ff ff 	movq   $0x0,-0xa18(%rbp)
    c496:	00 00 00 00 
    c49a:	48 8d 85 d8 e2 ff ff 	lea    -0x1d28(%rbp),%rax
    c4a1:	48 89 85 f0 f5 ff ff 	mov    %rax,-0xa10(%rbp)
    c4a8:	48 8d 85 d8 e2 ff ff 	lea    -0x1d28(%rbp),%rax
    c4af:	48 89 85 f8 f5 ff ff 	mov    %rax,-0xa08(%rbp)
    c4b6:	48 8d 85 d8 e2 ff ff 	lea    -0x1d28(%rbp),%rax
    c4bd:	48 89 85 00 f6 ff ff 	mov    %rax,-0xa00(%rbp)
    c4c4:	48 8d 85 d8 e2 ff ff 	lea    -0x1d28(%rbp),%rax
    c4cb:	48 89 85 08 f6 ff ff 	mov    %rax,-0x9f8(%rbp)
    c4d2:	48 8d 85 d8 e2 ff ff 	lea    -0x1d28(%rbp),%rax
    c4d9:	48 89 85 10 f6 ff ff 	mov    %rax,-0x9f0(%rbp)
    c4e0:	48 8d 85 d8 e2 ff ff 	lea    -0x1d28(%rbp),%rax
    c4e7:	48 89 85 18 f6 ff ff 	mov    %rax,-0x9e8(%rbp)
    c4ee:	48 8d 85 d8 e2 ff ff 	lea    -0x1d28(%rbp),%rax
    c4f5:	48 89 85 20 f6 ff ff 	mov    %rax,-0x9e0(%rbp)
    c4fc:	48 8d 85 d8 e2 ff ff 	lea    -0x1d28(%rbp),%rax
    c503:	48 89 85 28 f6 ff ff 	mov    %rax,-0x9d8(%rbp)
    c50a:	48 8d 85 d8 e2 ff ff 	lea    -0x1d28(%rbp),%rax
    c511:	48 89 85 30 f6 ff ff 	mov    %rax,-0x9d0(%rbp)
    c518:	48 8d 85 d8 e2 ff ff 	lea    -0x1d28(%rbp),%rax
    c51f:	48 89 85 38 f6 ff ff 	mov    %rax,-0x9c8(%rbp)
    c526:	48 8d 85 d8 e2 ff ff 	lea    -0x1d28(%rbp),%rax
    c52d:	48 89 85 40 f6 ff ff 	mov    %rax,-0x9c0(%rbp)
    c534:	48 8d 85 d8 e2 ff ff 	lea    -0x1d28(%rbp),%rax
    c53b:	48 89 85 48 f6 ff ff 	mov    %rax,-0x9b8(%rbp)
    c542:	48 8d 85 d8 e2 ff ff 	lea    -0x1d28(%rbp),%rax
    c549:	48 89 85 50 f6 ff ff 	mov    %rax,-0x9b0(%rbp)
    c550:	48 8d 85 d8 e2 ff ff 	lea    -0x1d28(%rbp),%rax
    c557:	48 89 85 58 f6 ff ff 	mov    %rax,-0x9a8(%rbp)
    c55e:	48 c7 85 60 f6 ff ff 	movq   $0x0,-0x9a0(%rbp)
    c565:	00 00 00 00 
    c569:	48 8d 85 d8 e2 ff ff 	lea    -0x1d28(%rbp),%rax
    c570:	48 89 85 68 f6 ff ff 	mov    %rax,-0x998(%rbp)
    c577:	48 8d 85 d8 e2 ff ff 	lea    -0x1d28(%rbp),%rax
    c57e:	48 89 85 70 f6 ff ff 	mov    %rax,-0x990(%rbp)
    c585:	48 8d 85 d8 e2 ff ff 	lea    -0x1d28(%rbp),%rax
    c58c:	48 89 85 78 f6 ff ff 	mov    %rax,-0x988(%rbp)
    c593:	48 c7 85 80 f6 ff ff 	movq   $0x0,-0x980(%rbp)
    c59a:	00 00 00 00 
    c59e:	48 8d 85 d8 e2 ff ff 	lea    -0x1d28(%rbp),%rax
    c5a5:	48 89 85 88 f6 ff ff 	mov    %rax,-0x978(%rbp)
    c5ac:	48 8d 85 d8 e2 ff ff 	lea    -0x1d28(%rbp),%rax
    c5b3:	48 89 85 90 f6 ff ff 	mov    %rax,-0x970(%rbp)
    c5ba:	48 8d 85 d8 e2 ff ff 	lea    -0x1d28(%rbp),%rax
    c5c1:	48 89 85 98 f6 ff ff 	mov    %rax,-0x968(%rbp)
    c5c8:	48 8d 85 d8 e2 ff ff 	lea    -0x1d28(%rbp),%rax
    c5cf:	48 89 85 a0 f6 ff ff 	mov    %rax,-0x960(%rbp)
    c5d6:	48 8d 85 d8 e2 ff ff 	lea    -0x1d28(%rbp),%rax
    c5dd:	48 89 85 a8 f6 ff ff 	mov    %rax,-0x958(%rbp)
    c5e4:	48 8d 85 d8 e2 ff ff 	lea    -0x1d28(%rbp),%rax
    c5eb:	48 89 85 b0 f6 ff ff 	mov    %rax,-0x950(%rbp)
    c5f2:	48 c7 85 b8 f6 ff ff 	movq   $0x0,-0x948(%rbp)
    c5f9:	00 00 00 00 
    c5fd:	48 8d 85 d8 e2 ff ff 	lea    -0x1d28(%rbp),%rax
    c604:	48 89 85 c0 f6 ff ff 	mov    %rax,-0x940(%rbp)
    c60b:	48 8d 85 d8 e2 ff ff 	lea    -0x1d28(%rbp),%rax
    c612:	48 89 85 c8 f6 ff ff 	mov    %rax,-0x938(%rbp)
    c619:	48 8d 85 d8 e2 ff ff 	lea    -0x1d28(%rbp),%rax
    c620:	48 89 85 d0 f6 ff ff 	mov    %rax,-0x930(%rbp)
    c627:	48 8d 85 d8 e2 ff ff 	lea    -0x1d28(%rbp),%rax
    c62e:	48 89 85 d8 f6 ff ff 	mov    %rax,-0x928(%rbp)
    c635:	48 c7 85 e0 f6 ff ff 	movq   $0x0,-0x920(%rbp)
    c63c:	00 00 00 00 
    c640:	48 8d 85 d8 e2 ff ff 	lea    -0x1d28(%rbp),%rax
    c647:	48 89 85 e8 f6 ff ff 	mov    %rax,-0x918(%rbp)
    c64e:	48 8d 85 d8 e2 ff ff 	lea    -0x1d28(%rbp),%rax
    c655:	48 89 85 f0 f6 ff ff 	mov    %rax,-0x910(%rbp)
    c65c:	48 8d 85 d8 e2 ff ff 	lea    -0x1d28(%rbp),%rax
    c663:	48 89 85 f8 f6 ff ff 	mov    %rax,-0x908(%rbp)
    c66a:	48 c7 85 00 f7 ff ff 	movq   $0x0,-0x900(%rbp)
    c671:	00 00 00 00 
    c675:	48 8d 85 d8 e2 ff ff 	lea    -0x1d28(%rbp),%rax
    c67c:	48 89 85 08 f7 ff ff 	mov    %rax,-0x8f8(%rbp)
    c683:	48 8d 85 d8 e2 ff ff 	lea    -0x1d28(%rbp),%rax
    c68a:	48 89 85 10 f7 ff ff 	mov    %rax,-0x8f0(%rbp)
    c691:	48 8d 85 d8 e2 ff ff 	lea    -0x1d28(%rbp),%rax
    c698:	48 89 85 18 f7 ff ff 	mov    %rax,-0x8e8(%rbp)
    c69f:	48 8d 85 d8 e2 ff ff 	lea    -0x1d28(%rbp),%rax
    c6a6:	48 89 85 20 f7 ff ff 	mov    %rax,-0x8e0(%rbp)
    c6ad:	48 8d 85 d8 e2 ff ff 	lea    -0x1d28(%rbp),%rax
    c6b4:	48 89 85 28 f7 ff ff 	mov    %rax,-0x8d8(%rbp)
    c6bb:	48 8d 85 d8 e2 ff ff 	lea    -0x1d28(%rbp),%rax
    c6c2:	48 89 85 30 f7 ff ff 	mov    %rax,-0x8d0(%rbp)
    c6c9:	48 8d 85 d8 e2 ff ff 	lea    -0x1d28(%rbp),%rax
    c6d0:	48 89 85 38 f7 ff ff 	mov    %rax,-0x8c8(%rbp)
    c6d7:	48 8d 85 d8 e2 ff ff 	lea    -0x1d28(%rbp),%rax
    c6de:	48 89 85 40 f7 ff ff 	mov    %rax,-0x8c0(%rbp)
    c6e5:	48 8d 85 d8 e2 ff ff 	lea    -0x1d28(%rbp),%rax
    c6ec:	48 89 85 48 f7 ff ff 	mov    %rax,-0x8b8(%rbp)
    c6f3:	48 8d 85 d8 e2 ff ff 	lea    -0x1d28(%rbp),%rax
    c6fa:	48 89 85 50 f7 ff ff 	mov    %rax,-0x8b0(%rbp)
    c701:	48 8d 85 d8 e2 ff ff 	lea    -0x1d28(%rbp),%rax
    c708:	48 89 85 58 f7 ff ff 	mov    %rax,-0x8a8(%rbp)
    c70f:	48 8d 85 d8 e2 ff ff 	lea    -0x1d28(%rbp),%rax
    c716:	48 89 85 60 f7 ff ff 	mov    %rax,-0x8a0(%rbp)
    c71d:	48 8d 85 d8 e2 ff ff 	lea    -0x1d28(%rbp),%rax
    c724:	48 89 85 68 f7 ff ff 	mov    %rax,-0x898(%rbp)
    c72b:	48 8d 85 d8 e2 ff ff 	lea    -0x1d28(%rbp),%rax
    c732:	48 89 85 70 f7 ff ff 	mov    %rax,-0x890(%rbp)
    c739:	48 c7 85 78 f7 ff ff 	movq   $0x0,-0x888(%rbp)
    c740:	00 00 00 00 
    c744:	48 8d 85 d8 e2 ff ff 	lea    -0x1d28(%rbp),%rax
    c74b:	48 89 85 80 f7 ff ff 	mov    %rax,-0x880(%rbp)
    c752:	48 8d 85 d8 e2 ff ff 	lea    -0x1d28(%rbp),%rax
    c759:	48 89 85 88 f7 ff ff 	mov    %rax,-0x878(%rbp)
    c760:	48 8d 85 d8 e2 ff ff 	lea    -0x1d28(%rbp),%rax
    c767:	48 89 85 90 f7 ff ff 	mov    %rax,-0x870(%rbp)
    c76e:	48 8d 85 d8 e2 ff ff 	lea    -0x1d28(%rbp),%rax
    c775:	48 89 85 98 f7 ff ff 	mov    %rax,-0x868(%rbp)
    c77c:	48 8d 85 d8 e2 ff ff 	lea    -0x1d28(%rbp),%rax
    c783:	48 89 85 a0 f7 ff ff 	mov    %rax,-0x860(%rbp)
    c78a:	48 8d 85 d8 e2 ff ff 	lea    -0x1d28(%rbp),%rax
    c791:	48 89 85 a8 f7 ff ff 	mov    %rax,-0x858(%rbp)
    c798:	48 8d 85 d8 e2 ff ff 	lea    -0x1d28(%rbp),%rax
    c79f:	48 89 85 b0 f7 ff ff 	mov    %rax,-0x850(%rbp)
    c7a6:	48 8d 85 d8 e2 ff ff 	lea    -0x1d28(%rbp),%rax
    c7ad:	48 89 85 b8 f7 ff ff 	mov    %rax,-0x848(%rbp)
    c7b4:	48 8d 85 d8 e2 ff ff 	lea    -0x1d28(%rbp),%rax
    c7bb:	48 89 85 c0 f7 ff ff 	mov    %rax,-0x840(%rbp)
    c7c2:	48 8d 85 d8 e2 ff ff 	lea    -0x1d28(%rbp),%rax
    c7c9:	48 89 85 c8 f7 ff ff 	mov    %rax,-0x838(%rbp)
    c7d0:	48 8d 85 d8 e2 ff ff 	lea    -0x1d28(%rbp),%rax
    c7d7:	48 89 85 d0 f7 ff ff 	mov    %rax,-0x830(%rbp)
    c7de:	48 c7 85 d8 f7 ff ff 	movq   $0x0,-0x828(%rbp)
    c7e5:	00 00 00 00 
    c7e9:	48 8d 85 d8 e2 ff ff 	lea    -0x1d28(%rbp),%rax
    c7f0:	48 89 85 e0 f7 ff ff 	mov    %rax,-0x820(%rbp)
    c7f7:	48 8d 85 d8 e2 ff ff 	lea    -0x1d28(%rbp),%rax
    c7fe:	48 89 85 e8 f7 ff ff 	mov    %rax,-0x818(%rbp)
    c805:	48 8b 05 04 b5 00 00 	mov    0xb504(%rip),%rax        # 17d10 <g_288>
    c80c:	0f b7 00             	movzwl (%rax),%eax
    c80f:	98                   	cwtl   
    c810:	be 00 00 00 00       	mov    $0x0,%esi
    c815:	89 c7                	mov    %eax,%edi
    c817:	e8 c5 9c ff ff       	callq  64e1 <safe_lshift_func_int16_t_s_u>
    c81c:	0f b6 d8             	movzbl %al,%ebx
    c81f:	0f b7 85 58 e1 ff ff 	movzwl -0x1ea8(%rbp),%eax
    c826:	0f b7 c0             	movzwl %ax,%eax
    c829:	48 89 85 a8 e4 ff ff 	mov    %rax,-0x1b58(%rbp)
    c830:	48 8b 85 a8 e4 ff ff 	mov    -0x1b58(%rbp),%rax
    c837:	0f b6 d0             	movzbl %al,%edx
    c83a:	8b 85 fc ea ff ff    	mov    -0x1504(%rbp),%eax
    c840:	0f b6 c0             	movzbl %al,%eax
    c843:	89 d6                	mov    %edx,%esi
    c845:	89 c7                	mov    %eax,%edi
    c847:	e8 62 a3 ff ff       	callq  6bae <safe_mod_func_uint8_t_u_u>
    c84c:	0f b6 d0             	movzbl %al,%edx
    c84f:	48 8b 85 50 e1 ff ff 	mov    -0x1eb0(%rbp),%rax
    c856:	0f b7 c0             	movzwl %ax,%eax
    c859:	89 d6                	mov    %edx,%esi
    c85b:	89 c7                	mov    %eax,%edi
    c85d:	e8 9d a4 ff ff       	callq  6cff <safe_add_func_uint16_t_u_u>
    c862:	0f b6 c0             	movzbl %al,%eax
    c865:	89 de                	mov    %ebx,%esi
    c867:	89 c7                	mov    %eax,%edi
    c869:	e8 25 a3 ff ff       	callq  6b93 <safe_mul_func_uint8_t_u_u>
    c86e:	89 c2                	mov    %eax,%edx
    c870:	48 8b 05 f9 b5 00 00 	mov    0xb5f9(%rip),%rax        # 17e70 <g_900>
    c877:	0f b6 d2             	movzbl %dl,%edx
    c87a:	89 10                	mov    %edx,(%rax)
    c87c:	48 8b 05 1d b7 00 00 	mov    0xb71d(%rip),%rax        # 17fa0 <g_1450>
    c883:	8b 08                	mov    (%rax),%ecx
    c885:	48 8b 95 08 f4 ff ff 	mov    -0xbf8(%rbp),%rdx
    c88c:	48 85 d2             	test   %rdx,%rdx
    c88f:	0f 95 c2             	setne  %dl
    c892:	0f b6 d2             	movzbl %dl,%edx
    c895:	31 ca                	xor    %ecx,%edx
    c897:	89 10                	mov    %edx,(%rax)
    c899:	83 ad b4 e1 ff ff 01 	subl   $0x1,-0x1e4c(%rbp)
    c8a0:	83 bd b4 e1 ff ff 00 	cmpl   $0x0,-0x1e4c(%rbp)
    c8a7:	0f 89 b2 f4 ff ff    	jns    bd5f <func_37+0x2b63>
    c8ad:	8b 85 74 e1 ff ff    	mov    -0x1e8c(%rbp),%eax
    c8b3:	83 c0 01             	add    $0x1,%eax
    c8b6:	89 85 74 e1 ff ff    	mov    %eax,-0x1e8c(%rbp)
    c8bc:	8b 85 74 e1 ff ff    	mov    -0x1e8c(%rbp),%eax
    c8c2:	85 c0                	test   %eax,%eax
    c8c4:	0f 8e 82 e3 ff ff    	jle    ac4c <func_37+0x1a50>
    c8ca:	48 83 85 20 e4 ff ff 	addq   $0x1,-0x1be0(%rbp)
    c8d1:	01 
    c8d2:	48 8b 05 ff b4 00 00 	mov    0xb4ff(%rip),%rax        # 17dd8 <g_613>
    c8d9:	48 8b 00             	mov    (%rax),%rax
    c8dc:	0f b7 00             	movzwl (%rax),%eax
    c8df:	0f b7 d8             	movzwl %ax,%ebx
    c8e2:	0f b7 85 58 e1 ff ff 	movzwl -0x1ea8(%rbp),%eax
    c8e9:	44 0f b6 e0          	movzbl %al,%r12d
    c8ed:	48 8b 85 50 e1 ff ff 	mov    -0x1eb0(%rbp),%rax
    c8f4:	0f b7 c0             	movzwl %ax,%eax
    c8f7:	be d2 7f 00 00       	mov    $0x7fd2,%esi
    c8fc:	89 c7                	mov    %eax,%edi
    c8fe:	e8 1c a4 ff ff       	callq  6d1f <safe_sub_func_uint16_t_u_u>
    c903:	48 8b 85 80 e4 ff ff 	mov    -0x1b80(%rbp),%rax
    c90a:	48 c7 00 00 00 00 00 	movq   $0x0,(%rax)
    c911:	48 8b 85 80 e4 ff ff 	mov    -0x1b80(%rbp),%rax
    c918:	48 8b 10             	mov    (%rax),%rdx
    c91b:	48 8b 85 68 e2 ff ff 	mov    -0x1d98(%rbp),%rax
    c922:	48 39 c2             	cmp    %rax,%rdx
    c925:	0f b7 85 58 e1 ff ff 	movzwl -0x1ea8(%rbp),%eax
    c92c:	0f b6 c0             	movzbl %al,%eax
    c92f:	44 89 e6             	mov    %r12d,%esi
    c932:	89 c7                	mov    %eax,%edi
    c934:	e8 21 a2 ff ff       	callq  6b5a <safe_add_func_uint8_t_u_u>
    c939:	48 c7 05 9c 97 00 00 	movq   $0x0,0x979c(%rip)        # 160e0 <g_127>
    c940:	00 00 00 00 
    c944:	48 8b 05 95 97 00 00 	mov    0x9795(%rip),%rax        # 160e0 <g_127>
    c94b:	48 85 c0             	test   %rax,%rax
    c94e:	74 10                	je     c960 <func_37+0x3764>
    c950:	80 bd 5c e1 ff ff 00 	cmpb   $0x0,-0x1ea4(%rbp)
    c957:	74 07                	je     c960 <func_37+0x3764>
    c959:	b8 01 00 00 00       	mov    $0x1,%eax
    c95e:	eb 05                	jmp    c965 <func_37+0x3769>
    c960:	b8 00 00 00 00       	mov    $0x0,%eax
    c965:	0f b7 c0             	movzwl %ax,%eax
    c968:	89 de                	mov    %ebx,%esi
    c96a:	89 c7                	mov    %eax,%edi
    c96c:	e8 1d a4 ff ff       	callq  6d8e <safe_div_func_uint16_t_u_u>
    c971:	0f b7 d0             	movzwl %ax,%edx
    c974:	0f b6 85 f4 e6 ff ff 	movzbl -0x190c(%rbp),%eax
    c97b:	84 c0                	test   %al,%al
    c97d:	75 25                	jne    c9a4 <func_37+0x37a8>
    c97f:	83 b5 90 e1 ff ff 01 	xorl   $0x1,-0x1e70(%rbp)
    c986:	48 8b 05 6b b6 00 00 	mov    0xb66b(%rip),%rax        # 17ff8 <g_1565>
    c98d:	48 39 85 f8 e2 ff ff 	cmp    %rax,-0x1d08(%rbp)
    c994:	0f 95 c0             	setne  %al
    c997:	0f b6 c0             	movzbl %al,%eax
    c99a:	23 85 90 e1 ff ff    	and    -0x1e70(%rbp),%eax
    c9a0:	85 c0                	test   %eax,%eax
    c9a2:	75 07                	jne    c9ab <func_37+0x37af>
    c9a4:	b8 01 00 00 00       	mov    $0x1,%eax
    c9a9:	eb 05                	jmp    c9b0 <func_37+0x37b4>
    c9ab:	b8 00 00 00 00       	mov    $0x0,%eax
    c9b0:	48 98                	cltq   
    c9b2:	48 89 d6             	mov    %rdx,%rsi
    c9b5:	48 89 c7             	mov    %rax,%rdi
    c9b8:	e8 a8 a6 ff ff       	callq  7065 <safe_mul_func_uint64_t_u_u>
    c9bd:	48 85 c0             	test   %rax,%rax
    c9c0:	74 16                	je     c9d8 <func_37+0x37dc>
    c9c2:	48 8b 85 a0 e2 ff ff 	mov    -0x1d60(%rbp),%rax
    c9c9:	8b 10                	mov    (%rax),%edx
    c9cb:	48 8b 85 a0 e2 ff ff 	mov    -0x1d60(%rbp),%rax
    c9d2:	f7 d2                	not    %edx
    c9d4:	89 10                	mov    %edx,(%rax)
    c9d6:	eb 57                	jmp    ca2f <func_37+0x3833>
    c9d8:	48 8d 05 91 b4 00 00 	lea    0xb491(%rip),%rax        # 17e70 <g_900>
    c9df:	48 89 85 90 e4 ff ff 	mov    %rax,-0x1b70(%rbp)
    c9e6:	48 8b 85 28 e4 ff ff 	mov    -0x1bd8(%rbp),%rax
    c9ed:	48 89 85 58 e4 ff ff 	mov    %rax,-0x1ba8(%rbp)
    c9f4:	c6 85 63 e1 ff ff 00 	movb   $0x0,-0x1e9d(%rbp)
    c9fb:	eb 1b                	jmp    ca18 <func_37+0x381c>
    c9fd:	0f b6 85 63 e1 ff ff 	movzbl -0x1e9d(%rbp),%eax
    ca04:	48 98                	cltq   
    ca06:	48 8d 15 53 97 00 00 	lea    0x9753(%rip),%rdx        # 16160 <g_335>
    ca0d:	c6 04 10 fe          	movb   $0xfe,(%rax,%rdx,1)
    ca11:	80 85 63 e1 ff ff 01 	addb   $0x1,-0x1e9d(%rbp)
    ca18:	80 bd 63 e1 ff ff 01 	cmpb   $0x1,-0x1e9d(%rbp)
    ca1f:	76 dc                	jbe    c9fd <func_37+0x3801>
    ca21:	48 8b 85 90 e4 ff ff 	mov    -0x1b70(%rbp),%rax
    ca28:	48 c7 00 00 00 00 00 	movq   $0x0,(%rax)
    ca2f:	0f b6 85 5c e1 ff ff 	movzbl -0x1ea4(%rbp),%eax
    ca36:	0f be d8             	movsbl %al,%ebx
    ca39:	0f b6 85 5c e1 ff ff 	movzbl -0x1ea4(%rbp),%eax
    ca40:	44 0f be e0          	movsbl %al,%r12d
    ca44:	48 8b 85 a0 e2 ff ff 	mov    -0x1d60(%rbp),%rax
    ca4b:	8b 08                	mov    (%rax),%ecx
    ca4d:	0f b6 05 0c 97 00 00 	movzbl 0x970c(%rip),%eax        # 16160 <g_335>
    ca54:	3c 01                	cmp    $0x1,%al
    ca56:	0f 9f c0             	setg   %al
    ca59:	0f b6 d0             	movzbl %al,%edx
    ca5c:	48 8b 85 a0 e2 ff ff 	mov    -0x1d60(%rbp),%rax
    ca63:	09 ca                	or     %ecx,%edx
    ca65:	89 10                	mov    %edx,(%rax)
    ca67:	8b 00                	mov    (%rax),%eax
    ca69:	41 89 c7             	mov    %eax,%r15d
    ca6c:	48 8b 85 50 e1 ff ff 	mov    -0x1eb0(%rbp),%rax
    ca73:	44 0f bf e8          	movswl %ax,%r13d
    ca77:	0f b7 85 58 e1 ff ff 	movzwl -0x1ea8(%rbp),%eax
    ca7e:	44 0f be f0          	movsbl %al,%r14d
    ca82:	0f b6 95 63 e1 ff ff 	movzbl -0x1e9d(%rbp),%edx
    ca89:	48 8b 05 50 96 00 00 	mov    0x9650(%rip),%rax        # 160e0 <g_127>
    ca90:	48 83 e8 01          	sub    $0x1,%rax
    ca94:	48 89 05 45 96 00 00 	mov    %rax,0x9645(%rip)        # 160e0 <g_127>
    ca9b:	48 8b 85 08 e3 ff ff 	mov    -0x1cf8(%rbp),%rax
    caa2:	48 3b 85 30 e4 ff ff 	cmp    -0x1bd0(%rbp),%rax
    caa9:	0f 94 c0             	sete   %al
    caac:	0f b6 c0             	movzbl %al,%eax
    caaf:	48 33 85 50 e1 ff ff 	xor    -0x1eb0(%rbp),%rax
    cab6:	48 89 c1             	mov    %rax,%rcx
    cab9:	48 8b 85 58 e9 ff ff 	mov    -0x16a8(%rbp),%rax
    cac0:	48 31 c8             	xor    %rcx,%rax
    cac3:	48 89 85 58 e9 ff ff 	mov    %rax,-0x16a8(%rbp)
    caca:	48 8b 85 58 e9 ff ff 	mov    -0x16a8(%rbp),%rax
    cad1:	0f b7 c0             	movzwl %ax,%eax
    cad4:	89 d6                	mov    %edx,%esi
    cad6:	89 c7                	mov    %eax,%edi
    cad8:	e8 60 a2 ff ff       	callq  6d3d <safe_mul_func_uint16_t_u_u>
    cadd:	0f be c0             	movsbl %al,%eax
    cae0:	44 89 f6             	mov    %r14d,%esi
    cae3:	89 c7                	mov    %eax,%edi
    cae5:	e8 47 97 ff ff       	callq  6231 <safe_mod_func_int8_t_s_s>
    caea:	c0 e8 07             	shr    $0x7,%al
    caed:	0f b6 c0             	movzbl %al,%eax
    caf0:	44 89 ee             	mov    %r13d,%esi
    caf3:	89 c7                	mov    %eax,%edi
    caf5:	e8 fb 98 ff ff       	callq  63f5 <safe_mul_func_int16_t_s_s>
    cafa:	44 31 f8             	xor    %r15d,%eax
    cafd:	0f b7 d0             	movzwl %ax,%edx
    cb00:	48 8b 0d c9 b2 00 00 	mov    0xb2c9(%rip),%rcx        # 17dd0 <g_614>
    cb07:	48 8b 05 d2 b2 00 00 	mov    0xb2d2(%rip),%rax        # 17de0 <g_612>
    cb0e:	48 8b 00             	mov    (%rax),%rax
    cb11:	48 8b 00             	mov    (%rax),%rax
    cb14:	0f b7 09             	movzwl (%rcx),%ecx
    cb17:	66 89 08             	mov    %cx,(%rax)
    cb1a:	0f b7 00             	movzwl (%rax),%eax
    cb1d:	0f b7 c0             	movzwl %ax,%eax
    cb20:	89 d6                	mov    %edx,%esi
    cb22:	89 c7                	mov    %eax,%edi
    cb24:	e8 14 a2 ff ff       	callq  6d3d <safe_mul_func_uint16_t_u_u>
    cb29:	0f b7 c0             	movzwl %ax,%eax
    cb2c:	89 85 d8 eb ff ff    	mov    %eax,-0x1428(%rbp)
    cb32:	80 bd 5c e1 ff ff 01 	cmpb   $0x1,-0x1ea4(%rbp)
    cb39:	0f 96 c0             	setbe  %al
    cb3c:	0f b6 c0             	movzbl %al,%eax
    cb3f:	be 0e 00 00 00       	mov    $0xe,%esi
    cb44:	89 c7                	mov    %eax,%edi
    cb46:	e8 96 99 ff ff       	callq  64e1 <safe_lshift_func_int16_t_s_u>
    cb4b:	44 89 e6             	mov    %r12d,%esi
    cb4e:	bf a4 ff ff ff       	mov    $0xffffffa4,%edi
    cb53:	e8 ba 96 ff ff       	callq  6212 <safe_mul_func_int8_t_s_s>
    cb58:	89 de                	mov    %ebx,%esi
    cb5a:	bf 00 00 00 00       	mov    $0x0,%edi
    cb5f:	e8 06 97 ff ff       	callq  626a <safe_div_func_int8_t_s_s>
    cb64:	b8 01 00 00 00       	mov    $0x1,%eax
    cb69:	83 f8 01             	cmp    $0x1,%eax
    cb6c:	0f 9e c0             	setle  %al
    cb6f:	0f b6 c8             	movzbl %al,%ecx
    cb72:	48 8b 05 87 b4 00 00 	mov    0xb487(%rip),%rax        # 18000 <g_1609>
    cb79:	8b 10                	mov    (%rax),%edx
    cb7b:	09 ca                	or     %ecx,%edx
    cb7d:	89 10                	mov    %edx,(%rax)
    cb7f:	48 8b 85 50 e1 ff ff 	mov    -0x1eb0(%rbp),%rax
    cb86:	e9 7e 14 00 00       	jmpq   e009 <func_37+0x4e0d>
    cb8b:	c7 85 88 e1 ff ff 00 	movl   $0x0,-0x1e78(%rbp)
    cb92:	00 00 00 
    cb95:	e9 f6 01 00 00       	jmpq   cd90 <func_37+0x3b94>
    cb9a:	48 c7 85 68 e5 ff ff 	movq   $0x0,-0x1a98(%rbp)
    cba1:	00 00 00 00 
    cba5:	c7 85 64 e2 ff ff 05 	movl   $0x5,-0x1d9c(%rbp)
    cbac:	00 00 00 
    cbaf:	0f b7 85 58 e1 ff ff 	movzwl -0x1ea8(%rbp),%eax
    cbb6:	0f b7 d8             	movzwl %ax,%ebx
    cbb9:	48 8b 05 50 b1 00 00 	mov    0xb150(%rip),%rax        # 17d10 <g_288>
    cbc0:	0f b7 00             	movzwl (%rax),%eax
    cbc3:	44 0f b7 e0          	movzwl %ax,%r12d
    cbc7:	0f b6 85 5c e1 ff ff 	movzbl -0x1ea4(%rbp),%eax
    cbce:	0f be c0             	movsbl %al,%eax
    cbd1:	be a2 ff ff ff       	mov    $0xffffffa2,%esi
    cbd6:	89 c7                	mov    %eax,%edi
    cbd8:	e8 35 96 ff ff       	callq  6212 <safe_mul_func_int8_t_s_s>
    cbdd:	48 8b 85 68 e5 ff ff 	mov    -0x1a98(%rbp),%rax
    cbe4:	48 3b 85 28 e4 ff ff 	cmp    -0x1bd8(%rbp),%rax
    cbeb:	0f 94 c2             	sete   %dl
    cbee:	48 8b 05 3b b2 00 00 	mov    0xb23b(%rip),%rax        # 17e30 <g_769>
    cbf5:	0f b6 d2             	movzbl %dl,%edx
    cbf8:	48 89 10             	mov    %rdx,(%rax)
    cbfb:	48 8b 00             	mov    (%rax),%rax
    cbfe:	89 c2                	mov    %eax,%edx
    cc00:	0f b6 85 5c e1 ff ff 	movzbl -0x1ea4(%rbp),%eax
    cc07:	21 d0                	and    %edx,%eax
    cc09:	0f b7 c0             	movzwl %ax,%eax
    cc0c:	44 89 e6             	mov    %r12d,%esi
    cc0f:	89 c7                	mov    %eax,%edi
    cc11:	e8 09 a1 ff ff       	callq  6d1f <safe_sub_func_uint16_t_u_u>
    cc16:	48 8b 05 bb b1 00 00 	mov    0xb1bb(%rip),%rax        # 17dd8 <g_613>
    cc1d:	48 8b 00             	mov    (%rax),%rax
    cc20:	0f b7 00             	movzwl (%rax),%eax
    cc23:	0f b7 d0             	movzwl %ax,%edx
    cc26:	48 8b 05 ab b1 00 00 	mov    0xb1ab(%rip),%rax        # 17dd8 <g_613>
    cc2d:	48 8b 00             	mov    (%rax),%rax
    cc30:	0f b7 00             	movzwl (%rax),%eax
    cc33:	0f b7 c0             	movzwl %ax,%eax
    cc36:	89 d6                	mov    %edx,%esi
    cc38:	89 c7                	mov    %eax,%edi
    cc3a:	e8 3b a2 ff ff       	callq  6e7a <safe_rshift_func_uint16_t_u_u>
    cc3f:	0f b7 c0             	movzwl %ax,%eax
    cc42:	48 39 85 50 e1 ff ff 	cmp    %rax,-0x1eb0(%rbp)
    cc49:	0f 9d c0             	setge  %al
    cc4c:	0f b6 c0             	movzbl %al,%eax
    cc4f:	be 49 8b ff ff       	mov    $0xffff8b49,%esi
    cc54:	89 c7                	mov    %eax,%edi
    cc56:	e8 78 97 ff ff       	callq  63d3 <safe_sub_func_int16_t_s_s>
    cc5b:	0f b7 c0             	movzwl %ax,%eax
    cc5e:	89 de                	mov    %ebx,%esi
    cc60:	89 c7                	mov    %eax,%edi
    cc62:	e8 57 a1 ff ff       	callq  6dbe <safe_lshift_func_uint16_t_u_s>
    cc67:	0f b7 d0             	movzwl %ax,%edx
    cc6a:	0f b6 85 5c e1 ff ff 	movzbl -0x1ea4(%rbp),%eax
    cc71:	89 d6                	mov    %edx,%esi
    cc73:	89 c7                	mov    %eax,%edi
    cc75:	e8 c3 a0 ff ff       	callq  6d3d <safe_mul_func_uint16_t_u_u>
    cc7a:	0f b7 c8             	movzwl %ax,%ecx
    cc7d:	8b 95 88 e1 ff ff    	mov    -0x1e78(%rbp),%edx
    cc83:	48 89 d0             	mov    %rdx,%rax
    cc86:	48 c1 e0 02          	shl    $0x2,%rax
    cc8a:	48 01 d0             	add    %rdx,%rax
    cc8d:	48 01 c0             	add    %rax,%rax
    cc90:	48 01 d0             	add    %rdx,%rax
    cc93:	48 8d 5d d0          	lea    -0x30(%rbp),%rbx
    cc97:	48 01 d8             	add    %rbx,%rax
    cc9a:	48 2d 20 19 00 00    	sub    $0x1920,%rax
    cca0:	0f b6 00             	movzbl (%rax),%eax
    cca3:	0f b6 c0             	movzbl %al,%eax
    cca6:	48 89 ce             	mov    %rcx,%rsi
    cca9:	48 89 c7             	mov    %rax,%rdi
    ccac:	e8 46 9d ff ff       	callq  69f7 <safe_div_func_int64_t_s_s>
    ccb1:	48 3d 7e 62 00 00    	cmp    $0x627e,%rax
    ccb7:	0f 9f c0             	setg   %al
    ccba:	0f b6 c0             	movzbl %al,%eax
    ccbd:	31 85 64 e2 ff ff    	xor    %eax,-0x1d9c(%rbp)
    ccc3:	8b 95 88 e1 ff ff    	mov    -0x1e78(%rbp),%edx
    ccc9:	48 89 d0             	mov    %rdx,%rax
    cccc:	48 c1 e0 02          	shl    $0x2,%rax
    ccd0:	48 01 d0             	add    %rdx,%rax
    ccd3:	48 01 c0             	add    %rax,%rax
    ccd6:	48 01 d0             	add    %rdx,%rax
    ccd9:	48 8d 5d d0          	lea    -0x30(%rbp),%rbx
    ccdd:	48 01 d8             	add    %rbx,%rax
    cce0:	48 2d 20 19 00 00    	sub    $0x1920,%rax
    cce6:	0f b6 00             	movzbl (%rax),%eax
    cce9:	84 c0                	test   %al,%al
    cceb:	75 0a                	jne    ccf7 <func_37+0x3afb>
    cced:	48 83 bd 50 e1 ff ff 	cmpq   $0x0,-0x1eb0(%rbp)
    ccf4:	00 
    ccf5:	74 07                	je     ccfe <func_37+0x3b02>
    ccf7:	b8 01 00 00 00       	mov    $0x1,%eax
    ccfc:	eb 05                	jmp    cd03 <func_37+0x3b07>
    ccfe:	b8 00 00 00 00       	mov    $0x0,%eax
    cd03:	48 98                	cltq   
    cd05:	48 89 c7             	mov    %rax,%rdi
    cd08:	e8 09 9b ff ff       	callq  6816 <safe_unary_minus_func_int64_t_s>
    cd0d:	31 85 90 e1 ff ff    	xor    %eax,-0x1e70(%rbp)
    cd13:	0f b7 85 58 e1 ff ff 	movzwl -0x1ea8(%rbp),%eax
    cd1a:	66 85 c0             	test   %ax,%ax
    cd1d:	75 69                	jne    cd88 <func_37+0x3b8c>
    cd1f:	8b 95 64 e2 ff ff    	mov    -0x1d9c(%rbp),%edx
    cd25:	8b 85 88 e1 ff ff    	mov    -0x1e78(%rbp),%eax
    cd2b:	8d 48 01             	lea    0x1(%rax),%ecx
    cd2e:	8b 85 88 e1 ff ff    	mov    -0x1e78(%rbp),%eax
    cd34:	83 c0 04             	add    $0x4,%eax
    cd37:	89 c6                	mov    %eax,%esi
    cd39:	89 c9                	mov    %ecx,%ecx
    cd3b:	48 89 c8             	mov    %rcx,%rax
    cd3e:	48 c1 e0 02          	shl    $0x2,%rax
    cd42:	48 01 c8             	add    %rcx,%rax
    cd45:	48 01 c0             	add    %rax,%rax
    cd48:	48 8d 5d d0          	lea    -0x30(%rbp),%rbx
    cd4c:	48 01 d8             	add    %rbx,%rax
    cd4f:	48 01 f0             	add    %rsi,%rax
    cd52:	48 2d 20 19 00 00    	sub    $0x1920,%rax
    cd58:	c6 00 fd             	movb   $0xfd,(%rax)
    cd5b:	89 d6                	mov    %edx,%esi
    cd5d:	bf fd 00 00 00       	mov    $0xfd,%edi
    cd62:	e8 57 9f ff ff       	callq  6cbe <safe_rshift_func_uint8_t_u_u>
    cd67:	0f b6 d0             	movzbl %al,%edx
    cd6a:	48 8b 85 50 e1 ff ff 	mov    -0x1eb0(%rbp),%rax
    cd71:	0f b7 c0             	movzwl %ax,%eax
    cd74:	89 d6                	mov    %edx,%esi
    cd76:	89 c7                	mov    %eax,%edi
    cd78:	e8 82 9f ff ff       	callq  6cff <safe_add_func_uint16_t_u_u>
    cd7d:	0f b7 c0             	movzwl %ax,%eax
    cd80:	89 85 64 e2 ff ff    	mov    %eax,-0x1d9c(%rbp)
    cd86:	eb 01                	jmp    cd89 <func_37+0x3b8d>
    cd88:	90                   	nop
    cd89:	83 85 88 e1 ff ff 01 	addl   $0x1,-0x1e78(%rbp)
    cd90:	83 bd 88 e1 ff ff 03 	cmpl   $0x3,-0x1e78(%rbp)
    cd97:	0f 86 fd fd ff ff    	jbe    cb9a <func_37+0x399e>
    cd9d:	eb 01                	jmp    cda0 <func_37+0x3ba4>
    cd9f:	90                   	nop
    cda0:	0f b6 05 b1 93 00 00 	movzbl 0x93b1(%rip),%eax        # 16158 <g_205>
    cda7:	83 e8 01             	sub    $0x1,%eax
    cdaa:	88 05 a8 93 00 00    	mov    %al,0x93a8(%rip)        # 16158 <g_205>
    cdb0:	0f b6 05 a1 93 00 00 	movzbl 0x93a1(%rip),%eax        # 16158 <g_205>
    cdb7:	3c 03                	cmp    $0x3,%al
    cdb9:	0f 86 71 c7 ff ff    	jbe    9530 <func_37+0x334>
    cdbf:	c6 85 65 e1 ff ff f2 	movb   $0xf2,-0x1e9b(%rbp)
    cdc6:	48 8d 85 78 e2 ff ff 	lea    -0x1d88(%rbp),%rax
    cdcd:	48 89 85 b0 e2 ff ff 	mov    %rax,-0x1d50(%rbp)
    cdd4:	c7 85 88 e2 ff ff 08 	movl   $0xffab4808,-0x1d78(%rbp)
    cddb:	48 ab ff 
    cdde:	48 8d 95 e0 e8 ff ff 	lea    -0x1720(%rbp),%rdx
    cde5:	b8 00 00 00 00       	mov    $0x0,%eax
    cdea:	b9 1c 00 00 00       	mov    $0x1c,%ecx
    cdef:	48 89 d7             	mov    %rdx,%rdi
    cdf2:	f3 48 ab             	rep stos %rax,%es:(%rdi)
    cdf5:	48 8d 85 20 ea ff ff 	lea    -0x15e0(%rbp),%rax
    cdfc:	48 05 38 01 00 00    	add    $0x138,%rax
    ce02:	48 89 85 f0 e8 ff ff 	mov    %rax,-0x1710(%rbp)
    ce09:	48 8d 85 20 ea ff ff 	lea    -0x15e0(%rbp),%rax
    ce10:	48 05 38 01 00 00    	add    $0x138,%rax
    ce16:	48 89 85 08 e9 ff ff 	mov    %rax,-0x16f8(%rbp)
    ce1d:	48 8d 85 20 ea ff ff 	lea    -0x15e0(%rbp),%rax
    ce24:	48 05 38 01 00 00    	add    $0x138,%rax
    ce2a:	48 89 85 98 e9 ff ff 	mov    %rax,-0x1668(%rbp)
    ce31:	48 8d 85 20 ea ff ff 	lea    -0x15e0(%rbp),%rax
    ce38:	48 05 38 01 00 00    	add    $0x138,%rax
    ce3e:	48 89 85 b0 e9 ff ff 	mov    %rax,-0x1650(%rbp)
    ce45:	c6 85 66 e1 ff ff 01 	movb   $0x1,-0x1e9a(%rbp)
    ce4c:	c6 85 67 e1 ff ff 01 	movb   $0x1,-0x1e99(%rbp)
    ce53:	c7 85 c0 e1 ff ff 00 	movl   $0x0,-0x1e40(%rbp)
    ce5a:	00 00 00 
    ce5d:	eb 6d                	jmp    cecc <func_37+0x3cd0>
    ce5f:	c7 85 c4 e1 ff ff 00 	movl   $0x0,-0x1e3c(%rbp)
    ce66:	00 00 00 
    ce69:	eb 51                	jmp    cebc <func_37+0x3cc0>
    ce6b:	c7 85 c8 e1 ff ff 00 	movl   $0x0,-0x1e38(%rbp)
    ce72:	00 00 00 
    ce75:	eb 35                	jmp    ceac <func_37+0x3cb0>
    ce77:	8b 85 c8 e1 ff ff    	mov    -0x1e38(%rbp),%eax
    ce7d:	48 63 d0             	movslq %eax,%rdx
    ce80:	8b 85 c4 e1 ff ff    	mov    -0x1e3c(%rbp),%eax
    ce86:	48 98                	cltq   
    ce88:	8b 8d c0 e1 ff ff    	mov    -0x1e40(%rbp),%ecx
    ce8e:	48 63 c9             	movslq %ecx,%rcx
    ce91:	48 01 c9             	add    %rcx,%rcx
    ce94:	48 01 ca             	add    %rcx,%rdx
    ce97:	48 01 d0             	add    %rdx,%rax
    ce9a:	c7 84 85 e0 e5 ff ff 	movl   $0x5be9cddf,-0x1a20(%rbp,%rax,4)
    cea1:	df cd e9 5b 
    cea5:	83 85 c8 e1 ff ff 01 	addl   $0x1,-0x1e38(%rbp)
    ceac:	83 bd c8 e1 ff ff 00 	cmpl   $0x0,-0x1e38(%rbp)
    ceb3:	7e c2                	jle    ce77 <func_37+0x3c7b>
    ceb5:	83 85 c4 e1 ff ff 01 	addl   $0x1,-0x1e3c(%rbp)
    cebc:	83 bd c4 e1 ff ff 01 	cmpl   $0x1,-0x1e3c(%rbp)
    cec3:	7e a6                	jle    ce6b <func_37+0x3c6f>
    cec5:	83 85 c0 e1 ff ff 01 	addl   $0x1,-0x1e40(%rbp)
    cecc:	83 bd c0 e1 ff ff 01 	cmpl   $0x1,-0x1e40(%rbp)
    ced3:	7e 8a                	jle    ce5f <func_37+0x3c63>
    ced5:	c7 05 09 92 00 00 03 	movl   $0x3,0x9209(%rip)        # 160e8 <g_135>
    cedc:	00 00 00 
    cedf:	e9 e0 0c 00 00       	jmpq   dbc4 <func_37+0x49c8>
    cee4:	48 8d 05 e5 b6 00 00 	lea    0xb6e5(%rip),%rax        # 185d0 <g_243>
    ceeb:	48 89 85 50 e8 ff ff 	mov    %rax,-0x17b0(%rbp)
    cef2:	48 8d 05 d7 b6 00 00 	lea    0xb6d7(%rip),%rax        # 185d0 <g_243>
    cef9:	48 89 85 58 e8 ff ff 	mov    %rax,-0x17a8(%rbp)
    cf00:	48 8d 05 c9 b6 00 00 	lea    0xb6c9(%rip),%rax        # 185d0 <g_243>
    cf07:	48 89 85 60 e8 ff ff 	mov    %rax,-0x17a0(%rbp)
    cf0e:	48 c7 85 68 e8 ff ff 	movq   $0x0,-0x1798(%rbp)
    cf15:	00 00 00 00 
    cf19:	48 c7 85 70 e8 ff ff 	movq   $0x0,-0x1790(%rbp)
    cf20:	00 00 00 00 
    cf24:	48 c7 85 78 e8 ff ff 	movq   $0x0,-0x1788(%rbp)
    cf2b:	00 00 00 00 
    cf2f:	48 8d 05 9a b6 00 00 	lea    0xb69a(%rip),%rax        # 185d0 <g_243>
    cf36:	48 89 85 80 e8 ff ff 	mov    %rax,-0x1780(%rbp)
    cf3d:	48 8d 05 8c b6 00 00 	lea    0xb68c(%rip),%rax        # 185d0 <g_243>
    cf44:	48 89 85 88 e8 ff ff 	mov    %rax,-0x1778(%rbp)
    cf4b:	48 8d 05 7e b6 00 00 	lea    0xb67e(%rip),%rax        # 185d0 <g_243>
    cf52:	48 89 85 90 e8 ff ff 	mov    %rax,-0x1770(%rbp)
    cf59:	48 8d 05 70 b6 00 00 	lea    0xb670(%rip),%rax        # 185d0 <g_243>
    cf60:	48 89 85 b8 e2 ff ff 	mov    %rax,-0x1d48(%rbp)
    cf67:	48 8d 85 b8 e2 ff ff 	lea    -0x1d48(%rbp),%rax
    cf6e:	48 89 85 c0 e2 ff ff 	mov    %rax,-0x1d40(%rbp)
    cf75:	48 8d 85 c0 e2 ff ff 	lea    -0x1d40(%rbp),%rax
    cf7c:	48 89 85 60 e3 ff ff 	mov    %rax,-0x1ca0(%rbp)
    cf83:	c7 85 90 e2 ff ff 08 	movl   $0xb2b67a08,-0x1d70(%rbp)
    cf8a:	7a b6 b2 
    cf8d:	48 8d 85 90 e2 ff ff 	lea    -0x1d70(%rbp),%rax
    cf94:	48 89 85 68 e3 ff ff 	mov    %rax,-0x1c98(%rbp)
    cf9b:	48 8d 05 2e 91 00 00 	lea    0x912e(%rip),%rax        # 160d0 <g_91>
    cfa2:	48 89 85 70 e3 ff ff 	mov    %rax,-0x1c90(%rbp)
    cfa9:	66 c7 85 20 e6 ff ff 	movw   $0x2a65,-0x19e0(%rbp)
    cfb0:	65 2a 
    cfb2:	66 c7 85 22 e6 ff ff 	movw   $0xb591,-0x19de(%rbp)
    cfb9:	91 b5 
    cfbb:	66 c7 85 24 e6 ff ff 	movw   $0xb591,-0x19dc(%rbp)
    cfc2:	91 b5 
    cfc4:	66 c7 85 26 e6 ff ff 	movw   $0x2a65,-0x19da(%rbp)
    cfcb:	65 2a 
    cfcd:	66 c7 85 28 e6 ff ff 	movw   $0xb591,-0x19d8(%rbp)
    cfd4:	91 b5 
    cfd6:	66 c7 85 2a e6 ff ff 	movw   $0xb591,-0x19d6(%rbp)
    cfdd:	91 b5 
    cfdf:	66 c7 85 2c e6 ff ff 	movw   $0x2a65,-0x19d4(%rbp)
    cfe6:	65 2a 
    cfe8:	66 c7 85 2e e6 ff ff 	movw   $0xb591,-0x19d2(%rbp)
    cfef:	91 b5 
    cff1:	66 c7 85 30 e6 ff ff 	movw   $0xb591,-0x19d0(%rbp)
    cff8:	91 b5 
    cffa:	c7 85 98 e2 ff ff b4 	movl   $0x57c432b4,-0x1d68(%rbp)
    d001:	32 c4 57 
    d004:	c7 85 a0 e2 ff ff 1e 	movl   $0xb6eb141e,-0x1d60(%rbp)
    d00b:	14 eb b6 
    d00e:	c7 85 a8 e2 ff ff 06 	movl   $0x6,-0x1d58(%rbp)
    d015:	00 00 00 
    d018:	66 c7 85 6c e1 ff ff 	movw   $0xbb56,-0x1e94(%rbp)
    d01f:	56 bb 
    d021:	c7 85 ec e1 ff ff f8 	movl   $0xc1d66ef8,-0x1e14(%rbp)
    d028:	6e d6 c1 
    d02b:	c7 85 f0 e1 ff ff 91 	movl   $0xe430ed91,-0x1e10(%rbp)
    d032:	ed 30 e4 
    d035:	c7 85 f4 e1 ff ff b9 	movl   $0x45d57fb9,-0x1e0c(%rbp)
    d03c:	7f d5 45 
    d03f:	c7 85 f8 e1 ff ff 4f 	movl   $0x6c238c4f,-0x1e08(%rbp)
    d046:	8c 23 6c 
    d049:	c7 85 fc e1 ff ff ff 	movl   $0xffffffff,-0x1e04(%rbp)
    d050:	ff ff ff 
    d053:	c7 85 00 e2 ff ff 59 	movl   $0x2ad0d59,-0x1e00(%rbp)
    d05a:	0d ad 02 
    d05d:	c7 85 04 e2 ff ff f9 	movl   $0xfffffff9,-0x1dfc(%rbp)
    d064:	ff ff ff 
    d067:	48 8d 85 f0 f7 ff ff 	lea    -0x810(%rbp),%rax
    d06e:	48 8d 15 8b 54 00 00 	lea    0x548b(%rip),%rdx        # 12500 <g_1119+0x4ac>
    d075:	b9 2d 00 00 00       	mov    $0x2d,%ecx
    d07a:	48 89 c7             	mov    %rax,%rdi
    d07d:	48 89 d6             	mov    %rdx,%rsi
    d080:	f3 48 a5             	rep movsq %ds:(%rsi),%es:(%rdi)
    d083:	8b 85 90 e2 ff ff    	mov    -0x1d70(%rbp),%eax
    d089:	48 98                	cltq   
    d08b:	48 3d f8 ff 00 00    	cmp    $0xfff8,%rax
    d091:	0f 97 c0             	seta   %al
    d094:	0f b6 d0             	movzbl %al,%edx
    d097:	48 8b 85 68 e3 ff ff 	mov    -0x1c98(%rbp),%rax
    d09e:	89 10                	mov    %edx,(%rax)
    d0a0:	80 bd 65 e1 ff ff 00 	cmpb   $0x0,-0x1e9b(%rbp)
    d0a7:	0f 85 07 0b 00 00    	jne    dbb4 <func_37+0x49b8>
    d0ad:	48 8b 85 68 e3 ff ff 	mov    -0x1c98(%rbp),%rax
    d0b4:	8b 00                	mov    (%rax),%eax
    d0b6:	0f b6 d8             	movzbl %al,%ebx
    d0b9:	48 8b 05 28 ad 00 00 	mov    0xad28(%rip),%rax        # 17de8 <g_722>
    d0c0:	0f b6 00             	movzbl (%rax),%eax
    d0c3:	44 0f b6 e0          	movzbl %al,%r12d
    d0c7:	48 8b 05 6a ad 00 00 	mov    0xad6a(%rip),%rax        # 17e38 <g_768>
    d0ce:	48 8b 00             	mov    (%rax),%rax
    d0d1:	48 8b 00             	mov    (%rax),%rax
    d0d4:	48 85 c0             	test   %rax,%rax
    d0d7:	0f 94 c0             	sete   %al
    d0da:	0f b6 c0             	movzbl %al,%eax
    d0dd:	48 8b 15 84 90 00 00 	mov    0x9084(%rip),%rdx        # 16168 <g_650>
    d0e4:	48 89 c6             	mov    %rax,%rsi
    d0e7:	48 89 d7             	mov    %rdx,%rdi
    d0ea:	e8 3f 9f ff ff       	callq  702e <safe_add_func_uint64_t_u_u>
    d0ef:	44 0f b6 ad 5c e1 ff 	movzbl -0x1ea4(%rbp),%r13d
    d0f6:	ff 
    d0f7:	0f b7 85 58 e1 ff ff 	movzwl -0x1ea8(%rbp),%eax
    d0fe:	0f b7 c0             	movzwl %ax,%eax
    d101:	48 8b 95 50 e1 ff ff 	mov    -0x1eb0(%rbp),%rdx
    d108:	31 c2                	xor    %eax,%edx
    d10a:	48 8b 85 50 e1 ff ff 	mov    -0x1eb0(%rbp),%rax
    d111:	98                   	cwtl   
    d112:	89 d6                	mov    %edx,%esi
    d114:	89 c7                	mov    %eax,%edi
    d116:	e8 77 93 ff ff       	callq  6492 <safe_lshift_func_int16_t_s_s>
    d11b:	98                   	cwtl   
    d11c:	44 09 e8             	or     %r13d,%eax
    d11f:	83 f8 11             	cmp    $0x11,%eax
    d122:	0f 9e c0             	setle  %al
    d125:	0f b6 c0             	movzbl %al,%eax
    d128:	be 06 00 00 00       	mov    $0x6,%esi
    d12d:	89 c7                	mov    %eax,%edi
    d12f:	e8 01 92 ff ff       	callq  6335 <safe_rshift_func_int8_t_s_s>
    d134:	0f b6 c0             	movzbl %al,%eax
    d137:	44 89 e6             	mov    %r12d,%esi
    d13a:	89 c7                	mov    %eax,%edi
    d13c:	e8 9a 9a ff ff       	callq  6bdb <safe_div_func_uint8_t_u_u>
    d141:	0f b6 c0             	movzbl %al,%eax
    d144:	48 ba cd fd 33 96 1a 	movabs $0x6b90bb1a9633fdcd,%rdx
    d14b:	bb 90 6b 
    d14e:	48 21 d0             	and    %rdx,%rax
    d151:	48 83 f8 05          	cmp    $0x5,%rax
    d155:	0f 95 c0             	setne  %al
    d158:	0f b6 d0             	movzbl %al,%edx
    d15b:	0f be 85 65 e1 ff ff 	movsbl -0x1e9b(%rbp),%eax
    d162:	39 c2                	cmp    %eax,%edx
    d164:	0f 9d c0             	setge  %al
    d167:	0f b6 c8             	movzbl %al,%ecx
    d16a:	48 8b 05 9f ab 00 00 	mov    0xab9f(%rip),%rax        # 17d10 <g_288>
    d171:	0f b7 10             	movzwl (%rax),%edx
    d174:	48 8b 05 95 ab 00 00 	mov    0xab95(%rip),%rax        # 17d10 <g_288>
    d17b:	09 ca                	or     %ecx,%edx
    d17d:	66 89 10             	mov    %dx,(%rax)
    d180:	0f b7 00             	movzwl (%rax),%eax
    d183:	89 c2                	mov    %eax,%edx
    d185:	0f b6 85 5c e1 ff ff 	movzbl -0x1ea4(%rbp),%eax
    d18c:	21 d0                	and    %edx,%eax
    d18e:	0f b6 c0             	movzbl %al,%eax
    d191:	89 de                	mov    %ebx,%esi
    d193:	89 c7                	mov    %eax,%edi
    d195:	e8 de 99 ff ff       	callq  6b78 <safe_sub_func_uint8_t_u_u>
    d19a:	48 8d 05 5f ab 00 00 	lea    0xab5f(%rip),%rax        # 17d00 <g_247>
    d1a1:	48 89 85 c8 e2 ff ff 	mov    %rax,-0x1d38(%rbp)
    d1a8:	48 8d 85 c8 e2 ff ff 	lea    -0x1d38(%rbp),%rax
    d1af:	48 89 85 d0 e2 ff ff 	mov    %rax,-0x1d30(%rbp)
    d1b6:	48 8d 85 d0 e2 ff ff 	lea    -0x1d30(%rbp),%rax
    d1bd:	48 89 85 d8 e2 ff ff 	mov    %rax,-0x1d28(%rbp)
    d1c4:	48 8d 85 d8 e2 ff ff 	lea    -0x1d28(%rbp),%rax
    d1cb:	48 89 85 78 e3 ff ff 	mov    %rax,-0x1c88(%rbp)
    d1d2:	c7 85 08 e2 ff ff 7c 	movl   $0xa1f66b7c,-0x1df8(%rbp)
    d1d9:	6b f6 a1 
    d1dc:	0f be 85 65 e1 ff ff 	movsbl -0x1e9b(%rbp),%eax
    d1e3:	89 85 78 e1 ff ff    	mov    %eax,-0x1e88(%rbp)
    d1e9:	0f b7 85 26 e6 ff ff 	movzwl -0x19da(%rbp),%eax
    d1f0:	0f bf d8             	movswl %ax,%ebx
    d1f3:	be 01 00 00 00       	mov    $0x1,%esi
    d1f8:	bf 1f 94 00 00       	mov    $0x941f,%edi
    d1fd:	e8 04 9c ff ff       	callq  6e06 <safe_lshift_func_uint16_t_u_u>
    d202:	0f b7 d0             	movzwl %ax,%edx
    d205:	0f b7 05 d4 b3 00 00 	movzwl 0xb3d4(%rip),%eax        # 185e0 <g_405>
    d20c:	98                   	cwtl   
    d20d:	39 c2                	cmp    %eax,%edx
    d20f:	0f 95 c0             	setne  %al
    d212:	0f b6 d0             	movzbl %al,%edx
    d215:	48 8b 05 14 ac 00 00 	mov    0xac14(%rip),%rax        # 17e30 <g_769>
    d21c:	48 0b 95 50 e1 ff ff 	or     -0x1eb0(%rbp),%rdx
    d223:	48 89 10             	mov    %rdx,(%rax)
    d226:	48 8b 05 bb ab 00 00 	mov    0xabbb(%rip),%rax        # 17de8 <g_722>
    d22d:	c6 00 00             	movb   $0x0,(%rax)
    d230:	0f b6 00             	movzbl (%rax),%eax
    d233:	84 c0                	test   %al,%al
    d235:	75 0c                	jne    d243 <func_37+0x4047>
    d237:	0f b7 85 58 e1 ff ff 	movzwl -0x1ea8(%rbp),%eax
    d23e:	66 85 c0             	test   %ax,%ax
    d241:	74 07                	je     d24a <func_37+0x404e>
    d243:	b8 01 00 00 00       	mov    $0x1,%eax
    d248:	eb 05                	jmp    d24f <func_37+0x4053>
    d24a:	b8 00 00 00 00       	mov    $0x0,%eax
    d24f:	98                   	cwtl   
    d250:	89 de                	mov    %ebx,%esi
    d252:	89 c7                	mov    %eax,%edi
    d254:	e8 bd 91 ff ff       	callq  6416 <safe_mod_func_int16_t_s_s>
    d259:	0f bf d0             	movswl %ax,%edx
    d25c:	48 8b 85 68 e3 ff ff 	mov    -0x1c98(%rbp),%rax
    d263:	89 10                	mov    %edx,(%rax)
    d265:	c7 85 78 e1 ff ff 00 	movl   $0x0,-0x1e88(%rbp)
    d26c:	00 00 00 
    d26f:	e9 2f 09 00 00       	jmpq   dba3 <func_37+0x49a7>
    d274:	c7 85 cc e1 ff ff ff 	movl   $0xffffffff,-0x1e34(%rbp)
    d27b:	ff ff ff 
    d27e:	c7 85 d0 e2 ff ff d9 	movl   $0x55b69ad9,-0x1d30(%rbp)
    d285:	9a b6 55 
    d288:	c7 85 0c e2 ff ff 03 	movl   $0x3,-0x1df4(%rbp)
    d28f:	00 00 00 
    d292:	c7 85 10 e2 ff ff 7b 	movl   $0x6a00aa7b,-0x1df0(%rbp)
    d299:	aa 00 6a 
    d29c:	c7 85 00 e7 ff ff a7 	movl   $0x5ab3cfa7,-0x1900(%rbp)
    d2a3:	cf b3 5a 
    d2a6:	c7 85 04 e7 ff ff a7 	movl   $0x5ab3cfa7,-0x18fc(%rbp)
    d2ad:	cf b3 5a 
    d2b0:	c7 85 08 e7 ff ff 01 	movl   $0x1,-0x18f8(%rbp)
    d2b7:	00 00 00 
    d2ba:	c7 85 0c e7 ff ff a7 	movl   $0x5ab3cfa7,-0x18f4(%rbp)
    d2c1:	cf b3 5a 
    d2c4:	c7 85 10 e7 ff ff a7 	movl   $0x5ab3cfa7,-0x18f0(%rbp)
    d2cb:	cf b3 5a 
    d2ce:	c7 85 14 e7 ff ff 01 	movl   $0x1,-0x18ec(%rbp)
    d2d5:	00 00 00 
    d2d8:	c7 85 18 e7 ff ff a7 	movl   $0x5ab3cfa7,-0x18e8(%rbp)
    d2df:	cf b3 5a 
    d2e2:	c7 85 1c e7 ff ff a7 	movl   $0x5ab3cfa7,-0x18e4(%rbp)
    d2e9:	cf b3 5a 
    d2ec:	c7 85 20 e7 ff ff 01 	movl   $0x1,-0x18e0(%rbp)
    d2f3:	00 00 00 
    d2f6:	66 c7 85 6e e1 ff ff 	movw   $0x85a6,-0x1e92(%rbp)
    d2fd:	a6 85 
    d2ff:	48 8d 85 b0 e2 ff ff 	lea    -0x1d50(%rbp),%rax
    d306:	48 89 85 80 e3 ff ff 	mov    %rax,-0x1c80(%rbp)
    d30d:	66 c7 05 ca b2 00 00 	movw   $0x2,0xb2ca(%rip)        # 185e0 <g_405>
    d314:	02 00 
    d316:	e9 bb 07 00 00       	jmpq   dad6 <func_37+0x48da>
    d31b:	c7 85 14 e2 ff ff 01 	movl   $0x1,-0x1dec(%rbp)
    d322:	00 00 00 
    d325:	c7 85 18 e2 ff ff 7c 	movl   $0x553af17c,-0x1de8(%rbp)
    d32c:	f1 3a 55 
    d32f:	c7 85 1c e2 ff ff 01 	movl   $0x1,-0x1de4(%rbp)
    d336:	00 00 00 
    d339:	c7 85 20 e2 ff ff fc 	movl   $0xfffffffc,-0x1de0(%rbp)
    d340:	ff ff ff 
    d343:	c7 85 24 e2 ff ff 1e 	movl   $0x4230191e,-0x1ddc(%rbp)
    d34a:	19 30 42 
    d34d:	c7 85 28 e2 ff ff 1e 	movl   $0x48eda91e,-0x1dd8(%rbp)
    d354:	a9 ed 48 
    d357:	c7 85 2c e2 ff ff 46 	movl   $0xd70d2d46,-0x1dd4(%rbp)
    d35e:	2d 0d d7 
    d361:	c7 85 30 e2 ff ff ff 	movl   $0xffffffff,-0x1dd0(%rbp)
    d368:	ff ff ff 
    d36b:	c7 85 34 e2 ff ff 01 	movl   $0x1,-0x1dcc(%rbp)
    d372:	00 00 00 
    d375:	c7 85 38 e2 ff ff 00 	movl   $0x0,-0x1dc8(%rbp)
    d37c:	00 00 00 
    d37f:	c6 85 68 e1 ff ff 43 	movb   $0x43,-0x1e98(%rbp)
    d386:	c7 85 3c e2 ff ff ff 	movl   $0xffffffff,-0x1dc4(%rbp)
    d38d:	ff ff ff 
    d390:	48 c7 85 e8 e2 ff ff 	movq   $0x1,-0x1d18(%rbp)
    d397:	01 00 00 00 
    d39b:	c7 85 d0 e1 ff ff 00 	movl   $0x0,-0x1e30(%rbp)
    d3a2:	00 00 00 
    d3a5:	eb 1b                	jmp    d3c2 <func_37+0x41c6>
    d3a7:	8b 85 d0 e1 ff ff    	mov    -0x1e30(%rbp),%eax
    d3ad:	48 98                	cltq   
    d3af:	48 c7 84 c5 b0 e6 ff 	movq   $0x1,-0x1950(%rbp,%rax,8)
    d3b6:	ff 01 00 00 00 
    d3bb:	83 85 d0 e1 ff ff 01 	addl   $0x1,-0x1e30(%rbp)
    d3c2:	83 bd d0 e1 ff ff 03 	cmpl   $0x3,-0x1e30(%rbp)
    d3c9:	7e dc                	jle    d3a7 <func_37+0x41ab>
    d3cb:	c7 05 1f 8d 00 00 03 	movl   $0x3,0x8d1f(%rip)        # 160f4 <g_159>
    d3d2:	00 00 00 
    d3d5:	e9 5f 04 00 00       	jmpq   d839 <func_37+0x463d>
    d3da:	48 8d 85 a0 e2 ff ff 	lea    -0x1d60(%rbp),%rax
    d3e1:	48 89 85 d8 e2 ff ff 	mov    %rax,-0x1d28(%rbp)
    d3e8:	48 8d 85 20 ea ff ff 	lea    -0x15e0(%rbp),%rax
    d3ef:	48 05 98 00 00 00    	add    $0x98,%rax
    d3f5:	48 89 85 88 e3 ff ff 	mov    %rax,-0x1c78(%rbp)
    d3fc:	48 8d 85 90 e2 ff ff 	lea    -0x1d70(%rbp),%rax
    d403:	48 89 85 90 e3 ff ff 	mov    %rax,-0x1c70(%rbp)
    d40a:	48 8d 85 20 ea ff ff 	lea    -0x15e0(%rbp),%rax
    d411:	48 05 f0 02 00 00    	add    $0x2f0,%rax
    d417:	48 89 85 98 e3 ff ff 	mov    %rax,-0x1c68(%rbp)
    d41e:	48 8d 85 90 e2 ff ff 	lea    -0x1d70(%rbp),%rax
    d425:	48 89 85 a0 e3 ff ff 	mov    %rax,-0x1c60(%rbp)
    d42c:	48 c7 85 a8 e3 ff ff 	movq   $0x0,-0x1c58(%rbp)
    d433:	00 00 00 00 
    d437:	48 8d 85 88 e2 ff ff 	lea    -0x1d78(%rbp),%rax
    d43e:	48 89 85 b0 e3 ff ff 	mov    %rax,-0x1c50(%rbp)
    d445:	48 c7 85 b8 e3 ff ff 	movq   $0x0,-0x1c48(%rbp)
    d44c:	00 00 00 00 
    d450:	48 8d 85 98 e2 ff ff 	lea    -0x1d68(%rbp),%rax
    d457:	48 89 85 c0 e3 ff ff 	mov    %rax,-0x1c40(%rbp)
    d45e:	48 c7 85 c8 e3 ff ff 	movq   $0x0,-0x1c38(%rbp)
    d465:	00 00 00 00 
    d469:	48 8d 85 88 e2 ff ff 	lea    -0x1d78(%rbp),%rax
    d470:	48 89 85 d0 e3 ff ff 	mov    %rax,-0x1c30(%rbp)
    d477:	48 8d 85 20 ea ff ff 	lea    -0x15e0(%rbp),%rax
    d47e:	48 05 98 00 00 00    	add    $0x98,%rax
    d484:	48 89 85 d8 e3 ff ff 	mov    %rax,-0x1c28(%rbp)
    d48b:	48 8d 85 90 e2 ff ff 	lea    -0x1d70(%rbp),%rax
    d492:	48 89 85 e0 e3 ff ff 	mov    %rax,-0x1c20(%rbp)
    d499:	c7 85 40 e2 ff ff 6d 	movl   $0x667b236d,-0x1dc0(%rbp)
    d4a0:	23 7b 66 
    d4a3:	48 8d 85 74 e1 ff ff 	lea    -0x1e8c(%rbp),%rax
    d4aa:	48 89 85 e8 e3 ff ff 	mov    %rax,-0x1c18(%rbp)
    d4b1:	48 8d 85 90 e2 ff ff 	lea    -0x1d70(%rbp),%rax
    d4b8:	48 89 85 f0 e3 ff ff 	mov    %rax,-0x1c10(%rbp)
    d4bf:	48 8d 85 98 e2 ff ff 	lea    -0x1d68(%rbp),%rax
    d4c6:	48 89 85 f8 e3 ff ff 	mov    %rax,-0x1c08(%rbp)
    d4cd:	48 c7 85 00 e4 ff ff 	movq   $0x0,-0x1c00(%rbp)
    d4d4:	00 00 00 00 
    d4d8:	48 8d 85 d0 e2 ff ff 	lea    -0x1d30(%rbp),%rax
    d4df:	48 89 85 b0 f1 ff ff 	mov    %rax,-0xe50(%rbp)
    d4e6:	48 8d 85 d0 e2 ff ff 	lea    -0x1d30(%rbp),%rax
    d4ed:	48 89 85 b8 f1 ff ff 	mov    %rax,-0xe48(%rbp)
    d4f4:	48 8d 05 3d 8b 00 00 	lea    0x8b3d(%rip),%rax        # 16038 <g_7>
    d4fb:	48 89 85 c0 f1 ff ff 	mov    %rax,-0xe40(%rbp)
    d502:	48 c7 85 c8 f1 ff ff 	movq   $0x0,-0xe38(%rbp)
    d509:	00 00 00 00 
    d50d:	48 c7 85 d0 f1 ff ff 	movq   $0x0,-0xe30(%rbp)
    d514:	00 00 00 00 
    d518:	48 8d 85 d0 e2 ff ff 	lea    -0x1d30(%rbp),%rax
    d51f:	48 89 85 d8 f1 ff ff 	mov    %rax,-0xe28(%rbp)
    d526:	48 c7 85 e0 f1 ff ff 	movq   $0x0,-0xe20(%rbp)
    d52d:	00 00 00 00 
    d531:	48 8d 85 74 e1 ff ff 	lea    -0x1e8c(%rbp),%rax
    d538:	48 89 85 e8 f1 ff ff 	mov    %rax,-0xe18(%rbp)
    d53f:	48 c7 85 f0 f1 ff ff 	movq   $0x0,-0xe10(%rbp)
    d546:	00 00 00 00 
    d54a:	48 8d 85 74 e1 ff ff 	lea    -0x1e8c(%rbp),%rax
    d551:	48 89 85 f8 f1 ff ff 	mov    %rax,-0xe08(%rbp)
    d558:	48 8d 85 90 e2 ff ff 	lea    -0x1d70(%rbp),%rax
    d55f:	48 89 85 00 f2 ff ff 	mov    %rax,-0xe00(%rbp)
    d566:	48 c7 85 08 f2 ff ff 	movq   $0x0,-0xdf8(%rbp)
    d56d:	00 00 00 00 
    d571:	48 8d 85 d0 e2 ff ff 	lea    -0x1d30(%rbp),%rax
    d578:	48 89 85 10 f2 ff ff 	mov    %rax,-0xdf0(%rbp)
    d57f:	48 8d 85 74 e1 ff ff 	lea    -0x1e8c(%rbp),%rax
    d586:	48 89 85 18 f2 ff ff 	mov    %rax,-0xde8(%rbp)
    d58d:	48 c7 85 20 f2 ff ff 	movq   $0x0,-0xde0(%rbp)
    d594:	00 00 00 00 
    d598:	48 8d 85 74 e1 ff ff 	lea    -0x1e8c(%rbp),%rax
    d59f:	48 89 85 28 f2 ff ff 	mov    %rax,-0xdd8(%rbp)
    d5a6:	48 8d 85 74 e1 ff ff 	lea    -0x1e8c(%rbp),%rax
    d5ad:	48 89 85 30 f2 ff ff 	mov    %rax,-0xdd0(%rbp)
    d5b4:	48 8d 85 d0 e2 ff ff 	lea    -0x1d30(%rbp),%rax
    d5bb:	48 89 85 38 f2 ff ff 	mov    %rax,-0xdc8(%rbp)
    d5c2:	48 8d 85 78 e1 ff ff 	lea    -0x1e88(%rbp),%rax
    d5c9:	48 89 85 40 f2 ff ff 	mov    %rax,-0xdc0(%rbp)
    d5d0:	48 c7 85 48 f2 ff ff 	movq   $0x0,-0xdb8(%rbp)
    d5d7:	00 00 00 00 
    d5db:	48 8d 85 20 ea ff ff 	lea    -0x15e0(%rbp),%rax
    d5e2:	48 05 80 01 00 00    	add    $0x180,%rax
    d5e8:	48 89 85 50 f2 ff ff 	mov    %rax,-0xdb0(%rbp)
    d5ef:	48 8d 85 d0 e2 ff ff 	lea    -0x1d30(%rbp),%rax
    d5f6:	48 89 85 58 f2 ff ff 	mov    %rax,-0xda8(%rbp)
    d5fd:	48 8d 85 90 e2 ff ff 	lea    -0x1d70(%rbp),%rax
    d604:	48 89 85 60 f2 ff ff 	mov    %rax,-0xda0(%rbp)
    d60b:	48 8d 85 78 e1 ff ff 	lea    -0x1e88(%rbp),%rax
    d612:	48 89 85 68 f2 ff ff 	mov    %rax,-0xd98(%rbp)
    d619:	48 c7 85 70 f2 ff ff 	movq   $0x0,-0xd90(%rbp)
    d620:	00 00 00 00 
    d624:	48 8d 85 74 e1 ff ff 	lea    -0x1e8c(%rbp),%rax
    d62b:	48 89 85 78 f2 ff ff 	mov    %rax,-0xd88(%rbp)
    d632:	48 8d 05 af 8a 00 00 	lea    0x8aaf(%rip),%rax        # 160e8 <g_135>
    d639:	48 89 85 80 f2 ff ff 	mov    %rax,-0xd80(%rbp)
    d640:	48 8d 85 74 e1 ff ff 	lea    -0x1e8c(%rbp),%rax
    d647:	48 89 85 88 f2 ff ff 	mov    %rax,-0xd78(%rbp)
    d64e:	48 c7 85 90 f2 ff ff 	movq   $0x0,-0xd70(%rbp)
    d655:	00 00 00 00 
    d659:	48 8d 85 90 e2 ff ff 	lea    -0x1d70(%rbp),%rax
    d660:	48 89 85 98 f2 ff ff 	mov    %rax,-0xd68(%rbp)
    d667:	48 8d 85 90 e2 ff ff 	lea    -0x1d70(%rbp),%rax
    d66e:	48 89 85 a0 f2 ff ff 	mov    %rax,-0xd60(%rbp)
    d675:	48 c7 85 a8 f2 ff ff 	movq   $0x0,-0xd58(%rbp)
    d67c:	00 00 00 00 
    d680:	48 8d 85 20 ea ff ff 	lea    -0x15e0(%rbp),%rax
    d687:	48 05 80 01 00 00    	add    $0x180,%rax
    d68d:	48 89 85 b0 f2 ff ff 	mov    %rax,-0xd50(%rbp)
    d694:	48 8d 85 74 e1 ff ff 	lea    -0x1e8c(%rbp),%rax
    d69b:	48 89 85 b8 f2 ff ff 	mov    %rax,-0xd48(%rbp)
    d6a2:	48 8d 85 78 e1 ff ff 	lea    -0x1e88(%rbp),%rax
    d6a9:	48 89 85 c0 f2 ff ff 	mov    %rax,-0xd40(%rbp)
    d6b0:	48 8d 85 90 e2 ff ff 	lea    -0x1d70(%rbp),%rax
    d6b7:	48 89 85 c8 f2 ff ff 	mov    %rax,-0xd38(%rbp)
    d6be:	48 8d 85 74 e1 ff ff 	lea    -0x1e8c(%rbp),%rax
    d6c5:	48 89 85 d0 f2 ff ff 	mov    %rax,-0xd30(%rbp)
    d6cc:	48 8d 85 74 e1 ff ff 	lea    -0x1e8c(%rbp),%rax
    d6d3:	48 89 85 d8 f2 ff ff 	mov    %rax,-0xd28(%rbp)
    d6da:	48 c7 85 e0 f2 ff ff 	movq   $0x0,-0xd20(%rbp)
    d6e1:	00 00 00 00 
    d6e5:	48 c7 85 e8 f2 ff ff 	movq   $0x0,-0xd18(%rbp)
    d6ec:	00 00 00 00 
    d6f0:	48 8d 85 a8 e2 ff ff 	lea    -0x1d58(%rbp),%rax
    d6f7:	48 89 85 d0 e7 ff ff 	mov    %rax,-0x1830(%rbp)
    d6fe:	48 c7 85 d8 e7 ff ff 	movq   $0x0,-0x1828(%rbp)
    d705:	00 00 00 00 
    d709:	48 c7 85 e0 e7 ff ff 	movq   $0x0,-0x1820(%rbp)
    d710:	00 00 00 00 
    d714:	48 8d 85 a8 e2 ff ff 	lea    -0x1d58(%rbp),%rax
    d71b:	48 89 85 e8 e7 ff ff 	mov    %rax,-0x1818(%rbp)
    d722:	48 c7 85 f0 e7 ff ff 	movq   $0x0,-0x1810(%rbp)
    d729:	00 00 00 00 
    d72d:	48 c7 85 f8 e7 ff ff 	movq   $0x0,-0x1808(%rbp)
    d734:	00 00 00 00 
    d738:	48 8d 85 d8 e2 ff ff 	lea    -0x1d28(%rbp),%rax
    d73f:	48 89 85 08 e4 ff ff 	mov    %rax,-0x1bf8(%rbp)
    d746:	48 8b 85 08 e3 ff ff 	mov    -0x1cf8(%rbp),%rax
    d74d:	48 8d 95 88 e2 ff ff 	lea    -0x1d78(%rbp),%rdx
    d754:	48 89 10             	mov    %rdx,(%rax)
    d757:	48 8b 05 b2 a5 00 00 	mov    0xa5b2(%rip),%rax        # 17d10 <g_288>
    d75e:	0f b7 10             	movzwl (%rax),%edx
    d761:	48 8b 05 a8 a5 00 00 	mov    0xa5a8(%rip),%rax        # 17d10 <g_288>
    d768:	66 81 f2 09 ca       	xor    $0xca09,%dx
    d76d:	66 89 10             	mov    %dx,(%rax)
    d770:	0f b7 00             	movzwl (%rax),%eax
    d773:	0f bf d8             	movswl %ax,%ebx
    d776:	0f b7 05 63 ae 00 00 	movzwl 0xae63(%rip),%eax        # 185e0 <g_405>
    d77d:	98                   	cwtl   
    d77e:	8d 50 01             	lea    0x1(%rax),%edx
    d781:	8b 05 61 89 00 00    	mov    0x8961(%rip),%eax        # 160e8 <g_135>
    d787:	83 c0 02             	add    $0x2,%eax
    d78a:	48 63 c8             	movslq %eax,%rcx
    d78d:	48 63 d2             	movslq %edx,%rdx
    d790:	48 89 d0             	mov    %rdx,%rax
    d793:	48 c1 e0 02          	shl    $0x2,%rax
    d797:	48 01 d0             	add    %rdx,%rax
    d79a:	48 01 c0             	add    %rax,%rax
    d79d:	48 01 c8             	add    %rcx,%rax
    d7a0:	48 8d 14 00          	lea    (%rax,%rax,1),%rdx
    d7a4:	48 8d 05 55 89 00 00 	lea    0x8955(%rip),%rax        # 16100 <g_163>
    d7ab:	0f b7 04 02          	movzwl (%rdx,%rax,1),%eax
    d7af:	44 0f b7 e0          	movzwl %ax,%r12d
    d7b3:	be 04 00 00 00       	mov    $0x4,%esi
    d7b8:	bf 54 00 00 00       	mov    $0x54,%edi
    d7bd:	e8 73 8b ff ff       	callq  6335 <safe_rshift_func_int8_t_s_s>
    d7c2:	0f be c0             	movsbl %al,%eax
    d7c5:	44 89 e6             	mov    %r12d,%esi
    d7c8:	89 c7                	mov    %eax,%edi
    d7ca:	e8 fd 8e ff ff       	callq  66cc <safe_mod_func_int32_t_s_s>
    d7cf:	98                   	cwtl   
    d7d0:	89 de                	mov    %ebx,%esi
    d7d2:	89 c7                	mov    %eax,%edi
    d7d4:	e8 fa 8b ff ff       	callq  63d3 <safe_sub_func_int16_t_s_s>
    d7d9:	98                   	cwtl   
    d7da:	31 85 cc e1 ff ff    	xor    %eax,-0x1e34(%rbp)
    d7e0:	48 8b 85 c0 e6 ff ff 	mov    -0x1940(%rbp),%rax
    d7e7:	48 83 e8 01          	sub    $0x1,%rax
    d7eb:	48 89 85 c0 e6 ff ff 	mov    %rax,-0x1940(%rbp)
    d7f2:	48 8b 95 f8 e7 ff ff 	mov    -0x1808(%rbp),%rdx
    d7f9:	48 8b 85 08 e4 ff ff 	mov    -0x1bf8(%rbp),%rax
    d800:	48 89 10             	mov    %rdx,(%rax)
    d803:	48 8b 85 08 e4 ff ff 	mov    -0x1bf8(%rbp),%rax
    d80a:	48 8b 00             	mov    (%rax),%rax
    d80d:	48 85 c0             	test   %rax,%rax
    d810:	0f 94 c0             	sete   %al
    d813:	0f b6 d0             	movzbl %al,%edx
    d816:	48 8b 85 f8 e3 ff ff 	mov    -0x1c08(%rbp),%rax
    d81d:	8b 00                	mov    (%rax),%eax
    d81f:	09 c2                	or     %eax,%edx
    d821:	48 8b 85 f8 e3 ff ff 	mov    -0x1c08(%rbp),%rax
    d828:	89 10                	mov    %edx,(%rax)
    d82a:	8b 05 c4 88 00 00    	mov    0x88c4(%rip),%eax        # 160f4 <g_159>
    d830:	83 c0 01             	add    $0x1,%eax
    d833:	89 05 bb 88 00 00    	mov    %eax,0x88bb(%rip)        # 160f4 <g_159>
    d839:	8b 05 b5 88 00 00    	mov    0x88b5(%rip),%eax        # 160f4 <g_159>
    d83f:	83 f8 08             	cmp    $0x8,%eax
    d842:	0f 8e 92 fb ff ff    	jle    d3da <func_37+0x41de>
    d848:	c7 85 d0 e2 ff ff 02 	movl   $0x2,-0x1d30(%rbp)
    d84f:	00 00 00 
    d852:	e9 60 02 00 00       	jmpq   dab7 <func_37+0x48bb>
    d857:	48 8d 85 d0 e2 ff ff 	lea    -0x1d30(%rbp),%rax
    d85e:	48 89 85 d0 e7 ff ff 	mov    %rax,-0x1830(%rbp)
    d865:	48 c7 85 d8 e7 ff ff 	movq   $0x0,-0x1828(%rbp)
    d86c:	00 00 00 00 
    d870:	48 c7 85 e0 e7 ff ff 	movq   $0x0,-0x1820(%rbp)
    d877:	00 00 00 00 
    d87b:	48 8d 85 d0 e2 ff ff 	lea    -0x1d30(%rbp),%rax
    d882:	48 89 85 e8 e7 ff ff 	mov    %rax,-0x1818(%rbp)
    d889:	48 c7 85 f0 e7 ff ff 	movq   $0x0,-0x1810(%rbp)
    d890:	00 00 00 00 
    d894:	48 c7 85 f8 e7 ff ff 	movq   $0x0,-0x1808(%rbp)
    d89b:	00 00 00 00 
    d89f:	48 8d 85 d0 e2 ff ff 	lea    -0x1d30(%rbp),%rax
    d8a6:	48 89 85 00 e8 ff ff 	mov    %rax,-0x1800(%rbp)
    d8ad:	48 c7 85 08 e8 ff ff 	movq   $0x0,-0x17f8(%rbp)
    d8b4:	00 00 00 00 
    d8b8:	c7 85 b0 f1 ff ff 01 	movl   $0x1,-0xe50(%rbp)
    d8bf:	00 00 00 
    d8c2:	c7 85 b4 f1 ff ff 01 	movl   $0x1,-0xe4c(%rbp)
    d8c9:	00 00 00 
    d8cc:	c7 85 b8 f1 ff ff b2 	movl   $0xa827b1b2,-0xe48(%rbp)
    d8d3:	b1 27 a8 
    d8d6:	c7 85 bc f1 ff ff 01 	movl   $0x1,-0xe44(%rbp)
    d8dd:	00 00 00 
    d8e0:	c7 85 c0 f1 ff ff 01 	movl   $0x1,-0xe40(%rbp)
    d8e7:	00 00 00 
    d8ea:	c7 85 c4 f1 ff ff b2 	movl   $0xa827b1b2,-0xe3c(%rbp)
    d8f1:	b1 27 a8 
    d8f4:	c7 85 c8 f1 ff ff 01 	movl   $0x1,-0xe38(%rbp)
    d8fb:	00 00 00 
    d8fe:	c7 85 cc f1 ff ff 01 	movl   $0x1,-0xe34(%rbp)
    d905:	00 00 00 
    d908:	c7 85 d0 f1 ff ff 1b 	movl   $0xd69d971b,-0xe30(%rbp)
    d90f:	97 9d d6 
    d912:	c7 85 d4 f1 ff ff 1b 	movl   $0xd69d971b,-0xe2c(%rbp)
    d919:	97 9d d6 
    d91c:	c7 85 d8 f1 ff ff 01 	movl   $0x1,-0xe28(%rbp)
    d923:	00 00 00 
    d926:	c7 85 dc f1 ff ff 1b 	movl   $0xd69d971b,-0xe24(%rbp)
    d92d:	97 9d d6 
    d930:	c7 85 e0 f1 ff ff 1b 	movl   $0xd69d971b,-0xe20(%rbp)
    d937:	97 9d d6 
    d93a:	c7 85 e4 f1 ff ff 01 	movl   $0x1,-0xe1c(%rbp)
    d941:	00 00 00 
    d944:	c7 85 e8 f1 ff ff 1b 	movl   $0xd69d971b,-0xe18(%rbp)
    d94b:	97 9d d6 
    d94e:	c7 85 ec f1 ff ff 01 	movl   $0x1,-0xe14(%rbp)
    d955:	00 00 00 
    d958:	c7 85 f0 f1 ff ff 1b 	movl   $0xd69d971b,-0xe10(%rbp)
    d95f:	97 9d d6 
    d962:	c7 85 f4 f1 ff ff 1b 	movl   $0xd69d971b,-0xe0c(%rbp)
    d969:	97 9d d6 
    d96c:	c7 85 f8 f1 ff ff 01 	movl   $0x1,-0xe08(%rbp)
    d973:	00 00 00 
    d976:	c7 85 fc f1 ff ff 1b 	movl   $0xd69d971b,-0xe04(%rbp)
    d97d:	97 9d d6 
    d980:	c7 85 00 f2 ff ff 1b 	movl   $0xd69d971b,-0xe00(%rbp)
    d987:	97 9d d6 
    d98a:	c7 85 04 f2 ff ff 01 	movl   $0x1,-0xdfc(%rbp)
    d991:	00 00 00 
    d994:	c7 85 08 f2 ff ff 01 	movl   $0x1,-0xdf8(%rbp)
    d99b:	00 00 00 
    d99e:	c7 85 0c f2 ff ff b2 	movl   $0xa827b1b2,-0xdf4(%rbp)
    d9a5:	b1 27 a8 
    d9a8:	c7 85 10 f2 ff ff 01 	movl   $0x1,-0xdf0(%rbp)
    d9af:	00 00 00 
    d9b2:	c7 85 14 f2 ff ff 01 	movl   $0x1,-0xdec(%rbp)
    d9b9:	00 00 00 
    d9bc:	c7 85 18 f2 ff ff b2 	movl   $0xa827b1b2,-0xde8(%rbp)
    d9c3:	b1 27 a8 
    d9c6:	c7 85 1c f2 ff ff 01 	movl   $0x1,-0xde4(%rbp)
    d9cd:	00 00 00 
    d9d0:	c7 85 20 f2 ff ff 01 	movl   $0x1,-0xde0(%rbp)
    d9d7:	00 00 00 
    d9da:	c7 85 24 f2 ff ff 1b 	movl   $0xd69d971b,-0xddc(%rbp)
    d9e1:	97 9d d6 
    d9e4:	c7 85 28 f2 ff ff 1b 	movl   $0xd69d971b,-0xdd8(%rbp)
    d9eb:	97 9d d6 
    d9ee:	c7 85 2c f2 ff ff 01 	movl   $0x1,-0xdd4(%rbp)
    d9f5:	00 00 00 
    d9f8:	c7 85 30 f2 ff ff 1b 	movl   $0xd69d971b,-0xdd0(%rbp)
    d9ff:	97 9d d6 
    da02:	c7 85 34 f2 ff ff 1b 	movl   $0xd69d971b,-0xdcc(%rbp)
    da09:	97 9d d6 
    da0c:	c7 85 38 f2 ff ff 01 	movl   $0x1,-0xdc8(%rbp)
    da13:	00 00 00 
    da16:	c7 85 d4 e1 ff ff 00 	movl   $0x0,-0x1e2c(%rbp)
    da1d:	00 00 00 
    da20:	eb 46                	jmp    da68 <func_37+0x486c>
    da22:	c7 85 d8 e1 ff ff 00 	movl   $0x0,-0x1e28(%rbp)
    da29:	00 00 00 
    da2c:	eb 2a                	jmp    da58 <func_37+0x485c>
    da2e:	8b 85 d8 e1 ff ff    	mov    -0x1e28(%rbp),%eax
    da34:	48 63 d0             	movslq %eax,%rdx
    da37:	8b 85 d4 e1 ff ff    	mov    -0x1e2c(%rbp),%eax
    da3d:	48 98                	cltq   
    da3f:	48 01 c2             	add    %rax,%rdx
    da42:	48 8d 85 b0 e2 ff ff 	lea    -0x1d50(%rbp),%rax
    da49:	48 89 84 d5 b0 e5 ff 	mov    %rax,-0x1a50(%rbp,%rdx,8)
    da50:	ff 
    da51:	83 85 d8 e1 ff ff 01 	addl   $0x1,-0x1e28(%rbp)
    da58:	83 bd d8 e1 ff ff 00 	cmpl   $0x0,-0x1e28(%rbp)
    da5f:	7e cd                	jle    da2e <func_37+0x4832>
    da61:	83 85 d4 e1 ff ff 01 	addl   $0x1,-0x1e2c(%rbp)
    da68:	83 bd d4 e1 ff ff 00 	cmpl   $0x0,-0x1e2c(%rbp)
    da6f:	7e b1                	jle    da22 <func_37+0x4826>
    da71:	48 8b 85 68 e3 ff ff 	mov    -0x1c98(%rbp),%rax
    da78:	c7 00 fb ff ff ff    	movl   $0xfffffffb,(%rax)
    da7e:	48 83 ad e8 e2 ff ff 	subq   $0x1,-0x1d18(%rbp)
    da85:	01 
    da86:	48 8b 15 53 a3 00 00 	mov    0xa353(%rip),%rdx        # 17de0 <g_612>
    da8d:	48 8b 05 4c a3 00 00 	mov    0xa34c(%rip),%rax        # 17de0 <g_612>
    da94:	48 8b 12             	mov    (%rdx),%rdx
    da97:	48 89 10             	mov    %rdx,(%rax)
    da9a:	48 8b 85 80 e3 ff ff 	mov    -0x1c80(%rbp),%rax
    daa1:	48 89 85 b0 e5 ff ff 	mov    %rax,-0x1a50(%rbp)
    daa8:	8b 85 d0 e2 ff ff    	mov    -0x1d30(%rbp),%eax
    daae:	83 e8 01             	sub    $0x1,%eax
    dab1:	89 85 d0 e2 ff ff    	mov    %eax,-0x1d30(%rbp)
    dab7:	8b 85 d0 e2 ff ff    	mov    -0x1d30(%rbp),%eax
    dabd:	85 c0                	test   %eax,%eax
    dabf:	0f 89 92 fd ff ff    	jns    d857 <func_37+0x465b>
    dac5:	0f b7 05 14 ab 00 00 	movzwl 0xab14(%rip),%eax        # 185e0 <g_405>
    dacc:	83 e8 01             	sub    $0x1,%eax
    dacf:	66 89 05 0a ab 00 00 	mov    %ax,0xab0a(%rip)        # 185e0 <g_405>
    dad6:	0f b7 05 03 ab 00 00 	movzwl 0xab03(%rip),%eax        # 185e0 <g_405>
    dadd:	66 85 c0             	test   %ax,%ax
    dae0:	0f 89 35 f8 ff ff    	jns    d31b <func_37+0x411f>
    dae6:	8b 85 78 e1 ff ff    	mov    -0x1e88(%rbp),%eax
    daec:	8b 15 f6 85 00 00    	mov    0x85f6(%rip),%edx        # 160e8 <g_135>
    daf2:	83 c2 06             	add    $0x6,%edx
    daf5:	48 63 ca             	movslq %edx,%rcx
    daf8:	48 63 d0             	movslq %eax,%rdx
    dafb:	48 89 d0             	mov    %rdx,%rax
    dafe:	48 c1 e0 02          	shl    $0x2,%rax
    db02:	48 01 d0             	add    %rdx,%rax
    db05:	48 01 c0             	add    %rax,%rax
    db08:	48 01 c8             	add    %rcx,%rax
    db0b:	48 8d 14 00          	lea    (%rax,%rax,1),%rdx
    db0f:	48 8d 05 ea 85 00 00 	lea    0x85ea(%rip),%rax        # 16100 <g_163>
    db16:	0f b7 04 02          	movzwl (%rdx,%rax,1),%eax
    db1a:	0f b7 c0             	movzwl %ax,%eax
    db1d:	89 85 ec eb ff ff    	mov    %eax,-0x1414(%rbp)
    db23:	c7 05 2f 86 00 00 00 	movl   $0x0,0x862f(%rip)        # 1615c <g_234>
    db2a:	00 00 00 
    db2d:	eb 5a                	jmp    db89 <func_37+0x498d>
    db2f:	c7 85 a8 e2 ff ff 02 	movl   $0x2,-0x1d58(%rbp)
    db36:	00 00 00 
    db39:	90                   	nop
    db3a:	8b 85 a8 e2 ff ff    	mov    -0x1d58(%rbp),%eax
    db40:	85 c0                	test   %eax,%eax
    db42:	78 36                	js     db7a <func_37+0x497e>
    db44:	8b 85 a8 e2 ff ff    	mov    -0x1d58(%rbp),%eax
    db4a:	8b 15 98 85 00 00    	mov    0x8598(%rip),%edx        # 160e8 <g_135>
    db50:	48 63 ca             	movslq %edx,%rcx
    db53:	48 63 d0             	movslq %eax,%rdx
    db56:	48 89 d0             	mov    %rdx,%rax
    db59:	48 c1 e0 02          	shl    $0x2,%rax
    db5d:	48 01 d0             	add    %rdx,%rax
    db60:	48 01 c0             	add    %rax,%rax
    db63:	48 01 c8             	add    %rcx,%rax
    db66:	48 8d 14 00          	lea    (%rax,%rax,1),%rdx
    db6a:	48 8d 05 8f 85 00 00 	lea    0x858f(%rip),%rax        # 16100 <g_163>
    db71:	0f b7 04 02          	movzwl (%rdx,%rax,1),%eax
    db75:	e9 8f 04 00 00       	jmpq   e009 <func_37+0x4e0d>
    db7a:	8b 05 dc 85 00 00    	mov    0x85dc(%rip),%eax        # 1615c <g_234>
    db80:	83 c0 01             	add    $0x1,%eax
    db83:	89 05 d3 85 00 00    	mov    %eax,0x85d3(%rip)        # 1615c <g_234>
    db89:	8b 05 cd 85 00 00    	mov    0x85cd(%rip),%eax        # 1615c <g_234>
    db8f:	83 f8 02             	cmp    $0x2,%eax
    db92:	76 9b                	jbe    db2f <func_37+0x4933>
    db94:	8b 85 78 e1 ff ff    	mov    -0x1e88(%rbp),%eax
    db9a:	83 c0 01             	add    $0x1,%eax
    db9d:	89 85 78 e1 ff ff    	mov    %eax,-0x1e88(%rbp)
    dba3:	8b 85 78 e1 ff ff    	mov    -0x1e88(%rbp),%eax
    dba9:	83 f8 02             	cmp    $0x2,%eax
    dbac:	0f 8e c2 f6 ff ff    	jle    d274 <func_37+0x4078>
    dbb2:	eb 01                	jmp    dbb5 <func_37+0x49b9>
    dbb4:	90                   	nop
    dbb5:	8b 05 2d 85 00 00    	mov    0x852d(%rip),%eax        # 160e8 <g_135>
    dbbb:	83 e8 01             	sub    $0x1,%eax
    dbbe:	89 05 24 85 00 00    	mov    %eax,0x8524(%rip)        # 160e8 <g_135>
    dbc4:	8b 05 1e 85 00 00    	mov    0x851e(%rip),%eax        # 160e8 <g_135>
    dbca:	85 c0                	test   %eax,%eax
    dbcc:	0f 89 12 f3 ff ff    	jns    cee4 <func_37+0x3ce8>
    dbd2:	80 85 67 e1 ff ff 01 	addb   $0x1,-0x1e99(%rbp)
    dbd9:	0f b6 85 83 e7 ff ff 	movzbl -0x187d(%rbp),%eax
    dbe0:	44 0f b6 e0          	movzbl %al,%r12d
    dbe4:	0f b7 85 58 e1 ff ff 	movzwl -0x1ea8(%rbp),%eax
    dbeb:	0f be d8             	movsbl %al,%ebx
    dbee:	0f b7 85 58 e1 ff ff 	movzwl -0x1ea8(%rbp),%eax
    dbf5:	0f be d0             	movsbl %al,%edx
    dbf8:	48 8d 85 58 e1 ff ff 	lea    -0x1ea8(%rbp),%rax
    dbff:	48 39 85 20 e3 ff ff 	cmp    %rax,-0x1ce0(%rbp)
    dc06:	0f 95 c0             	setne  %al
    dc09:	0f b6 c0             	movzbl %al,%eax
    dc0c:	89 d6                	mov    %edx,%esi
    dc0e:	89 c7                	mov    %eax,%edi
    dc10:	e8 fd 85 ff ff       	callq  6212 <safe_mul_func_int8_t_s_s>
    dc15:	0f be d0             	movsbl %al,%edx
    dc18:	8b 85 78 e1 ff ff    	mov    -0x1e88(%rbp),%eax
    dc1e:	21 d0                	and    %edx,%eax
    dc20:	89 85 78 e1 ff ff    	mov    %eax,-0x1e88(%rbp)
    dc26:	8b 85 78 e1 ff ff    	mov    -0x1e88(%rbp),%eax
    dc2c:	0f be c0             	movsbl %al,%eax
    dc2f:	89 de                	mov    %ebx,%esi
    dc31:	89 c7                	mov    %eax,%edi
    dc33:	e8 9c 85 ff ff       	callq  61d4 <safe_add_func_int8_t_s_s>
    dc38:	89 c2                	mov    %eax,%edx
    dc3a:	48 8b 05 cf a0 00 00 	mov    0xa0cf(%rip),%rax        # 17d10 <g_288>
    dc41:	66 0f be d2          	movsbw %dl,%dx
    dc45:	66 89 10             	mov    %dx,(%rax)
    dc48:	0f b7 00             	movzwl (%rax),%eax
    dc4b:	98                   	cwtl   
    dc4c:	41 39 c4             	cmp    %eax,%r12d
    dc4f:	7c 07                	jl     dc58 <func_37+0x4a5c>
    dc51:	ba c0 ff ff ff       	mov    $0xffffffc0,%edx
    dc56:	eb 05                	jmp    dc5d <func_37+0x4a61>
    dc58:	ba c1 ff ff ff       	mov    $0xffffffc1,%edx
    dc5d:	0f b7 85 58 e1 ff ff 	movzwl -0x1ea8(%rbp),%eax
    dc64:	31 d0                	xor    %edx,%eax
    dc66:	0f be d0             	movsbl %al,%edx
    dc69:	8b 85 64 ed ff ff    	mov    -0x129c(%rbp),%eax
    dc6f:	48 8b 8d 50 e1 ff ff 	mov    -0x1eb0(%rbp),%rcx
    dc76:	09 c8                	or     %ecx,%eax
    dc78:	89 85 64 ed ff ff    	mov    %eax,-0x129c(%rbp)
    dc7e:	8b 85 64 ed ff ff    	mov    -0x129c(%rbp),%eax
    dc84:	0f be c0             	movsbl %al,%eax
    dc87:	89 d6                	mov    %edx,%esi
    dc89:	89 c7                	mov    %eax,%edi
    dc8b:	e8 82 85 ff ff       	callq  6212 <safe_mul_func_int8_t_s_s>
    dc90:	be 37 a0 2f ce       	mov    $0xce2fa037,%esi
    dc95:	bf 00 00 00 00       	mov    $0x0,%edi
    dc9a:	e8 86 92 ff ff       	callq  6f25 <safe_div_func_uint32_t_u_u>
    dc9f:	48 c7 c1 fd ff ff ff 	mov    $0xfffffffffffffffd,%rcx
    dca6:	48 8b 05 c3 a1 00 00 	mov    0xa1c3(%rip),%rax        # 17e70 <g_900>
    dcad:	8b 10                	mov    (%rax),%edx
    dcaf:	48 8b 05 ba a1 00 00 	mov    0xa1ba(%rip),%rax        # 17e70 <g_900>
    dcb6:	09 ca                	or     %ecx,%edx
    dcb8:	89 10                	mov    %edx,(%rax)
    dcba:	8b 00                	mov    (%rax),%eax
    dcbc:	85 c0                	test   %eax,%eax
    dcbe:	0f 84 d0 00 00 00    	je     dd94 <func_37+0x4b98>
    dcc4:	48 8d 85 20 ea ff ff 	lea    -0x15e0(%rbp),%rax
    dccb:	48 05 98 00 00 00    	add    $0x98,%rax
    dcd1:	48 89 85 40 e3 ff ff 	mov    %rax,-0x1cc0(%rbp)
    dcd8:	48 8d 85 78 e1 ff ff 	lea    -0x1e88(%rbp),%rax
    dcdf:	48 89 85 48 e3 ff ff 	mov    %rax,-0x1cb8(%rbp)
    dce6:	48 8d 85 20 ea ff ff 	lea    -0x15e0(%rbp),%rax
    dced:	48 05 98 00 00 00    	add    $0x98,%rax
    dcf3:	48 89 85 50 e3 ff ff 	mov    %rax,-0x1cb0(%rbp)
    dcfa:	48 c7 85 58 e3 ff ff 	movq   $0xffffffffffffffff,-0x1ca8(%rbp)
    dd01:	ff ff ff ff 
    dd05:	c7 85 dc e1 ff ff 00 	movl   $0x0,-0x1e24(%rbp)
    dd0c:	00 00 00 
    dd0f:	eb 25                	jmp    dd36 <func_37+0x4b3a>
    dd11:	8b 85 dc e1 ff ff    	mov    -0x1e24(%rbp),%eax
    dd17:	48 98                	cltq   
    dd19:	48 8d 95 20 ea ff ff 	lea    -0x15e0(%rbp),%rdx
    dd20:	48 81 c2 98 00 00 00 	add    $0x98,%rdx
    dd27:	48 89 94 c5 f0 f7 ff 	mov    %rdx,-0x810(%rbp,%rax,8)
    dd2e:	ff 
    dd2f:	83 85 dc e1 ff ff 01 	addl   $0x1,-0x1e24(%rbp)
    dd36:	83 bd dc e1 ff ff 03 	cmpl   $0x3,-0x1e24(%rbp)
    dd3d:	7e d2                	jle    dd11 <func_37+0x4b15>
    dd3f:	48 83 85 58 e3 ff ff 	addq   $0x1,-0x1ca8(%rbp)
    dd46:	01 
    dd47:	c7 85 78 e1 ff ff 00 	movl   $0x0,-0x1e88(%rbp)
    dd4e:	00 00 00 
    dd51:	eb 31                	jmp    dd84 <func_37+0x4b88>
    dd53:	8b 85 78 e1 ff ff    	mov    -0x1e88(%rbp),%eax
    dd59:	48 98                	cltq   
    dd5b:	48 8d 14 c5 00 00 00 	lea    0x0(,%rax,8),%rdx
    dd62:	00 
    dd63:	48 8d 05 16 a2 00 00 	lea    0xa216(%rip),%rax        # 17f80 <g_1307>
    dd6a:	48 8d 0d 9f 9f 00 00 	lea    0x9f9f(%rip),%rcx        # 17d10 <g_288>
    dd71:	48 89 0c 02          	mov    %rcx,(%rdx,%rax,1)
    dd75:	8b 85 78 e1 ff ff    	mov    -0x1e88(%rbp),%eax
    dd7b:	83 c0 01             	add    $0x1,%eax
    dd7e:	89 85 78 e1 ff ff    	mov    %eax,-0x1e88(%rbp)
    dd84:	8b 85 78 e1 ff ff    	mov    -0x1e88(%rbp),%eax
    dd8a:	83 f8 02             	cmp    $0x2,%eax
    dd8d:	7e c4                	jle    dd53 <func_37+0x4b57>
    dd8f:	e9 6b 02 00 00       	jmpq   dfff <func_37+0x4e03>
    dd94:	66 c7 85 6a e1 ff ff 	movw   $0xe2ea,-0x1e96(%rbp)
    dd9b:	ea e2 
    dd9d:	c7 85 e4 e1 ff ff e9 	movl   $0x97a783e9,-0x1e1c(%rbp)
    dda4:	83 a7 97 
    dda7:	c7 85 e8 e1 ff ff 02 	movl   $0x2,-0x1e18(%rbp)
    ddae:	00 00 00 
    ddb1:	48 8d 05 28 83 00 00 	lea    0x8328(%rip),%rax        # 160e0 <g_127>
    ddb8:	48 89 85 28 e3 ff ff 	mov    %rax,-0x1cd8(%rbp)
    ddbf:	48 8d 05 02 83 00 00 	lea    0x8302(%rip),%rax        # 160c8 <g_58>
    ddc6:	48 89 85 30 e3 ff ff 	mov    %rax,-0x1cd0(%rbp)
    ddcd:	48 8d 85 74 e1 ff ff 	lea    -0x1e8c(%rbp),%rax
    ddd4:	48 89 85 38 e3 ff ff 	mov    %rax,-0x1cc8(%rbp)
    dddb:	48 8b 05 fe 9f 00 00 	mov    0x9ffe(%rip),%rax        # 17de0 <g_612>
    dde2:	48 8b 00             	mov    (%rax),%rax
    dde5:	48 8b 00             	mov    (%rax),%rax
    dde8:	0f b7 10             	movzwl (%rax),%edx
    ddeb:	83 c2 01             	add    $0x1,%edx
    ddee:	66 89 10             	mov    %dx,(%rax)
    ddf1:	0f b7 00             	movzwl (%rax),%eax
    ddf4:	0f b7 c0             	movzwl %ax,%eax
    ddf7:	48 39 85 50 e1 ff ff 	cmp    %rax,-0x1eb0(%rbp)
    ddfe:	0f 85 d2 01 00 00    	jne    dfd6 <func_37+0x4dda>
    de04:	0f b7 85 58 e1 ff ff 	movzwl -0x1ea8(%rbp),%eax
    de0b:	0f b7 d8             	movzwl %ax,%ebx
    de0e:	48 8b 05 23 a0 00 00 	mov    0xa023(%rip),%rax        # 17e38 <g_768>
    de15:	48 8b 00             	mov    (%rax),%rax
    de18:	48 0f bf 95 6a e1 ff 	movswq -0x1e96(%rbp),%rdx
    de1f:	ff 
    de20:	48 89 10             	mov    %rdx,(%rax)
    de23:	48 8b 00             	mov    (%rax),%rax
    de26:	89 85 e4 e1 ff ff    	mov    %eax,-0x1e1c(%rbp)
    de2c:	48 8b 85 50 e1 ff ff 	mov    -0x1eb0(%rbp),%rax
    de33:	44 0f be e0          	movsbl %al,%r12d
    de37:	48 8b 05 aa 9f 00 00 	mov    0x9faa(%rip),%rax        # 17de8 <g_722>
    de3e:	0f b6 00             	movzbl (%rax),%eax
    de41:	44 0f b6 f8          	movzbl %al,%r15d
    de45:	0f b7 85 58 e1 ff ff 	movzwl -0x1ea8(%rbp),%eax
    de4c:	44 0f b6 e8          	movzbl %al,%r13d
    de50:	44 0f b6 b5 5c e1 ff 	movzbl -0x1ea4(%rbp),%r14d
    de57:	ff 
    de58:	0f bf 95 6a e1 ff ff 	movswl -0x1e96(%rbp),%edx
    de5f:	0f b6 85 5c e1 ff ff 	movzbl -0x1ea4(%rbp),%eax
    de66:	39 c2                	cmp    %eax,%edx
    de68:	0f 9e c0             	setle  %al
    de6b:	0f b6 d0             	movzbl %al,%edx
    de6e:	0f b6 85 83 e7 ff ff 	movzbl -0x187d(%rbp),%eax
    de75:	0f b6 c0             	movzbl %al,%eax
    de78:	89 d6                	mov    %edx,%esi
    de7a:	89 c7                	mov    %eax,%edi
    de7c:	e8 84 8d ff ff       	callq  6c05 <safe_lshift_func_uint8_t_u_s>
    de81:	f7 d0                	not    %eax
    de83:	22 85 5c e1 ff ff    	and    -0x1ea4(%rbp),%al
    de89:	0f b6 d0             	movzbl %al,%edx
    de8c:	0f bf 85 6a e1 ff ff 	movswl -0x1e96(%rbp),%eax
    de93:	39 c2                	cmp    %eax,%edx
    de95:	0f 9d c0             	setge  %al
    de98:	0f b6 c0             	movzbl %al,%eax
    de9b:	f7 d0                	not    %eax
    de9d:	39 85 e0 e1 ff ff    	cmp    %eax,-0x1e20(%rbp)
    dea3:	0f 94 c0             	sete   %al
    dea6:	0f b6 d0             	movzbl %al,%edx
    dea9:	0f b6 85 5c e1 ff ff 	movzbl -0x1ea4(%rbp),%eax
    deb0:	39 c2                	cmp    %eax,%edx
    deb2:	0f 95 c0             	setne  %al
    deb5:	0f b6 c0             	movzbl %al,%eax
    deb8:	44 89 f6             	mov    %r14d,%esi
    debb:	89 c7                	mov    %eax,%edi
    debd:	e8 33 85 ff ff       	callq  63f5 <safe_mul_func_int16_t_s_s>
    dec2:	0f bf 85 6a e1 ff ff 	movswl -0x1e96(%rbp),%eax
    dec9:	89 c6                	mov    %eax,%esi
    decb:	bf 3f 89 ff ff       	mov    $0xffff893f,%edi
    ded0:	e8 80 85 ff ff       	callq  6455 <safe_div_func_int16_t_s_s>
    ded5:	98                   	cwtl   
    ded6:	89 85 e8 e1 ff ff    	mov    %eax,-0x1e18(%rbp)
    dedc:	8b 85 e8 e1 ff ff    	mov    -0x1e18(%rbp),%eax
    dee2:	be 4e 00 00 0e       	mov    $0xe00004e,%esi
    dee7:	89 c7                	mov    %eax,%edi
    dee9:	e8 0f 90 ff ff       	callq  6efd <safe_mod_func_uint32_t_u_u>
    deee:	89 c2                	mov    %eax,%edx
    def0:	48 8b 85 28 e3 ff ff 	mov    -0x1cd8(%rbp),%rax
    def7:	48 8b 00             	mov    (%rax),%rax
    defa:	89 d2                	mov    %edx,%edx
    defc:	48 31 c2             	xor    %rax,%rdx
    deff:	48 8b 85 28 e3 ff ff 	mov    -0x1cd8(%rbp),%rax
    df06:	48 89 10             	mov    %rdx,(%rax)
    df09:	c6 85 5c e1 ff ff 01 	movb   $0x1,-0x1ea4(%rbp)
    df10:	0f b6 95 5c e1 ff ff 	movzbl -0x1ea4(%rbp),%edx
    df17:	48 8b 85 30 e3 ff ff 	mov    -0x1cd0(%rbp),%rax
    df1e:	0f b6 00             	movzbl (%rax),%eax
    df21:	09 c2                	or     %eax,%edx
    df23:	48 8b 85 30 e3 ff ff 	mov    -0x1cd0(%rbp),%rax
    df2a:	88 10                	mov    %dl,(%rax)
    df2c:	48 8b 85 30 e3 ff ff 	mov    -0x1cd0(%rbp),%rax
    df33:	0f b6 00             	movzbl (%rax),%eax
    df36:	0f b6 c0             	movzbl %al,%eax
    df39:	be 86 00 00 00       	mov    $0x86,%esi
    df3e:	89 c7                	mov    %eax,%edi
    df40:	e8 33 8c ff ff       	callq  6b78 <safe_sub_func_uint8_t_u_u>
    df45:	0f b6 c0             	movzbl %al,%eax
    df48:	44 89 ee             	mov    %r13d,%esi
    df4b:	89 c7                	mov    %eax,%edi
    df4d:	e8 89 8c ff ff       	callq  6bdb <safe_div_func_uint8_t_u_u>
    df52:	0f b6 d0             	movzbl %al,%edx
    df55:	48 8b 05 84 9e 00 00 	mov    0x9e84(%rip),%rax        # 17de0 <g_612>
    df5c:	48 8b 00             	mov    (%rax),%rax
    df5f:	48 8b 00             	mov    (%rax),%rax
    df62:	0f b7 00             	movzwl (%rax),%eax
    df65:	66 39 c2             	cmp    %ax,%dx
    df68:	0f 97 c0             	seta   %al
    df6b:	0f b6 c0             	movzbl %al,%eax
    df6e:	41 39 c7             	cmp    %eax,%r15d
    df71:	0f 9e c0             	setle  %al
    df74:	0f b6 c0             	movzbl %al,%eax
    df77:	44 89 e6             	mov    %r12d,%esi
    df7a:	89 c7                	mov    %eax,%edi
    df7c:	e8 91 82 ff ff       	callq  6212 <safe_mul_func_int8_t_s_s>
    df81:	0f be c0             	movsbl %al,%eax
    df84:	39 85 e4 e1 ff ff    	cmp    %eax,-0x1e1c(%rbp)
    df8a:	0f 95 c2             	setne  %dl
    df8d:	48 8b 05 dc 9e 00 00 	mov    0x9edc(%rip),%rax        # 17e70 <g_900>
    df94:	0f b6 d2             	movzbl %dl,%edx
    df97:	89 10                	mov    %edx,(%rax)
    df99:	8b 00                	mov    (%rax),%eax
    df9b:	89 de                	mov    %ebx,%esi
    df9d:	89 c7                	mov    %eax,%edi
    df9f:	e8 12 86 ff ff       	callq  65b6 <safe_add_func_int32_t_s_s>
    dfa4:	0f b7 c0             	movzwl %ax,%eax
    dfa7:	be 04 00 00 00       	mov    $0x4,%esi
    dfac:	89 c7                	mov    %eax,%edi
    dfae:	e8 c7 8e ff ff       	callq  6e7a <safe_rshift_func_uint16_t_u_u>
    dfb3:	0f b7 c0             	movzwl %ax,%eax
    dfb6:	48 39 85 50 e1 ff ff 	cmp    %rax,-0x1eb0(%rbp)
    dfbd:	0f 9e c0             	setle  %al
    dfc0:	0f b6 c8             	movzbl %al,%ecx
    dfc3:	48 8b 05 d6 9f 00 00 	mov    0x9fd6(%rip),%rax        # 17fa0 <g_1450>
    dfca:	8b 10                	mov    (%rax),%edx
    dfcc:	09 ca                	or     %ecx,%edx
    dfce:	89 10                	mov    %edx,(%rax)
    dfd0:	8b 00                	mov    (%rax),%eax
    dfd2:	85 c0                	test   %eax,%eax
    dfd4:	74 07                	je     dfdd <func_37+0x4de1>
    dfd6:	ba 01 00 00 00       	mov    $0x1,%edx
    dfdb:	eb 05                	jmp    dfe2 <func_37+0x4de6>
    dfdd:	ba 00 00 00 00       	mov    $0x0,%edx
    dfe2:	48 8b 85 38 e3 ff ff 	mov    -0x1cc8(%rbp),%rax
    dfe9:	8b 00                	mov    (%rax),%eax
    dfeb:	09 c2                	or     %eax,%edx
    dfed:	48 8b 85 38 e3 ff ff 	mov    -0x1cc8(%rbp),%rax
    dff4:	89 10                	mov    %edx,(%rax)
    dff6:	0f b6 85 5c e1 ff ff 	movzbl -0x1ea4(%rbp),%eax
    dffd:	eb 0a                	jmp    e009 <func_37+0x4e0d>
    dfff:	48 8b 05 0a 9d 00 00 	mov    0x9d0a(%rip),%rax        # 17d10 <g_288>
    e006:	0f b7 00             	movzwl (%rax),%eax
    e009:	48 8b 5d c8          	mov    -0x38(%rbp),%rbx
    e00d:	64 48 33 1c 25 28 00 	xor    %fs:0x28,%rbx
    e014:	00 00 
    e016:	74 05                	je     e01d <func_37+0x4e21>
    e018:	e8 53 80 ff ff       	callq  6070 <__stack_chk_fail@plt>
    e01d:	48 81 c4 88 1e 00 00 	add    $0x1e88,%rsp
    e024:	5b                   	pop    %rbx
    e025:	41 5c                	pop    %r12
    e027:	41 5d                	pop    %r13
    e029:	41 5e                	pop    %r14
    e02b:	41 5f                	pop    %r15
    e02d:	5d                   	pop    %rbp
    e02e:	c3                   	retq   

000000000000e02f <func_43>:
    e02f:	f3 0f 1e fa          	endbr64 
    e033:	55                   	push   %rbp
    e034:	48 89 e5             	mov    %rsp,%rbp
    e037:	41 54                	push   %r12
    e039:	53                   	push   %rbx
    e03a:	48 81 ec 50 01 00 00 	sub    $0x150,%rsp
    e041:	89 bd ac fe ff ff    	mov    %edi,-0x154(%rbp)
    e047:	89 f0                	mov    %esi,%eax
    e049:	89 8d a0 fe ff ff    	mov    %ecx,-0x160(%rbp)
    e04f:	66 89 85 a8 fe ff ff 	mov    %ax,-0x158(%rbp)
    e056:	89 d0                	mov    %edx,%eax
    e058:	88 85 a4 fe ff ff    	mov    %al,-0x15c(%rbp)
    e05e:	64 48 8b 04 25 28 00 	mov    %fs:0x28,%rax
    e065:	00 00 
    e067:	48 89 45 e8          	mov    %rax,-0x18(%rbp)
    e06b:	31 c0                	xor    %eax,%eax
    e06d:	48 c7 85 c8 fe ff ff 	movq   $0x3,-0x138(%rbp)
    e074:	03 00 00 00 
    e078:	c7 85 c0 fe ff ff 69 	movl   $0x92ac469,-0x140(%rbp)
    e07f:	c4 2a 09 
    e082:	48 8d 05 d3 80 00 00 	lea    0x80d3(%rip),%rax        # 1615c <g_234>
    e089:	48 89 85 f0 fe ff ff 	mov    %rax,-0x110(%rbp)
    e090:	48 8d 05 c5 80 00 00 	lea    0x80c5(%rip),%rax        # 1615c <g_234>
    e097:	48 89 85 f8 fe ff ff 	mov    %rax,-0x108(%rbp)
    e09e:	48 8d 05 b7 80 00 00 	lea    0x80b7(%rip),%rax        # 1615c <g_234>
    e0a5:	48 89 85 00 ff ff ff 	mov    %rax,-0x100(%rbp)
    e0ac:	48 8d 05 a9 80 00 00 	lea    0x80a9(%rip),%rax        # 1615c <g_234>
    e0b3:	48 89 85 08 ff ff ff 	mov    %rax,-0xf8(%rbp)
    e0ba:	48 8d 05 9b 80 00 00 	lea    0x809b(%rip),%rax        # 1615c <g_234>
    e0c1:	48 89 85 10 ff ff ff 	mov    %rax,-0xf0(%rbp)
    e0c8:	48 8d 05 8d 80 00 00 	lea    0x808d(%rip),%rax        # 1615c <g_234>
    e0cf:	48 89 85 18 ff ff ff 	mov    %rax,-0xe8(%rbp)
    e0d6:	48 8d 05 7f 80 00 00 	lea    0x807f(%rip),%rax        # 1615c <g_234>
    e0dd:	48 89 85 20 ff ff ff 	mov    %rax,-0xe0(%rbp)
    e0e4:	48 8d 05 71 80 00 00 	lea    0x8071(%rip),%rax        # 1615c <g_234>
    e0eb:	48 89 85 28 ff ff ff 	mov    %rax,-0xd8(%rbp)
    e0f2:	48 8d 05 63 80 00 00 	lea    0x8063(%rip),%rax        # 1615c <g_234>
    e0f9:	48 89 85 30 ff ff ff 	mov    %rax,-0xd0(%rbp)
    e100:	48 8d 05 55 80 00 00 	lea    0x8055(%rip),%rax        # 1615c <g_234>
    e107:	48 89 85 38 ff ff ff 	mov    %rax,-0xc8(%rbp)
    e10e:	48 8d 05 47 80 00 00 	lea    0x8047(%rip),%rax        # 1615c <g_234>
    e115:	48 89 85 40 ff ff ff 	mov    %rax,-0xc0(%rbp)
    e11c:	48 8d 05 39 80 00 00 	lea    0x8039(%rip),%rax        # 1615c <g_234>
    e123:	48 89 85 48 ff ff ff 	mov    %rax,-0xb8(%rbp)
    e12a:	48 8d 05 2b 80 00 00 	lea    0x802b(%rip),%rax        # 1615c <g_234>
    e131:	48 89 85 50 ff ff ff 	mov    %rax,-0xb0(%rbp)
    e138:	48 8d 05 1d 80 00 00 	lea    0x801d(%rip),%rax        # 1615c <g_234>
    e13f:	48 89 85 58 ff ff ff 	mov    %rax,-0xa8(%rbp)
    e146:	48 8d 05 0f 80 00 00 	lea    0x800f(%rip),%rax        # 1615c <g_234>
    e14d:	48 89 85 60 ff ff ff 	mov    %rax,-0xa0(%rbp)
    e154:	48 8d 05 01 80 00 00 	lea    0x8001(%rip),%rax        # 1615c <g_234>
    e15b:	48 89 85 68 ff ff ff 	mov    %rax,-0x98(%rbp)
    e162:	48 8d 05 f3 7f 00 00 	lea    0x7ff3(%rip),%rax        # 1615c <g_234>
    e169:	48 89 85 70 ff ff ff 	mov    %rax,-0x90(%rbp)
    e170:	48 8d 05 e5 7f 00 00 	lea    0x7fe5(%rip),%rax        # 1615c <g_234>
    e177:	48 89 85 78 ff ff ff 	mov    %rax,-0x88(%rbp)
    e17e:	48 8d 05 d7 7f 00 00 	lea    0x7fd7(%rip),%rax        # 1615c <g_234>
    e185:	48 89 45 80          	mov    %rax,-0x80(%rbp)
    e189:	48 8d 05 cc 7f 00 00 	lea    0x7fcc(%rip),%rax        # 1615c <g_234>
    e190:	48 89 45 88          	mov    %rax,-0x78(%rbp)
    e194:	48 8d 05 c1 7f 00 00 	lea    0x7fc1(%rip),%rax        # 1615c <g_234>
    e19b:	48 89 45 90          	mov    %rax,-0x70(%rbp)
    e19f:	48 8d 05 b6 7f 00 00 	lea    0x7fb6(%rip),%rax        # 1615c <g_234>
    e1a6:	48 89 45 98          	mov    %rax,-0x68(%rbp)
    e1aa:	48 8d 05 ab 7f 00 00 	lea    0x7fab(%rip),%rax        # 1615c <g_234>
    e1b1:	48 89 45 a0          	mov    %rax,-0x60(%rbp)
    e1b5:	48 8d 05 a0 7f 00 00 	lea    0x7fa0(%rip),%rax        # 1615c <g_234>
    e1bc:	48 89 45 a8          	mov    %rax,-0x58(%rbp)
    e1c0:	48 8d 05 95 7f 00 00 	lea    0x7f95(%rip),%rax        # 1615c <g_234>
    e1c7:	48 89 45 b0          	mov    %rax,-0x50(%rbp)
    e1cb:	48 8d 05 8a 7f 00 00 	lea    0x7f8a(%rip),%rax        # 1615c <g_234>
    e1d2:	48 89 45 b8          	mov    %rax,-0x48(%rbp)
    e1d6:	48 8d 05 7f 7f 00 00 	lea    0x7f7f(%rip),%rax        # 1615c <g_234>
    e1dd:	48 89 45 c0          	mov    %rax,-0x40(%rbp)
    e1e1:	48 8d 05 74 7f 00 00 	lea    0x7f74(%rip),%rax        # 1615c <g_234>
    e1e8:	48 89 45 c8          	mov    %rax,-0x38(%rbp)
    e1ec:	48 8d 05 69 7f 00 00 	lea    0x7f69(%rip),%rax        # 1615c <g_234>
    e1f3:	48 89 45 d0          	mov    %rax,-0x30(%rbp)
    e1f7:	48 8d 05 5e 7f 00 00 	lea    0x7f5e(%rip),%rax        # 1615c <g_234>
    e1fe:	48 89 45 d8          	mov    %rax,-0x28(%rbp)
    e202:	c7 85 c4 fe ff ff 09 	movl   $0x9,-0x13c(%rbp)
    e209:	00 00 00 
    e20c:	48 8d 05 61 7f 00 00 	lea    0x7f61(%rip),%rax        # 16174 <g_1259>
    e213:	48 89 85 d0 fe ff ff 	mov    %rax,-0x130(%rbp)
    e21a:	c7 85 b8 fe ff ff 00 	movl   $0x0,-0x148(%rbp)
    e221:	00 00 00 
    e224:	eb 49                	jmp    e26f <func_43+0x240>
    e226:	c7 85 bc fe ff ff 00 	movl   $0x0,-0x144(%rbp)
    e22d:	00 00 00 
    e230:	eb 2d                	jmp    e25f <func_43+0x230>
    e232:	8b 85 bc fe ff ff    	mov    -0x144(%rbp),%eax
    e238:	48 98                	cltq   
    e23a:	8b 95 b8 fe ff ff    	mov    -0x148(%rbp),%edx
    e240:	48 63 d2             	movslq %edx,%rdx
    e243:	48 01 d2             	add    %rdx,%rdx
    e246:	48 01 d0             	add    %rdx,%rax
    e249:	48 8d 15 e0 9b 00 00 	lea    0x9be0(%rip),%rdx        # 17e30 <g_769>
    e250:	48 89 94 c5 e0 fe ff 	mov    %rdx,-0x120(%rbp,%rax,8)
    e257:	ff 
    e258:	83 85 bc fe ff ff 01 	addl   $0x1,-0x144(%rbp)
    e25f:	83 bd bc fe ff ff 01 	cmpl   $0x1,-0x144(%rbp)
    e266:	7e ca                	jle    e232 <func_43+0x203>
    e268:	83 85 b8 fe ff ff 01 	addl   $0x1,-0x148(%rbp)
    e26f:	83 bd b8 fe ff ff 00 	cmpl   $0x0,-0x148(%rbp)
    e276:	7e ae                	jle    e226 <func_43+0x1f7>
    e278:	c7 85 b8 fe ff ff 00 	movl   $0x0,-0x148(%rbp)
    e27f:	00 00 00 
    e282:	eb 1a                	jmp    e29e <func_43+0x26f>
    e284:	8b 85 b8 fe ff ff    	mov    -0x148(%rbp),%eax
    e28a:	48 98                	cltq   
    e28c:	c7 84 85 d8 fe ff ff 	movl   $0x8503e038,-0x128(%rbp,%rax,4)
    e293:	38 e0 03 85 
    e297:	83 85 b8 fe ff ff 01 	addl   $0x1,-0x148(%rbp)
    e29e:	83 bd b8 fe ff ff 01 	cmpl   $0x1,-0x148(%rbp)
    e2a5:	7e dd                	jle    e284 <func_43+0x255>
    e2a7:	48 8d 85 ac fe ff ff 	lea    -0x154(%rbp),%rax
    e2ae:	48 89 05 2b 9a 00 00 	mov    %rax,0x9a2b(%rip)        # 17ce0 <g_134>
    e2b5:	8b 05 a1 7e 00 00    	mov    0x7ea1(%rip),%eax        # 1615c <g_234>
    e2bb:	41 89 c4             	mov    %eax,%r12d
    e2be:	48 8b 85 c8 fe ff ff 	mov    -0x138(%rbp),%rax
    e2c5:	0f be d0             	movsbl %al,%edx
    e2c8:	48 8b 85 c8 fe ff ff 	mov    -0x138(%rbp),%rax
    e2cf:	0f be c0             	movsbl %al,%eax
    e2d2:	89 d6                	mov    %edx,%esi
    e2d4:	89 c7                	mov    %eax,%edi
    e2d6:	e8 f9 7e ff ff       	callq  61d4 <safe_add_func_int8_t_s_s>
    e2db:	0f be c0             	movsbl %al,%eax
    e2de:	be 07 00 00 00       	mov    $0x7,%esi
    e2e3:	89 c7                	mov    %eax,%edi
    e2e5:	e8 04 80 ff ff       	callq  62ee <safe_lshift_func_int8_t_s_u>
    e2ea:	84 c0                	test   %al,%al
    e2ec:	74 5c                	je     e34a <func_43+0x31b>
    e2ee:	8b 85 a0 fe ff ff    	mov    -0x160(%rbp),%eax
    e2f4:	48 63 d8             	movslq %eax,%rbx
    e2f7:	48 8b 05 12 9a 00 00 	mov    0x9a12(%rip),%rax        # 17d10 <g_288>
    e2fe:	0f b7 00             	movzwl (%rax),%eax
    e301:	98                   	cwtl   
    e302:	89 c6                	mov    %eax,%esi
    e304:	bf 18 d7 00 00       	mov    $0xd718,%edi
    e309:	e8 b0 8a ff ff       	callq  6dbe <safe_lshift_func_uint16_t_u_s>
    e30e:	0f b7 c0             	movzwl %ax,%eax
    e311:	48 89 de             	mov    %rbx,%rsi
    e314:	48 89 c7             	mov    %rax,%rdi
    e317:	e8 8c 85 ff ff       	callq  68a8 <safe_sub_func_int64_t_s_s>
    e31c:	89 c2                	mov    %eax,%edx
    e31e:	48 8b 05 bb 9a 00 00 	mov    0x9abb(%rip),%rax        # 17de0 <g_612>
    e325:	48 8b 00             	mov    (%rax),%rax
    e328:	48 8b 00             	mov    (%rax),%rax
    e32b:	0f b7 00             	movzwl (%rax),%eax
    e32e:	0f b7 c0             	movzwl %ax,%eax
    e331:	09 d0                	or     %edx,%eax
    e333:	89 85 ac fe ff ff    	mov    %eax,-0x154(%rbp)
    e339:	8b 85 ac fe ff ff    	mov    -0x154(%rbp),%eax
    e33f:	85 c0                	test   %eax,%eax
    e341:	74 07                	je     e34a <func_43+0x31b>
    e343:	b8 01 00 00 00       	mov    $0x1,%eax
    e348:	eb 05                	jmp    e34f <func_43+0x320>
    e34a:	b8 00 00 00 00       	mov    $0x0,%eax
    e34f:	f7 d0                	not    %eax
    e351:	be 08 55 7f bc       	mov    $0xbc7f5508,%esi
    e356:	89 c7                	mov    %eax,%edi
    e358:	e8 59 82 ff ff       	callq  65b6 <safe_add_func_int32_t_s_s>
    e35d:	48 8b 05 0c 9b 00 00 	mov    0x9b0c(%rip),%rax        # 17e70 <g_900>
    e364:	8b 00                	mov    (%rax),%eax
    e366:	83 f8 05             	cmp    $0x5,%eax
    e369:	0f 96 c0             	setbe  %al
    e36c:	0f b6 d8             	movzbl %al,%ebx
    e36f:	48 8b 05 5a 9a 00 00 	mov    0x9a5a(%rip),%rax        # 17dd0 <g_614>
    e376:	0f b7 00             	movzwl (%rax),%eax
    e379:	98                   	cwtl   
    e37a:	89 c6                	mov    %eax,%esi
    e37c:	bf 7d 67 00 00       	mov    $0x677d,%edi
    e381:	e8 6f 80 ff ff       	callq  63f5 <safe_mul_func_int16_t_s_s>
    e386:	66 83 f8 01          	cmp    $0x1,%ax
    e38a:	0f 94 c0             	sete   %al
    e38d:	0f b6 c0             	movzbl %al,%eax
    e390:	89 de                	mov    %ebx,%esi
    e392:	89 c7                	mov    %eax,%edi
    e394:	e8 55 7f ff ff       	callq  62ee <safe_lshift_func_int8_t_s_u>
    e399:	8b 85 c0 fe ff ff    	mov    -0x140(%rbp),%eax
    e39f:	48 ba 9e 40 b6 ca 76 	movabs $0x93942776cab6409e,%rdx
    e3a6:	27 94 93 
    e3a9:	48 09 c2             	or     %rax,%rdx
    e3ac:	0f b7 05 27 7d 00 00 	movzwl 0x7d27(%rip),%eax        # 160da <g_106>
    e3b3:	48 0f bf c0          	movswq %ax,%rax
    e3b7:	48 39 c2             	cmp    %rax,%rdx
    e3ba:	0f 97 c0             	seta   %al
    e3bd:	0f b6 c0             	movzbl %al,%eax
    e3c0:	4c 89 e6             	mov    %r12,%rsi
    e3c3:	48 89 c7             	mov    %rax,%rdi
    e3c6:	e8 2c 86 ff ff       	callq  69f7 <safe_div_func_int64_t_s_s>
    e3cb:	48 39 85 c8 fe ff ff 	cmp    %rax,-0x138(%rbp)
    e3d2:	0f 97 c0             	seta   %al
    e3d5:	0f b6 c0             	movzbl %al,%eax
    e3d8:	48 0b 85 c8 fe ff ff 	or     -0x138(%rbp),%rax
    e3df:	48 89 c2             	mov    %rax,%rdx
    e3e2:	8b 85 a0 fe ff ff    	mov    -0x160(%rbp),%eax
    e3e8:	48 98                	cltq   
    e3ea:	48 39 c2             	cmp    %rax,%rdx
    e3ed:	0f 96 c0             	setbe  %al
    e3f0:	0f b6 c0             	movzbl %al,%eax
    e3f3:	89 85 d8 fe ff ff    	mov    %eax,-0x128(%rbp)
    e3f9:	8b 85 d8 fe ff ff    	mov    -0x128(%rbp),%eax
    e3ff:	89 85 c4 fe ff ff    	mov    %eax,-0x13c(%rbp)
    e405:	be 0f 00 00 00       	mov    $0xf,%esi
    e40a:	bf d0 92 ff ff       	mov    $0xffff92d0,%edi
    e40f:	e8 7e 80 ff ff       	callq  6492 <safe_lshift_func_int16_t_s_s>
    e414:	48 8b 05 bd 99 00 00 	mov    0x99bd(%rip),%rax        # 17dd8 <g_613>
    e41b:	48 8b 00             	mov    (%rax),%rax
    e41e:	66 c7 00 ff ff       	movw   $0xffff,(%rax)
    e423:	0f b7 00             	movzwl (%rax),%eax
    e426:	0f b7 d0             	movzwl %ax,%edx
    e429:	0f bf 85 a8 fe ff ff 	movswl -0x158(%rbp),%eax
    e430:	39 c2                	cmp    %eax,%edx
    e432:	0f 9c c0             	setl   %al
    e435:	0f b6 d0             	movzbl %al,%edx
    e438:	48 8b 85 c8 fe ff ff 	mov    -0x138(%rbp),%rax
    e43f:	0f b7 c0             	movzwl %ax,%eax
    e442:	89 d6                	mov    %edx,%esi
    e444:	89 c7                	mov    %eax,%edi
    e446:	e8 73 89 ff ff       	callq  6dbe <safe_lshift_func_uint16_t_u_s>
    e44b:	48 8b 95 d0 fe ff ff 	mov    -0x130(%rbp),%rdx
    e452:	8b 12                	mov    (%rdx),%edx
    e454:	0f b7 c0             	movzwl %ax,%eax
    e457:	21 c2                	and    %eax,%edx
    e459:	48 8b 85 d0 fe ff ff 	mov    -0x130(%rbp),%rax
    e460:	89 10                	mov    %edx,(%rax)
    e462:	48 8b 85 d0 fe ff ff 	mov    -0x130(%rbp),%rax
    e469:	8b 00                	mov    (%rax),%eax
    e46b:	48 8b 4d e8          	mov    -0x18(%rbp),%rcx
    e46f:	64 48 33 0c 25 28 00 	xor    %fs:0x28,%rcx
    e476:	00 00 
    e478:	74 05                	je     e47f <func_43+0x450>
    e47a:	e8 f1 7b ff ff       	callq  6070 <__stack_chk_fail@plt>
    e47f:	48 81 c4 50 01 00 00 	add    $0x150,%rsp
    e486:	5b                   	pop    %rbx
    e487:	41 5c                	pop    %r12
    e489:	5d                   	pop    %rbp
    e48a:	c3                   	retq   

000000000000e48b <func_48>:
    e48b:	f3 0f 1e fa          	endbr64 
    e48f:	55                   	push   %rbp
    e490:	48 89 e5             	mov    %rsp,%rbp
    e493:	48 83 c4 80          	add    $0xffffffffffffff80,%rsp
    e497:	89 f8                	mov    %edi,%eax
    e499:	48 89 75 80          	mov    %rsi,-0x80(%rbp)
    e49d:	66 89 45 8c          	mov    %ax,-0x74(%rbp)
    e4a1:	64 48 8b 04 25 28 00 	mov    %fs:0x28,%rax
    e4a8:	00 00 
    e4aa:	48 89 45 f8          	mov    %rax,-0x8(%rbp)
    e4ae:	31 c0                	xor    %eax,%eax
    e4b0:	48 8d 05 0d 7c 00 00 	lea    0x7c0d(%rip),%rax        # 160c4 <g_56>
    e4b7:	48 89 45 a8          	mov    %rax,-0x58(%rbp)
    e4bb:	48 c7 45 b0 00 00 00 	movq   $0x0,-0x50(%rbp)
    e4c2:	00 
    e4c3:	c7 45 9c 58 64 fb 1b 	movl   $0x1bfb6458,-0x64(%rbp)
    e4ca:	48 8d 05 65 7c 00 00 	lea    0x7c65(%rip),%rax        # 16136 <g_163+0x36>
    e4d1:	48 89 45 b8          	mov    %rax,-0x48(%rbp)
    e4d5:	48 8d 05 80 7c 00 00 	lea    0x7c80(%rip),%rax        # 1615c <g_234>
    e4dc:	48 89 45 c0          	mov    %rax,-0x40(%rbp)
    e4e0:	48 b8 dd c3 52 46 99 	movabs $0x53577a994652c3dd,%rax
    e4e7:	7a 57 53 
    e4ea:	48 89 45 c8          	mov    %rax,-0x38(%rbp)
    e4ee:	c7 45 a0 00 00 00 00 	movl   $0x0,-0x60(%rbp)
    e4f5:	eb 32                	jmp    e529 <func_48+0x9e>
    e4f7:	c7 45 a4 00 00 00 00 	movl   $0x0,-0x5c(%rbp)
    e4fe:	eb 1f                	jmp    e51f <func_48+0x94>
    e500:	8b 45 a4             	mov    -0x5c(%rbp),%eax
    e503:	48 98                	cltq   
    e505:	8b 55 a0             	mov    -0x60(%rbp),%edx
    e508:	48 63 d2             	movslq %edx,%rdx
    e50b:	48 c1 e2 02          	shl    $0x2,%rdx
    e50f:	48 01 c2             	add    %rax,%rdx
    e512:	48 8d 45 9c          	lea    -0x64(%rbp),%rax
    e516:	48 89 44 d5 d0       	mov    %rax,-0x30(%rbp,%rdx,8)
    e51b:	83 45 a4 01          	addl   $0x1,-0x5c(%rbp)
    e51f:	83 7d a4 03          	cmpl   $0x3,-0x5c(%rbp)
    e523:	7e db                	jle    e500 <func_48+0x75>
    e525:	83 45 a0 01          	addl   $0x1,-0x60(%rbp)
    e529:	83 7d a0 00          	cmpl   $0x0,-0x60(%rbp)
    e52d:	7e c8                	jle    e4f7 <func_48+0x6c>
    e52f:	8b 55 9c             	mov    -0x64(%rbp),%edx
    e532:	48 8b 45 a8          	mov    -0x58(%rbp),%rax
    e536:	48 89 45 b0          	mov    %rax,-0x50(%rbp)
    e53a:	48 8b 05 2f 99 00 00 	mov    0x992f(%rip),%rax        # 17e70 <g_900>
    e541:	c7 00 01 00 00 00    	movl   $0x1,(%rax)
    e547:	8b 00                	mov    (%rax),%eax
    e549:	89 d6                	mov    %edx,%esi
    e54b:	89 c7                	mov    %eax,%edi
    e54d:	e8 7a 81 ff ff       	callq  66cc <safe_mod_func_int32_t_s_s>
    e552:	48 83 7d 80 00       	cmpq   $0x0,-0x80(%rbp)
    e557:	0f 94 c0             	sete   %al
    e55a:	0f b6 d0             	movzbl %al,%edx
    e55d:	48 8b 45 c0          	mov    -0x40(%rbp),%rax
    e561:	89 10                	mov    %edx,(%rax)
    e563:	48 c7 45 c8 00 00 00 	movq   $0x0,-0x38(%rbp)
    e56a:	00 
    e56b:	48 8b 05 fe 98 00 00 	mov    0x98fe(%rip),%rax        # 17e70 <g_900>
    e572:	c7 00 00 00 00 00    	movl   $0x0,(%rax)
    e578:	48 8b 05 f1 98 00 00 	mov    0x98f1(%rip),%rax        # 17e70 <g_900>
    e57f:	8b 00                	mov    (%rax),%eax
    e581:	48 8b 4d f8          	mov    -0x8(%rbp),%rcx
    e585:	64 48 33 0c 25 28 00 	xor    %fs:0x28,%rcx
    e58c:	00 00 
    e58e:	74 05                	je     e595 <func_48+0x10a>
    e590:	e8 db 7a ff ff       	callq  6070 <__stack_chk_fail@plt>
    e595:	c9                   	leaveq 
    e596:	c3                   	retq   

000000000000e597 <func_51>:
    e597:	f3 0f 1e fa          	endbr64 
    e59b:	55                   	push   %rbp
    e59c:	48 89 e5             	mov    %rsp,%rbp
    e59f:	41 57                	push   %r15
    e5a1:	41 56                	push   %r14
    e5a3:	41 55                	push   %r13
    e5a5:	41 54                	push   %r12
    e5a7:	53                   	push   %rbx
    e5a8:	48 83 ec 40          	sub    $0x40,%rsp
    e5ac:	89 7d b4             	mov    %edi,-0x4c(%rbp)
    e5af:	89 75 b0             	mov    %esi,-0x50(%rbp)
    e5b2:	89 d0                	mov    %edx,%eax
    e5b4:	88 45 ac             	mov    %al,-0x54(%rbp)
    e5b7:	48 8d 05 1a 98 00 00 	lea    0x981a(%rip),%rax        # 17dd8 <g_613>
    e5be:	48 89 45 c0          	mov    %rax,-0x40(%rbp)
    e5c2:	c7 45 bc ff ff ff ff 	movl   $0xffffffff,-0x44(%rbp)
    e5c9:	48 c7 45 c8 00 00 00 	movq   $0x0,-0x38(%rbp)
    e5d0:	00 
    e5d1:	48 c7 45 d0 fb ff ff 	movq   $0xfffffffffffffffb,-0x30(%rbp)
    e5d8:	ff 
    e5d9:	48 83 7d c0 00       	cmpq   $0x0,-0x40(%rbp)
    e5de:	0f 94 c0             	sete   %al
    e5e1:	0f b6 c0             	movzbl %al,%eax
    e5e4:	48 89 45 a0          	mov    %rax,-0x60(%rbp)
    e5e8:	48 8b 45 d0          	mov    -0x30(%rbp),%rax
    e5ec:	89 45 a8             	mov    %eax,-0x58(%rbp)
    e5ef:	48 8b 05 1a 97 00 00 	mov    0x971a(%rip),%rax        # 17d10 <g_288>
    e5f6:	0f b7 00             	movzwl (%rax),%eax
    e5f9:	0f b7 d8             	movzwl %ax,%ebx
    e5fc:	8b 45 bc             	mov    -0x44(%rbp),%eax
    e5ff:	44 0f be e0          	movsbl %al,%r12d
    e603:	8b 45 bc             	mov    -0x44(%rbp),%eax
    e606:	44 0f b7 e8          	movzwl %ax,%r13d
    e60a:	44 8b 75 bc          	mov    -0x44(%rbp),%r14d
    e60e:	83 7d bc 00          	cmpl   $0x0,-0x44(%rbp)
    e612:	0f 85 8b 00 00 00    	jne    e6a3 <func_51+0x10c>
    e618:	44 8b 7d bc          	mov    -0x44(%rbp),%r15d
    e61c:	48 8b 05 ed 96 00 00 	mov    0x96ed(%rip),%rax        # 17d10 <g_288>
    e623:	0f b7 00             	movzwl (%rax),%eax
    e626:	98                   	cwtl   
    e627:	89 45 9c             	mov    %eax,-0x64(%rbp)
    e62a:	66 0f be 45 ac       	movsbw -0x54(%rbp),%ax
    e62f:	0f b7 c0             	movzwl %ax,%eax
    e632:	be 03 00 00 00       	mov    $0x3,%esi
    e637:	89 c7                	mov    %eax,%edi
    e639:	e8 3c 88 ff ff       	callq  6e7a <safe_rshift_func_uint16_t_u_u>
    e63e:	8b 55 b4             	mov    -0x4c(%rbp),%edx
    e641:	21 d0                	and    %edx,%eax
    e643:	0f b7 d0             	movzwl %ax,%edx
    e646:	8b 45 bc             	mov    -0x44(%rbp),%eax
    e649:	0f b7 c0             	movzwl %ax,%eax
    e64c:	89 d6                	mov    %edx,%esi
    e64e:	89 c7                	mov    %eax,%edi
    e650:	e8 e8 86 ff ff       	callq  6d3d <safe_mul_func_uint16_t_u_u>
    e655:	98                   	cwtl   
    e656:	8b 75 9c             	mov    -0x64(%rbp),%esi
    e659:	89 c7                	mov    %eax,%edi
    e65b:	e8 32 7e ff ff       	callq  6492 <safe_lshift_func_int16_t_s_s>
    e660:	0f be 45 ac          	movsbl -0x54(%rbp),%eax
    e664:	39 45 b4             	cmp    %eax,-0x4c(%rbp)
    e667:	0f 96 c0             	setbe  %al
    e66a:	0f b6 c8             	movzbl %al,%ecx
    e66d:	48 8b 05 6c 97 00 00 	mov    0x976c(%rip),%rax        # 17de0 <g_612>
    e674:	48 8b 00             	mov    (%rax),%rax
    e677:	48 8b 00             	mov    (%rax),%rax
    e67a:	0f b7 10             	movzwl (%rax),%edx
    e67d:	8d 72 01             	lea    0x1(%rdx),%esi
    e680:	66 89 30             	mov    %si,(%rax)
    e683:	0f b7 c2             	movzwl %dx,%eax
    e686:	89 ce                	mov    %ecx,%esi
    e688:	89 c7                	mov    %eax,%edi
    e68a:	e8 90 86 ff ff       	callq  6d1f <safe_sub_func_uint16_t_u_u>
    e68f:	8b 45 bc             	mov    -0x44(%rbp),%eax
    e692:	0b 45 b4             	or     -0x4c(%rbp),%eax
    e695:	44 89 fe             	mov    %r15d,%esi
    e698:	89 c7                	mov    %eax,%edi
    e69a:	e8 5e 88 ff ff       	callq  6efd <safe_mod_func_uint32_t_u_u>
    e69f:	85 c0                	test   %eax,%eax
    e6a1:	74 07                	je     e6aa <func_51+0x113>
    e6a3:	b8 01 00 00 00       	mov    $0x1,%eax
    e6a8:	eb 05                	jmp    e6af <func_51+0x118>
    e6aa:	b8 00 00 00 00       	mov    $0x0,%eax
    e6af:	83 f8 6b             	cmp    $0x6b,%eax
    e6b2:	0f 95 c0             	setne  %al
    e6b5:	0f b6 c0             	movzbl %al,%eax
    e6b8:	44 89 f6             	mov    %r14d,%esi
    e6bb:	89 c7                	mov    %eax,%edi
    e6bd:	e8 0e 88 ff ff       	callq  6ed0 <safe_sub_func_uint32_t_u_u>
    e6c2:	89 c2                	mov    %eax,%edx
    e6c4:	48 8b 05 1d 97 00 00 	mov    0x971d(%rip),%rax        # 17de8 <g_722>
    e6cb:	88 10                	mov    %dl,(%rax)
    e6cd:	0f b6 00             	movzbl (%rax),%eax
    e6d0:	0f b6 c0             	movzbl %al,%eax
    e6d3:	be 02 00 00 00       	mov    $0x2,%esi
    e6d8:	89 c7                	mov    %eax,%edi
    e6da:	e8 6d 85 ff ff       	callq  6c4c <safe_lshift_func_uint8_t_u_u>
    e6df:	84 c0                	test   %al,%al
    e6e1:	75 04                	jne    e6e7 <func_51+0x150>
    e6e3:	83 7d bc 00          	cmpl   $0x0,-0x44(%rbp)
    e6e7:	48 0f be 45 ac       	movsbq -0x54(%rbp),%rax
    e6ec:	48 ba 57 81 7a 50 26 	movabs $0xd774f526507a8157,%rdx
    e6f3:	f5 74 d7 
    e6f6:	48 39 d0             	cmp    %rdx,%rax
    e6f9:	0f 96 c0             	setbe  %al
    e6fc:	0f b6 c0             	movzbl %al,%eax
    e6ff:	44 89 ee             	mov    %r13d,%esi
    e702:	89 c7                	mov    %eax,%edi
    e704:	e8 34 86 ff ff       	callq  6d3d <safe_mul_func_uint16_t_u_u>
    e709:	0f b7 c0             	movzwl %ax,%eax
    e70c:	be 49 3b 0d f9       	mov    $0xf90d3b49,%esi
    e711:	89 c7                	mov    %eax,%edi
    e713:	e8 9e 7e ff ff       	callq  65b6 <safe_add_func_int32_t_s_s>
    e718:	48 83 7d c8 00       	cmpq   $0x0,-0x38(%rbp)
    e71d:	75 0e                	jne    e72d <func_51+0x196>
    e71f:	48 83 7d d0 00       	cmpq   $0x0,-0x30(%rbp)
    e724:	74 07                	je     e72d <func_51+0x196>
    e726:	b8 01 00 00 00       	mov    $0x1,%eax
    e72b:	eb 05                	jmp    e732 <func_51+0x19b>
    e72d:	b8 00 00 00 00       	mov    $0x0,%eax
    e732:	39 45 b4             	cmp    %eax,-0x4c(%rbp)
    e735:	0f 93 c0             	setae  %al
    e738:	0f b6 c0             	movzbl %al,%eax
    e73b:	44 89 e6             	mov    %r12d,%esi
    e73e:	89 c7                	mov    %eax,%edi
    e740:	e8 cd 7a ff ff       	callq  6212 <safe_mul_func_int8_t_s_s>
    e745:	be 07 00 00 00       	mov    $0x7,%esi
    e74a:	bf 49 90 00 00       	mov    $0x9049,%edi
    e74f:	e8 f4 86 ff ff       	callq  6e48 <safe_rshift_func_uint16_t_u_s>
    e754:	48 8b 45 d0          	mov    -0x30(%rbp),%rax
    e758:	0f b7 c0             	movzwl %ax,%eax
    e75b:	89 de                	mov    %ebx,%esi
    e75d:	89 c7                	mov    %eax,%edi
    e75f:	e8 d9 85 ff ff       	callq  6d3d <safe_mul_func_uint16_t_u_u>
    e764:	0f b7 c0             	movzwl %ax,%eax
    e767:	39 45 b4             	cmp    %eax,-0x4c(%rbp)
    e76a:	0f 93 c0             	setae  %al
    e76d:	0f b6 c0             	movzbl %al,%eax
    e770:	39 45 b4             	cmp    %eax,-0x4c(%rbp)
    e773:	0f 94 c0             	sete   %al
    e776:	0f b6 c0             	movzbl %al,%eax
    e779:	8b 75 a8             	mov    -0x58(%rbp),%esi
    e77c:	89 c7                	mov    %eax,%edi
    e77e:	e8 83 86 ff ff       	callq  6e06 <safe_lshift_func_uint16_t_u_u>
    e783:	0f b7 d0             	movzwl %ax,%edx
    e786:	8b 45 bc             	mov    -0x44(%rbp),%eax
    e789:	0f b7 c0             	movzwl %ax,%eax
    e78c:	89 d6                	mov    %edx,%esi
    e78e:	89 c7                	mov    %eax,%edi
    e790:	e8 71 86 ff ff       	callq  6e06 <safe_lshift_func_uint16_t_u_u>
    e795:	0f b7 d0             	movzwl %ax,%edx
    e798:	8b 45 bc             	mov    -0x44(%rbp),%eax
    e79b:	48 98                	cltq   
    e79d:	48 89 d6             	mov    %rdx,%rsi
    e7a0:	48 89 c7             	mov    %rax,%rdi
    e7a3:	e8 00 81 ff ff       	callq  68a8 <safe_sub_func_int64_t_s_s>
    e7a8:	48 0b 45 a0          	or     -0x60(%rbp),%rax
    e7ac:	48 c1 e8 3f          	shr    $0x3f,%rax
    e7b0:	0f b6 c8             	movzbl %al,%ecx
    e7b3:	48 8b 05 b6 96 00 00 	mov    0x96b6(%rip),%rax        # 17e70 <g_900>
    e7ba:	8b 10                	mov    (%rax),%edx
    e7bc:	48 8b 05 ad 96 00 00 	mov    0x96ad(%rip),%rax        # 17e70 <g_900>
    e7c3:	21 ca                	and    %ecx,%edx
    e7c5:	89 10                	mov    %edx,(%rax)
    e7c7:	48 8b 05 02 79 00 00 	mov    0x7902(%rip),%rax        # 160d0 <g_91>
    e7ce:	48 83 c4 40          	add    $0x40,%rsp
    e7d2:	5b                   	pop    %rbx
    e7d3:	41 5c                	pop    %r12
    e7d5:	41 5d                	pop    %r13
    e7d7:	41 5e                	pop    %r14
    e7d9:	41 5f                	pop    %r15
    e7db:	5d                   	pop    %rbp
    e7dc:	c3                   	retq   

000000000000e7dd <func_63>:
    e7dd:	f3 0f 1e fa          	endbr64 
    e7e1:	55                   	push   %rbp
    e7e2:	48 89 e5             	mov    %rsp,%rbp
    e7e5:	53                   	push   %rbx
    e7e6:	48 81 ec 00 10 00 00 	sub    $0x1000,%rsp
    e7ed:	48 83 0c 24 00       	orq    $0x0,(%rsp)
    e7f2:	48 81 ec b8 00 00 00 	sub    $0xb8,%rsp
    e7f9:	89 f8                	mov    %edi,%eax
    e7fb:	48 89 b5 40 ef ff ff 	mov    %rsi,-0x10c0(%rbp)
    e802:	66 89 85 4c ef ff ff 	mov    %ax,-0x10b4(%rbp)
    e809:	64 48 8b 04 25 28 00 	mov    %fs:0x28,%rax
    e810:	00 00 
    e812:	48 89 45 e8          	mov    %rax,-0x18(%rbp)
    e816:	31 c0                	xor    %eax,%eax
    e818:	48 c7 85 e8 ef ff ff 	movq   $0x0,-0x1018(%rbp)
    e81f:	00 00 00 00 
    e823:	c7 85 64 ef ff ff e9 	movl   $0x628d16e9,-0x109c(%rbp)
    e82a:	16 8d 62 
    e82d:	48 c7 85 20 f0 ff ff 	movq   $0x0,-0xfe0(%rbp)
    e834:	00 00 00 00 
    e838:	48 8d 05 b1 94 00 00 	lea    0x94b1(%rip),%rax        # 17cf0 <g_134+0x10>
    e83f:	48 89 85 f0 ef ff ff 	mov    %rax,-0x1010(%rbp)
    e846:	48 c7 85 e0 f1 ff ff 	movq   $0x0,-0xe20(%rbp)
    e84d:	00 00 00 00 
    e851:	48 c7 85 e8 f1 ff ff 	movq   $0x0,-0xe18(%rbp)
    e858:	00 00 00 00 
    e85c:	48 c7 85 f0 f1 ff ff 	movq   $0x0,-0xe10(%rbp)
    e863:	00 00 00 00 
    e867:	48 c7 85 f8 f1 ff ff 	movq   $0x0,-0xe08(%rbp)
    e86e:	00 00 00 00 
    e872:	48 c7 85 00 f2 ff ff 	movq   $0x0,-0xe00(%rbp)
    e879:	00 00 00 00 
    e87d:	48 c7 85 f8 ef ff ff 	movq   $0x0,-0x1008(%rbp)
    e884:	00 00 00 00 
    e888:	48 8d 85 f8 ef ff ff 	lea    -0x1008(%rbp),%rax
    e88f:	48 89 85 28 f0 ff ff 	mov    %rax,-0xfd8(%rbp)
    e896:	66 c7 85 60 f1 ff ff 	movw   $0x0,-0xea0(%rbp)
    e89d:	00 00 
    e89f:	66 c7 85 62 f1 ff ff 	movw   $0xd167,-0xe9e(%rbp)
    e8a6:	67 d1 
    e8a8:	66 c7 85 64 f1 ff ff 	movw   $0xd167,-0xe9c(%rbp)
    e8af:	67 d1 
    e8b1:	66 c7 85 66 f1 ff ff 	movw   $0x0,-0xe9a(%rbp)
    e8b8:	00 00 
    e8ba:	66 c7 85 68 f1 ff ff 	movw   $0xd167,-0xe98(%rbp)
    e8c1:	67 d1 
    e8c3:	66 c7 85 6a f1 ff ff 	movw   $0xd167,-0xe96(%rbp)
    e8ca:	67 d1 
    e8cc:	66 c7 85 6c f1 ff ff 	movw   $0x0,-0xe94(%rbp)
    e8d3:	00 00 
    e8d5:	66 c7 85 6e f1 ff ff 	movw   $0xd167,-0xe92(%rbp)
    e8dc:	67 d1 
    e8de:	c7 85 68 ef ff ff 9f 	movl   $0xd896d9f,-0x1098(%rbp)
    e8e5:	6d 89 0d 
    e8e8:	c7 85 98 ef ff ff 00 	movl   $0x0,-0x1068(%rbp)
    e8ef:	00 00 00 
    e8f2:	c7 85 94 ef ff ff 01 	movl   $0x1,-0x106c(%rbp)
    e8f9:	00 00 00 
    e8fc:	48 8d 05 35 95 00 00 	lea    0x9535(%rip),%rax        # 17e38 <g_768>
    e903:	48 89 85 30 f0 ff ff 	mov    %rax,-0xfd0(%rbp)
    e90a:	48 8d 05 f7 93 00 00 	lea    0x93f7(%rip),%rax        # 17d08 <g_246>
    e911:	48 89 85 38 f0 ff ff 	mov    %rax,-0xfc8(%rbp)
    e918:	48 8d 85 b0 f5 ff ff 	lea    -0xa50(%rbp),%rax
    e91f:	48 8d 15 ba 86 00 00 	lea    0x86ba(%rip),%rdx        # 16fe0 <g_2027+0xdc4>
    e926:	b9 38 00 00 00       	mov    $0x38,%ecx
    e92b:	48 89 c7             	mov    %rax,%rdi
    e92e:	48 89 d6             	mov    %rdx,%rsi
    e931:	f3 48 a5             	rep movsq %ds:(%rsi),%es:(%rdi)
    e934:	48 8d 85 b0 f5 ff ff 	lea    -0xa50(%rbp),%rax
    e93b:	48 05 b0 01 00 00    	add    $0x1b0,%rax
    e941:	48 89 85 40 f0 ff ff 	mov    %rax,-0xfc0(%rbp)
    e948:	c7 85 9c ef ff ff 01 	movl   $0x1,-0x1064(%rbp)
    e94f:	00 00 00 
    e952:	48 c7 85 00 f0 ff ff 	movq   $0xfffffffffffffff9,-0x1000(%rbp)
    e959:	f9 ff ff ff 
    e95d:	c7 85 7c ef ff ff 06 	movl   $0x6,-0x1084(%rbp)
    e964:	00 00 00 
    e967:	c7 85 a0 ef ff ff ff 	movl   $0xffffffff,-0x1060(%rbp)
    e96e:	ff ff ff 
    e971:	c6 85 52 ef ff ff 05 	movb   $0x5,-0x10ae(%rbp)
    e978:	66 c7 85 56 f1 ff ff 	movw   $0x9,-0xeaa(%rbp)
    e97f:	09 00 
    e981:	66 c7 85 58 f1 ff ff 	movw   $0x9,-0xea8(%rbp)
    e988:	09 00 
    e98a:	66 c7 85 5a f1 ff ff 	movw   $0x9,-0xea6(%rbp)
    e991:	09 00 
    e993:	66 c7 85 5c f1 ff ff 	movw   $0x9,-0xea4(%rbp)
    e99a:	09 00 
    e99c:	66 c7 85 5e f1 ff ff 	movw   $0x9,-0xea2(%rbp)
    e9a3:	09 00 
    e9a5:	48 8d 85 68 ef ff ff 	lea    -0x1098(%rbp),%rax
    e9ac:	48 89 85 48 f0 ff ff 	mov    %rax,-0xfb8(%rbp)
    e9b3:	66 c7 85 54 ef ff ff 	movw   $0x6,-0x10ac(%rbp)
    e9ba:	06 00 
    e9bc:	c7 85 a4 ef ff ff ca 	movl   $0xa4ff19ca,-0x105c(%rbp)
    e9c3:	19 ff a4 
    e9c6:	c7 85 80 ef ff ff 00 	movl   $0x0,-0x1080(%rbp)
    e9cd:	00 00 00 
    e9d0:	eb 1e                	jmp    e9f0 <func_63+0x213>
    e9d2:	8b 85 80 ef ff ff    	mov    -0x1080(%rbp),%eax
    e9d8:	48 98                	cltq   
    e9da:	48 8d 15 e8 76 00 00 	lea    0x76e8(%rip),%rdx        # 160c9 <g_77>
    e9e1:	48 89 94 c5 f0 f2 ff 	mov    %rdx,-0xd10(%rbp,%rax,8)
    e9e8:	ff 
    e9e9:	83 85 80 ef ff ff 01 	addl   $0x1,-0x1080(%rbp)
    e9f0:	83 bd 80 ef ff ff 07 	cmpl   $0x7,-0x1080(%rbp)
    e9f7:	7e d9                	jle    e9d2 <func_63+0x1f5>
    e9f9:	c7 85 80 ef ff ff 00 	movl   $0x0,-0x1080(%rbp)
    ea00:	00 00 00 
    ea03:	eb 1b                	jmp    ea20 <func_63+0x243>
    ea05:	8b 85 80 ef ff ff    	mov    -0x1080(%rbp),%eax
    ea0b:	48 98                	cltq   
    ea0d:	48 c7 84 c5 10 f2 ff 	movq   $0x0,-0xdf0(%rbp,%rax,8)
    ea14:	ff 00 00 00 00 
    ea19:	83 85 80 ef ff ff 01 	addl   $0x1,-0x1080(%rbp)
    ea20:	83 bd 80 ef ff ff 04 	cmpl   $0x4,-0x1080(%rbp)
    ea27:	7e dc                	jle    ea05 <func_63+0x228>
    ea29:	90                   	nop
    ea2a:	66 c7 85 4c ef ff ff 	movw   $0x11,-0x10b4(%rbp)
    ea31:	11 00 
    ea33:	e9 da 06 00 00       	jmpq   f112 <func_63+0x935>
    ea38:	c7 85 c8 ef ff ff fa 	movl   $0xfffffffa,-0x1038(%rbp)
    ea3f:	ff ff ff 
    ea42:	c7 85 a0 f1 ff ff ff 	movl   $0xffffffff,-0xe60(%rbp)
    ea49:	ff ff ff 
    ea4c:	c7 85 a4 f1 ff ff e2 	movl   $0xec6b9fe2,-0xe5c(%rbp)
    ea53:	9f 6b ec 
    ea56:	c7 85 a8 f1 ff ff e2 	movl   $0xec6b9fe2,-0xe58(%rbp)
    ea5d:	9f 6b ec 
    ea60:	c7 85 ac f1 ff ff ff 	movl   $0xffffffff,-0xe54(%rbp)
    ea67:	ff ff ff 
    ea6a:	c7 85 b0 f1 ff ff e2 	movl   $0xec6b9fe2,-0xe50(%rbp)
    ea71:	9f 6b ec 
    ea74:	c7 85 b4 f1 ff ff e2 	movl   $0xec6b9fe2,-0xe4c(%rbp)
    ea7b:	9f 6b ec 
    ea7e:	c7 85 b8 f1 ff ff ff 	movl   $0xffffffff,-0xe48(%rbp)
    ea85:	ff ff ff 
    ea88:	48 c7 85 c0 f0 ff ff 	movq   $0x0,-0xf40(%rbp)
    ea8f:	00 00 00 00 
    ea93:	48 b8 52 0c ac d9 8f 	movabs $0x427c198fd9ac0c52,%rax
    ea9a:	19 7c 42 
    ea9d:	48 89 85 c8 f0 ff ff 	mov    %rax,-0xf38(%rbp)
    eaa4:	48 c7 85 d0 f0 ff ff 	movq   $0x0,-0xf30(%rbp)
    eaab:	00 00 00 00 
    eaaf:	66 c7 85 80 f1 ff ff 	movw   $0x73,-0xe80(%rbp)
    eab6:	73 00 
    eab8:	66 c7 85 82 f1 ff ff 	movw   $0x7300,-0xe7e(%rbp)
    eabf:	00 73 
    eac1:	66 c7 85 84 f1 ff ff 	movw   $0x0,-0xe7c(%rbp)
    eac8:	00 00 
    eaca:	66 c7 85 86 f1 ff ff 	movw   $0x73,-0xe7a(%rbp)
    ead1:	73 00 
    ead3:	66 c7 85 88 f1 ff ff 	movw   $0x7300,-0xe78(%rbp)
    eada:	00 73 
    eadc:	66 c7 85 8a f1 ff ff 	movw   $0x0,-0xe76(%rbp)
    eae3:	00 00 
    eae5:	66 c7 85 8c f1 ff ff 	movw   $0x73,-0xe74(%rbp)
    eaec:	73 00 
    eaee:	66 c7 85 8e f1 ff ff 	movw   $0x7300,-0xe72(%rbp)
    eaf5:	00 73 
    eaf7:	66 c7 85 90 f1 ff ff 	movw   $0x0,-0xe70(%rbp)
    eafe:	00 00 
    eb00:	c6 85 53 ef ff ff 06 	movb   $0x6,-0x10ad(%rbp)
    eb07:	48 8d 85 a0 f1 ff ff 	lea    -0xe60(%rbp),%rax
    eb0e:	48 83 c0 14          	add    $0x14,%rax
    eb12:	48 89 85 d8 f0 ff ff 	mov    %rax,-0xf28(%rbp)
    eb19:	48 8d 05 b8 92 00 00 	lea    0x92b8(%rip),%rax        # 17dd8 <g_613>
    eb20:	48 89 85 e0 f0 ff ff 	mov    %rax,-0xf20(%rbp)
    eb27:	48 8d 85 f8 ef ff ff 	lea    -0x1008(%rbp),%rax
    eb2e:	48 89 85 30 f3 ff ff 	mov    %rax,-0xcd0(%rbp)
    eb35:	48 8d 85 f8 ef ff ff 	lea    -0x1008(%rbp),%rax
    eb3c:	48 89 85 38 f3 ff ff 	mov    %rax,-0xcc8(%rbp)
    eb43:	48 8d 85 f8 ef ff ff 	lea    -0x1008(%rbp),%rax
    eb4a:	48 89 85 40 f3 ff ff 	mov    %rax,-0xcc0(%rbp)
    eb51:	48 8d 85 f8 ef ff ff 	lea    -0x1008(%rbp),%rax
    eb58:	48 89 85 48 f3 ff ff 	mov    %rax,-0xcb8(%rbp)
    eb5f:	48 8d 85 f8 ef ff ff 	lea    -0x1008(%rbp),%rax
    eb66:	48 89 85 50 f3 ff ff 	mov    %rax,-0xcb0(%rbp)
    eb6d:	48 8d 85 f8 ef ff ff 	lea    -0x1008(%rbp),%rax
    eb74:	48 89 85 58 f3 ff ff 	mov    %rax,-0xca8(%rbp)
    eb7b:	48 8d 85 f8 ef ff ff 	lea    -0x1008(%rbp),%rax
    eb82:	48 89 85 60 f3 ff ff 	mov    %rax,-0xca0(%rbp)
    eb89:	48 8d 85 f8 ef ff ff 	lea    -0x1008(%rbp),%rax
    eb90:	48 89 85 68 f3 ff ff 	mov    %rax,-0xc98(%rbp)
    eb97:	48 8d 85 f8 ef ff ff 	lea    -0x1008(%rbp),%rax
    eb9e:	48 89 85 70 f3 ff ff 	mov    %rax,-0xc90(%rbp)
    eba5:	48 8d 85 f8 ef ff ff 	lea    -0x1008(%rbp),%rax
    ebac:	48 89 85 78 f3 ff ff 	mov    %rax,-0xc88(%rbp)
    ebb3:	48 8d 85 f8 ef ff ff 	lea    -0x1008(%rbp),%rax
    ebba:	48 89 85 80 f3 ff ff 	mov    %rax,-0xc80(%rbp)
    ebc1:	48 8d 85 f8 ef ff ff 	lea    -0x1008(%rbp),%rax
    ebc8:	48 89 85 88 f3 ff ff 	mov    %rax,-0xc78(%rbp)
    ebcf:	48 8d 85 f8 ef ff ff 	lea    -0x1008(%rbp),%rax
    ebd6:	48 89 85 90 f3 ff ff 	mov    %rax,-0xc70(%rbp)
    ebdd:	48 8d 85 f8 ef ff ff 	lea    -0x1008(%rbp),%rax
    ebe4:	48 89 85 98 f3 ff ff 	mov    %rax,-0xc68(%rbp)
    ebeb:	48 8d 85 f8 ef ff ff 	lea    -0x1008(%rbp),%rax
    ebf2:	48 89 85 a0 f3 ff ff 	mov    %rax,-0xc60(%rbp)
    ebf9:	48 8d 85 f8 ef ff ff 	lea    -0x1008(%rbp),%rax
    ec00:	48 89 85 a8 f3 ff ff 	mov    %rax,-0xc58(%rbp)
    ec07:	48 8d 85 f8 ef ff ff 	lea    -0x1008(%rbp),%rax
    ec0e:	48 89 85 b0 f3 ff ff 	mov    %rax,-0xc50(%rbp)
    ec15:	48 8d 85 f8 ef ff ff 	lea    -0x1008(%rbp),%rax
    ec1c:	48 89 85 b8 f3 ff ff 	mov    %rax,-0xc48(%rbp)
    ec23:	48 8d 85 f8 ef ff ff 	lea    -0x1008(%rbp),%rax
    ec2a:	48 89 85 c0 f3 ff ff 	mov    %rax,-0xc40(%rbp)
    ec31:	48 8d 85 f8 ef ff ff 	lea    -0x1008(%rbp),%rax
    ec38:	48 89 85 c8 f3 ff ff 	mov    %rax,-0xc38(%rbp)
    ec3f:	48 8d 85 f8 ef ff ff 	lea    -0x1008(%rbp),%rax
    ec46:	48 89 85 d0 f3 ff ff 	mov    %rax,-0xc30(%rbp)
    ec4d:	48 8d 85 f8 ef ff ff 	lea    -0x1008(%rbp),%rax
    ec54:	48 89 85 d8 f3 ff ff 	mov    %rax,-0xc28(%rbp)
    ec5b:	48 8d 85 f8 ef ff ff 	lea    -0x1008(%rbp),%rax
    ec62:	48 89 85 e0 f3 ff ff 	mov    %rax,-0xc20(%rbp)
    ec69:	48 8d 85 f8 ef ff ff 	lea    -0x1008(%rbp),%rax
    ec70:	48 89 85 e8 f3 ff ff 	mov    %rax,-0xc18(%rbp)
    ec77:	48 8d 85 f8 ef ff ff 	lea    -0x1008(%rbp),%rax
    ec7e:	48 89 85 f0 f3 ff ff 	mov    %rax,-0xc10(%rbp)
    ec85:	48 8d 85 f8 ef ff ff 	lea    -0x1008(%rbp),%rax
    ec8c:	48 89 85 f8 f3 ff ff 	mov    %rax,-0xc08(%rbp)
    ec93:	48 8d 85 f8 ef ff ff 	lea    -0x1008(%rbp),%rax
    ec9a:	48 89 85 00 f4 ff ff 	mov    %rax,-0xc00(%rbp)
    eca1:	48 8d 85 f8 ef ff ff 	lea    -0x1008(%rbp),%rax
    eca8:	48 89 85 08 f4 ff ff 	mov    %rax,-0xbf8(%rbp)
    ecaf:	48 8d 85 f8 ef ff ff 	lea    -0x1008(%rbp),%rax
    ecb6:	48 89 85 10 f4 ff ff 	mov    %rax,-0xbf0(%rbp)
    ecbd:	48 8d 85 f8 ef ff ff 	lea    -0x1008(%rbp),%rax
    ecc4:	48 89 85 18 f4 ff ff 	mov    %rax,-0xbe8(%rbp)
    eccb:	48 8d 85 f8 ef ff ff 	lea    -0x1008(%rbp),%rax
    ecd2:	48 89 85 20 f4 ff ff 	mov    %rax,-0xbe0(%rbp)
    ecd9:	48 8d 85 f8 ef ff ff 	lea    -0x1008(%rbp),%rax
    ece0:	48 89 85 28 f4 ff ff 	mov    %rax,-0xbd8(%rbp)
    ece7:	48 8d 85 f8 ef ff ff 	lea    -0x1008(%rbp),%rax
    ecee:	48 89 85 30 f4 ff ff 	mov    %rax,-0xbd0(%rbp)
    ecf5:	48 8d 85 f8 ef ff ff 	lea    -0x1008(%rbp),%rax
    ecfc:	48 89 85 38 f4 ff ff 	mov    %rax,-0xbc8(%rbp)
    ed03:	48 8d 85 f8 ef ff ff 	lea    -0x1008(%rbp),%rax
    ed0a:	48 89 85 40 f4 ff ff 	mov    %rax,-0xbc0(%rbp)
    ed11:	48 8d 85 f8 ef ff ff 	lea    -0x1008(%rbp),%rax
    ed18:	48 89 85 48 f4 ff ff 	mov    %rax,-0xbb8(%rbp)
    ed1f:	48 8d 85 f8 ef ff ff 	lea    -0x1008(%rbp),%rax
    ed26:	48 89 85 50 f4 ff ff 	mov    %rax,-0xbb0(%rbp)
    ed2d:	48 8d 85 f8 ef ff ff 	lea    -0x1008(%rbp),%rax
    ed34:	48 89 85 58 f4 ff ff 	mov    %rax,-0xba8(%rbp)
    ed3b:	48 8d 85 f8 ef ff ff 	lea    -0x1008(%rbp),%rax
    ed42:	48 89 85 60 f4 ff ff 	mov    %rax,-0xba0(%rbp)
    ed49:	48 8d 85 f8 ef ff ff 	lea    -0x1008(%rbp),%rax
    ed50:	48 89 85 68 f4 ff ff 	mov    %rax,-0xb98(%rbp)
    ed57:	c7 85 cc ef ff ff 00 	movl   $0x0,-0x1034(%rbp)
    ed5e:	00 00 00 
    ed61:	48 c7 85 08 f0 ff ff 	movq   $0x0,-0xff8(%rbp)
    ed68:	00 00 00 00 
    ed6c:	48 8d 85 08 f0 ff ff 	lea    -0xff8(%rbp),%rax
    ed73:	48 89 85 10 f0 ff ff 	mov    %rax,-0xff0(%rbp)
    ed7a:	48 8d 85 10 f0 ff ff 	lea    -0xff0(%rbp),%rax
    ed81:	48 89 85 18 f0 ff ff 	mov    %rax,-0xfe8(%rbp)
    ed88:	48 8d 85 18 f0 ff ff 	lea    -0xfe8(%rbp),%rax
    ed8f:	48 89 85 e8 f0 ff ff 	mov    %rax,-0xf18(%rbp)
    ed96:	48 c7 85 f0 f0 ff ff 	movq   $0x0,-0xf10(%rbp)
    ed9d:	00 00 00 00 
    eda1:	48 8d 05 a8 73 00 00 	lea    0x73a8(%rip),%rax        # 16150 <g_185>
    eda8:	48 89 85 70 f2 ff ff 	mov    %rax,-0xd90(%rbp)
    edaf:	48 8d 05 9a 73 00 00 	lea    0x739a(%rip),%rax        # 16150 <g_185>
    edb6:	48 89 85 78 f2 ff ff 	mov    %rax,-0xd88(%rbp)
    edbd:	48 8d 05 8c 73 00 00 	lea    0x738c(%rip),%rax        # 16150 <g_185>
    edc4:	48 89 85 80 f2 ff ff 	mov    %rax,-0xd80(%rbp)
    edcb:	48 8d 05 7e 73 00 00 	lea    0x737e(%rip),%rax        # 16150 <g_185>
    edd2:	48 89 85 88 f2 ff ff 	mov    %rax,-0xd78(%rbp)
    edd9:	48 8d 05 70 73 00 00 	lea    0x7370(%rip),%rax        # 16150 <g_185>
    ede0:	48 89 85 90 f2 ff ff 	mov    %rax,-0xd70(%rbp)
    ede7:	48 8d 05 62 73 00 00 	lea    0x7362(%rip),%rax        # 16150 <g_185>
    edee:	48 89 85 98 f2 ff ff 	mov    %rax,-0xd68(%rbp)
    edf5:	48 8d 05 54 73 00 00 	lea    0x7354(%rip),%rax        # 16150 <g_185>
    edfc:	48 89 85 a0 f2 ff ff 	mov    %rax,-0xd60(%rbp)
    ee03:	c7 85 d0 ef ff ff 06 	movl   $0x6,-0x1030(%rbp)
    ee0a:	00 00 00 
    ee0d:	66 c7 85 5c ef ff ff 	movw   $0x0,-0x10a4(%rbp)
    ee14:	00 00 
    ee16:	c7 85 d4 ef ff ff 76 	movl   $0xcaefa576,-0x102c(%rbp)
    ee1d:	a5 ef ca 
    ee20:	66 c7 85 5e ef ff ff 	movw   $0xfff8,-0x10a2(%rbp)
    ee27:	f8 ff 
    ee29:	66 c7 85 60 ef ff ff 	movw   $0x8,-0x10a0(%rbp)
    ee30:	08 00 
    ee32:	48 c7 85 f8 f0 ff ff 	movq   $0x0,-0xf08(%rbp)
    ee39:	00 00 00 00 
    ee3d:	c7 85 d8 ef ff ff 06 	movl   $0x6,-0x1028(%rbp)
    ee44:	00 00 00 
    ee47:	48 8d 05 ea 8f 00 00 	lea    0x8fea(%rip),%rax        # 17e38 <g_768>
    ee4e:	48 89 85 00 f1 ff ff 	mov    %rax,-0xf00(%rbp)
    ee55:	48 8d 05 ac 8e 00 00 	lea    0x8eac(%rip),%rax        # 17d08 <g_246>
    ee5c:	48 89 85 b0 f2 ff ff 	mov    %rax,-0xd50(%rbp)
    ee63:	48 8d 05 9e 8e 00 00 	lea    0x8e9e(%rip),%rax        # 17d08 <g_246>
    ee6a:	48 89 85 b8 f2 ff ff 	mov    %rax,-0xd48(%rbp)
    ee71:	48 8d 05 90 8e 00 00 	lea    0x8e90(%rip),%rax        # 17d08 <g_246>
    ee78:	48 89 85 c0 f2 ff ff 	mov    %rax,-0xd40(%rbp)
    ee7f:	48 8d 05 82 8e 00 00 	lea    0x8e82(%rip),%rax        # 17d08 <g_246>
    ee86:	48 89 85 c8 f2 ff ff 	mov    %rax,-0xd38(%rbp)
    ee8d:	48 8d 05 74 8e 00 00 	lea    0x8e74(%rip),%rax        # 17d08 <g_246>
    ee94:	48 89 85 d0 f2 ff ff 	mov    %rax,-0xd30(%rbp)
    ee9b:	48 8d 05 66 8e 00 00 	lea    0x8e66(%rip),%rax        # 17d08 <g_246>
    eea2:	48 89 85 d8 f2 ff ff 	mov    %rax,-0xd28(%rbp)
    eea9:	48 8d 05 58 8e 00 00 	lea    0x8e58(%rip),%rax        # 17d08 <g_246>
    eeb0:	48 89 85 e0 f2 ff ff 	mov    %rax,-0xd20(%rbp)
    eeb7:	48 8d 05 2a 8e 00 00 	lea    0x8e2a(%rip),%rax        # 17ce8 <g_134+0x8>
    eebe:	48 89 85 08 f1 ff ff 	mov    %rax,-0xef8(%rbp)
    eec5:	c7 85 84 ef ff ff 00 	movl   $0x0,-0x107c(%rbp)
    eecc:	00 00 00 
    eecf:	eb 75                	jmp    ef46 <func_63+0x769>
    eed1:	c7 85 88 ef ff ff 00 	movl   $0x0,-0x1078(%rbp)
    eed8:	00 00 00 
    eedb:	eb 59                	jmp    ef36 <func_63+0x759>
    eedd:	c7 85 8c ef ff ff 00 	movl   $0x0,-0x1074(%rbp)
    eee4:	00 00 00 
    eee7:	eb 3d                	jmp    ef26 <func_63+0x749>
    eee9:	8b 85 8c ef ff ff    	mov    -0x1074(%rbp),%eax
    eeef:	48 63 c8             	movslq %eax,%rcx
    eef2:	8b 85 84 ef ff ff    	mov    -0x107c(%rbp),%eax
    eef8:	48 63 d0             	movslq %eax,%rdx
    eefb:	8b 85 88 ef ff ff    	mov    -0x1078(%rbp),%eax
    ef01:	48 98                	cltq   
    ef03:	48 01 c2             	add    %rax,%rdx
    ef06:	48 89 d0             	mov    %rdx,%rax
    ef09:	48 c1 e0 02          	shl    $0x2,%rax
    ef0d:	48 01 d0             	add    %rdx,%rax
    ef10:	48 01 c8             	add    %rcx,%rax
    ef13:	48 c7 84 c5 70 f4 ff 	movq   $0x0,-0xb90(%rbp,%rax,8)
    ef1a:	ff 00 00 00 00 
    ef1f:	83 85 8c ef ff ff 01 	addl   $0x1,-0x1074(%rbp)
    ef26:	83 bd 8c ef ff ff 04 	cmpl   $0x4,-0x1074(%rbp)
    ef2d:	7e ba                	jle    eee9 <func_63+0x70c>
    ef2f:	83 85 88 ef ff ff 01 	addl   $0x1,-0x1078(%rbp)
    ef36:	83 bd 88 ef ff ff 00 	cmpl   $0x0,-0x1078(%rbp)
    ef3d:	7e 9e                	jle    eedd <func_63+0x700>
    ef3f:	83 85 84 ef ff ff 01 	addl   $0x1,-0x107c(%rbp)
    ef46:	83 bd 84 ef ff ff 07 	cmpl   $0x7,-0x107c(%rbp)
    ef4d:	7e 82                	jle    eed1 <func_63+0x6f4>
    ef4f:	c7 05 6b 71 00 00 18 	movl   $0x18,0x716b(%rip)        # 160c4 <g_56>
    ef56:	00 00 00 
    ef59:	e9 94 01 00 00       	jmpq   f0f2 <func_63+0x915>
    ef5e:	48 8d 05 64 71 00 00 	lea    0x7164(%rip),%rax        # 160c9 <g_77>
    ef65:	48 89 85 10 f1 ff ff 	mov    %rax,-0xef0(%rbp)
    ef6c:	c7 85 dc ef ff ff 7a 	movl   $0xba13e97a,-0x1024(%rbp)
    ef73:	e9 13 ba 
    ef76:	48 8d 05 5b 71 00 00 	lea    0x715b(%rip),%rax        # 160d8 <g_102>
    ef7d:	48 89 85 18 f1 ff ff 	mov    %rax,-0xee8(%rbp)
    ef84:	48 8d 05 4f 71 00 00 	lea    0x714f(%rip),%rax        # 160da <g_106>
    ef8b:	48 89 85 20 f1 ff ff 	mov    %rax,-0xee0(%rbp)
    ef92:	48 8d 85 e8 ef ff ff 	lea    -0x1018(%rbp),%rax
    ef99:	48 89 85 28 f1 ff ff 	mov    %rax,-0xed8(%rbp)
    efa0:	48 8d 85 40 fa ff ff 	lea    -0x5c0(%rbp),%rax
    efa7:	48 8d 15 f2 81 00 00 	lea    0x81f2(%rip),%rdx        # 171a0 <g_2027+0xf84>
    efae:	b9 b4 00 00 00       	mov    $0xb4,%ecx
    efb3:	48 89 c7             	mov    %rax,%rdi
    efb6:	48 89 d6             	mov    %rdx,%rsi
    efb9:	f3 48 a5             	rep movsq %ds:(%rsi),%es:(%rdi)
    efbc:	c7 85 e0 ef ff ff 1e 	movl   $0x6b035d1e,-0x1020(%rbp)
    efc3:	5d 03 6b 
    efc6:	c7 85 70 ef ff ff f8 	movl   $0xfffffff8,-0x1090(%rbp)
    efcd:	ff ff ff 
    efd0:	48 8d 85 70 f7 ff ff 	lea    -0x890(%rbp),%rax
    efd7:	48 8d 15 a2 36 00 00 	lea    0x36a2(%rip),%rdx        # 12680 <g_1119+0x62c>
    efde:	b9 5a 00 00 00       	mov    $0x5a,%ecx
    efe3:	48 89 c7             	mov    %rax,%rdi
    efe6:	48 89 d6             	mov    %rdx,%rsi
    efe9:	f3 48 a5             	rep movsq %ds:(%rsi),%es:(%rdi)
    efec:	c7 85 e4 ef ff ff 03 	movl   $0x3,-0x101c(%rbp)
    eff3:	00 00 00 
    eff6:	48 8d 05 e5 95 00 00 	lea    0x95e5(%rip),%rax        # 185e2 <g_431>
    effd:	48 89 85 c0 f1 ff ff 	mov    %rax,-0xe40(%rbp)
    f004:	48 8d 05 d7 95 00 00 	lea    0x95d7(%rip),%rax        # 185e2 <g_431>
    f00b:	48 89 85 c8 f1 ff ff 	mov    %rax,-0xe38(%rbp)
    f012:	48 8d 05 c9 95 00 00 	lea    0x95c9(%rip),%rax        # 185e2 <g_431>
    f019:	48 89 85 d0 f1 ff ff 	mov    %rax,-0xe30(%rbp)
    f020:	48 8d 05 bb 95 00 00 	lea    0x95bb(%rip),%rax        # 185e2 <g_431>
    f027:	48 89 85 d8 f1 ff ff 	mov    %rax,-0xe28(%rbp)
    f02e:	48 8d 85 c0 f1 ff ff 	lea    -0xe40(%rbp),%rax
    f035:	48 83 c0 18          	add    $0x18,%rax
    f039:	48 89 85 30 f1 ff ff 	mov    %rax,-0xed0(%rbp)
    f040:	48 c7 85 38 f1 ff ff 	movq   $0x6,-0xec8(%rbp)
    f047:	06 00 00 00 
    f04b:	48 8d 85 70 ef ff ff 	lea    -0x1090(%rbp),%rax
    f052:	48 89 85 40 f2 ff ff 	mov    %rax,-0xdc0(%rbp)
    f059:	48 8d 85 64 ef ff ff 	lea    -0x109c(%rbp),%rax
    f060:	48 89 85 48 f2 ff ff 	mov    %rax,-0xdb8(%rbp)
    f067:	48 8d 85 70 ef ff ff 	lea    -0x1090(%rbp),%rax
    f06e:	48 89 85 50 f2 ff ff 	mov    %rax,-0xdb0(%rbp)
    f075:	48 8d 85 64 ef ff ff 	lea    -0x109c(%rbp),%rax
    f07c:	48 89 85 58 f2 ff ff 	mov    %rax,-0xda8(%rbp)
    f083:	48 8d 85 70 ef ff ff 	lea    -0x1090(%rbp),%rax
    f08a:	48 89 85 60 f2 ff ff 	mov    %rax,-0xda0(%rbp)
    f091:	48 c7 85 40 f1 ff ff 	movq   $0x0,-0xec0(%rbp)
    f098:	00 00 00 00 
    f09c:	48 c7 85 48 f1 ff ff 	movq   $0x0,-0xeb8(%rbp)
    f0a3:	00 00 00 00 
    f0a7:	66 c7 85 62 ef ff ff 	movw   $0x7965,-0x109e(%rbp)
    f0ae:	65 79 
    f0b0:	c7 85 90 ef ff ff 00 	movl   $0x0,-0x1070(%rbp)
    f0b7:	00 00 00 
    f0ba:	eb 1e                	jmp    f0da <func_63+0x8fd>
    f0bc:	8b 85 90 ef ff ff    	mov    -0x1070(%rbp),%eax
    f0c2:	48 98                	cltq   
    f0c4:	48 8d 15 05 70 00 00 	lea    0x7005(%rip),%rdx        # 160d0 <g_91>
    f0cb:	48 89 94 c5 70 f1 ff 	mov    %rdx,-0xe90(%rbp,%rax,8)
    f0d2:	ff 
    f0d3:	83 85 90 ef ff ff 01 	addl   $0x1,-0x1070(%rbp)
    f0da:	83 bd 90 ef ff ff 01 	cmpl   $0x1,-0x1070(%rbp)
    f0e1:	7e d9                	jle    f0bc <func_63+0x8df>
    f0e3:	8b 05 db 6f 00 00    	mov    0x6fdb(%rip),%eax        # 160c4 <g_56>
    f0e9:	83 c0 01             	add    $0x1,%eax
    f0ec:	89 05 d2 6f 00 00    	mov    %eax,0x6fd2(%rip)        # 160c4 <g_56>
    f0f2:	8b 05 cc 6f 00 00    	mov    0x6fcc(%rip),%eax        # 160c4 <g_56>
    f0f8:	83 f8 2d             	cmp    $0x2d,%eax
    f0fb:	0f 87 5d fe ff ff    	ja     ef5e <func_63+0x781>
    f101:	0f b7 85 4c ef ff ff 	movzwl -0x10b4(%rbp),%eax
    f108:	83 e8 01             	sub    $0x1,%eax
    f10b:	66 89 85 4c ef ff ff 	mov    %ax,-0x10b4(%rbp)
    f112:	0f b7 85 4c ef ff ff 	movzwl -0x10b4(%rbp),%eax
    f119:	66 83 f8 fe          	cmp    $0xfffe,%ax
    f11d:	0f 85 15 f9 ff ff    	jne    ea38 <func_63+0x25b>
    f123:	8b 85 9c ef ff ff    	mov    -0x1064(%rbp),%eax
    f129:	48 89 85 00 f0 ff ff 	mov    %rax,-0x1000(%rbp)
    f130:	48 8b 85 40 f0 ff ff 	mov    -0xfc0(%rbp),%rax
    f137:	48 8d 15 b6 6f 00 00 	lea    0x6fb6(%rip),%rdx        # 160f4 <g_159>
    f13e:	48 89 10             	mov    %rdx,(%rax)
    f141:	48 8b 85 40 f0 ff ff 	mov    -0xfc0(%rbp),%rax
    f148:	48 8b 00             	mov    (%rax),%rax
    f14b:	48 8d 15 a2 6f 00 00 	lea    0x6fa2(%rip),%rdx        # 160f4 <g_159>
    f152:	48 39 d0             	cmp    %rdx,%rax
    f155:	0f 94 c0             	sete   %al
    f158:	0f b6 d8             	movzbl %al,%ebx
    f15b:	be 05 00 00 00       	mov    $0x5,%esi
    f160:	bf 03 00 00 00       	mov    $0x3,%edi
    f165:	e8 e2 7a ff ff       	callq  6c4c <safe_lshift_func_uint8_t_u_u>
    f16a:	0f b6 c0             	movzbl %al,%eax
    f16d:	48 89 c6             	mov    %rax,%rsi
    f170:	48 bf 5b 6b 10 97 f1 	movabs $0x3dba33f197106b5b,%rdi
    f177:	33 ba 3d 
    f17a:	e8 c2 76 ff ff       	callq  6841 <safe_add_func_int64_t_s_s>
    f17f:	0f bf d0             	movswl %ax,%edx
    f182:	48 8b 85 40 ef ff ff 	mov    -0x10c0(%rbp),%rax
    f189:	98                   	cwtl   
    f18a:	89 d6                	mov    %edx,%esi
    f18c:	89 c7                	mov    %eax,%edi
    f18e:	e8 83 72 ff ff       	callq  6416 <safe_mod_func_int16_t_s_s>
    f193:	98                   	cwtl   
    f194:	39 c3                	cmp    %eax,%ebx
    f196:	0f 85 9c 00 00 00    	jne    f238 <func_63+0xa5b>
    f19c:	0f b7 85 4c ef ff ff 	movzwl -0x10b4(%rbp),%eax
    f1a3:	66 85 c0             	test   %ax,%ax
    f1a6:	0f 85 8b 00 00 00    	jne    f237 <func_63+0xa5a>
    f1ac:	0f b7 05 27 6f 00 00 	movzwl 0x6f27(%rip),%eax        # 160da <g_106>
    f1b3:	48 0f bf d0          	movswq %ax,%rdx
    f1b7:	48 8d 05 7a 8c 00 00 	lea    0x8c7a(%rip),%rax        # 17e38 <g_768>
    f1be:	48 8b 00             	mov    (%rax),%rax
    f1c1:	48 8b 00             	mov    (%rax),%rax
    f1c4:	48 8b 00             	mov    (%rax),%rax
    f1c7:	48 83 f8 01          	cmp    $0x1,%rax
    f1cb:	0f 95 c0             	setne  %al
    f1ce:	0f b6 c0             	movzbl %al,%eax
    f1d1:	48 89 d6             	mov    %rdx,%rsi
    f1d4:	48 89 c7             	mov    %rax,%rdi
    f1d7:	e8 65 76 ff ff       	callq  6841 <safe_add_func_int64_t_s_s>
    f1dc:	48 3d 35 f4 00 00    	cmp    $0xf435,%rax
    f1e2:	0f 9f c0             	setg   %al
    f1e5:	0f b6 c0             	movzbl %al,%eax
    f1e8:	31 85 7c ef ff ff    	xor    %eax,-0x1084(%rbp)
    f1ee:	48 8b 85 f0 ef ff ff 	mov    -0x1010(%rbp),%rax
    f1f5:	48 8b 00             	mov    (%rax),%rax
    f1f8:	8b 00                	mov    (%rax),%eax
    f1fa:	39 85 7c ef ff ff    	cmp    %eax,-0x1084(%rbp)
    f200:	0f 9f c0             	setg   %al
    f203:	0f b6 c0             	movzbl %al,%eax
    f206:	be 08 00 00 00       	mov    $0x8,%esi
    f20b:	89 c7                	mov    %eax,%edi
    f20d:	e8 68 7c ff ff       	callq  6e7a <safe_rshift_func_uint16_t_u_u>
    f212:	89 c2                	mov    %eax,%edx
    f214:	48 8b 05 1d 8c 00 00 	mov    0x8c1d(%rip),%rax        # 17e38 <g_768>
    f21b:	48 8b 00             	mov    (%rax),%rax
    f21e:	0f b7 d2             	movzwl %dx,%edx
    f221:	48 89 10             	mov    %rdx,(%rax)
    f224:	48 8b 00             	mov    (%rax),%rax
    f227:	be 08 00 00 00       	mov    $0x8,%esi
    f22c:	48 89 c7             	mov    %rax,%rdi
    f22f:	e8 0d 76 ff ff       	callq  6841 <safe_add_func_int64_t_s_s>
    f234:	48 85 c0             	test   %rax,%rax
    f237:	90                   	nop
    f238:	66 c7 85 56 ef ff ff 	movw   $0xbbd9,-0x10aa(%rbp)
    f23f:	d9 bb 
    f241:	c7 85 6c ef ff ff 06 	movl   $0x6,-0x1094(%rbp)
    f248:	00 00 00 
    f24b:	48 8d 05 fe 6e 00 00 	lea    0x6efe(%rip),%rax        # 16150 <g_185>
    f252:	48 89 85 50 f0 ff ff 	mov    %rax,-0xfb0(%rbp)
    f259:	48 c7 85 70 f7 ff ff 	movq   $0x0,-0x890(%rbp)
    f260:	00 00 00 00 
    f264:	48 c7 85 78 f7 ff ff 	movq   $0x0,-0x888(%rbp)
    f26b:	00 00 00 00 
    f26f:	48 c7 85 80 f7 ff ff 	movq   $0x0,-0x880(%rbp)
    f276:	00 00 00 00 
    f27a:	48 c7 85 88 f7 ff ff 	movq   $0x0,-0x878(%rbp)
    f281:	00 00 00 00 
    f285:	48 c7 85 90 f7 ff ff 	movq   $0x0,-0x870(%rbp)
    f28c:	00 00 00 00 
    f290:	48 c7 85 98 f7 ff ff 	movq   $0x0,-0x868(%rbp)
    f297:	00 00 00 00 
    f29b:	48 c7 85 a0 f7 ff ff 	movq   $0x0,-0x860(%rbp)
    f2a2:	00 00 00 00 
    f2a6:	48 c7 85 a8 f7 ff ff 	movq   $0x0,-0x858(%rbp)
    f2ad:	00 00 00 00 
    f2b1:	48 c7 85 b0 f7 ff ff 	movq   $0x0,-0x850(%rbp)
    f2b8:	00 00 00 00 
    f2bc:	48 c7 85 b8 f7 ff ff 	movq   $0x0,-0x848(%rbp)
    f2c3:	00 00 00 00 
    f2c7:	48 8d 85 00 f0 ff ff 	lea    -0x1000(%rbp),%rax
    f2ce:	48 89 85 58 f0 ff ff 	mov    %rax,-0xfa8(%rbp)
    f2d5:	c7 85 74 ef ff ff a4 	movl   $0x668590a4,-0x108c(%rbp)
    f2dc:	90 85 66 
    f2df:	c7 85 70 ef ff ff d9 	movl   $0x5e8eb4d9,-0x1090(%rbp)
    f2e6:	b4 8e 5e 
    f2e9:	48 8d 05 6c 6e 00 00 	lea    0x6e6c(%rip),%rax        # 1615c <g_234>
    f2f0:	48 89 85 60 f0 ff ff 	mov    %rax,-0xfa0(%rbp)
    f2f7:	c7 85 08 f0 ff ff ff 	movl   $0xffffffff,-0xff8(%rbp)
    f2fe:	ff ff ff 
    f301:	48 8d 05 d0 8a 00 00 	lea    0x8ad0(%rip),%rax        # 17dd8 <g_613>
    f308:	48 89 85 68 f0 ff ff 	mov    %rax,-0xf98(%rbp)
    f30f:	48 c7 85 70 f0 ff ff 	movq   $0xffffffffffffffff,-0xf90(%rbp)
    f316:	ff ff ff ff 
    f31a:	66 83 85 56 ef ff ff 	addw   $0x1,-0x10aa(%rbp)
    f321:	01 
    f322:	48 8b 85 f0 ef ff ff 	mov    -0x1010(%rbp),%rax
    f329:	48 8b 00             	mov    (%rax),%rax
    f32c:	8b 00                	mov    (%rax),%eax
    f32e:	0f b6 d8             	movzbl %al,%ebx
    f331:	8b 85 6c ef ff ff    	mov    -0x1094(%rbp),%eax
    f337:	83 f8 08             	cmp    $0x8,%eax
    f33a:	7e 73                	jle    f3af <func_63+0xbd2>
    f33c:	48 8b 05 8d 8a 00 00 	mov    0x8a8d(%rip),%rax        # 17dd0 <g_614>
    f343:	0f b7 00             	movzwl (%rax),%eax
    f346:	0f bf d0             	movswl %ax,%edx
    f349:	48 8b 05 e8 8a 00 00 	mov    0x8ae8(%rip),%rax        # 17e38 <g_768>
    f350:	48 8b 8d 50 f0 ff ff 	mov    -0xfb0(%rbp),%rcx
    f357:	48 89 08             	mov    %rcx,(%rax)
    f35a:	48 8b 00             	mov    (%rax),%rax
    f35d:	48 89 85 58 f0 ff ff 	mov    %rax,-0xfa8(%rbp)
    f364:	48 83 bd 58 f0 ff ff 	cmpq   $0x0,-0xfa8(%rbp)
    f36b:	00 
    f36c:	0f 95 c0             	setne  %al
    f36f:	0f b6 c0             	movzbl %al,%eax
    f372:	48 39 85 40 ef ff ff 	cmp    %rax,-0x10c0(%rbp)
    f379:	0f 93 c0             	setae  %al
    f37c:	0f b6 c0             	movzbl %al,%eax
    f37f:	89 85 6c ef ff ff    	mov    %eax,-0x1094(%rbp)
    f385:	8b 85 6c ef ff ff    	mov    -0x1094(%rbp),%eax
    f38b:	89 85 74 ef ff ff    	mov    %eax,-0x108c(%rbp)
    f391:	0f b7 85 56 ef ff ff 	movzwl -0x10aa(%rbp),%eax
    f398:	83 c8 05             	or     $0x5,%eax
    f39b:	98                   	cwtl   
    f39c:	89 d6                	mov    %edx,%esi
    f39e:	89 c7                	mov    %eax,%edi
    f3a0:	e8 71 70 ff ff       	callq  6416 <safe_mod_func_int16_t_s_s>
    f3a5:	0f b7 95 4c ef ff ff 	movzwl -0x10b4(%rbp),%edx
    f3ac:	66 39 d0             	cmp    %dx,%ax
    f3af:	c7 85 70 ef ff ff 00 	movl   $0x0,-0x1090(%rbp)
    f3b6:	00 00 00 
    f3b9:	89 de                	mov    %ebx,%esi
    f3bb:	bf 01 00 00 00       	mov    $0x1,%edi
    f3c0:	e8 16 78 ff ff       	callq  6bdb <safe_div_func_uint8_t_u_u>
    f3c5:	8b 05 1d 6d 00 00    	mov    0x6d1d(%rip),%eax        # 160e8 <g_135>
    f3cb:	89 c2                	mov    %eax,%edx
    f3cd:	48 8b 85 60 f0 ff ff 	mov    -0xfa0(%rbp),%rax
    f3d4:	89 10                	mov    %edx,(%rax)
    f3d6:	48 8b 85 60 f0 ff ff 	mov    -0xfa0(%rbp),%rax
    f3dd:	8b 00                	mov    (%rax),%eax
    f3df:	3d c1 ad c9 66       	cmp    $0x66c9adc1,%eax
    f3e4:	0f 94 c0             	sete   %al
    f3e7:	0f b6 d0             	movzbl %al,%edx
    f3ea:	8b 85 08 f0 ff ff    	mov    -0xff8(%rbp),%eax
    f3f0:	09 d0                	or     %edx,%eax
    f3f2:	89 85 08 f0 ff ff    	mov    %eax,-0xff8(%rbp)
    f3f8:	48 8b 85 f0 ef ff ff 	mov    -0x1010(%rbp),%rax
    f3ff:	48 8b 00             	mov    (%rax),%rax
    f402:	8b 10                	mov    (%rax),%edx
    f404:	8b 85 70 ef ff ff    	mov    -0x1090(%rbp),%eax
    f40a:	09 d0                	or     %edx,%eax
    f40c:	89 85 70 ef ff ff    	mov    %eax,-0x1090(%rbp)
    f412:	8b 85 70 ef ff ff    	mov    -0x1090(%rbp),%eax
    f418:	85 c0                	test   %eax,%eax
    f41a:	0f 84 90 01 00 00    	je     f5b0 <func_63+0xdd3>
    f420:	48 c7 85 00 f0 ff ff 	movq   $0x1a,-0x1000(%rbp)
    f427:	1a 00 00 00 
    f42b:	e9 6a 01 00 00       	jmpq   f59a <func_63+0xdbd>
    f430:	48 8d 05 c9 88 00 00 	lea    0x88c9(%rip),%rax        # 17d00 <g_247>
    f437:	48 89 85 40 fa ff ff 	mov    %rax,-0x5c0(%rbp)
    f43e:	48 8d 05 bb 88 00 00 	lea    0x88bb(%rip),%rax        # 17d00 <g_247>
    f445:	48 89 85 48 fa ff ff 	mov    %rax,-0x5b8(%rbp)
    f44c:	48 c7 85 50 fa ff ff 	movq   $0x0,-0x5b0(%rbp)
    f453:	00 00 00 00 
    f457:	48 8d 05 a2 88 00 00 	lea    0x88a2(%rip),%rax        # 17d00 <g_247>
    f45e:	48 89 85 58 fa ff ff 	mov    %rax,-0x5a8(%rbp)
    f465:	48 8d 05 94 88 00 00 	lea    0x8894(%rip),%rax        # 17d00 <g_247>
    f46c:	48 89 85 60 fa ff ff 	mov    %rax,-0x5a0(%rbp)
    f473:	48 c7 85 68 fa ff ff 	movq   $0x0,-0x598(%rbp)
    f47a:	00 00 00 00 
    f47e:	48 8d 05 7b 88 00 00 	lea    0x887b(%rip),%rax        # 17d00 <g_247>
    f485:	48 89 85 70 fa ff ff 	mov    %rax,-0x590(%rbp)
    f48c:	48 c7 85 40 ef ff ff 	movq   $0x8,-0x10c0(%rbp)
    f493:	08 00 00 00 
    f497:	e9 de 00 00 00       	jmpq   f57a <func_63+0xd9d>
    f49c:	48 8d 05 cd 6c 00 00 	lea    0x6ccd(%rip),%rax        # 16170 <g_868>
    f4a3:	48 89 85 10 f0 ff ff 	mov    %rax,-0xff0(%rbp)
    f4aa:	48 8d 85 10 f0 ff ff 	lea    -0xff0(%rbp),%rax
    f4b1:	48 89 85 18 f0 ff ff 	mov    %rax,-0xfe8(%rbp)
    f4b8:	48 8d 85 18 f0 ff ff 	lea    -0xfe8(%rbp),%rax
    f4bf:	48 89 85 80 f0 ff ff 	mov    %rax,-0xf80(%rbp)
    f4c6:	c7 85 78 ef ff ff 00 	movl   $0x0,-0x1088(%rbp)
    f4cd:	00 00 00 
    f4d0:	eb 1a                	jmp    f4ec <func_63+0xd0f>
    f4d2:	8b 85 78 ef ff ff    	mov    -0x1088(%rbp),%eax
    f4d8:	48 98                	cltq   
    f4da:	c7 84 85 70 f4 ff ff 	movl   $0x175a4124,-0xb90(%rbp,%rax,4)
    f4e1:	24 41 5a 17 
    f4e5:	83 85 78 ef ff ff 01 	addl   $0x1,-0x1088(%rbp)
    f4ec:	83 bd 78 ef ff ff 09 	cmpl   $0x9,-0x1088(%rbp)
    f4f3:	7e dd                	jle    f4d2 <func_63+0xcf5>
    f4f5:	48 c7 85 50 fa ff ff 	movq   $0x0,-0x5b0(%rbp)
    f4fc:	00 00 00 00 
    f500:	48 83 bd 68 f0 ff ff 	cmpq   $0x0,-0xf98(%rbp)
    f507:	00 
    f508:	0f 95 c2             	setne  %dl
    f50b:	48 8b 85 10 f0 ff ff 	mov    -0xff0(%rbp),%rax
    f512:	0f b6 d2             	movzbl %dl,%edx
    f515:	66 89 10             	mov    %dx,(%rax)
    f518:	0f b7 10             	movzwl (%rax),%edx
    f51b:	0f b7 85 4c ef ff ff 	movzwl -0x10b4(%rbp),%eax
    f522:	66 39 c2             	cmp    %ax,%dx
    f525:	48 8b 05 b4 88 00 00 	mov    0x88b4(%rip),%rax        # 17de0 <g_612>
    f52c:	48 8b 00             	mov    (%rax),%rax
    f52f:	48 8b 00             	mov    (%rax),%rax
    f532:	0f b7 00             	movzwl (%rax),%eax
    f535:	66 3d 4c 49          	cmp    $0x494c,%ax
    f539:	48 8b 85 80 f0 ff ff 	mov    -0xf80(%rbp),%rax
    f540:	48 8d 95 e8 ef ff ff 	lea    -0x1018(%rbp),%rdx
    f547:	48 89 10             	mov    %rdx,(%rax)
    f54a:	8b 85 90 f4 ff ff    	mov    -0xb70(%rbp),%eax
    f550:	85 c0                	test   %eax,%eax
    f552:	0f 95 c0             	setne  %al
    f555:	0f b6 d0             	movzbl %al,%edx
    f558:	48 8b 05 d1 88 00 00 	mov    0x88d1(%rip),%rax        # 17e30 <g_769>
    f55f:	48 8b 00             	mov    (%rax),%rax
    f562:	48 39 c2             	cmp    %rax,%rdx
    f565:	0f 94 c0             	sete   %al
    f568:	0f b6 c0             	movzbl %al,%eax
    f56b:	48 89 85 70 f0 ff ff 	mov    %rax,-0xf90(%rbp)
    f572:	48 83 85 40 ef ff ff 	addq   $0x1,-0x10c0(%rbp)
    f579:	01 
    f57a:	48 83 bd 40 ef ff ff 	cmpq   $0x10,-0x10c0(%rbp)
    f581:	10 
    f582:	0f 87 14 ff ff ff    	ja     f49c <func_63+0xcbf>
    f588:	48 8b 85 00 f0 ff ff 	mov    -0x1000(%rbp),%rax
    f58f:	48 83 e8 01          	sub    $0x1,%rax
    f593:	48 89 85 00 f0 ff ff 	mov    %rax,-0x1000(%rbp)
    f59a:	48 8b 85 00 f0 ff ff 	mov    -0x1000(%rbp),%rax
    f5a1:	48 83 f8 12          	cmp    $0x12,%rax
    f5a5:	0f 8e 85 fe ff ff    	jle    f430 <func_63+0xc53>
    f5ab:	e9 13 02 00 00       	jmpq   f7c3 <func_63+0xfe6>
    f5b0:	66 c7 85 58 ef ff ff 	movw   $0xffff,-0x10a8(%rbp)
    f5b7:	ff ff 
    f5b9:	c7 85 a8 ef ff ff ff 	movl   $0xffffffff,-0x1058(%rbp)
    f5c0:	ff ff ff 
    f5c3:	8b 85 6c ef ff ff    	mov    -0x1094(%rbp),%eax
    f5c9:	0f b7 d0             	movzwl %ax,%edx
    f5cc:	83 bd 74 ef ff ff 00 	cmpl   $0x0,-0x108c(%rbp)
    f5d3:	0f 9f c0             	setg   %al
    f5d6:	0f b6 c0             	movzbl %al,%eax
    f5d9:	89 d6                	mov    %edx,%esi
    f5db:	89 c7                	mov    %eax,%edi
    f5dd:	e8 7a 77 ff ff       	callq  6d5c <safe_mod_func_uint16_t_u_u>
    f5e2:	48 8b 85 60 f0 ff ff 	mov    -0xfa0(%rbp),%rax
    f5e9:	8b 00                	mov    (%rax),%eax
    f5eb:	8d 50 ff             	lea    -0x1(%rax),%edx
    f5ee:	48 8b 85 60 f0 ff ff 	mov    -0xfa0(%rbp),%rax
    f5f5:	89 10                	mov    %edx,(%rax)
    f5f7:	0f b7 05 1c 6b 00 00 	movzwl 0x6b1c(%rip),%eax        # 1611a <g_163+0x1a>
    f5fe:	0f b7 d0             	movzwl %ax,%edx
    f601:	48 0f bf 8d 58 ef ff 	movswq -0x10a8(%rbp),%rcx
    f608:	ff 
    f609:	48 8b 85 50 f0 ff ff 	mov    -0xfb0(%rbp),%rax
    f610:	48 89 08             	mov    %rcx,(%rax)
    f613:	48 8b 85 50 f0 ff ff 	mov    -0xfb0(%rbp),%rax
    f61a:	48 8b 00             	mov    (%rax),%rax
    f61d:	48 89 d6             	mov    %rdx,%rsi
    f620:	48 89 c7             	mov    %rax,%rdi
    f623:	e8 cf 73 ff ff       	callq  69f7 <safe_div_func_int64_t_s_s>
    f628:	48 89 c2             	mov    %rax,%rdx
    f62b:	48 8b 05 de 86 00 00 	mov    0x86de(%rip),%rax        # 17d10 <g_288>
    f632:	66 89 10             	mov    %dx,(%rax)
    f635:	48 8b 05 2c 6b 00 00 	mov    0x6b2c(%rip),%rax        # 16168 <g_650>
    f63c:	48 85 c0             	test   %rax,%rax
    f63f:	be 01 00 00 00       	mov    $0x1,%esi
    f644:	bf 01 00 00 00       	mov    $0x1,%edi
    f649:	e8 e0 79 ff ff       	callq  702e <safe_add_func_uint64_t_u_u>
    f64e:	48 85 c0             	test   %rax,%rax
    f651:	74 29                	je     f67c <func_63+0xe9f>
    f653:	c7 85 b0 ef ff ff 0c 	movl   $0x2a4b220c,-0x1050(%rbp)
    f65a:	22 4b 2a 
    f65d:	8b 85 b0 ef ff ff    	mov    -0x1050(%rbp),%eax
    f663:	89 85 a8 ef ff ff    	mov    %eax,-0x1058(%rbp)
    f669:	66 83 bd 58 ef ff ff 	cmpw   $0x0,-0x10a8(%rbp)
    f670:	00 
    f671:	0f 84 4c 01 00 00    	je     f7c3 <func_63+0xfe6>
    f677:	e9 ae f3 ff ff       	jmpq   ea2a <func_63+0x24d>
    f67c:	48 8d 85 10 f2 ff ff 	lea    -0xdf0(%rbp),%rax
    f683:	48 83 c0 20          	add    $0x20,%rax
    f687:	48 89 85 78 f0 ff ff 	mov    %rax,-0xf88(%rbp)
    f68e:	c7 85 ac ef ff ff 01 	movl   $0x1,-0x1054(%rbp)
    f695:	00 00 00 
    f698:	66 c7 05 cf 6a 00 00 	movw   $0xffe2,0x6acf(%rip)        # 16170 <g_868>
    f69f:	e2 ff 
    f6a1:	90                   	nop
    f6a2:	0f b7 05 c7 6a 00 00 	movzwl 0x6ac7(%rip),%eax        # 16170 <g_868>
    f6a9:	66 83 f8 fb          	cmp    $0xfffb,%ax
    f6ad:	0f 8c c8 00 00 00    	jl     f77b <func_63+0xf9e>
    f6b3:	48 8d 05 7e 69 00 00 	lea    0x697e(%rip),%rax        # 16038 <g_7>
    f6ba:	48 89 85 40 fa ff ff 	mov    %rax,-0x5c0(%rbp)
    f6c1:	48 8d 85 08 f0 ff ff 	lea    -0xff8(%rbp),%rax
    f6c8:	48 89 85 48 fa ff ff 	mov    %rax,-0x5b8(%rbp)
    f6cf:	48 8d 85 6c ef ff ff 	lea    -0x1094(%rbp),%rax
    f6d6:	48 89 85 50 fa ff ff 	mov    %rax,-0x5b0(%rbp)
    f6dd:	48 8d 85 6c ef ff ff 	lea    -0x1094(%rbp),%rax
    f6e4:	48 89 85 58 fa ff ff 	mov    %rax,-0x5a8(%rbp)
    f6eb:	48 8d 85 6c ef ff ff 	lea    -0x1094(%rbp),%rax
    f6f2:	48 89 85 60 fa ff ff 	mov    %rax,-0x5a0(%rbp)
    f6f9:	48 8d 05 38 69 00 00 	lea    0x6938(%rip),%rax        # 16038 <g_7>
    f700:	48 89 85 68 fa ff ff 	mov    %rax,-0x598(%rbp)
    f707:	48 8d 85 70 ef ff ff 	lea    -0x1090(%rbp),%rax
    f70e:	48 89 85 70 fa ff ff 	mov    %rax,-0x590(%rbp)
    f715:	48 8d 85 6c ef ff ff 	lea    -0x1094(%rbp),%rax
    f71c:	48 89 85 78 fa ff ff 	mov    %rax,-0x588(%rbp)
    f723:	48 8d 05 0e 69 00 00 	lea    0x690e(%rip),%rax        # 16038 <g_7>
    f72a:	48 89 85 80 fa ff ff 	mov    %rax,-0x580(%rbp)
    f731:	48 8d 85 6c ef ff ff 	lea    -0x1094(%rbp),%rax
    f738:	48 89 85 88 fa ff ff 	mov    %rax,-0x578(%rbp)
    f73f:	48 8d 85 70 ef ff ff 	lea    -0x1090(%rbp),%rax
    f746:	48 89 85 90 fa ff ff 	mov    %rax,-0x570(%rbp)
    f74d:	48 8d 05 e4 68 00 00 	lea    0x68e4(%rip),%rax        # 16038 <g_7>
    f754:	48 89 85 98 fa ff ff 	mov    %rax,-0x568(%rbp)
    f75b:	48 8b 85 f0 ef ff ff 	mov    -0x1010(%rbp),%rax
    f762:	48 8b 95 90 fa ff ff 	mov    -0x570(%rbp),%rdx
    f769:	48 89 10             	mov    %rdx,(%rax)
    f76c:	48 8b 05 9d 85 00 00 	mov    0x859d(%rip),%rax        # 17d10 <g_288>
    f773:	0f b7 00             	movzwl (%rax),%eax
    f776:	e9 f8 02 00 00       	jmpq   fa73 <func_63+0x1296>
    f77b:	48 8b 05 0e 86 00 00 	mov    0x860e(%rip),%rax        # 17d90 <g_381>
    f782:	48 8b 95 78 f0 ff ff 	mov    -0xf88(%rbp),%rdx
    f789:	48 89 10             	mov    %rdx,(%rax)
    f78c:	48 8b 00             	mov    (%rax),%rax
    f78f:	48 39 85 78 f0 ff ff 	cmp    %rax,-0xf88(%rbp)
    f796:	0f 94 c0             	sete   %al
    f799:	0f b6 d8             	movzbl %al,%ebx
    f79c:	0f b7 85 4c ef ff ff 	movzwl -0x10b4(%rbp),%eax
    f7a3:	0f be c0             	movsbl %al,%eax
    f7a6:	89 c6                	mov    %eax,%esi
    f7a8:	bf 01 00 00 00       	mov    $0x1,%edi
    f7ad:	e8 40 6a ff ff       	callq  61f2 <safe_sub_func_int8_t_s_s>
    f7b2:	0f be c0             	movsbl %al,%eax
    f7b5:	39 c3                	cmp    %eax,%ebx
    f7b7:	0f 9e c0             	setle  %al
    f7ba:	0f b6 c0             	movzbl %al,%eax
    f7bd:	89 85 ac ef ff ff    	mov    %eax,-0x1054(%rbp)
    f7c3:	48 8b 85 40 ef ff ff 	mov    -0x10c0(%rbp),%rax
    f7ca:	89 c2                	mov    %eax,%edx
    f7cc:	8b 85 a0 ef ff ff    	mov    -0x1060(%rbp),%eax
    f7d2:	21 d0                	and    %edx,%eax
    f7d4:	89 85 a0 ef ff ff    	mov    %eax,-0x1060(%rbp)
    f7da:	c7 85 94 ef ff ff 12 	movl   $0x12,-0x106c(%rbp)
    f7e1:	00 00 00 
    f7e4:	e9 76 02 00 00       	jmpq   fa5f <func_63+0x1282>
    f7e9:	48 c7 85 88 f0 ff ff 	movq   $0x0,-0xf78(%rbp)
    f7f0:	00 00 00 00 
    f7f4:	c7 85 b4 ef ff ff fb 	movl   $0x8653bbfb,-0x104c(%rbp)
    f7fb:	bb 53 86 
    f7fe:	c7 85 b8 ef ff ff fe 	movl   $0xfffffffe,-0x1048(%rbp)
    f805:	ff ff ff 
    f808:	c7 85 bc ef ff ff ed 	movl   $0x8bdc8ced,-0x1044(%rbp)
    f80f:	8c dc 8b 
    f812:	c7 85 c0 ef ff ff 00 	movl   $0x0,-0x1040(%rbp)
    f819:	00 00 00 
    f81c:	c7 85 c4 ef ff ff 20 	movl   $0x62017b20,-0x103c(%rbp)
    f823:	7b 01 62 
    f826:	c7 85 70 f4 ff ff a9 	movl   $0x72f6e8a9,-0xb90(%rbp)
    f82d:	e8 f6 72 
    f830:	c7 85 74 f4 ff ff 08 	movl   $0x8,-0xb8c(%rbp)
    f837:	00 00 00 
    f83a:	c7 85 78 f4 ff ff 08 	movl   $0x8,-0xb88(%rbp)
    f841:	00 00 00 
    f844:	c7 85 7c f4 ff ff a9 	movl   $0x72f6e8a9,-0xb84(%rbp)
    f84b:	e8 f6 72 
    f84e:	c7 85 80 f4 ff ff 08 	movl   $0x8,-0xb80(%rbp)
    f855:	00 00 00 
    f858:	c7 85 84 f4 ff ff 08 	movl   $0x8,-0xb7c(%rbp)
    f85f:	00 00 00 
    f862:	66 c7 85 5a ef ff ff 	movw   $0x734b,-0x10a6(%rbp)
    f869:	4b 73 
    f86b:	48 b8 5a ff 61 ff 89 	movabs $0x61ff8989ff61ff5a,%rax
    f872:	89 ff 61 
    f875:	48 89 85 40 fa ff ff 	mov    %rax,-0x5c0(%rbp)
    f87c:	66 c7 85 48 fa ff ff 	movw   $0x5aff,-0x5b8(%rbp)
    f883:	ff 5a 
    f885:	48 bb 89 ff 61 ff 5a 	movabs $0x710615aff61ff89,%rbx
    f88c:	61 10 07 
    f88f:	48 89 9d 4a fa ff ff 	mov    %rbx,-0x5b6(%rbp)
    f896:	66 c7 85 52 fa ff ff 	movw   $0x1089,-0x5ae(%rbp)
    f89d:	89 10 
    f89f:	48 b9 07 5a 85 ff 5a 	movabs $0xe55aff855a07,%rcx
    f8a6:	e5 00 00 
    f8a9:	48 89 8d 54 fa ff ff 	mov    %rcx,-0x5ac(%rbp)
    f8b0:	66 c7 85 5c fa ff ff 	movw   $0x5ae5,-0x5a4(%rbp)
    f8b7:	e5 5a 
    f8b9:	48 b9 5a 10 10 5a 89 	movabs $0x890061895a10105a,%rcx
    f8c0:	61 00 89 
    f8c3:	48 89 8d 5e fa ff ff 	mov    %rcx,-0x5a2(%rbp)
    f8ca:	66 c7 85 66 fa ff ff 	movw   $0xffff,-0x59a(%rbp)
    f8d1:	ff ff 
    f8d3:	48 b9 ff 5a 61 10 07 	movabs $0x10890710615aff,%rcx
    f8da:	89 10 00 
    f8dd:	48 89 8d 68 fa ff ff 	mov    %rcx,-0x598(%rbp)
    f8e4:	66 c7 85 70 fa ff ff 	movw   $0xffff,-0x590(%rbp)
    f8eb:	ff ff 
    f8ed:	48 b9 07 ff ff 5a 5a 	movabs $0x7ffff5a5affff07,%rcx
    f8f4:	ff ff 07 
    f8f7:	48 89 8d 72 fa ff ff 	mov    %rcx,-0x58e(%rbp)
    f8fe:	66 c7 85 7a fa ff ff 	movw   $0xffe5,-0x586(%rbp)
    f905:	e5 ff 
    f907:	48 be 07 ff 10 ff ff 	movabs $0x610089ffff10ff07,%rsi
    f90e:	89 00 61 
    f911:	48 89 b5 7c fa ff ff 	mov    %rsi,-0x584(%rbp)
    f918:	66 c7 85 84 fa ff ff 	movw   $0x5a89,-0x57c(%rbp)
    f91f:	89 5a 
    f921:	48 bf ff ff 10 ff 07 	movabs $0x7616107ff10ffff,%rdi
    f928:	61 61 07 
    f92b:	48 89 bd 86 fa ff ff 	mov    %rdi,-0x57a(%rbp)
    f932:	66 c7 85 8e fa ff ff 	movw   $0x10ff,-0x572(%rbp)
    f939:	ff 10 
    f93b:	48 b9 5a 5a ff ff 07 	movabs $0xffe507ffff5a5a,%rcx
    f942:	e5 ff 00 
    f945:	48 89 8d 90 fa ff ff 	mov    %rcx,-0x570(%rbp)
    f94c:	66 c7 85 98 fa ff ff 	movw   $0x5a01,-0x568(%rbp)
    f953:	01 5a 
    f955:	48 be 07 10 61 5a ff 	movabs $0x89ff61ff5a611007,%rsi
    f95c:	61 ff 89 
    f95f:	48 89 b5 9a fa ff ff 	mov    %rsi,-0x566(%rbp)
    f966:	66 c7 85 a2 fa ff ff 	movw   $0xff89,-0x55e(%rbp)
    f96d:	89 ff 
    f96f:	48 bf 89 5a 10 10 5a 	movabs $0x61895a10105a89,%rdi
    f976:	89 61 00 
    f979:	48 89 bd a4 fa ff ff 	mov    %rdi,-0x55c(%rbp)
    f980:	66 c7 85 ac fa ff ff 	movw   $0xff89,-0x554(%rbp)
    f987:	89 ff 
    f989:	48 b9 5a ff 85 5a 07 	movabs $0x700ff075a85ff5a,%rcx
    f990:	ff 00 07 
    f993:	48 89 8d ae fa ff ff 	mov    %rcx,-0x552(%rbp)
    f99a:	66 c7 85 b6 fa ff ff 	movw   $0xff01,-0x54a(%rbp)
    f9a1:	01 ff 
    f9a3:	48 89 85 b8 fa ff ff 	mov    %rax,-0x548(%rbp)
    f9aa:	66 c7 85 c0 fa ff ff 	movw   $0x5aff,-0x540(%rbp)
    f9b1:	ff 5a 
    f9b3:	48 89 9d c2 fa ff ff 	mov    %rbx,-0x53e(%rbp)
    f9ba:	66 c7 85 ca fa ff ff 	movw   $0x1089,-0x536(%rbp)
    f9c1:	89 10 
    f9c3:	48 8d 85 b0 f5 ff ff 	lea    -0xa50(%rbp),%rax
    f9ca:	48 83 c0 50          	add    $0x50,%rax
    f9ce:	48 89 85 90 f0 ff ff 	mov    %rax,-0xf70(%rbp)
    f9d5:	c7 85 70 f7 ff ff fa 	movl   $0xfffffffa,-0x890(%rbp)
    f9dc:	ff ff ff 
    f9df:	c7 85 74 f7 ff ff fa 	movl   $0xfffffffa,-0x88c(%rbp)
    f9e6:	ff ff ff 
    f9e9:	c7 85 78 f7 ff ff 22 	movl   $0xe896ef22,-0x888(%rbp)
    f9f0:	ef 96 e8 
    f9f3:	c7 85 7c f7 ff ff fa 	movl   $0xfffffffa,-0x884(%rbp)
    f9fa:	ff ff ff 
    f9fd:	c7 85 80 f7 ff ff fa 	movl   $0xfffffffa,-0x880(%rbp)
    fa04:	ff ff ff 
    fa07:	c7 85 84 f7 ff ff 22 	movl   $0xe896ef22,-0x87c(%rbp)
    fa0e:	ef 96 e8 
    fa11:	48 8d 05 c0 83 00 00 	lea    0x83c0(%rip),%rax        # 17dd8 <g_613>
    fa18:	48 89 85 98 f0 ff ff 	mov    %rax,-0xf68(%rbp)
    fa1f:	48 8d 05 b2 8b 00 00 	lea    0x8bb2(%rip),%rax        # 185d8 <g_382>
    fa26:	48 89 85 a0 f0 ff ff 	mov    %rax,-0xf60(%rbp)
    fa2d:	48 8d 05 d4 82 00 00 	lea    0x82d4(%rip),%rax        # 17d08 <g_246>
    fa34:	48 89 85 a8 f0 ff ff 	mov    %rax,-0xf58(%rbp)
    fa3b:	48 8d 85 10 f2 ff ff 	lea    -0xdf0(%rbp),%rax
    fa42:	48 83 c0 18          	add    $0x18,%rax
    fa46:	48 89 85 b0 f0 ff ff 	mov    %rax,-0xf50(%rbp)
    fa4d:	48 c7 85 b8 f0 ff ff 	movq   $0x9,-0xf48(%rbp)
    fa54:	09 00 00 00 
    fa58:	83 85 94 ef ff ff 01 	addl   $0x1,-0x106c(%rbp)
    fa5f:	83 bd 94 ef ff ff 17 	cmpl   $0x17,-0x106c(%rbp)
    fa66:	0f 84 7d fd ff ff    	je     f7e9 <func_63+0x100c>
    fa6c:	0f b7 85 4c ef ff ff 	movzwl -0x10b4(%rbp),%eax
    fa73:	48 8b 5d e8          	mov    -0x18(%rbp),%rbx
    fa77:	64 48 33 1c 25 28 00 	xor    %fs:0x28,%rbx
    fa7e:	00 00 
    fa80:	74 05                	je     fa87 <func_63+0x12aa>
    fa82:	e8 e9 65 ff ff       	callq  6070 <__stack_chk_fail@plt>
    fa87:	48 81 c4 b8 10 00 00 	add    $0x10b8,%rsp
    fa8e:	5b                   	pop    %rbx
    fa8f:	5d                   	pop    %rbp
    fa90:	c3                   	retq   

000000000000fa91 <func_70>:
    fa91:	f3 0f 1e fa          	endbr64 
    fa95:	55                   	push   %rbp
    fa96:	48 89 e5             	mov    %rsp,%rbp
    fa99:	53                   	push   %rbx
    fa9a:	48 81 ec e8 04 00 00 	sub    $0x4e8,%rsp
    faa1:	48 89 bd 38 fb ff ff 	mov    %rdi,-0x4c8(%rbp)
    faa8:	48 89 b5 30 fb ff ff 	mov    %rsi,-0x4d0(%rbp)
    faaf:	48 89 95 28 fb ff ff 	mov    %rdx,-0x4d8(%rbp)
    fab6:	89 8d 24 fb ff ff    	mov    %ecx,-0x4dc(%rbp)
    fabc:	4c 89 85 18 fb ff ff 	mov    %r8,-0x4e8(%rbp)
    fac3:	64 48 8b 04 25 28 00 	mov    %fs:0x28,%rax
    faca:	00 00 
    facc:	48 89 45 e8          	mov    %rax,-0x18(%rbp)
    fad0:	31 c0                	xor    %eax,%eax
    fad2:	48 8d 05 77 66 00 00 	lea    0x6677(%rip),%rax        # 16150 <g_185>
    fad9:	48 89 85 68 fb ff ff 	mov    %rax,-0x498(%rbp)
    fae0:	c7 85 44 fb ff ff f5 	movl   $0x6cf51df5,-0x4bc(%rbp)
    fae7:	1d f5 6c 
    faea:	48 8d 85 44 fb ff ff 	lea    -0x4bc(%rbp),%rax
    faf1:	48 89 85 90 fb ff ff 	mov    %rax,-0x470(%rbp)
    faf8:	48 8d 85 44 fb ff ff 	lea    -0x4bc(%rbp),%rax
    faff:	48 89 85 98 fb ff ff 	mov    %rax,-0x468(%rbp)
    fb06:	48 8d 05 bb 8a 00 00 	lea    0x8abb(%rip),%rax        # 185c8 <g_14>
    fb0d:	48 89 85 a0 fb ff ff 	mov    %rax,-0x460(%rbp)
    fb14:	48 8d 85 44 fb ff ff 	lea    -0x4bc(%rbp),%rax
    fb1b:	48 89 85 a8 fb ff ff 	mov    %rax,-0x458(%rbp)
    fb22:	48 8d 85 44 fb ff ff 	lea    -0x4bc(%rbp),%rax
    fb29:	48 89 85 b0 fb ff ff 	mov    %rax,-0x450(%rbp)
    fb30:	48 8d 05 91 8a 00 00 	lea    0x8a91(%rip),%rax        # 185c8 <g_14>
    fb37:	48 89 85 b8 fb ff ff 	mov    %rax,-0x448(%rbp)
    fb3e:	c7 85 48 fb ff ff d4 	movl   $0x6ae05fd4,-0x4b8(%rbp)
    fb45:	5f e0 6a 
    fb48:	48 8d 05 b9 81 00 00 	lea    0x81b9(%rip),%rax        # 17d08 <g_246>
    fb4f:	48 89 85 c0 fb ff ff 	mov    %rax,-0x440(%rbp)
    fb56:	48 8d 05 ab 81 00 00 	lea    0x81ab(%rip),%rax        # 17d08 <g_246>
    fb5d:	48 89 85 c8 fb ff ff 	mov    %rax,-0x438(%rbp)
    fb64:	48 8d 05 9d 81 00 00 	lea    0x819d(%rip),%rax        # 17d08 <g_246>
    fb6b:	48 89 85 d0 fb ff ff 	mov    %rax,-0x430(%rbp)
    fb72:	48 8d 05 8f 81 00 00 	lea    0x818f(%rip),%rax        # 17d08 <g_246>
    fb79:	48 89 85 d8 fb ff ff 	mov    %rax,-0x428(%rbp)
    fb80:	48 8d 05 81 81 00 00 	lea    0x8181(%rip),%rax        # 17d08 <g_246>
    fb87:	48 89 85 e0 fb ff ff 	mov    %rax,-0x420(%rbp)
    fb8e:	48 8d 05 73 81 00 00 	lea    0x8173(%rip),%rax        # 17d08 <g_246>
    fb95:	48 89 85 e8 fb ff ff 	mov    %rax,-0x418(%rbp)
    fb9c:	48 8d 05 65 81 00 00 	lea    0x8165(%rip),%rax        # 17d08 <g_246>
    fba3:	48 89 85 f0 fb ff ff 	mov    %rax,-0x410(%rbp)
    fbaa:	48 8d 85 c0 fb ff ff 	lea    -0x440(%rbp),%rax
    fbb1:	48 83 c0 30          	add    $0x30,%rax
    fbb5:	48 89 85 58 fb ff ff 	mov    %rax,-0x4a8(%rbp)
    fbbc:	48 8d 85 58 fb ff ff 	lea    -0x4a8(%rbp),%rax
    fbc3:	48 89 85 60 fb ff ff 	mov    %rax,-0x4a0(%rbp)
    fbca:	48 8d 85 c0 fc ff ff 	lea    -0x340(%rbp),%rax
    fbd1:	48 8d 15 88 2d 00 00 	lea    0x2d88(%rip),%rdx        # 12960 <g_1119+0x90c>
    fbd8:	b9 64 00 00 00       	mov    $0x64,%ecx
    fbdd:	48 89 c7             	mov    %rax,%rdi
    fbe0:	48 89 d6             	mov    %rdx,%rsi
    fbe3:	f3 48 a5             	rep movsq %ds:(%rsi),%es:(%rdi)
    fbe6:	8b 85 44 fb ff ff    	mov    -0x4bc(%rbp),%eax
    fbec:	48 98                	cltq   
    fbee:	48 be c6 2b 67 9a 45 	movabs $0x2acdf8459a672bc6,%rsi
    fbf5:	f8 cd 2a 
    fbf8:	48 89 c7             	mov    %rax,%rdi
    fbfb:	e8 41 6c ff ff       	callq  6841 <safe_add_func_int64_t_s_s>
    fc00:	8b 95 44 fb ff ff    	mov    -0x4bc(%rbp),%edx
    fc06:	48 63 d2             	movslq %edx,%rdx
    fc09:	48 39 d0             	cmp    %rdx,%rax
    fc0c:	0f 9e c0             	setle  %al
    fc0f:	0f b6 c0             	movzbl %al,%eax
    fc12:	89 85 48 fb ff ff    	mov    %eax,-0x4b8(%rbp)
    fc18:	48 c7 05 bd 64 00 00 	movq   $0x0,0x64bd(%rip)        # 160e0 <g_127>
    fc1f:	00 00 00 00 
    fc23:	e9 05 03 00 00       	jmpq   ff2d <func_70+0x49c>
    fc28:	c7 85 00 fc ff ff 2d 	movl   $0x610b732d,-0x400(%rbp)
    fc2f:	73 0b 61 
    fc32:	c7 85 04 fc ff ff 2d 	movl   $0x610b732d,-0x3fc(%rbp)
    fc39:	73 0b 61 
    fc3c:	c7 85 08 fc ff ff 2d 	movl   $0x610b732d,-0x3f8(%rbp)
    fc43:	73 0b 61 
    fc46:	c7 85 0c fc ff ff 2d 	movl   $0x610b732d,-0x3f4(%rbp)
    fc4d:	73 0b 61 
    fc50:	c7 85 10 fc ff ff 2d 	movl   $0x610b732d,-0x3f0(%rbp)
    fc57:	73 0b 61 
    fc5a:	c7 85 14 fc ff ff 02 	movl   $0x2,-0x3ec(%rbp)
    fc61:	00 00 00 
    fc64:	c7 85 18 fc ff ff 02 	movl   $0x2,-0x3e8(%rbp)
    fc6b:	00 00 00 
    fc6e:	c7 85 1c fc ff ff 02 	movl   $0x2,-0x3e4(%rbp)
    fc75:	00 00 00 
    fc78:	c7 85 20 fc ff ff 02 	movl   $0x2,-0x3e0(%rbp)
    fc7f:	00 00 00 
    fc82:	c7 85 24 fc ff ff 02 	movl   $0x2,-0x3dc(%rbp)
    fc89:	00 00 00 
    fc8c:	c7 85 28 fc ff ff 2d 	movl   $0x610b732d,-0x3d8(%rbp)
    fc93:	73 0b 61 
    fc96:	c7 85 2c fc ff ff 2d 	movl   $0x610b732d,-0x3d4(%rbp)
    fc9d:	73 0b 61 
    fca0:	c7 85 30 fc ff ff 2d 	movl   $0x610b732d,-0x3d0(%rbp)
    fca7:	73 0b 61 
    fcaa:	c7 85 34 fc ff ff 2d 	movl   $0x610b732d,-0x3cc(%rbp)
    fcb1:	73 0b 61 
    fcb4:	c7 85 38 fc ff ff 2d 	movl   $0x610b732d,-0x3c8(%rbp)
    fcbb:	73 0b 61 
    fcbe:	c7 85 3c fc ff ff 02 	movl   $0x2,-0x3c4(%rbp)
    fcc5:	00 00 00 
    fcc8:	c7 85 40 fc ff ff 02 	movl   $0x2,-0x3c0(%rbp)
    fccf:	00 00 00 
    fcd2:	c7 85 44 fc ff ff 02 	movl   $0x2,-0x3bc(%rbp)
    fcd9:	00 00 00 
    fcdc:	c7 85 48 fc ff ff 02 	movl   $0x2,-0x3b8(%rbp)
    fce3:	00 00 00 
    fce6:	c7 85 4c fc ff ff 02 	movl   $0x2,-0x3b4(%rbp)
    fced:	00 00 00 
    fcf0:	c7 85 50 fc ff ff 2d 	movl   $0x610b732d,-0x3b0(%rbp)
    fcf7:	73 0b 61 
    fcfa:	c7 85 54 fc ff ff 2d 	movl   $0x610b732d,-0x3ac(%rbp)
    fd01:	73 0b 61 
    fd04:	c7 85 58 fc ff ff 2d 	movl   $0x610b732d,-0x3a8(%rbp)
    fd0b:	73 0b 61 
    fd0e:	c7 85 5c fc ff ff 2d 	movl   $0x610b732d,-0x3a4(%rbp)
    fd15:	73 0b 61 
    fd18:	c7 85 60 fc ff ff 2d 	movl   $0x610b732d,-0x3a0(%rbp)
    fd1f:	73 0b 61 
    fd22:	c7 85 64 fc ff ff 02 	movl   $0x2,-0x39c(%rbp)
    fd29:	00 00 00 
    fd2c:	c7 85 68 fc ff ff 02 	movl   $0x2,-0x398(%rbp)
    fd33:	00 00 00 
    fd36:	c7 85 6c fc ff ff 02 	movl   $0x2,-0x394(%rbp)
    fd3d:	00 00 00 
    fd40:	c7 85 70 fc ff ff 02 	movl   $0x2,-0x390(%rbp)
    fd47:	00 00 00 
    fd4a:	c7 85 74 fc ff ff 02 	movl   $0x2,-0x38c(%rbp)
    fd51:	00 00 00 
    fd54:	c7 85 78 fc ff ff 2d 	movl   $0x610b732d,-0x388(%rbp)
    fd5b:	73 0b 61 
    fd5e:	c7 85 7c fc ff ff 2d 	movl   $0x610b732d,-0x384(%rbp)
    fd65:	73 0b 61 
    fd68:	c7 85 80 fc ff ff 2d 	movl   $0x610b732d,-0x380(%rbp)
    fd6f:	73 0b 61 
    fd72:	c7 85 84 fc ff ff 2d 	movl   $0x610b732d,-0x37c(%rbp)
    fd79:	73 0b 61 
    fd7c:	c7 85 88 fc ff ff 2d 	movl   $0x610b732d,-0x378(%rbp)
    fd83:	73 0b 61 
    fd86:	c7 85 8c fc ff ff 02 	movl   $0x2,-0x374(%rbp)
    fd8d:	00 00 00 
    fd90:	c7 85 90 fc ff ff 02 	movl   $0x2,-0x370(%rbp)
    fd97:	00 00 00 
    fd9a:	c7 85 94 fc ff ff 02 	movl   $0x2,-0x36c(%rbp)
    fda1:	00 00 00 
    fda4:	c7 85 98 fc ff ff 02 	movl   $0x2,-0x368(%rbp)
    fdab:	00 00 00 
    fdae:	c7 85 9c fc ff ff 02 	movl   $0x2,-0x364(%rbp)
    fdb5:	00 00 00 
    fdb8:	c7 85 a0 fc ff ff 2d 	movl   $0x610b732d,-0x360(%rbp)
    fdbf:	73 0b 61 
    fdc2:	c7 85 a4 fc ff ff 2d 	movl   $0x610b732d,-0x35c(%rbp)
    fdc9:	73 0b 61 
    fdcc:	c7 85 a8 fc ff ff 2d 	movl   $0x610b732d,-0x358(%rbp)
    fdd3:	73 0b 61 
    fdd6:	c7 85 ac fc ff ff 2d 	movl   $0x610b732d,-0x354(%rbp)
    fddd:	73 0b 61 
    fde0:	c7 85 b0 fc ff ff 2d 	movl   $0x610b732d,-0x350(%rbp)
    fde7:	73 0b 61 
    fdea:	c7 85 54 fb ff ff 78 	movl   $0xedf3df78,-0x4ac(%rbp)
    fdf1:	df f3 ed 
    fdf4:	c7 85 4c fb ff ff 1f 	movl   $0xa00f021f,-0x4b4(%rbp)
    fdfb:	02 0f a0 
    fdfe:	c7 85 48 fb ff ff 00 	movl   $0x0,-0x4b8(%rbp)
    fe05:	00 00 00 
    fe08:	e9 01 01 00 00       	jmpq   ff0e <func_70+0x47d>
    fe0d:	c7 85 50 fb ff ff 00 	movl   $0x0,-0x4b0(%rbp)
    fe14:	00 00 00 
    fe17:	eb 1e                	jmp    fe37 <func_70+0x3a6>
    fe19:	8b 85 50 fb ff ff    	mov    -0x4b0(%rbp),%eax
    fe1f:	48 98                	cltq   
    fe21:	48 8d 15 a8 62 00 00 	lea    0x62a8(%rip),%rdx        # 160d0 <g_91>
    fe28:	48 89 94 c5 70 fb ff 	mov    %rdx,-0x490(%rbp,%rax,8)
    fe2f:	ff 
    fe30:	83 85 50 fb ff ff 01 	addl   $0x1,-0x4b0(%rbp)
    fe37:	83 bd 50 fb ff ff 02 	cmpl   $0x2,-0x4b0(%rbp)
    fe3e:	7e d9                	jle    fe19 <func_70+0x388>
    fe40:	8b 85 48 fb ff ff    	mov    -0x4b8(%rbp),%eax
    fe46:	8d 48 02             	lea    0x2(%rax),%ecx
    fe49:	8b 85 48 fb ff ff    	mov    -0x4b8(%rbp),%eax
    fe4f:	48 8d 14 c5 00 00 00 	lea    0x0(,%rax,8),%rdx
    fe56:	00 
    fe57:	48 8d 05 82 7e 00 00 	lea    0x7e82(%rip),%rax        # 17ce0 <g_134>
    fe5e:	48 8b 04 02          	mov    (%rdx,%rax,1),%rax
    fe62:	89 ca                	mov    %ecx,%edx
    fe64:	48 89 84 d5 90 fb ff 	mov    %rax,-0x470(%rbp,%rdx,8)
    fe6b:	ff 
    fe6c:	8b 95 90 fc ff ff    	mov    -0x370(%rbp),%edx
    fe72:	48 8b 05 67 62 00 00 	mov    0x6267(%rip),%rax        # 160e0 <g_127>
    fe79:	48 8d 0d e0 62 00 00 	lea    0x62e0(%rip),%rcx        # 16160 <g_335>
    fe80:	0f b6 04 08          	movzbl (%rax,%rcx,1),%eax
    fe84:	0f be c0             	movsbl %al,%eax
    fe87:	21 d0                	and    %edx,%eax
    fe89:	89 85 90 fc ff ff    	mov    %eax,-0x370(%rbp)
    fe8f:	48 8b 05 ba 62 00 00 	mov    0x62ba(%rip),%rax        # 16150 <g_185>
    fe96:	0f b6 d8             	movzbl %al,%ebx
    fe99:	0f b6 05 29 62 00 00 	movzbl 0x6229(%rip),%eax        # 160c9 <g_77>
    fea0:	0f be d0             	movsbl %al,%edx
    fea3:	8b 85 a8 fc ff ff    	mov    -0x358(%rbp),%eax
    fea9:	0f be c0             	movsbl %al,%eax
    feac:	89 d6                	mov    %edx,%esi
    feae:	89 c7                	mov    %eax,%edi
    feb0:	e8 5d 63 ff ff       	callq  6212 <safe_mul_func_int8_t_s_s>
    feb5:	48 83 bd 60 fb ff ff 	cmpq   $0x0,-0x4a0(%rbp)
    febc:	00 
    febd:	8b 85 24 fb ff ff    	mov    -0x4dc(%rbp),%eax
    fec3:	89 85 54 fb ff ff    	mov    %eax,-0x4ac(%rbp)
    fec9:	8b 05 1d 62 00 00    	mov    0x621d(%rip),%eax        # 160ec <g_146>
    fecf:	0f b6 c0             	movzbl %al,%eax
    fed2:	be 01 00 00 00       	mov    $0x1,%esi
    fed7:	89 c7                	mov    %eax,%edi
    fed9:	e8 6e 6d ff ff       	callq  6c4c <safe_lshift_func_uint8_t_u_u>
    fede:	48 8b 85 30 fb ff ff 	mov    -0x4d0(%rbp),%rax
    fee5:	c6 00 01             	movb   $0x1,(%rax)
    fee8:	48 8b 85 30 fb ff ff 	mov    -0x4d0(%rbp),%rax
    feef:	0f b6 00             	movzbl (%rax),%eax
    fef2:	0f b6 c0             	movzbl %al,%eax
    fef5:	89 de                	mov    %ebx,%esi
    fef7:	89 c7                	mov    %eax,%edi
    fef9:	e8 b0 6c ff ff       	callq  6bae <safe_mod_func_uint8_t_u_u>
    fefe:	0f b6 c0             	movzbl %al,%eax
    ff01:	09 85 4c fb ff ff    	or     %eax,-0x4b4(%rbp)
    ff07:	83 85 48 fb ff ff 01 	addl   $0x1,-0x4b8(%rbp)
    ff0e:	83 bd 48 fb ff ff 03 	cmpl   $0x3,-0x4b8(%rbp)
    ff15:	0f 86 f2 fe ff ff    	jbe    fe0d <func_70+0x37c>
    ff1b:	48 8b 05 be 61 00 00 	mov    0x61be(%rip),%rax        # 160e0 <g_127>
    ff22:	48 83 c0 01          	add    $0x1,%rax
    ff26:	48 89 05 b3 61 00 00 	mov    %rax,0x61b3(%rip)        # 160e0 <g_127>
    ff2d:	48 8b 05 ac 61 00 00 	mov    0x61ac(%rip),%rax        # 160e0 <g_127>
    ff34:	48 83 f8 01          	cmp    $0x1,%rax
    ff38:	0f 86 ea fc ff ff    	jbe    fc28 <func_70+0x197>
    ff3e:	8b 85 70 ff ff ff    	mov    -0x90(%rbp),%eax
    ff44:	83 e8 01             	sub    $0x1,%eax
    ff47:	89 85 70 ff ff ff    	mov    %eax,-0x90(%rbp)
    ff4d:	8b 85 24 fb ff ff    	mov    -0x4dc(%rbp),%eax
    ff53:	48 8b 5d e8          	mov    -0x18(%rbp),%rbx
    ff57:	64 48 33 1c 25 28 00 	xor    %fs:0x28,%rbx
    ff5e:	00 00 
    ff60:	74 05                	je     ff67 <func_70+0x4d6>
    ff62:	e8 09 61 ff ff       	callq  6070 <__stack_chk_fail@plt>
    ff67:	48 81 c4 e8 04 00 00 	add    $0x4e8,%rsp
    ff6e:	5b                   	pop    %rbx
    ff6f:	5d                   	pop    %rbp
    ff70:	c3                   	retq   

000000000000ff71 <func_78>:
    ff71:	f3 0f 1e fa          	endbr64 
    ff75:	55                   	push   %rbp
    ff76:	48 89 e5             	mov    %rsp,%rbp
    ff79:	41 55                	push   %r13
    ff7b:	41 54                	push   %r12
    ff7d:	53                   	push   %rbx
    ff7e:	48 81 ec e8 0c 00 00 	sub    $0xce8,%rsp
    ff85:	48 89 b5 10 f3 ff ff 	mov    %rsi,-0xcf0(%rbp)
    ff8c:	48 89 95 08 f3 ff ff 	mov    %rdx,-0xcf8(%rbp)
    ff93:	89 c8                	mov    %ecx,%eax
    ff95:	89 fa                	mov    %edi,%edx
    ff97:	88 95 1c f3 ff ff    	mov    %dl,-0xce4(%rbp)
    ff9d:	66 89 85 18 f3 ff ff 	mov    %ax,-0xce8(%rbp)
    ffa4:	64 48 8b 04 25 28 00 	mov    %fs:0x28,%rax
    ffab:	00 00 
    ffad:	48 89 45 d8          	mov    %rax,-0x28(%rbp)
    ffb1:	31 c0                	xor    %eax,%eax
    ffb3:	48 8d 05 7e 60 00 00 	lea    0x607e(%rip),%rax        # 16038 <g_7>
    ffba:	48 89 85 80 f3 ff ff 	mov    %rax,-0xc80(%rbp)
    ffc1:	48 8d 05 00 86 00 00 	lea    0x8600(%rip),%rax        # 185c8 <g_14>
    ffc8:	48 89 85 58 f3 ff ff 	mov    %rax,-0xca8(%rbp)
    ffcf:	48 8d 85 58 f3 ff ff 	lea    -0xca8(%rbp),%rax
    ffd6:	48 89 85 60 f4 ff ff 	mov    %rax,-0xba0(%rbp)
    ffdd:	48 8d 85 58 f3 ff ff 	lea    -0xca8(%rbp),%rax
    ffe4:	48 89 85 68 f4 ff ff 	mov    %rax,-0xb98(%rbp)
    ffeb:	48 8d 85 58 f3 ff ff 	lea    -0xca8(%rbp),%rax
    fff2:	48 89 85 70 f4 ff ff 	mov    %rax,-0xb90(%rbp)
    fff9:	48 8d 85 58 f3 ff ff 	lea    -0xca8(%rbp),%rax
   10000:	48 89 85 78 f4 ff ff 	mov    %rax,-0xb88(%rbp)
   10007:	48 c7 85 10 f5 ff ff 	movq   $0x0,-0xaf0(%rbp)
   1000e:	00 00 00 00 
   10012:	48 c7 85 18 f5 ff ff 	movq   $0x0,-0xae8(%rbp)
   10019:	00 00 00 00 
   1001d:	48 c7 85 20 f5 ff ff 	movq   $0x0,-0xae0(%rbp)
   10024:	00 00 00 00 
   10028:	48 c7 85 28 f5 ff ff 	movq   $0x0,-0xad8(%rbp)
   1002f:	00 00 00 00 
   10033:	48 c7 85 30 f5 ff ff 	movq   $0x0,-0xad0(%rbp)
   1003a:	00 00 00 00 
   1003e:	48 c7 85 38 f5 ff ff 	movq   $0x0,-0xac8(%rbp)
   10045:	00 00 00 00 
   10049:	48 c7 85 40 f5 ff ff 	movq   $0x0,-0xac0(%rbp)
   10050:	00 00 00 00 
   10054:	48 c7 85 48 f5 ff ff 	movq   $0x0,-0xab8(%rbp)
   1005b:	00 00 00 00 
   1005f:	48 8d 05 7a 60 00 00 	lea    0x607a(%rip),%rax        # 160e0 <g_127>
   10066:	48 89 85 a0 f5 ff ff 	mov    %rax,-0xa60(%rbp)
   1006d:	48 8d 05 6c 60 00 00 	lea    0x606c(%rip),%rax        # 160e0 <g_127>
   10074:	48 89 85 a8 f5 ff ff 	mov    %rax,-0xa58(%rbp)
   1007b:	48 8d 05 5e 60 00 00 	lea    0x605e(%rip),%rax        # 160e0 <g_127>
   10082:	48 89 85 b0 f5 ff ff 	mov    %rax,-0xa50(%rbp)
   10089:	48 8d 05 50 60 00 00 	lea    0x6050(%rip),%rax        # 160e0 <g_127>
   10090:	48 89 85 b8 f5 ff ff 	mov    %rax,-0xa48(%rbp)
   10097:	48 8d 05 42 60 00 00 	lea    0x6042(%rip),%rax        # 160e0 <g_127>
   1009e:	48 89 85 c0 f5 ff ff 	mov    %rax,-0xa40(%rbp)
   100a5:	48 8d 05 34 60 00 00 	lea    0x6034(%rip),%rax        # 160e0 <g_127>
   100ac:	48 89 85 c8 f5 ff ff 	mov    %rax,-0xa38(%rbp)
   100b3:	48 8d 05 26 60 00 00 	lea    0x6026(%rip),%rax        # 160e0 <g_127>
   100ba:	48 89 85 d0 f5 ff ff 	mov    %rax,-0xa30(%rbp)
   100c1:	48 8d 05 18 60 00 00 	lea    0x6018(%rip),%rax        # 160e0 <g_127>
   100c8:	48 89 85 d8 f5 ff ff 	mov    %rax,-0xa28(%rbp)
   100cf:	48 8d 05 0a 60 00 00 	lea    0x600a(%rip),%rax        # 160e0 <g_127>
   100d6:	48 89 85 e0 f5 ff ff 	mov    %rax,-0xa20(%rbp)
   100dd:	48 8d 05 fc 5f 00 00 	lea    0x5ffc(%rip),%rax        # 160e0 <g_127>
   100e4:	48 89 85 e8 f5 ff ff 	mov    %rax,-0xa18(%rbp)
   100eb:	48 8d 05 ee 5f 00 00 	lea    0x5fee(%rip),%rax        # 160e0 <g_127>
   100f2:	48 89 85 f0 f5 ff ff 	mov    %rax,-0xa10(%rbp)
   100f9:	48 8d 05 e0 5f 00 00 	lea    0x5fe0(%rip),%rax        # 160e0 <g_127>
   10100:	48 89 85 f8 f5 ff ff 	mov    %rax,-0xa08(%rbp)
   10107:	48 8d 05 d2 5f 00 00 	lea    0x5fd2(%rip),%rax        # 160e0 <g_127>
   1010e:	48 89 85 00 f6 ff ff 	mov    %rax,-0xa00(%rbp)
   10115:	48 8d 05 c4 5f 00 00 	lea    0x5fc4(%rip),%rax        # 160e0 <g_127>
   1011c:	48 89 85 08 f6 ff ff 	mov    %rax,-0x9f8(%rbp)
   10123:	48 8d 05 b6 5f 00 00 	lea    0x5fb6(%rip),%rax        # 160e0 <g_127>
   1012a:	48 89 85 10 f6 ff ff 	mov    %rax,-0x9f0(%rbp)
   10131:	48 8d 05 a8 5f 00 00 	lea    0x5fa8(%rip),%rax        # 160e0 <g_127>
   10138:	48 89 85 18 f6 ff ff 	mov    %rax,-0x9e8(%rbp)
   1013f:	48 8d 05 9a 5f 00 00 	lea    0x5f9a(%rip),%rax        # 160e0 <g_127>
   10146:	48 89 85 20 f6 ff ff 	mov    %rax,-0x9e0(%rbp)
   1014d:	48 8d 05 8c 5f 00 00 	lea    0x5f8c(%rip),%rax        # 160e0 <g_127>
   10154:	48 89 85 28 f6 ff ff 	mov    %rax,-0x9d8(%rbp)
   1015b:	48 8d 05 7e 5f 00 00 	lea    0x5f7e(%rip),%rax        # 160e0 <g_127>
   10162:	48 89 85 30 f6 ff ff 	mov    %rax,-0x9d0(%rbp)
   10169:	48 8d 05 70 5f 00 00 	lea    0x5f70(%rip),%rax        # 160e0 <g_127>
   10170:	48 89 85 38 f6 ff ff 	mov    %rax,-0x9c8(%rbp)
   10177:	48 8d 05 de 5f 00 00 	lea    0x5fde(%rip),%rax        # 1615c <g_234>
   1017e:	48 89 85 88 f3 ff ff 	mov    %rax,-0xc78(%rbp)
   10185:	66 c7 85 26 f3 ff ff 	movw   $0x0,-0xcda(%rbp)
   1018c:	00 00 
   1018e:	c7 85 3c f3 ff ff 96 	movl   $0x79f2b396,-0xcc4(%rbp)
   10195:	b3 f2 79 
   10198:	c7 85 40 f4 ff ff f7 	movl   $0xf7f7f7f7,-0xbc0(%rbp)
   1019f:	f7 f7 f7 
   101a2:	66 c7 85 44 f4 ff ff 	movw   $0xf7f7,-0xbbc(%rbp)
   101a9:	f7 f7 
   101ab:	c7 85 46 f4 ff ff f7 	movl   $0xf7f7f7f7,-0xbba(%rbp)
   101b2:	f7 f7 f7 
   101b5:	66 c7 85 4a f4 ff ff 	movw   $0xf7f7,-0xbb6(%rbp)
   101bc:	f7 f7 
   101be:	c7 85 4c f4 ff ff f7 	movl   $0xf7f7f7f7,-0xbb4(%rbp)
   101c5:	f7 f7 f7 
   101c8:	66 c7 85 50 f4 ff ff 	movw   $0xf7f7,-0xbb0(%rbp)
   101cf:	f7 f7 
   101d1:	c7 85 52 f4 ff ff f7 	movl   $0xf7f7f7f7,-0xbae(%rbp)
   101d8:	f7 f7 f7 
   101db:	66 c7 85 56 f4 ff ff 	movw   $0xf7f7,-0xbaa(%rbp)
   101e2:	f7 f7 
   101e4:	c7 85 2c f3 ff ff 00 	movl   $0x0,-0xcd4(%rbp)
   101eb:	00 00 00 
   101ee:	eb 46                	jmp    10236 <func_78+0x2c5>
   101f0:	c7 85 30 f3 ff ff 00 	movl   $0x0,-0xcd0(%rbp)
   101f7:	00 00 00 
   101fa:	eb 2a                	jmp    10226 <func_78+0x2b5>
   101fc:	8b 85 30 f3 ff ff    	mov    -0xcd0(%rbp),%eax
   10202:	48 63 d0             	movslq %eax,%rdx
   10205:	8b 85 2c f3 ff ff    	mov    -0xcd4(%rbp),%eax
   1020b:	48 98                	cltq   
   1020d:	48 01 d0             	add    %rdx,%rax
   10210:	48 8d 15 b2 5e 00 00 	lea    0x5eb2(%rip),%rdx        # 160c9 <g_77>
   10217:	48 89 94 c5 28 f4 ff 	mov    %rdx,-0xbd8(%rbp,%rax,8)
   1021e:	ff 
   1021f:	83 85 30 f3 ff ff 01 	addl   $0x1,-0xcd0(%rbp)
   10226:	83 bd 30 f3 ff ff 00 	cmpl   $0x0,-0xcd0(%rbp)
   1022d:	7e cd                	jle    101fc <func_78+0x28b>
   1022f:	83 85 2c f3 ff ff 01 	addl   $0x1,-0xcd4(%rbp)
   10236:	83 bd 2c f3 ff ff 00 	cmpl   $0x0,-0xcd4(%rbp)
   1023d:	7e b1                	jle    101f0 <func_78+0x27f>
   1023f:	48 8b 85 80 f3 ff ff 	mov    -0xc80(%rbp),%rax
   10246:	48 89 85 38 f5 ff ff 	mov    %rax,-0xac8(%rbp)
   1024d:	0f b6 95 1c f3 ff ff 	movzbl -0xce4(%rbp),%edx
   10254:	8b 05 de 5d 00 00    	mov    0x5dde(%rip),%eax        # 16038 <g_7>
   1025a:	83 f8 75             	cmp    $0x75,%eax
   1025d:	0f 9f c0             	setg   %al
   10260:	0f b6 c8             	movzbl %al,%ecx
   10263:	48 8b 05 66 5e 00 00 	mov    0x5e66(%rip),%rax        # 160d0 <g_91>
   1026a:	48 39 c1             	cmp    %rax,%rcx
   1026d:	0f 93 c0             	setae  %al
   10270:	0f b6 c0             	movzbl %al,%eax
   10273:	39 c2                	cmp    %eax,%edx
   10275:	48 8b 85 58 f3 ff ff 	mov    -0xca8(%rbp),%rax
   1027c:	8b 00                	mov    (%rax),%eax
   1027e:	48 63 d8             	movslq %eax,%rbx
   10281:	44 0f b6 a5 1c f3 ff 	movzbl -0xce4(%rbp),%r12d
   10288:	ff 
   10289:	8b 05 a9 5d 00 00    	mov    0x5da9(%rip),%eax        # 16038 <g_7>
   1028f:	44 0f b6 e8          	movzbl %al,%r13d
   10293:	8b 05 2f 83 00 00    	mov    0x832f(%rip),%eax        # 185c8 <g_14>
   10299:	0f b7 d0             	movzwl %ax,%edx
   1029c:	0f b6 85 1c f3 ff ff 	movzbl -0xce4(%rbp),%eax
   102a3:	89 d6                	mov    %edx,%esi
   102a5:	89 c7                	mov    %eax,%edi
   102a7:	e8 e2 6a ff ff       	callq  6d8e <safe_div_func_uint16_t_u_u>
   102ac:	0f b6 05 16 5e 00 00 	movzbl 0x5e16(%rip),%eax        # 160c9 <g_77>
   102b3:	3c 3a                	cmp    $0x3a,%al
   102b5:	0f 97 c0             	seta   %al
   102b8:	0f b6 c0             	movzbl %al,%eax
   102bb:	89 c6                	mov    %eax,%esi
   102bd:	bf 2b e7 65 dd       	mov    $0xdd65e72b,%edi
   102c2:	e8 ef 62 ff ff       	callq  65b6 <safe_add_func_int32_t_s_s>
   102c7:	0f b6 c0             	movzbl %al,%eax
   102ca:	44 89 ee             	mov    %r13d,%esi
   102cd:	89 c7                	mov    %eax,%edi
   102cf:	e8 86 68 ff ff       	callq  6b5a <safe_add_func_uint8_t_u_u>
   102d4:	0f b6 c0             	movzbl %al,%eax
   102d7:	4c 89 e6             	mov    %r12,%rsi
   102da:	48 89 c7             	mov    %rax,%rdi
   102dd:	e8 d2 66 ff ff       	callq  69b4 <safe_mod_func_int64_t_s_s>
   102e2:	48 85 c0             	test   %rax,%rax
   102e5:	0f 95 c0             	setne  %al
   102e8:	0f b6 c0             	movzbl %al,%eax
   102eb:	48 89 de             	mov    %rbx,%rsi
   102ee:	48 89 c7             	mov    %rax,%rdi
   102f1:	e8 55 6d ff ff       	callq  704b <safe_sub_func_uint64_t_u_u>
   102f6:	b8 00 00 00 00       	mov    $0x0,%eax
   102fb:	48 63 d0             	movslq %eax,%rdx
   102fe:	48 8b 05 db 5d 00 00 	mov    0x5ddb(%rip),%rax        # 160e0 <g_127>
   10305:	48 21 d0             	and    %rdx,%rax
   10308:	48 89 05 d1 5d 00 00 	mov    %rax,0x5dd1(%rip)        # 160e0 <g_127>
   1030f:	c6 85 1c f3 ff ff 13 	movb   $0x13,-0xce4(%rbp)
   10316:	e9 11 0a 00 00       	jmpq   10d2c <func_78+0xdbb>
   1031b:	c7 85 30 f4 ff ff d0 	movl   $0x49c3b7d0,-0xbd0(%rbp)
   10322:	b7 c3 49 
   10325:	c7 85 34 f4 ff ff d0 	movl   $0x49c3b7d0,-0xbcc(%rbp)
   1032c:	b7 c3 49 
   1032f:	c7 85 38 f4 ff ff d0 	movl   $0x49c3b7d0,-0xbc8(%rbp)
   10336:	b7 c3 49 
   10339:	c7 85 3c f4 ff ff d0 	movl   $0x49c3b7d0,-0xbc4(%rbp)
   10340:	b7 c3 49 
   10343:	c7 85 34 f3 ff ff 00 	movl   $0x0,-0xccc(%rbp)
   1034a:	00 00 00 
   1034d:	48 8d 05 86 5d 00 00 	lea    0x5d86(%rip),%rax        # 160da <g_106>
   10354:	48 89 85 90 f3 ff ff 	mov    %rax,-0xc70(%rbp)
   1035b:	48 8d 85 30 f4 ff ff 	lea    -0xbd0(%rbp),%rax
   10362:	48 83 c0 08          	add    $0x8,%rax
   10366:	48 89 85 98 f3 ff ff 	mov    %rax,-0xc68(%rbp)
   1036d:	48 b8 9d 0b 89 a8 25 	movabs $0xeb0a2725a8890b9d,%rax
   10374:	27 0a eb 
   10377:	48 89 85 78 f3 ff ff 	mov    %rax,-0xc88(%rbp)
   1037e:	48 8d 05 53 5d 00 00 	lea    0x5d53(%rip),%rax        # 160d8 <g_102>
   10385:	48 89 85 60 f3 ff ff 	mov    %rax,-0xca0(%rbp)
   1038c:	48 8d 85 60 f3 ff ff 	lea    -0xca0(%rbp),%rax
   10393:	48 89 85 a0 f3 ff ff 	mov    %rax,-0xc60(%rbp)
   1039a:	48 c7 85 a8 f3 ff ff 	movq   $0x0,-0xc58(%rbp)
   103a1:	00 00 00 00 
   103a5:	48 8d 85 50 f5 ff ff 	lea    -0xab0(%rbp),%rax
   103ac:	48 83 c0 38          	add    $0x38,%rax
   103b0:	48 89 85 b0 f3 ff ff 	mov    %rax,-0xc50(%rbp)
   103b7:	48 8d 05 32 5d 00 00 	lea    0x5d32(%rip),%rax        # 160f0 <g_153>
   103be:	48 89 85 b8 f3 ff ff 	mov    %rax,-0xc48(%rbp)
   103c5:	48 8d 85 60 f4 ff ff 	lea    -0xba0(%rbp),%rax
   103cc:	48 83 c0 10          	add    $0x10,%rax
   103d0:	48 89 85 c0 f3 ff ff 	mov    %rax,-0xc40(%rbp)
   103d7:	c7 85 38 f3 ff ff 00 	movl   $0x0,-0xcc8(%rbp)
   103de:	00 00 00 
   103e1:	eb 1e                	jmp    10401 <func_78+0x490>
   103e3:	8b 85 38 f3 ff ff    	mov    -0xcc8(%rbp),%eax
   103e9:	48 98                	cltq   
   103eb:	48 8d 15 de 81 00 00 	lea    0x81de(%rip),%rdx        # 185d0 <g_243>
   103f2:	48 89 94 c5 50 f5 ff 	mov    %rdx,-0xab0(%rbp,%rax,8)
   103f9:	ff 
   103fa:	83 85 38 f3 ff ff 01 	addl   $0x1,-0xcc8(%rbp)
   10401:	83 bd 38 f3 ff ff 08 	cmpl   $0x8,-0xcc8(%rbp)
   10408:	7e d9                	jle    103e3 <func_78+0x472>
   1040a:	48 c7 05 bb 5c 00 00 	movq   $0xffffffffffffffe9,0x5cbb(%rip)        # 160d0 <g_91>
   10411:	e9 ff ff ff 
   10415:	e9 ce 08 00 00       	jmpq   10ce8 <func_78+0xd77>
   1041a:	66 c7 85 28 f3 ff ff 	movw   $0xaef5,-0xcd8(%rbp)
   10421:	f5 ae 
   10423:	48 8d 05 0c 5d 00 00 	lea    0x5d0c(%rip),%rax        # 16136 <g_163+0x36>
   1042a:	48 89 85 80 f4 ff ff 	mov    %rax,-0xb80(%rbp)
   10431:	48 8d 05 fe 5c 00 00 	lea    0x5cfe(%rip),%rax        # 16136 <g_163+0x36>
   10438:	48 89 85 88 f4 ff ff 	mov    %rax,-0xb78(%rbp)
   1043f:	48 8d 05 f0 5c 00 00 	lea    0x5cf0(%rip),%rax        # 16136 <g_163+0x36>
   10446:	48 89 85 90 f4 ff ff 	mov    %rax,-0xb70(%rbp)
   1044d:	48 8d 05 e2 5c 00 00 	lea    0x5ce2(%rip),%rax        # 16136 <g_163+0x36>
   10454:	48 89 85 98 f4 ff ff 	mov    %rax,-0xb68(%rbp)
   1045b:	48 8d 05 d4 5c 00 00 	lea    0x5cd4(%rip),%rax        # 16136 <g_163+0x36>
   10462:	48 89 85 a0 f4 ff ff 	mov    %rax,-0xb60(%rbp)
   10469:	48 8d 05 c6 5c 00 00 	lea    0x5cc6(%rip),%rax        # 16136 <g_163+0x36>
   10470:	48 89 85 a8 f4 ff ff 	mov    %rax,-0xb58(%rbp)
   10477:	c6 85 25 f3 ff ff 01 	movb   $0x1,-0xcdb(%rbp)
   1047e:	c7 85 40 f3 ff ff f8 	movl   $0xfffffff8,-0xcc0(%rbp)
   10485:	ff ff ff 
   10488:	48 8d 85 40 f6 ff ff 	lea    -0x9c0(%rbp),%rax
   1048f:	48 8d 15 ea 27 00 00 	lea    0x27ea(%rip),%rdx        # 12c80 <g_1119+0xc2c>
   10496:	b9 7e 00 00 00       	mov    $0x7e,%ecx
   1049b:	48 89 c7             	mov    %rax,%rdi
   1049e:	48 89 d6             	mov    %rdx,%rsi
   104a1:	f3 48 a5             	rep movsq %ds:(%rsi),%es:(%rdi)
   104a4:	48 8d 05 41 5c 00 00 	lea    0x5c41(%rip),%rax        # 160ec <g_146>
   104ab:	48 89 85 c8 f3 ff ff 	mov    %rax,-0xc38(%rbp)
   104b2:	48 8d 05 a3 5c 00 00 	lea    0x5ca3(%rip),%rax        # 1615c <g_234>
   104b9:	48 89 85 d0 f3 ff ff 	mov    %rax,-0xc30(%rbp)
   104c0:	c6 05 02 5c 00 00 0a 	movb   $0xa,0x5c02(%rip)        # 160c9 <g_77>
   104c7:	e9 bc 06 00 00       	jmpq   10b88 <func_78+0xc17>
   104cc:	48 8d 05 19 5c 00 00 	lea    0x5c19(%rip),%rax        # 160ec <g_146>
   104d3:	48 89 85 d8 f3 ff ff 	mov    %rax,-0xc28(%rbp)
   104da:	48 8d 05 0f 5c 00 00 	lea    0x5c0f(%rip),%rax        # 160f0 <g_153>
   104e1:	48 89 85 e0 f3 ff ff 	mov    %rax,-0xc20(%rbp)
   104e8:	48 c7 85 b0 f4 ff ff 	movq   $0x0,-0xb50(%rbp)
   104ef:	00 00 00 00 
   104f3:	48 c7 85 b8 f4 ff ff 	movq   $0x0,-0xb48(%rbp)
   104fa:	00 00 00 00 
   104fe:	48 c7 85 c0 f4 ff ff 	movq   $0x0,-0xb40(%rbp)
   10505:	00 00 00 00 
   10509:	48 c7 85 c8 f4 ff ff 	movq   $0x0,-0xb38(%rbp)
   10510:	00 00 00 00 
   10514:	48 c7 85 d0 f4 ff ff 	movq   $0x0,-0xb30(%rbp)
   1051b:	00 00 00 00 
   1051f:	48 c7 85 d8 f4 ff ff 	movq   $0x0,-0xb28(%rbp)
   10526:	00 00 00 00 
   1052a:	48 8d 85 b0 f4 ff ff 	lea    -0xb50(%rbp),%rax
   10531:	48 83 c0 10          	add    $0x10,%rax
   10535:	48 89 85 e8 f3 ff ff 	mov    %rax,-0xc18(%rbp)
   1053c:	48 8d 05 95 5b 00 00 	lea    0x5b95(%rip),%rax        # 160d8 <g_102>
   10543:	48 89 85 68 f3 ff ff 	mov    %rax,-0xc98(%rbp)
   1054a:	48 c7 85 f0 f3 ff ff 	movq   $0x0,-0xc10(%rbp)
   10551:	00 00 00 00 
   10555:	48 8d 05 c6 5b 00 00 	lea    0x5bc6(%rip),%rax        # 16122 <g_163+0x22>
   1055c:	48 89 85 70 f3 ff ff 	mov    %rax,-0xc90(%rbp)
   10563:	c7 85 44 f3 ff ff d7 	movl   $0x982fd6d7,-0xcbc(%rbp)
   1056a:	d6 2f 98 
   1056d:	66 c7 85 2a f3 ff ff 	movw   $0x4cd9,-0xcd6(%rbp)
   10574:	d9 4c 
   10576:	c7 85 48 f3 ff ff 00 	movl   $0x0,-0xcb8(%rbp)
   1057d:	00 00 00 
   10580:	c6 85 24 f3 ff ff 0b 	movb   $0xb,-0xcdc(%rbp)
   10587:	48 8d 05 3a 80 00 00 	lea    0x803a(%rip),%rax        # 185c8 <g_14>
   1058e:	48 89 05 4b 77 00 00 	mov    %rax,0x774b(%rip)        # 17ce0 <g_134>
   10595:	48 8b 85 10 f3 ff ff 	mov    -0xcf0(%rbp),%rax
   1059c:	0f b6 00             	movzbl (%rax),%eax
   1059f:	0f b6 d8             	movzbl %al,%ebx
   105a2:	44 0f bf a5 28 f3 ff 	movswl -0xcd8(%rbp),%r12d
   105a9:	ff 
   105aa:	8b 85 34 f4 ff ff    	mov    -0xbcc(%rbp),%eax
   105b0:	89 c1                	mov    %eax,%ecx
   105b2:	48 8b 85 10 f3 ff ff 	mov    -0xcf0(%rbp),%rax
   105b9:	0f b6 00             	movzbl (%rax),%eax
   105bc:	0f b6 d0             	movzbl %al,%edx
   105bf:	8b 05 03 80 00 00    	mov    0x8003(%rip),%eax        # 185c8 <g_14>
   105c5:	39 c2                	cmp    %eax,%edx
   105c7:	0f 95 c0             	setne  %al
   105ca:	0f b6 d0             	movzbl %al,%edx
   105cd:	48 8b 85 d8 f3 ff ff 	mov    -0xc28(%rbp),%rax
   105d4:	89 10                	mov    %edx,(%rax)
   105d6:	48 8b 85 d8 f3 ff ff 	mov    -0xc28(%rbp),%rax
   105dd:	8b 10                	mov    (%rax),%edx
   105df:	0f bf 85 28 f3 ff ff 	movswl -0xcd8(%rbp),%eax
   105e6:	39 c2                	cmp    %eax,%edx
   105e8:	0f 96 c0             	setbe  %al
   105eb:	0f b6 c0             	movzbl %al,%eax
   105ee:	89 ce                	mov    %ecx,%esi
   105f0:	89 c7                	mov    %eax,%edi
   105f2:	e8 d9 68 ff ff       	callq  6ed0 <safe_sub_func_uint32_t_u_u>
   105f7:	41 89 c5             	mov    %eax,%r13d
   105fa:	48 8b 85 e8 f3 ff ff 	mov    -0xc18(%rbp),%rax
   10601:	48 c7 00 00 00 00 00 	movq   $0x0,(%rax)
   10608:	48 8b 85 e8 f3 ff ff 	mov    -0xc18(%rbp),%rax
   1060f:	48 8b 10             	mov    (%rax),%rdx
   10612:	48 8b 85 08 f3 ff ff 	mov    -0xcf8(%rbp),%rax
   10619:	48 39 c2             	cmp    %rax,%rdx
   1061c:	0f 95 c0             	setne  %al
   1061f:	0f b6 c0             	movzbl %al,%eax
   10622:	89 05 cc 5a 00 00    	mov    %eax,0x5acc(%rip)        # 160f4 <g_159>
   10628:	8b 15 c6 5a 00 00    	mov    0x5ac6(%rip),%edx        # 160f4 <g_159>
   1062e:	0f bf 85 28 f3 ff ff 	movswl -0xcd8(%rbp),%eax
   10635:	09 c2                	or     %eax,%edx
   10637:	48 8b 85 68 f3 ff ff 	mov    -0xc98(%rbp),%rax
   1063e:	0f b7 00             	movzwl (%rax),%eax
   10641:	89 c1                	mov    %eax,%ecx
   10643:	89 d0                	mov    %edx,%eax
   10645:	31 c1                	xor    %eax,%ecx
   10647:	89 ca                	mov    %ecx,%edx
   10649:	48 8b 85 68 f3 ff ff 	mov    -0xc98(%rbp),%rax
   10650:	66 89 10             	mov    %dx,(%rax)
   10653:	0f b7 00             	movzwl (%rax),%eax
   10656:	66 85 c0             	test   %ax,%ax
   10659:	75 0a                	jne    10665 <func_78+0x6f4>
   1065b:	8b 05 67 7f 00 00    	mov    0x7f67(%rip),%eax        # 185c8 <g_14>
   10661:	85 c0                	test   %eax,%eax
   10663:	74 07                	je     1066c <func_78+0x6fb>
   10665:	b8 01 00 00 00       	mov    $0x1,%eax
   1066a:	eb 05                	jmp    10671 <func_78+0x700>
   1066c:	b8 00 00 00 00       	mov    $0x0,%eax
   10671:	0f be d0             	movsbl %al,%edx
   10674:	48 8b 85 e0 f3 ff ff 	mov    -0xc20(%rbp),%rax
   1067b:	0f b6 00             	movzbl (%rax),%eax
   1067e:	8d 70 01             	lea    0x1(%rax),%esi
   10681:	48 8b 8d e0 f3 ff ff 	mov    -0xc20(%rbp),%rcx
   10688:	40 88 31             	mov    %sil,(%rcx)
   1068b:	89 c1                	mov    %eax,%ecx
   1068d:	8b 85 34 f4 ff ff    	mov    -0xbcc(%rbp),%eax
   10693:	21 c8                	and    %ecx,%eax
   10695:	0f be c0             	movsbl %al,%eax
   10698:	89 d6                	mov    %edx,%esi
   1069a:	89 c7                	mov    %eax,%edi
   1069c:	e8 33 5b ff ff       	callq  61d4 <safe_add_func_int8_t_s_s>
   106a1:	0f be c0             	movsbl %al,%eax
   106a4:	41 39 c5             	cmp    %eax,%r13d
   106a7:	0f 95 c0             	setne  %al
   106aa:	0f b6 c0             	movzbl %al,%eax
   106ad:	44 89 e6             	mov    %r12d,%esi
   106b0:	89 c7                	mov    %eax,%edi
   106b2:	e8 91 67 ff ff       	callq  6e48 <safe_rshift_func_uint16_t_u_s>
   106b7:	0f b7 c0             	movzwl %ax,%eax
   106ba:	48 c7 c6 f9 ff ff ff 	mov    $0xfffffffffffffff9,%rsi
   106c1:	48 89 c7             	mov    %rax,%rdi
   106c4:	e8 78 61 ff ff       	callq  6841 <safe_add_func_int64_t_s_s>
   106c9:	48 8b 95 70 f3 ff ff 	mov    -0xc90(%rbp),%rdx
   106d0:	0f b7 12             	movzwl (%rdx),%edx
   106d3:	21 c2                	and    %eax,%edx
   106d5:	48 8b 85 70 f3 ff ff 	mov    -0xc90(%rbp),%rax
   106dc:	66 89 10             	mov    %dx,(%rax)
   106df:	0f b7 00             	movzwl (%rax),%eax
   106e2:	0f bf 8d 18 f3 ff ff 	movswl -0xce8(%rbp),%ecx
   106e9:	0f b6 95 1c f3 ff ff 	movzbl -0xce4(%rbp),%edx
   106f0:	31 ca                	xor    %ecx,%edx
   106f2:	0f b7 c0             	movzwl %ax,%eax
   106f5:	31 85 34 f3 ff ff    	xor    %eax,-0xccc(%rbp)
   106fb:	8b 85 34 f3 ff ff    	mov    -0xccc(%rbp),%eax
   10701:	3d ff ff 00 00       	cmp    $0xffff,%eax
   10706:	0f 97 c0             	seta   %al
   10709:	0f b6 c0             	movzbl %al,%eax
   1070c:	39 c2                	cmp    %eax,%edx
   1070e:	0f 9d c0             	setge  %al
   10711:	0f b6 c0             	movzbl %al,%eax
   10714:	89 de                	mov    %ebx,%esi
   10716:	89 c7                	mov    %eax,%edi
   10718:	e8 76 64 ff ff       	callq  6b93 <safe_mul_func_uint8_t_u_u>
   1071d:	0f b6 c0             	movzbl %al,%eax
   10720:	33 85 44 f3 ff ff    	xor    -0xcbc(%rbp),%eax
   10726:	39 85 44 f3 ff ff    	cmp    %eax,-0xcbc(%rbp)
   1072c:	0f 8e e3 03 00 00    	jle    10b15 <func_78+0xba4>
   10732:	48 8d 05 a1 59 00 00 	lea    0x59a1(%rip),%rax        # 160da <g_106>
   10739:	48 89 85 f8 f3 ff ff 	mov    %rax,-0xc08(%rbp)
   10740:	48 8d 85 70 f3 ff ff 	lea    -0xc90(%rbp),%rax
   10747:	48 89 85 00 f4 ff ff 	mov    %rax,-0xc00(%rbp)
   1074e:	48 8d 85 68 f3 ff ff 	lea    -0xc98(%rbp),%rax
   10755:	48 89 85 08 f4 ff ff 	mov    %rax,-0xbf8(%rbp)
   1075c:	48 8d 85 30 fa ff ff 	lea    -0x5d0(%rbp),%rax
   10763:	48 8d 15 d6 6f 00 00 	lea    0x6fd6(%rip),%rdx        # 17740 <g_2027+0x1524>
   1076a:	b9 b4 00 00 00       	mov    $0xb4,%ecx
   1076f:	48 89 c7             	mov    %rax,%rdi
   10772:	48 89 d6             	mov    %rdx,%rsi
   10775:	f3 48 a5             	rep movsq %ds:(%rsi),%es:(%rdi)
   10778:	c7 85 4c f3 ff ff 1b 	movl   $0x40340a1b,-0xcb4(%rbp)
   1077f:	0a 34 40 
   10782:	48 8d 05 6b 59 00 00 	lea    0x596b(%rip),%rax        # 160f4 <g_159>
   10789:	48 89 85 10 f4 ff ff 	mov    %rax,-0xbf0(%rbp)
   10790:	48 8d 05 b9 59 00 00 	lea    0x59b9(%rip),%rax        # 16150 <g_185>
   10797:	48 89 85 18 f4 ff ff 	mov    %rax,-0xbe8(%rbp)
   1079e:	8b 05 24 7e 00 00    	mov    0x7e24(%rip),%eax        # 185c8 <g_14>
   107a4:	89 c3                	mov    %eax,%ebx
   107a6:	48 8b 95 80 f4 ff ff 	mov    -0xb80(%rbp),%rdx
   107ad:	48 8b 85 00 f4 ff ff 	mov    -0xc00(%rbp),%rax
   107b4:	48 89 10             	mov    %rdx,(%rax)
   107b7:	48 8b 85 00 f4 ff ff 	mov    -0xc00(%rbp),%rax
   107be:	48 8b 08             	mov    (%rax),%rcx
   107c1:	48 8b 85 08 f4 ff ff 	mov    -0xbf8(%rbp),%rax
   107c8:	48 8b 95 f0 f3 ff ff 	mov    -0xc10(%rbp),%rdx
   107cf:	48 89 10             	mov    %rdx,(%rax)
   107d2:	48 8b 85 08 f4 ff ff 	mov    -0xbf8(%rbp),%rax
   107d9:	48 8b 00             	mov    (%rax),%rax
   107dc:	48 39 c1             	cmp    %rax,%rcx
   107df:	0f 95 c0             	setne  %al
   107e2:	0f b6 d0             	movzbl %al,%edx
   107e5:	0f b7 05 48 59 00 00 	movzwl 0x5948(%rip),%eax        # 16134 <g_163+0x34>
   107ec:	89 c1                	mov    %eax,%ecx
   107ee:	48 8b 85 f8 f3 ff ff 	mov    -0xc08(%rbp),%rax
   107f5:	66 89 08             	mov    %cx,(%rax)
   107f8:	48 8b 85 f8 f3 ff ff 	mov    -0xc08(%rbp),%rax
   107ff:	0f b7 00             	movzwl (%rax),%eax
   10802:	98                   	cwtl   
   10803:	89 d6                	mov    %edx,%esi
   10805:	89 c7                	mov    %eax,%edi
   10807:	e8 a7 5b ff ff       	callq  63b3 <safe_add_func_int16_t_s_s>
   1080c:	89 de                	mov    %ebx,%esi
   1080e:	bf 00 00 00 00       	mov    $0x0,%edi
   10813:	e8 54 5b ff ff       	callq  636c <safe_rshift_func_int8_t_s_u>
   10818:	0f be c0             	movsbl %al,%eax
   1081b:	89 c6                	mov    %eax,%esi
   1081d:	bf 02 00 00 00       	mov    $0x2,%edi
   10822:	e8 45 5b ff ff       	callq  636c <safe_rshift_func_int8_t_s_u>
   10827:	0f be c0             	movsbl %al,%eax
   1082a:	8b 95 34 f3 ff ff    	mov    -0xccc(%rbp),%edx
   10830:	89 d6                	mov    %edx,%esi
   10832:	89 c7                	mov    %eax,%edi
   10834:	e8 7d 5d ff ff       	callq  65b6 <safe_add_func_int32_t_s_s>
   10839:	83 bd 4c f3 ff ff 00 	cmpl   $0x0,-0xcb4(%rbp)
   10840:	74 1a                	je     1085c <func_78+0x8eb>
   10842:	66 83 bd 18 f3 ff ff 	cmpw   $0x0,-0xce8(%rbp)
   10849:	00 
   1084a:	0f 85 49 03 00 00    	jne    10b99 <func_78+0xc28>
   10850:	48 8b 85 28 f4 ff ff 	mov    -0xbd8(%rbp),%rax
   10857:	e9 e4 04 00 00       	jmpq   10d40 <func_78+0xdcf>
   1085c:	48 c7 85 e0 f4 ff ff 	movq   $0x0,-0xb20(%rbp)
   10863:	00 00 00 00 
   10867:	48 c7 85 e8 f4 ff ff 	movq   $0x0,-0xb18(%rbp)
   1086e:	00 00 00 00 
   10872:	48 8d 85 b0 f4 ff ff 	lea    -0xb50(%rbp),%rax
   10879:	48 83 c0 08          	add    $0x8,%rax
   1087d:	48 89 85 f0 f4 ff ff 	mov    %rax,-0xb10(%rbp)
   10884:	48 c7 85 f8 f4 ff ff 	movq   $0x0,-0xb08(%rbp)
   1088b:	00 00 00 00 
   1088f:	48 c7 85 00 f5 ff ff 	movq   $0x0,-0xb00(%rbp)
   10896:	00 00 00 00 
   1089a:	48 8d 85 b0 f4 ff ff 	lea    -0xb50(%rbp),%rax
   108a1:	48 83 c0 08          	add    $0x8,%rax
   108a5:	48 89 85 08 f5 ff ff 	mov    %rax,-0xaf8(%rbp)
   108ac:	48 8d 05 9d 58 00 00 	lea    0x589d(%rip),%rax        # 16150 <g_185>
   108b3:	48 89 85 20 f4 ff ff 	mov    %rax,-0xbe0(%rbp)
   108ba:	c7 85 50 f3 ff ff 00 	movl   $0x0,-0xcb0(%rbp)
   108c1:	00 00 00 
   108c4:	80 bd 1c f3 ff ff 00 	cmpb   $0x0,-0xce4(%rbp)
   108cb:	0f 85 cb 02 00 00    	jne    10b9c <func_78+0xc2b>
   108d1:	48 8b 85 a0 f5 ff ff 	mov    -0xa60(%rbp),%rax
   108d8:	48 8d 15 01 58 00 00 	lea    0x5801(%rip),%rdx        # 160e0 <g_127>
   108df:	48 39 d0             	cmp    %rdx,%rax
   108e2:	74 0b                	je     108ef <func_78+0x97e>
   108e4:	0f b6 05 05 58 00 00 	movzbl 0x5805(%rip),%eax        # 160f0 <g_153>
   108eb:	84 c0                	test   %al,%al
   108ed:	74 07                	je     108f6 <func_78+0x985>
   108ef:	b8 01 00 00 00       	mov    $0x1,%eax
   108f4:	eb 05                	jmp    108fb <func_78+0x98a>
   108f6:	b8 00 00 00 00       	mov    $0x0,%eax
   108fb:	0f bf d0             	movswl %ax,%edx
   108fe:	48 8b 85 20 f4 ff ff 	mov    -0xbe0(%rbp),%rax
   10905:	48 8b 08             	mov    (%rax),%rcx
   10908:	48 8b b5 00 f5 ff ff 	mov    -0xb00(%rbp),%rsi
   1090f:	48 8d 85 08 f3 ff ff 	lea    -0xcf8(%rbp),%rax
   10916:	48 39 c6             	cmp    %rax,%rsi
   10919:	0f 95 c0             	setne  %al
   1091c:	0f b6 c0             	movzbl %al,%eax
   1091f:	48 31 c1             	xor    %rax,%rcx
   10922:	48 8b 85 20 f4 ff ff 	mov    -0xbe0(%rbp),%rax
   10929:	48 89 08             	mov    %rcx,(%rax)
   1092c:	48 8b 85 20 f4 ff ff 	mov    -0xbe0(%rbp),%rax
   10933:	48 8b 00             	mov    (%rax),%rax
   10936:	48 83 f8 ff          	cmp    $0xffffffffffffffff,%rax
   1093a:	0f 94 c0             	sete   %al
   1093d:	0f b6 c0             	movzbl %al,%eax
   10940:	66 0b 85 18 f3 ff ff 	or     -0xce8(%rbp),%ax
   10947:	98                   	cwtl   
   10948:	89 d6                	mov    %edx,%esi
   1094a:	89 c7                	mov    %eax,%edi
   1094c:	e8 c5 5a ff ff       	callq  6416 <safe_mod_func_int16_t_s_s>
   10951:	8b 85 50 f3 ff ff    	mov    -0xcb0(%rbp),%eax
   10957:	89 85 34 f4 ff ff    	mov    %eax,-0xbcc(%rbp)
   1095d:	0f bf 9d 28 f3 ff ff 	movswl -0xcd8(%rbp),%ebx
   10964:	44 0f b6 a5 1c f3 ff 	movzbl -0xce4(%rbp),%r12d
   1096b:	ff 
   1096c:	0f b7 05 67 57 00 00 	movzwl 0x5767(%rip),%eax        # 160da <g_106>
   10973:	0f b7 c0             	movzwl %ax,%eax
   10976:	89 c6                	mov    %eax,%esi
   10978:	bf ff ff 00 00       	mov    $0xffff,%edi
   1097d:	e8 0c 64 ff ff       	callq  6d8e <safe_div_func_uint16_t_u_u>
   10982:	0f b7 c0             	movzwl %ax,%eax
   10985:	89 85 50 f3 ff ff    	mov    %eax,-0xcb0(%rbp)
   1098b:	83 bd 50 f3 ff ff 00 	cmpl   $0x0,-0xcb0(%rbp)
   10992:	74 11                	je     109a5 <func_78+0xa34>
   10994:	66 83 bd 2a f3 ff ff 	cmpw   $0x0,-0xcd6(%rbp)
   1099b:	00 
   1099c:	74 07                	je     109a5 <func_78+0xa34>
   1099e:	b8 01 00 00 00       	mov    $0x1,%eax
   109a3:	eb 05                	jmp    109aa <func_78+0xa39>
   109a5:	b8 00 00 00 00       	mov    $0x0,%eax
   109aa:	98                   	cwtl   
   109ab:	44 89 e6             	mov    %r12d,%esi
   109ae:	89 c7                	mov    %eax,%edi
   109b0:	e8 2c 5b ff ff       	callq  64e1 <safe_lshift_func_int16_t_s_u>
   109b5:	0f b7 15 1e 57 00 00 	movzwl 0x571e(%rip),%edx        # 160da <g_106>
   109bc:	66 39 d0             	cmp    %dx,%ax
   109bf:	0f 9f c0             	setg   %al
   109c2:	0f b6 c0             	movzbl %al,%eax
   109c5:	89 c6                	mov    %eax,%esi
   109c7:	bf 01 00 00 00       	mov    $0x1,%edi
   109cc:	e8 03 58 ff ff       	callq  61d4 <safe_add_func_int8_t_s_s>
   109d1:	48 8b 05 08 57 00 00 	mov    0x5708(%rip),%rax        # 160e0 <g_127>
   109d8:	0f b6 c0             	movzbl %al,%eax
   109db:	be 02 00 00 00       	mov    $0x2,%esi
   109e0:	89 c7                	mov    %eax,%edi
   109e2:	e8 65 62 ff ff       	callq  6c4c <safe_lshift_func_uint8_t_u_u>
   109e7:	0f b6 c0             	movzbl %al,%eax
   109ea:	89 c7                	mov    %eax,%edi
   109ec:	e8 a5 5b ff ff       	callq  6596 <safe_unary_minus_func_int32_t_s>
   109f1:	0f b6 c0             	movzbl %al,%eax
   109f4:	be 04 00 00 00       	mov    $0x4,%esi
   109f9:	89 c7                	mov    %eax,%edi
   109fb:	e8 05 62 ff ff       	callq  6c05 <safe_lshift_func_uint8_t_u_s>
   10a00:	0f b6 d0             	movzbl %al,%edx
   10a03:	8b 85 4c f3 ff ff    	mov    -0xcb4(%rbp),%eax
   10a09:	0f b7 c0             	movzwl %ax,%eax
   10a0c:	89 d6                	mov    %edx,%esi
   10a0e:	89 c7                	mov    %eax,%edi
   10a10:	e8 47 63 ff ff       	callq  6d5c <safe_mod_func_uint16_t_u_u>
   10a15:	66 85 c0             	test   %ax,%ax
   10a18:	75 0a                	jne    10a24 <func_78+0xab3>
   10a1a:	66 83 bd 18 f3 ff ff 	cmpw   $0x0,-0xce8(%rbp)
   10a21:	00 
   10a22:	74 07                	je     10a2b <func_78+0xaba>
   10a24:	b8 01 00 00 00       	mov    $0x1,%eax
   10a29:	eb 05                	jmp    10a30 <func_78+0xabf>
   10a2b:	b8 00 00 00 00       	mov    $0x0,%eax
   10a30:	0f be c0             	movsbl %al,%eax
   10a33:	89 de                	mov    %ebx,%esi
   10a35:	89 c7                	mov    %eax,%edi
   10a37:	e8 65 58 ff ff       	callq  62a1 <safe_lshift_func_int8_t_s_s>
   10a3c:	0f be c0             	movsbl %al,%eax
   10a3f:	89 85 44 f3 ff ff    	mov    %eax,-0xcbc(%rbp)
   10a45:	0f b6 05 0c 57 00 00 	movzbl 0x570c(%rip),%eax        # 16158 <g_205>
   10a4c:	0f b6 d0             	movzbl %al,%edx
   10a4f:	48 8b 85 10 f4 ff ff 	mov    -0xbf0(%rbp),%rax
   10a56:	89 10                	mov    %edx,(%rax)
   10a58:	48 8b 85 18 f4 ff ff 	mov    -0xbe8(%rbp),%rax
   10a5f:	48 8b 10             	mov    (%rax),%rdx
   10a62:	0f b6 05 ef 56 00 00 	movzbl 0x56ef(%rip),%eax        # 16158 <g_205>
   10a69:	0f b6 c0             	movzbl %al,%eax
   10a6c:	48 31 c2             	xor    %rax,%rdx
   10a6f:	48 8b 85 18 f4 ff ff 	mov    -0xbe8(%rbp),%rax
   10a76:	48 89 10             	mov    %rdx,(%rax)
   10a79:	0f b7 85 28 f3 ff ff 	movzwl -0xcd8(%rbp),%eax
   10a80:	0f b6 c0             	movzbl %al,%eax
   10a83:	be 05 00 00 00       	mov    $0x5,%esi
   10a88:	89 c7                	mov    %eax,%edi
   10a8a:	e8 2f 62 ff ff       	callq  6cbe <safe_rshift_func_uint8_t_u_u>
   10a8f:	84 c0                	test   %al,%al
   10a91:	74 1c                	je     10aaf <func_78+0xb3e>
   10a93:	48 8d 05 4e 56 00 00 	lea    0x564e(%rip),%rax        # 160e8 <g_135>
   10a9a:	48 89 85 98 f3 ff ff 	mov    %rax,-0xc68(%rbp)
   10aa1:	80 bd 1c f3 ff ff 00 	cmpb   $0x0,-0xce4(%rbp)
   10aa8:	74 11                	je     10abb <func_78+0xb4a>
   10aaa:	e9 bd 00 00 00       	jmpq   10b6c <func_78+0xbfb>
   10aaf:	48 8d 05 3a 56 00 00 	lea    0x563a(%rip),%rax        # 160f0 <g_153>
   10ab6:	e9 85 02 00 00       	jmpq   10d40 <func_78+0xdcf>
   10abb:	66 c7 85 18 f3 ff ff 	movw   $0x1,-0xce8(%rbp)
   10ac2:	01 00 
   10ac4:	eb 22                	jmp    10ae8 <func_78+0xb77>
   10ac6:	c7 85 54 f3 ff ff 3f 	movl   $0xaba7f53f,-0xcac(%rbp)
   10acd:	f5 a7 ab 
   10ad0:	83 85 54 f3 ff ff 01 	addl   $0x1,-0xcac(%rbp)
   10ad7:	0f b7 85 18 f3 ff ff 	movzwl -0xce8(%rbp),%eax
   10ade:	83 c0 01             	add    $0x1,%eax
   10ae1:	66 89 85 18 f3 ff ff 	mov    %ax,-0xce8(%rbp)
   10ae8:	66 83 bd 18 f3 ff ff 	cmpw   $0x5,-0xce8(%rbp)
   10aef:	05 
   10af0:	7e d4                	jle    10ac6 <func_78+0xb55>
   10af2:	48 8b 85 08 f3 ff ff 	mov    -0xcf8(%rbp),%rax
   10af9:	48 89 85 98 f3 ff ff 	mov    %rax,-0xc68(%rbp)
   10b00:	48 83 ad 78 f3 ff ff 	subq   $0x1,-0xc88(%rbp)
   10b07:	01 
   10b08:	48 c7 85 78 f3 ff ff 	movq   $0x2,-0xc88(%rbp)
   10b0f:	02 00 00 00 
   10b13:	eb 4d                	jmp    10b62 <func_78+0xbf1>
   10b15:	48 8b 85 28 f4 ff ff 	mov    -0xbd8(%rbp),%rax
   10b1c:	e9 1f 02 00 00       	jmpq   10d40 <func_78+0xdcf>
   10b21:	48 8d 85 80 f4 ff ff 	lea    -0xb80(%rbp),%rax
   10b28:	48 83 c0 20          	add    $0x20,%rax
   10b2c:	48 39 85 a0 f3 ff ff 	cmp    %rax,-0xc60(%rbp)
   10b33:	0f 94 c0             	sete   %al
   10b36:	89 c2                	mov    %eax,%edx
   10b38:	0f b6 85 24 f3 ff ff 	movzbl -0xcdc(%rbp),%eax
   10b3f:	31 d0                	xor    %edx,%eax
   10b41:	88 85 24 f3 ff ff    	mov    %al,-0xcdc(%rbp)
   10b47:	48 8b 85 78 f3 ff ff 	mov    -0xc88(%rbp),%rax
   10b4e:	be 06 00 00 00       	mov    $0x6,%esi
   10b53:	48 89 c7             	mov    %rax,%rdi
   10b56:	e8 d3 64 ff ff       	callq  702e <safe_add_func_uint64_t_u_u>
   10b5b:	48 89 85 78 f3 ff ff 	mov    %rax,-0xc88(%rbp)
   10b62:	48 83 bd 78 f3 ff ff 	cmpq   $0x3a,-0xc88(%rbp)
   10b69:	3a 
   10b6a:	76 b5                	jbe    10b21 <func_78+0xbb0>
   10b6c:	0f b6 05 56 55 00 00 	movzbl 0x5556(%rip),%eax        # 160c9 <g_77>
   10b73:	0f b6 c0             	movzbl %al,%eax
   10b76:	be 05 00 00 00       	mov    $0x5,%esi
   10b7b:	89 c7                	mov    %eax,%edi
   10b7d:	e8 d8 5f ff ff       	callq  6b5a <safe_add_func_uint8_t_u_u>
   10b82:	88 05 41 55 00 00    	mov    %al,0x5541(%rip)        # 160c9 <g_77>
   10b88:	0f b6 05 3a 55 00 00 	movzbl 0x553a(%rip),%eax        # 160c9 <g_77>
   10b8f:	3c 3a                	cmp    $0x3a,%al
   10b91:	0f 87 35 f9 ff ff    	ja     104cc <func_78+0x55b>
   10b97:	eb 04                	jmp    10b9d <func_78+0xc2c>
   10b99:	90                   	nop
   10b9a:	eb 01                	jmp    10b9d <func_78+0xc2c>
   10b9c:	90                   	nop
   10b9d:	8b 85 a0 f8 ff ff    	mov    -0x760(%rbp),%eax
   10ba3:	0f b6 d0             	movzbl %al,%edx
   10ba6:	48 8b 85 80 f3 ff ff 	mov    -0xc80(%rbp),%rax
   10bad:	8b 00                	mov    (%rax),%eax
   10baf:	89 c1                	mov    %eax,%ecx
   10bb1:	0f b6 05 a0 55 00 00 	movzbl 0x55a0(%rip),%eax        # 16158 <g_205>
   10bb8:	09 c8                	or     %ecx,%eax
   10bba:	0f b6 c0             	movzbl %al,%eax
   10bbd:	89 d6                	mov    %edx,%esi
   10bbf:	89 c7                	mov    %eax,%edi
   10bc1:	e8 cd 5f ff ff       	callq  6b93 <safe_mul_func_uint8_t_u_u>
   10bc6:	0f b6 d0             	movzbl %al,%edx
   10bc9:	0f b7 05 0a 55 00 00 	movzwl 0x550a(%rip),%eax        # 160da <g_106>
   10bd0:	66 83 f8 05          	cmp    $0x5,%ax
   10bd4:	0f 97 c0             	seta   %al
   10bd7:	0f b6 c0             	movzbl %al,%eax
   10bda:	48 89 d6             	mov    %rdx,%rsi
   10bdd:	48 89 c7             	mov    %rax,%rdi
   10be0:	e8 9b 64 ff ff       	callq  7080 <safe_mod_func_uint64_t_u_u>
   10be5:	89 85 40 f3 ff ff    	mov    %eax,-0xcc0(%rbp)
   10beb:	0f bf 95 18 f3 ff ff 	movswl -0xce8(%rbp),%edx
   10bf2:	8b 05 d0 79 00 00    	mov    0x79d0(%rip),%eax        # 185c8 <g_14>
   10bf8:	39 c2                	cmp    %eax,%edx
   10bfa:	0f 9f c0             	setg   %al
   10bfd:	88 05 c6 54 00 00    	mov    %al,0x54c6(%rip)        # 160c9 <g_77>
   10c03:	0f b6 05 bf 54 00 00 	movzbl 0x54bf(%rip),%eax        # 160c9 <g_77>
   10c0a:	88 05 e0 54 00 00    	mov    %al,0x54e0(%rip)        # 160f0 <g_153>
   10c10:	b8 00 00 00 00       	mov    $0x0,%eax
   10c15:	66 0b 85 18 f3 ff ff 	or     -0xce8(%rbp),%ax
   10c1c:	98                   	cwtl   
   10c1d:	be fd ff ff ff       	mov    $0xfffffffd,%esi
   10c22:	89 c7                	mov    %eax,%edi
   10c24:	e8 8a 57 ff ff       	callq  63b3 <safe_add_func_int16_t_s_s>
   10c29:	98                   	cwtl   
   10c2a:	48 8b 15 9f 54 00 00 	mov    0x549f(%rip),%rdx        # 160d0 <g_91>
   10c31:	09 d0                	or     %edx,%eax
   10c33:	25 f7 00 00 00       	and    $0xf7,%eax
   10c38:	89 c2                	mov    %eax,%edx
   10c3a:	48 8b 85 c8 f3 ff ff 	mov    -0xc38(%rbp),%rax
   10c41:	8b 00                	mov    (%rax),%eax
   10c43:	83 f0 01             	xor    $0x1,%eax
   10c46:	89 c1                	mov    %eax,%ecx
   10c48:	48 8b 85 c8 f3 ff ff 	mov    -0xc38(%rbp),%rax
   10c4f:	89 08                	mov    %ecx,(%rax)
   10c51:	48 8b 85 c8 f3 ff ff 	mov    -0xc38(%rbp),%rax
   10c58:	8b 08                	mov    (%rax),%ecx
   10c5a:	48 8b 85 d0 f3 ff ff 	mov    -0xc30(%rbp),%rax
   10c61:	8b 00                	mov    (%rax),%eax
   10c63:	8d 70 ff             	lea    -0x1(%rax),%esi
   10c66:	48 8b 85 d0 f3 ff ff 	mov    -0xc30(%rbp),%rax
   10c6d:	89 30                	mov    %esi,(%rax)
   10c6f:	48 8b 85 d0 f3 ff ff 	mov    -0xc30(%rbp),%rax
   10c76:	8b 00                	mov    (%rax),%eax
   10c78:	39 c1                	cmp    %eax,%ecx
   10c7a:	0f 96 c0             	setbe  %al
   10c7d:	0f b6 c0             	movzbl %al,%eax
   10c80:	89 d6                	mov    %edx,%esi
   10c82:	89 c7                	mov    %eax,%edi
   10c84:	e8 35 61 ff ff       	callq  6dbe <safe_lshift_func_uint16_t_u_s>
   10c89:	0f b6 c0             	movzbl %al,%eax
   10c8c:	be 01 00 00 00       	mov    $0x1,%esi
   10c91:	89 c7                	mov    %eax,%edi
   10c93:	e8 43 5f ff ff       	callq  6bdb <safe_div_func_uint8_t_u_u>
   10c98:	8b 85 98 f9 ff ff    	mov    -0x668(%rbp),%eax
   10c9e:	0f be c0             	movsbl %al,%eax
   10ca1:	be f4 ff ff ff       	mov    $0xfffffff4,%esi
   10ca6:	89 c7                	mov    %eax,%edi
   10ca8:	e8 bd 55 ff ff       	callq  626a <safe_div_func_int8_t_s_s>
   10cad:	0f be d0             	movsbl %al,%edx
   10cb0:	0f b6 85 1c f3 ff ff 	movzbl -0xce4(%rbp),%eax
   10cb7:	39 c2                	cmp    %eax,%edx
   10cb9:	0f 95 c0             	setne  %al
   10cbc:	0f b6 d0             	movzbl %al,%edx
   10cbf:	0f b6 85 1c f3 ff ff 	movzbl -0xce4(%rbp),%eax
   10cc6:	09 c2                	or     %eax,%edx
   10cc8:	8b 85 34 f4 ff ff    	mov    -0xbcc(%rbp),%eax
   10cce:	31 d0                	xor    %edx,%eax
   10cd0:	89 85 34 f4 ff ff    	mov    %eax,-0xbcc(%rbp)
   10cd6:	48 8b 05 f3 53 00 00 	mov    0x53f3(%rip),%rax        # 160d0 <g_91>
   10cdd:	48 83 c0 01          	add    $0x1,%rax
   10ce1:	48 89 05 e8 53 00 00 	mov    %rax,0x53e8(%rip)        # 160d0 <g_91>
   10ce8:	48 8b 05 e1 53 00 00 	mov    0x53e1(%rip),%rax        # 160d0 <g_91>
   10cef:	48 83 f8 20          	cmp    $0x20,%rax
   10cf3:	0f 87 21 f7 ff ff    	ja     1041a <func_78+0x4a9>
   10cf9:	48 8b 85 58 f3 ff ff 	mov    -0xca8(%rbp),%rax
   10d00:	8b 00                	mov    (%rax),%eax
   10d02:	85 c0                	test   %eax,%eax
   10d04:	75 1e                	jne    10d24 <func_78+0xdb3>
   10d06:	48 8b 05 c3 78 00 00 	mov    0x78c3(%rip),%rax        # 185d0 <g_243>
   10d0d:	48 89 05 bc 78 00 00 	mov    %rax,0x78bc(%rip)        # 185d0 <g_243>
   10d14:	48 8b 05 b5 78 00 00 	mov    0x78b5(%rip),%rax        # 185d0 <g_243>
   10d1b:	48 89 05 e6 6f 00 00 	mov    %rax,0x6fe6(%rip)        # 17d08 <g_246>
   10d22:	eb 01                	jmp    10d25 <func_78+0xdb4>
   10d24:	90                   	nop
   10d25:	80 85 1c f3 ff ff 01 	addb   $0x1,-0xce4(%rbp)
   10d2c:	80 bd 1c f3 ff ff 39 	cmpb   $0x39,-0xce4(%rbp)
   10d33:	0f 86 e2 f5 ff ff    	jbe    1031b <func_78+0x3aa>
   10d39:	48 8d 05 18 54 00 00 	lea    0x5418(%rip),%rax        # 16158 <g_205>
   10d40:	48 8b 5d d8          	mov    -0x28(%rbp),%rbx
   10d44:	64 48 33 1c 25 28 00 	xor    %fs:0x28,%rbx
   10d4b:	00 00 
   10d4d:	74 05                	je     10d54 <func_78+0xde3>
   10d4f:	e8 1c 53 ff ff       	callq  6070 <__stack_chk_fail@plt>
   10d54:	48 81 c4 e8 0c 00 00 	add    $0xce8,%rsp
   10d5b:	5b                   	pop    %rbx
   10d5c:	41 5c                	pop    %r12
   10d5e:	41 5d                	pop    %r13
   10d60:	5d                   	pop    %rbp
   10d61:	c3                   	retq   

0000000000010d62 <main>:
   10d62:	f3 0f 1e fa          	endbr64 
   10d66:	55                   	push   %rbp
   10d67:	48 89 e5             	mov    %rsp,%rbp
   10d6a:	48 83 ec 20          	sub    $0x20,%rsp
   10d6e:	89 7d ec             	mov    %edi,-0x14(%rbp)
   10d71:	48 89 75 e0          	mov    %rsi,-0x20(%rbp)
   10d75:	c7 45 fc 00 00 00 00 	movl   $0x0,-0x4(%rbp)
   10d7c:	83 7d ec 02          	cmpl   $0x2,-0x14(%rbp)
   10d80:	75 25                	jne    10da7 <main+0x45>
   10d82:	48 8b 45 e0          	mov    -0x20(%rbp),%rax
   10d86:	48 83 c0 08          	add    $0x8,%rax
   10d8a:	48 8b 00             	mov    (%rax),%rax
   10d8d:	48 8d 35 dc 22 00 00 	lea    0x22dc(%rip),%rsi        # 13070 <g_1119+0x101c>
   10d94:	48 89 c7             	mov    %rax,%rdi
   10d97:	e8 f4 52 ff ff       	callq  6090 <strcmp@plt>
   10d9c:	85 c0                	test   %eax,%eax
   10d9e:	75 07                	jne    10da7 <main+0x45>
   10da0:	c7 45 fc 01 00 00 00 	movl   $0x1,-0x4(%rbp)
   10da7:	e8 dd 53 ff ff       	callq  6189 <platform_main_begin>
   10dac:	e8 e7 67 ff ff       	callq  7598 <crc32_gentab>
   10db1:	e8 ff 69 ff ff       	callq  77b5 <func_1>
   10db6:	8b 05 68 52 00 00    	mov    0x5268(%rip),%eax        # 16024 <g_2>
   10dbc:	48 98                	cltq   
   10dbe:	8b 55 fc             	mov    -0x4(%rbp),%edx
   10dc1:	48 8d 35 aa 22 00 00 	lea    0x22aa(%rip),%rsi        # 13072 <g_1119+0x101e>
   10dc8:	48 89 c7             	mov    %rax,%rdi
   10dcb:	e8 23 69 ff ff       	callq  76f3 <transparent_crc>
   10dd0:	8b 05 52 52 00 00    	mov    0x5252(%rip),%eax        # 16028 <g_3>
   10dd6:	48 98                	cltq   
   10dd8:	8b 55 fc             	mov    -0x4(%rbp),%edx
   10ddb:	48 8d 35 94 22 00 00 	lea    0x2294(%rip),%rsi        # 13076 <g_1119+0x1022>
   10de2:	48 89 c7             	mov    %rax,%rdi
   10de5:	e8 09 69 ff ff       	callq  76f3 <transparent_crc>
   10dea:	8b 05 3c 52 00 00    	mov    0x523c(%rip),%eax        # 1602c <g_4>
   10df0:	48 98                	cltq   
   10df2:	8b 55 fc             	mov    -0x4(%rbp),%edx
   10df5:	48 8d 35 7e 22 00 00 	lea    0x227e(%rip),%rsi        # 1307a <g_1119+0x1026>
   10dfc:	48 89 c7             	mov    %rax,%rdi
   10dff:	e8 ef 68 ff ff       	callq  76f3 <transparent_crc>
   10e04:	8b 05 26 52 00 00    	mov    0x5226(%rip),%eax        # 16030 <g_5>
   10e0a:	48 98                	cltq   
   10e0c:	8b 55 fc             	mov    -0x4(%rbp),%edx
   10e0f:	48 8d 35 68 22 00 00 	lea    0x2268(%rip),%rsi        # 1307e <g_1119+0x102a>
   10e16:	48 89 c7             	mov    %rax,%rdi
   10e19:	e8 d5 68 ff ff       	callq  76f3 <transparent_crc>
   10e1e:	8b 05 10 52 00 00    	mov    0x5210(%rip),%eax        # 16034 <g_6>
   10e24:	48 98                	cltq   
   10e26:	8b 55 fc             	mov    -0x4(%rbp),%edx
   10e29:	48 8d 35 52 22 00 00 	lea    0x2252(%rip),%rsi        # 13082 <g_1119+0x102e>
   10e30:	48 89 c7             	mov    %rax,%rdi
   10e33:	e8 bb 68 ff ff       	callq  76f3 <transparent_crc>
   10e38:	8b 05 fa 51 00 00    	mov    0x51fa(%rip),%eax        # 16038 <g_7>
   10e3e:	48 98                	cltq   
   10e40:	8b 55 fc             	mov    -0x4(%rbp),%edx
   10e43:	48 8d 35 3c 22 00 00 	lea    0x223c(%rip),%rsi        # 13086 <g_1119+0x1032>
   10e4a:	48 89 c7             	mov    %rax,%rdi
   10e4d:	e8 a1 68 ff ff       	callq  76f3 <transparent_crc>
   10e52:	8b 05 e4 51 00 00    	mov    0x51e4(%rip),%eax        # 1603c <g_11>
   10e58:	48 98                	cltq   
   10e5a:	8b 55 fc             	mov    -0x4(%rbp),%edx
   10e5d:	48 8d 35 26 22 00 00 	lea    0x2226(%rip),%rsi        # 1308a <g_1119+0x1036>
   10e64:	48 89 c7             	mov    %rax,%rdi
   10e67:	e8 87 68 ff ff       	callq  76f3 <transparent_crc>
   10e6c:	8b 05 ce 51 00 00    	mov    0x51ce(%rip),%eax        # 16040 <g_12>
   10e72:	48 98                	cltq   
   10e74:	8b 55 fc             	mov    -0x4(%rbp),%edx
   10e77:	48 8d 35 11 22 00 00 	lea    0x2211(%rip),%rsi        # 1308f <g_1119+0x103b>
   10e7e:	48 89 c7             	mov    %rax,%rdi
   10e81:	e8 6d 68 ff ff       	callq  76f3 <transparent_crc>
   10e86:	c7 45 f4 00 00 00 00 	movl   $0x0,-0xc(%rbp)
   10e8d:	eb 75                	jmp    10f04 <main+0x1a2>
   10e8f:	c7 45 f8 00 00 00 00 	movl   $0x0,-0x8(%rbp)
   10e96:	eb 62                	jmp    10efa <main+0x198>
   10e98:	8b 45 f8             	mov    -0x8(%rbp),%eax
   10e9b:	48 63 c8             	movslq %eax,%rcx
   10e9e:	8b 45 f4             	mov    -0xc(%rbp),%eax
   10ea1:	48 63 d0             	movslq %eax,%rdx
   10ea4:	48 89 d0             	mov    %rdx,%rax
   10ea7:	48 c1 e0 02          	shl    $0x2,%rax
   10eab:	48 01 d0             	add    %rdx,%rax
   10eae:	48 01 c8             	add    %rcx,%rax
   10eb1:	48 8d 14 85 00 00 00 	lea    0x0(,%rax,4),%rdx
   10eb8:	00 
   10eb9:	48 8d 05 a0 51 00 00 	lea    0x51a0(%rip),%rax        # 16060 <g_13>
   10ec0:	8b 04 02             	mov    (%rdx,%rax,1),%eax
   10ec3:	48 98                	cltq   
   10ec5:	8b 55 fc             	mov    -0x4(%rbp),%edx
   10ec8:	48 8d 35 c5 21 00 00 	lea    0x21c5(%rip),%rsi        # 13094 <g_1119+0x1040>
   10ecf:	48 89 c7             	mov    %rax,%rdi
   10ed2:	e8 1c 68 ff ff       	callq  76f3 <transparent_crc>
   10ed7:	83 7d fc 00          	cmpl   $0x0,-0x4(%rbp)
   10edb:	74 19                	je     10ef6 <main+0x194>
   10edd:	8b 55 f8             	mov    -0x8(%rbp),%edx
   10ee0:	8b 45 f4             	mov    -0xc(%rbp),%eax
   10ee3:	89 c6                	mov    %eax,%esi
   10ee5:	48 8d 3d b3 21 00 00 	lea    0x21b3(%rip),%rdi        # 1309f <g_1119+0x104b>
   10eec:	b8 00 00 00 00       	mov    $0x0,%eax
   10ef1:	e8 8a 51 ff ff       	callq  6080 <printf@plt>
   10ef6:	83 45 f8 01          	addl   $0x1,-0x8(%rbp)
   10efa:	83 7d f8 04          	cmpl   $0x4,-0x8(%rbp)
   10efe:	7e 98                	jle    10e98 <main+0x136>
   10f00:	83 45 f4 01          	addl   $0x1,-0xc(%rbp)
   10f04:	83 7d f4 04          	cmpl   $0x4,-0xc(%rbp)
   10f08:	7e 85                	jle    10e8f <main+0x12d>
   10f0a:	8b 05 b8 76 00 00    	mov    0x76b8(%rip),%eax        # 185c8 <g_14>
   10f10:	48 98                	cltq   
   10f12:	8b 55 fc             	mov    -0x4(%rbp),%edx
   10f15:	48 8d 35 95 21 00 00 	lea    0x2195(%rip),%rsi        # 130b1 <g_1119+0x105d>
   10f1c:	48 89 c7             	mov    %rax,%rdi
   10f1f:	e8 cf 67 ff ff       	callq  76f3 <transparent_crc>
   10f24:	8b 05 9a 51 00 00    	mov    0x519a(%rip),%eax        # 160c4 <g_56>
   10f2a:	89 c1                	mov    %eax,%ecx
   10f2c:	8b 45 fc             	mov    -0x4(%rbp),%eax
   10f2f:	89 c2                	mov    %eax,%edx
   10f31:	48 8d 35 7e 21 00 00 	lea    0x217e(%rip),%rsi        # 130b6 <g_1119+0x1062>
   10f38:	48 89 cf             	mov    %rcx,%rdi
   10f3b:	e8 b3 67 ff ff       	callq  76f3 <transparent_crc>
   10f40:	0f b6 05 81 51 00 00 	movzbl 0x5181(%rip),%eax        # 160c8 <g_58>
   10f47:	0f b6 c0             	movzbl %al,%eax
   10f4a:	8b 55 fc             	mov    -0x4(%rbp),%edx
   10f4d:	48 8d 35 67 21 00 00 	lea    0x2167(%rip),%rsi        # 130bb <g_1119+0x1067>
   10f54:	48 89 c7             	mov    %rax,%rdi
   10f57:	e8 97 67 ff ff       	callq  76f3 <transparent_crc>
   10f5c:	0f b6 05 66 51 00 00 	movzbl 0x5166(%rip),%eax        # 160c9 <g_77>
   10f63:	0f b6 c0             	movzbl %al,%eax
   10f66:	8b 55 fc             	mov    -0x4(%rbp),%edx
   10f69:	48 8d 35 50 21 00 00 	lea    0x2150(%rip),%rsi        # 130c0 <g_1119+0x106c>
   10f70:	48 89 c7             	mov    %rax,%rdi
   10f73:	e8 7b 67 ff ff       	callq  76f3 <transparent_crc>
   10f78:	48 8b 05 51 51 00 00 	mov    0x5151(%rip),%rax        # 160d0 <g_91>
   10f7f:	8b 55 fc             	mov    -0x4(%rbp),%edx
   10f82:	48 8d 35 3c 21 00 00 	lea    0x213c(%rip),%rsi        # 130c5 <g_1119+0x1071>
   10f89:	48 89 c7             	mov    %rax,%rdi
   10f8c:	e8 62 67 ff ff       	callq  76f3 <transparent_crc>
   10f91:	0f b7 05 40 51 00 00 	movzwl 0x5140(%rip),%eax        # 160d8 <g_102>
   10f98:	0f b7 c0             	movzwl %ax,%eax
   10f9b:	8b 55 fc             	mov    -0x4(%rbp),%edx
   10f9e:	48 8d 35 25 21 00 00 	lea    0x2125(%rip),%rsi        # 130ca <g_1119+0x1076>
   10fa5:	48 89 c7             	mov    %rax,%rdi
   10fa8:	e8 46 67 ff ff       	callq  76f3 <transparent_crc>
   10fad:	c7 45 f4 00 00 00 00 	movl   $0x0,-0xc(%rbp)
   10fb4:	eb 4a                	jmp    11000 <main+0x29e>
   10fb6:	8b 45 f4             	mov    -0xc(%rbp),%eax
   10fb9:	48 98                	cltq   
   10fbb:	48 8d 14 00          	lea    (%rax,%rax,1),%rdx
   10fbf:	48 8d 05 14 51 00 00 	lea    0x5114(%rip),%rax        # 160da <g_106>
   10fc6:	0f b7 04 02          	movzwl (%rdx,%rax,1),%eax
   10fca:	48 0f bf c0          	movswq %ax,%rax
   10fce:	8b 55 fc             	mov    -0x4(%rbp),%edx
   10fd1:	48 8d 35 f8 20 00 00 	lea    0x20f8(%rip),%rsi        # 130d0 <g_1119+0x107c>
   10fd8:	48 89 c7             	mov    %rax,%rdi
   10fdb:	e8 13 67 ff ff       	callq  76f3 <transparent_crc>
   10fe0:	83 7d fc 00          	cmpl   $0x0,-0x4(%rbp)
   10fe4:	74 16                	je     10ffc <main+0x29a>
   10fe6:	8b 45 f4             	mov    -0xc(%rbp),%eax
   10fe9:	89 c6                	mov    %eax,%esi
   10feb:	48 8d 3d e7 20 00 00 	lea    0x20e7(%rip),%rdi        # 130d9 <g_1119+0x1085>
   10ff2:	b8 00 00 00 00       	mov    $0x0,%eax
   10ff7:	e8 84 50 ff ff       	callq  6080 <printf@plt>
   10ffc:	83 45 f4 01          	addl   $0x1,-0xc(%rbp)
   11000:	83 7d f4 00          	cmpl   $0x0,-0xc(%rbp)
   11004:	7e b0                	jle    10fb6 <main+0x254>
   11006:	48 8b 05 d3 50 00 00 	mov    0x50d3(%rip),%rax        # 160e0 <g_127>
   1100d:	8b 55 fc             	mov    -0x4(%rbp),%edx
   11010:	48 8d 35 d0 20 00 00 	lea    0x20d0(%rip),%rsi        # 130e7 <g_1119+0x1093>
   11017:	48 89 c7             	mov    %rax,%rdi
   1101a:	e8 d4 66 ff ff       	callq  76f3 <transparent_crc>
   1101f:	8b 05 c3 50 00 00    	mov    0x50c3(%rip),%eax        # 160e8 <g_135>
   11025:	48 98                	cltq   
   11027:	8b 55 fc             	mov    -0x4(%rbp),%edx
   1102a:	48 8d 35 bc 20 00 00 	lea    0x20bc(%rip),%rsi        # 130ed <g_1119+0x1099>
   11031:	48 89 c7             	mov    %rax,%rdi
   11034:	e8 ba 66 ff ff       	callq  76f3 <transparent_crc>
   11039:	8b 05 ad 50 00 00    	mov    0x50ad(%rip),%eax        # 160ec <g_146>
   1103f:	89 c1                	mov    %eax,%ecx
   11041:	8b 45 fc             	mov    -0x4(%rbp),%eax
   11044:	89 c2                	mov    %eax,%edx
   11046:	48 8d 35 a6 20 00 00 	lea    0x20a6(%rip),%rsi        # 130f3 <g_1119+0x109f>
   1104d:	48 89 cf             	mov    %rcx,%rdi
   11050:	e8 9e 66 ff ff       	callq  76f3 <transparent_crc>
   11055:	0f b6 05 94 50 00 00 	movzbl 0x5094(%rip),%eax        # 160f0 <g_153>
   1105c:	0f b6 c0             	movzbl %al,%eax
   1105f:	8b 55 fc             	mov    -0x4(%rbp),%edx
   11062:	48 8d 35 90 20 00 00 	lea    0x2090(%rip),%rsi        # 130f9 <g_1119+0x10a5>
   11069:	48 89 c7             	mov    %rax,%rdi
   1106c:	e8 82 66 ff ff       	callq  76f3 <transparent_crc>
   11071:	8b 05 7d 50 00 00    	mov    0x507d(%rip),%eax        # 160f4 <g_159>
   11077:	48 98                	cltq   
   11079:	8b 55 fc             	mov    -0x4(%rbp),%edx
   1107c:	48 8d 35 7c 20 00 00 	lea    0x207c(%rip),%rsi        # 130ff <g_1119+0x10ab>
   11083:	48 89 c7             	mov    %rax,%rdi
   11086:	e8 68 66 ff ff       	callq  76f3 <transparent_crc>
   1108b:	c7 45 f4 00 00 00 00 	movl   $0x0,-0xc(%rbp)
   11092:	eb 76                	jmp    1110a <main+0x3a8>
   11094:	c7 45 f8 00 00 00 00 	movl   $0x0,-0x8(%rbp)
   1109b:	eb 63                	jmp    11100 <main+0x39e>
   1109d:	8b 45 f8             	mov    -0x8(%rbp),%eax
   110a0:	48 63 c8             	movslq %eax,%rcx
   110a3:	8b 45 f4             	mov    -0xc(%rbp),%eax
   110a6:	48 63 d0             	movslq %eax,%rdx
   110a9:	48 89 d0             	mov    %rdx,%rax
   110ac:	48 c1 e0 02          	shl    $0x2,%rax
   110b0:	48 01 d0             	add    %rdx,%rax
   110b3:	48 01 c0             	add    %rax,%rax
   110b6:	48 01 c8             	add    %rcx,%rax
   110b9:	48 8d 14 00          	lea    (%rax,%rax,1),%rdx
   110bd:	48 8d 05 3c 50 00 00 	lea    0x503c(%rip),%rax        # 16100 <g_163>
   110c4:	0f b7 04 02          	movzwl (%rdx,%rax,1),%eax
   110c8:	0f b7 c0             	movzwl %ax,%eax
   110cb:	8b 55 fc             	mov    -0x4(%rbp),%edx
   110ce:	48 8d 35 30 20 00 00 	lea    0x2030(%rip),%rsi        # 13105 <g_1119+0x10b1>
   110d5:	48 89 c7             	mov    %rax,%rdi
   110d8:	e8 16 66 ff ff       	callq  76f3 <transparent_crc>
   110dd:	83 7d fc 00          	cmpl   $0x0,-0x4(%rbp)
   110e1:	74 19                	je     110fc <main+0x39a>
   110e3:	8b 55 f8             	mov    -0x8(%rbp),%edx
   110e6:	8b 45 f4             	mov    -0xc(%rbp),%eax
   110e9:	89 c6                	mov    %eax,%esi
   110eb:	48 8d 3d ad 1f 00 00 	lea    0x1fad(%rip),%rdi        # 1309f <g_1119+0x104b>
   110f2:	b8 00 00 00 00       	mov    $0x0,%eax
   110f7:	e8 84 4f ff ff       	callq  6080 <printf@plt>
   110fc:	83 45 f8 01          	addl   $0x1,-0x8(%rbp)
   11100:	83 7d f8 09          	cmpl   $0x9,-0x8(%rbp)
   11104:	7e 97                	jle    1109d <main+0x33b>
   11106:	83 45 f4 01          	addl   $0x1,-0xc(%rbp)
   1110a:	83 7d f4 03          	cmpl   $0x3,-0xc(%rbp)
   1110e:	7e 84                	jle    11094 <main+0x332>
   11110:	48 8b 05 39 50 00 00 	mov    0x5039(%rip),%rax        # 16150 <g_185>
   11117:	48 89 c1             	mov    %rax,%rcx
   1111a:	8b 45 fc             	mov    -0x4(%rbp),%eax
   1111d:	89 c2                	mov    %eax,%edx
   1111f:	48 8d 35 eb 1f 00 00 	lea    0x1feb(%rip),%rsi        # 13111 <g_1119+0x10bd>
   11126:	48 89 cf             	mov    %rcx,%rdi
   11129:	e8 c5 65 ff ff       	callq  76f3 <transparent_crc>
   1112e:	0f b6 05 23 50 00 00 	movzbl 0x5023(%rip),%eax        # 16158 <g_205>
   11135:	0f b6 c0             	movzbl %al,%eax
   11138:	8b 55 fc             	mov    -0x4(%rbp),%edx
   1113b:	48 8d 35 d5 1f 00 00 	lea    0x1fd5(%rip),%rsi        # 13117 <g_1119+0x10c3>
   11142:	48 89 c7             	mov    %rax,%rdi
   11145:	e8 a9 65 ff ff       	callq  76f3 <transparent_crc>
   1114a:	8b 05 0c 50 00 00    	mov    0x500c(%rip),%eax        # 1615c <g_234>
   11150:	89 c1                	mov    %eax,%ecx
   11152:	8b 45 fc             	mov    -0x4(%rbp),%eax
   11155:	89 c2                	mov    %eax,%edx
   11157:	48 8d 35 bf 1f 00 00 	lea    0x1fbf(%rip),%rsi        # 1311d <g_1119+0x10c9>
   1115e:	48 89 cf             	mov    %rcx,%rdi
   11161:	e8 8d 65 ff ff       	callq  76f3 <transparent_crc>
   11166:	c7 45 f4 00 00 00 00 	movl   $0x0,-0xc(%rbp)
   1116d:	eb 46                	jmp    111b5 <main+0x453>
   1116f:	8b 45 f4             	mov    -0xc(%rbp),%eax
   11172:	48 98                	cltq   
   11174:	48 8d 15 e5 4f 00 00 	lea    0x4fe5(%rip),%rdx        # 16160 <g_335>
   1117b:	0f b6 04 10          	movzbl (%rax,%rdx,1),%eax
   1117f:	48 0f be c0          	movsbq %al,%rax
   11183:	8b 55 fc             	mov    -0x4(%rbp),%edx
   11186:	48 8d 35 96 1f 00 00 	lea    0x1f96(%rip),%rsi        # 13123 <g_1119+0x10cf>
   1118d:	48 89 c7             	mov    %rax,%rdi
   11190:	e8 5e 65 ff ff       	callq  76f3 <transparent_crc>
   11195:	83 7d fc 00          	cmpl   $0x0,-0x4(%rbp)
   11199:	74 16                	je     111b1 <main+0x44f>
   1119b:	8b 45 f4             	mov    -0xc(%rbp),%eax
   1119e:	89 c6                	mov    %eax,%esi
   111a0:	48 8d 3d 32 1f 00 00 	lea    0x1f32(%rip),%rdi        # 130d9 <g_1119+0x1085>
   111a7:	b8 00 00 00 00       	mov    $0x0,%eax
   111ac:	e8 cf 4e ff ff       	callq  6080 <printf@plt>
   111b1:	83 45 f4 01          	addl   $0x1,-0xc(%rbp)
   111b5:	83 7d f4 01          	cmpl   $0x1,-0xc(%rbp)
   111b9:	7e b4                	jle    1116f <main+0x40d>
   111bb:	0f b7 05 1e 74 00 00 	movzwl 0x741e(%rip),%eax        # 185e0 <g_405>
   111c2:	48 0f bf c0          	movswq %ax,%rax
   111c6:	8b 55 fc             	mov    -0x4(%rbp),%edx
   111c9:	48 8d 35 5c 1f 00 00 	lea    0x1f5c(%rip),%rsi        # 1312c <g_1119+0x10d8>
   111d0:	48 89 c7             	mov    %rax,%rdi
   111d3:	e8 1b 65 ff ff       	callq  76f3 <transparent_crc>
   111d8:	0f b6 05 03 74 00 00 	movzbl 0x7403(%rip),%eax        # 185e2 <g_431>
   111df:	48 0f be c0          	movsbq %al,%rax
   111e3:	8b 55 fc             	mov    -0x4(%rbp),%edx
   111e6:	48 8d 35 45 1f 00 00 	lea    0x1f45(%rip),%rsi        # 13132 <g_1119+0x10de>
   111ed:	48 89 c7             	mov    %rax,%rdi
   111f0:	e8 fe 64 ff ff       	callq  76f3 <transparent_crc>
   111f5:	48 8b 05 6c 4f 00 00 	mov    0x4f6c(%rip),%rax        # 16168 <g_650>
   111fc:	48 89 c1             	mov    %rax,%rcx
   111ff:	8b 45 fc             	mov    -0x4(%rbp),%eax
   11202:	89 c2                	mov    %eax,%edx
   11204:	48 8d 35 2d 1f 00 00 	lea    0x1f2d(%rip),%rsi        # 13138 <g_1119+0x10e4>
   1120b:	48 89 cf             	mov    %rcx,%rdi
   1120e:	e8 e0 64 ff ff       	callq  76f3 <transparent_crc>
   11213:	0f b7 05 56 4f 00 00 	movzwl 0x4f56(%rip),%eax        # 16170 <g_868>
   1121a:	48 0f bf c0          	movswq %ax,%rax
   1121e:	8b 55 fc             	mov    -0x4(%rbp),%edx
   11221:	48 8d 35 16 1f 00 00 	lea    0x1f16(%rip),%rsi        # 1313e <g_1119+0x10ea>
   11228:	48 89 c7             	mov    %rax,%rdi
   1122b:	e8 c3 64 ff ff       	callq  76f3 <transparent_crc>
   11230:	b8 fe ff ff ff       	mov    $0xfffffffe,%eax
   11235:	48 0f bf c0          	movswq %ax,%rax
   11239:	8b 55 fc             	mov    -0x4(%rbp),%edx
   1123c:	48 8d 35 01 1f 00 00 	lea    0x1f01(%rip),%rsi        # 13144 <g_1119+0x10f0>
   11243:	48 89 c7             	mov    %rax,%rdi
   11246:	e8 a8 64 ff ff       	callq  76f3 <transparent_crc>
   1124b:	8b 05 23 4f 00 00    	mov    0x4f23(%rip),%eax        # 16174 <g_1259>
   11251:	48 98                	cltq   
   11253:	8b 55 fc             	mov    -0x4(%rbp),%edx
   11256:	48 8d 35 ee 1e 00 00 	lea    0x1eee(%rip),%rsi        # 1314b <g_1119+0x10f7>
   1125d:	48 89 c7             	mov    %rax,%rdi
   11260:	e8 8e 64 ff ff       	callq  76f3 <transparent_crc>
   11265:	c7 45 f4 00 00 00 00 	movl   $0x0,-0xc(%rbp)
   1126c:	eb 4f                	jmp    112bd <main+0x55b>
   1126e:	8b 45 f4             	mov    -0xc(%rbp),%eax
   11271:	48 98                	cltq   
   11273:	48 8d 14 c5 00 00 00 	lea    0x0(,%rax,8),%rdx
   1127a:	00 
   1127b:	48 8d 05 fe 4e 00 00 	lea    0x4efe(%rip),%rax        # 16180 <g_1310>
   11282:	48 8b 04 02          	mov    (%rdx,%rax,1),%rax
   11286:	48 89 c1             	mov    %rax,%rcx
   11289:	8b 45 fc             	mov    -0x4(%rbp),%eax
   1128c:	89 c2                	mov    %eax,%edx
   1128e:	48 8d 35 bd 1e 00 00 	lea    0x1ebd(%rip),%rsi        # 13152 <g_1119+0x10fe>
   11295:	48 89 cf             	mov    %rcx,%rdi
   11298:	e8 56 64 ff ff       	callq  76f3 <transparent_crc>
   1129d:	83 7d fc 00          	cmpl   $0x0,-0x4(%rbp)
   112a1:	74 16                	je     112b9 <main+0x557>
   112a3:	8b 45 f4             	mov    -0xc(%rbp),%eax
   112a6:	89 c6                	mov    %eax,%esi
   112a8:	48 8d 3d 2a 1e 00 00 	lea    0x1e2a(%rip),%rdi        # 130d9 <g_1119+0x1085>
   112af:	b8 00 00 00 00       	mov    $0x0,%eax
   112b4:	e8 c7 4d ff ff       	callq  6080 <printf@plt>
   112b9:	83 45 f4 01          	addl   $0x1,-0xc(%rbp)
   112bd:	83 7d f4 08          	cmpl   $0x8,-0xc(%rbp)
   112c1:	7e ab                	jle    1126e <main+0x50c>
   112c3:	c7 45 f4 00 00 00 00 	movl   $0x0,-0xc(%rbp)
   112ca:	eb 4b                	jmp    11317 <main+0x5b5>
   112cc:	8b 45 f4             	mov    -0xc(%rbp),%eax
   112cf:	48 98                	cltq   
   112d1:	48 8d 14 85 00 00 00 	lea    0x0(,%rax,4),%rdx
   112d8:	00 
   112d9:	48 8d 05 f0 4e 00 00 	lea    0x4ef0(%rip),%rax        # 161d0 <g_1325>
   112e0:	8b 04 02             	mov    (%rdx,%rax,1),%eax
   112e3:	48 98                	cltq   
   112e5:	8b 55 fc             	mov    -0x4(%rbp),%edx
   112e8:	48 8d 35 6d 1e 00 00 	lea    0x1e6d(%rip),%rsi        # 1315c <g_1119+0x1108>
   112ef:	48 89 c7             	mov    %rax,%rdi
   112f2:	e8 fc 63 ff ff       	callq  76f3 <transparent_crc>
   112f7:	83 7d fc 00          	cmpl   $0x0,-0x4(%rbp)
   112fb:	74 16                	je     11313 <main+0x5b1>
   112fd:	8b 45 f4             	mov    -0xc(%rbp),%eax
   11300:	89 c6                	mov    %eax,%esi
   11302:	48 8d 3d d0 1d 00 00 	lea    0x1dd0(%rip),%rdi        # 130d9 <g_1119+0x1085>
   11309:	b8 00 00 00 00       	mov    $0x0,%eax
   1130e:	e8 6d 4d ff ff       	callq  6080 <printf@plt>
   11313:	83 45 f4 01          	addl   $0x1,-0xc(%rbp)
   11317:	83 7d f4 05          	cmpl   $0x5,-0xc(%rbp)
   1131b:	7e af                	jle    112cc <main+0x56a>
   1131d:	48 8b 05 c4 4e 00 00 	mov    0x4ec4(%rip),%rax        # 161e8 <g_1531>
   11324:	48 89 c1             	mov    %rax,%rcx
   11327:	8b 45 fc             	mov    -0x4(%rbp),%eax
   1132a:	89 c2                	mov    %eax,%edx
   1132c:	48 8d 35 33 1e 00 00 	lea    0x1e33(%rip),%rsi        # 13166 <g_1119+0x1112>
   11333:	48 89 cf             	mov    %rcx,%rdi
   11336:	e8 b8 63 ff ff       	callq  76f3 <transparent_crc>
   1133b:	c7 45 f4 00 00 00 00 	movl   $0x0,-0xc(%rbp)
   11342:	eb 4d                	jmp    11391 <main+0x62f>
   11344:	8b 45 f4             	mov    -0xc(%rbp),%eax
   11347:	48 98                	cltq   
   11349:	48 8d 14 85 00 00 00 	lea    0x0(,%rax,4),%rdx
   11350:	00 
   11351:	48 8d 05 98 4e 00 00 	lea    0x4e98(%rip),%rax        # 161f0 <g_1577>
   11358:	8b 04 02             	mov    (%rdx,%rax,1),%eax
   1135b:	89 c1                	mov    %eax,%ecx
   1135d:	8b 45 fc             	mov    -0x4(%rbp),%eax
   11360:	89 c2                	mov    %eax,%edx
   11362:	48 8d 35 04 1e 00 00 	lea    0x1e04(%rip),%rsi        # 1316d <g_1119+0x1119>
   11369:	48 89 cf             	mov    %rcx,%rdi
   1136c:	e8 82 63 ff ff       	callq  76f3 <transparent_crc>
   11371:	83 7d fc 00          	cmpl   $0x0,-0x4(%rbp)
   11375:	74 16                	je     1138d <main+0x62b>
   11377:	8b 45 f4             	mov    -0xc(%rbp),%eax
   1137a:	89 c6                	mov    %eax,%esi
   1137c:	48 8d 3d 56 1d 00 00 	lea    0x1d56(%rip),%rdi        # 130d9 <g_1119+0x1085>
   11383:	b8 00 00 00 00       	mov    $0x0,%eax
   11388:	e8 f3 4c ff ff       	callq  6080 <printf@plt>
   1138d:	83 45 f4 01          	addl   $0x1,-0xc(%rbp)
   11391:	83 7d f4 00          	cmpl   $0x0,-0xc(%rbp)
   11395:	7e ad                	jle    11344 <main+0x5e2>
   11397:	0f b7 05 56 4e 00 00 	movzwl 0x4e56(%rip),%eax        # 161f4 <g_1804>
   1139e:	48 0f bf c0          	movswq %ax,%rax
   113a2:	8b 55 fc             	mov    -0x4(%rbp),%edx
   113a5:	48 8d 35 cb 1d 00 00 	lea    0x1dcb(%rip),%rsi        # 13177 <g_1119+0x1123>
   113ac:	48 89 c7             	mov    %rax,%rdi
   113af:	e8 3f 63 ff ff       	callq  76f3 <transparent_crc>
   113b4:	c7 45 f4 00 00 00 00 	movl   $0x0,-0xc(%rbp)
   113bb:	eb 49                	jmp    11406 <main+0x6a4>
   113bd:	8b 45 f4             	mov    -0xc(%rbp),%eax
   113c0:	48 98                	cltq   
   113c2:	48 8d 14 00          	lea    (%rax,%rax,1),%rdx
   113c6:	48 8d 05 33 4e 00 00 	lea    0x4e33(%rip),%rax        # 16200 <g_1878>
   113cd:	0f b7 04 02          	movzwl (%rdx,%rax,1),%eax
   113d1:	0f b7 c0             	movzwl %ax,%eax
   113d4:	8b 55 fc             	mov    -0x4(%rbp),%edx
   113d7:	48 8d 35 a0 1d 00 00 	lea    0x1da0(%rip),%rsi        # 1317e <g_1119+0x112a>
   113de:	48 89 c7             	mov    %rax,%rdi
   113e1:	e8 0d 63 ff ff       	callq  76f3 <transparent_crc>
   113e6:	83 7d fc 00          	cmpl   $0x0,-0x4(%rbp)
   113ea:	74 16                	je     11402 <main+0x6a0>
   113ec:	8b 45 f4             	mov    -0xc(%rbp),%eax
   113ef:	89 c6                	mov    %eax,%esi
   113f1:	48 8d 3d e1 1c 00 00 	lea    0x1ce1(%rip),%rdi        # 130d9 <g_1119+0x1085>
   113f8:	b8 00 00 00 00       	mov    $0x0,%eax
   113fd:	e8 7e 4c ff ff       	callq  6080 <printf@plt>
   11402:	83 45 f4 01          	addl   $0x1,-0xc(%rbp)
   11406:	83 7d f4 08          	cmpl   $0x8,-0xc(%rbp)
   1140a:	7e b1                	jle    113bd <main+0x65b>
   1140c:	8b 05 02 4e 00 00    	mov    0x4e02(%rip),%eax        # 16214 <g_1965>
   11412:	48 98                	cltq   
   11414:	8b 55 fc             	mov    -0x4(%rbp),%edx
   11417:	48 8d 35 6a 1d 00 00 	lea    0x1d6a(%rip),%rsi        # 13188 <g_1119+0x1134>
   1141e:	48 89 c7             	mov    %rax,%rdi
   11421:	e8 cd 62 ff ff       	callq  76f3 <transparent_crc>
   11426:	0f b7 05 eb 4d 00 00 	movzwl 0x4deb(%rip),%eax        # 16218 <g_1983>
   1142d:	0f b7 c0             	movzwl %ax,%eax
   11430:	8b 55 fc             	mov    -0x4(%rbp),%edx
   11433:	48 8d 35 55 1d 00 00 	lea    0x1d55(%rip),%rsi        # 1318f <g_1119+0x113b>
   1143a:	48 89 c7             	mov    %rax,%rdi
   1143d:	e8 b1 62 ff ff       	callq  76f3 <transparent_crc>
   11442:	8b 05 d4 4d 00 00    	mov    0x4dd4(%rip),%eax        # 1621c <g_2027>
   11448:	89 c1                	mov    %eax,%ecx
   1144a:	8b 45 fc             	mov    -0x4(%rbp),%eax
   1144d:	89 c2                	mov    %eax,%edx
   1144f:	48 8d 35 40 1d 00 00 	lea    0x1d40(%rip),%rsi        # 13196 <g_1119+0x1142>
   11456:	48 89 cf             	mov    %rcx,%rdi
   11459:	e8 95 62 ff ff       	callq  76f3 <transparent_crc>
   1145e:	8b 05 bc 4b 00 00    	mov    0x4bbc(%rip),%eax        # 16020 <crc32_context>
   11464:	f7 d0                	not    %eax
   11466:	89 c2                	mov    %eax,%edx
   11468:	8b 45 fc             	mov    -0x4(%rbp),%eax
   1146b:	89 c6                	mov    %eax,%esi
   1146d:	89 d7                	mov    %edx,%edi
   1146f:	e8 20 4d ff ff       	callq  6194 <platform_main_end>
   11474:	b8 00 00 00 00       	mov    $0x0,%eax
   11479:	c9                   	leaveq 
   1147a:	c3                   	retq   
   1147b:	0f 1f 44 00 00       	nopl   0x0(%rax,%rax,1)

0000000000011480 <__libc_csu_init>:
   11480:	f3 0f 1e fa          	endbr64 
   11484:	41 57                	push   %r15
   11486:	4c 8d 3d 23 47 00 00 	lea    0x4723(%rip),%r15        # 15bb0 <__frame_dummy_init_array_entry>
   1148d:	41 56                	push   %r14
   1148f:	49 89 d6             	mov    %rdx,%r14
   11492:	41 55                	push   %r13
   11494:	49 89 f5             	mov    %rsi,%r13
   11497:	41 54                	push   %r12
   11499:	41 89 fc             	mov    %edi,%r12d
   1149c:	55                   	push   %rbp
   1149d:	48 8d 2d 14 47 00 00 	lea    0x4714(%rip),%rbp        # 15bb8 <__do_global_dtors_aux_fini_array_entry>
   114a4:	53                   	push   %rbx
   114a5:	4c 29 fd             	sub    %r15,%rbp
   114a8:	48 83 ec 08          	sub    $0x8,%rsp
   114ac:	e8 4f 4b ff ff       	callq  6000 <_init>
   114b1:	48 c1 fd 03          	sar    $0x3,%rbp
   114b5:	74 1f                	je     114d6 <__libc_csu_init+0x56>
   114b7:	31 db                	xor    %ebx,%ebx
   114b9:	0f 1f 80 00 00 00 00 	nopl   0x0(%rax)
   114c0:	4c 89 f2             	mov    %r14,%rdx
   114c3:	4c 89 ee             	mov    %r13,%rsi
   114c6:	44 89 e7             	mov    %r12d,%edi
   114c9:	41 ff 14 df          	callq  *(%r15,%rbx,8)
   114cd:	48 83 c3 01          	add    $0x1,%rbx
   114d1:	48 39 dd             	cmp    %rbx,%rbp
   114d4:	75 ea                	jne    114c0 <__libc_csu_init+0x40>
   114d6:	48 83 c4 08          	add    $0x8,%rsp
   114da:	5b                   	pop    %rbx
   114db:	5d                   	pop    %rbp
   114dc:	41 5c                	pop    %r12
   114de:	41 5d                	pop    %r13
   114e0:	41 5e                	pop    %r14
   114e2:	41 5f                	pop    %r15
   114e4:	c3                   	retq   
   114e5:	66 66 2e 0f 1f 84 00 	data16 nopw %cs:0x0(%rax,%rax,1)
   114ec:	00 00 00 00 

00000000000114f0 <__libc_csu_fini>:
   114f0:	f3 0f 1e fa          	endbr64 
   114f4:	c3                   	retq   
