


Disassembly of section .text:

00000000000060a0 <_start>:
    60a0:	f3 0f 1e fa          	endbr64 
    60a4:	31 ed                	xor    %ebp,%ebp
    60a6:	49 89 d1             	mov    %rdx,%r9
    60a9:	5e                   	pop    %rsi
    60aa:	48 89 e2             	mov    %rsp,%rdx
    60ad:	48 83 e4 f0          	and    $0xfffffffffffffff0,%rsp
    60b1:	50                   	push   %rax
    60b2:	54                   	push   %rsp
    60b3:	4c 8d 05 f6 a6 00 00 	lea    0xa6f6(%rip),%r8        # 107b0 <__libc_csu_fini>
    60ba:	48 8d 0d 7f a6 00 00 	lea    0xa67f(%rip),%rcx        # 10740 <__libc_csu_init>
    60c1:	48 8d 3d 60 8b 00 00 	lea    0x8b60(%rip),%rdi        # ec28 <main>
    60c8:	ff 15 12 ef 00 00    	callq  *0xef12(%rip)        # 14fe0 <__libc_start_main@GLIBC_2.2.5>
    60ce:	f4                   	hlt    
    60cf:	90                   	nop

00000000000060d0 <deregister_tm_clones>:
    60d0:	48 8d 3d 11 2c 01 00 	lea    0x12c11(%rip),%rdi        # 18ce8 <__TMC_END__>
    60d7:	48 8d 05 0a 2c 01 00 	lea    0x12c0a(%rip),%rax        # 18ce8 <__TMC_END__>
    60de:	48 39 f8             	cmp    %rdi,%rax
    60e1:	74 15                	je     60f8 <deregister_tm_clones+0x28>
    60e3:	48 8b 05 ee ee 00 00 	mov    0xeeee(%rip),%rax        # 14fd8 <_ITM_deregisterTMCloneTable>
    60ea:	48 85 c0             	test   %rax,%rax
    60ed:	74 09                	je     60f8 <deregister_tm_clones+0x28>
    60ef:	ff e0                	jmpq   *%rax
    60f1:	0f 1f 80 00 00 00 00 	nopl   0x0(%rax)
    60f8:	c3                   	retq   
    60f9:	0f 1f 80 00 00 00 00 	nopl   0x0(%rax)

0000000000006100 <register_tm_clones>:
    6100:	48 8d 3d e1 2b 01 00 	lea    0x12be1(%rip),%rdi        # 18ce8 <__TMC_END__>
    6107:	48 8d 35 da 2b 01 00 	lea    0x12bda(%rip),%rsi        # 18ce8 <__TMC_END__>
    610e:	48 29 fe             	sub    %rdi,%rsi
    6111:	48 89 f0             	mov    %rsi,%rax
    6114:	48 c1 ee 3f          	shr    $0x3f,%rsi
    6118:	48 c1 f8 03          	sar    $0x3,%rax
    611c:	48 01 c6             	add    %rax,%rsi
    611f:	48 d1 fe             	sar    %rsi
    6122:	74 14                	je     6138 <register_tm_clones+0x38>
    6124:	48 8b 05 c5 ee 00 00 	mov    0xeec5(%rip),%rax        # 14ff0 <_ITM_registerTMCloneTable>
    612b:	48 85 c0             	test   %rax,%rax
    612e:	74 08                	je     6138 <register_tm_clones+0x38>
    6130:	ff e0                	jmpq   *%rax
    6132:	66 0f 1f 44 00 00    	nopw   0x0(%rax,%rax,1)
    6138:	c3                   	retq   
    6139:	0f 1f 80 00 00 00 00 	nopl   0x0(%rax)

0000000000006140 <__do_global_dtors_aux>:
    6140:	f3 0f 1e fa          	endbr64 
    6144:	80 3d b5 2b 01 00 00 	cmpb   $0x0,0x12bb5(%rip)        # 18d00 <completed.8061>
    614b:	75 2b                	jne    6178 <__do_global_dtors_aux+0x38>
    614d:	55                   	push   %rbp
    614e:	48 83 3d a2 ee 00 00 	cmpq   $0x0,0xeea2(%rip)        # 14ff8 <__cxa_finalize@GLIBC_2.2.5>
    6155:	00 
    6156:	48 89 e5             	mov    %rsp,%rbp
    6159:	74 0c                	je     6167 <__do_global_dtors_aux+0x27>
    615b:	48 8b 3d a6 ee 00 00 	mov    0xeea6(%rip),%rdi        # 15008 <__dso_handle>
    6162:	e8 f9 fe ff ff       	callq  6060 <__cxa_finalize@plt>
    6167:	e8 64 ff ff ff       	callq  60d0 <deregister_tm_clones>
    616c:	c6 05 8d 2b 01 00 01 	movb   $0x1,0x12b8d(%rip)        # 18d00 <completed.8061>
    6173:	5d                   	pop    %rbp
    6174:	c3                   	retq   
    6175:	0f 1f 00             	nopl   (%rax)
    6178:	c3                   	retq   
    6179:	0f 1f 80 00 00 00 00 	nopl   0x0(%rax)

0000000000006180 <frame_dummy>:
    6180:	f3 0f 1e fa          	endbr64 
    6184:	e9 77 ff ff ff       	jmpq   6100 <register_tm_clones>

0000000000006189 <platform_main_begin>:
    6189:	f3 0f 1e fa          	endbr64 
    618d:	55                   	push   %rbp
    618e:	48 89 e5             	mov    %rsp,%rbp
    6191:	90                   	nop
    6192:	5d                   	pop    %rbp
    6193:	c3                   	retq   

0000000000006194 <platform_main_end>:
    6194:	f3 0f 1e fa          	endbr64 
    6198:	55                   	push   %rbp
    6199:	48 89 e5             	mov    %rsp,%rbp
    619c:	48 83 ec 10          	sub    $0x10,%rsp
    61a0:	89 7d fc             	mov    %edi,-0x4(%rbp)
    61a3:	89 75 f8             	mov    %esi,-0x8(%rbp)
    61a6:	8b 45 fc             	mov    -0x4(%rbp),%eax
    61a9:	89 c6                	mov    %eax,%esi
    61ab:	48 8d 3d 6e ae 00 00 	lea    0xae6e(%rip),%rdi        # 11020 <_IO_stdin_used+0x20>
    61b2:	b8 00 00 00 00       	mov    $0x0,%eax
    61b7:	e8 c4 fe ff ff       	callq  6080 <printf@plt>
    61bc:	90                   	nop
    61bd:	c9                   	leaveq 
    61be:	c3                   	retq   

00000000000061bf <safe_unary_minus_func_int8_t_s>:
    61bf:	f3 0f 1e fa          	endbr64 
    61c3:	55                   	push   %rbp
    61c4:	48 89 e5             	mov    %rsp,%rbp
    61c7:	89 f8                	mov    %edi,%eax
    61c9:	88 45 fc             	mov    %al,-0x4(%rbp)
    61cc:	0f b6 45 fc          	movzbl -0x4(%rbp),%eax
    61d0:	f7 d8                	neg    %eax
    61d2:	5d                   	pop    %rbp
    61d3:	c3                   	retq   

00000000000061d4 <safe_add_func_int8_t_s_s>:
    61d4:	f3 0f 1e fa          	endbr64 
    61d8:	55                   	push   %rbp
    61d9:	48 89 e5             	mov    %rsp,%rbp
    61dc:	89 fa                	mov    %edi,%edx
    61de:	89 f0                	mov    %esi,%eax
    61e0:	88 55 fc             	mov    %dl,-0x4(%rbp)
    61e3:	88 45 f8             	mov    %al,-0x8(%rbp)
    61e6:	0f b6 55 fc          	movzbl -0x4(%rbp),%edx
    61ea:	0f b6 45 f8          	movzbl -0x8(%rbp),%eax
    61ee:	01 d0                	add    %edx,%eax
    61f0:	5d                   	pop    %rbp
    61f1:	c3                   	retq   

00000000000061f2 <safe_sub_func_int8_t_s_s>:
    61f2:	f3 0f 1e fa          	endbr64 
    61f6:	55                   	push   %rbp
    61f7:	48 89 e5             	mov    %rsp,%rbp
    61fa:	89 fa                	mov    %edi,%edx
    61fc:	89 f0                	mov    %esi,%eax
    61fe:	88 55 fc             	mov    %dl,-0x4(%rbp)
    6201:	88 45 f8             	mov    %al,-0x8(%rbp)
    6204:	0f b6 55 fc          	movzbl -0x4(%rbp),%edx
    6208:	0f b6 45 f8          	movzbl -0x8(%rbp),%eax
    620c:	29 c2                	sub    %eax,%edx
    620e:	89 d0                	mov    %edx,%eax
    6210:	5d                   	pop    %rbp
    6211:	c3                   	retq   

0000000000006212 <safe_mul_func_int8_t_s_s>:
    6212:	f3 0f 1e fa          	endbr64 
    6216:	55                   	push   %rbp
    6217:	48 89 e5             	mov    %rsp,%rbp
    621a:	89 fa                	mov    %edi,%edx
    621c:	89 f0                	mov    %esi,%eax
    621e:	88 55 fc             	mov    %dl,-0x4(%rbp)
    6221:	88 45 f8             	mov    %al,-0x8(%rbp)
    6224:	0f b6 45 fc          	movzbl -0x4(%rbp),%eax
    6228:	0f b6 55 f8          	movzbl -0x8(%rbp),%edx
    622c:	0f af c2             	imul   %edx,%eax
    622f:	5d                   	pop    %rbp
    6230:	c3                   	retq   

0000000000006231 <safe_mod_func_int8_t_s_s>:
    6231:	f3 0f 1e fa          	endbr64 
    6235:	55                   	push   %rbp
    6236:	48 89 e5             	mov    %rsp,%rbp
    6239:	89 fa                	mov    %edi,%edx
    623b:	89 f0                	mov    %esi,%eax
    623d:	88 55 fc             	mov    %dl,-0x4(%rbp)
    6240:	88 45 f8             	mov    %al,-0x8(%rbp)
    6243:	80 7d f8 00          	cmpb   $0x0,-0x8(%rbp)
    6247:	74 1b                	je     6264 <safe_mod_func_int8_t_s_s+0x33>
    6249:	80 7d fc 80          	cmpb   $0x80,-0x4(%rbp)
    624d:	75 06                	jne    6255 <safe_mod_func_int8_t_s_s+0x24>
    624f:	80 7d f8 ff          	cmpb   $0xff,-0x8(%rbp)
    6253:	74 0f                	je     6264 <safe_mod_func_int8_t_s_s+0x33>
    6255:	0f be 45 fc          	movsbl -0x4(%rbp),%eax
    6259:	0f be 4d f8          	movsbl -0x8(%rbp),%ecx
    625d:	99                   	cltd   
    625e:	f7 f9                	idiv   %ecx
    6260:	89 d0                	mov    %edx,%eax
    6262:	eb 04                	jmp    6268 <safe_mod_func_int8_t_s_s+0x37>
    6264:	0f b6 45 fc          	movzbl -0x4(%rbp),%eax
    6268:	5d                   	pop    %rbp
    6269:	c3                   	retq   

000000000000626a <safe_div_func_int8_t_s_s>:
    626a:	f3 0f 1e fa          	endbr64 
    626e:	55                   	push   %rbp
    626f:	48 89 e5             	mov    %rsp,%rbp
    6272:	89 fa                	mov    %edi,%edx
    6274:	89 f0                	mov    %esi,%eax
    6276:	88 55 fc             	mov    %dl,-0x4(%rbp)
    6279:	88 45 f8             	mov    %al,-0x8(%rbp)
    627c:	80 7d f8 00          	cmpb   $0x0,-0x8(%rbp)
    6280:	74 19                	je     629b <safe_div_func_int8_t_s_s+0x31>
    6282:	80 7d fc 80          	cmpb   $0x80,-0x4(%rbp)
    6286:	75 06                	jne    628e <safe_div_func_int8_t_s_s+0x24>
    6288:	80 7d f8 ff          	cmpb   $0xff,-0x8(%rbp)
    628c:	74 0d                	je     629b <safe_div_func_int8_t_s_s+0x31>
    628e:	0f be 45 fc          	movsbl -0x4(%rbp),%eax
    6292:	0f be 4d f8          	movsbl -0x8(%rbp),%ecx
    6296:	99                   	cltd   
    6297:	f7 f9                	idiv   %ecx
    6299:	eb 04                	jmp    629f <safe_div_func_int8_t_s_s+0x35>
    629b:	0f b6 45 fc          	movzbl -0x4(%rbp),%eax
    629f:	5d                   	pop    %rbp
    62a0:	c3                   	retq   

00000000000062a1 <safe_lshift_func_int8_t_s_s>:
    62a1:	f3 0f 1e fa          	endbr64 
    62a5:	55                   	push   %rbp
    62a6:	48 89 e5             	mov    %rsp,%rbp
    62a9:	89 f8                	mov    %edi,%eax
    62ab:	89 75 f8             	mov    %esi,-0x8(%rbp)
    62ae:	88 45 fc             	mov    %al,-0x4(%rbp)
    62b1:	80 7d fc 00          	cmpb   $0x0,-0x4(%rbp)
    62b5:	78 31                	js     62e8 <safe_lshift_func_int8_t_s_s+0x47>
    62b7:	83 7d f8 00          	cmpl   $0x0,-0x8(%rbp)
    62bb:	78 2b                	js     62e8 <safe_lshift_func_int8_t_s_s+0x47>
    62bd:	83 7d f8 1f          	cmpl   $0x1f,-0x8(%rbp)
    62c1:	7f 25                	jg     62e8 <safe_lshift_func_int8_t_s_s+0x47>
    62c3:	0f be 55 fc          	movsbl -0x4(%rbp),%edx
    62c7:	8b 45 f8             	mov    -0x8(%rbp),%eax
    62ca:	be 7f 00 00 00       	mov    $0x7f,%esi
    62cf:	89 c1                	mov    %eax,%ecx
    62d1:	d3 fe                	sar    %cl,%esi
    62d3:	89 f0                	mov    %esi,%eax
    62d5:	39 c2                	cmp    %eax,%edx
    62d7:	7f 0f                	jg     62e8 <safe_lshift_func_int8_t_s_s+0x47>
    62d9:	0f be 55 fc          	movsbl -0x4(%rbp),%edx
    62dd:	8b 45 f8             	mov    -0x8(%rbp),%eax
    62e0:	89 c1                	mov    %eax,%ecx
    62e2:	d3 e2                	shl    %cl,%edx
    62e4:	89 d0                	mov    %edx,%eax
    62e6:	eb 04                	jmp    62ec <safe_lshift_func_int8_t_s_s+0x4b>
    62e8:	0f b6 45 fc          	movzbl -0x4(%rbp),%eax
    62ec:	5d                   	pop    %rbp
    62ed:	c3                   	retq   

00000000000062ee <safe_lshift_func_int8_t_s_u>:
    62ee:	f3 0f 1e fa          	endbr64 
    62f2:	55                   	push   %rbp
    62f3:	48 89 e5             	mov    %rsp,%rbp
    62f6:	89 f8                	mov    %edi,%eax
    62f8:	89 75 f8             	mov    %esi,-0x8(%rbp)
    62fb:	88 45 fc             	mov    %al,-0x4(%rbp)
    62fe:	80 7d fc 00          	cmpb   $0x0,-0x4(%rbp)
    6302:	78 2b                	js     632f <safe_lshift_func_int8_t_s_u+0x41>
    6304:	83 7d f8 1f          	cmpl   $0x1f,-0x8(%rbp)
    6308:	77 25                	ja     632f <safe_lshift_func_int8_t_s_u+0x41>
    630a:	0f be 55 fc          	movsbl -0x4(%rbp),%edx
    630e:	8b 45 f8             	mov    -0x8(%rbp),%eax
    6311:	be 7f 00 00 00       	mov    $0x7f,%esi
    6316:	89 c1                	mov    %eax,%ecx
    6318:	d3 fe                	sar    %cl,%esi
    631a:	89 f0                	mov    %esi,%eax
    631c:	39 c2                	cmp    %eax,%edx
    631e:	7f 0f                	jg     632f <safe_lshift_func_int8_t_s_u+0x41>
    6320:	0f be 55 fc          	movsbl -0x4(%rbp),%edx
    6324:	8b 45 f8             	mov    -0x8(%rbp),%eax
    6327:	89 c1                	mov    %eax,%ecx
    6329:	d3 e2                	shl    %cl,%edx
    632b:	89 d0                	mov    %edx,%eax
    632d:	eb 04                	jmp    6333 <safe_lshift_func_int8_t_s_u+0x45>
    632f:	0f b6 45 fc          	movzbl -0x4(%rbp),%eax
    6333:	5d                   	pop    %rbp
    6334:	c3                   	retq   

0000000000006335 <safe_rshift_func_int8_t_s_s>:
    6335:	f3 0f 1e fa          	endbr64 
    6339:	55                   	push   %rbp
    633a:	48 89 e5             	mov    %rsp,%rbp
    633d:	89 f8                	mov    %edi,%eax
    633f:	89 75 f8             	mov    %esi,-0x8(%rbp)
    6342:	88 45 fc             	mov    %al,-0x4(%rbp)
    6345:	80 7d fc 00          	cmpb   $0x0,-0x4(%rbp)
    6349:	78 1b                	js     6366 <safe_rshift_func_int8_t_s_s+0x31>
    634b:	83 7d f8 00          	cmpl   $0x0,-0x8(%rbp)
    634f:	78 15                	js     6366 <safe_rshift_func_int8_t_s_s+0x31>
    6351:	83 7d f8 1f          	cmpl   $0x1f,-0x8(%rbp)
    6355:	7f 0f                	jg     6366 <safe_rshift_func_int8_t_s_s+0x31>
    6357:	0f be 55 fc          	movsbl -0x4(%rbp),%edx
    635b:	8b 45 f8             	mov    -0x8(%rbp),%eax
    635e:	89 c1                	mov    %eax,%ecx
    6360:	d3 fa                	sar    %cl,%edx
    6362:	89 d0                	mov    %edx,%eax
    6364:	eb 04                	jmp    636a <safe_rshift_func_int8_t_s_s+0x35>
    6366:	0f b6 45 fc          	movzbl -0x4(%rbp),%eax
    636a:	5d                   	pop    %rbp
    636b:	c3                   	retq   

000000000000636c <safe_rshift_func_int8_t_s_u>:
    636c:	f3 0f 1e fa          	endbr64 
    6370:	55                   	push   %rbp
    6371:	48 89 e5             	mov    %rsp,%rbp
    6374:	89 f8                	mov    %edi,%eax
    6376:	89 75 f8             	mov    %esi,-0x8(%rbp)
    6379:	88 45 fc             	mov    %al,-0x4(%rbp)
    637c:	80 7d fc 00          	cmpb   $0x0,-0x4(%rbp)
    6380:	78 15                	js     6397 <safe_rshift_func_int8_t_s_u+0x2b>
    6382:	83 7d f8 1f          	cmpl   $0x1f,-0x8(%rbp)
    6386:	77 0f                	ja     6397 <safe_rshift_func_int8_t_s_u+0x2b>
    6388:	0f be 55 fc          	movsbl -0x4(%rbp),%edx
    638c:	8b 45 f8             	mov    -0x8(%rbp),%eax
    638f:	89 c1                	mov    %eax,%ecx
    6391:	d3 fa                	sar    %cl,%edx
    6393:	89 d0                	mov    %edx,%eax
    6395:	eb 04                	jmp    639b <safe_rshift_func_int8_t_s_u+0x2f>
    6397:	0f b6 45 fc          	movzbl -0x4(%rbp),%eax
    639b:	5d                   	pop    %rbp
    639c:	c3                   	retq   

000000000000639d <safe_unary_minus_func_int16_t_s>:
    639d:	f3 0f 1e fa          	endbr64 
    63a1:	55                   	push   %rbp
    63a2:	48 89 e5             	mov    %rsp,%rbp
    63a5:	89 f8                	mov    %edi,%eax
    63a7:	66 89 45 fc          	mov    %ax,-0x4(%rbp)
    63ab:	0f b7 45 fc          	movzwl -0x4(%rbp),%eax
    63af:	f7 d8                	neg    %eax
    63b1:	5d                   	pop    %rbp
    63b2:	c3                   	retq   

00000000000063b3 <safe_add_func_int16_t_s_s>:
    63b3:	f3 0f 1e fa          	endbr64 
    63b7:	55                   	push   %rbp
    63b8:	48 89 e5             	mov    %rsp,%rbp
    63bb:	89 fa                	mov    %edi,%edx
    63bd:	89 f0                	mov    %esi,%eax
    63bf:	66 89 55 fc          	mov    %dx,-0x4(%rbp)
    63c3:	66 89 45 f8          	mov    %ax,-0x8(%rbp)
    63c7:	0f b7 55 fc          	movzwl -0x4(%rbp),%edx
    63cb:	0f b7 45 f8          	movzwl -0x8(%rbp),%eax
    63cf:	01 d0                	add    %edx,%eax
    63d1:	5d                   	pop    %rbp
    63d2:	c3                   	retq   

00000000000063d3 <safe_sub_func_int16_t_s_s>:
    63d3:	f3 0f 1e fa          	endbr64 
    63d7:	55                   	push   %rbp
    63d8:	48 89 e5             	mov    %rsp,%rbp
    63db:	89 fa                	mov    %edi,%edx
    63dd:	89 f0                	mov    %esi,%eax
    63df:	66 89 55 fc          	mov    %dx,-0x4(%rbp)
    63e3:	66 89 45 f8          	mov    %ax,-0x8(%rbp)
    63e7:	0f b7 55 fc          	movzwl -0x4(%rbp),%edx
    63eb:	0f b7 45 f8          	movzwl -0x8(%rbp),%eax
    63ef:	29 c2                	sub    %eax,%edx
    63f1:	89 d0                	mov    %edx,%eax
    63f3:	5d                   	pop    %rbp
    63f4:	c3                   	retq   

00000000000063f5 <safe_mul_func_int16_t_s_s>:
    63f5:	f3 0f 1e fa          	endbr64 
    63f9:	55                   	push   %rbp
    63fa:	48 89 e5             	mov    %rsp,%rbp
    63fd:	89 fa                	mov    %edi,%edx
    63ff:	89 f0                	mov    %esi,%eax
    6401:	66 89 55 fc          	mov    %dx,-0x4(%rbp)
    6405:	66 89 45 f8          	mov    %ax,-0x8(%rbp)
    6409:	0f b7 55 fc          	movzwl -0x4(%rbp),%edx
    640d:	0f b7 45 f8          	movzwl -0x8(%rbp),%eax
    6411:	0f af c2             	imul   %edx,%eax
    6414:	5d                   	pop    %rbp
    6415:	c3                   	retq   

0000000000006416 <safe_mod_func_int16_t_s_s>:
    6416:	f3 0f 1e fa          	endbr64 
    641a:	55                   	push   %rbp
    641b:	48 89 e5             	mov    %rsp,%rbp
    641e:	89 fa                	mov    %edi,%edx
    6420:	89 f0                	mov    %esi,%eax
    6422:	66 89 55 fc          	mov    %dx,-0x4(%rbp)
    6426:	66 89 45 f8          	mov    %ax,-0x8(%rbp)
    642a:	66 83 7d f8 00       	cmpw   $0x0,-0x8(%rbp)
    642f:	74 1e                	je     644f <safe_mod_func_int16_t_s_s+0x39>
    6431:	66 81 7d fc 00 80    	cmpw   $0x8000,-0x4(%rbp)
    6437:	75 07                	jne    6440 <safe_mod_func_int16_t_s_s+0x2a>
    6439:	66 83 7d f8 ff       	cmpw   $0xffff,-0x8(%rbp)
    643e:	74 0f                	je     644f <safe_mod_func_int16_t_s_s+0x39>
    6440:	0f bf 45 fc          	movswl -0x4(%rbp),%eax
    6444:	0f bf 4d f8          	movswl -0x8(%rbp),%ecx
    6448:	99                   	cltd   
    6449:	f7 f9                	idiv   %ecx
    644b:	89 d0                	mov    %edx,%eax
    644d:	eb 04                	jmp    6453 <safe_mod_func_int16_t_s_s+0x3d>
    644f:	0f b7 45 fc          	movzwl -0x4(%rbp),%eax
    6453:	5d                   	pop    %rbp
    6454:	c3                   	retq   

0000000000006455 <safe_div_func_int16_t_s_s>:
    6455:	f3 0f 1e fa          	endbr64 
    6459:	55                   	push   %rbp
    645a:	48 89 e5             	mov    %rsp,%rbp
    645d:	89 fa                	mov    %edi,%edx
    645f:	89 f0                	mov    %esi,%eax
    6461:	66 89 55 fc          	mov    %dx,-0x4(%rbp)
    6465:	66 89 45 f8          	mov    %ax,-0x8(%rbp)
    6469:	66 83 7d f8 00       	cmpw   $0x0,-0x8(%rbp)
    646e:	74 1c                	je     648c <safe_div_func_int16_t_s_s+0x37>
    6470:	66 81 7d fc 00 80    	cmpw   $0x8000,-0x4(%rbp)
    6476:	75 07                	jne    647f <safe_div_func_int16_t_s_s+0x2a>
    6478:	66 83 7d f8 ff       	cmpw   $0xffff,-0x8(%rbp)
    647d:	74 0d                	je     648c <safe_div_func_int16_t_s_s+0x37>
    647f:	0f bf 45 fc          	movswl -0x4(%rbp),%eax
    6483:	0f bf 4d f8          	movswl -0x8(%rbp),%ecx
    6487:	99                   	cltd   
    6488:	f7 f9                	idiv   %ecx
    648a:	eb 04                	jmp    6490 <safe_div_func_int16_t_s_s+0x3b>
    648c:	0f b7 45 fc          	movzwl -0x4(%rbp),%eax
    6490:	5d                   	pop    %rbp
    6491:	c3                   	retq   

0000000000006492 <safe_lshift_func_int16_t_s_s>:
    6492:	f3 0f 1e fa          	endbr64 
    6496:	55                   	push   %rbp
    6497:	48 89 e5             	mov    %rsp,%rbp
    649a:	89 f8                	mov    %edi,%eax
    649c:	89 75 f8             	mov    %esi,-0x8(%rbp)
    649f:	66 89 45 fc          	mov    %ax,-0x4(%rbp)
    64a3:	66 83 7d fc 00       	cmpw   $0x0,-0x4(%rbp)
    64a8:	78 31                	js     64db <safe_lshift_func_int16_t_s_s+0x49>
    64aa:	83 7d f8 00          	cmpl   $0x0,-0x8(%rbp)
    64ae:	78 2b                	js     64db <safe_lshift_func_int16_t_s_s+0x49>
    64b0:	83 7d f8 1f          	cmpl   $0x1f,-0x8(%rbp)
    64b4:	7f 25                	jg     64db <safe_lshift_func_int16_t_s_s+0x49>
    64b6:	0f bf 55 fc          	movswl -0x4(%rbp),%edx
    64ba:	8b 45 f8             	mov    -0x8(%rbp),%eax
    64bd:	be ff 7f 00 00       	mov    $0x7fff,%esi
    64c2:	89 c1                	mov    %eax,%ecx
    64c4:	d3 fe                	sar    %cl,%esi
    64c6:	89 f0                	mov    %esi,%eax
    64c8:	39 c2                	cmp    %eax,%edx
    64ca:	7f 0f                	jg     64db <safe_lshift_func_int16_t_s_s+0x49>
    64cc:	0f bf 55 fc          	movswl -0x4(%rbp),%edx
    64d0:	8b 45 f8             	mov    -0x8(%rbp),%eax
    64d3:	89 c1                	mov    %eax,%ecx
    64d5:	d3 e2                	shl    %cl,%edx
    64d7:	89 d0                	mov    %edx,%eax
    64d9:	eb 04                	jmp    64df <safe_lshift_func_int16_t_s_s+0x4d>
    64db:	0f b7 45 fc          	movzwl -0x4(%rbp),%eax
    64df:	5d                   	pop    %rbp
    64e0:	c3                   	retq   

00000000000064e1 <safe_lshift_func_int16_t_s_u>:
    64e1:	f3 0f 1e fa          	endbr64 
    64e5:	55                   	push   %rbp
    64e6:	48 89 e5             	mov    %rsp,%rbp
    64e9:	89 f8                	mov    %edi,%eax
    64eb:	89 75 f8             	mov    %esi,-0x8(%rbp)
    64ee:	66 89 45 fc          	mov    %ax,-0x4(%rbp)
    64f2:	66 83 7d fc 00       	cmpw   $0x0,-0x4(%rbp)
    64f7:	78 2b                	js     6524 <safe_lshift_func_int16_t_s_u+0x43>
    64f9:	83 7d f8 1f          	cmpl   $0x1f,-0x8(%rbp)
    64fd:	77 25                	ja     6524 <safe_lshift_func_int16_t_s_u+0x43>
    64ff:	0f bf 55 fc          	movswl -0x4(%rbp),%edx
    6503:	8b 45 f8             	mov    -0x8(%rbp),%eax
    6506:	be ff 7f 00 00       	mov    $0x7fff,%esi
    650b:	89 c1                	mov    %eax,%ecx
    650d:	d3 fe                	sar    %cl,%esi
    650f:	89 f0                	mov    %esi,%eax
    6511:	39 c2                	cmp    %eax,%edx
    6513:	7f 0f                	jg     6524 <safe_lshift_func_int16_t_s_u+0x43>
    6515:	0f bf 55 fc          	movswl -0x4(%rbp),%edx
    6519:	8b 45 f8             	mov    -0x8(%rbp),%eax
    651c:	89 c1                	mov    %eax,%ecx
    651e:	d3 e2                	shl    %cl,%edx
    6520:	89 d0                	mov    %edx,%eax
    6522:	eb 04                	jmp    6528 <safe_lshift_func_int16_t_s_u+0x47>
    6524:	0f b7 45 fc          	movzwl -0x4(%rbp),%eax
    6528:	5d                   	pop    %rbp
    6529:	c3                   	retq   

000000000000652a <safe_rshift_func_int16_t_s_s>:
    652a:	f3 0f 1e fa          	endbr64 
    652e:	55                   	push   %rbp
    652f:	48 89 e5             	mov    %rsp,%rbp
    6532:	89 f8                	mov    %edi,%eax
    6534:	89 75 f8             	mov    %esi,-0x8(%rbp)
    6537:	66 89 45 fc          	mov    %ax,-0x4(%rbp)
    653b:	66 83 7d fc 00       	cmpw   $0x0,-0x4(%rbp)
    6540:	78 1b                	js     655d <safe_rshift_func_int16_t_s_s+0x33>
    6542:	83 7d f8 00          	cmpl   $0x0,-0x8(%rbp)
    6546:	78 15                	js     655d <safe_rshift_func_int16_t_s_s+0x33>
    6548:	83 7d f8 1f          	cmpl   $0x1f,-0x8(%rbp)
    654c:	7f 0f                	jg     655d <safe_rshift_func_int16_t_s_s+0x33>
    654e:	0f bf 55 fc          	movswl -0x4(%rbp),%edx
    6552:	8b 45 f8             	mov    -0x8(%rbp),%eax
    6555:	89 c1                	mov    %eax,%ecx
    6557:	d3 fa                	sar    %cl,%edx
    6559:	89 d0                	mov    %edx,%eax
    655b:	eb 04                	jmp    6561 <safe_rshift_func_int16_t_s_s+0x37>
    655d:	0f b7 45 fc          	movzwl -0x4(%rbp),%eax
    6561:	5d                   	pop    %rbp
    6562:	c3                   	retq   

0000000000006563 <safe_rshift_func_int16_t_s_u>:
    6563:	f3 0f 1e fa          	endbr64 
    6567:	55                   	push   %rbp
    6568:	48 89 e5             	mov    %rsp,%rbp
    656b:	89 f8                	mov    %edi,%eax
    656d:	89 75 f8             	mov    %esi,-0x8(%rbp)
    6570:	66 89 45 fc          	mov    %ax,-0x4(%rbp)
    6574:	66 83 7d fc 00       	cmpw   $0x0,-0x4(%rbp)
    6579:	78 15                	js     6590 <safe_rshift_func_int16_t_s_u+0x2d>
    657b:	83 7d f8 1f          	cmpl   $0x1f,-0x8(%rbp)
    657f:	77 0f                	ja     6590 <safe_rshift_func_int16_t_s_u+0x2d>
    6581:	0f bf 55 fc          	movswl -0x4(%rbp),%edx
    6585:	8b 45 f8             	mov    -0x8(%rbp),%eax
    6588:	89 c1                	mov    %eax,%ecx
    658a:	d3 fa                	sar    %cl,%edx
    658c:	89 d0                	mov    %edx,%eax
    658e:	eb 04                	jmp    6594 <safe_rshift_func_int16_t_s_u+0x31>
    6590:	0f b7 45 fc          	movzwl -0x4(%rbp),%eax
    6594:	5d                   	pop    %rbp
    6595:	c3                   	retq   

0000000000006596 <safe_unary_minus_func_int32_t_s>:
    6596:	f3 0f 1e fa          	endbr64 
    659a:	55                   	push   %rbp
    659b:	48 89 e5             	mov    %rsp,%rbp
    659e:	89 7d fc             	mov    %edi,-0x4(%rbp)
    65a1:	81 7d fc 00 00 00 80 	cmpl   $0x80000000,-0x4(%rbp)
    65a8:	74 07                	je     65b1 <safe_unary_minus_func_int32_t_s+0x1b>
    65aa:	8b 45 fc             	mov    -0x4(%rbp),%eax
    65ad:	f7 d8                	neg    %eax
    65af:	eb 03                	jmp    65b4 <safe_unary_minus_func_int32_t_s+0x1e>
    65b1:	8b 45 fc             	mov    -0x4(%rbp),%eax
    65b4:	5d                   	pop    %rbp
    65b5:	c3                   	retq   

00000000000065b6 <safe_add_func_int32_t_s_s>:
    65b6:	f3 0f 1e fa          	endbr64 
    65ba:	55                   	push   %rbp
    65bb:	48 89 e5             	mov    %rsp,%rbp
    65be:	89 7d fc             	mov    %edi,-0x4(%rbp)
    65c1:	89 75 f8             	mov    %esi,-0x8(%rbp)
    65c4:	83 7d fc 00          	cmpl   $0x0,-0x4(%rbp)
    65c8:	7e 13                	jle    65dd <safe_add_func_int32_t_s_s+0x27>
    65ca:	83 7d f8 00          	cmpl   $0x0,-0x8(%rbp)
    65ce:	7e 0d                	jle    65dd <safe_add_func_int32_t_s_s+0x27>
    65d0:	b8 ff ff ff 7f       	mov    $0x7fffffff,%eax
    65d5:	2b 45 f8             	sub    -0x8(%rbp),%eax
    65d8:	39 45 fc             	cmp    %eax,-0x4(%rbp)
    65db:	7f 23                	jg     6600 <safe_add_func_int32_t_s_s+0x4a>
    65dd:	83 7d fc 00          	cmpl   $0x0,-0x4(%rbp)
    65e1:	79 13                	jns    65f6 <safe_add_func_int32_t_s_s+0x40>
    65e3:	83 7d f8 00          	cmpl   $0x0,-0x8(%rbp)
    65e7:	79 0d                	jns    65f6 <safe_add_func_int32_t_s_s+0x40>
    65e9:	b8 00 00 00 80       	mov    $0x80000000,%eax
    65ee:	2b 45 f8             	sub    -0x8(%rbp),%eax
    65f1:	39 45 fc             	cmp    %eax,-0x4(%rbp)
    65f4:	7c 0a                	jl     6600 <safe_add_func_int32_t_s_s+0x4a>
    65f6:	8b 55 fc             	mov    -0x4(%rbp),%edx
    65f9:	8b 45 f8             	mov    -0x8(%rbp),%eax
    65fc:	01 d0                	add    %edx,%eax
    65fe:	eb 03                	jmp    6603 <safe_add_func_int32_t_s_s+0x4d>
    6600:	8b 45 fc             	mov    -0x4(%rbp),%eax
    6603:	5d                   	pop    %rbp
    6604:	c3                   	retq   

0000000000006605 <safe_sub_func_int32_t_s_s>:
    6605:	f3 0f 1e fa          	endbr64 
    6609:	55                   	push   %rbp
    660a:	48 89 e5             	mov    %rsp,%rbp
    660d:	89 7d fc             	mov    %edi,-0x4(%rbp)
    6610:	89 75 f8             	mov    %esi,-0x8(%rbp)
    6613:	8b 45 fc             	mov    -0x4(%rbp),%eax
    6616:	33 45 f8             	xor    -0x8(%rbp),%eax
    6619:	89 c2                	mov    %eax,%edx
    661b:	8b 45 fc             	mov    -0x4(%rbp),%eax
    661e:	33 45 f8             	xor    -0x8(%rbp),%eax
    6621:	25 00 00 00 80       	and    $0x80000000,%eax
    6626:	33 45 fc             	xor    -0x4(%rbp),%eax
    6629:	2b 45 f8             	sub    -0x8(%rbp),%eax
    662c:	33 45 f8             	xor    -0x8(%rbp),%eax
    662f:	21 d0                	and    %edx,%eax
    6631:	85 c0                	test   %eax,%eax
    6633:	78 08                	js     663d <safe_sub_func_int32_t_s_s+0x38>
    6635:	8b 45 fc             	mov    -0x4(%rbp),%eax
    6638:	2b 45 f8             	sub    -0x8(%rbp),%eax
    663b:	eb 03                	jmp    6640 <safe_sub_func_int32_t_s_s+0x3b>
    663d:	8b 45 fc             	mov    -0x4(%rbp),%eax
    6640:	5d                   	pop    %rbp
    6641:	c3                   	retq   

0000000000006642 <safe_mul_func_int32_t_s_s>:
    6642:	f3 0f 1e fa          	endbr64 
    6646:	55                   	push   %rbp
    6647:	48 89 e5             	mov    %rsp,%rbp
    664a:	89 7d fc             	mov    %edi,-0x4(%rbp)
    664d:	89 75 f8             	mov    %esi,-0x8(%rbp)
    6650:	83 7d fc 00          	cmpl   $0x0,-0x4(%rbp)
    6654:	7e 14                	jle    666a <safe_mul_func_int32_t_s_s+0x28>
    6656:	83 7d f8 00          	cmpl   $0x0,-0x8(%rbp)
    665a:	7e 0e                	jle    666a <safe_mul_func_int32_t_s_s+0x28>
    665c:	b8 ff ff ff 7f       	mov    $0x7fffffff,%eax
    6661:	99                   	cltd   
    6662:	f7 7d f8             	idivl  -0x8(%rbp)
    6665:	39 45 fc             	cmp    %eax,-0x4(%rbp)
    6668:	7f 5d                	jg     66c7 <safe_mul_func_int32_t_s_s+0x85>
    666a:	83 7d fc 00          	cmpl   $0x0,-0x4(%rbp)
    666e:	7e 14                	jle    6684 <safe_mul_func_int32_t_s_s+0x42>
    6670:	83 7d f8 00          	cmpl   $0x0,-0x8(%rbp)
    6674:	7f 0e                	jg     6684 <safe_mul_func_int32_t_s_s+0x42>
    6676:	b8 00 00 00 80       	mov    $0x80000000,%eax
    667b:	99                   	cltd   
    667c:	f7 7d fc             	idivl  -0x4(%rbp)
    667f:	39 45 f8             	cmp    %eax,-0x8(%rbp)
    6682:	7c 43                	jl     66c7 <safe_mul_func_int32_t_s_s+0x85>
    6684:	83 7d fc 00          	cmpl   $0x0,-0x4(%rbp)
    6688:	7f 14                	jg     669e <safe_mul_func_int32_t_s_s+0x5c>
    668a:	83 7d f8 00          	cmpl   $0x0,-0x8(%rbp)
    668e:	7e 0e                	jle    669e <safe_mul_func_int32_t_s_s+0x5c>
    6690:	b8 00 00 00 80       	mov    $0x80000000,%eax
    6695:	99                   	cltd   
    6696:	f7 7d f8             	idivl  -0x8(%rbp)
    6699:	39 45 fc             	cmp    %eax,-0x4(%rbp)
    669c:	7c 29                	jl     66c7 <safe_mul_func_int32_t_s_s+0x85>
    669e:	83 7d fc 00          	cmpl   $0x0,-0x4(%rbp)
    66a2:	7f 1a                	jg     66be <safe_mul_func_int32_t_s_s+0x7c>
    66a4:	83 7d f8 00          	cmpl   $0x0,-0x8(%rbp)
    66a8:	7f 14                	jg     66be <safe_mul_func_int32_t_s_s+0x7c>
    66aa:	83 7d fc 00          	cmpl   $0x0,-0x4(%rbp)
    66ae:	74 0e                	je     66be <safe_mul_func_int32_t_s_s+0x7c>
    66b0:	b8 ff ff ff 7f       	mov    $0x7fffffff,%eax
    66b5:	99                   	cltd   
    66b6:	f7 7d fc             	idivl  -0x4(%rbp)
    66b9:	39 45 f8             	cmp    %eax,-0x8(%rbp)
    66bc:	7c 09                	jl     66c7 <safe_mul_func_int32_t_s_s+0x85>
    66be:	8b 45 fc             	mov    -0x4(%rbp),%eax
    66c1:	0f af 45 f8          	imul   -0x8(%rbp),%eax
    66c5:	eb 03                	jmp    66ca <safe_mul_func_int32_t_s_s+0x88>
    66c7:	8b 45 fc             	mov    -0x4(%rbp),%eax
    66ca:	5d                   	pop    %rbp
    66cb:	c3                   	retq   

00000000000066cc <safe_mod_func_int32_t_s_s>:
    66cc:	f3 0f 1e fa          	endbr64 
    66d0:	55                   	push   %rbp
    66d1:	48 89 e5             	mov    %rsp,%rbp
    66d4:	89 7d fc             	mov    %edi,-0x4(%rbp)
    66d7:	89 75 f8             	mov    %esi,-0x8(%rbp)
    66da:	83 7d f8 00          	cmpl   $0x0,-0x8(%rbp)
    66de:	74 1a                	je     66fa <safe_mod_func_int32_t_s_s+0x2e>
    66e0:	81 7d fc 00 00 00 80 	cmpl   $0x80000000,-0x4(%rbp)
    66e7:	75 06                	jne    66ef <safe_mod_func_int32_t_s_s+0x23>
    66e9:	83 7d f8 ff          	cmpl   $0xffffffff,-0x8(%rbp)
    66ed:	74 0b                	je     66fa <safe_mod_func_int32_t_s_s+0x2e>
    66ef:	8b 45 fc             	mov    -0x4(%rbp),%eax
    66f2:	99                   	cltd   
    66f3:	f7 7d f8             	idivl  -0x8(%rbp)
    66f6:	89 d0                	mov    %edx,%eax
    66f8:	eb 03                	jmp    66fd <safe_mod_func_int32_t_s_s+0x31>
    66fa:	8b 45 fc             	mov    -0x4(%rbp),%eax
    66fd:	5d                   	pop    %rbp
    66fe:	c3                   	retq   

00000000000066ff <safe_div_func_int32_t_s_s>:
    66ff:	f3 0f 1e fa          	endbr64 
    6703:	55                   	push   %rbp
    6704:	48 89 e5             	mov    %rsp,%rbp
    6707:	89 7d fc             	mov    %edi,-0x4(%rbp)
    670a:	89 75 f8             	mov    %esi,-0x8(%rbp)
    670d:	83 7d f8 00          	cmpl   $0x0,-0x8(%rbp)
    6711:	74 18                	je     672b <safe_div_func_int32_t_s_s+0x2c>
    6713:	81 7d fc 00 00 00 80 	cmpl   $0x80000000,-0x4(%rbp)
    671a:	75 06                	jne    6722 <safe_div_func_int32_t_s_s+0x23>
    671c:	83 7d f8 ff          	cmpl   $0xffffffff,-0x8(%rbp)
    6720:	74 09                	je     672b <safe_div_func_int32_t_s_s+0x2c>
    6722:	8b 45 fc             	mov    -0x4(%rbp),%eax
    6725:	99                   	cltd   
    6726:	f7 7d f8             	idivl  -0x8(%rbp)
    6729:	eb 03                	jmp    672e <safe_div_func_int32_t_s_s+0x2f>
    672b:	8b 45 fc             	mov    -0x4(%rbp),%eax
    672e:	5d                   	pop    %rbp
    672f:	c3                   	retq   

0000000000006730 <safe_lshift_func_int32_t_s_s>:
    6730:	f3 0f 1e fa          	endbr64 
    6734:	55                   	push   %rbp
    6735:	48 89 e5             	mov    %rsp,%rbp
    6738:	89 7d fc             	mov    %edi,-0x4(%rbp)
    673b:	89 75 f8             	mov    %esi,-0x8(%rbp)
    673e:	83 7d fc 00          	cmpl   $0x0,-0x4(%rbp)
    6742:	78 2d                	js     6771 <safe_lshift_func_int32_t_s_s+0x41>
    6744:	83 7d f8 00          	cmpl   $0x0,-0x8(%rbp)
    6748:	78 27                	js     6771 <safe_lshift_func_int32_t_s_s+0x41>
    674a:	83 7d f8 1f          	cmpl   $0x1f,-0x8(%rbp)
    674e:	7f 21                	jg     6771 <safe_lshift_func_int32_t_s_s+0x41>
    6750:	8b 45 f8             	mov    -0x8(%rbp),%eax
    6753:	ba ff ff ff 7f       	mov    $0x7fffffff,%edx
    6758:	89 c1                	mov    %eax,%ecx
    675a:	d3 fa                	sar    %cl,%edx
    675c:	89 d0                	mov    %edx,%eax
    675e:	39 45 fc             	cmp    %eax,-0x4(%rbp)
    6761:	7f 0e                	jg     6771 <safe_lshift_func_int32_t_s_s+0x41>
    6763:	8b 45 f8             	mov    -0x8(%rbp),%eax
    6766:	8b 55 fc             	mov    -0x4(%rbp),%edx
    6769:	89 c1                	mov    %eax,%ecx
    676b:	d3 e2                	shl    %cl,%edx
    676d:	89 d0                	mov    %edx,%eax
    676f:	eb 03                	jmp    6774 <safe_lshift_func_int32_t_s_s+0x44>
    6771:	8b 45 fc             	mov    -0x4(%rbp),%eax
    6774:	5d                   	pop    %rbp
    6775:	c3                   	retq   

0000000000006776 <safe_lshift_func_int32_t_s_u>:
    6776:	f3 0f 1e fa          	endbr64 
    677a:	55                   	push   %rbp
    677b:	48 89 e5             	mov    %rsp,%rbp
    677e:	89 7d fc             	mov    %edi,-0x4(%rbp)
    6781:	89 75 f8             	mov    %esi,-0x8(%rbp)
    6784:	83 7d fc 00          	cmpl   $0x0,-0x4(%rbp)
    6788:	78 27                	js     67b1 <safe_lshift_func_int32_t_s_u+0x3b>
    678a:	83 7d f8 1f          	cmpl   $0x1f,-0x8(%rbp)
    678e:	77 21                	ja     67b1 <safe_lshift_func_int32_t_s_u+0x3b>
    6790:	8b 45 f8             	mov    -0x8(%rbp),%eax
    6793:	ba ff ff ff 7f       	mov    $0x7fffffff,%edx
    6798:	89 c1                	mov    %eax,%ecx
    679a:	d3 fa                	sar    %cl,%edx
    679c:	89 d0                	mov    %edx,%eax
    679e:	39 45 fc             	cmp    %eax,-0x4(%rbp)
    67a1:	7f 0e                	jg     67b1 <safe_lshift_func_int32_t_s_u+0x3b>
    67a3:	8b 45 f8             	mov    -0x8(%rbp),%eax
    67a6:	8b 55 fc             	mov    -0x4(%rbp),%edx
    67a9:	89 c1                	mov    %eax,%ecx
    67ab:	d3 e2                	shl    %cl,%edx
    67ad:	89 d0                	mov    %edx,%eax
    67af:	eb 03                	jmp    67b4 <safe_lshift_func_int32_t_s_u+0x3e>
    67b1:	8b 45 fc             	mov    -0x4(%rbp),%eax
    67b4:	5d                   	pop    %rbp
    67b5:	c3                   	retq   

00000000000067b6 <safe_rshift_func_int32_t_s_s>:
    67b6:	f3 0f 1e fa          	endbr64 
    67ba:	55                   	push   %rbp
    67bb:	48 89 e5             	mov    %rsp,%rbp
    67be:	89 7d fc             	mov    %edi,-0x4(%rbp)
    67c1:	89 75 f8             	mov    %esi,-0x8(%rbp)
    67c4:	83 7d fc 00          	cmpl   $0x0,-0x4(%rbp)
    67c8:	78 1a                	js     67e4 <safe_rshift_func_int32_t_s_s+0x2e>
    67ca:	83 7d f8 00          	cmpl   $0x0,-0x8(%rbp)
    67ce:	78 14                	js     67e4 <safe_rshift_func_int32_t_s_s+0x2e>
    67d0:	83 7d f8 1f          	cmpl   $0x1f,-0x8(%rbp)
    67d4:	7f 0e                	jg     67e4 <safe_rshift_func_int32_t_s_s+0x2e>
    67d6:	8b 45 f8             	mov    -0x8(%rbp),%eax
    67d9:	8b 55 fc             	mov    -0x4(%rbp),%edx
    67dc:	89 c1                	mov    %eax,%ecx
    67de:	d3 fa                	sar    %cl,%edx
    67e0:	89 d0                	mov    %edx,%eax
    67e2:	eb 03                	jmp    67e7 <safe_rshift_func_int32_t_s_s+0x31>
    67e4:	8b 45 fc             	mov    -0x4(%rbp),%eax
    67e7:	5d                   	pop    %rbp
    67e8:	c3                   	retq   

00000000000067e9 <safe_rshift_func_int32_t_s_u>:
    67e9:	f3 0f 1e fa          	endbr64 
    67ed:	55                   	push   %rbp
    67ee:	48 89 e5             	mov    %rsp,%rbp
    67f1:	89 7d fc             	mov    %edi,-0x4(%rbp)
    67f4:	89 75 f8             	mov    %esi,-0x8(%rbp)
    67f7:	83 7d fc 00          	cmpl   $0x0,-0x4(%rbp)
    67fb:	78 14                	js     6811 <safe_rshift_func_int32_t_s_u+0x28>
    67fd:	83 7d f8 1f          	cmpl   $0x1f,-0x8(%rbp)
    6801:	77 0e                	ja     6811 <safe_rshift_func_int32_t_s_u+0x28>
    6803:	8b 45 f8             	mov    -0x8(%rbp),%eax
    6806:	8b 55 fc             	mov    -0x4(%rbp),%edx
    6809:	89 c1                	mov    %eax,%ecx
    680b:	d3 fa                	sar    %cl,%edx
    680d:	89 d0                	mov    %edx,%eax
    680f:	eb 03                	jmp    6814 <safe_rshift_func_int32_t_s_u+0x2b>
    6811:	8b 45 fc             	mov    -0x4(%rbp),%eax
    6814:	5d                   	pop    %rbp
    6815:	c3                   	retq   

0000000000006816 <safe_unary_minus_func_int64_t_s>:
    6816:	f3 0f 1e fa          	endbr64 
    681a:	55                   	push   %rbp
    681b:	48 89 e5             	mov    %rsp,%rbp
    681e:	48 89 7d f8          	mov    %rdi,-0x8(%rbp)
    6822:	48 b8 00 00 00 00 00 	movabs $0x8000000000000000,%rax
    6829:	00 00 80 
    682c:	48 39 45 f8          	cmp    %rax,-0x8(%rbp)
    6830:	74 09                	je     683b <safe_unary_minus_func_int64_t_s+0x25>
    6832:	48 8b 45 f8          	mov    -0x8(%rbp),%rax
    6836:	48 f7 d8             	neg    %rax
    6839:	eb 04                	jmp    683f <safe_unary_minus_func_int64_t_s+0x29>
    683b:	48 8b 45 f8          	mov    -0x8(%rbp),%rax
    683f:	5d                   	pop    %rbp
    6840:	c3                   	retq   

0000000000006841 <safe_add_func_int64_t_s_s>:
    6841:	f3 0f 1e fa          	endbr64 
    6845:	55                   	push   %rbp
    6846:	48 89 e5             	mov    %rsp,%rbp
    6849:	48 89 7d f8          	mov    %rdi,-0x8(%rbp)
    684d:	48 89 75 f0          	mov    %rsi,-0x10(%rbp)
    6851:	48 83 7d f8 00       	cmpq   $0x0,-0x8(%rbp)
    6856:	7e 1b                	jle    6873 <safe_add_func_int64_t_s_s+0x32>
    6858:	48 83 7d f0 00       	cmpq   $0x0,-0x10(%rbp)
    685d:	7e 14                	jle    6873 <safe_add_func_int64_t_s_s+0x32>
    685f:	48 b8 ff ff ff ff ff 	movabs $0x7fffffffffffffff,%rax
    6866:	ff ff 7f 
    6869:	48 2b 45 f0          	sub    -0x10(%rbp),%rax
    686d:	48 39 45 f8          	cmp    %rax,-0x8(%rbp)
    6871:	7f 2f                	jg     68a2 <safe_add_func_int64_t_s_s+0x61>
    6873:	48 83 7d f8 00       	cmpq   $0x0,-0x8(%rbp)
    6878:	79 1b                	jns    6895 <safe_add_func_int64_t_s_s+0x54>
    687a:	48 83 7d f0 00       	cmpq   $0x0,-0x10(%rbp)
    687f:	79 14                	jns    6895 <safe_add_func_int64_t_s_s+0x54>
    6881:	48 b8 00 00 00 00 00 	movabs $0x8000000000000000,%rax
    6888:	00 00 80 
    688b:	48 2b 45 f0          	sub    -0x10(%rbp),%rax
    688f:	48 39 45 f8          	cmp    %rax,-0x8(%rbp)
    6893:	7c 0d                	jl     68a2 <safe_add_func_int64_t_s_s+0x61>
    6895:	48 8b 55 f8          	mov    -0x8(%rbp),%rdx
    6899:	48 8b 45 f0          	mov    -0x10(%rbp),%rax
    689d:	48 01 d0             	add    %rdx,%rax
    68a0:	eb 04                	jmp    68a6 <safe_add_func_int64_t_s_s+0x65>
    68a2:	48 8b 45 f8          	mov    -0x8(%rbp),%rax
    68a6:	5d                   	pop    %rbp
    68a7:	c3                   	retq   

00000000000068a8 <safe_sub_func_int64_t_s_s>:
    68a8:	f3 0f 1e fa          	endbr64 
    68ac:	55                   	push   %rbp
    68ad:	48 89 e5             	mov    %rsp,%rbp
    68b0:	48 89 7d f8          	mov    %rdi,-0x8(%rbp)
    68b4:	48 89 75 f0          	mov    %rsi,-0x10(%rbp)
    68b8:	48 8b 45 f8          	mov    -0x8(%rbp),%rax
    68bc:	48 33 45 f0          	xor    -0x10(%rbp),%rax
    68c0:	48 89 c2             	mov    %rax,%rdx
    68c3:	48 8b 45 f8          	mov    -0x8(%rbp),%rax
    68c7:	48 33 45 f0          	xor    -0x10(%rbp),%rax
    68cb:	48 b9 00 00 00 00 00 	movabs $0x8000000000000000,%rcx
    68d2:	00 00 80 
    68d5:	48 21 c8             	and    %rcx,%rax
    68d8:	48 33 45 f8          	xor    -0x8(%rbp),%rax
    68dc:	48 2b 45 f0          	sub    -0x10(%rbp),%rax
    68e0:	48 33 45 f0          	xor    -0x10(%rbp),%rax
    68e4:	48 21 d0             	and    %rdx,%rax
    68e7:	48 85 c0             	test   %rax,%rax
    68ea:	78 0a                	js     68f6 <safe_sub_func_int64_t_s_s+0x4e>
    68ec:	48 8b 45 f8          	mov    -0x8(%rbp),%rax
    68f0:	48 2b 45 f0          	sub    -0x10(%rbp),%rax
    68f4:	eb 04                	jmp    68fa <safe_sub_func_int64_t_s_s+0x52>
    68f6:	48 8b 45 f8          	mov    -0x8(%rbp),%rax
    68fa:	5d                   	pop    %rbp
    68fb:	c3                   	retq   

00000000000068fc <safe_mul_func_int64_t_s_s>:
    68fc:	f3 0f 1e fa          	endbr64 
    6900:	55                   	push   %rbp
    6901:	48 89 e5             	mov    %rsp,%rbp
    6904:	48 89 7d f8          	mov    %rdi,-0x8(%rbp)
    6908:	48 89 75 f0          	mov    %rsi,-0x10(%rbp)
    690c:	48 83 7d f8 00       	cmpq   $0x0,-0x8(%rbp)
    6911:	7e 1d                	jle    6930 <safe_mul_func_int64_t_s_s+0x34>
    6913:	48 83 7d f0 00       	cmpq   $0x0,-0x10(%rbp)
    6918:	7e 16                	jle    6930 <safe_mul_func_int64_t_s_s+0x34>
    691a:	48 b8 ff ff ff ff ff 	movabs $0x7fffffffffffffff,%rax
    6921:	ff ff 7f 
    6924:	48 99                	cqto   
    6926:	48 f7 7d f0          	idivq  -0x10(%rbp)
    692a:	48 39 45 f8          	cmp    %rax,-0x8(%rbp)
    692e:	7f 7e                	jg     69ae <safe_mul_func_int64_t_s_s+0xb2>
    6930:	48 83 7d f8 00       	cmpq   $0x0,-0x8(%rbp)
    6935:	7e 1d                	jle    6954 <safe_mul_func_int64_t_s_s+0x58>
    6937:	48 83 7d f0 00       	cmpq   $0x0,-0x10(%rbp)
    693c:	7f 16                	jg     6954 <safe_mul_func_int64_t_s_s+0x58>
    693e:	48 b8 00 00 00 00 00 	movabs $0x8000000000000000,%rax
    6945:	00 00 80 
    6948:	48 99                	cqto   
    694a:	48 f7 7d f8          	idivq  -0x8(%rbp)
    694e:	48 39 45 f0          	cmp    %rax,-0x10(%rbp)
    6952:	7c 5a                	jl     69ae <safe_mul_func_int64_t_s_s+0xb2>
    6954:	48 83 7d f8 00       	cmpq   $0x0,-0x8(%rbp)
    6959:	7f 1d                	jg     6978 <safe_mul_func_int64_t_s_s+0x7c>
    695b:	48 83 7d f0 00       	cmpq   $0x0,-0x10(%rbp)
    6960:	7e 16                	jle    6978 <safe_mul_func_int64_t_s_s+0x7c>
    6962:	48 b8 00 00 00 00 00 	movabs $0x8000000000000000,%rax
    6969:	00 00 80 
    696c:	48 99                	cqto   
    696e:	48 f7 7d f0          	idivq  -0x10(%rbp)
    6972:	48 39 45 f8          	cmp    %rax,-0x8(%rbp)
    6976:	7c 36                	jl     69ae <safe_mul_func_int64_t_s_s+0xb2>
    6978:	48 83 7d f8 00       	cmpq   $0x0,-0x8(%rbp)
    697d:	7f 24                	jg     69a3 <safe_mul_func_int64_t_s_s+0xa7>
    697f:	48 83 7d f0 00       	cmpq   $0x0,-0x10(%rbp)
    6984:	7f 1d                	jg     69a3 <safe_mul_func_int64_t_s_s+0xa7>
    6986:	48 83 7d f8 00       	cmpq   $0x0,-0x8(%rbp)
    698b:	74 16                	je     69a3 <safe_mul_func_int64_t_s_s+0xa7>
    698d:	48 b8 ff ff ff ff ff 	movabs $0x7fffffffffffffff,%rax
    6994:	ff ff 7f 
    6997:	48 99                	cqto   
    6999:	48 f7 7d f8          	idivq  -0x8(%rbp)
    699d:	48 39 45 f0          	cmp    %rax,-0x10(%rbp)
    69a1:	7c 0b                	jl     69ae <safe_mul_func_int64_t_s_s+0xb2>
    69a3:	48 8b 45 f8          	mov    -0x8(%rbp),%rax
    69a7:	48 0f af 45 f0       	imul   -0x10(%rbp),%rax
    69ac:	eb 04                	jmp    69b2 <safe_mul_func_int64_t_s_s+0xb6>
    69ae:	48 8b 45 f8          	mov    -0x8(%rbp),%rax
    69b2:	5d                   	pop    %rbp
    69b3:	c3                   	retq   

00000000000069b4 <safe_mod_func_int64_t_s_s>:
    69b4:	f3 0f 1e fa          	endbr64 
    69b8:	55                   	push   %rbp
    69b9:	48 89 e5             	mov    %rsp,%rbp
    69bc:	48 89 7d f8          	mov    %rdi,-0x8(%rbp)
    69c0:	48 89 75 f0          	mov    %rsi,-0x10(%rbp)
    69c4:	48 83 7d f0 00       	cmpq   $0x0,-0x10(%rbp)
    69c9:	74 26                	je     69f1 <safe_mod_func_int64_t_s_s+0x3d>
    69cb:	48 b8 00 00 00 00 00 	movabs $0x8000000000000000,%rax
    69d2:	00 00 80 
    69d5:	48 39 45 f8          	cmp    %rax,-0x8(%rbp)
    69d9:	75 07                	jne    69e2 <safe_mod_func_int64_t_s_s+0x2e>
    69db:	48 83 7d f0 ff       	cmpq   $0xffffffffffffffff,-0x10(%rbp)
    69e0:	74 0f                	je     69f1 <safe_mod_func_int64_t_s_s+0x3d>
    69e2:	48 8b 45 f8          	mov    -0x8(%rbp),%rax
    69e6:	48 99                	cqto   
    69e8:	48 f7 7d f0          	idivq  -0x10(%rbp)
    69ec:	48 89 d0             	mov    %rdx,%rax
    69ef:	eb 04                	jmp    69f5 <safe_mod_func_int64_t_s_s+0x41>
    69f1:	48 8b 45 f8          	mov    -0x8(%rbp),%rax
    69f5:	5d                   	pop    %rbp
    69f6:	c3                   	retq   

00000000000069f7 <safe_div_func_int64_t_s_s>:
    69f7:	f3 0f 1e fa          	endbr64 
    69fb:	55                   	push   %rbp
    69fc:	48 89 e5             	mov    %rsp,%rbp
    69ff:	48 89 7d f8          	mov    %rdi,-0x8(%rbp)
    6a03:	48 89 75 f0          	mov    %rsi,-0x10(%rbp)
    6a07:	48 83 7d f0 00       	cmpq   $0x0,-0x10(%rbp)
    6a0c:	74 23                	je     6a31 <safe_div_func_int64_t_s_s+0x3a>
    6a0e:	48 b8 00 00 00 00 00 	movabs $0x8000000000000000,%rax
    6a15:	00 00 80 
    6a18:	48 39 45 f8          	cmp    %rax,-0x8(%rbp)
    6a1c:	75 07                	jne    6a25 <safe_div_func_int64_t_s_s+0x2e>
    6a1e:	48 83 7d f0 ff       	cmpq   $0xffffffffffffffff,-0x10(%rbp)
    6a23:	74 0c                	je     6a31 <safe_div_func_int64_t_s_s+0x3a>
    6a25:	48 8b 45 f8          	mov    -0x8(%rbp),%rax
    6a29:	48 99                	cqto   
    6a2b:	48 f7 7d f0          	idivq  -0x10(%rbp)
    6a2f:	eb 04                	jmp    6a35 <safe_div_func_int64_t_s_s+0x3e>
    6a31:	48 8b 45 f8          	mov    -0x8(%rbp),%rax
    6a35:	5d                   	pop    %rbp
    6a36:	c3                   	retq   

0000000000006a37 <safe_lshift_func_int64_t_s_s>:
    6a37:	f3 0f 1e fa          	endbr64 
    6a3b:	55                   	push   %rbp
    6a3c:	48 89 e5             	mov    %rsp,%rbp
    6a3f:	48 89 7d f8          	mov    %rdi,-0x8(%rbp)
    6a43:	89 75 f4             	mov    %esi,-0xc(%rbp)
    6a46:	48 83 7d f8 00       	cmpq   $0x0,-0x8(%rbp)
    6a4b:	78 38                	js     6a85 <safe_lshift_func_int64_t_s_s+0x4e>
    6a4d:	83 7d f4 00          	cmpl   $0x0,-0xc(%rbp)
    6a51:	78 32                	js     6a85 <safe_lshift_func_int64_t_s_s+0x4e>
    6a53:	83 7d f4 1f          	cmpl   $0x1f,-0xc(%rbp)
    6a57:	7f 2c                	jg     6a85 <safe_lshift_func_int64_t_s_s+0x4e>
    6a59:	8b 45 f4             	mov    -0xc(%rbp),%eax
    6a5c:	48 ba ff ff ff ff ff 	movabs $0x7fffffffffffffff,%rdx
    6a63:	ff ff 7f 
    6a66:	89 c1                	mov    %eax,%ecx
    6a68:	48 d3 fa             	sar    %cl,%rdx
    6a6b:	48 89 d0             	mov    %rdx,%rax
    6a6e:	48 39 45 f8          	cmp    %rax,-0x8(%rbp)
    6a72:	7f 11                	jg     6a85 <safe_lshift_func_int64_t_s_s+0x4e>
    6a74:	8b 45 f4             	mov    -0xc(%rbp),%eax
    6a77:	48 8b 55 f8          	mov    -0x8(%rbp),%rdx
    6a7b:	89 c1                	mov    %eax,%ecx
    6a7d:	48 d3 e2             	shl    %cl,%rdx
    6a80:	48 89 d0             	mov    %rdx,%rax
    6a83:	eb 04                	jmp    6a89 <safe_lshift_func_int64_t_s_s+0x52>
    6a85:	48 8b 45 f8          	mov    -0x8(%rbp),%rax
    6a89:	5d                   	pop    %rbp
    6a8a:	c3                   	retq   

0000000000006a8b <safe_lshift_func_int64_t_s_u>:
    6a8b:	f3 0f 1e fa          	endbr64 
    6a8f:	55                   	push   %rbp
    6a90:	48 89 e5             	mov    %rsp,%rbp
    6a93:	48 89 7d f8          	mov    %rdi,-0x8(%rbp)
    6a97:	89 75 f4             	mov    %esi,-0xc(%rbp)
    6a9a:	48 83 7d f8 00       	cmpq   $0x0,-0x8(%rbp)
    6a9f:	78 32                	js     6ad3 <safe_lshift_func_int64_t_s_u+0x48>
    6aa1:	83 7d f4 1f          	cmpl   $0x1f,-0xc(%rbp)
    6aa5:	77 2c                	ja     6ad3 <safe_lshift_func_int64_t_s_u+0x48>
    6aa7:	8b 45 f4             	mov    -0xc(%rbp),%eax
    6aaa:	48 ba ff ff ff ff ff 	movabs $0x7fffffffffffffff,%rdx
    6ab1:	ff ff 7f 
    6ab4:	89 c1                	mov    %eax,%ecx
    6ab6:	48 d3 fa             	sar    %cl,%rdx
    6ab9:	48 89 d0             	mov    %rdx,%rax
    6abc:	48 39 45 f8          	cmp    %rax,-0x8(%rbp)
    6ac0:	7f 11                	jg     6ad3 <safe_lshift_func_int64_t_s_u+0x48>
    6ac2:	8b 45 f4             	mov    -0xc(%rbp),%eax
    6ac5:	48 8b 55 f8          	mov    -0x8(%rbp),%rdx
    6ac9:	89 c1                	mov    %eax,%ecx
    6acb:	48 d3 e2             	shl    %cl,%rdx
    6ace:	48 89 d0             	mov    %rdx,%rax
    6ad1:	eb 04                	jmp    6ad7 <safe_lshift_func_int64_t_s_u+0x4c>
    6ad3:	48 8b 45 f8          	mov    -0x8(%rbp),%rax
    6ad7:	5d                   	pop    %rbp
    6ad8:	c3                   	retq   

0000000000006ad9 <safe_rshift_func_int64_t_s_s>:
    6ad9:	f3 0f 1e fa          	endbr64 
    6add:	55                   	push   %rbp
    6ade:	48 89 e5             	mov    %rsp,%rbp
    6ae1:	48 89 7d f8          	mov    %rdi,-0x8(%rbp)
    6ae5:	89 75 f4             	mov    %esi,-0xc(%rbp)
    6ae8:	48 83 7d f8 00       	cmpq   $0x0,-0x8(%rbp)
    6aed:	78 1d                	js     6b0c <safe_rshift_func_int64_t_s_s+0x33>
    6aef:	83 7d f4 00          	cmpl   $0x0,-0xc(%rbp)
    6af3:	78 17                	js     6b0c <safe_rshift_func_int64_t_s_s+0x33>
    6af5:	83 7d f4 1f          	cmpl   $0x1f,-0xc(%rbp)
    6af9:	7f 11                	jg     6b0c <safe_rshift_func_int64_t_s_s+0x33>
    6afb:	8b 45 f4             	mov    -0xc(%rbp),%eax
    6afe:	48 8b 55 f8          	mov    -0x8(%rbp),%rdx
    6b02:	89 c1                	mov    %eax,%ecx
    6b04:	48 d3 fa             	sar    %cl,%rdx
    6b07:	48 89 d0             	mov    %rdx,%rax
    6b0a:	eb 04                	jmp    6b10 <safe_rshift_func_int64_t_s_s+0x37>
    6b0c:	48 8b 45 f8          	mov    -0x8(%rbp),%rax
    6b10:	5d                   	pop    %rbp
    6b11:	c3                   	retq   

0000000000006b12 <safe_rshift_func_int64_t_s_u>:
    6b12:	f3 0f 1e fa          	endbr64 
    6b16:	55                   	push   %rbp
    6b17:	48 89 e5             	mov    %rsp,%rbp
    6b1a:	48 89 7d f8          	mov    %rdi,-0x8(%rbp)
    6b1e:	89 75 f4             	mov    %esi,-0xc(%rbp)
    6b21:	48 83 7d f8 00       	cmpq   $0x0,-0x8(%rbp)
    6b26:	78 17                	js     6b3f <safe_rshift_func_int64_t_s_u+0x2d>
    6b28:	83 7d f4 1f          	cmpl   $0x1f,-0xc(%rbp)
    6b2c:	77 11                	ja     6b3f <safe_rshift_func_int64_t_s_u+0x2d>
    6b2e:	8b 45 f4             	mov    -0xc(%rbp),%eax
    6b31:	48 8b 55 f8          	mov    -0x8(%rbp),%rdx
    6b35:	89 c1                	mov    %eax,%ecx
    6b37:	48 d3 fa             	sar    %cl,%rdx
    6b3a:	48 89 d0             	mov    %rdx,%rax
    6b3d:	eb 04                	jmp    6b43 <safe_rshift_func_int64_t_s_u+0x31>
    6b3f:	48 8b 45 f8          	mov    -0x8(%rbp),%rax
    6b43:	5d                   	pop    %rbp
    6b44:	c3                   	retq   

0000000000006b45 <safe_unary_minus_func_uint8_t_u>:
    6b45:	f3 0f 1e fa          	endbr64 
    6b49:	55                   	push   %rbp
    6b4a:	48 89 e5             	mov    %rsp,%rbp
    6b4d:	89 f8                	mov    %edi,%eax
    6b4f:	88 45 fc             	mov    %al,-0x4(%rbp)
    6b52:	0f b6 45 fc          	movzbl -0x4(%rbp),%eax
    6b56:	f7 d8                	neg    %eax
    6b58:	5d                   	pop    %rbp
    6b59:	c3                   	retq   

0000000000006b5a <safe_add_func_uint8_t_u_u>:
    6b5a:	f3 0f 1e fa          	endbr64 
    6b5e:	55                   	push   %rbp
    6b5f:	48 89 e5             	mov    %rsp,%rbp
    6b62:	89 fa                	mov    %edi,%edx
    6b64:	89 f0                	mov    %esi,%eax
    6b66:	88 55 fc             	mov    %dl,-0x4(%rbp)
    6b69:	88 45 f8             	mov    %al,-0x8(%rbp)
    6b6c:	0f b6 55 fc          	movzbl -0x4(%rbp),%edx
    6b70:	0f b6 45 f8          	movzbl -0x8(%rbp),%eax
    6b74:	01 d0                	add    %edx,%eax
    6b76:	5d                   	pop    %rbp
    6b77:	c3                   	retq   

0000000000006b78 <safe_sub_func_uint8_t_u_u>:
    6b78:	f3 0f 1e fa          	endbr64 
    6b7c:	55                   	push   %rbp
    6b7d:	48 89 e5             	mov    %rsp,%rbp
    6b80:	89 fa                	mov    %edi,%edx
    6b82:	89 f0                	mov    %esi,%eax
    6b84:	88 55 fc             	mov    %dl,-0x4(%rbp)
    6b87:	88 45 f8             	mov    %al,-0x8(%rbp)
    6b8a:	0f b6 45 fc          	movzbl -0x4(%rbp),%eax
    6b8e:	2a 45 f8             	sub    -0x8(%rbp),%al
    6b91:	5d                   	pop    %rbp
    6b92:	c3                   	retq   

0000000000006b93 <safe_mul_func_uint8_t_u_u>:
    6b93:	f3 0f 1e fa          	endbr64 
    6b97:	55                   	push   %rbp
    6b98:	48 89 e5             	mov    %rsp,%rbp
    6b9b:	89 fa                	mov    %edi,%edx
    6b9d:	89 f0                	mov    %esi,%eax
    6b9f:	88 55 fc             	mov    %dl,-0x4(%rbp)
    6ba2:	88 45 f8             	mov    %al,-0x8(%rbp)
    6ba5:	0f b6 45 fc          	movzbl -0x4(%rbp),%eax
    6ba9:	f6 65 f8             	mulb   -0x8(%rbp)
    6bac:	5d                   	pop    %rbp
    6bad:	c3                   	retq   

0000000000006bae <safe_mod_func_uint8_t_u_u>:
    6bae:	f3 0f 1e fa          	endbr64 
    6bb2:	55                   	push   %rbp
    6bb3:	48 89 e5             	mov    %rsp,%rbp
    6bb6:	89 fa                	mov    %edi,%edx
    6bb8:	89 f0                	mov    %esi,%eax
    6bba:	88 55 fc             	mov    %dl,-0x4(%rbp)
    6bbd:	88 45 f8             	mov    %al,-0x8(%rbp)
    6bc0:	80 7d f8 00          	cmpb   $0x0,-0x8(%rbp)
    6bc4:	74 0f                	je     6bd5 <safe_mod_func_uint8_t_u_u+0x27>
    6bc6:	0f b6 45 fc          	movzbl -0x4(%rbp),%eax
    6bca:	0f b6 c0             	movzbl %al,%eax
    6bcd:	f6 75 f8             	divb   -0x8(%rbp)
    6bd0:	0f b6 c4             	movzbl %ah,%eax
    6bd3:	eb 04                	jmp    6bd9 <safe_mod_func_uint8_t_u_u+0x2b>
    6bd5:	0f b6 45 fc          	movzbl -0x4(%rbp),%eax
    6bd9:	5d                   	pop    %rbp
    6bda:	c3                   	retq   

0000000000006bdb <safe_div_func_uint8_t_u_u>:
    6bdb:	f3 0f 1e fa          	endbr64 
    6bdf:	55                   	push   %rbp
    6be0:	48 89 e5             	mov    %rsp,%rbp
    6be3:	89 fa                	mov    %edi,%edx
    6be5:	89 f0                	mov    %esi,%eax
    6be7:	88 55 fc             	mov    %dl,-0x4(%rbp)
    6bea:	88 45 f8             	mov    %al,-0x8(%rbp)
    6bed:	80 7d f8 00          	cmpb   $0x0,-0x8(%rbp)
    6bf1:	74 0c                	je     6bff <safe_div_func_uint8_t_u_u+0x24>
    6bf3:	0f b6 45 fc          	movzbl -0x4(%rbp),%eax
    6bf7:	0f b6 c0             	movzbl %al,%eax
    6bfa:	f6 75 f8             	divb   -0x8(%rbp)
    6bfd:	eb 04                	jmp    6c03 <safe_div_func_uint8_t_u_u+0x28>
    6bff:	0f b6 45 fc          	movzbl -0x4(%rbp),%eax
    6c03:	5d                   	pop    %rbp
    6c04:	c3                   	retq   

0000000000006c05 <safe_lshift_func_uint8_t_u_s>:
    6c05:	f3 0f 1e fa          	endbr64 
    6c09:	55                   	push   %rbp
    6c0a:	48 89 e5             	mov    %rsp,%rbp
    6c0d:	89 f8                	mov    %edi,%eax
    6c0f:	89 75 f8             	mov    %esi,-0x8(%rbp)
    6c12:	88 45 fc             	mov    %al,-0x4(%rbp)
    6c15:	83 7d f8 00          	cmpl   $0x0,-0x8(%rbp)
    6c19:	78 2b                	js     6c46 <safe_lshift_func_uint8_t_u_s+0x41>
    6c1b:	83 7d f8 1f          	cmpl   $0x1f,-0x8(%rbp)
    6c1f:	7f 25                	jg     6c46 <safe_lshift_func_uint8_t_u_s+0x41>
    6c21:	0f b6 55 fc          	movzbl -0x4(%rbp),%edx
    6c25:	8b 45 f8             	mov    -0x8(%rbp),%eax
    6c28:	be ff 00 00 00       	mov    $0xff,%esi
    6c2d:	89 c1                	mov    %eax,%ecx
    6c2f:	d3 fe                	sar    %cl,%esi
    6c31:	89 f0                	mov    %esi,%eax
    6c33:	39 c2                	cmp    %eax,%edx
    6c35:	7f 0f                	jg     6c46 <safe_lshift_func_uint8_t_u_s+0x41>
    6c37:	0f b6 55 fc          	movzbl -0x4(%rbp),%edx
    6c3b:	8b 45 f8             	mov    -0x8(%rbp),%eax
    6c3e:	89 c1                	mov    %eax,%ecx
    6c40:	d3 e2                	shl    %cl,%edx
    6c42:	89 d0                	mov    %edx,%eax
    6c44:	eb 04                	jmp    6c4a <safe_lshift_func_uint8_t_u_s+0x45>
    6c46:	0f b6 45 fc          	movzbl -0x4(%rbp),%eax
    6c4a:	5d                   	pop    %rbp
    6c4b:	c3                   	retq   

0000000000006c4c <safe_lshift_func_uint8_t_u_u>:
    6c4c:	f3 0f 1e fa          	endbr64 
    6c50:	55                   	push   %rbp
    6c51:	48 89 e5             	mov    %rsp,%rbp
    6c54:	89 f8                	mov    %edi,%eax
    6c56:	89 75 f8             	mov    %esi,-0x8(%rbp)
    6c59:	88 45 fc             	mov    %al,-0x4(%rbp)
    6c5c:	83 7d f8 1f          	cmpl   $0x1f,-0x8(%rbp)
    6c60:	77 25                	ja     6c87 <safe_lshift_func_uint8_t_u_u+0x3b>
    6c62:	0f b6 55 fc          	movzbl -0x4(%rbp),%edx
    6c66:	8b 45 f8             	mov    -0x8(%rbp),%eax
    6c69:	be ff 00 00 00       	mov    $0xff,%esi
    6c6e:	89 c1                	mov    %eax,%ecx
    6c70:	d3 fe                	sar    %cl,%esi
    6c72:	89 f0                	mov    %esi,%eax
    6c74:	39 c2                	cmp    %eax,%edx
    6c76:	7f 0f                	jg     6c87 <safe_lshift_func_uint8_t_u_u+0x3b>
    6c78:	0f b6 55 fc          	movzbl -0x4(%rbp),%edx
    6c7c:	8b 45 f8             	mov    -0x8(%rbp),%eax
    6c7f:	89 c1                	mov    %eax,%ecx
    6c81:	d3 e2                	shl    %cl,%edx
    6c83:	89 d0                	mov    %edx,%eax
    6c85:	eb 04                	jmp    6c8b <safe_lshift_func_uint8_t_u_u+0x3f>
    6c87:	0f b6 45 fc          	movzbl -0x4(%rbp),%eax
    6c8b:	5d                   	pop    %rbp
    6c8c:	c3                   	retq   

0000000000006c8d <safe_rshift_func_uint8_t_u_s>:
    6c8d:	f3 0f 1e fa          	endbr64 
    6c91:	55                   	push   %rbp
    6c92:	48 89 e5             	mov    %rsp,%rbp
    6c95:	89 f8                	mov    %edi,%eax
    6c97:	89 75 f8             	mov    %esi,-0x8(%rbp)
    6c9a:	88 45 fc             	mov    %al,-0x4(%rbp)
    6c9d:	83 7d f8 00          	cmpl   $0x0,-0x8(%rbp)
    6ca1:	78 15                	js     6cb8 <safe_rshift_func_uint8_t_u_s+0x2b>
    6ca3:	83 7d f8 1f          	cmpl   $0x1f,-0x8(%rbp)
    6ca7:	7f 0f                	jg     6cb8 <safe_rshift_func_uint8_t_u_s+0x2b>
    6ca9:	0f b6 55 fc          	movzbl -0x4(%rbp),%edx
    6cad:	8b 45 f8             	mov    -0x8(%rbp),%eax
    6cb0:	89 c1                	mov    %eax,%ecx
    6cb2:	d3 fa                	sar    %cl,%edx
    6cb4:	89 d0                	mov    %edx,%eax
    6cb6:	eb 04                	jmp    6cbc <safe_rshift_func_uint8_t_u_s+0x2f>
    6cb8:	0f b6 45 fc          	movzbl -0x4(%rbp),%eax
    6cbc:	5d                   	pop    %rbp
    6cbd:	c3                   	retq   

0000000000006cbe <safe_rshift_func_uint8_t_u_u>:
    6cbe:	f3 0f 1e fa          	endbr64 
    6cc2:	55                   	push   %rbp
    6cc3:	48 89 e5             	mov    %rsp,%rbp
    6cc6:	89 f8                	mov    %edi,%eax
    6cc8:	89 75 f8             	mov    %esi,-0x8(%rbp)
    6ccb:	88 45 fc             	mov    %al,-0x4(%rbp)
    6cce:	83 7d f8 1f          	cmpl   $0x1f,-0x8(%rbp)
    6cd2:	77 0f                	ja     6ce3 <safe_rshift_func_uint8_t_u_u+0x25>
    6cd4:	0f b6 55 fc          	movzbl -0x4(%rbp),%edx
    6cd8:	8b 45 f8             	mov    -0x8(%rbp),%eax
    6cdb:	89 c1                	mov    %eax,%ecx
    6cdd:	d3 fa                	sar    %cl,%edx
    6cdf:	89 d0                	mov    %edx,%eax
    6ce1:	eb 04                	jmp    6ce7 <safe_rshift_func_uint8_t_u_u+0x29>
    6ce3:	0f b6 45 fc          	movzbl -0x4(%rbp),%eax
    6ce7:	5d                   	pop    %rbp
    6ce8:	c3                   	retq   

0000000000006ce9 <safe_unary_minus_func_uint16_t_u>:
    6ce9:	f3 0f 1e fa          	endbr64 
    6ced:	55                   	push   %rbp
    6cee:	48 89 e5             	mov    %rsp,%rbp
    6cf1:	89 f8                	mov    %edi,%eax
    6cf3:	66 89 45 fc          	mov    %ax,-0x4(%rbp)
    6cf7:	0f b7 45 fc          	movzwl -0x4(%rbp),%eax
    6cfb:	f7 d8                	neg    %eax
    6cfd:	5d                   	pop    %rbp
    6cfe:	c3                   	retq   

0000000000006cff <safe_add_func_uint16_t_u_u>:
    6cff:	f3 0f 1e fa          	endbr64 
    6d03:	55                   	push   %rbp
    6d04:	48 89 e5             	mov    %rsp,%rbp
    6d07:	89 fa                	mov    %edi,%edx
    6d09:	89 f0                	mov    %esi,%eax
    6d0b:	66 89 55 fc          	mov    %dx,-0x4(%rbp)
    6d0f:	66 89 45 f8          	mov    %ax,-0x8(%rbp)
    6d13:	0f b7 55 fc          	movzwl -0x4(%rbp),%edx
    6d17:	0f b7 45 f8          	movzwl -0x8(%rbp),%eax
    6d1b:	01 d0                	add    %edx,%eax
    6d1d:	5d                   	pop    %rbp
    6d1e:	c3                   	retq   

0000000000006d1f <safe_sub_func_uint16_t_u_u>:
    6d1f:	f3 0f 1e fa          	endbr64 
    6d23:	55                   	push   %rbp
    6d24:	48 89 e5             	mov    %rsp,%rbp
    6d27:	89 fa                	mov    %edi,%edx
    6d29:	89 f0                	mov    %esi,%eax
    6d2b:	66 89 55 fc          	mov    %dx,-0x4(%rbp)
    6d2f:	66 89 45 f8          	mov    %ax,-0x8(%rbp)
    6d33:	0f b7 45 fc          	movzwl -0x4(%rbp),%eax
    6d37:	66 2b 45 f8          	sub    -0x8(%rbp),%ax
    6d3b:	5d                   	pop    %rbp
    6d3c:	c3                   	retq   

0000000000006d3d <safe_mul_func_uint16_t_u_u>:
    6d3d:	f3 0f 1e fa          	endbr64 
    6d41:	55                   	push   %rbp
    6d42:	48 89 e5             	mov    %rsp,%rbp
    6d45:	89 fa                	mov    %edi,%edx
    6d47:	89 f0                	mov    %esi,%eax
    6d49:	66 89 55 fc          	mov    %dx,-0x4(%rbp)
    6d4d:	66 89 45 f8          	mov    %ax,-0x8(%rbp)
    6d51:	0f b7 45 fc          	movzwl -0x4(%rbp),%eax
    6d55:	66 0f af 45 f8       	imul   -0x8(%rbp),%ax
    6d5a:	5d                   	pop    %rbp
    6d5b:	c3                   	retq   

0000000000006d5c <safe_mod_func_uint16_t_u_u>:
    6d5c:	f3 0f 1e fa          	endbr64 
    6d60:	55                   	push   %rbp
    6d61:	48 89 e5             	mov    %rsp,%rbp
    6d64:	89 fa                	mov    %edi,%edx
    6d66:	89 f0                	mov    %esi,%eax
    6d68:	66 89 55 fc          	mov    %dx,-0x4(%rbp)
    6d6c:	66 89 45 f8          	mov    %ax,-0x8(%rbp)
    6d70:	66 83 7d f8 00       	cmpw   $0x0,-0x8(%rbp)
    6d75:	74 11                	je     6d88 <safe_mod_func_uint16_t_u_u+0x2c>
    6d77:	0f b7 45 fc          	movzwl -0x4(%rbp),%eax
    6d7b:	ba 00 00 00 00       	mov    $0x0,%edx
    6d80:	66 f7 75 f8          	divw   -0x8(%rbp)
    6d84:	89 d0                	mov    %edx,%eax
    6d86:	eb 04                	jmp    6d8c <safe_mod_func_uint16_t_u_u+0x30>
    6d88:	0f b7 45 fc          	movzwl -0x4(%rbp),%eax
    6d8c:	5d                   	pop    %rbp
    6d8d:	c3                   	retq   

0000000000006d8e <safe_div_func_uint16_t_u_u>:
    6d8e:	f3 0f 1e fa          	endbr64 
    6d92:	55                   	push   %rbp
    6d93:	48 89 e5             	mov    %rsp,%rbp
    6d96:	89 fa                	mov    %edi,%edx
    6d98:	89 f0                	mov    %esi,%eax
    6d9a:	66 89 55 fc          	mov    %dx,-0x4(%rbp)
    6d9e:	66 89 45 f8          	mov    %ax,-0x8(%rbp)
    6da2:	66 83 7d f8 00       	cmpw   $0x0,-0x8(%rbp)
    6da7:	74 0f                	je     6db8 <safe_div_func_uint16_t_u_u+0x2a>
    6da9:	0f b7 45 fc          	movzwl -0x4(%rbp),%eax
    6dad:	ba 00 00 00 00       	mov    $0x0,%edx
    6db2:	66 f7 75 f8          	divw   -0x8(%rbp)
    6db6:	eb 04                	jmp    6dbc <safe_div_func_uint16_t_u_u+0x2e>
    6db8:	0f b7 45 fc          	movzwl -0x4(%rbp),%eax
    6dbc:	5d                   	pop    %rbp
    6dbd:	c3                   	retq   

0000000000006dbe <safe_lshift_func_uint16_t_u_s>:
    6dbe:	f3 0f 1e fa          	endbr64 
    6dc2:	55                   	push   %rbp
    6dc3:	48 89 e5             	mov    %rsp,%rbp
    6dc6:	89 f8                	mov    %edi,%eax
    6dc8:	89 75 f8             	mov    %esi,-0x8(%rbp)
    6dcb:	66 89 45 fc          	mov    %ax,-0x4(%rbp)
    6dcf:	83 7d f8 00          	cmpl   $0x0,-0x8(%rbp)
    6dd3:	78 2b                	js     6e00 <safe_lshift_func_uint16_t_u_s+0x42>
    6dd5:	83 7d f8 1f          	cmpl   $0x1f,-0x8(%rbp)
    6dd9:	7f 25                	jg     6e00 <safe_lshift_func_uint16_t_u_s+0x42>
    6ddb:	0f b7 55 fc          	movzwl -0x4(%rbp),%edx
    6ddf:	8b 45 f8             	mov    -0x8(%rbp),%eax
    6de2:	be ff ff 00 00       	mov    $0xffff,%esi
    6de7:	89 c1                	mov    %eax,%ecx
    6de9:	d3 fe                	sar    %cl,%esi
    6deb:	89 f0                	mov    %esi,%eax
    6ded:	39 c2                	cmp    %eax,%edx
    6def:	7f 0f                	jg     6e00 <safe_lshift_func_uint16_t_u_s+0x42>
    6df1:	0f b7 55 fc          	movzwl -0x4(%rbp),%edx
    6df5:	8b 45 f8             	mov    -0x8(%rbp),%eax
    6df8:	89 c1                	mov    %eax,%ecx
    6dfa:	d3 e2                	shl    %cl,%edx
    6dfc:	89 d0                	mov    %edx,%eax
    6dfe:	eb 04                	jmp    6e04 <safe_lshift_func_uint16_t_u_s+0x46>
    6e00:	0f b7 45 fc          	movzwl -0x4(%rbp),%eax
    6e04:	5d                   	pop    %rbp
    6e05:	c3                   	retq   

0000000000006e06 <safe_lshift_func_uint16_t_u_u>:
    6e06:	f3 0f 1e fa          	endbr64 
    6e0a:	55                   	push   %rbp
    6e0b:	48 89 e5             	mov    %rsp,%rbp
    6e0e:	89 f8                	mov    %edi,%eax
    6e10:	89 75 f8             	mov    %esi,-0x8(%rbp)
    6e13:	66 89 45 fc          	mov    %ax,-0x4(%rbp)
    6e17:	83 7d f8 1f          	cmpl   $0x1f,-0x8(%rbp)
    6e1b:	77 25                	ja     6e42 <safe_lshift_func_uint16_t_u_u+0x3c>
    6e1d:	0f b7 55 fc          	movzwl -0x4(%rbp),%edx
    6e21:	8b 45 f8             	mov    -0x8(%rbp),%eax
    6e24:	be ff ff 00 00       	mov    $0xffff,%esi
    6e29:	89 c1                	mov    %eax,%ecx
    6e2b:	d3 fe                	sar    %cl,%esi
    6e2d:	89 f0                	mov    %esi,%eax
    6e2f:	39 c2                	cmp    %eax,%edx
    6e31:	7f 0f                	jg     6e42 <safe_lshift_func_uint16_t_u_u+0x3c>
    6e33:	0f b7 55 fc          	movzwl -0x4(%rbp),%edx
    6e37:	8b 45 f8             	mov    -0x8(%rbp),%eax
    6e3a:	89 c1                	mov    %eax,%ecx
    6e3c:	d3 e2                	shl    %cl,%edx
    6e3e:	89 d0                	mov    %edx,%eax
    6e40:	eb 04                	jmp    6e46 <safe_lshift_func_uint16_t_u_u+0x40>
    6e42:	0f b7 45 fc          	movzwl -0x4(%rbp),%eax
    6e46:	5d                   	pop    %rbp
    6e47:	c3                   	retq   

0000000000006e48 <safe_rshift_func_uint16_t_u_s>:
    6e48:	f3 0f 1e fa          	endbr64 
    6e4c:	55                   	push   %rbp
    6e4d:	48 89 e5             	mov    %rsp,%rbp
    6e50:	89 f8                	mov    %edi,%eax
    6e52:	89 75 f8             	mov    %esi,-0x8(%rbp)
    6e55:	66 89 45 fc          	mov    %ax,-0x4(%rbp)
    6e59:	83 7d f8 00          	cmpl   $0x0,-0x8(%rbp)
    6e5d:	78 15                	js     6e74 <safe_rshift_func_uint16_t_u_s+0x2c>
    6e5f:	83 7d f8 1f          	cmpl   $0x1f,-0x8(%rbp)
    6e63:	7f 0f                	jg     6e74 <safe_rshift_func_uint16_t_u_s+0x2c>
    6e65:	0f b7 55 fc          	movzwl -0x4(%rbp),%edx
    6e69:	8b 45 f8             	mov    -0x8(%rbp),%eax
    6e6c:	89 c1                	mov    %eax,%ecx
    6e6e:	d3 fa                	sar    %cl,%edx
    6e70:	89 d0                	mov    %edx,%eax
    6e72:	eb 04                	jmp    6e78 <safe_rshift_func_uint16_t_u_s+0x30>
    6e74:	0f b7 45 fc          	movzwl -0x4(%rbp),%eax
    6e78:	5d                   	pop    %rbp
    6e79:	c3                   	retq   

0000000000006e7a <safe_rshift_func_uint16_t_u_u>:
    6e7a:	f3 0f 1e fa          	endbr64 
    6e7e:	55                   	push   %rbp
    6e7f:	48 89 e5             	mov    %rsp,%rbp
    6e82:	89 f8                	mov    %edi,%eax
    6e84:	89 75 f8             	mov    %esi,-0x8(%rbp)
    6e87:	66 89 45 fc          	mov    %ax,-0x4(%rbp)
    6e8b:	83 7d f8 1f          	cmpl   $0x1f,-0x8(%rbp)
    6e8f:	77 0f                	ja     6ea0 <safe_rshift_func_uint16_t_u_u+0x26>
    6e91:	0f b7 55 fc          	movzwl -0x4(%rbp),%edx
    6e95:	8b 45 f8             	mov    -0x8(%rbp),%eax
    6e98:	89 c1                	mov    %eax,%ecx
    6e9a:	d3 fa                	sar    %cl,%edx
    6e9c:	89 d0                	mov    %edx,%eax
    6e9e:	eb 04                	jmp    6ea4 <safe_rshift_func_uint16_t_u_u+0x2a>
    6ea0:	0f b7 45 fc          	movzwl -0x4(%rbp),%eax
    6ea4:	5d                   	pop    %rbp
    6ea5:	c3                   	retq   

0000000000006ea6 <safe_unary_minus_func_uint32_t_u>:
    6ea6:	f3 0f 1e fa          	endbr64 
    6eaa:	55                   	push   %rbp
    6eab:	48 89 e5             	mov    %rsp,%rbp
    6eae:	89 7d fc             	mov    %edi,-0x4(%rbp)
    6eb1:	8b 45 fc             	mov    -0x4(%rbp),%eax
    6eb4:	f7 d8                	neg    %eax
    6eb6:	5d                   	pop    %rbp
    6eb7:	c3                   	retq   

0000000000006eb8 <safe_add_func_uint32_t_u_u>:
    6eb8:	f3 0f 1e fa          	endbr64 
    6ebc:	55                   	push   %rbp
    6ebd:	48 89 e5             	mov    %rsp,%rbp
    6ec0:	89 7d fc             	mov    %edi,-0x4(%rbp)
    6ec3:	89 75 f8             	mov    %esi,-0x8(%rbp)
    6ec6:	8b 55 fc             	mov    -0x4(%rbp),%edx
    6ec9:	8b 45 f8             	mov    -0x8(%rbp),%eax
    6ecc:	01 d0                	add    %edx,%eax
    6ece:	5d                   	pop    %rbp
    6ecf:	c3                   	retq   

0000000000006ed0 <safe_sub_func_uint32_t_u_u>:
    6ed0:	f3 0f 1e fa          	endbr64 
    6ed4:	55                   	push   %rbp
    6ed5:	48 89 e5             	mov    %rsp,%rbp
    6ed8:	89 7d fc             	mov    %edi,-0x4(%rbp)
    6edb:	89 75 f8             	mov    %esi,-0x8(%rbp)
    6ede:	8b 45 fc             	mov    -0x4(%rbp),%eax
    6ee1:	2b 45 f8             	sub    -0x8(%rbp),%eax
    6ee4:	5d                   	pop    %rbp
    6ee5:	c3                   	retq   

0000000000006ee6 <safe_mul_func_uint32_t_u_u>:
    6ee6:	f3 0f 1e fa          	endbr64 
    6eea:	55                   	push   %rbp
    6eeb:	48 89 e5             	mov    %rsp,%rbp
    6eee:	89 7d fc             	mov    %edi,-0x4(%rbp)
    6ef1:	89 75 f8             	mov    %esi,-0x8(%rbp)
    6ef4:	8b 45 fc             	mov    -0x4(%rbp),%eax
    6ef7:	0f af 45 f8          	imul   -0x8(%rbp),%eax
    6efb:	5d                   	pop    %rbp
    6efc:	c3                   	retq   

0000000000006efd <safe_mod_func_uint32_t_u_u>:
    6efd:	f3 0f 1e fa          	endbr64 
    6f01:	55                   	push   %rbp
    6f02:	48 89 e5             	mov    %rsp,%rbp
    6f05:	89 7d fc             	mov    %edi,-0x4(%rbp)
    6f08:	89 75 f8             	mov    %esi,-0x8(%rbp)
    6f0b:	83 7d f8 00          	cmpl   $0x0,-0x8(%rbp)
    6f0f:	74 0f                	je     6f20 <safe_mod_func_uint32_t_u_u+0x23>
    6f11:	8b 45 fc             	mov    -0x4(%rbp),%eax
    6f14:	ba 00 00 00 00       	mov    $0x0,%edx
    6f19:	f7 75 f8             	divl   -0x8(%rbp)
    6f1c:	89 d0                	mov    %edx,%eax
    6f1e:	eb 03                	jmp    6f23 <safe_mod_func_uint32_t_u_u+0x26>
    6f20:	8b 45 fc             	mov    -0x4(%rbp),%eax
    6f23:	5d                   	pop    %rbp
    6f24:	c3                   	retq   

0000000000006f25 <safe_div_func_uint32_t_u_u>:
    6f25:	f3 0f 1e fa          	endbr64 
    6f29:	55                   	push   %rbp
    6f2a:	48 89 e5             	mov    %rsp,%rbp
    6f2d:	89 7d fc             	mov    %edi,-0x4(%rbp)
    6f30:	89 75 f8             	mov    %esi,-0x8(%rbp)
    6f33:	83 7d f8 00          	cmpl   $0x0,-0x8(%rbp)
    6f37:	74 0d                	je     6f46 <safe_div_func_uint32_t_u_u+0x21>
    6f39:	8b 45 fc             	mov    -0x4(%rbp),%eax
    6f3c:	ba 00 00 00 00       	mov    $0x0,%edx
    6f41:	f7 75 f8             	divl   -0x8(%rbp)
    6f44:	eb 03                	jmp    6f49 <safe_div_func_uint32_t_u_u+0x24>
    6f46:	8b 45 fc             	mov    -0x4(%rbp),%eax
    6f49:	5d                   	pop    %rbp
    6f4a:	c3                   	retq   

0000000000006f4b <safe_lshift_func_uint32_t_u_s>:
    6f4b:	f3 0f 1e fa          	endbr64 
    6f4f:	55                   	push   %rbp
    6f50:	48 89 e5             	mov    %rsp,%rbp
    6f53:	89 7d fc             	mov    %edi,-0x4(%rbp)
    6f56:	89 75 f8             	mov    %esi,-0x8(%rbp)
    6f59:	83 7d f8 00          	cmpl   $0x0,-0x8(%rbp)
    6f5d:	78 27                	js     6f86 <safe_lshift_func_uint32_t_u_s+0x3b>
    6f5f:	83 7d f8 1f          	cmpl   $0x1f,-0x8(%rbp)
    6f63:	7f 21                	jg     6f86 <safe_lshift_func_uint32_t_u_s+0x3b>
    6f65:	8b 45 f8             	mov    -0x8(%rbp),%eax
    6f68:	ba ff ff ff ff       	mov    $0xffffffff,%edx
    6f6d:	89 c1                	mov    %eax,%ecx
    6f6f:	d3 ea                	shr    %cl,%edx
    6f71:	89 d0                	mov    %edx,%eax
    6f73:	39 45 fc             	cmp    %eax,-0x4(%rbp)
    6f76:	77 0e                	ja     6f86 <safe_lshift_func_uint32_t_u_s+0x3b>
    6f78:	8b 45 f8             	mov    -0x8(%rbp),%eax
    6f7b:	8b 55 fc             	mov    -0x4(%rbp),%edx
    6f7e:	89 c1                	mov    %eax,%ecx
    6f80:	d3 e2                	shl    %cl,%edx
    6f82:	89 d0                	mov    %edx,%eax
    6f84:	eb 03                	jmp    6f89 <safe_lshift_func_uint32_t_u_s+0x3e>
    6f86:	8b 45 fc             	mov    -0x4(%rbp),%eax
    6f89:	5d                   	pop    %rbp
    6f8a:	c3                   	retq   

0000000000006f8b <safe_lshift_func_uint32_t_u_u>:
    6f8b:	f3 0f 1e fa          	endbr64 
    6f8f:	55                   	push   %rbp
    6f90:	48 89 e5             	mov    %rsp,%rbp
    6f93:	89 7d fc             	mov    %edi,-0x4(%rbp)
    6f96:	89 75 f8             	mov    %esi,-0x8(%rbp)
    6f99:	83 7d f8 1f          	cmpl   $0x1f,-0x8(%rbp)
    6f9d:	77 21                	ja     6fc0 <safe_lshift_func_uint32_t_u_u+0x35>
    6f9f:	8b 45 f8             	mov    -0x8(%rbp),%eax
    6fa2:	ba ff ff ff ff       	mov    $0xffffffff,%edx
    6fa7:	89 c1                	mov    %eax,%ecx
    6fa9:	d3 ea                	shr    %cl,%edx
    6fab:	89 d0                	mov    %edx,%eax
    6fad:	39 45 fc             	cmp    %eax,-0x4(%rbp)
    6fb0:	77 0e                	ja     6fc0 <safe_lshift_func_uint32_t_u_u+0x35>
    6fb2:	8b 45 f8             	mov    -0x8(%rbp),%eax
    6fb5:	8b 55 fc             	mov    -0x4(%rbp),%edx
    6fb8:	89 c1                	mov    %eax,%ecx
    6fba:	d3 e2                	shl    %cl,%edx
    6fbc:	89 d0                	mov    %edx,%eax
    6fbe:	eb 03                	jmp    6fc3 <safe_lshift_func_uint32_t_u_u+0x38>
    6fc0:	8b 45 fc             	mov    -0x4(%rbp),%eax
    6fc3:	5d                   	pop    %rbp
    6fc4:	c3                   	retq   

0000000000006fc5 <safe_rshift_func_uint32_t_u_s>:
    6fc5:	f3 0f 1e fa          	endbr64 
    6fc9:	55                   	push   %rbp
    6fca:	48 89 e5             	mov    %rsp,%rbp
    6fcd:	89 7d fc             	mov    %edi,-0x4(%rbp)
    6fd0:	89 75 f8             	mov    %esi,-0x8(%rbp)
    6fd3:	83 7d f8 00          	cmpl   $0x0,-0x8(%rbp)
    6fd7:	78 14                	js     6fed <safe_rshift_func_uint32_t_u_s+0x28>
    6fd9:	83 7d f8 1f          	cmpl   $0x1f,-0x8(%rbp)
    6fdd:	7f 0e                	jg     6fed <safe_rshift_func_uint32_t_u_s+0x28>
    6fdf:	8b 45 f8             	mov    -0x8(%rbp),%eax
    6fe2:	8b 55 fc             	mov    -0x4(%rbp),%edx
    6fe5:	89 c1                	mov    %eax,%ecx
    6fe7:	d3 ea                	shr    %cl,%edx
    6fe9:	89 d0                	mov    %edx,%eax
    6feb:	eb 03                	jmp    6ff0 <safe_rshift_func_uint32_t_u_s+0x2b>
    6fed:	8b 45 fc             	mov    -0x4(%rbp),%eax
    6ff0:	5d                   	pop    %rbp
    6ff1:	c3                   	retq   

0000000000006ff2 <safe_rshift_func_uint32_t_u_u>:
    6ff2:	f3 0f 1e fa          	endbr64 
    6ff6:	55                   	push   %rbp
    6ff7:	48 89 e5             	mov    %rsp,%rbp
    6ffa:	89 7d fc             	mov    %edi,-0x4(%rbp)
    6ffd:	89 75 f8             	mov    %esi,-0x8(%rbp)
    7000:	83 7d f8 1f          	cmpl   $0x1f,-0x8(%rbp)
    7004:	77 0e                	ja     7014 <safe_rshift_func_uint32_t_u_u+0x22>
    7006:	8b 45 f8             	mov    -0x8(%rbp),%eax
    7009:	8b 55 fc             	mov    -0x4(%rbp),%edx
    700c:	89 c1                	mov    %eax,%ecx
    700e:	d3 ea                	shr    %cl,%edx
    7010:	89 d0                	mov    %edx,%eax
    7012:	eb 03                	jmp    7017 <safe_rshift_func_uint32_t_u_u+0x25>
    7014:	8b 45 fc             	mov    -0x4(%rbp),%eax
    7017:	5d                   	pop    %rbp
    7018:	c3                   	retq   

0000000000007019 <safe_unary_minus_func_uint64_t_u>:
    7019:	f3 0f 1e fa          	endbr64 
    701d:	55                   	push   %rbp
    701e:	48 89 e5             	mov    %rsp,%rbp
    7021:	48 89 7d f8          	mov    %rdi,-0x8(%rbp)
    7025:	48 8b 45 f8          	mov    -0x8(%rbp),%rax
    7029:	48 f7 d8             	neg    %rax
    702c:	5d                   	pop    %rbp
    702d:	c3                   	retq   

000000000000702e <safe_add_func_uint64_t_u_u>:
    702e:	f3 0f 1e fa          	endbr64 
    7032:	55                   	push   %rbp
    7033:	48 89 e5             	mov    %rsp,%rbp
    7036:	48 89 7d f8          	mov    %rdi,-0x8(%rbp)
    703a:	48 89 75 f0          	mov    %rsi,-0x10(%rbp)
    703e:	48 8b 55 f8          	mov    -0x8(%rbp),%rdx
    7042:	48 8b 45 f0          	mov    -0x10(%rbp),%rax
    7046:	48 01 d0             	add    %rdx,%rax
    7049:	5d                   	pop    %rbp
    704a:	c3                   	retq   

000000000000704b <safe_sub_func_uint64_t_u_u>:
    704b:	f3 0f 1e fa          	endbr64 
    704f:	55                   	push   %rbp
    7050:	48 89 e5             	mov    %rsp,%rbp
    7053:	48 89 7d f8          	mov    %rdi,-0x8(%rbp)
    7057:	48 89 75 f0          	mov    %rsi,-0x10(%rbp)
    705b:	48 8b 45 f8          	mov    -0x8(%rbp),%rax
    705f:	48 2b 45 f0          	sub    -0x10(%rbp),%rax
    7063:	5d                   	pop    %rbp
    7064:	c3                   	retq   

0000000000007065 <safe_mul_func_uint64_t_u_u>:
    7065:	f3 0f 1e fa          	endbr64 
    7069:	55                   	push   %rbp
    706a:	48 89 e5             	mov    %rsp,%rbp
    706d:	48 89 7d f8          	mov    %rdi,-0x8(%rbp)
    7071:	48 89 75 f0          	mov    %rsi,-0x10(%rbp)
    7075:	48 8b 45 f8          	mov    -0x8(%rbp),%rax
    7079:	48 0f af 45 f0       	imul   -0x10(%rbp),%rax
    707e:	5d                   	pop    %rbp
    707f:	c3                   	retq   

0000000000007080 <safe_mod_func_uint64_t_u_u>:
    7080:	f3 0f 1e fa          	endbr64 
    7084:	55                   	push   %rbp
    7085:	48 89 e5             	mov    %rsp,%rbp
    7088:	48 89 7d f8          	mov    %rdi,-0x8(%rbp)
    708c:	48 89 75 f0          	mov    %rsi,-0x10(%rbp)
    7090:	48 83 7d f0 00       	cmpq   $0x0,-0x10(%rbp)
    7095:	74 12                	je     70a9 <safe_mod_func_uint64_t_u_u+0x29>
    7097:	48 8b 45 f8          	mov    -0x8(%rbp),%rax
    709b:	ba 00 00 00 00       	mov    $0x0,%edx
    70a0:	48 f7 75 f0          	divq   -0x10(%rbp)
    70a4:	48 89 d0             	mov    %rdx,%rax
    70a7:	eb 04                	jmp    70ad <safe_mod_func_uint64_t_u_u+0x2d>
    70a9:	48 8b 45 f8          	mov    -0x8(%rbp),%rax
    70ad:	5d                   	pop    %rbp
    70ae:	c3                   	retq   

00000000000070af <safe_div_func_uint64_t_u_u>:
    70af:	f3 0f 1e fa          	endbr64 
    70b3:	55                   	push   %rbp
    70b4:	48 89 e5             	mov    %rsp,%rbp
    70b7:	48 89 7d f8          	mov    %rdi,-0x8(%rbp)
    70bb:	48 89 75 f0          	mov    %rsi,-0x10(%rbp)
    70bf:	48 83 7d f0 00       	cmpq   $0x0,-0x10(%rbp)
    70c4:	74 0f                	je     70d5 <safe_div_func_uint64_t_u_u+0x26>
    70c6:	48 8b 45 f8          	mov    -0x8(%rbp),%rax
    70ca:	ba 00 00 00 00       	mov    $0x0,%edx
    70cf:	48 f7 75 f0          	divq   -0x10(%rbp)
    70d3:	eb 04                	jmp    70d9 <safe_div_func_uint64_t_u_u+0x2a>
    70d5:	48 8b 45 f8          	mov    -0x8(%rbp),%rax
    70d9:	5d                   	pop    %rbp
    70da:	c3                   	retq   

00000000000070db <safe_lshift_func_uint64_t_u_s>:
    70db:	f3 0f 1e fa          	endbr64 
    70df:	55                   	push   %rbp
    70e0:	48 89 e5             	mov    %rsp,%rbp
    70e3:	48 89 7d f8          	mov    %rdi,-0x8(%rbp)
    70e7:	89 75 f4             	mov    %esi,-0xc(%rbp)
    70ea:	83 7d f4 00          	cmpl   $0x0,-0xc(%rbp)
    70ee:	78 2f                	js     711f <safe_lshift_func_uint64_t_u_s+0x44>
    70f0:	83 7d f4 1f          	cmpl   $0x1f,-0xc(%rbp)
    70f4:	7f 29                	jg     711f <safe_lshift_func_uint64_t_u_s+0x44>
    70f6:	8b 45 f4             	mov    -0xc(%rbp),%eax
    70f9:	48 c7 c2 ff ff ff ff 	mov    $0xffffffffffffffff,%rdx
    7100:	89 c1                	mov    %eax,%ecx
    7102:	48 d3 ea             	shr    %cl,%rdx
    7105:	48 89 d0             	mov    %rdx,%rax
    7108:	48 39 45 f8          	cmp    %rax,-0x8(%rbp)
    710c:	77 11                	ja     711f <safe_lshift_func_uint64_t_u_s+0x44>
    710e:	8b 45 f4             	mov    -0xc(%rbp),%eax
    7111:	48 8b 55 f8          	mov    -0x8(%rbp),%rdx
    7115:	89 c1                	mov    %eax,%ecx
    7117:	48 d3 e2             	shl    %cl,%rdx
    711a:	48 89 d0             	mov    %rdx,%rax
    711d:	eb 04                	jmp    7123 <safe_lshift_func_uint64_t_u_s+0x48>
    711f:	48 8b 45 f8          	mov    -0x8(%rbp),%rax
    7123:	5d                   	pop    %rbp
    7124:	c3                   	retq   

0000000000007125 <safe_lshift_func_uint64_t_u_u>:
    7125:	f3 0f 1e fa          	endbr64 
    7129:	55                   	push   %rbp
    712a:	48 89 e5             	mov    %rsp,%rbp
    712d:	48 89 7d f8          	mov    %rdi,-0x8(%rbp)
    7131:	89 75 f4             	mov    %esi,-0xc(%rbp)
    7134:	83 7d f4 1f          	cmpl   $0x1f,-0xc(%rbp)
    7138:	77 29                	ja     7163 <safe_lshift_func_uint64_t_u_u+0x3e>
    713a:	8b 45 f4             	mov    -0xc(%rbp),%eax
    713d:	48 c7 c2 ff ff ff ff 	mov    $0xffffffffffffffff,%rdx
    7144:	89 c1                	mov    %eax,%ecx
    7146:	48 d3 ea             	shr    %cl,%rdx
    7149:	48 89 d0             	mov    %rdx,%rax
    714c:	48 39 45 f8          	cmp    %rax,-0x8(%rbp)
    7150:	77 11                	ja     7163 <safe_lshift_func_uint64_t_u_u+0x3e>
    7152:	8b 45 f4             	mov    -0xc(%rbp),%eax
    7155:	48 8b 55 f8          	mov    -0x8(%rbp),%rdx
    7159:	89 c1                	mov    %eax,%ecx
    715b:	48 d3 e2             	shl    %cl,%rdx
    715e:	48 89 d0             	mov    %rdx,%rax
    7161:	eb 04                	jmp    7167 <safe_lshift_func_uint64_t_u_u+0x42>
    7163:	48 8b 45 f8          	mov    -0x8(%rbp),%rax
    7167:	5d                   	pop    %rbp
    7168:	c3                   	retq   

0000000000007169 <safe_rshift_func_uint64_t_u_s>:
    7169:	f3 0f 1e fa          	endbr64 
    716d:	55                   	push   %rbp
    716e:	48 89 e5             	mov    %rsp,%rbp
    7171:	48 89 7d f8          	mov    %rdi,-0x8(%rbp)
    7175:	89 75 f4             	mov    %esi,-0xc(%rbp)
    7178:	83 7d f4 00          	cmpl   $0x0,-0xc(%rbp)
    717c:	78 17                	js     7195 <safe_rshift_func_uint64_t_u_s+0x2c>
    717e:	83 7d f4 1f          	cmpl   $0x1f,-0xc(%rbp)
    7182:	7f 11                	jg     7195 <safe_rshift_func_uint64_t_u_s+0x2c>
    7184:	8b 45 f4             	mov    -0xc(%rbp),%eax
    7187:	48 8b 55 f8          	mov    -0x8(%rbp),%rdx
    718b:	89 c1                	mov    %eax,%ecx
    718d:	48 d3 ea             	shr    %cl,%rdx
    7190:	48 89 d0             	mov    %rdx,%rax
    7193:	eb 04                	jmp    7199 <safe_rshift_func_uint64_t_u_s+0x30>
    7195:	48 8b 45 f8          	mov    -0x8(%rbp),%rax
    7199:	5d                   	pop    %rbp
    719a:	c3                   	retq   

000000000000719b <safe_rshift_func_uint64_t_u_u>:
    719b:	f3 0f 1e fa          	endbr64 
    719f:	55                   	push   %rbp
    71a0:	48 89 e5             	mov    %rsp,%rbp
    71a3:	48 89 7d f8          	mov    %rdi,-0x8(%rbp)
    71a7:	89 75 f4             	mov    %esi,-0xc(%rbp)
    71aa:	83 7d f4 1f          	cmpl   $0x1f,-0xc(%rbp)
    71ae:	77 11                	ja     71c1 <safe_rshift_func_uint64_t_u_u+0x26>
    71b0:	8b 45 f4             	mov    -0xc(%rbp),%eax
    71b3:	48 8b 55 f8          	mov    -0x8(%rbp),%rdx
    71b7:	89 c1                	mov    %eax,%ecx
    71b9:	48 d3 ea             	shr    %cl,%rdx
    71bc:	48 89 d0             	mov    %rdx,%rax
    71bf:	eb 04                	jmp    71c5 <safe_rshift_func_uint64_t_u_u+0x2a>
    71c1:	48 8b 45 f8          	mov    -0x8(%rbp),%rax
    71c5:	5d                   	pop    %rbp
    71c6:	c3                   	retq   

00000000000071c7 <safe_add_func_float_f_f>:
    71c7:	f3 0f 1e fa          	endbr64 
    71cb:	55                   	push   %rbp
    71cc:	48 89 e5             	mov    %rsp,%rbp
    71cf:	f3 0f 11 45 fc       	movss  %xmm0,-0x4(%rbp)
    71d4:	f3 0f 11 4d f8       	movss  %xmm1,-0x8(%rbp)
    71d9:	f3 0f 10 4d fc       	movss  -0x4(%rbp),%xmm1
    71de:	f3 0f 10 05 b2 b1 00 	movss  0xb1b2(%rip),%xmm0        # 12398 <l_174.4764+0x18>
    71e5:	00 
    71e6:	f3 0f 59 c8          	mulss  %xmm0,%xmm1
    71ea:	f3 0f 10 55 f8       	movss  -0x8(%rbp),%xmm2
    71ef:	f3 0f 10 05 a1 b1 00 	movss  0xb1a1(%rip),%xmm0        # 12398 <l_174.4764+0x18>
    71f6:	00 
    71f7:	f3 0f 59 c2          	mulss  %xmm2,%xmm0
    71fb:	f3 0f 58 c1          	addss  %xmm1,%xmm0
    71ff:	f3 0f 10 0d 99 b1 00 	movss  0xb199(%rip),%xmm1        # 123a0 <l_174.4764+0x20>
    7206:	00 
    7207:	0f 54 c1             	andps  %xmm1,%xmm0
    720a:	0f 2f 05 9f b1 00 00 	comiss 0xb19f(%rip),%xmm0        # 123b0 <l_174.4764+0x30>
    7211:	76 07                	jbe    721a <safe_add_func_float_f_f+0x53>
    7213:	f3 0f 10 45 fc       	movss  -0x4(%rbp),%xmm0
    7218:	eb 0a                	jmp    7224 <safe_add_func_float_f_f+0x5d>
    721a:	f3 0f 10 45 fc       	movss  -0x4(%rbp),%xmm0
    721f:	f3 0f 58 45 f8       	addss  -0x8(%rbp),%xmm0
    7224:	5d                   	pop    %rbp
    7225:	c3                   	retq   

0000000000007226 <safe_sub_func_float_f_f>:
    7226:	f3 0f 1e fa          	endbr64 
    722a:	55                   	push   %rbp
    722b:	48 89 e5             	mov    %rsp,%rbp
    722e:	f3 0f 11 45 fc       	movss  %xmm0,-0x4(%rbp)
    7233:	f3 0f 11 4d f8       	movss  %xmm1,-0x8(%rbp)
    7238:	f3 0f 10 4d fc       	movss  -0x4(%rbp),%xmm1
    723d:	f3 0f 10 05 53 b1 00 	movss  0xb153(%rip),%xmm0        # 12398 <l_174.4764+0x18>
    7244:	00 
    7245:	f3 0f 59 c1          	mulss  %xmm1,%xmm0
    7249:	f3 0f 10 55 f8       	movss  -0x8(%rbp),%xmm2
    724e:	f3 0f 10 0d 42 b1 00 	movss  0xb142(%rip),%xmm1        # 12398 <l_174.4764+0x18>
    7255:	00 
    7256:	f3 0f 59 ca          	mulss  %xmm2,%xmm1
    725a:	f3 0f 5c c1          	subss  %xmm1,%xmm0
    725e:	f3 0f 10 0d 3a b1 00 	movss  0xb13a(%rip),%xmm1        # 123a0 <l_174.4764+0x20>
    7265:	00 
    7266:	0f 54 c1             	andps  %xmm1,%xmm0
    7269:	0f 2f 05 40 b1 00 00 	comiss 0xb140(%rip),%xmm0        # 123b0 <l_174.4764+0x30>
    7270:	76 07                	jbe    7279 <safe_sub_func_float_f_f+0x53>
    7272:	f3 0f 10 45 fc       	movss  -0x4(%rbp),%xmm0
    7277:	eb 0a                	jmp    7283 <safe_sub_func_float_f_f+0x5d>
    7279:	f3 0f 10 45 fc       	movss  -0x4(%rbp),%xmm0
    727e:	f3 0f 5c 45 f8       	subss  -0x8(%rbp),%xmm0
    7283:	5d                   	pop    %rbp
    7284:	c3                   	retq   

0000000000007285 <safe_mul_func_float_f_f>:
    7285:	f3 0f 1e fa          	endbr64 
    7289:	55                   	push   %rbp
    728a:	48 89 e5             	mov    %rsp,%rbp
    728d:	f3 0f 11 45 fc       	movss  %xmm0,-0x4(%rbp)
    7292:	f3 0f 11 4d f8       	movss  %xmm1,-0x8(%rbp)
    7297:	f3 0f 10 4d fc       	movss  -0x4(%rbp),%xmm1
    729c:	f3 0f 10 05 10 b1 00 	movss  0xb110(%rip),%xmm0        # 123b4 <l_174.4764+0x34>
    72a3:	00 
    72a4:	f3 0f 59 c8          	mulss  %xmm0,%xmm1
    72a8:	f3 0f 10 55 f8       	movss  -0x8(%rbp),%xmm2
    72ad:	f3 0f 10 05 03 b1 00 	movss  0xb103(%rip),%xmm0        # 123b8 <l_174.4764+0x38>
    72b4:	00 
    72b5:	f3 0f 59 c2          	mulss  %xmm2,%xmm0
    72b9:	f3 0f 59 c1          	mulss  %xmm1,%xmm0
    72bd:	f3 0f 10 0d db b0 00 	movss  0xb0db(%rip),%xmm1        # 123a0 <l_174.4764+0x20>
    72c4:	00 
    72c5:	0f 54 c1             	andps  %xmm1,%xmm0
    72c8:	0f 2f 05 ed b0 00 00 	comiss 0xb0ed(%rip),%xmm0        # 123bc <l_174.4764+0x3c>
    72cf:	76 07                	jbe    72d8 <safe_mul_func_float_f_f+0x53>
    72d1:	f3 0f 10 45 fc       	movss  -0x4(%rbp),%xmm0
    72d6:	eb 0a                	jmp    72e2 <safe_mul_func_float_f_f+0x5d>
    72d8:	f3 0f 10 45 fc       	movss  -0x4(%rbp),%xmm0
    72dd:	f3 0f 59 45 f8       	mulss  -0x8(%rbp),%xmm0
    72e2:	5d                   	pop    %rbp
    72e3:	c3                   	retq   

00000000000072e4 <safe_div_func_float_f_f>:
    72e4:	f3 0f 1e fa          	endbr64 
    72e8:	55                   	push   %rbp
    72e9:	48 89 e5             	mov    %rsp,%rbp
    72ec:	f3 0f 11 45 fc       	movss  %xmm0,-0x4(%rbp)
    72f1:	f3 0f 11 4d f8       	movss  %xmm1,-0x8(%rbp)
    72f6:	f3 0f 10 45 f8       	movss  -0x8(%rbp),%xmm0
    72fb:	f3 0f 10 0d 9d b0 00 	movss  0xb09d(%rip),%xmm1        # 123a0 <l_174.4764+0x20>
    7302:	00 
    7303:	0f 54 c8             	andps  %xmm0,%xmm1
    7306:	f3 0f 10 05 b2 b0 00 	movss  0xb0b2(%rip),%xmm0        # 123c0 <l_174.4764+0x40>
    730d:	00 
    730e:	0f 2f c1             	comiss %xmm1,%xmm0
    7311:	0f 97 c0             	seta   %al
    7314:	83 f0 01             	xor    $0x1,%eax
    7317:	84 c0                	test   %al,%al
    7319:	75 56                	jne    7371 <safe_div_func_float_f_f+0x8d>
    731b:	66 0f ef c0          	pxor   %xmm0,%xmm0
    731f:	0f 2e 45 f8          	ucomiss -0x8(%rbp),%xmm0
    7323:	7a 0a                	jp     732f <safe_div_func_float_f_f+0x4b>
    7325:	66 0f ef c0          	pxor   %xmm0,%xmm0
    7329:	0f 2e 45 f8          	ucomiss -0x8(%rbp),%xmm0
    732d:	74 4e                	je     737d <safe_div_func_float_f_f+0x99>
    732f:	f3 0f 10 4d fc       	movss  -0x4(%rbp),%xmm1
    7334:	f3 0f 10 05 88 b0 00 	movss  0xb088(%rip),%xmm0        # 123c4 <l_174.4764+0x44>
    733b:	00 
    733c:	f3 0f 59 c1          	mulss  %xmm1,%xmm0
    7340:	f3 0f 10 55 f8       	movss  -0x8(%rbp),%xmm2
    7345:	f3 0f 10 0d 7b b0 00 	movss  0xb07b(%rip),%xmm1        # 123c8 <l_174.4764+0x48>
    734c:	00 
    734d:	f3 0f 59 ca          	mulss  %xmm2,%xmm1
    7351:	f3 0f 5e c1          	divss  %xmm1,%xmm0
    7355:	f3 0f 10 0d 43 b0 00 	movss  0xb043(%rip),%xmm1        # 123a0 <l_174.4764+0x20>
    735c:	00 
    735d:	0f 54 c1             	andps  %xmm1,%xmm0
    7360:	0f 2f 05 65 b0 00 00 	comiss 0xb065(%rip),%xmm0        # 123cc <l_174.4764+0x4c>
    7367:	0f 97 c0             	seta   %al
    736a:	83 f0 01             	xor    $0x1,%eax
    736d:	84 c0                	test   %al,%al
    736f:	74 0c                	je     737d <safe_div_func_float_f_f+0x99>
    7371:	f3 0f 10 45 fc       	movss  -0x4(%rbp),%xmm0
    7376:	f3 0f 5e 45 f8       	divss  -0x8(%rbp),%xmm0
    737b:	eb 05                	jmp    7382 <safe_div_func_float_f_f+0x9e>
    737d:	f3 0f 10 45 fc       	movss  -0x4(%rbp),%xmm0
    7382:	5d                   	pop    %rbp
    7383:	c3                   	retq   

0000000000007384 <safe_add_func_double_f_f>:
    7384:	f3 0f 1e fa          	endbr64 
    7388:	55                   	push   %rbp
    7389:	48 89 e5             	mov    %rsp,%rbp
    738c:	f2 0f 11 45 f8       	movsd  %xmm0,-0x8(%rbp)
    7391:	f2 0f 11 4d f0       	movsd  %xmm1,-0x10(%rbp)
    7396:	f2 0f 10 4d f8       	movsd  -0x8(%rbp),%xmm1
    739b:	f2 0f 10 05 2d b0 00 	movsd  0xb02d(%rip),%xmm0        # 123d0 <l_174.4764+0x50>
    73a2:	00 
    73a3:	f2 0f 59 c8          	mulsd  %xmm0,%xmm1
    73a7:	f2 0f 10 55 f0       	movsd  -0x10(%rbp),%xmm2
    73ac:	f2 0f 10 05 1c b0 00 	movsd  0xb01c(%rip),%xmm0        # 123d0 <l_174.4764+0x50>
    73b3:	00 
    73b4:	f2 0f 59 c2          	mulsd  %xmm2,%xmm0
    73b8:	f2 0f 58 c1          	addsd  %xmm1,%xmm0
    73bc:	f3 0f 7e 0d 1c b0 00 	movq   0xb01c(%rip),%xmm1        # 123e0 <l_174.4764+0x60>
    73c3:	00 
    73c4:	66 0f 54 c1          	andpd  %xmm1,%xmm0
    73c8:	66 0f 2f 05 20 b0 00 	comisd 0xb020(%rip),%xmm0        # 123f0 <l_174.4764+0x70>
    73cf:	00 
    73d0:	76 07                	jbe    73d9 <safe_add_func_double_f_f+0x55>
    73d2:	f2 0f 10 45 f8       	movsd  -0x8(%rbp),%xmm0
    73d7:	eb 0a                	jmp    73e3 <safe_add_func_double_f_f+0x5f>
    73d9:	f2 0f 10 45 f8       	movsd  -0x8(%rbp),%xmm0
    73de:	f2 0f 58 45 f0       	addsd  -0x10(%rbp),%xmm0
    73e3:	5d                   	pop    %rbp
    73e4:	c3                   	retq   

00000000000073e5 <safe_sub_func_double_f_f>:
    73e5:	f3 0f 1e fa          	endbr64 
    73e9:	55                   	push   %rbp
    73ea:	48 89 e5             	mov    %rsp,%rbp
    73ed:	f2 0f 11 45 f8       	movsd  %xmm0,-0x8(%rbp)
    73f2:	f2 0f 11 4d f0       	movsd  %xmm1,-0x10(%rbp)
    73f7:	f2 0f 10 4d f8       	movsd  -0x8(%rbp),%xmm1
    73fc:	f2 0f 10 05 cc af 00 	movsd  0xafcc(%rip),%xmm0        # 123d0 <l_174.4764+0x50>
    7403:	00 
    7404:	f2 0f 59 c1          	mulsd  %xmm1,%xmm0
    7408:	f2 0f 10 55 f0       	movsd  -0x10(%rbp),%xmm2
    740d:	f2 0f 10 0d bb af 00 	movsd  0xafbb(%rip),%xmm1        # 123d0 <l_174.4764+0x50>
    7414:	00 
    7415:	f2 0f 59 ca          	mulsd  %xmm2,%xmm1
    7419:	f2 0f 5c c1          	subsd  %xmm1,%xmm0
    741d:	f3 0f 7e 0d bb af 00 	movq   0xafbb(%rip),%xmm1        # 123e0 <l_174.4764+0x60>
    7424:	00 
    7425:	66 0f 54 c1          	andpd  %xmm1,%xmm0
    7429:	66 0f 2f 05 bf af 00 	comisd 0xafbf(%rip),%xmm0        # 123f0 <l_174.4764+0x70>
    7430:	00 
    7431:	76 07                	jbe    743a <safe_sub_func_double_f_f+0x55>
    7433:	f2 0f 10 45 f8       	movsd  -0x8(%rbp),%xmm0
    7438:	eb 0a                	jmp    7444 <safe_sub_func_double_f_f+0x5f>
    743a:	f2 0f 10 45 f8       	movsd  -0x8(%rbp),%xmm0
    743f:	f2 0f 5c 45 f0       	subsd  -0x10(%rbp),%xmm0
    7444:	5d                   	pop    %rbp
    7445:	c3                   	retq   

0000000000007446 <safe_mul_func_double_f_f>:
    7446:	f3 0f 1e fa          	endbr64 
    744a:	55                   	push   %rbp
    744b:	48 89 e5             	mov    %rsp,%rbp
    744e:	f2 0f 11 45 f8       	movsd  %xmm0,-0x8(%rbp)
    7453:	f2 0f 11 4d f0       	movsd  %xmm1,-0x10(%rbp)
    7458:	f2 0f 10 4d f8       	movsd  -0x8(%rbp),%xmm1
    745d:	f2 0f 10 05 93 af 00 	movsd  0xaf93(%rip),%xmm0        # 123f8 <l_174.4764+0x78>
    7464:	00 
    7465:	f2 0f 59 c8          	mulsd  %xmm0,%xmm1
    7469:	f2 0f 10 55 f0       	movsd  -0x10(%rbp),%xmm2
    746e:	f2 0f 10 05 8a af 00 	movsd  0xaf8a(%rip),%xmm0        # 12400 <l_174.4764+0x80>
    7475:	00 
    7476:	f2 0f 59 c2          	mulsd  %xmm2,%xmm0
    747a:	f2 0f 59 c1          	mulsd  %xmm1,%xmm0
    747e:	f3 0f 7e 0d 5a af 00 	movq   0xaf5a(%rip),%xmm1        # 123e0 <l_174.4764+0x60>
    7485:	00 
    7486:	66 0f 54 c1          	andpd  %xmm1,%xmm0
    748a:	66 0f 2f 05 76 af 00 	comisd 0xaf76(%rip),%xmm0        # 12408 <l_174.4764+0x88>
    7491:	00 
    7492:	76 07                	jbe    749b <safe_mul_func_double_f_f+0x55>
    7494:	f2 0f 10 45 f8       	movsd  -0x8(%rbp),%xmm0
    7499:	eb 0a                	jmp    74a5 <safe_mul_func_double_f_f+0x5f>
    749b:	f2 0f 10 45 f8       	movsd  -0x8(%rbp),%xmm0
    74a0:	f2 0f 59 45 f0       	mulsd  -0x10(%rbp),%xmm0
    74a5:	5d                   	pop    %rbp
    74a6:	c3                   	retq   

00000000000074a7 <safe_div_func_double_f_f>:
    74a7:	f3 0f 1e fa          	endbr64 
    74ab:	55                   	push   %rbp
    74ac:	48 89 e5             	mov    %rsp,%rbp
    74af:	f2 0f 11 45 f8       	movsd  %xmm0,-0x8(%rbp)
    74b4:	f2 0f 11 4d f0       	movsd  %xmm1,-0x10(%rbp)
    74b9:	f2 0f 10 45 f0       	movsd  -0x10(%rbp),%xmm0
    74be:	f3 0f 7e 0d 1a af 00 	movq   0xaf1a(%rip),%xmm1        # 123e0 <l_174.4764+0x60>
    74c5:	00 
    74c6:	66 0f 54 c8          	andpd  %xmm0,%xmm1
    74ca:	f2 0f 10 05 3e af 00 	movsd  0xaf3e(%rip),%xmm0        # 12410 <l_174.4764+0x90>
    74d1:	00 
    74d2:	66 0f 2f c1          	comisd %xmm1,%xmm0
    74d6:	0f 97 c0             	seta   %al
    74d9:	83 f0 01             	xor    $0x1,%eax
    74dc:	84 c0                	test   %al,%al
    74de:	75 5a                	jne    753a <safe_div_func_double_f_f+0x93>
    74e0:	66 0f ef c0          	pxor   %xmm0,%xmm0
    74e4:	66 0f 2e 45 f0       	ucomisd -0x10(%rbp),%xmm0
    74e9:	7a 0b                	jp     74f6 <safe_div_func_double_f_f+0x4f>
    74eb:	66 0f ef c0          	pxor   %xmm0,%xmm0
    74ef:	66 0f 2e 45 f0       	ucomisd -0x10(%rbp),%xmm0
    74f4:	74 50                	je     7546 <safe_div_func_double_f_f+0x9f>
    74f6:	f2 0f 10 4d f8       	movsd  -0x8(%rbp),%xmm1
    74fb:	f2 0f 10 05 15 af 00 	movsd  0xaf15(%rip),%xmm0        # 12418 <l_174.4764+0x98>
    7502:	00 
    7503:	f2 0f 59 c1          	mulsd  %xmm1,%xmm0
    7507:	f2 0f 10 55 f0       	movsd  -0x10(%rbp),%xmm2
    750c:	f2 0f 10 0d 0c af 00 	movsd  0xaf0c(%rip),%xmm1        # 12420 <l_174.4764+0xa0>
    7513:	00 
    7514:	f2 0f 59 ca          	mulsd  %xmm2,%xmm1
    7518:	f2 0f 5e c1          	divsd  %xmm1,%xmm0
    751c:	f3 0f 7e 0d bc ae 00 	movq   0xaebc(%rip),%xmm1        # 123e0 <l_174.4764+0x60>
    7523:	00 
    7524:	66 0f 54 c1          	andpd  %xmm1,%xmm0
    7528:	66 0f 2f 05 f8 ae 00 	comisd 0xaef8(%rip),%xmm0        # 12428 <l_174.4764+0xa8>
    752f:	00 
    7530:	0f 97 c0             	seta   %al
    7533:	83 f0 01             	xor    $0x1,%eax
    7536:	84 c0                	test   %al,%al
    7538:	74 0c                	je     7546 <safe_div_func_double_f_f+0x9f>
    753a:	f2 0f 10 45 f8       	movsd  -0x8(%rbp),%xmm0
    753f:	f2 0f 5e 45 f0       	divsd  -0x10(%rbp),%xmm0
    7544:	eb 05                	jmp    754b <safe_div_func_double_f_f+0xa4>
    7546:	f2 0f 10 45 f8       	movsd  -0x8(%rbp),%xmm0
    754b:	5d                   	pop    %rbp
    754c:	c3                   	retq   

000000000000754d <safe_convert_func_float_to_int32_t>:
    754d:	f3 0f 1e fa          	endbr64 
    7551:	55                   	push   %rbp
    7552:	48 89 e5             	mov    %rsp,%rbp
    7555:	f3 0f 11 45 fc       	movss  %xmm0,-0x4(%rbp)
    755a:	f3 0f 10 05 ce ae 00 	movss  0xaece(%rip),%xmm0        # 12430 <l_174.4764+0xb0>
    7561:	00 
    7562:	0f 2f 45 fc          	comiss -0x4(%rbp),%xmm0
    7566:	0f 93 c0             	setae  %al
    7569:	83 f0 01             	xor    $0x1,%eax
    756c:	84 c0                	test   %al,%al
    756e:	74 21                	je     7591 <safe_convert_func_float_to_int32_t+0x44>
    7570:	f3 0f 10 45 fc       	movss  -0x4(%rbp),%xmm0
    7575:	0f 2f 05 b8 ae 00 00 	comiss 0xaeb8(%rip),%xmm0        # 12434 <l_174.4764+0xb4>
    757c:	0f 93 c0             	setae  %al
    757f:	83 f0 01             	xor    $0x1,%eax
    7582:	84 c0                	test   %al,%al
    7584:	74 0b                	je     7591 <safe_convert_func_float_to_int32_t+0x44>
    7586:	f3 0f 10 45 fc       	movss  -0x4(%rbp),%xmm0
    758b:	f3 0f 2c c0          	cvttss2si %xmm0,%eax
    758f:	eb 05                	jmp    7596 <safe_convert_func_float_to_int32_t+0x49>
    7591:	b8 ff ff ff 7f       	mov    $0x7fffffff,%eax
    7596:	5d                   	pop    %rbp
    7597:	c3                   	retq   

0000000000007598 <crc32_gentab>:
    7598:	f3 0f 1e fa          	endbr64 
    759c:	55                   	push   %rbp
    759d:	48 89 e5             	mov    %rsp,%rbp
    75a0:	c7 45 fc 20 83 b8 ed 	movl   $0xedb88320,-0x4(%rbp)
    75a7:	c7 45 f4 00 00 00 00 	movl   $0x0,-0xc(%rbp)
    75ae:	eb 51                	jmp    7601 <crc32_gentab+0x69>
    75b0:	8b 45 f4             	mov    -0xc(%rbp),%eax
    75b3:	89 45 f0             	mov    %eax,-0x10(%rbp)
    75b6:	c7 45 f8 08 00 00 00 	movl   $0x8,-0x8(%rbp)
    75bd:	eb 1e                	jmp    75dd <crc32_gentab+0x45>
    75bf:	8b 45 f0             	mov    -0x10(%rbp),%eax
    75c2:	83 e0 01             	and    $0x1,%eax
    75c5:	85 c0                	test   %eax,%eax
    75c7:	74 0d                	je     75d6 <crc32_gentab+0x3e>
    75c9:	8b 45 f0             	mov    -0x10(%rbp),%eax
    75cc:	d1 e8                	shr    %eax
    75ce:	33 45 fc             	xor    -0x4(%rbp),%eax
    75d1:	89 45 f0             	mov    %eax,-0x10(%rbp)
    75d4:	eb 03                	jmp    75d9 <crc32_gentab+0x41>
    75d6:	d1 6d f0             	shrl   -0x10(%rbp)
    75d9:	83 6d f8 01          	subl   $0x1,-0x8(%rbp)
    75dd:	83 7d f8 00          	cmpl   $0x0,-0x8(%rbp)
    75e1:	7f dc                	jg     75bf <crc32_gentab+0x27>
    75e3:	8b 45 f4             	mov    -0xc(%rbp),%eax
    75e6:	48 98                	cltq   
    75e8:	48 8d 0c 85 00 00 00 	lea    0x0(,%rax,4),%rcx
    75ef:	00 
    75f0:	48 8d 15 29 17 01 00 	lea    0x11729(%rip),%rdx        # 18d20 <crc32_tab>
    75f7:	8b 45 f0             	mov    -0x10(%rbp),%eax
    75fa:	89 04 11             	mov    %eax,(%rcx,%rdx,1)
    75fd:	83 45 f4 01          	addl   $0x1,-0xc(%rbp)
    7601:	81 7d f4 ff 00 00 00 	cmpl   $0xff,-0xc(%rbp)
    7608:	7e a6                	jle    75b0 <crc32_gentab+0x18>
    760a:	90                   	nop
    760b:	90                   	nop
    760c:	5d                   	pop    %rbp
    760d:	c3                   	retq   

000000000000760e <crc32_byte>:
    760e:	f3 0f 1e fa          	endbr64 
    7612:	55                   	push   %rbp
    7613:	48 89 e5             	mov    %rsp,%rbp
    7616:	89 f8                	mov    %edi,%eax
    7618:	88 45 fc             	mov    %al,-0x4(%rbp)
    761b:	8b 05 ff d9 00 00    	mov    0xd9ff(%rip),%eax        # 15020 <crc32_context>
    7621:	c1 e8 08             	shr    $0x8,%eax
    7624:	89 c1                	mov    %eax,%ecx
    7626:	0f b6 55 fc          	movzbl -0x4(%rbp),%edx
    762a:	8b 05 f0 d9 00 00    	mov    0xd9f0(%rip),%eax        # 15020 <crc32_context>
    7630:	31 d0                	xor    %edx,%eax
    7632:	0f b6 c0             	movzbl %al,%eax
    7635:	89 c0                	mov    %eax,%eax
    7637:	48 8d 14 85 00 00 00 	lea    0x0(,%rax,4),%rdx
    763e:	00 
    763f:	48 8d 05 da 16 01 00 	lea    0x116da(%rip),%rax        # 18d20 <crc32_tab>
    7646:	8b 04 02             	mov    (%rdx,%rax,1),%eax
    7649:	31 c8                	xor    %ecx,%eax
    764b:	89 05 cf d9 00 00    	mov    %eax,0xd9cf(%rip)        # 15020 <crc32_context>
    7651:	90                   	nop
    7652:	5d                   	pop    %rbp
    7653:	c3                   	retq   

0000000000007654 <crc32_8bytes>:
    7654:	f3 0f 1e fa          	endbr64 
    7658:	55                   	push   %rbp
    7659:	48 89 e5             	mov    %rsp,%rbp
    765c:	48 83 ec 08          	sub    $0x8,%rsp
    7660:	48 89 7d f8          	mov    %rdi,-0x8(%rbp)
    7664:	48 8b 45 f8          	mov    -0x8(%rbp),%rax
    7668:	0f b6 c0             	movzbl %al,%eax
    766b:	89 c7                	mov    %eax,%edi
    766d:	e8 9c ff ff ff       	callq  760e <crc32_byte>
    7672:	48 8b 45 f8          	mov    -0x8(%rbp),%rax
    7676:	48 c1 e8 08          	shr    $0x8,%rax
    767a:	0f b6 c0             	movzbl %al,%eax
    767d:	89 c7                	mov    %eax,%edi
    767f:	e8 8a ff ff ff       	callq  760e <crc32_byte>
    7684:	48 8b 45 f8          	mov    -0x8(%rbp),%rax
    7688:	48 c1 e8 10          	shr    $0x10,%rax
    768c:	0f b6 c0             	movzbl %al,%eax
    768f:	89 c7                	mov    %eax,%edi
    7691:	e8 78 ff ff ff       	callq  760e <crc32_byte>
    7696:	48 8b 45 f8          	mov    -0x8(%rbp),%rax
    769a:	48 c1 e8 18          	shr    $0x18,%rax
    769e:	0f b6 c0             	movzbl %al,%eax
    76a1:	89 c7                	mov    %eax,%edi
    76a3:	e8 66 ff ff ff       	callq  760e <crc32_byte>
    76a8:	48 8b 45 f8          	mov    -0x8(%rbp),%rax
    76ac:	48 c1 e8 20          	shr    $0x20,%rax
    76b0:	0f b6 c0             	movzbl %al,%eax
    76b3:	89 c7                	mov    %eax,%edi
    76b5:	e8 54 ff ff ff       	callq  760e <crc32_byte>
    76ba:	48 8b 45 f8          	mov    -0x8(%rbp),%rax
    76be:	48 c1 e8 28          	shr    $0x28,%rax
    76c2:	0f b6 c0             	movzbl %al,%eax
    76c5:	89 c7                	mov    %eax,%edi
    76c7:	e8 42 ff ff ff       	callq  760e <crc32_byte>
    76cc:	48 8b 45 f8          	mov    -0x8(%rbp),%rax
    76d0:	48 c1 e8 30          	shr    $0x30,%rax
    76d4:	0f b6 c0             	movzbl %al,%eax
    76d7:	89 c7                	mov    %eax,%edi
    76d9:	e8 30 ff ff ff       	callq  760e <crc32_byte>
    76de:	48 8b 45 f8          	mov    -0x8(%rbp),%rax
    76e2:	48 c1 e8 38          	shr    $0x38,%rax
    76e6:	0f b6 c0             	movzbl %al,%eax
    76e9:	89 c7                	mov    %eax,%edi
    76eb:	e8 1e ff ff ff       	callq  760e <crc32_byte>
    76f0:	90                   	nop
    76f1:	c9                   	leaveq 
    76f2:	c3                   	retq   

00000000000076f3 <transparent_crc>:
    76f3:	f3 0f 1e fa          	endbr64 
    76f7:	55                   	push   %rbp
    76f8:	48 89 e5             	mov    %rsp,%rbp
    76fb:	48 83 ec 20          	sub    $0x20,%rsp
    76ff:	48 89 7d f8          	mov    %rdi,-0x8(%rbp)
    7703:	48 89 75 f0          	mov    %rsi,-0x10(%rbp)
    7707:	89 55 ec             	mov    %edx,-0x14(%rbp)
    770a:	48 8b 45 f8          	mov    -0x8(%rbp),%rax
    770e:	48 89 c7             	mov    %rax,%rdi
    7711:	e8 3e ff ff ff       	callq  7654 <crc32_8bytes>
    7716:	83 7d ec 00          	cmpl   $0x0,-0x14(%rbp)
    771a:	74 22                	je     773e <transparent_crc+0x4b>
    771c:	8b 05 fe d8 00 00    	mov    0xd8fe(%rip),%eax        # 15020 <crc32_context>
    7722:	f7 d0                	not    %eax
    7724:	89 c2                	mov    %eax,%edx
    7726:	48 8b 45 f0          	mov    -0x10(%rbp),%rax
    772a:	48 89 c6             	mov    %rax,%rsi
    772d:	48 8d 3d fc 98 00 00 	lea    0x98fc(%rip),%rdi        # 11030 <_IO_stdin_used+0x30>
    7734:	b8 00 00 00 00       	mov    $0x0,%eax
    7739:	e8 42 e9 ff ff       	callq  6080 <printf@plt>
    773e:	90                   	nop
    773f:	c9                   	leaveq 
    7740:	c3                   	retq   

0000000000007741 <transparent_crc_bytes>:
    7741:	f3 0f 1e fa          	endbr64 
    7745:	55                   	push   %rbp
    7746:	48 89 e5             	mov    %rsp,%rbp
    7749:	48 83 ec 30          	sub    $0x30,%rsp
    774d:	48 89 7d e8          	mov    %rdi,-0x18(%rbp)
    7751:	89 75 e4             	mov    %esi,-0x1c(%rbp)
    7754:	48 89 55 d8          	mov    %rdx,-0x28(%rbp)
    7758:	89 4d e0             	mov    %ecx,-0x20(%rbp)
    775b:	c7 45 fc 00 00 00 00 	movl   $0x0,-0x4(%rbp)
    7762:	eb 1e                	jmp    7782 <transparent_crc_bytes+0x41>
    7764:	8b 45 fc             	mov    -0x4(%rbp),%eax
    7767:	48 63 d0             	movslq %eax,%rdx
    776a:	48 8b 45 e8          	mov    -0x18(%rbp),%rax
    776e:	48 01 d0             	add    %rdx,%rax
    7771:	0f b6 00             	movzbl (%rax),%eax
    7774:	0f b6 c0             	movzbl %al,%eax
    7777:	89 c7                	mov    %eax,%edi
    7779:	e8 90 fe ff ff       	callq  760e <crc32_byte>
    777e:	83 45 fc 01          	addl   $0x1,-0x4(%rbp)
    7782:	8b 45 fc             	mov    -0x4(%rbp),%eax
    7785:	3b 45 e4             	cmp    -0x1c(%rbp),%eax
    7788:	7c da                	jl     7764 <transparent_crc_bytes+0x23>
    778a:	83 7d e0 00          	cmpl   $0x0,-0x20(%rbp)
    778e:	74 22                	je     77b2 <transparent_crc_bytes+0x71>
    7790:	8b 05 8a d8 00 00    	mov    0xd88a(%rip),%eax        # 15020 <crc32_context>
    7796:	f7 d0                	not    %eax
    7798:	89 c2                	mov    %eax,%edx
    779a:	48 8b 45 d8          	mov    -0x28(%rbp),%rax
    779e:	48 89 c6             	mov    %rax,%rsi
    77a1:	48 8d 3d 88 98 00 00 	lea    0x9888(%rip),%rdi        # 11030 <_IO_stdin_used+0x30>
    77a8:	b8 00 00 00 00       	mov    $0x0,%eax
    77ad:	e8 ce e8 ff ff       	callq  6080 <printf@plt>
    77b2:	90                   	nop
    77b3:	c9                   	leaveq 
    77b4:	c3                   	retq   

00000000000077b5 <func_1>:
    77b5:	f3 0f 1e fa          	endbr64 
    77b9:	55                   	push   %rbp
    77ba:	48 89 e5             	mov    %rsp,%rbp
    77bd:	41 57                	push   %r15
    77bf:	41 56                	push   %r14
    77c1:	41 55                	push   %r13
    77c3:	41 54                	push   %r12
    77c5:	53                   	push   %rbx
    77c6:	48 81 ec 00 10 00 00 	sub    $0x1000,%rsp
    77cd:	48 83 0c 24 00       	orq    $0x0,(%rsp)
    77d2:	48 81 ec 18 02 00 00 	sub    $0x218,%rsp
    77d9:	64 48 8b 04 25 28 00 	mov    %fs:0x28,%rax
    77e0:	00 00 
    77e2:	48 89 45 c8          	mov    %rax,-0x38(%rbp)
    77e6:	31 c0                	xor    %eax,%eax
    77e8:	48 8d 05 c1 d8 00 00 	lea    0xd8c1(%rip),%rax        # 150b0 <g_47>
    77ef:	48 89 85 20 f2 ff ff 	mov    %rax,-0xde0(%rbp)
    77f6:	48 8d 05 b3 d8 00 00 	lea    0xd8b3(%rip),%rax        # 150b0 <g_47>
    77fd:	48 89 85 28 f2 ff ff 	mov    %rax,-0xdd8(%rbp)
    7804:	48 8d 05 a5 d8 00 00 	lea    0xd8a5(%rip),%rax        # 150b0 <g_47>
    780b:	48 89 85 30 f2 ff ff 	mov    %rax,-0xdd0(%rbp)
    7812:	48 8d 05 97 d8 00 00 	lea    0xd897(%rip),%rax        # 150b0 <g_47>
    7819:	48 89 85 38 f2 ff ff 	mov    %rax,-0xdc8(%rbp)
    7820:	48 8d 05 89 d8 00 00 	lea    0xd889(%rip),%rax        # 150b0 <g_47>
    7827:	48 89 85 40 f2 ff ff 	mov    %rax,-0xdc0(%rbp)
    782e:	48 8d 05 7b d8 00 00 	lea    0xd87b(%rip),%rax        # 150b0 <g_47>
    7835:	48 89 85 48 f2 ff ff 	mov    %rax,-0xdb8(%rbp)
    783c:	48 8d 05 6d d8 00 00 	lea    0xd86d(%rip),%rax        # 150b0 <g_47>
    7843:	48 89 85 50 f2 ff ff 	mov    %rax,-0xdb0(%rbp)
    784a:	48 8d 05 5f d8 00 00 	lea    0xd85f(%rip),%rax        # 150b0 <g_47>
    7851:	48 89 85 58 f2 ff ff 	mov    %rax,-0xda8(%rbp)
    7858:	48 8d 05 51 d8 00 00 	lea    0xd851(%rip),%rax        # 150b0 <g_47>
    785f:	48 89 85 60 f2 ff ff 	mov    %rax,-0xda0(%rbp)
    7866:	48 8d 05 43 d8 00 00 	lea    0xd843(%rip),%rax        # 150b0 <g_47>
    786d:	48 89 85 68 f2 ff ff 	mov    %rax,-0xd98(%rbp)
    7874:	48 8d 05 35 d8 00 00 	lea    0xd835(%rip),%rax        # 150b0 <g_47>
    787b:	48 89 85 70 f2 ff ff 	mov    %rax,-0xd90(%rbp)
    7882:	48 c7 85 78 f2 ff ff 	movq   $0x0,-0xd88(%rbp)
    7889:	00 00 00 00 
    788d:	48 c7 85 80 f2 ff ff 	movq   $0x0,-0xd80(%rbp)
    7894:	00 00 00 00 
    7898:	48 8d 05 11 d8 00 00 	lea    0xd811(%rip),%rax        # 150b0 <g_47>
    789f:	48 89 85 88 f2 ff ff 	mov    %rax,-0xd78(%rbp)
    78a6:	48 8d 05 03 d8 00 00 	lea    0xd803(%rip),%rax        # 150b0 <g_47>
    78ad:	48 89 85 90 f2 ff ff 	mov    %rax,-0xd70(%rbp)
    78b4:	48 8d 05 f5 d7 00 00 	lea    0xd7f5(%rip),%rax        # 150b0 <g_47>
    78bb:	48 89 85 98 f2 ff ff 	mov    %rax,-0xd68(%rbp)
    78c2:	48 8d 05 e7 d7 00 00 	lea    0xd7e7(%rip),%rax        # 150b0 <g_47>
    78c9:	48 89 85 a0 f2 ff ff 	mov    %rax,-0xd60(%rbp)
    78d0:	48 c7 85 a8 f2 ff ff 	movq   $0x0,-0xd58(%rbp)
    78d7:	00 00 00 00 
    78db:	48 8d 05 ce d7 00 00 	lea    0xd7ce(%rip),%rax        # 150b0 <g_47>
    78e2:	48 89 85 b0 f2 ff ff 	mov    %rax,-0xd50(%rbp)
    78e9:	48 8d 05 c0 d7 00 00 	lea    0xd7c0(%rip),%rax        # 150b0 <g_47>
    78f0:	48 89 85 b8 f2 ff ff 	mov    %rax,-0xd48(%rbp)
    78f7:	48 8d 05 b2 d7 00 00 	lea    0xd7b2(%rip),%rax        # 150b0 <g_47>
    78fe:	48 89 85 c0 f2 ff ff 	mov    %rax,-0xd40(%rbp)
    7905:	c7 85 44 ee ff ff 29 	movl   $0x97cb2029,-0x11bc(%rbp)
    790c:	20 cb 97 
    790f:	c7 85 48 ee ff ff 03 	movl   $0x3,-0x11b8(%rbp)
    7916:	00 00 00 
    7919:	c7 85 14 ee ff ff fd 	movl   $0xf5a72ffd,-0x11ec(%rbp)
    7920:	2f a7 f5 
    7923:	c7 85 10 ee ff ff ab 	movl   $0x737a67ab,-0x11f0(%rbp)
    792a:	67 7a 73 
    792d:	c7 85 4c ee ff ff 60 	movl   $0x3342e60,-0x11b4(%rbp)
    7934:	2e 34 03 
    7937:	c7 85 50 ee ff ff 05 	movl   $0x5,-0x11b0(%rbp)
    793e:	00 00 00 
    7941:	c7 85 54 ee ff ff b9 	movl   $0xfaa817b9,-0x11ac(%rbp)
    7948:	17 a8 fa 
    794b:	c7 85 58 ee ff ff 01 	movl   $0x1,-0x11a8(%rbp)
    7952:	00 00 00 
    7955:	48 8d 05 ec 10 01 00 	lea    0x110ec(%rip),%rax        # 18a48 <g_389>
    795c:	48 89 85 e8 ee ff ff 	mov    %rax,-0x1118(%rbp)
    7963:	48 c7 85 f0 ee ff ff 	movq   $0x0,-0x1110(%rbp)
    796a:	00 00 00 00 
    796e:	c6 85 e8 ed ff ff 82 	movb   $0x82,-0x1218(%rbp)
    7975:	48 8d 05 94 dc 00 00 	lea    0xdc94(%rip),%rax        # 15610 <g_230>
    797c:	48 89 85 f8 ee ff ff 	mov    %rax,-0x1108(%rbp)
    7983:	c6 85 e9 ed ff ff ff 	movb   $0xff,-0x1217(%rbp)
    798a:	c7 85 18 ee ff ff 63 	movl   $0x8a5dbf63,-0x11e8(%rbp)
    7991:	bf 5d 8a 
    7994:	c6 85 ea ed ff ff 19 	movb   $0x19,-0x1216(%rbp)
    799b:	48 8d 05 ae 10 01 00 	lea    0x110ae(%rip),%rax        # 18a50 <g_488>
    79a2:	48 89 85 00 ef ff ff 	mov    %rax,-0x1100(%rbp)
    79a9:	48 c7 85 08 ef ff ff 	movq   $0x0,-0x10f8(%rbp)
    79b0:	00 00 00 00 
    79b4:	66 c7 85 f8 ed ff ff 	movw   $0xffff,-0x1208(%rbp)
    79bb:	ff ff 
    79bd:	48 8d 85 30 f6 ff ff 	lea    -0x9d0(%rbp),%rax
    79c4:	48 8d 15 95 ef 00 00 	lea    0xef95(%rip),%rdx        # 16960 <g_1915+0x10>
    79cb:	b9 3f 00 00 00       	mov    $0x3f,%ecx
    79d0:	48 89 c7             	mov    %rax,%rdi
    79d3:	48 89 d6             	mov    %rdx,%rsi
    79d6:	f3 48 a5             	rep movsq %ds:(%rsi),%es:(%rdi)
    79d9:	c6 85 eb ed ff ff 08 	movb   $0x8,-0x1215(%rbp)
    79e0:	c7 85 5c ee ff ff fa 	movl   $0xfffffffa,-0x11a4(%rbp)
    79e7:	ff ff ff 
    79ea:	66 c7 85 fa ed ff ff 	movw   $0xffff,-0x1206(%rbp)
    79f1:	ff ff 
    79f3:	66 c7 85 fe ed ff ff 	movw   $0xfff6,-0x1202(%rbp)
    79fa:	f6 ff 
    79fc:	48 8d 05 cd dc 00 00 	lea    0xdccd(%rip),%rax        # 156d0 <g_437>
    7a03:	48 89 85 a8 ee ff ff 	mov    %rax,-0x1158(%rbp)
    7a0a:	48 8d 05 27 10 01 00 	lea    0x11027(%rip),%rax        # 18a38 <g_312>
    7a11:	48 89 85 b0 ee ff ff 	mov    %rax,-0x1150(%rbp)
    7a18:	48 8d 85 b0 ee ff ff 	lea    -0x1150(%rbp),%rax
    7a1f:	48 89 85 10 ef ff ff 	mov    %rax,-0x10f0(%rbp)
    7a26:	48 8d 85 b0 ee ff ff 	lea    -0x1150(%rbp),%rax
    7a2d:	48 89 85 18 ef ff ff 	mov    %rax,-0x10e8(%rbp)
    7a34:	48 c7 85 20 ef ff ff 	movq   $0x0,-0x10e0(%rbp)
    7a3b:	00 00 00 00 
    7a3f:	c7 85 60 ee ff ff fa 	movl   $0xfffffffa,-0x11a0(%rbp)
    7a46:	ff ff ff 
    7a49:	48 b8 80 27 c8 28 92 	movabs $0x3c72259228c82780,%rax
    7a50:	25 72 3c 
    7a53:	48 89 85 28 ef ff ff 	mov    %rax,-0x10d8(%rbp)
    7a5a:	48 c7 85 30 ef ff ff 	movq   $0x0,-0x10d0(%rbp)
    7a61:	00 00 00 00 
    7a65:	48 8d 05 2c 17 01 00 	lea    0x1172c(%rip),%rax        # 19198 <g_1508>
    7a6c:	48 89 85 38 ef ff ff 	mov    %rax,-0x10c8(%rbp)
    7a73:	c7 85 64 ee ff ff 08 	movl   $0x8,-0x119c(%rbp)
    7a7a:	00 00 00 
    7a7d:	48 8d 05 a4 0f 01 00 	lea    0x10fa4(%rip),%rax        # 18a28 <g_308+0x68>
    7a84:	48 89 85 b8 ee ff ff 	mov    %rax,-0x1148(%rbp)
    7a8b:	48 8d 85 b8 ee ff ff 	lea    -0x1148(%rbp),%rax
    7a92:	48 89 85 40 ef ff ff 	mov    %rax,-0x10c0(%rbp)
    7a99:	c7 85 68 ee ff ff 57 	movl   $0x905a4857,-0x1198(%rbp)
    7aa0:	48 5a 90 
    7aa3:	48 b8 9a cf 22 eb e7 	movabs $0xd3222ae7eb22cf9a,%rax
    7aaa:	2a 22 d3 
    7aad:	48 89 85 48 ef ff ff 	mov    %rax,-0x10b8(%rbp)
    7ab4:	c6 85 ec ed ff ff f6 	movb   $0xf6,-0x1214(%rbp)
    7abb:	48 8d 85 b0 f4 ff ff 	lea    -0xb50(%rbp),%rax
    7ac2:	48 8d 15 b7 95 00 00 	lea    0x95b7(%rip),%rdx        # 11080 <g_1649+0x8>
    7ac9:	b9 30 00 00 00       	mov    $0x30,%ecx
    7ace:	48 89 c7             	mov    %rax,%rdi
    7ad1:	48 89 d6             	mov    %rdx,%rsi
    7ad4:	f3 48 a5             	rep movsq %ds:(%rsi),%es:(%rdi)
    7ad7:	c7 85 1c ee ff ff 00 	movl   $0x0,-0x11e4(%rbp)
    7ade:	00 00 00 
    7ae1:	eb 1b                	jmp    7afe <func_1+0x349>
    7ae3:	8b 85 1c ee ff ff    	mov    -0x11e4(%rbp),%eax
    7ae9:	48 98                	cltq   
    7aeb:	48 c7 84 c5 10 f1 ff 	movq   $0x0,-0xef0(%rbp,%rax,8)
    7af2:	ff 00 00 00 00 
    7af7:	83 85 1c ee ff ff 01 	addl   $0x1,-0x11e4(%rbp)
    7afe:	83 bd 1c ee ff ff 05 	cmpl   $0x5,-0x11e4(%rbp)
    7b05:	7e dc                	jle    7ae3 <func_1+0x32e>
    7b07:	c7 85 1c ee ff ff 00 	movl   $0x0,-0x11e4(%rbp)
    7b0e:	00 00 00 
    7b11:	eb 1b                	jmp    7b2e <func_1+0x379>
    7b13:	8b 85 1c ee ff ff    	mov    -0x11e4(%rbp),%eax
    7b19:	48 98                	cltq   
    7b1b:	48 c7 84 c5 a0 f0 ff 	movq   $0x0,-0xf60(%rbp,%rax,8)
    7b22:	ff 00 00 00 00 
    7b27:	83 85 1c ee ff ff 01 	addl   $0x1,-0x11e4(%rbp)
    7b2e:	83 bd 1c ee ff ff 02 	cmpl   $0x2,-0x11e4(%rbp)
    7b35:	7e dc                	jle    7b13 <func_1+0x35e>
    7b37:	c7 85 1c ee ff ff 00 	movl   $0x0,-0x11e4(%rbp)
    7b3e:	00 00 00 
    7b41:	eb 14                	jmp    7b57 <func_1+0x3a2>
    7b43:	8b 85 1c ee ff ff    	mov    -0x11e4(%rbp),%eax
    7b49:	48 98                	cltq   
    7b4b:	c6 44 05 b9 f8       	movb   $0xf8,-0x47(%rbp,%rax,1)
    7b50:	83 85 1c ee ff ff 01 	addl   $0x1,-0x11e4(%rbp)
    7b57:	83 bd 1c ee ff ff 04 	cmpl   $0x4,-0x11e4(%rbp)
    7b5e:	7e e3                	jle    7b43 <func_1+0x38e>
    7b60:	c7 05 be d4 00 00 0b 	movl   $0xb,0xd4be(%rip)        # 15028 <g_4>
    7b67:	00 00 00 
    7b6a:	e9 c8 01 00 00       	jmpq   7d37 <func_1+0x582>
    7b6f:	48 8d 05 e2 d4 00 00 	lea    0xd4e2(%rip),%rax        # 15058 <g_18+0x18>
    7b76:	48 89 85 00 f0 ff ff 	mov    %rax,-0x1000(%rbp)
    7b7d:	c7 85 d8 ee ff ff 3d 	movl   $0xdb39523d,-0x1128(%rbp)
    7b84:	52 39 db 
    7b87:	48 8d 05 36 d6 00 00 	lea    0xd636(%rip),%rax        # 151c4 <g_208>
    7b8e:	48 89 85 08 f0 ff ff 	mov    %rax,-0xff8(%rbp)
    7b95:	c7 85 90 ee ff ff 00 	movl   $0x0,-0x1170(%rbp)
    7b9c:	00 00 00 
    7b9f:	c7 85 90 f3 ff ff 81 	movl   $0x9bacc681,-0xc70(%rbp)
    7ba6:	c6 ac 9b 
    7ba9:	c7 85 94 f3 ff ff 81 	movl   $0x9bacc681,-0xc6c(%rbp)
    7bb0:	c6 ac 9b 
    7bb3:	c7 85 98 f3 ff ff 81 	movl   $0x9bacc681,-0xc68(%rbp)
    7bba:	c6 ac 9b 
    7bbd:	c7 85 9c f3 ff ff 81 	movl   $0x9bacc681,-0xc64(%rbp)
    7bc4:	c6 ac 9b 
    7bc7:	c7 85 a0 f3 ff ff 81 	movl   $0x9bacc681,-0xc60(%rbp)
    7bce:	c6 ac 9b 
    7bd1:	c7 85 a4 f3 ff ff 81 	movl   $0x9bacc681,-0xc5c(%rbp)
    7bd8:	c6 ac 9b 
    7bdb:	c7 85 a8 f3 ff ff 81 	movl   $0x9bacc681,-0xc58(%rbp)
    7be2:	c6 ac 9b 
    7be5:	c7 85 ac f3 ff ff 81 	movl   $0x9bacc681,-0xc54(%rbp)
    7bec:	c6 ac 9b 
    7bef:	c7 85 b0 f3 ff ff 81 	movl   $0x9bacc681,-0xc50(%rbp)
    7bf6:	c6 ac 9b 
    7bf9:	48 c7 85 10 f0 ff ff 	movq   $0x0,-0xff0(%rbp)
    7c00:	00 00 00 00 
    7c04:	48 8d 05 3d dd 00 00 	lea    0xdd3d(%rip),%rax        # 15948 <g_715>
    7c0b:	48 89 85 18 f0 ff ff 	mov    %rax,-0xfe8(%rbp)
    7c12:	48 8d 85 d8 ee ff ff 	lea    -0x1128(%rbp),%rax
    7c19:	48 89 85 20 f0 ff ff 	mov    %rax,-0xfe0(%rbp)
    7c20:	c6 85 f2 ed ff ff bd 	movb   $0xbd,-0x120e(%rbp)
    7c27:	66 c7 85 d0 f2 ff ff 	movw   $0xf701,-0xd30(%rbp)
    7c2e:	01 f7 
    7c30:	66 c7 85 d2 f2 ff ff 	movw   $0x101,-0xd2e(%rbp)
    7c37:	01 01 
    7c39:	66 c7 85 d4 f2 ff ff 	movw   $0x1f7,-0xd2c(%rbp)
    7c40:	f7 01 
    7c42:	66 c7 85 d6 f2 ff ff 	movw   $0xf701,-0xd2a(%rbp)
    7c49:	01 f7 
    7c4b:	c7 85 94 ee ff ff f8 	movl   $0xfffffff8,-0x116c(%rbp)
    7c52:	ff ff ff 
    7c55:	66 c7 85 0a ee ff ff 	movw   $0x3,-0x11f6(%rbp)
    7c5c:	03 00 
    7c5e:	48 c7 85 28 f0 ff ff 	movq   $0xfffffffffffffffc,-0xfd8(%rbp)
    7c65:	fc ff ff ff 
    7c69:	c7 85 98 ee ff ff fe 	movl   $0xfffffffe,-0x1168(%rbp)
    7c70:	ff ff ff 
    7c73:	48 8d 05 56 0f 01 00 	lea    0x10f56(%rip),%rax        # 18bd0 <g_991+0x30>
    7c7a:	48 89 85 e0 ee ff ff 	mov    %rax,-0x1120(%rbp)
    7c81:	48 8d 85 e0 ee ff ff 	lea    -0x1120(%rbp),%rax
    7c88:	48 89 85 30 f0 ff ff 	mov    %rax,-0xfd0(%rbp)
    7c8f:	c6 85 f3 ed ff ff ee 	movb   $0xee,-0x120d(%rbp)
    7c96:	66 c7 85 0c ee ff ff 	movw   $0x51ab,-0x11f4(%rbp)
    7c9d:	ab 51 
    7c9f:	48 8d 05 ea 0e 01 00 	lea    0x10eea(%rip),%rax        # 18b90 <g_936>
    7ca6:	48 89 85 50 f0 ff ff 	mov    %rax,-0xfb0(%rbp)
    7cad:	48 8d 85 50 f0 ff ff 	lea    -0xfb0(%rbp),%rax
    7cb4:	48 89 85 38 f0 ff ff 	mov    %rax,-0xfc8(%rbp)
    7cbb:	c6 85 f4 ed ff ff bd 	movb   $0xbd,-0x120c(%rbp)
    7cc2:	48 8d 85 30 f8 ff ff 	lea    -0x7d0(%rbp),%rax
    7cc9:	48 8d 15 30 95 00 00 	lea    0x9530(%rip),%rdx        # 11200 <g_1649+0x188>
    7cd0:	b9 69 00 00 00       	mov    $0x69,%ecx
    7cd5:	48 89 c7             	mov    %rax,%rdi
    7cd8:	48 89 d6             	mov    %rdx,%rsi
    7cdb:	f3 48 a5             	rep movsq %ds:(%rsi),%es:(%rdi)
    7cde:	c7 85 9c ee ff ff ff 	movl   $0xffffffff,-0x1164(%rbp)
    7ce5:	ff ff ff 
    7ce8:	c7 85 a0 ee ff ff 00 	movl   $0x0,-0x1160(%rbp)
    7cef:	00 00 00 
    7cf2:	c6 85 f5 ed ff ff fa 	movb   $0xfa,-0x120b(%rbp)
    7cf9:	c7 85 a4 ee ff ff ff 	movl   $0xffffffff,-0x115c(%rbp)
    7d00:	ff ff ff 
    7d03:	66 c7 85 0e ee ff ff 	movw   $0xa866,-0x11f2(%rbp)
    7d0a:	66 a8 
    7d0c:	48 8d 05 4d 0c 01 00 	lea    0x10c4d(%rip),%rax        # 18960 <g_220+0x80>
    7d13:	48 89 85 40 f0 ff ff 	mov    %rax,-0xfc0(%rbp)
    7d1a:	48 8d 85 10 ee ff ff 	lea    -0x11f0(%rbp),%rax
    7d21:	48 89 85 48 f0 ff ff 	mov    %rax,-0xfb8(%rbp)
    7d28:	8b 05 fa d2 00 00    	mov    0xd2fa(%rip),%eax        # 15028 <g_4>
    7d2e:	83 c0 01             	add    $0x1,%eax
    7d31:	89 05 f1 d2 00 00    	mov    %eax,0xd2f1(%rip)        # 15028 <g_4>
    7d37:	8b 05 eb d2 00 00    	mov    0xd2eb(%rip),%eax        # 15028 <g_4>
    7d3d:	83 f8 1a             	cmp    $0x1a,%eax
    7d40:	0f 85 29 fe ff ff    	jne    7b6f <func_1+0x3ba>
    7d46:	90                   	nop
    7d47:	48 8d 85 30 f6 ff ff 	lea    -0x9d0(%rbp),%rax
    7d4e:	48 05 b0 01 00 00    	add    $0x1b0,%rax
    7d54:	48 89 85 08 ef ff ff 	mov    %rax,-0x10f8(%rbp)
    7d5b:	66 c7 85 f8 ed ff ff 	movw   $0x0,-0x1208(%rbp)
    7d62:	00 00 
    7d64:	e9 d3 02 00 00       	jmpq   803c <func_1+0x887>
    7d69:	48 b8 38 ee aa 77 98 	movabs $0xa41779877aaee38,%rax
    7d70:	77 41 0a 
    7d73:	48 89 85 e8 ef ff ff 	mov    %rax,-0x1018(%rbp)
    7d7a:	48 8d 05 ef e0 00 00 	lea    0xe0ef(%rip),%rax        # 15e70 <g_984>
    7d81:	48 89 85 d0 f2 ff ff 	mov    %rax,-0xd30(%rbp)
    7d88:	48 8d 05 e1 e0 00 00 	lea    0xe0e1(%rip),%rax        # 15e70 <g_984>
    7d8f:	48 89 85 d8 f2 ff ff 	mov    %rax,-0xd28(%rbp)
    7d96:	48 8d 05 d3 e0 00 00 	lea    0xe0d3(%rip),%rax        # 15e70 <g_984>
    7d9d:	48 89 85 e0 f2 ff ff 	mov    %rax,-0xd20(%rbp)
    7da4:	48 8d 05 c5 e0 00 00 	lea    0xe0c5(%rip),%rax        # 15e70 <g_984>
    7dab:	48 89 85 e8 f2 ff ff 	mov    %rax,-0xd18(%rbp)
    7db2:	48 8d 05 b7 e0 00 00 	lea    0xe0b7(%rip),%rax        # 15e70 <g_984>
    7db9:	48 89 85 f0 f2 ff ff 	mov    %rax,-0xd10(%rbp)
    7dc0:	48 8d 05 a9 e0 00 00 	lea    0xe0a9(%rip),%rax        # 15e70 <g_984>
    7dc7:	48 89 85 f8 f2 ff ff 	mov    %rax,-0xd08(%rbp)
    7dce:	48 8d 05 9b e0 00 00 	lea    0xe09b(%rip),%rax        # 15e70 <g_984>
    7dd5:	48 89 85 00 f3 ff ff 	mov    %rax,-0xd00(%rbp)
    7ddc:	48 8d 05 8d e0 00 00 	lea    0xe08d(%rip),%rax        # 15e70 <g_984>
    7de3:	48 89 85 08 f3 ff ff 	mov    %rax,-0xcf8(%rbp)
    7dea:	48 8d 05 7f e0 00 00 	lea    0xe07f(%rip),%rax        # 15e70 <g_984>
    7df1:	48 89 85 10 f3 ff ff 	mov    %rax,-0xcf0(%rbp)
    7df8:	48 8d 05 71 e0 00 00 	lea    0xe071(%rip),%rax        # 15e70 <g_984>
    7dff:	48 89 85 18 f3 ff ff 	mov    %rax,-0xce8(%rbp)
    7e06:	48 8d 85 30 f8 ff ff 	lea    -0x7d0(%rbp),%rax
    7e0d:	48 8d 15 4c ed 00 00 	lea    0xed4c(%rip),%rdx        # 16b60 <g_1915+0x210>
    7e14:	b9 f0 00 00 00       	mov    $0xf0,%ecx
    7e19:	48 89 c7             	mov    %rax,%rdi
    7e1c:	48 89 d6             	mov    %rdx,%rsi
    7e1f:	f3 48 a5             	rep movsq %ds:(%rsi),%es:(%rdi)
    7e22:	48 8d 85 30 f8 ff ff 	lea    -0x7d0(%rbp),%rax
    7e29:	48 05 00 07 00 00    	add    $0x700,%rax
    7e2f:	48 89 85 f0 ef ff ff 	mov    %rax,-0x1010(%rbp)
    7e36:	48 8d 05 0b 0c 01 00 	lea    0x10c0b(%rip),%rax        # 18a48 <g_389>
    7e3d:	48 89 85 f8 ef ff ff 	mov    %rax,-0x1008(%rbp)
    7e44:	c7 85 80 f1 ff ff 91 	movl   $0xee91c191,-0xe80(%rbp)
    7e4b:	c1 91 ee 
    7e4e:	66 c7 85 84 f1 ff ff 	movw   $0x91ee,-0xe7c(%rbp)
    7e55:	ee 91 
    7e57:	c6 85 86 f1 ff ff c1 	movb   $0xc1,-0xe7a(%rbp)
    7e5e:	c7 85 87 f1 ff ff ee 	movl   $0x202c1ee,-0xe79(%rbp)
    7e65:	c1 02 02 
    7e68:	66 c7 85 8b f1 ff ff 	movw   $0xeec1,-0xe75(%rbp)
    7e6f:	c1 ee 
    7e71:	c6 85 8d f1 ff ff c1 	movb   $0xc1,-0xe73(%rbp)
    7e78:	c7 85 8e f1 ff ff 91 	movl   $0x91eeee91,-0xe72(%rbp)
    7e7f:	ee ee 91 
    7e82:	66 c7 85 92 f1 ff ff 	movw   $0x91c1,-0xe6e(%rbp)
    7e89:	c1 91 
    7e8b:	c6 85 94 f1 ff ff ee 	movb   $0xee,-0xe6c(%rbp)
    7e92:	c7 85 20 ee ff ff 00 	movl   $0x0,-0x11e0(%rbp)
    7e99:	00 00 00 
    7e9c:	eb 1b                	jmp    7eb9 <func_1+0x704>
    7e9e:	8b 85 20 ee ff ff    	mov    -0x11e0(%rbp),%eax
    7ea4:	48 98                	cltq   
    7ea6:	48 c7 84 c5 90 f3 ff 	movq   $0x0,-0xc70(%rbp,%rax,8)
    7ead:	ff 00 00 00 00 
    7eb2:	83 85 20 ee ff ff 01 	addl   $0x1,-0x11e0(%rbp)
    7eb9:	83 bd 20 ee ff ff 09 	cmpl   $0x9,-0x11e0(%rbp)
    7ec0:	7e dc                	jle    7e9e <func_1+0x6e9>
    7ec2:	48 8d 05 d7 0a 01 00 	lea    0x10ad7(%rip),%rax        # 189a0 <g_266>
    7ec9:	48 89 05 a0 0b 01 00 	mov    %rax,0x10ba0(%rip)        # 18a70 <g_592>
    7ed0:	48 8b 05 99 0b 01 00 	mov    0x10b99(%rip),%rax        # 18a70 <g_592>
    7ed7:	48 39 85 f8 ef ff ff 	cmp    %rax,-0x1008(%rbp)
    7ede:	0f 94 c0             	sete   %al
    7ee1:	0f b6 c0             	movzbl %al,%eax
    7ee4:	be 07 00 00 00       	mov    $0x7,%esi
    7ee9:	89 c7                	mov    %eax,%edi
    7eeb:	e8 45 e4 ff ff       	callq  6335 <safe_rshift_func_int8_t_s_s>
    7ef0:	89 c3                	mov    %eax,%ebx
    7ef2:	48 8b 85 e8 ee ff ff 	mov    -0x1118(%rbp),%rax
    7ef9:	48 8b 10             	mov    (%rax),%rdx
    7efc:	48 8b 85 e8 ee ff ff 	mov    -0x1118(%rbp),%rax
    7f03:	48 8b 00             	mov    (%rax),%rax
    7f06:	8b 12                	mov    (%rdx),%edx
    7f08:	89 10                	mov    %edx,(%rax)
    7f0a:	8b 00                	mov    (%rax),%eax
    7f0c:	85 c0                	test   %eax,%eax
    7f0e:	74 3f                	je     7f4f <func_1+0x79a>
    7f10:	8b 05 8e a1 00 00    	mov    0xa18e(%rip),%eax        # 120a4 <l_1700.4194+0x4>
    7f16:	41 89 c4             	mov    %eax,%r12d
    7f19:	48 8d 05 24 da 00 00 	lea    0xda24(%rip),%rax        # 15944 <g_599>
    7f20:	8b 10                	mov    (%rax),%edx
    7f22:	48 8b 05 07 0d 01 00 	mov    0x10d07(%rip),%rax        # 18c30 <g_1506>
    7f29:	48 8b 00             	mov    (%rax),%rax
    7f2c:	8b 00                	mov    (%rax),%eax
    7f2e:	89 d6                	mov    %edx,%esi
    7f30:	89 c7                	mov    %eax,%edi
    7f32:	e8 c8 e7 ff ff       	callq  66ff <safe_div_func_int32_t_s_s>
    7f37:	0f be c0             	movsbl %al,%eax
    7f3a:	44 89 e6             	mov    %r12d,%esi
    7f3d:	89 c7                	mov    %eax,%edi
    7f3f:	e8 f1 e3 ff ff       	callq  6335 <safe_rshift_func_int8_t_s_s>
    7f44:	84 c0                	test   %al,%al
    7f46:	74 07                	je     7f4f <func_1+0x79a>
    7f48:	b8 01 00 00 00       	mov    $0x1,%eax
    7f4d:	eb 05                	jmp    7f54 <func_1+0x79f>
    7f4f:	b8 00 00 00 00       	mov    $0x0,%eax
    7f54:	48 63 d0             	movslq %eax,%rdx
    7f57:	0f b6 85 86 f1 ff ff 	movzbl -0xe7a(%rbp),%eax
    7f5e:	0f b6 c0             	movzbl %al,%eax
    7f61:	48 89 d6             	mov    %rdx,%rsi
    7f64:	48 89 c7             	mov    %rax,%rdi
    7f67:	e8 43 f1 ff ff       	callq  70af <safe_div_func_uint64_t_u_u>
    7f6c:	98                   	cwtl   
    7f6d:	89 c6                	mov    %eax,%esi
    7f6f:	bf eb e6 ff ff       	mov    $0xffffe6eb,%edi
    7f74:	e8 5a e4 ff ff       	callq  63d3 <safe_sub_func_int16_t_s_s>
    7f79:	48 8b 15 e0 0a 01 00 	mov    0x10ae0(%rip),%rdx        # 18a60 <g_489>
    7f80:	48 8b 12             	mov    (%rdx),%rdx
    7f83:	0f b6 12             	movzbl (%rdx),%edx
    7f86:	66 0f be d2          	movsbw %dl,%dx
    7f8a:	66 39 d0             	cmp    %dx,%ax
    7f8d:	0f 9f c0             	setg   %al
    7f90:	0f b6 c0             	movzbl %al,%eax
    7f93:	be 06 00 00 00       	mov    $0x6,%esi
    7f98:	89 c7                	mov    %eax,%edi
    7f9a:	e8 02 e3 ff ff       	callq  62a1 <safe_lshift_func_int8_t_s_s>
    7f9f:	38 c3                	cmp    %al,%bl
    7fa1:	48 8b 95 88 fc ff ff 	mov    -0x378(%rbp),%rdx
    7fa8:	48 8b 85 f0 ef ff ff 	mov    -0x1010(%rbp),%rax
    7faf:	48 89 10             	mov    %rdx,(%rax)
    7fb2:	48 8b 85 f0 ef ff ff 	mov    -0x1010(%rbp),%rax
    7fb9:	48 8b 10             	mov    (%rax),%rdx
    7fbc:	48 8b 05 75 0c 01 00 	mov    0x10c75(%rip),%rax        # 18c38 <g_1507>
    7fc3:	48 8b 00             	mov    (%rax),%rax
    7fc6:	48 39 c2             	cmp    %rax,%rdx
    7fc9:	0f 94 c0             	sete   %al
    7fcc:	0f b6 d0             	movzbl %al,%edx
    7fcf:	48 c7 85 e8 ef ff ff 	movq   $0x2e4,-0x1018(%rbp)
    7fd6:	e4 02 00 00 
    7fda:	48 8b 85 e8 ef ff ff 	mov    -0x1018(%rbp),%rax
    7fe1:	8b 0d 0d e0 00 00    	mov    0xe00d(%rip),%ecx        # 15ff4 <g_1407+0x54>
    7fe7:	89 c6                	mov    %eax,%esi
    7fe9:	0f b7 05 dc d6 00 00 	movzwl 0xd6dc(%rip),%eax        # 156cc <g_293>
    7ff0:	31 f0                	xor    %esi,%eax
    7ff2:	66 89 05 d3 d6 00 00 	mov    %ax,0xd6d3(%rip)        # 156cc <g_293>
    7ff9:	0f b7 05 cc d6 00 00 	movzwl 0xd6cc(%rip),%eax        # 156cc <g_293>
    8000:	0f b7 c0             	movzwl %ax,%eax
    8003:	39 c1                	cmp    %eax,%ecx
    8005:	0f 93 c0             	setae  %al
    8008:	0f b6 c0             	movzbl %al,%eax
    800b:	89 d6                	mov    %edx,%esi
    800d:	89 c7                	mov    %eax,%edi
    800f:	e8 e1 e3 ff ff       	callq  63f5 <safe_mul_func_int16_t_s_s>
    8014:	89 c2                	mov    %eax,%edx
    8016:	48 8b 05 83 09 01 00 	mov    0x10983(%rip),%rax        # 189a0 <g_266>
    801d:	0f bf d2             	movswl %dx,%edx
    8020:	89 10                	mov    %edx,(%rax)
    8022:	0f bf 85 f8 ed ff ff 	movswl -0x1208(%rbp),%eax
    8029:	be 06 00 00 00       	mov    $0x6,%esi
    802e:	89 c7                	mov    %eax,%edi
    8030:	e8 7e e3 ff ff       	callq  63b3 <safe_add_func_int16_t_s_s>
    8035:	66 89 85 f8 ed ff ff 	mov    %ax,-0x1208(%rbp)
    803c:	66 83 bd f8 ed ff ff 	cmpw   $0xd,-0x1208(%rbp)
    8043:	0d 
    8044:	0f 8f 1f fd ff ff    	jg     7d69 <func_1+0x5b4>
    804a:	c7 85 18 ee ff ff 05 	movl   $0x5,-0x11e8(%rbp)
    8051:	00 00 00 
    8054:	e9 11 1c 00 00       	jmpq   9c6a <func_1+0x24b5>
    8059:	66 c7 85 00 ee ff ff 	movw   $0x2e13,-0x1200(%rbp)
    8060:	13 2e 
    8062:	48 8d 85 30 f8 ff ff 	lea    -0x7d0(%rbp),%rax
    8069:	48 8d 15 70 f2 00 00 	lea    0xf270(%rip),%rdx        # 172e0 <g_1915+0x990>
    8070:	b9 24 00 00 00       	mov    $0x24,%ecx
    8075:	48 89 c7             	mov    %rax,%rdi
    8078:	48 89 d6             	mov    %rdx,%rsi
    807b:	f3 48 a5             	rep movsq %ds:(%rsi),%es:(%rdi)
    807e:	48 b8 1d 17 a9 0c 27 	movabs $0x68a081270ca9171d,%rax
    8085:	81 a0 68 
    8088:	48 89 85 50 f0 ff ff 	mov    %rax,-0xfb0(%rbp)
    808f:	c6 85 58 f0 ff ff 00 	movb   $0x0,-0xfa8(%rbp)
    8096:	c6 85 59 f0 ff ff 6b 	movb   $0x6b,-0xfa7(%rbp)
    809d:	c7 85 5a f0 ff ff 87 	movl   $0xe9e59387,-0xfa6(%rbp)
    80a4:	93 e5 e9 
    80a7:	48 c7 85 5e f0 ff ff 	movq   $0x4,-0xfa2(%rbp)
    80ae:	04 00 00 00 
    80b2:	c7 85 24 ee ff ff 3c 	movl   $0x199e593c,-0x11dc(%rbp)
    80b9:	59 9e 19 
    80bc:	48 8d 05 8d 09 01 00 	lea    0x1098d(%rip),%rax        # 18a50 <g_488>
    80c3:	48 89 85 50 ef ff ff 	mov    %rax,-0x10b0(%rbp)
    80ca:	48 8d 05 b7 0b 01 00 	lea    0x10bb7(%rip),%rax        # 18c88 <g_1790>
    80d1:	48 89 85 58 ef ff ff 	mov    %rax,-0x10a8(%rbp)
    80d8:	66 c7 85 02 ee ff ff 	movw   $0x9754,-0x11fe(%rbp)
    80df:	54 97 
    80e1:	c7 85 6c ee ff ff 00 	movl   $0x0,-0x1194(%rbp)
    80e8:	00 00 00 
    80eb:	c7 85 28 ee ff ff 00 	movl   $0x0,-0x11d8(%rbp)
    80f2:	00 00 00 
    80f5:	eb 14                	jmp    810b <func_1+0x956>
    80f7:	8b 85 28 ee ff ff    	mov    -0x11d8(%rbp),%eax
    80fd:	48 98                	cltq   
    80ff:	c6 44 05 be 00       	movb   $0x0,-0x42(%rbp,%rax,1)
    8104:	83 85 28 ee ff ff 01 	addl   $0x1,-0x11d8(%rbp)
    810b:	83 bd 28 ee ff ff 04 	cmpl   $0x4,-0x11d8(%rbp)
    8112:	7e e3                	jle    80f7 <func_1+0x942>
    8114:	c7 05 a6 d0 00 00 06 	movl   $0x6,0xd0a6(%rip)        # 151c4 <g_208>
    811b:	00 00 00 
    811e:	e9 a2 1a 00 00       	jmpq   9bc5 <func_1+0x2410>
    8123:	48 8d 85 40 f1 ff ff 	lea    -0xec0(%rbp),%rax
    812a:	48 83 c0 28          	add    $0x28,%rax
    812e:	48 89 85 c0 ee ff ff 	mov    %rax,-0x1140(%rbp)
    8135:	c7 85 d0 f2 ff ff 9b 	movl   $0x20bdb29b,-0xd30(%rbp)
    813c:	b2 bd 20 
    813f:	c7 85 d4 f2 ff ff 04 	movl   $0x4,-0xd2c(%rbp)
    8146:	00 00 00 
    8149:	c7 85 d8 f2 ff ff 00 	movl   $0x0,-0xd28(%rbp)
    8150:	00 00 00 
    8153:	c7 85 dc f2 ff ff 00 	movl   $0x0,-0xd24(%rbp)
    815a:	00 00 00 
    815d:	c7 85 e0 f2 ff ff 04 	movl   $0x4,-0xd20(%rbp)
    8164:	00 00 00 
    8167:	c7 85 e4 f2 ff ff 9b 	movl   $0x20bdb29b,-0xd1c(%rbp)
    816e:	b2 bd 20 
    8171:	c7 85 e8 f2 ff ff 04 	movl   $0x4,-0xd18(%rbp)
    8178:	00 00 00 
    817b:	c7 85 ec f2 ff ff 00 	movl   $0x0,-0xd14(%rbp)
    8182:	00 00 00 
    8185:	c7 85 f0 f2 ff ff 88 	movl   $0xcf804c88,-0xd10(%rbp)
    818c:	4c 80 cf 
    818f:	c7 85 f4 f2 ff ff 04 	movl   $0x4,-0xd0c(%rbp)
    8196:	00 00 00 
    8199:	c7 85 f8 f2 ff ff 88 	movl   $0xcf804c88,-0xd08(%rbp)
    81a0:	4c 80 cf 
    81a3:	c7 85 fc f2 ff ff 9b 	movl   $0x20bdb29b,-0xd04(%rbp)
    81aa:	b2 bd 20 
    81ad:	c7 85 00 f3 ff ff 9b 	movl   $0x20bdb29b,-0xd00(%rbp)
    81b4:	b2 bd 20 
    81b7:	c7 85 04 f3 ff ff 88 	movl   $0xcf804c88,-0xcfc(%rbp)
    81be:	4c 80 cf 
    81c1:	c7 85 08 f3 ff ff 04 	movl   $0x4,-0xcf8(%rbp)
    81c8:	00 00 00 
    81cb:	c7 85 0c f3 ff ff 88 	movl   $0xcf804c88,-0xcf4(%rbp)
    81d2:	4c 80 cf 
    81d5:	c7 85 10 f3 ff ff fb 	movl   $0xfffffffb,-0xcf0(%rbp)
    81dc:	ff ff ff 
    81df:	c7 85 14 f3 ff ff 9b 	movl   $0x20bdb29b,-0xcec(%rbp)
    81e6:	b2 bd 20 
    81e9:	c7 85 18 f3 ff ff 00 	movl   $0x0,-0xce8(%rbp)
    81f0:	00 00 00 
    81f3:	c7 85 1c f3 ff ff 9b 	movl   $0x20bdb29b,-0xce4(%rbp)
    81fa:	b2 bd 20 
    81fd:	c7 85 20 f3 ff ff fb 	movl   $0xfffffffb,-0xce0(%rbp)
    8204:	ff ff ff 
    8207:	c7 85 24 f3 ff ff fb 	movl   $0xfffffffb,-0xcdc(%rbp)
    820e:	ff ff ff 
    8211:	c7 85 28 f3 ff ff 9b 	movl   $0x20bdb29b,-0xcd8(%rbp)
    8218:	b2 bd 20 
    821b:	c7 85 2c f3 ff ff 00 	movl   $0x0,-0xcd4(%rbp)
    8222:	00 00 00 
    8225:	c7 85 30 f3 ff ff fb 	movl   $0xfffffffb,-0xcd0(%rbp)
    822c:	ff ff ff 
    822f:	c7 85 34 f3 ff ff fb 	movl   $0xfffffffb,-0xccc(%rbp)
    8236:	ff ff ff 
    8239:	c7 85 38 f3 ff ff 9b 	movl   $0x20bdb29b,-0xcc8(%rbp)
    8240:	b2 bd 20 
    8243:	c7 85 3c f3 ff ff 00 	movl   $0x0,-0xcc4(%rbp)
    824a:	00 00 00 
    824d:	c7 85 40 f3 ff ff 9b 	movl   $0x20bdb29b,-0xcc0(%rbp)
    8254:	b2 bd 20 
    8257:	c7 85 44 f3 ff ff fb 	movl   $0xfffffffb,-0xcbc(%rbp)
    825e:	ff ff ff 
    8261:	c7 85 48 f3 ff ff fb 	movl   $0xfffffffb,-0xcb8(%rbp)
    8268:	ff ff ff 
    826b:	c7 85 4c f3 ff ff 9b 	movl   $0x20bdb29b,-0xcb4(%rbp)
    8272:	b2 bd 20 
    8275:	c7 85 50 f3 ff ff 88 	movl   $0xcf804c88,-0xcb0(%rbp)
    827c:	4c 80 cf 
    827f:	c7 85 54 f3 ff ff 9b 	movl   $0x20bdb29b,-0xcac(%rbp)
    8286:	b2 bd 20 
    8289:	c7 85 58 f3 ff ff 9b 	movl   $0x20bdb29b,-0xca8(%rbp)
    8290:	b2 bd 20 
    8293:	c7 85 5c f3 ff ff 88 	movl   $0xcf804c88,-0xca4(%rbp)
    829a:	4c 80 cf 
    829d:	c7 85 60 f3 ff ff 04 	movl   $0x4,-0xca0(%rbp)
    82a4:	00 00 00 
    82a7:	c7 85 64 f3 ff ff 88 	movl   $0xcf804c88,-0xc9c(%rbp)
    82ae:	4c 80 cf 
    82b1:	c7 85 68 f3 ff ff 9b 	movl   $0x20bdb29b,-0xc98(%rbp)
    82b8:	b2 bd 20 
    82bb:	c7 85 6c f3 ff ff 9b 	movl   $0x20bdb29b,-0xc94(%rbp)
    82c2:	b2 bd 20 
    82c5:	c7 85 70 f3 ff ff 9b 	movl   $0x20bdb29b,-0xc90(%rbp)
    82cc:	b2 bd 20 
    82cf:	c7 85 74 f3 ff ff 04 	movl   $0x4,-0xc8c(%rbp)
    82d6:	00 00 00 
    82d9:	c7 85 78 f3 ff ff 00 	movl   $0x0,-0xc88(%rbp)
    82e0:	00 00 00 
    82e3:	c7 85 7c f3 ff ff 00 	movl   $0x0,-0xc84(%rbp)
    82ea:	00 00 00 
    82ed:	c7 85 80 f3 ff ff 04 	movl   $0x4,-0xc80(%rbp)
    82f4:	00 00 00 
    82f7:	c7 85 84 f3 ff ff 9b 	movl   $0x20bdb29b,-0xc7c(%rbp)
    82fe:	b2 bd 20 
    8301:	c7 85 88 f3 ff ff 04 	movl   $0x4,-0xc78(%rbp)
    8308:	00 00 00 
    830b:	c7 85 8c f3 ff ff 00 	movl   $0x0,-0xc74(%rbp)
    8312:	00 00 00 
    8315:	66 c7 85 f6 ed ff ff 	movw   $0x206e,-0x120a(%rbp)
    831c:	6e 20 
    831e:	48 b8 78 18 98 cb 86 	movabs $0xef7ef686cb981878,%rax
    8325:	f6 7e ef 
    8328:	48 89 85 60 ef ff ff 	mov    %rax,-0x10a0(%rbp)
    832f:	c7 85 2c ee ff ff 9e 	movl   $0x8fc3ec9e,-0x11d4(%rbp)
    8336:	ec c3 8f 
    8339:	48 8d 05 48 09 01 00 	lea    0x10948(%rip),%rax        # 18c88 <g_1790>
    8340:	48 89 85 68 ef ff ff 	mov    %rax,-0x1098(%rbp)
    8347:	48 8d 05 12 09 01 00 	lea    0x10912(%rip),%rax        # 18c60 <g_1593>
    834e:	48 89 85 70 ef ff ff 	mov    %rax,-0x1090(%rbp)
    8355:	48 c7 85 78 ef ff ff 	movq   $0xfffffffffffffff7,-0x1088(%rbp)
    835c:	f7 ff ff ff 
    8360:	c7 45 c3 f5 f5 f5 f5 	movl   $0xf5f5f5f5,-0x3d(%rbp)
    8367:	c6 45 c7 f5          	movb   $0xf5,-0x39(%rbp)
    836b:	c7 85 74 ee ff ff fc 	movl   $0xfffffffc,-0x118c(%rbp)
    8372:	ff ff ff 
    8375:	66 c7 85 04 ee ff ff 	movw   $0xfff7,-0x11fc(%rbp)
    837c:	f7 ff 
    837e:	66 c7 85 fc ed ff ff 	movw   $0xffff,-0x1204(%rbp)
    8385:	ff ff 
    8387:	c7 85 30 ee ff ff 00 	movl   $0x0,-0x11d0(%rbp)
    838e:	00 00 00 
    8391:	eb 1b                	jmp    83ae <func_1+0xbf9>
    8393:	8b 85 30 ee ff ff    	mov    -0x11d0(%rbp),%eax
    8399:	48 98                	cltq   
    839b:	48 c7 84 c5 40 f1 ff 	movq   $0x0,-0xec0(%rbp,%rax,8)
    83a2:	ff 00 00 00 00 
    83a7:	83 85 30 ee ff ff 01 	addl   $0x1,-0x11d0(%rbp)
    83ae:	83 bd 30 ee ff ff 06 	cmpl   $0x6,-0x11d0(%rbp)
    83b5:	7e dc                	jle    8393 <func_1+0xbde>
    83b7:	c7 85 30 ee ff ff 00 	movl   $0x0,-0x11d0(%rbp)
    83be:	00 00 00 
    83c1:	eb 1a                	jmp    83dd <func_1+0xc28>
    83c3:	8b 85 30 ee ff ff    	mov    -0x11d0(%rbp),%eax
    83c9:	48 98                	cltq   
    83cb:	c7 84 85 c0 f0 ff ff 	movl   $0xe3c71ff6,-0xf40(%rbp,%rax,4)
    83d2:	f6 1f c7 e3 
    83d6:	83 85 30 ee ff ff 01 	addl   $0x1,-0x11d0(%rbp)
    83dd:	83 bd 30 ee ff ff 05 	cmpl   $0x5,-0x11d0(%rbp)
    83e4:	7e dd                	jle    83c3 <func_1+0xc0e>
    83e6:	c7 85 14 ee ff ff 00 	movl   $0x0,-0x11ec(%rbp)
    83ed:	00 00 00 
    83f0:	e9 a9 0b 00 00       	jmpq   8f9e <func_1+0x17e9>
    83f5:	48 8d 85 c0 ee ff ff 	lea    -0x1140(%rbp),%rax
    83fc:	48 89 85 c8 ef ff ff 	mov    %rax,-0x1038(%rbp)
    8403:	c7 85 90 f3 ff ff fb 	movl   $0xe279bbfb,-0xc70(%rbp)
    840a:	bb 79 e2 
    840d:	c7 85 94 f3 ff ff b2 	movl   $0x495c7db2,-0xc6c(%rbp)
    8414:	7d 5c 49 
    8417:	c7 85 98 f3 ff ff 65 	movl   $0xf5a49765,-0xc68(%rbp)
    841e:	97 a4 f5 
    8421:	c7 85 9c f3 ff ff b2 	movl   $0x495c7db2,-0xc64(%rbp)
    8428:	7d 5c 49 
    842b:	c7 85 a0 f3 ff ff fb 	movl   $0xe279bbfb,-0xc60(%rbp)
    8432:	bb 79 e2 
    8435:	c7 85 a4 f3 ff ff 40 	movl   $0x45266b40,-0xc5c(%rbp)
    843c:	6b 26 45 
    843f:	c7 85 a8 f3 ff ff 09 	movl   $0x9,-0xc58(%rbp)
    8446:	00 00 00 
    8449:	c7 85 ac f3 ff ff b2 	movl   $0x495c7db2,-0xc54(%rbp)
    8450:	7d 5c 49 
    8453:	c7 85 b0 f3 ff ff 06 	movl   $0x6,-0xc50(%rbp)
    845a:	00 00 00 
    845d:	c7 85 b4 f3 ff ff b2 	movl   $0x495c7db2,-0xc4c(%rbp)
    8464:	7d 5c 49 
    8467:	c7 85 b8 f3 ff ff 09 	movl   $0x9,-0xc48(%rbp)
    846e:	00 00 00 
    8471:	c7 85 bc f3 ff ff 40 	movl   $0x45266b40,-0xc44(%rbp)
    8478:	6b 26 45 
    847b:	c7 85 c0 f3 ff ff fb 	movl   $0xe279bbfb,-0xc40(%rbp)
    8482:	bb 79 e2 
    8485:	c7 85 c4 f3 ff ff b2 	movl   $0x495c7db2,-0xc3c(%rbp)
    848c:	7d 5c 49 
    848f:	c7 85 c8 f3 ff ff 65 	movl   $0xf5a49765,-0xc38(%rbp)
    8496:	97 a4 f5 
    8499:	c7 85 cc f3 ff ff b2 	movl   $0x495c7db2,-0xc34(%rbp)
    84a0:	7d 5c 49 
    84a3:	c7 85 d0 f3 ff ff fb 	movl   $0xe279bbfb,-0xc30(%rbp)
    84aa:	bb 79 e2 
    84ad:	c7 85 d4 f3 ff ff 40 	movl   $0x45266b40,-0xc2c(%rbp)
    84b4:	6b 26 45 
    84b7:	c7 85 d8 f3 ff ff 09 	movl   $0x9,-0xc28(%rbp)
    84be:	00 00 00 
    84c1:	c7 85 dc f3 ff ff b2 	movl   $0x495c7db2,-0xc24(%rbp)
    84c8:	7d 5c 49 
    84cb:	c7 85 e0 f3 ff ff 06 	movl   $0x6,-0xc20(%rbp)
    84d2:	00 00 00 
    84d5:	c7 85 e4 f3 ff ff b2 	movl   $0x495c7db2,-0xc1c(%rbp)
    84dc:	7d 5c 49 
    84df:	c7 85 e8 f3 ff ff 09 	movl   $0x9,-0xc18(%rbp)
    84e6:	00 00 00 
    84e9:	c7 85 ec f3 ff ff 40 	movl   $0x45266b40,-0xc14(%rbp)
    84f0:	6b 26 45 
    84f3:	c7 85 f0 f3 ff ff fb 	movl   $0xe279bbfb,-0xc10(%rbp)
    84fa:	bb 79 e2 
    84fd:	c7 85 f4 f3 ff ff b2 	movl   $0x495c7db2,-0xc0c(%rbp)
    8504:	7d 5c 49 
    8507:	c7 85 f8 f3 ff ff 65 	movl   $0xf5a49765,-0xc08(%rbp)
    850e:	97 a4 f5 
    8511:	c7 85 fc f3 ff ff b2 	movl   $0x495c7db2,-0xc04(%rbp)
    8518:	7d 5c 49 
    851b:	c7 85 00 f4 ff ff fb 	movl   $0xe279bbfb,-0xc00(%rbp)
    8522:	bb 79 e2 
    8525:	c7 85 04 f4 ff ff 40 	movl   $0x45266b40,-0xbfc(%rbp)
    852c:	6b 26 45 
    852f:	c7 85 08 f4 ff ff 09 	movl   $0x9,-0xbf8(%rbp)
    8536:	00 00 00 
    8539:	c7 85 0c f4 ff ff b2 	movl   $0x495c7db2,-0xbf4(%rbp)
    8540:	7d 5c 49 
    8543:	c7 85 10 f4 ff ff 06 	movl   $0x6,-0xbf0(%rbp)
    854a:	00 00 00 
    854d:	c7 85 14 f4 ff ff b2 	movl   $0x495c7db2,-0xbec(%rbp)
    8554:	7d 5c 49 
    8557:	c7 85 18 f4 ff ff 09 	movl   $0x9,-0xbe8(%rbp)
    855e:	00 00 00 
    8561:	c7 85 1c f4 ff ff 40 	movl   $0x45266b40,-0xbe4(%rbp)
    8568:	6b 26 45 
    856b:	c7 85 20 f4 ff ff fb 	movl   $0xe279bbfb,-0xbe0(%rbp)
    8572:	bb 79 e2 
    8575:	c7 85 24 f4 ff ff b2 	movl   $0x495c7db2,-0xbdc(%rbp)
    857c:	7d 5c 49 
    857f:	c7 85 28 f4 ff ff 65 	movl   $0xf5a49765,-0xbd8(%rbp)
    8586:	97 a4 f5 
    8589:	c7 85 2c f4 ff ff b2 	movl   $0x495c7db2,-0xbd4(%rbp)
    8590:	7d 5c 49 
    8593:	c7 85 30 f4 ff ff fb 	movl   $0xe279bbfb,-0xbd0(%rbp)
    859a:	bb 79 e2 
    859d:	c7 85 34 f4 ff ff 40 	movl   $0x45266b40,-0xbcc(%rbp)
    85a4:	6b 26 45 
    85a7:	c7 85 38 f4 ff ff 09 	movl   $0x9,-0xbc8(%rbp)
    85ae:	00 00 00 
    85b1:	c7 85 3c f4 ff ff b2 	movl   $0x495c7db2,-0xbc4(%rbp)
    85b8:	7d 5c 49 
    85bb:	c7 85 40 f4 ff ff 06 	movl   $0x6,-0xbc0(%rbp)
    85c2:	00 00 00 
    85c5:	c7 85 44 f4 ff ff b2 	movl   $0x495c7db2,-0xbbc(%rbp)
    85cc:	7d 5c 49 
    85cf:	c7 85 48 f4 ff ff 09 	movl   $0x9,-0xbb8(%rbp)
    85d6:	00 00 00 
    85d9:	c7 85 4c f4 ff ff 40 	movl   $0x45266b40,-0xbb4(%rbp)
    85e0:	6b 26 45 
    85e3:	66 c7 85 06 ee ff ff 	movw   $0xe542,-0x11fa(%rbp)
    85ea:	42 e5 
    85ec:	c6 85 ef ed ff ff 3e 	movb   $0x3e,-0x1211(%rbp)
    85f3:	8b 85 0c f3 ff ff    	mov    -0xcf4(%rbp),%eax
    85f9:	41 89 c4             	mov    %eax,%r12d
    85fc:	48 8b 85 e8 ee ff ff 	mov    -0x1118(%rbp),%rax
    8603:	48 8b 00             	mov    (%rax),%rax
    8606:	8b 00                	mov    (%rax),%eax
    8608:	39 85 60 ee ff ff    	cmp    %eax,-0x11a0(%rbp)
    860e:	0f 9e c0             	setle  %al
    8611:	0f b6 c0             	movzbl %al,%eax
    8614:	be 9d 00 00 00       	mov    $0x9d,%esi
    8619:	89 c7                	mov    %eax,%edi
    861b:	e8 bb e5 ff ff       	callq  6bdb <safe_div_func_uint8_t_u_u>
    8620:	48 8b 1d 99 02 01 00 	mov    0x10299(%rip),%rbx        # 188c0 <g_171>
    8627:	be 06 00 00 00       	mov    $0x6,%esi
    862c:	bf 39 a7 ff ff       	mov    $0xffffa739,%edi
    8631:	e8 f4 de ff ff       	callq  652a <safe_rshift_func_int16_t_s_s>
    8636:	66 89 03             	mov    %ax,(%rbx)
    8639:	0f b7 03             	movzwl (%rbx),%eax
    863c:	0f bf f0             	movswl %ax,%esi
    863f:	8b 85 14 ee ff ff    	mov    -0x11ec(%rbp),%eax
    8645:	83 c0 01             	add    $0x1,%eax
    8648:	48 63 f8             	movslq %eax,%rdi
    864b:	8b 85 18 ee ff ff    	mov    -0x11e8(%rbp),%eax
    8651:	48 98                	cltq   
    8653:	8b 95 14 ee ff ff    	mov    -0x11ec(%rbp),%edx
    8659:	48 63 ca             	movslq %edx,%rcx
    865c:	48 89 c2             	mov    %rax,%rdx
    865f:	48 c1 e2 03          	shl    $0x3,%rdx
    8663:	48 01 c2             	add    %rax,%rdx
    8666:	48 8d 04 95 00 00 00 	lea    0x0(,%rdx,4),%rax
    866d:	00 
    866e:	48 89 c2             	mov    %rax,%rdx
    8671:	48 89 c8             	mov    %rcx,%rax
    8674:	48 01 c0             	add    %rax,%rax
    8677:	48 01 c8             	add    %rcx,%rax
    867a:	48 01 c0             	add    %rax,%rax
    867d:	48 01 d0             	add    %rdx,%rax
    8680:	48 8d 14 38          	lea    (%rax,%rdi,1),%rdx
    8684:	48 8d 05 35 d8 00 00 	lea    0xd835(%rip),%rax        # 15ec0 <g_1177>
    868b:	48 01 d0             	add    %rdx,%rax
    868e:	0f b6 00             	movzbl (%rax),%eax
    8691:	0f b6 c0             	movzbl %al,%eax
    8694:	39 c6                	cmp    %eax,%esi
    8696:	0f 9d c0             	setge  %al
    8699:	0f b6 d0             	movzbl %al,%edx
    869c:	48 8b 05 2d d0 00 00 	mov    0xd02d(%rip),%rax        # 156d0 <g_437>
    86a3:	48 39 c2             	cmp    %rax,%rdx
    86a6:	0f 94 c0             	sete   %al
    86a9:	0f b6 c0             	movzbl %al,%eax
    86ac:	44 89 e6             	mov    %r12d,%esi
    86af:	89 c7                	mov    %eax,%edi
    86b1:	e8 08 e6 ff ff       	callq  6cbe <safe_rshift_func_uint8_t_u_u>
    86b6:	0f b6 c0             	movzbl %al,%eax
    86b9:	48 39 85 28 ef ff ff 	cmp    %rax,-0x10d8(%rbp)
    86c0:	0f 9e c0             	setle  %al
    86c3:	0f b6 f0             	movzbl %al,%esi
    86c6:	8b 85 14 ee ff ff    	mov    -0x11ec(%rbp),%eax
    86cc:	83 c0 01             	add    $0x1,%eax
    86cf:	48 63 f8             	movslq %eax,%rdi
    86d2:	8b 85 18 ee ff ff    	mov    -0x11e8(%rbp),%eax
    86d8:	48 98                	cltq   
    86da:	8b 95 14 ee ff ff    	mov    -0x11ec(%rbp),%edx
    86e0:	48 63 ca             	movslq %edx,%rcx
    86e3:	48 89 c2             	mov    %rax,%rdx
    86e6:	48 c1 e2 03          	shl    $0x3,%rdx
    86ea:	48 01 c2             	add    %rax,%rdx
    86ed:	48 8d 04 95 00 00 00 	lea    0x0(,%rdx,4),%rax
    86f4:	00 
    86f5:	48 89 c2             	mov    %rax,%rdx
    86f8:	48 89 c8             	mov    %rcx,%rax
    86fb:	48 01 c0             	add    %rax,%rax
    86fe:	48 01 c8             	add    %rcx,%rax
    8701:	48 01 c0             	add    %rax,%rax
    8704:	48 01 d0             	add    %rdx,%rax
    8707:	48 8d 14 38          	lea    (%rax,%rdi,1),%rdx
    870b:	48 8d 05 ae d7 00 00 	lea    0xd7ae(%rip),%rax        # 15ec0 <g_1177>
    8712:	48 01 d0             	add    %rdx,%rax
    8715:	0f b6 00             	movzbl (%rax),%eax
    8718:	0f b6 c0             	movzbl %al,%eax
    871b:	39 c6                	cmp    %eax,%esi
    871d:	0f 95 c0             	setne  %al
    8720:	0f b6 c0             	movzbl %al,%eax
    8723:	be 04 00 00 00       	mov    $0x4,%esi
    8728:	89 c7                	mov    %eax,%edi
    872a:	e8 bf db ff ff       	callq  62ee <safe_lshift_func_int8_t_s_u>
    872f:	0f b7 85 00 ee ff ff 	movzwl -0x1200(%rbp),%eax
    8736:	89 c2                	mov    %eax,%edx
    8738:	48 8b 85 e8 ee ff ff 	mov    -0x1118(%rbp),%rax
    873f:	48 8b 00             	mov    (%rax),%rax
    8742:	8b 00                	mov    (%rax),%eax
    8744:	21 d0                	and    %edx,%eax
    8746:	0f be f0             	movsbl %al,%esi
    8749:	8b 85 14 ee ff ff    	mov    -0x11ec(%rbp),%eax
    874f:	83 c0 01             	add    $0x1,%eax
    8752:	48 63 f8             	movslq %eax,%rdi
    8755:	8b 85 18 ee ff ff    	mov    -0x11e8(%rbp),%eax
    875b:	48 98                	cltq   
    875d:	8b 95 14 ee ff ff    	mov    -0x11ec(%rbp),%edx
    8763:	48 63 ca             	movslq %edx,%rcx
    8766:	48 89 c2             	mov    %rax,%rdx
    8769:	48 c1 e2 03          	shl    $0x3,%rdx
    876d:	48 01 c2             	add    %rax,%rdx
    8770:	48 8d 04 95 00 00 00 	lea    0x0(,%rdx,4),%rax
    8777:	00 
    8778:	48 89 c2             	mov    %rax,%rdx
    877b:	48 89 c8             	mov    %rcx,%rax
    877e:	48 01 c0             	add    %rax,%rax
    8781:	48 01 c8             	add    %rcx,%rax
    8784:	48 01 c0             	add    %rax,%rax
    8787:	48 01 d0             	add    %rdx,%rax
    878a:	48 8d 14 38          	lea    (%rax,%rdi,1),%rdx
    878e:	48 8d 05 2b d7 00 00 	lea    0xd72b(%rip),%rax        # 15ec0 <g_1177>
    8795:	48 01 d0             	add    %rdx,%rax
    8798:	0f b6 00             	movzbl (%rax),%eax
    879b:	0f be c0             	movsbl %al,%eax
    879e:	89 c7                	mov    %eax,%edi
    87a0:	e8 8c da ff ff       	callq  6231 <safe_mod_func_int8_t_s_s>
    87a5:	89 c2                	mov    %eax,%edx
    87a7:	48 8b 85 00 ef ff ff 	mov    -0x1100(%rbp),%rax
    87ae:	48 8b 00             	mov    (%rax),%rax
    87b1:	48 8b 00             	mov    (%rax),%rax
    87b4:	0f b6 08             	movzbl (%rax),%ecx
    87b7:	48 8b 85 f8 f8 ff ff 	mov    -0x708(%rbp),%rax
    87be:	48 39 85 e8 ee ff ff 	cmp    %rax,-0x1118(%rbp)
    87c5:	0f 95 c0             	setne  %al
    87c8:	89 c6                	mov    %eax,%esi
    87ca:	48 8b 85 00 ef ff ff 	mov    -0x1100(%rbp),%rax
    87d1:	48 8b 00             	mov    (%rax),%rax
    87d4:	48 8b 00             	mov    (%rax),%rax
    87d7:	31 f1                	xor    %esi,%ecx
    87d9:	88 08                	mov    %cl,(%rax)
    87db:	0f b6 00             	movzbl (%rax),%eax
    87de:	38 c2                	cmp    %al,%dl
    87e0:	75 0c                	jne    87ee <func_1+0x1039>
    87e2:	48 ba c2 e2 94 fe af 	movabs $0x5c0ff7affe94e2c2,%rdx
    87e9:	f7 0f 5c 
    87ec:	eb 0a                	jmp    87f8 <func_1+0x1043>
    87ee:	48 ba c3 e2 94 fe af 	movabs $0x5c0ff7affe94e2c3,%rdx
    87f5:	f7 0f 5c 
    87f8:	48 8b 0d 09 04 01 00 	mov    0x10409(%rip),%rcx        # 18c08 <g_1259>
    87ff:	48 8b 05 02 04 01 00 	mov    0x10402(%rip),%rax        # 18c08 <g_1259>
    8806:	48 8b 09             	mov    (%rcx),%rcx
    8809:	48 89 08             	mov    %rcx,(%rax)
    880c:	48 8b 30             	mov    (%rax),%rsi
    880f:	48 8b 8d c0 ee ff ff 	mov    -0x1140(%rbp),%rcx
    8816:	48 8b 85 c8 ef ff ff 	mov    -0x1038(%rbp),%rax
    881d:	48 89 08             	mov    %rcx,(%rax)
    8820:	48 8b 85 c8 ef ff ff 	mov    -0x1038(%rbp),%rax
    8827:	48 8b 00             	mov    (%rax),%rax
    882a:	48 39 c6             	cmp    %rax,%rsi
    882d:	0f 95 c0             	setne  %al
    8830:	0f b6 c0             	movzbl %al,%eax
    8833:	48 98                	cltq   
    8835:	48 39 c2             	cmp    %rax,%rdx
    8838:	0f 9d c0             	setge  %al
    883b:	0f b6 d0             	movzbl %al,%edx
    883e:	8b 05 6c c8 00 00    	mov    0xc86c(%rip),%eax        # 150b0 <g_47>
    8844:	39 c2                	cmp    %eax,%edx
    8846:	0f 82 2f 06 00 00    	jb     8e7b <func_1+0x16c6>
    884c:	c7 85 8c ee ff ff d8 	movl   $0x911d17d8,-0x1174(%rbp)
    8853:	17 1d 91 
    8856:	c6 85 f1 ed ff ff 00 	movb   $0x0,-0x120f(%rbp)
    885d:	66 c7 85 08 ee ff ff 	movw   $0xfff8,-0x11f8(%rbp)
    8864:	f8 ff 
    8866:	48 8b 05 63 ce 00 00 	mov    0xce63(%rip),%rax        # 156d0 <g_437>
    886d:	48 85 c0             	test   %rax,%rax
    8870:	74 05                	je     8877 <func_1+0x10c2>
    8872:	e9 e4 f4 ff ff       	jmpq   7d5b <func_1+0x5a6>
    8877:	66 c7 05 f0 d5 00 00 	movw   $0x0,0xd5f0(%rip)        # 15e70 <g_984>
    887e:	00 00 
    8880:	eb 65                	jmp    88e7 <func_1+0x1132>
    8882:	48 c7 85 d8 ef ff ff 	movq   $0xffffffffffffffff,-0x1028(%rbp)
    8889:	ff ff ff ff 
    888d:	8b 85 d8 f2 ff ff    	mov    -0xd28(%rbp),%eax
    8893:	85 c0                	test   %eax,%eax
    8895:	75 5f                	jne    88f6 <func_1+0x1141>
    8897:	48 83 bd d8 ef ff ff 	cmpq   $0x0,-0x1028(%rbp)
    889e:	00 
    889f:	75 34                	jne    88d5 <func_1+0x1120>
    88a1:	48 8b 85 e8 ee ff ff 	mov    -0x1118(%rbp),%rax
    88a8:	48 8b 00             	mov    (%rax),%rax
    88ab:	8b 00                	mov    (%rax),%eax
    88ad:	89 c2                	mov    %eax,%edx
    88af:	48 8b 85 d8 ef ff ff 	mov    -0x1028(%rbp),%rax
    88b6:	09 c2                	or     %eax,%edx
    88b8:	48 8b 85 e8 ee ff ff 	mov    -0x1118(%rbp),%rax
    88bf:	48 8b 00             	mov    (%rax),%rax
    88c2:	89 10                	mov    %edx,(%rax)
    88c4:	48 8b 05 95 03 01 00 	mov    0x10395(%rip),%rax        # 18c60 <g_1593>
    88cb:	8b 95 8c ee ff ff    	mov    -0x1174(%rbp),%edx
    88d1:	89 10                	mov    %edx,(%rax)
    88d3:	eb 01                	jmp    88d6 <func_1+0x1121>
    88d5:	90                   	nop
    88d6:	0f b7 05 93 d5 00 00 	movzwl 0xd593(%rip),%eax        # 15e70 <g_984>
    88dd:	83 c0 01             	add    $0x1,%eax
    88e0:	66 89 05 89 d5 00 00 	mov    %ax,0xd589(%rip)        # 15e70 <g_984>
    88e7:	0f b7 05 82 d5 00 00 	movzwl 0xd582(%rip),%eax        # 15e70 <g_984>
    88ee:	66 83 f8 01          	cmp    $0x1,%ax
    88f2:	76 8e                	jbe    8882 <func_1+0x10cd>
    88f4:	eb 01                	jmp    88f7 <func_1+0x1142>
    88f6:	90                   	nop
    88f7:	8b 85 a0 f3 ff ff    	mov    -0xc60(%rbp),%eax
    88fd:	83 c0 01             	add    $0x1,%eax
    8900:	89 85 a0 f3 ff ff    	mov    %eax,-0xc60(%rbp)
    8906:	66 c7 85 fa ed ff ff 	movw   $0x5,-0x1206(%rbp)
    890d:	05 00 
    890f:	e9 54 05 00 00       	jmpq   8e68 <func_1+0x16b3>
    8914:	c7 85 80 f1 ff ff 01 	movl   $0x1,-0xe80(%rbp)
    891b:	00 00 00 
    891e:	c7 85 84 f1 ff ff 01 	movl   $0x1,-0xe7c(%rbp)
    8925:	00 00 00 
    8928:	c7 85 88 f1 ff ff ff 	movl   $0xffffffff,-0xe78(%rbp)
    892f:	ff ff ff 
    8932:	c7 85 8c f1 ff ff 01 	movl   $0x1,-0xe74(%rbp)
    8939:	00 00 00 
    893c:	c7 85 90 f1 ff ff 01 	movl   $0x1,-0xe70(%rbp)
    8943:	00 00 00 
    8946:	c7 85 94 f1 ff ff ff 	movl   $0xffffffff,-0xe6c(%rbp)
    894d:	ff ff ff 
    8950:	c7 85 98 f1 ff ff 01 	movl   $0x1,-0xe68(%rbp)
    8957:	00 00 00 
    895a:	c7 85 9c f1 ff ff 01 	movl   $0x1,-0xe64(%rbp)
    8961:	00 00 00 
    8964:	c7 85 a0 f1 ff ff 04 	movl   $0x9c330304,-0xe60(%rbp)
    896b:	03 33 9c 
    896e:	c7 85 a4 f1 ff ff 01 	movl   $0x1,-0xe5c(%rbp)
    8975:	00 00 00 
    8978:	c7 85 a8 f1 ff ff 04 	movl   $0x9c330304,-0xe58(%rbp)
    897f:	03 33 9c 
    8982:	c7 85 ac f1 ff ff 04 	movl   $0x9c330304,-0xe54(%rbp)
    8989:	03 33 9c 
    898c:	c7 85 b0 f1 ff ff 01 	movl   $0x1,-0xe50(%rbp)
    8993:	00 00 00 
    8996:	c7 85 b4 f1 ff ff 04 	movl   $0x9c330304,-0xe4c(%rbp)
    899d:	03 33 9c 
    89a0:	c7 85 b8 f1 ff ff 04 	movl   $0x9c330304,-0xe48(%rbp)
    89a7:	03 33 9c 
    89aa:	c7 85 bc f1 ff ff 01 	movl   $0x1,-0xe44(%rbp)
    89b1:	00 00 00 
    89b4:	c7 85 c0 f1 ff ff 01 	movl   $0x1,-0xe40(%rbp)
    89bb:	00 00 00 
    89be:	c7 85 c4 f1 ff ff 04 	movl   $0x9c330304,-0xe3c(%rbp)
    89c5:	03 33 9c 
    89c8:	c7 85 c8 f1 ff ff 04 	movl   $0x9c330304,-0xe38(%rbp)
    89cf:	03 33 9c 
    89d2:	c7 85 cc f1 ff ff 01 	movl   $0x1,-0xe34(%rbp)
    89d9:	00 00 00 
    89dc:	c7 85 d0 f1 ff ff 04 	movl   $0x9c330304,-0xe30(%rbp)
    89e3:	03 33 9c 
    89e6:	c7 85 d4 f1 ff ff 04 	movl   $0x9c330304,-0xe2c(%rbp)
    89ed:	03 33 9c 
    89f0:	c7 85 d8 f1 ff ff 01 	movl   $0x1,-0xe28(%rbp)
    89f7:	00 00 00 
    89fa:	c7 85 dc f1 ff ff 04 	movl   $0x9c330304,-0xe24(%rbp)
    8a01:	03 33 9c 
    8a04:	c7 85 e0 f1 ff ff 01 	movl   $0x1,-0xe20(%rbp)
    8a0b:	00 00 00 
    8a0e:	c7 85 e4 f1 ff ff 01 	movl   $0x1,-0xe1c(%rbp)
    8a15:	00 00 00 
    8a18:	c7 85 e8 f1 ff ff ff 	movl   $0xffffffff,-0xe18(%rbp)
    8a1f:	ff ff ff 
    8a22:	c7 85 ec f1 ff ff 01 	movl   $0x1,-0xe14(%rbp)
    8a29:	00 00 00 
    8a2c:	c7 85 f0 f1 ff ff 01 	movl   $0x1,-0xe10(%rbp)
    8a33:	00 00 00 
    8a36:	c7 85 f4 f1 ff ff ff 	movl   $0xffffffff,-0xe0c(%rbp)
    8a3d:	ff ff ff 
    8a40:	c7 85 f8 f1 ff ff 01 	movl   $0x1,-0xe08(%rbp)
    8a47:	00 00 00 
    8a4a:	c7 85 fc f1 ff ff 01 	movl   $0x1,-0xe04(%rbp)
    8a51:	00 00 00 
    8a54:	c7 85 00 f2 ff ff 04 	movl   $0x9c330304,-0xe00(%rbp)
    8a5b:	03 33 9c 
    8a5e:	c7 85 04 f2 ff ff 01 	movl   $0x1,-0xdfc(%rbp)
    8a65:	00 00 00 
    8a68:	c7 85 08 f2 ff ff 04 	movl   $0x9c330304,-0xdf8(%rbp)
    8a6f:	03 33 9c 
    8a72:	c7 85 0c f2 ff ff 04 	movl   $0x9c330304,-0xdf4(%rbp)
    8a79:	03 33 9c 
    8a7c:	c7 85 10 f2 ff ff 01 	movl   $0x1,-0xdf0(%rbp)
    8a83:	00 00 00 
    8a86:	c7 85 14 f2 ff ff 04 	movl   $0x9c330304,-0xdec(%rbp)
    8a8d:	03 33 9c 
    8a90:	c7 85 18 f2 ff ff 04 	movl   $0x9c330304,-0xde8(%rbp)
    8a97:	03 33 9c 
    8a9a:	c7 85 1c f2 ff ff 01 	movl   $0x1,-0xde4(%rbp)
    8aa1:	00 00 00 
    8aa4:	48 8d 85 f6 ed ff ff 	lea    -0x120a(%rbp),%rax
    8aab:	48 89 85 e0 ef ff ff 	mov    %rax,-0x1020(%rbp)
    8ab2:	48 8b 05 27 dc 00 00 	mov    0xdc27(%rip),%rax        # 166e0 <g_1725>
    8ab9:	48 8b 15 28 dc 00 00 	mov    0xdc28(%rip),%rdx        # 166e8 <g_1725+0x8>
    8ac0:	0f b7 9d 08 ee ff ff 	movzwl -0x11f8(%rbp),%ebx
    8ac7:	8b 85 a0 f3 ff ff    	mov    -0xc60(%rbp),%eax
    8acd:	44 0f be e0          	movsbl %al,%r12d
    8ad1:	48 8b 05 18 dc 00 00 	mov    0xdc18(%rip),%rax        # 166f0 <g_1732>
    8ad8:	48 8b 15 19 dc 00 00 	mov    0xdc19(%rip),%rdx        # 166f8 <g_1732+0x8>
    8adf:	8b 05 cf c5 00 00    	mov    0xc5cf(%rip),%eax        # 150b4 <g_81>
    8ae5:	44 0f b7 e8          	movzwl %ax,%r13d
    8ae9:	48 8b 85 e8 ee ff ff 	mov    -0x1118(%rbp),%rax
    8af0:	48 8b 00             	mov    (%rax),%rax
    8af3:	8b 00                	mov    (%rax),%eax
    8af5:	48 63 d0             	movslq %eax,%rdx
    8af8:	48 8b 05 69 01 01 00 	mov    0x10169(%rip),%rax        # 18c68 <g_1666>
    8aff:	48 8b 00             	mov    (%rax),%rax
    8b02:	48 8b 00             	mov    (%rax),%rax
    8b05:	48 8b 00             	mov    (%rax),%rax
    8b08:	48 39 c2             	cmp    %rax,%rdx
    8b0b:	0f 9f c0             	setg   %al
    8b0e:	0f b6 c0             	movzbl %al,%eax
    8b11:	89 c7                	mov    %eax,%edi
    8b13:	e8 2d e0 ff ff       	callq  6b45 <safe_unary_minus_func_uint8_t_u>
    8b18:	0f b6 c0             	movzbl %al,%eax
    8b1b:	8b 15 17 06 01 00    	mov    0x10617(%rip),%edx        # 19138 <g_384>
    8b21:	89 d2                	mov    %edx,%edx
    8b23:	48 89 c6             	mov    %rax,%rsi
    8b26:	48 89 d7             	mov    %rdx,%rdi
    8b29:	e8 1d e5 ff ff       	callq  704b <safe_sub_func_uint64_t_u_u>
    8b2e:	48 85 c0             	test   %rax,%rax
    8b31:	74 17                	je     8b4a <func_1+0x1395>
    8b33:	48 8b 85 e8 ee ff ff 	mov    -0x1118(%rbp),%rax
    8b3a:	48 8b 00             	mov    (%rax),%rax
    8b3d:	8b 00                	mov    (%rax),%eax
    8b3f:	85 c0                	test   %eax,%eax
    8b41:	74 07                	je     8b4a <func_1+0x1395>
    8b43:	b8 01 00 00 00       	mov    $0x1,%eax
    8b48:	eb 05                	jmp    8b4f <func_1+0x139a>
    8b4a:	b8 00 00 00 00       	mov    $0x0,%eax
    8b4f:	0f b7 c0             	movzwl %ax,%eax
    8b52:	44 89 ee             	mov    %r13d,%esi
    8b55:	89 c7                	mov    %eax,%edi
    8b57:	e8 32 e2 ff ff       	callq  6d8e <safe_div_func_uint16_t_u_u>
    8b5c:	66 85 c0             	test   %ax,%ax
    8b5f:	74 13                	je     8b74 <func_1+0x13bf>
    8b61:	0f b7 85 f6 ed ff ff 	movzwl -0x120a(%rbp),%eax
    8b68:	66 85 c0             	test   %ax,%ax
    8b6b:	74 07                	je     8b74 <func_1+0x13bf>
    8b6d:	b8 01 00 00 00       	mov    $0x1,%eax
    8b72:	eb 05                	jmp    8b79 <func_1+0x13c4>
    8b74:	b8 00 00 00 00       	mov    $0x0,%eax
    8b79:	3d 37 0d 00 00       	cmp    $0xd37,%eax
    8b7e:	7f 16                	jg     8b96 <func_1+0x13e1>
    8b80:	48 8b 05 79 00 01 00 	mov    0x10079(%rip),%rax        # 18c00 <g_1125>
    8b87:	48 8b 00             	mov    (%rax),%rax
    8b8a:	48 85 c0             	test   %rax,%rax
    8b8d:	74 07                	je     8b96 <func_1+0x13e1>
    8b8f:	b8 01 00 00 00       	mov    $0x1,%eax
    8b94:	eb 05                	jmp    8b9b <func_1+0x13e6>
    8b96:	b8 00 00 00 00       	mov    $0x0,%eax
    8b9b:	98                   	cwtl   
    8b9c:	be 07 00 00 00       	mov    $0x7,%esi
    8ba1:	89 c7                	mov    %eax,%edi
    8ba3:	e8 4d d8 ff ff       	callq  63f5 <safe_mul_func_int16_t_s_s>
    8ba8:	0f b7 c0             	movzwl %ax,%eax
    8bab:	be 0b 00 00 00       	mov    $0xb,%esi
    8bb0:	89 c7                	mov    %eax,%edi
    8bb2:	e8 91 e2 ff ff       	callq  6e48 <safe_rshift_func_uint16_t_u_s>
    8bb7:	8b 85 ac f1 ff ff    	mov    -0xe54(%rbp),%eax
    8bbd:	0f bf b5 fa ed ff ff 	movswl -0x1206(%rbp),%esi
    8bc4:	0f bf 8d fa ed ff ff 	movswl -0x1206(%rbp),%ecx
    8bcb:	83 e0 63             	and    $0x63,%eax
    8bce:	41 89 c0             	mov    %eax,%r8d
    8bd1:	8b 85 18 ee ff ff    	mov    -0x11e8(%rbp),%eax
    8bd7:	4c 63 c8             	movslq %eax,%r9
    8bda:	48 63 c6             	movslq %esi,%rax
    8bdd:	48 63 f9             	movslq %ecx,%rdi
    8be0:	48 89 c2             	mov    %rax,%rdx
    8be3:	48 c1 e2 03          	shl    $0x3,%rdx
    8be7:	48 01 c2             	add    %rax,%rdx
    8bea:	48 8d 04 95 00 00 00 	lea    0x0(,%rdx,4),%rax
    8bf1:	00 
    8bf2:	48 89 c2             	mov    %rax,%rdx
    8bf5:	48 89 f8             	mov    %rdi,%rax
    8bf8:	48 01 c0             	add    %rax,%rax
    8bfb:	48 01 f8             	add    %rdi,%rax
    8bfe:	48 01 c0             	add    %rax,%rax
    8c01:	48 01 d0             	add    %rdx,%rax
    8c04:	4a 8d 14 08          	lea    (%rax,%r9,1),%rdx
    8c08:	48 8d 05 b1 d2 00 00 	lea    0xd2b1(%rip),%rax        # 15ec0 <g_1177>
    8c0f:	48 01 d0             	add    %rdx,%rax
    8c12:	44 88 00             	mov    %r8b,(%rax)
    8c15:	8b 85 18 ee ff ff    	mov    -0x11e8(%rbp),%eax
    8c1b:	48 63 f8             	movslq %eax,%rdi
    8c1e:	48 63 c6             	movslq %esi,%rax
    8c21:	48 63 c9             	movslq %ecx,%rcx
    8c24:	48 89 c2             	mov    %rax,%rdx
    8c27:	48 c1 e2 03          	shl    $0x3,%rdx
    8c2b:	48 01 c2             	add    %rax,%rdx
    8c2e:	48 8d 04 95 00 00 00 	lea    0x0(,%rdx,4),%rax
    8c35:	00 
    8c36:	48 89 c2             	mov    %rax,%rdx
    8c39:	48 89 c8             	mov    %rcx,%rax
    8c3c:	48 01 c0             	add    %rax,%rax
    8c3f:	48 01 c8             	add    %rcx,%rax
    8c42:	48 01 c0             	add    %rax,%rax
    8c45:	48 01 d0             	add    %rdx,%rax
    8c48:	48 8d 14 38          	lea    (%rax,%rdi,1),%rdx
    8c4c:	48 8d 05 6d d2 00 00 	lea    0xd26d(%rip),%rax        # 15ec0 <g_1177>
    8c53:	48 01 d0             	add    %rdx,%rax
    8c56:	0f b6 00             	movzbl (%rax),%eax
    8c59:	84 c0                	test   %al,%al
    8c5b:	75 08                	jne    8c65 <func_1+0x14b0>
    8c5d:	8b 85 84 f1 ff ff    	mov    -0xe7c(%rbp),%eax
    8c63:	85 c0                	test   %eax,%eax
    8c65:	8b 05 51 ca 00 00    	mov    0xca51(%rip),%eax        # 156bc <g_285+0xc>
    8c6b:	89 c2                	mov    %eax,%edx
    8c6d:	48 8b 85 e0 ef ff ff 	mov    -0x1020(%rbp),%rax
    8c74:	66 89 10             	mov    %dx,(%rax)
    8c77:	0f bf 85 fa ed ff ff 	movswl -0x1206(%rbp),%eax
    8c7e:	0f bf 95 fa ed ff ff 	movswl -0x1206(%rbp),%edx
    8c85:	8b 8d 18 ee ff ff    	mov    -0x11e8(%rbp),%ecx
    8c8b:	48 63 f1             	movslq %ecx,%rsi
    8c8e:	48 98                	cltq   
    8c90:	48 63 ca             	movslq %edx,%rcx
    8c93:	48 89 c2             	mov    %rax,%rdx
    8c96:	48 c1 e2 03          	shl    $0x3,%rdx
    8c9a:	48 01 c2             	add    %rax,%rdx
    8c9d:	48 8d 04 95 00 00 00 	lea    0x0(,%rdx,4),%rax
    8ca4:	00 
    8ca5:	48 89 c2             	mov    %rax,%rdx
    8ca8:	48 89 c8             	mov    %rcx,%rax
    8cab:	48 01 c0             	add    %rax,%rax
    8cae:	48 01 c8             	add    %rcx,%rax
    8cb1:	48 01 c0             	add    %rax,%rax
    8cb4:	48 01 d0             	add    %rdx,%rax
    8cb7:	48 8d 14 30          	lea    (%rax,%rsi,1),%rdx
    8cbb:	48 8d 05 fe d1 00 00 	lea    0xd1fe(%rip),%rax        # 15ec0 <g_1177>
    8cc2:	48 01 d0             	add    %rdx,%rax
    8cc5:	0f b6 00             	movzbl (%rax),%eax
    8cc8:	0f b6 c0             	movzbl %al,%eax
    8ccb:	be 08 00 00 00       	mov    $0x8,%esi
    8cd0:	89 c7                	mov    %eax,%edi
    8cd2:	e8 e7 e0 ff ff       	callq  6dbe <safe_lshift_func_uint16_t_u_s>
    8cd7:	8b 05 b7 c3 00 00    	mov    0xc3b7(%rip),%eax        # 15094 <g_18+0x54>
    8cdd:	89 c2                	mov    %eax,%edx
    8cdf:	48 8b 85 e8 ee ff ff 	mov    -0x1118(%rbp),%rax
    8ce6:	48 8b 00             	mov    (%rax),%rax
    8ce9:	8b 00                	mov    (%rax),%eax
    8ceb:	09 d0                	or     %edx,%eax
    8ced:	98                   	cwtl   
    8cee:	89 c7                	mov    %eax,%edi
    8cf0:	e8 a8 d6 ff ff       	callq  639d <safe_unary_minus_func_int16_t_s>
    8cf5:	0f b7 c0             	movzwl %ax,%eax
    8cf8:	89 c7                	mov    %eax,%edi
    8cfa:	e8 ea df ff ff       	callq  6ce9 <safe_unary_minus_func_uint16_t_u>
    8cff:	66 3d f9 00          	cmp    $0xf9,%ax
    8d03:	0f 96 c0             	setbe  %al
    8d06:	0f b6 d0             	movzbl %al,%edx
    8d09:	48 8b 85 e8 ee ff ff 	mov    -0x1118(%rbp),%rax
    8d10:	48 8b 00             	mov    (%rax),%rax
    8d13:	8b 00                	mov    (%rax),%eax
    8d15:	09 c2                	or     %eax,%edx
    8d17:	8b 05 45 d1 00 00    	mov    0xd145(%rip),%eax        # 15e62 <g_971+0x2>
    8d1d:	39 c2                	cmp    %eax,%edx
    8d1f:	0f 95 c0             	setne  %al
    8d22:	f7 d0                	not    %eax
    8d24:	0f be c0             	movsbl %al,%eax
    8d27:	83 e0 05             	and    $0x5,%eax
    8d2a:	44 89 e6             	mov    %r12d,%esi
    8d2d:	89 c7                	mov    %eax,%edi
    8d2f:	e8 be d4 ff ff       	callq  61f2 <safe_sub_func_int8_t_s_s>
    8d34:	0f b7 85 f6 ed ff ff 	movzwl -0x120a(%rbp),%eax
    8d3b:	66 85 c0             	test   %ax,%ax
    8d3e:	74 08                	je     8d48 <func_1+0x1593>
    8d40:	8b 85 ac f1 ff ff    	mov    -0xe54(%rbp),%eax
    8d46:	85 c0                	test   %eax,%eax
    8d48:	89 de                	mov    %ebx,%esi
    8d4a:	bf 01 00 00 00       	mov    $0x1,%edi
    8d4f:	e8 8d d7 ff ff       	callq  64e1 <safe_lshift_func_int16_t_s_u>
    8d54:	48 8b 15 45 fc 00 00 	mov    0xfc45(%rip),%rdx        # 189a0 <g_266>
    8d5b:	8b 0a                	mov    (%rdx),%ecx
    8d5d:	0f bf d0             	movswl %ax,%edx
    8d60:	48 8b 05 39 fc 00 00 	mov    0xfc39(%rip),%rax        # 189a0 <g_266>
    8d67:	09 ca                	or     %ecx,%edx
    8d69:	89 10                	mov    %edx,(%rax)
    8d6b:	8b 95 a0 f3 ff ff    	mov    -0xc60(%rbp),%edx
    8d71:	48 8b 0d 88 d9 00 00 	mov    0xd988(%rip),%rcx        # 16700 <g_1765>
    8d78:	48 8b 1d 89 d9 00 00 	mov    0xd989(%rip),%rbx        # 16708 <g_1765+0x8>
    8d7f:	48 8b 85 e8 ee ff ff 	mov    -0x1118(%rbp),%rax
    8d86:	48 8b 00             	mov    (%rax),%rax
    8d89:	8b 30                	mov    (%rax),%esi
    8d8b:	48 8b 05 0e fc 00 00 	mov    0xfc0e(%rip),%rax        # 189a0 <g_266>
    8d92:	8b 08                	mov    (%rax),%ecx
    8d94:	48 8b 85 e8 ee ff ff 	mov    -0x1118(%rbp),%rax
    8d9b:	48 8b 00             	mov    (%rax),%rax
    8d9e:	21 f1                	and    %esi,%ecx
    8da0:	89 08                	mov    %ecx,(%rax)
    8da2:	8b 85 a0 f3 ff ff    	mov    -0xc60(%rbp),%eax
    8da8:	89 c1                	mov    %eax,%ecx
    8daa:	48 8b 85 e0 ef ff ff 	mov    -0x1020(%rbp),%rax
    8db1:	66 89 08             	mov    %cx,(%rax)
    8db4:	48 8b 85 e0 ef ff ff 	mov    -0x1020(%rbp),%rax
    8dbb:	0f b7 00             	movzwl (%rax),%eax
    8dbe:	0f b7 c8             	movzwl %ax,%ecx
    8dc1:	8b 05 ed c2 00 00    	mov    0xc2ed(%rip),%eax        # 150b4 <g_81>
    8dc7:	83 f8 01             	cmp    $0x1,%eax
    8dca:	0f 9e c0             	setle  %al
    8dcd:	0f b6 c0             	movzbl %al,%eax
    8dd0:	09 c8                	or     %ecx,%eax
    8dd2:	f7 d0                	not    %eax
    8dd4:	39 85 24 ee ff ff    	cmp    %eax,-0x11dc(%rbp)
    8dda:	0f 94 c0             	sete   %al
    8ddd:	0f b6 c0             	movzbl %al,%eax
    8de0:	48 89 85 60 ef ff ff 	mov    %rax,-0x10a0(%rbp)
    8de7:	48 8b 85 60 ef ff ff 	mov    -0x10a0(%rbp),%rax
    8dee:	0f b6 c0             	movzbl %al,%eax
    8df1:	89 d6                	mov    %edx,%esi
    8df3:	89 c7                	mov    %eax,%edi
    8df5:	e8 52 de ff ff       	callq  6c4c <safe_lshift_func_uint8_t_u_u>
    8dfa:	0f b6 d8             	movzbl %al,%ebx
    8dfd:	0f bf 85 06 ee ff ff 	movswl -0x11fa(%rbp),%eax
    8e04:	be 0e 00 00 00       	mov    $0xe,%esi
    8e09:	89 c7                	mov    %eax,%edi
    8e0b:	e8 1a d7 ff ff       	callq  652a <safe_rshift_func_int16_t_s_s>
    8e10:	4c 0f bf e0          	movswq %ax,%r12
    8e14:	48 8b 05 45 fe 00 00 	mov    0xfe45(%rip),%rax        # 18c60 <g_1593>
    8e1b:	8b 00                	mov    (%rax),%eax
    8e1d:	89 c7                	mov    %eax,%edi
    8e1f:	e8 72 d7 ff ff       	callq  6596 <safe_unary_minus_func_int32_t_s>
    8e24:	48 98                	cltq   
    8e26:	4c 89 e6             	mov    %r12,%rsi
    8e29:	48 89 c7             	mov    %rax,%rdi
    8e2c:	e8 77 da ff ff       	callq  68a8 <safe_sub_func_int64_t_s_s>
    8e31:	89 c2                	mov    %eax,%edx
    8e33:	8b 85 e4 f2 ff ff    	mov    -0xd1c(%rbp),%eax
    8e39:	89 d6                	mov    %edx,%esi
    8e3b:	89 c7                	mov    %eax,%edi
    8e3d:	e8 74 d7 ff ff       	callq  65b6 <safe_add_func_int32_t_s_s>
    8e42:	0f b7 c0             	movzwl %ax,%eax
    8e45:	89 de                	mov    %ebx,%esi
    8e47:	89 c7                	mov    %eax,%edi
    8e49:	e8 40 df ff ff       	callq  6d8e <safe_div_func_uint16_t_u_u>
    8e4e:	0f b7 c0             	movzwl %ax,%eax
    8e51:	09 85 2c ee ff ff    	or     %eax,-0x11d4(%rbp)
    8e57:	0f b7 85 fa ed ff ff 	movzwl -0x1206(%rbp),%eax
    8e5e:	83 e8 01             	sub    $0x1,%eax
    8e61:	66 89 85 fa ed ff ff 	mov    %ax,-0x1206(%rbp)
    8e68:	66 83 bd fa ed ff ff 	cmpw   $0x0,-0x1206(%rbp)
    8e6f:	00 
    8e70:	0f 89 9e fa ff ff    	jns    8914 <func_1+0x115f>
    8e76:	e9 1c 01 00 00       	jmpq   8f97 <func_1+0x17e2>
    8e7b:	c6 85 f0 ed ff ff ce 	movb   $0xce,-0x1210(%rbp)
    8e82:	c7 85 84 ee ff ff af 	movl   $0x43bc72af,-0x117c(%rbp)
    8e89:	72 bc 43 
    8e8c:	c7 05 92 c8 00 00 00 	movl   $0x0,0xc892(%rip)        # 15728 <g_544>
    8e93:	00 00 00 
    8e96:	e9 ed 00 00 00       	jmpq   8f88 <func_1+0x17d3>
    8e9b:	48 c7 85 d0 ef ff ff 	movq   $0x1,-0x1030(%rbp)
    8ea2:	01 00 00 00 
    8ea6:	c7 85 88 ee ff ff 69 	movl   $0xbd309969,-0x1178(%rbp)
    8ead:	99 30 bd 
    8eb0:	48 8b 85 d0 ef ff ff 	mov    -0x1030(%rbp),%rax
    8eb7:	89 c2                	mov    %eax,%edx
    8eb9:	8b 85 88 ee ff ff    	mov    -0x1178(%rbp),%eax
    8ebf:	31 d0                	xor    %edx,%eax
    8ec1:	89 85 88 ee ff ff    	mov    %eax,-0x1178(%rbp)
    8ec7:	0f b6 05 73 92 00 00 	movzbl 0x9273(%rip),%eax        # 12141 <l_1783.4336+0x1>
    8ece:	0f be d8             	movsbl %al,%ebx
    8ed1:	0f b6 85 f0 ed ff ff 	movzbl -0x1210(%rbp),%eax
    8ed8:	88 85 ef ed ff ff    	mov    %al,-0x1211(%rbp)
    8ede:	0f b6 95 ef ed ff ff 	movzbl -0x1211(%rbp),%edx
    8ee5:	48 8b 05 94 fb 00 00 	mov    0xfb94(%rip),%rax        # 18a80 <g_597>
    8eec:	48 8b 00             	mov    (%rax),%rax
    8eef:	8b 08                	mov    (%rax),%ecx
    8ef1:	0f b6 d2             	movzbl %dl,%edx
    8ef4:	48 8b 05 85 fb 00 00 	mov    0xfb85(%rip),%rax        # 18a80 <g_597>
    8efb:	48 8b 00             	mov    (%rax),%rax
    8efe:	21 ca                	and    %ecx,%edx
    8f00:	89 10                	mov    %edx,(%rax)
    8f02:	8b 00                	mov    (%rax),%eax
    8f04:	85 c0                	test   %eax,%eax
    8f06:	74 40                	je     8f48 <func_1+0x1793>
    8f08:	48 8b 05 49 fb 00 00 	mov    0xfb49(%rip),%rax        # 18a58 <g_490>
    8f0f:	0f b6 00             	movzbl (%rax),%eax
    8f12:	0f be c0             	movsbl %al,%eax
    8f15:	89 c6                	mov    %eax,%esi
    8f17:	bf 00 00 00 00       	mov    $0x0,%edi
    8f1c:	e8 6c dd ff ff       	callq  6c8d <safe_rshift_func_uint8_t_u_s>
    8f21:	0f b6 c0             	movzbl %al,%eax
    8f24:	39 85 84 ee ff ff    	cmp    %eax,-0x117c(%rbp)
    8f2a:	48 8b 85 d0 ef ff ff 	mov    -0x1030(%rbp),%rax
    8f31:	0f b6 c0             	movzbl %al,%eax
    8f34:	be f6 00 00 00       	mov    $0xf6,%esi
    8f39:	89 c7                	mov    %eax,%edi
    8f3b:	e8 38 dc ff ff       	callq  6b78 <safe_sub_func_uint8_t_u_u>
    8f40:	48 83 bd 50 ef ff ff 	cmpq   $0x0,-0x10b0(%rbp)
    8f47:	00 
    8f48:	89 de                	mov    %ebx,%esi
    8f4a:	bf 00 00 00 00       	mov    $0x0,%edi
    8f4f:	e8 f8 dc ff ff       	callq  6c4c <safe_lshift_func_uint8_t_u_u>
    8f54:	be 65 56 dc 49       	mov    $0x49dc5665,%esi
    8f59:	bf 57 e0 b5 69       	mov    $0x69b5e057,%edi
    8f5e:	e8 6d df ff ff       	callq  6ed0 <safe_sub_func_uint32_t_u_u>
    8f63:	89 c2                	mov    %eax,%edx
    8f65:	48 8b 05 f4 fc 00 00 	mov    0xfcf4(%rip),%rax        # 18c60 <g_1593>
    8f6c:	89 10                	mov    %edx,(%rax)
    8f6e:	48 8b 05 2b fa 00 00 	mov    0xfa2b(%rip),%rax        # 189a0 <g_266>
    8f75:	8b 00                	mov    (%rax),%eax
    8f77:	85 c0                	test   %eax,%eax
    8f79:	8b 05 a9 c7 00 00    	mov    0xc7a9(%rip),%eax        # 15728 <g_544>
    8f7f:	83 c0 01             	add    $0x1,%eax
    8f82:	89 05 a0 c7 00 00    	mov    %eax,0xc7a0(%rip)        # 15728 <g_544>
    8f88:	8b 05 9a c7 00 00    	mov    0xc79a(%rip),%eax        # 15728 <g_544>
    8f8e:	83 f8 01             	cmp    $0x1,%eax
    8f91:	0f 86 04 ff ff ff    	jbe    8e9b <func_1+0x16e6>
    8f97:	83 85 14 ee ff ff 01 	addl   $0x1,-0x11ec(%rbp)
    8f9e:	83 bd 14 ee ff ff 01 	cmpl   $0x1,-0x11ec(%rbp)
    8fa5:	0f 8e 4a f4 ff ff    	jle    83f5 <func_1+0xc40>
    8fab:	48 8b 05 e6 fb 00 00 	mov    0xfbe6(%rip),%rax        # 18b98 <g_986>
    8fb2:	48 8b 00             	mov    (%rax),%rax
    8fb5:	8b 00                	mov    (%rax),%eax
    8fb7:	85 c0                	test   %eax,%eax
    8fb9:	0f 85 f6 0b 00 00    	jne    9bb5 <func_1+0x2400>
    8fbf:	c6 85 e9 ed ff ff 01 	movb   $0x1,-0x1217(%rbp)
    8fc6:	e9 82 05 00 00       	jmpq   954d <func_1+0x1d98>
    8fcb:	48 c7 85 80 ef ff ff 	movq   $0x0,-0x1080(%rbp)
    8fd2:	00 00 00 00 
    8fd6:	48 b8 06 00 00 06 a5 	movabs $0x60606a506000006,%rax
    8fdd:	06 06 06 
    8fe0:	48 89 85 80 f0 ff ff 	mov    %rax,-0xf80(%rbp)
    8fe7:	66 c7 85 88 f0 ff ff 	movw   $0x6a5,-0xf78(%rbp)
    8fee:	a5 06 
    8ff0:	48 b8 06 06 06 a5 06 	movabs $0x6000006a5060606,%rax
    8ff7:	00 00 06 
    8ffa:	48 89 85 8a f0 ff ff 	mov    %rax,-0xf76(%rbp)
    9001:	66 c7 85 92 f0 ff ff 	movw   $0x6a5,-0xf6e(%rbp)
    9008:	a5 06 
    900a:	c6 85 ee ed ff ff ff 	movb   $0xff,-0x1212(%rbp)
    9011:	c7 85 34 ee ff ff 00 	movl   $0x0,-0x11cc(%rbp)
    9018:	00 00 00 
    901b:	eb 1a                	jmp    9037 <func_1+0x1882>
    901d:	8b 85 34 ee ff ff    	mov    -0x11cc(%rbp),%eax
    9023:	48 98                	cltq   
    9025:	c7 84 85 e0 f0 ff ff 	movl   $0x9d3fa93c,-0xf20(%rbp,%rax,4)
    902c:	3c a9 3f 9d 
    9030:	83 85 34 ee ff ff 01 	addl   $0x1,-0x11cc(%rbp)
    9037:	83 bd 34 ee ff ff 08 	cmpl   $0x8,-0x11cc(%rbp)
    903e:	7e dd                	jle    901d <func_1+0x1868>
    9040:	c7 85 34 ee ff ff 00 	movl   $0x0,-0x11cc(%rbp)
    9047:	00 00 00 
    904a:	eb 46                	jmp    9092 <func_1+0x18dd>
    904c:	c7 85 38 ee ff ff 00 	movl   $0x0,-0x11c8(%rbp)
    9053:	00 00 00 
    9056:	eb 2a                	jmp    9082 <func_1+0x18cd>
    9058:	8b 85 38 ee ff ff    	mov    -0x11c8(%rbp),%eax
    905e:	48 98                	cltq   
    9060:	8b 95 34 ee ff ff    	mov    -0x11cc(%rbp),%edx
    9066:	48 63 d2             	movslq %edx,%rdx
    9069:	48 c1 e2 02          	shl    $0x2,%rdx
    906d:	48 01 d0             	add    %rdx,%rax
    9070:	c7 84 85 70 f0 ff ff 	movl   $0xfffffffc,-0xf90(%rbp,%rax,4)
    9077:	fc ff ff ff 
    907b:	83 85 38 ee ff ff 01 	addl   $0x1,-0x11c8(%rbp)
    9082:	83 bd 38 ee ff ff 03 	cmpl   $0x3,-0x11c8(%rbp)
    9089:	7e cd                	jle    9058 <func_1+0x18a3>
    908b:	83 85 34 ee ff ff 01 	addl   $0x1,-0x11cc(%rbp)
    9092:	83 bd 34 ee ff ff 00 	cmpl   $0x0,-0x11cc(%rbp)
    9099:	7e b1                	jle    904c <func_1+0x1897>
    909b:	0f b6 85 e9 ed ff ff 	movzbl -0x1217(%rbp),%eax
    90a2:	48 63 c8             	movslq %eax,%rcx
    90a5:	8b 85 18 ee ff ff    	mov    -0x11e8(%rbp),%eax
    90ab:	48 63 d0             	movslq %eax,%rdx
    90ae:	48 89 d0             	mov    %rdx,%rax
    90b1:	48 c1 e0 02          	shl    $0x2,%rax
    90b5:	48 01 d0             	add    %rdx,%rax
    90b8:	48 c1 e0 02          	shl    $0x2,%rax
    90bc:	48 01 d0             	add    %rdx,%rax
    90bf:	48 01 c0             	add    %rax,%rax
    90c2:	48 8d 14 08          	lea    (%rax,%rcx,1),%rdx
    90c6:	48 8d 05 f3 cd 00 00 	lea    0xcdf3(%rip),%rax        # 15ec0 <g_1177>
    90cd:	48 01 d0             	add    %rdx,%rax
    90d0:	0f b6 10             	movzbl (%rax),%edx
    90d3:	48 8b 05 c6 f8 00 00 	mov    0xf8c6(%rip),%rax        # 189a0 <g_266>
    90da:	0f b6 d2             	movzbl %dl,%edx
    90dd:	89 10                	mov    %edx,(%rax)
    90df:	c7 85 24 ee ff ff 00 	movl   $0x0,-0x11dc(%rbp)
    90e6:	00 00 00 
    90e9:	e9 cd 01 00 00       	jmpq   92bb <func_1+0x1b06>
    90ee:	48 8d 05 9b fb 00 00 	lea    0xfb9b(%rip),%rax        # 18c90 <g_1789>
    90f5:	48 89 85 a0 ef ff ff 	mov    %rax,-0x1060(%rbp)
    90fc:	48 c7 85 c8 ee ff ff 	movq   $0x0,-0x1138(%rbp)
    9103:	00 00 00 00 
    9107:	48 8d 85 c8 ee ff ff 	lea    -0x1138(%rbp),%rax
    910e:	48 89 85 a8 ef ff ff 	mov    %rax,-0x1058(%rbp)
    9115:	48 c7 85 b0 ef ff ff 	movq   $0x0,-0x1050(%rbp)
    911c:	00 00 00 00 
    9120:	48 c7 85 b8 ef ff ff 	movq   $0x0,-0x1048(%rbp)
    9127:	00 00 00 00 
    912b:	48 c7 85 80 f1 ff ff 	movq   $0x0,-0xe80(%rbp)
    9132:	00 00 00 00 
    9136:	48 c7 85 88 f1 ff ff 	movq   $0x0,-0xe78(%rbp)
    913d:	00 00 00 00 
    9141:	48 c7 85 90 f1 ff ff 	movq   $0x0,-0xe70(%rbp)
    9148:	00 00 00 00 
    914c:	48 c7 85 98 f1 ff ff 	movq   $0x0,-0xe68(%rbp)
    9153:	00 00 00 00 
    9157:	48 c7 85 a0 f1 ff ff 	movq   $0x0,-0xe60(%rbp)
    915e:	00 00 00 00 
    9162:	48 c7 85 a8 f1 ff ff 	movq   $0x0,-0xe58(%rbp)
    9169:	00 00 00 00 
    916d:	48 8d 05 6c fb 00 00 	lea    0xfb6c(%rip),%rax        # 18ce0 <g_1806>
    9174:	48 89 85 90 f3 ff ff 	mov    %rax,-0xc70(%rbp)
    917b:	48 8d 05 5e fb 00 00 	lea    0xfb5e(%rip),%rax        # 18ce0 <g_1806>
    9182:	48 89 85 98 f3 ff ff 	mov    %rax,-0xc68(%rbp)
    9189:	48 8d 05 50 fb 00 00 	lea    0xfb50(%rip),%rax        # 18ce0 <g_1806>
    9190:	48 89 85 a0 f3 ff ff 	mov    %rax,-0xc60(%rbp)
    9197:	48 8d 05 42 fb 00 00 	lea    0xfb42(%rip),%rax        # 18ce0 <g_1806>
    919e:	48 89 85 a8 f3 ff ff 	mov    %rax,-0xc58(%rbp)
    91a5:	48 8d 05 34 fb 00 00 	lea    0xfb34(%rip),%rax        # 18ce0 <g_1806>
    91ac:	48 89 85 b0 f3 ff ff 	mov    %rax,-0xc50(%rbp)
    91b3:	48 8d 05 26 fb 00 00 	lea    0xfb26(%rip),%rax        # 18ce0 <g_1806>
    91ba:	48 89 85 b8 f3 ff ff 	mov    %rax,-0xc48(%rbp)
    91c1:	48 8d 05 18 fb 00 00 	lea    0xfb18(%rip),%rax        # 18ce0 <g_1806>
    91c8:	48 89 85 c0 f3 ff ff 	mov    %rax,-0xc40(%rbp)
    91cf:	48 8d 05 0a fb 00 00 	lea    0xfb0a(%rip),%rax        # 18ce0 <g_1806>
    91d6:	48 89 85 c8 f3 ff ff 	mov    %rax,-0xc38(%rbp)
    91dd:	48 8d 05 fc fa 00 00 	lea    0xfafc(%rip),%rax        # 18ce0 <g_1806>
    91e4:	48 89 85 d0 f3 ff ff 	mov    %rax,-0xc30(%rbp)
    91eb:	48 8d 05 ee fa 00 00 	lea    0xfaee(%rip),%rax        # 18ce0 <g_1806>
    91f2:	48 89 85 d8 f3 ff ff 	mov    %rax,-0xc28(%rbp)
    91f9:	48 8d 05 e0 fa 00 00 	lea    0xfae0(%rip),%rax        # 18ce0 <g_1806>
    9200:	48 89 85 e0 f3 ff ff 	mov    %rax,-0xc20(%rbp)
    9207:	48 8d 05 d2 fa 00 00 	lea    0xfad2(%rip),%rax        # 18ce0 <g_1806>
    920e:	48 89 85 e8 f3 ff ff 	mov    %rax,-0xc18(%rbp)
    9215:	48 8d 05 c4 fa 00 00 	lea    0xfac4(%rip),%rax        # 18ce0 <g_1806>
    921c:	48 89 85 f0 f3 ff ff 	mov    %rax,-0xc10(%rbp)
    9223:	48 8d 05 b6 fa 00 00 	lea    0xfab6(%rip),%rax        # 18ce0 <g_1806>
    922a:	48 89 85 f8 f3 ff ff 	mov    %rax,-0xc08(%rbp)
    9231:	48 8d 05 a8 fa 00 00 	lea    0xfaa8(%rip),%rax        # 18ce0 <g_1806>
    9238:	48 89 85 00 f4 ff ff 	mov    %rax,-0xc00(%rbp)
    923f:	c7 85 7c ee ff ff ff 	movl   $0xffffffff,-0x1184(%rbp)
    9246:	ff ff ff 
    9249:	c7 85 80 ee ff ff f7 	movl   $0xfffffff7,-0x1180(%rbp)
    9250:	ff ff ff 
    9253:	48 8d 85 a8 ee ff ff 	lea    -0x1158(%rbp),%rax
    925a:	48 89 85 d0 ee ff ff 	mov    %rax,-0x1130(%rbp)
    9261:	48 8d 85 d0 ee ff ff 	lea    -0x1130(%rbp),%rax
    9268:	48 89 85 d8 ee ff ff 	mov    %rax,-0x1128(%rbp)
    926f:	48 8d 85 d8 ee ff ff 	lea    -0x1128(%rbp),%rax
    9276:	48 89 85 e0 ee ff ff 	mov    %rax,-0x1120(%rbp)
    927d:	48 8d 85 e0 ee ff ff 	lea    -0x1120(%rbp),%rax
    9284:	48 89 85 c0 ef ff ff 	mov    %rax,-0x1040(%rbp)
    928b:	c7 85 3c ee ff ff 00 	movl   $0x0,-0x11c4(%rbp)
    9292:	00 00 00 
    9295:	eb 14                	jmp    92ab <func_1+0x1af6>
    9297:	8b 85 3c ee ff ff    	mov    -0x11c4(%rbp),%eax
    929d:	48 98                	cltq   
    929f:	c6 44 05 b5 01       	movb   $0x1,-0x4b(%rbp,%rax,1)
    92a4:	83 85 3c ee ff ff 01 	addl   $0x1,-0x11c4(%rbp)
    92ab:	83 bd 3c ee ff ff 03 	cmpl   $0x3,-0x11c4(%rbp)
    92b2:	7e e3                	jle    9297 <func_1+0x1ae2>
    92b4:	83 85 24 ee ff ff 01 	addl   $0x1,-0x11dc(%rbp)
    92bb:	83 bd 24 ee ff ff 05 	cmpl   $0x5,-0x11dc(%rbp)
    92c2:	0f 8e 26 fe ff ff    	jle    90ee <func_1+0x1939>
    92c8:	48 8b 85 70 ef ff ff 	mov    -0x1090(%rbp),%rax
    92cf:	48 8b 00             	mov    (%rax),%rax
    92d2:	8b 00                	mov    (%rax),%eax
    92d4:	85 c0                	test   %eax,%eax
    92d6:	0f 84 3f 01 00 00    	je     941b <func_1+0x1c66>
    92dc:	c7 05 7a c4 00 00 00 	movl   $0x0,0xc47a(%rip)        # 15760 <g_547>
    92e3:	00 00 00 
    92e6:	e9 1c 01 00 00       	jmpq   9407 <func_1+0x1c52>
    92eb:	48 8d 05 d2 d3 00 00 	lea    0xd3d2(%rip),%rax        # 166c4 <g_1643>
    92f2:	48 89 85 98 ef ff ff 	mov    %rax,-0x1068(%rbp)
    92f9:	48 8b 05 80 f9 00 00 	mov    0xf980(%rip),%rax        # 18c80 <g_1675>
    9300:	48 8b 00             	mov    (%rax),%rax
    9303:	48 85 c0             	test   %rax,%rax
    9306:	48 8b 85 70 ef ff ff 	mov    -0x1090(%rbp),%rax
    930d:	48 8b 00             	mov    (%rax),%rax
    9310:	8b 00                	mov    (%rax),%eax
    9312:	48 98                	cltq   
    9314:	48 89 c6             	mov    %rax,%rsi
    9317:	bf 00 00 00 00       	mov    $0x0,%edi
    931c:	e8 5f dd ff ff       	callq  7080 <safe_mod_func_uint64_t_u_u>
    9321:	48 89 c3             	mov    %rax,%rbx
    9324:	48 8b 85 70 ef ff ff 	mov    -0x1090(%rbp),%rax
    932b:	48 8b 00             	mov    (%rax),%rax
    932e:	44 8b 20             	mov    (%rax),%r12d
    9331:	48 8b 05 60 f8 00 00 	mov    0xf860(%rip),%rax        # 18b98 <g_986>
    9338:	48 8b 00             	mov    (%rax),%rax
    933b:	44 8b 28             	mov    (%rax),%r13d
    933e:	48 8b 05 9b f9 00 00 	mov    0xf99b(%rip),%rax        # 18ce0 <g_1806>
    9345:	48 8b 00             	mov    (%rax),%rax
    9348:	0f b7 00             	movzwl (%rax),%eax
    934b:	98                   	cwtl   
    934c:	89 c6                	mov    %eax,%esi
    934e:	bf 08 00 00 00       	mov    $0x8,%edi
    9353:	e8 fd d0 ff ff       	callq  6455 <safe_div_func_int16_t_s_s>
    9358:	89 c2                	mov    %eax,%edx
    935a:	48 8b 05 5f f5 00 00 	mov    0xf55f(%rip),%rax        # 188c0 <g_171>
    9361:	0f b7 00             	movzwl (%rax),%eax
    9364:	89 c1                	mov    %eax,%ecx
    9366:	89 d8                	mov    %ebx,%eax
    9368:	21 c1                	and    %eax,%ecx
    936a:	48 8b 05 4f f5 00 00 	mov    0xf54f(%rip),%rax        # 188c0 <g_171>
    9371:	66 89 08             	mov    %cx,(%rax)
    9374:	0f b7 00             	movzwl (%rax),%eax
    9377:	66 39 c2             	cmp    %ax,%dx
    937a:	0f 9d c0             	setge  %al
    937d:	0f b6 c0             	movzbl %al,%eax
    9380:	44 21 e8             	and    %r13d,%eax
    9383:	41 39 c4             	cmp    %eax,%r12d
    9386:	0f 94 c2             	sete   %dl
    9389:	48 8b 85 70 ef ff ff 	mov    -0x1090(%rbp),%rax
    9390:	48 8b 00             	mov    (%rax),%rax
    9393:	0f b6 d2             	movzbl %dl,%edx
    9396:	89 10                	mov    %edx,(%rax)
    9398:	48 8b 85 e8 ee ff ff 	mov    -0x1118(%rbp),%rax
    939f:	48 8b 10             	mov    (%rax),%rdx
    93a2:	48 8b 85 e8 ee ff ff 	mov    -0x1118(%rbp),%rax
    93a9:	48 8b 00             	mov    (%rax),%rax
    93ac:	8b 12                	mov    (%rdx),%edx
    93ae:	89 10                	mov    %edx,(%rax)
    93b0:	48 83 bd 98 ef ff ff 	cmpq   $0x0,-0x1068(%rbp)
    93b7:	00 
    93b8:	0f 95 c0             	setne  %al
    93bb:	0f b6 c0             	movzbl %al,%eax
    93be:	89 85 e0 f0 ff ff    	mov    %eax,-0xf20(%rbp)
    93c4:	8b 9d e0 f0 ff ff    	mov    -0xf20(%rbp),%ebx
    93ca:	48 8b 85 70 ef ff ff 	mov    -0x1090(%rbp),%rax
    93d1:	48 8b 00             	mov    (%rax),%rax
    93d4:	8b 00                	mov    (%rax),%eax
    93d6:	98                   	cwtl   
    93d7:	be 08 00 00 00       	mov    $0x8,%esi
    93dc:	89 c7                	mov    %eax,%edi
    93de:	e8 80 d1 ff ff       	callq  6563 <safe_rshift_func_int16_t_s_u>
    93e3:	98                   	cwtl   
    93e4:	4c 8b 25 75 f8 00 00 	mov    0xf875(%rip),%r12        # 18c60 <g_1593>
    93eb:	89 de                	mov    %ebx,%esi
    93ed:	89 c7                	mov    %eax,%edi
    93ef:	e8 c2 d1 ff ff       	callq  65b6 <safe_add_func_int32_t_s_s>
    93f4:	41 89 04 24          	mov    %eax,(%r12)
    93f8:	8b 05 62 c3 00 00    	mov    0xc362(%rip),%eax        # 15760 <g_547>
    93fe:	83 c0 01             	add    $0x1,%eax
    9401:	89 05 59 c3 00 00    	mov    %eax,0xc359(%rip)        # 15760 <g_547>
    9407:	8b 05 53 c3 00 00    	mov    0xc353(%rip),%eax        # 15760 <g_547>
    940d:	83 f8 06             	cmp    $0x6,%eax
    9410:	0f 86 d5 fe ff ff    	jbe    92eb <func_1+0x1b36>
    9416:	e9 2b 01 00 00       	jmpq   9546 <func_1+0x1d91>
    941b:	66 c7 85 80 f1 ff ff 	movw   $0xf7b1,-0xe80(%rbp)
    9422:	b1 f7 
    9424:	66 c7 85 82 f1 ff ff 	movw   $0xbcb0,-0xe7e(%rbp)
    942b:	b0 bc 
    942d:	66 c7 85 84 f1 ff ff 	movw   $0xf7b1,-0xe7c(%rbp)
    9434:	b1 f7 
    9436:	66 c7 85 86 f1 ff ff 	movw   $0xbcb0,-0xe7a(%rbp)
    943d:	b0 bc 
    943f:	66 c7 85 88 f1 ff ff 	movw   $0xf7b1,-0xe78(%rbp)
    9446:	b1 f7 
    9448:	66 c7 85 8a f1 ff ff 	movw   $0xbcb0,-0xe76(%rbp)
    944f:	b0 bc 
    9451:	66 c7 85 8c f1 ff ff 	movw   $0xf7b1,-0xe74(%rbp)
    9458:	b1 f7 
    945a:	66 c7 85 8e f1 ff ff 	movw   $0xbcb0,-0xe72(%rbp)
    9461:	b0 bc 
    9463:	c7 85 90 f3 ff ff 01 	movl   $0x1,-0xc70(%rbp)
    946a:	00 00 00 
    946d:	c7 85 94 f3 ff ff 00 	movl   $0x0,-0xc6c(%rbp)
    9474:	00 00 00 
    9477:	c7 85 98 f3 ff ff 01 	movl   $0x1,-0xc68(%rbp)
    947e:	00 00 00 
    9481:	c7 85 9c f3 ff ff 01 	movl   $0x5cb4e901,-0xc64(%rbp)
    9488:	e9 b4 5c 
    948b:	c7 85 a0 f3 ff ff e7 	movl   $0x1b029ce7,-0xc60(%rbp)
    9492:	9c 02 1b 
    9495:	c7 85 a4 f3 ff ff 01 	movl   $0x5cb4e901,-0xc5c(%rbp)
    949c:	e9 b4 5c 
    949f:	c7 85 a8 f3 ff ff 01 	movl   $0x1,-0xc58(%rbp)
    94a6:	00 00 00 
    94a9:	c7 85 ac f3 ff ff 00 	movl   $0x0,-0xc54(%rbp)
    94b0:	00 00 00 
    94b3:	c7 85 b0 f3 ff ff 01 	movl   $0x1,-0xc50(%rbp)
    94ba:	00 00 00 
    94bd:	c7 85 b4 f3 ff ff 01 	movl   $0x5cb4e901,-0xc4c(%rbp)
    94c4:	e9 b4 5c 
    94c7:	c7 85 b8 f3 ff ff e7 	movl   $0x1b029ce7,-0xc48(%rbp)
    94ce:	9c 02 1b 
    94d1:	c7 85 bc f3 ff ff 01 	movl   $0x5cb4e901,-0xc44(%rbp)
    94d8:	e9 b4 5c 
    94db:	c7 85 c0 f3 ff ff 01 	movl   $0x1,-0xc40(%rbp)
    94e2:	00 00 00 
    94e5:	c7 85 c4 f3 ff ff 00 	movl   $0x0,-0xc3c(%rbp)
    94ec:	00 00 00 
    94ef:	c7 85 c8 f3 ff ff 01 	movl   $0x1,-0xc38(%rbp)
    94f6:	00 00 00 
    94f9:	48 c7 85 88 ef ff ff 	movq   $0x0,-0x1078(%rbp)
    9500:	00 00 00 00 
    9504:	48 8d 05 3d f5 00 00 	lea    0xf53d(%rip),%rax        # 18a48 <g_389>
    950b:	48 89 85 90 ef ff ff 	mov    %rax,-0x1070(%rbp)
    9512:	0f b7 85 fc ed ff ff 	movzwl -0x1204(%rbp),%eax
    9519:	83 e8 01             	sub    $0x1,%eax
    951c:	66 89 85 fc ed ff ff 	mov    %ax,-0x1204(%rbp)
    9523:	48 8b 05 56 f5 00 00 	mov    0xf556(%rip),%rax        # 18a80 <g_597>
    952a:	48 8b 10             	mov    (%rax),%rdx
    952d:	48 8b 85 90 ef ff ff 	mov    -0x1070(%rbp),%rax
    9534:	48 89 10             	mov    %rdx,(%rax)
    9537:	8b 85 74 f0 ff ff    	mov    -0xf8c(%rbp),%eax
    953d:	83 e8 01             	sub    $0x1,%eax
    9540:	89 85 74 f0 ff ff    	mov    %eax,-0xf8c(%rbp)
    9546:	80 85 e9 ed ff ff 01 	addb   $0x1,-0x1217(%rbp)
    954d:	80 bd e9 ed ff ff 05 	cmpb   $0x5,-0x1217(%rbp)
    9554:	0f 86 71 fa ff ff    	jbe    8fcb <func_1+0x1816>
    955a:	c7 85 5c ee ff ff 01 	movl   $0x1,-0x11a4(%rbp)
    9561:	00 00 00 
    9564:	83 bd 5c ee ff ff 05 	cmpl   $0x5,-0x11a4(%rbp)
    956b:	0f 8f 45 06 00 00    	jg     9bb6 <func_1+0x2401>
    9571:	48 8d 05 16 c1 00 00 	lea    0xc116(%rip),%rax        # 1568e <g_272+0x6e>
    9578:	48 89 85 90 f3 ff ff 	mov    %rax,-0xc70(%rbp)
    957f:	48 8d 05 dc c0 00 00 	lea    0xc0dc(%rip),%rax        # 15662 <g_272+0x42>
    9586:	48 89 85 98 f3 ff ff 	mov    %rax,-0xc68(%rbp)
    958d:	48 8d 05 fa c0 00 00 	lea    0xc0fa(%rip),%rax        # 1568e <g_272+0x6e>
    9594:	48 89 85 a0 f3 ff ff 	mov    %rax,-0xc60(%rbp)
    959b:	48 8d 05 d6 c0 00 00 	lea    0xc0d6(%rip),%rax        # 15678 <g_272+0x58>
    95a2:	48 89 85 a8 f3 ff ff 	mov    %rax,-0xc58(%rbp)
    95a9:	48 8d 05 b2 c0 00 00 	lea    0xc0b2(%rip),%rax        # 15662 <g_272+0x42>
    95b0:	48 89 85 b0 f3 ff ff 	mov    %rax,-0xc50(%rbp)
    95b7:	48 8d 05 62 c0 00 00 	lea    0xc062(%rip),%rax        # 15620 <g_272>
    95be:	48 89 85 b8 f3 ff ff 	mov    %rax,-0xc48(%rbp)
    95c5:	48 8d 05 54 c0 00 00 	lea    0xc054(%rip),%rax        # 15620 <g_272>
    95cc:	48 89 85 c0 f3 ff ff 	mov    %rax,-0xc40(%rbp)
    95d3:	48 8d 05 88 c0 00 00 	lea    0xc088(%rip),%rax        # 15662 <g_272+0x42>
    95da:	48 89 85 c8 f3 ff ff 	mov    %rax,-0xc38(%rbp)
    95e1:	48 8d 05 64 c0 00 00 	lea    0xc064(%rip),%rax        # 1564c <g_272+0x2c>
    95e8:	48 89 85 d0 f3 ff ff 	mov    %rax,-0xc30(%rbp)
    95ef:	48 c7 85 d8 f3 ff ff 	movq   $0x0,-0xc28(%rbp)
    95f6:	00 00 00 00 
    95fa:	48 8d 05 4b c0 00 00 	lea    0xc04b(%rip),%rax        # 1564c <g_272+0x2c>
    9601:	48 89 85 e0 f3 ff ff 	mov    %rax,-0xc20(%rbp)
    9608:	48 8d 05 53 c0 00 00 	lea    0xc053(%rip),%rax        # 15662 <g_272+0x42>
    960f:	48 89 85 e8 f3 ff ff 	mov    %rax,-0xc18(%rbp)
    9616:	48 c7 85 f0 f3 ff ff 	movq   $0x0,-0xc10(%rbp)
    961d:	00 00 00 00 
    9621:	48 8d 85 50 f0 ff ff 	lea    -0xfb0(%rbp),%rax
    9628:	48 89 85 f8 f3 ff ff 	mov    %rax,-0xc08(%rbp)
    962f:	48 8d 85 50 f0 ff ff 	lea    -0xfb0(%rbp),%rax
    9636:	48 89 85 00 f4 ff ff 	mov    %rax,-0xc00(%rbp)
    963d:	48 8d 05 dc bf 00 00 	lea    0xbfdc(%rip),%rax        # 15620 <g_272>
    9644:	48 89 85 08 f4 ff ff 	mov    %rax,-0xbf8(%rbp)
    964b:	48 8d 05 26 c0 00 00 	lea    0xc026(%rip),%rax        # 15678 <g_272+0x58>
    9652:	48 89 85 10 f4 ff ff 	mov    %rax,-0xbf0(%rbp)
    9659:	48 8d 85 50 f0 ff ff 	lea    -0xfb0(%rbp),%rax
    9660:	48 89 85 18 f4 ff ff 	mov    %rax,-0xbe8(%rbp)
    9667:	48 8d 05 0a c0 00 00 	lea    0xc00a(%rip),%rax        # 15678 <g_272+0x58>
    966e:	48 89 85 20 f4 ff ff 	mov    %rax,-0xbe0(%rbp)
    9675:	48 8d 05 a4 bf 00 00 	lea    0xbfa4(%rip),%rax        # 15620 <g_272>
    967c:	48 89 85 28 f4 ff ff 	mov    %rax,-0xbd8(%rbp)
    9683:	48 8d 85 50 f0 ff ff 	lea    -0xfb0(%rbp),%rax
    968a:	48 89 85 30 f4 ff ff 	mov    %rax,-0xbd0(%rbp)
    9691:	48 8d 05 f6 bf 00 00 	lea    0xbff6(%rip),%rax        # 1568e <g_272+0x6e>
    9698:	48 89 85 38 f4 ff ff 	mov    %rax,-0xbc8(%rbp)
    969f:	48 8d 85 50 f0 ff ff 	lea    -0xfb0(%rbp),%rax
    96a6:	48 89 85 40 f4 ff ff 	mov    %rax,-0xbc0(%rbp)
    96ad:	48 8d 05 6c bf 00 00 	lea    0xbf6c(%rip),%rax        # 15620 <g_272>
    96b4:	48 89 85 48 f4 ff ff 	mov    %rax,-0xbb8(%rbp)
    96bb:	48 8d 05 b6 bf 00 00 	lea    0xbfb6(%rip),%rax        # 15678 <g_272+0x58>
    96c2:	48 89 85 50 f4 ff ff 	mov    %rax,-0xbb0(%rbp)
    96c9:	48 8d 85 50 f0 ff ff 	lea    -0xfb0(%rbp),%rax
    96d0:	48 89 85 58 f4 ff ff 	mov    %rax,-0xba8(%rbp)
    96d7:	48 8d 05 9a bf 00 00 	lea    0xbf9a(%rip),%rax        # 15678 <g_272+0x58>
    96de:	48 89 85 60 f4 ff ff 	mov    %rax,-0xba0(%rbp)
    96e5:	48 8d 05 34 bf 00 00 	lea    0xbf34(%rip),%rax        # 15620 <g_272>
    96ec:	48 89 85 68 f4 ff ff 	mov    %rax,-0xb98(%rbp)
    96f3:	48 8d 85 50 f0 ff ff 	lea    -0xfb0(%rbp),%rax
    96fa:	48 89 85 70 f4 ff ff 	mov    %rax,-0xb90(%rbp)
    9701:	48 8d 85 50 f0 ff ff 	lea    -0xfb0(%rbp),%rax
    9708:	48 89 85 78 f4 ff ff 	mov    %rax,-0xb88(%rbp)
    970f:	48 c7 85 80 f4 ff ff 	movq   $0x0,-0xb80(%rbp)
    9716:	00 00 00 00 
    971a:	48 8d 05 41 bf 00 00 	lea    0xbf41(%rip),%rax        # 15662 <g_272+0x42>
    9721:	48 89 85 88 f4 ff ff 	mov    %rax,-0xb78(%rbp)
    9728:	48 8d 05 1d bf 00 00 	lea    0xbf1d(%rip),%rax        # 1564c <g_272+0x2c>
    972f:	48 89 85 90 f4 ff ff 	mov    %rax,-0xb70(%rbp)
    9736:	48 c7 85 98 f4 ff ff 	movq   $0x0,-0xb68(%rbp)
    973d:	00 00 00 00 
    9741:	48 8d 05 04 bf 00 00 	lea    0xbf04(%rip),%rax        # 1564c <g_272+0x2c>
    9748:	48 89 85 a0 f4 ff ff 	mov    %rax,-0xb60(%rbp)
    974f:	c7 85 78 ee ff ff 7e 	movl   $0x1c8ab67e,-0x1188(%rbp)
    9756:	b6 8a 1c 
    9759:	c6 85 ed ed ff ff b6 	movb   $0xb6,-0x1213(%rbp)
    9760:	c7 85 40 ee ff ff 00 	movl   $0x0,-0x11c0(%rbp)
    9767:	00 00 00 
    976a:	eb 1a                	jmp    9786 <func_1+0x1fd1>
    976c:	8b 85 40 ee ff ff    	mov    -0x11c0(%rbp),%eax
    9772:	48 98                	cltq   
    9774:	c7 84 85 80 f1 ff ff 	movl   $0x0,-0xe80(%rbp,%rax,4)
    977b:	00 00 00 00 
    977f:	83 85 40 ee ff ff 01 	addl   $0x1,-0x11c0(%rbp)
    9786:	83 bd 40 ee ff ff 02 	cmpl   $0x2,-0x11c0(%rbp)
    978d:	7e dd                	jle    976c <func_1+0x1fb7>
    978f:	8b 85 5c ee ff ff    	mov    -0x11a4(%rbp),%eax
    9795:	48 63 d0             	movslq %eax,%rdx
    9798:	48 89 d0             	mov    %rdx,%rax
    979b:	48 c1 e0 02          	shl    $0x2,%rax
    979f:	48 01 d0             	add    %rdx,%rax
    97a2:	48 c1 e0 02          	shl    $0x2,%rax
    97a6:	48 01 d0             	add    %rdx,%rax
    97a9:	48 01 c0             	add    %rax,%rax
    97ac:	48 01 c2             	add    %rax,%rdx
    97af:	48 8d 05 0a c7 00 00 	lea    0xc70a(%rip),%rax        # 15ec0 <g_1177>
    97b6:	0f b6 04 02          	movzbl (%rdx,%rax,1),%eax
    97ba:	0f b6 c0             	movzbl %al,%eax
    97bd:	89 85 dc ed ff ff    	mov    %eax,-0x1224(%rbp)
    97c3:	8b 85 f4 f4 ff ff    	mov    -0xb0c(%rbp),%eax
    97c9:	0f b6 d8             	movzbl %al,%ebx
    97cc:	44 0f be a5 ed ed ff 	movsbl -0x1213(%rbp),%r12d
    97d3:	ff 
    97d4:	0f b7 05 1d 8b 00 00 	movzwl 0x8b1d(%rip),%eax        # 122f8 <l_1908.4282+0x198>
    97db:	0f b7 c0             	movzwl %ax,%eax
    97de:	89 85 d8 ed ff ff    	mov    %eax,-0x1228(%rbp)
    97e4:	66 0f be 85 ed ed ff 	movsbw -0x1213(%rbp),%ax
    97eb:	ff 
    97ec:	44 0f b7 e8          	movzwl %ax,%r13d
    97f0:	48 8b 85 e8 ee ff ff 	mov    -0x1118(%rbp),%rax
    97f7:	48 8b 00             	mov    (%rax),%rax
    97fa:	8b 00                	mov    (%rax),%eax
    97fc:	89 85 d4 ed ff ff    	mov    %eax,-0x122c(%rbp)
    9802:	48 8b 85 70 ef ff ff 	mov    -0x1090(%rbp),%rax
    9809:	48 8b 00             	mov    (%rax),%rax
    980c:	8b 00                	mov    (%rax),%eax
    980e:	44 0f b7 f0          	movzwl %ax,%r14d
    9812:	8b 85 5c ee ff ff    	mov    -0x11a4(%rbp),%eax
    9818:	48 63 d0             	movslq %eax,%rdx
    981b:	48 89 d0             	mov    %rdx,%rax
    981e:	48 c1 e0 02          	shl    $0x2,%rax
    9822:	48 01 d0             	add    %rdx,%rax
    9825:	48 c1 e0 02          	shl    $0x2,%rax
    9829:	48 01 d0             	add    %rdx,%rax
    982c:	48 01 c0             	add    %rax,%rax
    982f:	48 01 c2             	add    %rax,%rdx
    9832:	48 8d 05 87 c6 00 00 	lea    0xc687(%rip),%rax        # 15ec0 <g_1177>
    9839:	0f b6 04 02          	movzbl (%rdx,%rax,1),%eax
    983d:	44 0f b6 f8          	movzbl %al,%r15d
    9841:	48 8b 05 f0 f1 00 00 	mov    0xf1f0(%rip),%rax        # 18a38 <g_312>
    9848:	48 8b 00             	mov    (%rax),%rax
    984b:	48 8b 00             	mov    (%rax),%rax
    984e:	48 89 85 c8 ed ff ff 	mov    %rax,-0x1238(%rbp)
    9855:	48 8b 85 00 f4 ff ff 	mov    -0xc00(%rbp),%rax
    985c:	48 85 c0             	test   %rax,%rax
    985f:	0f 95 c0             	setne  %al
    9862:	0f b6 d0             	movzbl %al,%edx
    9865:	48 8b 05 cc f1 00 00 	mov    0xf1cc(%rip),%rax        # 18a38 <g_312>
    986c:	48 8b 00             	mov    (%rax),%rax
    986f:	48 8b 00             	mov    (%rax),%rax
    9872:	48 89 d6             	mov    %rdx,%rsi
    9875:	48 89 c7             	mov    %rax,%rdi
    9878:	e8 c4 cf ff ff       	callq  6841 <safe_add_func_int64_t_s_s>
    987d:	48 8b b5 c8 ed ff ff 	mov    -0x1238(%rbp),%rsi
    9884:	48 89 c7             	mov    %rax,%rdi
    9887:	e8 6b d1 ff ff       	callq  69f7 <safe_div_func_int64_t_s_s>
    988c:	48 8b 85 e8 ee ff ff 	mov    -0x1118(%rbp),%rax
    9893:	48 8b 00             	mov    (%rax),%rax
    9896:	8b 00                	mov    (%rax),%eax
    9898:	48 98                	cltq   
    989a:	48 ba e8 26 d2 53 c7 	movabs $0xfaee95c753d226e8,%rdx
    98a1:	95 ee fa 
    98a4:	48 21 d0             	and    %rdx,%rax
    98a7:	48 3d 6d 78 00 00    	cmp    $0x786d,%rax
    98ad:	77 07                	ja     98b6 <func_1+0x2101>
    98af:	b8 91 38 00 00       	mov    $0x3891,%eax
    98b4:	eb 05                	jmp    98bb <func_1+0x2106>
    98b6:	b8 90 38 00 00       	mov    $0x3890,%eax
    98bb:	89 85 78 ee ff ff    	mov    %eax,-0x1188(%rbp)
    98c1:	8b 85 78 ee ff ff    	mov    -0x1188(%rbp),%eax
    98c7:	44 89 fe             	mov    %r15d,%esi
    98ca:	89 c7                	mov    %eax,%edi
    98cc:	e8 2c d6 ff ff       	callq  6efd <safe_mod_func_uint32_t_u_u>
    98d1:	48 8b 85 70 ef ff ff 	mov    -0x1090(%rbp),%rax
    98d8:	48 8b 00             	mov    (%rax),%rax
    98db:	8b 10                	mov    (%rax),%edx
    98dd:	48 8b 05 dc ef 00 00 	mov    0xefdc(%rip),%rax        # 188c0 <g_171>
    98e4:	66 89 10             	mov    %dx,(%rax)
    98e7:	0f b7 00             	movzwl (%rax),%eax
    98ea:	0f bf c8             	movswl %ax,%ecx
    98ed:	8b 85 5c ee ff ff    	mov    -0x11a4(%rbp),%eax
    98f3:	48 63 d0             	movslq %eax,%rdx
    98f6:	48 89 d0             	mov    %rdx,%rax
    98f9:	48 c1 e0 02          	shl    $0x2,%rax
    98fd:	48 01 d0             	add    %rdx,%rax
    9900:	48 c1 e0 02          	shl    $0x2,%rax
    9904:	48 01 d0             	add    %rdx,%rax
    9907:	48 01 c0             	add    %rax,%rax
    990a:	48 01 c2             	add    %rax,%rdx
    990d:	48 8d 05 ac c5 00 00 	lea    0xc5ac(%rip),%rax        # 15ec0 <g_1177>
    9914:	0f b6 04 02          	movzbl (%rdx,%rax,1),%eax
    9918:	0f b6 c0             	movzbl %al,%eax
    991b:	21 c8                	and    %ecx,%eax
    991d:	3d 7b 9d 7f 00       	cmp    $0x7f9d7b,%eax
    9922:	0f 9f c0             	setg   %al
    9925:	0f b6 d0             	movzbl %al,%edx
    9928:	0f b6 45 bd          	movzbl -0x43(%rbp),%eax
    992c:	0f b6 c0             	movzbl %al,%eax
    992f:	39 c2                	cmp    %eax,%edx
    9931:	0f 9f c0             	setg   %al
    9934:	0f b6 c0             	movzbl %al,%eax
    9937:	44 89 f6             	mov    %r14d,%esi
    993a:	89 c7                	mov    %eax,%edi
    993c:	e8 be d3 ff ff       	callq  6cff <safe_add_func_uint16_t_u_u>
    9941:	8b 85 c4 f0 ff ff    	mov    -0xf3c(%rbp),%eax
    9947:	89 c2                	mov    %eax,%edx
    9949:	48 8b 85 70 ef ff ff 	mov    -0x1090(%rbp),%rax
    9950:	48 8b 00             	mov    (%rax),%rax
    9953:	8b 00                	mov    (%rax),%eax
    9955:	21 d0                	and    %edx,%eax
    9957:	0f b6 c0             	movzbl %al,%eax
    995a:	8b b5 d4 ed ff ff    	mov    -0x122c(%rbp),%esi
    9960:	89 c7                	mov    %eax,%edi
    9962:	e8 e5 d2 ff ff       	callq  6c4c <safe_lshift_func_uint8_t_u_u>
    9967:	0f b6 d0             	movzbl %al,%edx
    996a:	48 8b 05 0f f1 00 00 	mov    0xf10f(%rip),%rax        # 18a80 <g_597>
    9971:	48 8b 00             	mov    (%rax),%rax
    9974:	8b 00                	mov    (%rax),%eax
    9976:	39 c2                	cmp    %eax,%edx
    9978:	0f 9c c0             	setl   %al
    997b:	0f b6 d0             	movzbl %al,%edx
    997e:	48 8b 85 70 ef ff ff 	mov    -0x1090(%rbp),%rax
    9985:	48 8b 00             	mov    (%rax),%rax
    9988:	8b 00                	mov    (%rax),%eax
    998a:	39 c2                	cmp    %eax,%edx
    998c:	0f 94 c0             	sete   %al
    998f:	0f b6 c0             	movzbl %al,%eax
    9992:	44 89 ee             	mov    %r13d,%esi
    9995:	89 c7                	mov    %eax,%edi
    9997:	e8 f2 d3 ff ff       	callq  6d8e <safe_div_func_uint16_t_u_u>
    999c:	0f b7 d0             	movzwl %ax,%edx
    999f:	48 8b 85 e8 ee ff ff 	mov    -0x1118(%rbp),%rax
    99a6:	48 8b 00             	mov    (%rax),%rax
    99a9:	8b 00                	mov    (%rax),%eax
    99ab:	39 c2                	cmp    %eax,%edx
    99ad:	0f 9f c0             	setg   %al
    99b0:	0f b6 c0             	movzbl %al,%eax
    99b3:	39 85 d8 ed ff ff    	cmp    %eax,-0x1228(%rbp)
    99b9:	74 0e                	je     99c9 <func_1+0x2214>
    99bb:	48 8b 05 96 f0 00 00 	mov    0xf096(%rip),%rax        # 18a58 <g_490>
    99c2:	0f b6 00             	movzbl (%rax),%eax
    99c5:	84 c0                	test   %al,%al
    99c7:	74 07                	je     99d0 <func_1+0x221b>
    99c9:	b8 01 00 00 00       	mov    $0x1,%eax
    99ce:	eb 05                	jmp    99d5 <func_1+0x2220>
    99d0:	b8 00 00 00 00       	mov    $0x0,%eax
    99d5:	0f be c0             	movsbl %al,%eax
    99d8:	44 89 e6             	mov    %r12d,%esi
    99db:	89 c7                	mov    %eax,%edi
    99dd:	e8 30 c8 ff ff       	callq  6212 <safe_mul_func_int8_t_s_s>
    99e2:	0f be d0             	movsbl %al,%edx
    99e5:	48 8b 85 70 ef ff ff 	mov    -0x1090(%rbp),%rax
    99ec:	48 8b 00             	mov    (%rax),%rax
    99ef:	8b 00                	mov    (%rax),%eax
    99f1:	39 c2                	cmp    %eax,%edx
    99f3:	0f 9c c0             	setl   %al
    99f6:	0f b6 d0             	movzbl %al,%edx
    99f9:	0f be 85 ed ed ff ff 	movsbl -0x1213(%rbp),%eax
    9a00:	39 c2                	cmp    %eax,%edx
    9a02:	0f 94 c0             	sete   %al
    9a05:	0f b6 c0             	movzbl %al,%eax
    9a08:	89 de                	mov    %ebx,%esi
    9a0a:	89 c7                	mov    %eax,%edi
    9a0c:	e8 9d d1 ff ff       	callq  6bae <safe_mod_func_uint8_t_u_u>
    9a11:	0f b6 d0             	movzbl %al,%edx
    9a14:	48 8b 05 65 f0 00 00 	mov    0xf065(%rip),%rax        # 18a80 <g_597>
    9a1b:	48 8b 00             	mov    (%rax),%rax
    9a1e:	8b 00                	mov    (%rax),%eax
    9a20:	39 c2                	cmp    %eax,%edx
    9a22:	0f 9c c0             	setl   %al
    9a25:	0f b6 c0             	movzbl %al,%eax
    9a28:	39 85 dc ed ff ff    	cmp    %eax,-0x1224(%rbp)
    9a2e:	0f 95 c0             	setne  %al
    9a31:	0f b6 c0             	movzbl %al,%eax
    9a34:	89 85 80 f1 ff ff    	mov    %eax,-0xe80(%rbp)
    9a3a:	48 8b 85 e8 ee ff ff 	mov    -0x1118(%rbp),%rax
    9a41:	48 8b 00             	mov    (%rax),%rax
    9a44:	8b 00                	mov    (%rax),%eax
    9a46:	0f b6 d8             	movzbl %al,%ebx
    9a49:	48 8b 05 30 f0 00 00 	mov    0xf030(%rip),%rax        # 18a80 <g_597>
    9a50:	48 8b 00             	mov    (%rax),%rax
    9a53:	8b 00                	mov    (%rax),%eax
    9a55:	48 98                	cltq   
    9a57:	83 e0 fc             	and    $0xfffffffc,%eax
    9a5a:	49 89 c4             	mov    %rax,%r12
    9a5d:	48 8b 85 70 ef ff ff 	mov    -0x1090(%rbp),%rax
    9a64:	48 8b 00             	mov    (%rax),%rax
    9a67:	8b 00                	mov    (%rax),%eax
    9a69:	89 c2                	mov    %eax,%edx
    9a6b:	48 8b 85 70 ef ff ff 	mov    -0x1090(%rbp),%rax
    9a72:	48 8b 00             	mov    (%rax),%rax
    9a75:	8b 00                	mov    (%rax),%eax
    9a77:	85 c0                	test   %eax,%eax
    9a79:	b8 01 00 00 00       	mov    $0x1,%eax
    9a7e:	0f b7 c0             	movzwl %ax,%eax
    9a81:	89 d6                	mov    %edx,%esi
    9a83:	89 c7                	mov    %eax,%edi
    9a85:	e8 f0 d3 ff ff       	callq  6e7a <safe_rshift_func_uint16_t_u_u>
    9a8a:	0f b7 c0             	movzwl %ax,%eax
    9a8d:	49 39 c4             	cmp    %rax,%r12
    9a90:	0f 93 c0             	setae  %al
    9a93:	0f b6 c0             	movzbl %al,%eax
    9a96:	89 c6                	mov    %eax,%esi
    9a98:	bf 01 00 00 00       	mov    $0x1,%edi
    9a9d:	e8 32 c7 ff ff       	callq  61d4 <safe_add_func_int8_t_s_s>
    9aa2:	89 c2                	mov    %eax,%edx
    9aa4:	48 8b 05 a5 ef 00 00 	mov    0xefa5(%rip),%rax        # 18a50 <g_488>
    9aab:	48 8b 00             	mov    (%rax),%rax
    9aae:	0f b6 08             	movzbl (%rax),%ecx
    9ab1:	48 8b 05 98 ef 00 00 	mov    0xef98(%rip),%rax        # 18a50 <g_488>
    9ab8:	48 8b 00             	mov    (%rax),%rax
    9abb:	31 ca                	xor    %ecx,%edx
    9abd:	88 10                	mov    %dl,(%rax)
    9abf:	0f b6 00             	movzbl (%rax),%eax
    9ac2:	83 c8 01             	or     $0x1,%eax
    9ac5:	89 c2                	mov    %eax,%edx
    9ac7:	48 8b 05 f2 ed 00 00 	mov    0xedf2(%rip),%rax        # 188c0 <g_171>
    9ace:	66 0f be d2          	movsbw %dl,%dx
    9ad2:	66 89 10             	mov    %dx,(%rax)
    9ad5:	0f b7 00             	movzwl (%rax),%eax
    9ad8:	0f bf d0             	movswl %ax,%edx
    9adb:	48 8b 05 fe f1 00 00 	mov    0xf1fe(%rip),%rax        # 18ce0 <g_1806>
    9ae2:	48 8b 00             	mov    (%rax),%rax
    9ae5:	0f b7 00             	movzwl (%rax),%eax
    9ae8:	0f b7 c0             	movzwl %ax,%eax
    9aeb:	39 c2                	cmp    %eax,%edx
    9aed:	0f 94 c0             	sete   %al
    9af0:	0f b6 c0             	movzbl %al,%eax
    9af3:	89 de                	mov    %ebx,%esi
    9af5:	89 c7                	mov    %eax,%edi
    9af7:	e8 5e d0 ff ff       	callq  6b5a <safe_add_func_uint8_t_u_u>
    9afc:	0f b6 d8             	movzbl %al,%ebx
    9aff:	48 8b 05 fa f0 00 00 	mov    0xf0fa(%rip),%rax        # 18c00 <g_1125>
    9b06:	48 8b 00             	mov    (%rax),%rax
    9b09:	8b 15 f3 cb 00 00    	mov    0xcbf3(%rip),%edx        # 16702 <g_1765+0x2>
    9b0f:	89 d2                	mov    %edx,%edx
    9b11:	48 39 d0             	cmp    %rdx,%rax
    9b14:	0f 94 c0             	sete   %al
    9b17:	0f b6 c0             	movzbl %al,%eax
    9b1a:	be c9 cc 00 00       	mov    $0xccc9,%esi
    9b1f:	89 c7                	mov    %eax,%edi
    9b21:	e8 f9 d1 ff ff       	callq  6d1f <safe_sub_func_uint16_t_u_u>
    9b26:	89 c1                	mov    %eax,%ecx
    9b28:	8b 85 18 ee ff ff    	mov    -0x11e8(%rbp),%eax
    9b2e:	48 63 d0             	movslq %eax,%rdx
    9b31:	48 89 d0             	mov    %rdx,%rax
    9b34:	48 c1 e0 02          	shl    $0x2,%rax
    9b38:	48 01 d0             	add    %rdx,%rax
    9b3b:	48 c1 e0 02          	shl    $0x2,%rax
    9b3f:	48 01 d0             	add    %rdx,%rax
    9b42:	48 01 c0             	add    %rax,%rax
    9b45:	48 01 c2             	add    %rax,%rdx
    9b48:	48 8d 05 71 c3 00 00 	lea    0xc371(%rip),%rax        # 15ec0 <g_1177>
    9b4f:	88 0c 02             	mov    %cl,(%rdx,%rax,1)
    9b52:	8b 85 18 ee ff ff    	mov    -0x11e8(%rbp),%eax
    9b58:	48 63 d0             	movslq %eax,%rdx
    9b5b:	48 89 d0             	mov    %rdx,%rax
    9b5e:	48 c1 e0 02          	shl    $0x2,%rax
    9b62:	48 01 d0             	add    %rdx,%rax
    9b65:	48 c1 e0 02          	shl    $0x2,%rax
    9b69:	48 01 d0             	add    %rdx,%rax
    9b6c:	48 01 c0             	add    %rax,%rax
    9b6f:	48 01 c2             	add    %rax,%rdx
    9b72:	48 8d 05 47 c3 00 00 	lea    0xc347(%rip),%rax        # 15ec0 <g_1177>
    9b79:	0f b6 04 02          	movzbl (%rdx,%rax,1),%eax
    9b7d:	0f b6 c0             	movzbl %al,%eax
    9b80:	89 de                	mov    %ebx,%esi
    9b82:	89 c7                	mov    %eax,%edi
    9b84:	e8 ef cf ff ff       	callq  6b78 <safe_sub_func_uint8_t_u_u>
    9b89:	0f b6 c0             	movzbl %al,%eax
    9b8c:	25 74 d4 3e fb       	and    $0xfb3ed474,%eax
    9b91:	48 83 f8 f7          	cmp    $0xfffffffffffffff7,%rax
    9b95:	0f 94 c2             	sete   %dl
    9b98:	48 8b 05 a9 ee 00 00 	mov    0xeea9(%rip),%rax        # 18a48 <g_389>
    9b9f:	0f b6 d2             	movzbl %dl,%edx
    9ba2:	89 10                	mov    %edx,(%rax)
    9ba4:	48 8b 85 70 ef ff ff 	mov    -0x1090(%rbp),%rax
    9bab:	48 8b 00             	mov    (%rax),%rax
    9bae:	8b 00                	mov    (%rax),%eax
    9bb0:	e9 ce 00 00 00       	jmpq   9c83 <func_1+0x24ce>
    9bb5:	90                   	nop
    9bb6:	8b 05 08 b6 00 00    	mov    0xb608(%rip),%eax        # 151c4 <g_208>
    9bbc:	83 e8 01             	sub    $0x1,%eax
    9bbf:	89 05 ff b5 00 00    	mov    %eax,0xb5ff(%rip)        # 151c4 <g_208>
    9bc5:	8b 05 f9 b5 00 00    	mov    0xb5f9(%rip),%eax        # 151c4 <g_208>
    9bcb:	83 f8 01             	cmp    $0x1,%eax
    9bce:	0f 8f 4f e5 ff ff    	jg     8123 <func_1+0x96e>
    9bd4:	48 8b 15 55 f0 00 00 	mov    0xf055(%rip),%rdx        # 18c30 <g_1506>
    9bdb:	48 8b 05 4e f0 00 00 	mov    0xf04e(%rip),%rax        # 18c30 <g_1506>
    9be2:	48 8b 12             	mov    (%rdx),%rdx
    9be5:	48 89 10             	mov    %rdx,(%rax)
    9be8:	48 8b 85 50 f0 ff ff 	mov    -0xfb0(%rbp),%rax
    9bef:	48 85 c0             	test   %rax,%rax
    9bf2:	74 05                	je     9bf9 <func_1+0x2444>
    9bf4:	e9 4e e1 ff ff       	jmpq   7d47 <func_1+0x592>
    9bf9:	48 8b 85 e8 ee ff ff 	mov    -0x1118(%rbp),%rax
    9c00:	48 8b 00             	mov    (%rax),%rax
    9c03:	8b 00                	mov    (%rax),%eax
    9c05:	85 c0                	test   %eax,%eax
    9c07:	75 56                	jne    9c5f <func_1+0x24aa>
    9c09:	c6 05 88 c3 00 00 00 	movb   $0x0,0xc388(%rip)        # 15f98 <g_1178>
    9c10:	90                   	nop
    9c11:	0f b6 05 80 c3 00 00 	movzbl 0xc380(%rip),%eax        # 15f98 <g_1178>
    9c18:	3c 01                	cmp    $0x1,%al
    9c1a:	77 47                	ja     9c63 <func_1+0x24ae>
    9c1c:	c7 85 70 ee ff ff 03 	movl   $0x3,-0x1190(%rbp)
    9c23:	00 00 00 
    9c26:	83 bd 70 ee ff ff 00 	cmpl   $0x0,-0x1190(%rbp)
    9c2d:	75 33                	jne    9c62 <func_1+0x24ad>
    9c2f:	c6 85 e8 ed ff ff 00 	movb   $0x0,-0x1218(%rbp)
    9c36:	eb 10                	jmp    9c48 <func_1+0x2493>
    9c38:	83 bd 70 ee ff ff 00 	cmpl   $0x0,-0x1190(%rbp)
    9c3f:	75 12                	jne    9c53 <func_1+0x249e>
    9c41:	80 85 e8 ed ff ff 01 	addb   $0x1,-0x1218(%rbp)
    9c48:	80 bd e8 ed ff ff 01 	cmpb   $0x1,-0x1218(%rbp)
    9c4f:	76 e7                	jbe    9c38 <func_1+0x2483>
    9c51:	eb 01                	jmp    9c54 <func_1+0x249f>
    9c53:	90                   	nop
    9c54:	48 8b 05 ed ed 00 00 	mov    0xeded(%rip),%rax        # 18a48 <g_389>
    9c5b:	8b 00                	mov    (%rax),%eax
    9c5d:	eb 24                	jmp    9c83 <func_1+0x24ce>
    9c5f:	90                   	nop
    9c60:	eb 01                	jmp    9c63 <func_1+0x24ae>
    9c62:	90                   	nop
    9c63:	83 ad 18 ee ff ff 01 	subl   $0x1,-0x11e8(%rbp)
    9c6a:	83 bd 18 ee ff ff 00 	cmpl   $0x0,-0x11e8(%rbp)
    9c71:	0f 89 e2 e3 ff ff    	jns    8059 <func_1+0x8a4>
    9c77:	48 8b 85 e8 ee ff ff 	mov    -0x1118(%rbp),%rax
    9c7e:	48 8b 00             	mov    (%rax),%rax
    9c81:	8b 00                	mov    (%rax),%eax
    9c83:	48 8b 5d c8          	mov    -0x38(%rbp),%rbx
    9c87:	64 48 33 1c 25 28 00 	xor    %fs:0x28,%rbx
    9c8e:	00 00 
    9c90:	74 05                	je     9c97 <func_1+0x24e2>
    9c92:	e8 d9 c3 ff ff       	callq  6070 <__stack_chk_fail@plt>
    9c97:	48 81 c4 18 12 00 00 	add    $0x1218,%rsp
    9c9e:	5b                   	pop    %rbx
    9c9f:	41 5c                	pop    %r12
    9ca1:	41 5d                	pop    %r13
    9ca3:	41 5e                	pop    %r14
    9ca5:	41 5f                	pop    %r15
    9ca7:	5d                   	pop    %rbp
    9ca8:	c3                   	retq   

0000000000009ca9 <func_7>:
    9ca9:	f3 0f 1e fa          	endbr64 
    9cad:	55                   	push   %rbp
    9cae:	48 89 e5             	mov    %rsp,%rbp
    9cb1:	48 83 ec 40          	sub    $0x40,%rsp
    9cb5:	89 f9                	mov    %edi,%ecx
    9cb7:	89 f0                	mov    %esi,%eax
    9cb9:	89 55 c4             	mov    %edx,-0x3c(%rbp)
    9cbc:	89 ca                	mov    %ecx,%edx
    9cbe:	88 55 cc             	mov    %dl,-0x34(%rbp)
    9cc1:	66 89 45 c8          	mov    %ax,-0x38(%rbp)
    9cc5:	64 48 8b 04 25 28 00 	mov    %fs:0x28,%rax
    9ccc:	00 00 
    9cce:	48 89 45 f8          	mov    %rax,-0x8(%rbp)
    9cd2:	31 c0                	xor    %eax,%eax
    9cd4:	c7 45 d8 00 00 00 00 	movl   $0x0,-0x28(%rbp)
    9cdb:	eb 31                	jmp    9d0e <func_7+0x65>
    9cdd:	c7 45 dc 00 00 00 00 	movl   $0x0,-0x24(%rbp)
    9ce4:	eb 1e                	jmp    9d04 <func_7+0x5b>
    9ce6:	8b 45 dc             	mov    -0x24(%rbp),%eax
    9ce9:	48 63 d0             	movslq %eax,%rdx
    9cec:	8b 45 d8             	mov    -0x28(%rbp),%eax
    9cef:	48 98                	cltq   
    9cf1:	48 01 d0             	add    %rdx,%rax
    9cf4:	48 8d 15 b9 b3 00 00 	lea    0xb3b9(%rip),%rdx        # 150b4 <g_81>
    9cfb:	48 89 54 c5 e0       	mov    %rdx,-0x20(%rbp,%rax,8)
    9d00:	83 45 dc 01          	addl   $0x1,-0x24(%rbp)
    9d04:	83 7d dc 00          	cmpl   $0x0,-0x24(%rbp)
    9d08:	7e dc                	jle    9ce6 <func_7+0x3d>
    9d0a:	83 45 d8 01          	addl   $0x1,-0x28(%rbp)
    9d0e:	83 7d d8 02          	cmpl   $0x2,-0x28(%rbp)
    9d12:	7e c9                	jle    9cdd <func_7+0x34>
    9d14:	48 c7 45 e0 00 00 00 	movq   $0x0,-0x20(%rbp)
    9d1b:	00 
    9d1c:	48 8d 05 21 bc 00 00 	lea    0xbc21(%rip),%rax        # 15944 <g_599>
    9d23:	8b 00                	mov    (%rax),%eax
    9d25:	48 8b 75 f8          	mov    -0x8(%rbp),%rsi
    9d29:	64 48 33 34 25 28 00 	xor    %fs:0x28,%rsi
    9d30:	00 00 
    9d32:	74 05                	je     9d39 <func_7+0x90>
    9d34:	e8 37 c3 ff ff       	callq  6070 <__stack_chk_fail@plt>
    9d39:	c9                   	leaveq 
    9d3a:	c3                   	retq   

0000000000009d3b <func_22>:
    9d3b:	f3 0f 1e fa          	endbr64 
    9d3f:	55                   	push   %rbp
    9d40:	48 89 e5             	mov    %rsp,%rbp
    9d43:	41 56                	push   %r14
    9d45:	41 55                	push   %r13
    9d47:	41 54                	push   %r12
    9d49:	53                   	push   %rbx
    9d4a:	48 81 ec 30 09 00 00 	sub    $0x930,%rsp
    9d51:	89 bd bc f6 ff ff    	mov    %edi,-0x944(%rbp)
    9d57:	89 b5 b8 f6 ff ff    	mov    %esi,-0x948(%rbp)
    9d5d:	64 48 8b 04 25 28 00 	mov    %fs:0x28,%rax
    9d64:	00 00 
    9d66:	48 89 45 d8          	mov    %rax,-0x28(%rbp)
    9d6a:	31 c0                	xor    %eax,%eax
    9d6c:	c7 85 cc f6 ff ff ff 	movl   $0xffffffff,-0x934(%rbp)
    9d73:	ff ff ff 
    9d76:	48 8d 85 d0 f8 ff ff 	lea    -0x730(%rbp),%rax
    9d7d:	48 8d 15 7c d6 00 00 	lea    0xd67c(%rip),%rdx        # 17400 <g_1915+0xab0>
    9d84:	b9 e1 00 00 00       	mov    $0xe1,%ecx
    9d89:	48 89 c7             	mov    %rax,%rdi
    9d8c:	48 89 d6             	mov    %rdx,%rsi
    9d8f:	f3 48 a5             	rep movsq %ds:(%rsi),%es:(%rdi)
    9d92:	c7 85 d0 f6 ff ff d5 	movl   $0x90fba2d5,-0x930(%rbp)
    9d99:	a2 fb 90 
    9d9c:	48 b8 18 6c a0 2e dd 	movabs $0x5079add2ea06c18,%rax
    9da3:	9a 07 05 
    9da6:	48 89 85 f0 f6 ff ff 	mov    %rax,-0x910(%rbp)
    9dad:	c6 85 f8 f6 ff ff 01 	movb   $0x1,-0x908(%rbp)
    9db4:	c6 85 f9 f6 ff ff ff 	movb   $0xff,-0x907(%rbp)
    9dbb:	c7 85 fa f6 ff ff be 	movl   $0x4a3f98be,-0x906(%rbp)
    9dc2:	98 3f 4a 
    9dc5:	48 c7 85 fe f6 ff ff 	movq   $0x0,-0x902(%rbp)
    9dcc:	00 00 00 00 
    9dd0:	48 8d 05 41 ec 00 00 	lea    0xec41(%rip),%rax        # 18a18 <g_308+0x58>
    9dd7:	48 89 85 d8 f6 ff ff 	mov    %rax,-0x928(%rbp)
    9dde:	48 8d 85 40 f7 ff ff 	lea    -0x8c0(%rbp),%rax
    9de5:	48 8d 15 74 77 00 00 	lea    0x7774(%rip),%rdx        # 11560 <g_1649+0x4e8>
    9dec:	b9 32 00 00 00       	mov    $0x32,%ecx
    9df1:	48 89 c7             	mov    %rax,%rdi
    9df4:	48 89 d6             	mov    %rdx,%rsi
    9df7:	f3 48 a5             	rep movsq %ds:(%rsi),%es:(%rdi)
    9dfa:	48 c7 85 e0 f6 ff ff 	movq   $0x0,-0x920(%rbp)
    9e01:	00 00 00 00 
    9e05:	48 8d 05 a8 b2 00 00 	lea    0xb2a8(%rip),%rax        # 150b4 <g_81>
    9e0c:	48 89 85 e8 f6 ff ff 	mov    %rax,-0x918(%rbp)
    9e13:	66 c7 85 c6 f6 ff ff 	movw   $0x1fec,-0x93a(%rbp)
    9e1a:	ec 1f 
    9e1c:	c7 85 d4 f6 ff ff 12 	movl   $0x9a3e3812,-0x92c(%rbp)
    9e23:	38 3e 9a 
    9e26:	c7 85 c8 f6 ff ff 00 	movl   $0x0,-0x938(%rbp)
    9e2d:	00 00 00 
    9e30:	eb 1b                	jmp    9e4d <func_22+0x112>
    9e32:	8b 85 c8 f6 ff ff    	mov    -0x938(%rbp),%eax
    9e38:	48 98                	cltq   
    9e3a:	48 c7 84 c5 20 f7 ff 	movq   $0x0,-0x8e0(%rbp,%rax,8)
    9e41:	ff 00 00 00 00 
    9e46:	83 85 c8 f6 ff ff 01 	addl   $0x1,-0x938(%rbp)
    9e4d:	83 bd c8 f6 ff ff 02 	cmpl   $0x2,-0x938(%rbp)
    9e54:	7e dc                	jle    9e32 <func_22+0xf7>
    9e56:	c7 85 c8 f6 ff ff 00 	movl   $0x0,-0x938(%rbp)
    9e5d:	00 00 00 
    9e60:	eb 1e                	jmp    9e80 <func_22+0x145>
    9e62:	8b 85 c8 f6 ff ff    	mov    -0x938(%rbp),%eax
    9e68:	48 98                	cltq   
    9e6a:	48 8d 15 35 b6 00 00 	lea    0xb635(%rip),%rdx        # 154a6 <g_223+0x2a6>
    9e71:	48 89 94 c5 18 f7 ff 	mov    %rdx,-0x8e8(%rbp,%rax,8)
    9e78:	ff 
    9e79:	83 85 c8 f6 ff ff 01 	addl   $0x1,-0x938(%rbp)
    9e80:	83 bd c8 f6 ff ff 00 	cmpl   $0x0,-0x938(%rbp)
    9e87:	7e d9                	jle    9e62 <func_22+0x127>
    9e89:	c7 85 c8 f6 ff ff 00 	movl   $0x0,-0x938(%rbp)
    9e90:	00 00 00 
    9e93:	eb 1a                	jmp    9eaf <func_22+0x174>
    9e95:	8b 85 c8 f6 ff ff    	mov    -0x938(%rbp),%eax
    9e9b:	48 98                	cltq   
    9e9d:	c7 84 85 14 f7 ff ff 	movl   $0xe1f966d9,-0x8ec(%rbp,%rax,4)
    9ea4:	d9 66 f9 e1 
    9ea8:	83 85 c8 f6 ff ff 01 	addl   $0x1,-0x938(%rbp)
    9eaf:	83 bd c8 f6 ff ff 00 	cmpl   $0x0,-0x938(%rbp)
    9eb6:	7e dd                	jle    9e95 <func_22+0x15a>
    9eb8:	48 8b 05 79 eb 00 00 	mov    0xeb79(%rip),%rax        # 18a38 <g_312>
    9ebf:	48 8b 00             	mov    (%rax),%rax
    9ec2:	48 8b 08             	mov    (%rax),%rcx
    9ec5:	8b 85 bc f6 ff ff    	mov    -0x944(%rbp),%eax
    9ecb:	48 63 d0             	movslq %eax,%rdx
    9ece:	48 8b 05 63 eb 00 00 	mov    0xeb63(%rip),%rax        # 18a38 <g_312>
    9ed5:	48 8b 00             	mov    (%rax),%rax
    9ed8:	48 09 ca             	or     %rcx,%rdx
    9edb:	48 89 10             	mov    %rdx,(%rax)
    9ede:	8b 9d b8 f6 ff ff    	mov    -0x948(%rbp),%ebx
    9ee4:	48 8b 85 30 f7 ff ff 	mov    -0x8d0(%rbp),%rax
    9eeb:	48 85 c0             	test   %rax,%rax
    9eee:	0f 95 c0             	setne  %al
    9ef1:	0f b6 d0             	movzbl %al,%edx
    9ef4:	8b 85 d0 f6 ff ff    	mov    -0x930(%rbp),%eax
    9efa:	89 d6                	mov    %edx,%esi
    9efc:	89 c7                	mov    %eax,%edi
    9efe:	e8 b5 cf ff ff       	callq  6eb8 <safe_add_func_uint32_t_u_u>
    9f03:	89 c2                	mov    %eax,%edx
    9f05:	48 8b 05 44 eb 00 00 	mov    0xeb44(%rip),%rax        # 18a50 <g_488>
    9f0c:	48 8b 00             	mov    (%rax),%rax
    9f0f:	0f b6 00             	movzbl (%rax),%eax
    9f12:	89 c1                	mov    %eax,%ecx
    9f14:	89 d0                	mov    %edx,%eax
    9f16:	31 c1                	xor    %eax,%ecx
    9f18:	89 ca                	mov    %ecx,%edx
    9f1a:	48 8b 05 2f eb 00 00 	mov    0xeb2f(%rip),%rax        # 18a50 <g_488>
    9f21:	48 8b 00             	mov    (%rax),%rax
    9f24:	88 10                	mov    %dl,(%rax)
    9f26:	48 8b 05 93 e9 00 00 	mov    0xe993(%rip),%rax        # 188c0 <g_171>
    9f2d:	0f b7 00             	movzwl (%rax),%eax
    9f30:	98                   	cwtl   
    9f31:	23 85 d0 f6 ff ff    	and    -0x930(%rbp),%eax
    9f37:	85 c0                	test   %eax,%eax
    9f39:	75 0f                	jne    9f4a <func_22+0x20f>
    9f3b:	48 8b 05 ee ea 00 00 	mov    0xeaee(%rip),%rax        # 18a30 <g_313>
    9f42:	48 8b 00             	mov    (%rax),%rax
    9f45:	48 85 c0             	test   %rax,%rax
    9f48:	74 07                	je     9f51 <func_22+0x216>
    9f4a:	b8 01 00 00 00       	mov    $0x1,%eax
    9f4f:	eb 05                	jmp    9f56 <func_22+0x21b>
    9f51:	b8 00 00 00 00       	mov    $0x0,%eax
    9f56:	39 85 b8 f6 ff ff    	cmp    %eax,-0x948(%rbp)
    9f5c:	0f 92 c0             	setb   %al
    9f5f:	0f b6 c0             	movzbl %al,%eax
    9f62:	be 03 00 00 00       	mov    $0x3,%esi
    9f67:	89 c7                	mov    %eax,%edi
    9f69:	e8 ec cb ff ff       	callq  6b5a <safe_add_func_uint8_t_u_u>
    9f6e:	0f b6 c0             	movzbl %al,%eax
    9f71:	89 de                	mov    %ebx,%esi
    9f73:	89 c7                	mov    %eax,%edi
    9f75:	e8 8b c6 ff ff       	callq  6605 <safe_sub_func_int32_t_s_s>
    9f7a:	39 85 d0 f6 ff ff    	cmp    %eax,-0x930(%rbp)
    9f80:	0f 9d c0             	setge  %al
    9f83:	0f b6 d0             	movzbl %al,%edx
    9f86:	48 8b 05 d5 b6 00 00 	mov    0xb6d5(%rip),%rax        # 15662 <g_272+0x42>
    9f8d:	48 8d 48 ff          	lea    -0x1(%rax),%rcx
    9f91:	48 89 0d ca b6 00 00 	mov    %rcx,0xb6ca(%rip)        # 15662 <g_272+0x42>
    9f98:	8b 8d d0 f6 ff ff    	mov    -0x930(%rbp),%ecx
    9f9e:	48 63 c9             	movslq %ecx,%rcx
    9fa1:	48 39 c8             	cmp    %rcx,%rax
    9fa4:	0f 92 c0             	setb   %al
    9fa7:	0f b6 c0             	movzbl %al,%eax
    9faa:	89 d6                	mov    %edx,%esi
    9fac:	89 c7                	mov    %eax,%edi
    9fae:	e8 c7 ce ff ff       	callq  6e7a <safe_rshift_func_uint16_t_u_u>
    9fb3:	48 8b 05 76 f1 00 00 	mov    0xf176(%rip),%rax        # 19130 <g_336>
    9fba:	8b 10                	mov    (%rax),%edx
    9fbc:	83 c2 01             	add    $0x1,%edx
    9fbf:	89 10                	mov    %edx,(%rax)
    9fc1:	8b 00                	mov    (%rax),%eax
    9fc3:	89 85 cc f6 ff ff    	mov    %eax,-0x934(%rbp)
    9fc9:	83 bd cc f6 ff ff 00 	cmpl   $0x0,-0x934(%rbp)
    9fd0:	74 14                	je     9fe6 <func_22+0x2ab>
    9fd2:	48 8b 05 6f ea 00 00 	mov    0xea6f(%rip),%rax        # 18a48 <g_389>
    9fd9:	8b 00                	mov    (%rax),%eax
    9fdb:	85 c0                	test   %eax,%eax
    9fdd:	74 07                	je     9fe6 <func_22+0x2ab>
    9fdf:	b8 01 00 00 00       	mov    $0x1,%eax
    9fe4:	eb 05                	jmp    9feb <func_22+0x2b0>
    9fe6:	b8 00 00 00 00       	mov    $0x0,%eax
    9feb:	85 c0                	test   %eax,%eax
    9fed:	0f 9f c0             	setg   %al
    9ff0:	0f b6 c0             	movzbl %al,%eax
    9ff3:	89 c6                	mov    %eax,%esi
    9ff5:	bf 3d 92 ff ff       	mov    $0xffff923d,%edi
    9ffa:	e8 f6 c3 ff ff       	callq  63f5 <safe_mul_func_int16_t_s_s>
    9fff:	98                   	cwtl   
    a000:	89 85 d0 f6 ff ff    	mov    %eax,-0x930(%rbp)
    a006:	48 8b 1d c3 b0 00 00 	mov    0xb0c3(%rip),%rbx        # 150d0 <g_105>
    a00d:	48 8d 43 01          	lea    0x1(%rbx),%rax
    a011:	48 89 05 b8 b0 00 00 	mov    %rax,0xb0b8(%rip)        # 150d0 <g_105>
    a018:	44 8b a5 b8 f6 ff ff 	mov    -0x948(%rbp),%r12d
    a01f:	48 8b 85 90 f7 ff ff 	mov    -0x870(%rbp),%rax
    a026:	41 89 c6             	mov    %eax,%r14d
    a029:	0f b7 05 9c b6 00 00 	movzwl 0xb69c(%rip),%eax        # 156cc <g_293>
    a030:	44 0f b7 e8          	movzwl %ax,%r13d
    a034:	48 8d 05 9d e9 00 00 	lea    0xe99d(%rip),%rax        # 189d8 <g_308+0x18>
    a03b:	48 39 85 d8 f6 ff ff 	cmp    %rax,-0x928(%rbp)
    a042:	0f 95 c0             	setne  %al
    a045:	0f b6 d0             	movzbl %al,%edx
    a048:	48 8b 05 e9 e9 00 00 	mov    0xe9e9(%rip),%rax        # 18a38 <g_312>
    a04f:	48 8b 00             	mov    (%rax),%rax
    a052:	48 8b 00             	mov    (%rax),%rax
    a055:	48 39 c2             	cmp    %rax,%rdx
    a058:	0f 9f c0             	setg   %al
    a05b:	0f b6 c0             	movzbl %al,%eax
    a05e:	8b 95 b8 f6 ff ff    	mov    -0x948(%rbp),%edx
    a064:	89 d6                	mov    %edx,%esi
    a066:	89 c7                	mov    %eax,%edi
    a068:	e8 51 cc ff ff       	callq  6cbe <safe_rshift_func_uint8_t_u_u>
    a06d:	8b 85 b8 f6 ff ff    	mov    -0x948(%rbp),%eax
    a073:	0f b7 c0             	movzwl %ax,%eax
    a076:	44 89 ee             	mov    %r13d,%esi
    a079:	89 c7                	mov    %eax,%edi
    a07b:	e8 7f cc ff ff       	callq  6cff <safe_add_func_uint16_t_u_u>
    a080:	48 8b 05 c9 e9 00 00 	mov    0xe9c9(%rip),%rax        # 18a50 <g_488>
    a087:	48 8b 00             	mov    (%rax),%rax
    a08a:	0f b6 00             	movzbl (%rax),%eax
    a08d:	0f be d0             	movsbl %al,%edx
    a090:	48 8b 05 e9 e9 00 00 	mov    0xe9e9(%rip),%rax        # 18a80 <g_597>
    a097:	48 8b 00             	mov    (%rax),%rax
    a09a:	8b 00                	mov    (%rax),%eax
    a09c:	48 63 c8             	movslq %eax,%rcx
    a09f:	48 8b 85 f0 f6 ff ff 	mov    -0x910(%rbp),%rax
    a0a6:	48 09 c1             	or     %rax,%rcx
    a0a9:	b8 f7 ff ff ff       	mov    $0xfffffff7,%eax
    a0ae:	48 39 c1             	cmp    %rax,%rcx
    a0b1:	0f 97 c0             	seta   %al
    a0b4:	0f b6 c0             	movzbl %al,%eax
    a0b7:	39 c2                	cmp    %eax,%edx
    a0b9:	0f 9e c0             	setle  %al
    a0bc:	0f b6 c0             	movzbl %al,%eax
    a0bf:	44 89 f6             	mov    %r14d,%esi
    a0c2:	89 c7                	mov    %eax,%edi
    a0c4:	e8 b1 cd ff ff       	callq  6e7a <safe_rshift_func_uint16_t_u_u>
    a0c9:	4c 89 e6             	mov    %r12,%rsi
    a0cc:	bf 00 00 00 00       	mov    $0x0,%edi
    a0d1:	e8 d9 cf ff ff       	callq  70af <safe_div_func_uint64_t_u_u>
    a0d6:	48 89 c2             	mov    %rax,%rdx
    a0d9:	48 8b 05 e0 e7 00 00 	mov    0xe7e0(%rip),%rax        # 188c0 <g_171>
    a0e0:	66 89 10             	mov    %dx,(%rax)
    a0e3:	0f b7 00             	movzwl (%rax),%eax
    a0e6:	66 89 05 3f f0 00 00 	mov    %ax,0xf03f(%rip)        # 1912c <g_104>
    a0ed:	8b 05 79 b5 00 00    	mov    0xb579(%rip),%eax        # 1566c <g_272+0x4c>
    a0f3:	39 85 b8 f6 ff ff    	cmp    %eax,-0x948(%rbp)
    a0f9:	75 11                	jne    a10c <func_22+0x3d1>
    a0fb:	8b 05 e1 b0 00 00    	mov    0xb0e1(%rip),%eax        # 151e2 <g_222+0x2>
    a101:	85 c0                	test   %eax,%eax
    a103:	74 07                	je     a10c <func_22+0x3d1>
    a105:	b8 01 00 00 00       	mov    $0x1,%eax
    a10a:	eb 05                	jmp    a111 <func_22+0x3d6>
    a10c:	b8 00 00 00 00       	mov    $0x0,%eax
    a111:	0f be c0             	movsbl %al,%eax
    a114:	be 22 00 00 00       	mov    $0x22,%esi
    a119:	89 c7                	mov    %eax,%edi
    a11b:	e8 f2 c0 ff ff       	callq  6212 <safe_mul_func_int8_t_s_s>
    a120:	0f be c0             	movsbl %al,%eax
    a123:	39 85 d0 f6 ff ff    	cmp    %eax,-0x930(%rbp)
    a129:	0f 95 c0             	setne  %al
    a12c:	0f b6 c0             	movzbl %al,%eax
    a12f:	89 85 d0 f6 ff ff    	mov    %eax,-0x930(%rbp)
    a135:	8b 85 d0 f6 ff ff    	mov    -0x930(%rbp),%eax
    a13b:	23 85 bc f6 ff ff    	and    -0x944(%rbp),%eax
    a141:	48 98                	cltq   
    a143:	48 39 c3             	cmp    %rax,%rbx
    a146:	0f 97 c0             	seta   %al
    a149:	0f b6 d0             	movzbl %al,%edx
    a14c:	0f b6 85 f8 f6 ff ff 	movzbl -0x908(%rbp),%eax
    a153:	0f b6 c0             	movzbl %al,%eax
    a156:	39 c2                	cmp    %eax,%edx
    a158:	0f 9e c0             	setle  %al
    a15b:	48 8d 15 e2 b7 00 00 	lea    0xb7e2(%rip),%rdx        # 15944 <g_599>
    a162:	0f b6 c0             	movzbl %al,%eax
    a165:	89 02                	mov    %eax,(%rdx)
    a167:	48 c7 85 e8 f6 ff ff 	movq   $0x0,-0x918(%rbp)
    a16e:	00 00 00 00 
    a172:	48 8b 05 27 b3 00 00 	mov    0xb327(%rip),%rax        # 154a0 <g_223+0x2a0>
    a179:	c1 e0 03             	shl    $0x3,%eax
    a17c:	66 c1 f8 03          	sar    $0x3,%ax
    a180:	0f bf d8             	movswl %ax,%ebx
    a183:	8b 85 b8 f6 ff ff    	mov    -0x948(%rbp),%eax
    a189:	44 0f bf e0          	movswl %ax,%r12d
    a18d:	44 0f b7 ad c6 f6 ff 	movzwl -0x93a(%rbp),%r13d
    a194:	ff 
    a195:	8b 05 19 af 00 00    	mov    0xaf19(%rip),%eax        # 150b4 <g_81>
    a19b:	41 89 c6             	mov    %eax,%r14d
    a19e:	83 bd bc f6 ff ff 00 	cmpl   $0x0,-0x944(%rbp)
    a1a5:	75 07                	jne    a1ae <func_22+0x473>
    a1a7:	ba f7 ff 00 00       	mov    $0xfff7,%edx
    a1ac:	eb 05                	jmp    a1b3 <func_22+0x478>
    a1ae:	ba f6 ff 00 00       	mov    $0xfff6,%edx
    a1b3:	8b 85 bc f6 ff ff    	mov    -0x944(%rbp),%eax
    a1b9:	48 98                	cltq   
    a1bb:	48 39 c2             	cmp    %rax,%rdx
    a1be:	0f 94 c0             	sete   %al
    a1c1:	0f b6 c0             	movzbl %al,%eax
    a1c4:	be 03 00 00 00       	mov    $0x3,%esi
    a1c9:	89 c7                	mov    %eax,%edi
    a1cb:	e8 1e c1 ff ff       	callq  62ee <safe_lshift_func_int8_t_s_u>
    a1d0:	84 c0                	test   %al,%al
    a1d2:	75 0b                	jne    a1df <func_22+0x4a4>
    a1d4:	48 8b 05 55 ef 00 00 	mov    0xef55(%rip),%rax        # 19130 <g_336>
    a1db:	8b 00                	mov    (%rax),%eax
    a1dd:	85 c0                	test   %eax,%eax
    a1df:	44 89 f6             	mov    %r14d,%esi
    a1e2:	bf 01 00 00 00       	mov    $0x1,%edi
    a1e7:	e8 f5 c2 ff ff       	callq  64e1 <safe_lshift_func_int16_t_s_u>
    a1ec:	48 0f bf c0          	movswq %ax,%rax
    a1f0:	48 be 96 0d 4a 46 b9 	movabs $0xe41d53b9464a0d96,%rsi
    a1f7:	53 1d e4 
    a1fa:	48 89 c7             	mov    %rax,%rdi
    a1fd:	e8 a6 c6 ff ff       	callq  68a8 <safe_sub_func_int64_t_s_s>
    a202:	48 8b 15 3f e8 00 00 	mov    0xe83f(%rip),%rdx        # 18a48 <g_389>
    a209:	8b 12                	mov    (%rdx),%edx
    a20b:	48 63 d2             	movslq %edx,%rdx
    a20e:	48 39 d0             	cmp    %rdx,%rax
    a211:	0f 9e c0             	setle  %al
    a214:	0f b6 d0             	movzbl %al,%edx
    a217:	8b 85 bc f6 ff ff    	mov    -0x944(%rbp),%eax
    a21d:	48 98                	cltq   
    a21f:	48 89 d6             	mov    %rdx,%rsi
    a222:	48 89 c7             	mov    %rax,%rdi
    a225:	e8 d2 c6 ff ff       	callq  68fc <safe_mul_func_int64_t_s_s>
    a22a:	8b 95 b8 f6 ff ff    	mov    -0x948(%rbp),%edx
    a230:	48 39 d0             	cmp    %rdx,%rax
    a233:	0f 95 c0             	setne  %al
    a236:	0f b6 c0             	movzbl %al,%eax
    a239:	89 85 d0 f6 ff ff    	mov    %eax,-0x930(%rbp)
    a23f:	83 bd d0 f6 ff ff 00 	cmpl   $0x0,-0x930(%rbp)
    a246:	74 11                	je     a259 <func_22+0x51e>
    a248:	b8 ff ff ff ff       	mov    $0xffffffff,%eax
    a24d:	66 85 c0             	test   %ax,%ax
    a250:	74 07                	je     a259 <func_22+0x51e>
    a252:	b8 01 00 00 00       	mov    $0x1,%eax
    a257:	eb 05                	jmp    a25e <func_22+0x523>
    a259:	b8 00 00 00 00       	mov    $0x0,%eax
    a25e:	48 98                	cltq   
    a260:	4c 89 ee             	mov    %r13,%rsi
    a263:	48 89 c7             	mov    %rax,%rdi
    a266:	e8 8c c7 ff ff       	callq  69f7 <safe_div_func_int64_t_s_s>
    a26b:	48 f7 d0             	not    %rax
    a26e:	48 89 c2             	mov    %rax,%rdx
    a271:	48 8b 05 58 ae 00 00 	mov    0xae58(%rip),%rax        # 150d0 <g_105>
    a278:	48 09 d0             	or     %rdx,%rax
    a27b:	48 89 05 4e ae 00 00 	mov    %rax,0xae4e(%rip)        # 150d0 <g_105>
    a282:	83 bd b8 f6 ff ff 00 	cmpl   $0x0,-0x948(%rbp)
    a289:	0f 94 c0             	sete   %al
    a28c:	0f b6 c0             	movzbl %al,%eax
    a28f:	44 89 e6             	mov    %r12d,%esi
    a292:	89 c7                	mov    %eax,%edi
    a294:	e8 5c c1 ff ff       	callq  63f5 <safe_mul_func_int16_t_s_s>
    a299:	83 bd bc f6 ff ff 00 	cmpl   $0x0,-0x944(%rbp)
    a2a0:	74 07                	je     a2a9 <func_22+0x56e>
    a2a2:	b8 01 00 00 00       	mov    $0x1,%eax
    a2a7:	eb 05                	jmp    a2ae <func_22+0x573>
    a2a9:	b8 00 00 00 00       	mov    $0x0,%eax
    a2ae:	3b 85 bc f6 ff ff    	cmp    -0x944(%rbp),%eax
    a2b4:	0f 94 c0             	sete   %al
    a2b7:	0f b6 c8             	movzbl %al,%ecx
    a2ba:	48 8b 05 ff e5 00 00 	mov    0xe5ff(%rip),%rax        # 188c0 <g_171>
    a2c1:	0f b7 10             	movzwl (%rax),%edx
    a2c4:	48 8b 05 f5 e5 00 00 	mov    0xe5f5(%rip),%rax        # 188c0 <g_171>
    a2cb:	09 ca                	or     %ecx,%edx
    a2cd:	66 89 10             	mov    %dx,(%rax)
    a2d0:	0f b7 00             	movzwl (%rax),%eax
    a2d3:	98                   	cwtl   
    a2d4:	89 de                	mov    %ebx,%esi
    a2d6:	89 c7                	mov    %eax,%edi
    a2d8:	e8 b5 c1 ff ff       	callq  6492 <safe_lshift_func_int16_t_s_s>
    a2dd:	66 85 c0             	test   %ax,%ax
    a2e0:	75 09                	jne    a2eb <func_22+0x5b0>
    a2e2:	83 bd b8 f6 ff ff 00 	cmpl   $0x0,-0x948(%rbp)
    a2e9:	74 07                	je     a2f2 <func_22+0x5b7>
    a2eb:	b8 01 00 00 00       	mov    $0x1,%eax
    a2f0:	eb 05                	jmp    a2f7 <func_22+0x5bc>
    a2f2:	b8 00 00 00 00       	mov    $0x0,%eax
    a2f7:	89 85 bc f6 ff ff    	mov    %eax,-0x944(%rbp)
    a2fd:	8b 85 d4 f6 ff ff    	mov    -0x92c(%rbp),%eax
    a303:	48 8b 5d d8          	mov    -0x28(%rbp),%rbx
    a307:	64 48 33 1c 25 28 00 	xor    %fs:0x28,%rbx
    a30e:	00 00 
    a310:	74 05                	je     a317 <func_22+0x5dc>
    a312:	e8 59 bd ff ff       	callq  6070 <__stack_chk_fail@plt>
    a317:	48 81 c4 30 09 00 00 	add    $0x930,%rsp
    a31e:	5b                   	pop    %rbx
    a31f:	41 5c                	pop    %r12
    a321:	41 5d                	pop    %r13
    a323:	41 5e                	pop    %r14
    a325:	5d                   	pop    %rbp
    a326:	c3                   	retq   

000000000000a327 <func_25>:
    a327:	f3 0f 1e fa          	endbr64 
    a32b:	55                   	push   %rbp
    a32c:	48 89 e5             	mov    %rsp,%rbp
    a32f:	48 89 7d f8          	mov    %rdi,-0x8(%rbp)
    a333:	48 8b 45 1e          	mov    0x1e(%rbp),%rax
    a337:	5d                   	pop    %rbp
    a338:	c3                   	retq   

000000000000a339 <func_28>:
    a339:	f3 0f 1e fa          	endbr64 
    a33d:	55                   	push   %rbp
    a33e:	48 89 e5             	mov    %rsp,%rbp
    a341:	41 57                	push   %r15
    a343:	41 56                	push   %r14
    a345:	41 55                	push   %r13
    a347:	41 54                	push   %r12
    a349:	53                   	push   %rbx
    a34a:	48 81 ec 98 05 00 00 	sub    $0x598,%rsp
    a351:	48 89 bd 68 fa ff ff 	mov    %rdi,-0x598(%rbp)
    a358:	89 b5 64 fa ff ff    	mov    %esi,-0x59c(%rbp)
    a35e:	89 d0                	mov    %edx,%eax
    a360:	88 85 60 fa ff ff    	mov    %al,-0x5a0(%rbp)
    a366:	64 48 8b 04 25 28 00 	mov    %fs:0x28,%rax
    a36d:	00 00 
    a36f:	48 89 45 c8          	mov    %rax,-0x38(%rbp)
    a373:	31 c0                	xor    %eax,%eax
    a375:	48 b8 24 d9 f2 35 21 	movabs $0x2e84d82135f2d924,%rax
    a37c:	d8 84 2e 
    a37f:	48 89 85 e8 fa ff ff 	mov    %rax,-0x518(%rbp)
    a386:	48 c7 85 d8 fa ff ff 	movq   $0x0,-0x528(%rbp)
    a38d:	00 00 00 00 
    a391:	48 8d 85 d8 fa ff ff 	lea    -0x528(%rbp),%rax
    a398:	48 89 85 f0 fb ff ff 	mov    %rax,-0x410(%rbp)
    a39f:	48 8d 85 d8 fa ff ff 	lea    -0x528(%rbp),%rax
    a3a6:	48 89 85 f8 fb ff ff 	mov    %rax,-0x408(%rbp)
    a3ad:	48 8d 85 d8 fa ff ff 	lea    -0x528(%rbp),%rax
    a3b4:	48 89 85 00 fc ff ff 	mov    %rax,-0x400(%rbp)
    a3bb:	48 8d 85 d8 fa ff ff 	lea    -0x528(%rbp),%rax
    a3c2:	48 89 85 08 fc ff ff 	mov    %rax,-0x3f8(%rbp)
    a3c9:	48 8d 85 d8 fa ff ff 	lea    -0x528(%rbp),%rax
    a3d0:	48 89 85 10 fc ff ff 	mov    %rax,-0x3f0(%rbp)
    a3d7:	48 8d 85 d8 fa ff ff 	lea    -0x528(%rbp),%rax
    a3de:	48 89 85 18 fc ff ff 	mov    %rax,-0x3e8(%rbp)
    a3e5:	48 8d 85 d8 fa ff ff 	lea    -0x528(%rbp),%rax
    a3ec:	48 89 85 20 fc ff ff 	mov    %rax,-0x3e0(%rbp)
    a3f3:	48 8d 85 d8 fa ff ff 	lea    -0x528(%rbp),%rax
    a3fa:	48 89 85 28 fc ff ff 	mov    %rax,-0x3d8(%rbp)
    a401:	48 8d 85 d8 fa ff ff 	lea    -0x528(%rbp),%rax
    a408:	48 89 85 30 fc ff ff 	mov    %rax,-0x3d0(%rbp)
    a40f:	c7 85 98 fa ff ff b4 	movl   $0x932ceeb4,-0x568(%rbp)
    a416:	ee 2c 93 
    a419:	48 c7 85 f0 fa ff ff 	movq   $0x0,-0x510(%rbp)
    a420:	00 00 00 00 
    a424:	48 8d 85 f0 fb ff ff 	lea    -0x410(%rbp),%rax
    a42b:	48 83 c0 08          	add    $0x8,%rax
    a42f:	48 89 85 f8 fa ff ff 	mov    %rax,-0x508(%rbp)
    a436:	c6 85 74 fa ff ff 00 	movb   $0x0,-0x58c(%rbp)
    a43d:	c7 85 78 fa ff ff 8a 	movl   $0x147d798a,-0x588(%rbp)
    a444:	79 7d 14 
    a447:	c7 85 9c fa ff ff 7a 	movl   $0x8c921c7a,-0x564(%rbp)
    a44e:	1c 92 8c 
    a451:	c7 85 a0 fa ff ff 05 	movl   $0x5,-0x560(%rbp)
    a458:	00 00 00 
    a45b:	c7 85 a4 fa ff ff 1b 	movl   $0xecbb861b,-0x55c(%rbp)
    a462:	86 bb ec 
    a465:	c7 85 a8 fa ff ff c9 	movl   $0xe54ae0c9,-0x558(%rbp)
    a46c:	e0 4a e5 
    a46f:	c7 85 ac fa ff ff a6 	movl   $0xaded9a6,-0x554(%rbp)
    a476:	d9 de 0a 
    a479:	c7 85 d0 fc ff ff 1b 	movl   $0xa587761b,-0x330(%rbp)
    a480:	76 87 a5 
    a483:	c7 85 d4 fc ff ff a9 	movl   $0x40139ea9,-0x32c(%rbp)
    a48a:	9e 13 40 
    a48d:	c7 85 d8 fc ff ff a9 	movl   $0x40139ea9,-0x328(%rbp)
    a494:	9e 13 40 
    a497:	c7 85 dc fc ff ff 1b 	movl   $0xa587761b,-0x324(%rbp)
    a49e:	76 87 a5 
    a4a1:	c7 85 e0 fc ff ff 00 	movl   $0x0,-0x320(%rbp)
    a4a8:	00 00 00 
    a4ab:	c7 85 e4 fc ff ff 1b 	movl   $0xa587761b,-0x31c(%rbp)
    a4b2:	76 87 a5 
    a4b5:	c7 85 e8 fc ff ff a9 	movl   $0x40139ea9,-0x318(%rbp)
    a4bc:	9e 13 40 
    a4bf:	c7 85 ec fc ff ff a9 	movl   $0x40139ea9,-0x314(%rbp)
    a4c6:	9e 13 40 
    a4c9:	c7 85 f0 fc ff ff 1b 	movl   $0xa587761b,-0x310(%rbp)
    a4d0:	76 87 a5 
    a4d3:	c7 85 f4 fc ff ff 00 	movl   $0x0,-0x30c(%rbp)
    a4da:	00 00 00 
    a4dd:	c7 85 f8 fc ff ff 1b 	movl   $0xa587761b,-0x308(%rbp)
    a4e4:	76 87 a5 
    a4e7:	c7 85 fc fc ff ff a9 	movl   $0x40139ea9,-0x304(%rbp)
    a4ee:	9e 13 40 
    a4f1:	c7 85 00 fd ff ff a9 	movl   $0x40139ea9,-0x300(%rbp)
    a4f8:	9e 13 40 
    a4fb:	c7 85 04 fd ff ff 1b 	movl   $0xa587761b,-0x2fc(%rbp)
    a502:	76 87 a5 
    a505:	c7 85 08 fd ff ff 00 	movl   $0x0,-0x2f8(%rbp)
    a50c:	00 00 00 
    a50f:	c7 85 0c fd ff ff 1b 	movl   $0xa587761b,-0x2f4(%rbp)
    a516:	76 87 a5 
    a519:	c7 85 10 fd ff ff a9 	movl   $0x40139ea9,-0x2f0(%rbp)
    a520:	9e 13 40 
    a523:	c7 85 14 fd ff ff a9 	movl   $0x40139ea9,-0x2ec(%rbp)
    a52a:	9e 13 40 
    a52d:	c7 85 18 fd ff ff 1b 	movl   $0xa587761b,-0x2e8(%rbp)
    a534:	76 87 a5 
    a537:	c7 85 1c fd ff ff 00 	movl   $0x0,-0x2e4(%rbp)
    a53e:	00 00 00 
    a541:	c7 85 20 fd ff ff 1b 	movl   $0xa587761b,-0x2e0(%rbp)
    a548:	76 87 a5 
    a54b:	c7 85 24 fd ff ff a9 	movl   $0x40139ea9,-0x2dc(%rbp)
    a552:	9e 13 40 
    a555:	c7 85 28 fd ff ff a9 	movl   $0x40139ea9,-0x2d8(%rbp)
    a55c:	9e 13 40 
    a55f:	c7 85 2c fd ff ff 1b 	movl   $0xa587761b,-0x2d4(%rbp)
    a566:	76 87 a5 
    a569:	c7 85 30 fd ff ff 00 	movl   $0x0,-0x2d0(%rbp)
    a570:	00 00 00 
    a573:	c7 85 34 fd ff ff 1b 	movl   $0xa587761b,-0x2cc(%rbp)
    a57a:	76 87 a5 
    a57d:	c7 85 38 fd ff ff a9 	movl   $0x40139ea9,-0x2c8(%rbp)
    a584:	9e 13 40 
    a587:	c7 85 3c fd ff ff a9 	movl   $0x40139ea9,-0x2c4(%rbp)
    a58e:	9e 13 40 
    a591:	c7 85 40 fd ff ff c1 	movl   $0xd4ad72c1,-0x2c0(%rbp)
    a598:	72 ad d4 
    a59b:	c7 85 44 fd ff ff 00 	movl   $0x0,-0x2bc(%rbp)
    a5a2:	00 00 00 
    a5a5:	c7 85 48 fd ff ff c1 	movl   $0xd4ad72c1,-0x2b8(%rbp)
    a5ac:	72 ad d4 
    a5af:	c7 85 4c fd ff ff 1b 	movl   $0xa587761b,-0x2b4(%rbp)
    a5b6:	76 87 a5 
    a5b9:	c7 85 50 fd ff ff 1b 	movl   $0xa587761b,-0x2b0(%rbp)
    a5c0:	76 87 a5 
    a5c3:	c7 85 54 fd ff ff c1 	movl   $0xd4ad72c1,-0x2ac(%rbp)
    a5ca:	72 ad d4 
    a5cd:	c7 85 58 fd ff ff 00 	movl   $0x0,-0x2a8(%rbp)
    a5d4:	00 00 00 
    a5d7:	c7 85 5c fd ff ff c1 	movl   $0xd4ad72c1,-0x2a4(%rbp)
    a5de:	72 ad d4 
    a5e1:	c7 85 60 fd ff ff 1b 	movl   $0xa587761b,-0x2a0(%rbp)
    a5e8:	76 87 a5 
    a5eb:	c7 85 64 fd ff ff 1b 	movl   $0xa587761b,-0x29c(%rbp)
    a5f2:	76 87 a5 
    a5f5:	c7 85 68 fd ff ff c1 	movl   $0xd4ad72c1,-0x298(%rbp)
    a5fc:	72 ad d4 
    a5ff:	c7 85 6c fd ff ff 00 	movl   $0x0,-0x294(%rbp)
    a606:	00 00 00 
    a609:	48 8d 05 60 e4 00 00 	lea    0xe460(%rip),%rax        # 18a70 <g_592>
    a610:	48 89 85 00 fb ff ff 	mov    %rax,-0x500(%rbp)
    a617:	48 8d 05 ae b0 00 00 	lea    0xb0ae(%rip),%rax        # 156cc <g_293>
    a61e:	48 89 85 08 fb ff ff 	mov    %rax,-0x4f8(%rbp)
    a625:	48 8d 05 dc aa 00 00 	lea    0xaadc(%rip),%rax        # 15108 <g_138>
    a62c:	48 89 85 10 fb ff ff 	mov    %rax,-0x4f0(%rbp)
    a633:	48 8d 05 1d ab 00 00 	lea    0xab1d(%rip),%rax        # 15157 <g_155+0x37>
    a63a:	48 89 85 18 fb ff ff 	mov    %rax,-0x4e8(%rbp)
    a641:	c6 85 75 fa ff ff ff 	movb   $0xff,-0x58b(%rbp)
    a648:	48 c7 85 70 fb ff ff 	movq   $0xffffffffffffffff,-0x490(%rbp)
    a64f:	ff ff ff ff 
    a653:	c6 85 78 fb ff ff 16 	movb   $0x16,-0x488(%rbp)
    a65a:	c6 85 79 fb ff ff a8 	movb   $0xa8,-0x487(%rbp)
    a661:	c7 85 7a fb ff ff ff 	movl   $0xffffffff,-0x486(%rbp)
    a668:	ff ff ff 
    a66b:	48 c7 85 7e fb ff ff 	movq   $0xfffffffffffffff9,-0x482(%rbp)
    a672:	f9 ff ff ff 
    a676:	c7 85 80 fa ff ff 00 	movl   $0x0,-0x580(%rbp)
    a67d:	00 00 00 
    a680:	eb 1e                	jmp    a6a0 <func_28+0x367>
    a682:	8b 85 80 fa ff ff    	mov    -0x580(%rbp),%eax
    a688:	48 98                	cltq   
    a68a:	48 8d 15 b7 b2 00 00 	lea    0xb2b7(%rip),%rdx        # 15948 <g_715>
    a691:	48 89 94 c5 b0 fb ff 	mov    %rdx,-0x450(%rbp,%rax,8)
    a698:	ff 
    a699:	83 85 80 fa ff ff 01 	addl   $0x1,-0x580(%rbp)
    a6a0:	83 bd 80 fa ff ff 01 	cmpl   $0x1,-0x580(%rbp)
    a6a7:	7e d9                	jle    a682 <func_28+0x349>
    a6a9:	8b 85 64 fa ff ff    	mov    -0x59c(%rbp),%eax
    a6af:	85 c0                	test   %eax,%eax
    a6b1:	0f 84 9d 00 00 00    	je     a754 <func_28+0x41b>
    a6b7:	8b 85 64 fa ff ff    	mov    -0x59c(%rbp),%eax
    a6bd:	0f be d0             	movsbl %al,%edx
    a6c0:	48 83 bd e8 fa ff ff 	cmpq   $0x7c,-0x518(%rbp)
    a6c7:	7c 
    a6c8:	0f 9f c0             	setg   %al
    a6cb:	0f b6 c0             	movzbl %al,%eax
    a6ce:	89 d6                	mov    %edx,%esi
    a6d0:	89 c7                	mov    %eax,%edi
    a6d2:	e8 fd ba ff ff       	callq  61d4 <safe_add_func_int8_t_s_s>
    a6d7:	3c 01                	cmp    $0x1,%al
    a6d9:	0f 96 c0             	setbe  %al
    a6dc:	0f b6 c0             	movzbl %al,%eax
    a6df:	89 c2                	mov    %eax,%edx
    a6e1:	0f b6 85 60 fa ff ff 	movzbl -0x5a0(%rbp),%eax
    a6e8:	09 d0                	or     %edx,%eax
    a6ea:	88 85 60 fa ff ff    	mov    %al,-0x5a0(%rbp)
    a6f0:	0f be 9d 60 fa ff ff 	movsbl -0x5a0(%rbp),%ebx
    a6f7:	48 8b 85 d8 fa ff ff 	mov    -0x528(%rbp),%rax
    a6fe:	48 89 05 3b ea 00 00 	mov    %rax,0xea3b(%rip)        # 19140 <g_711>
    a705:	48 8b 05 34 ea 00 00 	mov    0xea34(%rip),%rax        # 19140 <g_711>
    a70c:	48 85 c0             	test   %rax,%rax
    a70f:	0f 94 c0             	sete   %al
    a712:	0f b6 d0             	movzbl %al,%edx
    a715:	48 8b 05 34 e3 00 00 	mov    0xe334(%rip),%rax        # 18a50 <g_488>
    a71c:	48 8b 00             	mov    (%rax),%rax
    a71f:	48 8b 8d e8 fa ff ff 	mov    -0x518(%rbp),%rcx
    a726:	88 08                	mov    %cl,(%rax)
    a728:	8b 85 64 fa ff ff    	mov    -0x59c(%rbp),%eax
    a72e:	0f be c0             	movsbl %al,%eax
    a731:	89 d6                	mov    %edx,%esi
    a733:	89 c7                	mov    %eax,%edi
    a735:	e8 fb bb ff ff       	callq  6335 <safe_rshift_func_int8_t_s_s>
    a73a:	83 f0 06             	xor    $0x6,%eax
    a73d:	0f be c0             	movsbl %al,%eax
    a740:	89 de                	mov    %ebx,%esi
    a742:	89 c7                	mov    %eax,%edi
    a744:	e8 a9 ba ff ff       	callq  61f2 <safe_sub_func_int8_t_s_s>
    a749:	84 c0                	test   %al,%al
    a74b:	74 07                	je     a754 <func_28+0x41b>
    a74d:	ba 01 00 00 00       	mov    $0x1,%edx
    a752:	eb 05                	jmp    a759 <func_28+0x420>
    a754:	ba 00 00 00 00       	mov    $0x0,%edx
    a759:	48 8d 05 e4 b1 00 00 	lea    0xb1e4(%rip),%rax        # 15944 <g_599>
    a760:	89 10                	mov    %edx,(%rax)
    a762:	8b 00                	mov    (%rax),%eax
    a764:	89 c6                	mov    %eax,%esi
    a766:	bf 05 00 00 00       	mov    $0x5,%edi
    a76b:	e8 48 c7 ff ff       	callq  6eb8 <safe_add_func_uint32_t_u_u>
    a770:	89 c2                	mov    %eax,%edx
    a772:	8b 85 64 fa ff ff    	mov    -0x59c(%rbp),%eax
    a778:	09 d0                	or     %edx,%eax
    a77a:	0f b6 c0             	movzbl %al,%eax
    a77d:	be fe 00 00 00       	mov    $0xfe,%esi
    a782:	89 c7                	mov    %eax,%edi
    a784:	e8 ef c3 ff ff       	callq  6b78 <safe_sub_func_uint8_t_u_u>
    a789:	0f b6 c0             	movzbl %al,%eax
    a78c:	21 85 98 fa ff ff    	and    %eax,-0x568(%rbp)
    a792:	48 8b 85 f8 fa ff ff 	mov    -0x508(%rbp),%rax
    a799:	48 8d 95 d8 fa ff ff 	lea    -0x528(%rbp),%rdx
    a7a0:	48 89 10             	mov    %rdx,(%rax)
    a7a3:	48 8b 85 f8 fa ff ff 	mov    -0x508(%rbp),%rax
    a7aa:	48 8b 10             	mov    (%rax),%rdx
    a7ad:	48 8d 85 d8 fa ff ff 	lea    -0x528(%rbp),%rax
    a7b4:	48 39 c2             	cmp    %rax,%rdx
    a7b7:	0f 95 c0             	setne  %al
    a7ba:	0f b6 c8             	movzbl %al,%ecx
    a7bd:	48 8b 05 bc e2 00 00 	mov    0xe2bc(%rip),%rax        # 18a80 <g_597>
    a7c4:	48 8b 00             	mov    (%rax),%rax
    a7c7:	8b 10                	mov    (%rax),%edx
    a7c9:	48 8b 05 b0 e2 00 00 	mov    0xe2b0(%rip),%rax        # 18a80 <g_597>
    a7d0:	48 8b 00             	mov    (%rax),%rax
    a7d3:	21 ca                	and    %ecx,%edx
    a7d5:	89 10                	mov    %edx,(%rax)
    a7d7:	8b 00                	mov    (%rax),%eax
    a7d9:	85 c0                	test   %eax,%eax
    a7db:	0f 84 e8 00 00 00    	je     a8c9 <func_28+0x590>
    a7e1:	0f b6 85 74 fa ff ff 	movzbl -0x58c(%rbp),%eax
    a7e8:	0f b6 d8             	movzbl %al,%ebx
    a7eb:	48 b8 63 01 89 5a 09 	movabs $0x848271095a890163,%rax
    a7f2:	71 82 84 
    a7f5:	48 89 05 04 a9 00 00 	mov    %rax,0xa904(%rip)        # 15100 <g_109>
    a7fc:	48 8b 05 3d e2 00 00 	mov    0xe23d(%rip),%rax        # 18a40 <g_388>
    a803:	0f b6 00             	movzbl (%rax),%eax
    a806:	44 0f b6 e0          	movzbl %al,%r12d
    a80a:	44 0f be ad 60 fa ff 	movsbl -0x5a0(%rbp),%r13d
    a811:	ff 
    a812:	48 8b 05 17 e9 00 00 	mov    0xe917(%rip),%rax        # 19130 <g_336>
    a819:	8b 08                	mov    (%rax),%ecx
    a81b:	48 8d 15 22 b1 00 00 	lea    0xb122(%rip),%rdx        # 15944 <g_599>
    a822:	48 8d 05 1b b1 00 00 	lea    0xb11b(%rip),%rax        # 15944 <g_599>
    a829:	8b 12                	mov    (%rdx),%edx
    a82b:	89 10                	mov    %edx,(%rax)
    a82d:	8b 00                	mov    (%rax),%eax
    a82f:	39 c1                	cmp    %eax,%ecx
    a831:	0f 94 c0             	sete   %al
    a834:	0f b6 d0             	movzbl %al,%edx
    a837:	8b 85 64 fa ff ff    	mov    -0x59c(%rbp),%eax
    a83d:	98                   	cwtl   
    a83e:	89 d6                	mov    %edx,%esi
    a840:	89 c7                	mov    %eax,%edi
    a842:	e8 e3 bc ff ff       	callq  652a <safe_rshift_func_int16_t_s_s>
    a847:	8b 05 0b af 00 00    	mov    0xaf0b(%rip),%eax        # 15758 <g_546+0x18>
    a84d:	0f b7 c0             	movzwl %ax,%eax
    a850:	be ae 11 00 00       	mov    $0x11ae,%esi
    a855:	89 c7                	mov    %eax,%edi
    a857:	e8 32 c5 ff ff       	callq  6d8e <safe_div_func_uint16_t_u_u>
    a85c:	0f b7 c0             	movzwl %ax,%eax
    a85f:	39 85 98 fa ff ff    	cmp    %eax,-0x568(%rbp)
    a865:	0f 9d c0             	setge  %al
    a868:	0f b6 c0             	movzbl %al,%eax
    a86b:	44 89 ee             	mov    %r13d,%esi
    a86e:	89 c7                	mov    %eax,%edi
    a870:	e8 49 c5 ff ff       	callq  6dbe <safe_lshift_func_uint16_t_u_s>
    a875:	66 85 c0             	test   %ax,%ax
    a878:	75 0d                	jne    a887 <func_28+0x54e>
    a87a:	48 8b 05 af e8 00 00 	mov    0xe8af(%rip),%rax        # 19130 <g_336>
    a881:	8b 00                	mov    (%rax),%eax
    a883:	85 c0                	test   %eax,%eax
    a885:	74 07                	je     a88e <func_28+0x555>
    a887:	b8 01 00 00 00       	mov    $0x1,%eax
    a88c:	eb 05                	jmp    a893 <func_28+0x55a>
    a88e:	b8 00 00 00 00       	mov    $0x0,%eax
    a893:	0f b7 d0             	movzwl %ax,%edx
    a896:	48 8b 05 0b ac 00 00 	mov    0xac0b(%rip),%rax        # 154a8 <g_223+0x2a8>
    a89d:	0f b7 c0             	movzwl %ax,%eax
    a8a0:	89 d6                	mov    %edx,%esi
    a8a2:	89 c7                	mov    %eax,%edi
    a8a4:	e8 56 c4 ff ff       	callq  6cff <safe_add_func_uint16_t_u_u>
    a8a9:	0f b6 c0             	movzbl %al,%eax
    a8ac:	44 89 e6             	mov    %r12d,%esi
    a8af:	89 c7                	mov    %eax,%edi
    a8b1:	e8 f8 c2 ff ff       	callq  6bae <safe_mod_func_uint8_t_u_u>
    a8b6:	b8 00 00 00 00       	mov    $0x0,%eax
    a8bb:	0f b6 c0             	movzbl %al,%eax
    a8be:	89 de                	mov    %ebx,%esi
    a8c0:	89 c7                	mov    %eax,%edi
    a8c2:	e8 93 c2 ff ff       	callq  6b5a <safe_add_func_uint8_t_u_u>
    a8c7:	84 c0                	test   %al,%al
    a8c9:	8b 05 09 ae 00 00    	mov    0xae09(%rip),%eax        # 156d8 <g_441>
    a8cf:	83 f8 01             	cmp    $0x1,%eax
    a8d2:	0f 86 a0 00 00 00    	jbe    a978 <func_28+0x63f>
    a8d8:	c6 85 77 fa ff ff 01 	movb   $0x1,-0x589(%rbp)
    a8df:	48 8d 05 52 e1 00 00 	lea    0xe152(%rip),%rax        # 18a38 <g_312>
    a8e6:	48 89 85 60 fb ff ff 	mov    %rax,-0x4a0(%rbp)
    a8ed:	48 8d 05 74 e8 00 00 	lea    0xe874(%rip),%rax        # 19168 <g_739+0x8>
    a8f4:	48 89 85 68 fb ff ff 	mov    %rax,-0x498(%rbp)
    a8fb:	48 8b 85 60 fb ff ff 	mov    -0x4a0(%rbp),%rax
    a902:	48 8d 15 27 e1 00 00 	lea    0xe127(%rip),%rdx        # 18a30 <g_313>
    a909:	48 89 10             	mov    %rdx,(%rax)
    a90c:	48 8b 15 55 e8 00 00 	mov    0xe855(%rip),%rdx        # 19168 <g_739+0x8>
    a913:	48 8b 85 68 fb ff ff 	mov    -0x498(%rbp),%rax
    a91a:	48 89 10             	mov    %rdx,(%rax)
    a91d:	48 8b 05 9c df 00 00 	mov    0xdf9c(%rip),%rax        # 188c0 <g_171>
    a924:	0f b7 00             	movzwl (%rax),%eax
    a927:	89 c2                	mov    %eax,%edx
    a929:	8b 85 64 fa ff ff    	mov    -0x59c(%rbp),%eax
    a92f:	21 c2                	and    %eax,%edx
    a931:	48 8b 05 88 df 00 00 	mov    0xdf88(%rip),%rax        # 188c0 <g_171>
    a938:	66 89 10             	mov    %dx,(%rax)
    a93b:	0f b7 00             	movzwl (%rax),%eax
    a93e:	0f bf d0             	movswl %ax,%edx
    a941:	8b 05 95 ad 00 00    	mov    0xad95(%rip),%eax        # 156dc <g_516>
    a947:	21 d0                	and    %edx,%eax
    a949:	85 c0                	test   %eax,%eax
    a94b:	74 07                	je     a954 <func_28+0x61b>
    a94d:	80 bd 60 fa ff ff 00 	cmpb   $0x0,-0x5a0(%rbp)
    a954:	0f b7 05 d1 e7 00 00 	movzwl 0xe7d1(%rip),%eax        # 1912c <g_104>
    a95b:	66 85 c0             	test   %ax,%ax
    a95e:	0f 9e c0             	setle  %al
    a961:	0f b6 d0             	movzbl %al,%edx
    a964:	0f be 85 77 fa ff ff 	movsbl -0x589(%rbp),%eax
    a96b:	09 d0                	or     %edx,%eax
    a96d:	89 85 98 fa ff ff    	mov    %eax,-0x568(%rbp)
    a973:	e9 85 06 00 00       	jmpq   affd <func_28+0xcc4>
    a978:	48 8d 05 89 a7 00 00 	lea    0xa789(%rip),%rax        # 15108 <g_138>
    a97f:	48 89 85 20 fb ff ff 	mov    %rax,-0x4e0(%rbp)
    a986:	c7 85 b0 fa ff ff 6e 	movl   $0x39b4c66e,-0x550(%rbp)
    a98d:	c6 b4 39 
    a990:	c7 85 b4 fa ff ff ff 	movl   $0xffffffff,-0x54c(%rbp)
    a997:	ff ff ff 
    a99a:	48 8d 85 70 fd ff ff 	lea    -0x290(%rbp),%rax
    a9a1:	48 8d 15 58 6d 00 00 	lea    0x6d58(%rip),%rdx        # 11700 <g_1649+0x688>
    a9a8:	b9 48 00 00 00       	mov    $0x48,%ecx
    a9ad:	48 89 c7             	mov    %rax,%rdi
    a9b0:	48 89 d6             	mov    %rdx,%rsi
    a9b3:	f3 48 a5             	rep movsq %ds:(%rsi),%es:(%rdi)
    a9b6:	48 c7 85 e0 fa ff ff 	movq   $0xfffffffffffffffa,-0x520(%rbp)
    a9bd:	fa ff ff ff 
    a9c1:	48 c7 85 28 fb ff ff 	movq   $0x0,-0x4d8(%rbp)
    a9c8:	00 00 00 00 
    a9cc:	48 b8 57 98 11 fa e6 	movabs $0x11b28fe6fa119857,%rax
    a9d3:	8f b2 11 
    a9d6:	48 89 85 90 fb ff ff 	mov    %rax,-0x470(%rbp)
    a9dd:	c6 85 98 fb ff ff 01 	movb   $0x1,-0x468(%rbp)
    a9e4:	c6 85 99 fb ff ff ff 	movb   $0xff,-0x467(%rbp)
    a9eb:	c7 85 9a fb ff ff 05 	movl   $0x5,-0x466(%rbp)
    a9f2:	00 00 00 
    a9f5:	48 c7 85 9e fb ff ff 	movq   $0x0,-0x462(%rbp)
    a9fc:	00 00 00 00 
    aa00:	c7 85 84 fa ff ff 00 	movl   $0x0,-0x57c(%rbp)
    aa07:	00 00 00 
    aa0a:	eb 14                	jmp    aa20 <func_28+0x6e7>
    aa0c:	8b 85 84 fa ff ff    	mov    -0x57c(%rbp),%eax
    aa12:	48 98                	cltq   
    aa14:	c6 44 05 c1 ff       	movb   $0xff,-0x3f(%rbp,%rax,1)
    aa19:	83 85 84 fa ff ff 01 	addl   $0x1,-0x57c(%rbp)
    aa20:	83 bd 84 fa ff ff 06 	cmpl   $0x6,-0x57c(%rbp)
    aa27:	7e e3                	jle    aa0c <func_28+0x6d3>
    aa29:	48 8b 05 20 e0 00 00 	mov    0xe020(%rip),%rax        # 18a50 <g_488>
    aa30:	48 8b 00             	mov    (%rax),%rax
    aa33:	0f b6 95 60 fa ff ff 	movzbl -0x5a0(%rbp),%edx
    aa3a:	88 10                	mov    %dl,(%rax)
    aa3c:	be 04 00 00 00       	mov    $0x4,%esi
    aa41:	bf 03 00 00 00       	mov    $0x3,%edi
    aa46:	e8 96 ba ff ff       	callq  64e1 <safe_lshift_func_int16_t_s_u>
    aa4b:	0f b6 c0             	movzbl %al,%eax
    aa4e:	be 05 00 00 00       	mov    $0x5,%esi
    aa53:	89 c7                	mov    %eax,%edi
    aa55:	e8 64 c2 ff ff       	callq  6cbe <safe_rshift_func_uint8_t_u_u>
    aa5a:	0f b6 d0             	movzbl %al,%edx
    aa5d:	0f b6 45 c7          	movzbl -0x39(%rbp),%eax
    aa61:	0f b6 c0             	movzbl %al,%eax
    aa64:	89 d6                	mov    %edx,%esi
    aa66:	89 c7                	mov    %eax,%edi
    aa68:	e8 41 c1 ff ff       	callq  6bae <safe_mod_func_uint8_t_u_u>
    aa6d:	48 8b 95 20 fb ff ff 	mov    -0x4e0(%rbp),%rdx
    aa74:	88 02                	mov    %al,(%rdx)
    aa76:	48 8b 05 e3 df 00 00 	mov    0xdfe3(%rip),%rax        # 18a60 <g_489>
    aa7d:	48 8b 00             	mov    (%rax),%rax
    aa80:	0f b6 00             	movzbl (%rax),%eax
    aa83:	3c ff                	cmp    $0xff,%al
    aa85:	0f 84 02 03 00 00    	je     ad8d <func_28+0xa54>
    aa8b:	c7 85 88 fa ff ff fe 	movl   $0xfffffffe,-0x578(%rbp)
    aa92:	ff ff ff 
    aa95:	c6 85 76 fa ff ff 09 	movb   $0x9,-0x58a(%rbp)
    aa9c:	c7 85 b8 fa ff ff fe 	movl   $0xfffffffe,-0x548(%rbp)
    aaa3:	ff ff ff 
    aaa6:	c7 85 bc fa ff ff fe 	movl   $0xfffffffe,-0x544(%rbp)
    aaad:	ff ff ff 
    aab0:	c7 85 c0 fa ff ff fd 	movl   $0xfffffffd,-0x540(%rbp)
    aab7:	ff ff ff 
    aaba:	c7 85 c4 fa ff ff b2 	movl   $0x30c823b2,-0x53c(%rbp)
    aac1:	23 c8 30 
    aac4:	c7 85 c8 fa ff ff 00 	movl   $0x0,-0x538(%rbp)
    aacb:	00 00 00 
    aace:	c7 85 d0 fb ff ff ff 	movl   $0xffffffff,-0x430(%rbp)
    aad5:	ff ff ff 
    aad8:	c7 85 d4 fb ff ff ff 	movl   $0xffffffff,-0x42c(%rbp)
    aadf:	ff ff ff 
    aae2:	c7 85 d8 fb ff ff ff 	movl   $0xffffffff,-0x428(%rbp)
    aae9:	ff ff ff 
    aaec:	c7 85 dc fb ff ff ff 	movl   $0xffffffff,-0x424(%rbp)
    aaf3:	ff ff ff 
    aaf6:	c7 85 e0 fb ff ff ff 	movl   $0xffffffff,-0x420(%rbp)
    aafd:	ff ff ff 
    ab00:	c7 85 e4 fb ff ff ff 	movl   $0xffffffff,-0x41c(%rbp)
    ab07:	ff ff ff 
    ab0a:	c7 85 e8 fb ff ff ff 	movl   $0xffffffff,-0x418(%rbp)
    ab11:	ff ff ff 
    ab14:	c7 85 cc fa ff ff 00 	movl   $0x0,-0x534(%rbp)
    ab1b:	00 00 00 
    ab1e:	c7 85 8c fa ff ff 00 	movl   $0x0,-0x574(%rbp)
    ab25:	00 00 00 
    ab28:	eb 14                	jmp    ab3e <func_28+0x805>
    ab2a:	8b 85 8c fa ff ff    	mov    -0x574(%rbp),%eax
    ab30:	48 98                	cltq   
    ab32:	c6 44 05 bb 01       	movb   $0x1,-0x45(%rbp,%rax,1)
    ab37:	83 85 8c fa ff ff 01 	addl   $0x1,-0x574(%rbp)
    ab3e:	83 bd 8c fa ff ff 05 	cmpl   $0x5,-0x574(%rbp)
    ab45:	7e e3                	jle    ab2a <func_28+0x7f1>
    ab47:	c7 05 db ab 00 00 00 	movl   $0x0,0xabdb(%rip)        # 1572c <g_545>
    ab4e:	00 00 00 
    ab51:	e9 02 02 00 00       	jmpq   ad58 <func_28+0xa1f>
    ab56:	c7 85 7c fa ff ff 6f 	movl   $0x9f19aa6f,-0x584(%rbp)
    ab5d:	aa 19 9f 
    ab60:	c7 85 d0 fa ff ff ff 	movl   $0xffffffff,-0x530(%rbp)
    ab67:	ff ff ff 
    ab6a:	c7 85 d4 fa ff ff 00 	movl   $0x0,-0x52c(%rbp)
    ab71:	00 00 00 
    ab74:	48 8d 85 7c fa ff ff 	lea    -0x584(%rbp),%rax
    ab7b:	48 89 85 48 fb ff ff 	mov    %rax,-0x4b8(%rbp)
    ab82:	48 8d 85 7c fa ff ff 	lea    -0x584(%rbp),%rax
    ab89:	48 89 85 50 fb ff ff 	mov    %rax,-0x4b0(%rbp)
    ab90:	c7 85 90 fa ff ff 00 	movl   $0x0,-0x570(%rbp)
    ab97:	00 00 00 
    ab9a:	eb 1e                	jmp    abba <func_28+0x881>
    ab9c:	8b 85 90 fa ff ff    	mov    -0x570(%rbp),%eax
    aba2:	48 98                	cltq   
    aba4:	48 8d 15 09 a5 00 00 	lea    0xa509(%rip),%rdx        # 150b4 <g_81>
    abab:	48 89 94 c5 c0 fb ff 	mov    %rdx,-0x440(%rbp,%rax,8)
    abb2:	ff 
    abb3:	83 85 90 fa ff ff 01 	addl   $0x1,-0x570(%rbp)
    abba:	83 bd 90 fa ff ff 01 	cmpl   $0x1,-0x570(%rbp)
    abc1:	7e d9                	jle    ab9c <func_28+0x863>
    abc3:	8b 05 63 ab 00 00    	mov    0xab63(%rip),%eax        # 1572c <g_545>
    abc9:	83 c0 06             	add    $0x6,%eax
    abcc:	89 c0                	mov    %eax,%eax
    abce:	48 8d 14 85 00 00 00 	lea    0x0(,%rax,4),%rdx
    abd5:	00 
    abd6:	48 8d 05 23 ab 00 00 	lea    0xab23(%rip),%rax        # 15700 <g_543>
    abdd:	8b 04 02             	mov    (%rdx,%rax,1),%eax
    abe0:	85 c0                	test   %eax,%eax
    abe2:	0f 85 81 01 00 00    	jne    ad69 <func_28+0xa30>
    abe8:	c7 05 46 e5 00 00 00 	movl   $0x0,0xe546(%rip)        # 19138 <g_384>
    abef:	00 00 00 
    abf2:	e9 3b 01 00 00       	jmpq   ad32 <func_28+0x9f9>
    abf7:	48 8d 05 e6 a4 00 00 	lea    0xa4e6(%rip),%rax        # 150e4 <g_108+0x4>
    abfe:	48 89 85 40 fc ff ff 	mov    %rax,-0x3c0(%rbp)
    ac05:	48 8d 05 1c a4 00 00 	lea    0xa41c(%rip),%rax        # 15028 <g_4>
    ac0c:	48 89 85 48 fc ff ff 	mov    %rax,-0x3b8(%rbp)
    ac13:	48 c7 85 50 fc ff ff 	movq   $0x0,-0x3b0(%rbp)
    ac1a:	00 00 00 00 
    ac1e:	48 c7 85 58 fc ff ff 	movq   $0x0,-0x3a8(%rbp)
    ac25:	00 00 00 00 
    ac29:	48 8d 05 f8 a3 00 00 	lea    0xa3f8(%rip),%rax        # 15028 <g_4>
    ac30:	48 89 85 60 fc ff ff 	mov    %rax,-0x3a0(%rbp)
    ac37:	48 8d 05 a6 a4 00 00 	lea    0xa4a6(%rip),%rax        # 150e4 <g_108+0x4>
    ac3e:	48 89 85 68 fc ff ff 	mov    %rax,-0x398(%rbp)
    ac45:	48 8d 05 98 a4 00 00 	lea    0xa498(%rip),%rax        # 150e4 <g_108+0x4>
    ac4c:	48 89 85 70 fc ff ff 	mov    %rax,-0x390(%rbp)
    ac53:	48 c7 85 78 fc ff ff 	movq   $0x0,-0x388(%rbp)
    ac5a:	00 00 00 00 
    ac5e:	48 8d 05 df ac 00 00 	lea    0xacdf(%rip),%rax        # 15944 <g_599>
    ac65:	48 89 85 80 fc ff ff 	mov    %rax,-0x380(%rbp)
    ac6c:	48 c7 85 88 fc ff ff 	movq   $0x0,-0x378(%rbp)
    ac73:	00 00 00 00 
    ac77:	48 c7 85 90 fc ff ff 	movq   $0x0,-0x370(%rbp)
    ac7e:	00 00 00 00 
    ac82:	48 c7 85 98 fc ff ff 	movq   $0x0,-0x368(%rbp)
    ac89:	00 00 00 00 
    ac8d:	48 8d 05 50 a4 00 00 	lea    0xa450(%rip),%rax        # 150e4 <g_108+0x4>
    ac94:	48 89 85 a0 fc ff ff 	mov    %rax,-0x360(%rbp)
    ac9b:	48 8d 05 a2 ac 00 00 	lea    0xaca2(%rip),%rax        # 15944 <g_599>
    aca2:	48 89 85 a8 fc ff ff 	mov    %rax,-0x358(%rbp)
    aca9:	48 8d 05 34 a4 00 00 	lea    0xa434(%rip),%rax        # 150e4 <g_108+0x4>
    acb0:	48 89 85 b0 fc ff ff 	mov    %rax,-0x350(%rbp)
    acb7:	48 c7 85 b8 fc ff ff 	movq   $0x0,-0x348(%rbp)
    acbe:	00 00 00 00 
    acc2:	48 8d 05 7b ac 00 00 	lea    0xac7b(%rip),%rax        # 15944 <g_599>
    acc9:	48 89 85 c0 fc ff ff 	mov    %rax,-0x340(%rbp)
    acd0:	48 8d 05 6d ac 00 00 	lea    0xac6d(%rip),%rax        # 15944 <g_599>
    acd7:	48 89 85 c8 fc ff ff 	mov    %rax,-0x338(%rbp)
    acde:	83 85 88 fa ff ff 01 	addl   $0x1,-0x578(%rbp)
    ace5:	66 c7 05 08 a9 00 00 	movw   $0x2,0xa908(%rip)        # 155f6 <g_224+0x6>
    acec:	02 00 
    acee:	eb 24                	jmp    ad14 <func_28+0x9db>
    acf0:	83 bd 88 fa ff ff 00 	cmpl   $0x0,-0x578(%rbp)
    acf7:	75 29                	jne    ad22 <func_28+0x9e9>
    acf9:	0f b6 45 bd          	movzbl -0x43(%rbp),%eax
    acfd:	83 e8 01             	sub    $0x1,%eax
    ad00:	88 45 bd             	mov    %al,-0x43(%rbp)
    ad03:	0f b7 05 ec a8 00 00 	movzwl 0xa8ec(%rip),%eax        # 155f6 <g_224+0x6>
    ad0a:	83 e8 01             	sub    $0x1,%eax
    ad0d:	66 89 05 e2 a8 00 00 	mov    %ax,0xa8e2(%rip)        # 155f6 <g_224+0x6>
    ad14:	0f b7 05 db a8 00 00 	movzwl 0xa8db(%rip),%eax        # 155f6 <g_224+0x6>
    ad1b:	66 85 c0             	test   %ax,%ax
    ad1e:	79 d0                	jns    acf0 <func_28+0x9b7>
    ad20:	eb 01                	jmp    ad23 <func_28+0x9ea>
    ad22:	90                   	nop
    ad23:	8b 05 0f e4 00 00    	mov    0xe40f(%rip),%eax        # 19138 <g_384>
    ad29:	83 c0 01             	add    $0x1,%eax
    ad2c:	89 05 06 e4 00 00    	mov    %eax,0xe406(%rip)        # 19138 <g_384>
    ad32:	8b 05 00 e4 00 00    	mov    0xe400(%rip),%eax        # 19138 <g_384>
    ad38:	83 f8 02             	cmp    $0x2,%eax
    ad3b:	0f 86 b6 fe ff ff    	jbe    abf7 <func_28+0x8be>
    ad41:	48 83 85 e0 fa ff ff 	addq   $0x1,-0x520(%rbp)
    ad48:	01 
    ad49:	8b 05 dd a9 00 00    	mov    0xa9dd(%rip),%eax        # 1572c <g_545>
    ad4f:	83 c0 01             	add    $0x1,%eax
    ad52:	89 05 d4 a9 00 00    	mov    %eax,0xa9d4(%rip)        # 1572c <g_545>
    ad58:	8b 05 ce a9 00 00    	mov    0xa9ce(%rip),%eax        # 1572c <g_545>
    ad5e:	83 f8 01             	cmp    $0x1,%eax
    ad61:	0f 86 ef fd ff ff    	jbe    ab56 <func_28+0x81d>
    ad67:	eb 01                	jmp    ad6a <func_28+0xa31>
    ad69:	90                   	nop
    ad6a:	48 8b 05 0f dd 00 00 	mov    0xdd0f(%rip),%rax        # 18a80 <g_597>
    ad71:	48 8b 00             	mov    (%rax),%rax
    ad74:	8b 10                	mov    (%rax),%edx
    ad76:	48 8b 05 03 dd 00 00 	mov    0xdd03(%rip),%rax        # 18a80 <g_597>
    ad7d:	48 8b 00             	mov    (%rax),%rax
    ad80:	0b 95 cc fa ff ff    	or     -0x534(%rbp),%edx
    ad86:	89 10                	mov    %edx,(%rax)
    ad88:	e9 51 01 00 00       	jmpq   aede <func_28+0xba5>
    ad8d:	48 c7 85 30 fb ff ff 	movq   $0x0,-0x4d0(%rbp)
    ad94:	00 00 00 00 
    ad98:	48 8d 05 23 a4 00 00 	lea    0xa423(%rip),%rax        # 151c2 <g_172>
    ad9f:	48 89 85 38 fb ff ff 	mov    %rax,-0x4c8(%rbp)
    ada6:	48 b8 0d 7a 2f 8f e4 	movabs $0xcbd3d9e48f2f7a0d,%rax
    adad:	d9 d3 cb 
    adb0:	48 89 85 40 fb ff ff 	mov    %rax,-0x4c0(%rbp)
    adb7:	48 8d 85 78 fa ff ff 	lea    -0x588(%rbp),%rax
    adbe:	48 89 85 28 fb ff ff 	mov    %rax,-0x4d8(%rbp)
    adc5:	0f b7 05 f6 a3 00 00 	movzwl 0xa3f6(%rip),%eax        # 151c2 <g_172>
    adcc:	0f b7 d8             	movzwl %ax,%ebx
    adcf:	8b 85 64 fa ff ff    	mov    -0x59c(%rbp),%eax
    add5:	89 c0                	mov    %eax,%eax
    add7:	be 06 00 00 00       	mov    $0x6,%esi
    addc:	48 89 c7             	mov    %rax,%rdi
    addf:	e8 67 c2 ff ff       	callq  704b <safe_sub_func_uint64_t_u_u>
    ade4:	0f b7 c0             	movzwl %ax,%eax
    ade7:	89 de                	mov    %ebx,%esi
    ade9:	89 c7                	mov    %eax,%edi
    adeb:	e8 6c bf ff ff       	callq  6d5c <safe_mod_func_uint16_t_u_u>
    adf0:	0f be 9d 60 fa ff ff 	movsbl -0x5a0(%rbp),%ebx
    adf7:	be 06 00 00 00       	mov    $0x6,%esi
    adfc:	bf ff ff 00 00       	mov    $0xffff,%edi
    ae01:	e8 56 bf ff ff       	callq  6d5c <safe_mod_func_uint16_t_u_u>
    ae06:	89 de                	mov    %ebx,%esi
    ae08:	bf 01 00 00 00       	mov    $0x1,%edi
    ae0d:	e8 c1 b5 ff ff       	callq  63d3 <safe_sub_func_int16_t_s_s>
    ae12:	66 85 c0             	test   %ax,%ax
    ae15:	74 07                	je     ae1e <func_28+0xae5>
    ae17:	b8 01 00 00 00       	mov    $0x1,%eax
    ae1c:	eb 05                	jmp    ae23 <func_28+0xaea>
    ae1e:	b8 00 00 00 00       	mov    $0x0,%eax
    ae23:	0f b6 c0             	movzbl %al,%eax
    ae26:	89 c6                	mov    %eax,%esi
    ae28:	bf d6 00 00 00       	mov    $0xd6,%edi
    ae2d:	e8 61 bd ff ff       	callq  6b93 <safe_mul_func_uint8_t_u_u>
    ae32:	0f b6 d8             	movzbl %al,%ebx
    ae35:	48 83 bd 38 fb ff ff 	cmpq   $0x0,-0x4c8(%rbp)
    ae3c:	00 
    ae3d:	0f 95 c0             	setne  %al
    ae40:	0f b6 d0             	movzbl %al,%edx
    ae43:	0f be 85 60 fa ff ff 	movsbl -0x5a0(%rbp),%eax
    ae4a:	89 d6                	mov    %edx,%esi
    ae4c:	89 c7                	mov    %eax,%edi
    ae4e:	e8 65 c0 ff ff       	callq  6eb8 <safe_add_func_uint32_t_u_u>
    ae53:	89 de                	mov    %ebx,%esi
    ae55:	bf 01 00 00 00       	mov    $0x1,%edi
    ae5a:	e8 4f bd ff ff       	callq  6bae <safe_mod_func_uint8_t_u_u>
    ae5f:	8b 05 c3 a8 00 00    	mov    0xa8c3(%rip),%eax        # 15728 <g_544>
    ae65:	85 c0                	test   %eax,%eax
    ae67:	74 07                	je     ae70 <func_28+0xb37>
    ae69:	b8 01 00 00 00       	mov    $0x1,%eax
    ae6e:	eb 05                	jmp    ae75 <func_28+0xb3c>
    ae70:	b8 00 00 00 00       	mov    $0x0,%eax
    ae75:	48 98                	cltq   
    ae77:	48 89 c7             	mov    %rax,%rdi
    ae7a:	e8 97 b9 ff ff       	callq  6816 <safe_unary_minus_func_int64_t_s>
    ae7f:	48 85 c0             	test   %rax,%rax
    ae82:	75 0a                	jne    ae8e <func_28+0xb55>
    ae84:	48 83 bd 40 fb ff ff 	cmpq   $0x0,-0x4c0(%rbp)
    ae8b:	00 
    ae8c:	74 07                	je     ae95 <func_28+0xb5c>
    ae8e:	b8 01 00 00 00       	mov    $0x1,%eax
    ae93:	eb 05                	jmp    ae9a <func_28+0xb61>
    ae95:	b8 00 00 00 00       	mov    $0x0,%eax
    ae9a:	85 c0                	test   %eax,%eax
    ae9c:	0f 94 c0             	sete   %al
    ae9f:	0f b6 d0             	movzbl %al,%edx
    aea2:	8b 85 64 fa ff ff    	mov    -0x59c(%rbp),%eax
    aea8:	39 c2                	cmp    %eax,%edx
    aeaa:	0f 97 c0             	seta   %al
    aead:	0f b6 d0             	movzbl %al,%edx
    aeb0:	48 8b 85 28 fb ff ff 	mov    -0x4d8(%rbp),%rax
    aeb7:	89 10                	mov    %edx,(%rax)
    aeb9:	48 8b 05 c0 db 00 00 	mov    0xdbc0(%rip),%rax        # 18a80 <g_597>
    aec0:	48 8b 00             	mov    (%rax),%rax
    aec3:	48 8b 95 28 fb ff ff 	mov    -0x4d8(%rbp),%rdx
    aeca:	8b 12                	mov    (%rdx),%edx
    aecc:	89 10                	mov    %edx,(%rax)
    aece:	8b 10                	mov    (%rax),%edx
    aed0:	8b 85 08 fe ff ff    	mov    -0x1f8(%rbp),%eax
    aed6:	31 d0                	xor    %edx,%eax
    aed8:	89 85 08 fe ff ff    	mov    %eax,-0x1f8(%rbp)
    aede:	48 8d 15 5f aa 00 00 	lea    0xaa5f(%rip),%rdx        # 15944 <g_599>
    aee5:	48 8b 05 94 db 00 00 	mov    0xdb94(%rip),%rax        # 18a80 <g_597>
    aeec:	48 8b 00             	mov    (%rax),%rax
    aeef:	8b 12                	mov    (%rdx),%edx
    aef1:	89 10                	mov    %edx,(%rax)
    aef3:	8b 00                	mov    (%rax),%eax
    aef5:	85 c0                	test   %eax,%eax
    aef7:	0f 84 cb 00 00 00    	je     afc8 <func_28+0xc8f>
    aefd:	48 8d 05 9c da 00 00 	lea    0xda9c(%rip),%rax        # 189a0 <g_266>
    af04:	48 89 85 58 fb ff ff 	mov    %rax,-0x4a8(%rbp)
    af0b:	c7 85 94 fa ff ff 00 	movl   $0x0,-0x56c(%rbp)
    af12:	00 00 00 
    af15:	eb 1b                	jmp    af32 <func_28+0xbf9>
    af17:	8b 85 94 fa ff ff    	mov    -0x56c(%rbp),%eax
    af1d:	48 98                	cltq   
    af1f:	48 c7 84 c5 40 fc ff 	movq   $0x0,-0x3c0(%rbp,%rax,8)
    af26:	ff 00 00 00 00 
    af2b:	83 85 94 fa ff ff 01 	addl   $0x1,-0x56c(%rbp)
    af32:	83 bd 94 fa ff ff 06 	cmpl   $0x6,-0x56c(%rbp)
    af39:	7e dc                	jle    af17 <func_28+0xbde>
    af3b:	48 8b 85 58 fb ff ff 	mov    -0x4a8(%rbp),%rax
    af42:	48 c7 00 00 00 00 00 	movq   $0x0,(%rax)
    af49:	c7 05 85 a7 00 00 00 	movl   $0x0,0xa785(%rip)        # 156d8 <g_441>
    af50:	00 00 00 
    af53:	eb 66                	jmp    afbb <func_28+0xc82>
    af55:	48 8b 85 20 fb ff ff 	mov    -0x4e0(%rbp),%rax
    af5c:	0f b6 00             	movzbl (%rax),%eax
    af5f:	8d 50 01             	lea    0x1(%rax),%edx
    af62:	48 8b 85 20 fb ff ff 	mov    -0x4e0(%rbp),%rax
    af69:	88 10                	mov    %dl,(%rax)
    af6b:	48 8b 85 20 fb ff ff 	mov    -0x4e0(%rbp),%rax
    af72:	0f b6 18             	movzbl (%rax),%ebx
    af75:	8b 85 64 fa ff ff    	mov    -0x59c(%rbp),%eax
    af7b:	0f b6 c0             	movzbl %al,%eax
    af7e:	be 01 00 00 00       	mov    $0x1,%esi
    af83:	89 c7                	mov    %eax,%edi
    af85:	e8 24 bc ff ff       	callq  6bae <safe_mod_func_uint8_t_u_u>
    af8a:	38 c3                	cmp    %al,%bl
    af8c:	0f 92 c0             	setb   %al
    af8f:	0f b6 c8             	movzbl %al,%ecx
    af92:	48 8b 05 e7 da 00 00 	mov    0xdae7(%rip),%rax        # 18a80 <g_597>
    af99:	48 8b 00             	mov    (%rax),%rax
    af9c:	8b 10                	mov    (%rax),%edx
    af9e:	48 8b 05 db da 00 00 	mov    0xdadb(%rip),%rax        # 18a80 <g_597>
    afa5:	48 8b 00             	mov    (%rax),%rax
    afa8:	21 ca                	and    %ecx,%edx
    afaa:	89 10                	mov    %edx,(%rax)
    afac:	8b 05 26 a7 00 00    	mov    0xa726(%rip),%eax        # 156d8 <g_441>
    afb2:	83 c0 01             	add    $0x1,%eax
    afb5:	89 05 1d a7 00 00    	mov    %eax,0xa71d(%rip)        # 156d8 <g_441>
    afbb:	8b 05 17 a7 00 00    	mov    0xa717(%rip),%eax        # 156d8 <g_441>
    afc1:	83 f8 05             	cmp    $0x5,%eax
    afc4:	77 8f                	ja     af55 <func_28+0xc1c>
    afc6:	eb 35                	jmp    affd <func_28+0xcc4>
    afc8:	48 8b 85 68 fa ff ff 	mov    -0x598(%rbp),%rax
    afcf:	48 8b 8d 90 fb ff ff 	mov    -0x470(%rbp),%rcx
    afd6:	48 8b 9d 98 fb ff ff 	mov    -0x468(%rbp),%rbx
    afdd:	48 89 08             	mov    %rcx,(%rax)
    afe0:	48 89 58 08          	mov    %rbx,0x8(%rax)
    afe4:	8b 95 a0 fb ff ff    	mov    -0x460(%rbp),%edx
    afea:	89 50 10             	mov    %edx,0x10(%rax)
    afed:	0f b7 95 a4 fb ff ff 	movzwl -0x45c(%rbp),%edx
    aff4:	66 89 50 14          	mov    %dx,0x14(%rax)
    aff8:	e9 50 02 00 00       	jmpq   b24d <func_28+0xf14>
    affd:	48 8d 05 74 da 00 00 	lea    0xda74(%rip),%rax        # 18a78 <g_592+0x8>
    b004:	48 39 85 00 fb ff ff 	cmp    %rax,-0x500(%rbp)
    b00b:	0f 95 85 63 fa ff ff 	setne  -0x59d(%rbp)
    b012:	0f be 9d 60 fa ff ff 	movsbl -0x5a0(%rbp),%ebx
    b019:	48 8b 85 10 fb ff ff 	mov    -0x4f0(%rbp),%rax
    b020:	c6 00 00             	movb   $0x0,(%rax)
    b023:	48 8b 85 08 fb ff ff 	mov    -0x4f8(%rbp),%rax
    b02a:	0f b7 00             	movzwl (%rax),%eax
    b02d:	8d 50 ff             	lea    -0x1(%rax),%edx
    b030:	48 8b 85 08 fb ff ff 	mov    -0x4f8(%rbp),%rax
    b037:	66 89 10             	mov    %dx,(%rax)
    b03a:	48 8b 85 08 fb ff ff 	mov    -0x4f8(%rbp),%rax
    b041:	0f b7 00             	movzwl (%rax),%eax
    b044:	0f b7 c0             	movzwl %ax,%eax
    b047:	be 07 00 00 00       	mov    $0x7,%esi
    b04c:	89 c7                	mov    %eax,%edi
    b04e:	e8 27 be ff ff       	callq  6e7a <safe_rshift_func_uint16_t_u_u>
    b053:	0f be c0             	movsbl %al,%eax
    b056:	be 00 00 00 00       	mov    $0x0,%esi
    b05b:	89 c7                	mov    %eax,%edi
    b05d:	e8 b0 b1 ff ff       	callq  6212 <safe_mul_func_int8_t_s_s>
    b062:	44 0f be f8          	movsbl %al,%r15d
    b066:	8b 85 64 fa ff ff    	mov    -0x59c(%rbp),%eax
    b06c:	89 c0                	mov    %eax,%eax
    b06e:	48 89 85 58 fa ff ff 	mov    %rax,-0x5a8(%rbp)
    b075:	8b 85 78 fa ff ff    	mov    -0x588(%rbp),%eax
    b07b:	44 0f bf e0          	movswl %ax,%r12d
    b07f:	8b 85 64 fa ff ff    	mov    -0x59c(%rbp),%eax
    b085:	44 0f b6 e8          	movzbl %al,%r13d
    b089:	8b 85 64 fa ff ff    	mov    -0x59c(%rbp),%eax
    b08f:	89 c0                	mov    %eax,%eax
    b091:	48 89 85 50 fa ff ff 	mov    %rax,-0x5b0(%rbp)
    b098:	48 8b 85 e8 fa ff ff 	mov    -0x518(%rbp),%rax
    b09f:	89 85 4c fa ff ff    	mov    %eax,-0x5b4(%rbp)
    b0a5:	48 8b 05 ac d9 00 00 	mov    0xd9ac(%rip),%rax        # 18a58 <g_490>
    b0ac:	0f b6 00             	movzbl (%rax),%eax
    b0af:	44 0f be f0          	movsbl %al,%r14d
    b0b3:	48 8b 05 16 a9 00 00 	mov    0xa916(%rip),%rax        # 159d0 <g_842+0x70>
    b0ba:	48 8b 15 17 a9 00 00 	mov    0xa917(%rip),%rdx        # 159d8 <g_842+0x78>
    b0c1:	8b 95 a8 fa ff ff    	mov    -0x558(%rbp),%edx
    b0c7:	8b 85 64 fa ff ff    	mov    -0x59c(%rbp),%eax
    b0cd:	39 c2                	cmp    %eax,%edx
    b0cf:	0f 92 c0             	setb   %al
    b0d2:	0f b6 c0             	movzbl %al,%eax
    b0d5:	be 01 00 00 00       	mov    $0x1,%esi
    b0da:	89 c7                	mov    %eax,%edi
    b0dc:	e8 00 b4 ff ff       	callq  64e1 <safe_lshift_func_int16_t_s_u>
    b0e1:	89 c2                	mov    %eax,%edx
    b0e3:	48 8b 85 18 fb ff ff 	mov    -0x4e8(%rbp),%rax
    b0ea:	0f b6 00             	movzbl (%rax),%eax
    b0ed:	89 c1                	mov    %eax,%ecx
    b0ef:	89 d0                	mov    %edx,%eax
    b0f1:	21 c8                	and    %ecx,%eax
    b0f3:	89 c2                	mov    %eax,%edx
    b0f5:	48 8b 85 18 fb ff ff 	mov    -0x4e8(%rbp),%rax
    b0fc:	88 10                	mov    %dl,(%rax)
    b0fe:	48 8b 05 bb d7 00 00 	mov    0xd7bb(%rip),%rax        # 188c0 <g_171>
    b105:	66 c7 00 01 00       	movw   $0x1,(%rax)
    b10a:	0f be 95 60 fa ff ff 	movsbl -0x5a0(%rbp),%edx
    b111:	8b 05 9d 9f 00 00    	mov    0x9f9d(%rip),%eax        # 150b4 <g_81>
    b117:	39 c2                	cmp    %eax,%edx
    b119:	0f 9c c0             	setl   %al
    b11c:	0f b6 c0             	movzbl %al,%eax
    b11f:	44 89 f6             	mov    %r14d,%esi
    b122:	89 c7                	mov    %eax,%edi
    b124:	e8 dc ba ff ff       	callq  6c05 <safe_lshift_func_uint8_t_u_s>
    b129:	0f b6 c0             	movzbl %al,%eax
    b12c:	8b b5 4c fa ff ff    	mov    -0x5b4(%rbp),%esi
    b132:	89 c7                	mov    %eax,%edi
    b134:	e8 7f bd ff ff       	callq  6eb8 <safe_add_func_uint32_t_u_u>
    b139:	89 c0                	mov    %eax,%eax
    b13b:	48 8b b5 50 fa ff ff 	mov    -0x5b0(%rbp),%rsi
    b142:	48 89 c7             	mov    %rax,%rdi
    b145:	e8 ad b8 ff ff       	callq  69f7 <safe_div_func_int64_t_s_s>
    b14a:	0f b6 c0             	movzbl %al,%eax
    b14d:	44 89 ee             	mov    %r13d,%esi
    b150:	89 c7                	mov    %eax,%edi
    b152:	e8 03 ba ff ff       	callq  6b5a <safe_add_func_uint8_t_u_u>
    b157:	48 8b 05 f2 a7 00 00 	mov    0xa7f2(%rip),%rax        # 15950 <g_829>
    b15e:	48 8d 50 01          	lea    0x1(%rax),%rdx
    b162:	48 89 15 e7 a7 00 00 	mov    %rdx,0xa7e7(%rip)        # 15950 <g_829>
    b169:	89 c1                	mov    %eax,%ecx
    b16b:	0f be 95 60 fa ff ff 	movsbl -0x5a0(%rbp),%edx
    b172:	48 8b 05 47 d7 00 00 	mov    0xd747(%rip),%rax        # 188c0 <g_171>
    b179:	0f b7 00             	movzwl (%rax),%eax
    b17c:	98                   	cwtl   
    b17d:	09 d0                	or     %edx,%eax
    b17f:	89 c2                	mov    %eax,%edx
    b181:	8b 85 64 fa ff ff    	mov    -0x59c(%rbp),%eax
    b187:	39 c2                	cmp    %eax,%edx
    b189:	0f 97 c0             	seta   %al
    b18c:	0f b6 c0             	movzbl %al,%eax
    b18f:	09 c8                	or     %ecx,%eax
    b191:	98                   	cwtl   
    b192:	44 89 e6             	mov    %r12d,%esi
    b195:	89 c7                	mov    %eax,%edi
    b197:	e8 7a b2 ff ff       	callq  6416 <safe_mod_func_int16_t_s_s>
    b19c:	66 85 c0             	test   %ax,%ax
    b19f:	75 0c                	jne    b1ad <func_28+0xe74>
    b1a1:	48 8b 05 a8 a7 00 00 	mov    0xa7a8(%rip),%rax        # 15950 <g_829>
    b1a8:	48 85 c0             	test   %rax,%rax
    b1ab:	74 07                	je     b1b4 <func_28+0xe7b>
    b1ad:	b8 01 00 00 00       	mov    $0x1,%eax
    b1b2:	eb 05                	jmp    b1b9 <func_28+0xe80>
    b1b4:	b8 00 00 00 00       	mov    $0x0,%eax
    b1b9:	48 98                	cltq   
    b1bb:	48 c7 c6 ff ff ff ff 	mov    $0xffffffffffffffff,%rsi
    b1c2:	48 89 c7             	mov    %rax,%rdi
    b1c5:	e8 b6 be ff ff       	callq  7080 <safe_mod_func_uint64_t_u_u>
    b1ca:	48 39 85 58 fa ff ff 	cmp    %rax,-0x5a8(%rbp)
    b1d1:	0f 93 c0             	setae  %al
    b1d4:	0f b6 c0             	movzbl %al,%eax
    b1d7:	41 39 c7             	cmp    %eax,%r15d
    b1da:	0f 9f c0             	setg   %al
    b1dd:	0f b6 c0             	movzbl %al,%eax
    b1e0:	89 de                	mov    %ebx,%esi
    b1e2:	89 c7                	mov    %eax,%edi
    b1e4:	e8 d5 ba ff ff       	callq  6cbe <safe_rshift_func_uint8_t_u_u>
    b1e9:	84 c0                	test   %al,%al
    b1eb:	75 09                	jne    b1f6 <func_28+0xebd>
    b1ed:	80 bd 75 fa ff ff 00 	cmpb   $0x0,-0x58b(%rbp)
    b1f4:	74 07                	je     b1fd <func_28+0xec4>
    b1f6:	b8 01 00 00 00       	mov    $0x1,%eax
    b1fb:	eb 05                	jmp    b202 <func_28+0xec9>
    b1fd:	b8 00 00 00 00       	mov    $0x0,%eax
    b202:	83 e0 01             	and    $0x1,%eax
    b205:	32 85 63 fa ff ff    	xor    -0x59d(%rbp),%al
    b20b:	0f b6 c0             	movzbl %al,%eax
    b20e:	48 8d 15 2f a7 00 00 	lea    0xa72f(%rip),%rdx        # 15944 <g_599>
    b215:	23 85 a0 fa ff ff    	and    -0x560(%rbp),%eax
    b21b:	89 02                	mov    %eax,(%rdx)
    b21d:	48 8b 85 68 fa ff ff 	mov    -0x598(%rbp),%rax
    b224:	48 8b 8d 70 fb ff ff 	mov    -0x490(%rbp),%rcx
    b22b:	48 8b 9d 78 fb ff ff 	mov    -0x488(%rbp),%rbx
    b232:	48 89 08             	mov    %rcx,(%rax)
    b235:	48 89 58 08          	mov    %rbx,0x8(%rax)
    b239:	8b 95 80 fb ff ff    	mov    -0x480(%rbp),%edx
    b23f:	89 50 10             	mov    %edx,0x10(%rax)
    b242:	0f b7 95 84 fb ff ff 	movzwl -0x47c(%rbp),%edx
    b249:	66 89 50 14          	mov    %dx,0x14(%rax)
    b24d:	48 8b 45 c8          	mov    -0x38(%rbp),%rax
    b251:	64 48 33 04 25 28 00 	xor    %fs:0x28,%rax
    b258:	00 00 
    b25a:	74 05                	je     b261 <func_28+0xf28>
    b25c:	e8 0f ae ff ff       	callq  6070 <__stack_chk_fail@plt>
    b261:	48 8b 85 68 fa ff ff 	mov    -0x598(%rbp),%rax
    b268:	48 81 c4 98 05 00 00 	add    $0x598,%rsp
    b26f:	5b                   	pop    %rbx
    b270:	41 5c                	pop    %r12
    b272:	41 5d                	pop    %r13
    b274:	41 5e                	pop    %r14
    b276:	41 5f                	pop    %r15
    b278:	5d                   	pop    %rbp
    b279:	c3                   	retq   

000000000000b27a <func_33>:
    b27a:	f3 0f 1e fa          	endbr64 
    b27e:	55                   	push   %rbp
    b27f:	48 89 e5             	mov    %rsp,%rbp
    b282:	89 f8                	mov    %edi,%eax
    b284:	89 75 e8             	mov    %esi,-0x18(%rbp)
    b287:	48 89 55 e0          	mov    %rdx,-0x20(%rbp)
    b28b:	88 45 ec             	mov    %al,-0x14(%rbp)
    b28e:	c6 45 ff 00          	movb   $0x0,-0x1(%rbp)
    b292:	0f b6 45 ff          	movzbl -0x1(%rbp),%eax
    b296:	83 e8 01             	sub    $0x1,%eax
    b299:	88 45 ff             	mov    %al,-0x1(%rbp)
    b29c:	48 8b 45 e0          	mov    -0x20(%rbp),%rax
    b2a0:	5d                   	pop    %rbp
    b2a1:	c3                   	retq   

000000000000b2a2 <func_39>:
    b2a2:	f3 0f 1e fa          	endbr64 
    b2a6:	55                   	push   %rbp
    b2a7:	48 89 e5             	mov    %rsp,%rbp
    b2aa:	41 54                	push   %r12
    b2ac:	53                   	push   %rbx
    b2ad:	48 81 ec e0 02 00 00 	sub    $0x2e0,%rsp
    b2b4:	89 f8                	mov    %edi,%eax
    b2b6:	48 89 b5 20 fd ff ff 	mov    %rsi,-0x2e0(%rbp)
    b2bd:	48 89 95 18 fd ff ff 	mov    %rdx,-0x2e8(%rbp)
    b2c4:	48 89 8d 10 fd ff ff 	mov    %rcx,-0x2f0(%rbp)
    b2cb:	88 85 2c fd ff ff    	mov    %al,-0x2d4(%rbp)
    b2d1:	64 48 8b 04 25 28 00 	mov    %fs:0x28,%rax
    b2d8:	00 00 
    b2da:	48 89 45 e8          	mov    %rax,-0x18(%rbp)
    b2de:	31 c0                	xor    %eax,%eax
    b2e0:	48 8d 85 e0 fd ff ff 	lea    -0x220(%rbp),%rax
    b2e7:	48 8d 15 32 c8 00 00 	lea    0xc832(%rip),%rdx        # 17b20 <g_1915+0x11d0>
    b2ee:	b9 40 00 00 00       	mov    $0x40,%ecx
    b2f3:	48 89 c7             	mov    %rax,%rdi
    b2f6:	48 89 d6             	mov    %rdx,%rsi
    b2f9:	f3 48 a5             	rep movsq %ds:(%rsi),%es:(%rdi)
    b2fc:	c7 85 60 fd ff ff f9 	movl   $0xfffffff9,-0x2a0(%rbp)
    b303:	ff ff ff 
    b306:	c7 85 64 fd ff ff 6d 	movl   $0x4a439c6d,-0x29c(%rbp)
    b30d:	9c 43 4a 
    b310:	c7 85 68 fd ff ff 01 	movl   $0x1,-0x298(%rbp)
    b317:	00 00 00 
    b31a:	c7 85 6c fd ff ff 4e 	movl   $0xe6a9d74e,-0x294(%rbp)
    b321:	d7 a9 e6 
    b324:	c7 85 70 fd ff ff 6d 	movl   $0x4a439c6d,-0x290(%rbp)
    b32b:	9c 43 4a 
    b32e:	c7 85 74 fd ff ff 4e 	movl   $0xe6a9d74e,-0x28c(%rbp)
    b335:	d7 a9 e6 
    b338:	c7 85 78 fd ff ff ff 	movl   $0xffffffff,-0x288(%rbp)
    b33f:	ff ff ff 
    b342:	c7 85 7c fd ff ff f9 	movl   $0xfffffff9,-0x284(%rbp)
    b349:	ff ff ff 
    b34c:	c7 85 80 fd ff ff 01 	movl   $0x1,-0x280(%rbp)
    b353:	00 00 00 
    b356:	c7 85 84 fd ff ff ff 	movl   $0xffffffff,-0x27c(%rbp)
    b35d:	ff ff ff 
    b360:	c7 85 88 fd ff ff ff 	movl   $0xffffffff,-0x278(%rbp)
    b367:	ff ff ff 
    b36a:	c7 85 8c fd ff ff f9 	movl   $0xfffffff9,-0x274(%rbp)
    b371:	ff ff ff 
    b374:	c7 85 90 fd ff ff 4e 	movl   $0xe6a9d74e,-0x270(%rbp)
    b37b:	d7 a9 e6 
    b37e:	c7 85 94 fd ff ff f9 	movl   $0xfffffff9,-0x26c(%rbp)
    b385:	ff ff ff 
    b388:	c7 85 98 fd ff ff f9 	movl   $0xfffffff9,-0x268(%rbp)
    b38f:	ff ff ff 
    b392:	c7 85 9c fd ff ff f9 	movl   $0xfffffff9,-0x264(%rbp)
    b399:	ff ff ff 
    b39c:	c7 85 a0 fd ff ff 6d 	movl   $0x4a439c6d,-0x260(%rbp)
    b3a3:	9c 43 4a 
    b3a6:	c7 85 a4 fd ff ff 01 	movl   $0x1,-0x25c(%rbp)
    b3ad:	00 00 00 
    b3b0:	c7 85 a8 fd ff ff 4e 	movl   $0xe6a9d74e,-0x258(%rbp)
    b3b7:	d7 a9 e6 
    b3ba:	c7 85 ac fd ff ff 6d 	movl   $0x4a439c6d,-0x254(%rbp)
    b3c1:	9c 43 4a 
    b3c4:	c7 85 b0 fd ff ff 4e 	movl   $0xe6a9d74e,-0x250(%rbp)
    b3cb:	d7 a9 e6 
    b3ce:	c7 85 b4 fd ff ff ff 	movl   $0xffffffff,-0x24c(%rbp)
    b3d5:	ff ff ff 
    b3d8:	c7 85 b8 fd ff ff f9 	movl   $0xfffffff9,-0x248(%rbp)
    b3df:	ff ff ff 
    b3e2:	c7 85 bc fd ff ff 01 	movl   $0x1,-0x244(%rbp)
    b3e9:	00 00 00 
    b3ec:	c7 85 c0 fd ff ff ff 	movl   $0xffffffff,-0x240(%rbp)
    b3f3:	ff ff ff 
    b3f6:	c7 85 c4 fd ff ff ff 	movl   $0xffffffff,-0x23c(%rbp)
    b3fd:	ff ff ff 
    b400:	c7 85 c8 fd ff ff f9 	movl   $0xfffffff9,-0x238(%rbp)
    b407:	ff ff ff 
    b40a:	c7 85 cc fd ff ff 4e 	movl   $0xe6a9d74e,-0x234(%rbp)
    b411:	d7 a9 e6 
    b414:	c7 85 d0 fd ff ff f9 	movl   $0xfffffff9,-0x230(%rbp)
    b41b:	ff ff ff 
    b41e:	c7 85 d4 fd ff ff f9 	movl   $0xfffffff9,-0x22c(%rbp)
    b425:	ff ff ff 
    b428:	c7 85 30 fd ff ff 02 	movl   $0x2,-0x2d0(%rbp)
    b42f:	00 00 00 
    b432:	c7 85 34 fd ff ff e1 	movl   $0x724d4ee1,-0x2cc(%rbp)
    b439:	4e 4d 72 
    b43c:	c7 85 38 fd ff ff ea 	movl   $0x992f04ea,-0x2c8(%rbp)
    b443:	04 2f 99 
    b446:	c7 85 3c fd ff ff ea 	movl   $0x992f04ea,-0x2c4(%rbp)
    b44d:	04 2f 99 
    b450:	c7 85 40 fd ff ff e1 	movl   $0x724d4ee1,-0x2c0(%rbp)
    b457:	4e 4d 72 
    b45a:	c7 85 44 fd ff ff 02 	movl   $0x2,-0x2bc(%rbp)
    b461:	00 00 00 
    b464:	c7 85 48 fd ff ff e1 	movl   $0x724d4ee1,-0x2b8(%rbp)
    b46b:	4e 4d 72 
    b46e:	c7 85 4c fd ff ff ea 	movl   $0x992f04ea,-0x2b4(%rbp)
    b475:	04 2f 99 
    b478:	c7 85 50 fd ff ff ea 	movl   $0x992f04ea,-0x2b0(%rbp)
    b47f:	04 2f 99 
    b482:	c7 85 54 fd ff ff e1 	movl   $0x724d4ee1,-0x2ac(%rbp)
    b489:	4e 4d 72 
    b48c:	c7 85 8c fd ff ff 07 	movl   $0x7,-0x274(%rbp)
    b493:	00 00 00 
    b496:	48 8b 85 60 ff ff ff 	mov    -0xa0(%rbp),%rax
    b49d:	48 85 c0             	test   %rax,%rax
    b4a0:	0f 94 c0             	sete   %al
    b4a3:	41 89 c4             	mov    %eax,%r12d
    b4a6:	48 8b 05 9b d5 00 00 	mov    0xd59b(%rip),%rax        # 18a48 <g_389>
    b4ad:	8b 00                	mov    (%rax),%eax
    b4af:	89 c3                	mov    %eax,%ebx
    b4b1:	8b 95 3c fd ff ff    	mov    -0x2c4(%rbp),%edx
    b4b7:	48 8b 05 8a d5 00 00 	mov    0xd58a(%rip),%rax        # 18a48 <g_389>
    b4be:	8b 00                	mov    (%rax),%eax
    b4c0:	89 d6                	mov    %edx,%esi
    b4c2:	89 c7                	mov    %eax,%edi
    b4c4:	e8 3c b1 ff ff       	callq  6605 <safe_sub_func_int32_t_s_s>
    b4c9:	85 c0                	test   %eax,%eax
    b4cb:	74 0f                	je     b4dc <func_39+0x23a>
    b4cd:	0f b6 45 19          	movzbl 0x19(%rbp),%eax
    b4d1:	84 c0                	test   %al,%al
    b4d3:	74 07                	je     b4dc <func_39+0x23a>
    b4d5:	b8 01 00 00 00       	mov    $0x1,%eax
    b4da:	eb 05                	jmp    b4e1 <func_39+0x23f>
    b4dc:	b8 00 00 00 00       	mov    $0x0,%eax
    b4e1:	83 f8 42             	cmp    $0x42,%eax
    b4e4:	0f 9f c0             	setg   %al
    b4e7:	0f b6 d0             	movzbl %al,%edx
    b4ea:	48 8b 05 3f dc 00 00 	mov    0xdc3f(%rip),%rax        # 19130 <g_336>
    b4f1:	8b 00                	mov    (%rax),%eax
    b4f3:	21 d0                	and    %edx,%eax
    b4f5:	39 c3                	cmp    %eax,%ebx
    b4f7:	0f 93 c0             	setae  %al
    b4fa:	0f b6 c0             	movzbl %al,%eax
    b4fd:	48 be 69 fe 59 f6 1d 	movabs $0xf881871df659fe69,%rsi
    b504:	87 81 f8 
    b507:	48 89 c7             	mov    %rax,%rdi
    b50a:	e8 71 bb ff ff       	callq  7080 <safe_mod_func_uint64_t_u_u>
    b50f:	be 00 00 00 00       	mov    $0x0,%esi
    b514:	bf 1c 00 00 00       	mov    $0x1c,%edi
    b519:	e8 3c b6 ff ff       	callq  6b5a <safe_add_func_uint8_t_u_u>
    b51e:	48 8b 55 10          	mov    0x10(%rbp),%rdx
    b522:	31 d0                	xor    %edx,%eax
    b524:	44 31 e0             	xor    %r12d,%eax
    b527:	0f be c0             	movsbl %al,%eax
    b52a:	be 04 00 00 00       	mov    $0x4,%esi
    b52f:	89 c7                	mov    %eax,%edi
    b531:	e8 ff ad ff ff       	callq  6335 <safe_rshift_func_int8_t_s_s>
    b536:	66 98                	cbtw   
    b538:	34 9c                	xor    $0x9c,%al
    b53a:	98                   	cwtl   
    b53b:	be 01 00 00 00       	mov    $0x1,%esi
    b540:	89 c7                	mov    %eax,%edi
    b542:	e8 4b af ff ff       	callq  6492 <safe_lshift_func_int16_t_s_s>
    b547:	89 c1                	mov    %eax,%ecx
    b549:	48 8b 05 f0 d4 00 00 	mov    0xd4f0(%rip),%rax        # 18a40 <g_388>
    b550:	0f b6 10             	movzbl (%rax),%edx
    b553:	48 8b 05 e6 d4 00 00 	mov    0xd4e6(%rip),%rax        # 18a40 <g_388>
    b55a:	21 ca                	and    %ecx,%edx
    b55c:	88 10                	mov    %dl,(%rax)
    b55e:	0f b6 00             	movzbl (%rax),%eax
    b561:	0f be c0             	movsbl %al,%eax
    b564:	89 c7                	mov    %eax,%edi
    b566:	e8 54 ac ff ff       	callq  61bf <safe_unary_minus_func_int8_t_s>
    b56b:	0f be c0             	movsbl %al,%eax
    b56e:	83 e0 07             	and    $0x7,%eax
    b571:	89 c1                	mov    %eax,%ecx
    b573:	48 8d 05 ca a3 00 00 	lea    0xa3ca(%rip),%rax        # 15944 <g_599>
    b57a:	8b 10                	mov    (%rax),%edx
    b57c:	48 8d 05 c1 a3 00 00 	lea    0xa3c1(%rip),%rax        # 15944 <g_599>
    b583:	31 ca                	xor    %ecx,%edx
    b585:	89 10                	mov    %edx,(%rax)
    b587:	0f b6 45 18          	movzbl 0x18(%rbp),%eax
    b58b:	0f b6 c0             	movzbl %al,%eax
    b58e:	48 8b 5d e8          	mov    -0x18(%rbp),%rbx
    b592:	64 48 33 1c 25 28 00 	xor    %fs:0x28,%rbx
    b599:	00 00 
    b59b:	74 05                	je     b5a2 <func_39+0x300>
    b59d:	e8 ce aa ff ff       	callq  6070 <__stack_chk_fail@plt>
    b5a2:	48 81 c4 e0 02 00 00 	add    $0x2e0,%rsp
    b5a9:	5b                   	pop    %rbx
    b5aa:	41 5c                	pop    %r12
    b5ac:	5d                   	pop    %rbp
    b5ad:	c3                   	retq   

000000000000b5ae <func_48>:
    b5ae:	f3 0f 1e fa          	endbr64 
    b5b2:	55                   	push   %rbp
    b5b3:	48 89 e5             	mov    %rsp,%rbp
    b5b6:	41 56                	push   %r14
    b5b8:	41 55                	push   %r13
    b5ba:	41 54                	push   %r12
    b5bc:	53                   	push   %rbx
    b5bd:	48 81 ec a0 0a 00 00 	sub    $0xaa0,%rsp
    b5c4:	89 bd 5c f5 ff ff    	mov    %edi,-0xaa4(%rbp)
    b5ca:	48 89 b5 50 f5 ff ff 	mov    %rsi,-0xab0(%rbp)
    b5d1:	48 89 95 48 f5 ff ff 	mov    %rdx,-0xab8(%rbp)
    b5d8:	89 8d 58 f5 ff ff    	mov    %ecx,-0xaa8(%rbp)
    b5de:	4c 89 85 40 f5 ff ff 	mov    %r8,-0xac0(%rbp)
    b5e5:	64 48 8b 04 25 28 00 	mov    %fs:0x28,%rax
    b5ec:	00 00 
    b5ee:	48 89 45 d8          	mov    %rax,-0x28(%rbp)
    b5f2:	31 c0                	xor    %eax,%eax
    b5f4:	c7 85 e0 f6 ff ff 2e 	movl   $0x7c9a7b2e,-0x920(%rbp)
    b5fb:	7b 9a 7c 
    b5fe:	c7 85 e4 f6 ff ff 2e 	movl   $0x7c9a7b2e,-0x91c(%rbp)
    b605:	7b 9a 7c 
    b608:	c7 85 e8 f6 ff ff 2e 	movl   $0x7c9a7b2e,-0x918(%rbp)
    b60f:	7b 9a 7c 
    b612:	c7 85 ec f6 ff ff 2e 	movl   $0x7c9a7b2e,-0x914(%rbp)
    b619:	7b 9a 7c 
    b61c:	c7 85 f0 f6 ff ff 2e 	movl   $0x7c9a7b2e,-0x910(%rbp)
    b623:	7b 9a 7c 
    b626:	c7 85 f4 f6 ff ff 2e 	movl   $0x7c9a7b2e,-0x90c(%rbp)
    b62d:	7b 9a 7c 
    b630:	c7 85 f8 f6 ff ff 2e 	movl   $0x7c9a7b2e,-0x908(%rbp)
    b637:	7b 9a 7c 
    b63a:	c7 85 fc f6 ff ff 2e 	movl   $0x7c9a7b2e,-0x904(%rbp)
    b641:	7b 9a 7c 
    b644:	c7 85 00 f7 ff ff 2e 	movl   $0x7c9a7b2e,-0x900(%rbp)
    b64b:	7b 9a 7c 
    b64e:	c7 85 04 f7 ff ff 2e 	movl   $0x7c9a7b2e,-0x8fc(%rbp)
    b655:	7b 9a 7c 
    b658:	c7 85 08 f7 ff ff 2e 	movl   $0x7c9a7b2e,-0x8f8(%rbp)
    b65f:	7b 9a 7c 
    b662:	c7 85 0c f7 ff ff 2e 	movl   $0x7c9a7b2e,-0x8f4(%rbp)
    b669:	7b 9a 7c 
    b66c:	c7 85 10 f7 ff ff 2e 	movl   $0x7c9a7b2e,-0x8f0(%rbp)
    b673:	7b 9a 7c 
    b676:	c7 85 14 f7 ff ff 2e 	movl   $0x7c9a7b2e,-0x8ec(%rbp)
    b67d:	7b 9a 7c 
    b680:	c7 85 18 f7 ff ff 2e 	movl   $0x7c9a7b2e,-0x8e8(%rbp)
    b687:	7b 9a 7c 
    b68a:	c7 85 1c f7 ff ff 2e 	movl   $0x7c9a7b2e,-0x8e4(%rbp)
    b691:	7b 9a 7c 
    b694:	c7 85 20 f7 ff ff 2e 	movl   $0x7c9a7b2e,-0x8e0(%rbp)
    b69b:	7b 9a 7c 
    b69e:	c7 85 24 f7 ff ff 2e 	movl   $0x7c9a7b2e,-0x8dc(%rbp)
    b6a5:	7b 9a 7c 
    b6a8:	c7 85 28 f7 ff ff 2e 	movl   $0x7c9a7b2e,-0x8d8(%rbp)
    b6af:	7b 9a 7c 
    b6b2:	c7 85 2c f7 ff ff 2e 	movl   $0x7c9a7b2e,-0x8d4(%rbp)
    b6b9:	7b 9a 7c 
    b6bc:	c7 85 30 f7 ff ff 2e 	movl   $0x7c9a7b2e,-0x8d0(%rbp)
    b6c3:	7b 9a 7c 
    b6c6:	c7 85 34 f7 ff ff 2e 	movl   $0x7c9a7b2e,-0x8cc(%rbp)
    b6cd:	7b 9a 7c 
    b6d0:	c7 85 38 f7 ff ff 2e 	movl   $0x7c9a7b2e,-0x8c8(%rbp)
    b6d7:	7b 9a 7c 
    b6da:	c7 85 3c f7 ff ff 2e 	movl   $0x7c9a7b2e,-0x8c4(%rbp)
    b6e1:	7b 9a 7c 
    b6e4:	c7 85 40 f7 ff ff 2e 	movl   $0x7c9a7b2e,-0x8c0(%rbp)
    b6eb:	7b 9a 7c 
    b6ee:	c7 85 44 f7 ff ff 2e 	movl   $0x7c9a7b2e,-0x8bc(%rbp)
    b6f5:	7b 9a 7c 
    b6f8:	c7 85 48 f7 ff ff 2e 	movl   $0x7c9a7b2e,-0x8b8(%rbp)
    b6ff:	7b 9a 7c 
    b702:	c7 85 4c f7 ff ff 2e 	movl   $0x7c9a7b2e,-0x8b4(%rbp)
    b709:	7b 9a 7c 
    b70c:	c7 85 74 f5 ff ff 05 	movl   $0x5,-0xa8c(%rbp)
    b713:	00 00 00 
    b716:	48 8d 05 93 99 00 00 	lea    0x9993(%rip),%rax        # 150b0 <g_47>
    b71d:	48 89 85 a0 f5 ff ff 	mov    %rax,-0xa60(%rbp)
    b724:	48 8d 05 8d 99 00 00 	lea    0x998d(%rip),%rax        # 150b8 <g_82>
    b72b:	48 89 85 a8 f5 ff ff 	mov    %rax,-0xa58(%rbp)
    b732:	48 8d 05 f7 d9 00 00 	lea    0xd9f7(%rip),%rax        # 19130 <g_336>
    b739:	48 89 85 b0 f5 ff ff 	mov    %rax,-0xa50(%rbp)
    b740:	48 8d 05 f9 d2 00 00 	lea    0xd2f9(%rip),%rax        # 18a40 <g_388>
    b747:	48 89 85 b8 f5 ff ff 	mov    %rax,-0xa48(%rbp)
    b74e:	48 8d 05 db d2 00 00 	lea    0xd2db(%rip),%rax        # 18a30 <g_313>
    b755:	48 89 85 c0 f5 ff ff 	mov    %rax,-0xa40(%rbp)
    b75c:	48 c7 85 c8 f5 ff ff 	movq   $0x0,-0xa38(%rbp)
    b763:	00 00 00 00 
    b767:	66 c7 85 66 f5 ff ff 	movw   $0x1,-0xa9a(%rbp)
    b76e:	01 00 
    b770:	48 8d 05 6d 99 00 00 	lea    0x996d(%rip),%rax        # 150e4 <g_108+0x4>
    b777:	48 89 85 50 f7 ff ff 	mov    %rax,-0x8b0(%rbp)
    b77e:	48 8d 05 5f 99 00 00 	lea    0x995f(%rip),%rax        # 150e4 <g_108+0x4>
    b785:	48 89 85 58 f7 ff ff 	mov    %rax,-0x8a8(%rbp)
    b78c:	48 8d 05 21 99 00 00 	lea    0x9921(%rip),%rax        # 150b4 <g_81>
    b793:	48 89 85 60 f7 ff ff 	mov    %rax,-0x8a0(%rbp)
    b79a:	48 8d 05 13 99 00 00 	lea    0x9913(%rip),%rax        # 150b4 <g_81>
    b7a1:	48 89 85 68 f7 ff ff 	mov    %rax,-0x898(%rbp)
    b7a8:	48 8d 05 35 99 00 00 	lea    0x9935(%rip),%rax        # 150e4 <g_108+0x4>
    b7af:	48 89 85 70 f7 ff ff 	mov    %rax,-0x890(%rbp)
    b7b6:	48 8d 05 27 99 00 00 	lea    0x9927(%rip),%rax        # 150e4 <g_108+0x4>
    b7bd:	48 89 85 78 f7 ff ff 	mov    %rax,-0x888(%rbp)
    b7c4:	48 8d 05 e9 98 00 00 	lea    0x98e9(%rip),%rax        # 150b4 <g_81>
    b7cb:	48 89 85 80 f7 ff ff 	mov    %rax,-0x880(%rbp)
    b7d2:	48 8d 05 db 98 00 00 	lea    0x98db(%rip),%rax        # 150b4 <g_81>
    b7d9:	48 89 85 88 f7 ff ff 	mov    %rax,-0x878(%rbp)
    b7e0:	48 8d 05 fd 98 00 00 	lea    0x98fd(%rip),%rax        # 150e4 <g_108+0x4>
    b7e7:	48 89 85 90 f7 ff ff 	mov    %rax,-0x870(%rbp)
    b7ee:	48 8d 05 ef 98 00 00 	lea    0x98ef(%rip),%rax        # 150e4 <g_108+0x4>
    b7f5:	48 89 85 98 f7 ff ff 	mov    %rax,-0x868(%rbp)
    b7fc:	48 8d 05 e1 98 00 00 	lea    0x98e1(%rip),%rax        # 150e4 <g_108+0x4>
    b803:	48 89 85 a0 f7 ff ff 	mov    %rax,-0x860(%rbp)
    b80a:	48 8d 05 a3 98 00 00 	lea    0x98a3(%rip),%rax        # 150b4 <g_81>
    b811:	48 89 85 a8 f7 ff ff 	mov    %rax,-0x858(%rbp)
    b818:	48 8d 05 95 98 00 00 	lea    0x9895(%rip),%rax        # 150b4 <g_81>
    b81f:	48 89 85 b0 f7 ff ff 	mov    %rax,-0x850(%rbp)
    b826:	48 8d 05 b7 98 00 00 	lea    0x98b7(%rip),%rax        # 150e4 <g_108+0x4>
    b82d:	48 89 85 b8 f7 ff ff 	mov    %rax,-0x848(%rbp)
    b834:	48 8d 05 a9 98 00 00 	lea    0x98a9(%rip),%rax        # 150e4 <g_108+0x4>
    b83b:	48 89 85 c0 f7 ff ff 	mov    %rax,-0x840(%rbp)
    b842:	48 8d 05 6b 98 00 00 	lea    0x986b(%rip),%rax        # 150b4 <g_81>
    b849:	48 89 85 c8 f7 ff ff 	mov    %rax,-0x838(%rbp)
    b850:	48 8d 05 5d 98 00 00 	lea    0x985d(%rip),%rax        # 150b4 <g_81>
    b857:	48 89 85 d0 f7 ff ff 	mov    %rax,-0x830(%rbp)
    b85e:	48 8d 05 7f 98 00 00 	lea    0x987f(%rip),%rax        # 150e4 <g_108+0x4>
    b865:	48 89 85 d8 f7 ff ff 	mov    %rax,-0x828(%rbp)
    b86c:	48 8d 05 71 98 00 00 	lea    0x9871(%rip),%rax        # 150e4 <g_108+0x4>
    b873:	48 89 85 e0 f7 ff ff 	mov    %rax,-0x820(%rbp)
    b87a:	48 8d 05 33 98 00 00 	lea    0x9833(%rip),%rax        # 150b4 <g_81>
    b881:	48 89 85 e8 f7 ff ff 	mov    %rax,-0x818(%rbp)
    b888:	48 8d 85 f0 f7 ff ff 	lea    -0x810(%rbp),%rax
    b88f:	48 8d 15 aa 60 00 00 	lea    0x60aa(%rip),%rdx        # 11940 <g_1649+0x8c8>
    b896:	b9 3c 00 00 00       	mov    $0x3c,%ecx
    b89b:	48 89 c7             	mov    %rax,%rdi
    b89e:	48 89 d6             	mov    %rdx,%rsi
    b8a1:	f3 48 a5             	rep movsq %ds:(%rsi),%es:(%rdi)
    b8a4:	48 8d 05 55 9f 00 00 	lea    0x9f55(%rip),%rax        # 15800 <g_550+0x80>
    b8ab:	48 89 85 f0 f5 ff ff 	mov    %rax,-0xa10(%rbp)
    b8b2:	48 8d 05 47 9f 00 00 	lea    0x9f47(%rip),%rax        # 15800 <g_550+0x80>
    b8b9:	48 89 85 f8 f5 ff ff 	mov    %rax,-0xa08(%rbp)
    b8c0:	48 8d 05 39 9f 00 00 	lea    0x9f39(%rip),%rax        # 15800 <g_550+0x80>
    b8c7:	48 89 85 00 f6 ff ff 	mov    %rax,-0xa00(%rbp)
    b8ce:	48 8d 05 2b 9f 00 00 	lea    0x9f2b(%rip),%rax        # 15800 <g_550+0x80>
    b8d5:	48 89 85 08 f6 ff ff 	mov    %rax,-0x9f8(%rbp)
    b8dc:	48 8d 05 1d 9f 00 00 	lea    0x9f1d(%rip),%rax        # 15800 <g_550+0x80>
    b8e3:	48 89 85 10 f6 ff ff 	mov    %rax,-0x9f0(%rbp)
    b8ea:	48 8d 05 0f 9f 00 00 	lea    0x9f0f(%rip),%rax        # 15800 <g_550+0x80>
    b8f1:	48 89 85 18 f6 ff ff 	mov    %rax,-0x9e8(%rbp)
    b8f8:	48 8d 05 01 9f 00 00 	lea    0x9f01(%rip),%rax        # 15800 <g_550+0x80>
    b8ff:	48 89 85 20 f6 ff ff 	mov    %rax,-0x9e0(%rbp)
    b906:	48 8d 05 f3 9e 00 00 	lea    0x9ef3(%rip),%rax        # 15800 <g_550+0x80>
    b90d:	48 89 85 28 f6 ff ff 	mov    %rax,-0x9d8(%rbp)
    b914:	48 8d 05 e5 9e 00 00 	lea    0x9ee5(%rip),%rax        # 15800 <g_550+0x80>
    b91b:	48 89 85 30 f6 ff ff 	mov    %rax,-0x9d0(%rbp)
    b922:	48 8d 85 f0 f5 ff ff 	lea    -0xa10(%rbp),%rax
    b929:	48 83 c0 40          	add    $0x40,%rax
    b92d:	48 89 85 d0 f5 ff ff 	mov    %rax,-0xa30(%rbp)
    b934:	c7 85 78 f5 ff ff 71 	movl   $0x6dff471,-0xa88(%rbp)
    b93b:	f4 df 06 
    b93e:	48 8d 05 9b d0 00 00 	lea    0xd09b(%rip),%rax        # 189e0 <g_308+0x20>
    b945:	48 89 85 d8 f5 ff ff 	mov    %rax,-0xa28(%rbp)
    b94c:	c7 85 7c f5 ff ff ff 	movl   $0xffffffff,-0xa84(%rbp)
    b953:	ff ff ff 
    b956:	c7 85 80 f5 ff ff 4b 	movl   $0xcb3b364b,-0xa80(%rbp)
    b95d:	36 3b cb 
    b960:	c7 85 84 f5 ff ff b5 	movl   $0x9cbf76b5,-0xa7c(%rbp)
    b967:	76 bf 9c 
    b96a:	c7 85 68 f5 ff ff 00 	movl   $0x0,-0xa98(%rbp)
    b971:	00 00 00 
    b974:	eb 4a                	jmp    b9c0 <func_48+0x412>
    b976:	c7 85 6c f5 ff ff 00 	movl   $0x0,-0xa94(%rbp)
    b97d:	00 00 00 
    b980:	eb 2e                	jmp    b9b0 <func_48+0x402>
    b982:	8b 85 6c f5 ff ff    	mov    -0xa94(%rbp),%eax
    b988:	48 98                	cltq   
    b98a:	8b 95 68 f5 ff ff    	mov    -0xa98(%rbp),%edx
    b990:	48 63 d2             	movslq %edx,%rdx
    b993:	48 01 d2             	add    %rdx,%rdx
    b996:	48 8d 5d e0          	lea    -0x20(%rbp),%rbx
    b99a:	48 01 da             	add    %rbx,%rdx
    b99d:	48 01 d0             	add    %rdx,%rax
    b9a0:	48 2d f8 09 00 00    	sub    $0x9f8,%rax
    b9a6:	c6 00 9f             	movb   $0x9f,(%rax)
    b9a9:	83 85 6c f5 ff ff 01 	addl   $0x1,-0xa94(%rbp)
    b9b0:	83 bd 6c f5 ff ff 01 	cmpl   $0x1,-0xa94(%rbp)
    b9b7:	7e c9                	jle    b982 <func_48+0x3d4>
    b9b9:	83 85 68 f5 ff ff 01 	addl   $0x1,-0xa98(%rbp)
    b9c0:	83 bd 68 f5 ff ff 03 	cmpl   $0x3,-0xa98(%rbp)
    b9c7:	7e ad                	jle    b976 <func_48+0x3c8>
    b9c9:	48 8b 1d 60 d7 00 00 	mov    0xd760(%rip),%rbx        # 19130 <g_336>
    b9d0:	48 8b 05 39 97 00 00 	mov    0x9739(%rip),%rax        # 15110 <g_152>
    b9d7:	41 89 c6             	mov    %eax,%r14d
    b9da:	8b 05 12 9c 00 00    	mov    0x9c12(%rip),%eax        # 155f2 <g_224+0x2>
    b9e0:	44 0f bf e0          	movswl %ax,%r12d
    b9e4:	8b 05 c6 96 00 00    	mov    0x96c6(%rip),%eax        # 150b0 <g_47>
    b9ea:	41 89 c5             	mov    %eax,%r13d
    b9ed:	48 83 bd a0 f5 ff ff 	cmpq   $0x0,-0xa60(%rbp)
    b9f4:	00 
    b9f5:	0f 95 c0             	setne  %al
    b9f8:	0f b6 c0             	movzbl %al,%eax
    b9fb:	8b 95 f8 f6 ff ff    	mov    -0x908(%rbp),%edx
    ba01:	89 c6                	mov    %eax,%esi
    ba03:	89 d7                	mov    %edx,%edi
    ba05:	e8 c6 b4 ff ff       	callq  6ed0 <safe_sub_func_uint32_t_u_u>
    ba0a:	8b 95 f8 f6 ff ff    	mov    -0x908(%rbp),%edx
    ba10:	39 d0                	cmp    %edx,%eax
    ba12:	0f 92 c0             	setb   %al
    ba15:	0f b6 c0             	movzbl %al,%eax
    ba18:	4c 89 ee             	mov    %r13,%rsi
    ba1b:	48 89 c7             	mov    %rax,%rdi
    ba1e:	e8 1e ae ff ff       	callq  6841 <safe_add_func_int64_t_s_s>
    ba23:	0f b6 c0             	movzbl %al,%eax
    ba26:	be 07 00 00 00       	mov    $0x7,%esi
    ba2b:	89 c7                	mov    %eax,%edi
    ba2d:	e8 d3 b1 ff ff       	callq  6c05 <safe_lshift_func_uint8_t_u_s>
    ba32:	0f b6 c0             	movzbl %al,%eax
    ba35:	be 09 00 00 00       	mov    $0x9,%esi
    ba3a:	89 c7                	mov    %eax,%edi
    ba3c:	e8 e9 aa ff ff       	callq  652a <safe_rshift_func_int16_t_s_s>
    ba41:	98                   	cwtl   
    ba42:	39 85 74 f5 ff ff    	cmp    %eax,-0xa8c(%rbp)
    ba48:	0f 96 c0             	setbe  %al
    ba4b:	0f b6 c0             	movzbl %al,%eax
    ba4e:	be 05 00 00 00       	mov    $0x5,%esi
    ba53:	89 c7                	mov    %eax,%edi
    ba55:	e8 d0 aa ff ff       	callq  652a <safe_rshift_func_int16_t_s_s>
    ba5a:	48 0f bf d0          	movswq %ax,%rdx
    ba5e:	8b 85 f8 f6 ff ff    	mov    -0x908(%rbp),%eax
    ba64:	48 89 d6             	mov    %rdx,%rsi
    ba67:	89 c7                	mov    %eax,%edi
    ba69:	e8 36 11 00 00       	callq  cba4 <func_60>
    ba6e:	8b 85 58 f5 ff ff    	mov    -0xaa8(%rbp),%eax
    ba74:	4c 63 e8             	movslq %eax,%r13
    ba77:	8b 85 f8 f6 ff ff    	mov    -0x908(%rbp),%eax
    ba7d:	48 63 d0             	movslq %eax,%rdx
    ba80:	48 8b 05 79 96 00 00 	mov    0x9679(%rip),%rax        # 15100 <g_109>
    ba87:	48 39 c2             	cmp    %rax,%rdx
    ba8a:	0f 94 c0             	sete   %al
    ba8d:	0f b6 c0             	movzbl %al,%eax
    ba90:	be 06 00 00 00       	mov    $0x6,%esi
    ba95:	89 c7                	mov    %eax,%edi
    ba97:	e8 22 b2 ff ff       	callq  6cbe <safe_rshift_func_uint8_t_u_u>
    ba9c:	0f b6 d0             	movzbl %al,%edx
    ba9f:	48 8b 85 a8 f5 ff ff 	mov    -0xa58(%rbp),%rax
    baa6:	89 10                	mov    %edx,(%rax)
    baa8:	48 8b 85 a8 f5 ff ff 	mov    -0xa58(%rbp),%rax
    baaf:	8b 00                	mov    (%rax),%eax
    bab1:	48 98                	cltq   
    bab3:	ba ff ff ff ff       	mov    $0xffffffff,%edx
    bab8:	48 09 d0             	or     %rdx,%rax
    babb:	4c 89 ee             	mov    %r13,%rsi
    babe:	48 89 c7             	mov    %rax,%rdi
    bac1:	e8 ba b5 ff ff       	callq  7080 <safe_mod_func_uint64_t_u_u>
    bac6:	be ff ff ff ff       	mov    $0xffffffff,%esi
    bacb:	89 c7                	mov    %eax,%edi
    bacd:	e8 33 ab ff ff       	callq  6605 <safe_sub_func_int32_t_s_s>
    bad2:	98                   	cwtl   
    bad3:	44 89 e6             	mov    %r12d,%esi
    bad6:	89 c7                	mov    %eax,%edi
    bad8:	e8 39 a9 ff ff       	callq  6416 <safe_mod_func_int16_t_s_s>
    badd:	48 0f bf d0          	movswq %ax,%rdx
    bae1:	48 8b 05 28 96 00 00 	mov    0x9628(%rip),%rax        # 15110 <g_152>
    bae8:	48 39 c2             	cmp    %rax,%rdx
    baeb:	0f 9c c0             	setl   %al
    baee:	0f b6 c0             	movzbl %al,%eax
    baf1:	48 89 da             	mov    %rbx,%rdx
    baf4:	44 89 f6             	mov    %r14d,%esi
    baf7:	48 89 c7             	mov    %rax,%rdi
    bafa:	e8 b6 03 00 00       	callq  beb5 <func_54>
    baff:	48 8b 95 b0 f5 ff ff 	mov    -0xa50(%rbp),%rdx
    bb06:	48 89 02             	mov    %rax,(%rdx)
    bb09:	48 8b 85 b0 f5 ff ff 	mov    -0xa50(%rbp),%rax
    bb10:	48 8b 00             	mov    (%rax),%rax
    bb13:	48 85 c0             	test   %rax,%rax
    bb16:	0f 94 c0             	sete   %al
    bb19:	0f b6 c0             	movzbl %al,%eax
    bb1c:	39 85 58 f5 ff ff    	cmp    %eax,-0xaa8(%rbp)
    bb22:	0f 9f c0             	setg   %al
    bb25:	0f b6 d0             	movzbl %al,%edx
    bb28:	48 8b 85 a8 f5 ff ff 	mov    -0xa58(%rbp),%rax
    bb2f:	89 10                	mov    %edx,(%rax)
    bb31:	48 c7 05 d4 9a 00 00 	movq   $0x0,0x9ad4(%rip)        # 15610 <g_230>
    bb38:	00 00 00 00 
    bb3c:	e9 c6 02 00 00       	jmpq   be07 <func_48+0x859>
    bb41:	c7 85 8c f5 ff ff 48 	movl   $0xa9f62348,-0xa74(%rbp)
    bb48:	23 f6 a9 
    bb4b:	48 8d 05 ee ce 00 00 	lea    0xceee(%rip),%rax        # 18a40 <g_388>
    bb52:	48 89 85 90 f5 ff ff 	mov    %rax,-0xa70(%rbp)
    bb59:	48 8d 85 90 f5 ff ff 	lea    -0xa70(%rbp),%rax
    bb60:	48 89 85 40 f6 ff ff 	mov    %rax,-0x9c0(%rbp)
    bb67:	48 8d 85 90 f5 ff ff 	lea    -0xa70(%rbp),%rax
    bb6e:	48 89 85 48 f6 ff ff 	mov    %rax,-0x9b8(%rbp)
    bb75:	48 8d 85 90 f5 ff ff 	lea    -0xa70(%rbp),%rax
    bb7c:	48 89 85 50 f6 ff ff 	mov    %rax,-0x9b0(%rbp)
    bb83:	48 8d 85 90 f5 ff ff 	lea    -0xa70(%rbp),%rax
    bb8a:	48 89 85 58 f6 ff ff 	mov    %rax,-0x9a8(%rbp)
    bb91:	48 8d 85 90 f5 ff ff 	lea    -0xa70(%rbp),%rax
    bb98:	48 89 85 60 f6 ff ff 	mov    %rax,-0x9a0(%rbp)
    bb9f:	48 8d 85 90 f5 ff ff 	lea    -0xa70(%rbp),%rax
    bba6:	48 89 85 68 f6 ff ff 	mov    %rax,-0x998(%rbp)
    bbad:	48 8d 85 90 f5 ff ff 	lea    -0xa70(%rbp),%rax
    bbb4:	48 89 85 70 f6 ff ff 	mov    %rax,-0x990(%rbp)
    bbbb:	48 8d 85 90 f5 ff ff 	lea    -0xa70(%rbp),%rax
    bbc2:	48 89 85 78 f6 ff ff 	mov    %rax,-0x988(%rbp)
    bbc9:	48 8d 85 90 f5 ff ff 	lea    -0xa70(%rbp),%rax
    bbd0:	48 89 85 80 f6 ff ff 	mov    %rax,-0x980(%rbp)
    bbd7:	48 8d 85 90 f5 ff ff 	lea    -0xa70(%rbp),%rax
    bbde:	48 89 85 88 f6 ff ff 	mov    %rax,-0x978(%rbp)
    bbe5:	48 8d 05 14 cd 00 00 	lea    0xcd14(%rip),%rax        # 18900 <g_220+0x20>
    bbec:	48 89 85 e0 f5 ff ff 	mov    %rax,-0xa20(%rbp)
    bbf3:	48 8d 85 d0 f9 ff ff 	lea    -0x630(%rbp),%rax
    bbfa:	48 8d 15 1f c1 00 00 	lea    0xc11f(%rip),%rdx        # 17d20 <g_1915+0x13d0>
    bc01:	b9 c0 00 00 00       	mov    $0xc0,%ecx
    bc06:	48 89 c7             	mov    %rax,%rdi
    bc09:	48 89 d6             	mov    %rdx,%rsi
    bc0c:	f3 48 a5             	rep movsq %ds:(%rsi),%es:(%rdi)
    bc0f:	48 8d 05 f2 94 00 00 	lea    0x94f2(%rip),%rax        # 15108 <g_138>
    bc16:	48 89 85 98 f5 ff ff 	mov    %rax,-0xa68(%rbp)
    bc1d:	48 c7 85 90 f6 ff ff 	movq   $0x0,-0x970(%rbp)
    bc24:	00 00 00 00 
    bc28:	48 c7 85 98 f6 ff ff 	movq   $0x0,-0x968(%rbp)
    bc2f:	00 00 00 00 
    bc33:	48 c7 85 a0 f6 ff ff 	movq   $0x0,-0x960(%rbp)
    bc3a:	00 00 00 00 
    bc3e:	48 c7 85 a8 f6 ff ff 	movq   $0x0,-0x958(%rbp)
    bc45:	00 00 00 00 
    bc49:	48 c7 85 b0 f6 ff ff 	movq   $0x0,-0x950(%rbp)
    bc50:	00 00 00 00 
    bc54:	48 c7 85 b8 f6 ff ff 	movq   $0x0,-0x948(%rbp)
    bc5b:	00 00 00 00 
    bc5f:	48 c7 85 c0 f6 ff ff 	movq   $0x0,-0x940(%rbp)
    bc66:	00 00 00 00 
    bc6a:	48 c7 85 c8 f6 ff ff 	movq   $0x0,-0x938(%rbp)
    bc71:	00 00 00 00 
    bc75:	48 c7 85 d0 f6 ff ff 	movq   $0x0,-0x930(%rbp)
    bc7c:	00 00 00 00 
    bc80:	48 c7 85 d8 f6 ff ff 	movq   $0x0,-0x928(%rbp)
    bc87:	00 00 00 00 
    bc8b:	0f bf 9d 66 f5 ff ff 	movswl -0xa9a(%rbp),%ebx
    bc92:	48 83 bd e0 f5 ff ff 	cmpq   $0x0,-0xa20(%rbp)
    bc99:	00 
    bc9a:	0f 94 c0             	sete   %al
    bc9d:	0f b6 c0             	movzbl %al,%eax
    bca0:	48 8d 15 99 cd 00 00 	lea    0xcd99(%rip),%rdx        # 18a40 <g_388>
    bca7:	48 89 95 b8 f5 ff ff 	mov    %rdx,-0xa48(%rbp)
    bcae:	89 c6                	mov    %eax,%esi
    bcb0:	bf 00 00 00 00       	mov    $0x0,%edi
    bcb5:	e8 d8 a7 ff ff       	callq  6492 <safe_lshift_func_int16_t_s_s>
    bcba:	98                   	cwtl   
    bcbb:	f7 d0                	not    %eax
    bcbd:	41 89 c4             	mov    %eax,%r12d
    bcc0:	48 8b 05 81 cd 00 00 	mov    0xcd81(%rip),%rax        # 18a48 <g_389>
    bcc7:	8b 10                	mov    (%rax),%edx
    bcc9:	8b 85 58 f5 ff ff    	mov    -0xaa8(%rbp),%eax
    bccf:	89 d6                	mov    %edx,%esi
    bcd1:	89 c7                	mov    %eax,%edi
    bcd3:	e8 f4 a9 ff ff       	callq  66cc <safe_mod_func_int32_t_s_s>
    bcd8:	89 c6                	mov    %eax,%esi
    bcda:	48 8d 05 4f cd 00 00 	lea    0xcd4f(%rip),%rax        # 18a30 <g_313>
    bce1:	48 89 85 c8 f5 ff ff 	mov    %rax,-0xa38(%rbp)
    bce8:	48 8b 85 c8 f5 ff ff 	mov    -0xa38(%rbp),%rax
    bcef:	48 3b 85 c0 f5 ff ff 	cmp    -0xa40(%rbp),%rax
    bcf6:	0f 95 c0             	setne  %al
    bcf9:	0f b6 d0             	movzbl %al,%edx
    bcfc:	48 8b 05 3d cd 00 00 	mov    0xcd3d(%rip),%rax        # 18a40 <g_388>
    bd03:	0f b6 08             	movzbl (%rax),%ecx
    bd06:	48 8b 05 33 cd 00 00 	mov    0xcd33(%rip),%rax        # 18a40 <g_388>
    bd0d:	21 f1                	and    %esi,%ecx
    bd0f:	88 08                	mov    %cl,(%rax)
    bd11:	0f b6 00             	movzbl (%rax),%eax
    bd14:	0f be c0             	movsbl %al,%eax
    bd17:	39 c2                	cmp    %eax,%edx
    bd19:	0f 95 c0             	setne  %al
    bd1c:	0f b6 c0             	movzbl %al,%eax
    bd1f:	39 85 58 f5 ff ff    	cmp    %eax,-0xaa8(%rbp)
    bd25:	0f 9d c0             	setge  %al
    bd28:	0f b6 c0             	movzbl %al,%eax
    bd2b:	be 93 ff ff ff       	mov    $0xffffff93,%esi
    bd30:	89 c7                	mov    %eax,%edi
    bd32:	e8 bb a4 ff ff       	callq  61f2 <safe_sub_func_int8_t_s_s>
    bd37:	0f be c0             	movsbl %al,%eax
    bd3a:	41 39 c4             	cmp    %eax,%r12d
    bd3d:	0f 9c c0             	setl   %al
    bd40:	0f b6 c0             	movzbl %al,%eax
    bd43:	39 85 8c f5 ff ff    	cmp    %eax,-0xa74(%rbp)
    bd49:	0f 94 c2             	sete   %dl
    bd4c:	48 8b 85 98 f5 ff ff 	mov    -0xa68(%rbp),%rax
    bd53:	88 10                	mov    %dl,(%rax)
    bd55:	8b 05 97 98 00 00    	mov    0x9897(%rip),%eax        # 155f2 <g_224+0x2>
    bd5b:	98                   	cwtl   
    bd5c:	89 de                	mov    %ebx,%esi
    bd5e:	89 c7                	mov    %eax,%edi
    bd60:	e8 90 a6 ff ff       	callq  63f5 <safe_mul_func_int16_t_s_s>
    bd65:	0f be c0             	movsbl %al,%eax
    bd68:	be 02 00 00 00       	mov    $0x2,%esi
    bd6d:	89 c7                	mov    %eax,%edi
    bd6f:	e8 2d a5 ff ff       	callq  62a1 <safe_lshift_func_int8_t_s_s>
    bd74:	48 8b 95 a8 f5 ff ff 	mov    -0xa58(%rbp),%rdx
    bd7b:	8b 12                	mov    (%rdx),%edx
    bd7d:	0f be c0             	movsbl %al,%eax
    bd80:	31 c2                	xor    %eax,%edx
    bd82:	48 8b 85 a8 f5 ff ff 	mov    -0xa58(%rbp),%rax
    bd89:	89 10                	mov    %edx,(%rax)
    bd8b:	0f b6 05 d8 98 00 00 	movzbl 0x98d8(%rip),%eax        # 1566a <g_272+0x4a>
    bd92:	0f b6 d0             	movzbl %al,%edx
    bd95:	48 8b 85 90 f5 ff ff 	mov    -0xa70(%rbp),%rax
    bd9c:	48 8b 00             	mov    (%rax),%rax
    bd9f:	c6 00 17             	movb   $0x17,(%rax)
    bda2:	48 c7 05 23 99 00 00 	movq   $0x17,0x9923(%rip)        # 156d0 <g_437>
    bda9:	17 00 00 00 
    bdad:	48 8b 05 1c 99 00 00 	mov    0x991c(%rip),%rax        # 156d0 <g_437>
    bdb4:	0f be c0             	movsbl %al,%eax
    bdb7:	89 d6                	mov    %edx,%esi
    bdb9:	89 c7                	mov    %eax,%edi
    bdbb:	e8 e1 a4 ff ff       	callq  62a1 <safe_lshift_func_int8_t_s_s>
    bdc0:	0f b7 05 0f 94 00 00 	movzwl 0x940f(%rip),%eax        # 151d6 <g_221+0x6>
    bdc7:	66 85 c0             	test   %ax,%ax
    bdca:	0f 95 c0             	setne  %al
    bdcd:	0f b6 d0             	movzbl %al,%edx
    bdd0:	48 8b 85 a8 f5 ff ff 	mov    -0xa58(%rbp),%rax
    bdd7:	8b 00                	mov    (%rax),%eax
    bdd9:	31 c2                	xor    %eax,%edx
    bddb:	48 8b 85 a8 f5 ff ff 	mov    -0xa58(%rbp),%rax
    bde2:	89 10                	mov    %edx,(%rax)
    bde4:	0f b7 05 fb 93 00 00 	movzwl 0x93fb(%rip),%eax        # 151e6 <g_222+0x6>
    bdeb:	66 85 c0             	test   %ax,%ax
    bdee:	74 05                	je     bdf5 <func_48+0x847>
    bdf0:	e9 3c fd ff ff       	jmpq   bb31 <func_48+0x583>
    bdf5:	48 8b 05 14 98 00 00 	mov    0x9814(%rip),%rax        # 15610 <g_230>
    bdfc:	48 83 e8 01          	sub    $0x1,%rax
    be00:	48 89 05 09 98 00 00 	mov    %rax,0x9809(%rip)        # 15610 <g_230>
    be07:	48 8b 05 02 98 00 00 	mov    0x9802(%rip),%rax        # 15610 <g_230>
    be0e:	48 83 f8 e9          	cmp    $0xffffffffffffffe9,%rax
    be12:	0f 8d 29 fd ff ff    	jge    bb41 <func_48+0x593>
    be18:	8b 05 ba 98 00 00    	mov    0x98ba(%rip),%eax        # 156d8 <g_441>
    be1e:	83 c0 01             	add    $0x1,%eax
    be21:	89 05 b1 98 00 00    	mov    %eax,0x98b1(%rip)        # 156d8 <g_441>
    be27:	c7 85 58 f5 ff ff 00 	movl   $0x0,-0xaa8(%rbp)
    be2e:	00 00 00 
    be31:	eb 4e                	jmp    be81 <func_48+0x8d3>
    be33:	c7 85 88 f5 ff ff fb 	movl   $0xfffffffb,-0xa78(%rbp)
    be3a:	ff ff ff 
    be3d:	48 b8 01 01 01 01 01 	movabs $0x101010101010101,%rax
    be44:	01 01 01 
    be47:	48 89 45 d0          	mov    %rax,-0x30(%rbp)
    be4b:	c7 85 70 f5 ff ff 00 	movl   $0x0,-0xa90(%rbp)
    be52:	00 00 00 
    be55:	eb 1a                	jmp    be71 <func_48+0x8c3>
    be57:	8b 85 70 f5 ff ff    	mov    -0xa90(%rbp),%eax
    be5d:	48 98                	cltq   
    be5f:	c7 84 85 d0 f9 ff ff 	movl   $0xffffffff,-0x630(%rbp,%rax,4)
    be66:	ff ff ff ff 
    be6a:	83 85 70 f5 ff ff 01 	addl   $0x1,-0xa90(%rbp)
    be71:	83 bd 70 f5 ff ff 00 	cmpl   $0x0,-0xa90(%rbp)
    be78:	7e dd                	jle    be57 <func_48+0x8a9>
    be7a:	83 ad 58 f5 ff ff 01 	subl   $0x1,-0xaa8(%rbp)
    be81:	83 bd 58 f5 ff ff fa 	cmpl   $0xfffffffa,-0xaa8(%rbp)
    be88:	7c a9                	jl     be33 <func_48+0x885>
    be8a:	48 8d 05 57 98 00 00 	lea    0x9857(%rip),%rax        # 156e8 <g_542>
    be91:	48 8b 5d d8          	mov    -0x28(%rbp),%rbx
    be95:	64 48 33 1c 25 28 00 	xor    %fs:0x28,%rbx
    be9c:	00 00 
    be9e:	74 05                	je     bea5 <func_48+0x8f7>
    bea0:	e8 cb a1 ff ff       	callq  6070 <__stack_chk_fail@plt>
    bea5:	48 81 c4 a0 0a 00 00 	add    $0xaa0,%rsp
    beac:	5b                   	pop    %rbx
    bead:	41 5c                	pop    %r12
    beaf:	41 5d                	pop    %r13
    beb1:	41 5e                	pop    %r14
    beb3:	5d                   	pop    %rbp
    beb4:	c3                   	retq   

000000000000beb5 <func_54>:
    beb5:	f3 0f 1e fa          	endbr64 
    beb9:	55                   	push   %rbp
    beba:	48 89 e5             	mov    %rsp,%rbp
    bebd:	41 55                	push   %r13
    bebf:	41 54                	push   %r12
    bec1:	53                   	push   %rbx
    bec2:	48 81 ec b8 05 00 00 	sub    $0x5b8,%rsp
    bec9:	48 89 bd 48 fa ff ff 	mov    %rdi,-0x5b8(%rbp)
    bed0:	89 b5 44 fa ff ff    	mov    %esi,-0x5bc(%rbp)
    bed6:	48 89 95 38 fa ff ff 	mov    %rdx,-0x5c8(%rbp)
    bedd:	64 48 8b 04 25 28 00 	mov    %fs:0x28,%rax
    bee4:	00 00 
    bee6:	48 89 45 d8          	mov    %rax,-0x28(%rbp)
    beea:	31 c0                	xor    %eax,%eax
    beec:	c7 85 5c fa ff ff ea 	movl   $0xb602aeea,-0x5a4(%rbp)
    bef3:	ae 02 b6 
    bef6:	66 c7 85 5a fa ff ff 	movw   $0x8,-0x5a6(%rbp)
    befd:	08 00 
    beff:	48 c7 85 90 fa ff ff 	movq   $0x0,-0x570(%rbp)
    bf06:	00 00 00 00 
    bf0a:	c7 85 70 fa ff ff ff 	movl   $0xffffffff,-0x590(%rbp)
    bf11:	ff ff ff 
    bf14:	c7 85 74 fa ff ff fb 	movl   $0xfffffffb,-0x58c(%rbp)
    bf1b:	ff ff ff 
    bf1e:	c7 85 78 fa ff ff 00 	movl   $0x0,-0x588(%rbp)
    bf25:	00 00 00 
    bf28:	c7 85 60 fa ff ff db 	movl   $0x9a180edb,-0x5a0(%rbp)
    bf2f:	0e 18 9a 
    bf32:	c7 85 7c fa ff ff 0e 	movl   $0x2507c90e,-0x584(%rbp)
    bf39:	c9 07 25 
    bf3c:	48 8d 85 60 fa ff ff 	lea    -0x5a0(%rbp),%rax
    bf43:	48 89 85 98 fa ff ff 	mov    %rax,-0x568(%rbp)
    bf4a:	c7 85 68 fa ff ff 00 	movl   $0x0,-0x598(%rbp)
    bf51:	00 00 00 
    bf54:	eb 1a                	jmp    bf70 <func_54+0xbb>
    bf56:	8b 85 68 fa ff ff    	mov    -0x598(%rbp),%eax
    bf5c:	48 98                	cltq   
    bf5e:	c7 84 85 70 fb ff ff 	movl   $0x8,-0x490(%rbp,%rax,4)
    bf65:	08 00 00 00 
    bf69:	83 85 68 fa ff ff 01 	addl   $0x1,-0x598(%rbp)
    bf70:	83 bd 68 fa ff ff 05 	cmpl   $0x5,-0x598(%rbp)
    bf77:	7e dd                	jle    bf56 <func_54+0xa1>
    bf79:	66 c7 05 54 92 00 00 	movw   $0x0,0x9254(%rip)        # 151d6 <g_221+0x6>
    bf80:	00 00 
    bf82:	e9 e3 0b 00 00       	jmpq   cb6a <func_54+0xcb5>
    bf87:	48 b8 d0 93 21 3d a2 	movabs $0x21a5e6a23d2193d0,%rax
    bf8e:	e6 a5 21 
    bf91:	48 89 85 88 fa ff ff 	mov    %rax,-0x578(%rbp)
    bf98:	c7 85 6c fa ff ff 42 	movl   $0x3238a842,-0x594(%rbp)
    bf9f:	a8 38 32 
    bfa2:	48 8d 05 3b 91 00 00 	lea    0x913b(%rip),%rax        # 150e4 <g_108+0x4>
    bfa9:	48 89 85 a0 fa ff ff 	mov    %rax,-0x560(%rbp)
    bfb0:	48 8d 05 01 91 00 00 	lea    0x9101(%rip),%rax        # 150b8 <g_82>
    bfb7:	48 89 85 a8 fa ff ff 	mov    %rax,-0x558(%rbp)
    bfbe:	48 8d 85 5c fa ff ff 	lea    -0x5a4(%rbp),%rax
    bfc5:	48 89 85 b0 fa ff ff 	mov    %rax,-0x550(%rbp)
    bfcc:	48 8d 05 25 91 00 00 	lea    0x9125(%rip),%rax        # 150f8 <g_108+0x18>
    bfd3:	48 89 85 b8 fa ff ff 	mov    %rax,-0x548(%rbp)
    bfda:	48 8d 85 5c fa ff ff 	lea    -0x5a4(%rbp),%rax
    bfe1:	48 89 85 c0 fb ff ff 	mov    %rax,-0x440(%rbp)
    bfe8:	48 c7 85 c8 fb ff ff 	movq   $0x0,-0x438(%rbp)
    bfef:	00 00 00 00 
    bff3:	48 8d 85 5c fa ff ff 	lea    -0x5a4(%rbp),%rax
    bffa:	48 89 85 d0 fb ff ff 	mov    %rax,-0x430(%rbp)
    c001:	48 c7 85 d8 fb ff ff 	movq   $0x0,-0x428(%rbp)
    c008:	00 00 00 00 
    c00c:	48 8d 85 5c fa ff ff 	lea    -0x5a4(%rbp),%rax
    c013:	48 89 85 e0 fb ff ff 	mov    %rax,-0x420(%rbp)
    c01a:	48 c7 85 e8 fb ff ff 	movq   $0x0,-0x418(%rbp)
    c021:	00 00 00 00 
    c025:	48 8d 85 5c fa ff ff 	lea    -0x5a4(%rbp),%rax
    c02c:	48 89 85 f0 fb ff ff 	mov    %rax,-0x410(%rbp)
    c033:	48 c7 85 f8 fb ff ff 	movq   $0x0,-0x408(%rbp)
    c03a:	00 00 00 00 
    c03e:	48 8d 85 5c fa ff ff 	lea    -0x5a4(%rbp),%rax
    c045:	48 89 85 00 fc ff ff 	mov    %rax,-0x400(%rbp)
    c04c:	66 c7 85 90 fb ff ff 	movw   $0xfff9,-0x470(%rbp)
    c053:	f9 ff 
    c055:	66 c7 85 92 fb ff ff 	movw   $0xfffc,-0x46e(%rbp)
    c05c:	fc ff 
    c05e:	66 c7 85 94 fb ff ff 	movw   $0xb26c,-0x46c(%rbp)
    c065:	6c b2 
    c067:	66 c7 85 96 fb ff ff 	movw   $0x1,-0x46a(%rbp)
    c06e:	01 00 
    c070:	66 c7 85 98 fb ff ff 	movw   $0xfffc,-0x468(%rbp)
    c077:	fc ff 
    c079:	66 c7 85 9a fb ff ff 	movw   $0x1,-0x466(%rbp)
    c080:	01 00 
    c082:	66 c7 85 9c fb ff ff 	movw   $0xfff9,-0x464(%rbp)
    c089:	f9 ff 
    c08b:	66 c7 85 9e fb ff ff 	movw   $0xd6c7,-0x462(%rbp)
    c092:	c7 d6 
    c094:	66 c7 85 a0 fb ff ff 	movw   $0xfff9,-0x460(%rbp)
    c09b:	f9 ff 
    c09d:	66 c7 85 a2 fb ff ff 	movw   $0x1,-0x45e(%rbp)
    c0a4:	01 00 
    c0a6:	66 c7 85 a4 fb ff ff 	movw   $0xd6c7,-0x45c(%rbp)
    c0ad:	c7 d6 
    c0af:	66 c7 85 a6 fb ff ff 	movw   $0xb26c,-0x45a(%rbp)
    c0b6:	6c b2 
    c0b8:	66 c7 85 a8 fb ff ff 	movw   $0xfff9,-0x458(%rbp)
    c0bf:	f9 ff 
    c0c1:	66 c7 85 aa fb ff ff 	movw   $0xaf91,-0x456(%rbp)
    c0c8:	91 af 
    c0ca:	66 c7 85 ac fb ff ff 	movw   $0x1,-0x454(%rbp)
    c0d1:	01 00 
    c0d3:	66 c7 85 ae fb ff ff 	movw   $0x1,-0x452(%rbp)
    c0da:	01 00 
    c0dc:	66 c7 85 b0 fb ff ff 	movw   $0xaf91,-0x450(%rbp)
    c0e3:	91 af 
    c0e5:	66 c7 85 b2 fb ff ff 	movw   $0xfff9,-0x44e(%rbp)
    c0ec:	f9 ff 
    c0ee:	66 c7 85 b4 fb ff ff 	movw   $0xfff9,-0x44c(%rbp)
    c0f5:	f9 ff 
    c0f7:	66 c7 85 b6 fb ff ff 	movw   $0xfffc,-0x44a(%rbp)
    c0fe:	fc ff 
    c100:	66 c7 85 b8 fb ff ff 	movw   $0xb26c,-0x448(%rbp)
    c107:	6c b2 
    c109:	66 c7 85 ba fb ff ff 	movw   $0x1,-0x446(%rbp)
    c110:	01 00 
    c112:	66 c7 85 bc fb ff ff 	movw   $0xfffc,-0x444(%rbp)
    c119:	fc ff 
    c11b:	66 c7 85 be fb ff ff 	movw   $0x1,-0x442(%rbp)
    c122:	01 00 
    c124:	48 c7 85 c0 fa ff ff 	movq   $0xfffffffffffffffd,-0x540(%rbp)
    c12b:	fd ff ff ff 
    c12f:	66 c7 05 f4 cf 00 00 	movw   $0x0,0xcff4(%rip)        # 1912c <g_104>
    c136:	00 00 
    c138:	e9 f4 09 00 00       	jmpq   cb31 <func_54+0xc7c>
    c13d:	48 8d 05 f4 c8 00 00 	lea    0xc8f4(%rip),%rax        # 18a38 <g_312>
    c144:	48 89 85 c8 fa ff ff 	mov    %rax,-0x538(%rbp)
    c14b:	48 c7 85 80 fa ff ff 	movq   $0x0,-0x580(%rbp)
    c152:	00 00 00 00 
    c156:	48 8d 05 5b 8f 00 00 	lea    0x8f5b(%rip),%rax        # 150b8 <g_82>
    c15d:	48 89 85 d0 fa ff ff 	mov    %rax,-0x530(%rbp)
    c164:	48 8d 85 5c fa ff ff 	lea    -0x5a4(%rbp),%rax
    c16b:	48 89 85 70 fc ff ff 	mov    %rax,-0x390(%rbp)
    c172:	48 8d 05 6b 8f 00 00 	lea    0x8f6b(%rip),%rax        # 150e4 <g_108+0x4>
    c179:	48 89 85 78 fc ff ff 	mov    %rax,-0x388(%rbp)
    c180:	48 8d 85 5c fa ff ff 	lea    -0x5a4(%rbp),%rax
    c187:	48 89 85 80 fc ff ff 	mov    %rax,-0x380(%rbp)
    c18e:	48 8d 85 5c fa ff ff 	lea    -0x5a4(%rbp),%rax
    c195:	48 89 85 88 fc ff ff 	mov    %rax,-0x378(%rbp)
    c19c:	48 8d 05 41 8f 00 00 	lea    0x8f41(%rip),%rax        # 150e4 <g_108+0x4>
    c1a3:	48 89 85 90 fc ff ff 	mov    %rax,-0x370(%rbp)
    c1aa:	48 8d 85 5c fa ff ff 	lea    -0x5a4(%rbp),%rax
    c1b1:	48 89 85 98 fc ff ff 	mov    %rax,-0x368(%rbp)
    c1b8:	48 8d 85 5c fa ff ff 	lea    -0x5a4(%rbp),%rax
    c1bf:	48 89 85 a0 fc ff ff 	mov    %rax,-0x360(%rbp)
    c1c6:	48 8d 05 17 8f 00 00 	lea    0x8f17(%rip),%rax        # 150e4 <g_108+0x4>
    c1cd:	48 89 85 a8 fc ff ff 	mov    %rax,-0x358(%rbp)
    c1d4:	48 8d 85 5c fa ff ff 	lea    -0x5a4(%rbp),%rax
    c1db:	48 89 85 b0 fc ff ff 	mov    %rax,-0x350(%rbp)
    c1e2:	48 8d 85 5c fa ff ff 	lea    -0x5a4(%rbp),%rax
    c1e9:	48 89 85 b8 fc ff ff 	mov    %rax,-0x348(%rbp)
    c1f0:	48 8d 05 ed 8e 00 00 	lea    0x8eed(%rip),%rax        # 150e4 <g_108+0x4>
    c1f7:	48 89 85 c0 fc ff ff 	mov    %rax,-0x340(%rbp)
    c1fe:	48 8d 85 5c fa ff ff 	lea    -0x5a4(%rbp),%rax
    c205:	48 89 85 c8 fc ff ff 	mov    %rax,-0x338(%rbp)
    c20c:	48 8d 85 5c fa ff ff 	lea    -0x5a4(%rbp),%rax
    c213:	48 89 85 d0 fc ff ff 	mov    %rax,-0x330(%rbp)
    c21a:	48 8d 05 c3 8e 00 00 	lea    0x8ec3(%rip),%rax        # 150e4 <g_108+0x4>
    c221:	48 89 85 d8 fc ff ff 	mov    %rax,-0x328(%rbp)
    c228:	48 8d 85 5c fa ff ff 	lea    -0x5a4(%rbp),%rax
    c22f:	48 89 85 e0 fc ff ff 	mov    %rax,-0x320(%rbp)
    c236:	48 8d 85 5c fa ff ff 	lea    -0x5a4(%rbp),%rax
    c23d:	48 89 85 e8 fc ff ff 	mov    %rax,-0x318(%rbp)
    c244:	48 8d 05 99 8e 00 00 	lea    0x8e99(%rip),%rax        # 150e4 <g_108+0x4>
    c24b:	48 89 85 f0 fc ff ff 	mov    %rax,-0x310(%rbp)
    c252:	48 8d 85 5c fa ff ff 	lea    -0x5a4(%rbp),%rax
    c259:	48 89 85 f8 fc ff ff 	mov    %rax,-0x308(%rbp)
    c260:	48 8d 85 5c fa ff ff 	lea    -0x5a4(%rbp),%rax
    c267:	48 89 85 00 fd ff ff 	mov    %rax,-0x300(%rbp)
    c26e:	48 8d 05 6f 8e 00 00 	lea    0x8e6f(%rip),%rax        # 150e4 <g_108+0x4>
    c275:	48 89 85 08 fd ff ff 	mov    %rax,-0x2f8(%rbp)
    c27c:	48 8d 85 5c fa ff ff 	lea    -0x5a4(%rbp),%rax
    c283:	48 89 85 10 fd ff ff 	mov    %rax,-0x2f0(%rbp)
    c28a:	48 8d 85 5c fa ff ff 	lea    -0x5a4(%rbp),%rax
    c291:	48 89 85 18 fd ff ff 	mov    %rax,-0x2e8(%rbp)
    c298:	48 8d 05 45 8e 00 00 	lea    0x8e45(%rip),%rax        # 150e4 <g_108+0x4>
    c29f:	48 89 85 20 fd ff ff 	mov    %rax,-0x2e0(%rbp)
    c2a6:	48 8d 85 5c fa ff ff 	lea    -0x5a4(%rbp),%rax
    c2ad:	48 89 85 28 fd ff ff 	mov    %rax,-0x2d8(%rbp)
    c2b4:	48 8d 85 5c fa ff ff 	lea    -0x5a4(%rbp),%rax
    c2bb:	48 89 85 30 fd ff ff 	mov    %rax,-0x2d0(%rbp)
    c2c2:	48 8d 05 1b 8e 00 00 	lea    0x8e1b(%rip),%rax        # 150e4 <g_108+0x4>
    c2c9:	48 89 85 38 fd ff ff 	mov    %rax,-0x2c8(%rbp)
    c2d0:	48 8d 85 5c fa ff ff 	lea    -0x5a4(%rbp),%rax
    c2d7:	48 89 85 40 fd ff ff 	mov    %rax,-0x2c0(%rbp)
    c2de:	48 8d 85 5c fa ff ff 	lea    -0x5a4(%rbp),%rax
    c2e5:	48 89 85 48 fd ff ff 	mov    %rax,-0x2b8(%rbp)
    c2ec:	48 8d 05 f1 8d 00 00 	lea    0x8df1(%rip),%rax        # 150e4 <g_108+0x4>
    c2f3:	48 89 85 50 fd ff ff 	mov    %rax,-0x2b0(%rbp)
    c2fa:	48 8d 85 5c fa ff ff 	lea    -0x5a4(%rbp),%rax
    c301:	48 89 85 58 fd ff ff 	mov    %rax,-0x2a8(%rbp)
    c308:	48 8d 85 5c fa ff ff 	lea    -0x5a4(%rbp),%rax
    c30f:	48 89 85 60 fd ff ff 	mov    %rax,-0x2a0(%rbp)
    c316:	48 8d 05 c7 8d 00 00 	lea    0x8dc7(%rip),%rax        # 150e4 <g_108+0x4>
    c31d:	48 89 85 68 fd ff ff 	mov    %rax,-0x298(%rbp)
    c324:	48 8d 85 5c fa ff ff 	lea    -0x5a4(%rbp),%rax
    c32b:	48 89 85 70 fd ff ff 	mov    %rax,-0x290(%rbp)
    c332:	48 8d 85 5c fa ff ff 	lea    -0x5a4(%rbp),%rax
    c339:	48 89 85 78 fd ff ff 	mov    %rax,-0x288(%rbp)
    c340:	48 8d 05 9d 8d 00 00 	lea    0x8d9d(%rip),%rax        # 150e4 <g_108+0x4>
    c347:	48 89 85 80 fd ff ff 	mov    %rax,-0x280(%rbp)
    c34e:	48 8d 85 5c fa ff ff 	lea    -0x5a4(%rbp),%rax
    c355:	48 89 85 88 fd ff ff 	mov    %rax,-0x278(%rbp)
    c35c:	48 8d 85 5c fa ff ff 	lea    -0x5a4(%rbp),%rax
    c363:	48 89 85 90 fd ff ff 	mov    %rax,-0x270(%rbp)
    c36a:	48 8d 05 73 8d 00 00 	lea    0x8d73(%rip),%rax        # 150e4 <g_108+0x4>
    c371:	48 89 85 98 fd ff ff 	mov    %rax,-0x268(%rbp)
    c378:	48 8d 85 5c fa ff ff 	lea    -0x5a4(%rbp),%rax
    c37f:	48 89 85 a0 fd ff ff 	mov    %rax,-0x260(%rbp)
    c386:	48 8d 85 5c fa ff ff 	lea    -0x5a4(%rbp),%rax
    c38d:	48 89 85 a8 fd ff ff 	mov    %rax,-0x258(%rbp)
    c394:	48 8d 05 49 8d 00 00 	lea    0x8d49(%rip),%rax        # 150e4 <g_108+0x4>
    c39b:	48 89 85 b0 fd ff ff 	mov    %rax,-0x250(%rbp)
    c3a2:	48 8d 85 5c fa ff ff 	lea    -0x5a4(%rbp),%rax
    c3a9:	48 89 85 b8 fd ff ff 	mov    %rax,-0x248(%rbp)
    c3b0:	48 8d 85 5c fa ff ff 	lea    -0x5a4(%rbp),%rax
    c3b7:	48 89 85 c0 fd ff ff 	mov    %rax,-0x240(%rbp)
    c3be:	48 8d 05 1f 8d 00 00 	lea    0x8d1f(%rip),%rax        # 150e4 <g_108+0x4>
    c3c5:	48 89 85 c8 fd ff ff 	mov    %rax,-0x238(%rbp)
    c3cc:	48 8d 85 5c fa ff ff 	lea    -0x5a4(%rbp),%rax
    c3d3:	48 89 85 d0 fd ff ff 	mov    %rax,-0x230(%rbp)
    c3da:	48 8d 85 5c fa ff ff 	lea    -0x5a4(%rbp),%rax
    c3e1:	48 89 85 d8 fd ff ff 	mov    %rax,-0x228(%rbp)
    c3e8:	48 8d 05 f5 8c 00 00 	lea    0x8cf5(%rip),%rax        # 150e4 <g_108+0x4>
    c3ef:	48 89 85 e0 fd ff ff 	mov    %rax,-0x220(%rbp)
    c3f6:	48 8d 85 5c fa ff ff 	lea    -0x5a4(%rbp),%rax
    c3fd:	48 89 85 e8 fd ff ff 	mov    %rax,-0x218(%rbp)
    c404:	48 8d 85 5c fa ff ff 	lea    -0x5a4(%rbp),%rax
    c40b:	48 89 85 f0 fd ff ff 	mov    %rax,-0x210(%rbp)
    c412:	48 8d 85 5c fa ff ff 	lea    -0x5a4(%rbp),%rax
    c419:	48 89 85 f8 fd ff ff 	mov    %rax,-0x208(%rbp)
    c420:	48 8d 85 5c fa ff ff 	lea    -0x5a4(%rbp),%rax
    c427:	48 89 85 00 fe ff ff 	mov    %rax,-0x200(%rbp)
    c42e:	48 8d 05 af 8c 00 00 	lea    0x8caf(%rip),%rax        # 150e4 <g_108+0x4>
    c435:	48 89 85 08 fe ff ff 	mov    %rax,-0x1f8(%rbp)
    c43c:	48 8d 85 5c fa ff ff 	lea    -0x5a4(%rbp),%rax
    c443:	48 89 85 10 fe ff ff 	mov    %rax,-0x1f0(%rbp)
    c44a:	48 8d 05 93 8c 00 00 	lea    0x8c93(%rip),%rax        # 150e4 <g_108+0x4>
    c451:	48 89 85 18 fe ff ff 	mov    %rax,-0x1e8(%rbp)
    c458:	48 8d 85 5c fa ff ff 	lea    -0x5a4(%rbp),%rax
    c45f:	48 89 85 20 fe ff ff 	mov    %rax,-0x1e0(%rbp)
    c466:	48 8d 85 5c fa ff ff 	lea    -0x5a4(%rbp),%rax
    c46d:	48 89 85 28 fe ff ff 	mov    %rax,-0x1d8(%rbp)
    c474:	48 8d 85 5c fa ff ff 	lea    -0x5a4(%rbp),%rax
    c47b:	48 89 85 30 fe ff ff 	mov    %rax,-0x1d0(%rbp)
    c482:	48 8d 05 5b 8c 00 00 	lea    0x8c5b(%rip),%rax        # 150e4 <g_108+0x4>
    c489:	48 89 85 38 fe ff ff 	mov    %rax,-0x1c8(%rbp)
    c490:	48 8d 85 5c fa ff ff 	lea    -0x5a4(%rbp),%rax
    c497:	48 89 85 40 fe ff ff 	mov    %rax,-0x1c0(%rbp)
    c49e:	48 8d 05 3f 8c 00 00 	lea    0x8c3f(%rip),%rax        # 150e4 <g_108+0x4>
    c4a5:	48 89 85 48 fe ff ff 	mov    %rax,-0x1b8(%rbp)
    c4ac:	48 8d 85 5c fa ff ff 	lea    -0x5a4(%rbp),%rax
    c4b3:	48 89 85 50 fe ff ff 	mov    %rax,-0x1b0(%rbp)
    c4ba:	48 8d 85 5c fa ff ff 	lea    -0x5a4(%rbp),%rax
    c4c1:	48 89 85 58 fe ff ff 	mov    %rax,-0x1a8(%rbp)
    c4c8:	48 8d 85 5c fa ff ff 	lea    -0x5a4(%rbp),%rax
    c4cf:	48 89 85 60 fe ff ff 	mov    %rax,-0x1a0(%rbp)
    c4d6:	48 8d 05 07 8c 00 00 	lea    0x8c07(%rip),%rax        # 150e4 <g_108+0x4>
    c4dd:	48 89 85 68 fe ff ff 	mov    %rax,-0x198(%rbp)
    c4e4:	48 8d 85 5c fa ff ff 	lea    -0x5a4(%rbp),%rax
    c4eb:	48 89 85 70 fe ff ff 	mov    %rax,-0x190(%rbp)
    c4f2:	48 8d 05 eb 8b 00 00 	lea    0x8beb(%rip),%rax        # 150e4 <g_108+0x4>
    c4f9:	48 89 85 78 fe ff ff 	mov    %rax,-0x188(%rbp)
    c500:	48 8d 85 5c fa ff ff 	lea    -0x5a4(%rbp),%rax
    c507:	48 89 85 80 fe ff ff 	mov    %rax,-0x180(%rbp)
    c50e:	48 8d 85 5c fa ff ff 	lea    -0x5a4(%rbp),%rax
    c515:	48 89 85 88 fe ff ff 	mov    %rax,-0x178(%rbp)
    c51c:	48 8d 85 5c fa ff ff 	lea    -0x5a4(%rbp),%rax
    c523:	48 89 85 90 fe ff ff 	mov    %rax,-0x170(%rbp)
    c52a:	48 8d 05 b3 8b 00 00 	lea    0x8bb3(%rip),%rax        # 150e4 <g_108+0x4>
    c531:	48 89 85 98 fe ff ff 	mov    %rax,-0x168(%rbp)
    c538:	48 8d 85 5c fa ff ff 	lea    -0x5a4(%rbp),%rax
    c53f:	48 89 85 a0 fe ff ff 	mov    %rax,-0x160(%rbp)
    c546:	48 8d 05 97 8b 00 00 	lea    0x8b97(%rip),%rax        # 150e4 <g_108+0x4>
    c54d:	48 89 85 a8 fe ff ff 	mov    %rax,-0x158(%rbp)
    c554:	48 8d 85 5c fa ff ff 	lea    -0x5a4(%rbp),%rax
    c55b:	48 89 85 b0 fe ff ff 	mov    %rax,-0x150(%rbp)
    c562:	48 8d 85 5c fa ff ff 	lea    -0x5a4(%rbp),%rax
    c569:	48 89 85 b8 fe ff ff 	mov    %rax,-0x148(%rbp)
    c570:	48 8d 85 5c fa ff ff 	lea    -0x5a4(%rbp),%rax
    c577:	48 89 85 c0 fe ff ff 	mov    %rax,-0x140(%rbp)
    c57e:	48 8d 05 5f 8b 00 00 	lea    0x8b5f(%rip),%rax        # 150e4 <g_108+0x4>
    c585:	48 89 85 c8 fe ff ff 	mov    %rax,-0x138(%rbp)
    c58c:	48 8d 85 5c fa ff ff 	lea    -0x5a4(%rbp),%rax
    c593:	48 89 85 d0 fe ff ff 	mov    %rax,-0x130(%rbp)
    c59a:	48 8d 05 43 8b 00 00 	lea    0x8b43(%rip),%rax        # 150e4 <g_108+0x4>
    c5a1:	48 89 85 d8 fe ff ff 	mov    %rax,-0x128(%rbp)
    c5a8:	48 8d 85 5c fa ff ff 	lea    -0x5a4(%rbp),%rax
    c5af:	48 89 85 e0 fe ff ff 	mov    %rax,-0x120(%rbp)
    c5b6:	48 8d 85 5c fa ff ff 	lea    -0x5a4(%rbp),%rax
    c5bd:	48 89 85 e8 fe ff ff 	mov    %rax,-0x118(%rbp)
    c5c4:	48 8d 85 5c fa ff ff 	lea    -0x5a4(%rbp),%rax
    c5cb:	48 89 85 f0 fe ff ff 	mov    %rax,-0x110(%rbp)
    c5d2:	48 8d 05 0b 8b 00 00 	lea    0x8b0b(%rip),%rax        # 150e4 <g_108+0x4>
    c5d9:	48 89 85 f8 fe ff ff 	mov    %rax,-0x108(%rbp)
    c5e0:	48 8d 85 5c fa ff ff 	lea    -0x5a4(%rbp),%rax
    c5e7:	48 89 85 00 ff ff ff 	mov    %rax,-0x100(%rbp)
    c5ee:	48 8d 05 ef 8a 00 00 	lea    0x8aef(%rip),%rax        # 150e4 <g_108+0x4>
    c5f5:	48 89 85 08 ff ff ff 	mov    %rax,-0xf8(%rbp)
    c5fc:	48 8d 85 5c fa ff ff 	lea    -0x5a4(%rbp),%rax
    c603:	48 89 85 10 ff ff ff 	mov    %rax,-0xf0(%rbp)
    c60a:	48 8d 85 5c fa ff ff 	lea    -0x5a4(%rbp),%rax
    c611:	48 89 85 18 ff ff ff 	mov    %rax,-0xe8(%rbp)
    c618:	48 8d 85 5c fa ff ff 	lea    -0x5a4(%rbp),%rax
    c61f:	48 89 85 20 ff ff ff 	mov    %rax,-0xe0(%rbp)
    c626:	48 8d 05 b7 8a 00 00 	lea    0x8ab7(%rip),%rax        # 150e4 <g_108+0x4>
    c62d:	48 89 85 28 ff ff ff 	mov    %rax,-0xd8(%rbp)
    c634:	48 8d 85 5c fa ff ff 	lea    -0x5a4(%rbp),%rax
    c63b:	48 89 85 30 ff ff ff 	mov    %rax,-0xd0(%rbp)
    c642:	48 8d 05 9b 8a 00 00 	lea    0x8a9b(%rip),%rax        # 150e4 <g_108+0x4>
    c649:	48 89 85 38 ff ff ff 	mov    %rax,-0xc8(%rbp)
    c650:	48 8d 85 5c fa ff ff 	lea    -0x5a4(%rbp),%rax
    c657:	48 89 85 40 ff ff ff 	mov    %rax,-0xc0(%rbp)
    c65e:	48 8d 85 5c fa ff ff 	lea    -0x5a4(%rbp),%rax
    c665:	48 89 85 48 ff ff ff 	mov    %rax,-0xb8(%rbp)
    c66c:	48 8d 85 5c fa ff ff 	lea    -0x5a4(%rbp),%rax
    c673:	48 89 85 50 ff ff ff 	mov    %rax,-0xb0(%rbp)
    c67a:	48 8d 05 63 8a 00 00 	lea    0x8a63(%rip),%rax        # 150e4 <g_108+0x4>
    c681:	48 89 85 58 ff ff ff 	mov    %rax,-0xa8(%rbp)
    c688:	48 8d 85 5c fa ff ff 	lea    -0x5a4(%rbp),%rax
    c68f:	48 89 85 60 ff ff ff 	mov    %rax,-0xa0(%rbp)
    c696:	48 8d 05 47 8a 00 00 	lea    0x8a47(%rip),%rax        # 150e4 <g_108+0x4>
    c69d:	48 89 85 68 ff ff ff 	mov    %rax,-0x98(%rbp)
    c6a4:	48 8d 85 5c fa ff ff 	lea    -0x5a4(%rbp),%rax
    c6ab:	48 89 85 70 ff ff ff 	mov    %rax,-0x90(%rbp)
    c6b2:	48 8d 85 5c fa ff ff 	lea    -0x5a4(%rbp),%rax
    c6b9:	48 89 85 78 ff ff ff 	mov    %rax,-0x88(%rbp)
    c6c0:	48 8d 85 5c fa ff ff 	lea    -0x5a4(%rbp),%rax
    c6c7:	48 89 45 80          	mov    %rax,-0x80(%rbp)
    c6cb:	48 8d 05 12 8a 00 00 	lea    0x8a12(%rip),%rax        # 150e4 <g_108+0x4>
    c6d2:	48 89 45 88          	mov    %rax,-0x78(%rbp)
    c6d6:	48 8d 85 5c fa ff ff 	lea    -0x5a4(%rbp),%rax
    c6dd:	48 89 45 90          	mov    %rax,-0x70(%rbp)
    c6e1:	48 8d 05 fc 89 00 00 	lea    0x89fc(%rip),%rax        # 150e4 <g_108+0x4>
    c6e8:	48 89 45 98          	mov    %rax,-0x68(%rbp)
    c6ec:	48 8d 85 5c fa ff ff 	lea    -0x5a4(%rbp),%rax
    c6f3:	48 89 45 a0          	mov    %rax,-0x60(%rbp)
    c6f7:	48 8d 85 5c fa ff ff 	lea    -0x5a4(%rbp),%rax
    c6fe:	48 89 45 a8          	mov    %rax,-0x58(%rbp)
    c702:	48 8d 85 5c fa ff ff 	lea    -0x5a4(%rbp),%rax
    c709:	48 89 45 b0          	mov    %rax,-0x50(%rbp)
    c70d:	48 8d 05 d0 89 00 00 	lea    0x89d0(%rip),%rax        # 150e4 <g_108+0x4>
    c714:	48 89 45 b8          	mov    %rax,-0x48(%rbp)
    c718:	48 8d 85 5c fa ff ff 	lea    -0x5a4(%rbp),%rax
    c71f:	48 89 45 c0          	mov    %rax,-0x40(%rbp)
    c723:	48 8d 05 ba 89 00 00 	lea    0x89ba(%rip),%rax        # 150e4 <g_108+0x4>
    c72a:	48 89 45 c8          	mov    %rax,-0x38(%rbp)
    c72e:	48 8d 05 d4 89 00 00 	lea    0x89d4(%rip),%rax        # 15109 <g_140>
    c735:	48 89 85 d8 fa ff ff 	mov    %rax,-0x528(%rbp)
    c73c:	48 8d 85 80 fa ff ff 	lea    -0x580(%rbp),%rax
    c743:	48 89 85 e0 fa ff ff 	mov    %rax,-0x520(%rbp)
    c74a:	48 8d 05 63 89 00 00 	lea    0x8963(%rip),%rax        # 150b4 <g_81>
    c751:	48 89 85 e8 fa ff ff 	mov    %rax,-0x518(%rbp)
    c758:	c7 85 64 fa ff ff 00 	movl   $0x0,-0x59c(%rbp)
    c75f:	00 00 00 
    c762:	eb 21                	jmp    c785 <func_54+0x8d0>
    c764:	8b 85 64 fa ff ff    	mov    -0x59c(%rbp),%eax
    c76a:	48 98                	cltq   
    c76c:	48 b9 ce d1 dc 5e 4e 	movabs $0xbca5ce4e5edcd1ce,%rcx
    c773:	ce a5 bc 
    c776:	48 89 8c c5 60 fb ff 	mov    %rcx,-0x4a0(%rbp,%rax,8)
    c77d:	ff 
    c77e:	83 85 64 fa ff ff 01 	addl   $0x1,-0x59c(%rbp)
    c785:	83 bd 64 fa ff ff 01 	cmpl   $0x1,-0x59c(%rbp)
    c78c:	7e d6                	jle    c764 <func_54+0x8af>
    c78e:	48 c7 05 27 89 00 00 	movq   $0x0,0x8927(%rip)        # 150c0 <g_99>
    c795:	00 00 00 00 
    c799:	90                   	nop
    c79a:	48 8b 05 1f 89 00 00 	mov    0x891f(%rip),%rax        # 150c0 <g_99>
    c7a1:	48 83 f8 02          	cmp    $0x2,%rax
    c7a5:	77 0c                	ja     c7b3 <func_54+0x8fe>
    c7a7:	48 8d 05 02 89 00 00 	lea    0x8902(%rip),%rax        # 150b0 <g_47>
    c7ae:	e9 cf 03 00 00       	jmpq   cb82 <func_54+0xccd>
    c7b3:	c7 05 07 8a 00 00 f3 	movl   $0xfffffff3,0x8a07(%rip)        # 151c4 <g_208>
    c7ba:	ff ff ff 
    c7bd:	e9 ca 01 00 00       	jmpq   c98c <func_54+0xad7>
    c7c2:	66 c7 05 1b 8a 00 00 	movw   $0xffe5,0x8a1b(%rip)        # 151e6 <g_222+0x6>
    c7c9:	e5 ff 
    c7cb:	e9 8d 01 00 00       	jmpq   c95d <func_54+0xaa8>
    c7d0:	48 8d 05 e1 88 00 00 	lea    0x88e1(%rip),%rax        # 150b8 <g_82>
    c7d7:	48 89 85 f0 fa ff ff 	mov    %rax,-0x510(%rbp)
    c7de:	48 8d 05 ff 88 00 00 	lea    0x88ff(%rip),%rax        # 150e4 <g_108+0x4>
    c7e5:	48 89 85 f8 fa ff ff 	mov    %rax,-0x508(%rbp)
    c7ec:	48 8d 05 f1 88 00 00 	lea    0x88f1(%rip),%rax        # 150e4 <g_108+0x4>
    c7f3:	48 89 85 00 fb ff ff 	mov    %rax,-0x500(%rbp)
    c7fa:	48 8d 05 b3 88 00 00 	lea    0x88b3(%rip),%rax        # 150b4 <g_81>
    c801:	48 89 85 08 fb ff ff 	mov    %rax,-0x4f8(%rbp)
    c808:	48 8d 05 a9 88 00 00 	lea    0x88a9(%rip),%rax        # 150b8 <g_82>
    c80f:	48 89 85 10 fb ff ff 	mov    %rax,-0x4f0(%rbp)
    c816:	48 8d 05 97 88 00 00 	lea    0x8897(%rip),%rax        # 150b4 <g_81>
    c81d:	48 89 85 18 fb ff ff 	mov    %rax,-0x4e8(%rbp)
    c824:	48 8d 05 8d 88 00 00 	lea    0x888d(%rip),%rax        # 150b8 <g_82>
    c82b:	48 89 85 20 fb ff ff 	mov    %rax,-0x4e0(%rbp)
    c832:	48 8d 05 ab 88 00 00 	lea    0x88ab(%rip),%rax        # 150e4 <g_108+0x4>
    c839:	48 89 85 28 fb ff ff 	mov    %rax,-0x4d8(%rbp)
    c840:	48 c7 85 30 fb ff ff 	movq   $0x0,-0x4d0(%rbp)
    c847:	00 00 00 00 
    c84b:	48 8d 05 66 88 00 00 	lea    0x8866(%rip),%rax        # 150b8 <g_82>
    c852:	48 89 85 38 fb ff ff 	mov    %rax,-0x4c8(%rbp)
    c859:	48 c7 85 40 fb ff ff 	movq   $0x0,-0x4c0(%rbp)
    c860:	00 00 00 00 
    c864:	48 8d 05 8d 88 00 00 	lea    0x888d(%rip),%rax        # 150f8 <g_108+0x18>
    c86b:	48 89 85 48 fb ff ff 	mov    %rax,-0x4b8(%rbp)
    c872:	48 c7 85 50 fb ff ff 	movq   $0x0,-0x4b0(%rbp)
    c879:	00 00 00 00 
    c87d:	48 8d 05 34 88 00 00 	lea    0x8834(%rip),%rax        # 150b8 <g_82>
    c884:	48 89 85 58 fb ff ff 	mov    %rax,-0x4a8(%rbp)
    c88b:	48 c7 85 10 fc ff ff 	movq   $0x0,-0x3f0(%rbp)
    c892:	00 00 00 00 
    c896:	48 8d 05 47 88 00 00 	lea    0x8847(%rip),%rax        # 150e4 <g_108+0x4>
    c89d:	48 89 85 18 fc ff ff 	mov    %rax,-0x3e8(%rbp)
    c8a4:	48 c7 85 20 fc ff ff 	movq   $0x0,-0x3e0(%rbp)
    c8ab:	00 00 00 00 
    c8af:	48 c7 85 28 fc ff ff 	movq   $0x0,-0x3d8(%rbp)
    c8b6:	00 00 00 00 
    c8ba:	48 8d 05 23 88 00 00 	lea    0x8823(%rip),%rax        # 150e4 <g_108+0x4>
    c8c1:	48 89 85 30 fc ff ff 	mov    %rax,-0x3d0(%rbp)
    c8c8:	48 8d 05 15 88 00 00 	lea    0x8815(%rip),%rax        # 150e4 <g_108+0x4>
    c8cf:	48 89 85 38 fc ff ff 	mov    %rax,-0x3c8(%rbp)
    c8d6:	48 c7 85 40 fc ff ff 	movq   $0x0,-0x3c0(%rbp)
    c8dd:	00 00 00 00 
    c8e1:	48 8d 05 fc 87 00 00 	lea    0x87fc(%rip),%rax        # 150e4 <g_108+0x4>
    c8e8:	48 89 85 48 fc ff ff 	mov    %rax,-0x3b8(%rbp)
    c8ef:	48 8d 05 ee 87 00 00 	lea    0x87ee(%rip),%rax        # 150e4 <g_108+0x4>
    c8f6:	48 89 85 50 fc ff ff 	mov    %rax,-0x3b0(%rbp)
    c8fd:	48 c7 85 58 fc ff ff 	movq   $0x0,-0x3a8(%rbp)
    c904:	00 00 00 00 
    c908:	48 c7 85 60 fc ff ff 	movq   $0x0,-0x3a0(%rbp)
    c90f:	00 00 00 00 
    c913:	48 8d 05 ca 87 00 00 	lea    0x87ca(%rip),%rax        # 150e4 <g_108+0x4>
    c91a:	48 89 85 68 fc ff ff 	mov    %rax,-0x398(%rbp)
    c921:	66 c7 05 dc 8c 00 00 	movw   $0xb,0x8cdc(%rip)        # 15606 <g_227+0x6>
    c928:	0b 00 
    c92a:	90                   	nop
    c92b:	0f b7 05 d4 8c 00 00 	movzwl 0x8cd4(%rip),%eax        # 15606 <g_227+0x6>
    c932:	66 83 f8 15          	cmp    $0x15,%ax
    c936:	75 0c                	jne    c944 <func_54+0xa8f>
    c938:	48 8d 05 79 8d 00 00 	lea    0x8d79(%rip),%rax        # 156b8 <g_285+0x8>
    c93f:	e9 3e 02 00 00       	jmpq   cb82 <func_54+0xccd>
    c944:	48 83 85 88 fa ff ff 	addq   $0x1,-0x578(%rbp)
    c94b:	01 
    c94c:	0f b7 05 93 88 00 00 	movzwl 0x8893(%rip),%eax        # 151e6 <g_222+0x6>
    c953:	83 c0 01             	add    $0x1,%eax
    c956:	66 89 05 89 88 00 00 	mov    %ax,0x8889(%rip)        # 151e6 <g_222+0x6>
    c95d:	0f b7 05 82 88 00 00 	movzwl 0x8882(%rip),%eax        # 151e6 <g_222+0x6>
    c964:	66 83 f8 09          	cmp    $0x9,%ax
    c968:	0f 85 62 fe ff ff    	jne    c7d0 <func_54+0x91b>
    c96e:	8b 05 50 88 00 00    	mov    0x8850(%rip),%eax        # 151c4 <g_208>
    c974:	0f b7 c0             	movzwl %ax,%eax
    c977:	be 05 00 00 00       	mov    $0x5,%esi
    c97c:	89 c7                	mov    %eax,%edi
    c97e:	e8 9c a3 ff ff       	callq  6d1f <safe_sub_func_uint16_t_u_u>
    c983:	0f b7 c0             	movzwl %ax,%eax
    c986:	89 05 38 88 00 00    	mov    %eax,0x8838(%rip)        # 151c4 <g_208>
    c98c:	8b 05 32 88 00 00    	mov    0x8832(%rip),%eax        # 151c4 <g_208>
    c992:	83 f8 e4             	cmp    $0xffffffe4,%eax
    c995:	0f 8d 27 fe ff ff    	jge    c7c2 <func_54+0x90d>
    c99b:	0f bf 9d 5a fa ff ff 	movswl -0x5a6(%rbp),%ebx
    c9a2:	8b 05 54 87 00 00    	mov    0x8754(%rip),%eax        # 150fc <g_108+0x1c>
    c9a8:	4c 63 e0             	movslq %eax,%r12
    c9ab:	48 8b 85 48 fa ff ff 	mov    -0x5b8(%rbp),%rax
    c9b2:	41 89 c5             	mov    %eax,%r13d
    c9b5:	48 8b 85 88 fa ff ff 	mov    -0x578(%rbp),%rax
    c9bc:	48 3b 85 48 fa ff ff 	cmp    -0x5b8(%rbp),%rax
    c9c3:	0f 93 c0             	setae  %al
    c9c6:	0f b6 d0             	movzbl %al,%edx
    c9c9:	8b 85 5c fa ff ff    	mov    -0x5a4(%rbp),%eax
    c9cf:	39 c2                	cmp    %eax,%edx
    c9d1:	0f 9d c0             	setge  %al
    c9d4:	0f b6 d0             	movzbl %al,%edx
    c9d7:	0f b7 05 4e c7 00 00 	movzwl 0xc74e(%rip),%eax        # 1912c <g_104>
    c9de:	98                   	cwtl   
    c9df:	09 d0                	or     %edx,%eax
    c9e1:	35 ff ff 00 00       	xor    $0xffff,%eax
    c9e6:	89 c2                	mov    %eax,%edx
    c9e8:	0f b7 05 b7 8a 00 00 	movzwl 0x8ab7(%rip),%eax        # 154a6 <g_223+0x2a6>
    c9ef:	98                   	cwtl   
    c9f0:	39 c2                	cmp    %eax,%edx
    c9f2:	0f 97 c2             	seta   %dl
    c9f5:	48 8b 05 3c c0 00 00 	mov    0xc03c(%rip),%rax        # 18a38 <g_312>
    c9fc:	48 8b 00             	mov    (%rax),%rax
    c9ff:	0f b6 d2             	movzbl %dl,%edx
    ca02:	48 89 10             	mov    %rdx,(%rax)
    ca05:	48 8b 00             	mov    (%rax),%rax
    ca08:	48 be 38 2c cc 92 78 	movabs $0x68b0597892cc2c38,%rsi
    ca0f:	59 b0 68 
    ca12:	48 89 c7             	mov    %rax,%rdi
    ca15:	e8 8e 9e ff ff       	callq  68a8 <safe_sub_func_int64_t_s_s>
    ca1a:	0f be c0             	movsbl %al,%eax
    ca1d:	44 89 ee             	mov    %r13d,%esi
    ca20:	89 c7                	mov    %eax,%edi
    ca22:	e8 c7 98 ff ff       	callq  62ee <safe_lshift_func_int8_t_s_u>
    ca27:	48 0f be d0          	movsbq %al,%rdx
    ca2b:	48 8b 85 60 fb ff ff 	mov    -0x4a0(%rbp),%rax
    ca32:	48 39 c2             	cmp    %rax,%rdx
    ca35:	76 0f                	jbe    ca46 <func_54+0xb91>
    ca37:	48 8b 05 82 be 00 00 	mov    0xbe82(%rip),%rax        # 188c0 <g_171>
    ca3e:	0f b7 00             	movzwl (%rax),%eax
    ca41:	66 85 c0             	test   %ax,%ax
    ca44:	74 07                	je     ca4d <func_54+0xb98>
    ca46:	ba 01 00 00 00       	mov    $0x1,%edx
    ca4b:	eb 05                	jmp    ca52 <func_54+0xb9d>
    ca4d:	ba 00 00 00 00       	mov    $0x0,%edx
    ca52:	48 8b 85 d0 fa ff ff 	mov    -0x530(%rbp),%rax
    ca59:	89 10                	mov    %edx,(%rax)
    ca5b:	48 8b 85 d0 fa ff ff 	mov    -0x530(%rbp),%rax
    ca62:	8b 00                	mov    (%rax),%eax
    ca64:	89 c6                	mov    %eax,%esi
    ca66:	bf f7 ff ff ff       	mov    $0xfffffff7,%edi
    ca6b:	e8 5c 9c ff ff       	callq  66cc <safe_mod_func_int32_t_s_s>
    ca70:	48 98                	cltq   
    ca72:	48 ba a4 a3 76 ed 1b 	movabs $0x6c8e1a1bed76a3a4,%rdx
    ca79:	1a 8e 6c 
    ca7c:	48 31 d0             	xor    %rdx,%rax
    ca7f:	49 39 c4             	cmp    %rax,%r12
    ca82:	c7 05 28 86 00 00 00 	movl   $0x0,0x8628(%rip)        # 150b4 <g_81>
    ca89:	00 00 00 
    ca8c:	8b 05 22 86 00 00    	mov    0x8622(%rip),%eax        # 150b4 <g_81>
    ca92:	89 de                	mov    %ebx,%esi
    ca94:	89 c7                	mov    %eax,%edi
    ca96:	e8 1b 9b ff ff       	callq  65b6 <safe_add_func_int32_t_s_s>
    ca9b:	8b 85 5c fa ff ff    	mov    -0x5a4(%rbp),%eax
    caa1:	89 05 3d 86 00 00    	mov    %eax,0x863d(%rip)        # 150e4 <g_108+0x4>
    caa7:	48 8b 05 12 86 00 00 	mov    0x8612(%rip),%rax        # 150c0 <g_99>
    caae:	89 c2                	mov    %eax,%edx
    cab0:	8b 05 82 c6 00 00    	mov    0xc682(%rip),%eax        # 19138 <g_384>
    cab6:	0f be c0             	movsbl %al,%eax
    cab9:	89 d6                	mov    %edx,%esi
    cabb:	89 c7                	mov    %eax,%edi
    cabd:	e8 73 98 ff ff       	callq  6335 <safe_rshift_func_int8_t_s_s>
    cac2:	0f be c0             	movsbl %al,%eax
    cac5:	21 85 6c fa ff ff    	and    %eax,-0x594(%rbp)
    cacb:	48 8b 85 90 fa ff ff 	mov    -0x570(%rbp),%rax
    cad2:	48 89 85 d8 fa ff ff 	mov    %rax,-0x528(%rbp)
    cad9:	48 8d 05 29 86 00 00 	lea    0x8629(%rip),%rax        # 15109 <g_140>
    cae0:	48 89 05 59 bf 00 00 	mov    %rax,0xbf59(%rip)        # 18a40 <g_388>
    cae7:	48 8b 05 52 bf 00 00 	mov    0xbf52(%rip),%rax        # 18a40 <g_388>
    caee:	48 39 85 d8 fa ff ff 	cmp    %rax,-0x528(%rbp)
    caf5:	0f 95 c0             	setne  %al
    caf8:	88 05 0b 86 00 00    	mov    %al,0x860b(%rip)        # 15109 <g_140>
    cafe:	48 8b 15 43 bf 00 00 	mov    0xbf43(%rip),%rdx        # 18a48 <g_389>
    cb05:	48 8b 85 e0 fa ff ff 	mov    -0x520(%rbp),%rax
    cb0c:	48 89 10             	mov    %rdx,(%rax)
    cb0f:	48 8b 85 e0 fa ff ff 	mov    -0x520(%rbp),%rax
    cb16:	48 8b 00             	mov    (%rax),%rax
    cb19:	48 89 85 e8 fa ff ff 	mov    %rax,-0x518(%rbp)
    cb20:	0f b7 05 05 c6 00 00 	movzwl 0xc605(%rip),%eax        # 1912c <g_104>
    cb27:	83 e8 01             	sub    $0x1,%eax
    cb2a:	66 89 05 fb c5 00 00 	mov    %ax,0xc5fb(%rip)        # 1912c <g_104>
    cb31:	0f b7 05 f4 c5 00 00 	movzwl 0xc5f4(%rip),%eax        # 1912c <g_104>
    cb38:	66 83 f8 fc          	cmp    $0xfffc,%ax
    cb3c:	0f 8d fb f5 ff ff    	jge    c13d <func_54+0x288>
    cb42:	8b 85 60 fa ff ff    	mov    -0x5a0(%rbp),%eax
    cb48:	83 c0 01             	add    $0x1,%eax
    cb4b:	89 85 60 fa ff ff    	mov    %eax,-0x5a0(%rbp)
    cb51:	48 83 ad c0 fa ff ff 	subq   $0x1,-0x540(%rbp)
    cb58:	01 
    cb59:	0f b7 05 76 86 00 00 	movzwl 0x8676(%rip),%eax        # 151d6 <g_221+0x6>
    cb60:	83 e8 01             	sub    $0x1,%eax
    cb63:	66 89 05 6c 86 00 00 	mov    %ax,0x866c(%rip)        # 151d6 <g_221+0x6>
    cb6a:	0f b7 05 65 86 00 00 	movzwl 0x8665(%rip),%eax        # 151d6 <g_221+0x6>
    cb71:	66 83 f8 f2          	cmp    $0xfff2,%ax
    cb75:	0f 8d 0c f4 ff ff    	jge    bf87 <func_54+0xd2>
    cb7b:	48 8d 05 3a 8b 00 00 	lea    0x8b3a(%rip),%rax        # 156bc <g_285+0xc>
    cb82:	48 8b 4d d8          	mov    -0x28(%rbp),%rcx
    cb86:	64 48 33 0c 25 28 00 	xor    %fs:0x28,%rcx
    cb8d:	00 00 
    cb8f:	74 05                	je     cb96 <func_54+0xce1>
    cb91:	e8 da 94 ff ff       	callq  6070 <__stack_chk_fail@plt>
    cb96:	48 81 c4 b8 05 00 00 	add    $0x5b8,%rsp
    cb9d:	5b                   	pop    %rbx
    cb9e:	41 5c                	pop    %r12
    cba0:	41 5d                	pop    %r13
    cba2:	5d                   	pop    %rbp
    cba3:	c3                   	retq   

000000000000cba4 <func_60>:
    cba4:	f3 0f 1e fa          	endbr64 
    cba8:	55                   	push   %rbp
    cba9:	48 89 e5             	mov    %rsp,%rbp
    cbac:	41 56                	push   %r14
    cbae:	41 55                	push   %r13
    cbb0:	41 54                	push   %r12
    cbb2:	53                   	push   %rbx
    cbb3:	48 81 ec 10 09 00 00 	sub    $0x910,%rsp
    cbba:	89 bd dc f6 ff ff    	mov    %edi,-0x924(%rbp)
    cbc0:	48 89 b5 d0 f6 ff ff 	mov    %rsi,-0x930(%rbp)
    cbc7:	64 48 8b 04 25 28 00 	mov    %fs:0x28,%rax
    cbce:	00 00 
    cbd0:	48 89 45 d8          	mov    %rax,-0x28(%rbp)
    cbd4:	31 c0                	xor    %eax,%eax
    cbd6:	c7 85 f0 f6 ff ff 01 	movl   $0x1,-0x910(%rbp)
    cbdd:	00 00 00 
    cbe0:	c7 85 14 f7 ff ff a3 	movl   $0x222122a3,-0x8ec(%rbp)
    cbe7:	22 21 22 
    cbea:	48 8d 05 f3 84 00 00 	lea    0x84f3(%rip),%rax        # 150e4 <g_108+0x4>
    cbf1:	48 89 85 38 f7 ff ff 	mov    %rax,-0x8c8(%rbp)
    cbf8:	48 8d 05 c9 84 00 00 	lea    0x84c9(%rip),%rax        # 150c8 <g_102>
    cbff:	48 89 85 40 f7 ff ff 	mov    %rax,-0x8c0(%rbp)
    cc06:	c7 85 08 f7 ff ff 00 	movl   $0x0,-0x8f8(%rbp)
    cc0d:	00 00 00 
    cc10:	eb 19                	jmp    cc2b <func_60+0x87>
    cc12:	8b 85 08 f7 ff ff    	mov    -0x8f8(%rbp),%eax
    cc18:	48 98                	cltq   
    cc1a:	66 c7 84 45 74 f8 ff 	movw   $0x1,-0x78c(%rbp,%rax,2)
    cc21:	ff 01 00 
    cc24:	83 85 08 f7 ff ff 01 	addl   $0x1,-0x8f8(%rbp)
    cc2b:	83 bd 08 f7 ff ff 01 	cmpl   $0x1,-0x8f8(%rbp)
    cc32:	7e de                	jle    cc12 <func_60+0x6e>
    cc34:	c7 85 08 f7 ff ff 00 	movl   $0x0,-0x8f8(%rbp)
    cc3b:	00 00 00 
    cc3e:	eb 1e                	jmp    cc5e <func_60+0xba>
    cc40:	8b 85 08 f7 ff ff    	mov    -0x8f8(%rbp),%eax
    cc46:	48 98                	cltq   
    cc48:	48 8d 15 b9 84 00 00 	lea    0x84b9(%rip),%rdx        # 15108 <g_138>
    cc4f:	48 89 94 c5 a0 f8 ff 	mov    %rdx,-0x760(%rbp,%rax,8)
    cc56:	ff 
    cc57:	83 85 08 f7 ff ff 01 	addl   $0x1,-0x8f8(%rbp)
    cc5e:	83 bd 08 f7 ff ff 02 	cmpl   $0x2,-0x8f8(%rbp)
    cc65:	7e d9                	jle    cc40 <func_60+0x9c>
    cc67:	90                   	nop
    cc68:	c7 05 3e 84 00 00 00 	movl   $0x0,0x843e(%rip)        # 150b0 <g_47>
    cc6f:	00 00 00 
    cc72:	90                   	nop
    cc73:	8b 05 37 84 00 00    	mov    0x8437(%rip),%eax        # 150b0 <g_47>
    cc79:	83 f8 01             	cmp    $0x1,%eax
    cc7c:	77 18                	ja     cc96 <func_60+0xf2>
    cc7e:	8b 05 2c 84 00 00    	mov    0x842c(%rip),%eax        # 150b0 <g_47>
    cc84:	89 c0                	mov    %eax,%eax
    cc86:	0f b7 84 45 74 f8 ff 	movzwl -0x78c(%rbp,%rax,2),%eax
    cc8d:	ff 
    cc8e:	0f b7 c0             	movzwl %ax,%eax
    cc91:	e9 6e 1f 00 00       	jmpq   ec04 <func_60+0x2060>
    cc96:	c7 05 10 84 00 00 00 	movl   $0x0,0x8410(%rip)        # 150b0 <g_47>
    cc9d:	00 00 00 
    cca0:	e9 43 1f 00 00       	jmpq   ebe8 <func_60+0x2044>
    cca5:	c7 85 c0 f8 ff ff ff 	movl   $0xffffffff,-0x740(%rbp)
    ccac:	ff ff ff 
    ccaf:	c7 85 c4 f8 ff ff ff 	movl   $0xffffffff,-0x73c(%rbp)
    ccb6:	ff ff ff 
    ccb9:	c7 85 c8 f8 ff ff ff 	movl   $0xffffffff,-0x738(%rbp)
    ccc0:	ff ff ff 
    ccc3:	c7 85 cc f8 ff ff ff 	movl   $0xffffffff,-0x734(%rbp)
    ccca:	ff ff ff 
    cccd:	c7 85 d0 f8 ff ff ff 	movl   $0xffffffff,-0x730(%rbp)
    ccd4:	ff ff ff 
    ccd7:	c7 85 d4 f8 ff ff ff 	movl   $0xffffffff,-0x72c(%rbp)
    ccde:	ff ff ff 
    cce1:	c7 85 d8 f8 ff ff ff 	movl   $0xffffffff,-0x728(%rbp)
    cce8:	ff ff ff 
    cceb:	c7 85 04 f7 ff ff ff 	movl   $0xffffffff,-0x8fc(%rbp)
    ccf2:	ff ff ff 
    ccf5:	48 c7 85 58 f7 ff ff 	movq   $0x0,-0x8a8(%rbp)
    ccfc:	00 00 00 00 
    cd00:	c7 85 18 f7 ff ff 05 	movl   $0x5,-0x8e8(%rbp)
    cd07:	00 00 00 
    cd0a:	c7 85 f4 f6 ff ff 26 	movl   $0xa0453326,-0x90c(%rbp)
    cd11:	33 45 a0 
    cd14:	c7 85 1c f7 ff ff f8 	movl   $0xfffffff8,-0x8e4(%rbp)
    cd1b:	ff ff ff 
    cd1e:	48 8d 85 a0 f9 ff ff 	lea    -0x660(%rbp),%rax
    cd25:	48 8d 15 f4 b5 00 00 	lea    0xb5f4(%rip),%rdx        # 18320 <g_1915+0x19d0>
    cd2c:	b9 36 00 00 00       	mov    $0x36,%ecx
    cd31:	48 89 c7             	mov    %rax,%rdi
    cd34:	48 89 d6             	mov    %rdx,%rsi
    cd37:	f3 48 a5             	rep movsq %ds:(%rsi),%es:(%rdi)
    cd3a:	48 c7 85 60 f7 ff ff 	movq   $0x0,-0x8a0(%rbp)
    cd41:	00 00 00 00 
    cd45:	0f b7 85 74 f8 ff ff 	movzwl -0x78c(%rbp),%eax
    cd4c:	66 85 c0             	test   %ax,%ax
    cd4f:	0f 84 9b 07 00 00    	je     d4f0 <func_60+0x94c>
    cd55:	48 c7 85 c8 f7 ff ff 	movq   $0x0,-0x838(%rbp)
    cd5c:	00 00 00 00 
    cd60:	c7 85 2c f7 ff ff 8c 	movl   $0x8d59668c,-0x8d4(%rbp)
    cd67:	66 59 8d 
    cd6a:	c7 85 30 f7 ff ff d9 	movl   $0x995afd9,-0x8d0(%rbp)
    cd71:	af 95 09 
    cd74:	c7 85 dc f6 ff ff 00 	movl   $0x0,-0x924(%rbp)
    cd7b:	00 00 00 
    cd7e:	e9 59 07 00 00       	jmpq   d4dc <func_60+0x938>
    cd83:	c7 85 50 f7 ff ff f7 	movl   $0xfffffff7,-0x8b0(%rbp)
    cd8a:	ff ff ff 
    cd8d:	48 8d 05 3c 83 00 00 	lea    0x833c(%rip),%rax        # 150d0 <g_105>
    cd94:	48 89 85 d0 f7 ff ff 	mov    %rax,-0x830(%rbp)
    cd9b:	c6 85 ec f6 ff ff f8 	movb   $0xf8,-0x914(%rbp)
    cda2:	c7 05 08 83 00 00 00 	movl   $0x0,0x8308(%rip)        # 150b4 <g_81>
    cda9:	00 00 00 
    cdac:	90                   	nop
    cdad:	8b 05 01 83 00 00    	mov    0x8301(%rip),%eax        # 150b4 <g_81>
    cdb3:	83 f8 01             	cmp    $0x1,%eax
    cdb6:	0f 8f 11 07 00 00    	jg     d4cd <func_60+0x929>
    cdbc:	c6 85 ed f6 ff ff 00 	movb   $0x0,-0x913(%rbp)
    cdc3:	48 8d 05 fe 82 00 00 	lea    0x82fe(%rip),%rax        # 150c8 <g_102>
    cdca:	48 89 85 d8 f7 ff ff 	mov    %rax,-0x828(%rbp)
    cdd1:	48 c7 85 e0 f7 ff ff 	movq   $0x0,-0x820(%rbp)
    cdd8:	00 00 00 00 
    cddc:	48 8d 05 e5 82 00 00 	lea    0x82e5(%rip),%rax        # 150c8 <g_102>
    cde3:	48 89 85 e8 f7 ff ff 	mov    %rax,-0x818(%rbp)
    cdea:	48 8d 05 fb 82 00 00 	lea    0x82fb(%rip),%rax        # 150ec <g_108+0xc>
    cdf1:	48 89 85 f0 f7 ff ff 	mov    %rax,-0x810(%rbp)
    cdf8:	48 8d 85 50 f7 ff ff 	lea    -0x8b0(%rbp),%rax
    cdff:	48 89 85 e0 f8 ff ff 	mov    %rax,-0x720(%rbp)
    ce06:	48 8d 85 50 f7 ff ff 	lea    -0x8b0(%rbp),%rax
    ce0d:	48 89 85 e8 f8 ff ff 	mov    %rax,-0x718(%rbp)
    ce14:	48 8d 05 95 82 00 00 	lea    0x8295(%rip),%rax        # 150b0 <g_47>
    ce1b:	48 89 85 f0 f8 ff ff 	mov    %rax,-0x710(%rbp)
    ce22:	48 8d 85 50 f7 ff ff 	lea    -0x8b0(%rbp),%rax
    ce29:	48 89 85 f8 f8 ff ff 	mov    %rax,-0x708(%rbp)
    ce30:	48 8d 85 50 f7 ff ff 	lea    -0x8b0(%rbp),%rax
    ce37:	48 89 85 00 f9 ff ff 	mov    %rax,-0x700(%rbp)
    ce3e:	48 8d 05 6b 82 00 00 	lea    0x826b(%rip),%rax        # 150b0 <g_47>
    ce45:	48 89 85 08 f9 ff ff 	mov    %rax,-0x6f8(%rbp)
    ce4c:	48 8d 85 50 f7 ff ff 	lea    -0x8b0(%rbp),%rax
    ce53:	48 89 85 10 f9 ff ff 	mov    %rax,-0x6f0(%rbp)
    ce5a:	48 8d 85 50 f7 ff ff 	lea    -0x8b0(%rbp),%rax
    ce61:	48 89 85 18 f9 ff ff 	mov    %rax,-0x6e8(%rbp)
    ce68:	48 8d 05 99 82 00 00 	lea    0x8299(%rip),%rax        # 15108 <g_138>
    ce6f:	48 89 85 f8 f7 ff ff 	mov    %rax,-0x808(%rbp)
    ce76:	48 8d 85 50 fb ff ff 	lea    -0x4b0(%rbp),%rax
    ce7d:	48 8d 15 5c b6 00 00 	lea    0xb65c(%rip),%rdx        # 184e0 <g_1915+0x1b90>
    ce84:	b9 54 00 00 00       	mov    $0x54,%ecx
    ce89:	48 89 c7             	mov    %rax,%rdi
    ce8c:	48 89 d6             	mov    %rdx,%rsi
    ce8f:	f3 48 a5             	rep movsq %ds:(%rsi),%es:(%rdi)
    ce92:	c7 05 1c 82 00 00 00 	movl   $0x0,0x821c(%rip)        # 150b8 <g_82>
    ce99:	00 00 00 
    ce9c:	90                   	nop
    ce9d:	8b 05 15 82 00 00    	mov    0x8215(%rip),%eax        # 150b8 <g_82>
    cea3:	83 f8 01             	cmp    $0x1,%eax
    cea6:	0f 8f d9 01 00 00    	jg     d085 <func_60+0x4e1>
    ceac:	48 8d 05 fd 81 00 00 	lea    0x81fd(%rip),%rax        # 150b0 <g_47>
    ceb3:	48 89 85 00 f8 ff ff 	mov    %rax,-0x800(%rbp)
    ceba:	48 8d 05 ff 81 00 00 	lea    0x81ff(%rip),%rax        # 150c0 <g_99>
    cec1:	48 89 85 08 f8 ff ff 	mov    %rax,-0x7f8(%rbp)
    cec8:	48 c7 85 10 f8 ff ff 	movq   $0x0,-0x7f0(%rbp)
    cecf:	00 00 00 00 
    ced3:	48 8d 05 52 c2 00 00 	lea    0xc252(%rip),%rax        # 1912c <g_104>
    ceda:	48 89 85 18 f8 ff ff 	mov    %rax,-0x7e8(%rbp)
    cee1:	48 8d 05 fc 81 00 00 	lea    0x81fc(%rip),%rax        # 150e4 <g_108+0x4>
    cee8:	48 89 85 20 f8 ff ff 	mov    %rax,-0x7e0(%rbp)
    ceef:	c7 85 00 f7 ff ff 00 	movl   $0x0,-0x900(%rbp)
    cef6:	00 00 00 
    cef9:	eb 1e                	jmp    cf19 <func_60+0x375>
    cefb:	8b 85 00 f7 ff ff    	mov    -0x900(%rbp),%eax
    cf01:	48 98                	cltq   
    cf03:	48 8d 15 be 81 00 00 	lea    0x81be(%rip),%rdx        # 150c8 <g_102>
    cf0a:	48 89 94 c5 30 f9 ff 	mov    %rdx,-0x6d0(%rbp,%rax,8)
    cf11:	ff 
    cf12:	83 85 00 f7 ff ff 01 	addl   $0x1,-0x900(%rbp)
    cf19:	83 bd 00 f7 ff ff 02 	cmpl   $0x2,-0x900(%rbp)
    cf20:	7e d9                	jle    cefb <func_60+0x357>
    cf22:	8b 05 00 81 00 00    	mov    0x8100(%rip),%eax        # 15028 <g_4>
    cf28:	0f bf d8             	movswl %ax,%ebx
    cf2b:	48 8b 85 d0 f6 ff ff 	mov    -0x930(%rbp),%rax
    cf32:	44 0f be e0          	movsbl %al,%r12d
    cf36:	48 83 bd 00 f8 ff ff 	cmpq   $0x0,-0x800(%rbp)
    cf3d:	00 
    cf3e:	0f 94 c0             	sete   %al
    cf41:	44 0f b6 e8          	movzbl %al,%r13d
    cf45:	48 8b 85 08 f8 ff ff 	mov    -0x7f8(%rbp),%rax
    cf4c:	48 c7 00 00 00 00 00 	movq   $0x0,(%rax)
    cf53:	48 8b 85 08 f8 ff ff 	mov    -0x7f8(%rbp),%rax
    cf5a:	48 8b 00             	mov    (%rax),%rax
    cf5d:	8b 15 4d 81 00 00    	mov    0x814d(%rip),%edx        # 150b0 <g_47>
    cf63:	89 d2                	mov    %edx,%edx
    cf65:	48 89 c6             	mov    %rax,%rsi
    cf68:	48 89 d7             	mov    %rdx,%rdi
    cf6b:	e8 db a0 ff ff       	callq  704b <safe_sub_func_uint64_t_u_u>
    cf70:	4c 21 e8             	and    %r13,%rax
    cf73:	48 89 05 4e 81 00 00 	mov    %rax,0x814e(%rip)        # 150c8 <g_102>
    cf7a:	48 8b 05 47 81 00 00 	mov    0x8147(%rip),%rax        # 150c8 <g_102>
    cf81:	48 ba 5c e8 e9 6a 0d 	movabs $0x971a050d6ae9e85c,%rdx
    cf88:	05 1a 97 
    cf8b:	48 39 d0             	cmp    %rdx,%rax
    cf8e:	0f 95 c0             	setne  %al
    cf91:	0f b6 c0             	movzbl %al,%eax
    cf94:	48 89 c7             	mov    %rax,%rdi
    cf97:	e8 7d a0 ff ff       	callq  7019 <safe_unary_minus_func_uint64_t_u>
    cf9c:	48 85 c0             	test   %rax,%rax
    cf9f:	0f 94 c0             	sete   %al
    cfa2:	0f b6 c0             	movzbl %al,%eax
    cfa5:	48 be a2 44 40 5a 85 	movabs $0xcb415c855a4044a2,%rsi
    cfac:	5c 41 cb 
    cfaf:	48 89 c7             	mov    %rax,%rdi
    cfb2:	e8 f1 98 ff ff       	callq  68a8 <safe_sub_func_int64_t_s_s>
    cfb7:	8b 05 fb 80 00 00    	mov    0x80fb(%rip),%eax        # 150b8 <g_82>
    cfbd:	83 f8 06             	cmp    $0x6,%eax
    cfc0:	0f 9f c0             	setg   %al
    cfc3:	0f b6 d0             	movzbl %al,%edx
    cfc6:	8b 05 ec 80 00 00    	mov    0x80ec(%rip),%eax        # 150b8 <g_82>
    cfcc:	39 c2                	cmp    %eax,%edx
    cfce:	0f 9e c0             	setle  %al
    cfd1:	0f b6 c0             	movzbl %al,%eax
    cfd4:	be 01 00 00 00       	mov    $0x1,%esi
    cfd9:	48 89 c7             	mov    %rax,%rdi
    cfdc:	e8 d3 99 ff ff       	callq  69b4 <safe_mod_func_int64_t_s_s>
    cfe1:	48 85 c0             	test   %rax,%rax
    cfe4:	75 08                	jne    cfee <func_60+0x44a>
    cfe6:	8b 85 dc f6 ff ff    	mov    -0x924(%rbp),%eax
    cfec:	85 c0                	test   %eax,%eax
    cfee:	8b 85 dc f6 ff ff    	mov    -0x924(%rbp),%eax
    cff4:	0f be c0             	movsbl %al,%eax
    cff7:	44 89 e6             	mov    %r12d,%esi
    cffa:	89 c7                	mov    %eax,%edi
    cffc:	e8 f1 91 ff ff       	callq  61f2 <safe_sub_func_int8_t_s_s>
    d001:	0f be c0             	movsbl %al,%eax
    d004:	89 c6                	mov    %eax,%esi
    d006:	bf 07 00 00 00       	mov    $0x7,%edi
    d00b:	e8 38 9e ff ff       	callq  6e48 <safe_rshift_func_uint16_t_u_s>
    d010:	89 de                	mov    %ebx,%esi
    d012:	bf 01 00 00 00       	mov    $0x1,%edi
    d017:	e8 97 93 ff ff       	callq  63b3 <safe_add_func_int16_t_s_s>
    d01c:	48 8b 95 18 f8 ff ff 	mov    -0x7e8(%rbp),%rdx
    d023:	66 89 02             	mov    %ax,(%rdx)
    d026:	48 8b 85 18 f8 ff ff 	mov    -0x7e8(%rbp),%rax
    d02d:	0f b7 00             	movzwl (%rax),%eax
    d030:	48 0f bf c0          	movswq %ax,%rax
    d034:	48 89 05 95 80 00 00 	mov    %rax,0x8095(%rip)        # 150d0 <g_105>
    d03b:	48 8b 05 8e 80 00 00 	mov    0x808e(%rip),%rax        # 150d0 <g_105>
    d042:	8b 95 50 f7 ff ff    	mov    -0x8b0(%rbp),%edx
    d048:	89 d2                	mov    %edx,%edx
    d04a:	48 39 d0             	cmp    %rdx,%rax
    d04d:	0f 94 c0             	sete   %al
    d050:	0f b6 d0             	movzbl %al,%edx
    d053:	48 8b 85 20 f8 ff ff 	mov    -0x7e0(%rbp),%rax
    d05a:	89 10                	mov    %edx,(%rax)
    d05c:	48 8b 05 9d 80 00 00 	mov    0x809d(%rip),%rax        # 15100 <g_109>
    d063:	48 85 c0             	test   %rax,%rax
    d066:	75 19                	jne    d081 <func_60+0x4dd>
    d068:	48 8b 85 20 f8 ff ff 	mov    -0x7e0(%rbp),%rax
    d06f:	8b 00                	mov    (%rax),%eax
    d071:	85 c0                	test   %eax,%eax
    d073:	75 0f                	jne    d084 <func_60+0x4e0>
    d075:	0f b6 85 ed f6 ff ff 	movzbl -0x913(%rbp),%eax
    d07c:	e9 83 1b 00 00       	jmpq   ec04 <func_60+0x2060>
    d081:	90                   	nop
    d082:	eb 01                	jmp    d085 <func_60+0x4e1>
    d084:	90                   	nop
    d085:	c7 05 29 80 00 00 00 	movl   $0x0,0x8029(%rip)        # 150b8 <g_82>
    d08c:	00 00 00 
    d08f:	eb 21                	jmp    d0b2 <func_60+0x50e>
    d091:	8b 05 21 80 00 00    	mov    0x8021(%rip),%eax        # 150b8 <g_82>
    d097:	48 98                	cltq   
    d099:	66 c7 84 45 74 f8 ff 	movw   $0x3e8d,-0x78c(%rbp,%rax,2)
    d0a0:	ff 8d 3e 
    d0a3:	8b 05 0f 80 00 00    	mov    0x800f(%rip),%eax        # 150b8 <g_82>
    d0a9:	83 c0 01             	add    $0x1,%eax
    d0ac:	89 05 06 80 00 00    	mov    %eax,0x8006(%rip)        # 150b8 <g_82>
    d0b2:	8b 05 00 80 00 00    	mov    0x8000(%rip),%eax        # 150b8 <g_82>
    d0b8:	83 f8 01             	cmp    $0x1,%eax
    d0bb:	7e d4                	jle    d091 <func_60+0x4ed>
    d0bd:	48 8b 85 c8 f7 ff ff 	mov    -0x838(%rbp),%rax
    d0c4:	48 89 85 d8 f7 ff ff 	mov    %rax,-0x828(%rbp)
    d0cb:	48 8b 85 d8 f7 ff ff 	mov    -0x828(%rbp),%rax
    d0d2:	48 89 85 e0 f7 ff ff 	mov    %rax,-0x820(%rbp)
    d0d9:	0f b7 05 4c c0 00 00 	movzwl 0xc04c(%rip),%eax        # 1912c <g_104>
    d0e0:	98                   	cwtl   
    d0e1:	0b 85 2c f7 ff ff    	or     -0x8d4(%rbp),%eax
    d0e7:	85 c0                	test   %eax,%eax
    d0e9:	48 8d 85 d0 f6 ff ff 	lea    -0x930(%rbp),%rax
    d0f0:	48 39 85 e8 f7 ff ff 	cmp    %rax,-0x818(%rbp)
    d0f7:	ba 01 00 00 00       	mov    $0x1,%edx
    d0fc:	48 8b 85 f0 f7 ff ff 	mov    -0x810(%rbp),%rax
    d103:	8b 00                	mov    (%rax),%eax
    d105:	09 c2                	or     %eax,%edx
    d107:	48 8b 85 f0 f7 ff ff 	mov    -0x810(%rbp),%rax
    d10e:	89 10                	mov    %edx,(%rax)
    d110:	48 8b 85 d0 f6 ff ff 	mov    -0x930(%rbp),%rax
    d117:	0f b7 d8             	movzwl %ax,%ebx
    d11a:	48 8b 85 d0 f6 ff ff 	mov    -0x930(%rbp),%rax
    d121:	48 89 c6             	mov    %rax,%rsi
    d124:	bf 00 00 00 00       	mov    $0x0,%edi
    d129:	e8 81 9f ff ff       	callq  70af <safe_div_func_uint64_t_u_u>
    d12e:	41 89 c6             	mov    %eax,%r14d
    d131:	44 8b a5 dc f6 ff ff 	mov    -0x924(%rbp),%r12d
    d138:	44 8b ad dc f6 ff ff 	mov    -0x924(%rbp),%r13d
    d13f:	8b 85 dc f6 ff ff    	mov    -0x924(%rbp),%eax
    d145:	85 c0                	test   %eax,%eax
    d147:	0f 95 c0             	setne  %al
    d14a:	0f b6 c0             	movzbl %al,%eax
    d14d:	8b 15 61 7f 00 00    	mov    0x7f61(%rip),%edx        # 150b4 <g_81>
    d153:	89 c6                	mov    %eax,%esi
    d155:	89 d7                	mov    %edx,%edi
    d157:	e8 a1 9d ff ff       	callq  6efd <safe_mod_func_uint32_t_u_u>
    d15c:	85 c0                	test   %eax,%eax
    d15e:	0f 94 c0             	sete   %al
    d161:	0f b6 d0             	movzbl %al,%edx
    d164:	48 8b 85 d0 f6 ff ff 	mov    -0x930(%rbp),%rax
    d16b:	48 39 c2             	cmp    %rax,%rdx
    d16e:	0f 94 c0             	sete   %al
    d171:	0f b6 c0             	movzbl %al,%eax
    d174:	44 89 ee             	mov    %r13d,%esi
    d177:	89 c7                	mov    %eax,%edi
    d179:	e8 81 95 ff ff       	callq  66ff <safe_div_func_int32_t_s_s>
    d17e:	48 8b 05 7b 7f 00 00 	mov    0x7f7b(%rip),%rax        # 15100 <g_109>
    d185:	89 c2                	mov    %eax,%edx
    d187:	8b 85 50 f7 ff ff    	mov    -0x8b0(%rbp),%eax
    d18d:	21 d0                	and    %edx,%eax
    d18f:	89 85 c8 f8 ff ff    	mov    %eax,-0x738(%rbp)
    d195:	8b 05 1d 7f 00 00    	mov    0x7f1d(%rip),%eax        # 150b8 <g_82>
    d19b:	39 85 2c f7 ff ff    	cmp    %eax,-0x8d4(%rbp)
    d1a1:	0f 94 c0             	sete   %al
    d1a4:	89 c2                	mov    %eax,%edx
    d1a6:	48 8b 85 f8 f7 ff ff 	mov    -0x808(%rbp),%rax
    d1ad:	88 10                	mov    %dl,(%rax)
    d1af:	48 8b 85 f8 f7 ff ff 	mov    -0x808(%rbp),%rax
    d1b6:	0f b6 00             	movzbl (%rax),%eax
    d1b9:	3c cf                	cmp    $0xcf,%al
    d1bb:	0f 97 c0             	seta   %al
    d1be:	0f b6 c0             	movzbl %al,%eax
    d1c1:	44 89 e6             	mov    %r12d,%esi
    d1c4:	89 c7                	mov    %eax,%edi
    d1c6:	e8 6a 91 ff ff       	callq  6335 <safe_rshift_func_int8_t_s_s>
    d1cb:	0f b6 c0             	movzbl %al,%eax
    d1ce:	be 03 00 00 00       	mov    $0x3,%esi
    d1d3:	89 c7                	mov    %eax,%edi
    d1d5:	e8 72 9a ff ff       	callq  6c4c <safe_lshift_func_uint8_t_u_u>
    d1da:	89 c2                	mov    %eax,%edx
    d1dc:	8b 05 d2 7e 00 00    	mov    0x7ed2(%rip),%eax        # 150b4 <g_81>
    d1e2:	0f b6 ca             	movzbl %dl,%ecx
    d1e5:	48 63 d0             	movslq %eax,%rdx
    d1e8:	66 89 8c 55 74 f8 ff 	mov    %cx,-0x78c(%rbp,%rdx,2)
    d1ef:	ff 
    d1f0:	48 98                	cltq   
    d1f2:	0f b7 84 45 74 f8 ff 	movzwl -0x78c(%rbp,%rax,2),%eax
    d1f9:	ff 
    d1fa:	0f b7 d0             	movzwl %ax,%edx
    d1fd:	8b 05 b1 7e 00 00    	mov    0x7eb1(%rip),%eax        # 150b4 <g_81>
    d203:	0f b7 c0             	movzwl %ax,%eax
    d206:	89 d6                	mov    %edx,%esi
    d208:	89 c7                	mov    %eax,%edi
    d20a:	e8 10 9b ff ff       	callq  6d1f <safe_sub_func_uint16_t_u_u>
    d20f:	0f b7 c0             	movzwl %ax,%eax
    d212:	89 85 30 f7 ff ff    	mov    %eax,-0x8d0(%rbp)
    d218:	8b 85 dc f6 ff ff    	mov    -0x924(%rbp),%eax
    d21e:	0f be c0             	movsbl %al,%eax
    d221:	be 04 00 00 00       	mov    $0x4,%esi
    d226:	89 c7                	mov    %eax,%edi
    d228:	e8 74 90 ff ff       	callq  62a1 <safe_lshift_func_int8_t_s_s>
    d22d:	44 21 f0             	and    %r14d,%eax
    d230:	88 05 d3 7e 00 00    	mov    %al,0x7ed3(%rip)        # 15109 <g_140>
    d236:	0f b6 05 cc 7e 00 00 	movzbl 0x7ecc(%rip),%eax        # 15109 <g_140>
    d23d:	84 c0                	test   %al,%al
    d23f:	75 0c                	jne    d24d <func_60+0x6a9>
    d241:	0f b7 85 74 f8 ff ff 	movzwl -0x78c(%rbp),%eax
    d248:	66 85 c0             	test   %ax,%ax
    d24b:	74 07                	je     d254 <func_60+0x6b0>
    d24d:	b8 01 00 00 00       	mov    $0x1,%eax
    d252:	eb 05                	jmp    d259 <func_60+0x6b5>
    d254:	b8 00 00 00 00       	mov    $0x0,%eax
    d259:	83 f8 01             	cmp    $0x1,%eax
    d25c:	0f 9e c0             	setle  %al
    d25f:	0f b6 c0             	movzbl %al,%eax
    d262:	89 de                	mov    %ebx,%esi
    d264:	89 c7                	mov    %eax,%edi
    d266:	e8 f1 9a ff ff       	callq  6d5c <safe_mod_func_uint16_t_u_u>
    d26b:	0f b7 d0             	movzwl %ax,%edx
    d26e:	48 8b 05 53 7e 00 00 	mov    0x7e53(%rip),%rax        # 150c8 <g_102>
    d275:	48 39 c2             	cmp    %rax,%rdx
    d278:	0f 94 c0             	sete   %al
    d27b:	0f b6 d0             	movzbl %al,%edx
    d27e:	48 8b 85 f0 f7 ff ff 	mov    -0x810(%rbp),%rax
    d285:	89 10                	mov    %edx,(%rax)
    d287:	48 8b 85 f0 f7 ff ff 	mov    -0x810(%rbp),%rax
    d28e:	8b 00                	mov    (%rax),%eax
    d290:	85 c0                	test   %eax,%eax
    d292:	0f 84 29 02 00 00    	je     d4c1 <func_60+0x91d>
    d298:	48 c7 85 28 f8 ff ff 	movq   $0x0,-0x7d8(%rbp)
    d29f:	00 00 00 00 
    d2a3:	48 8d 05 ad 7e 00 00 	lea    0x7ead(%rip),%rax        # 15157 <g_155+0x37>
    d2aa:	48 89 85 30 f8 ff ff 	mov    %rax,-0x7d0(%rbp)
    d2b1:	48 8d 05 74 be 00 00 	lea    0xbe74(%rip),%rax        # 1912c <g_104>
    d2b8:	48 89 85 30 f9 ff ff 	mov    %rax,-0x6d0(%rbp)
    d2bf:	48 8d 05 66 be 00 00 	lea    0xbe66(%rip),%rax        # 1912c <g_104>
    d2c6:	48 89 85 38 f9 ff ff 	mov    %rax,-0x6c8(%rbp)
    d2cd:	48 8d 05 58 be 00 00 	lea    0xbe58(%rip),%rax        # 1912c <g_104>
    d2d4:	48 89 85 40 f9 ff ff 	mov    %rax,-0x6c0(%rbp)
    d2db:	48 8d 05 4a be 00 00 	lea    0xbe4a(%rip),%rax        # 1912c <g_104>
    d2e2:	48 89 85 48 f9 ff ff 	mov    %rax,-0x6b8(%rbp)
    d2e9:	48 8d 05 3c be 00 00 	lea    0xbe3c(%rip),%rax        # 1912c <g_104>
    d2f0:	48 89 85 50 f9 ff ff 	mov    %rax,-0x6b0(%rbp)
    d2f7:	48 8d 05 2e be 00 00 	lea    0xbe2e(%rip),%rax        # 1912c <g_104>
    d2fe:	48 89 85 58 f9 ff ff 	mov    %rax,-0x6a8(%rbp)
    d305:	48 8d 05 20 be 00 00 	lea    0xbe20(%rip),%rax        # 1912c <g_104>
    d30c:	48 89 85 60 f9 ff ff 	mov    %rax,-0x6a0(%rbp)
    d313:	48 8d 05 12 be 00 00 	lea    0xbe12(%rip),%rax        # 1912c <g_104>
    d31a:	48 89 85 68 f9 ff ff 	mov    %rax,-0x698(%rbp)
    d321:	48 8d 05 04 be 00 00 	lea    0xbe04(%rip),%rax        # 1912c <g_104>
    d328:	48 89 85 70 f9 ff ff 	mov    %rax,-0x690(%rbp)
    d32f:	c7 85 34 f7 ff ff f0 	movl   $0xf6b8f8f0,-0x8cc(%rbp)
    d336:	f8 b8 f6 
    d339:	48 8d 05 80 b5 00 00 	lea    0xb580(%rip),%rax        # 188c0 <g_171>
    d340:	48 89 85 38 f8 ff ff 	mov    %rax,-0x7c8(%rbp)
    d347:	48 8b 85 d0 f6 ff ff 	mov    -0x930(%rbp),%rax
    d34e:	41 89 c4             	mov    %eax,%r12d
    d351:	8b 85 cc f8 ff ff    	mov    -0x734(%rbp),%eax
    d357:	0f bf d8             	movswl %ax,%ebx
    d35a:	48 8b 05 67 7d 00 00 	mov    0x7d67(%rip),%rax        # 150c8 <g_102>
    d361:	0f b7 d0             	movzwl %ax,%edx
    d364:	48 8b 0d 55 b5 00 00 	mov    0xb555(%rip),%rcx        # 188c0 <g_171>
    d36b:	48 8b 85 38 f8 ff ff 	mov    -0x7c8(%rbp),%rax
    d372:	48 89 08             	mov    %rcx,(%rax)
    d375:	48 8b 85 38 f8 ff ff 	mov    -0x7c8(%rbp),%rax
    d37c:	48 8b 00             	mov    (%rax),%rax
    d37f:	48 85 c0             	test   %rax,%rax
    d382:	0f 94 c0             	sete   %al
    d385:	0f b6 c0             	movzbl %al,%eax
    d388:	89 d6                	mov    %edx,%esi
    d38a:	89 c7                	mov    %eax,%edi
    d38c:	e8 fd 99 ff ff       	callq  6d8e <safe_div_func_uint16_t_u_u>
    d391:	48 8d 05 71 7d 00 00 	lea    0x7d71(%rip),%rax        # 15109 <g_140>
    d398:	48 39 85 f8 f7 ff ff 	cmp    %rax,-0x808(%rbp)
    d39f:	0f 94 c0             	sete   %al
    d3a2:	0f b6 c0             	movzbl %al,%eax
    d3a5:	be 17 24 00 00       	mov    $0x2417,%esi
    d3aa:	89 c7                	mov    %eax,%edi
    d3ac:	e8 4e 99 ff ff       	callq  6cff <safe_add_func_uint16_t_u_u>
    d3b1:	88 85 ec f6 ff ff    	mov    %al,-0x914(%rbp)
    d3b7:	48 0f be 95 ec f6 ff 	movsbq -0x914(%rbp),%rdx
    d3be:	ff 
    d3bf:	48 8b 85 d0 f6 ff ff 	mov    -0x930(%rbp),%rax
    d3c6:	48 21 d0             	and    %rdx,%rax
    d3c9:	48 85 c0             	test   %rax,%rax
    d3cc:	74 13                	je     d3e1 <func_60+0x83d>
    d3ce:	0f b7 85 74 f8 ff ff 	movzwl -0x78c(%rbp),%eax
    d3d5:	66 85 c0             	test   %ax,%ax
    d3d8:	74 07                	je     d3e1 <func_60+0x83d>
    d3da:	ba 01 00 00 00       	mov    $0x1,%edx
    d3df:	eb 05                	jmp    d3e6 <func_60+0x842>
    d3e1:	ba 00 00 00 00       	mov    $0x0,%edx
    d3e6:	8b 85 34 f7 ff ff    	mov    -0x8cc(%rbp),%eax
    d3ec:	0f b7 c0             	movzwl %ax,%eax
    d3ef:	89 d6                	mov    %edx,%esi
    d3f1:	89 c7                	mov    %eax,%edi
    d3f3:	e8 50 9a ff ff       	callq  6e48 <safe_rshift_func_uint16_t_u_s>
    d3f8:	98                   	cwtl   
    d3f9:	89 de                	mov    %ebx,%esi
    d3fb:	89 c7                	mov    %eax,%edi
    d3fd:	e8 14 90 ff ff       	callq  6416 <safe_mod_func_int16_t_s_s>
    d402:	89 c2                	mov    %eax,%edx
    d404:	48 8b 05 05 7d 00 00 	mov    0x7d05(%rip),%rax        # 15110 <g_152>
    d40b:	21 d0                	and    %edx,%eax
    d40d:	0f be c0             	movsbl %al,%eax
    d410:	44 89 e6             	mov    %r12d,%esi
    d413:	89 c7                	mov    %eax,%edi
    d415:	e8 1b 8f ff ff       	callq  6335 <safe_rshift_func_int8_t_s_s>
    d41a:	0f be d8             	movsbl %al,%ebx
    d41d:	48 8b 85 d0 f6 ff ff 	mov    -0x930(%rbp),%rax
    d424:	66 89 05 01 bd 00 00 	mov    %ax,0xbd01(%rip)        # 1912c <g_104>
    d42b:	0f b7 05 fa bc 00 00 	movzwl 0xbcfa(%rip),%eax        # 1912c <g_104>
    d432:	98                   	cwtl   
    d433:	48 8b 95 f8 f7 ff ff 	mov    -0x808(%rbp),%rdx
    d43a:	c6 02 00             	movb   $0x0,(%rdx)
    d43d:	48 8b 95 30 f8 ff ff 	mov    -0x7d0(%rbp),%rdx
    d444:	0f b6 12             	movzbl (%rdx),%edx
    d447:	8d 4a ff             	lea    -0x1(%rdx),%ecx
    d44a:	48 8b 95 30 f8 ff ff 	mov    -0x7d0(%rbp),%rdx
    d451:	88 0a                	mov    %cl,(%rdx)
    d453:	c7 85 04 f7 ff ff 00 	movl   $0x0,-0x8fc(%rbp)
    d45a:	00 00 00 
    d45d:	89 c6                	mov    %eax,%esi
    d45f:	bf 00 00 00 00       	mov    $0x0,%edi
    d464:	e8 29 90 ff ff       	callq  6492 <safe_lshift_func_int16_t_s_s>
    d469:	98                   	cwtl   
    d46a:	89 de                	mov    %ebx,%esi
    d46c:	89 c7                	mov    %eax,%edi
    d46e:	e8 59 92 ff ff       	callq  66cc <safe_mod_func_int32_t_s_s>
    d473:	0f b7 85 76 f8 ff ff 	movzwl -0x78a(%rbp),%eax
    d47a:	0f be c0             	movsbl %al,%eax
    d47d:	be 03 00 00 00       	mov    $0x3,%esi
    d482:	89 c7                	mov    %eax,%edi
    d484:	e8 18 8e ff ff       	callq  62a1 <safe_lshift_func_int8_t_s_s>
    d489:	8b 15 25 7c 00 00    	mov    0x7c25(%rip),%edx        # 150b4 <g_81>
    d48f:	31 d0                	xor    %edx,%eax
    d491:	0f b6 c0             	movzbl %al,%eax
    d494:	be fa 00 00 00       	mov    $0xfa,%esi
    d499:	89 c7                	mov    %eax,%edi
    d49b:	e8 f3 96 ff ff       	callq  6b93 <safe_mul_func_uint8_t_u_u>
    d4a0:	0f b6 c0             	movzbl %al,%eax
    d4a3:	89 05 3b 7c 00 00    	mov    %eax,0x7c3b(%rip)        # 150e4 <g_108+0x4>
    d4a9:	0f b6 05 59 7c 00 00 	movzbl 0x7c59(%rip),%eax        # 15109 <g_140>
    d4b0:	84 c0                	test   %al,%al
    d4b2:	75 19                	jne    d4cd <func_60+0x929>
    d4b4:	48 0f be 85 ec f6 ff 	movsbq -0x914(%rbp),%rax
    d4bb:	ff 
    d4bc:	e9 43 17 00 00       	jmpq   ec04 <func_60+0x2060>
    d4c1:	48 8b 05 00 7c 00 00 	mov    0x7c00(%rip),%rax        # 150c8 <g_102>
    d4c8:	e9 37 17 00 00       	jmpq   ec04 <func_60+0x2060>
    d4cd:	8b 85 dc f6 ff ff    	mov    -0x924(%rbp),%eax
    d4d3:	83 c0 01             	add    $0x1,%eax
    d4d6:	89 85 dc f6 ff ff    	mov    %eax,-0x924(%rbp)
    d4dc:	8b 85 dc f6 ff ff    	mov    -0x924(%rbp),%eax
    d4e2:	83 f8 1d             	cmp    $0x1d,%eax
    d4e5:	0f 84 98 f8 ff ff    	je     cd83 <func_60+0x1df>
    d4eb:	e9 27 0b 00 00       	jmpq   e017 <func_60+0x1473>
    d4f0:	48 8d 05 12 7c 00 00 	lea    0x7c12(%rip),%rax        # 15109 <g_140>
    d4f7:	48 89 85 e0 f8 ff ff 	mov    %rax,-0x720(%rbp)
    d4fe:	48 8d 05 04 7c 00 00 	lea    0x7c04(%rip),%rax        # 15109 <g_140>
    d505:	48 89 85 e8 f8 ff ff 	mov    %rax,-0x718(%rbp)
    d50c:	48 8d 05 f6 7b 00 00 	lea    0x7bf6(%rip),%rax        # 15109 <g_140>
    d513:	48 89 85 f0 f8 ff ff 	mov    %rax,-0x710(%rbp)
    d51a:	48 8d 05 e8 7b 00 00 	lea    0x7be8(%rip),%rax        # 15109 <g_140>
    d521:	48 89 85 f8 f8 ff ff 	mov    %rax,-0x708(%rbp)
    d528:	48 8d 05 da 7b 00 00 	lea    0x7bda(%rip),%rax        # 15109 <g_140>
    d52f:	48 89 85 00 f9 ff ff 	mov    %rax,-0x700(%rbp)
    d536:	48 8d 05 cc 7b 00 00 	lea    0x7bcc(%rip),%rax        # 15109 <g_140>
    d53d:	48 89 85 08 f9 ff ff 	mov    %rax,-0x6f8(%rbp)
    d544:	48 8d 05 be 7b 00 00 	lea    0x7bbe(%rip),%rax        # 15109 <g_140>
    d54b:	48 89 85 10 f9 ff ff 	mov    %rax,-0x6f0(%rbp)
    d552:	48 8d 05 b0 7b 00 00 	lea    0x7bb0(%rip),%rax        # 15109 <g_140>
    d559:	48 89 85 18 f9 ff ff 	mov    %rax,-0x6e8(%rbp)
    d560:	48 8d 05 a2 7b 00 00 	lea    0x7ba2(%rip),%rax        # 15109 <g_140>
    d567:	48 89 85 20 f9 ff ff 	mov    %rax,-0x6e0(%rbp)
    d56e:	48 8d 05 94 7b 00 00 	lea    0x7b94(%rip),%rax        # 15109 <g_140>
    d575:	48 89 85 28 f9 ff ff 	mov    %rax,-0x6d8(%rbp)
    d57c:	c7 85 20 f7 ff ff d8 	movl   $0x2f4379d8,-0x8e0(%rbp)
    d583:	79 43 2f 
    d586:	48 8d 85 74 f8 ff ff 	lea    -0x78c(%rbp),%rax
    d58d:	48 89 85 68 f7 ff ff 	mov    %rax,-0x898(%rbp)
    d594:	48 8d 05 2d 7b 00 00 	lea    0x7b2d(%rip),%rax        # 150c8 <g_102>
    d59b:	48 89 85 50 f7 ff ff 	mov    %rax,-0x8b0(%rbp)
    d5a2:	48 8d 05 13 81 00 00 	lea    0x8113(%rip),%rax        # 156bc <g_285+0xc>
    d5a9:	48 89 85 70 f7 ff ff 	mov    %rax,-0x890(%rbp)
    d5b0:	48 8d 05 15 81 00 00 	lea    0x8115(%rip),%rax        # 156cc <g_293>
    d5b7:	48 89 85 78 f7 ff ff 	mov    %rax,-0x888(%rbp)
    d5be:	c7 85 30 f9 ff ff e0 	movl   $0x9f28a0e0,-0x6d0(%rbp)
    d5c5:	a0 28 9f 
    d5c8:	c7 85 34 f9 ff ff e0 	movl   $0x9f28a0e0,-0x6cc(%rbp)
    d5cf:	a0 28 9f 
    d5d2:	c7 85 38 f9 ff ff e0 	movl   $0x9f28a0e0,-0x6c8(%rbp)
    d5d9:	a0 28 9f 
    d5dc:	c7 85 3c f9 ff ff e0 	movl   $0x9f28a0e0,-0x6c4(%rbp)
    d5e3:	a0 28 9f 
    d5e6:	c7 85 40 f9 ff ff e0 	movl   $0x9f28a0e0,-0x6c0(%rbp)
    d5ed:	a0 28 9f 
    d5f0:	c7 85 44 f9 ff ff e0 	movl   $0x9f28a0e0,-0x6bc(%rbp)
    d5f7:	a0 28 9f 
    d5fa:	c7 85 48 f9 ff ff e0 	movl   $0x9f28a0e0,-0x6b8(%rbp)
    d601:	a0 28 9f 
    d604:	c7 85 4c f9 ff ff e0 	movl   $0x9f28a0e0,-0x6b4(%rbp)
    d60b:	a0 28 9f 
    d60e:	c7 85 50 f9 ff ff e0 	movl   $0x9f28a0e0,-0x6b0(%rbp)
    d615:	a0 28 9f 
    d618:	c7 85 54 f9 ff ff f8 	movl   $0xfffffff8,-0x6ac(%rbp)
    d61f:	ff ff ff 
    d622:	c7 85 58 f9 ff ff f8 	movl   $0xfffffff8,-0x6a8(%rbp)
    d629:	ff ff ff 
    d62c:	c7 85 5c f9 ff ff f8 	movl   $0xfffffff8,-0x6a4(%rbp)
    d633:	ff ff ff 
    d636:	c7 85 60 f9 ff ff f8 	movl   $0xfffffff8,-0x6a0(%rbp)
    d63d:	ff ff ff 
    d640:	c7 85 64 f9 ff ff f8 	movl   $0xfffffff8,-0x69c(%rbp)
    d647:	ff ff ff 
    d64a:	c7 85 68 f9 ff ff f8 	movl   $0xfffffff8,-0x698(%rbp)
    d651:	ff ff ff 
    d654:	c7 85 6c f9 ff ff f8 	movl   $0xfffffff8,-0x694(%rbp)
    d65b:	ff ff ff 
    d65e:	c7 85 70 f9 ff ff f8 	movl   $0xfffffff8,-0x690(%rbp)
    d665:	ff ff ff 
    d668:	c7 85 74 f9 ff ff f8 	movl   $0xfffffff8,-0x68c(%rbp)
    d66f:	ff ff ff 
    d672:	c7 85 78 f9 ff ff e0 	movl   $0x9f28a0e0,-0x688(%rbp)
    d679:	a0 28 9f 
    d67c:	c7 85 7c f9 ff ff e0 	movl   $0x9f28a0e0,-0x684(%rbp)
    d683:	a0 28 9f 
    d686:	c7 85 80 f9 ff ff e0 	movl   $0x9f28a0e0,-0x680(%rbp)
    d68d:	a0 28 9f 
    d690:	c7 85 84 f9 ff ff e0 	movl   $0x9f28a0e0,-0x67c(%rbp)
    d697:	a0 28 9f 
    d69a:	c7 85 88 f9 ff ff e0 	movl   $0x9f28a0e0,-0x678(%rbp)
    d6a1:	a0 28 9f 
    d6a4:	c7 85 8c f9 ff ff e0 	movl   $0x9f28a0e0,-0x674(%rbp)
    d6ab:	a0 28 9f 
    d6ae:	c7 85 90 f9 ff ff e0 	movl   $0x9f28a0e0,-0x670(%rbp)
    d6b5:	a0 28 9f 
    d6b8:	c7 85 94 f9 ff ff e0 	movl   $0x9f28a0e0,-0x66c(%rbp)
    d6bf:	a0 28 9f 
    d6c2:	c7 85 98 f9 ff ff e0 	movl   $0x9f28a0e0,-0x668(%rbp)
    d6c9:	a0 28 9f 
    d6cc:	c7 85 f8 f6 ff ff 00 	movl   $0x0,-0x908(%rbp)
    d6d3:	00 00 00 
    d6d6:	eb 1e                	jmp    d6f6 <func_60+0xb52>
    d6d8:	8b 85 f8 f6 ff ff    	mov    -0x908(%rbp),%eax
    d6de:	48 98                	cltq   
    d6e0:	48 8d 15 19 7f 00 00 	lea    0x7f19(%rip),%rdx        # 15600 <g_227>
    d6e7:	48 89 94 c5 90 f8 ff 	mov    %rdx,-0x770(%rbp,%rax,8)
    d6ee:	ff 
    d6ef:	83 85 f8 f6 ff ff 01 	addl   $0x1,-0x908(%rbp)
    d6f6:	83 bd f8 f6 ff ff 01 	cmpl   $0x1,-0x908(%rbp)
    d6fd:	7e d9                	jle    d6d8 <func_60+0xb34>
    d6ff:	c7 85 f8 f6 ff ff 00 	movl   $0x0,-0x908(%rbp)
    d706:	00 00 00 
    d709:	eb 1e                	jmp    d729 <func_60+0xb85>
    d70b:	8b 85 f8 f6 ff ff    	mov    -0x908(%rbp),%eax
    d711:	48 98                	cltq   
    d713:	48 8d 95 50 f7 ff ff 	lea    -0x8b0(%rbp),%rdx
    d71a:	48 89 94 c5 78 f8 ff 	mov    %rdx,-0x788(%rbp,%rax,8)
    d721:	ff 
    d722:	83 85 f8 f6 ff ff 01 	addl   $0x1,-0x908(%rbp)
    d729:	83 bd f8 f6 ff ff 00 	cmpl   $0x0,-0x908(%rbp)
    d730:	7e d9                	jle    d70b <func_60+0xb67>
    d732:	0f b7 85 76 f8 ff ff 	movzwl -0x78a(%rbp),%eax
    d739:	0f b7 d0             	movzwl %ax,%edx
    d73c:	48 8b 85 00 f9 ff ff 	mov    -0x700(%rbp),%rax
    d743:	48 8d 0d bf 79 00 00 	lea    0x79bf(%rip),%rcx        # 15109 <g_140>
    d74a:	48 39 c8             	cmp    %rcx,%rax
    d74d:	0f 95 c0             	setne  %al
    d750:	0f b6 c0             	movzbl %al,%eax
    d753:	89 d6                	mov    %edx,%esi
    d755:	89 c7                	mov    %eax,%edi
    d757:	e8 45 8b ff ff       	callq  62a1 <safe_lshift_func_int8_t_s_s>
    d75c:	88 05 a6 79 00 00    	mov    %al,0x79a6(%rip)        # 15108 <g_138>
    d762:	0f b6 05 9f 79 00 00 	movzbl 0x799f(%rip),%eax        # 15108 <g_138>
    d769:	84 c0                	test   %al,%al
    d76b:	74 08                	je     d775 <func_60+0xbd1>
    d76d:	8b 05 b5 78 00 00    	mov    0x78b5(%rip),%eax        # 15028 <g_4>
    d773:	85 c0                	test   %eax,%eax
    d775:	8b 85 20 f7 ff ff    	mov    -0x8e0(%rbp),%eax
    d77b:	48 98                	cltq   
    d77d:	48 89 c6             	mov    %rax,%rsi
    d780:	bf 05 00 00 00       	mov    $0x5,%edi
    d785:	e8 f6 98 ff ff       	callq  7080 <safe_mod_func_uint64_t_u_u>
    d78a:	48 89 c6             	mov    %rax,%rsi
    d78d:	bf 00 00 00 00       	mov    $0x0,%edi
    d792:	e8 97 98 ff ff       	callq  702e <safe_add_func_uint64_t_u_u>
    d797:	48 8b 85 a0 f8 ff ff 	mov    -0x760(%rbp),%rax
    d79e:	48 39 85 58 f7 ff ff 	cmp    %rax,-0x8a8(%rbp)
    d7a5:	0f 85 5a 01 00 00    	jne    d905 <func_60+0xd61>
    d7ab:	48 8d 85 e0 f8 ff ff 	lea    -0x720(%rbp),%rax
    d7b2:	48 83 c0 10          	add    $0x10,%rax
    d7b6:	48 89 85 b0 f7 ff ff 	mov    %rax,-0x850(%rbp)
    d7bd:	48 8d 05 f4 78 00 00 	lea    0x78f4(%rip),%rax        # 150b8 <g_82>
    d7c4:	48 89 85 b8 f7 ff ff 	mov    %rax,-0x848(%rbp)
    d7cb:	48 8d 05 12 79 00 00 	lea    0x7912(%rip),%rax        # 150e4 <g_108+0x4>
    d7d2:	48 89 85 c0 f7 ff ff 	mov    %rax,-0x840(%rbp)
    d7d9:	c7 85 fc f6 ff ff 00 	movl   $0x0,-0x904(%rbp)
    d7e0:	00 00 00 
    d7e3:	eb 1e                	jmp    d803 <func_60+0xc5f>
    d7e5:	8b 85 fc f6 ff ff    	mov    -0x904(%rbp),%eax
    d7eb:	48 98                	cltq   
    d7ed:	48 8d 15 15 79 00 00 	lea    0x7915(%rip),%rdx        # 15109 <g_140>
    d7f4:	48 89 94 c5 50 fb ff 	mov    %rdx,-0x4b0(%rbp,%rax,8)
    d7fb:	ff 
    d7fc:	83 85 fc f6 ff ff 01 	addl   $0x1,-0x904(%rbp)
    d803:	83 bd fc f6 ff ff 07 	cmpl   $0x7,-0x904(%rbp)
    d80a:	7e d9                	jle    d7e5 <func_60+0xc41>
    d80c:	8b 85 04 f7 ff ff    	mov    -0x8fc(%rbp),%eax
    d812:	89 05 cc 78 00 00    	mov    %eax,0x78cc(%rip)        # 150e4 <g_108+0x4>
    d818:	48 8b 05 a9 78 00 00 	mov    0x78a9(%rip),%rax        # 150c8 <g_102>
    d81f:	0f be d8             	movsbl %al,%ebx
    d822:	48 8b 85 50 fb ff ff 	mov    -0x4b0(%rbp),%rax
    d829:	48 89 85 50 fb ff ff 	mov    %rax,-0x4b0(%rbp)
    d830:	48 8b 95 50 fb ff ff 	mov    -0x4b0(%rbp),%rdx
    d837:	48 8b 85 b0 f7 ff ff 	mov    -0x850(%rbp),%rax
    d83e:	48 8d 0d c4 78 00 00 	lea    0x78c4(%rip),%rcx        # 15109 <g_140>
    d845:	48 89 08             	mov    %rcx,(%rax)
    d848:	48 8b 85 b0 f7 ff ff 	mov    -0x850(%rbp),%rax
    d84f:	48 8b 00             	mov    (%rax),%rax
    d852:	48 39 c2             	cmp    %rax,%rdx
    d855:	8b 85 04 f7 ff ff    	mov    -0x8fc(%rbp),%eax
    d85b:	0f b6 c0             	movzbl %al,%eax
    d85e:	be 00 00 00 00       	mov    $0x0,%esi
    d863:	89 c7                	mov    %eax,%edi
    d865:	e8 29 93 ff ff       	callq  6b93 <safe_mul_func_uint8_t_u_u>
    d86a:	84 c0                	test   %al,%al
    d86c:	74 13                	je     d881 <func_60+0xcdd>
    d86e:	0f b7 85 76 f8 ff ff 	movzwl -0x78a(%rbp),%eax
    d875:	66 85 c0             	test   %ax,%ax
    d878:	74 07                	je     d881 <func_60+0xcdd>
    d87a:	b8 01 00 00 00       	mov    $0x1,%eax
    d87f:	eb 05                	jmp    d886 <func_60+0xce2>
    d881:	b8 00 00 00 00       	mov    $0x0,%eax
    d886:	89 c2                	mov    %eax,%edx
    d888:	48 8b 85 d0 f6 ff ff 	mov    -0x930(%rbp),%rax
    d88f:	09 d0                	or     %edx,%eax
    d891:	0f be c0             	movsbl %al,%eax
    d894:	89 de                	mov    %ebx,%esi
    d896:	89 c7                	mov    %eax,%edi
    d898:	e8 94 89 ff ff       	callq  6231 <safe_mod_func_int8_t_s_s>
    d89d:	8b 85 dc f6 ff ff    	mov    -0x924(%rbp),%eax
    d8a3:	3d ed 0b c0 3e       	cmp    $0x3ec00bed,%eax
    d8a8:	0f 9f c0             	setg   %al
    d8ab:	0f b6 d0             	movzbl %al,%edx
    d8ae:	48 8b 85 b8 f7 ff ff 	mov    -0x848(%rbp),%rax
    d8b5:	8b 00                	mov    (%rax),%eax
    d8b7:	09 c2                	or     %eax,%edx
    d8b9:	48 8b 85 b8 f7 ff ff 	mov    -0x848(%rbp),%rax
    d8c0:	89 10                	mov    %edx,(%rax)
    d8c2:	48 8b 85 b8 f7 ff ff 	mov    -0x848(%rbp),%rax
    d8c9:	8b 00                	mov    (%rax),%eax
    d8cb:	48 63 d0             	movslq %eax,%rdx
    d8ce:	48 8b 85 d0 f6 ff ff 	mov    -0x930(%rbp),%rax
    d8d5:	48 39 c2             	cmp    %rax,%rdx
    d8d8:	0f 94 c0             	sete   %al
    d8db:	0f b6 d0             	movzbl %al,%edx
    d8de:	48 8b 85 c0 f7 ff ff 	mov    -0x840(%rbp),%rax
    d8e5:	89 10                	mov    %edx,(%rax)
    d8e7:	48 8b 85 c0 f7 ff ff 	mov    -0x840(%rbp),%rax
    d8ee:	8b 00                	mov    (%rax),%eax
    d8f0:	35 33 6e 63 03       	xor    $0x3636e33,%eax
    d8f5:	89 c2                	mov    %eax,%edx
    d8f7:	48 8b 85 c0 f7 ff ff 	mov    -0x840(%rbp),%rax
    d8fe:	89 10                	mov    %edx,(%rax)
    d900:	e9 a4 05 00 00       	jmpq   dea9 <func_60+0x1305>
    d905:	48 c7 85 80 f7 ff ff 	movq   $0x0,-0x880(%rbp)
    d90c:	00 00 00 00 
    d910:	48 8d 85 f0 f6 ff ff 	lea    -0x910(%rbp),%rax
    d917:	48 89 85 88 f7 ff ff 	mov    %rax,-0x878(%rbp)
    d91e:	c7 85 24 f7 ff ff 1e 	movl   $0x22fd341e,-0x8dc(%rbp)
    d925:	34 fd 22 
    d928:	48 8d 85 74 f8 ff ff 	lea    -0x78c(%rbp),%rax
    d92f:	48 89 85 90 f7 ff ff 	mov    %rax,-0x870(%rbp)
    d936:	48 8d 05 93 77 00 00 	lea    0x7793(%rip),%rax        # 150d0 <g_105>
    d93d:	48 89 85 98 f7 ff ff 	mov    %rax,-0x868(%rbp)
    d944:	c7 85 0c f7 ff ff 00 	movl   $0x0,-0x8f4(%rbp)
    d94b:	00 00 00 
    d94e:	eb 1e                	jmp    d96e <func_60+0xdca>
    d950:	8b 85 0c f7 ff ff    	mov    -0x8f4(%rbp),%eax
    d956:	48 98                	cltq   
    d958:	48 8d 15 81 77 00 00 	lea    0x7781(%rip),%rdx        # 150e0 <g_108>
    d95f:	48 89 94 c5 80 f8 ff 	mov    %rdx,-0x780(%rbp,%rax,8)
    d966:	ff 
    d967:	83 85 0c f7 ff ff 01 	addl   $0x1,-0x8f4(%rbp)
    d96e:	83 bd 0c f7 ff ff 00 	cmpl   $0x0,-0x8f4(%rbp)
    d975:	7e d9                	jle    d950 <func_60+0xdac>
    d977:	c7 85 0c f7 ff ff 00 	movl   $0x0,-0x8f4(%rbp)
    d97e:	00 00 00 
    d981:	eb 1e                	jmp    d9a1 <func_60+0xdfd>
    d983:	8b 85 0c f7 ff ff    	mov    -0x8f4(%rbp),%eax
    d989:	48 98                	cltq   
    d98b:	48 8d 15 6e af 00 00 	lea    0xaf6e(%rip),%rdx        # 18900 <g_220+0x20>
    d992:	48 89 94 c5 88 f8 ff 	mov    %rdx,-0x778(%rbp,%rax,8)
    d999:	ff 
    d99a:	83 85 0c f7 ff ff 01 	addl   $0x1,-0x8f4(%rbp)
    d9a1:	83 bd 0c f7 ff ff 00 	cmpl   $0x0,-0x8f4(%rbp)
    d9a8:	7e d9                	jle    d983 <func_60+0xddf>
    d9aa:	c7 85 dc f6 ff ff 15 	movl   $0x15,-0x924(%rbp)
    d9b1:	00 00 00 
    d9b4:	e9 3c 01 00 00       	jmpq   daf5 <func_60+0xf51>
    d9b9:	66 c7 85 ee f6 ff ff 	movw   $0x5,-0x912(%rbp)
    d9c0:	05 00 
    d9c2:	8b 05 1c 77 00 00    	mov    0x771c(%rip),%eax        # 150e4 <g_108+0x4>
    d9c8:	3d b3 9f 7e 2e       	cmp    $0x2e7e9fb3,%eax
    d9cd:	0f 9e c0             	setle  %al
    d9d0:	0f b6 d8             	movzbl %al,%ebx
    d9d3:	44 0f b7 a5 ee f6 ff 	movzwl -0x912(%rbp),%r12d
    d9da:	ff 
    d9db:	0f b7 85 74 f8 ff ff 	movzwl -0x78c(%rbp),%eax
    d9e2:	0f be c0             	movsbl %al,%eax
    d9e5:	89 c6                	mov    %eax,%esi
    d9e7:	bf 10 00 00 00       	mov    $0x10,%edi
    d9ec:	e8 21 88 ff ff       	callq  6212 <safe_mul_func_int8_t_s_s>
    d9f1:	0f be c0             	movsbl %al,%eax
    d9f4:	89 85 f0 f6 ff ff    	mov    %eax,-0x910(%rbp)
    d9fa:	44 8b ad f0 f6 ff ff 	mov    -0x910(%rbp),%r13d
    da01:	48 8b 05 b8 ae 00 00 	mov    0xaeb8(%rip),%rax        # 188c0 <g_171>
    da08:	0f b7 00             	movzwl (%rax),%eax
    da0b:	0f bf d0             	movswl %ax,%edx
    da0e:	0f b7 85 ee f6 ff ff 	movzwl -0x912(%rbp),%eax
    da15:	98                   	cwtl   
    da16:	89 d6                	mov    %edx,%esi
    da18:	89 c7                	mov    %eax,%edi
    da1a:	e8 94 89 ff ff       	callq  63b3 <safe_add_func_int16_t_s_s>
    da1f:	98                   	cwtl   
    da20:	44 31 e8             	xor    %r13d,%eax
    da23:	41 39 c4             	cmp    %eax,%r12d
    da26:	0f 9d c0             	setge  %al
    da29:	0f b6 d0             	movzbl %al,%edx
    da2c:	0f b6 05 d6 76 00 00 	movzbl 0x76d6(%rip),%eax        # 15109 <g_140>
    da33:	88 05 d0 76 00 00    	mov    %al,0x76d0(%rip)        # 15109 <g_140>
    da39:	0f b6 05 c9 76 00 00 	movzbl 0x76c9(%rip),%eax        # 15109 <g_140>
    da40:	66 0f be c8          	movsbw %al,%cx
    da44:	48 8b 85 d0 f6 ff ff 	mov    -0x930(%rbp),%rax
    da4b:	48 3d ad 00 00 00    	cmp    $0xad,%rax
    da51:	0f 9e c0             	setle  %al
    da54:	0f b6 c0             	movzbl %al,%eax
    da57:	31 c8                	xor    %ecx,%eax
    da59:	98                   	cwtl   
    da5a:	89 d6                	mov    %edx,%esi
    da5c:	89 c7                	mov    %eax,%edi
    da5e:	e8 92 89 ff ff       	callq  63f5 <safe_mul_func_int16_t_s_s>
    da63:	98                   	cwtl   
    da64:	31 c3                	xor    %eax,%ebx
    da66:	89 da                	mov    %ebx,%edx
    da68:	8b 05 56 77 00 00    	mov    0x7756(%rip),%eax        # 151c4 <g_208>
    da6e:	09 d0                	or     %edx,%eax
    da70:	89 05 4e 77 00 00    	mov    %eax,0x774e(%rip)        # 151c4 <g_208>
    da76:	8b 05 48 77 00 00    	mov    0x7748(%rip),%eax        # 151c4 <g_208>
    da7c:	0f be c0             	movsbl %al,%eax
    da7f:	be 01 00 00 00       	mov    $0x1,%esi
    da84:	89 c7                	mov    %eax,%edi
    da86:	e8 e1 88 ff ff       	callq  636c <safe_rshift_func_int8_t_s_u>
    da8b:	0f be c0             	movsbl %al,%eax
    da8e:	be 09 00 00 00       	mov    $0x9,%esi
    da93:	89 c7                	mov    %eax,%edi
    da95:	e8 90 8a ff ff       	callq  652a <safe_rshift_func_int16_t_s_s>
    da9a:	98                   	cwtl   
    da9b:	89 05 43 76 00 00    	mov    %eax,0x7643(%rip)        # 150e4 <g_108+0x4>
    daa1:	8b 05 3d 76 00 00    	mov    0x763d(%rip),%eax        # 150e4 <g_108+0x4>
    daa7:	31 85 04 f7 ff ff    	xor    %eax,-0x8fc(%rbp)
    daad:	c7 85 f0 f6 ff ff f8 	movl   $0xfffffff8,-0x910(%rbp)
    dab4:	ff ff ff 
    dab7:	eb 22                	jmp    dadb <func_60+0xf37>
    dab9:	c7 05 f5 75 00 00 fa 	movl   $0xfffffffa,0x75f5(%rip)        # 150b8 <g_82>
    dac0:	ff ff ff 
    dac3:	8b 85 f0 f6 ff ff    	mov    -0x910(%rbp),%eax
    dac9:	be 06 00 00 00       	mov    $0x6,%esi
    dace:	89 c7                	mov    %eax,%edi
    dad0:	e8 e3 93 ff ff       	callq  6eb8 <safe_add_func_uint32_t_u_u>
    dad5:	89 85 f0 f6 ff ff    	mov    %eax,-0x910(%rbp)
    dadb:	8b 85 f0 f6 ff ff    	mov    -0x910(%rbp),%eax
    dae1:	83 f8 ff             	cmp    $0xffffffff,%eax
    dae4:	7c d3                	jl     dab9 <func_60+0xf15>
    dae6:	8b 85 dc f6 ff ff    	mov    -0x924(%rbp),%eax
    daec:	83 e8 01             	sub    $0x1,%eax
    daef:	89 85 dc f6 ff ff    	mov    %eax,-0x924(%rbp)
    daf5:	8b 85 dc f6 ff ff    	mov    -0x924(%rbp),%eax
    dafb:	83 f8 eb             	cmp    $0xffffffeb,%eax
    dafe:	0f 8c b5 fe ff ff    	jl     d9b9 <func_60+0xe15>
    db04:	83 ad 24 f7 ff ff 01 	subl   $0x1,-0x8dc(%rbp)
    db0b:	48 8b 05 ee ad 00 00 	mov    0xadee(%rip),%rax        # 18900 <g_220+0x20>
    db12:	48 89 05 2f ae 00 00 	mov    %rax,0xae2f(%rip)        # 18948 <g_220+0x68>
    db19:	48 8b 05 28 ae 00 00 	mov    0xae28(%rip),%rax        # 18948 <g_220+0x68>
    db20:	48 89 85 98 f8 ff ff 	mov    %rax,-0x768(%rbp)
    db27:	8b 85 dc f6 ff ff    	mov    -0x924(%rbp),%eax
    db2d:	89 c1                	mov    %eax,%ecx
    db2f:	48 8b 85 90 f7 ff ff 	mov    -0x870(%rbp),%rax
    db36:	0f b7 00             	movzwl (%rax),%eax
    db39:	8b 95 c8 f8 ff ff    	mov    -0x738(%rbp),%edx
    db3f:	09 c2                	or     %eax,%edx
    db41:	48 8b 85 90 f7 ff ff 	mov    -0x870(%rbp),%rax
    db48:	66 89 10             	mov    %dx,(%rax)
    db4b:	48 8b 85 90 f7 ff ff 	mov    -0x870(%rbp),%rax
    db52:	0f b7 00             	movzwl (%rax),%eax
    db55:	0f b7 c0             	movzwl %ax,%eax
    db58:	89 ce                	mov    %ecx,%esi
    db5a:	89 c7                	mov    %eax,%edi
    db5c:	e8 19 93 ff ff       	callq  6e7a <safe_rshift_func_uint16_t_u_u>
    db61:	66 85 c0             	test   %ax,%ax
    db64:	75 40                	jne    dba6 <func_60+0x1002>
    db66:	8b 95 dc f6 ff ff    	mov    -0x924(%rbp),%edx
    db6c:	8b 05 46 75 00 00    	mov    0x7546(%rip),%eax        # 150b8 <g_82>
    db72:	0f b6 c0             	movzbl %al,%eax
    db75:	89 d6                	mov    %edx,%esi
    db77:	89 c7                	mov    %eax,%edi
    db79:	e8 0f 91 ff ff       	callq  6c8d <safe_rshift_func_uint8_t_u_s>
    db7e:	be 29 2b 00 00       	mov    $0x2b29,%esi
    db83:	bf 01 00 00 00       	mov    $0x1,%edi
    db88:	e8 72 91 ff ff       	callq  6cff <safe_add_func_uint16_t_u_u>
    db8d:	66 85 c0             	test   %ax,%ax
    db90:	74 08                	je     db9a <func_60+0xff6>
    db92:	8b 85 c4 f8 ff ff    	mov    -0x73c(%rbp),%eax
    db98:	85 c0                	test   %eax,%eax
    db9a:	8b 05 18 75 00 00    	mov    0x7518(%rip),%eax        # 150b8 <g_82>
    dba0:	39 85 1c f7 ff ff    	cmp    %eax,-0x8e4(%rbp)
    dba6:	48 8b 05 63 7a 00 00 	mov    0x7a63(%rip),%rax        # 15610 <g_230>
    dbad:	48 85 c0             	test   %rax,%rax
    dbb0:	0f 95 c0             	setne  %al
    dbb3:	0f b6 d0             	movzbl %al,%edx
    dbb6:	8b 85 dc f6 ff ff    	mov    -0x924(%rbp),%eax
    dbbc:	0f be c0             	movsbl %al,%eax
    dbbf:	89 d6                	mov    %edx,%esi
    dbc1:	89 c7                	mov    %eax,%edi
    dbc3:	e8 a4 87 ff ff       	callq  636c <safe_rshift_func_int8_t_s_u>
    dbc8:	83 f0 9d             	xor    $0xffffff9d,%eax
    dbcb:	88 05 37 75 00 00    	mov    %al,0x7537(%rip)        # 15108 <g_138>
    dbd1:	0f b6 05 30 75 00 00 	movzbl 0x7530(%rip),%eax        # 15108 <g_138>
    dbd8:	0f b6 d0             	movzbl %al,%edx
    dbdb:	8b 05 01 76 00 00    	mov    0x7601(%rip),%eax        # 151e2 <g_222+0x2>
    dbe1:	31 c2                	xor    %eax,%edx
    dbe3:	8b 05 09 7a 00 00    	mov    0x7a09(%rip),%eax        # 155f2 <g_224+0x2>
    dbe9:	39 c2                	cmp    %eax,%edx
    dbeb:	0f 97 c0             	seta   %al
    dbee:	0f b6 d0             	movzbl %al,%edx
    dbf1:	8b 85 dc f6 ff ff    	mov    -0x924(%rbp),%eax
    dbf7:	39 c2                	cmp    %eax,%edx
    dbf9:	0f 9f c0             	setg   %al
    dbfc:	0f b6 d0             	movzbl %al,%edx
    dbff:	48 8b 85 d0 f6 ff ff 	mov    -0x930(%rbp),%rax
    dc06:	48 39 c2             	cmp    %rax,%rdx
    dc09:	7e 13                	jle    dc1e <func_60+0x107a>
    dc0b:	8b 05 a7 74 00 00    	mov    0x74a7(%rip),%eax        # 150b8 <g_82>
    dc11:	85 c0                	test   %eax,%eax
    dc13:	0f 84 90 02 00 00    	je     dea9 <func_60+0x1305>
    dc19:	e9 4a f0 ff ff       	jmpq   cc68 <func_60+0xc4>
    dc1e:	48 8d 85 50 fb ff ff 	lea    -0x4b0(%rbp),%rax
    dc25:	48 8d 15 54 ab 00 00 	lea    0xab54(%rip),%rdx        # 18780 <g_1915+0x1e30>
    dc2c:	b9 28 00 00 00       	mov    $0x28,%ecx
    dc31:	48 89 c7             	mov    %rax,%rdi
    dc34:	48 89 d6             	mov    %rdx,%rsi
    dc37:	f3 48 a5             	rep movsq %ds:(%rsi),%es:(%rdi)
    dc3a:	c7 85 28 f7 ff ff 01 	movl   $0x1,-0x8d8(%rbp)
    dc41:	00 00 00 
    dc44:	48 8d 05 75 ac 00 00 	lea    0xac75(%rip),%rax        # 188c0 <g_171>
    dc4b:	48 89 85 a0 f7 ff ff 	mov    %rax,-0x860(%rbp)
    dc52:	0f b7 05 69 75 00 00 	movzwl 0x7569(%rip),%eax        # 151c2 <g_172>
    dc59:	66 85 c0             	test   %ax,%ax
    dc5c:	0f 85 41 02 00 00    	jne    dea3 <func_60+0x12ff>
    dc62:	c7 85 f4 f6 ff ff 06 	movl   $0x6,-0x90c(%rbp)
    dc69:	00 00 00 
    dc6c:	90                   	nop
    dc6d:	8b 85 f4 f6 ff ff    	mov    -0x90c(%rbp),%eax
    dc73:	85 c0                	test   %eax,%eax
    dc75:	0f 88 0e 01 00 00    	js     dd89 <func_60+0x11e5>
    dc7b:	be 25 8a 1a 56       	mov    $0x561a8a25,%esi
    dc80:	bf 17 e2 e7 fb       	mov    $0xfbe7e217,%edi
    dc85:	e8 46 92 ff ff       	callq  6ed0 <safe_sub_func_uint32_t_u_u>
    dc8a:	8b 85 f4 f6 ff ff    	mov    -0x90c(%rbp),%eax
    dc90:	48 98                	cltq   
    dc92:	48 8d 14 85 00 00 00 	lea    0x0(,%rax,4),%rdx
    dc99:	00 
    dc9a:	48 8d 05 3f 74 00 00 	lea    0x743f(%rip),%rax        # 150e0 <g_108>
    dca1:	8b 04 02             	mov    (%rdx,%rax,1),%eax
    dca4:	85 c0                	test   %eax,%eax
    dca6:	0f 95 c0             	setne  %al
    dca9:	0f b6 d0             	movzbl %al,%edx
    dcac:	48 8b 85 98 f8 ff ff 	mov    -0x768(%rbp),%rax
    dcb3:	48 85 c0             	test   %rax,%rax
    dcb6:	0f 95 c0             	setne  %al
    dcb9:	0f b6 c0             	movzbl %al,%eax
    dcbc:	31 d0                	xor    %edx,%eax
    dcbe:	83 f8 ff             	cmp    $0xffffffff,%eax
    dcc1:	0f 95 c0             	setne  %al
    dcc4:	0f b6 c0             	movzbl %al,%eax
    dcc7:	4c 63 e0             	movslq %eax,%r12
    dcca:	8b 9d 28 f7 ff ff    	mov    -0x8d8(%rbp),%ebx
    dcd0:	48 8b 85 d0 f6 ff ff 	mov    -0x930(%rbp),%rax
    dcd7:	48 85 c0             	test   %rax,%rax
    dcda:	0f 9f c0             	setg   %al
    dcdd:	0f b6 d0             	movzbl %al,%edx
    dce0:	8b 05 bc 77 00 00    	mov    0x77bc(%rip),%eax        # 154a2 <g_223+0x2a2>
    dce6:	39 c2                	cmp    %eax,%edx
    dce8:	77 07                	ja     dcf1 <func_60+0x114d>
    dcea:	ba 01 00 00 00       	mov    $0x1,%edx
    dcef:	eb 05                	jmp    dcf6 <func_60+0x1152>
    dcf1:	ba 00 00 00 00       	mov    $0x0,%edx
    dcf6:	8b 85 f4 f6 ff ff    	mov    -0x90c(%rbp),%eax
    dcfc:	48 98                	cltq   
    dcfe:	8b 84 85 c0 f8 ff ff 	mov    -0x740(%rbp,%rax,4),%eax
    dd05:	39 c2                	cmp    %eax,%edx
    dd07:	73 11                	jae    dd1a <func_60+0x1176>
    dd09:	8b 05 e3 78 00 00    	mov    0x78e3(%rip),%eax        # 155f2 <g_224+0x2>
    dd0f:	85 c0                	test   %eax,%eax
    dd11:	74 07                	je     dd1a <func_60+0x1176>
    dd13:	b8 01 00 00 00       	mov    $0x1,%eax
    dd18:	eb 05                	jmp    dd1f <func_60+0x117b>
    dd1a:	b8 00 00 00 00       	mov    $0x0,%eax
    dd1f:	98                   	cwtl   
    dd20:	be af 66 00 00       	mov    $0x66af,%esi
    dd25:	89 c7                	mov    %eax,%edi
    dd27:	e8 29 87 ff ff       	callq  6455 <safe_div_func_int16_t_s_s>
    dd2c:	48 8b 85 40 fc ff ff 	mov    -0x3c0(%rbp),%rax
    dd33:	48 85 c0             	test   %rax,%rax
    dd36:	0f 95 c0             	setne  %al
    dd39:	0f b6 d0             	movzbl %al,%edx
    dd3c:	8b 05 b0 78 00 00    	mov    0x78b0(%rip),%eax        # 155f2 <g_224+0x2>
    dd42:	39 c2                	cmp    %eax,%edx
    dd44:	0f 95 c0             	setne  %al
    dd47:	0f b6 c0             	movzbl %al,%eax
    dd4a:	89 de                	mov    %ebx,%esi
    dd4c:	89 c7                	mov    %eax,%edi
    dd4e:	e8 7d 91 ff ff       	callq  6ed0 <safe_sub_func_uint32_t_u_u>
    dd53:	89 c2                	mov    %eax,%edx
    dd55:	48 8b 85 d0 f6 ff ff 	mov    -0x930(%rbp),%rax
    dd5c:	48 21 d0             	and    %rdx,%rax
    dd5f:	49 39 c4             	cmp    %rax,%r12
    dd62:	0f 9e c0             	setle  %al
    dd65:	0f b6 d0             	movzbl %al,%edx
    dd68:	48 8b 85 88 f7 ff ff 	mov    -0x878(%rbp),%rax
    dd6f:	8b 00                	mov    (%rax),%eax
    dd71:	09 c2                	or     %eax,%edx
    dd73:	48 8b 85 88 f7 ff ff 	mov    -0x878(%rbp),%rax
    dd7a:	89 10                	mov    %edx,(%rax)
    dd7c:	8b 85 cc f8 ff ff    	mov    -0x734(%rbp),%eax
    dd82:	89 c0                	mov    %eax,%eax
    dd84:	e9 7b 0e 00 00       	jmpq   ec04 <func_60+0x2060>
    dd89:	48 c7 05 2c 73 00 00 	movq   $0xffffffffffffffe3,0x732c(%rip)        # 150c0 <g_99>
    dd90:	e3 ff ff ff 
    dd94:	e9 f7 00 00 00       	jmpq   de90 <func_60+0x12ec>
    dd99:	48 8d 85 80 f8 ff ff 	lea    -0x780(%rbp),%rax
    dda0:	48 89 85 a8 f7 ff ff 	mov    %rax,-0x858(%rbp)
    dda7:	48 8b 85 a8 fa ff ff 	mov    -0x558(%rbp),%rax
    ddae:	48 89 85 a0 f7 ff ff 	mov    %rax,-0x860(%rbp)
    ddb5:	0f b6 05 4c 73 00 00 	movzbl 0x734c(%rip),%eax        # 15108 <g_138>
    ddbc:	0f b6 d8             	movzbl %al,%ebx
    ddbf:	48 83 bd 98 f7 ff ff 	cmpq   $0x0,-0x868(%rbp)
    ddc6:	00 
    ddc7:	0f 95 c0             	setne  %al
    ddca:	88 05 39 73 00 00    	mov    %al,0x7339(%rip)        # 15109 <g_140>
    ddd0:	0f b6 05 32 73 00 00 	movzbl 0x7332(%rip),%eax        # 15109 <g_140>
    ddd7:	44 0f be e0          	movsbl %al,%r12d
    dddb:	8b 05 89 45 00 00    	mov    0x4589(%rip),%eax        # 1236a <l_249.4810+0xa>
    dde1:	85 c0                	test   %eax,%eax
    dde3:	75 2b                	jne    de10 <func_60+0x126c>
    dde5:	48 8b 85 d0 f6 ff ff 	mov    -0x930(%rbp),%rax
    ddec:	48 85 c0             	test   %rax,%rax
    ddef:	74 26                	je     de17 <func_60+0x1273>
    ddf1:	8b 05 b9 72 00 00    	mov    0x72b9(%rip),%eax        # 150b0 <g_47>
    ddf7:	85 c0                	test   %eax,%eax
    ddf9:	0f 95 c0             	setne  %al
    ddfc:	0f b6 c0             	movzbl %al,%eax
    ddff:	be 04 00 00 00       	mov    $0x4,%esi
    de04:	89 c7                	mov    %eax,%edi
    de06:	e8 87 86 ff ff       	callq  6492 <safe_lshift_func_int16_t_s_s>
    de0b:	66 85 c0             	test   %ax,%ax
    de0e:	74 07                	je     de17 <func_60+0x1273>
    de10:	b8 01 00 00 00       	mov    $0x1,%eax
    de15:	eb 05                	jmp    de1c <func_60+0x1278>
    de17:	b8 00 00 00 00       	mov    $0x0,%eax
    de1c:	44 09 e0             	or     %r12d,%eax
    de1f:	89 c2                	mov    %eax,%edx
    de21:	8b 85 dc f6 ff ff    	mov    -0x924(%rbp),%eax
    de27:	39 c2                	cmp    %eax,%edx
    de29:	0f 94 c0             	sete   %al
    de2c:	0f b6 c0             	movzbl %al,%eax
    de2f:	be 00 00 00 00       	mov    $0x0,%esi
    de34:	89 c7                	mov    %eax,%edi
    de36:	e8 d7 83 ff ff       	callq  6212 <safe_mul_func_int8_t_s_s>
    de3b:	0f be c0             	movsbl %al,%eax
    de3e:	89 de                	mov    %ebx,%esi
    de40:	89 c7                	mov    %eax,%edi
    de42:	e8 b8 88 ff ff       	callq  66ff <safe_div_func_int32_t_s_s>
    de47:	85 c0                	test   %eax,%eax
    de49:	0f b6 05 19 45 00 00 	movzbl 0x4519(%rip),%eax        # 12369 <l_249.4810+0x9>
    de50:	0f b6 d0             	movzbl %al,%edx
    de53:	48 8b 85 88 f7 ff ff 	mov    -0x878(%rbp),%rax
    de5a:	89 10                	mov    %edx,(%rax)
    de5c:	48 8b 85 a8 f7 ff ff 	mov    -0x858(%rbp),%rax
    de63:	48 8d 95 dc f6 ff ff 	lea    -0x924(%rbp),%rdx
    de6a:	48 89 10             	mov    %rdx,(%rax)
    de6d:	48 8b 85 a8 f7 ff ff 	mov    -0x858(%rbp),%rax
    de74:	48 8b 00             	mov    (%rax),%rax
    de77:	48 89 85 38 f7 ff ff 	mov    %rax,-0x8c8(%rbp)
    de7e:	48 8b 05 3b 72 00 00 	mov    0x723b(%rip),%rax        # 150c0 <g_99>
    de85:	48 83 c0 01          	add    $0x1,%rax
    de89:	48 89 05 30 72 00 00 	mov    %rax,0x7230(%rip)        # 150c0 <g_99>
    de90:	48 8b 05 29 72 00 00 	mov    0x7229(%rip),%rax        # 150c0 <g_99>
    de97:	48 83 f8 31          	cmp    $0x31,%rax
    de9b:	0f 86 f8 fe ff ff    	jbe    dd99 <func_60+0x11f5>
    dea1:	eb 06                	jmp    dea9 <func_60+0x1305>
    dea3:	90                   	nop
    dea4:	e9 bf ed ff ff       	jmpq   cc68 <func_60+0xc4>
    dea9:	0f b7 05 26 73 00 00 	movzwl 0x7326(%rip),%eax        # 151d6 <g_221+0x6>
    deb0:	66 85 c0             	test   %ax,%ax
    deb3:	0f 85 3e 0d 00 00    	jne    ebf7 <func_60+0x2053>
    deb9:	48 8d 85 dc f6 ff ff 	lea    -0x924(%rbp),%rax
    dec0:	48 89 05 d9 aa 00 00 	mov    %rax,0xaad9(%rip)        # 189a0 <g_266>
    dec7:	48 8b 85 68 f7 ff ff 	mov    -0x898(%rbp),%rax
    dece:	0f b7 00             	movzwl (%rax),%eax
    ded1:	8d 48 ff             	lea    -0x1(%rax),%ecx
    ded4:	48 8b 95 68 f7 ff ff 	mov    -0x898(%rbp),%rdx
    dedb:	66 89 0a             	mov    %cx,(%rdx)
    dede:	0f bf d0             	movswl %ax,%edx
    dee1:	48 8b 85 38 f7 ff ff 	mov    -0x8c8(%rbp),%rax
    dee8:	8b 00                	mov    (%rax),%eax
    deea:	98                   	cwtl   
    deeb:	89 d6                	mov    %edx,%esi
    deed:	89 c7                	mov    %eax,%edi
    deef:	e8 01 85 ff ff       	callq  63f5 <safe_mul_func_int16_t_s_s>
    def4:	98                   	cwtl   
    def5:	89 85 20 f7 ff ff    	mov    %eax,-0x8e0(%rbp)
    defb:	83 bd 20 f7 ff ff 00 	cmpl   $0x0,-0x8e0(%rbp)
    df02:	75 18                	jne    df1c <func_60+0x1378>
    df04:	48 8b 85 50 f7 ff ff 	mov    -0x8b0(%rbp),%rax
    df0b:	48 89 85 40 f7 ff ff 	mov    %rax,-0x8c0(%rbp)
    df12:	48 8b 85 40 f7 ff ff 	mov    -0x8c0(%rbp),%rax
    df19:	48 85 c0             	test   %rax,%rax
    df1c:	48 8b 05 3d 44 00 00 	mov    0x443d(%rip),%rax        # 12360 <l_249.4810>
    df23:	0f bf d8             	movswl %ax,%ebx
    df26:	48 8b 05 93 a9 00 00 	mov    0xa993(%rip),%rax        # 188c0 <g_171>
    df2d:	0f b7 00             	movzwl (%rax),%eax
    df30:	98                   	cwtl   
    df31:	09 85 04 f7 ff ff    	or     %eax,-0x8fc(%rbp)
    df37:	8b 85 04 f7 ff ff    	mov    -0x8fc(%rbp),%eax
    df3d:	0f b7 d0             	movzwl %ax,%edx
    df40:	48 8b 85 78 f7 ff ff 	mov    -0x888(%rbp),%rax
    df47:	0f b7 00             	movzwl (%rax),%eax
    df4a:	8d 70 ff             	lea    -0x1(%rax),%esi
    df4d:	48 8b 8d 78 f7 ff ff 	mov    -0x888(%rbp),%rcx
    df54:	66 89 31             	mov    %si,(%rcx)
    df57:	0f b7 c0             	movzwl %ax,%eax
    df5a:	89 d6                	mov    %edx,%esi
    df5c:	89 c7                	mov    %eax,%edi
    df5e:	e8 bc 8d ff ff       	callq  6d1f <safe_sub_func_uint16_t_u_u>
    df63:	b8 01 00 00 00       	mov    $0x1,%eax
    df68:	89 c2                	mov    %eax,%edx
    df6a:	48 8b 05 2f aa 00 00 	mov    0xaa2f(%rip),%rax        # 189a0 <g_266>
    df71:	8b 00                	mov    (%rax),%eax
    df73:	31 d0                	xor    %edx,%eax
    df75:	0f b6 d0             	movzbl %al,%edx
    df78:	48 8b 85 70 f7 ff ff 	mov    -0x890(%rbp),%rax
    df7f:	8b 00                	mov    (%rax),%eax
    df81:	8d 70 ff             	lea    -0x1(%rax),%esi
    df84:	48 8b 8d 70 f7 ff ff 	mov    -0x890(%rbp),%rcx
    df8b:	89 31                	mov    %esi,(%rcx)
    df8d:	85 c0                	test   %eax,%eax
    df8f:	75 22                	jne    dfb3 <func_60+0x140f>
    df91:	48 8b 85 70 f7 ff ff 	mov    -0x890(%rbp),%rax
    df98:	8b 00                	mov    (%rax),%eax
    df9a:	8d 48 01             	lea    0x1(%rax),%ecx
    df9d:	48 8b 85 70 f7 ff ff 	mov    -0x890(%rbp),%rax
    dfa4:	89 08                	mov    %ecx,(%rax)
    dfa6:	48 8b 85 70 f7 ff ff 	mov    -0x890(%rbp),%rax
    dfad:	8b 00                	mov    (%rax),%eax
    dfaf:	85 c0                	test   %eax,%eax
    dfb1:	74 11                	je     dfc4 <func_60+0x1420>
    dfb3:	8b 05 0b 77 00 00    	mov    0x770b(%rip),%eax        # 156c4 <g_285+0x14>
    dfb9:	85 c0                	test   %eax,%eax
    dfbb:	74 07                	je     dfc4 <func_60+0x1420>
    dfbd:	b8 01 00 00 00       	mov    $0x1,%eax
    dfc2:	eb 05                	jmp    dfc9 <func_60+0x1425>
    dfc4:	b8 00 00 00 00       	mov    $0x0,%eax
    dfc9:	f7 d0                	not    %eax
    dfcb:	88 05 86 71 00 00    	mov    %al,0x7186(%rip)        # 15157 <g_155+0x37>
    dfd1:	0f b6 05 7f 71 00 00 	movzbl 0x717f(%rip),%eax        # 15157 <g_155+0x37>
    dfd8:	0f b6 c0             	movzbl %al,%eax
    dfdb:	89 d6                	mov    %edx,%esi
    dfdd:	89 c7                	mov    %eax,%edi
    dfdf:	e8 f7 8b ff ff       	callq  6bdb <safe_div_func_uint8_t_u_u>
    dfe4:	0f be c0             	movsbl %al,%eax
    dfe7:	be 04 00 00 00       	mov    $0x4,%esi
    dfec:	89 c7                	mov    %eax,%edi
    dfee:	e8 42 83 ff ff       	callq  6335 <safe_rshift_func_int8_t_s_s>
    dff3:	8b 05 b7 70 00 00    	mov    0x70b7(%rip),%eax        # 150b0 <g_47>
    dff9:	98                   	cwtl   
    dffa:	89 de                	mov    %ebx,%esi
    dffc:	89 c7                	mov    %eax,%edi
    dffe:	e8 f2 83 ff ff       	callq  63f5 <safe_mul_func_int16_t_s_s>
    e003:	8b 05 e9 75 00 00    	mov    0x75e9(%rip),%eax        # 155f2 <g_224+0x2>
    e009:	85 c0                	test   %eax,%eax
    e00b:	0f 95 c0             	setne  %al
    e00e:	0f b6 c0             	movzbl %al,%eax
    e011:	89 85 80 f9 ff ff    	mov    %eax,-0x680(%rbp)
    e017:	48 c7 05 de 70 00 00 	movq   $0xfffffffffffffff1,0x70de(%rip)        # 15100 <g_109>
    e01e:	f1 ff ff ff 
    e022:	e9 92 0b 00 00       	jmpq   ebb9 <func_60+0x2015>
    e027:	48 8d 05 b8 71 00 00 	lea    0x71b8(%rip),%rax        # 151e6 <g_222+0x6>
    e02e:	48 89 85 40 f8 ff ff 	mov    %rax,-0x7c0(%rbp)
    e035:	c7 85 30 f9 ff ff 02 	movl   $0x2,-0x6d0(%rbp)
    e03c:	00 00 00 
    e03f:	c7 85 34 f9 ff ff 02 	movl   $0x2,-0x6cc(%rbp)
    e046:	00 00 00 
    e049:	c7 85 38 f9 ff ff 02 	movl   $0x2,-0x6c8(%rbp)
    e050:	00 00 00 
    e053:	c7 85 3c f9 ff ff 02 	movl   $0x2,-0x6c4(%rbp)
    e05a:	00 00 00 
    e05d:	c7 85 40 f9 ff ff 02 	movl   $0x2,-0x6c0(%rbp)
    e064:	00 00 00 
    e067:	c7 85 44 f9 ff ff e9 	movl   $0x831052e9,-0x6bc(%rbp)
    e06e:	52 10 83 
    e071:	c7 85 48 f9 ff ff e9 	movl   $0x831052e9,-0x6b8(%rbp)
    e078:	52 10 83 
    e07b:	c7 85 4c f9 ff ff e9 	movl   $0x831052e9,-0x6b4(%rbp)
    e082:	52 10 83 
    e085:	c7 85 50 f9 ff ff e9 	movl   $0x831052e9,-0x6b0(%rbp)
    e08c:	52 10 83 
    e08f:	c7 85 54 f9 ff ff e9 	movl   $0x831052e9,-0x6ac(%rbp)
    e096:	52 10 83 
    e099:	c7 85 58 f9 ff ff 02 	movl   $0x2,-0x6a8(%rbp)
    e0a0:	00 00 00 
    e0a3:	c7 85 5c f9 ff ff 02 	movl   $0x2,-0x6a4(%rbp)
    e0aa:	00 00 00 
    e0ad:	c7 85 60 f9 ff ff 02 	movl   $0x2,-0x6a0(%rbp)
    e0b4:	00 00 00 
    e0b7:	c7 85 64 f9 ff ff 02 	movl   $0x2,-0x69c(%rbp)
    e0be:	00 00 00 
    e0c1:	c7 85 68 f9 ff ff 02 	movl   $0x2,-0x698(%rbp)
    e0c8:	00 00 00 
    e0cb:	c7 85 6c f9 ff ff e9 	movl   $0x831052e9,-0x694(%rbp)
    e0d2:	52 10 83 
    e0d5:	c7 85 70 f9 ff ff e9 	movl   $0x831052e9,-0x690(%rbp)
    e0dc:	52 10 83 
    e0df:	c7 85 74 f9 ff ff e9 	movl   $0x831052e9,-0x68c(%rbp)
    e0e6:	52 10 83 
    e0e9:	c7 85 78 f9 ff ff e9 	movl   $0x831052e9,-0x688(%rbp)
    e0f0:	52 10 83 
    e0f3:	c7 85 7c f9 ff ff e9 	movl   $0x831052e9,-0x684(%rbp)
    e0fa:	52 10 83 
    e0fd:	c7 85 80 f9 ff ff 02 	movl   $0x2,-0x680(%rbp)
    e104:	00 00 00 
    e107:	c7 85 84 f9 ff ff 02 	movl   $0x2,-0x67c(%rbp)
    e10e:	00 00 00 
    e111:	c7 85 88 f9 ff ff 02 	movl   $0x2,-0x678(%rbp)
    e118:	00 00 00 
    e11b:	c7 85 8c f9 ff ff 02 	movl   $0x2,-0x674(%rbp)
    e122:	00 00 00 
    e125:	c7 85 90 f9 ff ff 02 	movl   $0x2,-0x670(%rbp)
    e12c:	00 00 00 
    e12f:	48 c7 05 d6 74 00 00 	movq   $0x6,0x74d6(%rip)        # 15610 <g_230>
    e136:	06 00 00 00 
    e13a:	e9 76 02 00 00       	jmpq   e3b5 <func_60+0x1811>
    e13f:	48 c7 85 48 f8 ff ff 	movq   $0x0,-0x7b8(%rbp)
    e146:	00 00 00 00 
    e14a:	48 8d 85 a0 f8 ff ff 	lea    -0x760(%rbp),%rax
    e151:	48 89 85 50 f8 ff ff 	mov    %rax,-0x7b0(%rbp)
    e158:	48 8d 05 d1 a8 00 00 	lea    0xa8d1(%rip),%rax        # 18a30 <g_313>
    e15f:	48 89 85 48 f7 ff ff 	mov    %rax,-0x8b8(%rbp)
    e166:	48 8d 85 48 f7 ff ff 	lea    -0x8b8(%rbp),%rax
    e16d:	48 89 85 58 f8 ff ff 	mov    %rax,-0x7a8(%rbp)
    e174:	48 8d 85 e0 f8 ff ff 	lea    -0x720(%rbp),%rax
    e17b:	48 89 85 60 f8 ff ff 	mov    %rax,-0x7a0(%rbp)
    e182:	48 c7 85 50 f7 ff ff 	movq   $0x0,-0x8b0(%rbp)
    e189:	00 00 00 00 
    e18d:	48 8d 85 50 f7 ff ff 	lea    -0x8b0(%rbp),%rax
    e194:	48 89 85 68 f8 ff ff 	mov    %rax,-0x798(%rbp)
    e19b:	c7 85 10 f7 ff ff 00 	movl   $0x0,-0x8f0(%rbp)
    e1a2:	00 00 00 
    e1a5:	eb 1e                	jmp    e1c5 <func_60+0x1621>
    e1a7:	8b 85 10 f7 ff ff    	mov    -0x8f0(%rbp),%eax
    e1ad:	48 98                	cltq   
    e1af:	48 8d 95 40 f7 ff ff 	lea    -0x8c0(%rbp),%rdx
    e1b6:	48 89 94 c5 e0 f8 ff 	mov    %rdx,-0x720(%rbp,%rax,8)
    e1bd:	ff 
    e1be:	83 85 10 f7 ff ff 01 	addl   $0x1,-0x8f0(%rbp)
    e1c5:	83 bd 10 f7 ff ff 00 	cmpl   $0x0,-0x8f0(%rbp)
    e1cc:	7e d9                	jle    e1a7 <func_60+0x1603>
    e1ce:	c7 85 10 f7 ff ff 00 	movl   $0x0,-0x8f0(%rbp)
    e1d5:	00 00 00 
    e1d8:	eb 1e                	jmp    e1f8 <func_60+0x1654>
    e1da:	8b 85 10 f7 ff ff    	mov    -0x8f0(%rbp),%eax
    e1e0:	48 98                	cltq   
    e1e2:	48 8d 95 f4 f6 ff ff 	lea    -0x90c(%rbp),%rdx
    e1e9:	48 89 94 c5 50 fb ff 	mov    %rdx,-0x4b0(%rbp,%rax,8)
    e1f0:	ff 
    e1f1:	83 85 10 f7 ff ff 01 	addl   $0x1,-0x8f0(%rbp)
    e1f8:	83 bd 10 f7 ff ff 02 	cmpl   $0x2,-0x8f0(%rbp)
    e1ff:	7e d9                	jle    e1da <func_60+0x1636>
    e201:	c7 85 04 f7 ff ff 02 	movl   $0x2,-0x8fc(%rbp)
    e208:	00 00 00 
    e20b:	eb 1f                	jmp    e22c <func_60+0x1688>
    e20d:	48 8b 85 38 f7 ff ff 	mov    -0x8c8(%rbp),%rax
    e214:	8b 10                	mov    (%rax),%edx
    e216:	48 8b 85 38 f7 ff ff 	mov    -0x8c8(%rbp),%rax
    e21d:	81 e2 d7 00 00 00    	and    $0xd7,%edx
    e223:	89 10                	mov    %edx,(%rax)
    e225:	83 ad 04 f7 ff ff 01 	subl   $0x1,-0x8fc(%rbp)
    e22c:	83 bd 04 f7 ff ff 00 	cmpl   $0x0,-0x8fc(%rbp)
    e233:	79 d8                	jns    e20d <func_60+0x1669>
    e235:	48 8b 05 d4 73 00 00 	mov    0x73d4(%rip),%rax        # 15610 <g_230>
    e23c:	8b 84 85 c0 f8 ff ff 	mov    -0x740(%rbp,%rax,4),%eax
    e243:	85 c0                	test   %eax,%eax
    e245:	0f 85 54 01 00 00    	jne    e39f <func_60+0x17fb>
    e24b:	48 8b 05 be 73 00 00 	mov    0x73be(%rip),%rax        # 15610 <g_230>
    e252:	48 83 c0 01          	add    $0x1,%rax
    e256:	48 8d 14 85 00 00 00 	lea    0x0(,%rax,4),%rdx
    e25d:	00 
    e25e:	48 8d 05 7b 6e 00 00 	lea    0x6e7b(%rip),%rax        # 150e0 <g_108>
    e265:	8b 04 02             	mov    (%rdx,%rax,1),%eax
    e268:	85 c0                	test   %eax,%eax
    e26a:	0f 85 32 01 00 00    	jne    e3a2 <func_60+0x17fe>
    e270:	48 8b 85 38 f7 ff ff 	mov    -0x8c8(%rbp),%rax
    e277:	8b 00                	mov    (%rax),%eax
    e279:	0f b7 d8             	movzwl %ax,%ebx
    e27c:	48 8b 05 3d a6 00 00 	mov    0xa63d(%rip),%rax        # 188c0 <g_171>
    e283:	0f b7 00             	movzwl (%rax),%eax
    e286:	44 0f bf e0          	movswl %ax,%r12d
    e28a:	48 8b 85 68 f8 ff ff 	mov    -0x798(%rbp),%rax
    e291:	48 c7 00 00 00 00 00 	movq   $0x0,(%rax)
    e298:	8b 85 18 f7 ff ff    	mov    -0x8e8(%rbp),%eax
    e29e:	98                   	cwtl   
    e29f:	be 05 00 00 00       	mov    $0x5,%esi
    e2a4:	89 c7                	mov    %eax,%edi
    e2a6:	e8 36 82 ff ff       	callq  64e1 <safe_lshift_func_int16_t_s_u>
    e2ab:	0f bf d0             	movswl %ax,%edx
    e2ae:	48 83 bd 40 f8 ff ff 	cmpq   $0x0,-0x7c0(%rbp)
    e2b5:	00 
    e2b6:	0f 95 c0             	setne  %al
    e2b9:	0f b6 c0             	movzbl %al,%eax
    e2bc:	31 c2                	xor    %eax,%edx
    e2be:	48 8b 85 58 f8 ff ff 	mov    -0x7a8(%rbp),%rax
    e2c5:	48 8d 0d 64 a7 00 00 	lea    0xa764(%rip),%rcx        # 18a30 <g_313>
    e2cc:	48 89 08             	mov    %rcx,(%rax)
    e2cf:	48 8b 85 58 f8 ff ff 	mov    -0x7a8(%rbp),%rax
    e2d6:	48 8b 08             	mov    (%rax),%rcx
    e2d9:	48 8b 85 60 f8 ff ff 	mov    -0x7a0(%rbp),%rax
    e2e0:	48 89 08             	mov    %rcx,(%rax)
    e2e3:	48 8b 85 60 f8 ff ff 	mov    -0x7a0(%rbp),%rax
    e2ea:	48 8b 08             	mov    (%rax),%rcx
    e2ed:	48 8b 05 44 a7 00 00 	mov    0xa744(%rip),%rax        # 18a38 <g_312>
    e2f4:	48 39 c1             	cmp    %rax,%rcx
    e2f7:	0f 94 c0             	sete   %al
    e2fa:	0f b6 c0             	movzbl %al,%eax
    e2fd:	89 d6                	mov    %edx,%esi
    e2ff:	89 c7                	mov    %eax,%edi
    e301:	e8 24 82 ff ff       	callq  652a <safe_rshift_func_int16_t_s_s>
    e306:	98                   	cwtl   
    e307:	89 85 7c f9 ff ff    	mov    %eax,-0x684(%rbp)
    e30d:	8b 85 7c f9 ff ff    	mov    -0x684(%rbp),%eax
    e313:	0f be d0             	movsbl %al,%edx
    e316:	48 8b 85 48 f8 ff ff 	mov    -0x7b8(%rbp),%rax
    e31d:	48 89 05 f4 a6 00 00 	mov    %rax,0xa6f4(%rip)        # 18a18 <g_308+0x58>
    e324:	48 8b 35 ed a6 00 00 	mov    0xa6ed(%rip),%rsi        # 18a18 <g_308+0x58>
    e32b:	48 8b 85 50 f8 ff ff 	mov    -0x7b0(%rbp),%rax
    e332:	48 8b 8d 48 f8 ff ff 	mov    -0x7b8(%rbp),%rcx
    e339:	48 89 08             	mov    %rcx,(%rax)
    e33c:	48 8b 85 50 f8 ff ff 	mov    -0x7b0(%rbp),%rax
    e343:	48 8b 00             	mov    (%rax),%rax
    e346:	48 39 c6             	cmp    %rax,%rsi
    e349:	0f 95 c0             	setne  %al
    e34c:	0f b6 c0             	movzbl %al,%eax
    e34f:	89 c1                	mov    %eax,%ecx
    e351:	0f b6 05 b1 6d 00 00 	movzbl 0x6db1(%rip),%eax        # 15109 <g_140>
    e358:	21 c8                	and    %ecx,%eax
    e35a:	88 05 a9 6d 00 00    	mov    %al,0x6da9(%rip)        # 15109 <g_140>
    e360:	0f b6 05 a2 6d 00 00 	movzbl 0x6da2(%rip),%eax        # 15109 <g_140>
    e367:	0f be c0             	movsbl %al,%eax
    e36a:	89 d6                	mov    %edx,%esi
    e36c:	89 c7                	mov    %eax,%edi
    e36e:	e8 9f 7e ff ff       	callq  6212 <safe_mul_func_int8_t_s_s>
    e373:	44 89 e6             	mov    %r12d,%esi
    e376:	bf 00 00 00 00       	mov    $0x0,%edi
    e37b:	e8 aa 81 ff ff       	callq  652a <safe_rshift_func_int16_t_s_s>
    e380:	0f b7 c0             	movzwl %ax,%eax
    e383:	89 de                	mov    %ebx,%esi
    e385:	89 c7                	mov    %eax,%edi
    e387:	e8 b1 89 ff ff       	callq  6d3d <safe_mul_func_uint16_t_u_u>
    e38c:	0f b7 d0             	movzwl %ax,%edx
    e38f:	8b 05 23 6d 00 00    	mov    0x6d23(%rip),%eax        # 150b8 <g_82>
    e395:	31 d0                	xor    %edx,%eax
    e397:	89 05 1b 6d 00 00    	mov    %eax,0x6d1b(%rip)        # 150b8 <g_82>
    e39d:	eb 04                	jmp    e3a3 <func_60+0x17ff>
    e39f:	90                   	nop
    e3a0:	eb 01                	jmp    e3a3 <func_60+0x17ff>
    e3a2:	90                   	nop
    e3a3:	48 8b 05 66 72 00 00 	mov    0x7266(%rip),%rax        # 15610 <g_230>
    e3aa:	48 83 e8 01          	sub    $0x1,%rax
    e3ae:	48 89 05 5b 72 00 00 	mov    %rax,0x725b(%rip)        # 15610 <g_230>
    e3b5:	48 8b 05 54 72 00 00 	mov    0x7254(%rip),%rax        # 15610 <g_230>
    e3bc:	48 85 c0             	test   %rax,%rax
    e3bf:	0f 89 7a fd ff ff    	jns    e13f <func_60+0x159b>
    e3c5:	66 c7 05 18 6e 00 00 	movw   $0x0,0x6e18(%rip)        # 151e6 <g_222+0x6>
    e3cc:	00 00 
    e3ce:	e9 7b 07 00 00       	jmpq   eb4e <func_60+0x1faa>
    e3d3:	48 8d 85 38 f7 ff ff 	lea    -0x8c8(%rbp),%rax
    e3da:	48 89 85 50 fb ff ff 	mov    %rax,-0x4b0(%rbp)
    e3e1:	48 8d 85 38 f7 ff ff 	lea    -0x8c8(%rbp),%rax
    e3e8:	48 89 85 58 fb ff ff 	mov    %rax,-0x4a8(%rbp)
    e3ef:	48 8d 85 38 f7 ff ff 	lea    -0x8c8(%rbp),%rax
    e3f6:	48 89 85 60 fb ff ff 	mov    %rax,-0x4a0(%rbp)
    e3fd:	48 8d 85 38 f7 ff ff 	lea    -0x8c8(%rbp),%rax
    e404:	48 89 85 68 fb ff ff 	mov    %rax,-0x498(%rbp)
    e40b:	48 8d 85 38 f7 ff ff 	lea    -0x8c8(%rbp),%rax
    e412:	48 89 85 70 fb ff ff 	mov    %rax,-0x490(%rbp)
    e419:	48 c7 85 78 fb ff ff 	movq   $0x0,-0x488(%rbp)
    e420:	00 00 00 00 
    e424:	48 c7 85 80 fb ff ff 	movq   $0x0,-0x480(%rbp)
    e42b:	00 00 00 00 
    e42f:	48 8d 05 6a a5 00 00 	lea    0xa56a(%rip),%rax        # 189a0 <g_266>
    e436:	48 89 85 88 fb ff ff 	mov    %rax,-0x478(%rbp)
    e43d:	48 8d 85 38 f7 ff ff 	lea    -0x8c8(%rbp),%rax
    e444:	48 89 85 90 fb ff ff 	mov    %rax,-0x470(%rbp)
    e44b:	48 8d 85 38 f7 ff ff 	lea    -0x8c8(%rbp),%rax
    e452:	48 89 85 98 fb ff ff 	mov    %rax,-0x468(%rbp)
    e459:	48 8d 85 38 f7 ff ff 	lea    -0x8c8(%rbp),%rax
    e460:	48 89 85 a0 fb ff ff 	mov    %rax,-0x460(%rbp)
    e467:	48 8d 85 38 f7 ff ff 	lea    -0x8c8(%rbp),%rax
    e46e:	48 89 85 a8 fb ff ff 	mov    %rax,-0x458(%rbp)
    e475:	48 8d 05 24 a5 00 00 	lea    0xa524(%rip),%rax        # 189a0 <g_266>
    e47c:	48 89 85 b0 fb ff ff 	mov    %rax,-0x450(%rbp)
    e483:	48 8d 85 38 f7 ff ff 	lea    -0x8c8(%rbp),%rax
    e48a:	48 89 85 b8 fb ff ff 	mov    %rax,-0x448(%rbp)
    e491:	48 8d 85 38 f7 ff ff 	lea    -0x8c8(%rbp),%rax
    e498:	48 89 85 c0 fb ff ff 	mov    %rax,-0x440(%rbp)
    e49f:	48 8d 85 38 f7 ff ff 	lea    -0x8c8(%rbp),%rax
    e4a6:	48 89 85 c8 fb ff ff 	mov    %rax,-0x438(%rbp)
    e4ad:	48 8d 85 38 f7 ff ff 	lea    -0x8c8(%rbp),%rax
    e4b4:	48 89 85 d0 fb ff ff 	mov    %rax,-0x430(%rbp)
    e4bb:	48 c7 85 d8 fb ff ff 	movq   $0x0,-0x428(%rbp)
    e4c2:	00 00 00 00 
    e4c6:	48 8d 85 38 f7 ff ff 	lea    -0x8c8(%rbp),%rax
    e4cd:	48 89 85 e0 fb ff ff 	mov    %rax,-0x420(%rbp)
    e4d4:	48 8d 85 38 f7 ff ff 	lea    -0x8c8(%rbp),%rax
    e4db:	48 89 85 e8 fb ff ff 	mov    %rax,-0x418(%rbp)
    e4e2:	48 8d 85 38 f7 ff ff 	lea    -0x8c8(%rbp),%rax
    e4e9:	48 89 85 f0 fb ff ff 	mov    %rax,-0x410(%rbp)
    e4f0:	48 8d 05 a9 a4 00 00 	lea    0xa4a9(%rip),%rax        # 189a0 <g_266>
    e4f7:	48 89 85 f8 fb ff ff 	mov    %rax,-0x408(%rbp)
    e4fe:	48 8d 85 38 f7 ff ff 	lea    -0x8c8(%rbp),%rax
    e505:	48 89 85 00 fc ff ff 	mov    %rax,-0x400(%rbp)
    e50c:	48 8d 85 38 f7 ff ff 	lea    -0x8c8(%rbp),%rax
    e513:	48 89 85 08 fc ff ff 	mov    %rax,-0x3f8(%rbp)
    e51a:	48 8d 05 7f a4 00 00 	lea    0xa47f(%rip),%rax        # 189a0 <g_266>
    e521:	48 89 85 10 fc ff ff 	mov    %rax,-0x3f0(%rbp)
    e528:	48 8d 85 38 f7 ff ff 	lea    -0x8c8(%rbp),%rax
    e52f:	48 89 85 18 fc ff ff 	mov    %rax,-0x3e8(%rbp)
    e536:	48 8d 85 38 f7 ff ff 	lea    -0x8c8(%rbp),%rax
    e53d:	48 89 85 20 fc ff ff 	mov    %rax,-0x3e0(%rbp)
    e544:	48 8d 85 38 f7 ff ff 	lea    -0x8c8(%rbp),%rax
    e54b:	48 89 85 28 fc ff ff 	mov    %rax,-0x3d8(%rbp)
    e552:	48 8d 05 47 a4 00 00 	lea    0xa447(%rip),%rax        # 189a0 <g_266>
    e559:	48 89 85 30 fc ff ff 	mov    %rax,-0x3d0(%rbp)
    e560:	48 8d 85 38 f7 ff ff 	lea    -0x8c8(%rbp),%rax
    e567:	48 89 85 38 fc ff ff 	mov    %rax,-0x3c8(%rbp)
    e56e:	48 8d 85 38 f7 ff ff 	lea    -0x8c8(%rbp),%rax
    e575:	48 89 85 40 fc ff ff 	mov    %rax,-0x3c0(%rbp)
    e57c:	48 8d 85 38 f7 ff ff 	lea    -0x8c8(%rbp),%rax
    e583:	48 89 85 48 fc ff ff 	mov    %rax,-0x3b8(%rbp)
    e58a:	48 8d 85 38 f7 ff ff 	lea    -0x8c8(%rbp),%rax
    e591:	48 89 85 50 fc ff ff 	mov    %rax,-0x3b0(%rbp)
    e598:	48 8d 85 38 f7 ff ff 	lea    -0x8c8(%rbp),%rax
    e59f:	48 89 85 58 fc ff ff 	mov    %rax,-0x3a8(%rbp)
    e5a6:	48 8d 85 38 f7 ff ff 	lea    -0x8c8(%rbp),%rax
    e5ad:	48 89 85 60 fc ff ff 	mov    %rax,-0x3a0(%rbp)
    e5b4:	48 8d 85 38 f7 ff ff 	lea    -0x8c8(%rbp),%rax
    e5bb:	48 89 85 68 fc ff ff 	mov    %rax,-0x398(%rbp)
    e5c2:	48 8d 05 d7 a3 00 00 	lea    0xa3d7(%rip),%rax        # 189a0 <g_266>
    e5c9:	48 89 85 70 fc ff ff 	mov    %rax,-0x390(%rbp)
    e5d0:	48 8d 85 38 f7 ff ff 	lea    -0x8c8(%rbp),%rax
    e5d7:	48 89 85 78 fc ff ff 	mov    %rax,-0x388(%rbp)
    e5de:	48 c7 85 80 fc ff ff 	movq   $0x0,-0x380(%rbp)
    e5e5:	00 00 00 00 
    e5e9:	48 8d 85 38 f7 ff ff 	lea    -0x8c8(%rbp),%rax
    e5f0:	48 89 85 88 fc ff ff 	mov    %rax,-0x378(%rbp)
    e5f7:	48 8d 85 38 f7 ff ff 	lea    -0x8c8(%rbp),%rax
    e5fe:	48 89 85 90 fc ff ff 	mov    %rax,-0x370(%rbp)
    e605:	48 8d 85 38 f7 ff ff 	lea    -0x8c8(%rbp),%rax
    e60c:	48 89 85 98 fc ff ff 	mov    %rax,-0x368(%rbp)
    e613:	48 8d 85 38 f7 ff ff 	lea    -0x8c8(%rbp),%rax
    e61a:	48 89 85 a0 fc ff ff 	mov    %rax,-0x360(%rbp)
    e621:	48 8d 85 38 f7 ff ff 	lea    -0x8c8(%rbp),%rax
    e628:	48 89 85 a8 fc ff ff 	mov    %rax,-0x358(%rbp)
    e62f:	48 8d 05 6a a3 00 00 	lea    0xa36a(%rip),%rax        # 189a0 <g_266>
    e636:	48 89 85 b0 fc ff ff 	mov    %rax,-0x350(%rbp)
    e63d:	48 c7 85 b8 fc ff ff 	movq   $0x0,-0x348(%rbp)
    e644:	00 00 00 00 
    e648:	48 8d 05 51 a3 00 00 	lea    0xa351(%rip),%rax        # 189a0 <g_266>
    e64f:	48 89 85 c0 fc ff ff 	mov    %rax,-0x340(%rbp)
    e656:	48 8d 05 43 a3 00 00 	lea    0xa343(%rip),%rax        # 189a0 <g_266>
    e65d:	48 89 85 c8 fc ff ff 	mov    %rax,-0x338(%rbp)
    e664:	48 c7 85 d0 fc ff ff 	movq   $0x0,-0x330(%rbp)
    e66b:	00 00 00 00 
    e66f:	48 8d 85 38 f7 ff ff 	lea    -0x8c8(%rbp),%rax
    e676:	48 89 85 d8 fc ff ff 	mov    %rax,-0x328(%rbp)
    e67d:	48 c7 85 e0 fc ff ff 	movq   $0x0,-0x320(%rbp)
    e684:	00 00 00 00 
    e688:	48 8d 05 11 a3 00 00 	lea    0xa311(%rip),%rax        # 189a0 <g_266>
    e68f:	48 89 85 e8 fc ff ff 	mov    %rax,-0x318(%rbp)
    e696:	48 c7 85 f0 fc ff ff 	movq   $0x0,-0x310(%rbp)
    e69d:	00 00 00 00 
    e6a1:	48 8d 85 38 f7 ff ff 	lea    -0x8c8(%rbp),%rax
    e6a8:	48 89 85 f8 fc ff ff 	mov    %rax,-0x308(%rbp)
    e6af:	48 8d 05 ea a2 00 00 	lea    0xa2ea(%rip),%rax        # 189a0 <g_266>
    e6b6:	48 89 85 00 fd ff ff 	mov    %rax,-0x300(%rbp)
    e6bd:	48 8d 05 dc a2 00 00 	lea    0xa2dc(%rip),%rax        # 189a0 <g_266>
    e6c4:	48 89 85 08 fd ff ff 	mov    %rax,-0x2f8(%rbp)
    e6cb:	48 c7 85 10 fd ff ff 	movq   $0x0,-0x2f0(%rbp)
    e6d2:	00 00 00 00 
    e6d6:	48 c7 85 18 fd ff ff 	movq   $0x0,-0x2e8(%rbp)
    e6dd:	00 00 00 00 
    e6e1:	48 8d 85 38 f7 ff ff 	lea    -0x8c8(%rbp),%rax
    e6e8:	48 89 85 20 fd ff ff 	mov    %rax,-0x2e0(%rbp)
    e6ef:	48 8d 05 aa a2 00 00 	lea    0xa2aa(%rip),%rax        # 189a0 <g_266>
    e6f6:	48 89 85 28 fd ff ff 	mov    %rax,-0x2d8(%rbp)
    e6fd:	48 c7 85 30 fd ff ff 	movq   $0x0,-0x2d0(%rbp)
    e704:	00 00 00 00 
    e708:	48 8d 85 38 f7 ff ff 	lea    -0x8c8(%rbp),%rax
    e70f:	48 89 85 38 fd ff ff 	mov    %rax,-0x2c8(%rbp)
    e716:	48 8d 05 83 a2 00 00 	lea    0xa283(%rip),%rax        # 189a0 <g_266>
    e71d:	48 89 85 40 fd ff ff 	mov    %rax,-0x2c0(%rbp)
    e724:	48 8d 85 38 f7 ff ff 	lea    -0x8c8(%rbp),%rax
    e72b:	48 89 85 48 fd ff ff 	mov    %rax,-0x2b8(%rbp)
    e732:	48 8d 85 38 f7 ff ff 	lea    -0x8c8(%rbp),%rax
    e739:	48 89 85 50 fd ff ff 	mov    %rax,-0x2b0(%rbp)
    e740:	48 8d 05 59 a2 00 00 	lea    0xa259(%rip),%rax        # 189a0 <g_266>
    e747:	48 89 85 58 fd ff ff 	mov    %rax,-0x2a8(%rbp)
    e74e:	48 8d 05 4b a2 00 00 	lea    0xa24b(%rip),%rax        # 189a0 <g_266>
    e755:	48 89 85 60 fd ff ff 	mov    %rax,-0x2a0(%rbp)
    e75c:	48 8d 05 3d a2 00 00 	lea    0xa23d(%rip),%rax        # 189a0 <g_266>
    e763:	48 89 85 68 fd ff ff 	mov    %rax,-0x298(%rbp)
    e76a:	48 c7 85 70 fd ff ff 	movq   $0x0,-0x290(%rbp)
    e771:	00 00 00 00 
    e775:	48 8d 05 24 a2 00 00 	lea    0xa224(%rip),%rax        # 189a0 <g_266>
    e77c:	48 89 85 78 fd ff ff 	mov    %rax,-0x288(%rbp)
    e783:	48 8d 85 38 f7 ff ff 	lea    -0x8c8(%rbp),%rax
    e78a:	48 89 85 80 fd ff ff 	mov    %rax,-0x280(%rbp)
    e791:	48 8d 85 38 f7 ff ff 	lea    -0x8c8(%rbp),%rax
    e798:	48 89 85 88 fd ff ff 	mov    %rax,-0x278(%rbp)
    e79f:	48 8d 05 fa a1 00 00 	lea    0xa1fa(%rip),%rax        # 189a0 <g_266>
    e7a6:	48 89 85 90 fd ff ff 	mov    %rax,-0x270(%rbp)
    e7ad:	48 8d 85 38 f7 ff ff 	lea    -0x8c8(%rbp),%rax
    e7b4:	48 89 85 98 fd ff ff 	mov    %rax,-0x268(%rbp)
    e7bb:	48 c7 85 a0 fd ff ff 	movq   $0x0,-0x260(%rbp)
    e7c2:	00 00 00 00 
    e7c6:	48 8d 85 38 f7 ff ff 	lea    -0x8c8(%rbp),%rax
    e7cd:	48 89 85 a8 fd ff ff 	mov    %rax,-0x258(%rbp)
    e7d4:	48 8d 85 38 f7 ff ff 	lea    -0x8c8(%rbp),%rax
    e7db:	48 89 85 b0 fd ff ff 	mov    %rax,-0x250(%rbp)
    e7e2:	48 8d 05 b7 a1 00 00 	lea    0xa1b7(%rip),%rax        # 189a0 <g_266>
    e7e9:	48 89 85 b8 fd ff ff 	mov    %rax,-0x248(%rbp)
    e7f0:	48 c7 85 c0 fd ff ff 	movq   $0x0,-0x240(%rbp)
    e7f7:	00 00 00 00 
    e7fb:	48 8d 85 38 f7 ff ff 	lea    -0x8c8(%rbp),%rax
    e802:	48 89 85 c8 fd ff ff 	mov    %rax,-0x238(%rbp)
    e809:	48 8d 85 38 f7 ff ff 	lea    -0x8c8(%rbp),%rax
    e810:	48 89 85 d0 fd ff ff 	mov    %rax,-0x230(%rbp)
    e817:	48 8d 85 38 f7 ff ff 	lea    -0x8c8(%rbp),%rax
    e81e:	48 89 85 d8 fd ff ff 	mov    %rax,-0x228(%rbp)
    e825:	48 8d 85 38 f7 ff ff 	lea    -0x8c8(%rbp),%rax
    e82c:	48 89 85 e0 fd ff ff 	mov    %rax,-0x220(%rbp)
    e833:	48 8d 85 38 f7 ff ff 	lea    -0x8c8(%rbp),%rax
    e83a:	48 89 85 e8 fd ff ff 	mov    %rax,-0x218(%rbp)
    e841:	48 8d 85 38 f7 ff ff 	lea    -0x8c8(%rbp),%rax
    e848:	48 89 85 f0 fd ff ff 	mov    %rax,-0x210(%rbp)
    e84f:	48 8d 85 38 f7 ff ff 	lea    -0x8c8(%rbp),%rax
    e856:	48 89 85 f8 fd ff ff 	mov    %rax,-0x208(%rbp)
    e85d:	48 8d 85 38 f7 ff ff 	lea    -0x8c8(%rbp),%rax
    e864:	48 89 85 00 fe ff ff 	mov    %rax,-0x200(%rbp)
    e86b:	48 c7 85 08 fe ff ff 	movq   $0x0,-0x1f8(%rbp)
    e872:	00 00 00 00 
    e876:	48 8d 85 38 f7 ff ff 	lea    -0x8c8(%rbp),%rax
    e87d:	48 89 85 10 fe ff ff 	mov    %rax,-0x1f0(%rbp)
    e884:	48 c7 85 18 fe ff ff 	movq   $0x0,-0x1e8(%rbp)
    e88b:	00 00 00 00 
    e88f:	48 8d 85 38 f7 ff ff 	lea    -0x8c8(%rbp),%rax
    e896:	48 89 85 20 fe ff ff 	mov    %rax,-0x1e0(%rbp)
    e89d:	48 8d 05 fc a0 00 00 	lea    0xa0fc(%rip),%rax        # 189a0 <g_266>
    e8a4:	48 89 85 28 fe ff ff 	mov    %rax,-0x1d8(%rbp)
    e8ab:	48 c7 85 30 fe ff ff 	movq   $0x0,-0x1d0(%rbp)
    e8b2:	00 00 00 00 
    e8b6:	48 8d 05 e3 a0 00 00 	lea    0xa0e3(%rip),%rax        # 189a0 <g_266>
    e8bd:	48 89 85 38 fe ff ff 	mov    %rax,-0x1c8(%rbp)
    e8c4:	48 8d 85 38 f7 ff ff 	lea    -0x8c8(%rbp),%rax
    e8cb:	48 89 85 40 fe ff ff 	mov    %rax,-0x1c0(%rbp)
    e8d2:	48 c7 85 48 fe ff ff 	movq   $0x0,-0x1b8(%rbp)
    e8d9:	00 00 00 00 
    e8dd:	48 8d 85 38 f7 ff ff 	lea    -0x8c8(%rbp),%rax
    e8e4:	48 89 85 50 fe ff ff 	mov    %rax,-0x1b0(%rbp)
    e8eb:	48 8d 85 38 f7 ff ff 	lea    -0x8c8(%rbp),%rax
    e8f2:	48 89 85 58 fe ff ff 	mov    %rax,-0x1a8(%rbp)
    e8f9:	48 c7 85 60 fe ff ff 	movq   $0x0,-0x1a0(%rbp)
    e900:	00 00 00 00 
    e904:	48 8d 05 95 a0 00 00 	lea    0xa095(%rip),%rax        # 189a0 <g_266>
    e90b:	48 89 85 68 fe ff ff 	mov    %rax,-0x198(%rbp)
    e912:	48 8d 85 38 f7 ff ff 	lea    -0x8c8(%rbp),%rax
    e919:	48 89 85 70 fe ff ff 	mov    %rax,-0x190(%rbp)
    e920:	48 c7 85 78 fe ff ff 	movq   $0x0,-0x188(%rbp)
    e927:	00 00 00 00 
    e92b:	48 8d 85 38 f7 ff ff 	lea    -0x8c8(%rbp),%rax
    e932:	48 89 85 80 fe ff ff 	mov    %rax,-0x180(%rbp)
    e939:	48 8d 05 60 a0 00 00 	lea    0xa060(%rip),%rax        # 189a0 <g_266>
    e940:	48 89 85 88 fe ff ff 	mov    %rax,-0x178(%rbp)
    e947:	48 8d 85 38 f7 ff ff 	lea    -0x8c8(%rbp),%rax
    e94e:	48 89 85 90 fe ff ff 	mov    %rax,-0x170(%rbp)
    e955:	48 c7 85 98 fe ff ff 	movq   $0x0,-0x168(%rbp)
    e95c:	00 00 00 00 
    e960:	48 c7 85 a0 fe ff ff 	movq   $0x0,-0x160(%rbp)
    e967:	00 00 00 00 
    e96b:	48 8d 85 38 f7 ff ff 	lea    -0x8c8(%rbp),%rax
    e972:	48 89 85 a8 fe ff ff 	mov    %rax,-0x158(%rbp)
    e979:	48 8d 85 38 f7 ff ff 	lea    -0x8c8(%rbp),%rax
    e980:	48 89 85 b0 fe ff ff 	mov    %rax,-0x150(%rbp)
    e987:	48 8d 85 38 f7 ff ff 	lea    -0x8c8(%rbp),%rax
    e98e:	48 89 85 b8 fe ff ff 	mov    %rax,-0x148(%rbp)
    e995:	48 8d 85 38 f7 ff ff 	lea    -0x8c8(%rbp),%rax
    e99c:	48 89 85 c0 fe ff ff 	mov    %rax,-0x140(%rbp)
    e9a3:	48 8d 85 38 f7 ff ff 	lea    -0x8c8(%rbp),%rax
    e9aa:	48 89 85 c8 fe ff ff 	mov    %rax,-0x138(%rbp)
    e9b1:	48 8d 05 e8 9f 00 00 	lea    0x9fe8(%rip),%rax        # 189a0 <g_266>
    e9b8:	48 89 85 d0 fe ff ff 	mov    %rax,-0x130(%rbp)
    e9bf:	48 8d 85 38 f7 ff ff 	lea    -0x8c8(%rbp),%rax
    e9c6:	48 89 85 d8 fe ff ff 	mov    %rax,-0x128(%rbp)
    e9cd:	48 c7 85 e0 fe ff ff 	movq   $0x0,-0x120(%rbp)
    e9d4:	00 00 00 00 
    e9d8:	48 8d 85 38 f7 ff ff 	lea    -0x8c8(%rbp),%rax
    e9df:	48 89 85 e8 fe ff ff 	mov    %rax,-0x118(%rbp)
    e9e6:	48 8d 85 38 f7 ff ff 	lea    -0x8c8(%rbp),%rax
    e9ed:	48 89 85 f0 fe ff ff 	mov    %rax,-0x110(%rbp)
    e9f4:	48 8d 85 38 f7 ff ff 	lea    -0x8c8(%rbp),%rax
    e9fb:	48 89 85 f8 fe ff ff 	mov    %rax,-0x108(%rbp)
    ea02:	48 8d 05 97 9f 00 00 	lea    0x9f97(%rip),%rax        # 189a0 <g_266>
    ea09:	48 89 85 00 ff ff ff 	mov    %rax,-0x100(%rbp)
    ea10:	48 8d 85 38 f7 ff ff 	lea    -0x8c8(%rbp),%rax
    ea17:	48 89 85 08 ff ff ff 	mov    %rax,-0xf8(%rbp)
    ea1e:	48 8d 05 7b 9f 00 00 	lea    0x9f7b(%rip),%rax        # 189a0 <g_266>
    ea25:	48 89 85 10 ff ff ff 	mov    %rax,-0xf0(%rbp)
    ea2c:	48 8d 05 6d 9f 00 00 	lea    0x9f6d(%rip),%rax        # 189a0 <g_266>
    ea33:	48 89 85 18 ff ff ff 	mov    %rax,-0xe8(%rbp)
    ea3a:	48 8d 85 38 f7 ff ff 	lea    -0x8c8(%rbp),%rax
    ea41:	48 89 85 20 ff ff ff 	mov    %rax,-0xe0(%rbp)
    ea48:	48 8d 05 51 9f 00 00 	lea    0x9f51(%rip),%rax        # 189a0 <g_266>
    ea4f:	48 89 85 28 ff ff ff 	mov    %rax,-0xd8(%rbp)
    ea56:	48 c7 85 30 ff ff ff 	movq   $0x0,-0xd0(%rbp)
    ea5d:	00 00 00 00 
    ea61:	48 c7 85 38 ff ff ff 	movq   $0x0,-0xc8(%rbp)
    ea68:	00 00 00 00 
    ea6c:	48 8d 05 2d 9f 00 00 	lea    0x9f2d(%rip),%rax        # 189a0 <g_266>
    ea73:	48 89 85 40 ff ff ff 	mov    %rax,-0xc0(%rbp)
    ea7a:	48 c7 85 48 ff ff ff 	movq   $0x0,-0xb8(%rbp)
    ea81:	00 00 00 00 
    ea85:	48 c7 85 50 ff ff ff 	movq   $0x0,-0xb0(%rbp)
    ea8c:	00 00 00 00 
    ea90:	48 8d 85 38 f7 ff ff 	lea    -0x8c8(%rbp),%rax
    ea97:	48 89 85 58 ff ff ff 	mov    %rax,-0xa8(%rbp)
    ea9e:	48 8d 05 fb 9e 00 00 	lea    0x9efb(%rip),%rax        # 189a0 <g_266>
    eaa5:	48 89 85 60 ff ff ff 	mov    %rax,-0xa0(%rbp)
    eaac:	48 c7 85 68 ff ff ff 	movq   $0x0,-0x98(%rbp)
    eab3:	00 00 00 00 
    eab7:	48 c7 85 70 ff ff ff 	movq   $0x0,-0x90(%rbp)
    eabe:	00 00 00 00 
    eac2:	48 c7 85 78 ff ff ff 	movq   $0x0,-0x88(%rbp)
    eac9:	00 00 00 00 
    eacd:	48 c7 45 80 00 00 00 	movq   $0x0,-0x80(%rbp)
    ead4:	00 
    ead5:	48 c7 45 88 00 00 00 	movq   $0x0,-0x78(%rbp)
    eadc:	00 
    eadd:	48 c7 45 90 00 00 00 	movq   $0x0,-0x70(%rbp)
    eae4:	00 
    eae5:	48 c7 45 98 00 00 00 	movq   $0x0,-0x68(%rbp)
    eaec:	00 
    eaed:	48 8d 05 ac 9e 00 00 	lea    0x9eac(%rip),%rax        # 189a0 <g_266>
    eaf4:	48 89 45 a0          	mov    %rax,-0x60(%rbp)
    eaf8:	48 8d 05 a1 9e 00 00 	lea    0x9ea1(%rip),%rax        # 189a0 <g_266>
    eaff:	48 89 45 a8          	mov    %rax,-0x58(%rbp)
    eb03:	48 8d 85 38 f7 ff ff 	lea    -0x8c8(%rbp),%rax
    eb0a:	48 89 45 b0          	mov    %rax,-0x50(%rbp)
    eb0e:	48 8d 05 8b 9e 00 00 	lea    0x9e8b(%rip),%rax        # 189a0 <g_266>
    eb15:	48 89 45 b8          	mov    %rax,-0x48(%rbp)
    eb19:	48 8d 05 80 9e 00 00 	lea    0x9e80(%rip),%rax        # 189a0 <g_266>
    eb20:	48 89 45 c0          	mov    %rax,-0x40(%rbp)
    eb24:	48 8d 85 38 f7 ff ff 	lea    -0x8c8(%rbp),%rax
    eb2b:	48 89 45 c8          	mov    %rax,-0x38(%rbp)
    eb2f:	48 8d 85 dc f6 ff ff 	lea    -0x924(%rbp),%rax
    eb36:	48 89 85 60 f7 ff ff 	mov    %rax,-0x8a0(%rbp)
    eb3d:	0f b7 05 a2 66 00 00 	movzwl 0x66a2(%rip),%eax        # 151e6 <g_222+0x6>
    eb44:	83 c0 01             	add    $0x1,%eax
    eb47:	66 89 05 98 66 00 00 	mov    %ax,0x6698(%rip)        # 151e6 <g_222+0x6>
    eb4e:	0f b7 05 91 66 00 00 	movzwl 0x6691(%rip),%eax        # 151e6 <g_222+0x6>
    eb55:	66 83 f8 19          	cmp    $0x19,%ax
    eb59:	0f 8e 74 f8 ff ff    	jle    e3d3 <func_60+0x182f>
    eb5f:	c6 05 a3 65 00 00 00 	movb   $0x0,0x65a3(%rip)        # 15109 <g_140>
    eb66:	eb 26                	jmp    eb8e <func_60+0x1fea>
    eb68:	0f b6 05 9a 65 00 00 	movzbl 0x659a(%rip),%eax        # 15109 <g_140>
    eb6f:	0f be c0             	movsbl %al,%eax
    eb72:	48 98                	cltq   
    eb74:	66 c7 84 45 74 f8 ff 	movw   $0x6e44,-0x78c(%rbp,%rax,2)
    eb7b:	ff 44 6e 
    eb7e:	0f b6 05 84 65 00 00 	movzbl 0x6584(%rip),%eax        # 15109 <g_140>
    eb85:	83 c0 01             	add    $0x1,%eax
    eb88:	88 05 7b 65 00 00    	mov    %al,0x657b(%rip)        # 15109 <g_140>
    eb8e:	0f b6 05 74 65 00 00 	movzbl 0x6574(%rip),%eax        # 15109 <g_140>
    eb95:	3c 01                	cmp    $0x1,%al
    eb97:	7e cf                	jle    eb68 <func_60+0x1fc4>
    eb99:	48 8b 05 60 65 00 00 	mov    0x6560(%rip),%rax        # 15100 <g_109>
    eba0:	0f b7 c0             	movzwl %ax,%eax
    eba3:	be 06 00 00 00       	mov    $0x6,%esi
    eba8:	89 c7                	mov    %eax,%edi
    ebaa:	e8 50 81 ff ff       	callq  6cff <safe_add_func_uint16_t_u_u>
    ebaf:	0f b7 c0             	movzwl %ax,%eax
    ebb2:	48 89 05 47 65 00 00 	mov    %rax,0x6547(%rip)        # 15100 <g_109>
    ebb9:	48 8b 05 40 65 00 00 	mov    0x6540(%rip),%rax        # 15100 <g_109>
    ebc0:	48 83 f8 18          	cmp    $0x18,%rax
    ebc4:	0f 87 5d f4 ff ff    	ja     e027 <func_60+0x1483>
    ebca:	8b 05 e0 64 00 00    	mov    0x64e0(%rip),%eax        # 150b0 <g_47>
    ebd0:	0f be c0             	movsbl %al,%eax
    ebd3:	be 04 00 00 00       	mov    $0x4,%esi
    ebd8:	89 c7                	mov    %eax,%edi
    ebda:	e8 f5 75 ff ff       	callq  61d4 <safe_add_func_int8_t_s_s>
    ebdf:	0f be c0             	movsbl %al,%eax
    ebe2:	89 05 c8 64 00 00    	mov    %eax,0x64c8(%rip)        # 150b0 <g_47>
    ebe8:	8b 05 c2 64 00 00    	mov    0x64c2(%rip),%eax        # 150b0 <g_47>
    ebee:	83 f8 1d             	cmp    $0x1d,%eax
    ebf1:	0f 87 ae e0 ff ff    	ja     cca5 <func_60+0x101>
    ebf7:	48 8b 05 3a 9e 00 00 	mov    0x9e3a(%rip),%rax        # 18a38 <g_312>
    ebfe:	48 8b 00             	mov    (%rax),%rax
    ec01:	48 8b 00             	mov    (%rax),%rax
    ec04:	48 8b 5d d8          	mov    -0x28(%rbp),%rbx
    ec08:	64 48 33 1c 25 28 00 	xor    %fs:0x28,%rbx
    ec0f:	00 00 
    ec11:	74 05                	je     ec18 <func_60+0x2074>
    ec13:	e8 58 74 ff ff       	callq  6070 <__stack_chk_fail@plt>
    ec18:	48 81 c4 10 09 00 00 	add    $0x910,%rsp
    ec1f:	5b                   	pop    %rbx
    ec20:	41 5c                	pop    %r12
    ec22:	41 5d                	pop    %r13
    ec24:	41 5e                	pop    %r14
    ec26:	5d                   	pop    %rbp
    ec27:	c3                   	retq   

000000000000ec28 <main>:
    ec28:	f3 0f 1e fa          	endbr64 
    ec2c:	55                   	push   %rbp
    ec2d:	48 89 e5             	mov    %rsp,%rbp
    ec30:	48 83 ec 20          	sub    $0x20,%rsp
    ec34:	89 7d ec             	mov    %edi,-0x14(%rbp)
    ec37:	48 89 75 e0          	mov    %rsi,-0x20(%rbp)
    ec3b:	c7 45 fc 00 00 00 00 	movl   $0x0,-0x4(%rbp)
    ec42:	83 7d ec 02          	cmpl   $0x2,-0x14(%rbp)
    ec46:	75 25                	jne    ec6d <main+0x45>
    ec48:	48 8b 45 e0          	mov    -0x20(%rbp),%rax
    ec4c:	48 83 c0 08          	add    $0x8,%rax
    ec50:	48 8b 00             	mov    (%rax),%rax
    ec53:	48 8d 35 c6 2e 00 00 	lea    0x2ec6(%rip),%rsi        # 11b20 <g_1649+0xaa8>
    ec5a:	48 89 c7             	mov    %rax,%rdi
    ec5d:	e8 2e 74 ff ff       	callq  6090 <strcmp@plt>
    ec62:	85 c0                	test   %eax,%eax
    ec64:	75 07                	jne    ec6d <main+0x45>
    ec66:	c7 45 fc 01 00 00 00 	movl   $0x1,-0x4(%rbp)
    ec6d:	e8 17 75 ff ff       	callq  6189 <platform_main_begin>
    ec72:	e8 21 89 ff ff       	callq  7598 <crc32_gentab>
    ec77:	e8 39 8b ff ff       	callq  77b5 <func_1>
    ec7c:	8b 05 a6 a4 00 00    	mov    0xa4a6(%rip),%eax        # 19128 <g_2>
    ec82:	48 98                	cltq   
    ec84:	8b 55 fc             	mov    -0x4(%rbp),%edx
    ec87:	48 8d 35 94 2e 00 00 	lea    0x2e94(%rip),%rsi        # 11b22 <g_1649+0xaaa>
    ec8e:	48 89 c7             	mov    %rax,%rdi
    ec91:	e8 5d 8a ff ff       	callq  76f3 <transparent_crc>
    ec96:	8b 05 88 63 00 00    	mov    0x6388(%rip),%eax        # 15024 <g_3>
    ec9c:	48 98                	cltq   
    ec9e:	8b 55 fc             	mov    -0x4(%rbp),%edx
    eca1:	48 8d 35 7e 2e 00 00 	lea    0x2e7e(%rip),%rsi        # 11b26 <g_1649+0xaae>
    eca8:	48 89 c7             	mov    %rax,%rdi
    ecab:	e8 43 8a ff ff       	callq  76f3 <transparent_crc>
    ecb0:	8b 05 72 63 00 00    	mov    0x6372(%rip),%eax        # 15028 <g_4>
    ecb6:	48 98                	cltq   
    ecb8:	8b 55 fc             	mov    -0x4(%rbp),%edx
    ecbb:	48 8d 35 68 2e 00 00 	lea    0x2e68(%rip),%rsi        # 11b2a <g_1649+0xab2>
    ecc2:	48 89 c7             	mov    %rax,%rdi
    ecc5:	e8 29 8a ff ff       	callq  76f3 <transparent_crc>
    ecca:	c7 45 f0 00 00 00 00 	movl   $0x0,-0x10(%rbp)
    ecd1:	e9 ae 00 00 00       	jmpq   ed84 <main+0x15c>
    ecd6:	c7 45 f4 00 00 00 00 	movl   $0x0,-0xc(%rbp)
    ecdd:	e9 94 00 00 00       	jmpq   ed76 <main+0x14e>
    ece2:	c7 45 f8 00 00 00 00 	movl   $0x0,-0x8(%rbp)
    ece9:	eb 7d                	jmp    ed68 <main+0x140>
    eceb:	8b 45 f8             	mov    -0x8(%rbp),%eax
    ecee:	48 63 f0             	movslq %eax,%rsi
    ecf1:	8b 45 f0             	mov    -0x10(%rbp),%eax
    ecf4:	48 63 d0             	movslq %eax,%rdx
    ecf7:	8b 45 f4             	mov    -0xc(%rbp),%eax
    ecfa:	48 63 c8             	movslq %eax,%rcx
    ecfd:	48 89 d0             	mov    %rdx,%rax
    ed00:	48 c1 e0 03          	shl    $0x3,%rax
    ed04:	48 29 d0             	sub    %rdx,%rax
    ed07:	48 01 c0             	add    %rax,%rax
    ed0a:	48 89 ca             	mov    %rcx,%rdx
    ed0d:	48 c1 e2 03          	shl    $0x3,%rdx
    ed11:	48 29 ca             	sub    %rcx,%rdx
    ed14:	48 01 d0             	add    %rdx,%rax
    ed17:	48 01 f0             	add    %rsi,%rax
    ed1a:	48 8d 14 85 00 00 00 	lea    0x0(,%rax,4),%rdx
    ed21:	00 
    ed22:	48 8d 05 17 63 00 00 	lea    0x6317(%rip),%rax        # 15040 <g_18>
    ed29:	8b 04 02             	mov    (%rdx,%rax,1),%eax
    ed2c:	89 c1                	mov    %eax,%ecx
    ed2e:	8b 45 fc             	mov    -0x4(%rbp),%eax
    ed31:	89 c2                	mov    %eax,%edx
    ed33:	48 8d 35 f4 2d 00 00 	lea    0x2df4(%rip),%rsi        # 11b2e <g_1649+0xab6>
    ed3a:	48 89 cf             	mov    %rcx,%rdi
    ed3d:	e8 b1 89 ff ff       	callq  76f3 <transparent_crc>
    ed42:	83 7d fc 00          	cmpl   $0x0,-0x4(%rbp)
    ed46:	74 1c                	je     ed64 <main+0x13c>
    ed48:	8b 4d f8             	mov    -0x8(%rbp),%ecx
    ed4b:	8b 55 f4             	mov    -0xc(%rbp),%edx
    ed4e:	8b 45 f0             	mov    -0x10(%rbp),%eax
    ed51:	89 c6                	mov    %eax,%esi
    ed53:	48 8d 3d e2 2d 00 00 	lea    0x2de2(%rip),%rdi        # 11b3c <g_1649+0xac4>
    ed5a:	b8 00 00 00 00       	mov    $0x0,%eax
    ed5f:	e8 1c 73 ff ff       	callq  6080 <printf@plt>
    ed64:	83 45 f8 01          	addl   $0x1,-0x8(%rbp)
    ed68:	83 7d f8 06          	cmpl   $0x6,-0x8(%rbp)
    ed6c:	0f 8e 79 ff ff ff    	jle    eceb <main+0xc3>
    ed72:	83 45 f4 01          	addl   $0x1,-0xc(%rbp)
    ed76:	83 7d f4 01          	cmpl   $0x1,-0xc(%rbp)
    ed7a:	0f 8e 62 ff ff ff    	jle    ece2 <main+0xba>
    ed80:	83 45 f0 01          	addl   $0x1,-0x10(%rbp)
    ed84:	83 7d f0 01          	cmpl   $0x1,-0x10(%rbp)
    ed88:	0f 8e 48 ff ff ff    	jle    ecd6 <main+0xae>
    ed8e:	8b 05 1c 63 00 00    	mov    0x631c(%rip),%eax        # 150b0 <g_47>
    ed94:	89 c1                	mov    %eax,%ecx
    ed96:	8b 45 fc             	mov    -0x4(%rbp),%eax
    ed99:	89 c2                	mov    %eax,%edx
    ed9b:	48 8d 35 b0 2d 00 00 	lea    0x2db0(%rip),%rsi        # 11b52 <g_1649+0xada>
    eda2:	48 89 cf             	mov    %rcx,%rdi
    eda5:	e8 49 89 ff ff       	callq  76f3 <transparent_crc>
    edaa:	8b 05 04 63 00 00    	mov    0x6304(%rip),%eax        # 150b4 <g_81>
    edb0:	48 98                	cltq   
    edb2:	8b 55 fc             	mov    -0x4(%rbp),%edx
    edb5:	48 8d 35 9b 2d 00 00 	lea    0x2d9b(%rip),%rsi        # 11b57 <g_1649+0xadf>
    edbc:	48 89 c7             	mov    %rax,%rdi
    edbf:	e8 2f 89 ff ff       	callq  76f3 <transparent_crc>
    edc4:	8b 05 ee 62 00 00    	mov    0x62ee(%rip),%eax        # 150b8 <g_82>
    edca:	48 98                	cltq   
    edcc:	8b 55 fc             	mov    -0x4(%rbp),%edx
    edcf:	48 8d 35 86 2d 00 00 	lea    0x2d86(%rip),%rsi        # 11b5c <g_1649+0xae4>
    edd6:	48 89 c7             	mov    %rax,%rdi
    edd9:	e8 15 89 ff ff       	callq  76f3 <transparent_crc>
    edde:	48 8b 05 db 62 00 00 	mov    0x62db(%rip),%rax        # 150c0 <g_99>
    ede5:	8b 55 fc             	mov    -0x4(%rbp),%edx
    ede8:	48 8d 35 72 2d 00 00 	lea    0x2d72(%rip),%rsi        # 11b61 <g_1649+0xae9>
    edef:	48 89 c7             	mov    %rax,%rdi
    edf2:	e8 fc 88 ff ff       	callq  76f3 <transparent_crc>
    edf7:	48 8b 05 ca 62 00 00 	mov    0x62ca(%rip),%rax        # 150c8 <g_102>
    edfe:	48 89 c1             	mov    %rax,%rcx
    ee01:	8b 45 fc             	mov    -0x4(%rbp),%eax
    ee04:	89 c2                	mov    %eax,%edx
    ee06:	48 8d 35 59 2d 00 00 	lea    0x2d59(%rip),%rsi        # 11b66 <g_1649+0xaee>
    ee0d:	48 89 cf             	mov    %rcx,%rdi
    ee10:	e8 de 88 ff ff       	callq  76f3 <transparent_crc>
    ee15:	0f b7 05 10 a3 00 00 	movzwl 0xa310(%rip),%eax        # 1912c <g_104>
    ee1c:	48 0f bf c0          	movswq %ax,%rax
    ee20:	8b 55 fc             	mov    -0x4(%rbp),%edx
    ee23:	48 8d 35 42 2d 00 00 	lea    0x2d42(%rip),%rsi        # 11b6c <g_1649+0xaf4>
    ee2a:	48 89 c7             	mov    %rax,%rdi
    ee2d:	e8 c1 88 ff ff       	callq  76f3 <transparent_crc>
    ee32:	48 8b 05 97 62 00 00 	mov    0x6297(%rip),%rax        # 150d0 <g_105>
    ee39:	8b 55 fc             	mov    -0x4(%rbp),%edx
    ee3c:	48 8d 35 2f 2d 00 00 	lea    0x2d2f(%rip),%rsi        # 11b72 <g_1649+0xafa>
    ee43:	48 89 c7             	mov    %rax,%rdi
    ee46:	e8 a8 88 ff ff       	callq  76f3 <transparent_crc>
    ee4b:	c7 45 f0 00 00 00 00 	movl   $0x0,-0x10(%rbp)
    ee52:	eb 4b                	jmp    ee9f <main+0x277>
    ee54:	8b 45 f0             	mov    -0x10(%rbp),%eax
    ee57:	48 98                	cltq   
    ee59:	48 8d 14 85 00 00 00 	lea    0x0(,%rax,4),%rdx
    ee60:	00 
    ee61:	48 8d 05 78 62 00 00 	lea    0x6278(%rip),%rax        # 150e0 <g_108>
    ee68:	8b 04 02             	mov    (%rdx,%rax,1),%eax
    ee6b:	48 98                	cltq   
    ee6d:	8b 55 fc             	mov    -0x4(%rbp),%edx
    ee70:	48 8d 35 01 2d 00 00 	lea    0x2d01(%rip),%rsi        # 11b78 <g_1649+0xb00>
    ee77:	48 89 c7             	mov    %rax,%rdi
    ee7a:	e8 74 88 ff ff       	callq  76f3 <transparent_crc>
    ee7f:	83 7d fc 00          	cmpl   $0x0,-0x4(%rbp)
    ee83:	74 16                	je     ee9b <main+0x273>
    ee85:	8b 45 f0             	mov    -0x10(%rbp),%eax
    ee88:	89 c6                	mov    %eax,%esi
    ee8a:	48 8d 3d f0 2c 00 00 	lea    0x2cf0(%rip),%rdi        # 11b81 <g_1649+0xb09>
    ee91:	b8 00 00 00 00       	mov    $0x0,%eax
    ee96:	e8 e5 71 ff ff       	callq  6080 <printf@plt>
    ee9b:	83 45 f0 01          	addl   $0x1,-0x10(%rbp)
    ee9f:	83 7d f0 07          	cmpl   $0x7,-0x10(%rbp)
    eea3:	7e af                	jle    ee54 <main+0x22c>
    eea5:	48 8b 05 54 62 00 00 	mov    0x6254(%rip),%rax        # 15100 <g_109>
    eeac:	8b 55 fc             	mov    -0x4(%rbp),%edx
    eeaf:	48 8d 35 d9 2c 00 00 	lea    0x2cd9(%rip),%rsi        # 11b8f <g_1649+0xb17>
    eeb6:	48 89 c7             	mov    %rax,%rdi
    eeb9:	e8 35 88 ff ff       	callq  76f3 <transparent_crc>
    eebe:	0f b6 05 43 62 00 00 	movzbl 0x6243(%rip),%eax        # 15108 <g_138>
    eec5:	0f b6 c0             	movzbl %al,%eax
    eec8:	8b 55 fc             	mov    -0x4(%rbp),%edx
    eecb:	48 8d 35 c3 2c 00 00 	lea    0x2cc3(%rip),%rsi        # 11b95 <g_1649+0xb1d>
    eed2:	48 89 c7             	mov    %rax,%rdi
    eed5:	e8 19 88 ff ff       	callq  76f3 <transparent_crc>
    eeda:	0f b6 05 28 62 00 00 	movzbl 0x6228(%rip),%eax        # 15109 <g_140>
    eee1:	48 0f be c0          	movsbq %al,%rax
    eee5:	8b 55 fc             	mov    -0x4(%rbp),%edx
    eee8:	48 8d 35 ac 2c 00 00 	lea    0x2cac(%rip),%rsi        # 11b9b <g_1649+0xb23>
    eeef:	48 89 c7             	mov    %rax,%rdi
    eef2:	e8 fc 87 ff ff       	callq  76f3 <transparent_crc>
    eef7:	48 8b 05 12 62 00 00 	mov    0x6212(%rip),%rax        # 15110 <g_152>
    eefe:	48 89 c1             	mov    %rax,%rcx
    ef01:	8b 45 fc             	mov    -0x4(%rbp),%eax
    ef04:	89 c2                	mov    %eax,%edx
    ef06:	48 8d 35 94 2c 00 00 	lea    0x2c94(%rip),%rsi        # 11ba1 <g_1649+0xb29>
    ef0d:	48 89 cf             	mov    %rcx,%rdi
    ef10:	e8 de 87 ff ff       	callq  76f3 <transparent_crc>
    ef15:	c7 45 f0 00 00 00 00 	movl   $0x0,-0x10(%rbp)
    ef1c:	e9 ae 00 00 00       	jmpq   efcf <main+0x3a7>
    ef21:	c7 45 f4 00 00 00 00 	movl   $0x0,-0xc(%rbp)
    ef28:	e9 94 00 00 00       	jmpq   efc1 <main+0x399>
    ef2d:	c7 45 f8 00 00 00 00 	movl   $0x0,-0x8(%rbp)
    ef34:	eb 7d                	jmp    efb3 <main+0x38b>
    ef36:	8b 45 f8             	mov    -0x8(%rbp),%eax
    ef39:	48 63 f0             	movslq %eax,%rsi
    ef3c:	8b 45 f0             	mov    -0x10(%rbp),%eax
    ef3f:	48 98                	cltq   
    ef41:	8b 55 f4             	mov    -0xc(%rbp),%edx
    ef44:	48 63 ca             	movslq %edx,%rcx
    ef47:	48 89 c2             	mov    %rax,%rdx
    ef4a:	48 c1 e2 03          	shl    $0x3,%rdx
    ef4e:	48 01 c2             	add    %rax,%rdx
    ef51:	48 8d 04 12          	lea    (%rdx,%rdx,1),%rax
    ef55:	48 89 c2             	mov    %rax,%rdx
    ef58:	48 89 c8             	mov    %rcx,%rax
    ef5b:	48 01 c0             	add    %rax,%rax
    ef5e:	48 01 c8             	add    %rcx,%rax
    ef61:	48 01 c0             	add    %rax,%rax
    ef64:	48 01 d0             	add    %rdx,%rax
    ef67:	48 8d 14 30          	lea    (%rax,%rsi,1),%rdx
    ef6b:	48 8d 05 ae 61 00 00 	lea    0x61ae(%rip),%rax        # 15120 <g_155>
    ef72:	48 01 d0             	add    %rdx,%rax
    ef75:	0f b6 00             	movzbl (%rax),%eax
    ef78:	0f b6 c0             	movzbl %al,%eax
    ef7b:	8b 55 fc             	mov    -0x4(%rbp),%edx
    ef7e:	48 8d 35 22 2c 00 00 	lea    0x2c22(%rip),%rsi        # 11ba7 <g_1649+0xb2f>
    ef85:	48 89 c7             	mov    %rax,%rdi
    ef88:	e8 66 87 ff ff       	callq  76f3 <transparent_crc>
    ef8d:	83 7d fc 00          	cmpl   $0x0,-0x4(%rbp)
    ef91:	74 1c                	je     efaf <main+0x387>
    ef93:	8b 4d f8             	mov    -0x8(%rbp),%ecx
    ef96:	8b 55 f4             	mov    -0xc(%rbp),%edx
    ef99:	8b 45 f0             	mov    -0x10(%rbp),%eax
    ef9c:	89 c6                	mov    %eax,%esi
    ef9e:	48 8d 3d 97 2b 00 00 	lea    0x2b97(%rip),%rdi        # 11b3c <g_1649+0xac4>
    efa5:	b8 00 00 00 00       	mov    $0x0,%eax
    efaa:	e8 d1 70 ff ff       	callq  6080 <printf@plt>
    efaf:	83 45 f8 01          	addl   $0x1,-0x8(%rbp)
    efb3:	83 7d f8 05          	cmpl   $0x5,-0x8(%rbp)
    efb7:	0f 8e 79 ff ff ff    	jle    ef36 <main+0x30e>
    efbd:	83 45 f4 01          	addl   $0x1,-0xc(%rbp)
    efc1:	83 7d f4 02          	cmpl   $0x2,-0xc(%rbp)
    efc5:	0f 8e 62 ff ff ff    	jle    ef2d <main+0x305>
    efcb:	83 45 f0 01          	addl   $0x1,-0x10(%rbp)
    efcf:	83 7d f0 08          	cmpl   $0x8,-0x10(%rbp)
    efd3:	0f 8e 48 ff ff ff    	jle    ef21 <main+0x2f9>
    efd9:	0f b7 05 e2 61 00 00 	movzwl 0x61e2(%rip),%eax        # 151c2 <g_172>
    efe0:	48 0f bf c0          	movswq %ax,%rax
    efe4:	8b 55 fc             	mov    -0x4(%rbp),%edx
    efe7:	48 8d 35 c8 2b 00 00 	lea    0x2bc8(%rip),%rsi        # 11bb6 <g_1649+0xb3e>
    efee:	48 89 c7             	mov    %rax,%rdi
    eff1:	e8 fd 86 ff ff       	callq  76f3 <transparent_crc>
    eff6:	8b 05 c8 61 00 00    	mov    0x61c8(%rip),%eax        # 151c4 <g_208>
    effc:	48 98                	cltq   
    effe:	8b 55 fc             	mov    -0x4(%rbp),%edx
    f001:	48 8d 35 b4 2b 00 00 	lea    0x2bb4(%rip),%rsi        # 11bbc <g_1649+0xb44>
    f008:	48 89 c7             	mov    %rax,%rdi
    f00b:	e8 e3 86 ff ff       	callq  76f3 <transparent_crc>
    f010:	48 8b 05 b9 61 00 00 	mov    0x61b9(%rip),%rax        # 151d0 <g_221>
    f017:	c1 e0 03             	shl    $0x3,%eax
    f01a:	66 c1 f8 03          	sar    $0x3,%ax
    f01e:	48 0f bf c0          	movswq %ax,%rax
    f022:	8b 55 fc             	mov    -0x4(%rbp),%edx
    f025:	48 8d 35 96 2b 00 00 	lea    0x2b96(%rip),%rsi        # 11bc2 <g_1649+0xb4a>
    f02c:	48 89 c7             	mov    %rax,%rdi
    f02f:	e8 bf 86 ff ff       	callq  76f3 <transparent_crc>
    f034:	8b 05 98 61 00 00    	mov    0x6198(%rip),%eax        # 151d2 <g_221+0x2>
    f03a:	89 c1                	mov    %eax,%ecx
    f03c:	8b 45 fc             	mov    -0x4(%rbp),%eax
    f03f:	89 c2                	mov    %eax,%edx
    f041:	48 8d 35 83 2b 00 00 	lea    0x2b83(%rip),%rsi        # 11bcb <g_1649+0xb53>
    f048:	48 89 cf             	mov    %rcx,%rdi
    f04b:	e8 a3 86 ff ff       	callq  76f3 <transparent_crc>
    f050:	0f b7 05 7f 61 00 00 	movzwl 0x617f(%rip),%eax        # 151d6 <g_221+0x6>
    f057:	48 0f bf c0          	movswq %ax,%rax
    f05b:	8b 55 fc             	mov    -0x4(%rbp),%edx
    f05e:	48 8d 35 6f 2b 00 00 	lea    0x2b6f(%rip),%rsi        # 11bd4 <g_1649+0xb5c>
    f065:	48 89 c7             	mov    %rax,%rdi
    f068:	e8 86 86 ff ff       	callq  76f3 <transparent_crc>
    f06d:	48 8b 05 64 61 00 00 	mov    0x6164(%rip),%rax        # 151d8 <g_221+0x8>
    f074:	48 89 c1             	mov    %rax,%rcx
    f077:	8b 45 fc             	mov    -0x4(%rbp),%eax
    f07a:	89 c2                	mov    %eax,%edx
    f07c:	48 8d 35 5a 2b 00 00 	lea    0x2b5a(%rip),%rsi        # 11bdd <g_1649+0xb65>
    f083:	48 89 cf             	mov    %rcx,%rdi
    f086:	e8 68 86 ff ff       	callq  76f3 <transparent_crc>
    f08b:	48 8b 05 4e 61 00 00 	mov    0x614e(%rip),%rax        # 151e0 <g_222>
    f092:	c1 e0 03             	shl    $0x3,%eax
    f095:	66 c1 f8 03          	sar    $0x3,%ax
    f099:	48 0f bf c0          	movswq %ax,%rax
    f09d:	8b 55 fc             	mov    -0x4(%rbp),%edx
    f0a0:	48 8d 35 3f 2b 00 00 	lea    0x2b3f(%rip),%rsi        # 11be6 <g_1649+0xb6e>
    f0a7:	48 89 c7             	mov    %rax,%rdi
    f0aa:	e8 44 86 ff ff       	callq  76f3 <transparent_crc>
    f0af:	8b 05 2d 61 00 00    	mov    0x612d(%rip),%eax        # 151e2 <g_222+0x2>
    f0b5:	89 c1                	mov    %eax,%ecx
    f0b7:	8b 45 fc             	mov    -0x4(%rbp),%eax
    f0ba:	89 c2                	mov    %eax,%edx
    f0bc:	48 8d 35 2c 2b 00 00 	lea    0x2b2c(%rip),%rsi        # 11bef <g_1649+0xb77>
    f0c3:	48 89 cf             	mov    %rcx,%rdi
    f0c6:	e8 28 86 ff ff       	callq  76f3 <transparent_crc>
    f0cb:	0f b7 05 14 61 00 00 	movzwl 0x6114(%rip),%eax        # 151e6 <g_222+0x6>
    f0d2:	48 0f bf c0          	movswq %ax,%rax
    f0d6:	8b 55 fc             	mov    -0x4(%rbp),%edx
    f0d9:	48 8d 35 18 2b 00 00 	lea    0x2b18(%rip),%rsi        # 11bf8 <g_1649+0xb80>
    f0e0:	48 89 c7             	mov    %rax,%rdi
    f0e3:	e8 0b 86 ff ff       	callq  76f3 <transparent_crc>
    f0e8:	48 8b 05 f9 60 00 00 	mov    0x60f9(%rip),%rax        # 151e8 <g_222+0x8>
    f0ef:	48 89 c1             	mov    %rax,%rcx
    f0f2:	8b 45 fc             	mov    -0x4(%rbp),%eax
    f0f5:	89 c2                	mov    %eax,%edx
    f0f7:	48 8d 35 03 2b 00 00 	lea    0x2b03(%rip),%rsi        # 11c01 <g_1649+0xb89>
    f0fe:	48 89 cf             	mov    %rcx,%rdi
    f101:	e8 ed 85 ff ff       	callq  76f3 <transparent_crc>
    f106:	c7 45 f0 00 00 00 00 	movl   $0x0,-0x10(%rbp)
    f10d:	e9 ce 01 00 00       	jmpq   f2e0 <main+0x6b8>
    f112:	c7 45 f4 00 00 00 00 	movl   $0x0,-0xc(%rbp)
    f119:	e9 b4 01 00 00       	jmpq   f2d2 <main+0x6aa>
    f11e:	c7 45 f8 00 00 00 00 	movl   $0x0,-0x8(%rbp)
    f125:	e9 9a 01 00 00       	jmpq   f2c4 <main+0x69c>
    f12a:	8b 45 f8             	mov    -0x8(%rbp),%eax
    f12d:	48 63 f0             	movslq %eax,%rsi
    f130:	8b 45 f0             	mov    -0x10(%rbp),%eax
    f133:	48 63 d0             	movslq %eax,%rdx
    f136:	8b 45 f4             	mov    -0xc(%rbp),%eax
    f139:	48 63 c8             	movslq %eax,%rcx
    f13c:	48 89 d0             	mov    %rdx,%rax
    f13f:	48 c1 e0 02          	shl    $0x2,%rax
    f143:	48 01 d0             	add    %rdx,%rax
    f146:	48 c1 e0 02          	shl    $0x2,%rax
    f14a:	48 01 d0             	add    %rdx,%rax
    f14d:	48 89 ca             	mov    %rcx,%rdx
    f150:	48 c1 e2 03          	shl    $0x3,%rdx
    f154:	48 29 ca             	sub    %rcx,%rdx
    f157:	48 01 d0             	add    %rdx,%rax
    f15a:	48 01 f0             	add    %rsi,%rax
    f15d:	48 c1 e0 04          	shl    $0x4,%rax
    f161:	48 89 c2             	mov    %rax,%rdx
    f164:	48 8d 05 95 60 00 00 	lea    0x6095(%rip),%rax        # 15200 <g_223>
    f16b:	48 8b 04 02          	mov    (%rdx,%rax,1),%rax
    f16f:	c1 e0 03             	shl    $0x3,%eax
    f172:	66 c1 f8 03          	sar    $0x3,%ax
    f176:	48 0f bf c0          	movswq %ax,%rax
    f17a:	8b 55 fc             	mov    -0x4(%rbp),%edx
    f17d:	48 8d 35 86 2a 00 00 	lea    0x2a86(%rip),%rsi        # 11c0a <g_1649+0xb92>
    f184:	48 89 c7             	mov    %rax,%rdi
    f187:	e8 67 85 ff ff       	callq  76f3 <transparent_crc>
    f18c:	8b 45 f8             	mov    -0x8(%rbp),%eax
    f18f:	48 63 f0             	movslq %eax,%rsi
    f192:	8b 45 f0             	mov    -0x10(%rbp),%eax
    f195:	48 63 d0             	movslq %eax,%rdx
    f198:	8b 45 f4             	mov    -0xc(%rbp),%eax
    f19b:	48 63 c8             	movslq %eax,%rcx
    f19e:	48 89 d0             	mov    %rdx,%rax
    f1a1:	48 c1 e0 02          	shl    $0x2,%rax
    f1a5:	48 01 d0             	add    %rdx,%rax
    f1a8:	48 c1 e0 02          	shl    $0x2,%rax
    f1ac:	48 01 d0             	add    %rdx,%rax
    f1af:	48 89 ca             	mov    %rcx,%rdx
    f1b2:	48 c1 e2 03          	shl    $0x3,%rdx
    f1b6:	48 29 ca             	sub    %rcx,%rdx
    f1b9:	48 01 d0             	add    %rdx,%rax
    f1bc:	48 01 f0             	add    %rsi,%rax
    f1bf:	48 c1 e0 04          	shl    $0x4,%rax
    f1c3:	48 89 c2             	mov    %rax,%rdx
    f1c6:	48 8d 05 33 60 00 00 	lea    0x6033(%rip),%rax        # 15200 <g_223>
    f1cd:	8b 44 02 02          	mov    0x2(%rdx,%rax,1),%eax
    f1d1:	89 c1                	mov    %eax,%ecx
    f1d3:	8b 45 fc             	mov    -0x4(%rbp),%eax
    f1d6:	89 c2                	mov    %eax,%edx
    f1d8:	48 8d 35 3d 2a 00 00 	lea    0x2a3d(%rip),%rsi        # 11c1c <g_1649+0xba4>
    f1df:	48 89 cf             	mov    %rcx,%rdi
    f1e2:	e8 0c 85 ff ff       	callq  76f3 <transparent_crc>
    f1e7:	8b 45 f8             	mov    -0x8(%rbp),%eax
    f1ea:	48 63 f0             	movslq %eax,%rsi
    f1ed:	8b 45 f0             	mov    -0x10(%rbp),%eax
    f1f0:	48 63 d0             	movslq %eax,%rdx
    f1f3:	8b 45 f4             	mov    -0xc(%rbp),%eax
    f1f6:	48 63 c8             	movslq %eax,%rcx
    f1f9:	48 89 d0             	mov    %rdx,%rax
    f1fc:	48 c1 e0 02          	shl    $0x2,%rax
    f200:	48 01 d0             	add    %rdx,%rax
    f203:	48 c1 e0 02          	shl    $0x2,%rax
    f207:	48 01 d0             	add    %rdx,%rax
    f20a:	48 89 ca             	mov    %rcx,%rdx
    f20d:	48 c1 e2 03          	shl    $0x3,%rdx
    f211:	48 29 ca             	sub    %rcx,%rdx
    f214:	48 01 d0             	add    %rdx,%rax
    f217:	48 01 f0             	add    %rsi,%rax
    f21a:	48 c1 e0 04          	shl    $0x4,%rax
    f21e:	48 89 c2             	mov    %rax,%rdx
    f221:	48 8d 05 de 5f 00 00 	lea    0x5fde(%rip),%rax        # 15206 <g_223+0x6>
    f228:	0f b7 04 02          	movzwl (%rdx,%rax,1),%eax
    f22c:	48 0f bf c0          	movswq %ax,%rax
    f230:	8b 55 fc             	mov    -0x4(%rbp),%edx
    f233:	48 8d 35 f4 29 00 00 	lea    0x29f4(%rip),%rsi        # 11c2e <g_1649+0xbb6>
    f23a:	48 89 c7             	mov    %rax,%rdi
    f23d:	e8 b1 84 ff ff       	callq  76f3 <transparent_crc>
    f242:	8b 45 f8             	mov    -0x8(%rbp),%eax
    f245:	48 63 f0             	movslq %eax,%rsi
    f248:	8b 45 f0             	mov    -0x10(%rbp),%eax
    f24b:	48 63 d0             	movslq %eax,%rdx
    f24e:	8b 45 f4             	mov    -0xc(%rbp),%eax
    f251:	48 63 c8             	movslq %eax,%rcx
    f254:	48 89 d0             	mov    %rdx,%rax
    f257:	48 c1 e0 02          	shl    $0x2,%rax
    f25b:	48 01 d0             	add    %rdx,%rax
    f25e:	48 c1 e0 02          	shl    $0x2,%rax
    f262:	48 01 d0             	add    %rdx,%rax
    f265:	48 89 ca             	mov    %rcx,%rdx
    f268:	48 c1 e2 03          	shl    $0x3,%rdx
    f26c:	48 29 ca             	sub    %rcx,%rdx
    f26f:	48 01 d0             	add    %rdx,%rax
    f272:	48 01 f0             	add    %rsi,%rax
    f275:	48 c1 e0 04          	shl    $0x4,%rax
    f279:	48 89 c2             	mov    %rax,%rdx
    f27c:	48 8d 05 85 5f 00 00 	lea    0x5f85(%rip),%rax        # 15208 <g_223+0x8>
    f283:	48 8b 04 02          	mov    (%rdx,%rax,1),%rax
    f287:	48 89 c1             	mov    %rax,%rcx
    f28a:	8b 45 fc             	mov    -0x4(%rbp),%eax
    f28d:	89 c2                	mov    %eax,%edx
    f28f:	48 8d 35 aa 29 00 00 	lea    0x29aa(%rip),%rsi        # 11c40 <g_1649+0xbc8>
    f296:	48 89 cf             	mov    %rcx,%rdi
    f299:	e8 55 84 ff ff       	callq  76f3 <transparent_crc>
    f29e:	83 7d fc 00          	cmpl   $0x0,-0x4(%rbp)
    f2a2:	74 1c                	je     f2c0 <main+0x698>
    f2a4:	8b 4d f8             	mov    -0x8(%rbp),%ecx
    f2a7:	8b 55 f4             	mov    -0xc(%rbp),%edx
    f2aa:	8b 45 f0             	mov    -0x10(%rbp),%eax
    f2ad:	89 c6                	mov    %eax,%esi
    f2af:	48 8d 3d 86 28 00 00 	lea    0x2886(%rip),%rdi        # 11b3c <g_1649+0xac4>
    f2b6:	b8 00 00 00 00       	mov    $0x0,%eax
    f2bb:	e8 c0 6d ff ff       	callq  6080 <printf@plt>
    f2c0:	83 45 f8 01          	addl   $0x1,-0x8(%rbp)
    f2c4:	83 7d f8 06          	cmpl   $0x6,-0x8(%rbp)
    f2c8:	0f 8e 5c fe ff ff    	jle    f12a <main+0x502>
    f2ce:	83 45 f4 01          	addl   $0x1,-0xc(%rbp)
    f2d2:	83 7d f4 02          	cmpl   $0x2,-0xc(%rbp)
    f2d6:	0f 8e 42 fe ff ff    	jle    f11e <main+0x4f6>
    f2dc:	83 45 f0 01          	addl   $0x1,-0x10(%rbp)
    f2e0:	83 7d f0 02          	cmpl   $0x2,-0x10(%rbp)
    f2e4:	0f 8e 28 fe ff ff    	jle    f112 <main+0x4ea>
    f2ea:	48 8b 05 ff 62 00 00 	mov    0x62ff(%rip),%rax        # 155f0 <g_224>
    f2f1:	c1 e0 03             	shl    $0x3,%eax
    f2f4:	66 c1 f8 03          	sar    $0x3,%ax
    f2f8:	48 0f bf c0          	movswq %ax,%rax
    f2fc:	8b 55 fc             	mov    -0x4(%rbp),%edx
    f2ff:	48 8d 35 4c 29 00 00 	lea    0x294c(%rip),%rsi        # 11c52 <g_1649+0xbda>
    f306:	48 89 c7             	mov    %rax,%rdi
    f309:	e8 e5 83 ff ff       	callq  76f3 <transparent_crc>
    f30e:	8b 05 de 62 00 00    	mov    0x62de(%rip),%eax        # 155f2 <g_224+0x2>
    f314:	89 c1                	mov    %eax,%ecx
    f316:	8b 45 fc             	mov    -0x4(%rbp),%eax
    f319:	89 c2                	mov    %eax,%edx
    f31b:	48 8d 35 39 29 00 00 	lea    0x2939(%rip),%rsi        # 11c5b <g_1649+0xbe3>
    f322:	48 89 cf             	mov    %rcx,%rdi
    f325:	e8 c9 83 ff ff       	callq  76f3 <transparent_crc>
    f32a:	0f b7 05 c5 62 00 00 	movzwl 0x62c5(%rip),%eax        # 155f6 <g_224+0x6>
    f331:	48 0f bf c0          	movswq %ax,%rax
    f335:	8b 55 fc             	mov    -0x4(%rbp),%edx
    f338:	48 8d 35 25 29 00 00 	lea    0x2925(%rip),%rsi        # 11c64 <g_1649+0xbec>
    f33f:	48 89 c7             	mov    %rax,%rdi
    f342:	e8 ac 83 ff ff       	callq  76f3 <transparent_crc>
    f347:	48 8b 05 aa 62 00 00 	mov    0x62aa(%rip),%rax        # 155f8 <g_224+0x8>
    f34e:	48 89 c1             	mov    %rax,%rcx
    f351:	8b 45 fc             	mov    -0x4(%rbp),%eax
    f354:	89 c2                	mov    %eax,%edx
    f356:	48 8d 35 10 29 00 00 	lea    0x2910(%rip),%rsi        # 11c6d <g_1649+0xbf5>
    f35d:	48 89 cf             	mov    %rcx,%rdi
    f360:	e8 8e 83 ff ff       	callq  76f3 <transparent_crc>
    f365:	48 8b 05 94 62 00 00 	mov    0x6294(%rip),%rax        # 15600 <g_227>
    f36c:	c1 e0 03             	shl    $0x3,%eax
    f36f:	66 c1 f8 03          	sar    $0x3,%ax
    f373:	48 0f bf c0          	movswq %ax,%rax
    f377:	8b 55 fc             	mov    -0x4(%rbp),%edx
    f37a:	48 8d 35 f5 28 00 00 	lea    0x28f5(%rip),%rsi        # 11c76 <g_1649+0xbfe>
    f381:	48 89 c7             	mov    %rax,%rdi
    f384:	e8 6a 83 ff ff       	callq  76f3 <transparent_crc>
    f389:	8b 05 73 62 00 00    	mov    0x6273(%rip),%eax        # 15602 <g_227+0x2>
    f38f:	89 c1                	mov    %eax,%ecx
    f391:	8b 45 fc             	mov    -0x4(%rbp),%eax
    f394:	89 c2                	mov    %eax,%edx
    f396:	48 8d 35 e2 28 00 00 	lea    0x28e2(%rip),%rsi        # 11c7f <g_1649+0xc07>
    f39d:	48 89 cf             	mov    %rcx,%rdi
    f3a0:	e8 4e 83 ff ff       	callq  76f3 <transparent_crc>
    f3a5:	0f b7 05 5a 62 00 00 	movzwl 0x625a(%rip),%eax        # 15606 <g_227+0x6>
    f3ac:	48 0f bf c0          	movswq %ax,%rax
    f3b0:	8b 55 fc             	mov    -0x4(%rbp),%edx
    f3b3:	48 8d 35 ce 28 00 00 	lea    0x28ce(%rip),%rsi        # 11c88 <g_1649+0xc10>
    f3ba:	48 89 c7             	mov    %rax,%rdi
    f3bd:	e8 31 83 ff ff       	callq  76f3 <transparent_crc>
    f3c2:	48 8b 05 3f 62 00 00 	mov    0x623f(%rip),%rax        # 15608 <g_227+0x8>
    f3c9:	48 89 c1             	mov    %rax,%rcx
    f3cc:	8b 45 fc             	mov    -0x4(%rbp),%eax
    f3cf:	89 c2                	mov    %eax,%edx
    f3d1:	48 8d 35 b9 28 00 00 	lea    0x28b9(%rip),%rsi        # 11c91 <g_1649+0xc19>
    f3d8:	48 89 cf             	mov    %rcx,%rdi
    f3db:	e8 13 83 ff ff       	callq  76f3 <transparent_crc>
    f3e0:	48 8b 05 29 62 00 00 	mov    0x6229(%rip),%rax        # 15610 <g_230>
    f3e7:	48 89 c1             	mov    %rax,%rcx
    f3ea:	8b 45 fc             	mov    -0x4(%rbp),%eax
    f3ed:	89 c2                	mov    %eax,%edx
    f3ef:	48 8d 35 a4 28 00 00 	lea    0x28a4(%rip),%rsi        # 11c9a <g_1649+0xc22>
    f3f6:	48 89 cf             	mov    %rcx,%rdi
    f3f9:	e8 f5 82 ff ff       	callq  76f3 <transparent_crc>
    f3fe:	c7 45 f0 00 00 00 00 	movl   $0x0,-0x10(%rbp)
    f405:	e9 46 01 00 00       	jmpq   f550 <main+0x928>
    f40a:	8b 45 f0             	mov    -0x10(%rbp),%eax
    f40d:	48 63 d0             	movslq %eax,%rdx
    f410:	48 89 d0             	mov    %rdx,%rax
    f413:	48 c1 e0 02          	shl    $0x2,%rax
    f417:	48 01 d0             	add    %rdx,%rax
    f41a:	48 01 c0             	add    %rax,%rax
    f41d:	48 01 d0             	add    %rdx,%rax
    f420:	48 01 c0             	add    %rax,%rax
    f423:	48 89 c2             	mov    %rax,%rdx
    f426:	48 8d 05 f3 61 00 00 	lea    0x61f3(%rip),%rax        # 15620 <g_272>
    f42d:	48 8b 04 02          	mov    (%rdx,%rax,1),%rax
    f431:	8b 55 fc             	mov    -0x4(%rbp),%edx
    f434:	48 8d 35 65 28 00 00 	lea    0x2865(%rip),%rsi        # 11ca0 <g_1649+0xc28>
    f43b:	48 89 c7             	mov    %rax,%rdi
    f43e:	e8 b0 82 ff ff       	callq  76f3 <transparent_crc>
    f443:	8b 45 f0             	mov    -0x10(%rbp),%eax
    f446:	48 63 d0             	movslq %eax,%rdx
    f449:	48 89 d0             	mov    %rdx,%rax
    f44c:	48 c1 e0 02          	shl    $0x2,%rax
    f450:	48 01 d0             	add    %rdx,%rax
    f453:	48 01 c0             	add    %rax,%rax
    f456:	48 01 d0             	add    %rdx,%rax
    f459:	48 01 c0             	add    %rax,%rax
    f45c:	48 89 c2             	mov    %rax,%rdx
    f45f:	48 8d 05 c2 61 00 00 	lea    0x61c2(%rip),%rax        # 15628 <g_272+0x8>
    f466:	0f b6 04 02          	movzbl (%rdx,%rax,1),%eax
    f46a:	0f b6 c0             	movzbl %al,%eax
    f46d:	8b 55 fc             	mov    -0x4(%rbp),%edx
    f470:	48 8d 35 35 28 00 00 	lea    0x2835(%rip),%rsi        # 11cac <g_1649+0xc34>
    f477:	48 89 c7             	mov    %rax,%rdi
    f47a:	e8 74 82 ff ff       	callq  76f3 <transparent_crc>
    f47f:	8b 45 f0             	mov    -0x10(%rbp),%eax
    f482:	48 63 d0             	movslq %eax,%rdx
    f485:	48 89 d0             	mov    %rdx,%rax
    f488:	48 c1 e0 02          	shl    $0x2,%rax
    f48c:	48 01 d0             	add    %rdx,%rax
    f48f:	48 01 c0             	add    %rax,%rax
    f492:	48 01 d0             	add    %rdx,%rax
    f495:	48 01 c0             	add    %rax,%rax
    f498:	48 89 c2             	mov    %rax,%rdx
    f49b:	48 8d 05 87 61 00 00 	lea    0x6187(%rip),%rax        # 15629 <g_272+0x9>
    f4a2:	0f b6 04 02          	movzbl (%rdx,%rax,1),%eax
    f4a6:	0f b6 c0             	movzbl %al,%eax
    f4a9:	8b 55 fc             	mov    -0x4(%rbp),%edx
    f4ac:	48 8d 35 05 28 00 00 	lea    0x2805(%rip),%rsi        # 11cb8 <g_1649+0xc40>
    f4b3:	48 89 c7             	mov    %rax,%rdi
    f4b6:	e8 38 82 ff ff       	callq  76f3 <transparent_crc>
    f4bb:	8b 45 f0             	mov    -0x10(%rbp),%eax
    f4be:	48 63 d0             	movslq %eax,%rdx
    f4c1:	48 89 d0             	mov    %rdx,%rax
    f4c4:	48 c1 e0 02          	shl    $0x2,%rax
    f4c8:	48 01 d0             	add    %rdx,%rax
    f4cb:	48 01 c0             	add    %rax,%rax
    f4ce:	48 01 d0             	add    %rdx,%rax
    f4d1:	48 01 c0             	add    %rax,%rax
    f4d4:	48 89 c2             	mov    %rax,%rdx
    f4d7:	48 8d 05 42 61 00 00 	lea    0x6142(%rip),%rax        # 15620 <g_272>
    f4de:	8b 44 02 0a          	mov    0xa(%rdx,%rax,1),%eax
    f4e2:	48 98                	cltq   
    f4e4:	8b 55 fc             	mov    -0x4(%rbp),%edx
    f4e7:	48 8d 35 d6 27 00 00 	lea    0x27d6(%rip),%rsi        # 11cc4 <g_1649+0xc4c>
    f4ee:	48 89 c7             	mov    %rax,%rdi
    f4f1:	e8 fd 81 ff ff       	callq  76f3 <transparent_crc>
    f4f6:	8b 45 f0             	mov    -0x10(%rbp),%eax
    f4f9:	48 63 d0             	movslq %eax,%rdx
    f4fc:	48 89 d0             	mov    %rdx,%rax
    f4ff:	48 c1 e0 02          	shl    $0x2,%rax
    f503:	48 01 d0             	add    %rdx,%rax
    f506:	48 01 c0             	add    %rax,%rax
    f509:	48 01 d0             	add    %rdx,%rax
    f50c:	48 01 c0             	add    %rax,%rax
    f50f:	48 89 c2             	mov    %rax,%rdx
    f512:	48 8d 05 07 61 00 00 	lea    0x6107(%rip),%rax        # 15620 <g_272>
    f519:	48 8b 44 02 0e       	mov    0xe(%rdx,%rax,1),%rax
    f51e:	8b 55 fc             	mov    -0x4(%rbp),%edx
    f521:	48 8d 35 a8 27 00 00 	lea    0x27a8(%rip),%rsi        # 11cd0 <g_1649+0xc58>
    f528:	48 89 c7             	mov    %rax,%rdi
    f52b:	e8 c3 81 ff ff       	callq  76f3 <transparent_crc>
    f530:	83 7d fc 00          	cmpl   $0x0,-0x4(%rbp)
    f534:	74 16                	je     f54c <main+0x924>
    f536:	8b 45 f0             	mov    -0x10(%rbp),%eax
    f539:	89 c6                	mov    %eax,%esi
    f53b:	48 8d 3d 3f 26 00 00 	lea    0x263f(%rip),%rdi        # 11b81 <g_1649+0xb09>
    f542:	b8 00 00 00 00       	mov    $0x0,%eax
    f547:	e8 34 6b ff ff       	callq  6080 <printf@plt>
    f54c:	83 45 f0 01          	addl   $0x1,-0x10(%rbp)
    f550:	83 7d f0 05          	cmpl   $0x5,-0x10(%rbp)
    f554:	0f 8e b0 fe ff ff    	jle    f40a <main+0x7e2>
    f55a:	0f b7 05 43 61 00 00 	movzwl 0x6143(%rip),%eax        # 156a4 <g_283>
    f561:	48 0f bf c0          	movswq %ax,%rax
    f565:	8b 55 fc             	mov    -0x4(%rbp),%edx
    f568:	48 8d 35 6d 27 00 00 	lea    0x276d(%rip),%rsi        # 11cdc <g_1649+0xc64>
    f56f:	48 89 c7             	mov    %rax,%rdi
    f572:	e8 7c 81 ff ff       	callq  76f3 <transparent_crc>
    f577:	c7 45 f0 00 00 00 00 	movl   $0x0,-0x10(%rbp)
    f57e:	eb 4d                	jmp    f5cd <main+0x9a5>
    f580:	8b 45 f0             	mov    -0x10(%rbp),%eax
    f583:	48 98                	cltq   
    f585:	48 8d 14 85 00 00 00 	lea    0x0(,%rax,4),%rdx
    f58c:	00 
    f58d:	48 8d 05 1c 61 00 00 	lea    0x611c(%rip),%rax        # 156b0 <g_285>
    f594:	8b 04 02             	mov    (%rdx,%rax,1),%eax
    f597:	89 c1                	mov    %eax,%ecx
    f599:	8b 45 fc             	mov    -0x4(%rbp),%eax
    f59c:	89 c2                	mov    %eax,%edx
    f59e:	48 8d 35 3d 27 00 00 	lea    0x273d(%rip),%rsi        # 11ce2 <g_1649+0xc6a>
    f5a5:	48 89 cf             	mov    %rcx,%rdi
    f5a8:	e8 46 81 ff ff       	callq  76f3 <transparent_crc>
    f5ad:	83 7d fc 00          	cmpl   $0x0,-0x4(%rbp)
    f5b1:	74 16                	je     f5c9 <main+0x9a1>
    f5b3:	8b 45 f0             	mov    -0x10(%rbp),%eax
    f5b6:	89 c6                	mov    %eax,%esi
    f5b8:	48 8d 3d c2 25 00 00 	lea    0x25c2(%rip),%rdi        # 11b81 <g_1649+0xb09>
    f5bf:	b8 00 00 00 00       	mov    $0x0,%eax
    f5c4:	e8 b7 6a ff ff       	callq  6080 <printf@plt>
    f5c9:	83 45 f0 01          	addl   $0x1,-0x10(%rbp)
    f5cd:	83 7d f0 06          	cmpl   $0x6,-0x10(%rbp)
    f5d1:	7e ad                	jle    f580 <main+0x958>
    f5d3:	0f b7 05 f2 60 00 00 	movzwl 0x60f2(%rip),%eax        # 156cc <g_293>
    f5da:	0f b7 c0             	movzwl %ax,%eax
    f5dd:	8b 55 fc             	mov    -0x4(%rbp),%edx
    f5e0:	48 8d 35 04 27 00 00 	lea    0x2704(%rip),%rsi        # 11ceb <g_1649+0xc73>
    f5e7:	48 89 c7             	mov    %rax,%rdi
    f5ea:	e8 04 81 ff ff       	callq  76f3 <transparent_crc>
    f5ef:	8b 05 43 9b 00 00    	mov    0x9b43(%rip),%eax        # 19138 <g_384>
    f5f5:	89 c1                	mov    %eax,%ecx
    f5f7:	8b 45 fc             	mov    -0x4(%rbp),%eax
    f5fa:	89 c2                	mov    %eax,%edx
    f5fc:	48 8d 35 ee 26 00 00 	lea    0x26ee(%rip),%rsi        # 11cf1 <g_1649+0xc79>
    f603:	48 89 cf             	mov    %rcx,%rdi
    f606:	e8 e8 80 ff ff       	callq  76f3 <transparent_crc>
    f60b:	48 8b 05 be 60 00 00 	mov    0x60be(%rip),%rax        # 156d0 <g_437>
    f612:	48 89 c1             	mov    %rax,%rcx
    f615:	8b 45 fc             	mov    -0x4(%rbp),%eax
    f618:	89 c2                	mov    %eax,%edx
    f61a:	48 8d 35 d6 26 00 00 	lea    0x26d6(%rip),%rsi        # 11cf7 <g_1649+0xc7f>
    f621:	48 89 cf             	mov    %rcx,%rdi
    f624:	e8 ca 80 ff ff       	callq  76f3 <transparent_crc>
    f629:	8b 05 a9 60 00 00    	mov    0x60a9(%rip),%eax        # 156d8 <g_441>
    f62f:	89 c1                	mov    %eax,%ecx
    f631:	8b 45 fc             	mov    -0x4(%rbp),%eax
    f634:	89 c2                	mov    %eax,%edx
    f636:	48 8d 35 c0 26 00 00 	lea    0x26c0(%rip),%rsi        # 11cfd <g_1649+0xc85>
    f63d:	48 89 cf             	mov    %rcx,%rdi
    f640:	e8 ae 80 ff ff       	callq  76f3 <transparent_crc>
    f645:	8b 05 91 60 00 00    	mov    0x6091(%rip),%eax        # 156dc <g_516>
    f64b:	89 c1                	mov    %eax,%ecx
    f64d:	8b 45 fc             	mov    -0x4(%rbp),%eax
    f650:	89 c2                	mov    %eax,%edx
    f652:	48 8d 35 aa 26 00 00 	lea    0x26aa(%rip),%rsi        # 11d03 <g_1649+0xc8b>
    f659:	48 89 cf             	mov    %rcx,%rdi
    f65c:	e8 92 80 ff ff       	callq  76f3 <transparent_crc>
    f661:	8b 05 d5 9a 00 00    	mov    0x9ad5(%rip),%eax        # 1913c <g_539>
    f667:	89 c1                	mov    %eax,%ecx
    f669:	8b 45 fc             	mov    -0x4(%rbp),%eax
    f66c:	89 c2                	mov    %eax,%edx
    f66e:	48 8d 35 94 26 00 00 	lea    0x2694(%rip),%rsi        # 11d09 <g_1649+0xc91>
    f675:	48 89 cf             	mov    %rcx,%rdi
    f678:	e8 76 80 ff ff       	callq  76f3 <transparent_crc>
    f67d:	8b 05 5d 60 00 00    	mov    0x605d(%rip),%eax        # 156e0 <g_540>
    f683:	89 c1                	mov    %eax,%ecx
    f685:	8b 45 fc             	mov    -0x4(%rbp),%eax
    f688:	89 c2                	mov    %eax,%edx
    f68a:	48 8d 35 7e 26 00 00 	lea    0x267e(%rip),%rsi        # 11d0f <g_1649+0xc97>
    f691:	48 89 cf             	mov    %rcx,%rdi
    f694:	e8 5a 80 ff ff       	callq  76f3 <transparent_crc>
    f699:	8b 05 45 60 00 00    	mov    0x6045(%rip),%eax        # 156e4 <g_541>
    f69f:	89 c1                	mov    %eax,%ecx
    f6a1:	8b 45 fc             	mov    -0x4(%rbp),%eax
    f6a4:	89 c2                	mov    %eax,%edx
    f6a6:	48 8d 35 68 26 00 00 	lea    0x2668(%rip),%rsi        # 11d15 <g_1649+0xc9d>
    f6ad:	48 89 cf             	mov    %rcx,%rdi
    f6b0:	e8 3e 80 ff ff       	callq  76f3 <transparent_crc>
    f6b5:	8b 05 2d 60 00 00    	mov    0x602d(%rip),%eax        # 156e8 <g_542>
    f6bb:	89 c1                	mov    %eax,%ecx
    f6bd:	8b 45 fc             	mov    -0x4(%rbp),%eax
    f6c0:	89 c2                	mov    %eax,%edx
    f6c2:	48 8d 35 52 26 00 00 	lea    0x2652(%rip),%rsi        # 11d1b <g_1649+0xca3>
    f6c9:	48 89 cf             	mov    %rcx,%rdi
    f6cc:	e8 22 80 ff ff       	callq  76f3 <transparent_crc>
    f6d1:	c7 45 f0 00 00 00 00 	movl   $0x0,-0x10(%rbp)
    f6d8:	eb 4d                	jmp    f727 <main+0xaff>
    f6da:	8b 45 f0             	mov    -0x10(%rbp),%eax
    f6dd:	48 98                	cltq   
    f6df:	48 8d 14 85 00 00 00 	lea    0x0(,%rax,4),%rdx
    f6e6:	00 
    f6e7:	48 8d 05 12 60 00 00 	lea    0x6012(%rip),%rax        # 15700 <g_543>
    f6ee:	8b 04 02             	mov    (%rdx,%rax,1),%eax
    f6f1:	89 c1                	mov    %eax,%ecx
    f6f3:	8b 45 fc             	mov    -0x4(%rbp),%eax
    f6f6:	89 c2                	mov    %eax,%edx
    f6f8:	48 8d 35 22 26 00 00 	lea    0x2622(%rip),%rsi        # 11d21 <g_1649+0xca9>
    f6ff:	48 89 cf             	mov    %rcx,%rdi
    f702:	e8 ec 7f ff ff       	callq  76f3 <transparent_crc>
    f707:	83 7d fc 00          	cmpl   $0x0,-0x4(%rbp)
    f70b:	74 16                	je     f723 <main+0xafb>
    f70d:	8b 45 f0             	mov    -0x10(%rbp),%eax
    f710:	89 c6                	mov    %eax,%esi
    f712:	48 8d 3d 68 24 00 00 	lea    0x2468(%rip),%rdi        # 11b81 <g_1649+0xb09>
    f719:	b8 00 00 00 00       	mov    $0x0,%eax
    f71e:	e8 5d 69 ff ff       	callq  6080 <printf@plt>
    f723:	83 45 f0 01          	addl   $0x1,-0x10(%rbp)
    f727:	83 7d f0 09          	cmpl   $0x9,-0x10(%rbp)
    f72b:	7e ad                	jle    f6da <main+0xab2>
    f72d:	8b 05 f5 5f 00 00    	mov    0x5ff5(%rip),%eax        # 15728 <g_544>
    f733:	89 c1                	mov    %eax,%ecx
    f735:	8b 45 fc             	mov    -0x4(%rbp),%eax
    f738:	89 c2                	mov    %eax,%edx
    f73a:	48 8d 35 e9 25 00 00 	lea    0x25e9(%rip),%rsi        # 11d2a <g_1649+0xcb2>
    f741:	48 89 cf             	mov    %rcx,%rdi
    f744:	e8 aa 7f ff ff       	callq  76f3 <transparent_crc>
    f749:	8b 05 dd 5f 00 00    	mov    0x5fdd(%rip),%eax        # 1572c <g_545>
    f74f:	89 c1                	mov    %eax,%ecx
    f751:	8b 45 fc             	mov    -0x4(%rbp),%eax
    f754:	89 c2                	mov    %eax,%edx
    f756:	48 8d 35 d3 25 00 00 	lea    0x25d3(%rip),%rsi        # 11d30 <g_1649+0xcb8>
    f75d:	48 89 cf             	mov    %rcx,%rdi
    f760:	e8 8e 7f ff ff       	callq  76f3 <transparent_crc>
    f765:	c7 45 f0 00 00 00 00 	movl   $0x0,-0x10(%rbp)
    f76c:	eb 4d                	jmp    f7bb <main+0xb93>
    f76e:	8b 45 f0             	mov    -0x10(%rbp),%eax
    f771:	48 98                	cltq   
    f773:	48 8d 14 85 00 00 00 	lea    0x0(,%rax,4),%rdx
    f77a:	00 
    f77b:	48 8d 05 be 5f 00 00 	lea    0x5fbe(%rip),%rax        # 15740 <g_546>
    f782:	8b 04 02             	mov    (%rdx,%rax,1),%eax
    f785:	89 c1                	mov    %eax,%ecx
    f787:	8b 45 fc             	mov    -0x4(%rbp),%eax
    f78a:	89 c2                	mov    %eax,%edx
    f78c:	48 8d 35 a3 25 00 00 	lea    0x25a3(%rip),%rsi        # 11d36 <g_1649+0xcbe>
    f793:	48 89 cf             	mov    %rcx,%rdi
    f796:	e8 58 7f ff ff       	callq  76f3 <transparent_crc>
    f79b:	83 7d fc 00          	cmpl   $0x0,-0x4(%rbp)
    f79f:	74 16                	je     f7b7 <main+0xb8f>
    f7a1:	8b 45 f0             	mov    -0x10(%rbp),%eax
    f7a4:	89 c6                	mov    %eax,%esi
    f7a6:	48 8d 3d d4 23 00 00 	lea    0x23d4(%rip),%rdi        # 11b81 <g_1649+0xb09>
    f7ad:	b8 00 00 00 00       	mov    $0x0,%eax
    f7b2:	e8 c9 68 ff ff       	callq  6080 <printf@plt>
    f7b7:	83 45 f0 01          	addl   $0x1,-0x10(%rbp)
    f7bb:	83 7d f0 07          	cmpl   $0x7,-0x10(%rbp)
    f7bf:	7e ad                	jle    f76e <main+0xb46>
    f7c1:	8b 05 99 5f 00 00    	mov    0x5f99(%rip),%eax        # 15760 <g_547>
    f7c7:	89 c1                	mov    %eax,%ecx
    f7c9:	8b 45 fc             	mov    -0x4(%rbp),%eax
    f7cc:	89 c2                	mov    %eax,%edx
    f7ce:	48 8d 35 6a 25 00 00 	lea    0x256a(%rip),%rsi        # 11d3f <g_1649+0xcc7>
    f7d5:	48 89 cf             	mov    %rcx,%rdi
    f7d8:	e8 16 7f ff ff       	callq  76f3 <transparent_crc>
    f7dd:	c7 45 f0 00 00 00 00 	movl   $0x0,-0x10(%rbp)
    f7e4:	eb 77                	jmp    f85d <main+0xc35>
    f7e6:	c7 45 f4 00 00 00 00 	movl   $0x0,-0xc(%rbp)
    f7ed:	eb 64                	jmp    f853 <main+0xc2b>
    f7ef:	8b 45 f4             	mov    -0xc(%rbp),%eax
    f7f2:	48 63 c8             	movslq %eax,%rcx
    f7f5:	8b 45 f0             	mov    -0x10(%rbp),%eax
    f7f8:	48 63 d0             	movslq %eax,%rdx
    f7fb:	48 89 d0             	mov    %rdx,%rax
    f7fe:	48 c1 e0 03          	shl    $0x3,%rax
    f802:	48 29 d0             	sub    %rdx,%rax
    f805:	48 01 c8             	add    %rcx,%rax
    f808:	48 8d 14 85 00 00 00 	lea    0x0(,%rax,4),%rdx
    f80f:	00 
    f810:	48 8d 05 69 5f 00 00 	lea    0x5f69(%rip),%rax        # 15780 <g_550>
    f817:	8b 04 02             	mov    (%rdx,%rax,1),%eax
    f81a:	89 c1                	mov    %eax,%ecx
    f81c:	8b 45 fc             	mov    -0x4(%rbp),%eax
    f81f:	89 c2                	mov    %eax,%edx
    f821:	48 8d 35 1d 25 00 00 	lea    0x251d(%rip),%rsi        # 11d45 <g_1649+0xccd>
    f828:	48 89 cf             	mov    %rcx,%rdi
    f82b:	e8 c3 7e ff ff       	callq  76f3 <transparent_crc>
    f830:	83 7d fc 00          	cmpl   $0x0,-0x4(%rbp)
    f834:	74 19                	je     f84f <main+0xc27>
    f836:	8b 55 f4             	mov    -0xc(%rbp),%edx
    f839:	8b 45 f0             	mov    -0x10(%rbp),%eax
    f83c:	89 c6                	mov    %eax,%esi
    f83e:	48 8d 3d 0c 25 00 00 	lea    0x250c(%rip),%rdi        # 11d51 <g_1649+0xcd9>
    f845:	b8 00 00 00 00       	mov    $0x0,%eax
    f84a:	e8 31 68 ff ff       	callq  6080 <printf@plt>
    f84f:	83 45 f4 01          	addl   $0x1,-0xc(%rbp)
    f853:	83 7d f4 06          	cmpl   $0x6,-0xc(%rbp)
    f857:	7e 96                	jle    f7ef <main+0xbc7>
    f859:	83 45 f0 01          	addl   $0x1,-0x10(%rbp)
    f85d:	83 7d f0 06          	cmpl   $0x6,-0x10(%rbp)
    f861:	7e 83                	jle    f7e6 <main+0xbbe>
    f863:	c7 45 f0 00 00 00 00 	movl   $0x0,-0x10(%rbp)
    f86a:	eb 77                	jmp    f8e3 <main+0xcbb>
    f86c:	c7 45 f4 00 00 00 00 	movl   $0x0,-0xc(%rbp)
    f873:	eb 64                	jmp    f8d9 <main+0xcb1>
    f875:	8b 45 f4             	mov    -0xc(%rbp),%eax
    f878:	48 63 c8             	movslq %eax,%rcx
    f87b:	8b 45 f0             	mov    -0x10(%rbp),%eax
    f87e:	48 63 d0             	movslq %eax,%rdx
    f881:	48 89 d0             	mov    %rdx,%rax
    f884:	48 c1 e0 03          	shl    $0x3,%rax
    f888:	48 29 d0             	sub    %rdx,%rax
    f88b:	48 01 c8             	add    %rcx,%rax
    f88e:	48 8d 14 85 00 00 00 	lea    0x0(,%rax,4),%rdx
    f895:	00 
    f896:	48 8d 05 c3 5f 00 00 	lea    0x5fc3(%rip),%rax        # 15860 <g_551>
    f89d:	8b 04 02             	mov    (%rdx,%rax,1),%eax
    f8a0:	89 c1                	mov    %eax,%ecx
    f8a2:	8b 45 fc             	mov    -0x4(%rbp),%eax
    f8a5:	89 c2                	mov    %eax,%edx
    f8a7:	48 8d 35 b5 24 00 00 	lea    0x24b5(%rip),%rsi        # 11d63 <g_1649+0xceb>
    f8ae:	48 89 cf             	mov    %rcx,%rdi
    f8b1:	e8 3d 7e ff ff       	callq  76f3 <transparent_crc>
    f8b6:	83 7d fc 00          	cmpl   $0x0,-0x4(%rbp)
    f8ba:	74 19                	je     f8d5 <main+0xcad>
    f8bc:	8b 55 f4             	mov    -0xc(%rbp),%edx
    f8bf:	8b 45 f0             	mov    -0x10(%rbp),%eax
    f8c2:	89 c6                	mov    %eax,%esi
    f8c4:	48 8d 3d 86 24 00 00 	lea    0x2486(%rip),%rdi        # 11d51 <g_1649+0xcd9>
    f8cb:	b8 00 00 00 00       	mov    $0x0,%eax
    f8d0:	e8 ab 67 ff ff       	callq  6080 <printf@plt>
    f8d5:	83 45 f4 01          	addl   $0x1,-0xc(%rbp)
    f8d9:	83 7d f4 06          	cmpl   $0x6,-0xc(%rbp)
    f8dd:	7e 96                	jle    f875 <main+0xc4d>
    f8df:	83 45 f0 01          	addl   $0x1,-0x10(%rbp)
    f8e3:	83 7d f0 07          	cmpl   $0x7,-0x10(%rbp)
    f8e7:	7e 83                	jle    f86c <main+0xc44>
    f8e9:	8b 05 51 60 00 00    	mov    0x6051(%rip),%eax        # 15940 <g_596>
    f8ef:	48 98                	cltq   
    f8f1:	8b 55 fc             	mov    -0x4(%rbp),%edx
    f8f4:	48 8d 35 74 24 00 00 	lea    0x2474(%rip),%rsi        # 11d6f <g_1649+0xcf7>
    f8fb:	48 89 c7             	mov    %rax,%rdi
    f8fe:	e8 f0 7d ff ff       	callq  76f3 <transparent_crc>
    f903:	8b 05 3b 60 00 00    	mov    0x603b(%rip),%eax        # 15944 <g_599>
    f909:	48 98                	cltq   
    f90b:	8b 55 fc             	mov    -0x4(%rbp),%edx
    f90e:	48 8d 35 60 24 00 00 	lea    0x2460(%rip),%rsi        # 11d75 <g_1649+0xcfd>
    f915:	48 89 c7             	mov    %rax,%rdi
    f918:	e8 d6 7d ff ff       	callq  76f3 <transparent_crc>
    f91d:	0f b6 05 24 60 00 00 	movzbl 0x6024(%rip),%eax        # 15948 <g_715>
    f924:	48 0f be c0          	movsbq %al,%rax
    f928:	8b 55 fc             	mov    -0x4(%rbp),%edx
    f92b:	48 8d 35 49 24 00 00 	lea    0x2449(%rip),%rsi        # 11d7b <g_1649+0xd03>
    f932:	48 89 c7             	mov    %rax,%rdi
    f935:	e8 b9 7d ff ff       	callq  76f3 <transparent_crc>
    f93a:	48 8b 05 0f 60 00 00 	mov    0x600f(%rip),%rax        # 15950 <g_829>
    f941:	8b 55 fc             	mov    -0x4(%rbp),%edx
    f944:	48 8d 35 36 24 00 00 	lea    0x2436(%rip),%rsi        # 11d81 <g_1649+0xd09>
    f94b:	48 89 c7             	mov    %rax,%rdi
    f94e:	e8 a0 7d ff ff       	callq  76f3 <transparent_crc>
    f953:	c7 45 f0 00 00 00 00 	movl   $0x0,-0x10(%rbp)
    f95a:	e9 2d 01 00 00       	jmpq   fa8c <main+0xe64>
    f95f:	c7 45 f4 00 00 00 00 	movl   $0x0,-0xc(%rbp)
    f966:	e9 13 01 00 00       	jmpq   fa7e <main+0xe56>
    f96b:	8b 45 f4             	mov    -0xc(%rbp),%eax
    f96e:	48 98                	cltq   
    f970:	8b 55 f0             	mov    -0x10(%rbp),%edx
    f973:	48 63 d2             	movslq %edx,%rdx
    f976:	48 c1 e2 03          	shl    $0x3,%rdx
    f97a:	48 01 d0             	add    %rdx,%rax
    f97d:	48 c1 e0 04          	shl    $0x4,%rax
    f981:	48 89 c2             	mov    %rax,%rdx
    f984:	48 8d 05 d5 5f 00 00 	lea    0x5fd5(%rip),%rax        # 15960 <g_842>
    f98b:	48 8b 04 02          	mov    (%rdx,%rax,1),%rax
    f98f:	c1 e0 03             	shl    $0x3,%eax
    f992:	66 c1 f8 03          	sar    $0x3,%ax
    f996:	48 0f bf c0          	movswq %ax,%rax
    f99a:	8b 55 fc             	mov    -0x4(%rbp),%edx
    f99d:	48 8d 35 e3 23 00 00 	lea    0x23e3(%rip),%rsi        # 11d87 <g_1649+0xd0f>
    f9a4:	48 89 c7             	mov    %rax,%rdi
    f9a7:	e8 47 7d ff ff       	callq  76f3 <transparent_crc>
    f9ac:	8b 45 f4             	mov    -0xc(%rbp),%eax
    f9af:	48 98                	cltq   
    f9b1:	8b 55 f0             	mov    -0x10(%rbp),%edx
    f9b4:	48 63 d2             	movslq %edx,%rdx
    f9b7:	48 c1 e2 03          	shl    $0x3,%rdx
    f9bb:	48 01 d0             	add    %rdx,%rax
    f9be:	48 c1 e0 04          	shl    $0x4,%rax
    f9c2:	48 89 c2             	mov    %rax,%rdx
    f9c5:	48 8d 05 94 5f 00 00 	lea    0x5f94(%rip),%rax        # 15960 <g_842>
    f9cc:	8b 44 02 02          	mov    0x2(%rdx,%rax,1),%eax
    f9d0:	89 c1                	mov    %eax,%ecx
    f9d2:	8b 45 fc             	mov    -0x4(%rbp),%eax
    f9d5:	89 c2                	mov    %eax,%edx
    f9d7:	48 8d 35 b8 23 00 00 	lea    0x23b8(%rip),%rsi        # 11d96 <g_1649+0xd1e>
    f9de:	48 89 cf             	mov    %rcx,%rdi
    f9e1:	e8 0d 7d ff ff       	callq  76f3 <transparent_crc>
    f9e6:	8b 45 f4             	mov    -0xc(%rbp),%eax
    f9e9:	48 98                	cltq   
    f9eb:	8b 55 f0             	mov    -0x10(%rbp),%edx
    f9ee:	48 63 d2             	movslq %edx,%rdx
    f9f1:	48 c1 e2 03          	shl    $0x3,%rdx
    f9f5:	48 01 d0             	add    %rdx,%rax
    f9f8:	48 c1 e0 04          	shl    $0x4,%rax
    f9fc:	48 89 c2             	mov    %rax,%rdx
    f9ff:	48 8d 05 60 5f 00 00 	lea    0x5f60(%rip),%rax        # 15966 <g_842+0x6>
    fa06:	0f b7 04 02          	movzwl (%rdx,%rax,1),%eax
    fa0a:	48 0f bf c0          	movswq %ax,%rax
    fa0e:	8b 55 fc             	mov    -0x4(%rbp),%edx
    fa11:	48 8d 35 8d 23 00 00 	lea    0x238d(%rip),%rsi        # 11da5 <g_1649+0xd2d>
    fa18:	48 89 c7             	mov    %rax,%rdi
    fa1b:	e8 d3 7c ff ff       	callq  76f3 <transparent_crc>
    fa20:	8b 45 f4             	mov    -0xc(%rbp),%eax
    fa23:	48 98                	cltq   
    fa25:	8b 55 f0             	mov    -0x10(%rbp),%edx
    fa28:	48 63 d2             	movslq %edx,%rdx
    fa2b:	48 c1 e2 03          	shl    $0x3,%rdx
    fa2f:	48 01 d0             	add    %rdx,%rax
    fa32:	48 c1 e0 04          	shl    $0x4,%rax
    fa36:	48 89 c2             	mov    %rax,%rdx
    fa39:	48 8d 05 28 5f 00 00 	lea    0x5f28(%rip),%rax        # 15968 <g_842+0x8>
    fa40:	48 8b 04 02          	mov    (%rdx,%rax,1),%rax
    fa44:	48 89 c1             	mov    %rax,%rcx
    fa47:	8b 45 fc             	mov    -0x4(%rbp),%eax
    fa4a:	89 c2                	mov    %eax,%edx
    fa4c:	48 8d 35 61 23 00 00 	lea    0x2361(%rip),%rsi        # 11db4 <g_1649+0xd3c>
    fa53:	48 89 cf             	mov    %rcx,%rdi
    fa56:	e8 98 7c ff ff       	callq  76f3 <transparent_crc>
    fa5b:	83 7d fc 00          	cmpl   $0x0,-0x4(%rbp)
    fa5f:	74 19                	je     fa7a <main+0xe52>
    fa61:	8b 55 f4             	mov    -0xc(%rbp),%edx
    fa64:	8b 45 f0             	mov    -0x10(%rbp),%eax
    fa67:	89 c6                	mov    %eax,%esi
    fa69:	48 8d 3d e1 22 00 00 	lea    0x22e1(%rip),%rdi        # 11d51 <g_1649+0xcd9>
    fa70:	b8 00 00 00 00       	mov    $0x0,%eax
    fa75:	e8 06 66 ff ff       	callq  6080 <printf@plt>
    fa7a:	83 45 f4 01          	addl   $0x1,-0xc(%rbp)
    fa7e:	83 7d f4 07          	cmpl   $0x7,-0xc(%rbp)
    fa82:	0f 8e e3 fe ff ff    	jle    f96b <main+0xd43>
    fa88:	83 45 f0 01          	addl   $0x1,-0x10(%rbp)
    fa8c:	83 7d f0 09          	cmpl   $0x9,-0x10(%rbp)
    fa90:	0f 8e c9 fe ff ff    	jle    f95f <main+0xd37>
    fa96:	48 8b 05 c3 15 00 00 	mov    0x15c3(%rip),%rax        # 11060 <g_879>
    fa9d:	c1 e0 03             	shl    $0x3,%eax
    faa0:	66 c1 f8 03          	sar    $0x3,%ax
    faa4:	48 0f bf c0          	movswq %ax,%rax
    faa8:	8b 55 fc             	mov    -0x4(%rbp),%edx
    faab:	48 8d 35 11 23 00 00 	lea    0x2311(%rip),%rsi        # 11dc3 <g_1649+0xd4b>
    fab2:	48 89 c7             	mov    %rax,%rdi
    fab5:	e8 39 7c ff ff       	callq  76f3 <transparent_crc>
    faba:	b8 67 bd 4d d7       	mov    $0xd74dbd67,%eax
    fabf:	89 c1                	mov    %eax,%ecx
    fac1:	8b 45 fc             	mov    -0x4(%rbp),%eax
    fac4:	89 c2                	mov    %eax,%edx
    fac6:	48 8d 35 ff 22 00 00 	lea    0x22ff(%rip),%rsi        # 11dcc <g_1649+0xd54>
    facd:	48 89 cf             	mov    %rcx,%rdi
    fad0:	e8 1e 7c ff ff       	callq  76f3 <transparent_crc>
    fad5:	b8 ff ff ff ff       	mov    $0xffffffff,%eax
    fada:	48 0f bf c0          	movswq %ax,%rax
    fade:	8b 55 fc             	mov    -0x4(%rbp),%edx
    fae1:	48 8d 35 ed 22 00 00 	lea    0x22ed(%rip),%rsi        # 11dd5 <g_1649+0xd5d>
    fae8:	48 89 c7             	mov    %rax,%rdi
    faeb:	e8 03 7c ff ff       	callq  76f3 <transparent_crc>
    faf0:	48 8b 05 71 15 00 00 	mov    0x1571(%rip),%rax        # 11068 <g_879+0x8>
    faf7:	48 89 c1             	mov    %rax,%rcx
    fafa:	8b 45 fc             	mov    -0x4(%rbp),%eax
    fafd:	89 c2                	mov    %eax,%edx
    faff:	48 8d 35 d8 22 00 00 	lea    0x22d8(%rip),%rsi        # 11dde <g_1649+0xd66>
    fb06:	48 89 cf             	mov    %rcx,%rdi
    fb09:	e8 e5 7b ff ff       	callq  76f3 <transparent_crc>
    fb0e:	48 8b 05 4b 63 00 00 	mov    0x634b(%rip),%rax        # 15e60 <g_971>
    fb15:	c1 e0 03             	shl    $0x3,%eax
    fb18:	66 c1 f8 03          	sar    $0x3,%ax
    fb1c:	48 0f bf c0          	movswq %ax,%rax
    fb20:	8b 55 fc             	mov    -0x4(%rbp),%edx
    fb23:	48 8d 35 bd 22 00 00 	lea    0x22bd(%rip),%rsi        # 11de7 <g_1649+0xd6f>
    fb2a:	48 89 c7             	mov    %rax,%rdi
    fb2d:	e8 c1 7b ff ff       	callq  76f3 <transparent_crc>
    fb32:	8b 05 2a 63 00 00    	mov    0x632a(%rip),%eax        # 15e62 <g_971+0x2>
    fb38:	89 c1                	mov    %eax,%ecx
    fb3a:	8b 45 fc             	mov    -0x4(%rbp),%eax
    fb3d:	89 c2                	mov    %eax,%edx
    fb3f:	48 8d 35 aa 22 00 00 	lea    0x22aa(%rip),%rsi        # 11df0 <g_1649+0xd78>
    fb46:	48 89 cf             	mov    %rcx,%rdi
    fb49:	e8 a5 7b ff ff       	callq  76f3 <transparent_crc>
    fb4e:	0f b7 05 11 63 00 00 	movzwl 0x6311(%rip),%eax        # 15e66 <g_971+0x6>
    fb55:	48 0f bf c0          	movswq %ax,%rax
    fb59:	8b 55 fc             	mov    -0x4(%rbp),%edx
    fb5c:	48 8d 35 96 22 00 00 	lea    0x2296(%rip),%rsi        # 11df9 <g_1649+0xd81>
    fb63:	48 89 c7             	mov    %rax,%rdi
    fb66:	e8 88 7b ff ff       	callq  76f3 <transparent_crc>
    fb6b:	48 8b 05 f6 62 00 00 	mov    0x62f6(%rip),%rax        # 15e68 <g_971+0x8>
    fb72:	48 89 c1             	mov    %rax,%rcx
    fb75:	8b 45 fc             	mov    -0x4(%rbp),%eax
    fb78:	89 c2                	mov    %eax,%edx
    fb7a:	48 8d 35 81 22 00 00 	lea    0x2281(%rip),%rsi        # 11e02 <g_1649+0xd8a>
    fb81:	48 89 cf             	mov    %rcx,%rdi
    fb84:	e8 6a 7b ff ff       	callq  76f3 <transparent_crc>
    fb89:	0f b7 05 e0 62 00 00 	movzwl 0x62e0(%rip),%eax        # 15e70 <g_984>
    fb90:	0f b7 c0             	movzwl %ax,%eax
    fb93:	8b 55 fc             	mov    -0x4(%rbp),%edx
    fb96:	48 8d 35 6e 22 00 00 	lea    0x226e(%rip),%rsi        # 11e0b <g_1649+0xd93>
    fb9d:	48 89 c7             	mov    %rax,%rdi
    fba0:	e8 4e 7b ff ff       	callq  76f3 <transparent_crc>
    fba5:	0f b7 05 c6 62 00 00 	movzwl 0x62c6(%rip),%eax        # 15e72 <g_985>
    fbac:	48 0f bf c0          	movswq %ax,%rax
    fbb0:	8b 55 fc             	mov    -0x4(%rbp),%edx
    fbb3:	48 8d 35 57 22 00 00 	lea    0x2257(%rip),%rsi        # 11e11 <g_1649+0xd99>
    fbba:	48 89 c7             	mov    %rax,%rdi
    fbbd:	e8 31 7b ff ff       	callq  76f3 <transparent_crc>
    fbc2:	0f b6 05 ab 62 00 00 	movzbl 0x62ab(%rip),%eax        # 15e74 <g_1007>
    fbc9:	48 0f be c0          	movsbq %al,%rax
    fbcd:	8b 55 fc             	mov    -0x4(%rbp),%edx
    fbd0:	48 8d 35 40 22 00 00 	lea    0x2240(%rip),%rsi        # 11e17 <g_1649+0xd9f>
    fbd7:	48 89 c7             	mov    %rax,%rdi
    fbda:	e8 14 7b ff ff       	callq  76f3 <transparent_crc>
    fbdf:	c7 45 f0 00 00 00 00 	movl   $0x0,-0x10(%rbp)
    fbe6:	eb 4a                	jmp    fc32 <main+0x100a>
    fbe8:	8b 45 f0             	mov    -0x10(%rbp),%eax
    fbeb:	48 98                	cltq   
    fbed:	48 8d 14 c5 00 00 00 	lea    0x0(,%rax,8),%rdx
    fbf4:	00 
    fbf5:	48 8d 05 84 62 00 00 	lea    0x6284(%rip),%rax        # 15e80 <g_1170>
    fbfc:	48 8b 04 02          	mov    (%rdx,%rax,1),%rax
    fc00:	8b 55 fc             	mov    -0x4(%rbp),%edx
    fc03:	48 8d 35 14 22 00 00 	lea    0x2214(%rip),%rsi        # 11e1e <g_1649+0xda6>
    fc0a:	48 89 c7             	mov    %rax,%rdi
    fc0d:	e8 e1 7a ff ff       	callq  76f3 <transparent_crc>
    fc12:	83 7d fc 00          	cmpl   $0x0,-0x4(%rbp)
    fc16:	74 16                	je     fc2e <main+0x1006>
    fc18:	8b 45 f0             	mov    -0x10(%rbp),%eax
    fc1b:	89 c6                	mov    %eax,%esi
    fc1d:	48 8d 3d 5d 1f 00 00 	lea    0x1f5d(%rip),%rdi        # 11b81 <g_1649+0xb09>
    fc24:	b8 00 00 00 00       	mov    $0x0,%eax
    fc29:	e8 52 64 ff ff       	callq  6080 <printf@plt>
    fc2e:	83 45 f0 01          	addl   $0x1,-0x10(%rbp)
    fc32:	83 7d f0 03          	cmpl   $0x3,-0x10(%rbp)
    fc36:	7e b0                	jle    fbe8 <main+0xfc0>
    fc38:	0f b6 05 61 62 00 00 	movzbl 0x6261(%rip),%eax        # 15ea0 <g_1175>
    fc3f:	0f b6 c0             	movzbl %al,%eax
    fc42:	8b 55 fc             	mov    -0x4(%rbp),%edx
    fc45:	48 8d 35 dc 21 00 00 	lea    0x21dc(%rip),%rsi        # 11e28 <g_1649+0xdb0>
    fc4c:	48 89 c7             	mov    %rax,%rdi
    fc4f:	e8 9f 7a ff ff       	callq  76f3 <transparent_crc>
    fc54:	c7 45 f0 00 00 00 00 	movl   $0x0,-0x10(%rbp)
    fc5b:	eb 72                	jmp    fccf <main+0x10a7>
    fc5d:	c7 45 f4 00 00 00 00 	movl   $0x0,-0xc(%rbp)
    fc64:	eb 5f                	jmp    fcc5 <main+0x109d>
    fc66:	8b 45 f4             	mov    -0xc(%rbp),%eax
    fc69:	48 63 c8             	movslq %eax,%rcx
    fc6c:	8b 45 f0             	mov    -0x10(%rbp),%eax
    fc6f:	48 63 d0             	movslq %eax,%rdx
    fc72:	48 89 d0             	mov    %rdx,%rax
    fc75:	48 c1 e0 03          	shl    $0x3,%rax
    fc79:	48 01 d0             	add    %rdx,%rax
    fc7c:	48 8d 14 08          	lea    (%rax,%rcx,1),%rdx
    fc80:	48 8d 05 21 62 00 00 	lea    0x6221(%rip),%rax        # 15ea8 <g_1176>
    fc87:	48 01 d0             	add    %rdx,%rax
    fc8a:	0f b6 00             	movzbl (%rax),%eax
    fc8d:	0f b6 c0             	movzbl %al,%eax
    fc90:	8b 55 fc             	mov    -0x4(%rbp),%edx
    fc93:	48 8d 35 95 21 00 00 	lea    0x2195(%rip),%rsi        # 11e2f <g_1649+0xdb7>
    fc9a:	48 89 c7             	mov    %rax,%rdi
    fc9d:	e8 51 7a ff ff       	callq  76f3 <transparent_crc>
    fca2:	83 7d fc 00          	cmpl   $0x0,-0x4(%rbp)
    fca6:	74 19                	je     fcc1 <main+0x1099>
    fca8:	8b 55 f4             	mov    -0xc(%rbp),%edx
    fcab:	8b 45 f0             	mov    -0x10(%rbp),%eax
    fcae:	89 c6                	mov    %eax,%esi
    fcb0:	48 8d 3d 9a 20 00 00 	lea    0x209a(%rip),%rdi        # 11d51 <g_1649+0xcd9>
    fcb7:	b8 00 00 00 00       	mov    $0x0,%eax
    fcbc:	e8 bf 63 ff ff       	callq  6080 <printf@plt>
    fcc1:	83 45 f4 01          	addl   $0x1,-0xc(%rbp)
    fcc5:	83 7d f4 08          	cmpl   $0x8,-0xc(%rbp)
    fcc9:	7e 9b                	jle    fc66 <main+0x103e>
    fccb:	83 45 f0 01          	addl   $0x1,-0x10(%rbp)
    fccf:	83 7d f0 00          	cmpl   $0x0,-0x10(%rbp)
    fcd3:	7e 88                	jle    fc5d <main+0x1035>
    fcd5:	c7 45 f0 00 00 00 00 	movl   $0x0,-0x10(%rbp)
    fcdc:	e9 b5 00 00 00       	jmpq   fd96 <main+0x116e>
    fce1:	c7 45 f4 00 00 00 00 	movl   $0x0,-0xc(%rbp)
    fce8:	e9 9b 00 00 00       	jmpq   fd88 <main+0x1160>
    fced:	c7 45 f8 00 00 00 00 	movl   $0x0,-0x8(%rbp)
    fcf4:	e9 81 00 00 00       	jmpq   fd7a <main+0x1152>
    fcf9:	8b 45 f8             	mov    -0x8(%rbp),%eax
    fcfc:	48 63 f0             	movslq %eax,%rsi
    fcff:	8b 45 f0             	mov    -0x10(%rbp),%eax
    fd02:	48 98                	cltq   
    fd04:	8b 55 f4             	mov    -0xc(%rbp),%edx
    fd07:	48 63 ca             	movslq %edx,%rcx
    fd0a:	48 89 c2             	mov    %rax,%rdx
    fd0d:	48 c1 e2 03          	shl    $0x3,%rdx
    fd11:	48 01 c2             	add    %rax,%rdx
    fd14:	48 8d 04 95 00 00 00 	lea    0x0(,%rdx,4),%rax
    fd1b:	00 
    fd1c:	48 89 c2             	mov    %rax,%rdx
    fd1f:	48 89 c8             	mov    %rcx,%rax
    fd22:	48 01 c0             	add    %rax,%rax
    fd25:	48 01 c8             	add    %rcx,%rax
    fd28:	48 01 c0             	add    %rax,%rax
    fd2b:	48 01 d0             	add    %rdx,%rax
    fd2e:	48 8d 14 30          	lea    (%rax,%rsi,1),%rdx
    fd32:	48 8d 05 87 61 00 00 	lea    0x6187(%rip),%rax        # 15ec0 <g_1177>
    fd39:	48 01 d0             	add    %rdx,%rax
    fd3c:	0f b6 00             	movzbl (%rax),%eax
    fd3f:	0f b6 c0             	movzbl %al,%eax
    fd42:	8b 55 fc             	mov    -0x4(%rbp),%edx
    fd45:	48 8d 35 f0 20 00 00 	lea    0x20f0(%rip),%rsi        # 11e3c <g_1649+0xdc4>
    fd4c:	48 89 c7             	mov    %rax,%rdi
    fd4f:	e8 9f 79 ff ff       	callq  76f3 <transparent_crc>
    fd54:	83 7d fc 00          	cmpl   $0x0,-0x4(%rbp)
    fd58:	74 1c                	je     fd76 <main+0x114e>
    fd5a:	8b 4d f8             	mov    -0x8(%rbp),%ecx
    fd5d:	8b 55 f4             	mov    -0xc(%rbp),%edx
    fd60:	8b 45 f0             	mov    -0x10(%rbp),%eax
    fd63:	89 c6                	mov    %eax,%esi
    fd65:	48 8d 3d d0 1d 00 00 	lea    0x1dd0(%rip),%rdi        # 11b3c <g_1649+0xac4>
    fd6c:	b8 00 00 00 00       	mov    $0x0,%eax
    fd71:	e8 0a 63 ff ff       	callq  6080 <printf@plt>
    fd76:	83 45 f8 01          	addl   $0x1,-0x8(%rbp)
    fd7a:	83 7d f8 05          	cmpl   $0x5,-0x8(%rbp)
    fd7e:	0f 8e 75 ff ff ff    	jle    fcf9 <main+0x10d1>
    fd84:	83 45 f4 01          	addl   $0x1,-0xc(%rbp)
    fd88:	83 7d f4 05          	cmpl   $0x5,-0xc(%rbp)
    fd8c:	0f 8e 5b ff ff ff    	jle    fced <main+0x10c5>
    fd92:	83 45 f0 01          	addl   $0x1,-0x10(%rbp)
    fd96:	83 7d f0 05          	cmpl   $0x5,-0x10(%rbp)
    fd9a:	0f 8e 41 ff ff ff    	jle    fce1 <main+0x10b9>
    fda0:	0f b6 05 f1 61 00 00 	movzbl 0x61f1(%rip),%eax        # 15f98 <g_1178>
    fda7:	0f b6 c0             	movzbl %al,%eax
    fdaa:	8b 55 fc             	mov    -0x4(%rbp),%edx
    fdad:	48 8d 35 98 20 00 00 	lea    0x2098(%rip),%rsi        # 11e4c <g_1649+0xdd4>
    fdb4:	48 89 c7             	mov    %rax,%rdi
    fdb7:	e8 37 79 ff ff       	callq  76f3 <transparent_crc>
    fdbc:	c7 45 f0 00 00 00 00 	movl   $0x0,-0x10(%rbp)
    fdc3:	eb 70                	jmp    fe35 <main+0x120d>
    fdc5:	c7 45 f4 00 00 00 00 	movl   $0x0,-0xc(%rbp)
    fdcc:	eb 5d                	jmp    fe2b <main+0x1203>
    fdce:	8b 45 f4             	mov    -0xc(%rbp),%eax
    fdd1:	48 98                	cltq   
    fdd3:	8b 55 f0             	mov    -0x10(%rbp),%edx
    fdd6:	48 63 d2             	movslq %edx,%rdx
    fdd9:	48 c1 e2 02          	shl    $0x2,%rdx
    fddd:	48 01 d0             	add    %rdx,%rax
    fde0:	48 8d 14 85 00 00 00 	lea    0x0(,%rax,4),%rdx
    fde7:	00 
    fde8:	48 8d 05 b1 61 00 00 	lea    0x61b1(%rip),%rax        # 15fa0 <g_1407>
    fdef:	8b 04 02             	mov    (%rdx,%rax,1),%eax
    fdf2:	89 c1                	mov    %eax,%ecx
    fdf4:	8b 45 fc             	mov    -0x4(%rbp),%eax
    fdf7:	89 c2                	mov    %eax,%edx
    fdf9:	48 8d 35 53 20 00 00 	lea    0x2053(%rip),%rsi        # 11e53 <g_1649+0xddb>
    fe00:	48 89 cf             	mov    %rcx,%rdi
    fe03:	e8 eb 78 ff ff       	callq  76f3 <transparent_crc>
    fe08:	83 7d fc 00          	cmpl   $0x0,-0x4(%rbp)
    fe0c:	74 19                	je     fe27 <main+0x11ff>
    fe0e:	8b 55 f4             	mov    -0xc(%rbp),%edx
    fe11:	8b 45 f0             	mov    -0x10(%rbp),%eax
    fe14:	89 c6                	mov    %eax,%esi
    fe16:	48 8d 3d 34 1f 00 00 	lea    0x1f34(%rip),%rdi        # 11d51 <g_1649+0xcd9>
    fe1d:	b8 00 00 00 00       	mov    $0x0,%eax
    fe22:	e8 59 62 ff ff       	callq  6080 <printf@plt>
    fe27:	83 45 f4 01          	addl   $0x1,-0xc(%rbp)
    fe2b:	83 7d f4 03          	cmpl   $0x3,-0xc(%rbp)
    fe2f:	7e 9d                	jle    fdce <main+0x11a6>
    fe31:	83 45 f0 01          	addl   $0x1,-0x10(%rbp)
    fe35:	83 7d f0 06          	cmpl   $0x6,-0x10(%rbp)
    fe39:	7e 8a                	jle    fdc5 <main+0x119d>
    fe3b:	c7 45 f0 00 00 00 00 	movl   $0x0,-0x10(%rbp)
    fe42:	eb 4d                	jmp    fe91 <main+0x1269>
    fe44:	8b 45 f0             	mov    -0x10(%rbp),%eax
    fe47:	48 98                	cltq   
    fe49:	48 8d 14 85 00 00 00 	lea    0x0(,%rax,4),%rdx
    fe50:	00 
    fe51:	48 8d 05 b8 61 00 00 	lea    0x61b8(%rip),%rax        # 16010 <g_1408>
    fe58:	8b 04 02             	mov    (%rdx,%rax,1),%eax
    fe5b:	89 c1                	mov    %eax,%ecx
    fe5d:	8b 45 fc             	mov    -0x4(%rbp),%eax
    fe60:	89 c2                	mov    %eax,%edx
    fe62:	48 8d 35 f7 1f 00 00 	lea    0x1ff7(%rip),%rsi        # 11e60 <g_1649+0xde8>
    fe69:	48 89 cf             	mov    %rcx,%rdi
    fe6c:	e8 82 78 ff ff       	callq  76f3 <transparent_crc>
    fe71:	83 7d fc 00          	cmpl   $0x0,-0x4(%rbp)
    fe75:	74 16                	je     fe8d <main+0x1265>
    fe77:	8b 45 f0             	mov    -0x10(%rbp),%eax
    fe7a:	89 c6                	mov    %eax,%esi
    fe7c:	48 8d 3d fe 1c 00 00 	lea    0x1cfe(%rip),%rdi        # 11b81 <g_1649+0xb09>
    fe83:	b8 00 00 00 00       	mov    $0x0,%eax
    fe88:	e8 f3 61 ff ff       	callq  6080 <printf@plt>
    fe8d:	83 45 f0 01          	addl   $0x1,-0x10(%rbp)
    fe91:	83 7d f0 03          	cmpl   $0x3,-0x10(%rbp)
    fe95:	7e ad                	jle    fe44 <main+0x121c>
    fe97:	c7 45 f0 00 00 00 00 	movl   $0x0,-0x10(%rbp)
    fe9e:	e9 7e 01 00 00       	jmpq   10021 <main+0x13f9>
    fea3:	c7 45 f4 00 00 00 00 	movl   $0x0,-0xc(%rbp)
    feaa:	e9 64 01 00 00       	jmpq   10013 <main+0x13eb>
    feaf:	c7 45 f8 00 00 00 00 	movl   $0x0,-0x8(%rbp)
    feb6:	e9 4a 01 00 00       	jmpq   10005 <main+0x13dd>
    febb:	8b 45 f8             	mov    -0x8(%rbp),%eax
    febe:	48 98                	cltq   
    fec0:	8b 55 f0             	mov    -0x10(%rbp),%edx
    fec3:	48 63 ca             	movslq %edx,%rcx
    fec6:	8b 55 f4             	mov    -0xc(%rbp),%edx
    fec9:	48 63 d2             	movslq %edx,%rdx
    fecc:	48 c1 e1 02          	shl    $0x2,%rcx
    fed0:	48 01 ca             	add    %rcx,%rdx
    fed3:	48 c1 e2 03          	shl    $0x3,%rdx
    fed7:	48 01 d0             	add    %rdx,%rax
    feda:	48 c1 e0 04          	shl    $0x4,%rax
    fede:	48 89 c2             	mov    %rax,%rdx
    fee1:	48 8d 05 38 61 00 00 	lea    0x6138(%rip),%rax        # 16020 <g_1435>
    fee8:	48 8b 04 02          	mov    (%rdx,%rax,1),%rax
    feec:	c1 e0 03             	shl    $0x3,%eax
    feef:	66 c1 f8 03          	sar    $0x3,%ax
    fef3:	48 0f bf c0          	movswq %ax,%rax
    fef7:	8b 55 fc             	mov    -0x4(%rbp),%edx
    fefa:	48 8d 35 69 1f 00 00 	lea    0x1f69(%rip),%rsi        # 11e6a <g_1649+0xdf2>
    ff01:	48 89 c7             	mov    %rax,%rdi
    ff04:	e8 ea 77 ff ff       	callq  76f3 <transparent_crc>
    ff09:	8b 45 f8             	mov    -0x8(%rbp),%eax
    ff0c:	48 98                	cltq   
    ff0e:	8b 55 f0             	mov    -0x10(%rbp),%edx
    ff11:	48 63 ca             	movslq %edx,%rcx
    ff14:	8b 55 f4             	mov    -0xc(%rbp),%edx
    ff17:	48 63 d2             	movslq %edx,%rdx
    ff1a:	48 c1 e1 02          	shl    $0x2,%rcx
    ff1e:	48 01 ca             	add    %rcx,%rdx
    ff21:	48 c1 e2 03          	shl    $0x3,%rdx
    ff25:	48 01 d0             	add    %rdx,%rax
    ff28:	48 c1 e0 04          	shl    $0x4,%rax
    ff2c:	48 89 c2             	mov    %rax,%rdx
    ff2f:	48 8d 05 ea 60 00 00 	lea    0x60ea(%rip),%rax        # 16020 <g_1435>
    ff36:	8b 44 02 02          	mov    0x2(%rdx,%rax,1),%eax
    ff3a:	89 c1                	mov    %eax,%ecx
    ff3c:	8b 45 fc             	mov    -0x4(%rbp),%eax
    ff3f:	89 c2                	mov    %eax,%edx
    ff41:	48 8d 35 35 1f 00 00 	lea    0x1f35(%rip),%rsi        # 11e7d <g_1649+0xe05>
    ff48:	48 89 cf             	mov    %rcx,%rdi
    ff4b:	e8 a3 77 ff ff       	callq  76f3 <transparent_crc>
    ff50:	8b 45 f8             	mov    -0x8(%rbp),%eax
    ff53:	48 98                	cltq   
    ff55:	8b 55 f0             	mov    -0x10(%rbp),%edx
    ff58:	48 63 ca             	movslq %edx,%rcx
    ff5b:	8b 55 f4             	mov    -0xc(%rbp),%edx
    ff5e:	48 63 d2             	movslq %edx,%rdx
    ff61:	48 c1 e1 02          	shl    $0x2,%rcx
    ff65:	48 01 ca             	add    %rcx,%rdx
    ff68:	48 c1 e2 03          	shl    $0x3,%rdx
    ff6c:	48 01 d0             	add    %rdx,%rax
    ff6f:	48 c1 e0 04          	shl    $0x4,%rax
    ff73:	48 89 c2             	mov    %rax,%rdx
    ff76:	48 8d 05 a9 60 00 00 	lea    0x60a9(%rip),%rax        # 16026 <g_1435+0x6>
    ff7d:	0f b7 04 02          	movzwl (%rdx,%rax,1),%eax
    ff81:	48 0f bf c0          	movswq %ax,%rax
    ff85:	8b 55 fc             	mov    -0x4(%rbp),%edx
    ff88:	48 8d 35 01 1f 00 00 	lea    0x1f01(%rip),%rsi        # 11e90 <g_1649+0xe18>
    ff8f:	48 89 c7             	mov    %rax,%rdi
    ff92:	e8 5c 77 ff ff       	callq  76f3 <transparent_crc>
    ff97:	8b 45 f8             	mov    -0x8(%rbp),%eax
    ff9a:	48 98                	cltq   
    ff9c:	8b 55 f0             	mov    -0x10(%rbp),%edx
    ff9f:	48 63 ca             	movslq %edx,%rcx
    ffa2:	8b 55 f4             	mov    -0xc(%rbp),%edx
    ffa5:	48 63 d2             	movslq %edx,%rdx
    ffa8:	48 c1 e1 02          	shl    $0x2,%rcx
    ffac:	48 01 ca             	add    %rcx,%rdx
    ffaf:	48 c1 e2 03          	shl    $0x3,%rdx
    ffb3:	48 01 d0             	add    %rdx,%rax
    ffb6:	48 c1 e0 04          	shl    $0x4,%rax
    ffba:	48 89 c2             	mov    %rax,%rdx
    ffbd:	48 8d 05 64 60 00 00 	lea    0x6064(%rip),%rax        # 16028 <g_1435+0x8>
    ffc4:	48 8b 04 02          	mov    (%rdx,%rax,1),%rax
    ffc8:	48 89 c1             	mov    %rax,%rcx
    ffcb:	8b 45 fc             	mov    -0x4(%rbp),%eax
    ffce:	89 c2                	mov    %eax,%edx
    ffd0:	48 8d 35 cc 1e 00 00 	lea    0x1ecc(%rip),%rsi        # 11ea3 <g_1649+0xe2b>
    ffd7:	48 89 cf             	mov    %rcx,%rdi
    ffda:	e8 14 77 ff ff       	callq  76f3 <transparent_crc>
    ffdf:	83 7d fc 00          	cmpl   $0x0,-0x4(%rbp)
    ffe3:	74 1c                	je     10001 <main+0x13d9>
    ffe5:	8b 4d f8             	mov    -0x8(%rbp),%ecx
    ffe8:	8b 55 f4             	mov    -0xc(%rbp),%edx
    ffeb:	8b 45 f0             	mov    -0x10(%rbp),%eax
    ffee:	89 c6                	mov    %eax,%esi
    fff0:	48 8d 3d 45 1b 00 00 	lea    0x1b45(%rip),%rdi        # 11b3c <g_1649+0xac4>
    fff7:	b8 00 00 00 00       	mov    $0x0,%eax
    fffc:	e8 7f 60 ff ff       	callq  6080 <printf@plt>
   10001:	83 45 f8 01          	addl   $0x1,-0x8(%rbp)
   10005:	83 7d f8 07          	cmpl   $0x7,-0x8(%rbp)
   10009:	0f 8e ac fe ff ff    	jle    febb <main+0x1293>
   1000f:	83 45 f4 01          	addl   $0x1,-0xc(%rbp)
   10013:	83 7d f4 03          	cmpl   $0x3,-0xc(%rbp)
   10017:	0f 8e 92 fe ff ff    	jle    feaf <main+0x1287>
   1001d:	83 45 f0 01          	addl   $0x1,-0x10(%rbp)
   10021:	83 7d f0 02          	cmpl   $0x2,-0x10(%rbp)
   10025:	0f 8e 78 fe ff ff    	jle    fea3 <main+0x127b>
   1002b:	c7 45 f0 00 00 00 00 	movl   $0x0,-0x10(%rbp)
   10032:	e9 dc 00 00 00       	jmpq   10113 <main+0x14eb>
   10037:	8b 45 f0             	mov    -0x10(%rbp),%eax
   1003a:	48 98                	cltq   
   1003c:	48 c1 e0 04          	shl    $0x4,%rax
   10040:	48 89 c2             	mov    %rax,%rdx
   10043:	48 8d 05 d6 65 00 00 	lea    0x65d6(%rip),%rax        # 16620 <g_1510>
   1004a:	48 8b 04 02          	mov    (%rdx,%rax,1),%rax
   1004e:	c1 e0 03             	shl    $0x3,%eax
   10051:	66 c1 f8 03          	sar    $0x3,%ax
   10055:	48 0f bf c0          	movswq %ax,%rax
   10059:	8b 55 fc             	mov    -0x4(%rbp),%edx
   1005c:	48 8d 35 53 1e 00 00 	lea    0x1e53(%rip),%rsi        # 11eb6 <g_1649+0xe3e>
   10063:	48 89 c7             	mov    %rax,%rdi
   10066:	e8 88 76 ff ff       	callq  76f3 <transparent_crc>
   1006b:	8b 45 f0             	mov    -0x10(%rbp),%eax
   1006e:	48 98                	cltq   
   10070:	48 c1 e0 04          	shl    $0x4,%rax
   10074:	48 89 c2             	mov    %rax,%rdx
   10077:	48 8d 05 a2 65 00 00 	lea    0x65a2(%rip),%rax        # 16620 <g_1510>
   1007e:	8b 44 02 02          	mov    0x2(%rdx,%rax,1),%eax
   10082:	89 c1                	mov    %eax,%ecx
   10084:	8b 45 fc             	mov    -0x4(%rbp),%eax
   10087:	89 c2                	mov    %eax,%edx
   10089:	48 8d 35 33 1e 00 00 	lea    0x1e33(%rip),%rsi        # 11ec3 <g_1649+0xe4b>
   10090:	48 89 cf             	mov    %rcx,%rdi
   10093:	e8 5b 76 ff ff       	callq  76f3 <transparent_crc>
   10098:	8b 45 f0             	mov    -0x10(%rbp),%eax
   1009b:	48 98                	cltq   
   1009d:	48 c1 e0 04          	shl    $0x4,%rax
   100a1:	48 89 c2             	mov    %rax,%rdx
   100a4:	48 8d 05 7b 65 00 00 	lea    0x657b(%rip),%rax        # 16626 <g_1510+0x6>
   100ab:	0f b7 04 02          	movzwl (%rdx,%rax,1),%eax
   100af:	48 0f bf c0          	movswq %ax,%rax
   100b3:	8b 55 fc             	mov    -0x4(%rbp),%edx
   100b6:	48 8d 35 13 1e 00 00 	lea    0x1e13(%rip),%rsi        # 11ed0 <g_1649+0xe58>
   100bd:	48 89 c7             	mov    %rax,%rdi
   100c0:	e8 2e 76 ff ff       	callq  76f3 <transparent_crc>
   100c5:	8b 45 f0             	mov    -0x10(%rbp),%eax
   100c8:	48 98                	cltq   
   100ca:	48 c1 e0 04          	shl    $0x4,%rax
   100ce:	48 89 c2             	mov    %rax,%rdx
   100d1:	48 8d 05 50 65 00 00 	lea    0x6550(%rip),%rax        # 16628 <g_1510+0x8>
   100d8:	48 8b 04 02          	mov    (%rdx,%rax,1),%rax
   100dc:	48 89 c1             	mov    %rax,%rcx
   100df:	8b 45 fc             	mov    -0x4(%rbp),%eax
   100e2:	89 c2                	mov    %eax,%edx
   100e4:	48 8d 35 f2 1d 00 00 	lea    0x1df2(%rip),%rsi        # 11edd <g_1649+0xe65>
   100eb:	48 89 cf             	mov    %rcx,%rdi
   100ee:	e8 00 76 ff ff       	callq  76f3 <transparent_crc>
   100f3:	83 7d fc 00          	cmpl   $0x0,-0x4(%rbp)
   100f7:	74 16                	je     1010f <main+0x14e7>
   100f9:	8b 45 f0             	mov    -0x10(%rbp),%eax
   100fc:	89 c6                	mov    %eax,%esi
   100fe:	48 8d 3d 7c 1a 00 00 	lea    0x1a7c(%rip),%rdi        # 11b81 <g_1649+0xb09>
   10105:	b8 00 00 00 00       	mov    $0x0,%eax
   1010a:	e8 71 5f ff ff       	callq  6080 <printf@plt>
   1010f:	83 45 f0 01          	addl   $0x1,-0x10(%rbp)
   10113:	83 7d f0 08          	cmpl   $0x8,-0x10(%rbp)
   10117:	0f 8e 1a ff ff ff    	jle    10037 <main+0x140f>
   1011d:	48 8b 05 8c 65 00 00 	mov    0x658c(%rip),%rax        # 166b0 <g_1597>
   10124:	c1 e0 03             	shl    $0x3,%eax
   10127:	66 c1 f8 03          	sar    $0x3,%ax
   1012b:	48 0f bf c0          	movswq %ax,%rax
   1012f:	8b 55 fc             	mov    -0x4(%rbp),%edx
   10132:	48 8d 35 b1 1d 00 00 	lea    0x1db1(%rip),%rsi        # 11eea <g_1649+0xe72>
   10139:	48 89 c7             	mov    %rax,%rdi
   1013c:	e8 b2 75 ff ff       	callq  76f3 <transparent_crc>
   10141:	8b 05 6b 65 00 00    	mov    0x656b(%rip),%eax        # 166b2 <g_1597+0x2>
   10147:	89 c1                	mov    %eax,%ecx
   10149:	8b 45 fc             	mov    -0x4(%rbp),%eax
   1014c:	89 c2                	mov    %eax,%edx
   1014e:	48 8d 35 9f 1d 00 00 	lea    0x1d9f(%rip),%rsi        # 11ef4 <g_1649+0xe7c>
   10155:	48 89 cf             	mov    %rcx,%rdi
   10158:	e8 96 75 ff ff       	callq  76f3 <transparent_crc>
   1015d:	0f b7 05 52 65 00 00 	movzwl 0x6552(%rip),%eax        # 166b6 <g_1597+0x6>
   10164:	48 0f bf c0          	movswq %ax,%rax
   10168:	8b 55 fc             	mov    -0x4(%rbp),%edx
   1016b:	48 8d 35 8c 1d 00 00 	lea    0x1d8c(%rip),%rsi        # 11efe <g_1649+0xe86>
   10172:	48 89 c7             	mov    %rax,%rdi
   10175:	e8 79 75 ff ff       	callq  76f3 <transparent_crc>
   1017a:	48 8b 05 37 65 00 00 	mov    0x6537(%rip),%rax        # 166b8 <g_1597+0x8>
   10181:	48 89 c1             	mov    %rax,%rcx
   10184:	8b 45 fc             	mov    -0x4(%rbp),%eax
   10187:	89 c2                	mov    %eax,%edx
   10189:	48 8d 35 78 1d 00 00 	lea    0x1d78(%rip),%rsi        # 11f08 <g_1649+0xe90>
   10190:	48 89 cf             	mov    %rcx,%rdi
   10193:	e8 5b 75 ff ff       	callq  76f3 <transparent_crc>
   10198:	8b 05 22 65 00 00    	mov    0x6522(%rip),%eax        # 166c0 <g_1640>
   1019e:	89 c1                	mov    %eax,%ecx
   101a0:	8b 45 fc             	mov    -0x4(%rbp),%eax
   101a3:	89 c2                	mov    %eax,%edx
   101a5:	48 8d 35 66 1d 00 00 	lea    0x1d66(%rip),%rsi        # 11f12 <g_1649+0xe9a>
   101ac:	48 89 cf             	mov    %rcx,%rdi
   101af:	e8 3f 75 ff ff       	callq  76f3 <transparent_crc>
   101b4:	8b 05 0a 65 00 00    	mov    0x650a(%rip),%eax        # 166c4 <g_1643>
   101ba:	89 c1                	mov    %eax,%ecx
   101bc:	8b 45 fc             	mov    -0x4(%rbp),%eax
   101bf:	89 c2                	mov    %eax,%edx
   101c1:	48 8d 35 51 1d 00 00 	lea    0x1d51(%rip),%rsi        # 11f19 <g_1649+0xea1>
   101c8:	48 89 cf             	mov    %rcx,%rdi
   101cb:	e8 23 75 ff ff       	callq  76f3 <transparent_crc>
   101d0:	48 8b 05 f9 64 00 00 	mov    0x64f9(%rip),%rax        # 166d0 <g_1646>
   101d7:	c1 e0 03             	shl    $0x3,%eax
   101da:	66 c1 f8 03          	sar    $0x3,%ax
   101de:	48 0f bf c0          	movswq %ax,%rax
   101e2:	8b 55 fc             	mov    -0x4(%rbp),%edx
   101e5:	48 8d 35 34 1d 00 00 	lea    0x1d34(%rip),%rsi        # 11f20 <g_1649+0xea8>
   101ec:	48 89 c7             	mov    %rax,%rdi
   101ef:	e8 ff 74 ff ff       	callq  76f3 <transparent_crc>
   101f4:	8b 05 d8 64 00 00    	mov    0x64d8(%rip),%eax        # 166d2 <g_1646+0x2>
   101fa:	89 c1                	mov    %eax,%ecx
   101fc:	8b 45 fc             	mov    -0x4(%rbp),%eax
   101ff:	89 c2                	mov    %eax,%edx
   10201:	48 8d 35 22 1d 00 00 	lea    0x1d22(%rip),%rsi        # 11f2a <g_1649+0xeb2>
   10208:	48 89 cf             	mov    %rcx,%rdi
   1020b:	e8 e3 74 ff ff       	callq  76f3 <transparent_crc>
   10210:	0f b7 05 bf 64 00 00 	movzwl 0x64bf(%rip),%eax        # 166d6 <g_1646+0x6>
   10217:	48 0f bf c0          	movswq %ax,%rax
   1021b:	8b 55 fc             	mov    -0x4(%rbp),%edx
   1021e:	48 8d 35 0f 1d 00 00 	lea    0x1d0f(%rip),%rsi        # 11f34 <g_1649+0xebc>
   10225:	48 89 c7             	mov    %rax,%rdi
   10228:	e8 c6 74 ff ff       	callq  76f3 <transparent_crc>
   1022d:	48 8b 05 a4 64 00 00 	mov    0x64a4(%rip),%rax        # 166d8 <g_1646+0x8>
   10234:	48 89 c1             	mov    %rax,%rcx
   10237:	8b 45 fc             	mov    -0x4(%rbp),%eax
   1023a:	89 c2                	mov    %eax,%edx
   1023c:	48 8d 35 fb 1c 00 00 	lea    0x1cfb(%rip),%rsi        # 11f3e <g_1649+0xec6>
   10243:	48 89 cf             	mov    %rcx,%rdi
   10246:	e8 a8 74 ff ff       	callq  76f3 <transparent_crc>
   1024b:	b8 09 f8 ff ff       	mov    $0xfffff809,%eax
   10250:	0f b7 c0             	movzwl %ax,%eax
   10253:	8b 55 fc             	mov    -0x4(%rbp),%edx
   10256:	48 8d 35 eb 1c 00 00 	lea    0x1ceb(%rip),%rsi        # 11f48 <g_1649+0xed0>
   1025d:	48 89 c7             	mov    %rax,%rdi
   10260:	e8 8e 74 ff ff       	callq  76f3 <transparent_crc>
   10265:	48 8b 05 74 64 00 00 	mov    0x6474(%rip),%rax        # 166e0 <g_1725>
   1026c:	c1 e0 03             	shl    $0x3,%eax
   1026f:	66 c1 f8 03          	sar    $0x3,%ax
   10273:	48 0f bf c0          	movswq %ax,%rax
   10277:	8b 55 fc             	mov    -0x4(%rbp),%edx
   1027a:	48 8d 35 ce 1c 00 00 	lea    0x1cce(%rip),%rsi        # 11f4f <g_1649+0xed7>
   10281:	48 89 c7             	mov    %rax,%rdi
   10284:	e8 6a 74 ff ff       	callq  76f3 <transparent_crc>
   10289:	8b 05 53 64 00 00    	mov    0x6453(%rip),%eax        # 166e2 <g_1725+0x2>
   1028f:	89 c1                	mov    %eax,%ecx
   10291:	8b 45 fc             	mov    -0x4(%rbp),%eax
   10294:	89 c2                	mov    %eax,%edx
   10296:	48 8d 35 bc 1c 00 00 	lea    0x1cbc(%rip),%rsi        # 11f59 <g_1649+0xee1>
   1029d:	48 89 cf             	mov    %rcx,%rdi
   102a0:	e8 4e 74 ff ff       	callq  76f3 <transparent_crc>
   102a5:	0f b7 05 3a 64 00 00 	movzwl 0x643a(%rip),%eax        # 166e6 <g_1725+0x6>
   102ac:	48 0f bf c0          	movswq %ax,%rax
   102b0:	8b 55 fc             	mov    -0x4(%rbp),%edx
   102b3:	48 8d 35 a9 1c 00 00 	lea    0x1ca9(%rip),%rsi        # 11f63 <g_1649+0xeeb>
   102ba:	48 89 c7             	mov    %rax,%rdi
   102bd:	e8 31 74 ff ff       	callq  76f3 <transparent_crc>
   102c2:	48 8b 05 1f 64 00 00 	mov    0x641f(%rip),%rax        # 166e8 <g_1725+0x8>
   102c9:	48 89 c1             	mov    %rax,%rcx
   102cc:	8b 45 fc             	mov    -0x4(%rbp),%eax
   102cf:	89 c2                	mov    %eax,%edx
   102d1:	48 8d 35 95 1c 00 00 	lea    0x1c95(%rip),%rsi        # 11f6d <g_1649+0xef5>
   102d8:	48 89 cf             	mov    %rcx,%rdi
   102db:	e8 13 74 ff ff       	callq  76f3 <transparent_crc>
   102e0:	48 8b 05 09 64 00 00 	mov    0x6409(%rip),%rax        # 166f0 <g_1732>
   102e7:	c1 e0 03             	shl    $0x3,%eax
   102ea:	66 c1 f8 03          	sar    $0x3,%ax
   102ee:	48 0f bf c0          	movswq %ax,%rax
   102f2:	8b 55 fc             	mov    -0x4(%rbp),%edx
   102f5:	48 8d 35 7b 1c 00 00 	lea    0x1c7b(%rip),%rsi        # 11f77 <g_1649+0xeff>
   102fc:	48 89 c7             	mov    %rax,%rdi
   102ff:	e8 ef 73 ff ff       	callq  76f3 <transparent_crc>
   10304:	8b 05 e8 63 00 00    	mov    0x63e8(%rip),%eax        # 166f2 <g_1732+0x2>
   1030a:	89 c1                	mov    %eax,%ecx
   1030c:	8b 45 fc             	mov    -0x4(%rbp),%eax
   1030f:	89 c2                	mov    %eax,%edx
   10311:	48 8d 35 69 1c 00 00 	lea    0x1c69(%rip),%rsi        # 11f81 <g_1649+0xf09>
   10318:	48 89 cf             	mov    %rcx,%rdi
   1031b:	e8 d3 73 ff ff       	callq  76f3 <transparent_crc>
   10320:	0f b7 05 cf 63 00 00 	movzwl 0x63cf(%rip),%eax        # 166f6 <g_1732+0x6>
   10327:	48 0f bf c0          	movswq %ax,%rax
   1032b:	8b 55 fc             	mov    -0x4(%rbp),%edx
   1032e:	48 8d 35 56 1c 00 00 	lea    0x1c56(%rip),%rsi        # 11f8b <g_1649+0xf13>
   10335:	48 89 c7             	mov    %rax,%rdi
   10338:	e8 b6 73 ff ff       	callq  76f3 <transparent_crc>
   1033d:	48 8b 05 b4 63 00 00 	mov    0x63b4(%rip),%rax        # 166f8 <g_1732+0x8>
   10344:	48 89 c1             	mov    %rax,%rcx
   10347:	8b 45 fc             	mov    -0x4(%rbp),%eax
   1034a:	89 c2                	mov    %eax,%edx
   1034c:	48 8d 35 42 1c 00 00 	lea    0x1c42(%rip),%rsi        # 11f95 <g_1649+0xf1d>
   10353:	48 89 cf             	mov    %rcx,%rdi
   10356:	e8 98 73 ff ff       	callq  76f3 <transparent_crc>
   1035b:	48 8b 05 9e 63 00 00 	mov    0x639e(%rip),%rax        # 16700 <g_1765>
   10362:	c1 e0 03             	shl    $0x3,%eax
   10365:	66 c1 f8 03          	sar    $0x3,%ax
   10369:	48 0f bf c0          	movswq %ax,%rax
   1036d:	8b 55 fc             	mov    -0x4(%rbp),%edx
   10370:	48 8d 35 28 1c 00 00 	lea    0x1c28(%rip),%rsi        # 11f9f <g_1649+0xf27>
   10377:	48 89 c7             	mov    %rax,%rdi
   1037a:	e8 74 73 ff ff       	callq  76f3 <transparent_crc>
   1037f:	8b 05 7d 63 00 00    	mov    0x637d(%rip),%eax        # 16702 <g_1765+0x2>
   10385:	89 c1                	mov    %eax,%ecx
   10387:	8b 45 fc             	mov    -0x4(%rbp),%eax
   1038a:	89 c2                	mov    %eax,%edx
   1038c:	48 8d 35 16 1c 00 00 	lea    0x1c16(%rip),%rsi        # 11fa9 <g_1649+0xf31>
   10393:	48 89 cf             	mov    %rcx,%rdi
   10396:	e8 58 73 ff ff       	callq  76f3 <transparent_crc>
   1039b:	0f b7 05 64 63 00 00 	movzwl 0x6364(%rip),%eax        # 16706 <g_1765+0x6>
   103a2:	48 0f bf c0          	movswq %ax,%rax
   103a6:	8b 55 fc             	mov    -0x4(%rbp),%edx
   103a9:	48 8d 35 03 1c 00 00 	lea    0x1c03(%rip),%rsi        # 11fb3 <g_1649+0xf3b>
   103b0:	48 89 c7             	mov    %rax,%rdi
   103b3:	e8 3b 73 ff ff       	callq  76f3 <transparent_crc>
   103b8:	48 8b 05 49 63 00 00 	mov    0x6349(%rip),%rax        # 16708 <g_1765+0x8>
   103bf:	48 89 c1             	mov    %rax,%rcx
   103c2:	8b 45 fc             	mov    -0x4(%rbp),%eax
   103c5:	89 c2                	mov    %eax,%edx
   103c7:	48 8d 35 ef 1b 00 00 	lea    0x1bef(%rip),%rsi        # 11fbd <g_1649+0xf45>
   103ce:	48 89 cf             	mov    %rcx,%rdi
   103d1:	e8 1d 73 ff ff       	callq  76f3 <transparent_crc>
   103d6:	c7 45 f0 00 00 00 00 	movl   $0x0,-0x10(%rbp)
   103dd:	e9 49 01 00 00       	jmpq   1052b <main+0x1903>
   103e2:	c7 45 f4 00 00 00 00 	movl   $0x0,-0xc(%rbp)
   103e9:	e9 2f 01 00 00       	jmpq   1051d <main+0x18f5>
   103ee:	8b 45 f4             	mov    -0xc(%rbp),%eax
   103f1:	48 63 c8             	movslq %eax,%rcx
   103f4:	8b 45 f0             	mov    -0x10(%rbp),%eax
   103f7:	48 63 d0             	movslq %eax,%rdx
   103fa:	48 89 d0             	mov    %rdx,%rax
   103fd:	48 c1 e0 02          	shl    $0x2,%rax
   10401:	48 01 d0             	add    %rdx,%rax
   10404:	48 01 c8             	add    %rcx,%rax
   10407:	48 c1 e0 04          	shl    $0x4,%rax
   1040b:	48 89 c2             	mov    %rax,%rdx
   1040e:	48 8d 05 0b 63 00 00 	lea    0x630b(%rip),%rax        # 16720 <g_1785>
   10415:	48 8b 04 02          	mov    (%rdx,%rax,1),%rax
   10419:	c1 e0 03             	shl    $0x3,%eax
   1041c:	66 c1 f8 03          	sar    $0x3,%ax
   10420:	48 0f bf c0          	movswq %ax,%rax
   10424:	8b 55 fc             	mov    -0x4(%rbp),%edx
   10427:	48 8d 35 99 1b 00 00 	lea    0x1b99(%rip),%rsi        # 11fc7 <g_1649+0xf4f>
   1042e:	48 89 c7             	mov    %rax,%rdi
   10431:	e8 bd 72 ff ff       	callq  76f3 <transparent_crc>
   10436:	8b 45 f4             	mov    -0xc(%rbp),%eax
   10439:	48 63 c8             	movslq %eax,%rcx
   1043c:	8b 45 f0             	mov    -0x10(%rbp),%eax
   1043f:	48 63 d0             	movslq %eax,%rdx
   10442:	48 89 d0             	mov    %rdx,%rax
   10445:	48 c1 e0 02          	shl    $0x2,%rax
   10449:	48 01 d0             	add    %rdx,%rax
   1044c:	48 01 c8             	add    %rcx,%rax
   1044f:	48 c1 e0 04          	shl    $0x4,%rax
   10453:	48 89 c2             	mov    %rax,%rdx
   10456:	48 8d 05 c3 62 00 00 	lea    0x62c3(%rip),%rax        # 16720 <g_1785>
   1045d:	8b 44 02 02          	mov    0x2(%rdx,%rax,1),%eax
   10461:	89 c1                	mov    %eax,%ecx
   10463:	8b 45 fc             	mov    -0x4(%rbp),%eax
   10466:	89 c2                	mov    %eax,%edx
   10468:	48 8d 35 68 1b 00 00 	lea    0x1b68(%rip),%rsi        # 11fd7 <g_1649+0xf5f>
   1046f:	48 89 cf             	mov    %rcx,%rdi
   10472:	e8 7c 72 ff ff       	callq  76f3 <transparent_crc>
   10477:	8b 45 f4             	mov    -0xc(%rbp),%eax
   1047a:	48 63 c8             	movslq %eax,%rcx
   1047d:	8b 45 f0             	mov    -0x10(%rbp),%eax
   10480:	48 63 d0             	movslq %eax,%rdx
   10483:	48 89 d0             	mov    %rdx,%rax
   10486:	48 c1 e0 02          	shl    $0x2,%rax
   1048a:	48 01 d0             	add    %rdx,%rax
   1048d:	48 01 c8             	add    %rcx,%rax
   10490:	48 c1 e0 04          	shl    $0x4,%rax
   10494:	48 89 c2             	mov    %rax,%rdx
   10497:	48 8d 05 88 62 00 00 	lea    0x6288(%rip),%rax        # 16726 <g_1785+0x6>
   1049e:	0f b7 04 02          	movzwl (%rdx,%rax,1),%eax
   104a2:	48 0f bf c0          	movswq %ax,%rax
   104a6:	8b 55 fc             	mov    -0x4(%rbp),%edx
   104a9:	48 8d 35 37 1b 00 00 	lea    0x1b37(%rip),%rsi        # 11fe7 <g_1649+0xf6f>
   104b0:	48 89 c7             	mov    %rax,%rdi
   104b3:	e8 3b 72 ff ff       	callq  76f3 <transparent_crc>
   104b8:	8b 45 f4             	mov    -0xc(%rbp),%eax
   104bb:	48 63 c8             	movslq %eax,%rcx
   104be:	8b 45 f0             	mov    -0x10(%rbp),%eax
   104c1:	48 63 d0             	movslq %eax,%rdx
   104c4:	48 89 d0             	mov    %rdx,%rax
   104c7:	48 c1 e0 02          	shl    $0x2,%rax
   104cb:	48 01 d0             	add    %rdx,%rax
   104ce:	48 01 c8             	add    %rcx,%rax
   104d1:	48 c1 e0 04          	shl    $0x4,%rax
   104d5:	48 89 c2             	mov    %rax,%rdx
   104d8:	48 8d 05 49 62 00 00 	lea    0x6249(%rip),%rax        # 16728 <g_1785+0x8>
   104df:	48 8b 04 02          	mov    (%rdx,%rax,1),%rax
   104e3:	48 89 c1             	mov    %rax,%rcx
   104e6:	8b 45 fc             	mov    -0x4(%rbp),%eax
   104e9:	89 c2                	mov    %eax,%edx
   104eb:	48 8d 35 05 1b 00 00 	lea    0x1b05(%rip),%rsi        # 11ff7 <g_1649+0xf7f>
   104f2:	48 89 cf             	mov    %rcx,%rdi
   104f5:	e8 f9 71 ff ff       	callq  76f3 <transparent_crc>
   104fa:	83 7d fc 00          	cmpl   $0x0,-0x4(%rbp)
   104fe:	74 19                	je     10519 <main+0x18f1>
   10500:	8b 55 f4             	mov    -0xc(%rbp),%edx
   10503:	8b 45 f0             	mov    -0x10(%rbp),%eax
   10506:	89 c6                	mov    %eax,%esi
   10508:	48 8d 3d 42 18 00 00 	lea    0x1842(%rip),%rdi        # 11d51 <g_1649+0xcd9>
   1050f:	b8 00 00 00 00       	mov    $0x0,%eax
   10514:	e8 67 5b ff ff       	callq  6080 <printf@plt>
   10519:	83 45 f4 01          	addl   $0x1,-0xc(%rbp)
   1051d:	83 7d f4 04          	cmpl   $0x4,-0xc(%rbp)
   10521:	0f 8e c7 fe ff ff    	jle    103ee <main+0x17c6>
   10527:	83 45 f0 01          	addl   $0x1,-0x10(%rbp)
   1052b:	83 7d f0 05          	cmpl   $0x5,-0x10(%rbp)
   1052f:	0f 8e ad fe ff ff    	jle    103e2 <main+0x17ba>
   10535:	48 8b 05 c4 63 00 00 	mov    0x63c4(%rip),%rax        # 16900 <g_1820>
   1053c:	c1 e0 03             	shl    $0x3,%eax
   1053f:	66 c1 f8 03          	sar    $0x3,%ax
   10543:	48 0f bf c0          	movswq %ax,%rax
   10547:	8b 55 fc             	mov    -0x4(%rbp),%edx
   1054a:	48 8d 35 b6 1a 00 00 	lea    0x1ab6(%rip),%rsi        # 12007 <g_1649+0xf8f>
   10551:	48 89 c7             	mov    %rax,%rdi
   10554:	e8 9a 71 ff ff       	callq  76f3 <transparent_crc>
   10559:	8b 05 a3 63 00 00    	mov    0x63a3(%rip),%eax        # 16902 <g_1820+0x2>
   1055f:	89 c1                	mov    %eax,%ecx
   10561:	8b 45 fc             	mov    -0x4(%rbp),%eax
   10564:	89 c2                	mov    %eax,%edx
   10566:	48 8d 35 a4 1a 00 00 	lea    0x1aa4(%rip),%rsi        # 12011 <g_1649+0xf99>
   1056d:	48 89 cf             	mov    %rcx,%rdi
   10570:	e8 7e 71 ff ff       	callq  76f3 <transparent_crc>
   10575:	0f b7 05 8a 63 00 00 	movzwl 0x638a(%rip),%eax        # 16906 <g_1820+0x6>
   1057c:	48 0f bf c0          	movswq %ax,%rax
   10580:	8b 55 fc             	mov    -0x4(%rbp),%edx
   10583:	48 8d 35 91 1a 00 00 	lea    0x1a91(%rip),%rsi        # 1201b <g_1649+0xfa3>
   1058a:	48 89 c7             	mov    %rax,%rdi
   1058d:	e8 61 71 ff ff       	callq  76f3 <transparent_crc>
   10592:	48 8b 05 6f 63 00 00 	mov    0x636f(%rip),%rax        # 16908 <g_1820+0x8>
   10599:	48 89 c1             	mov    %rax,%rcx
   1059c:	8b 45 fc             	mov    -0x4(%rbp),%eax
   1059f:	89 c2                	mov    %eax,%edx
   105a1:	48 8d 35 7d 1a 00 00 	lea    0x1a7d(%rip),%rsi        # 12025 <g_1649+0xfad>
   105a8:	48 89 cf             	mov    %rcx,%rdi
   105ab:	e8 43 71 ff ff       	callq  76f3 <transparent_crc>
   105b0:	8b 05 5a 63 00 00    	mov    0x635a(%rip),%eax        # 16910 <g_1852>
   105b6:	48 98                	cltq   
   105b8:	8b 55 fc             	mov    -0x4(%rbp),%edx
   105bb:	48 8d 35 6d 1a 00 00 	lea    0x1a6d(%rip),%rsi        # 1202f <g_1649+0xfb7>
   105c2:	48 89 c7             	mov    %rax,%rdi
   105c5:	e8 29 71 ff ff       	callq  76f3 <transparent_crc>
   105ca:	48 8b 05 4f 63 00 00 	mov    0x634f(%rip),%rax        # 16920 <g_1881>
   105d1:	c1 e0 03             	shl    $0x3,%eax
   105d4:	66 c1 f8 03          	sar    $0x3,%ax
   105d8:	48 0f bf c0          	movswq %ax,%rax
   105dc:	8b 55 fc             	mov    -0x4(%rbp),%edx
   105df:	48 8d 35 50 1a 00 00 	lea    0x1a50(%rip),%rsi        # 12036 <g_1649+0xfbe>
   105e6:	48 89 c7             	mov    %rax,%rdi
   105e9:	e8 05 71 ff ff       	callq  76f3 <transparent_crc>
   105ee:	8b 05 2e 63 00 00    	mov    0x632e(%rip),%eax        # 16922 <g_1881+0x2>
   105f4:	89 c1                	mov    %eax,%ecx
   105f6:	8b 45 fc             	mov    -0x4(%rbp),%eax
   105f9:	89 c2                	mov    %eax,%edx
   105fb:	48 8d 35 3e 1a 00 00 	lea    0x1a3e(%rip),%rsi        # 12040 <g_1649+0xfc8>
   10602:	48 89 cf             	mov    %rcx,%rdi
   10605:	e8 e9 70 ff ff       	callq  76f3 <transparent_crc>
   1060a:	0f b7 05 15 63 00 00 	movzwl 0x6315(%rip),%eax        # 16926 <g_1881+0x6>
   10611:	48 0f bf c0          	movswq %ax,%rax
   10615:	8b 55 fc             	mov    -0x4(%rbp),%edx
   10618:	48 8d 35 2b 1a 00 00 	lea    0x1a2b(%rip),%rsi        # 1204a <g_1649+0xfd2>
   1061f:	48 89 c7             	mov    %rax,%rdi
   10622:	e8 cc 70 ff ff       	callq  76f3 <transparent_crc>
   10627:	48 8b 05 fa 62 00 00 	mov    0x62fa(%rip),%rax        # 16928 <g_1881+0x8>
   1062e:	48 89 c1             	mov    %rax,%rcx
   10631:	8b 45 fc             	mov    -0x4(%rbp),%eax
   10634:	89 c2                	mov    %eax,%edx
   10636:	48 8d 35 17 1a 00 00 	lea    0x1a17(%rip),%rsi        # 12054 <g_1649+0xfdc>
   1063d:	48 89 cf             	mov    %rcx,%rdi
   10640:	e8 ae 70 ff ff       	callq  76f3 <transparent_crc>
   10645:	c7 45 f0 00 00 00 00 	movl   $0x0,-0x10(%rbp)
   1064c:	eb 4b                	jmp    10699 <main+0x1a71>
   1064e:	8b 45 f0             	mov    -0x10(%rbp),%eax
   10651:	48 98                	cltq   
   10653:	48 8d 14 85 00 00 00 	lea    0x0(,%rax,4),%rdx
   1065a:	00 
   1065b:	48 8d 05 ce 62 00 00 	lea    0x62ce(%rip),%rax        # 16930 <g_1893>
   10662:	8b 04 02             	mov    (%rdx,%rax,1),%eax
   10665:	48 98                	cltq   
   10667:	8b 55 fc             	mov    -0x4(%rbp),%edx
   1066a:	48 8d 35 ed 19 00 00 	lea    0x19ed(%rip),%rsi        # 1205e <g_1649+0xfe6>
   10671:	48 89 c7             	mov    %rax,%rdi
   10674:	e8 7a 70 ff ff       	callq  76f3 <transparent_crc>
   10679:	83 7d fc 00          	cmpl   $0x0,-0x4(%rbp)
   1067d:	74 16                	je     10695 <main+0x1a6d>
   1067f:	8b 45 f0             	mov    -0x10(%rbp),%eax
   10682:	89 c6                	mov    %eax,%esi
   10684:	48 8d 3d f6 14 00 00 	lea    0x14f6(%rip),%rdi        # 11b81 <g_1649+0xb09>
   1068b:	b8 00 00 00 00       	mov    $0x0,%eax
   10690:	e8 eb 59 ff ff       	callq  6080 <printf@plt>
   10695:	83 45 f0 01          	addl   $0x1,-0x10(%rbp)
   10699:	83 7d f0 06          	cmpl   $0x6,-0x10(%rbp)
   1069d:	7e af                	jle    1064e <main+0x1a26>
   1069f:	48 8b 05 aa 62 00 00 	mov    0x62aa(%rip),%rax        # 16950 <g_1915>
   106a6:	c1 e0 03             	shl    $0x3,%eax
   106a9:	66 c1 f8 03          	sar    $0x3,%ax
   106ad:	48 0f bf c0          	movswq %ax,%rax
   106b1:	8b 55 fc             	mov    -0x4(%rbp),%edx
   106b4:	48 8d 35 ad 19 00 00 	lea    0x19ad(%rip),%rsi        # 12068 <g_1649+0xff0>
   106bb:	48 89 c7             	mov    %rax,%rdi
   106be:	e8 30 70 ff ff       	callq  76f3 <transparent_crc>
   106c3:	8b 05 89 62 00 00    	mov    0x6289(%rip),%eax        # 16952 <g_1915+0x2>
   106c9:	89 c1                	mov    %eax,%ecx
   106cb:	8b 45 fc             	mov    -0x4(%rbp),%eax
   106ce:	89 c2                	mov    %eax,%edx
   106d0:	48 8d 35 9b 19 00 00 	lea    0x199b(%rip),%rsi        # 12072 <g_1649+0xffa>
   106d7:	48 89 cf             	mov    %rcx,%rdi
   106da:	e8 14 70 ff ff       	callq  76f3 <transparent_crc>
   106df:	0f b7 05 70 62 00 00 	movzwl 0x6270(%rip),%eax        # 16956 <g_1915+0x6>
   106e6:	48 0f bf c0          	movswq %ax,%rax
   106ea:	8b 55 fc             	mov    -0x4(%rbp),%edx
   106ed:	48 8d 35 88 19 00 00 	lea    0x1988(%rip),%rsi        # 1207c <g_1649+0x1004>
   106f4:	48 89 c7             	mov    %rax,%rdi
   106f7:	e8 f7 6f ff ff       	callq  76f3 <transparent_crc>
   106fc:	48 8b 05 55 62 00 00 	mov    0x6255(%rip),%rax        # 16958 <g_1915+0x8>
   10703:	48 89 c1             	mov    %rax,%rcx
   10706:	8b 45 fc             	mov    -0x4(%rbp),%eax
   10709:	89 c2                	mov    %eax,%edx
   1070b:	48 8d 35 74 19 00 00 	lea    0x1974(%rip),%rsi        # 12086 <g_1649+0x100e>
   10712:	48 89 cf             	mov    %rcx,%rdi
   10715:	e8 d9 6f ff ff       	callq  76f3 <transparent_crc>
   1071a:	8b 05 00 49 00 00    	mov    0x4900(%rip),%eax        # 15020 <crc32_context>
   10720:	f7 d0                	not    %eax
   10722:	89 c2                	mov    %eax,%edx
   10724:	8b 45 fc             	mov    -0x4(%rbp),%eax
   10727:	89 c6                	mov    %eax,%esi
   10729:	89 d7                	mov    %edx,%edi
   1072b:	e8 64 5a ff ff       	callq  6194 <platform_main_end>
   10730:	b8 00 00 00 00       	mov    $0x0,%eax
   10735:	c9                   	leaveq 
   10736:	c3                   	retq   
   10737:	66 0f 1f 84 00 00 00 	nopw   0x0(%rax,%rax,1)
   1073e:	00 00 

0000000000010740 <__libc_csu_init>:
   10740:	f3 0f 1e fa          	endbr64 
   10744:	41 57                	push   %r15
   10746:	4c 8d 3d 53 46 00 00 	lea    0x4653(%rip),%r15        # 14da0 <__frame_dummy_init_array_entry>
   1074d:	41 56                	push   %r14
   1074f:	49 89 d6             	mov    %rdx,%r14
   10752:	41 55                	push   %r13
   10754:	49 89 f5             	mov    %rsi,%r13
   10757:	41 54                	push   %r12
   10759:	41 89 fc             	mov    %edi,%r12d
   1075c:	55                   	push   %rbp
   1075d:	48 8d 2d 44 46 00 00 	lea    0x4644(%rip),%rbp        # 14da8 <__do_global_dtors_aux_fini_array_entry>
   10764:	53                   	push   %rbx
   10765:	4c 29 fd             	sub    %r15,%rbp
   10768:	48 83 ec 08          	sub    $0x8,%rsp
   1076c:	e8 8f 58 ff ff       	callq  6000 <_init>
   10771:	48 c1 fd 03          	sar    $0x3,%rbp
   10775:	74 1f                	je     10796 <__libc_csu_init+0x56>
   10777:	31 db                	xor    %ebx,%ebx
   10779:	0f 1f 80 00 00 00 00 	nopl   0x0(%rax)
   10780:	4c 89 f2             	mov    %r14,%rdx
   10783:	4c 89 ee             	mov    %r13,%rsi
   10786:	44 89 e7             	mov    %r12d,%edi
   10789:	41 ff 14 df          	callq  *(%r15,%rbx,8)
   1078d:	48 83 c3 01          	add    $0x1,%rbx
   10791:	48 39 dd             	cmp    %rbx,%rbp
   10794:	75 ea                	jne    10780 <__libc_csu_init+0x40>
   10796:	48 83 c4 08          	add    $0x8,%rsp
   1079a:	5b                   	pop    %rbx
   1079b:	5d                   	pop    %rbp
   1079c:	41 5c                	pop    %r12
   1079e:	41 5d                	pop    %r13
   107a0:	41 5e                	pop    %r14
   107a2:	41 5f                	pop    %r15
   107a4:	c3                   	retq   
   107a5:	66 66 2e 0f 1f 84 00 	data16 nopw %cs:0x0(%rax,%rax,1)
   107ac:	00 00 00 00 

00000000000107b0 <__libc_csu_fini>:
   107b0:	f3 0f 1e fa          	endbr64 
   107b4:	c3                   	retq   
