


Disassembly of section .text:

00000000000090a0 <_start>:
    90a0:	f3 0f 1e fa          	endbr64 
    90a4:	31 ed                	xor    %ebp,%ebp
    90a6:	49 89 d1             	mov    %rdx,%r9
    90a9:	5e                   	pop    %rsi
    90aa:	48 89 e2             	mov    %rsp,%rdx
    90ad:	48 83 e4 f0          	and    $0xfffffffffffffff0,%rsp
    90b1:	50                   	push   %rax
    90b2:	54                   	push   %rsp
    90b3:	4c 8d 05 c6 12 01 00 	lea    0x112c6(%rip),%r8        # 1a380 <__libc_csu_fini>
    90ba:	48 8d 0d 4f 12 01 00 	lea    0x1124f(%rip),%rcx        # 1a310 <__libc_csu_init>
    90c1:	48 8d 3d 3a f3 00 00 	lea    0xf33a(%rip),%rdi        # 18402 <main>
    90c8:	ff 15 12 6f 01 00    	callq  *0x16f12(%rip)        # 1ffe0 <__libc_start_main@GLIBC_2.2.5>
    90ce:	f4                   	hlt    
    90cf:	90                   	nop

00000000000090d0 <deregister_tm_clones>:
    90d0:	48 8d 3d 69 c8 01 00 	lea    0x1c869(%rip),%rdi        # 25940 <__TMC_END__>
    90d7:	48 8d 05 62 c8 01 00 	lea    0x1c862(%rip),%rax        # 25940 <__TMC_END__>
    90de:	48 39 f8             	cmp    %rdi,%rax
    90e1:	74 15                	je     90f8 <deregister_tm_clones+0x28>
    90e3:	48 8b 05 ee 6e 01 00 	mov    0x16eee(%rip),%rax        # 1ffd8 <_ITM_deregisterTMCloneTable>
    90ea:	48 85 c0             	test   %rax,%rax
    90ed:	74 09                	je     90f8 <deregister_tm_clones+0x28>
    90ef:	ff e0                	jmpq   *%rax
    90f1:	0f 1f 80 00 00 00 00 	nopl   0x0(%rax)
    90f8:	c3                   	retq   
    90f9:	0f 1f 80 00 00 00 00 	nopl   0x0(%rax)

0000000000009100 <register_tm_clones>:
    9100:	48 8d 3d 39 c8 01 00 	lea    0x1c839(%rip),%rdi        # 25940 <__TMC_END__>
    9107:	48 8d 35 32 c8 01 00 	lea    0x1c832(%rip),%rsi        # 25940 <__TMC_END__>
    910e:	48 29 fe             	sub    %rdi,%rsi
    9111:	48 89 f0             	mov    %rsi,%rax
    9114:	48 c1 ee 3f          	shr    $0x3f,%rsi
    9118:	48 c1 f8 03          	sar    $0x3,%rax
    911c:	48 01 c6             	add    %rax,%rsi
    911f:	48 d1 fe             	sar    %rsi
    9122:	74 14                	je     9138 <register_tm_clones+0x38>
    9124:	48 8b 05 c5 6e 01 00 	mov    0x16ec5(%rip),%rax        # 1fff0 <_ITM_registerTMCloneTable>
    912b:	48 85 c0             	test   %rax,%rax
    912e:	74 08                	je     9138 <register_tm_clones+0x38>
    9130:	ff e0                	jmpq   *%rax
    9132:	66 0f 1f 44 00 00    	nopw   0x0(%rax,%rax,1)
    9138:	c3                   	retq   
    9139:	0f 1f 80 00 00 00 00 	nopl   0x0(%rax)

0000000000009140 <__do_global_dtors_aux>:
    9140:	f3 0f 1e fa          	endbr64 
    9144:	80 3d f5 c7 01 00 00 	cmpb   $0x0,0x1c7f5(%rip)        # 25940 <__TMC_END__>
    914b:	75 2b                	jne    9178 <__do_global_dtors_aux+0x38>
    914d:	55                   	push   %rbp
    914e:	48 83 3d a2 6e 01 00 	cmpq   $0x0,0x16ea2(%rip)        # 1fff8 <__cxa_finalize@GLIBC_2.2.5>
    9155:	00 
    9156:	48 89 e5             	mov    %rsp,%rbp
    9159:	74 0c                	je     9167 <__do_global_dtors_aux+0x27>
    915b:	48 8b 3d a6 6e 01 00 	mov    0x16ea6(%rip),%rdi        # 20008 <__dso_handle>
    9162:	e8 f9 fe ff ff       	callq  9060 <__cxa_finalize@plt>
    9167:	e8 64 ff ff ff       	callq  90d0 <deregister_tm_clones>
    916c:	c6 05 cd c7 01 00 01 	movb   $0x1,0x1c7cd(%rip)        # 25940 <__TMC_END__>
    9173:	5d                   	pop    %rbp
    9174:	c3                   	retq   
    9175:	0f 1f 00             	nopl   (%rax)
    9178:	c3                   	retq   
    9179:	0f 1f 80 00 00 00 00 	nopl   0x0(%rax)

0000000000009180 <frame_dummy>:
    9180:	f3 0f 1e fa          	endbr64 
    9184:	e9 77 ff ff ff       	jmpq   9100 <register_tm_clones>

0000000000009189 <platform_main_begin>:
    9189:	f3 0f 1e fa          	endbr64 
    918d:	55                   	push   %rbp
    918e:	48 89 e5             	mov    %rsp,%rbp
    9191:	90                   	nop
    9192:	5d                   	pop    %rbp
    9193:	c3                   	retq   

0000000000009194 <platform_main_end>:
    9194:	f3 0f 1e fa          	endbr64 
    9198:	55                   	push   %rbp
    9199:	48 89 e5             	mov    %rsp,%rbp
    919c:	48 83 ec 10          	sub    $0x10,%rsp
    91a0:	89 7d fc             	mov    %edi,-0x4(%rbp)
    91a3:	89 75 f8             	mov    %esi,-0x8(%rbp)
    91a6:	8b 45 fc             	mov    -0x4(%rbp),%eax
    91a9:	89 c6                	mov    %eax,%esi
    91ab:	48 8d 3d 6e 1e 01 00 	lea    0x11e6e(%rip),%rdi        # 1b020 <_IO_stdin_used+0x20>
    91b2:	b8 00 00 00 00       	mov    $0x0,%eax
    91b7:	e8 c4 fe ff ff       	callq  9080 <printf@plt>
    91bc:	90                   	nop
    91bd:	c9                   	leaveq 
    91be:	c3                   	retq   

00000000000091bf <safe_unary_minus_func_int8_t_s>:
    91bf:	f3 0f 1e fa          	endbr64 
    91c3:	55                   	push   %rbp
    91c4:	48 89 e5             	mov    %rsp,%rbp
    91c7:	89 f8                	mov    %edi,%eax
    91c9:	88 45 fc             	mov    %al,-0x4(%rbp)
    91cc:	0f b6 45 fc          	movzbl -0x4(%rbp),%eax
    91d0:	f7 d8                	neg    %eax
    91d2:	5d                   	pop    %rbp
    91d3:	c3                   	retq   

00000000000091d4 <safe_add_func_int8_t_s_s>:
    91d4:	f3 0f 1e fa          	endbr64 
    91d8:	55                   	push   %rbp
    91d9:	48 89 e5             	mov    %rsp,%rbp
    91dc:	89 fa                	mov    %edi,%edx
    91de:	89 f0                	mov    %esi,%eax
    91e0:	88 55 fc             	mov    %dl,-0x4(%rbp)
    91e3:	88 45 f8             	mov    %al,-0x8(%rbp)
    91e6:	0f b6 55 fc          	movzbl -0x4(%rbp),%edx
    91ea:	0f b6 45 f8          	movzbl -0x8(%rbp),%eax
    91ee:	01 d0                	add    %edx,%eax
    91f0:	5d                   	pop    %rbp
    91f1:	c3                   	retq   

00000000000091f2 <safe_sub_func_int8_t_s_s>:
    91f2:	f3 0f 1e fa          	endbr64 
    91f6:	55                   	push   %rbp
    91f7:	48 89 e5             	mov    %rsp,%rbp
    91fa:	89 fa                	mov    %edi,%edx
    91fc:	89 f0                	mov    %esi,%eax
    91fe:	88 55 fc             	mov    %dl,-0x4(%rbp)
    9201:	88 45 f8             	mov    %al,-0x8(%rbp)
    9204:	0f b6 55 fc          	movzbl -0x4(%rbp),%edx
    9208:	0f b6 45 f8          	movzbl -0x8(%rbp),%eax
    920c:	29 c2                	sub    %eax,%edx
    920e:	89 d0                	mov    %edx,%eax
    9210:	5d                   	pop    %rbp
    9211:	c3                   	retq   

0000000000009212 <safe_mul_func_int8_t_s_s>:
    9212:	f3 0f 1e fa          	endbr64 
    9216:	55                   	push   %rbp
    9217:	48 89 e5             	mov    %rsp,%rbp
    921a:	89 fa                	mov    %edi,%edx
    921c:	89 f0                	mov    %esi,%eax
    921e:	88 55 fc             	mov    %dl,-0x4(%rbp)
    9221:	88 45 f8             	mov    %al,-0x8(%rbp)
    9224:	0f b6 45 fc          	movzbl -0x4(%rbp),%eax
    9228:	0f b6 55 f8          	movzbl -0x8(%rbp),%edx
    922c:	0f af c2             	imul   %edx,%eax
    922f:	5d                   	pop    %rbp
    9230:	c3                   	retq   

0000000000009231 <safe_mod_func_int8_t_s_s>:
    9231:	f3 0f 1e fa          	endbr64 
    9235:	55                   	push   %rbp
    9236:	48 89 e5             	mov    %rsp,%rbp
    9239:	89 fa                	mov    %edi,%edx
    923b:	89 f0                	mov    %esi,%eax
    923d:	88 55 fc             	mov    %dl,-0x4(%rbp)
    9240:	88 45 f8             	mov    %al,-0x8(%rbp)
    9243:	80 7d f8 00          	cmpb   $0x0,-0x8(%rbp)
    9247:	74 1b                	je     9264 <safe_mod_func_int8_t_s_s+0x33>
    9249:	80 7d fc 80          	cmpb   $0x80,-0x4(%rbp)
    924d:	75 06                	jne    9255 <safe_mod_func_int8_t_s_s+0x24>
    924f:	80 7d f8 ff          	cmpb   $0xff,-0x8(%rbp)
    9253:	74 0f                	je     9264 <safe_mod_func_int8_t_s_s+0x33>
    9255:	0f be 45 fc          	movsbl -0x4(%rbp),%eax
    9259:	0f be 4d f8          	movsbl -0x8(%rbp),%ecx
    925d:	99                   	cltd   
    925e:	f7 f9                	idiv   %ecx
    9260:	89 d0                	mov    %edx,%eax
    9262:	eb 04                	jmp    9268 <safe_mod_func_int8_t_s_s+0x37>
    9264:	0f b6 45 fc          	movzbl -0x4(%rbp),%eax
    9268:	5d                   	pop    %rbp
    9269:	c3                   	retq   

000000000000926a <safe_div_func_int8_t_s_s>:
    926a:	f3 0f 1e fa          	endbr64 
    926e:	55                   	push   %rbp
    926f:	48 89 e5             	mov    %rsp,%rbp
    9272:	89 fa                	mov    %edi,%edx
    9274:	89 f0                	mov    %esi,%eax
    9276:	88 55 fc             	mov    %dl,-0x4(%rbp)
    9279:	88 45 f8             	mov    %al,-0x8(%rbp)
    927c:	80 7d f8 00          	cmpb   $0x0,-0x8(%rbp)
    9280:	74 19                	je     929b <safe_div_func_int8_t_s_s+0x31>
    9282:	80 7d fc 80          	cmpb   $0x80,-0x4(%rbp)
    9286:	75 06                	jne    928e <safe_div_func_int8_t_s_s+0x24>
    9288:	80 7d f8 ff          	cmpb   $0xff,-0x8(%rbp)
    928c:	74 0d                	je     929b <safe_div_func_int8_t_s_s+0x31>
    928e:	0f be 45 fc          	movsbl -0x4(%rbp),%eax
    9292:	0f be 4d f8          	movsbl -0x8(%rbp),%ecx
    9296:	99                   	cltd   
    9297:	f7 f9                	idiv   %ecx
    9299:	eb 04                	jmp    929f <safe_div_func_int8_t_s_s+0x35>
    929b:	0f b6 45 fc          	movzbl -0x4(%rbp),%eax
    929f:	5d                   	pop    %rbp
    92a0:	c3                   	retq   

00000000000092a1 <safe_lshift_func_int8_t_s_s>:
    92a1:	f3 0f 1e fa          	endbr64 
    92a5:	55                   	push   %rbp
    92a6:	48 89 e5             	mov    %rsp,%rbp
    92a9:	89 f8                	mov    %edi,%eax
    92ab:	89 75 f8             	mov    %esi,-0x8(%rbp)
    92ae:	88 45 fc             	mov    %al,-0x4(%rbp)
    92b1:	80 7d fc 00          	cmpb   $0x0,-0x4(%rbp)
    92b5:	78 31                	js     92e8 <safe_lshift_func_int8_t_s_s+0x47>
    92b7:	83 7d f8 00          	cmpl   $0x0,-0x8(%rbp)
    92bb:	78 2b                	js     92e8 <safe_lshift_func_int8_t_s_s+0x47>
    92bd:	83 7d f8 1f          	cmpl   $0x1f,-0x8(%rbp)
    92c1:	7f 25                	jg     92e8 <safe_lshift_func_int8_t_s_s+0x47>
    92c3:	0f be 55 fc          	movsbl -0x4(%rbp),%edx
    92c7:	8b 45 f8             	mov    -0x8(%rbp),%eax
    92ca:	be 7f 00 00 00       	mov    $0x7f,%esi
    92cf:	89 c1                	mov    %eax,%ecx
    92d1:	d3 fe                	sar    %cl,%esi
    92d3:	89 f0                	mov    %esi,%eax
    92d5:	39 c2                	cmp    %eax,%edx
    92d7:	7f 0f                	jg     92e8 <safe_lshift_func_int8_t_s_s+0x47>
    92d9:	0f be 55 fc          	movsbl -0x4(%rbp),%edx
    92dd:	8b 45 f8             	mov    -0x8(%rbp),%eax
    92e0:	89 c1                	mov    %eax,%ecx
    92e2:	d3 e2                	shl    %cl,%edx
    92e4:	89 d0                	mov    %edx,%eax
    92e6:	eb 04                	jmp    92ec <safe_lshift_func_int8_t_s_s+0x4b>
    92e8:	0f b6 45 fc          	movzbl -0x4(%rbp),%eax
    92ec:	5d                   	pop    %rbp
    92ed:	c3                   	retq   

00000000000092ee <safe_lshift_func_int8_t_s_u>:
    92ee:	f3 0f 1e fa          	endbr64 
    92f2:	55                   	push   %rbp
    92f3:	48 89 e5             	mov    %rsp,%rbp
    92f6:	89 f8                	mov    %edi,%eax
    92f8:	89 75 f8             	mov    %esi,-0x8(%rbp)
    92fb:	88 45 fc             	mov    %al,-0x4(%rbp)
    92fe:	80 7d fc 00          	cmpb   $0x0,-0x4(%rbp)
    9302:	78 2b                	js     932f <safe_lshift_func_int8_t_s_u+0x41>
    9304:	83 7d f8 1f          	cmpl   $0x1f,-0x8(%rbp)
    9308:	77 25                	ja     932f <safe_lshift_func_int8_t_s_u+0x41>
    930a:	0f be 55 fc          	movsbl -0x4(%rbp),%edx
    930e:	8b 45 f8             	mov    -0x8(%rbp),%eax
    9311:	be 7f 00 00 00       	mov    $0x7f,%esi
    9316:	89 c1                	mov    %eax,%ecx
    9318:	d3 fe                	sar    %cl,%esi
    931a:	89 f0                	mov    %esi,%eax
    931c:	39 c2                	cmp    %eax,%edx
    931e:	7f 0f                	jg     932f <safe_lshift_func_int8_t_s_u+0x41>
    9320:	0f be 55 fc          	movsbl -0x4(%rbp),%edx
    9324:	8b 45 f8             	mov    -0x8(%rbp),%eax
    9327:	89 c1                	mov    %eax,%ecx
    9329:	d3 e2                	shl    %cl,%edx
    932b:	89 d0                	mov    %edx,%eax
    932d:	eb 04                	jmp    9333 <safe_lshift_func_int8_t_s_u+0x45>
    932f:	0f b6 45 fc          	movzbl -0x4(%rbp),%eax
    9333:	5d                   	pop    %rbp
    9334:	c3                   	retq   

0000000000009335 <safe_rshift_func_int8_t_s_s>:
    9335:	f3 0f 1e fa          	endbr64 
    9339:	55                   	push   %rbp
    933a:	48 89 e5             	mov    %rsp,%rbp
    933d:	89 f8                	mov    %edi,%eax
    933f:	89 75 f8             	mov    %esi,-0x8(%rbp)
    9342:	88 45 fc             	mov    %al,-0x4(%rbp)
    9345:	80 7d fc 00          	cmpb   $0x0,-0x4(%rbp)
    9349:	78 1b                	js     9366 <safe_rshift_func_int8_t_s_s+0x31>
    934b:	83 7d f8 00          	cmpl   $0x0,-0x8(%rbp)
    934f:	78 15                	js     9366 <safe_rshift_func_int8_t_s_s+0x31>
    9351:	83 7d f8 1f          	cmpl   $0x1f,-0x8(%rbp)
    9355:	7f 0f                	jg     9366 <safe_rshift_func_int8_t_s_s+0x31>
    9357:	0f be 55 fc          	movsbl -0x4(%rbp),%edx
    935b:	8b 45 f8             	mov    -0x8(%rbp),%eax
    935e:	89 c1                	mov    %eax,%ecx
    9360:	d3 fa                	sar    %cl,%edx
    9362:	89 d0                	mov    %edx,%eax
    9364:	eb 04                	jmp    936a <safe_rshift_func_int8_t_s_s+0x35>
    9366:	0f b6 45 fc          	movzbl -0x4(%rbp),%eax
    936a:	5d                   	pop    %rbp
    936b:	c3                   	retq   

000000000000936c <safe_rshift_func_int8_t_s_u>:
    936c:	f3 0f 1e fa          	endbr64 
    9370:	55                   	push   %rbp
    9371:	48 89 e5             	mov    %rsp,%rbp
    9374:	89 f8                	mov    %edi,%eax
    9376:	89 75 f8             	mov    %esi,-0x8(%rbp)
    9379:	88 45 fc             	mov    %al,-0x4(%rbp)
    937c:	80 7d fc 00          	cmpb   $0x0,-0x4(%rbp)
    9380:	78 15                	js     9397 <safe_rshift_func_int8_t_s_u+0x2b>
    9382:	83 7d f8 1f          	cmpl   $0x1f,-0x8(%rbp)
    9386:	77 0f                	ja     9397 <safe_rshift_func_int8_t_s_u+0x2b>
    9388:	0f be 55 fc          	movsbl -0x4(%rbp),%edx
    938c:	8b 45 f8             	mov    -0x8(%rbp),%eax
    938f:	89 c1                	mov    %eax,%ecx
    9391:	d3 fa                	sar    %cl,%edx
    9393:	89 d0                	mov    %edx,%eax
    9395:	eb 04                	jmp    939b <safe_rshift_func_int8_t_s_u+0x2f>
    9397:	0f b6 45 fc          	movzbl -0x4(%rbp),%eax
    939b:	5d                   	pop    %rbp
    939c:	c3                   	retq   

000000000000939d <safe_unary_minus_func_int16_t_s>:
    939d:	f3 0f 1e fa          	endbr64 
    93a1:	55                   	push   %rbp
    93a2:	48 89 e5             	mov    %rsp,%rbp
    93a5:	89 f8                	mov    %edi,%eax
    93a7:	66 89 45 fc          	mov    %ax,-0x4(%rbp)
    93ab:	0f b7 45 fc          	movzwl -0x4(%rbp),%eax
    93af:	f7 d8                	neg    %eax
    93b1:	5d                   	pop    %rbp
    93b2:	c3                   	retq   

00000000000093b3 <safe_add_func_int16_t_s_s>:
    93b3:	f3 0f 1e fa          	endbr64 
    93b7:	55                   	push   %rbp
    93b8:	48 89 e5             	mov    %rsp,%rbp
    93bb:	89 fa                	mov    %edi,%edx
    93bd:	89 f0                	mov    %esi,%eax
    93bf:	66 89 55 fc          	mov    %dx,-0x4(%rbp)
    93c3:	66 89 45 f8          	mov    %ax,-0x8(%rbp)
    93c7:	0f b7 55 fc          	movzwl -0x4(%rbp),%edx
    93cb:	0f b7 45 f8          	movzwl -0x8(%rbp),%eax
    93cf:	01 d0                	add    %edx,%eax
    93d1:	5d                   	pop    %rbp
    93d2:	c3                   	retq   

00000000000093d3 <safe_sub_func_int16_t_s_s>:
    93d3:	f3 0f 1e fa          	endbr64 
    93d7:	55                   	push   %rbp
    93d8:	48 89 e5             	mov    %rsp,%rbp
    93db:	89 fa                	mov    %edi,%edx
    93dd:	89 f0                	mov    %esi,%eax
    93df:	66 89 55 fc          	mov    %dx,-0x4(%rbp)
    93e3:	66 89 45 f8          	mov    %ax,-0x8(%rbp)
    93e7:	0f b7 55 fc          	movzwl -0x4(%rbp),%edx
    93eb:	0f b7 45 f8          	movzwl -0x8(%rbp),%eax
    93ef:	29 c2                	sub    %eax,%edx
    93f1:	89 d0                	mov    %edx,%eax
    93f3:	5d                   	pop    %rbp
    93f4:	c3                   	retq   

00000000000093f5 <safe_mul_func_int16_t_s_s>:
    93f5:	f3 0f 1e fa          	endbr64 
    93f9:	55                   	push   %rbp
    93fa:	48 89 e5             	mov    %rsp,%rbp
    93fd:	89 fa                	mov    %edi,%edx
    93ff:	89 f0                	mov    %esi,%eax
    9401:	66 89 55 fc          	mov    %dx,-0x4(%rbp)
    9405:	66 89 45 f8          	mov    %ax,-0x8(%rbp)
    9409:	0f b7 55 fc          	movzwl -0x4(%rbp),%edx
    940d:	0f b7 45 f8          	movzwl -0x8(%rbp),%eax
    9411:	0f af c2             	imul   %edx,%eax
    9414:	5d                   	pop    %rbp
    9415:	c3                   	retq   

0000000000009416 <safe_mod_func_int16_t_s_s>:
    9416:	f3 0f 1e fa          	endbr64 
    941a:	55                   	push   %rbp
    941b:	48 89 e5             	mov    %rsp,%rbp
    941e:	89 fa                	mov    %edi,%edx
    9420:	89 f0                	mov    %esi,%eax
    9422:	66 89 55 fc          	mov    %dx,-0x4(%rbp)
    9426:	66 89 45 f8          	mov    %ax,-0x8(%rbp)
    942a:	66 83 7d f8 00       	cmpw   $0x0,-0x8(%rbp)
    942f:	74 1e                	je     944f <safe_mod_func_int16_t_s_s+0x39>
    9431:	66 81 7d fc 00 80    	cmpw   $0x8000,-0x4(%rbp)
    9437:	75 07                	jne    9440 <safe_mod_func_int16_t_s_s+0x2a>
    9439:	66 83 7d f8 ff       	cmpw   $0xffff,-0x8(%rbp)
    943e:	74 0f                	je     944f <safe_mod_func_int16_t_s_s+0x39>
    9440:	0f bf 45 fc          	movswl -0x4(%rbp),%eax
    9444:	0f bf 4d f8          	movswl -0x8(%rbp),%ecx
    9448:	99                   	cltd   
    9449:	f7 f9                	idiv   %ecx
    944b:	89 d0                	mov    %edx,%eax
    944d:	eb 04                	jmp    9453 <safe_mod_func_int16_t_s_s+0x3d>
    944f:	0f b7 45 fc          	movzwl -0x4(%rbp),%eax
    9453:	5d                   	pop    %rbp
    9454:	c3                   	retq   

0000000000009455 <safe_div_func_int16_t_s_s>:
    9455:	f3 0f 1e fa          	endbr64 
    9459:	55                   	push   %rbp
    945a:	48 89 e5             	mov    %rsp,%rbp
    945d:	89 fa                	mov    %edi,%edx
    945f:	89 f0                	mov    %esi,%eax
    9461:	66 89 55 fc          	mov    %dx,-0x4(%rbp)
    9465:	66 89 45 f8          	mov    %ax,-0x8(%rbp)
    9469:	66 83 7d f8 00       	cmpw   $0x0,-0x8(%rbp)
    946e:	74 1c                	je     948c <safe_div_func_int16_t_s_s+0x37>
    9470:	66 81 7d fc 00 80    	cmpw   $0x8000,-0x4(%rbp)
    9476:	75 07                	jne    947f <safe_div_func_int16_t_s_s+0x2a>
    9478:	66 83 7d f8 ff       	cmpw   $0xffff,-0x8(%rbp)
    947d:	74 0d                	je     948c <safe_div_func_int16_t_s_s+0x37>
    947f:	0f bf 45 fc          	movswl -0x4(%rbp),%eax
    9483:	0f bf 4d f8          	movswl -0x8(%rbp),%ecx
    9487:	99                   	cltd   
    9488:	f7 f9                	idiv   %ecx
    948a:	eb 04                	jmp    9490 <safe_div_func_int16_t_s_s+0x3b>
    948c:	0f b7 45 fc          	movzwl -0x4(%rbp),%eax
    9490:	5d                   	pop    %rbp
    9491:	c3                   	retq   

0000000000009492 <safe_lshift_func_int16_t_s_s>:
    9492:	f3 0f 1e fa          	endbr64 
    9496:	55                   	push   %rbp
    9497:	48 89 e5             	mov    %rsp,%rbp
    949a:	89 f8                	mov    %edi,%eax
    949c:	89 75 f8             	mov    %esi,-0x8(%rbp)
    949f:	66 89 45 fc          	mov    %ax,-0x4(%rbp)
    94a3:	66 83 7d fc 00       	cmpw   $0x0,-0x4(%rbp)
    94a8:	78 31                	js     94db <safe_lshift_func_int16_t_s_s+0x49>
    94aa:	83 7d f8 00          	cmpl   $0x0,-0x8(%rbp)
    94ae:	78 2b                	js     94db <safe_lshift_func_int16_t_s_s+0x49>
    94b0:	83 7d f8 1f          	cmpl   $0x1f,-0x8(%rbp)
    94b4:	7f 25                	jg     94db <safe_lshift_func_int16_t_s_s+0x49>
    94b6:	0f bf 55 fc          	movswl -0x4(%rbp),%edx
    94ba:	8b 45 f8             	mov    -0x8(%rbp),%eax
    94bd:	be ff 7f 00 00       	mov    $0x7fff,%esi
    94c2:	89 c1                	mov    %eax,%ecx
    94c4:	d3 fe                	sar    %cl,%esi
    94c6:	89 f0                	mov    %esi,%eax
    94c8:	39 c2                	cmp    %eax,%edx
    94ca:	7f 0f                	jg     94db <safe_lshift_func_int16_t_s_s+0x49>
    94cc:	0f bf 55 fc          	movswl -0x4(%rbp),%edx
    94d0:	8b 45 f8             	mov    -0x8(%rbp),%eax
    94d3:	89 c1                	mov    %eax,%ecx
    94d5:	d3 e2                	shl    %cl,%edx
    94d7:	89 d0                	mov    %edx,%eax
    94d9:	eb 04                	jmp    94df <safe_lshift_func_int16_t_s_s+0x4d>
    94db:	0f b7 45 fc          	movzwl -0x4(%rbp),%eax
    94df:	5d                   	pop    %rbp
    94e0:	c3                   	retq   

00000000000094e1 <safe_lshift_func_int16_t_s_u>:
    94e1:	f3 0f 1e fa          	endbr64 
    94e5:	55                   	push   %rbp
    94e6:	48 89 e5             	mov    %rsp,%rbp
    94e9:	89 f8                	mov    %edi,%eax
    94eb:	89 75 f8             	mov    %esi,-0x8(%rbp)
    94ee:	66 89 45 fc          	mov    %ax,-0x4(%rbp)
    94f2:	66 83 7d fc 00       	cmpw   $0x0,-0x4(%rbp)
    94f7:	78 2b                	js     9524 <safe_lshift_func_int16_t_s_u+0x43>
    94f9:	83 7d f8 1f          	cmpl   $0x1f,-0x8(%rbp)
    94fd:	77 25                	ja     9524 <safe_lshift_func_int16_t_s_u+0x43>
    94ff:	0f bf 55 fc          	movswl -0x4(%rbp),%edx
    9503:	8b 45 f8             	mov    -0x8(%rbp),%eax
    9506:	be ff 7f 00 00       	mov    $0x7fff,%esi
    950b:	89 c1                	mov    %eax,%ecx
    950d:	d3 fe                	sar    %cl,%esi
    950f:	89 f0                	mov    %esi,%eax
    9511:	39 c2                	cmp    %eax,%edx
    9513:	7f 0f                	jg     9524 <safe_lshift_func_int16_t_s_u+0x43>
    9515:	0f bf 55 fc          	movswl -0x4(%rbp),%edx
    9519:	8b 45 f8             	mov    -0x8(%rbp),%eax
    951c:	89 c1                	mov    %eax,%ecx
    951e:	d3 e2                	shl    %cl,%edx
    9520:	89 d0                	mov    %edx,%eax
    9522:	eb 04                	jmp    9528 <safe_lshift_func_int16_t_s_u+0x47>
    9524:	0f b7 45 fc          	movzwl -0x4(%rbp),%eax
    9528:	5d                   	pop    %rbp
    9529:	c3                   	retq   

000000000000952a <safe_rshift_func_int16_t_s_s>:
    952a:	f3 0f 1e fa          	endbr64 
    952e:	55                   	push   %rbp
    952f:	48 89 e5             	mov    %rsp,%rbp
    9532:	89 f8                	mov    %edi,%eax
    9534:	89 75 f8             	mov    %esi,-0x8(%rbp)
    9537:	66 89 45 fc          	mov    %ax,-0x4(%rbp)
    953b:	66 83 7d fc 00       	cmpw   $0x0,-0x4(%rbp)
    9540:	78 1b                	js     955d <safe_rshift_func_int16_t_s_s+0x33>
    9542:	83 7d f8 00          	cmpl   $0x0,-0x8(%rbp)
    9546:	78 15                	js     955d <safe_rshift_func_int16_t_s_s+0x33>
    9548:	83 7d f8 1f          	cmpl   $0x1f,-0x8(%rbp)
    954c:	7f 0f                	jg     955d <safe_rshift_func_int16_t_s_s+0x33>
    954e:	0f bf 55 fc          	movswl -0x4(%rbp),%edx
    9552:	8b 45 f8             	mov    -0x8(%rbp),%eax
    9555:	89 c1                	mov    %eax,%ecx
    9557:	d3 fa                	sar    %cl,%edx
    9559:	89 d0                	mov    %edx,%eax
    955b:	eb 04                	jmp    9561 <safe_rshift_func_int16_t_s_s+0x37>
    955d:	0f b7 45 fc          	movzwl -0x4(%rbp),%eax
    9561:	5d                   	pop    %rbp
    9562:	c3                   	retq   

0000000000009563 <safe_rshift_func_int16_t_s_u>:
    9563:	f3 0f 1e fa          	endbr64 
    9567:	55                   	push   %rbp
    9568:	48 89 e5             	mov    %rsp,%rbp
    956b:	89 f8                	mov    %edi,%eax
    956d:	89 75 f8             	mov    %esi,-0x8(%rbp)
    9570:	66 89 45 fc          	mov    %ax,-0x4(%rbp)
    9574:	66 83 7d fc 00       	cmpw   $0x0,-0x4(%rbp)
    9579:	78 15                	js     9590 <safe_rshift_func_int16_t_s_u+0x2d>
    957b:	83 7d f8 1f          	cmpl   $0x1f,-0x8(%rbp)
    957f:	77 0f                	ja     9590 <safe_rshift_func_int16_t_s_u+0x2d>
    9581:	0f bf 55 fc          	movswl -0x4(%rbp),%edx
    9585:	8b 45 f8             	mov    -0x8(%rbp),%eax
    9588:	89 c1                	mov    %eax,%ecx
    958a:	d3 fa                	sar    %cl,%edx
    958c:	89 d0                	mov    %edx,%eax
    958e:	eb 04                	jmp    9594 <safe_rshift_func_int16_t_s_u+0x31>
    9590:	0f b7 45 fc          	movzwl -0x4(%rbp),%eax
    9594:	5d                   	pop    %rbp
    9595:	c3                   	retq   

0000000000009596 <safe_unary_minus_func_int32_t_s>:
    9596:	f3 0f 1e fa          	endbr64 
    959a:	55                   	push   %rbp
    959b:	48 89 e5             	mov    %rsp,%rbp
    959e:	89 7d fc             	mov    %edi,-0x4(%rbp)
    95a1:	81 7d fc 00 00 00 80 	cmpl   $0x80000000,-0x4(%rbp)
    95a8:	74 07                	je     95b1 <safe_unary_minus_func_int32_t_s+0x1b>
    95aa:	8b 45 fc             	mov    -0x4(%rbp),%eax
    95ad:	f7 d8                	neg    %eax
    95af:	eb 03                	jmp    95b4 <safe_unary_minus_func_int32_t_s+0x1e>
    95b1:	8b 45 fc             	mov    -0x4(%rbp),%eax
    95b4:	5d                   	pop    %rbp
    95b5:	c3                   	retq   

00000000000095b6 <safe_add_func_int32_t_s_s>:
    95b6:	f3 0f 1e fa          	endbr64 
    95ba:	55                   	push   %rbp
    95bb:	48 89 e5             	mov    %rsp,%rbp
    95be:	89 7d fc             	mov    %edi,-0x4(%rbp)
    95c1:	89 75 f8             	mov    %esi,-0x8(%rbp)
    95c4:	83 7d fc 00          	cmpl   $0x0,-0x4(%rbp)
    95c8:	7e 13                	jle    95dd <safe_add_func_int32_t_s_s+0x27>
    95ca:	83 7d f8 00          	cmpl   $0x0,-0x8(%rbp)
    95ce:	7e 0d                	jle    95dd <safe_add_func_int32_t_s_s+0x27>
    95d0:	b8 ff ff ff 7f       	mov    $0x7fffffff,%eax
    95d5:	2b 45 f8             	sub    -0x8(%rbp),%eax
    95d8:	39 45 fc             	cmp    %eax,-0x4(%rbp)
    95db:	7f 23                	jg     9600 <safe_add_func_int32_t_s_s+0x4a>
    95dd:	83 7d fc 00          	cmpl   $0x0,-0x4(%rbp)
    95e1:	79 13                	jns    95f6 <safe_add_func_int32_t_s_s+0x40>
    95e3:	83 7d f8 00          	cmpl   $0x0,-0x8(%rbp)
    95e7:	79 0d                	jns    95f6 <safe_add_func_int32_t_s_s+0x40>
    95e9:	b8 00 00 00 80       	mov    $0x80000000,%eax
    95ee:	2b 45 f8             	sub    -0x8(%rbp),%eax
    95f1:	39 45 fc             	cmp    %eax,-0x4(%rbp)
    95f4:	7c 0a                	jl     9600 <safe_add_func_int32_t_s_s+0x4a>
    95f6:	8b 55 fc             	mov    -0x4(%rbp),%edx
    95f9:	8b 45 f8             	mov    -0x8(%rbp),%eax
    95fc:	01 d0                	add    %edx,%eax
    95fe:	eb 03                	jmp    9603 <safe_add_func_int32_t_s_s+0x4d>
    9600:	8b 45 fc             	mov    -0x4(%rbp),%eax
    9603:	5d                   	pop    %rbp
    9604:	c3                   	retq   

0000000000009605 <safe_sub_func_int32_t_s_s>:
    9605:	f3 0f 1e fa          	endbr64 
    9609:	55                   	push   %rbp
    960a:	48 89 e5             	mov    %rsp,%rbp
    960d:	89 7d fc             	mov    %edi,-0x4(%rbp)
    9610:	89 75 f8             	mov    %esi,-0x8(%rbp)
    9613:	8b 45 fc             	mov    -0x4(%rbp),%eax
    9616:	33 45 f8             	xor    -0x8(%rbp),%eax
    9619:	89 c2                	mov    %eax,%edx
    961b:	8b 45 fc             	mov    -0x4(%rbp),%eax
    961e:	33 45 f8             	xor    -0x8(%rbp),%eax
    9621:	25 00 00 00 80       	and    $0x80000000,%eax
    9626:	33 45 fc             	xor    -0x4(%rbp),%eax
    9629:	2b 45 f8             	sub    -0x8(%rbp),%eax
    962c:	33 45 f8             	xor    -0x8(%rbp),%eax
    962f:	21 d0                	and    %edx,%eax
    9631:	85 c0                	test   %eax,%eax
    9633:	78 08                	js     963d <safe_sub_func_int32_t_s_s+0x38>
    9635:	8b 45 fc             	mov    -0x4(%rbp),%eax
    9638:	2b 45 f8             	sub    -0x8(%rbp),%eax
    963b:	eb 03                	jmp    9640 <safe_sub_func_int32_t_s_s+0x3b>
    963d:	8b 45 fc             	mov    -0x4(%rbp),%eax
    9640:	5d                   	pop    %rbp
    9641:	c3                   	retq   

0000000000009642 <safe_mul_func_int32_t_s_s>:
    9642:	f3 0f 1e fa          	endbr64 
    9646:	55                   	push   %rbp
    9647:	48 89 e5             	mov    %rsp,%rbp
    964a:	89 7d fc             	mov    %edi,-0x4(%rbp)
    964d:	89 75 f8             	mov    %esi,-0x8(%rbp)
    9650:	83 7d fc 00          	cmpl   $0x0,-0x4(%rbp)
    9654:	7e 14                	jle    966a <safe_mul_func_int32_t_s_s+0x28>
    9656:	83 7d f8 00          	cmpl   $0x0,-0x8(%rbp)
    965a:	7e 0e                	jle    966a <safe_mul_func_int32_t_s_s+0x28>
    965c:	b8 ff ff ff 7f       	mov    $0x7fffffff,%eax
    9661:	99                   	cltd   
    9662:	f7 7d f8             	idivl  -0x8(%rbp)
    9665:	39 45 fc             	cmp    %eax,-0x4(%rbp)
    9668:	7f 5d                	jg     96c7 <safe_mul_func_int32_t_s_s+0x85>
    966a:	83 7d fc 00          	cmpl   $0x0,-0x4(%rbp)
    966e:	7e 14                	jle    9684 <safe_mul_func_int32_t_s_s+0x42>
    9670:	83 7d f8 00          	cmpl   $0x0,-0x8(%rbp)
    9674:	7f 0e                	jg     9684 <safe_mul_func_int32_t_s_s+0x42>
    9676:	b8 00 00 00 80       	mov    $0x80000000,%eax
    967b:	99                   	cltd   
    967c:	f7 7d fc             	idivl  -0x4(%rbp)
    967f:	39 45 f8             	cmp    %eax,-0x8(%rbp)
    9682:	7c 43                	jl     96c7 <safe_mul_func_int32_t_s_s+0x85>
    9684:	83 7d fc 00          	cmpl   $0x0,-0x4(%rbp)
    9688:	7f 14                	jg     969e <safe_mul_func_int32_t_s_s+0x5c>
    968a:	83 7d f8 00          	cmpl   $0x0,-0x8(%rbp)
    968e:	7e 0e                	jle    969e <safe_mul_func_int32_t_s_s+0x5c>
    9690:	b8 00 00 00 80       	mov    $0x80000000,%eax
    9695:	99                   	cltd   
    9696:	f7 7d f8             	idivl  -0x8(%rbp)
    9699:	39 45 fc             	cmp    %eax,-0x4(%rbp)
    969c:	7c 29                	jl     96c7 <safe_mul_func_int32_t_s_s+0x85>
    969e:	83 7d fc 00          	cmpl   $0x0,-0x4(%rbp)
    96a2:	7f 1a                	jg     96be <safe_mul_func_int32_t_s_s+0x7c>
    96a4:	83 7d f8 00          	cmpl   $0x0,-0x8(%rbp)
    96a8:	7f 14                	jg     96be <safe_mul_func_int32_t_s_s+0x7c>
    96aa:	83 7d fc 00          	cmpl   $0x0,-0x4(%rbp)
    96ae:	74 0e                	je     96be <safe_mul_func_int32_t_s_s+0x7c>
    96b0:	b8 ff ff ff 7f       	mov    $0x7fffffff,%eax
    96b5:	99                   	cltd   
    96b6:	f7 7d fc             	idivl  -0x4(%rbp)
    96b9:	39 45 f8             	cmp    %eax,-0x8(%rbp)
    96bc:	7c 09                	jl     96c7 <safe_mul_func_int32_t_s_s+0x85>
    96be:	8b 45 fc             	mov    -0x4(%rbp),%eax
    96c1:	0f af 45 f8          	imul   -0x8(%rbp),%eax
    96c5:	eb 03                	jmp    96ca <safe_mul_func_int32_t_s_s+0x88>
    96c7:	8b 45 fc             	mov    -0x4(%rbp),%eax
    96ca:	5d                   	pop    %rbp
    96cb:	c3                   	retq   

00000000000096cc <safe_mod_func_int32_t_s_s>:
    96cc:	f3 0f 1e fa          	endbr64 
    96d0:	55                   	push   %rbp
    96d1:	48 89 e5             	mov    %rsp,%rbp
    96d4:	89 7d fc             	mov    %edi,-0x4(%rbp)
    96d7:	89 75 f8             	mov    %esi,-0x8(%rbp)
    96da:	83 7d f8 00          	cmpl   $0x0,-0x8(%rbp)
    96de:	74 1a                	je     96fa <safe_mod_func_int32_t_s_s+0x2e>
    96e0:	81 7d fc 00 00 00 80 	cmpl   $0x80000000,-0x4(%rbp)
    96e7:	75 06                	jne    96ef <safe_mod_func_int32_t_s_s+0x23>
    96e9:	83 7d f8 ff          	cmpl   $0xffffffff,-0x8(%rbp)
    96ed:	74 0b                	je     96fa <safe_mod_func_int32_t_s_s+0x2e>
    96ef:	8b 45 fc             	mov    -0x4(%rbp),%eax
    96f2:	99                   	cltd   
    96f3:	f7 7d f8             	idivl  -0x8(%rbp)
    96f6:	89 d0                	mov    %edx,%eax
    96f8:	eb 03                	jmp    96fd <safe_mod_func_int32_t_s_s+0x31>
    96fa:	8b 45 fc             	mov    -0x4(%rbp),%eax
    96fd:	5d                   	pop    %rbp
    96fe:	c3                   	retq   

00000000000096ff <safe_div_func_int32_t_s_s>:
    96ff:	f3 0f 1e fa          	endbr64 
    9703:	55                   	push   %rbp
    9704:	48 89 e5             	mov    %rsp,%rbp
    9707:	89 7d fc             	mov    %edi,-0x4(%rbp)
    970a:	89 75 f8             	mov    %esi,-0x8(%rbp)
    970d:	83 7d f8 00          	cmpl   $0x0,-0x8(%rbp)
    9711:	74 18                	je     972b <safe_div_func_int32_t_s_s+0x2c>
    9713:	81 7d fc 00 00 00 80 	cmpl   $0x80000000,-0x4(%rbp)
    971a:	75 06                	jne    9722 <safe_div_func_int32_t_s_s+0x23>
    971c:	83 7d f8 ff          	cmpl   $0xffffffff,-0x8(%rbp)
    9720:	74 09                	je     972b <safe_div_func_int32_t_s_s+0x2c>
    9722:	8b 45 fc             	mov    -0x4(%rbp),%eax
    9725:	99                   	cltd   
    9726:	f7 7d f8             	idivl  -0x8(%rbp)
    9729:	eb 03                	jmp    972e <safe_div_func_int32_t_s_s+0x2f>
    972b:	8b 45 fc             	mov    -0x4(%rbp),%eax
    972e:	5d                   	pop    %rbp
    972f:	c3                   	retq   

0000000000009730 <safe_lshift_func_int32_t_s_s>:
    9730:	f3 0f 1e fa          	endbr64 
    9734:	55                   	push   %rbp
    9735:	48 89 e5             	mov    %rsp,%rbp
    9738:	89 7d fc             	mov    %edi,-0x4(%rbp)
    973b:	89 75 f8             	mov    %esi,-0x8(%rbp)
    973e:	83 7d fc 00          	cmpl   $0x0,-0x4(%rbp)
    9742:	78 2d                	js     9771 <safe_lshift_func_int32_t_s_s+0x41>
    9744:	83 7d f8 00          	cmpl   $0x0,-0x8(%rbp)
    9748:	78 27                	js     9771 <safe_lshift_func_int32_t_s_s+0x41>
    974a:	83 7d f8 1f          	cmpl   $0x1f,-0x8(%rbp)
    974e:	7f 21                	jg     9771 <safe_lshift_func_int32_t_s_s+0x41>
    9750:	8b 45 f8             	mov    -0x8(%rbp),%eax
    9753:	ba ff ff ff 7f       	mov    $0x7fffffff,%edx
    9758:	89 c1                	mov    %eax,%ecx
    975a:	d3 fa                	sar    %cl,%edx
    975c:	89 d0                	mov    %edx,%eax
    975e:	39 45 fc             	cmp    %eax,-0x4(%rbp)
    9761:	7f 0e                	jg     9771 <safe_lshift_func_int32_t_s_s+0x41>
    9763:	8b 45 f8             	mov    -0x8(%rbp),%eax
    9766:	8b 55 fc             	mov    -0x4(%rbp),%edx
    9769:	89 c1                	mov    %eax,%ecx
    976b:	d3 e2                	shl    %cl,%edx
    976d:	89 d0                	mov    %edx,%eax
    976f:	eb 03                	jmp    9774 <safe_lshift_func_int32_t_s_s+0x44>
    9771:	8b 45 fc             	mov    -0x4(%rbp),%eax
    9774:	5d                   	pop    %rbp
    9775:	c3                   	retq   

0000000000009776 <safe_lshift_func_int32_t_s_u>:
    9776:	f3 0f 1e fa          	endbr64 
    977a:	55                   	push   %rbp
    977b:	48 89 e5             	mov    %rsp,%rbp
    977e:	89 7d fc             	mov    %edi,-0x4(%rbp)
    9781:	89 75 f8             	mov    %esi,-0x8(%rbp)
    9784:	83 7d fc 00          	cmpl   $0x0,-0x4(%rbp)
    9788:	78 27                	js     97b1 <safe_lshift_func_int32_t_s_u+0x3b>
    978a:	83 7d f8 1f          	cmpl   $0x1f,-0x8(%rbp)
    978e:	77 21                	ja     97b1 <safe_lshift_func_int32_t_s_u+0x3b>
    9790:	8b 45 f8             	mov    -0x8(%rbp),%eax
    9793:	ba ff ff ff 7f       	mov    $0x7fffffff,%edx
    9798:	89 c1                	mov    %eax,%ecx
    979a:	d3 fa                	sar    %cl,%edx
    979c:	89 d0                	mov    %edx,%eax
    979e:	39 45 fc             	cmp    %eax,-0x4(%rbp)
    97a1:	7f 0e                	jg     97b1 <safe_lshift_func_int32_t_s_u+0x3b>
    97a3:	8b 45 f8             	mov    -0x8(%rbp),%eax
    97a6:	8b 55 fc             	mov    -0x4(%rbp),%edx
    97a9:	89 c1                	mov    %eax,%ecx
    97ab:	d3 e2                	shl    %cl,%edx
    97ad:	89 d0                	mov    %edx,%eax
    97af:	eb 03                	jmp    97b4 <safe_lshift_func_int32_t_s_u+0x3e>
    97b1:	8b 45 fc             	mov    -0x4(%rbp),%eax
    97b4:	5d                   	pop    %rbp
    97b5:	c3                   	retq   

00000000000097b6 <safe_rshift_func_int32_t_s_s>:
    97b6:	f3 0f 1e fa          	endbr64 
    97ba:	55                   	push   %rbp
    97bb:	48 89 e5             	mov    %rsp,%rbp
    97be:	89 7d fc             	mov    %edi,-0x4(%rbp)
    97c1:	89 75 f8             	mov    %esi,-0x8(%rbp)
    97c4:	83 7d fc 00          	cmpl   $0x0,-0x4(%rbp)
    97c8:	78 1a                	js     97e4 <safe_rshift_func_int32_t_s_s+0x2e>
    97ca:	83 7d f8 00          	cmpl   $0x0,-0x8(%rbp)
    97ce:	78 14                	js     97e4 <safe_rshift_func_int32_t_s_s+0x2e>
    97d0:	83 7d f8 1f          	cmpl   $0x1f,-0x8(%rbp)
    97d4:	7f 0e                	jg     97e4 <safe_rshift_func_int32_t_s_s+0x2e>
    97d6:	8b 45 f8             	mov    -0x8(%rbp),%eax
    97d9:	8b 55 fc             	mov    -0x4(%rbp),%edx
    97dc:	89 c1                	mov    %eax,%ecx
    97de:	d3 fa                	sar    %cl,%edx
    97e0:	89 d0                	mov    %edx,%eax
    97e2:	eb 03                	jmp    97e7 <safe_rshift_func_int32_t_s_s+0x31>
    97e4:	8b 45 fc             	mov    -0x4(%rbp),%eax
    97e7:	5d                   	pop    %rbp
    97e8:	c3                   	retq   

00000000000097e9 <safe_rshift_func_int32_t_s_u>:
    97e9:	f3 0f 1e fa          	endbr64 
    97ed:	55                   	push   %rbp
    97ee:	48 89 e5             	mov    %rsp,%rbp
    97f1:	89 7d fc             	mov    %edi,-0x4(%rbp)
    97f4:	89 75 f8             	mov    %esi,-0x8(%rbp)
    97f7:	83 7d fc 00          	cmpl   $0x0,-0x4(%rbp)
    97fb:	78 14                	js     9811 <safe_rshift_func_int32_t_s_u+0x28>
    97fd:	83 7d f8 1f          	cmpl   $0x1f,-0x8(%rbp)
    9801:	77 0e                	ja     9811 <safe_rshift_func_int32_t_s_u+0x28>
    9803:	8b 45 f8             	mov    -0x8(%rbp),%eax
    9806:	8b 55 fc             	mov    -0x4(%rbp),%edx
    9809:	89 c1                	mov    %eax,%ecx
    980b:	d3 fa                	sar    %cl,%edx
    980d:	89 d0                	mov    %edx,%eax
    980f:	eb 03                	jmp    9814 <safe_rshift_func_int32_t_s_u+0x2b>
    9811:	8b 45 fc             	mov    -0x4(%rbp),%eax
    9814:	5d                   	pop    %rbp
    9815:	c3                   	retq   

0000000000009816 <safe_unary_minus_func_int64_t_s>:
    9816:	f3 0f 1e fa          	endbr64 
    981a:	55                   	push   %rbp
    981b:	48 89 e5             	mov    %rsp,%rbp
    981e:	48 89 7d f8          	mov    %rdi,-0x8(%rbp)
    9822:	48 b8 00 00 00 00 00 	movabs $0x8000000000000000,%rax
    9829:	00 00 80 
    982c:	48 39 45 f8          	cmp    %rax,-0x8(%rbp)
    9830:	74 09                	je     983b <safe_unary_minus_func_int64_t_s+0x25>
    9832:	48 8b 45 f8          	mov    -0x8(%rbp),%rax
    9836:	48 f7 d8             	neg    %rax
    9839:	eb 04                	jmp    983f <safe_unary_minus_func_int64_t_s+0x29>
    983b:	48 8b 45 f8          	mov    -0x8(%rbp),%rax
    983f:	5d                   	pop    %rbp
    9840:	c3                   	retq   

0000000000009841 <safe_add_func_int64_t_s_s>:
    9841:	f3 0f 1e fa          	endbr64 
    9845:	55                   	push   %rbp
    9846:	48 89 e5             	mov    %rsp,%rbp
    9849:	48 89 7d f8          	mov    %rdi,-0x8(%rbp)
    984d:	48 89 75 f0          	mov    %rsi,-0x10(%rbp)
    9851:	48 83 7d f8 00       	cmpq   $0x0,-0x8(%rbp)
    9856:	7e 1b                	jle    9873 <safe_add_func_int64_t_s_s+0x32>
    9858:	48 83 7d f0 00       	cmpq   $0x0,-0x10(%rbp)
    985d:	7e 14                	jle    9873 <safe_add_func_int64_t_s_s+0x32>
    985f:	48 b8 ff ff ff ff ff 	movabs $0x7fffffffffffffff,%rax
    9866:	ff ff 7f 
    9869:	48 2b 45 f0          	sub    -0x10(%rbp),%rax
    986d:	48 39 45 f8          	cmp    %rax,-0x8(%rbp)
    9871:	7f 2f                	jg     98a2 <safe_add_func_int64_t_s_s+0x61>
    9873:	48 83 7d f8 00       	cmpq   $0x0,-0x8(%rbp)
    9878:	79 1b                	jns    9895 <safe_add_func_int64_t_s_s+0x54>
    987a:	48 83 7d f0 00       	cmpq   $0x0,-0x10(%rbp)
    987f:	79 14                	jns    9895 <safe_add_func_int64_t_s_s+0x54>
    9881:	48 b8 00 00 00 00 00 	movabs $0x8000000000000000,%rax
    9888:	00 00 80 
    988b:	48 2b 45 f0          	sub    -0x10(%rbp),%rax
    988f:	48 39 45 f8          	cmp    %rax,-0x8(%rbp)
    9893:	7c 0d                	jl     98a2 <safe_add_func_int64_t_s_s+0x61>
    9895:	48 8b 55 f8          	mov    -0x8(%rbp),%rdx
    9899:	48 8b 45 f0          	mov    -0x10(%rbp),%rax
    989d:	48 01 d0             	add    %rdx,%rax
    98a0:	eb 04                	jmp    98a6 <safe_add_func_int64_t_s_s+0x65>
    98a2:	48 8b 45 f8          	mov    -0x8(%rbp),%rax
    98a6:	5d                   	pop    %rbp
    98a7:	c3                   	retq   

00000000000098a8 <safe_sub_func_int64_t_s_s>:
    98a8:	f3 0f 1e fa          	endbr64 
    98ac:	55                   	push   %rbp
    98ad:	48 89 e5             	mov    %rsp,%rbp
    98b0:	48 89 7d f8          	mov    %rdi,-0x8(%rbp)
    98b4:	48 89 75 f0          	mov    %rsi,-0x10(%rbp)
    98b8:	48 8b 45 f8          	mov    -0x8(%rbp),%rax
    98bc:	48 33 45 f0          	xor    -0x10(%rbp),%rax
    98c0:	48 89 c2             	mov    %rax,%rdx
    98c3:	48 8b 45 f8          	mov    -0x8(%rbp),%rax
    98c7:	48 33 45 f0          	xor    -0x10(%rbp),%rax
    98cb:	48 b9 00 00 00 00 00 	movabs $0x8000000000000000,%rcx
    98d2:	00 00 80 
    98d5:	48 21 c8             	and    %rcx,%rax
    98d8:	48 33 45 f8          	xor    -0x8(%rbp),%rax
    98dc:	48 2b 45 f0          	sub    -0x10(%rbp),%rax
    98e0:	48 33 45 f0          	xor    -0x10(%rbp),%rax
    98e4:	48 21 d0             	and    %rdx,%rax
    98e7:	48 85 c0             	test   %rax,%rax
    98ea:	78 0a                	js     98f6 <safe_sub_func_int64_t_s_s+0x4e>
    98ec:	48 8b 45 f8          	mov    -0x8(%rbp),%rax
    98f0:	48 2b 45 f0          	sub    -0x10(%rbp),%rax
    98f4:	eb 04                	jmp    98fa <safe_sub_func_int64_t_s_s+0x52>
    98f6:	48 8b 45 f8          	mov    -0x8(%rbp),%rax
    98fa:	5d                   	pop    %rbp
    98fb:	c3                   	retq   

00000000000098fc <safe_mul_func_int64_t_s_s>:
    98fc:	f3 0f 1e fa          	endbr64 
    9900:	55                   	push   %rbp
    9901:	48 89 e5             	mov    %rsp,%rbp
    9904:	48 89 7d f8          	mov    %rdi,-0x8(%rbp)
    9908:	48 89 75 f0          	mov    %rsi,-0x10(%rbp)
    990c:	48 83 7d f8 00       	cmpq   $0x0,-0x8(%rbp)
    9911:	7e 1d                	jle    9930 <safe_mul_func_int64_t_s_s+0x34>
    9913:	48 83 7d f0 00       	cmpq   $0x0,-0x10(%rbp)
    9918:	7e 16                	jle    9930 <safe_mul_func_int64_t_s_s+0x34>
    991a:	48 b8 ff ff ff ff ff 	movabs $0x7fffffffffffffff,%rax
    9921:	ff ff 7f 
    9924:	48 99                	cqto   
    9926:	48 f7 7d f0          	idivq  -0x10(%rbp)
    992a:	48 39 45 f8          	cmp    %rax,-0x8(%rbp)
    992e:	7f 7e                	jg     99ae <safe_mul_func_int64_t_s_s+0xb2>
    9930:	48 83 7d f8 00       	cmpq   $0x0,-0x8(%rbp)
    9935:	7e 1d                	jle    9954 <safe_mul_func_int64_t_s_s+0x58>
    9937:	48 83 7d f0 00       	cmpq   $0x0,-0x10(%rbp)
    993c:	7f 16                	jg     9954 <safe_mul_func_int64_t_s_s+0x58>
    993e:	48 b8 00 00 00 00 00 	movabs $0x8000000000000000,%rax
    9945:	00 00 80 
    9948:	48 99                	cqto   
    994a:	48 f7 7d f8          	idivq  -0x8(%rbp)
    994e:	48 39 45 f0          	cmp    %rax,-0x10(%rbp)
    9952:	7c 5a                	jl     99ae <safe_mul_func_int64_t_s_s+0xb2>
    9954:	48 83 7d f8 00       	cmpq   $0x0,-0x8(%rbp)
    9959:	7f 1d                	jg     9978 <safe_mul_func_int64_t_s_s+0x7c>
    995b:	48 83 7d f0 00       	cmpq   $0x0,-0x10(%rbp)
    9960:	7e 16                	jle    9978 <safe_mul_func_int64_t_s_s+0x7c>
    9962:	48 b8 00 00 00 00 00 	movabs $0x8000000000000000,%rax
    9969:	00 00 80 
    996c:	48 99                	cqto   
    996e:	48 f7 7d f0          	idivq  -0x10(%rbp)
    9972:	48 39 45 f8          	cmp    %rax,-0x8(%rbp)
    9976:	7c 36                	jl     99ae <safe_mul_func_int64_t_s_s+0xb2>
    9978:	48 83 7d f8 00       	cmpq   $0x0,-0x8(%rbp)
    997d:	7f 24                	jg     99a3 <safe_mul_func_int64_t_s_s+0xa7>
    997f:	48 83 7d f0 00       	cmpq   $0x0,-0x10(%rbp)
    9984:	7f 1d                	jg     99a3 <safe_mul_func_int64_t_s_s+0xa7>
    9986:	48 83 7d f8 00       	cmpq   $0x0,-0x8(%rbp)
    998b:	74 16                	je     99a3 <safe_mul_func_int64_t_s_s+0xa7>
    998d:	48 b8 ff ff ff ff ff 	movabs $0x7fffffffffffffff,%rax
    9994:	ff ff 7f 
    9997:	48 99                	cqto   
    9999:	48 f7 7d f8          	idivq  -0x8(%rbp)
    999d:	48 39 45 f0          	cmp    %rax,-0x10(%rbp)
    99a1:	7c 0b                	jl     99ae <safe_mul_func_int64_t_s_s+0xb2>
    99a3:	48 8b 45 f8          	mov    -0x8(%rbp),%rax
    99a7:	48 0f af 45 f0       	imul   -0x10(%rbp),%rax
    99ac:	eb 04                	jmp    99b2 <safe_mul_func_int64_t_s_s+0xb6>
    99ae:	48 8b 45 f8          	mov    -0x8(%rbp),%rax
    99b2:	5d                   	pop    %rbp
    99b3:	c3                   	retq   

00000000000099b4 <safe_mod_func_int64_t_s_s>:
    99b4:	f3 0f 1e fa          	endbr64 
    99b8:	55                   	push   %rbp
    99b9:	48 89 e5             	mov    %rsp,%rbp
    99bc:	48 89 7d f8          	mov    %rdi,-0x8(%rbp)
    99c0:	48 89 75 f0          	mov    %rsi,-0x10(%rbp)
    99c4:	48 83 7d f0 00       	cmpq   $0x0,-0x10(%rbp)
    99c9:	74 26                	je     99f1 <safe_mod_func_int64_t_s_s+0x3d>
    99cb:	48 b8 00 00 00 00 00 	movabs $0x8000000000000000,%rax
    99d2:	00 00 80 
    99d5:	48 39 45 f8          	cmp    %rax,-0x8(%rbp)
    99d9:	75 07                	jne    99e2 <safe_mod_func_int64_t_s_s+0x2e>
    99db:	48 83 7d f0 ff       	cmpq   $0xffffffffffffffff,-0x10(%rbp)
    99e0:	74 0f                	je     99f1 <safe_mod_func_int64_t_s_s+0x3d>
    99e2:	48 8b 45 f8          	mov    -0x8(%rbp),%rax
    99e6:	48 99                	cqto   
    99e8:	48 f7 7d f0          	idivq  -0x10(%rbp)
    99ec:	48 89 d0             	mov    %rdx,%rax
    99ef:	eb 04                	jmp    99f5 <safe_mod_func_int64_t_s_s+0x41>
    99f1:	48 8b 45 f8          	mov    -0x8(%rbp),%rax
    99f5:	5d                   	pop    %rbp
    99f6:	c3                   	retq   

00000000000099f7 <safe_div_func_int64_t_s_s>:
    99f7:	f3 0f 1e fa          	endbr64 
    99fb:	55                   	push   %rbp
    99fc:	48 89 e5             	mov    %rsp,%rbp
    99ff:	48 89 7d f8          	mov    %rdi,-0x8(%rbp)
    9a03:	48 89 75 f0          	mov    %rsi,-0x10(%rbp)
    9a07:	48 83 7d f0 00       	cmpq   $0x0,-0x10(%rbp)
    9a0c:	74 23                	je     9a31 <safe_div_func_int64_t_s_s+0x3a>
    9a0e:	48 b8 00 00 00 00 00 	movabs $0x8000000000000000,%rax
    9a15:	00 00 80 
    9a18:	48 39 45 f8          	cmp    %rax,-0x8(%rbp)
    9a1c:	75 07                	jne    9a25 <safe_div_func_int64_t_s_s+0x2e>
    9a1e:	48 83 7d f0 ff       	cmpq   $0xffffffffffffffff,-0x10(%rbp)
    9a23:	74 0c                	je     9a31 <safe_div_func_int64_t_s_s+0x3a>
    9a25:	48 8b 45 f8          	mov    -0x8(%rbp),%rax
    9a29:	48 99                	cqto   
    9a2b:	48 f7 7d f0          	idivq  -0x10(%rbp)
    9a2f:	eb 04                	jmp    9a35 <safe_div_func_int64_t_s_s+0x3e>
    9a31:	48 8b 45 f8          	mov    -0x8(%rbp),%rax
    9a35:	5d                   	pop    %rbp
    9a36:	c3                   	retq   

0000000000009a37 <safe_lshift_func_int64_t_s_s>:
    9a37:	f3 0f 1e fa          	endbr64 
    9a3b:	55                   	push   %rbp
    9a3c:	48 89 e5             	mov    %rsp,%rbp
    9a3f:	48 89 7d f8          	mov    %rdi,-0x8(%rbp)
    9a43:	89 75 f4             	mov    %esi,-0xc(%rbp)
    9a46:	48 83 7d f8 00       	cmpq   $0x0,-0x8(%rbp)
    9a4b:	78 38                	js     9a85 <safe_lshift_func_int64_t_s_s+0x4e>
    9a4d:	83 7d f4 00          	cmpl   $0x0,-0xc(%rbp)
    9a51:	78 32                	js     9a85 <safe_lshift_func_int64_t_s_s+0x4e>
    9a53:	83 7d f4 1f          	cmpl   $0x1f,-0xc(%rbp)
    9a57:	7f 2c                	jg     9a85 <safe_lshift_func_int64_t_s_s+0x4e>
    9a59:	8b 45 f4             	mov    -0xc(%rbp),%eax
    9a5c:	48 ba ff ff ff ff ff 	movabs $0x7fffffffffffffff,%rdx
    9a63:	ff ff 7f 
    9a66:	89 c1                	mov    %eax,%ecx
    9a68:	48 d3 fa             	sar    %cl,%rdx
    9a6b:	48 89 d0             	mov    %rdx,%rax
    9a6e:	48 39 45 f8          	cmp    %rax,-0x8(%rbp)
    9a72:	7f 11                	jg     9a85 <safe_lshift_func_int64_t_s_s+0x4e>
    9a74:	8b 45 f4             	mov    -0xc(%rbp),%eax
    9a77:	48 8b 55 f8          	mov    -0x8(%rbp),%rdx
    9a7b:	89 c1                	mov    %eax,%ecx
    9a7d:	48 d3 e2             	shl    %cl,%rdx
    9a80:	48 89 d0             	mov    %rdx,%rax
    9a83:	eb 04                	jmp    9a89 <safe_lshift_func_int64_t_s_s+0x52>
    9a85:	48 8b 45 f8          	mov    -0x8(%rbp),%rax
    9a89:	5d                   	pop    %rbp
    9a8a:	c3                   	retq   

0000000000009a8b <safe_lshift_func_int64_t_s_u>:
    9a8b:	f3 0f 1e fa          	endbr64 
    9a8f:	55                   	push   %rbp
    9a90:	48 89 e5             	mov    %rsp,%rbp
    9a93:	48 89 7d f8          	mov    %rdi,-0x8(%rbp)
    9a97:	89 75 f4             	mov    %esi,-0xc(%rbp)
    9a9a:	48 83 7d f8 00       	cmpq   $0x0,-0x8(%rbp)
    9a9f:	78 32                	js     9ad3 <safe_lshift_func_int64_t_s_u+0x48>
    9aa1:	83 7d f4 1f          	cmpl   $0x1f,-0xc(%rbp)
    9aa5:	77 2c                	ja     9ad3 <safe_lshift_func_int64_t_s_u+0x48>
    9aa7:	8b 45 f4             	mov    -0xc(%rbp),%eax
    9aaa:	48 ba ff ff ff ff ff 	movabs $0x7fffffffffffffff,%rdx
    9ab1:	ff ff 7f 
    9ab4:	89 c1                	mov    %eax,%ecx
    9ab6:	48 d3 fa             	sar    %cl,%rdx
    9ab9:	48 89 d0             	mov    %rdx,%rax
    9abc:	48 39 45 f8          	cmp    %rax,-0x8(%rbp)
    9ac0:	7f 11                	jg     9ad3 <safe_lshift_func_int64_t_s_u+0x48>
    9ac2:	8b 45 f4             	mov    -0xc(%rbp),%eax
    9ac5:	48 8b 55 f8          	mov    -0x8(%rbp),%rdx
    9ac9:	89 c1                	mov    %eax,%ecx
    9acb:	48 d3 e2             	shl    %cl,%rdx
    9ace:	48 89 d0             	mov    %rdx,%rax
    9ad1:	eb 04                	jmp    9ad7 <safe_lshift_func_int64_t_s_u+0x4c>
    9ad3:	48 8b 45 f8          	mov    -0x8(%rbp),%rax
    9ad7:	5d                   	pop    %rbp
    9ad8:	c3                   	retq   

0000000000009ad9 <safe_rshift_func_int64_t_s_s>:
    9ad9:	f3 0f 1e fa          	endbr64 
    9add:	55                   	push   %rbp
    9ade:	48 89 e5             	mov    %rsp,%rbp
    9ae1:	48 89 7d f8          	mov    %rdi,-0x8(%rbp)
    9ae5:	89 75 f4             	mov    %esi,-0xc(%rbp)
    9ae8:	48 83 7d f8 00       	cmpq   $0x0,-0x8(%rbp)
    9aed:	78 1d                	js     9b0c <safe_rshift_func_int64_t_s_s+0x33>
    9aef:	83 7d f4 00          	cmpl   $0x0,-0xc(%rbp)
    9af3:	78 17                	js     9b0c <safe_rshift_func_int64_t_s_s+0x33>
    9af5:	83 7d f4 1f          	cmpl   $0x1f,-0xc(%rbp)
    9af9:	7f 11                	jg     9b0c <safe_rshift_func_int64_t_s_s+0x33>
    9afb:	8b 45 f4             	mov    -0xc(%rbp),%eax
    9afe:	48 8b 55 f8          	mov    -0x8(%rbp),%rdx
    9b02:	89 c1                	mov    %eax,%ecx
    9b04:	48 d3 fa             	sar    %cl,%rdx
    9b07:	48 89 d0             	mov    %rdx,%rax
    9b0a:	eb 04                	jmp    9b10 <safe_rshift_func_int64_t_s_s+0x37>
    9b0c:	48 8b 45 f8          	mov    -0x8(%rbp),%rax
    9b10:	5d                   	pop    %rbp
    9b11:	c3                   	retq   

0000000000009b12 <safe_rshift_func_int64_t_s_u>:
    9b12:	f3 0f 1e fa          	endbr64 
    9b16:	55                   	push   %rbp
    9b17:	48 89 e5             	mov    %rsp,%rbp
    9b1a:	48 89 7d f8          	mov    %rdi,-0x8(%rbp)
    9b1e:	89 75 f4             	mov    %esi,-0xc(%rbp)
    9b21:	48 83 7d f8 00       	cmpq   $0x0,-0x8(%rbp)
    9b26:	78 17                	js     9b3f <safe_rshift_func_int64_t_s_u+0x2d>
    9b28:	83 7d f4 1f          	cmpl   $0x1f,-0xc(%rbp)
    9b2c:	77 11                	ja     9b3f <safe_rshift_func_int64_t_s_u+0x2d>
    9b2e:	8b 45 f4             	mov    -0xc(%rbp),%eax
    9b31:	48 8b 55 f8          	mov    -0x8(%rbp),%rdx
    9b35:	89 c1                	mov    %eax,%ecx
    9b37:	48 d3 fa             	sar    %cl,%rdx
    9b3a:	48 89 d0             	mov    %rdx,%rax
    9b3d:	eb 04                	jmp    9b43 <safe_rshift_func_int64_t_s_u+0x31>
    9b3f:	48 8b 45 f8          	mov    -0x8(%rbp),%rax
    9b43:	5d                   	pop    %rbp
    9b44:	c3                   	retq   

0000000000009b45 <safe_unary_minus_func_uint8_t_u>:
    9b45:	f3 0f 1e fa          	endbr64 
    9b49:	55                   	push   %rbp
    9b4a:	48 89 e5             	mov    %rsp,%rbp
    9b4d:	89 f8                	mov    %edi,%eax
    9b4f:	88 45 fc             	mov    %al,-0x4(%rbp)
    9b52:	0f b6 45 fc          	movzbl -0x4(%rbp),%eax
    9b56:	f7 d8                	neg    %eax
    9b58:	5d                   	pop    %rbp
    9b59:	c3                   	retq   

0000000000009b5a <safe_add_func_uint8_t_u_u>:
    9b5a:	f3 0f 1e fa          	endbr64 
    9b5e:	55                   	push   %rbp
    9b5f:	48 89 e5             	mov    %rsp,%rbp
    9b62:	89 fa                	mov    %edi,%edx
    9b64:	89 f0                	mov    %esi,%eax
    9b66:	88 55 fc             	mov    %dl,-0x4(%rbp)
    9b69:	88 45 f8             	mov    %al,-0x8(%rbp)
    9b6c:	0f b6 55 fc          	movzbl -0x4(%rbp),%edx
    9b70:	0f b6 45 f8          	movzbl -0x8(%rbp),%eax
    9b74:	01 d0                	add    %edx,%eax
    9b76:	5d                   	pop    %rbp
    9b77:	c3                   	retq   

0000000000009b78 <safe_sub_func_uint8_t_u_u>:
    9b78:	f3 0f 1e fa          	endbr64 
    9b7c:	55                   	push   %rbp
    9b7d:	48 89 e5             	mov    %rsp,%rbp
    9b80:	89 fa                	mov    %edi,%edx
    9b82:	89 f0                	mov    %esi,%eax
    9b84:	88 55 fc             	mov    %dl,-0x4(%rbp)
    9b87:	88 45 f8             	mov    %al,-0x8(%rbp)
    9b8a:	0f b6 45 fc          	movzbl -0x4(%rbp),%eax
    9b8e:	2a 45 f8             	sub    -0x8(%rbp),%al
    9b91:	5d                   	pop    %rbp
    9b92:	c3                   	retq   

0000000000009b93 <safe_mul_func_uint8_t_u_u>:
    9b93:	f3 0f 1e fa          	endbr64 
    9b97:	55                   	push   %rbp
    9b98:	48 89 e5             	mov    %rsp,%rbp
    9b9b:	89 fa                	mov    %edi,%edx
    9b9d:	89 f0                	mov    %esi,%eax
    9b9f:	88 55 fc             	mov    %dl,-0x4(%rbp)
    9ba2:	88 45 f8             	mov    %al,-0x8(%rbp)
    9ba5:	0f b6 45 fc          	movzbl -0x4(%rbp),%eax
    9ba9:	f6 65 f8             	mulb   -0x8(%rbp)
    9bac:	5d                   	pop    %rbp
    9bad:	c3                   	retq   

0000000000009bae <safe_mod_func_uint8_t_u_u>:
    9bae:	f3 0f 1e fa          	endbr64 
    9bb2:	55                   	push   %rbp
    9bb3:	48 89 e5             	mov    %rsp,%rbp
    9bb6:	89 fa                	mov    %edi,%edx
    9bb8:	89 f0                	mov    %esi,%eax
    9bba:	88 55 fc             	mov    %dl,-0x4(%rbp)
    9bbd:	88 45 f8             	mov    %al,-0x8(%rbp)
    9bc0:	80 7d f8 00          	cmpb   $0x0,-0x8(%rbp)
    9bc4:	74 0f                	je     9bd5 <safe_mod_func_uint8_t_u_u+0x27>
    9bc6:	0f b6 45 fc          	movzbl -0x4(%rbp),%eax
    9bca:	0f b6 c0             	movzbl %al,%eax
    9bcd:	f6 75 f8             	divb   -0x8(%rbp)
    9bd0:	0f b6 c4             	movzbl %ah,%eax
    9bd3:	eb 04                	jmp    9bd9 <safe_mod_func_uint8_t_u_u+0x2b>
    9bd5:	0f b6 45 fc          	movzbl -0x4(%rbp),%eax
    9bd9:	5d                   	pop    %rbp
    9bda:	c3                   	retq   

0000000000009bdb <safe_div_func_uint8_t_u_u>:
    9bdb:	f3 0f 1e fa          	endbr64 
    9bdf:	55                   	push   %rbp
    9be0:	48 89 e5             	mov    %rsp,%rbp
    9be3:	89 fa                	mov    %edi,%edx
    9be5:	89 f0                	mov    %esi,%eax
    9be7:	88 55 fc             	mov    %dl,-0x4(%rbp)
    9bea:	88 45 f8             	mov    %al,-0x8(%rbp)
    9bed:	80 7d f8 00          	cmpb   $0x0,-0x8(%rbp)
    9bf1:	74 0c                	je     9bff <safe_div_func_uint8_t_u_u+0x24>
    9bf3:	0f b6 45 fc          	movzbl -0x4(%rbp),%eax
    9bf7:	0f b6 c0             	movzbl %al,%eax
    9bfa:	f6 75 f8             	divb   -0x8(%rbp)
    9bfd:	eb 04                	jmp    9c03 <safe_div_func_uint8_t_u_u+0x28>
    9bff:	0f b6 45 fc          	movzbl -0x4(%rbp),%eax
    9c03:	5d                   	pop    %rbp
    9c04:	c3                   	retq   

0000000000009c05 <safe_lshift_func_uint8_t_u_s>:
    9c05:	f3 0f 1e fa          	endbr64 
    9c09:	55                   	push   %rbp
    9c0a:	48 89 e5             	mov    %rsp,%rbp
    9c0d:	89 f8                	mov    %edi,%eax
    9c0f:	89 75 f8             	mov    %esi,-0x8(%rbp)
    9c12:	88 45 fc             	mov    %al,-0x4(%rbp)
    9c15:	83 7d f8 00          	cmpl   $0x0,-0x8(%rbp)
    9c19:	78 2b                	js     9c46 <safe_lshift_func_uint8_t_u_s+0x41>
    9c1b:	83 7d f8 1f          	cmpl   $0x1f,-0x8(%rbp)
    9c1f:	7f 25                	jg     9c46 <safe_lshift_func_uint8_t_u_s+0x41>
    9c21:	0f b6 55 fc          	movzbl -0x4(%rbp),%edx
    9c25:	8b 45 f8             	mov    -0x8(%rbp),%eax
    9c28:	be ff 00 00 00       	mov    $0xff,%esi
    9c2d:	89 c1                	mov    %eax,%ecx
    9c2f:	d3 fe                	sar    %cl,%esi
    9c31:	89 f0                	mov    %esi,%eax
    9c33:	39 c2                	cmp    %eax,%edx
    9c35:	7f 0f                	jg     9c46 <safe_lshift_func_uint8_t_u_s+0x41>
    9c37:	0f b6 55 fc          	movzbl -0x4(%rbp),%edx
    9c3b:	8b 45 f8             	mov    -0x8(%rbp),%eax
    9c3e:	89 c1                	mov    %eax,%ecx
    9c40:	d3 e2                	shl    %cl,%edx
    9c42:	89 d0                	mov    %edx,%eax
    9c44:	eb 04                	jmp    9c4a <safe_lshift_func_uint8_t_u_s+0x45>
    9c46:	0f b6 45 fc          	movzbl -0x4(%rbp),%eax
    9c4a:	5d                   	pop    %rbp
    9c4b:	c3                   	retq   

0000000000009c4c <safe_lshift_func_uint8_t_u_u>:
    9c4c:	f3 0f 1e fa          	endbr64 
    9c50:	55                   	push   %rbp
    9c51:	48 89 e5             	mov    %rsp,%rbp
    9c54:	89 f8                	mov    %edi,%eax
    9c56:	89 75 f8             	mov    %esi,-0x8(%rbp)
    9c59:	88 45 fc             	mov    %al,-0x4(%rbp)
    9c5c:	83 7d f8 1f          	cmpl   $0x1f,-0x8(%rbp)
    9c60:	77 25                	ja     9c87 <safe_lshift_func_uint8_t_u_u+0x3b>
    9c62:	0f b6 55 fc          	movzbl -0x4(%rbp),%edx
    9c66:	8b 45 f8             	mov    -0x8(%rbp),%eax
    9c69:	be ff 00 00 00       	mov    $0xff,%esi
    9c6e:	89 c1                	mov    %eax,%ecx
    9c70:	d3 fe                	sar    %cl,%esi
    9c72:	89 f0                	mov    %esi,%eax
    9c74:	39 c2                	cmp    %eax,%edx
    9c76:	7f 0f                	jg     9c87 <safe_lshift_func_uint8_t_u_u+0x3b>
    9c78:	0f b6 55 fc          	movzbl -0x4(%rbp),%edx
    9c7c:	8b 45 f8             	mov    -0x8(%rbp),%eax
    9c7f:	89 c1                	mov    %eax,%ecx
    9c81:	d3 e2                	shl    %cl,%edx
    9c83:	89 d0                	mov    %edx,%eax
    9c85:	eb 04                	jmp    9c8b <safe_lshift_func_uint8_t_u_u+0x3f>
    9c87:	0f b6 45 fc          	movzbl -0x4(%rbp),%eax
    9c8b:	5d                   	pop    %rbp
    9c8c:	c3                   	retq   

0000000000009c8d <safe_rshift_func_uint8_t_u_s>:
    9c8d:	f3 0f 1e fa          	endbr64 
    9c91:	55                   	push   %rbp
    9c92:	48 89 e5             	mov    %rsp,%rbp
    9c95:	89 f8                	mov    %edi,%eax
    9c97:	89 75 f8             	mov    %esi,-0x8(%rbp)
    9c9a:	88 45 fc             	mov    %al,-0x4(%rbp)
    9c9d:	83 7d f8 00          	cmpl   $0x0,-0x8(%rbp)
    9ca1:	78 15                	js     9cb8 <safe_rshift_func_uint8_t_u_s+0x2b>
    9ca3:	83 7d f8 1f          	cmpl   $0x1f,-0x8(%rbp)
    9ca7:	7f 0f                	jg     9cb8 <safe_rshift_func_uint8_t_u_s+0x2b>
    9ca9:	0f b6 55 fc          	movzbl -0x4(%rbp),%edx
    9cad:	8b 45 f8             	mov    -0x8(%rbp),%eax
    9cb0:	89 c1                	mov    %eax,%ecx
    9cb2:	d3 fa                	sar    %cl,%edx
    9cb4:	89 d0                	mov    %edx,%eax
    9cb6:	eb 04                	jmp    9cbc <safe_rshift_func_uint8_t_u_s+0x2f>
    9cb8:	0f b6 45 fc          	movzbl -0x4(%rbp),%eax
    9cbc:	5d                   	pop    %rbp
    9cbd:	c3                   	retq   

0000000000009cbe <safe_rshift_func_uint8_t_u_u>:
    9cbe:	f3 0f 1e fa          	endbr64 
    9cc2:	55                   	push   %rbp
    9cc3:	48 89 e5             	mov    %rsp,%rbp
    9cc6:	89 f8                	mov    %edi,%eax
    9cc8:	89 75 f8             	mov    %esi,-0x8(%rbp)
    9ccb:	88 45 fc             	mov    %al,-0x4(%rbp)
    9cce:	83 7d f8 1f          	cmpl   $0x1f,-0x8(%rbp)
    9cd2:	77 0f                	ja     9ce3 <safe_rshift_func_uint8_t_u_u+0x25>
    9cd4:	0f b6 55 fc          	movzbl -0x4(%rbp),%edx
    9cd8:	8b 45 f8             	mov    -0x8(%rbp),%eax
    9cdb:	89 c1                	mov    %eax,%ecx
    9cdd:	d3 fa                	sar    %cl,%edx
    9cdf:	89 d0                	mov    %edx,%eax
    9ce1:	eb 04                	jmp    9ce7 <safe_rshift_func_uint8_t_u_u+0x29>
    9ce3:	0f b6 45 fc          	movzbl -0x4(%rbp),%eax
    9ce7:	5d                   	pop    %rbp
    9ce8:	c3                   	retq   

0000000000009ce9 <safe_unary_minus_func_uint16_t_u>:
    9ce9:	f3 0f 1e fa          	endbr64 
    9ced:	55                   	push   %rbp
    9cee:	48 89 e5             	mov    %rsp,%rbp
    9cf1:	89 f8                	mov    %edi,%eax
    9cf3:	66 89 45 fc          	mov    %ax,-0x4(%rbp)
    9cf7:	0f b7 45 fc          	movzwl -0x4(%rbp),%eax
    9cfb:	f7 d8                	neg    %eax
    9cfd:	5d                   	pop    %rbp
    9cfe:	c3                   	retq   

0000000000009cff <safe_add_func_uint16_t_u_u>:
    9cff:	f3 0f 1e fa          	endbr64 
    9d03:	55                   	push   %rbp
    9d04:	48 89 e5             	mov    %rsp,%rbp
    9d07:	89 fa                	mov    %edi,%edx
    9d09:	89 f0                	mov    %esi,%eax
    9d0b:	66 89 55 fc          	mov    %dx,-0x4(%rbp)
    9d0f:	66 89 45 f8          	mov    %ax,-0x8(%rbp)
    9d13:	0f b7 55 fc          	movzwl -0x4(%rbp),%edx
    9d17:	0f b7 45 f8          	movzwl -0x8(%rbp),%eax
    9d1b:	01 d0                	add    %edx,%eax
    9d1d:	5d                   	pop    %rbp
    9d1e:	c3                   	retq   

0000000000009d1f <safe_sub_func_uint16_t_u_u>:
    9d1f:	f3 0f 1e fa          	endbr64 
    9d23:	55                   	push   %rbp
    9d24:	48 89 e5             	mov    %rsp,%rbp
    9d27:	89 fa                	mov    %edi,%edx
    9d29:	89 f0                	mov    %esi,%eax
    9d2b:	66 89 55 fc          	mov    %dx,-0x4(%rbp)
    9d2f:	66 89 45 f8          	mov    %ax,-0x8(%rbp)
    9d33:	0f b7 45 fc          	movzwl -0x4(%rbp),%eax
    9d37:	66 2b 45 f8          	sub    -0x8(%rbp),%ax
    9d3b:	5d                   	pop    %rbp
    9d3c:	c3                   	retq   

0000000000009d3d <safe_mul_func_uint16_t_u_u>:
    9d3d:	f3 0f 1e fa          	endbr64 
    9d41:	55                   	push   %rbp
    9d42:	48 89 e5             	mov    %rsp,%rbp
    9d45:	89 fa                	mov    %edi,%edx
    9d47:	89 f0                	mov    %esi,%eax
    9d49:	66 89 55 fc          	mov    %dx,-0x4(%rbp)
    9d4d:	66 89 45 f8          	mov    %ax,-0x8(%rbp)
    9d51:	0f b7 45 fc          	movzwl -0x4(%rbp),%eax
    9d55:	66 0f af 45 f8       	imul   -0x8(%rbp),%ax
    9d5a:	5d                   	pop    %rbp
    9d5b:	c3                   	retq   

0000000000009d5c <safe_mod_func_uint16_t_u_u>:
    9d5c:	f3 0f 1e fa          	endbr64 
    9d60:	55                   	push   %rbp
    9d61:	48 89 e5             	mov    %rsp,%rbp
    9d64:	89 fa                	mov    %edi,%edx
    9d66:	89 f0                	mov    %esi,%eax
    9d68:	66 89 55 fc          	mov    %dx,-0x4(%rbp)
    9d6c:	66 89 45 f8          	mov    %ax,-0x8(%rbp)
    9d70:	66 83 7d f8 00       	cmpw   $0x0,-0x8(%rbp)
    9d75:	74 11                	je     9d88 <safe_mod_func_uint16_t_u_u+0x2c>
    9d77:	0f b7 45 fc          	movzwl -0x4(%rbp),%eax
    9d7b:	ba 00 00 00 00       	mov    $0x0,%edx
    9d80:	66 f7 75 f8          	divw   -0x8(%rbp)
    9d84:	89 d0                	mov    %edx,%eax
    9d86:	eb 04                	jmp    9d8c <safe_mod_func_uint16_t_u_u+0x30>
    9d88:	0f b7 45 fc          	movzwl -0x4(%rbp),%eax
    9d8c:	5d                   	pop    %rbp
    9d8d:	c3                   	retq   

0000000000009d8e <safe_div_func_uint16_t_u_u>:
    9d8e:	f3 0f 1e fa          	endbr64 
    9d92:	55                   	push   %rbp
    9d93:	48 89 e5             	mov    %rsp,%rbp
    9d96:	89 fa                	mov    %edi,%edx
    9d98:	89 f0                	mov    %esi,%eax
    9d9a:	66 89 55 fc          	mov    %dx,-0x4(%rbp)
    9d9e:	66 89 45 f8          	mov    %ax,-0x8(%rbp)
    9da2:	66 83 7d f8 00       	cmpw   $0x0,-0x8(%rbp)
    9da7:	74 0f                	je     9db8 <safe_div_func_uint16_t_u_u+0x2a>
    9da9:	0f b7 45 fc          	movzwl -0x4(%rbp),%eax
    9dad:	ba 00 00 00 00       	mov    $0x0,%edx
    9db2:	66 f7 75 f8          	divw   -0x8(%rbp)
    9db6:	eb 04                	jmp    9dbc <safe_div_func_uint16_t_u_u+0x2e>
    9db8:	0f b7 45 fc          	movzwl -0x4(%rbp),%eax
    9dbc:	5d                   	pop    %rbp
    9dbd:	c3                   	retq   

0000000000009dbe <safe_lshift_func_uint16_t_u_s>:
    9dbe:	f3 0f 1e fa          	endbr64 
    9dc2:	55                   	push   %rbp
    9dc3:	48 89 e5             	mov    %rsp,%rbp
    9dc6:	89 f8                	mov    %edi,%eax
    9dc8:	89 75 f8             	mov    %esi,-0x8(%rbp)
    9dcb:	66 89 45 fc          	mov    %ax,-0x4(%rbp)
    9dcf:	83 7d f8 00          	cmpl   $0x0,-0x8(%rbp)
    9dd3:	78 2b                	js     9e00 <safe_lshift_func_uint16_t_u_s+0x42>
    9dd5:	83 7d f8 1f          	cmpl   $0x1f,-0x8(%rbp)
    9dd9:	7f 25                	jg     9e00 <safe_lshift_func_uint16_t_u_s+0x42>
    9ddb:	0f b7 55 fc          	movzwl -0x4(%rbp),%edx
    9ddf:	8b 45 f8             	mov    -0x8(%rbp),%eax
    9de2:	be ff ff 00 00       	mov    $0xffff,%esi
    9de7:	89 c1                	mov    %eax,%ecx
    9de9:	d3 fe                	sar    %cl,%esi
    9deb:	89 f0                	mov    %esi,%eax
    9ded:	39 c2                	cmp    %eax,%edx
    9def:	7f 0f                	jg     9e00 <safe_lshift_func_uint16_t_u_s+0x42>
    9df1:	0f b7 55 fc          	movzwl -0x4(%rbp),%edx
    9df5:	8b 45 f8             	mov    -0x8(%rbp),%eax
    9df8:	89 c1                	mov    %eax,%ecx
    9dfa:	d3 e2                	shl    %cl,%edx
    9dfc:	89 d0                	mov    %edx,%eax
    9dfe:	eb 04                	jmp    9e04 <safe_lshift_func_uint16_t_u_s+0x46>
    9e00:	0f b7 45 fc          	movzwl -0x4(%rbp),%eax
    9e04:	5d                   	pop    %rbp
    9e05:	c3                   	retq   

0000000000009e06 <safe_lshift_func_uint16_t_u_u>:
    9e06:	f3 0f 1e fa          	endbr64 
    9e0a:	55                   	push   %rbp
    9e0b:	48 89 e5             	mov    %rsp,%rbp
    9e0e:	89 f8                	mov    %edi,%eax
    9e10:	89 75 f8             	mov    %esi,-0x8(%rbp)
    9e13:	66 89 45 fc          	mov    %ax,-0x4(%rbp)
    9e17:	83 7d f8 1f          	cmpl   $0x1f,-0x8(%rbp)
    9e1b:	77 25                	ja     9e42 <safe_lshift_func_uint16_t_u_u+0x3c>
    9e1d:	0f b7 55 fc          	movzwl -0x4(%rbp),%edx
    9e21:	8b 45 f8             	mov    -0x8(%rbp),%eax
    9e24:	be ff ff 00 00       	mov    $0xffff,%esi
    9e29:	89 c1                	mov    %eax,%ecx
    9e2b:	d3 fe                	sar    %cl,%esi
    9e2d:	89 f0                	mov    %esi,%eax
    9e2f:	39 c2                	cmp    %eax,%edx
    9e31:	7f 0f                	jg     9e42 <safe_lshift_func_uint16_t_u_u+0x3c>
    9e33:	0f b7 55 fc          	movzwl -0x4(%rbp),%edx
    9e37:	8b 45 f8             	mov    -0x8(%rbp),%eax
    9e3a:	89 c1                	mov    %eax,%ecx
    9e3c:	d3 e2                	shl    %cl,%edx
    9e3e:	89 d0                	mov    %edx,%eax
    9e40:	eb 04                	jmp    9e46 <safe_lshift_func_uint16_t_u_u+0x40>
    9e42:	0f b7 45 fc          	movzwl -0x4(%rbp),%eax
    9e46:	5d                   	pop    %rbp
    9e47:	c3                   	retq   

0000000000009e48 <safe_rshift_func_uint16_t_u_s>:
    9e48:	f3 0f 1e fa          	endbr64 
    9e4c:	55                   	push   %rbp
    9e4d:	48 89 e5             	mov    %rsp,%rbp
    9e50:	89 f8                	mov    %edi,%eax
    9e52:	89 75 f8             	mov    %esi,-0x8(%rbp)
    9e55:	66 89 45 fc          	mov    %ax,-0x4(%rbp)
    9e59:	83 7d f8 00          	cmpl   $0x0,-0x8(%rbp)
    9e5d:	78 15                	js     9e74 <safe_rshift_func_uint16_t_u_s+0x2c>
    9e5f:	83 7d f8 1f          	cmpl   $0x1f,-0x8(%rbp)
    9e63:	7f 0f                	jg     9e74 <safe_rshift_func_uint16_t_u_s+0x2c>
    9e65:	0f b7 55 fc          	movzwl -0x4(%rbp),%edx
    9e69:	8b 45 f8             	mov    -0x8(%rbp),%eax
    9e6c:	89 c1                	mov    %eax,%ecx
    9e6e:	d3 fa                	sar    %cl,%edx
    9e70:	89 d0                	mov    %edx,%eax
    9e72:	eb 04                	jmp    9e78 <safe_rshift_func_uint16_t_u_s+0x30>
    9e74:	0f b7 45 fc          	movzwl -0x4(%rbp),%eax
    9e78:	5d                   	pop    %rbp
    9e79:	c3                   	retq   

0000000000009e7a <safe_rshift_func_uint16_t_u_u>:
    9e7a:	f3 0f 1e fa          	endbr64 
    9e7e:	55                   	push   %rbp
    9e7f:	48 89 e5             	mov    %rsp,%rbp
    9e82:	89 f8                	mov    %edi,%eax
    9e84:	89 75 f8             	mov    %esi,-0x8(%rbp)
    9e87:	66 89 45 fc          	mov    %ax,-0x4(%rbp)
    9e8b:	83 7d f8 1f          	cmpl   $0x1f,-0x8(%rbp)
    9e8f:	77 0f                	ja     9ea0 <safe_rshift_func_uint16_t_u_u+0x26>
    9e91:	0f b7 55 fc          	movzwl -0x4(%rbp),%edx
    9e95:	8b 45 f8             	mov    -0x8(%rbp),%eax
    9e98:	89 c1                	mov    %eax,%ecx
    9e9a:	d3 fa                	sar    %cl,%edx
    9e9c:	89 d0                	mov    %edx,%eax
    9e9e:	eb 04                	jmp    9ea4 <safe_rshift_func_uint16_t_u_u+0x2a>
    9ea0:	0f b7 45 fc          	movzwl -0x4(%rbp),%eax
    9ea4:	5d                   	pop    %rbp
    9ea5:	c3                   	retq   

0000000000009ea6 <safe_unary_minus_func_uint32_t_u>:
    9ea6:	f3 0f 1e fa          	endbr64 
    9eaa:	55                   	push   %rbp
    9eab:	48 89 e5             	mov    %rsp,%rbp
    9eae:	89 7d fc             	mov    %edi,-0x4(%rbp)
    9eb1:	8b 45 fc             	mov    -0x4(%rbp),%eax
    9eb4:	f7 d8                	neg    %eax
    9eb6:	5d                   	pop    %rbp
    9eb7:	c3                   	retq   

0000000000009eb8 <safe_add_func_uint32_t_u_u>:
    9eb8:	f3 0f 1e fa          	endbr64 
    9ebc:	55                   	push   %rbp
    9ebd:	48 89 e5             	mov    %rsp,%rbp
    9ec0:	89 7d fc             	mov    %edi,-0x4(%rbp)
    9ec3:	89 75 f8             	mov    %esi,-0x8(%rbp)
    9ec6:	8b 55 fc             	mov    -0x4(%rbp),%edx
    9ec9:	8b 45 f8             	mov    -0x8(%rbp),%eax
    9ecc:	01 d0                	add    %edx,%eax
    9ece:	5d                   	pop    %rbp
    9ecf:	c3                   	retq   

0000000000009ed0 <safe_sub_func_uint32_t_u_u>:
    9ed0:	f3 0f 1e fa          	endbr64 
    9ed4:	55                   	push   %rbp
    9ed5:	48 89 e5             	mov    %rsp,%rbp
    9ed8:	89 7d fc             	mov    %edi,-0x4(%rbp)
    9edb:	89 75 f8             	mov    %esi,-0x8(%rbp)
    9ede:	8b 45 fc             	mov    -0x4(%rbp),%eax
    9ee1:	2b 45 f8             	sub    -0x8(%rbp),%eax
    9ee4:	5d                   	pop    %rbp
    9ee5:	c3                   	retq   

0000000000009ee6 <safe_mul_func_uint32_t_u_u>:
    9ee6:	f3 0f 1e fa          	endbr64 
    9eea:	55                   	push   %rbp
    9eeb:	48 89 e5             	mov    %rsp,%rbp
    9eee:	89 7d fc             	mov    %edi,-0x4(%rbp)
    9ef1:	89 75 f8             	mov    %esi,-0x8(%rbp)
    9ef4:	8b 45 fc             	mov    -0x4(%rbp),%eax
    9ef7:	0f af 45 f8          	imul   -0x8(%rbp),%eax
    9efb:	5d                   	pop    %rbp
    9efc:	c3                   	retq   

0000000000009efd <safe_mod_func_uint32_t_u_u>:
    9efd:	f3 0f 1e fa          	endbr64 
    9f01:	55                   	push   %rbp
    9f02:	48 89 e5             	mov    %rsp,%rbp
    9f05:	89 7d fc             	mov    %edi,-0x4(%rbp)
    9f08:	89 75 f8             	mov    %esi,-0x8(%rbp)
    9f0b:	83 7d f8 00          	cmpl   $0x0,-0x8(%rbp)
    9f0f:	74 0f                	je     9f20 <safe_mod_func_uint32_t_u_u+0x23>
    9f11:	8b 45 fc             	mov    -0x4(%rbp),%eax
    9f14:	ba 00 00 00 00       	mov    $0x0,%edx
    9f19:	f7 75 f8             	divl   -0x8(%rbp)
    9f1c:	89 d0                	mov    %edx,%eax
    9f1e:	eb 03                	jmp    9f23 <safe_mod_func_uint32_t_u_u+0x26>
    9f20:	8b 45 fc             	mov    -0x4(%rbp),%eax
    9f23:	5d                   	pop    %rbp
    9f24:	c3                   	retq   

0000000000009f25 <safe_div_func_uint32_t_u_u>:
    9f25:	f3 0f 1e fa          	endbr64 
    9f29:	55                   	push   %rbp
    9f2a:	48 89 e5             	mov    %rsp,%rbp
    9f2d:	89 7d fc             	mov    %edi,-0x4(%rbp)
    9f30:	89 75 f8             	mov    %esi,-0x8(%rbp)
    9f33:	83 7d f8 00          	cmpl   $0x0,-0x8(%rbp)
    9f37:	74 0d                	je     9f46 <safe_div_func_uint32_t_u_u+0x21>
    9f39:	8b 45 fc             	mov    -0x4(%rbp),%eax
    9f3c:	ba 00 00 00 00       	mov    $0x0,%edx
    9f41:	f7 75 f8             	divl   -0x8(%rbp)
    9f44:	eb 03                	jmp    9f49 <safe_div_func_uint32_t_u_u+0x24>
    9f46:	8b 45 fc             	mov    -0x4(%rbp),%eax
    9f49:	5d                   	pop    %rbp
    9f4a:	c3                   	retq   

0000000000009f4b <safe_lshift_func_uint32_t_u_s>:
    9f4b:	f3 0f 1e fa          	endbr64 
    9f4f:	55                   	push   %rbp
    9f50:	48 89 e5             	mov    %rsp,%rbp
    9f53:	89 7d fc             	mov    %edi,-0x4(%rbp)
    9f56:	89 75 f8             	mov    %esi,-0x8(%rbp)
    9f59:	83 7d f8 00          	cmpl   $0x0,-0x8(%rbp)
    9f5d:	78 27                	js     9f86 <safe_lshift_func_uint32_t_u_s+0x3b>
    9f5f:	83 7d f8 1f          	cmpl   $0x1f,-0x8(%rbp)
    9f63:	7f 21                	jg     9f86 <safe_lshift_func_uint32_t_u_s+0x3b>
    9f65:	8b 45 f8             	mov    -0x8(%rbp),%eax
    9f68:	ba ff ff ff ff       	mov    $0xffffffff,%edx
    9f6d:	89 c1                	mov    %eax,%ecx
    9f6f:	d3 ea                	shr    %cl,%edx
    9f71:	89 d0                	mov    %edx,%eax
    9f73:	39 45 fc             	cmp    %eax,-0x4(%rbp)
    9f76:	77 0e                	ja     9f86 <safe_lshift_func_uint32_t_u_s+0x3b>
    9f78:	8b 45 f8             	mov    -0x8(%rbp),%eax
    9f7b:	8b 55 fc             	mov    -0x4(%rbp),%edx
    9f7e:	89 c1                	mov    %eax,%ecx
    9f80:	d3 e2                	shl    %cl,%edx
    9f82:	89 d0                	mov    %edx,%eax
    9f84:	eb 03                	jmp    9f89 <safe_lshift_func_uint32_t_u_s+0x3e>
    9f86:	8b 45 fc             	mov    -0x4(%rbp),%eax
    9f89:	5d                   	pop    %rbp
    9f8a:	c3                   	retq   

0000000000009f8b <safe_lshift_func_uint32_t_u_u>:
    9f8b:	f3 0f 1e fa          	endbr64 
    9f8f:	55                   	push   %rbp
    9f90:	48 89 e5             	mov    %rsp,%rbp
    9f93:	89 7d fc             	mov    %edi,-0x4(%rbp)
    9f96:	89 75 f8             	mov    %esi,-0x8(%rbp)
    9f99:	83 7d f8 1f          	cmpl   $0x1f,-0x8(%rbp)
    9f9d:	77 21                	ja     9fc0 <safe_lshift_func_uint32_t_u_u+0x35>
    9f9f:	8b 45 f8             	mov    -0x8(%rbp),%eax
    9fa2:	ba ff ff ff ff       	mov    $0xffffffff,%edx
    9fa7:	89 c1                	mov    %eax,%ecx
    9fa9:	d3 ea                	shr    %cl,%edx
    9fab:	89 d0                	mov    %edx,%eax
    9fad:	39 45 fc             	cmp    %eax,-0x4(%rbp)
    9fb0:	77 0e                	ja     9fc0 <safe_lshift_func_uint32_t_u_u+0x35>
    9fb2:	8b 45 f8             	mov    -0x8(%rbp),%eax
    9fb5:	8b 55 fc             	mov    -0x4(%rbp),%edx
    9fb8:	89 c1                	mov    %eax,%ecx
    9fba:	d3 e2                	shl    %cl,%edx
    9fbc:	89 d0                	mov    %edx,%eax
    9fbe:	eb 03                	jmp    9fc3 <safe_lshift_func_uint32_t_u_u+0x38>
    9fc0:	8b 45 fc             	mov    -0x4(%rbp),%eax
    9fc3:	5d                   	pop    %rbp
    9fc4:	c3                   	retq   

0000000000009fc5 <safe_rshift_func_uint32_t_u_s>:
    9fc5:	f3 0f 1e fa          	endbr64 
    9fc9:	55                   	push   %rbp
    9fca:	48 89 e5             	mov    %rsp,%rbp
    9fcd:	89 7d fc             	mov    %edi,-0x4(%rbp)
    9fd0:	89 75 f8             	mov    %esi,-0x8(%rbp)
    9fd3:	83 7d f8 00          	cmpl   $0x0,-0x8(%rbp)
    9fd7:	78 14                	js     9fed <safe_rshift_func_uint32_t_u_s+0x28>
    9fd9:	83 7d f8 1f          	cmpl   $0x1f,-0x8(%rbp)
    9fdd:	7f 0e                	jg     9fed <safe_rshift_func_uint32_t_u_s+0x28>
    9fdf:	8b 45 f8             	mov    -0x8(%rbp),%eax
    9fe2:	8b 55 fc             	mov    -0x4(%rbp),%edx
    9fe5:	89 c1                	mov    %eax,%ecx
    9fe7:	d3 ea                	shr    %cl,%edx
    9fe9:	89 d0                	mov    %edx,%eax
    9feb:	eb 03                	jmp    9ff0 <safe_rshift_func_uint32_t_u_s+0x2b>
    9fed:	8b 45 fc             	mov    -0x4(%rbp),%eax
    9ff0:	5d                   	pop    %rbp
    9ff1:	c3                   	retq   

0000000000009ff2 <safe_rshift_func_uint32_t_u_u>:
    9ff2:	f3 0f 1e fa          	endbr64 
    9ff6:	55                   	push   %rbp
    9ff7:	48 89 e5             	mov    %rsp,%rbp
    9ffa:	89 7d fc             	mov    %edi,-0x4(%rbp)
    9ffd:	89 75 f8             	mov    %esi,-0x8(%rbp)
    a000:	83 7d f8 1f          	cmpl   $0x1f,-0x8(%rbp)
    a004:	77 0e                	ja     a014 <safe_rshift_func_uint32_t_u_u+0x22>
    a006:	8b 45 f8             	mov    -0x8(%rbp),%eax
    a009:	8b 55 fc             	mov    -0x4(%rbp),%edx
    a00c:	89 c1                	mov    %eax,%ecx
    a00e:	d3 ea                	shr    %cl,%edx
    a010:	89 d0                	mov    %edx,%eax
    a012:	eb 03                	jmp    a017 <safe_rshift_func_uint32_t_u_u+0x25>
    a014:	8b 45 fc             	mov    -0x4(%rbp),%eax
    a017:	5d                   	pop    %rbp
    a018:	c3                   	retq   

000000000000a019 <safe_unary_minus_func_uint64_t_u>:
    a019:	f3 0f 1e fa          	endbr64 
    a01d:	55                   	push   %rbp
    a01e:	48 89 e5             	mov    %rsp,%rbp
    a021:	48 89 7d f8          	mov    %rdi,-0x8(%rbp)
    a025:	48 8b 45 f8          	mov    -0x8(%rbp),%rax
    a029:	48 f7 d8             	neg    %rax
    a02c:	5d                   	pop    %rbp
    a02d:	c3                   	retq   

000000000000a02e <safe_add_func_uint64_t_u_u>:
    a02e:	f3 0f 1e fa          	endbr64 
    a032:	55                   	push   %rbp
    a033:	48 89 e5             	mov    %rsp,%rbp
    a036:	48 89 7d f8          	mov    %rdi,-0x8(%rbp)
    a03a:	48 89 75 f0          	mov    %rsi,-0x10(%rbp)
    a03e:	48 8b 55 f8          	mov    -0x8(%rbp),%rdx
    a042:	48 8b 45 f0          	mov    -0x10(%rbp),%rax
    a046:	48 01 d0             	add    %rdx,%rax
    a049:	5d                   	pop    %rbp
    a04a:	c3                   	retq   

000000000000a04b <safe_sub_func_uint64_t_u_u>:
    a04b:	f3 0f 1e fa          	endbr64 
    a04f:	55                   	push   %rbp
    a050:	48 89 e5             	mov    %rsp,%rbp
    a053:	48 89 7d f8          	mov    %rdi,-0x8(%rbp)
    a057:	48 89 75 f0          	mov    %rsi,-0x10(%rbp)
    a05b:	48 8b 45 f8          	mov    -0x8(%rbp),%rax
    a05f:	48 2b 45 f0          	sub    -0x10(%rbp),%rax
    a063:	5d                   	pop    %rbp
    a064:	c3                   	retq   

000000000000a065 <safe_mul_func_uint64_t_u_u>:
    a065:	f3 0f 1e fa          	endbr64 
    a069:	55                   	push   %rbp
    a06a:	48 89 e5             	mov    %rsp,%rbp
    a06d:	48 89 7d f8          	mov    %rdi,-0x8(%rbp)
    a071:	48 89 75 f0          	mov    %rsi,-0x10(%rbp)
    a075:	48 8b 45 f8          	mov    -0x8(%rbp),%rax
    a079:	48 0f af 45 f0       	imul   -0x10(%rbp),%rax
    a07e:	5d                   	pop    %rbp
    a07f:	c3                   	retq   

000000000000a080 <safe_mod_func_uint64_t_u_u>:
    a080:	f3 0f 1e fa          	endbr64 
    a084:	55                   	push   %rbp
    a085:	48 89 e5             	mov    %rsp,%rbp
    a088:	48 89 7d f8          	mov    %rdi,-0x8(%rbp)
    a08c:	48 89 75 f0          	mov    %rsi,-0x10(%rbp)
    a090:	48 83 7d f0 00       	cmpq   $0x0,-0x10(%rbp)
    a095:	74 12                	je     a0a9 <safe_mod_func_uint64_t_u_u+0x29>
    a097:	48 8b 45 f8          	mov    -0x8(%rbp),%rax
    a09b:	ba 00 00 00 00       	mov    $0x0,%edx
    a0a0:	48 f7 75 f0          	divq   -0x10(%rbp)
    a0a4:	48 89 d0             	mov    %rdx,%rax
    a0a7:	eb 04                	jmp    a0ad <safe_mod_func_uint64_t_u_u+0x2d>
    a0a9:	48 8b 45 f8          	mov    -0x8(%rbp),%rax
    a0ad:	5d                   	pop    %rbp
    a0ae:	c3                   	retq   

000000000000a0af <safe_div_func_uint64_t_u_u>:
    a0af:	f3 0f 1e fa          	endbr64 
    a0b3:	55                   	push   %rbp
    a0b4:	48 89 e5             	mov    %rsp,%rbp
    a0b7:	48 89 7d f8          	mov    %rdi,-0x8(%rbp)
    a0bb:	48 89 75 f0          	mov    %rsi,-0x10(%rbp)
    a0bf:	48 83 7d f0 00       	cmpq   $0x0,-0x10(%rbp)
    a0c4:	74 0f                	je     a0d5 <safe_div_func_uint64_t_u_u+0x26>
    a0c6:	48 8b 45 f8          	mov    -0x8(%rbp),%rax
    a0ca:	ba 00 00 00 00       	mov    $0x0,%edx
    a0cf:	48 f7 75 f0          	divq   -0x10(%rbp)
    a0d3:	eb 04                	jmp    a0d9 <safe_div_func_uint64_t_u_u+0x2a>
    a0d5:	48 8b 45 f8          	mov    -0x8(%rbp),%rax
    a0d9:	5d                   	pop    %rbp
    a0da:	c3                   	retq   

000000000000a0db <safe_lshift_func_uint64_t_u_s>:
    a0db:	f3 0f 1e fa          	endbr64 
    a0df:	55                   	push   %rbp
    a0e0:	48 89 e5             	mov    %rsp,%rbp
    a0e3:	48 89 7d f8          	mov    %rdi,-0x8(%rbp)
    a0e7:	89 75 f4             	mov    %esi,-0xc(%rbp)
    a0ea:	83 7d f4 00          	cmpl   $0x0,-0xc(%rbp)
    a0ee:	78 2f                	js     a11f <safe_lshift_func_uint64_t_u_s+0x44>
    a0f0:	83 7d f4 1f          	cmpl   $0x1f,-0xc(%rbp)
    a0f4:	7f 29                	jg     a11f <safe_lshift_func_uint64_t_u_s+0x44>
    a0f6:	8b 45 f4             	mov    -0xc(%rbp),%eax
    a0f9:	48 c7 c2 ff ff ff ff 	mov    $0xffffffffffffffff,%rdx
    a100:	89 c1                	mov    %eax,%ecx
    a102:	48 d3 ea             	shr    %cl,%rdx
    a105:	48 89 d0             	mov    %rdx,%rax
    a108:	48 39 45 f8          	cmp    %rax,-0x8(%rbp)
    a10c:	77 11                	ja     a11f <safe_lshift_func_uint64_t_u_s+0x44>
    a10e:	8b 45 f4             	mov    -0xc(%rbp),%eax
    a111:	48 8b 55 f8          	mov    -0x8(%rbp),%rdx
    a115:	89 c1                	mov    %eax,%ecx
    a117:	48 d3 e2             	shl    %cl,%rdx
    a11a:	48 89 d0             	mov    %rdx,%rax
    a11d:	eb 04                	jmp    a123 <safe_lshift_func_uint64_t_u_s+0x48>
    a11f:	48 8b 45 f8          	mov    -0x8(%rbp),%rax
    a123:	5d                   	pop    %rbp
    a124:	c3                   	retq   

000000000000a125 <safe_lshift_func_uint64_t_u_u>:
    a125:	f3 0f 1e fa          	endbr64 
    a129:	55                   	push   %rbp
    a12a:	48 89 e5             	mov    %rsp,%rbp
    a12d:	48 89 7d f8          	mov    %rdi,-0x8(%rbp)
    a131:	89 75 f4             	mov    %esi,-0xc(%rbp)
    a134:	83 7d f4 1f          	cmpl   $0x1f,-0xc(%rbp)
    a138:	77 29                	ja     a163 <safe_lshift_func_uint64_t_u_u+0x3e>
    a13a:	8b 45 f4             	mov    -0xc(%rbp),%eax
    a13d:	48 c7 c2 ff ff ff ff 	mov    $0xffffffffffffffff,%rdx
    a144:	89 c1                	mov    %eax,%ecx
    a146:	48 d3 ea             	shr    %cl,%rdx
    a149:	48 89 d0             	mov    %rdx,%rax
    a14c:	48 39 45 f8          	cmp    %rax,-0x8(%rbp)
    a150:	77 11                	ja     a163 <safe_lshift_func_uint64_t_u_u+0x3e>
    a152:	8b 45 f4             	mov    -0xc(%rbp),%eax
    a155:	48 8b 55 f8          	mov    -0x8(%rbp),%rdx
    a159:	89 c1                	mov    %eax,%ecx
    a15b:	48 d3 e2             	shl    %cl,%rdx
    a15e:	48 89 d0             	mov    %rdx,%rax
    a161:	eb 04                	jmp    a167 <safe_lshift_func_uint64_t_u_u+0x42>
    a163:	48 8b 45 f8          	mov    -0x8(%rbp),%rax
    a167:	5d                   	pop    %rbp
    a168:	c3                   	retq   

000000000000a169 <safe_rshift_func_uint64_t_u_s>:
    a169:	f3 0f 1e fa          	endbr64 
    a16d:	55                   	push   %rbp
    a16e:	48 89 e5             	mov    %rsp,%rbp
    a171:	48 89 7d f8          	mov    %rdi,-0x8(%rbp)
    a175:	89 75 f4             	mov    %esi,-0xc(%rbp)
    a178:	83 7d f4 00          	cmpl   $0x0,-0xc(%rbp)
    a17c:	78 17                	js     a195 <safe_rshift_func_uint64_t_u_s+0x2c>
    a17e:	83 7d f4 1f          	cmpl   $0x1f,-0xc(%rbp)
    a182:	7f 11                	jg     a195 <safe_rshift_func_uint64_t_u_s+0x2c>
    a184:	8b 45 f4             	mov    -0xc(%rbp),%eax
    a187:	48 8b 55 f8          	mov    -0x8(%rbp),%rdx
    a18b:	89 c1                	mov    %eax,%ecx
    a18d:	48 d3 ea             	shr    %cl,%rdx
    a190:	48 89 d0             	mov    %rdx,%rax
    a193:	eb 04                	jmp    a199 <safe_rshift_func_uint64_t_u_s+0x30>
    a195:	48 8b 45 f8          	mov    -0x8(%rbp),%rax
    a199:	5d                   	pop    %rbp
    a19a:	c3                   	retq   

000000000000a19b <safe_rshift_func_uint64_t_u_u>:
    a19b:	f3 0f 1e fa          	endbr64 
    a19f:	55                   	push   %rbp
    a1a0:	48 89 e5             	mov    %rsp,%rbp
    a1a3:	48 89 7d f8          	mov    %rdi,-0x8(%rbp)
    a1a7:	89 75 f4             	mov    %esi,-0xc(%rbp)
    a1aa:	83 7d f4 1f          	cmpl   $0x1f,-0xc(%rbp)
    a1ae:	77 11                	ja     a1c1 <safe_rshift_func_uint64_t_u_u+0x26>
    a1b0:	8b 45 f4             	mov    -0xc(%rbp),%eax
    a1b3:	48 8b 55 f8          	mov    -0x8(%rbp),%rdx
    a1b7:	89 c1                	mov    %eax,%ecx
    a1b9:	48 d3 ea             	shr    %cl,%rdx
    a1bc:	48 89 d0             	mov    %rdx,%rax
    a1bf:	eb 04                	jmp    a1c5 <safe_rshift_func_uint64_t_u_u+0x2a>
    a1c1:	48 8b 45 f8          	mov    -0x8(%rbp),%rax
    a1c5:	5d                   	pop    %rbp
    a1c6:	c3                   	retq   

000000000000a1c7 <safe_add_func_float_f_f>:
    a1c7:	f3 0f 1e fa          	endbr64 
    a1cb:	55                   	push   %rbp
    a1cc:	48 89 e5             	mov    %rsp,%rbp
    a1cf:	f3 0f 11 45 fc       	movss  %xmm0,-0x4(%rbp)
    a1d4:	f3 0f 11 4d f8       	movss  %xmm1,-0x8(%rbp)
    a1d9:	f3 0f 10 4d fc       	movss  -0x4(%rbp),%xmm1
    a1de:	f3 0f 10 05 da 2a 01 	movss  0x12ada(%rip),%xmm0        # 1ccc0 <l_280.5279+0x780>
    a1e5:	00 
    a1e6:	f3 0f 59 c8          	mulss  %xmm0,%xmm1
    a1ea:	f3 0f 10 55 f8       	movss  -0x8(%rbp),%xmm2
    a1ef:	f3 0f 10 05 c9 2a 01 	movss  0x12ac9(%rip),%xmm0        # 1ccc0 <l_280.5279+0x780>
    a1f6:	00 
    a1f7:	f3 0f 59 c2          	mulss  %xmm2,%xmm0
    a1fb:	f3 0f 58 c1          	addss  %xmm1,%xmm0
    a1ff:	f3 0f 10 0d c9 2a 01 	movss  0x12ac9(%rip),%xmm1        # 1ccd0 <l_280.5279+0x790>
    a206:	00 
    a207:	0f 54 c1             	andps  %xmm1,%xmm0
    a20a:	0f 2f 05 cf 2a 01 00 	comiss 0x12acf(%rip),%xmm0        # 1cce0 <l_280.5279+0x7a0>
    a211:	76 07                	jbe    a21a <safe_add_func_float_f_f+0x53>
    a213:	f3 0f 10 45 fc       	movss  -0x4(%rbp),%xmm0
    a218:	eb 0a                	jmp    a224 <safe_add_func_float_f_f+0x5d>
    a21a:	f3 0f 10 45 fc       	movss  -0x4(%rbp),%xmm0
    a21f:	f3 0f 58 45 f8       	addss  -0x8(%rbp),%xmm0
    a224:	5d                   	pop    %rbp
    a225:	c3                   	retq   

000000000000a226 <safe_sub_func_float_f_f>:
    a226:	f3 0f 1e fa          	endbr64 
    a22a:	55                   	push   %rbp
    a22b:	48 89 e5             	mov    %rsp,%rbp
    a22e:	f3 0f 11 45 fc       	movss  %xmm0,-0x4(%rbp)
    a233:	f3 0f 11 4d f8       	movss  %xmm1,-0x8(%rbp)
    a238:	f3 0f 10 4d fc       	movss  -0x4(%rbp),%xmm1
    a23d:	f3 0f 10 05 7b 2a 01 	movss  0x12a7b(%rip),%xmm0        # 1ccc0 <l_280.5279+0x780>
    a244:	00 
    a245:	f3 0f 59 c1          	mulss  %xmm1,%xmm0
    a249:	f3 0f 10 55 f8       	movss  -0x8(%rbp),%xmm2
    a24e:	f3 0f 10 0d 6a 2a 01 	movss  0x12a6a(%rip),%xmm1        # 1ccc0 <l_280.5279+0x780>
    a255:	00 
    a256:	f3 0f 59 ca          	mulss  %xmm2,%xmm1
    a25a:	f3 0f 5c c1          	subss  %xmm1,%xmm0
    a25e:	f3 0f 10 0d 6a 2a 01 	movss  0x12a6a(%rip),%xmm1        # 1ccd0 <l_280.5279+0x790>
    a265:	00 
    a266:	0f 54 c1             	andps  %xmm1,%xmm0
    a269:	0f 2f 05 70 2a 01 00 	comiss 0x12a70(%rip),%xmm0        # 1cce0 <l_280.5279+0x7a0>
    a270:	76 07                	jbe    a279 <safe_sub_func_float_f_f+0x53>
    a272:	f3 0f 10 45 fc       	movss  -0x4(%rbp),%xmm0
    a277:	eb 0a                	jmp    a283 <safe_sub_func_float_f_f+0x5d>
    a279:	f3 0f 10 45 fc       	movss  -0x4(%rbp),%xmm0
    a27e:	f3 0f 5c 45 f8       	subss  -0x8(%rbp),%xmm0
    a283:	5d                   	pop    %rbp
    a284:	c3                   	retq   

000000000000a285 <safe_mul_func_float_f_f>:
    a285:	f3 0f 1e fa          	endbr64 
    a289:	55                   	push   %rbp
    a28a:	48 89 e5             	mov    %rsp,%rbp
    a28d:	f3 0f 11 45 fc       	movss  %xmm0,-0x4(%rbp)
    a292:	f3 0f 11 4d f8       	movss  %xmm1,-0x8(%rbp)
    a297:	f3 0f 10 4d fc       	movss  -0x4(%rbp),%xmm1
    a29c:	f3 0f 10 05 40 2a 01 	movss  0x12a40(%rip),%xmm0        # 1cce4 <l_280.5279+0x7a4>
    a2a3:	00 
    a2a4:	f3 0f 59 c8          	mulss  %xmm0,%xmm1
    a2a8:	f3 0f 10 55 f8       	movss  -0x8(%rbp),%xmm2
    a2ad:	f3 0f 10 05 33 2a 01 	movss  0x12a33(%rip),%xmm0        # 1cce8 <l_280.5279+0x7a8>
    a2b4:	00 
    a2b5:	f3 0f 59 c2          	mulss  %xmm2,%xmm0
    a2b9:	f3 0f 59 c1          	mulss  %xmm1,%xmm0
    a2bd:	f3 0f 10 0d 0b 2a 01 	movss  0x12a0b(%rip),%xmm1        # 1ccd0 <l_280.5279+0x790>
    a2c4:	00 
    a2c5:	0f 54 c1             	andps  %xmm1,%xmm0
    a2c8:	0f 2f 05 1d 2a 01 00 	comiss 0x12a1d(%rip),%xmm0        # 1ccec <l_280.5279+0x7ac>
    a2cf:	76 07                	jbe    a2d8 <safe_mul_func_float_f_f+0x53>
    a2d1:	f3 0f 10 45 fc       	movss  -0x4(%rbp),%xmm0
    a2d6:	eb 0a                	jmp    a2e2 <safe_mul_func_float_f_f+0x5d>
    a2d8:	f3 0f 10 45 fc       	movss  -0x4(%rbp),%xmm0
    a2dd:	f3 0f 59 45 f8       	mulss  -0x8(%rbp),%xmm0
    a2e2:	5d                   	pop    %rbp
    a2e3:	c3                   	retq   

000000000000a2e4 <safe_div_func_float_f_f>:
    a2e4:	f3 0f 1e fa          	endbr64 
    a2e8:	55                   	push   %rbp
    a2e9:	48 89 e5             	mov    %rsp,%rbp
    a2ec:	f3 0f 11 45 fc       	movss  %xmm0,-0x4(%rbp)
    a2f1:	f3 0f 11 4d f8       	movss  %xmm1,-0x8(%rbp)
    a2f6:	f3 0f 10 45 f8       	movss  -0x8(%rbp),%xmm0
    a2fb:	f3 0f 10 0d cd 29 01 	movss  0x129cd(%rip),%xmm1        # 1ccd0 <l_280.5279+0x790>
    a302:	00 
    a303:	0f 54 c8             	andps  %xmm0,%xmm1
    a306:	f3 0f 10 05 e2 29 01 	movss  0x129e2(%rip),%xmm0        # 1ccf0 <l_280.5279+0x7b0>
    a30d:	00 
    a30e:	0f 2f c1             	comiss %xmm1,%xmm0
    a311:	0f 97 c0             	seta   %al
    a314:	83 f0 01             	xor    $0x1,%eax
    a317:	84 c0                	test   %al,%al
    a319:	75 56                	jne    a371 <safe_div_func_float_f_f+0x8d>
    a31b:	66 0f ef c0          	pxor   %xmm0,%xmm0
    a31f:	0f 2e 45 f8          	ucomiss -0x8(%rbp),%xmm0
    a323:	7a 0a                	jp     a32f <safe_div_func_float_f_f+0x4b>
    a325:	66 0f ef c0          	pxor   %xmm0,%xmm0
    a329:	0f 2e 45 f8          	ucomiss -0x8(%rbp),%xmm0
    a32d:	74 4e                	je     a37d <safe_div_func_float_f_f+0x99>
    a32f:	f3 0f 10 4d fc       	movss  -0x4(%rbp),%xmm1
    a334:	f3 0f 10 05 b8 29 01 	movss  0x129b8(%rip),%xmm0        # 1ccf4 <l_280.5279+0x7b4>
    a33b:	00 
    a33c:	f3 0f 59 c1          	mulss  %xmm1,%xmm0
    a340:	f3 0f 10 55 f8       	movss  -0x8(%rbp),%xmm2
    a345:	f3 0f 10 0d ab 29 01 	movss  0x129ab(%rip),%xmm1        # 1ccf8 <l_280.5279+0x7b8>
    a34c:	00 
    a34d:	f3 0f 59 ca          	mulss  %xmm2,%xmm1
    a351:	f3 0f 5e c1          	divss  %xmm1,%xmm0
    a355:	f3 0f 10 0d 73 29 01 	movss  0x12973(%rip),%xmm1        # 1ccd0 <l_280.5279+0x790>
    a35c:	00 
    a35d:	0f 54 c1             	andps  %xmm1,%xmm0
    a360:	0f 2f 05 95 29 01 00 	comiss 0x12995(%rip),%xmm0        # 1ccfc <l_280.5279+0x7bc>
    a367:	0f 97 c0             	seta   %al
    a36a:	83 f0 01             	xor    $0x1,%eax
    a36d:	84 c0                	test   %al,%al
    a36f:	74 0c                	je     a37d <safe_div_func_float_f_f+0x99>
    a371:	f3 0f 10 45 fc       	movss  -0x4(%rbp),%xmm0
    a376:	f3 0f 5e 45 f8       	divss  -0x8(%rbp),%xmm0
    a37b:	eb 05                	jmp    a382 <safe_div_func_float_f_f+0x9e>
    a37d:	f3 0f 10 45 fc       	movss  -0x4(%rbp),%xmm0
    a382:	5d                   	pop    %rbp
    a383:	c3                   	retq   

000000000000a384 <safe_add_func_double_f_f>:
    a384:	f3 0f 1e fa          	endbr64 
    a388:	55                   	push   %rbp
    a389:	48 89 e5             	mov    %rsp,%rbp
    a38c:	f2 0f 11 45 f8       	movsd  %xmm0,-0x8(%rbp)
    a391:	f2 0f 11 4d f0       	movsd  %xmm1,-0x10(%rbp)
    a396:	f2 0f 10 4d f8       	movsd  -0x8(%rbp),%xmm1
    a39b:	f2 0f 10 05 5d 29 01 	movsd  0x1295d(%rip),%xmm0        # 1cd00 <l_280.5279+0x7c0>
    a3a2:	00 
    a3a3:	f2 0f 59 c8          	mulsd  %xmm0,%xmm1
    a3a7:	f2 0f 10 55 f0       	movsd  -0x10(%rbp),%xmm2
    a3ac:	f2 0f 10 05 4c 29 01 	movsd  0x1294c(%rip),%xmm0        # 1cd00 <l_280.5279+0x7c0>
    a3b3:	00 
    a3b4:	f2 0f 59 c2          	mulsd  %xmm2,%xmm0
    a3b8:	f2 0f 58 c1          	addsd  %xmm1,%xmm0
    a3bc:	f3 0f 7e 0d 4c 29 01 	movq   0x1294c(%rip),%xmm1        # 1cd10 <l_280.5279+0x7d0>
    a3c3:	00 
    a3c4:	66 0f 54 c1          	andpd  %xmm1,%xmm0
    a3c8:	66 0f 2f 05 50 29 01 	comisd 0x12950(%rip),%xmm0        # 1cd20 <l_280.5279+0x7e0>
    a3cf:	00 
    a3d0:	76 07                	jbe    a3d9 <safe_add_func_double_f_f+0x55>
    a3d2:	f2 0f 10 45 f8       	movsd  -0x8(%rbp),%xmm0
    a3d7:	eb 0a                	jmp    a3e3 <safe_add_func_double_f_f+0x5f>
    a3d9:	f2 0f 10 45 f8       	movsd  -0x8(%rbp),%xmm0
    a3de:	f2 0f 58 45 f0       	addsd  -0x10(%rbp),%xmm0
    a3e3:	5d                   	pop    %rbp
    a3e4:	c3                   	retq   

000000000000a3e5 <safe_sub_func_double_f_f>:
    a3e5:	f3 0f 1e fa          	endbr64 
    a3e9:	55                   	push   %rbp
    a3ea:	48 89 e5             	mov    %rsp,%rbp
    a3ed:	f2 0f 11 45 f8       	movsd  %xmm0,-0x8(%rbp)
    a3f2:	f2 0f 11 4d f0       	movsd  %xmm1,-0x10(%rbp)
    a3f7:	f2 0f 10 4d f8       	movsd  -0x8(%rbp),%xmm1
    a3fc:	f2 0f 10 05 fc 28 01 	movsd  0x128fc(%rip),%xmm0        # 1cd00 <l_280.5279+0x7c0>
    a403:	00 
    a404:	f2 0f 59 c1          	mulsd  %xmm1,%xmm0
    a408:	f2 0f 10 55 f0       	movsd  -0x10(%rbp),%xmm2
    a40d:	f2 0f 10 0d eb 28 01 	movsd  0x128eb(%rip),%xmm1        # 1cd00 <l_280.5279+0x7c0>
    a414:	00 
    a415:	f2 0f 59 ca          	mulsd  %xmm2,%xmm1
    a419:	f2 0f 5c c1          	subsd  %xmm1,%xmm0
    a41d:	f3 0f 7e 0d eb 28 01 	movq   0x128eb(%rip),%xmm1        # 1cd10 <l_280.5279+0x7d0>
    a424:	00 
    a425:	66 0f 54 c1          	andpd  %xmm1,%xmm0
    a429:	66 0f 2f 05 ef 28 01 	comisd 0x128ef(%rip),%xmm0        # 1cd20 <l_280.5279+0x7e0>
    a430:	00 
    a431:	76 07                	jbe    a43a <safe_sub_func_double_f_f+0x55>
    a433:	f2 0f 10 45 f8       	movsd  -0x8(%rbp),%xmm0
    a438:	eb 0a                	jmp    a444 <safe_sub_func_double_f_f+0x5f>
    a43a:	f2 0f 10 45 f8       	movsd  -0x8(%rbp),%xmm0
    a43f:	f2 0f 5c 45 f0       	subsd  -0x10(%rbp),%xmm0
    a444:	5d                   	pop    %rbp
    a445:	c3                   	retq   

000000000000a446 <safe_mul_func_double_f_f>:
    a446:	f3 0f 1e fa          	endbr64 
    a44a:	55                   	push   %rbp
    a44b:	48 89 e5             	mov    %rsp,%rbp
    a44e:	f2 0f 11 45 f8       	movsd  %xmm0,-0x8(%rbp)
    a453:	f2 0f 11 4d f0       	movsd  %xmm1,-0x10(%rbp)
    a458:	f2 0f 10 4d f8       	movsd  -0x8(%rbp),%xmm1
    a45d:	f2 0f 10 05 c3 28 01 	movsd  0x128c3(%rip),%xmm0        # 1cd28 <l_280.5279+0x7e8>
    a464:	00 
    a465:	f2 0f 59 c8          	mulsd  %xmm0,%xmm1
    a469:	f2 0f 10 55 f0       	movsd  -0x10(%rbp),%xmm2
    a46e:	f2 0f 10 05 ba 28 01 	movsd  0x128ba(%rip),%xmm0        # 1cd30 <l_280.5279+0x7f0>
    a475:	00 
    a476:	f2 0f 59 c2          	mulsd  %xmm2,%xmm0
    a47a:	f2 0f 59 c1          	mulsd  %xmm1,%xmm0
    a47e:	f3 0f 7e 0d 8a 28 01 	movq   0x1288a(%rip),%xmm1        # 1cd10 <l_280.5279+0x7d0>
    a485:	00 
    a486:	66 0f 54 c1          	andpd  %xmm1,%xmm0
    a48a:	66 0f 2f 05 a6 28 01 	comisd 0x128a6(%rip),%xmm0        # 1cd38 <l_280.5279+0x7f8>
    a491:	00 
    a492:	76 07                	jbe    a49b <safe_mul_func_double_f_f+0x55>
    a494:	f2 0f 10 45 f8       	movsd  -0x8(%rbp),%xmm0
    a499:	eb 0a                	jmp    a4a5 <safe_mul_func_double_f_f+0x5f>
    a49b:	f2 0f 10 45 f8       	movsd  -0x8(%rbp),%xmm0
    a4a0:	f2 0f 59 45 f0       	mulsd  -0x10(%rbp),%xmm0
    a4a5:	5d                   	pop    %rbp
    a4a6:	c3                   	retq   

000000000000a4a7 <safe_div_func_double_f_f>:
    a4a7:	f3 0f 1e fa          	endbr64 
    a4ab:	55                   	push   %rbp
    a4ac:	48 89 e5             	mov    %rsp,%rbp
    a4af:	f2 0f 11 45 f8       	movsd  %xmm0,-0x8(%rbp)
    a4b4:	f2 0f 11 4d f0       	movsd  %xmm1,-0x10(%rbp)
    a4b9:	f2 0f 10 45 f0       	movsd  -0x10(%rbp),%xmm0
    a4be:	f3 0f 7e 0d 4a 28 01 	movq   0x1284a(%rip),%xmm1        # 1cd10 <l_280.5279+0x7d0>
    a4c5:	00 
    a4c6:	66 0f 54 c8          	andpd  %xmm0,%xmm1
    a4ca:	f2 0f 10 05 6e 28 01 	movsd  0x1286e(%rip),%xmm0        # 1cd40 <l_280.5279+0x800>
    a4d1:	00 
    a4d2:	66 0f 2f c1          	comisd %xmm1,%xmm0
    a4d6:	0f 97 c0             	seta   %al
    a4d9:	83 f0 01             	xor    $0x1,%eax
    a4dc:	84 c0                	test   %al,%al
    a4de:	75 5a                	jne    a53a <safe_div_func_double_f_f+0x93>
    a4e0:	66 0f ef c0          	pxor   %xmm0,%xmm0
    a4e4:	66 0f 2e 45 f0       	ucomisd -0x10(%rbp),%xmm0
    a4e9:	7a 0b                	jp     a4f6 <safe_div_func_double_f_f+0x4f>
    a4eb:	66 0f ef c0          	pxor   %xmm0,%xmm0
    a4ef:	66 0f 2e 45 f0       	ucomisd -0x10(%rbp),%xmm0
    a4f4:	74 50                	je     a546 <safe_div_func_double_f_f+0x9f>
    a4f6:	f2 0f 10 4d f8       	movsd  -0x8(%rbp),%xmm1
    a4fb:	f2 0f 10 05 45 28 01 	movsd  0x12845(%rip),%xmm0        # 1cd48 <l_280.5279+0x808>
    a502:	00 
    a503:	f2 0f 59 c1          	mulsd  %xmm1,%xmm0
    a507:	f2 0f 10 55 f0       	movsd  -0x10(%rbp),%xmm2
    a50c:	f2 0f 10 0d 3c 28 01 	movsd  0x1283c(%rip),%xmm1        # 1cd50 <l_280.5279+0x810>
    a513:	00 
    a514:	f2 0f 59 ca          	mulsd  %xmm2,%xmm1
    a518:	f2 0f 5e c1          	divsd  %xmm1,%xmm0
    a51c:	f3 0f 7e 0d ec 27 01 	movq   0x127ec(%rip),%xmm1        # 1cd10 <l_280.5279+0x7d0>
    a523:	00 
    a524:	66 0f 54 c1          	andpd  %xmm1,%xmm0
    a528:	66 0f 2f 05 28 28 01 	comisd 0x12828(%rip),%xmm0        # 1cd58 <l_280.5279+0x818>
    a52f:	00 
    a530:	0f 97 c0             	seta   %al
    a533:	83 f0 01             	xor    $0x1,%eax
    a536:	84 c0                	test   %al,%al
    a538:	74 0c                	je     a546 <safe_div_func_double_f_f+0x9f>
    a53a:	f2 0f 10 45 f8       	movsd  -0x8(%rbp),%xmm0
    a53f:	f2 0f 5e 45 f0       	divsd  -0x10(%rbp),%xmm0
    a544:	eb 05                	jmp    a54b <safe_div_func_double_f_f+0xa4>
    a546:	f2 0f 10 45 f8       	movsd  -0x8(%rbp),%xmm0
    a54b:	5d                   	pop    %rbp
    a54c:	c3                   	retq   

000000000000a54d <safe_convert_func_float_to_int32_t>:
    a54d:	f3 0f 1e fa          	endbr64 
    a551:	55                   	push   %rbp
    a552:	48 89 e5             	mov    %rsp,%rbp
    a555:	f3 0f 11 45 fc       	movss  %xmm0,-0x4(%rbp)
    a55a:	f3 0f 10 05 fe 27 01 	movss  0x127fe(%rip),%xmm0        # 1cd60 <l_280.5279+0x820>
    a561:	00 
    a562:	0f 2f 45 fc          	comiss -0x4(%rbp),%xmm0
    a566:	0f 93 c0             	setae  %al
    a569:	83 f0 01             	xor    $0x1,%eax
    a56c:	84 c0                	test   %al,%al
    a56e:	74 21                	je     a591 <safe_convert_func_float_to_int32_t+0x44>
    a570:	f3 0f 10 45 fc       	movss  -0x4(%rbp),%xmm0
    a575:	0f 2f 05 e8 27 01 00 	comiss 0x127e8(%rip),%xmm0        # 1cd64 <l_280.5279+0x824>
    a57c:	0f 93 c0             	setae  %al
    a57f:	83 f0 01             	xor    $0x1,%eax
    a582:	84 c0                	test   %al,%al
    a584:	74 0b                	je     a591 <safe_convert_func_float_to_int32_t+0x44>
    a586:	f3 0f 10 45 fc       	movss  -0x4(%rbp),%xmm0
    a58b:	f3 0f 2c c0          	cvttss2si %xmm0,%eax
    a58f:	eb 05                	jmp    a596 <safe_convert_func_float_to_int32_t+0x49>
    a591:	b8 ff ff ff 7f       	mov    $0x7fffffff,%eax
    a596:	5d                   	pop    %rbp
    a597:	c3                   	retq   

000000000000a598 <crc32_gentab>:
    a598:	f3 0f 1e fa          	endbr64 
    a59c:	55                   	push   %rbp
    a59d:	48 89 e5             	mov    %rsp,%rbp
    a5a0:	c7 45 fc 20 83 b8 ed 	movl   $0xedb88320,-0x4(%rbp)
    a5a7:	c7 45 f4 00 00 00 00 	movl   $0x0,-0xc(%rbp)
    a5ae:	eb 51                	jmp    a601 <crc32_gentab+0x69>
    a5b0:	8b 45 f4             	mov    -0xc(%rbp),%eax
    a5b3:	89 45 f0             	mov    %eax,-0x10(%rbp)
    a5b6:	c7 45 f8 08 00 00 00 	movl   $0x8,-0x8(%rbp)
    a5bd:	eb 1e                	jmp    a5dd <crc32_gentab+0x45>
    a5bf:	8b 45 f0             	mov    -0x10(%rbp),%eax
    a5c2:	83 e0 01             	and    $0x1,%eax
    a5c5:	85 c0                	test   %eax,%eax
    a5c7:	74 0d                	je     a5d6 <crc32_gentab+0x3e>
    a5c9:	8b 45 f0             	mov    -0x10(%rbp),%eax
    a5cc:	d1 e8                	shr    %eax
    a5ce:	33 45 fc             	xor    -0x4(%rbp),%eax
    a5d1:	89 45 f0             	mov    %eax,-0x10(%rbp)
    a5d4:	eb 03                	jmp    a5d9 <crc32_gentab+0x41>
    a5d6:	d1 6d f0             	shrl   -0x10(%rbp)
    a5d9:	83 6d f8 01          	subl   $0x1,-0x8(%rbp)
    a5dd:	83 7d f8 00          	cmpl   $0x0,-0x8(%rbp)
    a5e1:	7f dc                	jg     a5bf <crc32_gentab+0x27>
    a5e3:	8b 45 f4             	mov    -0xc(%rbp),%eax
    a5e6:	48 98                	cltq   
    a5e8:	48 8d 0c 85 00 00 00 	lea    0x0(,%rax,4),%rcx
    a5ef:	00 
    a5f0:	48 8d 15 69 b3 01 00 	lea    0x1b369(%rip),%rdx        # 25960 <crc32_tab>
    a5f7:	8b 45 f0             	mov    -0x10(%rbp),%eax
    a5fa:	89 04 11             	mov    %eax,(%rcx,%rdx,1)
    a5fd:	83 45 f4 01          	addl   $0x1,-0xc(%rbp)
    a601:	81 7d f4 ff 00 00 00 	cmpl   $0xff,-0xc(%rbp)
    a608:	7e a6                	jle    a5b0 <crc32_gentab+0x18>
    a60a:	90                   	nop
    a60b:	90                   	nop
    a60c:	5d                   	pop    %rbp
    a60d:	c3                   	retq   

000000000000a60e <crc32_byte>:
    a60e:	f3 0f 1e fa          	endbr64 
    a612:	55                   	push   %rbp
    a613:	48 89 e5             	mov    %rsp,%rbp
    a616:	89 f8                	mov    %edi,%eax
    a618:	88 45 fc             	mov    %al,-0x4(%rbp)
    a61b:	8b 05 ff 59 01 00    	mov    0x159ff(%rip),%eax        # 20020 <crc32_context>
    a621:	c1 e8 08             	shr    $0x8,%eax
    a624:	89 c1                	mov    %eax,%ecx
    a626:	0f b6 55 fc          	movzbl -0x4(%rbp),%edx
    a62a:	8b 05 f0 59 01 00    	mov    0x159f0(%rip),%eax        # 20020 <crc32_context>
    a630:	31 d0                	xor    %edx,%eax
    a632:	0f b6 c0             	movzbl %al,%eax
    a635:	89 c0                	mov    %eax,%eax
    a637:	48 8d 14 85 00 00 00 	lea    0x0(,%rax,4),%rdx
    a63e:	00 
    a63f:	48 8d 05 1a b3 01 00 	lea    0x1b31a(%rip),%rax        # 25960 <crc32_tab>
    a646:	8b 04 02             	mov    (%rdx,%rax,1),%eax
    a649:	31 c8                	xor    %ecx,%eax
    a64b:	89 05 cf 59 01 00    	mov    %eax,0x159cf(%rip)        # 20020 <crc32_context>
    a651:	90                   	nop
    a652:	5d                   	pop    %rbp
    a653:	c3                   	retq   

000000000000a654 <crc32_8bytes>:
    a654:	f3 0f 1e fa          	endbr64 
    a658:	55                   	push   %rbp
    a659:	48 89 e5             	mov    %rsp,%rbp
    a65c:	48 83 ec 08          	sub    $0x8,%rsp
    a660:	48 89 7d f8          	mov    %rdi,-0x8(%rbp)
    a664:	48 8b 45 f8          	mov    -0x8(%rbp),%rax
    a668:	0f b6 c0             	movzbl %al,%eax
    a66b:	89 c7                	mov    %eax,%edi
    a66d:	e8 9c ff ff ff       	callq  a60e <crc32_byte>
    a672:	48 8b 45 f8          	mov    -0x8(%rbp),%rax
    a676:	48 c1 e8 08          	shr    $0x8,%rax
    a67a:	0f b6 c0             	movzbl %al,%eax
    a67d:	89 c7                	mov    %eax,%edi
    a67f:	e8 8a ff ff ff       	callq  a60e <crc32_byte>
    a684:	48 8b 45 f8          	mov    -0x8(%rbp),%rax
    a688:	48 c1 e8 10          	shr    $0x10,%rax
    a68c:	0f b6 c0             	movzbl %al,%eax
    a68f:	89 c7                	mov    %eax,%edi
    a691:	e8 78 ff ff ff       	callq  a60e <crc32_byte>
    a696:	48 8b 45 f8          	mov    -0x8(%rbp),%rax
    a69a:	48 c1 e8 18          	shr    $0x18,%rax
    a69e:	0f b6 c0             	movzbl %al,%eax
    a6a1:	89 c7                	mov    %eax,%edi
    a6a3:	e8 66 ff ff ff       	callq  a60e <crc32_byte>
    a6a8:	48 8b 45 f8          	mov    -0x8(%rbp),%rax
    a6ac:	48 c1 e8 20          	shr    $0x20,%rax
    a6b0:	0f b6 c0             	movzbl %al,%eax
    a6b3:	89 c7                	mov    %eax,%edi
    a6b5:	e8 54 ff ff ff       	callq  a60e <crc32_byte>
    a6ba:	48 8b 45 f8          	mov    -0x8(%rbp),%rax
    a6be:	48 c1 e8 28          	shr    $0x28,%rax
    a6c2:	0f b6 c0             	movzbl %al,%eax
    a6c5:	89 c7                	mov    %eax,%edi
    a6c7:	e8 42 ff ff ff       	callq  a60e <crc32_byte>
    a6cc:	48 8b 45 f8          	mov    -0x8(%rbp),%rax
    a6d0:	48 c1 e8 30          	shr    $0x30,%rax
    a6d4:	0f b6 c0             	movzbl %al,%eax
    a6d7:	89 c7                	mov    %eax,%edi
    a6d9:	e8 30 ff ff ff       	callq  a60e <crc32_byte>
    a6de:	48 8b 45 f8          	mov    -0x8(%rbp),%rax
    a6e2:	48 c1 e8 38          	shr    $0x38,%rax
    a6e6:	0f b6 c0             	movzbl %al,%eax
    a6e9:	89 c7                	mov    %eax,%edi
    a6eb:	e8 1e ff ff ff       	callq  a60e <crc32_byte>
    a6f0:	90                   	nop
    a6f1:	c9                   	leaveq 
    a6f2:	c3                   	retq   

000000000000a6f3 <transparent_crc>:
    a6f3:	f3 0f 1e fa          	endbr64 
    a6f7:	55                   	push   %rbp
    a6f8:	48 89 e5             	mov    %rsp,%rbp
    a6fb:	48 83 ec 20          	sub    $0x20,%rsp
    a6ff:	48 89 7d f8          	mov    %rdi,-0x8(%rbp)
    a703:	48 89 75 f0          	mov    %rsi,-0x10(%rbp)
    a707:	89 55 ec             	mov    %edx,-0x14(%rbp)
    a70a:	48 8b 45 f8          	mov    -0x8(%rbp),%rax
    a70e:	48 89 c7             	mov    %rax,%rdi
    a711:	e8 3e ff ff ff       	callq  a654 <crc32_8bytes>
    a716:	83 7d ec 00          	cmpl   $0x0,-0x14(%rbp)
    a71a:	74 22                	je     a73e <transparent_crc+0x4b>
    a71c:	8b 05 fe 58 01 00    	mov    0x158fe(%rip),%eax        # 20020 <crc32_context>
    a722:	f7 d0                	not    %eax
    a724:	89 c2                	mov    %eax,%edx
    a726:	48 8b 45 f0          	mov    -0x10(%rbp),%rax
    a72a:	48 89 c6             	mov    %rax,%rsi
    a72d:	48 8d 3d fc 08 01 00 	lea    0x108fc(%rip),%rdi        # 1b030 <_IO_stdin_used+0x30>
    a734:	b8 00 00 00 00       	mov    $0x0,%eax
    a739:	e8 42 e9 ff ff       	callq  9080 <printf@plt>
    a73e:	90                   	nop
    a73f:	c9                   	leaveq 
    a740:	c3                   	retq   

000000000000a741 <transparent_crc_bytes>:
    a741:	f3 0f 1e fa          	endbr64 
    a745:	55                   	push   %rbp
    a746:	48 89 e5             	mov    %rsp,%rbp
    a749:	48 83 ec 30          	sub    $0x30,%rsp
    a74d:	48 89 7d e8          	mov    %rdi,-0x18(%rbp)
    a751:	89 75 e4             	mov    %esi,-0x1c(%rbp)
    a754:	48 89 55 d8          	mov    %rdx,-0x28(%rbp)
    a758:	89 4d e0             	mov    %ecx,-0x20(%rbp)
    a75b:	c7 45 fc 00 00 00 00 	movl   $0x0,-0x4(%rbp)
    a762:	eb 1e                	jmp    a782 <transparent_crc_bytes+0x41>
    a764:	8b 45 fc             	mov    -0x4(%rbp),%eax
    a767:	48 63 d0             	movslq %eax,%rdx
    a76a:	48 8b 45 e8          	mov    -0x18(%rbp),%rax
    a76e:	48 01 d0             	add    %rdx,%rax
    a771:	0f b6 00             	movzbl (%rax),%eax
    a774:	0f b6 c0             	movzbl %al,%eax
    a777:	89 c7                	mov    %eax,%edi
    a779:	e8 90 fe ff ff       	callq  a60e <crc32_byte>
    a77e:	83 45 fc 01          	addl   $0x1,-0x4(%rbp)
    a782:	8b 45 fc             	mov    -0x4(%rbp),%eax
    a785:	3b 45 e4             	cmp    -0x1c(%rbp),%eax
    a788:	7c da                	jl     a764 <transparent_crc_bytes+0x23>
    a78a:	83 7d e0 00          	cmpl   $0x0,-0x20(%rbp)
    a78e:	74 22                	je     a7b2 <transparent_crc_bytes+0x71>
    a790:	8b 05 8a 58 01 00    	mov    0x1588a(%rip),%eax        # 20020 <crc32_context>
    a796:	f7 d0                	not    %eax
    a798:	89 c2                	mov    %eax,%edx
    a79a:	48 8b 45 d8          	mov    -0x28(%rbp),%rax
    a79e:	48 89 c6             	mov    %rax,%rsi
    a7a1:	48 8d 3d 88 08 01 00 	lea    0x10888(%rip),%rdi        # 1b030 <_IO_stdin_used+0x30>
    a7a8:	b8 00 00 00 00       	mov    $0x0,%eax
    a7ad:	e8 ce e8 ff ff       	callq  9080 <printf@plt>
    a7b2:	90                   	nop
    a7b3:	c9                   	leaveq 
    a7b4:	c3                   	retq   

000000000000a7b5 <func_1>:
    a7b5:	f3 0f 1e fa          	endbr64 
    a7b9:	55                   	push   %rbp
    a7ba:	48 89 e5             	mov    %rsp,%rbp
    a7bd:	41 57                	push   %r15
    a7bf:	41 56                	push   %r14
    a7c1:	41 55                	push   %r13
    a7c3:	41 54                	push   %r12
    a7c5:	53                   	push   %rbx
    a7c6:	48 81 ec 58 0d 00 00 	sub    $0xd58,%rsp
    a7cd:	64 48 8b 04 25 28 00 	mov    %fs:0x28,%rax
    a7d4:	00 00 
    a7d6:	48 89 45 c8          	mov    %rax,-0x38(%rbp)
    a7da:	31 c0                	xor    %eax,%eax
    a7dc:	c6 85 94 f2 ff ff 0d 	movb   $0xd,-0xd6c(%rbp)
    a7e3:	48 8d 05 3a 58 01 00 	lea    0x1583a(%rip),%rax        # 20024 <g_23>
    a7ea:	48 89 85 20 f3 ff ff 	mov    %rax,-0xce0(%rbp)
    a7f1:	48 8d 85 94 f2 ff ff 	lea    -0xd6c(%rbp),%rax
    a7f8:	48 89 85 e0 f2 ff ff 	mov    %rax,-0xd20(%rbp)
    a7ff:	48 8d 85 e0 f2 ff ff 	lea    -0xd20(%rbp),%rax
    a806:	48 89 85 28 f3 ff ff 	mov    %rax,-0xcd8(%rbp)
    a80d:	c6 85 95 f2 ff ff f6 	movb   $0xf6,-0xd6b(%rbp)
    a814:	c7 85 a0 f2 ff ff 03 	movl   $0x3,-0xd60(%rbp)
    a81b:	00 00 00 
    a81e:	48 8d 05 83 5b 01 00 	lea    0x15b83(%rip),%rax        # 203a8 <g_498>
    a825:	48 89 85 e8 f2 ff ff 	mov    %rax,-0xd18(%rbp)
    a82c:	48 8d 05 6d 5b 01 00 	lea    0x15b6d(%rip),%rax        # 203a0 <g_432+0x10>
    a833:	48 89 85 30 f3 ff ff 	mov    %rax,-0xcd0(%rbp)
    a83a:	48 c7 85 f0 f2 ff ff 	movq   $0x0,-0xd10(%rbp)
    a841:	00 00 00 00 
    a845:	48 8d 05 84 5c 01 00 	lea    0x15c84(%rip),%rax        # 204d0 <g_1084>
    a84c:	48 89 85 38 f3 ff ff 	mov    %rax,-0xcc8(%rbp)
    a853:	c7 85 f0 f3 ff ff 01 	movl   $0x1,-0xc10(%rbp)
    a85a:	00 00 00 
    a85d:	c7 85 f4 f3 ff ff 02 	movl   $0x2,-0xc0c(%rbp)
    a864:	00 00 00 
    a867:	c7 85 f8 f3 ff ff 0a 	movl   $0xcf34490a,-0xc08(%rbp)
    a86e:	49 34 cf 
    a871:	c7 85 fc f3 ff ff 02 	movl   $0x2,-0xc04(%rbp)
    a878:	00 00 00 
    a87b:	c7 85 00 f4 ff ff 01 	movl   $0x1,-0xc00(%rbp)
    a882:	00 00 00 
    a885:	c7 85 04 f4 ff ff 01 	movl   $0x1,-0xbfc(%rbp)
    a88c:	00 00 00 
    a88f:	c7 85 08 f4 ff ff 02 	movl   $0x2,-0xbf8(%rbp)
    a896:	00 00 00 
    a899:	c7 85 0c f4 ff ff 0a 	movl   $0xcf34490a,-0xbf4(%rbp)
    a8a0:	49 34 cf 
    a8a3:	c7 85 10 f4 ff ff 02 	movl   $0x2,-0xbf0(%rbp)
    a8aa:	00 00 00 
    a8ad:	c7 85 14 f4 ff ff 01 	movl   $0x1,-0xbec(%rbp)
    a8b4:	00 00 00 
    a8b7:	c7 85 a0 f4 ff ff eb 	movl   $0xee4ce2eb,-0xb60(%rbp)
    a8be:	e2 4c ee 
    a8c1:	c7 85 a4 f4 ff ff 86 	movl   $0x7279bf86,-0xb5c(%rbp)
    a8c8:	bf 79 72 
    a8cb:	c7 85 a8 f4 ff ff 86 	movl   $0x7279bf86,-0xb58(%rbp)
    a8d2:	bf 79 72 
    a8d5:	c7 85 ac f4 ff ff eb 	movl   $0xee4ce2eb,-0xb54(%rbp)
    a8dc:	e2 4c ee 
    a8df:	c7 85 b0 f4 ff ff 86 	movl   $0x7279bf86,-0xb50(%rbp)
    a8e6:	bf 79 72 
    a8e9:	c7 85 b4 f4 ff ff 86 	movl   $0x7279bf86,-0xb4c(%rbp)
    a8f0:	bf 79 72 
    a8f3:	c7 85 b8 f4 ff ff eb 	movl   $0xee4ce2eb,-0xb48(%rbp)
    a8fa:	e2 4c ee 
    a8fd:	c7 85 bc f4 ff ff 86 	movl   $0x7279bf86,-0xb44(%rbp)
    a904:	bf 79 72 
    a907:	c7 85 c0 f4 ff ff eb 	movl   $0xee4ce2eb,-0xb40(%rbp)
    a90e:	e2 4c ee 
    a911:	c7 85 c4 f4 ff ff eb 	movl   $0xee4ce2eb,-0xb3c(%rbp)
    a918:	e2 4c ee 
    a91b:	c7 85 c8 f4 ff ff 07 	movl   $0x7,-0xb38(%rbp)
    a922:	00 00 00 
    a925:	c7 85 cc f4 ff ff eb 	movl   $0xee4ce2eb,-0xb34(%rbp)
    a92c:	e2 4c ee 
    a92f:	c7 85 d0 f4 ff ff eb 	movl   $0xee4ce2eb,-0xb30(%rbp)
    a936:	e2 4c ee 
    a939:	c7 85 d4 f4 ff ff 07 	movl   $0x7,-0xb2c(%rbp)
    a940:	00 00 00 
    a943:	c7 85 d8 f4 ff ff eb 	movl   $0xee4ce2eb,-0xb28(%rbp)
    a94a:	e2 4c ee 
    a94d:	c7 85 dc f4 ff ff eb 	movl   $0xee4ce2eb,-0xb24(%rbp)
    a954:	e2 4c ee 
    a957:	c7 85 c4 f2 ff ff 05 	movl   $0x5,-0xd3c(%rbp)
    a95e:	00 00 00 
    a961:	c7 85 a8 f2 ff ff 01 	movl   $0x1,-0xd58(%rbp)
    a968:	00 00 00 
    a96b:	c7 85 ac f2 ff ff 6b 	movl   $0xbb7eb76b,-0xd54(%rbp)
    a972:	b7 7e bb 
    a975:	48 c7 85 f8 f2 ff ff 	movq   $0x0,-0xd08(%rbp)
    a97c:	00 00 00 00 
    a980:	48 c7 85 00 f3 ff ff 	movq   $0x0,-0xd00(%rbp)
    a987:	00 00 00 00 
    a98b:	48 8d 85 30 f6 ff ff 	lea    -0x9d0(%rbp),%rax
    a992:	48 8d 15 67 07 01 00 	lea    0x10767(%rip),%rdx        # 1b100 <g_2720+0x8>
    a999:	b9 5a 00 00 00       	mov    $0x5a,%ecx
    a99e:	48 89 c7             	mov    %rax,%rdi
    a9a1:	48 89 d6             	mov    %rdx,%rsi
    a9a4:	f3 48 a5             	rep movsq %ds:(%rsi),%es:(%rdi)
    a9a7:	48 c7 85 40 f3 ff ff 	movq   $0xffffffffffffffff,-0xcc0(%rbp)
    a9ae:	ff ff ff ff 
    a9b2:	c6 85 96 f2 ff ff f5 	movb   $0xf5,-0xd6a(%rbp)
    a9b9:	c7 85 b0 f2 ff ff 00 	movl   $0x0,-0xd50(%rbp)
    a9c0:	00 00 00 
    a9c3:	eb 1e                	jmp    a9e3 <func_1+0x22e>
    a9c5:	8b 85 b0 f2 ff ff    	mov    -0xd50(%rbp),%eax
    a9cb:	48 98                	cltq   
    a9cd:	48 8d 95 f0 f2 ff ff 	lea    -0xd10(%rbp),%rdx
    a9d4:	48 89 94 c5 20 f4 ff 	mov    %rdx,-0xbe0(%rbp,%rax,8)
    a9db:	ff 
    a9dc:	83 85 b0 f2 ff ff 01 	addl   $0x1,-0xd50(%rbp)
    a9e3:	83 bd b0 f2 ff ff 06 	cmpl   $0x6,-0xd50(%rbp)
    a9ea:	7e d9                	jle    a9c5 <func_1+0x210>
    a9ec:	8b 85 a0 f2 ff ff    	mov    -0xd60(%rbp),%eax
    a9f2:	44 0f b6 e0          	movzbl %al,%r12d
    a9f6:	0f b6 85 94 f2 ff ff 	movzbl -0xd6c(%rbp),%eax
    a9fd:	0f b6 d8             	movzbl %al,%ebx
    aa00:	4c 0f be bd 95 f2 ff 	movsbq -0xd6b(%rbp),%r15
    aa07:	ff 
    aa08:	0f b6 05 21 56 01 00 	movzbl 0x15621(%rip),%eax        # 20030 <g_58>
    aa0f:	44 0f be f0          	movsbl %al,%r14d
    aa13:	48 b8 51 ec 9a 6d 46 	movabs $0x606497466d9aec51,%rax
    aa1a:	97 64 60 
    aa1d:	44 0f be e8          	movsbl %al,%r13d
    aa21:	8b 05 6d 59 01 00    	mov    0x1596d(%rip),%eax        # 20394 <g_432+0x4>
    aa27:	48 98                	cltq   
    aa29:	48 89 85 88 f2 ff ff 	mov    %rax,-0xd78(%rbp)
    aa30:	8b 05 3a 58 01 00    	mov    0x1583a(%rip),%eax        # 20270 <g_220>
    aa36:	98                   	cwtl   
    aa37:	89 85 84 f2 ff ff    	mov    %eax,-0xd7c(%rbp)
    aa3d:	0f b6 85 94 f2 ff ff 	movzbl -0xd6c(%rbp),%eax
    aa44:	0f b6 c0             	movzbl %al,%eax
    aa47:	89 85 80 f2 ff ff    	mov    %eax,-0xd80(%rbp)
    aa4d:	48 8b 85 20 f3 ff ff 	mov    -0xce0(%rbp),%rax
    aa54:	48 89 c7             	mov    %rax,%rdi
    aa57:	e8 97 d4 00 00       	callq  17ef3 <func_39>
    aa5c:	48 89 c1             	mov    %rax,%rcx
    aa5f:	48 8d 85 94 f2 ff ff 	lea    -0xd6c(%rbp),%rax
    aa66:	8b 95 80 f2 ff ff    	mov    -0xd80(%rbp),%edx
    aa6c:	48 89 ce             	mov    %rcx,%rsi
    aa6f:	48 89 c7             	mov    %rax,%rdi
    aa72:	e8 df d3 00 00       	callq  17e56 <func_35>
    aa77:	48 8b 95 28 f3 ff ff 	mov    -0xcd8(%rbp),%rdx
    aa7e:	48 89 02             	mov    %rax,(%rdx)
    aa81:	48 8b 85 28 f3 ff ff 	mov    -0xcd8(%rbp),%rax
    aa88:	48 8b 10             	mov    (%rax),%rdx
    aa8b:	48 8b 85 20 f3 ff ff 	mov    -0xce0(%rbp),%rax
    aa92:	48 89 d6             	mov    %rdx,%rsi
    aa95:	48 89 c7             	mov    %rax,%rdi
    aa98:	e8 b8 c6 00 00       	callq  17155 <func_32>
    aa9d:	38 85 95 f2 ff ff    	cmp    %al,-0xd6b(%rbp)
    aaa3:	0f 95 c0             	setne  %al
    aaa6:	0f b6 d0             	movzbl %al,%edx
    aaa9:	0f be 85 95 f2 ff ff 	movsbl -0xd6b(%rbp),%eax
    aab0:	39 c2                	cmp    %eax,%edx
    aab2:	7d 07                	jge    aabb <func_1+0x306>
    aab4:	ba 00 8a 00 00       	mov    $0x8a00,%edx
    aab9:	eb 05                	jmp    aac0 <func_1+0x30b>
    aabb:	ba 01 8a 00 00       	mov    $0x8a01,%edx
    aac0:	0f b6 85 94 f2 ff ff 	movzbl -0xd6c(%rbp),%eax
    aac7:	0f b6 c0             	movzbl %al,%eax
    aaca:	48 39 c2             	cmp    %rax,%rdx
    aacd:	0f 95 c0             	setne  %al
    aad0:	0f b6 d0             	movzbl %al,%edx
    aad3:	8b 05 93 57 01 00    	mov    0x15793(%rip),%eax        # 2026c <g_211>
    aad9:	09 c2                	or     %eax,%edx
    aadb:	8b 05 8b 57 01 00    	mov    0x1578b(%rip),%eax        # 2026c <g_211>
    aae1:	39 c2                	cmp    %eax,%edx
    aae3:	0f 96 c0             	setbe  %al
    aae6:	0f b6 c0             	movzbl %al,%eax
    aae9:	48 89 c7             	mov    %rax,%rdi
    aaec:	e8 25 ed ff ff       	callq  9816 <safe_unary_minus_func_int64_t_s>
    aaf1:	89 c7                	mov    %eax,%edi
    aaf3:	e8 ae f3 ff ff       	callq  9ea6 <safe_unary_minus_func_uint32_t_u>
    aaf8:	8b b5 84 f2 ff ff    	mov    -0xd7c(%rbp),%esi
    aafe:	89 c7                	mov    %eax,%edi
    ab00:	e8 e2 a7 00 00       	callq  152e7 <func_27>
    ab05:	b9 00 00 00 00       	mov    $0x0,%ecx
    ab0a:	48 8b 85 20 f3 ff ff 	mov    -0xce0(%rbp),%rax
    ab11:	0f b6 00             	movzbl (%rax),%eax
    ab14:	8d 50 ff             	lea    -0x1(%rax),%edx
    ab17:	48 8b 85 20 f3 ff ff 	mov    -0xce0(%rbp),%rax
    ab1e:	88 10                	mov    %dl,(%rax)
    ab20:	48 8b 85 e8 f2 ff ff 	mov    -0xd18(%rbp),%rax
    ab27:	0f b6 10             	movzbl (%rax),%edx
    ab2a:	48 8b 85 e8 f2 ff ff 	mov    -0xd18(%rbp),%rax
    ab31:	31 ca                	xor    %ecx,%edx
    ab33:	88 10                	mov    %dl,(%rax)
    ab35:	48 8b 05 2c b2 01 00 	mov    0x1b22c(%rip),%rax        # 25d68 <g_21>
    ab3c:	be 00 00 00 00       	mov    $0x0,%esi
    ab41:	48 89 c7             	mov    %rax,%rdi
    ab44:	e8 3a 9d 00 00       	callq  14883 <func_18>
    ab49:	48 8b b5 88 f2 ff ff 	mov    -0xd78(%rbp),%rsi
    ab50:	bf 01 00 00 00       	mov    $0x1,%edi
    ab55:	e8 f1 f4 ff ff       	callq  a04b <safe_sub_func_uint64_t_u_u>
    ab5a:	0f b7 d0             	movzwl %ax,%edx
    ab5d:	0f b6 85 94 f2 ff ff 	movzbl -0xd6c(%rbp),%eax
    ab64:	0f b6 c0             	movzbl %al,%eax
    ab67:	89 d6                	mov    %edx,%esi
    ab69:	89 c7                	mov    %eax,%edi
    ab6b:	e8 8f f1 ff ff       	callq  9cff <safe_add_func_uint16_t_u_u>
    ab70:	0f b7 c0             	movzwl %ax,%eax
    ab73:	4c 89 f9             	mov    %r15,%rcx
    ab76:	44 89 f2             	mov    %r14d,%edx
    ab79:	44 89 ee             	mov    %r13d,%esi
    ab7c:	89 c7                	mov    %eax,%edi
    ab7e:	e8 d5 4c 00 00       	callq  f858 <func_8>
    ab83:	44 89 e2             	mov    %r12d,%edx
    ab86:	89 de                	mov    %ebx,%esi
    ab88:	48 89 c7             	mov    %rax,%rdi
    ab8b:	e8 f8 3b 00 00       	callq  e788 <func_4>
    ab90:	48 89 c7             	mov    %rax,%rdi
    ab93:	e8 b3 1c 00 00       	callq  c84b <func_2>
    ab98:	48 8b 95 30 f3 ff ff 	mov    -0xcd0(%rbp),%rdx
    ab9f:	89 02                	mov    %eax,(%rdx)
    aba1:	48 8b 05 a0 97 01 00 	mov    0x197a0(%rip),%rax        # 24348 <g_123>
    aba8:	48 8b 00             	mov    (%rax),%rax
    abab:	48 89 c2             	mov    %rax,%rdx
    abae:	48 8b 85 30 f3 ff ff 	mov    -0xcd0(%rbp),%rax
    abb5:	8b 00                	mov    (%rax),%eax
    abb7:	48 98                	cltq   
    abb9:	48 89 d6             	mov    %rdx,%rsi
    abbc:	48 89 c7             	mov    %rax,%rdi
    abbf:	e8 33 ee ff ff       	callq  99f7 <safe_div_func_int64_t_s_s>
    abc4:	49 89 c4             	mov    %rax,%r12
    abc7:	48 8b 85 30 f3 ff ff 	mov    -0xcd0(%rbp),%rax
    abce:	8b 00                	mov    (%rax),%eax
    abd0:	85 c0                	test   %eax,%eax
    abd2:	0f 85 d2 00 00 00    	jne    acaa <func_1+0x4f5>
    abd8:	48 8b 05 91 ac 01 00 	mov    0x1ac91(%rip),%rax        # 25870 <g_2287>
    abdf:	48 8b 00             	mov    (%rax),%rax
    abe2:	48 8b 00             	mov    (%rax),%rax
    abe5:	48 8b 00             	mov    (%rax),%rax
    abe8:	0f b7 00             	movzwl (%rax),%eax
    abeb:	0f b7 d8             	movzwl %ax,%ebx
    abee:	48 8b 85 38 f3 ff ff 	mov    -0xcc8(%rbp),%rax
    abf5:	0f b7 00             	movzwl (%rax),%eax
    abf8:	83 c8 07             	or     $0x7,%eax
    abfb:	89 c2                	mov    %eax,%edx
    abfd:	48 8b 85 38 f3 ff ff 	mov    -0xcc8(%rbp),%rax
    ac04:	66 89 10             	mov    %dx,(%rax)
    ac07:	be 00 00 00 00       	mov    $0x0,%esi
    ac0c:	bf 2b 00 00 00       	mov    $0x2b,%edi
    ac11:	e8 7d ef ff ff       	callq  9b93 <safe_mul_func_uint8_t_u_u>
    ac16:	84 c0                	test   %al,%al
    ac18:	75 0d                	jne    ac27 <func_1+0x472>
    ac1a:	48 8b 85 30 f3 ff ff 	mov    -0xcd0(%rbp),%rax
    ac21:	8b 00                	mov    (%rax),%eax
    ac23:	85 c0                	test   %eax,%eax
    ac25:	74 07                	je     ac2e <func_1+0x479>
    ac27:	b8 01 00 00 00       	mov    $0x1,%eax
    ac2c:	eb 05                	jmp    ac33 <func_1+0x47e>
    ac2e:	b8 00 00 00 00       	mov    $0x0,%eax
    ac33:	3d 86 00 00 00       	cmp    $0x86,%eax
    ac38:	0f 9e c0             	setle  %al
    ac3b:	0f b6 c8             	movzbl %al,%ecx
    ac3e:	48 8b 85 e8 f2 ff ff 	mov    -0xd18(%rbp),%rax
    ac45:	0f b6 10             	movzbl (%rax),%edx
    ac48:	48 8b 85 e8 f2 ff ff 	mov    -0xd18(%rbp),%rax
    ac4f:	09 ca                	or     %ecx,%edx
    ac51:	88 10                	mov    %dl,(%rax)
    ac53:	0f b6 00             	movzbl (%rax),%eax
    ac56:	0f be d0             	movsbl %al,%edx
    ac59:	8b 85 08 f4 ff ff    	mov    -0xbf8(%rbp),%eax
    ac5f:	39 c2                	cmp    %eax,%edx
    ac61:	48 8b 85 28 f4 ff ff 	mov    -0xbd8(%rbp),%rax
    ac68:	48 85 c0             	test   %rax,%rax
    ac6b:	0f 95 c0             	setne  %al
    ac6e:	0f b6 c0             	movzbl %al,%eax
    ac71:	89 de                	mov    %ebx,%esi
    ac73:	89 c7                	mov    %eax,%edi
    ac75:	e8 14 f1 ff ff       	callq  9d8e <safe_div_func_uint16_t_u_u>
    ac7a:	0f be c0             	movsbl %al,%eax
    ac7d:	be 00 00 00 00       	mov    $0x0,%esi
    ac82:	89 c7                	mov    %eax,%edi
    ac84:	e8 65 e6 ff ff       	callq  92ee <safe_lshift_func_int8_t_s_u>
    ac89:	48 0f be d0          	movsbq %al,%rdx
    ac8d:	48 8b 05 8c ab 01 00 	mov    0x1ab8c(%rip),%rax        # 25820 <g_1831>
    ac94:	48 8b 00             	mov    (%rax),%rax
    ac97:	48 8b 00             	mov    (%rax),%rax
    ac9a:	48 89 d6             	mov    %rdx,%rsi
    ac9d:	48 89 c7             	mov    %rax,%rdi
    aca0:	e8 52 ed ff ff       	callq  99f7 <safe_div_func_int64_t_s_s>
    aca5:	48 85 c0             	test   %rax,%rax
    aca8:	74 07                	je     acb1 <func_1+0x4fc>
    acaa:	ba 01 00 00 00       	mov    $0x1,%edx
    acaf:	eb 05                	jmp    acb6 <func_1+0x501>
    acb1:	ba 00 00 00 00       	mov    $0x0,%edx
    acb6:	48 8b 85 30 f3 ff ff 	mov    -0xcd0(%rbp),%rax
    acbd:	8b 00                	mov    (%rax),%eax
    acbf:	21 d0                	and    %edx,%eax
    acc1:	48 98                	cltq   
    acc3:	49 39 c4             	cmp    %rax,%r12
    acc6:	0f 9e c0             	setle  %al
    acc9:	0f b6 d0             	movzbl %al,%edx
    accc:	48 8b 85 30 f3 ff ff 	mov    -0xcd0(%rbp),%rax
    acd3:	89 10                	mov    %edx,(%rax)
    acd5:	48 8b 85 30 f3 ff ff 	mov    -0xcd0(%rbp),%rax
    acdc:	8b 10                	mov    (%rax),%edx
    acde:	8b 85 08 f4 ff ff    	mov    -0xbf8(%rbp),%eax
    ace4:	09 d0                	or     %edx,%eax
    ace6:	85 c0                	test   %eax,%eax
    ace8:	0f 84 ec 00 00 00    	je     adda <func_1+0x625>
    acee:	48 8d 05 5f 55 01 00 	lea    0x1555f(%rip),%rax        # 20254 <g_146>
    acf5:	48 89 85 00 f9 ff ff 	mov    %rax,-0x700(%rbp)
    acfc:	48 8d 05 51 55 01 00 	lea    0x15551(%rip),%rax        # 20254 <g_146>
    ad03:	48 89 85 08 f9 ff ff 	mov    %rax,-0x6f8(%rbp)
    ad0a:	48 8d 05 43 55 01 00 	lea    0x15543(%rip),%rax        # 20254 <g_146>
    ad11:	48 89 85 10 f9 ff ff 	mov    %rax,-0x6f0(%rbp)
    ad18:	48 8d 05 35 55 01 00 	lea    0x15535(%rip),%rax        # 20254 <g_146>
    ad1f:	48 89 85 18 f9 ff ff 	mov    %rax,-0x6e8(%rbp)
    ad26:	48 8d 05 27 55 01 00 	lea    0x15527(%rip),%rax        # 20254 <g_146>
    ad2d:	48 89 85 20 f9 ff ff 	mov    %rax,-0x6e0(%rbp)
    ad34:	48 8d 05 19 55 01 00 	lea    0x15519(%rip),%rax        # 20254 <g_146>
    ad3b:	48 89 85 28 f9 ff ff 	mov    %rax,-0x6d8(%rbp)
    ad42:	48 8d 05 0b 55 01 00 	lea    0x1550b(%rip),%rax        # 20254 <g_146>
    ad49:	48 89 85 30 f9 ff ff 	mov    %rax,-0x6d0(%rbp)
    ad50:	48 8d 05 fd 54 01 00 	lea    0x154fd(%rip),%rax        # 20254 <g_146>
    ad57:	48 89 85 38 f9 ff ff 	mov    %rax,-0x6c8(%rbp)
    ad5e:	83 85 c4 f2 ff ff 01 	addl   $0x1,-0xd3c(%rbp)
    ad65:	48 8b 15 e4 aa 01 00 	mov    0x1aae4(%rip),%rdx        # 25850 <g_2076>
    ad6c:	48 8b 05 dd aa 01 00 	mov    0x1aadd(%rip),%rax        # 25850 <g_2076>
    ad73:	48 8b 12             	mov    (%rdx),%rdx
    ad76:	48 89 10             	mov    %rdx,(%rax)
    ad79:	c7 05 d5 54 01 00 00 	movl   $0x0,0x154d5(%rip)        # 20258 <g_174>
    ad80:	00 00 00 
    ad83:	eb 45                	jmp    adca <func_1+0x615>
    ad85:	48 b8 98 a3 c4 7e f4 	movabs $0xf6e290f47ec4a398,%rax
    ad8c:	90 e2 f6 
    ad8f:	48 89 85 b8 f3 ff ff 	mov    %rax,-0xc48(%rbp)
    ad96:	c7 85 d4 f2 ff ff 05 	movl   $0x5,-0xd2c(%rbp)
    ad9d:	00 00 00 
    ada0:	c7 85 d8 f2 ff ff 08 	movl   $0x8,-0xd28(%rbp)
    ada7:	00 00 00 
    adaa:	c7 85 dc f2 ff ff fa 	movl   $0xfffffffa,-0xd24(%rbp)
    adb1:	ff ff ff 
    adb4:	83 ad a8 f2 ff ff 01 	subl   $0x1,-0xd58(%rbp)
    adbb:	8b 05 97 54 01 00    	mov    0x15497(%rip),%eax        # 20258 <g_174>
    adc1:	83 c0 01             	add    $0x1,%eax
    adc4:	89 05 8e 54 01 00    	mov    %eax,0x1548e(%rip)        # 20258 <g_174>
    adca:	8b 05 88 54 01 00    	mov    0x15488(%rip),%eax        # 20258 <g_174>
    add0:	83 f8 01             	cmp    $0x1,%eax
    add3:	76 b0                	jbe    ad85 <func_1+0x5d0>
    add5:	e9 42 1a 00 00       	jmpq   c81c <func_1+0x2067>
    adda:	c7 85 c8 f2 ff ff 01 	movl   $0x1,-0xd38(%rbp)
    ade1:	00 00 00 
    ade4:	c7 85 a4 f2 ff ff 00 	movl   $0x0,-0xd5c(%rbp)
    adeb:	00 00 00 
    adee:	48 c7 85 08 f3 ff ff 	movq   $0xffffffffffffffff,-0xcf8(%rbp)
    adf5:	ff ff ff ff 
    adf9:	66 c7 85 9a f2 ff ff 	movw   $0xdec0,-0xd66(%rbp)
    ae00:	c0 de 
    ae02:	c7 85 d0 f3 ff ff 07 	movl   $0x7,-0xc30(%rbp)
    ae09:	00 00 00 
    ae0c:	c7 85 d4 f3 ff ff fd 	movl   $0xfffffffd,-0xc2c(%rbp)
    ae13:	ff ff ff 
    ae16:	c7 85 d8 f3 ff ff 07 	movl   $0x7,-0xc28(%rbp)
    ae1d:	00 00 00 
    ae20:	c7 85 dc f3 ff ff fd 	movl   $0xfffffffd,-0xc24(%rbp)
    ae27:	ff ff ff 
    ae2a:	c7 85 e0 f3 ff ff 07 	movl   $0x7,-0xc20(%rbp)
    ae31:	00 00 00 
    ae34:	c7 85 e4 f3 ff ff fd 	movl   $0xfffffffd,-0xc1c(%rbp)
    ae3b:	ff ff ff 
    ae3e:	c7 85 e8 f3 ff ff 07 	movl   $0x7,-0xc18(%rbp)
    ae45:	00 00 00 
    ae48:	c7 85 ec f3 ff ff fd 	movl   $0xfffffffd,-0xc14(%rbp)
    ae4f:	ff ff ff 
    ae52:	48 8d 85 f8 f2 ff ff 	lea    -0xd08(%rbp),%rax
    ae59:	48 89 85 48 f3 ff ff 	mov    %rax,-0xcb8(%rbp)
    ae60:	c7 85 b4 f2 ff ff 2f 	movl   $0x749dc52f,-0xd4c(%rbp)
    ae67:	c5 9d 74 
    ae6a:	66 c7 85 98 f2 ff ff 	movw   $0x0,-0xd68(%rbp)
    ae71:	00 00 
    ae73:	c7 85 b8 f2 ff ff 00 	movl   $0x0,-0xd48(%rbp)
    ae7a:	00 00 00 
    ae7d:	eb 4a                	jmp    aec9 <func_1+0x714>
    ae7f:	c7 85 bc f2 ff ff 00 	movl   $0x0,-0xd44(%rbp)
    ae86:	00 00 00 
    ae89:	eb 2e                	jmp    aeb9 <func_1+0x704>
    ae8b:	8b 85 bc f2 ff ff    	mov    -0xd44(%rbp),%eax
    ae91:	48 98                	cltq   
    ae93:	8b 95 b8 f2 ff ff    	mov    -0xd48(%rbp),%edx
    ae99:	48 63 d2             	movslq %edx,%rdx
    ae9c:	48 c1 e2 03          	shl    $0x3,%rdx
    aea0:	48 01 d0             	add    %rdx,%rax
    aea3:	48 8d 15 b6 94 01 00 	lea    0x194b6(%rip),%rdx        # 24360 <g_178>
    aeaa:	48 89 94 c5 30 f5 ff 	mov    %rdx,-0xad0(%rbp,%rax,8)
    aeb1:	ff 
    aeb2:	83 85 bc f2 ff ff 01 	addl   $0x1,-0xd44(%rbp)
    aeb9:	83 bd bc f2 ff ff 07 	cmpl   $0x7,-0xd44(%rbp)
    aec0:	7e c9                	jle    ae8b <func_1+0x6d6>
    aec2:	83 85 b8 f2 ff ff 01 	addl   $0x1,-0xd48(%rbp)
    aec9:	83 bd b8 f2 ff ff 03 	cmpl   $0x3,-0xd48(%rbp)
    aed0:	7e ad                	jle    ae7f <func_1+0x6ca>
    aed2:	8b 9d a4 f2 ff ff    	mov    -0xd5c(%rbp),%ebx
    aed8:	48 8b 05 11 99 01 00 	mov    0x19911(%rip),%rax        # 247f0 <g_1214>
    aedf:	48 85 c0             	test   %rax,%rax
    aee2:	0f 95 c0             	setne  %al
    aee5:	0f b6 d0             	movzbl %al,%edx
    aee8:	8b 85 a4 f2 ff ff    	mov    -0xd5c(%rbp),%eax
    aeee:	39 c2                	cmp    %eax,%edx
    aef0:	0f 9c c0             	setl   %al
    aef3:	0f b6 d0             	movzbl %al,%edx
    aef6:	0f b7 05 3b 55 01 00 	movzwl 0x1553b(%rip),%eax        # 20438 <g_1049>
    aefd:	66 85 c0             	test   %ax,%ax
    af00:	74 13                	je     af15 <func_1+0x760>
    af02:	48 8b 05 e7 6f 01 00 	mov    0x16fe7(%rip),%rax        # 21ef0 <g_2666>
    af09:	48 85 c0             	test   %rax,%rax
    af0c:	74 07                	je     af15 <func_1+0x760>
    af0e:	b8 01 00 00 00       	mov    $0x1,%eax
    af13:	eb 05                	jmp    af1a <func_1+0x765>
    af15:	b8 00 00 00 00       	mov    $0x0,%eax
    af1a:	48 98                	cltq   
    af1c:	48 89 d6             	mov    %rdx,%rsi
    af1f:	48 89 c7             	mov    %rax,%rdi
    af22:	e8 1a e9 ff ff       	callq  9841 <safe_add_func_int64_t_s_s>
    af27:	48 8b 05 62 a9 01 00 	mov    0x1a962(%rip),%rax        # 25890 <g_2301>
    af2e:	48 8b 10             	mov    (%rax),%rdx
    af31:	48 8b 85 f8 f2 ff ff 	mov    -0xd08(%rbp),%rax
    af38:	48 39 c2             	cmp    %rax,%rdx
    af3b:	0f 95 c0             	setne  %al
    af3e:	0f b6 c0             	movzbl %al,%eax
    af41:	89 85 c8 f2 ff ff    	mov    %eax,-0xd38(%rbp)
    af47:	8b 85 c8 f2 ff ff    	mov    -0xd38(%rbp),%eax
    af4d:	25 bd 00 00 00       	and    $0xbd,%eax
    af52:	48 89 c6             	mov    %rax,%rsi
    af55:	bf 00 00 00 00       	mov    $0x0,%edi
    af5a:	e8 e2 e8 ff ff       	callq  9841 <safe_add_func_int64_t_s_s>
    af5f:	48 89 c2             	mov    %rax,%rdx
    af62:	48 8b 85 30 f3 ff ff 	mov    -0xcd0(%rbp),%rax
    af69:	8b 00                	mov    (%rax),%eax
    af6b:	83 e0 01             	and    $0x1,%eax
    af6e:	85 c0                	test   %eax,%eax
    af70:	0f 94 c0             	sete   %al
    af73:	0f b6 c0             	movzbl %al,%eax
    af76:	48 98                	cltq   
    af78:	48 39 c2             	cmp    %rax,%rdx
    af7b:	0f 97 c0             	seta   %al
    af7e:	0f b6 d0             	movzbl %al,%edx
    af81:	48 8b 05 70 ae 01 00 	mov    0x1ae70(%rip),%rax        # 25df8 <g_1228>
    af88:	48 39 c2             	cmp    %rax,%rdx
    af8b:	0f 95 c0             	setne  %al
    af8e:	0f b6 d0             	movzbl %al,%edx
    af91:	48 8b 85 30 f3 ff ff 	mov    -0xcd0(%rbp),%rax
    af98:	8b 00                	mov    (%rax),%eax
    af9a:	39 c2                	cmp    %eax,%edx
    af9c:	0f 95 c0             	setne  %al
    af9f:	0f b6 c0             	movzbl %al,%eax
    afa2:	89 de                	mov    %ebx,%esi
    afa4:	89 c7                	mov    %eax,%edi
    afa6:	e8 5a e6 ff ff       	callq  9605 <safe_sub_func_int32_t_s_s>
    afab:	85 c0                	test   %eax,%eax
    afad:	0f 84 de 02 00 00    	je     b291 <func_1+0xadc>
    afb3:	c6 85 97 f2 ff ff a4 	movb   $0xa4,-0xd69(%rbp)
    afba:	c7 85 ac f2 ff ff 00 	movl   $0x0,-0xd54(%rbp)
    afc1:	00 00 00 
    afc4:	eb 21                	jmp    afe7 <func_1+0x832>
    afc6:	48 8b 85 30 f3 ff ff 	mov    -0xcd0(%rbp),%rax
    afcd:	8b 10                	mov    (%rax),%edx
    afcf:	8b 85 a4 f2 ff ff    	mov    -0xd5c(%rbp),%eax
    afd5:	31 c2                	xor    %eax,%edx
    afd7:	48 8b 85 30 f3 ff ff 	mov    -0xcd0(%rbp),%rax
    afde:	89 10                	mov    %edx,(%rax)
    afe0:	83 85 ac f2 ff ff 01 	addl   $0x1,-0xd54(%rbp)
    afe7:	83 bd ac f2 ff ff 27 	cmpl   $0x27,-0xd54(%rbp)
    afee:	77 d6                	ja     afc6 <func_1+0x811>
    aff0:	66 c7 05 b1 53 01 00 	movw   $0x0,0x153b1(%rip)        # 203aa <g_599>
    aff7:	00 00 
    aff9:	e9 7d 02 00 00       	jmpq   b27b <func_1+0xac6>
    affe:	c7 85 cc f2 ff ff 6f 	movl   $0x22a8176f,-0xd34(%rbp)
    b005:	17 a8 22 
    b008:	48 8d 05 09 a5 01 00 	lea    0x1a509(%rip),%rax        # 25518 <g_1616>
    b00f:	48 89 85 10 f3 ff ff 	mov    %rax,-0xcf0(%rbp)
    b016:	48 8d 85 10 f3 ff ff 	lea    -0xcf0(%rbp),%rax
    b01d:	48 89 85 18 f3 ff ff 	mov    %rax,-0xce8(%rbp)
    b024:	48 8d 85 18 f3 ff ff 	lea    -0xce8(%rbp),%rax
    b02b:	48 89 85 50 f3 ff ff 	mov    %rax,-0xcb0(%rbp)
    b032:	48 8d 85 00 f3 ff ff 	lea    -0xd00(%rbp),%rax
    b039:	48 89 85 58 f3 ff ff 	mov    %rax,-0xca8(%rbp)
    b040:	48 c7 85 60 f3 ff ff 	movq   $0x1,-0xca0(%rbp)
    b047:	01 00 00 00 
    b04b:	8b 95 cc f2 ff ff    	mov    -0xd34(%rbp),%edx
    b051:	48 8b 85 30 f3 ff ff 	mov    -0xcd0(%rbp),%rax
    b058:	89 10                	mov    %edx,(%rax)
    b05a:	48 8b 85 60 f3 ff ff 	mov    -0xca0(%rbp),%rax
    b061:	89 85 88 f2 ff ff    	mov    %eax,-0xd78(%rbp)
    b067:	48 8b 05 32 95 01 00 	mov    0x19532(%rip),%rax        # 245a0 <g_458>
    b06e:	8b 00                	mov    (%rax),%eax
    b070:	89 85 84 f2 ff ff    	mov    %eax,-0xd7c(%rbp)
    b076:	0f be 9d 97 f2 ff ff 	movsbl -0xd69(%rbp),%ebx
    b07d:	48 8b 85 30 f3 ff ff 	mov    -0xcd0(%rbp),%rax
    b084:	8b 00                	mov    (%rax),%eax
    b086:	44 0f b7 e0          	movzwl %ax,%r12d
    b08a:	48 8b 85 30 f3 ff ff 	mov    -0xcd0(%rbp),%rax
    b091:	8b 00                	mov    (%rax),%eax
    b093:	44 0f b6 e8          	movzbl %al,%r13d
    b097:	48 8b 95 00 f3 ff ff 	mov    -0xd00(%rbp),%rdx
    b09e:	48 8b 85 58 f3 ff ff 	mov    -0xca8(%rbp),%rax
    b0a5:	48 89 10             	mov    %rdx,(%rax)
    b0a8:	48 8b 85 58 f3 ff ff 	mov    -0xca8(%rbp),%rax
    b0af:	48 8b 00             	mov    (%rax),%rax
    b0b2:	48 39 85 50 f3 ff ff 	cmp    %rax,-0xcb0(%rbp)
    b0b9:	0f 95 c0             	setne  %al
    b0bc:	0f b6 d0             	movzbl %al,%edx
    b0bf:	48 8b 05 5a a7 01 00 	mov    0x1a75a(%rip),%rax        # 25820 <g_1831>
    b0c6:	48 8b 00             	mov    (%rax),%rax
    b0c9:	48 8b 00             	mov    (%rax),%rax
    b0cc:	48 89 d6             	mov    %rdx,%rsi
    b0cf:	48 89 c7             	mov    %rax,%rdi
    b0d2:	e8 6a e7 ff ff       	callq  9841 <safe_add_func_int64_t_s_s>
    b0d7:	0f b6 c0             	movzbl %al,%eax
    b0da:	44 89 ee             	mov    %r13d,%esi
    b0dd:	89 c7                	mov    %eax,%edi
    b0df:	e8 ca ea ff ff       	callq  9bae <safe_mod_func_uint8_t_u_u>
    b0e4:	44 0f be ad 97 f2 ff 	movsbl -0xd69(%rbp),%r13d
    b0eb:	ff 
    b0ec:	48 8b 85 30 f3 ff ff 	mov    -0xcd0(%rbp),%rax
    b0f3:	44 8b 30             	mov    (%rax),%r14d
    b0f6:	48 8b 85 60 f3 ff ff 	mov    -0xca0(%rbp),%rax
    b0fd:	44 0f bf f8          	movswl %ax,%r15d
    b101:	48 8b 85 30 f3 ff ff 	mov    -0xcd0(%rbp),%rax
    b108:	8b 00                	mov    (%rax),%eax
    b10a:	89 85 80 f2 ff ff    	mov    %eax,-0xd80(%rbp)
    b110:	48 8b 95 38 f5 ff ff 	mov    -0xac8(%rbp),%rdx
    b117:	48 8b 85 10 f6 ff ff 	mov    -0x9f0(%rbp),%rax
    b11e:	48 39 c2             	cmp    %rax,%rdx
    b121:	0f 95 c0             	setne  %al
    b124:	89 c2                	mov    %eax,%edx
    b126:	48 8b 85 20 f3 ff ff 	mov    -0xce0(%rbp),%rax
    b12d:	88 10                	mov    %dl,(%rax)
    b12f:	48 8b 05 e2 a6 01 00 	mov    0x1a6e2(%rip),%rax        # 25818 <g_1832>
    b136:	48 8b 00             	mov    (%rax),%rax
    b139:	48 89 c2             	mov    %rax,%rdx
    b13c:	48 b8 c5 cc 62 a2 84 	movabs $0xfc477384a262ccc5,%rax
    b143:	73 47 fc 
    b146:	48 09 c2             	or     %rax,%rdx
    b149:	8b 85 d4 f7 ff ff    	mov    -0x82c(%rbp),%eax
    b14f:	48 98                	cltq   
    b151:	48 39 c2             	cmp    %rax,%rdx
    b154:	0f 92 c0             	setb   %al
    b157:	0f b6 d0             	movzbl %al,%edx
    b15a:	48 8d 05 9f 94 01 00 	lea    0x1949f(%rip),%rax        # 24600 <g_548>
    b161:	48 8b 00             	mov    (%rax),%rax
    b164:	0f b7 08             	movzwl (%rax),%ecx
    b167:	83 c1 01             	add    $0x1,%ecx
    b16a:	66 89 08             	mov    %cx,(%rax)
    b16d:	0f b7 00             	movzwl (%rax),%eax
    b170:	0f b7 c0             	movzwl %ax,%eax
    b173:	89 d6                	mov    %edx,%esi
    b175:	89 c7                	mov    %eax,%edi
    b177:	e8 42 ec ff ff       	callq  9dbe <safe_lshift_func_uint16_t_u_s>
    b17c:	0f b7 c0             	movzwl %ax,%eax
    b17f:	39 85 80 f2 ff ff    	cmp    %eax,-0xd80(%rbp)
    b185:	0f 95 c0             	setne  %al
    b188:	0f b6 c0             	movzbl %al,%eax
    b18b:	44 89 fe             	mov    %r15d,%esi
    b18e:	89 c7                	mov    %eax,%edi
    b190:	e8 60 e2 ff ff       	callq  93f5 <safe_mul_func_int16_t_s_s>
    b195:	0f b7 d0             	movzwl %ax,%edx
    b198:	66 0f be 85 97 f2 ff 	movsbw -0xd69(%rbp),%ax
    b19f:	ff 
    b1a0:	0f b7 c0             	movzwl %ax,%eax
    b1a3:	89 d6                	mov    %edx,%esi
    b1a5:	89 c7                	mov    %eax,%edi
    b1a7:	e8 b0 eb ff ff       	callq  9d5c <safe_mod_func_uint16_t_u_u>
    b1ac:	0f b7 d0             	movzwl %ax,%edx
    b1af:	48 8b 05 6a a6 01 00 	mov    0x1a66a(%rip),%rax        # 25820 <g_1831>
    b1b6:	48 8b 00             	mov    (%rax),%rax
    b1b9:	48 8b 00             	mov    (%rax),%rax
    b1bc:	48 39 c2             	cmp    %rax,%rdx
    b1bf:	0f 9e c0             	setle  %al
    b1c2:	0f b6 c0             	movzbl %al,%eax
    b1c5:	44 89 f6             	mov    %r14d,%esi
    b1c8:	89 c7                	mov    %eax,%edi
    b1ca:	e8 79 ec ff ff       	callq  9e48 <safe_rshift_func_uint16_t_u_s>
    b1cf:	98                   	cwtl   
    b1d0:	44 89 ee             	mov    %r13d,%esi
    b1d3:	89 c7                	mov    %eax,%edi
    b1d5:	e8 89 e3 ff ff       	callq  9563 <safe_rshift_func_int16_t_s_u>
    b1da:	66 85 c0             	test   %ax,%ax
    b1dd:	0f 95 c0             	setne  %al
    b1e0:	0f b6 c0             	movzbl %al,%eax
    b1e3:	44 89 e6             	mov    %r12d,%esi
    b1e6:	89 c7                	mov    %eax,%edi
    b1e8:	e8 50 eb ff ff       	callq  9d3d <safe_mul_func_uint16_t_u_u>
    b1ed:	66 85 c0             	test   %ax,%ax
    b1f0:	74 15                	je     b207 <func_1+0xa52>
    b1f2:	48 8b 05 1f a3 01 00 	mov    0x1a31f(%rip),%rax        # 25518 <g_1616>
    b1f9:	0f b6 00             	movzbl (%rax),%eax
    b1fc:	84 c0                	test   %al,%al
    b1fe:	74 07                	je     b207 <func_1+0xa52>
    b200:	b8 01 00 00 00       	mov    $0x1,%eax
    b205:	eb 05                	jmp    b20c <func_1+0xa57>
    b207:	b8 00 00 00 00       	mov    $0x0,%eax
    b20c:	89 de                	mov    %ebx,%esi
    b20e:	89 c7                	mov    %eax,%edi
    b210:	e8 10 ed ff ff       	callq  9f25 <safe_div_func_uint32_t_u_u>
    b215:	8b b5 84 f2 ff ff    	mov    -0xd7c(%rbp),%esi
    b21b:	89 c7                	mov    %eax,%edi
    b21d:	e8 dd e4 ff ff       	callq  96ff <safe_div_func_int32_t_s_s>
    b222:	85 c0                	test   %eax,%eax
    b224:	74 07                	je     b22d <func_1+0xa78>
    b226:	ba 01 00 00 00       	mov    $0x1,%edx
    b22b:	eb 05                	jmp    b232 <func_1+0xa7d>
    b22d:	ba 00 00 00 00       	mov    $0x0,%edx
    b232:	48 8b 85 30 f3 ff ff 	mov    -0xcd0(%rbp),%rax
    b239:	8b 00                	mov    (%rax),%eax
    b23b:	39 c2                	cmp    %eax,%edx
    b23d:	0f 95 c0             	setne  %al
    b240:	0f b6 d0             	movzbl %al,%edx
    b243:	0f bf 85 9a f2 ff ff 	movswl -0xd66(%rbp),%eax
    b24a:	39 c2                	cmp    %eax,%edx
    b24c:	0f 95 c0             	setne  %al
    b24f:	0f b6 c0             	movzbl %al,%eax
    b252:	8b b5 88 f2 ff ff    	mov    -0xd78(%rbp),%esi
    b258:	89 c7                	mov    %eax,%edi
    b25a:	e8 9e ec ff ff       	callq  9efd <safe_mod_func_uint32_t_u_u>
    b25f:	89 c2                	mov    %eax,%edx
    b261:	48 8b 85 30 f3 ff ff 	mov    -0xcd0(%rbp),%rax
    b268:	89 10                	mov    %edx,(%rax)
    b26a:	0f b7 05 39 51 01 00 	movzwl 0x15139(%rip),%eax        # 203aa <g_599>
    b271:	83 c0 01             	add    $0x1,%eax
    b274:	66 89 05 2f 51 01 00 	mov    %ax,0x1512f(%rip)        # 203aa <g_599>
    b27b:	0f b7 05 28 51 01 00 	movzwl 0x15128(%rip),%eax        # 203aa <g_599>
    b282:	66 83 f8 23          	cmp    $0x23,%ax
    b286:	0f 87 72 fd ff ff    	ja     affe <func_1+0x849>
    b28c:	e9 43 01 00 00       	jmpq   b3d4 <func_1+0xc1f>
    b291:	66 c7 85 9c f2 ff ff 	movw   $0x1f94,-0xd64(%rbp)
    b298:	94 1f 
    b29a:	48 0f bf 9d 9a f2 ff 	movswq -0xd66(%rbp),%rbx
    b2a1:	ff 
    b2a2:	48 8b 05 77 a5 01 00 	mov    0x1a577(%rip),%rax        # 25820 <g_1831>
    b2a9:	48 8b 00             	mov    (%rax),%rax
    b2ac:	4c 8b 20             	mov    (%rax),%r12
    b2af:	0f b7 85 9c f2 ff ff 	movzwl -0xd64(%rbp),%eax
    b2b6:	44 0f bf e8          	movswl %ax,%r13d
    b2ba:	48 8b 85 38 f3 ff ff 	mov    -0xcc8(%rbp),%rax
    b2c1:	66 c7 00 eb 19       	movw   $0x19eb,(%rax)
    b2c6:	48 8b 85 38 f5 ff ff 	mov    -0xac8(%rbp),%rax
    b2cd:	48 85 c0             	test   %rax,%rax
    b2d0:	0f 95 c0             	setne  %al
    b2d3:	0f b6 c0             	movzbl %al,%eax
    b2d6:	be 72 08 00 00       	mov    $0x872,%esi
    b2db:	89 c7                	mov    %eax,%edi
    b2dd:	e8 f1 e0 ff ff       	callq  93d3 <safe_sub_func_int16_t_s_s>
    b2e2:	44 0f bf f0          	movswl %ax,%r14d
    b2e6:	0f b6 85 08 f3 ff ff 	movzbl -0xcf8(%rbp),%eax
    b2ed:	0f be c0             	movsbl %al,%eax
    b2f0:	be 06 00 00 00       	mov    $0x6,%esi
    b2f5:	89 c7                	mov    %eax,%edi
    b2f7:	e8 96 e1 ff ff       	callq  9492 <safe_lshift_func_int16_t_s_s>
    b2fc:	0f b6 c0             	movzbl %al,%eax
    b2ff:	44 89 f6             	mov    %r14d,%esi
    b302:	89 c7                	mov    %eax,%edi
    b304:	e8 b5 e9 ff ff       	callq  9cbe <safe_rshift_func_uint8_t_u_u>
    b309:	0f b6 d0             	movzbl %al,%edx
    b30c:	48 8b 05 85 a5 01 00 	mov    0x1a585(%rip),%rax        # 25898 <g_2350>
    b313:	c7 85 a4 f2 ff ff 00 	movl   $0x0,-0xd5c(%rbp)
    b31a:	00 00 00 
    b31d:	8b 85 a4 f2 ff ff    	mov    -0xd5c(%rbp),%eax
    b323:	0f be c0             	movsbl %al,%eax
    b326:	89 d6                	mov    %edx,%esi
    b328:	89 c7                	mov    %eax,%edi
    b32a:	e8 bf df ff ff       	callq  92ee <safe_lshift_func_int8_t_s_u>
    b32f:	48 8b 05 6a 92 01 00 	mov    0x1926a(%rip),%rax        # 245a0 <g_458>
    b336:	c7 00 01 00 00 00    	movl   $0x1,(%rax)
    b33c:	b8 01 00 00 00       	mov    $0x1,%eax
    b341:	89 c2                	mov    %eax,%edx
    b343:	8b 85 c8 f2 ff ff    	mov    -0xd38(%rbp),%eax
    b349:	21 d0                	and    %edx,%eax
    b34b:	98                   	cwtl   
    b34c:	44 89 ee             	mov    %r13d,%esi
    b34f:	89 c7                	mov    %eax,%edi
    b351:	e8 ff e0 ff ff       	callq  9455 <safe_div_func_int16_t_s_s>
    b356:	66 39 85 9a f2 ff ff 	cmp    %ax,-0xd66(%rbp)
    b35d:	0f 95 c0             	setne  %al
    b360:	0f b6 c0             	movzbl %al,%eax
    b363:	89 85 d0 f3 ff ff    	mov    %eax,-0xc30(%rbp)
    b369:	8b 95 d0 f3 ff ff    	mov    -0xc30(%rbp),%edx
    b36f:	0f bf 85 9a f2 ff ff 	movswl -0xd66(%rbp),%eax
    b376:	39 c2                	cmp    %eax,%edx
    b378:	0f 9d c0             	setge  %al
    b37b:	0f b6 c0             	movzbl %al,%eax
    b37e:	4c 89 e6             	mov    %r12,%rsi
    b381:	48 89 c7             	mov    %rax,%rdi
    b384:	e8 1f e5 ff ff       	callq  98a8 <safe_sub_func_int64_t_s_s>
    b389:	0f b6 d0             	movzbl %al,%edx
    b38c:	0f b7 85 9c f2 ff ff 	movzwl -0xd64(%rbp),%eax
    b393:	0f b6 c0             	movzbl %al,%eax
    b396:	89 d6                	mov    %edx,%esi
    b398:	89 c7                	mov    %eax,%edi
    b39a:	e8 3c e8 ff ff       	callq  9bdb <safe_div_func_uint8_t_u_u>
    b39f:	0f b6 c0             	movzbl %al,%eax
    b3a2:	48 89 de             	mov    %rbx,%rsi
    b3a5:	48 89 c7             	mov    %rax,%rdi
    b3a8:	e8 94 e4 ff ff       	callq  9841 <safe_add_func_int64_t_s_s>
    b3ad:	89 c2                	mov    %eax,%edx
    b3af:	8b 85 c8 f2 ff ff    	mov    -0xd38(%rbp),%eax
    b3b5:	89 c6                	mov    %eax,%esi
    b3b7:	89 d7                	mov    %edx,%edi
    b3b9:	e8 3f eb ff ff       	callq  9efd <safe_mod_func_uint32_t_u_u>
    b3be:	48 8b 95 30 f3 ff ff 	mov    -0xcd0(%rbp),%rdx
    b3c5:	8b 12                	mov    (%rdx),%edx
    b3c7:	09 d0                	or     %edx,%eax
    b3c9:	89 c2                	mov    %eax,%edx
    b3cb:	48 8b 85 30 f3 ff ff 	mov    -0xcd0(%rbp),%rax
    b3d2:	89 10                	mov    %edx,(%rax)
    b3d4:	8b 95 e0 f3 ff ff    	mov    -0xc20(%rbp),%edx
    b3da:	48 8b 85 30 f3 ff ff 	mov    -0xcd0(%rbp),%rax
    b3e1:	8b 00                	mov    (%rax),%eax
    b3e3:	21 d0                	and    %edx,%eax
    b3e5:	89 85 e0 f3 ff ff    	mov    %eax,-0xc20(%rbp)
    b3eb:	66 c7 05 4c 4c 01 00 	movw   $0x0,0x14c4c(%rip)        # 20040 <g_67>
    b3f2:	00 00 
    b3f4:	e9 12 14 00 00       	jmpq   c80b <func_1+0x2056>
    b3f9:	48 b8 e7 55 ce 01 fa 	movabs $0x7f2f05fa01ce55e7,%rax
    b400:	05 2f 7f 
    b403:	48 89 85 68 f3 ff ff 	mov    %rax,-0xc98(%rbp)
    b40a:	48 c7 85 70 f3 ff ff 	movq   $0x0,-0xc90(%rbp)
    b411:	00 00 00 00 
    b415:	48 c7 85 18 f3 ff ff 	movq   $0x0,-0xce8(%rbp)
    b41c:	00 00 00 00 
    b420:	48 8d 85 18 f3 ff ff 	lea    -0xce8(%rbp),%rax
    b427:	48 89 85 78 f3 ff ff 	mov    %rax,-0xc88(%rbp)
    b42e:	c7 85 10 f3 ff ff df 	movl   $0xee9a79df,-0xcf0(%rbp)
    b435:	79 9a ee 
    b438:	66 c7 85 9e f2 ff ff 	movw   $0x0,-0xd62(%rbp)
    b43f:	00 00 
    b441:	c7 85 c0 f2 ff ff 00 	movl   $0x0,-0xd40(%rbp)
    b448:	00 00 00 
    b44b:	eb 1a                	jmp    b467 <func_1+0xcb2>
    b44d:	8b 85 c0 f2 ff ff    	mov    -0xd40(%rbp),%eax
    b453:	48 98                	cltq   
    b455:	c7 84 85 c0 f3 ff ff 	movl   $0xa0a6eb8c,-0xc40(%rbp,%rax,4)
    b45c:	8c eb a6 a0 
    b460:	83 85 c0 f2 ff ff 01 	addl   $0x1,-0xd40(%rbp)
    b467:	83 bd c0 f2 ff ff 03 	cmpl   $0x3,-0xd40(%rbp)
    b46e:	7e dd                	jle    b44d <func_1+0xc98>
    b470:	c7 05 fe 5b 01 00 fc 	movl   $0xfffffffc,0x15bfe(%rip)        # 21078 <g_2045>
    b477:	ff ff ff 
    b47a:	e9 b5 0f 00 00       	jmpq   c434 <func_1+0x1c7f>
    b47f:	48 c7 85 90 f3 ff ff 	movq   $0x0,-0xc70(%rbp)
    b486:	00 00 00 00 
    b48a:	48 8d 05 db 4d 01 00 	lea    0x14ddb(%rip),%rax        # 2026c <g_211>
    b491:	48 89 85 98 f3 ff ff 	mov    %rax,-0xc68(%rbp)
    b498:	48 8d 85 e8 f2 ff ff 	lea    -0xd18(%rbp),%rax
    b49f:	48 89 85 e0 f4 ff ff 	mov    %rax,-0xb20(%rbp)
    b4a6:	48 8d 85 e8 f2 ff ff 	lea    -0xd18(%rbp),%rax
    b4ad:	48 89 85 e8 f4 ff ff 	mov    %rax,-0xb18(%rbp)
    b4b4:	48 8d 85 e8 f2 ff ff 	lea    -0xd18(%rbp),%rax
    b4bb:	48 89 85 f0 f4 ff ff 	mov    %rax,-0xb10(%rbp)
    b4c2:	48 8d 85 e8 f2 ff ff 	lea    -0xd18(%rbp),%rax
    b4c9:	48 89 85 f8 f4 ff ff 	mov    %rax,-0xb08(%rbp)
    b4d0:	48 8d 85 e8 f2 ff ff 	lea    -0xd18(%rbp),%rax
    b4d7:	48 89 85 00 f5 ff ff 	mov    %rax,-0xb00(%rbp)
    b4de:	48 8d 85 e8 f2 ff ff 	lea    -0xd18(%rbp),%rax
    b4e5:	48 89 85 08 f5 ff ff 	mov    %rax,-0xaf8(%rbp)
    b4ec:	48 8d 85 e8 f2 ff ff 	lea    -0xd18(%rbp),%rax
    b4f3:	48 89 85 10 f5 ff ff 	mov    %rax,-0xaf0(%rbp)
    b4fa:	48 8d 85 e8 f2 ff ff 	lea    -0xd18(%rbp),%rax
    b501:	48 89 85 18 f5 ff ff 	mov    %rax,-0xae8(%rbp)
    b508:	48 8d 85 e8 f2 ff ff 	lea    -0xd18(%rbp),%rax
    b50f:	48 89 85 20 f5 ff ff 	mov    %rax,-0xae0(%rbp)
    b516:	48 8d 85 e8 f2 ff ff 	lea    -0xd18(%rbp),%rax
    b51d:	48 89 85 28 f5 ff ff 	mov    %rax,-0xad8(%rbp)
    b524:	48 8d 85 e0 f4 ff ff 	lea    -0xb20(%rbp),%rax
    b52b:	48 83 c0 48          	add    $0x48,%rax
    b52f:	48 89 85 a0 f3 ff ff 	mov    %rax,-0xc60(%rbp)
    b536:	48 8d 05 6d 4e 01 00 	lea    0x14e6d(%rip),%rax        # 203aa <g_599>
    b53d:	48 89 85 a8 f3 ff ff 	mov    %rax,-0xc58(%rbp)
    b544:	c7 85 d0 f2 ff ff fb 	movl   $0xfffffffb,-0xd30(%rbp)
    b54b:	ff ff ff 
    b54e:	48 8d 05 33 a3 01 00 	lea    0x1a333(%rip),%rax        # 25888 <g_2302>
    b555:	48 89 85 60 f4 ff ff 	mov    %rax,-0xba0(%rbp)
    b55c:	48 8d 05 25 a3 01 00 	lea    0x1a325(%rip),%rax        # 25888 <g_2302>
    b563:	48 89 85 68 f4 ff ff 	mov    %rax,-0xb98(%rbp)
    b56a:	48 8d 05 17 a3 01 00 	lea    0x1a317(%rip),%rax        # 25888 <g_2302>
    b571:	48 89 85 70 f4 ff ff 	mov    %rax,-0xb90(%rbp)
    b578:	48 8d 05 09 a3 01 00 	lea    0x1a309(%rip),%rax        # 25888 <g_2302>
    b57f:	48 89 85 78 f4 ff ff 	mov    %rax,-0xb88(%rbp)
    b586:	48 8d 05 fb a2 01 00 	lea    0x1a2fb(%rip),%rax        # 25888 <g_2302>
    b58d:	48 89 85 80 f4 ff ff 	mov    %rax,-0xb80(%rbp)
    b594:	48 8d 05 ed a2 01 00 	lea    0x1a2ed(%rip),%rax        # 25888 <g_2302>
    b59b:	48 89 85 88 f4 ff ff 	mov    %rax,-0xb78(%rbp)
    b5a2:	48 8d 05 df a2 01 00 	lea    0x1a2df(%rip),%rax        # 25888 <g_2302>
    b5a9:	48 89 85 90 f4 ff ff 	mov    %rax,-0xb70(%rbp)
    b5b0:	48 c7 85 b0 f3 ff ff 	movq   $0x0,-0xc50(%rbp)
    b5b7:	00 00 00 00 
    b5bb:	48 8d 05 a6 4c 01 00 	lea    0x14ca6(%rip),%rax        # 20268 <g_209>
    b5c2:	48 89 85 00 f9 ff ff 	mov    %rax,-0x700(%rbp)
    b5c9:	48 8d 05 98 4c 01 00 	lea    0x14c98(%rip),%rax        # 20268 <g_209>
    b5d0:	48 89 85 08 f9 ff ff 	mov    %rax,-0x6f8(%rbp)
    b5d7:	48 8d 85 d0 f3 ff ff 	lea    -0xc30(%rbp),%rax
    b5de:	48 83 c0 08          	add    $0x8,%rax
    b5e2:	48 89 85 10 f9 ff ff 	mov    %rax,-0x6f0(%rbp)
    b5e9:	48 8d 85 a0 f4 ff ff 	lea    -0xb60(%rbp),%rax
    b5f0:	48 83 c0 38          	add    $0x38,%rax
    b5f4:	48 89 85 18 f9 ff ff 	mov    %rax,-0x6e8(%rbp)
    b5fb:	48 c7 85 20 f9 ff ff 	movq   $0x0,-0x6e0(%rbp)
    b602:	00 00 00 00 
    b606:	48 8d 05 f3 68 01 00 	lea    0x168f3(%rip),%rax        # 21f00 <g_2747>
    b60d:	48 89 85 28 f9 ff ff 	mov    %rax,-0x6d8(%rbp)
    b614:	48 8d 85 d0 f3 ff ff 	lea    -0xc30(%rbp),%rax
    b61b:	48 83 c0 08          	add    $0x8,%rax
    b61f:	48 89 85 30 f9 ff ff 	mov    %rax,-0x6d0(%rbp)
    b626:	48 8d 05 4b a7 01 00 	lea    0x1a74b(%rip),%rax        # 25d78 <g_185>
    b62d:	48 89 85 38 f9 ff ff 	mov    %rax,-0x6c8(%rbp)
    b634:	48 8d 05 2d 4c 01 00 	lea    0x14c2d(%rip),%rax        # 20268 <g_209>
    b63b:	48 89 85 40 f9 ff ff 	mov    %rax,-0x6c0(%rbp)
    b642:	48 8d 05 1f 4c 01 00 	lea    0x14c1f(%rip),%rax        # 20268 <g_209>
    b649:	48 89 85 48 f9 ff ff 	mov    %rax,-0x6b8(%rbp)
    b650:	48 8d 85 30 f6 ff ff 	lea    -0x9d0(%rbp),%rax
    b657:	48 05 a4 01 00 00    	add    $0x1a4,%rax
    b65d:	48 89 85 50 f9 ff ff 	mov    %rax,-0x6b0(%rbp)
    b664:	48 8d 85 a4 f2 ff ff 	lea    -0xd5c(%rbp),%rax
    b66b:	48 89 85 58 f9 ff ff 	mov    %rax,-0x6a8(%rbp)
    b672:	48 c7 85 60 f9 ff ff 	movq   $0x0,-0x6a0(%rbp)
    b679:	00 00 00 00 
    b67d:	48 8d 85 a0 f4 ff ff 	lea    -0xb60(%rbp),%rax
    b684:	48 83 c0 38          	add    $0x38,%rax
    b688:	48 89 85 68 f9 ff ff 	mov    %rax,-0x698(%rbp)
    b68f:	48 8d 85 30 f6 ff ff 	lea    -0x9d0(%rbp),%rax
    b696:	48 05 a4 01 00 00    	add    $0x1a4,%rax
    b69c:	48 89 85 70 f9 ff ff 	mov    %rax,-0x690(%rbp)
    b6a3:	48 8d 85 30 f6 ff ff 	lea    -0x9d0(%rbp),%rax
    b6aa:	48 05 e0 01 00 00    	add    $0x1e0,%rax
    b6b0:	48 89 85 78 f9 ff ff 	mov    %rax,-0x688(%rbp)
    b6b7:	48 8d 85 30 f6 ff ff 	lea    -0x9d0(%rbp),%rax
    b6be:	48 05 a4 01 00 00    	add    $0x1a4,%rax
    b6c4:	48 89 85 80 f9 ff ff 	mov    %rax,-0x680(%rbp)
    b6cb:	48 8d 85 30 f6 ff ff 	lea    -0x9d0(%rbp),%rax
    b6d2:	48 05 e0 01 00 00    	add    $0x1e0,%rax
    b6d8:	48 89 85 88 f9 ff ff 	mov    %rax,-0x678(%rbp)
    b6df:	48 8d 85 a0 f4 ff ff 	lea    -0xb60(%rbp),%rax
    b6e6:	48 83 c0 04          	add    $0x4,%rax
    b6ea:	48 89 85 90 f9 ff ff 	mov    %rax,-0x670(%rbp)
    b6f1:	48 8d 85 a4 f2 ff ff 	lea    -0xd5c(%rbp),%rax
    b6f8:	48 89 85 98 f9 ff ff 	mov    %rax,-0x668(%rbp)
    b6ff:	48 c7 85 a0 f9 ff ff 	movq   $0x0,-0x660(%rbp)
    b706:	00 00 00 00 
    b70a:	48 8d 85 a0 f4 ff ff 	lea    -0xb60(%rbp),%rax
    b711:	48 83 c0 28          	add    $0x28,%rax
    b715:	48 89 85 a8 f9 ff ff 	mov    %rax,-0x658(%rbp)
    b71c:	48 8d 85 30 f6 ff ff 	lea    -0x9d0(%rbp),%rax
    b723:	48 05 a4 01 00 00    	add    $0x1a4,%rax
    b729:	48 89 85 b0 f9 ff ff 	mov    %rax,-0x650(%rbp)
    b730:	48 c7 85 b8 f9 ff ff 	movq   $0x0,-0x648(%rbp)
    b737:	00 00 00 00 
    b73b:	48 8d 05 be 67 01 00 	lea    0x167be(%rip),%rax        # 21f00 <g_2747>
    b742:	48 89 85 c0 f9 ff ff 	mov    %rax,-0x640(%rbp)
    b749:	48 c7 85 c8 f9 ff ff 	movq   $0x0,-0x638(%rbp)
    b750:	00 00 00 00 
    b754:	48 c7 85 d0 f9 ff ff 	movq   $0x0,-0x630(%rbp)
    b75b:	00 00 00 00 
    b75f:	48 8d 05 32 4c 01 00 	lea    0x14c32(%rip),%rax        # 20398 <g_432+0x8>
    b766:	48 89 85 d8 f9 ff ff 	mov    %rax,-0x628(%rbp)
    b76d:	48 8d 85 30 f6 ff ff 	lea    -0x9d0(%rbp),%rax
    b774:	48 05 70 02 00 00    	add    $0x270,%rax
    b77a:	48 89 85 e0 f9 ff ff 	mov    %rax,-0x620(%rbp)
    b781:	48 c7 85 e8 f9 ff ff 	movq   $0x0,-0x618(%rbp)
    b788:	00 00 00 00 
    b78c:	48 8d 85 a0 f4 ff ff 	lea    -0xb60(%rbp),%rax
    b793:	48 83 c0 38          	add    $0x38,%rax
    b797:	48 89 85 f0 f9 ff ff 	mov    %rax,-0x610(%rbp)
    b79e:	48 8d 85 a0 f2 ff ff 	lea    -0xd60(%rbp),%rax
    b7a5:	48 89 85 f8 f9 ff ff 	mov    %rax,-0x608(%rbp)
    b7ac:	48 c7 85 00 fa ff ff 	movq   $0x0,-0x600(%rbp)
    b7b3:	00 00 00 00 
    b7b7:	48 8d 05 ba a5 01 00 	lea    0x1a5ba(%rip),%rax        # 25d78 <g_185>
    b7be:	48 89 85 08 fa ff ff 	mov    %rax,-0x5f8(%rbp)
    b7c5:	48 8d 85 a0 f4 ff ff 	lea    -0xb60(%rbp),%rax
    b7cc:	48 83 c0 20          	add    $0x20,%rax
    b7d0:	48 89 85 10 fa ff ff 	mov    %rax,-0x5f0(%rbp)
    b7d7:	48 8d 85 d0 f3 ff ff 	lea    -0xc30(%rbp),%rax
    b7de:	48 83 c0 08          	add    $0x8,%rax
    b7e2:	48 89 85 18 fa ff ff 	mov    %rax,-0x5e8(%rbp)
    b7e9:	48 8d 85 a0 f4 ff ff 	lea    -0xb60(%rbp),%rax
    b7f0:	48 83 c0 04          	add    $0x4,%rax
    b7f4:	48 89 85 20 fa ff ff 	mov    %rax,-0x5e0(%rbp)
    b7fb:	48 8d 05 66 4a 01 00 	lea    0x14a66(%rip),%rax        # 20268 <g_209>
    b802:	48 89 85 28 fa ff ff 	mov    %rax,-0x5d8(%rbp)
    b809:	48 8d 85 30 f6 ff ff 	lea    -0x9d0(%rbp),%rax
    b810:	48 05 a8 00 00 00    	add    $0xa8,%rax
    b816:	48 89 85 30 fa ff ff 	mov    %rax,-0x5d0(%rbp)
    b81d:	48 8d 85 d0 f3 ff ff 	lea    -0xc30(%rbp),%rax
    b824:	48 83 c0 08          	add    $0x8,%rax
    b828:	48 89 85 38 fa ff ff 	mov    %rax,-0x5c8(%rbp)
    b82f:	48 8d 85 a4 f2 ff ff 	lea    -0xd5c(%rbp),%rax
    b836:	48 89 85 40 fa ff ff 	mov    %rax,-0x5c0(%rbp)
    b83d:	48 8d 05 bc 66 01 00 	lea    0x166bc(%rip),%rax        # 21f00 <g_2747>
    b844:	48 89 85 48 fa ff ff 	mov    %rax,-0x5b8(%rbp)
    b84b:	48 8d 85 a0 f4 ff ff 	lea    -0xb60(%rbp),%rax
    b852:	48 83 c0 38          	add    $0x38,%rax
    b856:	48 89 85 50 fa ff ff 	mov    %rax,-0x5b0(%rbp)
    b85d:	48 8d 85 30 f6 ff ff 	lea    -0x9d0(%rbp),%rax
    b864:	48 05 88 01 00 00    	add    $0x188,%rax
    b86a:	48 89 85 58 fa ff ff 	mov    %rax,-0x5a8(%rbp)
    b871:	48 8d 85 30 f6 ff ff 	lea    -0x9d0(%rbp),%rax
    b878:	48 05 a4 01 00 00    	add    $0x1a4,%rax
    b87e:	48 89 85 60 fa ff ff 	mov    %rax,-0x5a0(%rbp)
    b885:	48 8d 85 d0 f3 ff ff 	lea    -0xc30(%rbp),%rax
    b88c:	48 89 85 68 fa ff ff 	mov    %rax,-0x598(%rbp)
    b893:	48 c7 85 70 fa ff ff 	movq   $0x0,-0x590(%rbp)
    b89a:	00 00 00 00 
    b89e:	48 8d 85 a0 f4 ff ff 	lea    -0xb60(%rbp),%rax
    b8a5:	48 83 c0 28          	add    $0x28,%rax
    b8a9:	48 89 85 78 fa ff ff 	mov    %rax,-0x588(%rbp)
    b8b0:	48 8d 85 d0 f3 ff ff 	lea    -0xc30(%rbp),%rax
    b8b7:	48 89 85 80 fa ff ff 	mov    %rax,-0x580(%rbp)
    b8be:	48 8d 05 d3 4a 01 00 	lea    0x14ad3(%rip),%rax        # 20398 <g_432+0x8>
    b8c5:	48 89 85 88 fa ff ff 	mov    %rax,-0x578(%rbp)
    b8cc:	48 c7 85 90 fa ff ff 	movq   $0x0,-0x570(%rbp)
    b8d3:	00 00 00 00 
    b8d7:	48 8d 85 30 f6 ff ff 	lea    -0x9d0(%rbp),%rax
    b8de:	48 05 a4 01 00 00    	add    $0x1a4,%rax
    b8e4:	48 89 85 98 fa ff ff 	mov    %rax,-0x568(%rbp)
    b8eb:	48 8d 05 86 a4 01 00 	lea    0x1a486(%rip),%rax        # 25d78 <g_185>
    b8f2:	48 89 85 a0 fa ff ff 	mov    %rax,-0x560(%rbp)
    b8f9:	48 8d 05 a0 4a 01 00 	lea    0x14aa0(%rip),%rax        # 203a0 <g_432+0x10>
    b900:	48 89 85 a8 fa ff ff 	mov    %rax,-0x558(%rbp)
    b907:	48 8d 05 f2 65 01 00 	lea    0x165f2(%rip),%rax        # 21f00 <g_2747>
    b90e:	48 89 85 b0 fa ff ff 	mov    %rax,-0x550(%rbp)
    b915:	48 8d 05 5c a4 01 00 	lea    0x1a45c(%rip),%rax        # 25d78 <g_185>
    b91c:	48 89 85 b8 fa ff ff 	mov    %rax,-0x548(%rbp)
    b923:	48 8d 05 1e 47 01 00 	lea    0x1471e(%rip),%rax        # 20048 <g_105>
    b92a:	48 89 85 c0 fa ff ff 	mov    %rax,-0x540(%rbp)
    b931:	48 8d 85 a0 f4 ff ff 	lea    -0xb60(%rbp),%rax
    b938:	48 83 c0 38          	add    $0x38,%rax
    b93c:	48 89 85 c8 fa ff ff 	mov    %rax,-0x538(%rbp)
    b943:	48 c7 85 d0 fa ff ff 	movq   $0x0,-0x530(%rbp)
    b94a:	00 00 00 00 
    b94e:	48 c7 85 d8 fa ff ff 	movq   $0x0,-0x528(%rbp)
    b955:	00 00 00 00 
    b959:	48 8d 85 a0 f4 ff ff 	lea    -0xb60(%rbp),%rax
    b960:	48 83 c0 38          	add    $0x38,%rax
    b964:	48 89 85 e0 fa ff ff 	mov    %rax,-0x520(%rbp)
    b96b:	48 8d 05 8e 65 01 00 	lea    0x1658e(%rip),%rax        # 21f00 <g_2747>
    b972:	48 89 85 e8 fa ff ff 	mov    %rax,-0x518(%rbp)
    b979:	48 c7 85 f0 fa ff ff 	movq   $0x0,-0x510(%rbp)
    b980:	00 00 00 00 
    b984:	48 8d 85 a4 f2 ff ff 	lea    -0xd5c(%rbp),%rax
    b98b:	48 89 85 f8 fa ff ff 	mov    %rax,-0x508(%rbp)
    b992:	48 8d 05 f7 49 01 00 	lea    0x149f7(%rip),%rax        # 20390 <g_432>
    b999:	48 89 85 00 fb ff ff 	mov    %rax,-0x500(%rbp)
    b9a0:	48 c7 85 08 fb ff ff 	movq   $0x0,-0x4f8(%rbp)
    b9a7:	00 00 00 00 
    b9ab:	48 8d 05 4e 65 01 00 	lea    0x1654e(%rip),%rax        # 21f00 <g_2747>
    b9b2:	48 89 85 10 fb ff ff 	mov    %rax,-0x4f0(%rbp)
    b9b9:	48 8d 85 30 f6 ff ff 	lea    -0x9d0(%rbp),%rax
    b9c0:	48 05 70 02 00 00    	add    $0x270,%rax
    b9c6:	48 89 85 18 fb ff ff 	mov    %rax,-0x4e8(%rbp)
    b9cd:	48 8d 05 94 48 01 00 	lea    0x14894(%rip),%rax        # 20268 <g_209>
    b9d4:	48 89 85 20 fb ff ff 	mov    %rax,-0x4e0(%rbp)
    b9db:	48 c7 85 28 fb ff ff 	movq   $0x0,-0x4d8(%rbp)
    b9e2:	00 00 00 00 
    b9e6:	48 8d 05 8b a3 01 00 	lea    0x1a38b(%rip),%rax        # 25d78 <g_185>
    b9ed:	48 89 85 30 fb ff ff 	mov    %rax,-0x4d0(%rbp)
    b9f4:	48 8d 05 4d 46 01 00 	lea    0x1464d(%rip),%rax        # 20048 <g_105>
    b9fb:	48 89 85 38 fb ff ff 	mov    %rax,-0x4c8(%rbp)
    ba02:	48 8d 85 30 f6 ff ff 	lea    -0x9d0(%rbp),%rax
    ba09:	48 05 d8 00 00 00    	add    $0xd8,%rax
    ba0f:	48 89 85 40 fb ff ff 	mov    %rax,-0x4c0(%rbp)
    ba16:	48 8d 05 2b 46 01 00 	lea    0x1462b(%rip),%rax        # 20048 <g_105>
    ba1d:	48 89 85 48 fb ff ff 	mov    %rax,-0x4b8(%rbp)
    ba24:	48 8d 85 d0 f3 ff ff 	lea    -0xc30(%rbp),%rax
    ba2b:	48 83 c0 08          	add    $0x8,%rax
    ba2f:	48 89 85 50 fb ff ff 	mov    %rax,-0x4b0(%rbp)
    ba36:	48 c7 85 58 fb ff ff 	movq   $0x0,-0x4a8(%rbp)
    ba3d:	00 00 00 00 
    ba41:	48 c7 85 60 fb ff ff 	movq   $0x0,-0x4a0(%rbp)
    ba48:	00 00 00 00 
    ba4c:	48 8d 85 a0 f4 ff ff 	lea    -0xb60(%rbp),%rax
    ba53:	48 83 c0 04          	add    $0x4,%rax
    ba57:	48 89 85 68 fb ff ff 	mov    %rax,-0x498(%rbp)
    ba5e:	48 8d 85 d0 f3 ff ff 	lea    -0xc30(%rbp),%rax
    ba65:	48 89 85 70 fb ff ff 	mov    %rax,-0x490(%rbp)
    ba6c:	48 c7 85 78 fb ff ff 	movq   $0x0,-0x488(%rbp)
    ba73:	00 00 00 00 
    ba77:	48 8d 85 d0 f3 ff ff 	lea    -0xc30(%rbp),%rax
    ba7e:	48 83 c0 08          	add    $0x8,%rax
    ba82:	48 89 85 80 fb ff ff 	mov    %rax,-0x480(%rbp)
    ba89:	48 8d 05 d8 47 01 00 	lea    0x147d8(%rip),%rax        # 20268 <g_209>
    ba90:	48 89 85 88 fb ff ff 	mov    %rax,-0x478(%rbp)
    ba97:	48 8d 05 62 64 01 00 	lea    0x16462(%rip),%rax        # 21f00 <g_2747>
    ba9e:	48 89 85 90 fb ff ff 	mov    %rax,-0x470(%rbp)
    baa5:	48 8d 05 ec 48 01 00 	lea    0x148ec(%rip),%rax        # 20398 <g_432+0x8>
    baac:	48 89 85 98 fb ff ff 	mov    %rax,-0x468(%rbp)
    bab3:	48 8d 05 ae 47 01 00 	lea    0x147ae(%rip),%rax        # 20268 <g_209>
    baba:	48 89 85 a0 fb ff ff 	mov    %rax,-0x460(%rbp)
    bac1:	48 8d 05 a0 47 01 00 	lea    0x147a0(%rip),%rax        # 20268 <g_209>
    bac8:	48 89 85 a8 fb ff ff 	mov    %rax,-0x458(%rbp)
    bacf:	48 c7 85 b0 fb ff ff 	movq   $0x0,-0x450(%rbp)
    bad6:	00 00 00 00 
    bada:	48 c7 85 b8 fb ff ff 	movq   $0x0,-0x448(%rbp)
    bae1:	00 00 00 00 
    bae5:	48 8d 85 a0 f4 ff ff 	lea    -0xb60(%rbp),%rax
    baec:	48 83 c0 08          	add    $0x8,%rax
    baf0:	48 89 85 c0 fb ff ff 	mov    %rax,-0x440(%rbp)
    baf7:	48 8d 85 30 f6 ff ff 	lea    -0x9d0(%rbp),%rax
    bafe:	48 05 a4 01 00 00    	add    $0x1a4,%rax
    bb04:	48 89 85 c8 fb ff ff 	mov    %rax,-0x438(%rbp)
    bb0b:	48 c7 85 d0 fb ff ff 	movq   $0x0,-0x430(%rbp)
    bb12:	00 00 00 00 
    bb16:	48 8d 85 a0 f2 ff ff 	lea    -0xd60(%rbp),%rax
    bb1d:	48 89 85 d8 fb ff ff 	mov    %rax,-0x428(%rbp)
    bb24:	48 8d 85 30 f6 ff ff 	lea    -0x9d0(%rbp),%rax
    bb2b:	48 05 a4 01 00 00    	add    $0x1a4,%rax
    bb31:	48 89 85 e0 fb ff ff 	mov    %rax,-0x420(%rbp)
    bb38:	48 8d 85 30 f6 ff ff 	lea    -0x9d0(%rbp),%rax
    bb3f:	48 83 c0 20          	add    $0x20,%rax
    bb43:	48 89 85 e8 fb ff ff 	mov    %rax,-0x418(%rbp)
    bb4a:	48 8d 05 af 63 01 00 	lea    0x163af(%rip),%rax        # 21f00 <g_2747>
    bb51:	48 89 85 f0 fb ff ff 	mov    %rax,-0x410(%rbp)
    bb58:	48 8d 05 a1 63 01 00 	lea    0x163a1(%rip),%rax        # 21f00 <g_2747>
    bb5f:	48 89 85 f8 fb ff ff 	mov    %rax,-0x408(%rbp)
    bb66:	48 8d 85 a0 f4 ff ff 	lea    -0xb60(%rbp),%rax
    bb6d:	48 83 c0 18          	add    $0x18,%rax
    bb71:	48 89 85 00 fc ff ff 	mov    %rax,-0x400(%rbp)
    bb78:	48 8d 85 a0 f4 ff ff 	lea    -0xb60(%rbp),%rax
    bb7f:	48 83 c0 18          	add    $0x18,%rax
    bb83:	48 89 85 08 fc ff ff 	mov    %rax,-0x3f8(%rbp)
    bb8a:	48 8d 85 d0 f3 ff ff 	lea    -0xc30(%rbp),%rax
    bb91:	48 89 85 10 fc ff ff 	mov    %rax,-0x3f0(%rbp)
    bb98:	48 8d 85 a0 f4 ff ff 	lea    -0xb60(%rbp),%rax
    bb9f:	48 83 c0 38          	add    $0x38,%rax
    bba3:	48 89 85 18 fc ff ff 	mov    %rax,-0x3e8(%rbp)
    bbaa:	48 8d 85 a0 f4 ff ff 	lea    -0xb60(%rbp),%rax
    bbb1:	48 83 c0 38          	add    $0x38,%rax
    bbb5:	48 89 85 20 fc ff ff 	mov    %rax,-0x3e0(%rbp)
    bbbc:	48 c7 85 28 fc ff ff 	movq   $0x0,-0x3d8(%rbp)
    bbc3:	00 00 00 00 
    bbc7:	48 8d 05 9a 46 01 00 	lea    0x1469a(%rip),%rax        # 20268 <g_209>
    bbce:	48 89 85 30 fc ff ff 	mov    %rax,-0x3d0(%rbp)
    bbd5:	48 8d 05 24 63 01 00 	lea    0x16324(%rip),%rax        # 21f00 <g_2747>
    bbdc:	48 89 85 38 fc ff ff 	mov    %rax,-0x3c8(%rbp)
    bbe3:	48 c7 85 40 fc ff ff 	movq   $0x0,-0x3c0(%rbp)
    bbea:	00 00 00 00 
    bbee:	48 8d 85 a0 f4 ff ff 	lea    -0xb60(%rbp),%rax
    bbf5:	48 83 c0 38          	add    $0x38,%rax
    bbf9:	48 89 85 48 fc ff ff 	mov    %rax,-0x3b8(%rbp)
    bc00:	48 8d 85 30 f6 ff ff 	lea    -0x9d0(%rbp),%rax
    bc07:	48 05 88 01 00 00    	add    $0x188,%rax
    bc0d:	48 89 85 50 fc ff ff 	mov    %rax,-0x3b0(%rbp)
    bc14:	48 8d 05 4d 46 01 00 	lea    0x1464d(%rip),%rax        # 20268 <g_209>
    bc1b:	48 89 85 58 fc ff ff 	mov    %rax,-0x3a8(%rbp)
    bc22:	48 8d 85 30 f6 ff ff 	lea    -0x9d0(%rbp),%rax
    bc29:	48 05 a4 01 00 00    	add    $0x1a4,%rax
    bc2f:	48 89 85 60 fc ff ff 	mov    %rax,-0x3a0(%rbp)
    bc36:	48 8d 85 a0 f4 ff ff 	lea    -0xb60(%rbp),%rax
    bc3d:	48 83 c0 38          	add    $0x38,%rax
    bc41:	48 89 85 68 fc ff ff 	mov    %rax,-0x398(%rbp)
    bc48:	48 8d 05 51 47 01 00 	lea    0x14751(%rip),%rax        # 203a0 <g_432+0x10>
    bc4f:	48 89 85 70 fc ff ff 	mov    %rax,-0x390(%rbp)
    bc56:	48 8d 05 a3 62 01 00 	lea    0x162a3(%rip),%rax        # 21f00 <g_2747>
    bc5d:	48 89 85 78 fc ff ff 	mov    %rax,-0x388(%rbp)
    bc64:	48 8d 85 a0 f4 ff ff 	lea    -0xb60(%rbp),%rax
    bc6b:	48 83 c0 38          	add    $0x38,%rax
    bc6f:	48 89 85 80 fc ff ff 	mov    %rax,-0x380(%rbp)
    bc76:	48 c7 85 88 fc ff ff 	movq   $0x0,-0x378(%rbp)
    bc7d:	00 00 00 00 
    bc81:	48 8d 05 e0 45 01 00 	lea    0x145e0(%rip),%rax        # 20268 <g_209>
    bc88:	48 89 85 90 fc ff ff 	mov    %rax,-0x370(%rbp)
    bc8f:	48 8d 85 a0 f4 ff ff 	lea    -0xb60(%rbp),%rax
    bc96:	48 83 c0 38          	add    $0x38,%rax
    bc9a:	48 89 85 98 fc ff ff 	mov    %rax,-0x368(%rbp)
    bca1:	48 c7 85 a0 fc ff ff 	movq   $0x0,-0x360(%rbp)
    bca8:	00 00 00 00 
    bcac:	48 8d 85 a0 f4 ff ff 	lea    -0xb60(%rbp),%rax
    bcb3:	48 83 c0 18          	add    $0x18,%rax
    bcb7:	48 89 85 a8 fc ff ff 	mov    %rax,-0x358(%rbp)
    bcbe:	48 8d 85 a0 f4 ff ff 	lea    -0xb60(%rbp),%rax
    bcc5:	48 83 c0 38          	add    $0x38,%rax
    bcc9:	48 89 85 b0 fc ff ff 	mov    %rax,-0x350(%rbp)
    bcd0:	48 8d 05 29 62 01 00 	lea    0x16229(%rip),%rax        # 21f00 <g_2747>
    bcd7:	48 89 85 b8 fc ff ff 	mov    %rax,-0x348(%rbp)
    bcde:	48 8d 05 93 a0 01 00 	lea    0x1a093(%rip),%rax        # 25d78 <g_185>
    bce5:	48 89 85 c0 fc ff ff 	mov    %rax,-0x340(%rbp)
    bcec:	48 8d 85 30 f6 ff ff 	lea    -0x9d0(%rbp),%rax
    bcf3:	48 83 c0 20          	add    $0x20,%rax
    bcf7:	48 89 85 c8 fc ff ff 	mov    %rax,-0x338(%rbp)
    bcfe:	48 c7 85 d0 fc ff ff 	movq   $0x0,-0x330(%rbp)
    bd05:	00 00 00 00 
    bd09:	48 8d 85 a0 f2 ff ff 	lea    -0xd60(%rbp),%rax
    bd10:	48 89 85 d8 fc ff ff 	mov    %rax,-0x328(%rbp)
    bd17:	48 8d 85 a0 f4 ff ff 	lea    -0xb60(%rbp),%rax
    bd1e:	48 83 c0 38          	add    $0x38,%rax
    bd22:	48 89 85 e0 fc ff ff 	mov    %rax,-0x320(%rbp)
    bd29:	48 8d 85 30 f6 ff ff 	lea    -0x9d0(%rbp),%rax
    bd30:	48 05 a4 01 00 00    	add    $0x1a4,%rax
    bd36:	48 89 85 e8 fc ff ff 	mov    %rax,-0x318(%rbp)
    bd3d:	48 8d 85 d0 f3 ff ff 	lea    -0xc30(%rbp),%rax
    bd44:	48 89 85 f0 fc ff ff 	mov    %rax,-0x310(%rbp)
    bd4b:	48 c7 85 f8 fc ff ff 	movq   $0x0,-0x308(%rbp)
    bd52:	00 00 00 00 
    bd56:	48 c7 85 00 fd ff ff 	movq   $0x0,-0x300(%rbp)
    bd5d:	00 00 00 00 
    bd61:	48 8d 05 00 45 01 00 	lea    0x14500(%rip),%rax        # 20268 <g_209>
    bd68:	48 89 85 08 fd ff ff 	mov    %rax,-0x2f8(%rbp)
    bd6f:	48 8d 85 d0 f3 ff ff 	lea    -0xc30(%rbp),%rax
    bd76:	48 83 c0 08          	add    $0x8,%rax
    bd7a:	48 89 85 10 fd ff ff 	mov    %rax,-0x2f0(%rbp)
    bd81:	48 8d 05 10 46 01 00 	lea    0x14610(%rip),%rax        # 20398 <g_432+0x8>
    bd88:	48 89 85 18 fd ff ff 	mov    %rax,-0x2e8(%rbp)
    bd8f:	48 8d 05 6a 61 01 00 	lea    0x1616a(%rip),%rax        # 21f00 <g_2747>
    bd96:	48 89 85 20 fd ff ff 	mov    %rax,-0x2e0(%rbp)
    bd9d:	48 8d 05 c4 44 01 00 	lea    0x144c4(%rip),%rax        # 20268 <g_209>
    bda4:	48 89 85 28 fd ff ff 	mov    %rax,-0x2d8(%rbp)
    bdab:	48 8d 85 a0 f4 ff ff 	lea    -0xb60(%rbp),%rax
    bdb2:	48 83 c0 08          	add    $0x8,%rax
    bdb6:	48 89 85 30 fd ff ff 	mov    %rax,-0x2d0(%rbp)
    bdbd:	48 c7 85 38 fd ff ff 	movq   $0x0,-0x2c8(%rbp)
    bdc4:	00 00 00 00 
    bdc8:	48 8d 85 a0 f4 ff ff 	lea    -0xb60(%rbp),%rax
    bdcf:	48 83 c0 20          	add    $0x20,%rax
    bdd3:	48 89 85 40 fd ff ff 	mov    %rax,-0x2c0(%rbp)
    bdda:	48 8d 85 a0 f4 ff ff 	lea    -0xb60(%rbp),%rax
    bde1:	48 83 c0 04          	add    $0x4,%rax
    bde5:	48 89 85 48 fd ff ff 	mov    %rax,-0x2b8(%rbp)
    bdec:	48 8d 85 a4 f2 ff ff 	lea    -0xd5c(%rbp),%rax
    bdf3:	48 89 85 50 fd ff ff 	mov    %rax,-0x2b0(%rbp)
    bdfa:	48 c7 85 58 fd ff ff 	movq   $0x0,-0x2a8(%rbp)
    be01:	00 00 00 00 
    be05:	48 c7 85 60 fd ff ff 	movq   $0x0,-0x2a0(%rbp)
    be0c:	00 00 00 00 
    be10:	48 8d 05 31 42 01 00 	lea    0x14231(%rip),%rax        # 20048 <g_105>
    be17:	48 89 85 68 fd ff ff 	mov    %rax,-0x298(%rbp)
    be1e:	48 8d 05 2f 44 01 00 	lea    0x1442f(%rip),%rax        # 20254 <g_146>
    be25:	48 89 85 70 fd ff ff 	mov    %rax,-0x290(%rbp)
    be2c:	48 8d 05 15 42 01 00 	lea    0x14215(%rip),%rax        # 20048 <g_105>
    be33:	48 89 85 78 fd ff ff 	mov    %rax,-0x288(%rbp)
    be3a:	48 8d 85 a0 f4 ff ff 	lea    -0xb60(%rbp),%rax
    be41:	48 83 c0 38          	add    $0x38,%rax
    be45:	48 89 85 80 fd ff ff 	mov    %rax,-0x280(%rbp)
    be4c:	48 c7 85 88 fd ff ff 	movq   $0x0,-0x278(%rbp)
    be53:	00 00 00 00 
    be57:	48 8d 85 30 f6 ff ff 	lea    -0x9d0(%rbp),%rax
    be5e:	48 05 ec 00 00 00    	add    $0xec,%rax
    be64:	48 89 85 90 fd ff ff 	mov    %rax,-0x270(%rbp)
    be6b:	48 8d 85 30 f6 ff ff 	lea    -0x9d0(%rbp),%rax
    be72:	48 05 70 02 00 00    	add    $0x270,%rax
    be78:	48 89 85 98 fd ff ff 	mov    %rax,-0x268(%rbp)
    be7f:	48 8d 05 ce 43 01 00 	lea    0x143ce(%rip),%rax        # 20254 <g_146>
    be86:	48 89 85 a0 fd ff ff 	mov    %rax,-0x260(%rbp)
    be8d:	48 c7 85 a8 fd ff ff 	movq   $0x0,-0x258(%rbp)
    be94:	00 00 00 00 
    be98:	48 8d 85 30 f6 ff ff 	lea    -0x9d0(%rbp),%rax
    be9f:	48 05 a4 01 00 00    	add    $0x1a4,%rax
    bea5:	48 89 85 b0 fd ff ff 	mov    %rax,-0x250(%rbp)
    beac:	48 8d 85 a4 f2 ff ff 	lea    -0xd5c(%rbp),%rax
    beb3:	48 89 85 b8 fd ff ff 	mov    %rax,-0x248(%rbp)
    beba:	48 c7 85 c0 fd ff ff 	movq   $0x0,-0x240(%rbp)
    bec1:	00 00 00 00 
    bec5:	48 8d 05 34 60 01 00 	lea    0x16034(%rip),%rax        # 21f00 <g_2747>
    becc:	48 89 85 c8 fd ff ff 	mov    %rax,-0x238(%rbp)
    bed3:	48 8d 85 a0 f2 ff ff 	lea    -0xd60(%rbp),%rax
    beda:	48 89 85 d0 fd ff ff 	mov    %rax,-0x230(%rbp)
    bee1:	48 c7 85 d8 fd ff ff 	movq   $0x0,-0x228(%rbp)
    bee8:	00 00 00 00 
    beec:	48 c7 85 e0 fd ff ff 	movq   $0x0,-0x220(%rbp)
    bef3:	00 00 00 00 
    bef7:	48 8d 85 a0 f4 ff ff 	lea    -0xb60(%rbp),%rax
    befe:	48 83 c0 38          	add    $0x38,%rax
    bf02:	48 89 85 e8 fd ff ff 	mov    %rax,-0x218(%rbp)
    bf09:	48 c7 85 f0 fd ff ff 	movq   $0x0,-0x210(%rbp)
    bf10:	00 00 00 00 
    bf14:	48 8d 05 5d 9e 01 00 	lea    0x19e5d(%rip),%rax        # 25d78 <g_185>
    bf1b:	48 89 85 f8 fd ff ff 	mov    %rax,-0x208(%rbp)
    bf22:	48 8d 05 3f 43 01 00 	lea    0x1433f(%rip),%rax        # 20268 <g_209>
    bf29:	48 89 85 00 fe ff ff 	mov    %rax,-0x200(%rbp)
    bf30:	48 8d 05 69 44 01 00 	lea    0x14469(%rip),%rax        # 203a0 <g_432+0x10>
    bf37:	48 89 85 08 fe ff ff 	mov    %rax,-0x1f8(%rbp)
    bf3e:	48 8d 85 d0 f3 ff ff 	lea    -0xc30(%rbp),%rax
    bf45:	48 89 85 10 fe ff ff 	mov    %rax,-0x1f0(%rbp)
    bf4c:	48 8d 85 30 f6 ff ff 	lea    -0x9d0(%rbp),%rax
    bf53:	48 05 a4 01 00 00    	add    $0x1a4,%rax
    bf59:	48 89 85 18 fe ff ff 	mov    %rax,-0x1e8(%rbp)
    bf60:	48 8d 85 30 f6 ff ff 	lea    -0x9d0(%rbp),%rax
    bf67:	48 05 a4 01 00 00    	add    $0x1a4,%rax
    bf6d:	48 89 85 20 fe ff ff 	mov    %rax,-0x1e0(%rbp)
    bf74:	48 8d 05 1d 44 01 00 	lea    0x1441d(%rip),%rax        # 20398 <g_432+0x8>
    bf7b:	48 89 85 28 fe ff ff 	mov    %rax,-0x1d8(%rbp)
    bf82:	48 c7 85 30 fe ff ff 	movq   $0x0,-0x1d0(%rbp)
    bf89:	00 00 00 00 
    bf8d:	48 8d 85 a0 f4 ff ff 	lea    -0xb60(%rbp),%rax
    bf94:	48 83 c0 28          	add    $0x28,%rax
    bf98:	48 89 85 38 fe ff ff 	mov    %rax,-0x1c8(%rbp)
    bf9f:	48 c7 85 40 fe ff ff 	movq   $0x0,-0x1c0(%rbp)
    bfa6:	00 00 00 00 
    bfaa:	48 8d 85 d0 f3 ff ff 	lea    -0xc30(%rbp),%rax
    bfb1:	48 89 85 48 fe ff ff 	mov    %rax,-0x1b8(%rbp)
    bfb8:	48 8d 85 d0 f3 ff ff 	lea    -0xc30(%rbp),%rax
    bfbf:	48 89 85 50 fe ff ff 	mov    %rax,-0x1b0(%rbp)
    bfc6:	48 8d 85 30 f6 ff ff 	lea    -0x9d0(%rbp),%rax
    bfcd:	48 05 88 01 00 00    	add    $0x188,%rax
    bfd3:	48 89 85 58 fe ff ff 	mov    %rax,-0x1a8(%rbp)
    bfda:	48 8d 85 a0 f4 ff ff 	lea    -0xb60(%rbp),%rax
    bfe1:	48 89 85 60 fe ff ff 	mov    %rax,-0x1a0(%rbp)
    bfe8:	48 8d 05 11 5f 01 00 	lea    0x15f11(%rip),%rax        # 21f00 <g_2747>
    bfef:	48 89 85 68 fe ff ff 	mov    %rax,-0x198(%rbp)
    bff6:	48 8d 85 30 f6 ff ff 	lea    -0x9d0(%rbp),%rax
    bffd:	48 05 a4 01 00 00    	add    $0x1a4,%rax
    c003:	48 89 85 70 fe ff ff 	mov    %rax,-0x190(%rbp)
    c00a:	48 8d 85 d0 f3 ff ff 	lea    -0xc30(%rbp),%rax
    c011:	48 83 c0 08          	add    $0x8,%rax
    c015:	48 89 85 78 fe ff ff 	mov    %rax,-0x188(%rbp)
    c01c:	48 c7 85 80 fe ff ff 	movq   $0x0,-0x180(%rbp)
    c023:	00 00 00 00 
    c027:	48 8d 05 3a 42 01 00 	lea    0x1423a(%rip),%rax        # 20268 <g_209>
    c02e:	48 89 85 88 fe ff ff 	mov    %rax,-0x178(%rbp)
    c035:	48 8d 05 3c 9d 01 00 	lea    0x19d3c(%rip),%rax        # 25d78 <g_185>
    c03c:	48 89 85 90 fe ff ff 	mov    %rax,-0x170(%rbp)
    c043:	48 8d 85 d0 f3 ff ff 	lea    -0xc30(%rbp),%rax
    c04a:	48 83 c0 08          	add    $0x8,%rax
    c04e:	48 89 85 98 fe ff ff 	mov    %rax,-0x168(%rbp)
    c055:	48 c7 85 a0 fe ff ff 	movq   $0x0,-0x160(%rbp)
    c05c:	00 00 00 00 
    c060:	48 8d 05 11 9d 01 00 	lea    0x19d11(%rip),%rax        # 25d78 <g_185>
    c067:	48 89 85 a8 fe ff ff 	mov    %rax,-0x158(%rbp)
    c06e:	48 c7 85 b0 fe ff ff 	movq   $0x0,-0x150(%rbp)
    c075:	00 00 00 00 
    c079:	48 8d 05 80 5e 01 00 	lea    0x15e80(%rip),%rax        # 21f00 <g_2747>
    c080:	48 89 85 b8 fe ff ff 	mov    %rax,-0x148(%rbp)
    c087:	48 8d 85 d0 f3 ff ff 	lea    -0xc30(%rbp),%rax
    c08e:	48 83 c0 08          	add    $0x8,%rax
    c092:	48 89 85 c0 fe ff ff 	mov    %rax,-0x140(%rbp)
    c099:	48 8d 05 c8 41 01 00 	lea    0x141c8(%rip),%rax        # 20268 <g_209>
    c0a0:	48 89 85 c8 fe ff ff 	mov    %rax,-0x138(%rbp)
    c0a7:	48 8d 85 a0 f4 ff ff 	lea    -0xb60(%rbp),%rax
    c0ae:	48 89 85 d0 fe ff ff 	mov    %rax,-0x130(%rbp)
    c0b5:	48 8d 85 a0 f4 ff ff 	lea    -0xb60(%rbp),%rax
    c0bc:	48 83 c0 38          	add    $0x38,%rax
    c0c0:	48 89 85 d8 fe ff ff 	mov    %rax,-0x128(%rbp)
    c0c7:	48 8d 05 32 5e 01 00 	lea    0x15e32(%rip),%rax        # 21f00 <g_2747>
    c0ce:	48 89 85 e0 fe ff ff 	mov    %rax,-0x120(%rbp)
    c0d5:	48 8d 85 30 f6 ff ff 	lea    -0x9d0(%rbp),%rax
    c0dc:	48 05 54 01 00 00    	add    $0x154,%rax
    c0e2:	48 89 85 e8 fe ff ff 	mov    %rax,-0x118(%rbp)
    c0e9:	48 c7 85 f0 fe ff ff 	movq   $0x0,-0x110(%rbp)
    c0f0:	00 00 00 00 
    c0f4:	48 8d 85 a0 f4 ff ff 	lea    -0xb60(%rbp),%rax
    c0fb:	48 83 c0 18          	add    $0x18,%rax
    c0ff:	48 89 85 f8 fe ff ff 	mov    %rax,-0x108(%rbp)
    c106:	48 8d 05 93 42 01 00 	lea    0x14293(%rip),%rax        # 203a0 <g_432+0x10>
    c10d:	48 89 85 00 ff ff ff 	mov    %rax,-0x100(%rbp)
    c114:	48 8d 85 30 f6 ff ff 	lea    -0x9d0(%rbp),%rax
    c11b:	48 05 a4 01 00 00    	add    $0x1a4,%rax
    c121:	48 89 85 08 ff ff ff 	mov    %rax,-0xf8(%rbp)
    c128:	48 c7 85 10 ff ff ff 	movq   $0x0,-0xf0(%rbp)
    c12f:	00 00 00 00 
    c133:	48 c7 85 18 ff ff ff 	movq   $0x0,-0xe8(%rbp)
    c13a:	00 00 00 00 
    c13e:	48 8d 05 23 41 01 00 	lea    0x14123(%rip),%rax        # 20268 <g_209>
    c145:	48 89 85 20 ff ff ff 	mov    %rax,-0xe0(%rbp)
    c14c:	48 8d 05 45 42 01 00 	lea    0x14245(%rip),%rax        # 20398 <g_432+0x8>
    c153:	48 89 85 28 ff ff ff 	mov    %rax,-0xd8(%rbp)
    c15a:	48 8d 05 9f 5d 01 00 	lea    0x15d9f(%rip),%rax        # 21f00 <g_2747>
    c161:	48 89 85 30 ff ff ff 	mov    %rax,-0xd0(%rbp)
    c168:	48 8d 05 29 42 01 00 	lea    0x14229(%rip),%rax        # 20398 <g_432+0x8>
    c16f:	48 89 85 38 ff ff ff 	mov    %rax,-0xc8(%rbp)
    c176:	48 c7 85 40 ff ff ff 	movq   $0x0,-0xc0(%rbp)
    c17d:	00 00 00 00 
    c181:	48 8d 85 a0 f4 ff ff 	lea    -0xb60(%rbp),%rax
    c188:	48 83 c0 38          	add    $0x38,%rax
    c18c:	48 89 85 48 ff ff ff 	mov    %rax,-0xb8(%rbp)
    c193:	48 c7 85 50 ff ff ff 	movq   $0x0,-0xb0(%rbp)
    c19a:	00 00 00 00 
    c19e:	48 8d 05 fb 41 01 00 	lea    0x141fb(%rip),%rax        # 203a0 <g_432+0x10>
    c1a5:	48 89 85 58 ff ff ff 	mov    %rax,-0xa8(%rbp)
    c1ac:	48 8d 85 30 f6 ff ff 	lea    -0x9d0(%rbp),%rax
    c1b3:	48 05 a4 01 00 00    	add    $0x1a4,%rax
    c1b9:	48 89 85 60 ff ff ff 	mov    %rax,-0xa0(%rbp)
    c1c0:	48 8d 85 a0 f4 ff ff 	lea    -0xb60(%rbp),%rax
    c1c7:	48 83 c0 38          	add    $0x38,%rax
    c1cb:	48 89 85 68 ff ff ff 	mov    %rax,-0x98(%rbp)
    c1d2:	48 8d 85 a4 f2 ff ff 	lea    -0xd5c(%rbp),%rax
    c1d9:	48 89 85 70 ff ff ff 	mov    %rax,-0x90(%rbp)
    c1e0:	48 8d 85 a4 f2 ff ff 	lea    -0xd5c(%rbp),%rax
    c1e7:	48 89 85 78 ff ff ff 	mov    %rax,-0x88(%rbp)
    c1ee:	48 c7 45 80 00 00 00 	movq   $0x0,-0x80(%rbp)
    c1f5:	00 
    c1f6:	48 8d 85 d0 f3 ff ff 	lea    -0xc30(%rbp),%rax
    c1fd:	48 89 45 88          	mov    %rax,-0x78(%rbp)
    c201:	48 8d 05 40 3e 01 00 	lea    0x13e40(%rip),%rax        # 20048 <g_105>
    c208:	48 89 45 90          	mov    %rax,-0x70(%rbp)
    c20c:	48 c7 45 98 00 00 00 	movq   $0x0,-0x68(%rbp)
    c213:	00 
    c214:	48 c7 45 a0 00 00 00 	movq   $0x0,-0x60(%rbp)
    c21b:	00 
    c21c:	48 8d 85 a0 f4 ff ff 	lea    -0xb60(%rbp),%rax
    c223:	48 83 c0 38          	add    $0x38,%rax
    c227:	48 89 45 a8          	mov    %rax,-0x58(%rbp)
    c22b:	48 8d 85 a4 f2 ff ff 	lea    -0xd5c(%rbp),%rax
    c232:	48 89 45 b0          	mov    %rax,-0x50(%rbp)
    c236:	48 c7 45 b8 00 00 00 	movq   $0x0,-0x48(%rbp)
    c23d:	00 
    c23e:	48 8d 05 3b 41 01 00 	lea    0x1413b(%rip),%rax        # 20380 <g_389>
    c245:	48 89 05 54 83 01 00 	mov    %rax,0x18354(%rip)        # 245a0 <g_458>
    c24c:	be 07 00 00 00       	mov    $0x7,%esi
    c251:	bf 01 00 00 00       	mov    $0x1,%edi
    c256:	e8 1f dc ff ff       	callq  9e7a <safe_rshift_func_uint16_t_u_u>
    c25b:	0f b7 d8             	movzwl %ax,%ebx
    c25e:	be 02 00 00 00       	mov    $0x2,%esi
    c263:	bf 1c 08 02 f3       	mov    $0xf302081c,%edi
    c268:	e8 92 d4 ff ff       	callq  96ff <safe_div_func_int32_t_s_s>
    c26d:	39 c3                	cmp    %eax,%ebx
    c26f:	0f 9e c2             	setle  %dl
    c272:	48 8b 85 28 f3 ff ff 	mov    -0xcd8(%rbp),%rax
    c279:	48 8b 00             	mov    (%rax),%rax
    c27c:	88 10                	mov    %dl,(%rax)
    c27e:	0f b6 00             	movzbl (%rax),%eax
    c281:	0f b6 d0             	movzbl %al,%edx
    c284:	8b 85 a4 f2 ff ff    	mov    -0xd5c(%rbp),%eax
    c28a:	85 c0                	test   %eax,%eax
    c28c:	75 0a                	jne    c298 <func_1+0x1ae3>
    c28e:	48 83 bd 68 f3 ff ff 	cmpq   $0x0,-0xc98(%rbp)
    c295:	00 
    c296:	74 07                	je     c29f <func_1+0x1aea>
    c298:	b8 01 00 00 00       	mov    $0x1,%eax
    c29d:	eb 05                	jmp    c2a4 <func_1+0x1aef>
    c29f:	b8 00 00 00 00       	mov    $0x0,%eax
    c2a4:	83 f8 03             	cmp    $0x3,%eax
    c2a7:	0f 9e c0             	setle  %al
    c2aa:	0f b6 c0             	movzbl %al,%eax
    c2ad:	89 d6                	mov    %edx,%esi
    c2af:	89 c7                	mov    %eax,%edi
    c2b1:	e8 c2 d8 ff ff       	callq  9b78 <safe_sub_func_uint8_t_u_u>
    c2b6:	0f b6 d8             	movzbl %al,%ebx
    c2b9:	48 8b 05 30 96 01 00 	mov    0x19630(%rip),%rax        # 258f0 <g_2564>
    c2c0:	8b 00                	mov    (%rax),%eax
    c2c2:	89 c1                	mov    %eax,%ecx
    c2c4:	48 8b 85 98 f3 ff ff 	mov    -0xc68(%rbp),%rax
    c2cb:	8b 00                	mov    (%rax),%eax
    c2cd:	8d 50 01             	lea    0x1(%rax),%edx
    c2d0:	48 8b 85 98 f3 ff ff 	mov    -0xc68(%rbp),%rax
    c2d7:	89 10                	mov    %edx,(%rax)
    c2d9:	89 ce                	mov    %ecx,%esi
    c2db:	bf 01 00 00 00       	mov    $0x1,%edi
    c2e0:	e8 eb db ff ff       	callq  9ed0 <safe_sub_func_uint32_t_u_u>
    c2e5:	89 c0                	mov    %eax,%eax
    c2e7:	48 39 85 68 f3 ff ff 	cmp    %rax,-0xc98(%rbp)
    c2ee:	0f 96 c0             	setbe  %al
    c2f1:	0f b6 c0             	movzbl %al,%eax
    c2f4:	39 c3                	cmp    %eax,%ebx
    c2f6:	74 19                	je     c311 <func_1+0x1b5c>
    c2f8:	48 8b 05 21 83 01 00 	mov    0x18321(%rip),%rax        # 24620 <g_756>
    c2ff:	48 8b 00             	mov    (%rax),%rax
    c302:	48 8b 00             	mov    (%rax),%rax
    c305:	48 85 c0             	test   %rax,%rax
    c308:	74 07                	je     c311 <func_1+0x1b5c>
    c30a:	b8 01 00 00 00       	mov    $0x1,%eax
    c30f:	eb 05                	jmp    c316 <func_1+0x1b61>
    c311:	b8 00 00 00 00       	mov    $0x0,%eax
    c316:	48 98                	cltq   
    c318:	48 0b 85 40 f3 ff ff 	or     -0xcc0(%rbp),%rax
    c31f:	48 89 c2             	mov    %rax,%rdx
    c322:	48 8b 85 30 f3 ff ff 	mov    -0xcd0(%rbp),%rax
    c329:	8b 00                	mov    (%rax),%eax
    c32b:	21 c2                	and    %eax,%edx
    c32d:	48 8b 85 30 f3 ff ff 	mov    -0xcd0(%rbp),%rax
    c334:	89 10                	mov    %edx,(%rax)
    c336:	48 8b 05 83 80 01 00 	mov    0x18083(%rip),%rax        # 243c0 <g_293>
    c33d:	0f b7 00             	movzwl (%rax),%eax
    c340:	0f b7 c0             	movzwl %ax,%eax
    c343:	89 c6                	mov    %eax,%esi
    c345:	bf 01 00 00 00       	mov    $0x1,%edi
    c34a:	e8 ee d9 ff ff       	callq  9d3d <safe_mul_func_uint16_t_u_u>
    c34f:	83 bd d0 f2 ff ff 00 	cmpl   $0x0,-0xd30(%rbp)
    c356:	74 07                	je     c35f <func_1+0x1baa>
    c358:	b8 01 00 00 00       	mov    $0x1,%eax
    c35d:	eb 05                	jmp    c364 <func_1+0x1baf>
    c35f:	b8 00 00 00 00       	mov    $0x0,%eax
    c364:	0b 85 d0 f2 ff ff    	or     -0xd30(%rbp),%eax
    c36a:	48 63 d0             	movslq %eax,%rdx
    c36d:	48 8b 85 68 f3 ff ff 	mov    -0xc98(%rbp),%rax
    c374:	48 89 d6             	mov    %rdx,%rsi
    c377:	48 89 c7             	mov    %rax,%rdi
    c37a:	e8 c2 d4 ff ff       	callq  9841 <safe_add_func_int64_t_s_s>
    c37f:	48 8b 05 0a 95 01 00 	mov    0x1950a(%rip),%rax        # 25890 <g_2301>
    c386:	48 8b 85 70 f4 ff ff 	mov    -0xb90(%rbp),%rax
    c38d:	48 39 85 48 f3 ff ff 	cmp    %rax,-0xcb8(%rbp)
    c394:	0f 95 c0             	setne  %al
    c397:	0f b6 d0             	movzbl %al,%edx
    c39a:	48 8b 85 30 f3 ff ff 	mov    -0xcd0(%rbp),%rax
    c3a1:	89 10                	mov    %edx,(%rax)
    c3a3:	83 85 b4 f2 ff ff 01 	addl   $0x1,-0xd4c(%rbp)
    c3aa:	48 83 bd 68 f3 ff ff 	cmpq   $0x0,-0xc98(%rbp)
    c3b1:	00 
    c3b2:	74 4f                	je     c403 <func_1+0x1c4e>
    c3b4:	48 8b 05 d5 5b 01 00 	mov    0x15bd5(%rip),%rax        # 21f90 <g_2982>
    c3bb:	48 8b 05 56 94 01 00 	mov    0x19456(%rip),%rax        # 25818 <g_1832>
    c3c2:	48 8b 18             	mov    (%rax),%rbx
    c3c5:	8b 85 d0 f3 ff ff    	mov    -0xc30(%rbp),%eax
    c3cb:	89 c6                	mov    %eax,%esi
    c3cd:	bf 03 00 00 00       	mov    $0x3,%edi
    c3d2:	e8 df d1 ff ff       	callq  95b6 <safe_add_func_int32_t_s_s>
    c3d7:	48 89 de             	mov    %rbx,%rsi
    c3da:	bf 00 00 00 00       	mov    $0x0,%edi
    c3df:	e8 13 d6 ff ff       	callq  99f7 <safe_div_func_int64_t_s_s>
    c3e4:	48 89 c2             	mov    %rax,%rdx
    c3e7:	48 8b 05 b2 81 01 00 	mov    0x181b2(%rip),%rax        # 245a0 <g_458>
    c3ee:	89 10                	mov    %edx,(%rax)
    c3f0:	8b 00                	mov    (%rax),%eax
    c3f2:	8b 95 10 f3 ff ff    	mov    -0xcf0(%rbp),%edx
    c3f8:	39 d0                	cmp    %edx,%eax
    c3fa:	72 07                	jb     c403 <func_1+0x1c4e>
    c3fc:	ba 01 00 00 00       	mov    $0x1,%edx
    c401:	eb 05                	jmp    c408 <func_1+0x1c53>
    c403:	ba 00 00 00 00       	mov    $0x0,%edx
    c408:	8b 85 a4 f2 ff ff    	mov    -0xd5c(%rbp),%eax
    c40e:	09 d0                	or     %edx,%eax
    c410:	89 85 a4 f2 ff ff    	mov    %eax,-0xd5c(%rbp)
    c416:	8b 05 5c 4c 01 00    	mov    0x14c5c(%rip),%eax        # 21078 <g_2045>
    c41c:	0f b7 c0             	movzwl %ax,%eax
    c41f:	be 03 00 00 00       	mov    $0x3,%esi
    c424:	89 c7                	mov    %eax,%edi
    c426:	e8 d4 d8 ff ff       	callq  9cff <safe_add_func_uint16_t_u_u>
    c42b:	0f b7 c0             	movzwl %ax,%eax
    c42e:	89 05 44 4c 01 00    	mov    %eax,0x14c44(%rip)        # 21078 <g_2045>
    c434:	8b 05 3e 4c 01 00    	mov    0x14c3e(%rip),%eax        # 21078 <g_2045>
    c43a:	83 f8 08             	cmp    $0x8,%eax
    c43d:	0f 86 3c f0 ff ff    	jbe    b47f <func_1+0xcca>
    c443:	66 c7 05 5e 3f 01 00 	movw   $0x0,0x13f5e(%rip)        # 203aa <g_599>
    c44a:	00 00 
    c44c:	e9 7d 03 00 00       	jmpq   c7ce <func_1+0x2019>
    c451:	48 8d 05 a8 5a 01 00 	lea    0x15aa8(%rip),%rax        # 21f00 <g_2747>
    c458:	48 89 85 80 f3 ff ff 	mov    %rax,-0xc80(%rbp)
    c45f:	48 8d 05 ee 3d 01 00 	lea    0x13dee(%rip),%rax        # 20254 <g_146>
    c466:	48 89 85 00 f9 ff ff 	mov    %rax,-0x700(%rbp)
    c46d:	48 8d 05 04 99 01 00 	lea    0x19904(%rip),%rax        # 25d78 <g_185>
    c474:	48 89 85 08 f9 ff ff 	mov    %rax,-0x6f8(%rbp)
    c47b:	48 8d 05 d2 3d 01 00 	lea    0x13dd2(%rip),%rax        # 20254 <g_146>
    c482:	48 89 85 10 f9 ff ff 	mov    %rax,-0x6f0(%rbp)
    c489:	48 8d 05 d8 3d 01 00 	lea    0x13dd8(%rip),%rax        # 20268 <g_209>
    c490:	48 89 85 18 f9 ff ff 	mov    %rax,-0x6e8(%rbp)
    c497:	48 8d 85 a0 f4 ff ff 	lea    -0xb60(%rbp),%rax
    c49e:	48 83 c0 38          	add    $0x38,%rax
    c4a2:	48 89 85 20 f9 ff ff 	mov    %rax,-0x6e0(%rbp)
    c4a9:	48 c7 85 28 f9 ff ff 	movq   $0x0,-0x6d8(%rbp)
    c4b0:	00 00 00 00 
    c4b4:	48 8d 05 ad 3d 01 00 	lea    0x13dad(%rip),%rax        # 20268 <g_209>
    c4bb:	48 89 85 30 f9 ff ff 	mov    %rax,-0x6d0(%rbp)
    c4c2:	48 8d 05 9f 3d 01 00 	lea    0x13d9f(%rip),%rax        # 20268 <g_209>
    c4c9:	48 89 85 38 f9 ff ff 	mov    %rax,-0x6c8(%rbp)
    c4d0:	48 8d 05 a1 98 01 00 	lea    0x198a1(%rip),%rax        # 25d78 <g_185>
    c4d7:	48 89 85 40 f9 ff ff 	mov    %rax,-0x6c0(%rbp)
    c4de:	48 8d 85 a0 f4 ff ff 	lea    -0xb60(%rbp),%rax
    c4e5:	48 83 c0 38          	add    $0x38,%rax
    c4e9:	48 89 85 48 f9 ff ff 	mov    %rax,-0x6b8(%rbp)
    c4f0:	48 8d 85 a0 f4 ff ff 	lea    -0xb60(%rbp),%rax
    c4f7:	48 83 c0 38          	add    $0x38,%rax
    c4fb:	48 89 85 50 f9 ff ff 	mov    %rax,-0x6b0(%rbp)
    c502:	48 8d 85 a0 f4 ff ff 	lea    -0xb60(%rbp),%rax
    c509:	48 83 c0 38          	add    $0x38,%rax
    c50d:	48 89 85 58 f9 ff ff 	mov    %rax,-0x6a8(%rbp)
    c514:	48 8d 85 a0 f4 ff ff 	lea    -0xb60(%rbp),%rax
    c51b:	48 83 c0 38          	add    $0x38,%rax
    c51f:	48 89 85 60 f9 ff ff 	mov    %rax,-0x6a0(%rbp)
    c526:	48 8d 85 a0 f4 ff ff 	lea    -0xb60(%rbp),%rax
    c52d:	48 83 c0 38          	add    $0x38,%rax
    c531:	48 89 85 68 f9 ff ff 	mov    %rax,-0x698(%rbp)
    c538:	48 8d 85 a0 f4 ff ff 	lea    -0xb60(%rbp),%rax
    c53f:	48 83 c0 38          	add    $0x38,%rax
    c543:	48 89 85 70 f9 ff ff 	mov    %rax,-0x690(%rbp)
    c54a:	48 8d 85 a0 f4 ff ff 	lea    -0xb60(%rbp),%rax
    c551:	48 83 c0 38          	add    $0x38,%rax
    c555:	48 89 85 78 f9 ff ff 	mov    %rax,-0x688(%rbp)
    c55c:	48 8d 05 15 98 01 00 	lea    0x19815(%rip),%rax        # 25d78 <g_185>
    c563:	48 89 85 80 f9 ff ff 	mov    %rax,-0x680(%rbp)
    c56a:	48 8d 05 0b 98 01 00 	lea    0x1980b(%rip),%rax        # 25d7c <g_185+0x4>
    c571:	48 89 85 88 f9 ff ff 	mov    %rax,-0x678(%rbp)
    c578:	48 8d 05 d5 3c 01 00 	lea    0x13cd5(%rip),%rax        # 20254 <g_146>
    c57f:	48 89 85 90 f9 ff ff 	mov    %rax,-0x670(%rbp)
    c586:	48 8d 85 30 f6 ff ff 	lea    -0x9d0(%rbp),%rax
    c58d:	48 05 a4 01 00 00    	add    $0x1a4,%rax
    c593:	48 89 85 98 f9 ff ff 	mov    %rax,-0x668(%rbp)
    c59a:	48 c7 85 a0 f9 ff ff 	movq   $0x0,-0x660(%rbp)
    c5a1:	00 00 00 00 
    c5a5:	48 8d 05 d0 97 01 00 	lea    0x197d0(%rip),%rax        # 25d7c <g_185+0x4>
    c5ac:	48 89 85 a8 f9 ff ff 	mov    %rax,-0x658(%rbp)
    c5b3:	48 c7 85 b0 f9 ff ff 	movq   $0x0,-0x650(%rbp)
    c5ba:	00 00 00 00 
    c5be:	48 8d 05 3b 59 01 00 	lea    0x1593b(%rip),%rax        # 21f00 <g_2747>
    c5c5:	48 89 85 b8 f9 ff ff 	mov    %rax,-0x648(%rbp)
    c5cc:	48 c7 85 c0 f9 ff ff 	movq   $0x0,-0x640(%rbp)
    c5d3:	00 00 00 00 
    c5d7:	48 8d 05 9a 97 01 00 	lea    0x1979a(%rip),%rax        # 25d78 <g_185>
    c5de:	48 89 85 c8 f9 ff ff 	mov    %rax,-0x638(%rbp)
    c5e5:	48 8d 05 7c 3c 01 00 	lea    0x13c7c(%rip),%rax        # 20268 <g_209>
    c5ec:	48 89 85 d0 f9 ff ff 	mov    %rax,-0x630(%rbp)
    c5f3:	48 8d 05 7e 97 01 00 	lea    0x1977e(%rip),%rax        # 25d78 <g_185>
    c5fa:	48 89 85 d8 f9 ff ff 	mov    %rax,-0x628(%rbp)
    c601:	48 c7 85 e0 f9 ff ff 	movq   $0x0,-0x620(%rbp)
    c608:	00 00 00 00 
    c60c:	48 8d 05 55 3c 01 00 	lea    0x13c55(%rip),%rax        # 20268 <g_209>
    c613:	48 89 85 e8 f9 ff ff 	mov    %rax,-0x618(%rbp)
    c61a:	48 8d 05 df 58 01 00 	lea    0x158df(%rip),%rax        # 21f00 <g_2747>
    c621:	48 89 85 f0 f9 ff ff 	mov    %rax,-0x610(%rbp)
    c628:	48 8d 85 30 f6 ff ff 	lea    -0x9d0(%rbp),%rax
    c62f:	48 05 a4 01 00 00    	add    $0x1a4,%rax
    c635:	48 89 85 f8 f9 ff ff 	mov    %rax,-0x608(%rbp)
    c63c:	48 8d 05 55 3d 01 00 	lea    0x13d55(%rip),%rax        # 20398 <g_432+0x8>
    c643:	48 89 85 00 fa ff ff 	mov    %rax,-0x600(%rbp)
    c64a:	48 8d 05 17 3c 01 00 	lea    0x13c17(%rip),%rax        # 20268 <g_209>
    c651:	48 89 85 08 fa ff ff 	mov    %rax,-0x5f8(%rbp)
    c658:	48 8d 05 19 97 01 00 	lea    0x19719(%rip),%rax        # 25d78 <g_185>
    c65f:	48 89 85 10 fa ff ff 	mov    %rax,-0x5f0(%rbp)
    c666:	48 c7 85 18 fa ff ff 	movq   $0x0,-0x5e8(%rbp)
    c66d:	00 00 00 00 
    c671:	48 c7 85 20 fa ff ff 	movq   $0x0,-0x5e0(%rbp)
    c678:	00 00 00 00 
    c67c:	48 8d 85 a0 f4 ff ff 	lea    -0xb60(%rbp),%rax
    c683:	48 83 c0 38          	add    $0x38,%rax
    c687:	48 89 85 28 fa ff ff 	mov    %rax,-0x5d8(%rbp)
    c68e:	48 8d 85 30 f6 ff ff 	lea    -0x9d0(%rbp),%rax
    c695:	48 05 a4 01 00 00    	add    $0x1a4,%rax
    c69b:	48 89 85 30 fa ff ff 	mov    %rax,-0x5d0(%rbp)
    c6a2:	48 8d 85 30 f6 ff ff 	lea    -0x9d0(%rbp),%rax
    c6a9:	48 05 a4 01 00 00    	add    $0x1a4,%rax
    c6af:	48 89 85 38 fa ff ff 	mov    %rax,-0x5c8(%rbp)
    c6b6:	48 8d 85 a0 f4 ff ff 	lea    -0xb60(%rbp),%rax
    c6bd:	48 83 c0 38          	add    $0x38,%rax
    c6c1:	48 89 85 40 fa ff ff 	mov    %rax,-0x5c0(%rbp)
    c6c8:	48 c7 85 48 fa ff ff 	movq   $0x0,-0x5b8(%rbp)
    c6cf:	00 00 00 00 
    c6d3:	48 8d 05 8e 3b 01 00 	lea    0x13b8e(%rip),%rax        # 20268 <g_209>
    c6da:	48 89 85 50 fa ff ff 	mov    %rax,-0x5b0(%rbp)
    c6e1:	48 8d 05 94 96 01 00 	lea    0x19694(%rip),%rax        # 25d7c <g_185+0x4>
    c6e8:	48 89 85 58 fa ff ff 	mov    %rax,-0x5a8(%rbp)
    c6ef:	48 8d 05 a2 3c 01 00 	lea    0x13ca2(%rip),%rax        # 20398 <g_432+0x8>
    c6f6:	48 89 85 60 fa ff ff 	mov    %rax,-0x5a0(%rbp)
    c6fd:	48 c7 85 68 fa ff ff 	movq   $0x0,-0x598(%rbp)
    c704:	00 00 00 00 
    c708:	48 c7 85 70 fa ff ff 	movq   $0x0,-0x590(%rbp)
    c70f:	00 00 00 00 
    c713:	48 8d 05 4e 3b 01 00 	lea    0x13b4e(%rip),%rax        # 20268 <g_209>
    c71a:	48 89 85 78 fa ff ff 	mov    %rax,-0x588(%rbp)
    c721:	48 8d 85 a0 f4 ff ff 	lea    -0xb60(%rbp),%rax
    c728:	48 83 c0 38          	add    $0x38,%rax
    c72c:	48 89 85 80 fa ff ff 	mov    %rax,-0x580(%rbp)
    c733:	48 8d 05 c6 57 01 00 	lea    0x157c6(%rip),%rax        # 21f00 <g_2747>
    c73a:	48 89 85 88 fa ff ff 	mov    %rax,-0x578(%rbp)
    c741:	48 8d 05 20 3b 01 00 	lea    0x13b20(%rip),%rax        # 20268 <g_209>
    c748:	48 89 85 90 fa ff ff 	mov    %rax,-0x570(%rbp)
    c74f:	48 c7 85 98 fa ff ff 	movq   $0x0,-0x568(%rbp)
    c756:	00 00 00 00 
    c75a:	48 8d 05 07 3b 01 00 	lea    0x13b07(%rip),%rax        # 20268 <g_209>
    c761:	48 89 85 a0 fa ff ff 	mov    %rax,-0x560(%rbp)
    c768:	48 8d 05 91 57 01 00 	lea    0x15791(%rip),%rax        # 21f00 <g_2747>
    c76f:	48 89 85 a8 fa ff ff 	mov    %rax,-0x558(%rbp)
    c776:	48 8d 85 00 f9 ff ff 	lea    -0x700(%rbp),%rax
    c77d:	48 05 88 00 00 00    	add    $0x88,%rax
    c783:	48 89 85 88 f3 ff ff 	mov    %rax,-0xc78(%rbp)
    c78a:	0f b7 85 98 f2 ff ff 	movzwl -0xd68(%rbp),%eax
    c791:	83 c0 01             	add    $0x1,%eax
    c794:	66 89 85 98 f2 ff ff 	mov    %ax,-0xd68(%rbp)
    c79b:	48 8b 85 88 f3 ff ff 	mov    -0xc78(%rbp),%rax
    c7a2:	48 8d 95 a4 f2 ff ff 	lea    -0xd5c(%rbp),%rdx
    c7a9:	48 89 10             	mov    %rdx,(%rax)
    c7ac:	48 8b 85 88 f3 ff ff 	mov    -0xc78(%rbp),%rax
    c7b3:	48 8d 95 10 f3 ff ff 	lea    -0xcf0(%rbp),%rdx
    c7ba:	48 89 10             	mov    %rdx,(%rax)
    c7bd:	0f b7 05 e6 3b 01 00 	movzwl 0x13be6(%rip),%eax        # 203aa <g_599>
    c7c4:	83 c0 01             	add    $0x1,%eax
    c7c7:	66 89 05 dc 3b 01 00 	mov    %ax,0x13bdc(%rip)        # 203aa <g_599>
    c7ce:	0f b7 05 d5 3b 01 00 	movzwl 0x13bd5(%rip),%eax        # 203aa <g_599>
    c7d5:	66 83 f8 06          	cmp    $0x6,%ax
    c7d9:	0f 86 72 fc ff ff    	jbe    c451 <func_1+0x1c9c>
    c7df:	0f bf 95 9e f2 ff ff 	movswl -0xd62(%rbp),%edx
    c7e6:	48 8b 85 30 f3 ff ff 	mov    -0xcd0(%rbp),%rax
    c7ed:	89 10                	mov    %edx,(%rax)
    c7ef:	48 8b 85 30 f3 ff ff 	mov    -0xcd0(%rbp),%rax
    c7f6:	8b 00                	mov    (%rax),%eax
    c7f8:	85 c0                	test   %eax,%eax
    c7fa:	0f b7 05 3f 38 01 00 	movzwl 0x1383f(%rip),%eax        # 20040 <g_67>
    c801:	83 c0 01             	add    $0x1,%eax
    c804:	66 89 05 35 38 01 00 	mov    %ax,0x13835(%rip)        # 20040 <g_67>
    c80b:	0f b7 05 2e 38 01 00 	movzwl 0x1382e(%rip),%eax        # 20040 <g_67>
    c812:	66 83 f8 19          	cmp    $0x19,%ax
    c816:	0f 85 dd eb ff ff    	jne    b3f9 <func_1+0xc44>
    c81c:	48 8b 85 30 f3 ff ff 	mov    -0xcd0(%rbp),%rax
    c823:	8b 00                	mov    (%rax),%eax
    c825:	48 8b 5d c8          	mov    -0x38(%rbp),%rbx
    c829:	64 48 33 1c 25 28 00 	xor    %fs:0x28,%rbx
    c830:	00 00 
    c832:	74 05                	je     c839 <func_1+0x2084>
    c834:	e8 37 c8 ff ff       	callq  9070 <__stack_chk_fail@plt>
    c839:	48 81 c4 58 0d 00 00 	add    $0xd58,%rsp
    c840:	5b                   	pop    %rbx
    c841:	41 5c                	pop    %r12
    c843:	41 5d                	pop    %r13
    c845:	41 5e                	pop    %r14
    c847:	41 5f                	pop    %r15
    c849:	5d                   	pop    %rbp
    c84a:	c3                   	retq   

000000000000c84b <func_2>:
    c84b:	f3 0f 1e fa          	endbr64 
    c84f:	55                   	push   %rbp
    c850:	48 89 e5             	mov    %rsp,%rbp
    c853:	41 57                	push   %r15
    c855:	41 56                	push   %r14
    c857:	41 55                	push   %r13
    c859:	41 54                	push   %r12
    c85b:	53                   	push   %rbx
    c85c:	48 81 ec d8 08 00 00 	sub    $0x8d8,%rsp
    c863:	48 89 bd 08 f7 ff ff 	mov    %rdi,-0x8f8(%rbp)
    c86a:	64 48 8b 04 25 28 00 	mov    %fs:0x28,%rax
    c871:	00 00 
    c873:	48 89 45 c8          	mov    %rax,-0x38(%rbp)
    c877:	31 c0                	xor    %eax,%eax
    c879:	66 c7 85 20 f7 ff ff 	movw   $0x1,-0x8e0(%rbp)
    c880:	01 00 
    c882:	c7 85 40 f7 ff ff f6 	movl   $0xfffffff6,-0x8c0(%rbp)
    c889:	ff ff ff 
    c88c:	c7 85 28 f7 ff ff 2c 	movl   $0xf57f952c,-0x8d8(%rbp)
    c893:	95 7f f5 
    c896:	c7 85 2c f7 ff ff fc 	movl   $0xfffffffc,-0x8d4(%rbp)
    c89d:	ff ff ff 
    c8a0:	48 b8 89 47 30 a4 1a 	movabs $0xbde9dc1aa4304789,%rax
    c8a7:	dc e9 bd 
    c8aa:	48 89 85 00 fa ff ff 	mov    %rax,-0x600(%rbp)
    c8b1:	48 89 85 08 fa ff ff 	mov    %rax,-0x5f8(%rbp)
    c8b8:	48 89 85 10 fa ff ff 	mov    %rax,-0x5f0(%rbp)
    c8bf:	48 89 85 18 fa ff ff 	mov    %rax,-0x5e8(%rbp)
    c8c6:	48 89 85 20 fa ff ff 	mov    %rax,-0x5e0(%rbp)
    c8cd:	48 89 85 28 fa ff ff 	mov    %rax,-0x5d8(%rbp)
    c8d4:	48 89 85 30 fa ff ff 	mov    %rax,-0x5d0(%rbp)
    c8db:	48 89 85 38 fa ff ff 	mov    %rax,-0x5c8(%rbp)
    c8e2:	48 89 85 40 fa ff ff 	mov    %rax,-0x5c0(%rbp)
    c8e9:	c7 85 40 fb ff ff 01 	movl   $0x1,-0x4c0(%rbp)
    c8f0:	00 00 00 
    c8f3:	c7 85 44 fb ff ff d6 	movl   $0x3f4236d6,-0x4bc(%rbp)
    c8fa:	36 42 3f 
    c8fd:	c7 85 48 fb ff ff 01 	movl   $0x1,-0x4b8(%rbp)
    c904:	00 00 00 
    c907:	c7 85 4c fb ff ff 01 	movl   $0x1,-0x4b4(%rbp)
    c90e:	00 00 00 
    c911:	c7 85 50 fb ff ff 90 	movl   $0x3479ac90,-0x4b0(%rbp)
    c918:	ac 79 34 
    c91b:	c7 85 54 fb ff ff d6 	movl   $0x3f4236d6,-0x4ac(%rbp)
    c922:	36 42 3f 
    c925:	c7 85 58 fb ff ff 90 	movl   $0x3479ac90,-0x4a8(%rbp)
    c92c:	ac 79 34 
    c92f:	c7 85 5c fb ff ff 01 	movl   $0x1,-0x4a4(%rbp)
    c936:	00 00 00 
    c939:	c7 85 60 fb ff ff 01 	movl   $0x1,-0x4a0(%rbp)
    c940:	00 00 00 
    c943:	c7 85 64 fb ff ff d6 	movl   $0x3f4236d6,-0x49c(%rbp)
    c94a:	36 42 3f 
    c94d:	c7 85 68 fb ff ff 01 	movl   $0x1,-0x498(%rbp)
    c954:	00 00 00 
    c957:	c7 85 6c fb ff ff ff 	movl   $0xffffffff,-0x494(%rbp)
    c95e:	ff ff ff 
    c961:	c7 85 70 fb ff ff 29 	movl   $0xfad6b529,-0x490(%rbp)
    c968:	b5 d6 fa 
    c96b:	c7 85 74 fb ff ff 90 	movl   $0x3479ac90,-0x48c(%rbp)
    c972:	ac 79 34 
    c975:	c7 85 78 fb ff ff 08 	movl   $0x8,-0x488(%rbp)
    c97c:	00 00 00 
    c97f:	c7 85 7c fb ff ff d6 	movl   $0x3f4236d6,-0x484(%rbp)
    c986:	36 42 3f 
    c989:	c7 85 80 fb ff ff d6 	movl   $0x3f4236d6,-0x480(%rbp)
    c990:	36 42 3f 
    c993:	c7 85 84 fb ff ff 08 	movl   $0x8,-0x47c(%rbp)
    c99a:	00 00 00 
    c99d:	c7 85 88 fb ff ff 90 	movl   $0x3479ac90,-0x478(%rbp)
    c9a4:	ac 79 34 
    c9a7:	c7 85 8c fb ff ff 29 	movl   $0xfad6b529,-0x474(%rbp)
    c9ae:	b5 d6 fa 
    c9b1:	c7 85 90 fb ff ff ff 	movl   $0xffffffff,-0x470(%rbp)
    c9b8:	ff ff ff 
    c9bb:	48 c7 85 d8 f7 ff ff 	movq   $0xffffffffffffffff,-0x828(%rbp)
    c9c2:	ff ff ff ff 
    c9c6:	48 8d 05 d3 7b 01 00 	lea    0x17bd3(%rip),%rax        # 245a0 <g_458>
    c9cd:	48 89 85 18 f8 ff ff 	mov    %rax,-0x7e8(%rbp)
    c9d4:	48 8d 05 35 46 01 00 	lea    0x14635(%rip),%rax        # 21010 <g_1968>
    c9db:	48 89 85 20 f8 ff ff 	mov    %rax,-0x7e0(%rbp)
    c9e2:	48 c7 85 e0 f7 ff ff 	movq   $0x0,-0x820(%rbp)
    c9e9:	00 00 00 00 
    c9ed:	48 8d 85 e0 f7 ff ff 	lea    -0x820(%rbp),%rax
    c9f4:	48 89 85 28 f8 ff ff 	mov    %rax,-0x7d8(%rbp)
    c9fb:	c7 85 44 f7 ff ff ff 	movl   $0xffffffff,-0x8bc(%rbp)
    ca02:	ff ff ff 
    ca05:	66 c7 85 22 f7 ff ff 	movw   $0x0,-0x8de(%rbp)
    ca0c:	00 00 
    ca0e:	48 8d 05 bb 38 01 00 	lea    0x138bb(%rip),%rax        # 202d0 <g_326>
    ca15:	48 89 85 30 f8 ff ff 	mov    %rax,-0x7d0(%rbp)
    ca1c:	c7 85 6c f7 ff ff 04 	movl   $0x4,-0x894(%rbp)
    ca23:	00 00 00 
    ca26:	c7 85 70 fd ff ff 01 	movl   $0x1,-0x290(%rbp)
    ca2d:	00 00 00 
    ca30:	c7 85 74 fd ff ff fc 	movl   $0xfffffffc,-0x28c(%rbp)
    ca37:	ff ff ff 
    ca3a:	c7 85 78 fd ff ff 01 	movl   $0x1,-0x288(%rbp)
    ca41:	00 00 00 
    ca44:	c7 85 7c fd ff ff 05 	movl   $0x5,-0x284(%rbp)
    ca4b:	00 00 00 
    ca4e:	c7 85 80 fd ff ff 80 	movl   $0xce95b680,-0x280(%rbp)
    ca55:	b6 95 ce 
    ca58:	c7 85 84 fd ff ff 80 	movl   $0xce95b680,-0x27c(%rbp)
    ca5f:	b6 95 ce 
    ca62:	c7 85 88 fd ff ff 05 	movl   $0x5,-0x278(%rbp)
    ca69:	00 00 00 
    ca6c:	c7 85 8c fd ff ff 01 	movl   $0x1,-0x274(%rbp)
    ca73:	00 00 00 
    ca76:	c7 85 90 fd ff ff fc 	movl   $0xfffffffc,-0x270(%rbp)
    ca7d:	ff ff ff 
    ca80:	c7 85 94 fd ff ff fc 	movl   $0xfffffffc,-0x26c(%rbp)
    ca87:	ff ff ff 
    ca8a:	c7 85 98 fd ff ff 80 	movl   $0xce95b680,-0x268(%rbp)
    ca91:	b6 95 ce 
    ca94:	c7 85 9c fd ff ff 00 	movl   $0x0,-0x264(%rbp)
    ca9b:	00 00 00 
    ca9e:	c7 85 a0 fd ff ff f7 	movl   $0xfffffff7,-0x260(%rbp)
    caa5:	ff ff ff 
    caa8:	c7 85 a4 fd ff ff 00 	movl   $0x0,-0x25c(%rbp)
    caaf:	00 00 00 
    cab2:	c7 85 a8 fd ff ff 80 	movl   $0xce95b680,-0x258(%rbp)
    cab9:	b6 95 ce 
    cabc:	c7 85 ac fd ff ff fc 	movl   $0xfffffffc,-0x254(%rbp)
    cac3:	ff ff ff 
    cac6:	c7 85 b0 fd ff ff fc 	movl   $0xfffffffc,-0x250(%rbp)
    cacd:	ff ff ff 
    cad0:	c7 85 b4 fd ff ff 01 	movl   $0x1,-0x24c(%rbp)
    cad7:	00 00 00 
    cada:	c7 85 b8 fd ff ff 05 	movl   $0x5,-0x248(%rbp)
    cae1:	00 00 00 
    cae4:	c7 85 bc fd ff ff 80 	movl   $0xce95b680,-0x244(%rbp)
    caeb:	b6 95 ce 
    caee:	c7 85 c0 fd ff ff 80 	movl   $0xce95b680,-0x240(%rbp)
    caf5:	b6 95 ce 
    caf8:	c7 85 c4 fd ff ff 05 	movl   $0x5,-0x23c(%rbp)
    caff:	00 00 00 
    cb02:	c7 85 c8 fd ff ff 01 	movl   $0x1,-0x238(%rbp)
    cb09:	00 00 00 
    cb0c:	c7 85 cc fd ff ff fc 	movl   $0xfffffffc,-0x234(%rbp)
    cb13:	ff ff ff 
    cb16:	c7 85 d0 fd ff ff 01 	movl   $0x1,-0x230(%rbp)
    cb1d:	00 00 00 
    cb20:	c7 85 d4 fd ff ff d5 	movl   $0xfcc970d5,-0x22c(%rbp)
    cb27:	70 c9 fc 
    cb2a:	c7 85 d8 fd ff ff fc 	movl   $0xfffffffc,-0x228(%rbp)
    cb31:	ff ff ff 
    cb34:	c7 85 dc fd ff ff 00 	movl   $0x0,-0x224(%rbp)
    cb3b:	00 00 00 
    cb3e:	c7 85 e0 fd ff ff fc 	movl   $0xfffffffc,-0x220(%rbp)
    cb45:	ff ff ff 
    cb48:	c7 85 e4 fd ff ff d5 	movl   $0xfcc970d5,-0x21c(%rbp)
    cb4f:	70 c9 fc 
    cb52:	c7 85 e8 fd ff ff 01 	movl   $0x1,-0x218(%rbp)
    cb59:	00 00 00 
    cb5c:	c7 85 ec fd ff ff 01 	movl   $0x1,-0x214(%rbp)
    cb63:	00 00 00 
    cb66:	c7 85 f0 fd ff ff d5 	movl   $0xfcc970d5,-0x210(%rbp)
    cb6d:	70 c9 fc 
    cb70:	c7 85 f4 fd ff ff 00 	movl   $0x0,-0x20c(%rbp)
    cb77:	00 00 00 
    cb7a:	c7 85 f8 fd ff ff 05 	movl   $0x5,-0x208(%rbp)
    cb81:	00 00 00 
    cb84:	c7 85 fc fd ff ff 05 	movl   $0x5,-0x204(%rbp)
    cb8b:	00 00 00 
    cb8e:	c7 85 00 fe ff ff 00 	movl   $0x0,-0x200(%rbp)
    cb95:	00 00 00 
    cb98:	c7 85 04 fe ff ff d5 	movl   $0xfcc970d5,-0x1fc(%rbp)
    cb9f:	70 c9 fc 
    cba2:	c7 85 08 fe ff ff 80 	movl   $0xce95b680,-0x1f8(%rbp)
    cba9:	b6 95 ce 
    cbac:	c7 85 0c fe ff ff d5 	movl   $0xfcc970d5,-0x1f4(%rbp)
    cbb3:	70 c9 fc 
    cbb6:	c7 85 10 fe ff ff 00 	movl   $0x0,-0x1f0(%rbp)
    cbbd:	00 00 00 
    cbc0:	c7 85 14 fe ff ff d5 	movl   $0xfcc970d5,-0x1ec(%rbp)
    cbc7:	70 c9 fc 
    cbca:	c7 85 18 fe ff ff 80 	movl   $0xce95b680,-0x1e8(%rbp)
    cbd1:	b6 95 ce 
    cbd4:	c7 85 1c fe ff ff d5 	movl   $0xfcc970d5,-0x1e4(%rbp)
    cbdb:	70 c9 fc 
    cbde:	c7 85 20 fe ff ff 00 	movl   $0x0,-0x1e0(%rbp)
    cbe5:	00 00 00 
    cbe8:	c7 85 24 fe ff ff 05 	movl   $0x5,-0x1dc(%rbp)
    cbef:	00 00 00 
    cbf2:	c7 85 28 fe ff ff 05 	movl   $0x5,-0x1d8(%rbp)
    cbf9:	00 00 00 
    cbfc:	c7 85 2c fe ff ff 00 	movl   $0x0,-0x1d4(%rbp)
    cc03:	00 00 00 
    cc06:	c7 85 30 fe ff ff d5 	movl   $0xfcc970d5,-0x1d0(%rbp)
    cc0d:	70 c9 fc 
    cc10:	c7 85 34 fe ff ff 01 	movl   $0x1,-0x1cc(%rbp)
    cc17:	00 00 00 
    cc1a:	c7 85 38 fe ff ff 01 	movl   $0x1,-0x1c8(%rbp)
    cc21:	00 00 00 
    cc24:	c7 85 3c fe ff ff d5 	movl   $0xfcc970d5,-0x1c4(%rbp)
    cc2b:	70 c9 fc 
    cc2e:	c7 85 40 fe ff ff fc 	movl   $0xfffffffc,-0x1c0(%rbp)
    cc35:	ff ff ff 
    cc38:	c7 85 44 fe ff ff 00 	movl   $0x0,-0x1bc(%rbp)
    cc3f:	00 00 00 
    cc42:	c7 85 48 fe ff ff fc 	movl   $0xfffffffc,-0x1b8(%rbp)
    cc49:	ff ff ff 
    cc4c:	c7 85 4c fe ff ff d5 	movl   $0xfcc970d5,-0x1b4(%rbp)
    cc53:	70 c9 fc 
    cc56:	48 8d 05 3f 37 01 00 	lea    0x1373f(%rip),%rax        # 2039c <g_432+0xc>
    cc5d:	48 89 85 38 f8 ff ff 	mov    %rax,-0x7c8(%rbp)
    cc64:	c7 85 70 f7 ff ff ff 	movl   $0xffffffff,-0x890(%rbp)
    cc6b:	ff ff ff 
    cc6e:	48 8d 05 5b 36 01 00 	lea    0x1365b(%rip),%rax        # 202d0 <g_326>
    cc75:	48 89 85 80 f9 ff ff 	mov    %rax,-0x680(%rbp)
    cc7c:	48 8d 05 4d 36 01 00 	lea    0x1364d(%rip),%rax        # 202d0 <g_326>
    cc83:	48 89 85 88 f9 ff ff 	mov    %rax,-0x678(%rbp)
    cc8a:	48 8d 05 3f 36 01 00 	lea    0x1363f(%rip),%rax        # 202d0 <g_326>
    cc91:	48 89 85 90 f9 ff ff 	mov    %rax,-0x670(%rbp)
    cc98:	48 8d 05 31 36 01 00 	lea    0x13631(%rip),%rax        # 202d0 <g_326>
    cc9f:	48 89 85 98 f9 ff ff 	mov    %rax,-0x668(%rbp)
    cca6:	c7 85 74 f7 ff ff f7 	movl   $0xfffffff7,-0x88c(%rbp)
    ccad:	ff ff ff 
    ccb0:	48 b8 ff 01 fe 01 2f 	movabs $0x12f9d2f01fe01ff,%rax
    ccb7:	9d 2f 01 
    ccba:	48 89 85 b0 fc ff ff 	mov    %rax,-0x350(%rbp)
    ccc1:	66 c7 85 b8 fc ff ff 	movw   $0x1fe,-0x348(%rbp)
    ccc8:	fe 01 
    ccca:	48 b8 ff 36 81 41 05 	movabs $0x3001f805418136ff,%rax
    ccd1:	f8 01 30 
    ccd4:	48 89 85 ba fc ff ff 	mov    %rax,-0x346(%rbp)
    ccdb:	66 c7 85 c2 fc ff ff 	movw   $0xfd01,-0x33e(%rbp)
    cce2:	01 fd 
    cce4:	48 b8 7d 9d c5 01 01 	movabs $0x1f80101c59d7d,%rax
    cceb:	f8 01 00 
    ccee:	48 89 85 c4 fc ff ff 	mov    %rax,-0x33c(%rbp)
    ccf5:	66 c7 85 cc fc ff ff 	movw   $0x6bbd,-0x334(%rbp)
    ccfc:	bd 6b 
    ccfe:	48 b8 ff 01 2f 00 07 	movabs $0xf8ff9d07002f01ff,%rax
    cd05:	9d ff f8 
    cd08:	48 89 85 ce fc ff ff 	mov    %rax,-0x332(%rbp)
    cd0f:	66 c7 85 d6 fc ff ff 	movw   $0xc5d5,-0x32a(%rbp)
    cd16:	d5 c5 
    cd18:	48 b8 ff 82 41 2f fd 	movabs $0xfdf7f7fd2f4182ff,%rax
    cd1f:	f7 f7 fd 
    cd22:	48 89 85 d8 fc ff ff 	mov    %rax,-0x328(%rbp)
    cd29:	66 c7 85 e0 fc ff ff 	movw   $0x412f,-0x320(%rbp)
    cd30:	2f 41 
    cd32:	48 b8 fa fa ff 07 81 	movabs $0x10abd8107fffafa,%rax
    cd39:	bd 0a 01 
    cd3c:	48 89 85 e2 fc ff ff 	mov    %rax,-0x31e(%rbp)
    cd43:	66 c7 85 ea fc ff ff 	movw   $0x101,-0x316(%rbp)
    cd4a:	01 01 
    cd4c:	48 b8 07 5b 01 41 f8 	movabs $0x2f0a9df841015b07,%rax
    cd53:	9d 0a 2f 
    cd56:	48 89 85 ec fc ff ff 	mov    %rax,-0x314(%rbp)
    cd5d:	66 c7 85 f4 fc ff ff 	movw   $0xbdff,-0x30c(%rbp)
    cd64:	ff bd 
    cd66:	48 b8 01 ff 07 f7 01 	movabs $0xfafd0101f707ff01,%rax
    cd6d:	01 fd fa 
    cd70:	48 89 85 f6 fc ff ff 	mov    %rax,-0x30a(%rbp)
    cd77:	66 c7 85 fe fc ff ff 	movw   $0xd55b,-0x302(%rbp)
    cd7e:	5b d5 
    cd80:	48 b8 01 d5 01 2f 6b 	movabs $0x137016b2f01d501,%rax
    cd87:	01 37 01 
    cd8a:	48 89 85 00 fd ff ff 	mov    %rax,-0x300(%rbp)
    cd91:	66 c7 85 08 fd ff ff 	movw   $0x2f6b,-0x2f8(%rbp)
    cd98:	6b 2f 
    cd9a:	48 b8 5b 01 5b ff 7d 	movabs $0x1016b7dff5b015b,%rax
    cda1:	6b 01 01 
    cda4:	48 89 85 0a fd ff ff 	mov    %rax,-0x2f6(%rbp)
    cdab:	66 c7 85 12 fd ff ff 	movw   $0x1fa,-0x2ee(%rbp)
    cdb2:	fa 01 
    cdb4:	48 b8 01 81 c5 00 9d 	movabs $0x1f7d59d00c58101,%rax
    cdbb:	d5 f7 01 
    cdbe:	48 89 85 14 fd ff ff 	mov    %rax,-0x2ec(%rbp)
    cdc5:	66 c7 85 1c fd ff ff 	movw   $0xf8ff,-0x2e4(%rbp)
    cdcc:	ff f8 
    cdce:	48 b8 f8 2f 5b 01 fa 	movabs $0x10182fa015b2ff8,%rax
    cdd5:	82 01 01 
    cdd8:	48 89 85 1e fd ff ff 	mov    %rax,-0x2e2(%rbp)
    cddf:	66 c7 85 26 fd ff ff 	movw   $0xa00,-0x2da(%rbp)
    cde6:	00 0a 
    cde8:	48 b8 7d 00 01 9d 07 	movabs $0xfafaff079d01007d,%rax
    cdef:	ff fa fa 
    cdf2:	48 89 85 28 fd ff ff 	mov    %rax,-0x2d8(%rbp)
    cdf9:	66 c7 85 30 fd ff ff 	movw   $0x7ff,-0x2d0(%rbp)
    ce00:	ff 07 
    ce02:	48 b8 05 07 07 05 00 	movabs $0x2f01080005070705,%rax
    ce09:	08 01 2f 
    ce0c:	48 89 85 32 fd ff ff 	mov    %rax,-0x2ce(%rbp)
    ce13:	66 c7 85 3a fd ff ff 	movw   $0x9c5,-0x2c6(%rbp)
    ce1a:	c5 09 
    ce1c:	48 b8 01 08 01 01 01 	movabs $0x107070101010801,%rax
    ce23:	07 07 01 
    ce26:	48 89 85 3c fd ff ff 	mov    %rax,-0x2c4(%rbp)
    ce2d:	66 c7 85 44 fd ff ff 	movw   $0x6bc5,-0x2bc(%rbp)
    ce34:	c5 6b 
    ce36:	48 b8 f7 c5 37 05 fd 	movabs $0x36bdf8fd0537c5f7,%rax
    ce3d:	f8 bd 36 
    ce40:	48 89 85 46 fd ff ff 	mov    %rax,-0x2ba(%rbp)
    ce47:	66 c7 85 4e fd ff ff 	movw   $0x8ff,-0x2b2(%rbp)
    ce4e:	ff 08 
    ce50:	48 b8 37 0a fe 9d 01 	movabs $0xff00fa019dfe0a37,%rax
    ce57:	fa 00 ff 
    ce5a:	48 89 85 50 fd ff ff 	mov    %rax,-0x2b0(%rbp)
    ce61:	66 c7 85 58 fd ff ff 	movw   $0xfa00,-0x2a8(%rbp)
    ce68:	00 fa 
    ce6a:	48 b8 41 01 01 01 41 	movabs $0x101074101010141,%rax
    ce71:	07 01 01 
    ce74:	48 89 85 5a fd ff ff 	mov    %rax,-0x2a6(%rbp)
    ce7b:	66 c7 85 62 fd ff ff 	movw   $0x1ff,-0x29e(%rbp)
    ce82:	ff 01 
    ce84:	c7 85 48 f7 ff ff 00 	movl   $0x0,-0x8b8(%rbp)
    ce8b:	00 00 00 
    ce8e:	eb 1b                	jmp    ceab <func_2+0x660>
    ce90:	8b 85 48 f7 ff ff    	mov    -0x8b8(%rbp),%eax
    ce96:	48 98                	cltq   
    ce98:	48 c7 84 c5 f0 fa ff 	movq   $0x0,-0x510(%rbp,%rax,8)
    ce9f:	ff 00 00 00 00 
    cea4:	83 85 48 f7 ff ff 01 	addl   $0x1,-0x8b8(%rbp)
    ceab:	83 bd 48 f7 ff ff 09 	cmpl   $0x9,-0x8b8(%rbp)
    ceb2:	7e dc                	jle    ce90 <func_2+0x645>
    ceb4:	0f b7 85 20 f7 ff ff 	movzwl -0x8e0(%rbp),%eax
    cebb:	83 c8 a5             	or     $0xffffffa5,%eax
    cebe:	0f b6 c0             	movzbl %al,%eax
    cec1:	be fc 00 00 00       	mov    $0xfc,%esi
    cec6:	89 c7                	mov    %eax,%edi
    cec8:	e8 0e cd ff ff       	callq  9bdb <safe_div_func_uint8_t_u_u>
    cecd:	0f b6 c0             	movzbl %al,%eax
    ced0:	66 39 85 20 f7 ff ff 	cmp    %ax,-0x8e0(%rbp)
    ced7:	8b 05 ab 4f 01 00    	mov    0x14fab(%rip),%eax        # 21e88 <g_2435>
    cedd:	48 8b 05 3c 89 01 00 	mov    0x1893c(%rip),%rax        # 25820 <g_1831>
    cee4:	48 8b 00             	mov    (%rax),%rax
    cee7:	48 8b 18             	mov    (%rax),%rbx
    ceea:	44 0f b7 a5 20 f7 ff 	movzwl -0x8e0(%rbp),%r12d
    cef1:	ff 
    cef2:	66 83 bd 20 f7 ff ff 	cmpw   $0x0,-0x8e0(%rbp)
    cef9:	00 
    cefa:	75 0a                	jne    cf06 <func_2+0x6bb>
    cefc:	66 83 bd 20 f7 ff ff 	cmpw   $0x0,-0x8e0(%rbp)
    cf03:	00 
    cf04:	74 07                	je     cf0d <func_2+0x6c2>
    cf06:	ba 01 00 00 00       	mov    $0x1,%edx
    cf0b:	eb 05                	jmp    cf12 <func_2+0x6c7>
    cf0d:	ba 00 00 00 00       	mov    $0x0,%edx
    cf12:	48 8b 05 e7 76 01 00 	mov    0x176e7(%rip),%rax        # 24600 <g_548>
    cf19:	66 89 10             	mov    %dx,(%rax)
    cf1c:	0f b7 00             	movzwl (%rax),%eax
    cf1f:	0f b7 d0             	movzwl %ax,%edx
    cf22:	66 81 bd 20 f7 ff ff 	cmpw   $0xc9,-0x8e0(%rbp)
    cf29:	c9 00 
    cf2b:	0f 95 c0             	setne  %al
    cf2e:	0f b6 c0             	movzbl %al,%eax
    cf31:	89 d6                	mov    %edx,%esi
    cf33:	89 c7                	mov    %eax,%edi
    cf35:	e8 22 ce ff ff       	callq  9d5c <safe_mod_func_uint16_t_u_u>
    cf3a:	0f b7 d0             	movzwl %ax,%edx
    cf3d:	48 8b 05 04 74 01 00 	mov    0x17404(%rip),%rax        # 24348 <g_123>
    cf44:	48 8b 00             	mov    (%rax),%rax
    cf47:	48 39 c2             	cmp    %rax,%rdx
    cf4a:	0f 92 c0             	setb   %al
    cf4d:	0f b6 c0             	movzbl %al,%eax
    cf50:	f7 d0                	not    %eax
    cf52:	89 c2                	mov    %eax,%edx
    cf54:	0f b7 85 20 f7 ff ff 	movzwl -0x8e0(%rbp),%eax
    cf5b:	09 d0                	or     %edx,%eax
    cf5d:	98                   	cwtl   
    cf5e:	44 89 e6             	mov    %r12d,%esi
    cf61:	89 c7                	mov    %eax,%edi
    cf63:	e8 c2 c5 ff ff       	callq  952a <safe_rshift_func_int16_t_s_s>
    cf68:	66 85 c0             	test   %ax,%ax
    cf6b:	74 11                	je     cf7e <func_2+0x733>
    cf6d:	66 83 bd 20 f7 ff ff 	cmpw   $0x0,-0x8e0(%rbp)
    cf74:	00 
    cf75:	74 07                	je     cf7e <func_2+0x733>
    cf77:	ba 01 00 00 00       	mov    $0x1,%edx
    cf7c:	eb 05                	jmp    cf83 <func_2+0x738>
    cf7e:	ba 00 00 00 00       	mov    $0x0,%edx
    cf83:	0f b7 85 20 f7 ff ff 	movzwl -0x8e0(%rbp),%eax
    cf8a:	39 c2                	cmp    %eax,%edx
    cf8c:	0f 9e c0             	setle  %al
    cf8f:	0f b6 c0             	movzbl %al,%eax
    cf92:	be 02 00 00 00       	mov    $0x2,%esi
    cf97:	89 c7                	mov    %eax,%edi
    cf99:	e8 67 cc ff ff       	callq  9c05 <safe_lshift_func_uint8_t_u_s>
    cf9e:	84 c0                	test   %al,%al
    cfa0:	75 0a                	jne    cfac <func_2+0x761>
    cfa2:	66 83 bd 20 f7 ff ff 	cmpw   $0x0,-0x8e0(%rbp)
    cfa9:	00 
    cfaa:	74 07                	je     cfb3 <func_2+0x768>
    cfac:	b8 01 00 00 00       	mov    $0x1,%eax
    cfb1:	eb 05                	jmp    cfb8 <func_2+0x76d>
    cfb3:	b8 00 00 00 00       	mov    $0x0,%eax
    cfb8:	48 98                	cltq   
    cfba:	48 89 de             	mov    %rbx,%rsi
    cfbd:	48 89 c7             	mov    %rax,%rdi
    cfc0:	e8 e3 c8 ff ff       	callq  98a8 <safe_sub_func_int64_t_s_s>
    cfc5:	0f b7 85 20 f7 ff ff 	movzwl -0x8e0(%rbp),%eax
    cfcc:	98                   	cwtl   
    cfcd:	be fb ff ff ff       	mov    $0xfffffffb,%esi
    cfd2:	89 c7                	mov    %eax,%edi
    cfd4:	e8 1c c4 ff ff       	callq  93f5 <safe_mul_func_int16_t_s_s>
    cfd9:	66 85 c0             	test   %ax,%ax
    cfdc:	0f 84 22 11 00 00    	je     e104 <func_2+0x18b9>
    cfe2:	c6 85 1e f7 ff ff 9e 	movb   $0x9e,-0x8e2(%rbp)
    cfe9:	48 8d 05 10 76 01 00 	lea    0x17610(%rip),%rax        # 24600 <g_548>
    cff0:	48 89 85 60 f8 ff ff 	mov    %rax,-0x7a0(%rbp)
    cff7:	c7 85 30 f7 ff ff 02 	movl   $0x2,-0x8d0(%rbp)
    cffe:	00 00 00 
    d001:	c7 85 34 f7 ff ff 10 	movl   $0x69671310,-0x8cc(%rbp)
    d008:	13 67 69 
    d00b:	c7 85 00 fc ff ff ff 	movl   $0xffffffff,-0x400(%rbp)
    d012:	ff ff ff 
    d015:	c7 85 04 fc ff ff ff 	movl   $0xffffffff,-0x3fc(%rbp)
    d01c:	ff ff ff 
    d01f:	c7 85 08 fc ff ff 22 	movl   $0xa9b6922,-0x3f8(%rbp)
    d026:	69 9b 0a 
    d029:	c7 85 0c fc ff ff 00 	movl   $0x0,-0x3f4(%rbp)
    d030:	00 00 00 
    d033:	c7 85 10 fc ff ff ff 	movl   $0xffffffff,-0x3f0(%rbp)
    d03a:	ff ff ff 
    d03d:	c7 85 14 fc ff ff 00 	movl   $0x0,-0x3ec(%rbp)
    d044:	00 00 00 
    d047:	c7 85 18 fc ff ff ff 	movl   $0xffffffff,-0x3e8(%rbp)
    d04e:	ff ff ff 
    d051:	c7 85 1c fc ff ff 02 	movl   $0x2,-0x3e4(%rbp)
    d058:	00 00 00 
    d05b:	c7 85 20 fc ff ff ff 	movl   $0xffffffff,-0x3e0(%rbp)
    d062:	ff ff ff 
    d065:	c7 85 24 fc ff ff 00 	movl   $0x0,-0x3dc(%rbp)
    d06c:	00 00 00 
    d06f:	c7 85 28 fc ff ff 02 	movl   $0x2,-0x3d8(%rbp)
    d076:	00 00 00 
    d079:	c7 85 2c fc ff ff 22 	movl   $0xa9b6922,-0x3d4(%rbp)
    d080:	69 9b 0a 
    d083:	c7 85 30 fc ff ff ff 	movl   $0xffffffff,-0x3d0(%rbp)
    d08a:	ff ff ff 
    d08d:	c7 85 34 fc ff ff 01 	movl   $0x1,-0x3cc(%rbp)
    d094:	00 00 00 
    d097:	c7 85 38 fc ff ff 00 	movl   $0x0,-0x3c8(%rbp)
    d09e:	00 00 00 
    d0a1:	c7 85 3c fc ff ff 00 	movl   $0x0,-0x3c4(%rbp)
    d0a8:	00 00 00 
    d0ab:	c7 85 40 fc ff ff 01 	movl   $0x1,-0x3c0(%rbp)
    d0b2:	00 00 00 
    d0b5:	c7 85 44 fc ff ff ff 	movl   $0xffffffff,-0x3bc(%rbp)
    d0bc:	ff ff ff 
    d0bf:	c7 85 48 fc ff ff ff 	movl   $0xffffffff,-0x3b8(%rbp)
    d0c6:	ff ff ff 
    d0c9:	c7 85 4c fc ff ff ff 	movl   $0xffffffff,-0x3b4(%rbp)
    d0d0:	ff ff ff 
    d0d3:	c7 85 50 fc ff ff 22 	movl   $0xa9b6922,-0x3b0(%rbp)
    d0da:	69 9b 0a 
    d0dd:	c7 85 54 fc ff ff 00 	movl   $0x0,-0x3ac(%rbp)
    d0e4:	00 00 00 
    d0e7:	c7 85 58 fc ff ff ff 	movl   $0xffffffff,-0x3a8(%rbp)
    d0ee:	ff ff ff 
    d0f1:	c7 85 5c fc ff ff 00 	movl   $0x0,-0x3a4(%rbp)
    d0f8:	00 00 00 
    d0fb:	c7 85 60 fc ff ff ff 	movl   $0xffffffff,-0x3a0(%rbp)
    d102:	ff ff ff 
    d105:	c7 85 64 fc ff ff 02 	movl   $0x2,-0x39c(%rbp)
    d10c:	00 00 00 
    d10f:	c7 85 68 fc ff ff ff 	movl   $0xffffffff,-0x398(%rbp)
    d116:	ff ff ff 
    d119:	c7 85 6c fc ff ff 00 	movl   $0x0,-0x394(%rbp)
    d120:	00 00 00 
    d123:	c7 85 70 fc ff ff 02 	movl   $0x2,-0x390(%rbp)
    d12a:	00 00 00 
    d12d:	c7 85 74 fc ff ff 22 	movl   $0xa9b6922,-0x38c(%rbp)
    d134:	69 9b 0a 
    d137:	c7 85 78 fc ff ff ff 	movl   $0xffffffff,-0x388(%rbp)
    d13e:	ff ff ff 
    d141:	c7 85 7c fc ff ff 01 	movl   $0x1,-0x384(%rbp)
    d148:	00 00 00 
    d14b:	c7 85 80 fc ff ff 00 	movl   $0x0,-0x380(%rbp)
    d152:	00 00 00 
    d155:	c7 85 84 fc ff ff 00 	movl   $0x0,-0x37c(%rbp)
    d15c:	00 00 00 
    d15f:	c7 85 88 fc ff ff 01 	movl   $0x1,-0x378(%rbp)
    d166:	00 00 00 
    d169:	c7 85 8c fc ff ff ff 	movl   $0xffffffff,-0x374(%rbp)
    d170:	ff ff ff 
    d173:	c7 85 90 fc ff ff ff 	movl   $0xffffffff,-0x370(%rbp)
    d17a:	ff ff ff 
    d17d:	c7 85 94 fc ff ff ff 	movl   $0xffffffff,-0x36c(%rbp)
    d184:	ff ff ff 
    d187:	c7 85 98 fc ff ff 22 	movl   $0xa9b6922,-0x368(%rbp)
    d18e:	69 9b 0a 
    d191:	c7 85 9c fc ff ff 00 	movl   $0x0,-0x364(%rbp)
    d198:	00 00 00 
    d19b:	c7 85 a0 fc ff ff ff 	movl   $0xffffffff,-0x360(%rbp)
    d1a2:	ff ff ff 
    d1a5:	c7 85 a4 fc ff ff 00 	movl   $0x0,-0x35c(%rbp)
    d1ac:	00 00 00 
    d1af:	48 c7 85 e8 f7 ff ff 	movq   $0x0,-0x818(%rbp)
    d1b6:	00 00 00 00 
    d1ba:	48 8d 85 e8 f7 ff ff 	lea    -0x818(%rbp),%rax
    d1c1:	48 89 85 68 f8 ff ff 	mov    %rax,-0x798(%rbp)
    d1c8:	48 8d 05 01 31 01 00 	lea    0x13101(%rip),%rax        # 202d0 <g_326>
    d1cf:	48 89 85 70 f8 ff ff 	mov    %rax,-0x790(%rbp)
    d1d6:	48 8d 05 3b 86 01 00 	lea    0x1863b(%rip),%rax        # 25818 <g_1832>
    d1dd:	48 89 85 78 f8 ff ff 	mov    %rax,-0x788(%rbp)
    d1e4:	48 8d 05 59 2e 01 00 	lea    0x12e59(%rip),%rax        # 20044 <g_101>
    d1eb:	48 89 85 80 f8 ff ff 	mov    %rax,-0x780(%rbp)
    d1f2:	48 8d 05 5f 30 01 00 	lea    0x1305f(%rip),%rax        # 20258 <g_174>
    d1f9:	48 89 85 88 f8 ff ff 	mov    %rax,-0x778(%rbp)
    d200:	c6 85 1f f7 ff ff 65 	movb   $0x65,-0x8e1(%rbp)
    d207:	c7 85 4c f7 ff ff 00 	movl   $0x0,-0x8b4(%rbp)
    d20e:	00 00 00 
    d211:	eb 43                	jmp    d256 <func_2+0xa0b>
    d213:	c7 85 50 f7 ff ff 00 	movl   $0x0,-0x8b0(%rbp)
    d21a:	00 00 00 
    d21d:	eb 27                	jmp    d246 <func_2+0x9fb>
    d21f:	8b 85 50 f7 ff ff    	mov    -0x8b0(%rbp),%eax
    d225:	48 63 d0             	movslq %eax,%rdx
    d228:	8b 85 4c f7 ff ff    	mov    -0x8b4(%rbp),%eax
    d22e:	48 98                	cltq   
    d230:	48 01 d0             	add    %rdx,%rax
    d233:	48 c7 84 c5 50 fa ff 	movq   $0x0,-0x5b0(%rbp,%rax,8)
    d23a:	ff 00 00 00 00 
    d23f:	83 85 50 f7 ff ff 01 	addl   $0x1,-0x8b0(%rbp)
    d246:	83 bd 50 f7 ff ff 00 	cmpl   $0x0,-0x8b0(%rbp)
    d24d:	7e d0                	jle    d21f <func_2+0x9d4>
    d24f:	83 85 4c f7 ff ff 01 	addl   $0x1,-0x8b4(%rbp)
    d256:	83 bd 4c f7 ff ff 08 	cmpl   $0x8,-0x8b4(%rbp)
    d25d:	7e b4                	jle    d213 <func_2+0x9c8>
    d25f:	90                   	nop
    d260:	0f b6 85 1e f7 ff ff 	movzbl -0x8e2(%rbp),%eax
    d267:	89 c6                	mov    %eax,%esi
    d269:	bf 00 00 00 00       	mov    $0x0,%edi
    d26e:	e8 a3 c1 ff ff       	callq  9416 <safe_mod_func_int16_t_s_s>
    d273:	89 c2                	mov    %eax,%edx
    d275:	48 8b 05 24 86 01 00 	mov    0x18624(%rip),%rax        # 258a0 <g_2449>
    d27c:	8b 08                	mov    (%rax),%ecx
    d27e:	0f bf d2             	movswl %dx,%edx
    d281:	21 ca                	and    %ecx,%edx
    d283:	89 10                	mov    %edx,(%rax)
    d285:	c7 05 e1 2f 01 00 00 	movl   $0x0,0x12fe1(%rip)        # 20270 <g_220>
    d28c:	00 00 00 
    d28f:	e9 0c 0d 00 00       	jmpq   dfa0 <func_2+0x1755>
    d294:	48 8d 05 95 2d 01 00 	lea    0x12d95(%rip),%rax        # 20030 <g_58>
    d29b:	48 89 85 90 f8 ff ff 	mov    %rax,-0x770(%rbp)
    d2a2:	48 b8 d2 76 9a d9 c5 	movabs $0xecf1c8c5d99a76d2,%rax
    d2a9:	c8 f1 ec 
    d2ac:	48 89 85 f0 f7 ff ff 	mov    %rax,-0x810(%rbp)
    d2b3:	c7 85 54 f7 ff ff 00 	movl   $0x0,-0x8ac(%rbp)
    d2ba:	00 00 00 
    d2bd:	48 b8 f5 51 6f df 5e 	movabs $0x5eadcb5edf6f51f5,%rax
    d2c4:	cb ad 5e 
    d2c7:	48 89 85 98 f8 ff ff 	mov    %rax,-0x768(%rbp)
    d2ce:	c7 85 7c f7 ff ff 70 	movl   $0xcda46070,-0x884(%rbp)
    d2d5:	60 a4 cd 
    d2d8:	c7 85 58 f7 ff ff f8 	movl   $0xfffffff8,-0x8a8(%rbp)
    d2df:	ff ff ff 
    d2e2:	c7 85 80 f7 ff ff db 	movl   $0x4f2f56db,-0x880(%rbp)
    d2e9:	56 2f 4f 
    d2ec:	c7 85 38 f7 ff ff 04 	movl   $0x4,-0x8c8(%rbp)
    d2f3:	00 00 00 
    d2f6:	c7 85 84 f7 ff ff 01 	movl   $0x1,-0x87c(%rbp)
    d2fd:	00 00 00 
    d300:	c7 85 88 f7 ff ff b8 	movl   $0x843587b8,-0x878(%rbp)
    d307:	87 35 84 
    d30a:	c7 85 8c f7 ff ff 00 	movl   $0x0,-0x874(%rbp)
    d311:	00 00 00 
    d314:	c7 85 5c f7 ff ff 01 	movl   $0x1,-0x8a4(%rbp)
    d31b:	00 00 00 
    d31e:	c7 85 90 f7 ff ff 19 	movl   $0x37a36519,-0x870(%rbp)
    d325:	65 a3 37 
    d328:	c7 85 94 f7 ff ff f7 	movl   $0xfffffff7,-0x86c(%rbp)
    d32f:	ff ff ff 
    d332:	c7 85 98 f7 ff ff 01 	movl   $0x1,-0x868(%rbp)
    d339:	00 00 00 
    d33c:	c7 85 9c f7 ff ff d4 	movl   $0x3f96d9d4,-0x864(%rbp)
    d343:	d9 96 3f 
    d346:	c6 85 1d f7 ff ff 82 	movb   $0x82,-0x8e3(%rbp)
    d34d:	48 8d 85 38 f7 ff ff 	lea    -0x8c8(%rbp),%rax
    d354:	48 89 85 08 f8 ff ff 	mov    %rax,-0x7f8(%rbp)
    d35b:	48 8b 85 68 fa ff ff 	mov    -0x598(%rbp),%rax
    d362:	48 8d 15 77 8a 01 00 	lea    0x18a77(%rip),%rdx        # 25de0 <g_1215>
    d369:	48 39 d0             	cmp    %rdx,%rax
    d36c:	0f 95 c0             	setne  %al
    d36f:	0f b6 c0             	movzbl %al,%eax
    d372:	be ff ff 00 00       	mov    $0xffff,%esi
    d377:	89 c7                	mov    %eax,%edi
    d379:	e8 10 ca ff ff       	callq  9d8e <safe_div_func_uint16_t_u_u>
    d37e:	0f be d0             	movsbl %al,%edx
    d381:	48 8b 85 38 fb ff ff 	mov    -0x4c8(%rbp),%rax
    d388:	48 39 85 60 f8 ff ff 	cmp    %rax,-0x7a0(%rbp)
    d38f:	0f 95 c0             	setne  %al
    d392:	0f b6 c0             	movzbl %al,%eax
    d395:	89 d6                	mov    %edx,%esi
    d397:	89 c7                	mov    %eax,%edi
    d399:	e8 54 be ff ff       	callq  91f2 <safe_sub_func_int8_t_s_s>
    d39e:	83 e0 fa             	and    $0xfffffffa,%eax
    d3a1:	84 c0                	test   %al,%al
    d3a3:	74 32                	je     d3d7 <func_2+0xb8c>
    d3a5:	48 8d 05 64 3c 01 00 	lea    0x13c64(%rip),%rax        # 21010 <g_1968>
    d3ac:	48 89 85 00 f8 ff ff 	mov    %rax,-0x800(%rbp)
    d3b3:	48 8d 85 00 f8 ff ff 	lea    -0x800(%rbp),%rax
    d3ba:	48 89 85 f0 f8 ff ff 	mov    %rax,-0x710(%rbp)
    d3c1:	48 8b 95 00 f8 ff ff 	mov    -0x800(%rbp),%rdx
    d3c8:	48 8b 85 f0 f8 ff ff 	mov    -0x710(%rbp),%rax
    d3cf:	48 89 10             	mov    %rdx,(%rax)
    d3d2:	e9 42 06 00 00       	jmpq   da19 <func_2+0x11ce>
    d3d7:	c7 85 a0 f7 ff ff 01 	movl   $0x1,-0x860(%rbp)
    d3de:	00 00 00 
    d3e1:	48 b8 f0 b1 00 8a ef 	movabs $0x8d5c55ef8a00b1f0,%rax
    d3e8:	55 5c 8d 
    d3eb:	48 89 85 f8 f7 ff ff 	mov    %rax,-0x808(%rbp)
    d3f2:	c7 85 3c f7 ff ff c2 	movl   $0x8913c8c2,-0x8c4(%rbp)
    d3f9:	c8 13 89 
    d3fc:	c7 45 bf 37 37 37 37 	movl   $0x37373737,-0x41(%rbp)
    d403:	c7 85 a0 fa ff ff 00 	movl   $0x0,-0x560(%rbp)
    d40a:	00 00 00 
    d40d:	c7 85 a4 fa ff ff 00 	movl   $0x0,-0x55c(%rbp)
    d414:	00 00 00 
    d417:	c7 85 a8 fa ff ff da 	movl   $0xe6b33bda,-0x558(%rbp)
    d41e:	3b b3 e6 
    d421:	c7 85 ac fa ff ff 00 	movl   $0x0,-0x554(%rbp)
    d428:	00 00 00 
    d42b:	c7 85 b0 fa ff ff 00 	movl   $0x0,-0x550(%rbp)
    d432:	00 00 00 
    d435:	c7 85 b4 fa ff ff da 	movl   $0xe6b33bda,-0x54c(%rbp)
    d43c:	3b b3 e6 
    d43f:	c7 85 b8 fa ff ff 00 	movl   $0x0,-0x548(%rbp)
    d446:	00 00 00 
    d449:	c7 85 bc fa ff ff 00 	movl   $0x0,-0x544(%rbp)
    d450:	00 00 00 
    d453:	c7 85 c0 fa ff ff da 	movl   $0xe6b33bda,-0x540(%rbp)
    d45a:	3b b3 e6 
    d45d:	c7 85 c4 fa ff ff 00 	movl   $0x0,-0x53c(%rbp)
    d464:	00 00 00 
    d467:	c7 85 c8 fa ff ff 00 	movl   $0x0,-0x538(%rbp)
    d46e:	00 00 00 
    d471:	c7 85 cc fa ff ff da 	movl   $0xe6b33bda,-0x534(%rbp)
    d478:	3b b3 e6 
    d47b:	c7 85 d0 fa ff ff 00 	movl   $0x0,-0x530(%rbp)
    d482:	00 00 00 
    d485:	c7 85 d4 fa ff ff 00 	movl   $0x0,-0x52c(%rbp)
    d48c:	00 00 00 
    d48f:	c7 85 d8 fa ff ff da 	movl   $0xe6b33bda,-0x528(%rbp)
    d496:	3b b3 e6 
    d499:	c7 85 dc fa ff ff 00 	movl   $0x0,-0x524(%rbp)
    d4a0:	00 00 00 
    d4a3:	c7 85 e0 fa ff ff 00 	movl   $0x0,-0x520(%rbp)
    d4aa:	00 00 00 
    d4ad:	c7 85 e4 fa ff ff da 	movl   $0xe6b33bda,-0x51c(%rbp)
    d4b4:	3b b3 e6 
    d4b7:	c7 85 60 f7 ff ff 00 	movl   $0x0,-0x8a0(%rbp)
    d4be:	00 00 00 
    d4c1:	eb 1b                	jmp    d4de <func_2+0xc93>
    d4c3:	8b 85 60 f7 ff ff    	mov    -0x8a0(%rbp),%eax
    d4c9:	48 98                	cltq   
    d4cb:	48 c7 84 c5 c0 f9 ff 	movq   $0x0,-0x640(%rbp,%rax,8)
    d4d2:	ff 00 00 00 00 
    d4d7:	83 85 60 f7 ff ff 01 	addl   $0x1,-0x8a0(%rbp)
    d4de:	83 bd 60 f7 ff ff 07 	cmpl   $0x7,-0x8a0(%rbp)
    d4e5:	7e dc                	jle    d4c3 <func_2+0xc78>
    d4e7:	48 8b 85 f8 f7 ff ff 	mov    -0x808(%rbp),%rax
    d4ee:	0f b7 d8             	movzwl %ax,%ebx
    d4f1:	0f b6 85 1e f7 ff ff 	movzbl -0x8e2(%rbp),%eax
    d4f8:	44 0f be e0          	movsbl %al,%r12d
    d4fc:	8b 85 a0 f7 ff ff    	mov    -0x860(%rbp),%eax
    d502:	48 63 d0             	movslq %eax,%rdx
    d505:	48 8b 05 3c 6e 01 00 	mov    0x16e3c(%rip),%rax        # 24348 <g_123>
    d50c:	48 8b 00             	mov    (%rax),%rax
    d50f:	48 89 d6             	mov    %rdx,%rsi
    d512:	48 89 c7             	mov    %rax,%rdi
    d515:	e8 14 cb ff ff       	callq  a02e <safe_add_func_uint64_t_u_u>
    d51a:	0f be c0             	movsbl %al,%eax
    d51d:	44 89 e6             	mov    %r12d,%esi
    d520:	89 c7                	mov    %eax,%edi
    d522:	e8 eb bc ff ff       	callq  9212 <safe_mul_func_int8_t_s_s>
    d527:	0f be d0             	movsbl %al,%edx
    d52a:	8b 85 30 f7 ff ff    	mov    -0x8d0(%rbp),%eax
    d530:	21 d0                	and    %edx,%eax
    d532:	89 85 30 f7 ff ff    	mov    %eax,-0x8d0(%rbp)
    d538:	48 8d 05 c1 70 01 00 	lea    0x170c1(%rip),%rax        # 24600 <g_548>
    d53f:	48 8b 00             	mov    (%rax),%rax
    d542:	0f b7 00             	movzwl (%rax),%eax
    d545:	0f b7 c0             	movzwl %ax,%eax
    d548:	89 de                	mov    %ebx,%esi
    d54a:	89 c7                	mov    %eax,%edi
    d54c:	e8 ec c7 ff ff       	callq  9d3d <safe_mul_func_uint16_t_u_u>
    d551:	66 85 c0             	test   %ax,%ax
    d554:	74 53                	je     d5a9 <func_2+0xd5e>
    d556:	48 8d 85 30 f7 ff ff 	lea    -0x8d0(%rbp),%rax
    d55d:	48 89 85 e0 f8 ff ff 	mov    %rax,-0x720(%rbp)
    d564:	48 8d 05 11 88 01 00 	lea    0x18811(%rip),%rax        # 25d7c <g_185+0x4>
    d56b:	48 89 85 e8 f8 ff ff 	mov    %rax,-0x718(%rbp)
    d572:	48 8d 85 50 fe ff ff 	lea    -0x1b0(%rbp),%rax
    d579:	48 8d 15 20 4a 01 00 	lea    0x14a20(%rip),%rdx        # 21fa0 <g_2982+0x10>
    d580:	b9 2d 00 00 00       	mov    $0x2d,%ecx
    d585:	48 89 c7             	mov    %rax,%rdi
    d588:	48 89 d6             	mov    %rdx,%rsi
    d58b:	f3 48 a5             	rep movsq %ds:(%rsi),%es:(%rdi)
    d58e:	83 85 54 f7 ff ff 01 	addl   $0x1,-0x8ac(%rbp)
    d595:	8b 85 3c f7 ff ff    	mov    -0x8c4(%rbp),%eax
    d59b:	48 98                	cltq   
    d59d:	48 89 85 98 f8 ff ff 	mov    %rax,-0x768(%rbp)
    d5a4:	e9 62 04 00 00       	jmpq   da0b <func_2+0x11c0>
    d5a9:	48 8d 05 98 2a 01 00 	lea    0x12a98(%rip),%rax        # 20048 <g_105>
    d5b0:	48 89 85 a0 f8 ff ff 	mov    %rax,-0x760(%rbp)
    d5b7:	48 8d 05 8a 2a 01 00 	lea    0x12a8a(%rip),%rax        # 20048 <g_105>
    d5be:	48 89 85 a8 f8 ff ff 	mov    %rax,-0x758(%rbp)
    d5c5:	48 8d 05 88 2c 01 00 	lea    0x12c88(%rip),%rax        # 20254 <g_146>
    d5cc:	48 89 85 00 f8 ff ff 	mov    %rax,-0x800(%rbp)
    d5d3:	c7 85 a0 fb ff ff 01 	movl   $0x1,-0x460(%rbp)
    d5da:	00 00 00 
    d5dd:	c7 85 a4 fb ff ff a9 	movl   $0xab0f44a9,-0x45c(%rbp)
    d5e4:	44 0f ab 
    d5e7:	c7 85 a8 fb ff ff 01 	movl   $0x1,-0x458(%rbp)
    d5ee:	00 00 00 
    d5f1:	c7 85 ac fb ff ff a9 	movl   $0xab0f44a9,-0x454(%rbp)
    d5f8:	44 0f ab 
    d5fb:	c7 85 b0 fb ff ff 01 	movl   $0x1,-0x450(%rbp)
    d602:	00 00 00 
    d605:	c7 85 b4 fb ff ff a9 	movl   $0xab0f44a9,-0x44c(%rbp)
    d60c:	44 0f ab 
    d60f:	c7 85 b8 fb ff ff 01 	movl   $0x1,-0x448(%rbp)
    d616:	00 00 00 
    d619:	c7 85 bc fb ff ff a9 	movl   $0xab0f44a9,-0x444(%rbp)
    d620:	44 0f ab 
    d623:	c7 85 c0 fb ff ff 01 	movl   $0x1,-0x440(%rbp)
    d62a:	00 00 00 
    d62d:	c7 85 c4 fb ff ff a9 	movl   $0xab0f44a9,-0x43c(%rbp)
    d634:	44 0f ab 
    d637:	c7 85 c8 fb ff ff 01 	movl   $0x1,-0x438(%rbp)
    d63e:	00 00 00 
    d641:	c7 85 cc fb ff ff a9 	movl   $0xab0f44a9,-0x434(%rbp)
    d648:	44 0f ab 
    d64b:	c7 85 d0 fb ff ff 01 	movl   $0x1,-0x430(%rbp)
    d652:	00 00 00 
    d655:	c7 85 d4 fb ff ff a9 	movl   $0xab0f44a9,-0x42c(%rbp)
    d65c:	44 0f ab 
    d65f:	c7 85 d8 fb ff ff 01 	movl   $0x1,-0x428(%rbp)
    d666:	00 00 00 
    d669:	c7 85 dc fb ff ff a9 	movl   $0xab0f44a9,-0x424(%rbp)
    d670:	44 0f ab 
    d673:	c7 85 e0 fb ff ff 01 	movl   $0x1,-0x420(%rbp)
    d67a:	00 00 00 
    d67d:	c7 85 e4 fb ff ff a9 	movl   $0xab0f44a9,-0x41c(%rbp)
    d684:	44 0f ab 
    d687:	c7 85 e8 fb ff ff 01 	movl   $0x1,-0x418(%rbp)
    d68e:	00 00 00 
    d691:	c7 85 ec fb ff ff a9 	movl   $0xab0f44a9,-0x414(%rbp)
    d698:	44 0f ab 
    d69b:	c7 85 f0 fb ff ff 01 	movl   $0x1,-0x410(%rbp)
    d6a2:	00 00 00 
    d6a5:	c7 85 f4 fb ff ff a9 	movl   $0xab0f44a9,-0x40c(%rbp)
    d6ac:	44 0f ab 
    d6af:	c7 85 f8 fb ff ff 01 	movl   $0x1,-0x408(%rbp)
    d6b6:	00 00 00 
    d6b9:	c7 85 fc fb ff ff a9 	movl   $0xab0f44a9,-0x404(%rbp)
    d6c0:	44 0f ab 
    d6c3:	c7 85 a4 f7 ff ff fc 	movl   $0x47031bfc,-0x85c(%rbp)
    d6ca:	1b 03 47 
    d6cd:	48 8d 85 00 f8 ff ff 	lea    -0x800(%rbp),%rax
    d6d4:	48 89 85 b0 f8 ff ff 	mov    %rax,-0x750(%rbp)
    d6db:	c7 85 64 f7 ff ff 00 	movl   $0x0,-0x89c(%rbp)
    d6e2:	00 00 00 
    d6e5:	eb 1e                	jmp    d705 <func_2+0xeba>
    d6e7:	8b 85 64 f7 ff ff    	mov    -0x89c(%rbp),%eax
    d6ed:	48 98                	cltq   
    d6ef:	48 8d 15 82 86 01 00 	lea    0x18682(%rip),%rdx        # 25d78 <g_185>
    d6f6:	48 89 94 c5 a0 f9 ff 	mov    %rdx,-0x660(%rbp,%rax,8)
    d6fd:	ff 
    d6fe:	83 85 64 f7 ff ff 01 	addl   $0x1,-0x89c(%rbp)
    d705:	83 bd 64 f7 ff ff 03 	cmpl   $0x3,-0x89c(%rbp)
    d70c:	7e d9                	jle    d6e7 <func_2+0xe9c>
    d70e:	c7 05 00 87 01 00 00 	movl   $0x0,0x18700(%rip)        # 25e18 <g_1372>
    d715:	00 00 00 
    d718:	e9 6a 01 00 00       	jmpq   d887 <func_2+0x103c>
    d71d:	48 8d 05 74 2c 01 00 	lea    0x12c74(%rip),%rax        # 20398 <g_432+0x8>
    d724:	48 89 85 c0 f8 ff ff 	mov    %rax,-0x740(%rbp)
    d72b:	48 c7 85 c8 f8 ff ff 	movq   $0x0,-0x738(%rbp)
    d732:	00 00 00 00 
    d736:	48 c7 85 d0 f8 ff ff 	movq   $0x0,-0x730(%rbp)
    d73d:	00 00 00 00 
    d741:	48 8d 05 30 86 01 00 	lea    0x18630(%rip),%rax        # 25d78 <g_185>
    d748:	48 89 85 50 fe ff ff 	mov    %rax,-0x1b0(%rbp)
    d74f:	48 8d 05 fe 2a 01 00 	lea    0x12afe(%rip),%rax        # 20254 <g_146>
    d756:	48 89 85 58 fe ff ff 	mov    %rax,-0x1a8(%rbp)
    d75d:	48 8d 85 3c f7 ff ff 	lea    -0x8c4(%rbp),%rax
    d764:	48 89 85 60 fe ff ff 	mov    %rax,-0x1a0(%rbp)
    d76b:	48 8d 05 e2 2a 01 00 	lea    0x12ae2(%rip),%rax        # 20254 <g_146>
    d772:	48 89 85 68 fe ff ff 	mov    %rax,-0x198(%rbp)
    d779:	48 8d 05 d4 2a 01 00 	lea    0x12ad4(%rip),%rax        # 20254 <g_146>
    d780:	48 89 85 70 fe ff ff 	mov    %rax,-0x190(%rbp)
    d787:	48 8d 85 3c f7 ff ff 	lea    -0x8c4(%rbp),%rax
    d78e:	48 89 85 78 fe ff ff 	mov    %rax,-0x188(%rbp)
    d795:	48 8d 05 dc 85 01 00 	lea    0x185dc(%rip),%rax        # 25d78 <g_185>
    d79c:	48 89 85 80 fe ff ff 	mov    %rax,-0x180(%rbp)
    d7a3:	48 8d 05 ce 85 01 00 	lea    0x185ce(%rip),%rax        # 25d78 <g_185>
    d7aa:	48 89 85 88 fe ff ff 	mov    %rax,-0x178(%rbp)
    d7b1:	48 8d 05 9c 2a 01 00 	lea    0x12a9c(%rip),%rax        # 20254 <g_146>
    d7b8:	48 89 85 90 fe ff ff 	mov    %rax,-0x170(%rbp)
    d7bf:	48 8d 05 d2 2b 01 00 	lea    0x12bd2(%rip),%rax        # 20398 <g_432+0x8>
    d7c6:	48 89 85 98 fe ff ff 	mov    %rax,-0x168(%rbp)
    d7cd:	48 8d 05 74 28 01 00 	lea    0x12874(%rip),%rax        # 20048 <g_105>
    d7d4:	48 89 85 a0 fe ff ff 	mov    %rax,-0x160(%rbp)
    d7db:	48 8d 05 b6 2b 01 00 	lea    0x12bb6(%rip),%rax        # 20398 <g_432+0x8>
    d7e2:	48 89 85 a8 fe ff ff 	mov    %rax,-0x158(%rbp)
    d7e9:	48 8d 05 64 2a 01 00 	lea    0x12a64(%rip),%rax        # 20254 <g_146>
    d7f0:	48 89 85 b0 fe ff ff 	mov    %rax,-0x150(%rbp)
    d7f7:	48 8d 05 7a 85 01 00 	lea    0x1857a(%rip),%rax        # 25d78 <g_185>
    d7fe:	48 89 85 b8 fe ff ff 	mov    %rax,-0x148(%rbp)
    d805:	48 8d 05 48 2a 01 00 	lea    0x12a48(%rip),%rax        # 20254 <g_146>
    d80c:	48 89 85 c0 fe ff ff 	mov    %rax,-0x140(%rbp)
    d813:	48 8d 85 3c f7 ff ff 	lea    -0x8c4(%rbp),%rax
    d81a:	48 89 85 c8 fe ff ff 	mov    %rax,-0x138(%rbp)
    d821:	48 8d 05 2c 2a 01 00 	lea    0x12a2c(%rip),%rax        # 20254 <g_146>
    d828:	48 89 85 d0 fe ff ff 	mov    %rax,-0x130(%rbp)
    d82f:	48 8d 05 1e 2a 01 00 	lea    0x12a1e(%rip),%rax        # 20254 <g_146>
    d836:	48 89 85 d8 fe ff ff 	mov    %rax,-0x128(%rbp)
    d83d:	48 8d 85 50 fe ff ff 	lea    -0x1b0(%rbp),%rax
    d844:	48 83 c0 78          	add    $0x78,%rax
    d848:	48 89 85 d8 f8 ff ff 	mov    %rax,-0x728(%rbp)
    d84f:	48 8b 05 e2 27 01 00 	mov    0x127e2(%rip),%rax        # 20038 <g_61>
    d856:	48 85 c0             	test   %rax,%rax
    d859:	74 05                	je     d860 <func_2+0x1015>
    d85b:	e9 00 fa ff ff       	jmpq   d260 <func_2+0xa15>
    d860:	0f b6 45 c2          	movzbl -0x3e(%rbp),%eax
    d864:	83 c0 01             	add    $0x1,%eax
    d867:	88 45 c2             	mov    %al,-0x3e(%rbp)
    d86a:	48 8b 85 d8 f8 ff ff 	mov    -0x728(%rbp),%rax
    d871:	48 c7 00 00 00 00 00 	movq   $0x0,(%rax)
    d878:	8b 05 9a 85 01 00    	mov    0x1859a(%rip),%eax        # 25e18 <g_1372>
    d87e:	83 c0 01             	add    $0x1,%eax
    d881:	89 05 91 85 01 00    	mov    %eax,0x18591(%rip)        # 25e18 <g_1372>
    d887:	8b 05 8b 85 01 00    	mov    0x1858b(%rip),%eax        # 25e18 <g_1372>
    d88d:	85 c0                	test   %eax,%eax
    d88f:	0f 84 88 fe ff ff    	je     d71d <func_2+0xed2>
    d895:	83 ad 84 f7 ff ff 01 	subl   $0x1,-0x87c(%rbp)
    d89c:	48 8b 85 b0 f8 ff ff 	mov    -0x750(%rbp),%rax
    d8a3:	48 8d 95 00 fc ff ff 	lea    -0x400(%rbp),%rdx
    d8aa:	48 83 c2 14          	add    $0x14,%rdx
    d8ae:	48 89 10             	mov    %rdx,(%rax)
    d8b1:	c6 85 f0 f7 ff ff 00 	movb   $0x0,-0x810(%rbp)
    d8b8:	e9 3c 01 00 00       	jmpq   d9f9 <func_2+0x11ae>
    d8bd:	48 c7 85 b8 f8 ff ff 	movq   $0x2,-0x748(%rbp)
    d8c4:	02 00 00 00 
    d8c8:	c7 85 a8 f7 ff ff 03 	movl   $0x3,-0x858(%rbp)
    d8cf:	00 00 00 
    d8d2:	c7 85 ac f7 ff ff ff 	movl   $0xffffffff,-0x854(%rbp)
    d8d9:	ff ff ff 
    d8dc:	c7 85 b0 f7 ff ff 9f 	movl   $0x2ef04d9f,-0x850(%rbp)
    d8e3:	4d f0 2e 
    d8e6:	c7 85 b4 f7 ff ff 48 	movl   $0x52614948,-0x84c(%rbp)
    d8ed:	49 61 52 
    d8f0:	c7 85 b8 f7 ff ff ff 	movl   $0xffffffff,-0x848(%rbp)
    d8f7:	ff ff ff 
    d8fa:	c7 85 bc f7 ff ff 03 	movl   $0x3,-0x844(%rbp)
    d901:	00 00 00 
    d904:	c7 85 c0 f7 ff ff 01 	movl   $0x1,-0x840(%rbp)
    d90b:	00 00 00 
    d90e:	c7 85 c4 f7 ff ff 8b 	movl   $0xb8d4c38b,-0x83c(%rbp)
    d915:	c3 d4 b8 
    d918:	c7 85 50 fe ff ff 14 	movl   $0xb0fd3614,-0x1b0(%rbp)
    d91f:	36 fd b0 
    d922:	c7 85 54 fe ff ff be 	movl   $0xc724eebe,-0x1ac(%rbp)
    d929:	ee 24 c7 
    d92c:	c7 85 58 fe ff ff 14 	movl   $0xb0fd3614,-0x1a8(%rbp)
    d933:	36 fd b0 
    d936:	c7 85 5c fe ff ff be 	movl   $0xc724eebe,-0x1a4(%rbp)
    d93d:	ee 24 c7 
    d940:	c7 85 60 fe ff ff 14 	movl   $0xb0fd3614,-0x1a0(%rbp)
    d947:	36 fd b0 
    d94a:	c7 85 64 fe ff ff be 	movl   $0xc724eebe,-0x19c(%rbp)
    d951:	ee 24 c7 
    d954:	c7 85 68 fe ff ff 14 	movl   $0xb0fd3614,-0x198(%rbp)
    d95b:	36 fd b0 
    d95e:	c7 85 6c fe ff ff be 	movl   $0xc724eebe,-0x194(%rbp)
    d965:	ee 24 c7 
    d968:	c7 85 70 fe ff ff 14 	movl   $0xb0fd3614,-0x190(%rbp)
    d96f:	36 fd b0 
    d972:	c7 85 74 fe ff ff be 	movl   $0xc724eebe,-0x18c(%rbp)
    d979:	ee 24 c7 
    d97c:	c7 85 78 fe ff ff 14 	movl   $0xb0fd3614,-0x188(%rbp)
    d983:	36 fd b0 
    d986:	c7 85 7c fe ff ff be 	movl   $0xc724eebe,-0x184(%rbp)
    d98d:	ee 24 c7 
    d990:	c7 85 80 fe ff ff 14 	movl   $0xb0fd3614,-0x180(%rbp)
    d997:	36 fd b0 
    d99a:	c7 85 84 fe ff ff be 	movl   $0xc724eebe,-0x17c(%rbp)
    d9a1:	ee 24 c7 
    d9a4:	83 bd a0 f7 ff ff 00 	cmpl   $0x0,-0x860(%rbp)
    d9ab:	75 5d                	jne    da0a <func_2+0x11bf>
    d9ad:	0f b6 85 1d f7 ff ff 	movzbl -0x8e3(%rbp),%eax
    d9b4:	83 e8 01             	sub    $0x1,%eax
    d9b7:	88 85 1d f7 ff ff    	mov    %al,-0x8e3(%rbp)
    d9bd:	48 8b 85 00 f8 ff ff 	mov    -0x800(%rbp),%rax
    d9c4:	c7 00 00 00 00 00    	movl   $0x0,(%rax)
    d9ca:	8b 10                	mov    (%rax),%edx
    d9cc:	48 8b 85 a0 f8 ff ff 	mov    -0x760(%rbp),%rax
    d9d3:	89 10                	mov    %edx,(%rax)
    d9d5:	48 8b 15 bc 6b 01 00 	mov    0x16bbc(%rip),%rdx        # 24598 <g_402>
    d9dc:	48 8b 05 b5 6b 01 00 	mov    0x16bb5(%rip),%rax        # 24598 <g_402>
    d9e3:	48 8b 12             	mov    (%rdx),%rdx
    d9e6:	48 89 10             	mov    %rdx,(%rax)
    d9e9:	0f b6 85 f0 f7 ff ff 	movzbl -0x810(%rbp),%eax
    d9f0:	83 e8 01             	sub    $0x1,%eax
    d9f3:	88 85 f0 f7 ff ff    	mov    %al,-0x810(%rbp)
    d9f9:	0f b6 85 f0 f7 ff ff 	movzbl -0x810(%rbp),%eax
    da00:	84 c0                	test   %al,%al
    da02:	0f 89 b5 fe ff ff    	jns    d8bd <func_2+0x1072>
    da08:	eb 01                	jmp    da0b <func_2+0x11c0>
    da0a:	90                   	nop
    da0b:	48 8d 85 28 f7 ff ff 	lea    -0x8d8(%rbp),%rax
    da12:	48 89 85 08 f8 ff ff 	mov    %rax,-0x7f8(%rbp)
    da19:	c7 85 58 f7 ff ff 04 	movl   $0x4,-0x8a8(%rbp)
    da20:	00 00 00 
    da23:	e9 84 02 00 00       	jmpq   dcac <func_2+0x1461>
    da28:	48 8d 05 f9 83 01 00 	lea    0x183f9(%rip),%rax        # 25e28 <g_1392>
    da2f:	48 89 85 28 f9 ff ff 	mov    %rax,-0x6d8(%rbp)
    da36:	c7 85 cc f7 ff ff ff 	movl   $0xffffffff,-0x834(%rbp)
    da3d:	ff ff ff 
    da40:	c7 85 00 f8 ff ff 00 	movl   $0x0,-0x800(%rbp)
    da47:	00 00 00 
    da4a:	48 8d 85 00 fc ff ff 	lea    -0x400(%rbp),%rax
    da51:	48 83 e8 80          	sub    $0xffffffffffffff80,%rax
    da55:	48 89 85 10 f8 ff ff 	mov    %rax,-0x7f0(%rbp)
    da5c:	48 c7 85 30 f9 ff ff 	movq   $0x0,-0x6d0(%rbp)
    da63:	00 00 00 00 
    da67:	48 8b 05 42 7e 01 00 	mov    0x17e42(%rip),%rax        # 258b0 <g_2534>
    da6e:	48 39 85 68 f8 ff ff 	cmp    %rax,-0x798(%rbp)
    da75:	0f 95 c0             	setne  %al
    da78:	0f b6 d0             	movzbl %al,%edx
    da7b:	48 8b 85 08 f8 ff ff 	mov    -0x7f8(%rbp),%rax
    da82:	89 10                	mov    %edx,(%rax)
    da84:	48 c7 05 69 2a 01 00 	movq   $0x0,0x12a69(%rip)        # 204f8 <g_1268>
    da8b:	00 00 00 00 
    da8f:	e9 00 02 00 00       	jmpq   dc94 <func_2+0x1449>
    da94:	48 c7 85 38 f9 ff ff 	movq   $0x0,-0x6c8(%rbp)
    da9b:	00 00 00 00 
    da9f:	48 8d 05 62 6d 01 00 	lea    0x16d62(%rip),%rax        # 24808 <g_1391>
    daa6:	48 89 85 40 f9 ff ff 	mov    %rax,-0x6c0(%rbp)
    daad:	c7 85 50 fe ff ff 03 	movl   $0x3,-0x1b0(%rbp)
    dab4:	00 00 00 
    dab7:	c7 85 54 fe ff ff 03 	movl   $0x3,-0x1ac(%rbp)
    dabe:	00 00 00 
    dac1:	c7 85 58 fe ff ff 03 	movl   $0x3,-0x1a8(%rbp)
    dac8:	00 00 00 
    dacb:	c7 85 5c fe ff ff 03 	movl   $0x3,-0x1a4(%rbp)
    dad2:	00 00 00 
    dad5:	c7 85 60 fe ff ff 03 	movl   $0x3,-0x1a0(%rbp)
    dadc:	00 00 00 
    dadf:	c7 85 64 fe ff ff 03 	movl   $0x3,-0x19c(%rbp)
    dae6:	00 00 00 
    dae9:	c7 85 68 fe ff ff 03 	movl   $0x3,-0x198(%rbp)
    daf0:	00 00 00 
    daf3:	c7 85 6c fe ff ff 03 	movl   $0x3,-0x194(%rbp)
    dafa:	00 00 00 
    dafd:	48 c7 85 48 f9 ff ff 	movq   $0x0,-0x6b8(%rbp)
    db04:	00 00 00 00 
    db08:	48 8b 85 40 f9 ff ff 	mov    -0x6c0(%rbp),%rax
    db0f:	48 8b 95 28 f9 ff ff 	mov    -0x6d8(%rbp),%rdx
    db16:	48 89 10             	mov    %rdx,(%rax)
    db19:	c7 85 5c f7 ff ff 01 	movl   $0x1,-0x8a4(%rbp)
    db20:	00 00 00 
    db23:	e9 07 01 00 00       	jmpq   dc2f <func_2+0x13e4>
    db28:	48 8b 85 08 f8 ff ff 	mov    -0x7f8(%rbp),%rax
    db2f:	8b 00                	mov    (%rax),%eax
    db31:	89 c2                	mov    %eax,%edx
    db33:	8b 85 cc f7 ff ff    	mov    -0x834(%rbp),%eax
    db39:	89 d6                	mov    %edx,%esi
    db3b:	89 c7                	mov    %eax,%edi
    db3d:	e8 bb c3 ff ff       	callq  9efd <safe_mod_func_uint32_t_u_u>
    db42:	0f b7 d8             	movzwl %ax,%ebx
    db45:	48 8b 05 4c 43 01 00 	mov    0x1434c(%rip),%rax        # 21e98 <g_2541>
    db4c:	8b 85 80 fc ff ff    	mov    -0x380(%rbp),%eax
    db52:	0f b6 d0             	movzbl %al,%edx
    db55:	8b 85 00 f8 ff ff    	mov    -0x800(%rbp),%eax
    db5b:	0f b6 c0             	movzbl %al,%eax
    db5e:	89 d6                	mov    %edx,%esi
    db60:	89 c7                	mov    %eax,%edi
    db62:	e8 74 c0 ff ff       	callq  9bdb <safe_div_func_uint8_t_u_u>
    db67:	44 0f b6 e0          	movzbl %al,%r12d
    db6b:	be 00 00 00 00       	mov    $0x0,%esi
    db70:	bf c5 8d ff ff       	mov    $0xffff8dc5,%edi
    db75:	e8 18 b9 ff ff       	callq  9492 <safe_lshift_func_int16_t_s_s>
    db7a:	66 89 05 4f 29 01 00 	mov    %ax,0x1294f(%rip)        # 204d0 <g_1084>
    db81:	0f b7 05 48 29 01 00 	movzwl 0x12948(%rip),%eax        # 204d0 <g_1084>
    db88:	66 85 c0             	test   %ax,%ax
    db8b:	75 20                	jne    dbad <func_2+0x1362>
    db8d:	48 8b 05 0c 6a 01 00 	mov    0x16a0c(%rip),%rax        # 245a0 <g_458>
    db94:	8b 10                	mov    (%rax),%edx
    db96:	83 c2 01             	add    $0x1,%edx
    db99:	89 10                	mov    %edx,(%rax)
    db9b:	8b 00                	mov    (%rax),%eax
    db9d:	89 c6                	mov    %eax,%esi
    db9f:	bf fe ff ff ff       	mov    $0xfffffffe,%edi
    dba4:	e8 23 bb ff ff       	callq  96cc <safe_mod_func_int32_t_s_s>
    dba9:	85 c0                	test   %eax,%eax
    dbab:	74 07                	je     dbb4 <func_2+0x1369>
    dbad:	b8 01 00 00 00       	mov    $0x1,%eax
    dbb2:	eb 05                	jmp    dbb9 <func_2+0x136e>
    dbb4:	b8 00 00 00 00       	mov    $0x0,%eax
    dbb9:	98                   	cwtl   
    dbba:	44 89 e6             	mov    %r12d,%esi
    dbbd:	89 c7                	mov    %eax,%edi
    dbbf:	e8 31 b8 ff ff       	callq  93f5 <safe_mul_func_int16_t_s_s>
    dbc4:	8b 85 50 fe ff ff    	mov    -0x1b0(%rbp),%eax
    dbca:	83 f8 01             	cmp    $0x1,%eax
    dbcd:	0f 95 c0             	setne  %al
    dbd0:	0f b6 c0             	movzbl %al,%eax
    dbd3:	89 de                	mov    %ebx,%esi
    dbd5:	89 c7                	mov    %eax,%edi
    dbd7:	e8 80 c1 ff ff       	callq  9d5c <safe_mod_func_uint16_t_u_u>
    dbdc:	8b 95 58 f7 ff ff    	mov    -0x8a8(%rbp),%edx
    dbe2:	8d 72 01             	lea    0x1(%rdx),%esi
    dbe5:	8b 15 85 26 01 00    	mov    0x12685(%rip),%edx        # 20270 <g_220>
    dbeb:	83 c2 01             	add    $0x1,%edx
    dbee:	0f b7 c8             	movzwl %ax,%ecx
    dbf1:	89 d7                	mov    %edx,%edi
    dbf3:	48 63 d6             	movslq %esi,%rdx
    dbf6:	48 89 d0             	mov    %rdx,%rax
    dbf9:	48 01 c0             	add    %rax,%rax
    dbfc:	48 01 d0             	add    %rdx,%rax
    dbff:	48 01 c0             	add    %rax,%rax
    dc02:	48 01 f8             	add    %rdi,%rax
    dc05:	89 8c 85 00 fc ff ff 	mov    %ecx,-0x400(%rbp,%rax,4)
    dc0c:	48 8d 85 00 f8 ff ff 	lea    -0x800(%rbp),%rax
    dc13:	48 89 85 48 f9 ff ff 	mov    %rax,-0x6b8(%rbp)
    dc1a:	48 8b 85 48 f9 ff ff 	mov    -0x6b8(%rbp),%rax
    dc21:	48 89 85 10 f8 ff ff 	mov    %rax,-0x7f0(%rbp)
    dc28:	83 85 5c f7 ff ff 01 	addl   $0x1,-0x8a4(%rbp)
    dc2f:	83 bd 5c f7 ff ff 04 	cmpl   $0x4,-0x8a4(%rbp)
    dc36:	0f 8e ec fe ff ff    	jle    db28 <func_2+0x12dd>
    dc3c:	48 8b 85 10 f8 ff ff 	mov    -0x7f0(%rbp),%rax
    dc43:	8b 00                	mov    (%rax),%eax
    dc45:	48 63 d0             	movslq %eax,%rdx
    dc48:	48 83 bd 30 f9 ff ff 	cmpq   $0x0,-0x6d0(%rbp)
    dc4f:	00 
    dc50:	0f 95 c0             	setne  %al
    dc53:	0f b6 c8             	movzbl %al,%ecx
    dc56:	48 8b 85 08 f8 ff ff 	mov    -0x7f8(%rbp),%rax
    dc5d:	8b 00                	mov    (%rax),%eax
    dc5f:	39 c1                	cmp    %eax,%ecx
    dc61:	0f 9e c0             	setle  %al
    dc64:	0f b6 c0             	movzbl %al,%eax
    dc67:	48 89 d6             	mov    %rdx,%rsi
    dc6a:	48 89 c7             	mov    %rax,%rdi
    dc6d:	e8 d9 c3 ff ff       	callq  a04b <safe_sub_func_uint64_t_u_u>
    dc72:	48 89 c2             	mov    %rax,%rdx
    dc75:	48 8b 05 74 7c 01 00 	mov    0x17c74(%rip),%rax        # 258f0 <g_2564>
    dc7c:	8b 08                	mov    (%rax),%ecx
    dc7e:	09 ca                	or     %ecx,%edx
    dc80:	89 10                	mov    %edx,(%rax)
    dc82:	48 8b 05 6f 28 01 00 	mov    0x1286f(%rip),%rax        # 204f8 <g_1268>
    dc89:	48 83 c0 01          	add    $0x1,%rax
    dc8d:	48 89 05 64 28 01 00 	mov    %rax,0x12864(%rip)        # 204f8 <g_1268>
    dc94:	48 8b 05 5d 28 01 00 	mov    0x1285d(%rip),%rax        # 204f8 <g_1268>
    dc9b:	48 83 f8 09          	cmp    $0x9,%rax
    dc9f:	0f 8e ef fd ff ff    	jle    da94 <func_2+0x1249>
    dca5:	83 ad 58 f7 ff ff 01 	subl   $0x1,-0x8a8(%rbp)
    dcac:	83 bd 58 f7 ff ff 00 	cmpl   $0x0,-0x8a8(%rbp)
    dcb3:	0f 8f 6f fd ff ff    	jg     da28 <func_2+0x11dd>
    dcb9:	c7 85 38 f7 ff ff 00 	movl   $0x0,-0x8c8(%rbp)
    dcc0:	00 00 00 
    dcc3:	e9 ba 02 00 00       	jmpq   df82 <func_2+0x1737>
    dcc8:	c7 85 c8 f7 ff ff 09 	movl   $0x9,-0x838(%rbp)
    dccf:	00 00 00 
    dcd2:	c7 85 68 f7 ff ff f7 	movl   $0xfffffff7,-0x898(%rbp)
    dcd9:	ff ff ff 
    dcdc:	48 8b 05 b5 68 01 00 	mov    0x168b5(%rip),%rax        # 24598 <g_402>
    dce3:	48 8b 95 70 f8 ff ff 	mov    -0x790(%rbp),%rdx
    dcea:	48 89 10             	mov    %rdx,(%rax)
    dced:	48 8b 05 fc 7b 01 00 	mov    0x17bfc(%rip),%rax        # 258f0 <g_2564>
    dcf4:	8b 10                	mov    (%rax),%edx
    dcf6:	48 8b 8d 08 fa ff ff 	mov    -0x5f8(%rbp),%rcx
    dcfd:	31 ca                	xor    %ecx,%edx
    dcff:	89 10                	mov    %edx,(%rax)
    dd01:	c7 85 54 f7 ff ff 00 	movl   $0x0,-0x8ac(%rbp)
    dd08:	00 00 00 
    dd0b:	e9 53 02 00 00       	jmpq   df63 <func_2+0x1718>
    dd10:	66 c7 85 26 f7 ff ff 	movw   $0xb51b,-0x8da(%rbp)
    dd17:	1b b5 
    dd19:	48 8d 85 34 f7 ff ff 	lea    -0x8cc(%rbp),%rax
    dd20:	48 89 85 f8 f8 ff ff 	mov    %rax,-0x708(%rbp)
    dd27:	48 c7 85 00 f9 ff ff 	movq   $0x0,-0x700(%rbp)
    dd2e:	00 00 00 00 
    dd32:	48 8b 05 ef 7a 01 00 	mov    0x17aef(%rip),%rax        # 25828 <g_1884>
    dd39:	8b 10                	mov    (%rax),%edx
    dd3b:	83 ca 09             	or     $0x9,%edx
    dd3e:	89 10                	mov    %edx,(%rax)
    dd40:	48 c7 85 08 f9 ff ff 	movq   $0x0,-0x6f8(%rbp)
    dd47:	00 00 00 00 
    dd4b:	48 c7 85 10 f9 ff ff 	movq   $0x0,-0x6f0(%rbp)
    dd52:	00 00 00 00 
    dd56:	48 8d 05 eb 22 01 00 	lea    0x122eb(%rip),%rax        # 20048 <g_105>
    dd5d:	48 89 85 18 f9 ff ff 	mov    %rax,-0x6e8(%rbp)
    dd64:	bf 16 da 21 04       	mov    $0x421da16,%edi
    dd69:	e8 28 b8 ff ff       	callq  9596 <safe_unary_minus_func_int32_t_s>
    dd6e:	89 85 40 f7 ff ff    	mov    %eax,-0x8c0(%rbp)
    dd74:	48 8b 85 08 f8 ff ff 	mov    -0x7f8(%rbp),%rax
    dd7b:	8b 10                	mov    (%rax),%edx
    dd7d:	48 8b 85 18 f9 ff ff 	mov    -0x6e8(%rbp),%rax
    dd84:	89 10                	mov    %edx,(%rax)
    dd86:	48 8b 85 18 f9 ff ff 	mov    -0x6e8(%rbp),%rax
    dd8d:	8b 00                	mov    (%rax),%eax
    dd8f:	89 85 c8 f7 ff ff    	mov    %eax,-0x838(%rbp)
    dd95:	48 8b 85 18 f9 ff ff 	mov    -0x6e8(%rbp),%rax
    dd9c:	c7 00 00 00 00 00    	movl   $0x0,(%rax)
    dda2:	48 8b 05 6f 77 01 00 	mov    0x1776f(%rip),%rax        # 25518 <g_1616>
    dda9:	0f b6 00             	movzbl (%rax),%eax
    ddac:	0f b6 c0             	movzbl %al,%eax
    ddaf:	be 06 00 00 00       	mov    $0x6,%esi
    ddb4:	89 c7                	mov    %eax,%edi
    ddb6:	e8 20 be ff ff       	callq  9bdb <safe_div_func_uint8_t_u_u>
    ddbb:	83 f0 fd             	xor    $0xfffffffd,%eax
    ddbe:	0f b6 d0             	movzbl %al,%edx
    ddc1:	48 8b 85 f8 f8 ff ff 	mov    -0x708(%rbp),%rax
    ddc8:	89 10                	mov    %edx,(%rax)
    ddca:	8b 85 28 f7 ff ff    	mov    -0x8d8(%rbp),%eax
    ddd0:	85 c0                	test   %eax,%eax
    ddd2:	74 1c                	je     ddf0 <func_2+0x15a5>
    ddd4:	48 8b 05 45 77 01 00 	mov    0x17745(%rip),%rax        # 25520 <g_1678>
    dddb:	8b 10                	mov    (%rax),%edx
    dddd:	8b 85 80 fc ff ff    	mov    -0x380(%rbp),%eax
    dde3:	21 d0                	and    %edx,%eax
    dde5:	89 85 80 fc ff ff    	mov    %eax,-0x380(%rbp)
    ddeb:	e9 6c 01 00 00       	jmpq   df5c <func_2+0x1711>
    ddf0:	48 c7 85 20 f9 ff ff 	movq   $0x1,-0x6e0(%rbp)
    ddf7:	01 00 00 00 
    ddfb:	48 83 bd 20 f9 ff ff 	cmpq   $0x0,-0x6e0(%rbp)
    de02:	00 
    de03:	0f 85 69 01 00 00    	jne    df72 <func_2+0x1727>
    de09:	48 8b 85 20 f9 ff ff 	mov    -0x6e0(%rbp),%rax
    de10:	0f be d8             	movsbl %al,%ebx
    de13:	4c 8b a5 20 f9 ff ff 	mov    -0x6e0(%rbp),%r12
    de1a:	48 8b 85 f8 f8 ff ff 	mov    -0x708(%rbp),%rax
    de21:	44 8b 28             	mov    (%rax),%r13d
    de24:	48 83 bd 20 f9 ff ff 	cmpq   $0x0,-0x6e0(%rbp)
    de2b:	00 
    de2c:	75 4d                	jne    de7b <func_2+0x1630>
    de2e:	48 8b 85 08 f8 ff ff 	mov    -0x7f8(%rbp),%rax
    de35:	8b 00                	mov    (%rax),%eax
    de37:	0f b7 c0             	movzwl %ax,%eax
    de3a:	89 c6                	mov    %eax,%esi
    de3c:	bf 22 aa 00 00       	mov    $0xaa22,%edi
    de41:	e8 16 bf ff ff       	callq  9d5c <safe_mod_func_uint16_t_u_u>
    de46:	89 c2                	mov    %eax,%edx
    de48:	0f b7 85 20 f7 ff ff 	movzwl -0x8e0(%rbp),%eax
    de4f:	09 d0                	or     %edx,%eax
    de51:	89 c2                	mov    %eax,%edx
    de53:	48 8b 05 c6 79 01 00 	mov    0x179c6(%rip),%rax        # 25820 <g_1831>
    de5a:	48 8b 00             	mov    (%rax),%rax
    de5d:	48 8b 00             	mov    (%rax),%rax
    de60:	21 d0                	and    %edx,%eax
    de62:	0f b6 d0             	movzbl %al,%edx
    de65:	8b 85 30 f7 ff ff    	mov    -0x8d0(%rbp),%eax
    de6b:	0f b6 c0             	movzbl %al,%eax
    de6e:	89 d6                	mov    %edx,%esi
    de70:	89 c7                	mov    %eax,%edi
    de72:	e8 1c bd ff ff       	callq  9b93 <safe_mul_func_uint8_t_u_u>
    de77:	84 c0                	test   %al,%al
    de79:	74 07                	je     de82 <func_2+0x1637>
    de7b:	b8 01 00 00 00       	mov    $0x1,%eax
    de80:	eb 05                	jmp    de87 <func_2+0x163c>
    de82:	b8 00 00 00 00       	mov    $0x0,%eax
    de87:	89 c6                	mov    %eax,%esi
    de89:	bf 00 00 00 00       	mov    $0x0,%edi
    de8e:	e8 ff b5 ff ff       	callq  9492 <safe_lshift_func_int16_t_s_s>
    de93:	44 89 ee             	mov    %r13d,%esi
    de96:	bf 01 00 00 00       	mov    $0x1,%edi
    de9b:	e8 ed bd ff ff       	callq  9c8d <safe_rshift_func_uint8_t_u_s>
    dea0:	0f b6 c0             	movzbl %al,%eax
    dea3:	be 03 00 00 00       	mov    $0x3,%esi
    dea8:	89 c7                	mov    %eax,%edi
    deaa:	e8 32 b6 ff ff       	callq  94e1 <safe_lshift_func_int16_t_s_u>
    deaf:	48 0f bf c0          	movswq %ax,%rax
    deb3:	48 89 c7             	mov    %rax,%rdi
    deb6:	e8 5b b9 ff ff       	callq  9816 <safe_unary_minus_func_int64_t_s>
    debb:	0f b7 c0             	movzwl %ax,%eax
    debe:	8b 95 c8 f7 ff ff    	mov    -0x838(%rbp),%edx
    dec4:	89 d6                	mov    %edx,%esi
    dec6:	89 c7                	mov    %eax,%edi
    dec8:	e8 7b bf ff ff       	callq  9e48 <safe_rshift_func_uint16_t_u_s>
    decd:	0f be c0             	movsbl %al,%eax
    ded0:	be 03 00 00 00       	mov    $0x3,%esi
    ded5:	89 c7                	mov    %eax,%edi
    ded7:	e8 c5 b3 ff ff       	callq  92a1 <safe_lshift_func_int8_t_s_s>
    dedc:	48 8b 85 08 fa ff ff 	mov    -0x5f8(%rbp),%rax
    dee3:	48 83 f8 01          	cmp    $0x1,%rax
    dee7:	74 07                	je     def0 <func_2+0x16a5>
    dee9:	b8 01 00 00 00       	mov    $0x1,%eax
    deee:	eb 05                	jmp    def5 <func_2+0x16aa>
    def0:	b8 00 00 00 00       	mov    $0x0,%eax
    def5:	0f b7 c0             	movzwl %ax,%eax
    def8:	be 0a 00 00 00       	mov    $0xa,%esi
    defd:	89 c7                	mov    %eax,%edi
    deff:	e8 02 bf ff ff       	callq  9e06 <safe_lshift_func_uint16_t_u_u>
    df04:	0f b7 c0             	movzwl %ax,%eax
    df07:	4c 89 e6             	mov    %r12,%rsi
    df0a:	48 89 c7             	mov    %rax,%rdi
    df0d:	e8 2f b9 ff ff       	callq  9841 <safe_add_func_int64_t_s_s>
    df12:	48 8b 15 e7 66 01 00 	mov    0x166e7(%rip),%rdx        # 24600 <g_548>
    df19:	0f b7 12             	movzwl (%rdx),%edx
    df1c:	31 c2                	xor    %eax,%edx
    df1e:	48 8b 05 db 66 01 00 	mov    0x166db(%rip),%rax        # 24600 <g_548>
    df25:	66 89 10             	mov    %dx,(%rax)
    df28:	48 83 bd 00 f9 ff ff 	cmpq   $0x0,-0x700(%rbp)
    df2f:	00 
    df30:	0f 95 c0             	setne  %al
    df33:	0f b6 c0             	movzbl %al,%eax
    df36:	89 de                	mov    %ebx,%esi
    df38:	89 c7                	mov    %eax,%edi
    df3a:	e8 d3 b2 ff ff       	callq  9212 <safe_mul_func_int8_t_s_s>
    df3f:	0f be c0             	movsbl %al,%eax
    df42:	be ff ff ff ff       	mov    $0xffffffff,%esi
    df47:	89 c7                	mov    %eax,%edi
    df49:	e8 af bf ff ff       	callq  9efd <safe_mod_func_uint32_t_u_u>
    df4e:	8b 95 68 f7 ff ff    	mov    -0x898(%rbp),%edx
    df54:	31 d0                	xor    %edx,%eax
    df56:	89 85 68 f7 ff ff    	mov    %eax,-0x898(%rbp)
    df5c:	83 85 54 f7 ff ff 01 	addl   $0x1,-0x8ac(%rbp)
    df63:	83 bd 54 f7 ff ff 00 	cmpl   $0x0,-0x8ac(%rbp)
    df6a:	0f 84 a0 fd ff ff    	je     dd10 <func_2+0x14c5>
    df70:	eb 01                	jmp    df73 <func_2+0x1728>
    df72:	90                   	nop
    df73:	8b 85 38 f7 ff ff    	mov    -0x8c8(%rbp),%eax
    df79:	83 c0 01             	add    $0x1,%eax
    df7c:	89 85 38 f7 ff ff    	mov    %eax,-0x8c8(%rbp)
    df82:	8b 85 38 f7 ff ff    	mov    -0x8c8(%rbp),%eax
    df88:	83 f8 04             	cmp    $0x4,%eax
    df8b:	0f 8e 37 fd ff ff    	jle    dcc8 <func_2+0x147d>
    df91:	8b 05 d9 22 01 00    	mov    0x122d9(%rip),%eax        # 20270 <g_220>
    df97:	83 c0 01             	add    $0x1,%eax
    df9a:	89 05 d0 22 01 00    	mov    %eax,0x122d0(%rip)        # 20270 <g_220>
    dfa0:	8b 05 ca 22 01 00    	mov    0x122ca(%rip),%eax        # 20270 <g_220>
    dfa6:	83 f8 04             	cmp    $0x4,%eax
    dfa9:	0f 86 e5 f2 ff ff    	jbe    d294 <func_2+0xa49>
    dfaf:	48 8d 05 62 78 01 00 	lea    0x17862(%rip),%rax        # 25818 <g_1832>
    dfb6:	48 39 85 78 f8 ff ff 	cmp    %rax,-0x788(%rbp)
    dfbd:	0f 95 c0             	setne  %al
    dfc0:	0f b6 d8             	movzbl %al,%ebx
    dfc3:	48 8b 15 d6 65 01 00 	mov    0x165d6(%rip),%rdx        # 245a0 <g_458>
    dfca:	8b 02                	mov    (%rdx),%eax
    dfcc:	8d 48 ff             	lea    -0x1(%rax),%ecx
    dfcf:	89 0a                	mov    %ecx,(%rdx)
    dfd1:	48 8b 95 80 f8 ff ff 	mov    -0x780(%rbp),%rdx
    dfd8:	89 02                	mov    %eax,(%rdx)
    dfda:	48 8b 85 80 f8 ff ff 	mov    -0x780(%rbp),%rax
    dfe1:	8b 10                	mov    (%rax),%edx
    dfe3:	48 8b 85 88 f8 ff ff 	mov    -0x778(%rbp),%rax
    dfea:	89 10                	mov    %edx,(%rax)
    dfec:	48 8b 85 38 fa ff ff 	mov    -0x5c8(%rbp),%rax
    dff3:	41 89 c5             	mov    %eax,%r13d
    dff6:	8b 85 40 f7 ff ff    	mov    -0x8c0(%rbp),%eax
    dffc:	89 85 30 f7 ff ff    	mov    %eax,-0x8d0(%rbp)
    e002:	8b 85 30 f7 ff ff    	mov    -0x8d0(%rbp),%eax
    e008:	85 c0                	test   %eax,%eax
    e00a:	0f 9f c0             	setg   %al
    e00d:	44 0f b6 e0          	movzbl %al,%r12d
    e011:	8b 85 80 fc ff ff    	mov    -0x380(%rbp),%eax
    e017:	0f b6 c0             	movzbl %al,%eax
    e01a:	be 03 00 00 00       	mov    $0x3,%esi
    e01f:	89 c7                	mov    %eax,%edi
    e021:	e8 df bb ff ff       	callq  9c05 <safe_lshift_func_uint8_t_u_s>
    e026:	84 c0                	test   %al,%al
    e028:	75 3b                	jne    e065 <func_2+0x181a>
    e02a:	0f b6 95 1f f7 ff ff 	movzbl -0x8e1(%rbp),%edx
    e031:	48 8b 05 e0 77 01 00 	mov    0x177e0(%rip),%rax        # 25818 <g_1832>
    e038:	48 8b 00             	mov    (%rax),%rax
    e03b:	48 89 d6             	mov    %rdx,%rsi
    e03e:	48 89 c7             	mov    %rax,%rdi
    e041:	e8 fb b7 ff ff       	callq  9841 <safe_add_func_int64_t_s_s>
    e046:	89 c2                	mov    %eax,%edx
    e048:	8b 85 2c f7 ff ff    	mov    -0x8d4(%rbp),%eax
    e04e:	0f b6 c0             	movzbl %al,%eax
    e051:	89 d6                	mov    %edx,%esi
    e053:	89 c7                	mov    %eax,%edi
    e055:	e8 ab bb ff ff       	callq  9c05 <safe_lshift_func_uint8_t_u_s>
    e05a:	0f b6 85 d8 f7 ff ff 	movzbl -0x828(%rbp),%eax
    e061:	84 c0                	test   %al,%al
    e063:	74 07                	je     e06c <func_2+0x1821>
    e065:	ba 01 00 00 00       	mov    $0x1,%edx
    e06a:	eb 05                	jmp    e071 <func_2+0x1826>
    e06c:	ba 00 00 00 00       	mov    $0x0,%edx
    e071:	8b 85 80 fc ff ff    	mov    -0x380(%rbp),%eax
    e077:	39 c2                	cmp    %eax,%edx
    e079:	0f 95 c0             	setne  %al
    e07c:	0f b6 c0             	movzbl %al,%eax
    e07f:	89 85 80 fc ff ff    	mov    %eax,-0x380(%rbp)
    e085:	8b 85 80 fc ff ff    	mov    -0x380(%rbp),%eax
    e08b:	41 39 c4             	cmp    %eax,%r12d
    e08e:	0f 95 c2             	setne  %dl
    e091:	48 8b 05 70 65 01 00 	mov    0x16570(%rip),%rax        # 24608 <g_547>
    e098:	48 8b 00             	mov    (%rax),%rax
    e09b:	0f b6 d2             	movzbl %dl,%edx
    e09e:	66 89 10             	mov    %dx,(%rax)
    e0a1:	0f b7 00             	movzwl (%rax),%eax
    e0a4:	0f b7 c0             	movzwl %ax,%eax
    e0a7:	44 89 ee             	mov    %r13d,%esi
    e0aa:	89 c7                	mov    %eax,%edi
    e0ac:	e8 0d bd ff ff       	callq  9dbe <safe_lshift_func_uint16_t_u_s>
    e0b1:	0f b7 c0             	movzwl %ax,%eax
    e0b4:	ba ff ff ff ff       	mov    $0xffffffff,%edx
    e0b9:	48 31 d0             	xor    %rdx,%rax
    e0bc:	48 be 4b 6b 30 11 ca 	movabs $0x2073e9ca11306b4b,%rsi
    e0c3:	e9 73 20 
    e0c6:	48 89 c7             	mov    %rax,%rdi
    e0c9:	e8 da b7 ff ff       	callq  98a8 <safe_sub_func_int64_t_s_s>
    e0ce:	48 09 d8             	or     %rbx,%rax
    e0d1:	48 85 c0             	test   %rax,%rax
    e0d4:	74 23                	je     e0f9 <func_2+0x18ae>
    e0d6:	c6 05 4b 2f 01 00 13 	movb   $0x13,0x12f4b(%rip)        # 21028 <g_1981>
    e0dd:	90                   	nop
    e0de:	0f b6 05 43 2f 01 00 	movzbl 0x12f43(%rip),%eax        # 21028 <g_1981>
    e0e5:	3c 01                	cmp    $0x1,%al
    e0e7:	0f 84 68 04 00 00    	je     e555 <func_2+0x1d0a>
    e0ed:	48 8b 85 38 fa ff ff 	mov    -0x5c8(%rbp),%rax
    e0f4:	e9 69 06 00 00       	jmpq   e762 <func_2+0x1f17>
    e0f9:	8b 85 28 f7 ff ff    	mov    -0x8d8(%rbp),%eax
    e0ff:	e9 5e 06 00 00       	jmpq   e762 <func_2+0x1f17>
    e104:	48 8d 05 95 64 01 00 	lea    0x16495(%rip),%rax        # 245a0 <g_458>
    e10b:	48 89 85 00 f8 ff ff 	mov    %rax,-0x800(%rbp)
    e112:	48 8d 85 00 f8 ff ff 	lea    -0x800(%rbp),%rax
    e119:	48 89 85 50 fe ff ff 	mov    %rax,-0x1b0(%rbp)
    e120:	48 8d 85 00 f8 ff ff 	lea    -0x800(%rbp),%rax
    e127:	48 89 85 58 fe ff ff 	mov    %rax,-0x1a8(%rbp)
    e12e:	48 8d 85 00 f8 ff ff 	lea    -0x800(%rbp),%rax
    e135:	48 89 85 60 fe ff ff 	mov    %rax,-0x1a0(%rbp)
    e13c:	48 8d 85 00 f8 ff ff 	lea    -0x800(%rbp),%rax
    e143:	48 89 85 68 fe ff ff 	mov    %rax,-0x198(%rbp)
    e14a:	48 8d 85 00 f8 ff ff 	lea    -0x800(%rbp),%rax
    e151:	48 89 85 70 fe ff ff 	mov    %rax,-0x190(%rbp)
    e158:	48 8d 85 00 f8 ff ff 	lea    -0x800(%rbp),%rax
    e15f:	48 89 85 78 fe ff ff 	mov    %rax,-0x188(%rbp)
    e166:	48 8d 85 00 f8 ff ff 	lea    -0x800(%rbp),%rax
    e16d:	48 89 85 80 fe ff ff 	mov    %rax,-0x180(%rbp)
    e174:	48 8d 85 00 f8 ff ff 	lea    -0x800(%rbp),%rax
    e17b:	48 89 85 88 fe ff ff 	mov    %rax,-0x178(%rbp)
    e182:	48 8d 85 00 f8 ff ff 	lea    -0x800(%rbp),%rax
    e189:	48 89 85 90 fe ff ff 	mov    %rax,-0x170(%rbp)
    e190:	48 8d 85 00 f8 ff ff 	lea    -0x800(%rbp),%rax
    e197:	48 89 85 98 fe ff ff 	mov    %rax,-0x168(%rbp)
    e19e:	48 c7 85 a0 fe ff ff 	movq   $0x0,-0x160(%rbp)
    e1a5:	00 00 00 00 
    e1a9:	48 8d 85 00 f8 ff ff 	lea    -0x800(%rbp),%rax
    e1b0:	48 89 85 a8 fe ff ff 	mov    %rax,-0x158(%rbp)
    e1b7:	48 c7 85 b0 fe ff ff 	movq   $0x0,-0x150(%rbp)
    e1be:	00 00 00 00 
    e1c2:	48 8d 85 00 f8 ff ff 	lea    -0x800(%rbp),%rax
    e1c9:	48 89 85 b8 fe ff ff 	mov    %rax,-0x148(%rbp)
    e1d0:	48 c7 85 c0 fe ff ff 	movq   $0x0,-0x140(%rbp)
    e1d7:	00 00 00 00 
    e1db:	48 8d 85 00 f8 ff ff 	lea    -0x800(%rbp),%rax
    e1e2:	48 89 85 c8 fe ff ff 	mov    %rax,-0x138(%rbp)
    e1e9:	48 c7 85 d0 fe ff ff 	movq   $0x0,-0x130(%rbp)
    e1f0:	00 00 00 00 
    e1f4:	48 8d 85 00 f8 ff ff 	lea    -0x800(%rbp),%rax
    e1fb:	48 89 85 d8 fe ff ff 	mov    %rax,-0x128(%rbp)
    e202:	48 c7 85 e0 fe ff ff 	movq   $0x0,-0x120(%rbp)
    e209:	00 00 00 00 
    e20d:	48 8d 85 00 f8 ff ff 	lea    -0x800(%rbp),%rax
    e214:	48 89 85 e8 fe ff ff 	mov    %rax,-0x118(%rbp)
    e21b:	48 8d 85 00 f8 ff ff 	lea    -0x800(%rbp),%rax
    e222:	48 89 85 f0 fe ff ff 	mov    %rax,-0x110(%rbp)
    e229:	48 8d 85 00 f8 ff ff 	lea    -0x800(%rbp),%rax
    e230:	48 89 85 f8 fe ff ff 	mov    %rax,-0x108(%rbp)
    e237:	48 8d 85 00 f8 ff ff 	lea    -0x800(%rbp),%rax
    e23e:	48 89 85 00 ff ff ff 	mov    %rax,-0x100(%rbp)
    e245:	48 8d 85 00 f8 ff ff 	lea    -0x800(%rbp),%rax
    e24c:	48 89 85 08 ff ff ff 	mov    %rax,-0xf8(%rbp)
    e253:	48 8d 85 00 f8 ff ff 	lea    -0x800(%rbp),%rax
    e25a:	48 89 85 10 ff ff ff 	mov    %rax,-0xf0(%rbp)
    e261:	48 8d 85 00 f8 ff ff 	lea    -0x800(%rbp),%rax
    e268:	48 89 85 18 ff ff ff 	mov    %rax,-0xe8(%rbp)
    e26f:	48 8d 85 00 f8 ff ff 	lea    -0x800(%rbp),%rax
    e276:	48 89 85 20 ff ff ff 	mov    %rax,-0xe0(%rbp)
    e27d:	48 8d 85 00 f8 ff ff 	lea    -0x800(%rbp),%rax
    e284:	48 89 85 28 ff ff ff 	mov    %rax,-0xd8(%rbp)
    e28b:	48 8d 85 00 f8 ff ff 	lea    -0x800(%rbp),%rax
    e292:	48 89 85 30 ff ff ff 	mov    %rax,-0xd0(%rbp)
    e299:	48 8d 85 00 f8 ff ff 	lea    -0x800(%rbp),%rax
    e2a0:	48 89 85 38 ff ff ff 	mov    %rax,-0xc8(%rbp)
    e2a7:	48 c7 85 40 ff ff ff 	movq   $0x0,-0xc0(%rbp)
    e2ae:	00 00 00 00 
    e2b2:	48 8d 85 00 f8 ff ff 	lea    -0x800(%rbp),%rax
    e2b9:	48 89 85 48 ff ff ff 	mov    %rax,-0xb8(%rbp)
    e2c0:	48 c7 85 50 ff ff ff 	movq   $0x0,-0xb0(%rbp)
    e2c7:	00 00 00 00 
    e2cb:	48 8d 85 00 f8 ff ff 	lea    -0x800(%rbp),%rax
    e2d2:	48 89 85 58 ff ff ff 	mov    %rax,-0xa8(%rbp)
    e2d9:	48 c7 85 60 ff ff ff 	movq   $0x0,-0xa0(%rbp)
    e2e0:	00 00 00 00 
    e2e4:	48 8d 85 00 f8 ff ff 	lea    -0x800(%rbp),%rax
    e2eb:	48 89 85 68 ff ff ff 	mov    %rax,-0x98(%rbp)
    e2f2:	48 c7 85 70 ff ff ff 	movq   $0x0,-0x90(%rbp)
    e2f9:	00 00 00 00 
    e2fd:	48 8d 85 00 f8 ff ff 	lea    -0x800(%rbp),%rax
    e304:	48 89 85 78 ff ff ff 	mov    %rax,-0x88(%rbp)
    e30b:	48 c7 45 80 00 00 00 	movq   $0x0,-0x80(%rbp)
    e312:	00 
    e313:	48 8d 85 00 f8 ff ff 	lea    -0x800(%rbp),%rax
    e31a:	48 89 45 88          	mov    %rax,-0x78(%rbp)
    e31e:	c7 85 78 f7 ff ff 06 	movl   $0x6,-0x888(%rbp)
    e325:	00 00 00 
    e328:	48 8d 05 f9 2c 01 00 	lea    0x12cf9(%rip),%rax        # 21028 <g_1981>
    e32f:	48 89 85 40 f8 ff ff 	mov    %rax,-0x7c0(%rbp)
    e336:	66 c7 85 24 f7 ff ff 	movw   $0x9,-0x8dc(%rbp)
    e33d:	09 00 
    e33f:	48 8d 05 4a 20 01 00 	lea    0x1204a(%rip),%rax        # 20390 <g_432>
    e346:	48 89 85 48 f8 ff ff 	mov    %rax,-0x7b8(%rbp)
    e34d:	48 8d 05 00 1f 01 00 	lea    0x11f00(%rip),%rax        # 20254 <g_146>
    e354:	48 89 85 50 f8 ff ff 	mov    %rax,-0x7b0(%rbp)
    e35b:	48 8d 05 16 7a 01 00 	lea    0x17a16(%rip),%rax        # 25d78 <g_185>
    e362:	48 89 85 58 f8 ff ff 	mov    %rax,-0x7a8(%rbp)
    e369:	48 8d 05 f8 1e 01 00 	lea    0x11ef8(%rip),%rax        # 20268 <g_209>
    e370:	48 89 85 00 fc ff ff 	mov    %rax,-0x400(%rbp)
    e377:	48 8d 05 ea 1e 01 00 	lea    0x11eea(%rip),%rax        # 20268 <g_209>
    e37e:	48 89 85 08 fc ff ff 	mov    %rax,-0x3f8(%rbp)
    e385:	48 8d 05 dc 1e 01 00 	lea    0x11edc(%rip),%rax        # 20268 <g_209>
    e38c:	48 89 85 10 fc ff ff 	mov    %rax,-0x3f0(%rbp)
    e393:	48 8d 05 ce 1e 01 00 	lea    0x11ece(%rip),%rax        # 20268 <g_209>
    e39a:	48 89 85 18 fc ff ff 	mov    %rax,-0x3e8(%rbp)
    e3a1:	48 8d 05 c0 1e 01 00 	lea    0x11ec0(%rip),%rax        # 20268 <g_209>
    e3a8:	48 89 85 20 fc ff ff 	mov    %rax,-0x3e0(%rbp)
    e3af:	48 8d 05 b2 1e 01 00 	lea    0x11eb2(%rip),%rax        # 20268 <g_209>
    e3b6:	48 89 85 28 fc ff ff 	mov    %rax,-0x3d8(%rbp)
    e3bd:	8b 95 80 fb ff ff    	mov    -0x480(%rbp),%edx
    e3c3:	8b 85 28 f7 ff ff    	mov    -0x8d8(%rbp),%eax
    e3c9:	39 c2                	cmp    %eax,%edx
    e3cb:	0f 95 c0             	setne  %al
    e3ce:	0f b6 d8             	movzbl %al,%ebx
    e3d1:	48 8d 05 c8 61 01 00 	lea    0x161c8(%rip),%rax        # 245a0 <g_458>
    e3d8:	48 89 85 18 f8 ff ff 	mov    %rax,-0x7e8(%rbp)
    e3df:	be f6 fa ff ff       	mov    $0xfffffaf6,%esi
    e3e4:	bf 01 00 00 00       	mov    $0x1,%edi
    e3e9:	e8 28 b0 ff ff       	callq  9416 <safe_mod_func_int16_t_s_s>
    e3ee:	0f b6 c0             	movzbl %al,%eax
    e3f1:	be 07 00 00 00       	mov    $0x7,%esi
    e3f6:	89 c7                	mov    %eax,%edi
    e3f8:	e8 08 b8 ff ff       	callq  9c05 <safe_lshift_func_uint8_t_u_s>
    e3fd:	0f b6 c0             	movzbl %al,%eax
    e400:	89 de                	mov    %ebx,%esi
    e402:	89 c7                	mov    %eax,%edi
    e404:	e8 21 b1 ff ff       	callq  952a <safe_rshift_func_int16_t_s_s>
    e409:	44 0f bf f8          	movswl %ax,%r15d
    e40d:	8b 9d 2c f7 ff ff    	mov    -0x8d4(%rbp),%ebx
    e413:	8b 85 78 f7 ff ff    	mov    -0x888(%rbp),%eax
    e419:	44 0f b6 e0          	movzbl %al,%r12d
    e41d:	44 0f b7 ad 24 f7 ff 	movzwl -0x8dc(%rbp),%r13d
    e424:	ff 
    e425:	8b 85 78 f7 ff ff    	mov    -0x888(%rbp),%eax
    e42b:	44 0f bf f0          	movswl %ax,%r14d
    e42f:	8b 85 78 f7 ff ff    	mov    -0x888(%rbp),%eax
    e435:	48 63 d0             	movslq %eax,%rdx
    e438:	48 8d 85 e0 f7 ff ff 	lea    -0x820(%rbp),%rax
    e43f:	48 39 85 28 f8 ff ff 	cmp    %rax,-0x7d8(%rbp)
    e446:	0f 95 c0             	setne  %al
    e449:	0f b6 c0             	movzbl %al,%eax
    e44c:	48 89 d6             	mov    %rdx,%rsi
    e44f:	48 89 c7             	mov    %rax,%rdi
    e452:	e8 ea b3 ff ff       	callq  9841 <safe_add_func_int64_t_s_s>
    e457:	89 85 40 f7 ff ff    	mov    %eax,-0x8c0(%rbp)
    e45d:	8b 85 40 f7 ff ff    	mov    -0x8c0(%rbp),%eax
    e463:	0f be c0             	movsbl %al,%eax
    e466:	be 07 00 00 00       	mov    $0x7,%esi
    e46b:	89 c7                	mov    %eax,%edi
    e46d:	e8 c3 ae ff ff       	callq  9335 <safe_rshift_func_int8_t_s_s>
    e472:	84 c0                	test   %al,%al
    e474:	74 07                	je     e47d <func_2+0x1c32>
    e476:	b8 01 00 00 00       	mov    $0x1,%eax
    e47b:	eb 05                	jmp    e482 <func_2+0x1c37>
    e47d:	b8 00 00 00 00       	mov    $0x0,%eax
    e482:	89 c2                	mov    %eax,%edx
    e484:	48 8b 85 40 f8 ff ff 	mov    -0x7c0(%rbp),%rax
    e48b:	88 10                	mov    %dl,(%rax)
    e48d:	0f b6 85 d8 f7 ff ff 	movzbl -0x828(%rbp),%eax
    e494:	0f be c0             	movsbl %al,%eax
    e497:	44 89 f6             	mov    %r14d,%esi
    e49a:	89 c7                	mov    %eax,%edi
    e49c:	e8 b4 af ff ff       	callq  9455 <safe_div_func_int16_t_s_s>
    e4a1:	0f b7 c0             	movzwl %ax,%eax
    e4a4:	be 2f dd 00 00       	mov    $0xdd2f,%esi
    e4a9:	89 c7                	mov    %eax,%edi
    e4ab:	e8 4f b8 ff ff       	callq  9cff <safe_add_func_uint16_t_u_u>
    e4b0:	48 83 bd 20 f8 ff ff 	cmpq   $0x0,-0x7e0(%rbp)
    e4b7:	00 
    e4b8:	0f 95 c0             	setne  %al
    e4bb:	0f b6 c0             	movzbl %al,%eax
    e4be:	44 89 ee             	mov    %r13d,%esi
    e4c1:	89 c7                	mov    %eax,%edi
    e4c3:	e8 5d ba ff ff       	callq  9f25 <safe_div_func_uint32_t_u_u>
    e4c8:	0f b6 c0             	movzbl %al,%eax
    e4cb:	44 89 e6             	mov    %r12d,%esi
    e4ce:	89 c7                	mov    %eax,%edi
    e4d0:	e8 85 b6 ff ff       	callq  9b5a <safe_add_func_uint8_t_u_u>
    e4d5:	0f b6 c0             	movzbl %al,%eax
    e4d8:	89 de                	mov    %ebx,%esi
    e4da:	89 c7                	mov    %eax,%edi
    e4dc:	e8 67 b9 ff ff       	callq  9e48 <safe_rshift_func_uint16_t_u_s>
    e4e1:	66 85 c0             	test   %ax,%ax
    e4e4:	74 07                	je     e4ed <func_2+0x1ca2>
    e4e6:	b8 01 00 00 00       	mov    $0x1,%eax
    e4eb:	eb 05                	jmp    e4f2 <func_2+0x1ca7>
    e4ed:	b8 00 00 00 00       	mov    $0x0,%eax
    e4f2:	44 39 f8             	cmp    %r15d,%eax
    e4f5:	0f 9d c0             	setge  %al
    e4f8:	0f b6 c0             	movzbl %al,%eax
    e4fb:	be b1 00 00 00       	mov    $0xb1,%esi
    e500:	89 c7                	mov    %eax,%edi
    e502:	e8 8c b6 ff ff       	callq  9b93 <safe_mul_func_uint8_t_u_u>
    e507:	0f b6 c8             	movzbl %al,%ecx
    e50a:	48 8b 05 67 73 01 00 	mov    0x17367(%rip),%rax        # 25878 <g_2304>
    e511:	48 8b 10             	mov    (%rax),%rdx
    e514:	48 8b 02             	mov    (%rdx),%rax
    e517:	48 8d 70 01          	lea    0x1(%rax),%rsi
    e51b:	48 89 32             	mov    %rsi,(%rdx)
    e51e:	48 89 ce             	mov    %rcx,%rsi
    e521:	48 89 c7             	mov    %rax,%rdi
    e524:	e8 05 bb ff ff       	callq  a02e <safe_add_func_uint64_t_u_u>
    e529:	48 85 c0             	test   %rax,%rax
    e52c:	b8 01 00 00 00       	mov    $0x1,%eax
    e531:	09 85 44 f7 ff ff    	or     %eax,-0x8bc(%rbp)
    e537:	0f b7 85 22 f7 ff ff 	movzwl -0x8de(%rbp),%eax
    e53e:	83 e8 01             	sub    $0x1,%eax
    e541:	66 89 85 22 f7 ff ff 	mov    %ax,-0x8de(%rbp)
    e548:	48 8b 85 48 f8 ff ff 	mov    -0x7b8(%rbp),%rax
    e54f:	c7 00 ff ff ff ff    	movl   $0xffffffff,(%rax)
    e555:	48 8b 85 38 fa ff ff 	mov    -0x5c8(%rbp),%rax
    e55c:	41 89 c4             	mov    %eax,%r12d
    e55f:	8b 85 6c f7 ff ff    	mov    -0x894(%rbp),%eax
    e565:	0f b6 d8             	movzbl %al,%ebx
    e568:	8b 85 7c fb ff ff    	mov    -0x484(%rbp),%eax
    e56e:	8b 95 44 f7 ff ff    	mov    -0x8bc(%rbp),%edx
    e574:	89 d6                	mov    %edx,%esi
    e576:	89 c7                	mov    %eax,%edi
    e578:	e8 82 b1 ff ff       	callq  96ff <safe_div_func_int32_t_s_s>
    e57d:	85 c0                	test   %eax,%eax
    e57f:	0f 95 c0             	setne  %al
    e582:	0f b6 d0             	movzbl %al,%edx
    e585:	48 8b 05 fc 72 01 00 	mov    0x172fc(%rip),%rax        # 25888 <g_2302>
    e58c:	48 8b 00             	mov    (%rax),%rax
    e58f:	48 8b 00             	mov    (%rax),%rax
    e592:	48 8b 00             	mov    (%rax),%rax
    e595:	48 8b 08             	mov    (%rax),%rcx
    e598:	48 63 d2             	movslq %edx,%rdx
    e59b:	48 8b 05 e6 72 01 00 	mov    0x172e6(%rip),%rax        # 25888 <g_2302>
    e5a2:	48 8b 00             	mov    (%rax),%rax
    e5a5:	48 8b 00             	mov    (%rax),%rax
    e5a8:	48 8b 00             	mov    (%rax),%rax
    e5ab:	48 31 ca             	xor    %rcx,%rdx
    e5ae:	48 89 10             	mov    %rdx,(%rax)
    e5b1:	48 8b 85 38 fa ff ff 	mov    -0x5c8(%rbp),%rax
    e5b8:	98                   	cwtl   
    e5b9:	be f7 60 00 00       	mov    $0x60f7,%esi
    e5be:	89 c7                	mov    %eax,%edi
    e5c0:	e8 51 ae ff ff       	callq  9416 <safe_mod_func_int16_t_s_s>
    e5c5:	8b 8d 44 f7 ff ff    	mov    -0x8bc(%rbp),%ecx
    e5cb:	48 8b 95 30 fa ff ff 	mov    -0x5d0(%rbp),%rdx
    e5d2:	48 8b 85 30 f8 ff ff 	mov    -0x7d0(%rbp),%rax
    e5d9:	0f b6 00             	movzbl (%rax),%eax
    e5dc:	21 c1                	and    %eax,%ecx
    e5de:	48 8b 85 30 f8 ff ff 	mov    -0x7d0(%rbp),%rax
    e5e5:	88 08                	mov    %cl,(%rax)
    e5e7:	48 8b 85 30 f8 ff ff 	mov    -0x7d0(%rbp),%rax
    e5ee:	0f b6 00             	movzbl (%rax),%eax
    e5f1:	48 0f be c0          	movsbq %al,%rax
    e5f5:	48 39 c2             	cmp    %rax,%rdx
    e5f8:	0f 94 c0             	sete   %al
    e5fb:	0f b6 c0             	movzbl %al,%eax
    e5fe:	89 de                	mov    %ebx,%esi
    e600:	89 c7                	mov    %eax,%edi
    e602:	e8 d4 b5 ff ff       	callq  9bdb <safe_div_func_uint8_t_u_u>
    e607:	0f b6 c0             	movzbl %al,%eax
    e60a:	44 89 e6             	mov    %r12d,%esi
    e60d:	89 c7                	mov    %eax,%edi
    e60f:	e8 16 af ff ff       	callq  952a <safe_rshift_func_int16_t_s_s>
    e614:	c7 85 28 f7 ff ff b5 	movl   $0xb5,-0x8d8(%rbp)
    e61b:	00 00 00 
    e61e:	48 8b 85 38 fa ff ff 	mov    -0x5c8(%rbp),%rax
    e625:	0f be c0             	movsbl %al,%eax
    e628:	be b5 ff ff ff       	mov    $0xffffffb5,%esi
    e62d:	89 c7                	mov    %eax,%edi
    e62f:	e8 de ab ff ff       	callq  9212 <safe_mul_func_int8_t_s_s>
    e634:	48 0f be c0          	movsbq %al,%rax
    e638:	48 89 c7             	mov    %rax,%rdi
    e63b:	e8 d6 b1 ff ff       	callq  9816 <safe_unary_minus_func_int64_t_s>
    e640:	25 1b 2a 6a d1       	and    $0xd16a2a1b,%eax
    e645:	48 83 f8 06          	cmp    $0x6,%rax
    e649:	0f 95 c0             	setne  %al
    e64c:	0f b6 c0             	movzbl %al,%eax
    e64f:	89 85 60 fb ff ff    	mov    %eax,-0x4a0(%rbp)
    e655:	48 c7 05 00 1c 01 00 	movq   $0x0,0x11c00(%rip)        # 20260 <g_203>
    e65c:	00 00 00 00 
    e660:	e9 e3 00 00 00       	jmpq   e748 <func_2+0x1efd>
    e665:	48 b8 d4 fd d4 fd d4 	movabs $0xfdd4fdd4fdd4fdd4,%rax
    e66c:	fd d4 fd 
    e66f:	48 89 45 bf          	mov    %rax,-0x41(%rbp)
    e673:	c6 45 c7 d4          	movb   $0xd4,-0x39(%rbp)
    e677:	48 8d 05 ea 5c 01 00 	lea    0x15cea(%rip),%rax        # 24368 <g_178+0x8>
    e67e:	48 89 85 00 f8 ff ff 	mov    %rax,-0x800(%rbp)
    e685:	48 8d 85 00 f8 ff ff 	lea    -0x800(%rbp),%rax
    e68c:	48 89 85 50 f9 ff ff 	mov    %rax,-0x6b0(%rbp)
    e693:	48 8d 05 29 1c 01 00 	lea    0x11c29(%rip),%rax        # 202c3 <g_284+0x3>
    e69a:	48 89 85 58 f9 ff ff 	mov    %rax,-0x6a8(%rbp)
    e6a1:	c7 85 d0 f7 ff ff fd 	movl   $0xfffffffd,-0x830(%rbp)
    e6a8:	ff ff ff 
    e6ab:	48 8d 05 46 1e 01 00 	lea    0x11e46(%rip),%rax        # 204f8 <g_1268>
    e6b2:	48 89 85 60 f9 ff ff 	mov    %rax,-0x6a0(%rbp)
    e6b9:	48 8d 05 90 71 01 00 	lea    0x17190(%rip),%rax        # 25850 <g_2076>
    e6c0:	48 89 85 68 f9 ff ff 	mov    %rax,-0x698(%rbp)
    e6c7:	48 8d 85 2c f7 ff ff 	lea    -0x8d4(%rbp),%rax
    e6ce:	48 89 85 50 fe ff ff 	mov    %rax,-0x1b0(%rbp)
    e6d5:	48 8d 85 2c f7 ff ff 	lea    -0x8d4(%rbp),%rax
    e6dc:	48 89 85 58 fe ff ff 	mov    %rax,-0x1a8(%rbp)
    e6e3:	48 8d 85 2c f7 ff ff 	lea    -0x8d4(%rbp),%rax
    e6ea:	48 89 85 60 fe ff ff 	mov    %rax,-0x1a0(%rbp)
    e6f1:	48 8d 85 2c f7 ff ff 	lea    -0x8d4(%rbp),%rax
    e6f8:	48 89 85 68 fe ff ff 	mov    %rax,-0x198(%rbp)
    e6ff:	48 8d 85 2c f7 ff ff 	lea    -0x8d4(%rbp),%rax
    e706:	48 89 85 70 fe ff ff 	mov    %rax,-0x190(%rbp)
    e70d:	48 c7 85 70 f9 ff ff 	movq   $0x0,-0x690(%rbp)
    e714:	00 00 00 00 
    e718:	48 c7 85 78 f9 ff ff 	movq   $0x1,-0x688(%rbp)
    e71f:	01 00 00 00 
    e723:	c7 85 d4 f7 ff ff 1e 	movl   $0x2866581e,-0x82c(%rbp)
    e72a:	58 66 28 
    e72d:	48 8b 05 2c 1b 01 00 	mov    0x11b2c(%rip),%rax        # 20260 <g_203>
    e734:	be 01 00 00 00       	mov    $0x1,%esi
    e739:	48 89 c7             	mov    %rax,%rdi
    e73c:	e8 0a b9 ff ff       	callq  a04b <safe_sub_func_uint64_t_u_u>
    e741:	48 89 05 18 1b 01 00 	mov    %rax,0x11b18(%rip)        # 20260 <g_203>
    e748:	48 8b 05 11 1b 01 00 	mov    0x11b11(%rip),%rax        # 20260 <g_203>
    e74f:	48 83 f8 e8          	cmp    $0xffffffffffffffe8,%rax
    e753:	0f 8c 0c ff ff ff    	jl     e665 <func_2+0x1e1a>
    e759:	48 8b 85 38 f8 ff ff 	mov    -0x7c8(%rbp),%rax
    e760:	8b 00                	mov    (%rax),%eax
    e762:	48 8b 5d c8          	mov    -0x38(%rbp),%rbx
    e766:	64 48 33 1c 25 28 00 	xor    %fs:0x28,%rbx
    e76d:	00 00 
    e76f:	74 05                	je     e776 <func_2+0x1f2b>
    e771:	e8 fa a8 ff ff       	callq  9070 <__stack_chk_fail@plt>
    e776:	48 81 c4 d8 08 00 00 	add    $0x8d8,%rsp
    e77d:	5b                   	pop    %rbx
    e77e:	41 5c                	pop    %r12
    e780:	41 5d                	pop    %r13
    e782:	41 5e                	pop    %r14
    e784:	41 5f                	pop    %r15
    e786:	5d                   	pop    %rbp
    e787:	c3                   	retq   

000000000000e788 <func_4>:
    e788:	f3 0f 1e fa          	endbr64 
    e78c:	55                   	push   %rbp
    e78d:	48 89 e5             	mov    %rsp,%rbp
    e790:	48 81 ec 00 10 00 00 	sub    $0x1000,%rsp
    e797:	48 83 0c 24 00       	orq    $0x0,(%rsp)
    e79c:	48 81 ec 20 07 00 00 	sub    $0x720,%rsp
    e7a3:	48 89 bd e8 e8 ff ff 	mov    %rdi,-0x1718(%rbp)
    e7aa:	89 b5 e4 e8 ff ff    	mov    %esi,-0x171c(%rbp)
    e7b0:	89 d0                	mov    %edx,%eax
    e7b2:	88 85 e0 e8 ff ff    	mov    %al,-0x1720(%rbp)
    e7b8:	64 48 8b 04 25 28 00 	mov    %fs:0x28,%rax
    e7bf:	00 00 
    e7c1:	48 89 45 f8          	mov    %rax,-0x8(%rbp)
    e7c5:	31 c0                	xor    %eax,%eax
    e7c7:	66 c7 85 04 e9 ff ff 	movw   $0xef84,-0x16fc(%rbp)
    e7ce:	84 ef 
    e7d0:	c7 85 20 e9 ff ff 11 	movl   $0x51efb411,-0x16e0(%rbp)
    e7d7:	b4 ef 51 
    e7da:	c7 85 24 e9 ff ff c5 	movl   $0xe94e60c5,-0x16dc(%rbp)
    e7e1:	60 4e e9 
    e7e4:	48 8d 05 4d 18 01 00 	lea    0x1184d(%rip),%rax        # 20038 <g_61>
    e7eb:	48 89 85 48 e9 ff ff 	mov    %rax,-0x16b8(%rbp)
    e7f2:	48 b8 b3 65 fe 56 47 	movabs $0xba24914756fe65b3,%rax
    e7f9:	91 24 ba 
    e7fc:	48 89 85 50 e9 ff ff 	mov    %rax,-0x16b0(%rbp)
    e803:	48 8d 05 8e 1b 01 00 	lea    0x11b8e(%rip),%rax        # 20398 <g_432+0x8>
    e80a:	48 89 85 b0 e9 ff ff 	mov    %rax,-0x1650(%rbp)
    e811:	48 8d 05 e0 1c 01 00 	lea    0x11ce0(%rip),%rax        # 204f8 <g_1268>
    e818:	48 89 85 b8 e9 ff ff 	mov    %rax,-0x1648(%rbp)
    e81f:	48 8d 05 92 64 01 00 	lea    0x16492(%rip),%rax        # 24cb8 <g_1534>
    e826:	48 89 85 c0 e9 ff ff 	mov    %rax,-0x1640(%rbp)
    e82d:	c7 85 08 e9 ff ff e9 	movl   $0xf6f04ce9,-0x16f8(%rbp)
    e834:	4c f0 f6 
    e837:	48 b8 c9 ec 73 23 ed 	movabs $0x35f923ed2373ecc9,%rax
    e83e:	23 f9 35 
    e841:	48 89 85 c8 e9 ff ff 	mov    %rax,-0x1638(%rbp)
    e848:	48 8d 05 9d 1b 01 00 	lea    0x11b9d(%rip),%rax        # 203ec <g_829>
    e84f:	48 89 85 58 e9 ff ff 	mov    %rax,-0x16a8(%rbp)
    e856:	c7 85 28 e9 ff ff fe 	movl   $0xfffffffe,-0x16d8(%rbp)
    e85d:	ff ff ff 
    e860:	c7 85 0c e9 ff ff a7 	movl   $0x3a4c84a7,-0x16f4(%rbp)
    e867:	84 4c 3a 
    e86a:	48 c7 85 d0 e9 ff ff 	movq   $0x0,-0x1630(%rbp)
    e871:	00 00 00 00 
    e875:	48 8d 05 b4 17 01 00 	lea    0x117b4(%rip),%rax        # 20030 <g_58>
    e87c:	48 89 85 d8 e9 ff ff 	mov    %rax,-0x1628(%rbp)
    e883:	66 c7 85 06 e9 ff ff 	movw   $0xf186,-0x16fa(%rbp)
    e88a:	86 f1 
    e88c:	48 b8 a5 97 09 45 a8 	movabs $0x8da29da8450997a5,%rax
    e893:	9d a2 8d 
    e896:	48 89 85 e0 e9 ff ff 	mov    %rax,-0x1620(%rbp)
    e89d:	48 c7 85 e8 e9 ff ff 	movq   $0x1,-0x1618(%rbp)
    e8a4:	01 00 00 00 
    e8a8:	c7 85 2c e9 ff ff 01 	movl   $0x1,-0x16d4(%rbp)
    e8af:	00 00 00 
    e8b2:	48 8d 85 90 ed ff ff 	lea    -0x1270(%rbp),%rax
    e8b9:	48 8d 15 60 38 01 00 	lea    0x13860(%rip),%rdx        # 22120 <g_2982+0x190>
    e8c0:	b9 48 00 00 00       	mov    $0x48,%ecx
    e8c5:	48 89 c7             	mov    %rax,%rdi
    e8c8:	48 89 d6             	mov    %rdx,%rsi
    e8cb:	f3 48 a5             	rep movsq %ds:(%rsi),%es:(%rdi)
    e8ce:	48 8d 85 90 ed ff ff 	lea    -0x1270(%rbp),%rax
    e8d5:	48 05 68 01 00 00    	add    $0x168,%rax
    e8db:	48 89 85 f0 e9 ff ff 	mov    %rax,-0x1610(%rbp)
    e8e2:	48 8d 85 50 e9 ff ff 	lea    -0x16b0(%rbp),%rax
    e8e9:	48 89 85 f8 e9 ff ff 	mov    %rax,-0x1608(%rbp)
    e8f0:	48 c7 85 00 ea ff ff 	movq   $0x0,-0x1600(%rbp)
    e8f7:	00 00 00 00 
    e8fb:	48 b8 d3 98 2e 1f c4 	movabs $0xefcc65c41f2e98d3,%rax
    e902:	65 cc ef 
    e905:	48 89 85 08 ea ff ff 	mov    %rax,-0x15f8(%rbp)
    e90c:	48 8d 05 65 6f 01 00 	lea    0x16f65(%rip),%rax        # 25878 <g_2304>
    e913:	48 89 85 10 ea ff ff 	mov    %rax,-0x15f0(%rbp)
    e91a:	c7 85 30 e9 ff ff 23 	movl   $0xc5992523,-0x16d0(%rbp)
    e921:	25 99 c5 
    e924:	c7 85 34 e9 ff ff 9e 	movl   $0xecee319e,-0x16cc(%rbp)
    e92b:	31 ee ec 
    e92e:	c6 85 ff e8 ff ff eb 	movb   $0xeb,-0x1701(%rbp)
    e935:	c7 85 38 e9 ff ff 00 	movl   $0x0,-0x16c8(%rbp)
    e93c:	00 00 00 
    e93f:	eb 4d                	jmp    e98e <func_4+0x206>
    e941:	c7 85 40 e9 ff ff 00 	movl   $0x0,-0x16c0(%rbp)
    e948:	00 00 00 
    e94b:	eb 31                	jmp    e97e <func_4+0x1f6>
    e94d:	8b 85 40 e9 ff ff    	mov    -0x16c0(%rbp),%eax
    e953:	48 63 c8             	movslq %eax,%rcx
    e956:	8b 85 38 e9 ff ff    	mov    -0x16c8(%rbp),%eax
    e95c:	48 63 d0             	movslq %eax,%rdx
    e95f:	48 89 d0             	mov    %rdx,%rax
    e962:	48 c1 e0 02          	shl    $0x2,%rax
    e966:	48 01 d0             	add    %rdx,%rax
    e969:	48 01 c8             	add    %rcx,%rax
    e96c:	c7 84 85 60 ea ff ff 	movl   $0x49e41312,-0x15a0(%rbp,%rax,4)
    e973:	12 13 e4 49 
    e977:	83 85 40 e9 ff ff 01 	addl   $0x1,-0x16c0(%rbp)
    e97e:	83 bd 40 e9 ff ff 04 	cmpl   $0x4,-0x16c0(%rbp)
    e985:	7e c6                	jle    e94d <func_4+0x1c5>
    e987:	83 85 38 e9 ff ff 01 	addl   $0x1,-0x16c8(%rbp)
    e98e:	83 bd 38 e9 ff ff 00 	cmpl   $0x0,-0x16c8(%rbp)
    e995:	7e aa                	jle    e941 <func_4+0x1b9>
    e997:	66 c7 85 04 e9 ff ff 	movw   $0x508f,-0x16fc(%rbp)
    e99e:	8f 50 
    e9a0:	48 b8 cd 21 2e e6 c4 	movabs $0xb3a306c4e62e21cd,%rax
    e9a7:	06 a3 b3 
    e9aa:	48 89 85 60 e9 ff ff 	mov    %rax,-0x16a0(%rbp)
    e9b1:	c7 85 3c e9 ff ff d9 	movl   $0x1c1ef8d9,-0x16c4(%rbp)
    e9b8:	f8 1e 1c 
    e9bb:	48 c7 85 68 e9 ff ff 	movq   $0x1,-0x1698(%rbp)
    e9c2:	01 00 00 00 
    e9c6:	48 8d 05 a3 5c 01 00 	lea    0x15ca3(%rip),%rax        # 24670 <g_766>
    e9cd:	48 89 85 70 e9 ff ff 	mov    %rax,-0x1690(%rbp)
    e9d4:	48 8d 85 70 e9 ff ff 	lea    -0x1690(%rbp),%rax
    e9db:	48 89 85 c0 ea ff ff 	mov    %rax,-0x1540(%rbp)
    e9e2:	48 8d 85 70 e9 ff ff 	lea    -0x1690(%rbp),%rax
    e9e9:	48 89 85 c8 ea ff ff 	mov    %rax,-0x1538(%rbp)
    e9f0:	48 8d 85 70 e9 ff ff 	lea    -0x1690(%rbp),%rax
    e9f7:	48 89 85 d0 ea ff ff 	mov    %rax,-0x1530(%rbp)
    e9fe:	48 8d 85 70 e9 ff ff 	lea    -0x1690(%rbp),%rax
    ea05:	48 89 85 d8 ea ff ff 	mov    %rax,-0x1528(%rbp)
    ea0c:	48 8d 85 70 e9 ff ff 	lea    -0x1690(%rbp),%rax
    ea13:	48 89 85 e0 ea ff ff 	mov    %rax,-0x1520(%rbp)
    ea1a:	48 8d 85 c0 ea ff ff 	lea    -0x1540(%rbp),%rax
    ea21:	48 89 85 a0 e9 ff ff 	mov    %rax,-0x1660(%rbp)
    ea28:	66 c7 85 02 e9 ff ff 	movw   $0x8,-0x16fe(%rbp)
    ea2f:	08 00 
    ea31:	48 c7 85 a8 e9 ff ff 	movq   $0x7,-0x1658(%rbp)
    ea38:	07 00 00 00 
    ea3c:	c7 85 18 e9 ff ff 43 	movl   $0x120ecd43,-0x16e8(%rbp)
    ea43:	cd 0e 12 
    ea46:	48 8d 05 fb 15 01 00 	lea    0x115fb(%rip),%rax        # 20048 <g_105>
    ea4d:	48 89 85 98 e9 ff ff 	mov    %rax,-0x1668(%rbp)
    ea54:	48 8d 85 68 e9 ff ff 	lea    -0x1698(%rbp),%rax
    ea5b:	48 89 85 d0 ef ff ff 	mov    %rax,-0x1030(%rbp)
    ea62:	48 8d 85 68 e9 ff ff 	lea    -0x1698(%rbp),%rax
    ea69:	48 89 85 d8 ef ff ff 	mov    %rax,-0x1028(%rbp)
    ea70:	48 8d 05 81 1a 01 00 	lea    0x11a81(%rip),%rax        # 204f8 <g_1268>
    ea77:	48 89 85 e0 ef ff ff 	mov    %rax,-0x1020(%rbp)
    ea7e:	48 8d 85 68 e9 ff ff 	lea    -0x1698(%rbp),%rax
    ea85:	48 89 85 e8 ef ff ff 	mov    %rax,-0x1018(%rbp)
    ea8c:	48 8d 85 68 e9 ff ff 	lea    -0x1698(%rbp),%rax
    ea93:	48 89 85 f0 ef ff ff 	mov    %rax,-0x1010(%rbp)
    ea9a:	48 8d 05 57 1a 01 00 	lea    0x11a57(%rip),%rax        # 204f8 <g_1268>
    eaa1:	48 89 85 f8 ef ff ff 	mov    %rax,-0x1008(%rbp)
    eaa8:	48 8d 85 68 e9 ff ff 	lea    -0x1698(%rbp),%rax
    eaaf:	48 89 85 00 f0 ff ff 	mov    %rax,-0x1000(%rbp)
    eab6:	48 8d 85 68 e9 ff ff 	lea    -0x1698(%rbp),%rax
    eabd:	48 89 85 08 f0 ff ff 	mov    %rax,-0xff8(%rbp)
    eac4:	48 8d 85 60 e9 ff ff 	lea    -0x16a0(%rbp),%rax
    eacb:	48 89 85 10 f0 ff ff 	mov    %rax,-0xff0(%rbp)
    ead2:	48 8d 85 60 e9 ff ff 	lea    -0x16a0(%rbp),%rax
    ead9:	48 89 85 18 f0 ff ff 	mov    %rax,-0xfe8(%rbp)
    eae0:	48 8d 85 68 e9 ff ff 	lea    -0x1698(%rbp),%rax
    eae7:	48 89 85 20 f0 ff ff 	mov    %rax,-0xfe0(%rbp)
    eaee:	48 8d 85 60 e9 ff ff 	lea    -0x16a0(%rbp),%rax
    eaf5:	48 89 85 28 f0 ff ff 	mov    %rax,-0xfd8(%rbp)
    eafc:	48 8d 85 60 e9 ff ff 	lea    -0x16a0(%rbp),%rax
    eb03:	48 89 85 30 f0 ff ff 	mov    %rax,-0xfd0(%rbp)
    eb0a:	48 8d 85 68 e9 ff ff 	lea    -0x1698(%rbp),%rax
    eb11:	48 89 85 38 f0 ff ff 	mov    %rax,-0xfc8(%rbp)
    eb18:	48 8d 85 60 e9 ff ff 	lea    -0x16a0(%rbp),%rax
    eb1f:	48 89 85 40 f0 ff ff 	mov    %rax,-0xfc0(%rbp)
    eb26:	48 8d 85 68 e9 ff ff 	lea    -0x1698(%rbp),%rax
    eb2d:	48 89 85 48 f0 ff ff 	mov    %rax,-0xfb8(%rbp)
    eb34:	48 8d 85 60 e9 ff ff 	lea    -0x16a0(%rbp),%rax
    eb3b:	48 89 85 50 f0 ff ff 	mov    %rax,-0xfb0(%rbp)
    eb42:	48 8d 85 60 e9 ff ff 	lea    -0x16a0(%rbp),%rax
    eb49:	48 89 85 58 f0 ff ff 	mov    %rax,-0xfa8(%rbp)
    eb50:	48 8d 85 68 e9 ff ff 	lea    -0x1698(%rbp),%rax
    eb57:	48 89 85 60 f0 ff ff 	mov    %rax,-0xfa0(%rbp)
    eb5e:	48 8d 85 60 e9 ff ff 	lea    -0x16a0(%rbp),%rax
    eb65:	48 89 85 68 f0 ff ff 	mov    %rax,-0xf98(%rbp)
    eb6c:	48 8d 85 60 e9 ff ff 	lea    -0x16a0(%rbp),%rax
    eb73:	48 89 85 70 f0 ff ff 	mov    %rax,-0xf90(%rbp)
    eb7a:	48 8d 85 68 e9 ff ff 	lea    -0x1698(%rbp),%rax
    eb81:	48 89 85 78 f0 ff ff 	mov    %rax,-0xf88(%rbp)
    eb88:	48 8d 85 68 e9 ff ff 	lea    -0x1698(%rbp),%rax
    eb8f:	48 89 85 80 f0 ff ff 	mov    %rax,-0xf80(%rbp)
    eb96:	48 8d 05 5b 19 01 00 	lea    0x1195b(%rip),%rax        # 204f8 <g_1268>
    eb9d:	48 89 85 88 f0 ff ff 	mov    %rax,-0xf78(%rbp)
    eba4:	48 8d 85 68 e9 ff ff 	lea    -0x1698(%rbp),%rax
    ebab:	48 89 85 90 f0 ff ff 	mov    %rax,-0xf70(%rbp)
    ebb2:	48 8d 85 68 e9 ff ff 	lea    -0x1698(%rbp),%rax
    ebb9:	48 89 85 98 f0 ff ff 	mov    %rax,-0xf68(%rbp)
    ebc0:	48 8d 05 31 19 01 00 	lea    0x11931(%rip),%rax        # 204f8 <g_1268>
    ebc7:	48 89 85 a0 f0 ff ff 	mov    %rax,-0xf60(%rbp)
    ebce:	48 8d 85 68 e9 ff ff 	lea    -0x1698(%rbp),%rax
    ebd5:	48 89 85 a8 f0 ff ff 	mov    %rax,-0xf58(%rbp)
    ebdc:	48 8d 85 68 e9 ff ff 	lea    -0x1698(%rbp),%rax
    ebe3:	48 89 85 b0 f0 ff ff 	mov    %rax,-0xf50(%rbp)
    ebea:	48 8d 85 60 e9 ff ff 	lea    -0x16a0(%rbp),%rax
    ebf1:	48 89 85 b8 f0 ff ff 	mov    %rax,-0xf48(%rbp)
    ebf8:	48 8d 85 60 e9 ff ff 	lea    -0x16a0(%rbp),%rax
    ebff:	48 89 85 c0 f0 ff ff 	mov    %rax,-0xf40(%rbp)
    ec06:	48 8d 85 68 e9 ff ff 	lea    -0x1698(%rbp),%rax
    ec0d:	48 89 85 c8 f0 ff ff 	mov    %rax,-0xf38(%rbp)
    ec14:	48 8d 85 60 e9 ff ff 	lea    -0x16a0(%rbp),%rax
    ec1b:	48 89 85 d0 f0 ff ff 	mov    %rax,-0xf30(%rbp)
    ec22:	48 8d 85 60 e9 ff ff 	lea    -0x16a0(%rbp),%rax
    ec29:	48 89 85 d8 f0 ff ff 	mov    %rax,-0xf28(%rbp)
    ec30:	48 8d 85 68 e9 ff ff 	lea    -0x1698(%rbp),%rax
    ec37:	48 89 85 e0 f0 ff ff 	mov    %rax,-0xf20(%rbp)
    ec3e:	48 8d 85 60 e9 ff ff 	lea    -0x16a0(%rbp),%rax
    ec45:	48 89 85 e8 f0 ff ff 	mov    %rax,-0xf18(%rbp)
    ec4c:	48 8d 85 68 e9 ff ff 	lea    -0x1698(%rbp),%rax
    ec53:	48 89 85 f0 f0 ff ff 	mov    %rax,-0xf10(%rbp)
    ec5a:	48 8d 85 60 e9 ff ff 	lea    -0x16a0(%rbp),%rax
    ec61:	48 89 85 f8 f0 ff ff 	mov    %rax,-0xf08(%rbp)
    ec68:	48 8d 85 60 e9 ff ff 	lea    -0x16a0(%rbp),%rax
    ec6f:	48 89 85 00 f1 ff ff 	mov    %rax,-0xf00(%rbp)
    ec76:	48 8d 85 68 e9 ff ff 	lea    -0x1698(%rbp),%rax
    ec7d:	48 89 85 08 f1 ff ff 	mov    %rax,-0xef8(%rbp)
    ec84:	48 8d 85 60 e9 ff ff 	lea    -0x16a0(%rbp),%rax
    ec8b:	48 89 85 10 f1 ff ff 	mov    %rax,-0xef0(%rbp)
    ec92:	48 8d 85 60 e9 ff ff 	lea    -0x16a0(%rbp),%rax
    ec99:	48 89 85 18 f1 ff ff 	mov    %rax,-0xee8(%rbp)
    eca0:	48 8d 85 68 e9 ff ff 	lea    -0x1698(%rbp),%rax
    eca7:	48 89 85 20 f1 ff ff 	mov    %rax,-0xee0(%rbp)
    ecae:	48 8d 85 68 e9 ff ff 	lea    -0x1698(%rbp),%rax
    ecb5:	48 89 85 28 f1 ff ff 	mov    %rax,-0xed8(%rbp)
    ecbc:	48 8d 05 35 18 01 00 	lea    0x11835(%rip),%rax        # 204f8 <g_1268>
    ecc3:	48 89 85 30 f1 ff ff 	mov    %rax,-0xed0(%rbp)
    ecca:	48 8d 85 68 e9 ff ff 	lea    -0x1698(%rbp),%rax
    ecd1:	48 89 85 38 f1 ff ff 	mov    %rax,-0xec8(%rbp)
    ecd8:	48 8d 85 68 e9 ff ff 	lea    -0x1698(%rbp),%rax
    ecdf:	48 89 85 40 f1 ff ff 	mov    %rax,-0xec0(%rbp)
    ece6:	48 8d 05 0b 18 01 00 	lea    0x1180b(%rip),%rax        # 204f8 <g_1268>
    eced:	48 89 85 48 f1 ff ff 	mov    %rax,-0xeb8(%rbp)
    ecf4:	48 8d 85 68 e9 ff ff 	lea    -0x1698(%rbp),%rax
    ecfb:	48 89 85 50 f1 ff ff 	mov    %rax,-0xeb0(%rbp)
    ed02:	48 8d 85 68 e9 ff ff 	lea    -0x1698(%rbp),%rax
    ed09:	48 89 85 58 f1 ff ff 	mov    %rax,-0xea8(%rbp)
    ed10:	48 8d 85 60 e9 ff ff 	lea    -0x16a0(%rbp),%rax
    ed17:	48 89 85 60 f1 ff ff 	mov    %rax,-0xea0(%rbp)
    ed1e:	48 8d 85 60 e9 ff ff 	lea    -0x16a0(%rbp),%rax
    ed25:	48 89 85 68 f1 ff ff 	mov    %rax,-0xe98(%rbp)
    ed2c:	48 8d 85 68 e9 ff ff 	lea    -0x1698(%rbp),%rax
    ed33:	48 89 85 70 f1 ff ff 	mov    %rax,-0xe90(%rbp)
    ed3a:	48 8d 85 60 e9 ff ff 	lea    -0x16a0(%rbp),%rax
    ed41:	48 89 85 78 f1 ff ff 	mov    %rax,-0xe88(%rbp)
    ed48:	48 8d 85 60 e9 ff ff 	lea    -0x16a0(%rbp),%rax
    ed4f:	48 89 85 80 f1 ff ff 	mov    %rax,-0xe80(%rbp)
    ed56:	48 8d 85 68 e9 ff ff 	lea    -0x1698(%rbp),%rax
    ed5d:	48 89 85 88 f1 ff ff 	mov    %rax,-0xe78(%rbp)
    ed64:	48 8d 85 60 e9 ff ff 	lea    -0x16a0(%rbp),%rax
    ed6b:	48 89 85 90 f1 ff ff 	mov    %rax,-0xe70(%rbp)
    ed72:	48 8d 85 68 e9 ff ff 	lea    -0x1698(%rbp),%rax
    ed79:	48 89 85 98 f1 ff ff 	mov    %rax,-0xe68(%rbp)
    ed80:	48 8d 85 60 e9 ff ff 	lea    -0x16a0(%rbp),%rax
    ed87:	48 89 85 a0 f1 ff ff 	mov    %rax,-0xe60(%rbp)
    ed8e:	48 8d 85 60 e9 ff ff 	lea    -0x16a0(%rbp),%rax
    ed95:	48 89 85 a8 f1 ff ff 	mov    %rax,-0xe58(%rbp)
    ed9c:	48 8d 85 68 e9 ff ff 	lea    -0x1698(%rbp),%rax
    eda3:	48 89 85 b0 f1 ff ff 	mov    %rax,-0xe50(%rbp)
    edaa:	48 8d 85 60 e9 ff ff 	lea    -0x16a0(%rbp),%rax
    edb1:	48 89 85 b8 f1 ff ff 	mov    %rax,-0xe48(%rbp)
    edb8:	48 8d 85 60 e9 ff ff 	lea    -0x16a0(%rbp),%rax
    edbf:	48 89 85 c0 f1 ff ff 	mov    %rax,-0xe40(%rbp)
    edc6:	48 8d 85 68 e9 ff ff 	lea    -0x1698(%rbp),%rax
    edcd:	48 89 85 c8 f1 ff ff 	mov    %rax,-0xe38(%rbp)
    edd4:	48 8d 85 68 e9 ff ff 	lea    -0x1698(%rbp),%rax
    eddb:	48 89 85 d0 f1 ff ff 	mov    %rax,-0xe30(%rbp)
    ede2:	48 8d 05 0f 17 01 00 	lea    0x1170f(%rip),%rax        # 204f8 <g_1268>
    ede9:	48 89 85 d8 f1 ff ff 	mov    %rax,-0xe28(%rbp)
    edf0:	48 8d 85 68 e9 ff ff 	lea    -0x1698(%rbp),%rax
    edf7:	48 89 85 e0 f1 ff ff 	mov    %rax,-0xe20(%rbp)
    edfe:	48 8d 85 68 e9 ff ff 	lea    -0x1698(%rbp),%rax
    ee05:	48 89 85 e8 f1 ff ff 	mov    %rax,-0xe18(%rbp)
    ee0c:	48 8d 05 e5 16 01 00 	lea    0x116e5(%rip),%rax        # 204f8 <g_1268>
    ee13:	48 89 85 f0 f1 ff ff 	mov    %rax,-0xe10(%rbp)
    ee1a:	48 8d 85 68 e9 ff ff 	lea    -0x1698(%rbp),%rax
    ee21:	48 89 85 f8 f1 ff ff 	mov    %rax,-0xe08(%rbp)
    ee28:	48 8d 85 68 e9 ff ff 	lea    -0x1698(%rbp),%rax
    ee2f:	48 89 85 00 f2 ff ff 	mov    %rax,-0xe00(%rbp)
    ee36:	48 8d 85 60 e9 ff ff 	lea    -0x16a0(%rbp),%rax
    ee3d:	48 89 85 08 f2 ff ff 	mov    %rax,-0xdf8(%rbp)
    ee44:	48 8d 85 60 e9 ff ff 	lea    -0x16a0(%rbp),%rax
    ee4b:	48 89 85 10 f2 ff ff 	mov    %rax,-0xdf0(%rbp)
    ee52:	48 8d 85 68 e9 ff ff 	lea    -0x1698(%rbp),%rax
    ee59:	48 89 85 18 f2 ff ff 	mov    %rax,-0xde8(%rbp)
    ee60:	48 8d 85 60 e9 ff ff 	lea    -0x16a0(%rbp),%rax
    ee67:	48 89 85 20 f2 ff ff 	mov    %rax,-0xde0(%rbp)
    ee6e:	48 8d 85 60 e9 ff ff 	lea    -0x16a0(%rbp),%rax
    ee75:	48 89 85 28 f2 ff ff 	mov    %rax,-0xdd8(%rbp)
    ee7c:	48 8d 85 68 e9 ff ff 	lea    -0x1698(%rbp),%rax
    ee83:	48 89 85 30 f2 ff ff 	mov    %rax,-0xdd0(%rbp)
    ee8a:	48 8d 85 60 e9 ff ff 	lea    -0x16a0(%rbp),%rax
    ee91:	48 89 85 38 f2 ff ff 	mov    %rax,-0xdc8(%rbp)
    ee98:	48 8d 85 68 e9 ff ff 	lea    -0x1698(%rbp),%rax
    ee9f:	48 89 85 40 f2 ff ff 	mov    %rax,-0xdc0(%rbp)
    eea6:	48 8d 85 60 e9 ff ff 	lea    -0x16a0(%rbp),%rax
    eead:	48 89 85 48 f2 ff ff 	mov    %rax,-0xdb8(%rbp)
    eeb4:	48 8d 85 60 e9 ff ff 	lea    -0x16a0(%rbp),%rax
    eebb:	48 89 85 50 f2 ff ff 	mov    %rax,-0xdb0(%rbp)
    eec2:	48 8d 85 68 e9 ff ff 	lea    -0x1698(%rbp),%rax
    eec9:	48 89 85 58 f2 ff ff 	mov    %rax,-0xda8(%rbp)
    eed0:	48 8d 85 60 e9 ff ff 	lea    -0x16a0(%rbp),%rax
    eed7:	48 89 85 60 f2 ff ff 	mov    %rax,-0xda0(%rbp)
    eede:	48 8d 85 60 e9 ff ff 	lea    -0x16a0(%rbp),%rax
    eee5:	48 89 85 68 f2 ff ff 	mov    %rax,-0xd98(%rbp)
    eeec:	48 8d 85 68 e9 ff ff 	lea    -0x1698(%rbp),%rax
    eef3:	48 89 85 70 f2 ff ff 	mov    %rax,-0xd90(%rbp)
    eefa:	48 8d 85 68 e9 ff ff 	lea    -0x1698(%rbp),%rax
    ef01:	48 89 85 78 f2 ff ff 	mov    %rax,-0xd88(%rbp)
    ef08:	48 8d 05 e9 15 01 00 	lea    0x115e9(%rip),%rax        # 204f8 <g_1268>
    ef0f:	48 89 85 80 f2 ff ff 	mov    %rax,-0xd80(%rbp)
    ef16:	48 8d 85 68 e9 ff ff 	lea    -0x1698(%rbp),%rax
    ef1d:	48 89 85 88 f2 ff ff 	mov    %rax,-0xd78(%rbp)
    ef24:	48 8d 85 68 e9 ff ff 	lea    -0x1698(%rbp),%rax
    ef2b:	48 89 85 90 f2 ff ff 	mov    %rax,-0xd70(%rbp)
    ef32:	48 8d 05 bf 15 01 00 	lea    0x115bf(%rip),%rax        # 204f8 <g_1268>
    ef39:	48 89 85 98 f2 ff ff 	mov    %rax,-0xd68(%rbp)
    ef40:	48 8d 85 68 e9 ff ff 	lea    -0x1698(%rbp),%rax
    ef47:	48 89 85 a0 f2 ff ff 	mov    %rax,-0xd60(%rbp)
    ef4e:	48 8d 85 68 e9 ff ff 	lea    -0x1698(%rbp),%rax
    ef55:	48 89 85 a8 f2 ff ff 	mov    %rax,-0xd58(%rbp)
    ef5c:	48 8d 85 60 e9 ff ff 	lea    -0x16a0(%rbp),%rax
    ef63:	48 89 85 b0 f2 ff ff 	mov    %rax,-0xd50(%rbp)
    ef6a:	48 8d 85 60 e9 ff ff 	lea    -0x16a0(%rbp),%rax
    ef71:	48 89 85 b8 f2 ff ff 	mov    %rax,-0xd48(%rbp)
    ef78:	48 8d 85 68 e9 ff ff 	lea    -0x1698(%rbp),%rax
    ef7f:	48 89 85 c0 f2 ff ff 	mov    %rax,-0xd40(%rbp)
    ef86:	48 8d 85 60 e9 ff ff 	lea    -0x16a0(%rbp),%rax
    ef8d:	48 89 85 c8 f2 ff ff 	mov    %rax,-0xd38(%rbp)
    ef94:	48 8d 85 60 e9 ff ff 	lea    -0x16a0(%rbp),%rax
    ef9b:	48 89 85 d0 f2 ff ff 	mov    %rax,-0xd30(%rbp)
    efa2:	48 8d 85 68 e9 ff ff 	lea    -0x1698(%rbp),%rax
    efa9:	48 89 85 d8 f2 ff ff 	mov    %rax,-0xd28(%rbp)
    efb0:	48 8d 85 60 e9 ff ff 	lea    -0x16a0(%rbp),%rax
    efb7:	48 89 85 e0 f2 ff ff 	mov    %rax,-0xd20(%rbp)
    efbe:	48 8d 85 68 e9 ff ff 	lea    -0x1698(%rbp),%rax
    efc5:	48 89 85 e8 f2 ff ff 	mov    %rax,-0xd18(%rbp)
    efcc:	48 8d 85 60 e9 ff ff 	lea    -0x16a0(%rbp),%rax
    efd3:	48 89 85 f0 f2 ff ff 	mov    %rax,-0xd10(%rbp)
    efda:	48 8d 85 60 e9 ff ff 	lea    -0x16a0(%rbp),%rax
    efe1:	48 89 85 f8 f2 ff ff 	mov    %rax,-0xd08(%rbp)
    efe8:	48 8d 85 68 e9 ff ff 	lea    -0x1698(%rbp),%rax
    efef:	48 89 85 00 f3 ff ff 	mov    %rax,-0xd00(%rbp)
    eff6:	48 8d 85 60 e9 ff ff 	lea    -0x16a0(%rbp),%rax
    effd:	48 89 85 08 f3 ff ff 	mov    %rax,-0xcf8(%rbp)
    f004:	48 8d 85 60 e9 ff ff 	lea    -0x16a0(%rbp),%rax
    f00b:	48 89 85 10 f3 ff ff 	mov    %rax,-0xcf0(%rbp)
    f012:	48 8d 85 68 e9 ff ff 	lea    -0x1698(%rbp),%rax
    f019:	48 89 85 18 f3 ff ff 	mov    %rax,-0xce8(%rbp)
    f020:	48 8d 85 68 e9 ff ff 	lea    -0x1698(%rbp),%rax
    f027:	48 89 85 20 f3 ff ff 	mov    %rax,-0xce0(%rbp)
    f02e:	48 8d 05 c3 14 01 00 	lea    0x114c3(%rip),%rax        # 204f8 <g_1268>
    f035:	48 89 85 28 f3 ff ff 	mov    %rax,-0xcd8(%rbp)
    f03c:	48 8d 85 68 e9 ff ff 	lea    -0x1698(%rbp),%rax
    f043:	48 89 85 30 f3 ff ff 	mov    %rax,-0xcd0(%rbp)
    f04a:	48 8d 85 68 e9 ff ff 	lea    -0x1698(%rbp),%rax
    f051:	48 89 85 38 f3 ff ff 	mov    %rax,-0xcc8(%rbp)
    f058:	48 8d 05 99 14 01 00 	lea    0x11499(%rip),%rax        # 204f8 <g_1268>
    f05f:	48 89 85 40 f3 ff ff 	mov    %rax,-0xcc0(%rbp)
    f066:	48 8d 85 68 e9 ff ff 	lea    -0x1698(%rbp),%rax
    f06d:	48 89 85 48 f3 ff ff 	mov    %rax,-0xcb8(%rbp)
    f074:	48 8d 85 68 e9 ff ff 	lea    -0x1698(%rbp),%rax
    f07b:	48 89 85 50 f3 ff ff 	mov    %rax,-0xcb0(%rbp)
    f082:	48 8d 85 60 e9 ff ff 	lea    -0x16a0(%rbp),%rax
    f089:	48 89 85 58 f3 ff ff 	mov    %rax,-0xca8(%rbp)
    f090:	48 8d 85 60 e9 ff ff 	lea    -0x16a0(%rbp),%rax
    f097:	48 89 85 60 f3 ff ff 	mov    %rax,-0xca0(%rbp)
    f09e:	48 8d 85 68 e9 ff ff 	lea    -0x1698(%rbp),%rax
    f0a5:	48 89 85 68 f3 ff ff 	mov    %rax,-0xc98(%rbp)
    f0ac:	48 8d 85 60 e9 ff ff 	lea    -0x16a0(%rbp),%rax
    f0b3:	48 89 85 70 f3 ff ff 	mov    %rax,-0xc90(%rbp)
    f0ba:	48 8d 85 60 e9 ff ff 	lea    -0x16a0(%rbp),%rax
    f0c1:	48 89 85 78 f3 ff ff 	mov    %rax,-0xc88(%rbp)
    f0c8:	48 8d 85 68 e9 ff ff 	lea    -0x1698(%rbp),%rax
    f0cf:	48 89 85 80 f3 ff ff 	mov    %rax,-0xc80(%rbp)
    f0d6:	48 8d 85 60 e9 ff ff 	lea    -0x16a0(%rbp),%rax
    f0dd:	48 89 85 88 f3 ff ff 	mov    %rax,-0xc78(%rbp)
    f0e4:	48 8d 85 68 e9 ff ff 	lea    -0x1698(%rbp),%rax
    f0eb:	48 89 85 90 f3 ff ff 	mov    %rax,-0xc70(%rbp)
    f0f2:	48 8d 85 60 e9 ff ff 	lea    -0x16a0(%rbp),%rax
    f0f9:	48 89 85 98 f3 ff ff 	mov    %rax,-0xc68(%rbp)
    f100:	48 8d 85 60 e9 ff ff 	lea    -0x16a0(%rbp),%rax
    f107:	48 89 85 a0 f3 ff ff 	mov    %rax,-0xc60(%rbp)
    f10e:	48 8d 85 68 e9 ff ff 	lea    -0x1698(%rbp),%rax
    f115:	48 89 85 a8 f3 ff ff 	mov    %rax,-0xc58(%rbp)
    f11c:	48 8d 85 60 e9 ff ff 	lea    -0x16a0(%rbp),%rax
    f123:	48 89 85 b0 f3 ff ff 	mov    %rax,-0xc50(%rbp)
    f12a:	48 8d 85 60 e9 ff ff 	lea    -0x16a0(%rbp),%rax
    f131:	48 89 85 b8 f3 ff ff 	mov    %rax,-0xc48(%rbp)
    f138:	48 8d 85 d0 ef ff ff 	lea    -0x1030(%rbp),%rax
    f13f:	48 05 40 02 00 00    	add    $0x240,%rax
    f145:	48 89 85 80 e9 ff ff 	mov    %rax,-0x1680(%rbp)
    f14c:	48 8d 85 c0 f3 ff ff 	lea    -0xc40(%rbp),%rax
    f153:	48 8d 15 06 32 01 00 	lea    0x13206(%rip),%rdx        # 22360 <g_2982+0x3d0>
    f15a:	b9 96 00 00 00       	mov    $0x96,%ecx
    f15f:	48 89 c7             	mov    %rax,%rdi
    f162:	48 89 d6             	mov    %rdx,%rsi
    f165:	f3 48 a5             	rep movsq %ds:(%rsi),%es:(%rdi)
    f168:	66 c7 85 00 e9 ff ff 	movw   $0x0,-0x1700(%rbp)
    f16f:	00 00 
    f171:	c7 85 14 e9 ff ff fa 	movl   $0x220f18fa,-0x16ec(%rbp)
    f178:	18 0f 22 
    f17b:	48 8d 05 52 bf 00 00 	lea    0xbf52(%rip),%rax        # 1b0d4 <g_1617>
    f182:	48 89 85 88 e9 ff ff 	mov    %rax,-0x1678(%rbp)
    f189:	48 8d 05 b8 0e 01 00 	lea    0x10eb8(%rip),%rax        # 20048 <g_105>
    f190:	48 89 85 90 e9 ff ff 	mov    %rax,-0x1670(%rbp)
    f197:	c7 85 10 e9 ff ff 00 	movl   $0x0,-0x16f0(%rbp)
    f19e:	00 00 00 
    f1a1:	eb 1e                	jmp    f1c1 <func_4+0xa39>
    f1a3:	8b 85 10 e9 ff ff    	mov    -0x16f0(%rbp),%eax
    f1a9:	48 98                	cltq   
    f1ab:	48 8d 15 3a 13 01 00 	lea    0x1133a(%rip),%rdx        # 204ec <g_1225>
    f1b2:	48 89 94 c5 40 ea ff 	mov    %rdx,-0x15c0(%rbp,%rax,8)
    f1b9:	ff 
    f1ba:	83 85 10 e9 ff ff 01 	addl   $0x1,-0x16f0(%rbp)
    f1c1:	83 bd 10 e9 ff ff 01 	cmpl   $0x1,-0x16f0(%rbp)
    f1c8:	7e d9                	jle    f1a3 <func_4+0xa1b>
    f1ca:	c7 85 10 e9 ff ff 00 	movl   $0x0,-0x16f0(%rbp)
    f1d1:	00 00 00 
    f1d4:	eb 1e                	jmp    f1f4 <func_4+0xa6c>
    f1d6:	8b 85 10 e9 ff ff    	mov    -0x16f0(%rbp),%eax
    f1dc:	48 98                	cltq   
    f1de:	48 8d 95 08 e9 ff ff 	lea    -0x16f8(%rbp),%rdx
    f1e5:	48 89 94 c5 50 ea ff 	mov    %rdx,-0x15b0(%rbp,%rax,8)
    f1ec:	ff 
    f1ed:	83 85 10 e9 ff ff 01 	addl   $0x1,-0x16f0(%rbp)
    f1f4:	83 bd 10 e9 ff ff 01 	cmpl   $0x1,-0x16f0(%rbp)
    f1fb:	7e d9                	jle    f1d6 <func_4+0xa4e>
    f1fd:	c7 05 d9 12 01 00 00 	movl   $0x0,0x112d9(%rip)        # 204e0 <g_1139>
    f204:	00 00 00 
    f207:	e9 df 05 00 00       	jmpq   f7eb <func_4+0x1063>
    f20c:	48 8d 85 70 f8 ff ff 	lea    -0x790(%rbp),%rax
    f213:	48 8d 15 06 36 01 00 	lea    0x13606(%rip),%rdx        # 22820 <g_2982+0x890>
    f21a:	b9 d2 00 00 00       	mov    $0xd2,%ecx
    f21f:	48 89 c7             	mov    %rax,%rdi
    f222:	48 89 d6             	mov    %rdx,%rsi
    f225:	f3 48 a5             	rep movsq %ds:(%rsi),%es:(%rdi)
    f228:	48 8d 05 91 5a 01 00 	lea    0x15a91(%rip),%rax        # 24cc0 <g_1533>
    f22f:	48 89 85 e0 eb ff ff 	mov    %rax,-0x1420(%rbp)
    f236:	48 8d 05 83 5a 01 00 	lea    0x15a83(%rip),%rax        # 24cc0 <g_1533>
    f23d:	48 89 85 e8 eb ff ff 	mov    %rax,-0x1418(%rbp)
    f244:	48 8d 05 75 5a 01 00 	lea    0x15a75(%rip),%rax        # 24cc0 <g_1533>
    f24b:	48 89 85 f0 eb ff ff 	mov    %rax,-0x1410(%rbp)
    f252:	48 8d 05 67 5a 01 00 	lea    0x15a67(%rip),%rax        # 24cc0 <g_1533>
    f259:	48 89 85 f8 eb ff ff 	mov    %rax,-0x1408(%rbp)
    f260:	48 8d 05 59 5a 01 00 	lea    0x15a59(%rip),%rax        # 24cc0 <g_1533>
    f267:	48 89 85 00 ec ff ff 	mov    %rax,-0x1400(%rbp)
    f26e:	48 8d 05 4b 5a 01 00 	lea    0x15a4b(%rip),%rax        # 24cc0 <g_1533>
    f275:	48 89 85 08 ec ff ff 	mov    %rax,-0x13f8(%rbp)
    f27c:	48 8d 05 3d 5a 01 00 	lea    0x15a3d(%rip),%rax        # 24cc0 <g_1533>
    f283:	48 89 85 10 ec ff ff 	mov    %rax,-0x13f0(%rbp)
    f28a:	48 8d 05 2f 5a 01 00 	lea    0x15a2f(%rip),%rax        # 24cc0 <g_1533>
    f291:	48 89 85 18 ec ff ff 	mov    %rax,-0x13e8(%rbp)
    f298:	48 8d 05 21 5a 01 00 	lea    0x15a21(%rip),%rax        # 24cc0 <g_1533>
    f29f:	48 89 85 20 ec ff ff 	mov    %rax,-0x13e0(%rbp)
    f2a6:	48 8d 05 13 5a 01 00 	lea    0x15a13(%rip),%rax        # 24cc0 <g_1533>
    f2ad:	48 89 85 28 ec ff ff 	mov    %rax,-0x13d8(%rbp)
    f2b4:	48 8d 05 05 5a 01 00 	lea    0x15a05(%rip),%rax        # 24cc0 <g_1533>
    f2bb:	48 89 85 30 ec ff ff 	mov    %rax,-0x13d0(%rbp)
    f2c2:	48 8d 05 f7 59 01 00 	lea    0x159f7(%rip),%rax        # 24cc0 <g_1533>
    f2c9:	48 89 85 38 ec ff ff 	mov    %rax,-0x13c8(%rbp)
    f2d0:	48 8d 05 e9 59 01 00 	lea    0x159e9(%rip),%rax        # 24cc0 <g_1533>
    f2d7:	48 89 85 40 ec ff ff 	mov    %rax,-0x13c0(%rbp)
    f2de:	48 8d 05 db 59 01 00 	lea    0x159db(%rip),%rax        # 24cc0 <g_1533>
    f2e5:	48 89 85 48 ec ff ff 	mov    %rax,-0x13b8(%rbp)
    f2ec:	48 8d 05 cd 59 01 00 	lea    0x159cd(%rip),%rax        # 24cc0 <g_1533>
    f2f3:	48 89 85 50 ec ff ff 	mov    %rax,-0x13b0(%rbp)
    f2fa:	48 8d 05 bf 59 01 00 	lea    0x159bf(%rip),%rax        # 24cc0 <g_1533>
    f301:	48 89 85 58 ec ff ff 	mov    %rax,-0x13a8(%rbp)
    f308:	48 8d 05 b1 59 01 00 	lea    0x159b1(%rip),%rax        # 24cc0 <g_1533>
    f30f:	48 89 85 60 ec ff ff 	mov    %rax,-0x13a0(%rbp)
    f316:	48 8d 05 a3 59 01 00 	lea    0x159a3(%rip),%rax        # 24cc0 <g_1533>
    f31d:	48 89 85 68 ec ff ff 	mov    %rax,-0x1398(%rbp)
    f324:	48 8d 05 95 59 01 00 	lea    0x15995(%rip),%rax        # 24cc0 <g_1533>
    f32b:	48 89 85 70 ec ff ff 	mov    %rax,-0x1390(%rbp)
    f332:	48 8d 05 87 59 01 00 	lea    0x15987(%rip),%rax        # 24cc0 <g_1533>
    f339:	48 89 85 78 ec ff ff 	mov    %rax,-0x1388(%rbp)
    f340:	48 8d 05 79 59 01 00 	lea    0x15979(%rip),%rax        # 24cc0 <g_1533>
    f347:	48 89 85 80 ec ff ff 	mov    %rax,-0x1380(%rbp)
    f34e:	48 8d 05 6b 59 01 00 	lea    0x1596b(%rip),%rax        # 24cc0 <g_1533>
    f355:	48 89 85 88 ec ff ff 	mov    %rax,-0x1378(%rbp)
    f35c:	48 8d 05 5d 59 01 00 	lea    0x1595d(%rip),%rax        # 24cc0 <g_1533>
    f363:	48 89 85 90 ec ff ff 	mov    %rax,-0x1370(%rbp)
    f36a:	48 8d 05 4f 59 01 00 	lea    0x1594f(%rip),%rax        # 24cc0 <g_1533>
    f371:	48 89 85 98 ec ff ff 	mov    %rax,-0x1368(%rbp)
    f378:	c7 85 44 e9 ff ff 01 	movl   $0x1,-0x16bc(%rbp)
    f37f:	00 00 00 
    f382:	48 8d 05 af 0c 01 00 	lea    0x10caf(%rip),%rax        # 20038 <g_61>
    f389:	48 89 85 18 ea ff ff 	mov    %rax,-0x15e8(%rbp)
    f390:	c7 85 30 eb ff ff 08 	movl   $0x4a845f08,-0x14d0(%rbp)
    f397:	5f 84 4a 
    f39a:	c7 85 34 eb ff ff 00 	movl   $0x0,-0x14cc(%rbp)
    f3a1:	00 00 00 
    f3a4:	c7 85 38 eb ff ff 8b 	movl   $0x8313a28b,-0x14c8(%rbp)
    f3ab:	a2 13 83 
    f3ae:	c7 85 3c eb ff ff 00 	movl   $0x0,-0x14c4(%rbp)
    f3b5:	00 00 00 
    f3b8:	c7 85 40 eb ff ff 08 	movl   $0x4a845f08,-0x14c0(%rbp)
    f3bf:	5f 84 4a 
    f3c2:	c7 85 44 eb ff ff 24 	movl   $0x6acd4824,-0x14bc(%rbp)
    f3c9:	48 cd 6a 
    f3cc:	c7 85 48 eb ff ff 24 	movl   $0x6acd4824,-0x14b8(%rbp)
    f3d3:	48 cd 6a 
    f3d6:	c7 85 4c eb ff ff 08 	movl   $0x4a845f08,-0x14b4(%rbp)
    f3dd:	5f 84 4a 
    f3e0:	c7 85 50 eb ff ff 08 	movl   $0x4a845f08,-0x14b0(%rbp)
    f3e7:	5f 84 4a 
    f3ea:	c7 85 54 eb ff ff 58 	movl   $0xfd39a358,-0x14ac(%rbp)
    f3f1:	a3 39 fd 
    f3f4:	c7 85 58 eb ff ff 08 	movl   $0x4a845f08,-0x14a8(%rbp)
    f3fb:	5f 84 4a 
    f3fe:	c7 85 5c eb ff ff 8b 	movl   $0x8313a28b,-0x14a4(%rbp)
    f405:	a2 13 83 
    f408:	c7 85 60 eb ff ff 00 	movl   $0x0,-0x14a0(%rbp)
    f40f:	00 00 00 
    f412:	c7 85 64 eb ff ff 00 	movl   $0x0,-0x149c(%rbp)
    f419:	00 00 00 
    f41c:	c7 85 68 eb ff ff 8b 	movl   $0x8313a28b,-0x1498(%rbp)
    f423:	a2 13 83 
    f426:	c7 85 6c eb ff ff 08 	movl   $0x4a845f08,-0x1494(%rbp)
    f42d:	5f 84 4a 
    f430:	c7 85 70 eb ff ff 58 	movl   $0xfd39a358,-0x1490(%rbp)
    f437:	a3 39 fd 
    f43a:	c7 85 74 eb ff ff 08 	movl   $0x4a845f08,-0x148c(%rbp)
    f441:	5f 84 4a 
    f444:	c7 85 78 eb ff ff 8b 	movl   $0x8313a28b,-0x1488(%rbp)
    f44b:	a2 13 83 
    f44e:	c7 85 7c eb ff ff 00 	movl   $0x0,-0x1484(%rbp)
    f455:	00 00 00 
    f458:	c7 85 80 eb ff ff 00 	movl   $0x0,-0x1480(%rbp)
    f45f:	00 00 00 
    f462:	c7 85 84 eb ff ff 8b 	movl   $0x8313a28b,-0x147c(%rbp)
    f469:	a2 13 83 
    f46c:	c7 85 88 eb ff ff 08 	movl   $0x4a845f08,-0x1478(%rbp)
    f473:	5f 84 4a 
    f476:	c7 85 8c eb ff ff 58 	movl   $0xfd39a358,-0x1474(%rbp)
    f47d:	a3 39 fd 
    f480:	c7 85 90 eb ff ff 08 	movl   $0x4a845f08,-0x1470(%rbp)
    f487:	5f 84 4a 
    f48a:	c7 85 94 eb ff ff 8b 	movl   $0x8313a28b,-0x146c(%rbp)
    f491:	a2 13 83 
    f494:	c7 85 98 eb ff ff 00 	movl   $0x0,-0x1468(%rbp)
    f49b:	00 00 00 
    f49e:	c7 85 9c eb ff ff 00 	movl   $0x0,-0x1464(%rbp)
    f4a5:	00 00 00 
    f4a8:	c7 85 a0 eb ff ff 8b 	movl   $0x8313a28b,-0x1460(%rbp)
    f4af:	a2 13 83 
    f4b2:	c7 85 a4 eb ff ff 08 	movl   $0x4a845f08,-0x145c(%rbp)
    f4b9:	5f 84 4a 
    f4bc:	c7 85 a8 eb ff ff 58 	movl   $0xfd39a358,-0x1458(%rbp)
    f4c3:	a3 39 fd 
    f4c6:	c7 85 ac eb ff ff 08 	movl   $0x4a845f08,-0x1454(%rbp)
    f4cd:	5f 84 4a 
    f4d0:	c7 85 b0 eb ff ff 8b 	movl   $0x8313a28b,-0x1450(%rbp)
    f4d7:	a2 13 83 
    f4da:	c7 85 b4 eb ff ff 00 	movl   $0x0,-0x144c(%rbp)
    f4e1:	00 00 00 
    f4e4:	c7 85 b8 eb ff ff 00 	movl   $0x0,-0x1448(%rbp)
    f4eb:	00 00 00 
    f4ee:	c7 85 bc eb ff ff 8b 	movl   $0x8313a28b,-0x1444(%rbp)
    f4f5:	a2 13 83 
    f4f8:	c7 85 c0 eb ff ff 08 	movl   $0x4a845f08,-0x1440(%rbp)
    f4ff:	5f 84 4a 
    f502:	c7 85 c4 eb ff ff 58 	movl   $0xfd39a358,-0x143c(%rbp)
    f509:	a3 39 fd 
    f50c:	c7 85 c8 eb ff ff 08 	movl   $0x4a845f08,-0x1438(%rbp)
    f513:	5f 84 4a 
    f516:	c7 85 cc eb ff ff 8b 	movl   $0x8313a28b,-0x1434(%rbp)
    f51d:	a2 13 83 
    f520:	c7 85 d0 eb ff ff 00 	movl   $0x0,-0x1430(%rbp)
    f527:	00 00 00 
    f52a:	c7 85 d4 eb ff ff 00 	movl   $0x0,-0x142c(%rbp)
    f531:	00 00 00 
    f534:	48 c7 85 20 ea ff ff 	movq   $0x2,-0x15e0(%rbp)
    f53b:	02 00 00 00 
    f53f:	48 8d 05 c2 50 01 00 	lea    0x150c2(%rip),%rax        # 24608 <g_547>
    f546:	48 89 85 28 ea ff ff 	mov    %rax,-0x15d8(%rbp)
    f54d:	48 8d 05 d4 68 01 00 	lea    0x168d4(%rip),%rax        # 25e28 <g_1392>
    f554:	48 89 85 f0 ea ff ff 	mov    %rax,-0x1510(%rbp)
    f55b:	48 8d 05 c6 68 01 00 	lea    0x168c6(%rip),%rax        # 25e28 <g_1392>
    f562:	48 89 85 f8 ea ff ff 	mov    %rax,-0x1508(%rbp)
    f569:	48 c7 85 00 eb ff ff 	movq   $0x0,-0x1500(%rbp)
    f570:	00 00 00 00 
    f574:	48 8d 05 ad 68 01 00 	lea    0x168ad(%rip),%rax        # 25e28 <g_1392>
    f57b:	48 89 85 08 eb ff ff 	mov    %rax,-0x14f8(%rbp)
    f582:	48 8d 05 9f 68 01 00 	lea    0x1689f(%rip),%rax        # 25e28 <g_1392>
    f589:	48 89 85 10 eb ff ff 	mov    %rax,-0x14f0(%rbp)
    f590:	48 c7 85 18 eb ff ff 	movq   $0x0,-0x14e8(%rbp)
    f597:	00 00 00 00 
    f59b:	48 8d 05 86 68 01 00 	lea    0x16886(%rip),%rax        # 25e28 <g_1392>
    f5a2:	48 89 85 20 eb ff ff 	mov    %rax,-0x14e0(%rbp)
    f5a9:	48 8d 05 b8 67 01 00 	lea    0x167b8(%rip),%rax        # 25d68 <g_21>
    f5b0:	48 89 85 78 e9 ff ff 	mov    %rax,-0x1688(%rbp)
    f5b7:	48 8d 85 78 e9 ff ff 	lea    -0x1688(%rbp),%rax
    f5be:	48 89 85 a0 ec ff ff 	mov    %rax,-0x1360(%rbp)
    f5c5:	48 8d 85 78 e9 ff ff 	lea    -0x1688(%rbp),%rax
    f5cc:	48 89 85 a8 ec ff ff 	mov    %rax,-0x1358(%rbp)
    f5d3:	48 8d 85 78 e9 ff ff 	lea    -0x1688(%rbp),%rax
    f5da:	48 89 85 b0 ec ff ff 	mov    %rax,-0x1350(%rbp)
    f5e1:	48 8d 85 78 e9 ff ff 	lea    -0x1688(%rbp),%rax
    f5e8:	48 89 85 b8 ec ff ff 	mov    %rax,-0x1348(%rbp)
    f5ef:	48 8d 85 78 e9 ff ff 	lea    -0x1688(%rbp),%rax
    f5f6:	48 89 85 c0 ec ff ff 	mov    %rax,-0x1340(%rbp)
    f5fd:	48 c7 85 c8 ec ff ff 	movq   $0x0,-0x1338(%rbp)
    f604:	00 00 00 00 
    f608:	48 8d 85 78 e9 ff ff 	lea    -0x1688(%rbp),%rax
    f60f:	48 89 85 d0 ec ff ff 	mov    %rax,-0x1330(%rbp)
    f616:	48 8d 85 78 e9 ff ff 	lea    -0x1688(%rbp),%rax
    f61d:	48 89 85 d8 ec ff ff 	mov    %rax,-0x1328(%rbp)
    f624:	48 8d 85 78 e9 ff ff 	lea    -0x1688(%rbp),%rax
    f62b:	48 89 85 e0 ec ff ff 	mov    %rax,-0x1320(%rbp)
    f632:	48 8d 85 78 e9 ff ff 	lea    -0x1688(%rbp),%rax
    f639:	48 89 85 e8 ec ff ff 	mov    %rax,-0x1318(%rbp)
    f640:	48 c7 85 f0 ec ff ff 	movq   $0x0,-0x1310(%rbp)
    f647:	00 00 00 00 
    f64b:	48 c7 85 f8 ec ff ff 	movq   $0x0,-0x1308(%rbp)
    f652:	00 00 00 00 
    f656:	48 c7 85 00 ed ff ff 	movq   $0x0,-0x1300(%rbp)
    f65d:	00 00 00 00 
    f661:	48 8d 85 78 e9 ff ff 	lea    -0x1688(%rbp),%rax
    f668:	48 89 85 08 ed ff ff 	mov    %rax,-0x12f8(%rbp)
    f66f:	48 8d 85 78 e9 ff ff 	lea    -0x1688(%rbp),%rax
    f676:	48 89 85 10 ed ff ff 	mov    %rax,-0x12f0(%rbp)
    f67d:	48 8d 85 78 e9 ff ff 	lea    -0x1688(%rbp),%rax
    f684:	48 89 85 18 ed ff ff 	mov    %rax,-0x12e8(%rbp)
    f68b:	48 8d 85 78 e9 ff ff 	lea    -0x1688(%rbp),%rax
    f692:	48 89 85 20 ed ff ff 	mov    %rax,-0x12e0(%rbp)
    f699:	48 8d 85 78 e9 ff ff 	lea    -0x1688(%rbp),%rax
    f6a0:	48 89 85 28 ed ff ff 	mov    %rax,-0x12d8(%rbp)
    f6a7:	48 8d 85 78 e9 ff ff 	lea    -0x1688(%rbp),%rax
    f6ae:	48 89 85 30 ed ff ff 	mov    %rax,-0x12d0(%rbp)
    f6b5:	48 c7 85 38 ed ff ff 	movq   $0x0,-0x12c8(%rbp)
    f6bc:	00 00 00 00 
    f6c0:	48 8d 85 78 e9 ff ff 	lea    -0x1688(%rbp),%rax
    f6c7:	48 89 85 40 ed ff ff 	mov    %rax,-0x12c0(%rbp)
    f6ce:	48 8d 85 78 e9 ff ff 	lea    -0x1688(%rbp),%rax
    f6d5:	48 89 85 48 ed ff ff 	mov    %rax,-0x12b8(%rbp)
    f6dc:	48 8d 85 78 e9 ff ff 	lea    -0x1688(%rbp),%rax
    f6e3:	48 89 85 50 ed ff ff 	mov    %rax,-0x12b0(%rbp)
    f6ea:	48 c7 85 58 ed ff ff 	movq   $0x0,-0x12a8(%rbp)
    f6f1:	00 00 00 00 
    f6f5:	48 8d 85 78 e9 ff ff 	lea    -0x1688(%rbp),%rax
    f6fc:	48 89 85 60 ed ff ff 	mov    %rax,-0x12a0(%rbp)
    f703:	48 8d 85 78 e9 ff ff 	lea    -0x1688(%rbp),%rax
    f70a:	48 89 85 68 ed ff ff 	mov    %rax,-0x1298(%rbp)
    f711:	48 8d 85 78 e9 ff ff 	lea    -0x1688(%rbp),%rax
    f718:	48 89 85 70 ed ff ff 	mov    %rax,-0x1290(%rbp)
    f71f:	48 8d 85 78 e9 ff ff 	lea    -0x1688(%rbp),%rax
    f726:	48 89 85 78 ed ff ff 	mov    %rax,-0x1288(%rbp)
    f72d:	48 8d 85 78 e9 ff ff 	lea    -0x1688(%rbp),%rax
    f734:	48 89 85 80 ed ff ff 	mov    %rax,-0x1280(%rbp)
    f73b:	48 c7 85 88 ed ff ff 	movq   $0x0,-0x1278(%rbp)
    f742:	00 00 00 00 
    f746:	48 8d 85 a0 ec ff ff 	lea    -0x1360(%rbp),%rax
    f74d:	48 83 c0 28          	add    $0x28,%rax
    f751:	48 89 85 30 ea ff ff 	mov    %rax,-0x15d0(%rbp)
    f758:	c7 85 a0 ea ff ff d0 	movl   $0xe5e9d0d0,-0x1560(%rbp)
    f75f:	d0 e9 e5 
    f762:	c7 85 a4 ea ff ff ca 	movl   $0xb52624ca,-0x155c(%rbp)
    f769:	24 26 b5 
    f76c:	c7 85 a8 ea ff ff ca 	movl   $0xb52624ca,-0x1558(%rbp)
    f773:	24 26 b5 
    f776:	c7 85 ac ea ff ff d0 	movl   $0xe5e9d0d0,-0x1554(%rbp)
    f77d:	d0 e9 e5 
    f780:	c7 85 b0 ea ff ff ca 	movl   $0xb52624ca,-0x1550(%rbp)
    f787:	24 26 b5 
    f78a:	c7 85 b4 ea ff ff ca 	movl   $0xb52624ca,-0x154c(%rbp)
    f791:	24 26 b5 
    f794:	48 8d 05 95 08 01 00 	lea    0x10895(%rip),%rax        # 20030 <g_58>
    f79b:	48 89 85 38 ea ff ff 	mov    %rax,-0x15c8(%rbp)
    f7a2:	c7 85 1c e9 ff ff 00 	movl   $0x0,-0x16e4(%rbp)
    f7a9:	00 00 00 
    f7ac:	eb 25                	jmp    f7d3 <func_4+0x104b>
    f7ae:	8b 85 1c e9 ff ff    	mov    -0x16e4(%rbp),%eax
    f7b4:	48 98                	cltq   
    f7b6:	48 8d 95 70 f8 ff ff 	lea    -0x790(%rbp),%rdx
    f7bd:	48 81 c2 c0 03 00 00 	add    $0x3c0,%rdx
    f7c4:	48 89 94 c5 80 ea ff 	mov    %rdx,-0x1580(%rbp,%rax,8)
    f7cb:	ff 
    f7cc:	83 85 1c e9 ff ff 01 	addl   $0x1,-0x16e4(%rbp)
    f7d3:	83 bd 1c e9 ff ff 02 	cmpl   $0x2,-0x16e4(%rbp)
    f7da:	7e d2                	jle    f7ae <func_4+0x1026>
    f7dc:	8b 05 fe 0c 01 00    	mov    0x10cfe(%rip),%eax        # 204e0 <g_1139>
    f7e2:	83 c0 01             	add    $0x1,%eax
    f7e5:	89 05 f5 0c 01 00    	mov    %eax,0x10cf5(%rip)        # 204e0 <g_1139>
    f7eb:	8b 05 ef 0c 01 00    	mov    0x10cef(%rip),%eax        # 204e0 <g_1139>
    f7f1:	83 f8 1c             	cmp    $0x1c,%eax
    f7f4:	0f 85 12 fa ff ff    	jne    f20c <func_4+0xa84>
    f7fa:	48 8b 05 37 16 01 00 	mov    0x11637(%rip),%rax        # 20e38 <g_1951+0xf8>
    f801:	48 83 c0 01          	add    $0x1,%rax
    f805:	48 89 05 2c 16 01 00 	mov    %rax,0x1162c(%rip)        # 20e38 <g_1951+0xf8>
    f80c:	48 8b 85 98 e9 ff ff 	mov    -0x1668(%rbp),%rax
    f813:	8b 10                	mov    (%rax),%edx
    f815:	48 8b 85 b0 e9 ff ff 	mov    -0x1650(%rbp),%rax
    f81c:	8b 00                	mov    (%rax),%eax
    f81e:	31 c2                	xor    %eax,%edx
    f820:	48 8b 85 98 e9 ff ff 	mov    -0x1668(%rbp),%rax
    f827:	89 10                	mov    %edx,(%rax)
    f829:	48 8b 85 98 e9 ff ff 	mov    -0x1668(%rbp),%rax
    f830:	8b 10                	mov    (%rax),%edx
    f832:	48 8b 85 b0 e9 ff ff 	mov    -0x1650(%rbp),%rax
    f839:	89 10                	mov    %edx,(%rax)
    f83b:	48 8b 85 d8 e9 ff ff 	mov    -0x1628(%rbp),%rax
    f842:	48 8b 75 f8          	mov    -0x8(%rbp),%rsi
    f846:	64 48 33 34 25 28 00 	xor    %fs:0x28,%rsi
    f84d:	00 00 
    f84f:	74 05                	je     f856 <func_4+0x10ce>
    f851:	e8 1a 98 ff ff       	callq  9070 <__stack_chk_fail@plt>
    f856:	c9                   	leaveq 
    f857:	c3                   	retq   

000000000000f858 <func_8>:
    f858:	f3 0f 1e fa          	endbr64 
    f85c:	55                   	push   %rbp
    f85d:	48 89 e5             	mov    %rsp,%rbp
    f860:	41 57                	push   %r15
    f862:	41 56                	push   %r14
    f864:	41 55                	push   %r13
    f866:	41 54                	push   %r12
    f868:	53                   	push   %rbx
    f869:	48 81 ec 00 10 00 00 	sub    $0x1000,%rsp
    f870:	48 83 0c 24 00       	orq    $0x0,(%rsp)
    f875:	48 81 ec 98 0a 00 00 	sub    $0xa98,%rsp
    f87c:	89 f8                	mov    %edi,%eax
    f87e:	89 95 54 e5 ff ff    	mov    %edx,-0x1aac(%rbp)
    f884:	48 89 8d 48 e5 ff ff 	mov    %rcx,-0x1ab8(%rbp)
    f88b:	66 89 85 5c e5 ff ff 	mov    %ax,-0x1aa4(%rbp)
    f892:	89 f0                	mov    %esi,%eax
    f894:	88 85 58 e5 ff ff    	mov    %al,-0x1aa8(%rbp)
    f89a:	64 48 8b 04 25 28 00 	mov    %fs:0x28,%rax
    f8a1:	00 00 
    f8a3:	48 89 45 c8          	mov    %rax,-0x38(%rbp)
    f8a7:	31 c0                	xor    %eax,%eax
    f8a9:	48 8d 05 e8 4c 01 00 	lea    0x14ce8(%rip),%rax        # 24598 <g_402>
    f8b0:	48 89 85 00 e7 ff ff 	mov    %rax,-0x1900(%rbp)
    f8b7:	48 c7 85 48 e6 ff ff 	movq   $0x0,-0x19b8(%rbp)
    f8be:	00 00 00 00 
    f8c2:	48 8d 85 48 e6 ff ff 	lea    -0x19b8(%rbp),%rax
    f8c9:	48 89 85 08 e7 ff ff 	mov    %rax,-0x18f8(%rbp)
    f8d0:	c7 85 78 e5 ff ff 01 	movl   $0x1,-0x1a88(%rbp)
    f8d7:	00 00 00 
    f8da:	48 8d 05 6f 4a 01 00 	lea    0x14a6f(%rip),%rax        # 24350 <g_179>
    f8e1:	48 89 85 10 e7 ff ff 	mov    %rax,-0x18f0(%rbp)
    f8e8:	48 8d 05 b1 4c 01 00 	lea    0x14cb1(%rip),%rax        # 245a0 <g_458>
    f8ef:	48 89 85 50 e6 ff ff 	mov    %rax,-0x19b0(%rbp)
    f8f6:	c7 85 7c e5 ff ff af 	movl   $0xe6cfb8af,-0x1a84(%rbp)
    f8fd:	b8 cf e6 
    f900:	c7 85 a8 e5 ff ff e0 	movl   $0x62098be0,-0x1a58(%rbp)
    f907:	8b 09 62 
    f90a:	c7 85 80 e5 ff ff 08 	movl   $0x8,-0x1a80(%rbp)
    f911:	00 00 00 
    f914:	c7 85 84 e5 ff ff d3 	movl   $0xf5100cd3,-0x1a7c(%rbp)
    f91b:	0c 10 f5 
    f91e:	48 8d 05 7f 0a 01 00 	lea    0x10a7f(%rip),%rax        # 203a4 <g_478>
    f925:	48 89 85 e0 e6 ff ff 	mov    %rax,-0x1920(%rbp)
    f92c:	c7 85 a0 e5 ff ff 00 	movl   $0x0,-0x1a60(%rbp)
    f933:	00 00 00 
    f936:	48 8d 05 5b 0a 01 00 	lea    0x10a5b(%rip),%rax        # 20398 <g_432+0x8>
    f93d:	48 89 85 e8 e6 ff ff 	mov    %rax,-0x1918(%rbp)
    f944:	c6 85 67 e5 ff ff 10 	movb   $0x10,-0x1a99(%rbp)
    f94b:	48 c7 85 f0 e6 ff ff 	movq   $0x0,-0x1910(%rbp)
    f952:	00 00 00 00 
    f956:	48 8d 05 4b 09 01 00 	lea    0x1094b(%rip),%rax        # 202a8 <g_265+0x28>
    f95d:	48 89 85 f8 e6 ff ff 	mov    %rax,-0x1908(%rbp)
    f964:	66 c7 85 6e e5 ff ff 	movw   $0x99f6,-0x1a92(%rbp)
    f96b:	f6 99 
    f96d:	c7 85 88 e5 ff ff 00 	movl   $0x0,-0x1a78(%rbp)
    f974:	00 00 00 
    f977:	c7 85 8c e5 ff ff 45 	movl   $0x873c3c45,-0x1a74(%rbp)
    f97e:	3c 3c 87 
    f981:	c7 85 b0 e8 ff ff 07 	movl   $0x7,-0x1750(%rbp)
    f988:	00 00 00 
    f98b:	c7 85 b4 e8 ff ff 07 	movl   $0x7,-0x174c(%rbp)
    f992:	00 00 00 
    f995:	c7 85 b8 e8 ff ff 07 	movl   $0x7,-0x1748(%rbp)
    f99c:	00 00 00 
    f99f:	c7 85 bc e8 ff ff 07 	movl   $0x7,-0x1744(%rbp)
    f9a6:	00 00 00 
    f9a9:	c7 85 a4 e5 ff ff 03 	movl   $0x3,-0x1a5c(%rbp)
    f9b0:	00 00 00 
    f9b3:	48 8d 05 3e 64 01 00 	lea    0x1643e(%rip),%rax        # 25df8 <g_1228>
    f9ba:	48 89 85 58 e6 ff ff 	mov    %rax,-0x19a8(%rbp)
    f9c1:	48 8d 85 58 e6 ff ff 	lea    -0x19a8(%rbp),%rax
    f9c8:	48 89 85 60 e6 ff ff 	mov    %rax,-0x19a0(%rbp)
    f9cf:	48 8d 85 60 e6 ff ff 	lea    -0x19a0(%rbp),%rax
    f9d6:	48 89 85 68 e6 ff ff 	mov    %rax,-0x1998(%rbp)
    f9dd:	48 c7 85 e0 eb ff ff 	movq   $0x0,-0x1420(%rbp)
    f9e4:	00 00 00 00 
    f9e8:	48 8d 85 68 e6 ff ff 	lea    -0x1998(%rbp),%rax
    f9ef:	48 89 85 e8 eb ff ff 	mov    %rax,-0x1418(%rbp)
    f9f6:	48 8d 85 68 e6 ff ff 	lea    -0x1998(%rbp),%rax
    f9fd:	48 89 85 f0 eb ff ff 	mov    %rax,-0x1410(%rbp)
    fa04:	48 8d 85 68 e6 ff ff 	lea    -0x1998(%rbp),%rax
    fa0b:	48 89 85 f8 eb ff ff 	mov    %rax,-0x1408(%rbp)
    fa12:	48 8d 85 68 e6 ff ff 	lea    -0x1998(%rbp),%rax
    fa19:	48 89 85 00 ec ff ff 	mov    %rax,-0x1400(%rbp)
    fa20:	48 8d 85 68 e6 ff ff 	lea    -0x1998(%rbp),%rax
    fa27:	48 89 85 08 ec ff ff 	mov    %rax,-0x13f8(%rbp)
    fa2e:	48 8d 85 68 e6 ff ff 	lea    -0x1998(%rbp),%rax
    fa35:	48 89 85 10 ec ff ff 	mov    %rax,-0x13f0(%rbp)
    fa3c:	48 c7 85 18 ec ff ff 	movq   $0x0,-0x13e8(%rbp)
    fa43:	00 00 00 00 
    fa47:	48 8d 85 68 e6 ff ff 	lea    -0x1998(%rbp),%rax
    fa4e:	48 89 85 20 ec ff ff 	mov    %rax,-0x13e0(%rbp)
    fa55:	48 c7 85 28 ec ff ff 	movq   $0x0,-0x13d8(%rbp)
    fa5c:	00 00 00 00 
    fa60:	48 8d 85 68 e6 ff ff 	lea    -0x1998(%rbp),%rax
    fa67:	48 89 85 30 ec ff ff 	mov    %rax,-0x13d0(%rbp)
    fa6e:	48 8d 85 68 e6 ff ff 	lea    -0x1998(%rbp),%rax
    fa75:	48 89 85 38 ec ff ff 	mov    %rax,-0x13c8(%rbp)
    fa7c:	48 8d 85 68 e6 ff ff 	lea    -0x1998(%rbp),%rax
    fa83:	48 89 85 40 ec ff ff 	mov    %rax,-0x13c0(%rbp)
    fa8a:	48 8d 85 68 e6 ff ff 	lea    -0x1998(%rbp),%rax
    fa91:	48 89 85 48 ec ff ff 	mov    %rax,-0x13b8(%rbp)
    fa98:	48 8d 85 68 e6 ff ff 	lea    -0x1998(%rbp),%rax
    fa9f:	48 89 85 50 ec ff ff 	mov    %rax,-0x13b0(%rbp)
    faa6:	48 8d 85 68 e6 ff ff 	lea    -0x1998(%rbp),%rax
    faad:	48 89 85 58 ec ff ff 	mov    %rax,-0x13a8(%rbp)
    fab4:	48 8d 85 68 e6 ff ff 	lea    -0x1998(%rbp),%rax
    fabb:	48 89 85 60 ec ff ff 	mov    %rax,-0x13a0(%rbp)
    fac2:	48 8d 85 68 e6 ff ff 	lea    -0x1998(%rbp),%rax
    fac9:	48 89 85 68 ec ff ff 	mov    %rax,-0x1398(%rbp)
    fad0:	48 8d 85 68 e6 ff ff 	lea    -0x1998(%rbp),%rax
    fad7:	48 89 85 70 ec ff ff 	mov    %rax,-0x1390(%rbp)
    fade:	48 8d 85 68 e6 ff ff 	lea    -0x1998(%rbp),%rax
    fae5:	48 89 85 78 ec ff ff 	mov    %rax,-0x1388(%rbp)
    faec:	48 8d 85 68 e6 ff ff 	lea    -0x1998(%rbp),%rax
    faf3:	48 89 85 80 ec ff ff 	mov    %rax,-0x1380(%rbp)
    fafa:	48 c7 85 88 ec ff ff 	movq   $0x0,-0x1378(%rbp)
    fb01:	00 00 00 00 
    fb05:	48 8d 85 68 e6 ff ff 	lea    -0x1998(%rbp),%rax
    fb0c:	48 89 85 90 ec ff ff 	mov    %rax,-0x1370(%rbp)
    fb13:	48 8d 85 68 e6 ff ff 	lea    -0x1998(%rbp),%rax
    fb1a:	48 89 85 98 ec ff ff 	mov    %rax,-0x1368(%rbp)
    fb21:	48 c7 85 a0 ec ff ff 	movq   $0x0,-0x1360(%rbp)
    fb28:	00 00 00 00 
    fb2c:	48 8d 85 68 e6 ff ff 	lea    -0x1998(%rbp),%rax
    fb33:	48 89 85 a8 ec ff ff 	mov    %rax,-0x1358(%rbp)
    fb3a:	48 8d 85 68 e6 ff ff 	lea    -0x1998(%rbp),%rax
    fb41:	48 89 85 b0 ec ff ff 	mov    %rax,-0x1350(%rbp)
    fb48:	48 c7 85 b8 ec ff ff 	movq   $0x0,-0x1348(%rbp)
    fb4f:	00 00 00 00 
    fb53:	48 8d 85 68 e6 ff ff 	lea    -0x1998(%rbp),%rax
    fb5a:	48 89 85 c0 ec ff ff 	mov    %rax,-0x1340(%rbp)
    fb61:	48 8d 85 68 e6 ff ff 	lea    -0x1998(%rbp),%rax
    fb68:	48 89 85 c8 ec ff ff 	mov    %rax,-0x1338(%rbp)
    fb6f:	48 8d 85 68 e6 ff ff 	lea    -0x1998(%rbp),%rax
    fb76:	48 89 85 d0 ec ff ff 	mov    %rax,-0x1330(%rbp)
    fb7d:	48 c7 85 d8 ec ff ff 	movq   $0x0,-0x1328(%rbp)
    fb84:	00 00 00 00 
    fb88:	48 8d 85 68 e6 ff ff 	lea    -0x1998(%rbp),%rax
    fb8f:	48 89 85 e0 ec ff ff 	mov    %rax,-0x1320(%rbp)
    fb96:	48 c7 85 e8 ec ff ff 	movq   $0x0,-0x1318(%rbp)
    fb9d:	00 00 00 00 
    fba1:	48 8d 85 68 e6 ff ff 	lea    -0x1998(%rbp),%rax
    fba8:	48 89 85 f0 ec ff ff 	mov    %rax,-0x1310(%rbp)
    fbaf:	48 8d 85 68 e6 ff ff 	lea    -0x1998(%rbp),%rax
    fbb6:	48 89 85 f8 ec ff ff 	mov    %rax,-0x1308(%rbp)
    fbbd:	48 8d 85 68 e6 ff ff 	lea    -0x1998(%rbp),%rax
    fbc4:	48 89 85 00 ed ff ff 	mov    %rax,-0x1300(%rbp)
    fbcb:	48 8d 85 68 e6 ff ff 	lea    -0x1998(%rbp),%rax
    fbd2:	48 89 85 08 ed ff ff 	mov    %rax,-0x12f8(%rbp)
    fbd9:	48 8d 85 68 e6 ff ff 	lea    -0x1998(%rbp),%rax
    fbe0:	48 89 85 10 ed ff ff 	mov    %rax,-0x12f0(%rbp)
    fbe7:	48 8d 85 68 e6 ff ff 	lea    -0x1998(%rbp),%rax
    fbee:	48 89 85 18 ed ff ff 	mov    %rax,-0x12e8(%rbp)
    fbf5:	48 8d 85 68 e6 ff ff 	lea    -0x1998(%rbp),%rax
    fbfc:	48 89 85 20 ed ff ff 	mov    %rax,-0x12e0(%rbp)
    fc03:	48 8d 85 68 e6 ff ff 	lea    -0x1998(%rbp),%rax
    fc0a:	48 89 85 28 ed ff ff 	mov    %rax,-0x12d8(%rbp)
    fc11:	48 8d 85 68 e6 ff ff 	lea    -0x1998(%rbp),%rax
    fc18:	48 89 85 30 ed ff ff 	mov    %rax,-0x12d0(%rbp)
    fc1f:	48 8d 85 68 e6 ff ff 	lea    -0x1998(%rbp),%rax
    fc26:	48 89 85 38 ed ff ff 	mov    %rax,-0x12c8(%rbp)
    fc2d:	48 8d 85 68 e6 ff ff 	lea    -0x1998(%rbp),%rax
    fc34:	48 89 85 40 ed ff ff 	mov    %rax,-0x12c0(%rbp)
    fc3b:	48 8d 85 68 e6 ff ff 	lea    -0x1998(%rbp),%rax
    fc42:	48 89 85 48 ed ff ff 	mov    %rax,-0x12b8(%rbp)
    fc49:	48 8d 85 68 e6 ff ff 	lea    -0x1998(%rbp),%rax
    fc50:	48 89 85 50 ed ff ff 	mov    %rax,-0x12b0(%rbp)
    fc57:	48 8d 85 68 e6 ff ff 	lea    -0x1998(%rbp),%rax
    fc5e:	48 89 85 58 ed ff ff 	mov    %rax,-0x12a8(%rbp)
    fc65:	48 8d 85 68 e6 ff ff 	lea    -0x1998(%rbp),%rax
    fc6c:	48 89 85 60 ed ff ff 	mov    %rax,-0x12a0(%rbp)
    fc73:	48 8d 85 68 e6 ff ff 	lea    -0x1998(%rbp),%rax
    fc7a:	48 89 85 68 ed ff ff 	mov    %rax,-0x1298(%rbp)
    fc81:	48 8d 85 68 e6 ff ff 	lea    -0x1998(%rbp),%rax
    fc88:	48 89 85 70 ed ff ff 	mov    %rax,-0x1290(%rbp)
    fc8f:	48 8d 85 68 e6 ff ff 	lea    -0x1998(%rbp),%rax
    fc96:	48 89 85 78 ed ff ff 	mov    %rax,-0x1288(%rbp)
    fc9d:	48 8d 85 68 e6 ff ff 	lea    -0x1998(%rbp),%rax
    fca4:	48 89 85 80 ed ff ff 	mov    %rax,-0x1280(%rbp)
    fcab:	48 8d 85 68 e6 ff ff 	lea    -0x1998(%rbp),%rax
    fcb2:	48 89 85 88 ed ff ff 	mov    %rax,-0x1278(%rbp)
    fcb9:	48 8d 85 68 e6 ff ff 	lea    -0x1998(%rbp),%rax
    fcc0:	48 89 85 90 ed ff ff 	mov    %rax,-0x1270(%rbp)
    fcc7:	48 8d 85 68 e6 ff ff 	lea    -0x1998(%rbp),%rax
    fcce:	48 89 85 98 ed ff ff 	mov    %rax,-0x1268(%rbp)
    fcd5:	48 8d 85 68 e6 ff ff 	lea    -0x1998(%rbp),%rax
    fcdc:	48 89 85 a0 ed ff ff 	mov    %rax,-0x1260(%rbp)
    fce3:	48 8d 85 68 e6 ff ff 	lea    -0x1998(%rbp),%rax
    fcea:	48 89 85 a8 ed ff ff 	mov    %rax,-0x1258(%rbp)
    fcf1:	48 8d 85 68 e6 ff ff 	lea    -0x1998(%rbp),%rax
    fcf8:	48 89 85 b0 ed ff ff 	mov    %rax,-0x1250(%rbp)
    fcff:	48 8d 85 68 e6 ff ff 	lea    -0x1998(%rbp),%rax
    fd06:	48 89 85 b8 ed ff ff 	mov    %rax,-0x1248(%rbp)
    fd0d:	48 8d 85 68 e6 ff ff 	lea    -0x1998(%rbp),%rax
    fd14:	48 89 85 c0 ed ff ff 	mov    %rax,-0x1240(%rbp)
    fd1b:	48 8d 85 68 e6 ff ff 	lea    -0x1998(%rbp),%rax
    fd22:	48 89 85 c8 ed ff ff 	mov    %rax,-0x1238(%rbp)
    fd29:	48 8d 85 68 e6 ff ff 	lea    -0x1998(%rbp),%rax
    fd30:	48 89 85 d0 ed ff ff 	mov    %rax,-0x1230(%rbp)
    fd37:	48 8d 85 68 e6 ff ff 	lea    -0x1998(%rbp),%rax
    fd3e:	48 89 85 d8 ed ff ff 	mov    %rax,-0x1228(%rbp)
    fd45:	48 c7 85 e0 ed ff ff 	movq   $0x0,-0x1220(%rbp)
    fd4c:	00 00 00 00 
    fd50:	48 8d 85 68 e6 ff ff 	lea    -0x1998(%rbp),%rax
    fd57:	48 89 85 e8 ed ff ff 	mov    %rax,-0x1218(%rbp)
    fd5e:	48 c7 85 f0 ed ff ff 	movq   $0x0,-0x1210(%rbp)
    fd65:	00 00 00 00 
    fd69:	48 8d 85 68 e6 ff ff 	lea    -0x1998(%rbp),%rax
    fd70:	48 89 85 f8 ed ff ff 	mov    %rax,-0x1208(%rbp)
    fd77:	48 8d 85 68 e6 ff ff 	lea    -0x1998(%rbp),%rax
    fd7e:	48 89 85 00 ee ff ff 	mov    %rax,-0x1200(%rbp)
    fd85:	48 8d 85 68 e6 ff ff 	lea    -0x1998(%rbp),%rax
    fd8c:	48 89 85 08 ee ff ff 	mov    %rax,-0x11f8(%rbp)
    fd93:	48 c7 85 b8 e6 ff ff 	movq   $0x0,-0x1948(%rbp)
    fd9a:	00 00 00 00 
    fd9e:	66 c7 85 70 e5 ff ff 	movw   $0xc018,-0x1a90(%rbp)
    fda5:	18 c0 
    fda7:	48 c7 85 70 e6 ff ff 	movq   $0x0,-0x1990(%rbp)
    fdae:	00 00 00 00 
    fdb2:	c7 85 9c e5 ff ff f8 	movl   $0xfffffff8,-0x1a64(%rbp)
    fdb9:	ff ff ff 
    fdbc:	48 8d 85 f0 e8 ff ff 	lea    -0x1710(%rbp),%rax
    fdc3:	48 89 85 c0 e6 ff ff 	mov    %rax,-0x1940(%rbp)
    fdca:	48 c7 85 c8 e6 ff ff 	movq   $0x0,-0x1938(%rbp)
    fdd1:	00 00 00 00 
    fdd5:	48 8d 05 9c 5f 01 00 	lea    0x15f9c(%rip),%rax        # 25d78 <g_185>
    fddc:	48 89 85 d0 e6 ff ff 	mov    %rax,-0x1930(%rbp)
    fde3:	48 c7 85 d8 e6 ff ff 	movq   $0x0,-0x1928(%rbp)
    fdea:	00 00 00 00 
    fdee:	48 c7 85 10 ee ff ff 	movq   $0x0,-0x11f0(%rbp)
    fdf5:	00 00 00 00 
    fdf9:	48 c7 85 18 ee ff ff 	movq   $0x0,-0x11e8(%rbp)
    fe00:	00 00 00 00 
    fe04:	48 c7 85 20 ee ff ff 	movq   $0x0,-0x11e0(%rbp)
    fe0b:	00 00 00 00 
    fe0f:	48 8d 85 88 e5 ff ff 	lea    -0x1a78(%rbp),%rax
    fe16:	48 89 85 28 ee ff ff 	mov    %rax,-0x11d8(%rbp)
    fe1d:	48 c7 85 30 ee ff ff 	movq   $0x0,-0x11d0(%rbp)
    fe24:	00 00 00 00 
    fe28:	48 8d 85 78 e5 ff ff 	lea    -0x1a88(%rbp),%rax
    fe2f:	48 89 85 38 ee ff ff 	mov    %rax,-0x11c8(%rbp)
    fe36:	48 8d 85 78 e5 ff ff 	lea    -0x1a88(%rbp),%rax
    fe3d:	48 89 85 40 ee ff ff 	mov    %rax,-0x11c0(%rbp)
    fe44:	48 8d 85 78 e5 ff ff 	lea    -0x1a88(%rbp),%rax
    fe4b:	48 89 85 48 ee ff ff 	mov    %rax,-0x11b8(%rbp)
    fe52:	48 c7 85 50 ee ff ff 	movq   $0x0,-0x11b0(%rbp)
    fe59:	00 00 00 00 
    fe5d:	48 8d 85 88 e5 ff ff 	lea    -0x1a78(%rbp),%rax
    fe64:	48 89 85 58 ee ff ff 	mov    %rax,-0x11a8(%rbp)
    fe6b:	48 c7 85 60 ee ff ff 	movq   $0x0,-0x11a0(%rbp)
    fe72:	00 00 00 00 
    fe76:	48 c7 85 68 ee ff ff 	movq   $0x0,-0x1198(%rbp)
    fe7d:	00 00 00 00 
    fe81:	48 c7 85 70 ee ff ff 	movq   $0x0,-0x1190(%rbp)
    fe88:	00 00 00 00 
    fe8c:	48 8d 05 d5 03 01 00 	lea    0x103d5(%rip),%rax        # 20268 <g_209>
    fe93:	48 89 85 78 ee ff ff 	mov    %rax,-0x1188(%rbp)
    fe9a:	48 8d 85 80 e5 ff ff 	lea    -0x1a80(%rbp),%rax
    fea1:	48 89 85 80 ee ff ff 	mov    %rax,-0x1180(%rbp)
    fea8:	48 8d 85 80 e5 ff ff 	lea    -0x1a80(%rbp),%rax
    feaf:	48 89 85 88 ee ff ff 	mov    %rax,-0x1178(%rbp)
    feb6:	48 8d 85 8c e5 ff ff 	lea    -0x1a74(%rbp),%rax
    febd:	48 89 85 90 ee ff ff 	mov    %rax,-0x1170(%rbp)
    fec4:	48 8d 85 80 e5 ff ff 	lea    -0x1a80(%rbp),%rax
    fecb:	48 89 85 98 ee ff ff 	mov    %rax,-0x1168(%rbp)
    fed2:	48 8d 85 88 e5 ff ff 	lea    -0x1a78(%rbp),%rax
    fed9:	48 89 85 a0 ee ff ff 	mov    %rax,-0x1160(%rbp)
    fee0:	48 8d 85 78 e5 ff ff 	lea    -0x1a88(%rbp),%rax
    fee7:	48 89 85 a8 ee ff ff 	mov    %rax,-0x1158(%rbp)
    feee:	48 8d 85 84 e5 ff ff 	lea    -0x1a7c(%rbp),%rax
    fef5:	48 89 85 b0 ee ff ff 	mov    %rax,-0x1150(%rbp)
    fefc:	48 8d 85 7c e5 ff ff 	lea    -0x1a84(%rbp),%rax
    ff03:	48 89 85 b8 ee ff ff 	mov    %rax,-0x1148(%rbp)
    ff0a:	48 8d 85 80 e5 ff ff 	lea    -0x1a80(%rbp),%rax
    ff11:	48 89 85 c0 ee ff ff 	mov    %rax,-0x1140(%rbp)
    ff18:	48 8d 85 84 e5 ff ff 	lea    -0x1a7c(%rbp),%rax
    ff1f:	48 89 85 c8 ee ff ff 	mov    %rax,-0x1138(%rbp)
    ff26:	48 8d 05 1b 01 01 00 	lea    0x1011b(%rip),%rax        # 20048 <g_105>
    ff2d:	48 89 85 d0 ee ff ff 	mov    %rax,-0x1130(%rbp)
    ff34:	48 c7 85 d8 ee ff ff 	movq   $0x0,-0x1128(%rbp)
    ff3b:	00 00 00 00 
    ff3f:	48 8d 05 02 01 01 00 	lea    0x10102(%rip),%rax        # 20048 <g_105>
    ff46:	48 89 85 e0 ee ff ff 	mov    %rax,-0x1120(%rbp)
    ff4d:	48 8d 85 84 e5 ff ff 	lea    -0x1a7c(%rbp),%rax
    ff54:	48 89 85 e8 ee ff ff 	mov    %rax,-0x1118(%rbp)
    ff5b:	48 8d 85 80 e5 ff ff 	lea    -0x1a80(%rbp),%rax
    ff62:	48 89 85 f0 ee ff ff 	mov    %rax,-0x1110(%rbp)
    ff69:	48 8d 85 7c e5 ff ff 	lea    -0x1a84(%rbp),%rax
    ff70:	48 89 85 f8 ee ff ff 	mov    %rax,-0x1108(%rbp)
    ff77:	48 8d 85 84 e5 ff ff 	lea    -0x1a7c(%rbp),%rax
    ff7e:	48 89 85 00 ef ff ff 	mov    %rax,-0x1100(%rbp)
    ff85:	48 8d 85 78 e5 ff ff 	lea    -0x1a88(%rbp),%rax
    ff8c:	48 89 85 08 ef ff ff 	mov    %rax,-0x10f8(%rbp)
    ff93:	48 8d 85 88 e5 ff ff 	lea    -0x1a78(%rbp),%rax
    ff9a:	48 89 85 10 ef ff ff 	mov    %rax,-0x10f0(%rbp)
    ffa1:	48 8d 85 80 e5 ff ff 	lea    -0x1a80(%rbp),%rax
    ffa8:	48 89 85 18 ef ff ff 	mov    %rax,-0x10e8(%rbp)
    ffaf:	48 8d 85 8c e5 ff ff 	lea    -0x1a74(%rbp),%rax
    ffb6:	48 89 85 20 ef ff ff 	mov    %rax,-0x10e0(%rbp)
    ffbd:	48 8d 85 80 e5 ff ff 	lea    -0x1a80(%rbp),%rax
    ffc4:	48 89 85 28 ef ff ff 	mov    %rax,-0x10d8(%rbp)
    ffcb:	48 8d 85 80 e5 ff ff 	lea    -0x1a80(%rbp),%rax
    ffd2:	48 89 85 30 ef ff ff 	mov    %rax,-0x10d0(%rbp)
    ffd9:	48 8d 05 88 02 01 00 	lea    0x10288(%rip),%rax        # 20268 <g_209>
    ffe0:	48 89 85 38 ef ff ff 	mov    %rax,-0x10c8(%rbp)
    ffe7:	48 c7 85 40 ef ff ff 	movq   $0x0,-0x10c0(%rbp)
    ffee:	00 00 00 00 
    fff2:	48 c7 85 48 ef ff ff 	movq   $0x0,-0x10b8(%rbp)
    fff9:	00 00 00 00 
    fffd:	48 c7 85 50 ef ff ff 	movq   $0x0,-0x10b0(%rbp)
   10004:	00 00 00 00 
   10008:	48 8d 85 88 e5 ff ff 	lea    -0x1a78(%rbp),%rax
   1000f:	48 89 85 58 ef ff ff 	mov    %rax,-0x10a8(%rbp)
   10016:	48 c7 85 60 ef ff ff 	movq   $0x0,-0x10a0(%rbp)
   1001d:	00 00 00 00 
   10021:	48 8d 85 78 e5 ff ff 	lea    -0x1a88(%rbp),%rax
   10028:	48 89 85 68 ef ff ff 	mov    %rax,-0x1098(%rbp)
   1002f:	48 8d 85 78 e5 ff ff 	lea    -0x1a88(%rbp),%rax
   10036:	48 89 85 70 ef ff ff 	mov    %rax,-0x1090(%rbp)
   1003d:	48 8d 85 78 e5 ff ff 	lea    -0x1a88(%rbp),%rax
   10044:	48 89 85 78 ef ff ff 	mov    %rax,-0x1088(%rbp)
   1004b:	48 c7 85 80 ef ff ff 	movq   $0x0,-0x1080(%rbp)
   10052:	00 00 00 00 
   10056:	48 8d 85 88 e5 ff ff 	lea    -0x1a78(%rbp),%rax
   1005d:	48 89 85 88 ef ff ff 	mov    %rax,-0x1078(%rbp)
   10064:	48 c7 85 90 ef ff ff 	movq   $0x0,-0x1070(%rbp)
   1006b:	00 00 00 00 
   1006f:	48 c7 85 98 ef ff ff 	movq   $0x0,-0x1068(%rbp)
   10076:	00 00 00 00 
   1007a:	48 c7 85 a0 ef ff ff 	movq   $0x0,-0x1060(%rbp)
   10081:	00 00 00 00 
   10085:	48 8d 05 dc 01 01 00 	lea    0x101dc(%rip),%rax        # 20268 <g_209>
   1008c:	48 89 85 a8 ef ff ff 	mov    %rax,-0x1058(%rbp)
   10093:	48 8d 85 80 e5 ff ff 	lea    -0x1a80(%rbp),%rax
   1009a:	48 89 85 b0 ef ff ff 	mov    %rax,-0x1050(%rbp)
   100a1:	48 8d 85 80 e5 ff ff 	lea    -0x1a80(%rbp),%rax
   100a8:	48 89 85 b8 ef ff ff 	mov    %rax,-0x1048(%rbp)
   100af:	48 8d 85 8c e5 ff ff 	lea    -0x1a74(%rbp),%rax
   100b6:	48 89 85 c0 ef ff ff 	mov    %rax,-0x1040(%rbp)
   100bd:	48 8d 85 80 e5 ff ff 	lea    -0x1a80(%rbp),%rax
   100c4:	48 89 85 c8 ef ff ff 	mov    %rax,-0x1038(%rbp)
   100cb:	48 8d 85 88 e5 ff ff 	lea    -0x1a78(%rbp),%rax
   100d2:	48 89 85 d0 ef ff ff 	mov    %rax,-0x1030(%rbp)
   100d9:	48 8d 85 78 e5 ff ff 	lea    -0x1a88(%rbp),%rax
   100e0:	48 89 85 d8 ef ff ff 	mov    %rax,-0x1028(%rbp)
   100e7:	48 8d 85 84 e5 ff ff 	lea    -0x1a7c(%rbp),%rax
   100ee:	48 89 85 e0 ef ff ff 	mov    %rax,-0x1020(%rbp)
   100f5:	48 8d 85 7c e5 ff ff 	lea    -0x1a84(%rbp),%rax
   100fc:	48 89 85 e8 ef ff ff 	mov    %rax,-0x1018(%rbp)
   10103:	48 8d 85 80 e5 ff ff 	lea    -0x1a80(%rbp),%rax
   1010a:	48 89 85 f0 ef ff ff 	mov    %rax,-0x1010(%rbp)
   10111:	48 8d 85 84 e5 ff ff 	lea    -0x1a7c(%rbp),%rax
   10118:	48 89 85 f8 ef ff ff 	mov    %rax,-0x1008(%rbp)
   1011f:	48 8d 05 22 ff 00 00 	lea    0xff22(%rip),%rax        # 20048 <g_105>
   10126:	48 89 85 00 f0 ff ff 	mov    %rax,-0x1000(%rbp)
   1012d:	48 c7 85 08 f0 ff ff 	movq   $0x0,-0xff8(%rbp)
   10134:	00 00 00 00 
   10138:	48 8d 05 09 ff 00 00 	lea    0xff09(%rip),%rax        # 20048 <g_105>
   1013f:	48 89 85 10 f0 ff ff 	mov    %rax,-0xff0(%rbp)
   10146:	48 8d 85 84 e5 ff ff 	lea    -0x1a7c(%rbp),%rax
   1014d:	48 89 85 18 f0 ff ff 	mov    %rax,-0xfe8(%rbp)
   10154:	48 8d 85 80 e5 ff ff 	lea    -0x1a80(%rbp),%rax
   1015b:	48 89 85 20 f0 ff ff 	mov    %rax,-0xfe0(%rbp)
   10162:	48 8d 85 7c e5 ff ff 	lea    -0x1a84(%rbp),%rax
   10169:	48 89 85 28 f0 ff ff 	mov    %rax,-0xfd8(%rbp)
   10170:	48 8d 85 84 e5 ff ff 	lea    -0x1a7c(%rbp),%rax
   10177:	48 89 85 30 f0 ff ff 	mov    %rax,-0xfd0(%rbp)
   1017e:	48 8d 85 78 e5 ff ff 	lea    -0x1a88(%rbp),%rax
   10185:	48 89 85 38 f0 ff ff 	mov    %rax,-0xfc8(%rbp)
   1018c:	48 8d 85 88 e5 ff ff 	lea    -0x1a78(%rbp),%rax
   10193:	48 89 85 40 f0 ff ff 	mov    %rax,-0xfc0(%rbp)
   1019a:	48 8d 85 80 e5 ff ff 	lea    -0x1a80(%rbp),%rax
   101a1:	48 89 85 48 f0 ff ff 	mov    %rax,-0xfb8(%rbp)
   101a8:	48 8d 85 8c e5 ff ff 	lea    -0x1a74(%rbp),%rax
   101af:	48 89 85 50 f0 ff ff 	mov    %rax,-0xfb0(%rbp)
   101b6:	48 8d 85 80 e5 ff ff 	lea    -0x1a80(%rbp),%rax
   101bd:	48 89 85 58 f0 ff ff 	mov    %rax,-0xfa8(%rbp)
   101c4:	48 8d 85 80 e5 ff ff 	lea    -0x1a80(%rbp),%rax
   101cb:	48 89 85 60 f0 ff ff 	mov    %rax,-0xfa0(%rbp)
   101d2:	48 8d 05 8f 00 01 00 	lea    0x1008f(%rip),%rax        # 20268 <g_209>
   101d9:	48 89 85 68 f0 ff ff 	mov    %rax,-0xf98(%rbp)
   101e0:	48 c7 85 70 f0 ff ff 	movq   $0x0,-0xf90(%rbp)
   101e7:	00 00 00 00 
   101eb:	48 c7 85 78 f0 ff ff 	movq   $0x0,-0xf88(%rbp)
   101f2:	00 00 00 00 
   101f6:	48 c7 85 80 f0 ff ff 	movq   $0x0,-0xf80(%rbp)
   101fd:	00 00 00 00 
   10201:	48 8d 85 88 e5 ff ff 	lea    -0x1a78(%rbp),%rax
   10208:	48 89 85 88 f0 ff ff 	mov    %rax,-0xf78(%rbp)
   1020f:	48 c7 85 90 f0 ff ff 	movq   $0x0,-0xf70(%rbp)
   10216:	00 00 00 00 
   1021a:	48 c7 85 98 f0 ff ff 	movq   $0x0,-0xf68(%rbp)
   10221:	00 00 00 00 
   10225:	48 8d 05 3c 00 01 00 	lea    0x1003c(%rip),%rax        # 20268 <g_209>
   1022c:	48 89 85 a0 f0 ff ff 	mov    %rax,-0xf60(%rbp)
   10233:	48 c7 85 a8 f0 ff ff 	movq   $0x0,-0xf58(%rbp)
   1023a:	00 00 00 00 
   1023e:	48 c7 85 b0 f0 ff ff 	movq   $0x0,-0xf50(%rbp)
   10245:	00 00 00 00 
   10249:	48 8d 85 8c e5 ff ff 	lea    -0x1a74(%rbp),%rax
   10250:	48 89 85 b8 f0 ff ff 	mov    %rax,-0xf48(%rbp)
   10257:	48 8d 05 3a 01 01 00 	lea    0x1013a(%rip),%rax        # 20398 <g_432+0x8>
   1025e:	48 89 85 c0 f0 ff ff 	mov    %rax,-0xf40(%rbp)
   10265:	48 c7 85 c8 f0 ff ff 	movq   $0x0,-0xf38(%rbp)
   1026c:	00 00 00 00 
   10270:	48 8d 85 88 e5 ff ff 	lea    -0x1a78(%rbp),%rax
   10277:	48 89 85 d0 f0 ff ff 	mov    %rax,-0xf30(%rbp)
   1027e:	48 8d 85 80 e5 ff ff 	lea    -0x1a80(%rbp),%rax
   10285:	48 89 85 d8 f0 ff ff 	mov    %rax,-0xf28(%rbp)
   1028c:	48 8d 05 b5 fd 00 00 	lea    0xfdb5(%rip),%rax        # 20048 <g_105>
   10293:	48 89 85 e0 f0 ff ff 	mov    %rax,-0xf20(%rbp)
   1029a:	48 8d 05 a7 fd 00 00 	lea    0xfda7(%rip),%rax        # 20048 <g_105>
   102a1:	48 89 85 e8 f0 ff ff 	mov    %rax,-0xf18(%rbp)
   102a8:	48 8d 85 7c e5 ff ff 	lea    -0x1a84(%rbp),%rax
   102af:	48 89 85 f0 f0 ff ff 	mov    %rax,-0xf10(%rbp)
   102b6:	48 8d 85 78 e5 ff ff 	lea    -0x1a88(%rbp),%rax
   102bd:	48 89 85 f8 f0 ff ff 	mov    %rax,-0xf08(%rbp)
   102c4:	48 8d 85 8c e5 ff ff 	lea    -0x1a74(%rbp),%rax
   102cb:	48 89 85 00 f1 ff ff 	mov    %rax,-0xf00(%rbp)
   102d2:	48 8d 05 8f ff 00 00 	lea    0xff8f(%rip),%rax        # 20268 <g_209>
   102d9:	48 89 85 08 f1 ff ff 	mov    %rax,-0xef8(%rbp)
   102e0:	48 8d 85 78 e5 ff ff 	lea    -0x1a88(%rbp),%rax
   102e7:	48 89 85 10 f1 ff ff 	mov    %rax,-0xef0(%rbp)
   102ee:	48 8d 05 a3 00 01 00 	lea    0x100a3(%rip),%rax        # 20398 <g_432+0x8>
   102f5:	48 89 85 18 f1 ff ff 	mov    %rax,-0xee8(%rbp)
   102fc:	48 8d 85 78 e5 ff ff 	lea    -0x1a88(%rbp),%rax
   10303:	48 89 85 20 f1 ff ff 	mov    %rax,-0xee0(%rbp)
   1030a:	48 8d 85 78 e5 ff ff 	lea    -0x1a88(%rbp),%rax
   10311:	48 89 85 28 f1 ff ff 	mov    %rax,-0xed8(%rbp)
   10318:	48 8d 05 59 5a 01 00 	lea    0x15a59(%rip),%rax        # 25d78 <g_185>
   1031f:	48 89 85 30 f1 ff ff 	mov    %rax,-0xed0(%rbp)
   10326:	48 8d 85 8c e5 ff ff 	lea    -0x1a74(%rbp),%rax
   1032d:	48 89 85 38 f1 ff ff 	mov    %rax,-0xec8(%rbp)
   10334:	48 8d 05 3d 5a 01 00 	lea    0x15a3d(%rip),%rax        # 25d78 <g_185>
   1033b:	48 89 85 40 f1 ff ff 	mov    %rax,-0xec0(%rbp)
   10342:	48 8d 85 78 e5 ff ff 	lea    -0x1a88(%rbp),%rax
   10349:	48 89 85 48 f1 ff ff 	mov    %rax,-0xeb8(%rbp)
   10350:	48 8d 85 78 e5 ff ff 	lea    -0x1a88(%rbp),%rax
   10357:	48 89 85 50 f1 ff ff 	mov    %rax,-0xeb0(%rbp)
   1035e:	48 8d 05 33 00 01 00 	lea    0x10033(%rip),%rax        # 20398 <g_432+0x8>
   10365:	48 89 85 58 f1 ff ff 	mov    %rax,-0xea8(%rbp)
   1036c:	48 8d 85 78 e5 ff ff 	lea    -0x1a88(%rbp),%rax
   10373:	48 89 85 60 f1 ff ff 	mov    %rax,-0xea0(%rbp)
   1037a:	48 8d 05 e7 fe 00 00 	lea    0xfee7(%rip),%rax        # 20268 <g_209>
   10381:	48 89 85 68 f1 ff ff 	mov    %rax,-0xe98(%rbp)
   10388:	48 8d 85 8c e5 ff ff 	lea    -0x1a74(%rbp),%rax
   1038f:	48 89 85 70 f1 ff ff 	mov    %rax,-0xe90(%rbp)
   10396:	48 8d 85 78 e5 ff ff 	lea    -0x1a88(%rbp),%rax
   1039d:	48 89 85 78 f1 ff ff 	mov    %rax,-0xe88(%rbp)
   103a4:	48 8d 85 7c e5 ff ff 	lea    -0x1a84(%rbp),%rax
   103ab:	48 89 85 80 f1 ff ff 	mov    %rax,-0xe80(%rbp)
   103b2:	48 8d 05 8f fc 00 00 	lea    0xfc8f(%rip),%rax        # 20048 <g_105>
   103b9:	48 89 85 88 f1 ff ff 	mov    %rax,-0xe78(%rbp)
   103c0:	48 8d 05 81 fc 00 00 	lea    0xfc81(%rip),%rax        # 20048 <g_105>
   103c7:	48 89 85 90 f1 ff ff 	mov    %rax,-0xe70(%rbp)
   103ce:	48 8d 85 80 e5 ff ff 	lea    -0x1a80(%rbp),%rax
   103d5:	48 89 85 98 f1 ff ff 	mov    %rax,-0xe68(%rbp)
   103dc:	48 8d 85 88 e5 ff ff 	lea    -0x1a78(%rbp),%rax
   103e3:	48 89 85 a0 f1 ff ff 	mov    %rax,-0xe60(%rbp)
   103ea:	48 c7 85 a8 f1 ff ff 	movq   $0x0,-0xe58(%rbp)
   103f1:	00 00 00 00 
   103f5:	48 8d 05 9c ff 00 00 	lea    0xff9c(%rip),%rax        # 20398 <g_432+0x8>
   103fc:	48 89 85 b0 f1 ff ff 	mov    %rax,-0xe50(%rbp)
   10403:	48 8d 85 8c e5 ff ff 	lea    -0x1a74(%rbp),%rax
   1040a:	48 89 85 b8 f1 ff ff 	mov    %rax,-0xe48(%rbp)
   10411:	48 c7 85 c0 f1 ff ff 	movq   $0x0,-0xe40(%rbp)
   10418:	00 00 00 00 
   1041c:	48 c7 85 c8 f1 ff ff 	movq   $0x0,-0xe38(%rbp)
   10423:	00 00 00 00 
   10427:	48 8d 05 3a fe 00 00 	lea    0xfe3a(%rip),%rax        # 20268 <g_209>
   1042e:	48 89 85 d0 f1 ff ff 	mov    %rax,-0xe30(%rbp)
   10435:	48 c7 85 d8 f1 ff ff 	movq   $0x0,-0xe28(%rbp)
   1043c:	00 00 00 00 
   10440:	48 c7 85 e0 f1 ff ff 	movq   $0x0,-0xe20(%rbp)
   10447:	00 00 00 00 
   1044b:	48 8d 85 8c e5 ff ff 	lea    -0x1a74(%rbp),%rax
   10452:	48 89 85 e8 f1 ff ff 	mov    %rax,-0xe18(%rbp)
   10459:	48 8d 05 38 ff 00 00 	lea    0xff38(%rip),%rax        # 20398 <g_432+0x8>
   10460:	48 89 85 f0 f1 ff ff 	mov    %rax,-0xe10(%rbp)
   10467:	48 c7 85 f8 f1 ff ff 	movq   $0x0,-0xe08(%rbp)
   1046e:	00 00 00 00 
   10472:	48 8d 85 88 e5 ff ff 	lea    -0x1a78(%rbp),%rax
   10479:	48 89 85 00 f2 ff ff 	mov    %rax,-0xe00(%rbp)
   10480:	48 8d 85 80 e5 ff ff 	lea    -0x1a80(%rbp),%rax
   10487:	48 89 85 08 f2 ff ff 	mov    %rax,-0xdf8(%rbp)
   1048e:	48 8d 05 b3 fb 00 00 	lea    0xfbb3(%rip),%rax        # 20048 <g_105>
   10495:	48 89 85 10 f2 ff ff 	mov    %rax,-0xdf0(%rbp)
   1049c:	48 8d 05 a5 fb 00 00 	lea    0xfba5(%rip),%rax        # 20048 <g_105>
   104a3:	48 89 85 18 f2 ff ff 	mov    %rax,-0xde8(%rbp)
   104aa:	48 8d 85 7c e5 ff ff 	lea    -0x1a84(%rbp),%rax
   104b1:	48 89 85 20 f2 ff ff 	mov    %rax,-0xde0(%rbp)
   104b8:	48 8d 85 78 e5 ff ff 	lea    -0x1a88(%rbp),%rax
   104bf:	48 89 85 28 f2 ff ff 	mov    %rax,-0xdd8(%rbp)
   104c6:	48 8d 85 8c e5 ff ff 	lea    -0x1a74(%rbp),%rax
   104cd:	48 89 85 30 f2 ff ff 	mov    %rax,-0xdd0(%rbp)
   104d4:	48 8d 05 8d fd 00 00 	lea    0xfd8d(%rip),%rax        # 20268 <g_209>
   104db:	48 89 85 38 f2 ff ff 	mov    %rax,-0xdc8(%rbp)
   104e2:	48 8d 85 78 e5 ff ff 	lea    -0x1a88(%rbp),%rax
   104e9:	48 89 85 40 f2 ff ff 	mov    %rax,-0xdc0(%rbp)
   104f0:	48 8d 05 a1 fe 00 00 	lea    0xfea1(%rip),%rax        # 20398 <g_432+0x8>
   104f7:	48 89 85 48 f2 ff ff 	mov    %rax,-0xdb8(%rbp)
   104fe:	48 8d 85 78 e5 ff ff 	lea    -0x1a88(%rbp),%rax
   10505:	48 89 85 50 f2 ff ff 	mov    %rax,-0xdb0(%rbp)
   1050c:	48 8d 85 78 e5 ff ff 	lea    -0x1a88(%rbp),%rax
   10513:	48 89 85 58 f2 ff ff 	mov    %rax,-0xda8(%rbp)
   1051a:	48 8d 05 57 58 01 00 	lea    0x15857(%rip),%rax        # 25d78 <g_185>
   10521:	48 89 85 60 f2 ff ff 	mov    %rax,-0xda0(%rbp)
   10528:	48 8d 85 8c e5 ff ff 	lea    -0x1a74(%rbp),%rax
   1052f:	48 89 85 68 f2 ff ff 	mov    %rax,-0xd98(%rbp)
   10536:	48 8d 05 3b 58 01 00 	lea    0x1583b(%rip),%rax        # 25d78 <g_185>
   1053d:	48 89 85 70 f2 ff ff 	mov    %rax,-0xd90(%rbp)
   10544:	48 8d 85 78 e5 ff ff 	lea    -0x1a88(%rbp),%rax
   1054b:	48 89 85 78 f2 ff ff 	mov    %rax,-0xd88(%rbp)
   10552:	48 8d 85 78 e5 ff ff 	lea    -0x1a88(%rbp),%rax
   10559:	48 89 85 80 f2 ff ff 	mov    %rax,-0xd80(%rbp)
   10560:	48 8d 05 31 fe 00 00 	lea    0xfe31(%rip),%rax        # 20398 <g_432+0x8>
   10567:	48 89 85 88 f2 ff ff 	mov    %rax,-0xd78(%rbp)
   1056e:	48 8d 85 78 e5 ff ff 	lea    -0x1a88(%rbp),%rax
   10575:	48 89 85 90 f2 ff ff 	mov    %rax,-0xd70(%rbp)
   1057c:	48 8d 05 e5 fc 00 00 	lea    0xfce5(%rip),%rax        # 20268 <g_209>
   10583:	48 89 85 98 f2 ff ff 	mov    %rax,-0xd68(%rbp)
   1058a:	48 8d 85 8c e5 ff ff 	lea    -0x1a74(%rbp),%rax
   10591:	48 89 85 a0 f2 ff ff 	mov    %rax,-0xd60(%rbp)
   10598:	48 8d 85 78 e5 ff ff 	lea    -0x1a88(%rbp),%rax
   1059f:	48 89 85 a8 f2 ff ff 	mov    %rax,-0xd58(%rbp)
   105a6:	48 8d 85 7c e5 ff ff 	lea    -0x1a84(%rbp),%rax
   105ad:	48 89 85 b0 f2 ff ff 	mov    %rax,-0xd50(%rbp)
   105b4:	48 8d 05 8d fa 00 00 	lea    0xfa8d(%rip),%rax        # 20048 <g_105>
   105bb:	48 89 85 b8 f2 ff ff 	mov    %rax,-0xd48(%rbp)
   105c2:	48 8d 05 7f fa 00 00 	lea    0xfa7f(%rip),%rax        # 20048 <g_105>
   105c9:	48 89 85 c0 f2 ff ff 	mov    %rax,-0xd40(%rbp)
   105d0:	48 8d 85 80 e5 ff ff 	lea    -0x1a80(%rbp),%rax
   105d7:	48 89 85 c8 f2 ff ff 	mov    %rax,-0xd38(%rbp)
   105de:	48 8d 85 88 e5 ff ff 	lea    -0x1a78(%rbp),%rax
   105e5:	48 89 85 d0 f2 ff ff 	mov    %rax,-0xd30(%rbp)
   105ec:	48 c7 85 d8 f2 ff ff 	movq   $0x0,-0xd28(%rbp)
   105f3:	00 00 00 00 
   105f7:	48 8d 05 9a fd 00 00 	lea    0xfd9a(%rip),%rax        # 20398 <g_432+0x8>
   105fe:	48 89 85 e0 f2 ff ff 	mov    %rax,-0xd20(%rbp)
   10605:	48 8d 85 8c e5 ff ff 	lea    -0x1a74(%rbp),%rax
   1060c:	48 89 85 e8 f2 ff ff 	mov    %rax,-0xd18(%rbp)
   10613:	48 c7 85 f0 f2 ff ff 	movq   $0x0,-0xd10(%rbp)
   1061a:	00 00 00 00 
   1061e:	48 c7 85 f8 f2 ff ff 	movq   $0x0,-0xd08(%rbp)
   10625:	00 00 00 00 
   10629:	48 8d 05 38 fc 00 00 	lea    0xfc38(%rip),%rax        # 20268 <g_209>
   10630:	48 89 85 00 f3 ff ff 	mov    %rax,-0xd00(%rbp)
   10637:	48 c7 85 08 f3 ff ff 	movq   $0x0,-0xcf8(%rbp)
   1063e:	00 00 00 00 
   10642:	66 c7 85 9a e8 ff ff 	movw   $0x1,-0x1766(%rbp)
   10649:	01 00 
   1064b:	66 c7 85 9c e8 ff ff 	movw   $0x1,-0x1764(%rbp)
   10652:	01 00 
   10654:	66 c7 85 9e e8 ff ff 	movw   $0x1,-0x1762(%rbp)
   1065b:	01 00 
   1065d:	66 c7 85 a0 e8 ff ff 	movw   $0x1,-0x1760(%rbp)
   10664:	01 00 
   10666:	66 c7 85 a2 e8 ff ff 	movw   $0x1,-0x175e(%rbp)
   1066d:	01 00 
   1066f:	c7 85 d4 e5 ff ff 00 	movl   $0x0,-0x1a2c(%rbp)
   10676:	00 00 00 
   10679:	eb 1a                	jmp    10695 <func_8+0xe3d>
   1067b:	8b 85 d4 e5 ff ff    	mov    -0x1a2c(%rbp),%eax
   10681:	48 98                	cltq   
   10683:	c7 84 85 a4 e8 ff ff 	movl   $0x925b7ed,-0x175c(%rbp,%rax,4)
   1068a:	ed b7 25 09 
   1068e:	83 85 d4 e5 ff ff 01 	addl   $0x1,-0x1a2c(%rbp)
   10695:	83 bd d4 e5 ff ff 02 	cmpl   $0x2,-0x1a2c(%rbp)
   1069c:	7e dd                	jle    1067b <func_8+0xe23>
   1069e:	c7 85 d4 e5 ff ff 00 	movl   $0x0,-0x1a2c(%rbp)
   106a5:	00 00 00 
   106a8:	eb 1e                	jmp    106c8 <func_8+0xe70>
   106aa:	8b 85 d4 e5 ff ff    	mov    -0x1a2c(%rbp),%eax
   106b0:	48 98                	cltq   
   106b2:	48 8d 15 af 56 01 00 	lea    0x156af(%rip),%rdx        # 25d68 <g_21>
   106b9:	48 89 94 c5 f0 e8 ff 	mov    %rdx,-0x1710(%rbp,%rax,8)
   106c0:	ff 
   106c1:	83 85 d4 e5 ff ff 01 	addl   $0x1,-0x1a2c(%rbp)
   106c8:	83 bd d4 e5 ff ff 02 	cmpl   $0x2,-0x1a2c(%rbp)
   106cf:	7e d9                	jle    106aa <func_8+0xe52>
   106d1:	48 0f be 9d 58 e5 ff 	movsbq -0x1aa8(%rbp),%rbx
   106d8:	ff 
   106d9:	48 8b 85 08 e7 ff ff 	mov    -0x18f8(%rbp),%rax
   106e0:	48 c7 00 00 00 00 00 	movq   $0x0,(%rax)
   106e7:	48 8b 85 08 e7 ff ff 	mov    -0x18f8(%rbp),%rax
   106ee:	48 8b 00             	mov    (%rax),%rax
   106f1:	48 39 85 00 e7 ff ff 	cmp    %rax,-0x1900(%rbp)
   106f8:	0f 95 c0             	setne  %al
   106fb:	44 0f b6 e0          	movzbl %al,%r12d
   106ff:	bf 00 00 00 00       	mov    $0x0,%edi
   10704:	e8 9d 97 ff ff       	callq  9ea6 <safe_unary_minus_func_uint32_t_u>
   10709:	48 8d 05 40 3c 01 00 	lea    0x13c40(%rip),%rax        # 24350 <g_179>
   10710:	48 39 85 10 e7 ff ff 	cmp    %rax,-0x18f0(%rbp)
   10717:	0f 94 c0             	sete   %al
   1071a:	0f b6 c0             	movzbl %al,%eax
   1071d:	89 c2                	mov    %eax,%edx
   1071f:	48 8b 05 22 3c 01 00 	mov    0x13c22(%rip),%rax        # 24348 <g_123>
   10726:	48 63 d2             	movslq %edx,%rdx
   10729:	48 89 10             	mov    %rdx,(%rax)
   1072c:	48 8b 00             	mov    (%rax),%rax
   1072f:	4c 09 e0             	or     %r12,%rax
   10732:	48 39 c3             	cmp    %rax,%rbx
   10735:	0f 87 9c 28 00 00    	ja     12fd7 <func_8+0x377f>
   1073b:	48 b8 80 f6 c3 4c 19 	movabs $0x71e6a1194cc3f680,%rax
   10742:	a1 e6 71 
   10745:	48 89 85 50 e9 ff ff 	mov    %rax,-0x16b0(%rbp)
   1074c:	48 bb bc 49 f1 61 ba 	movabs $0xd3ce7dba61f149bc,%rbx
   10753:	7d ce d3 
   10756:	48 89 9d 58 e9 ff ff 	mov    %rbx,-0x16a8(%rbp)
   1075d:	48 89 9d 60 e9 ff ff 	mov    %rbx,-0x16a0(%rbp)
   10764:	48 89 85 68 e9 ff ff 	mov    %rax,-0x1698(%rbp)
   1076b:	48 89 85 70 e9 ff ff 	mov    %rax,-0x1690(%rbp)
   10772:	48 89 9d 78 e9 ff ff 	mov    %rbx,-0x1688(%rbp)
   10779:	48 89 9d 80 e9 ff ff 	mov    %rbx,-0x1680(%rbp)
   10780:	48 89 85 88 e9 ff ff 	mov    %rax,-0x1678(%rbp)
   10787:	48 89 85 90 e9 ff ff 	mov    %rax,-0x1670(%rbp)
   1078e:	48 89 9d 98 e9 ff ff 	mov    %rbx,-0x1668(%rbp)
   10795:	48 89 9d a0 e9 ff ff 	mov    %rbx,-0x1660(%rbp)
   1079c:	48 89 85 a8 e9 ff ff 	mov    %rax,-0x1658(%rbp)
   107a3:	48 89 85 b0 e9 ff ff 	mov    %rax,-0x1650(%rbp)
   107aa:	48 89 9d b8 e9 ff ff 	mov    %rbx,-0x1648(%rbp)
   107b1:	48 89 9d c0 e9 ff ff 	mov    %rbx,-0x1640(%rbp)
   107b8:	48 89 85 c8 e9 ff ff 	mov    %rax,-0x1638(%rbp)
   107bf:	48 8d 05 d2 fb 00 00 	lea    0xfbd2(%rip),%rax        # 20398 <g_432+0x8>
   107c6:	48 89 85 78 e6 ff ff 	mov    %rax,-0x1988(%rbp)
   107cd:	c7 85 90 e5 ff ff 00 	movl   $0x0,-0x1a70(%rbp)
   107d4:	00 00 00 
   107d7:	c7 85 94 e5 ff ff 5c 	movl   $0xce24f95c,-0x1a6c(%rbp)
   107de:	f9 24 ce 
   107e1:	48 b8 8b 06 23 99 42 	movabs $0x9009f5429923068b,%rax
   107e8:	f5 09 90 
   107eb:	48 89 85 80 e6 ff ff 	mov    %rax,-0x1980(%rbp)
   107f2:	66 c7 85 72 e5 ff ff 	movw   $0x9857,-0x1a8e(%rbp)
   107f9:	57 98 
   107fb:	48 8d 05 de fc 00 00 	lea    0xfcde(%rip),%rax        # 204e0 <g_1139>
   10802:	48 89 85 88 e6 ff ff 	mov    %rax,-0x1978(%rbp)
   10809:	c7 85 d0 e9 ff ff fc 	movl   $0xfffffffc,-0x1630(%rbp)
   10810:	ff ff ff 
   10813:	c7 85 d4 e9 ff ff fc 	movl   $0xfffffffc,-0x162c(%rbp)
   1081a:	ff ff ff 
   1081d:	c7 85 d8 e9 ff ff 00 	movl   $0x0,-0x1628(%rbp)
   10824:	00 00 00 
   10827:	c7 85 dc e9 ff ff 50 	movl   $0xac94d750,-0x1624(%rbp)
   1082e:	d7 94 ac 
   10831:	c7 85 e0 e9 ff ff f9 	movl   $0xdde2b6f9,-0x1620(%rbp)
   10838:	b6 e2 dd 
   1083b:	c7 85 e4 e9 ff ff f9 	movl   $0xfffffff9,-0x161c(%rbp)
   10842:	ff ff ff 
   10845:	c7 85 e8 e9 ff ff 01 	movl   $0x1,-0x1618(%rbp)
   1084c:	00 00 00 
   1084f:	c7 85 ec e9 ff ff 01 	movl   $0x1,-0x1614(%rbp)
   10856:	00 00 00 
   10859:	c7 85 f0 e9 ff ff a3 	movl   $0x5cc5c0a3,-0x1610(%rbp)
   10860:	c0 c5 5c 
   10863:	c7 85 f4 e9 ff ff 00 	movl   $0x0,-0x160c(%rbp)
   1086a:	00 00 00 
   1086d:	c7 85 f8 e9 ff ff 00 	movl   $0x0,-0x1608(%rbp)
   10874:	00 00 00 
   10877:	c7 85 fc e9 ff ff a3 	movl   $0x5cc5c0a3,-0x1604(%rbp)
   1087e:	c0 c5 5c 
   10881:	c7 85 00 ea ff ff 01 	movl   $0x1,-0x1600(%rbp)
   10888:	00 00 00 
   1088b:	c7 85 04 ea ff ff 03 	movl   $0x3,-0x15fc(%rbp)
   10892:	00 00 00 
   10895:	c7 85 08 ea ff ff 01 	movl   $0x1,-0x15f8(%rbp)
   1089c:	00 00 00 
   1089f:	c7 85 0c ea ff ff 00 	movl   $0x0,-0x15f4(%rbp)
   108a6:	00 00 00 
   108a9:	c7 85 10 ea ff ff 92 	movl   $0x1edd6392,-0x15f0(%rbp)
   108b0:	63 dd 1e 
   108b3:	c7 85 14 ea ff ff 03 	movl   $0x3,-0x15ec(%rbp)
   108ba:	00 00 00 
   108bd:	c7 85 18 ea ff ff f9 	movl   $0xdde2b6f9,-0x15e8(%rbp)
   108c4:	b6 e2 dd 
   108c7:	c7 85 1c ea ff ff f9 	movl   $0xdde2b6f9,-0x15e4(%rbp)
   108ce:	b6 e2 dd 
   108d1:	c7 85 20 ea ff ff 03 	movl   $0x3,-0x15e0(%rbp)
   108d8:	00 00 00 
   108db:	c7 85 24 ea ff ff 50 	movl   $0xac94d750,-0x15dc(%rbp)
   108e2:	d7 94 ac 
   108e5:	c7 85 28 ea ff ff a9 	movl   $0x67441ba9,-0x15d8(%rbp)
   108ec:	1b 44 67 
   108ef:	c7 85 2c ea ff ff 50 	movl   $0xac94d750,-0x15d4(%rbp)
   108f6:	d7 94 ac 
   108f9:	c7 85 30 ea ff ff f9 	movl   $0xfffffff9,-0x15d0(%rbp)
   10900:	ff ff ff 
   10903:	c7 85 34 ea ff ff 03 	movl   $0x3,-0x15cc(%rbp)
   1090a:	00 00 00 
   1090d:	c7 85 38 ea ff ff 01 	movl   $0x1,-0x15c8(%rbp)
   10914:	00 00 00 
   10917:	c7 85 3c ea ff ff 01 	movl   $0x1,-0x15c4(%rbp)
   1091e:	00 00 00 
   10921:	c7 85 40 ea ff ff 92 	movl   $0x1edd6392,-0x15c0(%rbp)
   10928:	63 dd 1e 
   1092b:	c7 85 44 ea ff ff 00 	movl   $0x0,-0x15bc(%rbp)
   10932:	00 00 00 
   10935:	c7 85 48 ea ff ff 01 	movl   $0x1,-0x15b8(%rbp)
   1093c:	00 00 00 
   1093f:	c7 85 4c ea ff ff f9 	movl   $0xfffffff9,-0x15b4(%rbp)
   10946:	ff ff ff 
   10949:	c7 85 50 ea ff ff 01 	movl   $0x1,-0x15b0(%rbp)
   10950:	00 00 00 
   10953:	c7 85 54 ea ff ff 00 	movl   $0x0,-0x15ac(%rbp)
   1095a:	00 00 00 
   1095d:	c7 85 58 ea ff ff 92 	movl   $0x1edd6392,-0x15a8(%rbp)
   10964:	63 dd 1e 
   10967:	c7 85 5c ea ff ff 00 	movl   $0x0,-0x15a4(%rbp)
   1096e:	00 00 00 
   10971:	c7 85 60 ea ff ff a3 	movl   $0x5cc5c0a3,-0x15a0(%rbp)
   10978:	c0 c5 5c 
   1097b:	c7 85 64 ea ff ff 01 	movl   $0x1,-0x159c(%rbp)
   10982:	00 00 00 
   10985:	c7 85 68 ea ff ff 03 	movl   $0x3,-0x1598(%rbp)
   1098c:	00 00 00 
   1098f:	c7 85 6c ea ff ff fc 	movl   $0xfffffffc,-0x1594(%rbp)
   10996:	ff ff ff 
   10999:	c7 85 70 ea ff ff 01 	movl   $0x1,-0x1590(%rbp)
   109a0:	00 00 00 
   109a3:	c7 85 74 ea ff ff fc 	movl   $0xfffffffc,-0x158c(%rbp)
   109aa:	ff ff ff 
   109ad:	c7 85 78 ea ff ff 00 	movl   $0x0,-0x1588(%rbp)
   109b4:	00 00 00 
   109b7:	c7 85 7c ea ff ff fc 	movl   $0xfffffffc,-0x1584(%rbp)
   109be:	ff ff ff 
   109c1:	c7 85 80 ea ff ff fc 	movl   $0xfffffffc,-0x1580(%rbp)
   109c8:	ff ff ff 
   109cb:	c7 85 84 ea ff ff 00 	movl   $0x0,-0x157c(%rbp)
   109d2:	00 00 00 
   109d5:	c7 85 88 ea ff ff 50 	movl   $0xac94d750,-0x1578(%rbp)
   109dc:	d7 94 ac 
   109df:	c7 85 8c ea ff ff f9 	movl   $0xdde2b6f9,-0x1574(%rbp)
   109e6:	b6 e2 dd 
   109e9:	c7 85 90 ea ff ff f9 	movl   $0xfffffff9,-0x1570(%rbp)
   109f0:	ff ff ff 
   109f3:	48 c7 85 68 e7 ff ff 	movq   $0x0,-0x1898(%rbp)
   109fa:	00 00 00 00 
   109fe:	48 8d 85 10 f3 ff ff 	lea    -0xcf0(%rbp),%rax
   10a05:	48 8d 15 b4 24 01 00 	lea    0x124b4(%rip),%rdx        # 22ec0 <g_2982+0xf30>
   10a0c:	b9 a0 00 00 00       	mov    $0xa0,%ecx
   10a11:	48 89 c7             	mov    %rax,%rdi
   10a14:	48 89 d6             	mov    %rdx,%rsi
   10a17:	f3 48 a5             	rep movsq %ds:(%rsi),%es:(%rdi)
   10a1a:	48 c7 85 90 e6 ff ff 	movq   $0x0,-0x1970(%rbp)
   10a21:	00 00 00 00 
   10a25:	48 8d 05 ac 53 01 00 	lea    0x153ac(%rip),%rax        # 25dd8 <g_1014>
   10a2c:	48 89 85 98 e6 ff ff 	mov    %rax,-0x1968(%rbp)
   10a33:	48 8d 85 98 e6 ff ff 	lea    -0x1968(%rbp),%rax
   10a3a:	48 89 85 70 e7 ff ff 	mov    %rax,-0x1890(%rbp)
   10a41:	c7 85 20 e6 ff ff ff 	movl   $0xffffffff,-0x19e0(%rbp)
   10a48:	ff ff ff 
   10a4b:	48 8d 85 50 e6 ff ff 	lea    -0x19b0(%rbp),%rax
   10a52:	48 89 85 78 e7 ff ff 	mov    %rax,-0x1888(%rbp)
   10a59:	c7 85 d8 e5 ff ff 00 	movl   $0x0,-0x1a28(%rbp)
   10a60:	00 00 00 
   10a63:	eb 1a                	jmp    10a7f <func_8+0x1227>
   10a65:	8b 85 d8 e5 ff ff    	mov    -0x1a28(%rbp),%eax
   10a6b:	48 98                	cltq   
   10a6d:	c7 84 85 c0 e8 ff ff 	movl   $0xffffffff,-0x1740(%rbp,%rax,4)
   10a74:	ff ff ff ff 
   10a78:	83 85 d8 e5 ff ff 01 	addl   $0x1,-0x1a28(%rbp)
   10a7f:	83 bd d8 e5 ff ff 03 	cmpl   $0x3,-0x1a28(%rbp)
   10a86:	7e dd                	jle    10a65 <func_8+0x120d>
   10a88:	90                   	nop
   10a89:	48 8b 85 78 e6 ff ff 	mov    -0x1988(%rbp),%rax
   10a90:	c7 00 fc ff ff ff    	movl   $0xfffffffc,(%rax)
   10a96:	8b 85 78 e5 ff ff    	mov    -0x1a88(%rbp),%eax
   10a9c:	41 89 c4             	mov    %eax,%r12d
   10a9f:	48 8b 05 aa 38 01 00 	mov    0x138aa(%rip),%rax        # 24350 <g_179>
   10aa6:	0f b6 00             	movzbl (%rax),%eax
   10aa9:	0f b6 d8             	movzbl %al,%ebx
   10aac:	8b 05 26 fa 00 00    	mov    0xfa26(%rip),%eax        # 204d8 <g_1100>
   10ab2:	8b 05 24 fa 00 00    	mov    0xfa24(%rip),%eax        # 204dc <g_1101>
   10ab8:	8b 85 78 e5 ff ff    	mov    -0x1a88(%rbp),%eax
   10abe:	83 f8 75             	cmp    $0x75,%eax
   10ac1:	0f 9f c0             	setg   %al
   10ac4:	0f b6 c0             	movzbl %al,%eax
   10ac7:	be 04 00 00 00       	mov    $0x4,%esi
   10acc:	89 c7                	mov    %eax,%edi
   10ace:	e8 99 88 ff ff       	callq  936c <safe_rshift_func_int8_t_s_u>
   10ad3:	c6 85 58 e5 ff ff 01 	movb   $0x1,-0x1aa8(%rbp)
   10ada:	0f be 85 58 e5 ff ff 	movsbl -0x1aa8(%rbp),%eax
   10ae1:	39 c3                	cmp    %eax,%ebx
   10ae3:	0f 95 c2             	setne  %dl
   10ae6:	48 8b 05 13 3b 01 00 	mov    0x13b13(%rip),%rax        # 24600 <g_548>
   10aed:	0f b6 d2             	movzbl %dl,%edx
   10af0:	66 89 10             	mov    %dx,(%rax)
   10af3:	48 8b 85 48 e5 ff ff 	mov    -0x1ab8(%rbp),%rax
   10afa:	48 89 c6             	mov    %rax,%rsi
   10afd:	bf 00 00 00 00       	mov    $0x0,%edi
   10b02:	e8 a8 95 ff ff       	callq  a0af <safe_div_func_uint64_t_u_u>
   10b07:	48 85 c0             	test   %rax,%rax
   10b0a:	75 09                	jne    10b15 <func_8+0x12bd>
   10b0c:	80 bd 58 e5 ff ff 00 	cmpb   $0x0,-0x1aa8(%rbp)
   10b13:	74 07                	je     10b1c <func_8+0x12c4>
   10b15:	b8 01 00 00 00       	mov    $0x1,%eax
   10b1a:	eb 05                	jmp    10b21 <func_8+0x12c9>
   10b1c:	b8 00 00 00 00       	mov    $0x0,%eax
   10b21:	83 f8 02             	cmp    $0x2,%eax
   10b24:	0f 9f c0             	setg   %al
   10b27:	0f b6 c0             	movzbl %al,%eax
   10b2a:	48 8b 95 48 e5 ff ff 	mov    -0x1ab8(%rbp),%rdx
   10b31:	09 d0                	or     %edx,%eax
   10b33:	be 7a 15 9f c5       	mov    $0xc59f157a,%esi
   10b38:	89 c7                	mov    %eax,%edi
   10b3a:	e8 e6 93 ff ff       	callq  9f25 <safe_div_func_uint32_t_u_u>
   10b3f:	83 f8 09             	cmp    $0x9,%eax
   10b42:	0f 96 c0             	setbe  %al
   10b45:	0f b6 c0             	movzbl %al,%eax
   10b48:	44 89 e6             	mov    %r12d,%esi
   10b4b:	89 c7                	mov    %eax,%edi
   10b4d:	e8 ab 93 ff ff       	callq  9efd <safe_mod_func_uint32_t_u_u>
   10b52:	0f b7 c0             	movzwl %ax,%eax
   10b55:	be 50 81 00 00       	mov    $0x8150,%esi
   10b5a:	89 c7                	mov    %eax,%edi
   10b5c:	e8 2d 92 ff ff       	callq  9d8e <safe_div_func_uint16_t_u_u>
   10b61:	66 85 c0             	test   %ax,%ax
   10b64:	0f 84 be 03 00 00    	je     10f28 <func_8+0x16d0>
   10b6a:	48 8d 05 d3 f4 00 00 	lea    0xf4d3(%rip),%rax        # 20044 <g_101>
   10b71:	48 89 85 e0 e7 ff ff 	mov    %rax,-0x1820(%rbp)
   10b78:	48 c7 85 e8 e7 ff ff 	movq   $0x0,-0x1818(%rbp)
   10b7f:	00 00 00 00 
   10b83:	48 8d 05 a6 f4 00 00 	lea    0xf4a6(%rip),%rax        # 20030 <g_58>
   10b8a:	48 89 85 f0 e7 ff ff 	mov    %rax,-0x1810(%rbp)
   10b91:	48 8d 05 a0 f8 00 00 	lea    0xf8a0(%rip),%rax        # 20438 <g_1049>
   10b98:	48 89 85 f8 e7 ff ff 	mov    %rax,-0x1808(%rbp)
   10b9f:	48 8d 85 78 e6 ff ff 	lea    -0x1988(%rbp),%rax
   10ba6:	48 89 85 00 e8 ff ff 	mov    %rax,-0x1800(%rbp)
   10bad:	48 8d 85 88 e6 ff ff 	lea    -0x1978(%rbp),%rax
   10bb4:	48 89 85 08 e8 ff ff 	mov    %rax,-0x17f8(%rbp)
   10bbb:	48 8d 05 0e f7 00 00 	lea    0xf70e(%rip),%rax        # 202d0 <g_326>
   10bc2:	48 89 85 10 e8 ff ff 	mov    %rax,-0x17f0(%rbp)
   10bc9:	66 c7 85 74 e5 ff ff 	movw   $0x1,-0x1a8c(%rbp)
   10bd0:	01 00 
   10bd2:	48 8d 05 1f 52 01 00 	lea    0x1521f(%rip),%rax        # 25df8 <g_1228>
   10bd9:	48 89 85 a8 e6 ff ff 	mov    %rax,-0x1958(%rbp)
   10be0:	48 8d 85 a8 e6 ff ff 	lea    -0x1958(%rbp),%rax
   10be7:	48 89 85 18 e8 ff ff 	mov    %rax,-0x17e8(%rbp)
   10bee:	c7 85 ac e5 ff ff 00 	movl   $0x0,-0x1a54(%rbp)
   10bf5:	00 00 00 
   10bf8:	eb 1e                	jmp    10c18 <func_8+0x13c0>
   10bfa:	8b 85 ac e5 ff ff    	mov    -0x1a54(%rbp),%eax
   10c00:	48 98                	cltq   
   10c02:	48 8d 15 73 51 01 00 	lea    0x15173(%rip),%rdx        # 25d7c <g_185+0x4>
   10c09:	48 89 94 c5 10 e9 ff 	mov    %rdx,-0x16f0(%rbp,%rax,8)
   10c10:	ff 
   10c11:	83 85 ac e5 ff ff 01 	addl   $0x1,-0x1a54(%rbp)
   10c18:	83 bd ac e5 ff ff 02 	cmpl   $0x2,-0x1a54(%rbp)
   10c1f:	7e d9                	jle    10bfa <func_8+0x13a2>
   10c21:	83 85 a8 e5 ff ff 01 	addl   $0x1,-0x1a58(%rbp)
   10c28:	0f b7 9d 72 e5 ff ff 	movzwl -0x1a8e(%rbp),%ebx
   10c2f:	8b 85 7c e5 ff ff    	mov    -0x1a84(%rbp),%eax
   10c35:	39 85 54 e5 ff ff    	cmp    %eax,-0x1aac(%rbp)
   10c3b:	0f 9f c0             	setg   %al
   10c3e:	44 0f b6 e8          	movzbl %al,%r13d
   10c42:	48 8b 85 78 e6 ff ff 	mov    -0x1988(%rbp),%rax
   10c49:	8b 00                	mov    (%rax),%eax
   10c4b:	41 89 c4             	mov    %eax,%r12d
   10c4e:	48 8b 85 10 e7 ff ff 	mov    -0x18f0(%rbp),%rax
   10c55:	48 8b 00             	mov    (%rax),%rax
   10c58:	0f b6 10             	movzbl (%rax),%edx
   10c5b:	83 ea 01             	sub    $0x1,%edx
   10c5e:	88 10                	mov    %dl,(%rax)
   10c60:	0f b6 00             	movzbl (%rax),%eax
   10c63:	0f b6 c0             	movzbl %al,%eax
   10c66:	be 84 00 00 00       	mov    $0x84,%esi
   10c6b:	89 c7                	mov    %eax,%edi
   10c6d:	e8 e8 8e ff ff       	callq  9b5a <safe_add_func_uint8_t_u_u>
   10c72:	89 c2                	mov    %eax,%edx
   10c74:	48 8b 85 50 e6 ff ff 	mov    -0x19b0(%rbp),%rax
   10c7b:	48 8b 00             	mov    (%rax),%rax
   10c7e:	0f b6 d2             	movzbl %dl,%edx
   10c81:	89 10                	mov    %edx,(%rax)
   10c83:	8b 00                	mov    (%rax),%eax
   10c85:	41 39 c4             	cmp    %eax,%r12d
   10c88:	0f 96 c0             	setbe  %al
   10c8b:	0f b6 d0             	movzbl %al,%edx
   10c8e:	48 8b 05 b3 36 01 00 	mov    0x136b3(%rip),%rax        # 24348 <g_123>
   10c95:	48 8b 08             	mov    (%rax),%rcx
   10c98:	48 63 d2             	movslq %edx,%rdx
   10c9b:	48 8b 05 a6 36 01 00 	mov    0x136a6(%rip),%rax        # 24348 <g_123>
   10ca2:	48 21 ca             	and    %rcx,%rdx
   10ca5:	48 89 10             	mov    %rdx,(%rax)
   10ca8:	48 8b 10             	mov    (%rax),%rdx
   10cab:	48 8b 85 78 e6 ff ff 	mov    -0x1988(%rbp),%rax
   10cb2:	8b 00                	mov    (%rax),%eax
   10cb4:	48 98                	cltq   
   10cb6:	48 39 c2             	cmp    %rax,%rdx
   10cb9:	0f 95 c0             	setne  %al
   10cbc:	0f b6 c0             	movzbl %al,%eax
   10cbf:	be 07 00 00 00       	mov    $0x7,%esi
   10cc4:	89 c7                	mov    %eax,%edi
   10cc6:	e8 d6 85 ff ff       	callq  92a1 <safe_lshift_func_int8_t_s_s>
   10ccb:	41 89 c4             	mov    %eax,%r12d
   10cce:	8b 85 54 e5 ff ff    	mov    -0x1aac(%rbp),%eax
   10cd4:	0f be d0             	movsbl %al,%edx
   10cd7:	48 8b 85 78 e6 ff ff 	mov    -0x1988(%rbp),%rax
   10cde:	8b 00                	mov    (%rax),%eax
   10ce0:	89 c6                	mov    %eax,%esi
   10ce2:	0f b7 05 e7 f7 00 00 	movzwl 0xf7e7(%rip),%eax        # 204d0 <g_1084>
   10ce9:	0f bf c8             	movswl %ax,%ecx
   10cec:	48 8b 85 78 e6 ff ff 	mov    -0x1988(%rbp),%rax
   10cf3:	8b 00                	mov    (%rax),%eax
   10cf5:	39 c1                	cmp    %eax,%ecx
   10cf7:	0f 95 c0             	setne  %al
   10cfa:	0f b6 c8             	movzbl %al,%ecx
   10cfd:	48 8b 85 e0 e7 ff ff 	mov    -0x1820(%rbp),%rax
   10d04:	89 08                	mov    %ecx,(%rax)
   10d06:	48 8b 85 e0 e7 ff ff 	mov    -0x1820(%rbp),%rax
   10d0d:	8b 00                	mov    (%rax),%eax
   10d0f:	39 c6                	cmp    %eax,%esi
   10d11:	0f 93 c0             	setae  %al
   10d14:	89 c1                	mov    %eax,%ecx
   10d16:	48 8b 85 f0 e7 ff ff 	mov    -0x1810(%rbp),%rax
   10d1d:	88 08                	mov    %cl,(%rax)
   10d1f:	48 8b 85 f0 e7 ff ff 	mov    -0x1810(%rbp),%rax
   10d26:	0f b6 00             	movzbl (%rax),%eax
   10d29:	88 85 58 e5 ff ff    	mov    %al,-0x1aa8(%rbp)
   10d2f:	0f be 85 58 e5 ff ff 	movsbl -0x1aa8(%rbp),%eax
   10d36:	89 d6                	mov    %edx,%esi
   10d38:	89 c7                	mov    %eax,%edi
   10d3a:	e8 f2 84 ff ff       	callq  9231 <safe_mod_func_int8_t_s_s>
   10d3f:	41 38 c4             	cmp    %al,%r12b
   10d42:	0f 95 c0             	setne  %al
   10d45:	0f b6 d0             	movzbl %al,%edx
   10d48:	48 8b 85 f8 e7 ff ff 	mov    -0x1808(%rbp),%rax
   10d4f:	66 89 10             	mov    %dx,(%rax)
   10d52:	48 8b 85 f8 e7 ff ff 	mov    -0x1808(%rbp),%rax
   10d59:	0f b7 00             	movzwl (%rax),%eax
   10d5c:	98                   	cwtl   
   10d5d:	41 39 c5             	cmp    %eax,%r13d
   10d60:	0f 95 c0             	setne  %al
   10d63:	0f b6 d0             	movzbl %al,%edx
   10d66:	48 8b 85 80 e6 ff ff 	mov    -0x1980(%rbp),%rax
   10d6d:	48 39 c2             	cmp    %rax,%rdx
   10d70:	0f 9c c0             	setl   %al
   10d73:	0f b6 c0             	movzbl %al,%eax
   10d76:	48 89 de             	mov    %rbx,%rsi
   10d79:	48 89 c7             	mov    %rax,%rdi
   10d7c:	e8 2e 93 ff ff       	callq  a0af <safe_div_func_uint64_t_u_u>
   10d81:	89 c2                	mov    %eax,%edx
   10d83:	48 8b 85 78 e6 ff ff 	mov    -0x1988(%rbp),%rax
   10d8a:	8b 00                	mov    (%rax),%eax
   10d8c:	31 c2                	xor    %eax,%edx
   10d8e:	48 8b 85 78 e6 ff ff 	mov    -0x1988(%rbp),%rax
   10d95:	89 10                	mov    %edx,(%rax)
   10d97:	48 8b 85 00 e8 ff ff 	mov    -0x1800(%rbp),%rax
   10d9e:	48 8d 95 94 e5 ff ff 	lea    -0x1a6c(%rbp),%rdx
   10da5:	48 89 10             	mov    %rdx,(%rax)
   10da8:	48 c7 05 1d f5 00 00 	movq   $0x0,0xf51d(%rip)        # 202d0 <g_326>
   10daf:	00 00 00 00 
   10db3:	e9 5a 01 00 00       	jmpq   10f12 <func_8+0x16ba>
   10db8:	c7 85 2c e6 ff ff 5c 	movl   $0x5f478c5c,-0x19d4(%rbp)
   10dbf:	8c 47 5f 
   10dc2:	48 c7 85 a0 ea ff ff 	movq   $0x0,-0x1560(%rbp)
   10dc9:	00 00 00 00 
   10dcd:	48 8d 05 18 f6 00 00 	lea    0xf618(%rip),%rax        # 203ec <g_829>
   10dd4:	48 89 85 a8 ea ff ff 	mov    %rax,-0x1558(%rbp)
   10ddb:	48 8d 05 0a f6 00 00 	lea    0xf60a(%rip),%rax        # 203ec <g_829>
   10de2:	48 89 85 b0 ea ff ff 	mov    %rax,-0x1550(%rbp)
   10de9:	48 c7 85 b8 ea ff ff 	movq   $0x0,-0x1548(%rbp)
   10df0:	00 00 00 00 
   10df4:	48 8d 05 f1 f5 00 00 	lea    0xf5f1(%rip),%rax        # 203ec <g_829>
   10dfb:	48 89 85 c0 ea ff ff 	mov    %rax,-0x1540(%rbp)
   10e02:	48 8d 05 e3 f5 00 00 	lea    0xf5e3(%rip),%rax        # 203ec <g_829>
   10e09:	48 89 85 c8 ea ff ff 	mov    %rax,-0x1538(%rbp)
   10e10:	48 c7 85 d0 ea ff ff 	movq   $0x0,-0x1530(%rbp)
   10e17:	00 00 00 00 
   10e1b:	48 8d 05 ca f5 00 00 	lea    0xf5ca(%rip),%rax        # 203ec <g_829>
   10e22:	48 89 85 d8 ea ff ff 	mov    %rax,-0x1528(%rbp)
   10e29:	48 8d 05 bc f5 00 00 	lea    0xf5bc(%rip),%rax        # 203ec <g_829>
   10e30:	48 89 85 e0 ea ff ff 	mov    %rax,-0x1520(%rbp)
   10e37:	c7 85 30 e6 ff ff 9d 	movl   $0x38302d9d,-0x19d0(%rbp)
   10e3e:	2d 30 38 
   10e41:	48 8d 85 10 f8 ff ff 	lea    -0x7f0(%rbp),%rax
   10e48:	48 8d 15 91 a5 00 00 	lea    0xa591(%rip),%rdx        # 1b3e0 <g_2720+0x2e8>
   10e4f:	b9 25 00 00 00       	mov    $0x25,%ecx
   10e54:	48 89 c7             	mov    %rax,%rdi
   10e57:	48 89 d6             	mov    %rdx,%rsi
   10e5a:	f3 48 a5             	rep movsq %ds:(%rsi),%es:(%rdi)
   10e5d:	48 89 f2             	mov    %rsi,%rdx
   10e60:	48 89 f8             	mov    %rdi,%rax
   10e63:	8b 0a                	mov    (%rdx),%ecx
   10e65:	89 08                	mov    %ecx,(%rax)
   10e67:	48 8d 05 c2 f1 00 00 	lea    0xf1c2(%rip),%rax        # 20030 <g_58>
   10e6e:	48 89 85 b0 e6 ff ff 	mov    %rax,-0x1950(%rbp)
   10e75:	48 8d 05 54 f4 00 00 	lea    0xf454(%rip),%rax        # 202d0 <g_326>
   10e7c:	48 89 85 20 e8 ff ff 	mov    %rax,-0x17e0(%rbp)
   10e83:	48 8d 85 b0 e6 ff ff 	lea    -0x1950(%rbp),%rax
   10e8a:	48 89 85 28 e8 ff ff 	mov    %rax,-0x17d8(%rbp)
   10e91:	48 8d 05 58 f5 00 00 	lea    0xf558(%rip),%rax        # 203f0 <g_860>
   10e98:	48 89 85 30 e8 ff ff 	mov    %rax,-0x17d0(%rbp)
   10e9f:	66 c7 85 d0 e8 ff ff 	movw   $0x333c,-0x1730(%rbp)
   10ea6:	3c 33 
   10ea8:	66 c7 85 d2 e8 ff ff 	movw   $0x5b56,-0x172e(%rbp)
   10eaf:	56 5b 
   10eb1:	66 c7 85 d4 e8 ff ff 	movw   $0x333c,-0x172c(%rbp)
   10eb8:	3c 33 
   10eba:	66 c7 85 d6 e8 ff ff 	movw   $0x5b56,-0x172a(%rbp)
   10ec1:	56 5b 
   10ec3:	66 c7 85 d8 e8 ff ff 	movw   $0x333c,-0x1728(%rbp)
   10eca:	3c 33 
   10ecc:	66 c7 85 da e8 ff ff 	movw   $0x5b56,-0x1726(%rbp)
   10ed3:	56 5b 
   10ed5:	66 c7 85 dc e8 ff ff 	movw   $0x333c,-0x1724(%rbp)
   10edc:	3c 33 
   10ede:	66 c7 85 de e8 ff ff 	movw   $0x5b56,-0x1722(%rbp)
   10ee5:	56 5b 
   10ee7:	66 c7 85 e0 e8 ff ff 	movw   $0x333c,-0x1720(%rbp)
   10eee:	3c 33 
   10ef0:	66 c7 85 e2 e8 ff ff 	movw   $0x5b56,-0x171e(%rbp)
   10ef7:	56 5b 
   10ef9:	c6 85 6c e5 ff ff 2c 	movb   $0x2c,-0x1a94(%rbp)
   10f00:	48 8b 05 c9 f3 00 00 	mov    0xf3c9(%rip),%rax        # 202d0 <g_326>
   10f07:	48 83 c0 01          	add    $0x1,%rax
   10f0b:	48 89 05 be f3 00 00 	mov    %rax,0xf3be(%rip)        # 202d0 <g_326>
   10f12:	48 8b 05 b7 f3 00 00 	mov    0xf3b7(%rip),%rax        # 202d0 <g_326>
   10f19:	48 83 f8 07          	cmp    $0x7,%rax
   10f1d:	0f 87 95 fe ff ff    	ja     10db8 <func_8+0x1560>
   10f23:	e9 7a 07 00 00       	jmpq   116a2 <func_8+0x1e4a>
   10f28:	48 8d 05 21 34 01 00 	lea    0x13421(%rip),%rax        # 24350 <g_179>
   10f2f:	48 89 85 80 e7 ff ff 	mov    %rax,-0x1880(%rbp)
   10f36:	c7 85 24 e6 ff ff f9 	movl   $0xfffffff9,-0x19dc(%rbp)
   10f3d:	ff ff ff 
   10f40:	c6 85 6b e5 ff ff 02 	movb   $0x2,-0x1a95(%rbp)
   10f47:	48 8d 05 2a 36 01 00 	lea    0x1362a(%rip),%rax        # 24578 <g_360>
   10f4e:	48 89 85 88 e7 ff ff 	mov    %rax,-0x1878(%rbp)
   10f55:	48 b8 bd 84 fc a0 f6 	movabs $0x673364f6a0fc84bd,%rax
   10f5c:	64 33 67 
   10f5f:	48 89 85 90 e7 ff ff 	mov    %rax,-0x1870(%rbp)
   10f66:	c6 05 c3 f0 00 00 00 	movb   $0x0,0xf0c3(%rip)        # 20030 <g_58>
   10f6d:	e9 e7 06 00 00       	jmpq   11659 <func_8+0x1e01>
   10f72:	48 c7 85 a0 e6 ff ff 	movq   $0x0,-0x1960(%rbp)
   10f79:	00 00 00 00 
   10f7d:	c7 85 28 e6 ff ff 06 	movl   $0x6,-0x19d8(%rbp)
   10f84:	00 00 00 
   10f87:	c7 85 b0 e5 ff ff 00 	movl   $0x0,-0x1a50(%rbp)
   10f8e:	00 00 00 
   10f91:	e9 87 00 00 00       	jmpq   1101d <func_8+0x17c5>
   10f96:	c7 85 b4 e5 ff ff 00 	movl   $0x0,-0x1a4c(%rbp)
   10f9d:	00 00 00 
   10fa0:	eb 6b                	jmp    1100d <func_8+0x17b5>
   10fa2:	c7 85 b8 e5 ff ff 00 	movl   $0x0,-0x1a48(%rbp)
   10fa9:	00 00 00 
   10fac:	eb 4f                	jmp    10ffd <func_8+0x17a5>
   10fae:	8b 85 b8 e5 ff ff    	mov    -0x1a48(%rbp),%eax
   10fb4:	48 63 f0             	movslq %eax,%rsi
   10fb7:	8b 85 b0 e5 ff ff    	mov    -0x1a50(%rbp),%eax
   10fbd:	48 63 d0             	movslq %eax,%rdx
   10fc0:	8b 85 b4 e5 ff ff    	mov    -0x1a4c(%rbp),%eax
   10fc6:	48 63 c8             	movslq %eax,%rcx
   10fc9:	48 89 d0             	mov    %rdx,%rax
   10fcc:	48 c1 e0 03          	shl    $0x3,%rax
   10fd0:	48 29 d0             	sub    %rdx,%rax
   10fd3:	48 01 c0             	add    %rax,%rax
   10fd6:	48 89 ca             	mov    %rcx,%rdx
   10fd9:	48 c1 e2 03          	shl    $0x3,%rdx
   10fdd:	48 29 ca             	sub    %rcx,%rdx
   10fe0:	48 01 d0             	add    %rdx,%rax
   10fe3:	48 8d 14 30          	lea    (%rax,%rsi,1),%rdx
   10fe7:	48 8d 85 88 e6 ff ff 	lea    -0x1978(%rbp),%rax
   10fee:	48 89 84 d5 10 f8 ff 	mov    %rax,-0x7f0(%rbp,%rdx,8)
   10ff5:	ff 
   10ff6:	83 85 b8 e5 ff ff 01 	addl   $0x1,-0x1a48(%rbp)
   10ffd:	83 bd b8 e5 ff ff 06 	cmpl   $0x6,-0x1a48(%rbp)
   11004:	7e a8                	jle    10fae <func_8+0x1756>
   11006:	83 85 b4 e5 ff ff 01 	addl   $0x1,-0x1a4c(%rbp)
   1100d:	83 bd b4 e5 ff ff 01 	cmpl   $0x1,-0x1a4c(%rbp)
   11014:	7e 8c                	jle    10fa2 <func_8+0x174a>
   11016:	83 85 b0 e5 ff ff 01 	addl   $0x1,-0x1a50(%rbp)
   1101d:	83 bd b0 e5 ff ff 01 	cmpl   $0x1,-0x1a50(%rbp)
   11024:	0f 8e 6c ff ff ff    	jle    10f96 <func_8+0x173e>
   1102a:	83 bd 54 e5 ff ff 00 	cmpl   $0x0,-0x1aac(%rbp)
   11031:	0f 85 33 06 00 00    	jne    1166a <func_8+0x1e12>
   11037:	48 8b 85 78 e6 ff ff 	mov    -0x1988(%rbp),%rax
   1103e:	0f b7 95 5c e5 ff ff 	movzwl -0x1aa4(%rbp),%edx
   11045:	89 10                	mov    %edx,(%rax)
   11047:	c7 85 78 e5 ff ff 00 	movl   $0x0,-0x1a88(%rbp)
   1104e:	00 00 00 
   11051:	e9 e5 05 00 00       	jmpq   1163b <func_8+0x1de3>
   11056:	48 b8 3e 1c 3e 3e 1c 	movabs $0x1c3e3e1c3e3e1c3e,%rax
   1105d:	3e 3e 1c 
   11060:	48 89 45 be          	mov    %rax,-0x42(%rbp)
   11064:	66 c7 45 c6 3e 3e    	movw   $0x3e3e,-0x3a(%rbp)
   1106a:	48 8d 85 88 e6 ff ff 	lea    -0x1978(%rbp),%rax
   11071:	48 89 85 98 e7 ff ff 	mov    %rax,-0x1868(%rbp)
   11078:	c7 85 bc e5 ff ff 00 	movl   $0x0,-0x1a44(%rbp)
   1107f:	00 00 00 
   11082:	eb 19                	jmp    1109d <func_8+0x1845>
   11084:	8b 85 bc e5 ff ff    	mov    -0x1a44(%rbp),%eax
   1108a:	48 98                	cltq   
   1108c:	66 c7 84 45 a0 ea ff 	movw   $0xc46c,-0x1560(%rbp,%rax,2)
   11093:	ff 6c c4 
   11096:	83 85 bc e5 ff ff 01 	addl   $0x1,-0x1a44(%rbp)
   1109d:	83 bd bc e5 ff ff 00 	cmpl   $0x0,-0x1a44(%rbp)
   110a4:	7e de                	jle    11084 <func_8+0x182c>
   110a6:	8b 85 7c e5 ff ff    	mov    -0x1a84(%rbp),%eax
   110ac:	85 c0                	test   %eax,%eax
   110ae:	0f 84 a8 00 00 00    	je     1115c <func_8+0x1904>
   110b4:	48 c7 85 a8 e7 ff ff 	movq   $0x0,-0x1858(%rbp)
   110bb:	00 00 00 00 
   110bf:	48 8d 05 b2 34 01 00 	lea    0x134b2(%rip),%rax        # 24578 <g_360>
   110c6:	48 89 85 b0 e7 ff ff 	mov    %rax,-0x1850(%rbp)
   110cd:	48 8b 05 a4 35 01 00 	mov    0x135a4(%rip),%rax        # 24678 <g_765>
   110d4:	48 8b 85 b0 e7 ff ff 	mov    -0x1850(%rbp),%rax
   110db:	48 8b 95 e8 e6 ff ff 	mov    -0x1918(%rbp),%rdx
   110e2:	48 89 10             	mov    %rdx,(%rax)
   110e5:	48 8b 05 14 35 01 00 	mov    0x13514(%rip),%rax        # 24600 <g_548>
   110ec:	0f b7 00             	movzwl (%rax),%eax
   110ef:	0f b7 c0             	movzwl %ax,%eax
   110f2:	be 06 00 00 00       	mov    $0x6,%esi
   110f7:	89 c7                	mov    %eax,%edi
   110f9:	e8 c0 8c ff ff       	callq  9dbe <safe_lshift_func_uint16_t_u_s>
   110fe:	0f b7 c0             	movzwl %ax,%eax
   11101:	33 85 54 e5 ff ff    	xor    -0x1aac(%rbp),%eax
   11107:	41 89 c5             	mov    %eax,%r13d
   1110a:	8b 85 54 e5 ff ff    	mov    -0x1aac(%rbp),%eax
   11110:	0f b7 d8             	movzwl %ax,%ebx
   11113:	0f b6 85 6b e5 ff ff 	movzbl -0x1a95(%rbp),%eax
   1111a:	44 0f b6 e0          	movzbl %al,%r12d
   1111e:	83 bd 24 e6 ff ff 00 	cmpl   $0x0,-0x19dc(%rbp)
   11125:	0f 95 85 47 e5 ff ff 	setne  -0x1ab9(%rbp)
   1112c:	0f be 85 58 e5 ff ff 	movsbl -0x1aa8(%rbp),%eax
   11133:	39 85 54 e5 ff ff    	cmp    %eax,-0x1aac(%rbp)
   11139:	41 0f 9d c6          	setge  %r14b
   1113d:	48 8b 85 48 e5 ff ff 	mov    -0x1ab8(%rbp),%rax
   11144:	41 89 c7             	mov    %eax,%r15d
   11147:	48 8b 85 68 f5 ff ff 	mov    -0xa98(%rbp),%rax
   1114e:	48 85 c0             	test   %rax,%rax
   11151:	0f 84 23 01 00 00    	je     1127a <func_8+0x1a22>
   11157:	e9 f4 00 00 00       	jmpq   11250 <func_8+0x19f8>
   1115c:	48 8d 05 15 34 01 00 	lea    0x13415(%rip),%rax        # 24578 <g_360>
   11163:	48 89 85 a0 e7 ff ff 	mov    %rax,-0x1860(%rbp)
   1116a:	48 8b 85 48 e5 ff ff 	mov    -0x1ab8(%rbp),%rax
   11171:	89 c2                	mov    %eax,%edx
   11173:	48 8b 85 e8 e6 ff ff 	mov    -0x1918(%rbp),%rax
   1117a:	89 10                	mov    %edx,(%rax)
   1117c:	48 8b 85 a0 e7 ff ff 	mov    -0x1860(%rbp),%rax
   11183:	48 8d 95 78 e5 ff ff 	lea    -0x1a88(%rbp),%rdx
   1118a:	48 89 10             	mov    %rdx,(%rax)
   1118d:	48 8b 05 2c 32 01 00 	mov    0x1322c(%rip),%rax        # 243c0 <g_293>
   11194:	0f b7 00             	movzwl (%rax),%eax
   11197:	0f bf d8             	movswl %ax,%ebx
   1119a:	0f be 85 58 e5 ff ff 	movsbl -0x1aa8(%rbp),%eax
   111a1:	be 01 00 00 00       	mov    $0x1,%esi
   111a6:	89 c7                	mov    %eax,%edi
   111a8:	e8 f4 80 ff ff       	callq  92a1 <safe_lshift_func_int8_t_s_s>
   111ad:	48 8b 05 ec 33 01 00 	mov    0x133ec(%rip),%rax        # 245a0 <g_458>
   111b4:	8b 10                	mov    (%rax),%edx
   111b6:	8d 4a ff             	lea    -0x1(%rdx),%ecx
   111b9:	89 08                	mov    %ecx,(%rax)
   111bb:	89 d2                	mov    %edx,%edx
   111bd:	48 8b 85 78 e6 ff ff 	mov    -0x1988(%rbp),%rax
   111c4:	8b 00                	mov    (%rax),%eax
   111c6:	83 c8 07             	or     $0x7,%eax
   111c9:	48 98                	cltq   
   111cb:	48 39 c2             	cmp    %rax,%rdx
   111ce:	0f 95 c0             	setne  %al
   111d1:	0f b6 d0             	movzbl %al,%edx
   111d4:	48 8b 85 a0 e7 ff ff 	mov    -0x1860(%rbp),%rax
   111db:	48 8b 08             	mov    (%rax),%rcx
   111de:	48 8d 85 c0 e8 ff ff 	lea    -0x1740(%rbp),%rax
   111e5:	48 89 85 a0 e6 ff ff 	mov    %rax,-0x1960(%rbp)
   111ec:	48 8b 85 a0 e6 ff ff 	mov    -0x1960(%rbp),%rax
   111f3:	48 39 c1             	cmp    %rax,%rcx
   111f6:	0f 95 c0             	setne  %al
   111f9:	0f b6 c8             	movzbl %al,%ecx
   111fc:	48 83 bd 80 e7 ff ff 	cmpq   $0x0,-0x1880(%rbp)
   11203:	00 
   11204:	0f 95 c0             	setne  %al
   11207:	0f b6 f0             	movzbl %al,%esi
   1120a:	0f b7 85 a0 ea ff ff 	movzwl -0x1560(%rbp),%eax
   11211:	98                   	cwtl   
   11212:	39 c6                	cmp    %eax,%esi
   11214:	0f 9d c0             	setge  %al
   11217:	0f b6 c0             	movzbl %al,%eax
   1121a:	39 c1                	cmp    %eax,%ecx
   1121c:	0f 9c c0             	setl   %al
   1121f:	0f b6 c0             	movzbl %al,%eax
   11222:	89 d6                	mov    %edx,%esi
   11224:	89 c7                	mov    %eax,%edi
   11226:	e8 12 8b ff ff       	callq  9d3d <safe_mul_func_uint16_t_u_u>
   1122b:	98                   	cwtl   
   1122c:	89 de                	mov    %ebx,%esi
   1122e:	89 c7                	mov    %eax,%edi
   11230:	e8 9e 81 ff ff       	callq  93d3 <safe_sub_func_int16_t_s_s>
   11235:	0f bf d0             	movswl %ax,%edx
   11238:	48 8b 85 e8 e6 ff ff 	mov    -0x1918(%rbp),%rax
   1123f:	89 10                	mov    %edx,(%rax)
   11241:	0f b6 85 67 e5 ff ff 	movzbl -0x1a99(%rbp),%eax
   11248:	0f b6 c0             	movzbl %al,%eax
   1124b:	e9 0d 36 00 00       	jmpq   1485d <func_8+0x5005>
   11250:	48 8b 85 e8 e6 ff ff 	mov    -0x1918(%rbp),%rax
   11257:	8b 00                	mov    (%rax),%eax
   11259:	0f b6 d0             	movzbl %al,%edx
   1125c:	0f b6 85 58 e5 ff ff 	movzbl -0x1aa8(%rbp),%eax
   11263:	0f b6 c0             	movzbl %al,%eax
   11266:	89 d6                	mov    %edx,%esi
   11268:	89 c7                	mov    %eax,%edi
   1126a:	e8 3f 89 ff ff       	callq  9bae <safe_mod_func_uint8_t_u_u>
   1126f:	84 c0                	test   %al,%al
   11271:	74 07                	je     1127a <func_8+0x1a22>
   11273:	ba 01 00 00 00       	mov    $0x1,%edx
   11278:	eb 05                	jmp    1127f <func_8+0x1a27>
   1127a:	ba 00 00 00 00       	mov    $0x0,%edx
   1127f:	0f b7 85 5c e5 ff ff 	movzwl -0x1aa4(%rbp),%eax
   11286:	39 c2                	cmp    %eax,%edx
   11288:	75 0a                	jne    11294 <func_8+0x1a3c>
   1128a:	48 83 bd 48 e5 ff ff 	cmpq   $0x0,-0x1ab8(%rbp)
   11291:	00 
   11292:	74 07                	je     1129b <func_8+0x1a43>
   11294:	b8 01 00 00 00       	mov    $0x1,%eax
   11299:	eb 05                	jmp    112a0 <func_8+0x1a48>
   1129b:	b8 00 00 00 00       	mov    $0x0,%eax
   112a0:	98                   	cwtl   
   112a1:	44 89 fe             	mov    %r15d,%esi
   112a4:	89 c7                	mov    %eax,%edi
   112a6:	e8 7f 82 ff ff       	callq  952a <safe_rshift_func_int16_t_s_s>
   112ab:	b8 00 00 00 00       	mov    $0x0,%eax
   112b0:	83 e0 01             	and    $0x1,%eax
   112b3:	44 21 f0             	and    %r14d,%eax
   112b6:	0f b6 d0             	movzbl %al,%edx
   112b9:	0f b7 85 5c e5 ff ff 	movzwl -0x1aa4(%rbp),%eax
   112c0:	39 c2                	cmp    %eax,%edx
   112c2:	0f 95 c0             	setne  %al
   112c5:	32 85 47 e5 ff ff    	xor    -0x1ab9(%rbp),%al
   112cb:	84 c0                	test   %al,%al
   112cd:	74 07                	je     112d6 <func_8+0x1a7e>
   112cf:	80 bd 58 e5 ff ff 00 	cmpb   $0x0,-0x1aa8(%rbp)
   112d6:	83 bd 24 e6 ff ff 00 	cmpl   $0x0,-0x19dc(%rbp)
   112dd:	74 07                	je     112e6 <func_8+0x1a8e>
   112df:	b8 01 00 00 00       	mov    $0x1,%eax
   112e4:	eb 05                	jmp    112eb <func_8+0x1a93>
   112e6:	b8 00 00 00 00       	mov    $0x0,%eax
   112eb:	0f b6 c0             	movzbl %al,%eax
   112ee:	44 89 e6             	mov    %r12d,%esi
   112f1:	89 c7                	mov    %eax,%edi
   112f3:	e8 9b 88 ff ff       	callq  9b93 <safe_mul_func_uint8_t_u_u>
   112f8:	0f b6 c0             	movzbl %al,%eax
   112fb:	89 de                	mov    %ebx,%esi
   112fd:	89 c7                	mov    %eax,%edi
   112ff:	e8 8a 8a ff ff       	callq  9d8e <safe_div_func_uint16_t_u_u>
   11304:	0f b7 c0             	movzwl %ax,%eax
   11307:	41 39 c5             	cmp    %eax,%r13d
   1130a:	0f 95 c0             	setne  %al
   1130d:	0f b6 c0             	movzbl %al,%eax
   11310:	be 00 00 00 00       	mov    $0x0,%esi
   11315:	89 c7                	mov    %eax,%edi
   11317:	e8 77 88 ff ff       	callq  9b93 <safe_mul_func_uint8_t_u_u>
   1131c:	48 8d 05 25 30 01 00 	lea    0x13025(%rip),%rax        # 24348 <g_123>
   11323:	48 89 85 a8 e6 ff ff 	mov    %rax,-0x1958(%rbp)
   1132a:	48 8d 85 a8 e6 ff ff 	lea    -0x1958(%rbp),%rax
   11331:	48 89 85 b8 e7 ff ff 	mov    %rax,-0x1848(%rbp)
   11338:	48 8d 05 29 4a 01 00 	lea    0x14a29(%rip),%rax        # 25d68 <g_21>
   1133f:	48 89 85 b0 e6 ff ff 	mov    %rax,-0x1950(%rbp)
   11346:	48 8d 85 b0 e6 ff ff 	lea    -0x1950(%rbp),%rax
   1134d:	48 89 85 c0 e7 ff ff 	mov    %rax,-0x1840(%rbp)
   11354:	48 8b 05 1d 32 01 00 	mov    0x1321d(%rip),%rax        # 24578 <g_360>
   1135b:	8b 00                	mov    (%rax),%eax
   1135d:	89 c3                	mov    %eax,%ebx
   1135f:	48 8b 85 48 e5 ff ff 	mov    -0x1ab8(%rbp),%rax
   11366:	41 89 c4             	mov    %eax,%r12d
   11369:	48 8b 85 80 e7 ff ff 	mov    -0x1880(%rbp),%rax
   11370:	48 8b 00             	mov    (%rax),%rax
   11373:	0f b6 10             	movzbl (%rax),%edx
   11376:	83 ea 01             	sub    $0x1,%edx
   11379:	88 10                	mov    %dl,(%rax)
   1137b:	48 8b 85 90 e6 ff ff 	mov    -0x1970(%rbp),%rax
   11382:	41 89 c5             	mov    %eax,%r13d
   11385:	48 8b 85 48 e5 ff ff 	mov    -0x1ab8(%rbp),%rax
   1138c:	41 89 c6             	mov    %eax,%r14d
   1138f:	48 8b 85 48 e5 ff ff 	mov    -0x1ab8(%rbp),%rax
   11396:	0f be c0             	movsbl %al,%eax
   11399:	be 02 00 00 00       	mov    $0x2,%esi
   1139e:	89 c7                	mov    %eax,%edi
   113a0:	e8 90 7f ff ff       	callq  9335 <safe_rshift_func_int8_t_s_s>
   113a5:	84 c0                	test   %al,%al
   113a7:	75 2e                	jne    113d7 <func_8+0x1b7f>
   113a9:	0f b7 85 a0 ea ff ff 	movzwl -0x1560(%rbp),%eax
   113b0:	0f b7 d0             	movzwl %ax,%edx
   113b3:	0f b7 8d 5c e5 ff ff 	movzwl -0x1aa4(%rbp),%ecx
   113ba:	0f be 85 6b e5 ff ff 	movsbl -0x1a95(%rbp),%eax
   113c1:	39 c1                	cmp    %eax,%ecx
   113c3:	0f 9e c0             	setle  %al
   113c6:	0f b6 c0             	movzbl %al,%eax
   113c9:	89 d6                	mov    %edx,%esi
   113cb:	89 c7                	mov    %eax,%edi
   113cd:	e8 6b 89 ff ff       	callq  9d3d <safe_mul_func_uint16_t_u_u>
   113d2:	66 85 c0             	test   %ax,%ax
   113d5:	74 07                	je     113de <func_8+0x1b86>
   113d7:	b8 01 00 00 00       	mov    $0x1,%eax
   113dc:	eb 05                	jmp    113e3 <func_8+0x1b8b>
   113de:	b8 00 00 00 00       	mov    $0x0,%eax
   113e3:	0f b6 c0             	movzbl %al,%eax
   113e6:	44 89 f6             	mov    %r14d,%esi
   113e9:	89 c7                	mov    %eax,%edi
   113eb:	e8 5c 88 ff ff       	callq  9c4c <safe_lshift_func_uint8_t_u_u>
   113f0:	89 c2                	mov    %eax,%edx
   113f2:	48 8b 85 a8 e6 ff ff 	mov    -0x1958(%rbp),%rax
   113f9:	48 8b 00             	mov    (%rax),%rax
   113fc:	0f b6 d2             	movzbl %dl,%edx
   113ff:	48 89 10             	mov    %rdx,(%rax)
   11402:	48 8b 05 d7 33 01 00 	mov    0x133d7(%rip),%rax        # 247e0 <g_809>
   11409:	48 8b 00             	mov    (%rax),%rax
   1140c:	8b 00                	mov    (%rax),%eax
   1140e:	44 89 ee             	mov    %r13d,%esi
   11411:	89 c7                	mov    %eax,%edi
   11413:	e8 b4 82 ff ff       	callq  96cc <safe_mod_func_int32_t_s_s>
   11418:	44 89 e6             	mov    %r12d,%esi
   1141b:	bf 01 00 00 00       	mov    $0x1,%edi
   11420:	e8 00 8b ff ff       	callq  9f25 <safe_div_func_uint32_t_u_u>
   11425:	0f b7 85 5c e5 ff ff 	movzwl -0x1aa4(%rbp),%eax
   1142c:	39 85 54 e5 ff ff    	cmp    %eax,-0x1aac(%rbp)
   11432:	0f 9d c0             	setge  %al
   11435:	0f b6 d0             	movzbl %al,%edx
   11438:	8b 85 54 e5 ff ff    	mov    -0x1aac(%rbp),%eax
   1143e:	3b 85 24 e6 ff ff    	cmp    -0x19dc(%rbp),%eax
   11444:	0f 9f c0             	setg   %al
   11447:	0f b6 c0             	movzbl %al,%eax
   1144a:	39 c2                	cmp    %eax,%edx
   1144c:	0f 9e c0             	setle  %al
   1144f:	0f b6 c0             	movzbl %al,%eax
   11452:	89 de                	mov    %ebx,%esi
   11454:	89 c7                	mov    %eax,%edi
   11456:	e8 5d 8a ff ff       	callq  9eb8 <safe_add_func_uint32_t_u_u>
   1145b:	48 8d 85 94 e5 ff ff 	lea    -0x1a6c(%rbp),%rax
   11462:	48 89 85 78 e6 ff ff 	mov    %rax,-0x1988(%rbp)
   11469:	48 8b 85 e8 e6 ff ff 	mov    -0x1918(%rbp),%rax
   11470:	8b 10                	mov    (%rax),%edx
   11472:	0f b7 85 5c e5 ff ff 	movzwl -0x1aa4(%rbp),%eax
   11479:	09 c2                	or     %eax,%edx
   1147b:	48 8b 85 e8 e6 ff ff 	mov    -0x1918(%rbp),%rax
   11482:	89 10                	mov    %edx,(%rax)
   11484:	48 0f be 85 58 e5 ff 	movsbq -0x1aa8(%rbp),%rax
   1148b:	ff 
   1148c:	48 89 c6             	mov    %rax,%rsi
   1148f:	48 bf 5b 03 28 c2 89 	movabs $0xc428ea89c228035b,%rdi
   11496:	ea 28 c4 
   11499:	e8 a3 83 ff ff       	callq  9841 <safe_add_func_int64_t_s_s>
   1149e:	48 83 c8 08          	or     $0x8,%rax
   114a2:	48 89 c1             	mov    %rax,%rcx
   114a5:	48 8b 05 3c 33 01 00 	mov    0x1333c(%rip),%rax        # 247e8 <g_951>
   114ac:	48 8b 00             	mov    (%rax),%rax
   114af:	8b 10                	mov    (%rax),%edx
   114b1:	31 ca                	xor    %ecx,%edx
   114b3:	89 10                	mov    %edx,(%rax)
   114b5:	c7 05 a9 ed 00 00 00 	movl   $0x0,0xeda9(%rip)        # 20268 <g_209>
   114bc:	00 00 00 
   114bf:	e9 5a 01 00 00       	jmpq   1161e <func_8+0x1dc6>
   114c4:	48 c7 85 c8 e7 ff ff 	movq   $0x0,-0x1838(%rbp)
   114cb:	00 00 00 00 
   114cf:	48 8d 85 a0 e6 ff ff 	lea    -0x1960(%rbp),%rax
   114d6:	48 89 85 d0 e7 ff ff 	mov    %rax,-0x1830(%rbp)
   114dd:	48 8d 85 10 f8 ff ff 	lea    -0x7f0(%rbp),%rax
   114e4:	48 05 90 00 00 00    	add    $0x90,%rax
   114ea:	48 89 85 d8 e7 ff ff 	mov    %rax,-0x1828(%rbp)
   114f1:	48 8b 85 e8 e6 ff ff 	mov    -0x1918(%rbp),%rax
   114f8:	8b 00                	mov    (%rax),%eax
   114fa:	89 c7                	mov    %eax,%edi
   114fc:	8b 05 66 ed 00 00    	mov    0xed66(%rip),%eax        # 20268 <g_209>
   11502:	8d 70 01             	lea    0x1(%rax),%esi
   11505:	8b 05 5d ed 00 00    	mov    0xed5d(%rip),%eax        # 20268 <g_209>
   1150b:	8b 95 78 e5 ff ff    	mov    -0x1a88(%rbp),%edx
   11511:	83 c2 04             	add    $0x4,%edx
   11514:	48 63 ca             	movslq %edx,%rcx
   11517:	48 63 d6             	movslq %esi,%rdx
   1151a:	48 98                	cltq   
   1151c:	48 01 c2             	add    %rax,%rdx
   1151f:	48 89 d0             	mov    %rdx,%rax
   11522:	48 c1 e0 03          	shl    $0x3,%rax
   11526:	48 29 d0             	sub    %rdx,%rax
   11529:	48 01 c8             	add    %rcx,%rax
   1152c:	8b 84 85 d0 e9 ff ff 	mov    -0x1630(%rbp,%rax,4),%eax
   11533:	21 f8                	and    %edi,%eax
   11535:	89 c2                	mov    %eax,%edx
   11537:	48 8b 85 e8 e6 ff ff 	mov    -0x1918(%rbp),%rax
   1153e:	89 10                	mov    %edx,(%rax)
   11540:	48 8b 05 a1 32 01 00 	mov    0x132a1(%rip),%rax        # 247e8 <g_951>
   11547:	48 8b 10             	mov    (%rax),%rdx
   1154a:	48 8b 85 d0 e7 ff ff 	mov    -0x1830(%rbp),%rax
   11551:	48 89 10             	mov    %rdx,(%rax)
   11554:	48 8b 85 78 e6 ff ff 	mov    -0x1988(%rbp),%rax
   1155b:	8b 00                	mov    (%rax),%eax
   1155d:	89 c7                	mov    %eax,%edi
   1155f:	8b 05 03 ed 00 00    	mov    0xed03(%rip),%eax        # 20268 <g_209>
   11565:	8d 70 02             	lea    0x2(%rax),%esi
   11568:	8b 85 78 e5 ff ff    	mov    -0x1a88(%rbp),%eax
   1156e:	8b 15 f4 ec 00 00    	mov    0xecf4(%rip),%edx        # 20268 <g_209>
   11574:	83 c2 06             	add    $0x6,%edx
   11577:	48 63 ca             	movslq %edx,%rcx
   1157a:	48 63 d6             	movslq %esi,%rdx
   1157d:	48 98                	cltq   
   1157f:	48 01 c2             	add    %rax,%rdx
   11582:	48 89 d0             	mov    %rdx,%rax
   11585:	48 c1 e0 03          	shl    $0x3,%rax
   11589:	48 29 d0             	sub    %rdx,%rax
   1158c:	48 01 c8             	add    %rcx,%rax
   1158f:	8b 84 85 d0 e9 ff ff 	mov    -0x1630(%rbp,%rax,4),%eax
   11596:	21 c7                	and    %eax,%edi
   11598:	89 fa                	mov    %edi,%edx
   1159a:	48 8b 85 78 e6 ff ff 	mov    -0x1988(%rbp),%rax
   115a1:	89 10                	mov    %edx,(%rax)
   115a3:	48 8b 95 b8 f8 ff ff 	mov    -0x748(%rbp),%rdx
   115aa:	48 8b 85 d8 e7 ff ff 	mov    -0x1828(%rbp),%rax
   115b1:	48 89 10             	mov    %rdx,(%rax)
   115b4:	48 8b 85 d8 e7 ff ff 	mov    -0x1828(%rbp),%rax
   115bb:	48 8b 00             	mov    (%rax),%rax
   115be:	48 39 85 98 e7 ff ff 	cmp    %rax,-0x1868(%rbp)
   115c5:	0f 95 c0             	setne  %al
   115c8:	0f b6 d0             	movzbl %al,%edx
   115cb:	48 8b 85 e8 e6 ff ff 	mov    -0x1918(%rbp),%rax
   115d2:	89 10                	mov    %edx,(%rax)
   115d4:	48 8b 85 e8 e6 ff ff 	mov    -0x1918(%rbp),%rax
   115db:	8b 00                	mov    (%rax),%eax
   115dd:	48 63 d8             	movslq %eax,%rbx
   115e0:	0f be 85 58 e5 ff ff 	movsbl -0x1aa8(%rbp),%eax
   115e7:	89 c6                	mov    %eax,%esi
   115e9:	bf 00 00 00 00       	mov    $0x0,%edi
   115ee:	e8 e1 7b ff ff       	callq  91d4 <safe_add_func_int8_t_s_s>
   115f3:	48 0f be c0          	movsbq %al,%rax
   115f7:	48 35 12 f8 e3 2e    	xor    $0x2ee3f812,%rax
   115fd:	48 39 c3             	cmp    %rax,%rbx
   11600:	0f 9c c2             	setl   %dl
   11603:	48 8b 05 f6 31 01 00 	mov    0x131f6(%rip),%rax        # 24800 <g_1379>
   1160a:	0f b6 d2             	movzbl %dl,%edx
   1160d:	89 10                	mov    %edx,(%rax)
   1160f:	8b 05 53 ec 00 00    	mov    0xec53(%rip),%eax        # 20268 <g_209>
   11615:	83 e8 01             	sub    $0x1,%eax
   11618:	89 05 4a ec 00 00    	mov    %eax,0xec4a(%rip)        # 20268 <g_209>
   1161e:	8b 05 44 ec 00 00    	mov    0xec44(%rip),%eax        # 20268 <g_209>
   11624:	85 c0                	test   %eax,%eax
   11626:	0f 89 98 fe ff ff    	jns    114c4 <func_8+0x1c6c>
   1162c:	8b 85 78 e5 ff ff    	mov    -0x1a88(%rbp),%eax
   11632:	83 e8 01             	sub    $0x1,%eax
   11635:	89 85 78 e5 ff ff    	mov    %eax,-0x1a88(%rbp)
   1163b:	8b 85 78 e5 ff ff    	mov    -0x1a88(%rbp),%eax
   11641:	85 c0                	test   %eax,%eax
   11643:	0f 89 0d fa ff ff    	jns    11056 <func_8+0x17fe>
   11649:	0f b6 05 e0 e9 00 00 	movzbl 0xe9e0(%rip),%eax        # 20030 <g_58>
   11650:	83 e8 01             	sub    $0x1,%eax
   11653:	88 05 d7 e9 00 00    	mov    %al,0xe9d7(%rip)        # 20030 <g_58>
   11659:	0f b6 05 d0 e9 00 00 	movzbl 0xe9d0(%rip),%eax        # 20030 <g_58>
   11660:	84 c0                	test   %al,%al
   11662:	0f 89 0a f9 ff ff    	jns    10f72 <func_8+0x171a>
   11668:	eb 01                	jmp    1166b <func_8+0x1e13>
   1166a:	90                   	nop
   1166b:	48 8b 85 88 e7 ff ff 	mov    -0x1878(%rbp),%rax
   11672:	48 8d 95 90 e5 ff ff 	lea    -0x1a70(%rbp),%rdx
   11679:	48 89 10             	mov    %rdx,(%rax)
   1167c:	48 8b 85 78 e6 ff ff 	mov    -0x1988(%rbp),%rax
   11683:	c7 00 12 95 26 c5    	movl   $0xc5269512,(%rax)
   11689:	48 8b 05 f8 2e 01 00 	mov    0x12ef8(%rip),%rax        # 24588 <g_362>
   11690:	48 8b 00             	mov    (%rax),%rax
   11693:	8b 10                	mov    (%rax),%edx
   11695:	89 d1                	mov    %edx,%ecx
   11697:	48 8b 95 90 e7 ff ff 	mov    -0x1870(%rbp),%rdx
   1169e:	09 ca                	or     %ecx,%edx
   116a0:	89 10                	mov    %edx,(%rax)
   116a2:	be 06 00 00 00       	mov    $0x6,%esi
   116a7:	bf 01 00 00 00       	mov    $0x1,%edi
   116ac:	e8 9b 85 ff ff       	callq  9c4c <safe_lshift_func_uint8_t_u_u>
   116b1:	84 c0                	test   %al,%al
   116b3:	0f 84 01 11 00 00    	je     127ba <func_8+0x2f62>
   116b9:	48 8d 85 10 f3 ff ff 	lea    -0xcf0(%rbp),%rax
   116c0:	48 05 c0 03 00 00    	add    $0x3c0,%rax
   116c6:	48 89 85 48 e8 ff ff 	mov    %rax,-0x17b8(%rbp)
   116cd:	48 8d 85 84 e5 ff ff 	lea    -0x1a7c(%rbp),%rax
   116d4:	48 89 85 50 e8 ff ff 	mov    %rax,-0x17b0(%rbp)
   116db:	48 8d 85 a0 ea ff ff 	lea    -0x1560(%rbp),%rax
   116e2:	48 8d 15 d7 1c 01 00 	lea    0x11cd7(%rip),%rdx        # 233c0 <g_2982+0x1430>
   116e9:	b9 28 00 00 00       	mov    $0x28,%ecx
   116ee:	48 89 c7             	mov    %rax,%rdi
   116f1:	48 89 d6             	mov    %rdx,%rsi
   116f4:	f3 48 a5             	rep movsq %ds:(%rsi),%es:(%rdi)
   116f7:	48 8d 85 a0 ea ff ff 	lea    -0x1560(%rbp),%rax
   116fe:	48 05 a8 00 00 00    	add    $0xa8,%rax
   11704:	48 89 85 58 e8 ff ff 	mov    %rax,-0x17a8(%rbp)
   1170b:	c7 85 40 e6 ff ff f7 	movl   $0xfffffff7,-0x19c0(%rbp)
   11712:	ff ff ff 
   11715:	c7 85 44 e6 ff ff 08 	movl   $0x8,-0x19bc(%rbp)
   1171c:	00 00 00 
   1171f:	48 c7 85 10 e9 ff ff 	movq   $0x0,-0x16f0(%rbp)
   11726:	00 00 00 00 
   1172a:	48 c7 85 18 e9 ff ff 	movq   $0x0,-0x16e8(%rbp)
   11731:	00 00 00 00 
   11735:	48 c7 85 20 e9 ff ff 	movq   $0x0,-0x16e0(%rbp)
   1173c:	00 00 00 00 
   11740:	48 c7 85 28 e9 ff ff 	movq   $0x0,-0x16d8(%rbp)
   11747:	00 00 00 00 
   1174b:	48 c7 85 30 e9 ff ff 	movq   $0x0,-0x16d0(%rbp)
   11752:	00 00 00 00 
   11756:	48 c7 85 38 e9 ff ff 	movq   $0x0,-0x16c8(%rbp)
   1175d:	00 00 00 00 
   11761:	48 c7 85 40 e9 ff ff 	movq   $0x0,-0x16c0(%rbp)
   11768:	00 00 00 00 
   1176c:	48 c7 85 48 e9 ff ff 	movq   $0x0,-0x16b8(%rbp)
   11773:	00 00 00 00 
   11777:	48 8d 85 10 e9 ff ff 	lea    -0x16f0(%rbp),%rax
   1177e:	48 89 85 a8 e6 ff ff 	mov    %rax,-0x1958(%rbp)
   11785:	48 8d 85 a8 e6 ff ff 	lea    -0x1958(%rbp),%rax
   1178c:	48 89 85 b0 e6 ff ff 	mov    %rax,-0x1950(%rbp)
   11793:	48 8d 85 b0 e6 ff ff 	lea    -0x1950(%rbp),%rax
   1179a:	48 89 85 60 e8 ff ff 	mov    %rax,-0x17a0(%rbp)
   117a1:	c7 85 c0 e5 ff ff 00 	movl   $0x0,-0x1a40(%rbp)
   117a8:	00 00 00 
   117ab:	eb 1a                	jmp    117c7 <func_8+0x1f6f>
   117ad:	8b 85 c0 e5 ff ff    	mov    -0x1a40(%rbp),%eax
   117b3:	48 98                	cltq   
   117b5:	c7 84 85 94 e8 ff ff 	movl   $0xfffffffe,-0x176c(%rbp,%rax,4)
   117bc:	fe ff ff ff 
   117c0:	83 85 c0 e5 ff ff 01 	addl   $0x1,-0x1a40(%rbp)
   117c7:	83 bd c0 e5 ff ff 00 	cmpl   $0x0,-0x1a40(%rbp)
   117ce:	7e dd                	jle    117ad <func_8+0x1f55>
   117d0:	c7 05 26 ed 00 00 01 	movl   $0x1,0xed26(%rip)        # 20500 <g_1271>
   117d7:	00 00 00 
   117da:	e9 ec 0e 00 00       	jmpq   126cb <func_8+0x2e73>
   117df:	48 b8 f2 94 f0 99 89 	movabs $0x3fcd7e8999f094f2,%rax
   117e6:	7e cd 3f 
   117e9:	48 89 85 68 e8 ff ff 	mov    %rax,-0x1798(%rbp)
   117f0:	48 8d 85 80 e5 ff ff 	lea    -0x1a80(%rbp),%rax
   117f7:	48 89 85 70 e8 ff ff 	mov    %rax,-0x1790(%rbp)
   117fe:	48 c7 c7 ff ff ff ff 	mov    $0xffffffffffffffff,%rdi
   11805:	e8 0c 80 ff ff       	callq  9816 <safe_unary_minus_func_int64_t_s>
   1180a:	48 39 85 48 e5 ff ff 	cmp    %rax,-0x1ab8(%rbp)
   11811:	0f 92 c0             	setb   %al
   11814:	0f b6 d0             	movzbl %al,%edx
   11817:	48 8b 85 e8 e6 ff ff 	mov    -0x1918(%rbp),%rax
   1181e:	8b 00                	mov    (%rax),%eax
   11820:	39 c2                	cmp    %eax,%edx
   11822:	7e 72                	jle    11896 <func_8+0x203e>
   11824:	48 8b 85 78 e6 ff ff 	mov    -0x1988(%rbp),%rax
   1182b:	8b 00                	mov    (%rax),%eax
   1182d:	83 f8 01             	cmp    $0x1,%eax
   11830:	0f 95 c0             	setne  %al
   11833:	0f b6 d0             	movzbl %al,%edx
   11836:	48 8b 85 e8 e6 ff ff 	mov    -0x1918(%rbp),%rax
   1183d:	89 10                	mov    %edx,(%rax)
   1183f:	c7 05 27 ea 00 00 00 	movl   $0x0,0xea27(%rip)        # 20270 <g_220>
   11846:	00 00 00 
   11849:	eb 31                	jmp    1187c <func_8+0x2024>
   1184b:	c6 85 6d e5 ff ff 01 	movb   $0x1,-0x1a93(%rbp)
   11852:	48 8b 85 78 e6 ff ff 	mov    -0x1988(%rbp),%rax
   11859:	8b 08                	mov    (%rax),%ecx
   1185b:	0f be 95 6d e5 ff ff 	movsbl -0x1a93(%rbp),%edx
   11862:	48 8b 85 78 e6 ff ff 	mov    -0x1988(%rbp),%rax
   11869:	09 ca                	or     %ecx,%edx
   1186b:	89 10                	mov    %edx,(%rax)
   1186d:	8b 05 fd e9 00 00    	mov    0xe9fd(%rip),%eax        # 20270 <g_220>
   11873:	83 c0 01             	add    $0x1,%eax
   11876:	89 05 f4 e9 00 00    	mov    %eax,0xe9f4(%rip)        # 20270 <g_220>
   1187c:	8b 05 ee e9 00 00    	mov    0xe9ee(%rip),%eax        # 20270 <g_220>
   11882:	83 f8 05             	cmp    $0x5,%eax
   11885:	76 c4                	jbe    1184b <func_8+0x1ff3>
   11887:	48 83 bd 68 e8 ff ff 	cmpq   $0x0,-0x1798(%rbp)
   1188e:	00 
   1188f:	74 4d                	je     118de <func_8+0x2086>
   11891:	e9 44 0e 00 00       	jmpq   126da <func_8+0x2e82>
   11896:	48 8b 05 73 2f 01 00 	mov    0x12f73(%rip),%rax        # 24810 <g_1390>
   1189d:	48 8b 95 48 e8 ff ff 	mov    -0x17b8(%rbp),%rdx
   118a4:	48 89 10             	mov    %rdx,(%rax)
   118a7:	c7 85 94 e5 ff ff 00 	movl   $0x0,-0x1a6c(%rbp)
   118ae:	00 00 00 
   118b1:	eb 20                	jmp    118d3 <func_8+0x207b>
   118b3:	48 8b 05 5e 2f 01 00 	mov    0x12f5e(%rip),%rax        # 24818 <g_1394>
   118ba:	48 8b 95 50 e8 ff ff 	mov    -0x17b0(%rbp),%rdx
   118c1:	48 89 10             	mov    %rdx,(%rax)
   118c4:	8b 85 94 e5 ff ff    	mov    -0x1a6c(%rbp),%eax
   118ca:	83 c0 01             	add    $0x1,%eax
   118cd:	89 85 94 e5 ff ff    	mov    %eax,-0x1a6c(%rbp)
   118d3:	8b 85 94 e5 ff ff    	mov    -0x1a6c(%rbp),%eax
   118d9:	83 f8 05             	cmp    $0x5,%eax
   118dc:	7e d5                	jle    118b3 <func_8+0x205b>
   118de:	c7 05 c4 ea 00 00 01 	movl   $0x1,0xeac4(%rip)        # 203ac <g_660>
   118e5:	00 00 00 
   118e8:	e9 c0 0d 00 00       	jmpq   126ad <func_8+0x2e55>
   118ed:	48 8d 05 04 ec 00 00 	lea    0xec04(%rip),%rax        # 204f8 <g_1268>
   118f4:	48 89 85 10 f8 ff ff 	mov    %rax,-0x7f0(%rbp)
   118fb:	48 c7 85 18 f8 ff ff 	movq   $0x0,-0x7e8(%rbp)
   11902:	00 00 00 00 
   11906:	48 8d 05 53 e9 00 00 	lea    0xe953(%rip),%rax        # 20260 <g_203>
   1190d:	48 89 85 20 f8 ff ff 	mov    %rax,-0x7e0(%rbp)
   11914:	48 c7 85 28 f8 ff ff 	movq   $0x0,-0x7d8(%rbp)
   1191b:	00 00 00 00 
   1191f:	48 8d 05 d2 eb 00 00 	lea    0xebd2(%rip),%rax        # 204f8 <g_1268>
   11926:	48 89 85 30 f8 ff ff 	mov    %rax,-0x7d0(%rbp)
   1192d:	48 c7 85 38 f8 ff ff 	movq   $0x0,-0x7c8(%rbp)
   11934:	00 00 00 00 
   11938:	48 8d 05 b9 eb 00 00 	lea    0xebb9(%rip),%rax        # 204f8 <g_1268>
   1193f:	48 89 85 40 f8 ff ff 	mov    %rax,-0x7c0(%rbp)
   11946:	48 8d 05 ab eb 00 00 	lea    0xebab(%rip),%rax        # 204f8 <g_1268>
   1194d:	48 89 85 48 f8 ff ff 	mov    %rax,-0x7b8(%rbp)
   11954:	48 8d 85 80 e6 ff ff 	lea    -0x1980(%rbp),%rax
   1195b:	48 89 85 50 f8 ff ff 	mov    %rax,-0x7b0(%rbp)
   11962:	48 8d 85 90 e6 ff ff 	lea    -0x1970(%rbp),%rax
   11969:	48 89 85 58 f8 ff ff 	mov    %rax,-0x7a8(%rbp)
   11970:	48 8d 05 31 ec 00 00 	lea    0xec31(%rip),%rax        # 205a8 <g_1321+0x88>
   11977:	48 89 85 60 f8 ff ff 	mov    %rax,-0x7a0(%rbp)
   1197e:	48 8d 85 90 e6 ff ff 	lea    -0x1970(%rbp),%rax
   11985:	48 89 85 68 f8 ff ff 	mov    %rax,-0x798(%rbp)
   1198c:	48 8d 85 90 e6 ff ff 	lea    -0x1970(%rbp),%rax
   11993:	48 89 85 70 f8 ff ff 	mov    %rax,-0x790(%rbp)
   1199a:	48 8d 85 80 e6 ff ff 	lea    -0x1980(%rbp),%rax
   119a1:	48 89 85 78 f8 ff ff 	mov    %rax,-0x788(%rbp)
   119a8:	48 8d 05 f9 eb 00 00 	lea    0xebf9(%rip),%rax        # 205a8 <g_1321+0x88>
   119af:	48 89 85 80 f8 ff ff 	mov    %rax,-0x780(%rbp)
   119b6:	48 c7 85 88 f8 ff ff 	movq   $0x0,-0x778(%rbp)
   119bd:	00 00 00 00 
   119c1:	48 8d 05 30 44 01 00 	lea    0x14430(%rip),%rax        # 25df8 <g_1228>
   119c8:	48 89 85 90 f8 ff ff 	mov    %rax,-0x770(%rbp)
   119cf:	48 8d 05 1a ea 00 00 	lea    0xea1a(%rip),%rax        # 203f0 <g_860>
   119d6:	48 89 85 98 f8 ff ff 	mov    %rax,-0x768(%rbp)
   119dd:	48 8d 05 7c e8 00 00 	lea    0xe87c(%rip),%rax        # 20260 <g_203>
   119e4:	48 89 85 a0 f8 ff ff 	mov    %rax,-0x760(%rbp)
   119eb:	48 8d 05 fe e9 00 00 	lea    0xe9fe(%rip),%rax        # 203f0 <g_860>
   119f2:	48 89 85 a8 f8 ff ff 	mov    %rax,-0x758(%rbp)
   119f9:	48 8d 05 f8 43 01 00 	lea    0x143f8(%rip),%rax        # 25df8 <g_1228>
   11a00:	48 89 85 b0 f8 ff ff 	mov    %rax,-0x750(%rbp)
   11a07:	48 8d 05 9a eb 00 00 	lea    0xeb9a(%rip),%rax        # 205a8 <g_1321+0x88>
   11a0e:	48 89 85 b8 f8 ff ff 	mov    %rax,-0x748(%rbp)
   11a15:	48 8d 05 8c eb 00 00 	lea    0xeb8c(%rip),%rax        # 205a8 <g_1321+0x88>
   11a1c:	48 89 85 c0 f8 ff ff 	mov    %rax,-0x740(%rbp)
   11a23:	48 8d 05 ce 43 01 00 	lea    0x143ce(%rip),%rax        # 25df8 <g_1228>
   11a2a:	48 89 85 c8 f8 ff ff 	mov    %rax,-0x738(%rbp)
   11a31:	48 8d 85 80 e6 ff ff 	lea    -0x1980(%rbp),%rax
   11a38:	48 89 85 d0 f8 ff ff 	mov    %rax,-0x730(%rbp)
   11a3f:	48 8d 05 b2 ea 00 00 	lea    0xeab2(%rip),%rax        # 204f8 <g_1268>
   11a46:	48 89 85 d8 f8 ff ff 	mov    %rax,-0x728(%rbp)
   11a4d:	48 8d 05 0c e8 00 00 	lea    0xe80c(%rip),%rax        # 20260 <g_203>
   11a54:	48 89 85 e0 f8 ff ff 	mov    %rax,-0x720(%rbp)
   11a5b:	48 8d 85 80 e6 ff ff 	lea    -0x1980(%rbp),%rax
   11a62:	48 89 85 e8 f8 ff ff 	mov    %rax,-0x718(%rbp)
   11a69:	48 8d 05 88 ea 00 00 	lea    0xea88(%rip),%rax        # 204f8 <g_1268>
   11a70:	48 89 85 f0 f8 ff ff 	mov    %rax,-0x710(%rbp)
   11a77:	48 8d 05 7a ea 00 00 	lea    0xea7a(%rip),%rax        # 204f8 <g_1268>
   11a7e:	48 89 85 f8 f8 ff ff 	mov    %rax,-0x708(%rbp)
   11a85:	48 c7 85 00 f9 ff ff 	movq   $0x0,-0x700(%rbp)
   11a8c:	00 00 00 00 
   11a90:	48 c7 85 08 f9 ff ff 	movq   $0x0,-0x6f8(%rbp)
   11a97:	00 00 00 00 
   11a9b:	48 c7 85 10 f9 ff ff 	movq   $0x0,-0x6f0(%rbp)
   11aa2:	00 00 00 00 
   11aa6:	48 8d 05 4b ea 00 00 	lea    0xea4b(%rip),%rax        # 204f8 <g_1268>
   11aad:	48 89 85 18 f9 ff ff 	mov    %rax,-0x6e8(%rbp)
   11ab4:	48 8d 05 3d ea 00 00 	lea    0xea3d(%rip),%rax        # 204f8 <g_1268>
   11abb:	48 89 85 20 f9 ff ff 	mov    %rax,-0x6e0(%rbp)
   11ac2:	48 8d 85 90 e6 ff ff 	lea    -0x1970(%rbp),%rax
   11ac9:	48 89 85 28 f9 ff ff 	mov    %rax,-0x6d8(%rbp)
   11ad0:	48 8d 85 80 e6 ff ff 	lea    -0x1980(%rbp),%rax
   11ad7:	48 89 85 30 f9 ff ff 	mov    %rax,-0x6d0(%rbp)
   11ade:	48 8d 85 80 e6 ff ff 	lea    -0x1980(%rbp),%rax
   11ae5:	48 89 85 38 f9 ff ff 	mov    %rax,-0x6c8(%rbp)
   11aec:	48 8d 85 90 e6 ff ff 	lea    -0x1970(%rbp),%rax
   11af3:	48 89 85 40 f9 ff ff 	mov    %rax,-0x6c0(%rbp)
   11afa:	48 8d 05 f7 e9 00 00 	lea    0xe9f7(%rip),%rax        # 204f8 <g_1268>
   11b01:	48 89 85 48 f9 ff ff 	mov    %rax,-0x6b8(%rbp)
   11b08:	48 8d 85 90 e6 ff ff 	lea    -0x1970(%rbp),%rax
   11b0f:	48 89 85 50 f9 ff ff 	mov    %rax,-0x6b0(%rbp)
   11b16:	48 8d 85 90 e6 ff ff 	lea    -0x1970(%rbp),%rax
   11b1d:	48 89 85 58 f9 ff ff 	mov    %rax,-0x6a8(%rbp)
   11b24:	48 8d 05 35 e7 00 00 	lea    0xe735(%rip),%rax        # 20260 <g_203>
   11b2b:	48 89 85 60 f9 ff ff 	mov    %rax,-0x6a0(%rbp)
   11b32:	48 c7 85 68 f9 ff ff 	movq   $0x0,-0x698(%rbp)
   11b39:	00 00 00 00 
   11b3d:	48 8d 05 64 ea 00 00 	lea    0xea64(%rip),%rax        # 205a8 <g_1321+0x88>
   11b44:	48 89 85 70 f9 ff ff 	mov    %rax,-0x690(%rbp)
   11b4b:	48 c7 85 78 f9 ff ff 	movq   $0x0,-0x688(%rbp)
   11b52:	00 00 00 00 
   11b56:	48 8d 05 03 e7 00 00 	lea    0xe703(%rip),%rax        # 20260 <g_203>
   11b5d:	48 89 85 80 f9 ff ff 	mov    %rax,-0x680(%rbp)
   11b64:	48 c7 85 88 f9 ff ff 	movq   $0x0,-0x678(%rbp)
   11b6b:	00 00 00 00 
   11b6f:	48 8d 05 82 42 01 00 	lea    0x14282(%rip),%rax        # 25df8 <g_1228>
   11b76:	48 89 85 90 f9 ff ff 	mov    %rax,-0x670(%rbp)
   11b7d:	48 8d 05 74 e9 00 00 	lea    0xe974(%rip),%rax        # 204f8 <g_1268>
   11b84:	48 89 85 98 f9 ff ff 	mov    %rax,-0x668(%rbp)
   11b8b:	48 8d 85 90 e6 ff ff 	lea    -0x1970(%rbp),%rax
   11b92:	48 89 85 a0 f9 ff ff 	mov    %rax,-0x660(%rbp)
   11b99:	48 8d 85 80 e6 ff ff 	lea    -0x1980(%rbp),%rax
   11ba0:	48 89 85 a8 f9 ff ff 	mov    %rax,-0x658(%rbp)
   11ba7:	48 8d 85 80 e6 ff ff 	lea    -0x1980(%rbp),%rax
   11bae:	48 89 85 b0 f9 ff ff 	mov    %rax,-0x650(%rbp)
   11bb5:	48 8d 85 90 e6 ff ff 	lea    -0x1970(%rbp),%rax
   11bbc:	48 89 85 b8 f9 ff ff 	mov    %rax,-0x648(%rbp)
   11bc3:	48 8d 05 de e9 00 00 	lea    0xe9de(%rip),%rax        # 205a8 <g_1321+0x88>
   11bca:	48 89 85 c0 f9 ff ff 	mov    %rax,-0x640(%rbp)
   11bd1:	48 8d 85 90 e6 ff ff 	lea    -0x1970(%rbp),%rax
   11bd8:	48 89 85 c8 f9 ff ff 	mov    %rax,-0x638(%rbp)
   11bdf:	48 c7 85 d0 f9 ff ff 	movq   $0x0,-0x630(%rbp)
   11be6:	00 00 00 00 
   11bea:	48 c7 85 d8 f9 ff ff 	movq   $0x0,-0x628(%rbp)
   11bf1:	00 00 00 00 
   11bf5:	48 c7 85 e0 f9 ff ff 	movq   $0x0,-0x620(%rbp)
   11bfc:	00 00 00 00 
   11c00:	48 8d 05 f1 e8 00 00 	lea    0xe8f1(%rip),%rax        # 204f8 <g_1268>
   11c07:	48 89 85 e8 f9 ff ff 	mov    %rax,-0x618(%rbp)
   11c0e:	48 8d 05 e3 e8 00 00 	lea    0xe8e3(%rip),%rax        # 204f8 <g_1268>
   11c15:	48 89 85 f0 f9 ff ff 	mov    %rax,-0x610(%rbp)
   11c1c:	48 8d 05 cd e7 00 00 	lea    0xe7cd(%rip),%rax        # 203f0 <g_860>
   11c23:	48 89 85 f8 f9 ff ff 	mov    %rax,-0x608(%rbp)
   11c2a:	48 c7 85 00 fa ff ff 	movq   $0x0,-0x600(%rbp)
   11c31:	00 00 00 00 
   11c35:	48 8d 05 bc e8 00 00 	lea    0xe8bc(%rip),%rax        # 204f8 <g_1268>
   11c3c:	48 89 85 08 fa ff ff 	mov    %rax,-0x5f8(%rbp)
   11c43:	48 8d 85 80 e6 ff ff 	lea    -0x1980(%rbp),%rax
   11c4a:	48 89 85 10 fa ff ff 	mov    %rax,-0x5f0(%rbp)
   11c51:	48 8d 05 a0 41 01 00 	lea    0x141a0(%rip),%rax        # 25df8 <g_1228>
   11c58:	48 89 85 18 fa ff ff 	mov    %rax,-0x5e8(%rbp)
   11c5f:	48 8d 05 42 e9 00 00 	lea    0xe942(%rip),%rax        # 205a8 <g_1321+0x88>
   11c66:	48 89 85 20 fa ff ff 	mov    %rax,-0x5e0(%rbp)
   11c6d:	48 8d 05 34 e9 00 00 	lea    0xe934(%rip),%rax        # 205a8 <g_1321+0x88>
   11c74:	48 89 85 28 fa ff ff 	mov    %rax,-0x5d8(%rbp)
   11c7b:	48 8d 05 76 41 01 00 	lea    0x14176(%rip),%rax        # 25df8 <g_1228>
   11c82:	48 89 85 30 fa ff ff 	mov    %rax,-0x5d0(%rbp)
   11c89:	48 8d 85 80 e6 ff ff 	lea    -0x1980(%rbp),%rax
   11c90:	48 89 85 38 fa ff ff 	mov    %rax,-0x5c8(%rbp)
   11c97:	48 8d 05 c2 e5 00 00 	lea    0xe5c2(%rip),%rax        # 20260 <g_203>
   11c9e:	48 89 85 40 fa ff ff 	mov    %rax,-0x5c0(%rbp)
   11ca5:	48 8d 05 44 e7 00 00 	lea    0xe744(%rip),%rax        # 203f0 <g_860>
   11cac:	48 89 85 48 fa ff ff 	mov    %rax,-0x5b8(%rbp)
   11cb3:	48 8d 05 3e 41 01 00 	lea    0x1413e(%rip),%rax        # 25df8 <g_1228>
   11cba:	48 89 85 50 fa ff ff 	mov    %rax,-0x5b0(%rbp)
   11cc1:	48 c7 85 58 fa ff ff 	movq   $0x0,-0x5a8(%rbp)
   11cc8:	00 00 00 00 
   11ccc:	48 8d 05 d5 e8 00 00 	lea    0xe8d5(%rip),%rax        # 205a8 <g_1321+0x88>
   11cd3:	48 89 85 60 fa ff ff 	mov    %rax,-0x5a0(%rbp)
   11cda:	48 8d 05 0f e7 00 00 	lea    0xe70f(%rip),%rax        # 203f0 <g_860>
   11ce1:	48 89 85 68 fa ff ff 	mov    %rax,-0x598(%rbp)
   11ce8:	48 8d 05 09 41 01 00 	lea    0x14109(%rip),%rax        # 25df8 <g_1228>
   11cef:	48 89 85 70 fa ff ff 	mov    %rax,-0x590(%rbp)
   11cf6:	48 8d 85 90 e6 ff ff 	lea    -0x1970(%rbp),%rax
   11cfd:	48 89 85 78 fa ff ff 	mov    %rax,-0x588(%rbp)
   11d04:	48 8d 05 9d e8 00 00 	lea    0xe89d(%rip),%rax        # 205a8 <g_1321+0x88>
   11d0b:	48 89 85 80 fa ff ff 	mov    %rax,-0x580(%rbp)
   11d12:	48 8d 85 90 e6 ff ff 	lea    -0x1970(%rbp),%rax
   11d19:	48 89 85 88 fa ff ff 	mov    %rax,-0x578(%rbp)
   11d20:	48 8d 85 80 e6 ff ff 	lea    -0x1980(%rbp),%rax
   11d27:	48 89 85 90 fa ff ff 	mov    %rax,-0x570(%rbp)
   11d2e:	48 8d 05 c3 e7 00 00 	lea    0xe7c3(%rip),%rax        # 204f8 <g_1268>
   11d35:	48 89 85 98 fa ff ff 	mov    %rax,-0x568(%rbp)
   11d3c:	48 8d 05 65 e8 00 00 	lea    0xe865(%rip),%rax        # 205a8 <g_1321+0x88>
   11d43:	48 89 85 a0 fa ff ff 	mov    %rax,-0x560(%rbp)
   11d4a:	48 8d 85 80 e6 ff ff 	lea    -0x1980(%rbp),%rax
   11d51:	48 89 85 a8 fa ff ff 	mov    %rax,-0x558(%rbp)
   11d58:	48 8d 05 99 e7 00 00 	lea    0xe799(%rip),%rax        # 204f8 <g_1268>
   11d5f:	48 89 85 b0 fa ff ff 	mov    %rax,-0x550(%rbp)
   11d66:	48 c7 85 b8 fa ff ff 	movq   $0x0,-0x548(%rbp)
   11d6d:	00 00 00 00 
   11d71:	48 8d 05 e8 e4 00 00 	lea    0xe4e8(%rip),%rax        # 20260 <g_203>
   11d78:	48 89 85 c0 fa ff ff 	mov    %rax,-0x540(%rbp)
   11d7f:	48 c7 85 c8 fa ff ff 	movq   $0x0,-0x538(%rbp)
   11d86:	00 00 00 00 
   11d8a:	48 8d 05 67 e7 00 00 	lea    0xe767(%rip),%rax        # 204f8 <g_1268>
   11d91:	48 89 85 d0 fa ff ff 	mov    %rax,-0x530(%rbp)
   11d98:	48 c7 85 d8 fa ff ff 	movq   $0x0,-0x528(%rbp)
   11d9f:	00 00 00 00 
   11da3:	48 8d 05 4e e7 00 00 	lea    0xe74e(%rip),%rax        # 204f8 <g_1268>
   11daa:	48 89 85 e0 fa ff ff 	mov    %rax,-0x520(%rbp)
   11db1:	48 8d 05 f0 e7 00 00 	lea    0xe7f0(%rip),%rax        # 205a8 <g_1321+0x88>
   11db8:	48 89 85 e8 fa ff ff 	mov    %rax,-0x518(%rbp)
   11dbf:	48 8d 85 80 e6 ff ff 	lea    -0x1980(%rbp),%rax
   11dc6:	48 89 85 f0 fa ff ff 	mov    %rax,-0x510(%rbp)
   11dcd:	48 8d 85 80 e6 ff ff 	lea    -0x1980(%rbp),%rax
   11dd4:	48 89 85 f8 fa ff ff 	mov    %rax,-0x508(%rbp)
   11ddb:	48 8d 05 c6 e7 00 00 	lea    0xe7c6(%rip),%rax        # 205a8 <g_1321+0x88>
   11de2:	48 89 85 00 fb ff ff 	mov    %rax,-0x500(%rbp)
   11de9:	48 8d 05 b8 e7 00 00 	lea    0xe7b8(%rip),%rax        # 205a8 <g_1321+0x88>
   11df0:	48 89 85 08 fb ff ff 	mov    %rax,-0x4f8(%rbp)
   11df7:	48 8d 85 90 e6 ff ff 	lea    -0x1970(%rbp),%rax
   11dfe:	48 89 85 10 fb ff ff 	mov    %rax,-0x4f0(%rbp)
   11e05:	48 8d 85 90 e6 ff ff 	lea    -0x1970(%rbp),%rax
   11e0c:	48 89 85 18 fb ff ff 	mov    %rax,-0x4e8(%rbp)
   11e13:	48 8d 05 8e e7 00 00 	lea    0xe78e(%rip),%rax        # 205a8 <g_1321+0x88>
   11e1a:	48 89 85 20 fb ff ff 	mov    %rax,-0x4e0(%rbp)
   11e21:	48 c7 85 28 fb ff ff 	movq   $0x0,-0x4d8(%rbp)
   11e28:	00 00 00 00 
   11e2c:	48 8d 05 c5 3f 01 00 	lea    0x13fc5(%rip),%rax        # 25df8 <g_1228>
   11e33:	48 89 85 30 fb ff ff 	mov    %rax,-0x4d0(%rbp)
   11e3a:	48 8d 05 b7 e6 00 00 	lea    0xe6b7(%rip),%rax        # 204f8 <g_1268>
   11e41:	48 89 85 38 fb ff ff 	mov    %rax,-0x4c8(%rbp)
   11e48:	48 8d 05 11 e4 00 00 	lea    0xe411(%rip),%rax        # 20260 <g_203>
   11e4f:	48 89 85 40 fb ff ff 	mov    %rax,-0x4c0(%rbp)
   11e56:	48 8d 05 9b e6 00 00 	lea    0xe69b(%rip),%rax        # 204f8 <g_1268>
   11e5d:	48 89 85 48 fb ff ff 	mov    %rax,-0x4b8(%rbp)
   11e64:	48 8d 05 8d 3f 01 00 	lea    0x13f8d(%rip),%rax        # 25df8 <g_1228>
   11e6b:	48 89 85 50 fb ff ff 	mov    %rax,-0x4b0(%rbp)
   11e72:	48 8d 05 7f e6 00 00 	lea    0xe67f(%rip),%rax        # 204f8 <g_1268>
   11e79:	48 89 85 58 fb ff ff 	mov    %rax,-0x4a8(%rbp)
   11e80:	48 8d 05 21 e7 00 00 	lea    0xe721(%rip),%rax        # 205a8 <g_1321+0x88>
   11e87:	48 89 85 60 fb ff ff 	mov    %rax,-0x4a0(%rbp)
   11e8e:	48 c7 85 68 fb ff ff 	movq   $0x0,-0x498(%rbp)
   11e95:	00 00 00 00 
   11e99:	48 8d 85 80 e6 ff ff 	lea    -0x1980(%rbp),%rax
   11ea0:	48 89 85 70 fb ff ff 	mov    %rax,-0x490(%rbp)
   11ea7:	48 8d 05 fa e6 00 00 	lea    0xe6fa(%rip),%rax        # 205a8 <g_1321+0x88>
   11eae:	48 89 85 78 fb ff ff 	mov    %rax,-0x488(%rbp)
   11eb5:	48 8d 05 3c e6 00 00 	lea    0xe63c(%rip),%rax        # 204f8 <g_1268>
   11ebc:	48 89 85 80 fb ff ff 	mov    %rax,-0x480(%rbp)
   11ec3:	48 8d 85 90 e6 ff ff 	lea    -0x1970(%rbp),%rax
   11eca:	48 89 85 88 fb ff ff 	mov    %rax,-0x478(%rbp)
   11ed1:	48 c7 85 90 fb ff ff 	movq   $0x0,-0x470(%rbp)
   11ed8:	00 00 00 00 
   11edc:	48 c7 85 98 fb ff ff 	movq   $0x0,-0x468(%rbp)
   11ee3:	00 00 00 00 
   11ee7:	48 8d 05 72 e3 00 00 	lea    0xe372(%rip),%rax        # 20260 <g_203>
   11eee:	48 89 85 a0 fb ff ff 	mov    %rax,-0x460(%rbp)
   11ef5:	48 8d 05 fc e5 00 00 	lea    0xe5fc(%rip),%rax        # 204f8 <g_1268>
   11efc:	48 89 85 a8 fb ff ff 	mov    %rax,-0x458(%rbp)
   11f03:	48 8d 05 56 e3 00 00 	lea    0xe356(%rip),%rax        # 20260 <g_203>
   11f0a:	48 89 85 b0 fb ff ff 	mov    %rax,-0x450(%rbp)
   11f11:	48 c7 85 b8 fb ff ff 	movq   $0x0,-0x448(%rbp)
   11f18:	00 00 00 00 
   11f1c:	48 c7 85 c0 fb ff ff 	movq   $0x0,-0x440(%rbp)
   11f23:	00 00 00 00 
   11f27:	48 8d 05 32 e3 00 00 	lea    0xe332(%rip),%rax        # 20260 <g_203>
   11f2e:	48 89 85 c8 fb ff ff 	mov    %rax,-0x438(%rbp)
   11f35:	48 8d 85 80 e6 ff ff 	lea    -0x1980(%rbp),%rax
   11f3c:	48 89 85 d0 fb ff ff 	mov    %rax,-0x430(%rbp)
   11f43:	48 8d 05 ae 3e 01 00 	lea    0x13eae(%rip),%rax        # 25df8 <g_1228>
   11f4a:	48 89 85 d8 fb ff ff 	mov    %rax,-0x428(%rbp)
   11f51:	48 8d 85 90 e6 ff ff 	lea    -0x1970(%rbp),%rax
   11f58:	48 89 85 e0 fb ff ff 	mov    %rax,-0x420(%rbp)
   11f5f:	48 8d 85 90 e6 ff ff 	lea    -0x1970(%rbp),%rax
   11f66:	48 89 85 e8 fb ff ff 	mov    %rax,-0x418(%rbp)
   11f6d:	48 8d 05 84 3e 01 00 	lea    0x13e84(%rip),%rax        # 25df8 <g_1228>
   11f74:	48 89 85 f0 fb ff ff 	mov    %rax,-0x410(%rbp)
   11f7b:	48 c7 85 f8 fb ff ff 	movq   $0x0,-0x408(%rbp)
   11f82:	00 00 00 00 
   11f86:	48 8d 05 1b e6 00 00 	lea    0xe61b(%rip),%rax        # 205a8 <g_1321+0x88>
   11f8d:	48 89 85 00 fc ff ff 	mov    %rax,-0x400(%rbp)
   11f94:	48 8d 05 55 e4 00 00 	lea    0xe455(%rip),%rax        # 203f0 <g_860>
   11f9b:	48 89 85 08 fc ff ff 	mov    %rax,-0x3f8(%rbp)
   11fa2:	48 8d 05 4f 3e 01 00 	lea    0x13e4f(%rip),%rax        # 25df8 <g_1228>
   11fa9:	48 89 85 10 fc ff ff 	mov    %rax,-0x3f0(%rbp)
   11fb0:	48 8d 05 39 e4 00 00 	lea    0xe439(%rip),%rax        # 203f0 <g_860>
   11fb7:	48 89 85 18 fc ff ff 	mov    %rax,-0x3e8(%rbp)
   11fbe:	48 8d 05 e3 e5 00 00 	lea    0xe5e3(%rip),%rax        # 205a8 <g_1321+0x88>
   11fc5:	48 89 85 20 fc ff ff 	mov    %rax,-0x3e0(%rbp)
   11fcc:	48 c7 85 28 fc ff ff 	movq   $0x0,-0x3d8(%rbp)
   11fd3:	00 00 00 00 
   11fd7:	48 8d 05 1a 3e 01 00 	lea    0x13e1a(%rip),%rax        # 25df8 <g_1228>
   11fde:	48 89 85 30 fc ff ff 	mov    %rax,-0x3d0(%rbp)
   11fe5:	48 8d 85 90 e6 ff ff 	lea    -0x1970(%rbp),%rax
   11fec:	48 89 85 38 fc ff ff 	mov    %rax,-0x3c8(%rbp)
   11ff3:	48 8d 85 90 e6 ff ff 	lea    -0x1970(%rbp),%rax
   11ffa:	48 89 85 40 fc ff ff 	mov    %rax,-0x3c0(%rbp)
   12001:	48 8d 05 f0 3d 01 00 	lea    0x13df0(%rip),%rax        # 25df8 <g_1228>
   12008:	48 89 85 48 fc ff ff 	mov    %rax,-0x3b8(%rbp)
   1200f:	48 8d 85 80 e6 ff ff 	lea    -0x1980(%rbp),%rax
   12016:	48 89 85 50 fc ff ff 	mov    %rax,-0x3b0(%rbp)
   1201d:	48 8d 05 3c e2 00 00 	lea    0xe23c(%rip),%rax        # 20260 <g_203>
   12024:	48 89 85 58 fc ff ff 	mov    %rax,-0x3a8(%rbp)
   1202b:	48 8d 05 2e e2 00 00 	lea    0xe22e(%rip),%rax        # 20260 <g_203>
   12032:	48 89 85 60 fc ff ff 	mov    %rax,-0x3a0(%rbp)
   12039:	48 8d 85 80 e6 ff ff 	lea    -0x1980(%rbp),%rax
   12040:	48 89 85 68 fc ff ff 	mov    %rax,-0x398(%rbp)
   12047:	48 8d 05 12 e2 00 00 	lea    0xe212(%rip),%rax        # 20260 <g_203>
   1204e:	48 89 85 70 fc ff ff 	mov    %rax,-0x390(%rbp)
   12055:	48 8d 05 9c e4 00 00 	lea    0xe49c(%rip),%rax        # 204f8 <g_1268>
   1205c:	48 89 85 78 fc ff ff 	mov    %rax,-0x388(%rbp)
   12063:	48 8d 05 f6 e1 00 00 	lea    0xe1f6(%rip),%rax        # 20260 <g_203>
   1206a:	48 89 85 80 fc ff ff 	mov    %rax,-0x380(%rbp)
   12071:	48 c7 85 88 fc ff ff 	movq   $0x0,-0x378(%rbp)
   12078:	00 00 00 00 
   1207c:	48 c7 85 90 fc ff ff 	movq   $0x0,-0x370(%rbp)
   12083:	00 00 00 00 
   12087:	48 c7 85 98 fc ff ff 	movq   $0x0,-0x368(%rbp)
   1208e:	00 00 00 00 
   12092:	48 8d 05 c7 e1 00 00 	lea    0xe1c7(%rip),%rax        # 20260 <g_203>
   12099:	48 89 85 a0 fc ff ff 	mov    %rax,-0x360(%rbp)
   120a0:	48 8d 85 90 e6 ff ff 	lea    -0x1970(%rbp),%rax
   120a7:	48 89 85 a8 fc ff ff 	mov    %rax,-0x358(%rbp)
   120ae:	48 8d 85 80 e6 ff ff 	lea    -0x1980(%rbp),%rax
   120b5:	48 89 85 b0 fc ff ff 	mov    %rax,-0x350(%rbp)
   120bc:	48 8d 85 80 e6 ff ff 	lea    -0x1980(%rbp),%rax
   120c3:	48 89 85 b8 fc ff ff 	mov    %rax,-0x348(%rbp)
   120ca:	48 8d 85 90 e6 ff ff 	lea    -0x1970(%rbp),%rax
   120d1:	48 89 85 c0 fc ff ff 	mov    %rax,-0x340(%rbp)
   120d8:	48 8d 05 c9 e4 00 00 	lea    0xe4c9(%rip),%rax        # 205a8 <g_1321+0x88>
   120df:	48 89 85 c8 fc ff ff 	mov    %rax,-0x338(%rbp)
   120e6:	48 8d 85 90 e6 ff ff 	lea    -0x1970(%rbp),%rax
   120ed:	48 89 85 d0 fc ff ff 	mov    %rax,-0x330(%rbp)
   120f4:	48 8d 85 90 e6 ff ff 	lea    -0x1970(%rbp),%rax
   120fb:	48 89 85 d8 fc ff ff 	mov    %rax,-0x328(%rbp)
   12102:	48 8d 05 9f e4 00 00 	lea    0xe49f(%rip),%rax        # 205a8 <g_1321+0x88>
   12109:	48 89 85 e0 fc ff ff 	mov    %rax,-0x320(%rbp)
   12110:	48 c7 85 e8 fc ff ff 	movq   $0x0,-0x318(%rbp)
   12117:	00 00 00 00 
   1211b:	48 8d 05 86 e4 00 00 	lea    0xe486(%rip),%rax        # 205a8 <g_1321+0x88>
   12122:	48 89 85 f0 fc ff ff 	mov    %rax,-0x310(%rbp)
   12129:	48 8d 05 c8 e3 00 00 	lea    0xe3c8(%rip),%rax        # 204f8 <g_1268>
   12130:	48 89 85 f8 fc ff ff 	mov    %rax,-0x308(%rbp)
   12137:	48 8d 05 ba e3 00 00 	lea    0xe3ba(%rip),%rax        # 204f8 <g_1268>
   1213e:	48 89 85 00 fd ff ff 	mov    %rax,-0x300(%rbp)
   12145:	48 c7 85 08 fd ff ff 	movq   $0x0,-0x2f8(%rbp)
   1214c:	00 00 00 00 
   12150:	48 8d 05 a1 3c 01 00 	lea    0x13ca1(%rip),%rax        # 25df8 <g_1228>
   12157:	48 89 85 10 fd ff ff 	mov    %rax,-0x2f0(%rbp)
   1215e:	48 8d 05 fb e0 00 00 	lea    0xe0fb(%rip),%rax        # 20260 <g_203>
   12165:	48 89 85 18 fd ff ff 	mov    %rax,-0x2e8(%rbp)
   1216c:	48 8d 85 90 e6 ff ff 	lea    -0x1970(%rbp),%rax
   12173:	48 89 85 20 fd ff ff 	mov    %rax,-0x2e0(%rbp)
   1217a:	48 c7 85 28 fd ff ff 	movq   $0x0,-0x2d8(%rbp)
   12181:	00 00 00 00 
   12185:	48 c7 85 30 fd ff ff 	movq   $0x0,-0x2d0(%rbp)
   1218c:	00 00 00 00 
   12190:	48 8d 85 90 e6 ff ff 	lea    -0x1970(%rbp),%rax
   12197:	48 89 85 38 fd ff ff 	mov    %rax,-0x2c8(%rbp)
   1219e:	48 8d 05 bb e0 00 00 	lea    0xe0bb(%rip),%rax        # 20260 <g_203>
   121a5:	48 89 85 40 fd ff ff 	mov    %rax,-0x2c0(%rbp)
   121ac:	48 8d 05 45 3c 01 00 	lea    0x13c45(%rip),%rax        # 25df8 <g_1228>
   121b3:	48 89 85 48 fd ff ff 	mov    %rax,-0x2b8(%rbp)
   121ba:	48 c7 85 50 fd ff ff 	movq   $0x0,-0x2b0(%rbp)
   121c1:	00 00 00 00 
   121c5:	48 8d 05 24 e2 00 00 	lea    0xe224(%rip),%rax        # 203f0 <g_860>
   121cc:	48 89 85 58 fd ff ff 	mov    %rax,-0x2a8(%rbp)
   121d3:	48 8d 05 1e e3 00 00 	lea    0xe31e(%rip),%rax        # 204f8 <g_1268>
   121da:	48 89 85 60 fd ff ff 	mov    %rax,-0x2a0(%rbp)
   121e1:	48 8d 05 10 e3 00 00 	lea    0xe310(%rip),%rax        # 204f8 <g_1268>
   121e8:	48 89 85 68 fd ff ff 	mov    %rax,-0x298(%rbp)
   121ef:	48 c7 85 70 fd ff ff 	movq   $0x0,-0x290(%rbp)
   121f6:	00 00 00 00 
   121fa:	48 c7 85 78 fd ff ff 	movq   $0x0,-0x288(%rbp)
   12201:	00 00 00 00 
   12205:	48 c7 85 80 fd ff ff 	movq   $0x0,-0x280(%rbp)
   1220c:	00 00 00 00 
   12210:	48 8d 05 91 e3 00 00 	lea    0xe391(%rip),%rax        # 205a8 <g_1321+0x88>
   12217:	48 89 85 88 fd ff ff 	mov    %rax,-0x278(%rbp)
   1221e:	48 c7 85 90 fd ff ff 	movq   $0x0,-0x270(%rbp)
   12225:	00 00 00 00 
   12229:	48 8d 05 c8 3b 01 00 	lea    0x13bc8(%rip),%rax        # 25df8 <g_1228>
   12230:	48 89 85 98 fd ff ff 	mov    %rax,-0x268(%rbp)
   12237:	48 8d 85 90 e6 ff ff 	lea    -0x1970(%rbp),%rax
   1223e:	48 89 85 a0 fd ff ff 	mov    %rax,-0x260(%rbp)
   12245:	48 8d 85 90 e6 ff ff 	lea    -0x1970(%rbp),%rax
   1224c:	48 89 85 a8 fd ff ff 	mov    %rax,-0x258(%rbp)
   12253:	48 8d 05 9e 3b 01 00 	lea    0x13b9e(%rip),%rax        # 25df8 <g_1228>
   1225a:	48 89 85 b0 fd ff ff 	mov    %rax,-0x250(%rbp)
   12261:	48 8d 85 80 e6 ff ff 	lea    -0x1980(%rbp),%rax
   12268:	48 89 85 b8 fd ff ff 	mov    %rax,-0x248(%rbp)
   1226f:	48 8d 05 82 e2 00 00 	lea    0xe282(%rip),%rax        # 204f8 <g_1268>
   12276:	48 89 85 c0 fd ff ff 	mov    %rax,-0x240(%rbp)
   1227d:	48 8d 05 6c e1 00 00 	lea    0xe16c(%rip),%rax        # 203f0 <g_860>
   12284:	48 89 85 c8 fd ff ff 	mov    %rax,-0x238(%rbp)
   1228b:	48 8d 05 16 e3 00 00 	lea    0xe316(%rip),%rax        # 205a8 <g_1321+0x88>
   12292:	48 89 85 d0 fd ff ff 	mov    %rax,-0x230(%rbp)
   12299:	48 c7 85 d8 fd ff ff 	movq   $0x0,-0x228(%rbp)
   122a0:	00 00 00 00 
   122a4:	48 8d 05 fd e2 00 00 	lea    0xe2fd(%rip),%rax        # 205a8 <g_1321+0x88>
   122ab:	48 89 85 e0 fd ff ff 	mov    %rax,-0x220(%rbp)
   122b2:	48 c7 85 e8 fd ff ff 	movq   $0x0,-0x218(%rbp)
   122b9:	00 00 00 00 
   122bd:	48 8d 05 e4 e2 00 00 	lea    0xe2e4(%rip),%rax        # 205a8 <g_1321+0x88>
   122c4:	48 89 85 f0 fd ff ff 	mov    %rax,-0x210(%rbp)
   122cb:	48 8d 85 90 e6 ff ff 	lea    -0x1970(%rbp),%rax
   122d2:	48 89 85 f8 fd ff ff 	mov    %rax,-0x208(%rbp)
   122d9:	48 8d 85 90 e6 ff ff 	lea    -0x1970(%rbp),%rax
   122e0:	48 89 85 00 fe ff ff 	mov    %rax,-0x200(%rbp)
   122e7:	48 8d 85 90 e6 ff ff 	lea    -0x1970(%rbp),%rax
   122ee:	48 89 85 08 fe ff ff 	mov    %rax,-0x1f8(%rbp)
   122f5:	48 8d 85 80 e6 ff ff 	lea    -0x1980(%rbp),%rax
   122fc:	48 89 85 10 fe ff ff 	mov    %rax,-0x1f0(%rbp)
   12303:	48 8d 05 9e e2 00 00 	lea    0xe29e(%rip),%rax        # 205a8 <g_1321+0x88>
   1230a:	48 89 85 18 fe ff ff 	mov    %rax,-0x1e8(%rbp)
   12311:	48 8d 05 e0 e1 00 00 	lea    0xe1e0(%rip),%rax        # 204f8 <g_1268>
   12318:	48 89 85 20 fe ff ff 	mov    %rax,-0x1e0(%rbp)
   1231f:	48 8d 85 80 e6 ff ff 	lea    -0x1980(%rbp),%rax
   12326:	48 89 85 28 fe ff ff 	mov    %rax,-0x1d8(%rbp)
   1232d:	48 c7 85 30 fe ff ff 	movq   $0x0,-0x1d0(%rbp)
   12334:	00 00 00 00 
   12338:	48 c7 85 38 fe ff ff 	movq   $0x0,-0x1c8(%rbp)
   1233f:	00 00 00 00 
   12343:	48 8d 05 16 df 00 00 	lea    0xdf16(%rip),%rax        # 20260 <g_203>
   1234a:	48 89 85 40 fe ff ff 	mov    %rax,-0x1c0(%rbp)
   12351:	48 8d 05 98 e0 00 00 	lea    0xe098(%rip),%rax        # 203f0 <g_860>
   12358:	48 89 85 48 fe ff ff 	mov    %rax,-0x1b8(%rbp)
   1235f:	48 8d 05 fa de 00 00 	lea    0xdefa(%rip),%rax        # 20260 <g_203>
   12366:	48 89 85 50 fe ff ff 	mov    %rax,-0x1b0(%rbp)
   1236d:	48 c7 85 58 fe ff ff 	movq   $0x0,-0x1a8(%rbp)
   12374:	00 00 00 00 
   12378:	48 c7 85 60 fe ff ff 	movq   $0x0,-0x1a0(%rbp)
   1237f:	00 00 00 00 
   12383:	48 8d 85 90 e6 ff ff 	lea    -0x1970(%rbp),%rax
   1238a:	48 89 85 68 fe ff ff 	mov    %rax,-0x198(%rbp)
   12391:	48 8d 85 80 e6 ff ff 	lea    -0x1980(%rbp),%rax
   12398:	48 89 85 70 fe ff ff 	mov    %rax,-0x190(%rbp)
   1239f:	48 c7 85 78 fe ff ff 	movq   $0x0,-0x188(%rbp)
   123a6:	00 00 00 00 
   123aa:	48 8d 85 90 e6 ff ff 	lea    -0x1970(%rbp),%rax
   123b1:	48 89 85 80 fe ff ff 	mov    %rax,-0x180(%rbp)
   123b8:	48 8d 05 e9 e1 00 00 	lea    0xe1e9(%rip),%rax        # 205a8 <g_1321+0x88>
   123bf:	48 89 85 88 fe ff ff 	mov    %rax,-0x178(%rbp)
   123c6:	48 8d 05 2b 3a 01 00 	lea    0x13a2b(%rip),%rax        # 25df8 <g_1228>
   123cd:	48 89 85 90 fe ff ff 	mov    %rax,-0x170(%rbp)
   123d4:	48 8d 05 1d 3a 01 00 	lea    0x13a1d(%rip),%rax        # 25df8 <g_1228>
   123db:	48 89 85 98 fe ff ff 	mov    %rax,-0x168(%rbp)
   123e2:	48 8d 05 bf e1 00 00 	lea    0xe1bf(%rip),%rax        # 205a8 <g_1321+0x88>
   123e9:	48 89 85 a0 fe ff ff 	mov    %rax,-0x160(%rbp)
   123f0:	48 8d 05 01 e1 00 00 	lea    0xe101(%rip),%rax        # 204f8 <g_1268>
   123f7:	48 89 85 a8 fe ff ff 	mov    %rax,-0x158(%rbp)
   123fe:	48 8d 05 f3 39 01 00 	lea    0x139f3(%rip),%rax        # 25df8 <g_1228>
   12405:	48 89 85 b0 fe ff ff 	mov    %rax,-0x150(%rbp)
   1240c:	48 8d 05 e5 e0 00 00 	lea    0xe0e5(%rip),%rax        # 204f8 <g_1268>
   12413:	48 89 85 b8 fe ff ff 	mov    %rax,-0x148(%rbp)
   1241a:	48 8d 05 87 e1 00 00 	lea    0xe187(%rip),%rax        # 205a8 <g_1321+0x88>
   12421:	48 89 85 c0 fe ff ff 	mov    %rax,-0x140(%rbp)
   12428:	48 c7 85 c8 fe ff ff 	movq   $0x0,-0x138(%rbp)
   1242f:	00 00 00 00 
   12433:	48 8d 05 be 39 01 00 	lea    0x139be(%rip),%rax        # 25df8 <g_1228>
   1243a:	48 89 85 d0 fe ff ff 	mov    %rax,-0x130(%rbp)
   12441:	48 8d 05 60 e1 00 00 	lea    0xe160(%rip),%rax        # 205a8 <g_1321+0x88>
   12448:	48 89 85 d8 fe ff ff 	mov    %rax,-0x128(%rbp)
   1244f:	48 8d 85 90 e6 ff ff 	lea    -0x1970(%rbp),%rax
   12456:	48 89 85 e0 fe ff ff 	mov    %rax,-0x120(%rbp)
   1245d:	48 c7 85 e8 fe ff ff 	movq   $0x0,-0x118(%rbp)
   12464:	00 00 00 00 
   12468:	48 8d 85 80 e6 ff ff 	lea    -0x1980(%rbp),%rax
   1246f:	48 89 85 f0 fe ff ff 	mov    %rax,-0x110(%rbp)
   12476:	48 8d 85 90 e6 ff ff 	lea    -0x1970(%rbp),%rax
   1247d:	48 89 85 f8 fe ff ff 	mov    %rax,-0x108(%rbp)
   12484:	48 8d 05 d5 dd 00 00 	lea    0xddd5(%rip),%rax        # 20260 <g_203>
   1248b:	48 89 85 00 ff ff ff 	mov    %rax,-0x100(%rbp)
   12492:	48 8d 85 90 e6 ff ff 	lea    -0x1970(%rbp),%rax
   12499:	48 89 85 08 ff ff ff 	mov    %rax,-0xf8(%rbp)
   124a0:	48 8d 05 b9 dd 00 00 	lea    0xddb9(%rip),%rax        # 20260 <g_203>
   124a7:	48 89 85 10 ff ff ff 	mov    %rax,-0xf0(%rbp)
   124ae:	48 8d 05 3b df 00 00 	lea    0xdf3b(%rip),%rax        # 203f0 <g_860>
   124b5:	48 89 85 18 ff ff ff 	mov    %rax,-0xe8(%rbp)
   124bc:	48 8d 05 9d dd 00 00 	lea    0xdd9d(%rip),%rax        # 20260 <g_203>
   124c3:	48 89 85 20 ff ff ff 	mov    %rax,-0xe0(%rbp)
   124ca:	48 c7 85 28 ff ff ff 	movq   $0x0,-0xd8(%rbp)
   124d1:	00 00 00 00 
   124d5:	48 c7 85 30 ff ff ff 	movq   $0x0,-0xd0(%rbp)
   124dc:	00 00 00 00 
   124e0:	48 c7 85 38 ff ff ff 	movq   $0x0,-0xc8(%rbp)
   124e7:	00 00 00 00 
   124eb:	48 8d 05 6e dd 00 00 	lea    0xdd6e(%rip),%rax        # 20260 <g_203>
   124f2:	48 89 85 40 ff ff ff 	mov    %rax,-0xc0(%rbp)
   124f9:	48 8d 05 a8 e0 00 00 	lea    0xe0a8(%rip),%rax        # 205a8 <g_1321+0x88>
   12500:	48 89 85 48 ff ff ff 	mov    %rax,-0xb8(%rbp)
   12507:	48 8d 85 80 e6 ff ff 	lea    -0x1980(%rbp),%rax
   1250e:	48 89 85 50 ff ff ff 	mov    %rax,-0xb0(%rbp)
   12515:	48 8d 85 90 e6 ff ff 	lea    -0x1970(%rbp),%rax
   1251c:	48 89 85 58 ff ff ff 	mov    %rax,-0xa8(%rbp)
   12523:	48 8d 85 90 e6 ff ff 	lea    -0x1970(%rbp),%rax
   1252a:	48 89 85 60 ff ff ff 	mov    %rax,-0xa0(%rbp)
   12531:	48 8d 85 90 e6 ff ff 	lea    -0x1970(%rbp),%rax
   12538:	48 89 85 68 ff ff ff 	mov    %rax,-0x98(%rbp)
   1253f:	48 8d 85 90 e6 ff ff 	lea    -0x1970(%rbp),%rax
   12546:	48 89 85 70 ff ff ff 	mov    %rax,-0x90(%rbp)
   1254d:	48 8d 85 80 e6 ff ff 	lea    -0x1980(%rbp),%rax
   12554:	48 89 85 78 ff ff ff 	mov    %rax,-0x88(%rbp)
   1255b:	48 8d 05 46 e0 00 00 	lea    0xe046(%rip),%rax        # 205a8 <g_1321+0x88>
   12562:	48 89 45 80          	mov    %rax,-0x80(%rbp)
   12566:	48 c7 45 88 00 00 00 	movq   $0x0,-0x78(%rbp)
   1256d:	00 
   1256e:	48 8d 05 33 e0 00 00 	lea    0xe033(%rip),%rax        # 205a8 <g_1321+0x88>
   12575:	48 89 45 90          	mov    %rax,-0x70(%rbp)
   12579:	48 8d 05 70 de 00 00 	lea    0xde70(%rip),%rax        # 203f0 <g_860>
   12580:	48 89 45 98          	mov    %rax,-0x68(%rbp)
   12584:	48 8d 05 6d df 00 00 	lea    0xdf6d(%rip),%rax        # 204f8 <g_1268>
   1258b:	48 89 45 a0          	mov    %rax,-0x60(%rbp)
   1258f:	48 c7 45 a8 00 00 00 	movq   $0x0,-0x58(%rbp)
   12596:	00 
   12597:	48 8d 05 5a 38 01 00 	lea    0x1385a(%rip),%rax        # 25df8 <g_1228>
   1259e:	48 89 45 b0          	mov    %rax,-0x50(%rbp)
   125a2:	48 c7 85 78 e8 ff ff 	movq   $0x0,-0x1788(%rbp)
   125a9:	00 00 00 00 
   125ad:	48 8d 05 c4 37 01 00 	lea    0x137c4(%rip),%rax        # 25d78 <g_185>
   125b4:	48 89 85 80 e8 ff ff 	mov    %rax,-0x1780(%rbp)
   125bb:	48 8b 05 7e 1d 01 00 	mov    0x11d7e(%rip),%rax        # 24340 <g_106>
   125c2:	8b 00                	mov    (%rax),%eax
   125c4:	89 c3                	mov    %eax,%ebx
   125c6:	48 8b 05 83 1d 01 00 	mov    0x11d83(%rip),%rax        # 24350 <g_179>
   125cd:	0f b6 00             	movzbl (%rax),%eax
   125d0:	0f be d0             	movsbl %al,%edx
   125d3:	0f b7 85 5c e5 ff ff 	movzwl -0x1aa4(%rbp),%eax
   125da:	0f be c0             	movsbl %al,%eax
   125dd:	89 d6                	mov    %edx,%esi
   125df:	89 c7                	mov    %eax,%edi
   125e1:	e8 2c 6c ff ff       	callq  9212 <safe_mul_func_int8_t_s_s>
   125e6:	0f be c0             	movsbl %al,%eax
   125e9:	89 de                	mov    %ebx,%esi
   125eb:	89 c7                	mov    %eax,%edi
   125ed:	e8 0b 79 ff ff       	callq  9efd <safe_mod_func_uint32_t_u_u>
   125f2:	48 8b 95 78 e6 ff ff 	mov    -0x1988(%rbp),%rdx
   125f9:	8b 12                	mov    (%rdx),%edx
   125fb:	21 c2                	and    %eax,%edx
   125fd:	48 8b 85 78 e6 ff ff 	mov    -0x1988(%rbp),%rax
   12604:	89 10                	mov    %edx,(%rax)
   12606:	48 8b 85 50 e8 ff ff 	mov    -0x17b0(%rbp),%rax
   1260d:	8b 00                	mov    (%rax),%eax
   1260f:	3d 14 f2 1a 1b       	cmp    $0x1b1af214,%eax
   12614:	7f 55                	jg     1266b <func_8+0x2e13>
   12616:	48 8b 85 48 e5 ff ff 	mov    -0x1ab8(%rbp),%rax
   1261d:	0f be d8             	movsbl %al,%ebx
   12620:	0f b7 85 5c e5 ff ff 	movzwl -0x1aa4(%rbp),%eax
   12627:	48 89 c7             	mov    %rax,%rdi
   1262a:	e8 ea 79 ff ff       	callq  a019 <safe_unary_minus_func_uint64_t_u>
   1262f:	48 8b 85 58 e8 ff ff 	mov    -0x17a8(%rbp),%rax
   12636:	48 3b 85 78 e8 ff ff 	cmp    -0x1788(%rbp),%rax
   1263d:	48 8b 85 48 e5 ff ff 	mov    -0x1ab8(%rbp),%rax
   12644:	0f b6 c0             	movzbl %al,%eax
   12647:	89 c6                	mov    %eax,%esi
   12649:	bf 01 00 00 00       	mov    $0x1,%edi
   1264e:	e8 40 75 ff ff       	callq  9b93 <safe_mul_func_uint8_t_u_u>
   12653:	0f be c0             	movsbl %al,%eax
   12656:	89 de                	mov    %ebx,%esi
   12658:	89 c7                	mov    %eax,%edi
   1265a:	e8 d2 6b ff ff       	callq  9231 <safe_mod_func_int8_t_s_s>
   1265f:	48 0f be c0          	movsbq %al,%rax
   12663:	25 49 4b 00 00       	and    $0x4b49,%eax
   12668:	48 85 c0             	test   %rax,%rax
   1266b:	48 83 bd 78 e8 ff ff 	cmpq   $0x0,-0x1788(%rbp)
   12672:	00 
   12673:	0f 95 c0             	setne  %al
   12676:	0f b6 d0             	movzbl %al,%edx
   12679:	48 8b 85 80 e8 ff ff 	mov    -0x1780(%rbp),%rax
   12680:	8b 00                	mov    (%rax),%eax
   12682:	09 c2                	or     %eax,%edx
   12684:	48 8b 85 80 e8 ff ff 	mov    -0x1780(%rbp),%rax
   1268b:	89 10                	mov    %edx,(%rax)
   1268d:	48 8b 05 94 21 01 00 	mov    0x12194(%rip),%rax        # 24828 <g_1412>
   12694:	48 8b 95 70 e8 ff ff 	mov    -0x1790(%rbp),%rdx
   1269b:	48 89 10             	mov    %rdx,(%rax)
   1269e:	8b 05 08 dd 00 00    	mov    0xdd08(%rip),%eax        # 203ac <g_660>
   126a4:	83 c0 01             	add    $0x1,%eax
   126a7:	89 05 ff dc 00 00    	mov    %eax,0xdcff(%rip)        # 203ac <g_660>
   126ad:	8b 05 f9 dc 00 00    	mov    0xdcf9(%rip),%eax        # 203ac <g_660>
   126b3:	83 f8 05             	cmp    $0x5,%eax
   126b6:	0f 86 31 f2 ff ff    	jbe    118ed <func_8+0x2095>
   126bc:	8b 05 3e de 00 00    	mov    0xde3e(%rip),%eax        # 20500 <g_1271>
   126c2:	83 c0 01             	add    $0x1,%eax
   126c5:	89 05 35 de 00 00    	mov    %eax,0xde35(%rip)        # 20500 <g_1271>
   126cb:	8b 05 2f de 00 00    	mov    0xde2f(%rip),%eax        # 20500 <g_1271>
   126d1:	83 f8 05             	cmp    $0x5,%eax
   126d4:	0f 86 05 f1 ff ff    	jbe    117df <func_8+0x1f87>
   126da:	c7 05 84 db 00 00 00 	movl   $0x0,0xdb84(%rip)        # 20268 <g_209>
   126e1:	00 00 00 
   126e4:	e9 bd 00 00 00       	jmpq   127a6 <func_8+0x2f4e>
   126e9:	66 c7 85 76 e5 ff ff 	movw   $0xffff,-0x1a8a(%rbp)
   126f0:	ff ff 
   126f2:	c7 85 c4 e5 ff ff 00 	movl   $0x0,-0x1a3c(%rbp)
   126f9:	00 00 00 
   126fc:	eb 1e                	jmp    1271c <func_8+0x2ec4>
   126fe:	8b 85 c4 e5 ff ff    	mov    -0x1a3c(%rbp),%eax
   12704:	48 98                	cltq   
   12706:	48 8d 15 6b 36 01 00 	lea    0x1366b(%rip),%rdx        # 25d78 <g_185>
   1270d:	48 89 94 c5 d0 e8 ff 	mov    %rdx,-0x1730(%rbp,%rax,8)
   12714:	ff 
   12715:	83 85 c4 e5 ff ff 01 	addl   $0x1,-0x1a3c(%rbp)
   1271c:	83 bd c4 e5 ff ff 00 	cmpl   $0x0,-0x1a3c(%rbp)
   12723:	7e d9                	jle    126fe <func_8+0x2ea6>
   12725:	83 ad a4 e5 ff ff 01 	subl   $0x1,-0x1a5c(%rbp)
   1272c:	c7 05 22 db 00 00 00 	movl   $0x0,0xdb22(%rip)        # 20258 <g_174>
   12733:	00 00 00 
   12736:	90                   	nop
   12737:	8b 05 1b db 00 00    	mov    0xdb1b(%rip),%eax        # 20258 <g_174>
   1273d:	83 f8 03             	cmp    $0x3,%eax
   12740:	77 55                	ja     12797 <func_8+0x2f3f>
   12742:	48 c7 85 88 e8 ff ff 	movq   $0x0,-0x1778(%rbp)
   12749:	00 00 00 00 
   1274d:	c7 85 c8 e5 ff ff 00 	movl   $0x0,-0x1a38(%rbp)
   12754:	00 00 00 
   12757:	eb 1b                	jmp    12774 <func_8+0x2f1c>
   12759:	8b 85 c8 e5 ff ff    	mov    -0x1a38(%rbp),%eax
   1275f:	48 98                	cltq   
   12761:	48 c7 84 c5 10 f8 ff 	movq   $0x0,-0x7f0(%rbp,%rax,8)
   12768:	ff 00 00 00 00 
   1276d:	83 85 c8 e5 ff ff 01 	addl   $0x1,-0x1a38(%rbp)
   12774:	83 bd c8 e5 ff ff 00 	cmpl   $0x0,-0x1a38(%rbp)
   1277b:	7e dc                	jle    12759 <func_8+0x2f01>
   1277d:	48 8b 85 60 e8 ff ff 	mov    -0x17a0(%rbp),%rax
   12784:	48 89 85 90 ed ff ff 	mov    %rax,-0x1270(%rbp)
   1278b:	48 8b 85 48 e5 ff ff 	mov    -0x1ab8(%rbp),%rax
   12792:	e9 c6 20 00 00       	jmpq   1485d <func_8+0x5005>
   12797:	8b 05 cb da 00 00    	mov    0xdacb(%rip),%eax        # 20268 <g_209>
   1279d:	83 c0 01             	add    $0x1,%eax
   127a0:	89 05 c2 da 00 00    	mov    %eax,0xdac2(%rip)        # 20268 <g_209>
   127a6:	8b 05 bc da 00 00    	mov    0xdabc(%rip),%eax        # 20268 <g_209>
   127ac:	83 f8 03             	cmp    $0x3,%eax
   127af:	0f 8e 34 ff ff ff    	jle    126e9 <func_8+0x2e91>
   127b5:	e9 6d 20 00 00       	jmpq   14827 <func_8+0x4fcf>
   127ba:	c7 85 98 e5 ff ff f1 	movl   $0x4158d0f1,-0x1a68(%rbp)
   127c1:	d0 58 41 
   127c4:	c7 85 34 e6 ff ff a5 	movl   $0x1063bfa5,-0x19cc(%rbp)
   127cb:	bf 63 10 
   127ce:	c7 85 38 e6 ff ff 09 	movl   $0x9,-0x19c8(%rbp)
   127d5:	00 00 00 
   127d8:	c7 85 a0 e6 ff ff fe 	movl   $0xfffffffe,-0x1960(%rbp)
   127df:	ff ff ff 
   127e2:	48 c7 85 38 e8 ff ff 	movq   $0x0,-0x17c8(%rbp)
   127e9:	00 00 00 00 
   127ed:	48 8d 85 98 e5 ff ff 	lea    -0x1a68(%rbp),%rax
   127f4:	48 89 85 a8 e6 ff ff 	mov    %rax,-0x1958(%rbp)
   127fb:	48 c7 85 10 f8 ff ff 	movq   $0x0,-0x7f0(%rbp)
   12802:	00 00 00 00 
   12806:	48 8d 85 a8 e6 ff ff 	lea    -0x1958(%rbp),%rax
   1280d:	48 89 85 18 f8 ff ff 	mov    %rax,-0x7e8(%rbp)
   12814:	48 8d 85 a8 e6 ff ff 	lea    -0x1958(%rbp),%rax
   1281b:	48 89 85 20 f8 ff ff 	mov    %rax,-0x7e0(%rbp)
   12822:	48 8d 85 a8 e6 ff ff 	lea    -0x1958(%rbp),%rax
   12829:	48 89 85 28 f8 ff ff 	mov    %rax,-0x7d8(%rbp)
   12830:	48 8d 85 a8 e6 ff ff 	lea    -0x1958(%rbp),%rax
   12837:	48 89 85 30 f8 ff ff 	mov    %rax,-0x7d0(%rbp)
   1283e:	48 c7 85 38 f8 ff ff 	movq   $0x0,-0x7c8(%rbp)
   12845:	00 00 00 00 
   12849:	48 8d 85 a8 e6 ff ff 	lea    -0x1958(%rbp),%rax
   12850:	48 89 85 40 f8 ff ff 	mov    %rax,-0x7c0(%rbp)
   12857:	48 8d 85 a8 e6 ff ff 	lea    -0x1958(%rbp),%rax
   1285e:	48 89 85 48 f8 ff ff 	mov    %rax,-0x7b8(%rbp)
   12865:	48 8d 85 a8 e6 ff ff 	lea    -0x1958(%rbp),%rax
   1286c:	48 89 85 50 f8 ff ff 	mov    %rax,-0x7b0(%rbp)
   12873:	48 c7 85 58 f8 ff ff 	movq   $0x0,-0x7a8(%rbp)
   1287a:	00 00 00 00 
   1287e:	48 c7 85 60 f8 ff ff 	movq   $0x0,-0x7a0(%rbp)
   12885:	00 00 00 00 
   12889:	48 8d 85 a8 e6 ff ff 	lea    -0x1958(%rbp),%rax
   12890:	48 89 85 68 f8 ff ff 	mov    %rax,-0x798(%rbp)
   12897:	48 8d 85 a8 e6 ff ff 	lea    -0x1958(%rbp),%rax
   1289e:	48 89 85 70 f8 ff ff 	mov    %rax,-0x790(%rbp)
   128a5:	48 8d 85 a8 e6 ff ff 	lea    -0x1958(%rbp),%rax
   128ac:	48 89 85 78 f8 ff ff 	mov    %rax,-0x788(%rbp)
   128b3:	48 c7 85 80 f8 ff ff 	movq   $0x0,-0x780(%rbp)
   128ba:	00 00 00 00 
   128be:	48 8d 85 a8 e6 ff ff 	lea    -0x1958(%rbp),%rax
   128c5:	48 89 85 88 f8 ff ff 	mov    %rax,-0x778(%rbp)
   128cc:	48 8d 85 a8 e6 ff ff 	lea    -0x1958(%rbp),%rax
   128d3:	48 89 85 90 f8 ff ff 	mov    %rax,-0x770(%rbp)
   128da:	48 8d 85 a8 e6 ff ff 	lea    -0x1958(%rbp),%rax
   128e1:	48 89 85 98 f8 ff ff 	mov    %rax,-0x768(%rbp)
   128e8:	48 8d 85 a8 e6 ff ff 	lea    -0x1958(%rbp),%rax
   128ef:	48 89 85 a0 f8 ff ff 	mov    %rax,-0x760(%rbp)
   128f6:	48 c7 85 a8 f8 ff ff 	movq   $0x0,-0x758(%rbp)
   128fd:	00 00 00 00 
   12901:	48 c7 85 b0 f8 ff ff 	movq   $0x0,-0x750(%rbp)
   12908:	00 00 00 00 
   1290c:	48 8d 85 a8 e6 ff ff 	lea    -0x1958(%rbp),%rax
   12913:	48 89 85 b8 f8 ff ff 	mov    %rax,-0x748(%rbp)
   1291a:	48 8d 85 a8 e6 ff ff 	lea    -0x1958(%rbp),%rax
   12921:	48 89 85 c0 f8 ff ff 	mov    %rax,-0x740(%rbp)
   12928:	48 c7 85 c8 f8 ff ff 	movq   $0x0,-0x738(%rbp)
   1292f:	00 00 00 00 
   12933:	48 8d 85 a8 e6 ff ff 	lea    -0x1958(%rbp),%rax
   1293a:	48 89 85 d0 f8 ff ff 	mov    %rax,-0x730(%rbp)
   12941:	48 c7 85 d8 f8 ff ff 	movq   $0x0,-0x728(%rbp)
   12948:	00 00 00 00 
   1294c:	48 c7 85 e0 f8 ff ff 	movq   $0x0,-0x720(%rbp)
   12953:	00 00 00 00 
   12957:	48 c7 85 e8 f8 ff ff 	movq   $0x0,-0x718(%rbp)
   1295e:	00 00 00 00 
   12962:	48 8d 85 a8 e6 ff ff 	lea    -0x1958(%rbp),%rax
   12969:	48 89 85 f0 f8 ff ff 	mov    %rax,-0x710(%rbp)
   12970:	48 c7 85 f8 f8 ff ff 	movq   $0x0,-0x708(%rbp)
   12977:	00 00 00 00 
   1297b:	48 c7 85 00 f9 ff ff 	movq   $0x0,-0x700(%rbp)
   12982:	00 00 00 00 
   12986:	48 c7 85 08 f9 ff ff 	movq   $0x0,-0x6f8(%rbp)
   1298d:	00 00 00 00 
   12991:	48 c7 85 10 f9 ff ff 	movq   $0x0,-0x6f0(%rbp)
   12998:	00 00 00 00 
   1299c:	48 8d 85 a8 e6 ff ff 	lea    -0x1958(%rbp),%rax
   129a3:	48 89 85 18 f9 ff ff 	mov    %rax,-0x6e8(%rbp)
   129aa:	48 c7 85 20 f9 ff ff 	movq   $0x0,-0x6e0(%rbp)
   129b1:	00 00 00 00 
   129b5:	48 8d 85 a8 e6 ff ff 	lea    -0x1958(%rbp),%rax
   129bc:	48 89 85 28 f9 ff ff 	mov    %rax,-0x6d8(%rbp)
   129c3:	48 8d 85 a8 e6 ff ff 	lea    -0x1958(%rbp),%rax
   129ca:	48 89 85 30 f9 ff ff 	mov    %rax,-0x6d0(%rbp)
   129d1:	48 c7 85 38 f9 ff ff 	movq   $0x0,-0x6c8(%rbp)
   129d8:	00 00 00 00 
   129dc:	48 8d 85 a8 e6 ff ff 	lea    -0x1958(%rbp),%rax
   129e3:	48 89 85 40 f9 ff ff 	mov    %rax,-0x6c0(%rbp)
   129ea:	48 c7 85 48 f9 ff ff 	movq   $0x0,-0x6b8(%rbp)
   129f1:	00 00 00 00 
   129f5:	48 8d 85 a8 e6 ff ff 	lea    -0x1958(%rbp),%rax
   129fc:	48 89 85 50 f9 ff ff 	mov    %rax,-0x6b0(%rbp)
   12a03:	48 8d 85 a8 e6 ff ff 	lea    -0x1958(%rbp),%rax
   12a0a:	48 89 85 58 f9 ff ff 	mov    %rax,-0x6a8(%rbp)
   12a11:	48 8d 85 a8 e6 ff ff 	lea    -0x1958(%rbp),%rax
   12a18:	48 89 85 60 f9 ff ff 	mov    %rax,-0x6a0(%rbp)
   12a1f:	48 c7 85 68 f9 ff ff 	movq   $0x0,-0x698(%rbp)
   12a26:	00 00 00 00 
   12a2a:	48 8d 85 a8 e6 ff ff 	lea    -0x1958(%rbp),%rax
   12a31:	48 89 85 70 f9 ff ff 	mov    %rax,-0x690(%rbp)
   12a38:	48 8d 85 a8 e6 ff ff 	lea    -0x1958(%rbp),%rax
   12a3f:	48 89 85 78 f9 ff ff 	mov    %rax,-0x688(%rbp)
   12a46:	48 8d 85 a8 e6 ff ff 	lea    -0x1958(%rbp),%rax
   12a4d:	48 89 85 80 f9 ff ff 	mov    %rax,-0x680(%rbp)
   12a54:	48 c7 85 88 f9 ff ff 	movq   $0x0,-0x678(%rbp)
   12a5b:	00 00 00 00 
   12a5f:	48 8d 85 a8 e6 ff ff 	lea    -0x1958(%rbp),%rax
   12a66:	48 89 85 90 f9 ff ff 	mov    %rax,-0x670(%rbp)
   12a6d:	48 8d 85 a8 e6 ff ff 	lea    -0x1958(%rbp),%rax
   12a74:	48 89 85 98 f9 ff ff 	mov    %rax,-0x668(%rbp)
   12a7b:	48 8d 85 a8 e6 ff ff 	lea    -0x1958(%rbp),%rax
   12a82:	48 89 85 a0 f9 ff ff 	mov    %rax,-0x660(%rbp)
   12a89:	48 8d 85 a8 e6 ff ff 	lea    -0x1958(%rbp),%rax
   12a90:	48 89 85 a8 f9 ff ff 	mov    %rax,-0x658(%rbp)
   12a97:	48 c7 85 b0 f9 ff ff 	movq   $0x0,-0x650(%rbp)
   12a9e:	00 00 00 00 
   12aa2:	48 8d 85 a8 e6 ff ff 	lea    -0x1958(%rbp),%rax
   12aa9:	48 89 85 b8 f9 ff ff 	mov    %rax,-0x648(%rbp)
   12ab0:	48 8d 85 a8 e6 ff ff 	lea    -0x1958(%rbp),%rax
   12ab7:	48 89 85 c0 f9 ff ff 	mov    %rax,-0x640(%rbp)
   12abe:	48 c7 85 c8 f9 ff ff 	movq   $0x0,-0x638(%rbp)
   12ac5:	00 00 00 00 
   12ac9:	48 8d 85 a8 e6 ff ff 	lea    -0x1958(%rbp),%rax
   12ad0:	48 89 85 d0 f9 ff ff 	mov    %rax,-0x630(%rbp)
   12ad7:	48 8d 85 a8 e6 ff ff 	lea    -0x1958(%rbp),%rax
   12ade:	48 89 85 d8 f9 ff ff 	mov    %rax,-0x628(%rbp)
   12ae5:	48 8d 85 a8 e6 ff ff 	lea    -0x1958(%rbp),%rax
   12aec:	48 89 85 e0 f9 ff ff 	mov    %rax,-0x620(%rbp)
   12af3:	48 8d 85 a8 e6 ff ff 	lea    -0x1958(%rbp),%rax
   12afa:	48 89 85 e8 f9 ff ff 	mov    %rax,-0x618(%rbp)
   12b01:	48 8d 85 a8 e6 ff ff 	lea    -0x1958(%rbp),%rax
   12b08:	48 89 85 f0 f9 ff ff 	mov    %rax,-0x610(%rbp)
   12b0f:	48 c7 85 f8 f9 ff ff 	movq   $0x0,-0x608(%rbp)
   12b16:	00 00 00 00 
   12b1a:	48 8d 85 a8 e6 ff ff 	lea    -0x1958(%rbp),%rax
   12b21:	48 89 85 00 fa ff ff 	mov    %rax,-0x600(%rbp)
   12b28:	48 c7 85 08 fa ff ff 	movq   $0x0,-0x5f8(%rbp)
   12b2f:	00 00 00 00 
   12b33:	48 c7 85 10 fa ff ff 	movq   $0x0,-0x5f0(%rbp)
   12b3a:	00 00 00 00 
   12b3e:	48 c7 85 18 fa ff ff 	movq   $0x0,-0x5e8(%rbp)
   12b45:	00 00 00 00 
   12b49:	48 8d 85 a8 e6 ff ff 	lea    -0x1958(%rbp),%rax
   12b50:	48 89 85 20 fa ff ff 	mov    %rax,-0x5e0(%rbp)
   12b57:	48 c7 85 28 fa ff ff 	movq   $0x0,-0x5d8(%rbp)
   12b5e:	00 00 00 00 
   12b62:	48 8d 85 a8 e6 ff ff 	lea    -0x1958(%rbp),%rax
   12b69:	48 89 85 30 fa ff ff 	mov    %rax,-0x5d0(%rbp)
   12b70:	48 8d 85 a8 e6 ff ff 	lea    -0x1958(%rbp),%rax
   12b77:	48 89 85 38 fa ff ff 	mov    %rax,-0x5c8(%rbp)
   12b7e:	48 8d 85 a8 e6 ff ff 	lea    -0x1958(%rbp),%rax
   12b85:	48 89 85 40 fa ff ff 	mov    %rax,-0x5c0(%rbp)
   12b8c:	48 8d 85 a8 e6 ff ff 	lea    -0x1958(%rbp),%rax
   12b93:	48 89 85 48 fa ff ff 	mov    %rax,-0x5b8(%rbp)
   12b9a:	48 8d 85 a8 e6 ff ff 	lea    -0x1958(%rbp),%rax
   12ba1:	48 89 85 50 fa ff ff 	mov    %rax,-0x5b0(%rbp)
   12ba8:	48 c7 85 58 fa ff ff 	movq   $0x0,-0x5a8(%rbp)
   12baf:	00 00 00 00 
   12bb3:	48 c7 85 60 fa ff ff 	movq   $0x0,-0x5a0(%rbp)
   12bba:	00 00 00 00 
   12bbe:	48 8d 85 a8 e6 ff ff 	lea    -0x1958(%rbp),%rax
   12bc5:	48 89 85 68 fa ff ff 	mov    %rax,-0x598(%rbp)
   12bcc:	48 8d 85 a8 e6 ff ff 	lea    -0x1958(%rbp),%rax
   12bd3:	48 89 85 70 fa ff ff 	mov    %rax,-0x590(%rbp)
   12bda:	48 8d 85 a8 e6 ff ff 	lea    -0x1958(%rbp),%rax
   12be1:	48 89 85 78 fa ff ff 	mov    %rax,-0x588(%rbp)
   12be8:	48 8d 85 a8 e6 ff ff 	lea    -0x1958(%rbp),%rax
   12bef:	48 89 85 80 fa ff ff 	mov    %rax,-0x580(%rbp)
   12bf6:	48 8d 85 a8 e6 ff ff 	lea    -0x1958(%rbp),%rax
   12bfd:	48 89 85 88 fa ff ff 	mov    %rax,-0x578(%rbp)
   12c04:	48 8d 85 10 f8 ff ff 	lea    -0x7f0(%rbp),%rax
   12c0b:	48 05 38 01 00 00    	add    $0x138,%rax
   12c11:	48 89 85 b0 e6 ff ff 	mov    %rax,-0x1950(%rbp)
   12c18:	48 8d 85 b0 e6 ff ff 	lea    -0x1950(%rbp),%rax
   12c1f:	48 89 85 40 e8 ff ff 	mov    %rax,-0x17c0(%rbp)
   12c26:	48 8d 85 a0 e6 ff ff 	lea    -0x1960(%rbp),%rax
   12c2d:	48 89 85 10 e9 ff ff 	mov    %rax,-0x16f0(%rbp)
   12c34:	48 8d 85 a0 e6 ff ff 	lea    -0x1960(%rbp),%rax
   12c3b:	48 89 85 18 e9 ff ff 	mov    %rax,-0x16e8(%rbp)
   12c42:	48 8d 85 a0 e6 ff ff 	lea    -0x1960(%rbp),%rax
   12c49:	48 89 85 20 e9 ff ff 	mov    %rax,-0x16e0(%rbp)
   12c50:	48 8d 85 a0 e6 ff ff 	lea    -0x1960(%rbp),%rax
   12c57:	48 89 85 28 e9 ff ff 	mov    %rax,-0x16d8(%rbp)
   12c5e:	c7 85 cc e5 ff ff 00 	movl   $0x0,-0x1a34(%rbp)
   12c65:	00 00 00 
   12c68:	eb 4a                	jmp    12cb4 <func_8+0x345c>
   12c6a:	c7 85 d0 e5 ff ff 00 	movl   $0x0,-0x1a30(%rbp)
   12c71:	00 00 00 
   12c74:	eb 2e                	jmp    12ca4 <func_8+0x344c>
   12c76:	8b 85 d0 e5 ff ff    	mov    -0x1a30(%rbp),%eax
   12c7c:	48 98                	cltq   
   12c7e:	8b 95 cc e5 ff ff    	mov    -0x1a34(%rbp),%edx
   12c84:	48 63 d2             	movslq %edx,%rdx
   12c87:	48 c1 e2 03          	shl    $0x3,%rdx
   12c8b:	48 01 d0             	add    %rdx,%rax
   12c8e:	48 8d 15 d3 d5 00 00 	lea    0xd5d3(%rip),%rdx        # 20268 <g_209>
   12c95:	48 89 94 c5 a0 ea ff 	mov    %rdx,-0x1560(%rbp,%rax,8)
   12c9c:	ff 
   12c9d:	83 85 d0 e5 ff ff 01 	addl   $0x1,-0x1a30(%rbp)
   12ca4:	83 bd d0 e5 ff ff 07 	cmpl   $0x7,-0x1a30(%rbp)
   12cab:	7e c9                	jle    12c76 <func_8+0x341e>
   12cad:	83 85 cc e5 ff ff 01 	addl   $0x1,-0x1a34(%rbp)
   12cb4:	83 bd cc e5 ff ff 04 	cmpl   $0x4,-0x1a34(%rbp)
   12cbb:	7e ad                	jle    12c6a <func_8+0x3412>
   12cbd:	c7 85 cc e5 ff ff 00 	movl   $0x0,-0x1a34(%rbp)
   12cc4:	00 00 00 
   12cc7:	eb 1a                	jmp    12ce3 <func_8+0x348b>
   12cc9:	8b 85 cc e5 ff ff    	mov    -0x1a34(%rbp),%eax
   12ccf:	48 98                	cltq   
   12cd1:	c7 84 85 d0 e8 ff ff 	movl   $0xf139fd20,-0x1730(%rbp,%rax,4)
   12cd8:	20 fd 39 f1 
   12cdc:	83 85 cc e5 ff ff 01 	addl   $0x1,-0x1a34(%rbp)
   12ce3:	83 bd cc e5 ff ff 00 	cmpl   $0x0,-0x1a34(%rbp)
   12cea:	7e dd                	jle    12cc9 <func_8+0x3471>
   12cec:	c6 05 3d d3 00 00 01 	movb   $0x1,0xd33d(%rip)        # 20030 <g_58>
   12cf3:	90                   	nop
   12cf4:	0f b6 05 35 d3 00 00 	movzbl 0xd335(%rip),%eax        # 20030 <g_58>
   12cfb:	84 c0                	test   %al,%al
   12cfd:	0f 88 a6 00 00 00    	js     12da9 <func_8+0x3551>
   12d03:	0f b6 05 26 d3 00 00 	movzbl 0xd326(%rip),%eax        # 20030 <g_58>
   12d0a:	0f be c0             	movsbl %al,%eax
   12d0d:	48 98                	cltq   
   12d0f:	8b 84 85 a4 e8 ff ff 	mov    -0x175c(%rbp,%rax,4),%eax
   12d16:	85 c0                	test   %eax,%eax
   12d18:	0f 85 8a 00 00 00    	jne    12da8 <func_8+0x3550>
   12d1e:	c7 05 4c 30 01 00 00 	movl   $0x0,0x1304c(%rip)        # 25d74 <g_49>
   12d25:	00 00 00 
   12d28:	90                   	nop
   12d29:	8b 05 45 30 01 00    	mov    0x13045(%rip),%eax        # 25d74 <g_49>
   12d2f:	85 c0                	test   %eax,%eax
   12d31:	75 5b                	jne    12d8e <func_8+0x3536>
   12d33:	8b 05 3b 30 01 00    	mov    0x1303b(%rip),%eax        # 25d74 <g_49>
   12d39:	83 c0 02             	add    $0x2,%eax
   12d3c:	89 c0                	mov    %eax,%eax
   12d3e:	8b 94 85 a4 e8 ff ff 	mov    -0x175c(%rbp,%rax,4),%edx
   12d45:	0f b6 05 e4 d2 00 00 	movzbl 0xd2e4(%rip),%eax        # 20030 <g_58>
   12d4c:	0f be c0             	movsbl %al,%eax
   12d4f:	83 c0 01             	add    $0x1,%eax
   12d52:	48 98                	cltq   
   12d54:	8b 84 85 a4 e8 ff ff 	mov    -0x175c(%rbp,%rax,4),%eax
   12d5b:	21 d0                	and    %edx,%eax
   12d5d:	85 c0                	test   %eax,%eax
   12d5f:	0f 9f c2             	setg   %dl
   12d62:	8b 05 0c 30 01 00    	mov    0x1300c(%rip),%eax        # 25d74 <g_49>
   12d68:	8d 48 01             	lea    0x1(%rax),%ecx
   12d6b:	0f b6 c2             	movzbl %dl,%eax
   12d6e:	89 ca                	mov    %ecx,%edx
   12d70:	48 8d 0c 95 00 00 00 	lea    0x0(,%rdx,4),%rcx
   12d77:	00 
   12d78:	48 8d 15 f9 2f 01 00 	lea    0x12ff9(%rip),%rdx        # 25d78 <g_185>
   12d7f:	89 04 11             	mov    %eax,(%rcx,%rdx,1)
   12d82:	48 8b 05 d7 d4 00 00 	mov    0xd4d7(%rip),%rax        # 20260 <g_203>
   12d89:	e9 cf 1a 00 00       	jmpq   1485d <func_8+0x5005>
   12d8e:	0f b6 05 9b d2 00 00 	movzbl 0xd29b(%rip),%eax        # 20030 <g_58>
   12d95:	0f be c0             	movsbl %al,%eax
   12d98:	48 98                	cltq   
   12d9a:	8b 84 85 a4 e8 ff ff 	mov    -0x175c(%rbp,%rax,4),%eax
   12da1:	48 98                	cltq   
   12da3:	e9 b5 1a 00 00       	jmpq   1485d <func_8+0x5005>
   12da8:	90                   	nop
   12da9:	8b 85 d0 e8 ff ff    	mov    -0x1730(%rbp),%eax
   12daf:	83 c0 01             	add    $0x1,%eax
   12db2:	89 85 d0 e8 ff ff    	mov    %eax,-0x1730(%rbp)
   12db8:	48 8b 85 48 e5 ff ff 	mov    -0x1ab8(%rbp),%rax
   12dbf:	89 c3                	mov    %eax,%ebx
   12dc1:	48 8b 05 e0 d7 00 00 	mov    0xd7e0(%rip),%rax        # 205a8 <g_1321+0x88>
   12dc8:	89 c2                	mov    %eax,%edx
   12dca:	8b 85 98 e5 ff ff    	mov    -0x1a68(%rbp),%eax
   12dd0:	89 c1                	mov    %eax,%ecx
   12dd2:	48 8b 85 48 e5 ff ff 	mov    -0x1ab8(%rbp),%rax
   12dd9:	31 c8                	xor    %ecx,%eax
   12ddb:	0f be c0             	movsbl %al,%eax
   12dde:	89 d6                	mov    %edx,%esi
   12de0:	89 c7                	mov    %eax,%edi
   12de2:	e8 ba 64 ff ff       	callq  92a1 <safe_lshift_func_int8_t_s_s>
   12de7:	0f be d0             	movsbl %al,%edx
   12dea:	0f b7 85 5c e5 ff ff 	movzwl -0x1aa4(%rbp),%eax
   12df1:	39 c2                	cmp    %eax,%edx
   12df3:	0f 95 c0             	setne  %al
   12df6:	0f b6 d0             	movzbl %al,%edx
   12df9:	0f b7 85 5c e5 ff ff 	movzwl -0x1aa4(%rbp),%eax
   12e00:	39 c2                	cmp    %eax,%edx
   12e02:	0f 95 c0             	setne  %al
   12e05:	0f b6 c0             	movzbl %al,%eax
   12e08:	89 de                	mov    %ebx,%esi
   12e0a:	89 c7                	mov    %eax,%edi
   12e0c:	e8 37 70 ff ff       	callq  9e48 <safe_rshift_func_uint16_t_u_s>
   12e11:	89 c3                	mov    %eax,%ebx
   12e13:	48 8b 05 76 15 01 00 	mov    0x11576(%rip),%rax        # 24390 <g_235>
   12e1a:	8b 00                	mov    (%rax),%eax
   12e1c:	be 25 a6 0f 18       	mov    $0x180fa625,%esi
   12e21:	89 c7                	mov    %eax,%edi
   12e23:	e8 a4 68 ff ff       	callq  96cc <safe_mod_func_int32_t_s_s>
   12e28:	48 8b 95 e8 e6 ff ff 	mov    -0x1918(%rbp),%rdx
   12e2f:	89 02                	mov    %eax,(%rdx)
   12e31:	48 8b 85 e8 e6 ff ff 	mov    -0x1918(%rbp),%rax
   12e38:	8b 00                	mov    (%rax),%eax
   12e3a:	0f bf d0             	movswl %ax,%edx
   12e3d:	0f b7 85 5c e5 ff ff 	movzwl -0x1aa4(%rbp),%eax
   12e44:	98                   	cwtl   
   12e45:	89 d6                	mov    %edx,%esi
   12e47:	89 c7                	mov    %eax,%edi
   12e49:	e8 85 65 ff ff       	callq  93d3 <safe_sub_func_int16_t_s_s>
   12e4e:	98                   	cwtl   
   12e4f:	be 0c 00 00 00       	mov    $0xc,%esi
   12e54:	89 c7                	mov    %eax,%edi
   12e56:	e8 cf 66 ff ff       	callq  952a <safe_rshift_func_int16_t_s_s>
   12e5b:	0f bf d0             	movswl %ax,%edx
   12e5e:	48 8b 85 48 e5 ff ff 	mov    -0x1ab8(%rbp),%rax
   12e65:	0f b6 c0             	movzbl %al,%eax
   12e68:	89 d6                	mov    %edx,%esi
   12e6a:	89 c7                	mov    %eax,%edi
   12e6c:	e8 1c 6e ff ff       	callq  9c8d <safe_rshift_func_uint8_t_u_s>
   12e71:	0f b7 15 b0 d1 00 00 	movzwl 0xd1b0(%rip),%edx        # 20028 <g_56>
   12e78:	0f b6 c0             	movzbl %al,%eax
   12e7b:	31 d0                	xor    %edx,%eax
   12e7d:	66 89 05 a4 d1 00 00 	mov    %ax,0xd1a4(%rip)        # 20028 <g_56>
   12e84:	0f b7 05 9d d1 00 00 	movzwl 0xd19d(%rip),%eax        # 20028 <g_56>
   12e8b:	98                   	cwtl   
   12e8c:	3d f6 ff 00 00       	cmp    $0xfff6,%eax
   12e91:	76 21                	jbe    12eb4 <func_8+0x365c>
   12e93:	83 bd 54 e5 ff ff 00 	cmpl   $0x0,-0x1aac(%rbp)
   12e9a:	75 18                	jne    12eb4 <func_8+0x365c>
   12e9c:	48 8b 85 40 e8 ff ff 	mov    -0x17c0(%rbp),%rax
   12ea3:	48 c7 00 00 00 00 00 	movq   $0x0,(%rax)
   12eaa:	48 83 bd 78 e7 ff ff 	cmpq   $0x0,-0x1888(%rbp)
   12eb1:	00 
   12eb2:	74 07                	je     12ebb <func_8+0x3663>
   12eb4:	b9 01 00 00 00       	mov    $0x1,%ecx
   12eb9:	eb 05                	jmp    12ec0 <func_8+0x3668>
   12ebb:	b9 00 00 00 00       	mov    $0x0,%ecx
   12ec0:	0f b7 d3             	movzwl %bx,%edx
   12ec3:	8b 05 9f d3 00 00    	mov    0xd39f(%rip),%eax        # 20268 <g_209>
   12ec9:	09 d0                	or     %edx,%eax
   12ecb:	89 05 97 d3 00 00    	mov    %eax,0xd397(%rip)        # 20268 <g_209>
   12ed1:	8b 05 91 d3 00 00    	mov    0xd391(%rip),%eax        # 20268 <g_209>
   12ed7:	39 c1                	cmp    %eax,%ecx
   12ed9:	0f 95 c0             	setne  %al
   12edc:	0f b6 c0             	movzbl %al,%eax
   12edf:	48 39 85 48 e5 ff ff 	cmp    %rax,-0x1ab8(%rbp)
   12ee6:	0f 97 c0             	seta   %al
   12ee9:	0f b6 c0             	movzbl %al,%eax
   12eec:	89 85 c0 e8 ff ff    	mov    %eax,-0x1740(%rbp)
   12ef2:	48 8b 05 a7 1d 01 00 	mov    0x11da7(%rip),%rax        # 24ca0 <g_1527>
   12ef9:	48 8d 95 84 e5 ff ff 	lea    -0x1a7c(%rbp),%rdx
   12f00:	48 89 10             	mov    %rdx,(%rax)
   12f03:	c7 05 63 d3 00 00 00 	movl   $0x0,0xd363(%rip)        # 20270 <g_220>
   12f0a:	00 00 00 
   12f0d:	e9 b1 00 00 00       	jmpq   12fc3 <func_8+0x376b>
   12f12:	c7 85 3c e6 ff ff 00 	movl   $0x0,-0x19c4(%rbp)
   12f19:	00 00 00 
   12f1c:	66 c7 85 5c e5 ff ff 	movw   $0x0,-0x1aa4(%rbp)
   12f23:	00 00 
   12f25:	eb 74                	jmp    12f9b <func_8+0x3743>
   12f27:	48 8d 85 e0 eb ff ff 	lea    -0x1420(%rbp),%rax
   12f2e:	48 05 38 01 00 00    	add    $0x138,%rax
   12f34:	48 89 05 d5 1d 01 00 	mov    %rax,0x11dd5(%rip)        # 24d10 <g_1532+0x30>
   12f3b:	66 83 bd 5c e5 ff ff 	cmpw   $0x0,-0x1aa4(%rbp)
   12f42:	00 
   12f43:	74 02                	je     12f47 <func_8+0x36ef>
   12f45:	eb ab                	jmp    12ef2 <func_8+0x369a>
   12f47:	48 8b 85 80 e6 ff ff 	mov    -0x1980(%rbp),%rax
   12f4e:	48 85 c0             	test   %rax,%rax
   12f51:	74 05                	je     12f58 <func_8+0x3700>
   12f53:	e9 31 db ff ff       	jmpq   10a89 <func_8+0x1231>
   12f58:	48 8b 05 a9 16 01 00 	mov    0x116a9(%rip),%rax        # 24608 <g_547>
   12f5f:	48 8b 00             	mov    (%rax),%rax
   12f62:	0f b7 00             	movzwl (%rax),%eax
   12f65:	0f b7 c0             	movzwl %ax,%eax
   12f68:	48 8b 95 e8 e6 ff ff 	mov    -0x1918(%rbp),%rdx
   12f6f:	8b 12                	mov    (%rdx),%edx
   12f71:	89 95 3c e6 ff ff    	mov    %edx,-0x19c4(%rbp)
   12f77:	0b 85 3c e6 ff ff    	or     -0x19c4(%rbp),%eax
   12f7d:	89 c1                	mov    %eax,%ecx
   12f7f:	48 8b 05 f2 15 01 00 	mov    0x115f2(%rip),%rax        # 24578 <g_360>
   12f86:	8b 10                	mov    (%rax),%edx
   12f88:	48 8b 05 e9 15 01 00 	mov    0x115e9(%rip),%rax        # 24578 <g_360>
   12f8f:	31 ca                	xor    %ecx,%edx
   12f91:	89 10                	mov    %edx,(%rax)
   12f93:	66 83 85 5c e5 ff ff 	addw   $0x1,-0x1aa4(%rbp)
   12f9a:	01 
   12f9b:	66 83 bd 5c e5 ff ff 	cmpw   $0x20,-0x1aa4(%rbp)
   12fa2:	20 
   12fa3:	75 82                	jne    12f27 <func_8+0x36cf>
   12fa5:	8b 05 c5 d2 00 00    	mov    0xd2c5(%rip),%eax        # 20270 <g_220>
   12fab:	0f b6 c0             	movzbl %al,%eax
   12fae:	be 01 00 00 00       	mov    $0x1,%esi
   12fb3:	89 c7                	mov    %eax,%edi
   12fb5:	e8 a0 6b ff ff       	callq  9b5a <safe_add_func_uint8_t_u_u>
   12fba:	0f b6 c0             	movzbl %al,%eax
   12fbd:	89 05 ad d2 00 00    	mov    %eax,0xd2ad(%rip)        # 20270 <g_220>
   12fc3:	8b 05 a7 d2 00 00    	mov    0xd2a7(%rip),%eax        # 20270 <g_220>
   12fc9:	83 f8 27             	cmp    $0x27,%eax
   12fcc:	0f 87 40 ff ff ff    	ja     12f12 <func_8+0x36ba>
   12fd2:	e9 50 18 00 00       	jmpq   14827 <func_8+0x4fcf>
   12fd7:	c6 85 68 e5 ff ff 08 	movb   $0x8,-0x1a98(%rbp)
   12fde:	48 8d 05 3f d0 00 00 	lea    0xd03f(%rip),%rax        # 20024 <g_23>
   12fe5:	48 89 85 98 e6 ff ff 	mov    %rax,-0x1968(%rbp)
   12fec:	c7 85 dc e5 ff ff ff 	movl   $0xffffffff,-0x1a24(%rbp)
   12ff3:	ff ff ff 
   12ff6:	c7 85 e0 e5 ff ff 01 	movl   $0x1,-0x1a20(%rbp)
   12ffd:	00 00 00 
   13000:	c7 85 e4 e5 ff ff ff 	movl   $0xffffffff,-0x1a1c(%rbp)
   13007:	ff ff ff 
   1300a:	c7 85 a0 ea ff ff 00 	movl   $0x0,-0x1560(%rbp)
   13011:	00 00 00 
   13014:	c7 85 a4 ea ff ff 00 	movl   $0x0,-0x155c(%rbp)
   1301b:	00 00 00 
   1301e:	c7 85 a8 ea ff ff f8 	movl   $0xfffffff8,-0x1558(%rbp)
   13025:	ff ff ff 
   13028:	c7 85 ac ea ff ff 9b 	movl   $0xda07179b,-0x1554(%rbp)
   1302f:	17 07 da 
   13032:	c7 85 b0 ea ff ff c5 	movl   $0xa144e0c5,-0x1550(%rbp)
   13039:	e0 44 a1 
   1303c:	c7 85 b4 ea ff ff 01 	movl   $0x1,-0x154c(%rbp)
   13043:	00 00 00 
   13046:	c7 85 b8 ea ff ff 00 	movl   $0x0,-0x1548(%rbp)
   1304d:	00 00 00 
   13050:	c7 85 bc ea ff ff 00 	movl   $0x0,-0x1544(%rbp)
   13057:	00 00 00 
   1305a:	c7 85 c0 ea ff ff 01 	movl   $0x1,-0x1540(%rbp)
   13061:	00 00 00 
   13064:	c7 85 c4 ea ff ff 00 	movl   $0x0,-0x153c(%rbp)
   1306b:	00 00 00 
   1306e:	c7 85 c8 ea ff ff 01 	movl   $0x1,-0x1538(%rbp)
   13075:	00 00 00 
   13078:	c7 85 cc ea ff ff 9b 	movl   $0xda07179b,-0x1534(%rbp)
   1307f:	17 07 da 
   13082:	c7 85 d0 ea ff ff 3e 	movl   $0x77e8d73e,-0x1530(%rbp)
   13089:	d7 e8 77 
   1308c:	c7 85 d4 ea ff ff 3e 	movl   $0x77e8d73e,-0x152c(%rbp)
   13093:	d7 e8 77 
   13096:	c7 85 d8 ea ff ff 9b 	movl   $0xda07179b,-0x1528(%rbp)
   1309d:	17 07 da 
   130a0:	c7 85 dc ea ff ff 00 	movl   $0x0,-0x1524(%rbp)
   130a7:	00 00 00 
   130aa:	c7 85 e0 ea ff ff 00 	movl   $0x0,-0x1520(%rbp)
   130b1:	00 00 00 
   130b4:	c7 85 e4 ea ff ff 3e 	movl   $0x77e8d73e,-0x151c(%rbp)
   130bb:	d7 e8 77 
   130be:	c7 85 e8 ea ff ff f8 	movl   $0xfffffff8,-0x1518(%rbp)
   130c5:	ff ff ff 
   130c8:	c7 85 ec ea ff ff f8 	movl   $0xfffffff8,-0x1514(%rbp)
   130cf:	ff ff ff 
   130d2:	c7 85 f0 ea ff ff 00 	movl   $0x0,-0x1510(%rbp)
   130d9:	00 00 00 
   130dc:	c7 85 f4 ea ff ff 00 	movl   $0x0,-0x150c(%rbp)
   130e3:	00 00 00 
   130e6:	c7 85 f8 ea ff ff 00 	movl   $0x0,-0x1508(%rbp)
   130ed:	00 00 00 
   130f0:	c7 85 fc ea ff ff 3e 	movl   $0x77e8d73e,-0x1504(%rbp)
   130f7:	d7 e8 77 
   130fa:	c7 85 00 eb ff ff f8 	movl   $0xfffffff8,-0x1500(%rbp)
   13101:	ff ff ff 
   13104:	48 8d 05 b8 d1 00 00 	lea    0xd1b8(%rip),%rax        # 202c3 <g_284+0x3>
   1310b:	48 89 85 18 e7 ff ff 	mov    %rax,-0x18e8(%rbp)
   13112:	48 8d 05 7f d2 00 00 	lea    0xd27f(%rip),%rax        # 20398 <g_432+0x8>
   13119:	48 89 85 20 e7 ff ff 	mov    %rax,-0x18e0(%rbp)
   13120:	48 b8 3c 4c c4 7c e4 	movabs $0x54f5b2e47cc44c3c,%rax
   13127:	b2 f5 54 
   1312a:	48 89 85 a0 e6 ff ff 	mov    %rax,-0x1960(%rbp)
   13131:	48 8d 05 70 1b 01 00 	lea    0x11b70(%rip),%rax        # 24ca8 <g_1536>
   13138:	48 89 85 a8 e6 ff ff 	mov    %rax,-0x1958(%rbp)
   1313f:	48 8d 85 a8 e6 ff ff 	lea    -0x1958(%rbp),%rax
   13146:	48 89 85 28 e7 ff ff 	mov    %rax,-0x18d8(%rbp)
   1314d:	48 8b 05 dc 1b 01 00 	mov    0x11bdc(%rip),%rax        # 24d30 <g_1539>
   13154:	48 8d 95 b0 e8 ff ff 	lea    -0x1750(%rbp),%rdx
   1315b:	48 83 c2 08          	add    $0x8,%rdx
   1315f:	48 89 10             	mov    %rdx,(%rax)
   13162:	48 c7 05 cb ce 00 00 	movq   $0x9,0xcecb(%rip)        # 20038 <g_61>
   13169:	09 00 00 00 
   1316d:	eb 2a                	jmp    13199 <func_8+0x3941>
   1316f:	48 83 bd 48 e5 ff ff 	cmpq   $0x0,-0x1ab8(%rbp)
   13176:	00 
   13177:	75 2f                	jne    131a8 <func_8+0x3950>
   13179:	48 8b 05 b8 ce 00 00 	mov    0xceb8(%rip),%rax        # 20038 <g_61>
   13180:	0f b7 c0             	movzwl %ax,%eax
   13183:	be 07 00 00 00       	mov    $0x7,%esi
   13188:	89 c7                	mov    %eax,%edi
   1318a:	e8 70 6b ff ff       	callq  9cff <safe_add_func_uint16_t_u_u>
   1318f:	0f b7 c0             	movzwl %ax,%eax
   13192:	48 89 05 9f ce 00 00 	mov    %rax,0xce9f(%rip)        # 20038 <g_61>
   13199:	48 8b 05 98 ce 00 00 	mov    0xce98(%rip),%rax        # 20038 <g_61>
   131a0:	48 83 f8 3a          	cmp    $0x3a,%rax
   131a4:	75 c9                	jne    1316f <func_8+0x3917>
   131a6:	eb 01                	jmp    131a9 <func_8+0x3951>
   131a8:	90                   	nop
   131a9:	c7 05 95 ce 00 00 00 	movl   $0x0,0xce95(%rip)        # 20048 <g_105>
   131b0:	00 00 00 
   131b3:	e9 81 15 00 00       	jmpq   14739 <func_8+0x4ee1>
   131b8:	c7 85 e8 e5 ff ff 01 	movl   $0x1,-0x1a18(%rbp)
   131bf:	00 00 00 
   131c2:	48 8d 85 70 e6 ff ff 	lea    -0x1990(%rbp),%rax
   131c9:	48 89 85 50 e9 ff ff 	mov    %rax,-0x16b0(%rbp)
   131d0:	48 8d 85 70 e6 ff ff 	lea    -0x1990(%rbp),%rax
   131d7:	48 89 85 58 e9 ff ff 	mov    %rax,-0x16a8(%rbp)
   131de:	48 8d 85 70 e6 ff ff 	lea    -0x1990(%rbp),%rax
   131e5:	48 89 85 60 e9 ff ff 	mov    %rax,-0x16a0(%rbp)
   131ec:	48 8d 85 70 e6 ff ff 	lea    -0x1990(%rbp),%rax
   131f3:	48 89 85 68 e9 ff ff 	mov    %rax,-0x1698(%rbp)
   131fa:	48 8d 85 70 e6 ff ff 	lea    -0x1990(%rbp),%rax
   13201:	48 89 85 70 e9 ff ff 	mov    %rax,-0x1690(%rbp)
   13208:	48 8d 85 70 e6 ff ff 	lea    -0x1990(%rbp),%rax
   1320f:	48 89 85 78 e9 ff ff 	mov    %rax,-0x1688(%rbp)
   13216:	48 c7 85 38 e7 ff ff 	movq   $0x0,-0x18c8(%rbp)
   1321d:	00 00 00 00 
   13221:	48 8d 05 40 11 01 00 	lea    0x11140(%rip),%rax        # 24368 <g_178+0x8>
   13228:	48 89 85 40 e7 ff ff 	mov    %rax,-0x18c0(%rbp)
   1322f:	c7 85 ec e5 ff ff 7b 	movl   $0xf1945a7b,-0x1a14(%rbp)
   13236:	5a 94 f1 
   13239:	c7 85 f0 e5 ff ff fb 	movl   $0xfffffffb,-0x1a10(%rbp)
   13240:	ff ff ff 
   13243:	c7 85 f4 e5 ff ff 01 	movl   $0x1,-0x1a0c(%rbp)
   1324a:	00 00 00 
   1324d:	c7 85 f8 e5 ff ff f9 	movl   $0x81bcff9,-0x1a08(%rbp)
   13254:	cf 1b 08 
   13257:	c7 85 fc e5 ff ff 10 	movl   $0xd0e60210,-0x1a04(%rbp)
   1325e:	02 e6 d0 
   13261:	c7 85 00 e6 ff ff e1 	movl   $0xf5d2eae1,-0x1a00(%rbp)
   13268:	ea d2 f5 
   1326b:	c7 85 04 e6 ff ff 13 	movl   $0x1457e113,-0x19fc(%rbp)
   13272:	e1 57 14 
   13275:	c7 85 d0 e9 ff ff 12 	movl   $0xfc0b112,-0x1630(%rbp)
   1327c:	b1 c0 0f 
   1327f:	c7 85 d4 e9 ff ff 09 	movl   $0x9,-0x162c(%rbp)
   13286:	00 00 00 
   13289:	c7 85 d8 e9 ff ff 03 	movl   $0xf40d3b03,-0x1628(%rbp)
   13290:	3b 0d f4 
   13293:	c7 85 dc e9 ff ff 12 	movl   $0xfc0b112,-0x1624(%rbp)
   1329a:	b1 c0 0f 
   1329d:	c7 85 e0 e9 ff ff 03 	movl   $0xf40d3b03,-0x1620(%rbp)
   132a4:	3b 0d f4 
   132a7:	c7 85 e4 e9 ff ff 12 	movl   $0xfc0b112,-0x161c(%rbp)
   132ae:	b1 c0 0f 
   132b1:	c7 85 e8 e9 ff ff 12 	movl   $0xfc0b112,-0x1618(%rbp)
   132b8:	b1 c0 0f 
   132bb:	c7 85 ec e9 ff ff 03 	movl   $0xf40d3b03,-0x1614(%rbp)
   132c2:	3b 0d f4 
   132c5:	c7 85 f0 e9 ff ff 03 	movl   $0x3,-0x1610(%rbp)
   132cc:	00 00 00 
   132cf:	c7 85 f4 e9 ff ff 12 	movl   $0xfc0b112,-0x160c(%rbp)
   132d6:	b1 c0 0f 
   132d9:	c7 85 f8 e9 ff ff 01 	movl   $0x1,-0x1608(%rbp)
   132e0:	00 00 00 
   132e3:	c7 85 fc e9 ff ff 12 	movl   $0xfc0b112,-0x1604(%rbp)
   132ea:	b1 c0 0f 
   132ed:	c7 85 00 ea ff ff 12 	movl   $0xfc0b112,-0x1600(%rbp)
   132f4:	b1 c0 0f 
   132f7:	c7 85 04 ea ff ff 09 	movl   $0x9,-0x15fc(%rbp)
   132fe:	00 00 00 
   13301:	c7 85 08 ea ff ff 01 	movl   $0x1,-0x15f8(%rbp)
   13308:	00 00 00 
   1330b:	c7 85 0c ea ff ff 01 	movl   $0x1,-0x15f4(%rbp)
   13312:	00 00 00 
   13315:	c7 85 08 e6 ff ff a6 	movl   $0x308aa9a6,-0x19f8(%rbp)
   1331c:	a9 8a 30 
   1331f:	8b 85 e8 e5 ff ff    	mov    -0x1a18(%rbp),%eax
   13325:	0f bf d8             	movswl %ax,%ebx
   13328:	44 0f be a5 58 e5 ff 	movsbl -0x1aa8(%rbp),%r12d
   1332f:	ff 
   13330:	8b 85 54 e5 ff ff    	mov    -0x1aac(%rbp),%eax
   13336:	4c 63 e8             	movslq %eax,%r13
   13339:	44 8b b5 54 e5 ff ff 	mov    -0x1aac(%rbp),%r14d
   13340:	48 8b 8d 98 e6 ff ff 	mov    -0x1968(%rbp),%rcx
   13347:	8b 95 e8 e5 ff ff    	mov    -0x1a18(%rbp),%edx
   1334d:	48 8b 85 38 e7 ff ff 	mov    -0x18c8(%rbp),%rax
   13354:	48 89 ce             	mov    %rcx,%rsi
   13357:	48 89 c7             	mov    %rax,%rdi
   1335a:	e8 f7 4a 00 00       	callq  17e56 <func_35>
   1335f:	48 8b 95 10 e7 ff ff 	mov    -0x18f0(%rbp),%rdx
   13366:	48 89 02             	mov    %rax,(%rdx)
   13369:	48 8b 85 10 e7 ff ff 	mov    -0x18f0(%rbp),%rax
   13370:	48 8b 00             	mov    (%rax),%rax
   13373:	48 85 c0             	test   %rax,%rax
   13376:	0f 95 c0             	setne  %al
   13379:	0f b6 d0             	movzbl %al,%edx
   1337c:	48 8b 85 70 e6 ff ff 	mov    -0x1990(%rbp),%rax
   13383:	48 89 85 70 e6 ff ff 	mov    %rax,-0x1990(%rbp)
   1338a:	48 8b 85 70 e6 ff ff 	mov    -0x1990(%rbp),%rax
   13391:	48 8d 0d 60 14 01 00 	lea    0x11460(%rip),%rcx        # 247f8 <g_1270>
   13398:	48 39 c8             	cmp    %rcx,%rax
   1339b:	0f 95 c0             	setne  %al
   1339e:	0f b6 c0             	movzbl %al,%eax
   133a1:	89 d6                	mov    %edx,%esi
   133a3:	89 c7                	mov    %eax,%edi
   133a5:	e8 0e 6b ff ff       	callq  9eb8 <safe_add_func_uint32_t_u_u>
   133aa:	48 8b 05 57 12 01 00 	mov    0x11257(%rip),%rax        # 24608 <g_547>
   133b1:	48 8b 00             	mov    (%rax),%rax
   133b4:	0f b7 00             	movzwl (%rax),%eax
   133b7:	0f b7 c0             	movzwl %ax,%eax
   133ba:	44 89 f6             	mov    %r14d,%esi
   133bd:	89 c7                	mov    %eax,%edi
   133bf:	e8 b6 6a ff ff       	callq  9e7a <safe_rshift_func_uint16_t_u_u>
   133c4:	66 85 c0             	test   %ax,%ax
   133c7:	74 10                	je     133d9 <func_8+0x3b81>
   133c9:	83 bd e8 e5 ff ff 00 	cmpl   $0x0,-0x1a18(%rbp)
   133d0:	74 07                	je     133d9 <func_8+0x3b81>
   133d2:	b8 01 00 00 00       	mov    $0x1,%eax
   133d7:	eb 05                	jmp    133de <func_8+0x3b86>
   133d9:	b8 00 00 00 00       	mov    $0x0,%eax
   133de:	0f b7 d0             	movzwl %ax,%edx
   133e1:	66 0f be 85 68 e5 ff 	movsbw -0x1a98(%rbp),%ax
   133e8:	ff 
   133e9:	0f b7 c0             	movzwl %ax,%eax
   133ec:	89 d6                	mov    %edx,%esi
   133ee:	89 c7                	mov    %eax,%edi
   133f0:	e8 99 69 ff ff       	callq  9d8e <safe_div_func_uint16_t_u_u>
   133f5:	0f b6 c0             	movzbl %al,%eax
   133f8:	be 2d 00 00 00       	mov    $0x2d,%esi
   133fd:	89 c7                	mov    %eax,%edi
   133ff:	e8 74 67 ff ff       	callq  9b78 <safe_sub_func_uint8_t_u_u>
   13404:	0f be c0             	movsbl %al,%eax
   13407:	be 00 00 00 00       	mov    $0x0,%esi
   1340c:	89 c7                	mov    %eax,%edi
   1340e:	e8 c1 5d ff ff       	callq  91d4 <safe_add_func_int8_t_s_s>
   13413:	84 c0                	test   %al,%al
   13415:	75 09                	jne    13420 <func_8+0x3bc8>
   13417:	80 bd 68 e5 ff ff 00 	cmpb   $0x0,-0x1a98(%rbp)
   1341e:	74 07                	je     13427 <func_8+0x3bcf>
   13420:	b8 01 00 00 00       	mov    $0x1,%eax
   13425:	eb 05                	jmp    1342c <func_8+0x3bd4>
   13427:	b8 00 00 00 00       	mov    $0x0,%eax
   1342c:	83 f8 fe             	cmp    $0xfffffffe,%eax
   1342f:	0f 9d c0             	setge  %al
   13432:	0f b6 c0             	movzbl %al,%eax
   13435:	89 c6                	mov    %eax,%esi
   13437:	bf 42 8c 00 00       	mov    $0x8c42,%edi
   1343c:	e8 07 6a ff ff       	callq  9e48 <safe_rshift_func_uint16_t_u_s>
   13441:	89 c2                	mov    %eax,%edx
   13443:	48 8b 05 56 11 01 00 	mov    0x11156(%rip),%rax        # 245a0 <g_458>
   1344a:	0f b7 d2             	movzwl %dx,%edx
   1344d:	89 10                	mov    %edx,(%rax)
   1344f:	8b 00                	mov    (%rax),%eax
   13451:	85 c0                	test   %eax,%eax
   13453:	0f 94 c0             	sete   %al
   13456:	0f b6 c0             	movzbl %al,%eax
   13459:	4c 89 ee             	mov    %r13,%rsi
   1345c:	48 89 c7             	mov    %rax,%rdi
   1345f:	e8 50 65 ff ff       	callq  99b4 <safe_mod_func_int64_t_s_s>
   13464:	48 85 c0             	test   %rax,%rax
   13467:	0f 95 c0             	setne  %al
   1346a:	0f b6 c0             	movzbl %al,%eax
   1346d:	89 c6                	mov    %eax,%esi
   1346f:	bf 00 00 00 00       	mov    $0x0,%edi
   13474:	e8 8c 61 ff ff       	callq  9605 <safe_sub_func_int32_t_s_s>
   13479:	48 8b 85 e8 e6 ff ff 	mov    -0x1918(%rbp),%rax
   13480:	8b 00                	mov    (%rax),%eax
   13482:	23 85 e8 e5 ff ff    	and    -0x1a18(%rbp),%eax
   13488:	85 c0                	test   %eax,%eax
   1348a:	74 07                	je     13493 <func_8+0x3c3b>
   1348c:	b8 01 00 00 00       	mov    $0x1,%eax
   13491:	eb 05                	jmp    13498 <func_8+0x3c40>
   13493:	b8 00 00 00 00       	mov    $0x0,%eax
   13498:	0f b6 c0             	movzbl %al,%eax
   1349b:	44 89 e6             	mov    %r12d,%esi
   1349e:	89 c7                	mov    %eax,%edi
   134a0:	e8 60 67 ff ff       	callq  9c05 <safe_lshift_func_uint8_t_u_s>
   134a5:	0f be 85 68 e5 ff ff 	movsbl -0x1a98(%rbp),%eax
   134ac:	89 de                	mov    %ebx,%esi
   134ae:	89 c7                	mov    %eax,%edi
   134b0:	e8 a0 5f ff ff       	callq  9455 <safe_div_func_int16_t_s_s>
   134b5:	66 85 c0             	test   %ax,%ax
   134b8:	74 10                	je     134ca <func_8+0x3c72>
   134ba:	80 bd 68 e5 ff ff 00 	cmpb   $0x0,-0x1a98(%rbp)
   134c1:	74 07                	je     134ca <func_8+0x3c72>
   134c3:	ba 01 00 00 00       	mov    $0x1,%edx
   134c8:	eb 05                	jmp    134cf <func_8+0x3c77>
   134ca:	ba 00 00 00 00       	mov    $0x0,%edx
   134cf:	48 8b 05 a2 10 01 00 	mov    0x110a2(%rip),%rax        # 24578 <g_360>
   134d6:	f7 d2                	not    %edx
   134d8:	89 10                	mov    %edx,(%rax)
   134da:	c7 05 08 cf 00 00 00 	movl   $0x0,0xcf08(%rip)        # 203ec <g_829>
   134e1:	00 00 00 
   134e4:	e9 32 12 00 00       	jmpq   1471b <func_8+0x4ec3>
   134e9:	c6 85 69 e5 ff ff b2 	movb   $0xb2,-0x1a97(%rbp)
   134f0:	c7 85 0c e6 ff ff 04 	movl   $0x4,-0x19f4(%rbp)
   134f7:	00 00 00 
   134fa:	c7 85 10 e6 ff ff 29 	movl   $0x537f9129,-0x19f0(%rbp)
   13501:	91 7f 53 
   13504:	c7 85 14 e6 ff ff 89 	movl   $0x93e70389,-0x19ec(%rbp)
   1350b:	03 e7 93 
   1350e:	c7 85 18 e6 ff ff f3 	movl   $0xdac758f3,-0x19e8(%rbp)
   13515:	58 c7 da 
   13518:	c7 85 1c e6 ff ff 01 	movl   $0x1,-0x19e4(%rbp)
   1351f:	00 00 00 
   13522:	c7 85 10 f3 ff ff dd 	movl   $0xc2f31add,-0xcf0(%rbp)
   13529:	1a f3 c2 
   1352c:	c7 85 14 f3 ff ff ff 	movl   $0xffffffff,-0xcec(%rbp)
   13533:	ff ff ff 
   13536:	c7 85 18 f3 ff ff ff 	movl   $0xffffffff,-0xce8(%rbp)
   1353d:	ff ff ff 
   13540:	c7 85 1c f3 ff ff dd 	movl   $0xc2f31add,-0xce4(%rbp)
   13547:	1a f3 c2 
   1354a:	c7 85 20 f3 ff ff ff 	movl   $0xffffffff,-0xce0(%rbp)
   13551:	ff ff ff 
   13554:	c7 85 24 f3 ff ff dd 	movl   $0xc2f31add,-0xcdc(%rbp)
   1355b:	1a f3 c2 
   1355e:	c7 85 28 f3 ff ff d7 	movl   $0x572ee5d7,-0xcd8(%rbp)
   13565:	e5 2e 57 
   13568:	c7 85 2c f3 ff ff ff 	movl   $0xffffffff,-0xcd4(%rbp)
   1356f:	ff ff ff 
   13572:	c7 85 30 f3 ff ff ff 	movl   $0xffffffff,-0xcd0(%rbp)
   13579:	ff ff ff 
   1357c:	c7 85 34 f3 ff ff d7 	movl   $0x572ee5d7,-0xccc(%rbp)
   13583:	e5 2e 57 
   13586:	c7 85 38 f3 ff ff ff 	movl   $0xffffffff,-0xcc8(%rbp)
   1358d:	ff ff ff 
   13590:	c7 85 3c f3 ff ff ff 	movl   $0xffffffff,-0xcc4(%rbp)
   13597:	ff ff ff 
   1359a:	c7 85 40 f3 ff ff dd 	movl   $0xc2f31add,-0xcc0(%rbp)
   135a1:	1a f3 c2 
   135a4:	c7 85 44 f3 ff ff ff 	movl   $0xffffffff,-0xcbc(%rbp)
   135ab:	ff ff ff 
   135ae:	c7 85 48 f3 ff ff ff 	movl   $0xffffffff,-0xcb8(%rbp)
   135b5:	ff ff ff 
   135b8:	c7 85 4c f3 ff ff ff 	movl   $0xffffffff,-0xcb4(%rbp)
   135bf:	ff ff ff 
   135c2:	c7 85 50 f3 ff ff d7 	movl   $0x572ee5d7,-0xcb0(%rbp)
   135c9:	e5 2e 57 
   135cc:	c7 85 54 f3 ff ff d7 	movl   $0x572ee5d7,-0xcac(%rbp)
   135d3:	e5 2e 57 
   135d6:	c7 85 58 f3 ff ff 00 	movl   $0x0,-0xca8(%rbp)
   135dd:	00 00 00 
   135e0:	c7 85 5c f3 ff ff ff 	movl   $0xffffffff,-0xca4(%rbp)
   135e7:	ff ff ff 
   135ea:	c7 85 60 f3 ff ff ff 	movl   $0xffffffff,-0xca0(%rbp)
   135f1:	ff ff ff 
   135f4:	c7 85 64 f3 ff ff dd 	movl   $0xc2f31add,-0xc9c(%rbp)
   135fb:	1a f3 c2 
   135fe:	c7 85 68 f3 ff ff 00 	movl   $0x0,-0xc98(%rbp)
   13605:	00 00 00 
   13608:	c7 85 6c f3 ff ff dd 	movl   $0xc2f31add,-0xc94(%rbp)
   1360f:	1a f3 c2 
   13612:	c7 85 70 f3 ff ff d7 	movl   $0x572ee5d7,-0xc90(%rbp)
   13619:	e5 2e 57 
   1361c:	c7 85 74 f3 ff ff ff 	movl   $0xffffffff,-0xc8c(%rbp)
   13623:	ff ff ff 
   13626:	c7 85 78 f3 ff ff ff 	movl   $0xffffffff,-0xc88(%rbp)
   1362d:	ff ff ff 
   13630:	c7 85 7c f3 ff ff 00 	movl   $0x0,-0xc84(%rbp)
   13637:	00 00 00 
   1363a:	c7 85 80 f3 ff ff dd 	movl   $0xc2f31add,-0xc80(%rbp)
   13641:	1a f3 c2 
   13644:	c7 85 84 f3 ff ff ff 	movl   $0xffffffff,-0xc7c(%rbp)
   1364b:	ff ff ff 
   1364e:	c7 85 88 f3 ff ff ff 	movl   $0xffffffff,-0xc78(%rbp)
   13655:	ff ff ff 
   13658:	c7 85 8c f3 ff ff dd 	movl   $0xc2f31add,-0xc74(%rbp)
   1365f:	1a f3 c2 
   13662:	c7 85 90 f3 ff ff ff 	movl   $0xffffffff,-0xc70(%rbp)
   13669:	ff ff ff 
   1366c:	c7 85 94 f3 ff ff dd 	movl   $0xc2f31add,-0xc6c(%rbp)
   13673:	1a f3 c2 
   13676:	c7 85 98 f3 ff ff d7 	movl   $0x572ee5d7,-0xc68(%rbp)
   1367d:	e5 2e 57 
   13680:	c7 85 9c f3 ff ff ff 	movl   $0xffffffff,-0xc64(%rbp)
   13687:	ff ff ff 
   1368a:	c7 85 a0 f3 ff ff ff 	movl   $0xffffffff,-0xc60(%rbp)
   13691:	ff ff ff 
   13694:	c7 85 a4 f3 ff ff d7 	movl   $0x572ee5d7,-0xc5c(%rbp)
   1369b:	e5 2e 57 
   1369e:	c7 85 a8 f3 ff ff ff 	movl   $0xffffffff,-0xc58(%rbp)
   136a5:	ff ff ff 
   136a8:	c7 85 ac f3 ff ff ff 	movl   $0xffffffff,-0xc54(%rbp)
   136af:	ff ff ff 
   136b2:	c7 85 b0 f3 ff ff dd 	movl   $0xc2f31add,-0xc50(%rbp)
   136b9:	1a f3 c2 
   136bc:	c7 85 b4 f3 ff ff ff 	movl   $0xffffffff,-0xc4c(%rbp)
   136c3:	ff ff ff 
   136c6:	c7 85 b8 f3 ff ff ff 	movl   $0xffffffff,-0xc48(%rbp)
   136cd:	ff ff ff 
   136d0:	c7 85 bc f3 ff ff ff 	movl   $0xffffffff,-0xc44(%rbp)
   136d7:	ff ff ff 
   136da:	c7 85 c0 f3 ff ff d7 	movl   $0x572ee5d7,-0xc40(%rbp)
   136e1:	e5 2e 57 
   136e4:	c7 85 c4 f3 ff ff d7 	movl   $0x572ee5d7,-0xc3c(%rbp)
   136eb:	e5 2e 57 
   136ee:	c7 85 c8 f3 ff ff 00 	movl   $0x0,-0xc38(%rbp)
   136f5:	00 00 00 
   136f8:	c7 85 cc f3 ff ff ff 	movl   $0xffffffff,-0xc34(%rbp)
   136ff:	ff ff ff 
   13702:	c7 85 d0 f3 ff ff ff 	movl   $0xffffffff,-0xc30(%rbp)
   13709:	ff ff ff 
   1370c:	c7 85 d4 f3 ff ff dd 	movl   $0xc2f31add,-0xc2c(%rbp)
   13713:	1a f3 c2 
   13716:	c7 85 d8 f3 ff ff 00 	movl   $0x0,-0xc28(%rbp)
   1371d:	00 00 00 
   13720:	c7 85 dc f3 ff ff dd 	movl   $0xc2f31add,-0xc24(%rbp)
   13727:	1a f3 c2 
   1372a:	c7 85 e0 f3 ff ff d7 	movl   $0x572ee5d7,-0xc20(%rbp)
   13731:	e5 2e 57 
   13734:	c7 85 e4 f3 ff ff ff 	movl   $0xffffffff,-0xc1c(%rbp)
   1373b:	ff ff ff 
   1373e:	c7 85 e8 f3 ff ff ff 	movl   $0xffffffff,-0xc18(%rbp)
   13745:	ff ff ff 
   13748:	c7 85 ec f3 ff ff 00 	movl   $0x0,-0xc14(%rbp)
   1374f:	00 00 00 
   13752:	48 c7 85 48 e7 ff ff 	movq   $0x0,-0x18b8(%rbp)
   13759:	00 00 00 00 
   1375d:	48 c7 85 50 e7 ff ff 	movq   $0x0,-0x18b0(%rbp)
   13764:	00 00 00 00 
   13768:	0f be 95 58 e5 ff ff 	movsbl -0x1aa8(%rbp),%edx
   1376f:	48 8b 85 e8 e6 ff ff 	mov    -0x1918(%rbp),%rax
   13776:	89 10                	mov    %edx,(%rax)
   13778:	c7 85 a4 e5 ff ff 00 	movl   $0x0,-0x1a5c(%rbp)
   1377f:	00 00 00 
   13782:	e9 78 0f 00 00       	jmpq   146ff <func_8+0x4ea7>
   13787:	48 c7 85 10 e9 ff ff 	movq   $0x0,-0x16f0(%rbp)
   1378e:	00 00 00 00 
   13792:	48 c7 85 18 e9 ff ff 	movq   $0x0,-0x16e8(%rbp)
   13799:	00 00 00 00 
   1379d:	48 c7 85 20 e9 ff ff 	movq   $0x0,-0x16e0(%rbp)
   137a4:	00 00 00 00 
   137a8:	48 c7 85 28 e9 ff ff 	movq   $0x0,-0x16d8(%rbp)
   137af:	00 00 00 00 
   137b3:	c6 85 90 e6 ff ff 01 	movb   $0x1,-0x1970(%rbp)
   137ba:	48 8d 05 f7 14 01 00 	lea    0x114f7(%rip),%rax        # 24cb8 <g_1534>
   137c1:	48 89 85 58 e7 ff ff 	mov    %rax,-0x18a8(%rbp)
   137c8:	48 c7 85 b0 e6 ff ff 	movq   $0xfffffffffffffffa,-0x1950(%rbp)
   137cf:	fa ff ff ff 
   137d3:	48 8d 85 98 e6 ff ff 	lea    -0x1968(%rbp),%rax
   137da:	48 89 85 10 f8 ff ff 	mov    %rax,-0x7f0(%rbp)
   137e1:	48 8d 85 98 e6 ff ff 	lea    -0x1968(%rbp),%rax
   137e8:	48 89 85 18 f8 ff ff 	mov    %rax,-0x7e8(%rbp)
   137ef:	48 8d 85 98 e6 ff ff 	lea    -0x1968(%rbp),%rax
   137f6:	48 89 85 20 f8 ff ff 	mov    %rax,-0x7e0(%rbp)
   137fd:	48 c7 85 28 f8 ff ff 	movq   $0x0,-0x7d8(%rbp)
   13804:	00 00 00 00 
   13808:	48 8d 85 98 e6 ff ff 	lea    -0x1968(%rbp),%rax
   1380f:	48 89 85 30 f8 ff ff 	mov    %rax,-0x7d0(%rbp)
   13816:	48 c7 85 38 f8 ff ff 	movq   $0x0,-0x7c8(%rbp)
   1381d:	00 00 00 00 
   13821:	48 8d 85 98 e6 ff ff 	lea    -0x1968(%rbp),%rax
   13828:	48 89 85 40 f8 ff ff 	mov    %rax,-0x7c0(%rbp)
   1382f:	48 8d 85 98 e6 ff ff 	lea    -0x1968(%rbp),%rax
   13836:	48 89 85 48 f8 ff ff 	mov    %rax,-0x7b8(%rbp)
   1383d:	48 8d 85 98 e6 ff ff 	lea    -0x1968(%rbp),%rax
   13844:	48 89 85 50 f8 ff ff 	mov    %rax,-0x7b0(%rbp)
   1384b:	48 c7 85 58 f8 ff ff 	movq   $0x0,-0x7a8(%rbp)
   13852:	00 00 00 00 
   13856:	48 c7 85 60 f8 ff ff 	movq   $0x0,-0x7a0(%rbp)
   1385d:	00 00 00 00 
   13861:	48 8d 85 98 e6 ff ff 	lea    -0x1968(%rbp),%rax
   13868:	48 89 85 68 f8 ff ff 	mov    %rax,-0x798(%rbp)
   1386f:	48 8d 85 98 e6 ff ff 	lea    -0x1968(%rbp),%rax
   13876:	48 89 85 70 f8 ff ff 	mov    %rax,-0x790(%rbp)
   1387d:	48 c7 85 78 f8 ff ff 	movq   $0x0,-0x788(%rbp)
   13884:	00 00 00 00 
   13888:	48 8d 85 98 e6 ff ff 	lea    -0x1968(%rbp),%rax
   1388f:	48 89 85 80 f8 ff ff 	mov    %rax,-0x780(%rbp)
   13896:	48 c7 85 88 f8 ff ff 	movq   $0x0,-0x778(%rbp)
   1389d:	00 00 00 00 
   138a1:	48 c7 85 90 f8 ff ff 	movq   $0x0,-0x770(%rbp)
   138a8:	00 00 00 00 
   138ac:	48 8d 85 98 e6 ff ff 	lea    -0x1968(%rbp),%rax
   138b3:	48 89 85 98 f8 ff ff 	mov    %rax,-0x768(%rbp)
   138ba:	48 8d 85 98 e6 ff ff 	lea    -0x1968(%rbp),%rax
   138c1:	48 89 85 a0 f8 ff ff 	mov    %rax,-0x760(%rbp)
   138c8:	48 8d 85 98 e6 ff ff 	lea    -0x1968(%rbp),%rax
   138cf:	48 89 85 a8 f8 ff ff 	mov    %rax,-0x758(%rbp)
   138d6:	48 c7 85 b0 f8 ff ff 	movq   $0x0,-0x750(%rbp)
   138dd:	00 00 00 00 
   138e1:	48 c7 85 b8 f8 ff ff 	movq   $0x0,-0x748(%rbp)
   138e8:	00 00 00 00 
   138ec:	48 c7 85 c0 f8 ff ff 	movq   $0x0,-0x740(%rbp)
   138f3:	00 00 00 00 
   138f7:	48 c7 85 c8 f8 ff ff 	movq   $0x0,-0x738(%rbp)
   138fe:	00 00 00 00 
   13902:	48 8d 85 98 e6 ff ff 	lea    -0x1968(%rbp),%rax
   13909:	48 89 85 d0 f8 ff ff 	mov    %rax,-0x730(%rbp)
   13910:	48 8d 85 98 e6 ff ff 	lea    -0x1968(%rbp),%rax
   13917:	48 89 85 d8 f8 ff ff 	mov    %rax,-0x728(%rbp)
   1391e:	48 8d 85 98 e6 ff ff 	lea    -0x1968(%rbp),%rax
   13925:	48 89 85 e0 f8 ff ff 	mov    %rax,-0x720(%rbp)
   1392c:	48 c7 85 e8 f8 ff ff 	movq   $0x0,-0x718(%rbp)
   13933:	00 00 00 00 
   13937:	48 8d 85 98 e6 ff ff 	lea    -0x1968(%rbp),%rax
   1393e:	48 89 85 f0 f8 ff ff 	mov    %rax,-0x710(%rbp)
   13945:	48 8d 85 98 e6 ff ff 	lea    -0x1968(%rbp),%rax
   1394c:	48 89 85 f8 f8 ff ff 	mov    %rax,-0x708(%rbp)
   13953:	48 8d 85 98 e6 ff ff 	lea    -0x1968(%rbp),%rax
   1395a:	48 89 85 00 f9 ff ff 	mov    %rax,-0x700(%rbp)
   13961:	48 8d 85 98 e6 ff ff 	lea    -0x1968(%rbp),%rax
   13968:	48 89 85 08 f9 ff ff 	mov    %rax,-0x6f8(%rbp)
   1396f:	48 8d 85 98 e6 ff ff 	lea    -0x1968(%rbp),%rax
   13976:	48 89 85 10 f9 ff ff 	mov    %rax,-0x6f0(%rbp)
   1397d:	48 c7 85 18 f9 ff ff 	movq   $0x0,-0x6e8(%rbp)
   13984:	00 00 00 00 
   13988:	48 c7 85 20 f9 ff ff 	movq   $0x0,-0x6e0(%rbp)
   1398f:	00 00 00 00 
   13993:	48 8d 85 98 e6 ff ff 	lea    -0x1968(%rbp),%rax
   1399a:	48 89 85 28 f9 ff ff 	mov    %rax,-0x6d8(%rbp)
   139a1:	48 8d 85 98 e6 ff ff 	lea    -0x1968(%rbp),%rax
   139a8:	48 89 85 30 f9 ff ff 	mov    %rax,-0x6d0(%rbp)
   139af:	48 8d 85 98 e6 ff ff 	lea    -0x1968(%rbp),%rax
   139b6:	48 89 85 38 f9 ff ff 	mov    %rax,-0x6c8(%rbp)
   139bd:	48 8d 85 98 e6 ff ff 	lea    -0x1968(%rbp),%rax
   139c4:	48 89 85 40 f9 ff ff 	mov    %rax,-0x6c0(%rbp)
   139cb:	48 8d 85 98 e6 ff ff 	lea    -0x1968(%rbp),%rax
   139d2:	48 89 85 48 f9 ff ff 	mov    %rax,-0x6b8(%rbp)
   139d9:	48 8d 85 98 e6 ff ff 	lea    -0x1968(%rbp),%rax
   139e0:	48 89 85 50 f9 ff ff 	mov    %rax,-0x6b0(%rbp)
   139e7:	48 8d 85 98 e6 ff ff 	lea    -0x1968(%rbp),%rax
   139ee:	48 89 85 58 f9 ff ff 	mov    %rax,-0x6a8(%rbp)
   139f5:	48 8d 85 98 e6 ff ff 	lea    -0x1968(%rbp),%rax
   139fc:	48 89 85 60 f9 ff ff 	mov    %rax,-0x6a0(%rbp)
   13a03:	48 8d 85 98 e6 ff ff 	lea    -0x1968(%rbp),%rax
   13a0a:	48 89 85 68 f9 ff ff 	mov    %rax,-0x698(%rbp)
   13a11:	48 8d 85 98 e6 ff ff 	lea    -0x1968(%rbp),%rax
   13a18:	48 89 85 70 f9 ff ff 	mov    %rax,-0x690(%rbp)
   13a1f:	48 c7 85 78 f9 ff ff 	movq   $0x0,-0x688(%rbp)
   13a26:	00 00 00 00 
   13a2a:	48 8d 85 98 e6 ff ff 	lea    -0x1968(%rbp),%rax
   13a31:	48 89 85 80 f9 ff ff 	mov    %rax,-0x680(%rbp)
   13a38:	48 c7 85 88 f9 ff ff 	movq   $0x0,-0x678(%rbp)
   13a3f:	00 00 00 00 
   13a43:	48 c7 85 90 f9 ff ff 	movq   $0x0,-0x670(%rbp)
   13a4a:	00 00 00 00 
   13a4e:	48 8d 85 98 e6 ff ff 	lea    -0x1968(%rbp),%rax
   13a55:	48 89 85 98 f9 ff ff 	mov    %rax,-0x668(%rbp)
   13a5c:	48 c7 85 a0 f9 ff ff 	movq   $0x0,-0x660(%rbp)
   13a63:	00 00 00 00 
   13a67:	48 8d 85 98 e6 ff ff 	lea    -0x1968(%rbp),%rax
   13a6e:	48 89 85 a8 f9 ff ff 	mov    %rax,-0x658(%rbp)
   13a75:	48 8d 85 98 e6 ff ff 	lea    -0x1968(%rbp),%rax
   13a7c:	48 89 85 b0 f9 ff ff 	mov    %rax,-0x650(%rbp)
   13a83:	48 8d 85 98 e6 ff ff 	lea    -0x1968(%rbp),%rax
   13a8a:	48 89 85 b8 f9 ff ff 	mov    %rax,-0x648(%rbp)
   13a91:	48 8d 85 98 e6 ff ff 	lea    -0x1968(%rbp),%rax
   13a98:	48 89 85 c0 f9 ff ff 	mov    %rax,-0x640(%rbp)
   13a9f:	48 8d 85 98 e6 ff ff 	lea    -0x1968(%rbp),%rax
   13aa6:	48 89 85 c8 f9 ff ff 	mov    %rax,-0x638(%rbp)
   13aad:	48 8d 85 98 e6 ff ff 	lea    -0x1968(%rbp),%rax
   13ab4:	48 89 85 d0 f9 ff ff 	mov    %rax,-0x630(%rbp)
   13abb:	48 8d 85 98 e6 ff ff 	lea    -0x1968(%rbp),%rax
   13ac2:	48 89 85 d8 f9 ff ff 	mov    %rax,-0x628(%rbp)
   13ac9:	48 8d 85 98 e6 ff ff 	lea    -0x1968(%rbp),%rax
   13ad0:	48 89 85 e0 f9 ff ff 	mov    %rax,-0x620(%rbp)
   13ad7:	48 8d 85 98 e6 ff ff 	lea    -0x1968(%rbp),%rax
   13ade:	48 89 85 e8 f9 ff ff 	mov    %rax,-0x618(%rbp)
   13ae5:	48 c7 85 f0 f9 ff ff 	movq   $0x0,-0x610(%rbp)
   13aec:	00 00 00 00 
   13af0:	48 8d 85 98 e6 ff ff 	lea    -0x1968(%rbp),%rax
   13af7:	48 89 85 f8 f9 ff ff 	mov    %rax,-0x608(%rbp)
   13afe:	48 8d 85 98 e6 ff ff 	lea    -0x1968(%rbp),%rax
   13b05:	48 89 85 00 fa ff ff 	mov    %rax,-0x600(%rbp)
   13b0c:	48 8d 85 98 e6 ff ff 	lea    -0x1968(%rbp),%rax
   13b13:	48 89 85 08 fa ff ff 	mov    %rax,-0x5f8(%rbp)
   13b1a:	48 8d 85 98 e6 ff ff 	lea    -0x1968(%rbp),%rax
   13b21:	48 89 85 10 fa ff ff 	mov    %rax,-0x5f0(%rbp)
   13b28:	48 c7 85 18 fa ff ff 	movq   $0x0,-0x5e8(%rbp)
   13b2f:	00 00 00 00 
   13b33:	48 8d 85 98 e6 ff ff 	lea    -0x1968(%rbp),%rax
   13b3a:	48 89 85 20 fa ff ff 	mov    %rax,-0x5e0(%rbp)
   13b41:	48 8d 85 98 e6 ff ff 	lea    -0x1968(%rbp),%rax
   13b48:	48 89 85 28 fa ff ff 	mov    %rax,-0x5d8(%rbp)
   13b4f:	48 8d 85 98 e6 ff ff 	lea    -0x1968(%rbp),%rax
   13b56:	48 89 85 30 fa ff ff 	mov    %rax,-0x5d0(%rbp)
   13b5d:	48 8d 85 98 e6 ff ff 	lea    -0x1968(%rbp),%rax
   13b64:	48 89 85 38 fa ff ff 	mov    %rax,-0x5c8(%rbp)
   13b6b:	48 c7 85 40 fa ff ff 	movq   $0x0,-0x5c0(%rbp)
   13b72:	00 00 00 00 
   13b76:	48 c7 85 48 fa ff ff 	movq   $0x0,-0x5b8(%rbp)
   13b7d:	00 00 00 00 
   13b81:	48 8d 85 98 e6 ff ff 	lea    -0x1968(%rbp),%rax
   13b88:	48 89 85 50 fa ff ff 	mov    %rax,-0x5b0(%rbp)
   13b8f:	48 8d 85 98 e6 ff ff 	lea    -0x1968(%rbp),%rax
   13b96:	48 89 85 58 fa ff ff 	mov    %rax,-0x5a8(%rbp)
   13b9d:	48 8d 85 98 e6 ff ff 	lea    -0x1968(%rbp),%rax
   13ba4:	48 89 85 60 fa ff ff 	mov    %rax,-0x5a0(%rbp)
   13bab:	48 8d 85 98 e6 ff ff 	lea    -0x1968(%rbp),%rax
   13bb2:	48 89 85 68 fa ff ff 	mov    %rax,-0x598(%rbp)
   13bb9:	48 8d 85 98 e6 ff ff 	lea    -0x1968(%rbp),%rax
   13bc0:	48 89 85 70 fa ff ff 	mov    %rax,-0x590(%rbp)
   13bc7:	48 8d 85 98 e6 ff ff 	lea    -0x1968(%rbp),%rax
   13bce:	48 89 85 78 fa ff ff 	mov    %rax,-0x588(%rbp)
   13bd5:	48 c7 85 80 fa ff ff 	movq   $0x0,-0x580(%rbp)
   13bdc:	00 00 00 00 
   13be0:	48 8d 85 98 e6 ff ff 	lea    -0x1968(%rbp),%rax
   13be7:	48 89 85 88 fa ff ff 	mov    %rax,-0x578(%rbp)
   13bee:	48 8d 85 98 e6 ff ff 	lea    -0x1968(%rbp),%rax
   13bf5:	48 89 85 90 fa ff ff 	mov    %rax,-0x570(%rbp)
   13bfc:	48 8d 85 98 e6 ff ff 	lea    -0x1968(%rbp),%rax
   13c03:	48 89 85 98 fa ff ff 	mov    %rax,-0x568(%rbp)
   13c0a:	48 c7 85 a0 fa ff ff 	movq   $0x0,-0x560(%rbp)
   13c11:	00 00 00 00 
   13c15:	48 8d 85 98 e6 ff ff 	lea    -0x1968(%rbp),%rax
   13c1c:	48 89 85 a8 fa ff ff 	mov    %rax,-0x558(%rbp)
   13c23:	48 8d 85 98 e6 ff ff 	lea    -0x1968(%rbp),%rax
   13c2a:	48 89 85 b0 fa ff ff 	mov    %rax,-0x550(%rbp)
   13c31:	48 8d 85 98 e6 ff ff 	lea    -0x1968(%rbp),%rax
   13c38:	48 89 85 b8 fa ff ff 	mov    %rax,-0x548(%rbp)
   13c3f:	48 c7 85 c0 fa ff ff 	movq   $0x0,-0x540(%rbp)
   13c46:	00 00 00 00 
   13c4a:	48 8d 85 98 e6 ff ff 	lea    -0x1968(%rbp),%rax
   13c51:	48 89 85 c8 fa ff ff 	mov    %rax,-0x538(%rbp)
   13c58:	48 c7 85 d0 fa ff ff 	movq   $0x0,-0x530(%rbp)
   13c5f:	00 00 00 00 
   13c63:	48 8d 85 98 e6 ff ff 	lea    -0x1968(%rbp),%rax
   13c6a:	48 89 85 d8 fa ff ff 	mov    %rax,-0x528(%rbp)
   13c71:	48 c7 85 e0 fa ff ff 	movq   $0x0,-0x520(%rbp)
   13c78:	00 00 00 00 
   13c7c:	48 c7 85 e8 fa ff ff 	movq   $0x0,-0x518(%rbp)
   13c83:	00 00 00 00 
   13c87:	48 8d 85 98 e6 ff ff 	lea    -0x1968(%rbp),%rax
   13c8e:	48 89 85 f0 fa ff ff 	mov    %rax,-0x510(%rbp)
   13c95:	48 c7 85 f8 fa ff ff 	movq   $0x0,-0x508(%rbp)
   13c9c:	00 00 00 00 
   13ca0:	48 c7 85 00 fb ff ff 	movq   $0x0,-0x500(%rbp)
   13ca7:	00 00 00 00 
   13cab:	48 8d 85 98 e6 ff ff 	lea    -0x1968(%rbp),%rax
   13cb2:	48 89 85 08 fb ff ff 	mov    %rax,-0x4f8(%rbp)
   13cb9:	48 8d 85 98 e6 ff ff 	lea    -0x1968(%rbp),%rax
   13cc0:	48 89 85 10 fb ff ff 	mov    %rax,-0x4f0(%rbp)
   13cc7:	48 8d 85 98 e6 ff ff 	lea    -0x1968(%rbp),%rax
   13cce:	48 89 85 18 fb ff ff 	mov    %rax,-0x4e8(%rbp)
   13cd5:	48 8d 85 98 e6 ff ff 	lea    -0x1968(%rbp),%rax
   13cdc:	48 89 85 20 fb ff ff 	mov    %rax,-0x4e0(%rbp)
   13ce3:	48 8d 85 98 e6 ff ff 	lea    -0x1968(%rbp),%rax
   13cea:	48 89 85 28 fb ff ff 	mov    %rax,-0x4d8(%rbp)
   13cf1:	48 8d 85 98 e6 ff ff 	lea    -0x1968(%rbp),%rax
   13cf8:	48 89 85 30 fb ff ff 	mov    %rax,-0x4d0(%rbp)
   13cff:	48 c7 85 38 fb ff ff 	movq   $0x0,-0x4c8(%rbp)
   13d06:	00 00 00 00 
   13d0a:	48 8d 85 98 e6 ff ff 	lea    -0x1968(%rbp),%rax
   13d11:	48 89 85 40 fb ff ff 	mov    %rax,-0x4c0(%rbp)
   13d18:	48 8d 85 98 e6 ff ff 	lea    -0x1968(%rbp),%rax
   13d1f:	48 89 85 48 fb ff ff 	mov    %rax,-0x4b8(%rbp)
   13d26:	48 8d 85 98 e6 ff ff 	lea    -0x1968(%rbp),%rax
   13d2d:	48 89 85 50 fb ff ff 	mov    %rax,-0x4b0(%rbp)
   13d34:	48 c7 85 58 fb ff ff 	movq   $0x0,-0x4a8(%rbp)
   13d3b:	00 00 00 00 
   13d3f:	48 8d 85 98 e6 ff ff 	lea    -0x1968(%rbp),%rax
   13d46:	48 89 85 60 fb ff ff 	mov    %rax,-0x4a0(%rbp)
   13d4d:	48 c7 85 68 fb ff ff 	movq   $0x0,-0x498(%rbp)
   13d54:	00 00 00 00 
   13d58:	48 8d 85 98 e6 ff ff 	lea    -0x1968(%rbp),%rax
   13d5f:	48 89 85 70 fb ff ff 	mov    %rax,-0x490(%rbp)
   13d66:	48 8d 85 98 e6 ff ff 	lea    -0x1968(%rbp),%rax
   13d6d:	48 89 85 78 fb ff ff 	mov    %rax,-0x488(%rbp)
   13d74:	48 8d 85 98 e6 ff ff 	lea    -0x1968(%rbp),%rax
   13d7b:	48 89 85 80 fb ff ff 	mov    %rax,-0x480(%rbp)
   13d82:	48 c7 85 88 fb ff ff 	movq   $0x0,-0x478(%rbp)
   13d89:	00 00 00 00 
   13d8d:	48 c7 85 90 fb ff ff 	movq   $0x0,-0x470(%rbp)
   13d94:	00 00 00 00 
   13d98:	48 8d 85 98 e6 ff ff 	lea    -0x1968(%rbp),%rax
   13d9f:	48 89 85 98 fb ff ff 	mov    %rax,-0x468(%rbp)
   13da6:	48 8d 85 98 e6 ff ff 	lea    -0x1968(%rbp),%rax
   13dad:	48 89 85 a0 fb ff ff 	mov    %rax,-0x460(%rbp)
   13db4:	48 8d 85 98 e6 ff ff 	lea    -0x1968(%rbp),%rax
   13dbb:	48 89 85 a8 fb ff ff 	mov    %rax,-0x458(%rbp)
   13dc2:	48 8d 85 98 e6 ff ff 	lea    -0x1968(%rbp),%rax
   13dc9:	48 89 85 b0 fb ff ff 	mov    %rax,-0x450(%rbp)
   13dd0:	48 8d 85 98 e6 ff ff 	lea    -0x1968(%rbp),%rax
   13dd7:	48 89 85 b8 fb ff ff 	mov    %rax,-0x448(%rbp)
   13dde:	48 c7 85 c0 fb ff ff 	movq   $0x0,-0x440(%rbp)
   13de5:	00 00 00 00 
   13de9:	48 8d 85 98 e6 ff ff 	lea    -0x1968(%rbp),%rax
   13df0:	48 89 85 c8 fb ff ff 	mov    %rax,-0x438(%rbp)
   13df7:	48 8d 85 98 e6 ff ff 	lea    -0x1968(%rbp),%rax
   13dfe:	48 89 85 d0 fb ff ff 	mov    %rax,-0x430(%rbp)
   13e05:	48 8d 85 98 e6 ff ff 	lea    -0x1968(%rbp),%rax
   13e0c:	48 89 85 d8 fb ff ff 	mov    %rax,-0x428(%rbp)
   13e13:	48 8d 85 98 e6 ff ff 	lea    -0x1968(%rbp),%rax
   13e1a:	48 89 85 e0 fb ff ff 	mov    %rax,-0x420(%rbp)
   13e21:	48 8d 85 98 e6 ff ff 	lea    -0x1968(%rbp),%rax
   13e28:	48 89 85 e8 fb ff ff 	mov    %rax,-0x418(%rbp)
   13e2f:	48 8d 85 98 e6 ff ff 	lea    -0x1968(%rbp),%rax
   13e36:	48 89 85 f0 fb ff ff 	mov    %rax,-0x410(%rbp)
   13e3d:	48 8d 85 98 e6 ff ff 	lea    -0x1968(%rbp),%rax
   13e44:	48 89 85 f8 fb ff ff 	mov    %rax,-0x408(%rbp)
   13e4b:	48 8d 85 98 e6 ff ff 	lea    -0x1968(%rbp),%rax
   13e52:	48 89 85 00 fc ff ff 	mov    %rax,-0x400(%rbp)
   13e59:	48 8d 85 98 e6 ff ff 	lea    -0x1968(%rbp),%rax
   13e60:	48 89 85 08 fc ff ff 	mov    %rax,-0x3f8(%rbp)
   13e67:	48 8d 85 98 e6 ff ff 	lea    -0x1968(%rbp),%rax
   13e6e:	48 89 85 10 fc ff ff 	mov    %rax,-0x3f0(%rbp)
   13e75:	48 8d 85 98 e6 ff ff 	lea    -0x1968(%rbp),%rax
   13e7c:	48 89 85 18 fc ff ff 	mov    %rax,-0x3e8(%rbp)
   13e83:	48 8d 85 98 e6 ff ff 	lea    -0x1968(%rbp),%rax
   13e8a:	48 89 85 20 fc ff ff 	mov    %rax,-0x3e0(%rbp)
   13e91:	48 8d 85 98 e6 ff ff 	lea    -0x1968(%rbp),%rax
   13e98:	48 89 85 28 fc ff ff 	mov    %rax,-0x3d8(%rbp)
   13e9f:	48 8d 85 98 e6 ff ff 	lea    -0x1968(%rbp),%rax
   13ea6:	48 89 85 30 fc ff ff 	mov    %rax,-0x3d0(%rbp)
   13ead:	48 8d 85 98 e6 ff ff 	lea    -0x1968(%rbp),%rax
   13eb4:	48 89 85 38 fc ff ff 	mov    %rax,-0x3c8(%rbp)
   13ebb:	48 8d 85 98 e6 ff ff 	lea    -0x1968(%rbp),%rax
   13ec2:	48 89 85 40 fc ff ff 	mov    %rax,-0x3c0(%rbp)
   13ec9:	48 8d 85 98 e6 ff ff 	lea    -0x1968(%rbp),%rax
   13ed0:	48 89 85 48 fc ff ff 	mov    %rax,-0x3b8(%rbp)
   13ed7:	48 8d 85 98 e6 ff ff 	lea    -0x1968(%rbp),%rax
   13ede:	48 89 85 50 fc ff ff 	mov    %rax,-0x3b0(%rbp)
   13ee5:	48 8d 85 98 e6 ff ff 	lea    -0x1968(%rbp),%rax
   13eec:	48 89 85 58 fc ff ff 	mov    %rax,-0x3a8(%rbp)
   13ef3:	48 8d 85 98 e6 ff ff 	lea    -0x1968(%rbp),%rax
   13efa:	48 89 85 60 fc ff ff 	mov    %rax,-0x3a0(%rbp)
   13f01:	48 8d 85 98 e6 ff ff 	lea    -0x1968(%rbp),%rax
   13f08:	48 89 85 68 fc ff ff 	mov    %rax,-0x398(%rbp)
   13f0f:	48 8d 85 98 e6 ff ff 	lea    -0x1968(%rbp),%rax
   13f16:	48 89 85 70 fc ff ff 	mov    %rax,-0x390(%rbp)
   13f1d:	48 8d 85 98 e6 ff ff 	lea    -0x1968(%rbp),%rax
   13f24:	48 89 85 78 fc ff ff 	mov    %rax,-0x388(%rbp)
   13f2b:	48 8d 85 98 e6 ff ff 	lea    -0x1968(%rbp),%rax
   13f32:	48 89 85 80 fc ff ff 	mov    %rax,-0x380(%rbp)
   13f39:	48 8d 85 98 e6 ff ff 	lea    -0x1968(%rbp),%rax
   13f40:	48 89 85 88 fc ff ff 	mov    %rax,-0x378(%rbp)
   13f47:	48 c7 85 90 fc ff ff 	movq   $0x0,-0x370(%rbp)
   13f4e:	00 00 00 00 
   13f52:	48 c7 85 98 fc ff ff 	movq   $0x0,-0x368(%rbp)
   13f59:	00 00 00 00 
   13f5d:	48 8d 85 98 e6 ff ff 	lea    -0x1968(%rbp),%rax
   13f64:	48 89 85 a0 fc ff ff 	mov    %rax,-0x360(%rbp)
   13f6b:	48 8d 85 98 e6 ff ff 	lea    -0x1968(%rbp),%rax
   13f72:	48 89 85 a8 fc ff ff 	mov    %rax,-0x358(%rbp)
   13f79:	48 8d 85 98 e6 ff ff 	lea    -0x1968(%rbp),%rax
   13f80:	48 89 85 b0 fc ff ff 	mov    %rax,-0x350(%rbp)
   13f87:	48 8d 85 98 e6 ff ff 	lea    -0x1968(%rbp),%rax
   13f8e:	48 89 85 b8 fc ff ff 	mov    %rax,-0x348(%rbp)
   13f95:	48 8d 85 98 e6 ff ff 	lea    -0x1968(%rbp),%rax
   13f9c:	48 89 85 c0 fc ff ff 	mov    %rax,-0x340(%rbp)
   13fa3:	48 8d 85 98 e6 ff ff 	lea    -0x1968(%rbp),%rax
   13faa:	48 89 85 c8 fc ff ff 	mov    %rax,-0x338(%rbp)
   13fb1:	48 8d 85 98 e6 ff ff 	lea    -0x1968(%rbp),%rax
   13fb8:	48 89 85 d0 fc ff ff 	mov    %rax,-0x330(%rbp)
   13fbf:	48 8d 85 98 e6 ff ff 	lea    -0x1968(%rbp),%rax
   13fc6:	48 89 85 d8 fc ff ff 	mov    %rax,-0x328(%rbp)
   13fcd:	48 c7 85 e0 fc ff ff 	movq   $0x0,-0x320(%rbp)
   13fd4:	00 00 00 00 
   13fd8:	48 8d 85 98 e6 ff ff 	lea    -0x1968(%rbp),%rax
   13fdf:	48 89 85 e8 fc ff ff 	mov    %rax,-0x318(%rbp)
   13fe6:	48 8d 85 98 e6 ff ff 	lea    -0x1968(%rbp),%rax
   13fed:	48 89 85 f0 fc ff ff 	mov    %rax,-0x310(%rbp)
   13ff4:	48 8d 85 98 e6 ff ff 	lea    -0x1968(%rbp),%rax
   13ffb:	48 89 85 f8 fc ff ff 	mov    %rax,-0x308(%rbp)
   14002:	48 8d 85 98 e6 ff ff 	lea    -0x1968(%rbp),%rax
   14009:	48 89 85 00 fd ff ff 	mov    %rax,-0x300(%rbp)
   14010:	48 8d 85 98 e6 ff ff 	lea    -0x1968(%rbp),%rax
   14017:	48 89 85 08 fd ff ff 	mov    %rax,-0x2f8(%rbp)
   1401e:	48 8d 85 98 e6 ff ff 	lea    -0x1968(%rbp),%rax
   14025:	48 89 85 10 fd ff ff 	mov    %rax,-0x2f0(%rbp)
   1402c:	48 8d 85 98 e6 ff ff 	lea    -0x1968(%rbp),%rax
   14033:	48 89 85 18 fd ff ff 	mov    %rax,-0x2e8(%rbp)
   1403a:	48 8d 85 98 e6 ff ff 	lea    -0x1968(%rbp),%rax
   14041:	48 89 85 20 fd ff ff 	mov    %rax,-0x2e0(%rbp)
   14048:	48 c7 85 28 fd ff ff 	movq   $0x0,-0x2d8(%rbp)
   1404f:	00 00 00 00 
   14053:	48 8d 85 98 e6 ff ff 	lea    -0x1968(%rbp),%rax
   1405a:	48 89 85 30 fd ff ff 	mov    %rax,-0x2d0(%rbp)
   14061:	48 8d 85 98 e6 ff ff 	lea    -0x1968(%rbp),%rax
   14068:	48 89 85 38 fd ff ff 	mov    %rax,-0x2c8(%rbp)
   1406f:	48 8d 85 98 e6 ff ff 	lea    -0x1968(%rbp),%rax
   14076:	48 89 85 40 fd ff ff 	mov    %rax,-0x2c0(%rbp)
   1407d:	48 8d 85 98 e6 ff ff 	lea    -0x1968(%rbp),%rax
   14084:	48 89 85 48 fd ff ff 	mov    %rax,-0x2b8(%rbp)
   1408b:	48 8d 85 98 e6 ff ff 	lea    -0x1968(%rbp),%rax
   14092:	48 89 85 50 fd ff ff 	mov    %rax,-0x2b0(%rbp)
   14099:	48 8d 85 98 e6 ff ff 	lea    -0x1968(%rbp),%rax
   140a0:	48 89 85 58 fd ff ff 	mov    %rax,-0x2a8(%rbp)
   140a7:	48 8d 85 98 e6 ff ff 	lea    -0x1968(%rbp),%rax
   140ae:	48 89 85 60 fd ff ff 	mov    %rax,-0x2a0(%rbp)
   140b5:	48 8d 85 98 e6 ff ff 	lea    -0x1968(%rbp),%rax
   140bc:	48 89 85 68 fd ff ff 	mov    %rax,-0x298(%rbp)
   140c3:	48 8d 85 98 e6 ff ff 	lea    -0x1968(%rbp),%rax
   140ca:	48 89 85 70 fd ff ff 	mov    %rax,-0x290(%rbp)
   140d1:	48 8d 85 98 e6 ff ff 	lea    -0x1968(%rbp),%rax
   140d8:	48 89 85 78 fd ff ff 	mov    %rax,-0x288(%rbp)
   140df:	48 8d 85 98 e6 ff ff 	lea    -0x1968(%rbp),%rax
   140e6:	48 89 85 80 fd ff ff 	mov    %rax,-0x280(%rbp)
   140ed:	48 8d 85 98 e6 ff ff 	lea    -0x1968(%rbp),%rax
   140f4:	48 89 85 88 fd ff ff 	mov    %rax,-0x278(%rbp)
   140fb:	48 8d 85 98 e6 ff ff 	lea    -0x1968(%rbp),%rax
   14102:	48 89 85 90 fd ff ff 	mov    %rax,-0x270(%rbp)
   14109:	48 8d 85 98 e6 ff ff 	lea    -0x1968(%rbp),%rax
   14110:	48 89 85 98 fd ff ff 	mov    %rax,-0x268(%rbp)
   14117:	48 8d 85 98 e6 ff ff 	lea    -0x1968(%rbp),%rax
   1411e:	48 89 85 a0 fd ff ff 	mov    %rax,-0x260(%rbp)
   14125:	48 8d 85 98 e6 ff ff 	lea    -0x1968(%rbp),%rax
   1412c:	48 89 85 a8 fd ff ff 	mov    %rax,-0x258(%rbp)
   14133:	48 8d 85 98 e6 ff ff 	lea    -0x1968(%rbp),%rax
   1413a:	48 89 85 b0 fd ff ff 	mov    %rax,-0x250(%rbp)
   14141:	48 8d 85 98 e6 ff ff 	lea    -0x1968(%rbp),%rax
   14148:	48 89 85 b8 fd ff ff 	mov    %rax,-0x248(%rbp)
   1414f:	48 8d 85 98 e6 ff ff 	lea    -0x1968(%rbp),%rax
   14156:	48 89 85 c0 fd ff ff 	mov    %rax,-0x240(%rbp)
   1415d:	48 8d 85 98 e6 ff ff 	lea    -0x1968(%rbp),%rax
   14164:	48 89 85 c8 fd ff ff 	mov    %rax,-0x238(%rbp)
   1416b:	48 8d 85 98 e6 ff ff 	lea    -0x1968(%rbp),%rax
   14172:	48 89 85 d0 fd ff ff 	mov    %rax,-0x230(%rbp)
   14179:	48 c7 85 d8 fd ff ff 	movq   $0x0,-0x228(%rbp)
   14180:	00 00 00 00 
   14184:	48 8d 85 98 e6 ff ff 	lea    -0x1968(%rbp),%rax
   1418b:	48 89 85 e0 fd ff ff 	mov    %rax,-0x220(%rbp)
   14192:	48 8d 85 98 e6 ff ff 	lea    -0x1968(%rbp),%rax
   14199:	48 89 85 e8 fd ff ff 	mov    %rax,-0x218(%rbp)
   141a0:	48 8d 85 98 e6 ff ff 	lea    -0x1968(%rbp),%rax
   141a7:	48 89 85 f0 fd ff ff 	mov    %rax,-0x210(%rbp)
   141ae:	48 8d 85 98 e6 ff ff 	lea    -0x1968(%rbp),%rax
   141b5:	48 89 85 f8 fd ff ff 	mov    %rax,-0x208(%rbp)
   141bc:	48 c7 85 00 fe ff ff 	movq   $0x0,-0x200(%rbp)
   141c3:	00 00 00 00 
   141c7:	48 c7 85 08 fe ff ff 	movq   $0x0,-0x1f8(%rbp)
   141ce:	00 00 00 00 
   141d2:	48 8d 85 98 e6 ff ff 	lea    -0x1968(%rbp),%rax
   141d9:	48 89 85 10 fe ff ff 	mov    %rax,-0x1f0(%rbp)
   141e0:	48 8d 85 98 e6 ff ff 	lea    -0x1968(%rbp),%rax
   141e7:	48 89 85 18 fe ff ff 	mov    %rax,-0x1e8(%rbp)
   141ee:	48 8d 85 98 e6 ff ff 	lea    -0x1968(%rbp),%rax
   141f5:	48 89 85 20 fe ff ff 	mov    %rax,-0x1e0(%rbp)
   141fc:	48 8d 85 98 e6 ff ff 	lea    -0x1968(%rbp),%rax
   14203:	48 89 85 28 fe ff ff 	mov    %rax,-0x1d8(%rbp)
   1420a:	48 8d 85 98 e6 ff ff 	lea    -0x1968(%rbp),%rax
   14211:	48 89 85 30 fe ff ff 	mov    %rax,-0x1d0(%rbp)
   14218:	48 8d 85 98 e6 ff ff 	lea    -0x1968(%rbp),%rax
   1421f:	48 89 85 38 fe ff ff 	mov    %rax,-0x1c8(%rbp)
   14226:	48 c7 85 40 fe ff ff 	movq   $0x0,-0x1c0(%rbp)
   1422d:	00 00 00 00 
   14231:	48 c7 85 48 fe ff ff 	movq   $0x0,-0x1b8(%rbp)
   14238:	00 00 00 00 
   1423c:	48 8d 85 98 e6 ff ff 	lea    -0x1968(%rbp),%rax
   14243:	48 89 85 50 fe ff ff 	mov    %rax,-0x1b0(%rbp)
   1424a:	48 8d 85 98 e6 ff ff 	lea    -0x1968(%rbp),%rax
   14251:	48 89 85 58 fe ff ff 	mov    %rax,-0x1a8(%rbp)
   14258:	48 8d 85 98 e6 ff ff 	lea    -0x1968(%rbp),%rax
   1425f:	48 89 85 60 fe ff ff 	mov    %rax,-0x1a0(%rbp)
   14266:	48 8d 85 98 e6 ff ff 	lea    -0x1968(%rbp),%rax
   1426d:	48 89 85 68 fe ff ff 	mov    %rax,-0x198(%rbp)
   14274:	48 8d 85 98 e6 ff ff 	lea    -0x1968(%rbp),%rax
   1427b:	48 89 85 70 fe ff ff 	mov    %rax,-0x190(%rbp)
   14282:	48 8d 85 98 e6 ff ff 	lea    -0x1968(%rbp),%rax
   14289:	48 89 85 78 fe ff ff 	mov    %rax,-0x188(%rbp)
   14290:	48 8d 85 98 e6 ff ff 	lea    -0x1968(%rbp),%rax
   14297:	48 89 85 80 fe ff ff 	mov    %rax,-0x180(%rbp)
   1429e:	48 8d 85 98 e6 ff ff 	lea    -0x1968(%rbp),%rax
   142a5:	48 89 85 88 fe ff ff 	mov    %rax,-0x178(%rbp)
   142ac:	48 8d 85 98 e6 ff ff 	lea    -0x1968(%rbp),%rax
   142b3:	48 89 85 90 fe ff ff 	mov    %rax,-0x170(%rbp)
   142ba:	48 8d 85 98 e6 ff ff 	lea    -0x1968(%rbp),%rax
   142c1:	48 89 85 98 fe ff ff 	mov    %rax,-0x168(%rbp)
   142c8:	48 8d 85 98 e6 ff ff 	lea    -0x1968(%rbp),%rax
   142cf:	48 89 85 a0 fe ff ff 	mov    %rax,-0x160(%rbp)
   142d6:	48 c7 85 a8 fe ff ff 	movq   $0x0,-0x158(%rbp)
   142dd:	00 00 00 00 
   142e1:	48 8d 85 98 e6 ff ff 	lea    -0x1968(%rbp),%rax
   142e8:	48 89 85 b0 fe ff ff 	mov    %rax,-0x150(%rbp)
   142ef:	48 8d 85 98 e6 ff ff 	lea    -0x1968(%rbp),%rax
   142f6:	48 89 85 b8 fe ff ff 	mov    %rax,-0x148(%rbp)
   142fd:	48 8d 85 98 e6 ff ff 	lea    -0x1968(%rbp),%rax
   14304:	48 89 85 c0 fe ff ff 	mov    %rax,-0x140(%rbp)
   1430b:	48 8d 85 98 e6 ff ff 	lea    -0x1968(%rbp),%rax
   14312:	48 89 85 c8 fe ff ff 	mov    %rax,-0x138(%rbp)
   14319:	48 8d 05 d8 c1 00 00 	lea    0xc1d8(%rip),%rax        # 204f8 <g_1268>
   14320:	48 89 85 60 e7 ff ff 	mov    %rax,-0x18a0(%rbp)
   14327:	0f b6 85 90 e6 ff ff 	movzbl -0x1970(%rbp),%eax
   1432e:	83 e8 01             	sub    $0x1,%eax
   14331:	88 85 90 e6 ff ff    	mov    %al,-0x1970(%rbp)
   14337:	c7 05 9f c1 00 00 00 	movl   $0x0,0xc19f(%rip)        # 204e0 <g_1139>
   1433e:	00 00 00 
   14341:	eb 5e                	jmp    143a1 <func_8+0x4b49>
   14343:	48 8b 05 c6 11 01 00 	mov    0x111c6(%rip),%rax        # 25510 <g_1596>
   1434a:	48 8d 95 b0 e8 ff ff 	lea    -0x1750(%rbp),%rdx
   14351:	48 83 c2 08          	add    $0x8,%rdx
   14355:	48 89 10             	mov    %rdx,(%rax)
   14358:	83 bd 9c e5 ff ff 00 	cmpl   $0x0,-0x1a64(%rbp)
   1435f:	75 30                	jne    14391 <func_8+0x4b39>
   14361:	66 0f be 85 58 e5 ff 	movsbw -0x1aa8(%rbp),%ax
   14368:	ff 
   14369:	0f b7 c0             	movzwl %ax,%eax
   1436c:	be f9 ff ff ff       	mov    $0xfffffff9,%esi
   14371:	89 c7                	mov    %eax,%edi
   14373:	e8 02 5b ff ff       	callq  9e7a <safe_rshift_func_uint16_t_u_u>
   14378:	48 8b 15 f9 01 01 00 	mov    0x101f9(%rip),%rdx        # 24578 <g_360>
   1437f:	8b 0a                	mov    (%rdx),%ecx
   14381:	0f b7 d0             	movzwl %ax,%edx
   14384:	48 8b 05 ed 01 01 00 	mov    0x101ed(%rip),%rax        # 24578 <g_360>
   1438b:	31 ca                	xor    %ecx,%edx
   1438d:	89 10                	mov    %edx,(%rax)
   1438f:	eb 01                	jmp    14392 <func_8+0x4b3a>
   14391:	90                   	nop
   14392:	8b 05 48 c1 00 00    	mov    0xc148(%rip),%eax        # 204e0 <g_1139>
   14398:	83 c0 01             	add    $0x1,%eax
   1439b:	89 05 3f c1 00 00    	mov    %eax,0xc13f(%rip)        # 204e0 <g_1139>
   143a1:	8b 05 39 c1 00 00    	mov    0xc139(%rip),%eax        # 204e0 <g_1139>
   143a7:	83 f8 03             	cmp    $0x3,%eax
   143aa:	76 97                	jbe    14343 <func_8+0x4aeb>
   143ac:	48 83 bd 58 e7 ff ff 	cmpq   $0x0,-0x18a8(%rbp)
   143b3:	00 
   143b4:	0f 95 c0             	setne  %al
   143b7:	44 0f b6 f0          	movzbl %al,%r14d
   143bb:	0f b7 9d 5c e5 ff ff 	movzwl -0x1aa4(%rbp),%ebx
   143c2:	8b 85 00 e6 ff ff    	mov    -0x1a00(%rbp),%eax
   143c8:	44 0f bf e0          	movswl %ax,%r12d
   143cc:	48 8b 85 48 e5 ff ff 	mov    -0x1ab8(%rbp),%rax
   143d3:	41 89 c7             	mov    %eax,%r15d
   143d6:	44 8b ad e4 e5 ff ff 	mov    -0x1a1c(%rbp),%r13d
   143dd:	0f be 95 58 e5 ff ff 	movsbl -0x1aa8(%rbp),%edx
   143e4:	48 8d 8d 67 e5 ff ff 	lea    -0x1a99(%rbp),%rcx
   143eb:	48 8d 85 90 e6 ff ff 	lea    -0x1970(%rbp),%rax
   143f2:	48 89 ce             	mov    %rcx,%rsi
   143f5:	48 89 c7             	mov    %rax,%rdi
   143f8:	e8 59 3a 00 00       	callq  17e56 <func_35>
   143fd:	48 89 c1             	mov    %rax,%rcx
   14400:	48 8b 85 10 e7 ff ff 	mov    -0x18f0(%rbp),%rax
   14407:	48 8b 95 18 e7 ff ff 	mov    -0x18e8(%rbp),%rdx
   1440e:	48 89 10             	mov    %rdx,(%rax)
   14411:	48 8b 85 10 e7 ff ff 	mov    -0x18f0(%rbp),%rax
   14418:	48 8b 00             	mov    (%rax),%rax
   1441b:	44 89 ea             	mov    %r13d,%edx
   1441e:	48 89 ce             	mov    %rcx,%rsi
   14421:	48 89 c7             	mov    %rax,%rdi
   14424:	e8 2d 3a 00 00       	callq  17e56 <func_35>
   14429:	48 89 05 e8 10 01 00 	mov    %rax,0x110e8(%rip)        # 25518 <g_1616>
   14430:	48 83 bd 48 e7 ff ff 	cmpq   $0x0,-0x18b8(%rbp)
   14437:	00 
   14438:	74 10                	je     1444a <func_8+0x4bf2>
   1443a:	83 bd 10 e6 ff ff 00 	cmpl   $0x0,-0x19f0(%rbp)
   14441:	74 07                	je     1444a <func_8+0x4bf2>
   14443:	b8 01 00 00 00       	mov    $0x1,%eax
   14448:	eb 05                	jmp    1444f <func_8+0x4bf7>
   1444a:	b8 00 00 00 00       	mov    $0x0,%eax
   1444f:	48 63 d0             	movslq %eax,%rdx
   14452:	48 8b 85 60 e7 ff ff 	mov    -0x18a0(%rbp),%rax
   14459:	48 89 10             	mov    %rdx,(%rax)
   1445c:	48 8b 85 60 e7 ff ff 	mov    -0x18a0(%rbp),%rax
   14463:	48 8b 00             	mov    (%rax),%rax
   14466:	48 ba 37 c4 f8 87 39 	movabs $0xdf6833987f8c437,%rdx
   1446d:	83 f6 0d 
   14470:	48 39 d0             	cmp    %rdx,%rax
   14473:	0f 9e c0             	setle  %al
   14476:	0f b6 c0             	movzbl %al,%eax
   14479:	39 85 54 e5 ff ff    	cmp    %eax,-0x1aac(%rbp)
   1447f:	0f 9c c0             	setl   %al
   14482:	0f b6 c0             	movzbl %al,%eax
   14485:	44 89 fe             	mov    %r15d,%esi
   14488:	89 c7                	mov    %eax,%edi
   1448a:	e8 27 51 ff ff       	callq  95b6 <safe_add_func_int32_t_s_s>
   1448f:	48 98                	cltq   
   14491:	48 89 c6             	mov    %rax,%rsi
   14494:	bf 01 00 00 00       	mov    $0x1,%edi
   14499:	e8 90 5b ff ff       	callq  a02e <safe_add_func_uint64_t_u_u>
   1449e:	89 c2                	mov    %eax,%edx
   144a0:	8b 85 54 e5 ff ff    	mov    -0x1aac(%rbp),%eax
   144a6:	31 d0                	xor    %edx,%eax
   144a8:	98                   	cwtl   
   144a9:	44 89 e6             	mov    %r12d,%esi
   144ac:	89 c7                	mov    %eax,%edi
   144ae:	e8 a2 4f ff ff       	callq  9455 <safe_div_func_int16_t_s_s>
   144b3:	89 c2                	mov    %eax,%edx
   144b5:	8b 85 a4 e5 ff ff    	mov    -0x1a5c(%rbp),%eax
   144bb:	8d 48 01             	lea    0x1(%rax),%ecx
   144be:	89 d6                	mov    %edx,%esi
   144c0:	89 ca                	mov    %ecx,%edx
   144c2:	48 8d 05 f7 bd 00 00 	lea    0xbdf7(%rip),%rax        # 202c0 <g_284>
   144c9:	40 88 34 02          	mov    %sil,(%rdx,%rax,1)
   144cd:	89 ca                	mov    %ecx,%edx
   144cf:	48 8d 05 ea bd 00 00 	lea    0xbdea(%rip),%rax        # 202c0 <g_284>
   144d6:	0f b6 04 02          	movzbl (%rdx,%rax,1),%eax
   144da:	0f b6 c0             	movzbl %al,%eax
   144dd:	89 c6                	mov    %eax,%esi
   144df:	bf 01 00 00 00       	mov    $0x1,%edi
   144e4:	e8 f2 56 ff ff       	callq  9bdb <safe_div_func_uint8_t_u_u>
   144e9:	84 c0                	test   %al,%al
   144eb:	75 10                	jne    144fd <func_8+0x4ca5>
   144ed:	48 8b 05 f4 02 01 00 	mov    0x102f4(%rip),%rax        # 247e8 <g_951>
   144f4:	48 8b 00             	mov    (%rax),%rax
   144f7:	8b 00                	mov    (%rax),%eax
   144f9:	85 c0                	test   %eax,%eax
   144fb:	74 07                	je     14504 <func_8+0x4cac>
   144fd:	b8 01 00 00 00       	mov    $0x1,%eax
   14502:	eb 05                	jmp    14509 <func_8+0x4cb1>
   14504:	b8 00 00 00 00       	mov    $0x0,%eax
   14509:	0f b7 c0             	movzwl %ax,%eax
   1450c:	89 de                	mov    %ebx,%esi
   1450e:	89 c7                	mov    %eax,%edi
   14510:	e8 28 58 ff ff       	callq  9d3d <safe_mul_func_uint16_t_u_u>
   14515:	0f b7 c0             	movzwl %ax,%eax
   14518:	41 39 c6             	cmp    %eax,%r14d
   1451b:	0f 9f c0             	setg   %al
   1451e:	0f b6 c0             	movzbl %al,%eax
   14521:	33 85 0c e6 ff ff    	xor    -0x19f4(%rbp),%eax
   14527:	89 c2                	mov    %eax,%edx
   14529:	48 8b 05 d8 00 01 00 	mov    0x100d8(%rip),%rax        # 24608 <g_547>
   14530:	48 8b 00             	mov    (%rax),%rax
   14533:	0f b7 00             	movzwl (%rax),%eax
   14536:	0f b7 c0             	movzwl %ax,%eax
   14539:	21 c2                	and    %eax,%edx
   1453b:	48 8b 85 e8 e6 ff ff 	mov    -0x1918(%rbp),%rax
   14542:	89 10                	mov    %edx,(%rax)
   14544:	c7 05 26 18 01 00 00 	movl   $0x0,0x11826(%rip)        # 25d74 <g_49>
   1454b:	00 00 00 
   1454e:	e9 96 01 00 00       	jmpq   146e9 <func_8+0x4e91>
   14553:	c6 85 6a e5 ff ff ac 	movb   $0xac,-0x1a96(%rbp)
   1455a:	8b 9d e4 e5 ff ff    	mov    -0x1a1c(%rbp),%ebx
   14560:	48 8b 85 48 e5 ff ff 	mov    -0x1ab8(%rbp),%rax
   14567:	41 89 c4             	mov    %eax,%r12d
   1456a:	48 8b 85 48 e5 ff ff 	mov    -0x1ab8(%rbp),%rax
   14571:	41 89 c5             	mov    %eax,%r13d
   14574:	48 8b 05 cd fd 00 00 	mov    0xfdcd(%rip),%rax        # 24348 <g_123>
   1457b:	48 8b 00             	mov    (%rax),%rax
   1457e:	48 89 c2             	mov    %rax,%rdx
   14581:	48 8b 05 98 c7 00 00 	mov    0xc798(%rip),%rax        # 20d20 <g_1640>
   14588:	8b 85 58 f3 ff ff    	mov    -0xca8(%rbp),%eax
   1458e:	48 98                	cltq   
   14590:	48 89 d6             	mov    %rdx,%rsi
   14593:	48 89 c7             	mov    %rax,%rdi
   14596:	e8 19 54 ff ff       	callq  99b4 <safe_mod_func_int64_t_s_s>
   1459b:	0f b7 c0             	movzwl %ax,%eax
   1459e:	44 89 ee             	mov    %r13d,%esi
   145a1:	89 c7                	mov    %eax,%edi
   145a3:	e8 5e 58 ff ff       	callq  9e06 <safe_lshift_func_uint16_t_u_u>
   145a8:	f7 d0                	not    %eax
   145aa:	0f b6 c0             	movzbl %al,%eax
   145ad:	be 04 00 00 00       	mov    $0x4,%esi
   145b2:	89 c7                	mov    %eax,%edi
   145b4:	e8 4c 56 ff ff       	callq  9c05 <safe_lshift_func_uint8_t_u_s>
   145b9:	0f b6 c8             	movzbl %al,%ecx
   145bc:	48 8b 05 3d 00 01 00 	mov    0x1003d(%rip),%rax        # 24600 <g_548>
   145c3:	0f b7 10             	movzwl (%rax),%edx
   145c6:	8d 72 ff             	lea    -0x1(%rdx),%esi
   145c9:	66 89 30             	mov    %si,(%rax)
   145cc:	0f b7 c2             	movzwl %dx,%eax
   145cf:	89 ce                	mov    %ecx,%esi
   145d1:	89 c7                	mov    %eax,%edi
   145d3:	e8 27 57 ff ff       	callq  9cff <safe_add_func_uint16_t_u_u>
   145d8:	48 8b 85 50 e6 ff ff 	mov    -0x19b0(%rbp),%rax
   145df:	48 8b 00             	mov    (%rax),%rax
   145e2:	48 39 85 50 e7 ff ff 	cmp    %rax,-0x18b0(%rbp)
   145e9:	0f 94 c0             	sete   %al
   145ec:	0f b6 c0             	movzbl %al,%eax
   145ef:	be 0a 00 00 00       	mov    $0xa,%esi
   145f4:	89 c7                	mov    %eax,%edi
   145f6:	e8 4d 58 ff ff       	callq  9e48 <safe_rshift_func_uint16_t_u_s>
   145fb:	0f be d0             	movsbl %al,%edx
   145fe:	0f be 85 58 e5 ff ff 	movsbl -0x1aa8(%rbp),%eax
   14605:	89 d6                	mov    %edx,%esi
   14607:	89 c7                	mov    %eax,%edi
   14609:	e8 04 4c ff ff       	callq  9212 <safe_mul_func_int8_t_s_s>
   1460e:	66 83 bd 5c e5 ff ff 	cmpw   $0x0,-0x1aa4(%rbp)
   14615:	00 
   14616:	74 10                	je     14628 <func_8+0x4dd0>
   14618:	80 bd 6a e5 ff ff 00 	cmpb   $0x0,-0x1a96(%rbp)
   1461f:	74 07                	je     14628 <func_8+0x4dd0>
   14621:	b8 01 00 00 00       	mov    $0x1,%eax
   14626:	eb 05                	jmp    1462d <func_8+0x4dd5>
   14628:	b8 00 00 00 00       	mov    $0x0,%eax
   1462d:	3b 85 54 e5 ff ff    	cmp    -0x1aac(%rbp),%eax
   14633:	0f 95 c0             	setne  %al
   14636:	0f b6 c0             	movzbl %al,%eax
   14639:	44 89 e6             	mov    %r12d,%esi
   1463c:	89 c7                	mov    %eax,%edi
   1463e:	e8 7b 56 ff ff       	callq  9cbe <safe_rshift_func_uint8_t_u_u>
   14643:	0f be c0             	movsbl %al,%eax
   14646:	89 de                	mov    %ebx,%esi
   14648:	89 c7                	mov    %eax,%edi
   1464a:	e8 1d 4d ff ff       	callq  936c <safe_rshift_func_int8_t_s_u>
   1464f:	84 c0                	test   %al,%al
   14651:	0f 9e c0             	setle  %al
   14654:	0f b6 c0             	movzbl %al,%eax
   14657:	89 85 e0 e5 ff ff    	mov    %eax,-0x1a20(%rbp)
   1465d:	48 8b 05 9c ff 00 00 	mov    0xff9c(%rip),%rax        # 24600 <g_548>
   14664:	0f b7 00             	movzwl (%rax),%eax
   14667:	89 c2                	mov    %eax,%edx
   14669:	8b 85 54 e5 ff ff    	mov    -0x1aac(%rbp),%eax
   1466f:	09 c2                	or     %eax,%edx
   14671:	48 8b 05 88 ff 00 00 	mov    0xff88(%rip),%rax        # 24600 <g_548>
   14678:	66 89 10             	mov    %dx,(%rax)
   1467b:	0f b7 00             	movzwl (%rax),%eax
   1467e:	0f bf d8             	movswl %ax,%ebx
   14681:	0f be 95 58 e5 ff ff 	movsbl -0x1aa8(%rbp),%edx
   14688:	48 8b 85 e8 e6 ff ff 	mov    -0x1918(%rbp),%rax
   1468f:	8b 00                	mov    (%rax),%eax
   14691:	39 c2                	cmp    %eax,%edx
   14693:	0f 9f c0             	setg   %al
   14696:	0f b6 d0             	movzbl %al,%edx
   14699:	48 8b 05 20 fd 00 00 	mov    0xfd20(%rip),%rax        # 243c0 <g_293>
   146a0:	0f b7 00             	movzwl (%rax),%eax
   146a3:	0f b7 c0             	movzwl %ax,%eax
   146a6:	89 d6                	mov    %edx,%esi
   146a8:	89 c7                	mov    %eax,%edi
   146aa:	e8 0f 57 ff ff       	callq  9dbe <safe_lshift_func_uint16_t_u_s>
   146af:	98                   	cwtl   
   146b0:	89 de                	mov    %ebx,%esi
   146b2:	89 c7                	mov    %eax,%edi
   146b4:	e8 3c 4d ff ff       	callq  93f5 <safe_mul_func_int16_t_s_s>
   146b9:	89 c2                	mov    %eax,%edx
   146bb:	48 8b 05 b6 fe 00 00 	mov    0xfeb6(%rip),%rax        # 24578 <g_360>
   146c2:	0f bf d2             	movswl %dx,%edx
   146c5:	89 10                	mov    %edx,(%rax)
   146c7:	83 bd 18 e6 ff ff 00 	cmpl   $0x0,-0x19e8(%rbp)
   146ce:	75 09                	jne    146d9 <func_8+0x4e81>
   146d0:	80 bd 6a e5 ff ff 00 	cmpb   $0x0,-0x1a96(%rbp)
   146d7:	eb 01                	jmp    146da <func_8+0x4e82>
   146d9:	90                   	nop
   146da:	8b 05 94 16 01 00    	mov    0x11694(%rip),%eax        # 25d74 <g_49>
   146e0:	83 c0 01             	add    $0x1,%eax
   146e3:	89 05 8b 16 01 00    	mov    %eax,0x1168b(%rip)        # 25d74 <g_49>
   146e9:	8b 05 85 16 01 00    	mov    0x11685(%rip),%eax        # 25d74 <g_49>
   146ef:	83 f8 03             	cmp    $0x3,%eax
   146f2:	0f 86 5b fe ff ff    	jbe    14553 <func_8+0x4cfb>
   146f8:	83 85 a4 e5 ff ff 01 	addl   $0x1,-0x1a5c(%rbp)
   146ff:	83 bd a4 e5 ff ff 00 	cmpl   $0x0,-0x1a5c(%rbp)
   14706:	0f 84 7b f0 ff ff    	je     13787 <func_8+0x3f2f>
   1470c:	8b 05 da bc 00 00    	mov    0xbcda(%rip),%eax        # 203ec <g_829>
   14712:	83 c0 01             	add    $0x1,%eax
   14715:	89 05 d1 bc 00 00    	mov    %eax,0xbcd1(%rip)        # 203ec <g_829>
   1471b:	8b 05 cb bc 00 00    	mov    0xbccb(%rip),%eax        # 203ec <g_829>
   14721:	83 f8 03             	cmp    $0x3,%eax
   14724:	0f 86 bf ed ff ff    	jbe    134e9 <func_8+0x3c91>
   1472a:	8b 05 18 b9 00 00    	mov    0xb918(%rip),%eax        # 20048 <g_105>
   14730:	83 c0 01             	add    $0x1,%eax
   14733:	89 05 0f b9 00 00    	mov    %eax,0xb90f(%rip)        # 20048 <g_105>
   14739:	8b 05 09 b9 00 00    	mov    0xb909(%rip),%eax        # 20048 <g_105>
   1473f:	85 c0                	test   %eax,%eax
   14741:	0f 8e 71 ea ff ff    	jle    131b8 <func_8+0x3960>
   14747:	c7 85 84 e5 ff ff 00 	movl   $0x0,-0x1a7c(%rbp)
   1474e:	00 00 00 
   14751:	e9 c2 00 00 00       	jmpq   14818 <func_8+0x4fc0>
   14756:	c7 85 10 f8 ff ff 82 	movl   $0xe2f70282,-0x7f0(%rbp)
   1475d:	02 f7 e2 
   14760:	c6 85 14 f8 ff ff 6a 	movb   $0x6a,-0x7ec(%rbp)
   14767:	c7 85 15 f8 ff ff 02 	movl   $0x52408202,-0x7eb(%rbp)
   1476e:	82 40 52 
   14771:	c6 85 19 f8 ff ff e2 	movb   $0xe2,-0x7e7(%rbp)
   14778:	c7 85 1a f8 ff ff 87 	movl   $0x3cf0387,-0x7e6(%rbp)
   1477f:	03 cf 03 
   14782:	c6 85 1e f8 ff ff 87 	movb   $0x87,-0x7e2(%rbp)
   14789:	c7 85 1f f8 ff ff 40 	movl   $0x1820340,-0x7e1(%rbp)
   14790:	03 82 01 
   14793:	c6 85 23 f8 ff ff ff 	movb   $0xff,-0x7dd(%rbp)
   1479a:	c7 85 24 f8 ff ff ff 	movl   $0x87e282ff,-0x7dc(%rbp)
   147a1:	82 e2 87 
   147a4:	c6 85 28 f8 ff ff f7 	movb   $0xf7,-0x7d8(%rbp)
   147ab:	c7 85 29 f8 ff ff 03 	movl   $0x3fa0203,-0x7d7(%rbp)
   147b2:	02 fa 03 
   147b5:	c6 85 2d f8 ff ff ff 	movb   $0xff,-0x7d3(%rbp)
   147bc:	c7 85 2e f8 ff ff 07 	movl   $0xf7f78707,-0x7d2(%rbp)
   147c3:	87 f7 f7 
   147c6:	c6 85 32 f8 ff ff 87 	movb   $0x87,-0x7ce(%rbp)
   147cd:	c7 85 33 f8 ff ff ff 	movl   $0x6af740ff,-0x7cd(%rbp)
   147d4:	40 f7 6a 
   147d7:	c6 85 37 f8 ff ff e2 	movb   $0xe2,-0x7c9(%rbp)
   147de:	c7 85 38 f8 ff ff 02 	movl   $0x52faff02,-0x7c8(%rbp)
   147e5:	ff fa 52 
   147e8:	c6 85 3c f8 ff ff 6a 	movb   $0x6a,-0x7c4(%rbp)
   147ef:	48 c7 85 30 e7 ff ff 	movq   $0x0,-0x18d0(%rbp)
   147f6:	00 00 00 00 
   147fa:	8b 85 84 e5 ff ff    	mov    -0x1a7c(%rbp),%eax
   14800:	0f be c0             	movsbl %al,%eax
   14803:	be 06 00 00 00       	mov    $0x6,%esi
   14808:	89 c7                	mov    %eax,%edi
   1480a:	e8 e3 49 ff ff       	callq  91f2 <safe_sub_func_int8_t_s_s>
   1480f:	0f be c0             	movsbl %al,%eax
   14812:	89 85 84 e5 ff ff    	mov    %eax,-0x1a7c(%rbp)
   14818:	8b 85 84 e5 ff ff    	mov    -0x1a7c(%rbp),%eax
   1481e:	83 f8 fa             	cmp    $0xfffffffa,%eax
   14821:	0f 85 2f ff ff ff    	jne    14756 <func_8+0x4efe>
   14827:	48 8b 85 e8 e6 ff ff 	mov    -0x1918(%rbp),%rax
   1482e:	8b 00                	mov    (%rax),%eax
   14830:	0b 85 54 e5 ff ff    	or     -0x1aac(%rbp),%eax
   14836:	89 c2                	mov    %eax,%edx
   14838:	48 8b 85 e8 e6 ff ff 	mov    -0x1918(%rbp),%rax
   1483f:	89 10                	mov    %edx,(%rax)
   14841:	0f b7 85 9c e8 ff ff 	movzwl -0x1764(%rbp),%eax
   14848:	83 e8 01             	sub    $0x1,%eax
   1484b:	66 89 85 9c e8 ff ff 	mov    %ax,-0x1764(%rbp)
   14852:	48 8b 85 d0 e6 ff ff 	mov    -0x1930(%rbp),%rax
   14859:	8b 00                	mov    (%rax),%eax
   1485b:	48 98                	cltq   
   1485d:	48 8b 5d c8          	mov    -0x38(%rbp),%rbx
   14861:	64 48 33 1c 25 28 00 	xor    %fs:0x28,%rbx
   14868:	00 00 
   1486a:	74 05                	je     14871 <func_8+0x5019>
   1486c:	e8 ff 47 ff ff       	callq  9070 <__stack_chk_fail@plt>
   14871:	48 81 c4 98 1a 00 00 	add    $0x1a98,%rsp
   14878:	5b                   	pop    %rbx
   14879:	41 5c                	pop    %r12
   1487b:	41 5d                	pop    %r13
   1487d:	41 5e                	pop    %r14
   1487f:	41 5f                	pop    %r15
   14881:	5d                   	pop    %rbp
   14882:	c3                   	retq   

0000000000014883 <func_18>:
   14883:	f3 0f 1e fa          	endbr64 
   14887:	55                   	push   %rbp
   14888:	48 89 e5             	mov    %rsp,%rbp
   1488b:	48 81 ec 40 09 00 00 	sub    $0x940,%rsp
   14892:	48 89 bd c8 f6 ff ff 	mov    %rdi,-0x938(%rbp)
   14899:	89 f0                	mov    %esi,%eax
   1489b:	88 85 c4 f6 ff ff    	mov    %al,-0x93c(%rbp)
   148a1:	64 48 8b 04 25 28 00 	mov    %fs:0x28,%rax
   148a8:	00 00 
   148aa:	48 89 45 f8          	mov    %rax,-0x8(%rbp)
   148ae:	31 c0                	xor    %eax,%eax
   148b0:	48 8d 05 b1 b9 00 00 	lea    0xb9b1(%rip),%rax        # 20268 <g_209>
   148b7:	48 89 85 20 f7 ff ff 	mov    %rax,-0x8e0(%rbp)
   148be:	c7 85 dc f6 ff ff 09 	movl   $0x9,-0x924(%rbp)
   148c5:	00 00 00 
   148c8:	48 c7 85 28 f7 ff ff 	movq   $0x0,-0x8d8(%rbp)
   148cf:	00 00 00 00 
   148d3:	48 c7 85 b0 fa ff ff 	movq   $0x0,-0x550(%rbp)
   148da:	00 00 00 00 
   148de:	48 8d 05 63 b7 00 00 	lea    0xb763(%rip),%rax        # 20048 <g_105>
   148e5:	48 89 85 b8 fa ff ff 	mov    %rax,-0x548(%rbp)
   148ec:	48 c7 85 c0 fa ff ff 	movq   $0x0,-0x540(%rbp)
   148f3:	00 00 00 00 
   148f7:	48 8d 05 56 b9 00 00 	lea    0xb956(%rip),%rax        # 20254 <g_146>
   148fe:	48 89 85 c8 fa ff ff 	mov    %rax,-0x538(%rbp)
   14905:	48 8d 05 3c b7 00 00 	lea    0xb73c(%rip),%rax        # 20048 <g_105>
   1490c:	48 89 85 d0 fa ff ff 	mov    %rax,-0x530(%rbp)
   14913:	48 8d 05 4e b9 00 00 	lea    0xb94e(%rip),%rax        # 20268 <g_209>
   1491a:	48 89 85 d8 fa ff ff 	mov    %rax,-0x528(%rbp)
   14921:	48 8d 05 50 14 01 00 	lea    0x11450(%rip),%rax        # 25d78 <g_185>
   14928:	48 89 85 e0 fa ff ff 	mov    %rax,-0x520(%rbp)
   1492f:	48 c7 85 e8 fa ff ff 	movq   $0x0,-0x518(%rbp)
   14936:	00 00 00 00 
   1493a:	48 8d 85 dc f6 ff ff 	lea    -0x924(%rbp),%rax
   14941:	48 89 85 f0 fa ff ff 	mov    %rax,-0x510(%rbp)
   14948:	48 8d 05 49 ba 00 00 	lea    0xba49(%rip),%rax        # 20398 <g_432+0x8>
   1494f:	48 89 85 f8 fa ff ff 	mov    %rax,-0x508(%rbp)
   14956:	48 8d 05 1b 14 01 00 	lea    0x1141b(%rip),%rax        # 25d78 <g_185>
   1495d:	48 89 85 00 fb ff ff 	mov    %rax,-0x500(%rbp)
   14964:	48 8d 05 dd b6 00 00 	lea    0xb6dd(%rip),%rax        # 20048 <g_105>
   1496b:	48 89 85 08 fb ff ff 	mov    %rax,-0x4f8(%rbp)
   14972:	48 8d 05 cf b6 00 00 	lea    0xb6cf(%rip),%rax        # 20048 <g_105>
   14979:	48 89 85 10 fb ff ff 	mov    %rax,-0x4f0(%rbp)
   14980:	48 8d 05 e1 b8 00 00 	lea    0xb8e1(%rip),%rax        # 20268 <g_209>
   14987:	48 89 85 18 fb ff ff 	mov    %rax,-0x4e8(%rbp)
   1498e:	48 8d 05 d3 b8 00 00 	lea    0xb8d3(%rip),%rax        # 20268 <g_209>
   14995:	48 89 85 20 fb ff ff 	mov    %rax,-0x4e0(%rbp)
   1499c:	48 8d 85 dc f6 ff ff 	lea    -0x924(%rbp),%rax
   149a3:	48 89 85 28 fb ff ff 	mov    %rax,-0x4d8(%rbp)
   149aa:	48 c7 85 30 fb ff ff 	movq   $0x0,-0x4d0(%rbp)
   149b1:	00 00 00 00 
   149b5:	48 c7 85 38 fb ff ff 	movq   $0x0,-0x4c8(%rbp)
   149bc:	00 00 00 00 
   149c0:	48 8d 85 dc f6 ff ff 	lea    -0x924(%rbp),%rax
   149c7:	48 89 85 40 fb ff ff 	mov    %rax,-0x4c0(%rbp)
   149ce:	48 8d 05 93 b8 00 00 	lea    0xb893(%rip),%rax        # 20268 <g_209>
   149d5:	48 89 85 48 fb ff ff 	mov    %rax,-0x4b8(%rbp)
   149dc:	48 c7 85 50 fb ff ff 	movq   $0x0,-0x4b0(%rbp)
   149e3:	00 00 00 00 
   149e7:	48 8d 85 dc f6 ff ff 	lea    -0x924(%rbp),%rax
   149ee:	48 89 85 58 fb ff ff 	mov    %rax,-0x4a8(%rbp)
   149f5:	48 8d 05 9c b9 00 00 	lea    0xb99c(%rip),%rax        # 20398 <g_432+0x8>
   149fc:	48 89 85 60 fb ff ff 	mov    %rax,-0x4a0(%rbp)
   14a03:	48 8d 05 3e b6 00 00 	lea    0xb63e(%rip),%rax        # 20048 <g_105>
   14a0a:	48 89 85 68 fb ff ff 	mov    %rax,-0x498(%rbp)
   14a11:	48 c7 85 70 fb ff ff 	movq   $0x0,-0x490(%rbp)
   14a18:	00 00 00 00 
   14a1c:	48 8d 85 dc f6 ff ff 	lea    -0x924(%rbp),%rax
   14a23:	48 89 85 78 fb ff ff 	mov    %rax,-0x488(%rbp)
   14a2a:	48 c7 85 80 fb ff ff 	movq   $0x0,-0x480(%rbp)
   14a31:	00 00 00 00 
   14a35:	48 8d 05 0c b6 00 00 	lea    0xb60c(%rip),%rax        # 20048 <g_105>
   14a3c:	48 89 85 88 fb ff ff 	mov    %rax,-0x478(%rbp)
   14a43:	48 8d 05 0a b8 00 00 	lea    0xb80a(%rip),%rax        # 20254 <g_146>
   14a4a:	48 89 85 90 fb ff ff 	mov    %rax,-0x470(%rbp)
   14a51:	48 8d 05 10 b8 00 00 	lea    0xb810(%rip),%rax        # 20268 <g_209>
   14a58:	48 89 85 98 fb ff ff 	mov    %rax,-0x468(%rbp)
   14a5f:	48 8d 05 ee b7 00 00 	lea    0xb7ee(%rip),%rax        # 20254 <g_146>
   14a66:	48 89 85 a0 fb ff ff 	mov    %rax,-0x460(%rbp)
   14a6d:	48 8d 05 04 13 01 00 	lea    0x11304(%rip),%rax        # 25d78 <g_185>
   14a74:	48 89 85 a8 fb ff ff 	mov    %rax,-0x458(%rbp)
   14a7b:	48 8d 85 dc f6 ff ff 	lea    -0x924(%rbp),%rax
   14a82:	48 89 85 b0 fb ff ff 	mov    %rax,-0x450(%rbp)
   14a89:	48 8d 05 e8 12 01 00 	lea    0x112e8(%rip),%rax        # 25d78 <g_185>
   14a90:	48 89 85 b8 fb ff ff 	mov    %rax,-0x448(%rbp)
   14a97:	48 8d 05 b6 b7 00 00 	lea    0xb7b6(%rip),%rax        # 20254 <g_146>
   14a9e:	48 89 85 c0 fb ff ff 	mov    %rax,-0x440(%rbp)
   14aa5:	48 8d 05 ec b8 00 00 	lea    0xb8ec(%rip),%rax        # 20398 <g_432+0x8>
   14aac:	48 89 85 c8 fb ff ff 	mov    %rax,-0x438(%rbp)
   14ab3:	48 8d 05 de b8 00 00 	lea    0xb8de(%rip),%rax        # 20398 <g_432+0x8>
   14aba:	48 89 85 d0 fb ff ff 	mov    %rax,-0x430(%rbp)
   14ac1:	48 8d 05 80 b5 00 00 	lea    0xb580(%rip),%rax        # 20048 <g_105>
   14ac8:	48 89 85 d8 fb ff ff 	mov    %rax,-0x428(%rbp)
   14acf:	48 8d 05 7e b7 00 00 	lea    0xb77e(%rip),%rax        # 20254 <g_146>
   14ad6:	48 89 85 e0 fb ff ff 	mov    %rax,-0x420(%rbp)
   14add:	48 c7 85 e8 fb ff ff 	movq   $0x0,-0x418(%rbp)
   14ae4:	00 00 00 00 
   14ae8:	48 c7 85 f0 fb ff ff 	movq   $0x0,-0x410(%rbp)
   14aef:	00 00 00 00 
   14af3:	48 8d 05 5a b7 00 00 	lea    0xb75a(%rip),%rax        # 20254 <g_146>
   14afa:	48 89 85 f8 fb ff ff 	mov    %rax,-0x408(%rbp)
   14b01:	66 c7 85 d8 f6 ff ff 	movw   $0xa85e,-0x928(%rbp)
   14b08:	5e a8 
   14b0a:	48 b8 38 69 12 fc 53 	movabs $0x71413353fc126938,%rax
   14b11:	33 41 71 
   14b14:	48 89 85 00 f7 ff ff 	mov    %rax,-0x900(%rbp)
   14b1b:	48 c7 85 30 f7 ff ff 	movq   $0x0,-0x8d0(%rbp)
   14b22:	00 00 00 00 
   14b26:	c6 85 d2 f6 ff ff fc 	movb   $0xfc,-0x92e(%rbp)
   14b2d:	48 8d 05 f4 b4 00 00 	lea    0xb4f4(%rip),%rax        # 20028 <g_56>
   14b34:	48 89 85 08 f7 ff ff 	mov    %rax,-0x8f8(%rbp)
   14b3b:	48 b8 d7 26 0d 5e 0e 	movabs $0x2675f20e5e0d26d7,%rax
   14b42:	f2 75 26 
   14b45:	48 89 85 38 f7 ff ff 	mov    %rax,-0x8c8(%rbp)
   14b4c:	48 8d 85 00 f7 ff ff 	lea    -0x900(%rbp),%rax
   14b53:	48 89 85 40 f7 ff ff 	mov    %rax,-0x8c0(%rbp)
   14b5a:	c7 85 e8 f6 ff ff 01 	movl   $0x1,-0x918(%rbp)
   14b61:	00 00 00 
   14b64:	48 8d 05 dd f7 00 00 	lea    0xf7dd(%rip),%rax        # 24348 <g_123>
   14b6b:	48 89 85 80 f8 ff ff 	mov    %rax,-0x780(%rbp)
   14b72:	48 8d 05 cf f7 00 00 	lea    0xf7cf(%rip),%rax        # 24348 <g_123>
   14b79:	48 89 85 88 f8 ff ff 	mov    %rax,-0x778(%rbp)
   14b80:	48 8d 05 c1 f7 00 00 	lea    0xf7c1(%rip),%rax        # 24348 <g_123>
   14b87:	48 89 85 90 f8 ff ff 	mov    %rax,-0x770(%rbp)
   14b8e:	48 8d 05 b3 f7 00 00 	lea    0xf7b3(%rip),%rax        # 24348 <g_123>
   14b95:	48 89 85 98 f8 ff ff 	mov    %rax,-0x768(%rbp)
   14b9c:	48 8d 05 a5 f7 00 00 	lea    0xf7a5(%rip),%rax        # 24348 <g_123>
   14ba3:	48 89 85 a0 f8 ff ff 	mov    %rax,-0x760(%rbp)
   14baa:	48 8d 05 97 f7 00 00 	lea    0xf797(%rip),%rax        # 24348 <g_123>
   14bb1:	48 89 85 a8 f8 ff ff 	mov    %rax,-0x758(%rbp)
   14bb8:	48 8d 05 89 f7 00 00 	lea    0xf789(%rip),%rax        # 24348 <g_123>
   14bbf:	48 89 85 b0 f8 ff ff 	mov    %rax,-0x750(%rbp)
   14bc6:	48 8d 05 7b f7 00 00 	lea    0xf77b(%rip),%rax        # 24348 <g_123>
   14bcd:	48 89 85 b8 f8 ff ff 	mov    %rax,-0x748(%rbp)
   14bd4:	48 8d 05 6d f7 00 00 	lea    0xf76d(%rip),%rax        # 24348 <g_123>
   14bdb:	48 89 85 c0 f8 ff ff 	mov    %rax,-0x740(%rbp)
   14be2:	48 8d 05 5f f7 00 00 	lea    0xf75f(%rip),%rax        # 24348 <g_123>
   14be9:	48 89 85 c8 f8 ff ff 	mov    %rax,-0x738(%rbp)
   14bf0:	48 8d 05 51 f7 00 00 	lea    0xf751(%rip),%rax        # 24348 <g_123>
   14bf7:	48 89 85 d0 f8 ff ff 	mov    %rax,-0x730(%rbp)
   14bfe:	48 8d 05 43 f7 00 00 	lea    0xf743(%rip),%rax        # 24348 <g_123>
   14c05:	48 89 85 d8 f8 ff ff 	mov    %rax,-0x728(%rbp)
   14c0c:	48 8d 05 35 f7 00 00 	lea    0xf735(%rip),%rax        # 24348 <g_123>
   14c13:	48 89 85 e0 f8 ff ff 	mov    %rax,-0x720(%rbp)
   14c1a:	48 8d 05 27 f7 00 00 	lea    0xf727(%rip),%rax        # 24348 <g_123>
   14c21:	48 89 85 e8 f8 ff ff 	mov    %rax,-0x718(%rbp)
   14c28:	48 8d 05 19 f7 00 00 	lea    0xf719(%rip),%rax        # 24348 <g_123>
   14c2f:	48 89 85 f0 f8 ff ff 	mov    %rax,-0x710(%rbp)
   14c36:	48 8d 05 0b f7 00 00 	lea    0xf70b(%rip),%rax        # 24348 <g_123>
   14c3d:	48 89 85 f8 f8 ff ff 	mov    %rax,-0x708(%rbp)
   14c44:	48 8d 05 fd f6 00 00 	lea    0xf6fd(%rip),%rax        # 24348 <g_123>
   14c4b:	48 89 85 00 f9 ff ff 	mov    %rax,-0x700(%rbp)
   14c52:	48 8d 05 ef f6 00 00 	lea    0xf6ef(%rip),%rax        # 24348 <g_123>
   14c59:	48 89 85 08 f9 ff ff 	mov    %rax,-0x6f8(%rbp)
   14c60:	48 8d 05 e1 f6 00 00 	lea    0xf6e1(%rip),%rax        # 24348 <g_123>
   14c67:	48 89 85 10 f9 ff ff 	mov    %rax,-0x6f0(%rbp)
   14c6e:	48 8d 05 d3 f6 00 00 	lea    0xf6d3(%rip),%rax        # 24348 <g_123>
   14c75:	48 89 85 18 f9 ff ff 	mov    %rax,-0x6e8(%rbp)
   14c7c:	48 8d 05 c5 f6 00 00 	lea    0xf6c5(%rip),%rax        # 24348 <g_123>
   14c83:	48 89 85 20 f9 ff ff 	mov    %rax,-0x6e0(%rbp)
   14c8a:	48 8d 05 b7 f6 00 00 	lea    0xf6b7(%rip),%rax        # 24348 <g_123>
   14c91:	48 89 85 28 f9 ff ff 	mov    %rax,-0x6d8(%rbp)
   14c98:	48 8d 05 a9 f6 00 00 	lea    0xf6a9(%rip),%rax        # 24348 <g_123>
   14c9f:	48 89 85 30 f9 ff ff 	mov    %rax,-0x6d0(%rbp)
   14ca6:	48 8d 05 9b f6 00 00 	lea    0xf69b(%rip),%rax        # 24348 <g_123>
   14cad:	48 89 85 38 f9 ff ff 	mov    %rax,-0x6c8(%rbp)
   14cb4:	48 8d 05 8d f6 00 00 	lea    0xf68d(%rip),%rax        # 24348 <g_123>
   14cbb:	48 89 85 40 f9 ff ff 	mov    %rax,-0x6c0(%rbp)
   14cc2:	48 8d 05 7f f6 00 00 	lea    0xf67f(%rip),%rax        # 24348 <g_123>
   14cc9:	48 89 85 48 f9 ff ff 	mov    %rax,-0x6b8(%rbp)
   14cd0:	48 8d 05 71 f6 00 00 	lea    0xf671(%rip),%rax        # 24348 <g_123>
   14cd7:	48 89 85 50 f9 ff ff 	mov    %rax,-0x6b0(%rbp)
   14cde:	48 8d 05 63 f6 00 00 	lea    0xf663(%rip),%rax        # 24348 <g_123>
   14ce5:	48 89 85 58 f9 ff ff 	mov    %rax,-0x6a8(%rbp)
   14cec:	48 8d 05 55 f6 00 00 	lea    0xf655(%rip),%rax        # 24348 <g_123>
   14cf3:	48 89 85 60 f9 ff ff 	mov    %rax,-0x6a0(%rbp)
   14cfa:	48 8d 05 47 f6 00 00 	lea    0xf647(%rip),%rax        # 24348 <g_123>
   14d01:	48 89 85 68 f9 ff ff 	mov    %rax,-0x698(%rbp)
   14d08:	48 c7 85 70 f9 ff ff 	movq   $0x0,-0x690(%rbp)
   14d0f:	00 00 00 00 
   14d13:	48 8d 85 80 f8 ff ff 	lea    -0x780(%rbp),%rax
   14d1a:	48 83 c0 78          	add    $0x78,%rax
   14d1e:	48 89 85 78 f9 ff ff 	mov    %rax,-0x688(%rbp)
   14d25:	48 8d 85 80 f8 ff ff 	lea    -0x780(%rbp),%rax
   14d2c:	48 05 a8 00 00 00    	add    $0xa8,%rax
   14d32:	48 89 85 80 f9 ff ff 	mov    %rax,-0x680(%rbp)
   14d39:	48 c7 85 88 f9 ff ff 	movq   $0x0,-0x678(%rbp)
   14d40:	00 00 00 00 
   14d44:	48 8d 85 80 f8 ff ff 	lea    -0x780(%rbp),%rax
   14d4b:	48 05 a8 00 00 00    	add    $0xa8,%rax
   14d51:	48 89 85 90 f9 ff ff 	mov    %rax,-0x670(%rbp)
   14d58:	48 8d 85 80 f8 ff ff 	lea    -0x780(%rbp),%rax
   14d5f:	48 83 c0 78          	add    $0x78,%rax
   14d63:	48 89 85 98 f9 ff ff 	mov    %rax,-0x668(%rbp)
   14d6a:	48 c7 85 a0 f9 ff ff 	movq   $0x0,-0x660(%rbp)
   14d71:	00 00 00 00 
   14d75:	48 8d 85 80 f8 ff ff 	lea    -0x780(%rbp),%rax
   14d7c:	48 05 90 00 00 00    	add    $0x90,%rax
   14d82:	48 89 85 a8 f9 ff ff 	mov    %rax,-0x658(%rbp)
   14d89:	48 8d 85 80 f8 ff ff 	lea    -0x780(%rbp),%rax
   14d90:	48 83 c0 78          	add    $0x78,%rax
   14d94:	48 89 85 b0 f9 ff ff 	mov    %rax,-0x650(%rbp)
   14d9b:	48 8d 85 80 f8 ff ff 	lea    -0x780(%rbp),%rax
   14da2:	48 05 90 00 00 00    	add    $0x90,%rax
   14da8:	48 89 85 b8 f9 ff ff 	mov    %rax,-0x648(%rbp)
   14daf:	48 c7 85 c0 f9 ff ff 	movq   $0x0,-0x640(%rbp)
   14db6:	00 00 00 00 
   14dba:	48 8d 85 80 f8 ff ff 	lea    -0x780(%rbp),%rax
   14dc1:	48 83 c0 78          	add    $0x78,%rax
   14dc5:	48 89 85 c8 f9 ff ff 	mov    %rax,-0x638(%rbp)
   14dcc:	48 8d 85 80 f8 ff ff 	lea    -0x780(%rbp),%rax
   14dd3:	48 05 a8 00 00 00    	add    $0xa8,%rax
   14dd9:	48 89 85 d0 f9 ff ff 	mov    %rax,-0x630(%rbp)
   14de0:	48 c7 85 d8 f9 ff ff 	movq   $0x0,-0x628(%rbp)
   14de7:	00 00 00 00 
   14deb:	48 8d 85 80 f8 ff ff 	lea    -0x780(%rbp),%rax
   14df2:	48 05 a8 00 00 00    	add    $0xa8,%rax
   14df8:	48 89 85 e0 f9 ff ff 	mov    %rax,-0x620(%rbp)
   14dff:	48 8d 85 80 f8 ff ff 	lea    -0x780(%rbp),%rax
   14e06:	48 83 c0 78          	add    $0x78,%rax
   14e0a:	48 89 85 e8 f9 ff ff 	mov    %rax,-0x618(%rbp)
   14e11:	48 c7 85 f0 f9 ff ff 	movq   $0x0,-0x610(%rbp)
   14e18:	00 00 00 00 
   14e1c:	48 8d 85 80 f8 ff ff 	lea    -0x780(%rbp),%rax
   14e23:	48 05 90 00 00 00    	add    $0x90,%rax
   14e29:	48 89 85 f8 f9 ff ff 	mov    %rax,-0x608(%rbp)
   14e30:	48 8d 85 80 f8 ff ff 	lea    -0x780(%rbp),%rax
   14e37:	48 83 c0 78          	add    $0x78,%rax
   14e3b:	48 89 85 00 fa ff ff 	mov    %rax,-0x600(%rbp)
   14e42:	48 8d 85 80 f8 ff ff 	lea    -0x780(%rbp),%rax
   14e49:	48 05 90 00 00 00    	add    $0x90,%rax
   14e4f:	48 89 85 08 fa ff ff 	mov    %rax,-0x5f8(%rbp)
   14e56:	48 c7 85 10 fa ff ff 	movq   $0x0,-0x5f0(%rbp)
   14e5d:	00 00 00 00 
   14e61:	48 8d 85 80 f8 ff ff 	lea    -0x780(%rbp),%rax
   14e68:	48 83 c0 78          	add    $0x78,%rax
   14e6c:	48 89 85 18 fa ff ff 	mov    %rax,-0x5e8(%rbp)
   14e73:	48 8d 85 80 f8 ff ff 	lea    -0x780(%rbp),%rax
   14e7a:	48 05 a8 00 00 00    	add    $0xa8,%rax
   14e80:	48 89 85 20 fa ff ff 	mov    %rax,-0x5e0(%rbp)
   14e87:	48 c7 85 28 fa ff ff 	movq   $0x0,-0x5d8(%rbp)
   14e8e:	00 00 00 00 
   14e92:	48 8d 85 80 f8 ff ff 	lea    -0x780(%rbp),%rax
   14e99:	48 05 a8 00 00 00    	add    $0xa8,%rax
   14e9f:	48 89 85 30 fa ff ff 	mov    %rax,-0x5d0(%rbp)
   14ea6:	48 8d 85 80 f8 ff ff 	lea    -0x780(%rbp),%rax
   14ead:	48 83 c0 78          	add    $0x78,%rax
   14eb1:	48 89 85 38 fa ff ff 	mov    %rax,-0x5c8(%rbp)
   14eb8:	48 c7 85 40 fa ff ff 	movq   $0x0,-0x5c0(%rbp)
   14ebf:	00 00 00 00 
   14ec3:	48 8d 85 80 f8 ff ff 	lea    -0x780(%rbp),%rax
   14eca:	48 05 90 00 00 00    	add    $0x90,%rax
   14ed0:	48 89 85 48 fa ff ff 	mov    %rax,-0x5b8(%rbp)
   14ed7:	48 8d 85 80 f8 ff ff 	lea    -0x780(%rbp),%rax
   14ede:	48 83 c0 78          	add    $0x78,%rax
   14ee2:	48 89 85 50 fa ff ff 	mov    %rax,-0x5b0(%rbp)
   14ee9:	48 8d 85 80 f8 ff ff 	lea    -0x780(%rbp),%rax
   14ef0:	48 05 90 00 00 00    	add    $0x90,%rax
   14ef6:	48 89 85 58 fa ff ff 	mov    %rax,-0x5a8(%rbp)
   14efd:	48 c7 85 60 fa ff ff 	movq   $0x0,-0x5a0(%rbp)
   14f04:	00 00 00 00 
   14f08:	48 8d 85 80 f8 ff ff 	lea    -0x780(%rbp),%rax
   14f0f:	48 83 c0 78          	add    $0x78,%rax
   14f13:	48 89 85 68 fa ff ff 	mov    %rax,-0x598(%rbp)
   14f1a:	48 8d 85 80 f8 ff ff 	lea    -0x780(%rbp),%rax
   14f21:	48 05 a8 00 00 00    	add    $0xa8,%rax
   14f27:	48 89 85 70 fa ff ff 	mov    %rax,-0x590(%rbp)
   14f2e:	48 c7 85 78 fa ff ff 	movq   $0x0,-0x588(%rbp)
   14f35:	00 00 00 00 
   14f39:	48 8d 85 80 f8 ff ff 	lea    -0x780(%rbp),%rax
   14f40:	48 05 a8 00 00 00    	add    $0xa8,%rax
   14f46:	48 89 85 80 fa ff ff 	mov    %rax,-0x580(%rbp)
   14f4d:	48 8d 85 80 f8 ff ff 	lea    -0x780(%rbp),%rax
   14f54:	48 83 c0 78          	add    $0x78,%rax
   14f58:	48 89 85 88 fa ff ff 	mov    %rax,-0x578(%rbp)
   14f5f:	48 c7 85 90 fa ff ff 	movq   $0x0,-0x570(%rbp)
   14f66:	00 00 00 00 
   14f6a:	48 8d 85 80 f8 ff ff 	lea    -0x780(%rbp),%rax
   14f71:	48 05 90 00 00 00    	add    $0x90,%rax
   14f77:	48 89 85 98 fa ff ff 	mov    %rax,-0x568(%rbp)
   14f7e:	48 8d 85 80 f8 ff ff 	lea    -0x780(%rbp),%rax
   14f85:	48 83 c0 78          	add    $0x78,%rax
   14f89:	48 89 85 a0 fa ff ff 	mov    %rax,-0x560(%rbp)
   14f90:	48 8d 85 80 f8 ff ff 	lea    -0x780(%rbp),%rax
   14f97:	48 05 90 00 00 00    	add    $0x90,%rax
   14f9d:	48 89 85 a8 fa ff ff 	mov    %rax,-0x558(%rbp)
   14fa4:	48 c7 85 48 f7 ff ff 	movq   $0x5,-0x8b8(%rbp)
   14fab:	05 00 00 00 
   14faf:	48 c7 85 50 f7 ff ff 	movq   $0x0,-0x8b0(%rbp)
   14fb6:	00 00 00 00 
   14fba:	48 c7 85 40 f8 ff ff 	movq   $0x1,-0x7c0(%rbp)
   14fc1:	01 00 00 00 
   14fc5:	48 c7 85 48 f8 ff ff 	movq   $0x1,-0x7b8(%rbp)
   14fcc:	01 00 00 00 
   14fd0:	48 c7 85 50 f8 ff ff 	movq   $0xffffffffffffffff,-0x7b0(%rbp)
   14fd7:	ff ff ff ff 
   14fdb:	48 c7 85 58 f8 ff ff 	movq   $0x1,-0x7a8(%rbp)
   14fe2:	01 00 00 00 
   14fe6:	48 c7 85 60 f8 ff ff 	movq   $0x1,-0x7a0(%rbp)
   14fed:	01 00 00 00 
   14ff1:	48 c7 85 68 f8 ff ff 	movq   $0xffffffffffffffff,-0x798(%rbp)
   14ff8:	ff ff ff ff 
   14ffc:	48 c7 85 70 f8 ff ff 	movq   $0x1,-0x790(%rbp)
   15003:	01 00 00 00 
   15007:	48 c7 85 78 f8 ff ff 	movq   $0x1,-0x788(%rbp)
   1500e:	01 00 00 00 
   15012:	48 8d 05 d7 b3 00 00 	lea    0xb3d7(%rip),%rax        # 203f0 <g_860>
   15019:	48 89 85 10 f7 ff ff 	mov    %rax,-0x8f0(%rbp)
   15020:	48 8d 85 10 f7 ff ff 	lea    -0x8f0(%rbp),%rax
   15027:	48 89 85 58 f7 ff ff 	mov    %rax,-0x8a8(%rbp)
   1502e:	48 c7 85 60 f7 ff ff 	movq   $0x3,-0x8a0(%rbp)
   15035:	03 00 00 00 
   15039:	c7 85 ec f6 ff ff ff 	movl   $0xffffffff,-0x914(%rbp)
   15040:	ff ff ff 
   15043:	c6 85 d3 f6 ff ff 04 	movb   $0x4,-0x92d(%rbp)
   1504a:	c7 85 f0 f6 ff ff ba 	movl   $0x6215f1ba,-0x910(%rbp)
   15051:	f1 15 62 
   15054:	48 b8 6f 33 40 bc a1 	movabs $0xc2aa1a1bc40336f,%rax
   1505b:	a1 2a 0c 
   1505e:	48 89 85 68 f7 ff ff 	mov    %rax,-0x898(%rbp)
   15065:	48 8d 85 10 f8 ff ff 	lea    -0x7f0(%rbp),%rax
   1506c:	48 89 85 70 f7 ff ff 	mov    %rax,-0x890(%rbp)
   15073:	c7 85 e0 f6 ff ff 00 	movl   $0x0,-0x920(%rbp)
   1507a:	00 00 00 
   1507d:	eb 19                	jmp    15098 <func_18+0x815>
   1507f:	8b 85 e0 f6 ff ff    	mov    -0x920(%rbp),%eax
   15085:	48 98                	cltq   
   15087:	66 c7 84 45 c2 f7 ff 	movw   $0x0,-0x83e(%rbp,%rax,2)
   1508e:	ff 00 00 
   15091:	83 85 e0 f6 ff ff 01 	addl   $0x1,-0x920(%rbp)
   15098:	83 bd e0 f6 ff ff 02 	cmpl   $0x2,-0x920(%rbp)
   1509f:	7e de                	jle    1507f <func_18+0x7fc>
   150a1:	c7 85 e0 f6 ff ff 00 	movl   $0x0,-0x920(%rbp)
   150a8:	00 00 00 
   150ab:	eb 1e                	jmp    150cb <func_18+0x848>
   150ad:	8b 85 e0 f6 ff ff    	mov    -0x920(%rbp),%eax
   150b3:	48 98                	cltq   
   150b5:	48 8d 15 e4 f4 00 00 	lea    0xf4e4(%rip),%rdx        # 245a0 <g_458>
   150bc:	48 89 94 c5 c8 f7 ff 	mov    %rdx,-0x838(%rbp,%rax,8)
   150c3:	ff 
   150c4:	83 85 e0 f6 ff ff 01 	addl   $0x1,-0x920(%rbp)
   150cb:	83 bd e0 f6 ff ff 00 	cmpl   $0x0,-0x920(%rbp)
   150d2:	7e d9                	jle    150ad <func_18+0x82a>
   150d4:	c7 85 e0 f6 ff ff 00 	movl   $0x0,-0x920(%rbp)
   150db:	00 00 00 
   150de:	eb 1e                	jmp    150fe <func_18+0x87b>
   150e0:	8b 85 e0 f6 ff ff    	mov    -0x920(%rbp),%eax
   150e6:	48 98                	cltq   
   150e8:	48 8d 15 69 b1 00 00 	lea    0xb169(%rip),%rdx        # 20258 <g_174>
   150ef:	48 89 94 c5 10 f8 ff 	mov    %rdx,-0x7f0(%rbp,%rax,8)
   150f6:	ff 
   150f7:	83 85 e0 f6 ff ff 01 	addl   $0x1,-0x920(%rbp)
   150fe:	83 bd e0 f6 ff ff 04 	cmpl   $0x4,-0x920(%rbp)
   15105:	7e d9                	jle    150e0 <func_18+0x85d>
   15107:	66 83 85 d8 f6 ff ff 	addw   $0x1,-0x928(%rbp)
   1510e:	01 
   1510f:	c7 05 67 b2 00 00 00 	movl   $0x0,0xb267(%rip)        # 20380 <g_389>
   15116:	00 00 00 
   15119:	e9 9c 01 00 00       	jmpq   152ba <func_18+0xa37>
   1511e:	c6 85 d4 f6 ff ff dd 	movb   $0xdd,-0x92c(%rbp)
   15125:	c7 85 f4 f6 ff ff 1f 	movl   $0x2c0fb51f,-0x90c(%rbp)
   1512c:	b5 0f 2c 
   1512f:	48 8d 05 92 b1 00 00 	lea    0xb192(%rip),%rax        # 202c8 <g_320>
   15136:	48 89 85 78 f7 ff ff 	mov    %rax,-0x888(%rbp)
   1513d:	c7 85 f8 f6 ff ff 09 	movl   $0x9,-0x908(%rbp)
   15144:	00 00 00 
   15147:	48 8d 85 dc f6 ff ff 	lea    -0x924(%rbp),%rax
   1514e:	48 89 85 80 f7 ff ff 	mov    %rax,-0x880(%rbp)
   15155:	48 8d 85 d2 f6 ff ff 	lea    -0x92e(%rbp),%rax
   1515c:	48 89 85 88 f7 ff ff 	mov    %rax,-0x878(%rbp)
   15163:	66 c7 85 da f6 ff ff 	movw   $0x1,-0x926(%rbp)
   1516a:	01 00 
   1516c:	48 8d 85 08 f7 ff ff 	lea    -0x8f8(%rbp),%rax
   15173:	48 89 85 18 f7 ff ff 	mov    %rax,-0x8e8(%rbp)
   1517a:	48 8d 85 18 f7 ff ff 	lea    -0x8e8(%rbp),%rax
   15181:	48 89 85 90 f7 ff ff 	mov    %rax,-0x870(%rbp)
   15188:	c6 85 d5 f6 ff ff 0d 	movb   $0xd,-0x92b(%rbp)
   1518f:	66 c7 85 d0 f7 ff ff 	movw   $0xfffb,-0x830(%rbp)
   15196:	fb ff 
   15198:	66 c7 85 d2 f7 ff ff 	movw   $0xfffb,-0x82e(%rbp)
   1519f:	fb ff 
   151a1:	66 c7 85 d4 f7 ff ff 	movw   $0xfffb,-0x82c(%rbp)
   151a8:	fb ff 
   151aa:	66 c7 85 d6 f7 ff ff 	movw   $0xfffb,-0x82a(%rbp)
   151b1:	fb ff 
   151b3:	66 c7 85 d8 f7 ff ff 	movw   $0xfffb,-0x828(%rbp)
   151ba:	fb ff 
   151bc:	66 c7 85 da f7 ff ff 	movw   $0xfffb,-0x826(%rbp)
   151c3:	fb ff 
   151c5:	66 c7 85 dc f7 ff ff 	movw   $0xfffb,-0x824(%rbp)
   151cc:	fb ff 
   151ce:	66 c7 85 de f7 ff ff 	movw   $0xfffb,-0x822(%rbp)
   151d5:	fb ff 
   151d7:	66 c7 85 e0 f7 ff ff 	movw   $0xfffb,-0x820(%rbp)
   151de:	fb ff 
   151e0:	66 c7 85 e2 f7 ff ff 	movw   $0xfffb,-0x81e(%rbp)
   151e7:	fb ff 
   151e9:	48 c7 85 98 f7 ff ff 	movq   $0x0,-0x868(%rbp)
   151f0:	00 00 00 00 
   151f4:	c7 85 fc f6 ff ff 4b 	movl   $0xa00f554b,-0x904(%rbp)
   151fb:	55 0f a0 
   151fe:	48 8d 85 70 fd ff ff 	lea    -0x290(%rbp),%rax
   15205:	48 8d 15 14 63 00 00 	lea    0x6314(%rip),%rdx        # 1b520 <g_2720+0x428>
   1520c:	b9 50 00 00 00       	mov    $0x50,%ecx
   15211:	48 89 c7             	mov    %rax,%rdi
   15214:	48 89 d6             	mov    %rdx,%rsi
   15217:	f3 48 a5             	rep movsq %ds:(%rsi),%es:(%rdi)
   1521a:	c6 85 d6 f6 ff ff 00 	movb   $0x0,-0x92a(%rbp)
   15221:	48 b8 cb 74 20 87 14 	movabs $0x47ca4414872074cb,%rax
   15228:	44 ca 47 
   1522b:	48 89 85 a0 f7 ff ff 	mov    %rax,-0x860(%rbp)
   15232:	48 8d 85 00 fc ff ff 	lea    -0x400(%rbp),%rax
   15239:	48 8d 15 60 65 00 00 	lea    0x6560(%rip),%rdx        # 1b7a0 <g_2720+0x6a8>
   15240:	b9 2d 00 00 00       	mov    $0x2d,%ecx
   15245:	48 89 c7             	mov    %rax,%rdi
   15248:	48 89 d6             	mov    %rdx,%rsi
   1524b:	f3 48 a5             	rep movsq %ds:(%rsi),%es:(%rdi)
   1524e:	48 c7 85 a8 f7 ff ff 	movq   $0x0,-0x858(%rbp)
   15255:	00 00 00 00 
   15259:	c6 85 d7 f6 ff ff 01 	movb   $0x1,-0x929(%rbp)
   15260:	48 8d 05 09 f3 00 00 	lea    0xf309(%rip),%rax        # 24570 <g_346>
   15267:	48 89 85 b0 f7 ff ff 	mov    %rax,-0x850(%rbp)
   1526e:	48 8d 85 08 f7 ff ff 	lea    -0x8f8(%rbp),%rax
   15275:	48 89 85 b8 f7 ff ff 	mov    %rax,-0x848(%rbp)
   1527c:	c7 85 e4 f6 ff ff 00 	movl   $0x0,-0x91c(%rbp)
   15283:	00 00 00 
   15286:	eb 1a                	jmp    152a2 <func_18+0xa1f>
   15288:	8b 85 e4 f6 ff ff    	mov    -0x91c(%rbp),%eax
   1528e:	48 98                	cltq   
   15290:	c7 84 85 f0 f7 ff ff 	movl   $0xfffffffc,-0x810(%rbp,%rax,4)
   15297:	fc ff ff ff 
   1529b:	83 85 e4 f6 ff ff 01 	addl   $0x1,-0x91c(%rbp)
   152a2:	83 bd e4 f6 ff ff 04 	cmpl   $0x4,-0x91c(%rbp)
   152a9:	7e dd                	jle    15288 <func_18+0xa05>
   152ab:	8b 05 cf b0 00 00    	mov    0xb0cf(%rip),%eax        # 20380 <g_389>
   152b1:	83 c0 01             	add    $0x1,%eax
   152b4:	89 05 c6 b0 00 00    	mov    %eax,0xb0c6(%rip)        # 20380 <g_389>
   152ba:	8b 05 c0 b0 00 00    	mov    0xb0c0(%rip),%eax        # 20380 <g_389>
   152c0:	85 c0                	test   %eax,%eax
   152c2:	0f 84 56 fe ff ff    	je     1511e <func_18+0x89b>
   152c8:	48 8b 85 20 f7 ff ff 	mov    -0x8e0(%rbp),%rax
   152cf:	8b 00                	mov    (%rax),%eax
   152d1:	48 8b 4d f8          	mov    -0x8(%rbp),%rcx
   152d5:	64 48 33 0c 25 28 00 	xor    %fs:0x28,%rcx
   152dc:	00 00 
   152de:	74 05                	je     152e5 <func_18+0xa62>
   152e0:	e8 8b 3d ff ff       	callq  9070 <__stack_chk_fail@plt>
   152e5:	c9                   	leaveq 
   152e6:	c3                   	retq   

00000000000152e7 <func_27>:
   152e7:	f3 0f 1e fa          	endbr64 
   152eb:	55                   	push   %rbp
   152ec:	48 89 e5             	mov    %rsp,%rbp
   152ef:	41 56                	push   %r14
   152f1:	41 55                	push   %r13
   152f3:	41 54                	push   %r12
   152f5:	53                   	push   %rbx
   152f6:	48 81 ec 30 0b 00 00 	sub    $0xb30,%rsp
   152fd:	89 bd bc f4 ff ff    	mov    %edi,-0xb44(%rbp)
   15303:	89 f0                	mov    %esi,%eax
   15305:	66 89 85 b8 f4 ff ff 	mov    %ax,-0xb48(%rbp)
   1530c:	64 48 8b 04 25 28 00 	mov    %fs:0x28,%rax
   15313:	00 00 
   15315:	48 89 45 d8          	mov    %rax,-0x28(%rbp)
   15319:	31 c0                	xor    %eax,%eax
   1531b:	66 c7 85 d2 f4 ff ff 	movw   $0xd7e4,-0xb2e(%rbp)
   15322:	e4 d7 
   15324:	c7 85 e0 f4 ff ff 24 	movl   $0x16365c24,-0xb20(%rbp)
   1532b:	5c 36 16 
   1532e:	c7 85 a0 f6 ff ff fc 	movl   $0xfffffffc,-0x960(%rbp)
   15335:	ff ff ff 
   15338:	c7 85 a4 f6 ff ff fc 	movl   $0xfffffffc,-0x95c(%rbp)
   1533f:	ff ff ff 
   15342:	c7 85 a8 f6 ff ff fc 	movl   $0xfffffffc,-0x958(%rbp)
   15349:	ff ff ff 
   1534c:	c7 85 ac f6 ff ff fc 	movl   $0xfffffffc,-0x954(%rbp)
   15353:	ff ff ff 
   15356:	48 8d 05 73 af 00 00 	lea    0xaf73(%rip),%rax        # 202d0 <g_326>
   1535d:	48 89 85 98 f5 ff ff 	mov    %rax,-0xa68(%rbp)
   15364:	48 8d 05 0d 0a 01 00 	lea    0x10a0d(%rip),%rax        # 25d78 <g_185>
   1536b:	48 89 85 c8 f5 ff ff 	mov    %rax,-0xa38(%rbp)
   15372:	c7 85 e4 f4 ff ff 00 	movl   $0x0,-0xb1c(%rbp)
   15379:	00 00 00 
   1537c:	c7 85 10 f5 ff ff 01 	movl   $0x1,-0xaf0(%rbp)
   15383:	00 00 00 
   15386:	48 8d 05 34 af 00 00 	lea    0xaf34(%rip),%rax        # 202c1 <g_284+0x1>
   1538d:	48 89 85 d0 f5 ff ff 	mov    %rax,-0xa30(%rbp)
   15394:	c6 85 cf f4 ff ff 36 	movb   $0x36,-0xb31(%rbp)
   1539b:	48 c7 85 d8 f5 ff ff 	movq   $0x7,-0xa28(%rbp)
   153a2:	07 00 00 00 
   153a6:	48 8d 05 07 af 00 00 	lea    0xaf07(%rip),%rax        # 202b4 <g_265+0x34>
   153ad:	48 89 85 a0 f5 ff ff 	mov    %rax,-0xa60(%rbp)
   153b4:	48 c7 85 e0 f5 ff ff 	movq   $0x0,-0xa20(%rbp)
   153bb:	00 00 00 00 
   153bf:	48 8d 05 72 ac 00 00 	lea    0xac72(%rip),%rax        # 20038 <g_61>
   153c6:	48 89 85 e8 f5 ff ff 	mov    %rax,-0xa18(%rbp)
   153cd:	c7 85 14 f5 ff ff 01 	movl   $0x1,-0xaec(%rbp)
   153d4:	00 00 00 
   153d7:	c7 85 ec f4 ff ff 00 	movl   $0x0,-0xb14(%rbp)
   153de:	00 00 00 
   153e1:	eb 1e                	jmp    15401 <func_27+0x11a>
   153e3:	8b 85 ec f4 ff ff    	mov    -0xb14(%rbp),%eax
   153e9:	48 98                	cltq   
   153eb:	48 8d 95 e0 f4 ff ff 	lea    -0xb20(%rbp),%rdx
   153f2:	48 89 94 c5 98 f6 ff 	mov    %rdx,-0x968(%rbp,%rax,8)
   153f9:	ff 
   153fa:	83 85 ec f4 ff ff 01 	addl   $0x1,-0xb14(%rbp)
   15401:	83 bd ec f4 ff ff 00 	cmpl   $0x0,-0xb14(%rbp)
   15408:	7e d9                	jle    153e3 <func_27+0xfc>
   1540a:	c7 85 ec f4 ff ff 00 	movl   $0x0,-0xb14(%rbp)
   15411:	00 00 00 
   15414:	eb 1e                	jmp    15434 <func_27+0x14d>
   15416:	8b 85 ec f4 ff ff    	mov    -0xb14(%rbp),%eax
   1541c:	48 98                	cltq   
   1541e:	48 8d 95 a0 f5 ff ff 	lea    -0xa60(%rbp),%rdx
   15425:	48 89 94 c5 f0 f6 ff 	mov    %rdx,-0x910(%rbp,%rax,8)
   1542c:	ff 
   1542d:	83 85 ec f4 ff ff 01 	addl   $0x1,-0xb14(%rbp)
   15434:	83 bd ec f4 ff ff 06 	cmpl   $0x6,-0xb14(%rbp)
   1543b:	7e d9                	jle    15416 <func_27+0x12f>
   1543d:	90                   	nop
   1543e:	c6 05 0b ae 00 00 00 	movb   $0x0,0xae0b(%rip)        # 20250 <g_141>
   15445:	e9 3c 0a 00 00       	jmpq   15e86 <func_27+0xb9f>
   1544a:	48 b8 96 96 96 96 96 	movabs $0x9696969696969696,%rax
   15451:	96 96 96 
   15454:	48 89 45 cf          	mov    %rax,-0x31(%rbp)
   15458:	c6 45 d7 96          	movb   $0x96,-0x29(%rbp)
   1545c:	c7 85 f0 f4 ff ff da 	movl   $0x846456da,-0xb10(%rbp)
   15463:	56 64 84 
   15466:	48 c7 85 58 f6 ff ff 	movq   $0x0,-0x9a8(%rbp)
   1546d:	00 00 00 00 
   15471:	c7 85 7c f5 ff ff f7 	movl   $0xfffffff7,-0xa84(%rbp)
   15478:	ff ff ff 
   1547b:	c7 05 ef 08 01 00 0e 	movl   $0xe,0x108ef(%rip)        # 25d74 <g_49>
   15482:	00 00 00 
   15485:	e9 dd 09 00 00       	jmpq   15e67 <func_27+0xb80>
   1548a:	c7 85 80 f5 ff ff f6 	movl   $0xfffffff6,-0xa80(%rbp)
   15491:	ff ff ff 
   15494:	66 c7 85 da f4 ff ff 	movw   $0x0,-0xb26(%rbp)
   1549b:	00 00 
   1549d:	c7 85 f4 f4 ff ff 00 	movl   $0x0,-0xb0c(%rbp)
   154a4:	00 00 00 
   154a7:	eb 1e                	jmp    154c7 <func_27+0x1e0>
   154a9:	8b 85 f4 f4 ff ff    	mov    -0xb0c(%rbp),%eax
   154af:	48 98                	cltq   
   154b1:	48 8d 15 90 ab 00 00 	lea    0xab90(%rip),%rdx        # 20048 <g_105>
   154b8:	48 89 94 c5 b0 f7 ff 	mov    %rdx,-0x850(%rbp,%rax,8)
   154bf:	ff 
   154c0:	83 85 f4 f4 ff ff 01 	addl   $0x1,-0xb0c(%rbp)
   154c7:	83 bd f4 f4 ff ff 06 	cmpl   $0x6,-0xb0c(%rbp)
   154ce:	7e d9                	jle    154a9 <func_27+0x1c2>
   154d0:	c7 85 f4 f4 ff ff 00 	movl   $0x0,-0xb0c(%rbp)
   154d7:	00 00 00 
   154da:	eb 4d                	jmp    15529 <func_27+0x242>
   154dc:	c7 85 f8 f4 ff ff 00 	movl   $0x0,-0xb08(%rbp)
   154e3:	00 00 00 
   154e6:	eb 31                	jmp    15519 <func_27+0x232>
   154e8:	8b 85 f8 f4 ff ff    	mov    -0xb08(%rbp),%eax
   154ee:	48 63 c8             	movslq %eax,%rcx
   154f1:	8b 85 f4 f4 ff ff    	mov    -0xb0c(%rbp),%eax
   154f7:	48 63 d0             	movslq %eax,%rdx
   154fa:	48 89 d0             	mov    %rdx,%rax
   154fd:	48 c1 e0 03          	shl    $0x3,%rax
   15501:	48 29 d0             	sub    %rdx,%rax
   15504:	48 01 c8             	add    %rcx,%rax
   15507:	c7 84 85 30 f7 ff ff 	movl   $0x96cf2efe,-0x8d0(%rbp,%rax,4)
   1550e:	fe 2e cf 96 
   15512:	83 85 f8 f4 ff ff 01 	addl   $0x1,-0xb08(%rbp)
   15519:	83 bd f8 f4 ff ff 06 	cmpl   $0x6,-0xb08(%rbp)
   15520:	7e c6                	jle    154e8 <func_27+0x201>
   15522:	83 85 f4 f4 ff ff 01 	addl   $0x1,-0xb0c(%rbp)
   15529:	83 bd f4 f4 ff ff 00 	cmpl   $0x0,-0xb0c(%rbp)
   15530:	7e aa                	jle    154dc <func_27+0x1f5>
   15532:	66 c7 85 d2 f4 ff ff 	movw   $0x9cf3,-0xb2e(%rbp)
   15539:	f3 9c 
   1553b:	48 c7 05 1a ad 00 00 	movq   $0xfffffffffffffffc,0xad1a(%rip)        # 20260 <g_203>
   15542:	fc ff ff ff 
   15546:	e9 fc 08 00 00       	jmpq   15e47 <func_27+0xb60>
   1554b:	48 b8 32 31 87 bb 6d 	movabs $0xe09fc96dbb873132,%rax
   15552:	c9 9f e0 
   15555:	48 89 85 b0 f5 ff ff 	mov    %rax,-0xa50(%rbp)
   1555c:	c7 85 84 f5 ff ff 04 	movl   $0x4,-0xa7c(%rbp)
   15563:	00 00 00 
   15566:	c6 85 d1 f4 ff ff 01 	movb   $0x1,-0xb2f(%rbp)
   1556d:	c7 85 88 f5 ff ff bb 	movl   $0x24e852bb,-0xa78(%rbp)
   15574:	52 e8 24 
   15577:	66 c7 85 dc f4 ff ff 	movw   $0xcaee,-0xb24(%rbp)
   1557e:	ee ca 
   15580:	c7 85 bc f4 ff ff 04 	movl   $0x4,-0xb44(%rbp)
   15587:	00 00 00 
   1558a:	e9 8f 08 00 00       	jmpq   15e1e <func_27+0xb37>
   1558f:	66 c7 85 de f4 ff ff 	movw   $0xbba7,-0xb22(%rbp)
   15596:	a7 bb 
   15598:	c7 85 b0 f6 ff ff 03 	movl   $0x3,-0x950(%rbp)
   1559f:	00 00 00 
   155a2:	c7 85 b4 f6 ff ff 03 	movl   $0x3,-0x94c(%rbp)
   155a9:	00 00 00 
   155ac:	c7 85 b8 f6 ff ff 03 	movl   $0x3,-0x948(%rbp)
   155b3:	00 00 00 
   155b6:	c7 85 bc f6 ff ff 03 	movl   $0x3,-0x944(%rbp)
   155bd:	00 00 00 
   155c0:	c7 85 c0 f6 ff ff 03 	movl   $0x3,-0x940(%rbp)
   155c7:	00 00 00 
   155ca:	c7 85 c4 f6 ff ff 03 	movl   $0x3,-0x93c(%rbp)
   155d1:	00 00 00 
   155d4:	48 8d 85 b0 f5 ff ff 	lea    -0xa50(%rbp),%rax
   155db:	48 89 85 60 f6 ff ff 	mov    %rax,-0x9a0(%rbp)
   155e2:	48 8d 05 df ac 00 00 	lea    0xacdf(%rip),%rax        # 202c8 <g_320>
   155e9:	48 89 85 68 f6 ff ff 	mov    %rax,-0x998(%rbp)
   155f0:	48 c7 85 b8 f5 ff ff 	movq   $0x0,-0xa48(%rbp)
   155f7:	00 00 00 00 
   155fb:	48 8d 85 60 fb ff ff 	lea    -0x4a0(%rbp),%rax
   15602:	48 8d 15 f7 de 00 00 	lea    0xdef7(%rip),%rdx        # 23500 <g_2982+0x1570>
   15609:	b9 8c 00 00 00       	mov    $0x8c,%ecx
   1560e:	48 89 c7             	mov    %rax,%rdi
   15611:	48 89 d6             	mov    %rdx,%rsi
   15614:	f3 48 a5             	rep movsq %ds:(%rsi),%es:(%rdi)
   15617:	48 8b 05 72 ed 00 00 	mov    0xed72(%rip),%rax        # 24390 <g_235>
   1561e:	48 8b 15 6b ed 00 00 	mov    0xed6b(%rip),%rdx        # 24390 <g_235>
   15625:	8b 00                	mov    (%rax),%eax
   15627:	89 02                	mov    %eax,(%rdx)
   15629:	48 8b 05 10 ed 00 00 	mov    0xed10(%rip),%rax        # 24340 <g_106>
   15630:	8b 12                	mov    (%rdx),%edx
   15632:	89 10                	mov    %edx,(%rax)
   15634:	8b 00                	mov    (%rax),%eax
   15636:	85 c0                	test   %eax,%eax
   15638:	0f 84 95 00 00 00    	je     156d3 <func_27+0x3ec>
   1563e:	c7 85 90 f5 ff ff fa 	movl   $0xfffffffa,-0xa70(%rbp)
   15645:	ff ff ff 
   15648:	c7 85 94 f5 ff ff c4 	movl   $0x75fd88c4,-0xa6c(%rbp)
   1564f:	88 fd 75 
   15652:	0f b7 85 de f4 ff ff 	movzwl -0xb22(%rbp),%eax
   15659:	83 e8 01             	sub    $0x1,%eax
   1565c:	66 89 85 de f4 ff ff 	mov    %ax,-0xb22(%rbp)
   15663:	48 8b 05 4e ed 00 00 	mov    0xed4e(%rip),%rax        # 243b8 <g_258>
   1566a:	48 8b 15 0f 07 01 00 	mov    0x1070f(%rip),%rdx        # 25d80 <g_256>
   15671:	48 89 10             	mov    %rdx,(%rax)
   15674:	48 8b 05 cd ec 00 00 	mov    0xeccd(%rip),%rax        # 24348 <g_123>
   1567b:	48 8b 08             	mov    (%rax),%rcx
   1567e:	8b 95 bc f4 ff ff    	mov    -0xb44(%rbp),%edx
   15684:	48 8b 05 bd ec 00 00 	mov    0xecbd(%rip),%rax        # 24348 <g_123>
   1568b:	48 21 ca             	and    %rcx,%rdx
   1568e:	48 89 10             	mov    %rdx,(%rax)
   15691:	48 8b 00             	mov    (%rax),%rax
   15694:	89 c3                	mov    %eax,%ebx
   15696:	48 8b 85 b0 f5 ff ff 	mov    -0xa50(%rbp),%rax
   1569d:	0f b6 d0             	movzbl %al,%edx
   156a0:	8b 85 80 f5 ff ff    	mov    -0xa80(%rbp),%eax
   156a6:	0f b6 c0             	movzbl %al,%eax
   156a9:	89 d6                	mov    %edx,%esi
   156ab:	89 c7                	mov    %eax,%edi
   156ad:	e8 e1 44 ff ff       	callq  9b93 <safe_mul_func_uint8_t_u_u>
   156b2:	0f b6 c0             	movzbl %al,%eax
   156b5:	21 d8                	and    %ebx,%eax
   156b7:	89 85 e0 f4 ff ff    	mov    %eax,-0xb20(%rbp)
   156bd:	0f b7 05 e4 ab 00 00 	movzwl 0xabe4(%rip),%eax        # 202a8 <g_265+0x28>
   156c4:	83 e8 01             	sub    $0x1,%eax
   156c7:	66 89 05 da ab 00 00 	mov    %ax,0xabda(%rip)        # 202a8 <g_265+0x28>
   156ce:	e9 ad 01 00 00       	jmpq   15880 <func_27+0x599>
   156d3:	48 8d 05 e9 ab 00 00 	lea    0xabe9(%rip),%rax        # 202c3 <g_284+0x3>
   156da:	48 89 85 70 f6 ff ff 	mov    %rax,-0x990(%rbp)
   156e1:	c7 85 8c f5 ff ff 07 	movl   $0x7,-0xa74(%rbp)
   156e8:	00 00 00 
   156eb:	48 c7 85 c0 f5 ff ff 	movq   $0x0,-0xa40(%rbp)
   156f2:	00 00 00 00 
   156f6:	48 8d 85 c0 f5 ff ff 	lea    -0xa40(%rbp),%rax
   156fd:	48 89 85 78 f6 ff ff 	mov    %rax,-0x988(%rbp)
   15704:	48 c7 85 80 f6 ff ff 	movq   $0x0,-0x980(%rbp)
   1570b:	00 00 00 00 
   1570f:	48 8d 05 92 ed 00 00 	lea    0xed92(%rip),%rax        # 244a8 <g_292+0xc8>
   15716:	48 89 85 88 f6 ff ff 	mov    %rax,-0x978(%rbp)
   1571d:	0f bf 95 b8 f4 ff ff 	movswl -0xb48(%rbp),%edx
   15724:	8b 05 2a ab 00 00    	mov    0xab2a(%rip),%eax        # 20254 <g_146>
   1572a:	39 c2                	cmp    %eax,%edx
   1572c:	0f 9d c0             	setge  %al
   1572f:	0f b6 c0             	movzbl %al,%eax
   15732:	be 05 00 00 00       	mov    $0x5,%esi
   15737:	89 c7                	mov    %eax,%edi
   15739:	e8 3c 47 ff ff       	callq  9e7a <safe_rshift_func_uint16_t_u_u>
   1573e:	8b 85 f0 f4 ff ff    	mov    -0xb10(%rbp),%eax
   15744:	0f bf d8             	movswl %ax,%ebx
   15747:	8b 85 bc f4 ff ff    	mov    -0xb44(%rbp),%eax
   1574d:	83 c8 01             	or     $0x1,%eax
   15750:	41 89 c6             	mov    %eax,%r14d
   15753:	8b 85 84 f5 ff ff    	mov    -0xa7c(%rbp),%eax
   15759:	44 0f bf e0          	movswl %ax,%r12d
   1575d:	8b 85 bc f4 ff ff    	mov    -0xb44(%rbp),%eax
   15763:	44 0f b7 e8          	movzwl %ax,%r13d
   15767:	8b 05 d7 a8 00 00    	mov    0xa8d7(%rip),%eax        # 20044 <g_101>
   1576d:	3d d7 35 00 00       	cmp    $0x35d7,%eax
   15772:	0f 96 c0             	setbe  %al
   15775:	0f b6 c0             	movzbl %al,%eax
   15778:	be 0f 00 00 00       	mov    $0xf,%esi
   1577d:	89 c7                	mov    %eax,%edi
   1577f:	e8 f6 46 ff ff       	callq  9e7a <safe_rshift_func_uint16_t_u_u>
   15784:	0f b7 d0             	movzwl %ax,%edx
   15787:	8b 85 b4 f6 ff ff    	mov    -0x94c(%rbp),%eax
   1578d:	39 c2                	cmp    %eax,%edx
   1578f:	0f 9f c0             	setg   %al
   15792:	0f b6 c0             	movzbl %al,%eax
   15795:	44 89 ee             	mov    %r13d,%esi
   15798:	89 c7                	mov    %eax,%edi
   1579a:	e8 ef 45 ff ff       	callq  9d8e <safe_div_func_uint16_t_u_u>
   1579f:	be 04 00 00 00       	mov    $0x4,%esi
   157a4:	bf c6 90 00 65       	mov    $0x650090c6,%edi
   157a9:	e8 77 47 ff ff       	callq  9f25 <safe_div_func_uint32_t_u_u>
   157ae:	48 8b 05 9b eb 00 00 	mov    0xeb9b(%rip),%rax        # 24350 <g_179>
   157b5:	0f b6 00             	movzbl (%rax),%eax
   157b8:	3c 01                	cmp    $0x1,%al
   157ba:	77 07                	ja     157c3 <func_27+0x4dc>
   157bc:	b8 f7 ff ff ff       	mov    $0xfffffff7,%eax
   157c1:	eb 05                	jmp    157c8 <func_27+0x4e1>
   157c3:	b8 f6 ff ff ff       	mov    $0xfffffff6,%eax
   157c8:	44 89 e6             	mov    %r12d,%esi
   157cb:	89 c7                	mov    %eax,%edi
   157cd:	e8 23 3c ff ff       	callq  93f5 <safe_mul_func_int16_t_s_s>
   157d2:	48 0f bf c0          	movswq %ax,%rax
   157d6:	49 39 c6             	cmp    %rax,%r14
   157d9:	0f 94 c0             	sete   %al
   157dc:	0f b6 c0             	movzbl %al,%eax
   157df:	39 85 bc f4 ff ff    	cmp    %eax,-0xb44(%rbp)
   157e5:	0f 92 c0             	setb   %al
   157e8:	0f b6 c0             	movzbl %al,%eax
   157eb:	89 de                	mov    %ebx,%esi
   157ed:	89 c7                	mov    %eax,%edi
   157ef:	e8 61 3c ff ff       	callq  9455 <safe_div_func_int16_t_s_s>
   157f4:	8b 95 bc f4 ff ff    	mov    -0xb44(%rbp),%edx
   157fa:	48 8b 85 70 f6 ff ff 	mov    -0x990(%rbp),%rax
   15801:	0f b6 00             	movzbl (%rax),%eax
   15804:	31 c2                	xor    %eax,%edx
   15806:	48 8b 85 70 f6 ff ff 	mov    -0x990(%rbp),%rax
   1580d:	88 10                	mov    %dl,(%rax)
   1580f:	48 8b 85 70 f6 ff ff 	mov    -0x990(%rbp),%rax
   15816:	0f b6 00             	movzbl (%rax),%eax
   15819:	0f b6 c0             	movzbl %al,%eax
   1581c:	39 85 bc f4 ff ff    	cmp    %eax,-0xb44(%rbp)
   15822:	0f 93 c0             	setae  %al
   15825:	0f b6 c0             	movzbl %al,%eax
   15828:	31 85 8c f5 ff ff    	xor    %eax,-0xa74(%rbp)
   1582e:	be 01 00 00 00       	mov    $0x1,%esi
   15833:	bf 41 17 00 00       	mov    $0x1741,%edi
   15838:	e8 b8 3b ff ff       	callq  93f5 <safe_mul_func_int16_t_s_s>
   1583d:	8b 85 bc f4 ff ff    	mov    -0xb44(%rbp),%eax
   15843:	89 c6                	mov    %eax,%esi
   15845:	bf 00 00 00 00       	mov    $0x0,%edi
   1584a:	e8 2b 46 ff ff       	callq  9e7a <safe_rshift_func_uint16_t_u_u>
   1584f:	0f b7 d0             	movzwl %ax,%edx
   15852:	48 8b 05 f7 ea 00 00 	mov    0xeaf7(%rip),%rax        # 24350 <g_179>
   15859:	0f b6 00             	movzbl (%rax),%eax
   1585c:	0f b6 c0             	movzbl %al,%eax
   1585f:	21 c2                	and    %eax,%edx
   15861:	8b 85 c4 f6 ff ff    	mov    -0x93c(%rbp),%eax
   15867:	09 d0                	or     %edx,%eax
   15869:	89 85 c4 f6 ff ff    	mov    %eax,-0x93c(%rbp)
   1586f:	48 8b 15 4a ec 00 00 	mov    0xec4a(%rip),%rdx        # 244c0 <g_292+0xe0>
   15876:	48 8b 85 88 f6 ff ff 	mov    -0x978(%rbp),%rax
   1587d:	48 89 10             	mov    %rdx,(%rax)
   15880:	48 c7 85 b0 f5 ff ff 	movq   $0x0,-0xa50(%rbp)
   15887:	00 00 00 00 
   1588b:	90                   	nop
   1588c:	48 8b 85 b0 f5 ff ff 	mov    -0xa50(%rbp),%rax
   15893:	48 83 f8 fc          	cmp    $0xfffffffffffffffc,%rax
   15897:	74 0b                	je     158a4 <func_27+0x5bd>
   15899:	8b 85 c0 f6 ff ff    	mov    -0x940(%rbp),%eax
   1589f:	e9 8d 18 00 00       	jmpq   17131 <func_27+0x1e4a>
   158a4:	0f bf 85 da f4 ff ff 	movswl -0xb26(%rbp),%eax
   158ab:	89 85 f0 f4 ff ff    	mov    %eax,-0xb10(%rbp)
   158b1:	8b 05 c1 04 01 00    	mov    0x104c1(%rip),%eax        # 25d78 <g_185>
   158b7:	85 c0                	test   %eax,%eax
   158b9:	0f 84 c8 00 00 00    	je     15987 <func_27+0x6a0>
   158bf:	0f be 9d d1 f4 ff ff 	movsbl -0xb2f(%rbp),%ebx
   158c6:	0f b7 85 b8 f4 ff ff 	movzwl -0xb48(%rbp),%eax
   158cd:	0f b7 c0             	movzwl %ax,%eax
   158d0:	be df 49 00 00       	mov    $0x49df,%esi
   158d5:	89 c7                	mov    %eax,%edi
   158d7:	e8 80 44 ff ff       	callq  9d5c <safe_mod_func_uint16_t_u_u>
   158dc:	0f b7 c8             	movzwl %ax,%ecx
   158df:	0f b7 05 42 a7 00 00 	movzwl 0xa742(%rip),%eax        # 20028 <g_56>
   158e6:	98                   	cwtl   
   158e7:	39 85 bc f4 ff ff    	cmp    %eax,-0xb44(%rbp)
   158ed:	0f 95 c0             	setne  %al
   158f0:	0f b6 d0             	movzbl %al,%edx
   158f3:	48 8b 85 60 f6 ff ff 	mov    -0x9a0(%rbp),%rax
   158fa:	48 89 10             	mov    %rdx,(%rax)
   158fd:	48 8b 85 60 f6 ff ff 	mov    -0x9a0(%rbp),%rax
   15904:	48 8b 10             	mov    (%rax),%rdx
   15907:	48 8b 85 68 f6 ff ff 	mov    -0x998(%rbp),%rax
   1590e:	48 89 10             	mov    %rdx,(%rax)
   15911:	48 8b 85 68 f6 ff ff 	mov    -0x998(%rbp),%rax
   15918:	48 8b 00             	mov    (%rax),%rax
   1591b:	48 39 c1             	cmp    %rax,%rcx
   1591e:	0f 9e c0             	setle  %al
   15921:	0f b6 c0             	movzbl %al,%eax
   15924:	8b 15 3e a9 00 00    	mov    0xa93e(%rip),%edx        # 20268 <g_209>
   1592a:	09 d0                	or     %edx,%eax
   1592c:	0f b7 d0             	movzwl %ax,%edx
   1592f:	48 8b 05 8a ea 00 00 	mov    0xea8a(%rip),%rax        # 243c0 <g_293>
   15936:	0f b7 00             	movzwl (%rax),%eax
   15939:	0f b7 c0             	movzwl %ax,%eax
   1593c:	89 d6                	mov    %edx,%esi
   1593e:	89 c7                	mov    %eax,%edi
   15940:	e8 49 44 ff ff       	callq  9d8e <safe_div_func_uint16_t_u_u>
   15945:	0f b7 c0             	movzwl %ax,%eax
   15948:	89 c6                	mov    %eax,%esi
   1594a:	bf c7 2a 89 cf       	mov    $0xcf892ac7,%edi
   1594f:	e8 b1 3c ff ff       	callq  9605 <safe_sub_func_int32_t_s_s>
   15954:	48 98                	cltq   
   15956:	48 c7 c6 fd ff ff ff 	mov    $0xfffffffffffffffd,%rsi
   1595d:	48 89 c7             	mov    %rax,%rdi
   15960:	e8 4f 40 ff ff       	callq  99b4 <safe_mod_func_int64_t_s_s>
   15965:	09 d8                	or     %ebx,%eax
   15967:	89 c6                	mov    %eax,%esi
   15969:	bf ae a0 99 ab       	mov    $0xab99a0ae,%edi
   1596e:	e8 8a 45 ff ff       	callq  9efd <safe_mod_func_uint32_t_u_u>
   15973:	0f be 95 d1 f4 ff ff 	movsbl -0xb2f(%rbp),%edx
   1597a:	21 d0                	and    %edx,%eax
   1597c:	85 c0                	test   %eax,%eax
   1597e:	74 07                	je     15987 <func_27+0x6a0>
   15980:	b8 01 00 00 00       	mov    $0x1,%eax
   15985:	eb 05                	jmp    1598c <func_27+0x6a5>
   15987:	b8 00 00 00 00       	mov    $0x0,%eax
   1598c:	98                   	cwtl   
   1598d:	be 2f b2 ff ff       	mov    $0xffffb22f,%esi
   15992:	89 c7                	mov    %eax,%edi
   15994:	e8 5c 3a ff ff       	callq  93f5 <safe_mul_func_int16_t_s_s>
   15999:	be ff ff 00 00       	mov    $0xffff,%esi
   1599e:	bf 01 00 00 00       	mov    $0x1,%edi
   159a3:	e8 77 43 ff ff       	callq  9d1f <safe_sub_func_uint16_t_u_u>
   159a8:	66 85 c0             	test   %ax,%ax
   159ab:	74 4b                	je     159f8 <func_27+0x711>
   159ad:	48 8d 85 b8 f5 ff ff 	lea    -0xa48(%rbp),%rax
   159b4:	48 89 85 90 f6 ff ff 	mov    %rax,-0x970(%rbp)
   159bb:	48 8b 05 7e e9 00 00 	mov    0xe97e(%rip),%rax        # 24340 <g_106>
   159c2:	8b 10                	mov    (%rax),%edx
   159c4:	23 95 bc f4 ff ff    	and    -0xb44(%rbp),%edx
   159ca:	89 10                	mov    %edx,(%rax)
   159cc:	8b 00                	mov    (%rax),%eax
   159ce:	89 85 c0 f6 ff ff    	mov    %eax,-0x940(%rbp)
   159d4:	48 8b 95 b8 f5 ff ff 	mov    -0xa48(%rbp),%rdx
   159db:	48 8b 85 90 f6 ff ff 	mov    -0x970(%rbp),%rax
   159e2:	48 89 10             	mov    %rdx,(%rax)
   159e5:	8b 05 69 a8 00 00    	mov    0xa869(%rip),%eax        # 20254 <g_146>
   159eb:	85 c0                	test   %eax,%eax
   159ed:	0f 84 0d 04 00 00    	je     15e00 <func_27+0xb19>
   159f3:	e9 46 fa ff ff       	jmpq   1543e <func_27+0x157>
   159f8:	48 c7 85 70 f7 ff ff 	movq   $0x0,-0x890(%rbp)
   159ff:	00 00 00 00 
   15a03:	48 c7 85 78 f7 ff ff 	movq   $0x0,-0x888(%rbp)
   15a0a:	00 00 00 00 
   15a0e:	48 c7 85 80 f7 ff ff 	movq   $0x0,-0x880(%rbp)
   15a15:	00 00 00 00 
   15a19:	48 c7 85 88 f7 ff ff 	movq   $0x0,-0x878(%rbp)
   15a20:	00 00 00 00 
   15a24:	48 c7 85 90 f7 ff ff 	movq   $0x0,-0x870(%rbp)
   15a2b:	00 00 00 00 
   15a2f:	48 c7 85 98 f7 ff ff 	movq   $0x0,-0x868(%rbp)
   15a36:	00 00 00 00 
   15a3a:	48 c7 85 10 f8 ff ff 	movq   $0x0,-0x7f0(%rbp)
   15a41:	00 00 00 00 
   15a45:	48 c7 85 18 f8 ff ff 	movq   $0x0,-0x7e8(%rbp)
   15a4c:	00 00 00 00 
   15a50:	48 8d 85 70 f7 ff ff 	lea    -0x890(%rbp),%rax
   15a57:	48 83 c0 08          	add    $0x8,%rax
   15a5b:	48 89 85 20 f8 ff ff 	mov    %rax,-0x7e0(%rbp)
   15a62:	48 8d 85 70 f7 ff ff 	lea    -0x890(%rbp),%rax
   15a69:	48 83 c0 18          	add    $0x18,%rax
   15a6d:	48 89 85 28 f8 ff ff 	mov    %rax,-0x7d8(%rbp)
   15a74:	48 c7 85 30 f8 ff ff 	movq   $0x0,-0x7d0(%rbp)
   15a7b:	00 00 00 00 
   15a7f:	48 8d 85 70 f7 ff ff 	lea    -0x890(%rbp),%rax
   15a86:	48 83 c0 28          	add    $0x28,%rax
   15a8a:	48 89 85 38 f8 ff ff 	mov    %rax,-0x7c8(%rbp)
   15a91:	48 c7 85 40 f8 ff ff 	movq   $0x0,-0x7c0(%rbp)
   15a98:	00 00 00 00 
   15a9c:	48 8d 85 70 f7 ff ff 	lea    -0x890(%rbp),%rax
   15aa3:	48 83 c0 28          	add    $0x28,%rax
   15aa7:	48 89 85 48 f8 ff ff 	mov    %rax,-0x7b8(%rbp)
   15aae:	48 8d 85 70 f7 ff ff 	lea    -0x890(%rbp),%rax
   15ab5:	48 83 c0 18          	add    $0x18,%rax
   15ab9:	48 89 85 50 f8 ff ff 	mov    %rax,-0x7b0(%rbp)
   15ac0:	48 8d 85 70 f7 ff ff 	lea    -0x890(%rbp),%rax
   15ac7:	48 83 c0 18          	add    $0x18,%rax
   15acb:	48 89 85 58 f8 ff ff 	mov    %rax,-0x7a8(%rbp)
   15ad2:	48 8d 85 70 f7 ff ff 	lea    -0x890(%rbp),%rax
   15ad9:	48 83 c0 18          	add    $0x18,%rax
   15add:	48 89 85 60 f8 ff ff 	mov    %rax,-0x7a0(%rbp)
   15ae4:	48 8d 85 70 f7 ff ff 	lea    -0x890(%rbp),%rax
   15aeb:	48 83 c0 18          	add    $0x18,%rax
   15aef:	48 89 85 68 f8 ff ff 	mov    %rax,-0x798(%rbp)
   15af6:	48 8d 85 70 f7 ff ff 	lea    -0x890(%rbp),%rax
   15afd:	48 83 c0 18          	add    $0x18,%rax
   15b01:	48 89 85 70 f8 ff ff 	mov    %rax,-0x790(%rbp)
   15b08:	48 8d 85 70 f7 ff ff 	lea    -0x890(%rbp),%rax
   15b0f:	48 83 c0 28          	add    $0x28,%rax
   15b13:	48 89 85 78 f8 ff ff 	mov    %rax,-0x788(%rbp)
   15b1a:	48 c7 85 80 f8 ff ff 	movq   $0x0,-0x780(%rbp)
   15b21:	00 00 00 00 
   15b25:	48 8d 85 70 f7 ff ff 	lea    -0x890(%rbp),%rax
   15b2c:	48 83 c0 28          	add    $0x28,%rax
   15b30:	48 89 85 88 f8 ff ff 	mov    %rax,-0x778(%rbp)
   15b37:	48 c7 85 90 f8 ff ff 	movq   $0x0,-0x770(%rbp)
   15b3e:	00 00 00 00 
   15b42:	48 8d 85 70 f7 ff ff 	lea    -0x890(%rbp),%rax
   15b49:	48 83 c0 18          	add    $0x18,%rax
   15b4d:	48 89 85 98 f8 ff ff 	mov    %rax,-0x768(%rbp)
   15b54:	48 8d 85 70 f7 ff ff 	lea    -0x890(%rbp),%rax
   15b5b:	48 83 c0 08          	add    $0x8,%rax
   15b5f:	48 89 85 a0 f8 ff ff 	mov    %rax,-0x760(%rbp)
   15b66:	48 c7 85 a8 f8 ff ff 	movq   $0x0,-0x758(%rbp)
   15b6d:	00 00 00 00 
   15b71:	48 c7 85 b0 f8 ff ff 	movq   $0x0,-0x750(%rbp)
   15b78:	00 00 00 00 
   15b7c:	48 8d 85 70 f7 ff ff 	lea    -0x890(%rbp),%rax
   15b83:	48 83 c0 18          	add    $0x18,%rax
   15b87:	48 89 85 b8 f8 ff ff 	mov    %rax,-0x748(%rbp)
   15b8e:	48 c7 85 c0 f8 ff ff 	movq   $0x0,-0x740(%rbp)
   15b95:	00 00 00 00 
   15b99:	48 c7 85 c8 f8 ff ff 	movq   $0x0,-0x738(%rbp)
   15ba0:	00 00 00 00 
   15ba4:	48 8d 85 70 f7 ff ff 	lea    -0x890(%rbp),%rax
   15bab:	48 83 c0 08          	add    $0x8,%rax
   15baf:	48 89 85 d0 f8 ff ff 	mov    %rax,-0x730(%rbp)
   15bb6:	48 8d 85 70 f7 ff ff 	lea    -0x890(%rbp),%rax
   15bbd:	48 83 c0 18          	add    $0x18,%rax
   15bc1:	48 89 85 d8 f8 ff ff 	mov    %rax,-0x728(%rbp)
   15bc8:	48 c7 85 e0 f8 ff ff 	movq   $0x0,-0x720(%rbp)
   15bcf:	00 00 00 00 
   15bd3:	48 8d 85 70 f7 ff ff 	lea    -0x890(%rbp),%rax
   15bda:	48 83 c0 28          	add    $0x28,%rax
   15bde:	48 89 85 e8 f8 ff ff 	mov    %rax,-0x718(%rbp)
   15be5:	48 c7 85 f0 f8 ff ff 	movq   $0x0,-0x710(%rbp)
   15bec:	00 00 00 00 
   15bf0:	48 8d 85 70 f7 ff ff 	lea    -0x890(%rbp),%rax
   15bf7:	48 83 c0 28          	add    $0x28,%rax
   15bfb:	48 89 85 f8 f8 ff ff 	mov    %rax,-0x708(%rbp)
   15c02:	48 8d 85 70 f7 ff ff 	lea    -0x890(%rbp),%rax
   15c09:	48 83 c0 18          	add    $0x18,%rax
   15c0d:	48 89 85 00 f9 ff ff 	mov    %rax,-0x700(%rbp)
   15c14:	48 8d 85 70 f7 ff ff 	lea    -0x890(%rbp),%rax
   15c1b:	48 83 c0 18          	add    $0x18,%rax
   15c1f:	48 89 85 08 f9 ff ff 	mov    %rax,-0x6f8(%rbp)
   15c26:	48 8d 85 70 f7 ff ff 	lea    -0x890(%rbp),%rax
   15c2d:	48 83 c0 18          	add    $0x18,%rax
   15c31:	48 89 85 10 f9 ff ff 	mov    %rax,-0x6f0(%rbp)
   15c38:	48 8d 85 70 f7 ff ff 	lea    -0x890(%rbp),%rax
   15c3f:	48 83 c0 18          	add    $0x18,%rax
   15c43:	48 89 85 18 f9 ff ff 	mov    %rax,-0x6e8(%rbp)
   15c4a:	48 8d 85 70 f7 ff ff 	lea    -0x890(%rbp),%rax
   15c51:	48 83 c0 18          	add    $0x18,%rax
   15c55:	48 89 85 20 f9 ff ff 	mov    %rax,-0x6e0(%rbp)
   15c5c:	48 8d 85 70 f7 ff ff 	lea    -0x890(%rbp),%rax
   15c63:	48 83 c0 28          	add    $0x28,%rax
   15c67:	48 89 85 28 f9 ff ff 	mov    %rax,-0x6d8(%rbp)
   15c6e:	c7 85 fc f4 ff ff 00 	movl   $0x0,-0xb04(%rbp)
   15c75:	00 00 00 
   15c78:	eb 1e                	jmp    15c98 <func_27+0x9b1>
   15c7a:	8b 85 fc f4 ff ff    	mov    -0xb04(%rbp),%eax
   15c80:	48 98                	cltq   
   15c82:	48 8d 15 3a a6 00 00 	lea    0xa63a(%rip),%rdx        # 202c3 <g_284+0x3>
   15c89:	48 89 94 c5 d0 f6 ff 	mov    %rdx,-0x930(%rbp,%rax,8)
   15c90:	ff 
   15c91:	83 85 fc f4 ff ff 01 	addl   $0x1,-0xb04(%rbp)
   15c98:	83 bd fc f4 ff ff 02 	cmpl   $0x2,-0xb04(%rbp)
   15c9f:	7e d9                	jle    15c7a <func_27+0x993>
   15ca1:	48 8b 85 38 fd ff ff 	mov    -0x2c8(%rbp),%rax
   15ca8:	48 8b 95 98 f5 ff ff 	mov    -0xa68(%rbp),%rdx
   15caf:	48 89 95 58 f6 ff ff 	mov    %rdx,-0x9a8(%rbp)
   15cb6:	48 39 85 58 f6 ff ff 	cmp    %rax,-0x9a8(%rbp)
   15cbd:	0f 95 c0             	setne  %al
   15cc0:	0f b6 c0             	movzbl %al,%eax
   15cc3:	89 85 f0 f4 ff ff    	mov    %eax,-0xb10(%rbp)
   15cc9:	8b 85 30 f7 ff ff    	mov    -0x8d0(%rbp),%eax
   15ccf:	0f b6 d8             	movzbl %al,%ebx
   15cd2:	be 05 00 00 00       	mov    $0x5,%esi
   15cd7:	bf e8 00 00 00       	mov    $0xe8,%edi
   15cdc:	e8 24 3f ff ff       	callq  9c05 <safe_lshift_func_uint8_t_u_s>
   15ce1:	44 0f b6 e0          	movzbl %al,%r12d
   15ce5:	8b 95 e0 f4 ff ff    	mov    -0xb20(%rbp),%edx
   15ceb:	8b 85 84 f5 ff ff    	mov    -0xa7c(%rbp),%eax
   15cf1:	89 d6                	mov    %edx,%esi
   15cf3:	89 c7                	mov    %eax,%edi
   15cf5:	e8 d2 39 ff ff       	callq  96cc <safe_mod_func_int32_t_s_s>
   15cfa:	98                   	cwtl   
   15cfb:	44 89 e6             	mov    %r12d,%esi
   15cfe:	89 c7                	mov    %eax,%edi
   15d00:	e8 ae 36 ff ff       	callq  93b3 <safe_add_func_int16_t_s_s>
   15d05:	44 0f bf e0          	movswl %ax,%r12d
   15d09:	48 8b 85 98 f7 ff ff 	mov    -0x868(%rbp),%rax
   15d10:	48 89 05 59 e8 00 00 	mov    %rax,0xe859(%rip)        # 24570 <g_346>
   15d17:	48 8b 15 52 e8 00 00 	mov    0xe852(%rip),%rdx        # 24570 <g_346>
   15d1e:	48 8d 85 d2 f4 ff ff 	lea    -0xb2e(%rbp),%rax
   15d25:	48 39 c2             	cmp    %rax,%rdx
   15d28:	0f 95 c0             	setne  %al
   15d2b:	0f b6 c0             	movzbl %al,%eax
   15d2e:	89 85 88 f5 ff ff    	mov    %eax,-0xa78(%rbp)
   15d34:	48 8b 05 15 e6 00 00 	mov    0xe615(%rip),%rax        # 24350 <g_179>
   15d3b:	0f b6 00             	movzbl (%rax),%eax
   15d3e:	0f b6 c0             	movzbl %al,%eax
   15d41:	39 85 88 f5 ff ff    	cmp    %eax,-0xa78(%rbp)
   15d47:	0f 9f c0             	setg   %al
   15d4a:	0f b6 c0             	movzbl %al,%eax
   15d4d:	8b 95 bc f4 ff ff    	mov    -0xb44(%rbp),%edx
   15d53:	89 d6                	mov    %edx,%esi
   15d55:	89 c7                	mov    %eax,%edi
   15d57:	e8 c9 41 ff ff       	callq  9f25 <safe_div_func_uint32_t_u_u>
   15d5c:	3d f8 00 00 00       	cmp    $0xf8,%eax
   15d61:	0f 96 c0             	setbe  %al
   15d64:	0f b6 c0             	movzbl %al,%eax
   15d67:	41 39 c4             	cmp    %eax,%r12d
   15d6a:	7d 0a                	jge    15d76 <func_27+0xa8f>
   15d6c:	66 83 bd dc f4 ff ff 	cmpw   $0x0,-0xb24(%rbp)
   15d73:	00 
   15d74:	74 07                	je     15d7d <func_27+0xa96>
   15d76:	b8 01 00 00 00       	mov    $0x1,%eax
   15d7b:	eb 05                	jmp    15d82 <func_27+0xa9b>
   15d7d:	b8 00 00 00 00       	mov    $0x0,%eax
   15d82:	0f b6 c0             	movzbl %al,%eax
   15d85:	be 05 00 00 00       	mov    $0x5,%esi
   15d8a:	89 c7                	mov    %eax,%edi
   15d8c:	e8 fc 3e ff ff       	callq  9c8d <safe_rshift_func_uint8_t_u_s>
   15d91:	0f b6 c0             	movzbl %al,%eax
   15d94:	89 de                	mov    %ebx,%esi
   15d96:	89 c7                	mov    %eax,%edi
   15d98:	e8 3e 3e ff ff       	callq  9bdb <safe_div_func_uint8_t_u_u>
   15d9d:	0f b6 d0             	movzbl %al,%edx
   15da0:	8b 05 ca a4 00 00    	mov    0xa4ca(%rip),%eax        # 20270 <g_220>
   15da6:	21 c2                	and    %eax,%edx
   15da8:	8b 85 7c f5 ff ff    	mov    -0xa84(%rbp),%eax
   15dae:	09 d0                	or     %edx,%eax
   15db0:	89 85 7c f5 ff ff    	mov    %eax,-0xa84(%rbp)
   15db6:	81 bd 7c f5 ff ff 20 	cmpl   $0x6120,-0xa84(%rbp)
   15dbd:	61 00 00 
   15dc0:	0f 95 c0             	setne  %al
   15dc3:	0f b6 c0             	movzbl %al,%eax
   15dc6:	be 02 00 00 00       	mov    $0x2,%esi
   15dcb:	48 89 c7             	mov    %rax,%rdi
   15dce:	e8 dc 42 ff ff       	callq  a0af <safe_div_func_uint64_t_u_u>
   15dd3:	8b 95 bc f4 ff ff    	mov    -0xb44(%rbp),%edx
   15dd9:	48 39 d0             	cmp    %rdx,%rax
   15ddc:	0f 95 c0             	setne  %al
   15ddf:	0f b6 c0             	movzbl %al,%eax
   15de2:	39 85 f0 f4 ff ff    	cmp    %eax,-0xb10(%rbp)
   15de8:	0f 9e c0             	setle  %al
   15deb:	0f b6 c0             	movzbl %al,%eax
   15dee:	89 85 84 f5 ff ff    	mov    %eax,-0xa7c(%rbp)
   15df4:	0f b7 85 b8 f4 ff ff 	movzwl -0xb48(%rbp),%eax
   15dfb:	e9 31 13 00 00       	jmpq   17131 <func_27+0x1e4a>
   15e00:	8b 85 bc f4 ff ff    	mov    -0xb44(%rbp),%eax
   15e06:	0f b6 c0             	movzbl %al,%eax
   15e09:	be 07 00 00 00       	mov    $0x7,%esi
   15e0e:	89 c7                	mov    %eax,%edi
   15e10:	e8 45 3d ff ff       	callq  9b5a <safe_add_func_uint8_t_u_u>
   15e15:	0f b6 c0             	movzbl %al,%eax
   15e18:	89 85 bc f4 ff ff    	mov    %eax,-0xb44(%rbp)
   15e1e:	83 bd bc f4 ff ff 2e 	cmpl   $0x2e,-0xb44(%rbp)
   15e25:	0f 85 64 f7 ff ff    	jne    1558f <func_27+0x2a8>
   15e2b:	48 8b 05 2e a4 00 00 	mov    0xa42e(%rip),%rax        # 20260 <g_203>
   15e32:	be 05 00 00 00       	mov    $0x5,%esi
   15e37:	89 c7                	mov    %eax,%edi
   15e39:	e8 c7 37 ff ff       	callq  9605 <safe_sub_func_int32_t_s_s>
   15e3e:	48 98                	cltq   
   15e40:	48 89 05 19 a4 00 00 	mov    %rax,0xa419(%rip)        # 20260 <g_203>
   15e47:	48 8b 05 12 a4 00 00 	mov    0xa412(%rip),%rax        # 20260 <g_203>
   15e4e:	48 83 f8 ed          	cmp    $0xffffffffffffffed,%rax
   15e52:	0f 85 f3 f6 ff ff    	jne    1554b <func_27+0x264>
   15e58:	8b 05 16 ff 00 00    	mov    0xff16(%rip),%eax        # 25d74 <g_49>
   15e5e:	83 c0 01             	add    $0x1,%eax
   15e61:	89 05 0d ff 00 00    	mov    %eax,0xff0d(%rip)        # 25d74 <g_49>
   15e67:	8b 05 07 ff 00 00    	mov    0xff07(%rip),%eax        # 25d74 <g_49>
   15e6d:	83 f8 30             	cmp    $0x30,%eax
   15e70:	0f 86 14 f6 ff ff    	jbe    1548a <func_27+0x1a3>
   15e76:	0f b6 05 d3 a3 00 00 	movzbl 0xa3d3(%rip),%eax        # 20250 <g_141>
   15e7d:	83 c0 01             	add    $0x1,%eax
   15e80:	88 05 ca a3 00 00    	mov    %al,0xa3ca(%rip)        # 20250 <g_141>
   15e86:	0f b6 05 c3 a3 00 00 	movzbl 0xa3c3(%rip),%eax        # 20250 <g_141>
   15e8d:	3c 2e                	cmp    $0x2e,%al
   15e8f:	0f 85 b5 f5 ff ff    	jne    1544a <func_27+0x163>
   15e95:	8b 85 e4 f4 ff ff    	mov    -0xb1c(%rbp),%eax
   15e9b:	83 c0 01             	add    $0x1,%eax
   15e9e:	89 85 e4 f4 ff ff    	mov    %eax,-0xb1c(%rbp)
   15ea4:	66 c7 85 b8 f4 ff ff 	movw   $0x0,-0xb48(%rbp)
   15eab:	00 00 
   15ead:	e9 57 12 00 00       	jmpq   17109 <func_27+0x1e22>
   15eb2:	c7 85 e8 f4 ff ff b1 	movl   $0x4c0dbbb1,-0xb18(%rbp)
   15eb9:	bb 0d 4c 
   15ebc:	48 b8 04 06 54 66 b2 	movabs $0xbbfaf3b266540604,%rax
   15ec3:	f3 fa bb 
   15ec6:	48 89 85 a8 f5 ff ff 	mov    %rax,-0xa58(%rbp)
   15ecd:	48 8d 05 94 fe 00 00 	lea    0xfe94(%rip),%rax        # 25d68 <g_21>
   15ed4:	48 89 85 f0 f5 ff ff 	mov    %rax,-0xa10(%rbp)
   15edb:	c7 85 18 f5 ff ff 01 	movl   $0x1,-0xae8(%rbp)
   15ee2:	00 00 00 
   15ee5:	c7 85 1c f5 ff ff 1a 	movl   $0x73b39e1a,-0xae4(%rbp)
   15eec:	9e b3 73 
   15eef:	48 b8 03 4c f6 aa f3 	movabs $0xceb913f3aaf64c03,%rax
   15ef6:	13 b9 ce 
   15ef9:	48 89 85 f8 f5 ff ff 	mov    %rax,-0xa08(%rbp)
   15f00:	c7 85 20 f5 ff ff 8b 	movl   $0x4fbe7c8b,-0xae0(%rbp)
   15f07:	7c be 4f 
   15f0a:	c7 85 24 f5 ff ff 00 	movl   $0x0,-0xadc(%rbp)
   15f11:	00 00 00 
   15f14:	c7 85 28 f5 ff ff fd 	movl   $0xfffffffd,-0xad8(%rbp)
   15f1b:	ff ff ff 
   15f1e:	c7 85 2c f5 ff ff 4a 	movl   $0xe6d2e04a,-0xad4(%rbp)
   15f25:	e0 d2 e6 
   15f28:	c7 85 30 f5 ff ff ff 	movl   $0xffffffff,-0xad0(%rbp)
   15f2f:	ff ff ff 
   15f32:	c7 85 34 f5 ff ff 3c 	movl   $0xec4c073c,-0xacc(%rbp)
   15f39:	07 4c ec 
   15f3c:	c7 85 38 f5 ff ff fa 	movl   $0xfffffffa,-0xac8(%rbp)
   15f43:	ff ff ff 
   15f46:	c7 85 3c f5 ff ff fa 	movl   $0xfffffffa,-0xac4(%rbp)
   15f4d:	ff ff ff 
   15f50:	c7 85 40 f5 ff ff 02 	movl   $0x2,-0xac0(%rbp)
   15f57:	00 00 00 
   15f5a:	c7 85 b0 f7 ff ff ff 	movl   $0xffffffff,-0x850(%rbp)
   15f61:	ff ff ff 
   15f64:	c7 85 b4 f7 ff ff c0 	movl   $0x6d8e6dc0,-0x84c(%rbp)
   15f6b:	6d 8e 6d 
   15f6e:	c7 85 b8 f7 ff ff 01 	movl   $0x1,-0x848(%rbp)
   15f75:	00 00 00 
   15f78:	c7 85 bc f7 ff ff 01 	movl   $0x1,-0x844(%rbp)
   15f7f:	00 00 00 
   15f82:	c7 85 c0 f7 ff ff c0 	movl   $0x6d8e6dc0,-0x840(%rbp)
   15f89:	6d 8e 6d 
   15f8c:	c7 85 c4 f7 ff ff ff 	movl   $0xffffffff,-0x83c(%rbp)
   15f93:	ff ff ff 
   15f96:	c7 85 c8 f7 ff ff 2f 	movl   $0x6e6cfa2f,-0x838(%rbp)
   15f9d:	fa 6c 6e 
   15fa0:	c7 85 cc f7 ff ff ff 	movl   $0xffffffff,-0x834(%rbp)
   15fa7:	ff ff ff 
   15faa:	c7 85 d0 f7 ff ff c0 	movl   $0x6d8e6dc0,-0x830(%rbp)
   15fb1:	6d 8e 6d 
   15fb4:	c7 85 d4 f7 ff ff 01 	movl   $0x1,-0x82c(%rbp)
   15fbb:	00 00 00 
   15fbe:	c7 85 d8 f7 ff ff 01 	movl   $0x1,-0x828(%rbp)
   15fc5:	00 00 00 
   15fc8:	c7 85 dc f7 ff ff c0 	movl   $0x6d8e6dc0,-0x824(%rbp)
   15fcf:	6d 8e 6d 
   15fd2:	c7 85 e0 f7 ff ff ff 	movl   $0xffffffff,-0x820(%rbp)
   15fd9:	ff ff ff 
   15fdc:	c7 85 e4 f7 ff ff 2f 	movl   $0x6e6cfa2f,-0x81c(%rbp)
   15fe3:	fa 6c 6e 
   15fe6:	c7 85 e8 f7 ff ff ff 	movl   $0xffffffff,-0x818(%rbp)
   15fed:	ff ff ff 
   15ff0:	c7 85 ec f7 ff ff c0 	movl   $0x6d8e6dc0,-0x814(%rbp)
   15ff7:	6d 8e 6d 
   15ffa:	c7 85 f0 f7 ff ff 01 	movl   $0x1,-0x810(%rbp)
   16001:	00 00 00 
   16004:	c7 85 f4 f7 ff ff 01 	movl   $0x1,-0x80c(%rbp)
   1600b:	00 00 00 
   1600e:	c7 85 f8 f7 ff ff c0 	movl   $0x6d8e6dc0,-0x808(%rbp)
   16015:	6d 8e 6d 
   16018:	c7 85 fc f7 ff ff ff 	movl   $0xffffffff,-0x804(%rbp)
   1601f:	ff ff ff 
   16022:	c7 85 00 f8 ff ff 2f 	movl   $0x6e6cfa2f,-0x800(%rbp)
   16029:	fa 6c 6e 
   1602c:	48 c7 85 00 f6 ff ff 	movq   $0xfffffffffffffff7,-0xa00(%rbp)
   16033:	f7 ff ff ff 
   16037:	48 c7 05 1e a2 00 00 	movq   $0x0,0xa21e(%rip)        # 20260 <g_203>
   1603e:	00 00 00 00 
   16042:	eb 3d                	jmp    16081 <func_27+0xd9a>
   16044:	48 8b 85 c8 f5 ff ff 	mov    -0xa38(%rbp),%rax
   1604b:	8b 10                	mov    (%rax),%edx
   1604d:	0f bf 85 b8 f4 ff ff 	movswl -0xb48(%rbp),%eax
   16054:	48 98                	cltq   
   16056:	48 8d 0d 63 a2 00 00 	lea    0xa263(%rip),%rcx        # 202c0 <g_284>
   1605d:	0f b6 04 08          	movzbl (%rax,%rcx,1),%eax
   16061:	0f b6 c0             	movzbl %al,%eax
   16064:	21 c2                	and    %eax,%edx
   16066:	48 8b 85 c8 f5 ff ff 	mov    -0xa38(%rbp),%rax
   1606d:	89 10                	mov    %edx,(%rax)
   1606f:	48 8b 05 ea a1 00 00 	mov    0xa1ea(%rip),%rax        # 20260 <g_203>
   16076:	48 83 c0 01          	add    $0x1,%rax
   1607a:	48 89 05 df a1 00 00 	mov    %rax,0xa1df(%rip)        # 20260 <g_203>
   16081:	48 8b 05 d8 a1 00 00 	mov    0xa1d8(%rip),%rax        # 20260 <g_203>
   16088:	48 83 f8 05          	cmp    $0x5,%rax
   1608c:	7e b6                	jle    16044 <func_27+0xd5d>
   1608e:	0f bf 85 b8 f4 ff ff 	movswl -0xb48(%rbp),%eax
   16095:	48 98                	cltq   
   16097:	48 8d 15 22 a2 00 00 	lea    0xa222(%rip),%rdx        # 202c0 <g_284>
   1609e:	0f b6 04 10          	movzbl (%rax,%rdx,1),%eax
   160a2:	0f b6 c0             	movzbl %al,%eax
   160a5:	89 85 e8 f4 ff ff    	mov    %eax,-0xb18(%rbp)
   160ab:	48 c7 05 12 a2 00 00 	movq   $0x3,0xa212(%rip)        # 202c8 <g_320>
   160b2:	03 00 00 00 
   160b6:	e9 2a 10 00 00       	jmpq   170e5 <func_27+0x1dfe>
   160bb:	48 8d 85 e8 f4 ff ff 	lea    -0xb18(%rbp),%rax
   160c2:	48 89 85 10 f8 ff ff 	mov    %rax,-0x7f0(%rbp)
   160c9:	48 8d 85 e8 f4 ff ff 	lea    -0xb18(%rbp),%rax
   160d0:	48 89 85 18 f8 ff ff 	mov    %rax,-0x7e8(%rbp)
   160d7:	48 8d 85 e8 f4 ff ff 	lea    -0xb18(%rbp),%rax
   160de:	48 89 85 20 f8 ff ff 	mov    %rax,-0x7e0(%rbp)
   160e5:	48 8d 85 e8 f4 ff ff 	lea    -0xb18(%rbp),%rax
   160ec:	48 89 85 28 f8 ff ff 	mov    %rax,-0x7d8(%rbp)
   160f3:	48 8d 85 e8 f4 ff ff 	lea    -0xb18(%rbp),%rax
   160fa:	48 89 85 30 f8 ff ff 	mov    %rax,-0x7d0(%rbp)
   16101:	48 8d 85 e8 f4 ff ff 	lea    -0xb18(%rbp),%rax
   16108:	48 89 85 38 f8 ff ff 	mov    %rax,-0x7c8(%rbp)
   1610f:	48 8d 85 e8 f4 ff ff 	lea    -0xb18(%rbp),%rax
   16116:	48 89 85 40 f8 ff ff 	mov    %rax,-0x7c0(%rbp)
   1611d:	48 8d 05 58 fc 00 00 	lea    0xfc58(%rip),%rax        # 25d7c <g_185+0x4>
   16124:	48 89 85 48 f8 ff ff 	mov    %rax,-0x7b8(%rbp)
   1612b:	48 8d 05 4a fc 00 00 	lea    0xfc4a(%rip),%rax        # 25d7c <g_185+0x4>
   16132:	48 89 85 50 f8 ff ff 	mov    %rax,-0x7b0(%rbp)
   16139:	48 8d 05 3c fc 00 00 	lea    0xfc3c(%rip),%rax        # 25d7c <g_185+0x4>
   16140:	48 89 85 58 f8 ff ff 	mov    %rax,-0x7a8(%rbp)
   16147:	48 8d 05 2e fc 00 00 	lea    0xfc2e(%rip),%rax        # 25d7c <g_185+0x4>
   1614e:	48 89 85 60 f8 ff ff 	mov    %rax,-0x7a0(%rbp)
   16155:	48 8d 05 20 fc 00 00 	lea    0xfc20(%rip),%rax        # 25d7c <g_185+0x4>
   1615c:	48 89 85 68 f8 ff ff 	mov    %rax,-0x798(%rbp)
   16163:	48 8d 05 12 fc 00 00 	lea    0xfc12(%rip),%rax        # 25d7c <g_185+0x4>
   1616a:	48 89 85 70 f8 ff ff 	mov    %rax,-0x790(%rbp)
   16171:	48 8d 05 04 fc 00 00 	lea    0xfc04(%rip),%rax        # 25d7c <g_185+0x4>
   16178:	48 89 85 78 f8 ff ff 	mov    %rax,-0x788(%rbp)
   1617f:	48 8d 85 e8 f4 ff ff 	lea    -0xb18(%rbp),%rax
   16186:	48 89 85 80 f8 ff ff 	mov    %rax,-0x780(%rbp)
   1618d:	48 8d 85 e8 f4 ff ff 	lea    -0xb18(%rbp),%rax
   16194:	48 89 85 88 f8 ff ff 	mov    %rax,-0x778(%rbp)
   1619b:	48 8d 85 e8 f4 ff ff 	lea    -0xb18(%rbp),%rax
   161a2:	48 89 85 90 f8 ff ff 	mov    %rax,-0x770(%rbp)
   161a9:	48 8d 85 e8 f4 ff ff 	lea    -0xb18(%rbp),%rax
   161b0:	48 89 85 98 f8 ff ff 	mov    %rax,-0x768(%rbp)
   161b7:	48 8d 85 e8 f4 ff ff 	lea    -0xb18(%rbp),%rax
   161be:	48 89 85 a0 f8 ff ff 	mov    %rax,-0x760(%rbp)
   161c5:	48 8d 85 e8 f4 ff ff 	lea    -0xb18(%rbp),%rax
   161cc:	48 89 85 a8 f8 ff ff 	mov    %rax,-0x758(%rbp)
   161d3:	48 8d 85 e8 f4 ff ff 	lea    -0xb18(%rbp),%rax
   161da:	48 89 85 b0 f8 ff ff 	mov    %rax,-0x750(%rbp)
   161e1:	48 8d 05 94 fb 00 00 	lea    0xfb94(%rip),%rax        # 25d7c <g_185+0x4>
   161e8:	48 89 85 b8 f8 ff ff 	mov    %rax,-0x748(%rbp)
   161ef:	48 8d 05 86 fb 00 00 	lea    0xfb86(%rip),%rax        # 25d7c <g_185+0x4>
   161f6:	48 89 85 c0 f8 ff ff 	mov    %rax,-0x740(%rbp)
   161fd:	48 8d 05 78 fb 00 00 	lea    0xfb78(%rip),%rax        # 25d7c <g_185+0x4>
   16204:	48 89 85 c8 f8 ff ff 	mov    %rax,-0x738(%rbp)
   1620b:	48 8d 05 6a fb 00 00 	lea    0xfb6a(%rip),%rax        # 25d7c <g_185+0x4>
   16212:	48 89 85 d0 f8 ff ff 	mov    %rax,-0x730(%rbp)
   16219:	48 8d 05 5c fb 00 00 	lea    0xfb5c(%rip),%rax        # 25d7c <g_185+0x4>
   16220:	48 89 85 d8 f8 ff ff 	mov    %rax,-0x728(%rbp)
   16227:	48 8d 05 4e fb 00 00 	lea    0xfb4e(%rip),%rax        # 25d7c <g_185+0x4>
   1622e:	48 89 85 e0 f8 ff ff 	mov    %rax,-0x720(%rbp)
   16235:	48 8d 05 40 fb 00 00 	lea    0xfb40(%rip),%rax        # 25d7c <g_185+0x4>
   1623c:	48 89 85 e8 f8 ff ff 	mov    %rax,-0x718(%rbp)
   16243:	48 8d 85 e8 f4 ff ff 	lea    -0xb18(%rbp),%rax
   1624a:	48 89 85 f0 f8 ff ff 	mov    %rax,-0x710(%rbp)
   16251:	48 8d 85 e8 f4 ff ff 	lea    -0xb18(%rbp),%rax
   16258:	48 89 85 f8 f8 ff ff 	mov    %rax,-0x708(%rbp)
   1625f:	48 8d 85 e8 f4 ff ff 	lea    -0xb18(%rbp),%rax
   16266:	48 89 85 00 f9 ff ff 	mov    %rax,-0x700(%rbp)
   1626d:	48 8d 85 e8 f4 ff ff 	lea    -0xb18(%rbp),%rax
   16274:	48 89 85 08 f9 ff ff 	mov    %rax,-0x6f8(%rbp)
   1627b:	48 8d 85 e8 f4 ff ff 	lea    -0xb18(%rbp),%rax
   16282:	48 89 85 10 f9 ff ff 	mov    %rax,-0x6f0(%rbp)
   16289:	48 8d 85 e8 f4 ff ff 	lea    -0xb18(%rbp),%rax
   16290:	48 89 85 18 f9 ff ff 	mov    %rax,-0x6e8(%rbp)
   16297:	48 8d 85 e8 f4 ff ff 	lea    -0xb18(%rbp),%rax
   1629e:	48 89 85 20 f9 ff ff 	mov    %rax,-0x6e0(%rbp)
   162a5:	48 8d 05 d0 fa 00 00 	lea    0xfad0(%rip),%rax        # 25d7c <g_185+0x4>
   162ac:	48 89 85 28 f9 ff ff 	mov    %rax,-0x6d8(%rbp)
   162b3:	48 8d 05 c2 fa 00 00 	lea    0xfac2(%rip),%rax        # 25d7c <g_185+0x4>
   162ba:	48 89 85 30 f9 ff ff 	mov    %rax,-0x6d0(%rbp)
   162c1:	48 8d 05 b4 fa 00 00 	lea    0xfab4(%rip),%rax        # 25d7c <g_185+0x4>
   162c8:	48 89 85 38 f9 ff ff 	mov    %rax,-0x6c8(%rbp)
   162cf:	48 8d 05 a6 fa 00 00 	lea    0xfaa6(%rip),%rax        # 25d7c <g_185+0x4>
   162d6:	48 89 85 40 f9 ff ff 	mov    %rax,-0x6c0(%rbp)
   162dd:	48 8d 05 98 fa 00 00 	lea    0xfa98(%rip),%rax        # 25d7c <g_185+0x4>
   162e4:	48 89 85 48 f9 ff ff 	mov    %rax,-0x6b8(%rbp)
   162eb:	48 8d 05 8a fa 00 00 	lea    0xfa8a(%rip),%rax        # 25d7c <g_185+0x4>
   162f2:	48 89 85 50 f9 ff ff 	mov    %rax,-0x6b0(%rbp)
   162f9:	48 8d 05 7c fa 00 00 	lea    0xfa7c(%rip),%rax        # 25d7c <g_185+0x4>
   16300:	48 89 85 58 f9 ff ff 	mov    %rax,-0x6a8(%rbp)
   16307:	48 8d 85 e8 f4 ff ff 	lea    -0xb18(%rbp),%rax
   1630e:	48 89 85 60 f9 ff ff 	mov    %rax,-0x6a0(%rbp)
   16315:	48 8d 85 e8 f4 ff ff 	lea    -0xb18(%rbp),%rax
   1631c:	48 89 85 68 f9 ff ff 	mov    %rax,-0x698(%rbp)
   16323:	48 8d 85 e8 f4 ff ff 	lea    -0xb18(%rbp),%rax
   1632a:	48 89 85 70 f9 ff ff 	mov    %rax,-0x690(%rbp)
   16331:	48 8d 85 e8 f4 ff ff 	lea    -0xb18(%rbp),%rax
   16338:	48 89 85 78 f9 ff ff 	mov    %rax,-0x688(%rbp)
   1633f:	48 8d 85 e8 f4 ff ff 	lea    -0xb18(%rbp),%rax
   16346:	48 89 85 80 f9 ff ff 	mov    %rax,-0x680(%rbp)
   1634d:	48 8d 85 e8 f4 ff ff 	lea    -0xb18(%rbp),%rax
   16354:	48 89 85 88 f9 ff ff 	mov    %rax,-0x678(%rbp)
   1635b:	48 8d 85 e8 f4 ff ff 	lea    -0xb18(%rbp),%rax
   16362:	48 89 85 90 f9 ff ff 	mov    %rax,-0x670(%rbp)
   16369:	48 8d 05 0c fa 00 00 	lea    0xfa0c(%rip),%rax        # 25d7c <g_185+0x4>
   16370:	48 89 85 98 f9 ff ff 	mov    %rax,-0x668(%rbp)
   16377:	48 8d 05 fe f9 00 00 	lea    0xf9fe(%rip),%rax        # 25d7c <g_185+0x4>
   1637e:	48 89 85 a0 f9 ff ff 	mov    %rax,-0x660(%rbp)
   16385:	48 8d 05 f0 f9 00 00 	lea    0xf9f0(%rip),%rax        # 25d7c <g_185+0x4>
   1638c:	48 89 85 a8 f9 ff ff 	mov    %rax,-0x658(%rbp)
   16393:	48 8d 05 e2 f9 00 00 	lea    0xf9e2(%rip),%rax        # 25d7c <g_185+0x4>
   1639a:	48 89 85 b0 f9 ff ff 	mov    %rax,-0x650(%rbp)
   163a1:	48 8d 05 d4 f9 00 00 	lea    0xf9d4(%rip),%rax        # 25d7c <g_185+0x4>
   163a8:	48 89 85 b8 f9 ff ff 	mov    %rax,-0x648(%rbp)
   163af:	48 8d 05 c6 f9 00 00 	lea    0xf9c6(%rip),%rax        # 25d7c <g_185+0x4>
   163b6:	48 89 85 c0 f9 ff ff 	mov    %rax,-0x640(%rbp)
   163bd:	48 8d 05 b8 f9 00 00 	lea    0xf9b8(%rip),%rax        # 25d7c <g_185+0x4>
   163c4:	48 89 85 c8 f9 ff ff 	mov    %rax,-0x638(%rbp)
   163cb:	48 8d 85 e8 f4 ff ff 	lea    -0xb18(%rbp),%rax
   163d2:	48 89 85 d0 f9 ff ff 	mov    %rax,-0x630(%rbp)
   163d9:	48 8d 85 e8 f4 ff ff 	lea    -0xb18(%rbp),%rax
   163e0:	48 89 85 d8 f9 ff ff 	mov    %rax,-0x628(%rbp)
   163e7:	48 8d 85 e8 f4 ff ff 	lea    -0xb18(%rbp),%rax
   163ee:	48 89 85 e0 f9 ff ff 	mov    %rax,-0x620(%rbp)
   163f5:	48 8d 85 e8 f4 ff ff 	lea    -0xb18(%rbp),%rax
   163fc:	48 89 85 e8 f9 ff ff 	mov    %rax,-0x618(%rbp)
   16403:	48 8d 85 e8 f4 ff ff 	lea    -0xb18(%rbp),%rax
   1640a:	48 89 85 f0 f9 ff ff 	mov    %rax,-0x610(%rbp)
   16411:	48 8d 85 e8 f4 ff ff 	lea    -0xb18(%rbp),%rax
   16418:	48 89 85 f8 f9 ff ff 	mov    %rax,-0x608(%rbp)
   1641f:	48 8d 85 e8 f4 ff ff 	lea    -0xb18(%rbp),%rax
   16426:	48 89 85 00 fa ff ff 	mov    %rax,-0x600(%rbp)
   1642d:	48 8d 05 48 f9 00 00 	lea    0xf948(%rip),%rax        # 25d7c <g_185+0x4>
   16434:	48 89 85 08 fa ff ff 	mov    %rax,-0x5f8(%rbp)
   1643b:	48 8d 05 3a f9 00 00 	lea    0xf93a(%rip),%rax        # 25d7c <g_185+0x4>
   16442:	48 89 85 10 fa ff ff 	mov    %rax,-0x5f0(%rbp)
   16449:	48 8d 05 2c f9 00 00 	lea    0xf92c(%rip),%rax        # 25d7c <g_185+0x4>
   16450:	48 89 85 18 fa ff ff 	mov    %rax,-0x5e8(%rbp)
   16457:	48 8d 05 1e f9 00 00 	lea    0xf91e(%rip),%rax        # 25d7c <g_185+0x4>
   1645e:	48 89 85 20 fa ff ff 	mov    %rax,-0x5e0(%rbp)
   16465:	48 8d 05 10 f9 00 00 	lea    0xf910(%rip),%rax        # 25d7c <g_185+0x4>
   1646c:	48 89 85 28 fa ff ff 	mov    %rax,-0x5d8(%rbp)
   16473:	48 8d 05 02 f9 00 00 	lea    0xf902(%rip),%rax        # 25d7c <g_185+0x4>
   1647a:	48 89 85 30 fa ff ff 	mov    %rax,-0x5d0(%rbp)
   16481:	48 8d 05 f4 f8 00 00 	lea    0xf8f4(%rip),%rax        # 25d7c <g_185+0x4>
   16488:	48 89 85 38 fa ff ff 	mov    %rax,-0x5c8(%rbp)
   1648f:	48 8d 85 e8 f4 ff ff 	lea    -0xb18(%rbp),%rax
   16496:	48 89 85 40 fa ff ff 	mov    %rax,-0x5c0(%rbp)
   1649d:	48 8d 85 e8 f4 ff ff 	lea    -0xb18(%rbp),%rax
   164a4:	48 89 85 48 fa ff ff 	mov    %rax,-0x5b8(%rbp)
   164ab:	48 8d 85 e8 f4 ff ff 	lea    -0xb18(%rbp),%rax
   164b2:	48 89 85 50 fa ff ff 	mov    %rax,-0x5b0(%rbp)
   164b9:	48 8d 85 e8 f4 ff ff 	lea    -0xb18(%rbp),%rax
   164c0:	48 89 85 58 fa ff ff 	mov    %rax,-0x5a8(%rbp)
   164c7:	48 8d 85 e8 f4 ff ff 	lea    -0xb18(%rbp),%rax
   164ce:	48 89 85 60 fa ff ff 	mov    %rax,-0x5a0(%rbp)
   164d5:	48 8d 85 e8 f4 ff ff 	lea    -0xb18(%rbp),%rax
   164dc:	48 89 85 68 fa ff ff 	mov    %rax,-0x598(%rbp)
   164e3:	48 8d 85 e8 f4 ff ff 	lea    -0xb18(%rbp),%rax
   164ea:	48 89 85 70 fa ff ff 	mov    %rax,-0x590(%rbp)
   164f1:	48 8d 05 84 f8 00 00 	lea    0xf884(%rip),%rax        # 25d7c <g_185+0x4>
   164f8:	48 89 85 78 fa ff ff 	mov    %rax,-0x588(%rbp)
   164ff:	48 8d 05 76 f8 00 00 	lea    0xf876(%rip),%rax        # 25d7c <g_185+0x4>
   16506:	48 89 85 80 fa ff ff 	mov    %rax,-0x580(%rbp)
   1650d:	48 8d 05 68 f8 00 00 	lea    0xf868(%rip),%rax        # 25d7c <g_185+0x4>
   16514:	48 89 85 88 fa ff ff 	mov    %rax,-0x578(%rbp)
   1651b:	48 8d 05 5a f8 00 00 	lea    0xf85a(%rip),%rax        # 25d7c <g_185+0x4>
   16522:	48 89 85 90 fa ff ff 	mov    %rax,-0x570(%rbp)
   16529:	48 8d 05 4c f8 00 00 	lea    0xf84c(%rip),%rax        # 25d7c <g_185+0x4>
   16530:	48 89 85 98 fa ff ff 	mov    %rax,-0x568(%rbp)
   16537:	48 8d 05 3e f8 00 00 	lea    0xf83e(%rip),%rax        # 25d7c <g_185+0x4>
   1653e:	48 89 85 a0 fa ff ff 	mov    %rax,-0x560(%rbp)
   16545:	48 8d 05 30 f8 00 00 	lea    0xf830(%rip),%rax        # 25d7c <g_185+0x4>
   1654c:	48 89 85 a8 fa ff ff 	mov    %rax,-0x558(%rbp)
   16553:	48 8d 85 e8 f4 ff ff 	lea    -0xb18(%rbp),%rax
   1655a:	48 89 85 b0 fa ff ff 	mov    %rax,-0x550(%rbp)
   16561:	48 8d 85 e8 f4 ff ff 	lea    -0xb18(%rbp),%rax
   16568:	48 89 85 b8 fa ff ff 	mov    %rax,-0x548(%rbp)
   1656f:	48 8d 85 e8 f4 ff ff 	lea    -0xb18(%rbp),%rax
   16576:	48 89 85 c0 fa ff ff 	mov    %rax,-0x540(%rbp)
   1657d:	48 8d 85 e8 f4 ff ff 	lea    -0xb18(%rbp),%rax
   16584:	48 89 85 c8 fa ff ff 	mov    %rax,-0x538(%rbp)
   1658b:	48 8d 85 e8 f4 ff ff 	lea    -0xb18(%rbp),%rax
   16592:	48 89 85 d0 fa ff ff 	mov    %rax,-0x530(%rbp)
   16599:	48 8d 85 e8 f4 ff ff 	lea    -0xb18(%rbp),%rax
   165a0:	48 89 85 d8 fa ff ff 	mov    %rax,-0x528(%rbp)
   165a7:	48 8d 85 e8 f4 ff ff 	lea    -0xb18(%rbp),%rax
   165ae:	48 89 85 e0 fa ff ff 	mov    %rax,-0x520(%rbp)
   165b5:	48 8d 05 c0 f7 00 00 	lea    0xf7c0(%rip),%rax        # 25d7c <g_185+0x4>
   165bc:	48 89 85 e8 fa ff ff 	mov    %rax,-0x518(%rbp)
   165c3:	48 8d 05 b2 f7 00 00 	lea    0xf7b2(%rip),%rax        # 25d7c <g_185+0x4>
   165ca:	48 89 85 f0 fa ff ff 	mov    %rax,-0x510(%rbp)
   165d1:	48 8d 05 a4 f7 00 00 	lea    0xf7a4(%rip),%rax        # 25d7c <g_185+0x4>
   165d8:	48 89 85 f8 fa ff ff 	mov    %rax,-0x508(%rbp)
   165df:	48 8d 05 96 f7 00 00 	lea    0xf796(%rip),%rax        # 25d7c <g_185+0x4>
   165e6:	48 89 85 00 fb ff ff 	mov    %rax,-0x500(%rbp)
   165ed:	48 8d 05 88 f7 00 00 	lea    0xf788(%rip),%rax        # 25d7c <g_185+0x4>
   165f4:	48 89 85 08 fb ff ff 	mov    %rax,-0x4f8(%rbp)
   165fb:	48 8d 05 7a f7 00 00 	lea    0xf77a(%rip),%rax        # 25d7c <g_185+0x4>
   16602:	48 89 85 10 fb ff ff 	mov    %rax,-0x4f0(%rbp)
   16609:	48 8d 05 6c f7 00 00 	lea    0xf76c(%rip),%rax        # 25d7c <g_185+0x4>
   16610:	48 89 85 18 fb ff ff 	mov    %rax,-0x4e8(%rbp)
   16617:	48 8d 85 e8 f4 ff ff 	lea    -0xb18(%rbp),%rax
   1661e:	48 89 85 20 fb ff ff 	mov    %rax,-0x4e0(%rbp)
   16625:	48 8d 85 e8 f4 ff ff 	lea    -0xb18(%rbp),%rax
   1662c:	48 89 85 28 fb ff ff 	mov    %rax,-0x4d8(%rbp)
   16633:	48 8d 85 e8 f4 ff ff 	lea    -0xb18(%rbp),%rax
   1663a:	48 89 85 30 fb ff ff 	mov    %rax,-0x4d0(%rbp)
   16641:	48 8d 85 e8 f4 ff ff 	lea    -0xb18(%rbp),%rax
   16648:	48 89 85 38 fb ff ff 	mov    %rax,-0x4c8(%rbp)
   1664f:	48 8d 85 e8 f4 ff ff 	lea    -0xb18(%rbp),%rax
   16656:	48 89 85 40 fb ff ff 	mov    %rax,-0x4c0(%rbp)
   1665d:	48 8d 85 e8 f4 ff ff 	lea    -0xb18(%rbp),%rax
   16664:	48 89 85 48 fb ff ff 	mov    %rax,-0x4b8(%rbp)
   1666b:	48 8d 85 e8 f4 ff ff 	lea    -0xb18(%rbp),%rax
   16672:	48 89 85 50 fb ff ff 	mov    %rax,-0x4b0(%rbp)
   16679:	48 8d 05 f0 de 00 00 	lea    0xdef0(%rip),%rax        # 24570 <g_346>
   16680:	48 89 85 b0 f5 ff ff 	mov    %rax,-0xa50(%rbp)
   16687:	c7 85 00 f5 ff ff 00 	movl   $0x0,-0xb00(%rbp)
   1668e:	00 00 00 
   16691:	eb 54                	jmp    166e7 <func_27+0x1400>
   16693:	c7 85 04 f5 ff ff 00 	movl   $0x0,-0xafc(%rbp)
   1669a:	00 00 00 
   1669d:	eb 38                	jmp    166d7 <func_27+0x13f0>
   1669f:	8b 85 04 f5 ff ff    	mov    -0xafc(%rbp),%eax
   166a5:	48 63 c8             	movslq %eax,%rcx
   166a8:	8b 85 00 f5 ff ff    	mov    -0xb00(%rbp),%eax
   166ae:	48 63 d0             	movslq %eax,%rdx
   166b1:	48 89 d0             	mov    %rdx,%rax
   166b4:	48 01 c0             	add    %rax,%rax
   166b7:	48 01 d0             	add    %rdx,%rax
   166ba:	48 01 c0             	add    %rax,%rax
   166bd:	48 8d 5d e0          	lea    -0x20(%rbp),%rbx
   166c1:	48 01 d8             	add    %rbx,%rax
   166c4:	48 01 c8             	add    %rcx,%rax
   166c7:	48 2d 30 09 00 00    	sub    $0x930,%rax
   166cd:	c6 00 28             	movb   $0x28,(%rax)
   166d0:	83 85 04 f5 ff ff 01 	addl   $0x1,-0xafc(%rbp)
   166d7:	83 bd 04 f5 ff ff 05 	cmpl   $0x5,-0xafc(%rbp)
   166de:	7e bf                	jle    1669f <func_27+0x13b8>
   166e0:	83 85 00 f5 ff ff 01 	addl   $0x1,-0xb00(%rbp)
   166e7:	83 bd 00 f5 ff ff 04 	cmpl   $0x4,-0xb00(%rbp)
   166ee:	7e a3                	jle    16693 <func_27+0x13ac>
   166f0:	c7 05 4a 99 00 00 00 	movl   $0x0,0x994a(%rip)        # 20044 <g_101>
   166f7:	00 00 00 
   166fa:	eb 20                	jmp    1671c <func_27+0x1435>
   166fc:	48 8b 05 7d de 00 00 	mov    0xde7d(%rip),%rax        # 24580 <g_359>
   16703:	48 8d 15 5e 9b 00 00 	lea    0x9b5e(%rip),%rdx        # 20268 <g_209>
   1670a:	48 89 10             	mov    %rdx,(%rax)
   1670d:	8b 05 31 99 00 00    	mov    0x9931(%rip),%eax        # 20044 <g_101>
   16713:	83 c0 01             	add    $0x1,%eax
   16716:	89 05 28 99 00 00    	mov    %eax,0x9928(%rip)        # 20044 <g_101>
   1671c:	8b 05 22 99 00 00    	mov    0x9922(%rip),%eax        # 20044 <g_101>
   16722:	83 f8 03             	cmp    $0x3,%eax
   16725:	76 d5                	jbe    166fc <func_27+0x1415>
   16727:	48 8b 05 5a de 00 00 	mov    0xde5a(%rip),%rax        # 24588 <g_362>
   1672e:	48 8b 95 f8 f8 ff ff 	mov    -0x708(%rbp),%rdx
   16735:	48 89 10             	mov    %rdx,(%rax)
   16738:	48 8b 05 89 9b 00 00 	mov    0x9b89(%rip),%rax        # 202c8 <g_320>
   1673f:	48 8d 15 7a 9b 00 00 	lea    0x9b7a(%rip),%rdx        # 202c0 <g_284>
   16746:	0f b6 04 10          	movzbl (%rax,%rdx,1),%eax
   1674a:	84 c0                	test   %al,%al
   1674c:	0f 85 80 09 00 00    	jne    170d2 <func_27+0x1deb>
   16752:	66 83 bd b8 f4 ff ff 	cmpw   $0x0,-0xb48(%rbp)
   16759:	00 
   1675a:	0f 9e c0             	setle  %al
   1675d:	0f b6 d0             	movzbl %al,%edx
   16760:	0f bf 85 b8 f4 ff ff 	movswl -0xb48(%rbp),%eax
   16767:	89 d6                	mov    %edx,%esi
   16769:	89 c7                	mov    %eax,%edi
   1676b:	e8 60 37 ff ff       	callq  9ed0 <safe_sub_func_uint32_t_u_u>
   16770:	85 c0                	test   %eax,%eax
   16772:	74 27                	je     1679b <func_27+0x14b4>
   16774:	66 c7 85 d8 f4 ff ff 	movw   $0xfffe,-0xb28(%rbp)
   1677b:	fe ff 
   1677d:	48 8b 05 f4 dd 00 00 	mov    0xddf4(%rip),%rax        # 24578 <g_360>
   16784:	8b 00                	mov    (%rax),%eax
   16786:	85 c0                	test   %eax,%eax
   16788:	0f 85 69 09 00 00    	jne    170f7 <func_27+0x1e10>
   1678e:	66 83 ad d8 f4 ff ff 	subw   $0x1,-0xb28(%rbp)
   16795:	01 
   16796:	e9 38 09 00 00       	jmpq   170d3 <func_27+0x1dec>
   1679b:	48 8d 05 a2 98 00 00 	lea    0x98a2(%rip),%rax        # 20044 <g_101>
   167a2:	48 89 85 08 f6 ff ff 	mov    %rax,-0x9f8(%rbp)
   167a9:	48 c7 85 10 f6 ff ff 	movq   $0x0,-0x9f0(%rbp)
   167b0:	00 00 00 00 
   167b4:	48 8d 05 15 9b 00 00 	lea    0x9b15(%rip),%rax        # 202d0 <g_326>
   167bb:	48 89 85 18 f6 ff ff 	mov    %rax,-0x9e8(%rbp)
   167c2:	48 8d 05 97 9a 00 00 	lea    0x9a97(%rip),%rax        # 20260 <g_203>
   167c9:	48 89 85 20 f6 ff ff 	mov    %rax,-0x9e0(%rbp)
   167d0:	48 c7 85 30 f7 ff ff 	movq   $0x0,-0x8d0(%rbp)
   167d7:	00 00 00 00 
   167db:	48 8d 05 4e 98 00 00 	lea    0x984e(%rip),%rax        # 20030 <g_58>
   167e2:	48 89 85 38 f7 ff ff 	mov    %rax,-0x8c8(%rbp)
   167e9:	48 c7 85 40 f7 ff ff 	movq   $0x0,-0x8c0(%rbp)
   167f0:	00 00 00 00 
   167f4:	48 8d 05 35 98 00 00 	lea    0x9835(%rip),%rax        # 20030 <g_58>
   167fb:	48 89 85 48 f7 ff ff 	mov    %rax,-0x8b8(%rbp)
   16802:	48 c7 85 50 f7 ff ff 	movq   $0x0,-0x8b0(%rbp)
   16809:	00 00 00 00 
   1680d:	48 8d 05 1c 98 00 00 	lea    0x981c(%rip),%rax        # 20030 <g_58>
   16814:	48 89 85 58 f7 ff ff 	mov    %rax,-0x8a8(%rbp)
   1681b:	48 c7 85 60 f7 ff ff 	movq   $0x0,-0x8a0(%rbp)
   16822:	00 00 00 00 
   16826:	48 8d 05 03 98 00 00 	lea    0x9803(%rip),%rax        # 20030 <g_58>
   1682d:	48 89 85 68 f7 ff ff 	mov    %rax,-0x898(%rbp)
   16834:	c7 85 44 f5 ff ff 42 	movl   $0x92b7d042,-0xabc(%rbp)
   1683b:	d0 b7 92 
   1683e:	c7 85 48 f5 ff ff 00 	movl   $0x0,-0xab8(%rbp)
   16845:	00 00 00 
   16848:	c7 85 4c f5 ff ff 72 	movl   $0x8d55be72,-0xab4(%rbp)
   1684f:	be 55 8d 
   16852:	c7 85 50 f5 ff ff 03 	movl   $0x3,-0xab0(%rbp)
   16859:	00 00 00 
   1685c:	c7 85 54 f5 ff ff 46 	movl   $0xd30dc646,-0xaac(%rbp)
   16863:	c6 0d d3 
   16866:	c7 85 58 f5 ff ff 01 	movl   $0x1,-0xaa8(%rbp)
   1686d:	00 00 00 
   16870:	48 8d 85 60 fb ff ff 	lea    -0x4a0(%rbp),%rax
   16877:	48 8d 15 a2 50 00 00 	lea    0x50a2(%rip),%rdx        # 1b920 <g_2720+0x828>
   1687e:	b9 70 00 00 00       	mov    $0x70,%ecx
   16883:	48 89 c7             	mov    %rax,%rdi
   16886:	48 89 d6             	mov    %rdx,%rsi
   16889:	f3 48 a5             	rep movsq %ds:(%rsi),%es:(%rdi)
   1688c:	48 89 f2             	mov    %rsi,%rdx
   1688f:	48 89 f8             	mov    %rdi,%rax
   16892:	8b 0a                	mov    (%rdx),%ecx
   16894:	89 08                	mov    %ecx,(%rax)
   16896:	48 8d 40 04          	lea    0x4(%rax),%rax
   1689a:	48 8d 52 04          	lea    0x4(%rdx),%rdx
   1689e:	c6 85 d0 f4 ff ff 90 	movb   $0x90,-0xb30(%rbp)
   168a5:	48 8d 85 b0 f5 ff ff 	lea    -0xa50(%rbp),%rax
   168ac:	48 89 85 28 f6 ff ff 	mov    %rax,-0x9d8(%rbp)
   168b3:	c7 85 08 f5 ff ff 00 	movl   $0x0,-0xaf8(%rbp)
   168ba:	00 00 00 
   168bd:	eb 14                	jmp    168d3 <func_27+0x15ec>
   168bf:	8b 85 08 f5 ff ff    	mov    -0xaf8(%rbp),%eax
   168c5:	48 98                	cltq   
   168c7:	c6 44 05 cf fb       	movb   $0xfb,-0x31(%rbp,%rax,1)
   168cc:	83 85 08 f5 ff ff 01 	addl   $0x1,-0xaf8(%rbp)
   168d3:	83 bd 08 f5 ff ff 07 	cmpl   $0x7,-0xaf8(%rbp)
   168da:	7e e3                	jle    168bf <func_27+0x15d8>
   168dc:	8b 1d 92 f4 00 00    	mov    0xf492(%rip),%ebx        # 25d74 <g_49>
   168e2:	0f bf 85 b8 f4 ff ff 	movswl -0xb48(%rbp),%eax
   168e9:	48 98                	cltq   
   168eb:	48 8d 15 ce 99 00 00 	lea    0x99ce(%rip),%rdx        # 202c0 <g_284>
   168f2:	0f b6 04 10          	movzbl (%rax,%rdx,1),%eax
   168f6:	44 0f b6 e0          	movzbl %al,%r12d
   168fa:	be aa cc 00 00       	mov    $0xccaa,%esi
   168ff:	bf 00 00 00 00       	mov    $0x0,%edi
   16904:	e8 34 34 ff ff       	callq  9d3d <safe_mul_func_uint16_t_u_u>
   16909:	0f b7 c0             	movzwl %ax,%eax
   1690c:	4c 89 e6             	mov    %r12,%rsi
   1690f:	48 89 c7             	mov    %rax,%rdi
   16912:	e8 34 37 ff ff       	callq  a04b <safe_sub_func_uint64_t_u_u>
   16917:	89 c2                	mov    %eax,%edx
   16919:	48 8b 85 18 f6 ff ff 	mov    -0x9e8(%rbp),%rax
   16920:	88 10                	mov    %dl,(%rax)
   16922:	48 8b 85 18 f6 ff ff 	mov    -0x9e8(%rbp),%rax
   16929:	0f b6 00             	movzbl (%rax),%eax
   1692c:	0f be d0             	movsbl %al,%edx
   1692f:	8b 05 4b 9a 00 00    	mov    0x9a4b(%rip),%eax        # 20380 <g_389>
   16935:	39 c2                	cmp    %eax,%edx
   16937:	0f 97 c0             	seta   %al
   1693a:	0f b6 d0             	movzbl %al,%edx
   1693d:	48 8b 85 a8 f5 ff ff 	mov    -0xa58(%rbp),%rax
   16944:	48 31 c2             	xor    %rax,%rdx
   16947:	48 8b 05 22 dc 00 00 	mov    0xdc22(%rip),%rax        # 24570 <g_346>
   1694e:	0f b7 00             	movzwl (%rax),%eax
   16951:	89 c1                	mov    %eax,%ecx
   16953:	89 d0                	mov    %edx,%eax
   16955:	31 c1                	xor    %eax,%ecx
   16957:	89 ca                	mov    %ecx,%edx
   16959:	48 8b 05 10 dc 00 00 	mov    0xdc10(%rip),%rax        # 24570 <g_346>
   16960:	66 89 10             	mov    %dx,(%rax)
   16963:	0f b7 00             	movzwl (%rax),%eax
   16966:	44 0f bf e0          	movswl %ax,%r12d
   1696a:	48 8b 85 c8 f5 ff ff 	mov    -0xa38(%rbp),%rax
   16971:	8b 00                	mov    (%rax),%eax
   16973:	89 c2                	mov    %eax,%edx
   16975:	48 8b 85 08 f6 ff ff 	mov    -0x9f8(%rbp),%rax
   1697c:	89 10                	mov    %edx,(%rax)
   1697e:	48 8b 85 08 f6 ff ff 	mov    -0x9f8(%rbp),%rax
   16985:	8b 00                	mov    (%rax),%eax
   16987:	89 c6                	mov    %eax,%esi
   16989:	bf 97 4f 45 04       	mov    $0x4454f97,%edi
   1698e:	e8 6c 2d ff ff       	callq  96ff <safe_div_func_int32_t_s_s>
   16993:	0f be d0             	movsbl %al,%edx
   16996:	0f b7 85 b8 f4 ff ff 	movzwl -0xb48(%rbp),%eax
   1699d:	0f be c0             	movsbl %al,%eax
   169a0:	89 d6                	mov    %edx,%esi
   169a2:	89 c7                	mov    %eax,%edi
   169a4:	e8 69 28 ff ff       	callq  9212 <safe_mul_func_int8_t_s_s>
   169a9:	3c 08                	cmp    $0x8,%al
   169ab:	0f 9f c0             	setg   %al
   169ae:	0f b6 c0             	movzbl %al,%eax
   169b1:	44 89 e6             	mov    %r12d,%esi
   169b4:	89 c7                	mov    %eax,%edi
   169b6:	e8 03 34 ff ff       	callq  9dbe <safe_lshift_func_uint16_t_u_s>
   169bb:	0f b7 d0             	movzwl %ax,%edx
   169be:	8b 85 bc f4 ff ff    	mov    -0xb44(%rbp),%eax
   169c4:	0f b7 c0             	movzwl %ax,%eax
   169c7:	89 d6                	mov    %edx,%esi
   169c9:	89 c7                	mov    %eax,%edi
   169cb:	e8 6d 33 ff ff       	callq  9d3d <safe_mul_func_uint16_t_u_u>
   169d0:	98                   	cwtl   
   169d1:	89 de                	mov    %ebx,%esi
   169d3:	89 c7                	mov    %eax,%edi
   169d5:	e8 07 2b ff ff       	callq  94e1 <safe_lshift_func_int16_t_s_u>
   169da:	0f bf d0             	movswl %ax,%edx
   169dd:	8b 85 bc f4 ff ff    	mov    -0xb44(%rbp),%eax
   169e3:	89 d6                	mov    %edx,%esi
   169e5:	89 c7                	mov    %eax,%edi
   169e7:	e8 cc 34 ff ff       	callq  9eb8 <safe_add_func_uint32_t_u_u>
   169ec:	89 c2                	mov    %eax,%edx
   169ee:	48 8b 85 20 f6 ff ff 	mov    -0x9e0(%rbp),%rax
   169f5:	48 89 10             	mov    %rdx,(%rax)
   169f8:	48 8b 85 20 f6 ff ff 	mov    -0x9e0(%rbp),%rax
   169ff:	48 8b 00             	mov    (%rax),%rax
   16a02:	8b 15 6c f3 00 00    	mov    0xf36c(%rip),%edx        # 25d74 <g_49>
   16a08:	89 d2                	mov    %edx,%edx
   16a0a:	48 39 d0             	cmp    %rdx,%rax
   16a0d:	0f 9c c0             	setl   %al
   16a10:	0f b6 d0             	movzbl %al,%edx
   16a13:	0f bf 85 b8 f4 ff ff 	movswl -0xb48(%rbp),%eax
   16a1a:	83 c0 04             	add    $0x4,%eax
   16a1d:	48 98                	cltq   
   16a1f:	48 8d 0c c5 00 00 00 	lea    0x0(,%rax,8),%rcx
   16a26:	00 
   16a27:	48 8d 05 32 96 00 00 	lea    0x9632(%rip),%rax        # 20060 <g_115>
   16a2e:	0f b7 04 01          	movzwl (%rcx,%rax,1),%eax
   16a32:	98                   	cwtl   
   16a33:	39 c2                	cmp    %eax,%edx
   16a35:	48 8b 05 8c 98 00 00 	mov    0x988c(%rip),%rax        # 202c8 <g_320>
   16a3c:	48 8d 15 7d 98 00 00 	lea    0x987d(%rip),%rdx        # 202c0 <g_284>
   16a43:	48 01 d0             	add    %rdx,%rax
   16a46:	48 39 85 d0 f5 ff ff 	cmp    %rax,-0xa30(%rbp)
   16a4d:	75 0f                	jne    16a5e <func_27+0x1777>
   16a4f:	48 8b 05 1a db 00 00 	mov    0xdb1a(%rip),%rax        # 24570 <g_346>
   16a56:	0f b7 00             	movzwl (%rax),%eax
   16a59:	66 85 c0             	test   %ax,%ax
   16a5c:	74 07                	je     16a65 <func_27+0x177e>
   16a5e:	ba 01 00 00 00       	mov    $0x1,%edx
   16a63:	eb 05                	jmp    16a6a <func_27+0x1783>
   16a65:	ba 00 00 00 00       	mov    $0x0,%edx
   16a6a:	83 bd 10 f5 ff ff 00 	cmpl   $0x0,-0xaf0(%rbp)
   16a71:	0f 94 c0             	sete   %al
   16a74:	0f b6 c0             	movzbl %al,%eax
   16a77:	31 95 44 f5 ff ff    	xor    %edx,-0xabc(%rbp)
   16a7d:	39 85 44 f5 ff ff    	cmp    %eax,-0xabc(%rbp)
   16a83:	0f 8d e5 01 00 00    	jge    16c6e <func_27+0x1987>
   16a89:	c7 85 5c f5 ff ff 00 	movl   $0x0,-0xaa4(%rbp)
   16a90:	00 00 00 
   16a93:	48 8d 05 fe da 00 00 	lea    0xdafe(%rip),%rax        # 24598 <g_402>
   16a9a:	48 89 85 30 f6 ff ff 	mov    %rax,-0x9d0(%rbp)
   16aa1:	48 8d 85 98 f5 ff ff 	lea    -0xa68(%rbp),%rax
   16aa8:	48 89 85 b8 f5 ff ff 	mov    %rax,-0xa48(%rbp)
   16aaf:	48 8d 85 b8 f5 ff ff 	lea    -0xa48(%rbp),%rax
   16ab6:	48 89 85 38 f6 ff ff 	mov    %rax,-0x9c8(%rbp)
   16abd:	48 c7 85 c0 f5 ff ff 	movq   $0x0,-0xa40(%rbp)
   16ac4:	00 00 00 00 
   16ac8:	48 8d 85 c0 f5 ff ff 	lea    -0xa40(%rbp),%rax
   16acf:	48 89 85 40 f6 ff ff 	mov    %rax,-0x9c0(%rbp)
   16ad6:	c7 85 60 f5 ff ff aa 	movl   $0x5d00faa,-0xaa0(%rbp)
   16add:	0f d0 05 
   16ae0:	c7 85 64 f5 ff ff 01 	movl   $0x1,-0xa9c(%rbp)
   16ae7:	00 00 00 
   16aea:	c7 85 0c f5 ff ff 00 	movl   $0x0,-0xaf4(%rbp)
   16af1:	00 00 00 
   16af4:	eb 1a                	jmp    16b10 <func_27+0x1829>
   16af6:	8b 85 0c f5 ff ff    	mov    -0xaf4(%rbp),%eax
   16afc:	48 98                	cltq   
   16afe:	c7 84 85 70 f7 ff ff 	movl   $0x1,-0x890(%rbp,%rax,4)
   16b05:	01 00 00 00 
   16b09:	83 85 0c f5 ff ff 01 	addl   $0x1,-0xaf4(%rbp)
   16b10:	83 bd 0c f5 ff ff 02 	cmpl   $0x2,-0xaf4(%rbp)
   16b17:	7e dd                	jle    16af6 <func_27+0x180f>
   16b19:	66 c7 05 1e 95 00 00 	movw   $0x3,0x951e(%rip)        # 20040 <g_67>
   16b20:	03 00 
   16b22:	eb 39                	jmp    16b5d <func_27+0x1876>
   16b24:	66 83 bd b8 f4 ff ff 	cmpw   $0x0,-0xb48(%rbp)
   16b2b:	00 
   16b2c:	75 3e                	jne    16b6c <func_27+0x1885>
   16b2e:	48 8b 05 43 da 00 00 	mov    0xda43(%rip),%rax        # 24578 <g_360>
   16b35:	8b 95 5c f5 ff ff    	mov    -0xaa4(%rbp),%edx
   16b3b:	89 10                	mov    %edx,(%rax)
   16b3d:	8b 08                	mov    (%rax),%ecx
   16b3f:	48 8b 05 fa d7 00 00 	mov    0xd7fa(%rip),%rax        # 24340 <g_106>
   16b46:	8b 10                	mov    (%rax),%edx
   16b48:	09 ca                	or     %ecx,%edx
   16b4a:	89 10                	mov    %edx,(%rax)
   16b4c:	0f b7 05 ed 94 00 00 	movzwl 0x94ed(%rip),%eax        # 20040 <g_67>
   16b53:	83 c0 01             	add    $0x1,%eax
   16b56:	66 89 05 e3 94 00 00 	mov    %ax,0x94e3(%rip)        # 20040 <g_67>
   16b5d:	0f b7 05 dc 94 00 00 	movzwl 0x94dc(%rip),%eax        # 20040 <g_67>
   16b64:	66 83 f8 09          	cmp    $0x9,%ax
   16b68:	76 ba                	jbe    16b24 <func_27+0x183d>
   16b6a:	eb 01                	jmp    16b6d <func_27+0x1886>
   16b6c:	90                   	nop
   16b6d:	8b 85 bc f4 ff ff    	mov    -0xb44(%rbp),%eax
   16b73:	0f bf d8             	movswl %ax,%ebx
   16b76:	48 8b 15 1b da 00 00 	mov    0xda1b(%rip),%rdx        # 24598 <g_402>
   16b7d:	48 8b 85 30 f6 ff ff 	mov    -0x9d0(%rbp),%rax
   16b84:	48 89 10             	mov    %rdx,(%rax)
   16b87:	48 8b 85 30 f6 ff ff 	mov    -0x9d0(%rbp),%rax
   16b8e:	48 8b 10             	mov    (%rax),%rdx
   16b91:	48 8b 85 38 f6 ff ff 	mov    -0x9c8(%rbp),%rax
   16b98:	48 89 10             	mov    %rdx,(%rax)
   16b9b:	48 8b 85 38 f6 ff ff 	mov    -0x9c8(%rbp),%rax
   16ba2:	48 8b 10             	mov    (%rax),%rdx
   16ba5:	48 8d 85 98 f5 ff ff 	lea    -0xa68(%rbp),%rax
   16bac:	48 39 c2             	cmp    %rax,%rdx
   16baf:	0f 95 c2             	setne  %dl
   16bb2:	48 8b 05 8f d7 00 00 	mov    0xd78f(%rip),%rax        # 24348 <g_123>
   16bb9:	0f b6 d2             	movzbl %dl,%edx
   16bbc:	48 89 10             	mov    %rdx,(%rax)
   16bbf:	48 8b 10             	mov    (%rax),%rdx
   16bc2:	48 0f bf 85 b8 f4 ff 	movswq -0xb48(%rbp),%rax
   16bc9:	ff 
   16bca:	48 39 c2             	cmp    %rax,%rdx
   16bcd:	0f 97 c0             	seta   %al
   16bd0:	0f b6 d0             	movzbl %al,%edx
   16bd3:	8b 85 bc f4 ff ff    	mov    -0xb44(%rbp),%eax
   16bd9:	0f be c0             	movsbl %al,%eax
   16bdc:	89 d6                	mov    %edx,%esi
   16bde:	89 c7                	mov    %eax,%edi
   16be0:	e8 2d 26 ff ff       	callq  9212 <safe_mul_func_int8_t_s_s>
   16be5:	8b 85 bc f4 ff ff    	mov    -0xb44(%rbp),%eax
   16beb:	0f bf d0             	movswl %ax,%edx
   16bee:	48 83 bd f0 f5 ff ff 	cmpq   $0x0,-0xa10(%rbp)
   16bf5:	00 
   16bf6:	40 0f 95 c6          	setne  %sil
   16bfa:	48 8b 8d c0 f5 ff ff 	mov    -0xa40(%rbp),%rcx
   16c01:	48 8b 85 40 f6 ff ff 	mov    -0x9c0(%rbp),%rax
   16c08:	48 89 08             	mov    %rcx,(%rax)
   16c0b:	48 8b 85 40 f6 ff ff 	mov    -0x9c0(%rbp),%rax
   16c12:	48 8b 00             	mov    (%rax),%rax
   16c15:	48 85 c0             	test   %rax,%rax
   16c18:	0f 95 c0             	setne  %al
   16c1b:	21 f0                	and    %esi,%eax
   16c1d:	0f b6 c0             	movzbl %al,%eax
   16c20:	89 d6                	mov    %edx,%esi
   16c22:	89 c7                	mov    %eax,%edi
   16c24:	e8 2c 28 ff ff       	callq  9455 <safe_div_func_int16_t_s_s>
   16c29:	98                   	cwtl   
   16c2a:	89 de                	mov    %ebx,%esi
   16c2c:	89 c7                	mov    %eax,%edi
   16c2e:	e8 80 27 ff ff       	callq  93b3 <safe_add_func_int16_t_s_s>
   16c33:	98                   	cwtl   
   16c34:	89 c7                	mov    %eax,%edi
   16c36:	e8 5b 29 ff ff       	callq  9596 <safe_unary_minus_func_int32_t_s>
   16c3b:	83 bd 44 f5 ff ff 00 	cmpl   $0x0,-0xabc(%rbp)
   16c42:	0f 94 c0             	sete   %al
   16c45:	0f b6 d0             	movzbl %al,%edx
   16c48:	48 8b 85 c8 f5 ff ff 	mov    -0xa38(%rbp),%rax
   16c4f:	8b 00                	mov    (%rax),%eax
   16c51:	09 c2                	or     %eax,%edx
   16c53:	48 8b 85 c8 f5 ff ff 	mov    -0xa38(%rbp),%rax
   16c5a:	89 10                	mov    %edx,(%rax)
   16c5c:	0f b6 05 21 97 00 00 	movzbl 0x9721(%rip),%eax        # 20384 <g_422>
   16c63:	83 e8 01             	sub    $0x1,%eax
   16c66:	88 05 18 97 00 00    	mov    %al,0x9718(%rip)        # 20384 <g_422>
   16c6c:	eb 28                	jmp    16c96 <func_27+0x19af>
   16c6e:	66 c7 85 d4 f4 ff ff 	movw   $0x777d,-0xb2c(%rbp)
   16c75:	7d 77 
   16c77:	48 8b 05 12 d7 00 00 	mov    0xd712(%rip),%rax        # 24390 <g_235>
   16c7e:	8b 00                	mov    (%rax),%eax
   16c80:	85 c0                	test   %eax,%eax
   16c82:	0f 85 44 04 00 00    	jne    170cc <func_27+0x1de5>
   16c88:	66 83 bd d4 f4 ff ff 	cmpw   $0x0,-0xb2c(%rbp)
   16c8f:	00 
   16c90:	0f 85 39 04 00 00    	jne    170cf <func_27+0x1de8>
   16c96:	80 85 d0 f4 ff ff 01 	addb   $0x1,-0xb30(%rbp)
   16c9d:	0f bf 9d b8 f4 ff ff 	movswl -0xb48(%rbp),%ebx
   16ca4:	48 8b 15 a5 d6 00 00 	mov    0xd6a5(%rip),%rdx        # 24350 <g_179>
   16cab:	48 8b 05 16 96 00 00 	mov    0x9616(%rip),%rax        # 202c8 <g_320>
   16cb2:	0f b6 12             	movzbl (%rdx),%edx
   16cb5:	48 8d 0d 04 96 00 00 	lea    0x9604(%rip),%rcx        # 202c0 <g_284>
   16cbc:	88 14 08             	mov    %dl,(%rax,%rcx,1)
   16cbf:	48 8d 15 fa 95 00 00 	lea    0x95fa(%rip),%rdx        # 202c0 <g_284>
   16cc6:	0f b6 04 10          	movzbl (%rax,%rdx,1),%eax
   16cca:	0f be c0             	movsbl %al,%eax
   16ccd:	48 8b 95 08 f7 ff ff 	mov    -0x8f8(%rbp),%rdx
   16cd4:	48 85 d2             	test   %rdx,%rdx
   16cd7:	74 07                	je     16ce0 <func_27+0x19f9>
   16cd9:	ba 89 ff ff ff       	mov    $0xffffff89,%edx
   16cde:	eb 05                	jmp    16ce5 <func_27+0x19fe>
   16ce0:	ba 88 ff ff ff       	mov    $0xffffff88,%edx
   16ce5:	89 c6                	mov    %eax,%esi
   16ce7:	89 d7                	mov    %edx,%edi
   16ce9:	e8 24 25 ff ff       	callq  9212 <safe_mul_func_int8_t_s_s>
   16cee:	0f be d0             	movsbl %al,%edx
   16cf1:	48 8b 85 08 f6 ff ff 	mov    -0x9f8(%rbp),%rax
   16cf8:	89 10                	mov    %edx,(%rax)
   16cfa:	83 bd bc f4 ff ff 00 	cmpl   $0x0,-0xb44(%rbp)
   16d01:	74 11                	je     16d14 <func_27+0x1a2d>
   16d03:	66 83 bd b8 f4 ff ff 	cmpw   $0x0,-0xb48(%rbp)
   16d0a:	00 
   16d0b:	74 07                	je     16d14 <func_27+0x1a2d>
   16d0d:	ba 01 00 00 00       	mov    $0x1,%edx
   16d12:	eb 05                	jmp    16d19 <func_27+0x1a32>
   16d14:	ba 00 00 00 00       	mov    $0x0,%edx
   16d19:	48 8b 85 a0 f5 ff ff 	mov    -0xa60(%rbp),%rax
   16d20:	0f b7 00             	movzwl (%rax),%eax
   16d23:	89 c1                	mov    %eax,%ecx
   16d25:	89 d0                	mov    %edx,%eax
   16d27:	09 c1                	or     %eax,%ecx
   16d29:	89 ca                	mov    %ecx,%edx
   16d2b:	48 8b 85 a0 f5 ff ff 	mov    -0xa60(%rbp),%rax
   16d32:	66 89 10             	mov    %dx,(%rax)
   16d35:	48 8b 95 b0 f5 ff ff 	mov    -0xa50(%rbp),%rdx
   16d3c:	48 8b 85 28 f6 ff ff 	mov    -0x9d8(%rbp),%rax
   16d43:	48 89 10             	mov    %rdx,(%rax)
   16d46:	48 8b 85 28 f6 ff ff 	mov    -0x9d8(%rbp),%rax
   16d4d:	48 8b 00             	mov    (%rax),%rax
   16d50:	48 39 85 e0 f5 ff ff 	cmp    %rax,-0xa20(%rbp)
   16d57:	0f 95 c0             	setne  %al
   16d5a:	0f b6 c0             	movzbl %al,%eax
   16d5d:	48 39 85 00 f6 ff ff 	cmp    %rax,-0xa00(%rbp)
   16d64:	0f 9d c0             	setge  %al
   16d67:	0f b6 c0             	movzbl %al,%eax
   16d6a:	39 85 bc f4 ff ff    	cmp    %eax,-0xb44(%rbp)
   16d70:	0f 95 c0             	setne  %al
   16d73:	0f b6 c0             	movzbl %al,%eax
   16d76:	89 de                	mov    %ebx,%esi
   16d78:	89 c7                	mov    %eax,%edi
   16d7a:	e8 ab 27 ff ff       	callq  952a <safe_rshift_func_int16_t_s_s>
   16d7f:	66 85 c0             	test   %ax,%ax
   16d82:	74 30                	je     16db4 <func_27+0x1acd>
   16d84:	48 8b 05 ed d7 00 00 	mov    0xd7ed(%rip),%rax        # 24578 <g_360>
   16d8b:	8b 08                	mov    (%rax),%ecx
   16d8d:	48 8b 05 5c d8 00 00 	mov    0xd85c(%rip),%rax        # 245f0 <g_456>
   16d94:	48 85 c0             	test   %rax,%rax
   16d97:	0f 95 c0             	setne  %al
   16d9a:	0f b6 d0             	movzbl %al,%edx
   16d9d:	48 8b 05 d4 d7 00 00 	mov    0xd7d4(%rip),%rax        # 24578 <g_360>
   16da4:	31 ca                	xor    %ecx,%edx
   16da6:	89 10                	mov    %edx,(%rax)
   16da8:	0f b7 85 b8 f4 ff ff 	movzwl -0xb48(%rbp),%eax
   16daf:	e9 7d 03 00 00       	jmpq   17131 <func_27+0x1e4a>
   16db4:	48 c7 85 d0 f6 ff ff 	movq   $0x0,-0x930(%rbp)
   16dbb:	00 00 00 00 
   16dbf:	48 c7 85 d8 f6 ff ff 	movq   $0x0,-0x928(%rbp)
   16dc6:	00 00 00 00 
   16dca:	48 c7 85 e0 f6 ff ff 	movq   $0x0,-0x920(%rbp)
   16dd1:	00 00 00 00 
   16dd5:	48 c7 85 e8 f6 ff ff 	movq   $0x0,-0x918(%rbp)
   16ddc:	00 00 00 00 
   16de0:	c7 85 68 f5 ff ff 93 	movl   $0x454b7293,-0xa98(%rbp)
   16de7:	72 4b 45 
   16dea:	48 8d 85 e4 f4 ff ff 	lea    -0xb1c(%rbp),%rax
   16df1:	48 89 85 48 f6 ff ff 	mov    %rax,-0x9b8(%rbp)
   16df8:	c7 85 6c f5 ff ff fb 	movl   $0xfffffffb,-0xa94(%rbp)
   16dff:	ff ff ff 
   16e02:	48 c7 85 50 f6 ff ff 	movq   $0x0,-0x9b0(%rbp)
   16e09:	00 00 00 00 
   16e0d:	48 c7 85 70 f7 ff ff 	movq   $0x0,-0x890(%rbp)
   16e14:	00 00 00 00 
   16e18:	48 c7 85 78 f7 ff ff 	movq   $0x0,-0x888(%rbp)
   16e1f:	00 00 00 00 
   16e23:	48 c7 85 80 f7 ff ff 	movq   $0x0,-0x880(%rbp)
   16e2a:	00 00 00 00 
   16e2e:	48 c7 85 88 f7 ff ff 	movq   $0x0,-0x878(%rbp)
   16e35:	00 00 00 00 
   16e39:	48 c7 85 90 f7 ff ff 	movq   $0x0,-0x870(%rbp)
   16e40:	00 00 00 00 
   16e44:	48 c7 85 98 f7 ff ff 	movq   $0x0,-0x868(%rbp)
   16e4b:	00 00 00 00 
   16e4f:	48 c7 85 a0 f7 ff ff 	movq   $0x0,-0x860(%rbp)
   16e56:	00 00 00 00 
   16e5a:	48 c7 85 a8 f7 ff ff 	movq   $0x0,-0x858(%rbp)
   16e61:	00 00 00 00 
   16e65:	c7 85 70 f5 ff ff af 	movl   $0xf5afc8af,-0xa90(%rbp)
   16e6c:	c8 af f5 
   16e6f:	c7 85 74 f5 ff ff 00 	movl   $0x0,-0xa8c(%rbp)
   16e76:	00 00 00 
   16e79:	c7 85 18 f5 ff ff 00 	movl   $0x0,-0xae8(%rbp)
   16e80:	00 00 00 
   16e83:	83 bd 18 f5 ff ff 06 	cmpl   $0x6,-0xae8(%rbp)
   16e8a:	7f 21                	jg     16ead <func_27+0x1bc6>
   16e8c:	c7 85 78 f5 ff ff 35 	movl   $0xd1aa8235,-0xa88(%rbp)
   16e93:	82 aa d1 
   16e96:	8b 85 40 f5 ff ff    	mov    -0xac0(%rbp),%eax
   16e9c:	21 85 78 f5 ff ff    	and    %eax,-0xa88(%rbp)
   16ea2:	8b 85 54 f5 ff ff    	mov    -0xaac(%rbp),%eax
   16ea8:	e9 84 02 00 00       	jmpq   17131 <func_27+0x1e4a>
   16ead:	8b 85 2c f5 ff ff    	mov    -0xad4(%rbp),%eax
   16eb3:	0f bf d8             	movswl %ax,%ebx
   16eb6:	48 8b 05 e3 d6 00 00 	mov    0xd6e3(%rip),%rax        # 245a0 <g_458>
   16ebd:	c7 00 ff ff ff ff    	movl   $0xffffffff,(%rax)
   16ec3:	44 8b 20             	mov    (%rax),%r12d
   16ec6:	0f bf 95 b8 f4 ff ff 	movswl -0xb48(%rbp),%edx
   16ecd:	48 8b 85 08 f6 ff ff 	mov    -0x9f8(%rbp),%rax
   16ed4:	c7 00 f9 7b 94 44    	movl   $0x44947bf9,(%rax)
   16eda:	48 8b 85 08 f6 ff ff 	mov    -0x9f8(%rbp),%rax
   16ee1:	8b 08                	mov    (%rax),%ecx
   16ee3:	48 8b 85 48 f6 ff ff 	mov    -0x9b8(%rbp),%rax
   16eea:	89 08                	mov    %ecx,(%rax)
   16eec:	48 8b 85 48 f6 ff ff 	mov    -0x9b8(%rbp),%rax
   16ef3:	8b 00                	mov    (%rax),%eax
   16ef5:	89 d6                	mov    %edx,%esi
   16ef7:	89 c7                	mov    %eax,%edi
   16ef9:	e8 ba 2f ff ff       	callq  9eb8 <safe_add_func_uint32_t_u_u>
   16efe:	41 39 c4             	cmp    %eax,%r12d
   16f01:	72 10                	jb     16f13 <func_27+0x1c2c>
   16f03:	83 bd 6c f5 ff ff 00 	cmpl   $0x0,-0xa94(%rbp)
   16f0a:	74 07                	je     16f13 <func_27+0x1c2c>
   16f0c:	b8 01 00 00 00       	mov    $0x1,%eax
   16f11:	eb 05                	jmp    16f18 <func_27+0x1c31>
   16f13:	b8 00 00 00 00       	mov    $0x0,%eax
   16f18:	3b 85 50 f5 ff ff    	cmp    -0xab0(%rbp),%eax
   16f1e:	0f 95 c0             	setne  %al
   16f21:	0f b6 d0             	movzbl %al,%edx
   16f24:	8b 05 3e 93 00 00    	mov    0x933e(%rip),%eax        # 20268 <g_209>
   16f2a:	39 c2                	cmp    %eax,%edx
   16f2c:	0f 9c c0             	setl   %al
   16f2f:	0f b6 c0             	movzbl %al,%eax
   16f32:	48 89 c6             	mov    %rax,%rsi
   16f35:	48 bf b1 81 90 93 0e 	movabs $0x9bd3280e939081b1,%rdi
   16f3c:	28 d3 9b 
   16f3f:	e8 fd 28 ff ff       	callq  9841 <safe_add_func_int64_t_s_s>
   16f44:	8b 05 22 93 00 00    	mov    0x9322(%rip),%eax        # 2026c <g_211>
   16f4a:	0d 8a 55 00 00       	or     $0x558a,%eax
   16f4f:	89 85 6c f5 ff ff    	mov    %eax,-0xa94(%rbp)
   16f55:	48 8b 05 2c d6 00 00 	mov    0xd62c(%rip),%rax        # 24588 <g_362>
   16f5c:	48 8b 00             	mov    (%rax),%rax
   16f5f:	8b 00                	mov    (%rax),%eax
   16f61:	89 85 68 f5 ff ff    	mov    %eax,-0xa98(%rbp)
   16f67:	89 de                	mov    %ebx,%esi
   16f69:	bf 0b 6a 00 00       	mov    $0x6a0b,%edi
   16f6e:	e8 40 24 ff ff       	callq  93b3 <safe_add_func_int16_t_s_s>
   16f73:	0f b7 d0             	movzwl %ax,%edx
   16f76:	48 8d 05 bb 90 00 00 	lea    0x90bb(%rip),%rax        # 20038 <g_61>
   16f7d:	48 89 85 e8 f5 ff ff 	mov    %rax,-0xa18(%rbp)
   16f84:	48 8d 85 a8 f5 ff ff 	lea    -0xa58(%rbp),%rax
   16f8b:	48 39 85 e8 f5 ff ff 	cmp    %rax,-0xa18(%rbp)
   16f92:	0f 95 c0             	setne  %al
   16f95:	0f b6 c0             	movzbl %al,%eax
   16f98:	89 d6                	mov    %edx,%esi
   16f9a:	89 c7                	mov    %eax,%edi
   16f9c:	e8 7e 2d ff ff       	callq  9d1f <safe_sub_func_uint16_t_u_u>
   16fa1:	66 85 c0             	test   %ax,%ax
   16fa4:	0f 84 1a 01 00 00    	je     170c4 <func_27+0x1ddd>
   16faa:	66 c7 85 d6 f4 ff ff 	movw   $0xbce9,-0xb2a(%rbp)
   16fb1:	e9 bc 
   16fb3:	0f b7 85 d6 f4 ff ff 	movzwl -0xb2a(%rbp),%eax
   16fba:	be 84 1b 19 57       	mov    $0x57191b84,%esi
   16fbf:	89 c7                	mov    %eax,%edi
   16fc1:	e8 f2 2e ff ff       	callq  9eb8 <safe_add_func_uint32_t_u_u>
   16fc6:	89 c2                	mov    %eax,%edx
   16fc8:	48 8b 85 c8 f5 ff ff 	mov    -0xa38(%rbp),%rax
   16fcf:	89 10                	mov    %edx,(%rax)
   16fd1:	83 bd 70 f5 ff ff 00 	cmpl   $0x0,-0xa90(%rbp)
   16fd8:	0f 85 c1 00 00 00    	jne    1709f <func_27+0x1db8>
   16fde:	8b 85 bc f4 ff ff    	mov    -0xb44(%rbp),%eax
   16fe4:	0f bf d8             	movswl %ax,%ebx
   16fe7:	8b 85 3c f5 ff ff    	mov    -0xac4(%rbp),%eax
   16fed:	0f b6 c0             	movzbl %al,%eax
   16ff0:	89 c6                	mov    %eax,%esi
   16ff2:	bf 01 00 00 00       	mov    $0x1,%edi
   16ff7:	e8 df 2b ff ff       	callq  9bdb <safe_div_func_uint8_t_u_u>
   16ffc:	0f b6 c0             	movzbl %al,%eax
   16fff:	0f bf 8d b8 f4 ff ff 	movswl -0xb48(%rbp),%ecx
   17006:	0f b7 95 d6 f4 ff ff 	movzwl -0xb2a(%rbp),%edx
   1700d:	21 ca                	and    %ecx,%edx
   1700f:	48 63 d2             	movslq %edx,%rdx
   17012:	48 b9 ca ce 0d 7d 24 	movabs $0xd191247d0dceca,%rcx
   17019:	91 d1 00 
   1701c:	48 21 ca             	and    %rcx,%rdx
   1701f:	48 31 c2             	xor    %rax,%rdx
   17022:	8b 85 bc f4 ff ff    	mov    -0xb44(%rbp),%eax
   17028:	48 39 c2             	cmp    %rax,%rdx
   1702b:	0f 9c c0             	setl   %al
   1702e:	0f b6 c0             	movzbl %al,%eax
   17031:	89 85 6c f5 ff ff    	mov    %eax,-0xa94(%rbp)
   17037:	8b 85 6c f5 ff ff    	mov    -0xa94(%rbp),%eax
   1703d:	0f be d0             	movsbl %al,%edx
   17040:	8b 85 58 f5 ff ff    	mov    -0xaa8(%rbp),%eax
   17046:	89 85 68 f5 ff ff    	mov    %eax,-0xa98(%rbp)
   1704c:	8b 85 68 f5 ff ff    	mov    -0xa98(%rbp),%eax
   17052:	89 c1                	mov    %eax,%ecx
   17054:	48 8b 85 18 f6 ff ff 	mov    -0x9e8(%rbp),%rax
   1705b:	88 08                	mov    %cl,(%rax)
   1705d:	48 8b 85 18 f6 ff ff 	mov    -0x9e8(%rbp),%rax
   17064:	0f b6 00             	movzbl (%rax),%eax
   17067:	0f be c0             	movsbl %al,%eax
   1706a:	89 d6                	mov    %edx,%esi
   1706c:	89 c7                	mov    %eax,%edi
   1706e:	e8 9f 21 ff ff       	callq  9212 <safe_mul_func_int8_t_s_s>
   17073:	0f be c0             	movsbl %al,%eax
   17076:	be f7 ff ff ff       	mov    $0xfffffff7,%esi
   1707b:	89 c7                	mov    %eax,%edi
   1707d:	e8 90 21 ff ff       	callq  9212 <safe_mul_func_int8_t_s_s>
   17082:	0f be c0             	movsbl %al,%eax
   17085:	89 de                	mov    %ebx,%esi
   17087:	89 c7                	mov    %eax,%edi
   17089:	e8 25 23 ff ff       	callq  93b3 <safe_add_func_int16_t_s_s>
   1708e:	c7 85 74 f5 ff ff 01 	movl   $0x1,-0xa8c(%rbp)
   17095:	00 00 00 
   17098:	83 bd bc f4 ff ff 00 	cmpl   $0x0,-0xb44(%rbp)
   1709f:	0f b6 05 1d 92 00 00 	movzbl 0x921d(%rip),%eax        # 202c3 <g_284+0x3>
   170a6:	84 c0                	test   %al,%al
   170a8:	0f 94 c0             	sete   %al
   170ab:	0f b6 d0             	movzbl %al,%edx
   170ae:	48 8b 85 c8 f5 ff ff 	mov    -0xa38(%rbp),%rax
   170b5:	8b 00                	mov    (%rax),%eax
   170b7:	31 c2                	xor    %eax,%edx
   170b9:	48 8b 85 c8 f5 ff ff 	mov    -0xa38(%rbp),%rax
   170c0:	89 10                	mov    %edx,(%rax)
   170c2:	eb 0f                	jmp    170d3 <func_27+0x1dec>
   170c4:	8b 85 bc f4 ff ff    	mov    -0xb44(%rbp),%eax
   170ca:	eb 65                	jmp    17131 <func_27+0x1e4a>
   170cc:	90                   	nop
   170cd:	eb 29                	jmp    170f8 <func_27+0x1e11>
   170cf:	90                   	nop
   170d0:	eb 26                	jmp    170f8 <func_27+0x1e11>
   170d2:	90                   	nop
   170d3:	48 8b 05 ee 91 00 00 	mov    0x91ee(%rip),%rax        # 202c8 <g_320>
   170da:	48 83 e8 01          	sub    $0x1,%rax
   170de:	48 89 05 e3 91 00 00 	mov    %rax,0x91e3(%rip)        # 202c8 <g_320>
   170e5:	48 8b 05 dc 91 00 00 	mov    0x91dc(%rip),%rax        # 202c8 <g_320>
   170ec:	48 85 c0             	test   %rax,%rax
   170ef:	0f 89 c6 ef ff ff    	jns    160bb <func_27+0xdd4>
   170f5:	eb 01                	jmp    170f8 <func_27+0x1e11>
   170f7:	90                   	nop
   170f8:	0f b7 85 b8 f4 ff ff 	movzwl -0xb48(%rbp),%eax
   170ff:	83 c0 01             	add    $0x1,%eax
   17102:	66 89 85 b8 f4 ff ff 	mov    %ax,-0xb48(%rbp)
   17109:	66 83 bd b8 f4 ff ff 	cmpw   $0x3,-0xb48(%rbp)
   17110:	03 
   17111:	0f 8e 9b ed ff ff    	jle    15eb2 <func_27+0xbcb>
   17117:	48 8b 05 da d4 00 00 	mov    0xd4da(%rip),%rax        # 245f8 <g_495>
   1711e:	48 8d 95 e0 f4 ff ff 	lea    -0xb20(%rbp),%rdx
   17125:	48 89 10             	mov    %rdx,(%rax)
   17128:	48 8b 85 c8 f5 ff ff 	mov    -0xa38(%rbp),%rax
   1712f:	8b 00                	mov    (%rax),%eax
   17131:	48 8b 5d d8          	mov    -0x28(%rbp),%rbx
   17135:	64 48 33 1c 25 28 00 	xor    %fs:0x28,%rbx
   1713c:	00 00 
   1713e:	74 05                	je     17145 <func_27+0x1e5e>
   17140:	e8 2b 1f ff ff       	callq  9070 <__stack_chk_fail@plt>
   17145:	48 81 c4 30 0b 00 00 	add    $0xb30,%rsp
   1714c:	5b                   	pop    %rbx
   1714d:	41 5c                	pop    %r12
   1714f:	41 5d                	pop    %r13
   17151:	41 5e                	pop    %r14
   17153:	5d                   	pop    %rbp
   17154:	c3                   	retq   

0000000000017155 <func_32>:
   17155:	f3 0f 1e fa          	endbr64 
   17159:	55                   	push   %rbp
   1715a:	48 89 e5             	mov    %rsp,%rbp
   1715d:	41 57                	push   %r15
   1715f:	41 56                	push   %r14
   17161:	41 55                	push   %r13
   17163:	41 54                	push   %r12
   17165:	53                   	push   %rbx
   17166:	48 81 ec a8 0a 00 00 	sub    $0xaa8,%rsp
   1716d:	48 89 bd 48 f5 ff ff 	mov    %rdi,-0xab8(%rbp)
   17174:	48 89 b5 40 f5 ff ff 	mov    %rsi,-0xac0(%rbp)
   1717b:	64 48 8b 04 25 28 00 	mov    %fs:0x28,%rax
   17182:	00 00 
   17184:	48 89 45 c8          	mov    %rax,-0x38(%rbp)
   17188:	31 c0                	xor    %eax,%eax
   1718a:	48 8d 05 d7 eb 00 00 	lea    0xebd7(%rip),%rax        # 25d68 <g_21>
   17191:	48 89 85 90 f5 ff ff 	mov    %rax,-0xa70(%rbp)
   17198:	48 c7 85 80 f5 ff ff 	movq   $0x0,-0xa80(%rbp)
   1719f:	00 00 00 00 
   171a3:	c7 85 68 f5 ff ff f9 	movl   $0xfffffff9,-0xa98(%rbp)
   171aa:	ff ff ff 
   171ad:	c7 85 70 f6 ff ff 4a 	movl   $0xc1d9ac4a,-0x990(%rbp)
   171b4:	ac d9 c1 
   171b7:	c7 85 74 f6 ff ff 4a 	movl   $0xc1d9ac4a,-0x98c(%rbp)
   171be:	ac d9 c1 
   171c1:	c7 85 78 f6 ff ff 4a 	movl   $0xc1d9ac4a,-0x988(%rbp)
   171c8:	ac d9 c1 
   171cb:	c7 85 7c f6 ff ff 4a 	movl   $0xc1d9ac4a,-0x984(%rbp)
   171d2:	ac d9 c1 
   171d5:	c7 85 80 f6 ff ff 4a 	movl   $0xc1d9ac4a,-0x980(%rbp)
   171dc:	ac d9 c1 
   171df:	c7 85 84 f6 ff ff 4a 	movl   $0xc1d9ac4a,-0x97c(%rbp)
   171e6:	ac d9 c1 
   171e9:	c7 85 88 f6 ff ff 4a 	movl   $0xc1d9ac4a,-0x978(%rbp)
   171f0:	ac d9 c1 
   171f3:	c7 85 8c f6 ff ff 4a 	movl   $0xc1d9ac4a,-0x974(%rbp)
   171fa:	ac d9 c1 
   171fd:	c7 85 90 f6 ff ff 4a 	movl   $0xc1d9ac4a,-0x970(%rbp)
   17204:	ac d9 c1 
   17207:	c7 85 6c f5 ff ff 7b 	movl   $0x445cf57b,-0xa94(%rbp)
   1720e:	f5 5c 44 
   17211:	66 c7 85 5e f5 ff ff 	movw   $0x1,-0xaa2(%rbp)
   17218:	01 00 
   1721a:	c6 85 5b f5 ff ff 00 	movb   $0x0,-0xaa5(%rbp)
   17221:	c6 85 5c f5 ff ff 1a 	movb   $0x1a,-0xaa4(%rbp)
   17228:	c7 05 16 8e 00 00 01 	movl   $0x1,0x8e16(%rip)        # 20048 <g_105>
   1722f:	00 00 00 
   17232:	e9 e3 0b 00 00       	jmpq   17e1a <func_32+0xcc5>
   17237:	c7 85 70 f5 ff ff 3a 	movl   $0x54216e3a,-0xa90(%rbp)
   1723e:	6e 21 54 
   17241:	48 8d 85 30 f7 ff ff 	lea    -0x8d0(%rbp),%rax
   17248:	48 8d 15 71 4a 00 00 	lea    0x4a71(%rip),%rdx        # 1bcc0 <g_2720+0xbc8>
   1724f:	b9 23 00 00 00       	mov    $0x23,%ecx
   17254:	48 89 c7             	mov    %rax,%rdi
   17257:	48 89 d6             	mov    %rdx,%rsi
   1725a:	f3 48 a5             	rep movsq %ds:(%rsi),%es:(%rdi)
   1725d:	48 8d 05 cc 8d 00 00 	lea    0x8dcc(%rip),%rax        # 20030 <g_58>
   17264:	48 89 85 98 f5 ff ff 	mov    %rax,-0xa68(%rbp)
   1726b:	48 8d 05 de 8f 00 00 	lea    0x8fde(%rip),%rax        # 20250 <g_141>
   17272:	48 89 85 88 f5 ff ff 	mov    %rax,-0xa78(%rbp)
   17279:	48 8d 85 88 f5 ff ff 	lea    -0xa78(%rbp),%rax
   17280:	48 89 85 a0 f5 ff ff 	mov    %rax,-0xa60(%rbp)
   17287:	48 8d 85 5e f5 ff ff 	lea    -0xaa2(%rbp),%rax
   1728e:	48 89 85 a8 f5 ff ff 	mov    %rax,-0xa58(%rbp)
   17295:	c7 85 50 f6 ff ff 06 	movl   $0x6,-0x9b0(%rbp)
   1729c:	00 00 00 
   1729f:	c7 85 54 f6 ff ff 06 	movl   $0x6,-0x9ac(%rbp)
   172a6:	00 00 00 
   172a9:	c7 85 58 f6 ff ff 06 	movl   $0x6,-0x9a8(%rbp)
   172b0:	00 00 00 
   172b3:	c7 85 5c f6 ff ff 06 	movl   $0x6,-0x9a4(%rbp)
   172ba:	00 00 00 
   172bd:	c7 85 60 f6 ff ff 06 	movl   $0x6,-0x9a0(%rbp)
   172c4:	00 00 00 
   172c7:	c7 85 64 f6 ff ff 06 	movl   $0x6,-0x99c(%rbp)
   172ce:	00 00 00 
   172d1:	c7 85 68 f6 ff ff 06 	movl   $0x6,-0x998(%rbp)
   172d8:	00 00 00 
   172db:	c7 85 6c f6 ff ff 06 	movl   $0x6,-0x994(%rbp)
   172e2:	00 00 00 
   172e5:	48 8d 05 54 8d 00 00 	lea    0x8d54(%rip),%rax        # 20040 <g_67>
   172ec:	48 89 85 a0 f6 ff ff 	mov    %rax,-0x960(%rbp)
   172f3:	48 8d 05 46 8d 00 00 	lea    0x8d46(%rip),%rax        # 20040 <g_67>
   172fa:	48 89 85 a8 f6 ff ff 	mov    %rax,-0x958(%rbp)
   17301:	48 8d 05 38 8d 00 00 	lea    0x8d38(%rip),%rax        # 20040 <g_67>
   17308:	48 89 85 b0 f6 ff ff 	mov    %rax,-0x950(%rbp)
   1730f:	48 8d 05 2a 8d 00 00 	lea    0x8d2a(%rip),%rax        # 20040 <g_67>
   17316:	48 89 85 b8 f6 ff ff 	mov    %rax,-0x948(%rbp)
   1731d:	48 8d 05 1c 8d 00 00 	lea    0x8d1c(%rip),%rax        # 20040 <g_67>
   17324:	48 89 85 c0 f6 ff ff 	mov    %rax,-0x940(%rbp)
   1732b:	48 8d 05 0e 8d 00 00 	lea    0x8d0e(%rip),%rax        # 20040 <g_67>
   17332:	48 89 85 c8 f6 ff ff 	mov    %rax,-0x938(%rbp)
   17339:	48 8d 05 00 8d 00 00 	lea    0x8d00(%rip),%rax        # 20040 <g_67>
   17340:	48 89 85 d0 f6 ff ff 	mov    %rax,-0x930(%rbp)
   17347:	48 8d 05 f2 8c 00 00 	lea    0x8cf2(%rip),%rax        # 20040 <g_67>
   1734e:	48 89 85 d8 f6 ff ff 	mov    %rax,-0x928(%rbp)
   17355:	c7 85 74 f5 ff ff 01 	movl   $0x1,-0xa8c(%rbp)
   1735c:	00 00 00 
   1735f:	48 8d 85 50 f8 ff ff 	lea    -0x7b0(%rbp),%rax
   17366:	48 8d 15 f3 c5 00 00 	lea    0xc5f3(%rip),%rdx        # 23960 <g_2982+0x19d0>
   1736d:	b9 32 00 00 00       	mov    $0x32,%ecx
   17372:	48 89 c7             	mov    %rax,%rdi
   17375:	48 89 d6             	mov    %rdx,%rsi
   17378:	f3 48 a5             	rep movsq %ds:(%rsi),%es:(%rdi)
   1737b:	c7 85 60 f5 ff ff 00 	movl   $0x0,-0xaa0(%rbp)
   17382:	00 00 00 
   17385:	eb 1e                	jmp    173a5 <func_32+0x250>
   17387:	8b 85 60 f5 ff ff    	mov    -0xaa0(%rbp),%eax
   1738d:	48 98                	cltq   
   1738f:	48 8d 15 92 8c 00 00 	lea    0x8c92(%rip),%rdx        # 20028 <g_56>
   17396:	48 89 94 c5 30 f6 ff 	mov    %rdx,-0x9d0(%rbp,%rax,8)
   1739d:	ff 
   1739e:	83 85 60 f5 ff ff 01 	addl   $0x1,-0xaa0(%rbp)
   173a5:	83 bd 60 f5 ff ff 03 	cmpl   $0x3,-0xaa0(%rbp)
   173ac:	7e d9                	jle    17387 <func_32+0x232>
   173ae:	c7 05 bc e9 00 00 00 	movl   $0x0,0xe9bc(%rip)        # 25d74 <g_49>
   173b5:	00 00 00 
   173b8:	e9 df 01 00 00       	jmpq   1759c <func_32+0x447>
   173bd:	48 8d 85 e0 f9 ff ff 	lea    -0x620(%rbp),%rax
   173c4:	48 8d 15 35 c7 00 00 	lea    0xc735(%rip),%rdx        # 23b00 <g_2982+0x1b70>
   173cb:	b9 bd 00 00 00       	mov    $0xbd,%ecx
   173d0:	48 89 c7             	mov    %rax,%rdi
   173d3:	48 89 d6             	mov    %rdx,%rsi
   173d6:	f3 48 a5             	rep movsq %ds:(%rsi),%es:(%rdi)
   173d9:	48 8d 85 e0 f9 ff ff 	lea    -0x620(%rbp),%rax
   173e0:	48 05 a0 01 00 00    	add    $0x1a0,%rax
   173e6:	48 89 85 f0 f5 ff ff 	mov    %rax,-0xa10(%rbp)
   173ed:	48 c7 85 f8 f5 ff ff 	movq   $0x0,-0xa08(%rbp)
   173f4:	00 00 00 00 
   173f8:	48 c7 85 00 f6 ff ff 	movq   $0x0,-0xa00(%rbp)
   173ff:	00 00 00 00 
   17403:	48 8d 85 80 f5 ff ff 	lea    -0xa80(%rbp),%rax
   1740a:	48 89 85 08 f6 ff ff 	mov    %rax,-0x9f8(%rbp)
   17411:	c7 85 7c f5 ff ff a3 	movl   $0x7e5926a3,-0xa84(%rbp)
   17418:	26 59 7e 
   1741b:	48 c7 85 10 f6 ff ff 	movq   $0x0,-0x9f0(%rbp)
   17422:	00 00 00 00 
   17426:	48 c7 85 18 f6 ff ff 	movq   $0x0,-0x9e8(%rbp)
   1742d:	00 00 00 00 
   17431:	48 c7 85 20 f6 ff ff 	movq   $0x0,-0x9e0(%rbp)
   17438:	00 00 00 00 
   1743c:	48 8d 05 11 8e 00 00 	lea    0x8e11(%rip),%rax        # 20254 <g_146>
   17443:	48 89 85 28 f6 ff ff 	mov    %rax,-0x9d8(%rbp)
   1744a:	c7 85 64 f5 ff ff 00 	movl   $0x0,-0xa9c(%rbp)
   17451:	00 00 00 
   17454:	eb 1e                	jmp    17474 <func_32+0x31f>
   17456:	8b 85 64 f5 ff ff    	mov    -0xa9c(%rbp),%eax
   1745c:	48 98                	cltq   
   1745e:	48 8d 15 eb 8d 00 00 	lea    0x8deb(%rip),%rdx        # 20250 <g_141>
   17465:	48 89 94 c5 e0 f6 ff 	mov    %rdx,-0x920(%rbp,%rax,8)
   1746c:	ff 
   1746d:	83 85 64 f5 ff ff 01 	addl   $0x1,-0xa9c(%rbp)
   17474:	83 bd 64 f5 ff ff 00 	cmpl   $0x0,-0xa9c(%rbp)
   1747b:	7e d9                	jle    17456 <func_32+0x301>
   1747d:	48 8b 85 90 f5 ff ff 	mov    -0xa70(%rbp),%rax
   17484:	48 89 85 f0 f5 ff ff 	mov    %rax,-0xa10(%rbp)
   1748b:	48 8b 95 80 f5 ff ff 	mov    -0xa80(%rbp),%rdx
   17492:	48 8b 85 08 f6 ff ff 	mov    -0x9f8(%rbp),%rax
   17499:	48 89 10             	mov    %rdx,(%rax)
   1749c:	48 8b 85 08 f6 ff ff 	mov    -0x9f8(%rbp),%rax
   174a3:	48 8b 10             	mov    (%rax),%rdx
   174a6:	48 8d 05 8b 8b 00 00 	lea    0x8b8b(%rip),%rax        # 20038 <g_61>
   174ad:	48 89 05 94 ce 00 00 	mov    %rax,0xce94(%rip)        # 24348 <g_123>
   174b4:	48 8b 05 8d ce 00 00 	mov    0xce8d(%rip),%rax        # 24348 <g_123>
   174bb:	48 39 c2             	cmp    %rax,%rdx
   174be:	0f 95 c0             	setne  %al
   174c1:	0f b6 d8             	movzbl %al,%ebx
   174c4:	be 01 00 00 00       	mov    $0x1,%esi
   174c9:	bf 72 92 00 00       	mov    $0x9272,%edi
   174ce:	e8 6a 28 ff ff       	callq  9d3d <safe_mul_func_uint16_t_u_u>
   174d3:	66 85 c0             	test   %ax,%ax
   174d6:	74 54                	je     1752c <func_32+0x3d7>
   174d8:	8b 05 6a 8b 00 00    	mov    0x8b6a(%rip),%eax        # 20048 <g_105>
   174de:	48 63 d0             	movslq %eax,%rdx
   174e1:	8b 05 51 8d 00 00    	mov    0x8d51(%rip),%eax        # 20238 <g_133+0x178>
   174e7:	48 98                	cltq   
   174e9:	48 89 d6             	mov    %rdx,%rsi
   174ec:	48 89 c7             	mov    %rax,%rdi
   174ef:	e8 b4 23 ff ff       	callq  98a8 <safe_sub_func_int64_t_s_s>
   174f4:	8b 95 34 f8 ff ff    	mov    -0x7cc(%rbp),%edx
   174fa:	81 bd 7c f5 ff ff 42 	cmpl   $0x4d42,-0xa84(%rbp)
   17501:	4d 00 00 
   17504:	0f 95 c0             	setne  %al
   17507:	0f b6 c0             	movzbl %al,%eax
   1750a:	31 d0                	xor    %edx,%eax
   1750c:	89 85 34 f8 ff ff    	mov    %eax,-0x7cc(%rbp)
   17512:	be ba 35 ff e7       	mov    $0xe7ff35ba,%esi
   17517:	bf d3 45 40 f0       	mov    $0xf04045d3,%edi
   1751c:	e8 af 29 ff ff       	callq  9ed0 <safe_sub_func_uint32_t_u_u>
   17521:	85 c0                	test   %eax,%eax
   17523:	74 07                	je     1752c <func_32+0x3d7>
   17525:	b8 01 00 00 00       	mov    $0x1,%eax
   1752a:	eb 05                	jmp    17531 <func_32+0x3dc>
   1752c:	b8 00 00 00 00       	mov    $0x0,%eax
   17531:	0f be c0             	movsbl %al,%eax
   17534:	8b 95 7c f5 ff ff    	mov    -0xa84(%rbp),%edx
   1753a:	89 d6                	mov    %edx,%esi
   1753c:	89 c7                	mov    %eax,%edi
   1753e:	e8 5e 1d ff ff       	callq  92a1 <safe_lshift_func_int8_t_s_s>
   17543:	0f be d0             	movsbl %al,%edx
   17546:	8b 05 28 e8 00 00    	mov    0xe828(%rip),%eax        # 25d74 <g_49>
   1754c:	39 c2                	cmp    %eax,%edx
   1754e:	76 10                	jbe    17560 <func_32+0x40b>
   17550:	83 bd 7c f5 ff ff 00 	cmpl   $0x0,-0xa84(%rbp)
   17557:	74 07                	je     17560 <func_32+0x40b>
   17559:	b8 01 00 00 00       	mov    $0x1,%eax
   1755e:	eb 05                	jmp    17565 <func_32+0x410>
   17560:	b8 00 00 00 00       	mov    $0x0,%eax
   17565:	89 85 80 f6 ff ff    	mov    %eax,-0x980(%rbp)
   1756b:	8b 85 80 f6 ff ff    	mov    -0x980(%rbp),%eax
   17571:	39 c3                	cmp    %eax,%ebx
   17573:	0f 9d c0             	setge  %al
   17576:	0f b6 d0             	movzbl %al,%edx
   17579:	48 8b 85 28 f6 ff ff 	mov    -0x9d8(%rbp),%rax
   17580:	8b 00                	mov    (%rax),%eax
   17582:	21 c2                	and    %eax,%edx
   17584:	48 8b 85 28 f6 ff ff 	mov    -0x9d8(%rbp),%rax
   1758b:	89 10                	mov    %edx,(%rax)
   1758d:	8b 05 e1 e7 00 00    	mov    0xe7e1(%rip),%eax        # 25d74 <g_49>
   17593:	83 c0 01             	add    $0x1,%eax
   17596:	89 05 d8 e7 00 00    	mov    %eax,0xe7d8(%rip)        # 25d74 <g_49>
   1759c:	8b 05 d2 e7 00 00    	mov    0xe7d2(%rip),%eax        # 25d74 <g_49>
   175a2:	83 f8 09             	cmp    $0x9,%eax
   175a5:	0f 86 12 fe ff ff    	jbe    173bd <func_32+0x268>
   175ab:	66 c7 05 8c 8a 00 00 	movw   $0x2,0x8a8c(%rip)        # 20040 <g_67>
   175b2:	02 00 
   175b4:	e9 82 06 00 00       	jmpq   17c3b <func_32+0xae6>
   175b9:	48 c7 85 e0 f6 ff ff 	movq   $0x1,-0x920(%rbp)
   175c0:	01 00 00 00 
   175c4:	48 b8 fd b3 9a 11 b1 	movabs $0x543006b1119ab3fd,%rax
   175cb:	06 30 54 
   175ce:	48 89 85 e8 f6 ff ff 	mov    %rax,-0x918(%rbp)
   175d5:	48 c7 85 f0 f6 ff ff 	movq   $0xfffffffffffffffa,-0x910(%rbp)
   175dc:	fa ff ff ff 
   175e0:	48 89 85 f8 f6 ff ff 	mov    %rax,-0x908(%rbp)
   175e7:	48 c7 85 00 f7 ff ff 	movq   $0x1,-0x900(%rbp)
   175ee:	01 00 00 00 
   175f2:	48 c7 85 08 f7 ff ff 	movq   $0x1,-0x8f8(%rbp)
   175f9:	01 00 00 00 
   175fd:	48 89 85 10 f7 ff ff 	mov    %rax,-0x8f0(%rbp)
   17604:	48 c7 85 18 f7 ff ff 	movq   $0xfffffffffffffffa,-0x8e8(%rbp)
   1760b:	fa ff ff ff 
   1760f:	48 89 85 20 f7 ff ff 	mov    %rax,-0x8e0(%rbp)
   17616:	48 c7 85 28 f7 ff ff 	movq   $0x1,-0x8d8(%rbp)
   1761d:	01 00 00 00 
   17621:	48 8d 05 30 8c 00 00 	lea    0x8c30(%rip),%rax        # 20258 <g_174>
   17628:	48 89 85 b0 f5 ff ff 	mov    %rax,-0xa50(%rbp)
   1762f:	c7 85 78 f5 ff ff 6d 	movl   $0x1443286d,-0xa88(%rbp)
   17636:	28 43 14 
   17639:	48 8d 05 10 cd 00 00 	lea    0xcd10(%rip),%rax        # 24350 <g_179>
   17640:	48 89 85 e0 f9 ff ff 	mov    %rax,-0x620(%rbp)
   17647:	48 8d 85 88 f5 ff ff 	lea    -0xa78(%rbp),%rax
   1764e:	48 89 85 e8 f9 ff ff 	mov    %rax,-0x618(%rbp)
   17655:	48 8d 85 88 f5 ff ff 	lea    -0xa78(%rbp),%rax
   1765c:	48 89 85 f0 f9 ff ff 	mov    %rax,-0x610(%rbp)
   17663:	48 8d 05 e6 cc 00 00 	lea    0xcce6(%rip),%rax        # 24350 <g_179>
   1766a:	48 89 85 f8 f9 ff ff 	mov    %rax,-0x608(%rbp)
   17671:	48 8d 05 d8 cc 00 00 	lea    0xccd8(%rip),%rax        # 24350 <g_179>
   17678:	48 89 85 00 fa ff ff 	mov    %rax,-0x600(%rbp)
   1767f:	48 8d 85 88 f5 ff ff 	lea    -0xa78(%rbp),%rax
   17686:	48 89 85 08 fa ff ff 	mov    %rax,-0x5f8(%rbp)
   1768d:	48 8d 85 88 f5 ff ff 	lea    -0xa78(%rbp),%rax
   17694:	48 89 85 10 fa ff ff 	mov    %rax,-0x5f0(%rbp)
   1769b:	48 8d 05 ae cc 00 00 	lea    0xccae(%rip),%rax        # 24350 <g_179>
   176a2:	48 89 85 18 fa ff ff 	mov    %rax,-0x5e8(%rbp)
   176a9:	48 8d 05 a0 cc 00 00 	lea    0xcca0(%rip),%rax        # 24350 <g_179>
   176b0:	48 89 85 20 fa ff ff 	mov    %rax,-0x5e0(%rbp)
   176b7:	48 8d 05 92 cc 00 00 	lea    0xcc92(%rip),%rax        # 24350 <g_179>
   176be:	48 89 85 28 fa ff ff 	mov    %rax,-0x5d8(%rbp)
   176c5:	48 8d 85 88 f5 ff ff 	lea    -0xa78(%rbp),%rax
   176cc:	48 89 85 30 fa ff ff 	mov    %rax,-0x5d0(%rbp)
   176d3:	48 8d 05 76 cc 00 00 	lea    0xcc76(%rip),%rax        # 24350 <g_179>
   176da:	48 89 85 38 fa ff ff 	mov    %rax,-0x5c8(%rbp)
   176e1:	48 8d 85 88 f5 ff ff 	lea    -0xa78(%rbp),%rax
   176e8:	48 89 85 40 fa ff ff 	mov    %rax,-0x5c0(%rbp)
   176ef:	48 8d 05 5a cc 00 00 	lea    0xcc5a(%rip),%rax        # 24350 <g_179>
   176f6:	48 89 85 48 fa ff ff 	mov    %rax,-0x5b8(%rbp)
   176fd:	48 8d 85 88 f5 ff ff 	lea    -0xa78(%rbp),%rax
   17704:	48 89 85 50 fa ff ff 	mov    %rax,-0x5b0(%rbp)
   1770b:	48 8d 05 3e cc 00 00 	lea    0xcc3e(%rip),%rax        # 24350 <g_179>
   17712:	48 89 85 58 fa ff ff 	mov    %rax,-0x5a8(%rbp)
   17719:	48 8d 85 88 f5 ff ff 	lea    -0xa78(%rbp),%rax
   17720:	48 89 85 60 fa ff ff 	mov    %rax,-0x5a0(%rbp)
   17727:	48 8d 05 22 cc 00 00 	lea    0xcc22(%rip),%rax        # 24350 <g_179>
   1772e:	48 89 85 68 fa ff ff 	mov    %rax,-0x598(%rbp)
   17735:	c6 85 5d f5 ff ff ff 	movb   $0xff,-0xaa3(%rbp)
   1773c:	48 8d 05 01 89 00 00 	lea    0x8901(%rip),%rax        # 20044 <g_101>
   17743:	48 89 85 b8 f5 ff ff 	mov    %rax,-0xa48(%rbp)
   1774a:	48 8d 05 27 e6 00 00 	lea    0xe627(%rip),%rax        # 25d78 <g_185>
   17751:	48 89 85 c0 f5 ff ff 	mov    %rax,-0xa40(%rbp)
   17758:	48 8d 05 01 8b 00 00 	lea    0x8b01(%rip),%rax        # 20260 <g_203>
   1775f:	48 89 85 c8 f5 ff ff 	mov    %rax,-0xa38(%rbp)
   17766:	48 c7 85 d0 f5 ff ff 	movq   $0x0,-0xa30(%rbp)
   1776d:	00 00 00 00 
   17771:	48 c7 85 d8 f5 ff ff 	movq   $0x0,-0xa28(%rbp)
   17778:	00 00 00 00 
   1777c:	48 8d 85 5e f5 ff ff 	lea    -0xaa2(%rbp),%rax
   17783:	48 89 85 e0 f5 ff ff 	mov    %rax,-0xa20(%rbp)
   1778a:	48 8d 05 d7 8a 00 00 	lea    0x8ad7(%rip),%rax        # 20268 <g_209>
   17791:	48 89 85 e8 f5 ff ff 	mov    %rax,-0xa18(%rbp)
   17798:	8b 85 6c f5 ff ff    	mov    -0xa94(%rbp),%eax
   1779e:	0f bf d8             	movswl %ax,%ebx
   177a1:	0f b7 05 98 88 00 00 	movzwl 0x8898(%rip),%eax        # 20040 <g_67>
   177a8:	0f b7 c0             	movzwl %ax,%eax
   177ab:	8b 15 97 88 00 00    	mov    0x8897(%rip),%edx        # 20048 <g_105>
   177b1:	48 63 ca             	movslq %edx,%rcx
   177b4:	48 63 d0             	movslq %eax,%rdx
   177b7:	48 89 d0             	mov    %rdx,%rax
   177ba:	48 c1 e0 02          	shl    $0x2,%rax
   177be:	48 01 d0             	add    %rdx,%rax
   177c1:	48 01 c0             	add    %rax,%rax
   177c4:	48 01 c8             	add    %rcx,%rax
   177c7:	8b 94 85 30 f7 ff ff 	mov    -0x8d0(%rbp,%rax,4),%edx
   177ce:	8b 85 34 f8 ff ff    	mov    -0x7cc(%rbp),%eax
   177d4:	09 d0                	or     %edx,%eax
   177d6:	4c 63 f8             	movslq %eax,%r15
   177d9:	8b 05 95 e5 00 00    	mov    0xe595(%rip),%eax        # 25d74 <g_49>
   177df:	89 85 3c f5 ff ff    	mov    %eax,-0xac4(%rbp)
   177e5:	8b 85 68 f5 ff ff    	mov    -0xa98(%rbp),%eax
   177eb:	44 0f b6 e0          	movzbl %al,%r12d
   177ef:	48 8b 85 40 f5 ff ff 	mov    -0xac0(%rbp),%rax
   177f6:	0f b6 00             	movzbl (%rax),%eax
   177f9:	44 0f be e8          	movsbl %al,%r13d
   177fd:	8b 85 70 f5 ff ff    	mov    -0xa90(%rbp),%eax
   17803:	4c 63 f0             	movslq %eax,%r14
   17806:	48 8b 85 b0 f5 ff ff 	mov    -0xa50(%rbp),%rax
   1780d:	8b 10                	mov    (%rax),%edx
   1780f:	48 8d 05 1a 88 00 00 	lea    0x881a(%rip),%rax        # 20030 <g_58>
   17816:	48 39 85 98 f5 ff ff 	cmp    %rax,-0xa68(%rbp)
   1781d:	0f 95 c0             	setne  %al
   17820:	0f b6 c8             	movzbl %al,%ecx
   17823:	48 8b 05 1e cb 00 00 	mov    0xcb1e(%rip),%rax        # 24348 <g_123>
   1782a:	48 8b 00             	mov    (%rax),%rax
   1782d:	48 39 c1             	cmp    %rax,%rcx
   17830:	0f 95 c0             	setne  %al
   17833:	0f b6 c0             	movzbl %al,%eax
   17836:	09 c2                	or     %eax,%edx
   17838:	48 8b 85 b0 f5 ff ff 	mov    -0xa50(%rbp),%rax
   1783f:	89 10                	mov    %edx,(%rax)
   17841:	48 8b 85 a0 f5 ff ff 	mov    -0xa60(%rbp),%rax
   17848:	48 89 05 19 cb 00 00 	mov    %rax,0xcb19(%rip)        # 24368 <g_178+0x8>
   1784f:	48 8b 15 12 cb 00 00 	mov    0xcb12(%rip),%rdx        # 24368 <g_178+0x8>
   17856:	48 8b 85 e8 f9 ff ff 	mov    -0x618(%rbp),%rax
   1785d:	48 39 c2             	cmp    %rax,%rdx
   17860:	0f 95 c0             	setne  %al
   17863:	0f b6 d0             	movzbl %al,%edx
   17866:	0f b7 05 bb 87 00 00 	movzwl 0x87bb(%rip),%eax        # 20028 <g_56>
   1786d:	98                   	cwtl   
   1786e:	31 d0                	xor    %edx,%eax
   17870:	89 c2                	mov    %eax,%edx
   17872:	8b 85 34 f8 ff ff    	mov    -0x7cc(%rbp),%eax
   17878:	89 c1                	mov    %eax,%ecx
   1787a:	8b 05 c4 87 00 00    	mov    0x87c4(%rip),%eax        # 20044 <g_101>
   17880:	39 c1                	cmp    %eax,%ecx
   17882:	0f 95 c0             	setne  %al
   17885:	0f b6 c0             	movzbl %al,%eax
   17888:	89 d6                	mov    %edx,%esi
   1788a:	89 c7                	mov    %eax,%edi
   1788c:	e8 27 26 ff ff       	callq  9eb8 <safe_add_func_uint32_t_u_u>
   17891:	48 8b 85 40 f5 ff ff 	mov    -0xac0(%rbp),%rax
   17898:	0f b6 00             	movzbl (%rax),%eax
   1789b:	0f b6 c0             	movzbl %al,%eax
   1789e:	be 04 00 00 00       	mov    $0x4,%esi
   178a3:	89 c7                	mov    %eax,%edi
   178a5:	e8 e9 22 ff ff       	callq  9b93 <safe_mul_func_uint8_t_u_u>
   178aa:	0f be c0             	movsbl %al,%eax
   178ad:	be 05 00 00 00       	mov    $0x5,%esi
   178b2:	89 c7                	mov    %eax,%edi
   178b4:	e8 35 1a ff ff       	callq  92ee <safe_lshift_func_int8_t_s_u>
   178b9:	66 98                	cbtw   
   178bb:	0f b7 c0             	movzwl %ax,%eax
   178be:	8b 95 68 f5 ff ff    	mov    -0xa98(%rbp),%edx
   178c4:	89 d6                	mov    %edx,%esi
   178c6:	89 c7                	mov    %eax,%edi
   178c8:	e8 f1 24 ff ff       	callq  9dbe <safe_lshift_func_uint16_t_u_s>
   178cd:	8b 95 80 f6 ff ff    	mov    -0x980(%rbp),%edx
   178d3:	8b 8d 08 f8 ff ff    	mov    -0x7f8(%rbp),%ecx
   178d9:	8b 05 75 89 00 00    	mov    0x8975(%rip),%eax        # 20254 <g_146>
   178df:	21 c8                	and    %ecx,%eax
   178e1:	85 c0                	test   %eax,%eax
   178e3:	0f 94 c0             	sete   %al
   178e6:	0f b6 c0             	movzbl %al,%eax
   178e9:	39 85 70 f5 ff ff    	cmp    %eax,-0xa90(%rbp)
   178ef:	0f 9d c0             	setge  %al
   178f2:	0f b6 c0             	movzbl %al,%eax
   178f5:	39 c2                	cmp    %eax,%edx
   178f7:	74 10                	je     17909 <func_32+0x7b4>
   178f9:	80 bd 5d f5 ff ff 00 	cmpb   $0x0,-0xaa3(%rbp)
   17900:	74 07                	je     17909 <func_32+0x7b4>
   17902:	b8 01 00 00 00       	mov    $0x1,%eax
   17907:	eb 05                	jmp    1790e <func_32+0x7b9>
   17909:	b8 00 00 00 00       	mov    $0x0,%eax
   1790e:	48 98                	cltq   
   17910:	48 ba 92 27 93 b4 4a 	movabs $0xcc9ead4ab4932792,%rdx
   17917:	ad 9e cc 
   1791a:	48 09 d0             	or     %rdx,%rax
   1791d:	4c 89 f6             	mov    %r14,%rsi
   17920:	48 89 c7             	mov    %rax,%rdi
   17923:	e8 cf 20 ff ff       	callq  99f7 <safe_div_func_int64_t_s_s>
   17928:	0f b7 05 11 87 00 00 	movzwl 0x8711(%rip),%eax        # 20040 <g_67>
   1792f:	0f b7 c0             	movzwl %ax,%eax
   17932:	8b 15 10 87 00 00    	mov    0x8710(%rip),%edx        # 20048 <g_105>
   17938:	48 63 ca             	movslq %edx,%rcx
   1793b:	48 63 d0             	movslq %eax,%rdx
   1793e:	48 89 d0             	mov    %rdx,%rax
   17941:	48 c1 e0 02          	shl    $0x2,%rax
   17945:	48 01 d0             	add    %rdx,%rax
   17948:	48 01 c0             	add    %rax,%rax
   1794b:	48 01 c8             	add    %rcx,%rax
   1794e:	8b 84 85 30 f7 ff ff 	mov    -0x8d0(%rbp,%rax,4),%eax
   17955:	89 85 80 f6 ff ff    	mov    %eax,-0x980(%rbp)
   1795b:	8b 85 80 f6 ff ff    	mov    -0x980(%rbp),%eax
   17961:	0f be c0             	movsbl %al,%eax
   17964:	be fc ff ff ff       	mov    $0xfffffffc,%esi
   17969:	89 c7                	mov    %eax,%edi
   1796b:	e8 fa 18 ff ff       	callq  926a <safe_div_func_int8_t_s_s>
   17970:	0f be d0             	movsbl %al,%edx
   17973:	48 8b 85 b8 f5 ff ff 	mov    -0xa48(%rbp),%rax
   1797a:	89 10                	mov    %edx,(%rax)
   1797c:	48 8b 85 b8 f5 ff ff 	mov    -0xa48(%rbp),%rax
   17983:	8b 00                	mov    (%rax),%eax
   17985:	8b 95 28 f8 ff ff    	mov    -0x7d8(%rbp),%edx
   1798b:	09 d0                	or     %edx,%eax
   1798d:	3d 9d 35 f3 9a       	cmp    $0x9af3359d,%eax
   17992:	76 09                	jbe    1799d <func_32+0x848>
   17994:	80 bd 5d f5 ff ff 00 	cmpb   $0x0,-0xaa3(%rbp)
   1799b:	74 07                	je     179a4 <func_32+0x84f>
   1799d:	b8 01 00 00 00       	mov    $0x1,%eax
   179a2:	eb 05                	jmp    179a9 <func_32+0x854>
   179a4:	b8 00 00 00 00       	mov    $0x0,%eax
   179a9:	48 63 d0             	movslq %eax,%rdx
   179ac:	48 8b 05 95 c9 00 00 	mov    0xc995(%rip),%rax        # 24348 <g_123>
   179b3:	48 8b 00             	mov    (%rax),%rax
   179b6:	48 39 c2             	cmp    %rax,%rdx
   179b9:	0f 92 c0             	setb   %al
   179bc:	0f b6 d0             	movzbl %al,%edx
   179bf:	0f b6 85 f8 f6 ff ff 	movzbl -0x908(%rbp),%eax
   179c6:	0f be c0             	movsbl %al,%eax
   179c9:	39 c2                	cmp    %eax,%edx
   179cb:	0f b7 05 6e 86 00 00 	movzwl 0x866e(%rip),%eax        # 20040 <g_67>
   179d2:	0f b7 c0             	movzwl %ax,%eax
   179d5:	48 63 d0             	movslq %eax,%rdx
   179d8:	48 89 d0             	mov    %rdx,%rax
   179db:	48 c1 e0 02          	shl    $0x2,%rax
   179df:	48 01 d0             	add    %rdx,%rax
   179e2:	48 01 c0             	add    %rax,%rax
   179e5:	8b 85 6c f5 ff ff    	mov    -0xa94(%rbp),%eax
   179eb:	0f be c0             	movsbl %al,%eax
   179ee:	44 89 ee             	mov    %r13d,%esi
   179f1:	89 c7                	mov    %eax,%edi
   179f3:	e8 fa 17 ff ff       	callq  91f2 <safe_sub_func_int8_t_s_s>
   179f8:	84 c0                	test   %al,%al
   179fa:	74 07                	je     17a03 <func_32+0x8ae>
   179fc:	ba 01 00 00 00       	mov    $0x1,%edx
   17a01:	eb 05                	jmp    17a08 <func_32+0x8b3>
   17a03:	ba 00 00 00 00       	mov    $0x0,%edx
   17a08:	8b 05 46 88 00 00    	mov    0x8846(%rip),%eax        # 20254 <g_146>
   17a0e:	39 c2                	cmp    %eax,%edx
   17a10:	0f 9d c0             	setge  %al
   17a13:	0f b6 c0             	movzbl %al,%eax
   17a16:	39 85 6c f5 ff ff    	cmp    %eax,-0xa94(%rbp)
   17a1c:	0f 95 c2             	setne  %dl
   17a1f:	48 8b 85 a0 f5 ff ff 	mov    -0xa60(%rbp),%rax
   17a26:	48 8b 00             	mov    (%rax),%rax
   17a29:	88 10                	mov    %dl,(%rax)
   17a2b:	0f b6 00             	movzbl (%rax),%eax
   17a2e:	0f b6 c0             	movzbl %al,%eax
   17a31:	44 89 e6             	mov    %r12d,%esi
   17a34:	89 c7                	mov    %eax,%edi
   17a36:	e8 73 21 ff ff       	callq  9bae <safe_mod_func_uint8_t_u_u>
   17a3b:	be 00 00 00 00       	mov    $0x0,%esi
   17a40:	bf 01 00 00 00       	mov    $0x1,%edi
   17a45:	e8 f3 22 ff ff       	callq  9d3d <safe_mul_func_uint16_t_u_u>
   17a4a:	0f b7 c0             	movzwl %ax,%eax
   17a4d:	33 85 3c f5 ff ff    	xor    -0xac4(%rbp),%eax
   17a53:	89 c0                	mov    %eax,%eax
   17a55:	25 e6 20 00 00       	and    $0x20e6,%eax
   17a5a:	49 39 c7             	cmp    %rax,%r15
   17a5d:	0f 9e c0             	setle  %al
   17a60:	0f b6 c0             	movzbl %al,%eax
   17a63:	89 de                	mov    %ebx,%esi
   17a65:	89 c7                	mov    %eax,%edi
   17a67:	e8 89 19 ff ff       	callq  93f5 <safe_mul_func_int16_t_s_s>
   17a6c:	48 8b 95 c0 f5 ff ff 	mov    -0xa40(%rbp),%rdx
   17a73:	8b 12                	mov    (%rdx),%edx
   17a75:	98                   	cwtl   
   17a76:	09 c2                	or     %eax,%edx
   17a78:	48 8b 85 c0 f5 ff ff 	mov    -0xa40(%rbp),%rax
   17a7f:	89 10                	mov    %edx,(%rax)
   17a81:	b8 b0 0e 00 00       	mov    $0xeb0,%eax
   17a86:	0f bf d8             	movswl %ax,%ebx
   17a89:	8b 85 34 f8 ff ff    	mov    -0x7cc(%rbp),%eax
   17a8f:	41 89 c6             	mov    %eax,%r14d
   17a92:	44 0f b6 a5 5b f5 ff 	movzbl -0xaa5(%rbp),%r12d
   17a99:	ff 
   17a9a:	b8 b0 0e 00 00       	mov    $0xeb0,%eax
   17a9f:	44 0f bf e8          	movswl %ax,%r13d
   17aa3:	0f b7 85 5e f5 ff ff 	movzwl -0xaa2(%rbp),%eax
   17aaa:	0f b7 c0             	movzwl %ax,%eax
   17aad:	89 c6                	mov    %eax,%esi
   17aaf:	bf fe ff 00 00       	mov    $0xfffe,%edi
   17ab4:	e8 46 22 ff ff       	callq  9cff <safe_add_func_uint16_t_u_u>
   17ab9:	0f b7 d0             	movzwl %ax,%edx
   17abc:	48 8b 85 c0 f5 ff ff 	mov    -0xa40(%rbp),%rax
   17ac3:	89 10                	mov    %edx,(%rax)
   17ac5:	48 8b 85 c0 f5 ff ff 	mov    -0xa40(%rbp),%rax
   17acc:	8b 10                	mov    (%rax),%edx
   17ace:	81 bd 68 f5 ff ff 17 	cmpl   $0x5c17,-0xa98(%rbp)
   17ad5:	5c 00 00 
   17ad8:	0f 9e c0             	setle  %al
   17adb:	0f b6 c0             	movzbl %al,%eax
   17ade:	39 c2                	cmp    %eax,%edx
   17ae0:	75 0a                	jne    17aec <func_32+0x997>
   17ae2:	b8 b0 0e 00 00       	mov    $0xeb0,%eax
   17ae7:	66 85 c0             	test   %ax,%ax
   17aea:	74 07                	je     17af3 <func_32+0x99e>
   17aec:	b8 01 00 00 00       	mov    $0x1,%eax
   17af1:	eb 05                	jmp    17af8 <func_32+0x9a3>
   17af3:	b8 00 00 00 00       	mov    $0x0,%eax
   17af8:	89 c2                	mov    %eax,%edx
   17afa:	48 8b 85 b8 f5 ff ff 	mov    -0xa48(%rbp),%rax
   17b01:	89 10                	mov    %edx,(%rax)
   17b03:	48 8b 85 b8 f5 ff ff 	mov    -0xa48(%rbp),%rax
   17b0a:	8b 00                	mov    (%rax),%eax
   17b0c:	85 c0                	test   %eax,%eax
   17b0e:	74 64                	je     17b74 <func_32+0xa1f>
   17b10:	48 8b 05 31 c8 00 00 	mov    0xc831(%rip),%rax        # 24348 <g_123>
   17b17:	48 8b 00             	mov    (%rax),%rax
   17b1a:	89 c1                	mov    %eax,%ecx
   17b1c:	8b 85 80 f6 ff ff    	mov    -0x980(%rbp),%eax
   17b22:	48 63 d0             	movslq %eax,%rdx
   17b25:	48 8b 85 c8 f5 ff ff 	mov    -0xa38(%rbp),%rax
   17b2c:	48 89 10             	mov    %rdx,(%rax)
   17b2f:	48 8b 85 c8 f5 ff ff 	mov    -0xa38(%rbp),%rax
   17b36:	48 8b 00             	mov    (%rax),%rax
   17b39:	21 c8                	and    %ecx,%eax
   17b3b:	89 c2                	mov    %eax,%edx
   17b3d:	48 8b 85 e0 f5 ff ff 	mov    -0xa20(%rbp),%rax
   17b44:	66 89 10             	mov    %dx,(%rax)
   17b47:	48 8b 85 e0 f5 ff ff 	mov    -0xa20(%rbp),%rax
   17b4e:	0f b7 00             	movzwl (%rax),%eax
   17b51:	98                   	cwtl   
   17b52:	be 23 12 00 00       	mov    $0x1223,%esi
   17b57:	89 c7                	mov    %eax,%edi
   17b59:	e8 97 18 ff ff       	callq  93f5 <safe_mul_func_int16_t_s_s>
   17b5e:	0f be c0             	movsbl %al,%eax
   17b61:	be 04 00 00 00       	mov    $0x4,%esi
   17b66:	89 c7                	mov    %eax,%edi
   17b68:	e8 c8 17 ff ff       	callq  9335 <safe_rshift_func_int8_t_s_s>
   17b6d:	b8 01 00 00 00       	mov    $0x1,%eax
   17b72:	eb 05                	jmp    17b79 <func_32+0xa24>
   17b74:	b8 00 00 00 00       	mov    $0x0,%eax
   17b79:	89 85 88 f6 ff ff    	mov    %eax,-0x978(%rbp)
   17b7f:	8b 85 88 f6 ff ff    	mov    -0x978(%rbp),%eax
   17b85:	98                   	cwtl   
   17b86:	44 89 ee             	mov    %r13d,%esi
   17b89:	89 c7                	mov    %eax,%edi
   17b8b:	e8 d3 19 ff ff       	callq  9563 <safe_rshift_func_int16_t_s_u>
   17b90:	0f bf d0             	movswl %ax,%edx
   17b93:	8b 85 34 f8 ff ff    	mov    -0x7cc(%rbp),%eax
   17b99:	39 c2                	cmp    %eax,%edx
   17b9b:	0f 9d c0             	setge  %al
   17b9e:	0f b6 c0             	movzbl %al,%eax
   17ba1:	66 89 05 80 84 00 00 	mov    %ax,0x8480(%rip)        # 20028 <g_56>
   17ba8:	0f b7 05 79 84 00 00 	movzwl 0x8479(%rip),%eax        # 20028 <g_56>
   17baf:	98                   	cwtl   
   17bb0:	44 89 e6             	mov    %r12d,%esi
   17bb3:	89 c7                	mov    %eax,%edi
   17bb5:	e8 f9 17 ff ff       	callq  93b3 <safe_add_func_int16_t_s_s>
   17bba:	98                   	cwtl   
   17bbb:	44 89 f6             	mov    %r14d,%esi
   17bbe:	89 c7                	mov    %eax,%edi
   17bc0:	e8 38 23 ff ff       	callq  9efd <safe_mod_func_uint32_t_u_u>
   17bc5:	48 8b 05 84 c7 00 00 	mov    0xc784(%rip),%rax        # 24350 <g_179>
   17bcc:	c6 00 ff             	movb   $0xff,(%rax)
   17bcf:	0f b6 00             	movzbl (%rax),%eax
   17bd2:	0f b6 c0             	movzbl %al,%eax
   17bd5:	89 de                	mov    %ebx,%esi
   17bd7:	89 c7                	mov    %eax,%edi
   17bd9:	e8 27 20 ff ff       	callq  9c05 <safe_lshift_func_uint8_t_u_s>
   17bde:	48 8b 95 e8 f5 ff ff 	mov    -0xa18(%rbp),%rdx
   17be5:	8b 12                	mov    (%rdx),%edx
   17be7:	0f b6 c0             	movzbl %al,%eax
   17bea:	21 c2                	and    %eax,%edx
   17bec:	48 8b 85 e8 f5 ff ff 	mov    -0xa18(%rbp),%rax
   17bf3:	89 10                	mov    %edx,(%rax)
   17bf5:	c7 05 69 86 00 00 08 	movl   $0x8,0x8669(%rip)        # 20268 <g_209>
   17bfc:	00 00 00 
   17bff:	90                   	nop
   17c00:	8b 05 62 86 00 00    	mov    0x8662(%rip),%eax        # 20268 <g_209>
   17c06:	85 c0                	test   %eax,%eax
   17c08:	78 20                	js     17c2a <func_32+0xad5>
   17c0a:	48 8b 05 2f c7 00 00 	mov    0xc72f(%rip),%rax        # 24340 <g_106>
   17c11:	8b 10                	mov    (%rax),%edx
   17c13:	48 8b 85 c0 f5 ff ff 	mov    -0xa40(%rbp),%rax
   17c1a:	89 10                	mov    %edx,(%rax)
   17c1c:	48 8b 85 c0 f5 ff ff 	mov    -0xa40(%rbp),%rax
   17c23:	8b 00                	mov    (%rax),%eax
   17c25:	e9 06 02 00 00       	jmpq   17e30 <func_32+0xcdb>
   17c2a:	0f b7 05 0f 84 00 00 	movzwl 0x840f(%rip),%eax        # 20040 <g_67>
   17c31:	83 c0 01             	add    $0x1,%eax
   17c34:	66 89 05 05 84 00 00 	mov    %ax,0x8405(%rip)        # 20040 <g_67>
   17c3b:	0f b7 05 fe 83 00 00 	movzwl 0x83fe(%rip),%eax        # 20040 <g_67>
   17c42:	66 83 f8 06          	cmp    $0x6,%ax
   17c46:	0f 86 6d f9 ff ff    	jbe    175b9 <func_32+0x464>
   17c4c:	48 8b 85 a8 f5 ff ff 	mov    -0xa58(%rbp),%rax
   17c53:	0f b7 00             	movzwl (%rax),%eax
   17c56:	66 0d b0 4a          	or     $0x4ab0,%ax
   17c5a:	89 c2                	mov    %eax,%edx
   17c5c:	48 8b 85 a8 f5 ff ff 	mov    -0xa58(%rbp),%rax
   17c63:	66 89 10             	mov    %dx,(%rax)
   17c66:	8b 05 dc 83 00 00    	mov    0x83dc(%rip),%eax        # 20048 <g_105>
   17c6c:	4c 63 f8             	movslq %eax,%r15
   17c6f:	8b 05 03 e1 00 00    	mov    0xe103(%rip),%eax        # 25d78 <g_185>
   17c75:	0f bf d8             	movswl %ax,%ebx
   17c78:	8b 85 74 f5 ff ff    	mov    -0xa8c(%rbp),%eax
   17c7e:	44 0f bf e0          	movswl %ax,%r12d
   17c82:	8b 05 e4 85 00 00    	mov    0x85e4(%rip),%eax        # 2026c <g_211>
   17c88:	44 0f bf e8          	movswl %ax,%r13d
   17c8c:	8b 85 34 f8 ff ff    	mov    -0x7cc(%rbp),%eax
   17c92:	89 85 3c f5 ff ff    	mov    %eax,-0xac4(%rbp)
   17c98:	b8 b0 0e 00 00       	mov    $0xeb0,%eax
   17c9d:	44 0f bf f0          	movswl %ax,%r14d
   17ca1:	8b 05 a1 83 00 00    	mov    0x83a1(%rip),%eax        # 20048 <g_105>
   17ca7:	f7 d0                	not    %eax
   17ca9:	c1 e8 1f             	shr    $0x1f,%eax
   17cac:	0f b6 c0             	movzbl %al,%eax
   17caf:	48 be 53 a1 ad 7e 05 	movabs $0x4fa4b9057eada153,%rsi
   17cb6:	b9 a4 4f 
   17cb9:	48 89 c7             	mov    %rax,%rdi
   17cbc:	e8 80 1b ff ff       	callq  9841 <safe_add_func_int64_t_s_s>
   17cc1:	8b 85 70 f5 ff ff    	mov    -0xa90(%rbp),%eax
   17cc7:	44 89 f6             	mov    %r14d,%esi
   17cca:	89 c7                	mov    %eax,%edi
   17ccc:	e8 fb 19 ff ff       	callq  96cc <safe_mod_func_int32_t_s_s>
   17cd1:	23 85 3c f5 ff ff    	and    -0xac4(%rbp),%eax
   17cd7:	89 85 d0 f7 ff ff    	mov    %eax,-0x830(%rbp)
   17cdd:	8b 85 d0 f7 ff ff    	mov    -0x830(%rbp),%eax
   17ce3:	89 85 5c f6 ff ff    	mov    %eax,-0x9a4(%rbp)
   17ce9:	8b 85 5c f6 ff ff    	mov    -0x9a4(%rbp),%eax
   17cef:	48 63 d0             	movslq %eax,%rdx
   17cf2:	48 8b 05 67 85 00 00 	mov    0x8567(%rip),%rax        # 20260 <g_203>
   17cf9:	48 39 c2             	cmp    %rax,%rdx
   17cfc:	0f 95 c0             	setne  %al
   17cff:	0f b6 c0             	movzbl %al,%eax
   17d02:	48 f7 d0             	not    %rax
   17d05:	89 c2                	mov    %eax,%edx
   17d07:	0f b7 05 32 83 00 00 	movzwl 0x8332(%rip),%eax        # 20040 <g_67>
   17d0e:	31 d0                	xor    %edx,%eax
   17d10:	66 89 05 29 83 00 00 	mov    %ax,0x8329(%rip)        # 20040 <g_67>
   17d17:	0f b7 05 22 83 00 00 	movzwl 0x8322(%rip),%eax        # 20040 <g_67>
   17d1e:	0f b7 c0             	movzwl %ax,%eax
   17d21:	8b 95 70 f5 ff ff    	mov    -0xa90(%rbp),%edx
   17d27:	89 d6                	mov    %edx,%esi
   17d29:	89 c7                	mov    %eax,%edi
   17d2b:	e8 18 21 ff ff       	callq  9e48 <safe_rshift_func_uint16_t_u_s>
   17d30:	0f b7 d0             	movzwl %ax,%edx
   17d33:	48 8b 05 0e c6 00 00 	mov    0xc60e(%rip),%rax        # 24348 <g_123>
   17d3a:	48 8b 00             	mov    (%rax),%rax
   17d3d:	48 39 c2             	cmp    %rax,%rdx
   17d40:	0f 92 c0             	setb   %al
   17d43:	0f b6 c0             	movzbl %al,%eax
   17d46:	44 89 ee             	mov    %r13d,%esi
   17d49:	89 c7                	mov    %eax,%edi
   17d4b:	e8 c6 16 ff ff       	callq  9416 <safe_mod_func_int16_t_s_s>
   17d50:	80 bd 5c f5 ff ff 00 	cmpb   $0x0,-0xaa4(%rbp)
   17d57:	74 07                	je     17d60 <func_32+0xc0b>
   17d59:	b8 01 00 00 00       	mov    $0x1,%eax
   17d5e:	eb 05                	jmp    17d65 <func_32+0xc10>
   17d60:	b8 00 00 00 00       	mov    $0x0,%eax
   17d65:	89 c2                	mov    %eax,%edx
   17d67:	48 8b 85 40 f5 ff ff 	mov    -0xac0(%rbp),%rax
   17d6e:	0f b6 00             	movzbl (%rax),%eax
   17d71:	0f b6 c0             	movzbl %al,%eax
   17d74:	31 d0                	xor    %edx,%eax
   17d76:	98                   	cwtl   
   17d77:	44 89 e6             	mov    %r12d,%esi
   17d7a:	89 c7                	mov    %eax,%edi
   17d7c:	e8 95 16 ff ff       	callq  9416 <safe_mod_func_int16_t_s_s>
   17d81:	98                   	cwtl   
   17d82:	89 de                	mov    %ebx,%esi
   17d84:	89 c7                	mov    %eax,%edi
   17d86:	e8 48 16 ff ff       	callq  93d3 <safe_sub_func_int16_t_s_s>
   17d8b:	8b 85 34 f8 ff ff    	mov    -0x7cc(%rbp),%eax
   17d91:	0f be c0             	movsbl %al,%eax
   17d94:	be 01 00 00 00       	mov    $0x1,%esi
   17d99:	89 c7                	mov    %eax,%edi
   17d9b:	e8 01 15 ff ff       	callq  92a1 <safe_lshift_func_int8_t_s_s>
   17da0:	84 c0                	test   %al,%al
   17da2:	74 11                	je     17db5 <func_32+0xc60>
   17da4:	8b 05 c6 84 00 00    	mov    0x84c6(%rip),%eax        # 20270 <g_220>
   17daa:	85 c0                	test   %eax,%eax
   17dac:	74 07                	je     17db5 <func_32+0xc60>
   17dae:	b8 01 00 00 00       	mov    $0x1,%eax
   17db3:	eb 05                	jmp    17dba <func_32+0xc65>
   17db5:	b8 00 00 00 00       	mov    $0x0,%eax
   17dba:	48 63 d0             	movslq %eax,%rdx
   17dbd:	0f b7 85 5e f5 ff ff 	movzwl -0xaa2(%rbp),%eax
   17dc4:	98                   	cwtl   
   17dc5:	8b 8d 68 f5 ff ff    	mov    -0xa98(%rbp),%ecx
   17dcb:	f7 d1                	not    %ecx
   17dcd:	21 c8                	and    %ecx,%eax
   17dcf:	48 98                	cltq   
   17dd1:	48 89 d6             	mov    %rdx,%rsi
   17dd4:	48 89 c7             	mov    %rax,%rdi
   17dd7:	e8 65 1a ff ff       	callq  9841 <safe_add_func_int64_t_s_s>
   17ddc:	4c 31 f8             	xor    %r15,%rax
   17ddf:	48 89 05 7a 84 00 00 	mov    %rax,0x847a(%rip)        # 20260 <g_203>
   17de6:	48 8b 05 73 84 00 00 	mov    0x8473(%rip),%rax        # 20260 <g_203>
   17ded:	48 83 f8 ff          	cmp    $0xffffffffffffffff,%rax
   17df1:	0f 95 c2             	setne  %dl
   17df4:	48 8b 05 95 c5 00 00 	mov    0xc595(%rip),%rax        # 24390 <g_235>
   17dfb:	0f b6 d2             	movzbl %dl,%edx
   17dfe:	89 10                	mov    %edx,(%rax)
   17e00:	48 8b 05 39 c5 00 00 	mov    0xc539(%rip),%rax        # 24340 <g_106>
   17e07:	8b 00                	mov    (%rax),%eax
   17e09:	85 c0                	test   %eax,%eax
   17e0b:	8b 05 37 82 00 00    	mov    0x8237(%rip),%eax        # 20048 <g_105>
   17e11:	83 c0 01             	add    $0x1,%eax
   17e14:	89 05 2e 82 00 00    	mov    %eax,0x822e(%rip)        # 20048 <g_105>
   17e1a:	8b 05 28 82 00 00    	mov    0x8228(%rip),%eax        # 20048 <g_105>
   17e20:	83 f8 09             	cmp    $0x9,%eax
   17e23:	0f 8e 0e f4 ff ff    	jle    17237 <func_32+0xe2>
   17e29:	0f b6 85 5c f5 ff ff 	movzbl -0xaa4(%rbp),%eax
   17e30:	48 8b 5d c8          	mov    -0x38(%rbp),%rbx
   17e34:	64 48 33 1c 25 28 00 	xor    %fs:0x28,%rbx
   17e3b:	00 00 
   17e3d:	74 05                	je     17e44 <func_32+0xcef>
   17e3f:	e8 2c 12 ff ff       	callq  9070 <__stack_chk_fail@plt>
   17e44:	48 81 c4 a8 0a 00 00 	add    $0xaa8,%rsp
   17e4b:	5b                   	pop    %rbx
   17e4c:	41 5c                	pop    %r12
   17e4e:	41 5d                	pop    %r13
   17e50:	41 5e                	pop    %r14
   17e52:	41 5f                	pop    %r15
   17e54:	5d                   	pop    %rbp
   17e55:	c3                   	retq   

0000000000017e56 <func_35>:
   17e56:	f3 0f 1e fa          	endbr64 
   17e5a:	55                   	push   %rbp
   17e5b:	48 89 e5             	mov    %rsp,%rbp
   17e5e:	48 83 ec 50          	sub    $0x50,%rsp
   17e62:	48 89 7d c8          	mov    %rdi,-0x38(%rbp)
   17e66:	48 89 75 c0          	mov    %rsi,-0x40(%rbp)
   17e6a:	89 55 bc             	mov    %edx,-0x44(%rbp)
   17e6d:	64 48 8b 04 25 28 00 	mov    %fs:0x28,%rax
   17e74:	00 00 
   17e76:	48 89 45 f8          	mov    %rax,-0x8(%rbp)
   17e7a:	31 c0                	xor    %eax,%eax
   17e7c:	48 c7 45 e0 00 00 00 	movq   $0x0,-0x20(%rbp)
   17e83:	00 
   17e84:	48 c7 45 e8 00 00 00 	movq   $0x0,-0x18(%rbp)
   17e8b:	00 
   17e8c:	48 c7 45 d8 00 00 00 	movq   $0x0,-0x28(%rbp)
   17e93:	00 
   17e94:	48 8d 45 d8          	lea    -0x28(%rbp),%rax
   17e98:	48 89 45 f0          	mov    %rax,-0x10(%rbp)
   17e9c:	c7 05 9e 81 00 00 f8 	movl   $0xfffffff8,0x819e(%rip)        # 20044 <g_101>
   17ea3:	ff ff ff 
   17ea6:	eb 15                	jmp    17ebd <func_35+0x67>
   17ea8:	83 7d bc 00          	cmpl   $0x0,-0x44(%rbp)
   17eac:	75 1c                	jne    17eca <func_35+0x74>
   17eae:	8b 05 90 81 00 00    	mov    0x8190(%rip),%eax        # 20044 <g_101>
   17eb4:	83 c0 01             	add    $0x1,%eax
   17eb7:	89 05 87 81 00 00    	mov    %eax,0x8187(%rip)        # 20044 <g_101>
   17ebd:	8b 05 81 81 00 00    	mov    0x8181(%rip),%eax        # 20044 <g_101>
   17ec3:	83 f8 20             	cmp    $0x20,%eax
   17ec6:	77 e0                	ja     17ea8 <func_35+0x52>
   17ec8:	eb 01                	jmp    17ecb <func_35+0x75>
   17eca:	90                   	nop
   17ecb:	48 8b 45 f0          	mov    -0x10(%rbp),%rax
   17ecf:	48 8d 15 72 81 00 00 	lea    0x8172(%rip),%rdx        # 20048 <g_105>
   17ed6:	48 89 10             	mov    %rdx,(%rax)
   17ed9:	48 8b 45 c8          	mov    -0x38(%rbp),%rax
   17edd:	48 8b 4d f8          	mov    -0x8(%rbp),%rcx
   17ee1:	64 48 33 0c 25 28 00 	xor    %fs:0x28,%rcx
   17ee8:	00 00 
   17eea:	74 05                	je     17ef1 <func_35+0x9b>
   17eec:	e8 7f 11 ff ff       	callq  9070 <__stack_chk_fail@plt>
   17ef1:	c9                   	leaveq 
   17ef2:	c3                   	retq   

0000000000017ef3 <func_39>:
   17ef3:	f3 0f 1e fa          	endbr64 
   17ef7:	55                   	push   %rbp
   17ef8:	48 89 e5             	mov    %rsp,%rbp
   17efb:	41 56                	push   %r14
   17efd:	41 55                	push   %r13
   17eff:	41 54                	push   %r12
   17f01:	53                   	push   %rbx
   17f02:	48 83 c4 80          	add    $0xffffffffffffff80,%rsp
   17f06:	48 89 bd 68 ff ff ff 	mov    %rdi,-0x98(%rbp)
   17f0d:	64 48 8b 04 25 28 00 	mov    %fs:0x28,%rax
   17f14:	00 00 
   17f16:	48 89 45 d8          	mov    %rax,-0x28(%rbp)
   17f1a:	31 c0                	xor    %eax,%eax
   17f1c:	66 c7 45 90 a7 8b    	movw   $0x8ba7,-0x70(%rbp)
   17f22:	66 c7 45 92 67 a1    	movw   $0xa167,-0x6e(%rbp)
   17f28:	66 c7 45 94 74 6c    	movw   $0x6c74,-0x6c(%rbp)
   17f2e:	66 c7 45 96 67 a1    	movw   $0xa167,-0x6a(%rbp)
   17f34:	66 c7 45 98 a7 8b    	movw   $0x8ba7,-0x68(%rbp)
   17f3a:	66 c7 45 9a 15 a4    	movw   $0xa415,-0x66(%rbp)
   17f40:	66 c7 45 9c 01 00    	movw   $0x1,-0x64(%rbp)
   17f46:	66 c7 45 9e 45 80    	movw   $0x8045,-0x62(%rbp)
   17f4c:	66 c7 45 a0 f9 ff    	movw   $0xfff9,-0x60(%rbp)
   17f52:	66 c7 45 a2 01 00    	movw   $0x1,-0x5e(%rbp)
   17f58:	66 c7 45 a4 67 a1    	movw   $0xa167,-0x5c(%rbp)
   17f5e:	66 c7 45 a6 00 00    	movw   $0x0,-0x5a(%rbp)
   17f64:	66 c7 45 a8 00 00    	movw   $0x0,-0x58(%rbp)
   17f6a:	66 c7 45 aa 99 31    	movw   $0x3199,-0x56(%rbp)
   17f70:	66 c7 45 ac 45 80    	movw   $0x8045,-0x54(%rbp)
   17f76:	66 c7 45 ae 45 80    	movw   $0x8045,-0x52(%rbp)
   17f7c:	66 c7 45 b0 99 31    	movw   $0x3199,-0x50(%rbp)
   17f82:	66 c7 45 b2 00 00    	movw   $0x0,-0x4e(%rbp)
   17f88:	66 c7 45 b4 01 00    	movw   $0x1,-0x4c(%rbp)
   17f8e:	66 c7 45 b6 01 00    	movw   $0x1,-0x4a(%rbp)
   17f94:	66 c7 45 b8 f9 ff    	movw   $0xfff9,-0x48(%rbp)
   17f9a:	66 c7 45 ba a7 8b    	movw   $0x8ba7,-0x46(%rbp)
   17fa0:	66 c7 45 bc 00 00    	movw   $0x0,-0x44(%rbp)
   17fa6:	66 c7 45 be 15 a4    	movw   $0xa415,-0x42(%rbp)
   17fac:	66 c7 45 c0 99 31    	movw   $0x3199,-0x40(%rbp)
   17fb2:	66 c7 45 c2 01 00    	movw   $0x1,-0x3e(%rbp)
   17fb8:	66 c7 45 c4 74 6c    	movw   $0x6c74,-0x3c(%rbp)
   17fbe:	66 c7 45 c6 00 00    	movw   $0x0,-0x3a(%rbp)
   17fc4:	66 c7 45 c8 74 6c    	movw   $0x6c74,-0x38(%rbp)
   17fca:	66 c7 45 ca 01 00    	movw   $0x1,-0x36(%rbp)
   17fd0:	48 8d 05 59 80 00 00 	lea    0x8059(%rip),%rax        # 20030 <g_58>
   17fd7:	48 89 85 70 ff ff ff 	mov    %rax,-0x90(%rbp)
   17fde:	48 8d 85 70 ff ff ff 	lea    -0x90(%rbp),%rax
   17fe5:	48 89 85 78 ff ff ff 	mov    %rax,-0x88(%rbp)
   17fec:	48 8d 05 45 80 00 00 	lea    0x8045(%rip),%rax        # 20038 <g_61>
   17ff3:	48 89 45 80          	mov    %rax,-0x80(%rbp)
   17ff7:	48 8d 05 42 80 00 00 	lea    0x8042(%rip),%rax        # 20040 <g_67>
   17ffe:	48 89 45 88          	mov    %rax,-0x78(%rbp)
   18002:	0f b7 45 96          	movzwl -0x6a(%rbp),%eax
   18006:	0f b7 d8             	movzwl %ax,%ebx
   18009:	8b 05 61 dd 00 00    	mov    0xdd61(%rip),%eax        # 25d70 <g_44>
   1800f:	0f b7 05 12 80 00 00 	movzwl 0x8012(%rip),%eax        # 20028 <g_56>
   18016:	4c 0f bf e0          	movswq %ax,%r12
   1801a:	0f b7 45 ba          	movzwl -0x46(%rbp),%eax
   1801e:	44 0f b7 e8          	movzwl %ax,%r13d
   18022:	0f b7 05 ff 7f 00 00 	movzwl 0x7fff(%rip),%eax        # 20028 <g_56>
   18029:	44 0f be f0          	movsbl %al,%r14d
   1802d:	0f b6 05 fc 7f 00 00 	movzbl 0x7ffc(%rip),%eax        # 20030 <g_58>
   18034:	0f be c0             	movsbl %al,%eax
   18037:	89 c6                	mov    %eax,%esi
   18039:	bf f7 ff 00 00       	mov    $0xfff7,%edi
   1803e:	e8 05 1e ff ff       	callq  9e48 <safe_rshift_func_uint16_t_u_s>
   18043:	44 89 f6             	mov    %r14d,%esi
   18046:	bf 01 00 00 00       	mov    $0x1,%edi
   1804b:	e8 a2 11 ff ff       	callq  91f2 <safe_sub_func_int8_t_s_s>
   18050:	0f be d0             	movsbl %al,%edx
   18053:	0f b7 45 a2          	movzwl -0x5e(%rbp),%eax
   18057:	0f b7 c0             	movzwl %ax,%eax
   1805a:	39 c2                	cmp    %eax,%edx
   1805c:	0f 9e c0             	setle  %al
   1805f:	44 0f b6 f0          	movzbl %al,%r14d
   18063:	48 8b 95 70 ff ff ff 	mov    -0x90(%rbp),%rdx
   1806a:	48 8b 85 78 ff ff ff 	mov    -0x88(%rbp),%rax
   18071:	48 89 10             	mov    %rdx,(%rax)
   18074:	48 8b 85 78 ff ff ff 	mov    -0x88(%rbp),%rax
   1807b:	48 8b 10             	mov    (%rax),%rdx
   1807e:	48 8b 05 e3 dc 00 00 	mov    0xdce3(%rip),%rax        # 25d68 <g_21>
   18085:	48 39 c2             	cmp    %rax,%rdx
   18088:	0f 95 c0             	setne  %al
   1808b:	0f b6 d0             	movzbl %al,%edx
   1808e:	48 8b 45 80          	mov    -0x80(%rbp),%rax
   18092:	48 89 10             	mov    %rdx,(%rax)
   18095:	48 8b 45 88          	mov    -0x78(%rbp),%rax
   18099:	66 c7 00 07 00       	movw   $0x7,(%rax)
   1809e:	be 0f 00 00 00       	mov    $0xf,%esi
   180a3:	bf 07 00 00 00       	mov    $0x7,%edi
   180a8:	e8 9b 1d ff ff       	callq  9e48 <safe_rshift_func_uint16_t_u_s>
   180ad:	0f be c0             	movsbl %al,%eax
   180b0:	be 07 00 00 00       	mov    $0x7,%esi
   180b5:	89 c7                	mov    %eax,%edi
   180b7:	e8 79 12 ff ff       	callq  9335 <safe_rshift_func_int8_t_s_s>
   180bc:	0f be c0             	movsbl %al,%eax
   180bf:	44 89 f6             	mov    %r14d,%esi
   180c2:	89 c7                	mov    %eax,%edi
   180c4:	e8 ed 14 ff ff       	callq  95b6 <safe_add_func_int32_t_s_s>
   180c9:	85 c0                	test   %eax,%eax
   180cb:	75 0a                	jne    180d7 <func_39+0x1e4>
   180cd:	8b 05 9d dc 00 00    	mov    0xdc9d(%rip),%eax        # 25d70 <g_44>
   180d3:	85 c0                	test   %eax,%eax
   180d5:	74 07                	je     180de <func_39+0x1eb>
   180d7:	ba 01 00 00 00       	mov    $0x1,%edx
   180dc:	eb 05                	jmp    180e3 <func_39+0x1f0>
   180de:	ba 00 00 00 00       	mov    $0x0,%edx
   180e3:	0f b7 45 b2          	movzwl -0x4e(%rbp),%eax
   180e7:	0f b7 c0             	movzwl %ax,%eax
   180ea:	39 c2                	cmp    %eax,%edx
   180ec:	0f 9c c0             	setl   %al
   180ef:	0f b6 d0             	movzbl %al,%edx
   180f2:	0f b7 45 ba          	movzwl -0x46(%rbp),%eax
   180f6:	0f b6 c0             	movzbl %al,%eax
   180f9:	89 d6                	mov    %edx,%esi
   180fb:	89 c7                	mov    %eax,%edi
   180fd:	e8 91 1a ff ff       	callq  9b93 <safe_mul_func_uint8_t_u_u>
   18102:	0f b6 c0             	movzbl %al,%eax
   18105:	4c 89 ee             	mov    %r13,%rsi
   18108:	48 89 c7             	mov    %rax,%rdi
   1810b:	e8 98 17 ff ff       	callq  98a8 <safe_sub_func_int64_t_s_s>
   18110:	4c 89 e6             	mov    %r12,%rsi
   18113:	48 89 c7             	mov    %rax,%rdi
   18116:	e8 8d 17 ff ff       	callq  98a8 <safe_sub_func_int64_t_s_s>
   1811b:	4c 8b 25 1e c2 00 00 	mov    0xc21e(%rip),%r12        # 24340 <g_106>
   18122:	48 89 de             	mov    %rbx,%rsi
   18125:	48 89 c7             	mov    %rax,%rdi
   18128:	e8 2c 00 00 00       	callq  18159 <func_41>
   1812d:	41 89 04 24          	mov    %eax,(%r12)
   18131:	48 8b 85 68 ff ff ff 	mov    -0x98(%rbp),%rax
   18138:	48 8b 4d d8          	mov    -0x28(%rbp),%rcx
   1813c:	64 48 33 0c 25 28 00 	xor    %fs:0x28,%rcx
   18143:	00 00 
   18145:	74 05                	je     1814c <func_39+0x259>
   18147:	e8 24 0f ff ff       	callq  9070 <__stack_chk_fail@plt>
   1814c:	48 83 ec 80          	sub    $0xffffffffffffff80,%rsp
   18150:	5b                   	pop    %rbx
   18151:	41 5c                	pop    %r12
   18153:	41 5d                	pop    %r13
   18155:	41 5e                	pop    %r14
   18157:	5d                   	pop    %rbp
   18158:	c3                   	retq   

0000000000018159 <func_41>:
   18159:	f3 0f 1e fa          	endbr64 
   1815d:	55                   	push   %rbp
   1815e:	48 89 e5             	mov    %rsp,%rbp
   18161:	41 55                	push   %r13
   18163:	41 54                	push   %r12
   18165:	53                   	push   %rbx
   18166:	48 81 ec b8 02 00 00 	sub    $0x2b8,%rsp
   1816d:	48 89 bd 38 fd ff ff 	mov    %rdi,-0x2c8(%rbp)
   18174:	48 89 b5 30 fd ff ff 	mov    %rsi,-0x2d0(%rbp)
   1817b:	64 48 8b 04 25 28 00 	mov    %fs:0x28,%rax
   18182:	00 00 
   18184:	48 89 45 d8          	mov    %rax,-0x28(%rbp)
   18188:	31 c0                	xor    %eax,%eax
   1818a:	c7 85 48 fd ff ff f8 	movl   $0xfffffff8,-0x2b8(%rbp)
   18191:	ff ff ff 
   18194:	48 c7 85 68 fd ff ff 	movq   $0x0,-0x298(%rbp)
   1819b:	00 00 00 00 
   1819f:	c7 85 4c fd ff ff 08 	movl   $0x8,-0x2b4(%rbp)
   181a6:	00 00 00 
   181a9:	48 8d 05 88 7e 00 00 	lea    0x7e88(%rip),%rax        # 20038 <g_61>
   181b0:	48 89 85 70 fd ff ff 	mov    %rax,-0x290(%rbp)
   181b7:	c7 85 50 fd ff ff 00 	movl   $0x0,-0x2b0(%rbp)
   181be:	00 00 00 
   181c1:	48 c7 85 60 fd ff ff 	movq   $0x0,-0x2a0(%rbp)
   181c8:	00 00 00 00 
   181cc:	c7 85 54 fd ff ff bf 	movl   $0xcb3f04bf,-0x2ac(%rbp)
   181d3:	04 3f cb 
   181d6:	48 8d 05 67 7e 00 00 	lea    0x7e67(%rip),%rax        # 20044 <g_101>
   181dd:	48 89 85 78 fd ff ff 	mov    %rax,-0x288(%rbp)
   181e4:	c7 85 58 fd ff ff 0c 	movl   $0xe78c190c,-0x2a8(%rbp)
   181eb:	19 8c e7 
   181ee:	c7 85 5c fd ff ff 08 	movl   $0x8,-0x2a4(%rbp)
   181f5:	00 00 00 
   181f8:	48 8d 85 90 fd ff ff 	lea    -0x270(%rbp),%rax
   181ff:	48 8d 15 fa be 00 00 	lea    0xbefa(%rip),%rdx        # 24100 <g_2982+0x2170>
   18206:	b9 48 00 00 00       	mov    $0x48,%ecx
   1820b:	48 89 c7             	mov    %rax,%rdi
   1820e:	48 89 d6             	mov    %rdx,%rsi
   18211:	f3 48 a5             	rep movsq %ds:(%rsi),%es:(%rdi)
   18214:	c7 85 44 fd ff ff 00 	movl   $0x0,-0x2bc(%rbp)
   1821b:	00 00 00 
   1821e:	eb 1e                	jmp    1823e <func_41+0xe5>
   18220:	8b 85 44 fd ff ff    	mov    -0x2bc(%rbp),%eax
   18226:	48 98                	cltq   
   18228:	48 8d 15 f9 7d 00 00 	lea    0x7df9(%rip),%rdx        # 20028 <g_56>
   1822f:	48 89 94 c5 80 fd ff 	mov    %rdx,-0x280(%rbp,%rax,8)
   18236:	ff 
   18237:	83 85 44 fd ff ff 01 	addl   $0x1,-0x2bc(%rbp)
   1823e:	83 bd 44 fd ff ff 01 	cmpl   $0x1,-0x2bc(%rbp)
   18245:	7e d9                	jle    18220 <func_41+0xc7>
   18247:	8b 9d 58 fd ff ff    	mov    -0x2a8(%rbp),%ebx
   1824d:	8b 85 48 fd ff ff    	mov    -0x2b8(%rbp),%eax
   18253:	89 85 4c fd ff ff    	mov    %eax,-0x2b4(%rbp)
   18259:	8b 85 58 fd ff ff    	mov    -0x2a8(%rbp),%eax
   1825f:	44 0f be e0          	movsbl %al,%r12d
   18263:	48 8b 85 30 fd ff ff 	mov    -0x2d0(%rbp),%rax
   1826a:	41 89 c5             	mov    %eax,%r13d
   1826d:	8b 85 54 fd ff ff    	mov    -0x2ac(%rbp),%eax
   18273:	98                   	cwtl   
   18274:	be 0a 00 00 00       	mov    $0xa,%esi
   18279:	89 c7                	mov    %eax,%edi
   1827b:	e8 12 12 ff ff       	callq  9492 <safe_lshift_func_int16_t_s_s>
   18280:	0f bf d0             	movswl %ax,%edx
   18283:	0f b7 05 b6 7d 00 00 	movzwl 0x7db6(%rip),%eax        # 20040 <g_67>
   1828a:	0f b7 c0             	movzwl %ax,%eax
   1828d:	89 85 50 fd ff ff    	mov    %eax,-0x2b0(%rbp)
   18293:	8b 85 50 fd ff ff    	mov    -0x2b0(%rbp),%eax
   18299:	98                   	cwtl   
   1829a:	89 d6                	mov    %edx,%esi
   1829c:	89 c7                	mov    %eax,%edi
   1829e:	e8 30 11 ff ff       	callq  93d3 <safe_sub_func_int16_t_s_s>
   182a3:	48 0f bf c0          	movswq %ax,%rax
   182a7:	48 39 85 38 fd ff ff 	cmp    %rax,-0x2c8(%rbp)
   182ae:	0f 9c c0             	setl   %al
   182b1:	0f b6 c0             	movzbl %al,%eax
   182b4:	44 89 ee             	mov    %r13d,%esi
   182b7:	89 c7                	mov    %eax,%edi
   182b9:	e8 ae 10 ff ff       	callq  936c <safe_rshift_func_int8_t_s_u>
   182be:	0f b6 c0             	movzbl %al,%eax
   182c1:	be 01 00 00 00       	mov    $0x1,%esi
   182c6:	89 c7                	mov    %eax,%edi
   182c8:	e8 c0 19 ff ff       	callq  9c8d <safe_rshift_func_uint8_t_u_s>
   182cd:	48 8b 95 78 fd ff ff 	mov    -0x288(%rbp),%rdx
   182d4:	8b 12                	mov    (%rdx),%edx
   182d6:	0f b6 c0             	movzbl %al,%eax
   182d9:	21 c2                	and    %eax,%edx
   182db:	48 8b 85 78 fd ff ff 	mov    -0x288(%rbp),%rax
   182e2:	89 10                	mov    %edx,(%rax)
   182e4:	48 8b 85 78 fd ff ff 	mov    -0x288(%rbp),%rax
   182eb:	8b 00                	mov    (%rax),%eax
   182ed:	3d e2 1e 58 72       	cmp    $0x72581ee2,%eax
   182f2:	0f 96 c0             	setbe  %al
   182f5:	0f b6 d0             	movzbl %al,%edx
   182f8:	48 8b 05 39 7d 00 00 	mov    0x7d39(%rip),%rax        # 20038 <g_61>
   182ff:	48 39 c2             	cmp    %rax,%rdx
   18302:	0f 95 c0             	setne  %al
   18305:	0f b6 c0             	movzbl %al,%eax
   18308:	48 39 85 30 fd ff ff 	cmp    %rax,-0x2d0(%rbp)
   1830f:	0f 96 c0             	setbe  %al
   18312:	0f b6 d0             	movzbl %al,%edx
   18315:	8b 05 59 da 00 00    	mov    0xda59(%rip),%eax        # 25d74 <g_49>
   1831b:	39 c2                	cmp    %eax,%edx
   1831d:	0f 9d c0             	setge  %al
   18320:	0f b6 c0             	movzbl %al,%eax
   18323:	0f b7 15 16 7d 00 00 	movzwl 0x7d16(%rip),%edx        # 20040 <g_67>
   1832a:	21 d0                	and    %edx,%eax
   1832c:	98                   	cwtl   
   1832d:	be 01 00 00 00       	mov    $0x1,%esi
   18332:	89 c7                	mov    %eax,%edi
   18334:	e8 bc 10 ff ff       	callq  93f5 <safe_mul_func_int16_t_s_s>
   18339:	44 89 e6             	mov    %r12d,%esi
   1833c:	bf 00 00 00 00       	mov    $0x0,%edi
   18341:	e8 8e 0e ff ff       	callq  91d4 <safe_add_func_int8_t_s_s>
   18346:	8b 85 58 fd ff ff    	mov    -0x2a8(%rbp),%eax
   1834c:	0f b6 c0             	movzbl %al,%eax
   1834f:	89 c6                	mov    %eax,%esi
   18351:	bf 01 00 00 00       	mov    $0x1,%edi
   18356:	e8 53 18 ff ff       	callq  9bae <safe_mod_func_uint8_t_u_u>
   1835b:	0f b6 c0             	movzbl %al,%eax
   1835e:	89 85 5c fd ff ff    	mov    %eax,-0x2a4(%rbp)
   18364:	8b 85 5c fd ff ff    	mov    -0x2a4(%rbp),%eax
   1836a:	0f b6 c0             	movzbl %al,%eax
   1836d:	be 05 00 00 00       	mov    $0x5,%esi
   18372:	89 c7                	mov    %eax,%edi
   18374:	e8 45 19 ff ff       	callq  9cbe <safe_rshift_func_uint8_t_u_u>
   18379:	0f b6 c0             	movzbl %al,%eax
   1837c:	39 85 58 fd ff ff    	cmp    %eax,-0x2a8(%rbp)
   18382:	0f 95 c0             	setne  %al
   18385:	0f b6 c0             	movzbl %al,%eax
   18388:	48 8b 95 60 fd ff ff 	mov    -0x2a0(%rbp),%rdx
   1838f:	31 d0                	xor    %edx,%eax
   18391:	89 c2                	mov    %eax,%edx
   18393:	48 8d 05 9e 7c 00 00 	lea    0x7c9e(%rip),%rax        # 20038 <g_61>
   1839a:	48 39 85 70 fd ff ff 	cmp    %rax,-0x290(%rbp)
   183a1:	0f 95 c0             	setne  %al
   183a4:	0f b6 c0             	movzbl %al,%eax
   183a7:	89 d6                	mov    %edx,%esi
   183a9:	89 c7                	mov    %eax,%edi
   183ab:	e8 55 18 ff ff       	callq  9c05 <safe_lshift_func_uint8_t_u_s>
   183b0:	0f b6 c0             	movzbl %al,%eax
   183b3:	39 85 4c fd ff ff    	cmp    %eax,-0x2b4(%rbp)
   183b9:	0f 9c c0             	setl   %al
   183bc:	0f b6 c0             	movzbl %al,%eax
   183bf:	48 89 de             	mov    %rbx,%rsi
   183c2:	48 89 c7             	mov    %rax,%rdi
   183c5:	e8 e5 1c ff ff       	callq  a0af <safe_div_func_uint64_t_u_u>
   183ca:	89 c2                	mov    %eax,%edx
   183cc:	8b 05 76 7c 00 00    	mov    0x7c76(%rip),%eax        # 20048 <g_105>
   183d2:	21 d0                	and    %edx,%eax
   183d4:	89 05 6e 7c 00 00    	mov    %eax,0x7c6e(%rip)        # 20048 <g_105>
   183da:	8b 05 90 d9 00 00    	mov    0xd990(%rip),%eax        # 25d70 <g_44>
   183e0:	48 8b 4d d8          	mov    -0x28(%rbp),%rcx
   183e4:	64 48 33 0c 25 28 00 	xor    %fs:0x28,%rcx
   183eb:	00 00 
   183ed:	74 05                	je     183f4 <func_41+0x29b>
   183ef:	e8 7c 0c ff ff       	callq  9070 <__stack_chk_fail@plt>
   183f4:	48 81 c4 b8 02 00 00 	add    $0x2b8,%rsp
   183fb:	5b                   	pop    %rbx
   183fc:	41 5c                	pop    %r12
   183fe:	41 5d                	pop    %r13
   18400:	5d                   	pop    %rbp
   18401:	c3                   	retq   

0000000000018402 <main>:
   18402:	f3 0f 1e fa          	endbr64 
   18406:	55                   	push   %rbp
   18407:	48 89 e5             	mov    %rsp,%rbp
   1840a:	48 83 ec 20          	sub    $0x20,%rsp
   1840e:	89 7d ec             	mov    %edi,-0x14(%rbp)
   18411:	48 89 75 e0          	mov    %rsi,-0x20(%rbp)
   18415:	c7 45 fc 00 00 00 00 	movl   $0x0,-0x4(%rbp)
   1841c:	83 7d ec 02          	cmpl   $0x2,-0x14(%rbp)
   18420:	74 25                	je     18447 <main+0x45>
   18422:	48 8b 45 e0          	mov    -0x20(%rbp),%rax
   18426:	48 83 c0 08          	add    $0x8,%rax
   1842a:	48 8b 00             	mov    (%rax),%rax
   1842d:	48 8d 35 a4 39 00 00 	lea    0x39a4(%rip),%rsi        # 1bdd8 <g_2720+0xce0>
   18434:	48 89 c7             	mov    %rax,%rdi
   18437:	e8 54 0c ff ff       	callq  9090 <strcmp@plt>
   1843c:	85 c0                	test   %eax,%eax
   1843e:	74 07                	je     18447 <main+0x45>
   18440:	c7 45 fc 01 00 00 00 	movl   $0x1,-0x4(%rbp)
   18447:	e8 3d 0d ff ff       	callq  9189 <platform_main_begin>
   1844c:	e8 47 21 ff ff       	callq  a598 <crc32_gentab>
   18451:	e8 5f 23 ff ff       	callq  a7b5 <func_1>
   18456:	0f b6 05 c7 7b 00 00 	movzbl 0x7bc7(%rip),%eax        # 20024 <g_23>
   1845d:	0f b6 c0             	movzbl %al,%eax
   18460:	8b 55 fc             	mov    -0x4(%rbp),%edx
   18463:	48 8d 35 70 39 00 00 	lea    0x3970(%rip),%rsi        # 1bdda <g_2720+0xce2>
   1846a:	48 89 c7             	mov    %rax,%rdi
   1846d:	e8 81 22 ff ff       	callq  a6f3 <transparent_crc>
   18472:	8b 05 f8 d8 00 00    	mov    0xd8f8(%rip),%eax        # 25d70 <g_44>
   18478:	89 c1                	mov    %eax,%ecx
   1847a:	8b 45 fc             	mov    -0x4(%rbp),%eax
   1847d:	89 c2                	mov    %eax,%edx
   1847f:	48 8d 35 59 39 00 00 	lea    0x3959(%rip),%rsi        # 1bddf <g_2720+0xce7>
   18486:	48 89 cf             	mov    %rcx,%rdi
   18489:	e8 65 22 ff ff       	callq  a6f3 <transparent_crc>
   1848e:	8b 05 dc d8 00 00    	mov    0xd8dc(%rip),%eax        # 25d70 <g_44>
   18494:	89 c1                	mov    %eax,%ecx
   18496:	8b 45 fc             	mov    -0x4(%rbp),%eax
   18499:	89 c2                	mov    %eax,%edx
   1849b:	48 8d 35 45 39 00 00 	lea    0x3945(%rip),%rsi        # 1bde7 <g_2720+0xcef>
   184a2:	48 89 cf             	mov    %rcx,%rdi
   184a5:	e8 49 22 ff ff       	callq  a6f3 <transparent_crc>
   184aa:	8b 05 c0 d8 00 00    	mov    0xd8c0(%rip),%eax        # 25d70 <g_44>
   184b0:	48 98                	cltq   
   184b2:	8b 55 fc             	mov    -0x4(%rbp),%edx
   184b5:	48 8d 35 33 39 00 00 	lea    0x3933(%rip),%rsi        # 1bdef <g_2720+0xcf7>
   184bc:	48 89 c7             	mov    %rax,%rdi
   184bf:	e8 2f 22 ff ff       	callq  a6f3 <transparent_crc>
   184c4:	8b 05 aa d8 00 00    	mov    0xd8aa(%rip),%eax        # 25d74 <g_49>
   184ca:	89 c1                	mov    %eax,%ecx
   184cc:	8b 45 fc             	mov    -0x4(%rbp),%eax
   184cf:	89 c2                	mov    %eax,%edx
   184d1:	48 8d 35 1f 39 00 00 	lea    0x391f(%rip),%rsi        # 1bdf7 <g_2720+0xcff>
   184d8:	48 89 cf             	mov    %rcx,%rdi
   184db:	e8 13 22 ff ff       	callq  a6f3 <transparent_crc>
   184e0:	8b 05 8e d8 00 00    	mov    0xd88e(%rip),%eax        # 25d74 <g_49>
   184e6:	89 c1                	mov    %eax,%ecx
   184e8:	8b 45 fc             	mov    -0x4(%rbp),%eax
   184eb:	89 c2                	mov    %eax,%edx
   184ed:	48 8d 35 0b 39 00 00 	lea    0x390b(%rip),%rsi        # 1bdff <g_2720+0xd07>
   184f4:	48 89 cf             	mov    %rcx,%rdi
   184f7:	e8 f7 21 ff ff       	callq  a6f3 <transparent_crc>
   184fc:	8b 05 72 d8 00 00    	mov    0xd872(%rip),%eax        # 25d74 <g_49>
   18502:	48 98                	cltq   
   18504:	8b 55 fc             	mov    -0x4(%rbp),%edx
   18507:	48 8d 35 f9 38 00 00 	lea    0x38f9(%rip),%rsi        # 1be07 <g_2720+0xd0f>
   1850e:	48 89 c7             	mov    %rax,%rdi
   18511:	e8 dd 21 ff ff       	callq  a6f3 <transparent_crc>
   18516:	0f b7 05 0b 7b 00 00 	movzwl 0x7b0b(%rip),%eax        # 20028 <g_56>
   1851d:	48 0f bf c0          	movswq %ax,%rax
   18521:	8b 55 fc             	mov    -0x4(%rbp),%edx
   18524:	48 8d 35 e4 38 00 00 	lea    0x38e4(%rip),%rsi        # 1be0f <g_2720+0xd17>
   1852b:	48 89 c7             	mov    %rax,%rdi
   1852e:	e8 c0 21 ff ff       	callq  a6f3 <transparent_crc>
   18533:	0f b6 05 f6 7a 00 00 	movzbl 0x7af6(%rip),%eax        # 20030 <g_58>
   1853a:	48 0f be c0          	movsbq %al,%rax
   1853e:	8b 55 fc             	mov    -0x4(%rbp),%edx
   18541:	48 8d 35 cf 38 00 00 	lea    0x38cf(%rip),%rsi        # 1be17 <g_2720+0xd1f>
   18548:	48 89 c7             	mov    %rax,%rdi
   1854b:	e8 a3 21 ff ff       	callq  a6f3 <transparent_crc>
   18550:	48 8b 05 e1 7a 00 00 	mov    0x7ae1(%rip),%rax        # 20038 <g_61>
   18557:	8b 55 fc             	mov    -0x4(%rbp),%edx
   1855a:	48 8d 35 bb 38 00 00 	lea    0x38bb(%rip),%rsi        # 1be1c <g_2720+0xd24>
   18561:	48 89 c7             	mov    %rax,%rdi
   18564:	e8 8a 21 ff ff       	callq  a6f3 <transparent_crc>
   18569:	0f b7 05 d0 7a 00 00 	movzwl 0x7ad0(%rip),%eax        # 20040 <g_67>
   18570:	0f b7 c0             	movzwl %ax,%eax
   18573:	8b 55 fc             	mov    -0x4(%rbp),%edx
   18576:	48 8d 35 a4 38 00 00 	lea    0x38a4(%rip),%rsi        # 1be21 <g_2720+0xd29>
   1857d:	48 89 c7             	mov    %rax,%rdi
   18580:	e8 6e 21 ff ff       	callq  a6f3 <transparent_crc>
   18585:	8b 05 b9 7a 00 00    	mov    0x7ab9(%rip),%eax        # 20044 <g_101>
   1858b:	89 c1                	mov    %eax,%ecx
   1858d:	8b 45 fc             	mov    -0x4(%rbp),%eax
   18590:	89 c2                	mov    %eax,%edx
   18592:	48 8d 35 8d 38 00 00 	lea    0x388d(%rip),%rsi        # 1be26 <g_2720+0xd2e>
   18599:	48 89 cf             	mov    %rcx,%rdi
   1859c:	e8 52 21 ff ff       	callq  a6f3 <transparent_crc>
   185a1:	8b 05 a1 7a 00 00    	mov    0x7aa1(%rip),%eax        # 20048 <g_105>
   185a7:	48 98                	cltq   
   185a9:	8b 55 fc             	mov    -0x4(%rbp),%edx
   185ac:	48 8d 35 79 38 00 00 	lea    0x3879(%rip),%rsi        # 1be2c <g_2720+0xd34>
   185b3:	48 89 c7             	mov    %rax,%rdi
   185b6:	e8 38 21 ff ff       	callq  a6f3 <transparent_crc>
   185bb:	c7 45 f0 00 00 00 00 	movl   $0x0,-0x10(%rbp)
   185c2:	eb 4e                	jmp    18612 <main+0x210>
   185c4:	8b 45 f0             	mov    -0x10(%rbp),%eax
   185c7:	48 98                	cltq   
   185c9:	48 8d 14 c5 00 00 00 	lea    0x0(,%rax,8),%rdx
   185d0:	00 
   185d1:	48 8d 05 88 7a 00 00 	lea    0x7a88(%rip),%rax        # 20060 <g_115>
   185d8:	0f b7 04 02          	movzwl (%rdx,%rax,1),%eax
   185dc:	48 0f bf c0          	movswq %ax,%rax
   185e0:	8b 55 fc             	mov    -0x4(%rbp),%edx
   185e3:	48 8d 35 48 38 00 00 	lea    0x3848(%rip),%rsi        # 1be32 <g_2720+0xd3a>
   185ea:	48 89 c7             	mov    %rax,%rdi
   185ed:	e8 01 21 ff ff       	callq  a6f3 <transparent_crc>
   185f2:	83 7d fc 00          	cmpl   $0x0,-0x4(%rbp)
   185f6:	74 16                	je     1860e <main+0x20c>
   185f8:	8b 45 f0             	mov    -0x10(%rbp),%eax
   185fb:	89 c6                	mov    %eax,%esi
   185fd:	48 8d 3d 3a 38 00 00 	lea    0x383a(%rip),%rdi        # 1be3e <g_2720+0xd46>
   18604:	b8 00 00 00 00       	mov    $0x0,%eax
   18609:	e8 72 0a ff ff       	callq  9080 <printf@plt>
   1860e:	83 45 f0 01          	addl   $0x1,-0x10(%rbp)
   18612:	83 7d f0 09          	cmpl   $0x9,-0x10(%rbp)
   18616:	7e ac                	jle    185c4 <main+0x1c2>
   18618:	c7 45 f0 00 00 00 00 	movl   $0x0,-0x10(%rbp)
   1861f:	e9 9e 00 00 00       	jmpq   186c2 <main+0x2c0>
   18624:	c7 45 f4 00 00 00 00 	movl   $0x0,-0xc(%rbp)
   1862b:	e9 84 00 00 00       	jmpq   186b4 <main+0x2b2>
   18630:	c7 45 f8 00 00 00 00 	movl   $0x0,-0x8(%rbp)
   18637:	eb 71                	jmp    186aa <main+0x2a8>
   18639:	8b 45 f8             	mov    -0x8(%rbp),%eax
   1863c:	48 63 f0             	movslq %eax,%rsi
   1863f:	8b 45 f4             	mov    -0xc(%rbp),%eax
   18642:	48 63 c8             	movslq %eax,%rcx
   18645:	8b 45 f0             	mov    -0x10(%rbp),%eax
   18648:	48 63 d0             	movslq %eax,%rdx
   1864b:	48 89 d0             	mov    %rdx,%rax
   1864e:	48 c1 e0 02          	shl    $0x2,%rax
   18652:	48 01 d0             	add    %rdx,%rax
   18655:	48 01 c0             	add    %rax,%rax
   18658:	48 01 f0             	add    %rsi,%rax
   1865b:	48 01 c8             	add    %rcx,%rax
   1865e:	48 8d 14 85 00 00 00 	lea    0x0(,%rax,4),%rdx
   18665:	00 
   18666:	48 8d 05 53 7a 00 00 	lea    0x7a53(%rip),%rax        # 200c0 <g_133>
   1866d:	8b 04 02             	mov    (%rdx,%rax,1),%eax
   18670:	48 98                	cltq   
   18672:	8b 55 fc             	mov    -0x4(%rbp),%edx
   18675:	48 8d 35 d0 37 00 00 	lea    0x37d0(%rip),%rsi        # 1be4c <g_2720+0xd54>
   1867c:	48 89 c7             	mov    %rax,%rdi
   1867f:	e8 6f 20 ff ff       	callq  a6f3 <transparent_crc>
   18684:	83 7d fc 00          	cmpl   $0x0,-0x4(%rbp)
   18688:	74 1c                	je     186a6 <main+0x2a4>
   1868a:	8b 4d f8             	mov    -0x8(%rbp),%ecx
   1868d:	8b 55 f4             	mov    -0xc(%rbp),%edx
   18690:	8b 45 f0             	mov    -0x10(%rbp),%eax
   18693:	89 c6                	mov    %eax,%esi
   18695:	48 8d 3d bf 37 00 00 	lea    0x37bf(%rip),%rdi        # 1be5b <g_2720+0xd63>
   1869c:	b8 00 00 00 00       	mov    $0x0,%eax
   186a1:	e8 da 09 ff ff       	callq  9080 <printf@plt>
   186a6:	83 45 f8 01          	addl   $0x1,-0x8(%rbp)
   186aa:	83 7d f8 00          	cmpl   $0x0,-0x8(%rbp)
   186ae:	7e 89                	jle    18639 <main+0x237>
   186b0:	83 45 f4 01          	addl   $0x1,-0xc(%rbp)
   186b4:	83 7d f4 09          	cmpl   $0x9,-0xc(%rbp)
   186b8:	0f 8e 72 ff ff ff    	jle    18630 <main+0x22e>
   186be:	83 45 f0 01          	addl   $0x1,-0x10(%rbp)
   186c2:	83 7d f0 09          	cmpl   $0x9,-0x10(%rbp)
   186c6:	0f 8e 58 ff ff ff    	jle    18624 <main+0x222>
   186cc:	0f b6 05 7d 7b 00 00 	movzbl 0x7b7d(%rip),%eax        # 20250 <g_141>
   186d3:	0f b6 c0             	movzbl %al,%eax
   186d6:	8b 55 fc             	mov    -0x4(%rbp),%edx
   186d9:	48 8d 35 91 37 00 00 	lea    0x3791(%rip),%rsi        # 1be71 <g_2720+0xd79>
   186e0:	48 89 c7             	mov    %rax,%rdi
   186e3:	e8 0b 20 ff ff       	callq  a6f3 <transparent_crc>
   186e8:	8b 05 66 7b 00 00    	mov    0x7b66(%rip),%eax        # 20254 <g_146>
   186ee:	48 98                	cltq   
   186f0:	8b 55 fc             	mov    -0x4(%rbp),%edx
   186f3:	48 8d 35 7d 37 00 00 	lea    0x377d(%rip),%rsi        # 1be77 <g_2720+0xd7f>
   186fa:	48 89 c7             	mov    %rax,%rdi
   186fd:	e8 f1 1f ff ff       	callq  a6f3 <transparent_crc>
   18702:	8b 05 50 7b 00 00    	mov    0x7b50(%rip),%eax        # 20258 <g_174>
   18708:	89 c1                	mov    %eax,%ecx
   1870a:	8b 45 fc             	mov    -0x4(%rbp),%eax
   1870d:	89 c2                	mov    %eax,%edx
   1870f:	48 8d 35 67 37 00 00 	lea    0x3767(%rip),%rsi        # 1be7d <g_2720+0xd85>
   18716:	48 89 cf             	mov    %rcx,%rdi
   18719:	e8 d5 1f ff ff       	callq  a6f3 <transparent_crc>
   1871e:	c7 45 f0 00 00 00 00 	movl   $0x0,-0x10(%rbp)
   18725:	eb 4b                	jmp    18772 <main+0x370>
   18727:	8b 45 f0             	mov    -0x10(%rbp),%eax
   1872a:	48 98                	cltq   
   1872c:	48 8d 14 85 00 00 00 	lea    0x0(,%rax,4),%rdx
   18733:	00 
   18734:	48 8d 05 3d d6 00 00 	lea    0xd63d(%rip),%rax        # 25d78 <g_185>
   1873b:	8b 04 02             	mov    (%rdx,%rax,1),%eax
   1873e:	48 98                	cltq   
   18740:	8b 55 fc             	mov    -0x4(%rbp),%edx
   18743:	48 8d 35 39 37 00 00 	lea    0x3739(%rip),%rsi        # 1be83 <g_2720+0xd8b>
   1874a:	48 89 c7             	mov    %rax,%rdi
   1874d:	e8 a1 1f ff ff       	callq  a6f3 <transparent_crc>
   18752:	83 7d fc 00          	cmpl   $0x0,-0x4(%rbp)
   18756:	74 16                	je     1876e <main+0x36c>
   18758:	8b 45 f0             	mov    -0x10(%rbp),%eax
   1875b:	89 c6                	mov    %eax,%esi
   1875d:	48 8d 3d da 36 00 00 	lea    0x36da(%rip),%rdi        # 1be3e <g_2720+0xd46>
   18764:	b8 00 00 00 00       	mov    $0x0,%eax
   18769:	e8 12 09 ff ff       	callq  9080 <printf@plt>
   1876e:	83 45 f0 01          	addl   $0x1,-0x10(%rbp)
   18772:	83 7d f0 01          	cmpl   $0x1,-0x10(%rbp)
   18776:	7e af                	jle    18727 <main+0x325>
   18778:	b8 b0 0e 00 00       	mov    $0xeb0,%eax
   1877d:	48 0f bf c0          	movswq %ax,%rax
   18781:	8b 55 fc             	mov    -0x4(%rbp),%edx
   18784:	48 8d 35 01 37 00 00 	lea    0x3701(%rip),%rsi        # 1be8c <g_2720+0xd94>
   1878b:	48 89 c7             	mov    %rax,%rdi
   1878e:	e8 60 1f ff ff       	callq  a6f3 <transparent_crc>
   18793:	48 8b 05 c6 7a 00 00 	mov    0x7ac6(%rip),%rax        # 20260 <g_203>
   1879a:	48 89 c1             	mov    %rax,%rcx
   1879d:	8b 45 fc             	mov    -0x4(%rbp),%eax
   187a0:	89 c2                	mov    %eax,%edx
   187a2:	48 8d 35 ec 36 00 00 	lea    0x36ec(%rip),%rsi        # 1be95 <g_2720+0xd9d>
   187a9:	48 89 cf             	mov    %rcx,%rdi
   187ac:	e8 42 1f ff ff       	callq  a6f3 <transparent_crc>
   187b1:	8b 05 b1 7a 00 00    	mov    0x7ab1(%rip),%eax        # 20268 <g_209>
   187b7:	48 98                	cltq   
   187b9:	8b 55 fc             	mov    -0x4(%rbp),%edx
   187bc:	48 8d 35 d8 36 00 00 	lea    0x36d8(%rip),%rsi        # 1be9b <g_2720+0xda3>
   187c3:	48 89 c7             	mov    %rax,%rdi
   187c6:	e8 28 1f ff ff       	callq  a6f3 <transparent_crc>
   187cb:	8b 05 9b 7a 00 00    	mov    0x7a9b(%rip),%eax        # 2026c <g_211>
   187d1:	89 c1                	mov    %eax,%ecx
   187d3:	8b 45 fc             	mov    -0x4(%rbp),%eax
   187d6:	89 c2                	mov    %eax,%edx
   187d8:	48 8d 35 c2 36 00 00 	lea    0x36c2(%rip),%rsi        # 1bea1 <g_2720+0xda9>
   187df:	48 89 cf             	mov    %rcx,%rdi
   187e2:	e8 0c 1f ff ff       	callq  a6f3 <transparent_crc>
   187e7:	8b 05 7f 7a 00 00    	mov    0x7a7f(%rip),%eax        # 2026c <g_211>
   187ed:	89 c1                	mov    %eax,%ecx
   187ef:	8b 45 fc             	mov    -0x4(%rbp),%eax
   187f2:	89 c2                	mov    %eax,%edx
   187f4:	48 8d 35 af 36 00 00 	lea    0x36af(%rip),%rsi        # 1beaa <g_2720+0xdb2>
   187fb:	48 89 cf             	mov    %rcx,%rdi
   187fe:	e8 f0 1e ff ff       	callq  a6f3 <transparent_crc>
   18803:	8b 05 63 7a 00 00    	mov    0x7a63(%rip),%eax        # 2026c <g_211>
   18809:	48 98                	cltq   
   1880b:	8b 55 fc             	mov    -0x4(%rbp),%edx
   1880e:	48 8d 35 9e 36 00 00 	lea    0x369e(%rip),%rsi        # 1beb3 <g_2720+0xdbb>
   18815:	48 89 c7             	mov    %rax,%rdi
   18818:	e8 d6 1e ff ff       	callq  a6f3 <transparent_crc>
   1881d:	8b 05 4d 7a 00 00    	mov    0x7a4d(%rip),%eax        # 20270 <g_220>
   18823:	89 c1                	mov    %eax,%ecx
   18825:	8b 45 fc             	mov    -0x4(%rbp),%eax
   18828:	89 c2                	mov    %eax,%edx
   1882a:	48 8d 35 8b 36 00 00 	lea    0x368b(%rip),%rsi        # 1bebc <g_2720+0xdc4>
   18831:	48 89 cf             	mov    %rcx,%rdi
   18834:	e8 ba 1e ff ff       	callq  a6f3 <transparent_crc>
   18839:	8b 05 31 7a 00 00    	mov    0x7a31(%rip),%eax        # 20270 <g_220>
   1883f:	89 c1                	mov    %eax,%ecx
   18841:	8b 45 fc             	mov    -0x4(%rbp),%eax
   18844:	89 c2                	mov    %eax,%edx
   18846:	48 8d 35 78 36 00 00 	lea    0x3678(%rip),%rsi        # 1bec5 <g_2720+0xdcd>
   1884d:	48 89 cf             	mov    %rcx,%rdi
   18850:	e8 9e 1e ff ff       	callq  a6f3 <transparent_crc>
   18855:	8b 05 15 7a 00 00    	mov    0x7a15(%rip),%eax        # 20270 <g_220>
   1885b:	48 98                	cltq   
   1885d:	8b 55 fc             	mov    -0x4(%rbp),%edx
   18860:	48 8d 35 67 36 00 00 	lea    0x3667(%rip),%rsi        # 1bece <g_2720+0xdd6>
   18867:	48 89 c7             	mov    %rax,%rdi
   1886a:	e8 84 1e ff ff       	callq  a6f3 <transparent_crc>
   1886f:	c7 45 f0 00 00 00 00 	movl   $0x0,-0x10(%rbp)
   18876:	e9 8b 00 00 00       	jmpq   18906 <main+0x504>
   1887b:	c7 45 f4 00 00 00 00 	movl   $0x0,-0xc(%rbp)
   18882:	eb 78                	jmp    188fc <main+0x4fa>
   18884:	c7 45 f8 00 00 00 00 	movl   $0x0,-0x8(%rbp)
   1888b:	eb 65                	jmp    188f2 <main+0x4f0>
   1888d:	8b 45 f8             	mov    -0x8(%rbp),%eax
   18890:	48 98                	cltq   
   18892:	8b 55 f0             	mov    -0x10(%rbp),%edx
   18895:	48 63 ca             	movslq %edx,%rcx
   18898:	8b 55 f4             	mov    -0xc(%rbp),%edx
   1889b:	48 63 d2             	movslq %edx,%rdx
   1889e:	48 01 ca             	add    %rcx,%rdx
   188a1:	48 c1 e2 03          	shl    $0x3,%rdx
   188a5:	48 01 d0             	add    %rdx,%rax
   188a8:	48 8d 14 00          	lea    (%rax,%rax,1),%rdx
   188ac:	48 8d 05 cd 79 00 00 	lea    0x79cd(%rip),%rax        # 20280 <g_265>
   188b3:	0f b7 04 02          	movzwl (%rdx,%rax,1),%eax
   188b7:	0f b7 c0             	movzwl %ax,%eax
   188ba:	8b 55 fc             	mov    -0x4(%rbp),%edx
   188bd:	48 8d 35 13 36 00 00 	lea    0x3613(%rip),%rsi        # 1bed7 <g_2720+0xddf>
   188c4:	48 89 c7             	mov    %rax,%rdi
   188c7:	e8 27 1e ff ff       	callq  a6f3 <transparent_crc>
   188cc:	83 7d fc 00          	cmpl   $0x0,-0x4(%rbp)
   188d0:	74 1c                	je     188ee <main+0x4ec>
   188d2:	8b 4d f8             	mov    -0x8(%rbp),%ecx
   188d5:	8b 55 f4             	mov    -0xc(%rbp),%edx
   188d8:	8b 45 f0             	mov    -0x10(%rbp),%eax
   188db:	89 c6                	mov    %eax,%esi
   188dd:	48 8d 3d 77 35 00 00 	lea    0x3577(%rip),%rdi        # 1be5b <g_2720+0xd63>
   188e4:	b8 00 00 00 00       	mov    $0x0,%eax
   188e9:	e8 92 07 ff ff       	callq  9080 <printf@plt>
   188ee:	83 45 f8 01          	addl   $0x1,-0x8(%rbp)
   188f2:	83 7d f8 07          	cmpl   $0x7,-0x8(%rbp)
   188f6:	7e 95                	jle    1888d <main+0x48b>
   188f8:	83 45 f4 01          	addl   $0x1,-0xc(%rbp)
   188fc:	83 7d f4 00          	cmpl   $0x0,-0xc(%rbp)
   18900:	7e 82                	jle    18884 <main+0x482>
   18902:	83 45 f0 01          	addl   $0x1,-0x10(%rbp)
   18906:	83 7d f0 03          	cmpl   $0x3,-0x10(%rbp)
   1890a:	0f 8e 6b ff ff ff    	jle    1887b <main+0x479>
   18910:	c7 45 f0 00 00 00 00 	movl   $0x0,-0x10(%rbp)
   18917:	eb 45                	jmp    1895e <main+0x55c>
   18919:	8b 45 f0             	mov    -0x10(%rbp),%eax
   1891c:	48 98                	cltq   
   1891e:	48 8d 15 9b 79 00 00 	lea    0x799b(%rip),%rdx        # 202c0 <g_284>
   18925:	0f b6 04 10          	movzbl (%rax,%rdx,1),%eax
   18929:	0f b6 c0             	movzbl %al,%eax
   1892c:	8b 55 fc             	mov    -0x4(%rbp),%edx
   1892f:	48 8d 35 b0 35 00 00 	lea    0x35b0(%rip),%rsi        # 1bee6 <g_2720+0xdee>
   18936:	48 89 c7             	mov    %rax,%rdi
   18939:	e8 b5 1d ff ff       	callq  a6f3 <transparent_crc>
   1893e:	83 7d fc 00          	cmpl   $0x0,-0x4(%rbp)
   18942:	74 16                	je     1895a <main+0x558>
   18944:	8b 45 f0             	mov    -0x10(%rbp),%eax
   18947:	89 c6                	mov    %eax,%esi
   18949:	48 8d 3d ee 34 00 00 	lea    0x34ee(%rip),%rdi        # 1be3e <g_2720+0xd46>
   18950:	b8 00 00 00 00       	mov    $0x0,%eax
   18955:	e8 26 07 ff ff       	callq  9080 <printf@plt>
   1895a:	83 45 f0 01          	addl   $0x1,-0x10(%rbp)
   1895e:	83 7d f0 03          	cmpl   $0x3,-0x10(%rbp)
   18962:	7e b5                	jle    18919 <main+0x517>
   18964:	0f b7 05 59 79 00 00 	movzwl 0x7959(%rip),%eax        # 202c4 <g_294>
   1896b:	0f b7 c0             	movzwl %ax,%eax
   1896e:	8b 55 fc             	mov    -0x4(%rbp),%edx
   18971:	48 8d 35 77 35 00 00 	lea    0x3577(%rip),%rsi        # 1beef <g_2720+0xdf7>
   18978:	48 89 c7             	mov    %rax,%rdi
   1897b:	e8 73 1d ff ff       	callq  a6f3 <transparent_crc>
   18980:	48 8b 05 41 79 00 00 	mov    0x7941(%rip),%rax        # 202c8 <g_320>
   18987:	48 89 c1             	mov    %rax,%rcx
   1898a:	8b 45 fc             	mov    -0x4(%rbp),%eax
   1898d:	89 c2                	mov    %eax,%edx
   1898f:	48 8d 35 5f 35 00 00 	lea    0x355f(%rip),%rsi        # 1bef5 <g_2720+0xdfd>
   18996:	48 89 cf             	mov    %rcx,%rdi
   18999:	e8 55 1d ff ff       	callq  a6f3 <transparent_crc>
   1899e:	0f b6 05 2b 79 00 00 	movzbl 0x792b(%rip),%eax        # 202d0 <g_326>
   189a5:	48 0f be c0          	movsbq %al,%rax
   189a9:	8b 55 fc             	mov    -0x4(%rbp),%edx
   189ac:	48 8d 35 48 35 00 00 	lea    0x3548(%rip),%rsi        # 1befb <g_2720+0xe03>
   189b3:	48 89 c7             	mov    %rax,%rdi
   189b6:	e8 38 1d ff ff       	callq  a6f3 <transparent_crc>
   189bb:	c7 45 f0 00 00 00 00 	movl   $0x0,-0x10(%rbp)
   189c2:	e9 e9 00 00 00       	jmpq   18ab0 <main+0x6ae>
   189c7:	c7 45 f4 00 00 00 00 	movl   $0x0,-0xc(%rbp)
   189ce:	e9 cf 00 00 00       	jmpq   18aa2 <main+0x6a0>
   189d3:	8b 45 f4             	mov    -0xc(%rbp),%eax
   189d6:	48 98                	cltq   
   189d8:	8b 55 f0             	mov    -0x10(%rbp),%edx
   189db:	48 63 d2             	movslq %edx,%rdx
   189de:	48 c1 e2 03          	shl    $0x3,%rdx
   189e2:	48 01 d0             	add    %rdx,%rax
   189e5:	48 8d 14 85 00 00 00 	lea    0x0(,%rax,4),%rdx
   189ec:	00 
   189ed:	48 8d 05 ec 78 00 00 	lea    0x78ec(%rip),%rax        # 202e0 <g_343>
   189f4:	8b 04 02             	mov    (%rdx,%rax,1),%eax
   189f7:	89 c1                	mov    %eax,%ecx
   189f9:	8b 45 fc             	mov    -0x4(%rbp),%eax
   189fc:	89 c2                	mov    %eax,%edx
   189fe:	48 8d 35 ff 34 00 00 	lea    0x34ff(%rip),%rsi        # 1bf04 <g_2720+0xe0c>
   18a05:	48 89 cf             	mov    %rcx,%rdi
   18a08:	e8 e6 1c ff ff       	callq  a6f3 <transparent_crc>
   18a0d:	8b 45 f4             	mov    -0xc(%rbp),%eax
   18a10:	48 98                	cltq   
   18a12:	8b 55 f0             	mov    -0x10(%rbp),%edx
   18a15:	48 63 d2             	movslq %edx,%rdx
   18a18:	48 c1 e2 03          	shl    $0x3,%rdx
   18a1c:	48 01 d0             	add    %rdx,%rax
   18a1f:	48 8d 14 85 00 00 00 	lea    0x0(,%rax,4),%rdx
   18a26:	00 
   18a27:	48 8d 05 b2 78 00 00 	lea    0x78b2(%rip),%rax        # 202e0 <g_343>
   18a2e:	8b 04 02             	mov    (%rdx,%rax,1),%eax
   18a31:	89 c1                	mov    %eax,%ecx
   18a33:	8b 45 fc             	mov    -0x4(%rbp),%eax
   18a36:	89 c2                	mov    %eax,%edx
   18a38:	48 8d 35 d4 34 00 00 	lea    0x34d4(%rip),%rsi        # 1bf13 <g_2720+0xe1b>
   18a3f:	48 89 cf             	mov    %rcx,%rdi
   18a42:	e8 ac 1c ff ff       	callq  a6f3 <transparent_crc>
   18a47:	8b 45 f4             	mov    -0xc(%rbp),%eax
   18a4a:	48 98                	cltq   
   18a4c:	8b 55 f0             	mov    -0x10(%rbp),%edx
   18a4f:	48 63 d2             	movslq %edx,%rdx
   18a52:	48 c1 e2 03          	shl    $0x3,%rdx
   18a56:	48 01 d0             	add    %rdx,%rax
   18a59:	48 8d 14 85 00 00 00 	lea    0x0(,%rax,4),%rdx
   18a60:	00 
   18a61:	48 8d 05 78 78 00 00 	lea    0x7878(%rip),%rax        # 202e0 <g_343>
   18a68:	8b 04 02             	mov    (%rdx,%rax,1),%eax
   18a6b:	48 98                	cltq   
   18a6d:	8b 55 fc             	mov    -0x4(%rbp),%edx
   18a70:	48 8d 35 ab 34 00 00 	lea    0x34ab(%rip),%rsi        # 1bf22 <g_2720+0xe2a>
   18a77:	48 89 c7             	mov    %rax,%rdi
   18a7a:	e8 74 1c ff ff       	callq  a6f3 <transparent_crc>
   18a7f:	83 7d fc 00          	cmpl   $0x0,-0x4(%rbp)
   18a83:	74 19                	je     18a9e <main+0x69c>
   18a85:	8b 55 f4             	mov    -0xc(%rbp),%edx
   18a88:	8b 45 f0             	mov    -0x10(%rbp),%eax
   18a8b:	89 c6                	mov    %eax,%esi
   18a8d:	48 8d 3d 9d 34 00 00 	lea    0x349d(%rip),%rdi        # 1bf31 <g_2720+0xe39>
   18a94:	b8 00 00 00 00       	mov    $0x0,%eax
   18a99:	e8 e2 05 ff ff       	callq  9080 <printf@plt>
   18a9e:	83 45 f4 01          	addl   $0x1,-0xc(%rbp)
   18aa2:	83 7d f4 07          	cmpl   $0x7,-0xc(%rbp)
   18aa6:	0f 8e 27 ff ff ff    	jle    189d3 <main+0x5d1>
   18aac:	83 45 f0 01          	addl   $0x1,-0x10(%rbp)
   18ab0:	83 7d f0 04          	cmpl   $0x4,-0x10(%rbp)
   18ab4:	0f 8e 0d ff ff ff    	jle    189c7 <main+0x5c5>
   18aba:	8b 05 c0 78 00 00    	mov    0x78c0(%rip),%eax        # 20380 <g_389>
   18ac0:	89 c1                	mov    %eax,%ecx
   18ac2:	8b 45 fc             	mov    -0x4(%rbp),%eax
   18ac5:	89 c2                	mov    %eax,%edx
   18ac7:	48 8d 35 75 34 00 00 	lea    0x3475(%rip),%rsi        # 1bf43 <g_2720+0xe4b>
   18ace:	48 89 cf             	mov    %rcx,%rdi
   18ad1:	e8 1d 1c ff ff       	callq  a6f3 <transparent_crc>
   18ad6:	0f b6 05 a7 78 00 00 	movzbl 0x78a7(%rip),%eax        # 20384 <g_422>
   18add:	0f b6 c0             	movzbl %al,%eax
   18ae0:	8b 55 fc             	mov    -0x4(%rbp),%edx
   18ae3:	48 8d 35 5f 34 00 00 	lea    0x345f(%rip),%rsi        # 1bf49 <g_2720+0xe51>
   18aea:	48 89 c7             	mov    %rax,%rdi
   18aed:	e8 01 1c ff ff       	callq  a6f3 <transparent_crc>
   18af2:	c7 45 f0 00 00 00 00 	movl   $0x0,-0x10(%rbp)
   18af9:	eb 4b                	jmp    18b46 <main+0x744>
   18afb:	8b 45 f0             	mov    -0x10(%rbp),%eax
   18afe:	48 98                	cltq   
   18b00:	48 8d 14 85 00 00 00 	lea    0x0(,%rax,4),%rdx
   18b07:	00 
   18b08:	48 8d 05 81 78 00 00 	lea    0x7881(%rip),%rax        # 20390 <g_432>
   18b0f:	8b 04 02             	mov    (%rdx,%rax,1),%eax
   18b12:	48 98                	cltq   
   18b14:	8b 55 fc             	mov    -0x4(%rbp),%edx
   18b17:	48 8d 35 31 34 00 00 	lea    0x3431(%rip),%rsi        # 1bf4f <g_2720+0xe57>
   18b1e:	48 89 c7             	mov    %rax,%rdi
   18b21:	e8 cd 1b ff ff       	callq  a6f3 <transparent_crc>
   18b26:	83 7d fc 00          	cmpl   $0x0,-0x4(%rbp)
   18b2a:	74 16                	je     18b42 <main+0x740>
   18b2c:	8b 45 f0             	mov    -0x10(%rbp),%eax
   18b2f:	89 c6                	mov    %eax,%esi
   18b31:	48 8d 3d 06 33 00 00 	lea    0x3306(%rip),%rdi        # 1be3e <g_2720+0xd46>
   18b38:	b8 00 00 00 00       	mov    $0x0,%eax
   18b3d:	e8 3e 05 ff ff       	callq  9080 <printf@plt>
   18b42:	83 45 f0 01          	addl   $0x1,-0x10(%rbp)
   18b46:	83 7d f0 04          	cmpl   $0x4,-0x10(%rbp)
   18b4a:	7e af                	jle    18afb <main+0x6f9>
   18b4c:	8b 05 52 78 00 00    	mov    0x7852(%rip),%eax        # 203a4 <g_478>
   18b52:	48 98                	cltq   
   18b54:	8b 55 fc             	mov    -0x4(%rbp),%edx
   18b57:	48 8d 35 fa 33 00 00 	lea    0x33fa(%rip),%rsi        # 1bf58 <g_2720+0xe60>
   18b5e:	48 89 c7             	mov    %rax,%rdi
   18b61:	e8 8d 1b ff ff       	callq  a6f3 <transparent_crc>
   18b66:	48 b8 51 ec 9a 6d 46 	movabs $0x606497466d9aec51,%rax
   18b6d:	97 64 60 
   18b70:	48 89 c1             	mov    %rax,%rcx
   18b73:	8b 45 fc             	mov    -0x4(%rbp),%eax
   18b76:	89 c2                	mov    %eax,%edx
   18b78:	48 8d 35 df 33 00 00 	lea    0x33df(%rip),%rsi        # 1bf5e <g_2720+0xe66>
   18b7f:	48 89 cf             	mov    %rcx,%rdi
   18b82:	e8 6c 1b ff ff       	callq  a6f3 <transparent_crc>
   18b87:	0f b6 05 d2 24 00 00 	movzbl 0x24d2(%rip),%eax        # 1b060 <g_489>
   18b8e:	0f b6 c0             	movzbl %al,%eax
   18b91:	8b 55 fc             	mov    -0x4(%rbp),%edx
   18b94:	48 8d 35 cc 33 00 00 	lea    0x33cc(%rip),%rsi        # 1bf67 <g_2720+0xe6f>
   18b9b:	48 89 c7             	mov    %rax,%rdi
   18b9e:	e8 50 1b ff ff       	callq  a6f3 <transparent_crc>
   18ba3:	0f b6 05 fe 77 00 00 	movzbl 0x77fe(%rip),%eax        # 203a8 <g_498>
   18baa:	48 0f be c0          	movsbq %al,%rax
   18bae:	8b 55 fc             	mov    -0x4(%rbp),%edx
   18bb1:	48 8d 35 b8 33 00 00 	lea    0x33b8(%rip),%rsi        # 1bf70 <g_2720+0xe78>
   18bb8:	48 89 c7             	mov    %rax,%rdi
   18bbb:	e8 33 1b ff ff       	callq  a6f3 <transparent_crc>
   18bc0:	c7 45 f0 00 00 00 00 	movl   $0x0,-0x10(%rbp)
   18bc7:	eb 4e                	jmp    18c17 <main+0x815>
   18bc9:	8b 45 f0             	mov    -0x10(%rbp),%eax
   18bcc:	48 98                	cltq   
   18bce:	48 8d 14 c5 00 00 00 	lea    0x0(,%rax,8),%rdx
   18bd5:	00 
   18bd6:	48 8d 05 c3 d1 00 00 	lea    0xd1c3(%rip),%rax        # 25da0 <g_598>
   18bdd:	0f b7 04 02          	movzwl (%rdx,%rax,1),%eax
   18be1:	48 0f bf c0          	movswq %ax,%rax
   18be5:	8b 55 fc             	mov    -0x4(%rbp),%edx
   18be8:	48 8d 35 87 33 00 00 	lea    0x3387(%rip),%rsi        # 1bf76 <g_2720+0xe7e>
   18bef:	48 89 c7             	mov    %rax,%rdi
   18bf2:	e8 fc 1a ff ff       	callq  a6f3 <transparent_crc>
   18bf7:	83 7d fc 00          	cmpl   $0x0,-0x4(%rbp)
   18bfb:	74 16                	je     18c13 <main+0x811>
   18bfd:	8b 45 f0             	mov    -0x10(%rbp),%eax
   18c00:	89 c6                	mov    %eax,%esi
   18c02:	48 8d 3d 35 32 00 00 	lea    0x3235(%rip),%rdi        # 1be3e <g_2720+0xd46>
   18c09:	b8 00 00 00 00       	mov    $0x0,%eax
   18c0e:	e8 6d 04 ff ff       	callq  9080 <printf@plt>
   18c13:	83 45 f0 01          	addl   $0x1,-0x10(%rbp)
   18c17:	83 7d f0 05          	cmpl   $0x5,-0x10(%rbp)
   18c1b:	7e ac                	jle    18bc9 <main+0x7c7>
   18c1d:	0f b7 05 86 77 00 00 	movzwl 0x7786(%rip),%eax        # 203aa <g_599>
   18c24:	0f b7 c0             	movzwl %ax,%eax
   18c27:	8b 55 fc             	mov    -0x4(%rbp),%edx
   18c2a:	48 8d 35 51 33 00 00 	lea    0x3351(%rip),%rsi        # 1bf82 <g_2720+0xe8a>
   18c31:	48 89 c7             	mov    %rax,%rdi
   18c34:	e8 ba 1a ff ff       	callq  a6f3 <transparent_crc>
   18c39:	8b 05 6d 77 00 00    	mov    0x776d(%rip),%eax        # 203ac <g_660>
   18c3f:	89 c1                	mov    %eax,%ecx
   18c41:	8b 45 fc             	mov    -0x4(%rbp),%eax
   18c44:	89 c2                	mov    %eax,%edx
   18c46:	48 8d 35 3b 33 00 00 	lea    0x333b(%rip),%rsi        # 1bf88 <g_2720+0xe90>
   18c4d:	48 89 cf             	mov    %rcx,%rdi
   18c50:	e8 9e 1a ff ff       	callq  a6f3 <transparent_crc>
   18c55:	8b 05 51 77 00 00    	mov    0x7751(%rip),%eax        # 203ac <g_660>
   18c5b:	89 c1                	mov    %eax,%ecx
   18c5d:	8b 45 fc             	mov    -0x4(%rbp),%eax
   18c60:	89 c2                	mov    %eax,%edx
   18c62:	48 8d 35 28 33 00 00 	lea    0x3328(%rip),%rsi        # 1bf91 <g_2720+0xe99>
   18c69:	48 89 cf             	mov    %rcx,%rdi
   18c6c:	e8 82 1a ff ff       	callq  a6f3 <transparent_crc>
   18c71:	8b 05 35 77 00 00    	mov    0x7735(%rip),%eax        # 203ac <g_660>
   18c77:	48 98                	cltq   
   18c79:	8b 55 fc             	mov    -0x4(%rbp),%edx
   18c7c:	48 8d 35 17 33 00 00 	lea    0x3317(%rip),%rsi        # 1bf9a <g_2720+0xea2>
   18c83:	48 89 c7             	mov    %rax,%rdi
   18c86:	e8 68 1a ff ff       	callq  a6f3 <transparent_crc>
   18c8b:	8b 05 1f 77 00 00    	mov    0x771f(%rip),%eax        # 203b0 <g_670>
   18c91:	89 c1                	mov    %eax,%ecx
   18c93:	8b 45 fc             	mov    -0x4(%rbp),%eax
   18c96:	89 c2                	mov    %eax,%edx
   18c98:	48 8d 35 04 33 00 00 	lea    0x3304(%rip),%rsi        # 1bfa3 <g_2720+0xeab>
   18c9f:	48 89 cf             	mov    %rcx,%rdi
   18ca2:	e8 4c 1a ff ff       	callq  a6f3 <transparent_crc>
   18ca7:	8b 05 03 77 00 00    	mov    0x7703(%rip),%eax        # 203b0 <g_670>
   18cad:	89 c1                	mov    %eax,%ecx
   18caf:	8b 45 fc             	mov    -0x4(%rbp),%eax
   18cb2:	89 c2                	mov    %eax,%edx
   18cb4:	48 8d 35 f1 32 00 00 	lea    0x32f1(%rip),%rsi        # 1bfac <g_2720+0xeb4>
   18cbb:	48 89 cf             	mov    %rcx,%rdi
   18cbe:	e8 30 1a ff ff       	callq  a6f3 <transparent_crc>
   18cc3:	8b 05 e7 76 00 00    	mov    0x76e7(%rip),%eax        # 203b0 <g_670>
   18cc9:	48 98                	cltq   
   18ccb:	8b 55 fc             	mov    -0x4(%rbp),%edx
   18cce:	48 8d 35 e0 32 00 00 	lea    0x32e0(%rip),%rsi        # 1bfb5 <g_2720+0xebd>
   18cd5:	48 89 c7             	mov    %rax,%rdi
   18cd8:	e8 16 1a ff ff       	callq  a6f3 <transparent_crc>
   18cdd:	8b 05 d1 76 00 00    	mov    0x76d1(%rip),%eax        # 203b4 <g_753>
   18ce3:	89 c1                	mov    %eax,%ecx
   18ce5:	8b 45 fc             	mov    -0x4(%rbp),%eax
   18ce8:	89 c2                	mov    %eax,%edx
   18cea:	48 8d 35 cd 32 00 00 	lea    0x32cd(%rip),%rsi        # 1bfbe <g_2720+0xec6>
   18cf1:	48 89 cf             	mov    %rcx,%rdi
   18cf4:	e8 fa 19 ff ff       	callq  a6f3 <transparent_crc>
   18cf9:	8b 05 b5 76 00 00    	mov    0x76b5(%rip),%eax        # 203b4 <g_753>
   18cff:	89 c1                	mov    %eax,%ecx
   18d01:	8b 45 fc             	mov    -0x4(%rbp),%eax
   18d04:	89 c2                	mov    %eax,%edx
   18d06:	48 8d 35 ba 32 00 00 	lea    0x32ba(%rip),%rsi        # 1bfc7 <g_2720+0xecf>
   18d0d:	48 89 cf             	mov    %rcx,%rdi
   18d10:	e8 de 19 ff ff       	callq  a6f3 <transparent_crc>
   18d15:	8b 05 99 76 00 00    	mov    0x7699(%rip),%eax        # 203b4 <g_753>
   18d1b:	48 98                	cltq   
   18d1d:	8b 55 fc             	mov    -0x4(%rbp),%edx
   18d20:	48 8d 35 a9 32 00 00 	lea    0x32a9(%rip),%rsi        # 1bfd0 <g_2720+0xed8>
   18d27:	48 89 c7             	mov    %rax,%rdi
   18d2a:	e8 c4 19 ff ff       	callq  a6f3 <transparent_crc>
   18d2f:	48 8b 05 82 76 00 00 	mov    0x7682(%rip),%rax        # 203b8 <g_758>
   18d36:	8b 55 fc             	mov    -0x4(%rbp),%edx
   18d39:	48 8d 35 99 32 00 00 	lea    0x3299(%rip),%rsi        # 1bfd9 <g_2720+0xee1>
   18d40:	48 89 c7             	mov    %rax,%rdi
   18d43:	e8 ab 19 ff ff       	callq  a6f3 <transparent_crc>
   18d48:	48 8b 05 71 76 00 00 	mov    0x7671(%rip),%rax        # 203c0 <g_771>
   18d4f:	48 89 c1             	mov    %rax,%rcx
   18d52:	8b 45 fc             	mov    -0x4(%rbp),%eax
   18d55:	89 c2                	mov    %eax,%edx
   18d57:	48 8d 35 81 32 00 00 	lea    0x3281(%rip),%rsi        # 1bfdf <g_2720+0xee7>
   18d5e:	48 89 cf             	mov    %rcx,%rdi
   18d61:	e8 8d 19 ff ff       	callq  a6f3 <transparent_crc>
   18d66:	c7 45 f0 00 00 00 00 	movl   $0x0,-0x10(%rbp)
   18d6d:	e9 a5 00 00 00       	jmpq   18e17 <main+0xa15>
   18d72:	8b 45 f0             	mov    -0x10(%rbp),%eax
   18d75:	48 98                	cltq   
   18d77:	48 8d 14 85 00 00 00 	lea    0x0(,%rax,4),%rdx
   18d7e:	00 
   18d7f:	48 8d 05 4a 76 00 00 	lea    0x764a(%rip),%rax        # 203d0 <g_808>
   18d86:	8b 04 02             	mov    (%rdx,%rax,1),%eax
   18d89:	89 c1                	mov    %eax,%ecx
   18d8b:	8b 45 fc             	mov    -0x4(%rbp),%eax
   18d8e:	89 c2                	mov    %eax,%edx
   18d90:	48 8d 35 4e 32 00 00 	lea    0x324e(%rip),%rsi        # 1bfe5 <g_2720+0xeed>
   18d97:	48 89 cf             	mov    %rcx,%rdi
   18d9a:	e8 54 19 ff ff       	callq  a6f3 <transparent_crc>
   18d9f:	8b 45 f0             	mov    -0x10(%rbp),%eax
   18da2:	48 98                	cltq   
   18da4:	48 8d 14 85 00 00 00 	lea    0x0(,%rax,4),%rdx
   18dab:	00 
   18dac:	48 8d 05 1d 76 00 00 	lea    0x761d(%rip),%rax        # 203d0 <g_808>
   18db3:	8b 04 02             	mov    (%rdx,%rax,1),%eax
   18db6:	89 c1                	mov    %eax,%ecx
   18db8:	8b 45 fc             	mov    -0x4(%rbp),%eax
   18dbb:	89 c2                	mov    %eax,%edx
   18dbd:	48 8d 35 2d 32 00 00 	lea    0x322d(%rip),%rsi        # 1bff1 <g_2720+0xef9>
   18dc4:	48 89 cf             	mov    %rcx,%rdi
   18dc7:	e8 27 19 ff ff       	callq  a6f3 <transparent_crc>
   18dcc:	8b 45 f0             	mov    -0x10(%rbp),%eax
   18dcf:	48 98                	cltq   
   18dd1:	48 8d 14 85 00 00 00 	lea    0x0(,%rax,4),%rdx
   18dd8:	00 
   18dd9:	48 8d 05 f0 75 00 00 	lea    0x75f0(%rip),%rax        # 203d0 <g_808>
   18de0:	8b 04 02             	mov    (%rdx,%rax,1),%eax
   18de3:	48 98                	cltq   
   18de5:	8b 55 fc             	mov    -0x4(%rbp),%edx
   18de8:	48 8d 35 0e 32 00 00 	lea    0x320e(%rip),%rsi        # 1bffd <g_2720+0xf05>
   18def:	48 89 c7             	mov    %rax,%rdi
   18df2:	e8 fc 18 ff ff       	callq  a6f3 <transparent_crc>
   18df7:	83 7d fc 00          	cmpl   $0x0,-0x4(%rbp)
   18dfb:	74 16                	je     18e13 <main+0xa11>
   18dfd:	8b 45 f0             	mov    -0x10(%rbp),%eax
   18e00:	89 c6                	mov    %eax,%esi
   18e02:	48 8d 3d 35 30 00 00 	lea    0x3035(%rip),%rdi        # 1be3e <g_2720+0xd46>
   18e09:	b8 00 00 00 00       	mov    $0x0,%eax
   18e0e:	e8 6d 02 ff ff       	callq  9080 <printf@plt>
   18e13:	83 45 f0 01          	addl   $0x1,-0x10(%rbp)
   18e17:	83 7d f0 06          	cmpl   $0x6,-0x10(%rbp)
   18e1b:	0f 8e 51 ff ff ff    	jle    18d72 <main+0x970>
   18e21:	8b 05 c5 75 00 00    	mov    0x75c5(%rip),%eax        # 203ec <g_829>
   18e27:	89 c1                	mov    %eax,%ecx
   18e29:	8b 45 fc             	mov    -0x4(%rbp),%eax
   18e2c:	89 c2                	mov    %eax,%edx
   18e2e:	48 8d 35 d4 31 00 00 	lea    0x31d4(%rip),%rsi        # 1c009 <g_2720+0xf11>
   18e35:	48 89 cf             	mov    %rcx,%rdi
   18e38:	e8 b6 18 ff ff       	callq  a6f3 <transparent_crc>
   18e3d:	8b 05 a9 75 00 00    	mov    0x75a9(%rip),%eax        # 203ec <g_829>
   18e43:	89 c1                	mov    %eax,%ecx
   18e45:	8b 45 fc             	mov    -0x4(%rbp),%eax
   18e48:	89 c2                	mov    %eax,%edx
   18e4a:	48 8d 35 c1 31 00 00 	lea    0x31c1(%rip),%rsi        # 1c012 <g_2720+0xf1a>
   18e51:	48 89 cf             	mov    %rcx,%rdi
   18e54:	e8 9a 18 ff ff       	callq  a6f3 <transparent_crc>
   18e59:	8b 05 8d 75 00 00    	mov    0x758d(%rip),%eax        # 203ec <g_829>
   18e5f:	48 98                	cltq   
   18e61:	8b 55 fc             	mov    -0x4(%rbp),%edx
   18e64:	48 8d 35 b0 31 00 00 	lea    0x31b0(%rip),%rsi        # 1c01b <g_2720+0xf23>
   18e6b:	48 89 c7             	mov    %rax,%rdi
   18e6e:	e8 80 18 ff ff       	callq  a6f3 <transparent_crc>
   18e73:	48 8b 05 76 75 00 00 	mov    0x7576(%rip),%rax        # 203f0 <g_860>
   18e7a:	48 89 c1             	mov    %rax,%rcx
   18e7d:	8b 45 fc             	mov    -0x4(%rbp),%eax
   18e80:	89 c2                	mov    %eax,%edx
   18e82:	48 8d 35 9b 31 00 00 	lea    0x319b(%rip),%rsi        # 1c024 <g_2720+0xf2c>
   18e89:	48 89 cf             	mov    %rcx,%rdi
   18e8c:	e8 62 18 ff ff       	callq  a6f3 <transparent_crc>
   18e91:	0f b6 05 58 75 00 00 	movzbl 0x7558(%rip),%eax        # 203f0 <g_860>
   18e98:	0f b6 c0             	movzbl %al,%eax
   18e9b:	8b 55 fc             	mov    -0x4(%rbp),%edx
   18e9e:	48 8d 35 88 31 00 00 	lea    0x3188(%rip),%rsi        # 1c02d <g_2720+0xf35>
   18ea5:	48 89 c7             	mov    %rax,%rdi
   18ea8:	e8 46 18 ff ff       	callq  a6f3 <transparent_crc>
   18ead:	48 8b 05 44 75 00 00 	mov    0x7544(%rip),%rax        # 203f8 <g_865>
   18eb4:	48 89 c1             	mov    %rax,%rcx
   18eb7:	8b 45 fc             	mov    -0x4(%rbp),%eax
   18eba:	89 c2                	mov    %eax,%edx
   18ebc:	48 8d 35 73 31 00 00 	lea    0x3173(%rip),%rsi        # 1c036 <g_2720+0xf3e>
   18ec3:	48 89 cf             	mov    %rcx,%rdi
   18ec6:	e8 28 18 ff ff       	callq  a6f3 <transparent_crc>
   18ecb:	0f b6 05 26 75 00 00 	movzbl 0x7526(%rip),%eax        # 203f8 <g_865>
   18ed2:	0f b6 c0             	movzbl %al,%eax
   18ed5:	8b 55 fc             	mov    -0x4(%rbp),%edx
   18ed8:	48 8d 35 60 31 00 00 	lea    0x3160(%rip),%rsi        # 1c03f <g_2720+0xf47>
   18edf:	48 89 c7             	mov    %rax,%rdi
   18ee2:	e8 0c 18 ff ff       	callq  a6f3 <transparent_crc>
   18ee7:	c7 45 f0 00 00 00 00 	movl   $0x0,-0x10(%rbp)
   18eee:	eb 4e                	jmp    18f3e <main+0xb3c>
   18ef0:	8b 45 f0             	mov    -0x10(%rbp),%eax
   18ef3:	48 98                	cltq   
   18ef5:	48 8d 14 c5 00 00 00 	lea    0x0(,%rax,8),%rdx
   18efc:	00 
   18efd:	48 8d 05 fc 74 00 00 	lea    0x74fc(%rip),%rax        # 20400 <g_898>
   18f04:	0f b7 04 02          	movzwl (%rdx,%rax,1),%eax
   18f08:	48 0f bf c0          	movswq %ax,%rax
   18f0c:	8b 55 fc             	mov    -0x4(%rbp),%edx
   18f0f:	48 8d 35 32 31 00 00 	lea    0x3132(%rip),%rsi        # 1c048 <g_2720+0xf50>
   18f16:	48 89 c7             	mov    %rax,%rdi
   18f19:	e8 d5 17 ff ff       	callq  a6f3 <transparent_crc>
   18f1e:	83 7d fc 00          	cmpl   $0x0,-0x4(%rbp)
   18f22:	74 16                	je     18f3a <main+0xb38>
   18f24:	8b 45 f0             	mov    -0x10(%rbp),%eax
   18f27:	89 c6                	mov    %eax,%esi
   18f29:	48 8d 3d 0e 2f 00 00 	lea    0x2f0e(%rip),%rdi        # 1be3e <g_2720+0xd46>
   18f30:	b8 00 00 00 00       	mov    $0x0,%eax
   18f35:	e8 46 01 ff ff       	callq  9080 <printf@plt>
   18f3a:	83 45 f0 01          	addl   $0x1,-0x10(%rbp)
   18f3e:	83 7d f0 05          	cmpl   $0x5,-0x10(%rbp)
   18f42:	7e ac                	jle    18ef0 <main+0xaee>
   18f44:	8b 05 e6 74 00 00    	mov    0x74e6(%rip),%eax        # 20430 <g_956>
   18f4a:	89 c1                	mov    %eax,%ecx
   18f4c:	8b 45 fc             	mov    -0x4(%rbp),%eax
   18f4f:	89 c2                	mov    %eax,%edx
   18f51:	48 8d 35 fc 30 00 00 	lea    0x30fc(%rip),%rsi        # 1c054 <g_2720+0xf5c>
   18f58:	48 89 cf             	mov    %rcx,%rdi
   18f5b:	e8 93 17 ff ff       	callq  a6f3 <transparent_crc>
   18f60:	8b 05 ca 74 00 00    	mov    0x74ca(%rip),%eax        # 20430 <g_956>
   18f66:	89 c1                	mov    %eax,%ecx
   18f68:	8b 45 fc             	mov    -0x4(%rbp),%eax
   18f6b:	89 c2                	mov    %eax,%edx
   18f6d:	48 8d 35 e9 30 00 00 	lea    0x30e9(%rip),%rsi        # 1c05d <g_2720+0xf65>
   18f74:	48 89 cf             	mov    %rcx,%rdi
   18f77:	e8 77 17 ff ff       	callq  a6f3 <transparent_crc>
   18f7c:	8b 05 ae 74 00 00    	mov    0x74ae(%rip),%eax        # 20430 <g_956>
   18f82:	48 98                	cltq   
   18f84:	8b 55 fc             	mov    -0x4(%rbp),%edx
   18f87:	48 8d 35 d8 30 00 00 	lea    0x30d8(%rip),%rsi        # 1c066 <g_2720+0xf6e>
   18f8e:	48 89 c7             	mov    %rax,%rdi
   18f91:	e8 5d 17 ff ff       	callq  a6f3 <transparent_crc>
   18f96:	0f b7 05 3b ce 00 00 	movzwl 0xce3b(%rip),%eax        # 25dd8 <g_1014>
   18f9d:	48 0f bf c0          	movswq %ax,%rax
   18fa1:	8b 55 fc             	mov    -0x4(%rbp),%edx
   18fa4:	48 8d 35 c4 30 00 00 	lea    0x30c4(%rip),%rsi        # 1c06f <g_2720+0xf77>
   18fab:	48 89 c7             	mov    %rax,%rdi
   18fae:	e8 40 17 ff ff       	callq  a6f3 <transparent_crc>
   18fb3:	8b 05 7b 74 00 00    	mov    0x747b(%rip),%eax        # 20434 <g_1021>
   18fb9:	48 98                	cltq   
   18fbb:	8b 55 fc             	mov    -0x4(%rbp),%edx
   18fbe:	48 8d 35 b4 30 00 00 	lea    0x30b4(%rip),%rsi        # 1c079 <g_2720+0xf81>
   18fc5:	48 89 c7             	mov    %rax,%rdi
   18fc8:	e8 26 17 ff ff       	callq  a6f3 <transparent_crc>
   18fcd:	b8 0e 51 00 00       	mov    $0x510e,%eax
   18fd2:	48 0f bf c0          	movswq %ax,%rax
   18fd6:	8b 55 fc             	mov    -0x4(%rbp),%edx
   18fd9:	48 8d 35 a0 30 00 00 	lea    0x30a0(%rip),%rsi        # 1c080 <g_2720+0xf88>
   18fe0:	48 89 c7             	mov    %rax,%rdi
   18fe3:	e8 0b 17 ff ff       	callq  a6f3 <transparent_crc>
   18fe8:	0f b7 05 49 74 00 00 	movzwl 0x7449(%rip),%eax        # 20438 <g_1049>
   18fef:	48 0f bf c0          	movswq %ax,%rax
   18ff3:	8b 55 fc             	mov    -0x4(%rbp),%edx
   18ff6:	48 8d 35 8d 30 00 00 	lea    0x308d(%rip),%rsi        # 1c08a <g_2720+0xf92>
   18ffd:	48 89 c7             	mov    %rax,%rdi
   19000:	e8 ee 16 ff ff       	callq  a6f3 <transparent_crc>
   19005:	48 8b 05 34 74 00 00 	mov    0x7434(%rip),%rax        # 20440 <g_1061>
   1900c:	48 89 c1             	mov    %rax,%rcx
   1900f:	8b 45 fc             	mov    -0x4(%rbp),%eax
   19012:	89 c2                	mov    %eax,%edx
   19014:	48 8d 35 79 30 00 00 	lea    0x3079(%rip),%rsi        # 1c094 <g_2720+0xf9c>
   1901b:	48 89 cf             	mov    %rcx,%rdi
   1901e:	e8 d0 16 ff ff       	callq  a6f3 <transparent_crc>
   19023:	0f b6 05 16 74 00 00 	movzbl 0x7416(%rip),%eax        # 20440 <g_1061>
   1902a:	0f b6 c0             	movzbl %al,%eax
   1902d:	8b 55 fc             	mov    -0x4(%rbp),%edx
   19030:	48 8d 35 67 30 00 00 	lea    0x3067(%rip),%rsi        # 1c09e <g_2720+0xfa6>
   19037:	48 89 c7             	mov    %rax,%rdi
   1903a:	e8 b4 16 ff ff       	callq  a6f3 <transparent_crc>
   1903f:	c7 45 f0 00 00 00 00 	movl   $0x0,-0x10(%rbp)
   19046:	eb 70                	jmp    190b8 <main+0xcb6>
   19048:	c7 45 f4 00 00 00 00 	movl   $0x0,-0xc(%rbp)
   1904f:	eb 5d                	jmp    190ae <main+0xcac>
   19051:	8b 45 f4             	mov    -0xc(%rbp),%eax
   19054:	48 98                	cltq   
   19056:	8b 55 f0             	mov    -0x10(%rbp),%edx
   19059:	48 63 d2             	movslq %edx,%rdx
   1905c:	48 01 d2             	add    %rdx,%rdx
   1905f:	48 01 d0             	add    %rdx,%rax
   19062:	48 8d 14 c5 00 00 00 	lea    0x0(,%rax,8),%rdx
   19069:	00 
   1906a:	48 8d 05 ef 73 00 00 	lea    0x73ef(%rip),%rax        # 20460 <g_1069>
   19071:	0f b7 04 02          	movzwl (%rdx,%rax,1),%eax
   19075:	48 0f bf c0          	movswq %ax,%rax
   19079:	8b 55 fc             	mov    -0x4(%rbp),%edx
   1907c:	48 8d 35 25 30 00 00 	lea    0x3025(%rip),%rsi        # 1c0a8 <g_2720+0xfb0>
   19083:	48 89 c7             	mov    %rax,%rdi
   19086:	e8 68 16 ff ff       	callq  a6f3 <transparent_crc>
   1908b:	83 7d fc 00          	cmpl   $0x0,-0x4(%rbp)
   1908f:	74 19                	je     190aa <main+0xca8>
   19091:	8b 55 f4             	mov    -0xc(%rbp),%edx
   19094:	8b 45 f0             	mov    -0x10(%rbp),%eax
   19097:	89 c6                	mov    %eax,%esi
   19099:	48 8d 3d 91 2e 00 00 	lea    0x2e91(%rip),%rdi        # 1bf31 <g_2720+0xe39>
   190a0:	b8 00 00 00 00       	mov    $0x0,%eax
   190a5:	e8 d6 ff fe ff       	callq  9080 <printf@plt>
   190aa:	83 45 f4 01          	addl   $0x1,-0xc(%rbp)
   190ae:	83 7d f4 01          	cmpl   $0x1,-0xc(%rbp)
   190b2:	7e 9d                	jle    19051 <main+0xc4f>
   190b4:	83 45 f0 01          	addl   $0x1,-0x10(%rbp)
   190b8:	83 7d f0 06          	cmpl   $0x6,-0x10(%rbp)
   190bc:	7e 8a                	jle    19048 <main+0xc46>
   190be:	0f b7 05 0b 74 00 00 	movzwl 0x740b(%rip),%eax        # 204d0 <g_1084>
   190c5:	48 0f bf c0          	movswq %ax,%rax
   190c9:	8b 55 fc             	mov    -0x4(%rbp),%edx
   190cc:	48 8d 35 e5 2f 00 00 	lea    0x2fe5(%rip),%rsi        # 1c0b8 <g_2720+0xfc0>
   190d3:	48 89 c7             	mov    %rax,%rdi
   190d6:	e8 18 16 ff ff       	callq  a6f3 <transparent_crc>
   190db:	8b 05 f7 73 00 00    	mov    0x73f7(%rip),%eax        # 204d8 <g_1100>
   190e1:	89 c1                	mov    %eax,%ecx
   190e3:	8b 45 fc             	mov    -0x4(%rbp),%eax
   190e6:	89 c2                	mov    %eax,%edx
   190e8:	48 8d 35 d3 2f 00 00 	lea    0x2fd3(%rip),%rsi        # 1c0c2 <g_2720+0xfca>
   190ef:	48 89 cf             	mov    %rcx,%rdi
   190f2:	e8 fc 15 ff ff       	callq  a6f3 <transparent_crc>
   190f7:	8b 05 db 73 00 00    	mov    0x73db(%rip),%eax        # 204d8 <g_1100>
   190fd:	89 c1                	mov    %eax,%ecx
   190ff:	8b 45 fc             	mov    -0x4(%rbp),%eax
   19102:	89 c2                	mov    %eax,%edx
   19104:	48 8d 35 c1 2f 00 00 	lea    0x2fc1(%rip),%rsi        # 1c0cc <g_2720+0xfd4>
   1910b:	48 89 cf             	mov    %rcx,%rdi
   1910e:	e8 e0 15 ff ff       	callq  a6f3 <transparent_crc>
   19113:	8b 05 bf 73 00 00    	mov    0x73bf(%rip),%eax        # 204d8 <g_1100>
   19119:	48 98                	cltq   
   1911b:	8b 55 fc             	mov    -0x4(%rbp),%edx
   1911e:	48 8d 35 b1 2f 00 00 	lea    0x2fb1(%rip),%rsi        # 1c0d6 <g_2720+0xfde>
   19125:	48 89 c7             	mov    %rax,%rdi
   19128:	e8 c6 15 ff ff       	callq  a6f3 <transparent_crc>
   1912d:	8b 05 a9 73 00 00    	mov    0x73a9(%rip),%eax        # 204dc <g_1101>
   19133:	89 c1                	mov    %eax,%ecx
   19135:	8b 45 fc             	mov    -0x4(%rbp),%eax
   19138:	89 c2                	mov    %eax,%edx
   1913a:	48 8d 35 9f 2f 00 00 	lea    0x2f9f(%rip),%rsi        # 1c0e0 <g_2720+0xfe8>
   19141:	48 89 cf             	mov    %rcx,%rdi
   19144:	e8 aa 15 ff ff       	callq  a6f3 <transparent_crc>
   19149:	8b 05 8d 73 00 00    	mov    0x738d(%rip),%eax        # 204dc <g_1101>
   1914f:	89 c1                	mov    %eax,%ecx
   19151:	8b 45 fc             	mov    -0x4(%rbp),%eax
   19154:	89 c2                	mov    %eax,%edx
   19156:	48 8d 35 8d 2f 00 00 	lea    0x2f8d(%rip),%rsi        # 1c0ea <g_2720+0xff2>
   1915d:	48 89 cf             	mov    %rcx,%rdi
   19160:	e8 8e 15 ff ff       	callq  a6f3 <transparent_crc>
   19165:	8b 05 71 73 00 00    	mov    0x7371(%rip),%eax        # 204dc <g_1101>
   1916b:	48 98                	cltq   
   1916d:	8b 55 fc             	mov    -0x4(%rbp),%edx
   19170:	48 8d 35 7d 2f 00 00 	lea    0x2f7d(%rip),%rsi        # 1c0f4 <g_2720+0xffc>
   19177:	48 89 c7             	mov    %rax,%rdi
   1917a:	e8 74 15 ff ff       	callq  a6f3 <transparent_crc>
   1917f:	8b 05 5b 73 00 00    	mov    0x735b(%rip),%eax        # 204e0 <g_1139>
   19185:	89 c1                	mov    %eax,%ecx
   19187:	8b 45 fc             	mov    -0x4(%rbp),%eax
   1918a:	89 c2                	mov    %eax,%edx
   1918c:	48 8d 35 6b 2f 00 00 	lea    0x2f6b(%rip),%rsi        # 1c0fe <g_2720+0x1006>
   19193:	48 89 cf             	mov    %rcx,%rdi
   19196:	e8 58 15 ff ff       	callq  a6f3 <transparent_crc>
   1919b:	8b 05 3f 73 00 00    	mov    0x733f(%rip),%eax        # 204e0 <g_1139>
   191a1:	89 c1                	mov    %eax,%ecx
   191a3:	8b 45 fc             	mov    -0x4(%rbp),%eax
   191a6:	89 c2                	mov    %eax,%edx
   191a8:	48 8d 35 59 2f 00 00 	lea    0x2f59(%rip),%rsi        # 1c108 <g_2720+0x1010>
   191af:	48 89 cf             	mov    %rcx,%rdi
   191b2:	e8 3c 15 ff ff       	callq  a6f3 <transparent_crc>
   191b7:	8b 05 23 73 00 00    	mov    0x7323(%rip),%eax        # 204e0 <g_1139>
   191bd:	48 98                	cltq   
   191bf:	8b 55 fc             	mov    -0x4(%rbp),%edx
   191c2:	48 8d 35 49 2f 00 00 	lea    0x2f49(%rip),%rsi        # 1c112 <g_2720+0x101a>
   191c9:	48 89 c7             	mov    %rax,%rdi
   191cc:	e8 22 15 ff ff       	callq  a6f3 <transparent_crc>
   191d1:	8b 05 0d 73 00 00    	mov    0x730d(%rip),%eax        # 204e4 <g_1148>
   191d7:	89 c1                	mov    %eax,%ecx
   191d9:	8b 45 fc             	mov    -0x4(%rbp),%eax
   191dc:	89 c2                	mov    %eax,%edx
   191de:	48 8d 35 37 2f 00 00 	lea    0x2f37(%rip),%rsi        # 1c11c <g_2720+0x1024>
   191e5:	48 89 cf             	mov    %rcx,%rdi
   191e8:	e8 06 15 ff ff       	callq  a6f3 <transparent_crc>
   191ed:	c7 45 f0 00 00 00 00 	movl   $0x0,-0x10(%rbp)
   191f4:	eb 7c                	jmp    19272 <main+0xe70>
   191f6:	8b 45 f0             	mov    -0x10(%rbp),%eax
   191f9:	48 98                	cltq   
   191fb:	48 8d 14 c5 00 00 00 	lea    0x0(,%rax,8),%rdx
   19202:	00 
   19203:	48 8d 05 76 1e 00 00 	lea    0x1e76(%rip),%rax        # 1b080 <g_1192>
   1920a:	48 8b 04 02          	mov    (%rdx,%rax,1),%rax
   1920e:	48 89 c1             	mov    %rax,%rcx
   19211:	8b 45 fc             	mov    -0x4(%rbp),%eax
   19214:	89 c2                	mov    %eax,%edx
   19216:	48 8d 35 06 2f 00 00 	lea    0x2f06(%rip),%rsi        # 1c123 <g_2720+0x102b>
   1921d:	48 89 cf             	mov    %rcx,%rdi
   19220:	e8 ce 14 ff ff       	callq  a6f3 <transparent_crc>
   19225:	8b 45 f0             	mov    -0x10(%rbp),%eax
   19228:	48 98                	cltq   
   1922a:	48 8d 14 c5 00 00 00 	lea    0x0(,%rax,8),%rdx
   19231:	00 
   19232:	48 8d 05 47 1e 00 00 	lea    0x1e47(%rip),%rax        # 1b080 <g_1192>
   19239:	0f b6 04 02          	movzbl (%rdx,%rax,1),%eax
   1923d:	0f b6 c0             	movzbl %al,%eax
   19240:	8b 55 fc             	mov    -0x4(%rbp),%edx
   19243:	48 8d 35 e6 2e 00 00 	lea    0x2ee6(%rip),%rsi        # 1c130 <g_2720+0x1038>
   1924a:	48 89 c7             	mov    %rax,%rdi
   1924d:	e8 a1 14 ff ff       	callq  a6f3 <transparent_crc>
   19252:	83 7d fc 00          	cmpl   $0x0,-0x4(%rbp)
   19256:	74 16                	je     1926e <main+0xe6c>
   19258:	8b 45 f0             	mov    -0x10(%rbp),%eax
   1925b:	89 c6                	mov    %eax,%esi
   1925d:	48 8d 3d da 2b 00 00 	lea    0x2bda(%rip),%rdi        # 1be3e <g_2720+0xd46>
   19264:	b8 00 00 00 00       	mov    $0x0,%eax
   19269:	e8 12 fe fe ff       	callq  9080 <printf@plt>
   1926e:	83 45 f0 01          	addl   $0x1,-0x10(%rbp)
   19272:	83 7d f0 09          	cmpl   $0x9,-0x10(%rbp)
   19276:	0f 8e 7a ff ff ff    	jle    191f6 <main+0xdf4>
   1927c:	8b 05 66 72 00 00    	mov    0x7266(%rip),%eax        # 204e8 <g_1199>
   19282:	89 c1                	mov    %eax,%ecx
   19284:	8b 45 fc             	mov    -0x4(%rbp),%eax
   19287:	89 c2                	mov    %eax,%edx
   19289:	48 8d 35 ad 2e 00 00 	lea    0x2ead(%rip),%rsi        # 1c13d <g_2720+0x1045>
   19290:	48 89 cf             	mov    %rcx,%rdi
   19293:	e8 5b 14 ff ff       	callq  a6f3 <transparent_crc>
   19298:	8b 05 4a 72 00 00    	mov    0x724a(%rip),%eax        # 204e8 <g_1199>
   1929e:	89 c1                	mov    %eax,%ecx
   192a0:	8b 45 fc             	mov    -0x4(%rbp),%eax
   192a3:	89 c2                	mov    %eax,%edx
   192a5:	48 8d 35 9b 2e 00 00 	lea    0x2e9b(%rip),%rsi        # 1c147 <g_2720+0x104f>
   192ac:	48 89 cf             	mov    %rcx,%rdi
   192af:	e8 3f 14 ff ff       	callq  a6f3 <transparent_crc>
   192b4:	8b 05 2e 72 00 00    	mov    0x722e(%rip),%eax        # 204e8 <g_1199>
   192ba:	48 98                	cltq   
   192bc:	8b 55 fc             	mov    -0x4(%rbp),%edx
   192bf:	48 8d 35 8b 2e 00 00 	lea    0x2e8b(%rip),%rsi        # 1c151 <g_2720+0x1059>
   192c6:	48 89 c7             	mov    %rax,%rdi
   192c9:	e8 25 14 ff ff       	callq  a6f3 <transparent_crc>
   192ce:	8b 05 18 72 00 00    	mov    0x7218(%rip),%eax        # 204ec <g_1225>
   192d4:	48 98                	cltq   
   192d6:	8b 55 fc             	mov    -0x4(%rbp),%edx
   192d9:	48 8d 35 7b 2e 00 00 	lea    0x2e7b(%rip),%rsi        # 1c15b <g_2720+0x1063>
   192e0:	48 89 c7             	mov    %rax,%rdi
   192e3:	e8 0b 14 ff ff       	callq  a6f3 <transparent_crc>
   192e8:	48 8b 05 09 cb 00 00 	mov    0xcb09(%rip),%rax        # 25df8 <g_1228>
   192ef:	48 89 c1             	mov    %rax,%rcx
   192f2:	8b 45 fc             	mov    -0x4(%rbp),%eax
   192f5:	89 c2                	mov    %eax,%edx
   192f7:	48 8d 35 64 2e 00 00 	lea    0x2e64(%rip),%rsi        # 1c162 <g_2720+0x106a>
   192fe:	48 89 cf             	mov    %rcx,%rdi
   19301:	e8 ed 13 ff ff       	callq  a6f3 <transparent_crc>
   19306:	0f b6 05 eb ca 00 00 	movzbl 0xcaeb(%rip),%eax        # 25df8 <g_1228>
   1930d:	0f b6 c0             	movzbl %al,%eax
   19310:	8b 55 fc             	mov    -0x4(%rbp),%edx
   19313:	48 8d 35 52 2e 00 00 	lea    0x2e52(%rip),%rsi        # 1c16c <g_2720+0x1074>
   1931a:	48 89 c7             	mov    %rax,%rdi
   1931d:	e8 d1 13 ff ff       	callq  a6f3 <transparent_crc>
   19322:	8b 05 c8 71 00 00    	mov    0x71c8(%rip),%eax        # 204f0 <g_1231>
   19328:	89 c1                	mov    %eax,%ecx
   1932a:	8b 45 fc             	mov    -0x4(%rbp),%eax
   1932d:	89 c2                	mov    %eax,%edx
   1932f:	48 8d 35 40 2e 00 00 	lea    0x2e40(%rip),%rsi        # 1c176 <g_2720+0x107e>
   19336:	48 89 cf             	mov    %rcx,%rdi
   19339:	e8 b5 13 ff ff       	callq  a6f3 <transparent_crc>
   1933e:	8b 05 ac 71 00 00    	mov    0x71ac(%rip),%eax        # 204f0 <g_1231>
   19344:	89 c1                	mov    %eax,%ecx
   19346:	8b 45 fc             	mov    -0x4(%rbp),%eax
   19349:	89 c2                	mov    %eax,%edx
   1934b:	48 8d 35 2e 2e 00 00 	lea    0x2e2e(%rip),%rsi        # 1c180 <g_2720+0x1088>
   19352:	48 89 cf             	mov    %rcx,%rdi
   19355:	e8 99 13 ff ff       	callq  a6f3 <transparent_crc>
   1935a:	8b 05 90 71 00 00    	mov    0x7190(%rip),%eax        # 204f0 <g_1231>
   19360:	48 98                	cltq   
   19362:	8b 55 fc             	mov    -0x4(%rbp),%edx
   19365:	48 8d 35 1e 2e 00 00 	lea    0x2e1e(%rip),%rsi        # 1c18a <g_2720+0x1092>
   1936c:	48 89 c7             	mov    %rax,%rdi
   1936f:	e8 7f 13 ff ff       	callq  a6f3 <transparent_crc>
   19374:	48 8b 05 7d 71 00 00 	mov    0x717d(%rip),%rax        # 204f8 <g_1268>
   1937b:	48 89 c1             	mov    %rax,%rcx
   1937e:	8b 45 fc             	mov    -0x4(%rbp),%eax
   19381:	89 c2                	mov    %eax,%edx
   19383:	48 8d 35 0a 2e 00 00 	lea    0x2e0a(%rip),%rsi        # 1c194 <g_2720+0x109c>
   1938a:	48 89 cf             	mov    %rcx,%rdi
   1938d:	e8 61 13 ff ff       	callq  a6f3 <transparent_crc>
   19392:	0f b6 05 5f 71 00 00 	movzbl 0x715f(%rip),%eax        # 204f8 <g_1268>
   19399:	0f b6 c0             	movzbl %al,%eax
   1939c:	8b 55 fc             	mov    -0x4(%rbp),%edx
   1939f:	48 8d 35 f8 2d 00 00 	lea    0x2df8(%rip),%rsi        # 1c19e <g_2720+0x10a6>
   193a6:	48 89 c7             	mov    %rax,%rdi
   193a9:	e8 45 13 ff ff       	callq  a6f3 <transparent_crc>
   193ae:	8b 05 4c 71 00 00    	mov    0x714c(%rip),%eax        # 20500 <g_1271>
   193b4:	89 c1                	mov    %eax,%ecx
   193b6:	8b 45 fc             	mov    -0x4(%rbp),%eax
   193b9:	89 c2                	mov    %eax,%edx
   193bb:	48 8d 35 e6 2d 00 00 	lea    0x2de6(%rip),%rsi        # 1c1a8 <g_2720+0x10b0>
   193c2:	48 89 cf             	mov    %rcx,%rdi
   193c5:	e8 29 13 ff ff       	callq  a6f3 <transparent_crc>
   193ca:	8b 05 30 71 00 00    	mov    0x7130(%rip),%eax        # 20500 <g_1271>
   193d0:	89 c1                	mov    %eax,%ecx
   193d2:	8b 45 fc             	mov    -0x4(%rbp),%eax
   193d5:	89 c2                	mov    %eax,%edx
   193d7:	48 8d 35 d4 2d 00 00 	lea    0x2dd4(%rip),%rsi        # 1c1b2 <g_2720+0x10ba>
   193de:	48 89 cf             	mov    %rcx,%rdi
   193e1:	e8 0d 13 ff ff       	callq  a6f3 <transparent_crc>
   193e6:	8b 05 14 71 00 00    	mov    0x7114(%rip),%eax        # 20500 <g_1271>
   193ec:	48 98                	cltq   
   193ee:	8b 55 fc             	mov    -0x4(%rbp),%edx
   193f1:	48 8d 35 c4 2d 00 00 	lea    0x2dc4(%rip),%rsi        # 1c1bc <g_2720+0x10c4>
   193f8:	48 89 c7             	mov    %rax,%rdi
   193fb:	e8 f3 12 ff ff       	callq  a6f3 <transparent_crc>
   19400:	c7 45 f0 00 00 00 00 	movl   $0x0,-0x10(%rbp)
   19407:	e9 18 01 00 00       	jmpq   19524 <main+0x1122>
   1940c:	c7 45 f4 00 00 00 00 	movl   $0x0,-0xc(%rbp)
   19413:	e9 fe 00 00 00       	jmpq   19516 <main+0x1114>
   19418:	c7 45 f8 00 00 00 00 	movl   $0x0,-0x8(%rbp)
   1941f:	e9 e4 00 00 00       	jmpq   19508 <main+0x1106>
   19424:	8b 45 f8             	mov    -0x8(%rbp),%eax
   19427:	48 63 f0             	movslq %eax,%rsi
   1942a:	8b 45 f0             	mov    -0x10(%rbp),%eax
   1942d:	48 98                	cltq   
   1942f:	8b 55 f4             	mov    -0xc(%rbp),%edx
   19432:	48 63 ca             	movslq %edx,%rcx
   19435:	48 89 c2             	mov    %rax,%rdx
   19438:	48 01 d2             	add    %rdx,%rdx
   1943b:	48 01 c2             	add    %rax,%rdx
   1943e:	48 89 d0             	mov    %rdx,%rax
   19441:	48 c1 e0 04          	shl    $0x4,%rax
   19445:	48 89 c2             	mov    %rax,%rdx
   19448:	48 89 c8             	mov    %rcx,%rax
   1944b:	48 01 c0             	add    %rax,%rax
   1944e:	48 01 c8             	add    %rcx,%rax
   19451:	48 01 c0             	add    %rax,%rax
   19454:	48 01 d0             	add    %rdx,%rax
   19457:	48 01 f0             	add    %rsi,%rax
   1945a:	48 8d 14 c5 00 00 00 	lea    0x0(,%rax,8),%rdx
   19461:	00 
   19462:	48 8d 05 b7 70 00 00 	lea    0x70b7(%rip),%rax        # 20520 <g_1321>
   19469:	48 8b 04 02          	mov    (%rdx,%rax,1),%rax
   1946d:	48 89 c1             	mov    %rax,%rcx
   19470:	8b 45 fc             	mov    -0x4(%rbp),%eax
   19473:	89 c2                	mov    %eax,%edx
   19475:	48 8d 35 4a 2d 00 00 	lea    0x2d4a(%rip),%rsi        # 1c1c6 <g_2720+0x10ce>
   1947c:	48 89 cf             	mov    %rcx,%rdi
   1947f:	e8 6f 12 ff ff       	callq  a6f3 <transparent_crc>
   19484:	8b 45 f8             	mov    -0x8(%rbp),%eax
   19487:	48 63 f0             	movslq %eax,%rsi
   1948a:	8b 45 f0             	mov    -0x10(%rbp),%eax
   1948d:	48 98                	cltq   
   1948f:	8b 55 f4             	mov    -0xc(%rbp),%edx
   19492:	48 63 ca             	movslq %edx,%rcx
   19495:	48 89 c2             	mov    %rax,%rdx
   19498:	48 01 d2             	add    %rdx,%rdx
   1949b:	48 01 c2             	add    %rax,%rdx
   1949e:	48 89 d0             	mov    %rdx,%rax
   194a1:	48 c1 e0 04          	shl    $0x4,%rax
   194a5:	48 89 c2             	mov    %rax,%rdx
   194a8:	48 89 c8             	mov    %rcx,%rax
   194ab:	48 01 c0             	add    %rax,%rax
   194ae:	48 01 c8             	add    %rcx,%rax
   194b1:	48 01 c0             	add    %rax,%rax
   194b4:	48 01 d0             	add    %rdx,%rax
   194b7:	48 01 f0             	add    %rsi,%rax
   194ba:	48 8d 14 c5 00 00 00 	lea    0x0(,%rax,8),%rdx
   194c1:	00 
   194c2:	48 8d 05 57 70 00 00 	lea    0x7057(%rip),%rax        # 20520 <g_1321>
   194c9:	0f b6 04 02          	movzbl (%rdx,%rax,1),%eax
   194cd:	0f b6 c0             	movzbl %al,%eax
   194d0:	8b 55 fc             	mov    -0x4(%rbp),%edx
   194d3:	48 8d 35 ff 2c 00 00 	lea    0x2cff(%rip),%rsi        # 1c1d9 <g_2720+0x10e1>
   194da:	48 89 c7             	mov    %rax,%rdi
   194dd:	e8 11 12 ff ff       	callq  a6f3 <transparent_crc>
   194e2:	83 7d fc 00          	cmpl   $0x0,-0x4(%rbp)
   194e6:	74 1c                	je     19504 <main+0x1102>
   194e8:	8b 4d f8             	mov    -0x8(%rbp),%ecx
   194eb:	8b 55 f4             	mov    -0xc(%rbp),%edx
   194ee:	8b 45 f0             	mov    -0x10(%rbp),%eax
   194f1:	89 c6                	mov    %eax,%esi
   194f3:	48 8d 3d 61 29 00 00 	lea    0x2961(%rip),%rdi        # 1be5b <g_2720+0xd63>
   194fa:	b8 00 00 00 00       	mov    $0x0,%eax
   194ff:	e8 7c fb fe ff       	callq  9080 <printf@plt>
   19504:	83 45 f8 01          	addl   $0x1,-0x8(%rbp)
   19508:	83 7d f8 05          	cmpl   $0x5,-0x8(%rbp)
   1950c:	0f 8e 12 ff ff ff    	jle    19424 <main+0x1022>
   19512:	83 45 f4 01          	addl   $0x1,-0xc(%rbp)
   19516:	83 7d f4 07          	cmpl   $0x7,-0xc(%rbp)
   1951a:	0f 8e f8 fe ff ff    	jle    19418 <main+0x1016>
   19520:	83 45 f0 01          	addl   $0x1,-0x10(%rbp)
   19524:	83 7d f0 04          	cmpl   $0x4,-0x10(%rbp)
   19528:	0f 8e de fe ff ff    	jle    1940c <main+0x100a>
   1952e:	b8 67 f1 c2 d9       	mov    $0xd9c2f167,%eax
   19533:	89 c1                	mov    %eax,%ecx
   19535:	8b 45 fc             	mov    -0x4(%rbp),%eax
   19538:	89 c2                	mov    %eax,%edx
   1953a:	48 8d 35 ab 2c 00 00 	lea    0x2cab(%rip),%rsi        # 1c1ec <g_2720+0x10f4>
   19541:	48 89 cf             	mov    %rcx,%rdi
   19544:	e8 aa 11 ff ff       	callq  a6f3 <transparent_crc>
   19549:	8b 05 81 1b 00 00    	mov    0x1b81(%rip),%eax        # 1b0d0 <g_1330>
   1954f:	89 c1                	mov    %eax,%ecx
   19551:	8b 45 fc             	mov    -0x4(%rbp),%eax
   19554:	89 c2                	mov    %eax,%edx
   19556:	48 8d 35 99 2c 00 00 	lea    0x2c99(%rip),%rsi        # 1c1f6 <g_2720+0x10fe>
   1955d:	48 89 cf             	mov    %rcx,%rdi
   19560:	e8 8e 11 ff ff       	callq  a6f3 <transparent_crc>
   19565:	8b 05 65 1b 00 00    	mov    0x1b65(%rip),%eax        # 1b0d0 <g_1330>
   1956b:	48 98                	cltq   
   1956d:	8b 55 fc             	mov    -0x4(%rbp),%edx
   19570:	48 8d 35 89 2c 00 00 	lea    0x2c89(%rip),%rsi        # 1c200 <g_2720+0x1108>
   19577:	48 89 c7             	mov    %rax,%rdi
   1957a:	e8 74 11 ff ff       	callq  a6f3 <transparent_crc>
   1957f:	48 8b 05 7a c8 00 00 	mov    0xc87a(%rip),%rax        # 25e00 <g_1343>
   19586:	48 89 c1             	mov    %rax,%rcx
   19589:	8b 45 fc             	mov    -0x4(%rbp),%eax
   1958c:	89 c2                	mov    %eax,%edx
   1958e:	48 8d 35 75 2c 00 00 	lea    0x2c75(%rip),%rsi        # 1c20a <g_2720+0x1112>
   19595:	48 89 cf             	mov    %rcx,%rdi
   19598:	e8 56 11 ff ff       	callq  a6f3 <transparent_crc>
   1959d:	0f b6 05 5c c8 00 00 	movzbl 0xc85c(%rip),%eax        # 25e00 <g_1343>
   195a4:	0f b6 c0             	movzbl %al,%eax
   195a7:	8b 55 fc             	mov    -0x4(%rbp),%edx
   195aa:	48 8d 35 63 2c 00 00 	lea    0x2c63(%rip),%rsi        # 1c214 <g_2720+0x111c>
   195b1:	48 89 c7             	mov    %rax,%rdi
   195b4:	e8 3a 11 ff ff       	callq  a6f3 <transparent_crc>
   195b9:	48 8b 05 e0 76 00 00 	mov    0x76e0(%rip),%rax        # 20ca0 <g_1352>
   195c0:	48 89 c1             	mov    %rax,%rcx
   195c3:	8b 45 fc             	mov    -0x4(%rbp),%eax
   195c6:	89 c2                	mov    %eax,%edx
   195c8:	48 8d 35 4f 2c 00 00 	lea    0x2c4f(%rip),%rsi        # 1c21e <g_2720+0x1126>
   195cf:	48 89 cf             	mov    %rcx,%rdi
   195d2:	e8 1c 11 ff ff       	callq  a6f3 <transparent_crc>
   195d7:	0f b6 05 c2 76 00 00 	movzbl 0x76c2(%rip),%eax        # 20ca0 <g_1352>
   195de:	0f b6 c0             	movzbl %al,%eax
   195e1:	8b 55 fc             	mov    -0x4(%rbp),%edx
   195e4:	48 8d 35 3d 2c 00 00 	lea    0x2c3d(%rip),%rsi        # 1c228 <g_2720+0x1130>
   195eb:	48 89 c7             	mov    %rax,%rdi
   195ee:	e8 00 11 ff ff       	callq  a6f3 <transparent_crc>
   195f3:	8b 05 1f c8 00 00    	mov    0xc81f(%rip),%eax        # 25e18 <g_1372>
   195f9:	89 c1                	mov    %eax,%ecx
   195fb:	8b 45 fc             	mov    -0x4(%rbp),%eax
   195fe:	89 c2                	mov    %eax,%edx
   19600:	48 8d 35 2b 2c 00 00 	lea    0x2c2b(%rip),%rsi        # 1c232 <g_2720+0x113a>
   19607:	48 89 cf             	mov    %rcx,%rdi
   1960a:	e8 e4 10 ff ff       	callq  a6f3 <transparent_crc>
   1960f:	8b 05 03 c8 00 00    	mov    0xc803(%rip),%eax        # 25e18 <g_1372>
   19615:	89 c1                	mov    %eax,%ecx
   19617:	8b 45 fc             	mov    -0x4(%rbp),%eax
   1961a:	89 c2                	mov    %eax,%edx
   1961c:	48 8d 35 19 2c 00 00 	lea    0x2c19(%rip),%rsi        # 1c23c <g_2720+0x1144>
   19623:	48 89 cf             	mov    %rcx,%rdi
   19626:	e8 c8 10 ff ff       	callq  a6f3 <transparent_crc>
   1962b:	8b 05 e7 c7 00 00    	mov    0xc7e7(%rip),%eax        # 25e18 <g_1372>
   19631:	48 98                	cltq   
   19633:	8b 55 fc             	mov    -0x4(%rbp),%edx
   19636:	48 8d 35 09 2c 00 00 	lea    0x2c09(%rip),%rsi        # 1c246 <g_2720+0x114e>
   1963d:	48 89 c7             	mov    %rax,%rdi
   19640:	e8 ae 10 ff ff       	callq  a6f3 <transparent_crc>
   19645:	c7 45 f0 00 00 00 00 	movl   $0x0,-0x10(%rbp)
   1964c:	eb 4e                	jmp    1969c <main+0x129a>
   1964e:	8b 45 f0             	mov    -0x10(%rbp),%eax
   19651:	48 98                	cltq   
   19653:	48 8d 14 c5 00 00 00 	lea    0x0(,%rax,8),%rdx
   1965a:	00 
   1965b:	48 8d 05 5e 76 00 00 	lea    0x765e(%rip),%rax        # 20cc0 <g_1373>
   19662:	0f b7 04 02          	movzwl (%rdx,%rax,1),%eax
   19666:	48 0f bf c0          	movswq %ax,%rax
   1966a:	8b 55 fc             	mov    -0x4(%rbp),%edx
   1966d:	48 8d 35 dc 2b 00 00 	lea    0x2bdc(%rip),%rsi        # 1c250 <g_2720+0x1158>
   19674:	48 89 c7             	mov    %rax,%rdi
   19677:	e8 77 10 ff ff       	callq  a6f3 <transparent_crc>
   1967c:	83 7d fc 00          	cmpl   $0x0,-0x4(%rbp)
   19680:	74 16                	je     19698 <main+0x1296>
   19682:	8b 45 f0             	mov    -0x10(%rbp),%eax
   19685:	89 c6                	mov    %eax,%esi
   19687:	48 8d 3d b0 27 00 00 	lea    0x27b0(%rip),%rdi        # 1be3e <g_2720+0xd46>
   1968e:	b8 00 00 00 00       	mov    $0x0,%eax
   19693:	e8 e8 f9 fe ff       	callq  9080 <printf@plt>
   19698:	83 45 f0 01          	addl   $0x1,-0x10(%rbp)
   1969c:	83 7d f0 06          	cmpl   $0x6,-0x10(%rbp)
   196a0:	7e ac                	jle    1964e <main+0x124c>
   196a2:	0f b7 05 4f 76 00 00 	movzwl 0x764f(%rip),%eax        # 20cf8 <g_1437>
   196a9:	48 0f bf c0          	movswq %ax,%rax
   196ad:	8b 55 fc             	mov    -0x4(%rbp),%edx
   196b0:	48 8d 35 a6 2b 00 00 	lea    0x2ba6(%rip),%rsi        # 1c25d <g_2720+0x1165>
   196b7:	48 89 c7             	mov    %rax,%rdi
   196ba:	e8 34 10 ff ff       	callq  a6f3 <transparent_crc>
   196bf:	c7 45 f0 00 00 00 00 	movl   $0x0,-0x10(%rbp)
   196c6:	eb 4f                	jmp    19717 <main+0x1315>
   196c8:	8b 45 f0             	mov    -0x10(%rbp),%eax
   196cb:	48 98                	cltq   
   196cd:	48 8d 14 c5 00 00 00 	lea    0x0(,%rax,8),%rdx
   196d4:	00 
   196d5:	48 8d 05 24 76 00 00 	lea    0x7624(%rip),%rax        # 20d00 <g_1485>
   196dc:	48 8b 04 02          	mov    (%rdx,%rax,1),%rax
   196e0:	48 89 c1             	mov    %rax,%rcx
   196e3:	8b 45 fc             	mov    -0x4(%rbp),%eax
   196e6:	89 c2                	mov    %eax,%edx
   196e8:	48 8d 35 78 2b 00 00 	lea    0x2b78(%rip),%rsi        # 1c267 <g_2720+0x116f>
   196ef:	48 89 cf             	mov    %rcx,%rdi
   196f2:	e8 fc 0f ff ff       	callq  a6f3 <transparent_crc>
   196f7:	83 7d fc 00          	cmpl   $0x0,-0x4(%rbp)
   196fb:	74 16                	je     19713 <main+0x1311>
   196fd:	8b 45 f0             	mov    -0x10(%rbp),%eax
   19700:	89 c6                	mov    %eax,%esi
   19702:	48 8d 3d 35 27 00 00 	lea    0x2735(%rip),%rdi        # 1be3e <g_2720+0xd46>
   19709:	b8 00 00 00 00       	mov    $0x0,%eax
   1970e:	e8 6d f9 fe ff       	callq  9080 <printf@plt>
   19713:	83 45 f0 01          	addl   $0x1,-0x10(%rbp)
   19717:	83 7d f0 02          	cmpl   $0x2,-0x10(%rbp)
   1971b:	7e ab                	jle    196c8 <main+0x12c6>
   1971d:	0f b7 05 f4 75 00 00 	movzwl 0x75f4(%rip),%eax        # 20d18 <g_1486>
   19724:	48 0f bf c0          	movswq %ax,%rax
   19728:	8b 55 fc             	mov    -0x4(%rbp),%edx
   1972b:	48 8d 35 3f 2b 00 00 	lea    0x2b3f(%rip),%rsi        # 1c271 <g_2720+0x1179>
   19732:	48 89 c7             	mov    %rax,%rdi
   19735:	e8 b9 0f ff ff       	callq  a6f3 <transparent_crc>
   1973a:	b8 5b 00 00 00       	mov    $0x5b,%eax
   1973f:	0f b6 c0             	movzbl %al,%eax
   19742:	8b 55 fc             	mov    -0x4(%rbp),%edx
   19745:	48 8d 35 2f 2b 00 00 	lea    0x2b2f(%rip),%rsi        # 1c27b <g_2720+0x1183>
   1974c:	48 89 c7             	mov    %rax,%rdi
   1974f:	e8 9f 0f ff ff       	callq  a6f3 <transparent_crc>
   19754:	0f b7 05 c5 75 00 00 	movzwl 0x75c5(%rip),%eax        # 20d20 <g_1640>
   1975b:	48 0f bf c0          	movswq %ax,%rax
   1975f:	8b 55 fc             	mov    -0x4(%rbp),%edx
   19762:	48 8d 35 19 2b 00 00 	lea    0x2b19(%rip),%rsi        # 1c282 <g_2720+0x118a>
   19769:	48 89 c7             	mov    %rax,%rdi
   1976c:	e8 82 0f ff ff       	callq  a6f3 <transparent_crc>
   19771:	0f b7 05 b0 75 00 00 	movzwl 0x75b0(%rip),%eax        # 20d28 <g_1738>
   19778:	48 0f bf c0          	movswq %ax,%rax
   1977c:	8b 55 fc             	mov    -0x4(%rbp),%edx
   1977f:	48 8d 35 06 2b 00 00 	lea    0x2b06(%rip),%rsi        # 1c28c <g_2720+0x1194>
   19786:	48 89 c7             	mov    %rax,%rdi
   19789:	e8 65 0f ff ff       	callq  a6f3 <transparent_crc>
   1978e:	48 8b 05 9b 75 00 00 	mov    0x759b(%rip),%rax        # 20d30 <g_1743>
   19795:	48 89 c1             	mov    %rax,%rcx
   19798:	8b 45 fc             	mov    -0x4(%rbp),%eax
   1979b:	89 c2                	mov    %eax,%edx
   1979d:	48 8d 35 f2 2a 00 00 	lea    0x2af2(%rip),%rsi        # 1c296 <g_2720+0x119e>
   197a4:	48 89 cf             	mov    %rcx,%rdi
   197a7:	e8 47 0f ff ff       	callq  a6f3 <transparent_crc>
   197ac:	0f b6 05 7d 75 00 00 	movzbl 0x757d(%rip),%eax        # 20d30 <g_1743>
   197b3:	0f b6 c0             	movzbl %al,%eax
   197b6:	8b 55 fc             	mov    -0x4(%rbp),%edx
   197b9:	48 8d 35 e0 2a 00 00 	lea    0x2ae0(%rip),%rsi        # 1c2a0 <g_2720+0x11a8>
   197c0:	48 89 c7             	mov    %rax,%rdi
   197c3:	e8 2b 0f ff ff       	callq  a6f3 <transparent_crc>
   197c8:	8b 05 6a 75 00 00    	mov    0x756a(%rip),%eax        # 20d38 <g_1793>
   197ce:	89 c1                	mov    %eax,%ecx
   197d0:	8b 45 fc             	mov    -0x4(%rbp),%eax
   197d3:	89 c2                	mov    %eax,%edx
   197d5:	48 8d 35 ce 2a 00 00 	lea    0x2ace(%rip),%rsi        # 1c2aa <g_2720+0x11b2>
   197dc:	48 89 cf             	mov    %rcx,%rdi
   197df:	e8 0f 0f ff ff       	callq  a6f3 <transparent_crc>
   197e4:	8b 05 4e 75 00 00    	mov    0x754e(%rip),%eax        # 20d38 <g_1793>
   197ea:	89 c1                	mov    %eax,%ecx
   197ec:	8b 45 fc             	mov    -0x4(%rbp),%eax
   197ef:	89 c2                	mov    %eax,%edx
   197f1:	48 8d 35 bc 2a 00 00 	lea    0x2abc(%rip),%rsi        # 1c2b4 <g_2720+0x11bc>
   197f8:	48 89 cf             	mov    %rcx,%rdi
   197fb:	e8 f3 0e ff ff       	callq  a6f3 <transparent_crc>
   19800:	8b 05 32 75 00 00    	mov    0x7532(%rip),%eax        # 20d38 <g_1793>
   19806:	48 98                	cltq   
   19808:	8b 55 fc             	mov    -0x4(%rbp),%edx
   1980b:	48 8d 35 ac 2a 00 00 	lea    0x2aac(%rip),%rsi        # 1c2be <g_2720+0x11c6>
   19812:	48 89 c7             	mov    %rax,%rdi
   19815:	e8 d9 0e ff ff       	callq  a6f3 <transparent_crc>
   1981a:	8b 05 1c 75 00 00    	mov    0x751c(%rip),%eax        # 20d3c <g_1922>
   19820:	89 c1                	mov    %eax,%ecx
   19822:	8b 45 fc             	mov    -0x4(%rbp),%eax
   19825:	89 c2                	mov    %eax,%edx
   19827:	48 8d 35 9a 2a 00 00 	lea    0x2a9a(%rip),%rsi        # 1c2c8 <g_2720+0x11d0>
   1982e:	48 89 cf             	mov    %rcx,%rdi
   19831:	e8 bd 0e ff ff       	callq  a6f3 <transparent_crc>
   19836:	8b 05 00 75 00 00    	mov    0x7500(%rip),%eax        # 20d3c <g_1922>
   1983c:	89 c1                	mov    %eax,%ecx
   1983e:	8b 45 fc             	mov    -0x4(%rbp),%eax
   19841:	89 c2                	mov    %eax,%edx
   19843:	48 8d 35 88 2a 00 00 	lea    0x2a88(%rip),%rsi        # 1c2d2 <g_2720+0x11da>
   1984a:	48 89 cf             	mov    %rcx,%rdi
   1984d:	e8 a1 0e ff ff       	callq  a6f3 <transparent_crc>
   19852:	8b 05 e4 74 00 00    	mov    0x74e4(%rip),%eax        # 20d3c <g_1922>
   19858:	48 98                	cltq   
   1985a:	8b 55 fc             	mov    -0x4(%rbp),%edx
   1985d:	48 8d 35 78 2a 00 00 	lea    0x2a78(%rip),%rsi        # 1c2dc <g_2720+0x11e4>
   19864:	48 89 c7             	mov    %rax,%rdi
   19867:	e8 87 0e ff ff       	callq  a6f3 <transparent_crc>
   1986c:	c7 45 f0 00 00 00 00 	movl   $0x0,-0x10(%rbp)
   19873:	e9 a0 00 00 00       	jmpq   19918 <main+0x1516>
   19878:	c7 45 f4 00 00 00 00 	movl   $0x0,-0xc(%rbp)
   1987f:	e9 86 00 00 00       	jmpq   1990a <main+0x1508>
   19884:	c7 45 f8 00 00 00 00 	movl   $0x0,-0x8(%rbp)
   1988b:	eb 73                	jmp    19900 <main+0x14fe>
   1988d:	8b 45 f8             	mov    -0x8(%rbp),%eax
   19890:	48 63 c8             	movslq %eax,%rcx
   19893:	8b 45 f0             	mov    -0x10(%rbp),%eax
   19896:	48 98                	cltq   
   19898:	8b 55 f4             	mov    -0xc(%rbp),%edx
   1989b:	48 63 d2             	movslq %edx,%rdx
   1989e:	48 6b f0 5a          	imul   $0x5a,%rax,%rsi
   198a2:	48 89 d0             	mov    %rdx,%rax
   198a5:	48 c1 e0 02          	shl    $0x2,%rax
   198a9:	48 01 d0             	add    %rdx,%rax
   198ac:	48 01 c0             	add    %rax,%rax
   198af:	48 01 f0             	add    %rsi,%rax
   198b2:	48 01 c8             	add    %rcx,%rax
   198b5:	48 8d 14 c5 00 00 00 	lea    0x0(,%rax,8),%rdx
   198bc:	00 
   198bd:	48 8d 05 7c 74 00 00 	lea    0x747c(%rip),%rax        # 20d40 <g_1951>
   198c4:	48 8b 04 02          	mov    (%rdx,%rax,1),%rax
   198c8:	8b 55 fc             	mov    -0x4(%rbp),%edx
   198cb:	48 8d 35 14 2a 00 00 	lea    0x2a14(%rip),%rsi        # 1c2e6 <g_2720+0x11ee>
   198d2:	48 89 c7             	mov    %rax,%rdi
   198d5:	e8 19 0e ff ff       	callq  a6f3 <transparent_crc>
   198da:	83 7d fc 00          	cmpl   $0x0,-0x4(%rbp)
   198de:	74 1c                	je     198fc <main+0x14fa>
   198e0:	8b 4d f8             	mov    -0x8(%rbp),%ecx
   198e3:	8b 55 f4             	mov    -0xc(%rbp),%edx
   198e6:	8b 45 f0             	mov    -0x10(%rbp),%eax
   198e9:	89 c6                	mov    %eax,%esi
   198eb:	48 8d 3d 69 25 00 00 	lea    0x2569(%rip),%rdi        # 1be5b <g_2720+0xd63>
   198f2:	b8 00 00 00 00       	mov    $0x0,%eax
   198f7:	e8 84 f7 fe ff       	callq  9080 <printf@plt>
   198fc:	83 45 f8 01          	addl   $0x1,-0x8(%rbp)
   19900:	83 7d f8 09          	cmpl   $0x9,-0x8(%rbp)
   19904:	7e 87                	jle    1988d <main+0x148b>
   19906:	83 45 f4 01          	addl   $0x1,-0xc(%rbp)
   1990a:	83 7d f4 08          	cmpl   $0x8,-0xc(%rbp)
   1990e:	0f 8e 70 ff ff ff    	jle    19884 <main+0x1482>
   19914:	83 45 f0 01          	addl   $0x1,-0x10(%rbp)
   19918:	83 7d f0 00          	cmpl   $0x0,-0x10(%rbp)
   1991c:	0f 8e 56 ff ff ff    	jle    19878 <main+0x1476>
   19922:	c7 45 f0 00 00 00 00 	movl   $0x0,-0x10(%rbp)
   19929:	eb 77                	jmp    199a2 <main+0x15a0>
   1992b:	c7 45 f4 00 00 00 00 	movl   $0x0,-0xc(%rbp)
   19932:	eb 64                	jmp    19998 <main+0x1596>
   19934:	8b 45 f4             	mov    -0xc(%rbp),%eax
   19937:	48 63 c8             	movslq %eax,%rcx
   1993a:	8b 45 f0             	mov    -0x10(%rbp),%eax
   1993d:	48 63 d0             	movslq %eax,%rdx
   19940:	48 89 d0             	mov    %rdx,%rax
   19943:	48 01 c0             	add    %rax,%rax
   19946:	48 01 d0             	add    %rdx,%rax
   19949:	48 01 c8             	add    %rcx,%rax
   1994c:	48 8d 14 c5 00 00 00 	lea    0x0(,%rax,8),%rdx
   19953:	00 
   19954:	48 8d 05 b5 76 00 00 	lea    0x76b5(%rip),%rax        # 21010 <g_1968>
   1995b:	0f b7 04 02          	movzwl (%rdx,%rax,1),%eax
   1995f:	48 0f bf c0          	movswq %ax,%rax
   19963:	8b 55 fc             	mov    -0x4(%rbp),%edx
   19966:	48 8d 35 89 29 00 00 	lea    0x2989(%rip),%rsi        # 1c2f6 <g_2720+0x11fe>
   1996d:	48 89 c7             	mov    %rax,%rdi
   19970:	e8 7e 0d ff ff       	callq  a6f3 <transparent_crc>
   19975:	83 7d fc 00          	cmpl   $0x0,-0x4(%rbp)
   19979:	74 19                	je     19994 <main+0x1592>
   1997b:	8b 55 f4             	mov    -0xc(%rbp),%edx
   1997e:	8b 45 f0             	mov    -0x10(%rbp),%eax
   19981:	89 c6                	mov    %eax,%esi
   19983:	48 8d 3d a7 25 00 00 	lea    0x25a7(%rip),%rdi        # 1bf31 <g_2720+0xe39>
   1998a:	b8 00 00 00 00       	mov    $0x0,%eax
   1998f:	e8 ec f6 fe ff       	callq  9080 <printf@plt>
   19994:	83 45 f4 01          	addl   $0x1,-0xc(%rbp)
   19998:	83 7d f4 02          	cmpl   $0x2,-0xc(%rbp)
   1999c:	7e 96                	jle    19934 <main+0x1532>
   1999e:	83 45 f0 01          	addl   $0x1,-0x10(%rbp)
   199a2:	83 7d f0 00          	cmpl   $0x0,-0x10(%rbp)
   199a6:	7e 83                	jle    1992b <main+0x1529>
   199a8:	0f b6 05 79 76 00 00 	movzbl 0x7679(%rip),%eax        # 21028 <g_1981>
   199af:	48 0f be c0          	movsbq %al,%rax
   199b3:	8b 55 fc             	mov    -0x4(%rbp),%edx
   199b6:	48 8d 35 49 29 00 00 	lea    0x2949(%rip),%rsi        # 1c306 <g_2720+0x120e>
   199bd:	48 89 c7             	mov    %rax,%rdi
   199c0:	e8 2e 0d ff ff       	callq  a6f3 <transparent_crc>
   199c5:	0f b6 05 5d 76 00 00 	movzbl 0x765d(%rip),%eax        # 21029 <g_1991>
   199cc:	0f b6 c0             	movzbl %al,%eax
   199cf:	8b 55 fc             	mov    -0x4(%rbp),%edx
   199d2:	48 8d 35 34 29 00 00 	lea    0x2934(%rip),%rsi        # 1c30d <g_2720+0x1215>
   199d9:	48 89 c7             	mov    %rax,%rdi
   199dc:	e8 12 0d ff ff       	callq  a6f3 <transparent_crc>
   199e1:	c7 45 f0 00 00 00 00 	movl   $0x0,-0x10(%rbp)
   199e8:	eb 4a                	jmp    19a34 <main+0x1632>
   199ea:	8b 45 f0             	mov    -0x10(%rbp),%eax
   199ed:	48 98                	cltq   
   199ef:	48 8d 14 c5 00 00 00 	lea    0x0(,%rax,8),%rdx
   199f6:	00 
   199f7:	48 8d 05 42 76 00 00 	lea    0x7642(%rip),%rax        # 21040 <g_2037>
   199fe:	48 8b 04 02          	mov    (%rdx,%rax,1),%rax
   19a02:	8b 55 fc             	mov    -0x4(%rbp),%edx
   19a05:	48 8d 35 08 29 00 00 	lea    0x2908(%rip),%rsi        # 1c314 <g_2720+0x121c>
   19a0c:	48 89 c7             	mov    %rax,%rdi
   19a0f:	e8 df 0c ff ff       	callq  a6f3 <transparent_crc>
   19a14:	83 7d fc 00          	cmpl   $0x0,-0x4(%rbp)
   19a18:	74 16                	je     19a30 <main+0x162e>
   19a1a:	8b 45 f0             	mov    -0x10(%rbp),%eax
   19a1d:	89 c6                	mov    %eax,%esi
   19a1f:	48 8d 3d 18 24 00 00 	lea    0x2418(%rip),%rdi        # 1be3e <g_2720+0xd46>
   19a26:	b8 00 00 00 00       	mov    $0x0,%eax
   19a2b:	e8 50 f6 fe ff       	callq  9080 <printf@plt>
   19a30:	83 45 f0 01          	addl   $0x1,-0x10(%rbp)
   19a34:	83 7d f0 06          	cmpl   $0x6,-0x10(%rbp)
   19a38:	7e b0                	jle    199ea <main+0x15e8>
   19a3a:	8b 05 38 76 00 00    	mov    0x7638(%rip),%eax        # 21078 <g_2045>
   19a40:	89 c1                	mov    %eax,%ecx
   19a42:	8b 45 fc             	mov    -0x4(%rbp),%eax
   19a45:	89 c2                	mov    %eax,%edx
   19a47:	48 8d 35 d0 28 00 00 	lea    0x28d0(%rip),%rsi        # 1c31e <g_2720+0x1226>
   19a4e:	48 89 cf             	mov    %rcx,%rdi
   19a51:	e8 9d 0c ff ff       	callq  a6f3 <transparent_crc>
   19a56:	8b 05 1c 76 00 00    	mov    0x761c(%rip),%eax        # 21078 <g_2045>
   19a5c:	89 c1                	mov    %eax,%ecx
   19a5e:	8b 45 fc             	mov    -0x4(%rbp),%eax
   19a61:	89 c2                	mov    %eax,%edx
   19a63:	48 8d 35 be 28 00 00 	lea    0x28be(%rip),%rsi        # 1c328 <g_2720+0x1230>
   19a6a:	48 89 cf             	mov    %rcx,%rdi
   19a6d:	e8 81 0c ff ff       	callq  a6f3 <transparent_crc>
   19a72:	8b 05 00 76 00 00    	mov    0x7600(%rip),%eax        # 21078 <g_2045>
   19a78:	48 98                	cltq   
   19a7a:	8b 55 fc             	mov    -0x4(%rbp),%edx
   19a7d:	48 8d 35 ae 28 00 00 	lea    0x28ae(%rip),%rsi        # 1c332 <g_2720+0x123a>
   19a84:	48 89 c7             	mov    %rax,%rdi
   19a87:	e8 67 0c ff ff       	callq  a6f3 <transparent_crc>
   19a8c:	c7 45 f0 00 00 00 00 	movl   $0x0,-0x10(%rbp)
   19a93:	e9 9b 00 00 00       	jmpq   19b33 <main+0x1731>
   19a98:	c7 45 f4 00 00 00 00 	movl   $0x0,-0xc(%rbp)
   19a9f:	e9 81 00 00 00       	jmpq   19b25 <main+0x1723>
   19aa4:	c7 45 f8 00 00 00 00 	movl   $0x0,-0x8(%rbp)
   19aab:	eb 6e                	jmp    19b1b <main+0x1719>
   19aad:	8b 45 f8             	mov    -0x8(%rbp),%eax
   19ab0:	48 98                	cltq   
   19ab2:	8b 55 f0             	mov    -0x10(%rbp),%edx
   19ab5:	48 63 ca             	movslq %edx,%rcx
   19ab8:	8b 55 f4             	mov    -0xc(%rbp),%edx
   19abb:	48 63 d2             	movslq %edx,%rdx
   19abe:	48 c1 e1 03          	shl    $0x3,%rcx
   19ac2:	48 01 ca             	add    %rcx,%rdx
   19ac5:	48 c1 e2 02          	shl    $0x2,%rdx
   19ac9:	48 01 d0             	add    %rdx,%rax
   19acc:	48 8d 14 c5 00 00 00 	lea    0x0(,%rax,8),%rdx
   19ad3:	00 
   19ad4:	48 8d 05 a5 75 00 00 	lea    0x75a5(%rip),%rax        # 21080 <g_2063>
   19adb:	0f b7 04 02          	movzwl (%rdx,%rax,1),%eax
   19adf:	48 0f bf c0          	movswq %ax,%rax
   19ae3:	8b 55 fc             	mov    -0x4(%rbp),%edx
   19ae6:	48 8d 35 4f 28 00 00 	lea    0x284f(%rip),%rsi        # 1c33c <g_2720+0x1244>
   19aed:	48 89 c7             	mov    %rax,%rdi
   19af0:	e8 fe 0b ff ff       	callq  a6f3 <transparent_crc>
   19af5:	83 7d fc 00          	cmpl   $0x0,-0x4(%rbp)
   19af9:	74 1c                	je     19b17 <main+0x1715>
   19afb:	8b 4d f8             	mov    -0x8(%rbp),%ecx
   19afe:	8b 55 f4             	mov    -0xc(%rbp),%edx
   19b01:	8b 45 f0             	mov    -0x10(%rbp),%eax
   19b04:	89 c6                	mov    %eax,%esi
   19b06:	48 8d 3d 4e 23 00 00 	lea    0x234e(%rip),%rdi        # 1be5b <g_2720+0xd63>
   19b0d:	b8 00 00 00 00       	mov    $0x0,%eax
   19b12:	e8 69 f5 fe ff       	callq  9080 <printf@plt>
   19b17:	83 45 f8 01          	addl   $0x1,-0x8(%rbp)
   19b1b:	83 7d f8 03          	cmpl   $0x3,-0x8(%rbp)
   19b1f:	7e 8c                	jle    19aad <main+0x16ab>
   19b21:	83 45 f4 01          	addl   $0x1,-0xc(%rbp)
   19b25:	83 7d f4 07          	cmpl   $0x7,-0xc(%rbp)
   19b29:	0f 8e 75 ff ff ff    	jle    19aa4 <main+0x16a2>
   19b2f:	83 45 f0 01          	addl   $0x1,-0x10(%rbp)
   19b33:	83 7d f0 06          	cmpl   $0x6,-0x10(%rbp)
   19b37:	0f 8e 5b ff ff ff    	jle    19a98 <main+0x1696>
   19b3d:	b8 e1 96 ff ff       	mov    $0xffff96e1,%eax
   19b42:	48 0f bf c0          	movswq %ax,%rax
   19b46:	8b 55 fc             	mov    -0x4(%rbp),%edx
   19b49:	48 8d 35 ff 27 00 00 	lea    0x27ff(%rip),%rsi        # 1c34f <g_2720+0x1257>
   19b50:	48 89 c7             	mov    %rax,%rdi
   19b53:	e8 9b 0b ff ff       	callq  a6f3 <transparent_crc>
   19b58:	8b 05 22 7c 00 00    	mov    0x7c22(%rip),%eax        # 21780 <g_2124>
   19b5e:	89 c1                	mov    %eax,%ecx
   19b60:	8b 45 fc             	mov    -0x4(%rbp),%eax
   19b63:	89 c2                	mov    %eax,%edx
   19b65:	48 8d 35 ea 27 00 00 	lea    0x27ea(%rip),%rsi        # 1c356 <g_2720+0x125e>
   19b6c:	48 89 cf             	mov    %rcx,%rdi
   19b6f:	e8 7f 0b ff ff       	callq  a6f3 <transparent_crc>
   19b74:	8b 05 06 7c 00 00    	mov    0x7c06(%rip),%eax        # 21780 <g_2124>
   19b7a:	89 c1                	mov    %eax,%ecx
   19b7c:	8b 45 fc             	mov    -0x4(%rbp),%eax
   19b7f:	89 c2                	mov    %eax,%edx
   19b81:	48 8d 35 d8 27 00 00 	lea    0x27d8(%rip),%rsi        # 1c360 <g_2720+0x1268>
   19b88:	48 89 cf             	mov    %rcx,%rdi
   19b8b:	e8 63 0b ff ff       	callq  a6f3 <transparent_crc>
   19b90:	8b 05 ea 7b 00 00    	mov    0x7bea(%rip),%eax        # 21780 <g_2124>
   19b96:	48 98                	cltq   
   19b98:	8b 55 fc             	mov    -0x4(%rbp),%edx
   19b9b:	48 8d 35 c8 27 00 00 	lea    0x27c8(%rip),%rsi        # 1c36a <g_2720+0x1272>
   19ba2:	48 89 c7             	mov    %rax,%rdi
   19ba5:	e8 49 0b ff ff       	callq  a6f3 <transparent_crc>
   19baa:	0f b7 05 d3 7b 00 00 	movzwl 0x7bd3(%rip),%eax        # 21784 <g_2168>
   19bb1:	48 0f bf c0          	movswq %ax,%rax
   19bb5:	8b 55 fc             	mov    -0x4(%rbp),%edx
   19bb8:	48 8d 35 b5 27 00 00 	lea    0x27b5(%rip),%rsi        # 1c374 <g_2720+0x127c>
   19bbf:	48 89 c7             	mov    %rax,%rdi
   19bc2:	e8 2c 0b ff ff       	callq  a6f3 <transparent_crc>
   19bc7:	0f b7 05 ba 7b 00 00 	movzwl 0x7bba(%rip),%eax        # 21788 <g_2196>
   19bce:	48 0f bf c0          	movswq %ax,%rax
   19bd2:	8b 55 fc             	mov    -0x4(%rbp),%edx
   19bd5:	48 8d 35 9f 27 00 00 	lea    0x279f(%rip),%rsi        # 1c37b <g_2720+0x1283>
   19bdc:	48 89 c7             	mov    %rax,%rdi
   19bdf:	e8 0f 0b ff ff       	callq  a6f3 <transparent_crc>
   19be4:	c7 45 f0 00 00 00 00 	movl   $0x0,-0x10(%rbp)
   19beb:	e9 08 01 00 00       	jmpq   19cf8 <main+0x18f6>
   19bf0:	c7 45 f4 00 00 00 00 	movl   $0x0,-0xc(%rbp)
   19bf7:	e9 ee 00 00 00       	jmpq   19cea <main+0x18e8>
   19bfc:	c7 45 f8 00 00 00 00 	movl   $0x0,-0x8(%rbp)
   19c03:	e9 d4 00 00 00       	jmpq   19cdc <main+0x18da>
   19c08:	8b 45 f8             	mov    -0x8(%rbp),%eax
   19c0b:	48 63 f0             	movslq %eax,%rsi
   19c0e:	8b 45 f0             	mov    -0x10(%rbp),%eax
   19c11:	48 63 d0             	movslq %eax,%rdx
   19c14:	8b 45 f4             	mov    -0xc(%rbp),%eax
   19c17:	48 63 c8             	movslq %eax,%rcx
   19c1a:	48 89 d0             	mov    %rdx,%rax
   19c1d:	48 c1 e0 04          	shl    $0x4,%rax
   19c21:	48 29 d0             	sub    %rdx,%rax
   19c24:	48 01 c0             	add    %rax,%rax
   19c27:	48 89 ca             	mov    %rcx,%rdx
   19c2a:	48 01 d2             	add    %rdx,%rdx
   19c2d:	48 01 ca             	add    %rcx,%rdx
   19c30:	48 01 d0             	add    %rdx,%rax
   19c33:	48 01 f0             	add    %rsi,%rax
   19c36:	48 8d 14 c5 00 00 00 	lea    0x0(,%rax,8),%rdx
   19c3d:	00 
   19c3e:	48 8d 05 5b 7b 00 00 	lea    0x7b5b(%rip),%rax        # 217a0 <g_2197>
   19c45:	48 8b 04 02          	mov    (%rdx,%rax,1),%rax
   19c49:	48 89 c1             	mov    %rax,%rcx
   19c4c:	8b 45 fc             	mov    -0x4(%rbp),%eax
   19c4f:	89 c2                	mov    %eax,%edx
   19c51:	48 8d 35 2d 27 00 00 	lea    0x272d(%rip),%rsi        # 1c385 <g_2720+0x128d>
   19c58:	48 89 cf             	mov    %rcx,%rdi
   19c5b:	e8 93 0a ff ff       	callq  a6f3 <transparent_crc>
   19c60:	8b 45 f8             	mov    -0x8(%rbp),%eax
   19c63:	48 63 f0             	movslq %eax,%rsi
   19c66:	8b 45 f0             	mov    -0x10(%rbp),%eax
   19c69:	48 63 d0             	movslq %eax,%rdx
   19c6c:	8b 45 f4             	mov    -0xc(%rbp),%eax
   19c6f:	48 63 c8             	movslq %eax,%rcx
   19c72:	48 89 d0             	mov    %rdx,%rax
   19c75:	48 c1 e0 04          	shl    $0x4,%rax
   19c79:	48 29 d0             	sub    %rdx,%rax
   19c7c:	48 01 c0             	add    %rax,%rax
   19c7f:	48 89 ca             	mov    %rcx,%rdx
   19c82:	48 01 d2             	add    %rdx,%rdx
   19c85:	48 01 ca             	add    %rcx,%rdx
   19c88:	48 01 d0             	add    %rdx,%rax
   19c8b:	48 01 f0             	add    %rsi,%rax
   19c8e:	48 8d 14 c5 00 00 00 	lea    0x0(,%rax,8),%rdx
   19c95:	00 
   19c96:	48 8d 05 03 7b 00 00 	lea    0x7b03(%rip),%rax        # 217a0 <g_2197>
   19c9d:	0f b6 04 02          	movzbl (%rdx,%rax,1),%eax
   19ca1:	0f b6 c0             	movzbl %al,%eax
   19ca4:	8b 55 fc             	mov    -0x4(%rbp),%edx
   19ca7:	48 8d 35 ea 26 00 00 	lea    0x26ea(%rip),%rsi        # 1c398 <g_2720+0x12a0>
   19cae:	48 89 c7             	mov    %rax,%rdi
   19cb1:	e8 3d 0a ff ff       	callq  a6f3 <transparent_crc>
   19cb6:	83 7d fc 00          	cmpl   $0x0,-0x4(%rbp)
   19cba:	74 1c                	je     19cd8 <main+0x18d6>
   19cbc:	8b 4d f8             	mov    -0x8(%rbp),%ecx
   19cbf:	8b 55 f4             	mov    -0xc(%rbp),%edx
   19cc2:	8b 45 f0             	mov    -0x10(%rbp),%eax
   19cc5:	89 c6                	mov    %eax,%esi
   19cc7:	48 8d 3d 8d 21 00 00 	lea    0x218d(%rip),%rdi        # 1be5b <g_2720+0xd63>
   19cce:	b8 00 00 00 00       	mov    $0x0,%eax
   19cd3:	e8 a8 f3 fe ff       	callq  9080 <printf@plt>
   19cd8:	83 45 f8 01          	addl   $0x1,-0x8(%rbp)
   19cdc:	83 7d f8 02          	cmpl   $0x2,-0x8(%rbp)
   19ce0:	0f 8e 22 ff ff ff    	jle    19c08 <main+0x1806>
   19ce6:	83 45 f4 01          	addl   $0x1,-0xc(%rbp)
   19cea:	83 7d f4 09          	cmpl   $0x9,-0xc(%rbp)
   19cee:	0f 8e 08 ff ff ff    	jle    19bfc <main+0x17fa>
   19cf4:	83 45 f0 01          	addl   $0x1,-0x10(%rbp)
   19cf8:	83 7d f0 06          	cmpl   $0x6,-0x10(%rbp)
   19cfc:	0f 8e ee fe ff ff    	jle    19bf0 <main+0x17ee>
   19d02:	8b 05 28 81 00 00    	mov    0x8128(%rip),%eax        # 21e30 <g_2210>
   19d08:	89 c1                	mov    %eax,%ecx
   19d0a:	8b 45 fc             	mov    -0x4(%rbp),%eax
   19d0d:	89 c2                	mov    %eax,%edx
   19d0f:	48 8d 35 95 26 00 00 	lea    0x2695(%rip),%rsi        # 1c3ab <g_2720+0x12b3>
   19d16:	48 89 cf             	mov    %rcx,%rdi
   19d19:	e8 d5 09 ff ff       	callq  a6f3 <transparent_crc>
   19d1e:	8b 05 10 81 00 00    	mov    0x8110(%rip),%eax        # 21e34 <g_2235>
   19d24:	48 98                	cltq   
   19d26:	8b 55 fc             	mov    -0x4(%rbp),%edx
   19d29:	48 8d 35 82 26 00 00 	lea    0x2682(%rip),%rsi        # 1c3b2 <g_2720+0x12ba>
   19d30:	48 89 c7             	mov    %rax,%rdi
   19d33:	e8 bb 09 ff ff       	callq  a6f3 <transparent_crc>
   19d38:	48 8b 05 f9 80 00 00 	mov    0x80f9(%rip),%rax        # 21e38 <g_2317>
   19d3f:	48 89 c1             	mov    %rax,%rcx
   19d42:	8b 45 fc             	mov    -0x4(%rbp),%eax
   19d45:	89 c2                	mov    %eax,%edx
   19d47:	48 8d 35 6b 26 00 00 	lea    0x266b(%rip),%rsi        # 1c3b9 <g_2720+0x12c1>
   19d4e:	48 89 cf             	mov    %rcx,%rdi
   19d51:	e8 9d 09 ff ff       	callq  a6f3 <transparent_crc>
   19d56:	0f b6 05 db 80 00 00 	movzbl 0x80db(%rip),%eax        # 21e38 <g_2317>
   19d5d:	0f b6 c0             	movzbl %al,%eax
   19d60:	8b 55 fc             	mov    -0x4(%rbp),%edx
   19d63:	48 8d 35 59 26 00 00 	lea    0x2659(%rip),%rsi        # 1c3c3 <g_2720+0x12cb>
   19d6a:	48 89 c7             	mov    %rax,%rdi
   19d6d:	e8 81 09 ff ff       	callq  a6f3 <transparent_crc>
   19d72:	c7 45 f0 00 00 00 00 	movl   $0x0,-0x10(%rbp)
   19d79:	eb 7c                	jmp    19df7 <main+0x19f5>
   19d7b:	8b 45 f0             	mov    -0x10(%rbp),%eax
   19d7e:	48 98                	cltq   
   19d80:	48 8d 14 c5 00 00 00 	lea    0x0(,%rax,8),%rdx
   19d87:	00 
   19d88:	48 8d 05 b1 80 00 00 	lea    0x80b1(%rip),%rax        # 21e40 <g_2322>
   19d8f:	48 8b 04 02          	mov    (%rdx,%rax,1),%rax
   19d93:	48 89 c1             	mov    %rax,%rcx
   19d96:	8b 45 fc             	mov    -0x4(%rbp),%eax
   19d99:	89 c2                	mov    %eax,%edx
   19d9b:	48 8d 35 2b 26 00 00 	lea    0x262b(%rip),%rsi        # 1c3cd <g_2720+0x12d5>
   19da2:	48 89 cf             	mov    %rcx,%rdi
   19da5:	e8 49 09 ff ff       	callq  a6f3 <transparent_crc>
   19daa:	8b 45 f0             	mov    -0x10(%rbp),%eax
   19dad:	48 98                	cltq   
   19daf:	48 8d 14 c5 00 00 00 	lea    0x0(,%rax,8),%rdx
   19db6:	00 
   19db7:	48 8d 05 82 80 00 00 	lea    0x8082(%rip),%rax        # 21e40 <g_2322>
   19dbe:	0f b6 04 02          	movzbl (%rdx,%rax,1),%eax
   19dc2:	0f b6 c0             	movzbl %al,%eax
   19dc5:	8b 55 fc             	mov    -0x4(%rbp),%edx
   19dc8:	48 8d 35 0b 26 00 00 	lea    0x260b(%rip),%rsi        # 1c3da <g_2720+0x12e2>
   19dcf:	48 89 c7             	mov    %rax,%rdi
   19dd2:	e8 1c 09 ff ff       	callq  a6f3 <transparent_crc>
   19dd7:	83 7d fc 00          	cmpl   $0x0,-0x4(%rbp)
   19ddb:	74 16                	je     19df3 <main+0x19f1>
   19ddd:	8b 45 f0             	mov    -0x10(%rbp),%eax
   19de0:	89 c6                	mov    %eax,%esi
   19de2:	48 8d 3d 55 20 00 00 	lea    0x2055(%rip),%rdi        # 1be3e <g_2720+0xd46>
   19de9:	b8 00 00 00 00       	mov    $0x0,%eax
   19dee:	e8 8d f2 fe ff       	callq  9080 <printf@plt>
   19df3:	83 45 f0 01          	addl   $0x1,-0x10(%rbp)
   19df7:	83 7d f0 04          	cmpl   $0x4,-0x10(%rbp)
   19dfb:	0f 8e 7a ff ff ff    	jle    19d7b <main+0x1979>
   19e01:	0f b7 05 60 80 00 00 	movzwl 0x8060(%rip),%eax        # 21e68 <g_2323>
   19e08:	48 0f bf c0          	movswq %ax,%rax
   19e0c:	8b 55 fc             	mov    -0x4(%rbp),%edx
   19e0f:	48 8d 35 d1 25 00 00 	lea    0x25d1(%rip),%rsi        # 1c3e7 <g_2720+0x12ef>
   19e16:	48 89 c7             	mov    %rax,%rdi
   19e19:	e8 d5 08 ff ff       	callq  a6f3 <transparent_crc>
   19e1e:	c7 45 f0 00 00 00 00 	movl   $0x0,-0x10(%rbp)
   19e25:	e9 a5 00 00 00       	jmpq   19ecf <main+0x1acd>
   19e2a:	8b 45 f0             	mov    -0x10(%rbp),%eax
   19e2d:	48 98                	cltq   
   19e2f:	48 8d 14 85 00 00 00 	lea    0x0(,%rax,4),%rdx
   19e36:	00 
   19e37:	48 8d 05 32 80 00 00 	lea    0x8032(%rip),%rax        # 21e70 <g_2333>
   19e3e:	8b 04 02             	mov    (%rdx,%rax,1),%eax
   19e41:	89 c1                	mov    %eax,%ecx
   19e43:	8b 45 fc             	mov    -0x4(%rbp),%eax
   19e46:	89 c2                	mov    %eax,%edx
   19e48:	48 8d 35 9f 25 00 00 	lea    0x259f(%rip),%rsi        # 1c3ee <g_2720+0x12f6>
   19e4f:	48 89 cf             	mov    %rcx,%rdi
   19e52:	e8 9c 08 ff ff       	callq  a6f3 <transparent_crc>
   19e57:	8b 45 f0             	mov    -0x10(%rbp),%eax
   19e5a:	48 98                	cltq   
   19e5c:	48 8d 14 85 00 00 00 	lea    0x0(,%rax,4),%rdx
   19e63:	00 
   19e64:	48 8d 05 05 80 00 00 	lea    0x8005(%rip),%rax        # 21e70 <g_2333>
   19e6b:	8b 04 02             	mov    (%rdx,%rax,1),%eax
   19e6e:	89 c1                	mov    %eax,%ecx
   19e70:	8b 45 fc             	mov    -0x4(%rbp),%eax
   19e73:	89 c2                	mov    %eax,%edx
   19e75:	48 8d 35 7f 25 00 00 	lea    0x257f(%rip),%rsi        # 1c3fb <g_2720+0x1303>
   19e7c:	48 89 cf             	mov    %rcx,%rdi
   19e7f:	e8 6f 08 ff ff       	callq  a6f3 <transparent_crc>
   19e84:	8b 45 f0             	mov    -0x10(%rbp),%eax
   19e87:	48 98                	cltq   
   19e89:	48 8d 14 85 00 00 00 	lea    0x0(,%rax,4),%rdx
   19e90:	00 
   19e91:	48 8d 05 d8 7f 00 00 	lea    0x7fd8(%rip),%rax        # 21e70 <g_2333>
   19e98:	8b 04 02             	mov    (%rdx,%rax,1),%eax
   19e9b:	48 98                	cltq   
   19e9d:	8b 55 fc             	mov    -0x4(%rbp),%edx
   19ea0:	48 8d 35 61 25 00 00 	lea    0x2561(%rip),%rsi        # 1c408 <g_2720+0x1310>
   19ea7:	48 89 c7             	mov    %rax,%rdi
   19eaa:	e8 44 08 ff ff       	callq  a6f3 <transparent_crc>
   19eaf:	83 7d fc 00          	cmpl   $0x0,-0x4(%rbp)
   19eb3:	74 16                	je     19ecb <main+0x1ac9>
   19eb5:	8b 45 f0             	mov    -0x10(%rbp),%eax
   19eb8:	89 c6                	mov    %eax,%esi
   19eba:	48 8d 3d 7d 1f 00 00 	lea    0x1f7d(%rip),%rdi        # 1be3e <g_2720+0xd46>
   19ec1:	b8 00 00 00 00       	mov    $0x0,%eax
   19ec6:	e8 b5 f1 fe ff       	callq  9080 <printf@plt>
   19ecb:	83 45 f0 01          	addl   $0x1,-0x10(%rbp)
   19ecf:	83 7d f0 05          	cmpl   $0x5,-0x10(%rbp)
   19ed3:	0f 8e 51 ff ff ff    	jle    19e2a <main+0x1a28>
   19ed9:	8b 05 a9 7f 00 00    	mov    0x7fa9(%rip),%eax        # 21e88 <g_2435>
   19edf:	89 c1                	mov    %eax,%ecx
   19ee1:	8b 45 fc             	mov    -0x4(%rbp),%eax
   19ee4:	89 c2                	mov    %eax,%edx
   19ee6:	48 8d 35 28 25 00 00 	lea    0x2528(%rip),%rsi        # 1c415 <g_2720+0x131d>
   19eed:	48 89 cf             	mov    %rcx,%rdi
   19ef0:	e8 fe 07 ff ff       	callq  a6f3 <transparent_crc>
   19ef5:	8b 05 8d 7f 00 00    	mov    0x7f8d(%rip),%eax        # 21e88 <g_2435>
   19efb:	89 c1                	mov    %eax,%ecx
   19efd:	8b 45 fc             	mov    -0x4(%rbp),%eax
   19f00:	89 c2                	mov    %eax,%edx
   19f02:	48 8d 35 16 25 00 00 	lea    0x2516(%rip),%rsi        # 1c41f <g_2720+0x1327>
   19f09:	48 89 cf             	mov    %rcx,%rdi
   19f0c:	e8 e2 07 ff ff       	callq  a6f3 <transparent_crc>
   19f11:	8b 05 71 7f 00 00    	mov    0x7f71(%rip),%eax        # 21e88 <g_2435>
   19f17:	48 98                	cltq   
   19f19:	8b 55 fc             	mov    -0x4(%rbp),%edx
   19f1c:	48 8d 35 06 25 00 00 	lea    0x2506(%rip),%rsi        # 1c429 <g_2720+0x1331>
   19f23:	48 89 c7             	mov    %rax,%rdi
   19f26:	e8 c8 07 ff ff       	callq  a6f3 <transparent_crc>
   19f2b:	48 8b 05 5e 7f 00 00 	mov    0x7f5e(%rip),%rax        # 21e90 <g_2445>
   19f32:	48 89 c1             	mov    %rax,%rcx
   19f35:	8b 45 fc             	mov    -0x4(%rbp),%eax
   19f38:	89 c2                	mov    %eax,%edx
   19f3a:	48 8d 35 f2 24 00 00 	lea    0x24f2(%rip),%rsi        # 1c433 <g_2720+0x133b>
   19f41:	48 89 cf             	mov    %rcx,%rdi
   19f44:	e8 aa 07 ff ff       	callq  a6f3 <transparent_crc>
   19f49:	0f b6 05 40 7f 00 00 	movzbl 0x7f40(%rip),%eax        # 21e90 <g_2445>
   19f50:	0f b6 c0             	movzbl %al,%eax
   19f53:	8b 55 fc             	mov    -0x4(%rbp),%edx
   19f56:	48 8d 35 e0 24 00 00 	lea    0x24e0(%rip),%rsi        # 1c43d <g_2720+0x1345>
   19f5d:	48 89 c7             	mov    %rax,%rdi
   19f60:	e8 8e 07 ff ff       	callq  a6f3 <transparent_crc>
   19f65:	48 8b 05 2c 7f 00 00 	mov    0x7f2c(%rip),%rax        # 21e98 <g_2541>
   19f6c:	48 89 c1             	mov    %rax,%rcx
   19f6f:	8b 45 fc             	mov    -0x4(%rbp),%eax
   19f72:	89 c2                	mov    %eax,%edx
   19f74:	48 8d 35 cc 24 00 00 	lea    0x24cc(%rip),%rsi        # 1c447 <g_2720+0x134f>
   19f7b:	48 89 cf             	mov    %rcx,%rdi
   19f7e:	e8 70 07 ff ff       	callq  a6f3 <transparent_crc>
   19f83:	0f b6 05 0e 7f 00 00 	movzbl 0x7f0e(%rip),%eax        # 21e98 <g_2541>
   19f8a:	0f b6 c0             	movzbl %al,%eax
   19f8d:	8b 55 fc             	mov    -0x4(%rbp),%edx
   19f90:	48 8d 35 ba 24 00 00 	lea    0x24ba(%rip),%rsi        # 1c451 <g_2720+0x1359>
   19f97:	48 89 c7             	mov    %rax,%rdi
   19f9a:	e8 54 07 ff ff       	callq  a6f3 <transparent_crc>
   19f9f:	48 8b 05 4a 7f 00 00 	mov    0x7f4a(%rip),%rax        # 21ef0 <g_2666>
   19fa6:	48 89 c1             	mov    %rax,%rcx
   19fa9:	8b 45 fc             	mov    -0x4(%rbp),%eax
   19fac:	89 c2                	mov    %eax,%edx
   19fae:	48 8d 35 a6 24 00 00 	lea    0x24a6(%rip),%rsi        # 1c45b <g_2720+0x1363>
   19fb5:	48 89 cf             	mov    %rcx,%rdi
   19fb8:	e8 36 07 ff ff       	callq  a6f3 <transparent_crc>
   19fbd:	0f b6 05 2c 7f 00 00 	movzbl 0x7f2c(%rip),%eax        # 21ef0 <g_2666>
   19fc4:	0f b6 c0             	movzbl %al,%eax
   19fc7:	8b 55 fc             	mov    -0x4(%rbp),%edx
   19fca:	48 8d 35 94 24 00 00 	lea    0x2494(%rip),%rsi        # 1c465 <g_2720+0x136d>
   19fd1:	48 89 c7             	mov    %rax,%rdi
   19fd4:	e8 1a 07 ff ff       	callq  a6f3 <transparent_crc>
   19fd9:	c7 45 f0 00 00 00 00 	movl   $0x0,-0x10(%rbp)
   19fe0:	eb 7c                	jmp    1a05e <main+0x1c5c>
   19fe2:	8b 45 f0             	mov    -0x10(%rbp),%eax
   19fe5:	48 98                	cltq   
   19fe7:	48 8d 14 c5 00 00 00 	lea    0x0(,%rax,8),%rdx
   19fee:	00 
   19fef:	48 8d 05 ea 10 00 00 	lea    0x10ea(%rip),%rax        # 1b0e0 <g_2719>
   19ff6:	48 8b 04 02          	mov    (%rdx,%rax,1),%rax
   19ffa:	48 89 c1             	mov    %rax,%rcx
   19ffd:	8b 45 fc             	mov    -0x4(%rbp),%eax
   1a000:	89 c2                	mov    %eax,%edx
   1a002:	48 8d 35 66 24 00 00 	lea    0x2466(%rip),%rsi        # 1c46f <g_2720+0x1377>
   1a009:	48 89 cf             	mov    %rcx,%rdi
   1a00c:	e8 e2 06 ff ff       	callq  a6f3 <transparent_crc>
   1a011:	8b 45 f0             	mov    -0x10(%rbp),%eax
   1a014:	48 98                	cltq   
   1a016:	48 8d 14 c5 00 00 00 	lea    0x0(,%rax,8),%rdx
   1a01d:	00 
   1a01e:	48 8d 05 bb 10 00 00 	lea    0x10bb(%rip),%rax        # 1b0e0 <g_2719>
   1a025:	0f b6 04 02          	movzbl (%rdx,%rax,1),%eax
   1a029:	0f b6 c0             	movzbl %al,%eax
   1a02c:	8b 55 fc             	mov    -0x4(%rbp),%edx
   1a02f:	48 8d 35 46 24 00 00 	lea    0x2446(%rip),%rsi        # 1c47c <g_2720+0x1384>
   1a036:	48 89 c7             	mov    %rax,%rdi
   1a039:	e8 b5 06 ff ff       	callq  a6f3 <transparent_crc>
   1a03e:	83 7d fc 00          	cmpl   $0x0,-0x4(%rbp)
   1a042:	74 16                	je     1a05a <main+0x1c58>
   1a044:	8b 45 f0             	mov    -0x10(%rbp),%eax
   1a047:	89 c6                	mov    %eax,%esi
   1a049:	48 8d 3d ee 1d 00 00 	lea    0x1dee(%rip),%rdi        # 1be3e <g_2720+0xd46>
   1a050:	b8 00 00 00 00       	mov    $0x0,%eax
   1a055:	e8 26 f0 fe ff       	callq  9080 <printf@plt>
   1a05a:	83 45 f0 01          	addl   $0x1,-0x10(%rbp)
   1a05e:	83 7d f0 02          	cmpl   $0x2,-0x10(%rbp)
   1a062:	0f 8e 7a ff ff ff    	jle    19fe2 <main+0x1be0>
   1a068:	c7 45 f0 00 00 00 00 	movl   $0x0,-0x10(%rbp)
   1a06f:	eb 46                	jmp    1a0b7 <main+0x1cb5>
   1a071:	8b 45 f0             	mov    -0x10(%rbp),%eax
   1a074:	48 98                	cltq   
   1a076:	48 8d 15 7b 10 00 00 	lea    0x107b(%rip),%rdx        # 1b0f8 <g_2720>
   1a07d:	0f b6 04 10          	movzbl (%rax,%rdx,1),%eax
   1a081:	48 0f be c0          	movsbq %al,%rax
   1a085:	8b 55 fc             	mov    -0x4(%rbp),%edx
   1a088:	48 8d 35 fa 23 00 00 	lea    0x23fa(%rip),%rsi        # 1c489 <g_2720+0x1391>
   1a08f:	48 89 c7             	mov    %rax,%rdi
   1a092:	e8 5c 06 ff ff       	callq  a6f3 <transparent_crc>
   1a097:	83 7d fc 00          	cmpl   $0x0,-0x4(%rbp)
   1a09b:	74 16                	je     1a0b3 <main+0x1cb1>
   1a09d:	8b 45 f0             	mov    -0x10(%rbp),%eax
   1a0a0:	89 c6                	mov    %eax,%esi
   1a0a2:	48 8d 3d 95 1d 00 00 	lea    0x1d95(%rip),%rdi        # 1be3e <g_2720+0xd46>
   1a0a9:	b8 00 00 00 00       	mov    $0x0,%eax
   1a0ae:	e8 cd ef fe ff       	callq  9080 <printf@plt>
   1a0b3:	83 45 f0 01          	addl   $0x1,-0x10(%rbp)
   1a0b7:	83 7d f0 07          	cmpl   $0x7,-0x10(%rbp)
   1a0bb:	7e b4                	jle    1a071 <main+0x1c6f>
   1a0bd:	48 8b 05 34 7e 00 00 	mov    0x7e34(%rip),%rax        # 21ef8 <g_2742>
   1a0c4:	48 89 c1             	mov    %rax,%rcx
   1a0c7:	8b 45 fc             	mov    -0x4(%rbp),%eax
   1a0ca:	89 c2                	mov    %eax,%edx
   1a0cc:	48 8d 35 c0 23 00 00 	lea    0x23c0(%rip),%rsi        # 1c493 <g_2720+0x139b>
   1a0d3:	48 89 cf             	mov    %rcx,%rdi
   1a0d6:	e8 18 06 ff ff       	callq  a6f3 <transparent_crc>
   1a0db:	0f b6 05 16 7e 00 00 	movzbl 0x7e16(%rip),%eax        # 21ef8 <g_2742>
   1a0e2:	0f b6 c0             	movzbl %al,%eax
   1a0e5:	8b 55 fc             	mov    -0x4(%rbp),%edx
   1a0e8:	48 8d 35 ae 23 00 00 	lea    0x23ae(%rip),%rsi        # 1c49d <g_2720+0x13a5>
   1a0ef:	48 89 c7             	mov    %rax,%rdi
   1a0f2:	e8 fc 05 ff ff       	callq  a6f3 <transparent_crc>
   1a0f7:	8b 05 03 7e 00 00    	mov    0x7e03(%rip),%eax        # 21f00 <g_2747>
   1a0fd:	48 98                	cltq   
   1a0ff:	8b 55 fc             	mov    -0x4(%rbp),%edx
   1a102:	48 8d 35 9e 23 00 00 	lea    0x239e(%rip),%rsi        # 1c4a7 <g_2720+0x13af>
   1a109:	48 89 c7             	mov    %rax,%rdi
   1a10c:	e8 e2 05 ff ff       	callq  a6f3 <transparent_crc>
   1a111:	c7 45 f0 00 00 00 00 	movl   $0x0,-0x10(%rbp)
   1a118:	eb 4e                	jmp    1a168 <main+0x1d66>
   1a11a:	8b 45 f0             	mov    -0x10(%rbp),%eax
   1a11d:	48 98                	cltq   
   1a11f:	48 8d 14 c5 00 00 00 	lea    0x0(,%rax,8),%rdx
   1a126:	00 
   1a127:	48 8d 05 f2 7d 00 00 	lea    0x7df2(%rip),%rax        # 21f20 <g_2768>
   1a12e:	0f b7 04 02          	movzwl (%rdx,%rax,1),%eax
   1a132:	48 0f bf c0          	movswq %ax,%rax
   1a136:	8b 55 fc             	mov    -0x4(%rbp),%edx
   1a139:	48 8d 35 6e 23 00 00 	lea    0x236e(%rip),%rsi        # 1c4ae <g_2720+0x13b6>
   1a140:	48 89 c7             	mov    %rax,%rdi
   1a143:	e8 ab 05 ff ff       	callq  a6f3 <transparent_crc>
   1a148:	83 7d fc 00          	cmpl   $0x0,-0x4(%rbp)
   1a14c:	74 16                	je     1a164 <main+0x1d62>
   1a14e:	8b 45 f0             	mov    -0x10(%rbp),%eax
   1a151:	89 c6                	mov    %eax,%esi
   1a153:	48 8d 3d e4 1c 00 00 	lea    0x1ce4(%rip),%rdi        # 1be3e <g_2720+0xd46>
   1a15a:	b8 00 00 00 00       	mov    $0x0,%eax
   1a15f:	e8 1c ef fe ff       	callq  9080 <printf@plt>
   1a164:	83 45 f0 01          	addl   $0x1,-0x10(%rbp)
   1a168:	83 7d f0 03          	cmpl   $0x3,-0x10(%rbp)
   1a16c:	7e ac                	jle    1a11a <main+0x1d18>
   1a16e:	8b 05 cc 7d 00 00    	mov    0x7dcc(%rip),%eax        # 21f40 <g_2796>
   1a174:	89 c1                	mov    %eax,%ecx
   1a176:	8b 45 fc             	mov    -0x4(%rbp),%eax
   1a179:	89 c2                	mov    %eax,%edx
   1a17b:	48 8d 35 39 23 00 00 	lea    0x2339(%rip),%rsi        # 1c4bb <g_2720+0x13c3>
   1a182:	48 89 cf             	mov    %rcx,%rdi
   1a185:	e8 69 05 ff ff       	callq  a6f3 <transparent_crc>
   1a18a:	8b 05 b0 7d 00 00    	mov    0x7db0(%rip),%eax        # 21f40 <g_2796>
   1a190:	89 c1                	mov    %eax,%ecx
   1a192:	8b 45 fc             	mov    -0x4(%rbp),%eax
   1a195:	89 c2                	mov    %eax,%edx
   1a197:	48 8d 35 27 23 00 00 	lea    0x2327(%rip),%rsi        # 1c4c5 <g_2720+0x13cd>
   1a19e:	48 89 cf             	mov    %rcx,%rdi
   1a1a1:	e8 4d 05 ff ff       	callq  a6f3 <transparent_crc>
   1a1a6:	8b 05 94 7d 00 00    	mov    0x7d94(%rip),%eax        # 21f40 <g_2796>
   1a1ac:	48 98                	cltq   
   1a1ae:	8b 55 fc             	mov    -0x4(%rbp),%edx
   1a1b1:	48 8d 35 17 23 00 00 	lea    0x2317(%rip),%rsi        # 1c4cf <g_2720+0x13d7>
   1a1b8:	48 89 c7             	mov    %rax,%rdi
   1a1bb:	e8 33 05 ff ff       	callq  a6f3 <transparent_crc>
   1a1c0:	c7 45 f0 00 00 00 00 	movl   $0x0,-0x10(%rbp)
   1a1c7:	e9 a5 00 00 00       	jmpq   1a271 <main+0x1e6f>
   1a1cc:	8b 45 f0             	mov    -0x10(%rbp),%eax
   1a1cf:	48 98                	cltq   
   1a1d1:	48 8d 14 85 00 00 00 	lea    0x0(,%rax,4),%rdx
   1a1d8:	00 
   1a1d9:	48 8d 05 80 7d 00 00 	lea    0x7d80(%rip),%rax        # 21f60 <g_2936>
   1a1e0:	8b 04 02             	mov    (%rdx,%rax,1),%eax
   1a1e3:	89 c1                	mov    %eax,%ecx
   1a1e5:	8b 45 fc             	mov    -0x4(%rbp),%eax
   1a1e8:	89 c2                	mov    %eax,%edx
   1a1ea:	48 8d 35 e8 22 00 00 	lea    0x22e8(%rip),%rsi        # 1c4d9 <g_2720+0x13e1>
   1a1f1:	48 89 cf             	mov    %rcx,%rdi
   1a1f4:	e8 fa 04 ff ff       	callq  a6f3 <transparent_crc>
   1a1f9:	8b 45 f0             	mov    -0x10(%rbp),%eax
   1a1fc:	48 98                	cltq   
   1a1fe:	48 8d 14 85 00 00 00 	lea    0x0(,%rax,4),%rdx
   1a205:	00 
   1a206:	48 8d 05 53 7d 00 00 	lea    0x7d53(%rip),%rax        # 21f60 <g_2936>
   1a20d:	8b 04 02             	mov    (%rdx,%rax,1),%eax
   1a210:	89 c1                	mov    %eax,%ecx
   1a212:	8b 45 fc             	mov    -0x4(%rbp),%eax
   1a215:	89 c2                	mov    %eax,%edx
   1a217:	48 8d 35 c8 22 00 00 	lea    0x22c8(%rip),%rsi        # 1c4e6 <g_2720+0x13ee>
   1a21e:	48 89 cf             	mov    %rcx,%rdi
   1a221:	e8 cd 04 ff ff       	callq  a6f3 <transparent_crc>
   1a226:	8b 45 f0             	mov    -0x10(%rbp),%eax
   1a229:	48 98                	cltq   
   1a22b:	48 8d 14 85 00 00 00 	lea    0x0(,%rax,4),%rdx
   1a232:	00 
   1a233:	48 8d 05 26 7d 00 00 	lea    0x7d26(%rip),%rax        # 21f60 <g_2936>
   1a23a:	8b 04 02             	mov    (%rdx,%rax,1),%eax
   1a23d:	48 98                	cltq   
   1a23f:	8b 55 fc             	mov    -0x4(%rbp),%edx
   1a242:	48 8d 35 aa 22 00 00 	lea    0x22aa(%rip),%rsi        # 1c4f3 <g_2720+0x13fb>
   1a249:	48 89 c7             	mov    %rax,%rdi
   1a24c:	e8 a2 04 ff ff       	callq  a6f3 <transparent_crc>
   1a251:	83 7d fc 00          	cmpl   $0x0,-0x4(%rbp)
   1a255:	74 16                	je     1a26d <main+0x1e6b>
   1a257:	8b 45 f0             	mov    -0x10(%rbp),%eax
   1a25a:	89 c6                	mov    %eax,%esi
   1a25c:	48 8d 3d db 1b 00 00 	lea    0x1bdb(%rip),%rdi        # 1be3e <g_2720+0xd46>
   1a263:	b8 00 00 00 00       	mov    $0x0,%eax
   1a268:	e8 13 ee fe ff       	callq  9080 <printf@plt>
   1a26d:	83 45 f0 01          	addl   $0x1,-0x10(%rbp)
   1a271:	83 7d f0 09          	cmpl   $0x9,-0x10(%rbp)
   1a275:	0f 8e 51 ff ff ff    	jle    1a1cc <main+0x1dca>
   1a27b:	8b 05 07 7d 00 00    	mov    0x7d07(%rip),%eax        # 21f88 <g_2965>
   1a281:	89 c1                	mov    %eax,%ecx
   1a283:	8b 45 fc             	mov    -0x4(%rbp),%eax
   1a286:	89 c2                	mov    %eax,%edx
   1a288:	48 8d 35 71 22 00 00 	lea    0x2271(%rip),%rsi        # 1c500 <g_2720+0x1408>
   1a28f:	48 89 cf             	mov    %rcx,%rdi
   1a292:	e8 5c 04 ff ff       	callq  a6f3 <transparent_crc>
   1a297:	8b 05 eb 7c 00 00    	mov    0x7ceb(%rip),%eax        # 21f88 <g_2965>
   1a29d:	89 c1                	mov    %eax,%ecx
   1a29f:	8b 45 fc             	mov    -0x4(%rbp),%eax
   1a2a2:	89 c2                	mov    %eax,%edx
   1a2a4:	48 8d 35 5f 22 00 00 	lea    0x225f(%rip),%rsi        # 1c50a <g_2720+0x1412>
   1a2ab:	48 89 cf             	mov    %rcx,%rdi
   1a2ae:	e8 40 04 ff ff       	callq  a6f3 <transparent_crc>
   1a2b3:	8b 05 cf 7c 00 00    	mov    0x7ccf(%rip),%eax        # 21f88 <g_2965>
   1a2b9:	48 98                	cltq   
   1a2bb:	8b 55 fc             	mov    -0x4(%rbp),%edx
   1a2be:	48 8d 35 4f 22 00 00 	lea    0x224f(%rip),%rsi        # 1c514 <g_2720+0x141c>
   1a2c5:	48 89 c7             	mov    %rax,%rdi
   1a2c8:	e8 26 04 ff ff       	callq  a6f3 <transparent_crc>
   1a2cd:	0f b7 05 bc 7c 00 00 	movzwl 0x7cbc(%rip),%eax        # 21f90 <g_2982>
   1a2d4:	48 0f bf c0          	movswq %ax,%rax
   1a2d8:	8b 55 fc             	mov    -0x4(%rbp),%edx
   1a2db:	48 8d 35 3c 22 00 00 	lea    0x223c(%rip),%rsi        # 1c51e <g_2720+0x1426>
   1a2e2:	48 89 c7             	mov    %rax,%rdi
   1a2e5:	e8 09 04 ff ff       	callq  a6f3 <transparent_crc>
   1a2ea:	8b 05 30 5d 00 00    	mov    0x5d30(%rip),%eax        # 20020 <crc32_context>
   1a2f0:	f7 d0                	not    %eax
   1a2f2:	89 c2                	mov    %eax,%edx
   1a2f4:	8b 45 fc             	mov    -0x4(%rbp),%eax
   1a2f7:	89 c6                	mov    %eax,%esi
   1a2f9:	89 d7                	mov    %edx,%edi
   1a2fb:	e8 94 ee fe ff       	callq  9194 <platform_main_end>
   1a300:	b8 00 00 00 00       	mov    $0x0,%eax
   1a305:	c9                   	leaveq 
   1a306:	c3                   	retq   
   1a307:	66 0f 1f 84 00 00 00 	nopw   0x0(%rax,%rax,1)
   1a30e:	00 00 

000000000001a310 <__libc_csu_init>:
   1a310:	f3 0f 1e fa          	endbr64 
   1a314:	41 57                	push   %r15
   1a316:	4c 8d 3d 73 5a 00 00 	lea    0x5a73(%rip),%r15        # 1fd90 <__frame_dummy_init_array_entry>
   1a31d:	41 56                	push   %r14
   1a31f:	49 89 d6             	mov    %rdx,%r14
   1a322:	41 55                	push   %r13
   1a324:	49 89 f5             	mov    %rsi,%r13
   1a327:	41 54                	push   %r12
   1a329:	41 89 fc             	mov    %edi,%r12d
   1a32c:	55                   	push   %rbp
   1a32d:	48 8d 2d 64 5a 00 00 	lea    0x5a64(%rip),%rbp        # 1fd98 <__do_global_dtors_aux_fini_array_entry>
   1a334:	53                   	push   %rbx
   1a335:	4c 29 fd             	sub    %r15,%rbp
   1a338:	48 83 ec 08          	sub    $0x8,%rsp
   1a33c:	e8 bf ec fe ff       	callq  9000 <_init>
   1a341:	48 c1 fd 03          	sar    $0x3,%rbp
   1a345:	74 1f                	je     1a366 <__libc_csu_init+0x56>
   1a347:	31 db                	xor    %ebx,%ebx
   1a349:	0f 1f 80 00 00 00 00 	nopl   0x0(%rax)
   1a350:	4c 89 f2             	mov    %r14,%rdx
   1a353:	4c 89 ee             	mov    %r13,%rsi
   1a356:	44 89 e7             	mov    %r12d,%edi
   1a359:	41 ff 14 df          	callq  *(%r15,%rbx,8)
   1a35d:	48 83 c3 01          	add    $0x1,%rbx
   1a361:	48 39 dd             	cmp    %rbx,%rbp
   1a364:	75 ea                	jne    1a350 <__libc_csu_init+0x40>
   1a366:	48 83 c4 08          	add    $0x8,%rsp
   1a36a:	5b                   	pop    %rbx
   1a36b:	5d                   	pop    %rbp
   1a36c:	41 5c                	pop    %r12
   1a36e:	41 5d                	pop    %r13
   1a370:	41 5e                	pop    %r14
   1a372:	41 5f                	pop    %r15
   1a374:	c3                   	retq   
   1a375:	66 66 2e 0f 1f 84 00 	data16 nopw %cs:0x0(%rax,%rax,1)
   1a37c:	00 00 00 00 

000000000001a380 <__libc_csu_fini>:
   1a380:	f3 0f 1e fa          	endbr64 
   1a384:	c3                   	retq   
