


Disassembly of section .text:

00000000000030a0 <_start>:
    30a0:	f3 0f 1e fa          	endbr64 
    30a4:	31 ed                	xor    %ebp,%ebp
    30a6:	49 89 d1             	mov    %rdx,%r9
    30a9:	5e                   	pop    %rsi
    30aa:	48 89 e2             	mov    %rsp,%rdx
    30ad:	48 83 e4 f0          	and    $0xfffffffffffffff0,%rsp
    30b1:	50                   	push   %rax
    30b2:	54                   	push   %rsp
    30b3:	4c 8d 05 d6 ae 00 00 	lea    0xaed6(%rip),%r8        # df90 <__libc_csu_fini>
    30ba:	48 8d 0d 5f ae 00 00 	lea    0xae5f(%rip),%rcx        # df20 <__libc_csu_init>
    30c1:	48 8d 3d 2f 7b 00 00 	lea    0x7b2f(%rip),%rdi        # abf7 <main>
    30c8:	ff 15 12 ff 00 00    	callq  *0xff12(%rip)        # 12fe0 <__libc_start_main@GLIBC_2.2.5>
    30ce:	f4                   	hlt    
    30cf:	90                   	nop

00000000000030d0 <deregister_tm_clones>:
    30d0:	48 8d 3d 81 77 01 00 	lea    0x17781(%rip),%rdi        # 1a858 <__TMC_END__>
    30d7:	48 8d 05 7a 77 01 00 	lea    0x1777a(%rip),%rax        # 1a858 <__TMC_END__>
    30de:	48 39 f8             	cmp    %rdi,%rax
    30e1:	74 15                	je     30f8 <deregister_tm_clones+0x28>
    30e3:	48 8b 05 ee fe 00 00 	mov    0xfeee(%rip),%rax        # 12fd8 <_ITM_deregisterTMCloneTable>
    30ea:	48 85 c0             	test   %rax,%rax
    30ed:	74 09                	je     30f8 <deregister_tm_clones+0x28>
    30ef:	ff e0                	jmpq   *%rax
    30f1:	0f 1f 80 00 00 00 00 	nopl   0x0(%rax)
    30f8:	c3                   	retq   
    30f9:	0f 1f 80 00 00 00 00 	nopl   0x0(%rax)

0000000000003100 <register_tm_clones>:
    3100:	48 8d 3d 51 77 01 00 	lea    0x17751(%rip),%rdi        # 1a858 <__TMC_END__>
    3107:	48 8d 35 4a 77 01 00 	lea    0x1774a(%rip),%rsi        # 1a858 <__TMC_END__>
    310e:	48 29 fe             	sub    %rdi,%rsi
    3111:	48 89 f0             	mov    %rsi,%rax
    3114:	48 c1 ee 3f          	shr    $0x3f,%rsi
    3118:	48 c1 f8 03          	sar    $0x3,%rax
    311c:	48 01 c6             	add    %rax,%rsi
    311f:	48 d1 fe             	sar    %rsi
    3122:	74 14                	je     3138 <register_tm_clones+0x38>
    3124:	48 8b 05 c5 fe 00 00 	mov    0xfec5(%rip),%rax        # 12ff0 <_ITM_registerTMCloneTable>
    312b:	48 85 c0             	test   %rax,%rax
    312e:	74 08                	je     3138 <register_tm_clones+0x38>
    3130:	ff e0                	jmpq   *%rax
    3132:	66 0f 1f 44 00 00    	nopw   0x0(%rax,%rax,1)
    3138:	c3                   	retq   
    3139:	0f 1f 80 00 00 00 00 	nopl   0x0(%rax)

0000000000003140 <__do_global_dtors_aux>:
    3140:	f3 0f 1e fa          	endbr64 
    3144:	80 3d 15 77 01 00 00 	cmpb   $0x0,0x17715(%rip)        # 1a860 <completed.8061>
    314b:	75 2b                	jne    3178 <__do_global_dtors_aux+0x38>
    314d:	55                   	push   %rbp
    314e:	48 83 3d a2 fe 00 00 	cmpq   $0x0,0xfea2(%rip)        # 12ff8 <__cxa_finalize@GLIBC_2.2.5>
    3155:	00 
    3156:	48 89 e5             	mov    %rsp,%rbp
    3159:	74 0c                	je     3167 <__do_global_dtors_aux+0x27>
    315b:	48 8b 3d a6 fe 00 00 	mov    0xfea6(%rip),%rdi        # 13008 <__dso_handle>
    3162:	e8 f9 fe ff ff       	callq  3060 <__cxa_finalize@plt>
    3167:	e8 64 ff ff ff       	callq  30d0 <deregister_tm_clones>
    316c:	c6 05 ed 76 01 00 01 	movb   $0x1,0x176ed(%rip)        # 1a860 <completed.8061>
    3173:	5d                   	pop    %rbp
    3174:	c3                   	retq   
    3175:	0f 1f 00             	nopl   (%rax)
    3178:	c3                   	retq   
    3179:	0f 1f 80 00 00 00 00 	nopl   0x0(%rax)

0000000000003180 <frame_dummy>:
    3180:	f3 0f 1e fa          	endbr64 
    3184:	e9 77 ff ff ff       	jmpq   3100 <register_tm_clones>

0000000000003189 <platform_main_begin>:
    3189:	f3 0f 1e fa          	endbr64 
    318d:	55                   	push   %rbp
    318e:	48 89 e5             	mov    %rsp,%rbp
    3191:	90                   	nop
    3192:	5d                   	pop    %rbp
    3193:	c3                   	retq   

0000000000003194 <platform_main_end>:
    3194:	f3 0f 1e fa          	endbr64 
    3198:	55                   	push   %rbp
    3199:	48 89 e5             	mov    %rsp,%rbp
    319c:	48 83 ec 10          	sub    $0x10,%rsp
    31a0:	89 7d fc             	mov    %edi,-0x4(%rbp)
    31a3:	89 75 f8             	mov    %esi,-0x8(%rbp)
    31a6:	8b 45 fc             	mov    -0x4(%rbp),%eax
    31a9:	89 c6                	mov    %eax,%esi
    31ab:	48 8d 3d 6e ae 00 00 	lea    0xae6e(%rip),%rdi        # e020 <_IO_stdin_used+0x20>
    31b2:	b8 00 00 00 00       	mov    $0x0,%eax
    31b7:	e8 c4 fe ff ff       	callq  3080 <printf@plt>
    31bc:	90                   	nop
    31bd:	c9                   	leaveq 
    31be:	c3                   	retq   

00000000000031bf <safe_unary_minus_func_int8_t_s>:
    31bf:	f3 0f 1e fa          	endbr64 
    31c3:	55                   	push   %rbp
    31c4:	48 89 e5             	mov    %rsp,%rbp
    31c7:	89 f8                	mov    %edi,%eax
    31c9:	88 45 fc             	mov    %al,-0x4(%rbp)
    31cc:	0f b6 45 fc          	movzbl -0x4(%rbp),%eax
    31d0:	f7 d8                	neg    %eax
    31d2:	5d                   	pop    %rbp
    31d3:	c3                   	retq   

00000000000031d4 <safe_add_func_int8_t_s_s>:
    31d4:	f3 0f 1e fa          	endbr64 
    31d8:	55                   	push   %rbp
    31d9:	48 89 e5             	mov    %rsp,%rbp
    31dc:	89 fa                	mov    %edi,%edx
    31de:	89 f0                	mov    %esi,%eax
    31e0:	88 55 fc             	mov    %dl,-0x4(%rbp)
    31e3:	88 45 f8             	mov    %al,-0x8(%rbp)
    31e6:	0f b6 55 fc          	movzbl -0x4(%rbp),%edx
    31ea:	0f b6 45 f8          	movzbl -0x8(%rbp),%eax
    31ee:	01 d0                	add    %edx,%eax
    31f0:	5d                   	pop    %rbp
    31f1:	c3                   	retq   

00000000000031f2 <safe_sub_func_int8_t_s_s>:
    31f2:	f3 0f 1e fa          	endbr64 
    31f6:	55                   	push   %rbp
    31f7:	48 89 e5             	mov    %rsp,%rbp
    31fa:	89 fa                	mov    %edi,%edx
    31fc:	89 f0                	mov    %esi,%eax
    31fe:	88 55 fc             	mov    %dl,-0x4(%rbp)
    3201:	88 45 f8             	mov    %al,-0x8(%rbp)
    3204:	0f b6 55 fc          	movzbl -0x4(%rbp),%edx
    3208:	0f b6 45 f8          	movzbl -0x8(%rbp),%eax
    320c:	29 c2                	sub    %eax,%edx
    320e:	89 d0                	mov    %edx,%eax
    3210:	5d                   	pop    %rbp
    3211:	c3                   	retq   

0000000000003212 <safe_mul_func_int8_t_s_s>:
    3212:	f3 0f 1e fa          	endbr64 
    3216:	55                   	push   %rbp
    3217:	48 89 e5             	mov    %rsp,%rbp
    321a:	89 fa                	mov    %edi,%edx
    321c:	89 f0                	mov    %esi,%eax
    321e:	88 55 fc             	mov    %dl,-0x4(%rbp)
    3221:	88 45 f8             	mov    %al,-0x8(%rbp)
    3224:	0f b6 45 fc          	movzbl -0x4(%rbp),%eax
    3228:	0f b6 55 f8          	movzbl -0x8(%rbp),%edx
    322c:	0f af c2             	imul   %edx,%eax
    322f:	5d                   	pop    %rbp
    3230:	c3                   	retq   

0000000000003231 <safe_mod_func_int8_t_s_s>:
    3231:	f3 0f 1e fa          	endbr64 
    3235:	55                   	push   %rbp
    3236:	48 89 e5             	mov    %rsp,%rbp
    3239:	89 fa                	mov    %edi,%edx
    323b:	89 f0                	mov    %esi,%eax
    323d:	88 55 fc             	mov    %dl,-0x4(%rbp)
    3240:	88 45 f8             	mov    %al,-0x8(%rbp)
    3243:	80 7d f8 00          	cmpb   $0x0,-0x8(%rbp)
    3247:	74 1b                	je     3264 <safe_mod_func_int8_t_s_s+0x33>
    3249:	80 7d fc 80          	cmpb   $0x80,-0x4(%rbp)
    324d:	75 06                	jne    3255 <safe_mod_func_int8_t_s_s+0x24>
    324f:	80 7d f8 ff          	cmpb   $0xff,-0x8(%rbp)
    3253:	74 0f                	je     3264 <safe_mod_func_int8_t_s_s+0x33>
    3255:	0f be 45 fc          	movsbl -0x4(%rbp),%eax
    3259:	0f be 4d f8          	movsbl -0x8(%rbp),%ecx
    325d:	99                   	cltd   
    325e:	f7 f9                	idiv   %ecx
    3260:	89 d0                	mov    %edx,%eax
    3262:	eb 04                	jmp    3268 <safe_mod_func_int8_t_s_s+0x37>
    3264:	0f b6 45 fc          	movzbl -0x4(%rbp),%eax
    3268:	5d                   	pop    %rbp
    3269:	c3                   	retq   

000000000000326a <safe_div_func_int8_t_s_s>:
    326a:	f3 0f 1e fa          	endbr64 
    326e:	55                   	push   %rbp
    326f:	48 89 e5             	mov    %rsp,%rbp
    3272:	89 fa                	mov    %edi,%edx
    3274:	89 f0                	mov    %esi,%eax
    3276:	88 55 fc             	mov    %dl,-0x4(%rbp)
    3279:	88 45 f8             	mov    %al,-0x8(%rbp)
    327c:	80 7d f8 00          	cmpb   $0x0,-0x8(%rbp)
    3280:	74 19                	je     329b <safe_div_func_int8_t_s_s+0x31>
    3282:	80 7d fc 80          	cmpb   $0x80,-0x4(%rbp)
    3286:	75 06                	jne    328e <safe_div_func_int8_t_s_s+0x24>
    3288:	80 7d f8 ff          	cmpb   $0xff,-0x8(%rbp)
    328c:	74 0d                	je     329b <safe_div_func_int8_t_s_s+0x31>
    328e:	0f be 45 fc          	movsbl -0x4(%rbp),%eax
    3292:	0f be 4d f8          	movsbl -0x8(%rbp),%ecx
    3296:	99                   	cltd   
    3297:	f7 f9                	idiv   %ecx
    3299:	eb 04                	jmp    329f <safe_div_func_int8_t_s_s+0x35>
    329b:	0f b6 45 fc          	movzbl -0x4(%rbp),%eax
    329f:	5d                   	pop    %rbp
    32a0:	c3                   	retq   

00000000000032a1 <safe_lshift_func_int8_t_s_s>:
    32a1:	f3 0f 1e fa          	endbr64 
    32a5:	55                   	push   %rbp
    32a6:	48 89 e5             	mov    %rsp,%rbp
    32a9:	89 f8                	mov    %edi,%eax
    32ab:	89 75 f8             	mov    %esi,-0x8(%rbp)
    32ae:	88 45 fc             	mov    %al,-0x4(%rbp)
    32b1:	80 7d fc 00          	cmpb   $0x0,-0x4(%rbp)
    32b5:	78 31                	js     32e8 <safe_lshift_func_int8_t_s_s+0x47>
    32b7:	83 7d f8 00          	cmpl   $0x0,-0x8(%rbp)
    32bb:	78 2b                	js     32e8 <safe_lshift_func_int8_t_s_s+0x47>
    32bd:	83 7d f8 1f          	cmpl   $0x1f,-0x8(%rbp)
    32c1:	7f 25                	jg     32e8 <safe_lshift_func_int8_t_s_s+0x47>
    32c3:	0f be 55 fc          	movsbl -0x4(%rbp),%edx
    32c7:	8b 45 f8             	mov    -0x8(%rbp),%eax
    32ca:	be 7f 00 00 00       	mov    $0x7f,%esi
    32cf:	89 c1                	mov    %eax,%ecx
    32d1:	d3 fe                	sar    %cl,%esi
    32d3:	89 f0                	mov    %esi,%eax
    32d5:	39 c2                	cmp    %eax,%edx
    32d7:	7f 0f                	jg     32e8 <safe_lshift_func_int8_t_s_s+0x47>
    32d9:	0f be 55 fc          	movsbl -0x4(%rbp),%edx
    32dd:	8b 45 f8             	mov    -0x8(%rbp),%eax
    32e0:	89 c1                	mov    %eax,%ecx
    32e2:	d3 e2                	shl    %cl,%edx
    32e4:	89 d0                	mov    %edx,%eax
    32e6:	eb 04                	jmp    32ec <safe_lshift_func_int8_t_s_s+0x4b>
    32e8:	0f b6 45 fc          	movzbl -0x4(%rbp),%eax
    32ec:	5d                   	pop    %rbp
    32ed:	c3                   	retq   

00000000000032ee <safe_lshift_func_int8_t_s_u>:
    32ee:	f3 0f 1e fa          	endbr64 
    32f2:	55                   	push   %rbp
    32f3:	48 89 e5             	mov    %rsp,%rbp
    32f6:	89 f8                	mov    %edi,%eax
    32f8:	89 75 f8             	mov    %esi,-0x8(%rbp)
    32fb:	88 45 fc             	mov    %al,-0x4(%rbp)
    32fe:	80 7d fc 00          	cmpb   $0x0,-0x4(%rbp)
    3302:	78 2b                	js     332f <safe_lshift_func_int8_t_s_u+0x41>
    3304:	83 7d f8 1f          	cmpl   $0x1f,-0x8(%rbp)
    3308:	77 25                	ja     332f <safe_lshift_func_int8_t_s_u+0x41>
    330a:	0f be 55 fc          	movsbl -0x4(%rbp),%edx
    330e:	8b 45 f8             	mov    -0x8(%rbp),%eax
    3311:	be 7f 00 00 00       	mov    $0x7f,%esi
    3316:	89 c1                	mov    %eax,%ecx
    3318:	d3 fe                	sar    %cl,%esi
    331a:	89 f0                	mov    %esi,%eax
    331c:	39 c2                	cmp    %eax,%edx
    331e:	7f 0f                	jg     332f <safe_lshift_func_int8_t_s_u+0x41>
    3320:	0f be 55 fc          	movsbl -0x4(%rbp),%edx
    3324:	8b 45 f8             	mov    -0x8(%rbp),%eax
    3327:	89 c1                	mov    %eax,%ecx
    3329:	d3 e2                	shl    %cl,%edx
    332b:	89 d0                	mov    %edx,%eax
    332d:	eb 04                	jmp    3333 <safe_lshift_func_int8_t_s_u+0x45>
    332f:	0f b6 45 fc          	movzbl -0x4(%rbp),%eax
    3333:	5d                   	pop    %rbp
    3334:	c3                   	retq   

0000000000003335 <safe_rshift_func_int8_t_s_s>:
    3335:	f3 0f 1e fa          	endbr64 
    3339:	55                   	push   %rbp
    333a:	48 89 e5             	mov    %rsp,%rbp
    333d:	89 f8                	mov    %edi,%eax
    333f:	89 75 f8             	mov    %esi,-0x8(%rbp)
    3342:	88 45 fc             	mov    %al,-0x4(%rbp)
    3345:	80 7d fc 00          	cmpb   $0x0,-0x4(%rbp)
    3349:	78 1b                	js     3366 <safe_rshift_func_int8_t_s_s+0x31>
    334b:	83 7d f8 00          	cmpl   $0x0,-0x8(%rbp)
    334f:	78 15                	js     3366 <safe_rshift_func_int8_t_s_s+0x31>
    3351:	83 7d f8 1f          	cmpl   $0x1f,-0x8(%rbp)
    3355:	7f 0f                	jg     3366 <safe_rshift_func_int8_t_s_s+0x31>
    3357:	0f be 55 fc          	movsbl -0x4(%rbp),%edx
    335b:	8b 45 f8             	mov    -0x8(%rbp),%eax
    335e:	89 c1                	mov    %eax,%ecx
    3360:	d3 fa                	sar    %cl,%edx
    3362:	89 d0                	mov    %edx,%eax
    3364:	eb 04                	jmp    336a <safe_rshift_func_int8_t_s_s+0x35>
    3366:	0f b6 45 fc          	movzbl -0x4(%rbp),%eax
    336a:	5d                   	pop    %rbp
    336b:	c3                   	retq   

000000000000336c <safe_rshift_func_int8_t_s_u>:
    336c:	f3 0f 1e fa          	endbr64 
    3370:	55                   	push   %rbp
    3371:	48 89 e5             	mov    %rsp,%rbp
    3374:	89 f8                	mov    %edi,%eax
    3376:	89 75 f8             	mov    %esi,-0x8(%rbp)
    3379:	88 45 fc             	mov    %al,-0x4(%rbp)
    337c:	80 7d fc 00          	cmpb   $0x0,-0x4(%rbp)
    3380:	78 15                	js     3397 <safe_rshift_func_int8_t_s_u+0x2b>
    3382:	83 7d f8 1f          	cmpl   $0x1f,-0x8(%rbp)
    3386:	77 0f                	ja     3397 <safe_rshift_func_int8_t_s_u+0x2b>
    3388:	0f be 55 fc          	movsbl -0x4(%rbp),%edx
    338c:	8b 45 f8             	mov    -0x8(%rbp),%eax
    338f:	89 c1                	mov    %eax,%ecx
    3391:	d3 fa                	sar    %cl,%edx
    3393:	89 d0                	mov    %edx,%eax
    3395:	eb 04                	jmp    339b <safe_rshift_func_int8_t_s_u+0x2f>
    3397:	0f b6 45 fc          	movzbl -0x4(%rbp),%eax
    339b:	5d                   	pop    %rbp
    339c:	c3                   	retq   

000000000000339d <safe_unary_minus_func_int16_t_s>:
    339d:	f3 0f 1e fa          	endbr64 
    33a1:	55                   	push   %rbp
    33a2:	48 89 e5             	mov    %rsp,%rbp
    33a5:	89 f8                	mov    %edi,%eax
    33a7:	66 89 45 fc          	mov    %ax,-0x4(%rbp)
    33ab:	0f b7 45 fc          	movzwl -0x4(%rbp),%eax
    33af:	f7 d8                	neg    %eax
    33b1:	5d                   	pop    %rbp
    33b2:	c3                   	retq   

00000000000033b3 <safe_add_func_int16_t_s_s>:
    33b3:	f3 0f 1e fa          	endbr64 
    33b7:	55                   	push   %rbp
    33b8:	48 89 e5             	mov    %rsp,%rbp
    33bb:	89 fa                	mov    %edi,%edx
    33bd:	89 f0                	mov    %esi,%eax
    33bf:	66 89 55 fc          	mov    %dx,-0x4(%rbp)
    33c3:	66 89 45 f8          	mov    %ax,-0x8(%rbp)
    33c7:	0f b7 55 fc          	movzwl -0x4(%rbp),%edx
    33cb:	0f b7 45 f8          	movzwl -0x8(%rbp),%eax
    33cf:	01 d0                	add    %edx,%eax
    33d1:	5d                   	pop    %rbp
    33d2:	c3                   	retq   

00000000000033d3 <safe_sub_func_int16_t_s_s>:
    33d3:	f3 0f 1e fa          	endbr64 
    33d7:	55                   	push   %rbp
    33d8:	48 89 e5             	mov    %rsp,%rbp
    33db:	89 fa                	mov    %edi,%edx
    33dd:	89 f0                	mov    %esi,%eax
    33df:	66 89 55 fc          	mov    %dx,-0x4(%rbp)
    33e3:	66 89 45 f8          	mov    %ax,-0x8(%rbp)
    33e7:	0f b7 55 fc          	movzwl -0x4(%rbp),%edx
    33eb:	0f b7 45 f8          	movzwl -0x8(%rbp),%eax
    33ef:	29 c2                	sub    %eax,%edx
    33f1:	89 d0                	mov    %edx,%eax
    33f3:	5d                   	pop    %rbp
    33f4:	c3                   	retq   

00000000000033f5 <safe_mul_func_int16_t_s_s>:
    33f5:	f3 0f 1e fa          	endbr64 
    33f9:	55                   	push   %rbp
    33fa:	48 89 e5             	mov    %rsp,%rbp
    33fd:	89 fa                	mov    %edi,%edx
    33ff:	89 f0                	mov    %esi,%eax
    3401:	66 89 55 fc          	mov    %dx,-0x4(%rbp)
    3405:	66 89 45 f8          	mov    %ax,-0x8(%rbp)
    3409:	0f b7 55 fc          	movzwl -0x4(%rbp),%edx
    340d:	0f b7 45 f8          	movzwl -0x8(%rbp),%eax
    3411:	0f af c2             	imul   %edx,%eax
    3414:	5d                   	pop    %rbp
    3415:	c3                   	retq   

0000000000003416 <safe_mod_func_int16_t_s_s>:
    3416:	f3 0f 1e fa          	endbr64 
    341a:	55                   	push   %rbp
    341b:	48 89 e5             	mov    %rsp,%rbp
    341e:	89 fa                	mov    %edi,%edx
    3420:	89 f0                	mov    %esi,%eax
    3422:	66 89 55 fc          	mov    %dx,-0x4(%rbp)
    3426:	66 89 45 f8          	mov    %ax,-0x8(%rbp)
    342a:	66 83 7d f8 00       	cmpw   $0x0,-0x8(%rbp)
    342f:	74 1e                	je     344f <safe_mod_func_int16_t_s_s+0x39>
    3431:	66 81 7d fc 00 80    	cmpw   $0x8000,-0x4(%rbp)
    3437:	75 07                	jne    3440 <safe_mod_func_int16_t_s_s+0x2a>
    3439:	66 83 7d f8 ff       	cmpw   $0xffff,-0x8(%rbp)
    343e:	74 0f                	je     344f <safe_mod_func_int16_t_s_s+0x39>
    3440:	0f bf 45 fc          	movswl -0x4(%rbp),%eax
    3444:	0f bf 4d f8          	movswl -0x8(%rbp),%ecx
    3448:	99                   	cltd   
    3449:	f7 f9                	idiv   %ecx
    344b:	89 d0                	mov    %edx,%eax
    344d:	eb 04                	jmp    3453 <safe_mod_func_int16_t_s_s+0x3d>
    344f:	0f b7 45 fc          	movzwl -0x4(%rbp),%eax
    3453:	5d                   	pop    %rbp
    3454:	c3                   	retq   

0000000000003455 <safe_div_func_int16_t_s_s>:
    3455:	f3 0f 1e fa          	endbr64 
    3459:	55                   	push   %rbp
    345a:	48 89 e5             	mov    %rsp,%rbp
    345d:	89 fa                	mov    %edi,%edx
    345f:	89 f0                	mov    %esi,%eax
    3461:	66 89 55 fc          	mov    %dx,-0x4(%rbp)
    3465:	66 89 45 f8          	mov    %ax,-0x8(%rbp)
    3469:	66 83 7d f8 00       	cmpw   $0x0,-0x8(%rbp)
    346e:	74 1c                	je     348c <safe_div_func_int16_t_s_s+0x37>
    3470:	66 81 7d fc 00 80    	cmpw   $0x8000,-0x4(%rbp)
    3476:	75 07                	jne    347f <safe_div_func_int16_t_s_s+0x2a>
    3478:	66 83 7d f8 ff       	cmpw   $0xffff,-0x8(%rbp)
    347d:	74 0d                	je     348c <safe_div_func_int16_t_s_s+0x37>
    347f:	0f bf 45 fc          	movswl -0x4(%rbp),%eax
    3483:	0f bf 4d f8          	movswl -0x8(%rbp),%ecx
    3487:	99                   	cltd   
    3488:	f7 f9                	idiv   %ecx
    348a:	eb 04                	jmp    3490 <safe_div_func_int16_t_s_s+0x3b>
    348c:	0f b7 45 fc          	movzwl -0x4(%rbp),%eax
    3490:	5d                   	pop    %rbp
    3491:	c3                   	retq   

0000000000003492 <safe_lshift_func_int16_t_s_s>:
    3492:	f3 0f 1e fa          	endbr64 
    3496:	55                   	push   %rbp
    3497:	48 89 e5             	mov    %rsp,%rbp
    349a:	89 f8                	mov    %edi,%eax
    349c:	89 75 f8             	mov    %esi,-0x8(%rbp)
    349f:	66 89 45 fc          	mov    %ax,-0x4(%rbp)
    34a3:	66 83 7d fc 00       	cmpw   $0x0,-0x4(%rbp)
    34a8:	78 31                	js     34db <safe_lshift_func_int16_t_s_s+0x49>
    34aa:	83 7d f8 00          	cmpl   $0x0,-0x8(%rbp)
    34ae:	78 2b                	js     34db <safe_lshift_func_int16_t_s_s+0x49>
    34b0:	83 7d f8 1f          	cmpl   $0x1f,-0x8(%rbp)
    34b4:	7f 25                	jg     34db <safe_lshift_func_int16_t_s_s+0x49>
    34b6:	0f bf 55 fc          	movswl -0x4(%rbp),%edx
    34ba:	8b 45 f8             	mov    -0x8(%rbp),%eax
    34bd:	be ff 7f 00 00       	mov    $0x7fff,%esi
    34c2:	89 c1                	mov    %eax,%ecx
    34c4:	d3 fe                	sar    %cl,%esi
    34c6:	89 f0                	mov    %esi,%eax
    34c8:	39 c2                	cmp    %eax,%edx
    34ca:	7f 0f                	jg     34db <safe_lshift_func_int16_t_s_s+0x49>
    34cc:	0f bf 55 fc          	movswl -0x4(%rbp),%edx
    34d0:	8b 45 f8             	mov    -0x8(%rbp),%eax
    34d3:	89 c1                	mov    %eax,%ecx
    34d5:	d3 e2                	shl    %cl,%edx
    34d7:	89 d0                	mov    %edx,%eax
    34d9:	eb 04                	jmp    34df <safe_lshift_func_int16_t_s_s+0x4d>
    34db:	0f b7 45 fc          	movzwl -0x4(%rbp),%eax
    34df:	5d                   	pop    %rbp
    34e0:	c3                   	retq   

00000000000034e1 <safe_lshift_func_int16_t_s_u>:
    34e1:	f3 0f 1e fa          	endbr64 
    34e5:	55                   	push   %rbp
    34e6:	48 89 e5             	mov    %rsp,%rbp
    34e9:	89 f8                	mov    %edi,%eax
    34eb:	89 75 f8             	mov    %esi,-0x8(%rbp)
    34ee:	66 89 45 fc          	mov    %ax,-0x4(%rbp)
    34f2:	66 83 7d fc 00       	cmpw   $0x0,-0x4(%rbp)
    34f7:	78 2b                	js     3524 <safe_lshift_func_int16_t_s_u+0x43>
    34f9:	83 7d f8 1f          	cmpl   $0x1f,-0x8(%rbp)
    34fd:	77 25                	ja     3524 <safe_lshift_func_int16_t_s_u+0x43>
    34ff:	0f bf 55 fc          	movswl -0x4(%rbp),%edx
    3503:	8b 45 f8             	mov    -0x8(%rbp),%eax
    3506:	be ff 7f 00 00       	mov    $0x7fff,%esi
    350b:	89 c1                	mov    %eax,%ecx
    350d:	d3 fe                	sar    %cl,%esi
    350f:	89 f0                	mov    %esi,%eax
    3511:	39 c2                	cmp    %eax,%edx
    3513:	7f 0f                	jg     3524 <safe_lshift_func_int16_t_s_u+0x43>
    3515:	0f bf 55 fc          	movswl -0x4(%rbp),%edx
    3519:	8b 45 f8             	mov    -0x8(%rbp),%eax
    351c:	89 c1                	mov    %eax,%ecx
    351e:	d3 e2                	shl    %cl,%edx
    3520:	89 d0                	mov    %edx,%eax
    3522:	eb 04                	jmp    3528 <safe_lshift_func_int16_t_s_u+0x47>
    3524:	0f b7 45 fc          	movzwl -0x4(%rbp),%eax
    3528:	5d                   	pop    %rbp
    3529:	c3                   	retq   

000000000000352a <safe_rshift_func_int16_t_s_s>:
    352a:	f3 0f 1e fa          	endbr64 
    352e:	55                   	push   %rbp
    352f:	48 89 e5             	mov    %rsp,%rbp
    3532:	89 f8                	mov    %edi,%eax
    3534:	89 75 f8             	mov    %esi,-0x8(%rbp)
    3537:	66 89 45 fc          	mov    %ax,-0x4(%rbp)
    353b:	66 83 7d fc 00       	cmpw   $0x0,-0x4(%rbp)
    3540:	78 1b                	js     355d <safe_rshift_func_int16_t_s_s+0x33>
    3542:	83 7d f8 00          	cmpl   $0x0,-0x8(%rbp)
    3546:	78 15                	js     355d <safe_rshift_func_int16_t_s_s+0x33>
    3548:	83 7d f8 1f          	cmpl   $0x1f,-0x8(%rbp)
    354c:	7f 0f                	jg     355d <safe_rshift_func_int16_t_s_s+0x33>
    354e:	0f bf 55 fc          	movswl -0x4(%rbp),%edx
    3552:	8b 45 f8             	mov    -0x8(%rbp),%eax
    3555:	89 c1                	mov    %eax,%ecx
    3557:	d3 fa                	sar    %cl,%edx
    3559:	89 d0                	mov    %edx,%eax
    355b:	eb 04                	jmp    3561 <safe_rshift_func_int16_t_s_s+0x37>
    355d:	0f b7 45 fc          	movzwl -0x4(%rbp),%eax
    3561:	5d                   	pop    %rbp
    3562:	c3                   	retq   

0000000000003563 <safe_rshift_func_int16_t_s_u>:
    3563:	f3 0f 1e fa          	endbr64 
    3567:	55                   	push   %rbp
    3568:	48 89 e5             	mov    %rsp,%rbp
    356b:	89 f8                	mov    %edi,%eax
    356d:	89 75 f8             	mov    %esi,-0x8(%rbp)
    3570:	66 89 45 fc          	mov    %ax,-0x4(%rbp)
    3574:	66 83 7d fc 00       	cmpw   $0x0,-0x4(%rbp)
    3579:	78 15                	js     3590 <safe_rshift_func_int16_t_s_u+0x2d>
    357b:	83 7d f8 1f          	cmpl   $0x1f,-0x8(%rbp)
    357f:	77 0f                	ja     3590 <safe_rshift_func_int16_t_s_u+0x2d>
    3581:	0f bf 55 fc          	movswl -0x4(%rbp),%edx
    3585:	8b 45 f8             	mov    -0x8(%rbp),%eax
    3588:	89 c1                	mov    %eax,%ecx
    358a:	d3 fa                	sar    %cl,%edx
    358c:	89 d0                	mov    %edx,%eax
    358e:	eb 04                	jmp    3594 <safe_rshift_func_int16_t_s_u+0x31>
    3590:	0f b7 45 fc          	movzwl -0x4(%rbp),%eax
    3594:	5d                   	pop    %rbp
    3595:	c3                   	retq   

0000000000003596 <safe_unary_minus_func_int32_t_s>:
    3596:	f3 0f 1e fa          	endbr64 
    359a:	55                   	push   %rbp
    359b:	48 89 e5             	mov    %rsp,%rbp
    359e:	89 7d fc             	mov    %edi,-0x4(%rbp)
    35a1:	81 7d fc 00 00 00 80 	cmpl   $0x80000000,-0x4(%rbp)
    35a8:	74 07                	je     35b1 <safe_unary_minus_func_int32_t_s+0x1b>
    35aa:	8b 45 fc             	mov    -0x4(%rbp),%eax
    35ad:	f7 d8                	neg    %eax
    35af:	eb 03                	jmp    35b4 <safe_unary_minus_func_int32_t_s+0x1e>
    35b1:	8b 45 fc             	mov    -0x4(%rbp),%eax
    35b4:	5d                   	pop    %rbp
    35b5:	c3                   	retq   

00000000000035b6 <safe_add_func_int32_t_s_s>:
    35b6:	f3 0f 1e fa          	endbr64 
    35ba:	55                   	push   %rbp
    35bb:	48 89 e5             	mov    %rsp,%rbp
    35be:	89 7d fc             	mov    %edi,-0x4(%rbp)
    35c1:	89 75 f8             	mov    %esi,-0x8(%rbp)
    35c4:	83 7d fc 00          	cmpl   $0x0,-0x4(%rbp)
    35c8:	7e 13                	jle    35dd <safe_add_func_int32_t_s_s+0x27>
    35ca:	83 7d f8 00          	cmpl   $0x0,-0x8(%rbp)
    35ce:	7e 0d                	jle    35dd <safe_add_func_int32_t_s_s+0x27>
    35d0:	b8 ff ff ff 7f       	mov    $0x7fffffff,%eax
    35d5:	2b 45 f8             	sub    -0x8(%rbp),%eax
    35d8:	39 45 fc             	cmp    %eax,-0x4(%rbp)
    35db:	7f 23                	jg     3600 <safe_add_func_int32_t_s_s+0x4a>
    35dd:	83 7d fc 00          	cmpl   $0x0,-0x4(%rbp)
    35e1:	79 13                	jns    35f6 <safe_add_func_int32_t_s_s+0x40>
    35e3:	83 7d f8 00          	cmpl   $0x0,-0x8(%rbp)
    35e7:	79 0d                	jns    35f6 <safe_add_func_int32_t_s_s+0x40>
    35e9:	b8 00 00 00 80       	mov    $0x80000000,%eax
    35ee:	2b 45 f8             	sub    -0x8(%rbp),%eax
    35f1:	39 45 fc             	cmp    %eax,-0x4(%rbp)
    35f4:	7c 0a                	jl     3600 <safe_add_func_int32_t_s_s+0x4a>
    35f6:	8b 55 fc             	mov    -0x4(%rbp),%edx
    35f9:	8b 45 f8             	mov    -0x8(%rbp),%eax
    35fc:	01 d0                	add    %edx,%eax
    35fe:	eb 03                	jmp    3603 <safe_add_func_int32_t_s_s+0x4d>
    3600:	8b 45 fc             	mov    -0x4(%rbp),%eax
    3603:	5d                   	pop    %rbp
    3604:	c3                   	retq   

0000000000003605 <safe_sub_func_int32_t_s_s>:
    3605:	f3 0f 1e fa          	endbr64 
    3609:	55                   	push   %rbp
    360a:	48 89 e5             	mov    %rsp,%rbp
    360d:	89 7d fc             	mov    %edi,-0x4(%rbp)
    3610:	89 75 f8             	mov    %esi,-0x8(%rbp)
    3613:	8b 45 fc             	mov    -0x4(%rbp),%eax
    3616:	33 45 f8             	xor    -0x8(%rbp),%eax
    3619:	89 c2                	mov    %eax,%edx
    361b:	8b 45 fc             	mov    -0x4(%rbp),%eax
    361e:	33 45 f8             	xor    -0x8(%rbp),%eax
    3621:	25 00 00 00 80       	and    $0x80000000,%eax
    3626:	33 45 fc             	xor    -0x4(%rbp),%eax
    3629:	2b 45 f8             	sub    -0x8(%rbp),%eax
    362c:	33 45 f8             	xor    -0x8(%rbp),%eax
    362f:	21 d0                	and    %edx,%eax
    3631:	85 c0                	test   %eax,%eax
    3633:	78 08                	js     363d <safe_sub_func_int32_t_s_s+0x38>
    3635:	8b 45 fc             	mov    -0x4(%rbp),%eax
    3638:	2b 45 f8             	sub    -0x8(%rbp),%eax
    363b:	eb 03                	jmp    3640 <safe_sub_func_int32_t_s_s+0x3b>
    363d:	8b 45 fc             	mov    -0x4(%rbp),%eax
    3640:	5d                   	pop    %rbp
    3641:	c3                   	retq   

0000000000003642 <safe_mul_func_int32_t_s_s>:
    3642:	f3 0f 1e fa          	endbr64 
    3646:	55                   	push   %rbp
    3647:	48 89 e5             	mov    %rsp,%rbp
    364a:	89 7d fc             	mov    %edi,-0x4(%rbp)
    364d:	89 75 f8             	mov    %esi,-0x8(%rbp)
    3650:	83 7d fc 00          	cmpl   $0x0,-0x4(%rbp)
    3654:	7e 14                	jle    366a <safe_mul_func_int32_t_s_s+0x28>
    3656:	83 7d f8 00          	cmpl   $0x0,-0x8(%rbp)
    365a:	7e 0e                	jle    366a <safe_mul_func_int32_t_s_s+0x28>
    365c:	b8 ff ff ff 7f       	mov    $0x7fffffff,%eax
    3661:	99                   	cltd   
    3662:	f7 7d f8             	idivl  -0x8(%rbp)
    3665:	39 45 fc             	cmp    %eax,-0x4(%rbp)
    3668:	7f 5d                	jg     36c7 <safe_mul_func_int32_t_s_s+0x85>
    366a:	83 7d fc 00          	cmpl   $0x0,-0x4(%rbp)
    366e:	7e 14                	jle    3684 <safe_mul_func_int32_t_s_s+0x42>
    3670:	83 7d f8 00          	cmpl   $0x0,-0x8(%rbp)
    3674:	7f 0e                	jg     3684 <safe_mul_func_int32_t_s_s+0x42>
    3676:	b8 00 00 00 80       	mov    $0x80000000,%eax
    367b:	99                   	cltd   
    367c:	f7 7d fc             	idivl  -0x4(%rbp)
    367f:	39 45 f8             	cmp    %eax,-0x8(%rbp)
    3682:	7c 43                	jl     36c7 <safe_mul_func_int32_t_s_s+0x85>
    3684:	83 7d fc 00          	cmpl   $0x0,-0x4(%rbp)
    3688:	7f 14                	jg     369e <safe_mul_func_int32_t_s_s+0x5c>
    368a:	83 7d f8 00          	cmpl   $0x0,-0x8(%rbp)
    368e:	7e 0e                	jle    369e <safe_mul_func_int32_t_s_s+0x5c>
    3690:	b8 00 00 00 80       	mov    $0x80000000,%eax
    3695:	99                   	cltd   
    3696:	f7 7d f8             	idivl  -0x8(%rbp)
    3699:	39 45 fc             	cmp    %eax,-0x4(%rbp)
    369c:	7c 29                	jl     36c7 <safe_mul_func_int32_t_s_s+0x85>
    369e:	83 7d fc 00          	cmpl   $0x0,-0x4(%rbp)
    36a2:	7f 1a                	jg     36be <safe_mul_func_int32_t_s_s+0x7c>
    36a4:	83 7d f8 00          	cmpl   $0x0,-0x8(%rbp)
    36a8:	7f 14                	jg     36be <safe_mul_func_int32_t_s_s+0x7c>
    36aa:	83 7d fc 00          	cmpl   $0x0,-0x4(%rbp)
    36ae:	74 0e                	je     36be <safe_mul_func_int32_t_s_s+0x7c>
    36b0:	b8 ff ff ff 7f       	mov    $0x7fffffff,%eax
    36b5:	99                   	cltd   
    36b6:	f7 7d fc             	idivl  -0x4(%rbp)
    36b9:	39 45 f8             	cmp    %eax,-0x8(%rbp)
    36bc:	7c 09                	jl     36c7 <safe_mul_func_int32_t_s_s+0x85>
    36be:	8b 45 fc             	mov    -0x4(%rbp),%eax
    36c1:	0f af 45 f8          	imul   -0x8(%rbp),%eax
    36c5:	eb 03                	jmp    36ca <safe_mul_func_int32_t_s_s+0x88>
    36c7:	8b 45 fc             	mov    -0x4(%rbp),%eax
    36ca:	5d                   	pop    %rbp
    36cb:	c3                   	retq   

00000000000036cc <safe_mod_func_int32_t_s_s>:
    36cc:	f3 0f 1e fa          	endbr64 
    36d0:	55                   	push   %rbp
    36d1:	48 89 e5             	mov    %rsp,%rbp
    36d4:	89 7d fc             	mov    %edi,-0x4(%rbp)
    36d7:	89 75 f8             	mov    %esi,-0x8(%rbp)
    36da:	83 7d f8 00          	cmpl   $0x0,-0x8(%rbp)
    36de:	74 1a                	je     36fa <safe_mod_func_int32_t_s_s+0x2e>
    36e0:	81 7d fc 00 00 00 80 	cmpl   $0x80000000,-0x4(%rbp)
    36e7:	75 06                	jne    36ef <safe_mod_func_int32_t_s_s+0x23>
    36e9:	83 7d f8 ff          	cmpl   $0xffffffff,-0x8(%rbp)
    36ed:	74 0b                	je     36fa <safe_mod_func_int32_t_s_s+0x2e>
    36ef:	8b 45 fc             	mov    -0x4(%rbp),%eax
    36f2:	99                   	cltd   
    36f3:	f7 7d f8             	idivl  -0x8(%rbp)
    36f6:	89 d0                	mov    %edx,%eax
    36f8:	eb 03                	jmp    36fd <safe_mod_func_int32_t_s_s+0x31>
    36fa:	8b 45 fc             	mov    -0x4(%rbp),%eax
    36fd:	5d                   	pop    %rbp
    36fe:	c3                   	retq   

00000000000036ff <safe_div_func_int32_t_s_s>:
    36ff:	f3 0f 1e fa          	endbr64 
    3703:	55                   	push   %rbp
    3704:	48 89 e5             	mov    %rsp,%rbp
    3707:	89 7d fc             	mov    %edi,-0x4(%rbp)
    370a:	89 75 f8             	mov    %esi,-0x8(%rbp)
    370d:	83 7d f8 00          	cmpl   $0x0,-0x8(%rbp)
    3711:	74 18                	je     372b <safe_div_func_int32_t_s_s+0x2c>
    3713:	81 7d fc 00 00 00 80 	cmpl   $0x80000000,-0x4(%rbp)
    371a:	75 06                	jne    3722 <safe_div_func_int32_t_s_s+0x23>
    371c:	83 7d f8 ff          	cmpl   $0xffffffff,-0x8(%rbp)
    3720:	74 09                	je     372b <safe_div_func_int32_t_s_s+0x2c>
    3722:	8b 45 fc             	mov    -0x4(%rbp),%eax
    3725:	99                   	cltd   
    3726:	f7 7d f8             	idivl  -0x8(%rbp)
    3729:	eb 03                	jmp    372e <safe_div_func_int32_t_s_s+0x2f>
    372b:	8b 45 fc             	mov    -0x4(%rbp),%eax
    372e:	5d                   	pop    %rbp
    372f:	c3                   	retq   

0000000000003730 <safe_lshift_func_int32_t_s_s>:
    3730:	f3 0f 1e fa          	endbr64 
    3734:	55                   	push   %rbp
    3735:	48 89 e5             	mov    %rsp,%rbp
    3738:	89 7d fc             	mov    %edi,-0x4(%rbp)
    373b:	89 75 f8             	mov    %esi,-0x8(%rbp)
    373e:	83 7d fc 00          	cmpl   $0x0,-0x4(%rbp)
    3742:	78 2d                	js     3771 <safe_lshift_func_int32_t_s_s+0x41>
    3744:	83 7d f8 00          	cmpl   $0x0,-0x8(%rbp)
    3748:	78 27                	js     3771 <safe_lshift_func_int32_t_s_s+0x41>
    374a:	83 7d f8 1f          	cmpl   $0x1f,-0x8(%rbp)
    374e:	7f 21                	jg     3771 <safe_lshift_func_int32_t_s_s+0x41>
    3750:	8b 45 f8             	mov    -0x8(%rbp),%eax
    3753:	ba ff ff ff 7f       	mov    $0x7fffffff,%edx
    3758:	89 c1                	mov    %eax,%ecx
    375a:	d3 fa                	sar    %cl,%edx
    375c:	89 d0                	mov    %edx,%eax
    375e:	39 45 fc             	cmp    %eax,-0x4(%rbp)
    3761:	7f 0e                	jg     3771 <safe_lshift_func_int32_t_s_s+0x41>
    3763:	8b 45 f8             	mov    -0x8(%rbp),%eax
    3766:	8b 55 fc             	mov    -0x4(%rbp),%edx
    3769:	89 c1                	mov    %eax,%ecx
    376b:	d3 e2                	shl    %cl,%edx
    376d:	89 d0                	mov    %edx,%eax
    376f:	eb 03                	jmp    3774 <safe_lshift_func_int32_t_s_s+0x44>
    3771:	8b 45 fc             	mov    -0x4(%rbp),%eax
    3774:	5d                   	pop    %rbp
    3775:	c3                   	retq   

0000000000003776 <safe_lshift_func_int32_t_s_u>:
    3776:	f3 0f 1e fa          	endbr64 
    377a:	55                   	push   %rbp
    377b:	48 89 e5             	mov    %rsp,%rbp
    377e:	89 7d fc             	mov    %edi,-0x4(%rbp)
    3781:	89 75 f8             	mov    %esi,-0x8(%rbp)
    3784:	83 7d fc 00          	cmpl   $0x0,-0x4(%rbp)
    3788:	78 27                	js     37b1 <safe_lshift_func_int32_t_s_u+0x3b>
    378a:	83 7d f8 1f          	cmpl   $0x1f,-0x8(%rbp)
    378e:	77 21                	ja     37b1 <safe_lshift_func_int32_t_s_u+0x3b>
    3790:	8b 45 f8             	mov    -0x8(%rbp),%eax
    3793:	ba ff ff ff 7f       	mov    $0x7fffffff,%edx
    3798:	89 c1                	mov    %eax,%ecx
    379a:	d3 fa                	sar    %cl,%edx
    379c:	89 d0                	mov    %edx,%eax
    379e:	39 45 fc             	cmp    %eax,-0x4(%rbp)
    37a1:	7f 0e                	jg     37b1 <safe_lshift_func_int32_t_s_u+0x3b>
    37a3:	8b 45 f8             	mov    -0x8(%rbp),%eax
    37a6:	8b 55 fc             	mov    -0x4(%rbp),%edx
    37a9:	89 c1                	mov    %eax,%ecx
    37ab:	d3 e2                	shl    %cl,%edx
    37ad:	89 d0                	mov    %edx,%eax
    37af:	eb 03                	jmp    37b4 <safe_lshift_func_int32_t_s_u+0x3e>
    37b1:	8b 45 fc             	mov    -0x4(%rbp),%eax
    37b4:	5d                   	pop    %rbp
    37b5:	c3                   	retq   

00000000000037b6 <safe_rshift_func_int32_t_s_s>:
    37b6:	f3 0f 1e fa          	endbr64 
    37ba:	55                   	push   %rbp
    37bb:	48 89 e5             	mov    %rsp,%rbp
    37be:	89 7d fc             	mov    %edi,-0x4(%rbp)
    37c1:	89 75 f8             	mov    %esi,-0x8(%rbp)
    37c4:	83 7d fc 00          	cmpl   $0x0,-0x4(%rbp)
    37c8:	78 1a                	js     37e4 <safe_rshift_func_int32_t_s_s+0x2e>
    37ca:	83 7d f8 00          	cmpl   $0x0,-0x8(%rbp)
    37ce:	78 14                	js     37e4 <safe_rshift_func_int32_t_s_s+0x2e>
    37d0:	83 7d f8 1f          	cmpl   $0x1f,-0x8(%rbp)
    37d4:	7f 0e                	jg     37e4 <safe_rshift_func_int32_t_s_s+0x2e>
    37d6:	8b 45 f8             	mov    -0x8(%rbp),%eax
    37d9:	8b 55 fc             	mov    -0x4(%rbp),%edx
    37dc:	89 c1                	mov    %eax,%ecx
    37de:	d3 fa                	sar    %cl,%edx
    37e0:	89 d0                	mov    %edx,%eax
    37e2:	eb 03                	jmp    37e7 <safe_rshift_func_int32_t_s_s+0x31>
    37e4:	8b 45 fc             	mov    -0x4(%rbp),%eax
    37e7:	5d                   	pop    %rbp
    37e8:	c3                   	retq   

00000000000037e9 <safe_rshift_func_int32_t_s_u>:
    37e9:	f3 0f 1e fa          	endbr64 
    37ed:	55                   	push   %rbp
    37ee:	48 89 e5             	mov    %rsp,%rbp
    37f1:	89 7d fc             	mov    %edi,-0x4(%rbp)
    37f4:	89 75 f8             	mov    %esi,-0x8(%rbp)
    37f7:	83 7d fc 00          	cmpl   $0x0,-0x4(%rbp)
    37fb:	78 14                	js     3811 <safe_rshift_func_int32_t_s_u+0x28>
    37fd:	83 7d f8 1f          	cmpl   $0x1f,-0x8(%rbp)
    3801:	77 0e                	ja     3811 <safe_rshift_func_int32_t_s_u+0x28>
    3803:	8b 45 f8             	mov    -0x8(%rbp),%eax
    3806:	8b 55 fc             	mov    -0x4(%rbp),%edx
    3809:	89 c1                	mov    %eax,%ecx
    380b:	d3 fa                	sar    %cl,%edx
    380d:	89 d0                	mov    %edx,%eax
    380f:	eb 03                	jmp    3814 <safe_rshift_func_int32_t_s_u+0x2b>
    3811:	8b 45 fc             	mov    -0x4(%rbp),%eax
    3814:	5d                   	pop    %rbp
    3815:	c3                   	retq   

0000000000003816 <safe_unary_minus_func_int64_t_s>:
    3816:	f3 0f 1e fa          	endbr64 
    381a:	55                   	push   %rbp
    381b:	48 89 e5             	mov    %rsp,%rbp
    381e:	48 89 7d f8          	mov    %rdi,-0x8(%rbp)
    3822:	48 b8 00 00 00 00 00 	movabs $0x8000000000000000,%rax
    3829:	00 00 80 
    382c:	48 39 45 f8          	cmp    %rax,-0x8(%rbp)
    3830:	74 09                	je     383b <safe_unary_minus_func_int64_t_s+0x25>
    3832:	48 8b 45 f8          	mov    -0x8(%rbp),%rax
    3836:	48 f7 d8             	neg    %rax
    3839:	eb 04                	jmp    383f <safe_unary_minus_func_int64_t_s+0x29>
    383b:	48 8b 45 f8          	mov    -0x8(%rbp),%rax
    383f:	5d                   	pop    %rbp
    3840:	c3                   	retq   

0000000000003841 <safe_add_func_int64_t_s_s>:
    3841:	f3 0f 1e fa          	endbr64 
    3845:	55                   	push   %rbp
    3846:	48 89 e5             	mov    %rsp,%rbp
    3849:	48 89 7d f8          	mov    %rdi,-0x8(%rbp)
    384d:	48 89 75 f0          	mov    %rsi,-0x10(%rbp)
    3851:	48 83 7d f8 00       	cmpq   $0x0,-0x8(%rbp)
    3856:	7e 1b                	jle    3873 <safe_add_func_int64_t_s_s+0x32>
    3858:	48 83 7d f0 00       	cmpq   $0x0,-0x10(%rbp)
    385d:	7e 14                	jle    3873 <safe_add_func_int64_t_s_s+0x32>
    385f:	48 b8 ff ff ff ff ff 	movabs $0x7fffffffffffffff,%rax
    3866:	ff ff 7f 
    3869:	48 2b 45 f0          	sub    -0x10(%rbp),%rax
    386d:	48 39 45 f8          	cmp    %rax,-0x8(%rbp)
    3871:	7f 2f                	jg     38a2 <safe_add_func_int64_t_s_s+0x61>
    3873:	48 83 7d f8 00       	cmpq   $0x0,-0x8(%rbp)
    3878:	79 1b                	jns    3895 <safe_add_func_int64_t_s_s+0x54>
    387a:	48 83 7d f0 00       	cmpq   $0x0,-0x10(%rbp)
    387f:	79 14                	jns    3895 <safe_add_func_int64_t_s_s+0x54>
    3881:	48 b8 00 00 00 00 00 	movabs $0x8000000000000000,%rax
    3888:	00 00 80 
    388b:	48 2b 45 f0          	sub    -0x10(%rbp),%rax
    388f:	48 39 45 f8          	cmp    %rax,-0x8(%rbp)
    3893:	7c 0d                	jl     38a2 <safe_add_func_int64_t_s_s+0x61>
    3895:	48 8b 55 f8          	mov    -0x8(%rbp),%rdx
    3899:	48 8b 45 f0          	mov    -0x10(%rbp),%rax
    389d:	48 01 d0             	add    %rdx,%rax
    38a0:	eb 04                	jmp    38a6 <safe_add_func_int64_t_s_s+0x65>
    38a2:	48 8b 45 f8          	mov    -0x8(%rbp),%rax
    38a6:	5d                   	pop    %rbp
    38a7:	c3                   	retq   

00000000000038a8 <safe_sub_func_int64_t_s_s>:
    38a8:	f3 0f 1e fa          	endbr64 
    38ac:	55                   	push   %rbp
    38ad:	48 89 e5             	mov    %rsp,%rbp
    38b0:	48 89 7d f8          	mov    %rdi,-0x8(%rbp)
    38b4:	48 89 75 f0          	mov    %rsi,-0x10(%rbp)
    38b8:	48 8b 45 f8          	mov    -0x8(%rbp),%rax
    38bc:	48 33 45 f0          	xor    -0x10(%rbp),%rax
    38c0:	48 89 c2             	mov    %rax,%rdx
    38c3:	48 8b 45 f8          	mov    -0x8(%rbp),%rax
    38c7:	48 33 45 f0          	xor    -0x10(%rbp),%rax
    38cb:	48 b9 00 00 00 00 00 	movabs $0x8000000000000000,%rcx
    38d2:	00 00 80 
    38d5:	48 21 c8             	and    %rcx,%rax
    38d8:	48 33 45 f8          	xor    -0x8(%rbp),%rax
    38dc:	48 2b 45 f0          	sub    -0x10(%rbp),%rax
    38e0:	48 33 45 f0          	xor    -0x10(%rbp),%rax
    38e4:	48 21 d0             	and    %rdx,%rax
    38e7:	48 85 c0             	test   %rax,%rax
    38ea:	78 0a                	js     38f6 <safe_sub_func_int64_t_s_s+0x4e>
    38ec:	48 8b 45 f8          	mov    -0x8(%rbp),%rax
    38f0:	48 2b 45 f0          	sub    -0x10(%rbp),%rax
    38f4:	eb 04                	jmp    38fa <safe_sub_func_int64_t_s_s+0x52>
    38f6:	48 8b 45 f8          	mov    -0x8(%rbp),%rax
    38fa:	5d                   	pop    %rbp
    38fb:	c3                   	retq   

00000000000038fc <safe_mul_func_int64_t_s_s>:
    38fc:	f3 0f 1e fa          	endbr64 
    3900:	55                   	push   %rbp
    3901:	48 89 e5             	mov    %rsp,%rbp
    3904:	48 89 7d f8          	mov    %rdi,-0x8(%rbp)
    3908:	48 89 75 f0          	mov    %rsi,-0x10(%rbp)
    390c:	48 83 7d f8 00       	cmpq   $0x0,-0x8(%rbp)
    3911:	7e 1d                	jle    3930 <safe_mul_func_int64_t_s_s+0x34>
    3913:	48 83 7d f0 00       	cmpq   $0x0,-0x10(%rbp)
    3918:	7e 16                	jle    3930 <safe_mul_func_int64_t_s_s+0x34>
    391a:	48 b8 ff ff ff ff ff 	movabs $0x7fffffffffffffff,%rax
    3921:	ff ff 7f 
    3924:	48 99                	cqto   
    3926:	48 f7 7d f0          	idivq  -0x10(%rbp)
    392a:	48 39 45 f8          	cmp    %rax,-0x8(%rbp)
    392e:	7f 7e                	jg     39ae <safe_mul_func_int64_t_s_s+0xb2>
    3930:	48 83 7d f8 00       	cmpq   $0x0,-0x8(%rbp)
    3935:	7e 1d                	jle    3954 <safe_mul_func_int64_t_s_s+0x58>
    3937:	48 83 7d f0 00       	cmpq   $0x0,-0x10(%rbp)
    393c:	7f 16                	jg     3954 <safe_mul_func_int64_t_s_s+0x58>
    393e:	48 b8 00 00 00 00 00 	movabs $0x8000000000000000,%rax
    3945:	00 00 80 
    3948:	48 99                	cqto   
    394a:	48 f7 7d f8          	idivq  -0x8(%rbp)
    394e:	48 39 45 f0          	cmp    %rax,-0x10(%rbp)
    3952:	7c 5a                	jl     39ae <safe_mul_func_int64_t_s_s+0xb2>
    3954:	48 83 7d f8 00       	cmpq   $0x0,-0x8(%rbp)
    3959:	7f 1d                	jg     3978 <safe_mul_func_int64_t_s_s+0x7c>
    395b:	48 83 7d f0 00       	cmpq   $0x0,-0x10(%rbp)
    3960:	7e 16                	jle    3978 <safe_mul_func_int64_t_s_s+0x7c>
    3962:	48 b8 00 00 00 00 00 	movabs $0x8000000000000000,%rax
    3969:	00 00 80 
    396c:	48 99                	cqto   
    396e:	48 f7 7d f0          	idivq  -0x10(%rbp)
    3972:	48 39 45 f8          	cmp    %rax,-0x8(%rbp)
    3976:	7c 36                	jl     39ae <safe_mul_func_int64_t_s_s+0xb2>
    3978:	48 83 7d f8 00       	cmpq   $0x0,-0x8(%rbp)
    397d:	7f 24                	jg     39a3 <safe_mul_func_int64_t_s_s+0xa7>
    397f:	48 83 7d f0 00       	cmpq   $0x0,-0x10(%rbp)
    3984:	7f 1d                	jg     39a3 <safe_mul_func_int64_t_s_s+0xa7>
    3986:	48 83 7d f8 00       	cmpq   $0x0,-0x8(%rbp)
    398b:	74 16                	je     39a3 <safe_mul_func_int64_t_s_s+0xa7>
    398d:	48 b8 ff ff ff ff ff 	movabs $0x7fffffffffffffff,%rax
    3994:	ff ff 7f 
    3997:	48 99                	cqto   
    3999:	48 f7 7d f8          	idivq  -0x8(%rbp)
    399d:	48 39 45 f0          	cmp    %rax,-0x10(%rbp)
    39a1:	7c 0b                	jl     39ae <safe_mul_func_int64_t_s_s+0xb2>
    39a3:	48 8b 45 f8          	mov    -0x8(%rbp),%rax
    39a7:	48 0f af 45 f0       	imul   -0x10(%rbp),%rax
    39ac:	eb 04                	jmp    39b2 <safe_mul_func_int64_t_s_s+0xb6>
    39ae:	48 8b 45 f8          	mov    -0x8(%rbp),%rax
    39b2:	5d                   	pop    %rbp
    39b3:	c3                   	retq   

00000000000039b4 <safe_mod_func_int64_t_s_s>:
    39b4:	f3 0f 1e fa          	endbr64 
    39b8:	55                   	push   %rbp
    39b9:	48 89 e5             	mov    %rsp,%rbp
    39bc:	48 89 7d f8          	mov    %rdi,-0x8(%rbp)
    39c0:	48 89 75 f0          	mov    %rsi,-0x10(%rbp)
    39c4:	48 83 7d f0 00       	cmpq   $0x0,-0x10(%rbp)
    39c9:	74 26                	je     39f1 <safe_mod_func_int64_t_s_s+0x3d>
    39cb:	48 b8 00 00 00 00 00 	movabs $0x8000000000000000,%rax
    39d2:	00 00 80 
    39d5:	48 39 45 f8          	cmp    %rax,-0x8(%rbp)
    39d9:	75 07                	jne    39e2 <safe_mod_func_int64_t_s_s+0x2e>
    39db:	48 83 7d f0 ff       	cmpq   $0xffffffffffffffff,-0x10(%rbp)
    39e0:	74 0f                	je     39f1 <safe_mod_func_int64_t_s_s+0x3d>
    39e2:	48 8b 45 f8          	mov    -0x8(%rbp),%rax
    39e6:	48 99                	cqto   
    39e8:	48 f7 7d f0          	idivq  -0x10(%rbp)
    39ec:	48 89 d0             	mov    %rdx,%rax
    39ef:	eb 04                	jmp    39f5 <safe_mod_func_int64_t_s_s+0x41>
    39f1:	48 8b 45 f8          	mov    -0x8(%rbp),%rax
    39f5:	5d                   	pop    %rbp
    39f6:	c3                   	retq   

00000000000039f7 <safe_div_func_int64_t_s_s>:
    39f7:	f3 0f 1e fa          	endbr64 
    39fb:	55                   	push   %rbp
    39fc:	48 89 e5             	mov    %rsp,%rbp
    39ff:	48 89 7d f8          	mov    %rdi,-0x8(%rbp)
    3a03:	48 89 75 f0          	mov    %rsi,-0x10(%rbp)
    3a07:	48 83 7d f0 00       	cmpq   $0x0,-0x10(%rbp)
    3a0c:	74 23                	je     3a31 <safe_div_func_int64_t_s_s+0x3a>
    3a0e:	48 b8 00 00 00 00 00 	movabs $0x8000000000000000,%rax
    3a15:	00 00 80 
    3a18:	48 39 45 f8          	cmp    %rax,-0x8(%rbp)
    3a1c:	75 07                	jne    3a25 <safe_div_func_int64_t_s_s+0x2e>
    3a1e:	48 83 7d f0 ff       	cmpq   $0xffffffffffffffff,-0x10(%rbp)
    3a23:	74 0c                	je     3a31 <safe_div_func_int64_t_s_s+0x3a>
    3a25:	48 8b 45 f8          	mov    -0x8(%rbp),%rax
    3a29:	48 99                	cqto   
    3a2b:	48 f7 7d f0          	idivq  -0x10(%rbp)
    3a2f:	eb 04                	jmp    3a35 <safe_div_func_int64_t_s_s+0x3e>
    3a31:	48 8b 45 f8          	mov    -0x8(%rbp),%rax
    3a35:	5d                   	pop    %rbp
    3a36:	c3                   	retq   

0000000000003a37 <safe_lshift_func_int64_t_s_s>:
    3a37:	f3 0f 1e fa          	endbr64 
    3a3b:	55                   	push   %rbp
    3a3c:	48 89 e5             	mov    %rsp,%rbp
    3a3f:	48 89 7d f8          	mov    %rdi,-0x8(%rbp)
    3a43:	89 75 f4             	mov    %esi,-0xc(%rbp)
    3a46:	48 83 7d f8 00       	cmpq   $0x0,-0x8(%rbp)
    3a4b:	78 38                	js     3a85 <safe_lshift_func_int64_t_s_s+0x4e>
    3a4d:	83 7d f4 00          	cmpl   $0x0,-0xc(%rbp)
    3a51:	78 32                	js     3a85 <safe_lshift_func_int64_t_s_s+0x4e>
    3a53:	83 7d f4 1f          	cmpl   $0x1f,-0xc(%rbp)
    3a57:	7f 2c                	jg     3a85 <safe_lshift_func_int64_t_s_s+0x4e>
    3a59:	8b 45 f4             	mov    -0xc(%rbp),%eax
    3a5c:	48 ba ff ff ff ff ff 	movabs $0x7fffffffffffffff,%rdx
    3a63:	ff ff 7f 
    3a66:	89 c1                	mov    %eax,%ecx
    3a68:	48 d3 fa             	sar    %cl,%rdx
    3a6b:	48 89 d0             	mov    %rdx,%rax
    3a6e:	48 39 45 f8          	cmp    %rax,-0x8(%rbp)
    3a72:	7f 11                	jg     3a85 <safe_lshift_func_int64_t_s_s+0x4e>
    3a74:	8b 45 f4             	mov    -0xc(%rbp),%eax
    3a77:	48 8b 55 f8          	mov    -0x8(%rbp),%rdx
    3a7b:	89 c1                	mov    %eax,%ecx
    3a7d:	48 d3 e2             	shl    %cl,%rdx
    3a80:	48 89 d0             	mov    %rdx,%rax
    3a83:	eb 04                	jmp    3a89 <safe_lshift_func_int64_t_s_s+0x52>
    3a85:	48 8b 45 f8          	mov    -0x8(%rbp),%rax
    3a89:	5d                   	pop    %rbp
    3a8a:	c3                   	retq   

0000000000003a8b <safe_lshift_func_int64_t_s_u>:
    3a8b:	f3 0f 1e fa          	endbr64 
    3a8f:	55                   	push   %rbp
    3a90:	48 89 e5             	mov    %rsp,%rbp
    3a93:	48 89 7d f8          	mov    %rdi,-0x8(%rbp)
    3a97:	89 75 f4             	mov    %esi,-0xc(%rbp)
    3a9a:	48 83 7d f8 00       	cmpq   $0x0,-0x8(%rbp)
    3a9f:	78 32                	js     3ad3 <safe_lshift_func_int64_t_s_u+0x48>
    3aa1:	83 7d f4 1f          	cmpl   $0x1f,-0xc(%rbp)
    3aa5:	77 2c                	ja     3ad3 <safe_lshift_func_int64_t_s_u+0x48>
    3aa7:	8b 45 f4             	mov    -0xc(%rbp),%eax
    3aaa:	48 ba ff ff ff ff ff 	movabs $0x7fffffffffffffff,%rdx
    3ab1:	ff ff 7f 
    3ab4:	89 c1                	mov    %eax,%ecx
    3ab6:	48 d3 fa             	sar    %cl,%rdx
    3ab9:	48 89 d0             	mov    %rdx,%rax
    3abc:	48 39 45 f8          	cmp    %rax,-0x8(%rbp)
    3ac0:	7f 11                	jg     3ad3 <safe_lshift_func_int64_t_s_u+0x48>
    3ac2:	8b 45 f4             	mov    -0xc(%rbp),%eax
    3ac5:	48 8b 55 f8          	mov    -0x8(%rbp),%rdx
    3ac9:	89 c1                	mov    %eax,%ecx
    3acb:	48 d3 e2             	shl    %cl,%rdx
    3ace:	48 89 d0             	mov    %rdx,%rax
    3ad1:	eb 04                	jmp    3ad7 <safe_lshift_func_int64_t_s_u+0x4c>
    3ad3:	48 8b 45 f8          	mov    -0x8(%rbp),%rax
    3ad7:	5d                   	pop    %rbp
    3ad8:	c3                   	retq   

0000000000003ad9 <safe_rshift_func_int64_t_s_s>:
    3ad9:	f3 0f 1e fa          	endbr64 
    3add:	55                   	push   %rbp
    3ade:	48 89 e5             	mov    %rsp,%rbp
    3ae1:	48 89 7d f8          	mov    %rdi,-0x8(%rbp)
    3ae5:	89 75 f4             	mov    %esi,-0xc(%rbp)
    3ae8:	48 83 7d f8 00       	cmpq   $0x0,-0x8(%rbp)
    3aed:	78 1d                	js     3b0c <safe_rshift_func_int64_t_s_s+0x33>
    3aef:	83 7d f4 00          	cmpl   $0x0,-0xc(%rbp)
    3af3:	78 17                	js     3b0c <safe_rshift_func_int64_t_s_s+0x33>
    3af5:	83 7d f4 1f          	cmpl   $0x1f,-0xc(%rbp)
    3af9:	7f 11                	jg     3b0c <safe_rshift_func_int64_t_s_s+0x33>
    3afb:	8b 45 f4             	mov    -0xc(%rbp),%eax
    3afe:	48 8b 55 f8          	mov    -0x8(%rbp),%rdx
    3b02:	89 c1                	mov    %eax,%ecx
    3b04:	48 d3 fa             	sar    %cl,%rdx
    3b07:	48 89 d0             	mov    %rdx,%rax
    3b0a:	eb 04                	jmp    3b10 <safe_rshift_func_int64_t_s_s+0x37>
    3b0c:	48 8b 45 f8          	mov    -0x8(%rbp),%rax
    3b10:	5d                   	pop    %rbp
    3b11:	c3                   	retq   

0000000000003b12 <safe_rshift_func_int64_t_s_u>:
    3b12:	f3 0f 1e fa          	endbr64 
    3b16:	55                   	push   %rbp
    3b17:	48 89 e5             	mov    %rsp,%rbp
    3b1a:	48 89 7d f8          	mov    %rdi,-0x8(%rbp)
    3b1e:	89 75 f4             	mov    %esi,-0xc(%rbp)
    3b21:	48 83 7d f8 00       	cmpq   $0x0,-0x8(%rbp)
    3b26:	78 17                	js     3b3f <safe_rshift_func_int64_t_s_u+0x2d>
    3b28:	83 7d f4 1f          	cmpl   $0x1f,-0xc(%rbp)
    3b2c:	77 11                	ja     3b3f <safe_rshift_func_int64_t_s_u+0x2d>
    3b2e:	8b 45 f4             	mov    -0xc(%rbp),%eax
    3b31:	48 8b 55 f8          	mov    -0x8(%rbp),%rdx
    3b35:	89 c1                	mov    %eax,%ecx
    3b37:	48 d3 fa             	sar    %cl,%rdx
    3b3a:	48 89 d0             	mov    %rdx,%rax
    3b3d:	eb 04                	jmp    3b43 <safe_rshift_func_int64_t_s_u+0x31>
    3b3f:	48 8b 45 f8          	mov    -0x8(%rbp),%rax
    3b43:	5d                   	pop    %rbp
    3b44:	c3                   	retq   

0000000000003b45 <safe_unary_minus_func_uint8_t_u>:
    3b45:	f3 0f 1e fa          	endbr64 
    3b49:	55                   	push   %rbp
    3b4a:	48 89 e5             	mov    %rsp,%rbp
    3b4d:	89 f8                	mov    %edi,%eax
    3b4f:	88 45 fc             	mov    %al,-0x4(%rbp)
    3b52:	0f b6 45 fc          	movzbl -0x4(%rbp),%eax
    3b56:	f7 d8                	neg    %eax
    3b58:	5d                   	pop    %rbp
    3b59:	c3                   	retq   

0000000000003b5a <safe_add_func_uint8_t_u_u>:
    3b5a:	f3 0f 1e fa          	endbr64 
    3b5e:	55                   	push   %rbp
    3b5f:	48 89 e5             	mov    %rsp,%rbp
    3b62:	89 fa                	mov    %edi,%edx
    3b64:	89 f0                	mov    %esi,%eax
    3b66:	88 55 fc             	mov    %dl,-0x4(%rbp)
    3b69:	88 45 f8             	mov    %al,-0x8(%rbp)
    3b6c:	0f b6 55 fc          	movzbl -0x4(%rbp),%edx
    3b70:	0f b6 45 f8          	movzbl -0x8(%rbp),%eax
    3b74:	01 d0                	add    %edx,%eax
    3b76:	5d                   	pop    %rbp
    3b77:	c3                   	retq   

0000000000003b78 <safe_sub_func_uint8_t_u_u>:
    3b78:	f3 0f 1e fa          	endbr64 
    3b7c:	55                   	push   %rbp
    3b7d:	48 89 e5             	mov    %rsp,%rbp
    3b80:	89 fa                	mov    %edi,%edx
    3b82:	89 f0                	mov    %esi,%eax
    3b84:	88 55 fc             	mov    %dl,-0x4(%rbp)
    3b87:	88 45 f8             	mov    %al,-0x8(%rbp)
    3b8a:	0f b6 45 fc          	movzbl -0x4(%rbp),%eax
    3b8e:	2a 45 f8             	sub    -0x8(%rbp),%al
    3b91:	5d                   	pop    %rbp
    3b92:	c3                   	retq   

0000000000003b93 <safe_mul_func_uint8_t_u_u>:
    3b93:	f3 0f 1e fa          	endbr64 
    3b97:	55                   	push   %rbp
    3b98:	48 89 e5             	mov    %rsp,%rbp
    3b9b:	89 fa                	mov    %edi,%edx
    3b9d:	89 f0                	mov    %esi,%eax
    3b9f:	88 55 fc             	mov    %dl,-0x4(%rbp)
    3ba2:	88 45 f8             	mov    %al,-0x8(%rbp)
    3ba5:	0f b6 45 fc          	movzbl -0x4(%rbp),%eax
    3ba9:	f6 65 f8             	mulb   -0x8(%rbp)
    3bac:	5d                   	pop    %rbp
    3bad:	c3                   	retq   

0000000000003bae <safe_mod_func_uint8_t_u_u>:
    3bae:	f3 0f 1e fa          	endbr64 
    3bb2:	55                   	push   %rbp
    3bb3:	48 89 e5             	mov    %rsp,%rbp
    3bb6:	89 fa                	mov    %edi,%edx
    3bb8:	89 f0                	mov    %esi,%eax
    3bba:	88 55 fc             	mov    %dl,-0x4(%rbp)
    3bbd:	88 45 f8             	mov    %al,-0x8(%rbp)
    3bc0:	80 7d f8 00          	cmpb   $0x0,-0x8(%rbp)
    3bc4:	74 0f                	je     3bd5 <safe_mod_func_uint8_t_u_u+0x27>
    3bc6:	0f b6 45 fc          	movzbl -0x4(%rbp),%eax
    3bca:	0f b6 c0             	movzbl %al,%eax
    3bcd:	f6 75 f8             	divb   -0x8(%rbp)
    3bd0:	0f b6 c4             	movzbl %ah,%eax
    3bd3:	eb 04                	jmp    3bd9 <safe_mod_func_uint8_t_u_u+0x2b>
    3bd5:	0f b6 45 fc          	movzbl -0x4(%rbp),%eax
    3bd9:	5d                   	pop    %rbp
    3bda:	c3                   	retq   

0000000000003bdb <safe_div_func_uint8_t_u_u>:
    3bdb:	f3 0f 1e fa          	endbr64 
    3bdf:	55                   	push   %rbp
    3be0:	48 89 e5             	mov    %rsp,%rbp
    3be3:	89 fa                	mov    %edi,%edx
    3be5:	89 f0                	mov    %esi,%eax
    3be7:	88 55 fc             	mov    %dl,-0x4(%rbp)
    3bea:	88 45 f8             	mov    %al,-0x8(%rbp)
    3bed:	80 7d f8 00          	cmpb   $0x0,-0x8(%rbp)
    3bf1:	74 0c                	je     3bff <safe_div_func_uint8_t_u_u+0x24>
    3bf3:	0f b6 45 fc          	movzbl -0x4(%rbp),%eax
    3bf7:	0f b6 c0             	movzbl %al,%eax
    3bfa:	f6 75 f8             	divb   -0x8(%rbp)
    3bfd:	eb 04                	jmp    3c03 <safe_div_func_uint8_t_u_u+0x28>
    3bff:	0f b6 45 fc          	movzbl -0x4(%rbp),%eax
    3c03:	5d                   	pop    %rbp
    3c04:	c3                   	retq   

0000000000003c05 <safe_lshift_func_uint8_t_u_s>:
    3c05:	f3 0f 1e fa          	endbr64 
    3c09:	55                   	push   %rbp
    3c0a:	48 89 e5             	mov    %rsp,%rbp
    3c0d:	89 f8                	mov    %edi,%eax
    3c0f:	89 75 f8             	mov    %esi,-0x8(%rbp)
    3c12:	88 45 fc             	mov    %al,-0x4(%rbp)
    3c15:	83 7d f8 00          	cmpl   $0x0,-0x8(%rbp)
    3c19:	78 2b                	js     3c46 <safe_lshift_func_uint8_t_u_s+0x41>
    3c1b:	83 7d f8 1f          	cmpl   $0x1f,-0x8(%rbp)
    3c1f:	7f 25                	jg     3c46 <safe_lshift_func_uint8_t_u_s+0x41>
    3c21:	0f b6 55 fc          	movzbl -0x4(%rbp),%edx
    3c25:	8b 45 f8             	mov    -0x8(%rbp),%eax
    3c28:	be ff 00 00 00       	mov    $0xff,%esi
    3c2d:	89 c1                	mov    %eax,%ecx
    3c2f:	d3 fe                	sar    %cl,%esi
    3c31:	89 f0                	mov    %esi,%eax
    3c33:	39 c2                	cmp    %eax,%edx
    3c35:	7f 0f                	jg     3c46 <safe_lshift_func_uint8_t_u_s+0x41>
    3c37:	0f b6 55 fc          	movzbl -0x4(%rbp),%edx
    3c3b:	8b 45 f8             	mov    -0x8(%rbp),%eax
    3c3e:	89 c1                	mov    %eax,%ecx
    3c40:	d3 e2                	shl    %cl,%edx
    3c42:	89 d0                	mov    %edx,%eax
    3c44:	eb 04                	jmp    3c4a <safe_lshift_func_uint8_t_u_s+0x45>
    3c46:	0f b6 45 fc          	movzbl -0x4(%rbp),%eax
    3c4a:	5d                   	pop    %rbp
    3c4b:	c3                   	retq   

0000000000003c4c <safe_lshift_func_uint8_t_u_u>:
    3c4c:	f3 0f 1e fa          	endbr64 
    3c50:	55                   	push   %rbp
    3c51:	48 89 e5             	mov    %rsp,%rbp
    3c54:	89 f8                	mov    %edi,%eax
    3c56:	89 75 f8             	mov    %esi,-0x8(%rbp)
    3c59:	88 45 fc             	mov    %al,-0x4(%rbp)
    3c5c:	83 7d f8 1f          	cmpl   $0x1f,-0x8(%rbp)
    3c60:	77 25                	ja     3c87 <safe_lshift_func_uint8_t_u_u+0x3b>
    3c62:	0f b6 55 fc          	movzbl -0x4(%rbp),%edx
    3c66:	8b 45 f8             	mov    -0x8(%rbp),%eax
    3c69:	be ff 00 00 00       	mov    $0xff,%esi
    3c6e:	89 c1                	mov    %eax,%ecx
    3c70:	d3 fe                	sar    %cl,%esi
    3c72:	89 f0                	mov    %esi,%eax
    3c74:	39 c2                	cmp    %eax,%edx
    3c76:	7f 0f                	jg     3c87 <safe_lshift_func_uint8_t_u_u+0x3b>
    3c78:	0f b6 55 fc          	movzbl -0x4(%rbp),%edx
    3c7c:	8b 45 f8             	mov    -0x8(%rbp),%eax
    3c7f:	89 c1                	mov    %eax,%ecx
    3c81:	d3 e2                	shl    %cl,%edx
    3c83:	89 d0                	mov    %edx,%eax
    3c85:	eb 04                	jmp    3c8b <safe_lshift_func_uint8_t_u_u+0x3f>
    3c87:	0f b6 45 fc          	movzbl -0x4(%rbp),%eax
    3c8b:	5d                   	pop    %rbp
    3c8c:	c3                   	retq   

0000000000003c8d <safe_rshift_func_uint8_t_u_s>:
    3c8d:	f3 0f 1e fa          	endbr64 
    3c91:	55                   	push   %rbp
    3c92:	48 89 e5             	mov    %rsp,%rbp
    3c95:	89 f8                	mov    %edi,%eax
    3c97:	89 75 f8             	mov    %esi,-0x8(%rbp)
    3c9a:	88 45 fc             	mov    %al,-0x4(%rbp)
    3c9d:	83 7d f8 00          	cmpl   $0x0,-0x8(%rbp)
    3ca1:	78 15                	js     3cb8 <safe_rshift_func_uint8_t_u_s+0x2b>
    3ca3:	83 7d f8 1f          	cmpl   $0x1f,-0x8(%rbp)
    3ca7:	7f 0f                	jg     3cb8 <safe_rshift_func_uint8_t_u_s+0x2b>
    3ca9:	0f b6 55 fc          	movzbl -0x4(%rbp),%edx
    3cad:	8b 45 f8             	mov    -0x8(%rbp),%eax
    3cb0:	89 c1                	mov    %eax,%ecx
    3cb2:	d3 fa                	sar    %cl,%edx
    3cb4:	89 d0                	mov    %edx,%eax
    3cb6:	eb 04                	jmp    3cbc <safe_rshift_func_uint8_t_u_s+0x2f>
    3cb8:	0f b6 45 fc          	movzbl -0x4(%rbp),%eax
    3cbc:	5d                   	pop    %rbp
    3cbd:	c3                   	retq   

0000000000003cbe <safe_rshift_func_uint8_t_u_u>:
    3cbe:	f3 0f 1e fa          	endbr64 
    3cc2:	55                   	push   %rbp
    3cc3:	48 89 e5             	mov    %rsp,%rbp
    3cc6:	89 f8                	mov    %edi,%eax
    3cc8:	89 75 f8             	mov    %esi,-0x8(%rbp)
    3ccb:	88 45 fc             	mov    %al,-0x4(%rbp)
    3cce:	83 7d f8 1f          	cmpl   $0x1f,-0x8(%rbp)
    3cd2:	77 0f                	ja     3ce3 <safe_rshift_func_uint8_t_u_u+0x25>
    3cd4:	0f b6 55 fc          	movzbl -0x4(%rbp),%edx
    3cd8:	8b 45 f8             	mov    -0x8(%rbp),%eax
    3cdb:	89 c1                	mov    %eax,%ecx
    3cdd:	d3 fa                	sar    %cl,%edx
    3cdf:	89 d0                	mov    %edx,%eax
    3ce1:	eb 04                	jmp    3ce7 <safe_rshift_func_uint8_t_u_u+0x29>
    3ce3:	0f b6 45 fc          	movzbl -0x4(%rbp),%eax
    3ce7:	5d                   	pop    %rbp
    3ce8:	c3                   	retq   

0000000000003ce9 <safe_unary_minus_func_uint16_t_u>:
    3ce9:	f3 0f 1e fa          	endbr64 
    3ced:	55                   	push   %rbp
    3cee:	48 89 e5             	mov    %rsp,%rbp
    3cf1:	89 f8                	mov    %edi,%eax
    3cf3:	66 89 45 fc          	mov    %ax,-0x4(%rbp)
    3cf7:	0f b7 45 fc          	movzwl -0x4(%rbp),%eax
    3cfb:	f7 d8                	neg    %eax
    3cfd:	5d                   	pop    %rbp
    3cfe:	c3                   	retq   

0000000000003cff <safe_add_func_uint16_t_u_u>:
    3cff:	f3 0f 1e fa          	endbr64 
    3d03:	55                   	push   %rbp
    3d04:	48 89 e5             	mov    %rsp,%rbp
    3d07:	89 fa                	mov    %edi,%edx
    3d09:	89 f0                	mov    %esi,%eax
    3d0b:	66 89 55 fc          	mov    %dx,-0x4(%rbp)
    3d0f:	66 89 45 f8          	mov    %ax,-0x8(%rbp)
    3d13:	0f b7 55 fc          	movzwl -0x4(%rbp),%edx
    3d17:	0f b7 45 f8          	movzwl -0x8(%rbp),%eax
    3d1b:	01 d0                	add    %edx,%eax
    3d1d:	5d                   	pop    %rbp
    3d1e:	c3                   	retq   

0000000000003d1f <safe_sub_func_uint16_t_u_u>:
    3d1f:	f3 0f 1e fa          	endbr64 
    3d23:	55                   	push   %rbp
    3d24:	48 89 e5             	mov    %rsp,%rbp
    3d27:	89 fa                	mov    %edi,%edx
    3d29:	89 f0                	mov    %esi,%eax
    3d2b:	66 89 55 fc          	mov    %dx,-0x4(%rbp)
    3d2f:	66 89 45 f8          	mov    %ax,-0x8(%rbp)
    3d33:	0f b7 45 fc          	movzwl -0x4(%rbp),%eax
    3d37:	66 2b 45 f8          	sub    -0x8(%rbp),%ax
    3d3b:	5d                   	pop    %rbp
    3d3c:	c3                   	retq   

0000000000003d3d <safe_mul_func_uint16_t_u_u>:
    3d3d:	f3 0f 1e fa          	endbr64 
    3d41:	55                   	push   %rbp
    3d42:	48 89 e5             	mov    %rsp,%rbp
    3d45:	89 fa                	mov    %edi,%edx
    3d47:	89 f0                	mov    %esi,%eax
    3d49:	66 89 55 fc          	mov    %dx,-0x4(%rbp)
    3d4d:	66 89 45 f8          	mov    %ax,-0x8(%rbp)
    3d51:	0f b7 45 fc          	movzwl -0x4(%rbp),%eax
    3d55:	66 0f af 45 f8       	imul   -0x8(%rbp),%ax
    3d5a:	5d                   	pop    %rbp
    3d5b:	c3                   	retq   

0000000000003d5c <safe_mod_func_uint16_t_u_u>:
    3d5c:	f3 0f 1e fa          	endbr64 
    3d60:	55                   	push   %rbp
    3d61:	48 89 e5             	mov    %rsp,%rbp
    3d64:	89 fa                	mov    %edi,%edx
    3d66:	89 f0                	mov    %esi,%eax
    3d68:	66 89 55 fc          	mov    %dx,-0x4(%rbp)
    3d6c:	66 89 45 f8          	mov    %ax,-0x8(%rbp)
    3d70:	66 83 7d f8 00       	cmpw   $0x0,-0x8(%rbp)
    3d75:	74 11                	je     3d88 <safe_mod_func_uint16_t_u_u+0x2c>
    3d77:	0f b7 45 fc          	movzwl -0x4(%rbp),%eax
    3d7b:	ba 00 00 00 00       	mov    $0x0,%edx
    3d80:	66 f7 75 f8          	divw   -0x8(%rbp)
    3d84:	89 d0                	mov    %edx,%eax
    3d86:	eb 04                	jmp    3d8c <safe_mod_func_uint16_t_u_u+0x30>
    3d88:	0f b7 45 fc          	movzwl -0x4(%rbp),%eax
    3d8c:	5d                   	pop    %rbp
    3d8d:	c3                   	retq   

0000000000003d8e <safe_div_func_uint16_t_u_u>:
    3d8e:	f3 0f 1e fa          	endbr64 
    3d92:	55                   	push   %rbp
    3d93:	48 89 e5             	mov    %rsp,%rbp
    3d96:	89 fa                	mov    %edi,%edx
    3d98:	89 f0                	mov    %esi,%eax
    3d9a:	66 89 55 fc          	mov    %dx,-0x4(%rbp)
    3d9e:	66 89 45 f8          	mov    %ax,-0x8(%rbp)
    3da2:	66 83 7d f8 00       	cmpw   $0x0,-0x8(%rbp)
    3da7:	74 0f                	je     3db8 <safe_div_func_uint16_t_u_u+0x2a>
    3da9:	0f b7 45 fc          	movzwl -0x4(%rbp),%eax
    3dad:	ba 00 00 00 00       	mov    $0x0,%edx
    3db2:	66 f7 75 f8          	divw   -0x8(%rbp)
    3db6:	eb 04                	jmp    3dbc <safe_div_func_uint16_t_u_u+0x2e>
    3db8:	0f b7 45 fc          	movzwl -0x4(%rbp),%eax
    3dbc:	5d                   	pop    %rbp
    3dbd:	c3                   	retq   

0000000000003dbe <safe_lshift_func_uint16_t_u_s>:
    3dbe:	f3 0f 1e fa          	endbr64 
    3dc2:	55                   	push   %rbp
    3dc3:	48 89 e5             	mov    %rsp,%rbp
    3dc6:	89 f8                	mov    %edi,%eax
    3dc8:	89 75 f8             	mov    %esi,-0x8(%rbp)
    3dcb:	66 89 45 fc          	mov    %ax,-0x4(%rbp)
    3dcf:	83 7d f8 00          	cmpl   $0x0,-0x8(%rbp)
    3dd3:	78 2b                	js     3e00 <safe_lshift_func_uint16_t_u_s+0x42>
    3dd5:	83 7d f8 1f          	cmpl   $0x1f,-0x8(%rbp)
    3dd9:	7f 25                	jg     3e00 <safe_lshift_func_uint16_t_u_s+0x42>
    3ddb:	0f b7 55 fc          	movzwl -0x4(%rbp),%edx
    3ddf:	8b 45 f8             	mov    -0x8(%rbp),%eax
    3de2:	be ff ff 00 00       	mov    $0xffff,%esi
    3de7:	89 c1                	mov    %eax,%ecx
    3de9:	d3 fe                	sar    %cl,%esi
    3deb:	89 f0                	mov    %esi,%eax
    3ded:	39 c2                	cmp    %eax,%edx
    3def:	7f 0f                	jg     3e00 <safe_lshift_func_uint16_t_u_s+0x42>
    3df1:	0f b7 55 fc          	movzwl -0x4(%rbp),%edx
    3df5:	8b 45 f8             	mov    -0x8(%rbp),%eax
    3df8:	89 c1                	mov    %eax,%ecx
    3dfa:	d3 e2                	shl    %cl,%edx
    3dfc:	89 d0                	mov    %edx,%eax
    3dfe:	eb 04                	jmp    3e04 <safe_lshift_func_uint16_t_u_s+0x46>
    3e00:	0f b7 45 fc          	movzwl -0x4(%rbp),%eax
    3e04:	5d                   	pop    %rbp
    3e05:	c3                   	retq   

0000000000003e06 <safe_lshift_func_uint16_t_u_u>:
    3e06:	f3 0f 1e fa          	endbr64 
    3e0a:	55                   	push   %rbp
    3e0b:	48 89 e5             	mov    %rsp,%rbp
    3e0e:	89 f8                	mov    %edi,%eax
    3e10:	89 75 f8             	mov    %esi,-0x8(%rbp)
    3e13:	66 89 45 fc          	mov    %ax,-0x4(%rbp)
    3e17:	83 7d f8 1f          	cmpl   $0x1f,-0x8(%rbp)
    3e1b:	77 25                	ja     3e42 <safe_lshift_func_uint16_t_u_u+0x3c>
    3e1d:	0f b7 55 fc          	movzwl -0x4(%rbp),%edx
    3e21:	8b 45 f8             	mov    -0x8(%rbp),%eax
    3e24:	be ff ff 00 00       	mov    $0xffff,%esi
    3e29:	89 c1                	mov    %eax,%ecx
    3e2b:	d3 fe                	sar    %cl,%esi
    3e2d:	89 f0                	mov    %esi,%eax
    3e2f:	39 c2                	cmp    %eax,%edx
    3e31:	7f 0f                	jg     3e42 <safe_lshift_func_uint16_t_u_u+0x3c>
    3e33:	0f b7 55 fc          	movzwl -0x4(%rbp),%edx
    3e37:	8b 45 f8             	mov    -0x8(%rbp),%eax
    3e3a:	89 c1                	mov    %eax,%ecx
    3e3c:	d3 e2                	shl    %cl,%edx
    3e3e:	89 d0                	mov    %edx,%eax
    3e40:	eb 04                	jmp    3e46 <safe_lshift_func_uint16_t_u_u+0x40>
    3e42:	0f b7 45 fc          	movzwl -0x4(%rbp),%eax
    3e46:	5d                   	pop    %rbp
    3e47:	c3                   	retq   

0000000000003e48 <safe_rshift_func_uint16_t_u_s>:
    3e48:	f3 0f 1e fa          	endbr64 
    3e4c:	55                   	push   %rbp
    3e4d:	48 89 e5             	mov    %rsp,%rbp
    3e50:	89 f8                	mov    %edi,%eax
    3e52:	89 75 f8             	mov    %esi,-0x8(%rbp)
    3e55:	66 89 45 fc          	mov    %ax,-0x4(%rbp)
    3e59:	83 7d f8 00          	cmpl   $0x0,-0x8(%rbp)
    3e5d:	78 15                	js     3e74 <safe_rshift_func_uint16_t_u_s+0x2c>
    3e5f:	83 7d f8 1f          	cmpl   $0x1f,-0x8(%rbp)
    3e63:	7f 0f                	jg     3e74 <safe_rshift_func_uint16_t_u_s+0x2c>
    3e65:	0f b7 55 fc          	movzwl -0x4(%rbp),%edx
    3e69:	8b 45 f8             	mov    -0x8(%rbp),%eax
    3e6c:	89 c1                	mov    %eax,%ecx
    3e6e:	d3 fa                	sar    %cl,%edx
    3e70:	89 d0                	mov    %edx,%eax
    3e72:	eb 04                	jmp    3e78 <safe_rshift_func_uint16_t_u_s+0x30>
    3e74:	0f b7 45 fc          	movzwl -0x4(%rbp),%eax
    3e78:	5d                   	pop    %rbp
    3e79:	c3                   	retq   

0000000000003e7a <safe_rshift_func_uint16_t_u_u>:
    3e7a:	f3 0f 1e fa          	endbr64 
    3e7e:	55                   	push   %rbp
    3e7f:	48 89 e5             	mov    %rsp,%rbp
    3e82:	89 f8                	mov    %edi,%eax
    3e84:	89 75 f8             	mov    %esi,-0x8(%rbp)
    3e87:	66 89 45 fc          	mov    %ax,-0x4(%rbp)
    3e8b:	83 7d f8 1f          	cmpl   $0x1f,-0x8(%rbp)
    3e8f:	77 0f                	ja     3ea0 <safe_rshift_func_uint16_t_u_u+0x26>
    3e91:	0f b7 55 fc          	movzwl -0x4(%rbp),%edx
    3e95:	8b 45 f8             	mov    -0x8(%rbp),%eax
    3e98:	89 c1                	mov    %eax,%ecx
    3e9a:	d3 fa                	sar    %cl,%edx
    3e9c:	89 d0                	mov    %edx,%eax
    3e9e:	eb 04                	jmp    3ea4 <safe_rshift_func_uint16_t_u_u+0x2a>
    3ea0:	0f b7 45 fc          	movzwl -0x4(%rbp),%eax
    3ea4:	5d                   	pop    %rbp
    3ea5:	c3                   	retq   

0000000000003ea6 <safe_unary_minus_func_uint32_t_u>:
    3ea6:	f3 0f 1e fa          	endbr64 
    3eaa:	55                   	push   %rbp
    3eab:	48 89 e5             	mov    %rsp,%rbp
    3eae:	89 7d fc             	mov    %edi,-0x4(%rbp)
    3eb1:	8b 45 fc             	mov    -0x4(%rbp),%eax
    3eb4:	f7 d8                	neg    %eax
    3eb6:	5d                   	pop    %rbp
    3eb7:	c3                   	retq   

0000000000003eb8 <safe_add_func_uint32_t_u_u>:
    3eb8:	f3 0f 1e fa          	endbr64 
    3ebc:	55                   	push   %rbp
    3ebd:	48 89 e5             	mov    %rsp,%rbp
    3ec0:	89 7d fc             	mov    %edi,-0x4(%rbp)
    3ec3:	89 75 f8             	mov    %esi,-0x8(%rbp)
    3ec6:	8b 55 fc             	mov    -0x4(%rbp),%edx
    3ec9:	8b 45 f8             	mov    -0x8(%rbp),%eax
    3ecc:	01 d0                	add    %edx,%eax
    3ece:	5d                   	pop    %rbp
    3ecf:	c3                   	retq   

0000000000003ed0 <safe_sub_func_uint32_t_u_u>:
    3ed0:	f3 0f 1e fa          	endbr64 
    3ed4:	55                   	push   %rbp
    3ed5:	48 89 e5             	mov    %rsp,%rbp
    3ed8:	89 7d fc             	mov    %edi,-0x4(%rbp)
    3edb:	89 75 f8             	mov    %esi,-0x8(%rbp)
    3ede:	8b 45 fc             	mov    -0x4(%rbp),%eax
    3ee1:	2b 45 f8             	sub    -0x8(%rbp),%eax
    3ee4:	5d                   	pop    %rbp
    3ee5:	c3                   	retq   

0000000000003ee6 <safe_mul_func_uint32_t_u_u>:
    3ee6:	f3 0f 1e fa          	endbr64 
    3eea:	55                   	push   %rbp
    3eeb:	48 89 e5             	mov    %rsp,%rbp
    3eee:	89 7d fc             	mov    %edi,-0x4(%rbp)
    3ef1:	89 75 f8             	mov    %esi,-0x8(%rbp)
    3ef4:	8b 45 fc             	mov    -0x4(%rbp),%eax
    3ef7:	0f af 45 f8          	imul   -0x8(%rbp),%eax
    3efb:	5d                   	pop    %rbp
    3efc:	c3                   	retq   

0000000000003efd <safe_mod_func_uint32_t_u_u>:
    3efd:	f3 0f 1e fa          	endbr64 
    3f01:	55                   	push   %rbp
    3f02:	48 89 e5             	mov    %rsp,%rbp
    3f05:	89 7d fc             	mov    %edi,-0x4(%rbp)
    3f08:	89 75 f8             	mov    %esi,-0x8(%rbp)
    3f0b:	83 7d f8 00          	cmpl   $0x0,-0x8(%rbp)
    3f0f:	74 0f                	je     3f20 <safe_mod_func_uint32_t_u_u+0x23>
    3f11:	8b 45 fc             	mov    -0x4(%rbp),%eax
    3f14:	ba 00 00 00 00       	mov    $0x0,%edx
    3f19:	f7 75 f8             	divl   -0x8(%rbp)
    3f1c:	89 d0                	mov    %edx,%eax
    3f1e:	eb 03                	jmp    3f23 <safe_mod_func_uint32_t_u_u+0x26>
    3f20:	8b 45 fc             	mov    -0x4(%rbp),%eax
    3f23:	5d                   	pop    %rbp
    3f24:	c3                   	retq   

0000000000003f25 <safe_div_func_uint32_t_u_u>:
    3f25:	f3 0f 1e fa          	endbr64 
    3f29:	55                   	push   %rbp
    3f2a:	48 89 e5             	mov    %rsp,%rbp
    3f2d:	89 7d fc             	mov    %edi,-0x4(%rbp)
    3f30:	89 75 f8             	mov    %esi,-0x8(%rbp)
    3f33:	83 7d f8 00          	cmpl   $0x0,-0x8(%rbp)
    3f37:	74 0d                	je     3f46 <safe_div_func_uint32_t_u_u+0x21>
    3f39:	8b 45 fc             	mov    -0x4(%rbp),%eax
    3f3c:	ba 00 00 00 00       	mov    $0x0,%edx
    3f41:	f7 75 f8             	divl   -0x8(%rbp)
    3f44:	eb 03                	jmp    3f49 <safe_div_func_uint32_t_u_u+0x24>
    3f46:	8b 45 fc             	mov    -0x4(%rbp),%eax
    3f49:	5d                   	pop    %rbp
    3f4a:	c3                   	retq   

0000000000003f4b <safe_lshift_func_uint32_t_u_s>:
    3f4b:	f3 0f 1e fa          	endbr64 
    3f4f:	55                   	push   %rbp
    3f50:	48 89 e5             	mov    %rsp,%rbp
    3f53:	89 7d fc             	mov    %edi,-0x4(%rbp)
    3f56:	89 75 f8             	mov    %esi,-0x8(%rbp)
    3f59:	83 7d f8 00          	cmpl   $0x0,-0x8(%rbp)
    3f5d:	78 27                	js     3f86 <safe_lshift_func_uint32_t_u_s+0x3b>
    3f5f:	83 7d f8 1f          	cmpl   $0x1f,-0x8(%rbp)
    3f63:	7f 21                	jg     3f86 <safe_lshift_func_uint32_t_u_s+0x3b>
    3f65:	8b 45 f8             	mov    -0x8(%rbp),%eax
    3f68:	ba ff ff ff ff       	mov    $0xffffffff,%edx
    3f6d:	89 c1                	mov    %eax,%ecx
    3f6f:	d3 ea                	shr    %cl,%edx
    3f71:	89 d0                	mov    %edx,%eax
    3f73:	39 45 fc             	cmp    %eax,-0x4(%rbp)
    3f76:	77 0e                	ja     3f86 <safe_lshift_func_uint32_t_u_s+0x3b>
    3f78:	8b 45 f8             	mov    -0x8(%rbp),%eax
    3f7b:	8b 55 fc             	mov    -0x4(%rbp),%edx
    3f7e:	89 c1                	mov    %eax,%ecx
    3f80:	d3 e2                	shl    %cl,%edx
    3f82:	89 d0                	mov    %edx,%eax
    3f84:	eb 03                	jmp    3f89 <safe_lshift_func_uint32_t_u_s+0x3e>
    3f86:	8b 45 fc             	mov    -0x4(%rbp),%eax
    3f89:	5d                   	pop    %rbp
    3f8a:	c3                   	retq   

0000000000003f8b <safe_lshift_func_uint32_t_u_u>:
    3f8b:	f3 0f 1e fa          	endbr64 
    3f8f:	55                   	push   %rbp
    3f90:	48 89 e5             	mov    %rsp,%rbp
    3f93:	89 7d fc             	mov    %edi,-0x4(%rbp)
    3f96:	89 75 f8             	mov    %esi,-0x8(%rbp)
    3f99:	83 7d f8 1f          	cmpl   $0x1f,-0x8(%rbp)
    3f9d:	77 21                	ja     3fc0 <safe_lshift_func_uint32_t_u_u+0x35>
    3f9f:	8b 45 f8             	mov    -0x8(%rbp),%eax
    3fa2:	ba ff ff ff ff       	mov    $0xffffffff,%edx
    3fa7:	89 c1                	mov    %eax,%ecx
    3fa9:	d3 ea                	shr    %cl,%edx
    3fab:	89 d0                	mov    %edx,%eax
    3fad:	39 45 fc             	cmp    %eax,-0x4(%rbp)
    3fb0:	77 0e                	ja     3fc0 <safe_lshift_func_uint32_t_u_u+0x35>
    3fb2:	8b 45 f8             	mov    -0x8(%rbp),%eax
    3fb5:	8b 55 fc             	mov    -0x4(%rbp),%edx
    3fb8:	89 c1                	mov    %eax,%ecx
    3fba:	d3 e2                	shl    %cl,%edx
    3fbc:	89 d0                	mov    %edx,%eax
    3fbe:	eb 03                	jmp    3fc3 <safe_lshift_func_uint32_t_u_u+0x38>
    3fc0:	8b 45 fc             	mov    -0x4(%rbp),%eax
    3fc3:	5d                   	pop    %rbp
    3fc4:	c3                   	retq   

0000000000003fc5 <safe_rshift_func_uint32_t_u_s>:
    3fc5:	f3 0f 1e fa          	endbr64 
    3fc9:	55                   	push   %rbp
    3fca:	48 89 e5             	mov    %rsp,%rbp
    3fcd:	89 7d fc             	mov    %edi,-0x4(%rbp)
    3fd0:	89 75 f8             	mov    %esi,-0x8(%rbp)
    3fd3:	83 7d f8 00          	cmpl   $0x0,-0x8(%rbp)
    3fd7:	78 14                	js     3fed <safe_rshift_func_uint32_t_u_s+0x28>
    3fd9:	83 7d f8 1f          	cmpl   $0x1f,-0x8(%rbp)
    3fdd:	7f 0e                	jg     3fed <safe_rshift_func_uint32_t_u_s+0x28>
    3fdf:	8b 45 f8             	mov    -0x8(%rbp),%eax
    3fe2:	8b 55 fc             	mov    -0x4(%rbp),%edx
    3fe5:	89 c1                	mov    %eax,%ecx
    3fe7:	d3 ea                	shr    %cl,%edx
    3fe9:	89 d0                	mov    %edx,%eax
    3feb:	eb 03                	jmp    3ff0 <safe_rshift_func_uint32_t_u_s+0x2b>
    3fed:	8b 45 fc             	mov    -0x4(%rbp),%eax
    3ff0:	5d                   	pop    %rbp
    3ff1:	c3                   	retq   

0000000000003ff2 <safe_rshift_func_uint32_t_u_u>:
    3ff2:	f3 0f 1e fa          	endbr64 
    3ff6:	55                   	push   %rbp
    3ff7:	48 89 e5             	mov    %rsp,%rbp
    3ffa:	89 7d fc             	mov    %edi,-0x4(%rbp)
    3ffd:	89 75 f8             	mov    %esi,-0x8(%rbp)
    4000:	83 7d f8 1f          	cmpl   $0x1f,-0x8(%rbp)
    4004:	77 0e                	ja     4014 <safe_rshift_func_uint32_t_u_u+0x22>
    4006:	8b 45 f8             	mov    -0x8(%rbp),%eax
    4009:	8b 55 fc             	mov    -0x4(%rbp),%edx
    400c:	89 c1                	mov    %eax,%ecx
    400e:	d3 ea                	shr    %cl,%edx
    4010:	89 d0                	mov    %edx,%eax
    4012:	eb 03                	jmp    4017 <safe_rshift_func_uint32_t_u_u+0x25>
    4014:	8b 45 fc             	mov    -0x4(%rbp),%eax
    4017:	5d                   	pop    %rbp
    4018:	c3                   	retq   

0000000000004019 <safe_unary_minus_func_uint64_t_u>:
    4019:	f3 0f 1e fa          	endbr64 
    401d:	55                   	push   %rbp
    401e:	48 89 e5             	mov    %rsp,%rbp
    4021:	48 89 7d f8          	mov    %rdi,-0x8(%rbp)
    4025:	48 8b 45 f8          	mov    -0x8(%rbp),%rax
    4029:	48 f7 d8             	neg    %rax
    402c:	5d                   	pop    %rbp
    402d:	c3                   	retq   

000000000000402e <safe_add_func_uint64_t_u_u>:
    402e:	f3 0f 1e fa          	endbr64 
    4032:	55                   	push   %rbp
    4033:	48 89 e5             	mov    %rsp,%rbp
    4036:	48 89 7d f8          	mov    %rdi,-0x8(%rbp)
    403a:	48 89 75 f0          	mov    %rsi,-0x10(%rbp)
    403e:	48 8b 55 f8          	mov    -0x8(%rbp),%rdx
    4042:	48 8b 45 f0          	mov    -0x10(%rbp),%rax
    4046:	48 01 d0             	add    %rdx,%rax
    4049:	5d                   	pop    %rbp
    404a:	c3                   	retq   

000000000000404b <safe_sub_func_uint64_t_u_u>:
    404b:	f3 0f 1e fa          	endbr64 
    404f:	55                   	push   %rbp
    4050:	48 89 e5             	mov    %rsp,%rbp
    4053:	48 89 7d f8          	mov    %rdi,-0x8(%rbp)
    4057:	48 89 75 f0          	mov    %rsi,-0x10(%rbp)
    405b:	48 8b 45 f8          	mov    -0x8(%rbp),%rax
    405f:	48 2b 45 f0          	sub    -0x10(%rbp),%rax
    4063:	5d                   	pop    %rbp
    4064:	c3                   	retq   

0000000000004065 <safe_mul_func_uint64_t_u_u>:
    4065:	f3 0f 1e fa          	endbr64 
    4069:	55                   	push   %rbp
    406a:	48 89 e5             	mov    %rsp,%rbp
    406d:	48 89 7d f8          	mov    %rdi,-0x8(%rbp)
    4071:	48 89 75 f0          	mov    %rsi,-0x10(%rbp)
    4075:	48 8b 45 f8          	mov    -0x8(%rbp),%rax
    4079:	48 0f af 45 f0       	imul   -0x10(%rbp),%rax
    407e:	5d                   	pop    %rbp
    407f:	c3                   	retq   

0000000000004080 <safe_mod_func_uint64_t_u_u>:
    4080:	f3 0f 1e fa          	endbr64 
    4084:	55                   	push   %rbp
    4085:	48 89 e5             	mov    %rsp,%rbp
    4088:	48 89 7d f8          	mov    %rdi,-0x8(%rbp)
    408c:	48 89 75 f0          	mov    %rsi,-0x10(%rbp)
    4090:	48 83 7d f0 00       	cmpq   $0x0,-0x10(%rbp)
    4095:	74 12                	je     40a9 <safe_mod_func_uint64_t_u_u+0x29>
    4097:	48 8b 45 f8          	mov    -0x8(%rbp),%rax
    409b:	ba 00 00 00 00       	mov    $0x0,%edx
    40a0:	48 f7 75 f0          	divq   -0x10(%rbp)
    40a4:	48 89 d0             	mov    %rdx,%rax
    40a7:	eb 04                	jmp    40ad <safe_mod_func_uint64_t_u_u+0x2d>
    40a9:	48 8b 45 f8          	mov    -0x8(%rbp),%rax
    40ad:	5d                   	pop    %rbp
    40ae:	c3                   	retq   

00000000000040af <safe_div_func_uint64_t_u_u>:
    40af:	f3 0f 1e fa          	endbr64 
    40b3:	55                   	push   %rbp
    40b4:	48 89 e5             	mov    %rsp,%rbp
    40b7:	48 89 7d f8          	mov    %rdi,-0x8(%rbp)
    40bb:	48 89 75 f0          	mov    %rsi,-0x10(%rbp)
    40bf:	48 83 7d f0 00       	cmpq   $0x0,-0x10(%rbp)
    40c4:	74 0f                	je     40d5 <safe_div_func_uint64_t_u_u+0x26>
    40c6:	48 8b 45 f8          	mov    -0x8(%rbp),%rax
    40ca:	ba 00 00 00 00       	mov    $0x0,%edx
    40cf:	48 f7 75 f0          	divq   -0x10(%rbp)
    40d3:	eb 04                	jmp    40d9 <safe_div_func_uint64_t_u_u+0x2a>
    40d5:	48 8b 45 f8          	mov    -0x8(%rbp),%rax
    40d9:	5d                   	pop    %rbp
    40da:	c3                   	retq   

00000000000040db <safe_lshift_func_uint64_t_u_s>:
    40db:	f3 0f 1e fa          	endbr64 
    40df:	55                   	push   %rbp
    40e0:	48 89 e5             	mov    %rsp,%rbp
    40e3:	48 89 7d f8          	mov    %rdi,-0x8(%rbp)
    40e7:	89 75 f4             	mov    %esi,-0xc(%rbp)
    40ea:	83 7d f4 00          	cmpl   $0x0,-0xc(%rbp)
    40ee:	78 2f                	js     411f <safe_lshift_func_uint64_t_u_s+0x44>
    40f0:	83 7d f4 1f          	cmpl   $0x1f,-0xc(%rbp)
    40f4:	7f 29                	jg     411f <safe_lshift_func_uint64_t_u_s+0x44>
    40f6:	8b 45 f4             	mov    -0xc(%rbp),%eax
    40f9:	48 c7 c2 ff ff ff ff 	mov    $0xffffffffffffffff,%rdx
    4100:	89 c1                	mov    %eax,%ecx
    4102:	48 d3 ea             	shr    %cl,%rdx
    4105:	48 89 d0             	mov    %rdx,%rax
    4108:	48 39 45 f8          	cmp    %rax,-0x8(%rbp)
    410c:	77 11                	ja     411f <safe_lshift_func_uint64_t_u_s+0x44>
    410e:	8b 45 f4             	mov    -0xc(%rbp),%eax
    4111:	48 8b 55 f8          	mov    -0x8(%rbp),%rdx
    4115:	89 c1                	mov    %eax,%ecx
    4117:	48 d3 e2             	shl    %cl,%rdx
    411a:	48 89 d0             	mov    %rdx,%rax
    411d:	eb 04                	jmp    4123 <safe_lshift_func_uint64_t_u_s+0x48>
    411f:	48 8b 45 f8          	mov    -0x8(%rbp),%rax
    4123:	5d                   	pop    %rbp
    4124:	c3                   	retq   

0000000000004125 <safe_lshift_func_uint64_t_u_u>:
    4125:	f3 0f 1e fa          	endbr64 
    4129:	55                   	push   %rbp
    412a:	48 89 e5             	mov    %rsp,%rbp
    412d:	48 89 7d f8          	mov    %rdi,-0x8(%rbp)
    4131:	89 75 f4             	mov    %esi,-0xc(%rbp)
    4134:	83 7d f4 1f          	cmpl   $0x1f,-0xc(%rbp)
    4138:	77 29                	ja     4163 <safe_lshift_func_uint64_t_u_u+0x3e>
    413a:	8b 45 f4             	mov    -0xc(%rbp),%eax
    413d:	48 c7 c2 ff ff ff ff 	mov    $0xffffffffffffffff,%rdx
    4144:	89 c1                	mov    %eax,%ecx
    4146:	48 d3 ea             	shr    %cl,%rdx
    4149:	48 89 d0             	mov    %rdx,%rax
    414c:	48 39 45 f8          	cmp    %rax,-0x8(%rbp)
    4150:	77 11                	ja     4163 <safe_lshift_func_uint64_t_u_u+0x3e>
    4152:	8b 45 f4             	mov    -0xc(%rbp),%eax
    4155:	48 8b 55 f8          	mov    -0x8(%rbp),%rdx
    4159:	89 c1                	mov    %eax,%ecx
    415b:	48 d3 e2             	shl    %cl,%rdx
    415e:	48 89 d0             	mov    %rdx,%rax
    4161:	eb 04                	jmp    4167 <safe_lshift_func_uint64_t_u_u+0x42>
    4163:	48 8b 45 f8          	mov    -0x8(%rbp),%rax
    4167:	5d                   	pop    %rbp
    4168:	c3                   	retq   

0000000000004169 <safe_rshift_func_uint64_t_u_s>:
    4169:	f3 0f 1e fa          	endbr64 
    416d:	55                   	push   %rbp
    416e:	48 89 e5             	mov    %rsp,%rbp
    4171:	48 89 7d f8          	mov    %rdi,-0x8(%rbp)
    4175:	89 75 f4             	mov    %esi,-0xc(%rbp)
    4178:	83 7d f4 00          	cmpl   $0x0,-0xc(%rbp)
    417c:	78 17                	js     4195 <safe_rshift_func_uint64_t_u_s+0x2c>
    417e:	83 7d f4 1f          	cmpl   $0x1f,-0xc(%rbp)
    4182:	7f 11                	jg     4195 <safe_rshift_func_uint64_t_u_s+0x2c>
    4184:	8b 45 f4             	mov    -0xc(%rbp),%eax
    4187:	48 8b 55 f8          	mov    -0x8(%rbp),%rdx
    418b:	89 c1                	mov    %eax,%ecx
    418d:	48 d3 ea             	shr    %cl,%rdx
    4190:	48 89 d0             	mov    %rdx,%rax
    4193:	eb 04                	jmp    4199 <safe_rshift_func_uint64_t_u_s+0x30>
    4195:	48 8b 45 f8          	mov    -0x8(%rbp),%rax
    4199:	5d                   	pop    %rbp
    419a:	c3                   	retq   

000000000000419b <safe_rshift_func_uint64_t_u_u>:
    419b:	f3 0f 1e fa          	endbr64 
    419f:	55                   	push   %rbp
    41a0:	48 89 e5             	mov    %rsp,%rbp
    41a3:	48 89 7d f8          	mov    %rdi,-0x8(%rbp)
    41a7:	89 75 f4             	mov    %esi,-0xc(%rbp)
    41aa:	83 7d f4 1f          	cmpl   $0x1f,-0xc(%rbp)
    41ae:	77 11                	ja     41c1 <safe_rshift_func_uint64_t_u_u+0x26>
    41b0:	8b 45 f4             	mov    -0xc(%rbp),%eax
    41b3:	48 8b 55 f8          	mov    -0x8(%rbp),%rdx
    41b7:	89 c1                	mov    %eax,%ecx
    41b9:	48 d3 ea             	shr    %cl,%rdx
    41bc:	48 89 d0             	mov    %rdx,%rax
    41bf:	eb 04                	jmp    41c5 <safe_rshift_func_uint64_t_u_u+0x2a>
    41c1:	48 8b 45 f8          	mov    -0x8(%rbp),%rax
    41c5:	5d                   	pop    %rbp
    41c6:	c3                   	retq   

00000000000041c7 <safe_add_func_float_f_f>:
    41c7:	f3 0f 1e fa          	endbr64 
    41cb:	55                   	push   %rbp
    41cc:	48 89 e5             	mov    %rsp,%rbp
    41cf:	f3 0f 11 45 fc       	movss  %xmm0,-0x4(%rbp)
    41d4:	f3 0f 11 4d f8       	movss  %xmm1,-0x8(%rbp)
    41d9:	f3 0f 10 4d fc       	movss  -0x4(%rbp),%xmm1
    41de:	f3 0f 10 05 ba c0 00 	movss  0xc0ba(%rip),%xmm0        # 102a0 <l_1138.4298+0x180>
    41e5:	00 
    41e6:	f3 0f 59 c8          	mulss  %xmm0,%xmm1
    41ea:	f3 0f 10 55 f8       	movss  -0x8(%rbp),%xmm2
    41ef:	f3 0f 10 05 a9 c0 00 	movss  0xc0a9(%rip),%xmm0        # 102a0 <l_1138.4298+0x180>
    41f6:	00 
    41f7:	f3 0f 59 c2          	mulss  %xmm2,%xmm0
    41fb:	f3 0f 58 c1          	addss  %xmm1,%xmm0
    41ff:	f3 0f 10 0d a9 c0 00 	movss  0xc0a9(%rip),%xmm1        # 102b0 <l_1138.4298+0x190>
    4206:	00 
    4207:	0f 54 c1             	andps  %xmm1,%xmm0
    420a:	0f 2f 05 af c0 00 00 	comiss 0xc0af(%rip),%xmm0        # 102c0 <l_1138.4298+0x1a0>
    4211:	76 07                	jbe    421a <safe_add_func_float_f_f+0x53>
    4213:	f3 0f 10 45 fc       	movss  -0x4(%rbp),%xmm0
    4218:	eb 0a                	jmp    4224 <safe_add_func_float_f_f+0x5d>
    421a:	f3 0f 10 45 fc       	movss  -0x4(%rbp),%xmm0
    421f:	f3 0f 58 45 f8       	addss  -0x8(%rbp),%xmm0
    4224:	5d                   	pop    %rbp
    4225:	c3                   	retq   

0000000000004226 <safe_sub_func_float_f_f>:
    4226:	f3 0f 1e fa          	endbr64 
    422a:	55                   	push   %rbp
    422b:	48 89 e5             	mov    %rsp,%rbp
    422e:	f3 0f 11 45 fc       	movss  %xmm0,-0x4(%rbp)
    4233:	f3 0f 11 4d f8       	movss  %xmm1,-0x8(%rbp)
    4238:	f3 0f 10 4d fc       	movss  -0x4(%rbp),%xmm1
    423d:	f3 0f 10 05 5b c0 00 	movss  0xc05b(%rip),%xmm0        # 102a0 <l_1138.4298+0x180>
    4244:	00 
    4245:	f3 0f 59 c1          	mulss  %xmm1,%xmm0
    4249:	f3 0f 10 55 f8       	movss  -0x8(%rbp),%xmm2
    424e:	f3 0f 10 0d 4a c0 00 	movss  0xc04a(%rip),%xmm1        # 102a0 <l_1138.4298+0x180>
    4255:	00 
    4256:	f3 0f 59 ca          	mulss  %xmm2,%xmm1
    425a:	f3 0f 5c c1          	subss  %xmm1,%xmm0
    425e:	f3 0f 10 0d 4a c0 00 	movss  0xc04a(%rip),%xmm1        # 102b0 <l_1138.4298+0x190>
    4265:	00 
    4266:	0f 54 c1             	andps  %xmm1,%xmm0
    4269:	0f 2f 05 50 c0 00 00 	comiss 0xc050(%rip),%xmm0        # 102c0 <l_1138.4298+0x1a0>
    4270:	76 07                	jbe    4279 <safe_sub_func_float_f_f+0x53>
    4272:	f3 0f 10 45 fc       	movss  -0x4(%rbp),%xmm0
    4277:	eb 0a                	jmp    4283 <safe_sub_func_float_f_f+0x5d>
    4279:	f3 0f 10 45 fc       	movss  -0x4(%rbp),%xmm0
    427e:	f3 0f 5c 45 f8       	subss  -0x8(%rbp),%xmm0
    4283:	5d                   	pop    %rbp
    4284:	c3                   	retq   

0000000000004285 <safe_mul_func_float_f_f>:
    4285:	f3 0f 1e fa          	endbr64 
    4289:	55                   	push   %rbp
    428a:	48 89 e5             	mov    %rsp,%rbp
    428d:	f3 0f 11 45 fc       	movss  %xmm0,-0x4(%rbp)
    4292:	f3 0f 11 4d f8       	movss  %xmm1,-0x8(%rbp)
    4297:	f3 0f 10 4d fc       	movss  -0x4(%rbp),%xmm1
    429c:	f3 0f 10 05 20 c0 00 	movss  0xc020(%rip),%xmm0        # 102c4 <l_1138.4298+0x1a4>
    42a3:	00 
    42a4:	f3 0f 59 c8          	mulss  %xmm0,%xmm1
    42a8:	f3 0f 10 55 f8       	movss  -0x8(%rbp),%xmm2
    42ad:	f3 0f 10 05 13 c0 00 	movss  0xc013(%rip),%xmm0        # 102c8 <l_1138.4298+0x1a8>
    42b4:	00 
    42b5:	f3 0f 59 c2          	mulss  %xmm2,%xmm0
    42b9:	f3 0f 59 c1          	mulss  %xmm1,%xmm0
    42bd:	f3 0f 10 0d eb bf 00 	movss  0xbfeb(%rip),%xmm1        # 102b0 <l_1138.4298+0x190>
    42c4:	00 
    42c5:	0f 54 c1             	andps  %xmm1,%xmm0
    42c8:	0f 2f 05 fd bf 00 00 	comiss 0xbffd(%rip),%xmm0        # 102cc <l_1138.4298+0x1ac>
    42cf:	76 07                	jbe    42d8 <safe_mul_func_float_f_f+0x53>
    42d1:	f3 0f 10 45 fc       	movss  -0x4(%rbp),%xmm0
    42d6:	eb 0a                	jmp    42e2 <safe_mul_func_float_f_f+0x5d>
    42d8:	f3 0f 10 45 fc       	movss  -0x4(%rbp),%xmm0
    42dd:	f3 0f 59 45 f8       	mulss  -0x8(%rbp),%xmm0
    42e2:	5d                   	pop    %rbp
    42e3:	c3                   	retq   

00000000000042e4 <safe_div_func_float_f_f>:
    42e4:	f3 0f 1e fa          	endbr64 
    42e8:	55                   	push   %rbp
    42e9:	48 89 e5             	mov    %rsp,%rbp
    42ec:	f3 0f 11 45 fc       	movss  %xmm0,-0x4(%rbp)
    42f1:	f3 0f 11 4d f8       	movss  %xmm1,-0x8(%rbp)
    42f6:	f3 0f 10 45 f8       	movss  -0x8(%rbp),%xmm0
    42fb:	f3 0f 10 0d ad bf 00 	movss  0xbfad(%rip),%xmm1        # 102b0 <l_1138.4298+0x190>
    4302:	00 
    4303:	0f 54 c8             	andps  %xmm0,%xmm1
    4306:	f3 0f 10 05 c2 bf 00 	movss  0xbfc2(%rip),%xmm0        # 102d0 <l_1138.4298+0x1b0>
    430d:	00 
    430e:	0f 2f c1             	comiss %xmm1,%xmm0
    4311:	0f 97 c0             	seta   %al
    4314:	83 f0 01             	xor    $0x1,%eax
    4317:	84 c0                	test   %al,%al
    4319:	75 56                	jne    4371 <safe_div_func_float_f_f+0x8d>
    431b:	66 0f ef c0          	pxor   %xmm0,%xmm0
    431f:	0f 2e 45 f8          	ucomiss -0x8(%rbp),%xmm0
    4323:	7a 0a                	jp     432f <safe_div_func_float_f_f+0x4b>
    4325:	66 0f ef c0          	pxor   %xmm0,%xmm0
    4329:	0f 2e 45 f8          	ucomiss -0x8(%rbp),%xmm0
    432d:	74 4e                	je     437d <safe_div_func_float_f_f+0x99>
    432f:	f3 0f 10 4d fc       	movss  -0x4(%rbp),%xmm1
    4334:	f3 0f 10 05 98 bf 00 	movss  0xbf98(%rip),%xmm0        # 102d4 <l_1138.4298+0x1b4>
    433b:	00 
    433c:	f3 0f 59 c1          	mulss  %xmm1,%xmm0
    4340:	f3 0f 10 55 f8       	movss  -0x8(%rbp),%xmm2
    4345:	f3 0f 10 0d 8b bf 00 	movss  0xbf8b(%rip),%xmm1        # 102d8 <l_1138.4298+0x1b8>
    434c:	00 
    434d:	f3 0f 59 ca          	mulss  %xmm2,%xmm1
    4351:	f3 0f 5e c1          	divss  %xmm1,%xmm0
    4355:	f3 0f 10 0d 53 bf 00 	movss  0xbf53(%rip),%xmm1        # 102b0 <l_1138.4298+0x190>
    435c:	00 
    435d:	0f 54 c1             	andps  %xmm1,%xmm0
    4360:	0f 2f 05 75 bf 00 00 	comiss 0xbf75(%rip),%xmm0        # 102dc <l_1138.4298+0x1bc>
    4367:	0f 97 c0             	seta   %al
    436a:	83 f0 01             	xor    $0x1,%eax
    436d:	84 c0                	test   %al,%al
    436f:	74 0c                	je     437d <safe_div_func_float_f_f+0x99>
    4371:	f3 0f 10 45 fc       	movss  -0x4(%rbp),%xmm0
    4376:	f3 0f 5e 45 f8       	divss  -0x8(%rbp),%xmm0
    437b:	eb 05                	jmp    4382 <safe_div_func_float_f_f+0x9e>
    437d:	f3 0f 10 45 fc       	movss  -0x4(%rbp),%xmm0
    4382:	5d                   	pop    %rbp
    4383:	c3                   	retq   

0000000000004384 <safe_add_func_double_f_f>:
    4384:	f3 0f 1e fa          	endbr64 
    4388:	55                   	push   %rbp
    4389:	48 89 e5             	mov    %rsp,%rbp
    438c:	f2 0f 11 45 f8       	movsd  %xmm0,-0x8(%rbp)
    4391:	f2 0f 11 4d f0       	movsd  %xmm1,-0x10(%rbp)
    4396:	f2 0f 10 4d f8       	movsd  -0x8(%rbp),%xmm1
    439b:	f2 0f 10 05 3d bf 00 	movsd  0xbf3d(%rip),%xmm0        # 102e0 <l_1138.4298+0x1c0>
    43a2:	00 
    43a3:	f2 0f 59 c8          	mulsd  %xmm0,%xmm1
    43a7:	f2 0f 10 55 f0       	movsd  -0x10(%rbp),%xmm2
    43ac:	f2 0f 10 05 2c bf 00 	movsd  0xbf2c(%rip),%xmm0        # 102e0 <l_1138.4298+0x1c0>
    43b3:	00 
    43b4:	f2 0f 59 c2          	mulsd  %xmm2,%xmm0
    43b8:	f2 0f 58 c1          	addsd  %xmm1,%xmm0
    43bc:	f3 0f 7e 0d 2c bf 00 	movq   0xbf2c(%rip),%xmm1        # 102f0 <l_1138.4298+0x1d0>
    43c3:	00 
    43c4:	66 0f 54 c1          	andpd  %xmm1,%xmm0
    43c8:	66 0f 2f 05 30 bf 00 	comisd 0xbf30(%rip),%xmm0        # 10300 <l_1138.4298+0x1e0>
    43cf:	00 
    43d0:	76 07                	jbe    43d9 <safe_add_func_double_f_f+0x55>
    43d2:	f2 0f 10 45 f8       	movsd  -0x8(%rbp),%xmm0
    43d7:	eb 0a                	jmp    43e3 <safe_add_func_double_f_f+0x5f>
    43d9:	f2 0f 10 45 f8       	movsd  -0x8(%rbp),%xmm0
    43de:	f2 0f 58 45 f0       	addsd  -0x10(%rbp),%xmm0
    43e3:	5d                   	pop    %rbp
    43e4:	c3                   	retq   

00000000000043e5 <safe_sub_func_double_f_f>:
    43e5:	f3 0f 1e fa          	endbr64 
    43e9:	55                   	push   %rbp
    43ea:	48 89 e5             	mov    %rsp,%rbp
    43ed:	f2 0f 11 45 f8       	movsd  %xmm0,-0x8(%rbp)
    43f2:	f2 0f 11 4d f0       	movsd  %xmm1,-0x10(%rbp)
    43f7:	f2 0f 10 4d f8       	movsd  -0x8(%rbp),%xmm1
    43fc:	f2 0f 10 05 dc be 00 	movsd  0xbedc(%rip),%xmm0        # 102e0 <l_1138.4298+0x1c0>
    4403:	00 
    4404:	f2 0f 59 c1          	mulsd  %xmm1,%xmm0
    4408:	f2 0f 10 55 f0       	movsd  -0x10(%rbp),%xmm2
    440d:	f2 0f 10 0d cb be 00 	movsd  0xbecb(%rip),%xmm1        # 102e0 <l_1138.4298+0x1c0>
    4414:	00 
    4415:	f2 0f 59 ca          	mulsd  %xmm2,%xmm1
    4419:	f2 0f 5c c1          	subsd  %xmm1,%xmm0
    441d:	f3 0f 7e 0d cb be 00 	movq   0xbecb(%rip),%xmm1        # 102f0 <l_1138.4298+0x1d0>
    4424:	00 
    4425:	66 0f 54 c1          	andpd  %xmm1,%xmm0
    4429:	66 0f 2f 05 cf be 00 	comisd 0xbecf(%rip),%xmm0        # 10300 <l_1138.4298+0x1e0>
    4430:	00 
    4431:	76 07                	jbe    443a <safe_sub_func_double_f_f+0x55>
    4433:	f2 0f 10 45 f8       	movsd  -0x8(%rbp),%xmm0
    4438:	eb 0a                	jmp    4444 <safe_sub_func_double_f_f+0x5f>
    443a:	f2 0f 10 45 f8       	movsd  -0x8(%rbp),%xmm0
    443f:	f2 0f 5c 45 f0       	subsd  -0x10(%rbp),%xmm0
    4444:	5d                   	pop    %rbp
    4445:	c3                   	retq   

0000000000004446 <safe_mul_func_double_f_f>:
    4446:	f3 0f 1e fa          	endbr64 
    444a:	55                   	push   %rbp
    444b:	48 89 e5             	mov    %rsp,%rbp
    444e:	f2 0f 11 45 f8       	movsd  %xmm0,-0x8(%rbp)
    4453:	f2 0f 11 4d f0       	movsd  %xmm1,-0x10(%rbp)
    4458:	f2 0f 10 4d f8       	movsd  -0x8(%rbp),%xmm1
    445d:	f2 0f 10 05 a3 be 00 	movsd  0xbea3(%rip),%xmm0        # 10308 <l_1138.4298+0x1e8>
    4464:	00 
    4465:	f2 0f 59 c8          	mulsd  %xmm0,%xmm1
    4469:	f2 0f 10 55 f0       	movsd  -0x10(%rbp),%xmm2
    446e:	f2 0f 10 05 9a be 00 	movsd  0xbe9a(%rip),%xmm0        # 10310 <l_1138.4298+0x1f0>
    4475:	00 
    4476:	f2 0f 59 c2          	mulsd  %xmm2,%xmm0
    447a:	f2 0f 59 c1          	mulsd  %xmm1,%xmm0
    447e:	f3 0f 7e 0d 6a be 00 	movq   0xbe6a(%rip),%xmm1        # 102f0 <l_1138.4298+0x1d0>
    4485:	00 
    4486:	66 0f 54 c1          	andpd  %xmm1,%xmm0
    448a:	66 0f 2f 05 86 be 00 	comisd 0xbe86(%rip),%xmm0        # 10318 <l_1138.4298+0x1f8>
    4491:	00 
    4492:	76 07                	jbe    449b <safe_mul_func_double_f_f+0x55>
    4494:	f2 0f 10 45 f8       	movsd  -0x8(%rbp),%xmm0
    4499:	eb 0a                	jmp    44a5 <safe_mul_func_double_f_f+0x5f>
    449b:	f2 0f 10 45 f8       	movsd  -0x8(%rbp),%xmm0
    44a0:	f2 0f 59 45 f0       	mulsd  -0x10(%rbp),%xmm0
    44a5:	5d                   	pop    %rbp
    44a6:	c3                   	retq   

00000000000044a7 <safe_div_func_double_f_f>:
    44a7:	f3 0f 1e fa          	endbr64 
    44ab:	55                   	push   %rbp
    44ac:	48 89 e5             	mov    %rsp,%rbp
    44af:	f2 0f 11 45 f8       	movsd  %xmm0,-0x8(%rbp)
    44b4:	f2 0f 11 4d f0       	movsd  %xmm1,-0x10(%rbp)
    44b9:	f2 0f 10 45 f0       	movsd  -0x10(%rbp),%xmm0
    44be:	f3 0f 7e 0d 2a be 00 	movq   0xbe2a(%rip),%xmm1        # 102f0 <l_1138.4298+0x1d0>
    44c5:	00 
    44c6:	66 0f 54 c8          	andpd  %xmm0,%xmm1
    44ca:	f2 0f 10 05 4e be 00 	movsd  0xbe4e(%rip),%xmm0        # 10320 <l_1138.4298+0x200>
    44d1:	00 
    44d2:	66 0f 2f c1          	comisd %xmm1,%xmm0
    44d6:	0f 97 c0             	seta   %al
    44d9:	83 f0 01             	xor    $0x1,%eax
    44dc:	84 c0                	test   %al,%al
    44de:	75 5a                	jne    453a <safe_div_func_double_f_f+0x93>
    44e0:	66 0f ef c0          	pxor   %xmm0,%xmm0
    44e4:	66 0f 2e 45 f0       	ucomisd -0x10(%rbp),%xmm0
    44e9:	7a 0b                	jp     44f6 <safe_div_func_double_f_f+0x4f>
    44eb:	66 0f ef c0          	pxor   %xmm0,%xmm0
    44ef:	66 0f 2e 45 f0       	ucomisd -0x10(%rbp),%xmm0
    44f4:	74 50                	je     4546 <safe_div_func_double_f_f+0x9f>
    44f6:	f2 0f 10 4d f8       	movsd  -0x8(%rbp),%xmm1
    44fb:	f2 0f 10 05 25 be 00 	movsd  0xbe25(%rip),%xmm0        # 10328 <l_1138.4298+0x208>
    4502:	00 
    4503:	f2 0f 59 c1          	mulsd  %xmm1,%xmm0
    4507:	f2 0f 10 55 f0       	movsd  -0x10(%rbp),%xmm2
    450c:	f2 0f 10 0d 1c be 00 	movsd  0xbe1c(%rip),%xmm1        # 10330 <l_1138.4298+0x210>
    4513:	00 
    4514:	f2 0f 59 ca          	mulsd  %xmm2,%xmm1
    4518:	f2 0f 5e c1          	divsd  %xmm1,%xmm0
    451c:	f3 0f 7e 0d cc bd 00 	movq   0xbdcc(%rip),%xmm1        # 102f0 <l_1138.4298+0x1d0>
    4523:	00 
    4524:	66 0f 54 c1          	andpd  %xmm1,%xmm0
    4528:	66 0f 2f 05 08 be 00 	comisd 0xbe08(%rip),%xmm0        # 10338 <l_1138.4298+0x218>
    452f:	00 
    4530:	0f 97 c0             	seta   %al
    4533:	83 f0 01             	xor    $0x1,%eax
    4536:	84 c0                	test   %al,%al
    4538:	74 0c                	je     4546 <safe_div_func_double_f_f+0x9f>
    453a:	f2 0f 10 45 f8       	movsd  -0x8(%rbp),%xmm0
    453f:	f2 0f 5e 45 f0       	divsd  -0x10(%rbp),%xmm0
    4544:	eb 05                	jmp    454b <safe_div_func_double_f_f+0xa4>
    4546:	f2 0f 10 45 f8       	movsd  -0x8(%rbp),%xmm0
    454b:	5d                   	pop    %rbp
    454c:	c3                   	retq   

000000000000454d <safe_convert_func_float_to_int32_t>:
    454d:	f3 0f 1e fa          	endbr64 
    4551:	55                   	push   %rbp
    4552:	48 89 e5             	mov    %rsp,%rbp
    4555:	f3 0f 11 45 fc       	movss  %xmm0,-0x4(%rbp)
    455a:	f3 0f 10 05 de bd 00 	movss  0xbdde(%rip),%xmm0        # 10340 <l_1138.4298+0x220>
    4561:	00 
    4562:	0f 2f 45 fc          	comiss -0x4(%rbp),%xmm0
    4566:	0f 93 c0             	setae  %al
    4569:	83 f0 01             	xor    $0x1,%eax
    456c:	84 c0                	test   %al,%al
    456e:	74 21                	je     4591 <safe_convert_func_float_to_int32_t+0x44>
    4570:	f3 0f 10 45 fc       	movss  -0x4(%rbp),%xmm0
    4575:	0f 2f 05 c8 bd 00 00 	comiss 0xbdc8(%rip),%xmm0        # 10344 <l_1138.4298+0x224>
    457c:	0f 93 c0             	setae  %al
    457f:	83 f0 01             	xor    $0x1,%eax
    4582:	84 c0                	test   %al,%al
    4584:	74 0b                	je     4591 <safe_convert_func_float_to_int32_t+0x44>
    4586:	f3 0f 10 45 fc       	movss  -0x4(%rbp),%xmm0
    458b:	f3 0f 2c c0          	cvttss2si %xmm0,%eax
    458f:	eb 05                	jmp    4596 <safe_convert_func_float_to_int32_t+0x49>
    4591:	b8 ff ff ff 7f       	mov    $0x7fffffff,%eax
    4596:	5d                   	pop    %rbp
    4597:	c3                   	retq   

0000000000004598 <crc32_gentab>:
    4598:	f3 0f 1e fa          	endbr64 
    459c:	55                   	push   %rbp
    459d:	48 89 e5             	mov    %rsp,%rbp
    45a0:	c7 45 fc 20 83 b8 ed 	movl   $0xedb88320,-0x4(%rbp)
    45a7:	c7 45 f4 00 00 00 00 	movl   $0x0,-0xc(%rbp)
    45ae:	eb 51                	jmp    4601 <crc32_gentab+0x69>
    45b0:	8b 45 f4             	mov    -0xc(%rbp),%eax
    45b3:	89 45 f0             	mov    %eax,-0x10(%rbp)
    45b6:	c7 45 f8 08 00 00 00 	movl   $0x8,-0x8(%rbp)
    45bd:	eb 1e                	jmp    45dd <crc32_gentab+0x45>
    45bf:	8b 45 f0             	mov    -0x10(%rbp),%eax
    45c2:	83 e0 01             	and    $0x1,%eax
    45c5:	85 c0                	test   %eax,%eax
    45c7:	74 0d                	je     45d6 <crc32_gentab+0x3e>
    45c9:	8b 45 f0             	mov    -0x10(%rbp),%eax
    45cc:	d1 e8                	shr    %eax
    45ce:	33 45 fc             	xor    -0x4(%rbp),%eax
    45d1:	89 45 f0             	mov    %eax,-0x10(%rbp)
    45d4:	eb 03                	jmp    45d9 <crc32_gentab+0x41>
    45d6:	d1 6d f0             	shrl   -0x10(%rbp)
    45d9:	83 6d f8 01          	subl   $0x1,-0x8(%rbp)
    45dd:	83 7d f8 00          	cmpl   $0x0,-0x8(%rbp)
    45e1:	7f dc                	jg     45bf <crc32_gentab+0x27>
    45e3:	8b 45 f4             	mov    -0xc(%rbp),%eax
    45e6:	48 98                	cltq   
    45e8:	48 8d 0c 85 00 00 00 	lea    0x0(,%rax,4),%rcx
    45ef:	00 
    45f0:	48 8d 15 89 62 01 00 	lea    0x16289(%rip),%rdx        # 1a880 <crc32_tab>
    45f7:	8b 45 f0             	mov    -0x10(%rbp),%eax
    45fa:	89 04 11             	mov    %eax,(%rcx,%rdx,1)
    45fd:	83 45 f4 01          	addl   $0x1,-0xc(%rbp)
    4601:	81 7d f4 ff 00 00 00 	cmpl   $0xff,-0xc(%rbp)
    4608:	7e a6                	jle    45b0 <crc32_gentab+0x18>
    460a:	90                   	nop
    460b:	90                   	nop
    460c:	5d                   	pop    %rbp
    460d:	c3                   	retq   

000000000000460e <crc32_byte>:
    460e:	f3 0f 1e fa          	endbr64 
    4612:	55                   	push   %rbp
    4613:	48 89 e5             	mov    %rsp,%rbp
    4616:	89 f8                	mov    %edi,%eax
    4618:	88 45 fc             	mov    %al,-0x4(%rbp)
    461b:	8b 05 ff e9 00 00    	mov    0xe9ff(%rip),%eax        # 13020 <crc32_context>
    4621:	c1 e8 08             	shr    $0x8,%eax
    4624:	89 c1                	mov    %eax,%ecx
    4626:	0f b6 55 fc          	movzbl -0x4(%rbp),%edx
    462a:	8b 05 f0 e9 00 00    	mov    0xe9f0(%rip),%eax        # 13020 <crc32_context>
    4630:	31 d0                	xor    %edx,%eax
    4632:	0f b6 c0             	movzbl %al,%eax
    4635:	89 c0                	mov    %eax,%eax
    4637:	48 8d 14 85 00 00 00 	lea    0x0(,%rax,4),%rdx
    463e:	00 
    463f:	48 8d 05 3a 62 01 00 	lea    0x1623a(%rip),%rax        # 1a880 <crc32_tab>
    4646:	8b 04 02             	mov    (%rdx,%rax,1),%eax
    4649:	31 c8                	xor    %ecx,%eax
    464b:	89 05 cf e9 00 00    	mov    %eax,0xe9cf(%rip)        # 13020 <crc32_context>
    4651:	90                   	nop
    4652:	5d                   	pop    %rbp
    4653:	c3                   	retq   

0000000000004654 <crc32_8bytes>:
    4654:	f3 0f 1e fa          	endbr64 
    4658:	55                   	push   %rbp
    4659:	48 89 e5             	mov    %rsp,%rbp
    465c:	48 83 ec 08          	sub    $0x8,%rsp
    4660:	48 89 7d f8          	mov    %rdi,-0x8(%rbp)
    4664:	48 8b 45 f8          	mov    -0x8(%rbp),%rax
    4668:	0f b6 c0             	movzbl %al,%eax
    466b:	89 c7                	mov    %eax,%edi
    466d:	e8 9c ff ff ff       	callq  460e <crc32_byte>
    4672:	48 8b 45 f8          	mov    -0x8(%rbp),%rax
    4676:	48 c1 e8 08          	shr    $0x8,%rax
    467a:	0f b6 c0             	movzbl %al,%eax
    467d:	89 c7                	mov    %eax,%edi
    467f:	e8 8a ff ff ff       	callq  460e <crc32_byte>
    4684:	48 8b 45 f8          	mov    -0x8(%rbp),%rax
    4688:	48 c1 e8 10          	shr    $0x10,%rax
    468c:	0f b6 c0             	movzbl %al,%eax
    468f:	89 c7                	mov    %eax,%edi
    4691:	e8 78 ff ff ff       	callq  460e <crc32_byte>
    4696:	48 8b 45 f8          	mov    -0x8(%rbp),%rax
    469a:	48 c1 e8 18          	shr    $0x18,%rax
    469e:	0f b6 c0             	movzbl %al,%eax
    46a1:	89 c7                	mov    %eax,%edi
    46a3:	e8 66 ff ff ff       	callq  460e <crc32_byte>
    46a8:	48 8b 45 f8          	mov    -0x8(%rbp),%rax
    46ac:	48 c1 e8 20          	shr    $0x20,%rax
    46b0:	0f b6 c0             	movzbl %al,%eax
    46b3:	89 c7                	mov    %eax,%edi
    46b5:	e8 54 ff ff ff       	callq  460e <crc32_byte>
    46ba:	48 8b 45 f8          	mov    -0x8(%rbp),%rax
    46be:	48 c1 e8 28          	shr    $0x28,%rax
    46c2:	0f b6 c0             	movzbl %al,%eax
    46c5:	89 c7                	mov    %eax,%edi
    46c7:	e8 42 ff ff ff       	callq  460e <crc32_byte>
    46cc:	48 8b 45 f8          	mov    -0x8(%rbp),%rax
    46d0:	48 c1 e8 30          	shr    $0x30,%rax
    46d4:	0f b6 c0             	movzbl %al,%eax
    46d7:	89 c7                	mov    %eax,%edi
    46d9:	e8 30 ff ff ff       	callq  460e <crc32_byte>
    46de:	48 8b 45 f8          	mov    -0x8(%rbp),%rax
    46e2:	48 c1 e8 38          	shr    $0x38,%rax
    46e6:	0f b6 c0             	movzbl %al,%eax
    46e9:	89 c7                	mov    %eax,%edi
    46eb:	e8 1e ff ff ff       	callq  460e <crc32_byte>
    46f0:	90                   	nop
    46f1:	c9                   	leaveq 
    46f2:	c3                   	retq   

00000000000046f3 <transparent_crc>:
    46f3:	f3 0f 1e fa          	endbr64 
    46f7:	55                   	push   %rbp
    46f8:	48 89 e5             	mov    %rsp,%rbp
    46fb:	48 83 ec 20          	sub    $0x20,%rsp
    46ff:	48 89 7d f8          	mov    %rdi,-0x8(%rbp)
    4703:	48 89 75 f0          	mov    %rsi,-0x10(%rbp)
    4707:	89 55 ec             	mov    %edx,-0x14(%rbp)
    470a:	48 8b 45 f8          	mov    -0x8(%rbp),%rax
    470e:	48 89 c7             	mov    %rax,%rdi
    4711:	e8 3e ff ff ff       	callq  4654 <crc32_8bytes>
    4716:	83 7d ec 00          	cmpl   $0x0,-0x14(%rbp)
    471a:	74 22                	je     473e <transparent_crc+0x4b>
    471c:	8b 05 fe e8 00 00    	mov    0xe8fe(%rip),%eax        # 13020 <crc32_context>
    4722:	f7 d0                	not    %eax
    4724:	89 c2                	mov    %eax,%edx
    4726:	48 8b 45 f0          	mov    -0x10(%rbp),%rax
    472a:	48 89 c6             	mov    %rax,%rsi
    472d:	48 8d 3d fc 98 00 00 	lea    0x98fc(%rip),%rdi        # e030 <_IO_stdin_used+0x30>
    4734:	b8 00 00 00 00       	mov    $0x0,%eax
    4739:	e8 42 e9 ff ff       	callq  3080 <printf@plt>
    473e:	90                   	nop
    473f:	c9                   	leaveq 
    4740:	c3                   	retq   

0000000000004741 <transparent_crc_bytes>:
    4741:	f3 0f 1e fa          	endbr64 
    4745:	55                   	push   %rbp
    4746:	48 89 e5             	mov    %rsp,%rbp
    4749:	48 83 ec 30          	sub    $0x30,%rsp
    474d:	48 89 7d e8          	mov    %rdi,-0x18(%rbp)
    4751:	89 75 e4             	mov    %esi,-0x1c(%rbp)
    4754:	48 89 55 d8          	mov    %rdx,-0x28(%rbp)
    4758:	89 4d e0             	mov    %ecx,-0x20(%rbp)
    475b:	c7 45 fc 00 00 00 00 	movl   $0x0,-0x4(%rbp)
    4762:	eb 1e                	jmp    4782 <transparent_crc_bytes+0x41>
    4764:	8b 45 fc             	mov    -0x4(%rbp),%eax
    4767:	48 63 d0             	movslq %eax,%rdx
    476a:	48 8b 45 e8          	mov    -0x18(%rbp),%rax
    476e:	48 01 d0             	add    %rdx,%rax
    4771:	0f b6 00             	movzbl (%rax),%eax
    4774:	0f b6 c0             	movzbl %al,%eax
    4777:	89 c7                	mov    %eax,%edi
    4779:	e8 90 fe ff ff       	callq  460e <crc32_byte>
    477e:	83 45 fc 01          	addl   $0x1,-0x4(%rbp)
    4782:	8b 45 fc             	mov    -0x4(%rbp),%eax
    4785:	3b 45 e4             	cmp    -0x1c(%rbp),%eax
    4788:	7c da                	jl     4764 <transparent_crc_bytes+0x23>
    478a:	83 7d e0 00          	cmpl   $0x0,-0x20(%rbp)
    478e:	74 22                	je     47b2 <transparent_crc_bytes+0x71>
    4790:	8b 05 8a e8 00 00    	mov    0xe88a(%rip),%eax        # 13020 <crc32_context>
    4796:	f7 d0                	not    %eax
    4798:	89 c2                	mov    %eax,%edx
    479a:	48 8b 45 d8          	mov    -0x28(%rbp),%rax
    479e:	48 89 c6             	mov    %rax,%rsi
    47a1:	48 8d 3d 88 98 00 00 	lea    0x9888(%rip),%rdi        # e030 <_IO_stdin_used+0x30>
    47a8:	b8 00 00 00 00       	mov    $0x0,%eax
    47ad:	e8 ce e8 ff ff       	callq  3080 <printf@plt>
    47b2:	90                   	nop
    47b3:	c9                   	leaveq 
    47b4:	c3                   	retq   

00000000000047b5 <func_1>:
    47b5:	f3 0f 1e fa          	endbr64 
    47b9:	55                   	push   %rbp
    47ba:	48 89 e5             	mov    %rsp,%rbp
    47bd:	53                   	push   %rbx
    47be:	48 81 ec 28 01 00 00 	sub    $0x128,%rsp
    47c5:	64 48 8b 04 25 28 00 	mov    %fs:0x28,%rax
    47cc:	00 00 
    47ce:	48 89 45 e8          	mov    %rax,-0x18(%rbp)
    47d2:	31 c0                	xor    %eax,%eax
    47d4:	66 c7 85 50 ff ff ff 	movw   $0x4d00,-0xb0(%rbp)
    47db:	00 4d 
    47dd:	66 c7 85 52 ff ff ff 	movw   $0xdd8d,-0xae(%rbp)
    47e4:	8d dd 
    47e6:	66 c7 85 54 ff ff ff 	movw   $0x4d00,-0xac(%rbp)
    47ed:	00 4d 
    47ef:	66 c7 85 56 ff ff ff 	movw   $0xdd8d,-0xaa(%rbp)
    47f6:	8d dd 
    47f8:	66 c7 85 58 ff ff ff 	movw   $0x4d00,-0xa8(%rbp)
    47ff:	00 4d 
    4801:	66 c7 85 5a ff ff ff 	movw   $0xdd8d,-0xa6(%rbp)
    4808:	8d dd 
    480a:	66 c7 85 5c ff ff ff 	movw   $0x4d00,-0xa4(%rbp)
    4811:	00 4d 
    4813:	66 c7 85 5e ff ff ff 	movw   $0xdd8d,-0xa2(%rbp)
    481a:	8d dd 
    481c:	66 c7 85 60 ff ff ff 	movw   $0x4d00,-0xa0(%rbp)
    4823:	00 4d 
    4825:	66 c7 85 62 ff ff ff 	movw   $0x93e9,-0x9e(%rbp)
    482c:	e9 93 
    482e:	66 c7 85 64 ff ff ff 	movw   $0x93e9,-0x9c(%rbp)
    4835:	e9 93 
    4837:	66 c7 85 66 ff ff ff 	movw   $0x3,-0x9a(%rbp)
    483e:	03 00 
    4840:	66 c7 85 68 ff ff ff 	movw   $0x3,-0x98(%rbp)
    4847:	03 00 
    4849:	66 c7 85 6a ff ff ff 	movw   $0x93e9,-0x96(%rbp)
    4850:	e9 93 
    4852:	66 c7 85 6c ff ff ff 	movw   $0x93e9,-0x94(%rbp)
    4859:	e9 93 
    485b:	66 c7 85 6e ff ff ff 	movw   $0x3,-0x92(%rbp)
    4862:	03 00 
    4864:	66 c7 85 70 ff ff ff 	movw   $0x3,-0x90(%rbp)
    486b:	03 00 
    486d:	66 c7 85 72 ff ff ff 	movw   $0x93e9,-0x8e(%rbp)
    4874:	e9 93 
    4876:	66 c7 85 74 ff ff ff 	movw   $0xa9d6,-0x8c(%rbp)
    487d:	d6 a9 
    487f:	66 c7 85 76 ff ff ff 	movw   $0xdd8d,-0x8a(%rbp)
    4886:	8d dd 
    4888:	66 c7 85 78 ff ff ff 	movw   $0xa9d6,-0x88(%rbp)
    488f:	d6 a9 
    4891:	66 c7 85 7a ff ff ff 	movw   $0xdd8d,-0x86(%rbp)
    4898:	8d dd 
    489a:	66 c7 85 7c ff ff ff 	movw   $0xa9d6,-0x84(%rbp)
    48a1:	d6 a9 
    48a3:	66 c7 85 7e ff ff ff 	movw   $0xdd8d,-0x82(%rbp)
    48aa:	8d dd 
    48ac:	66 c7 45 80 d6 a9    	movw   $0xa9d6,-0x80(%rbp)
    48b2:	66 c7 45 82 8d dd    	movw   $0xdd8d,-0x7e(%rbp)
    48b8:	66 c7 45 84 d6 a9    	movw   $0xa9d6,-0x7c(%rbp)
    48be:	66 c7 45 86 e9 93    	movw   $0x93e9,-0x7a(%rbp)
    48c4:	66 c7 45 88 03 00    	movw   $0x3,-0x78(%rbp)
    48ca:	66 c7 45 8a 03 00    	movw   $0x3,-0x76(%rbp)
    48d0:	66 c7 45 8c e9 93    	movw   $0x93e9,-0x74(%rbp)
    48d6:	66 c7 45 8e e9 93    	movw   $0x93e9,-0x72(%rbp)
    48dc:	66 c7 45 90 03 00    	movw   $0x3,-0x70(%rbp)
    48e2:	66 c7 45 92 03 00    	movw   $0x3,-0x6e(%rbp)
    48e8:	66 c7 45 94 e9 93    	movw   $0x93e9,-0x6c(%rbp)
    48ee:	66 c7 45 96 e9 93    	movw   $0x93e9,-0x6a(%rbp)
    48f4:	66 c7 45 98 00 4d    	movw   $0x4d00,-0x68(%rbp)
    48fa:	66 c7 45 9a 8d dd    	movw   $0xdd8d,-0x66(%rbp)
    4900:	66 c7 45 9c 00 4d    	movw   $0x4d00,-0x64(%rbp)
    4906:	66 c7 45 9e 8d dd    	movw   $0xdd8d,-0x62(%rbp)
    490c:	66 c7 45 a0 00 4d    	movw   $0x4d00,-0x60(%rbp)
    4912:	66 c7 45 a2 8d dd    	movw   $0xdd8d,-0x5e(%rbp)
    4918:	66 c7 45 a4 00 4d    	movw   $0x4d00,-0x5c(%rbp)
    491e:	66 c7 45 a6 8d dd    	movw   $0xdd8d,-0x5a(%rbp)
    4924:	66 c7 45 a8 00 4d    	movw   $0x4d00,-0x58(%rbp)
    492a:	66 c7 45 aa e9 93    	movw   $0x93e9,-0x56(%rbp)
    4930:	66 c7 45 ac e9 93    	movw   $0x93e9,-0x54(%rbp)
    4936:	66 c7 45 ae 03 00    	movw   $0x3,-0x52(%rbp)
    493c:	66 c7 45 b0 03 00    	movw   $0x3,-0x50(%rbp)
    4942:	66 c7 45 b2 e9 93    	movw   $0x93e9,-0x4e(%rbp)
    4948:	66 c7 45 b4 e9 93    	movw   $0x93e9,-0x4c(%rbp)
    494e:	66 c7 45 b6 03 00    	movw   $0x3,-0x4a(%rbp)
    4954:	66 c7 45 b8 03 00    	movw   $0x3,-0x48(%rbp)
    495a:	66 c7 45 ba e9 93    	movw   $0x93e9,-0x46(%rbp)
    4960:	66 c7 45 bc d6 a9    	movw   $0xa9d6,-0x44(%rbp)
    4966:	66 c7 45 be 8d dd    	movw   $0xdd8d,-0x42(%rbp)
    496c:	66 c7 45 c0 d6 a9    	movw   $0xa9d6,-0x40(%rbp)
    4972:	66 c7 45 c2 8d dd    	movw   $0xdd8d,-0x3e(%rbp)
    4978:	66 c7 45 c4 d6 a9    	movw   $0xa9d6,-0x3c(%rbp)
    497e:	66 c7 45 c6 8d dd    	movw   $0xdd8d,-0x3a(%rbp)
    4984:	66 c7 45 c8 d6 a9    	movw   $0xa9d6,-0x38(%rbp)
    498a:	66 c7 45 ca 8d dd    	movw   $0xdd8d,-0x36(%rbp)
    4990:	66 c7 45 cc d6 a9    	movw   $0xa9d6,-0x34(%rbp)
    4996:	66 c7 45 ce e9 93    	movw   $0x93e9,-0x32(%rbp)
    499c:	66 c7 45 d0 03 00    	movw   $0x3,-0x30(%rbp)
    49a2:	66 c7 45 d2 03 00    	movw   $0x3,-0x2e(%rbp)
    49a8:	66 c7 45 d4 e9 93    	movw   $0x93e9,-0x2c(%rbp)
    49ae:	66 c7 45 d6 e9 93    	movw   $0x93e9,-0x2a(%rbp)
    49b4:	66 c7 45 d8 03 00    	movw   $0x3,-0x28(%rbp)
    49ba:	66 c7 45 da 03 00    	movw   $0x3,-0x26(%rbp)
    49c0:	66 c7 45 dc e9 93    	movw   $0x93e9,-0x24(%rbp)
    49c6:	66 c7 45 de e9 93    	movw   $0x93e9,-0x22(%rbp)
    49cc:	48 8d 05 a5 57 01 00 	lea    0x157a5(%rip),%rax        # 1a178 <g_1304>
    49d3:	48 89 85 e0 fe ff ff 	mov    %rax,-0x120(%rbp)
    49da:	66 c7 85 d4 fe ff ff 	movw   $0xfff8,-0x12c(%rbp)
    49e1:	f8 ff 
    49e3:	c7 85 d8 fe ff ff ff 	movl   $0xffffffff,-0x128(%rbp)
    49ea:	ff ff ff 
    49ed:	c7 05 91 62 01 00 07 	movl   $0x7,0x16291(%rip)        # 1ac88 <g_3>
    49f4:	00 00 00 
    49f7:	e9 e5 02 00 00       	jmpq   4ce1 <func_1+0x52c>
    49fc:	48 c7 85 e8 fe ff ff 	movq   $0x0,-0x118(%rbp)
    4a03:	00 00 00 00 
    4a07:	c7 85 dc fe ff ff 50 	movl   $0xe6f3f950,-0x124(%rbp)
    4a0e:	f9 f3 e6 
    4a11:	66 c7 85 d6 fe ff ff 	movw   $0xffff,-0x12a(%rbp)
    4a18:	ff ff 
    4a1a:	8b 05 68 62 01 00    	mov    0x16268(%rip),%eax        # 1ac88 <g_3>
    4a20:	0f b6 d0             	movzbl %al,%edx
    4a23:	8b 05 5f 62 01 00    	mov    0x1625f(%rip),%eax        # 1ac88 <g_3>
    4a29:	88 05 4b e6 00 00    	mov    %al,0xe64b(%rip)        # 1307a <g_7+0x3a>
    4a2f:	0f b6 05 44 e6 00 00 	movzbl 0xe644(%rip),%eax        # 1307a <g_7+0x3a>
    4a36:	48 0f be c0          	movsbq %al,%rax
    4a3a:	48 8b 1d 0f 5e 01 00 	mov    0x15e0f(%rip),%rbx        # 1a850 <g_2170>
    4a41:	89 d6                	mov    %edx,%esi
    4a43:	48 89 c7             	mov    %rax,%rdi
    4a46:	e8 ca 02 00 00       	callq  4d15 <func_4>
    4a4b:	48 89 03             	mov    %rax,(%rbx)
    4a4e:	48 8b 05 9b 55 01 00 	mov    0x1559b(%rip),%rax        # 19ff0 <g_985>
    4a55:	48 c7 00 00 00 00 00 	movq   $0x0,(%rax)
    4a5c:	48 8b 05 dd 58 01 00 	mov    0x158dd(%rip),%rax        # 1a340 <g_1772>
    4a63:	0f b7 00             	movzwl (%rax),%eax
    4a66:	0f b7 d8             	movzwl %ax,%ebx
    4a69:	83 bd dc fe ff ff f7 	cmpl   $0xfffffff7,-0x124(%rbp)
    4a70:	0f 94 c0             	sete   %al
    4a73:	0f b6 c0             	movzbl %al,%eax
    4a76:	be 0b 00 00 00       	mov    $0xb,%esi
    4a7b:	89 c7                	mov    %eax,%edi
    4a7d:	e8 c6 f3 ff ff       	callq  3e48 <safe_rshift_func_uint16_t_u_s>
    4a82:	0f b7 d0             	movzwl %ax,%edx
    4a85:	48 8b 05 94 58 01 00 	mov    0x15894(%rip),%rax        # 1a320 <g_1639>
    4a8c:	48 8b 08             	mov    (%rax),%rcx
    4a8f:	48 8b 05 92 53 01 00 	mov    0x15392(%rip),%rax        # 19e28 <g_165>
    4a96:	48 8b 00             	mov    (%rax),%rax
    4a99:	48 8b 00             	mov    (%rax),%rax
    4a9c:	0f b6 00             	movzbl (%rax),%eax
    4a9f:	48 0f be c0          	movsbq %al,%rax
    4aa3:	48 39 c1             	cmp    %rax,%rcx
    4aa6:	0f 92 c0             	setb   %al
    4aa9:	0f b6 c0             	movzbl %al,%eax
    4aac:	89 d6                	mov    %edx,%esi
    4aae:	89 c7                	mov    %eax,%edi
    4ab0:	e8 01 eb ff ff       	callq  35b6 <safe_add_func_int32_t_s_s>
    4ab5:	b9 00 00 00 00       	mov    $0x0,%ecx
    4aba:	48 8b 05 ff 53 01 00 	mov    0x153ff(%rip),%rax        # 19ec0 <g_604>
    4ac1:	48 8b 00             	mov    (%rax),%rax
    4ac4:	0f b7 10             	movzwl (%rax),%edx
    4ac7:	48 8b 05 f2 53 01 00 	mov    0x153f2(%rip),%rax        # 19ec0 <g_604>
    4ace:	48 8b 00             	mov    (%rax),%rax
    4ad1:	21 ca                	and    %ecx,%edx
    4ad3:	66 89 10             	mov    %dx,(%rax)
    4ad6:	0f b7 00             	movzwl (%rax),%eax
    4ad9:	98                   	cwtl   
    4ada:	be 02 00 00 00       	mov    $0x2,%esi
    4adf:	89 c7                	mov    %eax,%edi
    4ae1:	e8 44 ea ff ff       	callq  352a <safe_rshift_func_int16_t_s_s>
    4ae6:	89 de                	mov    %ebx,%esi
    4ae8:	bf 00 00 00 00       	mov    $0x0,%edi
    4aed:	e8 9c f2 ff ff       	callq  3d8e <safe_div_func_uint16_t_u_u>
    4af2:	0f b7 c0             	movzwl %ax,%eax
    4af5:	89 c6                	mov    %eax,%esi
    4af7:	bf 01 00 00 00       	mov    $0x1,%edi
    4afc:	e8 ed e7 ff ff       	callq  32ee <safe_lshift_func_int8_t_s_u>
    4b01:	0f be c0             	movsbl %al,%eax
    4b04:	83 e0 01             	and    $0x1,%eax
    4b07:	89 c7                	mov    %eax,%edi
    4b09:	e8 73 25 00 00       	callq  7081 <func_36>
    4b0e:	0f b7 95 7a ff ff ff 	movzwl -0x86(%rbp),%edx
    4b15:	0f b7 45 96          	movzwl -0x6a(%rbp),%eax
    4b19:	66 33 85 d4 fe ff ff 	xor    -0x12c(%rbp),%ax
    4b20:	09 d0                	or     %edx,%eax
    4b22:	0f bf d0             	movswl %ax,%edx
    4b25:	0f b7 85 d6 fe ff ff 	movzwl -0x12a(%rbp),%eax
    4b2c:	39 c2                	cmp    %eax,%edx
    4b2e:	0f 9c c0             	setl   %al
    4b31:	0f b6 c0             	movzbl %al,%eax
    4b34:	31 85 d8 fe ff ff    	xor    %eax,-0x128(%rbp)
    4b3a:	66 c7 85 d6 fe ff ff 	movw   $0x0,-0x12a(%rbp)
    4b41:	00 00 
    4b43:	66 83 bd d6 fe ff ff 	cmpw   $0x7,-0x12a(%rbp)
    4b4a:	07 
    4b4b:	0f 87 81 01 00 00    	ja     4cd2 <func_1+0x51d>
    4b51:	66 c7 85 00 ff ff ff 	movw   $0x1,-0x100(%rbp)
    4b58:	01 00 
    4b5a:	66 c7 85 02 ff ff ff 	movw   $0x0,-0xfe(%rbp)
    4b61:	00 00 
    4b63:	66 c7 85 04 ff ff ff 	movw   $0x1,-0xfc(%rbp)
    4b6a:	01 00 
    4b6c:	66 c7 85 06 ff ff ff 	movw   $0x1,-0xfa(%rbp)
    4b73:	01 00 
    4b75:	66 c7 85 08 ff ff ff 	movw   $0x0,-0xf8(%rbp)
    4b7c:	00 00 
    4b7e:	66 c7 85 0a ff ff ff 	movw   $0x1,-0xf6(%rbp)
    4b85:	01 00 
    4b87:	66 c7 85 0c ff ff ff 	movw   $0x0,-0xf4(%rbp)
    4b8e:	00 00 
    4b90:	66 c7 85 0e ff ff ff 	movw   $0x1,-0xf2(%rbp)
    4b97:	01 00 
    4b99:	66 c7 85 10 ff ff ff 	movw   $0x1,-0xf0(%rbp)
    4ba0:	01 00 
    4ba2:	66 c7 85 12 ff ff ff 	movw   $0x0,-0xee(%rbp)
    4ba9:	00 00 
    4bab:	c6 05 c2 4b 01 00 07 	movb   $0x7,0x14bc2(%rip)        # 19774 <g_1300+0x14>
    4bb2:	e9 86 00 00 00       	jmpq   4c3d <func_1+0x488>
    4bb7:	48 b8 cf 49 31 85 31 	movabs $0xc3d07831853149cf,%rax
    4bbe:	78 d0 c3 
    4bc1:	48 89 85 f8 fe ff ff 	mov    %rax,-0x108(%rbp)
    4bc8:	48 8d 05 fd e4 00 00 	lea    0xe4fd(%rip),%rax        # 130cc <g_44>
    4bcf:	48 89 85 20 ff ff ff 	mov    %rax,-0xe0(%rbp)
    4bd6:	48 8d 05 13 50 01 00 	lea    0x15013(%rip),%rax        # 19bf0 <g_1977+0x10>
    4bdd:	48 89 85 28 ff ff ff 	mov    %rax,-0xd8(%rbp)
    4be4:	48 8d 05 e1 e4 00 00 	lea    0xe4e1(%rip),%rax        # 130cc <g_44>
    4beb:	48 89 85 30 ff ff ff 	mov    %rax,-0xd0(%rbp)
    4bf2:	48 8d 05 d3 e4 00 00 	lea    0xe4d3(%rip),%rax        # 130cc <g_44>
    4bf9:	48 89 85 38 ff ff ff 	mov    %rax,-0xc8(%rbp)
    4c00:	48 8d 05 e9 4f 01 00 	lea    0x14fe9(%rip),%rax        # 19bf0 <g_1977+0x10>
    4c07:	48 89 85 40 ff ff ff 	mov    %rax,-0xc0(%rbp)
    4c0e:	48 8d 05 b7 e4 00 00 	lea    0xe4b7(%rip),%rax        # 130cc <g_44>
    4c15:	48 89 85 48 ff ff ff 	mov    %rax,-0xb8(%rbp)
    4c1c:	0f b7 85 02 ff ff ff 	movzwl -0xfe(%rbp),%eax
    4c23:	83 e8 01             	sub    $0x1,%eax
    4c26:	66 89 85 02 ff ff ff 	mov    %ax,-0xfe(%rbp)
    4c2d:	0f b6 05 40 4b 01 00 	movzbl 0x14b40(%rip),%eax        # 19774 <g_1300+0x14>
    4c34:	83 e8 01             	sub    $0x1,%eax
    4c37:	88 05 37 4b 01 00    	mov    %al,0x14b37(%rip)        # 19774 <g_1300+0x14>
    4c3d:	0f b6 05 30 4b 01 00 	movzbl 0x14b30(%rip),%eax        # 19774 <g_1300+0x14>
    4c44:	84 c0                	test   %al,%al
    4c46:	0f 89 6b ff ff ff    	jns    4bb7 <func_1+0x402>
    4c4c:	66 c7 05 ab e4 00 00 	movw   $0x0,0xe4ab(%rip)        # 13100 <g_148>
    4c53:	00 00 
    4c55:	eb 40                	jmp    4c97 <func_1+0x4e2>
    4c57:	48 8d 05 52 51 01 00 	lea    0x15152(%rip),%rax        # 19db0 <g_2116+0x10>
    4c5e:	48 89 85 f0 fe ff ff 	mov    %rax,-0x110(%rbp)
    4c65:	48 8b 15 14 52 01 00 	mov    0x15214(%rip),%rdx        # 19e80 <g_339>
    4c6c:	48 8b 05 3d 52 01 00 	mov    0x1523d(%rip),%rax        # 19eb0 <g_506>
    4c73:	48 8b 12             	mov    (%rdx),%rdx
    4c76:	48 89 10             	mov    %rdx,(%rax)
    4c79:	48 8b 85 f0 fe ff ff 	mov    -0x110(%rbp),%rax
    4c80:	c7 00 ef a3 68 42    	movl   $0x4268a3ef,(%rax)
    4c86:	0f b7 05 73 e4 00 00 	movzwl 0xe473(%rip),%eax        # 13100 <g_148>
    4c8d:	83 c0 01             	add    $0x1,%eax
    4c90:	66 89 05 69 e4 00 00 	mov    %ax,0xe469(%rip)        # 13100 <g_148>
    4c97:	0f b7 05 62 e4 00 00 	movzwl 0xe462(%rip),%eax        # 13100 <g_148>
    4c9e:	66 83 f8 07          	cmp    $0x7,%ax
    4ca2:	76 b3                	jbe    4c57 <func_1+0x4a2>
    4ca4:	0f b7 85 d6 fe ff ff 	movzwl -0x12a(%rbp),%eax
    4cab:	8b 15 d7 5f 01 00    	mov    0x15fd7(%rip),%edx        # 1ac88 <g_3>
    4cb1:	48 63 ca             	movslq %edx,%rcx
    4cb4:	48 63 d0             	movslq %eax,%rdx
    4cb7:	48 89 d0             	mov    %rdx,%rax
    4cba:	48 c1 e0 03          	shl    $0x3,%rax
    4cbe:	48 01 d0             	add    %rdx,%rax
    4cc1:	48 01 c8             	add    %rcx,%rax
    4cc4:	0f b7 84 45 50 ff ff 	movzwl -0xb0(%rbp,%rax,2),%eax
    4ccb:	ff 
    4ccc:	48 0f bf c0          	movswq %ax,%rax
    4cd0:	eb 25                	jmp    4cf7 <func_1+0x542>
    4cd2:	8b 05 b0 5f 01 00    	mov    0x15fb0(%rip),%eax        # 1ac88 <g_3>
    4cd8:	83 e8 01             	sub    $0x1,%eax
    4cdb:	89 05 a7 5f 01 00    	mov    %eax,0x15fa7(%rip)        # 1ac88 <g_3>
    4ce1:	8b 05 a1 5f 01 00    	mov    0x15fa1(%rip),%eax        # 1ac88 <g_3>
    4ce7:	85 c0                	test   %eax,%eax
    4ce9:	0f 8f 0d fd ff ff    	jg     49fc <func_1+0x247>
    4cef:	48 0f bf 85 d4 fe ff 	movswq -0x12c(%rbp),%rax
    4cf6:	ff 
    4cf7:	48 8b 5d e8          	mov    -0x18(%rbp),%rbx
    4cfb:	64 48 33 1c 25 28 00 	xor    %fs:0x28,%rbx
    4d02:	00 00 
    4d04:	74 05                	je     4d0b <func_1+0x556>
    4d06:	e8 65 e3 ff ff       	callq  3070 <__stack_chk_fail@plt>
    4d0b:	48 81 c4 28 01 00 00 	add    $0x128,%rsp
    4d12:	5b                   	pop    %rbx
    4d13:	5d                   	pop    %rbp
    4d14:	c3                   	retq   

0000000000004d15 <func_4>:
    4d15:	f3 0f 1e fa          	endbr64 
    4d19:	55                   	push   %rbp
    4d1a:	48 89 e5             	mov    %rsp,%rbp
    4d1d:	48 81 ec b0 03 00 00 	sub    $0x3b0,%rsp
    4d24:	48 89 bd 58 fc ff ff 	mov    %rdi,-0x3a8(%rbp)
    4d2b:	89 f0                	mov    %esi,%eax
    4d2d:	88 85 54 fc ff ff    	mov    %al,-0x3ac(%rbp)
    4d33:	64 48 8b 04 25 28 00 	mov    %fs:0x28,%rax
    4d3a:	00 00 
    4d3c:	48 89 45 f8          	mov    %rax,-0x8(%rbp)
    4d40:	31 c0                	xor    %eax,%eax
    4d42:	66 c7 85 c8 fc ff ff 	movw   $0x24df,-0x338(%rbp)
    4d49:	df 24 
    4d4b:	66 c7 85 ca fc ff ff 	movw   $0x24df,-0x336(%rbp)
    4d52:	df 24 
    4d54:	66 c7 85 cc fc ff ff 	movw   $0x24df,-0x334(%rbp)
    4d5b:	df 24 
    4d5d:	66 c7 85 ce fc ff ff 	movw   $0x24df,-0x332(%rbp)
    4d64:	df 24 
    4d66:	48 8d 85 60 fe ff ff 	lea    -0x1a0(%rbp),%rax
    4d6d:	48 8d 15 ec 93 00 00 	lea    0x93ec(%rip),%rdx        # e160 <g_2089+0x10>
    4d74:	b9 32 00 00 00       	mov    $0x32,%ecx
    4d79:	48 89 c7             	mov    %rax,%rdi
    4d7c:	48 89 d6             	mov    %rdx,%rsi
    4d7f:	f3 48 a5             	rep movsq %ds:(%rsi),%es:(%rdi)
    4d82:	48 8d 05 3f 5f 01 00 	lea    0x15f3f(%rip),%rax        # 1acc8 <g_518>
    4d89:	48 89 85 88 fc ff ff 	mov    %rax,-0x378(%rbp)
    4d90:	48 c7 85 90 fc ff ff 	movq   $0x0,-0x370(%rbp)
    4d97:	00 00 00 00 
    4d9b:	48 c7 85 98 fc ff ff 	movq   $0x0,-0x368(%rbp)
    4da2:	00 00 00 00 
    4da6:	48 8d 85 20 fd ff ff 	lea    -0x2e0(%rbp),%rax
    4dad:	48 8d 15 4c 95 00 00 	lea    0x954c(%rip),%rdx        # e300 <g_2089+0x1b0>
    4db4:	b9 28 00 00 00       	mov    $0x28,%ecx
    4db9:	48 89 c7             	mov    %rax,%rdi
    4dbc:	48 89 d6             	mov    %rdx,%rsi
    4dbf:	f3 48 a5             	rep movsq %ds:(%rsi),%es:(%rdi)
    4dc2:	c7 85 74 fc ff ff 3a 	movl   $0x4479903a,-0x38c(%rbp)
    4dc9:	90 79 44 
    4dcc:	48 8d 05 75 55 01 00 	lea    0x15575(%rip),%rax        # 1a348 <g_1771>
    4dd3:	48 89 85 a0 fc ff ff 	mov    %rax,-0x360(%rbp)
    4dda:	48 8d 05 f3 e2 00 00 	lea    0xe2f3(%rip),%rax        # 130d4 <g_98>
    4de1:	48 89 85 80 fc ff ff 	mov    %rax,-0x380(%rbp)
    4de8:	48 8d 85 80 fc ff ff 	lea    -0x380(%rbp),%rax
    4def:	48 89 85 a8 fc ff ff 	mov    %rax,-0x358(%rbp)
    4df6:	c6 85 67 fc ff ff f1 	movb   $0xf1,-0x399(%rbp)
    4dfd:	c6 85 68 fc ff ff a5 	movb   $0xa5,-0x398(%rbp)
    4e04:	c6 85 69 fc ff ff f6 	movb   $0xf6,-0x397(%rbp)
    4e0b:	48 c7 85 b0 fc ff ff 	movq   $0x0,-0x350(%rbp)
    4e12:	00 00 00 00 
    4e16:	48 8d 05 13 30 01 00 	lea    0x13013(%rip),%rax        # 17e30 <g_753+0x8f0>
    4e1d:	48 89 85 b8 fc ff ff 	mov    %rax,-0x348(%rbp)
    4e24:	c7 85 78 fc ff ff f7 	movl   $0xfffffff7,-0x388(%rbp)
    4e2b:	ff ff ff 
    4e2e:	c7 85 7c fc ff ff ff 	movl   $0xffffffff,-0x384(%rbp)
    4e35:	ff ff ff 
    4e38:	66 c7 85 6a fc ff ff 	movw   $0xffff,-0x396(%rbp)
    4e3f:	ff ff 
    4e41:	48 b8 b9 b9 b9 b9 b9 	movabs $0xb9b9b9b9b9b9b9b9,%rax
    4e48:	b9 b9 b9 
    4e4b:	48 89 85 e0 fc ff ff 	mov    %rax,-0x320(%rbp)
    4e52:	66 c7 85 e8 fc ff ff 	movw   $0xb9b9,-0x318(%rbp)
    4e59:	b9 b9 
    4e5b:	48 89 85 ea fc ff ff 	mov    %rax,-0x316(%rbp)
    4e62:	66 c7 85 f2 fc ff ff 	movw   $0xb9b9,-0x30e(%rbp)
    4e69:	b9 b9 
    4e6b:	48 c7 85 c0 fc ff ff 	movq   $0x0,-0x340(%rbp)
    4e72:	00 00 00 00 
    4e76:	c7 85 6c fc ff ff 00 	movl   $0x0,-0x394(%rbp)
    4e7d:	00 00 00 
    4e80:	eb 1e                	jmp    4ea0 <func_4+0x18b>
    4e82:	8b 85 6c fc ff ff    	mov    -0x394(%rbp),%eax
    4e88:	48 98                	cltq   
    4e8a:	48 8d 15 ef 50 01 00 	lea    0x150ef(%rip),%rdx        # 19f80 <g_787>
    4e91:	48 89 94 c5 00 fd ff 	mov    %rdx,-0x300(%rbp,%rax,8)
    4e98:	ff 
    4e99:	83 85 6c fc ff ff 01 	addl   $0x1,-0x394(%rbp)
    4ea0:	83 bd 6c fc ff ff 03 	cmpl   $0x3,-0x394(%rbp)
    4ea7:	7e d9                	jle    4e82 <func_4+0x16d>
    4ea9:	c7 85 6c fc ff ff 00 	movl   $0x0,-0x394(%rbp)
    4eb0:	00 00 00 
    4eb3:	eb 14                	jmp    4ec9 <func_4+0x1b4>
    4eb5:	8b 85 6c fc ff ff    	mov    -0x394(%rbp),%eax
    4ebb:	48 98                	cltq   
    4ebd:	c6 44 05 f5 e0       	movb   $0xe0,-0xb(%rbp,%rax,1)
    4ec2:	83 85 6c fc ff ff 01 	addl   $0x1,-0x394(%rbp)
    4ec9:	83 bd 6c fc ff ff 02 	cmpl   $0x2,-0x394(%rbp)
    4ed0:	7e e3                	jle    4eb5 <func_4+0x1a0>
    4ed2:	c7 85 6c fc ff ff 00 	movl   $0x0,-0x394(%rbp)
    4ed9:	00 00 00 
    4edc:	eb 46                	jmp    4f24 <func_4+0x20f>
    4ede:	c7 85 70 fc ff ff 00 	movl   $0x0,-0x390(%rbp)
    4ee5:	00 00 00 
    4ee8:	eb 2a                	jmp    4f14 <func_4+0x1ff>
    4eea:	8b 85 70 fc ff ff    	mov    -0x390(%rbp),%eax
    4ef0:	48 98                	cltq   
    4ef2:	8b 95 6c fc ff ff    	mov    -0x394(%rbp),%edx
    4ef8:	48 63 d2             	movslq %edx,%rdx
    4efb:	48 c1 e2 02          	shl    $0x2,%rdx
    4eff:	48 01 d0             	add    %rdx,%rax
    4f02:	c7 84 85 d0 fc ff ff 	movl   $0xea670c28,-0x330(%rbp,%rax,4)
    4f09:	28 0c 67 ea 
    4f0d:	83 85 70 fc ff ff 01 	addl   $0x1,-0x390(%rbp)
    4f14:	83 bd 70 fc ff ff 03 	cmpl   $0x3,-0x390(%rbp)
    4f1b:	7e cd                	jle    4eea <func_4+0x1d5>
    4f1d:	83 85 6c fc ff ff 01 	addl   $0x1,-0x394(%rbp)
    4f24:	83 bd 6c fc ff ff 00 	cmpl   $0x0,-0x394(%rbp)
    4f2b:	7e b1                	jle    4ede <func_4+0x1c9>
    4f2d:	48 8b 05 2c 54 01 00 	mov    0x1542c(%rip),%rax        # 1a360 <g_1890>
    4f34:	48 8b 00             	mov    (%rax),%rax
    4f37:	48 8b 4d f8          	mov    -0x8(%rbp),%rcx
    4f3b:	64 48 33 0c 25 28 00 	xor    %fs:0x28,%rcx
    4f42:	00 00 
    4f44:	74 05                	je     4f4b <func_4+0x236>
    4f46:	e8 25 e1 ff ff       	callq  3070 <__stack_chk_fail@plt>
    4f4b:	c9                   	leaveq 
    4f4c:	c3                   	retq   

0000000000004f4d <func_12>:
    4f4d:	f3 0f 1e fa          	endbr64 
    4f51:	55                   	push   %rbp
    4f52:	48 89 e5             	mov    %rsp,%rbp
    4f55:	41 57                	push   %r15
    4f57:	41 56                	push   %r14
    4f59:	41 55                	push   %r13
    4f5b:	41 54                	push   %r12
    4f5d:	53                   	push   %rbx
    4f5e:	48 81 ec 48 07 00 00 	sub    $0x748,%rsp
    4f65:	48 89 bd a8 f8 ff ff 	mov    %rdi,-0x758(%rbp)
    4f6c:	89 b5 a4 f8 ff ff    	mov    %esi,-0x75c(%rbp)
    4f72:	89 95 a0 f8 ff ff    	mov    %edx,-0x760(%rbp)
    4f78:	89 c8                	mov    %ecx,%eax
    4f7a:	88 85 9c f8 ff ff    	mov    %al,-0x764(%rbp)
    4f80:	64 48 8b 04 25 28 00 	mov    %fs:0x28,%rax
    4f87:	00 00 
    4f89:	48 89 45 c8          	mov    %rax,-0x38(%rbp)
    4f8d:	31 c0                	xor    %eax,%eax
    4f8f:	48 8d 05 e2 4e 01 00 	lea    0x14ee2(%rip),%rax        # 19e78 <g_340>
    4f96:	48 89 85 c8 f8 ff ff 	mov    %rax,-0x738(%rbp)
    4f9d:	48 8d 05 7c 48 01 00 	lea    0x1487c(%rip),%rax        # 19820 <g_1398>
    4fa4:	48 89 85 c0 f8 ff ff 	mov    %rax,-0x740(%rbp)
    4fab:	48 8d 85 c0 f8 ff ff 	lea    -0x740(%rbp),%rax
    4fb2:	48 89 85 d0 f8 ff ff 	mov    %rax,-0x730(%rbp)
    4fb9:	48 c7 85 d8 f8 ff ff 	movq   $0x0,-0x728(%rbp)
    4fc0:	00 00 00 00 
    4fc4:	48 c7 85 e0 f8 ff ff 	movq   $0x0,-0x720(%rbp)
    4fcb:	00 00 00 00 
    4fcf:	48 8d 05 2a e1 00 00 	lea    0xe12a(%rip),%rax        # 13100 <g_148>
    4fd6:	48 89 85 e8 f8 ff ff 	mov    %rax,-0x718(%rbp)
    4fdd:	48 c7 85 f0 f8 ff ff 	movq   $0x0,-0x710(%rbp)
    4fe4:	00 00 00 00 
    4fe8:	48 8d 05 09 e1 00 00 	lea    0xe109(%rip),%rax        # 130f8 <g_129+0x18>
    4fef:	48 89 85 f8 f8 ff ff 	mov    %rax,-0x708(%rbp)
    4ff6:	48 8d 85 00 f9 ff ff 	lea    -0x700(%rbp),%rax
    4ffd:	48 8d 15 3c 94 00 00 	lea    0x943c(%rip),%rdx        # e440 <g_2089+0x2f0>
    5004:	b9 d8 00 00 00       	mov    $0xd8,%ecx
    5009:	48 89 c7             	mov    %rax,%rdi
    500c:	48 89 d6             	mov    %rdx,%rsi
    500f:	f3 48 a5             	rep movsq %ds:(%rsi),%es:(%rdi)
    5012:	c7 85 bc f8 ff ff 89 	movl   $0x49898489,-0x744(%rbp)
    5019:	84 89 49 
    501c:	48 8b 05 65 4f 01 00 	mov    0x14f65(%rip),%rax        # 19f88 <g_799>
    5023:	0f b6 00             	movzbl (%rax),%eax
    5026:	0f be c0             	movsbl %al,%eax
    5029:	25 96 00 00 00       	and    $0x96,%eax
    502e:	89 c2                	mov    %eax,%edx
    5030:	48 8b 05 d9 4d 01 00 	mov    0x14dd9(%rip),%rax        # 19e10 <g_68>
    5037:	89 d6                	mov    %edx,%esi
    5039:	8b 38                	mov    (%rax),%edi
    503b:	e8 1c 01 00 00       	callq  515c <func_17>
    5040:	48 8b 95 c8 f8 ff ff 	mov    -0x738(%rbp),%rdx
    5047:	48 89 02             	mov    %rax,(%rdx)
    504a:	48 8b 85 c8 f8 ff ff 	mov    -0x738(%rbp),%rax
    5051:	48 8b 00             	mov    (%rax),%rax
    5054:	44 8b 20             	mov    (%rax),%r12d
    5057:	48 8b 85 f0 fd ff ff 	mov    -0x210(%rbp),%rax
    505e:	41 89 c7             	mov    %eax,%r15d
    5061:	0f b6 85 9c f8 ff ff 	movzbl -0x764(%rbp),%eax
    5068:	48 89 c7             	mov    %rax,%rdi
    506b:	e8 a6 e7 ff ff       	callq  3816 <safe_unary_minus_func_int64_t_s>
    5070:	48 85 c0             	test   %rax,%rax
    5073:	74 28                	je     509d <func_12+0x150>
    5075:	0f b7 05 d4 47 01 00 	movzwl 0x147d4(%rip),%eax        # 19850 <g_1485>
    507c:	0f b7 d0             	movzwl %ax,%edx
    507f:	48 8b 85 f8 f8 ff ff 	mov    -0x708(%rbp),%rax
    5086:	89 10                	mov    %edx,(%rax)
    5088:	48 8b 85 f8 f8 ff ff 	mov    -0x708(%rbp),%rax
    508f:	8b 00                	mov    (%rax),%eax
    5091:	85 c0                	test   %eax,%eax
    5093:	74 08                	je     509d <func_12+0x150>
    5095:	41 be 01 00 00 00    	mov    $0x1,%r14d
    509b:	eb 06                	jmp    50a3 <func_12+0x156>
    509d:	41 be 00 00 00 00    	mov    $0x0,%r14d
    50a3:	8b 85 a0 f8 ff ff    	mov    -0x760(%rbp),%eax
    50a9:	89 c2                	mov    %eax,%edx
    50ab:	48 8b 85 e8 f8 ff ff 	mov    -0x718(%rbp),%rax
    50b2:	66 89 10             	mov    %dx,(%rax)
    50b5:	48 8d 85 c0 f8 ff ff 	lea    -0x740(%rbp),%rax
    50bc:	48 39 85 d0 f8 ff ff 	cmp    %rax,-0x730(%rbp)
    50c3:	0f 94 c0             	sete   %al
    50c6:	44 0f b6 e8          	movzbl %al,%r13d
    50ca:	48 8b 85 c8 f8 ff ff 	mov    -0x738(%rbp),%rax
    50d1:	48 8b 00             	mov    (%rax),%rax
    50d4:	8b 00                	mov    (%rax),%eax
    50d6:	0f be c0             	movsbl %al,%eax
    50d9:	48 8b 1d 38 4d 01 00 	mov    0x14d38(%rip),%rbx        # 19e18 <g_167>
    50e0:	be 00 00 00 00       	mov    $0x0,%esi
    50e5:	89 c7                	mov    %eax,%edi
    50e7:	e8 e8 e0 ff ff       	callq  31d4 <safe_add_func_int8_t_s_s>
    50ec:	88 03                	mov    %al,(%rbx)
    50ee:	0f b6 03             	movzbl (%rbx),%eax
    50f1:	0f be c0             	movsbl %al,%eax
    50f4:	44 89 ee             	mov    %r13d,%esi
    50f7:	89 c7                	mov    %eax,%edi
    50f9:	e8 14 e1 ff ff       	callq  3212 <safe_mul_func_int8_t_s_s>
    50fe:	66 98                	cbtw   
    5100:	0f b7 c0             	movzwl %ax,%eax
    5103:	44 89 f6             	mov    %r14d,%esi
    5106:	89 c7                	mov    %eax,%edi
    5108:	e8 3b ed ff ff       	callq  3e48 <safe_rshift_func_uint16_t_u_s>
    510d:	98                   	cwtl   
    510e:	44 89 fe             	mov    %r15d,%esi
    5111:	89 c7                	mov    %eax,%edi
    5113:	e8 12 e4 ff ff       	callq  352a <safe_rshift_func_int16_t_s_s>
    5118:	98                   	cwtl   
    5119:	44 89 e6             	mov    %r12d,%esi
    511c:	89 c7                	mov    %eax,%edi
    511e:	e8 6f e3 ff ff       	callq  3492 <safe_lshift_func_int16_t_s_s>
    5123:	98                   	cwtl   
    5124:	89 85 bc f8 ff ff    	mov    %eax,-0x744(%rbp)
    512a:	48 8b 85 c8 f8 ff ff 	mov    -0x738(%rbp),%rax
    5131:	48 8b 00             	mov    (%rax),%rax
    5134:	8b 00                	mov    (%rax),%eax
    5136:	48 8b 4d c8          	mov    -0x38(%rbp),%rcx
    513a:	64 48 33 0c 25 28 00 	xor    %fs:0x28,%rcx
    5141:	00 00 
    5143:	74 05                	je     514a <func_12+0x1fd>
    5145:	e8 26 df ff ff       	callq  3070 <__stack_chk_fail@plt>
    514a:	48 81 c4 48 07 00 00 	add    $0x748,%rsp
    5151:	5b                   	pop    %rbx
    5152:	41 5c                	pop    %r12
    5154:	41 5d                	pop    %r13
    5156:	41 5e                	pop    %r14
    5158:	41 5f                	pop    %r15
    515a:	5d                   	pop    %rbp
    515b:	c3                   	retq   

000000000000515c <func_17>:
    515c:	f3 0f 1e fa          	endbr64 
    5160:	55                   	push   %rbp
    5161:	48 89 e5             	mov    %rsp,%rbp
    5164:	89 7d ec             	mov    %edi,-0x14(%rbp)
    5167:	89 f0                	mov    %esi,%eax
    5169:	66 89 45 e8          	mov    %ax,-0x18(%rbp)
    516d:	48 c7 45 f0 00 00 00 	movq   $0x0,-0x10(%rbp)
    5174:	00 
    5175:	48 8d 05 6c 4d 01 00 	lea    0x14d6c(%rip),%rax        # 19ee8 <g_752>
    517c:	48 89 45 f8          	mov    %rax,-0x8(%rbp)
    5180:	48 8b 45 f8          	mov    -0x8(%rbp),%rax
    5184:	48 8b 55 f0          	mov    -0x10(%rbp),%rdx
    5188:	48 89 10             	mov    %rdx,(%rax)
    518b:	48 8b 05 be 4e 01 00 	mov    0x14ebe(%rip),%rax        # 1a050 <g_1212>
    5192:	48 8b 00             	mov    (%rax),%rax
    5195:	5d                   	pop    %rbp
    5196:	c3                   	retq   

0000000000005197 <func_20>:
    5197:	f3 0f 1e fa          	endbr64 
    519b:	55                   	push   %rbp
    519c:	48 89 e5             	mov    %rsp,%rbp
    519f:	53                   	push   %rbx
    51a0:	48 81 ec 88 05 00 00 	sub    $0x588,%rsp
    51a7:	89 bd 7c fa ff ff    	mov    %edi,-0x584(%rbp)
    51ad:	89 f0                	mov    %esi,%eax
    51af:	66 89 85 78 fa ff ff 	mov    %ax,-0x588(%rbp)
    51b6:	64 48 8b 04 25 28 00 	mov    %fs:0x28,%rax
    51bd:	00 00 
    51bf:	48 89 45 e8          	mov    %rax,-0x18(%rbp)
    51c3:	31 c0                	xor    %eax,%eax
    51c5:	48 8d 05 00 df 00 00 	lea    0xdf00(%rip),%rax        # 130cc <g_44>
    51cc:	48 89 85 e0 fa ff ff 	mov    %rax,-0x520(%rbp)
    51d3:	48 8d 05 46 43 01 00 	lea    0x14346(%rip),%rax        # 19520 <g_758+0x60>
    51da:	48 89 85 e8 fa ff ff 	mov    %rax,-0x518(%rbp)
    51e1:	48 8d 05 50 0f 01 00 	lea    0x10f50(%rip),%rax        # 16138 <g_313+0xd8>
    51e8:	48 89 85 f0 fa ff ff 	mov    %rax,-0x510(%rbp)
    51ef:	c7 85 98 fa ff ff 09 	movl   $0x9,-0x568(%rbp)
    51f6:	00 00 00 
    51f9:	c7 85 9c fa ff ff 01 	movl   $0x1,-0x564(%rbp)
    5200:	00 00 00 
    5203:	c7 85 b0 fb ff ff 00 	movl   $0x0,-0x450(%rbp)
    520a:	00 00 00 
    520d:	c7 85 b4 fb ff ff 73 	movl   $0x46805d73,-0x44c(%rbp)
    5214:	5d 80 46 
    5217:	c7 85 b8 fb ff ff 00 	movl   $0x0,-0x448(%rbp)
    521e:	00 00 00 
    5221:	c7 85 bc fb ff ff 00 	movl   $0x0,-0x444(%rbp)
    5228:	00 00 00 
    522b:	c7 85 c0 fb ff ff 73 	movl   $0x46805d73,-0x440(%rbp)
    5232:	5d 80 46 
    5235:	c7 85 c4 fb ff ff 00 	movl   $0x0,-0x43c(%rbp)
    523c:	00 00 00 
    523f:	c7 85 c8 fb ff ff 00 	movl   $0x0,-0x438(%rbp)
    5246:	00 00 00 
    5249:	66 c7 85 8e fa ff ff 	movw   $0x5c67,-0x572(%rbp)
    5250:	67 5c 
    5252:	0f b7 85 90 fa ff ff 	movzwl -0x570(%rbp),%eax
    5259:	66 25 00 fc          	and    $0xfc00,%ax
    525d:	83 c8 14             	or     $0x14,%eax
    5260:	66 89 85 90 fa ff ff 	mov    %ax,-0x570(%rbp)
    5267:	48 c7 85 f8 fa ff ff 	movq   $0x0,-0x508(%rbp)
    526e:	00 00 00 00 
    5272:	c6 85 8c fa ff ff 3a 	movb   $0x3a,-0x574(%rbp)
    5279:	48 8d 05 00 4d 01 00 	lea    0x14d00(%rip),%rax        # 19f80 <g_787>
    5280:	48 89 85 00 fb ff ff 	mov    %rax,-0x500(%rbp)
    5287:	48 c7 85 08 fb ff ff 	movq   $0x0,-0x4f8(%rbp)
    528e:	00 00 00 00 
    5292:	48 8d 05 0f 4c 01 00 	lea    0x14c0f(%rip),%rax        # 19ea8 <g_488>
    5299:	48 89 85 10 fb ff ff 	mov    %rax,-0x4f0(%rbp)
    52a0:	48 8d 05 25 de 00 00 	lea    0xde25(%rip),%rax        # 130cc <g_44>
    52a7:	48 89 85 18 fb ff ff 	mov    %rax,-0x4e8(%rbp)
    52ae:	48 8d 05 7b 45 01 00 	lea    0x1457b(%rip),%rax        # 19830 <g_1398+0x10>
    52b5:	48 89 85 20 fb ff ff 	mov    %rax,-0x4e0(%rbp)
    52bc:	48 c7 85 28 fb ff ff 	movq   $0x0,-0x4d8(%rbp)
    52c3:	00 00 00 00 
    52c7:	c7 85 a0 fa ff ff ff 	movl   $0xffffffff,-0x560(%rbp)
    52ce:	ff ff ff 
    52d1:	48 8b 85 e0 fa ff ff 	mov    -0x520(%rbp),%rax
    52d8:	8b 10                	mov    (%rax),%edx
    52da:	48 8b 85 e0 fa ff ff 	mov    -0x520(%rbp),%rax
    52e1:	89 10                	mov    %edx,(%rax)
    52e3:	c7 05 7f 0f 01 00 fe 	movl   $0xfffffffe,0x10f7f(%rip)        # 1626c <g_534+0x2c>
    52ea:	ff ff ff 
    52ed:	e9 f2 04 00 00       	jmpq   57e4 <func_20+0x64d>
    52f2:	c7 85 a4 fa ff ff 13 	movl   $0x35acf513,-0x55c(%rbp)
    52f9:	f5 ac 35 
    52fc:	c7 85 a8 fa ff ff 50 	movl   $0x26d98150,-0x558(%rbp)
    5303:	81 d9 26 
    5306:	c7 85 ac fa ff ff dd 	movl   $0x5e9580dd,-0x554(%rbp)
    530d:	80 95 5e 
    5310:	c7 85 b0 fa ff ff 03 	movl   $0x3,-0x550(%rbp)
    5317:	00 00 00 
    531a:	c7 85 b4 fa ff ff ad 	movl   $0x7d826aad,-0x54c(%rbp)
    5321:	6a 82 7d 
    5324:	c7 85 b8 fa ff ff 21 	movl   $0x6be52621,-0x548(%rbp)
    532b:	26 e5 6b 
    532e:	c7 85 bc fa ff ff ff 	movl   $0xffffffff,-0x544(%rbp)
    5335:	ff ff ff 
    5338:	c7 85 c0 fa ff ff 67 	movl   $0x9698a67,-0x540(%rbp)
    533f:	8a 69 09 
    5342:	c7 85 c4 fa ff ff 75 	movl   $0xc7bec875,-0x53c(%rbp)
    5349:	c8 be c7 
    534c:	c7 85 20 fc ff ff 5e 	movl   $0xaa26615e,-0x3e0(%rbp)
    5353:	61 26 aa 
    5356:	c7 85 24 fc ff ff 5e 	movl   $0xaa26615e,-0x3dc(%rbp)
    535d:	61 26 aa 
    5360:	c7 85 28 fc ff ff 5e 	movl   $0xaa26615e,-0x3d8(%rbp)
    5367:	61 26 aa 
    536a:	c7 85 2c fc ff ff 5e 	movl   $0xaa26615e,-0x3d4(%rbp)
    5371:	61 26 aa 
    5374:	c7 85 30 fc ff ff 5e 	movl   $0xaa26615e,-0x3d0(%rbp)
    537b:	61 26 aa 
    537e:	c7 85 34 fc ff ff 5e 	movl   $0xaa26615e,-0x3cc(%rbp)
    5385:	61 26 aa 
    5388:	c7 85 38 fc ff ff 5e 	movl   $0xaa26615e,-0x3c8(%rbp)
    538f:	61 26 aa 
    5392:	c7 85 3c fc ff ff 5e 	movl   $0xaa26615e,-0x3c4(%rbp)
    5399:	61 26 aa 
    539c:	c7 85 40 fc ff ff 5e 	movl   $0xaa26615e,-0x3c0(%rbp)
    53a3:	61 26 aa 
    53a6:	c7 85 44 fc ff ff 01 	movl   $0x1,-0x3bc(%rbp)
    53ad:	00 00 00 
    53b0:	c7 85 48 fc ff ff 00 	movl   $0x0,-0x3b8(%rbp)
    53b7:	00 00 00 
    53ba:	c7 85 4c fc ff ff 01 	movl   $0x1,-0x3b4(%rbp)
    53c1:	00 00 00 
    53c4:	c7 85 50 fc ff ff 00 	movl   $0x0,-0x3b0(%rbp)
    53cb:	00 00 00 
    53ce:	c7 85 54 fc ff ff 01 	movl   $0x1,-0x3ac(%rbp)
    53d5:	00 00 00 
    53d8:	c7 85 58 fc ff ff 00 	movl   $0x0,-0x3a8(%rbp)
    53df:	00 00 00 
    53e2:	c7 85 5c fc ff ff 01 	movl   $0x1,-0x3a4(%rbp)
    53e9:	00 00 00 
    53ec:	c7 85 60 fc ff ff 00 	movl   $0x0,-0x3a0(%rbp)
    53f3:	00 00 00 
    53f6:	c7 85 64 fc ff ff 01 	movl   $0x1,-0x39c(%rbp)
    53fd:	00 00 00 
    5400:	c7 85 68 fc ff ff 5e 	movl   $0xaa26615e,-0x398(%rbp)
    5407:	61 26 aa 
    540a:	c7 85 6c fc ff ff 5e 	movl   $0xaa26615e,-0x394(%rbp)
    5411:	61 26 aa 
    5414:	c7 85 70 fc ff ff 5e 	movl   $0xaa26615e,-0x390(%rbp)
    541b:	61 26 aa 
    541e:	c7 85 74 fc ff ff 5e 	movl   $0xaa26615e,-0x38c(%rbp)
    5425:	61 26 aa 
    5428:	c7 85 78 fc ff ff 5e 	movl   $0xaa26615e,-0x388(%rbp)
    542f:	61 26 aa 
    5432:	c7 85 7c fc ff ff 5e 	movl   $0xaa26615e,-0x384(%rbp)
    5439:	61 26 aa 
    543c:	c7 85 80 fc ff ff 5e 	movl   $0xaa26615e,-0x380(%rbp)
    5443:	61 26 aa 
    5446:	c7 85 84 fc ff ff 5e 	movl   $0xaa26615e,-0x37c(%rbp)
    544d:	61 26 aa 
    5450:	c7 85 88 fc ff ff 5e 	movl   $0xaa26615e,-0x378(%rbp)
    5457:	61 26 aa 
    545a:	48 8d 05 17 4d 01 00 	lea    0x14d17(%rip),%rax        # 1a178 <g_1304>
    5461:	48 89 85 30 fb ff ff 	mov    %rax,-0x4d0(%rbp)
    5468:	48 8d 05 c1 39 01 00 	lea    0x139c1(%rip),%rax        # 18e30 <g_753+0x18f0>
    546f:	48 89 85 38 fb ff ff 	mov    %rax,-0x4c8(%rbp)
    5476:	48 c7 85 40 fb ff ff 	movq   $0x0,-0x4c0(%rbp)
    547d:	00 00 00 00 
    5481:	48 8d 05 f8 4c 01 00 	lea    0x14cf8(%rip),%rax        # 1a180 <g_1303>
    5488:	48 89 85 d8 fa ff ff 	mov    %rax,-0x528(%rbp)
    548f:	48 c7 85 48 fb ff ff 	movq   $0x0,-0x4b8(%rbp)
    5496:	00 00 00 00 
    549a:	c7 85 c8 fa ff ff 00 	movl   $0x0,-0x538(%rbp)
    54a1:	00 00 00 
    54a4:	48 c7 85 f0 fb ff ff 	movq   $0x0,-0x410(%rbp)
    54ab:	00 00 00 00 
    54af:	48 c7 85 f8 fb ff ff 	movq   $0x0,-0x408(%rbp)
    54b6:	00 00 00 00 
    54ba:	48 c7 85 00 fc ff ff 	movq   $0x0,-0x400(%rbp)
    54c1:	00 00 00 00 
    54c5:	48 c7 85 08 fc ff ff 	movq   $0x0,-0x3f8(%rbp)
    54cc:	00 00 00 00 
    54d0:	48 c7 85 10 fc ff ff 	movq   $0x0,-0x3f0(%rbp)
    54d7:	00 00 00 00 
    54db:	48 c7 85 18 fc ff ff 	movq   $0x0,-0x3e8(%rbp)
    54e2:	00 00 00 00 
    54e6:	c7 85 94 fa ff ff 00 	movl   $0x0,-0x56c(%rbp)
    54ed:	00 00 00 
    54f0:	eb 1e                	jmp    5510 <func_20+0x379>
    54f2:	8b 85 94 fa ff ff    	mov    -0x56c(%rbp),%eax
    54f8:	48 98                	cltq   
    54fa:	48 8d 15 7f 4a 01 00 	lea    0x14a7f(%rip),%rdx        # 19f80 <g_787>
    5501:	48 89 94 c5 d0 fb ff 	mov    %rdx,-0x430(%rbp,%rax,8)
    5508:	ff 
    5509:	83 85 94 fa ff ff 01 	addl   $0x1,-0x56c(%rbp)
    5510:	83 bd 94 fa ff ff 03 	cmpl   $0x3,-0x56c(%rbp)
    5517:	7e d9                	jle    54f2 <func_20+0x35b>
    5519:	c7 05 a9 db 00 00 00 	movl   $0x0,0xdba9(%rip)        # 130cc <g_44>
    5520:	00 00 00 
    5523:	e9 cb 00 00 00       	jmpq   55f3 <func_20+0x45c>
    5528:	c7 85 80 fb ff ff 59 	movl   $0x72bbb559,-0x480(%rbp)
    552f:	b5 bb 72 
    5532:	48 c7 85 88 fb ff ff 	movq   $0x1,-0x478(%rbp)
    5539:	01 00 00 00 
    553d:	c7 85 90 fb ff ff ff 	movl   $0xffffffff,-0x470(%rbp)
    5544:	ff ff ff 
    5547:	c6 85 94 fb ff ff 15 	movb   $0x15,-0x46c(%rbp)
    554e:	c7 85 98 fb ff ff ff 	movl   $0xffffffff,-0x468(%rbp)
    5555:	ff ff ff 
    5558:	48 b8 45 fc 3b 6b 4a 	movabs $0xa15a324a6b3bfc45,%rax
    555f:	32 5a a1 
    5562:	48 89 85 a0 fb ff ff 	mov    %rax,-0x460(%rbp)
    5569:	c7 85 a8 fb ff ff f4 	movl   $0xb080df4,-0x458(%rbp)
    5570:	0d 08 0b 
    5573:	c7 85 ac fb ff ff 8a 	movl   $0x962258a,-0x454(%rbp)
    557a:	25 62 09 
    557d:	8b 05 49 db 00 00    	mov    0xdb49(%rip),%eax        # 130cc <g_44>
    5583:	48 63 d0             	movslq %eax,%rdx
    5586:	48 89 d0             	mov    %rdx,%rax
    5589:	48 01 c0             	add    %rax,%rax
    558c:	48 01 d0             	add    %rdx,%rax
    558f:	48 c1 e0 04          	shl    $0x4,%rax
    5593:	48 89 c2             	mov    %rax,%rdx
    5596:	48 8d 05 03 1e 01 00 	lea    0x11e03(%rip),%rax        # 173a0 <g_711>
    559d:	48 8b 8d 80 fb ff ff 	mov    -0x480(%rbp),%rcx
    55a4:	48 8b 9d 88 fb ff ff 	mov    -0x478(%rbp),%rbx
    55ab:	48 89 0c 02          	mov    %rcx,(%rdx,%rax,1)
    55af:	48 89 5c 02 08       	mov    %rbx,0x8(%rdx,%rax,1)
    55b4:	48 8b 8d 90 fb ff ff 	mov    -0x470(%rbp),%rcx
    55bb:	48 8b 9d 98 fb ff ff 	mov    -0x468(%rbp),%rbx
    55c2:	48 89 4c 02 10       	mov    %rcx,0x10(%rdx,%rax,1)
    55c7:	48 89 5c 02 18       	mov    %rbx,0x18(%rdx,%rax,1)
    55cc:	48 8b 8d a0 fb ff ff 	mov    -0x460(%rbp),%rcx
    55d3:	48 8b 9d a8 fb ff ff 	mov    -0x458(%rbp),%rbx
    55da:	48 89 4c 02 20       	mov    %rcx,0x20(%rdx,%rax,1)
    55df:	48 89 5c 02 28       	mov    %rbx,0x28(%rdx,%rax,1)
    55e4:	8b 05 e2 da 00 00    	mov    0xdae2(%rip),%eax        # 130cc <g_44>
    55ea:	83 c0 01             	add    $0x1,%eax
    55ed:	89 05 d9 da 00 00    	mov    %eax,0xdad9(%rip)        # 130cc <g_44>
    55f3:	8b 05 d3 da 00 00    	mov    0xdad3(%rip),%eax        # 130cc <g_44>
    55f9:	83 f8 07             	cmp    $0x7,%eax
    55fc:	0f 8e 26 ff ff ff    	jle    5528 <func_20+0x391>
    5602:	66 c7 05 f5 da 00 00 	movw   $0x0,0xdaf5(%rip)        # 13100 <g_148>
    5609:	00 00 
    560b:	e9 a1 01 00 00       	jmpq   57b1 <func_20+0x61a>
    5610:	48 8d 05 f9 09 01 00 	lea    0x109f9(%rip),%rax        # 16010 <g_271>
    5617:	48 89 85 90 fc ff ff 	mov    %rax,-0x370(%rbp)
    561e:	48 8d 05 eb 09 01 00 	lea    0x109eb(%rip),%rax        # 16010 <g_271>
    5625:	48 89 85 98 fc ff ff 	mov    %rax,-0x368(%rbp)
    562c:	48 8d 05 dd 09 01 00 	lea    0x109dd(%rip),%rax        # 16010 <g_271>
    5633:	48 89 85 a0 fc ff ff 	mov    %rax,-0x360(%rbp)
    563a:	48 8d 05 cf 09 01 00 	lea    0x109cf(%rip),%rax        # 16010 <g_271>
    5641:	48 89 85 a8 fc ff ff 	mov    %rax,-0x358(%rbp)
    5648:	48 8d 05 c1 09 01 00 	lea    0x109c1(%rip),%rax        # 16010 <g_271>
    564f:	48 89 85 b0 fc ff ff 	mov    %rax,-0x350(%rbp)
    5656:	48 8d 05 b3 09 01 00 	lea    0x109b3(%rip),%rax        # 16010 <g_271>
    565d:	48 89 85 b8 fc ff ff 	mov    %rax,-0x348(%rbp)
    5664:	48 8d 05 a5 09 01 00 	lea    0x109a5(%rip),%rax        # 16010 <g_271>
    566b:	48 89 85 c0 fc ff ff 	mov    %rax,-0x340(%rbp)
    5672:	48 8d 05 97 09 01 00 	lea    0x10997(%rip),%rax        # 16010 <g_271>
    5679:	48 89 85 c8 fc ff ff 	mov    %rax,-0x338(%rbp)
    5680:	48 8d 05 89 09 01 00 	lea    0x10989(%rip),%rax        # 16010 <g_271>
    5687:	48 89 85 d0 fc ff ff 	mov    %rax,-0x330(%rbp)
    568e:	48 8d 05 7b 09 01 00 	lea    0x1097b(%rip),%rax        # 16010 <g_271>
    5695:	48 89 85 d8 fc ff ff 	mov    %rax,-0x328(%rbp)
    569c:	48 8d 05 6d 09 01 00 	lea    0x1096d(%rip),%rax        # 16010 <g_271>
    56a3:	48 89 85 e0 fc ff ff 	mov    %rax,-0x320(%rbp)
    56aa:	48 8d 05 5f 09 01 00 	lea    0x1095f(%rip),%rax        # 16010 <g_271>
    56b1:	48 89 85 e8 fc ff ff 	mov    %rax,-0x318(%rbp)
    56b8:	48 8d 05 51 09 01 00 	lea    0x10951(%rip),%rax        # 16010 <g_271>
    56bf:	48 89 85 f0 fc ff ff 	mov    %rax,-0x310(%rbp)
    56c6:	48 8d 05 43 09 01 00 	lea    0x10943(%rip),%rax        # 16010 <g_271>
    56cd:	48 89 85 f8 fc ff ff 	mov    %rax,-0x308(%rbp)
    56d4:	48 8d 05 35 09 01 00 	lea    0x10935(%rip),%rax        # 16010 <g_271>
    56db:	48 89 85 00 fd ff ff 	mov    %rax,-0x300(%rbp)
    56e2:	48 8d 05 27 09 01 00 	lea    0x10927(%rip),%rax        # 16010 <g_271>
    56e9:	48 89 85 08 fd ff ff 	mov    %rax,-0x2f8(%rbp)
    56f0:	48 8d 85 10 fd ff ff 	lea    -0x2f0(%rbp),%rax
    56f7:	48 8d 15 02 94 00 00 	lea    0x9402(%rip),%rdx        # eb00 <g_2089+0x9b0>
    56fe:	b9 5a 00 00 00       	mov    $0x5a,%ecx
    5703:	48 89 c7             	mov    %rax,%rdi
    5706:	48 89 d6             	mov    %rdx,%rsi
    5709:	f3 48 a5             	rep movsq %ds:(%rsi),%es:(%rdi)
    570c:	c7 85 cc fa ff ff f9 	movl   $0xfffffff9,-0x534(%rbp)
    5713:	ff ff ff 
    5716:	c7 85 d0 fa ff ff 9b 	movl   $0xbb04df9b,-0x530(%rbp)
    571d:	df 04 bb 
    5720:	c6 85 8d fa ff ff 00 	movb   $0x0,-0x573(%rbp)
    5727:	48 c7 85 50 fb ff ff 	movq   $0x0,-0x4b0(%rbp)
    572e:	00 00 00 00 
    5732:	c7 85 d4 fa ff ff ff 	movl   $0xffffffff,-0x52c(%rbp)
    5739:	ff ff ff 
    573c:	48 8d 05 8f da 00 00 	lea    0xda8f(%rip),%rax        # 131d2 <g_232>
    5743:	48 89 85 58 fb ff ff 	mov    %rax,-0x4a8(%rbp)
    574a:	48 8d 85 d8 fa ff ff 	lea    -0x528(%rbp),%rax
    5751:	48 89 85 60 fb ff ff 	mov    %rax,-0x4a0(%rbp)
    5758:	48 8d 05 49 49 01 00 	lea    0x14949(%rip),%rax        # 1a0a8 <g_1219>
    575f:	48 89 85 68 fb ff ff 	mov    %rax,-0x498(%rbp)
    5766:	48 c7 85 70 fb ff ff 	movq   $0x0,-0x490(%rbp)
    576d:	00 00 00 00 
    5771:	48 8d 05 2a 3f 01 00 	lea    0x13f2a(%rip),%rax        # 196a2 <g_851+0x22>
    5778:	48 89 85 78 fb ff ff 	mov    %rax,-0x488(%rbp)
    577f:	0f b7 85 80 fb ff ff 	movzwl -0x480(%rbp),%eax
    5786:	66 25 00 fc          	and    $0xfc00,%ax
    578a:	83 c8 1b             	or     $0x1b,%eax
    578d:	66 89 85 80 fb ff ff 	mov    %ax,-0x480(%rbp)
    5794:	0f b7 05 65 d9 00 00 	movzwl 0xd965(%rip),%eax        # 13100 <g_148>
    579b:	0f b7 c0             	movzwl %ax,%eax
    579e:	be 05 00 00 00       	mov    $0x5,%esi
    57a3:	89 c7                	mov    %eax,%edi
    57a5:	e8 0e e7 ff ff       	callq  3eb8 <safe_add_func_uint32_t_u_u>
    57aa:	66 89 05 4f d9 00 00 	mov    %ax,0xd94f(%rip)        # 13100 <g_148>
    57b1:	0f b7 05 48 d9 00 00 	movzwl 0xd948(%rip),%eax        # 13100 <g_148>
    57b8:	66 83 f8 26          	cmp    $0x26,%ax
    57bc:	0f 87 4e fe ff ff    	ja     5610 <func_20+0x479>
    57c2:	83 bd 7c fa ff ff 00 	cmpl   $0x0,-0x584(%rbp)
    57c9:	8b 05 9d 0a 01 00    	mov    0x10a9d(%rip),%eax        # 1626c <g_534+0x2c>
    57cf:	48 98                	cltq   
    57d1:	be 04 00 00 00       	mov    $0x4,%esi
    57d6:	48 89 c7             	mov    %rax,%rdi
    57d9:	e8 50 e8 ff ff       	callq  402e <safe_add_func_uint64_t_u_u>
    57de:	89 05 88 0a 01 00    	mov    %eax,0x10a88(%rip)        # 1626c <g_534+0x2c>
    57e4:	8b 05 82 0a 01 00    	mov    0x10a82(%rip),%eax        # 1626c <g_534+0x2c>
    57ea:	83 f8 06             	cmp    $0x6,%eax
    57ed:	0f 8f ff fa ff ff    	jg     52f2 <func_20+0x15b>
    57f3:	48 8b 05 d6 46 01 00 	mov    0x146d6(%rip),%rax        # 19ed0 <g_733>
    57fa:	48 8b 10             	mov    (%rax),%rdx
    57fd:	48 8b 85 10 fb ff ff 	mov    -0x4f0(%rbp),%rax
    5804:	48 89 10             	mov    %rdx,(%rax)
    5807:	83 85 a0 fa ff ff 01 	addl   $0x1,-0x560(%rbp)
    580e:	8b 85 90 fa ff ff    	mov    -0x570(%rbp),%eax
    5814:	48 8b 5d e8          	mov    -0x18(%rbp),%rbx
    5818:	64 48 33 1c 25 28 00 	xor    %fs:0x28,%rbx
    581f:	00 00 
    5821:	74 05                	je     5828 <func_20+0x691>
    5823:	e8 48 d8 ff ff       	callq  3070 <__stack_chk_fail@plt>
    5828:	48 81 c4 88 05 00 00 	add    $0x588,%rsp
    582f:	5b                   	pop    %rbx
    5830:	5d                   	pop    %rbp
    5831:	c3                   	retq   

0000000000005832 <func_31>:
    5832:	f3 0f 1e fa          	endbr64 
    5836:	55                   	push   %rbp
    5837:	48 89 e5             	mov    %rsp,%rbp
    583a:	41 55                	push   %r13
    583c:	41 54                	push   %r12
    583e:	53                   	push   %rbx
    583f:	48 81 ec 78 09 00 00 	sub    $0x978,%rsp
    5846:	48 89 bd 78 f6 ff ff 	mov    %rdi,-0x988(%rbp)
    584d:	64 48 8b 04 25 28 00 	mov    %fs:0x28,%rax
    5854:	00 00 
    5856:	48 89 45 d8          	mov    %rax,-0x28(%rbp)
    585a:	31 c0                	xor    %eax,%eax
    585c:	66 c7 85 8c f6 ff ff 	movw   $0x3106,-0x974(%rbp)
    5863:	06 31 
    5865:	c7 85 9c f6 ff ff ff 	movl   $0xffffffff,-0x964(%rbp)
    586c:	ff ff ff 
    586f:	c7 85 a0 f6 ff ff bf 	movl   $0x3e422cbf,-0x960(%rbp)
    5876:	2c 42 3e 
    5879:	c7 85 b0 f6 ff ff 25 	movl   $0xa607ed25,-0x950(%rbp)
    5880:	ed 07 a6 
    5883:	48 8d 85 50 f9 ff ff 	lea    -0x6b0(%rbp),%rax
    588a:	48 8d 15 4f 95 00 00 	lea    0x954f(%rip),%rdx        # ede0 <g_2089+0xc90>
    5891:	b9 32 00 00 00       	mov    $0x32,%ecx
    5896:	48 89 c7             	mov    %rax,%rdi
    5899:	48 89 d6             	mov    %rdx,%rsi
    589c:	f3 48 a5             	rep movsq %ds:(%rsi),%es:(%rdi)
    589f:	0f b7 85 90 f6 ff ff 	movzwl -0x970(%rbp),%eax
    58a6:	66 25 00 fc          	and    $0xfc00,%ax
    58aa:	83 c8 16             	or     $0x16,%eax
    58ad:	66 89 85 90 f6 ff ff 	mov    %ax,-0x970(%rbp)
    58b4:	c6 85 89 f6 ff ff ff 	movb   $0xff,-0x977(%rbp)
    58bb:	c7 85 b4 f6 ff ff f8 	movl   $0xfffffff8,-0x94c(%rbp)
    58c2:	ff ff ff 
    58c5:	c6 85 8a f6 ff ff fb 	movb   $0xfb,-0x976(%rbp)
    58cc:	be 08 00 00 00       	mov    $0x8,%esi
    58d1:	bf 02 00 00 00       	mov    $0x2,%edi
    58d6:	e8 88 dc ff ff       	callq  3563 <safe_rshift_func_int16_t_s_u>
    58db:	66 85 c0             	test   %ax,%ax
    58de:	0f 84 ab 14 00 00    	je     6d8f <func_31+0x155d>
    58e4:	48 b8 e1 2c 6f 9a 14 	movabs $0x15475a149a6f2ce1,%rax
    58eb:	5a 47 15 
    58ee:	48 89 85 00 f7 ff ff 	mov    %rax,-0x900(%rbp)
    58f5:	c7 85 a4 f6 ff ff 03 	movl   $0x3,-0x95c(%rbp)
    58fc:	00 00 00 
    58ff:	c7 85 20 f8 ff ff 31 	movl   $0xf5ef8831,-0x7e0(%rbp)
    5906:	88 ef f5 
    5909:	c7 85 24 f8 ff ff 31 	movl   $0xf5ef8831,-0x7dc(%rbp)
    5910:	88 ef f5 
    5913:	c7 85 28 f8 ff ff 31 	movl   $0xf5ef8831,-0x7d8(%rbp)
    591a:	88 ef f5 
    591d:	c7 85 2c f8 ff ff 31 	movl   $0xf5ef8831,-0x7d4(%rbp)
    5924:	88 ef f5 
    5927:	c7 85 30 f8 ff ff 31 	movl   $0xf5ef8831,-0x7d0(%rbp)
    592e:	88 ef f5 
    5931:	c7 85 a8 f6 ff ff ff 	movl   $0xffffffff,-0x958(%rbp)
    5938:	ff ff ff 
    593b:	c7 05 7f d7 00 00 05 	movl   $0x5,0xd77f(%rip)        # 130c4 <g_35>
    5942:	00 00 00 
    5945:	e9 32 14 00 00       	jmpq   6d7c <func_31+0x154a>
    594a:	48 c7 85 08 f7 ff ff 	movq   $0x0,-0x8f8(%rbp)
    5951:	00 00 00 00 
    5955:	48 8d 85 e0 fa ff ff 	lea    -0x520(%rbp),%rax
    595c:	48 8d 15 1d 96 00 00 	lea    0x961d(%rip),%rdx        # ef80 <g_2089+0xe30>
    5963:	b9 34 00 00 00       	mov    $0x34,%ecx
    5968:	48 89 c7             	mov    %rax,%rdi
    596b:	48 89 d6             	mov    %rdx,%rsi
    596e:	f3 48 a5             	rep movsq %ds:(%rsi),%es:(%rdi)
    5971:	48 89 f2             	mov    %rsi,%rdx
    5974:	48 89 f8             	mov    %rdi,%rax
    5977:	8b 0a                	mov    (%rdx),%ecx
    5979:	89 08                	mov    %ecx,(%rax)
    597b:	48 8d 40 04          	lea    0x4(%rax),%rax
    597f:	48 8d 52 04          	lea    0x4(%rdx),%rdx
    5983:	48 b8 fd 68 26 57 93 	movabs $0x67e3b093572668fd,%rax
    598a:	b0 e3 67 
    598d:	48 89 85 d8 f6 ff ff 	mov    %rax,-0x928(%rbp)
    5994:	48 8d 05 1d 45 01 00 	lea    0x1451d(%rip),%rax        # 19eb8 <g_605>
    599b:	48 89 85 10 f7 ff ff 	mov    %rax,-0x8f0(%rbp)
    59a2:	48 8b 05 17 45 01 00 	mov    0x14517(%rip),%rax        # 19ec0 <g_604>
    59a9:	48 8b 00             	mov    (%rax),%rax
    59ac:	0f b7 00             	movzwl (%rax),%eax
    59af:	98                   	cwtl   
    59b0:	be 01 00 00 00       	mov    $0x1,%esi
    59b5:	89 c7                	mov    %eax,%edi
    59b7:	e8 99 da ff ff       	callq  3455 <safe_div_func_int16_t_s_s>
    59bc:	0f be d0             	movsbl %al,%edx
    59bf:	48 8b 05 62 44 01 00 	mov    0x14462(%rip),%rax        # 19e28 <g_165>
    59c6:	48 8b 00             	mov    (%rax),%rax
    59c9:	48 8b 00             	mov    (%rax),%rax
    59cc:	0f b6 00             	movzbl (%rax),%eax
    59cf:	0f be c0             	movsbl %al,%eax
    59d2:	89 d6                	mov    %edx,%esi
    59d4:	89 c7                	mov    %eax,%edi
    59d6:	e8 37 d8 ff ff       	callq  3212 <safe_mul_func_int8_t_s_s>
    59db:	0f be c0             	movsbl %al,%eax
    59de:	31 85 a4 f6 ff ff    	xor    %eax,-0x95c(%rbp)
    59e4:	48 8b 85 78 f6 ff ff 	mov    -0x988(%rbp),%rax
    59eb:	48 89 05 2e 46 01 00 	mov    %rax,0x1462e(%rip)        # 1a020 <g_997+0x20>
    59f2:	c7 85 a4 f6 ff ff 05 	movl   $0x5,-0x95c(%rbp)
    59f9:	00 00 00 
    59fc:	e9 5f 13 00 00       	jmpq   6d60 <func_31+0x152e>
    5a01:	c7 85 40 f8 ff ff 8a 	movl   $0x1d577d8a,-0x7c0(%rbp)
    5a08:	7d 57 1d 
    5a0b:	c7 85 44 f8 ff ff 66 	movl   $0x92ad5466,-0x7bc(%rbp)
    5a12:	54 ad 92 
    5a15:	c7 85 48 f8 ff ff 66 	movl   $0x92ad5466,-0x7b8(%rbp)
    5a1c:	54 ad 92 
    5a1f:	c7 85 4c f8 ff ff 8a 	movl   $0x1d577d8a,-0x7b4(%rbp)
    5a26:	7d 57 1d 
    5a29:	c7 85 50 f8 ff ff 66 	movl   $0x92ad5466,-0x7b0(%rbp)
    5a30:	54 ad 92 
    5a33:	c7 85 54 f8 ff ff 66 	movl   $0x92ad5466,-0x7ac(%rbp)
    5a3a:	54 ad 92 
    5a3d:	c7 85 94 f6 ff ff c0 	movl   $0x6f4590c0,-0x96c(%rbp)
    5a44:	90 45 6f 
    5a47:	c7 85 b8 f6 ff ff 45 	movl   $0xfbafe045,-0x948(%rbp)
    5a4e:	e0 af fb 
    5a51:	c7 85 bc f6 ff ff fd 	movl   $0xfffffffd,-0x944(%rbp)
    5a58:	ff ff ff 
    5a5b:	c7 85 c0 f6 ff ff 85 	movl   $0x192fcd85,-0x940(%rbp)
    5a62:	cd 2f 19 
    5a65:	c7 85 c4 f6 ff ff fe 	movl   $0xfffffffe,-0x93c(%rbp)
    5a6c:	ff ff ff 
    5a6f:	c7 85 c8 f6 ff ff a6 	movl   $0xbdb45ba6,-0x938(%rbp)
    5a76:	5b b4 bd 
    5a79:	c7 85 cc f6 ff ff f6 	movl   $0xfffffff6,-0x934(%rbp)
    5a80:	ff ff ff 
    5a83:	c7 85 90 f8 ff ff e9 	movl   $0x2d1619e9,-0x770(%rbp)
    5a8a:	19 16 2d 
    5a8d:	c7 85 94 f8 ff ff 01 	movl   $0x1,-0x76c(%rbp)
    5a94:	00 00 00 
    5a97:	c7 85 98 f8 ff ff ff 	movl   $0xffffffff,-0x768(%rbp)
    5a9e:	ff ff ff 
    5aa1:	c7 85 9c f8 ff ff 01 	movl   $0x1,-0x764(%rbp)
    5aa8:	00 00 00 
    5aab:	c7 85 a0 f8 ff ff e9 	movl   $0x2d1619e9,-0x760(%rbp)
    5ab2:	19 16 2d 
    5ab5:	c7 85 a4 f8 ff ff 00 	movl   $0x0,-0x75c(%rbp)
    5abc:	00 00 00 
    5abf:	c7 85 a8 f8 ff ff d0 	movl   $0x13d457d0,-0x758(%rbp)
    5ac6:	57 d4 13 
    5ac9:	c7 85 ac f8 ff ff 07 	movl   $0x7,-0x754(%rbp)
    5ad0:	00 00 00 
    5ad3:	c7 85 b0 f8 ff ff e9 	movl   $0x2d1619e9,-0x750(%rbp)
    5ada:	19 16 2d 
    5add:	c7 85 b4 f8 ff ff 00 	movl   $0x0,-0x74c(%rbp)
    5ae4:	00 00 00 
    5ae7:	c7 85 b8 f8 ff ff d0 	movl   $0x13d457d0,-0x748(%rbp)
    5aee:	57 d4 13 
    5af1:	c7 85 bc f8 ff ff 07 	movl   $0x7,-0x744(%rbp)
    5af8:	00 00 00 
    5afb:	c7 85 c0 f8 ff ff d0 	movl   $0x13d457d0,-0x740(%rbp)
    5b02:	57 d4 13 
    5b05:	c7 85 c4 f8 ff ff 00 	movl   $0x0,-0x73c(%rbp)
    5b0c:	00 00 00 
    5b0f:	c7 85 c8 f8 ff ff e9 	movl   $0x2d1619e9,-0x738(%rbp)
    5b16:	19 16 2d 
    5b19:	c7 85 cc f8 ff ff 01 	movl   $0x1,-0x734(%rbp)
    5b20:	00 00 00 
    5b23:	c7 85 d0 f8 ff ff d7 	movl   $0x641d7ad7,-0x730(%rbp)
    5b2a:	7a 1d 64 
    5b2d:	c7 85 d4 f8 ff ff 01 	movl   $0x1,-0x72c(%rbp)
    5b34:	00 00 00 
    5b37:	c7 85 d8 f8 ff ff d0 	movl   $0x13d457d0,-0x728(%rbp)
    5b3e:	57 d4 13 
    5b41:	c7 85 dc f8 ff ff a5 	movl   $0xf90408a5,-0x724(%rbp)
    5b48:	08 04 f9 
    5b4b:	c7 85 e0 f8 ff ff f6 	movl   $0xfffffff6,-0x720(%rbp)
    5b52:	ff ff ff 
    5b55:	c7 85 e4 f8 ff ff a5 	movl   $0xf90408a5,-0x71c(%rbp)
    5b5c:	08 04 f9 
    5b5f:	c7 85 e8 f8 ff ff d0 	movl   $0x13d457d0,-0x718(%rbp)
    5b66:	57 d4 13 
    5b69:	c7 85 ec f8 ff ff 01 	movl   $0x1,-0x714(%rbp)
    5b70:	00 00 00 
    5b73:	c7 85 f0 f8 ff ff d0 	movl   $0x13d457d0,-0x710(%rbp)
    5b7a:	57 d4 13 
    5b7d:	c7 85 f4 f8 ff ff 04 	movl   $0x24eb0604,-0x70c(%rbp)
    5b84:	06 eb 24 
    5b87:	c7 85 f8 f8 ff ff ff 	movl   $0xffffffff,-0x708(%rbp)
    5b8e:	ff ff ff 
    5b91:	c7 85 fc f8 ff ff 07 	movl   $0x7,-0x704(%rbp)
    5b98:	00 00 00 
    5b9b:	c7 85 00 f9 ff ff f6 	movl   $0xfffffff6,-0x700(%rbp)
    5ba2:	ff ff ff 
    5ba5:	c7 85 04 f9 ff ff 01 	movl   $0x1,-0x6fc(%rbp)
    5bac:	00 00 00 
    5baf:	c7 85 08 f9 ff ff f6 	movl   $0xfffffff6,-0x6f8(%rbp)
    5bb6:	ff ff ff 
    5bb9:	c7 85 0c f9 ff ff 07 	movl   $0x7,-0x6f4(%rbp)
    5bc0:	00 00 00 
    5bc3:	c7 85 10 f9 ff ff d7 	movl   $0x641d7ad7,-0x6f0(%rbp)
    5bca:	7a 1d 64 
    5bcd:	c7 85 14 f9 ff ff 04 	movl   $0x24eb0604,-0x6ec(%rbp)
    5bd4:	06 eb 24 
    5bd7:	c7 85 18 f9 ff ff d7 	movl   $0x641d7ad7,-0x6e8(%rbp)
    5bde:	7a 1d 64 
    5be1:	c7 85 1c f9 ff ff 01 	movl   $0x1,-0x6e4(%rbp)
    5be8:	00 00 00 
    5beb:	c7 85 20 f9 ff ff d0 	movl   $0x13d457d0,-0x6e0(%rbp)
    5bf2:	57 d4 13 
    5bf5:	c7 85 24 f9 ff ff a5 	movl   $0xf90408a5,-0x6dc(%rbp)
    5bfc:	08 04 f9 
    5bff:	c7 85 28 f9 ff ff f6 	movl   $0xfffffff6,-0x6d8(%rbp)
    5c06:	ff ff ff 
    5c09:	c7 85 2c f9 ff ff a5 	movl   $0xf90408a5,-0x6d4(%rbp)
    5c10:	08 04 f9 
    5c13:	c7 85 30 f9 ff ff e9 	movl   $0x2d1619e9,-0x6d0(%rbp)
    5c1a:	19 16 2d 
    5c1d:	c7 85 34 f9 ff ff 01 	movl   $0x1,-0x6cc(%rbp)
    5c24:	00 00 00 
    5c27:	c7 85 38 f9 ff ff ff 	movl   $0xffffffff,-0x6c8(%rbp)
    5c2e:	ff ff ff 
    5c31:	c7 85 3c f9 ff ff 01 	movl   $0x1,-0x6c4(%rbp)
    5c38:	00 00 00 
    5c3b:	c7 85 40 f9 ff ff e9 	movl   $0x2d1619e9,-0x6c0(%rbp)
    5c42:	19 16 2d 
    5c45:	c7 85 44 f9 ff ff 00 	movl   $0x0,-0x6bc(%rbp)
    5c4c:	00 00 00 
    5c4f:	c7 85 48 f9 ff ff d0 	movl   $0x13d457d0,-0x6b8(%rbp)
    5c56:	57 d4 13 
    5c59:	c7 85 4c f9 ff ff 07 	movl   $0x7,-0x6b4(%rbp)
    5c60:	00 00 00 
    5c63:	48 b8 ef 7b 4f e8 1d 	movabs $0x35faf51de84f7bef,%rax
    5c6a:	f5 fa 35 
    5c6d:	48 89 85 18 f7 ff ff 	mov    %rax,-0x8e8(%rbp)
    5c74:	48 8d 05 3d 42 01 00 	lea    0x1423d(%rip),%rax        # 19eb8 <g_605>
    5c7b:	48 89 85 20 f7 ff ff 	mov    %rax,-0x8e0(%rbp)
    5c82:	c7 05 44 d4 00 00 00 	movl   $0x0,0xd444(%rip)        # 130d0 <g_95>
    5c89:	00 00 00 
    5c8c:	e9 48 05 00 00       	jmpq   61d9 <func_31+0x9a7>
    5c91:	c6 85 8b f6 ff ff 7f 	movb   $0x7f,-0x975(%rbp)
    5c98:	48 8d 05 71 05 01 00 	lea    0x10571(%rip),%rax        # 16210 <g_448+0x10>
    5c9f:	48 89 85 48 f7 ff ff 	mov    %rax,-0x8b8(%rbp)
    5ca6:	48 8d 05 83 d4 00 00 	lea    0xd483(%rip),%rax        # 13130 <g_175+0x10>
    5cad:	48 89 85 50 f7 ff ff 	mov    %rax,-0x8b0(%rbp)
    5cb4:	48 8d 05 75 38 01 00 	lea    0x13875(%rip),%rax        # 19530 <g_758+0x70>
    5cbb:	48 89 85 58 f7 ff ff 	mov    %rax,-0x8a8(%rbp)
    5cc2:	48 8d 85 e0 fa ff ff 	lea    -0x520(%rbp),%rax
    5cc9:	48 83 c0 30          	add    $0x30,%rax
    5ccd:	48 89 85 60 f7 ff ff 	mov    %rax,-0x8a0(%rbp)
    5cd4:	48 8d 05 b5 05 01 00 	lea    0x105b5(%rip),%rax        # 16290 <g_615+0x10>
    5cdb:	48 89 85 68 f7 ff ff 	mov    %rax,-0x898(%rbp)
    5ce2:	48 8d 05 47 d4 00 00 	lea    0xd447(%rip),%rax        # 13130 <g_175+0x10>
    5ce9:	48 89 85 70 f7 ff ff 	mov    %rax,-0x890(%rbp)
    5cf0:	48 8d 05 59 0d 01 00 	lea    0x10d59(%rip),%rax        # 16a50 <g_689+0x790>
    5cf7:	48 89 85 78 f7 ff ff 	mov    %rax,-0x888(%rbp)
    5cfe:	48 8d 05 db 16 01 00 	lea    0x116db(%rip),%rax        # 173e0 <g_711+0x40>
    5d05:	48 89 85 80 f7 ff ff 	mov    %rax,-0x880(%rbp)
    5d0c:	48 c7 85 88 f7 ff ff 	movq   $0x0,-0x878(%rbp)
    5d13:	00 00 00 00 
    5d17:	48 8d 05 72 05 01 00 	lea    0x10572(%rip),%rax        # 16290 <g_615+0x10>
    5d1e:	48 89 85 90 f7 ff ff 	mov    %rax,-0x870(%rbp)
    5d25:	c7 85 98 f6 ff ff 9a 	movl   $0x982f319a,-0x968(%rbp)
    5d2c:	31 2f 98 
    5d2f:	48 8d 05 1a 0d 01 00 	lea    0x10d1a(%rip),%rax        # 16a50 <g_689+0x790>
    5d36:	48 89 85 98 f7 ff ff 	mov    %rax,-0x868(%rbp)
    5d3d:	48 8d 85 98 f6 ff ff 	lea    -0x968(%rbp),%rax
    5d44:	48 89 85 a0 f7 ff ff 	mov    %rax,-0x860(%rbp)
    5d4b:	48 8d 85 e0 fa ff ff 	lea    -0x520(%rbp),%rax
    5d52:	48 05 68 01 00 00    	add    $0x168,%rax
    5d58:	48 89 85 a8 f7 ff ff 	mov    %rax,-0x858(%rbp)
    5d5f:	48 8d 05 aa 04 01 00 	lea    0x104aa(%rip),%rax        # 16210 <g_448+0x10>
    5d66:	48 89 85 b0 f7 ff ff 	mov    %rax,-0x850(%rbp)
    5d6d:	48 c7 85 b8 f7 ff ff 	movq   $0x0,-0x848(%rbp)
    5d74:	00 00 00 00 
    5d78:	48 8d 05 61 16 01 00 	lea    0x11661(%rip),%rax        # 173e0 <g_711+0x40>
    5d7f:	48 89 85 c0 f7 ff ff 	mov    %rax,-0x840(%rbp)
    5d86:	48 8d 85 20 f8 ff ff 	lea    -0x7e0(%rbp),%rax
    5d8d:	48 83 c0 08          	add    $0x8,%rax
    5d91:	48 89 85 60 f8 ff ff 	mov    %rax,-0x7a0(%rbp)
    5d98:	48 8d 85 20 f8 ff ff 	lea    -0x7e0(%rbp),%rax
    5d9f:	48 83 c0 08          	add    $0x8,%rax
    5da3:	48 89 85 68 f8 ff ff 	mov    %rax,-0x798(%rbp)
    5daa:	48 8d 85 20 f8 ff ff 	lea    -0x7e0(%rbp),%rax
    5db1:	48 83 c0 08          	add    $0x8,%rax
    5db5:	48 89 85 70 f8 ff ff 	mov    %rax,-0x790(%rbp)
    5dbc:	48 8d 85 20 f8 ff ff 	lea    -0x7e0(%rbp),%rax
    5dc3:	48 83 c0 08          	add    $0x8,%rax
    5dc7:	48 89 85 78 f8 ff ff 	mov    %rax,-0x788(%rbp)
    5dce:	48 8d 85 20 f8 ff ff 	lea    -0x7e0(%rbp),%rax
    5dd5:	48 83 c0 08          	add    $0x8,%rax
    5dd9:	48 89 85 80 f8 ff ff 	mov    %rax,-0x780(%rbp)
    5de0:	c7 85 d4 f6 ff ff 00 	movl   $0x0,-0x92c(%rbp)
    5de7:	00 00 00 
    5dea:	c7 05 8c 04 01 00 02 	movl   $0x2,0x1048c(%rip)        # 16280 <g_615>
    5df1:	00 00 00 
    5df4:	e9 b0 03 00 00       	jmpq   61a9 <func_31+0x977>
    5df9:	48 8d 05 90 37 01 00 	lea    0x13790(%rip),%rax        # 19590 <g_760+0x10>
    5e00:	48 89 85 c8 f7 ff ff 	mov    %rax,-0x838(%rbp)
    5e07:	48 c7 85 d0 f7 ff ff 	movq   $0x0,-0x830(%rbp)
    5e0e:	00 00 00 00 
    5e12:	48 8d 05 77 04 01 00 	lea    0x10477(%rip),%rax        # 16290 <g_615+0x10>
    5e19:	48 89 85 d8 f7 ff ff 	mov    %rax,-0x828(%rbp)
    5e20:	48 8d 85 e0 fa ff ff 	lea    -0x520(%rbp),%rax
    5e27:	48 05 bc 00 00 00    	add    $0xbc,%rax
    5e2d:	48 89 85 e0 f7 ff ff 	mov    %rax,-0x820(%rbp)
    5e34:	48 8d 85 e0 fa ff ff 	lea    -0x520(%rbp),%rax
    5e3b:	48 05 f4 00 00 00    	add    $0xf4,%rax
    5e41:	48 89 85 e8 f7 ff ff 	mov    %rax,-0x818(%rbp)
    5e48:	48 8d 05 01 04 01 00 	lea    0x10401(%rip),%rax        # 16250 <g_534+0x10>
    5e4f:	48 89 85 f0 f7 ff ff 	mov    %rax,-0x810(%rbp)
    5e56:	48 8d 05 6f d2 00 00 	lea    0xd26f(%rip),%rax        # 130cc <g_44>
    5e5d:	48 89 85 f8 f7 ff ff 	mov    %rax,-0x808(%rbp)
    5e64:	48 c7 85 00 f8 ff ff 	movq   $0x0,-0x800(%rbp)
    5e6b:	00 00 00 00 
    5e6f:	48 8d 05 1a 04 01 00 	lea    0x1041a(%rip),%rax        # 16290 <g_615+0x10>
    5e76:	48 89 85 08 f8 ff ff 	mov    %rax,-0x7f8(%rbp)
    5e7d:	48 c7 85 10 f8 ff ff 	movq   $0x0,-0x7f0(%rbp)
    5e84:	00 00 00 00 
    5e88:	48 8d 05 c1 03 01 00 	lea    0x103c1(%rip),%rax        # 16250 <g_534+0x10>
    5e8f:	48 89 85 90 fc ff ff 	mov    %rax,-0x370(%rbp)
    5e96:	48 8d 05 b3 03 01 00 	lea    0x103b3(%rip),%rax        # 16250 <g_534+0x10>
    5e9d:	48 89 85 98 fc ff ff 	mov    %rax,-0x368(%rbp)
    5ea4:	48 8d 05 dd 4d 01 00 	lea    0x14ddd(%rip),%rax        # 1ac88 <g_3>
    5eab:	48 89 85 a0 fc ff ff 	mov    %rax,-0x360(%rbp)
    5eb2:	48 8d 05 77 d2 00 00 	lea    0xd277(%rip),%rax        # 13130 <g_175+0x10>
    5eb9:	48 89 85 a8 fc ff ff 	mov    %rax,-0x358(%rbp)
    5ec0:	48 8d 05 c9 4d 01 00 	lea    0x14dc9(%rip),%rax        # 1ac90 <g_49>
    5ec7:	48 89 85 b0 fc ff ff 	mov    %rax,-0x350(%rbp)
    5ece:	48 8d 05 f7 d1 00 00 	lea    0xd1f7(%rip),%rax        # 130cc <g_44>
    5ed5:	48 89 85 b8 fc ff ff 	mov    %rax,-0x348(%rbp)
    5edc:	48 8d 05 e9 d1 00 00 	lea    0xd1e9(%rip),%rax        # 130cc <g_44>
    5ee3:	48 89 85 c0 fc ff ff 	mov    %rax,-0x340(%rbp)
    5eea:	48 8d 05 5f 03 01 00 	lea    0x1035f(%rip),%rax        # 16250 <g_534+0x10>
    5ef1:	48 89 85 c8 fc ff ff 	mov    %rax,-0x338(%rbp)
    5ef8:	48 8d 85 e0 fa ff ff 	lea    -0x520(%rbp),%rax
    5eff:	48 05 68 01 00 00    	add    $0x168,%rax
    5f05:	48 89 85 d0 fc ff ff 	mov    %rax,-0x330(%rbp)
    5f0c:	48 8d 05 b1 d1 00 00 	lea    0xd1b1(%rip),%rax        # 130c4 <g_35>
    5f13:	48 89 85 d8 fc ff ff 	mov    %rax,-0x328(%rbp)
    5f1a:	48 8d 05 0f d2 00 00 	lea    0xd20f(%rip),%rax        # 13130 <g_175+0x10>
    5f21:	48 89 85 e0 fc ff ff 	mov    %rax,-0x320(%rbp)
    5f28:	48 8d 05 f1 1e 01 00 	lea    0x11ef1(%rip),%rax        # 17e20 <g_753+0x8e0>
    5f2f:	48 89 85 e8 fc ff ff 	mov    %rax,-0x318(%rbp)
    5f36:	48 8d 85 e0 fa ff ff 	lea    -0x520(%rbp),%rax
    5f3d:	48 05 68 01 00 00    	add    $0x168,%rax
    5f43:	48 89 85 f0 fc ff ff 	mov    %rax,-0x310(%rbp)
    5f4a:	48 8d 05 7b d1 00 00 	lea    0xd17b(%rip),%rax        # 130cc <g_44>
    5f51:	48 89 85 f8 fc ff ff 	mov    %rax,-0x308(%rbp)
    5f58:	48 8d 85 e0 fa ff ff 	lea    -0x520(%rbp),%rax
    5f5f:	48 05 68 01 00 00    	add    $0x168,%rax
    5f65:	48 89 85 00 fd ff ff 	mov    %rax,-0x300(%rbp)
    5f6c:	48 8d 05 dd 02 01 00 	lea    0x102dd(%rip),%rax        # 16250 <g_534+0x10>
    5f73:	48 89 85 08 fd ff ff 	mov    %rax,-0x2f8(%rbp)
    5f7a:	48 8d 05 43 d1 00 00 	lea    0xd143(%rip),%rax        # 130c4 <g_35>
    5f81:	48 89 85 10 fd ff ff 	mov    %rax,-0x2f0(%rbp)
    5f88:	48 8d 85 e0 fa ff ff 	lea    -0x520(%rbp),%rax
    5f8f:	48 05 68 01 00 00    	add    $0x168,%rax
    5f95:	48 89 85 18 fd ff ff 	mov    %rax,-0x2e8(%rbp)
    5f9c:	48 8d 05 ed 4c 01 00 	lea    0x14ced(%rip),%rax        # 1ac90 <g_49>
    5fa3:	48 89 85 20 fd ff ff 	mov    %rax,-0x2e0(%rbp)
    5faa:	48 8d 85 e0 fa ff ff 	lea    -0x520(%rbp),%rax
    5fb1:	48 05 68 01 00 00    	add    $0x168,%rax
    5fb7:	48 89 85 28 fd ff ff 	mov    %rax,-0x2d8(%rbp)
    5fbe:	48 8d 05 ff d0 00 00 	lea    0xd0ff(%rip),%rax        # 130c4 <g_35>
    5fc5:	48 89 85 30 fd ff ff 	mov    %rax,-0x2d0(%rbp)
    5fcc:	48 8d 05 7d 02 01 00 	lea    0x1027d(%rip),%rax        # 16250 <g_534+0x10>
    5fd3:	48 89 85 38 fd ff ff 	mov    %rax,-0x2c8(%rbp)
    5fda:	48 8d 05 6f 02 01 00 	lea    0x1026f(%rip),%rax        # 16250 <g_534+0x10>
    5fe1:	48 89 85 40 fd ff ff 	mov    %rax,-0x2c0(%rbp)
    5fe8:	48 8d 05 99 4c 01 00 	lea    0x14c99(%rip),%rax        # 1ac88 <g_3>
    5fef:	48 89 85 48 fd ff ff 	mov    %rax,-0x2b8(%rbp)
    5ff6:	48 8d 05 33 d1 00 00 	lea    0xd133(%rip),%rax        # 13130 <g_175+0x10>
    5ffd:	48 89 85 50 fd ff ff 	mov    %rax,-0x2b0(%rbp)
    6004:	48 8d 05 85 4c 01 00 	lea    0x14c85(%rip),%rax        # 1ac90 <g_49>
    600b:	48 89 85 58 fd ff ff 	mov    %rax,-0x2a8(%rbp)
    6012:	48 8d 05 b3 d0 00 00 	lea    0xd0b3(%rip),%rax        # 130cc <g_44>
    6019:	48 89 85 60 fd ff ff 	mov    %rax,-0x2a0(%rbp)
    6020:	48 8d 05 a5 d0 00 00 	lea    0xd0a5(%rip),%rax        # 130cc <g_44>
    6027:	48 89 85 68 fd ff ff 	mov    %rax,-0x298(%rbp)
    602e:	48 8d 05 1b 02 01 00 	lea    0x1021b(%rip),%rax        # 16250 <g_534+0x10>
    6035:	48 89 85 70 fd ff ff 	mov    %rax,-0x290(%rbp)
    603c:	48 8d 85 e0 fa ff ff 	lea    -0x520(%rbp),%rax
    6043:	48 05 68 01 00 00    	add    $0x168,%rax
    6049:	48 89 85 78 fd ff ff 	mov    %rax,-0x288(%rbp)
    6050:	48 8d 05 6d d0 00 00 	lea    0xd06d(%rip),%rax        # 130c4 <g_35>
    6057:	48 89 85 80 fd ff ff 	mov    %rax,-0x280(%rbp)
    605e:	48 8d 05 cb d0 00 00 	lea    0xd0cb(%rip),%rax        # 13130 <g_175+0x10>
    6065:	48 89 85 88 fd ff ff 	mov    %rax,-0x278(%rbp)
    606c:	48 8d 05 ad 1d 01 00 	lea    0x11dad(%rip),%rax        # 17e20 <g_753+0x8e0>
    6073:	48 89 85 90 fd ff ff 	mov    %rax,-0x270(%rbp)
    607a:	48 8d 85 e0 fa ff ff 	lea    -0x520(%rbp),%rax
    6081:	48 05 68 01 00 00    	add    $0x168,%rax
    6087:	48 89 85 98 fd ff ff 	mov    %rax,-0x268(%rbp)
    608e:	48 8d 05 37 d0 00 00 	lea    0xd037(%rip),%rax        # 130cc <g_44>
    6095:	48 89 85 a0 fd ff ff 	mov    %rax,-0x260(%rbp)
    609c:	48 8d 85 e0 fa ff ff 	lea    -0x520(%rbp),%rax
    60a3:	48 05 68 01 00 00    	add    $0x168,%rax
    60a9:	48 89 85 a8 fd ff ff 	mov    %rax,-0x258(%rbp)
    60b0:	48 8d 05 99 01 01 00 	lea    0x10199(%rip),%rax        # 16250 <g_534+0x10>
    60b7:	48 89 85 b0 fd ff ff 	mov    %rax,-0x250(%rbp)
    60be:	48 8d 05 ff cf 00 00 	lea    0xcfff(%rip),%rax        # 130c4 <g_35>
    60c5:	48 89 85 b8 fd ff ff 	mov    %rax,-0x248(%rbp)
    60cc:	48 8d 85 e0 fa ff ff 	lea    -0x520(%rbp),%rax
    60d3:	48 05 68 01 00 00    	add    $0x168,%rax
    60d9:	48 89 85 c0 fd ff ff 	mov    %rax,-0x240(%rbp)
    60e0:	48 8d 05 a9 4b 01 00 	lea    0x14ba9(%rip),%rax        # 1ac90 <g_49>
    60e7:	48 89 85 c8 fd ff ff 	mov    %rax,-0x238(%rbp)
    60ee:	48 8d 85 e0 fa ff ff 	lea    -0x520(%rbp),%rax
    60f5:	48 05 68 01 00 00    	add    $0x168,%rax
    60fb:	48 89 85 d0 fd ff ff 	mov    %rax,-0x230(%rbp)
    6102:	48 8d 05 bb cf 00 00 	lea    0xcfbb(%rip),%rax        # 130c4 <g_35>
    6109:	48 89 85 d8 fd ff ff 	mov    %rax,-0x228(%rbp)
    6110:	48 c7 85 18 f8 ff ff 	movq   $0x0,-0x7e8(%rbp)
    6117:	00 00 00 00 
    611b:	8b 85 54 f8 ff ff    	mov    -0x7ac(%rbp),%eax
    6121:	83 e8 01             	sub    $0x1,%eax
    6124:	89 85 54 f8 ff ff    	mov    %eax,-0x7ac(%rbp)
    612a:	8b 85 a4 f6 ff ff    	mov    -0x95c(%rbp),%eax
    6130:	8d 50 02             	lea    0x2(%rax),%edx
    6133:	8b 85 a4 f6 ff ff    	mov    -0x95c(%rbp),%eax
    6139:	48 63 c8             	movslq %eax,%rcx
    613c:	48 63 d2             	movslq %edx,%rdx
    613f:	48 89 d0             	mov    %rdx,%rax
    6142:	48 01 c0             	add    %rax,%rax
    6145:	48 01 d0             	add    %rdx,%rax
    6148:	48 01 c0             	add    %rax,%rax
    614b:	48 01 c8             	add    %rcx,%rax
    614e:	48 8d 14 c5 00 00 00 	lea    0x0(,%rax,8),%rdx
    6155:	00 
    6156:	48 8d 05 03 ff 00 00 	lea    0xff03(%rip),%rax        # 16060 <g_313>
    615d:	48 8b 04 02          	mov    (%rdx,%rax,1),%rax
    6161:	48 85 c0             	test   %rax,%rax
    6164:	75 54                	jne    61ba <func_31+0x988>
    6166:	83 85 a8 f6 ff ff 01 	addl   $0x1,-0x958(%rbp)
    616d:	8b 85 a4 f6 ff ff    	mov    -0x95c(%rbp),%eax
    6173:	83 c0 01             	add    $0x1,%eax
    6176:	48 8b 0d cb 3e 01 00 	mov    0x13ecb(%rip),%rcx        # 1a048 <g_1019>
    617d:	48 63 d0             	movslq %eax,%rdx
    6180:	48 89 d0             	mov    %rdx,%rax
    6183:	48 01 c0             	add    %rax,%rax
    6186:	48 01 d0             	add    %rdx,%rax
    6189:	48 c1 e0 04          	shl    $0x4,%rax
    618d:	48 8d 15 0c 12 01 00 	lea    0x1120c(%rip),%rdx        # 173a0 <g_711>
    6194:	48 01 d0             	add    %rdx,%rax
    6197:	48 89 01             	mov    %rax,(%rcx)
    619a:	8b 05 e0 00 01 00    	mov    0x100e0(%rip),%eax        # 16280 <g_615>
    61a0:	83 c0 01             	add    $0x1,%eax
    61a3:	89 05 d7 00 01 00    	mov    %eax,0x100d7(%rip)        # 16280 <g_615>
    61a9:	8b 05 d1 00 01 00    	mov    0x100d1(%rip),%eax        # 16280 <g_615>
    61af:	83 f8 07             	cmp    $0x7,%eax
    61b2:	0f 8e 41 fc ff ff    	jle    5df9 <func_31+0x5c7>
    61b8:	eb 01                	jmp    61bb <func_31+0x989>
    61ba:	90                   	nop
    61bb:	83 ad d4 f6 ff ff 01 	subl   $0x1,-0x92c(%rbp)
    61c2:	48 83 85 d8 f6 ff ff 	addq   $0x1,-0x928(%rbp)
    61c9:	01 
    61ca:	8b 05 00 cf 00 00    	mov    0xcf00(%rip),%eax        # 130d0 <g_95>
    61d0:	83 c0 01             	add    $0x1,%eax
    61d3:	89 05 f7 ce 00 00    	mov    %eax,0xcef7(%rip)        # 130d0 <g_95>
    61d9:	8b 05 f1 ce 00 00    	mov    0xcef1(%rip),%eax        # 130d0 <g_95>
    61df:	83 f8 05             	cmp    $0x5,%eax
    61e2:	0f 86 a9 fa ff ff    	jbe    5c91 <func_31+0x45f>
    61e8:	c7 05 5e 00 01 00 00 	movl   $0x0,0x1005e(%rip)        # 16250 <g_534+0x10>
    61ef:	00 00 00 
    61f2:	e9 e6 0a 00 00       	jmpq   6cdd <func_31+0x14ab>
    61f7:	0f b7 85 98 f6 ff ff 	movzwl -0x968(%rbp),%eax
    61fe:	66 25 00 fc          	and    $0xfc00,%ax
    6202:	83 c8 04             	or     $0x4,%eax
    6205:	66 89 85 98 f6 ff ff 	mov    %ax,-0x968(%rbp)
    620c:	48 8d 05 bd cf 00 00 	lea    0xcfbd(%rip),%rax        # 131d0 <g_212>
    6213:	48 89 85 28 f7 ff ff 	mov    %rax,-0x8d8(%rbp)
    621a:	8b 05 a4 ce 00 00    	mov    0xcea4(%rip),%eax        # 130c4 <g_35>
    6220:	8b 95 a4 f6 ff ff    	mov    -0x95c(%rbp),%edx
    6226:	48 63 ca             	movslq %edx,%rcx
    6229:	48 63 d0             	movslq %eax,%rdx
    622c:	48 89 d0             	mov    %rdx,%rax
    622f:	48 01 c0             	add    %rax,%rax
    6232:	48 01 d0             	add    %rdx,%rax
    6235:	48 01 c0             	add    %rax,%rax
    6238:	48 01 c8             	add    %rcx,%rax
    623b:	48 8d 14 c5 00 00 00 	lea    0x0(,%rax,8),%rdx
    6242:	00 
    6243:	48 8d 05 16 fe 00 00 	lea    0xfe16(%rip),%rax        # 16060 <g_313>
    624a:	48 8b 04 02          	mov    (%rdx,%rax,1),%rax
    624e:	48 ba ab 87 d8 fa ea 	movabs $0xdc92c1eafad887ab,%rdx
    6255:	c1 92 dc 
    6258:	48 39 d0             	cmp    %rdx,%rax
    625b:	0f 87 65 0a 00 00    	ja     6cc6 <func_31+0x1494>
    6261:	c7 85 d0 f6 ff ff 5f 	movl   $0xa804605f,-0x930(%rbp)
    6268:	60 04 a8 
    626b:	48 8d 05 ce 32 01 00 	lea    0x132ce(%rip),%rax        # 19540 <g_758+0x80>
    6272:	48 89 85 30 f7 ff ff 	mov    %rax,-0x8d0(%rbp)
    6279:	48 8d 85 94 f6 ff ff 	lea    -0x96c(%rbp),%rax
    6280:	48 89 85 38 f7 ff ff 	mov    %rax,-0x8c8(%rbp)
    6287:	48 8d 05 72 3d 01 00 	lea    0x13d72(%rip),%rax        # 1a000 <g_997>
    628e:	48 89 85 90 fc ff ff 	mov    %rax,-0x370(%rbp)
    6295:	48 8d 05 64 3d 01 00 	lea    0x13d64(%rip),%rax        # 1a000 <g_997>
    629c:	48 89 85 98 fc ff ff 	mov    %rax,-0x368(%rbp)
    62a3:	48 c7 85 a0 fc ff ff 	movq   $0x0,-0x360(%rbp)
    62aa:	00 00 00 00 
    62ae:	48 8d 05 6b 3d 01 00 	lea    0x13d6b(%rip),%rax        # 1a020 <g_997+0x20>
    62b5:	48 89 85 a8 fc ff ff 	mov    %rax,-0x358(%rbp)
    62bc:	8b 85 a4 f6 ff ff    	mov    -0x95c(%rbp),%eax
    62c2:	83 c0 02             	add    $0x2,%eax
    62c5:	48 98                	cltq   
    62c7:	48 8d 14 c5 00 00 00 	lea    0x0(,%rax,8),%rdx
    62ce:	00 
    62cf:	48 8d 05 2a 3d 01 00 	lea    0x13d2a(%rip),%rax        # 1a000 <g_997>
    62d6:	48 01 d0             	add    %rdx,%rax
    62d9:	48 89 85 b0 fc ff ff 	mov    %rax,-0x350(%rbp)
    62e0:	8b 85 a4 f6 ff ff    	mov    -0x95c(%rbp),%eax
    62e6:	83 c0 02             	add    $0x2,%eax
    62e9:	48 98                	cltq   
    62eb:	48 8d 14 c5 00 00 00 	lea    0x0(,%rax,8),%rdx
    62f2:	00 
    62f3:	48 8d 05 06 3d 01 00 	lea    0x13d06(%rip),%rax        # 1a000 <g_997>
    62fa:	48 01 d0             	add    %rdx,%rax
    62fd:	48 89 85 b8 fc ff ff 	mov    %rax,-0x348(%rbp)
    6304:	48 8d 05 15 3d 01 00 	lea    0x13d15(%rip),%rax        # 1a020 <g_997+0x20>
    630b:	48 89 85 c0 fc ff ff 	mov    %rax,-0x340(%rbp)
    6312:	48 8d 05 e7 3c 01 00 	lea    0x13ce7(%rip),%rax        # 1a000 <g_997>
    6319:	48 89 85 c8 fc ff ff 	mov    %rax,-0x338(%rbp)
    6320:	48 c7 85 d0 fc ff ff 	movq   $0x0,-0x330(%rbp)
    6327:	00 00 00 00 
    632b:	48 c7 85 d8 fc ff ff 	movq   $0x0,-0x328(%rbp)
    6332:	00 00 00 00 
    6336:	48 8d 05 e3 3c 01 00 	lea    0x13ce3(%rip),%rax        # 1a020 <g_997+0x20>
    633d:	48 89 85 e0 fc ff ff 	mov    %rax,-0x320(%rbp)
    6344:	48 8d 05 d5 3c 01 00 	lea    0x13cd5(%rip),%rax        # 1a020 <g_997+0x20>
    634b:	48 89 85 e8 fc ff ff 	mov    %rax,-0x318(%rbp)
    6352:	48 8d 05 a7 3c 01 00 	lea    0x13ca7(%rip),%rax        # 1a000 <g_997>
    6359:	48 89 85 f0 fc ff ff 	mov    %rax,-0x310(%rbp)
    6360:	48 8d 05 b9 3c 01 00 	lea    0x13cb9(%rip),%rax        # 1a020 <g_997+0x20>
    6367:	48 89 85 f8 fc ff ff 	mov    %rax,-0x308(%rbp)
    636e:	48 c7 85 00 fd ff ff 	movq   $0x0,-0x300(%rbp)
    6375:	00 00 00 00 
    6379:	48 8d 05 a0 3c 01 00 	lea    0x13ca0(%rip),%rax        # 1a020 <g_997+0x20>
    6380:	48 89 85 08 fd ff ff 	mov    %rax,-0x2f8(%rbp)
    6387:	48 c7 85 10 fd ff ff 	movq   $0x0,-0x2f0(%rbp)
    638e:	00 00 00 00 
    6392:	8b 85 a4 f6 ff ff    	mov    -0x95c(%rbp),%eax
    6398:	83 c0 02             	add    $0x2,%eax
    639b:	48 98                	cltq   
    639d:	48 8d 14 c5 00 00 00 	lea    0x0(,%rax,8),%rdx
    63a4:	00 
    63a5:	48 8d 05 54 3c 01 00 	lea    0x13c54(%rip),%rax        # 1a000 <g_997>
    63ac:	48 01 d0             	add    %rdx,%rax
    63af:	48 89 85 18 fd ff ff 	mov    %rax,-0x2e8(%rbp)
    63b6:	48 c7 85 20 fd ff ff 	movq   $0x0,-0x2e0(%rbp)
    63bd:	00 00 00 00 
    63c1:	48 8d 05 38 3c 01 00 	lea    0x13c38(%rip),%rax        # 1a000 <g_997>
    63c8:	48 89 85 28 fd ff ff 	mov    %rax,-0x2d8(%rbp)
    63cf:	48 c7 85 30 fd ff ff 	movq   $0x0,-0x2d0(%rbp)
    63d6:	00 00 00 00 
    63da:	48 8d 05 3f 3c 01 00 	lea    0x13c3f(%rip),%rax        # 1a020 <g_997+0x20>
    63e1:	48 89 85 38 fd ff ff 	mov    %rax,-0x2c8(%rbp)
    63e8:	48 8d 05 31 3c 01 00 	lea    0x13c31(%rip),%rax        # 1a020 <g_997+0x20>
    63ef:	48 89 85 40 fd ff ff 	mov    %rax,-0x2c0(%rbp)
    63f6:	8b 85 a4 f6 ff ff    	mov    -0x95c(%rbp),%eax
    63fc:	83 c0 02             	add    $0x2,%eax
    63ff:	48 98                	cltq   
    6401:	48 8d 14 c5 00 00 00 	lea    0x0(,%rax,8),%rdx
    6408:	00 
    6409:	48 8d 05 f0 3b 01 00 	lea    0x13bf0(%rip),%rax        # 1a000 <g_997>
    6410:	48 01 d0             	add    %rdx,%rax
    6413:	48 89 85 48 fd ff ff 	mov    %rax,-0x2b8(%rbp)
    641a:	48 8d 05 df 3b 01 00 	lea    0x13bdf(%rip),%rax        # 1a000 <g_997>
    6421:	48 89 85 50 fd ff ff 	mov    %rax,-0x2b0(%rbp)
    6428:	48 c7 85 58 fd ff ff 	movq   $0x0,-0x2a8(%rbp)
    642f:	00 00 00 00 
    6433:	48 8d 05 e6 3b 01 00 	lea    0x13be6(%rip),%rax        # 1a020 <g_997+0x20>
    643a:	48 89 85 60 fd ff ff 	mov    %rax,-0x2a0(%rbp)
    6441:	48 c7 85 68 fd ff ff 	movq   $0x0,-0x298(%rbp)
    6448:	00 00 00 00 
    644c:	48 8d 05 cd 3b 01 00 	lea    0x13bcd(%rip),%rax        # 1a020 <g_997+0x20>
    6453:	48 89 85 70 fd ff ff 	mov    %rax,-0x290(%rbp)
    645a:	8b 85 a4 f6 ff ff    	mov    -0x95c(%rbp),%eax
    6460:	83 c0 02             	add    $0x2,%eax
    6463:	48 98                	cltq   
    6465:	48 8d 14 c5 00 00 00 	lea    0x0(,%rax,8),%rdx
    646c:	00 
    646d:	48 8d 05 8c 3b 01 00 	lea    0x13b8c(%rip),%rax        # 1a000 <g_997>
    6474:	48 01 d0             	add    %rdx,%rax
    6477:	48 89 85 78 fd ff ff 	mov    %rax,-0x288(%rbp)
    647e:	48 c7 85 80 fd ff ff 	movq   $0x0,-0x280(%rbp)
    6485:	00 00 00 00 
    6489:	8b 85 a4 f6 ff ff    	mov    -0x95c(%rbp),%eax
    648f:	83 c0 02             	add    $0x2,%eax
    6492:	48 98                	cltq   
    6494:	48 8d 14 c5 00 00 00 	lea    0x0(,%rax,8),%rdx
    649b:	00 
    649c:	48 8d 05 5d 3b 01 00 	lea    0x13b5d(%rip),%rax        # 1a000 <g_997>
    64a3:	48 01 d0             	add    %rdx,%rax
    64a6:	48 89 85 88 fd ff ff 	mov    %rax,-0x278(%rbp)
    64ad:	8b 85 a4 f6 ff ff    	mov    -0x95c(%rbp),%eax
    64b3:	83 c0 02             	add    $0x2,%eax
    64b6:	48 98                	cltq   
    64b8:	48 8d 14 c5 00 00 00 	lea    0x0(,%rax,8),%rdx
    64bf:	00 
    64c0:	48 8d 05 39 3b 01 00 	lea    0x13b39(%rip),%rax        # 1a000 <g_997>
    64c7:	48 01 d0             	add    %rdx,%rax
    64ca:	48 89 85 90 fd ff ff 	mov    %rax,-0x270(%rbp)
    64d1:	48 c7 85 98 fd ff ff 	movq   $0x0,-0x268(%rbp)
    64d8:	00 00 00 00 
    64dc:	8b 85 a4 f6 ff ff    	mov    -0x95c(%rbp),%eax
    64e2:	83 c0 02             	add    $0x2,%eax
    64e5:	48 98                	cltq   
    64e7:	48 8d 14 c5 00 00 00 	lea    0x0(,%rax,8),%rdx
    64ee:	00 
    64ef:	48 8d 05 0a 3b 01 00 	lea    0x13b0a(%rip),%rax        # 1a000 <g_997>
    64f6:	48 01 d0             	add    %rdx,%rax
    64f9:	48 89 85 a0 fd ff ff 	mov    %rax,-0x260(%rbp)
    6500:	8b 85 a4 f6 ff ff    	mov    -0x95c(%rbp),%eax
    6506:	83 c0 02             	add    $0x2,%eax
    6509:	48 98                	cltq   
    650b:	48 8d 14 c5 00 00 00 	lea    0x0(,%rax,8),%rdx
    6512:	00 
    6513:	48 8d 05 e6 3a 01 00 	lea    0x13ae6(%rip),%rax        # 1a000 <g_997>
    651a:	48 01 d0             	add    %rdx,%rax
    651d:	48 89 85 a8 fd ff ff 	mov    %rax,-0x258(%rbp)
    6524:	48 8d 05 ed 3a 01 00 	lea    0x13aed(%rip),%rax        # 1a018 <g_997+0x18>
    652b:	48 89 85 b0 fd ff ff 	mov    %rax,-0x250(%rbp)
    6532:	48 c7 85 b8 fd ff ff 	movq   $0x0,-0x248(%rbp)
    6539:	00 00 00 00 
    653d:	48 8d 05 dc 3a 01 00 	lea    0x13adc(%rip),%rax        # 1a020 <g_997+0x20>
    6544:	48 89 85 c0 fd ff ff 	mov    %rax,-0x240(%rbp)
    654b:	48 8d 05 ce 3a 01 00 	lea    0x13ace(%rip),%rax        # 1a020 <g_997+0x20>
    6552:	48 89 85 c8 fd ff ff 	mov    %rax,-0x238(%rbp)
    6559:	48 c7 85 d0 fd ff ff 	movq   $0x0,-0x230(%rbp)
    6560:	00 00 00 00 
    6564:	48 8d 05 b5 3a 01 00 	lea    0x13ab5(%rip),%rax        # 1a020 <g_997+0x20>
    656b:	48 89 85 d8 fd ff ff 	mov    %rax,-0x228(%rbp)
    6572:	48 8d 05 9f 3a 01 00 	lea    0x13a9f(%rip),%rax        # 1a018 <g_997+0x18>
    6579:	48 89 85 e0 fd ff ff 	mov    %rax,-0x220(%rbp)
    6580:	48 8d 05 91 3a 01 00 	lea    0x13a91(%rip),%rax        # 1a018 <g_997+0x18>
    6587:	48 89 85 e8 fd ff ff 	mov    %rax,-0x218(%rbp)
    658e:	48 8d 05 6b 3a 01 00 	lea    0x13a6b(%rip),%rax        # 1a000 <g_997>
    6595:	48 89 85 f0 fd ff ff 	mov    %rax,-0x210(%rbp)
    659c:	48 c7 85 f8 fd ff ff 	movq   $0x0,-0x208(%rbp)
    65a3:	00 00 00 00 
    65a7:	48 8d 05 72 3a 01 00 	lea    0x13a72(%rip),%rax        # 1a020 <g_997+0x20>
    65ae:	48 89 85 00 fe ff ff 	mov    %rax,-0x200(%rbp)
    65b5:	48 8d 05 64 3a 01 00 	lea    0x13a64(%rip),%rax        # 1a020 <g_997+0x20>
    65bc:	48 89 85 08 fe ff ff 	mov    %rax,-0x1f8(%rbp)
    65c3:	48 c7 85 10 fe ff ff 	movq   $0x0,-0x1f0(%rbp)
    65ca:	00 00 00 00 
    65ce:	48 8d 05 43 3a 01 00 	lea    0x13a43(%rip),%rax        # 1a018 <g_997+0x18>
    65d5:	48 89 85 18 fe ff ff 	mov    %rax,-0x1e8(%rbp)
    65dc:	48 c7 85 20 fe ff ff 	movq   $0x0,-0x1e0(%rbp)
    65e3:	00 00 00 00 
    65e7:	8b 85 a4 f6 ff ff    	mov    -0x95c(%rbp),%eax
    65ed:	83 c0 02             	add    $0x2,%eax
    65f0:	48 98                	cltq   
    65f2:	48 8d 14 c5 00 00 00 	lea    0x0(,%rax,8),%rdx
    65f9:	00 
    65fa:	48 8d 05 ff 39 01 00 	lea    0x139ff(%rip),%rax        # 1a000 <g_997>
    6601:	48 01 d0             	add    %rdx,%rax
    6604:	48 89 85 28 fe ff ff 	mov    %rax,-0x1d8(%rbp)
    660b:	48 c7 85 30 fe ff ff 	movq   $0x0,-0x1d0(%rbp)
    6612:	00 00 00 00 
    6616:	8b 85 a4 f6 ff ff    	mov    -0x95c(%rbp),%eax
    661c:	83 c0 02             	add    $0x2,%eax
    661f:	48 98                	cltq   
    6621:	48 8d 14 c5 00 00 00 	lea    0x0(,%rax,8),%rdx
    6628:	00 
    6629:	48 8d 05 d0 39 01 00 	lea    0x139d0(%rip),%rax        # 1a000 <g_997>
    6630:	48 01 d0             	add    %rdx,%rax
    6633:	48 89 85 38 fe ff ff 	mov    %rax,-0x1c8(%rbp)
    663a:	8b 85 a4 f6 ff ff    	mov    -0x95c(%rbp),%eax
    6640:	83 c0 02             	add    $0x2,%eax
    6643:	48 98                	cltq   
    6645:	48 8d 14 c5 00 00 00 	lea    0x0(,%rax,8),%rdx
    664c:	00 
    664d:	48 8d 05 ac 39 01 00 	lea    0x139ac(%rip),%rax        # 1a000 <g_997>
    6654:	48 01 d0             	add    %rdx,%rax
    6657:	48 89 85 40 fe ff ff 	mov    %rax,-0x1c0(%rbp)
    665e:	48 c7 85 48 fe ff ff 	movq   $0x0,-0x1b8(%rbp)
    6665:	00 00 00 00 
    6669:	48 c7 85 50 fe ff ff 	movq   $0x0,-0x1b0(%rbp)
    6670:	00 00 00 00 
    6674:	48 8d 05 a5 39 01 00 	lea    0x139a5(%rip),%rax        # 1a020 <g_997+0x20>
    667b:	48 89 85 58 fe ff ff 	mov    %rax,-0x1a8(%rbp)
    6682:	8b 85 a4 f6 ff ff    	mov    -0x95c(%rbp),%eax
    6688:	83 c0 02             	add    $0x2,%eax
    668b:	48 98                	cltq   
    668d:	48 8d 14 c5 00 00 00 	lea    0x0(,%rax,8),%rdx
    6694:	00 
    6695:	48 8d 05 64 39 01 00 	lea    0x13964(%rip),%rax        # 1a000 <g_997>
    669c:	48 01 d0             	add    %rdx,%rax
    669f:	48 89 85 60 fe ff ff 	mov    %rax,-0x1a0(%rbp)
    66a6:	48 8d 05 73 39 01 00 	lea    0x13973(%rip),%rax        # 1a020 <g_997+0x20>
    66ad:	48 89 85 68 fe ff ff 	mov    %rax,-0x198(%rbp)
    66b4:	48 8d 05 55 39 01 00 	lea    0x13955(%rip),%rax        # 1a010 <g_997+0x10>
    66bb:	48 89 85 70 fe ff ff 	mov    %rax,-0x190(%rbp)
    66c2:	8b 85 a4 f6 ff ff    	mov    -0x95c(%rbp),%eax
    66c8:	83 c0 02             	add    $0x2,%eax
    66cb:	48 98                	cltq   
    66cd:	48 8d 14 c5 00 00 00 	lea    0x0(,%rax,8),%rdx
    66d4:	00 
    66d5:	48 8d 05 24 39 01 00 	lea    0x13924(%rip),%rax        # 1a000 <g_997>
    66dc:	48 01 d0             	add    %rdx,%rax
    66df:	48 89 85 78 fe ff ff 	mov    %rax,-0x188(%rbp)
    66e6:	48 8d 05 13 39 01 00 	lea    0x13913(%rip),%rax        # 1a000 <g_997>
    66ed:	48 89 85 80 fe ff ff 	mov    %rax,-0x180(%rbp)
    66f4:	48 8d 05 25 39 01 00 	lea    0x13925(%rip),%rax        # 1a020 <g_997+0x20>
    66fb:	48 89 85 88 fe ff ff 	mov    %rax,-0x178(%rbp)
    6702:	48 8d 05 17 39 01 00 	lea    0x13917(%rip),%rax        # 1a020 <g_997+0x20>
    6709:	48 89 85 90 fe ff ff 	mov    %rax,-0x170(%rbp)
    6710:	48 8d 05 09 39 01 00 	lea    0x13909(%rip),%rax        # 1a020 <g_997+0x20>
    6717:	48 89 85 98 fe ff ff 	mov    %rax,-0x168(%rbp)
    671e:	8b 85 a4 f6 ff ff    	mov    -0x95c(%rbp),%eax
    6724:	83 c0 02             	add    $0x2,%eax
    6727:	48 98                	cltq   
    6729:	48 8d 14 c5 00 00 00 	lea    0x0(,%rax,8),%rdx
    6730:	00 
    6731:	48 8d 05 c8 38 01 00 	lea    0x138c8(%rip),%rax        # 1a000 <g_997>
    6738:	48 01 d0             	add    %rdx,%rax
    673b:	48 89 85 a0 fe ff ff 	mov    %rax,-0x160(%rbp)
    6742:	48 8d 05 c7 38 01 00 	lea    0x138c7(%rip),%rax        # 1a010 <g_997+0x10>
    6749:	48 89 85 a8 fe ff ff 	mov    %rax,-0x158(%rbp)
    6750:	48 8d 05 c9 38 01 00 	lea    0x138c9(%rip),%rax        # 1a020 <g_997+0x20>
    6757:	48 89 85 b0 fe ff ff 	mov    %rax,-0x150(%rbp)
    675e:	8b 85 a4 f6 ff ff    	mov    -0x95c(%rbp),%eax
    6764:	83 c0 02             	add    $0x2,%eax
    6767:	48 98                	cltq   
    6769:	48 8d 14 c5 00 00 00 	lea    0x0(,%rax,8),%rdx
    6770:	00 
    6771:	48 8d 05 88 38 01 00 	lea    0x13888(%rip),%rax        # 1a000 <g_997>
    6778:	48 01 d0             	add    %rdx,%rax
    677b:	48 89 85 b8 fe ff ff 	mov    %rax,-0x148(%rbp)
    6782:	48 8d 05 97 38 01 00 	lea    0x13897(%rip),%rax        # 1a020 <g_997+0x20>
    6789:	48 89 85 c0 fe ff ff 	mov    %rax,-0x140(%rbp)
    6790:	8b 85 a4 f6 ff ff    	mov    -0x95c(%rbp),%eax
    6796:	83 c0 02             	add    $0x2,%eax
    6799:	48 98                	cltq   
    679b:	48 8d 14 c5 00 00 00 	lea    0x0(,%rax,8),%rdx
    67a2:	00 
    67a3:	48 8d 05 56 38 01 00 	lea    0x13856(%rip),%rax        # 1a000 <g_997>
    67aa:	48 01 d0             	add    %rdx,%rax
    67ad:	48 89 85 c8 fe ff ff 	mov    %rax,-0x138(%rbp)
    67b4:	48 c7 85 d0 fe ff ff 	movq   $0x0,-0x130(%rbp)
    67bb:	00 00 00 00 
    67bf:	8b 85 a4 f6 ff ff    	mov    -0x95c(%rbp),%eax
    67c5:	83 c0 02             	add    $0x2,%eax
    67c8:	48 98                	cltq   
    67ca:	48 8d 14 c5 00 00 00 	lea    0x0(,%rax,8),%rdx
    67d1:	00 
    67d2:	48 8d 05 27 38 01 00 	lea    0x13827(%rip),%rax        # 1a000 <g_997>
    67d9:	48 01 d0             	add    %rdx,%rax
    67dc:	48 89 85 d8 fe ff ff 	mov    %rax,-0x128(%rbp)
    67e3:	8b 85 a4 f6 ff ff    	mov    -0x95c(%rbp),%eax
    67e9:	83 c0 02             	add    $0x2,%eax
    67ec:	48 98                	cltq   
    67ee:	48 8d 14 c5 00 00 00 	lea    0x0(,%rax,8),%rdx
    67f5:	00 
    67f6:	48 8d 05 03 38 01 00 	lea    0x13803(%rip),%rax        # 1a000 <g_997>
    67fd:	48 01 d0             	add    %rdx,%rax
    6800:	48 89 85 e0 fe ff ff 	mov    %rax,-0x120(%rbp)
    6807:	48 c7 85 e8 fe ff ff 	movq   $0x0,-0x118(%rbp)
    680e:	00 00 00 00 
    6812:	8b 85 a4 f6 ff ff    	mov    -0x95c(%rbp),%eax
    6818:	83 c0 02             	add    $0x2,%eax
    681b:	48 98                	cltq   
    681d:	48 8d 14 c5 00 00 00 	lea    0x0(,%rax,8),%rdx
    6824:	00 
    6825:	48 8d 05 d4 37 01 00 	lea    0x137d4(%rip),%rax        # 1a000 <g_997>
    682c:	48 01 d0             	add    %rdx,%rax
    682f:	48 89 85 f0 fe ff ff 	mov    %rax,-0x110(%rbp)
    6836:	8b 85 a4 f6 ff ff    	mov    -0x95c(%rbp),%eax
    683c:	83 c0 02             	add    $0x2,%eax
    683f:	48 98                	cltq   
    6841:	48 8d 14 c5 00 00 00 	lea    0x0(,%rax,8),%rdx
    6848:	00 
    6849:	48 8d 05 b0 37 01 00 	lea    0x137b0(%rip),%rax        # 1a000 <g_997>
    6850:	48 01 d0             	add    %rdx,%rax
    6853:	48 89 85 f8 fe ff ff 	mov    %rax,-0x108(%rbp)
    685a:	48 8d 05 b7 37 01 00 	lea    0x137b7(%rip),%rax        # 1a018 <g_997+0x18>
    6861:	48 89 85 00 ff ff ff 	mov    %rax,-0x100(%rbp)
    6868:	48 c7 85 08 ff ff ff 	movq   $0x0,-0xf8(%rbp)
    686f:	00 00 00 00 
    6873:	48 8d 05 a6 37 01 00 	lea    0x137a6(%rip),%rax        # 1a020 <g_997+0x20>
    687a:	48 89 85 10 ff ff ff 	mov    %rax,-0xf0(%rbp)
    6881:	48 8d 05 98 37 01 00 	lea    0x13798(%rip),%rax        # 1a020 <g_997+0x20>
    6888:	48 89 85 18 ff ff ff 	mov    %rax,-0xe8(%rbp)
    688f:	48 c7 85 20 ff ff ff 	movq   $0x0,-0xe0(%rbp)
    6896:	00 00 00 00 
    689a:	48 8d 05 7f 37 01 00 	lea    0x1377f(%rip),%rax        # 1a020 <g_997+0x20>
    68a1:	48 89 85 28 ff ff ff 	mov    %rax,-0xd8(%rbp)
    68a8:	48 8d 05 69 37 01 00 	lea    0x13769(%rip),%rax        # 1a018 <g_997+0x18>
    68af:	48 89 85 30 ff ff ff 	mov    %rax,-0xd0(%rbp)
    68b6:	48 8d 05 5b 37 01 00 	lea    0x1375b(%rip),%rax        # 1a018 <g_997+0x18>
    68bd:	48 89 85 38 ff ff ff 	mov    %rax,-0xc8(%rbp)
    68c4:	48 8d 05 35 37 01 00 	lea    0x13735(%rip),%rax        # 1a000 <g_997>
    68cb:	48 89 85 40 ff ff ff 	mov    %rax,-0xc0(%rbp)
    68d2:	48 c7 85 48 ff ff ff 	movq   $0x0,-0xb8(%rbp)
    68d9:	00 00 00 00 
    68dd:	48 8d 05 3c 37 01 00 	lea    0x1373c(%rip),%rax        # 1a020 <g_997+0x20>
    68e4:	48 89 85 50 ff ff ff 	mov    %rax,-0xb0(%rbp)
    68eb:	48 8d 05 2e 37 01 00 	lea    0x1372e(%rip),%rax        # 1a020 <g_997+0x20>
    68f2:	48 89 85 58 ff ff ff 	mov    %rax,-0xa8(%rbp)
    68f9:	48 c7 85 60 ff ff ff 	movq   $0x0,-0xa0(%rbp)
    6900:	00 00 00 00 
    6904:	48 8d 05 0d 37 01 00 	lea    0x1370d(%rip),%rax        # 1a018 <g_997+0x18>
    690b:	48 89 85 68 ff ff ff 	mov    %rax,-0x98(%rbp)
    6912:	48 c7 85 70 ff ff ff 	movq   $0x0,-0x90(%rbp)
    6919:	00 00 00 00 
    691d:	8b 85 a4 f6 ff ff    	mov    -0x95c(%rbp),%eax
    6923:	83 c0 02             	add    $0x2,%eax
    6926:	48 98                	cltq   
    6928:	48 8d 14 c5 00 00 00 	lea    0x0(,%rax,8),%rdx
    692f:	00 
    6930:	48 8d 05 c9 36 01 00 	lea    0x136c9(%rip),%rax        # 1a000 <g_997>
    6937:	48 01 d0             	add    %rdx,%rax
    693a:	48 89 85 78 ff ff ff 	mov    %rax,-0x88(%rbp)
    6941:	48 c7 45 80 00 00 00 	movq   $0x0,-0x80(%rbp)
    6948:	00 
    6949:	8b 85 a4 f6 ff ff    	mov    -0x95c(%rbp),%eax
    694f:	83 c0 02             	add    $0x2,%eax
    6952:	48 98                	cltq   
    6954:	48 8d 14 c5 00 00 00 	lea    0x0(,%rax,8),%rdx
    695b:	00 
    695c:	48 8d 05 9d 36 01 00 	lea    0x1369d(%rip),%rax        # 1a000 <g_997>
    6963:	48 01 d0             	add    %rdx,%rax
    6966:	48 89 45 88          	mov    %rax,-0x78(%rbp)
    696a:	8b 85 a4 f6 ff ff    	mov    -0x95c(%rbp),%eax
    6970:	83 c0 02             	add    $0x2,%eax
    6973:	48 98                	cltq   
    6975:	48 8d 14 c5 00 00 00 	lea    0x0(,%rax,8),%rdx
    697c:	00 
    697d:	48 8d 05 7c 36 01 00 	lea    0x1367c(%rip),%rax        # 1a000 <g_997>
    6984:	48 01 d0             	add    %rdx,%rax
    6987:	48 89 45 90          	mov    %rax,-0x70(%rbp)
    698b:	48 c7 45 98 00 00 00 	movq   $0x0,-0x68(%rbp)
    6992:	00 
    6993:	48 c7 45 a0 00 00 00 	movq   $0x0,-0x60(%rbp)
    699a:	00 
    699b:	48 8d 05 7e 36 01 00 	lea    0x1367e(%rip),%rax        # 1a020 <g_997+0x20>
    69a2:	48 89 45 a8          	mov    %rax,-0x58(%rbp)
    69a6:	8b 85 a4 f6 ff ff    	mov    -0x95c(%rbp),%eax
    69ac:	83 c0 02             	add    $0x2,%eax
    69af:	48 98                	cltq   
    69b1:	48 8d 14 c5 00 00 00 	lea    0x0(,%rax,8),%rdx
    69b8:	00 
    69b9:	48 8d 05 40 36 01 00 	lea    0x13640(%rip),%rax        # 1a000 <g_997>
    69c0:	48 01 d0             	add    %rdx,%rax
    69c3:	48 89 45 b0          	mov    %rax,-0x50(%rbp)
    69c7:	48 8d 05 52 36 01 00 	lea    0x13652(%rip),%rax        # 1a020 <g_997+0x20>
    69ce:	48 89 45 b8          	mov    %rax,-0x48(%rbp)
    69d2:	48 8d 05 37 36 01 00 	lea    0x13637(%rip),%rax        # 1a010 <g_997+0x10>
    69d9:	48 89 45 c0          	mov    %rax,-0x40(%rbp)
    69dd:	8b 85 a4 f6 ff ff    	mov    -0x95c(%rbp),%eax
    69e3:	83 c0 02             	add    $0x2,%eax
    69e6:	48 98                	cltq   
    69e8:	48 8d 14 c5 00 00 00 	lea    0x0(,%rax,8),%rdx
    69ef:	00 
    69f0:	48 8d 05 09 36 01 00 	lea    0x13609(%rip),%rax        # 1a000 <g_997>
    69f7:	48 01 d0             	add    %rdx,%rax
    69fa:	48 89 45 c8          	mov    %rax,-0x38(%rbp)
    69fe:	48 8d 05 fb 35 01 00 	lea    0x135fb(%rip),%rax        # 1a000 <g_997>
    6a05:	48 89 45 d0          	mov    %rax,-0x30(%rbp)
    6a09:	48 8d 05 60 f8 00 00 	lea    0xf860(%rip),%rax        # 16270 <g_557>
    6a10:	48 89 85 40 f7 ff ff 	mov    %rax,-0x8c0(%rbp)
    6a17:	b8 01 00 00 00       	mov    $0x1,%eax
    6a1c:	84 c0                	test   %al,%al
    6a1e:	0f 84 a9 00 00 00    	je     6acd <func_31+0x129b>
    6a24:	48 8b 05 f5 f7 00 00 	mov    0xf7f5(%rip),%rax        # 16220 <g_448+0x20>
    6a2b:	0f bf d8             	movswl %ax,%ebx
    6a2e:	48 8b 05 3b 34 01 00 	mov    0x1343b(%rip),%rax        # 19e70 <g_319>
    6a35:	8b 00                	mov    (%rax),%eax
    6a37:	8b 85 a8 f6 ff ff    	mov    -0x958(%rbp),%eax
    6a3d:	0f b7 c0             	movzwl %ax,%eax
    6a40:	be 01 00 00 00       	mov    $0x1,%esi
    6a45:	89 c7                	mov    %eax,%edi
    6a47:	e8 2e d4 ff ff       	callq  3e7a <safe_rshift_func_uint16_t_u_u>
    6a4c:	8b 05 72 c6 00 00    	mov    0xc672(%rip),%eax        # 130c4 <g_35>
    6a52:	8b 95 a4 f6 ff ff    	mov    -0x95c(%rbp),%edx
    6a58:	48 63 ca             	movslq %edx,%rcx
    6a5b:	48 63 d0             	movslq %eax,%rdx
    6a5e:	48 89 d0             	mov    %rdx,%rax
    6a61:	48 01 c0             	add    %rax,%rax
    6a64:	48 01 d0             	add    %rdx,%rax
    6a67:	48 01 c0             	add    %rax,%rax
    6a6a:	48 01 c8             	add    %rcx,%rax
    6a6d:	48 8d 14 c5 00 00 00 	lea    0x0(,%rax,8),%rdx
    6a74:	00 
    6a75:	48 8d 05 e4 f5 00 00 	lea    0xf5e4(%rip),%rax        # 16060 <g_313>
    6a7c:	48 8b 04 02          	mov    (%rdx,%rax,1),%rax
    6a80:	41 89 c4             	mov    %eax,%r12d
    6a83:	48 8b 85 18 f7 ff ff 	mov    -0x8e8(%rbp),%rax
    6a8a:	89 c2                	mov    %eax,%edx
    6a8c:	48 8b 85 78 f6 ff ff 	mov    -0x988(%rbp),%rax
    6a93:	8b 00                	mov    (%rax),%eax
    6a95:	89 d6                	mov    %edx,%esi
    6a97:	89 c7                	mov    %eax,%edi
    6a99:	e8 2e cc ff ff       	callq  36cc <safe_mod_func_int32_t_s_s>
    6a9e:	44 89 e6             	mov    %r12d,%esi
    6aa1:	89 c7                	mov    %eax,%edi
    6aa3:	e8 0e cb ff ff       	callq  35b6 <safe_add_func_int32_t_s_s>
    6aa8:	48 8b 05 09 34 01 00 	mov    0x13409(%rip),%rax        # 19eb8 <g_605>
    6aaf:	66 c7 00 00 00       	movw   $0x0,(%rax)
    6ab4:	0f b7 00             	movzwl (%rax),%eax
    6ab7:	98                   	cwtl   
    6ab8:	89 de                	mov    %ebx,%esi
    6aba:	89 c7                	mov    %eax,%edi
    6abc:	e8 55 c9 ff ff       	callq  3416 <safe_mod_func_int16_t_s_s>
    6ac1:	66 85 c0             	test   %ax,%ax
    6ac4:	74 07                	je     6acd <func_31+0x129b>
    6ac6:	ba 01 00 00 00       	mov    $0x1,%edx
    6acb:	eb 05                	jmp    6ad2 <func_31+0x12a0>
    6acd:	ba 00 00 00 00       	mov    $0x0,%edx
    6ad2:	8b 85 28 f8 ff ff    	mov    -0x7d8(%rbp),%eax
    6ad8:	39 c2                	cmp    %eax,%edx
    6ada:	0f 9c c0             	setl   %al
    6add:	0f b6 c0             	movzbl %al,%eax
    6ae0:	31 85 9c f6 ff ff    	xor    %eax,-0x964(%rbp)
    6ae6:	48 8b 05 0b 35 01 00 	mov    0x1350b(%rip),%rax        # 19ff8 <g_987>
    6aed:	48 8b 00             	mov    (%rax),%rax
    6af0:	8b 00                	mov    (%rax),%eax
    6af2:	85 c0                	test   %eax,%eax
    6af4:	0f 85 88 01 00 00    	jne    6c82 <func_31+0x1450>
    6afa:	0f b7 85 98 f6 ff ff 	movzwl -0x968(%rbp),%eax
    6b01:	66 25 ff 03          	and    $0x3ff,%ax
    6b05:	0f b7 d8             	movzwl %ax,%ebx
    6b08:	8b 05 b6 c5 00 00    	mov    0xc5b6(%rip),%eax        # 130c4 <g_35>
    6b0e:	8b 95 a4 f6 ff ff    	mov    -0x95c(%rbp),%edx
    6b14:	48 63 ca             	movslq %edx,%rcx
    6b17:	48 63 d0             	movslq %eax,%rdx
    6b1a:	48 89 d0             	mov    %rdx,%rax
    6b1d:	48 01 c0             	add    %rax,%rax
    6b20:	48 01 d0             	add    %rdx,%rax
    6b23:	48 01 c0             	add    %rax,%rax
    6b26:	48 01 c8             	add    %rcx,%rax
    6b29:	48 8d 14 c5 00 00 00 	lea    0x0(,%rax,8),%rdx
    6b30:	00 
    6b31:	48 8d 05 28 f5 00 00 	lea    0xf528(%rip),%rax        # 16060 <g_313>
    6b38:	4c 8b 2c 02          	mov    (%rdx,%rax,1),%r13
    6b3c:	0f b7 05 85 41 01 00 	movzwl 0x14185(%rip),%eax        # 1acc8 <g_518>
    6b43:	4c 0f bf e0          	movswq %ax,%r12
    6b47:	48 8b 05 32 34 01 00 	mov    0x13432(%rip),%rax        # 19f80 <g_787>
    6b4e:	48 8b 00             	mov    (%rax),%rax
    6b51:	48 39 85 28 f7 ff ff 	cmp    %rax,-0x8d8(%rbp)
    6b58:	75 19                	jne    6b73 <func_31+0x1341>
    6b5a:	48 8b 05 5f 33 01 00 	mov    0x1335f(%rip),%rax        # 19ec0 <g_604>
    6b61:	48 8b 00             	mov    (%rax),%rax
    6b64:	0f b7 00             	movzwl (%rax),%eax
    6b67:	66 85 c0             	test   %ax,%ax
    6b6a:	74 07                	je     6b73 <func_31+0x1341>
    6b6c:	b8 01 00 00 00       	mov    $0x1,%eax
    6b71:	eb 05                	jmp    6b78 <func_31+0x1346>
    6b73:	b8 00 00 00 00       	mov    $0x0,%eax
    6b78:	0f be c0             	movsbl %al,%eax
    6b7b:	89 c7                	mov    %eax,%edi
    6b7d:	e8 3d c6 ff ff       	callq  31bf <safe_unary_minus_func_int8_t_s>
    6b82:	0f be c0             	movsbl %al,%eax
    6b85:	8b 95 9c f6 ff ff    	mov    -0x964(%rbp),%edx
    6b8b:	89 d6                	mov    %edx,%esi
    6b8d:	89 c7                	mov    %eax,%edi
    6b8f:	e8 a1 c7 ff ff       	callq  3335 <safe_rshift_func_int8_t_s_s>
    6b94:	66 98                	cbtw   
    6b96:	8b 95 28 f8 ff ff    	mov    -0x7d8(%rbp),%edx
    6b9c:	09 d0                	or     %edx,%eax
    6b9e:	0f b7 d0             	movzwl %ax,%edx
    6ba1:	48 8b 85 20 f7 ff ff 	mov    -0x8e0(%rbp),%rax
    6ba8:	48 3b 85 10 f7 ff ff 	cmp    -0x8f0(%rbp),%rax
    6baf:	0f 94 c0             	sete   %al
    6bb2:	0f b6 c0             	movzbl %al,%eax
    6bb5:	89 d6                	mov    %edx,%esi
    6bb7:	89 c7                	mov    %eax,%edi
    6bb9:	e8 41 d1 ff ff       	callq  3cff <safe_add_func_uint16_t_u_u>
    6bbe:	0f b7 c0             	movzwl %ax,%eax
    6bc1:	89 c6                	mov    %eax,%esi
    6bc3:	bf 01 00 00 00       	mov    $0x1,%edi
    6bc8:	e8 70 d1 ff ff       	callq  3d3d <safe_mul_func_uint16_t_u_u>
    6bcd:	0f b7 c0             	movzwl %ax,%eax
    6bd0:	83 e0 01             	and    $0x1,%eax
    6bd3:	be c4 ce 04 41       	mov    $0x4104cec4,%esi
    6bd8:	89 c7                	mov    %eax,%edi
    6bda:	e8 ed ca ff ff       	callq  36cc <safe_mod_func_int32_t_s_s>
    6bdf:	bf 00 00 00 00       	mov    $0x0,%edi
    6be4:	e8 d6 c5 ff ff       	callq  31bf <safe_unary_minus_func_int8_t_s>
    6be9:	84 c0                	test   %al,%al
    6beb:	74 11                	je     6bfe <func_31+0x13cc>
    6bed:	8b 05 ed 07 01 00    	mov    0x107ed(%rip),%eax        # 173e0 <g_711+0x40>
    6bf3:	85 c0                	test   %eax,%eax
    6bf5:	74 07                	je     6bfe <func_31+0x13cc>
    6bf7:	b8 01 00 00 00       	mov    $0x1,%eax
    6bfc:	eb 05                	jmp    6c03 <func_31+0x13d1>
    6bfe:	b8 00 00 00 00       	mov    $0x0,%eax
    6c03:	48 63 d0             	movslq %eax,%rdx
    6c06:	48 8b 85 30 f7 ff ff 	mov    -0x8d0(%rbp),%rax
    6c0d:	48 89 10             	mov    %rdx,(%rax)
    6c10:	48 8b 85 30 f7 ff ff 	mov    -0x8d0(%rbp),%rax
    6c17:	48 8b 00             	mov    (%rax),%rax
    6c1a:	4c 89 e6             	mov    %r12,%rsi
    6c1d:	48 89 c7             	mov    %rax,%rdi
    6c20:	e8 d2 cd ff ff       	callq  39f7 <safe_div_func_int64_t_s_s>
    6c25:	be 05 00 00 00       	mov    $0x5,%esi
    6c2a:	48 89 c7             	mov    %rax,%rdi
    6c2d:	e8 19 d4 ff ff       	callq  404b <safe_sub_func_uint64_t_u_u>
    6c32:	49 39 c5             	cmp    %rax,%r13
    6c35:	0f 95 c0             	setne  %al
    6c38:	0f b6 c0             	movzbl %al,%eax
    6c3b:	48 89 de             	mov    %rbx,%rsi
    6c3e:	48 89 c7             	mov    %rax,%rdi
    6c41:	e8 6e cd ff ff       	callq  39b4 <safe_mod_func_int64_t_s_s>
    6c46:	48 3d 49 cc 00 00    	cmp    $0xcc49,%rax
    6c4c:	0f 9e c0             	setle  %al
    6c4f:	0f b6 d0             	movzbl %al,%edx
    6c52:	48 8b 05 8f 33 01 00 	mov    0x1338f(%rip),%rax        # 19fe8 <g_795>
    6c59:	48 8b 00             	mov    (%rax),%rax
    6c5c:	48 8b 00             	mov    (%rax),%rax
    6c5f:	48 8b 00             	mov    (%rax),%rax
    6c62:	48 8b 00             	mov    (%rax),%rax
    6c65:	0f b6 00             	movzbl (%rax),%eax
    6c68:	0f be c0             	movsbl %al,%eax
    6c6b:	39 c2                	cmp    %eax,%edx
    6c6d:	48 8b 05 74 33 01 00 	mov    0x13374(%rip),%rax        # 19fe8 <g_795>
    6c74:	48 8b 00             	mov    (%rax),%rax
    6c77:	48 8b 00             	mov    (%rax),%rax
    6c7a:	48 8b 00             	mov    (%rax),%rax
    6c7d:	48 85 c0             	test   %rax,%rax
    6c80:	75 07                	jne    6c89 <func_31+0x1457>
    6c82:	ba 01 00 00 00       	mov    $0x1,%edx
    6c87:	eb 05                	jmp    6c8e <func_31+0x145c>
    6c89:	ba 00 00 00 00       	mov    $0x0,%edx
    6c8e:	48 8b 85 38 f7 ff ff 	mov    -0x8c8(%rbp),%rax
    6c95:	89 10                	mov    %edx,(%rax)
    6c97:	48 8b 85 78 f6 ff ff 	mov    -0x988(%rbp),%rax
    6c9e:	48 89 85 40 f7 ff ff 	mov    %rax,-0x8c0(%rbp)
    6ca5:	0f b7 85 98 f6 ff ff 	movzwl -0x968(%rbp),%eax
    6cac:	66 25 ff 03          	and    $0x3ff,%ax
    6cb0:	66 85 c0             	test   %ax,%ax
    6cb3:	75 39                	jne    6cee <func_31+0x14bc>
    6cb5:	8b 05 95 f5 00 00    	mov    0xf595(%rip),%eax        # 16250 <g_534+0x10>
    6cbb:	83 c0 01             	add    $0x1,%eax
    6cbe:	89 05 8c f5 00 00    	mov    %eax,0xf58c(%rip)        # 16250 <g_534+0x10>
    6cc4:	eb 17                	jmp    6cdd <func_31+0x14ab>
    6cc6:	83 bd a8 f6 ff ff 00 	cmpl   $0x0,-0x958(%rbp)
    6ccd:	75 22                	jne    6cf1 <func_31+0x14bf>
    6ccf:	48 8b 85 78 f6 ff ff 	mov    -0x988(%rbp),%rax
    6cd6:	8b 00                	mov    (%rax),%eax
    6cd8:	e9 e4 01 00 00       	jmpq   6ec1 <func_31+0x168f>
    6cdd:	8b 05 6d f5 00 00    	mov    0xf56d(%rip),%eax        # 16250 <g_534+0x10>
    6ce3:	83 f8 08             	cmp    $0x8,%eax
    6ce6:	0f 8e 0b f5 ff ff    	jle    61f7 <func_31+0x9c5>
    6cec:	eb 04                	jmp    6cf2 <func_31+0x14c0>
    6cee:	90                   	nop
    6cef:	eb 01                	jmp    6cf2 <func_31+0x14c0>
    6cf1:	90                   	nop
    6cf2:	48 8b 05 37 31 01 00 	mov    0x13137(%rip),%rax        # 19e30 <g_206>
    6cf9:	8b 95 90 f6 ff ff    	mov    -0x970(%rbp),%edx
    6cff:	89 10                	mov    %edx,(%rax)
    6d01:	c7 85 a0 f6 ff ff 06 	movl   $0x6,-0x960(%rbp)
    6d08:	00 00 00 
    6d0b:	eb 40                	jmp    6d4d <func_31+0x151b>
    6d0d:	8b 05 b1 c3 00 00    	mov    0xc3b1(%rip),%eax        # 130c4 <g_35>
    6d13:	48 63 c8             	movslq %eax,%rcx
    6d16:	8b 85 a0 f6 ff ff    	mov    -0x960(%rbp),%eax
    6d1c:	48 63 d0             	movslq %eax,%rdx
    6d1f:	48 89 d0             	mov    %rdx,%rax
    6d22:	48 01 c0             	add    %rax,%rax
    6d25:	48 01 d0             	add    %rdx,%rax
    6d28:	48 01 c0             	add    %rax,%rax
    6d2b:	48 01 c8             	add    %rcx,%rax
    6d2e:	48 8d 14 c5 00 00 00 	lea    0x0(,%rax,8),%rdx
    6d35:	00 
    6d36:	48 8d 05 23 f3 00 00 	lea    0xf323(%rip),%rax        # 16060 <g_313>
    6d3d:	48 8b 04 02          	mov    (%rdx,%rax,1),%rax
    6d41:	48 85 c0             	test   %rax,%rax
    6d44:	75 12                	jne    6d58 <func_31+0x1526>
    6d46:	83 ad a0 f6 ff ff 01 	subl   $0x1,-0x960(%rbp)
    6d4d:	83 bd a0 f6 ff ff 00 	cmpl   $0x0,-0x960(%rbp)
    6d54:	79 b7                	jns    6d0d <func_31+0x14db>
    6d56:	eb 01                	jmp    6d59 <func_31+0x1527>
    6d58:	90                   	nop
    6d59:	83 ad a4 f6 ff ff 01 	subl   $0x1,-0x95c(%rbp)
    6d60:	83 bd a4 f6 ff ff 00 	cmpl   $0x0,-0x95c(%rbp)
    6d67:	0f 89 94 ec ff ff    	jns    5a01 <func_31+0x1cf>
    6d6d:	8b 05 51 c3 00 00    	mov    0xc351(%rip),%eax        # 130c4 <g_35>
    6d73:	83 e8 01             	sub    $0x1,%eax
    6d76:	89 05 48 c3 00 00    	mov    %eax,0xc348(%rip)        # 130c4 <g_35>
    6d7c:	8b 05 42 c3 00 00    	mov    0xc342(%rip),%eax        # 130c4 <g_35>
    6d82:	85 c0                	test   %eax,%eax
    6d84:	0f 8f c0 eb ff ff    	jg     594a <func_31+0x118>
    6d8a:	e9 29 01 00 00       	jmpq   6eb8 <func_31+0x1686>
    6d8f:	66 c7 85 8e f6 ff ff 	movw   $0x4d6d,-0x972(%rbp)
    6d96:	6d 4d 
    6d98:	48 8d 05 81 10 01 00 	lea    0x11081(%rip),%rax        # 17e20 <g_753+0x8e0>
    6d9f:	48 89 85 e0 f6 ff ff 	mov    %rax,-0x920(%rbp)
    6da6:	48 8d 05 c3 f4 00 00 	lea    0xf4c3(%rip),%rax        # 16270 <g_557>
    6dad:	48 89 85 e8 f6 ff ff 	mov    %rax,-0x918(%rbp)
    6db4:	48 8d 05 95 fc 00 00 	lea    0xfc95(%rip),%rax        # 16a50 <g_689+0x790>
    6dbb:	48 89 85 f0 f6 ff ff 	mov    %rax,-0x910(%rbp)
    6dc2:	48 8d 05 af 30 01 00 	lea    0x130af(%rip),%rax        # 19e78 <g_340>
    6dc9:	48 89 85 f8 f6 ff ff 	mov    %rax,-0x908(%rbp)
    6dd0:	c7 85 ac f6 ff ff 00 	movl   $0x0,-0x954(%rbp)
    6dd7:	00 00 00 
    6dda:	eb 1e                	jmp    6dfa <func_31+0x15c8>
    6ddc:	8b 85 ac f6 ff ff    	mov    -0x954(%rbp),%eax
    6de2:	48 98                	cltq   
    6de4:	48 8d 15 65 f4 00 00 	lea    0xf465(%rip),%rdx        # 16250 <g_534+0x10>
    6deb:	48 89 94 c5 90 fc ff 	mov    %rdx,-0x370(%rbp,%rax,8)
    6df2:	ff 
    6df3:	83 85 ac f6 ff ff 01 	addl   $0x1,-0x954(%rbp)
    6dfa:	83 bd ac f6 ff ff 01 	cmpl   $0x1,-0x954(%rbp)
    6e01:	7e d9                	jle    6ddc <func_31+0x15aa>
    6e03:	0f bf 85 8e f6 ff ff 	movswl -0x972(%rbp),%eax
    6e0a:	89 c6                	mov    %eax,%esi
    6e0c:	bf 01 00 00 00       	mov    $0x1,%edi
    6e11:	e8 bd c5 ff ff       	callq  33d3 <safe_sub_func_int16_t_s_s>
    6e16:	0f be 9d 89 f6 ff ff 	movsbl -0x977(%rbp),%ebx
    6e1d:	0f b7 85 8e f6 ff ff 	movzwl -0x972(%rbp),%eax
    6e24:	83 e0 37             	and    $0x37,%eax
    6e27:	f7 d0                	not    %eax
    6e29:	0f b7 c0             	movzwl %ax,%eax
    6e2c:	be 08 00 00 00       	mov    $0x8,%esi
    6e31:	89 c7                	mov    %eax,%edi
    6e33:	e8 56 cf ff ff       	callq  3d8e <safe_div_func_uint16_t_u_u>
    6e38:	0f be c0             	movsbl %al,%eax
    6e3b:	89 de                	mov    %ebx,%esi
    6e3d:	89 c7                	mov    %eax,%edi
    6e3f:	e8 ce c3 ff ff       	callq  3212 <safe_mul_func_int8_t_s_s>
    6e44:	48 8b 85 78 f6 ff ff 	mov    -0x988(%rbp),%rax
    6e4b:	8b 10                	mov    (%rax),%edx
    6e4d:	0f b7 85 90 f6 ff ff 	movzwl -0x970(%rbp),%eax
    6e54:	66 25 ff 03          	and    $0x3ff,%ax
    6e58:	0f b7 c0             	movzwl %ax,%eax
    6e5b:	39 c2                	cmp    %eax,%edx
    6e5d:	0f b7 85 90 f6 ff ff 	movzwl -0x970(%rbp),%eax
    6e64:	66 25 ff 03          	and    $0x3ff,%ax
    6e68:	0f b7 c0             	movzwl %ax,%eax
    6e6b:	be 15 c3 c4 45       	mov    $0x45c4c315,%esi
    6e70:	89 c7                	mov    %eax,%edi
    6e72:	e8 3f c7 ff ff       	callq  35b6 <safe_add_func_int32_t_s_s>
    6e77:	48 8b 95 e0 f6 ff ff 	mov    -0x920(%rbp),%rdx
    6e7e:	89 02                	mov    %eax,(%rdx)
    6e80:	48 8b 85 e0 f6 ff ff 	mov    -0x920(%rbp),%rax
    6e87:	8b 10                	mov    (%rax),%edx
    6e89:	48 8b 85 78 f6 ff ff 	mov    -0x988(%rbp),%rax
    6e90:	8b 00                	mov    (%rax),%eax
    6e92:	31 c2                	xor    %eax,%edx
    6e94:	48 8b 85 e0 f6 ff ff 	mov    -0x920(%rbp),%rax
    6e9b:	89 10                	mov    %edx,(%rax)
    6e9d:	80 85 8a f6 ff ff 01 	addb   $0x1,-0x976(%rbp)
    6ea4:	48 8b 05 d5 2f 01 00 	mov    0x12fd5(%rip),%rax        # 19e80 <g_339>
    6eab:	48 8b 10             	mov    (%rax),%rdx
    6eae:	48 8b 85 f8 f6 ff ff 	mov    -0x908(%rbp),%rax
    6eb5:	48 89 10             	mov    %rdx,(%rax)
    6eb8:	48 8b 05 b9 2f 01 00 	mov    0x12fb9(%rip),%rax        # 19e78 <g_340>
    6ebf:	8b 00                	mov    (%rax),%eax
    6ec1:	48 8b 5d d8          	mov    -0x28(%rbp),%rbx
    6ec5:	64 48 33 1c 25 28 00 	xor    %fs:0x28,%rbx
    6ecc:	00 00 
    6ece:	74 05                	je     6ed5 <func_31+0x16a3>
    6ed0:	e8 9b c1 ff ff       	callq  3070 <__stack_chk_fail@plt>
    6ed5:	48 81 c4 78 09 00 00 	add    $0x978,%rsp
    6edc:	5b                   	pop    %rbx
    6edd:	41 5c                	pop    %r12
    6edf:	41 5d                	pop    %r13
    6ee1:	5d                   	pop    %rbp
    6ee2:	c3                   	retq   

0000000000006ee3 <func_33>:
    6ee3:	f3 0f 1e fa          	endbr64 
    6ee7:	55                   	push   %rbp
    6ee8:	48 89 e5             	mov    %rsp,%rbp
    6eeb:	48 81 ec f0 00 00 00 	sub    $0xf0,%rsp
    6ef2:	89 bd 1c ff ff ff    	mov    %edi,-0xe4(%rbp)
    6ef8:	64 48 8b 04 25 28 00 	mov    %fs:0x28,%rax
    6eff:	00 00 
    6f01:	48 89 45 f8          	mov    %rax,-0x8(%rbp)
    6f05:	31 c0                	xor    %eax,%eax
    6f07:	0f b7 85 34 ff ff ff 	movzwl -0xcc(%rbp),%eax
    6f0e:	66 25 00 fc          	and    $0xfc00,%ax
    6f12:	83 c8 03             	or     $0x3,%eax
    6f15:	66 89 85 34 ff ff ff 	mov    %ax,-0xcc(%rbp)
    6f1c:	48 c7 85 78 ff ff ff 	movq   $0x0,-0x88(%rbp)
    6f23:	00 00 00 00 
    6f27:	48 8d 05 fa 2e 01 00 	lea    0x12efa(%rip),%rax        # 19e28 <g_165>
    6f2e:	48 89 85 60 ff ff ff 	mov    %rax,-0xa0(%rbp)
    6f35:	48 8d 85 60 ff ff ff 	lea    -0xa0(%rbp),%rax
    6f3c:	48 89 45 80          	mov    %rax,-0x80(%rbp)
    6f40:	c7 85 3c ff ff ff ff 	movl   $0xffffffff,-0xc4(%rbp)
    6f47:	ff ff ff 
    6f4a:	c7 85 40 ff ff ff 00 	movl   $0x0,-0xc0(%rbp)
    6f51:	00 00 00 
    6f54:	c7 85 44 ff ff ff e1 	movl   $0x46e492e1,-0xbc(%rbp)
    6f5b:	92 e4 46 
    6f5e:	c7 85 48 ff ff ff ca 	movl   $0xd3fe23ca,-0xb8(%rbp)
    6f65:	23 fe d3 
    6f68:	c7 45 d0 06 00 00 00 	movl   $0x6,-0x30(%rbp)
    6f6f:	c7 45 d4 06 00 00 00 	movl   $0x6,-0x2c(%rbp)
    6f76:	c7 45 d8 06 00 00 00 	movl   $0x6,-0x28(%rbp)
    6f7d:	c7 45 dc 06 00 00 00 	movl   $0x6,-0x24(%rbp)
    6f84:	c7 45 e0 06 00 00 00 	movl   $0x6,-0x20(%rbp)
    6f8b:	c7 45 e4 06 00 00 00 	movl   $0x6,-0x1c(%rbp)
    6f92:	c7 45 e8 06 00 00 00 	movl   $0x6,-0x18(%rbp)
    6f99:	c7 85 4c ff ff ff ca 	movl   $0xe565a0ca,-0xb4(%rbp)
    6fa0:	a0 65 e5 
    6fa3:	c7 85 50 ff ff ff 7b 	movl   $0x17c5be7b,-0xb0(%rbp)
    6faa:	be c5 17 
    6fad:	48 c7 45 88 00 00 00 	movq   $0x0,-0x78(%rbp)
    6fb4:	00 
    6fb5:	c7 85 54 ff ff ff 96 	movl   $0x7b630296,-0xac(%rbp)
    6fbc:	02 63 7b 
    6fbf:	48 c7 45 90 00 00 00 	movq   $0x0,-0x70(%rbp)
    6fc6:	00 
    6fc7:	48 8d 05 c2 3c 01 00 	lea    0x13cc2(%rip),%rax        # 1ac90 <g_49>
    6fce:	48 89 45 98          	mov    %rax,-0x68(%rbp)
    6fd2:	48 8d 05 77 f1 00 00 	lea    0xf177(%rip),%rax        # 16150 <g_313+0xf0>
    6fd9:	48 89 45 a0          	mov    %rax,-0x60(%rbp)
    6fdd:	48 c7 45 a8 00 00 00 	movq   $0x0,-0x58(%rbp)
    6fe4:	00 
    6fe5:	48 8d 05 54 c1 00 00 	lea    0xc154(%rip),%rax        # 13140 <g_175+0x20>
    6fec:	48 89 45 b0          	mov    %rax,-0x50(%rbp)
    6ff0:	c7 85 58 ff ff ff 2b 	movl   $0xa2b8882b,-0xa8(%rbp)
    6ff7:	88 b8 a2 
    6ffa:	48 8d 05 cf c1 00 00 	lea    0xc1cf(%rip),%rax        # 131d0 <g_212>
    7001:	48 89 85 68 ff ff ff 	mov    %rax,-0x98(%rbp)
    7008:	c7 85 5c ff ff ff 28 	movl   $0x66814628,-0xa4(%rbp)
    700f:	46 81 66 
    7012:	c6 85 2f ff ff ff 00 	movb   $0x0,-0xd1(%rbp)
    7019:	66 c7 85 30 ff ff ff 	movw   $0xfff7,-0xd0(%rbp)
    7020:	f7 ff 
    7022:	66 c7 85 32 ff ff ff 	movw   $0xfffd,-0xce(%rbp)
    7029:	fd ff 
    702b:	48 8d 85 68 ff ff ff 	lea    -0x98(%rbp),%rax
    7032:	48 89 45 b8          	mov    %rax,-0x48(%rbp)
    7036:	c7 85 38 ff ff ff 8f 	movl   $0x11b5e28f,-0xc8(%rbp)
    703d:	e2 b5 11 
    7040:	48 8d 85 38 ff ff ff 	lea    -0xc8(%rbp),%rax
    7047:	48 89 85 70 ff ff ff 	mov    %rax,-0x90(%rbp)
    704e:	48 8d 85 70 ff ff ff 	lea    -0x90(%rbp),%rax
    7055:	48 89 45 c0          	mov    %rax,-0x40(%rbp)
    7059:	48 c7 45 c8 03 00 00 	movq   $0x3,-0x38(%rbp)
    7060:	00 
    7061:	48 8b 05 48 2e 01 00 	mov    0x12e48(%rip),%rax        # 19eb0 <g_506>
    7068:	48 8b 00             	mov    (%rax),%rax
    706b:	48 8b 55 f8          	mov    -0x8(%rbp),%rdx
    706f:	64 48 33 14 25 28 00 	xor    %fs:0x28,%rdx
    7076:	00 00 
    7078:	74 05                	je     707f <func_33+0x19c>
    707a:	e8 f1 bf ff ff       	callq  3070 <__stack_chk_fail@plt>
    707f:	c9                   	leaveq 
    7080:	c3                   	retq   

0000000000007081 <func_36>:
    7081:	f3 0f 1e fa          	endbr64 
    7085:	55                   	push   %rbp
    7086:	48 89 e5             	mov    %rsp,%rbp
    7089:	89 f8                	mov    %edi,%eax
    708b:	88 45 cc             	mov    %al,-0x34(%rbp)
    708e:	48 8d 05 f7 3b 01 00 	lea    0x13bf7(%rip),%rax        # 1ac8c <g_9>
    7095:	48 89 45 e0          	mov    %rax,-0x20(%rbp)
    7099:	48 c7 45 e8 00 00 00 	movq   $0x0,-0x18(%rbp)
    70a0:	00 
    70a1:	48 c7 45 f0 00 00 00 	movq   $0x0,-0x10(%rbp)
    70a8:	00 
    70a9:	48 8d 05 1c c0 00 00 	lea    0xc01c(%rip),%rax        # 130cc <g_44>
    70b0:	48 89 45 f8          	mov    %rax,-0x8(%rbp)
    70b4:	0f b7 45 dc          	movzwl -0x24(%rbp),%eax
    70b8:	66 25 00 fc          	and    $0xfc00,%ax
    70bc:	83 c8 0c             	or     $0xc,%eax
    70bf:	66 89 45 dc          	mov    %ax,-0x24(%rbp)
    70c3:	c6 45 cc 01          	movb   $0x1,-0x34(%rbp)
    70c7:	80 7d cc 00          	cmpb   $0x0,-0x34(%rbp)
    70cb:	78 08                	js     70d5 <func_36+0x54>
    70cd:	8b 05 f5 bf 00 00    	mov    0xbff5(%rip),%eax        # 130c8 <g_39>
    70d3:	eb 14                	jmp    70e9 <func_36+0x68>
    70d5:	48 83 7d e0 00       	cmpq   $0x0,-0x20(%rbp)
    70da:	0f 94 c0             	sete   %al
    70dd:	0f b6 d0             	movzbl %al,%edx
    70e0:	48 8b 45 f8          	mov    -0x8(%rbp),%rax
    70e4:	89 10                	mov    %edx,(%rax)
    70e6:	8b 45 dc             	mov    -0x24(%rbp),%eax
    70e9:	5d                   	pop    %rbp
    70ea:	c3                   	retq   

00000000000070eb <func_58>:
    70eb:	f3 0f 1e fa          	endbr64 
    70ef:	55                   	push   %rbp
    70f0:	48 89 e5             	mov    %rsp,%rbp
    70f3:	89 f8                	mov    %edi,%eax
    70f5:	66 89 45 ec          	mov    %ax,-0x14(%rbp)
    70f9:	0f b7 45 fc          	movzwl -0x4(%rbp),%eax
    70fd:	66 25 00 fc          	and    $0xfc00,%ax
    7101:	83 c8 11             	or     $0x11,%eax
    7104:	66 89 45 fc          	mov    %ax,-0x4(%rbp)
    7108:	8b 45 fc             	mov    -0x4(%rbp),%eax
    710b:	5d                   	pop    %rbp
    710c:	c3                   	retq   

000000000000710d <func_69>:
    710d:	f3 0f 1e fa          	endbr64 
    7111:	55                   	push   %rbp
    7112:	48 89 e5             	mov    %rsp,%rbp
    7115:	41 57                	push   %r15
    7117:	41 56                	push   %r14
    7119:	41 55                	push   %r13
    711b:	41 54                	push   %r12
    711d:	53                   	push   %rbx
    711e:	48 81 ec 00 10 00 00 	sub    $0x1000,%rsp
    7125:	48 83 0c 24 00       	orq    $0x0,(%rsp)
    712a:	48 81 ec 28 06 00 00 	sub    $0x628,%rsp
    7131:	48 89 bd c8 e9 ff ff 	mov    %rdi,-0x1638(%rbp)
    7138:	89 b5 c4 e9 ff ff    	mov    %esi,-0x163c(%rbp)
    713e:	48 89 95 b8 e9 ff ff 	mov    %rdx,-0x1648(%rbp)
    7145:	64 48 8b 04 25 28 00 	mov    %fs:0x28,%rax
    714c:	00 00 
    714e:	48 89 45 c8          	mov    %rax,-0x38(%rbp)
    7152:	31 c0                	xor    %eax,%eax
    7154:	66 c7 85 da e9 ff ff 	movw   $0x1,-0x1626(%rbp)
    715b:	01 00 
    715d:	48 8d 05 64 bf 00 00 	lea    0xbf64(%rip),%rax        # 130c8 <g_39>
    7164:	48 89 85 c8 ea ff ff 	mov    %rax,-0x1538(%rbp)
    716b:	48 8d 05 52 bf 00 00 	lea    0xbf52(%rip),%rax        # 130c4 <g_35>
    7172:	48 89 85 80 ea ff ff 	mov    %rax,-0x1580(%rbp)
    7179:	c7 85 e8 e9 ff ff fb 	movl   $0xfffffffb,-0x1618(%rbp)
    7180:	ff ff ff 
    7183:	c7 85 ec e9 ff ff 11 	movl   $0xd187da11,-0x1614(%rbp)
    718a:	da 87 d1 
    718d:	c7 85 f0 e9 ff ff bd 	movl   $0xac9a06bd,-0x1610(%rbp)
    7194:	06 9a ac 
    7197:	66 c7 85 20 ed ff ff 	movw   $0x3,-0x12e0(%rbp)
    719e:	03 00 
    71a0:	66 c7 85 22 ed ff ff 	movw   $0xfb15,-0x12de(%rbp)
    71a7:	15 fb 
    71a9:	66 c7 85 24 ed ff ff 	movw   $0x3,-0x12dc(%rbp)
    71b0:	03 00 
    71b2:	66 c7 85 26 ed ff ff 	movw   $0x106f,-0x12da(%rbp)
    71b9:	6f 10 
    71bb:	66 c7 85 28 ed ff ff 	movw   $0x106f,-0x12d8(%rbp)
    71c2:	6f 10 
    71c4:	66 c7 85 2a ed ff ff 	movw   $0x3,-0x12d6(%rbp)
    71cb:	03 00 
    71cd:	66 c7 85 2c ed ff ff 	movw   $0xfb15,-0x12d4(%rbp)
    71d4:	15 fb 
    71d6:	66 c7 85 2e ed ff ff 	movw   $0x6d71,-0x12d2(%rbp)
    71dd:	71 6d 
    71df:	66 c7 85 30 ed ff ff 	movw   $0x5,-0x12d0(%rbp)
    71e6:	05 00 
    71e8:	66 c7 85 32 ed ff ff 	movw   $0x3,-0x12ce(%rbp)
    71ef:	03 00 
    71f1:	66 c7 85 34 ed ff ff 	movw   $0x3,-0x12cc(%rbp)
    71f8:	03 00 
    71fa:	66 c7 85 36 ed ff ff 	movw   $0x5,-0x12ca(%rbp)
    7201:	05 00 
    7203:	66 c7 85 38 ed ff ff 	movw   $0x6d71,-0x12c8(%rbp)
    720a:	71 6d 
    720c:	66 c7 85 3a ed ff ff 	movw   $0x5,-0x12c6(%rbp)
    7213:	05 00 
    7215:	66 c7 85 3c ed ff ff 	movw   $0x3,-0x12c4(%rbp)
    721c:	03 00 
    721e:	66 c7 85 3e ed ff ff 	movw   $0x106f,-0x12c2(%rbp)
    7225:	6f 10 
    7227:	66 c7 85 40 ed ff ff 	movw   $0x106f,-0x12c0(%rbp)
    722e:	6f 10 
    7230:	66 c7 85 42 ed ff ff 	movw   $0x3,-0x12be(%rbp)
    7237:	03 00 
    7239:	66 c7 85 44 ed ff ff 	movw   $0xfb15,-0x12bc(%rbp)
    7240:	15 fb 
    7242:	66 c7 85 46 ed ff ff 	movw   $0x3,-0x12ba(%rbp)
    7249:	03 00 
    724b:	66 c7 85 48 ed ff ff 	movw   $0x106f,-0x12b8(%rbp)
    7252:	6f 10 
    7254:	66 c7 85 4a ed ff ff 	movw   $0x4c2f,-0x12b6(%rbp)
    725b:	2f 4c 
    725d:	66 c7 85 4c ed ff ff 	movw   $0x4c2f,-0x12b4(%rbp)
    7264:	2f 4c 
    7266:	66 c7 85 4e ed ff ff 	movw   $0x6d71,-0x12b2(%rbp)
    726d:	71 6d 
    726f:	66 c7 85 50 ed ff ff 	movw   $0x3,-0x12b0(%rbp)
    7276:	03 00 
    7278:	66 c7 85 52 ed ff ff 	movw   $0x6d71,-0x12ae(%rbp)
    727f:	71 6d 
    7281:	66 c7 85 54 ed ff ff 	movw   $0x4c2f,-0x12ac(%rbp)
    7288:	2f 4c 
    728a:	66 c7 85 56 ed ff ff 	movw   $0x4c2f,-0x12aa(%rbp)
    7291:	2f 4c 
    7293:	48 8d 05 ee 39 01 00 	lea    0x139ee(%rip),%rax        # 1ac88 <g_3>
    729a:	48 89 85 d0 ea ff ff 	mov    %rax,-0x1530(%rbp)
    72a1:	66 c7 85 dc e9 ff ff 	movw   $0xe123,-0x1624(%rbp)
    72a8:	23 e1 
    72aa:	48 c7 85 88 ea ff ff 	movq   $0x0,-0x1578(%rbp)
    72b1:	00 00 00 00 
    72b5:	66 c7 85 de e9 ff ff 	movw   $0x65f7,-0x1622(%rbp)
    72bc:	f7 65 
    72be:	c7 85 48 ea ff ff 01 	movl   $0x1,-0x15b8(%rbp)
    72c5:	00 00 00 
    72c8:	c7 85 4c ea ff ff 55 	movl   $0xddad1655,-0x15b4(%rbp)
    72cf:	16 ad dd 
    72d2:	c7 85 50 ea ff ff c2 	movl   $0xe734dac2,-0x15b0(%rbp)
    72d9:	da 34 e7 
    72dc:	c7 85 f4 e9 ff ff 05 	movl   $0x5,-0x160c(%rbp)
    72e3:	00 00 00 
    72e6:	c7 85 54 ea ff ff 50 	movl   $0x180bfa50,-0x15ac(%rbp)
    72ed:	fa 0b 18 
    72f0:	48 b8 9e 9b 4c b9 0d 	movabs $0x4c93270db94c9b9e,%rax
    72f7:	27 93 4c 
    72fa:	48 89 85 c0 ea ff ff 	mov    %rax,-0x1540(%rbp)
    7301:	48 8d 85 a0 f0 ff ff 	lea    -0xf60(%rbp),%rax
    7308:	48 8d 15 31 7e 00 00 	lea    0x7e31(%rip),%rdx        # f140 <g_2089+0xff0>
    730f:	b9 6c 00 00 00       	mov    $0x6c,%ecx
    7314:	48 89 c7             	mov    %rax,%rdi
    7317:	48 89 d6             	mov    %rdx,%rsi
    731a:	f3 48 a5             	rep movsq %ds:(%rsi),%es:(%rdi)
    731d:	c6 85 d8 e9 ff ff 9d 	movb   $0x9d,-0x1628(%rbp)
    7324:	c7 85 44 ea ff ff 00 	movl   $0x0,-0x15bc(%rbp)
    732b:	00 00 00 
    732e:	eb 1e                	jmp    734e <func_69+0x241>
    7330:	8b 85 44 ea ff ff    	mov    -0x15bc(%rbp),%eax
    7336:	48 98                	cltq   
    7338:	48 8d 15 55 bd 00 00 	lea    0xbd55(%rip),%rdx        # 13094 <g_7+0x54>
    733f:	48 89 94 c5 60 ed ff 	mov    %rdx,-0x12a0(%rbp,%rax,8)
    7346:	ff 
    7347:	83 85 44 ea ff ff 01 	addl   $0x1,-0x15bc(%rbp)
    734e:	83 bd 44 ea ff ff 08 	cmpl   $0x8,-0x15bc(%rbp)
    7355:	7e d9                	jle    7330 <func_69+0x223>
    7357:	c7 05 6b bd 00 00 01 	movl   $0x1,0xbd6b(%rip)        # 130cc <g_44>
    735e:	00 00 00 
    7361:	e9 56 38 00 00       	jmpq   abbc <func_69+0x3aaf>
    7366:	c7 85 f8 e9 ff ff 00 	movl   $0x0,-0x1608(%rbp)
    736d:	00 00 00 
    7370:	48 8d 05 59 bd 00 00 	lea    0xbd59(%rip),%rax        # 130d0 <g_95>
    7377:	48 89 85 d8 ea ff ff 	mov    %rax,-0x1528(%rbp)
    737e:	48 8d 05 4f bd 00 00 	lea    0xbd4f(%rip),%rax        # 130d4 <g_98>
    7385:	48 89 85 90 ea ff ff 	mov    %rax,-0x1570(%rbp)
    738c:	c7 85 fc e9 ff ff 0e 	movl   $0xfa15260e,-0x1604(%rbp)
    7393:	26 15 fa 
    7396:	c7 85 00 ea ff ff 03 	movl   $0x4b103803,-0x1600(%rbp)
    739d:	38 10 4b 
    73a0:	c7 85 04 ea ff ff ff 	movl   $0xffffffff,-0x15fc(%rbp)
    73a7:	ff ff ff 
    73aa:	48 8d 85 60 ed ff ff 	lea    -0x12a0(%rbp),%rax
    73b1:	48 83 c0 40          	add    $0x40,%rax
    73b5:	48 89 85 e0 ea ff ff 	mov    %rax,-0x1520(%rbp)
    73bc:	48 8d 05 cd 38 01 00 	lea    0x138cd(%rip),%rax        # 1ac90 <g_49>
    73c3:	48 89 85 e8 ea ff ff 	mov    %rax,-0x1518(%rbp)
    73ca:	48 c7 85 98 ea ff ff 	movq   $0x0,-0x1568(%rbp)
    73d1:	00 00 00 00 
    73d5:	48 8d 85 98 ea ff ff 	lea    -0x1568(%rbp),%rax
    73dc:	48 89 85 a0 ee ff ff 	mov    %rax,-0x1160(%rbp)
    73e3:	48 8d 85 98 ea ff ff 	lea    -0x1568(%rbp),%rax
    73ea:	48 89 85 a8 ee ff ff 	mov    %rax,-0x1158(%rbp)
    73f1:	48 8d 85 98 ea ff ff 	lea    -0x1568(%rbp),%rax
    73f8:	48 89 85 b0 ee ff ff 	mov    %rax,-0x1150(%rbp)
    73ff:	48 8d 85 98 ea ff ff 	lea    -0x1568(%rbp),%rax
    7406:	48 89 85 b8 ee ff ff 	mov    %rax,-0x1148(%rbp)
    740d:	48 c7 85 c0 ee ff ff 	movq   $0x0,-0x1140(%rbp)
    7414:	00 00 00 00 
    7418:	48 8d 85 98 ea ff ff 	lea    -0x1568(%rbp),%rax
    741f:	48 89 85 c8 ee ff ff 	mov    %rax,-0x1138(%rbp)
    7426:	48 8d 85 98 ea ff ff 	lea    -0x1568(%rbp),%rax
    742d:	48 89 85 d0 ee ff ff 	mov    %rax,-0x1130(%rbp)
    7434:	48 8d 85 98 ea ff ff 	lea    -0x1568(%rbp),%rax
    743b:	48 89 85 d8 ee ff ff 	mov    %rax,-0x1128(%rbp)
    7442:	48 8d 85 98 ea ff ff 	lea    -0x1568(%rbp),%rax
    7449:	48 89 85 e0 ee ff ff 	mov    %rax,-0x1120(%rbp)
    7450:	48 8d 85 98 ea ff ff 	lea    -0x1568(%rbp),%rax
    7457:	48 89 85 e8 ee ff ff 	mov    %rax,-0x1118(%rbp)
    745e:	48 8d 85 98 ea ff ff 	lea    -0x1568(%rbp),%rax
    7465:	48 89 85 f0 ee ff ff 	mov    %rax,-0x1110(%rbp)
    746c:	48 8d 85 98 ea ff ff 	lea    -0x1568(%rbp),%rax
    7473:	48 89 85 f8 ee ff ff 	mov    %rax,-0x1108(%rbp)
    747a:	48 8d 85 98 ea ff ff 	lea    -0x1568(%rbp),%rax
    7481:	48 89 85 00 ef ff ff 	mov    %rax,-0x1100(%rbp)
    7488:	48 8d 85 98 ea ff ff 	lea    -0x1568(%rbp),%rax
    748f:	48 89 85 08 ef ff ff 	mov    %rax,-0x10f8(%rbp)
    7496:	48 8d 85 98 ea ff ff 	lea    -0x1568(%rbp),%rax
    749d:	48 89 85 10 ef ff ff 	mov    %rax,-0x10f0(%rbp)
    74a4:	48 8d 85 98 ea ff ff 	lea    -0x1568(%rbp),%rax
    74ab:	48 89 85 18 ef ff ff 	mov    %rax,-0x10e8(%rbp)
    74b2:	48 8d 85 98 ea ff ff 	lea    -0x1568(%rbp),%rax
    74b9:	48 89 85 20 ef ff ff 	mov    %rax,-0x10e0(%rbp)
    74c0:	48 8d 85 98 ea ff ff 	lea    -0x1568(%rbp),%rax
    74c7:	48 89 85 28 ef ff ff 	mov    %rax,-0x10d8(%rbp)
    74ce:	48 8d 85 98 ea ff ff 	lea    -0x1568(%rbp),%rax
    74d5:	48 89 85 30 ef ff ff 	mov    %rax,-0x10d0(%rbp)
    74dc:	48 8d 85 98 ea ff ff 	lea    -0x1568(%rbp),%rax
    74e3:	48 89 85 38 ef ff ff 	mov    %rax,-0x10c8(%rbp)
    74ea:	48 8d 85 98 ea ff ff 	lea    -0x1568(%rbp),%rax
    74f1:	48 89 85 40 ef ff ff 	mov    %rax,-0x10c0(%rbp)
    74f8:	48 8d 85 98 ea ff ff 	lea    -0x1568(%rbp),%rax
    74ff:	48 89 85 48 ef ff ff 	mov    %rax,-0x10b8(%rbp)
    7506:	48 8d 85 98 ea ff ff 	lea    -0x1568(%rbp),%rax
    750d:	48 89 85 50 ef ff ff 	mov    %rax,-0x10b0(%rbp)
    7514:	48 8d 85 98 ea ff ff 	lea    -0x1568(%rbp),%rax
    751b:	48 89 85 58 ef ff ff 	mov    %rax,-0x10a8(%rbp)
    7522:	48 8d 85 98 ea ff ff 	lea    -0x1568(%rbp),%rax
    7529:	48 89 85 60 ef ff ff 	mov    %rax,-0x10a0(%rbp)
    7530:	48 8d 85 98 ea ff ff 	lea    -0x1568(%rbp),%rax
    7537:	48 89 85 68 ef ff ff 	mov    %rax,-0x1098(%rbp)
    753e:	48 8d 85 98 ea ff ff 	lea    -0x1568(%rbp),%rax
    7545:	48 89 85 70 ef ff ff 	mov    %rax,-0x1090(%rbp)
    754c:	48 8d 85 98 ea ff ff 	lea    -0x1568(%rbp),%rax
    7553:	48 89 85 78 ef ff ff 	mov    %rax,-0x1088(%rbp)
    755a:	48 8d 85 98 ea ff ff 	lea    -0x1568(%rbp),%rax
    7561:	48 89 85 80 ef ff ff 	mov    %rax,-0x1080(%rbp)
    7568:	48 c7 85 88 ef ff ff 	movq   $0x0,-0x1078(%rbp)
    756f:	00 00 00 00 
    7573:	48 8d 85 98 ea ff ff 	lea    -0x1568(%rbp),%rax
    757a:	48 89 85 90 ef ff ff 	mov    %rax,-0x1070(%rbp)
    7581:	48 8d 85 98 ea ff ff 	lea    -0x1568(%rbp),%rax
    7588:	48 89 85 98 ef ff ff 	mov    %rax,-0x1068(%rbp)
    758f:	48 8d 85 98 ea ff ff 	lea    -0x1568(%rbp),%rax
    7596:	48 89 85 a0 ef ff ff 	mov    %rax,-0x1060(%rbp)
    759d:	48 8d 85 98 ea ff ff 	lea    -0x1568(%rbp),%rax
    75a4:	48 89 85 a8 ef ff ff 	mov    %rax,-0x1058(%rbp)
    75ab:	48 c7 85 b0 ef ff ff 	movq   $0x0,-0x1050(%rbp)
    75b2:	00 00 00 00 
    75b6:	48 8d 85 98 ea ff ff 	lea    -0x1568(%rbp),%rax
    75bd:	48 89 85 b8 ef ff ff 	mov    %rax,-0x1048(%rbp)
    75c4:	48 8d 85 98 ea ff ff 	lea    -0x1568(%rbp),%rax
    75cb:	48 89 85 c0 ef ff ff 	mov    %rax,-0x1040(%rbp)
    75d2:	48 8d 85 98 ea ff ff 	lea    -0x1568(%rbp),%rax
    75d9:	48 89 85 c8 ef ff ff 	mov    %rax,-0x1038(%rbp)
    75e0:	48 8d 85 98 ea ff ff 	lea    -0x1568(%rbp),%rax
    75e7:	48 89 85 d0 ef ff ff 	mov    %rax,-0x1030(%rbp)
    75ee:	48 c7 85 d8 ef ff ff 	movq   $0x0,-0x1028(%rbp)
    75f5:	00 00 00 00 
    75f9:	48 8d 85 98 ea ff ff 	lea    -0x1568(%rbp),%rax
    7600:	48 89 85 e0 ef ff ff 	mov    %rax,-0x1020(%rbp)
    7607:	48 8d 85 98 ea ff ff 	lea    -0x1568(%rbp),%rax
    760e:	48 89 85 e8 ef ff ff 	mov    %rax,-0x1018(%rbp)
    7615:	48 8d 85 98 ea ff ff 	lea    -0x1568(%rbp),%rax
    761c:	48 89 85 f0 ef ff ff 	mov    %rax,-0x1010(%rbp)
    7623:	48 8d 85 98 ea ff ff 	lea    -0x1568(%rbp),%rax
    762a:	48 89 85 f8 ef ff ff 	mov    %rax,-0x1008(%rbp)
    7631:	48 8d 85 98 ea ff ff 	lea    -0x1568(%rbp),%rax
    7638:	48 89 85 00 f0 ff ff 	mov    %rax,-0x1000(%rbp)
    763f:	48 8d 85 98 ea ff ff 	lea    -0x1568(%rbp),%rax
    7646:	48 89 85 08 f0 ff ff 	mov    %rax,-0xff8(%rbp)
    764d:	48 8d 85 98 ea ff ff 	lea    -0x1568(%rbp),%rax
    7654:	48 89 85 10 f0 ff ff 	mov    %rax,-0xff0(%rbp)
    765b:	48 8d 85 98 ea ff ff 	lea    -0x1568(%rbp),%rax
    7662:	48 89 85 18 f0 ff ff 	mov    %rax,-0xfe8(%rbp)
    7669:	48 8d 85 98 ea ff ff 	lea    -0x1568(%rbp),%rax
    7670:	48 89 85 20 f0 ff ff 	mov    %rax,-0xfe0(%rbp)
    7677:	48 8d 85 98 ea ff ff 	lea    -0x1568(%rbp),%rax
    767e:	48 89 85 28 f0 ff ff 	mov    %rax,-0xfd8(%rbp)
    7685:	48 8d 85 98 ea ff ff 	lea    -0x1568(%rbp),%rax
    768c:	48 89 85 30 f0 ff ff 	mov    %rax,-0xfd0(%rbp)
    7693:	48 8d 85 98 ea ff ff 	lea    -0x1568(%rbp),%rax
    769a:	48 89 85 38 f0 ff ff 	mov    %rax,-0xfc8(%rbp)
    76a1:	48 8d 85 98 ea ff ff 	lea    -0x1568(%rbp),%rax
    76a8:	48 89 85 40 f0 ff ff 	mov    %rax,-0xfc0(%rbp)
    76af:	48 8d 85 98 ea ff ff 	lea    -0x1568(%rbp),%rax
    76b6:	48 89 85 48 f0 ff ff 	mov    %rax,-0xfb8(%rbp)
    76bd:	48 8d 85 98 ea ff ff 	lea    -0x1568(%rbp),%rax
    76c4:	48 89 85 50 f0 ff ff 	mov    %rax,-0xfb0(%rbp)
    76cb:	48 8d 85 98 ea ff ff 	lea    -0x1568(%rbp),%rax
    76d2:	48 89 85 58 f0 ff ff 	mov    %rax,-0xfa8(%rbp)
    76d9:	48 8d 85 98 ea ff ff 	lea    -0x1568(%rbp),%rax
    76e0:	48 89 85 60 f0 ff ff 	mov    %rax,-0xfa0(%rbp)
    76e7:	48 8d 85 98 ea ff ff 	lea    -0x1568(%rbp),%rax
    76ee:	48 89 85 68 f0 ff ff 	mov    %rax,-0xf98(%rbp)
    76f5:	48 8d 85 98 ea ff ff 	lea    -0x1568(%rbp),%rax
    76fc:	48 89 85 70 f0 ff ff 	mov    %rax,-0xf90(%rbp)
    7703:	48 8d 85 98 ea ff ff 	lea    -0x1568(%rbp),%rax
    770a:	48 89 85 78 f0 ff ff 	mov    %rax,-0xf88(%rbp)
    7711:	48 8d 85 98 ea ff ff 	lea    -0x1568(%rbp),%rax
    7718:	48 89 85 80 f0 ff ff 	mov    %rax,-0xf80(%rbp)
    771f:	48 8d 85 98 ea ff ff 	lea    -0x1568(%rbp),%rax
    7726:	48 89 85 88 f0 ff ff 	mov    %rax,-0xf78(%rbp)
    772d:	48 8d 85 98 ea ff ff 	lea    -0x1568(%rbp),%rax
    7734:	48 89 85 90 f0 ff ff 	mov    %rax,-0xf70(%rbp)
    773b:	c7 85 58 ea ff ff 5b 	movl   $0x99d3c5b,-0x15a8(%rbp)
    7742:	3c 9d 09 
    7745:	c7 85 5c ea ff ff ac 	movl   $0x9529e8ac,-0x15a4(%rbp)
    774c:	e8 29 95 
    774f:	c7 85 60 ea ff ff f9 	movl   $0xfffffff9,-0x15a0(%rbp)
    7756:	ff ff ff 
    7759:	66 c7 85 e0 e9 ff ff 	movw   $0x1,-0x1620(%rbp)
    7760:	01 00 
    7762:	c7 85 28 ea ff ff 00 	movl   $0x0,-0x15d8(%rbp)
    7769:	00 00 00 
    776c:	eb 1a                	jmp    7788 <func_69+0x67b>
    776e:	8b 85 28 ea ff ff    	mov    -0x15d8(%rbp),%eax
    7774:	48 98                	cltq   
    7776:	c7 84 85 c0 ec ff ff 	movl   $0x2a2ad9d,-0x1340(%rbp,%rax,4)
    777d:	9d ad a2 02 
    7781:	83 85 28 ea ff ff 01 	addl   $0x1,-0x15d8(%rbp)
    7788:	83 bd 28 ea ff ff 01 	cmpl   $0x1,-0x15d8(%rbp)
    778f:	7e dd                	jle    776e <func_69+0x661>
    7791:	8b 05 f9 34 01 00    	mov    0x134f9(%rip),%eax        # 1ac90 <g_49>
    7797:	0f bf d8             	movswl %ax,%ebx
    779a:	0f b6 05 fc b8 00 00 	movzbl 0xb8fc(%rip),%eax        # 1309d <g_7+0x5d>
    77a1:	44 0f be f0          	movsbl %al,%r14d
    77a5:	0f b7 05 1c b9 00 00 	movzwl 0xb91c(%rip),%eax        # 130c8 <g_39>
    77ac:	66 25 ff 03          	and    $0x3ff,%ax
    77b0:	44 0f be e0          	movsbl %al,%r12d
    77b4:	8b 85 c4 e9 ff ff    	mov    -0x163c(%rbp),%eax
    77ba:	41 89 c7             	mov    %eax,%r15d
    77bd:	0f b7 85 da e9 ff ff 	movzwl -0x1626(%rbp),%eax
    77c4:	44 0f bf e8          	movswl %ax,%r13d
    77c8:	be fb ff ff ff       	mov    $0xfffffffb,%esi
    77cd:	bf 02 00 00 00       	mov    $0x2,%edi
    77d2:	e8 7e bc ff ff       	callq  3455 <safe_div_func_int16_t_s_s>
    77d7:	0f bf d0             	movswl %ax,%edx
    77da:	8b 05 e4 b8 00 00    	mov    0xb8e4(%rip),%eax        # 130c4 <g_35>
    77e0:	39 c2                	cmp    %eax,%edx
    77e2:	0f 9f c0             	setg   %al
    77e5:	0f b6 c0             	movzbl %al,%eax
    77e8:	89 c2                	mov    %eax,%edx
    77ea:	8b 85 c4 e9 ff ff    	mov    -0x163c(%rbp),%eax
    77f0:	39 c2                	cmp    %eax,%edx
    77f2:	0f 97 c0             	seta   %al
    77f5:	0f b6 c0             	movzbl %al,%eax
    77f8:	44 89 ee             	mov    %r13d,%esi
    77fb:	89 c7                	mov    %eax,%edi
    77fd:	e8 fb c6 ff ff       	callq  3efd <safe_mod_func_uint32_t_u_u>
    7802:	89 c2                	mov    %eax,%edx
    7804:	8b 05 c2 b8 00 00    	mov    0xb8c2(%rip),%eax        # 130cc <g_44>
    780a:	48 98                	cltq   
    780c:	48 89 d6             	mov    %rdx,%rsi
    780f:	48 89 c7             	mov    %rax,%rdi
    7812:	e8 98 c8 ff ff       	callq  40af <safe_div_func_uint64_t_u_u>
    7817:	8b 95 c4 e9 ff ff    	mov    -0x163c(%rbp),%edx
    781d:	89 d2                	mov    %edx,%edx
    781f:	48 39 d0             	cmp    %rdx,%rax
    7822:	0f 95 c0             	setne  %al
    7825:	0f b6 c0             	movzbl %al,%eax
    7828:	4c 89 fe             	mov    %r15,%rsi
    782b:	48 89 c7             	mov    %rax,%rdi
    782e:	e8 4d c8 ff ff       	callq  4080 <safe_mod_func_uint64_t_u_u>
    7833:	0f be c0             	movsbl %al,%eax
    7836:	44 89 e6             	mov    %r12d,%esi
    7839:	89 c7                	mov    %eax,%edi
    783b:	e8 2a ba ff ff       	callq  326a <safe_div_func_int8_t_s_s>
    7840:	48 0f be c0          	movsbq %al,%rax
    7844:	83 e0 12             	and    $0x12,%eax
    7847:	48 89 c2             	mov    %rax,%rdx
    784a:	b8 9a ae 9a 96       	mov    $0x969aae9a,%eax
    784f:	48 39 c2             	cmp    %rax,%rdx
    7852:	0f 9e c0             	setle  %al
    7855:	0f b6 c0             	movzbl %al,%eax
    7858:	41 39 c6             	cmp    %eax,%r14d
    785b:	0f b7 85 da e9 ff ff 	movzwl -0x1626(%rbp),%eax
    7862:	0f b6 c0             	movzbl %al,%eax
    7865:	be 01 00 00 00       	mov    $0x1,%esi
    786a:	89 c7                	mov    %eax,%edi
    786c:	e8 e9 c2 ff ff       	callq  3b5a <safe_add_func_uint8_t_u_u>
    7871:	0f b6 d0             	movzbl %al,%edx
    7874:	8b 85 c4 e9 ff ff    	mov    -0x163c(%rbp),%eax
    787a:	39 c2                	cmp    %eax,%edx
    787c:	0f 97 c0             	seta   %al
    787f:	0f b6 c0             	movzbl %al,%eax
    7882:	89 de                	mov    %ebx,%esi
    7884:	89 c7                	mov    %eax,%edi
    7886:	e8 6a bb ff ff       	callq  33f5 <safe_mul_func_int16_t_s_s>
    788b:	0f bf d0             	movswl %ax,%edx
    788e:	8b 85 f8 e9 ff ff    	mov    -0x1608(%rbp),%eax
    7894:	39 c2                	cmp    %eax,%edx
    7896:	0f 9e c0             	setle  %al
    7899:	0f b6 d0             	movzbl %al,%edx
    789c:	48 8b 85 d8 ea ff ff 	mov    -0x1528(%rbp),%rax
    78a3:	89 10                	mov    %edx,(%rax)
    78a5:	48 8d 05 1c b8 00 00 	lea    0xb81c(%rip),%rax        # 130c8 <g_39>
    78ac:	48 39 85 c8 ea ff ff 	cmp    %rax,-0x1538(%rbp)
    78b3:	0f 95 c0             	setne  %al
    78b6:	0f b6 c8             	movzbl %al,%ecx
    78b9:	48 8b 85 90 ea ff ff 	mov    -0x1570(%rbp),%rax
    78c0:	8b 10                	mov    (%rax),%edx
    78c2:	48 8b 85 90 ea ff ff 	mov    -0x1570(%rbp),%rax
    78c9:	21 ca                	and    %ecx,%edx
    78cb:	89 10                	mov    %edx,(%rax)
    78cd:	48 8d 05 bc 33 01 00 	lea    0x133bc(%rip),%rax        # 1ac90 <g_49>
    78d4:	48 89 85 f0 ea ff ff 	mov    %rax,-0x1510(%rbp)
    78db:	48 8d 05 ce b7 00 00 	lea    0xb7ce(%rip),%rax        # 130b0 <g_7+0x70>
    78e2:	48 89 85 a0 ea ff ff 	mov    %rax,-0x1560(%rbp)
    78e9:	48 8d 85 50 ee ff ff 	lea    -0x11b0(%rbp),%rax
    78f0:	48 83 c0 28          	add    $0x28,%rax
    78f4:	48 89 85 00 f4 ff ff 	mov    %rax,-0xc00(%rbp)
    78fb:	48 8d 85 a0 ea ff ff 	lea    -0x1560(%rbp),%rax
    7902:	48 89 85 08 f4 ff ff 	mov    %rax,-0xbf8(%rbp)
    7909:	48 8d 85 50 ee ff ff 	lea    -0x11b0(%rbp),%rax
    7910:	48 83 c0 28          	add    $0x28,%rax
    7914:	48 89 85 10 f4 ff ff 	mov    %rax,-0xbf0(%rbp)
    791b:	48 8d 85 a0 ea ff ff 	lea    -0x1560(%rbp),%rax
    7922:	48 89 85 18 f4 ff ff 	mov    %rax,-0xbe8(%rbp)
    7929:	48 8d 85 50 ee ff ff 	lea    -0x11b0(%rbp),%rax
    7930:	48 83 c0 28          	add    $0x28,%rax
    7934:	48 89 85 20 f4 ff ff 	mov    %rax,-0xbe0(%rbp)
    793b:	48 8d 85 a0 ea ff ff 	lea    -0x1560(%rbp),%rax
    7942:	48 89 85 28 f4 ff ff 	mov    %rax,-0xbd8(%rbp)
    7949:	48 8d 85 50 ee ff ff 	lea    -0x11b0(%rbp),%rax
    7950:	48 83 c0 28          	add    $0x28,%rax
    7954:	48 89 85 30 f4 ff ff 	mov    %rax,-0xbd0(%rbp)
    795b:	48 8d 85 a0 ea ff ff 	lea    -0x1560(%rbp),%rax
    7962:	48 89 85 38 f4 ff ff 	mov    %rax,-0xbc8(%rbp)
    7969:	48 8d 85 50 ee ff ff 	lea    -0x11b0(%rbp),%rax
    7970:	48 83 c0 28          	add    $0x28,%rax
    7974:	48 89 85 40 f4 ff ff 	mov    %rax,-0xbc0(%rbp)
    797b:	48 8d 85 a0 ea ff ff 	lea    -0x1560(%rbp),%rax
    7982:	48 89 85 48 f4 ff ff 	mov    %rax,-0xbb8(%rbp)
    7989:	48 8d 85 50 ee ff ff 	lea    -0x11b0(%rbp),%rax
    7990:	48 83 c0 28          	add    $0x28,%rax
    7994:	48 89 85 50 f4 ff ff 	mov    %rax,-0xbb0(%rbp)
    799b:	48 8d 85 a0 ea ff ff 	lea    -0x1560(%rbp),%rax
    79a2:	48 89 85 58 f4 ff ff 	mov    %rax,-0xba8(%rbp)
    79a9:	48 8d 85 50 ee ff ff 	lea    -0x11b0(%rbp),%rax
    79b0:	48 83 c0 28          	add    $0x28,%rax
    79b4:	48 89 85 60 f4 ff ff 	mov    %rax,-0xba0(%rbp)
    79bb:	48 8d 85 a0 ea ff ff 	lea    -0x1560(%rbp),%rax
    79c2:	48 89 85 68 f4 ff ff 	mov    %rax,-0xb98(%rbp)
    79c9:	48 8d 85 50 ee ff ff 	lea    -0x11b0(%rbp),%rax
    79d0:	48 83 c0 28          	add    $0x28,%rax
    79d4:	48 89 85 70 f4 ff ff 	mov    %rax,-0xb90(%rbp)
    79db:	48 8d 85 a0 ea ff ff 	lea    -0x1560(%rbp),%rax
    79e2:	48 89 85 78 f4 ff ff 	mov    %rax,-0xb88(%rbp)
    79e9:	48 8d 85 50 ee ff ff 	lea    -0x11b0(%rbp),%rax
    79f0:	48 83 c0 28          	add    $0x28,%rax
    79f4:	48 89 85 80 f4 ff ff 	mov    %rax,-0xb80(%rbp)
    79fb:	48 8d 85 a0 ea ff ff 	lea    -0x1560(%rbp),%rax
    7a02:	48 89 85 88 f4 ff ff 	mov    %rax,-0xb78(%rbp)
    7a09:	48 8d 85 50 ee ff ff 	lea    -0x11b0(%rbp),%rax
    7a10:	48 83 c0 28          	add    $0x28,%rax
    7a14:	48 89 85 90 f4 ff ff 	mov    %rax,-0xb70(%rbp)
    7a1b:	48 8d 85 a0 ea ff ff 	lea    -0x1560(%rbp),%rax
    7a22:	48 89 85 98 f4 ff ff 	mov    %rax,-0xb68(%rbp)
    7a29:	48 8d 85 50 ee ff ff 	lea    -0x11b0(%rbp),%rax
    7a30:	48 83 c0 28          	add    $0x28,%rax
    7a34:	48 89 85 a0 f4 ff ff 	mov    %rax,-0xb60(%rbp)
    7a3b:	48 8d 85 a0 ea ff ff 	lea    -0x1560(%rbp),%rax
    7a42:	48 89 85 a8 f4 ff ff 	mov    %rax,-0xb58(%rbp)
    7a49:	48 8d 85 50 ee ff ff 	lea    -0x11b0(%rbp),%rax
    7a50:	48 83 c0 28          	add    $0x28,%rax
    7a54:	48 89 85 b0 f4 ff ff 	mov    %rax,-0xb50(%rbp)
    7a5b:	48 8d 85 a0 ea ff ff 	lea    -0x1560(%rbp),%rax
    7a62:	48 89 85 b8 f4 ff ff 	mov    %rax,-0xb48(%rbp)
    7a69:	48 8d 85 50 ee ff ff 	lea    -0x11b0(%rbp),%rax
    7a70:	48 83 c0 28          	add    $0x28,%rax
    7a74:	48 89 85 c0 f4 ff ff 	mov    %rax,-0xb40(%rbp)
    7a7b:	48 8d 85 a0 ea ff ff 	lea    -0x1560(%rbp),%rax
    7a82:	48 89 85 c8 f4 ff ff 	mov    %rax,-0xb38(%rbp)
    7a89:	48 8d 85 50 ee ff ff 	lea    -0x11b0(%rbp),%rax
    7a90:	48 83 c0 28          	add    $0x28,%rax
    7a94:	48 89 85 d0 f4 ff ff 	mov    %rax,-0xb30(%rbp)
    7a9b:	48 8d 85 a0 ea ff ff 	lea    -0x1560(%rbp),%rax
    7aa2:	48 89 85 d8 f4 ff ff 	mov    %rax,-0xb28(%rbp)
    7aa9:	48 8d 85 50 ee ff ff 	lea    -0x11b0(%rbp),%rax
    7ab0:	48 83 c0 28          	add    $0x28,%rax
    7ab4:	48 89 85 e0 f4 ff ff 	mov    %rax,-0xb20(%rbp)
    7abb:	48 8d 85 a0 ea ff ff 	lea    -0x1560(%rbp),%rax
    7ac2:	48 89 85 e8 f4 ff ff 	mov    %rax,-0xb18(%rbp)
    7ac9:	48 8d 85 50 ee ff ff 	lea    -0x11b0(%rbp),%rax
    7ad0:	48 83 c0 28          	add    $0x28,%rax
    7ad4:	48 89 85 f0 f4 ff ff 	mov    %rax,-0xb10(%rbp)
    7adb:	48 8d 85 a0 ea ff ff 	lea    -0x1560(%rbp),%rax
    7ae2:	48 89 85 f8 f4 ff ff 	mov    %rax,-0xb08(%rbp)
    7ae9:	48 8d 85 50 ee ff ff 	lea    -0x11b0(%rbp),%rax
    7af0:	48 83 c0 28          	add    $0x28,%rax
    7af4:	48 89 85 00 f5 ff ff 	mov    %rax,-0xb00(%rbp)
    7afb:	48 8d 85 a0 ea ff ff 	lea    -0x1560(%rbp),%rax
    7b02:	48 89 85 08 f5 ff ff 	mov    %rax,-0xaf8(%rbp)
    7b09:	48 8d 85 50 ee ff ff 	lea    -0x11b0(%rbp),%rax
    7b10:	48 83 c0 28          	add    $0x28,%rax
    7b14:	48 89 85 10 f5 ff ff 	mov    %rax,-0xaf0(%rbp)
    7b1b:	48 8d 85 a0 ea ff ff 	lea    -0x1560(%rbp),%rax
    7b22:	48 89 85 18 f5 ff ff 	mov    %rax,-0xae8(%rbp)
    7b29:	48 8d 85 50 ee ff ff 	lea    -0x11b0(%rbp),%rax
    7b30:	48 83 c0 28          	add    $0x28,%rax
    7b34:	48 89 85 20 f5 ff ff 	mov    %rax,-0xae0(%rbp)
    7b3b:	48 8d 85 a0 ea ff ff 	lea    -0x1560(%rbp),%rax
    7b42:	48 89 85 28 f5 ff ff 	mov    %rax,-0xad8(%rbp)
    7b49:	48 8d 85 50 ee ff ff 	lea    -0x11b0(%rbp),%rax
    7b50:	48 83 c0 28          	add    $0x28,%rax
    7b54:	48 89 85 30 f5 ff ff 	mov    %rax,-0xad0(%rbp)
    7b5b:	48 8d 85 a0 ea ff ff 	lea    -0x1560(%rbp),%rax
    7b62:	48 89 85 38 f5 ff ff 	mov    %rax,-0xac8(%rbp)
    7b69:	48 8d 85 50 ee ff ff 	lea    -0x11b0(%rbp),%rax
    7b70:	48 83 c0 28          	add    $0x28,%rax
    7b74:	48 89 85 40 f5 ff ff 	mov    %rax,-0xac0(%rbp)
    7b7b:	48 8d 85 a0 ea ff ff 	lea    -0x1560(%rbp),%rax
    7b82:	48 89 85 48 f5 ff ff 	mov    %rax,-0xab8(%rbp)
    7b89:	48 8d 85 50 ee ff ff 	lea    -0x11b0(%rbp),%rax
    7b90:	48 83 c0 28          	add    $0x28,%rax
    7b94:	48 89 85 50 f5 ff ff 	mov    %rax,-0xab0(%rbp)
    7b9b:	48 8d 85 a0 ea ff ff 	lea    -0x1560(%rbp),%rax
    7ba2:	48 89 85 58 f5 ff ff 	mov    %rax,-0xaa8(%rbp)
    7ba9:	48 8d 85 50 ee ff ff 	lea    -0x11b0(%rbp),%rax
    7bb0:	48 83 c0 28          	add    $0x28,%rax
    7bb4:	48 89 85 60 f5 ff ff 	mov    %rax,-0xaa0(%rbp)
    7bbb:	48 8d 85 a0 ea ff ff 	lea    -0x1560(%rbp),%rax
    7bc2:	48 89 85 68 f5 ff ff 	mov    %rax,-0xa98(%rbp)
    7bc9:	48 8d 85 50 ee ff ff 	lea    -0x11b0(%rbp),%rax
    7bd0:	48 83 c0 28          	add    $0x28,%rax
    7bd4:	48 89 85 70 f5 ff ff 	mov    %rax,-0xa90(%rbp)
    7bdb:	48 8d 85 a0 ea ff ff 	lea    -0x1560(%rbp),%rax
    7be2:	48 89 85 78 f5 ff ff 	mov    %rax,-0xa88(%rbp)
    7be9:	48 8d 85 50 ee ff ff 	lea    -0x11b0(%rbp),%rax
    7bf0:	48 83 c0 28          	add    $0x28,%rax
    7bf4:	48 89 85 80 f5 ff ff 	mov    %rax,-0xa80(%rbp)
    7bfb:	48 8d 85 a0 ea ff ff 	lea    -0x1560(%rbp),%rax
    7c02:	48 89 85 88 f5 ff ff 	mov    %rax,-0xa78(%rbp)
    7c09:	48 8d 85 50 ee ff ff 	lea    -0x11b0(%rbp),%rax
    7c10:	48 83 c0 28          	add    $0x28,%rax
    7c14:	48 89 85 90 f5 ff ff 	mov    %rax,-0xa70(%rbp)
    7c1b:	48 8d 85 a0 ea ff ff 	lea    -0x1560(%rbp),%rax
    7c22:	48 89 85 98 f5 ff ff 	mov    %rax,-0xa68(%rbp)
    7c29:	48 8d 85 50 ee ff ff 	lea    -0x11b0(%rbp),%rax
    7c30:	48 83 c0 28          	add    $0x28,%rax
    7c34:	48 89 85 a0 f5 ff ff 	mov    %rax,-0xa60(%rbp)
    7c3b:	48 8d 85 a0 ea ff ff 	lea    -0x1560(%rbp),%rax
    7c42:	48 89 85 a8 f5 ff ff 	mov    %rax,-0xa58(%rbp)
    7c49:	48 8d 85 50 ee ff ff 	lea    -0x11b0(%rbp),%rax
    7c50:	48 83 c0 28          	add    $0x28,%rax
    7c54:	48 89 85 b0 f5 ff ff 	mov    %rax,-0xa50(%rbp)
    7c5b:	48 8d 85 a0 ea ff ff 	lea    -0x1560(%rbp),%rax
    7c62:	48 89 85 b8 f5 ff ff 	mov    %rax,-0xa48(%rbp)
    7c69:	48 8d 85 50 ee ff ff 	lea    -0x11b0(%rbp),%rax
    7c70:	48 83 c0 28          	add    $0x28,%rax
    7c74:	48 89 85 c0 f5 ff ff 	mov    %rax,-0xa40(%rbp)
    7c7b:	48 8d 85 a0 ea ff ff 	lea    -0x1560(%rbp),%rax
    7c82:	48 89 85 c8 f5 ff ff 	mov    %rax,-0xa38(%rbp)
    7c89:	48 8d 85 50 ee ff ff 	lea    -0x11b0(%rbp),%rax
    7c90:	48 83 c0 28          	add    $0x28,%rax
    7c94:	48 89 85 d0 f5 ff ff 	mov    %rax,-0xa30(%rbp)
    7c9b:	48 8d 85 a0 ea ff ff 	lea    -0x1560(%rbp),%rax
    7ca2:	48 89 85 d8 f5 ff ff 	mov    %rax,-0xa28(%rbp)
    7ca9:	48 8d 85 50 ee ff ff 	lea    -0x11b0(%rbp),%rax
    7cb0:	48 83 c0 28          	add    $0x28,%rax
    7cb4:	48 89 85 e0 f5 ff ff 	mov    %rax,-0xa20(%rbp)
    7cbb:	48 8d 85 a0 ea ff ff 	lea    -0x1560(%rbp),%rax
    7cc2:	48 89 85 e8 f5 ff ff 	mov    %rax,-0xa18(%rbp)
    7cc9:	48 8d 85 50 ee ff ff 	lea    -0x11b0(%rbp),%rax
    7cd0:	48 83 c0 28          	add    $0x28,%rax
    7cd4:	48 89 85 f0 f5 ff ff 	mov    %rax,-0xa10(%rbp)
    7cdb:	48 8d 85 a0 ea ff ff 	lea    -0x1560(%rbp),%rax
    7ce2:	48 89 85 f8 f5 ff ff 	mov    %rax,-0xa08(%rbp)
    7ce9:	48 8d 85 00 f4 ff ff 	lea    -0xc00(%rbp),%rax
    7cf0:	48 05 50 01 00 00    	add    $0x150,%rax
    7cf6:	48 89 85 f8 ea ff ff 	mov    %rax,-0x1508(%rbp)
    7cfd:	48 8d 05 fc b3 00 00 	lea    0xb3fc(%rip),%rax        # 13100 <g_148>
    7d04:	48 89 85 00 eb ff ff 	mov    %rax,-0x1500(%rbp)
    7d0b:	c7 85 00 ee ff ff 94 	movl   $0xfed00a94,-0x1200(%rbp)
    7d12:	0a d0 fe 
    7d15:	c7 85 04 ee ff ff 28 	movl   $0xfe059428,-0x11fc(%rbp)
    7d1c:	94 05 fe 
    7d1f:	c7 85 08 ee ff ff 94 	movl   $0xfed00a94,-0x11f8(%rbp)
    7d26:	0a d0 fe 
    7d29:	c7 85 0c ee ff ff 28 	movl   $0xfe059428,-0x11f4(%rbp)
    7d30:	94 05 fe 
    7d33:	c7 85 10 ee ff ff 94 	movl   $0xfed00a94,-0x11f0(%rbp)
    7d3a:	0a d0 fe 
    7d3d:	c7 85 14 ee ff ff 28 	movl   $0xfe059428,-0x11ec(%rbp)
    7d44:	94 05 fe 
    7d47:	c7 85 18 ee ff ff 94 	movl   $0xfed00a94,-0x11e8(%rbp)
    7d4e:	0a d0 fe 
    7d51:	c7 85 1c ee ff ff 28 	movl   $0xfe059428,-0x11e4(%rbp)
    7d58:	94 05 fe 
    7d5b:	c7 85 20 ee ff ff 94 	movl   $0xfed00a94,-0x11e0(%rbp)
    7d62:	0a d0 fe 
    7d65:	c7 85 24 ee ff ff 28 	movl   $0xfe059428,-0x11dc(%rbp)
    7d6c:	94 05 fe 
    7d6f:	48 8d 05 aa b3 00 00 	lea    0xb3aa(%rip),%rax        # 13120 <g_175>
    7d76:	48 89 85 a8 ea ff ff 	mov    %rax,-0x1558(%rbp)
    7d7d:	c7 85 2c ea ff ff 00 	movl   $0x0,-0x15d4(%rbp)
    7d84:	00 00 00 
    7d87:	eb 1e                	jmp    7da7 <func_69+0xc9a>
    7d89:	8b 85 2c ea ff ff    	mov    -0x15d4(%rbp),%eax
    7d8f:	48 98                	cltq   
    7d91:	48 8d 15 e2 b2 00 00 	lea    0xb2e2(%rip),%rdx        # 1307a <g_7+0x3a>
    7d98:	48 89 94 c5 50 ee ff 	mov    %rdx,-0x11b0(%rbp,%rax,8)
    7d9f:	ff 
    7da0:	83 85 2c ea ff ff 01 	addl   $0x1,-0x15d4(%rbp)
    7da7:	83 bd 2c ea ff ff 09 	cmpl   $0x9,-0x15d4(%rbp)
    7dae:	7e d9                	jle    7d89 <func_69+0xc7c>
    7db0:	0f b7 05 11 b3 00 00 	movzwl 0xb311(%rip),%eax        # 130c8 <g_39>
    7db7:	66 25 ff 03          	and    $0x3ff,%ax
    7dbb:	88 05 d1 b2 00 00    	mov    %al,0xb2d1(%rip)        # 13092 <g_7+0x52>
    7dc1:	0f b6 05 ca b2 00 00 	movzbl 0xb2ca(%rip),%eax        # 13092 <g_7+0x52>
    7dc8:	c0 e8 07             	shr    $0x7,%al
    7dcb:	0f b6 d0             	movzbl %al,%edx
    7dce:	8b 05 bc 2e 01 00    	mov    0x12ebc(%rip),%eax        # 1ac90 <g_49>
    7dd4:	0f be c0             	movsbl %al,%eax
    7dd7:	89 d6                	mov    %edx,%esi
    7dd9:	89 c7                	mov    %eax,%edi
    7ddb:	e8 12 b4 ff ff       	callq  31f2 <safe_sub_func_int8_t_s_s>
    7de0:	0f be d0             	movsbl %al,%edx
    7de3:	48 8b 85 f0 ea ff ff 	mov    -0x1510(%rbp),%rax
    7dea:	89 10                	mov    %edx,(%rax)
    7dec:	48 8b 85 f0 ea ff ff 	mov    -0x1510(%rbp),%rax
    7df3:	8b 00                	mov    (%rax),%eax
    7df5:	85 c0                	test   %eax,%eax
    7df7:	0f 84 7a 01 00 00    	je     7f77 <func_69+0xe6a>
    7dfd:	48 8d 05 8c 2e 01 00 	lea    0x12e8c(%rip),%rax        # 1ac90 <g_49>
    7e04:	48 89 85 20 eb ff ff 	mov    %rax,-0x14e0(%rbp)
    7e0b:	48 8d 05 7e 2e 01 00 	lea    0x12e7e(%rip),%rax        # 1ac90 <g_49>
    7e12:	48 89 85 28 eb ff ff 	mov    %rax,-0x14d8(%rbp)
    7e19:	48 8d 85 f8 e9 ff ff 	lea    -0x1608(%rbp),%rax
    7e20:	48 89 85 30 eb ff ff 	mov    %rax,-0x14d0(%rbp)
    7e27:	48 8d 85 f8 e9 ff ff 	lea    -0x1608(%rbp),%rax
    7e2e:	48 89 85 38 eb ff ff 	mov    %rax,-0x14c8(%rbp)
    7e35:	48 8d 85 50 ee ff ff 	lea    -0x11b0(%rbp),%rax
    7e3c:	48 83 c0 40          	add    $0x40,%rax
    7e40:	48 89 85 40 eb ff ff 	mov    %rax,-0x14c0(%rbp)
    7e47:	48 c7 85 48 eb ff ff 	movq   $0x0,-0x14b8(%rbp)
    7e4e:	00 00 00 00 
    7e52:	48 8d 85 da e9 ff ff 	lea    -0x1626(%rbp),%rax
    7e59:	48 89 85 50 eb ff ff 	mov    %rax,-0x14b0(%rbp)
    7e60:	c7 85 30 ea ff ff 00 	movl   $0x0,-0x15d0(%rbp)
    7e67:	00 00 00 
    7e6a:	eb 1e                	jmp    7e8a <func_69+0xd7d>
    7e6c:	8b 85 30 ea ff ff    	mov    -0x15d0(%rbp),%eax
    7e72:	48 98                	cltq   
    7e74:	48 8d 95 f8 e9 ff ff 	lea    -0x1608(%rbp),%rdx
    7e7b:	48 89 94 c5 c0 f7 ff 	mov    %rdx,-0x840(%rbp,%rax,8)
    7e82:	ff 
    7e83:	83 85 30 ea ff ff 01 	addl   $0x1,-0x15d0(%rbp)
    7e8a:	83 bd 30 ea ff ff 06 	cmpl   $0x6,-0x15d0(%rbp)
    7e91:	7e d9                	jle    7e6c <func_69+0xd5f>
    7e93:	8b 85 fc e9 ff ff    	mov    -0x1604(%rbp),%eax
    7e99:	83 c0 01             	add    $0x1,%eax
    7e9c:	89 85 fc e9 ff ff    	mov    %eax,-0x1604(%rbp)
    7ea2:	48 8b 05 67 1f 01 00 	mov    0x11f67(%rip),%rax        # 19e10 <g_68>
    7ea9:	48 8b 85 80 ea ff ff 	mov    -0x1580(%rbp),%rax
    7eb0:	48 85 c0             	test   %rax,%rax
    7eb3:	0f 84 a0 00 00 00    	je     7f59 <func_69+0xe4c>
    7eb9:	48 8b 85 f0 ea ff ff 	mov    -0x1510(%rbp),%rax
    7ec0:	8b 00                	mov    (%rax),%eax
    7ec2:	0d af 8d 00 00       	or     $0x8daf,%eax
    7ec7:	48 63 d0             	movslq %eax,%rdx
    7eca:	8b 05 f0 b1 00 00    	mov    0xb1f0(%rip),%eax        # 130c0 <g_8>
    7ed0:	89 c1                	mov    %eax,%ecx
    7ed2:	48 8b 85 50 eb ff ff 	mov    -0x14b0(%rbp),%rax
    7ed9:	66 89 08             	mov    %cx,(%rax)
    7edc:	48 8b 85 f0 ea ff ff 	mov    -0x1510(%rbp),%rax
    7ee3:	8b 00                	mov    (%rax),%eax
    7ee5:	f7 d0                	not    %eax
    7ee7:	48 98                	cltq   
    7ee9:	48 89 d6             	mov    %rdx,%rsi
    7eec:	48 89 c7             	mov    %rax,%rdi
    7eef:	e8 bb c1 ff ff       	callq  40af <safe_div_func_uint64_t_u_u>
    7ef4:	48 8b 85 a0 ea ff ff 	mov    -0x1560(%rbp),%rax
    7efb:	48 85 c0             	test   %rax,%rax
    7efe:	0f 95 c0             	setne  %al
    7f01:	0f b6 d0             	movzbl %al,%edx
    7f04:	8b 05 ba b1 00 00    	mov    0xb1ba(%rip),%eax        # 130c4 <g_35>
    7f0a:	39 c2                	cmp    %eax,%edx
    7f0c:	0f 9f c2             	setg   %dl
    7f0f:	48 8b 85 a0 ea ff ff 	mov    -0x1560(%rbp),%rax
    7f16:	88 10                	mov    %dl,(%rax)
    7f18:	48 8b 85 40 eb ff ff 	mov    -0x14c0(%rbp),%rax
    7f1f:	48 8d 15 54 b1 00 00 	lea    0xb154(%rip),%rdx        # 1307a <g_7+0x3a>
    7f26:	48 89 10             	mov    %rdx,(%rax)
    7f29:	48 8b 85 40 eb ff ff 	mov    -0x14c0(%rbp),%rax
    7f30:	48 8b 10             	mov    (%rax),%rdx
    7f33:	48 8b 85 88 ed ff ff 	mov    -0x1278(%rbp),%rax
    7f3a:	48 39 c2             	cmp    %rax,%rdx
    7f3d:	0f 94 c0             	sete   %al
    7f40:	0f b6 d0             	movzbl %al,%edx
    7f43:	48 8b 85 f0 ea ff ff 	mov    -0x1510(%rbp),%rax
    7f4a:	8b 00                	mov    (%rax),%eax
    7f4c:	21 d0                	and    %edx,%eax
    7f4e:	85 c0                	test   %eax,%eax
    7f50:	74 07                	je     7f59 <func_69+0xe4c>
    7f52:	ba 01 00 00 00       	mov    $0x1,%edx
    7f57:	eb 05                	jmp    7f5e <func_69+0xe51>
    7f59:	ba 00 00 00 00       	mov    $0x0,%edx
    7f5e:	48 8b 85 30 eb ff ff 	mov    -0x14d0(%rbp),%rax
    7f65:	8b 00                	mov    (%rax),%eax
    7f67:	09 c2                	or     %eax,%edx
    7f69:	48 8b 85 30 eb ff ff 	mov    -0x14d0(%rbp),%rax
    7f70:	89 10                	mov    %edx,(%rax)
    7f72:	e9 6a 0d 00 00       	jmpq   8ce1 <func_69+0x1bd4>
    7f77:	48 8d 05 12 2d 01 00 	lea    0x12d12(%rip),%rax        # 1ac90 <g_49>
    7f7e:	48 89 85 08 eb ff ff 	mov    %rax,-0x14f8(%rbp)
    7f85:	48 c7 85 10 eb ff ff 	movq   $0x0,-0x14f0(%rbp)
    7f8c:	00 00 00 00 
    7f90:	48 8d 85 f8 e9 ff ff 	lea    -0x1608(%rbp),%rax
    7f97:	48 89 85 18 eb ff ff 	mov    %rax,-0x14e8(%rbp)
    7f9e:	48 8d 85 f8 e9 ff ff 	lea    -0x1608(%rbp),%rax
    7fa5:	48 89 85 c0 f7 ff ff 	mov    %rax,-0x840(%rbp)
    7fac:	48 c7 85 c8 f7 ff ff 	movq   $0x0,-0x838(%rbp)
    7fb3:	00 00 00 00 
    7fb7:	48 8d 85 f8 e9 ff ff 	lea    -0x1608(%rbp),%rax
    7fbe:	48 89 85 d0 f7 ff ff 	mov    %rax,-0x830(%rbp)
    7fc5:	48 8d 05 c4 2c 01 00 	lea    0x12cc4(%rip),%rax        # 1ac90 <g_49>
    7fcc:	48 89 85 d8 f7 ff ff 	mov    %rax,-0x828(%rbp)
    7fd3:	48 8d 85 f8 e9 ff ff 	lea    -0x1608(%rbp),%rax
    7fda:	48 89 85 e0 f7 ff ff 	mov    %rax,-0x820(%rbp)
    7fe1:	48 c7 85 e8 f7 ff ff 	movq   $0x0,-0x818(%rbp)
    7fe8:	00 00 00 00 
    7fec:	48 8d 85 f8 e9 ff ff 	lea    -0x1608(%rbp),%rax
    7ff3:	48 89 85 f0 f7 ff ff 	mov    %rax,-0x810(%rbp)
    7ffa:	48 8d 05 8b 2c 01 00 	lea    0x12c8b(%rip),%rax        # 1ac8c <g_9>
    8001:	48 89 85 f8 f7 ff ff 	mov    %rax,-0x808(%rbp)
    8008:	48 c7 85 00 f8 ff ff 	movq   $0x0,-0x800(%rbp)
    800f:	00 00 00 00 
    8013:	48 c7 85 08 f8 ff ff 	movq   $0x0,-0x7f8(%rbp)
    801a:	00 00 00 00 
    801e:	48 8d 85 f8 e9 ff ff 	lea    -0x1608(%rbp),%rax
    8025:	48 89 85 10 f8 ff ff 	mov    %rax,-0x7f0(%rbp)
    802c:	48 8d 05 59 2c 01 00 	lea    0x12c59(%rip),%rax        # 1ac8c <g_9>
    8033:	48 89 85 18 f8 ff ff 	mov    %rax,-0x7e8(%rbp)
    803a:	48 8d 05 4f 2c 01 00 	lea    0x12c4f(%rip),%rax        # 1ac90 <g_49>
    8041:	48 89 85 20 f8 ff ff 	mov    %rax,-0x7e0(%rbp)
    8048:	48 c7 85 28 f8 ff ff 	movq   $0x0,-0x7d8(%rbp)
    804f:	00 00 00 00 
    8053:	48 c7 85 30 f8 ff ff 	movq   $0x0,-0x7d0(%rbp)
    805a:	00 00 00 00 
    805e:	48 8d 85 e8 e9 ff ff 	lea    -0x1618(%rbp),%rax
    8065:	48 89 85 38 f8 ff ff 	mov    %rax,-0x7c8(%rbp)
    806c:	48 8d 85 f8 e9 ff ff 	lea    -0x1608(%rbp),%rax
    8073:	48 89 85 40 f8 ff ff 	mov    %rax,-0x7c0(%rbp)
    807a:	48 8d 85 f8 e9 ff ff 	lea    -0x1608(%rbp),%rax
    8081:	48 89 85 48 f8 ff ff 	mov    %rax,-0x7b8(%rbp)
    8088:	48 c7 85 50 f8 ff ff 	movq   $0x0,-0x7b0(%rbp)
    808f:	00 00 00 00 
    8093:	48 c7 85 58 f8 ff ff 	movq   $0x0,-0x7a8(%rbp)
    809a:	00 00 00 00 
    809e:	48 8d 05 eb 2b 01 00 	lea    0x12beb(%rip),%rax        # 1ac90 <g_49>
    80a5:	48 89 85 60 f8 ff ff 	mov    %rax,-0x7a0(%rbp)
    80ac:	48 8d 05 d5 2b 01 00 	lea    0x12bd5(%rip),%rax        # 1ac88 <g_3>
    80b3:	48 89 85 68 f8 ff ff 	mov    %rax,-0x798(%rbp)
    80ba:	48 8d 05 c7 2b 01 00 	lea    0x12bc7(%rip),%rax        # 1ac88 <g_3>
    80c1:	48 89 85 70 f8 ff ff 	mov    %rax,-0x790(%rbp)
    80c8:	48 8d 05 c1 2b 01 00 	lea    0x12bc1(%rip),%rax        # 1ac90 <g_49>
    80cf:	48 89 85 78 f8 ff ff 	mov    %rax,-0x788(%rbp)
    80d6:	48 c7 85 80 f8 ff ff 	movq   $0x0,-0x780(%rbp)
    80dd:	00 00 00 00 
    80e1:	48 8d 85 e8 e9 ff ff 	lea    -0x1618(%rbp),%rax
    80e8:	48 89 85 88 f8 ff ff 	mov    %rax,-0x778(%rbp)
    80ef:	48 8d 85 e8 e9 ff ff 	lea    -0x1618(%rbp),%rax
    80f6:	48 89 85 90 f8 ff ff 	mov    %rax,-0x770(%rbp)
    80fd:	48 8d 85 e8 e9 ff ff 	lea    -0x1618(%rbp),%rax
    8104:	48 89 85 98 f8 ff ff 	mov    %rax,-0x768(%rbp)
    810b:	48 8d 85 f8 e9 ff ff 	lea    -0x1608(%rbp),%rax
    8112:	48 89 85 a0 f8 ff ff 	mov    %rax,-0x760(%rbp)
    8119:	48 8d 05 68 2b 01 00 	lea    0x12b68(%rip),%rax        # 1ac88 <g_3>
    8120:	48 89 85 a8 f8 ff ff 	mov    %rax,-0x758(%rbp)
    8127:	48 8d 85 e8 e9 ff ff 	lea    -0x1618(%rbp),%rax
    812e:	48 89 85 b0 f8 ff ff 	mov    %rax,-0x750(%rbp)
    8135:	48 8d 85 f8 e9 ff ff 	lea    -0x1608(%rbp),%rax
    813c:	48 89 85 b8 f8 ff ff 	mov    %rax,-0x748(%rbp)
    8143:	48 8d 85 f8 e9 ff ff 	lea    -0x1608(%rbp),%rax
    814a:	48 89 85 c0 f8 ff ff 	mov    %rax,-0x740(%rbp)
    8151:	48 8d 05 38 2b 01 00 	lea    0x12b38(%rip),%rax        # 1ac90 <g_49>
    8158:	48 89 85 c8 f8 ff ff 	mov    %rax,-0x738(%rbp)
    815f:	48 8d 05 22 2b 01 00 	lea    0x12b22(%rip),%rax        # 1ac88 <g_3>
    8166:	48 89 85 d0 f8 ff ff 	mov    %rax,-0x730(%rbp)
    816d:	48 8d 05 18 2b 01 00 	lea    0x12b18(%rip),%rax        # 1ac8c <g_9>
    8174:	48 89 85 d8 f8 ff ff 	mov    %rax,-0x728(%rbp)
    817b:	48 c7 85 e0 f8 ff ff 	movq   $0x0,-0x720(%rbp)
    8182:	00 00 00 00 
    8186:	48 8d 05 37 af 00 00 	lea    0xaf37(%rip),%rax        # 130c4 <g_35>
    818d:	48 89 85 e8 f8 ff ff 	mov    %rax,-0x718(%rbp)
    8194:	48 c7 85 f0 f8 ff ff 	movq   $0x0,-0x710(%rbp)
    819b:	00 00 00 00 
    819f:	48 8d 05 1e af 00 00 	lea    0xaf1e(%rip),%rax        # 130c4 <g_35>
    81a6:	48 89 85 f8 f8 ff ff 	mov    %rax,-0x708(%rbp)
    81ad:	48 8d 05 18 af 00 00 	lea    0xaf18(%rip),%rax        # 130cc <g_44>
    81b4:	48 89 85 00 f9 ff ff 	mov    %rax,-0x700(%rbp)
    81bb:	48 c7 85 08 f9 ff ff 	movq   $0x0,-0x6f8(%rbp)
    81c2:	00 00 00 00 
    81c6:	48 8d 05 ff ae 00 00 	lea    0xaeff(%rip),%rax        # 130cc <g_44>
    81cd:	48 89 85 10 f9 ff ff 	mov    %rax,-0x6f0(%rbp)
    81d4:	48 c7 85 18 f9 ff ff 	movq   $0x0,-0x6e8(%rbp)
    81db:	00 00 00 00 
    81df:	48 c7 85 20 f9 ff ff 	movq   $0x0,-0x6e0(%rbp)
    81e6:	00 00 00 00 
    81ea:	48 8d 05 97 2a 01 00 	lea    0x12a97(%rip),%rax        # 1ac88 <g_3>
    81f1:	48 89 85 28 f9 ff ff 	mov    %rax,-0x6d8(%rbp)
    81f8:	48 8d 85 e8 e9 ff ff 	lea    -0x1618(%rbp),%rax
    81ff:	48 89 85 30 f9 ff ff 	mov    %rax,-0x6d0(%rbp)
    8206:	48 8d 05 7b 2a 01 00 	lea    0x12a7b(%rip),%rax        # 1ac88 <g_3>
    820d:	48 89 85 38 f9 ff ff 	mov    %rax,-0x6c8(%rbp)
    8214:	48 8d 05 a9 ae 00 00 	lea    0xaea9(%rip),%rax        # 130c4 <g_35>
    821b:	48 89 85 40 f9 ff ff 	mov    %rax,-0x6c0(%rbp)
    8222:	48 8d 05 63 2a 01 00 	lea    0x12a63(%rip),%rax        # 1ac8c <g_9>
    8229:	48 89 85 48 f9 ff ff 	mov    %rax,-0x6b8(%rbp)
    8230:	48 8d 05 95 ae 00 00 	lea    0xae95(%rip),%rax        # 130cc <g_44>
    8237:	48 89 85 50 f9 ff ff 	mov    %rax,-0x6b0(%rbp)
    823e:	48 8d 05 43 2a 01 00 	lea    0x12a43(%rip),%rax        # 1ac88 <g_3>
    8245:	48 89 85 58 f9 ff ff 	mov    %rax,-0x6a8(%rbp)
    824c:	48 c7 85 60 f9 ff ff 	movq   $0x0,-0x6a0(%rbp)
    8253:	00 00 00 00 
    8257:	48 c7 85 68 f9 ff ff 	movq   $0x0,-0x698(%rbp)
    825e:	00 00 00 00 
    8262:	48 8d 05 1f 2a 01 00 	lea    0x12a1f(%rip),%rax        # 1ac88 <g_3>
    8269:	48 89 85 70 f9 ff ff 	mov    %rax,-0x690(%rbp)
    8270:	48 c7 85 78 f9 ff ff 	movq   $0x0,-0x688(%rbp)
    8277:	00 00 00 00 
    827b:	48 8d 05 06 2a 01 00 	lea    0x12a06(%rip),%rax        # 1ac88 <g_3>
    8282:	48 89 85 80 f9 ff ff 	mov    %rax,-0x680(%rbp)
    8289:	48 c7 85 88 f9 ff ff 	movq   $0x0,-0x678(%rbp)
    8290:	00 00 00 00 
    8294:	48 8d 05 31 ae 00 00 	lea    0xae31(%rip),%rax        # 130cc <g_44>
    829b:	48 89 85 90 f9 ff ff 	mov    %rax,-0x670(%rbp)
    82a2:	48 8d 05 1b ae 00 00 	lea    0xae1b(%rip),%rax        # 130c4 <g_35>
    82a9:	48 89 85 98 f9 ff ff 	mov    %rax,-0x668(%rbp)
    82b0:	48 8d 05 d5 29 01 00 	lea    0x129d5(%rip),%rax        # 1ac8c <g_9>
    82b7:	48 89 85 a0 f9 ff ff 	mov    %rax,-0x660(%rbp)
    82be:	48 8d 05 c3 29 01 00 	lea    0x129c3(%rip),%rax        # 1ac88 <g_3>
    82c5:	48 89 85 a8 f9 ff ff 	mov    %rax,-0x658(%rbp)
    82cc:	48 8d 85 f8 e9 ff ff 	lea    -0x1608(%rbp),%rax
    82d3:	48 89 85 b0 f9 ff ff 	mov    %rax,-0x650(%rbp)
    82da:	48 8d 85 f8 e9 ff ff 	lea    -0x1608(%rbp),%rax
    82e1:	48 89 85 b8 f9 ff ff 	mov    %rax,-0x648(%rbp)
    82e8:	48 c7 85 c0 f9 ff ff 	movq   $0x0,-0x640(%rbp)
    82ef:	00 00 00 00 
    82f3:	48 8d 05 8e 29 01 00 	lea    0x1298e(%rip),%rax        # 1ac88 <g_3>
    82fa:	48 89 85 c8 f9 ff ff 	mov    %rax,-0x638(%rbp)
    8301:	48 8d 05 80 29 01 00 	lea    0x12980(%rip),%rax        # 1ac88 <g_3>
    8308:	48 89 85 d0 f9 ff ff 	mov    %rax,-0x630(%rbp)
    830f:	48 8d 05 76 29 01 00 	lea    0x12976(%rip),%rax        # 1ac8c <g_9>
    8316:	48 89 85 d8 f9 ff ff 	mov    %rax,-0x628(%rbp)
    831d:	48 8d 05 6c 29 01 00 	lea    0x1296c(%rip),%rax        # 1ac90 <g_49>
    8324:	48 89 85 e0 f9 ff ff 	mov    %rax,-0x620(%rbp)
    832b:	48 8d 05 92 ad 00 00 	lea    0xad92(%rip),%rax        # 130c4 <g_35>
    8332:	48 89 85 e8 f9 ff ff 	mov    %rax,-0x618(%rbp)
    8339:	48 8d 05 8c ad 00 00 	lea    0xad8c(%rip),%rax        # 130cc <g_44>
    8340:	48 89 85 f0 f9 ff ff 	mov    %rax,-0x610(%rbp)
    8347:	48 8d 05 42 29 01 00 	lea    0x12942(%rip),%rax        # 1ac90 <g_49>
    834e:	48 89 85 f8 f9 ff ff 	mov    %rax,-0x608(%rbp)
    8355:	48 8d 85 e8 e9 ff ff 	lea    -0x1618(%rbp),%rax
    835c:	48 89 85 00 fa ff ff 	mov    %rax,-0x600(%rbp)
    8363:	48 8d 05 22 29 01 00 	lea    0x12922(%rip),%rax        # 1ac8c <g_9>
    836a:	48 89 85 08 fa ff ff 	mov    %rax,-0x5f8(%rbp)
    8371:	48 c7 85 10 fa ff ff 	movq   $0x0,-0x5f0(%rbp)
    8378:	00 00 00 00 
    837c:	48 8d 05 0d 29 01 00 	lea    0x1290d(%rip),%rax        # 1ac90 <g_49>
    8383:	48 89 85 18 fa ff ff 	mov    %rax,-0x5e8(%rbp)
    838a:	48 c7 85 20 fa ff ff 	movq   $0x0,-0x5e0(%rbp)
    8391:	00 00 00 00 
    8395:	48 c7 85 28 fa ff ff 	movq   $0x0,-0x5d8(%rbp)
    839c:	00 00 00 00 
    83a0:	48 8d 85 f8 e9 ff ff 	lea    -0x1608(%rbp),%rax
    83a7:	48 89 85 30 fa ff ff 	mov    %rax,-0x5d0(%rbp)
    83ae:	48 c7 85 38 fa ff ff 	movq   $0x0,-0x5c8(%rbp)
    83b5:	00 00 00 00 
    83b9:	48 c7 85 40 fa ff ff 	movq   $0x0,-0x5c0(%rbp)
    83c0:	00 00 00 00 
    83c4:	48 c7 85 48 fa ff ff 	movq   $0x0,-0x5b8(%rbp)
    83cb:	00 00 00 00 
    83cf:	48 8d 05 b2 28 01 00 	lea    0x128b2(%rip),%rax        # 1ac88 <g_3>
    83d6:	48 89 85 50 fa ff ff 	mov    %rax,-0x5b0(%rbp)
    83dd:	48 8d 05 e8 ac 00 00 	lea    0xace8(%rip),%rax        # 130cc <g_44>
    83e4:	48 89 85 58 fa ff ff 	mov    %rax,-0x5a8(%rbp)
    83eb:	48 8d 05 da ac 00 00 	lea    0xacda(%rip),%rax        # 130cc <g_44>
    83f2:	48 89 85 60 fa ff ff 	mov    %rax,-0x5a0(%rbp)
    83f9:	48 8d 85 e8 e9 ff ff 	lea    -0x1618(%rbp),%rax
    8400:	48 89 85 68 fa ff ff 	mov    %rax,-0x598(%rbp)
    8407:	48 8d 85 e8 e9 ff ff 	lea    -0x1618(%rbp),%rax
    840e:	48 89 85 70 fa ff ff 	mov    %rax,-0x590(%rbp)
    8415:	48 8d 05 70 28 01 00 	lea    0x12870(%rip),%rax        # 1ac8c <g_9>
    841c:	48 89 85 78 fa ff ff 	mov    %rax,-0x588(%rbp)
    8423:	48 8d 05 9a ac 00 00 	lea    0xac9a(%rip),%rax        # 130c4 <g_35>
    842a:	48 89 85 80 fa ff ff 	mov    %rax,-0x580(%rbp)
    8431:	48 8d 05 50 28 01 00 	lea    0x12850(%rip),%rax        # 1ac88 <g_3>
    8438:	48 89 85 88 fa ff ff 	mov    %rax,-0x578(%rbp)
    843f:	48 8d 05 46 28 01 00 	lea    0x12846(%rip),%rax        # 1ac8c <g_9>
    8446:	48 89 85 90 fa ff ff 	mov    %rax,-0x570(%rbp)
    844d:	48 8d 85 e8 e9 ff ff 	lea    -0x1618(%rbp),%rax
    8454:	48 89 85 98 fa ff ff 	mov    %rax,-0x568(%rbp)
    845b:	48 8d 05 6a ac 00 00 	lea    0xac6a(%rip),%rax        # 130cc <g_44>
    8462:	48 89 85 a0 fa ff ff 	mov    %rax,-0x560(%rbp)
    8469:	48 c7 85 a8 fa ff ff 	movq   $0x0,-0x558(%rbp)
    8470:	00 00 00 00 
    8474:	48 8d 85 f8 e9 ff ff 	lea    -0x1608(%rbp),%rax
    847b:	48 89 85 b0 fa ff ff 	mov    %rax,-0x550(%rbp)
    8482:	48 8d 05 03 28 01 00 	lea    0x12803(%rip),%rax        # 1ac8c <g_9>
    8489:	48 89 85 b8 fa ff ff 	mov    %rax,-0x548(%rbp)
    8490:	48 8d 05 f1 27 01 00 	lea    0x127f1(%rip),%rax        # 1ac88 <g_3>
    8497:	48 89 85 c0 fa ff ff 	mov    %rax,-0x540(%rbp)
    849e:	48 8d 05 27 ac 00 00 	lea    0xac27(%rip),%rax        # 130cc <g_44>
    84a5:	48 89 85 c8 fa ff ff 	mov    %rax,-0x538(%rbp)
    84ac:	48 8d 05 dd 27 01 00 	lea    0x127dd(%rip),%rax        # 1ac90 <g_49>
    84b3:	48 89 85 d0 fa ff ff 	mov    %rax,-0x530(%rbp)
    84ba:	48 c7 85 d8 fa ff ff 	movq   $0x0,-0x528(%rbp)
    84c1:	00 00 00 00 
    84c5:	48 8d 85 e8 e9 ff ff 	lea    -0x1618(%rbp),%rax
    84cc:	48 89 85 e0 fa ff ff 	mov    %rax,-0x520(%rbp)
    84d3:	48 8d 05 ae 27 01 00 	lea    0x127ae(%rip),%rax        # 1ac88 <g_3>
    84da:	48 89 85 e8 fa ff ff 	mov    %rax,-0x518(%rbp)
    84e1:	48 8d 85 f8 e9 ff ff 	lea    -0x1608(%rbp),%rax
    84e8:	48 89 85 f0 fa ff ff 	mov    %rax,-0x510(%rbp)
    84ef:	48 8d 85 f8 e9 ff ff 	lea    -0x1608(%rbp),%rax
    84f6:	48 89 85 f8 fa ff ff 	mov    %rax,-0x508(%rbp)
    84fd:	48 c7 85 00 fb ff ff 	movq   $0x0,-0x500(%rbp)
    8504:	00 00 00 00 
    8508:	48 8d 05 79 27 01 00 	lea    0x12779(%rip),%rax        # 1ac88 <g_3>
    850f:	48 89 85 08 fb ff ff 	mov    %rax,-0x4f8(%rbp)
    8516:	48 8d 85 e8 e9 ff ff 	lea    -0x1618(%rbp),%rax
    851d:	48 89 85 10 fb ff ff 	mov    %rax,-0x4f0(%rbp)
    8524:	48 c7 85 18 fb ff ff 	movq   $0x0,-0x4e8(%rbp)
    852b:	00 00 00 00 
    852f:	48 8d 85 e8 e9 ff ff 	lea    -0x1618(%rbp),%rax
    8536:	48 89 85 20 fb ff ff 	mov    %rax,-0x4e0(%rbp)
    853d:	48 8d 05 88 ab 00 00 	lea    0xab88(%rip),%rax        # 130cc <g_44>
    8544:	48 89 85 28 fb ff ff 	mov    %rax,-0x4d8(%rbp)
    854b:	48 c7 85 30 fb ff ff 	movq   $0x0,-0x4d0(%rbp)
    8552:	00 00 00 00 
    8556:	48 8d 05 67 ab 00 00 	lea    0xab67(%rip),%rax        # 130c4 <g_35>
    855d:	48 89 85 38 fb ff ff 	mov    %rax,-0x4c8(%rbp)
    8564:	48 8d 05 21 27 01 00 	lea    0x12721(%rip),%rax        # 1ac8c <g_9>
    856b:	48 89 85 40 fb ff ff 	mov    %rax,-0x4c0(%rbp)
    8572:	48 c7 85 48 fb ff ff 	movq   $0x0,-0x4b8(%rbp)
    8579:	00 00 00 00 
    857d:	48 8d 85 e8 e9 ff ff 	lea    -0x1618(%rbp),%rax
    8584:	48 89 85 50 fb ff ff 	mov    %rax,-0x4b0(%rbp)
    858b:	48 8d 85 e8 e9 ff ff 	lea    -0x1618(%rbp),%rax
    8592:	48 89 85 58 fb ff ff 	mov    %rax,-0x4a8(%rbp)
    8599:	48 8d 05 f0 26 01 00 	lea    0x126f0(%rip),%rax        # 1ac90 <g_49>
    85a0:	48 89 85 60 fb ff ff 	mov    %rax,-0x4a0(%rbp)
    85a7:	48 8d 85 f8 e9 ff ff 	lea    -0x1608(%rbp),%rax
    85ae:	48 89 85 68 fb ff ff 	mov    %rax,-0x498(%rbp)
    85b5:	48 8d 85 e8 e9 ff ff 	lea    -0x1618(%rbp),%rax
    85bc:	48 89 85 70 fb ff ff 	mov    %rax,-0x490(%rbp)
    85c3:	48 8d 85 e8 e9 ff ff 	lea    -0x1618(%rbp),%rax
    85ca:	48 89 85 78 fb ff ff 	mov    %rax,-0x488(%rbp)
    85d1:	48 8d 05 b4 26 01 00 	lea    0x126b4(%rip),%rax        # 1ac8c <g_9>
    85d8:	48 89 85 80 fb ff ff 	mov    %rax,-0x480(%rbp)
    85df:	48 8d 85 f8 e9 ff ff 	lea    -0x1608(%rbp),%rax
    85e6:	48 89 85 88 fb ff ff 	mov    %rax,-0x478(%rbp)
    85ed:	48 8d 85 f8 e9 ff ff 	lea    -0x1608(%rbp),%rax
    85f4:	48 89 85 90 fb ff ff 	mov    %rax,-0x470(%rbp)
    85fb:	48 8d 85 e8 e9 ff ff 	lea    -0x1618(%rbp),%rax
    8602:	48 89 85 98 fb ff ff 	mov    %rax,-0x468(%rbp)
    8609:	48 8d 05 80 26 01 00 	lea    0x12680(%rip),%rax        # 1ac90 <g_49>
    8610:	48 89 85 a0 fb ff ff 	mov    %rax,-0x460(%rbp)
    8617:	48 c7 85 a8 fb ff ff 	movq   $0x0,-0x458(%rbp)
    861e:	00 00 00 00 
    8622:	48 c7 85 b0 fb ff ff 	movq   $0x0,-0x450(%rbp)
    8629:	00 00 00 00 
    862d:	48 8d 05 5c 26 01 00 	lea    0x1265c(%rip),%rax        # 1ac90 <g_49>
    8634:	48 89 85 b8 fb ff ff 	mov    %rax,-0x448(%rbp)
    863b:	48 8d 05 8a aa 00 00 	lea    0xaa8a(%rip),%rax        # 130cc <g_44>
    8642:	48 89 85 c0 fb ff ff 	mov    %rax,-0x440(%rbp)
    8649:	48 c7 85 c8 fb ff ff 	movq   $0x0,-0x438(%rbp)
    8650:	00 00 00 00 
    8654:	48 c7 85 d0 fb ff ff 	movq   $0x0,-0x430(%rbp)
    865b:	00 00 00 00 
    865f:	48 8d 05 66 aa 00 00 	lea    0xaa66(%rip),%rax        # 130cc <g_44>
    8666:	48 89 85 d8 fb ff ff 	mov    %rax,-0x428(%rbp)
    866d:	48 8d 85 f8 e9 ff ff 	lea    -0x1608(%rbp),%rax
    8674:	48 89 85 e0 fb ff ff 	mov    %rax,-0x420(%rbp)
    867b:	48 8d 05 0e 26 01 00 	lea    0x1260e(%rip),%rax        # 1ac90 <g_49>
    8682:	48 89 85 e8 fb ff ff 	mov    %rax,-0x418(%rbp)
    8689:	48 8d 85 e8 e9 ff ff 	lea    -0x1618(%rbp),%rax
    8690:	48 89 85 f0 fb ff ff 	mov    %rax,-0x410(%rbp)
    8697:	48 c7 85 f8 fb ff ff 	movq   $0x0,-0x408(%rbp)
    869e:	00 00 00 00 
    86a2:	48 8d 85 e8 e9 ff ff 	lea    -0x1618(%rbp),%rax
    86a9:	48 89 85 00 fc ff ff 	mov    %rax,-0x400(%rbp)
    86b0:	48 8d 85 e8 e9 ff ff 	lea    -0x1618(%rbp),%rax
    86b7:	48 89 85 08 fc ff ff 	mov    %rax,-0x3f8(%rbp)
    86be:	48 8d 85 f8 e9 ff ff 	lea    -0x1608(%rbp),%rax
    86c5:	48 89 85 10 fc ff ff 	mov    %rax,-0x3f0(%rbp)
    86cc:	48 8d 85 e8 e9 ff ff 	lea    -0x1618(%rbp),%rax
    86d3:	48 89 85 18 fc ff ff 	mov    %rax,-0x3e8(%rbp)
    86da:	48 8d 05 af 25 01 00 	lea    0x125af(%rip),%rax        # 1ac90 <g_49>
    86e1:	48 89 85 20 fc ff ff 	mov    %rax,-0x3e0(%rbp)
    86e8:	48 8d 05 dd a9 00 00 	lea    0xa9dd(%rip),%rax        # 130cc <g_44>
    86ef:	48 89 85 28 fc ff ff 	mov    %rax,-0x3d8(%rbp)
    86f6:	48 8d 05 cf a9 00 00 	lea    0xa9cf(%rip),%rax        # 130cc <g_44>
    86fd:	48 89 85 30 fc ff ff 	mov    %rax,-0x3d0(%rbp)
    8704:	48 8d 85 f8 e9 ff ff 	lea    -0x1608(%rbp),%rax
    870b:	48 89 85 38 fc ff ff 	mov    %rax,-0x3c8(%rbp)
    8712:	48 8d 05 6f 25 01 00 	lea    0x1256f(%rip),%rax        # 1ac88 <g_3>
    8719:	48 89 85 40 fc ff ff 	mov    %rax,-0x3c0(%rbp)
    8720:	48 8d 85 e8 e9 ff ff 	lea    -0x1618(%rbp),%rax
    8727:	48 89 85 48 fc ff ff 	mov    %rax,-0x3b8(%rbp)
    872e:	48 8d 85 f8 e9 ff ff 	lea    -0x1608(%rbp),%rax
    8735:	48 89 85 50 fc ff ff 	mov    %rax,-0x3b0(%rbp)
    873c:	48 8d 05 81 a9 00 00 	lea    0xa981(%rip),%rax        # 130c4 <g_35>
    8743:	48 89 85 58 fc ff ff 	mov    %rax,-0x3a8(%rbp)
    874a:	48 8d 05 37 25 01 00 	lea    0x12537(%rip),%rax        # 1ac88 <g_3>
    8751:	48 89 85 60 fc ff ff 	mov    %rax,-0x3a0(%rbp)
    8758:	48 8d 05 31 25 01 00 	lea    0x12531(%rip),%rax        # 1ac90 <g_49>
    875f:	48 89 85 68 fc ff ff 	mov    %rax,-0x398(%rbp)
    8766:	48 8d 05 57 a9 00 00 	lea    0xa957(%rip),%rax        # 130c4 <g_35>
    876d:	48 89 85 70 fc ff ff 	mov    %rax,-0x390(%rbp)
    8774:	48 8d 05 0d 25 01 00 	lea    0x1250d(%rip),%rax        # 1ac88 <g_3>
    877b:	48 89 85 78 fc ff ff 	mov    %rax,-0x388(%rbp)
    8782:	48 8d 05 43 a9 00 00 	lea    0xa943(%rip),%rax        # 130cc <g_44>
    8789:	48 89 85 80 fc ff ff 	mov    %rax,-0x380(%rbp)
    8790:	48 c7 85 88 fc ff ff 	movq   $0x0,-0x378(%rbp)
    8797:	00 00 00 00 
    879b:	48 c7 85 90 fc ff ff 	movq   $0x0,-0x370(%rbp)
    87a2:	00 00 00 00 
    87a6:	48 8d 05 df 24 01 00 	lea    0x124df(%rip),%rax        # 1ac8c <g_9>
    87ad:	48 89 85 98 fc ff ff 	mov    %rax,-0x368(%rbp)
    87b4:	48 8d 05 cd 24 01 00 	lea    0x124cd(%rip),%rax        # 1ac88 <g_3>
    87bb:	48 89 85 a0 fc ff ff 	mov    %rax,-0x360(%rbp)
    87c2:	48 c7 85 a8 fc ff ff 	movq   $0x0,-0x358(%rbp)
    87c9:	00 00 00 00 
    87cd:	48 8d 05 f0 a8 00 00 	lea    0xa8f0(%rip),%rax        # 130c4 <g_35>
    87d4:	48 89 85 b0 fc ff ff 	mov    %rax,-0x350(%rbp)
    87db:	48 8d 05 ae 24 01 00 	lea    0x124ae(%rip),%rax        # 1ac90 <g_49>
    87e2:	48 89 85 b8 fc ff ff 	mov    %rax,-0x348(%rbp)
    87e9:	48 8d 85 e8 e9 ff ff 	lea    -0x1618(%rbp),%rax
    87f0:	48 89 85 c0 fc ff ff 	mov    %rax,-0x340(%rbp)
    87f7:	48 8d 85 f8 e9 ff ff 	lea    -0x1608(%rbp),%rax
    87fe:	48 89 85 c8 fc ff ff 	mov    %rax,-0x338(%rbp)
    8805:	48 c7 85 d0 fc ff ff 	movq   $0x0,-0x330(%rbp)
    880c:	00 00 00 00 
    8810:	48 8d 85 f8 e9 ff ff 	lea    -0x1608(%rbp),%rax
    8817:	48 89 85 d8 fc ff ff 	mov    %rax,-0x328(%rbp)
    881e:	48 8d 05 a7 a8 00 00 	lea    0xa8a7(%rip),%rax        # 130cc <g_44>
    8825:	48 89 85 e0 fc ff ff 	mov    %rax,-0x320(%rbp)
    882c:	48 8d 85 f8 e9 ff ff 	lea    -0x1608(%rbp),%rax
    8833:	48 89 85 e8 fc ff ff 	mov    %rax,-0x318(%rbp)
    883a:	48 8d 05 4b 24 01 00 	lea    0x1244b(%rip),%rax        # 1ac8c <g_9>
    8841:	48 89 85 f0 fc ff ff 	mov    %rax,-0x310(%rbp)
    8848:	48 8d 85 e8 e9 ff ff 	lea    -0x1618(%rbp),%rax
    884f:	48 89 85 f8 fc ff ff 	mov    %rax,-0x308(%rbp)
    8856:	48 8d 05 6f a8 00 00 	lea    0xa86f(%rip),%rax        # 130cc <g_44>
    885d:	48 89 85 00 fd ff ff 	mov    %rax,-0x300(%rbp)
    8864:	48 c7 85 08 fd ff ff 	movq   $0x0,-0x2f8(%rbp)
    886b:	00 00 00 00 
    886f:	48 8d 05 1a 24 01 00 	lea    0x1241a(%rip),%rax        # 1ac90 <g_49>
    8876:	48 89 85 10 fd ff ff 	mov    %rax,-0x2f0(%rbp)
    887d:	48 c7 85 18 fd ff ff 	movq   $0x0,-0x2e8(%rbp)
    8884:	00 00 00 00 
    8888:	48 8d 85 e8 e9 ff ff 	lea    -0x1618(%rbp),%rax
    888f:	48 89 85 20 fd ff ff 	mov    %rax,-0x2e0(%rbp)
    8896:	48 8d 05 2f a8 00 00 	lea    0xa82f(%rip),%rax        # 130cc <g_44>
    889d:	48 89 85 28 fd ff ff 	mov    %rax,-0x2d8(%rbp)
    88a4:	48 8d 85 e8 e9 ff ff 	lea    -0x1618(%rbp),%rax
    88ab:	48 89 85 30 fd ff ff 	mov    %rax,-0x2d0(%rbp)
    88b2:	48 8d 05 d7 23 01 00 	lea    0x123d7(%rip),%rax        # 1ac90 <g_49>
    88b9:	48 89 85 38 fd ff ff 	mov    %rax,-0x2c8(%rbp)
    88c0:	48 c7 85 40 fd ff ff 	movq   $0x0,-0x2c0(%rbp)
    88c7:	00 00 00 00 
    88cb:	48 c7 85 48 fd ff ff 	movq   $0x0,-0x2b8(%rbp)
    88d2:	00 00 00 00 
    88d6:	48 8d 85 f8 e9 ff ff 	lea    -0x1608(%rbp),%rax
    88dd:	48 89 85 50 fd ff ff 	mov    %rax,-0x2b0(%rbp)
    88e4:	48 8d 05 a5 23 01 00 	lea    0x123a5(%rip),%rax        # 1ac90 <g_49>
    88eb:	48 89 85 58 fd ff ff 	mov    %rax,-0x2a8(%rbp)
    88f2:	48 c7 85 60 fd ff ff 	movq   $0x0,-0x2a0(%rbp)
    88f9:	00 00 00 00 
    88fd:	48 c7 85 68 fd ff ff 	movq   $0x0,-0x298(%rbp)
    8904:	00 00 00 00 
    8908:	48 c7 85 70 fd ff ff 	movq   $0x0,-0x290(%rbp)
    890f:	00 00 00 00 
    8913:	48 8d 05 72 23 01 00 	lea    0x12372(%rip),%rax        # 1ac8c <g_9>
    891a:	48 89 85 78 fd ff ff 	mov    %rax,-0x288(%rbp)
    8921:	48 8d 85 f8 e9 ff ff 	lea    -0x1608(%rbp),%rax
    8928:	48 89 85 80 fd ff ff 	mov    %rax,-0x280(%rbp)
    892f:	48 8d 05 8e a7 00 00 	lea    0xa78e(%rip),%rax        # 130c4 <g_35>
    8936:	48 89 85 88 fd ff ff 	mov    %rax,-0x278(%rbp)
    893d:	48 8d 85 f8 e9 ff ff 	lea    -0x1608(%rbp),%rax
    8944:	48 89 85 90 fd ff ff 	mov    %rax,-0x270(%rbp)
    894b:	48 8d 85 e8 e9 ff ff 	lea    -0x1618(%rbp),%rax
    8952:	48 89 85 98 fd ff ff 	mov    %rax,-0x268(%rbp)
    8959:	48 c7 85 a0 fd ff ff 	movq   $0x0,-0x260(%rbp)
    8960:	00 00 00 00 
    8964:	48 8d 85 f8 e9 ff ff 	lea    -0x1608(%rbp),%rax
    896b:	48 89 85 a8 fd ff ff 	mov    %rax,-0x258(%rbp)
    8972:	48 8d 85 e8 e9 ff ff 	lea    -0x1618(%rbp),%rax
    8979:	48 89 85 b0 fd ff ff 	mov    %rax,-0x250(%rbp)
    8980:	48 8d 05 09 23 01 00 	lea    0x12309(%rip),%rax        # 1ac90 <g_49>
    8987:	48 89 85 b8 fd ff ff 	mov    %rax,-0x248(%rbp)
    898e:	48 8d 05 f7 22 01 00 	lea    0x122f7(%rip),%rax        # 1ac8c <g_9>
    8995:	48 89 85 c0 fd ff ff 	mov    %rax,-0x240(%rbp)
    899c:	48 c7 85 c8 fd ff ff 	movq   $0x0,-0x238(%rbp)
    89a3:	00 00 00 00 
    89a7:	48 8d 05 16 a7 00 00 	lea    0xa716(%rip),%rax        # 130c4 <g_35>
    89ae:	48 89 85 d0 fd ff ff 	mov    %rax,-0x230(%rbp)
    89b5:	48 c7 85 d8 fd ff ff 	movq   $0x0,-0x228(%rbp)
    89bc:	00 00 00 00 
    89c0:	48 8d 05 05 a7 00 00 	lea    0xa705(%rip),%rax        # 130cc <g_44>
    89c7:	48 89 85 e0 fd ff ff 	mov    %rax,-0x220(%rbp)
    89ce:	48 8d 05 b7 22 01 00 	lea    0x122b7(%rip),%rax        # 1ac8c <g_9>
    89d5:	48 89 85 e8 fd ff ff 	mov    %rax,-0x218(%rbp)
    89dc:	48 8d 85 f8 e9 ff ff 	lea    -0x1608(%rbp),%rax
    89e3:	48 89 85 f0 fd ff ff 	mov    %rax,-0x210(%rbp)
    89ea:	48 8d 85 f8 e9 ff ff 	lea    -0x1608(%rbp),%rax
    89f1:	48 89 85 f8 fd ff ff 	mov    %rax,-0x208(%rbp)
    89f8:	48 8d 05 91 22 01 00 	lea    0x12291(%rip),%rax        # 1ac90 <g_49>
    89ff:	48 89 85 00 fe ff ff 	mov    %rax,-0x200(%rbp)
    8a06:	48 8d 05 bf a6 00 00 	lea    0xa6bf(%rip),%rax        # 130cc <g_44>
    8a0d:	48 89 85 08 fe ff ff 	mov    %rax,-0x1f8(%rbp)
    8a14:	48 8d 05 71 22 01 00 	lea    0x12271(%rip),%rax        # 1ac8c <g_9>
    8a1b:	48 89 85 10 fe ff ff 	mov    %rax,-0x1f0(%rbp)
    8a22:	48 8d 85 f8 e9 ff ff 	lea    -0x1608(%rbp),%rax
    8a29:	48 89 85 18 fe ff ff 	mov    %rax,-0x1e8(%rbp)
    8a30:	48 8d 85 e8 e9 ff ff 	lea    -0x1618(%rbp),%rax
    8a37:	48 89 85 20 fe ff ff 	mov    %rax,-0x1e0(%rbp)
    8a3e:	48 8d 05 4b 22 01 00 	lea    0x1224b(%rip),%rax        # 1ac90 <g_49>
    8a45:	48 89 85 28 fe ff ff 	mov    %rax,-0x1d8(%rbp)
    8a4c:	48 c7 85 30 fe ff ff 	movq   $0x0,-0x1d0(%rbp)
    8a53:	00 00 00 00 
    8a57:	48 8d 05 2a 22 01 00 	lea    0x1222a(%rip),%rax        # 1ac88 <g_3>
    8a5e:	48 89 85 38 fe ff ff 	mov    %rax,-0x1c8(%rbp)
    8a65:	48 8d 05 24 22 01 00 	lea    0x12224(%rip),%rax        # 1ac90 <g_49>
    8a6c:	48 89 85 40 fe ff ff 	mov    %rax,-0x1c0(%rbp)
    8a73:	48 8d 05 0e 22 01 00 	lea    0x1220e(%rip),%rax        # 1ac88 <g_3>
    8a7a:	48 89 85 48 fe ff ff 	mov    %rax,-0x1b8(%rbp)
    8a81:	48 c7 85 50 fe ff ff 	movq   $0x0,-0x1b0(%rbp)
    8a88:	00 00 00 00 
    8a8c:	48 c7 85 58 fe ff ff 	movq   $0x0,-0x1a8(%rbp)
    8a93:	00 00 00 00 
    8a97:	48 8d 05 ea 21 01 00 	lea    0x121ea(%rip),%rax        # 1ac88 <g_3>
    8a9e:	48 89 85 60 fe ff ff 	mov    %rax,-0x1a0(%rbp)
    8aa5:	48 8d 05 dc 21 01 00 	lea    0x121dc(%rip),%rax        # 1ac88 <g_3>
    8aac:	48 89 85 68 fe ff ff 	mov    %rax,-0x198(%rbp)
    8ab3:	48 c7 85 70 fe ff ff 	movq   $0x0,-0x190(%rbp)
    8aba:	00 00 00 00 
    8abe:	48 c7 85 78 fe ff ff 	movq   $0x0,-0x188(%rbp)
    8ac5:	00 00 00 00 
    8ac9:	48 8d 05 fc a5 00 00 	lea    0xa5fc(%rip),%rax        # 130cc <g_44>
    8ad0:	48 89 85 80 fe ff ff 	mov    %rax,-0x180(%rbp)
    8ad7:	48 8d 05 aa 21 01 00 	lea    0x121aa(%rip),%rax        # 1ac88 <g_3>
    8ade:	48 89 85 88 fe ff ff 	mov    %rax,-0x178(%rbp)
    8ae5:	48 8d 85 f8 e9 ff ff 	lea    -0x1608(%rbp),%rax
    8aec:	48 89 85 90 fe ff ff 	mov    %rax,-0x170(%rbp)
    8af3:	48 8d 85 e8 e9 ff ff 	lea    -0x1618(%rbp),%rax
    8afa:	48 89 85 98 fe ff ff 	mov    %rax,-0x168(%rbp)
    8b01:	48 c7 85 a0 fe ff ff 	movq   $0x0,-0x160(%rbp)
    8b08:	00 00 00 00 
    8b0c:	48 8d 85 e8 e9 ff ff 	lea    -0x1618(%rbp),%rax
    8b13:	48 89 85 a8 fe ff ff 	mov    %rax,-0x158(%rbp)
    8b1a:	48 8d 05 a3 a5 00 00 	lea    0xa5a3(%rip),%rax        # 130c4 <g_35>
    8b21:	48 89 85 b0 fe ff ff 	mov    %rax,-0x150(%rbp)
    8b28:	48 8d 85 f8 e9 ff ff 	lea    -0x1608(%rbp),%rax
    8b2f:	48 89 85 b8 fe ff ff 	mov    %rax,-0x148(%rbp)
    8b36:	48 8d 05 87 a5 00 00 	lea    0xa587(%rip),%rax        # 130c4 <g_35>
    8b3d:	48 89 85 c0 fe ff ff 	mov    %rax,-0x140(%rbp)
    8b44:	48 8d 05 3d 21 01 00 	lea    0x1213d(%rip),%rax        # 1ac88 <g_3>
    8b4b:	48 89 85 c8 fe ff ff 	mov    %rax,-0x138(%rbp)
    8b52:	48 8d 85 e8 e9 ff ff 	lea    -0x1618(%rbp),%rax
    8b59:	48 89 85 d0 fe ff ff 	mov    %rax,-0x130(%rbp)
    8b60:	48 8d 05 21 21 01 00 	lea    0x12121(%rip),%rax        # 1ac88 <g_3>
    8b67:	48 89 85 d8 fe ff ff 	mov    %rax,-0x128(%rbp)
    8b6e:	48 c7 85 e0 fe ff ff 	movq   $0x0,-0x120(%rbp)
    8b75:	00 00 00 00 
    8b79:	48 8d 05 10 21 01 00 	lea    0x12110(%rip),%rax        # 1ac90 <g_49>
    8b80:	48 89 85 e8 fe ff ff 	mov    %rax,-0x118(%rbp)
    8b87:	48 8d 05 fa 20 01 00 	lea    0x120fa(%rip),%rax        # 1ac88 <g_3>
    8b8e:	48 89 85 f0 fe ff ff 	mov    %rax,-0x110(%rbp)
    8b95:	48 8d 05 ec 20 01 00 	lea    0x120ec(%rip),%rax        # 1ac88 <g_3>
    8b9c:	48 89 85 f8 fe ff ff 	mov    %rax,-0x108(%rbp)
    8ba3:	48 8d 05 e2 20 01 00 	lea    0x120e2(%rip),%rax        # 1ac8c <g_9>
    8baa:	48 89 85 00 ff ff ff 	mov    %rax,-0x100(%rbp)
    8bb1:	48 c7 85 08 ff ff ff 	movq   $0x0,-0xf8(%rbp)
    8bb8:	00 00 00 00 
    8bbc:	48 8d 85 f8 e9 ff ff 	lea    -0x1608(%rbp),%rax
    8bc3:	48 89 85 10 ff ff ff 	mov    %rax,-0xf0(%rbp)
    8bca:	48 8d 85 f8 e9 ff ff 	lea    -0x1608(%rbp),%rax
    8bd1:	48 89 85 18 ff ff ff 	mov    %rax,-0xe8(%rbp)
    8bd8:	48 8d 05 ed a4 00 00 	lea    0xa4ed(%rip),%rax        # 130cc <g_44>
    8bdf:	48 89 85 20 ff ff ff 	mov    %rax,-0xe0(%rbp)
    8be6:	48 8d 05 9f 20 01 00 	lea    0x1209f(%rip),%rax        # 1ac8c <g_9>
    8bed:	48 89 85 28 ff ff ff 	mov    %rax,-0xd8(%rbp)
    8bf4:	48 8d 85 e8 e9 ff ff 	lea    -0x1618(%rbp),%rax
    8bfb:	48 89 85 30 ff ff ff 	mov    %rax,-0xd0(%rbp)
    8c02:	48 8d 05 c3 a4 00 00 	lea    0xa4c3(%rip),%rax        # 130cc <g_44>
    8c09:	48 89 85 38 ff ff ff 	mov    %rax,-0xc8(%rbp)
    8c10:	48 c7 85 40 ff ff ff 	movq   $0x0,-0xc0(%rbp)
    8c17:	00 00 00 00 
    8c1b:	48 8d 05 66 20 01 00 	lea    0x12066(%rip),%rax        # 1ac88 <g_3>
    8c22:	48 89 85 48 ff ff ff 	mov    %rax,-0xb8(%rbp)
    8c29:	48 8d 85 e8 e9 ff ff 	lea    -0x1618(%rbp),%rax
    8c30:	48 89 85 50 ff ff ff 	mov    %rax,-0xb0(%rbp)
    8c37:	48 8d 85 f8 e9 ff ff 	lea    -0x1608(%rbp),%rax
    8c3e:	48 89 85 58 ff ff ff 	mov    %rax,-0xa8(%rbp)
    8c45:	48 8d 85 e8 e9 ff ff 	lea    -0x1618(%rbp),%rax
    8c4c:	48 89 85 60 ff ff ff 	mov    %rax,-0xa0(%rbp)
    8c53:	48 8d 05 32 20 01 00 	lea    0x12032(%rip),%rax        # 1ac8c <g_9>
    8c5a:	48 89 85 68 ff ff ff 	mov    %rax,-0x98(%rbp)
    8c61:	48 8d 85 f8 e9 ff ff 	lea    -0x1608(%rbp),%rax
    8c68:	48 89 85 70 ff ff ff 	mov    %rax,-0x90(%rbp)
    8c6f:	48 8d 85 f8 e9 ff ff 	lea    -0x1608(%rbp),%rax
    8c76:	48 89 85 78 ff ff ff 	mov    %rax,-0x88(%rbp)
    8c7d:	48 8d 05 40 a4 00 00 	lea    0xa440(%rip),%rax        # 130c4 <g_35>
    8c84:	48 89 45 80          	mov    %rax,-0x80(%rbp)
    8c88:	48 8d 85 e8 e9 ff ff 	lea    -0x1618(%rbp),%rax
    8c8f:	48 89 45 88          	mov    %rax,-0x78(%rbp)
    8c93:	48 8d 85 f8 e9 ff ff 	lea    -0x1608(%rbp),%rax
    8c9a:	48 89 45 90          	mov    %rax,-0x70(%rbp)
    8c9e:	48 8d 05 27 a4 00 00 	lea    0xa427(%rip),%rax        # 130cc <g_44>
    8ca5:	48 89 45 98          	mov    %rax,-0x68(%rbp)
    8ca9:	48 c7 45 a0 00 00 00 	movq   $0x0,-0x60(%rbp)
    8cb0:	00 
    8cb1:	48 8d 05 14 a4 00 00 	lea    0xa414(%rip),%rax        # 130cc <g_44>
    8cb8:	48 89 45 a8          	mov    %rax,-0x58(%rbp)
    8cbc:	48 8d 85 f8 e9 ff ff 	lea    -0x1608(%rbp),%rax
    8cc3:	48 89 45 b0          	mov    %rax,-0x50(%rbp)
    8cc7:	48 8d 85 e8 e9 ff ff 	lea    -0x1618(%rbp),%rax
    8cce:	48 89 45 b8          	mov    %rax,-0x48(%rbp)
    8cd2:	8b 05 0c a4 00 00    	mov    0xa40c(%rip),%eax        # 130e4 <g_129+0x4>
    8cd8:	83 c0 01             	add    $0x1,%eax
    8cdb:	89 05 03 a4 00 00    	mov    %eax,0xa403(%rip)        # 130e4 <g_129+0x4>
    8ce1:	8b 85 c4 e9 ff ff    	mov    -0x163c(%rbp),%eax
    8ce7:	0f b6 d0             	movzbl %al,%edx
    8cea:	8b 05 d0 a3 00 00    	mov    0xa3d0(%rip),%eax        # 130c0 <g_8>
    8cf0:	0f b6 c0             	movzbl %al,%eax
    8cf3:	89 d6                	mov    %edx,%esi
    8cf5:	89 c7                	mov    %eax,%edi
    8cf7:	e8 df ae ff ff       	callq  3bdb <safe_div_func_uint8_t_u_u>
    8cfc:	0f b6 d0             	movzbl %al,%edx
    8cff:	48 8b 85 f0 ea ff ff 	mov    -0x1510(%rbp),%rax
    8d06:	89 10                	mov    %edx,(%rax)
    8d08:	48 8b 95 80 ea ff ff 	mov    -0x1580(%rbp),%rdx
    8d0f:	48 8d 85 c4 e9 ff ff 	lea    -0x163c(%rbp),%rax
    8d16:	48 39 c2             	cmp    %rax,%rdx
    8d19:	0f 94 c2             	sete   %dl
    8d1c:	48 8b 85 a0 ea ff ff 	mov    -0x1560(%rbp),%rax
    8d23:	88 10                	mov    %dl,(%rax)
    8d25:	48 8b 85 f8 ea ff ff 	mov    -0x1508(%rbp),%rax
    8d2c:	48 c7 00 00 00 00 00 	movq   $0x0,(%rax)
    8d33:	48 8b 85 f8 ea ff ff 	mov    -0x1508(%rbp),%rax
    8d3a:	48 8b 00             	mov    (%rax),%rax
    8d3d:	48 39 85 e0 ea ff ff 	cmp    %rax,-0x1520(%rbp)
    8d44:	41 0f 95 c4          	setne  %r12b
    8d48:	b8 40 00 00 00       	mov    $0x40,%eax
    8d4d:	0f be d8             	movsbl %al,%ebx
    8d50:	8b 85 18 ee ff ff    	mov    -0x11e8(%rbp),%eax
    8d56:	85 c0                	test   %eax,%eax
    8d58:	0f 94 c0             	sete   %al
    8d5b:	0f b6 d0             	movzbl %al,%edx
    8d5e:	8b 85 c4 e9 ff ff    	mov    -0x163c(%rbp),%eax
    8d64:	09 d0                	or     %edx,%eax
    8d66:	89 c0                	mov    %eax,%eax
    8d68:	48 89 c7             	mov    %rax,%rdi
    8d6b:	e8 a6 aa ff ff       	callq  3816 <safe_unary_minus_func_int64_t_s>
    8d70:	48 be 2a 1d 0c 45 de 	movabs $0xbb8e87de450c1d2a,%rsi
    8d77:	87 8e bb 
    8d7a:	48 89 c7             	mov    %rax,%rdi
    8d7d:	e8 c9 b2 ff ff       	callq  404b <safe_sub_func_uint64_t_u_u>
    8d82:	83 f0 f9             	xor    $0xfffffff9,%eax
    8d85:	0f b7 d0             	movzwl %ax,%edx
    8d88:	48 8b 85 00 eb ff ff 	mov    -0x1500(%rbp),%rax
    8d8f:	0f b7 00             	movzwl (%rax),%eax
    8d92:	8d 70 ff             	lea    -0x1(%rax),%esi
    8d95:	48 8b 8d 00 eb ff ff 	mov    -0x1500(%rbp),%rcx
    8d9c:	66 89 31             	mov    %si,(%rcx)
    8d9f:	0f b7 c0             	movzwl %ax,%eax
    8da2:	89 d6                	mov    %edx,%esi
    8da4:	89 c7                	mov    %eax,%edi
    8da6:	e8 92 af ff ff       	callq  3d3d <safe_mul_func_uint16_t_u_u>
    8dab:	0f b6 c0             	movzbl %al,%eax
    8dae:	89 de                	mov    %ebx,%esi
    8db0:	89 c7                	mov    %eax,%edi
    8db2:	e8 d6 ae ff ff       	callq  3c8d <safe_rshift_func_uint8_t_u_s>
    8db7:	0f b6 c0             	movzbl %al,%eax
    8dba:	be ff ff ff ff       	mov    $0xffffffff,%esi
    8dbf:	89 c7                	mov    %eax,%edi
    8dc1:	e8 8f a6 ff ff       	callq  3455 <safe_div_func_int16_t_s_s>
    8dc6:	0f bf d0             	movswl %ax,%edx
    8dc9:	8b 85 c4 e9 ff ff    	mov    -0x163c(%rbp),%eax
    8dcf:	21 c2                	and    %eax,%edx
    8dd1:	8b 85 00 ea ff ff    	mov    -0x1600(%rbp),%eax
    8dd7:	39 c2                	cmp    %eax,%edx
    8dd9:	0f 96 c0             	setbe  %al
    8ddc:	44 31 e0             	xor    %r12d,%eax
    8ddf:	84 c0                	test   %al,%al
    8de1:	75 0a                	jne    8ded <func_69+0x1ce0>
    8de3:	8b 85 f8 e9 ff ff    	mov    -0x1608(%rbp),%eax
    8de9:	85 c0                	test   %eax,%eax
    8deb:	74 07                	je     8df4 <func_69+0x1ce7>
    8ded:	b8 01 00 00 00       	mov    $0x1,%eax
    8df2:	eb 05                	jmp    8df9 <func_69+0x1cec>
    8df4:	b8 00 00 00 00       	mov    $0x0,%eax
    8df9:	0f be c0             	movsbl %al,%eax
    8dfc:	be 01 00 00 00       	mov    $0x1,%esi
    8e01:	89 c7                	mov    %eax,%edi
    8e03:	e8 0a a4 ff ff       	callq  3212 <safe_mul_func_int8_t_s_s>
    8e08:	0f be d0             	movsbl %al,%edx
    8e0b:	8b 85 c4 e9 ff ff    	mov    -0x163c(%rbp),%eax
    8e11:	0f b7 c0             	movzwl %ax,%eax
    8e14:	89 d6                	mov    %edx,%esi
    8e16:	89 c7                	mov    %eax,%edi
    8e18:	e8 e9 af ff ff       	callq  3e06 <safe_lshift_func_uint16_t_u_u>
    8e1d:	48 83 bd c8 e9 ff ff 	cmpq   $0x0,-0x1638(%rbp)
    8e24:	00 
    8e25:	0f 84 c9 08 00 00    	je     96f4 <func_69+0x25e7>
    8e2b:	c7 85 64 ea ff ff 08 	movl   $0x8,-0x159c(%rbp)
    8e32:	00 00 00 
    8e35:	48 8d 85 da e9 ff ff 	lea    -0x1626(%rbp),%rax
    8e3c:	48 89 85 58 eb ff ff 	mov    %rax,-0x14a8(%rbp)
    8e43:	48 8d 05 86 a3 00 00 	lea    0xa386(%rip),%rax        # 131d0 <g_212>
    8e4a:	48 89 85 60 eb ff ff 	mov    %rax,-0x14a0(%rbp)
    8e51:	48 c7 85 b0 ea ff ff 	movq   $0x0,-0x1550(%rbp)
    8e58:	00 00 00 00 
    8e5c:	c7 85 34 ea ff ff 00 	movl   $0x0,-0x15cc(%rbp)
    8e63:	00 00 00 
    8e66:	eb 21                	jmp    8e89 <func_69+0x1d7c>
    8e68:	8b 85 34 ea ff ff    	mov    -0x15cc(%rbp),%eax
    8e6e:	48 98                	cltq   
    8e70:	48 bb 39 39 1d 0c f4 	movabs $0x4adee2f40c1d3939,%rbx
    8e77:	e2 de 4a 
    8e7a:	48 89 9c c5 f0 ec ff 	mov    %rbx,-0x1310(%rbp,%rax,8)
    8e81:	ff 
    8e82:	83 85 34 ea ff ff 01 	addl   $0x1,-0x15cc(%rbp)
    8e89:	83 bd 34 ea ff ff 00 	cmpl   $0x0,-0x15cc(%rbp)
    8e90:	7e d6                	jle    8e68 <func_69+0x1d5b>
    8e92:	c7 05 f4 1d 01 00 01 	movl   $0x1,0x11df4(%rip)        # 1ac90 <g_49>
    8e99:	00 00 00 
    8e9c:	e9 b2 04 00 00       	jmpq   9353 <func_69+0x2246>
    8ea1:	48 8d 05 e8 51 00 00 	lea    0x51e8(%rip),%rax        # e090 <g_158>
    8ea8:	48 89 85 b8 ea ff ff 	mov    %rax,-0x1548(%rbp)
    8eaf:	48 8d 85 b8 ea ff ff 	lea    -0x1548(%rbp),%rax
    8eb6:	48 89 85 68 eb ff ff 	mov    %rax,-0x1498(%rbp)
    8ebd:	48 8d 05 64 0f 01 00 	lea    0x10f64(%rip),%rax        # 19e28 <g_165>
    8ec4:	48 89 85 70 eb ff ff 	mov    %rax,-0x1490(%rbp)
    8ecb:	48 8d 85 da e9 ff ff 	lea    -0x1626(%rbp),%rax
    8ed2:	48 89 85 78 eb ff ff 	mov    %rax,-0x1488(%rbp)
    8ed9:	c7 85 38 ea ff ff 89 	movl   $0xd6a9aa89,-0x15c8(%rbp)
    8ee0:	aa a9 d6 
    8ee3:	48 8d 85 00 ea ff ff 	lea    -0x1600(%rbp),%rax
    8eea:	48 89 85 80 eb ff ff 	mov    %rax,-0x1480(%rbp)
    8ef1:	c7 85 b0 ed ff ff 00 	movl   $0x0,-0x1250(%rbp)
    8ef8:	00 00 00 
    8efb:	c7 85 b4 ed ff ff 00 	movl   $0x0,-0x124c(%rbp)
    8f02:	00 00 00 
    8f05:	c7 85 b8 ed ff ff 00 	movl   $0x0,-0x1248(%rbp)
    8f0c:	00 00 00 
    8f0f:	c7 85 bc ed ff ff 00 	movl   $0x0,-0x1244(%rbp)
    8f16:	00 00 00 
    8f19:	c7 85 c0 ed ff ff 00 	movl   $0x0,-0x1240(%rbp)
    8f20:	00 00 00 
    8f23:	48 8b 85 68 eb ff ff 	mov    -0x1498(%rbp),%rax
    8f2a:	48 8d 15 bb a1 00 00 	lea    0xa1bb(%rip),%rdx        # 130ec <g_129+0xc>
    8f31:	48 89 10             	mov    %rdx,(%rax)
    8f34:	48 8b 85 90 ea ff ff 	mov    -0x1570(%rbp),%rax
    8f3b:	c7 00 01 00 00 00    	movl   $0x1,(%rax)
    8f41:	44 8b 20             	mov    (%rax),%r12d
    8f44:	b8 91 62 dd bb       	mov    $0xbbdd6291,%eax
    8f49:	0f b7 d8             	movzwl %ax,%ebx
    8f4c:	48 8b 15 bd 0e 01 00 	mov    0x10ebd(%rip),%rdx        # 19e10 <g_68>
    8f53:	48 8b 85 c8 ea ff ff 	mov    -0x1538(%rbp),%rax
    8f5a:	8b 12                	mov    (%rdx),%edx
    8f5c:	89 10                	mov    %edx,(%rax)
    8f5e:	48 8b 15 c3 0e 01 00 	mov    0x10ec3(%rip),%rdx        # 19e28 <g_165>
    8f65:	48 8b 85 70 eb ff ff 	mov    -0x1490(%rbp),%rax
    8f6c:	48 89 10             	mov    %rdx,(%rax)
    8f6f:	48 8b 85 70 eb ff ff 	mov    -0x1490(%rbp),%rax
    8f76:	48 8b 00             	mov    (%rax),%rax
    8f79:	48 8d 15 a0 0e 01 00 	lea    0x10ea0(%rip),%rdx        # 19e20 <g_166>
    8f80:	48 39 d0             	cmp    %rdx,%rax
    8f83:	0f 94 c0             	sete   %al
    8f86:	0f b6 d0             	movzbl %al,%edx
    8f89:	48 8b 85 78 eb ff ff 	mov    -0x1488(%rbp),%rax
    8f90:	66 89 10             	mov    %dx,(%rax)
    8f93:	48 8b 85 78 eb ff ff 	mov    -0x1488(%rbp),%rax
    8f9a:	0f b7 00             	movzwl (%rax),%eax
    8f9d:	0f bf d0             	movswl %ax,%edx
    8fa0:	48 8b 85 f0 ec ff ff 	mov    -0x1310(%rbp),%rax
    8fa7:	48 85 c0             	test   %rax,%rax
    8faa:	0f 9e c0             	setle  %al
    8fad:	0f b6 c8             	movzbl %al,%ecx
    8fb0:	8b 85 f0 e9 ff ff    	mov    -0x1610(%rbp),%eax
    8fb6:	31 c8                	xor    %ecx,%eax
    8fb8:	89 85 f0 e9 ff ff    	mov    %eax,-0x1610(%rbp)
    8fbe:	8b 85 f0 e9 ff ff    	mov    -0x1610(%rbp),%eax
    8fc4:	39 c2                	cmp    %eax,%edx
    8fc6:	7c 12                	jl     8fda <func_69+0x1ecd>
    8fc8:	48 8b 05 59 0e 01 00 	mov    0x10e59(%rip),%rax        # 19e28 <g_165>
    8fcf:	48 8b 00             	mov    (%rax),%rax
    8fd2:	48 8b 00             	mov    (%rax),%rax
    8fd5:	0f b6 00             	movzbl (%rax),%eax
    8fd8:	84 c0                	test   %al,%al
    8fda:	8b 85 38 ea ff ff    	mov    -0x15c8(%rbp),%eax
    8fe0:	89 85 f8 e9 ff ff    	mov    %eax,-0x1608(%rbp)
    8fe6:	be ff ff ff ff       	mov    $0xffffffff,%esi
    8feb:	bf 00 00 00 00       	mov    $0x0,%edi
    8ff0:	e8 fd a1 ff ff       	callq  31f2 <safe_sub_func_int8_t_s_s>
    8ff5:	66 98                	cbtw   
    8ff7:	0f b7 c0             	movzwl %ax,%eax
    8ffa:	89 de                	mov    %ebx,%esi
    8ffc:	89 c7                	mov    %eax,%edi
    8ffe:	e8 8b ad ff ff       	callq  3d8e <safe_div_func_uint16_t_u_u>
    9003:	66 85 c0             	test   %ax,%ax
    9006:	74 07                	je     900f <func_69+0x1f02>
    9008:	b8 01 00 00 00       	mov    $0x1,%eax
    900d:	eb 05                	jmp    9014 <func_69+0x1f07>
    900f:	b8 00 00 00 00       	mov    $0x0,%eax
    9014:	ba da c2 9a c4       	mov    $0xc49ac2da,%edx
    9019:	39 d0                	cmp    %edx,%eax
    901b:	0f 9e c0             	setle  %al
    901e:	0f b6 c0             	movzbl %al,%eax
    9021:	44 89 e2             	mov    %r12d,%edx
    9024:	31 c2                	xor    %eax,%edx
    9026:	48 8b 85 f0 ea ff ff 	mov    -0x1510(%rbp),%rax
    902d:	8b 00                	mov    (%rax),%eax
    902f:	39 c2                	cmp    %eax,%edx
    9031:	0f 92 c0             	setb   %al
    9034:	0f b6 c0             	movzbl %al,%eax
    9037:	39 85 38 ea ff ff    	cmp    %eax,-0x15c8(%rbp)
    903d:	0f 9e c0             	setle  %al
    9040:	0f b6 d0             	movzbl %al,%edx
    9043:	48 8b 85 80 eb ff ff 	mov    -0x1480(%rbp),%rax
    904a:	8b 00                	mov    (%rax),%eax
    904c:	21 c2                	and    %eax,%edx
    904e:	48 8b 85 80 eb ff ff 	mov    -0x1480(%rbp),%rax
    9055:	89 10                	mov    %edx,(%rax)
    9057:	c7 85 fc e9 ff ff 00 	movl   $0x0,-0x1604(%rbp)
    905e:	00 00 00 
    9061:	e9 8b 00 00 00       	jmpq   90f1 <func_69+0x1fe4>
    9066:	48 8d 05 b3 a0 00 00 	lea    0xa0b3(%rip),%rax        # 13120 <g_175>
    906d:	48 89 85 b8 eb ff ff 	mov    %rax,-0x1448(%rbp)
    9074:	48 8b 85 b8 eb ff ff 	mov    -0x1448(%rbp),%rax
    907b:	c7 00 d3 71 11 17    	movl   $0x171171d3,(%rax)
    9081:	48 8b 85 b8 eb ff ff 	mov    -0x1448(%rbp),%rax
    9088:	48 c7 40 08 06 00 00 	movq   $0x6,0x8(%rax)
    908f:	00 
    9090:	48 8b 85 b8 eb ff ff 	mov    -0x1448(%rbp),%rax
    9097:	c7 40 10 2c 42 c1 18 	movl   $0x18c1422c,0x10(%rax)
    909e:	48 8b 85 b8 eb ff ff 	mov    -0x1448(%rbp),%rax
    90a5:	c6 40 14 22          	movb   $0x22,0x14(%rax)
    90a9:	48 8b 85 b8 eb ff ff 	mov    -0x1448(%rbp),%rax
    90b0:	c7 40 18 00 00 00 00 	movl   $0x0,0x18(%rax)
    90b7:	48 8b 85 b8 eb ff ff 	mov    -0x1448(%rbp),%rax
    90be:	48 c7 40 20 fc ff ff 	movq   $0xfffffffffffffffc,0x20(%rax)
    90c5:	ff 
    90c6:	48 8b 85 b8 eb ff ff 	mov    -0x1448(%rbp),%rax
    90cd:	c7 40 28 00 00 00 00 	movl   $0x0,0x28(%rax)
    90d4:	48 8b 85 b8 eb ff ff 	mov    -0x1448(%rbp),%rax
    90db:	c7 40 2c 95 6e 5b 43 	movl   $0x435b6e95,0x2c(%rax)
    90e2:	8b 85 fc e9 ff ff    	mov    -0x1604(%rbp),%eax
    90e8:	83 c0 01             	add    $0x1,%eax
    90eb:	89 85 fc e9 ff ff    	mov    %eax,-0x1604(%rbp)
    90f1:	8b 85 fc e9 ff ff    	mov    -0x1604(%rbp),%eax
    90f7:	83 f8 01             	cmp    $0x1,%eax
    90fa:	0f 86 66 ff ff ff    	jbe    9066 <func_69+0x1f59>
    9100:	c7 85 38 ea ff ff 01 	movl   $0x1,-0x15c8(%rbp)
    9107:	00 00 00 
    910a:	e9 1c 02 00 00       	jmpq   932b <func_69+0x221e>
    910f:	48 8d 85 04 ea ff ff 	lea    -0x15fc(%rbp),%rax
    9116:	48 89 85 88 eb ff ff 	mov    %rax,-0x1478(%rbp)
    911d:	48 8d 85 f8 e9 ff ff 	lea    -0x1608(%rbp),%rax
    9124:	48 89 85 90 eb ff ff 	mov    %rax,-0x1470(%rbp)
    912b:	48 c7 85 98 eb ff ff 	movq   $0x0,-0x1468(%rbp)
    9132:	00 00 00 00 
    9136:	48 c7 85 a0 eb ff ff 	movq   $0x0,-0x1460(%rbp)
    913d:	00 00 00 00 
    9141:	48 8d 85 d0 ec ff ff 	lea    -0x1330(%rbp),%rax
    9148:	48 89 85 a8 eb ff ff 	mov    %rax,-0x1458(%rbp)
    914f:	48 8d 85 f0 e9 ff ff 	lea    -0x1610(%rbp),%rax
    9156:	48 89 85 b0 eb ff ff 	mov    %rax,-0x1450(%rbp)
    915d:	48 8d 85 d0 ec ff ff 	lea    -0x1330(%rbp),%rax
    9164:	48 89 85 c0 f7 ff ff 	mov    %rax,-0x840(%rbp)
    916b:	48 8d 85 d0 ec ff ff 	lea    -0x1330(%rbp),%rax
    9172:	48 89 85 c8 f7 ff ff 	mov    %rax,-0x838(%rbp)
    9179:	48 8d 85 d0 ec ff ff 	lea    -0x1330(%rbp),%rax
    9180:	48 89 85 d0 f7 ff ff 	mov    %rax,-0x830(%rbp)
    9187:	48 8d 85 d0 ec ff ff 	lea    -0x1330(%rbp),%rax
    918e:	48 89 85 d8 f7 ff ff 	mov    %rax,-0x828(%rbp)
    9195:	48 8d 85 d0 ec ff ff 	lea    -0x1330(%rbp),%rax
    919c:	48 89 85 e0 f7 ff ff 	mov    %rax,-0x820(%rbp)
    91a3:	48 8d 85 d0 ec ff ff 	lea    -0x1330(%rbp),%rax
    91aa:	48 89 85 e8 f7 ff ff 	mov    %rax,-0x818(%rbp)
    91b1:	48 8d 85 d0 ec ff ff 	lea    -0x1330(%rbp),%rax
    91b8:	48 89 85 f0 f7 ff ff 	mov    %rax,-0x810(%rbp)
    91bf:	48 8d 85 d0 ec ff ff 	lea    -0x1330(%rbp),%rax
    91c6:	48 89 85 f8 f7 ff ff 	mov    %rax,-0x808(%rbp)
    91cd:	48 8d 85 d0 ec ff ff 	lea    -0x1330(%rbp),%rax
    91d4:	48 89 85 00 f8 ff ff 	mov    %rax,-0x800(%rbp)
    91db:	66 c7 85 e2 e9 ff ff 	movw   $0xb13,-0x161e(%rbp)
    91e2:	13 0b 
    91e4:	c7 85 3c ea ff ff 00 	movl   $0x0,-0x15c4(%rbp)
    91eb:	00 00 00 
    91ee:	eb 1a                	jmp    920a <func_69+0x20fd>
    91f0:	8b 85 3c ea ff ff    	mov    -0x15c4(%rbp),%eax
    91f6:	48 98                	cltq   
    91f8:	c7 84 85 d0 ec ff ff 	movl   $0xffffffff,-0x1330(%rbp,%rax,4)
    91ff:	ff ff ff ff 
    9203:	83 85 3c ea ff ff 01 	addl   $0x1,-0x15c4(%rbp)
    920a:	83 bd 3c ea ff ff 00 	cmpl   $0x0,-0x15c4(%rbp)
    9211:	7e dd                	jle    91f0 <func_69+0x20e3>
    9213:	0f b7 85 38 ed ff ff 	movzwl -0x12c8(%rbp),%eax
    921a:	83 c0 01             	add    $0x1,%eax
    921d:	66 89 85 38 ed ff ff 	mov    %ax,-0x12c8(%rbp)
    9224:	8b 05 66 1a 01 00    	mov    0x11a66(%rip),%eax        # 1ac90 <g_49>
    922a:	8b 95 38 ea ff ff    	mov    -0x15c8(%rbp),%edx
    9230:	83 c2 02             	add    $0x2,%edx
    9233:	48 63 f2             	movslq %edx,%rsi
    9236:	48 98                	cltq   
    9238:	8b 95 38 ea ff ff    	mov    -0x15c8(%rbp),%edx
    923e:	48 63 ca             	movslq %edx,%rcx
    9241:	48 89 c2             	mov    %rax,%rdx
    9244:	48 c1 e2 06          	shl    $0x6,%rdx
    9248:	48 29 c2             	sub    %rax,%rdx
    924b:	48 89 c8             	mov    %rcx,%rax
    924e:	48 c1 e0 03          	shl    $0x3,%rax
    9252:	48 01 c8             	add    %rcx,%rax
    9255:	48 01 d0             	add    %rdx,%rax
    9258:	48 8d 14 30          	lea    (%rax,%rsi,1),%rdx
    925c:	48 8d 05 dd 9d 00 00 	lea    0x9ddd(%rip),%rax        # 13040 <g_7>
    9263:	48 01 d0             	add    %rdx,%rax
    9266:	0f b6 00             	movzbl (%rax),%eax
    9269:	84 c0                	test   %al,%al
    926b:	74 0c                	je     9279 <func_69+0x216c>
    926d:	83 ad 38 ea ff ff 01 	subl   $0x1,-0x15c8(%rbp)
    9274:	e9 b2 00 00 00       	jmpq   932b <func_69+0x221e>
    9279:	48 8b 85 f0 ea ff ff 	mov    -0x1510(%rbp),%rax
    9280:	8b 00                	mov    (%rax),%eax
    9282:	98                   	cwtl   
    9283:	89 c7                	mov    %eax,%edi
    9285:	e8 61 de ff ff       	callq  70eb <func_58>
    928a:	8b 85 c4 e9 ff ff    	mov    -0x163c(%rbp),%eax
    9290:	41 89 c4             	mov    %eax,%r12d
    9293:	8b 85 c4 e9 ff ff    	mov    -0x163c(%rbp),%eax
    9299:	0f b7 d8             	movzwl %ax,%ebx
    929c:	0f b7 05 5d 9e 00 00 	movzwl 0x9e5d(%rip),%eax        # 13100 <g_148>
    92a3:	0f b7 d0             	movzwl %ax,%edx
    92a6:	8b 85 c4 e9 ff ff    	mov    -0x163c(%rbp),%eax
    92ac:	39 c2                	cmp    %eax,%edx
    92ae:	76 11                	jbe    92c1 <func_69+0x21b4>
    92b0:	66 83 bd e2 e9 ff ff 	cmpw   $0x0,-0x161e(%rbp)
    92b7:	00 
    92b8:	74 07                	je     92c1 <func_69+0x21b4>
    92ba:	b8 01 00 00 00       	mov    $0x1,%eax
    92bf:	eb 05                	jmp    92c6 <func_69+0x21b9>
    92c1:	b8 00 00 00 00       	mov    $0x0,%eax
    92c6:	98                   	cwtl   
    92c7:	be c2 e2 ff ff       	mov    $0xffffe2c2,%esi
    92cc:	89 c7                	mov    %eax,%edi
    92ce:	e8 e0 a0 ff ff       	callq  33b3 <safe_add_func_int16_t_s_s>
    92d3:	66 0d 79 85          	or     $0x8579,%ax
    92d7:	0f b7 c0             	movzwl %ax,%eax
    92da:	89 de                	mov    %ebx,%esi
    92dc:	89 c7                	mov    %eax,%edi
    92de:	e8 1c aa ff ff       	callq  3cff <safe_add_func_uint16_t_u_u>
    92e3:	48 8b 85 f0 ea ff ff 	mov    -0x1510(%rbp),%rax
    92ea:	8b 00                	mov    (%rax),%eax
    92ec:	c1 e8 1f             	shr    $0x1f,%eax
    92ef:	0f b6 c0             	movzbl %al,%eax
    92f2:	4c 89 e6             	mov    %r12,%rsi
    92f5:	48 89 c7             	mov    %rax,%rdi
    92f8:	e8 31 ad ff ff       	callq  402e <safe_add_func_uint64_t_u_u>
    92fd:	0f b6 c0             	movzbl %al,%eax
    9300:	89 c6                	mov    %eax,%esi
    9302:	bf 00 00 00 00       	mov    $0x0,%edi
    9307:	e8 87 a8 ff ff       	callq  3b93 <safe_mul_func_uint8_t_u_u>
    930c:	ba 01 00 00 00       	mov    $0x1,%edx
    9311:	8b 85 e8 e9 ff ff    	mov    -0x1618(%rbp),%eax
    9317:	21 d0                	and    %edx,%eax
    9319:	89 85 e8 e9 ff ff    	mov    %eax,-0x1618(%rbp)
    931f:	48 8b 85 d0 ea ff ff 	mov    -0x1530(%rbp),%rax
    9326:	e9 a6 18 00 00       	jmpq   abd1 <func_69+0x3ac4>
    932b:	83 bd 38 ea ff ff 00 	cmpl   $0x0,-0x15c8(%rbp)
    9332:	0f 89 d7 fd ff ff    	jns    910f <func_69+0x2002>
    9338:	48 8b 85 f0 ec ff ff 	mov    -0x1310(%rbp),%rax
    933f:	48 85 c0             	test   %rax,%rax
    9342:	75 1f                	jne    9363 <func_69+0x2256>
    9344:	8b 05 46 19 01 00    	mov    0x11946(%rip),%eax        # 1ac90 <g_49>
    934a:	83 e8 01             	sub    $0x1,%eax
    934d:	89 05 3d 19 01 00    	mov    %eax,0x1193d(%rip)        # 1ac90 <g_49>
    9353:	8b 05 37 19 01 00    	mov    0x11937(%rip),%eax        # 1ac90 <g_49>
    9359:	85 c0                	test   %eax,%eax
    935b:	0f 89 40 fb ff ff    	jns    8ea1 <func_69+0x1d94>
    9361:	eb 01                	jmp    9364 <func_69+0x2257>
    9363:	90                   	nop
    9364:	48 8d 05 5d 9d 00 00 	lea    0x9d5d(%rip),%rax        # 130c8 <g_39>
    936b:	48 89 05 be 0a 01 00 	mov    %rax,0x10abe(%rip)        # 19e30 <g_206>
    9372:	48 8b 05 af 0a 01 00 	mov    0x10aaf(%rip),%rax        # 19e28 <g_165>
    9379:	48 8b 00             	mov    (%rax),%rax
    937c:	48 8b 00             	mov    (%rax),%rax
    937f:	0f b6 00             	movzbl (%rax),%eax
    9382:	0f be d0             	movsbl %al,%edx
    9385:	b8 01 00 00 00       	mov    $0x1,%eax
    938a:	89 c1                	mov    %eax,%ecx
    938c:	48 8b 85 58 eb ff ff 	mov    -0x14a8(%rbp),%rax
    9393:	66 89 08             	mov    %cx,(%rax)
    9396:	48 8b 85 60 eb ff ff 	mov    -0x14a0(%rbp),%rax
    939d:	c6 00 04             	movb   $0x4,(%rax)
    93a0:	48 8b 85 60 eb ff ff 	mov    -0x14a0(%rbp),%rax
    93a7:	0f b6 00             	movzbl (%rax),%eax
    93aa:	0f b6 c0             	movzbl %al,%eax
    93ad:	89 d6                	mov    %edx,%esi
    93af:	89 c7                	mov    %eax,%edi
    93b1:	e8 d7 a8 ff ff       	callq  3c8d <safe_rshift_func_uint8_t_u_s>
    93b6:	be 06 00 00 00       	mov    $0x6,%esi
    93bb:	bf 00 00 00 00       	mov    $0x0,%edi
    93c0:	e8 f9 a9 ff ff       	callq  3dbe <safe_lshift_func_uint16_t_u_s>
    93c5:	66 3d 09 16          	cmp    $0x1609,%ax
    93c9:	0f 95 c0             	setne  %al
    93cc:	0f b6 d0             	movzbl %al,%edx
    93cf:	48 8b 05 6a 9d 00 00 	mov    0x9d6a(%rip),%rax        # 13140 <g_175+0x20>
    93d6:	48 39 c2             	cmp    %rax,%rdx
    93d9:	0f 9e c0             	setle  %al
    93dc:	0f b6 d8             	movzbl %al,%ebx
    93df:	8b 85 c4 e9 ff ff    	mov    -0x163c(%rbp),%eax
    93e5:	98                   	cwtl   
    93e6:	89 c7                	mov    %eax,%edi
    93e8:	e8 fe dc ff ff       	callq  70eb <func_58>
    93ed:	89 c2                	mov    %eax,%edx
    93ef:	48 8b 85 b8 e9 ff ff 	mov    -0x1648(%rbp),%rax
    93f6:	89 10                	mov    %edx,(%rax)
    93f8:	48 8d 05 c9 9c 00 00 	lea    0x9cc9(%rip),%rax        # 130c8 <g_39>
    93ff:	48 39 85 c8 ea ff ff 	cmp    %rax,-0x1538(%rbp)
    9406:	0f 94 c0             	sete   %al
    9409:	0f b6 c0             	movzbl %al,%eax
    940c:	89 de                	mov    %ebx,%esi
    940e:	89 c7                	mov    %eax,%edi
    9410:	e8 ea a8 ff ff       	callq  3cff <safe_add_func_uint16_t_u_u>
    9415:	0f b7 c0             	movzwl %ax,%eax
    9418:	89 c7                	mov    %eax,%edi
    941a:	e8 ca a8 ff ff       	callq  3ce9 <safe_unary_minus_func_uint16_t_u>
    941f:	48 8b 95 f0 ea ff ff 	mov    -0x1510(%rbp),%rdx
    9426:	8b 12                	mov    (%rdx),%edx
    9428:	0f b7 c0             	movzwl %ax,%eax
    942b:	21 c2                	and    %eax,%edx
    942d:	48 8b 85 f0 ea ff ff 	mov    -0x1510(%rbp),%rax
    9434:	89 10                	mov    %edx,(%rax)
    9436:	48 8b 85 d0 ea ff ff 	mov    -0x1530(%rbp),%rax
    943d:	8b 00                	mov    (%rax),%eax
    943f:	85 c0                	test   %eax,%eax
    9441:	0f 84 6c 02 00 00    	je     96b3 <func_69+0x25a6>
    9447:	c6 85 d9 e9 ff ff f8 	movb   $0xf8,-0x1627(%rbp)
    944e:	48 8d 05 7d 9d 00 00 	lea    0x9d7d(%rip),%rax        # 131d2 <g_232>
    9455:	48 89 85 c8 eb ff ff 	mov    %rax,-0x1438(%rbp)
    945c:	c7 05 2a 18 01 00 00 	movl   $0x0,0x1182a(%rip)        # 1ac90 <g_49>
    9463:	00 00 00 
    9466:	e9 b9 00 00 00       	jmpq   9524 <func_69+0x2417>
    946b:	48 8d 85 a8 ea ff ff 	lea    -0x1558(%rbp),%rax
    9472:	48 89 85 d0 eb ff ff 	mov    %rax,-0x1430(%rbp)
    9479:	48 8d 85 c0 f7 ff ff 	lea    -0x840(%rbp),%rax
    9480:	48 83 c0 30          	add    $0x30,%rax
    9484:	48 89 85 d8 eb ff ff 	mov    %rax,-0x1428(%rbp)
    948b:	c7 85 40 ea ff ff 00 	movl   $0x0,-0x15c0(%rbp)
    9492:	00 00 00 
    9495:	eb 50                	jmp    94e7 <func_69+0x23da>
    9497:	c7 85 24 ea ff ff 00 	movl   $0x0,-0x15dc(%rbp)
    949e:	00 00 00 
    94a1:	eb 34                	jmp    94d7 <func_69+0x23ca>
    94a3:	8b 85 24 ea ff ff    	mov    -0x15dc(%rbp),%eax
    94a9:	48 63 c8             	movslq %eax,%rcx
    94ac:	8b 85 40 ea ff ff    	mov    -0x15c0(%rbp),%eax
    94b2:	48 63 d0             	movslq %eax,%rdx
    94b5:	48 89 d0             	mov    %rdx,%rax
    94b8:	48 01 c0             	add    %rax,%rax
    94bb:	48 01 d0             	add    %rdx,%rax
    94be:	48 01 c8             	add    %rcx,%rax
    94c1:	48 8d 15 58 9c 00 00 	lea    0x9c58(%rip),%rdx        # 13120 <g_175>
    94c8:	48 89 94 c5 c0 f7 ff 	mov    %rdx,-0x840(%rbp,%rax,8)
    94cf:	ff 
    94d0:	83 85 24 ea ff ff 01 	addl   $0x1,-0x15dc(%rbp)
    94d7:	83 bd 24 ea ff ff 02 	cmpl   $0x2,-0x15dc(%rbp)
    94de:	7e c3                	jle    94a3 <func_69+0x2396>
    94e0:	83 85 40 ea ff ff 01 	addl   $0x1,-0x15c0(%rbp)
    94e7:	83 bd 40 ea ff ff 05 	cmpl   $0x5,-0x15c0(%rbp)
    94ee:	7e a7                	jle    9497 <func_69+0x238a>
    94f0:	48 8b 95 a8 ea ff ff 	mov    -0x1558(%rbp),%rdx
    94f7:	48 8b 85 d0 eb ff ff 	mov    -0x1430(%rbp),%rax
    94fe:	48 89 10             	mov    %rdx,(%rax)
    9501:	48 8b 85 d0 eb ff ff 	mov    -0x1430(%rbp),%rax
    9508:	48 8b 10             	mov    (%rax),%rdx
    950b:	48 8b 85 d8 eb ff ff 	mov    -0x1428(%rbp),%rax
    9512:	48 89 10             	mov    %rdx,(%rax)
    9515:	8b 05 75 17 01 00    	mov    0x11775(%rip),%eax        # 1ac90 <g_49>
    951b:	83 c0 01             	add    $0x1,%eax
    951e:	89 05 6c 17 01 00    	mov    %eax,0x1176c(%rip)        # 1ac90 <g_49>
    9524:	8b 05 66 17 01 00    	mov    0x11766(%rip),%eax        # 1ac90 <g_49>
    952a:	83 f8 01             	cmp    $0x1,%eax
    952d:	0f 8e 38 ff ff ff    	jle    946b <func_69+0x235e>
    9533:	b8 4c e1 94 6d       	mov    $0x6d94e14c,%eax
    9538:	0f b6 d8             	movzbl %al,%ebx
    953b:	8b 85 f8 e9 ff ff    	mov    -0x1608(%rbp),%eax
    9541:	4c 63 e0             	movslq %eax,%r12
    9544:	8b 85 fc e9 ff ff    	mov    -0x1604(%rbp),%eax
    954a:	44 0f b7 e8          	movzwl %ax,%r13d
    954e:	8b 85 c4 e9 ff ff    	mov    -0x163c(%rbp),%eax
    9554:	0f b7 d0             	movzwl %ax,%edx
    9557:	8b 85 c4 e9 ff ff    	mov    -0x163c(%rbp),%eax
    955d:	0f b7 c0             	movzwl %ax,%eax
    9560:	89 d6                	mov    %edx,%esi
    9562:	89 c7                	mov    %eax,%edi
    9564:	e8 b6 a7 ff ff       	callq  3d1f <safe_sub_func_uint16_t_u_u>
    9569:	44 0f b7 f0          	movzwl %ax,%r14d
    956d:	48 83 bd 60 eb ff ff 	cmpq   $0x0,-0x14a0(%rbp)
    9574:	00 
    9575:	74 45                	je     95bc <func_69+0x24af>
    9577:	b8 22 00 00 00       	mov    $0x22,%eax
    957c:	0f be d0             	movsbl %al,%edx
    957f:	8b 85 c4 e9 ff ff    	mov    -0x163c(%rbp),%eax
    9585:	31 c2                	xor    %eax,%edx
    9587:	0f b6 85 d9 e9 ff ff 	movzbl -0x1627(%rbp),%eax
    958e:	39 c2                	cmp    %eax,%edx
    9590:	0f 94 c0             	sete   %al
    9593:	0f b6 d0             	movzbl %al,%edx
    9596:	48 8b 85 58 eb ff ff 	mov    -0x14a8(%rbp),%rax
    959d:	66 89 10             	mov    %dx,(%rax)
    95a0:	48 8b 85 58 eb ff ff 	mov    -0x14a8(%rbp),%rax
    95a7:	0f b7 00             	movzwl (%rax),%eax
    95aa:	98                   	cwtl   
    95ab:	be fb ff ff ff       	mov    $0xfffffffb,%esi
    95b0:	89 c7                	mov    %eax,%edi
    95b2:	e8 fc 9d ff ff       	callq  33b3 <safe_add_func_int16_t_s_s>
    95b7:	66 85 c0             	test   %ax,%ax
    95ba:	74 07                	je     95c3 <func_69+0x24b6>
    95bc:	b8 01 00 00 00       	mov    $0x1,%eax
    95c1:	eb 05                	jmp    95c8 <func_69+0x24bb>
    95c3:	b8 00 00 00 00       	mov    $0x0,%eax
    95c8:	89 c2                	mov    %eax,%edx
    95ca:	48 8b 85 c8 eb ff ff 	mov    -0x1438(%rbp),%rax
    95d1:	66 89 10             	mov    %dx,(%rax)
    95d4:	48 8b 85 c8 eb ff ff 	mov    -0x1438(%rbp),%rax
    95db:	0f b7 00             	movzwl (%rax),%eax
    95de:	98                   	cwtl   
    95df:	41 39 c6             	cmp    %eax,%r14d
    95e2:	7d 07                	jge    95eb <func_69+0x24de>
    95e4:	ba 01 00 00 00       	mov    $0x1,%edx
    95e9:	eb 05                	jmp    95f0 <func_69+0x24e3>
    95eb:	ba 00 00 00 00       	mov    $0x0,%edx
    95f0:	0f bf 85 dc e9 ff ff 	movswl -0x1624(%rbp),%eax
    95f7:	39 c2                	cmp    %eax,%edx
    95f9:	0f 95 c0             	setne  %al
    95fc:	0f b6 d0             	movzbl %al,%edx
    95ff:	8b 85 c4 e9 ff ff    	mov    -0x163c(%rbp),%eax
    9605:	39 c2                	cmp    %eax,%edx
    9607:	0f 96 c0             	setbe  %al
    960a:	0f b6 c0             	movzbl %al,%eax
    960d:	44 89 ee             	mov    %r13d,%esi
    9610:	89 c7                	mov    %eax,%edi
    9612:	e8 77 a7 ff ff       	callq  3d8e <safe_div_func_uint16_t_u_u>
    9617:	0f b6 95 d9 e9 ff ff 	movzbl -0x1627(%rbp),%edx
    961e:	8b 85 c4 e9 ff ff    	mov    -0x163c(%rbp),%eax
    9624:	85 c0                	test   %eax,%eax
    9626:	0f 94 c0             	sete   %al
    9629:	0f b6 c8             	movzbl %al,%ecx
    962c:	48 8b 05 35 4a 00 00 	mov    0x4a35(%rip),%rax        # e068 <g_154+0x8>
    9633:	48 39 c1             	cmp    %rax,%rcx
    9636:	0f 9d c0             	setge  %al
    9639:	0f b6 c0             	movzbl %al,%eax
    963c:	39 c2                	cmp    %eax,%edx
    963e:	0f 9c c0             	setl   %al
    9641:	0f b6 c0             	movzbl %al,%eax
    9644:	4c 89 e6             	mov    %r12,%rsi
    9647:	48 89 c7             	mov    %rax,%rdi
    964a:	e8 65 a3 ff ff       	callq  39b4 <safe_mod_func_int64_t_s_s>
    964f:	48 85 c0             	test   %rax,%rax
    9652:	74 13                	je     9667 <func_69+0x255a>
    9654:	48 8b 05 e5 9a 00 00 	mov    0x9ae5(%rip),%rax        # 13140 <g_175+0x20>
    965b:	48 85 c0             	test   %rax,%rax
    965e:	74 07                	je     9667 <func_69+0x255a>
    9660:	b8 01 00 00 00       	mov    $0x1,%eax
    9665:	eb 05                	jmp    966c <func_69+0x255f>
    9667:	b8 00 00 00 00       	mov    $0x0,%eax
    966c:	0f b6 c0             	movzbl %al,%eax
    966f:	25 9a 00 00 00       	and    $0x9a,%eax
    9674:	89 de                	mov    %ebx,%esi
    9676:	89 c7                	mov    %eax,%edi
    9678:	e8 5e a5 ff ff       	callq  3bdb <safe_div_func_uint8_t_u_u>
    967d:	0f b6 05 24 16 01 00 	movzbl 0x11624(%rip),%eax        # 1aca8 <g_234>
    9684:	84 c0                	test   %al,%al
    9686:	74 07                	je     968f <func_69+0x2582>
    9688:	b8 01 00 00 00       	mov    $0x1,%eax
    968d:	eb 05                	jmp    9694 <func_69+0x2587>
    968f:	b8 00 00 00 00       	mov    $0x0,%eax
    9694:	09 85 64 ea ff ff    	or     %eax,-0x159c(%rbp)
    969a:	8b 95 64 ea ff ff    	mov    -0x159c(%rbp),%edx
    96a0:	8b 05 8a 9a 00 00    	mov    0x9a8a(%rip),%eax        # 13130 <g_175+0x10>
    96a6:	09 d0                	or     %edx,%eax
    96a8:	89 05 82 9a 00 00    	mov    %eax,0x9a82(%rip)        # 13130 <g_175+0x10>
    96ae:	e9 89 00 00 00       	jmpq   973c <func_69+0x262f>
    96b3:	c7 05 13 9a 00 00 00 	movl   $0x0,0x9a13(%rip)        # 130d0 <g_95>
    96ba:	00 00 00 
    96bd:	90                   	nop
    96be:	8b 05 0c 9a 00 00    	mov    0x9a0c(%rip),%eax        # 130d0 <g_95>
    96c4:	83 f8 01             	cmp    $0x1,%eax
    96c7:	77 73                	ja     973c <func_69+0x262f>
    96c9:	48 8d 85 b0 ea ff ff 	lea    -0x1550(%rbp),%rax
    96d0:	48 89 85 c0 eb ff ff 	mov    %rax,-0x1440(%rbp)
    96d7:	48 8b 95 b0 ea ff ff 	mov    -0x1550(%rbp),%rdx
    96de:	48 8b 85 c0 eb ff ff 	mov    -0x1440(%rbp),%rax
    96e5:	48 89 10             	mov    %rdx,(%rax)
    96e8:	48 8d 05 99 15 01 00 	lea    0x11599(%rip),%rax        # 1ac88 <g_3>
    96ef:	e9 dd 14 00 00       	jmpq   abd1 <func_69+0x3ac4>
    96f4:	48 8b 85 a8 ea ff ff 	mov    -0x1558(%rbp),%rax
    96fb:	48 8b 0d de 9a 00 00 	mov    0x9ade(%rip),%rcx        # 131e0 <g_237>
    9702:	48 8b 1d df 9a 00 00 	mov    0x9adf(%rip),%rbx        # 131e8 <g_237+0x8>
    9709:	48 89 08             	mov    %rcx,(%rax)
    970c:	48 89 58 08          	mov    %rbx,0x8(%rax)
    9710:	48 8b 0d d9 9a 00 00 	mov    0x9ad9(%rip),%rcx        # 131f0 <g_237+0x10>
    9717:	48 8b 1d da 9a 00 00 	mov    0x9ada(%rip),%rbx        # 131f8 <g_237+0x18>
    971e:	48 89 48 10          	mov    %rcx,0x10(%rax)
    9722:	48 89 58 18          	mov    %rbx,0x18(%rax)
    9726:	48 8b 0d d3 9a 00 00 	mov    0x9ad3(%rip),%rcx        # 13200 <g_237+0x20>
    972d:	48 8b 1d d4 9a 00 00 	mov    0x9ad4(%rip),%rbx        # 13208 <g_237+0x28>
    9734:	48 89 48 20          	mov    %rcx,0x20(%rax)
    9738:	48 89 58 28          	mov    %rbx,0x28(%rax)
    973c:	c7 85 00 ea ff ff 01 	movl   $0x1,-0x1600(%rbp)
    9743:	00 00 00 
    9746:	e9 54 14 00 00       	jmpq   ab9f <func_69+0x3a92>
    974b:	48 8d 85 60 ed ff ff 	lea    -0x12a0(%rbp),%rax
    9752:	48 83 c0 28          	add    $0x28,%rax
    9756:	48 89 85 b0 ea ff ff 	mov    %rax,-0x1550(%rbp)
    975d:	48 8d 85 b0 ea ff ff 	lea    -0x1550(%rbp),%rax
    9764:	48 89 85 b0 ed ff ff 	mov    %rax,-0x1250(%rbp)
    976b:	48 8d 85 b0 ea ff ff 	lea    -0x1550(%rbp),%rax
    9772:	48 89 85 b8 ed ff ff 	mov    %rax,-0x1248(%rbp)
    9779:	48 8d 85 b0 ea ff ff 	lea    -0x1550(%rbp),%rax
    9780:	48 89 85 c0 ed ff ff 	mov    %rax,-0x1240(%rbp)
    9787:	48 8d 85 b0 ea ff ff 	lea    -0x1550(%rbp),%rax
    978e:	48 89 85 c8 ed ff ff 	mov    %rax,-0x1238(%rbp)
    9795:	48 8d 85 b0 ea ff ff 	lea    -0x1550(%rbp),%rax
    979c:	48 89 85 d0 ed ff ff 	mov    %rax,-0x1230(%rbp)
    97a3:	48 8d 85 b0 ea ff ff 	lea    -0x1550(%rbp),%rax
    97aa:	48 89 85 d8 ed ff ff 	mov    %rax,-0x1228(%rbp)
    97b1:	48 8d 85 b0 ea ff ff 	lea    -0x1550(%rbp),%rax
    97b8:	48 89 85 e0 ed ff ff 	mov    %rax,-0x1220(%rbp)
    97bf:	48 8d 85 b0 ea ff ff 	lea    -0x1550(%rbp),%rax
    97c6:	48 89 85 e8 ed ff ff 	mov    %rax,-0x1218(%rbp)
    97cd:	48 8d 85 b0 ea ff ff 	lea    -0x1550(%rbp),%rax
    97d4:	48 89 85 f0 ed ff ff 	mov    %rax,-0x1210(%rbp)
    97db:	48 c7 85 00 f4 ff ff 	movq   $0x0,-0xc00(%rbp)
    97e2:	00 00 00 00 
    97e6:	48 8d 85 b0 ed ff ff 	lea    -0x1250(%rbp),%rax
    97ed:	48 83 c0 10          	add    $0x10,%rax
    97f1:	48 89 85 08 f4 ff ff 	mov    %rax,-0xbf8(%rbp)
    97f8:	48 c7 85 10 f4 ff ff 	movq   $0x0,-0xbf0(%rbp)
    97ff:	00 00 00 00 
    9803:	48 8d 85 b0 ed ff ff 	lea    -0x1250(%rbp),%rax
    980a:	48 83 c0 38          	add    $0x38,%rax
    980e:	48 89 85 18 f4 ff ff 	mov    %rax,-0xbe8(%rbp)
    9815:	48 8d 85 b0 ed ff ff 	lea    -0x1250(%rbp),%rax
    981c:	48 83 c0 20          	add    $0x20,%rax
    9820:	48 89 85 20 f4 ff ff 	mov    %rax,-0xbe0(%rbp)
    9827:	48 8d 85 b0 ed ff ff 	lea    -0x1250(%rbp),%rax
    982e:	48 83 c0 10          	add    $0x10,%rax
    9832:	48 89 85 28 f4 ff ff 	mov    %rax,-0xbd8(%rbp)
    9839:	48 8d 85 b0 ed ff ff 	lea    -0x1250(%rbp),%rax
    9840:	48 83 c0 20          	add    $0x20,%rax
    9844:	48 89 85 30 f4 ff ff 	mov    %rax,-0xbd0(%rbp)
    984b:	48 8d 85 b0 ed ff ff 	lea    -0x1250(%rbp),%rax
    9852:	48 83 c0 20          	add    $0x20,%rax
    9856:	48 89 85 38 f4 ff ff 	mov    %rax,-0xbc8(%rbp)
    985d:	48 8d 85 b0 ed ff ff 	lea    -0x1250(%rbp),%rax
    9864:	48 83 c0 10          	add    $0x10,%rax
    9868:	48 89 85 40 f4 ff ff 	mov    %rax,-0xbc0(%rbp)
    986f:	48 8d 85 b0 ed ff ff 	lea    -0x1250(%rbp),%rax
    9876:	48 83 c0 20          	add    $0x20,%rax
    987a:	48 89 85 48 f4 ff ff 	mov    %rax,-0xbb8(%rbp)
    9881:	48 8d 85 b0 ed ff ff 	lea    -0x1250(%rbp),%rax
    9888:	48 83 c0 40          	add    $0x40,%rax
    988c:	48 89 85 50 f4 ff ff 	mov    %rax,-0xbb0(%rbp)
    9893:	48 8d 85 b0 ed ff ff 	lea    -0x1250(%rbp),%rax
    989a:	48 83 c0 20          	add    $0x20,%rax
    989e:	48 89 85 58 f4 ff ff 	mov    %rax,-0xba8(%rbp)
    98a5:	48 8d 85 b0 ed ff ff 	lea    -0x1250(%rbp),%rax
    98ac:	48 83 c0 20          	add    $0x20,%rax
    98b0:	48 89 85 60 f4 ff ff 	mov    %rax,-0xba0(%rbp)
    98b7:	48 8d 85 b0 ed ff ff 	lea    -0x1250(%rbp),%rax
    98be:	48 83 c0 38          	add    $0x38,%rax
    98c2:	48 89 85 68 f4 ff ff 	mov    %rax,-0xb98(%rbp)
    98c9:	48 c7 85 70 f4 ff ff 	movq   $0x0,-0xb90(%rbp)
    98d0:	00 00 00 00 
    98d4:	48 8d 85 b0 ed ff ff 	lea    -0x1250(%rbp),%rax
    98db:	48 83 c0 20          	add    $0x20,%rax
    98df:	48 89 85 78 f4 ff ff 	mov    %rax,-0xb88(%rbp)
    98e6:	48 8d 85 b0 ed ff ff 	lea    -0x1250(%rbp),%rax
    98ed:	48 83 c0 30          	add    $0x30,%rax
    98f1:	48 89 85 80 f4 ff ff 	mov    %rax,-0xb80(%rbp)
    98f8:	48 c7 85 88 f4 ff ff 	movq   $0x0,-0xb78(%rbp)
    98ff:	00 00 00 00 
    9903:	48 c7 85 90 f4 ff ff 	movq   $0x0,-0xb70(%rbp)
    990a:	00 00 00 00 
    990e:	48 8d 85 b0 ed ff ff 	lea    -0x1250(%rbp),%rax
    9915:	48 83 c0 30          	add    $0x30,%rax
    9919:	48 89 85 98 f4 ff ff 	mov    %rax,-0xb68(%rbp)
    9920:	48 8d 85 b0 ed ff ff 	lea    -0x1250(%rbp),%rax
    9927:	48 83 c0 20          	add    $0x20,%rax
    992b:	48 89 85 a0 f4 ff ff 	mov    %rax,-0xb60(%rbp)
    9932:	48 8d 85 b0 ed ff ff 	lea    -0x1250(%rbp),%rax
    9939:	48 83 c0 20          	add    $0x20,%rax
    993d:	48 89 85 a8 f4 ff ff 	mov    %rax,-0xb58(%rbp)
    9944:	48 8d 85 b0 ed ff ff 	lea    -0x1250(%rbp),%rax
    994b:	48 83 c0 40          	add    $0x40,%rax
    994f:	48 89 85 b0 f4 ff ff 	mov    %rax,-0xb50(%rbp)
    9956:	48 8d 85 b0 ed ff ff 	lea    -0x1250(%rbp),%rax
    995d:	48 83 c0 20          	add    $0x20,%rax
    9961:	48 89 85 b8 f4 ff ff 	mov    %rax,-0xb48(%rbp)
    9968:	48 8d 85 b0 ed ff ff 	lea    -0x1250(%rbp),%rax
    996f:	48 83 c0 10          	add    $0x10,%rax
    9973:	48 89 85 c0 f4 ff ff 	mov    %rax,-0xb40(%rbp)
    997a:	48 8d 85 b0 ed ff ff 	lea    -0x1250(%rbp),%rax
    9981:	48 83 c0 20          	add    $0x20,%rax
    9985:	48 89 85 c8 f4 ff ff 	mov    %rax,-0xb38(%rbp)
    998c:	48 8d 85 b0 ed ff ff 	lea    -0x1250(%rbp),%rax
    9993:	48 83 c0 20          	add    $0x20,%rax
    9997:	48 89 85 d0 f4 ff ff 	mov    %rax,-0xb30(%rbp)
    999e:	48 8d 85 b0 ed ff ff 	lea    -0x1250(%rbp),%rax
    99a5:	48 83 c0 28          	add    $0x28,%rax
    99a9:	48 89 85 d8 f4 ff ff 	mov    %rax,-0xb28(%rbp)
    99b0:	48 8d 85 b0 ed ff ff 	lea    -0x1250(%rbp),%rax
    99b7:	48 83 c0 20          	add    $0x20,%rax
    99bb:	48 89 85 e0 f4 ff ff 	mov    %rax,-0xb20(%rbp)
    99c2:	48 8d 85 b0 ed ff ff 	lea    -0x1250(%rbp),%rax
    99c9:	48 83 c0 28          	add    $0x28,%rax
    99cd:	48 89 85 e8 f4 ff ff 	mov    %rax,-0xb18(%rbp)
    99d4:	48 c7 85 f0 f4 ff ff 	movq   $0x0,-0xb10(%rbp)
    99db:	00 00 00 00 
    99df:	48 8d 85 b0 ed ff ff 	lea    -0x1250(%rbp),%rax
    99e6:	48 83 c0 28          	add    $0x28,%rax
    99ea:	48 89 85 f8 f4 ff ff 	mov    %rax,-0xb08(%rbp)
    99f1:	48 c7 85 00 f5 ff ff 	movq   $0x0,-0xb00(%rbp)
    99f8:	00 00 00 00 
    99fc:	48 8d 85 b0 ed ff ff 	lea    -0x1250(%rbp),%rax
    9a03:	48 83 c0 20          	add    $0x20,%rax
    9a07:	48 89 85 08 f5 ff ff 	mov    %rax,-0xaf8(%rbp)
    9a0e:	48 8d 85 b0 ed ff ff 	lea    -0x1250(%rbp),%rax
    9a15:	48 83 c0 38          	add    $0x38,%rax
    9a19:	48 89 85 10 f5 ff ff 	mov    %rax,-0xaf0(%rbp)
    9a20:	48 8d 85 b0 ed ff ff 	lea    -0x1250(%rbp),%rax
    9a27:	48 83 c0 20          	add    $0x20,%rax
    9a2b:	48 89 85 18 f5 ff ff 	mov    %rax,-0xae8(%rbp)
    9a32:	48 c7 85 20 f5 ff ff 	movq   $0x0,-0xae0(%rbp)
    9a39:	00 00 00 00 
    9a3d:	48 8d 85 b0 ed ff ff 	lea    -0x1250(%rbp),%rax
    9a44:	48 83 c0 20          	add    $0x20,%rax
    9a48:	48 89 85 28 f5 ff ff 	mov    %rax,-0xad8(%rbp)
    9a4f:	48 8d 85 b0 ed ff ff 	lea    -0x1250(%rbp),%rax
    9a56:	48 83 c0 28          	add    $0x28,%rax
    9a5a:	48 89 85 30 f5 ff ff 	mov    %rax,-0xad0(%rbp)
    9a61:	48 8d 85 b0 ed ff ff 	lea    -0x1250(%rbp),%rax
    9a68:	48 83 c0 30          	add    $0x30,%rax
    9a6c:	48 89 85 38 f5 ff ff 	mov    %rax,-0xac8(%rbp)
    9a73:	48 8d 85 b0 ed ff ff 	lea    -0x1250(%rbp),%rax
    9a7a:	48 83 c0 38          	add    $0x38,%rax
    9a7e:	48 89 85 40 f5 ff ff 	mov    %rax,-0xac0(%rbp)
    9a85:	48 c7 85 48 f5 ff ff 	movq   $0x0,-0xab8(%rbp)
    9a8c:	00 00 00 00 
    9a90:	48 8d 85 b0 ed ff ff 	lea    -0x1250(%rbp),%rax
    9a97:	48 83 c0 20          	add    $0x20,%rax
    9a9b:	48 89 85 50 f5 ff ff 	mov    %rax,-0xab0(%rbp)
    9aa2:	48 8d 85 b0 ed ff ff 	lea    -0x1250(%rbp),%rax
    9aa9:	48 83 c0 20          	add    $0x20,%rax
    9aad:	48 89 85 58 f5 ff ff 	mov    %rax,-0xaa8(%rbp)
    9ab4:	48 8d 85 b0 ed ff ff 	lea    -0x1250(%rbp),%rax
    9abb:	48 83 c0 38          	add    $0x38,%rax
    9abf:	48 89 85 60 f5 ff ff 	mov    %rax,-0xaa0(%rbp)
    9ac6:	48 8d 85 b0 ed ff ff 	lea    -0x1250(%rbp),%rax
    9acd:	48 83 c0 38          	add    $0x38,%rax
    9ad1:	48 89 85 68 f5 ff ff 	mov    %rax,-0xa98(%rbp)
    9ad8:	48 8d 85 b0 ed ff ff 	lea    -0x1250(%rbp),%rax
    9adf:	48 83 c0 28          	add    $0x28,%rax
    9ae3:	48 89 85 70 f5 ff ff 	mov    %rax,-0xa90(%rbp)
    9aea:	48 8d 85 b0 ed ff ff 	lea    -0x1250(%rbp),%rax
    9af1:	48 83 c0 20          	add    $0x20,%rax
    9af5:	48 89 85 78 f5 ff ff 	mov    %rax,-0xa88(%rbp)
    9afc:	48 c7 85 80 f5 ff ff 	movq   $0x0,-0xa80(%rbp)
    9b03:	00 00 00 00 
    9b07:	48 8d 85 b0 ed ff ff 	lea    -0x1250(%rbp),%rax
    9b0e:	48 83 c0 20          	add    $0x20,%rax
    9b12:	48 89 85 88 f5 ff ff 	mov    %rax,-0xa78(%rbp)
    9b19:	48 8d 85 b0 ed ff ff 	lea    -0x1250(%rbp),%rax
    9b20:	48 83 c0 38          	add    $0x38,%rax
    9b24:	48 89 85 90 f5 ff ff 	mov    %rax,-0xa70(%rbp)
    9b2b:	48 8d 85 b0 ed ff ff 	lea    -0x1250(%rbp),%rax
    9b32:	48 83 c0 20          	add    $0x20,%rax
    9b36:	48 89 85 98 f5 ff ff 	mov    %rax,-0xa68(%rbp)
    9b3d:	48 c7 85 a0 f5 ff ff 	movq   $0x0,-0xa60(%rbp)
    9b44:	00 00 00 00 
    9b48:	48 8d 85 b0 ed ff ff 	lea    -0x1250(%rbp),%rax
    9b4f:	48 83 c0 10          	add    $0x10,%rax
    9b53:	48 89 85 a8 f5 ff ff 	mov    %rax,-0xa58(%rbp)
    9b5a:	48 c7 85 b0 f5 ff ff 	movq   $0x0,-0xa50(%rbp)
    9b61:	00 00 00 00 
    9b65:	48 8d 85 b0 ed ff ff 	lea    -0x1250(%rbp),%rax
    9b6c:	48 83 c0 38          	add    $0x38,%rax
    9b70:	48 89 85 b8 f5 ff ff 	mov    %rax,-0xa48(%rbp)
    9b77:	48 8d 85 b0 ed ff ff 	lea    -0x1250(%rbp),%rax
    9b7e:	48 83 c0 20          	add    $0x20,%rax
    9b82:	48 89 85 c0 f5 ff ff 	mov    %rax,-0xa40(%rbp)
    9b89:	48 8d 85 b0 ed ff ff 	lea    -0x1250(%rbp),%rax
    9b90:	48 83 c0 10          	add    $0x10,%rax
    9b94:	48 89 85 c8 f5 ff ff 	mov    %rax,-0xa38(%rbp)
    9b9b:	48 8d 85 b0 ed ff ff 	lea    -0x1250(%rbp),%rax
    9ba2:	48 83 c0 20          	add    $0x20,%rax
    9ba6:	48 89 85 d0 f5 ff ff 	mov    %rax,-0xa30(%rbp)
    9bad:	48 8d 85 b0 ed ff ff 	lea    -0x1250(%rbp),%rax
    9bb4:	48 83 c0 20          	add    $0x20,%rax
    9bb8:	48 89 85 d8 f5 ff ff 	mov    %rax,-0xa28(%rbp)
    9bbf:	48 8d 85 b0 ed ff ff 	lea    -0x1250(%rbp),%rax
    9bc6:	48 83 c0 10          	add    $0x10,%rax
    9bca:	48 89 85 e0 f5 ff ff 	mov    %rax,-0xa20(%rbp)
    9bd1:	48 8d 85 b0 ed ff ff 	lea    -0x1250(%rbp),%rax
    9bd8:	48 83 c0 20          	add    $0x20,%rax
    9bdc:	48 89 85 e8 f5 ff ff 	mov    %rax,-0xa18(%rbp)
    9be3:	48 8d 85 b0 ed ff ff 	lea    -0x1250(%rbp),%rax
    9bea:	48 83 c0 40          	add    $0x40,%rax
    9bee:	48 89 85 f0 f5 ff ff 	mov    %rax,-0xa10(%rbp)
    9bf5:	48 8d 85 b0 ed ff ff 	lea    -0x1250(%rbp),%rax
    9bfc:	48 83 c0 20          	add    $0x20,%rax
    9c00:	48 89 85 f8 f5 ff ff 	mov    %rax,-0xa08(%rbp)
    9c07:	48 8d 85 b0 ed ff ff 	lea    -0x1250(%rbp),%rax
    9c0e:	48 83 c0 20          	add    $0x20,%rax
    9c12:	48 89 85 00 f6 ff ff 	mov    %rax,-0xa00(%rbp)
    9c19:	48 8d 85 b0 ed ff ff 	lea    -0x1250(%rbp),%rax
    9c20:	48 83 c0 38          	add    $0x38,%rax
    9c24:	48 89 85 08 f6 ff ff 	mov    %rax,-0x9f8(%rbp)
    9c2b:	48 c7 85 10 f6 ff ff 	movq   $0x0,-0x9f0(%rbp)
    9c32:	00 00 00 00 
    9c36:	48 8d 85 b0 ed ff ff 	lea    -0x1250(%rbp),%rax
    9c3d:	48 83 c0 20          	add    $0x20,%rax
    9c41:	48 89 85 18 f6 ff ff 	mov    %rax,-0x9e8(%rbp)
    9c48:	48 8d 85 b0 ed ff ff 	lea    -0x1250(%rbp),%rax
    9c4f:	48 83 c0 30          	add    $0x30,%rax
    9c53:	48 89 85 20 f6 ff ff 	mov    %rax,-0x9e0(%rbp)
    9c5a:	48 c7 85 28 f6 ff ff 	movq   $0x0,-0x9d8(%rbp)
    9c61:	00 00 00 00 
    9c65:	48 c7 85 30 f6 ff ff 	movq   $0x0,-0x9d0(%rbp)
    9c6c:	00 00 00 00 
    9c70:	48 8d 85 b0 ed ff ff 	lea    -0x1250(%rbp),%rax
    9c77:	48 83 c0 30          	add    $0x30,%rax
    9c7b:	48 89 85 38 f6 ff ff 	mov    %rax,-0x9c8(%rbp)
    9c82:	48 8d 85 b0 ed ff ff 	lea    -0x1250(%rbp),%rax
    9c89:	48 83 c0 20          	add    $0x20,%rax
    9c8d:	48 89 85 40 f6 ff ff 	mov    %rax,-0x9c0(%rbp)
    9c94:	48 8d 85 b0 ed ff ff 	lea    -0x1250(%rbp),%rax
    9c9b:	48 83 c0 20          	add    $0x20,%rax
    9c9f:	48 89 85 48 f6 ff ff 	mov    %rax,-0x9b8(%rbp)
    9ca6:	48 8d 85 b0 ed ff ff 	lea    -0x1250(%rbp),%rax
    9cad:	48 83 c0 40          	add    $0x40,%rax
    9cb1:	48 89 85 50 f6 ff ff 	mov    %rax,-0x9b0(%rbp)
    9cb8:	48 8d 85 b0 ed ff ff 	lea    -0x1250(%rbp),%rax
    9cbf:	48 83 c0 20          	add    $0x20,%rax
    9cc3:	48 89 85 58 f6 ff ff 	mov    %rax,-0x9a8(%rbp)
    9cca:	48 8d 85 b0 ed ff ff 	lea    -0x1250(%rbp),%rax
    9cd1:	48 83 c0 10          	add    $0x10,%rax
    9cd5:	48 89 85 60 f6 ff ff 	mov    %rax,-0x9a0(%rbp)
    9cdc:	48 8d 85 b0 ed ff ff 	lea    -0x1250(%rbp),%rax
    9ce3:	48 83 c0 20          	add    $0x20,%rax
    9ce7:	48 89 85 68 f6 ff ff 	mov    %rax,-0x998(%rbp)
    9cee:	48 8d 85 b0 ed ff ff 	lea    -0x1250(%rbp),%rax
    9cf5:	48 83 c0 20          	add    $0x20,%rax
    9cf9:	48 89 85 70 f6 ff ff 	mov    %rax,-0x990(%rbp)
    9d00:	48 8d 85 b0 ed ff ff 	lea    -0x1250(%rbp),%rax
    9d07:	48 83 c0 28          	add    $0x28,%rax
    9d0b:	48 89 85 78 f6 ff ff 	mov    %rax,-0x988(%rbp)
    9d12:	48 8d 85 b0 ed ff ff 	lea    -0x1250(%rbp),%rax
    9d19:	48 83 c0 20          	add    $0x20,%rax
    9d1d:	48 89 85 80 f6 ff ff 	mov    %rax,-0x980(%rbp)
    9d24:	48 8d 85 b0 ed ff ff 	lea    -0x1250(%rbp),%rax
    9d2b:	48 83 c0 28          	add    $0x28,%rax
    9d2f:	48 89 85 88 f6 ff ff 	mov    %rax,-0x978(%rbp)
    9d36:	48 c7 85 90 f6 ff ff 	movq   $0x0,-0x970(%rbp)
    9d3d:	00 00 00 00 
    9d41:	48 8d 85 b0 ed ff ff 	lea    -0x1250(%rbp),%rax
    9d48:	48 83 c0 28          	add    $0x28,%rax
    9d4c:	48 89 85 98 f6 ff ff 	mov    %rax,-0x968(%rbp)
    9d53:	48 c7 85 a0 f6 ff ff 	movq   $0x0,-0x960(%rbp)
    9d5a:	00 00 00 00 
    9d5e:	48 8d 85 b0 ed ff ff 	lea    -0x1250(%rbp),%rax
    9d65:	48 83 c0 20          	add    $0x20,%rax
    9d69:	48 89 85 a8 f6 ff ff 	mov    %rax,-0x958(%rbp)
    9d70:	48 8d 85 b0 ed ff ff 	lea    -0x1250(%rbp),%rax
    9d77:	48 83 c0 38          	add    $0x38,%rax
    9d7b:	48 89 85 b0 f6 ff ff 	mov    %rax,-0x950(%rbp)
    9d82:	48 8d 85 b0 ed ff ff 	lea    -0x1250(%rbp),%rax
    9d89:	48 83 c0 20          	add    $0x20,%rax
    9d8d:	48 89 85 b8 f6 ff ff 	mov    %rax,-0x948(%rbp)
    9d94:	48 c7 85 c0 f6 ff ff 	movq   $0x0,-0x940(%rbp)
    9d9b:	00 00 00 00 
    9d9f:	48 8d 85 b0 ed ff ff 	lea    -0x1250(%rbp),%rax
    9da6:	48 83 c0 20          	add    $0x20,%rax
    9daa:	48 89 85 c8 f6 ff ff 	mov    %rax,-0x938(%rbp)
    9db1:	48 8d 85 b0 ed ff ff 	lea    -0x1250(%rbp),%rax
    9db8:	48 83 c0 28          	add    $0x28,%rax
    9dbc:	48 89 85 d0 f6 ff ff 	mov    %rax,-0x930(%rbp)
    9dc3:	48 8d 85 b0 ed ff ff 	lea    -0x1250(%rbp),%rax
    9dca:	48 83 c0 30          	add    $0x30,%rax
    9dce:	48 89 85 d8 f6 ff ff 	mov    %rax,-0x928(%rbp)
    9dd5:	48 8d 85 b0 ed ff ff 	lea    -0x1250(%rbp),%rax
    9ddc:	48 83 c0 38          	add    $0x38,%rax
    9de0:	48 89 85 e0 f6 ff ff 	mov    %rax,-0x920(%rbp)
    9de7:	48 c7 85 e8 f6 ff ff 	movq   $0x0,-0x918(%rbp)
    9dee:	00 00 00 00 
    9df2:	48 8d 85 b0 ed ff ff 	lea    -0x1250(%rbp),%rax
    9df9:	48 83 c0 20          	add    $0x20,%rax
    9dfd:	48 89 85 f0 f6 ff ff 	mov    %rax,-0x910(%rbp)
    9e04:	48 8d 85 b0 ed ff ff 	lea    -0x1250(%rbp),%rax
    9e0b:	48 83 c0 20          	add    $0x20,%rax
    9e0f:	48 89 85 f8 f6 ff ff 	mov    %rax,-0x908(%rbp)
    9e16:	48 8d 85 b0 ed ff ff 	lea    -0x1250(%rbp),%rax
    9e1d:	48 83 c0 38          	add    $0x38,%rax
    9e21:	48 89 85 00 f7 ff ff 	mov    %rax,-0x900(%rbp)
    9e28:	48 8d 85 b0 ed ff ff 	lea    -0x1250(%rbp),%rax
    9e2f:	48 83 c0 38          	add    $0x38,%rax
    9e33:	48 89 85 08 f7 ff ff 	mov    %rax,-0x8f8(%rbp)
    9e3a:	48 8d 85 b0 ed ff ff 	lea    -0x1250(%rbp),%rax
    9e41:	48 83 c0 28          	add    $0x28,%rax
    9e45:	48 89 85 10 f7 ff ff 	mov    %rax,-0x8f0(%rbp)
    9e4c:	48 8d 85 b0 ed ff ff 	lea    -0x1250(%rbp),%rax
    9e53:	48 83 c0 20          	add    $0x20,%rax
    9e57:	48 89 85 18 f7 ff ff 	mov    %rax,-0x8e8(%rbp)
    9e5e:	48 c7 85 20 f7 ff ff 	movq   $0x0,-0x8e0(%rbp)
    9e65:	00 00 00 00 
    9e69:	48 8d 85 b0 ed ff ff 	lea    -0x1250(%rbp),%rax
    9e70:	48 83 c0 20          	add    $0x20,%rax
    9e74:	48 89 85 28 f7 ff ff 	mov    %rax,-0x8d8(%rbp)
    9e7b:	48 8d 85 b0 ed ff ff 	lea    -0x1250(%rbp),%rax
    9e82:	48 83 c0 38          	add    $0x38,%rax
    9e86:	48 89 85 30 f7 ff ff 	mov    %rax,-0x8d0(%rbp)
    9e8d:	48 8d 85 b0 ed ff ff 	lea    -0x1250(%rbp),%rax
    9e94:	48 83 c0 20          	add    $0x20,%rax
    9e98:	48 89 85 38 f7 ff ff 	mov    %rax,-0x8c8(%rbp)
    9e9f:	48 c7 85 40 f7 ff ff 	movq   $0x0,-0x8c0(%rbp)
    9ea6:	00 00 00 00 
    9eaa:	48 8d 85 b0 ed ff ff 	lea    -0x1250(%rbp),%rax
    9eb1:	48 83 c0 10          	add    $0x10,%rax
    9eb5:	48 89 85 48 f7 ff ff 	mov    %rax,-0x8b8(%rbp)
    9ebc:	48 c7 85 50 f7 ff ff 	movq   $0x0,-0x8b0(%rbp)
    9ec3:	00 00 00 00 
    9ec7:	48 8d 85 b0 ed ff ff 	lea    -0x1250(%rbp),%rax
    9ece:	48 83 c0 38          	add    $0x38,%rax
    9ed2:	48 89 85 58 f7 ff ff 	mov    %rax,-0x8a8(%rbp)
    9ed9:	48 8d 85 b0 ed ff ff 	lea    -0x1250(%rbp),%rax
    9ee0:	48 83 c0 20          	add    $0x20,%rax
    9ee4:	48 89 85 60 f7 ff ff 	mov    %rax,-0x8a0(%rbp)
    9eeb:	48 8d 85 b0 ed ff ff 	lea    -0x1250(%rbp),%rax
    9ef2:	48 83 c0 10          	add    $0x10,%rax
    9ef6:	48 89 85 68 f7 ff ff 	mov    %rax,-0x898(%rbp)
    9efd:	48 8d 85 b0 ed ff ff 	lea    -0x1250(%rbp),%rax
    9f04:	48 83 c0 20          	add    $0x20,%rax
    9f08:	48 89 85 70 f7 ff ff 	mov    %rax,-0x890(%rbp)
    9f0f:	48 8d 85 b0 ed ff ff 	lea    -0x1250(%rbp),%rax
    9f16:	48 83 c0 20          	add    $0x20,%rax
    9f1a:	48 89 85 78 f7 ff ff 	mov    %rax,-0x888(%rbp)
    9f21:	48 8d 85 b0 ed ff ff 	lea    -0x1250(%rbp),%rax
    9f28:	48 83 c0 10          	add    $0x10,%rax
    9f2c:	48 89 85 80 f7 ff ff 	mov    %rax,-0x880(%rbp)
    9f33:	48 8d 85 b0 ed ff ff 	lea    -0x1250(%rbp),%rax
    9f3a:	48 83 c0 20          	add    $0x20,%rax
    9f3e:	48 89 85 88 f7 ff ff 	mov    %rax,-0x878(%rbp)
    9f45:	48 8d 85 b0 ed ff ff 	lea    -0x1250(%rbp),%rax
    9f4c:	48 83 c0 40          	add    $0x40,%rax
    9f50:	48 89 85 90 f7 ff ff 	mov    %rax,-0x870(%rbp)
    9f57:	48 8d 85 b0 ed ff ff 	lea    -0x1250(%rbp),%rax
    9f5e:	48 83 c0 20          	add    $0x20,%rax
    9f62:	48 89 85 98 f7 ff ff 	mov    %rax,-0x868(%rbp)
    9f69:	48 8d 85 b0 ed ff ff 	lea    -0x1250(%rbp),%rax
    9f70:	48 83 c0 20          	add    $0x20,%rax
    9f74:	48 89 85 a0 f7 ff ff 	mov    %rax,-0x860(%rbp)
    9f7b:	48 8d 85 b0 ed ff ff 	lea    -0x1250(%rbp),%rax
    9f82:	48 83 c0 38          	add    $0x38,%rax
    9f86:	48 89 85 a8 f7 ff ff 	mov    %rax,-0x858(%rbp)
    9f8d:	48 c7 85 b0 f7 ff ff 	movq   $0x0,-0x850(%rbp)
    9f94:	00 00 00 00 
    9f98:	48 8d 85 b0 ed ff ff 	lea    -0x1250(%rbp),%rax
    9f9f:	48 83 c0 20          	add    $0x20,%rax
    9fa3:	48 89 85 b8 f7 ff ff 	mov    %rax,-0x848(%rbp)
    9faa:	48 8d 85 a0 ee ff ff 	lea    -0x1160(%rbp),%rax
    9fb1:	48 05 60 01 00 00    	add    $0x160,%rax
    9fb7:	48 89 85 e0 eb ff ff 	mov    %rax,-0x1420(%rbp)
    9fbe:	48 8d 05 4b c0 00 00 	lea    0xc04b(%rip),%rax        # 16010 <g_271>
    9fc5:	48 89 85 e8 eb ff ff 	mov    %rax,-0x1418(%rbp)
    9fcc:	c7 85 68 ea ff ff 55 	movl   $0xfc117155,-0x1598(%rbp)
    9fd3:	71 11 fc 
    9fd6:	c7 85 6c ea ff ff fa 	movl   $0xfffffffa,-0x1594(%rbp)
    9fdd:	ff ff ff 
    9fe0:	c7 85 70 ea ff ff 01 	movl   $0x1,-0x1590(%rbp)
    9fe7:	00 00 00 
    9fea:	c7 85 08 ea ff ff 33 	movl   $0x9c614733,-0x15f8(%rbp)
    9ff1:	47 61 9c 
    9ff4:	48 b8 73 95 6a 10 e9 	movabs $0x6f9e77e9106a9573,%rax
    9ffb:	77 9e 6f 
    9ffe:	48 89 85 00 ee ff ff 	mov    %rax,-0x1200(%rbp)
    a005:	48 89 85 08 ee ff ff 	mov    %rax,-0x11f8(%rbp)
    a00c:	48 89 85 10 ee ff ff 	mov    %rax,-0x11f0(%rbp)
    a013:	48 bb 43 5d 02 8a 5a 	movabs $0x54096b5a8a025d43,%rbx
    a01a:	6b 09 54 
    a01d:	48 89 9d 18 ee ff ff 	mov    %rbx,-0x11e8(%rbp)
    a024:	48 89 9d 20 ee ff ff 	mov    %rbx,-0x11e0(%rbp)
    a02b:	48 89 9d 28 ee ff ff 	mov    %rbx,-0x11d8(%rbp)
    a032:	48 89 85 30 ee ff ff 	mov    %rax,-0x11d0(%rbp)
    a039:	48 89 85 38 ee ff ff 	mov    %rax,-0x11c8(%rbp)
    a040:	48 89 85 40 ee ff ff 	mov    %rax,-0x11c0(%rbp)
    a047:	66 c7 85 e4 e9 ff ff 	movw   $0xfffd,-0x161c(%rbp)
    a04e:	fd ff 
    a050:	c7 85 74 ea ff ff 07 	movl   $0x7,-0x158c(%rbp)
    a057:	00 00 00 
    a05a:	c7 85 0c ea ff ff e8 	movl   $0x19f589e8,-0x15f4(%rbp)
    a061:	89 f5 19 
    a064:	c7 85 50 ee ff ff 06 	movl   $0x6,-0x11b0(%rbp)
    a06b:	00 00 00 
    a06e:	c7 85 54 ee ff ff 06 	movl   $0x6,-0x11ac(%rbp)
    a075:	00 00 00 
    a078:	c7 85 58 ee ff ff 06 	movl   $0x6,-0x11a8(%rbp)
    a07f:	00 00 00 
    a082:	c7 85 5c ee ff ff 06 	movl   $0x6,-0x11a4(%rbp)
    a089:	00 00 00 
    a08c:	c7 85 60 ee ff ff 06 	movl   $0x6,-0x11a0(%rbp)
    a093:	00 00 00 
    a096:	c7 85 64 ee ff ff 06 	movl   $0x6,-0x119c(%rbp)
    a09d:	00 00 00 
    a0a0:	c7 85 68 ee ff ff 06 	movl   $0x6,-0x1198(%rbp)
    a0a7:	00 00 00 
    a0aa:	c7 85 6c ee ff ff 06 	movl   $0x6,-0x1194(%rbp)
    a0b1:	00 00 00 
    a0b4:	c7 85 70 ee ff ff 06 	movl   $0x6,-0x1190(%rbp)
    a0bb:	00 00 00 
    a0be:	c7 85 74 ee ff ff 06 	movl   $0x6,-0x118c(%rbp)
    a0c5:	00 00 00 
    a0c8:	c7 85 78 ee ff ff 06 	movl   $0x6,-0x1188(%rbp)
    a0cf:	00 00 00 
    a0d2:	c7 85 7c ee ff ff 06 	movl   $0x6,-0x1184(%rbp)
    a0d9:	00 00 00 
    a0dc:	c7 85 80 ee ff ff 06 	movl   $0x6,-0x1180(%rbp)
    a0e3:	00 00 00 
    a0e6:	c7 85 84 ee ff ff 06 	movl   $0x6,-0x117c(%rbp)
    a0ed:	00 00 00 
    a0f0:	c7 85 88 ee ff ff 06 	movl   $0x6,-0x1178(%rbp)
    a0f7:	00 00 00 
    a0fa:	c7 85 8c ee ff ff 06 	movl   $0x6,-0x1174(%rbp)
    a101:	00 00 00 
    a104:	c7 85 90 ee ff ff 06 	movl   $0x6,-0x1170(%rbp)
    a10b:	00 00 00 
    a10e:	c7 85 94 ee ff ff 06 	movl   $0x6,-0x116c(%rbp)
    a115:	00 00 00 
    a118:	c7 85 98 ee ff ff 06 	movl   $0x6,-0x1168(%rbp)
    a11f:	00 00 00 
    a122:	c7 85 9c ee ff ff 06 	movl   $0x6,-0x1164(%rbp)
    a129:	00 00 00 
    a12c:	c7 85 78 ea ff ff a9 	movl   $0xb0db79a9,-0x1588(%rbp)
    a133:	79 db b0 
    a136:	66 c7 85 e6 e9 ff ff 	movw   $0xc2ac,-0x161a(%rbp)
    a13d:	ac c2 
    a13f:	c7 85 1c ea ff ff 00 	movl   $0x0,-0x15e4(%rbp)
    a146:	00 00 00 
    a149:	eb 1a                	jmp    a165 <func_69+0x3058>
    a14b:	8b 85 1c ea ff ff    	mov    -0x15e4(%rbp),%eax
    a151:	48 98                	cltq   
    a153:	c7 84 85 c8 ec ff ff 	movl   $0x9cbfe1e8,-0x1338(%rbp,%rax,4)
    a15a:	e8 e1 bf 9c 
    a15e:	83 85 1c ea ff ff 01 	addl   $0x1,-0x15e4(%rbp)
    a165:	83 bd 1c ea ff ff 01 	cmpl   $0x1,-0x15e4(%rbp)
    a16c:	7e dd                	jle    a14b <func_69+0x303e>
    a16e:	8b 85 c4 e9 ff ff    	mov    -0x163c(%rbp),%eax
    a174:	89 c3                	mov    %eax,%ebx
    a176:	48 8b 8d b8 f7 ff ff 	mov    -0x848(%rbp),%rcx
    a17d:	48 8b 95 00 f0 ff ff 	mov    -0x1000(%rbp),%rdx
    a184:	48 8b 85 e0 eb ff ff 	mov    -0x1420(%rbp),%rax
    a18b:	48 89 10             	mov    %rdx,(%rax)
    a18e:	48 8b 85 e0 eb ff ff 	mov    -0x1420(%rbp),%rax
    a195:	48 8b 00             	mov    (%rax),%rax
    a198:	48 39 c1             	cmp    %rax,%rcx
    a19b:	0f 95 c0             	setne  %al
    a19e:	0f b6 d0             	movzbl %al,%edx
    a1a1:	8b 85 c4 e9 ff ff    	mov    -0x163c(%rbp),%eax
    a1a7:	89 d6                	mov    %edx,%esi
    a1a9:	89 c7                	mov    %eax,%edi
    a1ab:	e8 08 9d ff ff       	callq  3eb8 <safe_add_func_uint32_t_u_u>
    a1b0:	89 c6                	mov    %eax,%esi
    a1b2:	48 8b 85 e8 eb ff ff 	mov    -0x1418(%rbp),%rax
    a1b9:	48 8b 00             	mov    (%rax),%rax
    a1bc:	48 8d 48 01          	lea    0x1(%rax),%rcx
    a1c0:	48 8b 95 e8 eb ff ff 	mov    -0x1418(%rbp),%rdx
    a1c7:	48 89 0a             	mov    %rcx,(%rdx)
    a1ca:	48 09 f0             	or     %rsi,%rax
    a1cd:	48 39 c3             	cmp    %rax,%rbx
    a1d0:	0f 85 8e 06 00 00    	jne    a864 <func_69+0x3757>
    a1d6:	48 8d 05 53 8f 00 00 	lea    0x8f53(%rip),%rax        # 13130 <g_175+0x10>
    a1dd:	48 89 85 00 ec ff ff 	mov    %rax,-0x1400(%rbp)
    a1e4:	48 8d 05 45 8f 00 00 	lea    0x8f45(%rip),%rax        # 13130 <g_175+0x10>
    a1eb:	48 89 85 08 ec ff ff 	mov    %rax,-0x13f8(%rbp)
    a1f2:	48 8d 85 f8 e9 ff ff 	lea    -0x1608(%rbp),%rax
    a1f9:	48 89 85 10 ec ff ff 	mov    %rax,-0x13f0(%rbp)
    a200:	48 8d 85 f0 e9 ff ff 	lea    -0x1610(%rbp),%rax
    a207:	48 89 85 18 ec ff ff 	mov    %rax,-0x13e8(%rbp)
    a20e:	48 8d 85 04 ea ff ff 	lea    -0x15fc(%rbp),%rax
    a215:	48 89 85 20 ec ff ff 	mov    %rax,-0x13e0(%rbp)
    a21c:	48 c7 85 28 ec ff ff 	movq   $0x0,-0x13d8(%rbp)
    a223:	00 00 00 00 
    a227:	48 8d 85 e8 e9 ff ff 	lea    -0x1618(%rbp),%rax
    a22e:	48 89 85 30 ec ff ff 	mov    %rax,-0x13d0(%rbp)
    a235:	c7 85 a0 ea ff ff 00 	movl   $0x0,-0x1560(%rbp)
    a23c:	00 00 00 
    a23f:	48 8d 85 a0 ea ff ff 	lea    -0x1560(%rbp),%rax
    a246:	48 89 85 38 ec ff ff 	mov    %rax,-0x13c8(%rbp)
    a24d:	48 8d 05 3c 0a 01 00 	lea    0x10a3c(%rip),%rax        # 1ac90 <g_49>
    a254:	48 89 85 40 ec ff ff 	mov    %rax,-0x13c0(%rbp)
    a25b:	48 8d 05 ce 8e 00 00 	lea    0x8ece(%rip),%rax        # 13130 <g_175+0x10>
    a262:	48 89 85 48 ec ff ff 	mov    %rax,-0x13b8(%rbp)
    a269:	48 8d 85 a0 ea ff ff 	lea    -0x1560(%rbp),%rax
    a270:	48 89 85 c0 f7 ff ff 	mov    %rax,-0x840(%rbp)
    a277:	48 c7 85 c8 f7 ff ff 	movq   $0x0,-0x838(%rbp)
    a27e:	00 00 00 00 
    a282:	48 c7 85 d0 f7 ff ff 	movq   $0x0,-0x830(%rbp)
    a289:	00 00 00 00 
    a28d:	48 8d 85 a0 ea ff ff 	lea    -0x1560(%rbp),%rax
    a294:	48 89 85 d8 f7 ff ff 	mov    %rax,-0x828(%rbp)
    a29b:	48 c7 85 e0 f7 ff ff 	movq   $0x0,-0x820(%rbp)
    a2a2:	00 00 00 00 
    a2a6:	48 c7 85 e8 f7 ff ff 	movq   $0x0,-0x818(%rbp)
    a2ad:	00 00 00 00 
    a2b1:	48 8d 85 a0 ea ff ff 	lea    -0x1560(%rbp),%rax
    a2b8:	48 89 85 f0 f7 ff ff 	mov    %rax,-0x810(%rbp)
    a2bf:	48 8d 85 f0 e9 ff ff 	lea    -0x1610(%rbp),%rax
    a2c6:	48 89 85 f8 f7 ff ff 	mov    %rax,-0x808(%rbp)
    a2cd:	48 8d 05 f0 8d 00 00 	lea    0x8df0(%rip),%rax        # 130c4 <g_35>
    a2d4:	48 89 85 00 f8 ff ff 	mov    %rax,-0x800(%rbp)
    a2db:	48 8d 85 f0 e9 ff ff 	lea    -0x1610(%rbp),%rax
    a2e2:	48 89 85 08 f8 ff ff 	mov    %rax,-0x7f8(%rbp)
    a2e9:	48 8d 85 f0 e9 ff ff 	lea    -0x1610(%rbp),%rax
    a2f0:	48 89 85 10 f8 ff ff 	mov    %rax,-0x7f0(%rbp)
    a2f7:	48 8d 05 c6 8d 00 00 	lea    0x8dc6(%rip),%rax        # 130c4 <g_35>
    a2fe:	48 89 85 18 f8 ff ff 	mov    %rax,-0x7e8(%rbp)
    a305:	48 8d 85 f0 e9 ff ff 	lea    -0x1610(%rbp),%rax
    a30c:	48 89 85 20 f8 ff ff 	mov    %rax,-0x7e0(%rbp)
    a313:	48 8d 85 f0 e9 ff ff 	lea    -0x1610(%rbp),%rax
    a31a:	48 89 85 28 f8 ff ff 	mov    %rax,-0x7d8(%rbp)
    a321:	48 8d 85 a0 ea ff ff 	lea    -0x1560(%rbp),%rax
    a328:	48 89 85 30 f8 ff ff 	mov    %rax,-0x7d0(%rbp)
    a32f:	48 8d 85 a0 ea ff ff 	lea    -0x1560(%rbp),%rax
    a336:	48 89 85 38 f8 ff ff 	mov    %rax,-0x7c8(%rbp)
    a33d:	48 8d 85 ec e9 ff ff 	lea    -0x1614(%rbp),%rax
    a344:	48 89 85 40 f8 ff ff 	mov    %rax,-0x7c0(%rbp)
    a34b:	48 8d 85 a0 ea ff ff 	lea    -0x1560(%rbp),%rax
    a352:	48 89 85 48 f8 ff ff 	mov    %rax,-0x7b8(%rbp)
    a359:	48 8d 85 a0 ea ff ff 	lea    -0x1560(%rbp),%rax
    a360:	48 89 85 50 f8 ff ff 	mov    %rax,-0x7b0(%rbp)
    a367:	48 8d 85 ec e9 ff ff 	lea    -0x1614(%rbp),%rax
    a36e:	48 89 85 58 f8 ff ff 	mov    %rax,-0x7a8(%rbp)
    a375:	48 8d 85 a0 ea ff ff 	lea    -0x1560(%rbp),%rax
    a37c:	48 89 85 60 f8 ff ff 	mov    %rax,-0x7a0(%rbp)
    a383:	48 8d 05 3a 8d 00 00 	lea    0x8d3a(%rip),%rax        # 130c4 <g_35>
    a38a:	48 89 85 68 f8 ff ff 	mov    %rax,-0x798(%rbp)
    a391:	48 8d 85 f0 e9 ff ff 	lea    -0x1610(%rbp),%rax
    a398:	48 89 85 70 f8 ff ff 	mov    %rax,-0x790(%rbp)
    a39f:	48 8d 85 f0 e9 ff ff 	lea    -0x1610(%rbp),%rax
    a3a6:	48 89 85 78 f8 ff ff 	mov    %rax,-0x788(%rbp)
    a3ad:	48 8d 05 10 8d 00 00 	lea    0x8d10(%rip),%rax        # 130c4 <g_35>
    a3b4:	48 89 85 80 f8 ff ff 	mov    %rax,-0x780(%rbp)
    a3bb:	48 8d 85 f0 e9 ff ff 	lea    -0x1610(%rbp),%rax
    a3c2:	48 89 85 88 f8 ff ff 	mov    %rax,-0x778(%rbp)
    a3c9:	48 8d 85 f0 e9 ff ff 	lea    -0x1610(%rbp),%rax
    a3d0:	48 89 85 90 f8 ff ff 	mov    %rax,-0x770(%rbp)
    a3d7:	48 8d 05 e6 8c 00 00 	lea    0x8ce6(%rip),%rax        # 130c4 <g_35>
    a3de:	48 89 85 98 f8 ff ff 	mov    %rax,-0x768(%rbp)
    a3e5:	c7 85 a8 ea ff ff ff 	movl   $0xffffffff,-0x1558(%rbp)
    a3ec:	ff ff ff 
    a3ef:	8b 85 cc ec ff ff    	mov    -0x1334(%rbp),%eax
    a3f5:	83 c0 01             	add    $0x1,%eax
    a3f8:	89 85 cc ec ff ff    	mov    %eax,-0x1334(%rbp)
    a3fe:	c7 85 a8 ea ff ff 00 	movl   $0x0,-0x1558(%rbp)
    a405:	00 00 00 
    a408:	e9 43 04 00 00       	jmpq   a850 <func_69+0x3743>
    a40d:	48 c7 05 90 8d 00 00 	movq   $0x0,0x8d90(%rip)        # 131a8 <g_209+0x8>
    a414:	00 00 00 00 
    a418:	e9 96 00 00 00       	jmpq   a4b3 <func_69+0x33a6>
    a41d:	c7 05 a5 8d 00 00 00 	movl   $0x0,0x8da5(%rip)        # 131cc <g_209+0x2c>
    a424:	00 00 00 
    a427:	eb 6e                	jmp    a497 <func_69+0x338a>
    a429:	c7 05 d9 8d 00 00 00 	movl   $0x0,0x8dd9(%rip)        # 1320c <g_237+0x2c>
    a430:	00 00 00 
    a433:	eb 48                	jmp    a47d <func_69+0x3370>
    a435:	48 8b 05 6c 8d 00 00 	mov    0x8d6c(%rip),%rax        # 131a8 <g_209+0x8>
    a43c:	8b 15 8a 8d 00 00    	mov    0x8d8a(%rip),%edx        # 131cc <g_209+0x2c>
    a442:	8b 0d c4 8d 00 00    	mov    0x8dc4(%rip),%ecx        # 1320c <g_237+0x2c>
    a448:	48 63 c9             	movslq %ecx,%rcx
    a44b:	48 63 d2             	movslq %edx,%rdx
    a44e:	48 01 c2             	add    %rax,%rdx
    a451:	48 89 d0             	mov    %rdx,%rax
    a454:	48 c1 e0 03          	shl    $0x3,%rax
    a458:	48 29 d0             	sub    %rdx,%rax
    a45b:	48 8d 14 08          	lea    (%rax,%rcx,1),%rdx
    a45f:	48 8d 85 a8 ea ff ff 	lea    -0x1558(%rbp),%rax
    a466:	48 89 84 d5 c0 f7 ff 	mov    %rax,-0x840(%rbp,%rdx,8)
    a46d:	ff 
    a46e:	8b 05 98 8d 00 00    	mov    0x8d98(%rip),%eax        # 1320c <g_237+0x2c>
    a474:	83 c0 01             	add    $0x1,%eax
    a477:	89 05 8f 8d 00 00    	mov    %eax,0x8d8f(%rip)        # 1320c <g_237+0x2c>
    a47d:	8b 05 89 8d 00 00    	mov    0x8d89(%rip),%eax        # 1320c <g_237+0x2c>
    a483:	83 f8 06             	cmp    $0x6,%eax
    a486:	7e ad                	jle    a435 <func_69+0x3328>
    a488:	8b 05 3e 8d 00 00    	mov    0x8d3e(%rip),%eax        # 131cc <g_209+0x2c>
    a48e:	83 c0 01             	add    $0x1,%eax
    a491:	89 05 35 8d 00 00    	mov    %eax,0x8d35(%rip)        # 131cc <g_209+0x2c>
    a497:	8b 05 2f 8d 00 00    	mov    0x8d2f(%rip),%eax        # 131cc <g_209+0x2c>
    a49d:	85 c0                	test   %eax,%eax
    a49f:	7e 88                	jle    a429 <func_69+0x331c>
    a4a1:	48 8b 05 00 8d 00 00 	mov    0x8d00(%rip),%rax        # 131a8 <g_209+0x8>
    a4a8:	48 83 c0 01          	add    $0x1,%rax
    a4ac:	48 89 05 f5 8c 00 00 	mov    %rax,0x8cf5(%rip)        # 131a8 <g_209+0x8>
    a4b3:	48 8b 05 ee 8c 00 00 	mov    0x8cee(%rip),%rax        # 131a8 <g_209+0x8>
    a4ba:	48 83 f8 03          	cmp    $0x3,%rax
    a4be:	0f 8e 59 ff ff ff    	jle    a41d <func_69+0x3310>
    a4c4:	8b 85 00 ea ff ff    	mov    -0x1600(%rbp),%eax
    a4ca:	8b 95 00 ea ff ff    	mov    -0x1600(%rbp),%edx
    a4d0:	8d 4a 01             	lea    0x1(%rdx),%ecx
    a4d3:	8b 15 f3 8b 00 00    	mov    0x8bf3(%rip),%edx        # 130cc <g_44>
    a4d9:	83 c2 03             	add    $0x3,%edx
    a4dc:	48 63 f2             	movslq %edx,%rsi
    a4df:	48 98                	cltq   
    a4e1:	48 63 c9             	movslq %ecx,%rcx
    a4e4:	48 89 c2             	mov    %rax,%rdx
    a4e7:	48 c1 e2 06          	shl    $0x6,%rdx
    a4eb:	48 29 c2             	sub    %rax,%rdx
    a4ee:	48 89 c8             	mov    %rcx,%rax
    a4f1:	48 c1 e0 03          	shl    $0x3,%rax
    a4f5:	48 01 c8             	add    %rcx,%rax
    a4f8:	48 01 d0             	add    %rdx,%rax
    a4fb:	48 8d 14 30          	lea    (%rax,%rsi,1),%rdx
    a4ff:	48 8d 05 3a 8b 00 00 	lea    0x8b3a(%rip),%rax        # 13040 <g_7>
    a506:	48 01 d0             	add    %rdx,%rax
    a509:	0f b6 00             	movzbl (%rax),%eax
    a50c:	0f be d0             	movsbl %al,%edx
    a50f:	48 8b 85 e8 ea ff ff 	mov    -0x1518(%rbp),%rax
    a516:	89 10                	mov    %edx,(%rax)
    a518:	48 c7 05 ed ba 00 00 	movq   $0x0,0xbaed(%rip)        # 16010 <g_271>
    a51f:	00 00 00 00 
    a523:	e9 08 03 00 00       	jmpq   a830 <func_69+0x3723>
    a528:	0f b7 85 b8 ea ff ff 	movzwl -0x1548(%rbp),%eax
    a52f:	66 25 00 fc          	and    $0xfc00,%ax
    a533:	83 c8 0e             	or     $0xe,%eax
    a536:	66 89 85 b8 ea ff ff 	mov    %ax,-0x1548(%rbp)
    a53d:	48 c7 85 50 ec ff ff 	movq   $0x0,-0x13b0(%rbp)
    a544:	00 00 00 00 
    a548:	48 c7 85 58 ec ff ff 	movq   $0x0,-0x13a8(%rbp)
    a54f:	00 00 00 00 
    a553:	48 c7 85 60 ec ff ff 	movq   $0x0,-0x13a0(%rbp)
    a55a:	00 00 00 00 
    a55e:	48 8d 05 eb bb 00 00 	lea    0xbbeb(%rip),%rax        # 16150 <g_313+0xf0>
    a565:	48 89 85 68 ec ff ff 	mov    %rax,-0x1398(%rbp)
    a56c:	c7 85 7c ea ff ff 06 	movl   $0x6,-0x1584(%rbp)
    a573:	00 00 00 
    a576:	8b 85 00 ea ff ff    	mov    -0x1600(%rbp),%eax
    a57c:	8b 95 00 ea ff ff    	mov    -0x1600(%rbp),%edx
    a582:	48 8b 35 87 ba 00 00 	mov    0xba87(%rip),%rsi        # 16010 <g_271>
    a589:	48 63 d2             	movslq %edx,%rdx
    a58c:	48 63 c8             	movslq %eax,%rcx
    a58f:	48 89 d0             	mov    %rdx,%rax
    a592:	48 c1 e0 03          	shl    $0x3,%rax
    a596:	48 01 d0             	add    %rdx,%rax
    a599:	48 89 ca             	mov    %rcx,%rdx
    a59c:	48 c1 e2 06          	shl    $0x6,%rdx
    a5a0:	48 29 ca             	sub    %rcx,%rdx
    a5a3:	48 01 d0             	add    %rdx,%rax
    a5a6:	48 8d 14 30          	lea    (%rax,%rsi,1),%rdx
    a5aa:	48 8d 05 8f 8a 00 00 	lea    0x8a8f(%rip),%rax        # 13040 <g_7>
    a5b1:	48 01 d0             	add    %rdx,%rax
    a5b4:	0f b6 00             	movzbl (%rax),%eax
    a5b7:	0f be d0             	movsbl %al,%edx
    a5ba:	48 8b 85 20 ec ff ff 	mov    -0x13e0(%rbp),%rax
    a5c1:	89 10                	mov    %edx,(%rax)
    a5c3:	8b 85 00 ea ff ff    	mov    -0x1600(%rbp),%eax
    a5c9:	8b 95 00 ea ff ff    	mov    -0x1600(%rbp),%edx
    a5cf:	8d 4a 01             	lea    0x1(%rdx),%ecx
    a5d2:	8b 15 f4 8a 00 00    	mov    0x8af4(%rip),%edx        # 130cc <g_44>
    a5d8:	83 c2 03             	add    $0x3,%edx
    a5db:	48 63 f2             	movslq %edx,%rsi
    a5de:	48 98                	cltq   
    a5e0:	48 63 c9             	movslq %ecx,%rcx
    a5e3:	48 89 c2             	mov    %rax,%rdx
    a5e6:	48 c1 e2 06          	shl    $0x6,%rdx
    a5ea:	48 29 c2             	sub    %rax,%rdx
    a5ed:	48 89 c8             	mov    %rcx,%rax
    a5f0:	48 c1 e0 03          	shl    $0x3,%rax
    a5f4:	48 01 c8             	add    %rcx,%rax
    a5f7:	48 01 d0             	add    %rdx,%rax
    a5fa:	48 8d 14 30          	lea    (%rax,%rsi,1),%rdx
    a5fe:	48 8d 05 3b 8a 00 00 	lea    0x8a3b(%rip),%rax        # 13040 <g_7>
    a605:	48 01 d0             	add    %rdx,%rax
    a608:	0f b6 00             	movzbl (%rax),%eax
    a60b:	0f b6 d8             	movzbl %al,%ebx
    a60e:	48 8b 05 eb 8b 00 00 	mov    0x8beb(%rip),%rax        # 13200 <g_237+0x20>
    a615:	8b 85 00 ea ff ff    	mov    -0x1600(%rbp),%eax
    a61b:	8b 95 00 ea ff ff    	mov    -0x1600(%rbp),%edx
    a621:	8d 4a 01             	lea    0x1(%rdx),%ecx
    a624:	8b 15 a2 8a 00 00    	mov    0x8aa2(%rip),%edx        # 130cc <g_44>
    a62a:	83 c2 03             	add    $0x3,%edx
    a62d:	48 63 f2             	movslq %edx,%rsi
    a630:	48 98                	cltq   
    a632:	48 63 c9             	movslq %ecx,%rcx
    a635:	48 89 c2             	mov    %rax,%rdx
    a638:	48 c1 e2 06          	shl    $0x6,%rdx
    a63c:	48 29 c2             	sub    %rax,%rdx
    a63f:	48 89 c8             	mov    %rcx,%rax
    a642:	48 c1 e0 03          	shl    $0x3,%rax
    a646:	48 01 c8             	add    %rcx,%rax
    a649:	48 01 d0             	add    %rdx,%rax
    a64c:	48 8d 14 30          	lea    (%rax,%rsi,1),%rdx
    a650:	48 8d 05 e9 89 00 00 	lea    0x89e9(%rip),%rax        # 13040 <g_7>
    a657:	48 01 d0             	add    %rdx,%rax
    a65a:	0f b6 00             	movzbl (%rax),%eax
    a65d:	0f be d0             	movsbl %al,%edx
    a660:	8b 85 c4 e9 ff ff    	mov    -0x163c(%rbp),%eax
    a666:	39 c2                	cmp    %eax,%edx
    a668:	74 08                	je     a672 <func_69+0x3565>
    a66a:	8b 05 c8 8a 00 00    	mov    0x8ac8(%rip),%eax        # 13138 <g_175+0x18>
    a670:	85 c0                	test   %eax,%eax
    a672:	bf 00 00 00 00       	mov    $0x0,%edi
    a677:	e8 6f ca ff ff       	callq  70eb <func_58>
    a67c:	8b 85 c4 e9 ff ff    	mov    -0x163c(%rbp),%eax
    a682:	0f b6 c0             	movzbl %al,%eax
    a685:	89 de                	mov    %ebx,%esi
    a687:	89 c7                	mov    %eax,%edi
    a689:	e8 ea 94 ff ff       	callq  3b78 <safe_sub_func_uint8_t_u_u>
    a68e:	0f b6 c0             	movzbl %al,%eax
    a691:	48 ba 42 53 8c e7 d8 	movabs $0xafd8e8d8e78c5342,%rdx
    a698:	e8 d8 af 
    a69b:	48 09 d0             	or     %rdx,%rax
    a69e:	8b 95 c4 e9 ff ff    	mov    -0x163c(%rbp),%edx
    a6a4:	89 d2                	mov    %edx,%edx
    a6a6:	48 39 d0             	cmp    %rdx,%rax
    a6a9:	0f 94 c0             	sete   %al
    a6ac:	0f b6 c8             	movzbl %al,%ecx
    a6af:	8b 85 00 ea ff ff    	mov    -0x1600(%rbp),%eax
    a6b5:	83 c0 06             	add    $0x6,%eax
    a6b8:	48 98                	cltq   
    a6ba:	48 8d 14 85 00 00 00 	lea    0x0(,%rax,4),%rdx
    a6c1:	00 
    a6c2:	48 8d 05 17 8a 00 00 	lea    0x8a17(%rip),%rax        # 130e0 <g_129>
    a6c9:	8b 14 02             	mov    (%rdx,%rax,1),%edx
    a6cc:	48 8b 85 08 ec ff ff 	mov    -0x13f8(%rbp),%rax
    a6d3:	8b 00                	mov    (%rax),%eax
    a6d5:	21 c1                	and    %eax,%ecx
    a6d7:	48 8b 85 08 ec ff ff 	mov    -0x13f8(%rbp),%rax
    a6de:	89 08                	mov    %ecx,(%rax)
    a6e0:	48 8b 85 08 ec ff ff 	mov    -0x13f8(%rbp),%rax
    a6e7:	8b 00                	mov    (%rax),%eax
    a6e9:	39 c2                	cmp    %eax,%edx
    a6eb:	0f 95 c0             	setne  %al
    a6ee:	0f b6 d0             	movzbl %al,%edx
    a6f1:	48 8b 85 80 ea ff ff 	mov    -0x1580(%rbp),%rax
    a6f8:	8b 00                	mov    (%rax),%eax
    a6fa:	09 c2                	or     %eax,%edx
    a6fc:	48 8b 85 40 ec ff ff 	mov    -0x13c0(%rbp),%rax
    a703:	89 10                	mov    %edx,(%rax)
    a705:	8b 85 c4 e9 ff ff    	mov    -0x163c(%rbp),%eax
    a70b:	89 c3                	mov    %eax,%ebx
    a70d:	8b 85 00 ea ff ff    	mov    -0x1600(%rbp),%eax
    a713:	83 c0 06             	add    $0x6,%eax
    a716:	48 98                	cltq   
    a718:	48 8d 14 85 00 00 00 	lea    0x0(,%rax,4),%rdx
    a71f:	00 
    a720:	48 8d 05 b9 89 00 00 	lea    0x89b9(%rip),%rax        # 130e0 <g_129>
    a727:	8b 04 02             	mov    (%rdx,%rax,1),%eax
    a72a:	41 89 c4             	mov    %eax,%r12d
    a72d:	8b 85 c4 e9 ff ff    	mov    -0x163c(%rbp),%eax
    a733:	98                   	cwtl   
    a734:	89 c7                	mov    %eax,%edi
    a736:	e8 b0 c9 ff ff       	callq  70eb <func_58>
    a73b:	be 06 90 ff ff       	mov    $0xffff9006,%esi
    a740:	bf f7 ff ff ff       	mov    $0xfffffff7,%edi
    a745:	e8 cc 8c ff ff       	callq  3416 <safe_mod_func_int16_t_s_s>
    a74a:	98                   	cwtl   
    a74b:	89 85 7c ea ff ff    	mov    %eax,-0x1584(%rbp)
    a751:	83 bd 7c ea ff ff 00 	cmpl   $0x0,-0x1584(%rbp)
    a758:	74 11                	je     a76b <func_69+0x365e>
    a75a:	8b 85 cc ec ff ff    	mov    -0x1334(%rbp),%eax
    a760:	85 c0                	test   %eax,%eax
    a762:	74 07                	je     a76b <func_69+0x365e>
    a764:	b8 01 00 00 00       	mov    $0x1,%eax
    a769:	eb 05                	jmp    a770 <func_69+0x3663>
    a76b:	b8 00 00 00 00       	mov    $0x0,%eax
    a770:	0f b7 d0             	movzwl %ax,%edx
    a773:	48 8b 85 68 ec ff ff 	mov    -0x1398(%rbp),%rax
    a77a:	48 8b 00             	mov    (%rax),%rax
    a77d:	48 8d 48 ff          	lea    -0x1(%rax),%rcx
    a781:	48 8b 85 68 ec ff ff 	mov    -0x1398(%rbp),%rax
    a788:	48 89 08             	mov    %rcx,(%rax)
    a78b:	48 8b 85 68 ec ff ff 	mov    -0x1398(%rbp),%rax
    a792:	48 8b 08             	mov    (%rax),%rcx
    a795:	48 8b 35 e4 89 00 00 	mov    0x89e4(%rip),%rsi        # 13180 <g_189+0x20>
    a79c:	8b 05 ee 04 01 00    	mov    0x104ee(%rip),%eax        # 1ac90 <g_49>
    a7a2:	48 98                	cltq   
    a7a4:	48 39 c6             	cmp    %rax,%rsi
    a7a7:	0f 9d c0             	setge  %al
    a7aa:	0f b6 c0             	movzbl %al,%eax
    a7ad:	48 39 c1             	cmp    %rax,%rcx
    a7b0:	0f 97 c0             	seta   %al
    a7b3:	0f b6 c0             	movzbl %al,%eax
    a7b6:	89 d6                	mov    %edx,%esi
    a7b8:	89 c7                	mov    %eax,%edi
    a7ba:	e8 7e 95 ff ff       	callq  3d3d <safe_mul_func_uint16_t_u_u>
    a7bf:	0f b6 c0             	movzbl %al,%eax
    a7c2:	44 89 e6             	mov    %r12d,%esi
    a7c5:	89 c7                	mov    %eax,%edi
    a7c7:	e8 39 94 ff ff       	callq  3c05 <safe_lshift_func_uint8_t_u_s>
    a7cc:	48 8b 05 9d f6 00 00 	mov    0xf69d(%rip),%rax        # 19e70 <g_319>
    a7d3:	48 8b 05 3e f6 00 00 	mov    0xf63e(%rip),%rax        # 19e18 <g_167>
    a7da:	0f b6 00             	movzbl (%rax),%eax
    a7dd:	0f be d0             	movsbl %al,%edx
    a7e0:	48 8b 85 e8 ea ff ff 	mov    -0x1518(%rbp),%rax
    a7e7:	8b 00                	mov    (%rax),%eax
    a7e9:	39 c2                	cmp    %eax,%edx
    a7eb:	0f 95 c0             	setne  %al
    a7ee:	0f b6 c0             	movzbl %al,%eax
    a7f1:	48 89 de             	mov    %rbx,%rsi
    a7f4:	48 89 c7             	mov    %rax,%rdi
    a7f7:	e8 45 90 ff ff       	callq  3841 <safe_add_func_int64_t_s_s>
    a7fc:	48 85 c0             	test   %rax,%rax
    a7ff:	0f 9e c0             	setle  %al
    a802:	0f b6 d0             	movzbl %al,%edx
    a805:	b8 22 00 00 00       	mov    $0x22,%eax
    a80a:	0f be c0             	movsbl %al,%eax
    a80d:	39 c2                	cmp    %eax,%edx
    a80f:	0f 9d c0             	setge  %al
    a812:	0f b6 d0             	movzbl %al,%edx
    a815:	48 8b 85 30 ec ff ff 	mov    -0x13d0(%rbp),%rax
    a81c:	89 10                	mov    %edx,(%rax)
    a81e:	48 8b 05 eb b7 00 00 	mov    0xb7eb(%rip),%rax        # 16010 <g_271>
    a825:	48 83 c0 01          	add    $0x1,%rax
    a829:	48 89 05 e0 b7 00 00 	mov    %rax,0xb7e0(%rip)        # 16010 <g_271>
    a830:	48 8b 05 d9 b7 00 00 	mov    0xb7d9(%rip),%rax        # 16010 <g_271>
    a837:	48 83 f8 07          	cmp    $0x7,%rax
    a83b:	0f 86 e7 fc ff ff    	jbe    a528 <func_69+0x341b>
    a841:	8b 85 a8 ea ff ff    	mov    -0x1558(%rbp),%eax
    a847:	83 c0 01             	add    $0x1,%eax
    a84a:	89 85 a8 ea ff ff    	mov    %eax,-0x1558(%rbp)
    a850:	8b 85 a8 ea ff ff    	mov    -0x1558(%rbp),%eax
    a856:	83 f8 07             	cmp    $0x7,%eax
    a859:	0f 8e ae fb ff ff    	jle    a40d <func_69+0x3300>
    a85f:	e9 cf 00 00 00       	jmpq   a933 <func_69+0x3826>
    a864:	48 8d 85 f8 e9 ff ff 	lea    -0x1608(%rbp),%rax
    a86b:	48 89 85 f0 eb ff ff 	mov    %rax,-0x1410(%rbp)
    a872:	48 8d 85 f0 e9 ff ff 	lea    -0x1610(%rbp),%rax
    a879:	48 89 85 f8 eb ff ff 	mov    %rax,-0x1408(%rbp)
    a880:	c7 85 20 ea ff ff 00 	movl   $0x0,-0x15e0(%rbp)
    a887:	00 00 00 
    a88a:	e9 87 00 00 00       	jmpq   a916 <func_69+0x3809>
    a88f:	c7 85 18 ea ff ff 00 	movl   $0x0,-0x15e8(%rbp)
    a896:	00 00 00 
    a899:	eb 6b                	jmp    a906 <func_69+0x37f9>
    a89b:	c7 85 10 ea ff ff 00 	movl   $0x0,-0x15f0(%rbp)
    a8a2:	00 00 00 
    a8a5:	eb 4f                	jmp    a8f6 <func_69+0x37e9>
    a8a7:	8b 85 10 ea ff ff    	mov    -0x15f0(%rbp),%eax
    a8ad:	48 63 f0             	movslq %eax,%rsi
    a8b0:	8b 85 20 ea ff ff    	mov    -0x15e0(%rbp),%eax
    a8b6:	48 63 d0             	movslq %eax,%rdx
    a8b9:	8b 85 18 ea ff ff    	mov    -0x15e8(%rbp),%eax
    a8bf:	48 63 c8             	movslq %eax,%rcx
    a8c2:	48 89 d0             	mov    %rdx,%rax
    a8c5:	48 c1 e0 02          	shl    $0x2,%rax
    a8c9:	48 01 d0             	add    %rdx,%rax
    a8cc:	48 c1 e0 03          	shl    $0x3,%rax
    a8d0:	48 89 ca             	mov    %rcx,%rdx
    a8d3:	48 c1 e2 02          	shl    $0x2,%rdx
    a8d7:	48 01 ca             	add    %rcx,%rdx
    a8da:	48 01 d0             	add    %rdx,%rax
    a8dd:	48 01 f0             	add    %rsi,%rax
    a8e0:	48 8d 15 a9 03 01 00 	lea    0x103a9(%rip),%rdx        # 1ac90 <g_49>
    a8e7:	48 89 94 c5 c0 f7 ff 	mov    %rdx,-0x840(%rbp,%rax,8)
    a8ee:	ff 
    a8ef:	83 85 10 ea ff ff 01 	addl   $0x1,-0x15f0(%rbp)
    a8f6:	83 bd 10 ea ff ff 04 	cmpl   $0x4,-0x15f0(%rbp)
    a8fd:	7e a8                	jle    a8a7 <func_69+0x379a>
    a8ff:	83 85 18 ea ff ff 01 	addl   $0x1,-0x15e8(%rbp)
    a906:	83 bd 18 ea ff ff 07 	cmpl   $0x7,-0x15e8(%rbp)
    a90d:	7e 8c                	jle    a89b <func_69+0x378e>
    a90f:	83 85 20 ea ff ff 01 	addl   $0x1,-0x15e0(%rbp)
    a916:	83 bd 20 ea ff ff 03 	cmpl   $0x3,-0x15e0(%rbp)
    a91d:	0f 8e 6c ff ff ff    	jle    a88f <func_69+0x3782>
    a923:	66 83 ad e4 e9 ff ff 	subw   $0x1,-0x161c(%rbp)
    a92a:	01 
    a92b:	48 83 ad c0 ea ff ff 	subq   $0x1,-0x1540(%rbp)
    a932:	01 
    a933:	8b 85 c4 e9 ff ff    	mov    -0x163c(%rbp),%eax
    a939:	89 c2                	mov    %eax,%edx
    a93b:	48 8b 85 e8 ea ff ff 	mov    -0x1518(%rbp),%rax
    a942:	89 10                	mov    %edx,(%rax)
    a944:	c7 85 f0 e9 ff ff 00 	movl   $0x0,-0x1610(%rbp)
    a94b:	00 00 00 
    a94e:	e9 2e 02 00 00       	jmpq   ab81 <func_69+0x3a74>
    a953:	0f b7 85 f0 ec ff ff 	movzwl -0x1310(%rbp),%eax
    a95a:	66 25 00 fc          	and    $0xfc00,%ax
    a95e:	83 c8 07             	or     $0x7,%eax
    a961:	66 89 85 f0 ec ff ff 	mov    %ax,-0x1310(%rbp)
    a968:	0f b7 85 f4 ec ff ff 	movzwl -0x130c(%rbp),%eax
    a96f:	66 25 00 fc          	and    $0xfc00,%ax
    a973:	83 c8 07             	or     $0x7,%eax
    a976:	66 89 85 f4 ec ff ff 	mov    %ax,-0x130c(%rbp)
    a97d:	0f b7 85 f8 ec ff ff 	movzwl -0x1308(%rbp),%eax
    a984:	66 25 00 fc          	and    $0xfc00,%ax
    a988:	83 c8 07             	or     $0x7,%eax
    a98b:	66 89 85 f8 ec ff ff 	mov    %ax,-0x1308(%rbp)
    a992:	0f b7 85 fc ec ff ff 	movzwl -0x1304(%rbp),%eax
    a999:	66 25 00 fc          	and    $0xfc00,%ax
    a99d:	83 c8 07             	or     $0x7,%eax
    a9a0:	66 89 85 fc ec ff ff 	mov    %ax,-0x1304(%rbp)
    a9a7:	0f b7 85 00 ed ff ff 	movzwl -0x1300(%rbp),%eax
    a9ae:	66 25 00 fc          	and    $0xfc00,%ax
    a9b2:	83 c8 07             	or     $0x7,%eax
    a9b5:	66 89 85 00 ed ff ff 	mov    %ax,-0x1300(%rbp)
    a9bc:	0f b7 85 04 ed ff ff 	movzwl -0x12fc(%rbp),%eax
    a9c3:	66 25 00 fc          	and    $0xfc00,%ax
    a9c7:	83 c8 07             	or     $0x7,%eax
    a9ca:	66 89 85 04 ed ff ff 	mov    %ax,-0x12fc(%rbp)
    a9d1:	0f b7 85 08 ed ff ff 	movzwl -0x12f8(%rbp),%eax
    a9d8:	66 25 00 fc          	and    $0xfc00,%ax
    a9dc:	83 c8 07             	or     $0x7,%eax
    a9df:	66 89 85 08 ed ff ff 	mov    %ax,-0x12f8(%rbp)
    a9e6:	0f b7 85 0c ed ff ff 	movzwl -0x12f4(%rbp),%eax
    a9ed:	66 25 00 fc          	and    $0xfc00,%ax
    a9f1:	83 c8 07             	or     $0x7,%eax
    a9f4:	66 89 85 0c ed ff ff 	mov    %ax,-0x12f4(%rbp)
    a9fb:	0f b7 85 10 ed ff ff 	movzwl -0x12f0(%rbp),%eax
    aa02:	66 25 00 fc          	and    $0xfc00,%ax
    aa06:	83 c8 07             	or     $0x7,%eax
    aa09:	66 89 85 10 ed ff ff 	mov    %ax,-0x12f0(%rbp)
    aa10:	0f b7 85 14 ed ff ff 	movzwl -0x12ec(%rbp),%eax
    aa17:	66 25 00 fc          	and    $0xfc00,%ax
    aa1b:	83 c8 07             	or     $0x7,%eax
    aa1e:	66 89 85 14 ed ff ff 	mov    %ax,-0x12ec(%rbp)
    aa25:	48 8d 05 a4 87 00 00 	lea    0x87a4(%rip),%rax        # 131d0 <g_212>
    aa2c:	48 89 85 70 ec ff ff 	mov    %rax,-0x1390(%rbp)
    aa33:	48 8d 05 56 02 01 00 	lea    0x10256(%rip),%rax        # 1ac90 <g_49>
    aa3a:	48 89 85 78 ec ff ff 	mov    %rax,-0x1388(%rbp)
    aa41:	48 8d 85 08 ea ff ff 	lea    -0x15f8(%rbp),%rax
    aa48:	48 89 85 80 ec ff ff 	mov    %rax,-0x1380(%rbp)
    aa4f:	48 8d 05 3a 02 01 00 	lea    0x1023a(%rip),%rax        # 1ac90 <g_49>
    aa56:	48 89 85 88 ec ff ff 	mov    %rax,-0x1378(%rbp)
    aa5d:	48 8d 85 0c ea ff ff 	lea    -0x15f4(%rbp),%rax
    aa64:	48 89 85 90 ec ff ff 	mov    %rax,-0x1370(%rbp)
    aa6b:	48 c7 85 98 ec ff ff 	movq   $0x0,-0x1368(%rbp)
    aa72:	00 00 00 00 
    aa76:	48 8d 85 08 ea ff ff 	lea    -0x15f8(%rbp),%rax
    aa7d:	48 89 85 a0 ec ff ff 	mov    %rax,-0x1360(%rbp)
    aa84:	48 c7 85 a8 ec ff ff 	movq   $0x0,-0x1358(%rbp)
    aa8b:	00 00 00 00 
    aa8f:	48 8d 85 c0 ec ff ff 	lea    -0x1340(%rbp),%rax
    aa96:	48 89 85 c0 f7 ff ff 	mov    %rax,-0x840(%rbp)
    aa9d:	48 8d 85 f4 e9 ff ff 	lea    -0x160c(%rbp),%rax
    aaa4:	48 89 85 c8 f7 ff ff 	mov    %rax,-0x838(%rbp)
    aaab:	48 8d 85 c0 ec ff ff 	lea    -0x1340(%rbp),%rax
    aab2:	48 89 85 d0 f7 ff ff 	mov    %rax,-0x830(%rbp)
    aab9:	48 8d 85 f4 e9 ff ff 	lea    -0x160c(%rbp),%rax
    aac0:	48 89 85 d8 f7 ff ff 	mov    %rax,-0x828(%rbp)
    aac7:	48 8d 85 c0 ec ff ff 	lea    -0x1340(%rbp),%rax
    aace:	48 89 85 e0 f7 ff ff 	mov    %rax,-0x820(%rbp)
    aad5:	48 8d 85 f4 e9 ff ff 	lea    -0x160c(%rbp),%rax
    aadc:	48 89 85 e8 f7 ff ff 	mov    %rax,-0x818(%rbp)
    aae3:	48 8d 85 c0 ec ff ff 	lea    -0x1340(%rbp),%rax
    aaea:	48 89 85 f0 f7 ff ff 	mov    %rax,-0x810(%rbp)
    aaf1:	48 8d 85 f4 e9 ff ff 	lea    -0x160c(%rbp),%rax
    aaf8:	48 89 85 f8 f7 ff ff 	mov    %rax,-0x808(%rbp)
    aaff:	48 8d 85 c0 ec ff ff 	lea    -0x1340(%rbp),%rax
    ab06:	48 89 85 00 f8 ff ff 	mov    %rax,-0x800(%rbp)
    ab0d:	48 8d 85 f4 e9 ff ff 	lea    -0x160c(%rbp),%rax
    ab14:	48 89 85 08 f8 ff ff 	mov    %rax,-0x7f8(%rbp)
    ab1b:	48 c7 85 b8 ea ff ff 	movq   $0x3,-0x1548(%rbp)
    ab22:	03 00 00 00 
    ab26:	48 8d 85 b8 ea ff ff 	lea    -0x1548(%rbp),%rax
    ab2d:	48 89 85 b0 ec ff ff 	mov    %rax,-0x1350(%rbp)
    ab34:	48 c7 85 b8 ec ff ff 	movq   $0xfffffffffffffff8,-0x1348(%rbp)
    ab3b:	f8 ff ff ff 
    ab3f:	c7 85 14 ea ff ff 00 	movl   $0x0,-0x15ec(%rbp)
    ab46:	00 00 00 
    ab49:	eb 1e                	jmp    ab69 <func_69+0x3a5c>
    ab4b:	8b 85 14 ea ff ff    	mov    -0x15ec(%rbp),%eax
    ab51:	48 98                	cltq   
    ab53:	48 8d 95 88 ea ff ff 	lea    -0x1578(%rbp),%rdx
    ab5a:	48 89 94 c5 d0 ec ff 	mov    %rdx,-0x1330(%rbp,%rax,8)
    ab61:	ff 
    ab62:	83 85 14 ea ff ff 01 	addl   $0x1,-0x15ec(%rbp)
    ab69:	83 bd 14 ea ff ff 02 	cmpl   $0x2,-0x15ec(%rbp)
    ab70:	7e d9                	jle    ab4b <func_69+0x3a3e>
    ab72:	8b 85 f0 e9 ff ff    	mov    -0x1610(%rbp),%eax
    ab78:	83 c0 01             	add    $0x1,%eax
    ab7b:	89 85 f0 e9 ff ff    	mov    %eax,-0x1610(%rbp)
    ab81:	8b 85 f0 e9 ff ff    	mov    -0x1610(%rbp),%eax
    ab87:	83 f8 01             	cmp    $0x1,%eax
    ab8a:	0f 8e c3 fd ff ff    	jle    a953 <func_69+0x3846>
    ab90:	8b 85 00 ea ff ff    	mov    -0x1600(%rbp),%eax
    ab96:	83 e8 01             	sub    $0x1,%eax
    ab99:	89 85 00 ea ff ff    	mov    %eax,-0x1600(%rbp)
    ab9f:	8b 85 00 ea ff ff    	mov    -0x1600(%rbp),%eax
    aba5:	85 c0                	test   %eax,%eax
    aba7:	0f 89 9e eb ff ff    	jns    974b <func_69+0x263e>
    abad:	8b 05 19 85 00 00    	mov    0x8519(%rip),%eax        # 130cc <g_44>
    abb3:	83 e8 01             	sub    $0x1,%eax
    abb6:	89 05 10 85 00 00    	mov    %eax,0x8510(%rip)        # 130cc <g_44>
    abbc:	8b 05 0a 85 00 00    	mov    0x850a(%rip),%eax        # 130cc <g_44>
    abc2:	85 c0                	test   %eax,%eax
    abc4:	0f 89 9c c7 ff ff    	jns    7366 <func_69+0x259>
    abca:	48 8b 05 d7 f2 00 00 	mov    0xf2d7(%rip),%rax        # 19ea8 <g_488>
    abd1:	48 8b 5d c8          	mov    -0x38(%rbp),%rbx
    abd5:	64 48 33 1c 25 28 00 	xor    %fs:0x28,%rbx
    abdc:	00 00 
    abde:	74 05                	je     abe5 <func_69+0x3ad8>
    abe0:	e8 8b 84 ff ff       	callq  3070 <__stack_chk_fail@plt>
    abe5:	48 81 c4 28 16 00 00 	add    $0x1628,%rsp
    abec:	5b                   	pop    %rbx
    abed:	41 5c                	pop    %r12
    abef:	41 5d                	pop    %r13
    abf1:	41 5e                	pop    %r14
    abf3:	41 5f                	pop    %r15
    abf5:	5d                   	pop    %rbp
    abf6:	c3                   	retq   

000000000000abf7 <main>:
    abf7:	f3 0f 1e fa          	endbr64 
    abfb:	55                   	push   %rbp
    abfc:	48 89 e5             	mov    %rsp,%rbp
    abff:	48 83 ec 20          	sub    $0x20,%rsp
    ac03:	89 7d ec             	mov    %edi,-0x14(%rbp)
    ac06:	48 89 75 e0          	mov    %rsi,-0x20(%rbp)
    ac0a:	c7 45 fc 00 00 00 00 	movl   $0x0,-0x4(%rbp)
    ac11:	83 7d ec 02          	cmpl   $0x2,-0x14(%rbp)
    ac15:	75 25                	jne    ac3c <main+0x45>
    ac17:	48 8b 45 e0          	mov    -0x20(%rbp),%rax
    ac1b:	48 83 c0 08          	add    $0x8,%rax
    ac1f:	48 8b 00             	mov    (%rax),%rax
    ac22:	48 8d 35 77 48 00 00 	lea    0x4877(%rip),%rsi        # f4a0 <g_2089+0x1350>
    ac29:	48 89 c7             	mov    %rax,%rdi
    ac2c:	e8 5f 84 ff ff       	callq  3090 <strcmp@plt>
    ac31:	85 c0                	test   %eax,%eax
    ac33:	75 07                	jne    ac3c <main+0x45>
    ac35:	c7 45 fc 01 00 00 00 	movl   $0x1,-0x4(%rbp)
    ac3c:	e8 48 85 ff ff       	callq  3189 <platform_main_begin>
    ac41:	e8 52 99 ff ff       	callq  4598 <crc32_gentab>
    ac46:	e8 6a 9b ff ff       	callq  47b5 <func_1>
    ac4b:	8b 05 37 00 01 00    	mov    0x10037(%rip),%eax        # 1ac88 <g_3>
    ac51:	48 98                	cltq   
    ac53:	8b 55 fc             	mov    -0x4(%rbp),%edx
    ac56:	48 8d 35 45 48 00 00 	lea    0x4845(%rip),%rsi        # f4a2 <g_2089+0x1352>
    ac5d:	48 89 c7             	mov    %rax,%rdi
    ac60:	e8 8e 9a ff ff       	callq  46f3 <transparent_crc>
    ac65:	c7 45 f0 00 00 00 00 	movl   $0x0,-0x10(%rbp)
    ac6c:	e9 a2 00 00 00       	jmpq   ad13 <main+0x11c>
    ac71:	c7 45 f4 00 00 00 00 	movl   $0x0,-0xc(%rbp)
    ac78:	e9 88 00 00 00       	jmpq   ad05 <main+0x10e>
    ac7d:	c7 45 f8 00 00 00 00 	movl   $0x0,-0x8(%rbp)
    ac84:	eb 75                	jmp    acfb <main+0x104>
    ac86:	8b 45 f8             	mov    -0x8(%rbp),%eax
    ac89:	48 63 f0             	movslq %eax,%rsi
    ac8c:	8b 45 f0             	mov    -0x10(%rbp),%eax
    ac8f:	48 98                	cltq   
    ac91:	8b 55 f4             	mov    -0xc(%rbp),%edx
    ac94:	48 63 ca             	movslq %edx,%rcx
    ac97:	48 89 c2             	mov    %rax,%rdx
    ac9a:	48 c1 e2 06          	shl    $0x6,%rdx
    ac9e:	48 29 c2             	sub    %rax,%rdx
    aca1:	48 89 c8             	mov    %rcx,%rax
    aca4:	48 c1 e0 03          	shl    $0x3,%rax
    aca8:	48 01 c8             	add    %rcx,%rax
    acab:	48 01 d0             	add    %rdx,%rax
    acae:	48 8d 14 30          	lea    (%rax,%rsi,1),%rdx
    acb2:	48 8d 05 87 83 00 00 	lea    0x8387(%rip),%rax        # 13040 <g_7>
    acb9:	48 01 d0             	add    %rdx,%rax
    acbc:	0f b6 00             	movzbl (%rax),%eax
    acbf:	48 0f be c0          	movsbq %al,%rax
    acc3:	8b 55 fc             	mov    -0x4(%rbp),%edx
    acc6:	48 8d 35 d9 47 00 00 	lea    0x47d9(%rip),%rsi        # f4a6 <g_2089+0x1356>
    accd:	48 89 c7             	mov    %rax,%rdi
    acd0:	e8 1e 9a ff ff       	callq  46f3 <transparent_crc>
    acd5:	83 7d fc 00          	cmpl   $0x0,-0x4(%rbp)
    acd9:	74 1c                	je     acf7 <main+0x100>
    acdb:	8b 4d f8             	mov    -0x8(%rbp),%ecx
    acde:	8b 55 f4             	mov    -0xc(%rbp),%edx
    ace1:	8b 45 f0             	mov    -0x10(%rbp),%eax
    ace4:	89 c6                	mov    %eax,%esi
    ace6:	48 8d 3d c6 47 00 00 	lea    0x47c6(%rip),%rdi        # f4b3 <g_2089+0x1363>
    aced:	b8 00 00 00 00       	mov    $0x0,%eax
    acf2:	e8 89 83 ff ff       	callq  3080 <printf@plt>
    acf7:	83 45 f8 01          	addl   $0x1,-0x8(%rbp)
    acfb:	83 7d f8 08          	cmpl   $0x8,-0x8(%rbp)
    acff:	7e 85                	jle    ac86 <main+0x8f>
    ad01:	83 45 f4 01          	addl   $0x1,-0xc(%rbp)
    ad05:	83 7d f4 06          	cmpl   $0x6,-0xc(%rbp)
    ad09:	0f 8e 6e ff ff ff    	jle    ac7d <main+0x86>
    ad0f:	83 45 f0 01          	addl   $0x1,-0x10(%rbp)
    ad13:	83 7d f0 01          	cmpl   $0x1,-0x10(%rbp)
    ad17:	0f 8e 54 ff ff ff    	jle    ac71 <main+0x7a>
    ad1d:	8b 05 9d 83 00 00    	mov    0x839d(%rip),%eax        # 130c0 <g_8>
    ad23:	48 98                	cltq   
    ad25:	8b 55 fc             	mov    -0x4(%rbp),%edx
    ad28:	48 8d 35 9a 47 00 00 	lea    0x479a(%rip),%rsi        # f4c9 <g_2089+0x1379>
    ad2f:	48 89 c7             	mov    %rax,%rdi
    ad32:	e8 bc 99 ff ff       	callq  46f3 <transparent_crc>
    ad37:	8b 05 4f ff 00 00    	mov    0xff4f(%rip),%eax        # 1ac8c <g_9>
    ad3d:	48 98                	cltq   
    ad3f:	8b 55 fc             	mov    -0x4(%rbp),%edx
    ad42:	48 8d 35 84 47 00 00 	lea    0x4784(%rip),%rsi        # f4cd <g_2089+0x137d>
    ad49:	48 89 c7             	mov    %rax,%rdi
    ad4c:	e8 a2 99 ff ff       	callq  46f3 <transparent_crc>
    ad51:	8b 05 6d 83 00 00    	mov    0x836d(%rip),%eax        # 130c4 <g_35>
    ad57:	48 98                	cltq   
    ad59:	8b 55 fc             	mov    -0x4(%rbp),%edx
    ad5c:	48 8d 35 6e 47 00 00 	lea    0x476e(%rip),%rsi        # f4d1 <g_2089+0x1381>
    ad63:	48 89 c7             	mov    %rax,%rdi
    ad66:	e8 88 99 ff ff       	callq  46f3 <transparent_crc>
    ad6b:	0f b7 05 56 83 00 00 	movzwl 0x8356(%rip),%eax        # 130c8 <g_39>
    ad72:	66 25 ff 03          	and    $0x3ff,%ax
    ad76:	0f b7 c0             	movzwl %ax,%eax
    ad79:	8b 55 fc             	mov    -0x4(%rbp),%edx
    ad7c:	48 8d 35 53 47 00 00 	lea    0x4753(%rip),%rsi        # f4d6 <g_2089+0x1386>
    ad83:	48 89 c7             	mov    %rax,%rdi
    ad86:	e8 68 99 ff ff       	callq  46f3 <transparent_crc>
    ad8b:	8b 05 3b 83 00 00    	mov    0x833b(%rip),%eax        # 130cc <g_44>
    ad91:	48 98                	cltq   
    ad93:	8b 55 fc             	mov    -0x4(%rbp),%edx
    ad96:	48 8d 35 41 47 00 00 	lea    0x4741(%rip),%rsi        # f4de <g_2089+0x138e>
    ad9d:	48 89 c7             	mov    %rax,%rdi
    ada0:	e8 4e 99 ff ff       	callq  46f3 <transparent_crc>
    ada5:	8b 05 e5 fe 00 00    	mov    0xfee5(%rip),%eax        # 1ac90 <g_49>
    adab:	48 98                	cltq   
    adad:	8b 55 fc             	mov    -0x4(%rbp),%edx
    adb0:	48 8d 35 2c 47 00 00 	lea    0x472c(%rip),%rsi        # f4e3 <g_2089+0x1393>
    adb7:	48 89 c7             	mov    %rax,%rdi
    adba:	e8 34 99 ff ff       	callq  46f3 <transparent_crc>
    adbf:	8b 05 0b 83 00 00    	mov    0x830b(%rip),%eax        # 130d0 <g_95>
    adc5:	89 c1                	mov    %eax,%ecx
    adc7:	8b 45 fc             	mov    -0x4(%rbp),%eax
    adca:	89 c2                	mov    %eax,%edx
    adcc:	48 8d 35 15 47 00 00 	lea    0x4715(%rip),%rsi        # f4e8 <g_2089+0x1398>
    add3:	48 89 cf             	mov    %rcx,%rdi
    add6:	e8 18 99 ff ff       	callq  46f3 <transparent_crc>
    addb:	8b 05 f3 82 00 00    	mov    0x82f3(%rip),%eax        # 130d4 <g_98>
    ade1:	89 c1                	mov    %eax,%ecx
    ade3:	8b 45 fc             	mov    -0x4(%rbp),%eax
    ade6:	89 c2                	mov    %eax,%edx
    ade8:	48 8d 35 fe 46 00 00 	lea    0x46fe(%rip),%rsi        # f4ed <g_2089+0x139d>
    adef:	48 89 cf             	mov    %rcx,%rdi
    adf2:	e8 fc 98 ff ff       	callq  46f3 <transparent_crc>
    adf7:	c7 45 f0 00 00 00 00 	movl   $0x0,-0x10(%rbp)
    adfe:	eb 4d                	jmp    ae4d <main+0x256>
    ae00:	8b 45 f0             	mov    -0x10(%rbp),%eax
    ae03:	48 98                	cltq   
    ae05:	48 8d 14 85 00 00 00 	lea    0x0(,%rax,4),%rdx
    ae0c:	00 
    ae0d:	48 8d 05 cc 82 00 00 	lea    0x82cc(%rip),%rax        # 130e0 <g_129>
    ae14:	8b 04 02             	mov    (%rdx,%rax,1),%eax
    ae17:	89 c1                	mov    %eax,%ecx
    ae19:	8b 45 fc             	mov    -0x4(%rbp),%eax
    ae1c:	89 c2                	mov    %eax,%edx
    ae1e:	48 8d 35 cd 46 00 00 	lea    0x46cd(%rip),%rsi        # f4f2 <g_2089+0x13a2>
    ae25:	48 89 cf             	mov    %rcx,%rdi
    ae28:	e8 c6 98 ff ff       	callq  46f3 <transparent_crc>
    ae2d:	83 7d fc 00          	cmpl   $0x0,-0x4(%rbp)
    ae31:	74 16                	je     ae49 <main+0x252>
    ae33:	8b 45 f0             	mov    -0x10(%rbp),%eax
    ae36:	89 c6                	mov    %eax,%esi
    ae38:	48 8d 3d bc 46 00 00 	lea    0x46bc(%rip),%rdi        # f4fb <g_2089+0x13ab>
    ae3f:	b8 00 00 00 00       	mov    $0x0,%eax
    ae44:	e8 37 82 ff ff       	callq  3080 <printf@plt>
    ae49:	83 45 f0 01          	addl   $0x1,-0x10(%rbp)
    ae4d:	83 7d f0 07          	cmpl   $0x7,-0x10(%rbp)
    ae51:	7e ad                	jle    ae00 <main+0x209>
    ae53:	0f b7 05 a6 82 00 00 	movzwl 0x82a6(%rip),%eax        # 13100 <g_148>
    ae5a:	0f b7 c0             	movzwl %ax,%eax
    ae5d:	8b 55 fc             	mov    -0x4(%rbp),%edx
    ae60:	48 8d 35 a2 46 00 00 	lea    0x46a2(%rip),%rsi        # f509 <g_2089+0x13b9>
    ae67:	48 89 c7             	mov    %rax,%rdi
    ae6a:	e8 84 98 ff ff       	callq  46f3 <transparent_crc>
    ae6f:	b8 ff ff ff ff       	mov    $0xffffffff,%eax
    ae74:	48 98                	cltq   
    ae76:	8b 55 fc             	mov    -0x4(%rbp),%edx
    ae79:	48 8d 35 8f 46 00 00 	lea    0x468f(%rip),%rsi        # f50f <g_2089+0x13bf>
    ae80:	48 89 c7             	mov    %rax,%rdi
    ae83:	e8 6b 98 ff ff       	callq  46f3 <transparent_crc>
    ae88:	48 8b 05 d9 31 00 00 	mov    0x31d9(%rip),%rax        # e068 <g_154+0x8>
    ae8f:	48 89 c1             	mov    %rax,%rcx
    ae92:	8b 45 fc             	mov    -0x4(%rbp),%eax
    ae95:	89 c2                	mov    %eax,%edx
    ae97:	48 8d 35 7a 46 00 00 	lea    0x467a(%rip),%rsi        # f518 <g_2089+0x13c8>
    ae9e:	48 89 cf             	mov    %rcx,%rdi
    aea1:	e8 4d 98 ff ff       	callq  46f3 <transparent_crc>
    aea6:	b8 09 00 00 00       	mov    $0x9,%eax
    aeab:	48 98                	cltq   
    aead:	8b 55 fc             	mov    -0x4(%rbp),%edx
    aeb0:	48 8d 35 6a 46 00 00 	lea    0x466a(%rip),%rsi        # f521 <g_2089+0x13d1>
    aeb7:	48 89 c7             	mov    %rax,%rdi
    aeba:	e8 34 98 ff ff       	callq  46f3 <transparent_crc>
    aebf:	b8 40 00 00 00       	mov    $0x40,%eax
    aec4:	48 0f be c0          	movsbq %al,%rax
    aec8:	8b 55 fc             	mov    -0x4(%rbp),%edx
    aecb:	48 8d 35 58 46 00 00 	lea    0x4658(%rip),%rsi        # f52a <g_2089+0x13da>
    aed2:	48 89 c7             	mov    %rax,%rdi
    aed5:	e8 19 98 ff ff       	callq  46f3 <transparent_crc>
    aeda:	b8 4c e1 94 6d       	mov    $0x6d94e14c,%eax
    aedf:	89 c1                	mov    %eax,%ecx
    aee1:	8b 45 fc             	mov    -0x4(%rbp),%eax
    aee4:	89 c2                	mov    %eax,%edx
    aee6:	48 8d 35 46 46 00 00 	lea    0x4646(%rip),%rsi        # f533 <g_2089+0x13e3>
    aeed:	48 89 cf             	mov    %rcx,%rdi
    aef0:	e8 fe 97 ff ff       	callq  46f3 <transparent_crc>
    aef5:	48 b8 4d 85 1d 58 ac 	movabs $0x9a9149ac581d854d,%rax
    aefc:	49 91 9a 
    aeff:	48 89 c1             	mov    %rax,%rcx
    af02:	8b 45 fc             	mov    -0x4(%rbp),%eax
    af05:	89 c2                	mov    %eax,%edx
    af07:	48 8d 35 2e 46 00 00 	lea    0x462e(%rip),%rsi        # f53c <g_2089+0x13ec>
    af0e:	48 89 cf             	mov    %rcx,%rdi
    af11:	e8 dd 97 ff ff       	callq  46f3 <transparent_crc>
    af16:	8b 05 6c 31 00 00    	mov    0x316c(%rip),%eax        # e088 <g_154+0x28>
    af1c:	89 c1                	mov    %eax,%ecx
    af1e:	8b 45 fc             	mov    -0x4(%rbp),%eax
    af21:	89 c2                	mov    %eax,%edx
    af23:	48 8d 35 1b 46 00 00 	lea    0x461b(%rip),%rsi        # f545 <g_2089+0x13f5>
    af2a:	48 89 cf             	mov    %rcx,%rdi
    af2d:	e8 c1 97 ff ff       	callq  46f3 <transparent_crc>
    af32:	b8 da c2 9a c4       	mov    $0xc49ac2da,%eax
    af37:	48 98                	cltq   
    af39:	8b 55 fc             	mov    -0x4(%rbp),%edx
    af3c:	48 8d 35 0b 46 00 00 	lea    0x460b(%rip),%rsi        # f54e <g_2089+0x13fe>
    af43:	48 89 c7             	mov    %rax,%rdi
    af46:	e8 a8 97 ff ff       	callq  46f3 <transparent_crc>
    af4b:	b8 91 62 dd bb       	mov    $0xbbdd6291,%eax
    af50:	89 c1                	mov    %eax,%ecx
    af52:	8b 45 fc             	mov    -0x4(%rbp),%eax
    af55:	89 c2                	mov    %eax,%edx
    af57:	48 8d 35 f9 45 00 00 	lea    0x45f9(%rip),%rsi        # f557 <g_2089+0x1407>
    af5e:	48 89 cf             	mov    %rcx,%rdi
    af61:	e8 8d 97 ff ff       	callq  46f3 <transparent_crc>
    af66:	b8 d3 71 11 17       	mov    $0x171171d3,%eax
    af6b:	48 98                	cltq   
    af6d:	8b 55 fc             	mov    -0x4(%rbp),%edx
    af70:	48 8d 35 e6 45 00 00 	lea    0x45e6(%rip),%rsi        # f55d <g_2089+0x140d>
    af77:	48 89 c7             	mov    %rax,%rdi
    af7a:	e8 74 97 ff ff       	callq  46f3 <transparent_crc>
    af7f:	48 8b 05 22 31 00 00 	mov    0x3122(%rip),%rax        # e0a8 <g_173+0x8>
    af86:	48 89 c1             	mov    %rax,%rcx
    af89:	8b 45 fc             	mov    -0x4(%rbp),%eax
    af8c:	89 c2                	mov    %eax,%edx
    af8e:	48 8d 35 d1 45 00 00 	lea    0x45d1(%rip),%rsi        # f566 <g_2089+0x1416>
    af95:	48 89 cf             	mov    %rcx,%rdi
    af98:	e8 56 97 ff ff       	callq  46f3 <transparent_crc>
    af9d:	b8 2c 42 c1 18       	mov    $0x18c1422c,%eax
    afa2:	48 98                	cltq   
    afa4:	8b 55 fc             	mov    -0x4(%rbp),%edx
    afa7:	48 8d 35 c1 45 00 00 	lea    0x45c1(%rip),%rsi        # f56f <g_2089+0x141f>
    afae:	48 89 c7             	mov    %rax,%rdi
    afb1:	e8 3d 97 ff ff       	callq  46f3 <transparent_crc>
    afb6:	b8 22 00 00 00       	mov    $0x22,%eax
    afbb:	48 0f be c0          	movsbq %al,%rax
    afbf:	8b 55 fc             	mov    -0x4(%rbp),%edx
    afc2:	48 8d 35 af 45 00 00 	lea    0x45af(%rip),%rsi        # f578 <g_2089+0x1428>
    afc9:	48 89 c7             	mov    %rax,%rdi
    afcc:	e8 22 97 ff ff       	callq  46f3 <transparent_crc>
    afd1:	b8 00 00 00 00       	mov    $0x0,%eax
    afd6:	89 c1                	mov    %eax,%ecx
    afd8:	8b 45 fc             	mov    -0x4(%rbp),%eax
    afdb:	89 c2                	mov    %eax,%edx
    afdd:	48 8d 35 9d 45 00 00 	lea    0x459d(%rip),%rsi        # f581 <g_2089+0x1431>
    afe4:	48 89 cf             	mov    %rcx,%rdi
    afe7:	e8 07 97 ff ff       	callq  46f3 <transparent_crc>
    afec:	48 c7 c0 fc ff ff ff 	mov    $0xfffffffffffffffc,%rax
    aff3:	48 89 c1             	mov    %rax,%rcx
    aff6:	8b 45 fc             	mov    -0x4(%rbp),%eax
    aff9:	89 c2                	mov    %eax,%edx
    affb:	48 8d 35 88 45 00 00 	lea    0x4588(%rip),%rsi        # f58a <g_2089+0x143a>
    b002:	48 89 cf             	mov    %rcx,%rdi
    b005:	e8 e9 96 ff ff       	callq  46f3 <transparent_crc>
    b00a:	8b 05 b8 30 00 00    	mov    0x30b8(%rip),%eax        # e0c8 <g_173+0x28>
    b010:	89 c1                	mov    %eax,%ecx
    b012:	8b 45 fc             	mov    -0x4(%rbp),%eax
    b015:	89 c2                	mov    %eax,%edx
    b017:	48 8d 35 75 45 00 00 	lea    0x4575(%rip),%rsi        # f593 <g_2089+0x1443>
    b01e:	48 89 cf             	mov    %rcx,%rdi
    b021:	e8 cd 96 ff ff       	callq  46f3 <transparent_crc>
    b026:	b8 95 6e 5b 43       	mov    $0x435b6e95,%eax
    b02b:	48 98                	cltq   
    b02d:	8b 55 fc             	mov    -0x4(%rbp),%edx
    b030:	48 8d 35 65 45 00 00 	lea    0x4565(%rip),%rsi        # f59c <g_2089+0x144c>
    b037:	48 89 c7             	mov    %rax,%rdi
    b03a:	e8 b4 96 ff ff       	callq  46f3 <transparent_crc>
    b03f:	8b 05 db 80 00 00    	mov    0x80db(%rip),%eax        # 13120 <g_175>
    b045:	48 98                	cltq   
    b047:	8b 55 fc             	mov    -0x4(%rbp),%edx
    b04a:	48 8d 35 54 45 00 00 	lea    0x4554(%rip),%rsi        # f5a5 <g_2089+0x1455>
    b051:	48 89 c7             	mov    %rax,%rdi
    b054:	e8 9a 96 ff ff       	callq  46f3 <transparent_crc>
    b059:	48 8b 05 c8 80 00 00 	mov    0x80c8(%rip),%rax        # 13128 <g_175+0x8>
    b060:	48 89 c1             	mov    %rax,%rcx
    b063:	8b 45 fc             	mov    -0x4(%rbp),%eax
    b066:	89 c2                	mov    %eax,%edx
    b068:	48 8d 35 3f 45 00 00 	lea    0x453f(%rip),%rsi        # f5ae <g_2089+0x145e>
    b06f:	48 89 cf             	mov    %rcx,%rdi
    b072:	e8 7c 96 ff ff       	callq  46f3 <transparent_crc>
    b077:	8b 05 b3 80 00 00    	mov    0x80b3(%rip),%eax        # 13130 <g_175+0x10>
    b07d:	48 98                	cltq   
    b07f:	8b 55 fc             	mov    -0x4(%rbp),%edx
    b082:	48 8d 35 2e 45 00 00 	lea    0x452e(%rip),%rsi        # f5b7 <g_2089+0x1467>
    b089:	48 89 c7             	mov    %rax,%rdi
    b08c:	e8 62 96 ff ff       	callq  46f3 <transparent_crc>
    b091:	0f b6 05 9c 80 00 00 	movzbl 0x809c(%rip),%eax        # 13134 <g_175+0x14>
    b098:	48 0f be c0          	movsbq %al,%rax
    b09c:	8b 55 fc             	mov    -0x4(%rbp),%edx
    b09f:	48 8d 35 1a 45 00 00 	lea    0x451a(%rip),%rsi        # f5c0 <g_2089+0x1470>
    b0a6:	48 89 c7             	mov    %rax,%rdi
    b0a9:	e8 45 96 ff ff       	callq  46f3 <transparent_crc>
    b0ae:	8b 05 84 80 00 00    	mov    0x8084(%rip),%eax        # 13138 <g_175+0x18>
    b0b4:	89 c1                	mov    %eax,%ecx
    b0b6:	8b 45 fc             	mov    -0x4(%rbp),%eax
    b0b9:	89 c2                	mov    %eax,%edx
    b0bb:	48 8d 35 07 45 00 00 	lea    0x4507(%rip),%rsi        # f5c9 <g_2089+0x1479>
    b0c2:	48 89 cf             	mov    %rcx,%rdi
    b0c5:	e8 29 96 ff ff       	callq  46f3 <transparent_crc>
    b0ca:	48 8b 05 6f 80 00 00 	mov    0x806f(%rip),%rax        # 13140 <g_175+0x20>
    b0d1:	48 89 c1             	mov    %rax,%rcx
    b0d4:	8b 45 fc             	mov    -0x4(%rbp),%eax
    b0d7:	89 c2                	mov    %eax,%edx
    b0d9:	48 8d 35 f2 44 00 00 	lea    0x44f2(%rip),%rsi        # f5d2 <g_2089+0x1482>
    b0e0:	48 89 cf             	mov    %rcx,%rdi
    b0e3:	e8 0b 96 ff ff       	callq  46f3 <transparent_crc>
    b0e8:	8b 05 5a 80 00 00    	mov    0x805a(%rip),%eax        # 13148 <g_175+0x28>
    b0ee:	89 c1                	mov    %eax,%ecx
    b0f0:	8b 45 fc             	mov    -0x4(%rbp),%eax
    b0f3:	89 c2                	mov    %eax,%edx
    b0f5:	48 8d 35 df 44 00 00 	lea    0x44df(%rip),%rsi        # f5db <g_2089+0x148b>
    b0fc:	48 89 cf             	mov    %rcx,%rdi
    b0ff:	e8 ef 95 ff ff       	callq  46f3 <transparent_crc>
    b104:	8b 05 42 80 00 00    	mov    0x8042(%rip),%eax        # 1314c <g_175+0x2c>
    b10a:	48 98                	cltq   
    b10c:	8b 55 fc             	mov    -0x4(%rbp),%edx
    b10f:	48 8d 35 ce 44 00 00 	lea    0x44ce(%rip),%rsi        # f5e4 <g_2089+0x1494>
    b116:	48 89 c7             	mov    %rax,%rdi
    b119:	e8 d5 95 ff ff       	callq  46f3 <transparent_crc>
    b11e:	8b 05 3c 80 00 00    	mov    0x803c(%rip),%eax        # 13160 <g_189>
    b124:	48 98                	cltq   
    b126:	8b 55 fc             	mov    -0x4(%rbp),%edx
    b129:	48 8d 35 bd 44 00 00 	lea    0x44bd(%rip),%rsi        # f5ed <g_2089+0x149d>
    b130:	48 89 c7             	mov    %rax,%rdi
    b133:	e8 bb 95 ff ff       	callq  46f3 <transparent_crc>
    b138:	48 8b 05 29 80 00 00 	mov    0x8029(%rip),%rax        # 13168 <g_189+0x8>
    b13f:	48 89 c1             	mov    %rax,%rcx
    b142:	8b 45 fc             	mov    -0x4(%rbp),%eax
    b145:	89 c2                	mov    %eax,%edx
    b147:	48 8d 35 a8 44 00 00 	lea    0x44a8(%rip),%rsi        # f5f6 <g_2089+0x14a6>
    b14e:	48 89 cf             	mov    %rcx,%rdi
    b151:	e8 9d 95 ff ff       	callq  46f3 <transparent_crc>
    b156:	8b 05 14 80 00 00    	mov    0x8014(%rip),%eax        # 13170 <g_189+0x10>
    b15c:	48 98                	cltq   
    b15e:	8b 55 fc             	mov    -0x4(%rbp),%edx
    b161:	48 8d 35 97 44 00 00 	lea    0x4497(%rip),%rsi        # f5ff <g_2089+0x14af>
    b168:	48 89 c7             	mov    %rax,%rdi
    b16b:	e8 83 95 ff ff       	callq  46f3 <transparent_crc>
    b170:	0f b6 05 fd 7f 00 00 	movzbl 0x7ffd(%rip),%eax        # 13174 <g_189+0x14>
    b177:	48 0f be c0          	movsbq %al,%rax
    b17b:	8b 55 fc             	mov    -0x4(%rbp),%edx
    b17e:	48 8d 35 83 44 00 00 	lea    0x4483(%rip),%rsi        # f608 <g_2089+0x14b8>
    b185:	48 89 c7             	mov    %rax,%rdi
    b188:	e8 66 95 ff ff       	callq  46f3 <transparent_crc>
    b18d:	8b 05 e5 7f 00 00    	mov    0x7fe5(%rip),%eax        # 13178 <g_189+0x18>
    b193:	89 c1                	mov    %eax,%ecx
    b195:	8b 45 fc             	mov    -0x4(%rbp),%eax
    b198:	89 c2                	mov    %eax,%edx
    b19a:	48 8d 35 70 44 00 00 	lea    0x4470(%rip),%rsi        # f611 <g_2089+0x14c1>
    b1a1:	48 89 cf             	mov    %rcx,%rdi
    b1a4:	e8 4a 95 ff ff       	callq  46f3 <transparent_crc>
    b1a9:	48 8b 05 d0 7f 00 00 	mov    0x7fd0(%rip),%rax        # 13180 <g_189+0x20>
    b1b0:	48 89 c1             	mov    %rax,%rcx
    b1b3:	8b 45 fc             	mov    -0x4(%rbp),%eax
    b1b6:	89 c2                	mov    %eax,%edx
    b1b8:	48 8d 35 5b 44 00 00 	lea    0x445b(%rip),%rsi        # f61a <g_2089+0x14ca>
    b1bf:	48 89 cf             	mov    %rcx,%rdi
    b1c2:	e8 2c 95 ff ff       	callq  46f3 <transparent_crc>
    b1c7:	8b 05 bb 7f 00 00    	mov    0x7fbb(%rip),%eax        # 13188 <g_189+0x28>
    b1cd:	89 c1                	mov    %eax,%ecx
    b1cf:	8b 45 fc             	mov    -0x4(%rbp),%eax
    b1d2:	89 c2                	mov    %eax,%edx
    b1d4:	48 8d 35 48 44 00 00 	lea    0x4448(%rip),%rsi        # f623 <g_2089+0x14d3>
    b1db:	48 89 cf             	mov    %rcx,%rdi
    b1de:	e8 10 95 ff ff       	callq  46f3 <transparent_crc>
    b1e3:	8b 05 a3 7f 00 00    	mov    0x7fa3(%rip),%eax        # 1318c <g_189+0x2c>
    b1e9:	48 98                	cltq   
    b1eb:	8b 55 fc             	mov    -0x4(%rbp),%edx
    b1ee:	48 8d 35 37 44 00 00 	lea    0x4437(%rip),%rsi        # f62c <g_2089+0x14dc>
    b1f5:	48 89 c7             	mov    %rax,%rdi
    b1f8:	e8 f6 94 ff ff       	callq  46f3 <transparent_crc>
    b1fd:	8b 05 9d 7f 00 00    	mov    0x7f9d(%rip),%eax        # 131a0 <g_209>
    b203:	48 98                	cltq   
    b205:	8b 55 fc             	mov    -0x4(%rbp),%edx
    b208:	48 8d 35 26 44 00 00 	lea    0x4426(%rip),%rsi        # f635 <g_2089+0x14e5>
    b20f:	48 89 c7             	mov    %rax,%rdi
    b212:	e8 dc 94 ff ff       	callq  46f3 <transparent_crc>
    b217:	48 8b 05 8a 7f 00 00 	mov    0x7f8a(%rip),%rax        # 131a8 <g_209+0x8>
    b21e:	48 89 c1             	mov    %rax,%rcx
    b221:	8b 45 fc             	mov    -0x4(%rbp),%eax
    b224:	89 c2                	mov    %eax,%edx
    b226:	48 8d 35 11 44 00 00 	lea    0x4411(%rip),%rsi        # f63e <g_2089+0x14ee>
    b22d:	48 89 cf             	mov    %rcx,%rdi
    b230:	e8 be 94 ff ff       	callq  46f3 <transparent_crc>
    b235:	8b 05 75 7f 00 00    	mov    0x7f75(%rip),%eax        # 131b0 <g_209+0x10>
    b23b:	48 98                	cltq   
    b23d:	8b 55 fc             	mov    -0x4(%rbp),%edx
    b240:	48 8d 35 00 44 00 00 	lea    0x4400(%rip),%rsi        # f647 <g_2089+0x14f7>
    b247:	48 89 c7             	mov    %rax,%rdi
    b24a:	e8 a4 94 ff ff       	callq  46f3 <transparent_crc>
    b24f:	0f b6 05 5e 7f 00 00 	movzbl 0x7f5e(%rip),%eax        # 131b4 <g_209+0x14>
    b256:	48 0f be c0          	movsbq %al,%rax
    b25a:	8b 55 fc             	mov    -0x4(%rbp),%edx
    b25d:	48 8d 35 ec 43 00 00 	lea    0x43ec(%rip),%rsi        # f650 <g_2089+0x1500>
    b264:	48 89 c7             	mov    %rax,%rdi
    b267:	e8 87 94 ff ff       	callq  46f3 <transparent_crc>
    b26c:	8b 05 46 7f 00 00    	mov    0x7f46(%rip),%eax        # 131b8 <g_209+0x18>
    b272:	89 c1                	mov    %eax,%ecx
    b274:	8b 45 fc             	mov    -0x4(%rbp),%eax
    b277:	89 c2                	mov    %eax,%edx
    b279:	48 8d 35 d9 43 00 00 	lea    0x43d9(%rip),%rsi        # f659 <g_2089+0x1509>
    b280:	48 89 cf             	mov    %rcx,%rdi
    b283:	e8 6b 94 ff ff       	callq  46f3 <transparent_crc>
    b288:	48 8b 05 31 7f 00 00 	mov    0x7f31(%rip),%rax        # 131c0 <g_209+0x20>
    b28f:	48 89 c1             	mov    %rax,%rcx
    b292:	8b 45 fc             	mov    -0x4(%rbp),%eax
    b295:	89 c2                	mov    %eax,%edx
    b297:	48 8d 35 c4 43 00 00 	lea    0x43c4(%rip),%rsi        # f662 <g_2089+0x1512>
    b29e:	48 89 cf             	mov    %rcx,%rdi
    b2a1:	e8 4d 94 ff ff       	callq  46f3 <transparent_crc>
    b2a6:	8b 05 1c 7f 00 00    	mov    0x7f1c(%rip),%eax        # 131c8 <g_209+0x28>
    b2ac:	89 c1                	mov    %eax,%ecx
    b2ae:	8b 45 fc             	mov    -0x4(%rbp),%eax
    b2b1:	89 c2                	mov    %eax,%edx
    b2b3:	48 8d 35 b1 43 00 00 	lea    0x43b1(%rip),%rsi        # f66b <g_2089+0x151b>
    b2ba:	48 89 cf             	mov    %rcx,%rdi
    b2bd:	e8 31 94 ff ff       	callq  46f3 <transparent_crc>
    b2c2:	8b 05 04 7f 00 00    	mov    0x7f04(%rip),%eax        # 131cc <g_209+0x2c>
    b2c8:	48 98                	cltq   
    b2ca:	8b 55 fc             	mov    -0x4(%rbp),%edx
    b2cd:	48 8d 35 a0 43 00 00 	lea    0x43a0(%rip),%rsi        # f674 <g_2089+0x1524>
    b2d4:	48 89 c7             	mov    %rax,%rdi
    b2d7:	e8 17 94 ff ff       	callq  46f3 <transparent_crc>
    b2dc:	0f b6 05 ed 7e 00 00 	movzbl 0x7eed(%rip),%eax        # 131d0 <g_212>
    b2e3:	0f b6 c0             	movzbl %al,%eax
    b2e6:	8b 55 fc             	mov    -0x4(%rbp),%edx
    b2e9:	48 8d 35 8d 43 00 00 	lea    0x438d(%rip),%rsi        # f67d <g_2089+0x152d>
    b2f0:	48 89 c7             	mov    %rax,%rdi
    b2f3:	e8 fb 93 ff ff       	callq  46f3 <transparent_crc>
    b2f8:	0f b7 05 d3 7e 00 00 	movzwl 0x7ed3(%rip),%eax        # 131d2 <g_232>
    b2ff:	48 0f bf c0          	movswq %ax,%rax
    b303:	8b 55 fc             	mov    -0x4(%rbp),%edx
    b306:	48 8d 35 76 43 00 00 	lea    0x4376(%rip),%rsi        # f683 <g_2089+0x1533>
    b30d:	48 89 c7             	mov    %rax,%rdi
    b310:	e8 de 93 ff ff       	callq  46f3 <transparent_crc>
    b315:	0f b6 05 8c f9 00 00 	movzbl 0xf98c(%rip),%eax        # 1aca8 <g_234>
    b31c:	48 0f be c0          	movsbq %al,%rax
    b320:	8b 55 fc             	mov    -0x4(%rbp),%edx
    b323:	48 8d 35 5f 43 00 00 	lea    0x435f(%rip),%rsi        # f689 <g_2089+0x1539>
    b32a:	48 89 c7             	mov    %rax,%rdi
    b32d:	e8 c1 93 ff ff       	callq  46f3 <transparent_crc>
    b332:	8b 05 a8 7e 00 00    	mov    0x7ea8(%rip),%eax        # 131e0 <g_237>
    b338:	48 98                	cltq   
    b33a:	8b 55 fc             	mov    -0x4(%rbp),%edx
    b33d:	48 8d 35 4b 43 00 00 	lea    0x434b(%rip),%rsi        # f68f <g_2089+0x153f>
    b344:	48 89 c7             	mov    %rax,%rdi
    b347:	e8 a7 93 ff ff       	callq  46f3 <transparent_crc>
    b34c:	48 8b 05 95 7e 00 00 	mov    0x7e95(%rip),%rax        # 131e8 <g_237+0x8>
    b353:	48 89 c1             	mov    %rax,%rcx
    b356:	8b 45 fc             	mov    -0x4(%rbp),%eax
    b359:	89 c2                	mov    %eax,%edx
    b35b:	48 8d 35 36 43 00 00 	lea    0x4336(%rip),%rsi        # f698 <g_2089+0x1548>
    b362:	48 89 cf             	mov    %rcx,%rdi
    b365:	e8 89 93 ff ff       	callq  46f3 <transparent_crc>
    b36a:	8b 05 80 7e 00 00    	mov    0x7e80(%rip),%eax        # 131f0 <g_237+0x10>
    b370:	48 98                	cltq   
    b372:	8b 55 fc             	mov    -0x4(%rbp),%edx
    b375:	48 8d 35 25 43 00 00 	lea    0x4325(%rip),%rsi        # f6a1 <g_2089+0x1551>
    b37c:	48 89 c7             	mov    %rax,%rdi
    b37f:	e8 6f 93 ff ff       	callq  46f3 <transparent_crc>
    b384:	0f b6 05 69 7e 00 00 	movzbl 0x7e69(%rip),%eax        # 131f4 <g_237+0x14>
    b38b:	48 0f be c0          	movsbq %al,%rax
    b38f:	8b 55 fc             	mov    -0x4(%rbp),%edx
    b392:	48 8d 35 11 43 00 00 	lea    0x4311(%rip),%rsi        # f6aa <g_2089+0x155a>
    b399:	48 89 c7             	mov    %rax,%rdi
    b39c:	e8 52 93 ff ff       	callq  46f3 <transparent_crc>
    b3a1:	8b 05 51 7e 00 00    	mov    0x7e51(%rip),%eax        # 131f8 <g_237+0x18>
    b3a7:	89 c1                	mov    %eax,%ecx
    b3a9:	8b 45 fc             	mov    -0x4(%rbp),%eax
    b3ac:	89 c2                	mov    %eax,%edx
    b3ae:	48 8d 35 fe 42 00 00 	lea    0x42fe(%rip),%rsi        # f6b3 <g_2089+0x1563>
    b3b5:	48 89 cf             	mov    %rcx,%rdi
    b3b8:	e8 36 93 ff ff       	callq  46f3 <transparent_crc>
    b3bd:	48 8b 05 3c 7e 00 00 	mov    0x7e3c(%rip),%rax        # 13200 <g_237+0x20>
    b3c4:	48 89 c1             	mov    %rax,%rcx
    b3c7:	8b 45 fc             	mov    -0x4(%rbp),%eax
    b3ca:	89 c2                	mov    %eax,%edx
    b3cc:	48 8d 35 e9 42 00 00 	lea    0x42e9(%rip),%rsi        # f6bc <g_2089+0x156c>
    b3d3:	48 89 cf             	mov    %rcx,%rdi
    b3d6:	e8 18 93 ff ff       	callq  46f3 <transparent_crc>
    b3db:	8b 05 27 7e 00 00    	mov    0x7e27(%rip),%eax        # 13208 <g_237+0x28>
    b3e1:	89 c1                	mov    %eax,%ecx
    b3e3:	8b 45 fc             	mov    -0x4(%rbp),%eax
    b3e6:	89 c2                	mov    %eax,%edx
    b3e8:	48 8d 35 d6 42 00 00 	lea    0x42d6(%rip),%rsi        # f6c5 <g_2089+0x1575>
    b3ef:	48 89 cf             	mov    %rcx,%rdi
    b3f2:	e8 fc 92 ff ff       	callq  46f3 <transparent_crc>
    b3f7:	8b 05 0f 7e 00 00    	mov    0x7e0f(%rip),%eax        # 1320c <g_237+0x2c>
    b3fd:	48 98                	cltq   
    b3ff:	8b 55 fc             	mov    -0x4(%rbp),%edx
    b402:	48 8d 35 c5 42 00 00 	lea    0x42c5(%rip),%rsi        # f6ce <g_2089+0x157e>
    b409:	48 89 c7             	mov    %rax,%rdi
    b40c:	e8 e2 92 ff ff       	callq  46f3 <transparent_crc>
    b411:	c7 45 f0 00 00 00 00 	movl   $0x0,-0x10(%rbp)
    b418:	e9 81 03 00 00       	jmpq   b79e <main+0xba7>
    b41d:	c7 45 f4 00 00 00 00 	movl   $0x0,-0xc(%rbp)
    b424:	e9 67 03 00 00       	jmpq   b790 <main+0xb99>
    b429:	c7 45 f8 00 00 00 00 	movl   $0x0,-0x8(%rbp)
    b430:	e9 4d 03 00 00       	jmpq   b782 <main+0xb8b>
    b435:	8b 45 f8             	mov    -0x8(%rbp),%eax
    b438:	48 98                	cltq   
    b43a:	8b 55 f4             	mov    -0xc(%rbp),%edx
    b43d:	48 63 ca             	movslq %edx,%rcx
    b440:	8b 55 f0             	mov    -0x10(%rbp),%edx
    b443:	48 63 f2             	movslq %edx,%rsi
    b446:	48 89 c2             	mov    %rax,%rdx
    b449:	48 01 d2             	add    %rdx,%rdx
    b44c:	48 01 c2             	add    %rax,%rdx
    b44f:	48 89 d0             	mov    %rdx,%rax
    b452:	48 c1 e0 04          	shl    $0x4,%rax
    b456:	48 89 c2             	mov    %rax,%rdx
    b459:	48 89 c8             	mov    %rcx,%rax
    b45c:	48 c1 e0 02          	shl    $0x2,%rax
    b460:	48 01 c8             	add    %rcx,%rax
    b463:	48 c1 e0 02          	shl    $0x2,%rax
    b467:	48 01 c8             	add    %rcx,%rax
    b46a:	48 c1 e0 04          	shl    $0x4,%rax
    b46e:	48 01 c2             	add    %rax,%rdx
    b471:	48 69 c6 90 06 00 00 	imul   $0x690,%rsi,%rax
    b478:	48 01 c2             	add    %rax,%rdx
    b47b:	48 8d 05 9e 7d 00 00 	lea    0x7d9e(%rip),%rax        # 13220 <g_239>
    b482:	48 01 d0             	add    %rdx,%rax
    b485:	8b 00                	mov    (%rax),%eax
    b487:	48 98                	cltq   
    b489:	8b 55 fc             	mov    -0x4(%rbp),%edx
    b48c:	48 8d 35 44 42 00 00 	lea    0x4244(%rip),%rsi        # f6d7 <g_2089+0x1587>
    b493:	48 89 c7             	mov    %rax,%rdi
    b496:	e8 58 92 ff ff       	callq  46f3 <transparent_crc>
    b49b:	8b 45 f8             	mov    -0x8(%rbp),%eax
    b49e:	48 98                	cltq   
    b4a0:	8b 55 f4             	mov    -0xc(%rbp),%edx
    b4a3:	48 63 ca             	movslq %edx,%rcx
    b4a6:	8b 55 f0             	mov    -0x10(%rbp),%edx
    b4a9:	48 63 f2             	movslq %edx,%rsi
    b4ac:	48 89 c2             	mov    %rax,%rdx
    b4af:	48 01 d2             	add    %rdx,%rdx
    b4b2:	48 01 c2             	add    %rax,%rdx
    b4b5:	48 89 d0             	mov    %rdx,%rax
    b4b8:	48 c1 e0 04          	shl    $0x4,%rax
    b4bc:	48 89 c2             	mov    %rax,%rdx
    b4bf:	48 89 c8             	mov    %rcx,%rax
    b4c2:	48 c1 e0 02          	shl    $0x2,%rax
    b4c6:	48 01 c8             	add    %rcx,%rax
    b4c9:	48 c1 e0 02          	shl    $0x2,%rax
    b4cd:	48 01 c8             	add    %rcx,%rax
    b4d0:	48 c1 e0 04          	shl    $0x4,%rax
    b4d4:	48 01 c2             	add    %rax,%rdx
    b4d7:	48 69 c6 90 06 00 00 	imul   $0x690,%rsi,%rax
    b4de:	48 01 c2             	add    %rax,%rdx
    b4e1:	48 8d 05 40 7d 00 00 	lea    0x7d40(%rip),%rax        # 13228 <g_239+0x8>
    b4e8:	48 01 d0             	add    %rdx,%rax
    b4eb:	48 8b 00             	mov    (%rax),%rax
    b4ee:	48 89 c1             	mov    %rax,%rcx
    b4f1:	8b 45 fc             	mov    -0x4(%rbp),%eax
    b4f4:	89 c2                	mov    %eax,%edx
    b4f6:	48 8d 35 ec 41 00 00 	lea    0x41ec(%rip),%rsi        # f6e9 <g_2089+0x1599>
    b4fd:	48 89 cf             	mov    %rcx,%rdi
    b500:	e8 ee 91 ff ff       	callq  46f3 <transparent_crc>
    b505:	8b 45 f8             	mov    -0x8(%rbp),%eax
    b508:	48 63 c8             	movslq %eax,%rcx
    b50b:	8b 45 f4             	mov    -0xc(%rbp),%eax
    b50e:	48 63 d0             	movslq %eax,%rdx
    b511:	8b 45 f0             	mov    -0x10(%rbp),%eax
    b514:	48 63 f0             	movslq %eax,%rsi
    b517:	48 89 c8             	mov    %rcx,%rax
    b51a:	48 01 c0             	add    %rax,%rax
    b51d:	48 01 c8             	add    %rcx,%rax
    b520:	48 c1 e0 04          	shl    $0x4,%rax
    b524:	48 69 ce 90 06 00 00 	imul   $0x690,%rsi,%rcx
    b52b:	48 01 c1             	add    %rax,%rcx
    b52e:	48 89 d0             	mov    %rdx,%rax
    b531:	48 c1 e0 02          	shl    $0x2,%rax
    b535:	48 01 d0             	add    %rdx,%rax
    b538:	48 c1 e0 02          	shl    $0x2,%rax
    b53c:	48 01 d0             	add    %rdx,%rax
    b53f:	48 c1 e0 04          	shl    $0x4,%rax
    b543:	48 8d 14 01          	lea    (%rcx,%rax,1),%rdx
    b547:	48 8d 05 e2 7c 00 00 	lea    0x7ce2(%rip),%rax        # 13230 <g_239+0x10>
    b54e:	48 01 d0             	add    %rdx,%rax
    b551:	8b 00                	mov    (%rax),%eax
    b553:	48 98                	cltq   
    b555:	8b 55 fc             	mov    -0x4(%rbp),%edx
    b558:	48 8d 35 9c 41 00 00 	lea    0x419c(%rip),%rsi        # f6fb <g_2089+0x15ab>
    b55f:	48 89 c7             	mov    %rax,%rdi
    b562:	e8 8c 91 ff ff       	callq  46f3 <transparent_crc>
    b567:	8b 45 f8             	mov    -0x8(%rbp),%eax
    b56a:	48 63 c8             	movslq %eax,%rcx
    b56d:	8b 45 f4             	mov    -0xc(%rbp),%eax
    b570:	48 63 d0             	movslq %eax,%rdx
    b573:	8b 45 f0             	mov    -0x10(%rbp),%eax
    b576:	48 63 f0             	movslq %eax,%rsi
    b579:	48 89 c8             	mov    %rcx,%rax
    b57c:	48 01 c0             	add    %rax,%rax
    b57f:	48 01 c8             	add    %rcx,%rax
    b582:	48 c1 e0 04          	shl    $0x4,%rax
    b586:	48 69 ce 90 06 00 00 	imul   $0x690,%rsi,%rcx
    b58d:	48 01 c1             	add    %rax,%rcx
    b590:	48 89 d0             	mov    %rdx,%rax
    b593:	48 c1 e0 02          	shl    $0x2,%rax
    b597:	48 01 d0             	add    %rdx,%rax
    b59a:	48 c1 e0 02          	shl    $0x2,%rax
    b59e:	48 01 d0             	add    %rdx,%rax
    b5a1:	48 c1 e0 04          	shl    $0x4,%rax
    b5a5:	48 8d 14 01          	lea    (%rcx,%rax,1),%rdx
    b5a9:	48 8d 05 84 7c 00 00 	lea    0x7c84(%rip),%rax        # 13234 <g_239+0x14>
    b5b0:	48 01 d0             	add    %rdx,%rax
    b5b3:	0f b6 00             	movzbl (%rax),%eax
    b5b6:	48 0f be c0          	movsbq %al,%rax
    b5ba:	8b 55 fc             	mov    -0x4(%rbp),%edx
    b5bd:	48 8d 35 49 41 00 00 	lea    0x4149(%rip),%rsi        # f70d <g_2089+0x15bd>
    b5c4:	48 89 c7             	mov    %rax,%rdi
    b5c7:	e8 27 91 ff ff       	callq  46f3 <transparent_crc>
    b5cc:	8b 45 f8             	mov    -0x8(%rbp),%eax
    b5cf:	48 63 c8             	movslq %eax,%rcx
    b5d2:	8b 45 f4             	mov    -0xc(%rbp),%eax
    b5d5:	48 63 d0             	movslq %eax,%rdx
    b5d8:	8b 45 f0             	mov    -0x10(%rbp),%eax
    b5db:	48 63 f0             	movslq %eax,%rsi
    b5de:	48 89 c8             	mov    %rcx,%rax
    b5e1:	48 01 c0             	add    %rax,%rax
    b5e4:	48 01 c8             	add    %rcx,%rax
    b5e7:	48 c1 e0 04          	shl    $0x4,%rax
    b5eb:	48 69 ce 90 06 00 00 	imul   $0x690,%rsi,%rcx
    b5f2:	48 01 c1             	add    %rax,%rcx
    b5f5:	48 89 d0             	mov    %rdx,%rax
    b5f8:	48 c1 e0 02          	shl    $0x2,%rax
    b5fc:	48 01 d0             	add    %rdx,%rax
    b5ff:	48 c1 e0 02          	shl    $0x2,%rax
    b603:	48 01 d0             	add    %rdx,%rax
    b606:	48 c1 e0 04          	shl    $0x4,%rax
    b60a:	48 8d 14 01          	lea    (%rcx,%rax,1),%rdx
    b60e:	48 8d 05 23 7c 00 00 	lea    0x7c23(%rip),%rax        # 13238 <g_239+0x18>
    b615:	48 01 d0             	add    %rdx,%rax
    b618:	8b 00                	mov    (%rax),%eax
    b61a:	89 c1                	mov    %eax,%ecx
    b61c:	8b 45 fc             	mov    -0x4(%rbp),%eax
    b61f:	89 c2                	mov    %eax,%edx
    b621:	48 8d 35 f7 40 00 00 	lea    0x40f7(%rip),%rsi        # f71f <g_2089+0x15cf>
    b628:	48 89 cf             	mov    %rcx,%rdi
    b62b:	e8 c3 90 ff ff       	callq  46f3 <transparent_crc>
    b630:	8b 45 f8             	mov    -0x8(%rbp),%eax
    b633:	48 63 c8             	movslq %eax,%rcx
    b636:	8b 45 f4             	mov    -0xc(%rbp),%eax
    b639:	48 63 d0             	movslq %eax,%rdx
    b63c:	8b 45 f0             	mov    -0x10(%rbp),%eax
    b63f:	48 63 f0             	movslq %eax,%rsi
    b642:	48 89 c8             	mov    %rcx,%rax
    b645:	48 01 c0             	add    %rax,%rax
    b648:	48 01 c8             	add    %rcx,%rax
    b64b:	48 c1 e0 04          	shl    $0x4,%rax
    b64f:	48 69 ce 90 06 00 00 	imul   $0x690,%rsi,%rcx
    b656:	48 01 c1             	add    %rax,%rcx
    b659:	48 89 d0             	mov    %rdx,%rax
    b65c:	48 c1 e0 02          	shl    $0x2,%rax
    b660:	48 01 d0             	add    %rdx,%rax
    b663:	48 c1 e0 02          	shl    $0x2,%rax
    b667:	48 01 d0             	add    %rdx,%rax
    b66a:	48 c1 e0 04          	shl    $0x4,%rax
    b66e:	48 8d 14 01          	lea    (%rcx,%rax,1),%rdx
    b672:	48 8d 05 c7 7b 00 00 	lea    0x7bc7(%rip),%rax        # 13240 <g_239+0x20>
    b679:	48 01 d0             	add    %rdx,%rax
    b67c:	48 8b 00             	mov    (%rax),%rax
    b67f:	48 89 c1             	mov    %rax,%rcx
    b682:	8b 45 fc             	mov    -0x4(%rbp),%eax
    b685:	89 c2                	mov    %eax,%edx
    b687:	48 8d 35 a3 40 00 00 	lea    0x40a3(%rip),%rsi        # f731 <g_2089+0x15e1>
    b68e:	48 89 cf             	mov    %rcx,%rdi
    b691:	e8 5d 90 ff ff       	callq  46f3 <transparent_crc>
    b696:	8b 45 f8             	mov    -0x8(%rbp),%eax
    b699:	48 63 c8             	movslq %eax,%rcx
    b69c:	8b 45 f4             	mov    -0xc(%rbp),%eax
    b69f:	48 63 d0             	movslq %eax,%rdx
    b6a2:	8b 45 f0             	mov    -0x10(%rbp),%eax
    b6a5:	48 63 f0             	movslq %eax,%rsi
    b6a8:	48 89 c8             	mov    %rcx,%rax
    b6ab:	48 01 c0             	add    %rax,%rax
    b6ae:	48 01 c8             	add    %rcx,%rax
    b6b1:	48 c1 e0 04          	shl    $0x4,%rax
    b6b5:	48 69 ce 90 06 00 00 	imul   $0x690,%rsi,%rcx
    b6bc:	48 01 c1             	add    %rax,%rcx
    b6bf:	48 89 d0             	mov    %rdx,%rax
    b6c2:	48 c1 e0 02          	shl    $0x2,%rax
    b6c6:	48 01 d0             	add    %rdx,%rax
    b6c9:	48 c1 e0 02          	shl    $0x2,%rax
    b6cd:	48 01 d0             	add    %rdx,%rax
    b6d0:	48 c1 e0 04          	shl    $0x4,%rax
    b6d4:	48 8d 14 01          	lea    (%rcx,%rax,1),%rdx
    b6d8:	48 8d 05 69 7b 00 00 	lea    0x7b69(%rip),%rax        # 13248 <g_239+0x28>
    b6df:	48 01 d0             	add    %rdx,%rax
    b6e2:	8b 00                	mov    (%rax),%eax
    b6e4:	89 c1                	mov    %eax,%ecx
    b6e6:	8b 45 fc             	mov    -0x4(%rbp),%eax
    b6e9:	89 c2                	mov    %eax,%edx
    b6eb:	48 8d 35 51 40 00 00 	lea    0x4051(%rip),%rsi        # f743 <g_2089+0x15f3>
    b6f2:	48 89 cf             	mov    %rcx,%rdi
    b6f5:	e8 f9 8f ff ff       	callq  46f3 <transparent_crc>
    b6fa:	8b 45 f8             	mov    -0x8(%rbp),%eax
    b6fd:	48 63 c8             	movslq %eax,%rcx
    b700:	8b 45 f4             	mov    -0xc(%rbp),%eax
    b703:	48 63 d0             	movslq %eax,%rdx
    b706:	8b 45 f0             	mov    -0x10(%rbp),%eax
    b709:	48 63 f0             	movslq %eax,%rsi
    b70c:	48 89 c8             	mov    %rcx,%rax
    b70f:	48 01 c0             	add    %rax,%rax
    b712:	48 01 c8             	add    %rcx,%rax
    b715:	48 c1 e0 04          	shl    $0x4,%rax
    b719:	48 69 ce 90 06 00 00 	imul   $0x690,%rsi,%rcx
    b720:	48 01 c1             	add    %rax,%rcx
    b723:	48 89 d0             	mov    %rdx,%rax
    b726:	48 c1 e0 02          	shl    $0x2,%rax
    b72a:	48 01 d0             	add    %rdx,%rax
    b72d:	48 c1 e0 02          	shl    $0x2,%rax
    b731:	48 01 d0             	add    %rdx,%rax
    b734:	48 c1 e0 04          	shl    $0x4,%rax
    b738:	48 8d 14 01          	lea    (%rcx,%rax,1),%rdx
    b73c:	48 8d 05 09 7b 00 00 	lea    0x7b09(%rip),%rax        # 1324c <g_239+0x2c>
    b743:	48 01 d0             	add    %rdx,%rax
    b746:	8b 00                	mov    (%rax),%eax
    b748:	48 98                	cltq   
    b74a:	8b 55 fc             	mov    -0x4(%rbp),%edx
    b74d:	48 8d 35 01 40 00 00 	lea    0x4001(%rip),%rsi        # f755 <g_2089+0x1605>
    b754:	48 89 c7             	mov    %rax,%rdi
    b757:	e8 97 8f ff ff       	callq  46f3 <transparent_crc>
    b75c:	83 7d fc 00          	cmpl   $0x0,-0x4(%rbp)
    b760:	74 1c                	je     b77e <main+0xb87>
    b762:	8b 4d f8             	mov    -0x8(%rbp),%ecx
    b765:	8b 55 f4             	mov    -0xc(%rbp),%edx
    b768:	8b 45 f0             	mov    -0x10(%rbp),%eax
    b76b:	89 c6                	mov    %eax,%esi
    b76d:	48 8d 3d 3f 3d 00 00 	lea    0x3d3f(%rip),%rdi        # f4b3 <g_2089+0x1363>
    b774:	b8 00 00 00 00       	mov    $0x0,%eax
    b779:	e8 02 79 ff ff       	callq  3080 <printf@plt>
    b77e:	83 45 f8 01          	addl   $0x1,-0x8(%rbp)
    b782:	83 7d f8 06          	cmpl   $0x6,-0x8(%rbp)
    b786:	0f 8e a9 fc ff ff    	jle    b435 <main+0x83e>
    b78c:	83 45 f4 01          	addl   $0x1,-0xc(%rbp)
    b790:	83 7d f4 04          	cmpl   $0x4,-0xc(%rbp)
    b794:	0f 8e 8f fc ff ff    	jle    b429 <main+0x832>
    b79a:	83 45 f0 01          	addl   $0x1,-0x10(%rbp)
    b79e:	83 7d f0 06          	cmpl   $0x6,-0x10(%rbp)
    b7a2:	0f 8e 75 fc ff ff    	jle    b41d <main+0x826>
    b7a8:	48 8b 05 61 a8 00 00 	mov    0xa861(%rip),%rax        # 16010 <g_271>
    b7af:	8b 55 fc             	mov    -0x4(%rbp),%edx
    b7b2:	48 8d 35 ae 3f 00 00 	lea    0x3fae(%rip),%rsi        # f767 <g_2089+0x1617>
    b7b9:	48 89 c7             	mov    %rax,%rdi
    b7bc:	e8 32 8f ff ff       	callq  46f3 <transparent_crc>
    b7c1:	8b 05 59 a8 00 00    	mov    0xa859(%rip),%eax        # 16020 <g_302>
    b7c7:	48 98                	cltq   
    b7c9:	8b 55 fc             	mov    -0x4(%rbp),%edx
    b7cc:	48 8d 35 9a 3f 00 00 	lea    0x3f9a(%rip),%rsi        # f76d <g_2089+0x161d>
    b7d3:	48 89 c7             	mov    %rax,%rdi
    b7d6:	e8 18 8f ff ff       	callq  46f3 <transparent_crc>
    b7db:	48 8b 05 46 a8 00 00 	mov    0xa846(%rip),%rax        # 16028 <g_302+0x8>
    b7e2:	48 89 c1             	mov    %rax,%rcx
    b7e5:	8b 45 fc             	mov    -0x4(%rbp),%eax
    b7e8:	89 c2                	mov    %eax,%edx
    b7ea:	48 8d 35 85 3f 00 00 	lea    0x3f85(%rip),%rsi        # f776 <g_2089+0x1626>
    b7f1:	48 89 cf             	mov    %rcx,%rdi
    b7f4:	e8 fa 8e ff ff       	callq  46f3 <transparent_crc>
    b7f9:	8b 05 31 a8 00 00    	mov    0xa831(%rip),%eax        # 16030 <g_302+0x10>
    b7ff:	48 98                	cltq   
    b801:	8b 55 fc             	mov    -0x4(%rbp),%edx
    b804:	48 8d 35 74 3f 00 00 	lea    0x3f74(%rip),%rsi        # f77f <g_2089+0x162f>
    b80b:	48 89 c7             	mov    %rax,%rdi
    b80e:	e8 e0 8e ff ff       	callq  46f3 <transparent_crc>
    b813:	0f b6 05 1a a8 00 00 	movzbl 0xa81a(%rip),%eax        # 16034 <g_302+0x14>
    b81a:	48 0f be c0          	movsbq %al,%rax
    b81e:	8b 55 fc             	mov    -0x4(%rbp),%edx
    b821:	48 8d 35 60 3f 00 00 	lea    0x3f60(%rip),%rsi        # f788 <g_2089+0x1638>
    b828:	48 89 c7             	mov    %rax,%rdi
    b82b:	e8 c3 8e ff ff       	callq  46f3 <transparent_crc>
    b830:	8b 05 02 a8 00 00    	mov    0xa802(%rip),%eax        # 16038 <g_302+0x18>
    b836:	89 c1                	mov    %eax,%ecx
    b838:	8b 45 fc             	mov    -0x4(%rbp),%eax
    b83b:	89 c2                	mov    %eax,%edx
    b83d:	48 8d 35 4d 3f 00 00 	lea    0x3f4d(%rip),%rsi        # f791 <g_2089+0x1641>
    b844:	48 89 cf             	mov    %rcx,%rdi
    b847:	e8 a7 8e ff ff       	callq  46f3 <transparent_crc>
    b84c:	48 8b 05 ed a7 00 00 	mov    0xa7ed(%rip),%rax        # 16040 <g_302+0x20>
    b853:	48 89 c1             	mov    %rax,%rcx
    b856:	8b 45 fc             	mov    -0x4(%rbp),%eax
    b859:	89 c2                	mov    %eax,%edx
    b85b:	48 8d 35 38 3f 00 00 	lea    0x3f38(%rip),%rsi        # f79a <g_2089+0x164a>
    b862:	48 89 cf             	mov    %rcx,%rdi
    b865:	e8 89 8e ff ff       	callq  46f3 <transparent_crc>
    b86a:	8b 05 d8 a7 00 00    	mov    0xa7d8(%rip),%eax        # 16048 <g_302+0x28>
    b870:	89 c1                	mov    %eax,%ecx
    b872:	8b 45 fc             	mov    -0x4(%rbp),%eax
    b875:	89 c2                	mov    %eax,%edx
    b877:	48 8d 35 25 3f 00 00 	lea    0x3f25(%rip),%rsi        # f7a3 <g_2089+0x1653>
    b87e:	48 89 cf             	mov    %rcx,%rdi
    b881:	e8 6d 8e ff ff       	callq  46f3 <transparent_crc>
    b886:	8b 05 c0 a7 00 00    	mov    0xa7c0(%rip),%eax        # 1604c <g_302+0x2c>
    b88c:	48 98                	cltq   
    b88e:	8b 55 fc             	mov    -0x4(%rbp),%edx
    b891:	48 8d 35 14 3f 00 00 	lea    0x3f14(%rip),%rsi        # f7ac <g_2089+0x165c>
    b898:	48 89 c7             	mov    %rax,%rdi
    b89b:	e8 53 8e ff ff       	callq  46f3 <transparent_crc>
    b8a0:	c7 45 f0 00 00 00 00 	movl   $0x0,-0x10(%rbp)
    b8a7:	eb 76                	jmp    b91f <main+0xd28>
    b8a9:	c7 45 f4 00 00 00 00 	movl   $0x0,-0xc(%rbp)
    b8b0:	eb 63                	jmp    b915 <main+0xd1e>
    b8b2:	8b 45 f4             	mov    -0xc(%rbp),%eax
    b8b5:	48 63 c8             	movslq %eax,%rcx
    b8b8:	8b 45 f0             	mov    -0x10(%rbp),%eax
    b8bb:	48 63 d0             	movslq %eax,%rdx
    b8be:	48 89 d0             	mov    %rdx,%rax
    b8c1:	48 01 c0             	add    %rax,%rax
    b8c4:	48 01 d0             	add    %rdx,%rax
    b8c7:	48 01 c0             	add    %rax,%rax
    b8ca:	48 01 c8             	add    %rcx,%rax
    b8cd:	48 8d 14 c5 00 00 00 	lea    0x0(,%rax,8),%rdx
    b8d4:	00 
    b8d5:	48 8d 05 84 a7 00 00 	lea    0xa784(%rip),%rax        # 16060 <g_313>
    b8dc:	48 8b 04 02          	mov    (%rdx,%rax,1),%rax
    b8e0:	8b 55 fc             	mov    -0x4(%rbp),%edx
    b8e3:	48 8d 35 cb 3e 00 00 	lea    0x3ecb(%rip),%rsi        # f7b5 <g_2089+0x1665>
    b8ea:	48 89 c7             	mov    %rax,%rdi
    b8ed:	e8 01 8e ff ff       	callq  46f3 <transparent_crc>
    b8f2:	83 7d fc 00          	cmpl   $0x0,-0x4(%rbp)
    b8f6:	74 19                	je     b911 <main+0xd1a>
    b8f8:	8b 55 f4             	mov    -0xc(%rbp),%edx
    b8fb:	8b 45 f0             	mov    -0x10(%rbp),%eax
    b8fe:	89 c6                	mov    %eax,%esi
    b900:	48 8d 3d ba 3e 00 00 	lea    0x3eba(%rip),%rdi        # f7c1 <g_2089+0x1671>
    b907:	b8 00 00 00 00       	mov    $0x0,%eax
    b90c:	e8 6f 77 ff ff       	callq  3080 <printf@plt>
    b911:	83 45 f4 01          	addl   $0x1,-0xc(%rbp)
    b915:	83 7d f4 05          	cmpl   $0x5,-0xc(%rbp)
    b919:	7e 97                	jle    b8b2 <main+0xcbb>
    b91b:	83 45 f0 01          	addl   $0x1,-0x10(%rbp)
    b91f:	83 7d f0 07          	cmpl   $0x7,-0x10(%rbp)
    b923:	7e 84                	jle    b8a9 <main+0xcb2>
    b925:	8b 05 b5 a8 00 00    	mov    0xa8b5(%rip),%eax        # 161e0 <g_327>
    b92b:	48 98                	cltq   
    b92d:	8b 55 fc             	mov    -0x4(%rbp),%edx
    b930:	48 8d 35 9c 3e 00 00 	lea    0x3e9c(%rip),%rsi        # f7d3 <g_2089+0x1683>
    b937:	48 89 c7             	mov    %rax,%rdi
    b93a:	e8 b4 8d ff ff       	callq  46f3 <transparent_crc>
    b93f:	c7 45 f0 00 00 00 00 	movl   $0x0,-0x10(%rbp)
    b946:	e9 cf 01 00 00       	jmpq   bb1a <main+0xf23>
    b94b:	8b 45 f0             	mov    -0x10(%rbp),%eax
    b94e:	48 63 d0             	movslq %eax,%rdx
    b951:	48 89 d0             	mov    %rdx,%rax
    b954:	48 01 c0             	add    %rax,%rax
    b957:	48 01 d0             	add    %rdx,%rax
    b95a:	48 c1 e0 04          	shl    $0x4,%rax
    b95e:	48 89 c2             	mov    %rax,%rdx
    b961:	48 8d 05 98 a8 00 00 	lea    0xa898(%rip),%rax        # 16200 <g_448>
    b968:	8b 04 02             	mov    (%rdx,%rax,1),%eax
    b96b:	48 98                	cltq   
    b96d:	8b 55 fc             	mov    -0x4(%rbp),%edx
    b970:	48 8d 35 62 3e 00 00 	lea    0x3e62(%rip),%rsi        # f7d9 <g_2089+0x1689>
    b977:	48 89 c7             	mov    %rax,%rdi
    b97a:	e8 74 8d ff ff       	callq  46f3 <transparent_crc>
    b97f:	8b 45 f0             	mov    -0x10(%rbp),%eax
    b982:	48 63 d0             	movslq %eax,%rdx
    b985:	48 89 d0             	mov    %rdx,%rax
    b988:	48 01 c0             	add    %rax,%rax
    b98b:	48 01 d0             	add    %rdx,%rax
    b98e:	48 c1 e0 04          	shl    $0x4,%rax
    b992:	48 89 c2             	mov    %rax,%rdx
    b995:	48 8d 05 6c a8 00 00 	lea    0xa86c(%rip),%rax        # 16208 <g_448+0x8>
    b99c:	48 8b 04 02          	mov    (%rdx,%rax,1),%rax
    b9a0:	48 89 c1             	mov    %rax,%rcx
    b9a3:	8b 45 fc             	mov    -0x4(%rbp),%eax
    b9a6:	89 c2                	mov    %eax,%edx
    b9a8:	48 8d 35 36 3e 00 00 	lea    0x3e36(%rip),%rsi        # f7e5 <g_2089+0x1695>
    b9af:	48 89 cf             	mov    %rcx,%rdi
    b9b2:	e8 3c 8d ff ff       	callq  46f3 <transparent_crc>
    b9b7:	8b 45 f0             	mov    -0x10(%rbp),%eax
    b9ba:	48 63 d0             	movslq %eax,%rdx
    b9bd:	48 89 d0             	mov    %rdx,%rax
    b9c0:	48 01 c0             	add    %rax,%rax
    b9c3:	48 01 d0             	add    %rdx,%rax
    b9c6:	48 c1 e0 04          	shl    $0x4,%rax
    b9ca:	48 89 c2             	mov    %rax,%rdx
    b9cd:	48 8d 05 3c a8 00 00 	lea    0xa83c(%rip),%rax        # 16210 <g_448+0x10>
    b9d4:	8b 04 02             	mov    (%rdx,%rax,1),%eax
    b9d7:	48 98                	cltq   
    b9d9:	8b 55 fc             	mov    -0x4(%rbp),%edx
    b9dc:	48 8d 35 0e 3e 00 00 	lea    0x3e0e(%rip),%rsi        # f7f1 <g_2089+0x16a1>
    b9e3:	48 89 c7             	mov    %rax,%rdi
    b9e6:	e8 08 8d ff ff       	callq  46f3 <transparent_crc>
    b9eb:	8b 45 f0             	mov    -0x10(%rbp),%eax
    b9ee:	48 63 d0             	movslq %eax,%rdx
    b9f1:	48 89 d0             	mov    %rdx,%rax
    b9f4:	48 01 c0             	add    %rax,%rax
    b9f7:	48 01 d0             	add    %rdx,%rax
    b9fa:	48 c1 e0 04          	shl    $0x4,%rax
    b9fe:	48 89 c2             	mov    %rax,%rdx
    ba01:	48 8d 05 0c a8 00 00 	lea    0xa80c(%rip),%rax        # 16214 <g_448+0x14>
    ba08:	0f b6 04 02          	movzbl (%rdx,%rax,1),%eax
    ba0c:	48 0f be c0          	movsbq %al,%rax
    ba10:	8b 55 fc             	mov    -0x4(%rbp),%edx
    ba13:	48 8d 35 e3 3d 00 00 	lea    0x3de3(%rip),%rsi        # f7fd <g_2089+0x16ad>
    ba1a:	48 89 c7             	mov    %rax,%rdi
    ba1d:	e8 d1 8c ff ff       	callq  46f3 <transparent_crc>
    ba22:	8b 45 f0             	mov    -0x10(%rbp),%eax
    ba25:	48 63 d0             	movslq %eax,%rdx
    ba28:	48 89 d0             	mov    %rdx,%rax
    ba2b:	48 01 c0             	add    %rax,%rax
    ba2e:	48 01 d0             	add    %rdx,%rax
    ba31:	48 c1 e0 04          	shl    $0x4,%rax
    ba35:	48 89 c2             	mov    %rax,%rdx
    ba38:	48 8d 05 d9 a7 00 00 	lea    0xa7d9(%rip),%rax        # 16218 <g_448+0x18>
    ba3f:	8b 04 02             	mov    (%rdx,%rax,1),%eax
    ba42:	89 c1                	mov    %eax,%ecx
    ba44:	8b 45 fc             	mov    -0x4(%rbp),%eax
    ba47:	89 c2                	mov    %eax,%edx
    ba49:	48 8d 35 b9 3d 00 00 	lea    0x3db9(%rip),%rsi        # f809 <g_2089+0x16b9>
    ba50:	48 89 cf             	mov    %rcx,%rdi
    ba53:	e8 9b 8c ff ff       	callq  46f3 <transparent_crc>
    ba58:	8b 45 f0             	mov    -0x10(%rbp),%eax
    ba5b:	48 63 d0             	movslq %eax,%rdx
    ba5e:	48 89 d0             	mov    %rdx,%rax
    ba61:	48 01 c0             	add    %rax,%rax
    ba64:	48 01 d0             	add    %rdx,%rax
    ba67:	48 c1 e0 04          	shl    $0x4,%rax
    ba6b:	48 89 c2             	mov    %rax,%rdx
    ba6e:	48 8d 05 ab a7 00 00 	lea    0xa7ab(%rip),%rax        # 16220 <g_448+0x20>
    ba75:	48 8b 04 02          	mov    (%rdx,%rax,1),%rax
    ba79:	48 89 c1             	mov    %rax,%rcx
    ba7c:	8b 45 fc             	mov    -0x4(%rbp),%eax
    ba7f:	89 c2                	mov    %eax,%edx
    ba81:	48 8d 35 8d 3d 00 00 	lea    0x3d8d(%rip),%rsi        # f815 <g_2089+0x16c5>
    ba88:	48 89 cf             	mov    %rcx,%rdi
    ba8b:	e8 63 8c ff ff       	callq  46f3 <transparent_crc>
    ba90:	8b 45 f0             	mov    -0x10(%rbp),%eax
    ba93:	48 63 d0             	movslq %eax,%rdx
    ba96:	48 89 d0             	mov    %rdx,%rax
    ba99:	48 01 c0             	add    %rax,%rax
    ba9c:	48 01 d0             	add    %rdx,%rax
    ba9f:	48 c1 e0 04          	shl    $0x4,%rax
    baa3:	48 89 c2             	mov    %rax,%rdx
    baa6:	48 8d 05 7b a7 00 00 	lea    0xa77b(%rip),%rax        # 16228 <g_448+0x28>
    baad:	8b 04 02             	mov    (%rdx,%rax,1),%eax
    bab0:	89 c1                	mov    %eax,%ecx
    bab2:	8b 45 fc             	mov    -0x4(%rbp),%eax
    bab5:	89 c2                	mov    %eax,%edx
    bab7:	48 8d 35 63 3d 00 00 	lea    0x3d63(%rip),%rsi        # f821 <g_2089+0x16d1>
    babe:	48 89 cf             	mov    %rcx,%rdi
    bac1:	e8 2d 8c ff ff       	callq  46f3 <transparent_crc>
    bac6:	8b 45 f0             	mov    -0x10(%rbp),%eax
    bac9:	48 63 d0             	movslq %eax,%rdx
    bacc:	48 89 d0             	mov    %rdx,%rax
    bacf:	48 01 c0             	add    %rax,%rax
    bad2:	48 01 d0             	add    %rdx,%rax
    bad5:	48 c1 e0 04          	shl    $0x4,%rax
    bad9:	48 89 c2             	mov    %rax,%rdx
    badc:	48 8d 05 49 a7 00 00 	lea    0xa749(%rip),%rax        # 1622c <g_448+0x2c>
    bae3:	8b 04 02             	mov    (%rdx,%rax,1),%eax
    bae6:	48 98                	cltq   
    bae8:	8b 55 fc             	mov    -0x4(%rbp),%edx
    baeb:	48 8d 35 3b 3d 00 00 	lea    0x3d3b(%rip),%rsi        # f82d <g_2089+0x16dd>
    baf2:	48 89 c7             	mov    %rax,%rdi
    baf5:	e8 f9 8b ff ff       	callq  46f3 <transparent_crc>
    bafa:	83 7d fc 00          	cmpl   $0x0,-0x4(%rbp)
    bafe:	74 16                	je     bb16 <main+0xf1f>
    bb00:	8b 45 f0             	mov    -0x10(%rbp),%eax
    bb03:	89 c6                	mov    %eax,%esi
    bb05:	48 8d 3d ef 39 00 00 	lea    0x39ef(%rip),%rdi        # f4fb <g_2089+0x13ab>
    bb0c:	b8 00 00 00 00       	mov    $0x0,%eax
    bb11:	e8 6a 75 ff ff       	callq  3080 <printf@plt>
    bb16:	83 45 f0 01          	addl   $0x1,-0x10(%rbp)
    bb1a:	83 7d f0 00          	cmpl   $0x0,-0x10(%rbp)
    bb1e:	0f 8e 27 fe ff ff    	jle    b94b <main+0xd54>
    bb24:	0f b7 05 9d f1 00 00 	movzwl 0xf19d(%rip),%eax        # 1acc8 <g_518>
    bb2b:	48 0f bf c0          	movswq %ax,%rax
    bb2f:	8b 55 fc             	mov    -0x4(%rbp),%edx
    bb32:	48 8d 35 00 3d 00 00 	lea    0x3d00(%rip),%rsi        # f839 <g_2089+0x16e9>
    bb39:	48 89 c7             	mov    %rax,%rdi
    bb3c:	e8 b2 8b ff ff       	callq  46f3 <transparent_crc>
    bb41:	b8 4b e4 45 6d       	mov    $0x6d45e44b,%eax
    bb46:	48 98                	cltq   
    bb48:	8b 55 fc             	mov    -0x4(%rbp),%edx
    bb4b:	48 8d 35 ed 3c 00 00 	lea    0x3ced(%rip),%rsi        # f83f <g_2089+0x16ef>
    bb52:	48 89 c7             	mov    %rax,%rdi
    bb55:	e8 99 8b ff ff       	callq  46f3 <transparent_crc>
    bb5a:	48 8b 05 87 25 00 00 	mov    0x2587(%rip),%rax        # e0e8 <g_531+0x8>
    bb61:	48 89 c1             	mov    %rax,%rcx
    bb64:	8b 45 fc             	mov    -0x4(%rbp),%eax
    bb67:	89 c2                	mov    %eax,%edx
    bb69:	48 8d 35 d8 3c 00 00 	lea    0x3cd8(%rip),%rsi        # f848 <g_2089+0x16f8>
    bb70:	48 89 cf             	mov    %rcx,%rdi
    bb73:	e8 7b 8b ff ff       	callq  46f3 <transparent_crc>
    bb78:	b8 f9 ff ff ff       	mov    $0xfffffff9,%eax
    bb7d:	48 98                	cltq   
    bb7f:	8b 55 fc             	mov    -0x4(%rbp),%edx
    bb82:	48 8d 35 c8 3c 00 00 	lea    0x3cc8(%rip),%rsi        # f851 <g_2089+0x1701>
    bb89:	48 89 c7             	mov    %rax,%rdi
    bb8c:	e8 62 8b ff ff       	callq  46f3 <transparent_crc>
    bb91:	b8 86 ff ff ff       	mov    $0xffffff86,%eax
    bb96:	48 0f be c0          	movsbq %al,%rax
    bb9a:	8b 55 fc             	mov    -0x4(%rbp),%edx
    bb9d:	48 8d 35 b6 3c 00 00 	lea    0x3cb6(%rip),%rsi        # f85a <g_2089+0x170a>
    bba4:	48 89 c7             	mov    %rax,%rdi
    bba7:	e8 47 8b ff ff       	callq  46f3 <transparent_crc>
    bbac:	b8 e3 30 4f ea       	mov    $0xea4f30e3,%eax
    bbb1:	89 c1                	mov    %eax,%ecx
    bbb3:	8b 45 fc             	mov    -0x4(%rbp),%eax
    bbb6:	89 c2                	mov    %eax,%edx
    bbb8:	48 8d 35 a4 3c 00 00 	lea    0x3ca4(%rip),%rsi        # f863 <g_2089+0x1713>
    bbbf:	48 89 cf             	mov    %rcx,%rdi
    bbc2:	e8 2c 8b ff ff       	callq  46f3 <transparent_crc>
    bbc7:	48 b8 ba 62 83 47 f1 	movabs $0x32e0f2f1478362ba,%rax
    bbce:	f2 e0 32 
    bbd1:	48 89 c1             	mov    %rax,%rcx
    bbd4:	8b 45 fc             	mov    -0x4(%rbp),%eax
    bbd7:	89 c2                	mov    %eax,%edx
    bbd9:	48 8d 35 8c 3c 00 00 	lea    0x3c8c(%rip),%rsi        # f86c <g_2089+0x171c>
    bbe0:	48 89 cf             	mov    %rcx,%rdi
    bbe3:	e8 0b 8b ff ff       	callq  46f3 <transparent_crc>
    bbe8:	8b 05 1a 25 00 00    	mov    0x251a(%rip),%eax        # e108 <g_531+0x28>
    bbee:	89 c1                	mov    %eax,%ecx
    bbf0:	8b 45 fc             	mov    -0x4(%rbp),%eax
    bbf3:	89 c2                	mov    %eax,%edx
    bbf5:	48 8d 35 79 3c 00 00 	lea    0x3c79(%rip),%rsi        # f875 <g_2089+0x1725>
    bbfc:	48 89 cf             	mov    %rcx,%rdi
    bbff:	e8 ef 8a ff ff       	callq  46f3 <transparent_crc>
    bc04:	b8 30 44 37 fa       	mov    $0xfa374430,%eax
    bc09:	48 98                	cltq   
    bc0b:	8b 55 fc             	mov    -0x4(%rbp),%edx
    bc0e:	48 8d 35 69 3c 00 00 	lea    0x3c69(%rip),%rsi        # f87e <g_2089+0x172e>
    bc15:	48 89 c7             	mov    %rax,%rdi
    bc18:	e8 d6 8a ff ff       	callq  46f3 <transparent_crc>
    bc1d:	8b 05 1d a6 00 00    	mov    0xa61d(%rip),%eax        # 16240 <g_534>
    bc23:	48 98                	cltq   
    bc25:	8b 55 fc             	mov    -0x4(%rbp),%edx
    bc28:	48 8d 35 58 3c 00 00 	lea    0x3c58(%rip),%rsi        # f887 <g_2089+0x1737>
    bc2f:	48 89 c7             	mov    %rax,%rdi
    bc32:	e8 bc 8a ff ff       	callq  46f3 <transparent_crc>
    bc37:	48 8b 05 0a a6 00 00 	mov    0xa60a(%rip),%rax        # 16248 <g_534+0x8>
    bc3e:	48 89 c1             	mov    %rax,%rcx
    bc41:	8b 45 fc             	mov    -0x4(%rbp),%eax
    bc44:	89 c2                	mov    %eax,%edx
    bc46:	48 8d 35 43 3c 00 00 	lea    0x3c43(%rip),%rsi        # f890 <g_2089+0x1740>
    bc4d:	48 89 cf             	mov    %rcx,%rdi
    bc50:	e8 9e 8a ff ff       	callq  46f3 <transparent_crc>
    bc55:	8b 05 f5 a5 00 00    	mov    0xa5f5(%rip),%eax        # 16250 <g_534+0x10>
    bc5b:	48 98                	cltq   
    bc5d:	8b 55 fc             	mov    -0x4(%rbp),%edx
    bc60:	48 8d 35 32 3c 00 00 	lea    0x3c32(%rip),%rsi        # f899 <g_2089+0x1749>
    bc67:	48 89 c7             	mov    %rax,%rdi
    bc6a:	e8 84 8a ff ff       	callq  46f3 <transparent_crc>
    bc6f:	0f b6 05 de a5 00 00 	movzbl 0xa5de(%rip),%eax        # 16254 <g_534+0x14>
    bc76:	48 0f be c0          	movsbq %al,%rax
    bc7a:	8b 55 fc             	mov    -0x4(%rbp),%edx
    bc7d:	48 8d 35 1e 3c 00 00 	lea    0x3c1e(%rip),%rsi        # f8a2 <g_2089+0x1752>
    bc84:	48 89 c7             	mov    %rax,%rdi
    bc87:	e8 67 8a ff ff       	callq  46f3 <transparent_crc>
    bc8c:	8b 05 c6 a5 00 00    	mov    0xa5c6(%rip),%eax        # 16258 <g_534+0x18>
    bc92:	89 c1                	mov    %eax,%ecx
    bc94:	8b 45 fc             	mov    -0x4(%rbp),%eax
    bc97:	89 c2                	mov    %eax,%edx
    bc99:	48 8d 35 0b 3c 00 00 	lea    0x3c0b(%rip),%rsi        # f8ab <g_2089+0x175b>
    bca0:	48 89 cf             	mov    %rcx,%rdi
    bca3:	e8 4b 8a ff ff       	callq  46f3 <transparent_crc>
    bca8:	48 8b 05 b1 a5 00 00 	mov    0xa5b1(%rip),%rax        # 16260 <g_534+0x20>
    bcaf:	48 89 c1             	mov    %rax,%rcx
    bcb2:	8b 45 fc             	mov    -0x4(%rbp),%eax
    bcb5:	89 c2                	mov    %eax,%edx
    bcb7:	48 8d 35 f6 3b 00 00 	lea    0x3bf6(%rip),%rsi        # f8b4 <g_2089+0x1764>
    bcbe:	48 89 cf             	mov    %rcx,%rdi
    bcc1:	e8 2d 8a ff ff       	callq  46f3 <transparent_crc>
    bcc6:	8b 05 9c a5 00 00    	mov    0xa59c(%rip),%eax        # 16268 <g_534+0x28>
    bccc:	89 c1                	mov    %eax,%ecx
    bcce:	8b 45 fc             	mov    -0x4(%rbp),%eax
    bcd1:	89 c2                	mov    %eax,%edx
    bcd3:	48 8d 35 e3 3b 00 00 	lea    0x3be3(%rip),%rsi        # f8bd <g_2089+0x176d>
    bcda:	48 89 cf             	mov    %rcx,%rdi
    bcdd:	e8 11 8a ff ff       	callq  46f3 <transparent_crc>
    bce2:	8b 05 84 a5 00 00    	mov    0xa584(%rip),%eax        # 1626c <g_534+0x2c>
    bce8:	48 98                	cltq   
    bcea:	8b 55 fc             	mov    -0x4(%rbp),%edx
    bced:	48 8d 35 d2 3b 00 00 	lea    0x3bd2(%rip),%rsi        # f8c6 <g_2089+0x1776>
    bcf4:	48 89 c7             	mov    %rax,%rdi
    bcf7:	e8 f7 89 ff ff       	callq  46f3 <transparent_crc>
    bcfc:	8b 05 6e a5 00 00    	mov    0xa56e(%rip),%eax        # 16270 <g_557>
    bd02:	48 98                	cltq   
    bd04:	8b 55 fc             	mov    -0x4(%rbp),%edx
    bd07:	48 8d 35 c1 3b 00 00 	lea    0x3bc1(%rip),%rsi        # f8cf <g_2089+0x177f>
    bd0e:	48 89 c7             	mov    %rax,%rdi
    bd11:	e8 dd 89 ff ff       	callq  46f3 <transparent_crc>
    bd16:	b8 33 de b3 5c       	mov    $0x5cb3de33,%eax
    bd1b:	48 98                	cltq   
    bd1d:	8b 55 fc             	mov    -0x4(%rbp),%edx
    bd20:	48 8d 35 ae 3b 00 00 	lea    0x3bae(%rip),%rsi        # f8d5 <g_2089+0x1785>
    bd27:	48 89 c7             	mov    %rax,%rdi
    bd2a:	e8 c4 89 ff ff       	callq  46f3 <transparent_crc>
    bd2f:	48 8b 05 f2 23 00 00 	mov    0x23f2(%rip),%rax        # e128 <g_570+0x8>
    bd36:	48 89 c1             	mov    %rax,%rcx
    bd39:	8b 45 fc             	mov    -0x4(%rbp),%eax
    bd3c:	89 c2                	mov    %eax,%edx
    bd3e:	48 8d 35 99 3b 00 00 	lea    0x3b99(%rip),%rsi        # f8de <g_2089+0x178e>
    bd45:	48 89 cf             	mov    %rcx,%rdi
    bd48:	e8 a6 89 ff ff       	callq  46f3 <transparent_crc>
    bd4d:	b8 fa ff ff ff       	mov    $0xfffffffa,%eax
    bd52:	48 98                	cltq   
    bd54:	8b 55 fc             	mov    -0x4(%rbp),%edx
    bd57:	48 8d 35 89 3b 00 00 	lea    0x3b89(%rip),%rsi        # f8e7 <g_2089+0x1797>
    bd5e:	48 89 c7             	mov    %rax,%rdi
    bd61:	e8 8d 89 ff ff       	callq  46f3 <transparent_crc>
    bd66:	b8 01 00 00 00       	mov    $0x1,%eax
    bd6b:	48 0f be c0          	movsbq %al,%rax
    bd6f:	8b 55 fc             	mov    -0x4(%rbp),%edx
    bd72:	48 8d 35 77 3b 00 00 	lea    0x3b77(%rip),%rsi        # f8f0 <g_2089+0x17a0>
    bd79:	48 89 c7             	mov    %rax,%rdi
    bd7c:	e8 72 89 ff ff       	callq  46f3 <transparent_crc>
    bd81:	b8 01 00 00 00       	mov    $0x1,%eax
    bd86:	89 c1                	mov    %eax,%ecx
    bd88:	8b 45 fc             	mov    -0x4(%rbp),%eax
    bd8b:	89 c2                	mov    %eax,%edx
    bd8d:	48 8d 35 65 3b 00 00 	lea    0x3b65(%rip),%rsi        # f8f9 <g_2089+0x17a9>
    bd94:	48 89 cf             	mov    %rcx,%rdi
    bd97:	e8 57 89 ff ff       	callq  46f3 <transparent_crc>
    bd9c:	b8 00 00 00 00       	mov    $0x0,%eax
    bda1:	48 89 c1             	mov    %rax,%rcx
    bda4:	8b 45 fc             	mov    -0x4(%rbp),%eax
    bda7:	89 c2                	mov    %eax,%edx
    bda9:	48 8d 35 52 3b 00 00 	lea    0x3b52(%rip),%rsi        # f902 <g_2089+0x17b2>
    bdb0:	48 89 cf             	mov    %rcx,%rdi
    bdb3:	e8 3b 89 ff ff       	callq  46f3 <transparent_crc>
    bdb8:	8b 05 8a 23 00 00    	mov    0x238a(%rip),%eax        # e148 <g_570+0x28>
    bdbe:	89 c1                	mov    %eax,%ecx
    bdc0:	8b 45 fc             	mov    -0x4(%rbp),%eax
    bdc3:	89 c2                	mov    %eax,%edx
    bdc5:	48 8d 35 3f 3b 00 00 	lea    0x3b3f(%rip),%rsi        # f90b <g_2089+0x17bb>
    bdcc:	48 89 cf             	mov    %rcx,%rdi
    bdcf:	e8 1f 89 ff ff       	callq  46f3 <transparent_crc>
    bdd4:	b8 00 00 00 00       	mov    $0x0,%eax
    bdd9:	48 98                	cltq   
    bddb:	8b 55 fc             	mov    -0x4(%rbp),%edx
    bdde:	48 8d 35 2f 3b 00 00 	lea    0x3b2f(%rip),%rsi        # f914 <g_2089+0x17c4>
    bde5:	48 89 c7             	mov    %rax,%rdi
    bde8:	e8 06 89 ff ff       	callq  46f3 <transparent_crc>
    bded:	8b 05 8d a4 00 00    	mov    0xa48d(%rip),%eax        # 16280 <g_615>
    bdf3:	48 98                	cltq   
    bdf5:	8b 55 fc             	mov    -0x4(%rbp),%edx
    bdf8:	48 8d 35 1e 3b 00 00 	lea    0x3b1e(%rip),%rsi        # f91d <g_2089+0x17cd>
    bdff:	48 89 c7             	mov    %rax,%rdi
    be02:	e8 ec 88 ff ff       	callq  46f3 <transparent_crc>
    be07:	48 8b 05 7a a4 00 00 	mov    0xa47a(%rip),%rax        # 16288 <g_615+0x8>
    be0e:	48 89 c1             	mov    %rax,%rcx
    be11:	8b 45 fc             	mov    -0x4(%rbp),%eax
    be14:	89 c2                	mov    %eax,%edx
    be16:	48 8d 35 09 3b 00 00 	lea    0x3b09(%rip),%rsi        # f926 <g_2089+0x17d6>
    be1d:	48 89 cf             	mov    %rcx,%rdi
    be20:	e8 ce 88 ff ff       	callq  46f3 <transparent_crc>
    be25:	8b 05 65 a4 00 00    	mov    0xa465(%rip),%eax        # 16290 <g_615+0x10>
    be2b:	48 98                	cltq   
    be2d:	8b 55 fc             	mov    -0x4(%rbp),%edx
    be30:	48 8d 35 f8 3a 00 00 	lea    0x3af8(%rip),%rsi        # f92f <g_2089+0x17df>
    be37:	48 89 c7             	mov    %rax,%rdi
    be3a:	e8 b4 88 ff ff       	callq  46f3 <transparent_crc>
    be3f:	0f b6 05 4e a4 00 00 	movzbl 0xa44e(%rip),%eax        # 16294 <g_615+0x14>
    be46:	48 0f be c0          	movsbq %al,%rax
    be4a:	8b 55 fc             	mov    -0x4(%rbp),%edx
    be4d:	48 8d 35 e4 3a 00 00 	lea    0x3ae4(%rip),%rsi        # f938 <g_2089+0x17e8>
    be54:	48 89 c7             	mov    %rax,%rdi
    be57:	e8 97 88 ff ff       	callq  46f3 <transparent_crc>
    be5c:	8b 05 36 a4 00 00    	mov    0xa436(%rip),%eax        # 16298 <g_615+0x18>
    be62:	89 c1                	mov    %eax,%ecx
    be64:	8b 45 fc             	mov    -0x4(%rbp),%eax
    be67:	89 c2                	mov    %eax,%edx
    be69:	48 8d 35 d1 3a 00 00 	lea    0x3ad1(%rip),%rsi        # f941 <g_2089+0x17f1>
    be70:	48 89 cf             	mov    %rcx,%rdi
    be73:	e8 7b 88 ff ff       	callq  46f3 <transparent_crc>
    be78:	48 8b 05 21 a4 00 00 	mov    0xa421(%rip),%rax        # 162a0 <g_615+0x20>
    be7f:	48 89 c1             	mov    %rax,%rcx
    be82:	8b 45 fc             	mov    -0x4(%rbp),%eax
    be85:	89 c2                	mov    %eax,%edx
    be87:	48 8d 35 bc 3a 00 00 	lea    0x3abc(%rip),%rsi        # f94a <g_2089+0x17fa>
    be8e:	48 89 cf             	mov    %rcx,%rdi
    be91:	e8 5d 88 ff ff       	callq  46f3 <transparent_crc>
    be96:	8b 05 0c a4 00 00    	mov    0xa40c(%rip),%eax        # 162a8 <g_615+0x28>
    be9c:	89 c1                	mov    %eax,%ecx
    be9e:	8b 45 fc             	mov    -0x4(%rbp),%eax
    bea1:	89 c2                	mov    %eax,%edx
    bea3:	48 8d 35 a9 3a 00 00 	lea    0x3aa9(%rip),%rsi        # f953 <g_2089+0x1803>
    beaa:	48 89 cf             	mov    %rcx,%rdi
    bead:	e8 41 88 ff ff       	callq  46f3 <transparent_crc>
    beb2:	8b 05 f4 a3 00 00    	mov    0xa3f4(%rip),%eax        # 162ac <g_615+0x2c>
    beb8:	48 98                	cltq   
    beba:	8b 55 fc             	mov    -0x4(%rbp),%edx
    bebd:	48 8d 35 98 3a 00 00 	lea    0x3a98(%rip),%rsi        # f95c <g_2089+0x180c>
    bec4:	48 89 c7             	mov    %rax,%rdi
    bec7:	e8 27 88 ff ff       	callq  46f3 <transparent_crc>
    becc:	c7 45 f0 00 00 00 00 	movl   $0x0,-0x10(%rbp)
    bed3:	e9 71 03 00 00       	jmpq   c249 <main+0x1652>
    bed8:	c7 45 f4 00 00 00 00 	movl   $0x0,-0xc(%rbp)
    bedf:	e9 57 03 00 00       	jmpq   c23b <main+0x1644>
    bee4:	c7 45 f8 00 00 00 00 	movl   $0x0,-0x8(%rbp)
    beeb:	e9 3d 03 00 00       	jmpq   c22d <main+0x1636>
    bef0:	8b 45 f8             	mov    -0x8(%rbp),%eax
    bef3:	48 63 d0             	movslq %eax,%rdx
    bef6:	8b 45 f4             	mov    -0xc(%rbp),%eax
    bef9:	48 63 f0             	movslq %eax,%rsi
    befc:	8b 45 f0             	mov    -0x10(%rbp),%eax
    beff:	48 63 c8             	movslq %eax,%rcx
    bf02:	48 89 d0             	mov    %rdx,%rax
    bf05:	48 01 c0             	add    %rax,%rax
    bf08:	48 01 d0             	add    %rdx,%rax
    bf0b:	48 c1 e0 04          	shl    $0x4,%rax
    bf0f:	48 89 f2             	mov    %rsi,%rdx
    bf12:	48 c1 e2 04          	shl    $0x4,%rdx
    bf16:	48 29 f2             	sub    %rsi,%rdx
    bf19:	48 c1 e2 05          	shl    $0x5,%rdx
    bf1d:	48 01 c2             	add    %rax,%rdx
    bf20:	48 89 c8             	mov    %rcx,%rax
    bf23:	48 c1 e0 04          	shl    $0x4,%rax
    bf27:	48 29 c8             	sub    %rcx,%rax
    bf2a:	48 c1 e0 05          	shl    $0x5,%rax
    bf2e:	48 01 c2             	add    %rax,%rdx
    bf31:	48 8d 05 88 a3 00 00 	lea    0xa388(%rip),%rax        # 162c0 <g_689>
    bf38:	48 01 d0             	add    %rdx,%rax
    bf3b:	8b 00                	mov    (%rax),%eax
    bf3d:	48 98                	cltq   
    bf3f:	8b 55 fc             	mov    -0x4(%rbp),%edx
    bf42:	48 8d 35 1c 3a 00 00 	lea    0x3a1c(%rip),%rsi        # f965 <g_2089+0x1815>
    bf49:	48 89 c7             	mov    %rax,%rdi
    bf4c:	e8 a2 87 ff ff       	callq  46f3 <transparent_crc>
    bf51:	8b 45 f8             	mov    -0x8(%rbp),%eax
    bf54:	48 63 d0             	movslq %eax,%rdx
    bf57:	8b 45 f4             	mov    -0xc(%rbp),%eax
    bf5a:	48 63 f0             	movslq %eax,%rsi
    bf5d:	8b 45 f0             	mov    -0x10(%rbp),%eax
    bf60:	48 63 c8             	movslq %eax,%rcx
    bf63:	48 89 d0             	mov    %rdx,%rax
    bf66:	48 01 c0             	add    %rax,%rax
    bf69:	48 01 d0             	add    %rdx,%rax
    bf6c:	48 c1 e0 04          	shl    $0x4,%rax
    bf70:	48 89 f2             	mov    %rsi,%rdx
    bf73:	48 c1 e2 04          	shl    $0x4,%rdx
    bf77:	48 29 f2             	sub    %rsi,%rdx
    bf7a:	48 c1 e2 05          	shl    $0x5,%rdx
    bf7e:	48 01 c2             	add    %rax,%rdx
    bf81:	48 89 c8             	mov    %rcx,%rax
    bf84:	48 c1 e0 04          	shl    $0x4,%rax
    bf88:	48 29 c8             	sub    %rcx,%rax
    bf8b:	48 c1 e0 05          	shl    $0x5,%rax
    bf8f:	48 01 c2             	add    %rax,%rdx
    bf92:	48 8d 05 2f a3 00 00 	lea    0xa32f(%rip),%rax        # 162c8 <g_689+0x8>
    bf99:	48 01 d0             	add    %rdx,%rax
    bf9c:	48 8b 00             	mov    (%rax),%rax
    bf9f:	48 89 c1             	mov    %rax,%rcx
    bfa2:	8b 45 fc             	mov    -0x4(%rbp),%eax
    bfa5:	89 c2                	mov    %eax,%edx
    bfa7:	48 8d 35 c9 39 00 00 	lea    0x39c9(%rip),%rsi        # f977 <g_2089+0x1827>
    bfae:	48 89 cf             	mov    %rcx,%rdi
    bfb1:	e8 3d 87 ff ff       	callq  46f3 <transparent_crc>
    bfb6:	8b 45 f8             	mov    -0x8(%rbp),%eax
    bfb9:	48 63 d0             	movslq %eax,%rdx
    bfbc:	8b 45 f4             	mov    -0xc(%rbp),%eax
    bfbf:	48 63 c8             	movslq %eax,%rcx
    bfc2:	8b 45 f0             	mov    -0x10(%rbp),%eax
    bfc5:	48 63 f0             	movslq %eax,%rsi
    bfc8:	48 89 d0             	mov    %rdx,%rax
    bfcb:	48 01 c0             	add    %rax,%rax
    bfce:	48 01 d0             	add    %rdx,%rax
    bfd1:	48 c1 e0 04          	shl    $0x4,%rax
    bfd5:	48 89 f2             	mov    %rsi,%rdx
    bfd8:	48 c1 e2 04          	shl    $0x4,%rdx
    bfdc:	48 29 f2             	sub    %rsi,%rdx
    bfdf:	48 c1 e2 05          	shl    $0x5,%rdx
    bfe3:	48 01 c2             	add    %rax,%rdx
    bfe6:	48 89 c8             	mov    %rcx,%rax
    bfe9:	48 c1 e0 04          	shl    $0x4,%rax
    bfed:	48 29 c8             	sub    %rcx,%rax
    bff0:	48 c1 e0 05          	shl    $0x5,%rax
    bff4:	48 01 c2             	add    %rax,%rdx
    bff7:	48 8d 05 d2 a2 00 00 	lea    0xa2d2(%rip),%rax        # 162d0 <g_689+0x10>
    bffe:	48 01 d0             	add    %rdx,%rax
    c001:	8b 00                	mov    (%rax),%eax
    c003:	48 98                	cltq   
    c005:	8b 55 fc             	mov    -0x4(%rbp),%edx
    c008:	48 8d 35 7a 39 00 00 	lea    0x397a(%rip),%rsi        # f989 <g_2089+0x1839>
    c00f:	48 89 c7             	mov    %rax,%rdi
    c012:	e8 dc 86 ff ff       	callq  46f3 <transparent_crc>
    c017:	8b 45 f8             	mov    -0x8(%rbp),%eax
    c01a:	48 63 d0             	movslq %eax,%rdx
    c01d:	8b 45 f4             	mov    -0xc(%rbp),%eax
    c020:	48 63 c8             	movslq %eax,%rcx
    c023:	8b 45 f0             	mov    -0x10(%rbp),%eax
    c026:	48 63 f0             	movslq %eax,%rsi
    c029:	48 89 d0             	mov    %rdx,%rax
    c02c:	48 01 c0             	add    %rax,%rax
    c02f:	48 01 d0             	add    %rdx,%rax
    c032:	48 c1 e0 04          	shl    $0x4,%rax
    c036:	48 89 f2             	mov    %rsi,%rdx
    c039:	48 c1 e2 04          	shl    $0x4,%rdx
    c03d:	48 29 f2             	sub    %rsi,%rdx
    c040:	48 c1 e2 05          	shl    $0x5,%rdx
    c044:	48 01 c2             	add    %rax,%rdx
    c047:	48 89 c8             	mov    %rcx,%rax
    c04a:	48 c1 e0 04          	shl    $0x4,%rax
    c04e:	48 29 c8             	sub    %rcx,%rax
    c051:	48 c1 e0 05          	shl    $0x5,%rax
    c055:	48 01 c2             	add    %rax,%rdx
    c058:	48 8d 05 75 a2 00 00 	lea    0xa275(%rip),%rax        # 162d4 <g_689+0x14>
    c05f:	48 01 d0             	add    %rdx,%rax
    c062:	0f b6 00             	movzbl (%rax),%eax
    c065:	48 0f be c0          	movsbq %al,%rax
    c069:	8b 55 fc             	mov    -0x4(%rbp),%edx
    c06c:	48 8d 35 28 39 00 00 	lea    0x3928(%rip),%rsi        # f99b <g_2089+0x184b>
    c073:	48 89 c7             	mov    %rax,%rdi
    c076:	e8 78 86 ff ff       	callq  46f3 <transparent_crc>
    c07b:	8b 45 f8             	mov    -0x8(%rbp),%eax
    c07e:	48 63 d0             	movslq %eax,%rdx
    c081:	8b 45 f4             	mov    -0xc(%rbp),%eax
    c084:	48 63 c8             	movslq %eax,%rcx
    c087:	8b 45 f0             	mov    -0x10(%rbp),%eax
    c08a:	48 63 f0             	movslq %eax,%rsi
    c08d:	48 89 d0             	mov    %rdx,%rax
    c090:	48 01 c0             	add    %rax,%rax
    c093:	48 01 d0             	add    %rdx,%rax
    c096:	48 c1 e0 04          	shl    $0x4,%rax
    c09a:	48 89 f2             	mov    %rsi,%rdx
    c09d:	48 c1 e2 04          	shl    $0x4,%rdx
    c0a1:	48 29 f2             	sub    %rsi,%rdx
    c0a4:	48 c1 e2 05          	shl    $0x5,%rdx
    c0a8:	48 01 c2             	add    %rax,%rdx
    c0ab:	48 89 c8             	mov    %rcx,%rax
    c0ae:	48 c1 e0 04          	shl    $0x4,%rax
    c0b2:	48 29 c8             	sub    %rcx,%rax
    c0b5:	48 c1 e0 05          	shl    $0x5,%rax
    c0b9:	48 01 c2             	add    %rax,%rdx
    c0bc:	48 8d 05 15 a2 00 00 	lea    0xa215(%rip),%rax        # 162d8 <g_689+0x18>
    c0c3:	48 01 d0             	add    %rdx,%rax
    c0c6:	8b 00                	mov    (%rax),%eax
    c0c8:	89 c1                	mov    %eax,%ecx
    c0ca:	8b 45 fc             	mov    -0x4(%rbp),%eax
    c0cd:	89 c2                	mov    %eax,%edx
    c0cf:	48 8d 35 d7 38 00 00 	lea    0x38d7(%rip),%rsi        # f9ad <g_2089+0x185d>
    c0d6:	48 89 cf             	mov    %rcx,%rdi
    c0d9:	e8 15 86 ff ff       	callq  46f3 <transparent_crc>
    c0de:	8b 45 f8             	mov    -0x8(%rbp),%eax
    c0e1:	48 63 d0             	movslq %eax,%rdx
    c0e4:	8b 45 f4             	mov    -0xc(%rbp),%eax
    c0e7:	48 63 c8             	movslq %eax,%rcx
    c0ea:	8b 45 f0             	mov    -0x10(%rbp),%eax
    c0ed:	48 63 f0             	movslq %eax,%rsi
    c0f0:	48 89 d0             	mov    %rdx,%rax
    c0f3:	48 01 c0             	add    %rax,%rax
    c0f6:	48 01 d0             	add    %rdx,%rax
    c0f9:	48 c1 e0 04          	shl    $0x4,%rax
    c0fd:	48 89 f2             	mov    %rsi,%rdx
    c100:	48 c1 e2 04          	shl    $0x4,%rdx
    c104:	48 29 f2             	sub    %rsi,%rdx
    c107:	48 c1 e2 05          	shl    $0x5,%rdx
    c10b:	48 01 c2             	add    %rax,%rdx
    c10e:	48 89 c8             	mov    %rcx,%rax
    c111:	48 c1 e0 04          	shl    $0x4,%rax
    c115:	48 29 c8             	sub    %rcx,%rax
    c118:	48 c1 e0 05          	shl    $0x5,%rax
    c11c:	48 01 c2             	add    %rax,%rdx
    c11f:	48 8d 05 ba a1 00 00 	lea    0xa1ba(%rip),%rax        # 162e0 <g_689+0x20>
    c126:	48 01 d0             	add    %rdx,%rax
    c129:	48 8b 00             	mov    (%rax),%rax
    c12c:	48 89 c1             	mov    %rax,%rcx
    c12f:	8b 45 fc             	mov    -0x4(%rbp),%eax
    c132:	89 c2                	mov    %eax,%edx
    c134:	48 8d 35 84 38 00 00 	lea    0x3884(%rip),%rsi        # f9bf <g_2089+0x186f>
    c13b:	48 89 cf             	mov    %rcx,%rdi
    c13e:	e8 b0 85 ff ff       	callq  46f3 <transparent_crc>
    c143:	8b 45 f8             	mov    -0x8(%rbp),%eax
    c146:	48 63 d0             	movslq %eax,%rdx
    c149:	8b 45 f4             	mov    -0xc(%rbp),%eax
    c14c:	48 63 c8             	movslq %eax,%rcx
    c14f:	8b 45 f0             	mov    -0x10(%rbp),%eax
    c152:	48 63 f0             	movslq %eax,%rsi
    c155:	48 89 d0             	mov    %rdx,%rax
    c158:	48 01 c0             	add    %rax,%rax
    c15b:	48 01 d0             	add    %rdx,%rax
    c15e:	48 c1 e0 04          	shl    $0x4,%rax
    c162:	48 89 f2             	mov    %rsi,%rdx
    c165:	48 c1 e2 04          	shl    $0x4,%rdx
    c169:	48 29 f2             	sub    %rsi,%rdx
    c16c:	48 c1 e2 05          	shl    $0x5,%rdx
    c170:	48 01 c2             	add    %rax,%rdx
    c173:	48 89 c8             	mov    %rcx,%rax
    c176:	48 c1 e0 04          	shl    $0x4,%rax
    c17a:	48 29 c8             	sub    %rcx,%rax
    c17d:	48 c1 e0 05          	shl    $0x5,%rax
    c181:	48 01 c2             	add    %rax,%rdx
    c184:	48 8d 05 5d a1 00 00 	lea    0xa15d(%rip),%rax        # 162e8 <g_689+0x28>
    c18b:	48 01 d0             	add    %rdx,%rax
    c18e:	8b 00                	mov    (%rax),%eax
    c190:	89 c1                	mov    %eax,%ecx
    c192:	8b 45 fc             	mov    -0x4(%rbp),%eax
    c195:	89 c2                	mov    %eax,%edx
    c197:	48 8d 35 33 38 00 00 	lea    0x3833(%rip),%rsi        # f9d1 <g_2089+0x1881>
    c19e:	48 89 cf             	mov    %rcx,%rdi
    c1a1:	e8 4d 85 ff ff       	callq  46f3 <transparent_crc>
    c1a6:	8b 45 f8             	mov    -0x8(%rbp),%eax
    c1a9:	48 63 d0             	movslq %eax,%rdx
    c1ac:	8b 45 f4             	mov    -0xc(%rbp),%eax
    c1af:	48 63 c8             	movslq %eax,%rcx
    c1b2:	8b 45 f0             	mov    -0x10(%rbp),%eax
    c1b5:	48 63 f0             	movslq %eax,%rsi
    c1b8:	48 89 d0             	mov    %rdx,%rax
    c1bb:	48 01 c0             	add    %rax,%rax
    c1be:	48 01 d0             	add    %rdx,%rax
    c1c1:	48 c1 e0 04          	shl    $0x4,%rax
    c1c5:	48 89 f2             	mov    %rsi,%rdx
    c1c8:	48 c1 e2 04          	shl    $0x4,%rdx
    c1cc:	48 29 f2             	sub    %rsi,%rdx
    c1cf:	48 c1 e2 05          	shl    $0x5,%rdx
    c1d3:	48 01 c2             	add    %rax,%rdx
    c1d6:	48 89 c8             	mov    %rcx,%rax
    c1d9:	48 c1 e0 04          	shl    $0x4,%rax
    c1dd:	48 29 c8             	sub    %rcx,%rax
    c1e0:	48 c1 e0 05          	shl    $0x5,%rax
    c1e4:	48 01 c2             	add    %rax,%rdx
    c1e7:	48 8d 05 fe a0 00 00 	lea    0xa0fe(%rip),%rax        # 162ec <g_689+0x2c>
    c1ee:	48 01 d0             	add    %rdx,%rax
    c1f1:	8b 00                	mov    (%rax),%eax
    c1f3:	48 98                	cltq   
    c1f5:	8b 55 fc             	mov    -0x4(%rbp),%edx
    c1f8:	48 8d 35 e4 37 00 00 	lea    0x37e4(%rip),%rsi        # f9e3 <g_2089+0x1893>
    c1ff:	48 89 c7             	mov    %rax,%rdi
    c202:	e8 ec 84 ff ff       	callq  46f3 <transparent_crc>
    c207:	83 7d fc 00          	cmpl   $0x0,-0x4(%rbp)
    c20b:	74 1c                	je     c229 <main+0x1632>
    c20d:	8b 4d f8             	mov    -0x8(%rbp),%ecx
    c210:	8b 55 f4             	mov    -0xc(%rbp),%edx
    c213:	8b 45 f0             	mov    -0x10(%rbp),%eax
    c216:	89 c6                	mov    %eax,%esi
    c218:	48 8d 3d 94 32 00 00 	lea    0x3294(%rip),%rdi        # f4b3 <g_2089+0x1363>
    c21f:	b8 00 00 00 00       	mov    $0x0,%eax
    c224:	e8 57 6e ff ff       	callq  3080 <printf@plt>
    c229:	83 45 f8 01          	addl   $0x1,-0x8(%rbp)
    c22d:	83 7d f8 09          	cmpl   $0x9,-0x8(%rbp)
    c231:	0f 8e b9 fc ff ff    	jle    bef0 <main+0x12f9>
    c237:	83 45 f4 01          	addl   $0x1,-0xc(%rbp)
    c23b:	83 7d f4 00          	cmpl   $0x0,-0xc(%rbp)
    c23f:	0f 8e 9f fc ff ff    	jle    bee4 <main+0x12ed>
    c245:	83 45 f0 01          	addl   $0x1,-0x10(%rbp)
    c249:	83 7d f0 08          	cmpl   $0x8,-0x10(%rbp)
    c24d:	0f 8e 85 fc ff ff    	jle    bed8 <main+0x12e1>
    c253:	c7 45 f0 00 00 00 00 	movl   $0x0,-0x10(%rbp)
    c25a:	e9 cf 01 00 00       	jmpq   c42e <main+0x1837>
    c25f:	8b 45 f0             	mov    -0x10(%rbp),%eax
    c262:	48 63 d0             	movslq %eax,%rdx
    c265:	48 89 d0             	mov    %rdx,%rax
    c268:	48 01 c0             	add    %rax,%rax
    c26b:	48 01 d0             	add    %rdx,%rax
    c26e:	48 c1 e0 04          	shl    $0x4,%rax
    c272:	48 89 c2             	mov    %rax,%rdx
    c275:	48 8d 05 24 b1 00 00 	lea    0xb124(%rip),%rax        # 173a0 <g_711>
    c27c:	8b 04 02             	mov    (%rdx,%rax,1),%eax
    c27f:	48 98                	cltq   
    c281:	8b 55 fc             	mov    -0x4(%rbp),%edx
    c284:	48 8d 35 6a 37 00 00 	lea    0x376a(%rip),%rsi        # f9f5 <g_2089+0x18a5>
    c28b:	48 89 c7             	mov    %rax,%rdi
    c28e:	e8 60 84 ff ff       	callq  46f3 <transparent_crc>
    c293:	8b 45 f0             	mov    -0x10(%rbp),%eax
    c296:	48 63 d0             	movslq %eax,%rdx
    c299:	48 89 d0             	mov    %rdx,%rax
    c29c:	48 01 c0             	add    %rax,%rax
    c29f:	48 01 d0             	add    %rdx,%rax
    c2a2:	48 c1 e0 04          	shl    $0x4,%rax
    c2a6:	48 89 c2             	mov    %rax,%rdx
    c2a9:	48 8d 05 f8 b0 00 00 	lea    0xb0f8(%rip),%rax        # 173a8 <g_711+0x8>
    c2b0:	48 8b 04 02          	mov    (%rdx,%rax,1),%rax
    c2b4:	48 89 c1             	mov    %rax,%rcx
    c2b7:	8b 45 fc             	mov    -0x4(%rbp),%eax
    c2ba:	89 c2                	mov    %eax,%edx
    c2bc:	48 8d 35 3e 37 00 00 	lea    0x373e(%rip),%rsi        # fa01 <g_2089+0x18b1>
    c2c3:	48 89 cf             	mov    %rcx,%rdi
    c2c6:	e8 28 84 ff ff       	callq  46f3 <transparent_crc>
    c2cb:	8b 45 f0             	mov    -0x10(%rbp),%eax
    c2ce:	48 63 d0             	movslq %eax,%rdx
    c2d1:	48 89 d0             	mov    %rdx,%rax
    c2d4:	48 01 c0             	add    %rax,%rax
    c2d7:	48 01 d0             	add    %rdx,%rax
    c2da:	48 c1 e0 04          	shl    $0x4,%rax
    c2de:	48 89 c2             	mov    %rax,%rdx
    c2e1:	48 8d 05 c8 b0 00 00 	lea    0xb0c8(%rip),%rax        # 173b0 <g_711+0x10>
    c2e8:	8b 04 02             	mov    (%rdx,%rax,1),%eax
    c2eb:	48 98                	cltq   
    c2ed:	8b 55 fc             	mov    -0x4(%rbp),%edx
    c2f0:	48 8d 35 16 37 00 00 	lea    0x3716(%rip),%rsi        # fa0d <g_2089+0x18bd>
    c2f7:	48 89 c7             	mov    %rax,%rdi
    c2fa:	e8 f4 83 ff ff       	callq  46f3 <transparent_crc>
    c2ff:	8b 45 f0             	mov    -0x10(%rbp),%eax
    c302:	48 63 d0             	movslq %eax,%rdx
    c305:	48 89 d0             	mov    %rdx,%rax
    c308:	48 01 c0             	add    %rax,%rax
    c30b:	48 01 d0             	add    %rdx,%rax
    c30e:	48 c1 e0 04          	shl    $0x4,%rax
    c312:	48 89 c2             	mov    %rax,%rdx
    c315:	48 8d 05 98 b0 00 00 	lea    0xb098(%rip),%rax        # 173b4 <g_711+0x14>
    c31c:	0f b6 04 02          	movzbl (%rdx,%rax,1),%eax
    c320:	48 0f be c0          	movsbq %al,%rax
    c324:	8b 55 fc             	mov    -0x4(%rbp),%edx
    c327:	48 8d 35 eb 36 00 00 	lea    0x36eb(%rip),%rsi        # fa19 <g_2089+0x18c9>
    c32e:	48 89 c7             	mov    %rax,%rdi
    c331:	e8 bd 83 ff ff       	callq  46f3 <transparent_crc>
    c336:	8b 45 f0             	mov    -0x10(%rbp),%eax
    c339:	48 63 d0             	movslq %eax,%rdx
    c33c:	48 89 d0             	mov    %rdx,%rax
    c33f:	48 01 c0             	add    %rax,%rax
    c342:	48 01 d0             	add    %rdx,%rax
    c345:	48 c1 e0 04          	shl    $0x4,%rax
    c349:	48 89 c2             	mov    %rax,%rdx
    c34c:	48 8d 05 65 b0 00 00 	lea    0xb065(%rip),%rax        # 173b8 <g_711+0x18>
    c353:	8b 04 02             	mov    (%rdx,%rax,1),%eax
    c356:	89 c1                	mov    %eax,%ecx
    c358:	8b 45 fc             	mov    -0x4(%rbp),%eax
    c35b:	89 c2                	mov    %eax,%edx
    c35d:	48 8d 35 c1 36 00 00 	lea    0x36c1(%rip),%rsi        # fa25 <g_2089+0x18d5>
    c364:	48 89 cf             	mov    %rcx,%rdi
    c367:	e8 87 83 ff ff       	callq  46f3 <transparent_crc>
    c36c:	8b 45 f0             	mov    -0x10(%rbp),%eax
    c36f:	48 63 d0             	movslq %eax,%rdx
    c372:	48 89 d0             	mov    %rdx,%rax
    c375:	48 01 c0             	add    %rax,%rax
    c378:	48 01 d0             	add    %rdx,%rax
    c37b:	48 c1 e0 04          	shl    $0x4,%rax
    c37f:	48 89 c2             	mov    %rax,%rdx
    c382:	48 8d 05 37 b0 00 00 	lea    0xb037(%rip),%rax        # 173c0 <g_711+0x20>
    c389:	48 8b 04 02          	mov    (%rdx,%rax,1),%rax
    c38d:	48 89 c1             	mov    %rax,%rcx
    c390:	8b 45 fc             	mov    -0x4(%rbp),%eax
    c393:	89 c2                	mov    %eax,%edx
    c395:	48 8d 35 95 36 00 00 	lea    0x3695(%rip),%rsi        # fa31 <g_2089+0x18e1>
    c39c:	48 89 cf             	mov    %rcx,%rdi
    c39f:	e8 4f 83 ff ff       	callq  46f3 <transparent_crc>
    c3a4:	8b 45 f0             	mov    -0x10(%rbp),%eax
    c3a7:	48 63 d0             	movslq %eax,%rdx
    c3aa:	48 89 d0             	mov    %rdx,%rax
    c3ad:	48 01 c0             	add    %rax,%rax
    c3b0:	48 01 d0             	add    %rdx,%rax
    c3b3:	48 c1 e0 04          	shl    $0x4,%rax
    c3b7:	48 89 c2             	mov    %rax,%rdx
    c3ba:	48 8d 05 07 b0 00 00 	lea    0xb007(%rip),%rax        # 173c8 <g_711+0x28>
    c3c1:	8b 04 02             	mov    (%rdx,%rax,1),%eax
    c3c4:	89 c1                	mov    %eax,%ecx
    c3c6:	8b 45 fc             	mov    -0x4(%rbp),%eax
    c3c9:	89 c2                	mov    %eax,%edx
    c3cb:	48 8d 35 6b 36 00 00 	lea    0x366b(%rip),%rsi        # fa3d <g_2089+0x18ed>
    c3d2:	48 89 cf             	mov    %rcx,%rdi
    c3d5:	e8 19 83 ff ff       	callq  46f3 <transparent_crc>
    c3da:	8b 45 f0             	mov    -0x10(%rbp),%eax
    c3dd:	48 63 d0             	movslq %eax,%rdx
    c3e0:	48 89 d0             	mov    %rdx,%rax
    c3e3:	48 01 c0             	add    %rax,%rax
    c3e6:	48 01 d0             	add    %rdx,%rax
    c3e9:	48 c1 e0 04          	shl    $0x4,%rax
    c3ed:	48 89 c2             	mov    %rax,%rdx
    c3f0:	48 8d 05 d5 af 00 00 	lea    0xafd5(%rip),%rax        # 173cc <g_711+0x2c>
    c3f7:	8b 04 02             	mov    (%rdx,%rax,1),%eax
    c3fa:	48 98                	cltq   
    c3fc:	8b 55 fc             	mov    -0x4(%rbp),%edx
    c3ff:	48 8d 35 43 36 00 00 	lea    0x3643(%rip),%rsi        # fa49 <g_2089+0x18f9>
    c406:	48 89 c7             	mov    %rax,%rdi
    c409:	e8 e5 82 ff ff       	callq  46f3 <transparent_crc>
    c40e:	83 7d fc 00          	cmpl   $0x0,-0x4(%rbp)
    c412:	74 16                	je     c42a <main+0x1833>
    c414:	8b 45 f0             	mov    -0x10(%rbp),%eax
    c417:	89 c6                	mov    %eax,%esi
    c419:	48 8d 3d db 30 00 00 	lea    0x30db(%rip),%rdi        # f4fb <g_2089+0x13ab>
    c420:	b8 00 00 00 00       	mov    $0x0,%eax
    c425:	e8 56 6c ff ff       	callq  3080 <printf@plt>
    c42a:	83 45 f0 01          	addl   $0x1,-0x10(%rbp)
    c42e:	83 7d f0 07          	cmpl   $0x7,-0x10(%rbp)
    c432:	0f 8e 27 fe ff ff    	jle    c25f <main+0x1668>
    c438:	0f b7 05 e1 b0 00 00 	movzwl 0xb0e1(%rip),%eax        # 17520 <g_723>
    c43f:	0f b7 c0             	movzwl %ax,%eax
    c442:	8b 55 fc             	mov    -0x4(%rbp),%edx
    c445:	48 8d 35 09 36 00 00 	lea    0x3609(%rip),%rsi        # fa55 <g_2089+0x1905>
    c44c:	48 89 c7             	mov    %rax,%rdi
    c44f:	e8 9f 82 ff ff       	callq  46f3 <transparent_crc>
    c454:	c7 45 f0 00 00 00 00 	movl   $0x0,-0x10(%rbp)
    c45b:	e9 09 04 00 00       	jmpq   c869 <main+0x1c72>
    c460:	c7 45 f4 00 00 00 00 	movl   $0x0,-0xc(%rbp)
    c467:	e9 ef 03 00 00       	jmpq   c85b <main+0x1c64>
    c46c:	c7 45 f8 00 00 00 00 	movl   $0x0,-0x8(%rbp)
    c473:	e9 d5 03 00 00       	jmpq   c84d <main+0x1c56>
    c478:	8b 45 f8             	mov    -0x8(%rbp),%eax
    c47b:	48 98                	cltq   
    c47d:	8b 55 f4             	mov    -0xc(%rbp),%edx
    c480:	48 63 f2             	movslq %edx,%rsi
    c483:	8b 55 f0             	mov    -0x10(%rbp),%edx
    c486:	48 63 ca             	movslq %edx,%rcx
    c489:	48 89 c2             	mov    %rax,%rdx
    c48c:	48 01 d2             	add    %rdx,%rdx
    c48f:	48 01 c2             	add    %rax,%rdx
    c492:	48 89 d0             	mov    %rdx,%rax
    c495:	48 c1 e0 04          	shl    $0x4,%rax
    c499:	48 89 c2             	mov    %rax,%rdx
    c49c:	48 89 f0             	mov    %rsi,%rax
    c49f:	48 c1 e0 02          	shl    $0x2,%rax
    c4a3:	48 01 f0             	add    %rsi,%rax
    c4a6:	48 c1 e0 02          	shl    $0x2,%rax
    c4aa:	48 01 f0             	add    %rsi,%rax
    c4ad:	48 c1 e0 04          	shl    $0x4,%rax
    c4b1:	48 01 c2             	add    %rax,%rdx
    c4b4:	48 89 c8             	mov    %rcx,%rax
    c4b7:	48 c1 e0 02          	shl    $0x2,%rax
    c4bb:	48 01 c8             	add    %rcx,%rax
    c4be:	48 c1 e0 02          	shl    $0x2,%rax
    c4c2:	48 01 c8             	add    %rcx,%rax
    c4c5:	48 c1 e0 06          	shl    $0x6,%rax
    c4c9:	48 01 c2             	add    %rax,%rdx
    c4cc:	48 8d 05 6d b0 00 00 	lea    0xb06d(%rip),%rax        # 17540 <g_753>
    c4d3:	48 01 d0             	add    %rdx,%rax
    c4d6:	8b 00                	mov    (%rax),%eax
    c4d8:	48 98                	cltq   
    c4da:	8b 55 fc             	mov    -0x4(%rbp),%edx
    c4dd:	48 8d 35 77 35 00 00 	lea    0x3577(%rip),%rsi        # fa5b <g_2089+0x190b>
    c4e4:	48 89 c7             	mov    %rax,%rdi
    c4e7:	e8 07 82 ff ff       	callq  46f3 <transparent_crc>
    c4ec:	8b 45 f8             	mov    -0x8(%rbp),%eax
    c4ef:	48 98                	cltq   
    c4f1:	8b 55 f4             	mov    -0xc(%rbp),%edx
    c4f4:	48 63 f2             	movslq %edx,%rsi
    c4f7:	8b 55 f0             	mov    -0x10(%rbp),%edx
    c4fa:	48 63 ca             	movslq %edx,%rcx
    c4fd:	48 89 c2             	mov    %rax,%rdx
    c500:	48 01 d2             	add    %rdx,%rdx
    c503:	48 01 c2             	add    %rax,%rdx
    c506:	48 89 d0             	mov    %rdx,%rax
    c509:	48 c1 e0 04          	shl    $0x4,%rax
    c50d:	48 89 c2             	mov    %rax,%rdx
    c510:	48 89 f0             	mov    %rsi,%rax
    c513:	48 c1 e0 02          	shl    $0x2,%rax
    c517:	48 01 f0             	add    %rsi,%rax
    c51a:	48 c1 e0 02          	shl    $0x2,%rax
    c51e:	48 01 f0             	add    %rsi,%rax
    c521:	48 c1 e0 04          	shl    $0x4,%rax
    c525:	48 01 c2             	add    %rax,%rdx
    c528:	48 89 c8             	mov    %rcx,%rax
    c52b:	48 c1 e0 02          	shl    $0x2,%rax
    c52f:	48 01 c8             	add    %rcx,%rax
    c532:	48 c1 e0 02          	shl    $0x2,%rax
    c536:	48 01 c8             	add    %rcx,%rax
    c539:	48 c1 e0 06          	shl    $0x6,%rax
    c53d:	48 01 c2             	add    %rax,%rdx
    c540:	48 8d 05 01 b0 00 00 	lea    0xb001(%rip),%rax        # 17548 <g_753+0x8>
    c547:	48 01 d0             	add    %rdx,%rax
    c54a:	48 8b 00             	mov    (%rax),%rax
    c54d:	48 89 c1             	mov    %rax,%rcx
    c550:	8b 45 fc             	mov    -0x4(%rbp),%eax
    c553:	89 c2                	mov    %eax,%edx
    c555:	48 8d 35 11 35 00 00 	lea    0x3511(%rip),%rsi        # fa6d <g_2089+0x191d>
    c55c:	48 89 cf             	mov    %rcx,%rdi
    c55f:	e8 8f 81 ff ff       	callq  46f3 <transparent_crc>
    c564:	8b 45 f8             	mov    -0x8(%rbp),%eax
    c567:	48 98                	cltq   
    c569:	8b 55 f4             	mov    -0xc(%rbp),%edx
    c56c:	48 63 ca             	movslq %edx,%rcx
    c56f:	8b 55 f0             	mov    -0x10(%rbp),%edx
    c572:	48 63 f2             	movslq %edx,%rsi
    c575:	48 89 c2             	mov    %rax,%rdx
    c578:	48 01 d2             	add    %rdx,%rdx
    c57b:	48 01 c2             	add    %rax,%rdx
    c57e:	48 89 d0             	mov    %rdx,%rax
    c581:	48 c1 e0 04          	shl    $0x4,%rax
    c585:	48 89 c2             	mov    %rax,%rdx
    c588:	48 89 f0             	mov    %rsi,%rax
    c58b:	48 c1 e0 02          	shl    $0x2,%rax
    c58f:	48 01 f0             	add    %rsi,%rax
    c592:	48 c1 e0 02          	shl    $0x2,%rax
    c596:	48 01 f0             	add    %rsi,%rax
    c599:	48 c1 e0 06          	shl    $0x6,%rax
    c59d:	48 01 c2             	add    %rax,%rdx
    c5a0:	48 89 c8             	mov    %rcx,%rax
    c5a3:	48 c1 e0 02          	shl    $0x2,%rax
    c5a7:	48 01 c8             	add    %rcx,%rax
    c5aa:	48 c1 e0 02          	shl    $0x2,%rax
    c5ae:	48 01 c8             	add    %rcx,%rax
    c5b1:	48 c1 e0 04          	shl    $0x4,%rax
    c5b5:	48 01 c2             	add    %rax,%rdx
    c5b8:	48 8d 05 91 af 00 00 	lea    0xaf91(%rip),%rax        # 17550 <g_753+0x10>
    c5bf:	48 01 d0             	add    %rdx,%rax
    c5c2:	8b 00                	mov    (%rax),%eax
    c5c4:	48 98                	cltq   
    c5c6:	8b 55 fc             	mov    -0x4(%rbp),%edx
    c5c9:	48 8d 35 af 34 00 00 	lea    0x34af(%rip),%rsi        # fa7f <g_2089+0x192f>
    c5d0:	48 89 c7             	mov    %rax,%rdi
    c5d3:	e8 1b 81 ff ff       	callq  46f3 <transparent_crc>
    c5d8:	8b 45 f8             	mov    -0x8(%rbp),%eax
    c5db:	48 98                	cltq   
    c5dd:	8b 55 f4             	mov    -0xc(%rbp),%edx
    c5e0:	48 63 ca             	movslq %edx,%rcx
    c5e3:	8b 55 f0             	mov    -0x10(%rbp),%edx
    c5e6:	48 63 f2             	movslq %edx,%rsi
    c5e9:	48 89 c2             	mov    %rax,%rdx
    c5ec:	48 01 d2             	add    %rdx,%rdx
    c5ef:	48 01 c2             	add    %rax,%rdx
    c5f2:	48 89 d0             	mov    %rdx,%rax
    c5f5:	48 c1 e0 04          	shl    $0x4,%rax
    c5f9:	48 89 c2             	mov    %rax,%rdx
    c5fc:	48 89 f0             	mov    %rsi,%rax
    c5ff:	48 c1 e0 02          	shl    $0x2,%rax
    c603:	48 01 f0             	add    %rsi,%rax
    c606:	48 c1 e0 02          	shl    $0x2,%rax
    c60a:	48 01 f0             	add    %rsi,%rax
    c60d:	48 c1 e0 06          	shl    $0x6,%rax
    c611:	48 01 c2             	add    %rax,%rdx
    c614:	48 89 c8             	mov    %rcx,%rax
    c617:	48 c1 e0 02          	shl    $0x2,%rax
    c61b:	48 01 c8             	add    %rcx,%rax
    c61e:	48 c1 e0 02          	shl    $0x2,%rax
    c622:	48 01 c8             	add    %rcx,%rax
    c625:	48 c1 e0 04          	shl    $0x4,%rax
    c629:	48 01 c2             	add    %rax,%rdx
    c62c:	48 8d 05 21 af 00 00 	lea    0xaf21(%rip),%rax        # 17554 <g_753+0x14>
    c633:	48 01 d0             	add    %rdx,%rax
    c636:	0f b6 00             	movzbl (%rax),%eax
    c639:	48 0f be c0          	movsbq %al,%rax
    c63d:	8b 55 fc             	mov    -0x4(%rbp),%edx
    c640:	48 8d 35 4a 34 00 00 	lea    0x344a(%rip),%rsi        # fa91 <g_2089+0x1941>
    c647:	48 89 c7             	mov    %rax,%rdi
    c64a:	e8 a4 80 ff ff       	callq  46f3 <transparent_crc>
    c64f:	8b 45 f8             	mov    -0x8(%rbp),%eax
    c652:	48 98                	cltq   
    c654:	8b 55 f4             	mov    -0xc(%rbp),%edx
    c657:	48 63 ca             	movslq %edx,%rcx
    c65a:	8b 55 f0             	mov    -0x10(%rbp),%edx
    c65d:	48 63 f2             	movslq %edx,%rsi
    c660:	48 89 c2             	mov    %rax,%rdx
    c663:	48 01 d2             	add    %rdx,%rdx
    c666:	48 01 c2             	add    %rax,%rdx
    c669:	48 89 d0             	mov    %rdx,%rax
    c66c:	48 c1 e0 04          	shl    $0x4,%rax
    c670:	48 89 c2             	mov    %rax,%rdx
    c673:	48 89 f0             	mov    %rsi,%rax
    c676:	48 c1 e0 02          	shl    $0x2,%rax
    c67a:	48 01 f0             	add    %rsi,%rax
    c67d:	48 c1 e0 02          	shl    $0x2,%rax
    c681:	48 01 f0             	add    %rsi,%rax
    c684:	48 c1 e0 06          	shl    $0x6,%rax
    c688:	48 01 c2             	add    %rax,%rdx
    c68b:	48 89 c8             	mov    %rcx,%rax
    c68e:	48 c1 e0 02          	shl    $0x2,%rax
    c692:	48 01 c8             	add    %rcx,%rax
    c695:	48 c1 e0 02          	shl    $0x2,%rax
    c699:	48 01 c8             	add    %rcx,%rax
    c69c:	48 c1 e0 04          	shl    $0x4,%rax
    c6a0:	48 01 c2             	add    %rax,%rdx
    c6a3:	48 8d 05 ae ae 00 00 	lea    0xaeae(%rip),%rax        # 17558 <g_753+0x18>
    c6aa:	48 01 d0             	add    %rdx,%rax
    c6ad:	8b 00                	mov    (%rax),%eax
    c6af:	89 c1                	mov    %eax,%ecx
    c6b1:	8b 45 fc             	mov    -0x4(%rbp),%eax
    c6b4:	89 c2                	mov    %eax,%edx
    c6b6:	48 8d 35 e6 33 00 00 	lea    0x33e6(%rip),%rsi        # faa3 <g_2089+0x1953>
    c6bd:	48 89 cf             	mov    %rcx,%rdi
    c6c0:	e8 2e 80 ff ff       	callq  46f3 <transparent_crc>
    c6c5:	8b 45 f8             	mov    -0x8(%rbp),%eax
    c6c8:	48 98                	cltq   
    c6ca:	8b 55 f4             	mov    -0xc(%rbp),%edx
    c6cd:	48 63 ca             	movslq %edx,%rcx
    c6d0:	8b 55 f0             	mov    -0x10(%rbp),%edx
    c6d3:	48 63 f2             	movslq %edx,%rsi
    c6d6:	48 89 c2             	mov    %rax,%rdx
    c6d9:	48 01 d2             	add    %rdx,%rdx
    c6dc:	48 01 c2             	add    %rax,%rdx
    c6df:	48 89 d0             	mov    %rdx,%rax
    c6e2:	48 c1 e0 04          	shl    $0x4,%rax
    c6e6:	48 89 c2             	mov    %rax,%rdx
    c6e9:	48 89 f0             	mov    %rsi,%rax
    c6ec:	48 c1 e0 02          	shl    $0x2,%rax
    c6f0:	48 01 f0             	add    %rsi,%rax
    c6f3:	48 c1 e0 02          	shl    $0x2,%rax
    c6f7:	48 01 f0             	add    %rsi,%rax
    c6fa:	48 c1 e0 06          	shl    $0x6,%rax
    c6fe:	48 01 c2             	add    %rax,%rdx
    c701:	48 89 c8             	mov    %rcx,%rax
    c704:	48 c1 e0 02          	shl    $0x2,%rax
    c708:	48 01 c8             	add    %rcx,%rax
    c70b:	48 c1 e0 02          	shl    $0x2,%rax
    c70f:	48 01 c8             	add    %rcx,%rax
    c712:	48 c1 e0 04          	shl    $0x4,%rax
    c716:	48 01 c2             	add    %rax,%rdx
    c719:	48 8d 05 40 ae 00 00 	lea    0xae40(%rip),%rax        # 17560 <g_753+0x20>
    c720:	48 01 d0             	add    %rdx,%rax
    c723:	48 8b 00             	mov    (%rax),%rax
    c726:	48 89 c1             	mov    %rax,%rcx
    c729:	8b 45 fc             	mov    -0x4(%rbp),%eax
    c72c:	89 c2                	mov    %eax,%edx
    c72e:	48 8d 35 80 33 00 00 	lea    0x3380(%rip),%rsi        # fab5 <g_2089+0x1965>
    c735:	48 89 cf             	mov    %rcx,%rdi
    c738:	e8 b6 7f ff ff       	callq  46f3 <transparent_crc>
    c73d:	8b 45 f8             	mov    -0x8(%rbp),%eax
    c740:	48 98                	cltq   
    c742:	8b 55 f4             	mov    -0xc(%rbp),%edx
    c745:	48 63 ca             	movslq %edx,%rcx
    c748:	8b 55 f0             	mov    -0x10(%rbp),%edx
    c74b:	48 63 f2             	movslq %edx,%rsi
    c74e:	48 89 c2             	mov    %rax,%rdx
    c751:	48 01 d2             	add    %rdx,%rdx
    c754:	48 01 c2             	add    %rax,%rdx
    c757:	48 89 d0             	mov    %rdx,%rax
    c75a:	48 c1 e0 04          	shl    $0x4,%rax
    c75e:	48 89 c2             	mov    %rax,%rdx
    c761:	48 89 f0             	mov    %rsi,%rax
    c764:	48 c1 e0 02          	shl    $0x2,%rax
    c768:	48 01 f0             	add    %rsi,%rax
    c76b:	48 c1 e0 02          	shl    $0x2,%rax
    c76f:	48 01 f0             	add    %rsi,%rax
    c772:	48 c1 e0 06          	shl    $0x6,%rax
    c776:	48 01 c2             	add    %rax,%rdx
    c779:	48 89 c8             	mov    %rcx,%rax
    c77c:	48 c1 e0 02          	shl    $0x2,%rax
    c780:	48 01 c8             	add    %rcx,%rax
    c783:	48 c1 e0 02          	shl    $0x2,%rax
    c787:	48 01 c8             	add    %rcx,%rax
    c78a:	48 c1 e0 04          	shl    $0x4,%rax
    c78e:	48 01 c2             	add    %rax,%rdx
    c791:	48 8d 05 d0 ad 00 00 	lea    0xadd0(%rip),%rax        # 17568 <g_753+0x28>
    c798:	48 01 d0             	add    %rdx,%rax
    c79b:	8b 00                	mov    (%rax),%eax
    c79d:	89 c1                	mov    %eax,%ecx
    c79f:	8b 45 fc             	mov    -0x4(%rbp),%eax
    c7a2:	89 c2                	mov    %eax,%edx
    c7a4:	48 8d 35 1c 33 00 00 	lea    0x331c(%rip),%rsi        # fac7 <g_2089+0x1977>
    c7ab:	48 89 cf             	mov    %rcx,%rdi
    c7ae:	e8 40 7f ff ff       	callq  46f3 <transparent_crc>
    c7b3:	8b 45 f8             	mov    -0x8(%rbp),%eax
    c7b6:	48 98                	cltq   
    c7b8:	8b 55 f4             	mov    -0xc(%rbp),%edx
    c7bb:	48 63 ca             	movslq %edx,%rcx
    c7be:	8b 55 f0             	mov    -0x10(%rbp),%edx
    c7c1:	48 63 f2             	movslq %edx,%rsi
    c7c4:	48 89 c2             	mov    %rax,%rdx
    c7c7:	48 01 d2             	add    %rdx,%rdx
    c7ca:	48 01 c2             	add    %rax,%rdx
    c7cd:	48 89 d0             	mov    %rdx,%rax
    c7d0:	48 c1 e0 04          	shl    $0x4,%rax
    c7d4:	48 89 c2             	mov    %rax,%rdx
    c7d7:	48 89 f0             	mov    %rsi,%rax
    c7da:	48 c1 e0 02          	shl    $0x2,%rax
    c7de:	48 01 f0             	add    %rsi,%rax
    c7e1:	48 c1 e0 02          	shl    $0x2,%rax
    c7e5:	48 01 f0             	add    %rsi,%rax
    c7e8:	48 c1 e0 06          	shl    $0x6,%rax
    c7ec:	48 01 c2             	add    %rax,%rdx
    c7ef:	48 89 c8             	mov    %rcx,%rax
    c7f2:	48 c1 e0 02          	shl    $0x2,%rax
    c7f6:	48 01 c8             	add    %rcx,%rax
    c7f9:	48 c1 e0 02          	shl    $0x2,%rax
    c7fd:	48 01 c8             	add    %rcx,%rax
    c800:	48 c1 e0 04          	shl    $0x4,%rax
    c804:	48 01 c2             	add    %rax,%rdx
    c807:	48 8d 05 5e ad 00 00 	lea    0xad5e(%rip),%rax        # 1756c <g_753+0x2c>
    c80e:	48 01 d0             	add    %rdx,%rax
    c811:	8b 00                	mov    (%rax),%eax
    c813:	48 98                	cltq   
    c815:	8b 55 fc             	mov    -0x4(%rbp),%edx
    c818:	48 8d 35 ba 32 00 00 	lea    0x32ba(%rip),%rsi        # fad9 <g_2089+0x1989>
    c81f:	48 89 c7             	mov    %rax,%rdi
    c822:	e8 cc 7e ff ff       	callq  46f3 <transparent_crc>
    c827:	83 7d fc 00          	cmpl   $0x0,-0x4(%rbp)
    c82b:	74 1c                	je     c849 <main+0x1c52>
    c82d:	8b 4d f8             	mov    -0x8(%rbp),%ecx
    c830:	8b 55 f4             	mov    -0xc(%rbp),%edx
    c833:	8b 45 f0             	mov    -0x10(%rbp),%eax
    c836:	89 c6                	mov    %eax,%esi
    c838:	48 8d 3d 74 2c 00 00 	lea    0x2c74(%rip),%rdi        # f4b3 <g_2089+0x1363>
    c83f:	b8 00 00 00 00       	mov    $0x0,%eax
    c844:	e8 37 68 ff ff       	callq  3080 <printf@plt>
    c849:	83 45 f8 01          	addl   $0x1,-0x8(%rbp)
    c84d:	83 7d f8 06          	cmpl   $0x6,-0x8(%rbp)
    c851:	0f 8e 21 fc ff ff    	jle    c478 <main+0x1881>
    c857:	83 45 f4 01          	addl   $0x1,-0xc(%rbp)
    c85b:	83 7d f4 03          	cmpl   $0x3,-0xc(%rbp)
    c85f:	0f 8e 07 fc ff ff    	jle    c46c <main+0x1875>
    c865:	83 45 f0 01          	addl   $0x1,-0x10(%rbp)
    c869:	83 7d f0 05          	cmpl   $0x5,-0x10(%rbp)
    c86d:	0f 8e ed fb ff ff    	jle    c460 <main+0x1869>
    c873:	c7 45 f0 00 00 00 00 	movl   $0x0,-0x10(%rbp)
    c87a:	e9 cf 01 00 00       	jmpq   ca4e <main+0x1e57>
    c87f:	8b 45 f0             	mov    -0x10(%rbp),%eax
    c882:	48 63 d0             	movslq %eax,%rdx
    c885:	48 89 d0             	mov    %rdx,%rax
    c888:	48 01 c0             	add    %rax,%rax
    c88b:	48 01 d0             	add    %rdx,%rax
    c88e:	48 c1 e0 04          	shl    $0x4,%rax
    c892:	48 89 c2             	mov    %rax,%rdx
    c895:	48 8d 05 24 cc 00 00 	lea    0xcc24(%rip),%rax        # 194c0 <g_758>
    c89c:	8b 04 02             	mov    (%rdx,%rax,1),%eax
    c89f:	48 98                	cltq   
    c8a1:	8b 55 fc             	mov    -0x4(%rbp),%edx
    c8a4:	48 8d 35 40 32 00 00 	lea    0x3240(%rip),%rsi        # faeb <g_2089+0x199b>
    c8ab:	48 89 c7             	mov    %rax,%rdi
    c8ae:	e8 40 7e ff ff       	callq  46f3 <transparent_crc>
    c8b3:	8b 45 f0             	mov    -0x10(%rbp),%eax
    c8b6:	48 63 d0             	movslq %eax,%rdx
    c8b9:	48 89 d0             	mov    %rdx,%rax
    c8bc:	48 01 c0             	add    %rax,%rax
    c8bf:	48 01 d0             	add    %rdx,%rax
    c8c2:	48 c1 e0 04          	shl    $0x4,%rax
    c8c6:	48 89 c2             	mov    %rax,%rdx
    c8c9:	48 8d 05 f8 cb 00 00 	lea    0xcbf8(%rip),%rax        # 194c8 <g_758+0x8>
    c8d0:	48 8b 04 02          	mov    (%rdx,%rax,1),%rax
    c8d4:	48 89 c1             	mov    %rax,%rcx
    c8d7:	8b 45 fc             	mov    -0x4(%rbp),%eax
    c8da:	89 c2                	mov    %eax,%edx
    c8dc:	48 8d 35 14 32 00 00 	lea    0x3214(%rip),%rsi        # faf7 <g_2089+0x19a7>
    c8e3:	48 89 cf             	mov    %rcx,%rdi
    c8e6:	e8 08 7e ff ff       	callq  46f3 <transparent_crc>
    c8eb:	8b 45 f0             	mov    -0x10(%rbp),%eax
    c8ee:	48 63 d0             	movslq %eax,%rdx
    c8f1:	48 89 d0             	mov    %rdx,%rax
    c8f4:	48 01 c0             	add    %rax,%rax
    c8f7:	48 01 d0             	add    %rdx,%rax
    c8fa:	48 c1 e0 04          	shl    $0x4,%rax
    c8fe:	48 89 c2             	mov    %rax,%rdx
    c901:	48 8d 05 c8 cb 00 00 	lea    0xcbc8(%rip),%rax        # 194d0 <g_758+0x10>
    c908:	8b 04 02             	mov    (%rdx,%rax,1),%eax
    c90b:	48 98                	cltq   
    c90d:	8b 55 fc             	mov    -0x4(%rbp),%edx
    c910:	48 8d 35 ec 31 00 00 	lea    0x31ec(%rip),%rsi        # fb03 <g_2089+0x19b3>
    c917:	48 89 c7             	mov    %rax,%rdi
    c91a:	e8 d4 7d ff ff       	callq  46f3 <transparent_crc>
    c91f:	8b 45 f0             	mov    -0x10(%rbp),%eax
    c922:	48 63 d0             	movslq %eax,%rdx
    c925:	48 89 d0             	mov    %rdx,%rax
    c928:	48 01 c0             	add    %rax,%rax
    c92b:	48 01 d0             	add    %rdx,%rax
    c92e:	48 c1 e0 04          	shl    $0x4,%rax
    c932:	48 89 c2             	mov    %rax,%rdx
    c935:	48 8d 05 98 cb 00 00 	lea    0xcb98(%rip),%rax        # 194d4 <g_758+0x14>
    c93c:	0f b6 04 02          	movzbl (%rdx,%rax,1),%eax
    c940:	48 0f be c0          	movsbq %al,%rax
    c944:	8b 55 fc             	mov    -0x4(%rbp),%edx
    c947:	48 8d 35 c1 31 00 00 	lea    0x31c1(%rip),%rsi        # fb0f <g_2089+0x19bf>
    c94e:	48 89 c7             	mov    %rax,%rdi
    c951:	e8 9d 7d ff ff       	callq  46f3 <transparent_crc>
    c956:	8b 45 f0             	mov    -0x10(%rbp),%eax
    c959:	48 63 d0             	movslq %eax,%rdx
    c95c:	48 89 d0             	mov    %rdx,%rax
    c95f:	48 01 c0             	add    %rax,%rax
    c962:	48 01 d0             	add    %rdx,%rax
    c965:	48 c1 e0 04          	shl    $0x4,%rax
    c969:	48 89 c2             	mov    %rax,%rdx
    c96c:	48 8d 05 65 cb 00 00 	lea    0xcb65(%rip),%rax        # 194d8 <g_758+0x18>
    c973:	8b 04 02             	mov    (%rdx,%rax,1),%eax
    c976:	89 c1                	mov    %eax,%ecx
    c978:	8b 45 fc             	mov    -0x4(%rbp),%eax
    c97b:	89 c2                	mov    %eax,%edx
    c97d:	48 8d 35 97 31 00 00 	lea    0x3197(%rip),%rsi        # fb1b <g_2089+0x19cb>
    c984:	48 89 cf             	mov    %rcx,%rdi
    c987:	e8 67 7d ff ff       	callq  46f3 <transparent_crc>
    c98c:	8b 45 f0             	mov    -0x10(%rbp),%eax
    c98f:	48 63 d0             	movslq %eax,%rdx
    c992:	48 89 d0             	mov    %rdx,%rax
    c995:	48 01 c0             	add    %rax,%rax
    c998:	48 01 d0             	add    %rdx,%rax
    c99b:	48 c1 e0 04          	shl    $0x4,%rax
    c99f:	48 89 c2             	mov    %rax,%rdx
    c9a2:	48 8d 05 37 cb 00 00 	lea    0xcb37(%rip),%rax        # 194e0 <g_758+0x20>
    c9a9:	48 8b 04 02          	mov    (%rdx,%rax,1),%rax
    c9ad:	48 89 c1             	mov    %rax,%rcx
    c9b0:	8b 45 fc             	mov    -0x4(%rbp),%eax
    c9b3:	89 c2                	mov    %eax,%edx
    c9b5:	48 8d 35 6b 31 00 00 	lea    0x316b(%rip),%rsi        # fb27 <g_2089+0x19d7>
    c9bc:	48 89 cf             	mov    %rcx,%rdi
    c9bf:	e8 2f 7d ff ff       	callq  46f3 <transparent_crc>
    c9c4:	8b 45 f0             	mov    -0x10(%rbp),%eax
    c9c7:	48 63 d0             	movslq %eax,%rdx
    c9ca:	48 89 d0             	mov    %rdx,%rax
    c9cd:	48 01 c0             	add    %rax,%rax
    c9d0:	48 01 d0             	add    %rdx,%rax
    c9d3:	48 c1 e0 04          	shl    $0x4,%rax
    c9d7:	48 89 c2             	mov    %rax,%rdx
    c9da:	48 8d 05 07 cb 00 00 	lea    0xcb07(%rip),%rax        # 194e8 <g_758+0x28>
    c9e1:	8b 04 02             	mov    (%rdx,%rax,1),%eax
    c9e4:	89 c1                	mov    %eax,%ecx
    c9e6:	8b 45 fc             	mov    -0x4(%rbp),%eax
    c9e9:	89 c2                	mov    %eax,%edx
    c9eb:	48 8d 35 41 31 00 00 	lea    0x3141(%rip),%rsi        # fb33 <g_2089+0x19e3>
    c9f2:	48 89 cf             	mov    %rcx,%rdi
    c9f5:	e8 f9 7c ff ff       	callq  46f3 <transparent_crc>
    c9fa:	8b 45 f0             	mov    -0x10(%rbp),%eax
    c9fd:	48 63 d0             	movslq %eax,%rdx
    ca00:	48 89 d0             	mov    %rdx,%rax
    ca03:	48 01 c0             	add    %rax,%rax
    ca06:	48 01 d0             	add    %rdx,%rax
    ca09:	48 c1 e0 04          	shl    $0x4,%rax
    ca0d:	48 89 c2             	mov    %rax,%rdx
    ca10:	48 8d 05 d5 ca 00 00 	lea    0xcad5(%rip),%rax        # 194ec <g_758+0x2c>
    ca17:	8b 04 02             	mov    (%rdx,%rax,1),%eax
    ca1a:	48 98                	cltq   
    ca1c:	8b 55 fc             	mov    -0x4(%rbp),%edx
    ca1f:	48 8d 35 19 31 00 00 	lea    0x3119(%rip),%rsi        # fb3f <g_2089+0x19ef>
    ca26:	48 89 c7             	mov    %rax,%rdi
    ca29:	e8 c5 7c ff ff       	callq  46f3 <transparent_crc>
    ca2e:	83 7d fc 00          	cmpl   $0x0,-0x4(%rbp)
    ca32:	74 16                	je     ca4a <main+0x1e53>
    ca34:	8b 45 f0             	mov    -0x10(%rbp),%eax
    ca37:	89 c6                	mov    %eax,%esi
    ca39:	48 8d 3d bb 2a 00 00 	lea    0x2abb(%rip),%rdi        # f4fb <g_2089+0x13ab>
    ca40:	b8 00 00 00 00       	mov    $0x0,%eax
    ca45:	e8 36 66 ff ff       	callq  3080 <printf@plt>
    ca4a:	83 45 f0 01          	addl   $0x1,-0x10(%rbp)
    ca4e:	83 7d f0 03          	cmpl   $0x3,-0x10(%rbp)
    ca52:	0f 8e 27 fe ff ff    	jle    c87f <main+0x1c88>
    ca58:	c7 45 f0 00 00 00 00 	movl   $0x0,-0x10(%rbp)
    ca5f:	e9 cf 01 00 00       	jmpq   cc33 <main+0x203c>
    ca64:	8b 45 f0             	mov    -0x10(%rbp),%eax
    ca67:	48 63 d0             	movslq %eax,%rdx
    ca6a:	48 89 d0             	mov    %rdx,%rax
    ca6d:	48 01 c0             	add    %rax,%rax
    ca70:	48 01 d0             	add    %rdx,%rax
    ca73:	48 c1 e0 04          	shl    $0x4,%rax
    ca77:	48 89 c2             	mov    %rax,%rdx
    ca7a:	48 8d 05 ff ca 00 00 	lea    0xcaff(%rip),%rax        # 19580 <g_760>
    ca81:	8b 04 02             	mov    (%rdx,%rax,1),%eax
    ca84:	48 98                	cltq   
    ca86:	8b 55 fc             	mov    -0x4(%rbp),%edx
    ca89:	48 8d 35 bb 30 00 00 	lea    0x30bb(%rip),%rsi        # fb4b <g_2089+0x19fb>
    ca90:	48 89 c7             	mov    %rax,%rdi
    ca93:	e8 5b 7c ff ff       	callq  46f3 <transparent_crc>
    ca98:	8b 45 f0             	mov    -0x10(%rbp),%eax
    ca9b:	48 63 d0             	movslq %eax,%rdx
    ca9e:	48 89 d0             	mov    %rdx,%rax
    caa1:	48 01 c0             	add    %rax,%rax
    caa4:	48 01 d0             	add    %rdx,%rax
    caa7:	48 c1 e0 04          	shl    $0x4,%rax
    caab:	48 89 c2             	mov    %rax,%rdx
    caae:	48 8d 05 d3 ca 00 00 	lea    0xcad3(%rip),%rax        # 19588 <g_760+0x8>
    cab5:	48 8b 04 02          	mov    (%rdx,%rax,1),%rax
    cab9:	48 89 c1             	mov    %rax,%rcx
    cabc:	8b 45 fc             	mov    -0x4(%rbp),%eax
    cabf:	89 c2                	mov    %eax,%edx
    cac1:	48 8d 35 8f 30 00 00 	lea    0x308f(%rip),%rsi        # fb57 <g_2089+0x1a07>
    cac8:	48 89 cf             	mov    %rcx,%rdi
    cacb:	e8 23 7c ff ff       	callq  46f3 <transparent_crc>
    cad0:	8b 45 f0             	mov    -0x10(%rbp),%eax
    cad3:	48 63 d0             	movslq %eax,%rdx
    cad6:	48 89 d0             	mov    %rdx,%rax
    cad9:	48 01 c0             	add    %rax,%rax
    cadc:	48 01 d0             	add    %rdx,%rax
    cadf:	48 c1 e0 04          	shl    $0x4,%rax
    cae3:	48 89 c2             	mov    %rax,%rdx
    cae6:	48 8d 05 a3 ca 00 00 	lea    0xcaa3(%rip),%rax        # 19590 <g_760+0x10>
    caed:	8b 04 02             	mov    (%rdx,%rax,1),%eax
    caf0:	48 98                	cltq   
    caf2:	8b 55 fc             	mov    -0x4(%rbp),%edx
    caf5:	48 8d 35 67 30 00 00 	lea    0x3067(%rip),%rsi        # fb63 <g_2089+0x1a13>
    cafc:	48 89 c7             	mov    %rax,%rdi
    caff:	e8 ef 7b ff ff       	callq  46f3 <transparent_crc>
    cb04:	8b 45 f0             	mov    -0x10(%rbp),%eax
    cb07:	48 63 d0             	movslq %eax,%rdx
    cb0a:	48 89 d0             	mov    %rdx,%rax
    cb0d:	48 01 c0             	add    %rax,%rax
    cb10:	48 01 d0             	add    %rdx,%rax
    cb13:	48 c1 e0 04          	shl    $0x4,%rax
    cb17:	48 89 c2             	mov    %rax,%rdx
    cb1a:	48 8d 05 73 ca 00 00 	lea    0xca73(%rip),%rax        # 19594 <g_760+0x14>
    cb21:	0f b6 04 02          	movzbl (%rdx,%rax,1),%eax
    cb25:	48 0f be c0          	movsbq %al,%rax
    cb29:	8b 55 fc             	mov    -0x4(%rbp),%edx
    cb2c:	48 8d 35 3c 30 00 00 	lea    0x303c(%rip),%rsi        # fb6f <g_2089+0x1a1f>
    cb33:	48 89 c7             	mov    %rax,%rdi
    cb36:	e8 b8 7b ff ff       	callq  46f3 <transparent_crc>
    cb3b:	8b 45 f0             	mov    -0x10(%rbp),%eax
    cb3e:	48 63 d0             	movslq %eax,%rdx
    cb41:	48 89 d0             	mov    %rdx,%rax
    cb44:	48 01 c0             	add    %rax,%rax
    cb47:	48 01 d0             	add    %rdx,%rax
    cb4a:	48 c1 e0 04          	shl    $0x4,%rax
    cb4e:	48 89 c2             	mov    %rax,%rdx
    cb51:	48 8d 05 40 ca 00 00 	lea    0xca40(%rip),%rax        # 19598 <g_760+0x18>
    cb58:	8b 04 02             	mov    (%rdx,%rax,1),%eax
    cb5b:	89 c1                	mov    %eax,%ecx
    cb5d:	8b 45 fc             	mov    -0x4(%rbp),%eax
    cb60:	89 c2                	mov    %eax,%edx
    cb62:	48 8d 35 12 30 00 00 	lea    0x3012(%rip),%rsi        # fb7b <g_2089+0x1a2b>
    cb69:	48 89 cf             	mov    %rcx,%rdi
    cb6c:	e8 82 7b ff ff       	callq  46f3 <transparent_crc>
    cb71:	8b 45 f0             	mov    -0x10(%rbp),%eax
    cb74:	48 63 d0             	movslq %eax,%rdx
    cb77:	48 89 d0             	mov    %rdx,%rax
    cb7a:	48 01 c0             	add    %rax,%rax
    cb7d:	48 01 d0             	add    %rdx,%rax
    cb80:	48 c1 e0 04          	shl    $0x4,%rax
    cb84:	48 89 c2             	mov    %rax,%rdx
    cb87:	48 8d 05 12 ca 00 00 	lea    0xca12(%rip),%rax        # 195a0 <g_760+0x20>
    cb8e:	48 8b 04 02          	mov    (%rdx,%rax,1),%rax
    cb92:	48 89 c1             	mov    %rax,%rcx
    cb95:	8b 45 fc             	mov    -0x4(%rbp),%eax
    cb98:	89 c2                	mov    %eax,%edx
    cb9a:	48 8d 35 e6 2f 00 00 	lea    0x2fe6(%rip),%rsi        # fb87 <g_2089+0x1a37>
    cba1:	48 89 cf             	mov    %rcx,%rdi
    cba4:	e8 4a 7b ff ff       	callq  46f3 <transparent_crc>
    cba9:	8b 45 f0             	mov    -0x10(%rbp),%eax
    cbac:	48 63 d0             	movslq %eax,%rdx
    cbaf:	48 89 d0             	mov    %rdx,%rax
    cbb2:	48 01 c0             	add    %rax,%rax
    cbb5:	48 01 d0             	add    %rdx,%rax
    cbb8:	48 c1 e0 04          	shl    $0x4,%rax
    cbbc:	48 89 c2             	mov    %rax,%rdx
    cbbf:	48 8d 05 e2 c9 00 00 	lea    0xc9e2(%rip),%rax        # 195a8 <g_760+0x28>
    cbc6:	8b 04 02             	mov    (%rdx,%rax,1),%eax
    cbc9:	89 c1                	mov    %eax,%ecx
    cbcb:	8b 45 fc             	mov    -0x4(%rbp),%eax
    cbce:	89 c2                	mov    %eax,%edx
    cbd0:	48 8d 35 bc 2f 00 00 	lea    0x2fbc(%rip),%rsi        # fb93 <g_2089+0x1a43>
    cbd7:	48 89 cf             	mov    %rcx,%rdi
    cbda:	e8 14 7b ff ff       	callq  46f3 <transparent_crc>
    cbdf:	8b 45 f0             	mov    -0x10(%rbp),%eax
    cbe2:	48 63 d0             	movslq %eax,%rdx
    cbe5:	48 89 d0             	mov    %rdx,%rax
    cbe8:	48 01 c0             	add    %rax,%rax
    cbeb:	48 01 d0             	add    %rdx,%rax
    cbee:	48 c1 e0 04          	shl    $0x4,%rax
    cbf2:	48 89 c2             	mov    %rax,%rdx
    cbf5:	48 8d 05 b0 c9 00 00 	lea    0xc9b0(%rip),%rax        # 195ac <g_760+0x2c>
    cbfc:	8b 04 02             	mov    (%rdx,%rax,1),%eax
    cbff:	48 98                	cltq   
    cc01:	8b 55 fc             	mov    -0x4(%rbp),%edx
    cc04:	48 8d 35 94 2f 00 00 	lea    0x2f94(%rip),%rsi        # fb9f <g_2089+0x1a4f>
    cc0b:	48 89 c7             	mov    %rax,%rdi
    cc0e:	e8 e0 7a ff ff       	callq  46f3 <transparent_crc>
    cc13:	83 7d fc 00          	cmpl   $0x0,-0x4(%rbp)
    cc17:	74 16                	je     cc2f <main+0x2038>
    cc19:	8b 45 f0             	mov    -0x10(%rbp),%eax
    cc1c:	89 c6                	mov    %eax,%esi
    cc1e:	48 8d 3d d6 28 00 00 	lea    0x28d6(%rip),%rdi        # f4fb <g_2089+0x13ab>
    cc25:	b8 00 00 00 00       	mov    $0x0,%eax
    cc2a:	e8 51 64 ff ff       	callq  3080 <printf@plt>
    cc2f:	83 45 f0 01          	addl   $0x1,-0x10(%rbp)
    cc33:	83 7d f0 04          	cmpl   $0x4,-0x10(%rbp)
    cc37:	0f 8e 27 fe ff ff    	jle    ca64 <main+0x1e6d>
    cc3d:	8b 05 2d ca 00 00    	mov    0xca2d(%rip),%eax        # 19670 <g_794>
    cc43:	48 98                	cltq   
    cc45:	8b 55 fc             	mov    -0x4(%rbp),%edx
    cc48:	48 8d 35 5c 2f 00 00 	lea    0x2f5c(%rip),%rsi        # fbab <g_2089+0x1a5b>
    cc4f:	48 89 c7             	mov    %rax,%rdi
    cc52:	e8 9c 7a ff ff       	callq  46f3 <transparent_crc>
    cc57:	c7 45 f0 00 00 00 00 	movl   $0x0,-0x10(%rbp)
    cc5e:	eb 73                	jmp    ccd3 <main+0x20dc>
    cc60:	c7 45 f4 00 00 00 00 	movl   $0x0,-0xc(%rbp)
    cc67:	eb 60                	jmp    ccc9 <main+0x20d2>
    cc69:	8b 45 f4             	mov    -0xc(%rbp),%eax
    cc6c:	48 63 c8             	movslq %eax,%rcx
    cc6f:	8b 45 f0             	mov    -0x10(%rbp),%eax
    cc72:	48 63 d0             	movslq %eax,%rdx
    cc75:	48 89 d0             	mov    %rdx,%rax
    cc78:	48 c1 e0 03          	shl    $0x3,%rax
    cc7c:	48 01 d0             	add    %rdx,%rax
    cc7f:	48 01 c8             	add    %rcx,%rax
    cc82:	48 8d 14 00          	lea    (%rax,%rax,1),%rdx
    cc86:	48 8d 05 f3 c9 00 00 	lea    0xc9f3(%rip),%rax        # 19680 <g_851>
    cc8d:	0f b7 04 02          	movzwl (%rdx,%rax,1),%eax
    cc91:	0f b7 c0             	movzwl %ax,%eax
    cc94:	8b 55 fc             	mov    -0x4(%rbp),%edx
    cc97:	48 8d 35 13 2f 00 00 	lea    0x2f13(%rip),%rsi        # fbb1 <g_2089+0x1a61>
    cc9e:	48 89 c7             	mov    %rax,%rdi
    cca1:	e8 4d 7a ff ff       	callq  46f3 <transparent_crc>
    cca6:	83 7d fc 00          	cmpl   $0x0,-0x4(%rbp)
    ccaa:	74 19                	je     ccc5 <main+0x20ce>
    ccac:	8b 55 f4             	mov    -0xc(%rbp),%edx
    ccaf:	8b 45 f0             	mov    -0x10(%rbp),%eax
    ccb2:	89 c6                	mov    %eax,%esi
    ccb4:	48 8d 3d 06 2b 00 00 	lea    0x2b06(%rip),%rdi        # f7c1 <g_2089+0x1671>
    ccbb:	b8 00 00 00 00       	mov    $0x0,%eax
    ccc0:	e8 bb 63 ff ff       	callq  3080 <printf@plt>
    ccc5:	83 45 f4 01          	addl   $0x1,-0xc(%rbp)
    ccc9:	83 7d f4 08          	cmpl   $0x8,-0xc(%rbp)
    cccd:	7e 9a                	jle    cc69 <main+0x2072>
    cccf:	83 45 f0 01          	addl   $0x1,-0x10(%rbp)
    ccd3:	83 7d f0 01          	cmpl   $0x1,-0x10(%rbp)
    ccd7:	7e 87                	jle    cc60 <main+0x2069>
    ccd9:	8b 05 e1 c9 00 00    	mov    0xc9e1(%rip),%eax        # 196c0 <g_869>
    ccdf:	48 98                	cltq   
    cce1:	8b 55 fc             	mov    -0x4(%rbp),%edx
    cce4:	48 8d 35 d2 2e 00 00 	lea    0x2ed2(%rip),%rsi        # fbbd <g_2089+0x1a6d>
    cceb:	48 89 c7             	mov    %rax,%rdi
    ccee:	e8 00 7a ff ff       	callq  46f3 <transparent_crc>
    ccf3:	48 8b 05 ce c9 00 00 	mov    0xc9ce(%rip),%rax        # 196c8 <g_869+0x8>
    ccfa:	48 89 c1             	mov    %rax,%rcx
    ccfd:	8b 45 fc             	mov    -0x4(%rbp),%eax
    cd00:	89 c2                	mov    %eax,%edx
    cd02:	48 8d 35 bd 2e 00 00 	lea    0x2ebd(%rip),%rsi        # fbc6 <g_2089+0x1a76>
    cd09:	48 89 cf             	mov    %rcx,%rdi
    cd0c:	e8 e2 79 ff ff       	callq  46f3 <transparent_crc>
    cd11:	8b 05 b9 c9 00 00    	mov    0xc9b9(%rip),%eax        # 196d0 <g_869+0x10>
    cd17:	48 98                	cltq   
    cd19:	8b 55 fc             	mov    -0x4(%rbp),%edx
    cd1c:	48 8d 35 ac 2e 00 00 	lea    0x2eac(%rip),%rsi        # fbcf <g_2089+0x1a7f>
    cd23:	48 89 c7             	mov    %rax,%rdi
    cd26:	e8 c8 79 ff ff       	callq  46f3 <transparent_crc>
    cd2b:	0f b6 05 a2 c9 00 00 	movzbl 0xc9a2(%rip),%eax        # 196d4 <g_869+0x14>
    cd32:	48 0f be c0          	movsbq %al,%rax
    cd36:	8b 55 fc             	mov    -0x4(%rbp),%edx
    cd39:	48 8d 35 98 2e 00 00 	lea    0x2e98(%rip),%rsi        # fbd8 <g_2089+0x1a88>
    cd40:	48 89 c7             	mov    %rax,%rdi
    cd43:	e8 ab 79 ff ff       	callq  46f3 <transparent_crc>
    cd48:	8b 05 8a c9 00 00    	mov    0xc98a(%rip),%eax        # 196d8 <g_869+0x18>
    cd4e:	89 c1                	mov    %eax,%ecx
    cd50:	8b 45 fc             	mov    -0x4(%rbp),%eax
    cd53:	89 c2                	mov    %eax,%edx
    cd55:	48 8d 35 85 2e 00 00 	lea    0x2e85(%rip),%rsi        # fbe1 <g_2089+0x1a91>
    cd5c:	48 89 cf             	mov    %rcx,%rdi
    cd5f:	e8 8f 79 ff ff       	callq  46f3 <transparent_crc>
    cd64:	48 8b 05 75 c9 00 00 	mov    0xc975(%rip),%rax        # 196e0 <g_869+0x20>
    cd6b:	48 89 c1             	mov    %rax,%rcx
    cd6e:	8b 45 fc             	mov    -0x4(%rbp),%eax
    cd71:	89 c2                	mov    %eax,%edx
    cd73:	48 8d 35 70 2e 00 00 	lea    0x2e70(%rip),%rsi        # fbea <g_2089+0x1a9a>
    cd7a:	48 89 cf             	mov    %rcx,%rdi
    cd7d:	e8 71 79 ff ff       	callq  46f3 <transparent_crc>
    cd82:	8b 05 60 c9 00 00    	mov    0xc960(%rip),%eax        # 196e8 <g_869+0x28>
    cd88:	89 c1                	mov    %eax,%ecx
    cd8a:	8b 45 fc             	mov    -0x4(%rbp),%eax
    cd8d:	89 c2                	mov    %eax,%edx
    cd8f:	48 8d 35 5d 2e 00 00 	lea    0x2e5d(%rip),%rsi        # fbf3 <g_2089+0x1aa3>
    cd96:	48 89 cf             	mov    %rcx,%rdi
    cd99:	e8 55 79 ff ff       	callq  46f3 <transparent_crc>
    cd9e:	8b 05 48 c9 00 00    	mov    0xc948(%rip),%eax        # 196ec <g_869+0x2c>
    cda4:	48 98                	cltq   
    cda6:	8b 55 fc             	mov    -0x4(%rbp),%edx
    cda9:	48 8d 35 4c 2e 00 00 	lea    0x2e4c(%rip),%rsi        # fbfc <g_2089+0x1aac>
    cdb0:	48 89 c7             	mov    %rax,%rdi
    cdb3:	e8 3b 79 ff ff       	callq  46f3 <transparent_crc>
    cdb8:	8b 05 42 c9 00 00    	mov    0xc942(%rip),%eax        # 19700 <g_930>
    cdbe:	48 98                	cltq   
    cdc0:	8b 55 fc             	mov    -0x4(%rbp),%edx
    cdc3:	48 8d 35 3b 2e 00 00 	lea    0x2e3b(%rip),%rsi        # fc05 <g_2089+0x1ab5>
    cdca:	48 89 c7             	mov    %rax,%rdi
    cdcd:	e8 21 79 ff ff       	callq  46f3 <transparent_crc>
    cdd2:	48 8b 05 2f c9 00 00 	mov    0xc92f(%rip),%rax        # 19708 <g_930+0x8>
    cdd9:	48 89 c1             	mov    %rax,%rcx
    cddc:	8b 45 fc             	mov    -0x4(%rbp),%eax
    cddf:	89 c2                	mov    %eax,%edx
    cde1:	48 8d 35 26 2e 00 00 	lea    0x2e26(%rip),%rsi        # fc0e <g_2089+0x1abe>
    cde8:	48 89 cf             	mov    %rcx,%rdi
    cdeb:	e8 03 79 ff ff       	callq  46f3 <transparent_crc>
    cdf0:	8b 05 1a c9 00 00    	mov    0xc91a(%rip),%eax        # 19710 <g_930+0x10>
    cdf6:	48 98                	cltq   
    cdf8:	8b 55 fc             	mov    -0x4(%rbp),%edx
    cdfb:	48 8d 35 15 2e 00 00 	lea    0x2e15(%rip),%rsi        # fc17 <g_2089+0x1ac7>
    ce02:	48 89 c7             	mov    %rax,%rdi
    ce05:	e8 e9 78 ff ff       	callq  46f3 <transparent_crc>
    ce0a:	0f b6 05 03 c9 00 00 	movzbl 0xc903(%rip),%eax        # 19714 <g_930+0x14>
    ce11:	48 0f be c0          	movsbq %al,%rax
    ce15:	8b 55 fc             	mov    -0x4(%rbp),%edx
    ce18:	48 8d 35 01 2e 00 00 	lea    0x2e01(%rip),%rsi        # fc20 <g_2089+0x1ad0>
    ce1f:	48 89 c7             	mov    %rax,%rdi
    ce22:	e8 cc 78 ff ff       	callq  46f3 <transparent_crc>
    ce27:	8b 05 eb c8 00 00    	mov    0xc8eb(%rip),%eax        # 19718 <g_930+0x18>
    ce2d:	89 c1                	mov    %eax,%ecx
    ce2f:	8b 45 fc             	mov    -0x4(%rbp),%eax
    ce32:	89 c2                	mov    %eax,%edx
    ce34:	48 8d 35 ee 2d 00 00 	lea    0x2dee(%rip),%rsi        # fc29 <g_2089+0x1ad9>
    ce3b:	48 89 cf             	mov    %rcx,%rdi
    ce3e:	e8 b0 78 ff ff       	callq  46f3 <transparent_crc>
    ce43:	48 8b 05 d6 c8 00 00 	mov    0xc8d6(%rip),%rax        # 19720 <g_930+0x20>
    ce4a:	48 89 c1             	mov    %rax,%rcx
    ce4d:	8b 45 fc             	mov    -0x4(%rbp),%eax
    ce50:	89 c2                	mov    %eax,%edx
    ce52:	48 8d 35 d9 2d 00 00 	lea    0x2dd9(%rip),%rsi        # fc32 <g_2089+0x1ae2>
    ce59:	48 89 cf             	mov    %rcx,%rdi
    ce5c:	e8 92 78 ff ff       	callq  46f3 <transparent_crc>
    ce61:	8b 05 c1 c8 00 00    	mov    0xc8c1(%rip),%eax        # 19728 <g_930+0x28>
    ce67:	89 c1                	mov    %eax,%ecx
    ce69:	8b 45 fc             	mov    -0x4(%rbp),%eax
    ce6c:	89 c2                	mov    %eax,%edx
    ce6e:	48 8d 35 c6 2d 00 00 	lea    0x2dc6(%rip),%rsi        # fc3b <g_2089+0x1aeb>
    ce75:	48 89 cf             	mov    %rcx,%rdi
    ce78:	e8 76 78 ff ff       	callq  46f3 <transparent_crc>
    ce7d:	8b 05 a9 c8 00 00    	mov    0xc8a9(%rip),%eax        # 1972c <g_930+0x2c>
    ce83:	48 98                	cltq   
    ce85:	8b 55 fc             	mov    -0x4(%rbp),%edx
    ce88:	48 8d 35 b5 2d 00 00 	lea    0x2db5(%rip),%rsi        # fc44 <g_2089+0x1af4>
    ce8f:	48 89 c7             	mov    %rax,%rdi
    ce92:	e8 5c 78 ff ff       	callq  46f3 <transparent_crc>
    ce97:	c7 45 f0 00 00 00 00 	movl   $0x0,-0x10(%rbp)
    ce9e:	eb 50                	jmp    cef0 <main+0x22f9>
    cea0:	8b 45 f0             	mov    -0x10(%rbp),%eax
    cea3:	48 98                	cltq   
    cea5:	48 8d 14 85 00 00 00 	lea    0x0(,%rax,4),%rdx
    ceac:	00 
    cead:	48 8d 05 7c c8 00 00 	lea    0xc87c(%rip),%rax        # 19730 <g_933>
    ceb4:	8b 04 02             	mov    (%rdx,%rax,1),%eax
    ceb7:	66 25 ff 03          	and    $0x3ff,%ax
    cebb:	0f b7 c0             	movzwl %ax,%eax
    cebe:	8b 55 fc             	mov    -0x4(%rbp),%edx
    cec1:	48 8d 35 85 2d 00 00 	lea    0x2d85(%rip),%rsi        # fc4d <g_2089+0x1afd>
    cec8:	48 89 c7             	mov    %rax,%rdi
    cecb:	e8 23 78 ff ff       	callq  46f3 <transparent_crc>
    ced0:	83 7d fc 00          	cmpl   $0x0,-0x4(%rbp)
    ced4:	74 16                	je     ceec <main+0x22f5>
    ced6:	8b 45 f0             	mov    -0x10(%rbp),%eax
    ced9:	89 c6                	mov    %eax,%esi
    cedb:	48 8d 3d 19 26 00 00 	lea    0x2619(%rip),%rdi        # f4fb <g_2089+0x13ab>
    cee2:	b8 00 00 00 00       	mov    $0x0,%eax
    cee7:	e8 94 61 ff ff       	callq  3080 <printf@plt>
    ceec:	83 45 f0 01          	addl   $0x1,-0x10(%rbp)
    cef0:	83 7d f0 02          	cmpl   $0x2,-0x10(%rbp)
    cef4:	7e aa                	jle    cea0 <main+0x22a9>
    cef6:	8b 05 40 c8 00 00    	mov    0xc840(%rip),%eax        # 1973c <g_981>
    cefc:	89 c1                	mov    %eax,%ecx
    cefe:	8b 45 fc             	mov    -0x4(%rbp),%eax
    cf01:	89 c2                	mov    %eax,%edx
    cf03:	48 8d 35 4f 2d 00 00 	lea    0x2d4f(%rip),%rsi        # fc59 <g_2089+0x1b09>
    cf0a:	48 89 cf             	mov    %rcx,%rdi
    cf0d:	e8 e1 77 ff ff       	callq  46f3 <transparent_crc>
    cf12:	48 8b 05 27 c8 00 00 	mov    0xc827(%rip),%rax        # 19740 <g_1114>
    cf19:	48 89 c1             	mov    %rax,%rcx
    cf1c:	8b 45 fc             	mov    -0x4(%rbp),%eax
    cf1f:	89 c2                	mov    %eax,%edx
    cf21:	48 8d 35 37 2d 00 00 	lea    0x2d37(%rip),%rsi        # fc5f <g_2089+0x1b0f>
    cf28:	48 89 cf             	mov    %rcx,%rdi
    cf2b:	e8 c3 77 ff ff       	callq  46f3 <transparent_crc>
    cf30:	0f b6 05 11 c8 00 00 	movzbl 0xc811(%rip),%eax        # 19748 <g_1116>
    cf37:	48 0f be c0          	movsbq %al,%rax
    cf3b:	8b 55 fc             	mov    -0x4(%rbp),%edx
    cf3e:	48 8d 35 21 2d 00 00 	lea    0x2d21(%rip),%rsi        # fc66 <g_2089+0x1b16>
    cf45:	48 89 c7             	mov    %rax,%rdi
    cf48:	e8 a6 77 ff ff       	callq  46f3 <transparent_crc>
    cf4d:	8b 05 f9 c7 00 00    	mov    0xc7f9(%rip),%eax        # 1974c <g_1208>
    cf53:	48 98                	cltq   
    cf55:	8b 55 fc             	mov    -0x4(%rbp),%edx
    cf58:	48 8d 35 0e 2d 00 00 	lea    0x2d0e(%rip),%rsi        # fc6d <g_2089+0x1b1d>
    cf5f:	48 89 c7             	mov    %rax,%rdi
    cf62:	e8 8c 77 ff ff       	callq  46f3 <transparent_crc>
    cf67:	8b 05 f3 c7 00 00    	mov    0xc7f3(%rip),%eax        # 19760 <g_1300>
    cf6d:	48 98                	cltq   
    cf6f:	8b 55 fc             	mov    -0x4(%rbp),%edx
    cf72:	48 8d 35 fb 2c 00 00 	lea    0x2cfb(%rip),%rsi        # fc74 <g_2089+0x1b24>
    cf79:	48 89 c7             	mov    %rax,%rdi
    cf7c:	e8 72 77 ff ff       	callq  46f3 <transparent_crc>
    cf81:	48 8b 05 e0 c7 00 00 	mov    0xc7e0(%rip),%rax        # 19768 <g_1300+0x8>
    cf88:	48 89 c1             	mov    %rax,%rcx
    cf8b:	8b 45 fc             	mov    -0x4(%rbp),%eax
    cf8e:	89 c2                	mov    %eax,%edx
    cf90:	48 8d 35 e7 2c 00 00 	lea    0x2ce7(%rip),%rsi        # fc7e <g_2089+0x1b2e>
    cf97:	48 89 cf             	mov    %rcx,%rdi
    cf9a:	e8 54 77 ff ff       	callq  46f3 <transparent_crc>
    cf9f:	8b 05 cb c7 00 00    	mov    0xc7cb(%rip),%eax        # 19770 <g_1300+0x10>
    cfa5:	48 98                	cltq   
    cfa7:	8b 55 fc             	mov    -0x4(%rbp),%edx
    cfaa:	48 8d 35 d7 2c 00 00 	lea    0x2cd7(%rip),%rsi        # fc88 <g_2089+0x1b38>
    cfb1:	48 89 c7             	mov    %rax,%rdi
    cfb4:	e8 3a 77 ff ff       	callq  46f3 <transparent_crc>
    cfb9:	0f b6 05 b4 c7 00 00 	movzbl 0xc7b4(%rip),%eax        # 19774 <g_1300+0x14>
    cfc0:	48 0f be c0          	movsbq %al,%rax
    cfc4:	8b 55 fc             	mov    -0x4(%rbp),%edx
    cfc7:	48 8d 35 c4 2c 00 00 	lea    0x2cc4(%rip),%rsi        # fc92 <g_2089+0x1b42>
    cfce:	48 89 c7             	mov    %rax,%rdi
    cfd1:	e8 1d 77 ff ff       	callq  46f3 <transparent_crc>
    cfd6:	8b 05 9c c7 00 00    	mov    0xc79c(%rip),%eax        # 19778 <g_1300+0x18>
    cfdc:	89 c1                	mov    %eax,%ecx
    cfde:	8b 45 fc             	mov    -0x4(%rbp),%eax
    cfe1:	89 c2                	mov    %eax,%edx
    cfe3:	48 8d 35 b2 2c 00 00 	lea    0x2cb2(%rip),%rsi        # fc9c <g_2089+0x1b4c>
    cfea:	48 89 cf             	mov    %rcx,%rdi
    cfed:	e8 01 77 ff ff       	callq  46f3 <transparent_crc>
    cff2:	48 8b 05 87 c7 00 00 	mov    0xc787(%rip),%rax        # 19780 <g_1300+0x20>
    cff9:	48 89 c1             	mov    %rax,%rcx
    cffc:	8b 45 fc             	mov    -0x4(%rbp),%eax
    cfff:	89 c2                	mov    %eax,%edx
    d001:	48 8d 35 9e 2c 00 00 	lea    0x2c9e(%rip),%rsi        # fca6 <g_2089+0x1b56>
    d008:	48 89 cf             	mov    %rcx,%rdi
    d00b:	e8 e3 76 ff ff       	callq  46f3 <transparent_crc>
    d010:	8b 05 72 c7 00 00    	mov    0xc772(%rip),%eax        # 19788 <g_1300+0x28>
    d016:	89 c1                	mov    %eax,%ecx
    d018:	8b 45 fc             	mov    -0x4(%rbp),%eax
    d01b:	89 c2                	mov    %eax,%edx
    d01d:	48 8d 35 8c 2c 00 00 	lea    0x2c8c(%rip),%rsi        # fcb0 <g_2089+0x1b60>
    d024:	48 89 cf             	mov    %rcx,%rdi
    d027:	e8 c7 76 ff ff       	callq  46f3 <transparent_crc>
    d02c:	8b 05 5a c7 00 00    	mov    0xc75a(%rip),%eax        # 1978c <g_1300+0x2c>
    d032:	48 98                	cltq   
    d034:	8b 55 fc             	mov    -0x4(%rbp),%edx
    d037:	48 8d 35 7c 2c 00 00 	lea    0x2c7c(%rip),%rsi        # fcba <g_2089+0x1b6a>
    d03e:	48 89 c7             	mov    %rax,%rdi
    d041:	e8 ad 76 ff ff       	callq  46f3 <transparent_crc>
    d046:	8b 05 54 c7 00 00    	mov    0xc754(%rip),%eax        # 197a0 <g_1321>
    d04c:	48 98                	cltq   
    d04e:	8b 55 fc             	mov    -0x4(%rbp),%edx
    d051:	48 8d 35 6c 2c 00 00 	lea    0x2c6c(%rip),%rsi        # fcc4 <g_2089+0x1b74>
    d058:	48 89 c7             	mov    %rax,%rdi
    d05b:	e8 93 76 ff ff       	callq  46f3 <transparent_crc>
    d060:	48 8b 05 41 c7 00 00 	mov    0xc741(%rip),%rax        # 197a8 <g_1321+0x8>
    d067:	48 89 c1             	mov    %rax,%rcx
    d06a:	8b 45 fc             	mov    -0x4(%rbp),%eax
    d06d:	89 c2                	mov    %eax,%edx
    d06f:	48 8d 35 58 2c 00 00 	lea    0x2c58(%rip),%rsi        # fcce <g_2089+0x1b7e>
    d076:	48 89 cf             	mov    %rcx,%rdi
    d079:	e8 75 76 ff ff       	callq  46f3 <transparent_crc>
    d07e:	8b 05 2c c7 00 00    	mov    0xc72c(%rip),%eax        # 197b0 <g_1321+0x10>
    d084:	48 98                	cltq   
    d086:	8b 55 fc             	mov    -0x4(%rbp),%edx
    d089:	48 8d 35 48 2c 00 00 	lea    0x2c48(%rip),%rsi        # fcd8 <g_2089+0x1b88>
    d090:	48 89 c7             	mov    %rax,%rdi
    d093:	e8 5b 76 ff ff       	callq  46f3 <transparent_crc>
    d098:	0f b6 05 15 c7 00 00 	movzbl 0xc715(%rip),%eax        # 197b4 <g_1321+0x14>
    d09f:	48 0f be c0          	movsbq %al,%rax
    d0a3:	8b 55 fc             	mov    -0x4(%rbp),%edx
    d0a6:	48 8d 35 35 2c 00 00 	lea    0x2c35(%rip),%rsi        # fce2 <g_2089+0x1b92>
    d0ad:	48 89 c7             	mov    %rax,%rdi
    d0b0:	e8 3e 76 ff ff       	callq  46f3 <transparent_crc>
    d0b5:	8b 05 fd c6 00 00    	mov    0xc6fd(%rip),%eax        # 197b8 <g_1321+0x18>
    d0bb:	89 c1                	mov    %eax,%ecx
    d0bd:	8b 45 fc             	mov    -0x4(%rbp),%eax
    d0c0:	89 c2                	mov    %eax,%edx
    d0c2:	48 8d 35 23 2c 00 00 	lea    0x2c23(%rip),%rsi        # fcec <g_2089+0x1b9c>
    d0c9:	48 89 cf             	mov    %rcx,%rdi
    d0cc:	e8 22 76 ff ff       	callq  46f3 <transparent_crc>
    d0d1:	48 8b 05 e8 c6 00 00 	mov    0xc6e8(%rip),%rax        # 197c0 <g_1321+0x20>
    d0d8:	48 89 c1             	mov    %rax,%rcx
    d0db:	8b 45 fc             	mov    -0x4(%rbp),%eax
    d0de:	89 c2                	mov    %eax,%edx
    d0e0:	48 8d 35 0f 2c 00 00 	lea    0x2c0f(%rip),%rsi        # fcf6 <g_2089+0x1ba6>
    d0e7:	48 89 cf             	mov    %rcx,%rdi
    d0ea:	e8 04 76 ff ff       	callq  46f3 <transparent_crc>
    d0ef:	8b 05 d3 c6 00 00    	mov    0xc6d3(%rip),%eax        # 197c8 <g_1321+0x28>
    d0f5:	89 c1                	mov    %eax,%ecx
    d0f7:	8b 45 fc             	mov    -0x4(%rbp),%eax
    d0fa:	89 c2                	mov    %eax,%edx
    d0fc:	48 8d 35 fd 2b 00 00 	lea    0x2bfd(%rip),%rsi        # fd00 <g_2089+0x1bb0>
    d103:	48 89 cf             	mov    %rcx,%rdi
    d106:	e8 e8 75 ff ff       	callq  46f3 <transparent_crc>
    d10b:	8b 05 bb c6 00 00    	mov    0xc6bb(%rip),%eax        # 197cc <g_1321+0x2c>
    d111:	48 98                	cltq   
    d113:	8b 55 fc             	mov    -0x4(%rbp),%edx
    d116:	48 8d 35 ed 2b 00 00 	lea    0x2bed(%rip),%rsi        # fd0a <g_2089+0x1bba>
    d11d:	48 89 c7             	mov    %rax,%rdi
    d120:	e8 ce 75 ff ff       	callq  46f3 <transparent_crc>
    d125:	8b 05 b5 c6 00 00    	mov    0xc6b5(%rip),%eax        # 197e0 <g_1349>
    d12b:	48 98                	cltq   
    d12d:	8b 55 fc             	mov    -0x4(%rbp),%edx
    d130:	48 8d 35 dd 2b 00 00 	lea    0x2bdd(%rip),%rsi        # fd14 <g_2089+0x1bc4>
    d137:	48 89 c7             	mov    %rax,%rdi
    d13a:	e8 b4 75 ff ff       	callq  46f3 <transparent_crc>
    d13f:	48 8b 05 a2 c6 00 00 	mov    0xc6a2(%rip),%rax        # 197e8 <g_1349+0x8>
    d146:	48 89 c1             	mov    %rax,%rcx
    d149:	8b 45 fc             	mov    -0x4(%rbp),%eax
    d14c:	89 c2                	mov    %eax,%edx
    d14e:	48 8d 35 c9 2b 00 00 	lea    0x2bc9(%rip),%rsi        # fd1e <g_2089+0x1bce>
    d155:	48 89 cf             	mov    %rcx,%rdi
    d158:	e8 96 75 ff ff       	callq  46f3 <transparent_crc>
    d15d:	8b 05 8d c6 00 00    	mov    0xc68d(%rip),%eax        # 197f0 <g_1349+0x10>
    d163:	48 98                	cltq   
    d165:	8b 55 fc             	mov    -0x4(%rbp),%edx
    d168:	48 8d 35 b9 2b 00 00 	lea    0x2bb9(%rip),%rsi        # fd28 <g_2089+0x1bd8>
    d16f:	48 89 c7             	mov    %rax,%rdi
    d172:	e8 7c 75 ff ff       	callq  46f3 <transparent_crc>
    d177:	0f b6 05 76 c6 00 00 	movzbl 0xc676(%rip),%eax        # 197f4 <g_1349+0x14>
    d17e:	48 0f be c0          	movsbq %al,%rax
    d182:	8b 55 fc             	mov    -0x4(%rbp),%edx
    d185:	48 8d 35 a6 2b 00 00 	lea    0x2ba6(%rip),%rsi        # fd32 <g_2089+0x1be2>
    d18c:	48 89 c7             	mov    %rax,%rdi
    d18f:	e8 5f 75 ff ff       	callq  46f3 <transparent_crc>
    d194:	8b 05 5e c6 00 00    	mov    0xc65e(%rip),%eax        # 197f8 <g_1349+0x18>
    d19a:	89 c1                	mov    %eax,%ecx
    d19c:	8b 45 fc             	mov    -0x4(%rbp),%eax
    d19f:	89 c2                	mov    %eax,%edx
    d1a1:	48 8d 35 94 2b 00 00 	lea    0x2b94(%rip),%rsi        # fd3c <g_2089+0x1bec>
    d1a8:	48 89 cf             	mov    %rcx,%rdi
    d1ab:	e8 43 75 ff ff       	callq  46f3 <transparent_crc>
    d1b0:	48 8b 05 49 c6 00 00 	mov    0xc649(%rip),%rax        # 19800 <g_1349+0x20>
    d1b7:	48 89 c1             	mov    %rax,%rcx
    d1ba:	8b 45 fc             	mov    -0x4(%rbp),%eax
    d1bd:	89 c2                	mov    %eax,%edx
    d1bf:	48 8d 35 80 2b 00 00 	lea    0x2b80(%rip),%rsi        # fd46 <g_2089+0x1bf6>
    d1c6:	48 89 cf             	mov    %rcx,%rdi
    d1c9:	e8 25 75 ff ff       	callq  46f3 <transparent_crc>
    d1ce:	8b 05 34 c6 00 00    	mov    0xc634(%rip),%eax        # 19808 <g_1349+0x28>
    d1d4:	89 c1                	mov    %eax,%ecx
    d1d6:	8b 45 fc             	mov    -0x4(%rbp),%eax
    d1d9:	89 c2                	mov    %eax,%edx
    d1db:	48 8d 35 6e 2b 00 00 	lea    0x2b6e(%rip),%rsi        # fd50 <g_2089+0x1c00>
    d1e2:	48 89 cf             	mov    %rcx,%rdi
    d1e5:	e8 09 75 ff ff       	callq  46f3 <transparent_crc>
    d1ea:	8b 05 1c c6 00 00    	mov    0xc61c(%rip),%eax        # 1980c <g_1349+0x2c>
    d1f0:	48 98                	cltq   
    d1f2:	8b 55 fc             	mov    -0x4(%rbp),%edx
    d1f5:	48 8d 35 5e 2b 00 00 	lea    0x2b5e(%rip),%rsi        # fd5a <g_2089+0x1c0a>
    d1fc:	48 89 c7             	mov    %rax,%rdi
    d1ff:	e8 ef 74 ff ff       	callq  46f3 <transparent_crc>
    d204:	8b 05 16 c6 00 00    	mov    0xc616(%rip),%eax        # 19820 <g_1398>
    d20a:	48 98                	cltq   
    d20c:	8b 55 fc             	mov    -0x4(%rbp),%edx
    d20f:	48 8d 35 4e 2b 00 00 	lea    0x2b4e(%rip),%rsi        # fd64 <g_2089+0x1c14>
    d216:	48 89 c7             	mov    %rax,%rdi
    d219:	e8 d5 74 ff ff       	callq  46f3 <transparent_crc>
    d21e:	48 8b 05 03 c6 00 00 	mov    0xc603(%rip),%rax        # 19828 <g_1398+0x8>
    d225:	48 89 c1             	mov    %rax,%rcx
    d228:	8b 45 fc             	mov    -0x4(%rbp),%eax
    d22b:	89 c2                	mov    %eax,%edx
    d22d:	48 8d 35 3a 2b 00 00 	lea    0x2b3a(%rip),%rsi        # fd6e <g_2089+0x1c1e>
    d234:	48 89 cf             	mov    %rcx,%rdi
    d237:	e8 b7 74 ff ff       	callq  46f3 <transparent_crc>
    d23c:	8b 05 ee c5 00 00    	mov    0xc5ee(%rip),%eax        # 19830 <g_1398+0x10>
    d242:	48 98                	cltq   
    d244:	8b 55 fc             	mov    -0x4(%rbp),%edx
    d247:	48 8d 35 2a 2b 00 00 	lea    0x2b2a(%rip),%rsi        # fd78 <g_2089+0x1c28>
    d24e:	48 89 c7             	mov    %rax,%rdi
    d251:	e8 9d 74 ff ff       	callq  46f3 <transparent_crc>
    d256:	0f b6 05 d7 c5 00 00 	movzbl 0xc5d7(%rip),%eax        # 19834 <g_1398+0x14>
    d25d:	48 0f be c0          	movsbq %al,%rax
    d261:	8b 55 fc             	mov    -0x4(%rbp),%edx
    d264:	48 8d 35 17 2b 00 00 	lea    0x2b17(%rip),%rsi        # fd82 <g_2089+0x1c32>
    d26b:	48 89 c7             	mov    %rax,%rdi
    d26e:	e8 80 74 ff ff       	callq  46f3 <transparent_crc>
    d273:	8b 05 bf c5 00 00    	mov    0xc5bf(%rip),%eax        # 19838 <g_1398+0x18>
    d279:	89 c1                	mov    %eax,%ecx
    d27b:	8b 45 fc             	mov    -0x4(%rbp),%eax
    d27e:	89 c2                	mov    %eax,%edx
    d280:	48 8d 35 05 2b 00 00 	lea    0x2b05(%rip),%rsi        # fd8c <g_2089+0x1c3c>
    d287:	48 89 cf             	mov    %rcx,%rdi
    d28a:	e8 64 74 ff ff       	callq  46f3 <transparent_crc>
    d28f:	48 8b 05 aa c5 00 00 	mov    0xc5aa(%rip),%rax        # 19840 <g_1398+0x20>
    d296:	48 89 c1             	mov    %rax,%rcx
    d299:	8b 45 fc             	mov    -0x4(%rbp),%eax
    d29c:	89 c2                	mov    %eax,%edx
    d29e:	48 8d 35 f1 2a 00 00 	lea    0x2af1(%rip),%rsi        # fd96 <g_2089+0x1c46>
    d2a5:	48 89 cf             	mov    %rcx,%rdi
    d2a8:	e8 46 74 ff ff       	callq  46f3 <transparent_crc>
    d2ad:	8b 05 95 c5 00 00    	mov    0xc595(%rip),%eax        # 19848 <g_1398+0x28>
    d2b3:	89 c1                	mov    %eax,%ecx
    d2b5:	8b 45 fc             	mov    -0x4(%rbp),%eax
    d2b8:	89 c2                	mov    %eax,%edx
    d2ba:	48 8d 35 df 2a 00 00 	lea    0x2adf(%rip),%rsi        # fda0 <g_2089+0x1c50>
    d2c1:	48 89 cf             	mov    %rcx,%rdi
    d2c4:	e8 2a 74 ff ff       	callq  46f3 <transparent_crc>
    d2c9:	8b 05 7d c5 00 00    	mov    0xc57d(%rip),%eax        # 1984c <g_1398+0x2c>
    d2cf:	48 98                	cltq   
    d2d1:	8b 55 fc             	mov    -0x4(%rbp),%edx
    d2d4:	48 8d 35 cf 2a 00 00 	lea    0x2acf(%rip),%rsi        # fdaa <g_2089+0x1c5a>
    d2db:	48 89 c7             	mov    %rax,%rdi
    d2de:	e8 10 74 ff ff       	callq  46f3 <transparent_crc>
    d2e3:	8b 05 ef d9 00 00    	mov    0xd9ef(%rip),%eax        # 1acd8 <g_1425>
    d2e9:	48 98                	cltq   
    d2eb:	8b 55 fc             	mov    -0x4(%rbp),%edx
    d2ee:	48 8d 35 bf 2a 00 00 	lea    0x2abf(%rip),%rsi        # fdb4 <g_2089+0x1c64>
    d2f5:	48 89 c7             	mov    %rax,%rdi
    d2f8:	e8 f6 73 ff ff       	callq  46f3 <transparent_crc>
    d2fd:	0f b7 05 4c c5 00 00 	movzwl 0xc54c(%rip),%eax        # 19850 <g_1485>
    d304:	0f b7 c0             	movzwl %ax,%eax
    d307:	8b 55 fc             	mov    -0x4(%rbp),%edx
    d30a:	48 8d 35 aa 2a 00 00 	lea    0x2aaa(%rip),%rsi        # fdbb <g_2089+0x1c6b>
    d311:	48 89 c7             	mov    %rax,%rdi
    d314:	e8 da 73 ff ff       	callq  46f3 <transparent_crc>
    d319:	0f b7 05 32 c5 00 00 	movzwl 0xc532(%rip),%eax        # 19852 <g_1510>
    d320:	48 0f bf c0          	movswq %ax,%rax
    d324:	8b 55 fc             	mov    -0x4(%rbp),%edx
    d327:	48 8d 35 94 2a 00 00 	lea    0x2a94(%rip),%rsi        # fdc2 <g_2089+0x1c72>
    d32e:	48 89 c7             	mov    %rax,%rdi
    d331:	e8 bd 73 ff ff       	callq  46f3 <transparent_crc>
    d336:	c7 45 f0 00 00 00 00 	movl   $0x0,-0x10(%rbp)
    d33d:	e9 cf 01 00 00       	jmpq   d511 <main+0x291a>
    d342:	8b 45 f0             	mov    -0x10(%rbp),%eax
    d345:	48 63 d0             	movslq %eax,%rdx
    d348:	48 89 d0             	mov    %rdx,%rax
    d34b:	48 01 c0             	add    %rax,%rax
    d34e:	48 01 d0             	add    %rdx,%rax
    d351:	48 c1 e0 04          	shl    $0x4,%rax
    d355:	48 89 c2             	mov    %rax,%rdx
    d358:	48 8d 05 01 c5 00 00 	lea    0xc501(%rip),%rax        # 19860 <g_1607>
    d35f:	8b 04 02             	mov    (%rdx,%rax,1),%eax
    d362:	48 98                	cltq   
    d364:	8b 55 fc             	mov    -0x4(%rbp),%edx
    d367:	48 8d 35 5b 2a 00 00 	lea    0x2a5b(%rip),%rsi        # fdc9 <g_2089+0x1c79>
    d36e:	48 89 c7             	mov    %rax,%rdi
    d371:	e8 7d 73 ff ff       	callq  46f3 <transparent_crc>
    d376:	8b 45 f0             	mov    -0x10(%rbp),%eax
    d379:	48 63 d0             	movslq %eax,%rdx
    d37c:	48 89 d0             	mov    %rdx,%rax
    d37f:	48 01 c0             	add    %rax,%rax
    d382:	48 01 d0             	add    %rdx,%rax
    d385:	48 c1 e0 04          	shl    $0x4,%rax
    d389:	48 89 c2             	mov    %rax,%rdx
    d38c:	48 8d 05 d5 c4 00 00 	lea    0xc4d5(%rip),%rax        # 19868 <g_1607+0x8>
    d393:	48 8b 04 02          	mov    (%rdx,%rax,1),%rax
    d397:	48 89 c1             	mov    %rax,%rcx
    d39a:	8b 45 fc             	mov    -0x4(%rbp),%eax
    d39d:	89 c2                	mov    %eax,%edx
    d39f:	48 8d 35 30 2a 00 00 	lea    0x2a30(%rip),%rsi        # fdd6 <g_2089+0x1c86>
    d3a6:	48 89 cf             	mov    %rcx,%rdi
    d3a9:	e8 45 73 ff ff       	callq  46f3 <transparent_crc>
    d3ae:	8b 45 f0             	mov    -0x10(%rbp),%eax
    d3b1:	48 63 d0             	movslq %eax,%rdx
    d3b4:	48 89 d0             	mov    %rdx,%rax
    d3b7:	48 01 c0             	add    %rax,%rax
    d3ba:	48 01 d0             	add    %rdx,%rax
    d3bd:	48 c1 e0 04          	shl    $0x4,%rax
    d3c1:	48 89 c2             	mov    %rax,%rdx
    d3c4:	48 8d 05 a5 c4 00 00 	lea    0xc4a5(%rip),%rax        # 19870 <g_1607+0x10>
    d3cb:	8b 04 02             	mov    (%rdx,%rax,1),%eax
    d3ce:	48 98                	cltq   
    d3d0:	8b 55 fc             	mov    -0x4(%rbp),%edx
    d3d3:	48 8d 35 09 2a 00 00 	lea    0x2a09(%rip),%rsi        # fde3 <g_2089+0x1c93>
    d3da:	48 89 c7             	mov    %rax,%rdi
    d3dd:	e8 11 73 ff ff       	callq  46f3 <transparent_crc>
    d3e2:	8b 45 f0             	mov    -0x10(%rbp),%eax
    d3e5:	48 63 d0             	movslq %eax,%rdx
    d3e8:	48 89 d0             	mov    %rdx,%rax
    d3eb:	48 01 c0             	add    %rax,%rax
    d3ee:	48 01 d0             	add    %rdx,%rax
    d3f1:	48 c1 e0 04          	shl    $0x4,%rax
    d3f5:	48 89 c2             	mov    %rax,%rdx
    d3f8:	48 8d 05 75 c4 00 00 	lea    0xc475(%rip),%rax        # 19874 <g_1607+0x14>
    d3ff:	0f b6 04 02          	movzbl (%rdx,%rax,1),%eax
    d403:	48 0f be c0          	movsbq %al,%rax
    d407:	8b 55 fc             	mov    -0x4(%rbp),%edx
    d40a:	48 8d 35 df 29 00 00 	lea    0x29df(%rip),%rsi        # fdf0 <g_2089+0x1ca0>
    d411:	48 89 c7             	mov    %rax,%rdi
    d414:	e8 da 72 ff ff       	callq  46f3 <transparent_crc>
    d419:	8b 45 f0             	mov    -0x10(%rbp),%eax
    d41c:	48 63 d0             	movslq %eax,%rdx
    d41f:	48 89 d0             	mov    %rdx,%rax
    d422:	48 01 c0             	add    %rax,%rax
    d425:	48 01 d0             	add    %rdx,%rax
    d428:	48 c1 e0 04          	shl    $0x4,%rax
    d42c:	48 89 c2             	mov    %rax,%rdx
    d42f:	48 8d 05 42 c4 00 00 	lea    0xc442(%rip),%rax        # 19878 <g_1607+0x18>
    d436:	8b 04 02             	mov    (%rdx,%rax,1),%eax
    d439:	89 c1                	mov    %eax,%ecx
    d43b:	8b 45 fc             	mov    -0x4(%rbp),%eax
    d43e:	89 c2                	mov    %eax,%edx
    d440:	48 8d 35 b6 29 00 00 	lea    0x29b6(%rip),%rsi        # fdfd <g_2089+0x1cad>
    d447:	48 89 cf             	mov    %rcx,%rdi
    d44a:	e8 a4 72 ff ff       	callq  46f3 <transparent_crc>
    d44f:	8b 45 f0             	mov    -0x10(%rbp),%eax
    d452:	48 63 d0             	movslq %eax,%rdx
    d455:	48 89 d0             	mov    %rdx,%rax
    d458:	48 01 c0             	add    %rax,%rax
    d45b:	48 01 d0             	add    %rdx,%rax
    d45e:	48 c1 e0 04          	shl    $0x4,%rax
    d462:	48 89 c2             	mov    %rax,%rdx
    d465:	48 8d 05 14 c4 00 00 	lea    0xc414(%rip),%rax        # 19880 <g_1607+0x20>
    d46c:	48 8b 04 02          	mov    (%rdx,%rax,1),%rax
    d470:	48 89 c1             	mov    %rax,%rcx
    d473:	8b 45 fc             	mov    -0x4(%rbp),%eax
    d476:	89 c2                	mov    %eax,%edx
    d478:	48 8d 35 8b 29 00 00 	lea    0x298b(%rip),%rsi        # fe0a <g_2089+0x1cba>
    d47f:	48 89 cf             	mov    %rcx,%rdi
    d482:	e8 6c 72 ff ff       	callq  46f3 <transparent_crc>
    d487:	8b 45 f0             	mov    -0x10(%rbp),%eax
    d48a:	48 63 d0             	movslq %eax,%rdx
    d48d:	48 89 d0             	mov    %rdx,%rax
    d490:	48 01 c0             	add    %rax,%rax
    d493:	48 01 d0             	add    %rdx,%rax
    d496:	48 c1 e0 04          	shl    $0x4,%rax
    d49a:	48 89 c2             	mov    %rax,%rdx
    d49d:	48 8d 05 e4 c3 00 00 	lea    0xc3e4(%rip),%rax        # 19888 <g_1607+0x28>
    d4a4:	8b 04 02             	mov    (%rdx,%rax,1),%eax
    d4a7:	89 c1                	mov    %eax,%ecx
    d4a9:	8b 45 fc             	mov    -0x4(%rbp),%eax
    d4ac:	89 c2                	mov    %eax,%edx
    d4ae:	48 8d 35 62 29 00 00 	lea    0x2962(%rip),%rsi        # fe17 <g_2089+0x1cc7>
    d4b5:	48 89 cf             	mov    %rcx,%rdi
    d4b8:	e8 36 72 ff ff       	callq  46f3 <transparent_crc>
    d4bd:	8b 45 f0             	mov    -0x10(%rbp),%eax
    d4c0:	48 63 d0             	movslq %eax,%rdx
    d4c3:	48 89 d0             	mov    %rdx,%rax
    d4c6:	48 01 c0             	add    %rax,%rax
    d4c9:	48 01 d0             	add    %rdx,%rax
    d4cc:	48 c1 e0 04          	shl    $0x4,%rax
    d4d0:	48 89 c2             	mov    %rax,%rdx
    d4d3:	48 8d 05 b2 c3 00 00 	lea    0xc3b2(%rip),%rax        # 1988c <g_1607+0x2c>
    d4da:	8b 04 02             	mov    (%rdx,%rax,1),%eax
    d4dd:	48 98                	cltq   
    d4df:	8b 55 fc             	mov    -0x4(%rbp),%edx
    d4e2:	48 8d 35 3b 29 00 00 	lea    0x293b(%rip),%rsi        # fe24 <g_2089+0x1cd4>
    d4e9:	48 89 c7             	mov    %rax,%rdi
    d4ec:	e8 02 72 ff ff       	callq  46f3 <transparent_crc>
    d4f1:	83 7d fc 00          	cmpl   $0x0,-0x4(%rbp)
    d4f5:	74 16                	je     d50d <main+0x2916>
    d4f7:	8b 45 f0             	mov    -0x10(%rbp),%eax
    d4fa:	89 c6                	mov    %eax,%esi
    d4fc:	48 8d 3d f8 1f 00 00 	lea    0x1ff8(%rip),%rdi        # f4fb <g_2089+0x13ab>
    d503:	b8 00 00 00 00       	mov    $0x0,%eax
    d508:	e8 73 5b ff ff       	callq  3080 <printf@plt>
    d50d:	83 45 f0 01          	addl   $0x1,-0x10(%rbp)
    d511:	83 7d f0 04          	cmpl   $0x4,-0x10(%rbp)
    d515:	0f 8e 27 fe ff ff    	jle    d342 <main+0x274b>
    d51b:	8b 05 3f c4 00 00    	mov    0xc43f(%rip),%eax        # 19960 <g_1640>
    d521:	48 98                	cltq   
    d523:	8b 55 fc             	mov    -0x4(%rbp),%edx
    d526:	48 8d 35 04 29 00 00 	lea    0x2904(%rip),%rsi        # fe31 <g_2089+0x1ce1>
    d52d:	48 89 c7             	mov    %rax,%rdi
    d530:	e8 be 71 ff ff       	callq  46f3 <transparent_crc>
    d535:	48 8b 05 2c c4 00 00 	mov    0xc42c(%rip),%rax        # 19968 <g_1640+0x8>
    d53c:	48 89 c1             	mov    %rax,%rcx
    d53f:	8b 45 fc             	mov    -0x4(%rbp),%eax
    d542:	89 c2                	mov    %eax,%edx
    d544:	48 8d 35 f0 28 00 00 	lea    0x28f0(%rip),%rsi        # fe3b <g_2089+0x1ceb>
    d54b:	48 89 cf             	mov    %rcx,%rdi
    d54e:	e8 a0 71 ff ff       	callq  46f3 <transparent_crc>
    d553:	8b 05 17 c4 00 00    	mov    0xc417(%rip),%eax        # 19970 <g_1640+0x10>
    d559:	48 98                	cltq   
    d55b:	8b 55 fc             	mov    -0x4(%rbp),%edx
    d55e:	48 8d 35 e0 28 00 00 	lea    0x28e0(%rip),%rsi        # fe45 <g_2089+0x1cf5>
    d565:	48 89 c7             	mov    %rax,%rdi
    d568:	e8 86 71 ff ff       	callq  46f3 <transparent_crc>
    d56d:	0f b6 05 00 c4 00 00 	movzbl 0xc400(%rip),%eax        # 19974 <g_1640+0x14>
    d574:	48 0f be c0          	movsbq %al,%rax
    d578:	8b 55 fc             	mov    -0x4(%rbp),%edx
    d57b:	48 8d 35 cd 28 00 00 	lea    0x28cd(%rip),%rsi        # fe4f <g_2089+0x1cff>
    d582:	48 89 c7             	mov    %rax,%rdi
    d585:	e8 69 71 ff ff       	callq  46f3 <transparent_crc>
    d58a:	8b 05 e8 c3 00 00    	mov    0xc3e8(%rip),%eax        # 19978 <g_1640+0x18>
    d590:	89 c1                	mov    %eax,%ecx
    d592:	8b 45 fc             	mov    -0x4(%rbp),%eax
    d595:	89 c2                	mov    %eax,%edx
    d597:	48 8d 35 bb 28 00 00 	lea    0x28bb(%rip),%rsi        # fe59 <g_2089+0x1d09>
    d59e:	48 89 cf             	mov    %rcx,%rdi
    d5a1:	e8 4d 71 ff ff       	callq  46f3 <transparent_crc>
    d5a6:	48 8b 05 d3 c3 00 00 	mov    0xc3d3(%rip),%rax        # 19980 <g_1640+0x20>
    d5ad:	48 89 c1             	mov    %rax,%rcx
    d5b0:	8b 45 fc             	mov    -0x4(%rbp),%eax
    d5b3:	89 c2                	mov    %eax,%edx
    d5b5:	48 8d 35 a7 28 00 00 	lea    0x28a7(%rip),%rsi        # fe63 <g_2089+0x1d13>
    d5bc:	48 89 cf             	mov    %rcx,%rdi
    d5bf:	e8 2f 71 ff ff       	callq  46f3 <transparent_crc>
    d5c4:	8b 05 be c3 00 00    	mov    0xc3be(%rip),%eax        # 19988 <g_1640+0x28>
    d5ca:	89 c1                	mov    %eax,%ecx
    d5cc:	8b 45 fc             	mov    -0x4(%rbp),%eax
    d5cf:	89 c2                	mov    %eax,%edx
    d5d1:	48 8d 35 95 28 00 00 	lea    0x2895(%rip),%rsi        # fe6d <g_2089+0x1d1d>
    d5d8:	48 89 cf             	mov    %rcx,%rdi
    d5db:	e8 13 71 ff ff       	callq  46f3 <transparent_crc>
    d5e0:	8b 05 a6 c3 00 00    	mov    0xc3a6(%rip),%eax        # 1998c <g_1640+0x2c>
    d5e6:	48 98                	cltq   
    d5e8:	8b 55 fc             	mov    -0x4(%rbp),%edx
    d5eb:	48 8d 35 85 28 00 00 	lea    0x2885(%rip),%rsi        # fe77 <g_2089+0x1d27>
    d5f2:	48 89 c7             	mov    %rax,%rdi
    d5f5:	e8 f9 70 ff ff       	callq  46f3 <transparent_crc>
    d5fa:	48 8b 05 8f c3 00 00 	mov    0xc38f(%rip),%rax        # 19990 <g_1835>
    d601:	8b 55 fc             	mov    -0x4(%rbp),%edx
    d604:	48 8d 35 76 28 00 00 	lea    0x2876(%rip),%rsi        # fe81 <g_2089+0x1d31>
    d60b:	48 89 c7             	mov    %rax,%rdi
    d60e:	e8 e0 70 ff ff       	callq  46f3 <transparent_crc>
    d613:	8b 05 7f c3 00 00    	mov    0xc37f(%rip),%eax        # 19998 <g_1842>
    d619:	89 c1                	mov    %eax,%ecx
    d61b:	8b 45 fc             	mov    -0x4(%rbp),%eax
    d61e:	89 c2                	mov    %eax,%edx
    d620:	48 8d 35 61 28 00 00 	lea    0x2861(%rip),%rsi        # fe88 <g_2089+0x1d38>
    d627:	48 89 cf             	mov    %rcx,%rdi
    d62a:	e8 c4 70 ff ff       	callq  46f3 <transparent_crc>
    d62f:	0f b6 05 66 c3 00 00 	movzbl 0xc366(%rip),%eax        # 1999c <g_1873>
    d636:	48 0f be c0          	movsbq %al,%rax
    d63a:	8b 55 fc             	mov    -0x4(%rbp),%edx
    d63d:	48 8d 35 4b 28 00 00 	lea    0x284b(%rip),%rsi        # fe8f <g_2089+0x1d3f>
    d644:	48 89 c7             	mov    %rax,%rdi
    d647:	e8 a7 70 ff ff       	callq  46f3 <transparent_crc>
    d64c:	c7 45 f0 00 00 00 00 	movl   $0x0,-0x10(%rbp)
    d653:	e9 cf 01 00 00       	jmpq   d827 <main+0x2c30>
    d658:	8b 45 f0             	mov    -0x10(%rbp),%eax
    d65b:	48 63 d0             	movslq %eax,%rdx
    d65e:	48 89 d0             	mov    %rdx,%rax
    d661:	48 01 c0             	add    %rax,%rax
    d664:	48 01 d0             	add    %rdx,%rax
    d667:	48 c1 e0 04          	shl    $0x4,%rax
    d66b:	48 89 c2             	mov    %rax,%rdx
    d66e:	48 8d 05 2b c3 00 00 	lea    0xc32b(%rip),%rax        # 199a0 <g_1902>
    d675:	8b 04 02             	mov    (%rdx,%rax,1),%eax
    d678:	48 98                	cltq   
    d67a:	8b 55 fc             	mov    -0x4(%rbp),%edx
    d67d:	48 8d 35 12 28 00 00 	lea    0x2812(%rip),%rsi        # fe96 <g_2089+0x1d46>
    d684:	48 89 c7             	mov    %rax,%rdi
    d687:	e8 67 70 ff ff       	callq  46f3 <transparent_crc>
    d68c:	8b 45 f0             	mov    -0x10(%rbp),%eax
    d68f:	48 63 d0             	movslq %eax,%rdx
    d692:	48 89 d0             	mov    %rdx,%rax
    d695:	48 01 c0             	add    %rax,%rax
    d698:	48 01 d0             	add    %rdx,%rax
    d69b:	48 c1 e0 04          	shl    $0x4,%rax
    d69f:	48 89 c2             	mov    %rax,%rdx
    d6a2:	48 8d 05 ff c2 00 00 	lea    0xc2ff(%rip),%rax        # 199a8 <g_1902+0x8>
    d6a9:	48 8b 04 02          	mov    (%rdx,%rax,1),%rax
    d6ad:	48 89 c1             	mov    %rax,%rcx
    d6b0:	8b 45 fc             	mov    -0x4(%rbp),%eax
    d6b3:	89 c2                	mov    %eax,%edx
    d6b5:	48 8d 35 e7 27 00 00 	lea    0x27e7(%rip),%rsi        # fea3 <g_2089+0x1d53>
    d6bc:	48 89 cf             	mov    %rcx,%rdi
    d6bf:	e8 2f 70 ff ff       	callq  46f3 <transparent_crc>
    d6c4:	8b 45 f0             	mov    -0x10(%rbp),%eax
    d6c7:	48 63 d0             	movslq %eax,%rdx
    d6ca:	48 89 d0             	mov    %rdx,%rax
    d6cd:	48 01 c0             	add    %rax,%rax
    d6d0:	48 01 d0             	add    %rdx,%rax
    d6d3:	48 c1 e0 04          	shl    $0x4,%rax
    d6d7:	48 89 c2             	mov    %rax,%rdx
    d6da:	48 8d 05 cf c2 00 00 	lea    0xc2cf(%rip),%rax        # 199b0 <g_1902+0x10>
    d6e1:	8b 04 02             	mov    (%rdx,%rax,1),%eax
    d6e4:	48 98                	cltq   
    d6e6:	8b 55 fc             	mov    -0x4(%rbp),%edx
    d6e9:	48 8d 35 c0 27 00 00 	lea    0x27c0(%rip),%rsi        # feb0 <g_2089+0x1d60>
    d6f0:	48 89 c7             	mov    %rax,%rdi
    d6f3:	e8 fb 6f ff ff       	callq  46f3 <transparent_crc>
    d6f8:	8b 45 f0             	mov    -0x10(%rbp),%eax
    d6fb:	48 63 d0             	movslq %eax,%rdx
    d6fe:	48 89 d0             	mov    %rdx,%rax
    d701:	48 01 c0             	add    %rax,%rax
    d704:	48 01 d0             	add    %rdx,%rax
    d707:	48 c1 e0 04          	shl    $0x4,%rax
    d70b:	48 89 c2             	mov    %rax,%rdx
    d70e:	48 8d 05 9f c2 00 00 	lea    0xc29f(%rip),%rax        # 199b4 <g_1902+0x14>
    d715:	0f b6 04 02          	movzbl (%rdx,%rax,1),%eax
    d719:	48 0f be c0          	movsbq %al,%rax
    d71d:	8b 55 fc             	mov    -0x4(%rbp),%edx
    d720:	48 8d 35 96 27 00 00 	lea    0x2796(%rip),%rsi        # febd <g_2089+0x1d6d>
    d727:	48 89 c7             	mov    %rax,%rdi
    d72a:	e8 c4 6f ff ff       	callq  46f3 <transparent_crc>
    d72f:	8b 45 f0             	mov    -0x10(%rbp),%eax
    d732:	48 63 d0             	movslq %eax,%rdx
    d735:	48 89 d0             	mov    %rdx,%rax
    d738:	48 01 c0             	add    %rax,%rax
    d73b:	48 01 d0             	add    %rdx,%rax
    d73e:	48 c1 e0 04          	shl    $0x4,%rax
    d742:	48 89 c2             	mov    %rax,%rdx
    d745:	48 8d 05 6c c2 00 00 	lea    0xc26c(%rip),%rax        # 199b8 <g_1902+0x18>
    d74c:	8b 04 02             	mov    (%rdx,%rax,1),%eax
    d74f:	89 c1                	mov    %eax,%ecx
    d751:	8b 45 fc             	mov    -0x4(%rbp),%eax
    d754:	89 c2                	mov    %eax,%edx
    d756:	48 8d 35 6d 27 00 00 	lea    0x276d(%rip),%rsi        # feca <g_2089+0x1d7a>
    d75d:	48 89 cf             	mov    %rcx,%rdi
    d760:	e8 8e 6f ff ff       	callq  46f3 <transparent_crc>
    d765:	8b 45 f0             	mov    -0x10(%rbp),%eax
    d768:	48 63 d0             	movslq %eax,%rdx
    d76b:	48 89 d0             	mov    %rdx,%rax
    d76e:	48 01 c0             	add    %rax,%rax
    d771:	48 01 d0             	add    %rdx,%rax
    d774:	48 c1 e0 04          	shl    $0x4,%rax
    d778:	48 89 c2             	mov    %rax,%rdx
    d77b:	48 8d 05 3e c2 00 00 	lea    0xc23e(%rip),%rax        # 199c0 <g_1902+0x20>
    d782:	48 8b 04 02          	mov    (%rdx,%rax,1),%rax
    d786:	48 89 c1             	mov    %rax,%rcx
    d789:	8b 45 fc             	mov    -0x4(%rbp),%eax
    d78c:	89 c2                	mov    %eax,%edx
    d78e:	48 8d 35 42 27 00 00 	lea    0x2742(%rip),%rsi        # fed7 <g_2089+0x1d87>
    d795:	48 89 cf             	mov    %rcx,%rdi
    d798:	e8 56 6f ff ff       	callq  46f3 <transparent_crc>
    d79d:	8b 45 f0             	mov    -0x10(%rbp),%eax
    d7a0:	48 63 d0             	movslq %eax,%rdx
    d7a3:	48 89 d0             	mov    %rdx,%rax
    d7a6:	48 01 c0             	add    %rax,%rax
    d7a9:	48 01 d0             	add    %rdx,%rax
    d7ac:	48 c1 e0 04          	shl    $0x4,%rax
    d7b0:	48 89 c2             	mov    %rax,%rdx
    d7b3:	48 8d 05 0e c2 00 00 	lea    0xc20e(%rip),%rax        # 199c8 <g_1902+0x28>
    d7ba:	8b 04 02             	mov    (%rdx,%rax,1),%eax
    d7bd:	89 c1                	mov    %eax,%ecx
    d7bf:	8b 45 fc             	mov    -0x4(%rbp),%eax
    d7c2:	89 c2                	mov    %eax,%edx
    d7c4:	48 8d 35 19 27 00 00 	lea    0x2719(%rip),%rsi        # fee4 <g_2089+0x1d94>
    d7cb:	48 89 cf             	mov    %rcx,%rdi
    d7ce:	e8 20 6f ff ff       	callq  46f3 <transparent_crc>
    d7d3:	8b 45 f0             	mov    -0x10(%rbp),%eax
    d7d6:	48 63 d0             	movslq %eax,%rdx
    d7d9:	48 89 d0             	mov    %rdx,%rax
    d7dc:	48 01 c0             	add    %rax,%rax
    d7df:	48 01 d0             	add    %rdx,%rax
    d7e2:	48 c1 e0 04          	shl    $0x4,%rax
    d7e6:	48 89 c2             	mov    %rax,%rdx
    d7e9:	48 8d 05 dc c1 00 00 	lea    0xc1dc(%rip),%rax        # 199cc <g_1902+0x2c>
    d7f0:	8b 04 02             	mov    (%rdx,%rax,1),%eax
    d7f3:	48 98                	cltq   
    d7f5:	8b 55 fc             	mov    -0x4(%rbp),%edx
    d7f8:	48 8d 35 f2 26 00 00 	lea    0x26f2(%rip),%rsi        # fef1 <g_2089+0x1da1>
    d7ff:	48 89 c7             	mov    %rax,%rdi
    d802:	e8 ec 6e ff ff       	callq  46f3 <transparent_crc>
    d807:	83 7d fc 00          	cmpl   $0x0,-0x4(%rbp)
    d80b:	74 16                	je     d823 <main+0x2c2c>
    d80d:	8b 45 f0             	mov    -0x10(%rbp),%eax
    d810:	89 c6                	mov    %eax,%esi
    d812:	48 8d 3d e2 1c 00 00 	lea    0x1ce2(%rip),%rdi        # f4fb <g_2089+0x13ab>
    d819:	b8 00 00 00 00       	mov    $0x0,%eax
    d81e:	e8 5d 58 ff ff       	callq  3080 <printf@plt>
    d823:	83 45 f0 01          	addl   $0x1,-0x10(%rbp)
    d827:	83 7d f0 09          	cmpl   $0x9,-0x10(%rbp)
    d82b:	0f 8e 27 fe ff ff    	jle    d658 <main+0x2a61>
    d831:	0f b6 05 48 c3 00 00 	movzbl 0xc348(%rip),%eax        # 19b80 <g_1911>
    d838:	48 0f be c0          	movsbq %al,%rax
    d83c:	8b 55 fc             	mov    -0x4(%rbp),%edx
    d83f:	48 8d 35 b8 26 00 00 	lea    0x26b8(%rip),%rsi        # fefe <g_2089+0x1dae>
    d846:	48 89 c7             	mov    %rax,%rdi
    d849:	e8 a5 6e ff ff       	callq  46f3 <transparent_crc>
    d84e:	8b 05 4c c3 00 00    	mov    0xc34c(%rip),%eax        # 19ba0 <g_1954>
    d854:	48 98                	cltq   
    d856:	8b 55 fc             	mov    -0x4(%rbp),%edx
    d859:	48 8d 35 a5 26 00 00 	lea    0x26a5(%rip),%rsi        # ff05 <g_2089+0x1db5>
    d860:	48 89 c7             	mov    %rax,%rdi
    d863:	e8 8b 6e ff ff       	callq  46f3 <transparent_crc>
    d868:	48 8b 05 39 c3 00 00 	mov    0xc339(%rip),%rax        # 19ba8 <g_1954+0x8>
    d86f:	48 89 c1             	mov    %rax,%rcx
    d872:	8b 45 fc             	mov    -0x4(%rbp),%eax
    d875:	89 c2                	mov    %eax,%edx
    d877:	48 8d 35 91 26 00 00 	lea    0x2691(%rip),%rsi        # ff0f <g_2089+0x1dbf>
    d87e:	48 89 cf             	mov    %rcx,%rdi
    d881:	e8 6d 6e ff ff       	callq  46f3 <transparent_crc>
    d886:	8b 05 24 c3 00 00    	mov    0xc324(%rip),%eax        # 19bb0 <g_1954+0x10>
    d88c:	48 98                	cltq   
    d88e:	8b 55 fc             	mov    -0x4(%rbp),%edx
    d891:	48 8d 35 81 26 00 00 	lea    0x2681(%rip),%rsi        # ff19 <g_2089+0x1dc9>
    d898:	48 89 c7             	mov    %rax,%rdi
    d89b:	e8 53 6e ff ff       	callq  46f3 <transparent_crc>
    d8a0:	0f b6 05 0d c3 00 00 	movzbl 0xc30d(%rip),%eax        # 19bb4 <g_1954+0x14>
    d8a7:	48 0f be c0          	movsbq %al,%rax
    d8ab:	8b 55 fc             	mov    -0x4(%rbp),%edx
    d8ae:	48 8d 35 6e 26 00 00 	lea    0x266e(%rip),%rsi        # ff23 <g_2089+0x1dd3>
    d8b5:	48 89 c7             	mov    %rax,%rdi
    d8b8:	e8 36 6e ff ff       	callq  46f3 <transparent_crc>
    d8bd:	8b 05 f5 c2 00 00    	mov    0xc2f5(%rip),%eax        # 19bb8 <g_1954+0x18>
    d8c3:	89 c1                	mov    %eax,%ecx
    d8c5:	8b 45 fc             	mov    -0x4(%rbp),%eax
    d8c8:	89 c2                	mov    %eax,%edx
    d8ca:	48 8d 35 5c 26 00 00 	lea    0x265c(%rip),%rsi        # ff2d <g_2089+0x1ddd>
    d8d1:	48 89 cf             	mov    %rcx,%rdi
    d8d4:	e8 1a 6e ff ff       	callq  46f3 <transparent_crc>
    d8d9:	48 8b 05 e0 c2 00 00 	mov    0xc2e0(%rip),%rax        # 19bc0 <g_1954+0x20>
    d8e0:	48 89 c1             	mov    %rax,%rcx
    d8e3:	8b 45 fc             	mov    -0x4(%rbp),%eax
    d8e6:	89 c2                	mov    %eax,%edx
    d8e8:	48 8d 35 48 26 00 00 	lea    0x2648(%rip),%rsi        # ff37 <g_2089+0x1de7>
    d8ef:	48 89 cf             	mov    %rcx,%rdi
    d8f2:	e8 fc 6d ff ff       	callq  46f3 <transparent_crc>
    d8f7:	8b 05 cb c2 00 00    	mov    0xc2cb(%rip),%eax        # 19bc8 <g_1954+0x28>
    d8fd:	89 c1                	mov    %eax,%ecx
    d8ff:	8b 45 fc             	mov    -0x4(%rbp),%eax
    d902:	89 c2                	mov    %eax,%edx
    d904:	48 8d 35 36 26 00 00 	lea    0x2636(%rip),%rsi        # ff41 <g_2089+0x1df1>
    d90b:	48 89 cf             	mov    %rcx,%rdi
    d90e:	e8 e0 6d ff ff       	callq  46f3 <transparent_crc>
    d913:	8b 05 b3 c2 00 00    	mov    0xc2b3(%rip),%eax        # 19bcc <g_1954+0x2c>
    d919:	48 98                	cltq   
    d91b:	8b 55 fc             	mov    -0x4(%rbp),%edx
    d91e:	48 8d 35 26 26 00 00 	lea    0x2626(%rip),%rsi        # ff4b <g_2089+0x1dfb>
    d925:	48 89 c7             	mov    %rax,%rdi
    d928:	e8 c6 6d ff ff       	callq  46f3 <transparent_crc>
    d92d:	8b 05 ad c2 00 00    	mov    0xc2ad(%rip),%eax        # 19be0 <g_1977>
    d933:	48 98                	cltq   
    d935:	8b 55 fc             	mov    -0x4(%rbp),%edx
    d938:	48 8d 35 16 26 00 00 	lea    0x2616(%rip),%rsi        # ff55 <g_2089+0x1e05>
    d93f:	48 89 c7             	mov    %rax,%rdi
    d942:	e8 ac 6d ff ff       	callq  46f3 <transparent_crc>
    d947:	48 8b 05 9a c2 00 00 	mov    0xc29a(%rip),%rax        # 19be8 <g_1977+0x8>
    d94e:	48 89 c1             	mov    %rax,%rcx
    d951:	8b 45 fc             	mov    -0x4(%rbp),%eax
    d954:	89 c2                	mov    %eax,%edx
    d956:	48 8d 35 02 26 00 00 	lea    0x2602(%rip),%rsi        # ff5f <g_2089+0x1e0f>
    d95d:	48 89 cf             	mov    %rcx,%rdi
    d960:	e8 8e 6d ff ff       	callq  46f3 <transparent_crc>
    d965:	8b 05 85 c2 00 00    	mov    0xc285(%rip),%eax        # 19bf0 <g_1977+0x10>
    d96b:	48 98                	cltq   
    d96d:	8b 55 fc             	mov    -0x4(%rbp),%edx
    d970:	48 8d 35 f2 25 00 00 	lea    0x25f2(%rip),%rsi        # ff69 <g_2089+0x1e19>
    d977:	48 89 c7             	mov    %rax,%rdi
    d97a:	e8 74 6d ff ff       	callq  46f3 <transparent_crc>
    d97f:	0f b6 05 6e c2 00 00 	movzbl 0xc26e(%rip),%eax        # 19bf4 <g_1977+0x14>
    d986:	48 0f be c0          	movsbq %al,%rax
    d98a:	8b 55 fc             	mov    -0x4(%rbp),%edx
    d98d:	48 8d 35 df 25 00 00 	lea    0x25df(%rip),%rsi        # ff73 <g_2089+0x1e23>
    d994:	48 89 c7             	mov    %rax,%rdi
    d997:	e8 57 6d ff ff       	callq  46f3 <transparent_crc>
    d99c:	8b 05 56 c2 00 00    	mov    0xc256(%rip),%eax        # 19bf8 <g_1977+0x18>
    d9a2:	89 c1                	mov    %eax,%ecx
    d9a4:	8b 45 fc             	mov    -0x4(%rbp),%eax
    d9a7:	89 c2                	mov    %eax,%edx
    d9a9:	48 8d 35 cd 25 00 00 	lea    0x25cd(%rip),%rsi        # ff7d <g_2089+0x1e2d>
    d9b0:	48 89 cf             	mov    %rcx,%rdi
    d9b3:	e8 3b 6d ff ff       	callq  46f3 <transparent_crc>
    d9b8:	48 8b 05 41 c2 00 00 	mov    0xc241(%rip),%rax        # 19c00 <g_1977+0x20>
    d9bf:	48 89 c1             	mov    %rax,%rcx
    d9c2:	8b 45 fc             	mov    -0x4(%rbp),%eax
    d9c5:	89 c2                	mov    %eax,%edx
    d9c7:	48 8d 35 b9 25 00 00 	lea    0x25b9(%rip),%rsi        # ff87 <g_2089+0x1e37>
    d9ce:	48 89 cf             	mov    %rcx,%rdi
    d9d1:	e8 1d 6d ff ff       	callq  46f3 <transparent_crc>
    d9d6:	8b 05 2c c2 00 00    	mov    0xc22c(%rip),%eax        # 19c08 <g_1977+0x28>
    d9dc:	89 c1                	mov    %eax,%ecx
    d9de:	8b 45 fc             	mov    -0x4(%rbp),%eax
    d9e1:	89 c2                	mov    %eax,%edx
    d9e3:	48 8d 35 a7 25 00 00 	lea    0x25a7(%rip),%rsi        # ff91 <g_2089+0x1e41>
    d9ea:	48 89 cf             	mov    %rcx,%rdi
    d9ed:	e8 01 6d ff ff       	callq  46f3 <transparent_crc>
    d9f2:	8b 05 14 c2 00 00    	mov    0xc214(%rip),%eax        # 19c0c <g_1977+0x2c>
    d9f8:	48 98                	cltq   
    d9fa:	8b 55 fc             	mov    -0x4(%rbp),%edx
    d9fd:	48 8d 35 97 25 00 00 	lea    0x2597(%rip),%rsi        # ff9b <g_2089+0x1e4b>
    da04:	48 89 c7             	mov    %rax,%rdi
    da07:	e8 e7 6c ff ff       	callq  46f3 <transparent_crc>
    da0c:	8b 05 0e c2 00 00    	mov    0xc20e(%rip),%eax        # 19c20 <g_2013>
    da12:	48 98                	cltq   
    da14:	8b 55 fc             	mov    -0x4(%rbp),%edx
    da17:	48 8d 35 87 25 00 00 	lea    0x2587(%rip),%rsi        # ffa5 <g_2089+0x1e55>
    da1e:	48 89 c7             	mov    %rax,%rdi
    da21:	e8 cd 6c ff ff       	callq  46f3 <transparent_crc>
    da26:	48 8b 05 fb c1 00 00 	mov    0xc1fb(%rip),%rax        # 19c28 <g_2013+0x8>
    da2d:	48 89 c1             	mov    %rax,%rcx
    da30:	8b 45 fc             	mov    -0x4(%rbp),%eax
    da33:	89 c2                	mov    %eax,%edx
    da35:	48 8d 35 73 25 00 00 	lea    0x2573(%rip),%rsi        # ffaf <g_2089+0x1e5f>
    da3c:	48 89 cf             	mov    %rcx,%rdi
    da3f:	e8 af 6c ff ff       	callq  46f3 <transparent_crc>
    da44:	8b 05 e6 c1 00 00    	mov    0xc1e6(%rip),%eax        # 19c30 <g_2013+0x10>
    da4a:	48 98                	cltq   
    da4c:	8b 55 fc             	mov    -0x4(%rbp),%edx
    da4f:	48 8d 35 63 25 00 00 	lea    0x2563(%rip),%rsi        # ffb9 <g_2089+0x1e69>
    da56:	48 89 c7             	mov    %rax,%rdi
    da59:	e8 95 6c ff ff       	callq  46f3 <transparent_crc>
    da5e:	0f b6 05 cf c1 00 00 	movzbl 0xc1cf(%rip),%eax        # 19c34 <g_2013+0x14>
    da65:	48 0f be c0          	movsbq %al,%rax
    da69:	8b 55 fc             	mov    -0x4(%rbp),%edx
    da6c:	48 8d 35 50 25 00 00 	lea    0x2550(%rip),%rsi        # ffc3 <g_2089+0x1e73>
    da73:	48 89 c7             	mov    %rax,%rdi
    da76:	e8 78 6c ff ff       	callq  46f3 <transparent_crc>
    da7b:	8b 05 b7 c1 00 00    	mov    0xc1b7(%rip),%eax        # 19c38 <g_2013+0x18>
    da81:	89 c1                	mov    %eax,%ecx
    da83:	8b 45 fc             	mov    -0x4(%rbp),%eax
    da86:	89 c2                	mov    %eax,%edx
    da88:	48 8d 35 3e 25 00 00 	lea    0x253e(%rip),%rsi        # ffcd <g_2089+0x1e7d>
    da8f:	48 89 cf             	mov    %rcx,%rdi
    da92:	e8 5c 6c ff ff       	callq  46f3 <transparent_crc>
    da97:	48 8b 05 a2 c1 00 00 	mov    0xc1a2(%rip),%rax        # 19c40 <g_2013+0x20>
    da9e:	48 89 c1             	mov    %rax,%rcx
    daa1:	8b 45 fc             	mov    -0x4(%rbp),%eax
    daa4:	89 c2                	mov    %eax,%edx
    daa6:	48 8d 35 2a 25 00 00 	lea    0x252a(%rip),%rsi        # ffd7 <g_2089+0x1e87>
    daad:	48 89 cf             	mov    %rcx,%rdi
    dab0:	e8 3e 6c ff ff       	callq  46f3 <transparent_crc>
    dab5:	8b 05 8d c1 00 00    	mov    0xc18d(%rip),%eax        # 19c48 <g_2013+0x28>
    dabb:	89 c1                	mov    %eax,%ecx
    dabd:	8b 45 fc             	mov    -0x4(%rbp),%eax
    dac0:	89 c2                	mov    %eax,%edx
    dac2:	48 8d 35 18 25 00 00 	lea    0x2518(%rip),%rsi        # ffe1 <g_2089+0x1e91>
    dac9:	48 89 cf             	mov    %rcx,%rdi
    dacc:	e8 22 6c ff ff       	callq  46f3 <transparent_crc>
    dad1:	8b 05 75 c1 00 00    	mov    0xc175(%rip),%eax        # 19c4c <g_2013+0x2c>
    dad7:	48 98                	cltq   
    dad9:	8b 55 fc             	mov    -0x4(%rbp),%edx
    dadc:	48 8d 35 08 25 00 00 	lea    0x2508(%rip),%rsi        # ffeb <g_2089+0x1e9b>
    dae3:	48 89 c7             	mov    %rax,%rdi
    dae6:	e8 08 6c ff ff       	callq  46f3 <transparent_crc>
    daeb:	48 8b 05 0e d2 00 00 	mov    0xd20e(%rip),%rax        # 1ad00 <g_2029>
    daf2:	8b 55 fc             	mov    -0x4(%rbp),%edx
    daf5:	48 8d 35 f9 24 00 00 	lea    0x24f9(%rip),%rsi        # fff5 <g_2089+0x1ea5>
    dafc:	48 89 c7             	mov    %rax,%rdi
    daff:	e8 ef 6b ff ff       	callq  46f3 <transparent_crc>
    db04:	8b 05 56 c1 00 00    	mov    0xc156(%rip),%eax        # 19c60 <g_2050>
    db0a:	48 98                	cltq   
    db0c:	8b 55 fc             	mov    -0x4(%rbp),%edx
    db0f:	48 8d 35 e6 24 00 00 	lea    0x24e6(%rip),%rsi        # fffc <g_2089+0x1eac>
    db16:	48 89 c7             	mov    %rax,%rdi
    db19:	e8 d5 6b ff ff       	callq  46f3 <transparent_crc>
    db1e:	48 8b 05 43 c1 00 00 	mov    0xc143(%rip),%rax        # 19c68 <g_2050+0x8>
    db25:	48 89 c1             	mov    %rax,%rcx
    db28:	8b 45 fc             	mov    -0x4(%rbp),%eax
    db2b:	89 c2                	mov    %eax,%edx
    db2d:	48 8d 35 d2 24 00 00 	lea    0x24d2(%rip),%rsi        # 10006 <g_2089+0x1eb6>
    db34:	48 89 cf             	mov    %rcx,%rdi
    db37:	e8 b7 6b ff ff       	callq  46f3 <transparent_crc>
    db3c:	8b 05 2e c1 00 00    	mov    0xc12e(%rip),%eax        # 19c70 <g_2050+0x10>
    db42:	48 98                	cltq   
    db44:	8b 55 fc             	mov    -0x4(%rbp),%edx
    db47:	48 8d 35 c2 24 00 00 	lea    0x24c2(%rip),%rsi        # 10010 <g_2089+0x1ec0>
    db4e:	48 89 c7             	mov    %rax,%rdi
    db51:	e8 9d 6b ff ff       	callq  46f3 <transparent_crc>
    db56:	0f b6 05 17 c1 00 00 	movzbl 0xc117(%rip),%eax        # 19c74 <g_2050+0x14>
    db5d:	48 0f be c0          	movsbq %al,%rax
    db61:	8b 55 fc             	mov    -0x4(%rbp),%edx
    db64:	48 8d 35 af 24 00 00 	lea    0x24af(%rip),%rsi        # 1001a <g_2089+0x1eca>
    db6b:	48 89 c7             	mov    %rax,%rdi
    db6e:	e8 80 6b ff ff       	callq  46f3 <transparent_crc>
    db73:	8b 05 ff c0 00 00    	mov    0xc0ff(%rip),%eax        # 19c78 <g_2050+0x18>
    db79:	89 c1                	mov    %eax,%ecx
    db7b:	8b 45 fc             	mov    -0x4(%rbp),%eax
    db7e:	89 c2                	mov    %eax,%edx
    db80:	48 8d 35 9d 24 00 00 	lea    0x249d(%rip),%rsi        # 10024 <g_2089+0x1ed4>
    db87:	48 89 cf             	mov    %rcx,%rdi
    db8a:	e8 64 6b ff ff       	callq  46f3 <transparent_crc>
    db8f:	48 8b 05 ea c0 00 00 	mov    0xc0ea(%rip),%rax        # 19c80 <g_2050+0x20>
    db96:	48 89 c1             	mov    %rax,%rcx
    db99:	8b 45 fc             	mov    -0x4(%rbp),%eax
    db9c:	89 c2                	mov    %eax,%edx
    db9e:	48 8d 35 89 24 00 00 	lea    0x2489(%rip),%rsi        # 1002e <g_2089+0x1ede>
    dba5:	48 89 cf             	mov    %rcx,%rdi
    dba8:	e8 46 6b ff ff       	callq  46f3 <transparent_crc>
    dbad:	8b 05 d5 c0 00 00    	mov    0xc0d5(%rip),%eax        # 19c88 <g_2050+0x28>
    dbb3:	89 c1                	mov    %eax,%ecx
    dbb5:	8b 45 fc             	mov    -0x4(%rbp),%eax
    dbb8:	89 c2                	mov    %eax,%edx
    dbba:	48 8d 35 77 24 00 00 	lea    0x2477(%rip),%rsi        # 10038 <g_2089+0x1ee8>
    dbc1:	48 89 cf             	mov    %rcx,%rdi
    dbc4:	e8 2a 6b ff ff       	callq  46f3 <transparent_crc>
    dbc9:	8b 05 bd c0 00 00    	mov    0xc0bd(%rip),%eax        # 19c8c <g_2050+0x2c>
    dbcf:	48 98                	cltq   
    dbd1:	8b 55 fc             	mov    -0x4(%rbp),%edx
    dbd4:	48 8d 35 67 24 00 00 	lea    0x2467(%rip),%rsi        # 10042 <g_2089+0x1ef2>
    dbdb:	48 89 c7             	mov    %rax,%rdi
    dbde:	e8 10 6b ff ff       	callq  46f3 <transparent_crc>
    dbe3:	c7 45 f0 00 00 00 00 	movl   $0x0,-0x10(%rbp)
    dbea:	e9 cf 01 00 00       	jmpq   ddbe <main+0x31c7>
    dbef:	8b 45 f0             	mov    -0x10(%rbp),%eax
    dbf2:	48 63 d0             	movslq %eax,%rdx
    dbf5:	48 89 d0             	mov    %rdx,%rax
    dbf8:	48 01 c0             	add    %rax,%rax
    dbfb:	48 01 d0             	add    %rdx,%rax
    dbfe:	48 c1 e0 04          	shl    $0x4,%rax
    dc02:	48 89 c2             	mov    %rax,%rdx
    dc05:	48 8d 05 94 c0 00 00 	lea    0xc094(%rip),%rax        # 19ca0 <g_2075>
    dc0c:	8b 04 02             	mov    (%rdx,%rax,1),%eax
    dc0f:	48 98                	cltq   
    dc11:	8b 55 fc             	mov    -0x4(%rbp),%edx
    dc14:	48 8d 35 31 24 00 00 	lea    0x2431(%rip),%rsi        # 1004c <g_2089+0x1efc>
    dc1b:	48 89 c7             	mov    %rax,%rdi
    dc1e:	e8 d0 6a ff ff       	callq  46f3 <transparent_crc>
    dc23:	8b 45 f0             	mov    -0x10(%rbp),%eax
    dc26:	48 63 d0             	movslq %eax,%rdx
    dc29:	48 89 d0             	mov    %rdx,%rax
    dc2c:	48 01 c0             	add    %rax,%rax
    dc2f:	48 01 d0             	add    %rdx,%rax
    dc32:	48 c1 e0 04          	shl    $0x4,%rax
    dc36:	48 89 c2             	mov    %rax,%rdx
    dc39:	48 8d 05 68 c0 00 00 	lea    0xc068(%rip),%rax        # 19ca8 <g_2075+0x8>
    dc40:	48 8b 04 02          	mov    (%rdx,%rax,1),%rax
    dc44:	48 89 c1             	mov    %rax,%rcx
    dc47:	8b 45 fc             	mov    -0x4(%rbp),%eax
    dc4a:	89 c2                	mov    %eax,%edx
    dc4c:	48 8d 35 06 24 00 00 	lea    0x2406(%rip),%rsi        # 10059 <g_2089+0x1f09>
    dc53:	48 89 cf             	mov    %rcx,%rdi
    dc56:	e8 98 6a ff ff       	callq  46f3 <transparent_crc>
    dc5b:	8b 45 f0             	mov    -0x10(%rbp),%eax
    dc5e:	48 63 d0             	movslq %eax,%rdx
    dc61:	48 89 d0             	mov    %rdx,%rax
    dc64:	48 01 c0             	add    %rax,%rax
    dc67:	48 01 d0             	add    %rdx,%rax
    dc6a:	48 c1 e0 04          	shl    $0x4,%rax
    dc6e:	48 89 c2             	mov    %rax,%rdx
    dc71:	48 8d 05 38 c0 00 00 	lea    0xc038(%rip),%rax        # 19cb0 <g_2075+0x10>
    dc78:	8b 04 02             	mov    (%rdx,%rax,1),%eax
    dc7b:	48 98                	cltq   
    dc7d:	8b 55 fc             	mov    -0x4(%rbp),%edx
    dc80:	48 8d 35 df 23 00 00 	lea    0x23df(%rip),%rsi        # 10066 <g_2089+0x1f16>
    dc87:	48 89 c7             	mov    %rax,%rdi
    dc8a:	e8 64 6a ff ff       	callq  46f3 <transparent_crc>
    dc8f:	8b 45 f0             	mov    -0x10(%rbp),%eax
    dc92:	48 63 d0             	movslq %eax,%rdx
    dc95:	48 89 d0             	mov    %rdx,%rax
    dc98:	48 01 c0             	add    %rax,%rax
    dc9b:	48 01 d0             	add    %rdx,%rax
    dc9e:	48 c1 e0 04          	shl    $0x4,%rax
    dca2:	48 89 c2             	mov    %rax,%rdx
    dca5:	48 8d 05 08 c0 00 00 	lea    0xc008(%rip),%rax        # 19cb4 <g_2075+0x14>
    dcac:	0f b6 04 02          	movzbl (%rdx,%rax,1),%eax
    dcb0:	48 0f be c0          	movsbq %al,%rax
    dcb4:	8b 55 fc             	mov    -0x4(%rbp),%edx
    dcb7:	48 8d 35 b5 23 00 00 	lea    0x23b5(%rip),%rsi        # 10073 <g_2089+0x1f23>
    dcbe:	48 89 c7             	mov    %rax,%rdi
    dcc1:	e8 2d 6a ff ff       	callq  46f3 <transparent_crc>
    dcc6:	8b 45 f0             	mov    -0x10(%rbp),%eax
    dcc9:	48 63 d0             	movslq %eax,%rdx
    dccc:	48 89 d0             	mov    %rdx,%rax
    dccf:	48 01 c0             	add    %rax,%rax
    dcd2:	48 01 d0             	add    %rdx,%rax
    dcd5:	48 c1 e0 04          	shl    $0x4,%rax
    dcd9:	48 89 c2             	mov    %rax,%rdx
    dcdc:	48 8d 05 d5 bf 00 00 	lea    0xbfd5(%rip),%rax        # 19cb8 <g_2075+0x18>
    dce3:	8b 04 02             	mov    (%rdx,%rax,1),%eax
    dce6:	89 c1                	mov    %eax,%ecx
    dce8:	8b 45 fc             	mov    -0x4(%rbp),%eax
    dceb:	89 c2                	mov    %eax,%edx
    dced:	48 8d 35 8c 23 00 00 	lea    0x238c(%rip),%rsi        # 10080 <g_2089+0x1f30>
    dcf4:	48 89 cf             	mov    %rcx,%rdi
    dcf7:	e8 f7 69 ff ff       	callq  46f3 <transparent_crc>
    dcfc:	8b 45 f0             	mov    -0x10(%rbp),%eax
    dcff:	48 63 d0             	movslq %eax,%rdx
    dd02:	48 89 d0             	mov    %rdx,%rax
    dd05:	48 01 c0             	add    %rax,%rax
    dd08:	48 01 d0             	add    %rdx,%rax
    dd0b:	48 c1 e0 04          	shl    $0x4,%rax
    dd0f:	48 89 c2             	mov    %rax,%rdx
    dd12:	48 8d 05 a7 bf 00 00 	lea    0xbfa7(%rip),%rax        # 19cc0 <g_2075+0x20>
    dd19:	48 8b 04 02          	mov    (%rdx,%rax,1),%rax
    dd1d:	48 89 c1             	mov    %rax,%rcx
    dd20:	8b 45 fc             	mov    -0x4(%rbp),%eax
    dd23:	89 c2                	mov    %eax,%edx
    dd25:	48 8d 35 61 23 00 00 	lea    0x2361(%rip),%rsi        # 1008d <g_2089+0x1f3d>
    dd2c:	48 89 cf             	mov    %rcx,%rdi
    dd2f:	e8 bf 69 ff ff       	callq  46f3 <transparent_crc>
    dd34:	8b 45 f0             	mov    -0x10(%rbp),%eax
    dd37:	48 63 d0             	movslq %eax,%rdx
    dd3a:	48 89 d0             	mov    %rdx,%rax
    dd3d:	48 01 c0             	add    %rax,%rax
    dd40:	48 01 d0             	add    %rdx,%rax
    dd43:	48 c1 e0 04          	shl    $0x4,%rax
    dd47:	48 89 c2             	mov    %rax,%rdx
    dd4a:	48 8d 05 77 bf 00 00 	lea    0xbf77(%rip),%rax        # 19cc8 <g_2075+0x28>
    dd51:	8b 04 02             	mov    (%rdx,%rax,1),%eax
    dd54:	89 c1                	mov    %eax,%ecx
    dd56:	8b 45 fc             	mov    -0x4(%rbp),%eax
    dd59:	89 c2                	mov    %eax,%edx
    dd5b:	48 8d 35 38 23 00 00 	lea    0x2338(%rip),%rsi        # 1009a <g_2089+0x1f4a>
    dd62:	48 89 cf             	mov    %rcx,%rdi
    dd65:	e8 89 69 ff ff       	callq  46f3 <transparent_crc>
    dd6a:	8b 45 f0             	mov    -0x10(%rbp),%eax
    dd6d:	48 63 d0             	movslq %eax,%rdx
    dd70:	48 89 d0             	mov    %rdx,%rax
    dd73:	48 01 c0             	add    %rax,%rax
    dd76:	48 01 d0             	add    %rdx,%rax
    dd79:	48 c1 e0 04          	shl    $0x4,%rax
    dd7d:	48 89 c2             	mov    %rax,%rdx
    dd80:	48 8d 05 45 bf 00 00 	lea    0xbf45(%rip),%rax        # 19ccc <g_2075+0x2c>
    dd87:	8b 04 02             	mov    (%rdx,%rax,1),%eax
    dd8a:	48 98                	cltq   
    dd8c:	8b 55 fc             	mov    -0x4(%rbp),%edx
    dd8f:	48 8d 35 11 23 00 00 	lea    0x2311(%rip),%rsi        # 100a7 <g_2089+0x1f57>
    dd96:	48 89 c7             	mov    %rax,%rdi
    dd99:	e8 55 69 ff ff       	callq  46f3 <transparent_crc>
    dd9e:	83 7d fc 00          	cmpl   $0x0,-0x4(%rbp)
    dda2:	74 16                	je     ddba <main+0x31c3>
    dda4:	8b 45 f0             	mov    -0x10(%rbp),%eax
    dda7:	89 c6                	mov    %eax,%esi
    dda9:	48 8d 3d 4b 17 00 00 	lea    0x174b(%rip),%rdi        # f4fb <g_2089+0x13ab>
    ddb0:	b8 00 00 00 00       	mov    $0x0,%eax
    ddb5:	e8 c6 52 ff ff       	callq  3080 <printf@plt>
    ddba:	83 45 f0 01          	addl   $0x1,-0x10(%rbp)
    ddbe:	83 7d f0 04          	cmpl   $0x4,-0x10(%rbp)
    ddc2:	0f 8e 27 fe ff ff    	jle    dbef <main+0x2ff8>
    ddc8:	b8 06 00 00 00       	mov    $0x6,%eax
    ddcd:	0f b7 c0             	movzwl %ax,%eax
    ddd0:	8b 55 fc             	mov    -0x4(%rbp),%edx
    ddd3:	48 8d 35 da 22 00 00 	lea    0x22da(%rip),%rsi        # 100b4 <g_2089+0x1f64>
    ddda:	48 89 c7             	mov    %rax,%rdi
    dddd:	e8 11 69 ff ff       	callq  46f3 <transparent_crc>
    dde2:	8b 05 b8 bf 00 00    	mov    0xbfb8(%rip),%eax        # 19da0 <g_2116>
    dde8:	48 98                	cltq   
    ddea:	8b 55 fc             	mov    -0x4(%rbp),%edx
    dded:	48 8d 35 ca 22 00 00 	lea    0x22ca(%rip),%rsi        # 100be <g_2089+0x1f6e>
    ddf4:	48 89 c7             	mov    %rax,%rdi
    ddf7:	e8 f7 68 ff ff       	callq  46f3 <transparent_crc>
    ddfc:	48 8b 05 a5 bf 00 00 	mov    0xbfa5(%rip),%rax        # 19da8 <g_2116+0x8>
    de03:	48 89 c1             	mov    %rax,%rcx
    de06:	8b 45 fc             	mov    -0x4(%rbp),%eax
    de09:	89 c2                	mov    %eax,%edx
    de0b:	48 8d 35 b6 22 00 00 	lea    0x22b6(%rip),%rsi        # 100c8 <g_2089+0x1f78>
    de12:	48 89 cf             	mov    %rcx,%rdi
    de15:	e8 d9 68 ff ff       	callq  46f3 <transparent_crc>
    de1a:	8b 05 90 bf 00 00    	mov    0xbf90(%rip),%eax        # 19db0 <g_2116+0x10>
    de20:	48 98                	cltq   
    de22:	8b 55 fc             	mov    -0x4(%rbp),%edx
    de25:	48 8d 35 a6 22 00 00 	lea    0x22a6(%rip),%rsi        # 100d2 <g_2089+0x1f82>
    de2c:	48 89 c7             	mov    %rax,%rdi
    de2f:	e8 bf 68 ff ff       	callq  46f3 <transparent_crc>
    de34:	0f b6 05 79 bf 00 00 	movzbl 0xbf79(%rip),%eax        # 19db4 <g_2116+0x14>
    de3b:	48 0f be c0          	movsbq %al,%rax
    de3f:	8b 55 fc             	mov    -0x4(%rbp),%edx
    de42:	48 8d 35 93 22 00 00 	lea    0x2293(%rip),%rsi        # 100dc <g_2089+0x1f8c>
    de49:	48 89 c7             	mov    %rax,%rdi
    de4c:	e8 a2 68 ff ff       	callq  46f3 <transparent_crc>
    de51:	8b 05 61 bf 00 00    	mov    0xbf61(%rip),%eax        # 19db8 <g_2116+0x18>
    de57:	89 c1                	mov    %eax,%ecx
    de59:	8b 45 fc             	mov    -0x4(%rbp),%eax
    de5c:	89 c2                	mov    %eax,%edx
    de5e:	48 8d 35 81 22 00 00 	lea    0x2281(%rip),%rsi        # 100e6 <g_2089+0x1f96>
    de65:	48 89 cf             	mov    %rcx,%rdi
    de68:	e8 86 68 ff ff       	callq  46f3 <transparent_crc>
    de6d:	48 8b 05 4c bf 00 00 	mov    0xbf4c(%rip),%rax        # 19dc0 <g_2116+0x20>
    de74:	48 89 c1             	mov    %rax,%rcx
    de77:	8b 45 fc             	mov    -0x4(%rbp),%eax
    de7a:	89 c2                	mov    %eax,%edx
    de7c:	48 8d 35 6d 22 00 00 	lea    0x226d(%rip),%rsi        # 100f0 <g_2089+0x1fa0>
    de83:	48 89 cf             	mov    %rcx,%rdi
    de86:	e8 68 68 ff ff       	callq  46f3 <transparent_crc>
    de8b:	8b 05 37 bf 00 00    	mov    0xbf37(%rip),%eax        # 19dc8 <g_2116+0x28>
    de91:	89 c1                	mov    %eax,%ecx
    de93:	8b 45 fc             	mov    -0x4(%rbp),%eax
    de96:	89 c2                	mov    %eax,%edx
    de98:	48 8d 35 5b 22 00 00 	lea    0x225b(%rip),%rsi        # 100fa <g_2089+0x1faa>
    de9f:	48 89 cf             	mov    %rcx,%rdi
    dea2:	e8 4c 68 ff ff       	callq  46f3 <transparent_crc>
    dea7:	8b 05 1f bf 00 00    	mov    0xbf1f(%rip),%eax        # 19dcc <g_2116+0x2c>
    dead:	48 98                	cltq   
    deaf:	8b 55 fc             	mov    -0x4(%rbp),%edx
    deb2:	48 8d 35 4b 22 00 00 	lea    0x224b(%rip),%rsi        # 10104 <g_2089+0x1fb4>
    deb9:	48 89 c7             	mov    %rax,%rdi
    debc:	e8 32 68 ff ff       	callq  46f3 <transparent_crc>
    dec1:	0f b6 05 08 bf 00 00 	movzbl 0xbf08(%rip),%eax        # 19dd0 <g_2152>
    dec8:	0f b6 c0             	movzbl %al,%eax
    decb:	8b 55 fc             	mov    -0x4(%rbp),%edx
    dece:	48 8d 35 39 22 00 00 	lea    0x2239(%rip),%rsi        # 1010e <g_2089+0x1fbe>
    ded5:	48 89 c7             	mov    %rax,%rdi
    ded8:	e8 16 68 ff ff       	callq  46f3 <transparent_crc>
    dedd:	48 8b 05 f4 be 00 00 	mov    0xbef4(%rip),%rax        # 19dd8 <g_2162>
    dee4:	48 89 c1             	mov    %rax,%rcx
    dee7:	8b 45 fc             	mov    -0x4(%rbp),%eax
    deea:	89 c2                	mov    %eax,%edx
    deec:	48 8d 35 22 22 00 00 	lea    0x2222(%rip),%rsi        # 10115 <g_2089+0x1fc5>
    def3:	48 89 cf             	mov    %rcx,%rdi
    def6:	e8 f8 67 ff ff       	callq  46f3 <transparent_crc>
    defb:	8b 05 1f 51 00 00    	mov    0x511f(%rip),%eax        # 13020 <crc32_context>
    df01:	f7 d0                	not    %eax
    df03:	89 c2                	mov    %eax,%edx
    df05:	8b 45 fc             	mov    -0x4(%rbp),%eax
    df08:	89 c6                	mov    %eax,%esi
    df0a:	89 d7                	mov    %edx,%edi
    df0c:	e8 83 52 ff ff       	callq  3194 <platform_main_end>
    df11:	b8 00 00 00 00       	mov    $0x0,%eax
    df16:	c9                   	leaveq 
    df17:	c3                   	retq   
    df18:	0f 1f 84 00 00 00 00 	nopl   0x0(%rax,%rax,1)
    df1f:	00 

000000000000df20 <__libc_csu_init>:
    df20:	f3 0f 1e fa          	endbr64 
    df24:	41 57                	push   %r15
    df26:	4c 8d 3d 6b 4e 00 00 	lea    0x4e6b(%rip),%r15        # 12d98 <__frame_dummy_init_array_entry>
    df2d:	41 56                	push   %r14
    df2f:	49 89 d6             	mov    %rdx,%r14
    df32:	41 55                	push   %r13
    df34:	49 89 f5             	mov    %rsi,%r13
    df37:	41 54                	push   %r12
    df39:	41 89 fc             	mov    %edi,%r12d
    df3c:	55                   	push   %rbp
    df3d:	48 8d 2d 5c 4e 00 00 	lea    0x4e5c(%rip),%rbp        # 12da0 <__do_global_dtors_aux_fini_array_entry>
    df44:	53                   	push   %rbx
    df45:	4c 29 fd             	sub    %r15,%rbp
    df48:	48 83 ec 08          	sub    $0x8,%rsp
    df4c:	e8 af 50 ff ff       	callq  3000 <_init>
    df51:	48 c1 fd 03          	sar    $0x3,%rbp
    df55:	74 1f                	je     df76 <__libc_csu_init+0x56>
    df57:	31 db                	xor    %ebx,%ebx
    df59:	0f 1f 80 00 00 00 00 	nopl   0x0(%rax)
    df60:	4c 89 f2             	mov    %r14,%rdx
    df63:	4c 89 ee             	mov    %r13,%rsi
    df66:	44 89 e7             	mov    %r12d,%edi
    df69:	41 ff 14 df          	callq  *(%r15,%rbx,8)
    df6d:	48 83 c3 01          	add    $0x1,%rbx
    df71:	48 39 dd             	cmp    %rbx,%rbp
    df74:	75 ea                	jne    df60 <__libc_csu_init+0x40>
    df76:	48 83 c4 08          	add    $0x8,%rsp
    df7a:	5b                   	pop    %rbx
    df7b:	5d                   	pop    %rbp
    df7c:	41 5c                	pop    %r12
    df7e:	41 5d                	pop    %r13
    df80:	41 5e                	pop    %r14
    df82:	41 5f                	pop    %r15
    df84:	c3                   	retq   
    df85:	66 66 2e 0f 1f 84 00 	data16 nopw %cs:0x0(%rax,%rax,1)
    df8c:	00 00 00 00 

000000000000df90 <__libc_csu_fini>:
    df90:	f3 0f 1e fa          	endbr64 
    df94:	c3                   	retq   
